 OPOSMotionSensor

 Timestamp is 5defa9f6 (Tue Dec 10 23:21:42 2019)

 Preferred load address is 10000000

 Start         Length     Name                   Class
 0001:00000000 00000080H .text$di                CODE
 0001:00000080 0001d463H .text$mn                CODE
 0001:0001d4e3 00000036H .text$x                 CODE
 0001:0001d519 00000042H .text$yd                CODE
 0002:00000000 000002fcH .idata$5                DATA
 0002:000002fc 00000004H .00cfg                  DATA
 0002:00000300 00000004H .CRT$XCA                DATA
 0002:00000304 00000004H .CRT$XCL                DATA
 0002:00000308 00000010H .CRT$XCU                DATA
 0002:00000318 00000004H .CRT$XCZ                DATA
 0002:0000031c 00000004H .CRT$XIA                DATA
 0002:00000320 00000010H .CRT$XIC                DATA
 0002:00000330 00000004H .CRT$XIZ                DATA
 0002:00000334 00000004H .CRT$XLA                DATA
 0002:00000338 00000004H .CRT$XLZ                DATA
 0002:0000033c 00000004H .CRT$XPA                DATA
 0002:00000340 00000008H .CRT$XPX                DATA
 0002:00000348 00000004H .CRT$XPXA               DATA
 0002:0000034c 00000004H .CRT$XPZ                DATA
 0002:00000350 00000004H .CRT$XTA                DATA
 0002:00000354 0000000cH .CRT$XTZ                DATA
 0002:00000358 00000000H .gfids$y                DATA
 0002:00000360 00006e1cH .rdata                  DATA
 0002:0000717c 00000018H .rdata$T                DATA
 0002:00007194 0000017cH .rdata$r                DATA
 0002:00007310 0000001cH .rdata$sxdata           DATA
 0002:0000732c 000003e0H .rdata$zzzdbg           DATA
 0002:0000770c 00000004H .rtc$IAA                DATA
 0002:00007710 00000004H .rtc$IZZ                DATA
 0002:00007714 00000004H .rtc$TAA                DATA
 0002:00007718 00000004H .rtc$TZZ                DATA
 0002:0000771c 00000004H .tls                    DATA
 0002:00007720 00000004H .tls$                   DATA
 0002:00007724 00000004H .tls$ZZZ                DATA
 0002:00007728 0000060cH .xdata$x                DATA
 0002:00007d34 00000004H ATL$__a                 DATA
 0002:00007d38 00000008H ATL$__z                 DATA
 0002:00007d40 000000b0H .edata                  DATA
 0002:00007df0 00000078H .idata$2                DATA
 0002:00007e68 00000014H .idata$3                DATA
 0002:00007e7c 000002fcH .idata$4                DATA
 0002:00008178 00000bc8H .idata$6                DATA
 0003:00000000 00000a90H .data                   DATA
 0003:00000a90 00000098H .data$r                 DATA
 0003:00000b28 00000b80H .bss                    DATA
 0004:00000000 00000220H .rsrc$01                DATA
 0004:00000220 00003718H .rsrc$02                DATA

  Address         Publics by Value              Rva+Base       Lib:Object

 0000:00000000       ___guard_iat_count         00000000     <absolute>
 0000:00000000       ___guard_longjmp_table     00000000     <absolute>
 0000:00000000       ___hybrid_code_map_count   00000000     <absolute>
 0000:00000000       ___dynamic_value_reloc_table 00000000     <absolute>
 0000:00000000       ___guard_longjmp_count     00000000     <absolute>
 0000:00000000       __except_list              00000000     <absolute>
 0000:00000000       ___guard_fids_table        00000000     <absolute>
 0000:00000000       ___guard_fids_count        00000000     <absolute>
 0000:00000000       ___hybrid_auxiliary_iat    00000000     <absolute>
 0000:00000000       ___guard_iat_table         00000000     <absolute>
 0000:00000000       ___volatile_metadata       00000000     <absolute>
 0000:00000000       ___enclave_config          00000000     <absolute>
 0000:00000000       ___AbsoluteZero            00000000     <absolute>
 0000:00000000       ___hybrid_code_map         00000000     <absolute>
 0000:00000007       ___safe_se_handler_count   00000007     <absolute>
 0000:0000002c       __tls_array                0000002c     <absolute>
 0000:00000100       ___guard_flags             00000100     <absolute>
 0000:00000000       ___ImageBase               10000000     <linker-defined>
 0001:00000080       ?DupWide@_CW@@AAEXXZ       10001080 f   CWString.obj
 0001:0000009c       ?cw_dup@@YGXPBDAAHAAPA_W1@Z 1000109c f   CWString.obj
 0001:00000124       ?cw_memcpy@@YGHPA_WPBDH@Z  10001124 f   CWString.obj
 0001:00000150       ?cw_strcpy@@YAHPA_WPBD@Z   10001150 f   CWString.obj
 0001:00000163       ?cw_strlen@@YAHPBD@Z       10001163 f   CWString.obj
 0001:0000017c       ??0CAtlComModule@ATL@@QAE@XZ 1000117c f i OposVariant.obj
 0001:000001c1       ??0CAtlWinModule@ATL@@QAE@XZ 100011c1 f i OposVariant.obj
 0001:000001f8       ??0OposDispParms@@QAE@PAVOposVariant@@H@Z 100011f8 f   OposVariant.obj
 0001:00000269       ??1OposDispParms@@QAE@XZ   10001269 f   OposVariant.obj
 0001:00000277       ??A?$CSimpleArray@GV?$CSimpleArrayEqualHelper@G@ATL@@@ATL@@QAEAAGH@Z 10001277 f i OposVariant.obj
 0001:0000029c       ??_Estringdispid@CComTypeInfoHolder@ATL@@QAEPAXI@Z 1000129c f i OposVariant.obj
 0001:00000308       ?AtlWinModuleInit@ATL@@YGJPAU_ATL_WIN_MODULE70@1@@Z 10001308 f i OposVariant.obj
 0001:0000032e       ?AtlWinModuleTerm@ATL@@YGJPAU_ATL_WIN_MODULE70@1@PAUHINSTANCE__@@@Z 1000132e f i OposVariant.obj
 0001:00000391       ?ChangeBSTR@OposVariant@@QAEXPAPA_WAAJ@Z 10001391 f   OposVariant.obj
 0001:000003d2       ?ChangeLONG@OposVariant@@QAEXPAJAAJ@Z 100013d2 f   OposVariant.obj
 0001:00000413       ?GetLONG@OposVariant@@QAEJXZ 10001413 f   OposVariant.obj
 0001:0000042e       ?Init@CComCriticalSection@ATL@@QAEJXZ 1000142e f i OposVariant.obj
 0001:00000456       ?RemoveAll@?$CSimpleArray@PAUHINSTANCE__@@V?$CSimpleArrayEqualHelper@PAUHINSTANCE__@@@ATL@@@ATL@@QAEXXZ 10001456 f i atls:atlbase.obj
 0001:00000456       ?RemoveAll@?$CSimpleArray@GV?$CSimpleArrayEqualHelper@G@ATL@@@ATL@@QAEXXZ 10001456 f i OposVariant.obj
 0001:00000473       ?SetBSTR@OposVariant@@QAEXPA_WAAJ@Z 10001473 f   OposVariant.obj
 0001:000004a7       ?SetBSTR_Copy@OposVariant@@QAEXPA_WAAJ@Z 100014a7 f   OposVariant.obj
 0001:000004f7       ?SetBSTR_InOutPtr@OposVariant@@QAE_NPAPA_WAAJ@Z 100014f7 f   OposVariant.obj
 0001:0000052e       ?SetDispatch_Ptr@OposVariant@@QAEXPAUIDispatch@@AAJ@Z 1000152e f   OposVariant.obj
 0001:00000569       ?SetLONG@OposVariant@@QAEXJ@Z 10001569 f   OposVariant.obj
 0001:0000058b       ?SetLONG_Ptr@OposVariant@@QAEXPAJAAJ@Z 1000158b f   OposVariant.obj
 0001:000005be       ?SetString@OposVariant@@QAEXPB_WAAJ@Z 100015be f   OposVariant.obj
 0001:00000604       ?SetVARIANT_BOOL@OposVariant@@QAEXF@Z 10001604 f   OposVariant.obj
 0001:0000062e       ?Term@CAtlComModule@ATL@@QAEXXZ 1000162e f i OposVariant.obj
 0001:00000678       ?_AtlRaiseException@ATL@@YAXKK@Z 10001678 f i OposVariant.obj
 0001:0000068d       ?CreateInstance@CComClassFactory@ATL@@UAGJPAUIUnknown@@ABU_GUID@@PAPAX@Z 1000168d f i MotionSensor.obj
 0001:000006cb       ?LockServer@CComClassFactory@ATL@@UAGJH@Z 100016cb f i MotionSensor.obj
 0001:000006ea       ??_ECComClassFactory@ATL@@UAEPAXI@Z 100016ea f i MotionSensor.obj
 0001:000006ea       ??_GCComClassFactory@ATL@@UAEPAXI@Z 100016ea f i MotionSensor.obj
 0001:00000715       ?GetWindowProc@?$CWindowImplBaseT@VCWindow@ATL@@V?$CWinTraits@$0FGAAAAAA@$0A@@2@@ATL@@UAEP6GJPAUHWND__@@IIJ@ZXZ 10001715 f i MotionSensor.obj
 0001:0000071b       ?StartWindowProc@?$CWindowImplBaseT@VCWindow@ATL@@V?$CWinTraits@$0FGAAAAAA@$0A@@2@@ATL@@SGJPAUHWND__@@IIJ@Z 1000171b f i MotionSensor.obj
 0001:0000076f       ?OnFinalMessage@?$CWindowImplBaseT@VCWindow@ATL@@V?$CWinTraits@$0FGAAAAAA@$0A@@2@@ATL@@UAEXPAUHWND__@@@Z 1000176f f i MotionSensor.obj
 0001:0000076f       ?ObjectMain@CComObjectRootBase@ATL@@SGX_N@Z 1000176f f i MotionSensor.obj
 0001:00000772       ?GetTypeInfoCount@?$IDispatchImpl@UIOPOSMotionSensor@@$1?IID_IOPOSMotionSensor@@3U_GUID@@B$1?LIBID_OposMotionSensor_CCO@@3U3@B$00$0A@VCComTypeInfoHolder@ATL@@@ATL@@UAGJPAI@Z 10001772 f i MotionSensor.obj
 0001:0000078f       ?GetTypeInfo@?$IDispatchImpl@UIOPOSMotionSensor@@$1?IID_IOPOSMotionSensor@@3U_GUID@@B$1?LIBID_OposMotionSensor_CCO@@3U3@B$00$0A@VCComTypeInfoHolder@ATL@@@ATL@@UAGJIKPAPAUITypeInfo@@@Z 1000178f f i MotionSensor.obj
 0001:000007b3       ?GetIDsOfNames@?$IDispatchImpl@UIOPOSMotionSensor@@$1?IID_IOPOSMotionSensor@@3U_GUID@@B$1?LIBID_OposMotionSensor_CCO@@3U3@B$00$0A@VCComTypeInfoHolder@ATL@@@ATL@@UAGJABU_GUID@@PAPA_WIKPAJ@Z 100017b3 f i MotionSensor.obj
 0001:000007d3       ?Invoke@?$IDispatchImpl@UIOPOSMotionSensor@@$1?IID_IOPOSMotionSensor@@3U_GUID@@B$1?LIBID_OposMotionSensor_CCO@@3U3@B$00$0A@VCComTypeInfoHolder@ATL@@@ATL@@UAGJJABU_GUID@@KGPAUtagDISPPARAMS@@PAUtagVARIANT@@PAUtagEXCEPINFO@@PAI@Z 100017d3 f i MotionSensor.obj
 0001:000007e1       ?CreateControlWindow@?$CComControl@VCOPOSMotionSensor@@V?$CWindowImpl@VCOPOSMotionSensor@@VCWindow@ATL@@V?$CWinTraits@$0FGAAAAAA@$0A@@3@@ATL@@@ATL@@UAEPAUHWND__@@PAU3@AAUtagRECT@@@Z 100017e1 f i MotionSensor.obj
 0001:00000810       ?ControlQueryInterface@?$CComControl@VCOPOSMotionSensor@@V?$CWindowImpl@VCOPOSMotionSensor@@VCWindow@ATL@@V?$CWinTraits@$0FGAAAAAA@$0A@@3@@ATL@@@ATL@@UAEJABU_GUID@@PAPAX@Z 10001810 f i MotionSensor.obj
 0001:0000082b       ?GetUserClassID@?$IOleObjectImpl@VCOPOSMotionSensor@@@ATL@@UAGJPAU_GUID@@@Z 1000182b f i MotionSensor.obj
 0001:0000082b       ?GetClassID@?$IPersistStorageImpl@VCOPOSMotionSensor@@@ATL@@UAGJPAU_GUID@@@Z 1000182b f i MotionSensor.obj
 0001:0000082b       ?GetClassID@?$IPersistStreamInitImpl@VCOPOSMotionSensor@@@ATL@@UAGJPAU_GUID@@@Z 1000182b f i MotionSensor.obj
 0001:0000084f       ?IsDirty@?$IPersistStreamInitImpl@VCOPOSMotionSensor@@@ATL@@UAGJXZ 1000184f f i MotionSensor.obj
 0001:0000086e       ?Load@?$IPersistStreamInitImpl@VCOPOSMotionSensor@@@ATL@@UAGJPAUIStream@@@Z 1000186e f i MotionSensor.obj
 0001:0000088d       ?Save@?$IPersistStreamInitImpl@VCOPOSMotionSensor@@@ATL@@UAGJPAUIStream@@H@Z 1000188d f i MotionSensor.obj
 0001:000008af       ?GetSizeMax@?$IPersistStreamInitImpl@VCOPOSMotionSensor@@@ATL@@UAGJPAT_ULARGE_INTEGER@@@Z 100018af f i MotionSensor.obj
 0001:00000a8e       ?InitNew@?$IPersistStreamInitImpl@VCOPOSMotionSensor@@@ATL@@UAGJXZ 10001a8e f i MotionSensor.obj
 0001:00000aab       ?ContextSensitiveHelp@?$IOleInPlaceObjectWindowlessImpl@VCOPOSMotionSensor@@@ATL@@UAGJH@Z 10001aab f i MotionSensor.obj
 0001:00000aab       ?Unfreeze@?$IViewObjectExImpl@VCOPOSMotionSensor@@@ATL@@UAGJK@Z 10001aab f i MotionSensor.obj
 0001:00000aab       ?SOOutputCompleteDummy@COPOSMotionSensor@@MAGJJ@Z 10001aab f i MotionSensor.obj
 0001:00000aab       ?ContextSensitiveHelp@?$IOleInPlaceActiveObjectImpl@VCOPOSMotionSensor@@@ATL@@UAGJH@Z 10001aab f i MotionSensor.obj
 0001:00000aab       ?GetControlInfo@?$IOleControlImpl@VCOPOSMotionSensor@@@ATL@@UAGJPAUtagCONTROLINFO@@@Z 10001aab f i MotionSensor.obj
 0001:00000aab       ?QueryGetData@?$IDataObjectImpl@VCOPOSMotionSensor@@@ATL@@UAGJPAUtagFORMATETC@@@Z 10001aab f i MotionSensor.obj
 0001:00000aab       ?SODataDummy@COPOSMotionSensor@@MAGJJ@Z 10001aab f i MotionSensor.obj
 0001:00000aab       ?SetColorScheme@?$IOleObjectImpl@VCOPOSMotionSensor@@@ATL@@UAGJPAUtagLOGPALETTE@@@Z 10001aab f i MotionSensor.obj
 0001:00000aab       ?GetDropTarget@?$IOleInPlaceObjectWindowlessImpl@VCOPOSMotionSensor@@@ATL@@UAGJPAPAUIDropTarget@@@Z 10001aab f i MotionSensor.obj
 0001:00000aab       ?OnMnemonic@?$IOleControlImpl@VCOPOSMotionSensor@@@ATL@@UAGJPAUtagMSG@@@Z 10001aab f i MotionSensor.obj
 0001:00000ab3       ?EnableModeless@?$IOleInPlaceActiveObjectImpl@VCOPOSMotionSensor@@@ATL@@UAGJH@Z 10001ab3 f i MotionSensor.obj
 0001:00000ab3       ?OnAmbientPropertyChange@?$IOleControlImpl@VCOPOSMotionSensor@@@ATL@@UAGJJ@Z 10001ab3 f i MotionSensor.obj
 0001:00000ab3       ?SaveCompleted@?$IPersistStorageImpl@VCOPOSMotionSensor@@@ATL@@UAGJPAUIStorage@@@Z 10001ab3 f i MotionSensor.obj
 0001:00000ab3       ?OnFrameWindowActivate@?$IOleInPlaceActiveObjectImpl@VCOPOSMotionSensor@@@ATL@@UAGJH@Z 10001ab3 f i MotionSensor.obj
 0001:00000ab8       ?SetClientSite@?$IOleObjectImpl@VCOPOSMotionSensor@@@ATL@@UAGJPAUIOleClientSite@@@Z 10001ab8 f i MotionSensor.obj
 0001:00000ad5       ?GetClientSite@?$IOleObjectImpl@VCOPOSMotionSensor@@@ATL@@UAGJPAPAUIOleClientSite@@@Z 10001ad5 f i MotionSensor.obj
 0001:00000af2       ?SetHostNames@?$IOleObjectImpl@VCOPOSMotionSensor@@@ATL@@UAGJPB_W0@Z 10001af2 f i MotionSensor.obj
 0001:00000af7       ?Close@?$IOleObjectImpl@VCOPOSMotionSensor@@@ATL@@UAGJK@Z 10001af7 f i MotionSensor.obj
 0001:00000b14       ?QueryInterface@CRegObject@ATL@@UAGJABU_GUID@@PAPAX@Z 10001b14 f i MotionSensor.obj
 0001:00000b14       ?GetClipboardData@?$IOleObjectImpl@VCOPOSMotionSensor@@@ATL@@UAGJKPAPAUIDataObject@@@Z 10001b14 f i MotionSensor.obj
 0001:00000b14       ?EnumFormatEtc@?$IDataObjectImpl@VCOPOSMotionSensor@@@ATL@@UAGJKPAPAUIEnumFORMATETC@@@Z 10001b14 f i MotionSensor.obj
 0001:00000b14       ?GetRect@?$IViewObjectExImpl@VCOPOSMotionSensor@@@ATL@@UAGJKPAU_RECTL@@@Z 10001b14 f i MotionSensor.obj
 0001:00000b14       ?GetCanonicalFormatEtc@?$IDataObjectImpl@VCOPOSMotionSensor@@@ATL@@UAGJPAUtagFORMATETC@@0@Z 10001b14 f i MotionSensor.obj
 0001:00000b14       ?SetMoniker@?$IOleObjectImpl@VCOPOSMotionSensor@@@ATL@@UAGJKPAUIMoniker@@@Z 10001b14 f i MotionSensor.obj
 0001:00000b14       ?GetDataHere@?$IDataObjectImpl@VCOPOSMotionSensor@@@ATL@@UAGJPAUtagFORMATETC@@PAUtagSTGMEDIUM@@@Z 10001b14 f i MotionSensor.obj
 0001:00000b1c       ?InitFromData@?$IOleObjectImpl@VCOPOSMotionSensor@@@ATL@@UAGJPAUIDataObject@@HK@Z 10001b1c f i MotionSensor.obj
 0001:00000b1c       ?SetData@?$IDataObjectImpl@VCOPOSMotionSensor@@@ATL@@UAGJPAUtagFORMATETC@@PAUtagSTGMEDIUM@@H@Z 10001b1c f i MotionSensor.obj
 0001:00000b1c       ?GetMoniker@?$IOleObjectImpl@VCOPOSMotionSensor@@@ATL@@UAGJKKPAPAUIMoniker@@@Z 10001b1c f i MotionSensor.obj
 0001:00000b24       ?DoVerb@?$IOleObjectImpl@VCOPOSMotionSensor@@@ATL@@UAGJJPAUtagMSG@@PAUIOleClientSite@@JPAUHWND__@@PBUtagRECT@@@Z 10001b24 f i MotionSensor.obj
 0001:00000c18       ?EnumVerbs@?$IOleObjectImpl@VCOPOSMotionSensor@@@ATL@@UAGJPAPAUIEnumOLEVERB@@@Z 10001c18 f i MotionSensor.obj
 0001:00000c3a       ?Release@CRegObject@ATL@@UAGKXZ 10001c3a f i MotionSensor.obj
 0001:00000c3a       ?HandsOffStorage@?$IPersistStorageImpl@VCOPOSMotionSensor@@@ATL@@UAGJXZ 10001c3a f i MotionSensor.obj
 0001:00000c3a       ?IsUpToDate@?$IOleObjectImpl@VCOPOSMotionSensor@@@ATL@@UAGJXZ 10001c3a f i MotionSensor.obj
 0001:00000c3a       ?Update@?$IOleObjectImpl@VCOPOSMotionSensor@@@ATL@@UAGJXZ 10001c3a f i MotionSensor.obj
 0001:00000c3f       ?GetUserType@?$IOleObjectImpl@VCOPOSMotionSensor@@@ATL@@UAGJKPAPA_W@Z 10001c3f f i MotionSensor.obj
 0001:00000c57       ?SetExtent@?$IOleObjectImpl@VCOPOSMotionSensor@@@ATL@@UAGJKPAUtagSIZE@@@Z 10001c57 f i MotionSensor.obj
 0001:00000c77       ?GetExtent@?$IOleObjectImpl@VCOPOSMotionSensor@@@ATL@@UAGJKPAUtagSIZE@@@Z 10001c77 f i MotionSensor.obj
 0001:00000cb5       ?Advise@?$IOleObjectImpl@VCOPOSMotionSensor@@@ATL@@UAGJPAUIAdviseSink@@PAK@Z 10001cb5 f i MotionSensor.obj
 0001:00000cd5       ?Unadvise@?$IOleObjectImpl@VCOPOSMotionSensor@@@ATL@@UAGJK@Z 10001cd5 f i MotionSensor.obj
 0001:00000d04       ?EnumAdvise@?$IOleObjectImpl@VCOPOSMotionSensor@@@ATL@@UAGJPAPAUIEnumSTATDATA@@@Z 10001d04 f i MotionSensor.obj
 0001:00000d44       ?GetMiscStatus@?$IOleObjectImpl@VCOPOSMotionSensor@@@ATL@@UAGJKPAK@Z 10001d44 f i MotionSensor.obj
 0001:00000d5c       ?GetWindow@?$IOleInPlaceActiveObjectImpl@VCOPOSMotionSensor@@@ATL@@UAGJPAPAUHWND__@@@Z 10001d5c f i MotionSensor.obj
 0001:00000da9       ?TranslateAcceleratorW@?$IOleInPlaceActiveObjectImpl@VCOPOSMotionSensor@@@ATL@@UAGJPAUtagMSG@@@Z 10001da9 f i MotionSensor.obj
 0001:00000e57       ?OnDocWindowActivate@?$IOleInPlaceActiveObjectImpl@VCOPOSMotionSensor@@@ATL@@UAGJH@Z 10001e57 f i MotionSensor.obj
 0001:00000e79       ?ResizeBorder@?$IOleInPlaceActiveObjectImpl@VCOPOSMotionSensor@@@ATL@@UAGJPBUtagRECT@@PAUIOleInPlaceUIWindow@@H@Z 10001e79 f i MotionSensor.obj
 0001:00000e7e       ?Draw@?$IViewObjectExImpl@VCOPOSMotionSensor@@@ATL@@UAGJKJPAXPAUtagDVTARGETDEVICE@@PAUHDC__@@2PBU_RECTL@@3P6GHK@ZK@Z 10001e7e f i MotionSensor.obj
 0001:00000eb0       ?GetColorSet@?$IViewObjectExImpl@VCOPOSMotionSensor@@@ATL@@UAGJKJPAXPAUtagDVTARGETDEVICE@@PAUHDC__@@PAPAUtagLOGPALETTE@@@Z 10001eb0 f i MotionSensor.obj
 0001:00000eb8       ?Freeze@?$IViewObjectExImpl@VCOPOSMotionSensor@@@ATL@@UAGJKJPAXPAK@Z 10001eb8 f i MotionSensor.obj
 0001:00000eb8       ?SOErrorDummy@COPOSMotionSensor@@MAGJJJJPAJ@Z 10001eb8 f i MotionSensor.obj
 0001:00000ec0       ?SetAdvise@?$IViewObjectExImpl@VCOPOSMotionSensor@@@ATL@@UAGJKKPAUIAdviseSink@@@Z 10001ec0 f i MotionSensor.obj
 0001:00000edf       ?GetAdvise@?$IViewObjectExImpl@VCOPOSMotionSensor@@@ATL@@UAGJPAK0PAPAUIAdviseSink@@@Z 10001edf f i MotionSensor.obj
 0001:00000f14       ?GetExtent@?$IViewObjectExImpl@VCOPOSMotionSensor@@@ATL@@UAGJKJPAUtagDVTARGETDEVICE@@PAUtagSIZE@@@Z 10001f14 f i MotionSensor.obj
 0001:00000f45       ?GetViewStatus@?$IViewObjectExImpl@VCOPOSMotionSensor@@@ATL@@UAGJPAK@Z 10001f45 f i MotionSensor.obj
 0001:00000f62       ?QueryHitPoint@?$IViewObjectExImpl@VCOPOSMotionSensor@@@ATL@@UAGJKPBUtagRECT@@UtagPOINT@@JPAK@Z 10001f62 f i MotionSensor.obj
 0001:00000fa3       ?QueryHitRect@?$IViewObjectExImpl@VCOPOSMotionSensor@@@ATL@@UAGJKPBUtagRECT@@0JPAK@Z 10001fa3 f i MotionSensor.obj
 0001:00000ffe       ?GetNaturalExtent@?$IViewObjectExImpl@VCOPOSMotionSensor@@@ATL@@UAGJKJPAUtagDVTARGETDEVICE@@PAUHDC__@@PAUtagExtentInfo@@PAUtagSIZE@@@Z 10001ffe f i MotionSensor.obj
 0001:00001049       ?GetWindow@?$IOleInPlaceObjectWindowlessImpl@VCOPOSMotionSensor@@@ATL@@UAGJPAPAUHWND__@@@Z 10002049 f i MotionSensor.obj
 0001:00001096       ?InPlaceDeactivate@?$IOleInPlaceObjectWindowlessImpl@VCOPOSMotionSensor@@@ATL@@UAGJXZ 10002096 f i MotionSensor.obj
 0001:000010b0       ?UIDeactivate@?$IOleInPlaceObjectWindowlessImpl@VCOPOSMotionSensor@@@ATL@@UAGJXZ 100020b0 f i MotionSensor.obj
 0001:000010ca       ?SetObjectRects@?$IOleInPlaceObjectWindowlessImpl@VCOPOSMotionSensor@@@ATL@@UAGJPBUtagRECT@@0@Z 100020ca f i MotionSensor.obj
 0001:000010ea       ?ReactivateAndUndo@?$IOleInPlaceObjectWindowlessImpl@VCOPOSMotionSensor@@@ATL@@UAGJXZ 100020ea f i MotionSensor.obj
 0001:000010f2       ?OnWindowMessage@?$IOleInPlaceObjectWindowlessImpl@VCOPOSMotionSensor@@@ATL@@UAGJIIJPAJ@Z 100020f2 f i MotionSensor.obj
 0001:00001162       ?EnumConnectionPoints@?$IConnectionPointContainerImpl@VCOPOSMotionSensor@@@ATL@@UAGJPAPAUIEnumConnectionPoints@@@Z 10002162 f i MotionSensor.obj
 0001:000012dc       ?FindConnectionPoint@?$IConnectionPointContainerImpl@VCOPOSMotionSensor@@@ATL@@UAGJABU_GUID@@PAPAUIConnectionPoint@@@Z 100022dc f i MotionSensor.obj
 0001:0000137f       ?IsDirty@?$IPersistStorageImpl@VCOPOSMotionSensor@@@ATL@@UAGJXZ 1000237f f i MotionSensor.obj
 0001:000013b3       ?InitNew@?$IPersistStorageImpl@VCOPOSMotionSensor@@@ATL@@UAGJPAUIStorage@@@Z 100023b3 f i MotionSensor.obj
 0001:000013e7       ?Load@?$IPersistStorageImpl@VCOPOSMotionSensor@@@ATL@@UAGJPAUIStorage@@@Z 100023e7 f i MotionSensor.obj
 0001:00001453       ?Save@?$IPersistStorageImpl@VCOPOSMotionSensor@@@ATL@@UAGJPAUIStorage@@H@Z 10002453 f i MotionSensor.obj
 0001:000014c6       ?GetPages@?$ISpecifyPropertyPagesImpl@VCOPOSMotionSensor@@@ATL@@UAGJPAUtagCAUUID@@@Z 100024c6 f i MotionSensor.obj
 0001:000014dd       ?QuickActivate@?$IQuickActivateImpl@VCOPOSMotionSensor@@@ATL@@UAGJPAUtagQACONTAINER@@PAUtagQACONTROL@@@Z 100024dd f i MotionSensor.obj
 0001:00001500       ?SetContentExtent@?$IQuickActivateImpl@VCOPOSMotionSensor@@@ATL@@UAGJPAUtagSIZE@@@Z 10002500 f i MotionSensor.obj
 0001:0000152c       ?GetContentExtent@?$IQuickActivateImpl@VCOPOSMotionSensor@@@ATL@@UAGJPAUtagSIZE@@@Z 1000252c f i MotionSensor.obj
 0001:00001566       ?GetData@?$IDataObjectImpl@VCOPOSMotionSensor@@@ATL@@UAGJPAUtagFORMATETC@@PAUtagSTGMEDIUM@@@Z 10002566 f i MotionSensor.obj
 0001:00001589       ?DAdvise@?$IDataObjectImpl@VCOPOSMotionSensor@@@ATL@@UAGJPAUtagFORMATETC@@KPAUIAdviseSink@@PAK@Z 10002589 f i MotionSensor.obj
 0001:000015ca       ?DUnadvise@?$IDataObjectImpl@VCOPOSMotionSensor@@@ATL@@UAGJK@Z 100025ca f i MotionSensor.obj
 0001:000015f8       ?EnumDAdvise@?$IDataObjectImpl@VCOPOSMotionSensor@@@ATL@@UAGJPAPAUIEnumSTATDATA@@@Z 100025f8 f i MotionSensor.obj
 0001:00001637       ?GetClassInfoW@?$IProvideClassInfo2Impl@$1?CLSID_OPOSMotionSensor@@3U_GUID@@B$1?DIID__IOPOSMotionSensorEvents@@3U2@B$1?LIBID_OposMotionSensor_CCO@@3U2@B$00$0A@VCComTypeInfoHolder@ATL@@@ATL@@UAGJPAPAUITypeInfo@@@Z 10002637 f i MotionSensor.obj
 0001:0000164d       ?GetGUID@?$IProvideClassInfo2Impl@$1?CLSID_OPOSMotionSensor@@3U_GUID@@B$1?DIID__IOPOSMotionSensorEvents@@3U2@B$1?LIBID_OposMotionSensor_CCO@@3U2@B$00$0A@VCComTypeInfoHolder@ATL@@@ATL@@UAGJKPAU_GUID@@@Z 1000264d f i MotionSensor.obj
 0001:0000168b       __get_startup_argv_mode    1000268b f i LIBCMT:argv_mode.obj
 0001:0000168b       ?FAccessAllowed@?$IObjectSafetyImpl@VCOPOSMotionSensor@@$02@ATL@@MAEHXZ 1000268b f i MotionSensor.obj
 0001:0000168f       ?GetInterfaceSafetyOptions@?$IObjectSafetyImpl@VCOPOSMotionSensor@@$02@ATL@@UAGJABU_GUID@@PAK1@Z 1000268f f i MotionSensor.obj
 0001:00001703       ?SetInterfaceSafetyOptions@?$IObjectSafetyImpl@VCOPOSMotionSensor@@$02@ATL@@UAGJABU_GUID@@KK@Z 10002703 f i MotionSensor.obj
 0001:0000177d       ?_LocCPQueryInterface@?$IConnectionPointImpl@VCOPOSMotionSensor@@$1?IID_IPropertyNotifySink@@3U_GUID@@BVCComDynamicUnkArray@ATL@@@ATL@@UAGJABU_GUID@@PAPAX@Z 1000277d f i MotionSensor.obj
 0001:0000177d       ?_LocCPQueryInterface@?$IConnectionPointImpl@VCOPOSMotionSensor@@$1?DIID__IOPOSMotionSensorEvents@@3U_GUID@@BVCComDynamicUnkArray@ATL@@@ATL@@UAGJABU_GUID@@PAPAX@Z 1000277d f i MotionSensor.obj
 0001:000017ca       ?GetConnectionInterface@?$IConnectionPointImpl@VCOPOSMotionSensor@@$1?IID_IPropertyNotifySink@@3U_GUID@@BVCComDynamicUnkArray@ATL@@@ATL@@UAGJPAU_GUID@@@Z 100027ca f i MotionSensor.obj
 0001:000017ee       ?GetConnectionPointContainer@?$IConnectionPointImpl@VCOPOSMotionSensor@@$1?IID_IPropertyNotifySink@@3U_GUID@@BVCComDynamicUnkArray@ATL@@@ATL@@UAGJPAPAUIConnectionPointContainer@@@Z 100027ee f i MotionSensor.obj
 0001:00001811       ?Advise@?$IConnectionPointImpl@VCOPOSMotionSensor@@$1?IID_IPropertyNotifySink@@3U_GUID@@BVCComDynamicUnkArray@ATL@@@ATL@@UAGJPAUIUnknown@@PAK@Z 10002811 f i MotionSensor.obj
 0001:00001811       ?Advise@?$IConnectionPointImpl@VCOPOSMotionSensor@@$1?DIID__IOPOSMotionSensorEvents@@3U_GUID@@BVCComDynamicUnkArray@ATL@@@ATL@@UAGJPAUIUnknown@@PAK@Z 10002811 f i MotionSensor.obj
 0001:000018b2       ?Unadvise@?$IConnectionPointImpl@VCOPOSMotionSensor@@$1?IID_IPropertyNotifySink@@3U_GUID@@BVCComDynamicUnkArray@ATL@@@ATL@@UAGJK@Z 100028b2 f i MotionSensor.obj
 0001:000018b2       ?Unadvise@?$IConnectionPointImpl@VCOPOSMotionSensor@@$1?DIID__IOPOSMotionSensorEvents@@3U_GUID@@BVCComDynamicUnkArray@ATL@@@ATL@@UAGJK@Z 100028b2 f i MotionSensor.obj
 0001:000018f2       ?EnumConnections@?$IConnectionPointImpl@VCOPOSMotionSensor@@$1?IID_IPropertyNotifySink@@3U_GUID@@BVCComDynamicUnkArray@ATL@@@ATL@@UAGJPAPAUIEnumConnections@@@Z 100028f2 f i MotionSensor.obj
 0001:000018f2       ?EnumConnections@?$IConnectionPointImpl@VCOPOSMotionSensor@@$1?DIID__IOPOSMotionSensorEvents@@3U_GUID@@BVCComDynamicUnkArray@ATL@@@ATL@@UAGJPAPAUIEnumConnections@@@Z 100028f2 f i MotionSensor.obj
 0001:000019f8       ?GetObjectDescription@?$CComCoClass@VCOPOSMotionSensor@@$1?CLSID_OPOSMotionSensor@@3U_GUID@@B@ATL@@SGPB_WXZ 100029f8 f i MotionSensor.obj
 0001:000019f8       ?GetCategoryMap@CComObjectRootBase@ATL@@SAPBU_ATL_CATMAP_ENTRY@2@XZ 100029f8 f i MotionSensor.obj
 0001:000019fb       ?GetConnectionInterface@?$IConnectionPointImpl@VCOPOSMotionSensor@@$1?DIID__IOPOSMotionSensorEvents@@3U_GUID@@BVCComDynamicUnkArray@ATL@@@ATL@@UAGJPAU_GUID@@@Z 100029fb f i MotionSensor.obj
 0001:00001a1f       ?GetConnectionPointContainer@?$IConnectionPointImpl@VCOPOSMotionSensor@@$1?DIID__IOPOSMotionSensorEvents@@3U_GUID@@BVCComDynamicUnkArray@ATL@@@ATL@@UAGJPAPAUIConnectionPointContainer@@@Z 10002a1f f i MotionSensor.obj
 0001:00001a42       ?UpdateRegistry@COPOSMotionSensor@@SGJH@Z 10002a42 f i MotionSensor.obj
 0001:00001a5a       ?ProcessWindowMessage@COPOSMotionSensor@@UAEHPAUHWND__@@IIJAAJK@Z 10002a5a f i MotionSensor.obj
 0001:00001aa3       ?SODirectIO@COPOSMotionSensor@@MAGJJPAJPAPA_W@Z 10002aa3 f i MotionSensor.obj
 0001:00001aec       ?SOStatusUpdate@COPOSMotionSensor@@MAGJJ@Z 10002aec f i MotionSensor.obj
 0001:00001b25       ?Lock@CAtlModule@ATL@@UAEJXZ 10002b25 f i MotionSensor.obj
 0001:00001b2f       ?Unlock@CAtlModule@ATL@@UAEJXZ 10002b2f f i MotionSensor.obj
 0001:00001b39       ?GetLockCount@CAtlModule@ATL@@UAEJXZ 10002b39 f i MotionSensor.obj
 0001:00001b3d       ?GetGITPtr@CAtlModule@ATL@@UAEJPAPAUIGlobalInterfaceTable@@@Z 10002b3d f i MotionSensor.obj
 0001:00001b89       ?AddCommonRGSReplacements@?$CAtlModuleT@VCComModule@ATL@@@ATL@@UAEJPAUIRegistrarBase@@@Z 10002b89 f i MotionSensor.obj
 0001:00001ba3       ?CreateInstance@?$CComCreator@V?$CComObjectCached@VCComClassFactory@ATL@@@ATL@@@ATL@@SGJPAXABU_GUID@@PAPAX@Z 10002ba3 f i MotionSensor.obj
 0001:00001c4f       ?CreateInstance@?$CComCreator2@V?$CComCreator@V?$CComObject@VCOPOSMotionSensor@@@ATL@@@ATL@@V?$CComCreator@V?$CComAggObject@VCOPOSMotionSensor@@@ATL@@@2@@ATL@@SGJPAXABU_GUID@@PAPAX@Z 10002c4f f i MotionSensor.obj
 0001:00001c6f       ?UpdateRegistryFromResourceD@CComModule@ATL@@UAGJPB_WHPAU_ATL_REGMAP_ENTRY@2@@Z 10002c6f f i MotionSensor.obj
 0001:00001c6f       ?UpdateRegistryFromResourceD@CComModule@ATL@@UAGJIHPAU_ATL_REGMAP_ENTRY@2@@Z 10002c6f f i MotionSensor.obj
 0001:00001c77       ?UpdateRegistryFromResource@CComModule@ATL@@UAGJPB_WHPAU_ATL_REGMAP_ENTRY@2@@Z 10002c77 f i MotionSensor.obj
 0001:00001c80       ?UpdateRegistryFromResource@CComModule@ATL@@UAGJIHPAU_ATL_REGMAP_ENTRY@2@@Z 10002c80 f i MotionSensor.obj
 0001:00001c89       ?AddRef@?$CComObjectCached@VCComClassFactory@ATL@@@ATL@@UAGKXZ 10002c89 f i MotionSensor.obj
 0001:00001cb0       ?Release@?$CComObjectCached@VCComClassFactory@ATL@@@ATL@@UAGKXZ 10002cb0 f i MotionSensor.obj
 0001:00001ce6       ?QueryInterface@?$CComObjectCached@VCComClassFactory@ATL@@@ATL@@UAGJABU_GUID@@PAPAX@Z 10002ce6 f i MotionSensor.obj
 0001:00001d00       ??_E?$CComObjectCached@VCComClassFactory@ATL@@@ATL@@UAEPAXI@Z 10002d00 f i MotionSensor.obj
 0001:00001d00       ??_G?$CComObjectCached@VCComClassFactory@ATL@@@ATL@@UAEPAXI@Z 10002d00 f i MotionSensor.obj
 0001:00001d22       ??_ECComModule@ATL@@UAEPAXI@Z 10002d22 f i MotionSensor.obj
 0001:00001d22       ??_GCComModule@ATL@@UAEPAXI@Z 10002d22 f i MotionSensor.obj
 0001:00001d4a       ?Next@?$CComEnumImpl@UIEnumConnectionPoints@@$1?_GUID_b196b285_bab4_101a_b69c_00aa00341d07@@3U__s_GUID@@BPAUIConnectionPoint@@V?$_CopyInterface@UIConnectionPoint@@@ATL@@@ATL@@UAGJKPAPAUIConnectionPoint@@PAK@Z 10002d4a f i MotionSensor.obj
 0001:00001e21       ?Skip@?$CComEnumImpl@UIEnumConnectionPoints@@$1?_GUID_b196b285_bab4_101a_b69c_00aa00341d07@@3U__s_GUID@@BPAUIConnectionPoint@@V?$_CopyInterface@UIConnectionPoint@@@ATL@@@ATL@@UAGJK@Z 10002e21 f i MotionSensor.obj
 0001:00001e4e       ?Reset@?$CComEnumImpl@UIEnumConnectionPoints@@$1?_GUID_b196b285_bab4_101a_b69c_00aa00341d07@@3U__s_GUID@@BPAUIConnectionPoint@@V?$_CopyInterface@UIConnectionPoint@@@ATL@@@ATL@@UAGJXZ 10002e4e f i MotionSensor.obj
 0001:00001e4e       ?Reset@?$CComEnumImpl@UIEnumConnections@@$1?_GUID_b196b287_bab4_101a_b69c_00aa00341d07@@3U__s_GUID@@BUtagCONNECTDATA@@V?$_Copy@UtagCONNECTDATA@@@ATL@@@ATL@@UAGJXZ 10002e4e f i MotionSensor.obj
 0001:00001e60       ?Clone@?$CComEnumImpl@UIEnumConnectionPoints@@$1?_GUID_b196b285_bab4_101a_b69c_00aa00341d07@@3U__s_GUID@@BPAUIConnectionPoint@@V?$_CopyInterface@UIConnectionPoint@@@ATL@@@ATL@@UAGJPAPAUIEnumConnectionPoints@@@Z 10002e60 f i MotionSensor.obj
 0001:00001f41       ?AddRef@?$CComObject@V?$CComEnum@UIEnumConnections@@$1?_GUID_b196b287_bab4_101a_b69c_00aa00341d07@@3U__s_GUID@@BUtagCONNECTDATA@@V?$_Copy@UtagCONNECTDATA@@@ATL@@VCComSingleThreadModel@6@@ATL@@@ATL@@UAGKXZ 10002f41 f i MotionSensor.obj
 0001:00001f41       ?AddRef@?$CComObject@V?$CComEnum@UIEnumConnectionPoints@@$1?_GUID_b196b285_bab4_101a_b69c_00aa00341d07@@3U__s_GUID@@BPAUIConnectionPoint@@V?$_CopyInterface@UIConnectionPoint@@@ATL@@VCComSingleThreadModel@6@@ATL@@@ATL@@UAGKXZ 10002f41 f i MotionSensor.obj
 0001:00001f52       ?Release@?$CComObject@V?$CComEnum@UIEnumConnections@@$1?_GUID_b196b287_bab4_101a_b69c_00aa00341d07@@3U__s_GUID@@BUtagCONNECTDATA@@V?$_Copy@UtagCONNECTDATA@@@ATL@@VCComSingleThreadModel@6@@ATL@@@ATL@@UAGKXZ 10002f52 f i MotionSensor.obj
 0001:00001f52       ?Release@?$CComObject@V?$CComEnum@UIEnumConnectionPoints@@$1?_GUID_b196b285_bab4_101a_b69c_00aa00341d07@@3U__s_GUID@@BPAUIConnectionPoint@@V?$_CopyInterface@UIConnectionPoint@@@ATL@@VCComSingleThreadModel@6@@ATL@@@ATL@@UAGKXZ 10002f52 f i MotionSensor.obj
 0001:00001f8e       ?QueryInterface@?$CComObject@V?$CComEnum@UIEnumConnectionPoints@@$1?_GUID_b196b285_bab4_101a_b69c_00aa00341d07@@3U__s_GUID@@BPAUIConnectionPoint@@V?$_CopyInterface@UIConnectionPoint@@@ATL@@VCComSingleThreadModel@6@@ATL@@@ATL@@UAGJABU_GUID@@PAPAX@Z 10002f8e f i MotionSensor.obj
 0001:00001fa8       ??_G?$CComObject@V?$CComEnum@UIEnumConnectionPoints@@$1?_GUID_b196b285_bab4_101a_b69c_00aa00341d07@@3U__s_GUID@@BPAUIConnectionPoint@@V?$_CopyInterface@UIConnectionPoint@@@ATL@@VCComSingleThreadModel@6@@ATL@@@ATL@@UAEPAXI@Z 10002fa8 f i MotionSensor.obj
 0001:00001fa8       ??_E?$CComObject@V?$CComEnum@UIEnumConnectionPoints@@$1?_GUID_b196b285_bab4_101a_b69c_00aa00341d07@@3U__s_GUID@@BPAUIConnectionPoint@@V?$_CopyInterface@UIConnectionPoint@@@ATL@@VCComSingleThreadModel@6@@ATL@@@ATL@@UAEPAXI@Z 10002fa8 f i MotionSensor.obj
 0001:00001fca       ?AddRef@CRegObject@ATL@@UAGKXZ 10002fca f i MotionSensor.obj
 0001:00001fd0       ?AddReplacement@CRegObject@ATL@@UAGJPB_W0@Z 10002fd0 f i MotionSensor.obj
 0001:00002009       ?ClearReplacements@CRegObject@ATL@@UAGJXZ 10003009 f i MotionSensor.obj
 0001:0000201b       ??_ECRegObject@ATL@@UAEPAXI@Z 1000301b f i MotionSensor.obj
 0001:0000201b       ??_GCRegObject@ATL@@UAEPAXI@Z 1000301b f i MotionSensor.obj
 0001:0000203d       ?AddRef@?$CComAggObject@VCOPOSMotionSensor@@@ATL@@UAGKXZ 1000303d f i MotionSensor.obj
 0001:0000204e       ?Release@?$CComAggObject@VCOPOSMotionSensor@@@ATL@@UAGKXZ 1000304e f i MotionSensor.obj
 0001:0000208a       ?QueryInterface@?$CComAggObject@VCOPOSMotionSensor@@@ATL@@UAGJABU_GUID@@PAPAX@Z 1000308a f i MotionSensor.obj
 0001:000020d9       ?AddRef@?$CComContainedObject@VCOPOSMotionSensor@@@ATL@@UAGKXZ 100030d9 f i MotionSensor.obj
 0001:000020ef       ?Release@?$CComContainedObject@VCOPOSMotionSensor@@@ATL@@UAGKXZ 100030ef f i MotionSensor.obj
 0001:00002105       ?QueryInterface@?$CComContainedObject@VCOPOSMotionSensor@@@ATL@@UAGJABU_GUID@@PAPAX@Z 10003105 f i MotionSensor.obj
 0001:00002120       ??_G?$CComAggObject@VCOPOSMotionSensor@@@ATL@@UAEPAXI@Z 10003120 f i MotionSensor.obj
 0001:00002120       ??_E?$CComAggObject@VCOPOSMotionSensor@@@ATL@@UAEPAXI@Z 10003120 f i MotionSensor.obj
 0001:00002145       ?AddRef@?$CComObject@VCOPOSMotionSensor@@@ATL@@UAGKXZ 10003145 f i MotionSensor.obj
 0001:0000215c       ?Release@?$CComObject@VCOPOSMotionSensor@@@ATL@@UAGKXZ 1000315c f i MotionSensor.obj
 0001:0000219e       ?QueryInterface@?$CComObject@VCOPOSMotionSensor@@@ATL@@UAGJABU_GUID@@PAPAX@Z 1000319e f i MotionSensor.obj
 0001:000021b8       ?OnDrawAdvanced@CComControlBase@ATL@@UAEJAAUATL_DRAWINFO@@@Z 100031b8 f i MotionSensor.obj
 0001:000022ab       ?Next@?$CComEnumImpl@UIEnumConnections@@$1?_GUID_b196b287_bab4_101a_b69c_00aa00341d07@@3U__s_GUID@@BUtagCONNECTDATA@@V?$_Copy@UtagCONNECTDATA@@@ATL@@@ATL@@UAGJKPAUtagCONNECTDATA@@PAK@Z 100032ab f i MotionSensor.obj
 0001:00002382       ?Skip@?$CComEnumImpl@UIEnumConnections@@$1?_GUID_b196b287_bab4_101a_b69c_00aa00341d07@@3U__s_GUID@@BUtagCONNECTDATA@@V?$_Copy@UtagCONNECTDATA@@@ATL@@@ATL@@UAGJK@Z 10003382 f i MotionSensor.obj
 0001:000023af       ?Clone@?$CComEnumImpl@UIEnumConnections@@$1?_GUID_b196b287_bab4_101a_b69c_00aa00341d07@@3U__s_GUID@@BUtagCONNECTDATA@@V?$_Copy@UtagCONNECTDATA@@@ATL@@@ATL@@UAGJPAPAUIEnumConnections@@@Z 100033af f i MotionSensor.obj
 0001:00002490       ?QueryInterface@?$CComObject@V?$CComEnum@UIEnumConnections@@$1?_GUID_b196b287_bab4_101a_b69c_00aa00341d07@@3U__s_GUID@@BUtagCONNECTDATA@@V?$_Copy@UtagCONNECTDATA@@@ATL@@VCComSingleThreadModel@6@@ATL@@@ATL@@UAGJABU_GUID@@PAPAX@Z 10003490 f i MotionSensor.obj
 0001:000024aa       ??_E?$CComObject@V?$CComEnum@UIEnumConnections@@$1?_GUID_b196b287_bab4_101a_b69c_00aa00341d07@@3U__s_GUID@@BUtagCONNECTDATA@@V?$_Copy@UtagCONNECTDATA@@@ATL@@VCComSingleThreadModel@6@@ATL@@@ATL@@UAEPAXI@Z 100034aa f i MotionSensor.obj
 0001:000024aa       ??_G?$CComObject@V?$CComEnum@UIEnumConnections@@$1?_GUID_b196b287_bab4_101a_b69c_00aa00341d07@@3U__s_GUID@@BUtagCONNECTDATA@@V?$_Copy@UtagCONNECTDATA@@@ATL@@VCComSingleThreadModel@6@@ATL@@@ATL@@UAEPAXI@Z 100034aa f i MotionSensor.obj
 0001:000024cc       ??_E?$CComObject@VCOPOSMotionSensor@@@ATL@@W3AEPAXI@Z 100034cc f i MotionSensor.obj
 0001:000024d4       ??_E?$CComObject@VCOPOSMotionSensor@@@ATL@@WEM@AEPAXI@Z 100034d4 f i MotionSensor.obj
 0001:000024dc       ?QueryInterface@?$CComObject@VCOPOSMotionSensor@@@ATL@@WHA@AGJABU_GUID@@PAPAX@Z 100034dc f i MotionSensor.obj
 0001:000024e6       ?AddRef@?$CComObject@VCOPOSMotionSensor@@@ATL@@WHA@AGKXZ 100034e6 f i MotionSensor.obj
 0001:000024f0       ?Release@?$CComObject@VCOPOSMotionSensor@@@ATL@@WHA@AGKXZ 100034f0 f i MotionSensor.obj
 0001:000024fa       ?QueryInterface@?$CComObject@VCOPOSMotionSensor@@@ATL@@WHE@AGJABU_GUID@@PAPAX@Z 100034fa f i MotionSensor.obj
 0001:00002504       ?AddRef@?$CComObject@VCOPOSMotionSensor@@@ATL@@WHE@AGKXZ 10003504 f i MotionSensor.obj
 0001:0000250e       ?Release@?$CComObject@VCOPOSMotionSensor@@@ATL@@WHE@AGKXZ 1000350e f i MotionSensor.obj
 0001:00002518       ?QueryInterface@?$CComObject@VCOPOSMotionSensor@@@ATL@@WHI@AGJABU_GUID@@PAPAX@Z 10003518 f i MotionSensor.obj
 0001:00002522       ?AddRef@?$CComObject@VCOPOSMotionSensor@@@ATL@@WHI@AGKXZ 10003522 f i MotionSensor.obj
 0001:0000252c       ?Release@?$CComObject@VCOPOSMotionSensor@@@ATL@@WHI@AGKXZ 1000352c f i MotionSensor.obj
 0001:00002536       ?QueryInterface@?$CComObject@VCOPOSMotionSensor@@@ATL@@WHM@AGJABU_GUID@@PAPAX@Z 10003536 f i MotionSensor.obj
 0001:00002540       ?AddRef@?$CComObject@VCOPOSMotionSensor@@@ATL@@WHM@AGKXZ 10003540 f i MotionSensor.obj
 0001:0000254a       ?Release@?$CComObject@VCOPOSMotionSensor@@@ATL@@WHM@AGKXZ 1000354a f i MotionSensor.obj
 0001:00002554       ?QueryInterface@?$CComObject@VCOPOSMotionSensor@@@ATL@@WIA@AGJABU_GUID@@PAPAX@Z 10003554 f i MotionSensor.obj
 0001:00002561       ?AddRef@?$CComObject@VCOPOSMotionSensor@@@ATL@@WIA@AGKXZ 10003561 f i MotionSensor.obj
 0001:0000256e       ?Release@?$CComObject@VCOPOSMotionSensor@@@ATL@@WIA@AGKXZ 1000356e f i MotionSensor.obj
 0001:0000257b       ?QueryInterface@?$CComObject@VCOPOSMotionSensor@@@ATL@@WIE@AGJABU_GUID@@PAPAX@Z 1000357b f i MotionSensor.obj
 0001:00002588       ?AddRef@?$CComObject@VCOPOSMotionSensor@@@ATL@@WIE@AGKXZ 10003588 f i MotionSensor.obj
 0001:00002595       ?Release@?$CComObject@VCOPOSMotionSensor@@@ATL@@WIE@AGKXZ 10003595 f i MotionSensor.obj
 0001:000025a2       ?QueryInterface@?$CComObject@VCOPOSMotionSensor@@@ATL@@WII@AGJABU_GUID@@PAPAX@Z 100035a2 f i MotionSensor.obj
 0001:000025af       ?AddRef@?$CComObject@VCOPOSMotionSensor@@@ATL@@WII@AGKXZ 100035af f i MotionSensor.obj
 0001:000025bc       ?Release@?$CComObject@VCOPOSMotionSensor@@@ATL@@WII@AGKXZ 100035bc f i MotionSensor.obj
 0001:000025c9       ?QueryInterface@?$CComObject@VCOPOSMotionSensor@@@ATL@@WIM@AGJABU_GUID@@PAPAX@Z 100035c9 f i MotionSensor.obj
 0001:000025d6       ?AddRef@?$CComObject@VCOPOSMotionSensor@@@ATL@@WIM@AGKXZ 100035d6 f i MotionSensor.obj
 0001:000025e3       ?Release@?$CComObject@VCOPOSMotionSensor@@@ATL@@WIM@AGKXZ 100035e3 f i MotionSensor.obj
 0001:000025f0       ?QueryInterface@?$CComObject@VCOPOSMotionSensor@@@ATL@@WJA@AGJABU_GUID@@PAPAX@Z 100035f0 f i MotionSensor.obj
 0001:000025fd       ?AddRef@?$CComObject@VCOPOSMotionSensor@@@ATL@@WJA@AGKXZ 100035fd f i MotionSensor.obj
 0001:0000260a       ?Release@?$CComObject@VCOPOSMotionSensor@@@ATL@@WJA@AGKXZ 1000360a f i MotionSensor.obj
 0001:00002617       ?QueryInterface@?$CComObject@VCOPOSMotionSensor@@@ATL@@WJE@AGJABU_GUID@@PAPAX@Z 10003617 f i MotionSensor.obj
 0001:00002624       ?AddRef@?$CComObject@VCOPOSMotionSensor@@@ATL@@WJE@AGKXZ 10003624 f i MotionSensor.obj
 0001:00002631       ?Release@?$CComObject@VCOPOSMotionSensor@@@ATL@@WJE@AGKXZ 10003631 f i MotionSensor.obj
 0001:0000263e       ?QueryInterface@?$CComObject@VCOPOSMotionSensor@@@ATL@@WJI@AGJABU_GUID@@PAPAX@Z 1000363e f i MotionSensor.obj
 0001:0000264b       ?AddRef@?$CComObject@VCOPOSMotionSensor@@@ATL@@WJI@AGKXZ 1000364b f i MotionSensor.obj
 0001:00002658       ?Release@?$CComObject@VCOPOSMotionSensor@@@ATL@@WJI@AGKXZ 10003658 f i MotionSensor.obj
 0001:00002665       ?QueryInterface@?$CComObject@VCOPOSMotionSensor@@@ATL@@WJM@AGJABU_GUID@@PAPAX@Z 10003665 f i MotionSensor.obj
 0001:00002672       ?AddRef@?$CComObject@VCOPOSMotionSensor@@@ATL@@WJM@AGKXZ 10003672 f i MotionSensor.obj
 0001:0000267f       ?Release@?$CComObject@VCOPOSMotionSensor@@@ATL@@WJM@AGKXZ 1000367f f i MotionSensor.obj
 0001:0000268c       ?QueryInterface@?$CComObject@VCOPOSMotionSensor@@@ATL@@WKA@AGJABU_GUID@@PAPAX@Z 1000368c f i MotionSensor.obj
 0001:00002699       ?AddRef@?$CComObject@VCOPOSMotionSensor@@@ATL@@WKA@AGKXZ 10003699 f i MotionSensor.obj
 0001:000026a6       ?Release@?$CComObject@VCOPOSMotionSensor@@@ATL@@WKA@AGKXZ 100036a6 f i MotionSensor.obj
 0001:000026b3       ?AddRef@?$CComObject@VCOPOSMotionSensor@@@ATL@@WKI@AGKXZ 100036b3 f i MotionSensor.obj
 0001:000026c0       ?Release@?$CComObject@VCOPOSMotionSensor@@@ATL@@WKI@AGKXZ 100036c0 f i MotionSensor.obj
 0001:000026cd       ?AddRef@?$CComObject@VCOPOSMotionSensor@@@ATL@@WLE@AGKXZ 100036cd f i MotionSensor.obj
 0001:000026da       ?Release@?$CComObject@VCOPOSMotionSensor@@@ATL@@WLE@AGKXZ 100036da f i MotionSensor.obj
 0001:000026e7       ??_E?$CComContainedObject@VCOPOSMotionSensor@@@ATL@@W3AEPAXI@Z 100036e7 f i MotionSensor.obj
 0001:000026ef       ??_E?$CComContainedObject@VCOPOSMotionSensor@@@ATL@@WEM@AEPAXI@Z 100036ef f i MotionSensor.obj
 0001:000026f7       ?QueryInterface@?$CComContainedObject@VCOPOSMotionSensor@@@ATL@@WHA@AGJABU_GUID@@PAPAX@Z 100036f7 f i MotionSensor.obj
 0001:00002701       ?AddRef@?$CComContainedObject@VCOPOSMotionSensor@@@ATL@@WHA@AGKXZ 10003701 f i MotionSensor.obj
 0001:0000270b       ?Release@?$CComContainedObject@VCOPOSMotionSensor@@@ATL@@WHA@AGKXZ 1000370b f i MotionSensor.obj
 0001:00002715       ?QueryInterface@?$CComContainedObject@VCOPOSMotionSensor@@@ATL@@WHE@AGJABU_GUID@@PAPAX@Z 10003715 f i MotionSensor.obj
 0001:0000271f       ?AddRef@?$CComContainedObject@VCOPOSMotionSensor@@@ATL@@WHE@AGKXZ 1000371f f i MotionSensor.obj
 0001:00002729       ?Release@?$CComContainedObject@VCOPOSMotionSensor@@@ATL@@WHE@AGKXZ 10003729 f i MotionSensor.obj
 0001:00002733       ?QueryInterface@?$CComContainedObject@VCOPOSMotionSensor@@@ATL@@WHI@AGJABU_GUID@@PAPAX@Z 10003733 f i MotionSensor.obj
 0001:0000273d       ?AddRef@?$CComContainedObject@VCOPOSMotionSensor@@@ATL@@WHI@AGKXZ 1000373d f i MotionSensor.obj
 0001:00002747       ?Release@?$CComContainedObject@VCOPOSMotionSensor@@@ATL@@WHI@AGKXZ 10003747 f i MotionSensor.obj
 0001:00002751       ?QueryInterface@?$CComContainedObject@VCOPOSMotionSensor@@@ATL@@WHM@AGJABU_GUID@@PAPAX@Z 10003751 f i MotionSensor.obj
 0001:0000275b       ?AddRef@?$CComContainedObject@VCOPOSMotionSensor@@@ATL@@WHM@AGKXZ 1000375b f i MotionSensor.obj
 0001:00002765       ?Release@?$CComContainedObject@VCOPOSMotionSensor@@@ATL@@WHM@AGKXZ 10003765 f i MotionSensor.obj
 0001:0000276f       ?QueryInterface@?$CComContainedObject@VCOPOSMotionSensor@@@ATL@@WIA@AGJABU_GUID@@PAPAX@Z 1000376f f i MotionSensor.obj
 0001:0000277c       ?AddRef@?$CComContainedObject@VCOPOSMotionSensor@@@ATL@@WIA@AGKXZ 1000377c f i MotionSensor.obj
 0001:00002789       ?Release@?$CComContainedObject@VCOPOSMotionSensor@@@ATL@@WIA@AGKXZ 10003789 f i MotionSensor.obj
 0001:00002796       ?QueryInterface@?$CComContainedObject@VCOPOSMotionSensor@@@ATL@@WIE@AGJABU_GUID@@PAPAX@Z 10003796 f i MotionSensor.obj
 0001:000027a3       ?AddRef@?$CComContainedObject@VCOPOSMotionSensor@@@ATL@@WIE@AGKXZ 100037a3 f i MotionSensor.obj
 0001:000027b0       ?Release@?$CComContainedObject@VCOPOSMotionSensor@@@ATL@@WIE@AGKXZ 100037b0 f i MotionSensor.obj
 0001:000027bd       ?QueryInterface@?$CComContainedObject@VCOPOSMotionSensor@@@ATL@@WII@AGJABU_GUID@@PAPAX@Z 100037bd f i MotionSensor.obj
 0001:000027ca       ?AddRef@?$CComContainedObject@VCOPOSMotionSensor@@@ATL@@WII@AGKXZ 100037ca f i MotionSensor.obj
 0001:000027d7       ?Release@?$CComContainedObject@VCOPOSMotionSensor@@@ATL@@WII@AGKXZ 100037d7 f i MotionSensor.obj
 0001:000027e4       ?QueryInterface@?$CComContainedObject@VCOPOSMotionSensor@@@ATL@@WIM@AGJABU_GUID@@PAPAX@Z 100037e4 f i MotionSensor.obj
 0001:000027f1       ?AddRef@?$CComContainedObject@VCOPOSMotionSensor@@@ATL@@WIM@AGKXZ 100037f1 f i MotionSensor.obj
 0001:000027fe       ?Release@?$CComContainedObject@VCOPOSMotionSensor@@@ATL@@WIM@AGKXZ 100037fe f i MotionSensor.obj
 0001:0000280b       ?QueryInterface@?$CComContainedObject@VCOPOSMotionSensor@@@ATL@@WJA@AGJABU_GUID@@PAPAX@Z 1000380b f i MotionSensor.obj
 0001:00002818       ?AddRef@?$CComContainedObject@VCOPOSMotionSensor@@@ATL@@WJA@AGKXZ 10003818 f i MotionSensor.obj
 0001:00002825       ?Release@?$CComContainedObject@VCOPOSMotionSensor@@@ATL@@WJA@AGKXZ 10003825 f i MotionSensor.obj
 0001:00002832       ?QueryInterface@?$CComContainedObject@VCOPOSMotionSensor@@@ATL@@WJE@AGJABU_GUID@@PAPAX@Z 10003832 f i MotionSensor.obj
 0001:0000283f       ?AddRef@?$CComContainedObject@VCOPOSMotionSensor@@@ATL@@WJE@AGKXZ 1000383f f i MotionSensor.obj
 0001:0000284c       ?Release@?$CComContainedObject@VCOPOSMotionSensor@@@ATL@@WJE@AGKXZ 1000384c f i MotionSensor.obj
 0001:00002859       ?QueryInterface@?$CComContainedObject@VCOPOSMotionSensor@@@ATL@@WJI@AGJABU_GUID@@PAPAX@Z 10003859 f i MotionSensor.obj
 0001:00002866       ?AddRef@?$CComContainedObject@VCOPOSMotionSensor@@@ATL@@WJI@AGKXZ 10003866 f i MotionSensor.obj
 0001:00002873       ?Release@?$CComContainedObject@VCOPOSMotionSensor@@@ATL@@WJI@AGKXZ 10003873 f i MotionSensor.obj
 0001:00002880       ?QueryInterface@?$CComContainedObject@VCOPOSMotionSensor@@@ATL@@WJM@AGJABU_GUID@@PAPAX@Z 10003880 f i MotionSensor.obj
 0001:0000288d       ?AddRef@?$CComContainedObject@VCOPOSMotionSensor@@@ATL@@WJM@AGKXZ 1000388d f i MotionSensor.obj
 0001:0000289a       ?Release@?$CComContainedObject@VCOPOSMotionSensor@@@ATL@@WJM@AGKXZ 1000389a f i MotionSensor.obj
 0001:000028a7       ?QueryInterface@?$CComContainedObject@VCOPOSMotionSensor@@@ATL@@WKA@AGJABU_GUID@@PAPAX@Z 100038a7 f i MotionSensor.obj
 0001:000028b4       ?AddRef@?$CComContainedObject@VCOPOSMotionSensor@@@ATL@@WKA@AGKXZ 100038b4 f i MotionSensor.obj
 0001:000028c1       ?Release@?$CComContainedObject@VCOPOSMotionSensor@@@ATL@@WKA@AGKXZ 100038c1 f i MotionSensor.obj
 0001:000028ce       ?AddRef@?$CComContainedObject@VCOPOSMotionSensor@@@ATL@@WKI@AGKXZ 100038ce f i MotionSensor.obj
 0001:000028db       ?Release@?$CComContainedObject@VCOPOSMotionSensor@@@ATL@@WKI@AGKXZ 100038db f i MotionSensor.obj
 0001:000028e8       ?AddRef@?$CComContainedObject@VCOPOSMotionSensor@@@ATL@@WLE@AGKXZ 100038e8 f i MotionSensor.obj
 0001:000028f5       ?Release@?$CComContainedObject@VCOPOSMotionSensor@@@ATL@@WLE@AGKXZ 100038f5 f i MotionSensor.obj
 0001:00002902       ??$?4UITypeInfo2@@@?$CComPtr@UITypeInfo@@@ATL@@QAEPAUITypeInfo@@ABV?$CComPtr@UITypeInfo2@@@1@@Z 10003902 f i MotionSensor.obj
 0001:0000292f       ??$AtlAdd@K@ATL@@YAJPAKKK@Z 1000392f f i MotionSensor.obj
 0001:00002952       ??$AtlAdd@_K@ATL@@YAJPA_K_K1@Z 10003952 f i MotionSensor.obj
 0001:0000298a       ??$AtlAddThrow@K@ATL@@YAKKK@Z 1000398a f i MotionSensor.obj
 0001:000029b0       ??$AtlModuleRegisterWndClassInfoT@VAtlModuleRegisterWndClassInfoParamW@ATL@@@ATL@@YAGPAU_ATL_BASE_MODULE70@0@PAU_ATL_WIN_MODULE70@0@PAU_ATL_WNDCLASSINFOW@0@PAP6GJPAUHWND__@@IIJ@ZVAtlModuleRegisterWndClassInfoParamW@0@@Z 100039b0 f i MotionSensor.obj
 0001:00002afe       ??$AtlMultiply@H@ATL@@YAJPAHHH@Z 10003afe f i MotionSensor.obj
 0001:00002b36       ??$AtlMultiply@K@ATL@@YAJPAKKK@Z 10003b36 f i MotionSensor.obj
 0001:00002b36       ??$AtlMultiply@I@ATL@@YAJPAIII@Z 10003b36 f i MotionSensor.obj
 0001:00002b58       ??$AtlMultiplyThrow@I@ATL@@YAIII@Z 10003b58 f i MotionSensor.obj
 0001:00002b7e       ??0?$CComAggObject@VCOPOSMotionSensor@@@ATL@@QAE@PAX@Z 10003b7e f i MotionSensor.obj
 0001:00002bab       ??0?$CComContainedObject@VCOPOSMotionSensor@@@ATL@@QAE@PAX@Z 10003bab f i MotionSensor.obj
 0001:00002c64       ??0?$CComObject@V?$CComEnum@UIEnumConnectionPoints@@$1?_GUID_b196b285_bab4_101a_b69c_00aa00341d07@@3U__s_GUID@@BPAUIConnectionPoint@@V?$_CopyInterface@UIConnectionPoint@@@ATL@@VCComSingleThreadModel@6@@ATL@@@ATL@@QAE@PAX@Z 10003c64 f i MotionSensor.obj
 0001:00002c92       ??0?$CComObject@V?$CComEnum@UIEnumConnections@@$1?_GUID_b196b287_bab4_101a_b69c_00aa00341d07@@3U__s_GUID@@BUtagCONNECTDATA@@V?$_Copy@UtagCONNECTDATA@@@ATL@@VCComSingleThreadModel@6@@ATL@@@ATL@@QAE@PAX@Z 10003c92 f i MotionSensor.obj
 0001:00002cc0       ??0?$CComObject@VCOPOSMotionSensor@@@ATL@@QAE@PAX@Z 10003cc0 f i MotionSensor.obj
 0001:00002d77       ??0?$CComQIPtr@UIOleControlSite@@$1?_GUID_b196b289_bab4_101a_b69c_00aa00341d07@@3U__s_GUID@@B@ATL@@QAE@PAUIUnknown@@@Z 10003d77 f i MotionSensor.obj
 0001:00002da0       ??0CAtlModule@ATL@@QAE@XZ  10003da0 f i MotionSensor.obj
 0001:00002de1       ??0CParseBuffer@CRegParser@ATL@@QAE@H@Z 10003de1 f i MotionSensor.obj
 0001:00002e17       ??0_ATL_MSG@ATL@@QAE@PAUHWND__@@IIJH@Z 10003e17 f i MotionSensor.obj
 0001:00002e4f       ??1?$CComAggObject@VCOPOSMotionSensor@@@ATL@@UAE@XZ 10003e4f f i MotionSensor.obj
 0001:00002e73       ??1?$CComEnumImpl@UIEnumConnectionPoints@@$1?_GUID_b196b285_bab4_101a_b69c_00aa00341d07@@3U__s_GUID@@BPAUIConnectionPoint@@V?$_CopyInterface@UIConnectionPoint@@@ATL@@@ATL@@UAE@XZ 10003e73 f i MotionSensor.obj
 0001:00002eb3       ??1?$CComEnumImpl@UIEnumConnections@@$1?_GUID_b196b287_bab4_101a_b69c_00aa00341d07@@3U__s_GUID@@BUtagCONNECTDATA@@V?$_Copy@UtagCONNECTDATA@@@ATL@@@ATL@@UAE@XZ 10003eb3 f i MotionSensor.obj
 0001:00002ef3       ??1?$CComObject@V?$CComEnum@UIEnumConnectionPoints@@$1?_GUID_b196b285_bab4_101a_b69c_00aa00341d07@@3U__s_GUID@@BPAUIConnectionPoint@@V?$_CopyInterface@UIConnectionPoint@@@ATL@@VCComSingleThreadModel@6@@ATL@@@ATL@@UAE@XZ 10003ef3 f i MotionSensor.obj
 0001:00002f16       ??1?$CComObject@V?$CComEnum@UIEnumConnections@@$1?_GUID_b196b287_bab4_101a_b69c_00aa00341d07@@3U__s_GUID@@BUtagCONNECTDATA@@V?$_Copy@UtagCONNECTDATA@@@ATL@@VCComSingleThreadModel@6@@ATL@@@ATL@@UAE@XZ 10003f16 f i MotionSensor.obj
 0001:00002f39       ??1?$CComObject@VCOPOSMotionSensor@@@ATL@@UAE@XZ 10003f39 f i MotionSensor.obj
 0001:00002ff7       ??1?$CComObjectCached@VCComClassFactory@ATL@@@ATL@@UAE@XZ 10003ff7 f i MotionSensor.obj
 0001:0000300d       ??1?$CComObjectRootEx@VCComMultiThreadModel@ATL@@@ATL@@QAE@XZ 1000400d f i MotionSensor.obj
 0001:00003022       ??1CRegObject@ATL@@UAE@XZ  10004022 f i MotionSensor.obj
 0001:00003042       ??4?$CComPtr@UIUnknown@@@ATL@@QAEPAUIUnknown@@PAU2@@Z 10004042 f i MotionSensor.obj
 0001:00003042       ??4?$CComPtr@UIOleClientSite@@@ATL@@QAEPAUIOleClientSite@@PAU2@@Z 10004042 f i MotionSensor.obj
 0001:00003042       ??4?$CComPtr@UIAdviseSink@@@ATL@@QAEPAUIAdviseSink@@PAU2@@Z 10004042 f i MotionSensor.obj
 0001:00003076       ??_G?$CComContainedObject@VCOPOSMotionSensor@@@ATL@@UAEPAXI@Z 10004076 f i MotionSensor.obj
 0001:00003076       ??_E?$CComContainedObject@VCOPOSMotionSensor@@@ATL@@UAEPAXI@Z 10004076 f i MotionSensor.obj
 0001:0000309b       ??_E?$CComObject@VCOPOSMotionSensor@@@ATL@@UAEPAXI@Z 1000409b f i MotionSensor.obj
 0001:0000309b       ??_G?$CComObject@VCOPOSMotionSensor@@@ATL@@UAEPAXI@Z 1000409b f i MotionSensor.obj
 0001:000030c0       ?Add@?$CSimpleArray@GV?$CSimpleArrayEqualHelper@G@ATL@@@ATL@@QAEHABG@Z 100040c0 f i MotionSensor.obj
 0001:00003144       ?Add@?$CSimpleMap@PA_WPA_WVCExpansionVectorEqualHelper@ATL@@@ATL@@QAEHABQA_W0@Z 10004144 f i MotionSensor.obj
 0001:00003199       ?Add@CComDynamicUnkArray@ATL@@QAEKPAUIUnknown@@@Z 10004199 f i MotionSensor.obj
 0001:0000324f       ?Add@CExpansionVector@ATL@@QAEHPB_W0@Z 1000424f f i MotionSensor.obj
 0001:00003358       ?AddString@CParseBuffer@CRegParser@ATL@@QAEHPB_W@Z 10004358 f i MotionSensor.obj
 0001:0000338d       ?AddTermFunc@CAtlModule@ATL@@QAEJP6GXK@ZK@Z 1000438d f i MotionSensor.obj
 0001:000033f0       ?AddValue@CRegParser@ATL@@IAEJAAVCRegKey@2@PB_WPA_W@Z 100043f0 f i MotionSensor.obj
 0001:0000370a       ?Allocate@?$CAtlSafeAllocBufferManager@VCCRTAllocator@ATL@@@_ATL_SAFE_ALLOCA_IMPL@ATL@@QAEPAXK@Z 1000470a f i MotionSensor.obj
 0001:00003737       ?Allocate@?$CTempBuffer@E$0BAA@VCCRTAllocator@ATL@@@ATL@@QAEPAEI@Z 10004737 f i MotionSensor.obj
 0001:00003766       ?Allocate@?$CTempBuffer@_W$0BAA@VCCRTAllocator@ATL@@@ATL@@QAEPA_WI@Z 10004766 f i MotionSensor.obj
 0001:00003795       ?Allocate@?$CTempBuffer@_W$0EAA@VCCRTAllocator@ATL@@@ATL@@QAEPA_WI@Z 10004795 f i MotionSensor.obj
 0001:000037c4       ?AllocateHeap@?$CTempBuffer@E$0BAA@VCCRTAllocator@ATL@@@ATL@@AAEXI@Z 100047c4 f i MotionSensor.obj
 0001:000037c4       ?AllocateHeap@?$CTempBuffer@_W$0EAA@VCCRTAllocator@ATL@@@ATL@@AAEXI@Z 100047c4 f i MotionSensor.obj
 0001:000037c4       ?AllocateHeap@?$CTempBuffer@_W$0BAA@VCCRTAllocator@ATL@@@ATL@@AAEXI@Z 100047c4 f i MotionSensor.obj
 0001:000037e9       ?Append@CParseBuffer@CRegParser@ATL@@QAEHPB_WH@Z 100047e9 f i MotionSensor.obj
 0001:00003877       ?AtlCoTaskMemCAlloc@ATL@@YAPAXKK@Z 10004877 f i MotionSensor.obj
 0001:000038a4       ?AtlCoTaskMemRecalloc@ATL@@YAPAXPAXKK@Z 100048a4 f i MotionSensor.obj
 0001:000038d4       ?AtlComModuleGetClassObject@ATL@@YGJPAU_ATL_COM_MODULE70@1@ABU_GUID@@1PAPAX@Z 100048d4 f i MotionSensor.obj
 0001:000039c7       ?AtlComModuleRegisterServer@ATL@@YGJPAU_ATL_COM_MODULE70@1@HPBU_GUID@@@Z 100049c7 f i MotionSensor.obj
 0001:00003a4f       ?AtlComModuleUnregisterServer@ATL@@YGJPAU_ATL_COM_MODULE70@1@HPBU_GUID@@@Z 10004a4f f i MotionSensor.obj
 0001:00003ad7       ?AtlComQIPtrAssign2@ATL@@YAXPAPAUIUnknown@@PAU2@ABU_GUID@@@Z 10004ad7 f i MotionSensor.obj
 0001:00003b06       ?AtlCreateTargetDC@ATL@@YGPAUHDC__@@PAU2@PAUtagDVTARGETDEVICE@@@Z 10004b06 f i MotionSensor.obj
 0001:00003b6f       ?AtlCrtErrorCheck@ATL@@YAHH@Z 10004b6f f i MotionSensor.obj
 0001:00003baa       ?AtlHiMetricToPixel@ATL@@YGXPBUtagSIZE@@PAU2@@Z 10004baa f i MotionSensor.obj
 0001:00003c1f       ?AtlHresultFromLastError@ATL@@YAJXZ 10004c1f f i MotionSensor.obj
 0001:00003c36       ?AtlHresultFromWin32@ATL@@YAJK@Z 10004c36 f i MotionSensor.obj
 0001:00003c4b       ?AtlInternalOleLoadFromStream@ATL@@YAJPAUIStream@@ABU_GUID@@PAPAXTClassesAllowedInStream@1@K@Z 10004c4b f i MotionSensor.obj
 0001:00003d71       ?AtlInternalQueryInterface@ATL@@YGJPAXPBU_ATL_INTMAP_ENTRY@1@ABU_GUID@@PAPAX@Z 10004d71 f i MotionSensor.obj
 0001:00003e14       ?AtlLoadTypeLib@ATL@@YGJPAUHINSTANCE__@@PB_WPAPA_WPAPAUITypeLib@@@Z 10004e14 f i MotionSensor.obj
 0001:00003ff2       ?AtlRegisterClassCategoriesHelper@ATL@@YGJABU_GUID@@PBU_ATL_CATMAP_ENTRY@1@H@Z 10004ff2 f i MotionSensor.obj
 0001:000042ee       ?AtlRegisterTypeLib@ATL@@YGJPAUHINSTANCE__@@PB_W@Z 100052ee f i MotionSensor.obj
 0001:00004476       ?AtlThrowImpl@ATL@@YGXJ@Z  10005476 f i MotionSensor.obj
 0001:00004494       ?AtlUnRegisterTypeLib@ATL@@YGJPAUHINSTANCE__@@PB_W@Z 10005494 f i MotionSensor.obj
 0001:0000453f       ?AtlWinModuleAddCreateWndData@ATL@@YGXPAU_ATL_WIN_MODULE70@1@PAU_AtlCreateWndData@1@PAX@Z 1000553f f i MotionSensor.obj
 0001:00004593       ?AtlWinModuleExtractCreateWndData@ATL@@YGPAXPAU_ATL_WIN_MODULE70@1@@Z 10005593 f i MotionSensor.obj
 0001:000045f6       ?AtlWinModuleRegisterClassExW@ATL@@YGGPAU_ATL_WIN_MODULE70@1@PBUtagWNDCLASSEXW@@@Z 100055f6 f i MotionSensor.obj
 0001:00004635       ?CanForceRemoveKey@CRegParser@ATL@@IAEHPB_W@Z 10005635 f i MotionSensor.obj
 0001:00004664       ?ChToByte@CRegParser@ATL@@KAE_W@Z 10005664 f i MotionSensor.obj
 0001:00004697       ?Cleanup@CComTypeInfoHolder@ATL@@SGXK@Z 10005697 f i MotionSensor.obj
 0001:000046ca       ?ClearReplacements@CExpansionVector@ATL@@QAEJXZ 100056ca f i MotionSensor.obj
 0001:00004707       ?Close@CRegKey@ATL@@QAEJXZ 10005707 f i MotionSensor.obj
 0001:00004721       ?CreateInstance@?$CComCreator@V?$CComAggObject@VCOPOSMotionSensor@@@ATL@@@ATL@@SGJPAXABU_GUID@@PAPAX@Z 10005721 f i MotionSensor.obj
 0001:00004797       ?CreateInstance@?$CComCreator@V?$CComObject@VCOPOSMotionSensor@@@ATL@@@ATL@@SGJPAXABU_GUID@@PAPAX@Z 10005797 f i MotionSensor.obj
 0001:00004818       ?CreateInstance@?$CComObject@V?$CComEnum@UIEnumConnectionPoints@@$1?_GUID_b196b285_bab4_101a_b69c_00aa00341d07@@3U__s_GUID@@BPAUIConnectionPoint@@V?$_CopyInterface@UIConnectionPoint@@@ATL@@VCComSingleThreadModel@6@@ATL@@@ATL@@SGJPAPAV12@@Z 10005818 f i MotionSensor.obj
 0001:0000485f       ?CreateInstance@?$CComObject@V?$CComEnum@UIEnumConnections@@$1?_GUID_b196b287_bab4_101a_b69c_00aa00341d07@@3U__s_GUID@@BUtagCONNECTDATA@@V?$_Copy@UtagCONNECTDATA@@@ATL@@VCComSingleThreadModel@6@@ATL@@@ATL@@SGJPAPAV12@@Z 1000585f f i MotionSensor.obj
 0001:000048a6       ?DefaultReflectionHandler@?$CWindowImplRoot@VCWindow@ATL@@@ATL@@SAHPAUHWND__@@IIJAAJ@Z 100058a6 f i MotionSensor.obj
 0001:00004919       ?DeleteSubKey@CRegKey@ATL@@QAEJPB_W@Z 10005919 f i MotionSensor.obj
 0001:00004992       ?DoEvent@COPOSMotionSensor@@IAEXIIJ@Z 10005992 f i MotionSensor.obj
 0001:00004a12       ?DoVerbHide@?$IOleObjectImpl@VCOPOSMotionSensor@@@ATL@@QAEJPBUtagRECT@@PAUHWND__@@@Z 10005a12 f i MotionSensor.obj
 0001:00004a48       ?DoVerbInPlaceActivate@?$IOleObjectImpl@VCOPOSMotionSensor@@@ATL@@QAEJPBUtagRECT@@PAUHWND__@@@Z 10005a48 f i MotionSensor.obj
 0001:00004a7b       ?DoVerbPrimary@?$IOleObjectImpl@VCOPOSMotionSensor@@@ATL@@QAEJPBUtagRECT@@PAUHWND__@@@Z 10005a7b f i MotionSensor.obj
 0001:00004b07       ?DoVerbProperties@CComControlBase@ATL@@QAEJPBUtagRECT@@PAUHWND__@@@Z 10005b07 f i MotionSensor.obj
 0001:00004c86       ?DoVerbUIActivate@?$IOleObjectImpl@VCOPOSMotionSensor@@@ATL@@QAEJPBUtagRECT@@PAUHWND__@@@Z 10005c86 f i MotionSensor.obj
 0001:00004cc3       ?DoesVerbActivate@CComControlBase@ATL@@QAEHJ@Z 10005cc3 f i MotionSensor.obj
 0001:00004ce4       ?DoesVerbUIActivate@CComControlBase@ATL@@QAEHJ@Z 10005ce4 f i MotionSensor.obj
 0001:00004d19       ?EndOfVar@CRegParser@ATL@@IAEHXZ 10005d19 f i MotionSensor.obj
 0001:00004d39       ?EscapeSingleQuote@CAtlModule@ATL@@SAXPA_WIPB_W@Z 10005d39 f i MotionSensor.obj
 0001:00004d88       ?FindKey@?$CSimpleMap@PA_WPA_WVCExpansionVectorEqualHelper@ATL@@@ATL@@QBEHABQA_W@Z 10005d88 f i MotionSensor.obj
 0001:00004dbf       ?FireTheEvent@?$CProxy_IOPOSEvents@VCOPOSMotionSensor@@@@IAEXPAVOposVariant@@IAAJPB_WJ@Z 10005dbf f i MotionSensor.obj
 0001:00004e51       ?FireViewChange@CComControlBase@ATL@@QAEJXZ 10005e51 f i MotionSensor.obj
 0001:00004e9a       ?Fire_DirectIOEvent@?$CProxy_IOPOSEvents@VCOPOSMotionSensor@@@@QAEXJPAJPAPA_W@Z 10005e9a f i MotionSensor.obj
 0001:00004f83       ?Fire_StatusUpdateEvent@?$CProxy_IOPOSEvents@VCOPOSMotionSensor@@@@QAEXJ@Z 10005f83 f i MotionSensor.obj
 0001:00005016       ?FreeHeap@?$CTempBuffer@E$0BAA@VCCRTAllocator@ATL@@@ATL@@AAEXXZ 10006016 f i MotionSensor.obj
 0001:00005016       ?FreeHeap@?$CTempBuffer@_W$0BAA@VCCRTAllocator@ATL@@@ATL@@AAEXXZ 10006016 f i MotionSensor.obj
 0001:00005016       ?FreeHeap@?$CTempBuffer@_W$0EAA@VCCRTAllocator@ATL@@@ATL@@AAEXXZ 10006016 f i MotionSensor.obj
 0001:0000501f       ?GetAmbientLocaleID@CComControlBase@ATL@@QAEJAAK@Z 1000601f f i MotionSensor.obj
 0001:0000507b       ?GetAmbientUserMode@CComControlBase@ATL@@QAEJAAH@Z 1000607b f i MotionSensor.obj
 0001:000050eb       ?GetAt@CComDynamicUnkArray@ATL@@QAEPAUIUnknown@@H@Z 100060eb f i MotionSensor.obj
 0001:00005107       ?GetClassObject@CComModule@ATL@@QAEJABU_GUID@@0PAPAX@Z 10006107 f i MotionSensor.obj
 0001:000051a9       ?GetConnMap@COPOSMotionSensor@@SAPBU_ATL_CONNMAP_ENTRY@ATL@@PAH@Z 100061a9 f i MotionSensor.obj
 0001:00005219       ?GetCookie@CComDynamicUnkArray@ATL@@QAGKPAPAUIUnknown@@@Z 10006219 f i MotionSensor.obj
 0001:00005251       ?GetIDsOfNames@CComTypeInfoHolder@ATL@@QAEJABU_GUID@@PAPA_WIKPAJ@Z 10006251 f i MotionSensor.obj
 0001:00005378       ?GetKeyAt@?$CSimpleMap@PA_WPA_WVCExpansionVectorEqualHelper@ATL@@@ATL@@QBEAAPA_WH@Z 10006378 f i MotionSensor.obj
 0001:0000539d       ?GetPagesHelper@?$ISpecifyPropertyPagesImpl@VCOPOSMotionSensor@@@ATL@@IAEJPAUtagCAUUID@@PBUATL_PROPMAP_ENTRY@2@@Z 1000639d f i MotionSensor.obj
 0001:000054c4       ?GetProperty@?$CComPtr@UIDispatch@@@ATL@@SAJPAUIDispatch@@JPAUtagVARIANT@@@Z 100064c4 f i MotionSensor.obj
 0001:00005513       ?GetSizeMax@CComVariant@ATL@@QBEJPAT_ULARGE_INTEGER@@@Z 10006513 f i MotionSensor.obj
 0001:000056d9       ?GetTI@CComTypeInfoHolder@ATL@@QAEJK@Z 100066d9 f i MotionSensor.obj
 0001:000058b8       ?GetTI@CComTypeInfoHolder@ATL@@QAEJKPAPAUITypeInfo@@@Z 100068b8 f i MotionSensor.obj
 0001:000058fa       ?GetUnknown@CComDynamicUnkArray@ATL@@QAGPAUIUnknown@@K@Z 100068fa f i MotionSensor.obj
 0001:0000591b       ?GetValueAt@?$CSimpleMap@PA_WPA_WVCExpansionVectorEqualHelper@ATL@@@ATL@@QBEAAPA_WH@Z 1000691b f i MotionSensor.obj
 0001:00005941       ?GetZoomInfo@CComControlBase@ATL@@QAEXAAUATL_DRAWINFO@@@Z 10006941 f i MotionSensor.obj
 0001:000059d4       ?HKeyFromString@CRegParser@ATL@@KAPAUHKEY__@@PA_W@Z 100069d4 f i MotionSensor.obj
 0001:00005a02       ?HasSubKeys@CRegParser@ATL@@IAEHPAUHKEY__@@@Z 10006a02 f i MotionSensor.obj
 0001:00005a37       ?IDataObject_GetData@CComControlBase@ATL@@QAEJPAUtagFORMATETC@@PAUtagSTGMEDIUM@@@Z 10006a37 f i MotionSensor.obj
 0001:00005bdd       ?IOleInPlaceObject_InPlaceDeactivate@CComControlBase@ATL@@QAEJXZ 10006bdd f i MotionSensor.obj
 0001:00005c64       ?IOleInPlaceObject_SetObjectRects@CComControlBase@ATL@@QAEJPBUtagRECT@@0@Z 10006c64 f i MotionSensor.obj
 0001:00005d31       ?IOleInPlaceObject_UIDeactivate@CComControlBase@ATL@@QAEJXZ 10006d31 f i MotionSensor.obj
 0001:00005df3       ?IOleObject_Advise@CComControlBase@ATL@@QAEJPAUIAdviseSink@@PAK@Z 10006df3 f i MotionSensor.obj
 0001:00005e1d       ?IOleObject_Close@CComControlBase@ATL@@QAEJK@Z 10006e1d f i MotionSensor.obj
 0001:00005f01       ?IOleObject_GetClientSite@CComControlBase@ATL@@QAEJPAPAUIOleClientSite@@@Z 10006f01 f i MotionSensor.obj
 0001:00005f2a       ?IOleObject_SetClientSite@CComControlBase@ATL@@QAEJPAUIOleClientSite@@@Z 10006f2a f i MotionSensor.obj
 0001:00005f69       ?IOleObject_SetExtent@CComControlBase@ATL@@QAEJKPAUtagSIZE@@@Z 10006f69 f i MotionSensor.obj
 0001:0000601d       ?IPSI_GetIPersistStreamInit@?$IPersistStorageImpl@VCOPOSMotionSensor@@@ATL@@AAEPAUIPersistStreamInit@@XZ 1000701d f i MotionSensor.obj
 0001:000060c5       ?IPersistStreamInit_Load@?$IPersistStreamInitImpl@VCOPOSMotionSensor@@@ATL@@QAEJPAUIStream@@PBUATL_PROPMAP_ENTRY@2@@Z 100070c5 f i MotionSensor.obj
 0001:00006341       ?IPersistStreamInit_Save@?$IPersistStreamInitImpl@VCOPOSMotionSensor@@@ATL@@QAEJPAUIStream@@HPBUATL_PROPMAP_ENTRY@2@@Z 10007341 f i MotionSensor.obj
 0001:0000652f       ?IQuickActivate_QuickActivate@CComControlBase@ATL@@QAEJPAUtagQACONTAINER@@PAUtagQACONTROL@@@Z 1000752f f i MotionSensor.obj
 0001:00006771       ?IViewObject_Draw@CComControlBase@ATL@@QAEJKJPAXPAUtagDVTARGETDEVICE@@PAUHDC__@@2PBU_RECTL@@3@Z 10007771 f i MotionSensor.obj
 0001:00006819       ?InPlaceActivate@CComControlBase@ATL@@QAEJJPBUtagRECT@@@Z 10007819 f i MotionSensor.obj
 0001:00006a8a       ?Init@?$CComEnumImpl@UIEnumConnectionPoints@@$1?_GUID_b196b285_bab4_101a_b69c_00aa00341d07@@3U__s_GUID@@BPAUIConnectionPoint@@V?$_CopyInterface@UIConnectionPoint@@@ATL@@@ATL@@QAEJPAPAUIConnectionPoint@@0PAUIUnknown@@W4CComEnumFlags@2@@Z 10007a8a f i MotionSensor.obj
 0001:00006b69       ?Init@?$CComEnumImpl@UIEnumConnections@@$1?_GUID_b196b287_bab4_101a_b69c_00aa00341d07@@3U__s_GUID@@BUtagCONNECTDATA@@V?$_Copy@UtagCONNECTDATA@@@ATL@@@ATL@@QAEJPAUtagCONNECTDATA@@0PAUIUnknown@@W4CComEnumFlags@2@@Z 10007b69 f i MotionSensor.obj
 0001:00006c48       ?Init@CComModule@ATL@@QAEJPAU_ATL_OBJMAP_ENTRY30@2@PAUHINSTANCE__@@PBU_GUID@@@Z 10007c48 f i MotionSensor.obj
 0001:00006ca7       ?Init@CDynamicStdCallThunk2@ATL@@QAEHKPAX@Z 10007ca7 f i MotionSensor.obj
 0001:00006cd2       ?InlineIsEqualUnknown@ATL@@YGHABU_GUID@@@Z 10007cd2 f i MotionSensor.obj
 0001:00006cfa       ?InternalSetAtIndex@?$CSimpleMap@PA_WPA_WVCExpansionVectorEqualHelper@ATL@@@ATL@@QAEXHABQA_W0@Z 10007cfa f i MotionSensor.obj
 0001:00006d24       ?Invoke@CComTypeInfoHolder@ATL@@QAEJPAUIDispatch@@JABU_GUID@@KGPAUtagDISPPARAMS@@PAUtagVARIANT@@PAUtagEXCEPINFO@@PAI@Z 10007d24 f i MotionSensor.obj
 0001:00006d67       ?IsEqualObject@?$CComPtrBase@UITypeInfo@@@ATL@@QAE_NPAUIUnknown@@@Z 10007d67 f i MotionSensor.obj
 0001:00006d67       ?IsEqualObject@?$CComPtrBase@UIOleClientSite@@@ATL@@QAE_NPAUIUnknown@@@Z 10007d67 f i MotionSensor.obj
 0001:00006dd4       ?IsSpace@CRegParser@ATL@@IAEH_W@Z 10007dd4 f i MotionSensor.obj
 0001:00006dfe       ?LoadNameCache@CComTypeInfoHolder@ATL@@QAEJPAUITypeInfo@@@Z 10007dfe f i MotionSensor.obj
 0001:00006f4a       ?Lookup@?$CSimpleMap@PA_WPA_WVCExpansionVectorEqualHelper@ATL@@@ATL@@QBEPA_WABQA_W@Z 10007f4a f i MotionSensor.obj
 0001:00006f70       ?NextToken@CRegParser@ATL@@IAEJPA_W@Z 10007f70 f i MotionSensor.obj
 0001:000070a8       ?OnKillFocus@CComControlBase@ATL@@QAEJIIJAAH@Z 100080a8 f i MotionSensor.obj
 0001:00007103       ?OnMouseActivate@CComControlBase@ATL@@QAEJIIJAAH@Z 10008103 f i MotionSensor.obj
 0001:00007171       ?OnPaint@CComControlBase@ATL@@QAEJIIJAAH@Z 10008171 f i MotionSensor.obj
 0001:00007223       ?OnSetFocus@CComControlBase@ATL@@QAEJIIJAAH@Z 10008223 f i MotionSensor.obj
 0001:000072ac       ?Open@CRegKey@ATL@@QAEJPAUHKEY__@@PB_WK@Z 100082ac f i MotionSensor.obj
 0001:00007301       ?PreProcessBuffer@CRegParser@ATL@@QAEJPA_WPAPA_W@Z 10008301 f i MotionSensor.obj
 0001:0000756b       ?ProcessWindowMessage@?$CComControl@VCOPOSMotionSensor@@V?$CWindowImpl@VCOPOSMotionSensor@@VCWindow@ATL@@V?$CWinTraits@$0FGAAAAAA@$0A@@3@@ATL@@@ATL@@UAEHPAUHWND__@@IIJAAJK@Z 1000856b f i MotionSensor.obj
 0001:0000760a       ?ReadFromStream@CComBSTR@ATL@@QAEJPAUIStream@@@Z 1000860a f i MotionSensor.obj
 0001:00007738       ?ReadFromStream@CComVariant@ATL@@QAEJPAUIStream@@GTClassesAllowedInStream@2@K@Z 10008738 f i MotionSensor.obj
 0001:000078be       ?RecurseDeleteKey@CRegKey@ATL@@QAEJPB_W@Z 100088be f i MotionSensor.obj
 0001:000079ac       ?RegCreateKeyExW@CAtlTransactionManager@ATL@@QAEJPAUHKEY__@@PB_WKPA_WKKQAU_SECURITY_ATTRIBUTES@@PAPAU3@PAK@Z 100089ac f i MotionSensor.obj
 0001:00007a0f       ?RegDeleteKeyW@CAtlTransactionManager@ATL@@QAEJPAUHKEY__@@PB_W@Z 10008a0f f i MotionSensor.obj
 0001:00007a61       ?RegOpenKeyExW@CAtlTransactionManager@ATL@@QAEJPAUHKEY__@@PB_WKKPAPAU3@@Z 10008a61 f i MotionSensor.obj
 0001:00007ab8       ?Register@_ATL_WNDCLASSINFOW@ATL@@QAEGPAP6GJPAUHWND__@@IIJ@Z@Z 10008ab8 f i MotionSensor.obj
 0001:00007ad8       ?RegisterBuffer@CRegParser@ATL@@QAEJPA_WH@Z 10008ad8 f i MotionSensor.obj
 0001:00007c11       ?RegisterFromResource@CRegObject@ATL@@IAEJPB_W00H@Z 10008c11 f i MotionSensor.obj
 0001:00007d47       ?RegisterServer@?$CAtlModuleT@VCComModule@ATL@@@ATL@@QAEJHPBU_GUID@@@Z 10008d47 f i MotionSensor.obj
 0001:00007d75       ?RegisterServer@CComModule@ATL@@QAEJHPBU_GUID@@@Z 10008d75 f i MotionSensor.obj
 0001:00007deb       ?RegisterSubkeys@CRegParser@ATL@@IAEJPA_WPAUHKEY__@@HH@Z 10008deb f i MotionSensor.obj
 0001:00008492       ?Remove@CComDynamicUnkArray@ATL@@QAEHK@Z 10009492 f i MotionSensor.obj
 0001:000084bb       ?RemoveAll@?$CSimpleMap@PA_WPA_WVCExpansionVectorEqualHelper@ATL@@@ATL@@QAEXXZ 100094bb f i MotionSensor.obj
 0001:000084e7       ?ResourceRegisterSz@CRegObject@ATL@@QAGJPB_W00@Z 100094e7 f i MotionSensor.obj
 0001:00008514       ?ResourceUnregisterSz@CRegObject@ATL@@QAGJPB_W00@Z 10009514 f i MotionSensor.obj
 0001:00008541       ?SendOnDataChange@CComControlBase@ATL@@QAEJK@Z 10009541 f i MotionSensor.obj
 0001:0000858e       ?SetControlFocus@CComControlBase@ATL@@QAEHH@Z 1000958e f i MotionSensor.obj
 0001:0000862b       ?SetMultiStringValue@CRegKey@ATL@@QAEJPB_W0@Z 1000962b f i MotionSensor.obj
 0001:00008687       ?SetStringValue@CRegKey@ATL@@QAEJPB_W0K@Z 10009687 f i MotionSensor.obj
 0001:000086d0       ?SkipAssignment@CRegParser@ATL@@IAEJPA_W@Z 100096d0 f i MotionSensor.obj
 0001:00008735       ?SkipWhiteSpace@CRegParser@ATL@@IAEXXZ 10009735 f i MotionSensor.obj
 0001:00008757       ?StrChrW@CRegParser@ATL@@KAPA_WPA_W_W@Z 10009757 f i MotionSensor.obj
 0001:00008794       ?Term@CAtlModule@ATL@@QAEXXZ 10009794 f i MotionSensor.obj
 0001:000087e7       ?Term@CComModule@ATL@@QAEXXZ 100097e7 f i MotionSensor.obj
 0001:0000883f       ?UnregisterServer@?$CAtlModuleT@VCComModule@ATL@@@ATL@@QAEJHPBU_GUID@@@Z 1000983f f i MotionSensor.obj
 0001:00008865       ?UnregisterServer@CComModule@ATL@@QAEJHPBU_GUID@@@Z 10009865 f i MotionSensor.obj
 0001:000088db       ?UpdateRegistryFromResource@CAtlModule@ATL@@QAGJIHPAU_ATL_REGMAP_ENTRY@2@@Z 100098db f i MotionSensor.obj
 0001:00008aa6       ?UpdateRegistryFromResource@CAtlModule@ATL@@QAGJPB_WHPAU_ATL_REGMAP_ENTRY@2@@Z 10009aa6 f i MotionSensor.obj
 0001:00008c77       ?VTFromRegType@CRegParser@ATL@@KAHPB_WAAG@Z 10009c77 f i MotionSensor.obj
 0001:00008ce4       ?WindowProc@?$CWindowImplBaseT@VCWindow@ATL@@V?$CWinTraits@$0FGAAAAAA@$0A@@2@@ATL@@SGJPAUHWND__@@IIJ@Z 10009ce4 f i MotionSensor.obj
 0001:00008dd6       ?WriteToStream@CComBSTR@ATL@@QAEJPAUIStream@@@Z 10009dd6 f i MotionSensor.obj
 0001:00008e38       ?WriteToStream@CComVariant@ATL@@QAEJPAUIStream@@@Z 10009e38 f i MotionSensor.obj
 0001:00008fb2       ?WriteToStream@CComVariant@ATL@@QAEJPAUIStream@@G@Z 10009fb2 f i MotionSensor.obj
 0001:0000901b       ?_AtlInitialConstruct@?$CComObjectRootEx@VCComMultiThreadModel@ATL@@@ATL@@QAEJXZ 1000a01b f i MotionSensor.obj
 0001:00009030       ?_AtlVerifyStackAvailable@_ATL_SAFE_ALLOCA_IMPL@ATL@@YA_NK@Z 1000a030 f i MotionSensor.obj
 0001:000090ae       ?atlCreate@?$CWindowImpl@VCOPOSMotionSensor@@VCWindow@ATL@@V?$CWinTraits@$0FGAAAAAA@$0A@@3@@ATL@@QAEPAUHWND__@@PAU3@V_U_RECT@2@PB_WKKV_U_MENUorID@2@PAX@Z 1000a0ae f i MotionSensor.obj
 0001:000090f2       ?atlCreate@?$CWindowImplBaseT@VCWindow@ATL@@V?$CWinTraits@$0FGAAAAAA@$0A@@2@@ATL@@QAEPAUHWND__@@PAU3@V_U_RECT@2@PB_WKKV_U_MENUorID@2@GPAX@Z 1000a0f2 f i MotionSensor.obj
 0001:0000918e       ?copy@?$_Copy@UtagCONNECTDATA@@@ATL@@SAJPAUtagCONNECTDATA@@PBU3@@Z 1000a18e f i MotionSensor.obj
 0001:000091c4       ?copy@?$_CopyInterface@UIConnectionPoint@@@ATL@@SAJPAPAUIConnectionPoint@@PBQAU3@@Z 1000a1c4 f i MotionSensor.obj
 0001:000091f2       ?memcpy_s@Checked@ATL@@YAXPAXIPBXI@Z 1000a1f2 f i MotionSensor.obj
 0001:00009211       ?ocscpy_s@@YA_NPA_WIPB_W@Z 1000a211 f i MotionSensor.obj
 0001:0000925b       ?wcscpy_s@Checked@ATL@@YAXPA_WIPB_W@Z 1000a25b f i MotionSensor.obj
 0001:00009277       _DllCanUnloadNow@0         1000a277 f   MotionSensor.obj
 0001:00009283       _DllGetClassObject@12      1000a283 f   MotionSensor.obj
 0001:00009291       _DllMain@12                1000a291 f   MotionSensor.obj
 0001:000092d3       _DllRegisterServer@0       1000a2d3 f   MotionSensor.obj
 0001:000092e2       _DllUnregisterServer@0     1000a2e2 f   MotionSensor.obj
 0001:000092f1       _InlineIsEqualGUID         1000a2f1 f i MotionSensor.obj
 0001:00009321       ___local_stdio_printf_options 1000a321 f i MotionSensor.obj
 0001:00009327       __vswprintf_s_l            1000a327 f i MotionSensor.obj
 0001:000093d4       _swprintf_s                1000a3d4 f i MotionSensor.obj
 0001:000093f0       ??0?$CComControl@VCOPOSMotionSensor@@V?$CWindowImpl@VCOPOSMotionSensor@@VCWindow@ATL@@V?$CWinTraits@$0FGAAAAAA@$0A@@3@@ATL@@@ATL@@QAE@XZ 1000a3f0 f i MotionSensorImpl.obj
 0001:00009417       ??0CComControlBase@ATL@@QAE@AAPAUHWND__@@@Z 1000a417 f i MotionSensorImpl.obj
 0001:00009461       ??0COPOSMotionSensor@@QAE@XZ 1000a461 f   MotionSensorImpl.obj
 0001:000094b0       ??1?$CComControl@VCOPOSMotionSensor@@V?$CWindowImpl@VCOPOSMotionSensor@@VCWindow@ATL@@V?$CWinTraits@$0FGAAAAAA@$0A@@3@@ATL@@@ATL@@UAE@XZ 1000a4b0 f i MotionSensorImpl.obj
 0001:000094c9       ??1?$IConnectionPointImpl@VCOPOSMotionSensor@@$1?DIID__IOPOSMotionSensorEvents@@3U_GUID@@BVCComDynamicUnkArray@ATL@@@ATL@@QAE@XZ 1000a4c9 f i MotionSensorImpl.obj
 0001:000094c9       ??1?$IConnectionPointImpl@VCOPOSMotionSensor@@$1?IID_IPropertyNotifySink@@3U_GUID@@BVCComDynamicUnkArray@ATL@@@ATL@@QAE@XZ 1000a4c9 f i MotionSensorImpl.obj
 0001:00009506       ??1CComControlBase@ATL@@UAE@XZ 1000a506 f i MotionSensorImpl.obj
 0001:00009569       ??1COPOSMotionSensor@@UAE@XZ 1000a569 f   MotionSensorImpl.obj
 0001:000095b1       ?CheckHealth@COPOSMotionSensor@@UAGJJPAJ@Z 1000a5b1 f   MotionSensorImpl.obj
 0001:00009600       ?ClaimDevice@COPOSMotionSensor@@UAGJJPAJ@Z 1000a600 f   MotionSensorImpl.obj
 0001:0000966e       ?Close@COPOSMotionSensor@@UAGJPAJ@Z 1000a66e f   MotionSensorImpl.obj
 0001:000096dc       ?CompareFirmwareVersion@COPOSMotionSensor@@UAGJPA_WPAJ1@Z 1000a6dc f   MotionSensorImpl.obj
 0001:0000975c       ?DirectIO@COPOSMotionSensor@@UAGJJPAJPAPA_W0@Z 1000a75c f   MotionSensorImpl.obj
 0001:0000980a       ?DoInvoke@COPOSMotionSensor@@IAEJJPAVOposVariant@@IHPAJ_N@Z 1000a80a f   MotionSensorImpl.obj
 0001:000098e6       ?EventClose@COPOSMotionSensor@@IAEXXZ 1000a8e6 f i MotionSensorImpl.obj
 0001:00009919       ?EventInit@COPOSMotionSensor@@IAEJXZ 1000a919 f i MotionSensorImpl.obj
 0001:000099e5       ?EventUninit@COPOSMotionSensor@@IAEXXZ 1000a9e5 f i MotionSensorImpl.obj
 0001:00009a37       ?EventWindowProc@COPOSMotionSensor@@IAGJIIJ@Z 1000aa37 f i MotionSensorImpl.obj
 0001:00009aae       ?FinalConstruct@COPOSMotionSensor@@QAEJXZ 1000aaae f   MotionSensorImpl.obj
 0001:00009ae7       ?FireEventCleanup@COPOSMotionSensor@@IAEXXZ 1000aae7 f i MotionSensorImpl.obj
 0001:00009afd       ?FireEventSetup@COPOSMotionSensor@@IAE_NXZ 1000aafd f i MotionSensorImpl.obj
 0001:00009b31       ?FreezeEvents@COPOSMotionSensor@@MAGJH@Z 1000ab31 f   MotionSensorImpl.obj
 0001:00009b82       ?GetOposProp@COPOSMotionSensor@@IAEJJPAFJ@Z 1000ab82 f   MotionSensorImpl.obj
 0001:00009ba5       ?GetOposProp@COPOSMotionSensor@@IAEJJPAJJ@Z 1000aba5 f   MotionSensorImpl.obj
 0001:00009c74       ?GetOposProp@COPOSMotionSensor@@IAEJJPAPA_WJ@Z 1000ac74 f   MotionSensorImpl.obj
 0001:00009d50       ?OnDraw@COPOSMotionSensor@@MAEJAAUATL_DRAWINFO@@@Z 1000ad50 f   MotionSensorImpl.obj
 0001:00009df0       ?Open@COPOSMotionSensor@@UAGJPA_WPAJ@Z 1000adf0 f   MotionSensorImpl.obj
 0001:0000a634       ?ReleaseDevice@COPOSMotionSensor@@UAGJPAJ@Z 1000b634 f   MotionSensorImpl.obj
 0001:0000a66b       ?ResetStatistics@COPOSMotionSensor@@UAGJPA_WPAJ@Z 1000b66b f   MotionSensorImpl.obj
 0001:0000a6c2       ?RetrieveStatistics@COPOSMotionSensor@@UAGJPAPA_WPAJ@Z 1000b6c2 f   MotionSensorImpl.obj
 0001:0000a719       ?SOProcessID@COPOSMotionSensor@@UAGJPAJ@Z 1000b719 f   MotionSensorImpl.obj
 0001:0000a72d       ?SetCOFreezeEvents@COPOSMotionSensor@@IAEXF@Z 1000b72d f   MotionSensorImpl.obj
 0001:0000a7cd       ?SetOposProp@COPOSMotionSensor@@IAEJJJJ@Z 1000b7cd f   MotionSensorImpl.obj
 0001:0000a8c4       ?UpdateFirmware@COPOSMotionSensor@@UAGJPA_WPAJ@Z 1000b8c4 f   MotionSensorImpl.obj
 0001:0000a91b       ?UpdateStatistics@COPOSMotionSensor@@UAGJPA_WPAJ@Z 1000b91b f   MotionSensorImpl.obj
 0001:0000a972       ?WaitForMotion@COPOSMotionSensor@@UAGJJPAJ@Z 1000b972 f   MotionSensorImpl.obj
 0001:0000a9c1       ?get_BinaryConversion@COPOSMotionSensor@@UAGJPAJ@Z 1000b9c1 f   MotionSensorImpl.obj
 0001:0000a9d7       ?get_CapCompareFirmwareVersion@COPOSMotionSensor@@UAGJPAF@Z 1000b9d7 f   MotionSensorImpl.obj
 0001:0000a9f0       ?get_CapPowerReporting@COPOSMotionSensor@@UAGJPAJ@Z 1000b9f0 f   MotionSensorImpl.obj
 0001:0000aa09       ?get_CapStatisticsReporting@COPOSMotionSensor@@UAGJPAF@Z 1000ba09 f   MotionSensorImpl.obj
 0001:0000aa22       ?get_CapUpdateFirmware@COPOSMotionSensor@@UAGJPAF@Z 1000ba22 f   MotionSensorImpl.obj
 0001:0000aa3b       ?get_CapUpdateStatistics@COPOSMotionSensor@@UAGJPAF@Z 1000ba3b f   MotionSensorImpl.obj
 0001:0000aa54       ?get_CheckHealthText@COPOSMotionSensor@@UAGJPAPA_W@Z 1000ba54 f   MotionSensorImpl.obj
 0001:0000aa6d       ?get_Claimed@COPOSMotionSensor@@UAGJPAF@Z 1000ba6d f   MotionSensorImpl.obj
 0001:0000aa83       ?get_ControlObjectDescription@COPOSMotionSensor@@UAGJPAPA_W@Z 1000ba83 f   MotionSensorImpl.obj
 0001:0000aad1       ?get_ControlObjectVersion@COPOSMotionSensor@@UAGJPAJ@Z 1000bad1 f   MotionSensorImpl.obj
 0001:0000aae4       ?get_DeviceDescription@COPOSMotionSensor@@UAGJPAPA_W@Z 1000bae4 f   MotionSensorImpl.obj
 0001:0000aafd       ?get_DeviceEnabled@COPOSMotionSensor@@UAGJPAF@Z 1000bafd f   MotionSensorImpl.obj
 0001:0000ab13       ?get_DeviceName@COPOSMotionSensor@@UAGJPAPA_W@Z 1000bb13 f   MotionSensorImpl.obj
 0001:0000ab2c       ?get_FreezeEvents@COPOSMotionSensor@@UAGJPAF@Z 1000bb2c f   MotionSensorImpl.obj
 0001:0000ab42       ?get_Motion@COPOSMotionSensor@@UAGJPAF@Z 1000bb42 f   MotionSensorImpl.obj
 0001:0000ab5b       ?get_OpenResult@COPOSMotionSensor@@UAGJPAJ@Z 1000bb5b f   MotionSensorImpl.obj
 0001:0000ab72       ?get_PowerNotify@COPOSMotionSensor@@UAGJPAJ@Z 1000bb72 f   MotionSensorImpl.obj
 0001:0000ab88       ?get_PowerState@COPOSMotionSensor@@UAGJPAJ@Z 1000bb88 f   MotionSensorImpl.obj
 0001:0000ab9e       ?get_ResultCode@COPOSMotionSensor@@UAGJPAJ@Z 1000bb9e f   MotionSensorImpl.obj
 0001:0000abdc       ?get_ResultCodeExtended@COPOSMotionSensor@@UAGJPAJ@Z 1000bbdc f   MotionSensorImpl.obj
 0001:0000abf2       ?get_ServiceObjectDescription@COPOSMotionSensor@@UAGJPAPA_W@Z 1000bbf2 f   MotionSensorImpl.obj
 0001:0000ac0b       ?get_ServiceObjectVersion@COPOSMotionSensor@@UAGJPAJ@Z 1000bc0b f   MotionSensorImpl.obj
 0001:0000ac21       ?get_State@COPOSMotionSensor@@UAGJPAJ@Z 1000bc21 f   MotionSensorImpl.obj
 0001:0000ac4d       ?get_Timeout@COPOSMotionSensor@@UAGJPAJ@Z 1000bc4d f   MotionSensorImpl.obj
 0001:0000ac66       ?put_BinaryConversion@COPOSMotionSensor@@UAGJJ@Z 1000bc66 f   MotionSensorImpl.obj
 0001:0000ac7c       ?put_DeviceEnabled@COPOSMotionSensor@@UAGJF@Z 1000bc7c f   MotionSensorImpl.obj
 0001:0000ac99       ?put_FreezeEvents@COPOSMotionSensor@@UAGJF@Z 1000bc99 f   MotionSensorImpl.obj
 0001:0000ace5       ?put_PowerNotify@COPOSMotionSensor@@UAGJJ@Z 1000bce5 f   MotionSensorImpl.obj
 0001:0000acfb       ?put_Timeout@COPOSMotionSensor@@UAGJJ@Z 1000bcfb f   MotionSensorImpl.obj
 0001:0000ad14       ?s_EventWindowProc@COPOSMotionSensor@@KGJPAUHWND__@@IIJ@Z 1000bd14 f i MotionSensorImpl.obj
 0001:0000ad66       ??_U@YAPAXI@Z              1000bd66 f   LIBCMT:new_array.obj
 0001:0000ad6f       ??3@YAXPAXI@Z              1000bd6f f   LIBCMT:delete_scalar_size.obj
 0001:0000ad7d       ??_V@YAXPAX@Z              1000bd7d f   LIBCMT:delete_array.obj
 0001:0000ad82       ??_V@YAXPAXI@Z             1000bd82 f   LIBCMT:delete_array_size.obj
 0001:0000add4       ___scrt_acquire_startup_lock 1000bdd4 f   LIBCMT:utility.obj
 0001:0000ae06       ___scrt_dllmain_after_initialize_c 1000be06 f   LIBCMT:utility.obj
 0001:0000ae31       ___scrt_dllmain_before_initialize_c 1000be31 f   LIBCMT:utility.obj
 0001:0000ae3f       ___scrt_dllmain_crt_thread_attach 1000be3f f   LIBCMT:utility.obj
 0001:0000ae5e       ___scrt_dllmain_crt_thread_detach 1000be5e f   LIBCMT:utility.obj
 0001:0000ae6b       ___scrt_dllmain_exception_filter 1000be6b f   LIBCMT:utility.obj
 0001:0000ae9f       ___scrt_dllmain_uninitialize_c 1000be9f f   LIBCMT:utility.obj
 0001:0000aec2       ___scrt_dllmain_uninitialize_critical 1000bec2 f   LIBCMT:utility.obj
 0001:0000aecf       ___scrt_initialize_crt     1000becf f   LIBCMT:utility.obj
 0001:0000af08       ___scrt_initialize_onexit_tables 1000bf08 f   LIBCMT:utility.obj
 0001:0000af8f       ___scrt_is_nonwritable_in_current_image 1000bf8f f   LIBCMT:utility.obj
 0001:0000b023       ___scrt_release_startup_lock 1000c023 f   LIBCMT:utility.obj
 0001:0000b040       ___scrt_uninitialize_crt   1000c040 f   LIBCMT:utility.obj
 0001:0000b068       __onexit                   1000c068 f   LIBCMT:utility.obj
 0001:0000b095       _atexit                    1000c095 f   LIBCMT:utility.obj
 0001:0000b0aa       ??3@YAXPAX@Z               1000c0aa f   LIBCMT:delete_scalar.obj
 0001:0000b174       __Init_thread_footer       1000c174 f   LIBCMT:thread_safe_statics.obj
 0001:0000b1be       __Init_thread_header       1000c1be f   LIBCMT:thread_safe_statics.obj
 0001:0000b210       __Init_thread_notify       1000c210 f   LIBCMT:thread_safe_statics.obj
 0001:0000b246       __Init_thread_wait         1000c246 f   LIBCMT:thread_safe_statics.obj
 0001:0000b294       ___raise_securityfailure   1000c294 f   LIBCMT:gs_report.obj
 0001:0000b2bc       ___report_gsfailure        1000c2bc f   LIBCMT:gs_report.obj
 0001:0000b3b5       ___report_rangecheckfailure 1000c3b5 f   LIBCMT:gs_report.obj
 0001:0000b3c1       ___report_securityfailure  1000c3c1 f   LIBCMT:gs_report.obj
 0001:0000b48f       ??2@YAPAXIABUnothrow_t@std@@@Z 1000c48f f   LIBCMT:new_scalar_nothrow.obj
 0001:0000b4df       ??_U@YAPAXIABUnothrow_t@std@@@Z 1000c4df f   LIBCMT:new_array_nothrow.obj
 0001:0000b4e8       @__security_check_cookie@4 1000c4e8 f   LIBCMT:secchk.obj
 0001:0000b500       __SEH_prolog4_GS           1000c500 f   LIBCMT:sehprolg4gs.obj
 0001:0000b549       __SEH_epilog4_GS           1000c549 f   LIBCMT:sehprolg4gs.obj
 0001:0000b560       __alloca_probe_16          1000c560 f   LIBCMT:alloca16.obj
 0001:0000b576       __alloca_probe_8           1000c576     LIBCMT:alloca16.obj
 0001:0000b590       __alloca_probe             1000c590 f   LIBCMT:chkstk.obj
 0001:0000b590       __chkstk                   1000c590 f   LIBCMT:chkstk.obj
 0001:0000b8f8       __DllMainCRTStartup@12     1000c8f8 f   LIBCMT:dll_dllmain.obj
 0001:0000b91b       ??2@YAPAXI@Z               1000c91b f   LIBCMT:new_scalar.obj
 0001:0000b94b       ___isa_available_init      1000c94b f   LIBCMT:cpu_disp.obj
 0001:0000bb1b       ___scrt_is_ucrt_dll_in_use 1000cb1b f   LIBCMT:ucrt_detection.obj
 0001:0000bb27       ___scrt_fastfail           1000cb27 f   LIBCMT:utility_desktop.obj
 0001:0000bc41       __crt_debugger_hook        1000cc41 f   LIBCMT:utility_desktop.obj
 0001:0000bc50       __SEH_prolog4              1000cc50 f   LIBCMT:sehprolg4.obj
 0001:0000bc96       __SEH_epilog4              1000cc96 f   LIBCMT:sehprolg4.obj
 0001:0000bcab       @_guard_check_icall_nop@4  1000ccab f i LIBCMT:guard_support.obj
 0001:0000bcf9       ___security_init_cookie    1000ccf9 f   LIBCMT:gs_support.obj
 0001:0000bd44       ?__scrt_initialize_type_info@@YAXXZ 1000cd44 f   LIBCMT:tncleanup.obj
 0001:0000bd50       ?__scrt_uninitialize_type_info@@YAXXZ 1000cd50 f   LIBCMT:tncleanup.obj
 0001:0000bd5c       ___local_stdio_scanf_options 1000cd5c f i LIBCMT:default_local_stdio_options.obj
 0001:0000bd62       ___scrt_initialize_default_local_stdio_options 1000cd62 f   LIBCMT:default_local_stdio_options.obj
 0001:0000bd7f       ___scrt_get_dyn_tls_init_callback 1000cd7f f   LIBCMT:dyn_tls_init.obj
 0001:0000bd85       __RTC_Initialize           1000cd85 f   LIBCMT:initsect.obj
 0001:0000bdb1       __RTC_Terminate            1000cdb1 f   LIBCMT:initsect.obj
 0001:0000bddd       ??0bad_alloc@std@@QAE@ABV01@@Z 1000cddd f i LIBCMT:throw_bad_alloc.obj
 0001:0000bdf8       ??0bad_alloc@std@@QAE@XZ   1000cdf8 f i LIBCMT:throw_bad_alloc.obj
 0001:0000be10       ??0bad_array_new_length@std@@QAE@ABV01@@Z 1000ce10 f i LIBCMT:throw_bad_alloc.obj
 0001:0000be2b       ??0bad_array_new_length@std@@QAE@XZ 1000ce2b f i LIBCMT:throw_bad_alloc.obj
 0001:0000be43       ??0exception@std@@QAE@ABV01@@Z 1000ce43 f i LIBCMT:throw_bad_alloc.obj
 0001:0000be6f       ??1bad_alloc@std@@UAE@XZ   1000ce6f f i LIBCMT:throw_bad_alloc.obj
 0001:0000be6f       ??1bad_array_new_length@std@@UAE@XZ 1000ce6f f i LIBCMT:throw_bad_alloc.obj
 0001:0000be6f       ??1bad_exception@std@@UAE@XZ 1000ce6f f i libvcruntime:frame.obj
 0001:0000be80       ??_Eexception@std@@UAEPAXI@Z 1000ce80 f i LIBCMT:throw_bad_alloc.obj
 0001:0000be80       ??_Gbad_exception@std@@UAEPAXI@Z 1000ce80 f i libvcruntime:frame.obj
 0001:0000be80       ??_Ebad_exception@std@@UAEPAXI@Z 1000ce80 f i libvcruntime:frame.obj
 0001:0000be80       ??_Gexception@std@@UAEPAXI@Z 1000ce80 f i LIBCMT:throw_bad_alloc.obj
 0001:0000be80       ??_Gbad_array_new_length@std@@UAEPAXI@Z 1000ce80 f i LIBCMT:throw_bad_alloc.obj
 0001:0000be80       ??_Gbad_alloc@std@@UAEPAXI@Z 1000ce80 f i LIBCMT:throw_bad_alloc.obj
 0001:0000be80       ??_Ebad_array_new_length@std@@UAEPAXI@Z 1000ce80 f i LIBCMT:throw_bad_alloc.obj
 0001:0000be80       ??_Ebad_alloc@std@@UAEPAXI@Z 1000ce80 f i LIBCMT:throw_bad_alloc.obj
 0001:0000bead       ?__scrt_throw_std_bad_alloc@@YAXXZ 1000cead f   LIBCMT:throw_bad_alloc.obj
 0001:0000beca       ?__scrt_throw_std_bad_array_new_length@@YAXXZ 1000ceca f   LIBCMT:throw_bad_alloc.obj
 0001:0000bee7       ?what@exception@std@@UBEPBDXZ 1000cee7 f i LIBCMT:throw_bad_alloc.obj
 0001:0000bef4       ??_Gtype_info@@UAEPAXI@Z   1000cef4 f i LIBCMT:std_type_info_static.obj
 0001:0000bef4       ??_Etype_info@@UAEPAXI@Z   1000cef4 f i LIBCMT:std_type_info_static.obj
 0001:0000bf17       ??0CAtlBaseModule@ATL@@QAE@XZ 1000cf17 f   atls:atlbase.obj
 0001:0000bf6a       ??0_ATL_BASE_MODULE70@ATL@@QAE@XZ 1000cf6a f i atls:atlbase.obj
 0001:0000bf8d       ??1CAtlBaseModule@ATL@@QAE@XZ 1000cf8d f   atls:atlbase.obj
 0001:0000c07a       ?Init@_stdcallthunk@ATL@@QAEHKPAX@Z 1000d07a f i atls:atlthunk.obj
 0001:0000c0af       ?__AllocStdCallThunk_cmn@@YAPAXXZ 1000d0af f   atls:atlthunk.obj
 0001:0000c175       ?__FreeStdCallThunk_cmn@@YAXPAX@Z 1000d175 f   atls:atlthunk.obj
 0001:0000c210       _AtlThunk_AllocateData@0   1000d210 f   atls:atlthunk.obj
 0001:0000c275       _AtlThunk_DataToCode@4     1000d275 f   atls:atlthunk.obj
 0001:0000c2bc       _AtlThunk_FreeData@4       1000d2bc f   atls:atlthunk.obj
 0001:0000c312       _AtlThunk_InitData@12      1000d312 f   atls:atlthunk.obj
 0001:0000c361       __get_purecall_handler     1000d361 f   libvcruntime:purevirt.obj
 0001:0000c367       __purecall                 1000d367 f   libvcruntime:purevirt.obj
 0001:0000c383       _wcsstr                    1000d383 f   libvcruntime:wcsstr.obj
 0001:0000c640       __except_handler4          1000d640 f   libvcruntime:chandler4.obj
 0001:0000c79e       _memcmp                    1000d79e f   libvcruntime:memcmp.obj
 0001:0000d750       _memcpy                    1000e750 f   libvcruntime:memcpy.obj
 0001:0000dcd0       _memset                    1000ecd0 f   libvcruntime:memset.obj
 0001:0000de2a       ___vcrt_initialize         1000ee2a f   libvcruntime:initialization.obj
 0001:0000de49       ___vcrt_thread_attach      1000ee49 f   libvcruntime:initialization.obj
 0001:0000de54       ___vcrt_thread_detach      1000ee54 f   libvcruntime:initialization.obj
 0001:0000de5f       ___vcrt_uninitialize       1000ee5f f   libvcruntime:initialization.obj
 0001:0000de76       ___vcrt_uninitialize_critical 1000ee76 f   libvcruntime:initialization.obj
 0001:0000de7e       ?GetRangeOfTrysToCheck@__FrameHandler3@@SA?AU?$pair@Viterator@TryBlockMap@__FrameHandler3@@V123@@std@@AAVTryBlockMap@1@HPAXPBU_s_FuncInfo@@H@Z 1000ee7e f   libvcruntime:trnsctrl.obj
 0001:0000deee       ?_CallCatchBlock2@@YAPAXPAUEHRegistrationNode@@PBU_s_FuncInfo@@PAXHK@Z 1000eeee f   libvcruntime:trnsctrl.obj
 0001:0000df4c       ?_CallSETranslator@@YAHPAUEHExceptionRecord@@PAUEHRegistrationNode@@PAX2PBU_s_FuncInfo@@H1@Z 1000ef4c f   libvcruntime:trnsctrl.obj
 0001:0000e032       ?_JumpToContinuation@@YGXPAXPAUEHRegistrationNode@@@Z 1000f032 f   libvcruntime:trnsctrl.obj
 0001:0000e062       ?_UnwindNestedFrames@@YGXPAUEHRegistrationNode@@PAUEHExceptionRecord@@@Z 1000f062 f   libvcruntime:trnsctrl.obj
 0001:0000e0b5       __CatchGuardHandler        1000f0b5 f   libvcruntime:trnsctrl.obj
 0001:0000e0e6       __CreateFrameInfo          1000f0e6 f   libvcruntime:trnsctrl.obj
 0001:0000e10a       __FindAndUnlinkFrame       1000f10a f   libvcruntime:trnsctrl.obj
 0001:0000e152       __TranslatorGuardHandler   1000f152 f   libvcruntime:trnsctrl.obj
 0001:0000e1ef       ___CxxFrameHandler3        1000f1ef f   libvcruntime:trnsctrl.obj
 0001:0000e225       ___DestructExceptionObject 1000f225 f   libvcruntime:ehhelpers.obj
 0001:0000e2c6       ?_CallMemberFunction0@@YGXQAX0@Z 1000f2c6 f i libvcruntime:ehhelpers.obj
 0001:0000e32b       __IsExceptionObjectToBeDestroyed 1000f32b f   libvcruntime:ehhelpers.obj
 0001:0000e351       ___AdjustPointer           1000f351 f   libvcruntime:ehhelpers.obj
 0001:0000e376       ___FrameUnwindFilter       1000f376 f   libvcruntime:ehhelpers.obj
 0001:0000e3cc       ___std_type_info_compare   1000f3cc f   libvcruntime:std_type_info.obj
 0001:0000e408       ___std_type_info_destroy_list 1000f408 f   libvcruntime:std_type_info.obj
 0001:0000e42b       ___std_exception_copy      1000f42b f   libvcruntime:std_exception.obj
 0001:0000e48e       ___std_exception_destroy   1000f48e f   libvcruntime:std_exception.obj
 0001:0000e4ad       __CxxThrowException@8      1000f4ad f   libvcruntime:throw.obj
 0001:0000e520       _memmove                   1000f520 f   libvcruntime:memmove.obj
 0001:0000eaa0       __local_unwind4            1000faa0 f   libvcruntime:exsup4.obj
 0001:0000eb78       __seh_longjmp_unwind4@4    1000fb78 f   libvcruntime:exsup4.obj
 0001:0000eba0       @_EH4_CallFilterFunc@8     1000fba0 f   libvcruntime:exsup4.obj
 0001:0000ebb8       @_EH4_TransferToHandler@8  1000fbb8 f   libvcruntime:exsup4.obj
 0001:0000ebd4       @_EH4_GlobalUnwind2@8      1000fbd4 f   libvcruntime:exsup4.obj
 0001:0000ebf0       @_EH4_LocalUnwind@16       1000fbf0 f   libvcruntime:exsup4.obj
 0001:0000ec07       ___except_validate_context_record 1000fc07 f   libvcruntime:jbcxrval.obj
 0001:0000ec37       ___except_validate_jump_buffer 1000fc37 f   libvcruntime:jbcxrval.obj
 0001:0000ec64       ___vcrt_freefls@4          1000fc64 f   libvcruntime:per_thread_data.obj
 0001:0000ec80       ___vcrt_freeptd            1000fc80 f   libvcruntime:per_thread_data.obj
 0001:0000ecb6       ___vcrt_getptd             1000fcb6 f   libvcruntime:per_thread_data.obj
 0001:0000ecc4       ___vcrt_getptd_noexit      1000fcc4 f   libvcruntime:per_thread_data.obj
 0001:0000ed56       ___vcrt_initialize_ptd     1000fd56 f   libvcruntime:per_thread_data.obj
 0001:0000ed89       ___vcrt_uninitialize_ptd   1000fd89 f   libvcruntime:per_thread_data.obj
 0001:0000eda4       ___vcrt_initialize_locks   1000fda4 f   libvcruntime:locks.obj
 0001:0000ede0       ___vcrt_uninitialize_locks 1000fde0 f   libvcruntime:locks.obj
 0001:0000f552       ??$TypeMatchHelper@V__FrameHandler3@@@@YAHPBU_s_HandlerType@@PBU_s_CatchableType@@PBU_s_ThrowInfo@@@Z 10010552 f i libvcruntime:frame.obj
 0001:0000f5e0       ??$__InternalCxxFrameHandler@V__FrameHandler3@@@@YA?AW4_EXCEPTION_DISPOSITION@@PAUEHExceptionRecord@@PAUEHRegistrationNode@@PAU_CONTEXT@@PAXPBU_s_FuncInfo@@H1E@Z 100105e0 f i libvcruntime:frame.obj
 0001:0000f6e2       ??0bad_exception@std@@QAE@ABV01@@Z 100106e2 f i libvcruntime:frame.obj
 0001:0000f6fd       ??0bad_exception@std@@QAE@XZ 100106fd f i libvcruntime:frame.obj
 0001:0000f715       ??8type_info@@QBE_NABV0@@Z 10010715 f i libvcruntime:frame.obj
 0001:0000f97c       ?FrameUnwindToEmptyState@__FrameHandler3@@SAXPAUEHRegistrationNode@@PAXPBU_s_FuncInfo@@@Z 1001097c f   libvcruntime:frame.obj
 0001:0000f994       ?FrameUnwindToState@__FrameHandler3@@SAXPAUEHRegistrationNode@@PAXPBU_s_FuncInfo@@H@Z 10010994 f   libvcruntime:frame.obj
 0001:0000fb16       ?_CallMemberFunction1@@YGXQAX00@Z 10010b16 f i libvcruntime:frame.obj
 0001:0000fb26       ?_CallMemberFunction2@@YGXQAX00H@Z 10010b26 f i libvcruntime:frame.obj
 0001:0000fb39       ?getESTypes@__FrameHandler3@@SAPBU_s_ESTypeList@@PBU_s_FuncInfo@@@Z 10010b39 f i libvcruntime:frame.obj
 0001:0000fb50       __CallSettingFrame@12      10010b50 f   libvcruntime:lowhelpr.obj
 0001:0000fb77       __NLG_Return               10010b77     libvcruntime:lowhelpr.obj
 0001:0000fba0       __global_unwind2           10010ba0 f   libvcruntime:exsup.obj
 0001:0000fc06       __local_unwind2            10010c06 f   libvcruntime:exsup.obj
 0001:0000fc8a       __abnormal_termination     10010c8a f   libvcruntime:exsup.obj
 0001:0000fcb0       __NLG_Notify1              10010cb0 f   libvcruntime:exsup.obj
 0001:0000fcbc       __NLG_Notify               10010cbc f   libvcruntime:exsup.obj
 0001:0000fcd3       __NLG_Dispatch2            10010cd3     libvcruntime:exsup.obj
 0001:0000fcd3       __NLG_Dispatch             10010cd3     libvcruntime:exsup.obj
 0001:0000fcdb       __NLG_Call                 10010cdb f   libvcruntime:exsup.obj
 0001:0000fcdd       __NLG_Return2              10010cdd     libvcruntime:exsup.obj
 0001:0000fdd3       ___vcrt_FlsAlloc           10010dd3 f   libvcruntime:winapi_downlevel.obj
 0001:0000fe0e       ___vcrt_FlsFree            10010e0e f   libvcruntime:winapi_downlevel.obj
 0001:0000fe49       ___vcrt_FlsGetValue        10010e49 f   libvcruntime:winapi_downlevel.obj
 0001:0000fe84       ___vcrt_FlsSetValue        10010e84 f   libvcruntime:winapi_downlevel.obj
 0001:0000fec2       ___vcrt_InitializeCriticalSectionEx 10010ec2 f   libvcruntime:winapi_downlevel.obj
 0001:0000ff09       _unexpected                10010f09 f   libvcruntime:unexpected.obj
 0001:0000ff26       ?GetCurrentState@__FrameHandler3@@SAHPAUEHRegistrationNode@@PAXPBU_s_FuncInfo@@@Z 10010f26 f   libvcruntime:ehstate.obj
 0001:0000ff43       ?SetState@__FrameHandler3@@SAXPAUEHRegistrationNode@@PBU_s_FuncInfo@@H@Z 10010f43 f   libvcruntime:ehstate.obj
 0001:0000ff51       _free                      10010f51 f   libucrt:free.obj
 0001:0000ff6c       ___acrt_call_reportfault   10010f6c f   libucrt:invalid_parameter.obj
 0001:000100a5       ___acrt_initialize_invalid_parameter_handler 100110a5 f   libucrt:invalid_parameter.obj
 0001:000100b4       __invalid_parameter        100110b4 f   libucrt:invalid_parameter.obj
 0001:00010118       __invalid_parameter_noinfo 10011118 f   libucrt:invalid_parameter.obj
 0001:00010128       __invoke_watson            10011128 f   libucrt:invalid_parameter.obj
 0001:0001015c       ___acrt_errno_from_os_error 1001115c f   libucrt:errno.obj
 0001:0001019f       ___acrt_errno_map_os_error 1001119f f   libucrt:errno.obj
 0001:000101c2       ___doserrno                100111c2 f   libucrt:errno.obj
 0001:000101d5       __errno                    100111d5 f   libucrt:errno.obj
 0001:000101e8       _calloc                    100111e8 f   libucrt:calloc.obj
 0001:000101f3       _malloc                    100111f3 f   libucrt:malloc.obj
 0001:000101fe       __recalloc                 100111fe f   libucrt:recalloc.obj
 0001:00010209       __recalloc_base            10011209 f   libucrt:recalloc.obj
 0001:00010276       __resetstkoflw             10011276 f   libucrt:resetstk.obj
 0001:0001033b       _wcscat_s                  1001133b f   libucrt:wcscat_s.obj
 0001:000103b0       _wcscpy_s                  100113b0 f   libucrt:wcscpy_s.obj
 0001:000104df       _wcsncpy_s                 100114df f   libucrt:wcsncpy_s.obj
 0001:000106eb       ??$count@D@formatting_buffer@__crt_stdio_output@@QBEIXZ 100116eb f i libucrt:output.obj
 0001:00010703       ??$count@_W@formatting_buffer@__crt_stdio_output@@QBEIXZ 10011703 f i libucrt:output.obj
 0001:0001071c       ??$ensure_buffer_is_big_enough@D@formatting_buffer@__crt_stdio_output@@QAE_NI@Z 1001171c f i libucrt:output.obj
 0001:00010799       ??$ensure_buffer_is_big_enough@_W@formatting_buffer@__crt_stdio_output@@QAE_NI@Z 10011799 f i libucrt:output.obj
 0001:00010817       ??$is_wide_character_specifier@_W@__crt_stdio_output@@YA_N_K_WW4length_modifier@0@@Z 10011817 f i libucrt:output.obj
 0001:00010865       ??$scratch_data@D@formatting_buffer@__crt_stdio_output@@QAEPADXZ 10011865 f i libucrt:output.obj
 0001:00010883       ??$type_case_integer_parse_into_buffer@I@?$output_processor@_WV?$string_output_adapter@_W@__crt_stdio_output@@V?$format_validation_base@_WV?$string_output_adapter@_W@__crt_stdio_output@@@2@@__crt_stdio_output@@AAEXII_N@Z 10011883 f i libucrt:output.obj
 0001:0001090a       ??$type_case_integer_parse_into_buffer@_K@?$output_processor@_WV?$string_output_adapter@_W@__crt_stdio_output@@V?$format_validation_base@_WV?$string_output_adapter@_W@__crt_stdio_output@@@2@@__crt_stdio_output@@AAEX_KI_N@Z 1001190a f i libucrt:output.obj
 0001:000109ac       ??$write_multiple_characters@V?$string_output_adapter@_W@__crt_stdio_output@@D@__crt_stdio_output@@YAXABV?$string_output_adapter@_W@0@DHQAH@Z 100119ac f i libucrt:output.obj
 0001:000109dd       ??0?$common_data@_W@__crt_stdio_output@@IAE@XZ 100119dd f i libucrt:output.obj
 0001:00010a27       ??0?$output_adapter_data@_WV?$string_output_adapter@_W@__crt_stdio_output@@@__crt_stdio_output@@IAE@ABV?$string_output_adapter@_W@1@_KQB_WQAU__crt_locale_pointers@@QAD@Z 10011a27 f i libucrt:output.obj
 0001:00010a63       ??0_LocaleUpdate@@QAE@QAU__crt_locale_pointers@@@Z 10011a63 f i libucrt:output.obj
 0001:00010ae6       ??1formatting_buffer@__crt_stdio_output@@QAE@XZ 10011ae6 f i libucrt:output.obj
 0001:00010b00       ??4?$__crt_unique_heap_ptr@DU__crt_internal_free_policy@@@@QAEAAV0@$$QAV0@@Z 10011b00 f i libucrt:output.obj
 0001:00010b24       ?crop_zeroes@__crt_stdio_output@@YAXPADQAU__crt_locale_pointers@@@Z 10011b24 f i libucrt:output.obj
 0001:00010b84       ?find_next_state@?$output_processor@_WV?$string_output_adapter@_W@__crt_stdio_output@@V?$format_validation_base@_WV?$string_output_adapter@_W@__crt_stdio_output@@@2@@__crt_stdio_output@@ABE?AW4state@2@_WW432@@Z 10011b84 f i libucrt:output.obj
 0001:00010bc6       ?force_decimal_point@__crt_stdio_output@@YAXPADQAU__crt_locale_pointers@@@Z 10011bc6 f i libucrt:output.obj
 0001:00010c22       ?parse_int_from_format_string@?$output_processor@_WV?$string_output_adapter@_W@__crt_stdio_output@@V?$format_validation_base@_WV?$string_output_adapter@_W@__crt_stdio_output@@@2@@__crt_stdio_output@@AAE_NQAH@Z 10011c22 f i libucrt:output.obj
 0001:00010c98       ?process@?$output_processor@_WV?$string_output_adapter@_W@__crt_stdio_output@@V?$format_validation_base@_WV?$string_output_adapter@_W@__crt_stdio_output@@@2@@__crt_stdio_output@@QAEHXZ 10011c98 f i libucrt:output.obj
 0001:00010dc0       ?state_case_flag@?$output_processor@_WV?$string_output_adapter@_W@__crt_stdio_output@@V?$format_validation_base@_WV?$string_output_adapter@_W@__crt_stdio_output@@@2@@__crt_stdio_output@@AAE_NXZ 10011dc0 f i libucrt:output.obj
 0001:00010dfd       ?state_case_normal@?$output_processor@_WV?$string_output_adapter@_W@__crt_stdio_output@@V?$format_validation_base@_WV?$string_output_adapter@_W@__crt_stdio_output@@@2@@__crt_stdio_output@@AAE_NXZ 10011dfd f i libucrt:output.obj
 0001:00010e1c       ?state_case_normal_common@?$output_processor@_WV?$string_output_adapter@_W@__crt_stdio_output@@V?$format_validation_base@_WV?$string_output_adapter@_W@__crt_stdio_output@@@2@@__crt_stdio_output@@AAE_NXZ 10011e1c f i libucrt:output.obj
 0001:00010e37       ?state_case_precision@?$output_processor@_WV?$string_output_adapter@_W@__crt_stdio_output@@V?$format_validation_base@_WV?$string_output_adapter@_W@__crt_stdio_output@@@2@@__crt_stdio_output@@AAE_NXZ 10011e37 f i libucrt:output.obj
 0001:00010e5e       ?state_case_size@?$output_processor@_WV?$string_output_adapter@_W@__crt_stdio_output@@V?$format_validation_base@_WV?$string_output_adapter@_W@__crt_stdio_output@@@2@@__crt_stdio_output@@AAE_NXZ 10011e5e f i libucrt:output.obj
 0001:00010fd6       ?state_case_type@?$output_processor@_WV?$string_output_adapter@_W@__crt_stdio_output@@V?$format_validation_base@_WV?$string_output_adapter@_W@__crt_stdio_output@@@2@@__crt_stdio_output@@AAE_NXZ 10011fd6 f i libucrt:output.obj
 0001:0001123b       ?state_case_width@?$output_processor@_WV?$string_output_adapter@_W@__crt_stdio_output@@V?$format_validation_base@_WV?$string_output_adapter@_W@__crt_stdio_output@@@2@@__crt_stdio_output@@AAE_NXZ 1001223b f i libucrt:output.obj
 0001:00011267       ?to_integer_size@__crt_stdio_output@@YAIW4length_modifier@1@@Z 10012267 f i libucrt:output.obj
 0001:000112bb       ?type_case_Z@?$output_processor@_WV?$string_output_adapter@_W@__crt_stdio_output@@V?$format_validation_base@_WV?$string_output_adapter@_W@__crt_stdio_output@@@2@@__crt_stdio_output@@AAE_NXZ 100122bb f i libucrt:output.obj
 0001:00011315       ?type_case_a@?$output_processor@_WV?$string_output_adapter@_W@__crt_stdio_output@@V?$format_validation_base@_WV?$string_output_adapter@_W@__crt_stdio_output@@@2@@__crt_stdio_output@@AAE_NXZ 10012315 f i libucrt:output.obj
 0001:0001147a       ?type_case_c_tchar@?$output_processor@_WV?$string_output_adapter@_W@__crt_stdio_output@@V?$format_validation_base@_WV?$string_output_adapter@_W@__crt_stdio_output@@@2@@__crt_stdio_output@@AAE_N_W@Z 1001247a f i libucrt:output.obj
 0001:00011510       ?type_case_integer@?$output_processor@_WV?$string_output_adapter@_W@__crt_stdio_output@@V?$format_validation_base@_WV?$string_output_adapter@_W@__crt_stdio_output@@@2@@__crt_stdio_output@@AAE_NI_N@Z 10012510 f i libucrt:output.obj
 0001:00011665       ?type_case_n@?$output_processor@_WV?$string_output_adapter@_W@__crt_stdio_output@@V?$format_validation_base@_WV?$string_output_adapter@_W@__crt_stdio_output@@@2@@__crt_stdio_output@@AAE_NXZ 10012665 f i libucrt:output.obj
 0001:000116d9       ?type_case_o@?$output_processor@_WV?$string_output_adapter@_W@__crt_stdio_output@@V?$format_validation_base@_WV?$string_output_adapter@_W@__crt_stdio_output@@@2@@__crt_stdio_output@@AAE_NXZ 100126d9 f i libucrt:output.obj
 0001:000116f8       ?type_case_p@?$output_processor@_WV?$string_output_adapter@_W@__crt_stdio_output@@V?$format_validation_base@_WV?$string_output_adapter@_W@__crt_stdio_output@@@2@@__crt_stdio_output@@AAE_NXZ 100126f8 f i libucrt:output.obj
 0001:00011710       ?type_case_s@?$output_processor@_WV?$string_output_adapter@_W@__crt_stdio_output@@V?$format_validation_base@_WV?$string_output_adapter@_W@__crt_stdio_output@@@2@@__crt_stdio_output@@AAE_NXZ 10012710 f i libucrt:output.obj
 0001:00011783       ?type_case_s_compute_narrow_string_length@?$output_processor@_WV?$string_output_adapter@_W@__crt_stdio_output@@V?$format_validation_base@_WV?$string_output_adapter@_W@__crt_stdio_output@@@2@@__crt_stdio_output@@ABEHH_W@Z 10012783 f i libucrt:output.obj
 0001:000117ca       ?validate@?$string_output_adapter@_W@__crt_stdio_output@@QBE_NXZ 100127ca f i libucrt:output.obj
 0001:000117ca       ?validate@?$c_string_character_source@_W@__crt_strtox@@QBE_NXZ 100127ca f i libucrt:atox.obj
 0001:000117e5       ?validate_and_update_state_at_end_of_format_string@?$format_validation_base@_WV?$string_output_adapter@_W@__crt_stdio_output@@@__crt_stdio_output@@IBE_NXZ 100127e5 f i libucrt:output.obj
 0001:00011807       ?write_character@?$string_output_adapter@_W@__crt_stdio_output@@QBE_N_WQAH@Z 10012807 f i libucrt:output.obj
 0001:0001184c       ?write_stored_string_tchar@?$output_processor@_WV?$string_output_adapter@_W@__crt_stdio_output@@V?$format_validation_base@_WV?$string_output_adapter@_W@__crt_stdio_output@@@2@@__crt_stdio_output@@AAE_N_W@Z 1001284c f i libucrt:output.obj
 0001:000118df       ?write_string@?$string_output_adapter@_W@__crt_stdio_output@@QBEXQB_WHQAHAAV__crt_deferred_errno_cache@@@Z 100128df f i libucrt:output.obj
 0001:00011950       ___acrt_locale_get_ctype_array_value 10012950 f i libucrt:output.obj
 0001:00011972       ___stdio_common_vswprintf_s 10012972 f   libucrt:output.obj
 0001:00011996       __seh_filter_dll           10012996 f   libucrt:exception_filter.obj
 0001:000119b6       __seh_filter_exe           100129b6 f   libucrt:exception_filter.obj
 0001:00011d84       ___acrt_initialize_thread_local_exit_callback 10012d84 f   libucrt:exit.obj
 0001:00011d93       __cexit                    10012d93 f   libucrt:exit.obj
 0001:00011da2       __exit                     10012da2 f   libucrt:exit.obj
 0001:00011db8       __is_c_termination_complete 10012db8 f   libucrt:exit.obj
 0001:0001206c       ___acrt_allocate_buffer_for_argv 1001306c f   libucrt:argv_parsing.obj
 0001:000120bb       __configure_narrow_argv    100130bb f   libucrt:argv_parsing.obj
 0001:00012218       ??$uninitialize@A6AXAAPAPA_W@Z@?$dual_state_global@PAPA_W@__crt_state_management@@QAEXA6AXAAPAPA_W@Z@Z 10013218 f i libucrt:environment_initialization.obj
 0001:00012218       ??$uninitialize@A6AXAAPAPAD@Z@?$dual_state_global@PAPAD@__crt_state_management@@QAEXA6AXAAPAPAD@Z@Z 10013218 f i libucrt:environment_initialization.obj
 0001:00012277       ___dcrt_uninitialize_environments_nolock 10013277 f   libucrt:environment_initialization.obj
 0001:000122ae       __initialize_narrow_environment 100132ae f   libucrt:environment_initialization.obj
 0001:00012369       ??$__crt_fast_encode_pointer@PAX@@YAPAXQAX@Z 10013369 f i libucrt:initialization.obj
 0001:00012369       ??$__crt_fast_encode_pointer@P6AHXZ@@YAP6AHXZQ6AHXZ@Z 10013369 f i libucrt:onexit.obj
 0001:00012369       ??$__crt_fast_encode_pointer@PAP6AXXZ@@YAPAP6AXXZQAP6AXXZ@Z 10013369 f i libucrt:onexit.obj
 0001:0001258b       __crt_atexit               1001358b f   libucrt:onexit.obj
 0001:000125a1       __execute_onexit_table     100135a1 f   libucrt:onexit.obj
 0001:000125ce       __initialize_onexit_table  100135ce f   libucrt:onexit.obj
 0001:000125f7       __register_onexit_function 100135f7 f   libucrt:onexit.obj
 0001:0001262a       ___acrt_uninitialize_command_line 1001362a f   libucrt:argv_data.obj
 0001:00012728       ___acrt_initialize         10013728 f   libucrt:initialization.obj
 0001:0001273a       ___acrt_thread_attach      1001373a f   libucrt:initialization.obj
 0001:00012745       ___acrt_thread_detach      10013745 f   libucrt:initialization.obj
 0001:0001274d       ___acrt_uninitialize       1001374d f   libucrt:initialization.obj
 0001:0001277d       ___acrt_uninitialize_critical 1001377d f   libucrt:initialization.obj
 0001:0001278f       __initterm                 1001378f f   libucrt:initterm.obj
 0001:000127d4       __initterm_e               100137d4 f   libucrt:initterm.obj
 0001:00012802       ___acrt_initialize_new_handler 10013802 f   libucrt:new_handler.obj
 0001:00012811       __callnewh                 10013811 f   libucrt:new_handler.obj
 0001:0001283e       __query_new_handler        1001383e f   libucrt:new_handler.obj
 0001:0001289a       _terminate                 1001389a f   libucrt:terminate.obj
 0001:000128d6       _abort                     100138d6 f   libucrt:abort.obj
 0001:0001291a       _strcpy_s                  1001391a f   libucrt:strcpy_s.obj
 0001:00012974       ??$is_overflow_condition@K@__crt_strtox@@YA_NIK@Z 10013974 f i libucrt:atox.obj
 0001:000129a5       ??$parse_integer@KV?$c_string_character_source@_W@__crt_strtox@@@__crt_strtox@@YAKQAU__crt_locale_pointers@@V?$c_string_character_source@_W@0@H_N@Z 100139a5 f i libucrt:atox.obj
 0001:00012fad       ?unget@?$c_string_character_source@_W@__crt_strtox@@QAEX_W@Z 10013fad f i libucrt:atox.obj
 0001:00012fe0       _strncmp                   10013fe0 f   libucrt:strncmp.obj
 0001:00013058       _wcsncmp                   10014058 f   libucrt:wcsncmp.obj
 0001:00013092       __free_base                10014092 f   libucrt:free_base.obj
 0001:0001340a       ___acrt_freeptd            1001440a f   libucrt:per_thread_data.obj
 0001:00013436       ___acrt_getptd             10014436 f   libucrt:per_thread_data.obj
 0001:000134f3       ___acrt_getptd_head        100144f3 f   libucrt:per_thread_data.obj
 0001:0001358d       ___acrt_getptd_noexit      1001458d f   libucrt:per_thread_data.obj
 0001:00013642       ___acrt_initialize_ptd     10014642 f   libucrt:per_thread_data.obj
 0001:0001366e       ___acrt_uninitialize_ptd   1001466e f   libucrt:per_thread_data.obj
 0001:00013688       __calloc_base              10014688 f   libucrt:calloc_base.obj
 0001:000136e5       __malloc_base              100146e5 f   libucrt:malloc_base.obj
 0001:00013733       __msize_base               10014733 f   libucrt:msize.obj
 0001:00013766       __realloc_base             10014766 f   libucrt:realloc_base.obj
 0001:00013967       ___acrt_AppPolicyGetProcessTerminationMethodInternal@4 10014967 f   libucrt:winapi_thunks.obj
 0001:000139a7       ___acrt_AreFileApisANSI@0  100149a7 f   libucrt:winapi_thunks.obj
 0001:000139c6       ___acrt_FlsAlloc@4         100149c6 f   libucrt:winapi_thunks.obj
 0001:00013a05       ___acrt_FlsFree@4          10014a05 f   libucrt:winapi_thunks.obj
 0001:00013a44       ___acrt_FlsGetValue@4      10014a44 f   libucrt:winapi_thunks.obj
 0001:00013a83       ___acrt_FlsSetValue@8      10014a83 f   libucrt:winapi_thunks.obj
 0001:00013ac5       ___acrt_InitializeCriticalSectionEx@12 10014ac5 f   libucrt:winapi_thunks.obj
 0001:00013b10       ___acrt_LCMapStringEx@36   10014b10 f   libucrt:winapi_thunks.obj
 0001:00013b6d       ___acrt_LocaleNameToLCID@8 10014b6d f   libucrt:winapi_thunks.obj
 0001:00013b9e       ___acrt_SetThreadStackGuarantee@4 10014b9e f   libucrt:winapi_thunks.obj
 0001:00013bd9       ___acrt_initialize_winapi_thunks 10014bd9 f   libucrt:winapi_thunks.obj
 0001:00013c04       ___acrt_uninitialize_winapi_thunks 10014c04 f   libucrt:winapi_thunks.obj
 0001:00013c3a       ??$make_c_string_character_source@_WPAPA_W@__crt_strtox@@YA?AV?$c_string_character_source@_W@0@QB_WQAPA_W@Z 10014c3a f i libucrt:strtox.obj
 0001:00013c55       _wcstol                    10014c55 f   libucrt:strtox.obj
 0001:00013c7f       __mbtowc_l                 10014c7f f   libucrt:mbtowc.obj
 0001:00013dc1       _mbtowc                    10014dc1 f   libucrt:mbtowc.obj
 0001:00013ddb       _wcsnlen                   10014ddb f   libucrt:strnlen.obj
 0001:00013f8b       ___acrt_update_locale_info 10014f8b f   libucrt:locale_update.obj
 0001:00013fb8       ___acrt_update_multibyte_info 10014fb8 f   libucrt:locale_update.obj
 0001:00013fe5       ?__acrt_fp_classify@@YA?AW4__acrt_fp_class@@ABN@Z 10014fe5 f i libucrt:cvt.obj
 0001:00014830       ___acrt_fp_format          10015830 f   libucrt:cvt.obj
 0001:0001496b       __fileno                   1001596b f   libucrt:fileno.obj
 0001:00014992       ___acrt_initialize_stdio   10015992 f   libucrt:_file.obj
 0001:00014a5a       ___acrt_uninitialize_stdio 10015a5a f   libucrt:_file.obj
 0001:00014aa6       __lock_file                10015aa6 f   libucrt:_file.obj
 0001:00014aba       __unlock_file              10015aba f   libucrt:_file.obj
 0001:00014ace       __get_printf_count_output  10015ace f   libucrt:printf_count_output.obj
 0001:00014b51       ___acrt_set_locale_changed 10015b51 f   libucrt:wsetlocale.obj
 0001:00014b5c       ___acrt_uninitialize_locale 10015b5c f   libucrt:wsetlocale.obj
 0001:00014ced       ___acrt_initialize_lowio   10015ced f   libucrt:ioinit.obj
 0001:00014d4d       ___acrt_uninitialize_lowio 10015d4d f   libucrt:ioinit.obj
 0001:00014d79       ___acrt_initialize_locks   10015d79 f   libucrt:locks.obj
 0001:00014dba       ___acrt_lock               10015dba f   libucrt:locks.obj
 0001:00014dd1       ___acrt_uninitialize_locks 10015dd1 f   libucrt:locks.obj
 0001:00014e02       ___acrt_unlock             10015e02 f   libucrt:locks.obj
 0001:00014e19       ___acrt_get_process_end_policy 10015e19 f   libucrt:win_policies.obj
 0001:00014fe3       ??$__acrt_mbs_to_wcs_cp@U__crt_win32_buffer_internal_dynamic_resizing@@@@YAHQBDAAV?$__crt_win32_buffer@_WU__crt_win32_buffer_internal_dynamic_resizing@@@@I@Z 10015fe3 f i libucrt:argv_wildcards.obj
 0001:000154f7       ?__acrt_get_utf8_acp_compatibility_codepage@@YAIXZ 100164f7 f i libucrt:argv_wildcards.obj
 0001:00015536       ?_deallocate@?$__crt_win32_buffer@_WU__crt_win32_buffer_internal_dynamic_resizing@@@@AAEXXZ 10016536 f i libucrt:argv_wildcards.obj
 0001:00015536       ?_deallocate@?$__crt_win32_buffer@DU__crt_win32_buffer_internal_dynamic_resizing@@@@AAEXXZ 10016536 f i libucrt:argv_wildcards.obj
 0001:00015550       ?allocate@?$__crt_win32_buffer@DU__crt_win32_buffer_internal_dynamic_resizing@@@@QAEHI@Z 10016550 f i libucrt:argv_wildcards.obj
 0001:0001558c       ?allocate@?$__crt_win32_buffer@_WU__crt_win32_buffer_internal_dynamic_resizing@@@@QAEHI@Z 1001658c f i libucrt:argv_wildcards.obj
 0001:000155cb       ?allocate@__crt_win32_buffer_internal_dynamic_resizing@@SAHQAPAXIABV__crt_win32_buffer_empty_debug_info@@@Z 100165cb f i libucrt:argv_wildcards.obj
 0001:00015671       ___acrt_expand_narrow_argv_wildcards 10016671 f   libucrt:argv_wildcards.obj
 0001:00015743       ?allocate@?$__crt_win32_buffer@DU__crt_win32_buffer_no_resizing@@@@QAEHI@Z 10016743 f i libucrt:getmodulefilenamea.obj
 0001:0001576a       ?set_to_nullptr@?$__crt_win32_buffer@DU__crt_win32_buffer_no_resizing@@@@QAEXXZ 1001676a f i libucrt:getmodulefilenamea.obj
 0001:0001577e       ___acrt_GetModuleFileNameA 1001677e f   libucrt:getmodulefilenamea.obj
 0001:00015d3d       ___acrt_initialize_multibyte 10016d3d f   libucrt:mbctype.obj
 0001:00015d85       ___acrt_update_thread_multibyte_data 10016d85 f   libucrt:mbctype.obj
 0001:00015d98       __setmbcp_nolock           10016d98 f   libucrt:mbctype.obj
 0001:00016063       __ismbblead                10017063 f   libucrt:ismbbyte.obj
 0001:0001607b       ___acrt_initialize_command_line 1001707b f   libucrt:argv_data.obj
 0001:00016094       ___acrt_MultiByteToWideChar 10017094 f   libucrt:multibytetowidechar.obj
 0001:00016110       ___acrt_WideCharToMultiByte 10017110 f   libucrt:widechartomultibyte.obj
 0001:000161f4       ___dcrt_get_narrow_environment_from_os 100171f4 f   libucrt:get_environment_from_os.obj
 0001:00016278       ___acrt_initialize_heap    10017278 f   libucrt:heap_handle.obj
 0001:00016289       ___acrt_uninitialize_heap  10017289 f   libucrt:heap_handle.obj
 0001:00016293       ___acrt_execute_initializers 10017293 f   libucrt:shared_initialization.obj
 0001:000162fb       ___acrt_execute_uninitializers 100172fb f   libucrt:shared_initialization.obj
 0001:000163fa       ___acrt_get_sigabrt_handler 100173fa f   libucrt:signal.obj
 0001:00016421       ___acrt_initialize_signal_handlers 10017421 f   libucrt:signal.obj
 0001:0001643f       ___fpecode                 1001743f f   libucrt:signal.obj
 0001:00016448       _raise                     10017448 f   libucrt:signal.obj
 0001:00016643       ___acrt_has_user_matherr   10017643 f   libucrt:matherr.obj
 0001:0001665b       ___acrt_initialize_user_matherr 1001765b f   libucrt:matherr.obj
 0001:0001666a       ___acrt_invoke_user_matherr 1001766a f   libucrt:matherr.obj
 0001:00016879       ___acrt_stdio_flush_nolock 10017879 f   libucrt:fflush.obj
 0001:000168de       __fflush_nolock            100178de f   libucrt:fflush.obj
 0001:00016926       __flushall                 10017926 f   libucrt:fflush.obj
 0001:0001692f       ___pctype_func             1001792f f   libucrt:ctype.obj
 0001:00016953       _iswctype                  10017953 f   libucrt:iswctype.obj
 0001:000169bc       ___acrt_add_locale_ref     100179bc f   libucrt:locale_refcounting.obj
 0001:00016a39       ___acrt_free_locale        10017a39 f   libucrt:locale_refcounting.obj
 0001:00016b81       ___acrt_locale_add_lc_time_reference 10017b81 f   libucrt:locale_refcounting.obj
 0001:00016baa       ___acrt_locale_free_lc_time_if_unreferenced 10017baa f   libucrt:locale_refcounting.obj
 0001:00016bdb       ___acrt_locale_release_lc_time_reference 10017bdb f   libucrt:locale_refcounting.obj
 0001:00016c04       ___acrt_release_locale_ref 10017c04 f   libucrt:locale_refcounting.obj
 0001:00016c85       ___acrt_update_thread_locale_data 10017c85 f   libucrt:locale_refcounting.obj
 0001:00016d06       __updatetlocinfoEx_nolock  10017d06 f   libucrt:locale_refcounting.obj
 0001:00016d56       __query_new_mode           10017d56 f   libucrt:new_mode.obj
 0001:00016dad       ___acrt_DownlevelLocaleNameToLCID 10017dad f   libucrt:lcidtoname_downlevel.obj
 0001:00016dd9       __isleadbyte_l             10017dd9 f i libucrt:_wctype.obj
 0001:00016e3f       ?__mbrtowc_utf8@__crt_mbstring@@YAIPA_WPBDIPAU_Mbstatet@@@Z 10017e3f f   libucrt:mbrtowc.obj
 0001:00016e7f       ?__mbsrtowcs_utf8@__crt_mbstring@@YAIPA_WPAPBDIPAU_Mbstatet@@@Z 10017e7f f   libucrt:mbrtowc.obj
 0001:00016f7a       ?return_illegal_sequence@__crt_mbstring@@YAIPAU_Mbstatet@@@Z 10017f7a f i libucrt:c32rtomb.obj
 0001:00016f99       ___acrt_fp_strflt_to_string 10017f99 f   libucrt:_fptostr.obj
 0001:00017060       ?divide@__crt_strtox@@YA_KAAUbig_integer@1@ABU21@@Z 10018060 f i libucrt:cfout.obj
 0001:000174f8       ___acrt_fltout             100184f8 f   libucrt:cfout.obj
 0001:00018842       __fcloseall                10019842 f   libucrt:closeall.obj
 0001:000188ed       ___acrt_stdio_free_buffer_nolock 100198ed f   libucrt:_freebuf.obj
 0001:0001892d       __isatty                   1001992d f   libucrt:isatty.obj
 0001:00018983       ___acrt_locale_free_monetary 10019983 f   libucrt:initmon.obj
 0001:00018a81       ___acrt_locale_free_numeric 10019a81 f   libucrt:initnum.obj
 0001:00018b22       ___acrt_locale_free_time   10019b22 f   libucrt:inittime.obj
 0001:00018c06       ___acrt_GetStringTypeA     10019c06 f   libucrt:getstringtypea.obj
 0001:00018d09       __freea_crt                10019d09 f i libucrt:getstringtypea.obj
 0001:00018d29       ___acrt_lowio_create_handle_array 10019d29 f   libucrt:osfinfo.obj
 0001:00018da4       ___acrt_lowio_destroy_handle_array 10019da4 f   libucrt:osfinfo.obj
 0001:00018dd9       ___acrt_lowio_ensure_fh_exists 10019dd9 f   libucrt:osfinfo.obj
 0001:00018e77       ___acrt_lowio_lock_fh      10019e77 f   libucrt:osfinfo.obj
 0001:00018e9a       ___acrt_lowio_unlock_fh    10019e9a f   libucrt:osfinfo.obj
 0001:00018ebd       __free_osfhnd              10019ebd f   libucrt:osfinfo.obj
 0001:00018f4e       __get_osfhandle            10019f4e f   libucrt:osfinfo.obj
 0001:00019000       _qsort                     1001a000 f   libucrt:qsort.obj
 0001:000194f7       _strncpy_s                 1001a4f7 f   libucrt:strncpy_s.obj
 0001:00019510       _strpbrk                   1001a510 f   libucrt:strpbrk.obj
 0001:00019550       __mbsdec                   1001a550 f   libucrt:mbsdec.obj
 0001:00019567       __mbsdec_l                 1001a567 f   libucrt:mbsdec.obj
 0001:000197de       ___acrt_LCMapStringA       1001a7de f   libucrt:lcmapstringa.obj
 0001:000198d8       __commit                   1001a8d8 f   libucrt:commit.obj
 0001:0001a0ce       __write                    1001b0ce f   libucrt:write.obj
 0001:0001a1c0       __write_nolock             1001b1c0 f   libucrt:write.obj
 0001:0001a3a2       ___acrt_GetStringTypeW     1001b3a2 f   libucrt:getstringtypew.obj
 0001:0001a3bb       ___ascii_wcsnicmp          1001b3bb f   libucrt:wcsnicmp.obj
 0001:0001a40a       ?__mbrtoc32_utf8@__crt_mbstring@@YAIPA_UPBDIPAU_Mbstatet@@@Z 1001b40a f   libucrt:mbrtoc32.obj
 0001:0001a5b1       _fegetenv                  1001b5b1 f   libucrt:fegetenv.obj
 0001:0001a5ce       _fesetenv                  1001b5ce f   libucrt:fesetenv.obj
 0001:0001a619       _feholdexcept              1001b619 f   libucrt:feholdexcept.obj
 0001:0001a670       __CIlog10                  1001b670 f   libucrt:log10_impl.obj
 0001:0001a6ab       __CIlog10_default          1001b6ab f   libucrt:log10_impl.obj
 0001:0001a6bf       __log10_default            1001b6bf     libucrt:log10_impl.obj
 0001:0001a780       _ceil                      1001b780 f   libucrt:ceil_pentium4.obj
 0001:0001a7c0       __ceil_pentium4            1001b7c0 f   libucrt:ceil_pentium4.obj
 0001:0001a919       __lseeki64_nolock          1001b919 f   libucrt:lseek.obj
 0001:0001a934       __fclose_nolock            1001b934 f   libucrt:fclose.obj
 0001:0001a9ab       _fclose                    1001b9ab f   libucrt:fclose.obj
 0001:0001aa2f       __query_app_type           1001ba2f f   libucrt:report_runtime_error.obj
 0001:0001aa35       ___strncnt                 1001ba35 f   libucrt:strncnt.obj
 0001:0001aa51       __putwch_nolock            1001ba51 f   libucrt:putwch.obj
 0001:0001ad90       ___acrt_fenv_get_control   1001bd90 f   libucrt:_fenvutils.obj
 0001:0001ae10       ___acrt_fenv_get_status    1001be10 f   libucrt:_fenvutils.obj
 0001:0001aec8       ___acrt_fenv_set_control   1001bec8 f   libucrt:_fenvutils.obj
 0001:0001af30       ___acrt_fenv_set_status    1001bf30 f   libucrt:_fenvutils.obj
 0001:0001b027       __clearfp                  1001c027 f   libucrt:ieee87.obj
 0001:0001b105       ___acrt_initialize_sse2    1001c105 f   libucrt:mathfcns.obj
 0001:0001b120       __CIlog10_pentium4         1001c120 f   libucrt:log10_pentium4.obj
 0001:0001b138       __log10_pentium4           1001c138     libucrt:log10_pentium4.obj
 0001:0001b3d0       __fFEXP                    1001c3d0 f   libucrt:87tran.obj
 0001:0001b427       __rtinfpopse               1001c427     libucrt:87tran.obj
 0001:0001b429       __rtinfnpopse              1001c429     libucrt:87tran.obj
 0001:0001b439       __fFLN                     1001c439     libucrt:87tran.obj
 0001:0001b4ee       __rtinfpop                 1001c4ee     libucrt:87tran.obj
 0001:0001b4f0       __rtinfnpop                1001c4f0     libucrt:87tran.obj
 0001:0001b500       __rtforexpinf              1001c500 f   libucrt:87tran.obj
 0001:0001b50d       __ffexpm1                  1001c50d     libucrt:87tran.obj
 0001:0001b5c0       __trandisp1                1001c5c0 f   libucrt:87disp.obj
 0001:0001b635       __trandisp2                1001c635 f   libucrt:87disp.obj
 0001:0001b6cf       __rttospopde               1001c6cf     libucrt:87disp.obj
 0001:0001b6d4       __rttospop                 1001c6d4     libucrt:87disp.obj
 0001:0001b6e0       __rtnospop                 1001c6e0 f   libucrt:87disp.obj
 0001:0001b6f0       __rttosnpop                1001c6f0 f   libucrt:87disp.obj
 0001:0001b6f1       __rtnospopde               1001c6f1     libucrt:87disp.obj
 0001:0001b6f8       __rtzeropop                1001c6f8     libucrt:87disp.obj
 0001:0001b6fa       __rtzeronpop               1001c6fa     libucrt:87disp.obj
 0001:0001b700       __rtzerospop               1001c700 f   libucrt:87disp.obj
 0001:0001b70d       __rtonepop                 1001c70d     libucrt:87disp.obj
 0001:0001b710       __rtonenpop                1001c710 f   libucrt:87disp.obj
 0001:0001b720       __tosnan1                  1001c720 f   libucrt:87disp.obj
 0001:0001b750       __nosnan2                  1001c750 f   libucrt:87disp.obj
 0001:0001b760       __tosnan2                  1001c760 f   libucrt:87disp.obj
 0001:0001b790       __nan2                     1001c790 f   libucrt:87disp.obj
 0001:0001b7d0       __rtindfpop                1001c7d0 f   libucrt:87disp.obj
 0001:0001b7d2       __rtindfnpop               1001c7d2     libucrt:87disp.obj
 0001:0001b7e3       __rttosnpopde              1001c7e3     libucrt:87disp.obj
 0001:0001b7f0       __rtatan2inf               1001c7f0 f   libucrt:87disp.obj
 0001:0001b80d       __rtchsifneg               1001c80d     libucrt:87disp.obj
 0001:0001b820       __twoToTOS                 1001c820 f   libucrt:common.obj
 0001:0001b835       __load_CW                  1001c835 f   libucrt:common.obj
 0001:0001b84c       __convertTOStoQNaN         1001c84c f   libucrt:common.obj
 0001:0001b865       __fload_withFB             1001c865 f   libucrt:common.obj
 0001:0001b8a8       __checkTOS_withFB          1001c8a8 f   libucrt:common.obj
 0001:0001b8be       __fast_exit                1001c8be f   libucrt:common.obj
 0001:0001b8cb       __math_exit                1001c8cb f   libucrt:common.obj
 0001:0001b8f5       __check_overflow_exit      1001c8f5 f   libucrt:common.obj
 0001:0001b909       __check_range_exit         1001c909 f   libucrt:common.obj
 0001:0001b9b0       __startTwoArgErrorHandling 1001c9b0 f   libucrt:genexcep.obj
 0001:0001b9c7       __startOneArgErrorHandling 1001c9c7 f   libucrt:genexcep.obj
 0001:0001ba03       ___libm_error_support      1001ca03 f   libucrt:libm_error.obj
 0001:0001bbf7       __ceil_default             1001cbf7 f   libucrt:ceil.obj
 0001:0001bd38       __close                    1001cd38 f   libucrt:close.obj
 0001:0001bdc5       __close_nolock             1001cdc5 f   libucrt:close.obj
 0001:0001be61       ?__acrt_stdio_free_stream@@YAXV__crt_stdio_stream@@@Z 1001ce61 f   libucrt:stream.obj
 0001:0001bea0       ___ascii_strnicmp          1001cea0 f   libucrt:_strnicm.obj
 0001:0001bf20       ___dcrt_lowio_ensure_console_output_initialized 1001cf20 f   libucrt:initcon.obj
 0001:0001bf3f       ___dcrt_terminate_console_output 1001cf3f f   libucrt:initcon.obj
 0001:0001bf56       ___dcrt_write_console      1001cf56 f   libucrt:initcon.obj
 0001:0001bfab       __clrfp                    1001cfab f   libucrt:fpctrl.obj
 0001:0001bfbc       __ctrlfp                   1001cfbc f   libucrt:fpctrl.obj
 0001:0001bfe6       __set_statfp               1001cfe6 f   libucrt:fpctrl.obj
 0001:0001c03f       __statfp                   1001d03f f   libucrt:fpctrl.obj
 0001:0001c04f       __d_inttype                1001d04f f   libucrt:powhlp.obj
 0001:0001c0b7       __powhlp                   1001d0b7 f   libucrt:powhlp.obj
 0001:0001c1e2       __87except                 1001d1e2 f   libucrt:87except.obj
 0001:0001c2ec       __frnd                     1001d2ec f   libucrt:frnd.obj
 0001:0001c300       __errcode                  1001d300 f   libucrt:fpexcept.obj
 0001:0001c334       __except1                  1001d334 f   libucrt:fpexcept.obj
 0001:0001c402       __handle_exc               1001d402 f   libucrt:fpexcept.obj
 0001:0001c5ed       __raise_exc                1001d5ed f   libucrt:fpexcept.obj
 0001:0001c610       __raise_exc_ex             1001d610 f   libucrt:fpexcept.obj
 0001:0001c906       __set_errno_from_matherr   1001d906 f   libucrt:fpexcept.obj
 0001:0001c935       __umatherr                 1001d935 f   libucrt:fpexcept.obj
 0001:0001c9d5       __decomp                   1001d9d5 f   libucrt:util.obj
 0001:0001caa7       __set_exp                  1001daa7 f   libucrt:util.obj
 0001:0001cad4       __sptype                   1001dad4 f   libucrt:util.obj
 0001:0001cb32       __fpclass                  1001db32 f   libucrt:ieeemisc.obj
 0001:0001cbd6       _IsProcessorFeaturePresent@4 1001dbd6 f   kernel32:KERNEL32.dll
 0001:0001cbe0       __FindPESection            1001dbe0 f   LIBCMT:pesect.obj
 0001:0001cc30       __IsNonwritableInCurrentImage 1001dc30 f   LIBCMT:pesect.obj
 0001:0001ccf0       __ValidateImageBase        1001dcf0 f   LIBCMT:pesect.obj
 0001:0001cd23       __EH_prolog3_catch         1001dd23 f   LIBCMT:ehprolg3.obj
 0001:0001cd60       __aulldvrm                 1001dd60 f   LIBCMT:ulldvrm.obj
 0001:0001ce00       __allmul                   1001de00 f   LIBCMT:llmul.obj
 0001:0001ce40       __alldvrm                  1001de40 f   LIBCMT:lldvrm.obj
 0001:0001cf20       __aullshr                  1001df20 f   LIBCMT:ullshr.obj
 0001:0001cf40       __allshl                   1001df40 f   LIBCMT:llshl.obj
 0001:0001cf60       __ftol2_sse                1001df60     LIBCMT:ftol2.obj
 0001:0001cf60       __ftoi2                    1001df60 f   LIBCMT:ftol2.obj
 0001:0001cf60       __ftol2_sse_excpt          1001df60     LIBCMT:ftol2.obj
 0001:0001cfe0       __ftoui2                   1001dfe0 f   LIBCMT:ftol2.obj
 0001:0001d090       __ftol2                    1001e090 f   LIBCMT:ftol2.obj
 0001:0001d140       __ftoul2                   1001e140 f   LIBCMT:ftol2.obj
 0001:0001d200       _strrchr                   1001e200 f   libvcruntime:strrchr.obj
 0001:0001d340       _strchr                    1001e340 f   libvcruntime:strchr.obj
 0001:0001d3ae       ___from_strstr_to_strchr   1001e3ae     libvcruntime:strchr.obj
 0001:0001d46b       __filter_x86_sse2_floating_point_exception 1001e46b f   LIBCMT:x86_exception_filter.obj
 0001:0001d46b       __filter_x86_sse2_floating_point_exception_default 1001e46b f   LIBCMT:x86_exception_filter.obj
 0002:00000000       __imp__RegQueryValueExW@24 1001f000     advapi32:ADVAPI32.dll
 0002:00000004       __imp__RegSetValueExW@24   1001f004     advapi32:ADVAPI32.dll
 0002:00000008       __imp__RegQueryInfoKeyW@48 1001f008     advapi32:ADVAPI32.dll
 0002:0000000c       __imp__RegOpenKeyExW@20    1001f00c     advapi32:ADVAPI32.dll
 0002:00000010       __imp__RegEnumKeyExW@32    1001f010     advapi32:ADVAPI32.dll
 0002:00000014       __imp__RegDeleteValueW@8   1001f014     advapi32:ADVAPI32.dll
 0002:00000018       __imp__RegDeleteKeyW@8     1001f018     advapi32:ADVAPI32.dll
 0002:0000001c       __imp__RegCreateKeyExW@36  1001f01c     advapi32:ADVAPI32.dll
 0002:00000020       __imp__RegCloseKey@4       1001f020     advapi32:ADVAPI32.dll
 0002:00000024       \177ADVAPI32_NULL_THUNK_DATA 1001f024     advapi32:ADVAPI32.dll
 0002:00000028       __imp__GetObjectW@12       1001f028     gdi32:GDI32.dll
 0002:0000002c       __imp__SelectObject@8      1001f02c     gdi32:GDI32.dll
 0002:00000030       __imp__DeleteObject@4      1001f030     gdi32:GDI32.dll
 0002:00000034       __imp__CreateCompatibleDC@4 1001f034     gdi32:GDI32.dll
 0002:00000038       __imp__BitBlt@36           1001f038     gdi32:GDI32.dll
 0002:0000003c       __imp__SetWindowOrgEx@16   1001f03c     gdi32:GDI32.dll
 0002:00000040       __imp__SetWindowExtEx@16   1001f040     gdi32:GDI32.dll
 0002:00000044       __imp__SetViewportOrgEx@16 1001f044     gdi32:GDI32.dll
 0002:00000048       __imp__LPtoDP@12           1001f048     gdi32:GDI32.dll
 0002:0000004c       __imp__SetMapMode@8        1001f04c     gdi32:GDI32.dll
 0002:00000050       __imp__SaveDC@4            1001f050     gdi32:GDI32.dll
 0002:00000054       __imp__RestoreDC@8         1001f054     gdi32:GDI32.dll
 0002:00000058       __imp__GetDeviceCaps@8     1001f058     gdi32:GDI32.dll
 0002:0000005c       __imp__DeleteMetaFile@4    1001f05c     gdi32:GDI32.dll
 0002:00000060       __imp__DeleteDC@4          1001f060     gdi32:GDI32.dll
 0002:00000064       __imp__CreateRectRgnIndirect@4 1001f064     gdi32:GDI32.dll
 0002:00000068       __imp__CreateMetaFileW@4   1001f068     gdi32:GDI32.dll
 0002:0000006c       __imp__CreateDCW@16        1001f06c     gdi32:GDI32.dll
 0002:00000070       __imp__CloseMetaFile@4     1001f070     gdi32:GDI32.dll
 0002:00000074       \177GDI32_NULL_THUNK_DATA  1001f074     gdi32:GDI32.dll
 0002:00000078       __imp__CloseHandle@4       1001f078     kernel32:KERNEL32.dll
 0002:0000007c       __imp__SetEvent@4          1001f07c     kernel32:KERNEL32.dll
 0002:00000080       __imp__CreateMutexW@12     1001f080     kernel32:KERNEL32.dll
 0002:00000084       __imp__CreateEventW@16     1001f084     kernel32:KERNEL32.dll
 0002:00000088       __imp__GetCurrentProcessId@0 1001f088     kernel32:KERNEL32.dll
 0002:0000008c       __imp__CreateFileW@28      1001f08c     kernel32:KERNEL32.dll
 0002:00000090       __imp__GetConsoleMode@8    1001f090     kernel32:KERNEL32.dll
 0002:00000094       __imp__GetConsoleCP@0      1001f094     kernel32:KERNEL32.dll
 0002:00000098       __imp__WriteFile@20        1001f098     kernel32:KERNEL32.dll
 0002:0000009c       __imp__FlushFileBuffers@4  1001f09c     kernel32:KERNEL32.dll
 0002:000000a0       __imp__SetStdHandle@8      1001f0a0     kernel32:KERNEL32.dll
 0002:000000a4       __imp__GetStringTypeW@16   1001f0a4     kernel32:KERNEL32.dll
 0002:000000a8       __imp__SetFilePointerEx@20 1001f0a8     kernel32:KERNEL32.dll
 0002:000000ac       __imp__FreeEnvironmentStringsW@4 1001f0ac     kernel32:KERNEL32.dll
 0002:000000b0       __imp__GetEnvironmentStringsW@0 1001f0b0     kernel32:KERNEL32.dll
 0002:000000b4       __imp__lstrcmpiW@8         1001f0b4     kernel32:KERNEL32.dll
 0002:000000b8       __imp__GetCommandLineA@0   1001f0b8     kernel32:KERNEL32.dll
 0002:000000bc       __imp__GetCPInfo@8         1001f0bc     kernel32:KERNEL32.dll
 0002:000000c0       __imp__GetOEMCP@0          1001f0c0     kernel32:KERNEL32.dll
 0002:000000c4       __imp__GetACP@0            1001f0c4     kernel32:KERNEL32.dll
 0002:000000c8       __imp__IsValidCodePage@4   1001f0c8     kernel32:KERNEL32.dll
 0002:000000cc       __imp__FindNextFileW@8     1001f0cc     kernel32:KERNEL32.dll
 0002:000000d0       __imp__FindFirstFileExW@24 1001f0d0     kernel32:KERNEL32.dll
 0002:000000d4       __imp__FindClose@4         1001f0d4     kernel32:KERNEL32.dll
 0002:000000d8       __imp__GetFileType@4       1001f0d8     kernel32:KERNEL32.dll
 0002:000000dc       __imp__GetStdHandle@4      1001f0dc     kernel32:KERNEL32.dll
 0002:000000e0       __imp__LCMapStringW@24     1001f0e0     kernel32:KERNEL32.dll
 0002:000000e4       __imp__HeapReAlloc@16      1001f0e4     kernel32:KERNEL32.dll
 0002:000000e8       __imp__HeapSize@12         1001f0e8     kernel32:KERNEL32.dll
 0002:000000ec       __imp__MulDiv@12           1001f0ec     kernel32:KERNEL32.dll
 0002:000000f0       __imp__GlobalLock@4        1001f0f0     kernel32:KERNEL32.dll
 0002:000000f4       __imp__GlobalUnlock@4      1001f0f4     kernel32:KERNEL32.dll
 0002:000000f8       __imp__GlobalAlloc@8       1001f0f8     kernel32:KERNEL32.dll
 0002:000000fc       __imp__FindResourceW@12    1001f0fc     kernel32:KERNEL32.dll
 0002:00000100       __imp__SizeofResource@8    1001f100     kernel32:KERNEL32.dll
 0002:00000104       __imp__LoadResource@8      1001f104     kernel32:KERNEL32.dll
 0002:00000108       __imp__LoadLibraryExW@12   1001f108     kernel32:KERNEL32.dll
 0002:0000010c       __imp__GetProcAddress@8    1001f10c     kernel32:KERNEL32.dll
 0002:00000110       __imp__GetModuleHandleW@4  1001f110     kernel32:KERNEL32.dll
 0002:00000114       __imp__GetModuleFileNameW@12 1001f114     kernel32:KERNEL32.dll
 0002:00000118       __imp__FreeLibrary@4       1001f118     kernel32:KERNEL32.dll
 0002:0000011c       __imp__DisableThreadLibraryCalls@4 1001f11c     kernel32:KERNEL32.dll
 0002:00000120       __imp__GetCurrentThreadId@0 1001f120     kernel32:KERNEL32.dll
 0002:00000124       __imp__Sleep@4             1001f124     kernel32:KERNEL32.dll
 0002:00000128       __imp__WaitForSingleObject@8 1001f128     kernel32:KERNEL32.dll
 0002:0000012c       __imp__ReleaseMutex@4      1001f12c     kernel32:KERNEL32.dll
 0002:00000130       __imp__ResetEvent@4        1001f130     kernel32:KERNEL32.dll
 0002:00000134       __imp__EnterCriticalSection@4 1001f134     kernel32:KERNEL32.dll
 0002:00000138       __imp__LeaveCriticalSection@4 1001f138     kernel32:KERNEL32.dll
 0002:0000013c       __imp__SetLastError@4      1001f13c     kernel32:KERNEL32.dll
 0002:00000140       __imp__EncodePointer@4     1001f140     kernel32:KERNEL32.dll
 0002:00000144       __imp__DeleteCriticalSection@4 1001f144     kernel32:KERNEL32.dll
 0002:00000148       __imp__InitializeCriticalSectionEx@12 1001f148     kernel32:KERNEL32.dll
 0002:0000014c       __imp__GetLastError@0      1001f14c     kernel32:KERNEL32.dll
 0002:00000150       __imp__RaiseException@16   1001f150     kernel32:KERNEL32.dll
 0002:00000154       __imp__DecodePointer@4     1001f154     kernel32:KERNEL32.dll
 0002:00000158       __imp__WideCharToMultiByte@32 1001f158     kernel32:KERNEL32.dll
 0002:0000015c       __imp__GetCommandLineW@0   1001f15c     kernel32:KERNEL32.dll
 0002:00000160       __imp__MultiByteToWideChar@24 1001f160     kernel32:KERNEL32.dll
 0002:00000164       __imp__WriteConsoleW@20    1001f164     kernel32:KERNEL32.dll
 0002:00000168       __imp__GetModuleHandleExW@12 1001f168     kernel32:KERNEL32.dll
 0002:0000016c       __imp__ExitProcess@4       1001f16c     kernel32:KERNEL32.dll
 0002:00000170       __imp__VirtualQuery@12     1001f170     kernel32:KERNEL32.dll
 0002:00000174       __imp__VirtualProtect@16   1001f174     kernel32:KERNEL32.dll
 0002:00000178       __imp__GetSystemInfo@4     1001f178     kernel32:KERNEL32.dll
 0002:0000017c       __imp__TlsFree@4           1001f17c     kernel32:KERNEL32.dll
 0002:00000180       __imp__TlsSetValue@8       1001f180     kernel32:KERNEL32.dll
 0002:00000184       __imp__TlsGetValue@4       1001f184     kernel32:KERNEL32.dll
 0002:00000188       __imp__TlsAlloc@0          1001f188     kernel32:KERNEL32.dll
 0002:0000018c       __imp__InterlockedFlushSList@4 1001f18c     kernel32:KERNEL32.dll
 0002:00000190       __imp__RtlUnwind@16        1001f190     kernel32:KERNEL32.dll
 0002:00000194       __imp__LoadLibraryExA@12   1001f194     kernel32:KERNEL32.dll
 0002:00000198       __imp__VirtualFree@12      1001f198     kernel32:KERNEL32.dll
 0002:0000019c       __imp__VirtualAlloc@16     1001f19c     kernel32:KERNEL32.dll
 0002:000001a0       __imp__FlushInstructionCache@12 1001f1a0     kernel32:KERNEL32.dll
 0002:000001a4       __imp__InterlockedPushEntrySList@8 1001f1a4     kernel32:KERNEL32.dll
 0002:000001a8       __imp__InterlockedPopEntrySList@4 1001f1a8     kernel32:KERNEL32.dll
 0002:000001ac       __imp__GetProcessHeap@0    1001f1ac     kernel32:KERNEL32.dll
 0002:000001b0       __imp__HeapFree@12         1001f1b0     kernel32:KERNEL32.dll
 0002:000001b4       __imp__HeapAlloc@12        1001f1b4     kernel32:KERNEL32.dll
 0002:000001b8       __imp__OutputDebugStringW@4 1001f1b8     kernel32:KERNEL32.dll
 0002:000001bc       __imp__InitializeSListHead@4 1001f1bc     kernel32:KERNEL32.dll
 0002:000001c0       __imp__GetSystemTimeAsFileTime@4 1001f1c0     kernel32:KERNEL32.dll
 0002:000001c4       __imp__QueryPerformanceCounter@4 1001f1c4     kernel32:KERNEL32.dll
 0002:000001c8       __imp__GetStartupInfoW@4   1001f1c8     kernel32:KERNEL32.dll
 0002:000001cc       __imp__IsDebuggerPresent@0 1001f1cc     kernel32:KERNEL32.dll
 0002:000001d0       __imp__IsProcessorFeaturePresent@4 1001f1d0     kernel32:KERNEL32.dll
 0002:000001d4       __imp__TerminateProcess@8  1001f1d4     kernel32:KERNEL32.dll
 0002:000001d8       __imp__GetCurrentProcess@0 1001f1d8     kernel32:KERNEL32.dll
 0002:000001dc       __imp__SetUnhandledExceptionFilter@4 1001f1dc     kernel32:KERNEL32.dll
 0002:000001e0       __imp__UnhandledExceptionFilter@4 1001f1e0     kernel32:KERNEL32.dll
 0002:000001e4       __imp__InitializeCriticalSectionAndSpinCount@8 1001f1e4     kernel32:KERNEL32.dll
 0002:000001e8       __imp__WaitForSingleObjectEx@12 1001f1e8     kernel32:KERNEL32.dll
 0002:000001ec       \177KERNEL32_NULL_THUNK_DATA 1001f1ec     kernel32:KERNEL32.dll
 0002:000001f0       __imp__OleCreatePropertyFrame@44 1001f1f0     oleaut32:OLEAUT32.dll
 0002:000001f4       __imp__UnRegisterTypeLib@20 1001f1f4     oleaut32:OLEAUT32.dll
 0002:000001f8       __imp__RegisterTypeLib@12  1001f1f8     oleaut32:OLEAUT32.dll
 0002:000001fc       __imp__LoadRegTypeLib@20   1001f1fc     oleaut32:OLEAUT32.dll
 0002:00000200       __imp__LoadTypeLib@8       1001f200     oleaut32:OLEAUT32.dll
 0002:00000204       __imp__VarUI4FromStr@16    1001f204     oleaut32:OLEAUT32.dll
 0002:00000208       __imp__VariantInit@4       1001f208     oleaut32:OLEAUT32.dll
 0002:0000020c       __imp__SysAllocStringByteLen@8 1001f20c     oleaut32:OLEAUT32.dll
 0002:00000210       __imp__SysStringByteLen@4  1001f210     oleaut32:OLEAUT32.dll
 0002:00000214       __imp__VariantChangeType@16 1001f214     oleaut32:OLEAUT32.dll
 0002:00000218       __imp__VariantClear@4      1001f218     oleaut32:OLEAUT32.dll
 0002:0000021c       __imp__SysStringLen@4      1001f21c     oleaut32:OLEAUT32.dll
 0002:00000220       __imp__SysFreeString@4     1001f220     oleaut32:OLEAUT32.dll
 0002:00000224       __imp__SysAllocStringLen@8 1001f224     oleaut32:OLEAUT32.dll
 0002:00000228       __imp__SysAllocString@4    1001f228     oleaut32:OLEAUT32.dll
 0002:0000022c       \177OLEAUT32_NULL_THUNK_DATA 1001f22c     oleaut32:OLEAUT32.dll
 0002:00000230       __imp__UnregisterClassW@8  1001f230     user32:USER32.dll
 0002:00000234       __imp__PostMessageW@16     1001f234     user32:USER32.dll
 0002:00000238       __imp__DefWindowProcW@16   1001f238     user32:USER32.dll
 0002:0000023c       __imp__CallWindowProcW@20  1001f23c     user32:USER32.dll
 0002:00000240       __imp__RegisterClassExW@4  1001f240     user32:USER32.dll
 0002:00000244       __imp__GetClassInfoExW@12  1001f244     user32:USER32.dll
 0002:00000248       __imp__CreateWindowExW@48  1001f248     user32:USER32.dll
 0002:0000024c       __imp__IsWindow@4          1001f24c     user32:USER32.dll
 0002:00000250       __imp__IsChild@8           1001f250     user32:USER32.dll
 0002:00000254       __imp__DestroyWindow@4     1001f254     user32:USER32.dll
 0002:00000258       __imp__ShowWindow@8        1001f258     user32:USER32.dll
 0002:0000025c       __imp__SetWindowPos@28     1001f25c     user32:USER32.dll
 0002:00000260       __imp__CharNextW@4         1001f260     user32:USER32.dll
 0002:00000264       __imp__SetFocus@4          1001f264     user32:USER32.dll
 0002:00000268       __imp__LoadBitmapW@8       1001f268     user32:USER32.dll
 0002:0000026c       __imp__RegisterClassW@4    1001f26c     user32:USER32.dll
 0002:00000270       __imp__PeekMessageW@20     1001f270     user32:USER32.dll
 0002:00000274       __imp__LoadCursorW@8       1001f274     user32:USER32.dll
 0002:00000278       __imp__GetParent@4         1001f278     user32:USER32.dll
 0002:0000027c       __imp__SetWindowLongW@12   1001f27c     user32:USER32.dll
 0002:00000280       __imp__GetWindowLongW@8    1001f280     user32:USER32.dll
 0002:00000284       __imp__PtInRect@12         1001f284     user32:USER32.dll
 0002:00000288       __imp__EqualRect@8         1001f288     user32:USER32.dll
 0002:0000028c       __imp__OffsetRect@12       1001f28c     user32:USER32.dll
 0002:00000290       __imp__UnionRect@12        1001f290     user32:USER32.dll
 0002:00000294       __imp__IntersectRect@12    1001f294     user32:USER32.dll
 0002:00000298       __imp__GetClientRect@8     1001f298     user32:USER32.dll
 0002:0000029c       __imp__InvalidateRect@12   1001f29c     user32:USER32.dll
 0002:000002a0       __imp__SetWindowRgn@12     1001f2a0     user32:USER32.dll
 0002:000002a4       __imp__EndPaint@8          1001f2a4     user32:USER32.dll
 0002:000002a8       __imp__BeginPaint@8        1001f2a8     user32:USER32.dll
 0002:000002ac       __imp__ReleaseDC@8         1001f2ac     user32:USER32.dll
 0002:000002b0       __imp__GetDC@4             1001f2b0     user32:USER32.dll
 0002:000002b4       __imp__GetKeyState@4       1001f2b4     user32:USER32.dll
 0002:000002b8       __imp__GetFocus@0          1001f2b8     user32:USER32.dll
 0002:000002bc       \177USER32_NULL_THUNK_DATA 1001f2bc     user32:USER32.dll
 0002:000002c0       __imp__StringFromGUID2@12  1001f2c0     ole32:ole32.dll
 0002:000002c4       __imp__CoTaskMemAlloc@4    1001f2c4     ole32:ole32.dll
 0002:000002c8       __imp__CoTaskMemRealloc@8  1001f2c8     ole32:ole32.dll
 0002:000002cc       __imp__CoTaskMemFree@4     1001f2cc     ole32:ole32.dll
 0002:000002d0       __imp__ReadClassStm@8      1001f2d0     ole32:ole32.dll
 0002:000002d4       __imp__WriteClassStm@8     1001f2d4     ole32:ole32.dll
 0002:000002d8       __imp__CreateDataAdviseHolder@4 1001f2d8     ole32:ole32.dll
 0002:000002dc       __imp__OleSaveToStream@8   1001f2dc     ole32:ole32.dll
 0002:000002e0       __imp__CreateOleAdviseHolder@4 1001f2e0     ole32:ole32.dll
 0002:000002e4       __imp__OleRegGetUserType@12 1001f2e4     ole32:ole32.dll
 0002:000002e8       __imp__OleRegGetMiscStatus@12 1001f2e8     ole32:ole32.dll
 0002:000002ec       __imp__OleRegEnumVerbs@8   1001f2ec     ole32:ole32.dll
 0002:000002f0       __imp__CLSIDFromProgID@8   1001f2f0     ole32:ole32.dll
 0002:000002f4       __imp__CoCreateInstance@20 1001f2f4     ole32:ole32.dll
 0002:000002f8       \177ole32_NULL_THUNK_DATA  1001f2f8     ole32:ole32.dll
 0002:000002fc       ___guard_check_icall_fptr  1001f2fc     LIBCMT:guard_support.obj
 0002:00000300       ___xc_a                    1001f300     LIBCMT:initializers.obj
 0002:00000318       ___xc_z                    1001f318     LIBCMT:initializers.obj
 0002:0000031c       ___xi_a                    1001f31c     LIBCMT:initializers.obj
 0002:00000324       ___acrt_stdio_initializer  1001f324     libucrt:stdio_initializer.obj
 0002:00000328       ___acrt_multibyte_initializer 1001f328     libucrt:multibyte_initializer.obj
 0002:0000032c       ___acrt_tran_sse2_initializer 1001f32c     libucrt:sse2_initializer.obj
 0002:00000330       ___xi_z                    1001f330     LIBCMT:initializers.obj
 0002:00000334       ___xl_a                    1001f334     LIBCMT:tlssup.obj
 0002:00000338       ___xl_z                    1001f338     LIBCMT:tlssup.obj
 0002:0000033c       ___xp_a                    1001f33c     LIBCMT:initializers.obj
 0002:00000340       ___acrt_locale_terminator  1001f340     libucrt:locale_initializer.obj
 0002:00000344       ___dcrt_console_output_terminator 1001f344     libucrt:console_output_initializer.obj
 0002:00000348       ___acrt_stdio_terminator   1001f348     libucrt:stdio_initializer.obj
 0002:0000034c       ___xp_z                    1001f34c     LIBCMT:initializers.obj
 0002:00000350       ___xt_a                    1001f350     LIBCMT:initializers.obj
 0002:00000354       ___xt_z                    1001f354     LIBCMT:initializers.obj
 0002:00000360       ??_C@_13HADIAKP@?$AAS@     1001f360     OposVariant.obj
 0002:00000364       ??_C@_13LHMFKAAD@?$AAM@    1001f364     OposVariant.obj
 0002:00000368       ??_C@_13MKMNOPIJ@?$AAD@    1001f368     OposVariant.obj
 0002:0000036c       ??_C@_13OPKGLAFF@?$AAB@    1001f36c     OposVariant.obj
 0002:00000370       ??_C@_17LLMMEOJD@?$AAV?$AAa?$AAl@ 1001f370     OposVariant.obj
 0002:00000378       ??_C@_1BI@JFAIJMHL@?$AAF?$AAo?$AAr?$AAc?$AAe?$AAR?$AAe?$AAm?$AAo?$AAv?$AAe@ 1001f378     OposVariant.obj
 0002:00000390       ??_C@_1BC@GCKHIPE@?$AAN?$AAo?$AAR?$AAe?$AAm?$AAo?$AAv?$AAe@ 1001f390     OposVariant.obj
 0002:000003a4       ??_C@_1O@JDLOHAN@?$AAD?$AAe?$AAl?$AAe?$AAt?$AAe@ 1001f3a4     OposVariant.obj
 0002:000003b4       ??_C@_11LOCGONAA@@         1001f3b4     OposVariant.obj
 0002:000003b8       ??_7CComClassFactory@ATL@@6B@ 1001f3b8     MotionSensor.obj
 0002:000003d0       ?_entries@?1??_GetEntries@CComClassFactory@ATL@@SGPBU_ATL_INTMAP_ENTRY@3@XZ@4QBU43@B 1001f3d0     MotionSensor.obj
 0002:000003e8       __GUID_00000001_0000_0000_c000_000000000046 1001f3e8     MotionSensor.obj
 0002:000003f8       _IID_IOPOSMotionSensor_1_7 1001f3f8     MotionSensor.obj
 0002:00000408       _IID_IOPOSMotionSensor_1_8 1001f408     MotionSensor.obj
 0002:00000418       _IID_IOPOSMotionSensor_1_9 1001f418     MotionSensor.obj
 0002:00000428       _IID_IOPOSMotionSensor     1001f428     MotionSensor.obj
 0002:00000438       _LIBID_OposMotionSensor_CCO 1001f438     MotionSensor.obj
 0002:00000448       _DIID__IOPOSMotionSensorEvents 1001f448     MotionSensor.obj
 0002:00000458       _CLSID_OPOSMotionSensor    1001f458     MotionSensor.obj
 0002:00000468       __GUID_00000114_0000_0000_c000_000000000046 1001f468     MotionSensor.obj
 0002:00000478       ??_C@_1BK@BIGILECK@?$AAA?$AAd?$AAv?$AAa?$AAp?$AAi?$AA3?$AA2?$AA?4?$AAd?$AAl?$AAl@ 1001f478     MotionSensor.obj
 0002:00000494       ??_C@_0BI@MNCFCPFK@RegCreateKeyTransactedW@ 1001f494     MotionSensor.obj
 0002:000004ac       __GUID_b196b287_bab4_101a_b69c_00aa00341d07 1001f4ac     MotionSensor.obj
 0002:000004bc       __GUID_b196b285_bab4_101a_b69c_00aa00341d07 1001f4bc     MotionSensor.obj
 0002:000004cc       __GUID_a6bc3ac0_dbaa_11ce_9de3_00aa004bb851 1001f4cc     MotionSensor.obj
 0002:000004dc       __GUID_0000010c_0000_0000_c000_000000000046 1001f4dc     MotionSensor.obj
 0002:000004f0       ?_entries@?1??_GetEntries@COPOSMotionSensor@@SGPBU_ATL_INTMAP_ENTRY@ATL@@XZ@4QBU34@B 1001f4f0     MotionSensor.obj
 0002:00000628       __GUID_00000146_0000_0000_c000_000000000046 1001f628     MotionSensor.obj
 0002:00000638       __GUID_cf51ed10_62fe_11cf_bf86_00a0c9034836 1001f638     MotionSensor.obj
 0002:00000648       __GUID_0000010a_0000_0000_c000_000000000046 1001f648     MotionSensor.obj
 0002:00000658       __GUID_b196b283_bab4_101a_b69c_00aa00341d07 1001f658     MotionSensor.obj
 0002:00000668       __GUID_cb5bdc81_93c1_11cf_8f20_00805f2cd064 1001f668     MotionSensor.obj
 0002:00000678       ?pPropMap@?1??GetPropertyMap@COPOSMotionSensor@@SAPBUATL_PROPMAP_ENTRY@ATL@@XZ@4QBU34@B 1001f678     MotionSensor.obj
 0002:000006e4       ??_C@_17DGDADEHL@?$AA_?$AAc?$AAx@ 1001f6e4     MotionSensor.obj
 0002:000006ec       ??_C@_17IOIMFDBO@?$AA_?$AAc?$AAy@ 1001f6ec     MotionSensor.obj
 0002:000006f4       ??_7?$CComObjectCached@VCComClassFactory@ATL@@@ATL@@6B@ 1001f6f4     MotionSensor.obj
 0002:0000070c       ??_7CComModule@ATL@@6B@    1001f70c     MotionSensor.obj
 0002:00000734       ??_C@_1CE@PGFMOFKI@?$AAS?$AAt?$AAa?$AAt?$AAu?$AAs?$AAU?$AAp?$AAd?$AAa?$AAt?$AAe?$AAE?$AAv?$AAe@ 1001f734     MotionSensor.obj
 0002:00000758       __GUID_922eada0_3424_11cf_b670_00aa004cd6d8 1001f758     MotionSensor.obj
 0002:00000768       __GUID_9c2cad80_3424_11cf_b670_00aa004cd6d8 1001f768     MotionSensor.obj
 0002:00000778       __GUID_00000119_0000_0000_c000_000000000046 1001f778     MotionSensor.obj
 0002:00000788       ??_C@_1BM@CBGEBBBJ@?$AAD?$AAi?$AAr?$AAe?$AAc?$AAt?$AAI?$AAO?$AAE?$AAv?$AAe?$AAn?$AAt@ 1001f788     MotionSensor.obj
 0002:000007a4       __GUID_b196b289_bab4_101a_b69c_00aa00341d07 1001f7a4     MotionSensor.obj
 0002:000007b4       __GUID_b196b286_bab4_101a_b69c_00aa00341d07 1001f7b4     MotionSensor.obj
 0002:000007c4       __GUID_00000000_0000_0000_c000_000000000046 1001f7c4     MotionSensor.obj
 0002:000007d4       __GUID_00020400_0000_0000_c000_000000000046 1001f7d4     MotionSensor.obj
 0002:000007e4       __GUID_00000117_0000_0000_c000_000000000046 1001f7e4     MotionSensor.obj
 0002:000007f4       ??_C@_1BC@ENICKDH@?$AAC?$AAo?$AAn?$AAt?$AAe?$AAn?$AAt?$AAs@ 1001f7f4     MotionSensor.obj
 0002:00000808       ??_7?$CComObject@V?$CComEnum@UIEnumConnectionPoints@@$1?_GUID_b196b285_bab4_101a_b69c_00aa00341d07@@3U__s_GUID@@BPAUIConnectionPoint@@V?$_CopyInterface@UIConnectionPoint@@@ATL@@VCComSingleThreadModel@6@@ATL@@@ATL@@6B@ 1001f808     MotionSensor.obj
 0002:00000828       ??_C@_1M@KANJNLFF@?$AAC?$AAL?$AAS?$AAI?$AAD@ 1001f828     MotionSensor.obj
 0002:00000834       ??_C@_1M@EJNEECMJ@?$AAA?$AAp?$AAp?$AAI?$AAD@ 1001f834     MotionSensor.obj
 0002:00000840       __GUID_0000010e_0000_0000_c000_000000000046 1001f840     MotionSensor.obj
 0002:00000850       __GUID_b196b288_bab4_101a_b69c_00aa00341d07 1001f850     MotionSensor.obj
 0002:00000860       ?rgszNeverDelete@CRegParser@ATL@@1QBQB_WB 1001f860     MotionSensor.obj
 0002:00000890       ??_7CRegObject@ATL@@6B@    1001f890     MotionSensor.obj
 0002:000008a8       __GUID_00000113_0000_0000_c000_000000000046 1001f8a8     MotionSensor.obj
 0002:000008b8       __GUID_1c2056cc_5ef4_101b_8bc8_00aa003e3b29 1001f8b8     MotionSensor.obj
 0002:000008c8       ??_C@_1CK@OEKPKBNA@?$AAC?$AAo?$AAm?$AAp?$AAo?$AAn?$AAe?$AAn?$AAt?$AA?5?$AAC?$AAa?$AAt?$AAe?$AAg@ 1001f8c8     MotionSensor.obj
 0002:000008f4       ??_C@_1BC@NKMMNMGL@?$AAF?$AAi?$AAl?$AAe?$AAT?$AAy?$AAp?$AAe@ 1001f8f4     MotionSensor.obj
 0002:00000908       ??_C@_1BE@EKPAFMCP@?$AAI?$AAn?$AAt?$AAe?$AAr?$AAf?$AAa?$AAc?$AAe@ 1001f908     MotionSensor.obj
 0002:0000091c       ??_C@_1BC@MAICEHGI@?$AAH?$AAa?$AAr?$AAd?$AAw?$AAa?$AAr?$AAe@ 1001f91c     MotionSensor.obj
 0002:00000930       ??_C@_19HLLLM@?$AAM?$AAi?$AAm?$AAe@ 1001f930     MotionSensor.obj
 0002:0000093c       ??_C@_17OMAOINJK@?$AAS?$AAA?$AAM@ 1001f93c     MotionSensor.obj
 0002:00000944       ??_C@_1BC@IBECJAAI@?$AAS?$AAE?$AAC?$AAU?$AAR?$AAI?$AAT?$AAY@ 1001f944     MotionSensor.obj
 0002:00000958       ??_C@_1O@GBFINDKL@?$AAS?$AAY?$AAS?$AAT?$AAE?$AAM@ 1001f958     MotionSensor.obj
 0002:00000968       ??_C@_1BC@EAHCMADO@?$AAS?$AAo?$AAf?$AAt?$AAw?$AAa?$AAr?$AAe@ 1001f968     MotionSensor.obj
 0002:0000097c       ??_C@_1BA@JIHHIEDE@?$AAT?$AAy?$AAp?$AAe?$AAL?$AAi?$AAb@ 1001f97c     MotionSensor.obj
 0002:00000990       ?map@?1??HKeyFromString@CRegParser@ATL@@KAPAUHKEY__@@PA_W@Z@4QBUkeymap@?1??123@KAPAU4@0@Z@B 1001f990     MotionSensor.obj
 0002:00000a00       ??_C@_19NCHLBIN@?$AAH?$AAK?$AAC?$AAR@ 1001fa00     MotionSensor.obj
 0002:00000a0c       ??_C@_19JAPAIJDE@?$AAH?$AAK?$AAC?$AAU@ 1001fa0c     MotionSensor.obj
 0002:00000a18       ??_C@_19PEALEEJB@?$AAH?$AAK?$AAL?$AAM@ 1001fa18     MotionSensor.obj
 0002:00000a24       ??_C@_17PJOJPMPB@?$AAH?$AAK?$AAU@ 1001fa24     MotionSensor.obj
 0002:00000a2c       ??_C@_19PNBHMJPL@?$AAH?$AAK?$AAP?$AAD@ 1001fa2c     MotionSensor.obj
 0002:00000a38       ??_C@_19GFFAIJHG@?$AAH?$AAK?$AAD?$AAD@ 1001fa38     MotionSensor.obj
 0002:00000a44       ??_C@_19OFICIBHH@?$AAH?$AAK?$AAC?$AAC@ 1001fa44     MotionSensor.obj
 0002:00000a50       ??_C@_1CE@PACHPJFI@?$AAH?$AAK?$AAE?$AAY?$AA_?$AAC?$AAL?$AAA?$AAS?$AAS?$AAE?$AAS?$AA_?$AAR?$AAO@ 1001fa50     MotionSensor.obj
 0002:00000a74       ??_C@_1CE@HLHNCBPM@?$AAH?$AAK?$AAE?$AAY?$AA_?$AAC?$AAU?$AAR?$AAR?$AAE?$AAN?$AAT?$AA_?$AAU?$AAS@ 1001fa74     MotionSensor.obj
 0002:00000a98       ??_C@_1CG@GFBEANJL@?$AAH?$AAK?$AAE?$AAY?$AA_?$AAL?$AAO?$AAC?$AAA?$AAL?$AA_?$AAM?$AAA?$AAC?$AAH@ 1001fa98     MotionSensor.obj
 0002:00000ac0       ??_C@_1BG@BGODANIO@?$AAH?$AAK?$AAE?$AAY?$AA_?$AAU?$AAS?$AAE?$AAR?$AAS@ 1001fac0     MotionSensor.obj
 0002:00000ad8       ??_C@_1CM@KHNNAOIC@?$AAH?$AAK?$AAE?$AAY?$AA_?$AAP?$AAE?$AAR?$AAF?$AAO?$AAR?$AAM?$AAA?$AAN?$AAC@ 1001fad8     MotionSensor.obj
 0002:00000b04       ??_C@_1BM@HAGMMHIA@?$AAH?$AAK?$AAE?$AAY?$AA_?$AAD?$AAY?$AAN?$AA_?$AAD?$AAA?$AAT?$AAA@ 1001fb04     MotionSensor.obj
 0002:00000b20       ??_C@_1CI@BBJOACGG@?$AAH?$AAK?$AAE?$AAY?$AA_?$AAC?$AAU?$AAR?$AAR?$AAE?$AAN?$AAT?$AA_?$AAC?$AAO@ 1001fb20     MotionSensor.obj
 0002:00000b48       __GUID_00000112_0000_0000_c000_000000000046 1001fb48     MotionSensor.obj
 0002:00000b58       __GUID_00000109_0000_0000_c000_000000000046 1001fb58     MotionSensor.obj
 0002:00000b68       __GUID_7fd52380_4e07_101b_ae2d_08002b2ec713 1001fb68     MotionSensor.obj
 0002:00000b78       __GUID_3af24292_0c96_11ce_a0cf_00aa00600ab8 1001fb78     MotionSensor.obj
 0002:00000b88       __GUID_00000127_0000_0000_c000_000000000046 1001fb88     MotionSensor.obj
 0002:00000b98       __GUID_0000010d_0000_0000_c000_000000000046 1001fb98     MotionSensor.obj
 0002:00000ba8       ??_C@_1M@PPPPCDEP@?$AAA?$AAP?$AAP?$AAI?$AAD@ 1001fba8     MotionSensor.obj
 0002:00000bb8       ??_C@_1EA@NHKLICFA@?$AAH?$AAK?$AAC?$AAU?$AA?$AN?$AA?6?$AA?$HL?$AA?7?$AAS?$AAo?$AAf?$AAt?$AAw?$AAa?$AAr@ 1001fbb8     MotionSensor.obj
 0002:00000bf8       ??_C@_1BE@LJOLIMEM@?$AA?$AN?$AA?6?$AA?7?$AA?$HN?$AA?$AN?$AA?6?$AA?$HN?$AA?$AN?$AA?6@ 1001fbf8     MotionSensor.obj
 0002:00000c0c       ??_C@_1O@MNLDABAF@?$AAM?$AAo?$AAd?$AAu?$AAl?$AAe@ 1001fc0c     MotionSensor.obj
 0002:00000c1c       ??_C@_1BG@JBACFMF@?$AAM?$AAo?$AAd?$AAu?$AAl?$AAe?$AA_?$AAR?$AAa?$AAw@ 1001fc1c     MotionSensor.obj
 0002:00000c34       ??_C@_1BC@KAILKFFG@?$AAR?$AAE?$AAG?$AAI?$AAS?$AAT?$AAR?$AAY@ 1001fc34     MotionSensor.obj
 0002:00000c48       ??_7?$CComContainedObject@VCOPOSMotionSensor@@@ATL@@6B?$IDispatchImpl@UIOPOSMotionSensor@@$1?IID_IOPOSMotionSensor@@3U_GUID@@B$1?LIBID_OposMotionSensor_CCO@@3U3@B$00$0A@VCComTypeInfoHolder@ATL@@@1@@ 1001fc48     MotionSensor.obj
 0002:00000d20       ??_7?$CComContainedObject@VCOPOSMotionSensor@@@ATL@@6BCComControlBase@1@@ 1001fd20     MotionSensor.obj
 0002:00000d34       ??_7?$CComContainedObject@VCOPOSMotionSensor@@@ATL@@6B?$CWindowImpl@VCOPOSMotionSensor@@VCWindow@ATL@@V?$CWinTraits@$0FGAAAAAA@$0A@@3@@1@@ 1001fd34     MotionSensor.obj
 0002:00000d44       ??_7?$CComContainedObject@VCOPOSMotionSensor@@@ATL@@6B?$IPersistStreamInitImpl@VCOPOSMotionSensor@@@1@@ 1001fd44     MotionSensor.obj
 0002:00000d68       ??_7?$CComContainedObject@VCOPOSMotionSensor@@@ATL@@6B?$IOleControlImpl@VCOPOSMotionSensor@@@1@@ 1001fd68     MotionSensor.obj
 0002:00000d84       ??_7?$CComContainedObject@VCOPOSMotionSensor@@@ATL@@6B?$IOleObjectImpl@VCOPOSMotionSensor@@@1@@ 1001fd84     MotionSensor.obj
 0002:00000de4       ??_7?$CComContainedObject@VCOPOSMotionSensor@@@ATL@@6B?$IOleInPlaceActiveObjectImpl@VCOPOSMotionSensor@@@1@@ 1001fde4     MotionSensor.obj
 0002:00000e0c       ??_7?$CComContainedObject@VCOPOSMotionSensor@@@ATL@@6B?$IViewObjectExImpl@VCOPOSMotionSensor@@@1@@ 1001fe0c     MotionSensor.obj
 0002:00000e48       ??_7?$CComContainedObject@VCOPOSMotionSensor@@@ATL@@6B?$IOleInPlaceObjectWindowlessImpl@VCOPOSMotionSensor@@@1@@ 1001fe48     MotionSensor.obj
 0002:00000e74       ??_7?$CComContainedObject@VCOPOSMotionSensor@@@ATL@@6B?$IConnectionPointContainerImpl@VCOPOSMotionSensor@@@1@@ 1001fe74     MotionSensor.obj
 0002:00000e88       ??_7?$CComContainedObject@VCOPOSMotionSensor@@@ATL@@6B?$IPersistStorageImpl@VCOPOSMotionSensor@@@1@@ 1001fe88     MotionSensor.obj
 0002:00000eb0       ??_7?$CComContainedObject@VCOPOSMotionSensor@@@ATL@@6B?$ISpecifyPropertyPagesImpl@VCOPOSMotionSensor@@@1@@ 1001feb0     MotionSensor.obj
 0002:00000ec0       ??_7?$CComContainedObject@VCOPOSMotionSensor@@@ATL@@6B?$IQuickActivateImpl@VCOPOSMotionSensor@@@1@@ 1001fec0     MotionSensor.obj
 0002:00000ed8       ??_7?$CComContainedObject@VCOPOSMotionSensor@@@ATL@@6B?$IDataObjectImpl@VCOPOSMotionSensor@@@1@@ 1001fed8     MotionSensor.obj
 0002:00000f08       ??_7?$CComContainedObject@VCOPOSMotionSensor@@@ATL@@6B?$IProvideClassInfo2Impl@$1?CLSID_OPOSMotionSensor@@3U_GUID@@B$1?DIID__IOPOSMotionSensorEvents@@3U2@B$1?LIBID_OposMotionSensor_CCO@@3U2@B$00$0A@VCComTypeInfoHolder@ATL@@@1@@ 1001ff08     MotionSensor.obj
 0002:00000f1c       ??_7?$CComContainedObject@VCOPOSMotionSensor@@@ATL@@6B?$IObjectSafetyImpl@VCOPOSMotionSensor@@$02@1@@ 1001ff1c     MotionSensor.obj
 0002:00000f34       ??_7?$CComContainedObject@VCOPOSMotionSensor@@@ATL@@6B?$IPropertyNotifySinkCP@VCOPOSMotionSensor@@VCComDynamicUnkArray@ATL@@@1@@ 1001ff34     MotionSensor.obj
 0002:00000f54       ??_7?$CComContainedObject@VCOPOSMotionSensor@@@ATL@@6B?$CProxy_IOPOSEvents@VCOPOSMotionSensor@@@@@ 1001ff54     MotionSensor.obj
 0002:00000f74       ??_7?$CComAggObject@VCOPOSMotionSensor@@@ATL@@6B@ 1001ff74     MotionSensor.obj
 0002:00000f84       ??_7?$CComObject@VCOPOSMotionSensor@@@ATL@@6B?$IDispatchImpl@UIOPOSMotionSensor@@$1?IID_IOPOSMotionSensor@@3U_GUID@@B$1?LIBID_OposMotionSensor_CCO@@3U3@B$00$0A@VCComTypeInfoHolder@ATL@@@1@@ 1001ff84     MotionSensor.obj
 0002:0000105c       ??_7?$CComObject@VCOPOSMotionSensor@@@ATL@@6BCComControlBase@1@@ 1002005c     MotionSensor.obj
 0002:00001070       ??_7?$CComObject@VCOPOSMotionSensor@@@ATL@@6B?$CWindowImpl@VCOPOSMotionSensor@@VCWindow@ATL@@V?$CWinTraits@$0FGAAAAAA@$0A@@3@@1@@ 10020070     MotionSensor.obj
 0002:00001080       ??_7?$CComObject@VCOPOSMotionSensor@@@ATL@@6B?$IPersistStreamInitImpl@VCOPOSMotionSensor@@@1@@ 10020080     MotionSensor.obj
 0002:000010a4       ??_7?$CComObject@VCOPOSMotionSensor@@@ATL@@6B?$IOleControlImpl@VCOPOSMotionSensor@@@1@@ 100200a4     MotionSensor.obj
 0002:000010c0       ??_7?$CComObject@VCOPOSMotionSensor@@@ATL@@6B?$IOleObjectImpl@VCOPOSMotionSensor@@@1@@ 100200c0     MotionSensor.obj
 0002:00001120       ??_7?$CComObject@VCOPOSMotionSensor@@@ATL@@6B?$IOleInPlaceActiveObjectImpl@VCOPOSMotionSensor@@@1@@ 10020120     MotionSensor.obj
 0002:00001148       ??_7?$CComObject@VCOPOSMotionSensor@@@ATL@@6B?$IViewObjectExImpl@VCOPOSMotionSensor@@@1@@ 10020148     MotionSensor.obj
 0002:00001184       ??_7?$CComObject@VCOPOSMotionSensor@@@ATL@@6B?$IOleInPlaceObjectWindowlessImpl@VCOPOSMotionSensor@@@1@@ 10020184     MotionSensor.obj
 0002:000011b0       ??_7?$CComObject@VCOPOSMotionSensor@@@ATL@@6B?$IConnectionPointContainerImpl@VCOPOSMotionSensor@@@1@@ 100201b0     MotionSensor.obj
 0002:000011c4       ??_7?$CComObject@VCOPOSMotionSensor@@@ATL@@6B?$IPersistStorageImpl@VCOPOSMotionSensor@@@1@@ 100201c4     MotionSensor.obj
 0002:000011ec       ??_7?$CComObject@VCOPOSMotionSensor@@@ATL@@6B?$ISpecifyPropertyPagesImpl@VCOPOSMotionSensor@@@1@@ 100201ec     MotionSensor.obj
 0002:000011fc       ??_7?$CComObject@VCOPOSMotionSensor@@@ATL@@6B?$IQuickActivateImpl@VCOPOSMotionSensor@@@1@@ 100201fc     MotionSensor.obj
 0002:00001214       ??_7?$CComObject@VCOPOSMotionSensor@@@ATL@@6B?$IDataObjectImpl@VCOPOSMotionSensor@@@1@@ 10020214     MotionSensor.obj
 0002:00001244       ??_7?$CComObject@VCOPOSMotionSensor@@@ATL@@6B?$IProvideClassInfo2Impl@$1?CLSID_OPOSMotionSensor@@3U_GUID@@B$1?DIID__IOPOSMotionSensorEvents@@3U2@B$1?LIBID_OposMotionSensor_CCO@@3U2@B$00$0A@VCComTypeInfoHolder@ATL@@@1@@ 10020244     MotionSensor.obj
 0002:00001258       ??_7?$CComObject@VCOPOSMotionSensor@@@ATL@@6B?$IObjectSafetyImpl@VCOPOSMotionSensor@@$02@1@@ 10020258     MotionSensor.obj
 0002:00001270       ??_7?$CComObject@VCOPOSMotionSensor@@@ATL@@6B?$IPropertyNotifySinkCP@VCOPOSMotionSensor@@VCComDynamicUnkArray@ATL@@@1@@ 10020270     MotionSensor.obj
 0002:00001290       ??_7?$CComObject@VCOPOSMotionSensor@@@ATL@@6B?$CProxy_IOPOSEvents@VCOPOSMotionSensor@@@@@ 10020290     MotionSensor.obj
 0002:000012b0       ??_C@_1O@GBFKGNEO@?$AAA?$AAT?$AAL?$AA?3?$AA?$CF?$AAp@ 100202b0     MotionSensor.obj
 0002:000012c0       ??_C@_1BA@PICGEGJB@?$AAD?$AAI?$AAS?$AAP?$AAL?$AAA?$AAY@ 100202c0     MotionSensor.obj
 0002:000012d0       __GUID_9bfbbc02_eff1_101a_84ed_00aa00341d07 100202d0     MotionSensor.obj
 0002:000012e0       ?_entries@?1??_GetEntries@?$CComEnum@UIEnumConnectionPoints@@$1?_GUID_b196b285_bab4_101a_b69c_00aa00341d07@@3U__s_GUID@@BPAUIConnectionPoint@@V?$_CopyInterface@UIConnectionPoint@@@ATL@@VCComSingleThreadModel@6@@ATL@@SGPBU_ATL_INTMAP_ENTRY@3@XZ@4QBU43@B 100202e0     MotionSensor.obj
 0002:000012f8       __GUID_b196b284_bab4_101a_b69c_00aa00341d07 100202f8     MotionSensor.obj
 0002:00001308       __GUID_00020412_0000_0000_c000_000000000046 10020308     MotionSensor.obj
 0002:00001318       __GUID_00020401_0000_0000_c000_000000000046 10020318     MotionSensor.obj
 0002:00001328       ??_7?$CComObject@V?$CComEnum@UIEnumConnections@@$1?_GUID_b196b287_bab4_101a_b69c_00aa00341d07@@3U__s_GUID@@BUtagCONNECTDATA@@V?$_Copy@UtagCONNECTDATA@@@ATL@@VCComSingleThreadModel@6@@ATL@@@ATL@@6B@ 10020328     MotionSensor.obj
 0002:00001348       __GUID_55980ba0_35aa_11cf_b671_00aa004cd6d8 10020348     MotionSensor.obj
 0002:00001358       __GUID_b196b28b_bab4_101a_b69c_00aa00341d07 10020358     MotionSensor.obj
 0002:00001368       ?_entries@?1??_GetEntries@?$CComEnum@UIEnumConnections@@$1?_GUID_b196b287_bab4_101a_b69c_00aa00341d07@@3U__s_GUID@@BUtagCONNECTDATA@@V?$_Copy@UtagCONNECTDATA@@@ATL@@VCComSingleThreadModel@6@@ATL@@SGPBU_ATL_INTMAP_ENTRY@3@XZ@4QBU43@B 10020368     MotionSensor.obj
 0002:00001380       ??_C@_0BG@EKFFMJIO@RegOpenKeyTransactedW@ 10020380     MotionSensor.obj
 0002:00001398       ??_C@_0BI@HAKLOOGP@RegDeleteKeyTransactedW@ 10020398     MotionSensor.obj
 0002:000013b0       ??_C@_0BA@LILAPHGE@RegDeleteKeyExW@ 100203b0     MotionSensor.obj
 0002:000013c0       ??_C@_19ILOCMLCJ@?$AA?4?$AAt?$AAl?$AAb@ 100203c0     MotionSensor.obj
 0002:000013cc       __GUID_0002e012_0000_0000_c000_000000000046 100203cc     MotionSensor.obj
 0002:000013dc       ??_C@_1O@FHBGLCIO@?$AAC?$AAL?$AAS?$AAI?$AAD?$AA?2@ 100203dc     MotionSensor.obj
 0002:000013ec       ??_C@_1CK@IFBKBFAA@?$AA?2?$AAR?$AAe?$AAq?$AAu?$AAi?$AAr?$AAe?$AAd?$AA?5?$AAC?$AAa?$AAt?$AAe?$AAg@ 100203ec     MotionSensor.obj
 0002:00001418       ??_C@_1DA@BIHALFED@?$AA?2?$AAI?$AAm?$AAp?$AAl?$AAe?$AAm?$AAe?$AAn?$AAt?$AAe?$AAd?$AA?5?$AAC?$AAa@ 10020418     MotionSensor.obj
 0002:00001448       ??_C@_1BK@EDKOLFBJ@?$AAO?$AAL?$AAE?$AAA?$AAU?$AAT?$AA3?$AA2?$AA?4?$AAD?$AAL?$AAL@ 10020448     MotionSensor.obj
 0002:00001464       ??_C@_0BJ@CNLFOMHB@UnRegisterTypeLibForUser@ 10020464     MotionSensor.obj
 0002:00001480       ??_C@_0BH@LBOMMKPJ@RegisterTypeLibForUser@ 10020480     MotionSensor.obj
 0002:00001498       ??_C@_0P@MMNMMLGK@COFreezeEvents@ 10020498     MotionSensorImpl.obj
 0002:000014a8       ??_C@_0BC@OGCGGIMP@GetPropertyNumber@ 100204a8     MotionSensorImpl.obj
 0002:000014bc       ??_C@_0BC@MDCNODNB@SetPropertyNumber@ 100204bc     MotionSensorImpl.obj
 0002:000014d0       ??_C@_0BC@CFCCMIMD@GetPropertyString@ 100204d0     MotionSensorImpl.obj
 0002:000014e4       ??_C@_0BC@CJEDNN@SetPropertyString@ 100204e4     MotionSensorImpl.obj
 0002:000014f8       ??_C@_0M@LNPKKKDA@OpenService@ 100204f8     MotionSensorImpl.obj
 0002:00001504       ??_C@_0M@PCMCHHMH@CheckHealth@ 10020504     MotionSensorImpl.obj
 0002:00001510       ??_C@_0M@JGMIDNEK@ClaimDevice@ 10020510     MotionSensorImpl.obj
 0002:0000151c       ??_C@_0N@DDFIIBMP@CloseService@ 1002051c     MotionSensorImpl.obj
 0002:0000152c       ??_C@_08EEIHICPC@DirectIO@ 1002052c     MotionSensorImpl.obj
 0002:00001538       ??_C@_0O@BCPMENMJ@ReleaseDevice@ 10020538     MotionSensorImpl.obj
 0002:00001548       ??_C@_0O@JEBLKBKN@WaitForMotion@ 10020548     MotionSensorImpl.obj
 0002:00001558       ??_C@_0BA@GFABKEEE@ResetStatistics@ 10020558     MotionSensorImpl.obj
 0002:00001568       ??_C@_0BD@DPALHJGC@RetrieveStatistics@ 10020568     MotionSensorImpl.obj
 0002:0000157c       ??_C@_0BB@KOHIKNFC@UpdateStatistics@ 1002057c     MotionSensorImpl.obj
 0002:00001590       ??_C@_0BH@PBKBNMGB@CompareFirmwareVersion@ 10020590     MotionSensorImpl.obj
 0002:000015a8       ??_C@_0P@FBPDPIPA@UpdateFirmware@ 100205a8     MotionSensorImpl.obj
 0002:000015b8       ??_7?$CProxy_IOPOSEvents@VCOPOSMotionSensor@@@@6B@ 100205b8     MotionSensorImpl.obj
 0002:000015d8       ??_C@_1BA@IFHENID@?$AA?$FL?$AAE?$AAr?$AAr?$AAo?$AAr?$AA?$FN@ 100205d8     MotionSensorImpl.obj
 0002:000015e8       ??_C@_0CP@IKDGJGNJ@SOFTWARE?2OLEforRetail?2ServiceOP@ 100205e8     MotionSensorImpl.obj
 0002:00001618       ??_C@_1M@IAIJHCCH@?$AAC?$AAl?$AAo?$AAs?$AAe@ 10020618     MotionSensorImpl.obj
 0002:00001624       ??_C@_1M@PCPKGJAH@?$AAC?$AAl?$AAa?$AAi?$AAm@ 10020624     MotionSensorImpl.obj
 0002:00001630       ??_C@_1BA@NDFKIOCP@?$AAR?$AAe?$AAl?$AAe?$AAa?$AAs?$AAe@ 10020630     MotionSensorImpl.obj
 0002:00001640       ??_C@_0N@DOFAHFBC@MotionSensor@ 10020640     MotionSensorImpl.obj
 0002:00001650       ??_C@_1BM@IJMNMBPK@?$AAG?$AAe?$AAt?$AAO?$AAp?$AAe?$AAn?$AAR?$AAe?$AAs?$AAu?$AAl?$AAt@ 10020650     MotionSensorImpl.obj
 0002:0000166c       _IID_IPropertyNotifySink   1002066c     uuid:ocidl_i.obj
 0002:0000167c       _GUID_NULL                 1002067c     uuid:cguid_i.obj
 0002:0000168c       _CLSID_StdGlobalInterfaceTable 1002068c     uuid:cguid_i.obj
 0002:0000169c       _IID_IDispatch             1002069c     uuid:oaidl_i.obj
 0002:000016ac       _CLSID_StdComponentCategoriesMgr 100206ac     uuid:ieguids.obj
 0002:000016bc       _IID_IUnknown              100206bc     uuid:unknwn_i.obj
 0002:000016d0       ??_C@_1EC@JIJBPKFM@?$AAa?$AAp?$AAi?$AA?9?$AAm?$AAs?$AA?9?$AAw?$AAi?$AAn?$AA?9?$AAc?$AAo?$AAr?$AAe@ 100206d0     LIBCMT:thread_safe_statics.obj
 0002:00001714       ??_C@_1BK@MGMFAEKH@?$AAk?$AAe?$AAr?$AAn?$AAe?$AAl?$AA3?$AA2?$AA?4?$AAd?$AAl?$AAl@ 10020714     LIBCMT:thread_safe_statics.obj
 0002:00001730       ??_C@_0BJ@JEBJOJFJ@SleepConditionVariableCS@ 10020730     LIBCMT:thread_safe_statics.obj
 0002:0000174c       ??_C@_0BJ@PGPPEPCC@WakeAllConditionVariable@ 1002074c     LIBCMT:thread_safe_statics.obj
 0002:00001765       ?nothrow@std@@3Unothrow_t@1@B 10020765     LIBCMT:std_nothrow.obj
 0002:00001770       __pRawDllMain              10020770     LIBCMT:dll_dllmain.obj
 0002:00001770       __pDefaultRawDllMain       10020770     LIBCMT:dll_dllmain.obj
 0002:00001778       ??_7exception@std@@6B@     10020778     LIBCMT:throw_bad_alloc.obj
 0002:00001780       ??_C@_0BC@EOODALEL@Unknown?5exception@ 10020780     LIBCMT:throw_bad_alloc.obj
 0002:00001798       ??_7bad_alloc@std@@6B@     10020798     LIBCMT:throw_bad_alloc.obj
 0002:000017a0       ??_C@_0P@GHFPNOJB@bad?5allocation@ 100207a0     LIBCMT:throw_bad_alloc.obj
 0002:000017b4       ??_7bad_array_new_length@std@@6B@ 100207b4     LIBCMT:throw_bad_alloc.obj
 0002:000017bc       ??_C@_0BF@KINCDENJ@bad?5array?5new?5length@ 100207bc     LIBCMT:throw_bad_alloc.obj
 0002:000017d8       ??_7type_info@@6B@         100207d8     LIBCMT:std_type_info_static.obj
 0002:000017dc       _GUID_ATLVer110            100207dc     atls:atlbase.obj
 0002:000017f0       ??_C@_1IC@ONKHOIDK@?$AAE?$AAR?$AAR?$AAO?$AAR?$AA?5?$AA?3?$AA?5?$AAU?$AAn?$AAa?$AAb?$AAl?$AAe?$AA?5@ 100207f0     atls:atlbase.obj
 0002:00001874       ??_C@_0N@FJEPLCIH@atlthunk?4dll@ 10020874     atls:atlthunk.obj
 0002:00001884       ??_C@_0BG@GAKFHCBM@AtlThunk_AllocateData@ 10020884     atls:atlthunk.obj
 0002:0000189c       ??_C@_0BC@JKONFIAH@AtlThunk_InitData@ 1002089c     atls:atlthunk.obj
 0002:000018b0       ??_C@_0BE@IAOEELAK@AtlThunk_DataToCode@ 100208b0     atls:atlthunk.obj
 0002:000018c4       ??_C@_0BC@GBGKAIPI@AtlThunk_FreeData@ 100208c4     atls:atlthunk.obj
 0002:000018d8       __pDestructExceptionObject 100208d8     libvcruntime:ehhelpers.obj
 0002:000018e0       ??_7bad_exception@std@@6B@ 100208e0     libvcruntime:frame.obj
 0002:000018e8       ??_C@_0O@DPKOEFFH@bad?5exception@ 100208e8     libvcruntime:frame.obj
 0002:00001c78       ??_C@_08EHJDFFNH@__based?$CI@ 10020c78     libvcruntime:undname.obj
 0002:00001c84       ??_C@_07KOLFKCDI@__cdecl@  10020c84     libvcruntime:undname.obj
 0002:00001c8c       ??_C@_08GHMPAG@__pascal@   10020c8c     libvcruntime:undname.obj
 0002:00001c98       ??_C@_09IFJBGAPI@__stdcall@ 10020c98     libvcruntime:undname.obj
 0002:00001ca4       ??_C@_0L@NPHFGOKO@__thiscall@ 10020ca4     libvcruntime:undname.obj
 0002:00001cb0       ??_C@_0L@JMKHOMEK@__fastcall@ 10020cb0     libvcruntime:undname.obj
 0002:00001cbc       ??_C@_0N@BCKKPABJ@__vectorcall@ 10020cbc     libvcruntime:undname.obj
 0002:00001ccc       ??_C@_09HIJEGCPM@__clrcall@ 10020ccc     libvcruntime:undname.obj
 0002:00001cd8       ??_C@_06GHPCKEAG@__eabi@   10020cd8     libvcruntime:undname.obj
 0002:00001ce0       ??_C@_09IOPIDJLG@__swift_1@ 10020ce0     libvcruntime:undname.obj
 0002:00001cec       ??_C@_09KFNFGKHF@__swift_2@ 10020cec     libvcruntime:undname.obj
 0002:00001cf8       ??_C@_07JOMMBBKO@__ptr64@  10020cf8     libvcruntime:undname.obj
 0002:00001d00       ??_C@_0L@PILCLIHE@__restrict@ 10020d00     libvcruntime:undname.obj
 0002:00001d0c       ??_C@_0M@GFIIJFMG@__unaligned@ 10020d0c     libvcruntime:undname.obj
 0002:00001d18       ??_C@_09DHDLOLLB@restrict?$CI@ 10020d18     libvcruntime:undname.obj
 0002:00001d22       ??_C@_00CNPNBAHC@@         10020d22     libvcruntime:undname.obj
 0002:00001d24       ??_C@_04NIHEBCM@?5new@     10020d24     libvcruntime:undname.obj
 0002:00001d2c       ??_C@_07FPCDHGMM@?5delete@ 10020d2c     libvcruntime:undname.obj
 0002:00001d34       ??_C@_01NEMOKFLO@?$DN@     10020d34     libvcruntime:undname.obj
 0002:00001d38       ??_C@_02GPIOPFAK@?$DO?$DO@ 10020d38     libvcruntime:undname.obj
 0002:00001d3c       ??_C@_02FODMEDOG@?$DM?$DM@ 10020d3c     libvcruntime:undname.obj
 0002:00001d40       ??_C@_01DCLJPIOD@?$CB@     10020d40     libvcruntime:undname.obj
 0002:00001d44       ??_C@_02EGOFBIJA@?$DN?$DN@ 10020d44     libvcruntime:undname.obj
 0002:00001d48       ??_C@_02FDNJECIE@?$CB?$DN@ 10020d48     libvcruntime:undname.obj
 0002:00001d4c       ??_C@_02GPECMEKF@?$FL?$FN@ 10020d4c     libvcruntime:undname.obj
 0002:00001d50       ??_C@_08LHJFAFGD@operator@ 10020d50     libvcruntime:undname.obj
 0002:00001d5c       ??_C@_02HBOOOICD@?9?$DO@   10020d5c     libvcruntime:undname.obj
 0002:00001d60       ??_C@_01NBENCBCI@?$CK@     10020d60     libvcruntime:undname.obj
 0002:00001d64       ??_C@_02ECNGHCIF@?$CL?$CL@ 10020d64     libvcruntime:undname.obj
 0002:00001d68       ??_C@_02BAABKJLB@?9?9@     10020d68     libvcruntime:undname.obj
 0002:00001d6c       ??_C@_01JOAMLHOP@?9@       10020d6c     libvcruntime:undname.obj
 0002:00001d70       ??_C@_01MIFGBAGJ@?$CL@     10020d70     libvcruntime:undname.obj
 0002:00001d74       ??_C@_01HNPIGOCE@?$CG@     10020d74     libvcruntime:undname.obj
 0002:00001d78       ??_C@_03MNHNFDLC@?9?$DO?$CK@ 10020d78     libvcruntime:undname.obj
 0002:00001d7c       ??_C@_01KMDKNFGN@?1@       10020d7c     libvcruntime:undname.obj
 0002:00001d80       ??_C@_01FGNFDNOH@?$CF@     10020d80     libvcruntime:undname.obj
 0002:00001d84       ??_C@_01MNNFJEPP@?$DM@     10020d84     libvcruntime:undname.obj
 0002:00001d88       ??_C@_02EHCHHCKH@?$DM?$DN@ 10020d88     libvcruntime:undname.obj
 0002:00001d8c       ??_C@_01PPODPGHN@?$DO@     10020d8c     libvcruntime:undname.obj
 0002:00001d90       ??_C@_02EEKDKGMJ@?$DO?$DN@ 10020d90     libvcruntime:undname.obj
 0002:00001d94       ??_C@_01IHBHIGKO@?0@       10020d94     libvcruntime:undname.obj
 0002:00001d98       ??_C@_02HCKGKOFO@?$CI?$CJ@ 10020d98     libvcruntime:undname.obj
 0002:00001d9c       ??_C@_01PJKLJHI@?$HO@      10020d9c     libvcruntime:undname.obj
 0002:00001da0       ??_C@_01JKBOJNNK@?$FO@     10020da0     libvcruntime:undname.obj
 0002:00001da4       ??_C@_01DNKMNLPK@?$HM@     10020da4     libvcruntime:undname.obj
 0002:00001da8       ??_C@_02PPKAJPJL@?$CG?$CG@ 10020da8     libvcruntime:undname.obj
 0002:00001dac       ??_C@_02NONPIBCD@?$HM?$HM@ 10020dac     libvcruntime:undname.obj
 0002:00001db0       ??_C@_02FPIMKNGF@?$CK?$DN@ 10020db0     libvcruntime:undname.obj
 0002:00001db4       ??_C@_02FOEOMHFC@?$CL?$DN@ 10020db4     libvcruntime:undname.obj
 0002:00001db8       ??_C@_02FKMDLLOA@?9?$DN@   10020db8     libvcruntime:undname.obj
 0002:00001dbc       ??_C@_02FJEHGPIO@?1?$DN@   10020dbc     libvcruntime:undname.obj
 0002:00001dc0       ??_C@_02FENAOKFI@?$CF?$DN@ 10020dc0     libvcruntime:undname.obj
 0002:00001dc4       ??_C@_03IKFCCPFF@?$DO?$DO?$DN@ 10020dc4     libvcruntime:undname.obj
 0002:00001dc8       ??_C@_03CDNPDDLA@?$DM?$DM?$DN@ 10020dc8     libvcruntime:undname.obj
 0002:00001dcc       ??_C@_02FGJGFEAB@?$CG?$DN@ 10020dcc     libvcruntime:undname.obj
 0002:00001dd0       ??_C@_02DHLNPPGH@?$HM?$DN@ 10020dd0     libvcruntime:undname.obj
 0002:00001dd4       ??_C@_02MHEGNOJ@?$FO?$DN@  10020dd4     libvcruntime:undname.obj
 0002:00001dd8       ??_C@_09IFPLHPGF@?$GAvftable?8@ 10020dd8     libvcruntime:undname.obj
 0002:00001de4       ??_C@_09BLBHBJP@?$GAvbtable?8@ 10020de4     libvcruntime:undname.obj
 0002:00001df0       ??_C@_07FEEIOKP@?$GAvcall?8@ 10020df0     libvcruntime:undname.obj
 0002:00001df8       ??_C@_08LLFFHHDJ@?$GAtypeof?8@ 10020df8     libvcruntime:undname.obj
 0002:00001e04       ??_C@_0BF@KDPPACIK@?$GAlocal?5static?5guard?8@ 10020e04     libvcruntime:undname.obj
 0002:00001e1c       ??_C@_08OBABFOLI@?$GAstring?8@ 10020e1c     libvcruntime:undname.obj
 0002:00001e28       ??_C@_0BD@JDLKDPAB@?$GAvbase?5destructor?8@ 10020e28     libvcruntime:undname.obj
 0002:00001e3c       ??_C@_0BN@DEGPLNFK@?$GAvector?5deleting?5destructor?8@ 10020e3c     libvcruntime:undname.obj
 0002:00001e5c       ??_C@_0BO@OBMKPJIG@?$GAdefault?5constructor?5closure?8@ 10020e5c     libvcruntime:undname.obj
 0002:00001e7c       ??_C@_0BN@IMDCHIKM@?$GAscalar?5deleting?5destructor?8@ 10020e7c     libvcruntime:undname.obj
 0002:00001e9c       ??_C@_0BO@PFGOCPJJ@?$GAvector?5constructor?5iterator?8@ 10020e9c     libvcruntime:undname.obj
 0002:00001ebc       ??_C@_0BN@LFPFMEDL@?$GAvector?5destructor?5iterator?8@ 10020ebc     libvcruntime:undname.obj
 0002:00001edc       ??_C@_0CE@IKBNEHA@?$GAvector?5vbase?5constructor?5itera@ 10020edc     libvcruntime:undname.obj
 0002:00001f00       ??_C@_0BL@NILFHHPC@?$GAvirtual?5displacement?5map?8@ 10020f00     libvcruntime:undname.obj
 0002:00001f1c       ??_C@_0CB@JONCMFFK@?$GAeh?5vector?5constructor?5iterator@ 10020f1c     libvcruntime:undname.obj
 0002:00001f40       ??_C@_0CA@GCEOPDGL@?$GAeh?5vector?5destructor?5iterator?8@ 10020f40     libvcruntime:undname.obj
 0002:00001f60       ??_C@_0CH@OOJPLCPH@?$GAeh?5vector?5vbase?5constructor?5it@ 10020f60     libvcruntime:undname.obj
 0002:00001f88       ??_C@_0BL@LLKPOHJI@?$GAcopy?5constructor?5closure?8@ 10020f88     libvcruntime:undname.obj
 0002:00001fa4       ??_C@_0BA@KBCDOMBN@?$GAudt?5returning?8@ 10020fa4     libvcruntime:undname.obj
 0002:00001fb4       ??_C@_03KLGMFNMG@?$GAEH@   10020fb4     libvcruntime:undname.obj
 0002:00001fb8       ??_C@_05KHLCHHI@?$GARTTI@  10020fb8     libvcruntime:undname.obj
 0002:00001fc0       ??_C@_0BA@KKLDJDLB@?$GAlocal?5vftable?8@ 10020fc0     libvcruntime:undname.obj
 0002:00001fd0       ??_C@_0CE@IIHCMGGL@?$GAlocal?5vftable?5constructor?5clos@ 10020fd0     libvcruntime:undname.obj
 0002:00001ff4       ??_C@_06FHBGPFGH@?5new?$FL?$FN@ 10020ff4     libvcruntime:undname.obj
 0002:00001ffc       ??_C@_09LBNFPBCA@?5delete?$FL?$FN@ 10020ffc     libvcruntime:undname.obj
 0002:00002008       ??_C@_0P@HJKNJFNN@?$GAomni?5callsig?8@ 10021008     libvcruntime:undname.obj
 0002:00002018       ??_C@_0BL@CNOONJFP@?$GAplacement?5delete?5closure?8@ 10021018     libvcruntime:undname.obj
 0002:00002034       ??_C@_0BN@CKNJLHMB@?$GAplacement?5delete?$FL?$FN?5closure?8@ 10021034     libvcruntime:undname.obj
 0002:00002054       ??_C@_0CG@CFDHKGGD@?$GAmanaged?5vector?5constructor?5ite@ 10021054     libvcruntime:undname.obj
 0002:0000207c       ??_C@_0CF@IMGKMJNO@?$GAmanaged?5vector?5destructor?5iter@ 1002107c     libvcruntime:undname.obj
 0002:000020a4       ??_C@_0CG@HLDDJMAG@?$GAeh?5vector?5copy?5constructor?5ite@ 100210a4     libvcruntime:undname.obj
 0002:000020cc       ??_C@_0CM@FCBBDIGB@?$GAeh?5vector?5vbase?5copy?5construct@ 100210cc     libvcruntime:undname.obj
 0002:000020f8       ??_C@_0BL@CLIPGLGB@?$GAdynamic?5initializer?5for?5?8@ 100210f8     libvcruntime:undname.obj
 0002:00002114       ??_C@_0CB@PDBIFEP@?$GAdynamic?5atexit?5destructor?5for?5@ 10021114     libvcruntime:undname.obj
 0002:00002138       ??_C@_0CD@CGAJBKEJ@?$GAvector?5copy?5constructor?5iterat@ 10021138     libvcruntime:undname.obj
 0002:0000215c       ??_C@_0CJ@GJELGAMM@?$GAvector?5vbase?5copy?5constructor?5@ 1002115c     libvcruntime:undname.obj
 0002:00002188       ??_C@_0CL@FGIJHLCE@?$GAmanaged?5vector?5copy?5constructo@ 10021188     libvcruntime:undname.obj
 0002:000021b4       ??_C@_0BM@PMGGMLDN@?$GAlocal?5static?5thread?5guard?8@ 100211b4     libvcruntime:undname.obj
 0002:000021d0       ??_C@_0N@BDNMDMOL@operator?5?$CC?$CC?5@ 100211d0     libvcruntime:undname.obj
 0002:000021e0       ??_C@_0BC@GGEBGALA@operator?5co_await@ 100211e0     libvcruntime:undname.obj
 0002:000021f4       ??_C@_0M@GAAIMMOH@operator?$DM?$DN?$DO@ 100211f4     libvcruntime:undname.obj
 0002:00002200       ??_C@_0BC@DAFEJGAK@?5Type?5Descriptor?8@ 10021200     libvcruntime:undname.obj
 0002:00002214       ??_C@_0BM@LDKODKLH@?5Base?5Class?5Descriptor?5at?5?$CI@ 10021214     libvcruntime:undname.obj
 0002:00002230       ??_C@_0BD@LGICGFMM@?5Base?5Class?5Array?8@ 10021230     libvcruntime:undname.obj
 0002:00002244       ??_C@_0BN@MECKDCOJ@?5Class?5Hierarchy?5Descriptor?8@ 10021244     libvcruntime:undname.obj
 0002:00002264       ??_C@_0BK@CFCOFLF@?5Complete?5Object?5Locator?8@ 10021264     libvcruntime:undname.obj
 0002:00002280       ??_C@_0BG@JNJLAMPM@?$GAanonymous?5namespace?8@ 10021280     libvcruntime:undname.obj
 0002:000022a4       ??_C@_1DM@KHCHBNEB@?$AAa?$AAp?$AAi?$AA?9?$AAm?$AAs?$AA?9?$AAw?$AAi?$AAn?$AA?9?$AAc?$AAo?$AAr?$AAe@ 100212a4     libvcruntime:winapi_downlevel.obj
 0002:000022e0       ??_C@_1DK@LPPGFMPP@?$AAa?$AAp?$AAi?$AA?9?$AAm?$AAs?$AA?9?$AAw?$AAi?$AAn?$AA?9?$AAc?$AAo?$AAr?$AAe@ 100212e0     libvcruntime:winapi_downlevel.obj
 0002:0000231c       ??_C@_1BC@GDMECMAK@?$AAk?$AAe?$AAr?$AAn?$AAe?$AAl?$AA3?$AA2@ 1002131c     libvcruntime:winapi_downlevel.obj
 0002:00002330       ??_C@_1BA@PFFKHIOG@?$AAa?$AAp?$AAi?$AA?9?$AAm?$AAs?$AA?9@ 10021330     libvcruntime:winapi_downlevel.obj
 0002:00002348       ??_C@_08KNHFBNJ@FlsAlloc@  10021348     libvcruntime:winapi_downlevel.obj
 0002:0000235c       ??_C@_07PEJMOBNF@FlsFree@  1002135c     libvcruntime:winapi_downlevel.obj
 0002:0000236c       ??_C@_0M@GDNOONDI@FlsGetValue@ 1002136c     libvcruntime:winapi_downlevel.obj
 0002:00002380       ??_C@_0M@JCPCPOEF@FlsSetValue@ 10021380     libvcruntime:winapi_downlevel.obj
 0002:00002394       ??_C@_0BM@HCFOFFN@InitializeCriticalSectionEx@ 10021394     libvcruntime:winapi_downlevel.obj
 0002:00002518       _format_validation_lookup_table 10021518     libucrt:output.obj
 0002:00002574       ??_C@_1O@CEDCILHN@?$AA?$CI?$AAn?$AAu?$AAl?$AAl?$AA?$CJ@ 10021574     libucrt:output.obj
 0002:00002584       ??_C@_06OJHGLDPL@?$CInull?$CJ@ 10021584     libucrt:output.obj
 0002:00002590       ___acrt_exception_action_table 10021590     libucrt:exception_filter.obj
 0002:00002620       ___acrt_signal_action_table_count 10021620     libucrt:exception_filter.obj
 0002:00002624       ___acrt_signal_action_first_fpe_index 10021624     libucrt:exception_filter.obj
 0002:00002628       ___acrt_signal_action_fpe_count 10021628     libucrt:exception_filter.obj
 0002:0000262c       ??_C@_1BI@BGOHAHKC@?$AAm?$AAs?$AAc?$AAo?$AAr?$AAe?$AAe?$AA?4?$AAd?$AAl?$AAl@ 1002162c     libucrt:exit.obj
 0002:00002644       ??_C@_0P@MIGLKIOC@CorExitProcess@ 10021644     libucrt:exit.obj
 0002:00002728       ??_C@_1EA@JGEFHKEI@?$AAa?$AAp?$AAi?$AA?9?$AAm?$AAs?$AA?9?$AAw?$AAi?$AAn?$AA?9?$AAc?$AAo?$AAr?$AAe@ 10021728     libucrt:winapi_thunks.obj
 0002:00002768       ??_C@_1DI@IJCEHOCB@?$AAa?$AAp?$AAi?$AA?9?$AAm?$AAs?$AA?9?$AAw?$AAi?$AAn?$AA?9?$AAc?$AAo?$AAr?$AAe@ 10021768     libucrt:winapi_thunks.obj
 0002:000027a0       ??_C@_1EI@MPIAOHOC@?$AAa?$AAp?$AAi?$AA?9?$AAm?$AAs?$AA?9?$AAw?$AAi?$AAn?$AA?9?$AAc?$AAo?$AAr?$AAe@ 100217a0     libucrt:winapi_thunks.obj
 0002:000027e8       ??_C@_1FK@FPHCKFIE@?$AAa?$AAp?$AAi?$AA?9?$AAm?$AAs?$AA?9?$AAw?$AAi?$AAn?$AA?9?$AAc?$AAo?$AAr?$AAe@ 100217e8     libucrt:winapi_thunks.obj
 0002:00002848       ??_C@_1EM@DILCGIIO@?$AAa?$AAp?$AAi?$AA?9?$AAm?$AAs?$AA?9?$AAw?$AAi?$AAn?$AA?9?$AAc?$AAo?$AAr?$AAe@ 10021848     libucrt:winapi_thunks.obj
 0002:00002894       ??_C@_1DM@LNCGDDPN@?$AAa?$AAp?$AAi?$AA?9?$AAm?$AAs?$AA?9?$AAw?$AAi?$AAn?$AA?9?$AAc?$AAo?$AAr?$AAe@ 10021894     libucrt:winapi_thunks.obj
 0002:000028d0       ??_C@_1DO@FPAPJEMD@?$AAa?$AAp?$AAi?$AA?9?$AAm?$AAs?$AA?9?$AAw?$AAi?$AAn?$AA?9?$AAc?$AAo?$AAr?$AAe@ 100218d0     libucrt:winapi_thunks.obj
 0002:00002910       ??_C@_1DK@NDHNAHIO@?$AAa?$AAp?$AAi?$AA?9?$AAm?$AAs?$AA?9?$AAw?$AAi?$AAn?$AA?9?$AAc?$AAo?$AAr?$AAe@ 10021910     libucrt:winapi_thunks.obj
 0002:0000294c       ??_C@_1DM@KGHDGBCM@?$AAa?$AAp?$AAi?$AA?9?$AAm?$AAs?$AA?9?$AAw?$AAi?$AAn?$AA?9?$AAc?$AAo?$AAr?$AAe@ 1002194c     libucrt:winapi_thunks.obj
 0002:00002988       ??_C@_1EO@IJIOEFOH@?$AAa?$AAp?$AAi?$AA?9?$AAm?$AAs?$AA?9?$AAw?$AAi?$AAn?$AA?9?$AAr?$AAt?$AAc?$AAo@ 10021988     libucrt:winapi_thunks.obj
 0002:000029d8       ??_C@_1FG@HHGEKANL@?$AAa?$AAp?$AAi?$AA?9?$AAm?$AAs?$AA?9?$AAw?$AAi?$AAn?$AA?9?$AAs?$AAe?$AAc?$AAu@ 100219d8     libucrt:winapi_thunks.obj
 0002:00002a30       ??_C@_1EG@DBIOJECG@?$AAe?$AAx?$AAt?$AA?9?$AAm?$AAs?$AA?9?$AAw?$AAi?$AAn?$AA?9?$AAn?$AAt?$AAu?$AAs@ 10021a30     libucrt:winapi_thunks.obj
 0002:00002a78       ??_C@_1EO@FIHMJCLF@?$AAe?$AAx?$AAt?$AA?9?$AAm?$AAs?$AA?9?$AAw?$AAi?$AAn?$AA?9?$AAn?$AAt?$AAu?$AAs@ 10021a78     libucrt:winapi_thunks.obj
 0002:00002ac8       ??_C@_1BC@DNHGCMLG@?$AAa?$AAd?$AAv?$AAa?$AAp?$AAi?$AA3?$AA2@ 10021ac8     libucrt:winapi_thunks.obj
 0002:00002adc       ??_C@_1M@OAIMIKLP@?$AAn?$AAt?$AAd?$AAl?$AAl@ 10021adc     libucrt:winapi_thunks.obj
 0002:00002ae8       ??_C@_1EG@DPGNFKGC@?$AAa?$AAp?$AAi?$AA?9?$AAm?$AAs?$AA?9?$AAw?$AAi?$AAn?$AA?9?$AAa?$AAp?$AAp?$AAm@ 10021ae8     libucrt:winapi_thunks.obj
 0002:00002b30       ??_C@_1O@BCCLBEOE@?$AAu?$AAs?$AAe?$AAr?$AA3?$AA2@ 10021b30     libucrt:winapi_thunks.obj
 0002:00002b40       ??_C@_1BA@IAIFMGEF@?$AAe?$AAx?$AAt?$AA?9?$AAm?$AAs?$AA?9@ 10021b40     libucrt:winapi_thunks.obj
 0002:00002b54       ??_C@_0BA@FHFNEAED@AreFileApisANSI@ 10021b54     libucrt:winapi_thunks.obj
 0002:00002b94       ??_C@_0O@KKBNKAPF@LCMapStringEx@ 10021b94     libucrt:winapi_thunks.obj
 0002:00002bac       ??_C@_0BB@HBDEELFH@LocaleNameToLCID@ 10021bac     libucrt:winapi_thunks.obj
 0002:00002bc4       ??_C@_0CF@OJOFEIGO@AppPolicyGetProcessTerminationM@ 10021bc4     libucrt:winapi_thunks.obj
 0002:00002bf4       ??_C@_0BI@BKLFFAPO@SetThreadStackGuarantee@ 10021bf4     libucrt:winapi_thunks.obj
 0002:00002c50       ??_C@_03OEIAHPBN@INF@      10021c50     libucrt:cvt.obj
 0002:00002c54       ??_C@_03OJHLLCGB@inf@      10021c54     libucrt:cvt.obj
 0002:00002c58       ??_C@_03LKNCIKJB@NAN@      10021c58     libucrt:cvt.obj
 0002:00002c5c       ??_C@_03LHCJEHON@nan@      10021c5c     libucrt:cvt.obj
 0002:00002c60       ??_C@_09OFJJIMPC@NAN?$CISNAN?$CJ@ 10021c60     libucrt:cvt.obj
 0002:00002c6c       ??_C@_09IPFBKMDL@nan?$CIsnan?$CJ@ 10021c6c     libucrt:cvt.obj
 0002:00002c78       ??_C@_08IKHNHAJ@NAN?$CIIND?$CJ@ 10021c78     libucrt:cvt.obj
 0002:00002c84       ??_C@_08OFCDMILK@nan?$CIind?$CJ@ 10021c84     libucrt:cvt.obj
 0002:00002c90       ??_C@_05KLBDPFGC@e?$CL000@ 10021c90     libucrt:cvt.obj
 0002:00002c98       ___lc_time_c               10021c98     libucrt:nlsdata.obj
 0002:00002dfc       ??_C@_03KOEHGMDN@Sun@      10021dfc     libucrt:nlsdata.obj
 0002:00002e00       ??_C@_03PDAGKDH@Mon@       10021e00     libucrt:nlsdata.obj
 0002:00002e04       ??_C@_03NAGEINEP@Tue@      10021e04     libucrt:nlsdata.obj
 0002:00002e08       ??_C@_03MHOMLAJA@Wed@      10021e08     libucrt:nlsdata.obj
 0002:00002e0c       ??_C@_03IOFIKPDN@Thu@      10021e0c     libucrt:nlsdata.obj
 0002:00002e10       ??_C@_03IDIOELNC@Fri@      10021e10     libucrt:nlsdata.obj
 0002:00002e14       ??_C@_03FEFJNEK@Sat@       10021e14     libucrt:nlsdata.obj
 0002:00002e18       ??_C@_06OOPIFAJ@Sunday@    10021e18     libucrt:nlsdata.obj
 0002:00002e20       ??_C@_06JLEDEDGH@Monday@   10021e20     libucrt:nlsdata.obj
 0002:00002e28       ??_C@_07BAAGCFCM@Tuesday@  10021e28     libucrt:nlsdata.obj
 0002:00002e30       ??_C@_09DLIGFAKA@Wednesday@ 10021e30     libucrt:nlsdata.obj
 0002:00002e3c       ??_C@_08HACCIKIA@Thursday@ 10021e3c     libucrt:nlsdata.obj
 0002:00002e48       ??_C@_06JECMNKMI@Friday@   10021e48     libucrt:nlsdata.obj
 0002:00002e50       ??_C@_08INBOOONO@Saturday@ 10021e50     libucrt:nlsdata.obj
 0002:00002e5c       ??_C@_03JIHJHPIE@Jan@      10021e5c     libucrt:nlsdata.obj
 0002:00002e60       ??_C@_03HJBDCHOM@Feb@      10021e60     libucrt:nlsdata.obj
 0002:00002e64       ??_C@_03ODNJBKGA@Mar@      10021e64     libucrt:nlsdata.obj
 0002:00002e68       ??_C@_03LEOLGMJP@Apr@      10021e68     libucrt:nlsdata.obj
 0002:00002e6c       ??_C@_03CNMDKL@May@        10021e6c     libucrt:nlsdata.obj
 0002:00002e70       ??_C@_03IDFGHECI@Jun@      10021e70     libucrt:nlsdata.obj
 0002:00002e74       ??_C@_03LBGABGKK@Jul@      10021e74     libucrt:nlsdata.obj
 0002:00002e78       ??_C@_03IFJFEIGA@Aug@      10021e78     libucrt:nlsdata.obj
 0002:00002e7c       ??_C@_03GGCAPAJC@Sep@      10021e7c     libucrt:nlsdata.obj
 0002:00002e80       ??_C@_03BMAOKBAD@Oct@      10021e80     libucrt:nlsdata.obj
 0002:00002e84       ??_C@_03JPJOFNIA@Nov@      10021e84     libucrt:nlsdata.obj
 0002:00002e88       ??_C@_03MKABNOCG@Dec@      10021e88     libucrt:nlsdata.obj
 0002:00002e8c       ??_C@_07CGJPFGJA@January@  10021e8c     libucrt:nlsdata.obj
 0002:00002e94       ??_C@_08GNJGEPFN@February@ 10021e94     libucrt:nlsdata.obj
 0002:00002ea0       ??_C@_05HPCKOFNC@March@    10021ea0     libucrt:nlsdata.obj
 0002:00002ea8       ??_C@_05DMJDNLEJ@April@    10021ea8     libucrt:nlsdata.obj
 0002:00002eb0       ??_C@_04CNLMGBGM@June@     10021eb0     libucrt:nlsdata.obj
 0002:00002eb8       ??_C@_04MIEPOIFP@July@     10021eb8     libucrt:nlsdata.obj
 0002:00002ec0       ??_C@_06LBBHFDDG@August@   10021ec0     libucrt:nlsdata.obj
 0002:00002ec8       ??_C@_09BHHEALKD@September@ 10021ec8     libucrt:nlsdata.obj
 0002:00002ed4       ??_C@_07JJNFCEND@October@  10021ed4     libucrt:nlsdata.obj
 0002:00002edc       ??_C@_08HCHEGEOA@November@ 10021edc     libucrt:nlsdata.obj
 0002:00002ee8       ??_C@_08EDHMEBNP@December@ 10021ee8     libucrt:nlsdata.obj
 0002:00002ef4       ??_C@_02DEDBPAFC@AM@       10021ef4     libucrt:nlsdata.obj
 0002:00002ef8       ??_C@_02CJNFDJBF@PM@       10021ef8     libucrt:nlsdata.obj
 0002:00002efc       ??_C@_08BPBNCDIB@MM?1dd?1yy@ 10021efc     libucrt:nlsdata.obj
 0002:00002f08       ??_C@_0BE@CKGJFCPC@dddd?0?5MMMM?5dd?0?5yyyy@ 10021f08     libucrt:nlsdata.obj
 0002:00002f1c       ??_C@_08JCCMCCIL@HH?3mm?3ss@ 10021f1c     libucrt:nlsdata.obj
 0002:00002f28       ??_C@_17MBGCMIPB@?$AAS?$AAu?$AAn@ 10021f28     libucrt:nlsdata.obj
 0002:00002f30       ??_C@_17KBOMKBF@?$AAM?$AAo?$AAn@ 10021f30     libucrt:nlsdata.obj
 0002:00002f38       ??_C@_17BMKGEGOJ@?$AAT?$AAu?$AAe@ 10021f38     libucrt:nlsdata.obj
 0002:00002f40       ??_C@_17CJEDCEPE@?$AAW?$AAe?$AAd@ 10021f40     libucrt:nlsdata.obj
 0002:00002f48       ??_C@_17PDPHAADD@?$AAT?$AAh?$AAu@ 10021f48     libucrt:nlsdata.obj
 0002:00002f50       ??_C@_17HFOLPPLP@?$AAF?$AAr?$AAi@ 10021f50     libucrt:nlsdata.obj
 0002:00002f58       ??_C@_17GGIBDPIH@?$AAS?$AAa?$AAt@ 10021f58     libucrt:nlsdata.obj
 0002:00002f60       ??_C@_1O@IHNHDHPB@?$AAS?$AAu?$AAn?$AAd?$AAa?$AAy@ 10021f60     libucrt:nlsdata.obj
 0002:00002f70       ??_C@_1O@MMNBFLIA@?$AAM?$AAo?$AAn?$AAd?$AAa?$AAy@ 10021f70     libucrt:nlsdata.obj
 0002:00002f80       ??_C@_1BA@ENFBFFEK@?$AAT?$AAu?$AAe?$AAs?$AAd?$AAa?$AAy@ 10021f80     libucrt:nlsdata.obj
 0002:00002f90       ??_C@_1BE@EBOGMDOH@?$AAW?$AAe?$AAd?$AAn?$AAe?$AAs?$AAd?$AAa?$AAy@ 10021f90     libucrt:nlsdata.obj
 0002:00002fa4       ??_C@_1BC@HHMNLIHE@?$AAT?$AAh?$AAu?$AAr?$AAs?$AAd?$AAa?$AAy@ 10021fa4     libucrt:nlsdata.obj
 0002:00002fb8       ??_C@_1O@PDICJHAG@?$AAF?$AAr?$AAi?$AAd?$AAa?$AAy@ 10021fb8     libucrt:nlsdata.obj
 0002:00002fc8       ??_C@_1BC@ENMNNPAJ@?$AAS?$AAa?$AAt?$AAu?$AAr?$AAd?$AAa?$AAy@ 10021fc8     libucrt:nlsdata.obj
 0002:00002fdc       ??_C@_17DKNBKCHM@?$AAJ?$AAa?$AAn@ 10021fdc     libucrt:nlsdata.obj
 0002:00002fe4       ??_C@_17LMDJEKJN@?$AAF?$AAe?$AAb@ 10021fe4     libucrt:nlsdata.obj
 0002:00002fec       ??_C@_17CKNLEDEC@?$AAM?$AAa?$AAr@ 10021fec     libucrt:nlsdata.obj
 0002:00002ff4       ??_C@_17LFPOIHDD@?$AAA?$AAp?$AAr@ 10021ff4     libucrt:nlsdata.obj
 0002:00002ffc       ??_C@_17PNNKMEED@?$AAM?$AAa?$AAy@ 10021ffc     libucrt:nlsdata.obj
 0002:00003004       ??_C@_17KCJGOCPB@?$AAJ?$AAu?$AAn@ 10022004     libucrt:nlsdata.obj
 0002:0000300c       ??_C@_17IJPCKHK@?$AAJ?$AAu?$AAl@ 1002200c     libucrt:nlsdata.obj
 0002:00003014       ??_C@_17ICPELBCN@?$AAA?$AAu?$AAg@ 10022014     libucrt:nlsdata.obj
 0002:0000301c       ??_C@_17HCHCOKMG@?$AAS?$AAe?$AAp@ 1002201c     libucrt:nlsdata.obj
 0002:00003024       ??_C@_17FNLKOI@?$AAO?$AAc?$AAt@ 10022024     libucrt:nlsdata.obj
 0002:0000302c       ??_C@_17BBDMLCIG@?$AAN?$AAo?$AAv@ 1002202c     libucrt:nlsdata.obj
 0002:00003034       ??_C@_17EGKACKIF@?$AAD?$AAe?$AAc@ 10022034     libucrt:nlsdata.obj
 0002:0000303c       ??_C@_1BA@EFMEIEBA@?$AAJ?$AAa?$AAn?$AAu?$AAa?$AAr?$AAy@ 1002203c     libucrt:nlsdata.obj
 0002:0000304c       ??_C@_1BC@JGDDFFAM@?$AAF?$AAe?$AAb?$AAr?$AAu?$AAa?$AAr?$AAy@ 1002204c     libucrt:nlsdata.obj
 0002:00003060       ??_C@_1M@IKEENEDF@?$AAM?$AAa?$AAr?$AAc?$AAh@ 10022060     libucrt:nlsdata.obj
 0002:0000306c       ??_C@_1M@GJNLMHFD@?$AAA?$AAp?$AAr?$AAi?$AAl@ 1002206c     libucrt:nlsdata.obj
 0002:00003078       ??_C@_19EPFLPGAP@?$AAJ?$AAu?$AAn?$AAe@ 10022078     libucrt:nlsdata.obj
 0002:00003084       ??_C@_19BIFMLPCD@?$AAJ?$AAu?$AAl?$AAy@ 10022084     libucrt:nlsdata.obj
 0002:00003090       ??_C@_1O@PAHLKOAC@?$AAA?$AAu?$AAg?$AAu?$AAs?$AAt@ 10022090     libucrt:nlsdata.obj
 0002:000030a0       ??_C@_1BE@DKAAMBJL@?$AAS?$AAe?$AAp?$AAt?$AAe?$AAm?$AAb?$AAe?$AAr@ 100220a0     libucrt:nlsdata.obj
 0002:000030b4       ??_C@_1BA@EPANDLNG@?$AAO?$AAc?$AAt?$AAo?$AAb?$AAe?$AAr@ 100220b4     libucrt:nlsdata.obj
 0002:000030c4       ??_C@_1BC@BGLIFPF@?$AAN?$AAo?$AAv?$AAe?$AAm?$AAb?$AAe?$AAr@ 100220c4     libucrt:nlsdata.obj
 0002:000030d8       ??_C@_1BC@FEMKIFH@?$AAD?$AAe?$AAc?$AAe?$AAm?$AAb?$AAe?$AAr@ 100220d8     libucrt:nlsdata.obj
 0002:000030ec       ??_C@_15ODEHAHHF@?$AAA?$AAM@ 100220ec     libucrt:nlsdata.obj
 0002:000030f4       ??_C@_15CLMNNGEL@?$AAP?$AAM@ 100220f4     libucrt:nlsdata.obj
 0002:000030fc       ??_C@_1BC@IEBCMHCM@?$AAM?$AAM?$AA?1?$AAd?$AAd?$AA?1?$AAy?$AAy@ 100220fc     libucrt:nlsdata.obj
 0002:00003110       ??_C@_1CI@KNAKOEBC@?$AAd?$AAd?$AAd?$AAd?$AA?0?$AA?5?$AAM?$AAM?$AAM?$AAM?$AA?5?$AAd?$AAd?$AA?0?$AA?5@ 10022110     libucrt:nlsdata.obj
 0002:00003138       ??_C@_1BC@GDGBMEMK@?$AAH?$AAH?$AA?3?$AAm?$AAm?$AA?3?$AAs?$AAs@ 10022138     libucrt:nlsdata.obj
 0002:0000314c       ??_C@_1M@BMHNFIME@?$AAe?$AAn?$AA?9?$AAU?$AAS@ 1002214c     libucrt:nlsdata.obj
 0002:00003168       ??_C@_1M@HPNHIDJI@?$AAj?$AAa?$AA?9?$AAJ?$AAP@ 10022168     libucrt:mbctype.obj
 0002:00003174       ??_C@_1M@BIBDDEMK@?$AAz?$AAh?$AA?9?$AAC?$AAN@ 10022174     libucrt:mbctype.obj
 0002:00003180       ??_C@_1M@JLOOOEGK@?$AAk?$AAo?$AA?9?$AAK?$AAR@ 10022180     libucrt:mbctype.obj
 0002:0000318c       ??_C@_1M@CLNBBOPM@?$AAz?$AAh?$AA?9?$AAT?$AAW@ 1002218c     libucrt:mbctype.obj
 0002:00003198       ___newctype                10022198     libucrt:ctype.obj
 0002:00003498       ___newclmap                10022498     libucrt:ctype.obj
 0002:00003618       ___newcumap                10022618     libucrt:ctype.obj
 0002:00003798       __wctype                   10022798     libucrt:ctype.obj
 0002:000040c0       ??_C@_15EMKDOKLE@?$AAa?$AAr@ 100230c0     libucrt:lcidtoname_downlevel.obj
 0002:000040c8       ??_C@_15KNPADPLH@?$AAb?$AAg@ 100230c8     libucrt:lcidtoname_downlevel.obj
 0002:000040d0       ??_C@_15EDMHLDMO@?$AAc?$AAa@ 100230d0     libucrt:lcidtoname_downlevel.obj
 0002:000040d8       ??_C@_1O@BPEAJADD@?$AAz?$AAh?$AA?9?$AAC?$AAH?$AAS@ 100230d8     libucrt:lcidtoname_downlevel.obj
 0002:000040e8       ??_C@_15LJNHCMNK@?$AAc?$AAs@ 100230e8     libucrt:lcidtoname_downlevel.obj
 0002:000040f0       ??_C@_15FOMCIDHG@?$AAd?$AAa@ 100230f0     libucrt:lcidtoname_downlevel.obj
 0002:000040f8       ??_C@_15NBKABECB@?$AAd?$AAe@ 100230f8     libucrt:lcidtoname_downlevel.obj
 0002:00004100       ??_C@_15GHPEIIAO@?$AAe?$AAl@ 10023100     libucrt:lcidtoname_downlevel.obj
 0002:00004108       ??_C@_15MNPNEAIF@?$AAe?$AAn@ 10023108     libucrt:lcidtoname_downlevel.obj
 0002:00004110       ??_C@_15GPIOMPMH@?$AAe?$AAs@ 10023110     libucrt:lcidtoname_downlevel.obj
 0002:00004118       ??_C@_15NGLOAKJC@?$AAf?$AAi@ 10023118     libucrt:lcidtoname_downlevel.obj
 0002:00004120       ??_C@_15FBKGNKAM@?$AAf?$AAr@ 10023120     libucrt:lcidtoname_downlevel.obj
 0002:00004128       ??_C@_15KGGCNEFK@?$AAh?$AAe@ 10023128     libucrt:lcidtoname_downlevel.obj
 0002:00004130       ??_C@_15PGHLIDMF@?$AAh?$AAu@ 10023130     libucrt:lcidtoname_downlevel.obj
 0002:00004138       ??_C@_15BIEMAPLM@?$AAi?$AAs@ 10023138     libucrt:lcidtoname_downlevel.obj
 0002:00004140       ??_C@_15IFJLDHAF@?$AAi?$AAt@ 10023140     libucrt:lcidtoname_downlevel.obj
 0002:00004148       ??_C@_15GEMIOCAG@?$AAj?$AAa@ 10023148     libucrt:lcidtoname_downlevel.obj
 0002:00004150       ??_C@_15EPELEGJA@?$AAk?$AAo@ 10023150     libucrt:lcidtoname_downlevel.obj
 0002:00004158       ??_C@_15NDDHIMN@?$AAn?$AAl@ 10023158     libucrt:lcidtoname_downlevel.obj
 0002:00004160       ??_C@_15BPIGNHCD@?$AAn?$AAo@ 10023160     libucrt:lcidtoname_downlevel.obj
 0002:00004168       ??_C@_15DEOPBLCG@?$AAp?$AAl@ 10023168     libucrt:lcidtoname_downlevel.obj
 0002:00004170       ??_C@_15KBECGEFG@?$AAp?$AAt@ 10023170     libucrt:lcidtoname_downlevel.obj
 0002:00004178       ??_C@_15GLJCBFMD@?$AAr?$AAo@ 10023178     libucrt:lcidtoname_downlevel.obj
 0002:00004180       ??_C@_15FEDGKCDI@?$AAr?$AAu@ 10023180     libucrt:lcidtoname_downlevel.obj
 0002:00004188       ??_C@_15GLKMLLHM@?$AAh?$AAr@ 10023188     libucrt:lcidtoname_downlevel.obj
 0002:00004190       ??_C@_15CPKMFBDB@?$AAs?$AAk@ 10023190     libucrt:lcidtoname_downlevel.obj
 0002:00004198       ??_C@_15BAAIOGMK@?$AAs?$AAq@ 10023198     libucrt:lcidtoname_downlevel.obj
 0002:000041a0       ??_C@_15INNPNOHD@?$AAs?$AAv@ 100231a0     libucrt:lcidtoname_downlevel.obj
 0002:000041a8       ??_C@_15CABMMOGH@?$AAt?$AAh@ 100231a8     libucrt:lcidtoname_downlevel.obj
 0002:000041b0       ??_C@_15BPLIHJJM@?$AAt?$AAr@ 100231b0     libucrt:lcidtoname_downlevel.obj
 0002:000041b8       ??_C@_15NEOEKKDJ@?$AAu?$AAr@ 100231b8     libucrt:lcidtoname_downlevel.obj
 0002:000041c0       ??_C@_15NFICGAJK@?$AAi?$AAd@ 100231c0     libucrt:lcidtoname_downlevel.obj
 0002:000041c8       ??_C@_15PJPFLCCM@?$AAu?$AAk@ 100231c8     libucrt:lcidtoname_downlevel.obj
 0002:000041d0       ??_C@_15HPJPHDM@?$AAb?$AAe@ 100231d0     libucrt:lcidtoname_downlevel.obj
 0002:000041d8       ??_C@_15LCHLGJII@?$AAs?$AAl@ 100231d8     libucrt:lcidtoname_downlevel.obj
 0002:000041e0       ??_C@_15PCFJPHHO@?$AAe?$AAt@ 100231e0     libucrt:lcidtoname_downlevel.obj
 0002:000041e8       ??_C@_15HPFPGODN@?$AAl?$AAv@ 100231e8     libucrt:lcidtoname_downlevel.obj
 0002:000041f0       ??_C@_15NFFGKGLG@?$AAl?$AAt@ 100231f0     libucrt:lcidtoname_downlevel.obj
 0002:000041f8       ??_C@_15BDAKCCHN@?$AAf?$AAa@ 100231f8     libucrt:lcidtoname_downlevel.obj
 0002:00004200       ??_C@_15NFGIAIAJ@?$AAv?$AAi@ 10023200     libucrt:lcidtoname_downlevel.obj
 0002:00004208       ??_C@_15LMKNDMHN@?$AAh?$AAy@ 10023208     libucrt:lcidtoname_downlevel.obj
 0002:00004210       ??_C@_15IJBHMCFL@?$AAa?$AAz@ 10023210     libucrt:lcidtoname_downlevel.obj
 0002:00004218       ??_C@_15EKOFJABL@?$AAe?$AAu@ 10023218     libucrt:lcidtoname_downlevel.obj
 0002:00004220       ??_C@_15BGHADCNK@?$AAm?$AAk@ 10023220     libucrt:lcidtoname_downlevel.obj
 0002:00004228       ??_C@_15JDNICKHM@?$AAa?$AAf@ 10023228     libucrt:lcidtoname_downlevel.obj
 0002:00004230       ??_C@_15KPJEDBKD@?$AAk?$AAa@ 10023230     libucrt:lcidtoname_downlevel.obj
 0002:00004238       ??_C@_15PDNFFFEO@?$AAf?$AAo@ 10023238     libucrt:lcidtoname_downlevel.obj
 0002:00004240       ??_C@_15OMLEGLOC@?$AAh?$AAi@ 10023240     libucrt:lcidtoname_downlevel.obj
 0002:00004248       ??_C@_15IDNNENKK@?$AAm?$AAs@ 10023248     libucrt:lcidtoname_downlevel.obj
 0002:00004250       ??_C@_15MACJNBMH@?$AAk?$AAk@ 10023250     libucrt:lcidtoname_downlevel.obj
 0002:00004258       ??_C@_15DKDJEOND@?$AAk?$AAy@ 10023258     libucrt:lcidtoname_downlevel.obj
 0002:00004260       ??_C@_15DFGDLJBG@?$AAs?$AAw@ 10023260     libucrt:lcidtoname_downlevel.obj
 0002:00004268       ??_C@_15BBFAICNG@?$AAu?$AAz@ 10023268     libucrt:lcidtoname_downlevel.obj
 0002:00004270       ??_C@_15DKNDCGEA@?$AAt?$AAt@ 10023270     libucrt:lcidtoname_downlevel.obj
 0002:00004278       ??_C@_15MGIFMDPL@?$AAp?$AAa@ 10023278     libucrt:lcidtoname_downlevel.obj
 0002:00004280       ??_C@_15HCNDBBA@?$AAg?$AAu@ 10023280     libucrt:lcidtoname_downlevel.obj
 0002:00004288       ??_C@_15FNBEIBON@?$AAt?$AAa@ 10023288     libucrt:lcidtoname_downlevel.obj
 0002:00004290       ??_C@_15NCHGBGLK@?$AAt?$AAe@ 10023290     libucrt:lcidtoname_downlevel.obj
 0002:00004298       ??_C@_15PHPHCBPF@?$AAk?$AAn@ 10023298     libucrt:lcidtoname_downlevel.obj
 0002:000042a0       ??_C@_15DLGBCKMP@?$AAm?$AAr@ 100232a0     libucrt:lcidtoname_downlevel.obj
 0002:000042a8       ??_C@_15EABBLBFF@?$AAs?$AAa@ 100232a8     libucrt:lcidtoname_downlevel.obj
 0002:000042b0       ??_C@_15CBKOMCOI@?$AAm?$AAn@ 100232b0     libucrt:lcidtoname_downlevel.obj
 0002:000042b8       ??_C@_15CKDMCJAF@?$AAg?$AAl@ 100232b8     libucrt:lcidtoname_downlevel.obj
 0002:000042c0       ??_C@_17CNJFBPG@?$AAk?$AAo?$AAk@ 100232c0     libucrt:lcidtoname_downlevel.obj
 0002:000042c8       ??_C@_17FFBJICPL@?$AAs?$AAy?$AAr@ 100232c8     libucrt:lcidtoname_downlevel.obj
 0002:000042d0       ??_C@_17KPNDCPAF@?$AAd?$AAi?$AAv@ 100232d0     libucrt:lcidtoname_downlevel.obj
 0002:000042d8       ??_C@_1M@OKAHONE@?$AAa?$AAr?$AA?9?$AAS?$AAA@ 100232d8     libucrt:lcidtoname_downlevel.obj
 0002:000042e4       ??_C@_1M@FFFIGIGK@?$AAb?$AAg?$AA?9?$AAB?$AAG@ 100232e4     libucrt:lcidtoname_downlevel.obj
 0002:000042f0       ??_C@_1M@BJNKEDC@?$AAc?$AAa?$AA?9?$AAE?$AAS@ 100232f0     libucrt:lcidtoname_downlevel.obj
 0002:000042fc       ??_C@_1M@IJJHFJHA@?$AAc?$AAs?$AA?9?$AAC?$AAZ@ 100232fc     libucrt:lcidtoname_downlevel.obj
 0002:00004308       ??_C@_1M@CLPEOBGI@?$AAd?$AAa?$AA?9?$AAD?$AAK@ 10023308     libucrt:lcidtoname_downlevel.obj
 0002:00004314       ??_C@_1M@MCMADGCB@?$AAd?$AAe?$AA?9?$AAD?$AAE@ 10023314     libucrt:lcidtoname_downlevel.obj
 0002:00004320       ??_C@_1M@OOCKEMAM@?$AAe?$AAl?$AA?9?$AAG?$AAR@ 10023320     libucrt:lcidtoname_downlevel.obj
 0002:0000432c       ??_C@_1M@DDNJFGID@?$AAf?$AAi?$AA?9?$AAF?$AAI@ 1002332c     libucrt:lcidtoname_downlevel.obj
 0002:00004338       ??_C@_1M@GLIPPMAC@?$AAf?$AAr?$AA?9?$AAF?$AAR@ 10023338     libucrt:lcidtoname_downlevel.obj
 0002:00004344       ??_C@_1M@GFMCHPE@?$AAh?$AAe?$AA?9?$AAI?$AAL@ 10023344     libucrt:lcidtoname_downlevel.obj
 0002:00004350       ??_C@_1M@MHLPGNKM@?$AAh?$AAu?$AA?9?$AAH?$AAU@ 10023350     libucrt:lcidtoname_downlevel.obj
 0002:0000435c       ??_C@_1M@LPDDNNPN@?$AAi?$AAs?$AA?9?$AAI?$AAS@ 1002335c     libucrt:lcidtoname_downlevel.obj
 0002:00004368       ??_C@_1M@MADIPODN@?$AAi?$AAt?$AA?9?$AAI?$AAT@ 10023368     libucrt:lcidtoname_downlevel.obj
 0002:00004374       ??_C@_1M@IHBJJGG@?$AAn?$AAl?$AA?9?$AAN?$AAL@ 10023374     libucrt:lcidtoname_downlevel.obj
 0002:00004380       ??_C@_1M@EANAGDL@?$AAn?$AAb?$AA?9?$AAN?$AAO@ 10023380     libucrt:lcidtoname_downlevel.obj
 0002:0000438c       ??_C@_1M@NEIEMEGP@?$AAp?$AAl?$AA?9?$AAP?$AAL@ 1002338c     libucrt:lcidtoname_downlevel.obj
 0002:00004398       ??_C@_1M@BOCFIGEP@?$AAp?$AAt?$AA?9?$AAB?$AAR@ 10023398     libucrt:lcidtoname_downlevel.obj
 0002:000043a4       ??_C@_1M@IMPFOPBG@?$AAr?$AAo?$AA?9?$AAR?$AAO@ 100233a4     libucrt:lcidtoname_downlevel.obj
 0002:000043b0       ??_C@_1M@IDNNEJMM@?$AAr?$AAu?$AA?9?$AAR?$AAU@ 100233b0     libucrt:lcidtoname_downlevel.obj
 0002:000043bc       ??_C@_1M@LILEEOGM@?$AAh?$AAr?$AA?9?$AAH?$AAR@ 100233bc     libucrt:lcidtoname_downlevel.obj
 0002:000043c8       ??_C@_1M@FKIFEHPB@?$AAs?$AAk?$AA?9?$AAS?$AAK@ 100233c8     libucrt:lcidtoname_downlevel.obj
 0002:000043d4       ??_C@_1M@LJMAMNPJ@?$AAs?$AAq?$AA?9?$AAA?$AAL@ 100233d4     libucrt:lcidtoname_downlevel.obj
 0002:000043e0       ??_C@_1M@GIAKDKJK@?$AAs?$AAv?$AA?9?$AAS?$AAE@ 100233e0     libucrt:lcidtoname_downlevel.obj
 0002:000043ec       ??_C@_1M@MKJKIKCL@?$AAt?$AAh?$AA?9?$AAT?$AAH@ 100233ec     libucrt:lcidtoname_downlevel.obj
 0002:000043f8       ??_C@_1M@MFLCCMPB@?$AAt?$AAr?$AA?9?$AAT?$AAR@ 100233f8     libucrt:lcidtoname_downlevel.obj
 0002:00004404       ??_C@_1M@OIJHDKJN@?$AAu?$AAr?$AA?9?$AAP?$AAK@ 10023404     libucrt:lcidtoname_downlevel.obj
 0002:00004410       ??_C@_1M@LHIPCIEK@?$AAi?$AAd?$AA?9?$AAI?$AAD@ 10023410     libucrt:lcidtoname_downlevel.obj
 0002:0000441c       ??_C@_1M@MFMOBGI@?$AAu?$AAk?$AA?9?$AAU?$AAA@ 1002341c     libucrt:lcidtoname_downlevel.obj
 0002:00004428       ??_C@_1M@OBGLJIPL@?$AAb?$AAe?$AA?9?$AAB?$AAY@ 10023428     libucrt:lcidtoname_downlevel.obj
 0002:00004434       ??_C@_1M@BCFAJEAD@?$AAs?$AAl?$AA?9?$AAS?$AAI@ 10023434     libucrt:lcidtoname_downlevel.obj
 0002:00004440       ??_C@_1M@FKFFEDDN@?$AAe?$AAt?$AA?9?$AAE?$AAE@ 10023440     libucrt:lcidtoname_downlevel.obj
 0002:0000444c       ??_C@_1M@KGKKAACI@?$AAl?$AAv?$AA?9?$AAL?$AAV@ 1002344c     libucrt:lcidtoname_downlevel.obj
 0002:00004458       ??_C@_1M@IFGBIJO@?$AAl?$AAt?$AA?9?$AAL?$AAT@ 10023458     libucrt:lcidtoname_downlevel.obj
 0002:00004464       ??_C@_1M@FGEAHEDM@?$AAf?$AAa?$AA?9?$AAI?$AAR@ 10023464     libucrt:lcidtoname_downlevel.obj
 0002:00004470       ??_C@_1M@KBMAIBFN@?$AAv?$AAi?$AA?9?$AAV?$AAN@ 10023470     libucrt:lcidtoname_downlevel.obj
 0002:0000447c       ??_C@_1M@GPCBKDJK@?$AAh?$AAy?$AA?9?$AAA?$AAM@ 1002347c     libucrt:lcidtoname_downlevel.obj
 0002:00004488       ??_C@_1BG@BECMDDJB@?$AAa?$AAz?$AA?9?$AAA?$AAZ?$AA?9?$AAL?$AAa?$AAt?$AAn@ 10023488     libucrt:lcidtoname_downlevel.obj
 0002:000044a0       ??_C@_1M@MAOFCAEA@?$AAe?$AAu?$AA?9?$AAE?$AAS@ 100234a0     libucrt:lcidtoname_downlevel.obj
 0002:000044ac       ??_C@_1M@IGHABKPI@?$AAm?$AAk?$AA?9?$AAM?$AAK@ 100234ac     libucrt:lcidtoname_downlevel.obj
 0002:000044b8       ??_C@_1M@IAIGNEJG@?$AAt?$AAn?$AA?9?$AAZ?$AAA@ 100234b8     libucrt:lcidtoname_downlevel.obj
 0002:000044c4       ??_C@_1M@IIJCOJFA@?$AAx?$AAh?$AA?9?$AAZ?$AAA@ 100234c4     libucrt:lcidtoname_downlevel.obj
 0002:000044d0       ??_C@_1M@LGPJHNJH@?$AAz?$AAu?$AA?9?$AAZ?$AAA@ 100234d0     libucrt:lcidtoname_downlevel.obj
 0002:000044dc       ??_C@_1M@HOKAOIO@?$AAa?$AAf?$AA?9?$AAZ?$AAA@ 100234dc     libucrt:lcidtoname_downlevel.obj
 0002:000044e8       ??_C@_1M@DPCLHLIE@?$AAk?$AAa?$AA?9?$AAG?$AAE@ 100234e8     libucrt:lcidtoname_downlevel.obj
 0002:000044f4       ??_C@_1M@BLKMHJBI@?$AAf?$AAo?$AA?9?$AAF?$AAO@ 100234f4     libucrt:lcidtoname_downlevel.obj
 0002:00004500       ??_C@_1M@LGGJAPPB@?$AAh?$AAi?$AA?9?$AAI?$AAN@ 10023500     libucrt:lcidtoname_downlevel.obj
 0002:0000450c       ??_C@_1M@FIKPIHFE@?$AAm?$AAt?$AA?9?$AAM?$AAT@ 1002350c     libucrt:lcidtoname_downlevel.obj
 0002:00004518       ??_C@_1M@HEGGPBFA@?$AAs?$AAe?$AA?9?$AAN?$AAO@ 10023518     libucrt:lcidtoname_downlevel.obj
 0002:00004524       ??_C@_1M@EIBJEEPA@?$AAm?$AAs?$AA?9?$AAM?$AAY@ 10023524     libucrt:lcidtoname_downlevel.obj
 0002:00004530       ??_C@_1M@FHLBGMPP@?$AAk?$AAk?$AA?9?$AAK?$AAZ@ 10023530     libucrt:lcidtoname_downlevel.obj
 0002:0000453c       ??_C@_1M@NGJJLCGI@?$AAk?$AAy?$AA?9?$AAK?$AAG@ 1002353c     libucrt:lcidtoname_downlevel.obj
 0002:00004548       ??_C@_1M@GIENNBFC@?$AAs?$AAw?$AA?9?$AAK?$AAE@ 10023548     libucrt:lcidtoname_downlevel.obj
 0002:00004554       ??_C@_1BG@NDGMJIMJ@?$AAu?$AAz?$AA?9?$AAU?$AAZ?$AA?9?$AAL?$AAa?$AAt?$AAn@ 10023554     libucrt:lcidtoname_downlevel.obj
 0002:0000456c       ??_C@_1M@IDCCIHBC@?$AAt?$AAt?$AA?9?$AAR?$AAU@ 1002356c     libucrt:lcidtoname_downlevel.obj
 0002:00004578       ??_C@_1M@LOICPMOJ@?$AAb?$AAn?$AA?9?$AAI?$AAN@ 10023578     libucrt:lcidtoname_downlevel.obj
 0002:00004584       ??_C@_1M@KPKKNEAH@?$AAp?$AAa?$AA?9?$AAI?$AAN@ 10023584     libucrt:lcidtoname_downlevel.obj
 0002:00004590       ??_C@_1M@PJGPPBOG@?$AAg?$AAu?$AA?9?$AAI?$AAN@ 10023590     libucrt:lcidtoname_downlevel.obj
 0002:0000459c       ??_C@_1M@KMKMOPHI@?$AAt?$AAa?$AA?9?$AAI?$AAN@ 1002359c     libucrt:lcidtoname_downlevel.obj
 0002:000045a8       ??_C@_1M@KFEHEPAC@?$AAt?$AAe?$AA?9?$AAI?$AAN@ 100235a8     libucrt:lcidtoname_downlevel.obj
 0002:000045b4       ??_C@_1M@CDCLMGHI@?$AAk?$AAn?$AA?9?$AAI?$AAN@ 100235b4     libucrt:lcidtoname_downlevel.obj
 0002:000045c0       ??_C@_1M@MIODLDKF@?$AAm?$AAl?$AA?9?$AAI?$AAN@ 100235c0     libucrt:lcidtoname_downlevel.obj
 0002:000045cc       ??_C@_1M@PBIEACPO@?$AAm?$AAr?$AA?9?$AAI?$AAN@ 100235cc     libucrt:lcidtoname_downlevel.obj
 0002:000045d8       ??_C@_1M@NIDEAGPH@?$AAs?$AAa?$AA?9?$AAI?$AAN@ 100235d8     libucrt:lcidtoname_downlevel.obj
 0002:000045e4       ??_C@_1M@FHIHCBIO@?$AAm?$AAn?$AA?9?$AAM?$AAN@ 100235e4     libucrt:lcidtoname_downlevel.obj
 0002:000045f0       ??_C@_1M@JAIJPENP@?$AAc?$AAy?$AA?9?$AAG?$AAB@ 100235f0     libucrt:lcidtoname_downlevel.obj
 0002:000045fc       ??_C@_1M@PHGFBEPN@?$AAg?$AAl?$AA?9?$AAE?$AAS@ 100235fc     libucrt:lcidtoname_downlevel.obj
 0002:00004608       ??_C@_1O@KPIPDNCP@?$AAk?$AAo?$AAk?$AA?9?$AAI?$AAN@ 10023608     libucrt:lcidtoname_downlevel.obj
 0002:00004618       ??_C@_1O@KNHJLDJA@?$AAs?$AAy?$AAr?$AA?9?$AAS?$AAY@ 10023618     libucrt:lcidtoname_downlevel.obj
 0002:00004628       ??_C@_1O@MKEKBLAH@?$AAd?$AAi?$AAv?$AA?9?$AAM?$AAV@ 10023628     libucrt:lcidtoname_downlevel.obj
 0002:00004638       ??_C@_1O@OHDCKDDF@?$AAq?$AAu?$AAz?$AA?9?$AAB?$AAO@ 10023638     libucrt:lcidtoname_downlevel.obj
 0002:00004648       ??_C@_1M@LEPJNLFD@?$AAn?$AAs?$AA?9?$AAZ?$AAA@ 10023648     libucrt:lcidtoname_downlevel.obj
 0002:00004654       ??_C@_1M@OMLEIIJB@?$AAm?$AAi?$AA?9?$AAN?$AAZ@ 10023654     libucrt:lcidtoname_downlevel.obj
 0002:00004660       ??_C@_1M@PMPEAILG@?$AAa?$AAr?$AA?9?$AAI?$AAQ@ 10023660     libucrt:lcidtoname_downlevel.obj
 0002:0000466c       ??_C@_1M@CNKPNOEE@?$AAd?$AAe?$AA?9?$AAC?$AAH@ 1002366c     libucrt:lcidtoname_downlevel.obj
 0002:00004678       ??_C@_1M@LKMGMLKO@?$AAe?$AAn?$AA?9?$AAG?$AAB@ 10023678     libucrt:lcidtoname_downlevel.obj
 0002:00004684       ??_C@_1M@PGKJFFGL@?$AAe?$AAs?$AA?9?$AAM?$AAX@ 10023684     libucrt:lcidtoname_downlevel.obj
 0002:00004690       ??_C@_1M@DNNANBDC@?$AAf?$AAr?$AA?9?$AAB?$AAE@ 10023690     libucrt:lcidtoname_downlevel.obj
 0002:0000469c       ??_C@_1M@HLGMDFHM@?$AAi?$AAt?$AA?9?$AAC?$AAH@ 1002369c     libucrt:lcidtoname_downlevel.obj
 0002:000046a8       ??_C@_1M@CLLBGJH@?$AAn?$AAl?$AA?9?$AAB?$AAE@ 100236a8     libucrt:lcidtoname_downlevel.obj
 0002:000046b4       ??_C@_1M@BODBOGLF@?$AAn?$AAn?$AA?9?$AAN?$AAO@ 100236b4     libucrt:lcidtoname_downlevel.obj
 0002:000046c0       ??_C@_1M@HFFAHKAD@?$AAp?$AAt?$AA?9?$AAP?$AAT@ 100236c0     libucrt:lcidtoname_downlevel.obj
 0002:000046cc       ??_C@_1BG@LNOAKHIE@?$AAs?$AAr?$AA?9?$AAS?$AAP?$AA?9?$AAL?$AAa?$AAt?$AAn@ 100236cc     libucrt:lcidtoname_downlevel.obj
 0002:000046e4       ??_C@_1M@HBMHBGAK@?$AAs?$AAv?$AA?9?$AAF?$AAI@ 100236e4     libucrt:lcidtoname_downlevel.obj
 0002:000046f0       ??_C@_1BG@DGCJGJBE@?$AAa?$AAz?$AA?9?$AAA?$AAZ?$AA?9?$AAC?$AAy?$AAr?$AAl@ 100236f0     libucrt:lcidtoname_downlevel.obj
 0002:00004708       ??_C@_1M@KEJDAAHB@?$AAs?$AAe?$AA?9?$AAS?$AAE@ 10023708     libucrt:lcidtoname_downlevel.obj
 0002:00004714       ??_C@_1M@HEIBJJAD@?$AAm?$AAs?$AA?9?$AAB?$AAN@ 10023714     libucrt:lcidtoname_downlevel.obj
 0002:00004720       ??_C@_1BG@PBGJMCEM@?$AAu?$AAz?$AA?9?$AAU?$AAZ?$AA?9?$AAC?$AAy?$AAr?$AAl@ 10023720     libucrt:lcidtoname_downlevel.obj
 0002:00004738       ??_C@_1O@LAOBCMDF@?$AAq?$AAu?$AAz?$AA?9?$AAE?$AAC@ 10023738     libucrt:lcidtoname_downlevel.obj
 0002:00004748       ??_C@_1M@POEEMAIO@?$AAa?$AAr?$AA?9?$AAE?$AAG@ 10023748     libucrt:lcidtoname_downlevel.obj
 0002:00004754       ??_C@_1M@EFAKDEDL@?$AAz?$AAh?$AA?9?$AAH?$AAK@ 10023754     libucrt:lcidtoname_downlevel.obj
 0002:00004760       ??_C@_1M@HKKIJHGI@?$AAd?$AAe?$AA?9?$AAA?$AAT@ 10023760     libucrt:lcidtoname_downlevel.obj
 0002:0000476c       ??_C@_1M@KBFBEHJF@?$AAe?$AAn?$AA?9?$AAA?$AAU@ 1002376c     libucrt:lcidtoname_downlevel.obj
 0002:00004778       ??_C@_1M@MNPLFAAH@?$AAe?$AAs?$AA?9?$AAE?$AAS@ 10023778     libucrt:lcidtoname_downlevel.obj
 0002:00004784       ??_C@_1M@HJOOJFMA@?$AAf?$AAr?$AA?9?$AAC?$AAA@ 10023784     libucrt:lcidtoname_downlevel.obj
 0002:00004790       ??_C@_1BG@JPOFPNAB@?$AAs?$AAr?$AA?9?$AAS?$AAP?$AA?9?$AAC?$AAy?$AAr?$AAl@ 10023790     libucrt:lcidtoname_downlevel.obj
 0002:000047a8       ??_C@_1M@LNFOCMOB@?$AAs?$AAe?$AA?9?$AAF?$AAI@ 100237a8     libucrt:lcidtoname_downlevel.obj
 0002:000047b4       ??_C@_1O@MGJBOAMB@?$AAq?$AAu?$AAz?$AA?9?$AAP?$AAE@ 100237b4     libucrt:lcidtoname_downlevel.obj
 0002:000047c4       ??_C@_1M@GJINLBOK@?$AAa?$AAr?$AA?9?$AAL?$AAY@ 100237c4     libucrt:lcidtoname_downlevel.obj
 0002:000047d0       ??_C@_1M@GGMNHJNL@?$AAz?$AAh?$AA?9?$AAS?$AAG@ 100237d0     libucrt:lcidtoname_downlevel.obj
 0002:000047dc       ??_C@_1M@HOIKODND@?$AAd?$AAe?$AA?9?$AAL?$AAU@ 100237dc     libucrt:lcidtoname_downlevel.obj
 0002:000047e8       ??_C@_1M@DDOCCGFG@?$AAe?$AAn?$AA?9?$AAC?$AAA@ 100237e8     libucrt:lcidtoname_downlevel.obj
 0002:000047f4       ??_C@_1M@BNOEMJLF@?$AAe?$AAs?$AA?9?$AAG?$AAT@ 100237f4     libucrt:lcidtoname_downlevel.obj
 0002:00004800       ??_C@_1M@EOGNKEK@?$AAf?$AAr?$AA?9?$AAC?$AAH@ 10023800     libucrt:lcidtoname_downlevel.obj
 0002:0000480c       ??_C@_1M@FLIDJFHL@?$AAh?$AAr?$AA?9?$AAB?$AAA@ 1002380c     libucrt:lcidtoname_downlevel.obj
 0002:00004818       ??_C@_1O@FMCELNAJ@?$AAs?$AAm?$AAj?$AA?9?$AAN?$AAO@ 10023818     libucrt:lcidtoname_downlevel.obj
 0002:00004828       ??_C@_1M@JHGLJMGJ@?$AAa?$AAr?$AA?9?$AAD?$AAZ@ 10023828     libucrt:lcidtoname_downlevel.obj
 0002:00004834       ??_C@_1M@JKKFDCNP@?$AAz?$AAh?$AA?9?$AAM?$AAO@ 10023834     libucrt:lcidtoname_downlevel.obj
 0002:00004840       ??_C@_1M@GEEFALPE@?$AAd?$AAe?$AA?9?$AAL?$AAI@ 10023840     libucrt:lcidtoname_downlevel.obj
 0002:0000484c       ??_C@_1M@IGEOFBG@?$AAe?$AAn?$AA?9?$AAN?$AAZ@ 1002384c     libucrt:lcidtoname_downlevel.obj
 0002:00004858       ??_C@_1M@KDBONEHP@?$AAe?$AAs?$AA?9?$AAC?$AAR@ 10023858     libucrt:lcidtoname_downlevel.obj
 0002:00004864       ??_C@_1M@FHMDOHNN@?$AAf?$AAr?$AA?9?$AAL?$AAU@ 10023864     libucrt:lcidtoname_downlevel.obj
 0002:00004870       ??_C@_1BG@NFKKMAFG@?$AAb?$AAs?$AA?9?$AAB?$AAA?$AA?9?$AAL?$AAa?$AAt?$AAn@ 10023870     libucrt:lcidtoname_downlevel.obj
 0002:00004888       ??_C@_1O@IMNBEMCI@?$AAs?$AAm?$AAj?$AA?9?$AAS?$AAE@ 10023888     libucrt:lcidtoname_downlevel.obj
 0002:00004898       ??_C@_1M@DHHMBNDP@?$AAa?$AAr?$AA?9?$AAM?$AAA@ 10023898     libucrt:lcidtoname_downlevel.obj
 0002:000048a4       ??_C@_1M@BNBLJCGH@?$AAe?$AAn?$AA?9?$AAI?$AAE@ 100238a4     libucrt:lcidtoname_downlevel.obj
 0002:000048b0       ??_C@_1M@GEPAFMDL@?$AAe?$AAs?$AA?9?$AAP?$AAA@ 100238b0     libucrt:lcidtoname_downlevel.obj
 0002:000048bc       ??_C@_1M@OJONDMDL@?$AAf?$AAr?$AA?9?$AAM?$AAC@ 100238bc     libucrt:lcidtoname_downlevel.obj
 0002:000048c8       ??_C@_1BG@OBCNFJB@?$AAs?$AAr?$AA?9?$AAB?$AAA?$AA?9?$AAL?$AAa?$AAt?$AAn@ 100238c8     libucrt:lcidtoname_downlevel.obj
 0002:000048e0       ??_C@_1O@KEMEEGPO@?$AAs?$AAm?$AAa?$AA?9?$AAN?$AAO@ 100238e0     libucrt:lcidtoname_downlevel.obj
 0002:000048f0       ??_C@_1M@ELMGFODK@?$AAa?$AAr?$AA?9?$AAT?$AAN@ 100238f0     libucrt:lcidtoname_downlevel.obj
 0002:000048fc       ??_C@_1M@BHDLHFAF@?$AAe?$AAn?$AA?9?$AAZ?$AAA@ 100238fc     libucrt:lcidtoname_downlevel.obj
 0002:00004908       ??_C@_1M@BMGIGLIF@?$AAe?$AAs?$AA?9?$AAD?$AAO@ 10023908     libucrt:lcidtoname_downlevel.obj
 0002:00004914       ??_C@_1BG@CMBHIPBE@?$AAs?$AAr?$AA?9?$AAB?$AAA?$AA?9?$AAC?$AAy?$AAr?$AAl@ 10023914     libucrt:lcidtoname_downlevel.obj
 0002:0000492c       ??_C@_1O@HEDBLHNP@?$AAs?$AAm?$AAa?$AA?9?$AAS?$AAE@ 1002392c     libucrt:lcidtoname_downlevel.obj
 0002:0000493c       ??_C@_1M@DAGCADIM@?$AAa?$AAr?$AA?9?$AAO?$AAM@ 1002393c     libucrt:lcidtoname_downlevel.obj
 0002:00004948       ??_C@_1M@FODLMICG@?$AAe?$AAn?$AA?9?$AAJ?$AAM@ 10023948     libucrt:lcidtoname_downlevel.obj
 0002:00004954       ??_C@_1M@DNMLCIHB@?$AAe?$AAs?$AA?9?$AAV?$AAE@ 10023954     libucrt:lcidtoname_downlevel.obj
 0002:00004960       ??_C@_1O@EOKHMKJK@?$AAs?$AAm?$AAs?$AA?9?$AAF?$AAI@ 10023960     libucrt:lcidtoname_downlevel.obj
 0002:00004970       ??_C@_1M@CAFJMKOF@?$AAa?$AAr?$AA?9?$AAY?$AAE@ 10023970     libucrt:lcidtoname_downlevel.obj
 0002:0000497c       ??_C@_1M@CBFHIJLI@?$AAe?$AAn?$AA?9?$AAC?$AAB@ 1002397c     libucrt:lcidtoname_downlevel.obj
 0002:00004988       ??_C@_1M@BGNFLDN@?$AAe?$AAs?$AA?9?$AAC?$AAO@ 10023988     libucrt:lcidtoname_downlevel.obj
 0002:00004994       ??_C@_1O@JMPHMAMC@?$AAs?$AAm?$AAn?$AA?9?$AAF?$AAI@ 10023994     libucrt:lcidtoname_downlevel.obj
 0002:000049a4       ??_C@_1M@JLANABKE@?$AAa?$AAr?$AA?9?$AAS?$AAY@ 100239a4     libucrt:lcidtoname_downlevel.obj
 0002:000049b0       ??_C@_1M@HPKGCFGN@?$AAe?$AAn?$AA?9?$AAB?$AAZ@ 100239b0     libucrt:lcidtoname_downlevel.obj
 0002:000049bc       ??_C@_1M@OLJCMLGM@?$AAe?$AAs?$AA?9?$AAP?$AAE@ 100239bc     libucrt:lcidtoname_downlevel.obj
 0002:000049c8       ??_C@_1M@MKKGFKLE@?$AAa?$AAr?$AA?9?$AAJ?$AAO@ 100239c8     libucrt:lcidtoname_downlevel.obj
 0002:000049d4       ??_C@_1M@EKPGLDNI@?$AAe?$AAn?$AA?9?$AAT?$AAT@ 100239d4     libucrt:lcidtoname_downlevel.obj
 0002:000049e0       ??_C@_1M@OONGHFHE@?$AAe?$AAs?$AA?9?$AAA?$AAR@ 100239e0     libucrt:lcidtoname_downlevel.obj
 0002:000049ec       ??_C@_1M@OOJFGBHE@?$AAa?$AAr?$AA?9?$AAL?$AAB@ 100239ec     libucrt:lcidtoname_downlevel.obj
 0002:000049f8       ??_C@_1M@GCEJHNEG@?$AAe?$AAn?$AA?9?$AAZ?$AAW@ 100239f8     libucrt:lcidtoname_downlevel.obj
 0002:00004a04       ??_C@_1M@JNOCAHJI@?$AAe?$AAs?$AA?9?$AAE?$AAC@ 10023a04     libucrt:lcidtoname_downlevel.obj
 0002:00004a10       ??_C@_1M@JEFHPGGB@?$AAa?$AAr?$AA?9?$AAK?$AAW@ 10023a10     libucrt:lcidtoname_downlevel.obj
 0002:00004a1c       ??_C@_1M@MLKIBJOJ@?$AAe?$AAn?$AA?9?$AAP?$AAH@ 10023a1c     libucrt:lcidtoname_downlevel.obj
 0002:00004a28       ??_C@_1M@BDNIPEND@?$AAe?$AAs?$AA?9?$AAC?$AAL@ 10023a28     libucrt:lcidtoname_downlevel.obj
 0002:00004a34       ??_C@_1M@MPNMEKBD@?$AAa?$AAr?$AA?9?$AAA?$AAE@ 10023a34     libucrt:lcidtoname_downlevel.obj
 0002:00004a40       ??_C@_1M@KBJALCPI@?$AAe?$AAs?$AA?9?$AAU?$AAY@ 10023a40     libucrt:lcidtoname_downlevel.obj
 0002:00004a4c       ??_C@_1M@LLCCOAGA@?$AAa?$AAr?$AA?9?$AAB?$AAH@ 10023a4c     libucrt:lcidtoname_downlevel.obj
 0002:00004a58       ??_C@_1M@PBFNCDEL@?$AAe?$AAs?$AA?9?$AAP?$AAY@ 10023a58     libucrt:lcidtoname_downlevel.obj
 0002:00004a64       ??_C@_1M@EDGINPNP@?$AAa?$AAr?$AA?9?$AAQ?$AAA@ 10023a64     libucrt:lcidtoname_downlevel.obj
 0002:00004a70       ??_C@_1M@MKDBIIJI@?$AAe?$AAs?$AA?9?$AAB?$AAO@ 10023a70     libucrt:lcidtoname_downlevel.obj
 0002:00004a7c       ??_C@_1M@CPKKEBLD@?$AAe?$AAs?$AA?9?$AAS?$AAV@ 10023a7c     libucrt:lcidtoname_downlevel.obj
 0002:00004a88       ??_C@_1M@NDBGMMJL@?$AAe?$AAs?$AA?9?$AAH?$AAN@ 10023a88     libucrt:lcidtoname_downlevel.obj
 0002:00004a94       ??_C@_1M@JIJIBHDP@?$AAe?$AAs?$AA?9?$AAN?$AAI@ 10023a94     libucrt:lcidtoname_downlevel.obj
 0002:00004aa0       ??_C@_1M@CGFMKEEK@?$AAe?$AAs?$AA?9?$AAP?$AAR@ 10023aa0     libucrt:lcidtoname_downlevel.obj
 0002:00004aac       ??_C@_1O@ICJHKIIK@?$AAz?$AAh?$AA?9?$AAC?$AAH?$AAT@ 10023aac     libucrt:lcidtoname_downlevel.obj
 0002:00004abc       ??_C@_15CLNEJCE@?$AAs?$AAr@ 10023abc     libucrt:lcidtoname_downlevel.obj
 0002:000051e8       ??_C@_1M@KAHEKEIG@?$AAa?$AAf?$AA?9?$AAz?$AAa@ 100241e8     libucrt:lcidtoname_downlevel.obj
 0002:000051f4       ??_C@_1M@GIECOABL@?$AAa?$AAr?$AA?9?$AAa?$AAe@ 100241f4     libucrt:lcidtoname_downlevel.obj
 0002:00005200       ??_C@_1M@BMLMEKGI@?$AAa?$AAr?$AA?9?$AAb?$AAh@ 10024200     libucrt:lcidtoname_downlevel.obj
 0002:0000520c       ??_C@_1M@DAPFDGGB@?$AAa?$AAr?$AA?9?$AAd?$AAz@ 1002420c     libucrt:lcidtoname_downlevel.obj
 0002:00005218       ??_C@_1M@FJNKGKIG@?$AAa?$AAr?$AA?9?$AAe?$AAg@ 10024218     libucrt:lcidtoname_downlevel.obj
 0002:00005224       ??_C@_1M@FLGKKCLO@?$AAa?$AAr?$AA?9?$AAi?$AAq@ 10024224     libucrt:lcidtoname_downlevel.obj
 0002:00005230       ??_C@_1M@GNDIPALM@?$AAa?$AAr?$AA?9?$AAj?$AAo@ 10024230     libucrt:lcidtoname_downlevel.obj
 0002:0000523c       ??_C@_1M@DDMJFMGJ@?$AAa?$AAr?$AA?9?$AAk?$AAw@ 1002423c     libucrt:lcidtoname_downlevel.obj
 0002:00005248       ??_C@_1M@EJALMLHM@?$AAa?$AAr?$AA?9?$AAl?$AAb@ 10024248     libucrt:lcidtoname_downlevel.obj
 0002:00005254       ??_C@_1M@MOBDBLOC@?$AAa?$AAr?$AA?9?$AAl?$AAy@ 10024254     libucrt:lcidtoname_downlevel.obj
 0002:00005260       ??_C@_1M@JAOCLHDH@?$AAa?$AAr?$AA?9?$AAm?$AAa@ 10024260     libucrt:lcidtoname_downlevel.obj
 0002:0000526c       ??_C@_1M@JHPMKJIE@?$AAa?$AAr?$AA?9?$AAo?$AAm@ 1002426c     libucrt:lcidtoname_downlevel.obj
 0002:00005278       ??_C@_1M@OEPGHFNH@?$AAa?$AAr?$AA?9?$AAq?$AAa@ 10024278     libucrt:lcidtoname_downlevel.obj
 0002:00005284       ??_C@_1M@KJDONENM@?$AAa?$AAr?$AA?9?$AAs?$AAa@ 10024284     libucrt:lcidtoname_downlevel.obj
 0002:00005290       ??_C@_1M@DMJDKLKM@?$AAa?$AAr?$AA?9?$AAs?$AAy@ 10024290     libucrt:lcidtoname_downlevel.obj
 0002:0000529c       ??_C@_1M@OMFIPEDC@?$AAa?$AAr?$AA?9?$AAt?$AAn@ 1002429c     libucrt:lcidtoname_downlevel.obj
 0002:000052a8       ??_C@_1M@IHMHGAON@?$AAa?$AAr?$AA?9?$AAy?$AAe@ 100242a8     libucrt:lcidtoname_downlevel.obj
 0002:000052b4       ??_C@_1BG@KDCPGJGB@?$AAa?$AAz?$AA?9?$AAa?$AAz?$AA?9?$AAc?$AAy?$AAr?$AAl@ 100242b4     libucrt:lcidtoname_downlevel.obj
 0002:000052cc       ??_C@_1BG@IBCKDDOE@?$AAa?$AAz?$AA?9?$AAa?$AAz?$AA?9?$AAl?$AAa?$AAt?$AAn@ 100242cc     libucrt:lcidtoname_downlevel.obj
 0002:000052e4       ??_C@_1M@EGPFDCPD@?$AAb?$AAe?$AA?9?$AAb?$AAy@ 100242e4     libucrt:lcidtoname_downlevel.obj
 0002:000052f0       ??_C@_1M@PCMGMCGC@?$AAb?$AAg?$AA?9?$AAb?$AAg@ 100242f0     libucrt:lcidtoname_downlevel.obj
 0002:000052fc       ??_C@_1M@BJBMFGOB@?$AAb?$AAn?$AA?9?$AAi?$AAn@ 100242fc     libucrt:lcidtoname_downlevel.obj
 0002:00005308       ??_C@_1BG@EAKMMACD@?$AAb?$AAs?$AA?9?$AAb?$AAa?$AA?9?$AAl?$AAa?$AAt?$AAn@ 10024308     libucrt:lcidtoname_downlevel.obj
 0002:00005320       ??_C@_1M@KGADAODK@?$AAc?$AAa?$AA?9?$AAe?$AAs@ 10024320     libucrt:lcidtoname_downlevel.obj
 0002:0000532c       ??_C@_1M@COAJPDHI@?$AAc?$AAs?$AA?9?$AAc?$AAz@ 1002432c     libucrt:lcidtoname_downlevel.obj
 0002:00005338       ??_C@_1M@DHBHFONH@?$AAc?$AAy?$AA?9?$AAg?$AAb@ 10024338     libucrt:lcidtoname_downlevel.obj
 0002:00005344       ??_C@_1M@IMGKELGA@?$AAd?$AAa?$AA?9?$AAd?$AAk@ 10024344     libucrt:lcidtoname_downlevel.obj
 0002:00005350       ??_C@_1M@NNDGDNGA@?$AAd?$AAe?$AA?9?$AAa?$AAt@ 10024350     libucrt:lcidtoname_downlevel.obj
 0002:0000535c       ??_C@_1M@IKDBHEEM@?$AAd?$AAe?$AA?9?$AAc?$AAh@ 1002435c     libucrt:lcidtoname_downlevel.obj
 0002:00005368       ??_C@_1M@GFFOJMCJ@?$AAd?$AAe?$AA?9?$AAd?$AAe@ 10024368     libucrt:lcidtoname_downlevel.obj
 0002:00005374       ??_C@_1M@MDNLKBPM@?$AAd?$AAe?$AA?9?$AAl?$AAi@ 10024374     libucrt:lcidtoname_downlevel.obj
 0002:00005380       ??_C@_1M@NJBEEJNL@?$AAd?$AAe?$AA?9?$AAl?$AAu@ 10024380     libucrt:lcidtoname_downlevel.obj
 0002:0000538c       ??_C@_1O@GNNELBAP@?$AAd?$AAi?$AAv?$AA?9?$AAm?$AAv@ 1002438c     libucrt:lcidtoname_downlevel.obj
 0002:0000539c       ??_C@_1M@EJLEOGAE@?$AAe?$AAl?$AA?9?$AAg?$AAr@ 1002439c     libucrt:lcidtoname_downlevel.obj
 0002:000053a8       ??_C@_1M@GMPONJN@?$AAe?$AAn?$AA?9?$AAa?$AAu@ 100243a8     libucrt:lcidtoname_downlevel.obj
 0002:000053b4       ??_C@_1M@NIDIIPGF@?$AAe?$AAn?$AA?9?$AAb?$AAz@ 100243b4     libucrt:lcidtoname_downlevel.obj
 0002:000053c0       ??_C@_1M@JEHMIMFO@?$AAe?$AAn?$AA?9?$AAc?$AAa@ 100243c0     libucrt:lcidtoname_downlevel.obj
 0002:000053cc       ??_C@_1M@IGMJCDLA@?$AAe?$AAn?$AA?9?$AAc?$AAb@ 100243cc     libucrt:lcidtoname_downlevel.obj
 0002:000053d8       ??_C@_1M@BNFIGBKG@?$AAe?$AAn?$AA?9?$AAg?$AAb@ 100243d8     libucrt:lcidtoname_downlevel.obj
 0002:000053e4       ??_C@_1M@LKIFDIGP@?$AAe?$AAn?$AA?9?$AAi?$AAe@ 100243e4     libucrt:lcidtoname_downlevel.obj
 0002:000053f0       ??_C@_1M@PJKFGCCO@?$AAe?$AAn?$AA?9?$AAj?$AAm@ 100243f0     libucrt:lcidtoname_downlevel.obj
 0002:000053fc       ??_C@_1M@KPPKEPBO@?$AAe?$AAn?$AA?9?$AAn?$AAz@ 100243fc     libucrt:lcidtoname_downlevel.obj
 0002:00005408       ??_C@_1M@GMDGLDOB@?$AAe?$AAn?$AA?9?$AAp?$AAh@ 10024408     libucrt:lcidtoname_downlevel.obj
 0002:00005414       ??_C@_1M@ONGIBJNA@?$AAe?$AAn?$AA?9?$AAt?$AAt@ 10024414     libucrt:lcidtoname_downlevel.obj
 0002:00005420       ??_C@_1M@LLODPCMM@?$AAe?$AAn?$AA?9?$AAu?$AAs@ 10024420     libucrt:lcidtoname_downlevel.obj
 0002:0000542c       ??_C@_1M@LAKFNPAN@?$AAe?$AAn?$AA?9?$AAz?$AAa@ 1002442c     libucrt:lcidtoname_downlevel.obj
 0002:00005438       ??_C@_1M@MFNHNHEO@?$AAe?$AAn?$AA?9?$AAz?$AAw@ 10024438     libucrt:lcidtoname_downlevel.obj
 0002:00005444       ??_C@_1M@EJEINPHM@?$AAe?$AAs?$AA?9?$AAa?$AAr@ 10024444     libucrt:lcidtoname_downlevel.obj
 0002:00005450       ??_C@_1M@GNKPCCJA@?$AAe?$AAs?$AA?9?$AAb?$AAo@ 10024450     libucrt:lcidtoname_downlevel.obj
 0002:0000545c       ??_C@_1M@LEEGFONL@?$AAe?$AAs?$AA?9?$AAc?$AAl@ 1002445c     libucrt:lcidtoname_downlevel.obj
 0002:00005468       ??_C@_1M@KGPDPBDF@?$AAe?$AAs?$AA?9?$AAc?$AAo@ 10024468     libucrt:lcidtoname_downlevel.obj
 0002:00005474       ??_C@_1M@EIAHOHH@?$AAe?$AAs?$AA?9?$AAc?$AAr@ 10024474     libucrt:lcidtoname_downlevel.obj
 0002:00005480       ??_C@_1M@LLPGMBIN@?$AAe?$AAs?$AA?9?$AAd?$AAo@ 10024480     libucrt:lcidtoname_downlevel.obj
 0002:0000548c       ??_C@_1M@DKHMKNJA@?$AAe?$AAs?$AA?9?$AAe?$AAc@ 1002448c     libucrt:lcidtoname_downlevel.obj
 0002:00005498       ??_C@_1M@GKGFPKAP@?$AAe?$AAs?$AA?9?$AAe?$AAs@ 10024498     libucrt:lcidtoname_downlevel.obj
 0002:000054a4       ??_C@_1M@LKHKGDLN@?$AAe?$AAs?$AA?9?$AAg?$AAt@ 100244a4     libucrt:lcidtoname_downlevel.obj
 0002:000054b0       ??_C@_1M@HEIIGGJD@?$AAe?$AAs?$AA?9?$AAh?$AAn@ 100244b0     libucrt:lcidtoname_downlevel.obj
 0002:000054bc       ??_C@_1M@FBDHPPGD@?$AAe?$AAs?$AA?9?$AAm?$AAx@ 100244bc     libucrt:lcidtoname_downlevel.obj
 0002:000054c8       ??_C@_1M@DPAGLNDH@?$AAe?$AAs?$AA?9?$AAn?$AAi@ 100244c8     libucrt:lcidtoname_downlevel.obj
 0002:000054d4       ??_C@_1M@MDGOPGDD@?$AAe?$AAs?$AA?9?$AAp?$AAa@ 100244d4     libucrt:lcidtoname_downlevel.obj
 0002:000054e0       ??_C@_1M@EMAMGBGE@?$AAe?$AAs?$AA?9?$AAp?$AAe@ 100244e0     libucrt:lcidtoname_downlevel.obj
 0002:000054ec       ??_C@_1M@IBMCAOEC@?$AAe?$AAs?$AA?9?$AAp?$AAr@ 100244ec     libucrt:lcidtoname_downlevel.obj
 0002:000054f8       ??_C@_1M@FGMDIJED@?$AAe?$AAs?$AA?9?$AAp?$AAy@ 100244f8     libucrt:lcidtoname_downlevel.obj
 0002:00005504       ??_C@_1M@IIDEOLLL@?$AAe?$AAs?$AA?9?$AAs?$AAv@ 10024504     libucrt:lcidtoname_downlevel.obj
 0002:00005510       ??_C@_1M@GAOBIPA@?$AAe?$AAs?$AA?9?$AAu?$AAy@ 10024510     libucrt:lcidtoname_downlevel.obj
 0002:0000551c       ??_C@_1M@JKFFICHJ@?$AAe?$AAs?$AA?9?$AAv?$AAe@ 1002451c     libucrt:lcidtoname_downlevel.obj
 0002:00005528       ??_C@_1M@PNMLOJDF@?$AAe?$AAt?$AA?9?$AAe?$AAe@ 10024528     libucrt:lcidtoname_downlevel.obj
 0002:00005534       ??_C@_1M@GHHLIKEI@?$AAe?$AAu?$AA?9?$AAe?$AAs@ 10024534     libucrt:lcidtoname_downlevel.obj
 0002:00005540       ??_C@_1M@PBNONODE@?$AAf?$AAa?$AA?9?$AAi?$AAr@ 10024540     libucrt:lcidtoname_downlevel.obj
 0002:0000554c       ??_C@_1M@JEEHPMIL@?$AAf?$AAi?$AA?9?$AAf?$AAi@ 1002454c     libucrt:lcidtoname_downlevel.obj
 0002:00005558       ??_C@_1M@LMDCNDBA@?$AAf?$AAo?$AA?9?$AAf?$AAo@ 10024558     libucrt:lcidtoname_downlevel.obj
 0002:00005564       ??_C@_1M@JKEOHLDK@?$AAf?$AAr?$AA?9?$AAb?$AAe@ 10024564     libucrt:lcidtoname_downlevel.obj
 0002:00005570       ??_C@_1M@NOHADPMI@?$AAf?$AAr?$AA?9?$AAc?$AAa@ 10024570     libucrt:lcidtoname_downlevel.obj
 0002:0000557c       ??_C@_1M@KDHIHAEC@?$AAf?$AAr?$AA?9?$AAc?$AAh@ 1002457c     libucrt:lcidtoname_downlevel.obj
 0002:00005588       ??_C@_1M@MMBBFGAK@?$AAf?$AAr?$AA?9?$AAf?$AAr@ 10024588     libucrt:lcidtoname_downlevel.obj
 0002:00005594       ??_C@_1M@PAFNENNF@?$AAf?$AAr?$AA?9?$AAl?$AAu@ 10024594     libucrt:lcidtoname_downlevel.obj
 0002:000055a0       ??_C@_1M@EOHDJGDD@?$AAf?$AAr?$AA?9?$AAm?$AAc@ 100245a0     libucrt:lcidtoname_downlevel.obj
 0002:000055ac       ??_C@_1M@FAPLLOPF@?$AAg?$AAl?$AA?9?$AAe?$AAs@ 100245ac     libucrt:lcidtoname_downlevel.obj
 0002:000055b8       ??_C@_1M@FOPBFLOO@?$AAg?$AAu?$AA?9?$AAi?$AAn@ 100245b8     libucrt:lcidtoname_downlevel.obj
 0002:000055c4       ??_C@_1M@KBMCINPM@?$AAh?$AAe?$AA?9?$AAi?$AAl@ 100245c4     libucrt:lcidtoname_downlevel.obj
 0002:000055d0       ??_C@_1M@BBPHKFPJ@?$AAh?$AAi?$AA?9?$AAi?$AAn@ 100245d0     libucrt:lcidtoname_downlevel.obj
 0002:000055dc       ??_C@_1M@PMBNDPHD@?$AAh?$AAr?$AA?9?$AAb?$AAa@ 100245dc     libucrt:lcidtoname_downlevel.obj
 0002:000055e8       ??_C@_1M@BPCKOEGE@?$AAh?$AAr?$AA?9?$AAh?$AAr@ 100245e8     libucrt:lcidtoname_downlevel.obj
 0002:000055f4       ??_C@_1M@GACBMHKE@?$AAh?$AAu?$AA?9?$AAh?$AAu@ 100245f4     libucrt:lcidtoname_downlevel.obj
 0002:00005600       ??_C@_1M@MILPAJJC@?$AAh?$AAy?$AA?9?$AAa?$AAm@ 10024600     libucrt:lcidtoname_downlevel.obj
 0002:0000560c       ??_C@_1M@BABBICEC@?$AAi?$AAd?$AA?9?$AAi?$AAd@ 1002460c     libucrt:lcidtoname_downlevel.obj
 0002:00005618       ??_C@_1M@BIKNHHPF@?$AAi?$AAs?$AA?9?$AAi?$AAs@ 10024618     libucrt:lcidtoname_downlevel.obj
 0002:00005624       ??_C@_1M@NMPCJPHE@?$AAi?$AAt?$AA?9?$AAc?$AAh@ 10024624     libucrt:lcidtoname_downlevel.obj
 0002:00005630       ??_C@_1M@GHKGFEDF@?$AAi?$AAt?$AA?9?$AAi?$AAt@ 10024630     libucrt:lcidtoname_downlevel.obj
 0002:0000563c       ??_C@_1M@NIEJCJJA@?$AAj?$AAa?$AA?9?$AAj?$AAp@ 1002463c     libucrt:lcidtoname_downlevel.obj
 0002:00005648       ??_C@_1M@JILFNBIM@?$AAk?$AAa?$AA?9?$AAg?$AAe@ 10024648     libucrt:lcidtoname_downlevel.obj
 0002:00005654       ??_C@_1M@PACPMGPH@?$AAk?$AAk?$AA?9?$AAk?$AAz@ 10024654     libucrt:lcidtoname_downlevel.obj
 0002:00005660       ??_C@_1M@IELFGMHA@?$AAk?$AAn?$AA?9?$AAi?$AAn@ 10024660     libucrt:lcidtoname_downlevel.obj
 0002:0000566c       ??_C@_1O@IBBJHCH@?$AAk?$AAo?$AAk?$AA?9?$AAi?$AAn@ 1002466c     libucrt:lcidtoname_downlevel.obj
 0002:0000567c       ??_C@_1M@DMHAEOGC@?$AAk?$AAo?$AA?9?$AAk?$AAr@ 1002467c     libucrt:lcidtoname_downlevel.obj
 0002:00005688       ??_C@_1M@HBAHBIGA@?$AAk?$AAy?$AA?9?$AAk?$AAg@ 10024688     libucrt:lcidtoname_downlevel.obj
 0002:00005694       ??_C@_1M@KPMILCJG@?$AAl?$AAt?$AA?9?$AAl?$AAt@ 10024694     libucrt:lcidtoname_downlevel.obj
 0002:000056a0       ??_C@_1M@BDEKKCA@?$AAl?$AAv?$AA?9?$AAl?$AAv@ 100246a0     libucrt:lcidtoname_downlevel.obj
 0002:000056ac       ??_C@_1M@ELCKCCJJ@?$AAm?$AAi?$AA?9?$AAn?$AAz@ 100246ac     libucrt:lcidtoname_downlevel.obj
 0002:000056b8       ??_C@_1M@CBOOLAPA@?$AAm?$AAk?$AA?9?$AAm?$AAk@ 100246b8     libucrt:lcidtoname_downlevel.obj
 0002:000056c4       ??_C@_1M@GPHNBJKN@?$AAm?$AAl?$AA?9?$AAi?$AAn@ 100246c4     libucrt:lcidtoname_downlevel.obj
 0002:000056d0       ??_C@_1M@PABJILIG@?$AAm?$AAn?$AA?9?$AAm?$AAn@ 100246d0     libucrt:lcidtoname_downlevel.obj
 0002:000056dc       ??_C@_1M@FGBKKIPG@?$AAm?$AAr?$AA?9?$AAi?$AAn@ 100246dc     libucrt:lcidtoname_downlevel.obj
 0002:000056e8       ??_C@_1M@NDBPDDAL@?$AAm?$AAs?$AA?9?$AAb?$AAn@ 100246e8     libucrt:lcidtoname_downlevel.obj
 0002:000056f4       ??_C@_1M@OPIHOOPI@?$AAm?$AAs?$AA?9?$AAm?$AAy@ 100246f4     libucrt:lcidtoname_downlevel.obj
 0002:00005700       ??_C@_1M@PPDBCNFM@?$AAm?$AAt?$AA?9?$AAm?$AAt@ 10024700     libucrt:lcidtoname_downlevel.obj
 0002:0000570c       ??_C@_1M@KDJDKMDD@?$AAn?$AAb?$AA?9?$AAn?$AAo@ 1002470c     libucrt:lcidtoname_downlevel.obj
 0002:00005718       ??_C@_1M@KFCFLMJP@?$AAn?$AAl?$AA?9?$AAb?$AAe@ 10024718     libucrt:lcidtoname_downlevel.obj
 0002:00005724       ??_C@_1M@KPOPDDGO@?$AAn?$AAl?$AA?9?$AAn?$AAl@ 10024724     libucrt:lcidtoname_downlevel.obj
 0002:00005730       ??_C@_1M@LJKPEMLN@?$AAn?$AAn?$AA?9?$AAn?$AAo@ 10024730     libucrt:lcidtoname_downlevel.obj
 0002:0000573c       ??_C@_1M@BDGHHBFL@?$AAn?$AAs?$AA?9?$AAz?$AAa@ 1002473c     libucrt:lcidtoname_downlevel.obj
 0002:00005748       ??_C@_1M@IDEHOAP@?$AAp?$AAa?$AA?9?$AAi?$AAn@ 10024748     libucrt:lcidtoname_downlevel.obj
 0002:00005754       ??_C@_1M@HDBKGOGH@?$AAp?$AAl?$AA?9?$AAp?$AAl@ 10024754     libucrt:lcidtoname_downlevel.obj
 0002:00005760       ??_C@_1M@LJLLCMEH@?$AAp?$AAt?$AA?9?$AAb?$AAr@ 10024760     libucrt:lcidtoname_downlevel.obj
 0002:0000576c       ??_C@_1M@NCMONAAL@?$AAp?$AAt?$AA?9?$AAp?$AAt@ 1002476c     libucrt:lcidtoname_downlevel.obj
 0002:00005778       ??_C@_1O@EAKMAJDN@?$AAq?$AAu?$AAz?$AA?9?$AAb?$AAo@ 10024778     libucrt:lcidtoname_downlevel.obj
 0002:00005788       ??_C@_1O@BHHPIGDN@?$AAq?$AAu?$AAz?$AA?9?$AAe?$AAc@ 10024788     libucrt:lcidtoname_downlevel.obj
 0002:00005798       ??_C@_1O@GBAPEKMJ@?$AAq?$AAu?$AAz?$AA?9?$AAp?$AAe@ 10024798     libucrt:lcidtoname_downlevel.obj
 0002:000057a8       ??_C@_1M@CLGLEFBO@?$AAr?$AAo?$AA?9?$AAr?$AAo@ 100247a8     libucrt:lcidtoname_downlevel.obj
 0002:000057b4       ??_C@_1M@CEEDODME@?$AAr?$AAu?$AA?9?$AAr?$AAu@ 100247b4     libucrt:lcidtoname_downlevel.obj
 0002:000057c0       ??_C@_1M@HPKKKMPP@?$AAs?$AAa?$AA?9?$AAi?$AAn@ 100247c0     libucrt:lcidtoname_downlevel.obj
 0002:000057cc       ??_C@_1M@BKMAIGOJ@?$AAs?$AAe?$AA?9?$AAf?$AAi@ 100247cc     libucrt:lcidtoname_downlevel.obj
 0002:000057d8       ??_C@_1M@NDPIFLFI@?$AAs?$AAe?$AA?9?$AAn?$AAo@ 100247d8     libucrt:lcidtoname_downlevel.obj
 0002:000057e4       ??_C@_1M@DANKKHJ@?$AAs?$AAe?$AA?9?$AAs?$AAe@ 100247e4     libucrt:lcidtoname_downlevel.obj
 0002:000057f0       ??_C@_1M@PNBLONPJ@?$AAs?$AAk?$AA?9?$AAs?$AAk@ 100247f0     libucrt:lcidtoname_downlevel.obj
 0002:000057fc       ??_C@_1M@LFMODOAL@?$AAs?$AAl?$AA?9?$AAs?$AAi@ 100247fc     libucrt:lcidtoname_downlevel.obj
 0002:00005808       ??_C@_1O@DFKOMPG@?$AAs?$AAm?$AAa?$AA?9?$AAn?$AAo@ 10024808     libucrt:lcidtoname_downlevel.obj
 0002:00005818       ??_C@_1O@NDKPBNNH@?$AAs?$AAm?$AAa?$AA?9?$AAs?$AAe@ 10024818     libucrt:lcidtoname_downlevel.obj
 0002:00005828       ??_C@_1O@PLLKBHAB@?$AAs?$AAm?$AAj?$AA?9?$AAn?$AAo@ 10024828     libucrt:lcidtoname_downlevel.obj
 0002:00005838       ??_C@_1O@CLEPOGCA@?$AAs?$AAm?$AAj?$AA?9?$AAs?$AAe@ 10024838     libucrt:lcidtoname_downlevel.obj
 0002:00005848       ??_C@_1O@DLGJGKMK@?$AAs?$AAm?$AAn?$AA?9?$AAf?$AAi@ 10024848     libucrt:lcidtoname_downlevel.obj
 0002:00005858       ??_C@_1O@OJDJGAJC@?$AAs?$AAm?$AAs?$AA?9?$AAf?$AAi@ 10024858     libucrt:lcidtoname_downlevel.obj
 0002:00005868       ??_C@_1M@BOFOGHPB@?$AAs?$AAq?$AA?9?$AAa?$AAl@ 10024868     libucrt:lcidtoname_downlevel.obj
 0002:00005874       ??_C@_1BG@LJBBIPGB@?$AAs?$AAr?$AA?9?$AAb?$AAa?$AA?9?$AAc?$AAy?$AAr?$AAl@ 10024874     libucrt:lcidtoname_downlevel.obj
 0002:0000588c       ??_C@_1BG@JLBENFOE@?$AAs?$AAr?$AA?9?$AAb?$AAa?$AA?9?$AAl?$AAa?$AAt?$AAn@ 1002488c     libucrt:lcidtoname_downlevel.obj
 0002:000058a4       ??_C@_1BG@KODPNHE@?$AAs?$AAr?$AA?9?$AAs?$AAp?$AA?9?$AAc?$AAy?$AAr?$AAl@ 100248a4     libucrt:lcidtoname_downlevel.obj
 0002:000058bc       ??_C@_1BG@CIOGKHPB@?$AAs?$AAr?$AA?9?$AAs?$AAp?$AA?9?$AAl?$AAa?$AAt?$AAn@ 100248bc     libucrt:lcidtoname_downlevel.obj
 0002:000058d4       ??_C@_1M@NGFJLMAC@?$AAs?$AAv?$AA?9?$AAf?$AAi@ 100248d4     libucrt:lcidtoname_downlevel.obj
 0002:000058e0       ??_C@_1M@MPJEJAJC@?$AAs?$AAv?$AA?9?$AAs?$AAe@ 100248e0     libucrt:lcidtoname_downlevel.obj
 0002:000058ec       ??_C@_1M@MPNDHLFK@?$AAs?$AAw?$AA?9?$AAk?$AAe@ 100248ec     libucrt:lcidtoname_downlevel.obj
 0002:000058f8       ??_C@_1O@KOHBJJI@?$AAs?$AAy?$AAr?$AA?9?$AAs?$AAy@ 100248f8     libucrt:lcidtoname_downlevel.obj
 0002:00005908       ??_C@_1M@LDCEFHA@?$AAt?$AAa?$AA?9?$AAi?$AAn@ 10024908     libucrt:lcidtoname_downlevel.obj
 0002:00005914       ??_C@_1M@CNJOFAK@?$AAt?$AAe?$AA?9?$AAi?$AAn@ 10024914     libucrt:lcidtoname_downlevel.obj
 0002:00005920       ??_C@_1M@GNAECACD@?$AAt?$AAh?$AA?9?$AAt?$AAh@ 10024920     libucrt:lcidtoname_downlevel.obj
 0002:0000592c       ??_C@_1M@CHBIHOJO@?$AAt?$AAn?$AA?9?$AAz?$AAa@ 1002492c     libucrt:lcidtoname_downlevel.obj
 0002:00005938       ??_C@_1M@GCCMIGPJ@?$AAt?$AAr?$AA?9?$AAt?$AAr@ 10024938     libucrt:lcidtoname_downlevel.obj
 0002:00005944       ??_C@_1M@CELMCNBK@?$AAt?$AAt?$AA?9?$AAr?$AAu@ 10024944     libucrt:lcidtoname_downlevel.obj
 0002:00005950       ??_C@_1M@KLMCELGA@?$AAu?$AAk?$AA?9?$AAu?$AAa@ 10024950     libucrt:lcidtoname_downlevel.obj
 0002:0000595c       ??_C@_1M@EPAJJAJF@?$AAu?$AAr?$AA?9?$AAp?$AAk@ 1002495c     libucrt:lcidtoname_downlevel.obj
 0002:00005968       ??_C@_1BG@GEGPMCDJ@?$AAu?$AAz?$AA?9?$AAu?$AAz?$AA?9?$AAc?$AAy?$AAr?$AAl@ 10024968     libucrt:lcidtoname_downlevel.obj
 0002:00005980       ??_C@_1BG@EGGKJILM@?$AAu?$AAz?$AA?9?$AAu?$AAz?$AA?9?$AAl?$AAa?$AAt?$AAn@ 10024980     libucrt:lcidtoname_downlevel.obj
 0002:00005998       ??_C@_1M@GFOCLFF@?$AAv?$AAi?$AA?9?$AAv?$AAn@ 10024998     libucrt:lcidtoname_downlevel.obj
 0002:000059a4       ??_C@_1M@CPAMEDFI@?$AAx?$AAh?$AA?9?$AAz?$AAa@ 100249a4     libucrt:lcidtoname_downlevel.obj
 0002:000059b0       ??_C@_1O@EBKIFIGN@?$AAz?$AAh?$AA?9?$AAc?$AAh?$AAs@ 100249b0     libucrt:lcidtoname_downlevel.obj
 0002:000059c0       ??_C@_1O@NMHPGANE@?$AAz?$AAh?$AA?9?$AAc?$AAh?$AAt@ 100249c0     libucrt:lcidtoname_downlevel.obj
 0002:000059d0       ??_C@_1M@LPINJOMC@?$AAz?$AAh?$AA?9?$AAc?$AAn@ 100249d0     libucrt:lcidtoname_downlevel.obj
 0002:000059dc       ??_C@_1M@OCJEJODD@?$AAz?$AAh?$AA?9?$AAh?$AAk@ 100249dc     libucrt:lcidtoname_downlevel.obj
 0002:000059e8       ??_C@_1M@DNDLJINH@?$AAz?$AAh?$AA?9?$AAm?$AAo@ 100249e8     libucrt:lcidtoname_downlevel.obj
 0002:000059f4       ??_C@_1M@MBFDNDND@?$AAz?$AAh?$AA?9?$AAs?$AAg@ 100249f4     libucrt:lcidtoname_downlevel.obj
 0002:00005a00       ??_C@_1M@IMEPLEPE@?$AAz?$AAh?$AA?9?$AAt?$AAw@ 10024a00     libucrt:lcidtoname_downlevel.obj
 0002:00005a0c       ??_C@_1M@BBGHNHJP@?$AAz?$AAu?$AA?9?$AAz?$AAa@ 10024a0c     libucrt:lcidtoname_downlevel.obj
 0002:00005a18       ?large_power_data@?1??multiply_by_power_of_ten@__crt_strtox@@YA_NAAUbig_integer@2@I@Z@4QBIB 10024a18     libucrt:cfout.obj
 0002:000063b8       ?small_powers_of_ten@?1??multiply_by_power_of_ten@__crt_strtox@@YA_NAAUbig_integer@2@I@Z@4QBIB 100253b8     libucrt:cfout.obj
 0002:000063dc       ??_C@_01GBGANLPD@0@        100253dc     libucrt:cfout.obj
 0002:000063e0       ??_C@_05DNEBIAHO@1?$CDINF@ 100253e0     libucrt:cfout.obj
 0002:000063e8       ??_C@_06IMKFLFPG@1?$CDQNAN@ 100253e8     libucrt:cfout.obj
 0002:000063f0       ??_C@_06PGGFOGJG@1?$CDSNAN@ 100253f0     libucrt:cfout.obj
 0002:000063f8       ??_C@_05PHHOCPM@1?$CDIND@  100253f8     libucrt:cfout.obj
 0002:00006560       __infinity                 10025560     libucrt:87tran.obj
 0002:0000656a       __minfinity                1002556a     libucrt:87tran.obj
 0002:00006574       __logemax                  10025574     libucrt:87tran.obj
 0002:0000659a       __OP_EXPjmptab             1002559a     libucrt:87tran.obj
 0002:000065c0       __indefinite               100255c0     libucrt:87disp.obj
 0002:000065ca       __piby2                    100255ca     libucrt:87disp.obj
 0002:000065d4       __piby4                    100255d4     libucrt:87disp.obj
 0002:00006608       __DEFAULT_CW_in_mem        10025608     libucrt:common.obj
 0002:0000660a       __pi_by_2_to_61            1002560a     libucrt:common.obj
 0002:00006644       ??_C@_03MGHMBJCF@log@      10025644     libucrt:libm_error.obj
 0002:00006648       ??_C@_05HGHHAHAP@log10@    10025648     libucrt:libm_error.obj
 0002:00006650       ??_C@_03KHJOGHMM@exp@      10025650     libucrt:libm_error.obj
 0002:00006654       ??_C@_03JGHBODFD@pow@      10025654     libucrt:libm_error.obj
 0002:00006658       ??_C@_04FIHNOPOL@asin@     10025658     libucrt:libm_error.obj
 0002:00006660       ??_C@_04PDIFKINK@acos@     10025660     libucrt:libm_error.obj
 0002:00006668       ??_C@_04EIAKFFMI@sqrt@     10025668     libucrt:libm_error.obj
 0002:00006670       __real@3ff0000000000000    10025670     libucrt:libm_error.obj
 0002:00006678       ??_C@_1BA@BALFACEM@?$AAC?$AAO?$AAN?$AAO?$AAU?$AAT?$AA$@ 10025678     libucrt:initcon.obj
 0002:000066a0       ___acrt_log10_table_t      100256a0     libucrt:log10_tables.obj
 0002:00006ab0       ___acrt_log10_table_cb     10025ab0     libucrt:log10_tables.obj
 0002:00006ec0       __real@3fe0000000000000    10025ec0     libucrt:powhlp.obj
 0002:00006fb0       ??_C@_04COOMCNPB@sinh@     10025fb0     libucrt:fpexcept.obj
 0002:00006fb8       ??_C@_04HPJJNFIM@cosh@     10025fb8     libucrt:fpexcept.obj
 0002:00006fc0       ??_C@_04FJHINJAO@tanh@     10025fc0     libucrt:fpexcept.obj
 0002:00006fc8       ??_C@_04MLLJIGOK@atan@     10025fc8     libucrt:fpexcept.obj
 0002:00006fd0       ??_C@_05KNGEOGJB@atan2@    10025fd0     libucrt:fpexcept.obj
 0002:00006fd8       ??_C@_03BLEJJJBH@sin@      10025fd8     libucrt:fpexcept.obj
 0002:00006fdc       ??_C@_03LALBNOCG@cos@      10025fdc     libucrt:fpexcept.obj
 0002:00006fe0       ??_C@_03IIINPABG@tan@      10025fe0     libucrt:fpexcept.obj
 0002:00006fe4       ??_C@_04GFPJNGEK@ceil@     10025fe4     libucrt:fpexcept.obj
 0002:00006fec       ??_C@_05PBJFFIGL@floor@    10025fec     libucrt:fpexcept.obj
 0002:00006ff4       ??_C@_04ODHECPBC@fabs@     10025ff4     libucrt:fpexcept.obj
 0002:00006ffc       ??_C@_04EHEDPDJG@modf@     10025ffc     libucrt:fpexcept.obj
 0002:00007004       ??_C@_05CEJMAHNP@ldexp@    10026004     libucrt:fpexcept.obj
 0002:0000700c       ??_C@_05KBKMEMPO@_cabs@    1002600c     libucrt:fpexcept.obj
 0002:00007014       ??_C@_06MEIMCGCF@_hypot@   10026014     libucrt:fpexcept.obj
 0002:0000701c       ??_C@_04KEPJIHGP@fmod@     1002601c     libucrt:fpexcept.obj
 0002:00007024       ??_C@_05GKKHEGJL@frexp@    10026024     libucrt:fpexcept.obj
 0002:0000702c       ??_C@_03MJLDFKDL@_y0@      1002602c     libucrt:fpexcept.obj
 0002:00007030       ??_C@_03NAKIGLHK@_y1@      10026030     libucrt:fpexcept.obj
 0002:00007034       ??_C@_03ONILCKOB@_yn@      10026034     libucrt:fpexcept.obj
 0002:00007038       ??_C@_05JGDBENOH@_logb@    10026038     libucrt:fpexcept.obj
 0002:00007040       ??_C@_0L@KDOEJCKC@_nextafter@ 10026040     libucrt:fpexcept.obj
 0002:00007050       __d_inf                    10026050     libucrt:util.obj
 0002:00007058       __d_max                    10026058     libucrt:util.obj
 0002:00007060       __d_mzero                  10026060     libucrt:util.obj
 0002:000070d8       __load_config_used         100260d8     LIBCMT:loadcfg.obj
 0002:0000717c       __tls_used                 1002617c     LIBCMT:tlssup.obj
 0002:00007194       ??_R4exception@std@@6B@    10026194     LIBCMT:throw_bad_alloc.obj
 0002:000071a8       ??_R3exception@std@@8      100261a8     LIBCMT:throw_bad_alloc.obj
 0002:000071b8       ??_R2exception@std@@8      100261b8     LIBCMT:throw_bad_alloc.obj
 0002:000071c0       ??_R1A@?0A@EA@exception@std@@8 100261c0     LIBCMT:throw_bad_alloc.obj
 0002:000071dc       ??_R4bad_alloc@std@@6B@    100261dc     LIBCMT:throw_bad_alloc.obj
 0002:000071f0       ??_R3bad_alloc@std@@8      100261f0     LIBCMT:throw_bad_alloc.obj
 0002:00007200       ??_R2bad_alloc@std@@8      10026200     LIBCMT:throw_bad_alloc.obj
 0002:0000720c       ??_R1A@?0A@EA@bad_alloc@std@@8 1002620c     LIBCMT:throw_bad_alloc.obj
 0002:00007228       ??_R4bad_array_new_length@std@@6B@ 10026228     LIBCMT:throw_bad_alloc.obj
 0002:0000723c       ??_R3bad_array_new_length@std@@8 1002623c     LIBCMT:throw_bad_alloc.obj
 0002:0000724c       ??_R2bad_array_new_length@std@@8 1002624c     LIBCMT:throw_bad_alloc.obj
 0002:0000725c       ??_R1A@?0A@EA@bad_array_new_length@std@@8 1002625c     LIBCMT:throw_bad_alloc.obj
 0002:00007278       ??_R4type_info@@6B@        10026278     LIBCMT:std_type_info_static.obj
 0002:0000728c       ??_R3type_info@@8          1002628c     LIBCMT:std_type_info_static.obj
 0002:0000729c       ??_R2type_info@@8          1002629c     LIBCMT:std_type_info_static.obj
 0002:000072a4       ??_R1A@?0A@EA@type_info@@8 100262a4     LIBCMT:std_type_info_static.obj
 0002:000072c0       ??_R4bad_exception@std@@6B@ 100262c0     libvcruntime:frame.obj
 0002:000072d4       ??_R3bad_exception@std@@8  100262d4     libvcruntime:frame.obj
 0002:000072e4       ??_R2bad_exception@std@@8  100262e4     libvcruntime:frame.obj
 0002:000072f0       ??_R1A@?0A@EA@bad_exception@std@@8 100262f0     libvcruntime:frame.obj
 0002:00007310       ___safe_se_handler_table   10026310     <linker-defined>
 0002:0000770c       ___rtc_iaa                 1002670c     LIBCMT:initsect.obj
 0002:00007710       ___rtc_izz                 10026710     LIBCMT:initsect.obj
 0002:00007714       ___rtc_taa                 10026714     LIBCMT:initsect.obj
 0002:00007718       ___rtc_tzz                 10026718     LIBCMT:initsect.obj
 0002:0000771c       __tls_start                1002671c     LIBCMT:tlssup.obj
 0002:00007720       __Init_thread_epoch        10026720     LIBCMT:thread_safe_statics.obj
 0002:00007724       __tls_end                  10026724     LIBCMT:tlssup.obj
 0002:00007824       __TI2?AVbad_alloc@std@@    10026824     LIBCMT:throw_bad_alloc.obj
 0002:00007834       __CTA2?AVbad_alloc@std@@   10026834     LIBCMT:throw_bad_alloc.obj
 0002:00007840       __CT??_R0?AVbad_alloc@std@@@8??0bad_alloc@std@@QAE@ABV01@@Z12 10026840     LIBCMT:throw_bad_alloc.obj
 0002:0000785c       __CT??_R0?AVexception@std@@@8??0exception@std@@QAE@ABV01@@Z12 1002685c     LIBCMT:throw_bad_alloc.obj
 0002:00007878       __TI3?AVbad_array_new_length@std@@ 10026878     LIBCMT:throw_bad_alloc.obj
 0002:00007888       __CTA3?AVbad_array_new_length@std@@ 10026888     LIBCMT:throw_bad_alloc.obj
 0002:00007898       __CT??_R0?AVbad_array_new_length@std@@@8??0bad_array_new_length@std@@QAE@ABV01@@Z12 10026898     LIBCMT:throw_bad_alloc.obj
 0002:000079bc       __TI2?AVbad_exception@std@@ 100269bc     libvcruntime:frame.obj
 0002:000079cc       __CTA2?AVbad_exception@std@@ 100269cc     libvcruntime:frame.obj
 0002:000079d8       __CT??_R0?AVbad_exception@std@@@8??0bad_exception@std@@QAE@ABV01@@Z12 100269d8     libvcruntime:frame.obj
 0002:00007d34       ___pobjMapEntryFirst       10026d34     OposVariant.obj
 0002:00007d38       ___pobjMapEntryLast        10026d38     OposVariant.obj
 0002:00007df0       __IMPORT_DESCRIPTOR_KERNEL32 10026df0     kernel32:KERNEL32.dll
 0002:00007e04       __IMPORT_DESCRIPTOR_USER32 10026e04     user32:USER32.dll
 0002:00007e18       __IMPORT_DESCRIPTOR_GDI32  10026e18     gdi32:GDI32.dll
 0002:00007e2c       __IMPORT_DESCRIPTOR_ADVAPI32 10026e2c     advapi32:ADVAPI32.dll
 0002:00007e40       __IMPORT_DESCRIPTOR_ole32  10026e40     ole32:ole32.dll
 0002:00007e54       __IMPORT_DESCRIPTOR_OLEAUT32 10026e54     oleaut32:OLEAUT32.dll
 0002:00007e68       __NULL_IMPORT_DESCRIPTOR   10026e68     kernel32:KERNEL32.dll
 0003:00000000       ?s_Claim@?7??GetIDsOfNames@CComTypeInfoHolder@ATL@@QAEJABU_GUID@@PAPA_WIKPAJ@Z@4PA_WA 10028000     MotionSensor.obj
 0003:00000018       ?s_Release@?7??GetIDsOfNames@CComTypeInfoHolder@ATL@@QAEJABU_GUID@@PAPA_WIKPAJ@Z@4PA_WA 10028018     MotionSensor.obj
 0003:00000034       ?_tih@?$IDispatchImpl@UIOPOSMotionSensor@@$1?IID_IOPOSMotionSensor@@3U_GUID@@B$1?LIBID_OposMotionSensor_CCO@@3U3@B$00$0A@VCComTypeInfoHolder@ATL@@@ATL@@1VCComTypeInfoHolder@2@A 10028034     MotionSensor.obj
 0003:00000050       ?_tih@?$IProvideClassInfo2Impl@$1?CLSID_OPOSMotionSensor@@3U_GUID@@B$1?DIID__IOPOSMotionSensorEvents@@3U2@B$1?LIBID_OposMotionSensor_CCO@@3U2@B$00$0A@VCComTypeInfoHolder@ATL@@@ATL@@1VCComTypeInfoHolder@2@A 10028050     MotionSensor.obj
 0003:0000006c       ?vszContents@?6??Save@?$IPersistStorageImpl@VCOPOSMotionSensor@@@ATL@@UAGJPAUIStorage@@H@Z@4PB_WB 1002806c     MotionSensor.obj
 0003:00000070       ?wc@?1??GetWndClassInfo@?$CWindowImpl@VCOPOSMotionSensor@@VCWindow@ATL@@V?$CWinTraits@$0FGAAAAAA@$0A@@3@@ATL@@SAAAU_ATL_WNDCLASSINFOW@3@XZ@4U43@A 10028070     MotionSensor.obj
 0003:000000fc       ?rcDefault@CWindow@ATL@@2UtagRECT@@A 100280fc     MotionSensor.obj
 0003:00000158       ?g_WindowName@@3PA_WA      10028158     MotionSensorImpl.obj
 0003:00000180       ?g_ControlDescription@@3PADA 10028180     MotionSensorImpl.obj
 0003:000001cc       ?g_ControlVersion@@3JA     100281cc     MotionSensorImpl.obj
 0003:00000224       ___scrt_native_dllmain_reason 10028224     LIBCMT:utility.obj
 0003:00000228       __Init_global_epoch        10028228     LIBCMT:thread_safe_statics.obj
 0003:00000230       ___security_cookie_complement 10028230     LIBCMT:gs_cookie.obj
 0003:00000234       ___security_cookie         10028234     LIBCMT:gs_cookie.obj
 0003:00000238       ___isa_enabled             10028238     LIBCMT:cpu_disp.obj
 0003:00000250       __NLG_Destination          10028250     libvcruntime:exsup.obj
 0003:00000268       ___abort_behavior          10028268     libucrt:abort.obj
 0003:00000278       __iob                      10028278     libucrt:_file.obj
 0003:00000320       ___acrt_initial_locale_data 10028320     libucrt:nlsdata.obj
 0003:000003d8       ___acrt_initial_locale_pointers 100283d8     libucrt:nlsdata.obj
 0003:000003e0       ___acrt_wide_c_locale_string 100283e0     libucrt:nlsdata.obj
 0003:000003e8       ___acrt_initial_multibyte_data 100283e8     libucrt:mbctype.obj
 0003:00000908       __pwctype                  10028908     libucrt:ctype.obj
 0003:0000090c       ___globallocalestatus      1002890c     libucrt:glstatus.obj
 0003:00000910       ___acrt_lconv_c            10028910     libucrt:localeconv.obj
 0003:00000960       ___acrt_lconv_static_decimal 10028960     libucrt:localeconv.obj
 0003:00000964       ___acrt_lconv_static_W_decimal 10028964     libucrt:localeconv.obj
 0003:00000970       __lookuptrailbytes         10028970     libucrt:read.obj
 0003:00000a80       __fltused                  10028a80     LIBCMT:fltused.obj
 0003:00000a90       ??_R0?AVbad_alloc@std@@@8  10028a90     LIBCMT:throw_bad_alloc.obj
 0003:00000aac       ??_R0?AVexception@std@@@8  10028aac     LIBCMT:throw_bad_alloc.obj
 0003:00000ac8       ??_R0?AVbad_array_new_length@std@@@8 10028ac8     LIBCMT:throw_bad_alloc.obj
 0003:00000af0       ??_R0?AVtype_info@@@8      10028af0     LIBCMT:std_type_info_static.obj
 0003:00000b08       ??_R0?AVbad_exception@std@@@8 10028b08     libvcruntime:frame.obj
 0003:00000b28       ?_pPerfRegFunc@ATL@@3P6AJPAUHINSTANCE__@@@ZA 10028b28     OposVariant.obj
 0003:00000b2c       ?_pPerfUnRegFunc@ATL@@3P6AJXZA 10028b2c     OposVariant.obj
 0003:00000b30       ?_AtlRegisterPerUser@ATL@@3_NA 10028b30     OposVariant.obj
 0003:00000b34       ?_pAtlModule@ATL@@3PAVCAtlModule@1@A 10028b34     OposVariant.obj
 0003:00000b38       ?_pModule@ATL@@3PAVCComModule@1@A 10028b38     OposVariant.obj
 0003:00000b3c       ?m_bInitFailed@CAtlBaseModule@ATL@@2_NA 10028b3c     OposVariant.obj
 0003:00000b40       ?_AtlComModule@ATL@@3VCAtlComModule@1@A 10028b40     OposVariant.obj
 0003:00000b68       ?_AtlWinModule@ATL@@3VCAtlWinModule@1@A 10028b68     OposVariant.obj
 0003:00000b94       ?m_libid@CAtlModule@ATL@@2U_GUID@@A 10028b94     MotionSensor.obj
 0003:00000ba4       ?_entries@?1??GetConnMap@COPOSMotionSensor@@SAPBU_ATL_CONNMAP_ENTRY@ATL@@PAH@Z@4QBU34@B 10028ba4     MotionSensor.obj
 0003:00000bb0       ?$TSS0@?1??GetConnMap@COPOSMotionSensor@@SAPBU_ATL_CONNMAP_ENTRY@ATL@@PAH@Z@4HA 10028bb0     MotionSensor.obj
 0003:00000bb8       ?_OptionsStorage@?1??__local_stdio_printf_options@@9@4_KA 10028bb8     MotionSensor.obj
 0003:00000bc0       ?pfnRegDeleteKeyEx@?1??DeleteSubKey@CRegKey@ATL@@QAEJPB_W@Z@4P6GJPAUHKEY__@@0KK@ZA 10028bc0     MotionSensor.obj
 0003:00000bc4       ?bInitialized@?1??DeleteSubKey@CRegKey@ATL@@QAEJPB_W@Z@4_NA 10028bc4     MotionSensor.obj
 0003:00000bc8       ?_Module@@3VCComModule@ATL@@A 10028bc8     MotionSensor.obj
 0003:00000bf8       ?pConnMap@?$IConnectionPointContainerImpl@VCOPOSMotionSensor@@@ATL@@0PBU_ATL_CONNMAP_ENTRY@2@B 10028bf8     MotionSensor.obj
 0003:00000bfc       ?s_nInstances@COPOSMotionSensor@@1HA 10028bfc     MotionSensorImpl.obj
 0003:00000c00       ___scrt_current_native_startup_state 10028c00     LIBCMT:utility.obj
 0003:00000c04       ___scrt_native_startup_lock 10028c04     LIBCMT:utility.obj
 0003:00000f6c       __tls_index                10028f6c     LIBCMT:tlssup.obj
 0003:00000f74       ___isa_available           10028f74     LIBCMT:cpu_disp.obj
 0003:00000f78       ___favor                   10028f78     LIBCMT:cpu_disp.obj
 0003:00000f7c       ___scrt_debugger_hook_flag 10028f7c     LIBCMT:utility_desktop.obj
 0003:00000f80       ?__type_info_root_node@@3U__type_info_node@@A 10028f80     LIBCMT:tncleanup.obj
 0003:00000f88       ?_OptionsStorage@?1??__local_stdio_scanf_options@@9@4_KA 10028f88     LIBCMT:default_local_stdio_options.obj
 0003:00000f90       ?_AtlBaseModule@ATL@@3VCAtlBaseModule@1@A 10028f90     atls:atlbase.obj
 0003:00000fc8       ?__AtlThunkPool@@3PAT_SLIST_HEADER@@A 10028fc8     atls:atlthunk.obj
 0003:00000fe0       ___@@_PchSym_@00@UztvmgUPdlipUGUhUrmgvinvwrzgvUexgllohUzgohOmzgrevkilqPBACIAJCBDBUlyqiUcIGUhgwzucOlyq@4B2008FD98C1DD4 10028fe0     atls:stdafx.obj
 0003:00000fe4       ?__WinRTOutOfMemoryExceptionCallback@@3P6GPAXXZA 10028fe4     libvcruntime:ehhelpers.obj
 0003:00000fe8       ___pPurecall               10028fe8     libvcruntime:purevirt_data.obj
 0003:00001030       ?pArgList@UnDecorator@@0PAVReplicator@@A 10029030     libvcruntime:undname.obj
 0003:00001034       ?pZNameList@UnDecorator@@0PAVReplicator@@A 10029034     libvcruntime:undname.obj
 0003:00001038       ?pTemplateArgList@UnDecorator@@0PAVReplicator@@A 10029038     libvcruntime:undname.obj
 0003:0000103c       ?gName@UnDecorator@@0PBDB  1002903c     libvcruntime:undname.obj
 0003:00001040       ?name@UnDecorator@@0PBDB   10029040     libvcruntime:undname.obj
 0003:00001044       ?disableFlags@UnDecorator@@0KA 10029044     libvcruntime:undname.obj
 0003:00001048       ?fExplicitTemplateParams@UnDecorator@@0_NA 10029048     libvcruntime:undname.obj
 0003:00001049       ?fGetTemplateArgumentList@UnDecorator@@0_NA 10029049     libvcruntime:undname.obj
 0003:0000104c       ?m_pGetParameter@UnDecorator@@0P6APADJ@ZA 1002904c     libvcruntime:undname.obj
 0003:00001050       ?m_CHPENameOffset@UnDecorator@@0KA 10029050     libvcruntime:undname.obj
 0003:00001054       ?m_recursionLevel@UnDecorator@@0KA 10029054     libvcruntime:undname.obj
 0003:00001098       ?c_exit_complete@?1???R<lambda_6e4b09c48022b2350581041d5f6b0c4c>@@QBE@XZ@4_NA 10029098     libucrt:exit.obj
 0003:000011a8       __environ_table            100291a8     libucrt:environment_initialization.obj
 0003:000011ac       __wenviron_table           100291ac     libucrt:environment_initialization.obj
 0003:000011b0       ___dcrt_initial_wide_environment 100291b0     libucrt:environment_initialization.obj
 0003:000011b4       ___dcrt_initial_narrow_environment 100291b4     libucrt:environment_initialization.obj
 0003:000011b8       ___acrt_atexit_table       100291b8     libucrt:onexit.obj
 0003:000011c4       ___acrt_at_quick_exit_table 100291c4     libucrt:onexit.obj
 0003:000012b8       __nstream                  100292b8     libucrt:_file.obj
 0003:000012bc       ___piob                    100292bc     libucrt:_file.obj
 0003:000012c4       ___acrt_stdout_buffer      100292c4     libucrt:_sftbuf.obj
 0003:000012c8       ___acrt_stderr_buffer      100292c8     libucrt:_sftbuf.obj
 0003:000012cc       ___acrt_locale_changed_data 100292cc     libucrt:wsetlocale.obj
 0003:000012d0       ___acrt_current_locale_data 100292d0     libucrt:nlsdata.obj
 0003:000012d8       ___pioinfo                 100292d8     libucrt:ioinit.obj
 0003:000014d8       __nhandle                  100294d8     libucrt:ioinit.obj
 0003:00001634       __mbctype                  10029634     libucrt:mbctype.obj
 0003:00001638       __mbcasemap                10029638     libucrt:mbctype.obj
 0003:0000163c       ___acrt_current_multibyte_data 1002963c     libucrt:mbctype.obj
 0003:00001648       __pgmptr                   10029648     libucrt:argv_data.obj
 0003:0000164c       ___argc                    1002964c     libucrt:argv_data.obj
 0003:00001650       ___argv                    10029650     libucrt:argv_data.obj
 0003:00001654       ___wargv                   10029654     libucrt:argv_data.obj
 0003:00001658       __acmdln                   10029658     libucrt:argv_data.obj
 0003:0000165c       __wcmdln                   1002965c     libucrt:argv_data.obj
 0003:00001660       ___acrt_heap               10029660     libucrt:heap_handle.obj
 0003:0000167c       ___acrt_lconv_static_null  1002967c     libucrt:localeconv.obj
 0003:00001680       ___acrt_lconv_static_W_null 10029680     libucrt:localeconv.obj
 0003:00001690       ___fastflag                10029690     libucrt:fp_flags.obj
 0003:00001698       ___dyn_tls_init_callback   10029698     <common>
 0003:0000169c       ___scrt_ucrt_dll_is_in_use 1002969c     <common>
 0003:000016a0       __pmatherr                 100296a0     <common>
 0003:000016a4       ___use_sse2_mathfcns       100296a4     <common>

 entry point at        0001:0000b8f8

 Static symbols

 0000:fffd0000       .debug$S                   10000000     OPOSMotionSensor.exp
 0000:fffd0000       .debug$S                   10000000     advapi32:ADVAPI32.dll
 0000:fffd0000       .debug$S                   10000000     advapi32:ADVAPI32.dll
 0000:fffd0000       .debug$S                   10000000     advapi32:ADVAPI32.dll
 0000:fffd0000       .debug$S                   10000000     advapi32:ADVAPI32.dll
 0000:fffd0000       .debug$S                   10000000     advapi32:ADVAPI32.dll
 0000:fffd0000       .debug$S                   10000000     advapi32:ADVAPI32.dll
 0000:fffd0000       .debug$S                   10000000     advapi32:ADVAPI32.dll
 0000:fffd0000       .debug$S                   10000000     advapi32:ADVAPI32.dll
 0000:fffd0000       .debug$S                   10000000     advapi32:ADVAPI32.dll
 0000:fffd0000       .debug$S                   10000000     gdi32:GDI32.dll
 0000:fffd0000       .debug$S                   10000000     gdi32:GDI32.dll
 0000:fffd0000       .debug$S                   10000000     gdi32:GDI32.dll
 0000:fffd0000       .debug$S                   10000000     gdi32:GDI32.dll
 0000:fffd0000       .debug$S                   10000000     gdi32:GDI32.dll
 0000:fffd0000       .debug$S                   10000000     gdi32:GDI32.dll
 0000:fffd0000       .debug$S                   10000000     gdi32:GDI32.dll
 0000:fffd0000       .debug$S                   10000000     gdi32:GDI32.dll
 0000:fffd0000       .debug$S                   10000000     gdi32:GDI32.dll
 0000:fffd0000       .debug$S                   10000000     gdi32:GDI32.dll
 0000:fffd0000       .debug$S                   10000000     gdi32:GDI32.dll
 0000:fffd0000       .debug$S                   10000000     gdi32:GDI32.dll
 0000:fffd0000       .debug$S                   10000000     gdi32:GDI32.dll
 0000:fffd0000       .debug$S                   10000000     gdi32:GDI32.dll
 0000:fffd0000       .debug$S                   10000000     gdi32:GDI32.dll
 0000:fffd0000       .debug$S                   10000000     gdi32:GDI32.dll
 0000:fffd0000       .debug$S                   10000000     gdi32:GDI32.dll
 0000:fffd0000       .debug$S                   10000000     gdi32:GDI32.dll
 0000:fffd0000       .debug$S                   10000000     gdi32:GDI32.dll
 0000:fffd0000       .debug$S                   10000000     kernel32:KERNEL32.dll
 0000:fffd0000       .debug$S                   10000000     kernel32:KERNEL32.dll
 0000:fffd0000       .debug$S                   10000000     kernel32:KERNEL32.dll
 0000:fffd0000       .debug$S                   10000000     kernel32:KERNEL32.dll
 0000:fffd0000       .debug$S                   10000000     kernel32:KERNEL32.dll
 0000:fffd0000       .debug$S                   10000000     kernel32:KERNEL32.dll
 0000:fffd0000       .debug$S                   10000000     kernel32:KERNEL32.dll
 0000:fffd0000       .debug$S                   10000000     kernel32:KERNEL32.dll
 0000:fffd0000       .debug$S                   10000000     kernel32:KERNEL32.dll
 0000:fffd0000       .debug$S                   10000000     kernel32:KERNEL32.dll
 0000:fffd0000       .debug$S                   10000000     kernel32:KERNEL32.dll
 0000:fffd0000       .debug$S                   10000000     kernel32:KERNEL32.dll
 0000:fffd0000       .debug$S                   10000000     kernel32:KERNEL32.dll
 0000:fffd0000       .debug$S                   10000000     kernel32:KERNEL32.dll
 0000:fffd0000       .debug$S                   10000000     kernel32:KERNEL32.dll
 0000:fffd0000       .debug$S                   10000000     kernel32:KERNEL32.dll
 0000:fffd0000       .debug$S                   10000000     kernel32:KERNEL32.dll
 0000:fffd0000       .debug$S                   10000000     kernel32:KERNEL32.dll
 0000:fffd0000       .debug$S                   10000000     kernel32:KERNEL32.dll
 0000:fffd0000       .debug$S                   10000000     kernel32:KERNEL32.dll
 0000:fffd0000       .debug$S                   10000000     kernel32:KERNEL32.dll
 0000:fffd0000       .debug$S                   10000000     kernel32:KERNEL32.dll
 0000:fffd0000       .debug$S                   10000000     kernel32:KERNEL32.dll
 0000:fffd0000       .debug$S                   10000000     kernel32:KERNEL32.dll
 0000:fffd0000       .debug$S                   10000000     kernel32:KERNEL32.dll
 0000:fffd0000       .debug$S                   10000000     kernel32:KERNEL32.dll
 0000:fffd0000       .debug$S                   10000000     kernel32:KERNEL32.dll
 0000:fffd0000       .debug$S                   10000000     kernel32:KERNEL32.dll
 0000:fffd0000       .debug$S                   10000000     kernel32:KERNEL32.dll
 0000:fffd0000       .debug$S                   10000000     kernel32:KERNEL32.dll
 0000:fffd0000       .debug$S                   10000000     kernel32:KERNEL32.dll
 0000:fffd0000       .debug$S                   10000000     kernel32:KERNEL32.dll
 0000:fffd0000       .debug$S                   10000000     kernel32:KERNEL32.dll
 0000:fffd0000       .debug$S                   10000000     kernel32:KERNEL32.dll
 0000:fffd0000       .debug$S                   10000000     kernel32:KERNEL32.dll
 0000:fffd0000       .debug$S                   10000000     kernel32:KERNEL32.dll
 0000:fffd0000       .debug$S                   10000000     kernel32:KERNEL32.dll
 0000:fffd0000       .debug$S                   10000000     kernel32:KERNEL32.dll
 0000:fffd0000       .debug$S                   10000000     kernel32:KERNEL32.dll
 0000:fffd0000       .debug$S                   10000000     kernel32:KERNEL32.dll
 0000:fffd0000       .debug$S                   10000000     kernel32:KERNEL32.dll
 0000:fffd0000       .debug$S                   10000000     kernel32:KERNEL32.dll
 0000:fffd0000       .debug$S                   10000000     kernel32:KERNEL32.dll
 0000:fffd0000       .debug$S                   10000000     kernel32:KERNEL32.dll
 0000:fffd0000       .debug$S                   10000000     kernel32:KERNEL32.dll
 0000:fffd0000       .debug$S                   10000000     kernel32:KERNEL32.dll
 0000:fffd0000       .debug$S                   10000000     kernel32:KERNEL32.dll
 0000:fffd0000       .debug$S                   10000000     kernel32:KERNEL32.dll
 0000:fffd0000       .debug$S                   10000000     kernel32:KERNEL32.dll
 0000:fffd0000       .debug$S                   10000000     kernel32:KERNEL32.dll
 0000:fffd0000       .debug$S                   10000000     kernel32:KERNEL32.dll
 0000:fffd0000       .debug$S                   10000000     kernel32:KERNEL32.dll
 0000:fffd0000       .debug$S                   10000000     kernel32:KERNEL32.dll
 0000:fffd0000       .debug$S                   10000000     kernel32:KERNEL32.dll
 0000:fffd0000       .debug$S                   10000000     kernel32:KERNEL32.dll
 0000:fffd0000       .debug$S                   10000000     kernel32:KERNEL32.dll
 0000:fffd0000       .debug$S                   10000000     kernel32:KERNEL32.dll
 0000:fffd0000       .debug$S                   10000000     kernel32:KERNEL32.dll
 0000:fffd0000       .debug$S                   10000000     kernel32:KERNEL32.dll
 0000:fffd0000       .debug$S                   10000000     kernel32:KERNEL32.dll
 0000:fffd0000       .debug$S                   10000000     kernel32:KERNEL32.dll
 0000:fffd0000       .debug$S                   10000000     kernel32:KERNEL32.dll
 0000:fffd0000       .debug$S                   10000000     kernel32:KERNEL32.dll
 0000:fffd0000       .debug$S                   10000000     kernel32:KERNEL32.dll
 0000:fffd0000       .debug$S                   10000000     kernel32:KERNEL32.dll
 0000:fffd0000       .debug$S                   10000000     kernel32:KERNEL32.dll
 0000:fffd0000       .debug$S                   10000000     kernel32:KERNEL32.dll
 0000:fffd0000       .debug$S                   10000000     kernel32:KERNEL32.dll
 0000:fffd0000       .debug$S                   10000000     kernel32:KERNEL32.dll
 0000:fffd0000       .debug$S                   10000000     kernel32:KERNEL32.dll
 0000:fffd0000       .debug$S                   10000000     kernel32:KERNEL32.dll
 0000:fffd0000       .debug$S                   10000000     kernel32:KERNEL32.dll
 0000:fffd0000       .debug$S                   10000000     kernel32:KERNEL32.dll
 0000:fffd0000       .debug$S                   10000000     kernel32:KERNEL32.dll
 0000:fffd0000       .debug$S                   10000000     kernel32:KERNEL32.dll
 0000:fffd0000       .debug$S                   10000000     kernel32:KERNEL32.dll
 0000:fffd0000       .debug$S                   10000000     kernel32:KERNEL32.dll
 0000:fffd0000       .debug$S                   10000000     kernel32:KERNEL32.dll
 0000:fffd0000       .debug$S                   10000000     kernel32:KERNEL32.dll
 0000:fffd0000       .debug$S                   10000000     kernel32:KERNEL32.dll
 0000:fffd0000       .debug$S                   10000000     kernel32:KERNEL32.dll
 0000:fffd0000       .debug$S                   10000000     kernel32:KERNEL32.dll
 0000:fffd0000       .debug$S                   10000000     kernel32:KERNEL32.dll
 0000:fffd0000       .debug$S                   10000000     kernel32:KERNEL32.dll
 0000:fffd0000       .debug$S                   10000000     kernel32:KERNEL32.dll
 0000:fffd0000       .debug$S                   10000000     kernel32:KERNEL32.dll
 0000:fffd0000       .debug$S                   10000000     kernel32:KERNEL32.dll
 0000:fffd0000       .debug$S                   10000000     kernel32:KERNEL32.dll
 0000:fffd0000       .debug$S                   10000000     kernel32:KERNEL32.dll
 0000:fffd0000       .debug$S                   10000000     kernel32:KERNEL32.dll
 0000:fffd0000       .debug$S                   10000000     kernel32:KERNEL32.dll
 0000:fffd0000       .debug$S                   10000000     kernel32:KERNEL32.dll
 0000:fffd0000       .debug$S                   10000000     kernel32:KERNEL32.dll
 0000:fffd0000       .debug$S                   10000000     kernel32:KERNEL32.dll
 0000:fffd0000       .debug$S                   10000000     kernel32:KERNEL32.dll
 0000:fffd0000       .debug$S                   10000000     kernel32:KERNEL32.dll
 0000:fffd0000       .debug$S                   10000000     kernel32:KERNEL32.dll
 0000:fffd0000       .debug$S                   10000000     kernel32:KERNEL32.dll
 0000:fffd0000       .debug$S                   10000000     kernel32:KERNEL32.dll
 0000:fffd0000       .debug$S                   10000000     kernel32:KERNEL32.dll
 0000:fffd0000       .debug$S                   10000000     kernel32:KERNEL32.dll
 0000:fffd0000       .debug$S                   10000000     kernel32:KERNEL32.dll
 0000:fffd0000       .debug$S                   10000000     kernel32:KERNEL32.dll
 0000:fffd0000       .debug$S                   10000000     kernel32:KERNEL32.dll
 0000:fffd0000       .debug$S                   10000000     kernel32:KERNEL32.dll
 0000:fffd0000       .debug$S                   10000000     kernel32:KERNEL32.dll
 0000:fffd0000       .debug$S                   10000000     ole32:ole32.dll
 0000:fffd0000       .debug$S                   10000000     ole32:ole32.dll
 0000:fffd0000       .debug$S                   10000000     ole32:ole32.dll
 0000:fffd0000       .debug$S                   10000000     ole32:ole32.dll
 0000:fffd0000       .debug$S                   10000000     ole32:ole32.dll
 0000:fffd0000       .debug$S                   10000000     ole32:ole32.dll
 0000:fffd0000       .debug$S                   10000000     ole32:ole32.dll
 0000:fffd0000       .debug$S                   10000000     ole32:ole32.dll
 0000:fffd0000       .debug$S                   10000000     ole32:ole32.dll
 0000:fffd0000       .debug$S                   10000000     ole32:ole32.dll
 0000:fffd0000       .debug$S                   10000000     ole32:ole32.dll
 0000:fffd0000       .debug$S                   10000000     ole32:ole32.dll
 0000:fffd0000       .debug$S                   10000000     ole32:ole32.dll
 0000:fffd0000       .debug$S                   10000000     ole32:ole32.dll
 0000:fffd0000       .debug$S                   10000000     oleaut32:OLEAUT32.dll
 0000:fffd0000       .debug$S                   10000000     oleaut32:OLEAUT32.dll
 0000:fffd0000       .debug$S                   10000000     oleaut32:OLEAUT32.dll
 0000:fffd0000       .debug$S                   10000000     oleaut32:OLEAUT32.dll
 0000:fffd0000       .debug$S                   10000000     oleaut32:OLEAUT32.dll
 0000:fffd0000       .debug$S                   10000000     oleaut32:OLEAUT32.dll
 0000:fffd0000       .debug$S                   10000000     oleaut32:OLEAUT32.dll
 0000:fffd0000       .debug$S                   10000000     oleaut32:OLEAUT32.dll
 0000:fffd0000       .debug$S                   10000000     oleaut32:OLEAUT32.dll
 0000:fffd0000       .debug$S                   10000000     oleaut32:OLEAUT32.dll
 0000:fffd0000       .debug$S                   10000000     oleaut32:OLEAUT32.dll
 0000:fffd0000       .debug$S                   10000000     oleaut32:OLEAUT32.dll
 0000:fffd0000       .debug$S                   10000000     oleaut32:OLEAUT32.dll
 0000:fffd0000       .debug$S                   10000000     oleaut32:OLEAUT32.dll
 0000:fffd0000       .debug$S                   10000000     oleaut32:OLEAUT32.dll
 0000:fffd0000       .debug$S                   10000000     oleaut32:OLEAUT32.dll
 0000:fffd0000       .debug$S                   10000000     user32:USER32.dll
 0000:fffd0000       .debug$S                   10000000     user32:USER32.dll
 0000:fffd0000       .debug$S                   10000000     user32:USER32.dll
 0000:fffd0000       .debug$S                   10000000     user32:USER32.dll
 0000:fffd0000       .debug$S                   10000000     user32:USER32.dll
 0000:fffd0000       .debug$S                   10000000     user32:USER32.dll
 0000:fffd0000       .debug$S                   10000000     user32:USER32.dll
 0000:fffd0000       .debug$S                   10000000     user32:USER32.dll
 0000:fffd0000       .debug$S                   10000000     user32:USER32.dll
 0000:fffd0000       .debug$S                   10000000     user32:USER32.dll
 0000:fffd0000       .debug$S                   10000000     user32:USER32.dll
 0000:fffd0000       .debug$S                   10000000     user32:USER32.dll
 0000:fffd0000       .debug$S                   10000000     user32:USER32.dll
 0000:fffd0000       .debug$S                   10000000     user32:USER32.dll
 0000:fffd0000       .debug$S                   10000000     user32:USER32.dll
 0000:fffd0000       .debug$S                   10000000     user32:USER32.dll
 0000:fffd0000       .debug$S                   10000000     user32:USER32.dll
 0000:fffd0000       .debug$S                   10000000     user32:USER32.dll
 0000:fffd0000       .debug$S                   10000000     user32:USER32.dll
 0000:fffd0000       .debug$S                   10000000     user32:USER32.dll
 0000:fffd0000       .debug$S                   10000000     user32:USER32.dll
 0000:fffd0000       .debug$S                   10000000     user32:USER32.dll
 0000:fffd0000       .debug$S                   10000000     user32:USER32.dll
 0000:fffd0000       .debug$S                   10000000     user32:USER32.dll
 0000:fffd0000       .debug$S                   10000000     user32:USER32.dll
 0000:fffd0000       .debug$S                   10000000     user32:USER32.dll
 0000:fffd0000       .debug$S                   10000000     user32:USER32.dll
 0000:fffd0000       .debug$S                   10000000     user32:USER32.dll
 0000:fffd0000       .debug$S                   10000000     user32:USER32.dll
 0000:fffd0000       .debug$S                   10000000     user32:USER32.dll
 0000:fffd0000       .debug$S                   10000000     user32:USER32.dll
 0000:fffd0000       .debug$S                   10000000     user32:USER32.dll
 0000:fffd0000       .debug$S                   10000000     user32:USER32.dll
 0000:fffd0000       .debug$S                   10000000     user32:USER32.dll
 0000:fffd0000       .debug$S                   10000000     user32:USER32.dll
 0001:00000000       ??__E_AtlComModule@ATL@@YAXXZ 10001000 f   OposVariant.obj
 0001:00000016       ??__E_AtlWinModule@ATL@@YAXXZ 10001016 f   OposVariant.obj
 0001:0000002c       ??__E?pConnMap@?$IConnectionPointContainerImpl@VCOPOSMotionSensor@@@ATL@@0PBU_ATL_CONNMAP_ENTRY@2@B@@YAXXZ 1000102c f   MotionSensor.obj
 0001:0000003a       ??__E_Module@@YAXXZ        1000103a f   MotionSensor.obj
 0001:00000064       ??__E_AtlBaseModule@ATL@@YAXXZ 10001064 f   atls:atlbase.obj
 0001:00000bf8       $LN24                      10001bf8     MotionSensor.obj
 0001:000056ab       $LN47                      100066ab     MotionSensor.obj
 0001:000056c3       $LN46                      100066c3     MotionSensor.obj
 0001:00007890       $LN37                      10008890     MotionSensor.obj
 0001:000078a8       $LN36                      100088a8     MotionSensor.obj
 0001:00008f84       $LN76                      10009f84     MotionSensor.obj
 0001:00008f9c       $LN75                      10009f9c     MotionSensor.obj
 0001:00009355       _memcpy_s                  1000a355 f   MotionSensor.obj
 0001:0000ad90       ?find_pe_section@@YAPAU_IMAGE_SECTION_HEADER@@QAEI@Z 1000bd90 f   LIBCMT:utility.obj
 0001:0000b0af       ?__scrt_initialize_thread_safe_statics@@YAHXZ 1000c0af f   LIBCMT:thread_safe_statics.obj
 0001:0000b0d6       ?__scrt_initialize_thread_safe_statics_platform_specific@@YAXXZ 1000c0d6 f   LIBCMT:thread_safe_statics.obj
 0001:0000b158       ?__scrt_uninitialize_thread_safe_statics@@YAXXZ 1000c158 f   LIBCMT:thread_safe_statics.obj
 0001:0000b4c7       __catch$??2@YAPAXIABUnothrow_t@std@@@Z$0 1000c4c7 f   LIBCMT:new_scalar_nothrow.obj
 0001:0000b500       $$000000                   1000c500     LIBCMT:sehprolg4gs.obj
 0001:0000b560       $$000000                   1000c560     LIBCMT:alloca16.obj
 0001:0000b590       $$000000                   1000c590     LIBCMT:chkstk.obj
 0001:0000b5bd       ?dllmain_crt_dispatch@@YGHQAUHINSTANCE__@@KQAX@Z 1000c5bd f   LIBCMT:dll_dllmain.obj
 0001:0000b610       ?dllmain_crt_process_attach@@YAHQAUHINSTANCE__@@QAX@Z 1000c610 f   LIBCMT:dll_dllmain.obj
 0001:0000b717       ?dllmain_crt_process_detach@@YAH_N@Z 1000c717 f   LIBCMT:dll_dllmain.obj
 0001:0000b7c7       ?dllmain_dispatch@@YAHQAUHINSTANCE__@@KQAX@Z 1000c7c7 f   LIBCMT:dll_dllmain.obj
 0001:0000b8cd       ?dllmain_raw@@YGHQAUHINSTANCE__@@KQAX@Z 1000c8cd f   LIBCMT:dll_dllmain.obj
 0001:0000bc50       $$000000                   1000cc50     LIBCMT:sehprolg4.obj
 0001:0000bcac       ___get_entropy             1000ccac f   LIBCMT:gs_support.obj
 0001:0000bfa3       ??$GetProcAddressAll@P6GP6GJPAUHWND__@@IIJ@ZPAUAtlThunkData_t@@@Z@@YAP6GP6GJPAUHWND__@@IIJ@ZPAUAtlThunkData_t@@@ZPAP6GP6GJ0IIJ@Z1@Z@Z 1000cfa3 f   atls:atlthunk.obj
 0001:0000bfa3       ??$GetProcAddressAll@P6GPAUAtlThunkData_t@@XZ@@YAP6GPAUAtlThunkData_t@@XZPAP6GPAU0@XZ@Z 1000cfa3 f   atls:atlthunk.obj
 0001:0000bfa3       ??$GetProcAddressAll@P6GXPAUAtlThunkData_t@@@Z@@YAP6GXPAUAtlThunkData_t@@@ZPAP6GX0@Z@Z 1000cfa3 f   atls:atlthunk.obj
 0001:0000bfa3       ??$GetProcAddressAll@P6GXPAUAtlThunkData_t@@PAXI@Z@@YAP6GXPAUAtlThunkData_t@@PAXI@ZPAP6GX01I@Z@Z 1000cfa3 f   atls:atlthunk.obj
 0001:0000c053       ?GetProcAddressSingle@@YA_NPAUHINSTANCE__@@PBDPAPAX@Z 1000d053 f   atls:atlthunk.obj
 0001:0000c1a5       ?__InitializeThunkPool@@YAHXZ 1000d1a5 f   atls:atlthunk.obj
 0001:0000c600       _ValidateLocalCookies      1000d600 f   libvcruntime:chandler4.obj
 0001:0000d6c2       $LN1241                    1000e6c2     libvcruntime:memcmp.obj
 0001:0000d750       $$000000                   1000e750     libvcruntime:memcpy.obj
 0001:0000d9b4       TrailingUpVec              1000e9b4     libvcruntime:memcpy.obj
 0001:0000da60       TrailingDownVec            1000ea60     libvcruntime:memcpy.obj
 0001:0000dcd0       $$000000                   1000ecd0     libvcruntime:memset.obj
 0001:0000e2d3       ?_FilterSetCurrentException@@YAKPAU_EXCEPTION_POINTERS@@E@Z 1000f2d3 f   libvcruntime:ehhelpers.obj
 0001:0000e520       $$000000                   1000f520     libvcruntime:memmove.obj
 0001:0000e784       TrailingUpVec              1000f784     libvcruntime:memmove.obj
 0001:0000e830       TrailingDownVec            1000f830     libvcruntime:memmove.obj
 0001:0000eaa0       $$000000                   1000faa0     libvcruntime:exsup4.obj
 0001:0000eb30       __unwind_handler4          1000fb30 f   libvcruntime:exsup4.obj
 0001:0000ee0f       ??$BuildCatchObjectHelperInternal@V__FrameHandler3@@@@YAHPAUEHExceptionRecord@@PAXPBU_s_HandlerType@@PBU_s_CatchableType@@@Z 1000fe0f f   libvcruntime:frame.obj
 0001:0000ef4d       ??$BuildCatchObjectInternal@V__FrameHandler3@@@@YAXPAUEHExceptionRecord@@PAXPBU_s_HandlerType@@PBU_s_CatchableType@@@Z 1000ff4d f   libvcruntime:frame.obj
 0001:0000efe6       ??$CatchIt@V__FrameHandler3@@@@YAXPAUEHExceptionRecord@@PAUEHRegistrationNode@@PAU_CONTEXT@@PAXPBU_s_FuncInfo@@PBU_s_HandlerType@@PBU_s_CatchableType@@PBU_s_TryBlockMapEntry@@H1EE@Z 1000ffe6 f   libvcruntime:frame.obj
 0001:0000f066       ??$FindHandler@V__FrameHandler3@@@@YAXPAUEHExceptionRecord@@PAUEHRegistrationNode@@PAU_CONTEXT@@PAXPBU_s_FuncInfo@@EH1@Z 10010066 f   libvcruntime:frame.obj
 0001:0000f41c       ??$FindHandlerForForeignException@V__FrameHandler3@@@@YAXPAUEHExceptionRecord@@PAUEHRegistrationNode@@PAU_CONTEXT@@PAXPBU_s_FuncInfo@@HH1@Z 1001041c f   libvcruntime:frame.obj
 0001:0000f734       ?CallCatchBlock@@YAPAXPAUEHExceptionRecord@@PAUEHRegistrationNode@@PAU_CONTEXT@@PBU_s_FuncInfo@@PAXHK@Z 10010734 f   libvcruntime:frame.obj
 0001:0000f8f8       ?CallUnexpected@@YAXPBU_s_ESTypeList@@@Z 100108f8 f   libvcruntime:frame.obj
 0001:0000f918       __catch$?CallUnexpected@@YAXPBU_s_ESTypeList@@@Z$0 10010918 f   libvcruntime:frame.obj
 0001:0000f932       ?ExFilterRethrow@@YAHPAU_EXCEPTION_POINTERS@@@Z 10010932 f   libvcruntime:frame.obj
 0001:0000fa7c       ?IsInExceptionSpec@@YAEPAUEHExceptionRecord@@PBU_s_ESTypeList@@@Z 10010a7c f   libvcruntime:frame.obj
 0001:0000fb50       $$000000                   10010b50     libvcruntime:lowhelpr.obj
 0001:0000fba0       $$000000                   10010ba0     libvcruntime:exsup.obj
 0001:0000fbc1       __unwind_handler           10010bc1 f   libvcruntime:exsup.obj
 0001:0000fcde       ?try_get_first_available_module@@YAPAUHINSTANCE__@@QBW4module_id@?A0x1172487b@@0@Z 10010cde f   libvcruntime:winapi_downlevel.obj
 0001:0000fd8a       ?try_get_function@@YAPAXW4function_id@?A0x1172487b@@QBDQBW4module_id@2@2@Z 10010d8a f   libvcruntime:winapi_downlevel.obj
 0001:00010414       ??$common_tcsncpy_s@_W@@YAHQA_WIQB_WI@Z 10011414 f   libucrt:wcsncpy_s.obj
 0001:000104ea       ??$common_vsprintf@Vformat_validation_base@__crt_stdio_output@@_W@@YAH_KQA_WIQB_WQAU__crt_locale_pointers@@QAD@Z 100114ea f   libucrt:output.obj
 0001:00010671       ??$common_vsprintf_s@_W@@YAH_KQA_WIQB_WQAU__crt_locale_pointers@@QAD@Z 10011671 f   libucrt:output.obj
 0001:00010da0       $LN51                      10011da0     libucrt:output.obj
 0001:0001129b       $LN20                      1001229b     libucrt:output.obj
 0001:000112af       $LN17                      100122af     libucrt:output.obj
 0001:00011b0e       ??$?RV<lambda_03b1d95aef87969028cfba75ccab2455>@@AAV<lambda_6e4b09c48022b2350581041d5f6b0c4c>@@V<lambda_22bdf7517842c4b3e53723af5aa32b9e>@@@?$__crt_seh_guarded_call@X@@QAEX$$QAV<lambda_03b1d95aef87969028cfba75ccab2455>@@AAV<lambda_6e4b09c48022b2350581041d5f6b0c4c>@@$$QAV<lambda_22bdf7517842c4b3e53723af5aa32b9e>@@@Z 10012b0e f   libucrt:exit.obj
 0001:00011b5b       ??R<lambda_6e4b09c48022b2350581041d5f6b0c4c>@@QBE@XZ 10012b5b f   libucrt:exit.obj
 0001:00011c35       ?atexit_exception_filter@@YAHK@Z 10012c35 f   libucrt:exit.obj
 0001:00011c48       ?common_exit@@YAXHW4_crt_exit_cleanup_mode@@W4_crt_exit_return_mode@@@Z 10012c48 f   libucrt:exit.obj
 0001:00011cac       ?exit_or_terminate_process@@YAXI@Z 10012cac f   libucrt:exit.obj
 0001:00011cee       ?is_managed_app@@YA_NXZ    10012cee f   libucrt:exit.obj
 0001:00011d31       ?try_cor_exit_process@@YAXI@Z 10012d31 f   libucrt:exit.obj
 0001:00011dbf       ??$common_configure_argv@D@@YAHW4_crt_argv_mode@@@Z 10012dbf f   libucrt:argv_parsing.obj
 0001:00011ef5       ??$parse_command_line@D@@YAXPADPAPAD0PAI2@Z 10012ef5 f   libucrt:argv_parsing.obj
 0001:000120c6       ??$common_initialize_environment_nolock@D@@YAHXZ 100130c6 f   libucrt:environment_initialization.obj
 0001:00012119       ??$create_environment@D@@YAQAPADQAD@Z 10013119 f   libucrt:environment_initialization.obj
 0001:000121e9       ??$free_environment@D@@YAXQAPAD@Z 100131e9 f   libucrt:environment_initialization.obj
 0001:000121e9       ??$free_environment@_W@@YAXQAPA_W@Z 100131e9 f   libucrt:environment_initialization.obj
 0001:00012241       ??$uninitialize_environment_internal@D@@YAXAAPAPAD@Z 10013241 f   libucrt:environment_initialization.obj
 0001:0001225c       ??$uninitialize_environment_internal@_W@@YAXAAPAPA_W@Z 1001325c f   libucrt:environment_initialization.obj
 0001:000122b3       ??$?RV<lambda_69a2805e680e0e292e8ba93315fe43a8>@@AAV<lambda_f03950bc5685219e0bcd2087efbe011e>@@V<lambda_03fcd07e894ec930e3f35da366ca99d6>@@@?$__crt_seh_guarded_call@H@@QAEH$$QAV<lambda_69a2805e680e0e292e8ba93315fe43a8>@@AAV<lambda_f03950bc5685219e0bcd2087efbe011e>@@$$QAV<lambda_03fcd07e894ec930e3f35da366ca99d6>@@@Z 100132b3 f   libucrt:onexit.obj
 0001:0001230e       ??$?RV<lambda_8e746cf0007f6ed984d6f78af1fec997>@@AAV<lambda_22ebabd17bc4fa466a2aca6d8deb888d>@@V<lambda_18ed0c0b38a6dc0daf1e7ac6d6adf05e>@@@?$__crt_seh_guarded_call@H@@QAEH$$QAV<lambda_8e746cf0007f6ed984d6f78af1fec997>@@AAV<lambda_22ebabd17bc4fa466a2aca6d8deb888d>@@$$QAV<lambda_18ed0c0b38a6dc0daf1e7ac6d6adf05e>@@@Z 1001330e f   libucrt:onexit.obj
 0001:00012388       ??R<lambda_22ebabd17bc4fa466a2aca6d8deb888d>@@QBEHXZ 10013388 f   libucrt:onexit.obj
 0001:000124b1       ??R<lambda_f03950bc5685219e0bcd2087efbe011e>@@QBEHXZ 100134b1 f   libucrt:onexit.obj
 0001:0001262a       _initialize_environment    1001362a f   libucrt:initialization.obj
 0001:0001262a       _initialize_global_state_isolation 1001362a f   libucrt:initialization.obj
 0001:0001262a       _report_memory_leaks       1001362a f   libucrt:initialization.obj
 0001:0001262a       _uninitialize_c            1001362a f   libucrt:initialization.obj
 0001:0001262a       _uninitialize_global_state_isolation 1001362a f   libucrt:initialization.obj
 0001:0001262d       _initialize_global_variables 1001362d f   libucrt:initialization.obj
 0001:0001263a       _initialize_c              1001363a f   libucrt:initialization.obj
 0001:00012654       _uninitialize_environment  10013654 f   libucrt:initialization.obj
 0001:0001265c       _initialize_pointers       1001365c f   libucrt:initialization.obj
 0001:0001268a       _uninitialize_vcruntime    1001368a f   libucrt:initialization.obj
 0001:00012693       _uninitialize_allocated_memory 10013693 f   libucrt:initialization.obj
 0001:000126aa       _uninitialize_allocated_io_buffers 100136aa f   libucrt:initialization.obj
 0001:000126fa       ??R<lambda_af42a3ee9806e9a7305d451646e05244>@@QBEXAAPAU__crt_multibyte_data@@@Z 100136fa f   libucrt:initialization.obj
 0001:00012fe0       $$000000                   10013fe0     libucrt:strncmp.obj
 0001:000130cc       ??$?RV<lambda_15ade71b0218206bbe3333a0c9b79046>@@AAV<lambda_da44e0f8b0f19ba52fefafb335991732>@@V<lambda_207f2d024fc103971653565357d6cd41>@@@?$__crt_seh_guarded_call@X@@QAEX$$QAV<lambda_15ade71b0218206bbe3333a0c9b79046>@@AAV<lambda_da44e0f8b0f19ba52fefafb335991732>@@$$QAV<lambda_207f2d024fc103971653565357d6cd41>@@@Z 100140cc f   libucrt:per_thread_data.obj
 0001:0001311e       ??$?RV<lambda_38edbb1296d33220d7e4dd0ed76b244a>@@AAV<lambda_5ce1d447e08cb34b2473517608e21441>@@V<lambda_fb385d3da700c9147fc39e65dd577a8c>@@@?$__crt_seh_guarded_call@X@@QAEX$$QAV<lambda_38edbb1296d33220d7e4dd0ed76b244a>@@AAV<lambda_5ce1d447e08cb34b2473517608e21441>@@$$QAV<lambda_fb385d3da700c9147fc39e65dd577a8c>@@@Z 1001411e f   libucrt:per_thread_data.obj
 0001:00013189       ??$?RV<lambda_6affb1475c98b40b75cdec977db92e3c>@@AAV<lambda_b8d4b9c228a6ecc3f80208dbb4b4a104>@@V<lambda_608742c3c92a14382c1684fc64f96c88>@@@?$__crt_seh_guarded_call@X@@QAEX$$QAV<lambda_6affb1475c98b40b75cdec977db92e3c>@@AAV<lambda_b8d4b9c228a6ecc3f80208dbb4b4a104>@@$$QAV<lambda_608742c3c92a14382c1684fc64f96c88>@@@Z 10014189 f   libucrt:per_thread_data.obj
 0001:000131de       ??$?RV<lambda_a7e850c220f1c8d1e6efeecdedd162c6>@@AAV<lambda_46720907175c18b6c9d2717bc0d2d362>@@V<lambda_9048902d66e8d99359bc9897bbb930a8>@@@?$__crt_seh_guarded_call@X@@QAEX$$QAV<lambda_a7e850c220f1c8d1e6efeecdedd162c6>@@AAV<lambda_46720907175c18b6c9d2717bc0d2d362>@@$$QAV<lambda_9048902d66e8d99359bc9897bbb930a8>@@@Z 100141de f   libucrt:per_thread_data.obj
 0001:00013238       ?construct_ptd@@YAXQAU__acrt_ptd@@QAPAU__crt_locale_data@@@Z 10014238 f   libucrt:per_thread_data.obj
 0001:000132d1       ?destroy_fls@@YGXPAX@Z     100142d1 f   libucrt:per_thread_data.obj
 0001:000132f2       ?destroy_ptd@@YAXQAU__acrt_ptd@@@Z 100142f2 f   libucrt:per_thread_data.obj
 0001:000133bf       ?replace_current_thread_locale_nolock@@YAXQAU__acrt_ptd@@QAU__crt_locale_data@@@Z 100143bf f   libucrt:per_thread_data.obj
 0001:000137cf       ?try_get_AreFileApisANSI@@YAP6GHXZXZ 100147cf f   libucrt:winapi_thunks.obj
 0001:000137e9       ?try_get_LCMapStringEx@@YAP6GHPB_WK0HPA_WHPAU_nlsversioninfo@@PAXJ@ZXZ 100147e9 f   libucrt:winapi_thunks.obj
 0001:00013803       ?try_get_LocaleNameToLCID@@YAP6GKPB_WK@ZXZ 10014803 f   libucrt:winapi_thunks.obj
 0001:0001381d       ?try_get_first_available_module@@YAPAUHINSTANCE__@@QBW4module_id@?A0x391cf84c@@0@Z 1001481d f   libucrt:winapi_thunks.obj
 0001:000138e4       ?try_get_function@@YAPAXW4function_id@?A0x391cf84c@@QBDQBW4module_id@2@2@Z 100148e4 f   libucrt:winapi_thunks.obj
 0001:00014047       ?fp_format_a@@YAHQBNPADIQADIH_NIQAU__crt_locale_pointers@@@Z 10015047 f   libucrt:cvt.obj
 0001:00014360       ?fp_format_e@@YAHQBNQADI1IH_NIQAU__crt_locale_pointers@@@Z 10015360 f   libucrt:cvt.obj
 0001:00014402       ?fp_format_e_internal@@YAHQADIH_NIQAU_strflt@@1QAU__crt_locale_pointers@@@Z 10015402 f   libucrt:cvt.obj
 0001:0001454a       ?fp_format_f@@YAHQBNQADI1IHQAU__crt_locale_pointers@@@Z 1001554a f   libucrt:cvt.obj
 0001:000145d5       ?fp_format_f_internal@@YAHQADIHQAU_strflt@@_NQAU__crt_locale_pointers@@@Z 100155d5 f   libucrt:cvt.obj
 0001:000146a6       ?fp_format_g@@YAHQBNQADI1IH_NIQAU__crt_locale_pointers@@@Z 100156a6 f   libucrt:cvt.obj
 0001:00014767       ?fp_format_nan_or_infinity@@YAHW4__acrt_fp_class@@_NPADI1@Z 10015767 f   libucrt:cvt.obj
 0001:000147fc       ?shift_bytes@@YAXQADI0H@Z  100157fc f   libucrt:cvt.obj
 0001:00014ae3       ??$?RV<lambda_e5124f882df8998aaf41531e079ba474>@@AAV<lambda_3e16ef9562a7dcce91392c22ab16ea36>@@V<lambda_e25ca0880e6ef98be67edffd8c599615>@@@?$__crt_seh_guarded_call@X@@QAEX$$QAV<lambda_e5124f882df8998aaf41531e079ba474>@@AAV<lambda_3e16ef9562a7dcce91392c22ab16ea36>@@$$QAV<lambda_e25ca0880e6ef98be67edffd8c599615>@@@Z 10015ae3 f   libucrt:wsetlocale.obj
 0001:00014b83       ?initialize_inherited_file_handles_nolock@@YAXXZ 10015b83 f   libucrt:ioinit.obj
 0001:00014c39       ?initialize_stdio_handles_nolock@@YAXXZ 10015c39 f   libucrt:ioinit.obj
 0001:00014e4a       ?<lambda_invoker_cdecl>@<lambda_838c7f62c73c983481e27c09e84b0b5d>@@CAHPBX0@Z 10015e4a f   libucrt:argv_wildcards.obj
 0001:00014e62       ??$__acrt_convert_wcs_mbs_cp@D_WV<lambda_62f6974d9771e494a5ea317cc32e971c>@@U__crt_win32_buffer_internal_dynamic_resizing@@@@YAHQBDAAV?$__crt_win32_buffer@_WU__crt_win32_buffer_internal_dynamic_resizing@@@@ABV<lambda_62f6974d9771e494a5ea317cc32e971c>@@I@Z 10015e62 f   libucrt:argv_wildcards.obj
 0001:00014f14       ??$__acrt_convert_wcs_mbs_cp@_WDV<lambda_28bda7af82a03b66c1cb3803a755f95d>@@U__crt_win32_buffer_internal_dynamic_resizing@@@@YAHQB_WAAV?$__crt_win32_buffer@DU__crt_win32_buffer_internal_dynamic_resizing@@@@ABV<lambda_28bda7af82a03b66c1cb3803a755f95d>@@I@Z 10015f14 f   libucrt:argv_wildcards.obj
 0001:00015000       ??$common_expand_argv_wildcards@D@@YAHQAPADQAPAPAD@Z 10016000 f   libucrt:argv_wildcards.obj
 0001:000151ef       ??$copy_and_add_argument_to_buffer@D@@YAHQBD0IAAV?$argument_list@D@?A0x5f5c8891@@@Z 100161ef f   libucrt:argv_wildcards.obj
 0001:000152a0       ??$expand_argument_wildcards@D@@YAHQAD0AAV?$argument_list@D@?A0x5f5c8891@@@Z 100162a0 f   libucrt:argv_wildcards.obj
 0001:000155ea       ?expand_if_necessary@?$argument_list@D@?A0x5f5c8891@@AAEHXZ 100165ea f   libucrt:argv_wildcards.obj
 0001:0001567c       ??$__acrt_convert_wcs_mbs_cp@_WDV<lambda_0fec1a7b3f42a53036604e18c2d5e07e>@@U__crt_win32_buffer_no_resizing@@@@YAHQB_WAAV?$__crt_win32_buffer@DU__crt_win32_buffer_no_resizing@@@@ABV<lambda_0fec1a7b3f42a53036604e18c2d5e07e>@@I@Z 1001667c f   libucrt:getmodulefilenamea.obj
 0001:0001581f       ??$?RV<lambda_ceb1ee4838e85a9d631eb091e2fbe199>@@AAV<lambda_ae742caa10f662c28703da3d2ea5e57e>@@V<lambda_cd08b5d6af4937fe54fc07d0c9bf6b37>@@@?$__crt_seh_guarded_call@X@@QAEX$$QAV<lambda_ceb1ee4838e85a9d631eb091e2fbe199>@@AAV<lambda_ae742caa10f662c28703da3d2ea5e57e>@@$$QAV<lambda_cd08b5d6af4937fe54fc07d0c9bf6b37>@@@Z 1001681f f   libucrt:mbctype.obj
 0001:0001586c       ??R<lambda_ae742caa10f662c28703da3d2ea5e57e>@@QBEXXZ 1001686c f   libucrt:mbctype.obj
 0001:000158ef       ?CPtoLocaleName@@YAPB_WH@Z 100168ef f   libucrt:mbctype.obj
 0001:0001592d       ?getSystemCP@@YAHH@Z       1001692d f   libucrt:mbctype.obj
 0001:0001599e       ?setSBCS@@YAXPAU__crt_multibyte_data@@@Z 1001699e f   libucrt:mbctype.obj
 0001:00015a03       ?setSBUpLow@@YAXPAU__crt_multibyte_data@@@Z 10016a03 f   libucrt:mbctype.obj
 0001:00015b84       ?setmbcp_internal@@YAHH_NQAU__acrt_ptd@@QAPAU__crt_multibyte_data@@@Z 10016b84 f   libucrt:mbctype.obj
 0001:00015c9d       ?update_thread_multibyte_data_internal@@YAPAU__crt_multibyte_data@@QAU__acrt_ptd@@QAPAU1@@Z 10016c9d f   libucrt:mbctype.obj
 0001:00015f8b       _memcpy_s                  10016f8b f   libucrt:cfout.obj
 0001:00015f8b       _memcpy_s                  10016f8b f   libucrt:mbctype.obj
 0001:0001600c       ?x_ismbbtype_l@@YAHPAU__crt_locale_pointers@@IHH@Z 1001700c f   libucrt:ismbbyte.obj
 0001:000161bd       ?find_end_of_double_null_terminated_sequence@@YAPB_WQB_W@Z 100171bd f   libucrt:get_environment_from_os.obj
 0001:0001632c       ??$?RV<lambda_cbab9ec6f41b0180b23cc171c22676b0>@@AAV<lambda_44731a7d0e6d81c3e6aa82d741081786>@@V<lambda_4b292cb8dd18144e164572427af410ab>@@@?$__crt_seh_guarded_call@P6AXH@Z@@QAEP6AXH@Z$$QAV<lambda_cbab9ec6f41b0180b23cc171c22676b0>@@AAV<lambda_44731a7d0e6d81c3e6aa82d741081786>@@$$QAV<lambda_4b292cb8dd18144e164572427af410ab>@@@Z 1001732c f   libucrt:signal.obj
 0001:00016390       ?get_global_action_nolock@@YAPAP6AXH@ZH@Z 10017390 f   libucrt:signal.obj
 0001:000163d2       ?siglookup@@YAPAU__crt_signal_action_t@@HQAU1@@Z 100173d2 f   libucrt:signal.obj
 0001:0001669c       ??$?RV<lambda_2866be3712abc81a800a822484c830d8>@@AAV<lambda_39ca0ed439415581b5b15c265174cece>@@V<lambda_2b24c74d71094a6cd0cb82e44167d71b>@@@?$__crt_seh_guarded_call@X@@QAEX$$QAV<lambda_2866be3712abc81a800a822484c830d8>@@AAV<lambda_39ca0ed439415581b5b15c265174cece>@@$$QAV<lambda_2b24c74d71094a6cd0cb82e44167d71b>@@@Z 1001769c f   libucrt:fflush.obj
 0001:00016728       ??$?RV<lambda_2cc53f568c5a2bb6f192f930a45d44ea>@@AAV<lambda_ab61a845afdef5b7c387490eaf3616ee>@@V<lambda_c2ffc0b7726aa6be21d5f0026187e748>@@@?$__crt_seh_guarded_call@X@@QAEX$$QAV<lambda_2cc53f568c5a2bb6f192f930a45d44ea>@@AAV<lambda_ab61a845afdef5b7c387490eaf3616ee>@@$$QAV<lambda_c2ffc0b7726aa6be21d5f0026187e748>@@@Z 10017728 f   libucrt:fflush.obj
 0001:000167d4       ?common_flush_all@@YAH_N@Z 100177d4 f   libucrt:fflush.obj
 0001:00016821       ?common_flush_all_should_try_to_flush_stream@@YA_NV__crt_stdio_stream@@QAH@Z 10017821 f   libucrt:fflush.obj
 0001:00016854       ?is_stream_flushable_or_commitable@@YA_NJ@Z 10017854 f   libucrt:fflush.obj
 0001:00016d5d       ?GetTableIndexFromLocaleName@@YAHPB_W@Z 10017d5d f   libucrt:lcidtoname_downlevel.obj
 0001:00016e13       ??R<lambda_3d301b9e52f5099be73030e1f0bf487e>@@QBEIPBD@Z 10017e13 f   libucrt:mbrtowc.obj
 0001:00018aea       ?free_crt_array_internal@@YAXQAPBXI@Z 10019aea f   libucrt:inittime.obj
 0001:00018fc0       ?swap@@YAXPAD0I@Z          10019fc0 f   libucrt:qsort.obj
 0001:00019444       ??$common_tcsncpy_s@D@@YAHQADIQBDI@Z 1001a444 f   libucrt:strncpy_s.obj
 0001:00019510       $$000000                   1001a510     libucrt:strpbrk.obj
 0001:000195f4       ?__acrt_LCMapStringA_stat@@YAHPAU__crt_locale_pointers@@PB_WKPBDHPADHHH@Z 1001a5f4 f   libucrt:lcmapstringa.obj
 0001:00019827       ?initialize_multibyte@@YAHXZ 1001a827 f   libucrt:multibyte_initializer.obj
 0001:00019836       ??$?RV<lambda_9e9de3de5fa147e2223d7db92bc10aa6>@@AAV<lambda_38ce7e780aa69e748d6df282ebc68efe>@@V<lambda_8ca6da459f0f6780f1cff60fdc3d00e5>@@@?$__crt_seh_guarded_call@H@@QAEH$$QAV<lambda_9e9de3de5fa147e2223d7db92bc10aa6>@@AAV<lambda_38ce7e780aa69e748d6df282ebc68efe>@@$$QAV<lambda_8ca6da459f0f6780f1cff60fdc3d00e5>@@@Z 1001a836 f   libucrt:commit.obj
 0001:00019955       ?write_double_translated_ansi_nolock@@YA?AUwrite_result@?A0x17268360@@HQBDI@Z 1001a955 f   libucrt:write.obj
 0001:00019cff       ?write_double_translated_unicode_nolock@@YA?AUwrite_result@?A0x17268360@@QBDI@Z 1001acff f   libucrt:write.obj
 0001:00019d67       ?write_requires_double_translation_nolock@@YA_NH@Z 1001ad67 f   libucrt:write.obj
 0001:00019dd8       ?write_text_ansi_nolock@@YA?AUwrite_result@?A0x17268360@@HQBDI@Z 1001add8 f   libucrt:write.obj
 0001:00019eb3       ?write_text_utf16le_nolock@@YA?AUwrite_result@?A0x17268360@@HQBDI@Z 1001aeb3 f   libucrt:write.obj
 0001:00019f9c       ?write_text_utf8_nolock@@YA?AUwrite_result@?A0x17268360@@HQBDI@Z 1001af9c f   libucrt:write.obj
 0001:0001a670       $$000000                   1001b670     libucrt:log10_impl.obj
 0001:0001a780       $$000000                   1001b780     libucrt:ceil_pentium4.obj
 0001:0001a89d       ??$common_lseek_nolock@_J@@YA_JH_JH@Z 1001b89d f   libucrt:lseek.obj
 0001:0001aa83       ?to_abstract_control@@YA?AW4__acrt_fenv_abstract_control@@W4__acrt_fenv_machine_sse_control@@@Z 1001ba83 f   libucrt:_fenvutils.obj
 0001:0001ab3f       ?to_abstract_control@@YA?AW4__acrt_fenv_abstract_control@@W4__acrt_fenv_machine_x87_control@@@Z 1001bb3f f   libucrt:_fenvutils.obj
 0001:0001abf8       ?to_machine_sse_control@@YA?AW4__acrt_fenv_machine_sse_control@@W4__acrt_fenv_abstract_control@@@Z 1001bbf8 f   libucrt:_fenvutils.obj
 0001:0001acc5       ?to_machine_x87_control@@YA?AW4__acrt_fenv_machine_x87_control@@W4__acrt_fenv_abstract_control@@@Z 1001bcc5 f   libucrt:_fenvutils.obj
 0001:0001b120       $$000000                   1001c120     libucrt:log10_pentium4.obj
 0001:0001b3b0       $$000000                   1001c3b0     libucrt:87tran.obj
 0001:0001b5c0       $$000000                   1001c5c0     libucrt:87disp.obj
 0001:0001b820       $$000000                   1001c820     libucrt:common.obj
 0001:0001b9b0       $$000000                   1001c9b0     libucrt:genexcep.obj
 0001:0001bcac       ??$?RV<lambda_218ce3db14220d0be481dae8ef3383b6>@@AAV<lambda_628dfdc04ba53c8bfc02c9951375f3f5>@@V<lambda_57dc472bd5c9d5f3b2cbca59b8a843ae>@@@?$__crt_seh_guarded_call@H@@QAEH$$QAV<lambda_218ce3db14220d0be481dae8ef3383b6>@@AAV<lambda_628dfdc04ba53c8bfc02c9951375f3f5>@@$$QAV<lambda_57dc472bd5c9d5f3b2cbca59b8a843ae>@@@Z 1001ccac f   libucrt:close.obj
 0001:0001bea0       $$000000                   1001cea0     libucrt:_strnicm.obj
 0001:0001bf01       ?__dcrt_lowio_initialize_console_output@@YAXXZ 1001cf01 f   libucrt:initcon.obj
 0001:0001cd60       $$000000                   1001dd60     LIBCMT:ulldvrm.obj
 0001:0001ce00       $$000000                   1001de00     LIBCMT:llmul.obj
 0001:0001ce40       $$000000                   1001de40     LIBCMT:lldvrm.obj
 0001:0001cf20       $$000000                   1001df20     LIBCMT:ullshr.obj
 0001:0001cf40       $$000000                   1001df40     LIBCMT:llshl.obj
 0001:0001cf60       $$000000                   1001df60     LIBCMT:ftol2.obj
 0001:0001d200       $$000000                   1001e200     libvcruntime:strrchr.obj
 0001:0001d340       $$000000                   1001e340     libvcruntime:strchr.obj
 0001:0001d4e3       __ehhandler$??2@YAPAXIABUnothrow_t@std@@@Z 1001e4e3 f   LIBCMT:new_scalar_nothrow.obj
 0001:0001d4fe       __ehhandler$?CallUnexpected@@YAXPBU_s_ESTypeList@@@Z 1001e4fe f   libvcruntime:frame.obj
 0001:0001d519       ??__F_AtlComModule@ATL@@YAXXZ 1001e519 f   OposVariant.obj
 0001:0001d523       ??__F_AtlWinModule@ATL@@YAXXZ 1001e523 f   OposVariant.obj
 0001:0001d53d       ??__F_Module@@YAXXZ        1001e53d f   MotionSensor.obj
 0001:0001d551       ??__F_AtlBaseModule@ATL@@YAXXZ 1001e551 f   atls:atlbase.obj
 0002:00000304       ?_AtlBaseModule$initializer$@ATL@@3P6AXXZA 1001f304     atls:atlbase.obj
 0002:00000308       ?_AtlComModule$initializer$@ATL@@3P6AXXZA 1001f308     OposVariant.obj
 0002:0000030c       ?_AtlWinModule$initializer$@ATL@@3P6AXXZA 1001f30c     OposVariant.obj
 0002:00000310       ?_Module$initializer$@@3P6AXXZA 1001f310     MotionSensor.obj
 0002:00000314       ??pConnMap$initializer$@?$IConnectionPointContainerImpl@VCOPOSMotionSensor@@@ATL@@0P6AXXZA@@3P6AXXZA 1001f314     MotionSensor.obj
 0002:00000320       ?__scrt_initialize_tss_var@@3P6AHXZA 1001f320     LIBCMT:thread_safe_statics.obj
 0002:00001768       _GS_ExceptionPointers      10020768     LIBCMT:gs_report.obj
 0002:000018f8       ?tokenTable@@3QBUStringLiteral@@B 100208f8     libvcruntime:undname.obj
 0002:00001978       ?nameTable@@3QBUStringLiteral@@B 10020978     libvcruntime:undname.obj
 0002:00001c10       ?rttiTable@@3QBUStringLiteral@@B 10020c10     libvcruntime:undname.obj
 0002:00001c38       ?IndirectionName@@3QBUStringLiteral@@B 10020c38     libvcruntime:undname.obj
 0002:00001c68       ?PrefixName@@3QBUStringLiteral@@B 10020c68     libvcruntime:undname.obj
 0002:00002298       ?module_names@?A0x1172487b@@3QBQB_WB 10021298     libvcruntime:winapi_downlevel.obj
 0002:00002340       ?candidate_modules@?1??try_get_FlsAlloc@@YAP6GKP6GXPAX@Z@ZXZ@4QBW4module_id@?A0x1172487b@@B 10021340     libvcruntime:winapi_downlevel.obj
 0002:00002354       ?candidate_modules@?1??try_get_FlsFree@@YAP6GHK@ZXZ@4QBW4module_id@?A0x1172487b@@B 10021354     libvcruntime:winapi_downlevel.obj
 0002:00002364       ?candidate_modules@?1??try_get_FlsGetValue@@YAP6GPAXK@ZXZ@4QBW4module_id@?A0x1172487b@@B 10021364     libvcruntime:winapi_downlevel.obj
 0002:00002378       ?candidate_modules@?1??try_get_FlsSetValue@@YAP6GHKPAX@ZXZ@4QBW4module_id@?A0x1172487b@@B 10021378     libvcruntime:winapi_downlevel.obj
 0002:0000238c       ?candidate_modules@?1??try_get_InitializeCriticalSectionEx@@YAP6GHPAU_RTL_CRITICAL_SECTION@@KK@ZXZ@4QBW4module_id@?A0x1172487b@@B 1002138c     libvcruntime:winapi_downlevel.obj
 0002:000023b0       ?errtable@@3QBUerrentry@?A0x31fdb9ec@@B 100213b0     libucrt:errno.obj
 0002:00002658       ___acrt_initializers       10021658     libucrt:initialization.obj
 0002:000026d8       ?module_names@?A0x391cf84c@@3QBQB_WB 100216d8     libucrt:winapi_thunks.obj
 0002:00002b50       ?candidate_modules@?1??try_get_AreFileApisANSI@@YAP6GHXZXZ@4QBW4module_id@?A0x391cf84c@@B 10021b50     libucrt:winapi_thunks.obj
 0002:00002b64       ?candidate_modules@?1??try_get_FlsAlloc@@YAP6GKP6GXPAX@Z@ZXZ@4QBW4module_id@?A0x391cf84c@@B 10021b64     libucrt:winapi_thunks.obj
 0002:00002b6c       ?candidate_modules@?1??try_get_FlsFree@@YAP6GHK@ZXZ@4QBW4module_id@?A0x391cf84c@@B 10021b6c     libucrt:winapi_thunks.obj
 0002:00002b74       ?candidate_modules@?1??try_get_FlsGetValue@@YAP6GPAXK@ZXZ@4QBW4module_id@?A0x391cf84c@@B 10021b74     libucrt:winapi_thunks.obj
 0002:00002b7c       ?candidate_modules@?1??try_get_FlsSetValue@@YAP6GHKPAX@ZXZ@4QBW4module_id@?A0x391cf84c@@B 10021b7c     libucrt:winapi_thunks.obj
 0002:00002b84       ?candidate_modules@?1??try_get_InitializeCriticalSectionEx@@YAP6GHPAU_RTL_CRITICAL_SECTION@@KK@ZXZ@4QBW4module_id@?A0x391cf84c@@B 10021b84     libucrt:winapi_thunks.obj
 0002:00002b8c       ?candidate_modules@?1??try_get_LCMapStringEx@@YAP6GHPB_WK0HPA_WHPAU_nlsversioninfo@@PAXJ@ZXZ@4QBW4module_id@?A0x391cf84c@@B 10021b8c     libucrt:winapi_thunks.obj
 0002:00002ba4       ?candidate_modules@?1??try_get_LocaleNameToLCID@@YAP6GKPB_WK@ZXZ@4QBW4module_id@?A0x391cf84c@@B 10021ba4     libucrt:winapi_thunks.obj
 0002:00002bc0       ?candidate_modules@?1??try_get_AppPolicyGetProcessTerminationMethod@@YAP6GJPAXPAW4AppPolicyProcessTerminationMethod@@@ZXZ@4QBW4module_id@?A0x391cf84c@@B 10021bc0     libucrt:winapi_thunks.obj
 0002:00002bec       ?candidate_modules@?1??try_get_SetThreadStackGuarantee@@YAP6GHPAK@ZXZ@4QBW4module_id@?A0x391cf84c@@B 10021bec     libucrt:winapi_thunks.obj
 0002:00002c10       ?strings@?1??fp_format_nan_or_infinity@@YAHW4__acrt_fp_class@@_NPADI1@Z@4QAY03QBDA 10021c10     libucrt:cvt.obj
 0002:00003158       ?_mb_locale_names@@3QBQB_WB 10022158     libucrt:mbctype.obj
 0002:000039a0       ?LcidToLocaleNameTable@?A0x881e4c05@@3QBULcidToLocaleName@1@B 100229a0     libucrt:lcidtoname_downlevel.obj
 0002:00004ac8       ?LocaleNameToIndexTable@?A0x881e4c05@@3QBULocaleNameIndex@1@B 10023ac8     libucrt:lcidtoname_downlevel.obj
 0002:00006320       ?large_power_indices@?1??multiply_by_power_of_ten@__crt_strtox@@YA_NAAUbig_integer@2@I@Z@4QBUunpack_index@?1??12@YA_N0I@Z@B 10025320     libucrt:cfout.obj
 0002:00006400       LOG_name                   10025400     libucrt:log10_impl.obj
 0002:00006410       _One                       10025410     libucrt:ceil_pentium4.obj
 0002:00006420       _Bns                       10025420     libucrt:ceil_pentium4.obj
 0002:00006430       _Zero                      10025430     libucrt:ceil_pentium4.obj
 0002:00006440       _S                         10025440     libucrt:ceil_pentium4.obj
 0002:00006450       _NegZero                   10025450     libucrt:ceil_pentium4.obj
 0002:00006460       emask                      10025460     libucrt:log10_pentium4.obj
 0002:00006470       CC                         10025470     libucrt:log10_pentium4.obj
 0002:00006480       Magic                      10025480     libucrt:log10_pentium4.obj
 0002:00006490       hi_mask                    10025490     libucrt:log10_pentium4.obj
 0002:000064a0       LOG10_2                    100254a0     libucrt:log10_pentium4.obj
 0002:000064b0       place_L                    100254b0     libucrt:log10_pentium4.obj
 0002:000064d0       One                        100254d0     libucrt:log10_pentium4.obj
 0002:000064e0       Zero                       100254e0     libucrt:log10_pentium4.obj
 0002:000064f0       Two52                      100254f0     libucrt:log10_pentium4.obj
 0002:00006500       Infs                       10025500     libucrt:log10_pentium4.obj
 0002:00006510       NaN                        10025510     libucrt:log10_pentium4.obj
 0002:00006520       coeff                      10025520     libucrt:log10_pentium4.obj
 0002:0000657e       _log2max                   1002557e     libucrt:87tran.obj
 0002:00006588       _smallarg                  10025588     libucrt:87tran.obj
 0002:00006592       _half                      10025592     libucrt:87tran.obj
 0002:000065de       One                        100255de     libucrt:87disp.obj
 0002:000065e6       Three                      100255e6     libucrt:87disp.obj
 0002:000065ee       XAMtoTagTab                100255ee     libucrt:87disp.obj
 0002:00006600       One                        10025600     libucrt:common.obj
 0002:00006614       DblMax                     10025614     libucrt:common.obj
 0002:0000661c       DblMin                     1002561c     libucrt:common.obj
 0002:00006624       IeeeAdjO                   10025624     libucrt:common.obj
 0002:0000662c       IeeeAdjU                   1002562c     libucrt:common.obj
 0002:00006634       _infinity                  10025634     libucrt:common.obj
 0002:0000663c       _zero                      1002563c     libucrt:common.obj
 0002:00006688       _over                      10025688     libucrt:fpctrl.obj
 0002:00006694       _under                     10025694     libucrt:fpctrl.obj
 0002:00006ec8       ?_names@?1??_get_fname@@9@9 10025ec8     libucrt:fpexcept.obj
 0002:00007070       two32                      10026070     LIBCMT:ftol2.obj
 0002:00007074       two63                      10026074     LIBCMT:ftol2.obj
 0002:00007078       _NaN                       10026078     LIBCMT:ftol2.obj
 0002:00007728       __sehtable$?_AtlVerifyStackAvailable@_ATL_SAFE_ALLOCA_IMPL@ATL@@YA_NK@Z 10026728     MotionSensor.obj
 0002:00007748       __sehtable$___scrt_is_nonwritable_in_current_image 10026748     LIBCMT:utility.obj
 0002:00007764       __catchsym$??2@YAPAXIABUnothrow_t@std@@@Z$2 10026764     LIBCMT:new_scalar_nothrow.obj
 0002:00007774       __unwindtable$??2@YAPAXIABUnothrow_t@std@@@Z 10026774     LIBCMT:new_scalar_nothrow.obj
 0002:00007784       __tryblocktable$??2@YAPAXIABUnothrow_t@std@@@Z 10026784     LIBCMT:new_scalar_nothrow.obj
 0002:00007798       __ehfuncinfo$??2@YAPAXIABUnothrow_t@std@@@Z 10026798     LIBCMT:new_scalar_nothrow.obj
 0002:000077c0       __sehtable$?dllmain_crt_process_attach@@YAHQAUHINSTANCE__@@QAX@Z 100267c0     LIBCMT:dll_dllmain.obj
 0002:000077e0       __sehtable$?dllmain_crt_process_detach@@YAH_N@Z 100267e0     LIBCMT:dll_dllmain.obj
 0002:00007808       __sehtable$?dllmain_dispatch@@YAHQAUHINSTANCE__@@KQAX@Z 10026808     LIBCMT:dll_dllmain.obj
 0002:000078b8       __sehtable$___DestructExceptionObject 100268b8     libvcruntime:ehhelpers.obj
 0002:000078d8       __sehtable$?FrameUnwindToState@__FrameHandler3@@SAXPAUEHRegistrationNode@@PAXPBU_s_FuncInfo@@H@Z 100268d8     libvcruntime:frame.obj
 0002:00007900       __sehtable$?CallCatchBlock@@YAPAXPAUEHExceptionRecord@@PAUEHRegistrationNode@@PAU_CONTEXT@@PBU_s_FuncInfo@@PAXHK@Z 10026900     libvcruntime:frame.obj
 0002:00007928       __catchsym$?CallUnexpected@@YAXPBU_s_ESTypeList@@@Z$2 10026928     libvcruntime:frame.obj
 0002:00007938       __unwindtable$?CallUnexpected@@YAXPBU_s_ESTypeList@@@Z 10026938     libvcruntime:frame.obj
 0002:00007948       __tryblocktable$?CallUnexpected@@YAXPBU_s_ESTypeList@@@Z 10026948     libvcruntime:frame.obj
 0002:0000795c       __ehfuncinfo$?CallUnexpected@@YAXPBU_s_ESTypeList@@@Z 1002695c     libvcruntime:frame.obj
 0002:00007980       __sehtable$??$BuildCatchObjectHelperInternal@V__FrameHandler3@@@@YAHPAUEHExceptionRecord@@PAXPBU_s_HandlerType@@PBU_s_CatchableType@@@Z 10026980     libvcruntime:frame.obj
 0002:000079a0       __sehtable$??$BuildCatchObjectInternal@V__FrameHandler3@@@@YAXPAUEHExceptionRecord@@PAXPBU_s_HandlerType@@PBU_s_CatchableType@@@Z 100269a0     libvcruntime:frame.obj
 0002:000079f8       __sehtable$??R<lambda_6e4b09c48022b2350581041d5f6b0c4c>@@QBE@XZ 100269f8     libucrt:exit.obj
 0002:00007a18       __sehtable$??$?RV<lambda_03b1d95aef87969028cfba75ccab2455>@@AAV<lambda_6e4b09c48022b2350581041d5f6b0c4c>@@V<lambda_22bdf7517842c4b3e53723af5aa32b9e>@@@?$__crt_seh_guarded_call@X@@QAEX$$QAV<lambda_03b1d95aef87969028cfba75ccab2455>@@AAV<lambda_6e4b09c48022b2350581041d5f6b0c4c>@@$$QAV<lambda_22bdf7517842c4b3e53723af5aa32b9e>@@@Z 10026a18     libucrt:exit.obj
 0002:00007a38       __sehtable$??$?RV<lambda_8e746cf0007f6ed984d6f78af1fec997>@@AAV<lambda_22ebabd17bc4fa466a2aca6d8deb888d>@@V<lambda_18ed0c0b38a6dc0daf1e7ac6d6adf05e>@@@?$__crt_seh_guarded_call@H@@QAEH$$QAV<lambda_8e746cf0007f6ed984d6f78af1fec997>@@AAV<lambda_22ebabd17bc4fa466a2aca6d8deb888d>@@$$QAV<lambda_18ed0c0b38a6dc0daf1e7ac6d6adf05e>@@@Z 10026a38     libucrt:onexit.obj
 0002:00007a58       __sehtable$??$?RV<lambda_69a2805e680e0e292e8ba93315fe43a8>@@AAV<lambda_f03950bc5685219e0bcd2087efbe011e>@@V<lambda_03fcd07e894ec930e3f35da366ca99d6>@@@?$__crt_seh_guarded_call@H@@QAEH$$QAV<lambda_69a2805e680e0e292e8ba93315fe43a8>@@AAV<lambda_f03950bc5685219e0bcd2087efbe011e>@@$$QAV<lambda_03fcd07e894ec930e3f35da366ca99d6>@@@Z 10026a58     libucrt:onexit.obj
 0002:00007a78       __sehtable$__query_new_handler 10026a78     libucrt:new_handler.obj
 0002:00007a98       __sehtable$_terminate      10026a98     libucrt:terminate.obj
 0002:00007ab8       __sehtable$??$?RV<lambda_15ade71b0218206bbe3333a0c9b79046>@@AAV<lambda_da44e0f8b0f19ba52fefafb335991732>@@V<lambda_207f2d024fc103971653565357d6cd41>@@@?$__crt_seh_guarded_call@X@@QAEX$$QAV<lambda_15ade71b0218206bbe3333a0c9b79046>@@AAV<lambda_da44e0f8b0f19ba52fefafb335991732>@@$$QAV<lambda_207f2d024fc103971653565357d6cd41>@@@Z 10026ab8     libucrt:per_thread_data.obj
 0002:00007ad8       __sehtable$??$?RV<lambda_a7e850c220f1c8d1e6efeecdedd162c6>@@AAV<lambda_46720907175c18b6c9d2717bc0d2d362>@@V<lambda_9048902d66e8d99359bc9897bbb930a8>@@@?$__crt_seh_guarded_call@X@@QAEX$$QAV<lambda_a7e850c220f1c8d1e6efeecdedd162c6>@@AAV<lambda_46720907175c18b6c9d2717bc0d2d362>@@$$QAV<lambda_9048902d66e8d99359bc9897bbb930a8>@@@Z 10026ad8     libucrt:per_thread_data.obj
 0002:00007af8       __sehtable$??$?RV<lambda_38edbb1296d33220d7e4dd0ed76b244a>@@AAV<lambda_5ce1d447e08cb34b2473517608e21441>@@V<lambda_fb385d3da700c9147fc39e65dd577a8c>@@@?$__crt_seh_guarded_call@X@@QAEX$$QAV<lambda_38edbb1296d33220d7e4dd0ed76b244a>@@AAV<lambda_5ce1d447e08cb34b2473517608e21441>@@$$QAV<lambda_fb385d3da700c9147fc39e65dd577a8c>@@@Z 10026af8     libucrt:per_thread_data.obj
 0002:00007b18       __sehtable$??$?RV<lambda_6affb1475c98b40b75cdec977db92e3c>@@AAV<lambda_b8d4b9c228a6ecc3f80208dbb4b4a104>@@V<lambda_608742c3c92a14382c1684fc64f96c88>@@@?$__crt_seh_guarded_call@X@@QAEX$$QAV<lambda_6affb1475c98b40b75cdec977db92e3c>@@AAV<lambda_b8d4b9c228a6ecc3f80208dbb4b4a104>@@$$QAV<lambda_608742c3c92a14382c1684fc64f96c88>@@@Z 10026b18     libucrt:per_thread_data.obj
 0002:00007b38       __sehtable$??$?RV<lambda_e5124f882df8998aaf41531e079ba474>@@AAV<lambda_3e16ef9562a7dcce91392c22ab16ea36>@@V<lambda_e25ca0880e6ef98be67edffd8c599615>@@@?$__crt_seh_guarded_call@X@@QAEX$$QAV<lambda_e5124f882df8998aaf41531e079ba474>@@AAV<lambda_3e16ef9562a7dcce91392c22ab16ea36>@@$$QAV<lambda_e25ca0880e6ef98be67edffd8c599615>@@@Z 10026b38     libucrt:wsetlocale.obj
 0002:00007b58       __sehtable$___acrt_initialize_lowio 10026b58     libucrt:ioinit.obj
 0002:00007b78       __sehtable$?update_thread_multibyte_data_internal@@YAPAU__crt_multibyte_data@@QAU__acrt_ptd@@QAPAU1@@Z 10026b78     libucrt:mbctype.obj
 0002:00007b98       __sehtable$??$?RV<lambda_ceb1ee4838e85a9d631eb091e2fbe199>@@AAV<lambda_ae742caa10f662c28703da3d2ea5e57e>@@V<lambda_cd08b5d6af4937fe54fc07d0c9bf6b37>@@@?$__crt_seh_guarded_call@X@@QAEX$$QAV<lambda_ceb1ee4838e85a9d631eb091e2fbe199>@@AAV<lambda_ae742caa10f662c28703da3d2ea5e57e>@@$$QAV<lambda_cd08b5d6af4937fe54fc07d0c9bf6b37>@@@Z 10026b98     libucrt:mbctype.obj
 0002:00007bb8       __sehtable$_raise          10026bb8     libucrt:signal.obj
 0002:00007bd8       __sehtable$??$?RV<lambda_cbab9ec6f41b0180b23cc171c22676b0>@@AAV<lambda_44731a7d0e6d81c3e6aa82d741081786>@@V<lambda_4b292cb8dd18144e164572427af410ab>@@@?$__crt_seh_guarded_call@P6AXH@Z@@QAEP6AXH@Z$$QAV<lambda_cbab9ec6f41b0180b23cc171c22676b0>@@AAV<lambda_44731a7d0e6d81c3e6aa82d741081786>@@$$QAV<lambda_4b292cb8dd18144e164572427af410ab>@@@Z 10026bd8     libucrt:signal.obj
 0002:00007bf8       __sehtable$??$?RV<lambda_2866be3712abc81a800a822484c830d8>@@AAV<lambda_39ca0ed439415581b5b15c265174cece>@@V<lambda_2b24c74d71094a6cd0cb82e44167d71b>@@@?$__crt_seh_guarded_call@X@@QAEX$$QAV<lambda_2866be3712abc81a800a822484c830d8>@@AAV<lambda_39ca0ed439415581b5b15c265174cece>@@$$QAV<lambda_2b24c74d71094a6cd0cb82e44167d71b>@@@Z 10026bf8     libucrt:fflush.obj
 0002:00007c18       __sehtable$??$?RV<lambda_2cc53f568c5a2bb6f192f930a45d44ea>@@AAV<lambda_ab61a845afdef5b7c387490eaf3616ee>@@V<lambda_c2ffc0b7726aa6be21d5f0026187e748>@@@?$__crt_seh_guarded_call@X@@QAEX$$QAV<lambda_2cc53f568c5a2bb6f192f930a45d44ea>@@AAV<lambda_ab61a845afdef5b7c387490eaf3616ee>@@$$QAV<lambda_c2ffc0b7726aa6be21d5f0026187e748>@@@Z 10026c18     libucrt:fflush.obj
 0002:00007c38       __sehtable$___acrt_update_thread_locale_data 10026c38     libucrt:locale_refcounting.obj
 0002:00007c58       __sehtable$__fcloseall     10026c58     libucrt:closeall.obj
 0002:00007c78       __sehtable$___acrt_lowio_ensure_fh_exists 10026c78     libucrt:osfinfo.obj
 0002:00007c98       __sehtable$??$?RV<lambda_9e9de3de5fa147e2223d7db92bc10aa6>@@AAV<lambda_38ce7e780aa69e748d6df282ebc68efe>@@V<lambda_8ca6da459f0f6780f1cff60fdc3d00e5>@@@?$__crt_seh_guarded_call@H@@QAEH$$QAV<lambda_9e9de3de5fa147e2223d7db92bc10aa6>@@AAV<lambda_38ce7e780aa69e748d6df282ebc68efe>@@$$QAV<lambda_8ca6da459f0f6780f1cff60fdc3d00e5>@@@Z 10026c98     libucrt:commit.obj
 0002:00007cb8       __sehtable$__write         10026cb8     libucrt:write.obj
 0002:00007cd8       __sehtable$_fclose         10026cd8     libucrt:fclose.obj
 0002:00007cf8       __sehtable$??$?RV<lambda_218ce3db14220d0be481dae8ef3383b6>@@AAV<lambda_628dfdc04ba53c8bfc02c9951375f3f5>@@V<lambda_57dc472bd5c9d5f3b2cbca59b8a843ae>@@@?$__crt_seh_guarded_call@H@@QAEH$$QAV<lambda_218ce3db14220d0be481dae8ef3383b6>@@AAV<lambda_628dfdc04ba53c8bfc02c9951375f3f5>@@$$QAV<lambda_57dc472bd5c9d5f3b2cbca59b8a843ae>@@@Z 10026cf8     libucrt:close.obj
 0002:00007d18       __sehtable$__IsNonwritableInCurrentImage 10026d18     LIBCMT:pesect.obj
 0002:00007d40       .edata                     10026d40     OPOSMotionSensor.exp
 0002:00007d68       rgpv                       10026d68     OPOSMotionSensor.exp
 0002:00007d78       rgszName                   10026d78     OPOSMotionSensor.exp
 0002:00007d88       rgwOrd                     10026d88     OPOSMotionSensor.exp
 0002:00007d90       szName                     10026d90     OPOSMotionSensor.exp
 0002:00007da5       $N00001                    10026da5     OPOSMotionSensor.exp
 0002:00007db5       $N00002                    10026db5     OPOSMotionSensor.exp
 0002:00007dc7       $N00003                    10026dc7     OPOSMotionSensor.exp
 0002:00007dd9       $N00004                    10026dd9     OPOSMotionSensor.exp
 0002:000083ea       .idata$6                   100273ea     kernel32:KERNEL32.dll
 0002:000085fe       .idata$6                   100275fe     user32:USER32.dll
 0002:00008732       .idata$6                   10027732     gdi32:GDI32.dll
 0002:000087d8       .idata$6                   100277d8     advapi32:ADVAPI32.dll
 0002:000088f4       .idata$6                   100278f4     ole32:ole32.dll
 0002:000088fe       .idata$6                   100278fe     oleaut32:OLEAUT32.dll
 0003:00000110       ?ObjectMap@@3PAU_ATL_OBJMAP_ENTRY30@ATL@@A 10028110     MotionSensor.obj
 0003:000001d0       ?s_SOMethodNames@@3PAPADA  100281d0     MotionSensorImpl.obj
 0003:00000218       ?s_RequiredMethodsPerRelease@@3PAHA 10028218     MotionSensorImpl.obj
 0003:00000240       ?__vcrt_flsindex@@3KA      10028240     libvcruntime:per_thread_data.obj
 0003:00000260       ?errno_no_memory@@3HA      10028260     libucrt:errno.obj
 0003:00000264       ?doserrno_no_memory@@3KA   10028264     libucrt:errno.obj
 0003:00000270       ?__acrt_flsindex@@3KA      10028270     libucrt:per_thread_data.obj
 0003:00000608       __mbctypes                 10028608     libucrt:mbctype.obj
 0003:00000710       __mbcasemaps               10028710     libucrt:mbctype.obj
 0003:00000810       ?__rgctypeflag@@3PADA      10028810     libucrt:mbctype.obj
 0003:00000818       ?__rgcode_page_info@@3PAUcode_page_info@@A 10028818     libucrt:mbctype.obj
 0003:00000a70       ?__dcrt_lowio_console_output_handle@@3PAXA 10028a70     libucrt:initcon.obj
 0003:00000c08       ?is_initialized_as_dll@@3_NA 10028c08     LIBCMT:utility.obj
 0003:00000c09       ?module_local_atexit_table_initialized@@3_NA 10028c09     LIBCMT:utility.obj
 0003:00000c0c       ?module_local_atexit_table@@3U_onexit_table_t@@A 10028c0c     LIBCMT:utility.obj
 0003:00000c18       ?module_local_at_quick_exit_table@@3U_onexit_table_t@@A 10028c18     LIBCMT:utility.obj
 0003:00000c24       ?g_tss_cv@@3U_RTL_CONDITION_VARIABLE@@A 10028c24     LIBCMT:thread_safe_statics.obj
 0003:00000c28       ?g_tss_event@@3PAXA        10028c28     LIBCMT:thread_safe_statics.obj
 0003:00000c2c       ?g_tss_mutex@@3U_RTL_CRITICAL_SECTION@@A 10028c2c     LIBCMT:thread_safe_statics.obj
 0003:00000c44       ?g_sleep_condition_variable_cs@@3P6GHPAU_RTL_CONDITION_VARIABLE@@PAU_RTL_CRITICAL_SECTION@@K@ZA 10028c44     LIBCMT:thread_safe_statics.obj
 0003:00000c48       ?g_wake_all_condition_variable@@3P6GXPAU_RTL_CONDITION_VARIABLE@@@ZA 10028c48     LIBCMT:thread_safe_statics.obj
 0003:00000c50       _GS_ExceptionRecord        10028c50     LIBCMT:gs_report.obj
 0003:00000ca0       _GS_ContextRecord          10028ca0     LIBCMT:gs_report.obj
 0003:00000f70       ?__proc_attached@@3HA      10028f70     LIBCMT:dll_dllmain.obj
 0003:00000fcc       ?AllocateData@@3P6GPAUAtlThunkData_t@@XZA 10028fcc     atls:atlthunk.obj
 0003:00000fd0       ?InitData@@3P6GXPAUAtlThunkData_t@@PAXI@ZA 10028fd0     atls:atlthunk.obj
 0003:00000fd4       ?DataToCode@@3P6GP6GJPAUHWND__@@IIJ@ZPAUAtlThunkData_t@@@ZA 10028fd4     atls:atlthunk.obj
 0003:00000fd8       ?FreeData@@3P6GXPAUAtlThunkData_t@@@ZA 10028fd8     atls:atlthunk.obj
 0003:00000fdc       ?Initialized@@3_NA         10028fdc     atls:atlthunk.obj
 0003:00000fec       ?__vcrt_startup_thread_ptd@@3U__vcrt_ptd@@A 10028fec     libvcruntime:per_thread_data.obj
 0003:00001014       ___vcrt_lock_table         10029014     libvcruntime:locks.obj
 0003:0000102c       ___vcrt_locks_initialized  1002902c     libvcruntime:locks.obj
 0003:00001058       ?heap@@3V_HeapManager@@A   10029058     libvcruntime:undname.obj
 0003:0000106c       ?module_handles@@3PAPAUHINSTANCE__@@A 1002906c     libvcruntime:winapi_downlevel.obj
 0003:00001078       ?function_pointers@@3PAPAXA 10029078     libvcruntime:winapi_downlevel.obj
 0003:0000108c       ?__acrt_invalid_parameter_handler@@3V?$dual_state_global@P6AXPB_W00II@Z@__crt_state_management@@A 1002908c     libucrt:invalid_parameter.obj
 0003:00001090       ?c_termination_complete@@3JA 10029090     libucrt:exit.obj
 0003:00001094       ?thread_local_exit_callback_func@@3P6GXPAXK0@ZA 10029094     libucrt:exit.obj
 0003:000010a0       ?program_name@?1???$common_configure_argv@D@@YAHW4_crt_argv_mode@@@Z@4PADA 100290a0     libucrt:argv_parsing.obj
 0003:000011d0       ?__acrt_new_handler@@3V?$dual_state_global@P6AHI@Z@__crt_state_management@@A 100291d0     libucrt:new_handler.obj
 0003:000011d8       ?module_handles@@3PAPAUHINSTANCE__@@A 100291d8     libucrt:winapi_thunks.obj
 0003:00001228       ?encoded_function_pointers@@3PAPAXA 10029228     libucrt:winapi_thunks.obj
 0003:000012b0       ?internal_state@?1??_mbtowc_l@@9@4U_Mbstatet@@A 100292b0     libucrt:mbtowc.obj
 0003:000012c0       ?enable_percent_n@@3IA     100292c0     libucrt:printf_count_output.obj
 0003:000014e0       ?__acrt_lock_table@@3PAU_RTL_CRITICAL_SECTION@@A 100294e0     libucrt:locks.obj
 0003:00001630       ?__acrt_locks_initialized@@3IA 10029630     libucrt:locks.obj
 0003:00001640       ?fSystemSet@@3HA           10029640     libucrt:mbctype.obj
 0003:00001644       ?initialized@?1??__acrt_initialize_multibyte@@9@4_NA 10029644     libucrt:mbctype.obj
 0003:00001664       ?ctrlc_action@@3V?$dual_state_global@P6AXH@Z@__crt_state_management@@A 10029664     libucrt:signal.obj
 0003:00001668       ?ctrlbreak_action@@3V?$dual_state_global@P6AXH@Z@__crt_state_management@@A 10029668     libucrt:signal.obj
 0003:0000166c       ?abort_action@@3V?$dual_state_global@P6AXH@Z@__crt_state_management@@A 1002966c     libucrt:signal.obj
 0003:00001670       ?term_action@@3V?$dual_state_global@P6AXH@Z@__crt_state_management@@A 10029670     libucrt:signal.obj
 0003:00001674       ?user_matherr@@3V?$dual_state_global@P6AHPAU_exception@@@Z@__crt_state_management@@A 10029674     libucrt:matherr.obj
 0003:00001678       ?__acrt_global_new_mode@@3V?$dual_state_global@J@__crt_state_management@@A 10029678     libucrt:new_mode.obj
 0003:00001684       ?internal_pst@?1??__mbrtoc32_utf8@__crt_mbstring@@YAIPA_UPBDIPAU_Mbstatet@@@Z@4U3@A 10029684     libucrt:mbrtoc32.obj
 0003:0000168c       ?__acrt_app_type@@3W4_crt_app_type@@A 1002968c     libucrt:report_runtime_error.obj
 0003:00001694       __pmatherr_set             10029694     libucrt:libm_error.obj
 0004:00000220       $R000000                   1002a220     MotionSensor.res
 0004:00000bc8       $R0009A8                   1002abc8     MotionSensor.res
 0004:00000cb0       $R000A90                   1002acb0     MotionSensor.res
 0004:00000f18       $R000CF8                   1002af18     MotionSensor.res
 0004:00001430       $R001210                   1002b430     MotionSensor.res
 0004:00003780       $R003560                   1002d780     MotionSensor.res
 0004:000037b8       $R003598                   1002d7b8     MotionSensor.res
