 OPOSPOSPrinter

 Timestamp is 600f7a13 (Tue Jan 26 11:10:27 2021)

 Preferred load address is 10000000

 Start         Length     Name                   Class
 0001:00000000 00000080H .text$di                CODE
 0001:00000080 0001f933H .text$mn                CODE
 0001:0001f9b3 0000003aH .text$x                 CODE
 0001:0001f9ed 00000042H .text$yd                CODE
 0002:00000000 000002fcH .idata$5                DATA
 0002:000002fc 00000004H .00cfg                  DATA
 0002:00000300 00000004H .CRT$XCA                DATA
 0002:00000304 00000004H .CRT$XCL                DATA
 0002:00000308 00000010H .CRT$XCU                DATA
 0002:00000318 00000004H .CRT$XCZ                DATA
 0002:0000031c 00000004H .CRT$XIA                DATA
 0002:00000320 00000010H .CRT$XIC                DATA
 0002:00000330 00000004H .CRT$XIZ                DATA
 0002:00000334 00000004H .CRT$XLA                DATA
 0002:00000338 00000004H .CRT$XLZ                DATA
 0002:0000033c 00000004H .CRT$XPA                DATA
 0002:00000340 00000008H .CRT$XPX                DATA
 0002:00000348 00000004H .CRT$XPXA               DATA
 0002:0000034c 00000004H .CRT$XPZ                DATA
 0002:00000350 00000004H .CRT$XTA                DATA
 0002:00000354 0000000cH .CRT$XTZ                DATA
 0002:00000358 00000000H .gfids$y                DATA
 0002:00000360 00007920H .rdata                  DATA
 0002:00007c80 00000000H .rdata$CastGuardVftablesA DATA
 0002:00007c80 00000000H .rdata$CastGuardVftablesC DATA
 0002:00007c80 00000018H .rdata$T                DATA
 0002:00007c98 00000178H .rdata$r                DATA
 0002:00007e10 0000001cH .rdata$sxdata           DATA
 0002:00007e2c 000003e0H .rdata$zzzdbg           DATA
 0002:0000820c 00000004H .rtc$IAA                DATA
 0002:00008210 00000004H .rtc$IZZ                DATA
 0002:00008214 00000004H .rtc$TAA                DATA
 0002:00008218 00000004H .rtc$TZZ                DATA
 0002:0000821c 00000004H .tls                    DATA
 0002:00008220 00000004H .tls$                   DATA
 0002:00008224 00000004H .tls$ZZZ                DATA
 0002:00008228 0000062cH .xdata$x                DATA
 0002:00008854 00000004H ATL$__a                 DATA
 0002:00008858 00000008H ATL$__z                 DATA
 0002:00008860 000000acH .edata                  DATA
 0002:0000890c 00000078H .idata$2                DATA
 0002:00008984 00000014H .idata$3                DATA
 0002:00008998 000002fcH .idata$4                DATA
 0002:00008c94 00000bceH .idata$6                DATA
 0003:00000000 00000b10H .data                   DATA
 0003:00000b10 00000098H .data$r                 DATA
 0003:00000ba8 00000b88H .bss                    DATA
 0004:00000000 00000220H .rsrc$01                DATA
 0004:00000220 000091c0H .rsrc$02                DATA

  Address         Publics by Value              Rva+Base       Lib:Object

 0000:00000000       ___arm64x_native_entrypoint 00000000     <absolute>
 0000:00000000       ___guard_longjmp_table     00000000     <absolute>
 0000:00000000       ___volatile_metadata       00000000     <absolute>
 0000:00000000       ___arm64x_extra_rfe_table  00000000     <absolute>
 0000:00000000       ___arm64x_redirection_metadata 00000000     <absolute>
 0000:00000000       ___guard_eh_cont_table     00000000     <absolute>
 0000:00000000       ___guard_eh_cont_count     00000000     <absolute>
 0000:00000000       ___guard_iat_count         00000000     <absolute>
 0000:00000000       __except_list              00000000     <absolute>
 0000:00000000       ___hybrid_code_map_count   00000000     <absolute>
 0000:00000000       ___x64_code_ranges_to_entry_points_count 00000000     <absolute>
 0000:00000000       ___x64_code_ranges_to_entry_points 00000000     <absolute>
 0000:00000000       ___guard_fids_count        00000000     <absolute>
 0000:00000000       ___guard_iat_table         00000000     <absolute>
 0000:00000000       ___hybrid_code_map         00000000     <absolute>
 0000:00000000       ___arm64x_extra_rfe_table_size 00000000     <absolute>
 0000:00000000       ___guard_longjmp_count     00000000     <absolute>
 0000:00000000       ___arm64x_redirection_metadata_count 00000000     <absolute>
 0000:00000000       ___hybrid_auxiliary_iat    00000000     <absolute>
 0000:00000000       ___dynamic_value_reloc_table 00000000     <absolute>
 0000:00000000       ___AbsoluteZero            00000000     <absolute>
 0000:00000000       ___enclave_config          00000000     <absolute>
 0000:00000000       ___guard_fids_table        00000000     <absolute>
 0000:00000007       ___safe_se_handler_count   00000007     <absolute>
 0000:0000002c       __tls_array                0000002c     <absolute>
 0000:00000100       ___guard_flags             00000100     <absolute>
 0000:00000000       ___ImageBase               10000000     <linker-defined>
 0001:00000080       ?DupWide@_CW@@AAEXXZ       10001080 f   CWString.obj
 0001:0000009c       ?cw_dup@@YGXPBDAAHAAPA_W1@Z 1000109c f   CWString.obj
 0001:00000124       ?cw_memcpy@@YGHPA_WPBDH@Z  10001124 f   CWString.obj
 0001:00000150       ?cw_strcpy@@YAHPA_WPBD@Z   10001150 f   CWString.obj
 0001:00000163       ?cw_strlen@@YAHPBD@Z       10001163 f   CWString.obj
 0001:0000017c       ??0CAtlComModule@ATL@@QAE@XZ 1000117c f i OposVariant.obj
 0001:000001c1       ??0CAtlWinModule@ATL@@QAE@XZ 100011c1 f i OposVariant.obj
 0001:000001f8       ??0OposDispParms@@QAE@PAVOposVariant@@H@Z 100011f8 f   OposVariant.obj
 0001:00000269       ??1OposDispParms@@QAE@XZ   10001269 f   OposVariant.obj
 0001:00000277       ??A?$CSimpleArray@GV?$CSimpleArrayEqualHelper@G@ATL@@@ATL@@QAEAAGH@Z 10001277 f i OposVariant.obj
 0001:0000029c       ??_Estringdispid@CComTypeInfoHolder@ATL@@QAEPAXI@Z 1000129c f i OposVariant.obj
 0001:00000308       ?AtlWinModuleInit@ATL@@YGJPAU_ATL_WIN_MODULE70@1@@Z 10001308 f i OposVariant.obj
 0001:0000032e       ?AtlWinModuleTerm@ATL@@YGJPAU_ATL_WIN_MODULE70@1@PAUHINSTANCE__@@@Z 1000132e f i OposVariant.obj
 0001:00000391       ?ChangeBSTR@OposVariant@@QAEXPAPA_WAAJ@Z 10001391 f   OposVariant.obj
 0001:000003d2       ?ChangeLONG@OposVariant@@QAEXPAJAAJ@Z 100013d2 f   OposVariant.obj
 0001:00000413       ?GetLONG@OposVariant@@QAEJXZ 10001413 f   OposVariant.obj
 0001:0000042e       ?Init@CComCriticalSection@ATL@@QAEJXZ 1000142e f i OposVariant.obj
 0001:00000456       ?RemoveAll@?$CSimpleArray@PAUHINSTANCE__@@V?$CSimpleArrayEqualHelper@PAUHINSTANCE__@@@ATL@@@ATL@@QAEXXZ 10001456 f i atls:atlbase.obj
 0001:00000456       ?RemoveAll@?$CSimpleArray@GV?$CSimpleArrayEqualHelper@G@ATL@@@ATL@@QAEXXZ 10001456 f i OposVariant.obj
 0001:00000473       ?SetBSTR@OposVariant@@QAEXPA_WAAJ@Z 10001473 f   OposVariant.obj
 0001:000004a7       ?SetBSTR_Copy@OposVariant@@QAEXPA_WAAJ@Z 100014a7 f   OposVariant.obj
 0001:000004f7       ?SetBSTR_InOutPtr@OposVariant@@QAE_NPAPA_WAAJ@Z 100014f7 f   OposVariant.obj
 0001:0000052e       ?SetDispatch_Ptr@OposVariant@@QAEXPAUIDispatch@@AAJ@Z 1000152e f   OposVariant.obj
 0001:00000569       ?SetLONG@OposVariant@@QAEXJ@Z 10001569 f   OposVariant.obj
 0001:0000058b       ?SetLONG_Ptr@OposVariant@@QAEXPAJAAJ@Z 1000158b f   OposVariant.obj
 0001:000005be       ?SetString@OposVariant@@QAEXPB_WAAJ@Z 100015be f   OposVariant.obj
 0001:00000604       ?SetVARIANT_BOOL@OposVariant@@QAEXF@Z 10001604 f   OposVariant.obj
 0001:0000062e       ?Term@CAtlComModule@ATL@@QAEXXZ 1000162e f i OposVariant.obj
 0001:00000678       ?_AtlRaiseException@ATL@@YAXKK@Z 10001678 f i OposVariant.obj
 0001:0000068d       ?CreateInstance@CComClassFactory@ATL@@UAGJPAUIUnknown@@ABU_GUID@@PAPAX@Z 1000168d f i POSPrinter.obj
 0001:000006cb       ?LockServer@CComClassFactory@ATL@@UAGJH@Z 100016cb f i POSPrinter.obj
 0001:000006ea       ??_ECComClassFactory@ATL@@UAEPAXI@Z 100016ea f i POSPrinter.obj
 0001:000006ea       ??_GCComClassFactory@ATL@@UAEPAXI@Z 100016ea f i POSPrinter.obj
 0001:00000715       ?Next@?$CComEnumImpl@UIEnumConnections@@$1?_GUID_b196b287_bab4_101a_b69c_00aa00341d07@@3U__s_GUID@@BUtagCONNECTDATA@@V?$_Copy@UtagCONNECTDATA@@@ATL@@@ATL@@UAGJKPAUtagCONNECTDATA@@PAK@Z 10001715 f i POSPrinter.obj
 0001:000007ec       ?Skip@?$CComEnumImpl@UIEnumConnections@@$1?_GUID_b196b287_bab4_101a_b69c_00aa00341d07@@3U__s_GUID@@BUtagCONNECTDATA@@V?$_Copy@UtagCONNECTDATA@@@ATL@@@ATL@@UAGJK@Z 100017ec f i POSPrinter.obj
 0001:00000819       ?Reset@?$CComEnumImpl@UIEnumConnectionPoints@@$1?_GUID_b196b285_bab4_101a_b69c_00aa00341d07@@3U__s_GUID@@BPAUIConnectionPoint@@V?$_CopyInterface@UIConnectionPoint@@@ATL@@@ATL@@UAGJXZ 10001819 f i POSPrinter.obj
 0001:00000819       ?Reset@?$CComEnumImpl@UIEnumConnections@@$1?_GUID_b196b287_bab4_101a_b69c_00aa00341d07@@3U__s_GUID@@BUtagCONNECTDATA@@V?$_Copy@UtagCONNECTDATA@@@ATL@@@ATL@@UAGJXZ 10001819 f i POSPrinter.obj
 0001:0000082b       ?Clone@?$CComEnumImpl@UIEnumConnections@@$1?_GUID_b196b287_bab4_101a_b69c_00aa00341d07@@3U__s_GUID@@BUtagCONNECTDATA@@V?$_Copy@UtagCONNECTDATA@@@ATL@@@ATL@@UAGJPAPAUIEnumConnections@@@Z 1000182b f i POSPrinter.obj
 0001:0000090c       ?AddRef@?$CComObject@V?$CComEnum@UIEnumConnectionPoints@@$1?_GUID_b196b285_bab4_101a_b69c_00aa00341d07@@3U__s_GUID@@BPAUIConnectionPoint@@V?$_CopyInterface@UIConnectionPoint@@@ATL@@VCComSingleThreadModel@6@@ATL@@@ATL@@UAGKXZ 1000190c f i POSPrinter.obj
 0001:0000090c       ?AddRef@?$CComObject@V?$CComEnum@UIEnumConnections@@$1?_GUID_b196b287_bab4_101a_b69c_00aa00341d07@@3U__s_GUID@@BUtagCONNECTDATA@@V?$_Copy@UtagCONNECTDATA@@@ATL@@VCComSingleThreadModel@6@@ATL@@@ATL@@UAGKXZ 1000190c f i POSPrinter.obj
 0001:0000091d       ?Release@?$CComObject@V?$CComEnum@UIEnumConnectionPoints@@$1?_GUID_b196b285_bab4_101a_b69c_00aa00341d07@@3U__s_GUID@@BPAUIConnectionPoint@@V?$_CopyInterface@UIConnectionPoint@@@ATL@@VCComSingleThreadModel@6@@ATL@@@ATL@@UAGKXZ 1000191d f i POSPrinter.obj
 0001:0000091d       ?Release@?$CComObject@V?$CComEnum@UIEnumConnections@@$1?_GUID_b196b287_bab4_101a_b69c_00aa00341d07@@3U__s_GUID@@BUtagCONNECTDATA@@V?$_Copy@UtagCONNECTDATA@@@ATL@@VCComSingleThreadModel@6@@ATL@@@ATL@@UAGKXZ 1000191d f i POSPrinter.obj
 0001:00000959       ?QueryInterface@?$CComObject@V?$CComEnum@UIEnumConnections@@$1?_GUID_b196b287_bab4_101a_b69c_00aa00341d07@@3U__s_GUID@@BUtagCONNECTDATA@@V?$_Copy@UtagCONNECTDATA@@@ATL@@VCComSingleThreadModel@6@@ATL@@@ATL@@UAGJABU_GUID@@PAPAX@Z 10001959 f i POSPrinter.obj
 0001:00000973       ??_G?$CComObject@V?$CComEnum@UIEnumConnections@@$1?_GUID_b196b287_bab4_101a_b69c_00aa00341d07@@3U__s_GUID@@BUtagCONNECTDATA@@V?$_Copy@UtagCONNECTDATA@@@ATL@@VCComSingleThreadModel@6@@ATL@@@ATL@@UAEPAXI@Z 10001973 f i POSPrinter.obj
 0001:00000973       ??_E?$CComObject@V?$CComEnum@UIEnumConnections@@$1?_GUID_b196b287_bab4_101a_b69c_00aa00341d07@@3U__s_GUID@@BUtagCONNECTDATA@@V?$_Copy@UtagCONNECTDATA@@@ATL@@VCComSingleThreadModel@6@@ATL@@@ATL@@UAEPAXI@Z 10001973 f i POSPrinter.obj
 0001:00000995       ?GetWindowProc@?$CWindowImplBaseT@VCWindow@ATL@@V?$CWinTraits@$0FGAAAAAA@$0A@@2@@ATL@@UAEP6GJPAUHWND__@@IIJ@ZXZ 10001995 f i POSPrinter.obj
 0001:0000099b       ?StartWindowProc@?$CWindowImplBaseT@VCWindow@ATL@@V?$CWinTraits@$0FGAAAAAA@$0A@@2@@ATL@@SGJPAUHWND__@@IIJ@Z 1000199b f i POSPrinter.obj
 0001:000009ef       ?ObjectMain@CComObjectRootBase@ATL@@SGX_N@Z 100019ef f i POSPrinter.obj
 0001:000009ef       ?OnFinalMessage@?$CWindowImplBaseT@VCWindow@ATL@@V?$CWinTraits@$0FGAAAAAA@$0A@@2@@ATL@@UAEXPAUHWND__@@@Z 100019ef f i POSPrinter.obj
 0001:000009f2       ??_E?$CComObject@VCOPOSPOSPrinter@@@ATL@@W3AEPAXI@Z 100019f2 f i POSPrinter.obj
 0001:000009fa       ??_E?$CComObject@VCOPOSPOSPrinter@@@ATL@@WEM@AEPAXI@Z 100019fa f i POSPrinter.obj
 0001:00000a02       ?QueryInterface@?$CComObject@VCOPOSPOSPrinter@@@ATL@@WHA@AGJABU_GUID@@PAPAX@Z 10001a02 f i POSPrinter.obj
 0001:00000a0c       ?AddRef@?$CComObject@VCOPOSPOSPrinter@@@ATL@@WHA@AGKXZ 10001a0c f i POSPrinter.obj
 0001:00000a16       ?Release@?$CComObject@VCOPOSPOSPrinter@@@ATL@@WHA@AGKXZ 10001a16 f i POSPrinter.obj
 0001:00000a20       ?QueryInterface@?$CComObject@VCOPOSPOSPrinter@@@ATL@@WHE@AGJABU_GUID@@PAPAX@Z 10001a20 f i POSPrinter.obj
 0001:00000a2a       ?AddRef@?$CComObject@VCOPOSPOSPrinter@@@ATL@@WHE@AGKXZ 10001a2a f i POSPrinter.obj
 0001:00000a34       ?Release@?$CComObject@VCOPOSPOSPrinter@@@ATL@@WHE@AGKXZ 10001a34 f i POSPrinter.obj
 0001:00000a3e       ?QueryInterface@?$CComObject@VCOPOSPOSPrinter@@@ATL@@WHI@AGJABU_GUID@@PAPAX@Z 10001a3e f i POSPrinter.obj
 0001:00000a48       ?AddRef@?$CComObject@VCOPOSPOSPrinter@@@ATL@@WHI@AGKXZ 10001a48 f i POSPrinter.obj
 0001:00000a52       ?Release@?$CComObject@VCOPOSPOSPrinter@@@ATL@@WHI@AGKXZ 10001a52 f i POSPrinter.obj
 0001:00000a5c       ?QueryInterface@?$CComObject@VCOPOSPOSPrinter@@@ATL@@WHM@AGJABU_GUID@@PAPAX@Z 10001a5c f i POSPrinter.obj
 0001:00000a66       ?AddRef@?$CComObject@VCOPOSPOSPrinter@@@ATL@@WHM@AGKXZ 10001a66 f i POSPrinter.obj
 0001:00000a70       ?Release@?$CComObject@VCOPOSPOSPrinter@@@ATL@@WHM@AGKXZ 10001a70 f i POSPrinter.obj
 0001:00000a7a       ?QueryInterface@?$CComObject@VCOPOSPOSPrinter@@@ATL@@WIA@AGJABU_GUID@@PAPAX@Z 10001a7a f i POSPrinter.obj
 0001:00000a87       ?AddRef@?$CComObject@VCOPOSPOSPrinter@@@ATL@@WIA@AGKXZ 10001a87 f i POSPrinter.obj
 0001:00000a94       ?Release@?$CComObject@VCOPOSPOSPrinter@@@ATL@@WIA@AGKXZ 10001a94 f i POSPrinter.obj
 0001:00000aa1       ?QueryInterface@?$CComObject@VCOPOSPOSPrinter@@@ATL@@WIE@AGJABU_GUID@@PAPAX@Z 10001aa1 f i POSPrinter.obj
 0001:00000aae       ?AddRef@?$CComObject@VCOPOSPOSPrinter@@@ATL@@WIE@AGKXZ 10001aae f i POSPrinter.obj
 0001:00000abb       ?Release@?$CComObject@VCOPOSPOSPrinter@@@ATL@@WIE@AGKXZ 10001abb f i POSPrinter.obj
 0001:00000ac8       ?QueryInterface@?$CComObject@VCOPOSPOSPrinter@@@ATL@@WII@AGJABU_GUID@@PAPAX@Z 10001ac8 f i POSPrinter.obj
 0001:00000ad5       ?AddRef@?$CComObject@VCOPOSPOSPrinter@@@ATL@@WII@AGKXZ 10001ad5 f i POSPrinter.obj
 0001:00000ae2       ?Release@?$CComObject@VCOPOSPOSPrinter@@@ATL@@WII@AGKXZ 10001ae2 f i POSPrinter.obj
 0001:00000aef       ?QueryInterface@?$CComObject@VCOPOSPOSPrinter@@@ATL@@WIM@AGJABU_GUID@@PAPAX@Z 10001aef f i POSPrinter.obj
 0001:00000afc       ?AddRef@?$CComObject@VCOPOSPOSPrinter@@@ATL@@WIM@AGKXZ 10001afc f i POSPrinter.obj
 0001:00000b09       ?Release@?$CComObject@VCOPOSPOSPrinter@@@ATL@@WIM@AGKXZ 10001b09 f i POSPrinter.obj
 0001:00000b16       ?QueryInterface@?$CComObject@VCOPOSPOSPrinter@@@ATL@@WJA@AGJABU_GUID@@PAPAX@Z 10001b16 f i POSPrinter.obj
 0001:00000b23       ?AddRef@?$CComObject@VCOPOSPOSPrinter@@@ATL@@WJA@AGKXZ 10001b23 f i POSPrinter.obj
 0001:00000b30       ?Release@?$CComObject@VCOPOSPOSPrinter@@@ATL@@WJA@AGKXZ 10001b30 f i POSPrinter.obj
 0001:00000b3d       ?QueryInterface@?$CComObject@VCOPOSPOSPrinter@@@ATL@@WJE@AGJABU_GUID@@PAPAX@Z 10001b3d f i POSPrinter.obj
 0001:00000b4a       ?AddRef@?$CComObject@VCOPOSPOSPrinter@@@ATL@@WJE@AGKXZ 10001b4a f i POSPrinter.obj
 0001:00000b57       ?Release@?$CComObject@VCOPOSPOSPrinter@@@ATL@@WJE@AGKXZ 10001b57 f i POSPrinter.obj
 0001:00000b64       ?QueryInterface@?$CComObject@VCOPOSPOSPrinter@@@ATL@@WJI@AGJABU_GUID@@PAPAX@Z 10001b64 f i POSPrinter.obj
 0001:00000b71       ?AddRef@?$CComObject@VCOPOSPOSPrinter@@@ATL@@WJI@AGKXZ 10001b71 f i POSPrinter.obj
 0001:00000b7e       ?Release@?$CComObject@VCOPOSPOSPrinter@@@ATL@@WJI@AGKXZ 10001b7e f i POSPrinter.obj
 0001:00000b8b       ?QueryInterface@?$CComObject@VCOPOSPOSPrinter@@@ATL@@WJM@AGJABU_GUID@@PAPAX@Z 10001b8b f i POSPrinter.obj
 0001:00000b98       ?AddRef@?$CComObject@VCOPOSPOSPrinter@@@ATL@@WJM@AGKXZ 10001b98 f i POSPrinter.obj
 0001:00000ba5       ?Release@?$CComObject@VCOPOSPOSPrinter@@@ATL@@WJM@AGKXZ 10001ba5 f i POSPrinter.obj
 0001:00000bb2       ?QueryInterface@?$CComObject@VCOPOSPOSPrinter@@@ATL@@WKA@AGJABU_GUID@@PAPAX@Z 10001bb2 f i POSPrinter.obj
 0001:00000bbf       ?AddRef@?$CComObject@VCOPOSPOSPrinter@@@ATL@@WKA@AGKXZ 10001bbf f i POSPrinter.obj
 0001:00000bcc       ?Release@?$CComObject@VCOPOSPOSPrinter@@@ATL@@WKA@AGKXZ 10001bcc f i POSPrinter.obj
 0001:00000bd9       ?AddRef@?$CComObject@VCOPOSPOSPrinter@@@ATL@@WKI@AGKXZ 10001bd9 f i POSPrinter.obj
 0001:00000be6       ?Release@?$CComObject@VCOPOSPOSPrinter@@@ATL@@WKI@AGKXZ 10001be6 f i POSPrinter.obj
 0001:00000bf3       ?AddRef@?$CComObject@VCOPOSPOSPrinter@@@ATL@@WLE@AGKXZ 10001bf3 f i POSPrinter.obj
 0001:00000c00       ?Release@?$CComObject@VCOPOSPOSPrinter@@@ATL@@WLE@AGKXZ 10001c00 f i POSPrinter.obj
 0001:00000c0d       ??_E?$CComContainedObject@VCOPOSPOSPrinter@@@ATL@@W3AEPAXI@Z 10001c0d f i POSPrinter.obj
 0001:00000c15       ??_E?$CComContainedObject@VCOPOSPOSPrinter@@@ATL@@WEM@AEPAXI@Z 10001c15 f i POSPrinter.obj
 0001:00000c1d       ?QueryInterface@?$CComContainedObject@VCOPOSPOSPrinter@@@ATL@@WHA@AGJABU_GUID@@PAPAX@Z 10001c1d f i POSPrinter.obj
 0001:00000c27       ?AddRef@?$CComContainedObject@VCOPOSPOSPrinter@@@ATL@@WHA@AGKXZ 10001c27 f i POSPrinter.obj
 0001:00000c31       ?Release@?$CComContainedObject@VCOPOSPOSPrinter@@@ATL@@WHA@AGKXZ 10001c31 f i POSPrinter.obj
 0001:00000c3b       ?QueryInterface@?$CComContainedObject@VCOPOSPOSPrinter@@@ATL@@WHE@AGJABU_GUID@@PAPAX@Z 10001c3b f i POSPrinter.obj
 0001:00000c45       ?AddRef@?$CComContainedObject@VCOPOSPOSPrinter@@@ATL@@WHE@AGKXZ 10001c45 f i POSPrinter.obj
 0001:00000c4f       ?Release@?$CComContainedObject@VCOPOSPOSPrinter@@@ATL@@WHE@AGKXZ 10001c4f f i POSPrinter.obj
 0001:00000c59       ?QueryInterface@?$CComContainedObject@VCOPOSPOSPrinter@@@ATL@@WHI@AGJABU_GUID@@PAPAX@Z 10001c59 f i POSPrinter.obj
 0001:00000c63       ?AddRef@?$CComContainedObject@VCOPOSPOSPrinter@@@ATL@@WHI@AGKXZ 10001c63 f i POSPrinter.obj
 0001:00000c6d       ?Release@?$CComContainedObject@VCOPOSPOSPrinter@@@ATL@@WHI@AGKXZ 10001c6d f i POSPrinter.obj
 0001:00000c77       ?QueryInterface@?$CComContainedObject@VCOPOSPOSPrinter@@@ATL@@WHM@AGJABU_GUID@@PAPAX@Z 10001c77 f i POSPrinter.obj
 0001:00000c81       ?AddRef@?$CComContainedObject@VCOPOSPOSPrinter@@@ATL@@WHM@AGKXZ 10001c81 f i POSPrinter.obj
 0001:00000c8b       ?Release@?$CComContainedObject@VCOPOSPOSPrinter@@@ATL@@WHM@AGKXZ 10001c8b f i POSPrinter.obj
 0001:00000c95       ?QueryInterface@?$CComContainedObject@VCOPOSPOSPrinter@@@ATL@@WIA@AGJABU_GUID@@PAPAX@Z 10001c95 f i POSPrinter.obj
 0001:00000ca2       ?AddRef@?$CComContainedObject@VCOPOSPOSPrinter@@@ATL@@WIA@AGKXZ 10001ca2 f i POSPrinter.obj
 0001:00000caf       ?Release@?$CComContainedObject@VCOPOSPOSPrinter@@@ATL@@WIA@AGKXZ 10001caf f i POSPrinter.obj
 0001:00000cbc       ?QueryInterface@?$CComContainedObject@VCOPOSPOSPrinter@@@ATL@@WIE@AGJABU_GUID@@PAPAX@Z 10001cbc f i POSPrinter.obj
 0001:00000cc9       ?AddRef@?$CComContainedObject@VCOPOSPOSPrinter@@@ATL@@WIE@AGKXZ 10001cc9 f i POSPrinter.obj
 0001:00000cd6       ?Release@?$CComContainedObject@VCOPOSPOSPrinter@@@ATL@@WIE@AGKXZ 10001cd6 f i POSPrinter.obj
 0001:00000ce3       ?QueryInterface@?$CComContainedObject@VCOPOSPOSPrinter@@@ATL@@WII@AGJABU_GUID@@PAPAX@Z 10001ce3 f i POSPrinter.obj
 0001:00000cf0       ?AddRef@?$CComContainedObject@VCOPOSPOSPrinter@@@ATL@@WII@AGKXZ 10001cf0 f i POSPrinter.obj
 0001:00000cfd       ?Release@?$CComContainedObject@VCOPOSPOSPrinter@@@ATL@@WII@AGKXZ 10001cfd f i POSPrinter.obj
 0001:00000d0a       ?QueryInterface@?$CComContainedObject@VCOPOSPOSPrinter@@@ATL@@WIM@AGJABU_GUID@@PAPAX@Z 10001d0a f i POSPrinter.obj
 0001:00000d17       ?AddRef@?$CComContainedObject@VCOPOSPOSPrinter@@@ATL@@WIM@AGKXZ 10001d17 f i POSPrinter.obj
 0001:00000d24       ?Release@?$CComContainedObject@VCOPOSPOSPrinter@@@ATL@@WIM@AGKXZ 10001d24 f i POSPrinter.obj
 0001:00000d31       ?QueryInterface@?$CComContainedObject@VCOPOSPOSPrinter@@@ATL@@WJA@AGJABU_GUID@@PAPAX@Z 10001d31 f i POSPrinter.obj
 0001:00000d3e       ?AddRef@?$CComContainedObject@VCOPOSPOSPrinter@@@ATL@@WJA@AGKXZ 10001d3e f i POSPrinter.obj
 0001:00000d4b       ?Release@?$CComContainedObject@VCOPOSPOSPrinter@@@ATL@@WJA@AGKXZ 10001d4b f i POSPrinter.obj
 0001:00000d58       ?QueryInterface@?$CComContainedObject@VCOPOSPOSPrinter@@@ATL@@WJE@AGJABU_GUID@@PAPAX@Z 10001d58 f i POSPrinter.obj
 0001:00000d65       ?AddRef@?$CComContainedObject@VCOPOSPOSPrinter@@@ATL@@WJE@AGKXZ 10001d65 f i POSPrinter.obj
 0001:00000d72       ?Release@?$CComContainedObject@VCOPOSPOSPrinter@@@ATL@@WJE@AGKXZ 10001d72 f i POSPrinter.obj
 0001:00000d7f       ?QueryInterface@?$CComContainedObject@VCOPOSPOSPrinter@@@ATL@@WJI@AGJABU_GUID@@PAPAX@Z 10001d7f f i POSPrinter.obj
 0001:00000d8c       ?AddRef@?$CComContainedObject@VCOPOSPOSPrinter@@@ATL@@WJI@AGKXZ 10001d8c f i POSPrinter.obj
 0001:00000d99       ?Release@?$CComContainedObject@VCOPOSPOSPrinter@@@ATL@@WJI@AGKXZ 10001d99 f i POSPrinter.obj
 0001:00000da6       ?QueryInterface@?$CComContainedObject@VCOPOSPOSPrinter@@@ATL@@WJM@AGJABU_GUID@@PAPAX@Z 10001da6 f i POSPrinter.obj
 0001:00000db3       ?AddRef@?$CComContainedObject@VCOPOSPOSPrinter@@@ATL@@WJM@AGKXZ 10001db3 f i POSPrinter.obj
 0001:00000dc0       ?Release@?$CComContainedObject@VCOPOSPOSPrinter@@@ATL@@WJM@AGKXZ 10001dc0 f i POSPrinter.obj
 0001:00000dcd       ?QueryInterface@?$CComContainedObject@VCOPOSPOSPrinter@@@ATL@@WKA@AGJABU_GUID@@PAPAX@Z 10001dcd f i POSPrinter.obj
 0001:00000dda       ?AddRef@?$CComContainedObject@VCOPOSPOSPrinter@@@ATL@@WKA@AGKXZ 10001dda f i POSPrinter.obj
 0001:00000de7       ?Release@?$CComContainedObject@VCOPOSPOSPrinter@@@ATL@@WKA@AGKXZ 10001de7 f i POSPrinter.obj
 0001:00000df4       ?AddRef@?$CComContainedObject@VCOPOSPOSPrinter@@@ATL@@WKI@AGKXZ 10001df4 f i POSPrinter.obj
 0001:00000e01       ?Release@?$CComContainedObject@VCOPOSPOSPrinter@@@ATL@@WKI@AGKXZ 10001e01 f i POSPrinter.obj
 0001:00000e0e       ?AddRef@?$CComContainedObject@VCOPOSPOSPrinter@@@ATL@@WLE@AGKXZ 10001e0e f i POSPrinter.obj
 0001:00000e1b       ?Release@?$CComContainedObject@VCOPOSPOSPrinter@@@ATL@@WLE@AGKXZ 10001e1b f i POSPrinter.obj
 0001:00000e28       ?Lock@CAtlModule@ATL@@UAEJXZ 10001e28 f i POSPrinter.obj
 0001:00000e32       ?Unlock@CAtlModule@ATL@@UAEJXZ 10001e32 f i POSPrinter.obj
 0001:00000e3c       ?GetLockCount@CAtlModule@ATL@@UAEJXZ 10001e3c f i POSPrinter.obj
 0001:00000e40       ?GetGITPtr@CAtlModule@ATL@@UAEJPAPAUIGlobalInterfaceTable@@@Z 10001e40 f i POSPrinter.obj
 0001:00000e8c       ?GetTypeInfoCount@?$IDispatchImpl@UIOPOSPOSPrinter@@$1?IID_IOPOSPOSPrinter@@3U_GUID@@B$1?LIBID_OposPOSPrinter_CCO@@3U3@B$00$0A@VCComTypeInfoHolder@ATL@@@ATL@@UAGJPAI@Z 10001e8c f i POSPrinter.obj
 0001:00000ea9       ?GetTypeInfo@?$IDispatchImpl@UIOPOSPOSPrinter@@$1?IID_IOPOSPOSPrinter@@3U_GUID@@B$1?LIBID_OposPOSPrinter_CCO@@3U3@B$00$0A@VCComTypeInfoHolder@ATL@@@ATL@@UAGJIKPAPAUITypeInfo@@@Z 10001ea9 f i POSPrinter.obj
 0001:00000ecd       ?AddCommonRGSReplacements@?$CAtlModuleT@VCComModule@ATL@@@ATL@@UAEJPAUIRegistrarBase@@@Z 10001ecd f i POSPrinter.obj
 0001:00000ee7       ?GetIDsOfNames@?$IDispatchImpl@UIOPOSPOSPrinter@@$1?IID_IOPOSPOSPrinter@@3U_GUID@@B$1?LIBID_OposPOSPrinter_CCO@@3U3@B$00$0A@VCComTypeInfoHolder@ATL@@@ATL@@UAGJABU_GUID@@PAPA_WIKPAJ@Z 10001ee7 f i POSPrinter.obj
 0001:00000f07       ?Invoke@?$IDispatchImpl@UIOPOSPOSPrinter@@$1?IID_IOPOSPOSPrinter@@3U_GUID@@B$1?LIBID_OposPOSPrinter_CCO@@3U3@B$00$0A@VCComTypeInfoHolder@ATL@@@ATL@@UAGJJABU_GUID@@KGPAUtagDISPPARAMS@@PAUtagVARIANT@@PAUtagEXCEPINFO@@PAI@Z 10001f07 f i POSPrinter.obj
 0001:00000f15       ?CreateControlWindow@?$CComControl@VCOPOSPOSPrinter@@V?$CWindowImpl@VCOPOSPOSPrinter@@VCWindow@ATL@@V?$CWinTraits@$0FGAAAAAA@$0A@@3@@ATL@@@ATL@@UAEPAUHWND__@@PAU3@AAUtagRECT@@@Z 10001f15 f i POSPrinter.obj
 0001:00000f44       ?ControlQueryInterface@?$CComControl@VCOPOSPOSPrinter@@V?$CWindowImpl@VCOPOSPOSPrinter@@VCWindow@ATL@@V?$CWinTraits@$0FGAAAAAA@$0A@@3@@ATL@@@ATL@@UAEJABU_GUID@@PAPAX@Z 10001f44 f i POSPrinter.obj
 0001:00000f5f       ?UpdateRegistryFromResourceD@CComModule@ATL@@UAGJPB_WHPAU_ATL_REGMAP_ENTRY@2@@Z 10001f5f f i POSPrinter.obj
 0001:00000f5f       ?UpdateRegistryFromResourceD@CComModule@ATL@@UAGJIHPAU_ATL_REGMAP_ENTRY@2@@Z 10001f5f f i POSPrinter.obj
 0001:00000f67       ?UpdateRegistryFromResource@CComModule@ATL@@UAGJPB_WHPAU_ATL_REGMAP_ENTRY@2@@Z 10001f67 f i POSPrinter.obj
 0001:00000f70       ?UpdateRegistryFromResource@CComModule@ATL@@UAGJIHPAU_ATL_REGMAP_ENTRY@2@@Z 10001f70 f i POSPrinter.obj
 0001:00000f79       ?GetClassID@?$IPersistStreamInitImpl@VCOPOSPOSPrinter@@@ATL@@UAGJPAU_GUID@@@Z 10001f79 f i POSPrinter.obj
 0001:00000f79       ?GetClassID@?$IPersistStorageImpl@VCOPOSPOSPrinter@@@ATL@@UAGJPAU_GUID@@@Z 10001f79 f i POSPrinter.obj
 0001:00000f79       ?GetUserClassID@?$IOleObjectImpl@VCOPOSPOSPrinter@@@ATL@@UAGJPAU_GUID@@@Z 10001f79 f i POSPrinter.obj
 0001:00000f9d       ?IsDirty@?$IPersistStreamInitImpl@VCOPOSPOSPrinter@@@ATL@@UAGJXZ 10001f9d f i POSPrinter.obj
 0001:00000fbc       ?Load@?$IPersistStreamInitImpl@VCOPOSPOSPrinter@@@ATL@@UAGJPAUIStream@@@Z 10001fbc f i POSPrinter.obj
 0001:00000fdb       ?Save@?$IPersistStreamInitImpl@VCOPOSPOSPrinter@@@ATL@@UAGJPAUIStream@@H@Z 10001fdb f i POSPrinter.obj
 0001:00000ffd       ?GetSizeMax@?$IPersistStreamInitImpl@VCOPOSPOSPrinter@@@ATL@@UAGJPAT_ULARGE_INTEGER@@@Z 10001ffd f i POSPrinter.obj
 0001:000011dc       ?InitNew@?$IPersistStreamInitImpl@VCOPOSPOSPrinter@@@ATL@@UAGJXZ 100021dc f i POSPrinter.obj
 0001:000011f9       ?ContextSensitiveHelp@?$IOleInPlaceObjectWindowlessImpl@VCOPOSPOSPrinter@@@ATL@@UAGJH@Z 100021f9 f i POSPrinter.obj
 0001:000011f9       ?GetControlInfo@?$IOleControlImpl@VCOPOSPOSPrinter@@@ATL@@UAGJPAUtagCONTROLINFO@@@Z 100021f9 f i POSPrinter.obj
 0001:000011f9       ?GetDropTarget@?$IOleInPlaceObjectWindowlessImpl@VCOPOSPOSPrinter@@@ATL@@UAGJPAPAUIDropTarget@@@Z 100021f9 f i POSPrinter.obj
 0001:000011f9       ?QueryGetData@?$IDataObjectImpl@VCOPOSPOSPrinter@@@ATL@@UAGJPAUtagFORMATETC@@@Z 100021f9 f i POSPrinter.obj
 0001:000011f9       ?SetColorScheme@?$IOleObjectImpl@VCOPOSPOSPrinter@@@ATL@@UAGJPAUtagLOGPALETTE@@@Z 100021f9 f i POSPrinter.obj
 0001:000011f9       ?ContextSensitiveHelp@?$IOleInPlaceActiveObjectImpl@VCOPOSPOSPrinter@@@ATL@@UAGJH@Z 100021f9 f i POSPrinter.obj
 0001:000011f9       ?Unfreeze@?$IViewObjectExImpl@VCOPOSPOSPrinter@@@ATL@@UAGJK@Z 100021f9 f i POSPrinter.obj
 0001:000011f9       ?SODataDummy@COPOSPOSPrinter@@MAGJJ@Z 100021f9 f i POSPrinter.obj
 0001:000011f9       ?OnMnemonic@?$IOleControlImpl@VCOPOSPOSPrinter@@@ATL@@UAGJPAUtagMSG@@@Z 100021f9 f i POSPrinter.obj
 0001:00001201       ?OnAmbientPropertyChange@?$IOleControlImpl@VCOPOSPOSPrinter@@@ATL@@UAGJJ@Z 10002201 f i POSPrinter.obj
 0001:00001201       ?OnFrameWindowActivate@?$IOleInPlaceActiveObjectImpl@VCOPOSPOSPrinter@@@ATL@@UAGJH@Z 10002201 f i POSPrinter.obj
 0001:00001201       ?EnableModeless@?$IOleInPlaceActiveObjectImpl@VCOPOSPOSPrinter@@@ATL@@UAGJH@Z 10002201 f i POSPrinter.obj
 0001:00001201       ?SaveCompleted@?$IPersistStorageImpl@VCOPOSPOSPrinter@@@ATL@@UAGJPAUIStorage@@@Z 10002201 f i POSPrinter.obj
 0001:00001206       ?SetClientSite@?$IOleObjectImpl@VCOPOSPOSPrinter@@@ATL@@UAGJPAUIOleClientSite@@@Z 10002206 f i POSPrinter.obj
 0001:00001223       ?GetClientSite@?$IOleObjectImpl@VCOPOSPOSPrinter@@@ATL@@UAGJPAPAUIOleClientSite@@@Z 10002223 f i POSPrinter.obj
 0001:00001240       ?SetHostNames@?$IOleObjectImpl@VCOPOSPOSPrinter@@@ATL@@UAGJPB_W0@Z 10002240 f i POSPrinter.obj
 0001:00001245       ?Close@?$IOleObjectImpl@VCOPOSPOSPrinter@@@ATL@@UAGJK@Z 10002245 f i POSPrinter.obj
 0001:00001262       ??_GCComModule@ATL@@UAEPAXI@Z 10002262 f i POSPrinter.obj
 0001:00001262       ??_ECComModule@ATL@@UAEPAXI@Z 10002262 f i POSPrinter.obj
 0001:0000128a       ?GetDataHere@?$IDataObjectImpl@VCOPOSPOSPrinter@@@ATL@@UAGJPAUtagFORMATETC@@PAUtagSTGMEDIUM@@@Z 1000228a f i POSPrinter.obj
 0001:0000128a       ?EnumFormatEtc@?$IDataObjectImpl@VCOPOSPOSPrinter@@@ATL@@UAGJKPAPAUIEnumFORMATETC@@@Z 1000228a f i POSPrinter.obj
 0001:0000128a       ?GetClipboardData@?$IOleObjectImpl@VCOPOSPOSPrinter@@@ATL@@UAGJKPAPAUIDataObject@@@Z 1000228a f i POSPrinter.obj
 0001:0000128a       ?GetRect@?$IViewObjectExImpl@VCOPOSPOSPrinter@@@ATL@@UAGJKPAU_RECTL@@@Z 1000228a f i POSPrinter.obj
 0001:0000128a       ?SetMoniker@?$IOleObjectImpl@VCOPOSPOSPrinter@@@ATL@@UAGJKPAUIMoniker@@@Z 1000228a f i POSPrinter.obj
 0001:0000128a       ?QueryInterface@CRegObject@ATL@@UAGJABU_GUID@@PAPAX@Z 1000228a f i POSPrinter.obj
 0001:0000128a       ?GetCanonicalFormatEtc@?$IDataObjectImpl@VCOPOSPOSPrinter@@@ATL@@UAGJPAUtagFORMATETC@@0@Z 1000228a f i POSPrinter.obj
 0001:00001292       ?SetData@?$IDataObjectImpl@VCOPOSPOSPrinter@@@ATL@@UAGJPAUtagFORMATETC@@PAUtagSTGMEDIUM@@H@Z 10002292 f i POSPrinter.obj
 0001:00001292       ?GetMoniker@?$IOleObjectImpl@VCOPOSPOSPrinter@@@ATL@@UAGJKKPAPAUIMoniker@@@Z 10002292 f i POSPrinter.obj
 0001:00001292       ?InitFromData@?$IOleObjectImpl@VCOPOSPOSPrinter@@@ATL@@UAGJPAUIDataObject@@HK@Z 10002292 f i POSPrinter.obj
 0001:0000129a       ?DoVerb@?$IOleObjectImpl@VCOPOSPOSPrinter@@@ATL@@UAGJJPAUtagMSG@@PAUIOleClientSite@@JPAUHWND__@@PBUtagRECT@@@Z 1000229a f i POSPrinter.obj
 0001:0000138e       ?EnumVerbs@?$IOleObjectImpl@VCOPOSPOSPrinter@@@ATL@@UAGJPAPAUIEnumOLEVERB@@@Z 1000238e f i POSPrinter.obj
 0001:000013b0       ?IsUpToDate@?$IOleObjectImpl@VCOPOSPOSPrinter@@@ATL@@UAGJXZ 100023b0 f i POSPrinter.obj
 0001:000013b0       ?HandsOffStorage@?$IPersistStorageImpl@VCOPOSPOSPrinter@@@ATL@@UAGJXZ 100023b0 f i POSPrinter.obj
 0001:000013b0       ?Release@CRegObject@ATL@@UAGKXZ 100023b0 f i POSPrinter.obj
 0001:000013b0       ?Update@?$IOleObjectImpl@VCOPOSPOSPrinter@@@ATL@@UAGJXZ 100023b0 f i POSPrinter.obj
 0001:000013b5       ?GetUserType@?$IOleObjectImpl@VCOPOSPOSPrinter@@@ATL@@UAGJKPAPA_W@Z 100023b5 f i POSPrinter.obj
 0001:000013cd       ?SetExtent@?$IOleObjectImpl@VCOPOSPOSPrinter@@@ATL@@UAGJKPAUtagSIZE@@@Z 100023cd f i POSPrinter.obj
 0001:000013ed       ?GetExtent@?$IOleObjectImpl@VCOPOSPOSPrinter@@@ATL@@UAGJKPAUtagSIZE@@@Z 100023ed f i POSPrinter.obj
 0001:0000142b       ?Advise@?$IOleObjectImpl@VCOPOSPOSPrinter@@@ATL@@UAGJPAUIAdviseSink@@PAK@Z 1000242b f i POSPrinter.obj
 0001:0000144b       ?Unadvise@?$IOleObjectImpl@VCOPOSPOSPrinter@@@ATL@@UAGJK@Z 1000244b f i POSPrinter.obj
 0001:0000147a       ?EnumAdvise@?$IOleObjectImpl@VCOPOSPOSPrinter@@@ATL@@UAGJPAPAUIEnumSTATDATA@@@Z 1000247a f i POSPrinter.obj
 0001:000014ba       ?GetMiscStatus@?$IOleObjectImpl@VCOPOSPOSPrinter@@@ATL@@UAGJKPAK@Z 100024ba f i POSPrinter.obj
 0001:000014d2       ?GetWindow@?$IOleInPlaceActiveObjectImpl@VCOPOSPOSPrinter@@@ATL@@UAGJPAPAUHWND__@@@Z 100024d2 f i POSPrinter.obj
 0001:0000151f       ?TranslateAcceleratorW@?$IOleInPlaceActiveObjectImpl@VCOPOSPOSPrinter@@@ATL@@UAGJPAUtagMSG@@@Z 1000251f f i POSPrinter.obj
 0001:000015cd       ?OnDocWindowActivate@?$IOleInPlaceActiveObjectImpl@VCOPOSPOSPrinter@@@ATL@@UAGJH@Z 100025cd f i POSPrinter.obj
 0001:000015ef       ?ResizeBorder@?$IOleInPlaceActiveObjectImpl@VCOPOSPOSPrinter@@@ATL@@UAGJPBUtagRECT@@PAUIOleInPlaceUIWindow@@H@Z 100025ef f i POSPrinter.obj
 0001:000015f4       ?Draw@?$IViewObjectExImpl@VCOPOSPOSPrinter@@@ATL@@UAGJKJPAXPAUtagDVTARGETDEVICE@@PAUHDC__@@2PBU_RECTL@@3P6GHK@ZK@Z 100025f4 f i POSPrinter.obj
 0001:00001626       ?GetColorSet@?$IViewObjectExImpl@VCOPOSPOSPrinter@@@ATL@@UAGJKJPAXPAUtagDVTARGETDEVICE@@PAUHDC__@@PAPAUtagLOGPALETTE@@@Z 10002626 f i POSPrinter.obj
 0001:0000162e       ?Freeze@?$IViewObjectExImpl@VCOPOSPOSPrinter@@@ATL@@UAGJKJPAXPAK@Z 1000262e f i POSPrinter.obj
 0001:00001636       ?SetAdvise@?$IViewObjectExImpl@VCOPOSPOSPrinter@@@ATL@@UAGJKKPAUIAdviseSink@@@Z 10002636 f i POSPrinter.obj
 0001:00001655       ?GetAdvise@?$IViewObjectExImpl@VCOPOSPOSPrinter@@@ATL@@UAGJPAK0PAPAUIAdviseSink@@@Z 10002655 f i POSPrinter.obj
 0001:0000168a       ?GetExtent@?$IViewObjectExImpl@VCOPOSPOSPrinter@@@ATL@@UAGJKJPAUtagDVTARGETDEVICE@@PAUtagSIZE@@@Z 1000268a f i POSPrinter.obj
 0001:000016bb       ?GetViewStatus@?$IViewObjectExImpl@VCOPOSPOSPrinter@@@ATL@@UAGJPAK@Z 100026bb f i POSPrinter.obj
 0001:000016d8       ?QueryHitPoint@?$IViewObjectExImpl@VCOPOSPOSPrinter@@@ATL@@UAGJKPBUtagRECT@@UtagPOINT@@JPAK@Z 100026d8 f i POSPrinter.obj
 0001:00001719       ?QueryHitRect@?$IViewObjectExImpl@VCOPOSPOSPrinter@@@ATL@@UAGJKPBUtagRECT@@0JPAK@Z 10002719 f i POSPrinter.obj
 0001:00001774       ?GetNaturalExtent@?$IViewObjectExImpl@VCOPOSPOSPrinter@@@ATL@@UAGJKJPAUtagDVTARGETDEVICE@@PAUHDC__@@PAUtagExtentInfo@@PAUtagSIZE@@@Z 10002774 f i POSPrinter.obj
 0001:000017bf       ?GetWindow@?$IOleInPlaceObjectWindowlessImpl@VCOPOSPOSPrinter@@@ATL@@UAGJPAPAUHWND__@@@Z 100027bf f i POSPrinter.obj
 0001:0000180c       ?InPlaceDeactivate@?$IOleInPlaceObjectWindowlessImpl@VCOPOSPOSPrinter@@@ATL@@UAGJXZ 1000280c f i POSPrinter.obj
 0001:00001826       ?UIDeactivate@?$IOleInPlaceObjectWindowlessImpl@VCOPOSPOSPrinter@@@ATL@@UAGJXZ 10002826 f i POSPrinter.obj
 0001:00001840       ?SetObjectRects@?$IOleInPlaceObjectWindowlessImpl@VCOPOSPOSPrinter@@@ATL@@UAGJPBUtagRECT@@0@Z 10002840 f i POSPrinter.obj
 0001:00001860       ?ReactivateAndUndo@?$IOleInPlaceObjectWindowlessImpl@VCOPOSPOSPrinter@@@ATL@@UAGJXZ 10002860 f i POSPrinter.obj
 0001:00001868       ?OnWindowMessage@?$IOleInPlaceObjectWindowlessImpl@VCOPOSPOSPrinter@@@ATL@@UAGJIIJPAJ@Z 10002868 f i POSPrinter.obj
 0001:000018d8       ?EnumConnectionPoints@?$IConnectionPointContainerImpl@VCOPOSPOSPrinter@@@ATL@@UAGJPAPAUIEnumConnectionPoints@@@Z 100028d8 f i POSPrinter.obj
 0001:00001a64       ?FindConnectionPoint@?$IConnectionPointContainerImpl@VCOPOSPOSPrinter@@@ATL@@UAGJABU_GUID@@PAPAUIConnectionPoint@@@Z 10002a64 f i POSPrinter.obj
 0001:00001b07       ?IsDirty@?$IPersistStorageImpl@VCOPOSPOSPrinter@@@ATL@@UAGJXZ 10002b07 f i POSPrinter.obj
 0001:00001b37       ?InitNew@?$IPersistStorageImpl@VCOPOSPOSPrinter@@@ATL@@UAGJPAUIStorage@@@Z 10002b37 f i POSPrinter.obj
 0001:00001b67       ?Load@?$IPersistStorageImpl@VCOPOSPOSPrinter@@@ATL@@UAGJPAUIStorage@@@Z 10002b67 f i POSPrinter.obj
 0001:00001bd3       ?Save@?$IPersistStorageImpl@VCOPOSPOSPrinter@@@ATL@@UAGJPAUIStorage@@H@Z 10002bd3 f i POSPrinter.obj
 0001:00001c46       ?GetPages@?$ISpecifyPropertyPagesImpl@VCOPOSPOSPrinter@@@ATL@@UAGJPAUtagCAUUID@@@Z 10002c46 f i POSPrinter.obj
 0001:00001c5d       ?QuickActivate@?$IQuickActivateImpl@VCOPOSPOSPrinter@@@ATL@@UAGJPAUtagQACONTAINER@@PAUtagQACONTROL@@@Z 10002c5d f i POSPrinter.obj
 0001:00001c80       ?SetContentExtent@?$IQuickActivateImpl@VCOPOSPOSPrinter@@@ATL@@UAGJPAUtagSIZE@@@Z 10002c80 f i POSPrinter.obj
 0001:00001cac       ?GetContentExtent@?$IQuickActivateImpl@VCOPOSPOSPrinter@@@ATL@@UAGJPAUtagSIZE@@@Z 10002cac f i POSPrinter.obj
 0001:00001ce8       ?GetData@?$IDataObjectImpl@VCOPOSPOSPrinter@@@ATL@@UAGJPAUtagFORMATETC@@PAUtagSTGMEDIUM@@@Z 10002ce8 f i POSPrinter.obj
 0001:00001d0b       ?DAdvise@?$IDataObjectImpl@VCOPOSPOSPrinter@@@ATL@@UAGJPAUtagFORMATETC@@KPAUIAdviseSink@@PAK@Z 10002d0b f i POSPrinter.obj
 0001:00001d4c       ?DUnadvise@?$IDataObjectImpl@VCOPOSPOSPrinter@@@ATL@@UAGJK@Z 10002d4c f i POSPrinter.obj
 0001:00001d7a       ?EnumDAdvise@?$IDataObjectImpl@VCOPOSPOSPrinter@@@ATL@@UAGJPAPAUIEnumSTATDATA@@@Z 10002d7a f i POSPrinter.obj
 0001:00001db9       ?GetClassInfoW@?$IProvideClassInfo2Impl@$1?CLSID_OPOSPOSPrinter@@3U_GUID@@B$1?DIID__IOPOSPOSPrinterEvents@@3U2@B$1?LIBID_OposPOSPrinter_CCO@@3U2@B$00$0A@VCComTypeInfoHolder@ATL@@@ATL@@UAGJPAPAUITypeInfo@@@Z 10002db9 f i POSPrinter.obj
 0001:00001dcf       ?GetGUID@?$IProvideClassInfo2Impl@$1?CLSID_OPOSPOSPrinter@@3U_GUID@@B$1?DIID__IOPOSPOSPrinterEvents@@3U2@B$1?LIBID_OposPOSPrinter_CCO@@3U2@B$00$0A@VCComTypeInfoHolder@ATL@@@ATL@@UAGJKPAU_GUID@@@Z 10002dcf f i POSPrinter.obj
 0001:00001e0d       __get_startup_argv_mode    10002e0d f i LIBCMT:argv_mode.obj
 0001:00001e0d       ?FAccessAllowed@?$IObjectSafetyImpl@VCOPOSPOSPrinter@@$02@ATL@@MAEHXZ 10002e0d f i POSPrinter.obj
 0001:00001e11       ?GetInterfaceSafetyOptions@?$IObjectSafetyImpl@VCOPOSPOSPrinter@@$02@ATL@@UAGJABU_GUID@@PAK1@Z 10002e11 f i POSPrinter.obj
 0001:00001e85       ?SetInterfaceSafetyOptions@?$IObjectSafetyImpl@VCOPOSPOSPrinter@@$02@ATL@@UAGJABU_GUID@@KK@Z 10002e85 f i POSPrinter.obj
 0001:00001eff       ?_LocCPQueryInterface@?$IConnectionPointImpl@VCOPOSPOSPrinter@@$1?IID_IPropertyNotifySink@@3U_GUID@@BVCComDynamicUnkArray@ATL@@@ATL@@UAGJABU_GUID@@PAPAX@Z 10002eff f i POSPrinter.obj
 0001:00001eff       ?_LocCPQueryInterface@?$IConnectionPointImpl@VCOPOSPOSPrinter@@$1?DIID__IOPOSPOSPrinterEvents@@3U_GUID@@BVCComDynamicUnkArray@ATL@@@ATL@@UAGJABU_GUID@@PAPAX@Z 10002eff f i POSPrinter.obj
 0001:00001f4c       ?GetConnectionInterface@?$IConnectionPointImpl@VCOPOSPOSPrinter@@$1?IID_IPropertyNotifySink@@3U_GUID@@BVCComDynamicUnkArray@ATL@@@ATL@@UAGJPAU_GUID@@@Z 10002f4c f i POSPrinter.obj
 0001:00001f70       ?GetConnectionPointContainer@?$IConnectionPointImpl@VCOPOSPOSPrinter@@$1?IID_IPropertyNotifySink@@3U_GUID@@BVCComDynamicUnkArray@ATL@@@ATL@@UAGJPAPAUIConnectionPointContainer@@@Z 10002f70 f i POSPrinter.obj
 0001:00001f93       ?Advise@?$IConnectionPointImpl@VCOPOSPOSPrinter@@$1?DIID__IOPOSPOSPrinterEvents@@3U_GUID@@BVCComDynamicUnkArray@ATL@@@ATL@@UAGJPAUIUnknown@@PAK@Z 10002f93 f i POSPrinter.obj
 0001:00001f93       ?Advise@?$IConnectionPointImpl@VCOPOSPOSPrinter@@$1?IID_IPropertyNotifySink@@3U_GUID@@BVCComDynamicUnkArray@ATL@@@ATL@@UAGJPAUIUnknown@@PAK@Z 10002f93 f i POSPrinter.obj
 0001:00002033       ?Unadvise@?$IConnectionPointImpl@VCOPOSPOSPrinter@@$1?IID_IPropertyNotifySink@@3U_GUID@@BVCComDynamicUnkArray@ATL@@@ATL@@UAGJK@Z 10003033 f i POSPrinter.obj
 0001:00002033       ?Unadvise@?$IConnectionPointImpl@VCOPOSPOSPrinter@@$1?DIID__IOPOSPOSPrinterEvents@@3U_GUID@@BVCComDynamicUnkArray@ATL@@@ATL@@UAGJK@Z 10003033 f i POSPrinter.obj
 0001:00002073       ?EnumConnections@?$IConnectionPointImpl@VCOPOSPOSPrinter@@$1?IID_IPropertyNotifySink@@3U_GUID@@BVCComDynamicUnkArray@ATL@@@ATL@@UAGJPAPAUIEnumConnections@@@Z 10003073 f i POSPrinter.obj
 0001:00002073       ?EnumConnections@?$IConnectionPointImpl@VCOPOSPOSPrinter@@$1?DIID__IOPOSPOSPrinterEvents@@3U_GUID@@BVCComDynamicUnkArray@ATL@@@ATL@@UAGJPAPAUIEnumConnections@@@Z 10003073 f i POSPrinter.obj
 0001:0000216e       ?GetCategoryMap@CComObjectRootBase@ATL@@SAPBU_ATL_CATMAP_ENTRY@2@XZ 1000316e f i POSPrinter.obj
 0001:0000216e       ?GetObjectDescription@?$CComCoClass@VCOPOSPOSPrinter@@$1?CLSID_OPOSPOSPrinter@@3U_GUID@@B@ATL@@SGPB_WXZ 1000316e f i POSPrinter.obj
 0001:00002171       ?GetConnectionInterface@?$IConnectionPointImpl@VCOPOSPOSPrinter@@$1?DIID__IOPOSPOSPrinterEvents@@3U_GUID@@BVCComDynamicUnkArray@ATL@@@ATL@@UAGJPAU_GUID@@@Z 10003171 f i POSPrinter.obj
 0001:00002195       ?GetConnectionPointContainer@?$IConnectionPointImpl@VCOPOSPOSPrinter@@$1?DIID__IOPOSPOSPrinterEvents@@3U_GUID@@BVCComDynamicUnkArray@ATL@@@ATL@@UAGJPAPAUIConnectionPointContainer@@@Z 10003195 f i POSPrinter.obj
 0001:000021b8       ?UpdateRegistry@COPOSPOSPrinter@@SGJH@Z 100031b8 f i POSPrinter.obj
 0001:000021d0       ?ProcessWindowMessage@COPOSPOSPrinter@@UAEHPAUHWND__@@IIJAAJK@Z 100031d0 f i POSPrinter.obj
 0001:00002219       ?SODirectIO@COPOSPOSPrinter@@MAGJJPAJPAPA_W@Z 10003219 f i POSPrinter.obj
 0001:00002262       ?SOError@COPOSPOSPrinter@@MAGJJJJPAJ@Z 10003262 f i POSPrinter.obj
 0001:000022b7       ?SOOutputComplete@COPOSPOSPrinter@@MAGJJ@Z 100032b7 f i POSPrinter.obj
 0001:000022f0       ?SOStatusUpdate@COPOSPOSPrinter@@MAGJJ@Z 100032f0 f i POSPrinter.obj
 0001:00002329       ?AddRef@CRegObject@ATL@@UAGKXZ 10003329 f i POSPrinter.obj
 0001:0000232f       ?AddReplacement@CRegObject@ATL@@UAGJPB_W0@Z 1000332f f i POSPrinter.obj
 0001:00002368       ?ClearReplacements@CRegObject@ATL@@UAGJXZ 10003368 f i POSPrinter.obj
 0001:0000237a       ??_ECRegObject@ATL@@UAEPAXI@Z 1000337a f i POSPrinter.obj
 0001:0000237a       ??_GCRegObject@ATL@@UAEPAXI@Z 1000337a f i POSPrinter.obj
 0001:0000239c       ?CreateInstance@?$CComCreator@V?$CComObjectCached@VCComClassFactory@ATL@@@ATL@@@ATL@@SGJPAXABU_GUID@@PAPAX@Z 1000339c f i POSPrinter.obj
 0001:0000243c       ?CreateInstance@?$CComCreator2@V?$CComCreator@V?$CComObject@VCOPOSPOSPrinter@@@ATL@@@ATL@@V?$CComCreator@V?$CComAggObject@VCOPOSPOSPrinter@@@ATL@@@2@@ATL@@SGJPAXABU_GUID@@PAPAX@Z 1000343c f i POSPrinter.obj
 0001:0000245c       ?AddRef@?$CComObjectCached@VCComClassFactory@ATL@@@ATL@@UAGKXZ 1000345c f i POSPrinter.obj
 0001:00002483       ?Release@?$CComObjectCached@VCComClassFactory@ATL@@@ATL@@UAGKXZ 10003483 f i POSPrinter.obj
 0001:000024b9       ?QueryInterface@?$CComObjectCached@VCComClassFactory@ATL@@@ATL@@UAGJABU_GUID@@PAPAX@Z 100034b9 f i POSPrinter.obj
 0001:000024d3       ??_G?$CComObjectCached@VCComClassFactory@ATL@@@ATL@@UAEPAXI@Z 100034d3 f i POSPrinter.obj
 0001:000024d3       ??_E?$CComObjectCached@VCComClassFactory@ATL@@@ATL@@UAEPAXI@Z 100034d3 f i POSPrinter.obj
 0001:000024f5       ?Next@?$CComEnumImpl@UIEnumConnectionPoints@@$1?_GUID_b196b285_bab4_101a_b69c_00aa00341d07@@3U__s_GUID@@BPAUIConnectionPoint@@V?$_CopyInterface@UIConnectionPoint@@@ATL@@@ATL@@UAGJKPAPAUIConnectionPoint@@PAK@Z 100034f5 f i POSPrinter.obj
 0001:000025cc       ?Skip@?$CComEnumImpl@UIEnumConnectionPoints@@$1?_GUID_b196b285_bab4_101a_b69c_00aa00341d07@@3U__s_GUID@@BPAUIConnectionPoint@@V?$_CopyInterface@UIConnectionPoint@@@ATL@@@ATL@@UAGJK@Z 100035cc f i POSPrinter.obj
 0001:000025f9       ?Clone@?$CComEnumImpl@UIEnumConnectionPoints@@$1?_GUID_b196b285_bab4_101a_b69c_00aa00341d07@@3U__s_GUID@@BPAUIConnectionPoint@@V?$_CopyInterface@UIConnectionPoint@@@ATL@@@ATL@@UAGJPAPAUIEnumConnectionPoints@@@Z 100035f9 f i POSPrinter.obj
 0001:000026da       ?QueryInterface@?$CComObject@V?$CComEnum@UIEnumConnectionPoints@@$1?_GUID_b196b285_bab4_101a_b69c_00aa00341d07@@3U__s_GUID@@BPAUIConnectionPoint@@V?$_CopyInterface@UIConnectionPoint@@@ATL@@VCComSingleThreadModel@6@@ATL@@@ATL@@UAGJABU_GUID@@PAPAX@Z 100036da f i POSPrinter.obj
 0001:000026f4       ??_E?$CComObject@V?$CComEnum@UIEnumConnectionPoints@@$1?_GUID_b196b285_bab4_101a_b69c_00aa00341d07@@3U__s_GUID@@BPAUIConnectionPoint@@V?$_CopyInterface@UIConnectionPoint@@@ATL@@VCComSingleThreadModel@6@@ATL@@@ATL@@UAEPAXI@Z 100036f4 f i POSPrinter.obj
 0001:000026f4       ??_G?$CComObject@V?$CComEnum@UIEnumConnectionPoints@@$1?_GUID_b196b285_bab4_101a_b69c_00aa00341d07@@3U__s_GUID@@BPAUIConnectionPoint@@V?$_CopyInterface@UIConnectionPoint@@@ATL@@VCComSingleThreadModel@6@@ATL@@@ATL@@UAEPAXI@Z 100036f4 f i POSPrinter.obj
 0001:00002716       ?OnDrawAdvanced@CComControlBase@ATL@@UAEJAAUATL_DRAWINFO@@@Z 10003716 f i POSPrinter.obj
 0001:00002809       ?AddRef@?$CComAggObject@VCOPOSPOSPrinter@@@ATL@@UAGKXZ 10003809 f i POSPrinter.obj
 0001:0000281a       ?Release@?$CComAggObject@VCOPOSPOSPrinter@@@ATL@@UAGKXZ 1000381a f i POSPrinter.obj
 0001:00002856       ?QueryInterface@?$CComAggObject@VCOPOSPOSPrinter@@@ATL@@UAGJABU_GUID@@PAPAX@Z 10003856 f i POSPrinter.obj
 0001:000028a5       ?AddRef@?$CComContainedObject@VCOPOSPOSPrinter@@@ATL@@UAGKXZ 100038a5 f i POSPrinter.obj
 0001:000028bb       ?Release@?$CComContainedObject@VCOPOSPOSPrinter@@@ATL@@UAGKXZ 100038bb f i POSPrinter.obj
 0001:000028d1       ?QueryInterface@?$CComContainedObject@VCOPOSPOSPrinter@@@ATL@@UAGJABU_GUID@@PAPAX@Z 100038d1 f i POSPrinter.obj
 0001:000028ec       ??_G?$CComAggObject@VCOPOSPOSPrinter@@@ATL@@UAEPAXI@Z 100038ec f i POSPrinter.obj
 0001:000028ec       ??_E?$CComAggObject@VCOPOSPOSPrinter@@@ATL@@UAEPAXI@Z 100038ec f i POSPrinter.obj
 0001:00002911       ?AddRef@?$CComObject@VCOPOSPOSPrinter@@@ATL@@UAGKXZ 10003911 f i POSPrinter.obj
 0001:00002928       ?Release@?$CComObject@VCOPOSPOSPrinter@@@ATL@@UAGKXZ 10003928 f i POSPrinter.obj
 0001:0000296a       ?QueryInterface@?$CComObject@VCOPOSPOSPrinter@@@ATL@@UAGJABU_GUID@@PAPAX@Z 1000396a f i POSPrinter.obj
 0001:00002984       ??$?4UITypeInfo2@@@?$CComPtr@UITypeInfo@@@ATL@@QAEPAUITypeInfo@@ABV?$CComPtr@UITypeInfo2@@@1@@Z 10003984 f i POSPrinter.obj
 0001:000029b1       ??$AtlAdd@K@ATL@@YAJPAKKK@Z 100039b1 f i POSPrinter.obj
 0001:000029d4       ??$AtlAdd@_K@ATL@@YAJPA_K_K1@Z 100039d4 f i POSPrinter.obj
 0001:00002a0c       ??$AtlAddThrow@K@ATL@@YAKKK@Z 10003a0c f i POSPrinter.obj
 0001:00002a32       ??$AtlModuleRegisterWndClassInfoT@VAtlModuleRegisterWndClassInfoParamW@ATL@@@ATL@@YAGPAU_ATL_BASE_MODULE70@0@PAU_ATL_WIN_MODULE70@0@PAU_ATL_WNDCLASSINFOW@0@PAP6GJPAUHWND__@@IIJ@ZVAtlModuleRegisterWndClassInfoParamW@0@@Z 10003a32 f i POSPrinter.obj
 0001:00002b80       ??$AtlMultiply@H@ATL@@YAJPAHHH@Z 10003b80 f i POSPrinter.obj
 0001:00002bb8       ??$AtlMultiply@I@ATL@@YAJPAIII@Z 10003bb8 f i POSPrinter.obj
 0001:00002bb8       ??$AtlMultiply@K@ATL@@YAJPAKKK@Z 10003bb8 f i POSPrinter.obj
 0001:00002bda       ??$AtlMultiplyThrow@I@ATL@@YAIII@Z 10003bda f i POSPrinter.obj
 0001:00002c00       ??0?$CComAggObject@VCOPOSPOSPrinter@@@ATL@@QAE@PAX@Z 10003c00 f i POSPrinter.obj
 0001:00002c2d       ??0?$CComContainedObject@VCOPOSPOSPrinter@@@ATL@@QAE@PAX@Z 10003c2d f i POSPrinter.obj
 0001:00002ce6       ??0?$CComObject@V?$CComEnum@UIEnumConnectionPoints@@$1?_GUID_b196b285_bab4_101a_b69c_00aa00341d07@@3U__s_GUID@@BPAUIConnectionPoint@@V?$_CopyInterface@UIConnectionPoint@@@ATL@@VCComSingleThreadModel@6@@ATL@@@ATL@@QAE@PAX@Z 10003ce6 f i POSPrinter.obj
 0001:00002d14       ??0?$CComObject@V?$CComEnum@UIEnumConnections@@$1?_GUID_b196b287_bab4_101a_b69c_00aa00341d07@@3U__s_GUID@@BUtagCONNECTDATA@@V?$_Copy@UtagCONNECTDATA@@@ATL@@VCComSingleThreadModel@6@@ATL@@@ATL@@QAE@PAX@Z 10003d14 f i POSPrinter.obj
 0001:00002d42       ??0?$CComObject@VCOPOSPOSPrinter@@@ATL@@QAE@PAX@Z 10003d42 f i POSPrinter.obj
 0001:00002df9       ??0?$CComQIPtr@UIOleControlSite@@$1?_GUID_b196b289_bab4_101a_b69c_00aa00341d07@@3U__s_GUID@@B@ATL@@QAE@PAUIUnknown@@@Z 10003df9 f i POSPrinter.obj
 0001:00002e22       ??0CAtlModule@ATL@@QAE@XZ  10003e22 f i POSPrinter.obj
 0001:00002e63       ??0CParseBuffer@CRegParser@ATL@@QAE@H@Z 10003e63 f i POSPrinter.obj
 0001:00002e99       ??0_ATL_MSG@ATL@@QAE@PAUHWND__@@IIJH@Z 10003e99 f i POSPrinter.obj
 0001:00002ed1       ??1?$CComAggObject@VCOPOSPOSPrinter@@@ATL@@UAE@XZ 10003ed1 f i POSPrinter.obj
 0001:00002ef5       ??1?$CComEnumImpl@UIEnumConnectionPoints@@$1?_GUID_b196b285_bab4_101a_b69c_00aa00341d07@@3U__s_GUID@@BPAUIConnectionPoint@@V?$_CopyInterface@UIConnectionPoint@@@ATL@@@ATL@@UAE@XZ 10003ef5 f i POSPrinter.obj
 0001:00002f35       ??1?$CComEnumImpl@UIEnumConnections@@$1?_GUID_b196b287_bab4_101a_b69c_00aa00341d07@@3U__s_GUID@@BUtagCONNECTDATA@@V?$_Copy@UtagCONNECTDATA@@@ATL@@@ATL@@UAE@XZ 10003f35 f i POSPrinter.obj
 0001:00002f75       ??1?$CComObject@V?$CComEnum@UIEnumConnectionPoints@@$1?_GUID_b196b285_bab4_101a_b69c_00aa00341d07@@3U__s_GUID@@BPAUIConnectionPoint@@V?$_CopyInterface@UIConnectionPoint@@@ATL@@VCComSingleThreadModel@6@@ATL@@@ATL@@UAE@XZ 10003f75 f i POSPrinter.obj
 0001:00002f98       ??1?$CComObject@V?$CComEnum@UIEnumConnections@@$1?_GUID_b196b287_bab4_101a_b69c_00aa00341d07@@3U__s_GUID@@BUtagCONNECTDATA@@V?$_Copy@UtagCONNECTDATA@@@ATL@@VCComSingleThreadModel@6@@ATL@@@ATL@@UAE@XZ 10003f98 f i POSPrinter.obj
 0001:00002fbb       ??1?$CComObject@VCOPOSPOSPrinter@@@ATL@@UAE@XZ 10003fbb f i POSPrinter.obj
 0001:00003079       ??1?$CComObjectCached@VCComClassFactory@ATL@@@ATL@@UAE@XZ 10004079 f i POSPrinter.obj
 0001:0000308f       ??1?$CComObjectRootEx@VCComMultiThreadModel@ATL@@@ATL@@QAE@XZ 1000408f f i POSPrinter.obj
 0001:000030a4       ??1CRegObject@ATL@@UAE@XZ  100040a4 f i POSPrinter.obj
 0001:000030c4       ??4?$CComPtr@UIUnknown@@@ATL@@QAEPAUIUnknown@@PAU2@@Z 100040c4 f i POSPrinter.obj
 0001:000030c4       ??4?$CComPtr@UIAdviseSink@@@ATL@@QAEPAUIAdviseSink@@PAU2@@Z 100040c4 f i POSPrinter.obj
 0001:000030c4       ??4?$CComPtr@UIOleClientSite@@@ATL@@QAEPAUIOleClientSite@@PAU2@@Z 100040c4 f i POSPrinter.obj
 0001:000030f8       ??_G?$CComContainedObject@VCOPOSPOSPrinter@@@ATL@@UAEPAXI@Z 100040f8 f i POSPrinter.obj
 0001:000030f8       ??_E?$CComContainedObject@VCOPOSPOSPrinter@@@ATL@@UAEPAXI@Z 100040f8 f i POSPrinter.obj
 0001:0000311d       ??_E?$CComObject@VCOPOSPOSPrinter@@@ATL@@UAEPAXI@Z 1000411d f i POSPrinter.obj
 0001:0000311d       ??_G?$CComObject@VCOPOSPOSPrinter@@@ATL@@UAEPAXI@Z 1000411d f i POSPrinter.obj
 0001:00003142       ?Add@?$CSimpleArray@GV?$CSimpleArrayEqualHelper@G@ATL@@@ATL@@QAEHABG@Z 10004142 f i POSPrinter.obj
 0001:000031c6       ?Add@?$CSimpleMap@PA_WPA_WVCExpansionVectorEqualHelper@ATL@@@ATL@@QAEHABQA_W0@Z 100041c6 f i POSPrinter.obj
 0001:0000321b       ?Add@CComDynamicUnkArray@ATL@@QAEKPAUIUnknown@@@Z 1000421b f i POSPrinter.obj
 0001:000032d1       ?Add@CExpansionVector@ATL@@QAEHPB_W0@Z 100042d1 f i POSPrinter.obj
 0001:000033da       ?AddString@CParseBuffer@CRegParser@ATL@@QAEHPB_W@Z 100043da f i POSPrinter.obj
 0001:0000340f       ?AddTermFunc@CAtlModule@ATL@@QAEJP6GXK@ZK@Z 1000440f f i POSPrinter.obj
 0001:00003472       ?AddValue@CRegParser@ATL@@IAEJAAVCRegKey@2@PB_WPA_W@Z 10004472 f i POSPrinter.obj
 0001:0000378c       ?Allocate@?$CAtlSafeAllocBufferManager@VCCRTAllocator@ATL@@@_ATL_SAFE_ALLOCA_IMPL@ATL@@QAEPAXK@Z 1000478c f i POSPrinter.obj
 0001:000037b9       ?Allocate@?$CTempBuffer@E$0BAA@VCCRTAllocator@ATL@@@ATL@@QAEPAEI@Z 100047b9 f i POSPrinter.obj
 0001:000037e8       ?Allocate@?$CTempBuffer@_W$0BAA@VCCRTAllocator@ATL@@@ATL@@QAEPA_WI@Z 100047e8 f i POSPrinter.obj
 0001:00003817       ?Allocate@?$CTempBuffer@_W$0EAA@VCCRTAllocator@ATL@@@ATL@@QAEPA_WI@Z 10004817 f i POSPrinter.obj
 0001:00003846       ?AllocateHeap@?$CTempBuffer@_W$0BAA@VCCRTAllocator@ATL@@@ATL@@AAEXI@Z 10004846 f i POSPrinter.obj
 0001:00003846       ?AllocateHeap@?$CTempBuffer@_W$0EAA@VCCRTAllocator@ATL@@@ATL@@AAEXI@Z 10004846 f i POSPrinter.obj
 0001:00003846       ?AllocateHeap@?$CTempBuffer@E$0BAA@VCCRTAllocator@ATL@@@ATL@@AAEXI@Z 10004846 f i POSPrinter.obj
 0001:0000386b       ?Append@CParseBuffer@CRegParser@ATL@@QAEHPB_WH@Z 1000486b f i POSPrinter.obj
 0001:000038f9       ?AtlCoTaskMemCAlloc@ATL@@YAPAXKK@Z 100048f9 f i POSPrinter.obj
 0001:00003926       ?AtlCoTaskMemRecalloc@ATL@@YAPAXPAXKK@Z 10004926 f i POSPrinter.obj
 0001:00003956       ?AtlComModuleGetClassObject@ATL@@YGJPAU_ATL_COM_MODULE70@1@ABU_GUID@@1PAPAX@Z 10004956 f i POSPrinter.obj
 0001:00003a49       ?AtlComModuleRegisterServer@ATL@@YGJPAU_ATL_COM_MODULE70@1@HPBU_GUID@@@Z 10004a49 f i POSPrinter.obj
 0001:00003ad1       ?AtlComModuleUnregisterServer@ATL@@YGJPAU_ATL_COM_MODULE70@1@HPBU_GUID@@@Z 10004ad1 f i POSPrinter.obj
 0001:00003b59       ?AtlComQIPtrAssign2@ATL@@YAXPAPAUIUnknown@@PAU2@ABU_GUID@@@Z 10004b59 f i POSPrinter.obj
 0001:00003b88       ?AtlCreateTargetDC@ATL@@YGPAUHDC__@@PAU2@PAUtagDVTARGETDEVICE@@@Z 10004b88 f i POSPrinter.obj
 0001:00003bf1       ?AtlCrtErrorCheck@ATL@@YAHH@Z 10004bf1 f i POSPrinter.obj
 0001:00003c2c       ?AtlHiMetricToPixel@ATL@@YGXPBUtagSIZE@@PAU2@@Z 10004c2c f i POSPrinter.obj
 0001:00003ca1       ?AtlHresultFromLastError@ATL@@YAJXZ 10004ca1 f i POSPrinter.obj
 0001:00003cb8       ?AtlHresultFromWin32@ATL@@YAJK@Z 10004cb8 f i POSPrinter.obj
 0001:00003ccd       ?AtlInternalOleLoadFromStream@ATL@@YAJPAUIStream@@ABU_GUID@@PAPAXTClassesAllowedInStream@1@K@Z 10004ccd f i POSPrinter.obj
 0001:00003deb       ?AtlInternalQueryInterface@ATL@@YGJPAXPBU_ATL_INTMAP_ENTRY@1@ABU_GUID@@PAPAX@Z 10004deb f i POSPrinter.obj
 0001:00003e8e       ?AtlLoadTypeLib@ATL@@YGJPAUHINSTANCE__@@PB_WPAPA_WPAPAUITypeLib@@@Z 10004e8e f i POSPrinter.obj
 0001:0000406c       ?AtlRegisterClassCategoriesHelper@ATL@@YGJABU_GUID@@PBU_ATL_CATMAP_ENTRY@1@H@Z 1000506c f i POSPrinter.obj
 0001:00004368       ?AtlRegisterTypeLib@ATL@@YGJPAUHINSTANCE__@@PB_W@Z 10005368 f i POSPrinter.obj
 0001:000044f0       ?AtlThrowImpl@ATL@@YGXJ@Z  100054f0 f i POSPrinter.obj
 0001:0000450e       ?AtlUnRegisterTypeLib@ATL@@YGJPAUHINSTANCE__@@PB_W@Z 1000550e f i POSPrinter.obj
 0001:000045b9       ?AtlWinModuleAddCreateWndData@ATL@@YGXPAU_ATL_WIN_MODULE70@1@PAU_AtlCreateWndData@1@PAX@Z 100055b9 f i POSPrinter.obj
 0001:0000460d       ?AtlWinModuleExtractCreateWndData@ATL@@YGPAXPAU_ATL_WIN_MODULE70@1@@Z 1000560d f i POSPrinter.obj
 0001:00004670       ?AtlWinModuleRegisterClassExW@ATL@@YGGPAU_ATL_WIN_MODULE70@1@PBUtagWNDCLASSEXW@@@Z 10005670 f i POSPrinter.obj
 0001:000046af       ?CanForceRemoveKey@CRegParser@ATL@@IAEHPB_W@Z 100056af f i POSPrinter.obj
 0001:000046de       ?ChToByte@CRegParser@ATL@@KAE_W@Z 100056de f i POSPrinter.obj
 0001:00004711       ?Cleanup@CComTypeInfoHolder@ATL@@SGXK@Z 10005711 f i POSPrinter.obj
 0001:00004744       ?ClearReplacements@CExpansionVector@ATL@@QAEJXZ 10005744 f i POSPrinter.obj
 0001:00004781       ?Close@CRegKey@ATL@@QAEJXZ 10005781 f i POSPrinter.obj
 0001:0000479b       ?CreateInstance@?$CComCreator@V?$CComAggObject@VCOPOSPOSPrinter@@@ATL@@@ATL@@SGJPAXABU_GUID@@PAPAX@Z 1000579b f i POSPrinter.obj
 0001:00004810       ?CreateInstance@?$CComCreator@V?$CComObject@VCOPOSPOSPrinter@@@ATL@@@ATL@@SGJPAXABU_GUID@@PAPAX@Z 10005810 f i POSPrinter.obj
 0001:00004890       ?CreateInstance@?$CComObject@V?$CComEnum@UIEnumConnectionPoints@@$1?_GUID_b196b285_bab4_101a_b69c_00aa00341d07@@3U__s_GUID@@BPAUIConnectionPoint@@V?$_CopyInterface@UIConnectionPoint@@@ATL@@VCComSingleThreadModel@6@@ATL@@@ATL@@SGJPAPAV12@@Z 10005890 f i POSPrinter.obj
 0001:000048da       ?CreateInstance@?$CComObject@V?$CComEnum@UIEnumConnections@@$1?_GUID_b196b287_bab4_101a_b69c_00aa00341d07@@3U__s_GUID@@BUtagCONNECTDATA@@V?$_Copy@UtagCONNECTDATA@@@ATL@@VCComSingleThreadModel@6@@ATL@@@ATL@@SGJPAPAV12@@Z 100058da f i POSPrinter.obj
 0001:00004924       ?DefaultReflectionHandler@?$CWindowImplRoot@VCWindow@ATL@@@ATL@@SAHPAUHWND__@@IIJAAJ@Z 10005924 f i POSPrinter.obj
 0001:00004997       ?DeleteSubKey@CRegKey@ATL@@QAEJPB_W@Z 10005997 f i POSPrinter.obj
 0001:00004a10       ?DoEvent@COPOSPOSPrinter@@IAEXIIJ@Z 10005a10 f i POSPrinter.obj
 0001:00004a90       ?DoVerbHide@?$IOleObjectImpl@VCOPOSPOSPrinter@@@ATL@@QAEJPBUtagRECT@@PAUHWND__@@@Z 10005a90 f i POSPrinter.obj
 0001:00004ac6       ?DoVerbInPlaceActivate@?$IOleObjectImpl@VCOPOSPOSPrinter@@@ATL@@QAEJPBUtagRECT@@PAUHWND__@@@Z 10005ac6 f i POSPrinter.obj
 0001:00004af9       ?DoVerbPrimary@?$IOleObjectImpl@VCOPOSPOSPrinter@@@ATL@@QAEJPBUtagRECT@@PAUHWND__@@@Z 10005af9 f i POSPrinter.obj
 0001:00004b85       ?DoVerbProperties@CComControlBase@ATL@@QAEJPBUtagRECT@@PAUHWND__@@@Z 10005b85 f i POSPrinter.obj
 0001:00004d04       ?DoVerbUIActivate@?$IOleObjectImpl@VCOPOSPOSPrinter@@@ATL@@QAEJPBUtagRECT@@PAUHWND__@@@Z 10005d04 f i POSPrinter.obj
 0001:00004d41       ?DoesVerbActivate@CComControlBase@ATL@@QAEHJ@Z 10005d41 f i POSPrinter.obj
 0001:00004d62       ?DoesVerbUIActivate@CComControlBase@ATL@@QAEHJ@Z 10005d62 f i POSPrinter.obj
 0001:00004d97       ?EndOfVar@CRegParser@ATL@@IAEHXZ 10005d97 f i POSPrinter.obj
 0001:00004db7       ?EscapeSingleQuote@CAtlModule@ATL@@SAXPA_WIPB_W@Z 10005db7 f i POSPrinter.obj
 0001:00004e06       ?FindKey@?$CSimpleMap@PA_WPA_WVCExpansionVectorEqualHelper@ATL@@@ATL@@QBEHABQA_W@Z 10005e06 f i POSPrinter.obj
 0001:00004e3d       ?FireTheEvent@?$CProxy_IOPOSEvents@VCOPOSPOSPrinter@@@@IAEXPAVOposVariant@@IAAJPB_WJ@Z 10005e3d f i POSPrinter.obj
 0001:00004ecf       ?FireViewChange@CComControlBase@ATL@@QAEJXZ 10005ecf f i POSPrinter.obj
 0001:00004f18       ?Fire_DirectIOEvent@?$CProxy_IOPOSEvents@VCOPOSPOSPrinter@@@@QAEXJPAJPAPA_W@Z 10005f18 f i POSPrinter.obj
 0001:00005004       ?Fire_ErrorEvent@?$CProxy_IOPOSEvents@VCOPOSPOSPrinter@@@@QAEXJJJPAJ@Z 10006004 f i POSPrinter.obj
 0001:000050f5       ?Fire_OutputCompleteEvent@?$CProxy_IOPOSEvents@VCOPOSPOSPrinter@@@@QAEXJ@Z 100060f5 f i POSPrinter.obj
 0001:0000518b       ?Fire_StatusUpdateEvent@?$CProxy_IOPOSEvents@VCOPOSPOSPrinter@@@@QAEXJ@Z 1000618b f i POSPrinter.obj
 0001:00005221       ?FreeHeap@?$CTempBuffer@_W$0EAA@VCCRTAllocator@ATL@@@ATL@@AAEXXZ 10006221 f i POSPrinter.obj
 0001:00005221       ?FreeHeap@?$CTempBuffer@_W$0BAA@VCCRTAllocator@ATL@@@ATL@@AAEXXZ 10006221 f i POSPrinter.obj
 0001:00005221       ?FreeHeap@?$CTempBuffer@E$0BAA@VCCRTAllocator@ATL@@@ATL@@AAEXXZ 10006221 f i POSPrinter.obj
 0001:0000522a       ?GetAmbientLocaleID@CComControlBase@ATL@@QAEJAAK@Z 1000622a f i POSPrinter.obj
 0001:00005286       ?GetAmbientUserMode@CComControlBase@ATL@@QAEJAAH@Z 10006286 f i POSPrinter.obj
 0001:000052f6       ?GetAt@CComDynamicUnkArray@ATL@@QAEPAUIUnknown@@H@Z 100062f6 f i POSPrinter.obj
 0001:00005312       ?GetClassObject@CComModule@ATL@@QAEJABU_GUID@@0PAPAX@Z 10006312 f i POSPrinter.obj
 0001:000053b4       ?GetConnMap@COPOSPOSPrinter@@SAPBU_ATL_CONNMAP_ENTRY@ATL@@PAH@Z 100063b4 f i POSPrinter.obj
 0001:00005424       ?GetCookie@CComDynamicUnkArray@ATL@@QAGKPAPAUIUnknown@@@Z 10006424 f i POSPrinter.obj
 0001:0000545c       ?GetIDsOfNames@CComTypeInfoHolder@ATL@@QAEJABU_GUID@@PAPA_WIKPAJ@Z 1000645c f i POSPrinter.obj
 0001:00005583       ?GetKeyAt@?$CSimpleMap@PA_WPA_WVCExpansionVectorEqualHelper@ATL@@@ATL@@QBEAAPA_WH@Z 10006583 f i POSPrinter.obj
 0001:000055a8       ?GetPagesHelper@?$ISpecifyPropertyPagesImpl@VCOPOSPOSPrinter@@@ATL@@IAEJPAUtagCAUUID@@PBUATL_PROPMAP_ENTRY@2@@Z 100065a8 f i POSPrinter.obj
 0001:000056cf       ?GetProperty@?$CComPtr@UIDispatch@@@ATL@@SAJPAUIDispatch@@JPAUtagVARIANT@@@Z 100066cf f i POSPrinter.obj
 0001:0000571e       ?GetSizeMax@CComVariant@ATL@@QBEJPAT_ULARGE_INTEGER@@@Z 1000671e f i POSPrinter.obj
 0001:000058e0       ?GetTI@CComTypeInfoHolder@ATL@@QAEJK@Z 100068e0 f i POSPrinter.obj
 0001:00005abf       ?GetTI@CComTypeInfoHolder@ATL@@QAEJKPAPAUITypeInfo@@@Z 10006abf f i POSPrinter.obj
 0001:00005b01       ?GetUnknown@CComDynamicUnkArray@ATL@@QAGPAUIUnknown@@K@Z 10006b01 f i POSPrinter.obj
 0001:00005b22       ?GetValueAt@?$CSimpleMap@PA_WPA_WVCExpansionVectorEqualHelper@ATL@@@ATL@@QBEAAPA_WH@Z 10006b22 f i POSPrinter.obj
 0001:00005b48       ?GetZoomInfo@CComControlBase@ATL@@QAEXAAUATL_DRAWINFO@@@Z 10006b48 f i POSPrinter.obj
 0001:00005bdb       ?HKeyFromString@CRegParser@ATL@@KAPAUHKEY__@@PA_W@Z 10006bdb f i POSPrinter.obj
 0001:00005c09       ?HasSubKeys@CRegParser@ATL@@IAEHPAUHKEY__@@@Z 10006c09 f i POSPrinter.obj
 0001:00005c3e       ?IDataObject_GetData@CComControlBase@ATL@@QAEJPAUtagFORMATETC@@PAUtagSTGMEDIUM@@@Z 10006c3e f i POSPrinter.obj
 0001:00005de4       ?IOleInPlaceObject_InPlaceDeactivate@CComControlBase@ATL@@QAEJXZ 10006de4 f i POSPrinter.obj
 0001:00005e6b       ?IOleInPlaceObject_SetObjectRects@CComControlBase@ATL@@QAEJPBUtagRECT@@0@Z 10006e6b f i POSPrinter.obj
 0001:00005f38       ?IOleInPlaceObject_UIDeactivate@CComControlBase@ATL@@QAEJXZ 10006f38 f i POSPrinter.obj
 0001:00005ffa       ?IOleObject_Advise@CComControlBase@ATL@@QAEJPAUIAdviseSink@@PAK@Z 10006ffa f i POSPrinter.obj
 0001:00006024       ?IOleObject_Close@CComControlBase@ATL@@QAEJK@Z 10007024 f i POSPrinter.obj
 0001:00006108       ?IOleObject_GetClientSite@CComControlBase@ATL@@QAEJPAPAUIOleClientSite@@@Z 10007108 f i POSPrinter.obj
 0001:00006131       ?IOleObject_SetClientSite@CComControlBase@ATL@@QAEJPAUIOleClientSite@@@Z 10007131 f i POSPrinter.obj
 0001:00006170       ?IOleObject_SetExtent@CComControlBase@ATL@@QAEJKPAUtagSIZE@@@Z 10007170 f i POSPrinter.obj
 0001:00006222       ?IPSI_GetIPersistStreamInit@?$IPersistStorageImpl@VCOPOSPOSPrinter@@@ATL@@AAEPAUIPersistStreamInit@@XZ 10007222 f i POSPrinter.obj
 0001:000062ca       ?IPersistStreamInit_Load@?$IPersistStreamInitImpl@VCOPOSPOSPrinter@@@ATL@@QAEJPAUIStream@@PBUATL_PROPMAP_ENTRY@2@@Z 100072ca f i POSPrinter.obj
 0001:0000653f       ?IPersistStreamInit_Save@?$IPersistStreamInitImpl@VCOPOSPOSPrinter@@@ATL@@QAEJPAUIStream@@HPBUATL_PROPMAP_ENTRY@2@@Z 1000753f f i POSPrinter.obj
 0001:0000672d       ?IQuickActivate_QuickActivate@CComControlBase@ATL@@QAEJPAUtagQACONTAINER@@PAUtagQACONTROL@@@Z 1000772d f i POSPrinter.obj
 0001:0000696f       ?IViewObject_Draw@CComControlBase@ATL@@QAEJKJPAXPAUtagDVTARGETDEVICE@@PAUHDC__@@2PBU_RECTL@@3@Z 1000796f f i POSPrinter.obj
 0001:00006a17       ?InPlaceActivate@CComControlBase@ATL@@QAEJJPBUtagRECT@@@Z 10007a17 f i POSPrinter.obj
 0001:00006c88       ?Init@?$CComEnumImpl@UIEnumConnectionPoints@@$1?_GUID_b196b285_bab4_101a_b69c_00aa00341d07@@3U__s_GUID@@BPAUIConnectionPoint@@V?$_CopyInterface@UIConnectionPoint@@@ATL@@@ATL@@QAEJPAPAUIConnectionPoint@@0PAUIUnknown@@W4CComEnumFlags@2@@Z 10007c88 f i POSPrinter.obj
 0001:00006d67       ?Init@?$CComEnumImpl@UIEnumConnections@@$1?_GUID_b196b287_bab4_101a_b69c_00aa00341d07@@3U__s_GUID@@BUtagCONNECTDATA@@V?$_Copy@UtagCONNECTDATA@@@ATL@@@ATL@@QAEJPAUtagCONNECTDATA@@0PAUIUnknown@@W4CComEnumFlags@2@@Z 10007d67 f i POSPrinter.obj
 0001:00006e46       ?Init@CComModule@ATL@@QAEJPAU_ATL_OBJMAP_ENTRY30@2@PAUHINSTANCE__@@PBU_GUID@@@Z 10007e46 f i POSPrinter.obj
 0001:00006ea5       ?Init@CDynamicStdCallThunk2@ATL@@QAEHKPAX@Z 10007ea5 f i POSPrinter.obj
 0001:00006ed0       ?InlineIsEqualUnknown@ATL@@YGHABU_GUID@@@Z 10007ed0 f i POSPrinter.obj
 0001:00006ef8       ?InternalSetAtIndex@?$CSimpleMap@PA_WPA_WVCExpansionVectorEqualHelper@ATL@@@ATL@@QAEXHABQA_W0@Z 10007ef8 f i POSPrinter.obj
 0001:00006f22       ?Invoke@CComTypeInfoHolder@ATL@@QAEJPAUIDispatch@@JABU_GUID@@KGPAUtagDISPPARAMS@@PAUtagVARIANT@@PAUtagEXCEPINFO@@PAI@Z 10007f22 f i POSPrinter.obj
 0001:00006f65       ?IsEqualObject@?$CComPtrBase@UITypeInfo@@@ATL@@QAE_NPAUIUnknown@@@Z 10007f65 f i POSPrinter.obj
 0001:00006f65       ?IsEqualObject@?$CComPtrBase@UIOleClientSite@@@ATL@@QAE_NPAUIUnknown@@@Z 10007f65 f i POSPrinter.obj
 0001:00006fd2       ?IsSpace@CRegParser@ATL@@IAEH_W@Z 10007fd2 f i POSPrinter.obj
 0001:00006ffc       ?LoadNameCache@CComTypeInfoHolder@ATL@@QAEJPAUITypeInfo@@@Z 10007ffc f i POSPrinter.obj
 0001:00007131       ?Lookup@?$CSimpleMap@PA_WPA_WVCExpansionVectorEqualHelper@ATL@@@ATL@@QBEPA_WABQA_W@Z 10008131 f i POSPrinter.obj
 0001:00007157       ?NextToken@CRegParser@ATL@@IAEJPA_W@Z 10008157 f i POSPrinter.obj
 0001:0000728f       ?OnKillFocus@CComControlBase@ATL@@QAEJIIJAAH@Z 1000828f f i POSPrinter.obj
 0001:000072ea       ?OnMouseActivate@CComControlBase@ATL@@QAEJIIJAAH@Z 100082ea f i POSPrinter.obj
 0001:00007358       ?OnPaint@CComControlBase@ATL@@QAEJIIJAAH@Z 10008358 f i POSPrinter.obj
 0001:0000740a       ?OnSetFocus@CComControlBase@ATL@@QAEJIIJAAH@Z 1000840a f i POSPrinter.obj
 0001:00007493       ?Open@CRegKey@ATL@@QAEJPAUHKEY__@@PB_WK@Z 10008493 f i POSPrinter.obj
 0001:000074e8       ?PreProcessBuffer@CRegParser@ATL@@QAEJPA_WPAPA_W@Z 100084e8 f i POSPrinter.obj
 0001:00007757       ?ProcessWindowMessage@?$CComControl@VCOPOSPOSPrinter@@V?$CWindowImpl@VCOPOSPOSPrinter@@VCWindow@ATL@@V?$CWinTraits@$0FGAAAAAA@$0A@@3@@ATL@@@ATL@@UAEHPAUHWND__@@IIJAAJK@Z 10008757 f i POSPrinter.obj
 0001:000077f6       ?ReadFromStream@CComBSTR@ATL@@QAEJPAUIStream@@@Z 100087f6 f i POSPrinter.obj
 0001:00007919       ?ReadFromStream@CComVariant@ATL@@QAEJPAUIStream@@GTClassesAllowedInStream@2@K@Z 10008919 f i POSPrinter.obj
 0001:00007aa3       ?RecurseDeleteKey@CRegKey@ATL@@QAEJPB_W@Z 10008aa3 f i POSPrinter.obj
 0001:00007b91       ?RegCreateKeyExW@CAtlTransactionManager@ATL@@QAEJPAUHKEY__@@PB_WKPA_WKKQAU_SECURITY_ATTRIBUTES@@PAPAU3@PAK@Z 10008b91 f i POSPrinter.obj
 0001:00007bf4       ?RegDeleteKeyW@CAtlTransactionManager@ATL@@QAEJPAUHKEY__@@PB_W@Z 10008bf4 f i POSPrinter.obj
 0001:00007c46       ?RegOpenKeyExW@CAtlTransactionManager@ATL@@QAEJPAUHKEY__@@PB_WKKPAPAU3@@Z 10008c46 f i POSPrinter.obj
 0001:00007c9d       ?Register@_ATL_WNDCLASSINFOW@ATL@@QAEGPAP6GJPAUHWND__@@IIJ@Z@Z 10008c9d f i POSPrinter.obj
 0001:00007cbd       ?RegisterBuffer@CRegParser@ATL@@QAEJPA_WH@Z 10008cbd f i POSPrinter.obj
 0001:00007e04       ?RegisterFromResource@CRegObject@ATL@@IAEJPB_W00H@Z 10008e04 f i POSPrinter.obj
 0001:00007f3a       ?RegisterServer@?$CAtlModuleT@VCComModule@ATL@@@ATL@@QAEJHPBU_GUID@@@Z 10008f3a f i POSPrinter.obj
 0001:00007f68       ?RegisterServer@CComModule@ATL@@QAEJHPBU_GUID@@@Z 10008f68 f i POSPrinter.obj
 0001:00007fde       ?RegisterSubkeys@CRegParser@ATL@@IAEJPA_WPAUHKEY__@@HH@Z 10008fde f i POSPrinter.obj
 0001:0000868b       ?Remove@CComDynamicUnkArray@ATL@@QAEHK@Z 1000968b f i POSPrinter.obj
 0001:000086b4       ?RemoveAll@?$CSimpleMap@PA_WPA_WVCExpansionVectorEqualHelper@ATL@@@ATL@@QAEXXZ 100096b4 f i POSPrinter.obj
 0001:000086e0       ?ResourceRegisterSz@CRegObject@ATL@@QAGJPB_W00@Z 100096e0 f i POSPrinter.obj
 0001:0000870d       ?ResourceUnregisterSz@CRegObject@ATL@@QAGJPB_W00@Z 1000970d f i POSPrinter.obj
 0001:0000873a       ?SendOnDataChange@CComControlBase@ATL@@QAEJK@Z 1000973a f i POSPrinter.obj
 0001:00008787       ?SetControlFocus@CComControlBase@ATL@@QAEHH@Z 10009787 f i POSPrinter.obj
 0001:00008824       ?SetMultiStringValue@CRegKey@ATL@@QAEJPB_W0@Z 10009824 f i POSPrinter.obj
 0001:00008880       ?SetStringValue@CRegKey@ATL@@QAEJPB_W0K@Z 10009880 f i POSPrinter.obj
 0001:000088c9       ?SkipAssignment@CRegParser@ATL@@IAEJPA_W@Z 100098c9 f i POSPrinter.obj
 0001:0000892e       ?SkipWhiteSpace@CRegParser@ATL@@IAEXXZ 1000992e f i POSPrinter.obj
 0001:00008950       ?StrChrW@CRegParser@ATL@@KAPA_WPA_W_W@Z 10009950 f i POSPrinter.obj
 0001:0000898d       ?Term@CAtlModule@ATL@@QAEXXZ 1000998d f i POSPrinter.obj
 0001:000089e0       ?Term@CComModule@ATL@@QAEXXZ 100099e0 f i POSPrinter.obj
 0001:00008a38       ?UnregisterServer@?$CAtlModuleT@VCComModule@ATL@@@ATL@@QAEJHPBU_GUID@@@Z 10009a38 f i POSPrinter.obj
 0001:00008a5e       ?UnregisterServer@CComModule@ATL@@QAEJHPBU_GUID@@@Z 10009a5e f i POSPrinter.obj
 0001:00008ad4       ?UpdateRegistryFromResource@CAtlModule@ATL@@QAGJIHPAU_ATL_REGMAP_ENTRY@2@@Z 10009ad4 f i POSPrinter.obj
 0001:00008c9f       ?UpdateRegistryFromResource@CAtlModule@ATL@@QAGJPB_WHPAU_ATL_REGMAP_ENTRY@2@@Z 10009c9f f i POSPrinter.obj
 0001:00008e70       ?VTFromRegType@CRegParser@ATL@@KAHPB_WAAG@Z 10009e70 f i POSPrinter.obj
 0001:00008edd       ?WindowProc@?$CWindowImplBaseT@VCWindow@ATL@@V?$CWinTraits@$0FGAAAAAA@$0A@@2@@ATL@@SGJPAUHWND__@@IIJ@Z 10009edd f i POSPrinter.obj
 0001:00008fcf       ?WriteToStream@CComBSTR@ATL@@QAEJPAUIStream@@@Z 10009fcf f i POSPrinter.obj
 0001:00009031       ?WriteToStream@CComVariant@ATL@@QAEJPAUIStream@@@Z 1000a031 f i POSPrinter.obj
 0001:000091ab       ?WriteToStream@CComVariant@ATL@@QAEJPAUIStream@@G@Z 1000a1ab f i POSPrinter.obj
 0001:00009214       ?_AtlInitialConstruct@?$CComObjectRootEx@VCComMultiThreadModel@ATL@@@ATL@@QAEJXZ 1000a214 f i POSPrinter.obj
 0001:00009229       ?_AtlVerifyStackAvailable@_ATL_SAFE_ALLOCA_IMPL@ATL@@YA_NK@Z 1000a229 f i POSPrinter.obj
 0001:000092a7       ?atlCreate@?$CWindowImpl@VCOPOSPOSPrinter@@VCWindow@ATL@@V?$CWinTraits@$0FGAAAAAA@$0A@@3@@ATL@@QAEPAUHWND__@@PAU3@V_U_RECT@2@PB_WKKV_U_MENUorID@2@PAX@Z 1000a2a7 f i POSPrinter.obj
 0001:000092eb       ?atlCreate@?$CWindowImplBaseT@VCWindow@ATL@@V?$CWinTraits@$0FGAAAAAA@$0A@@2@@ATL@@QAEPAUHWND__@@PAU3@V_U_RECT@2@PB_WKKV_U_MENUorID@2@GPAX@Z 1000a2eb f i POSPrinter.obj
 0001:00009387       ?copy@?$_Copy@UtagCONNECTDATA@@@ATL@@SAJPAUtagCONNECTDATA@@PBU3@@Z 1000a387 f i POSPrinter.obj
 0001:000093bd       ?copy@?$_CopyInterface@UIConnectionPoint@@@ATL@@SAJPAPAUIConnectionPoint@@PBQAU3@@Z 1000a3bd f i POSPrinter.obj
 0001:000093eb       ?memcpy_s@Checked@ATL@@YAXPAXIPBXI@Z 1000a3eb f i POSPrinter.obj
 0001:0000940a       ?ocscpy_s@@YA_NPA_WIPB_W@Z 1000a40a f i POSPrinter.obj
 0001:00009454       ?wcscpy_s@Checked@ATL@@YAXPA_WIPB_W@Z 1000a454 f i POSPrinter.obj
 0001:00009470       _DllCanUnloadNow@0         1000a470 f   POSPrinter.obj
 0001:0000947c       _DllGetClassObject@12      1000a47c f   POSPrinter.obj
 0001:0000948a       _DllMain@12                1000a48a f   POSPrinter.obj
 0001:000094cc       _DllRegisterServer@0       1000a4cc f   POSPrinter.obj
 0001:000094db       _DllUnregisterServer@0     1000a4db f   POSPrinter.obj
 0001:000094ea       _InlineIsEqualGUID         1000a4ea f i POSPrinter.obj
 0001:0000951a       ___local_stdio_printf_options 1000a51a f i POSPrinter.obj
 0001:00009520       __vswprintf_s_l            1000a520 f i POSPrinter.obj
 0001:000095cd       _swprintf_s                1000a5cd f i POSPrinter.obj
 0001:000095e9       ??0?$CComControl@VCOPOSPOSPrinter@@V?$CWindowImpl@VCOPOSPOSPrinter@@VCWindow@ATL@@V?$CWinTraits@$0FGAAAAAA@$0A@@3@@ATL@@@ATL@@QAE@XZ 1000a5e9 f i POSPrinterImpl.obj
 0001:00009610       ??0?$CProxy_IOPOSEvents@VCOPOSPOSPrinter@@@@QAE@XZ 1000a610 f i POSPrinterImpl.obj
 0001:00009630       ??0CComControlBase@ATL@@QAE@AAPAUHWND__@@@Z 1000a630 f i POSPrinterImpl.obj
 0001:00009680       ??0COPOSPOSPrinter@@QAE@XZ 1000a680 f   POSPrinterImpl.obj
 0001:000096b6       ??1?$CComControl@VCOPOSPOSPrinter@@V?$CWindowImpl@VCOPOSPOSPrinter@@VCWindow@ATL@@V?$CWinTraits@$0FGAAAAAA@$0A@@3@@ATL@@@ATL@@UAE@XZ 1000a6b6 f i POSPrinterImpl.obj
 0001:000096cf       ??1?$IConnectionPointImpl@VCOPOSPOSPrinter@@$1?DIID__IOPOSPOSPrinterEvents@@3U_GUID@@BVCComDynamicUnkArray@ATL@@@ATL@@QAE@XZ 1000a6cf f i POSPrinterImpl.obj
 0001:000096cf       ??1?$IConnectionPointImpl@VCOPOSPOSPrinter@@$1?IID_IPropertyNotifySink@@3U_GUID@@BVCComDynamicUnkArray@ATL@@@ATL@@QAE@XZ 1000a6cf f i POSPrinterImpl.obj
 0001:0000970c       ??1CComControlBase@ATL@@UAE@XZ 1000a70c f i POSPrinterImpl.obj
 0001:0000976f       ??1COPOSPOSPrinter@@UAE@XZ 1000a76f f   POSPrinterImpl.obj
 0001:000097b7       ?BeginInsertion@COPOSPOSPrinter@@UAGJJPAJ@Z 1000a7b7 f   POSPrinterImpl.obj
 0001:00009806       ?BeginRemoval@COPOSPOSPrinter@@UAGJJPAJ@Z 1000a806 f   POSPrinterImpl.obj
 0001:00009855       ?ChangePrintSide@COPOSPOSPrinter@@UAGJJPAJ@Z 1000a855 f   POSPrinterImpl.obj
 0001:000098a4       ?CheckHealth@COPOSPOSPrinter@@UAGJJPAJ@Z 1000a8a4 f   POSPrinterImpl.obj
 0001:000098f3       ?ClaimDevice@COPOSPOSPrinter@@UAGJJPAJ@Z 1000a8f3 f   POSPrinterImpl.obj
 0001:00009968       ?ClearOutput@COPOSPOSPrinter@@UAGJPAJ@Z 1000a968 f   POSPrinterImpl.obj
 0001:00009983       ?ClearPrintArea@COPOSPOSPrinter@@UAGJPAJ@Z 1000a983 f   POSPrinterImpl.obj
 0001:0000999e       ?Close@COPOSPOSPrinter@@UAGJPAJ@Z 1000a99e f   POSPrinterImpl.obj
 0001:00009a0c       ?CompareFirmwareVersion@COPOSPOSPrinter@@UAGJPA_WPAJ1@Z 1000aa0c f   POSPrinterImpl.obj
 0001:00009a8c       ?CutPaper@COPOSPOSPrinter@@UAGJJPAJ@Z 1000aa8c f   POSPrinterImpl.obj
 0001:00009adb       ?DirectIO@COPOSPOSPrinter@@UAGJJPAJPAPA_W0@Z 1000aadb f   POSPrinterImpl.obj
 0001:00009b89       ?DoInvoke@COPOSPOSPrinter@@IAEJJPAVOposVariant@@IHPAJ_N@Z 1000ab89 f   POSPrinterImpl.obj
 0001:00009c65       ?DrawRuledLine@COPOSPOSPrinter@@UAGJJPA_WJJJJPAJ@Z 1000ac65 f   POSPrinterImpl.obj
 0001:00009d45       ?EndInsertion@COPOSPOSPrinter@@UAGJPAJ@Z 1000ad45 f   POSPrinterImpl.obj
 0001:00009d60       ?EndRemoval@COPOSPOSPrinter@@UAGJPAJ@Z 1000ad60 f   POSPrinterImpl.obj
 0001:00009d7b       ?EventClose@COPOSPOSPrinter@@IAEXXZ 1000ad7b f i POSPrinterImpl.obj
 0001:00009dae       ?EventInit@COPOSPOSPrinter@@IAEJXZ 1000adae f i POSPrinterImpl.obj
 0001:00009e7a       ?EventUninit@COPOSPOSPrinter@@IAEXXZ 1000ae7a f i POSPrinterImpl.obj
 0001:00009ecc       ?EventWindowProc@COPOSPOSPrinter@@IAGJIIJ@Z 1000aecc f i POSPrinterImpl.obj
 0001:00009f9f       ?FinalConstruct@COPOSPOSPrinter@@QAEJXZ 1000af9f f   POSPrinterImpl.obj
 0001:00009fd8       ?FireEventCleanup@COPOSPOSPrinter@@IAEXXZ 1000afd8 f i POSPrinterImpl.obj
 0001:00009fee       ?FireEventSetup@COPOSPOSPrinter@@IAE_NXZ 1000afee f i POSPrinterImpl.obj
 0001:0000a022       ?FreezeEvents@COPOSPOSPrinter@@MAGJH@Z 1000b022 f   POSPrinterImpl.obj
 0001:0000a082       ?GetOposProp@COPOSPOSPrinter@@IAEJJPAFJ@Z 1000b082 f   POSPrinterImpl.obj
 0001:0000a0a5       ?GetOposProp@COPOSPOSPrinter@@IAEJJPAJJ@Z 1000b0a5 f   POSPrinterImpl.obj
 0001:0000a174       ?GetOposProp@COPOSPOSPrinter@@IAEJJPAPA_WJ@Z 1000b174 f   POSPrinterImpl.obj
 0001:0000a250       ?MarkFeed@COPOSPOSPrinter@@UAGJJPAJ@Z 1000b250 f   POSPrinterImpl.obj
 0001:0000a29f       ?OnDraw@COPOSPOSPrinter@@MAEJAAUATL_DRAWINFO@@@Z 1000b29f f   POSPrinterImpl.obj
 0001:0000a33f       ?Open@COPOSPOSPrinter@@UAGJPA_WPAJ@Z 1000b33f f   POSPrinterImpl.obj
 0001:0000ab82       ?PageModePrint@COPOSPOSPrinter@@UAGJJPAJ@Z 1000bb82 f   POSPrinterImpl.obj
 0001:0000abd1       ?PrintBarCode@COPOSPOSPrinter@@UAGJJPA_WJJJJJPAJ@Z 1000bbd1 f   POSPrinterImpl.obj
 0001:0000acbf       ?PrintBitmap@COPOSPOSPrinter@@UAGJJPA_WJJPAJ@Z 1000bcbf f   POSPrinterImpl.obj
 0001:0000ad6e       ?PrintImmediate@COPOSPOSPrinter@@UAGJJPA_WPAJ@Z 1000bd6e f   POSPrinterImpl.obj
 0001:0000adea       ?PrintMemoryBitmap@COPOSPOSPrinter@@UAGJJPA_WJJJPAJ@Z 1000bdea f   POSPrinterImpl.obj
 0001:0000aead       ?PrintNormal@COPOSPOSPrinter@@UAGJJPA_WPAJ@Z 1000bead f   POSPrinterImpl.obj
 0001:0000af29       ?PrintTwoNormal@COPOSPOSPrinter@@UAGJJPA_W0PAJ@Z 1000bf29 f   POSPrinterImpl.obj
 0001:0000afd7       ?ReleaseDevice@COPOSPOSPrinter@@UAGJPAJ@Z 1000bfd7 f   POSPrinterImpl.obj
 0001:0000b026       ?ResetStatistics@COPOSPOSPrinter@@UAGJPA_WPAJ@Z 1000c026 f   POSPrinterImpl.obj
 0001:0000b07d       ?RetrieveStatistics@COPOSPOSPrinter@@UAGJPAPA_WPAJ@Z 1000c07d f   POSPrinterImpl.obj
 0001:0000b0d4       ?RotatePrint@COPOSPOSPrinter@@UAGJJJPAJ@Z 1000c0d4 f   POSPrinterImpl.obj
 0001:0000b148       ?SOProcessID@COPOSPOSPrinter@@UAGJPAJ@Z 1000c148 f   POSPrinterImpl.obj
 0001:0000b15c       ?SetBitmap@COPOSPOSPrinter@@UAGJJJPA_WJJPAJ@Z 1000c15c f   POSPrinterImpl.obj
 0001:0000b21f       ?SetCOFreezeEvents@COPOSPOSPrinter@@IAEXF@Z 1000c21f f   POSPrinterImpl.obj
 0001:0000b2bf       ?SetLogo@COPOSPOSPrinter@@UAGJJPA_WPAJ@Z 1000c2bf f   POSPrinterImpl.obj
 0001:0000b33b       ?SetOposProp@COPOSPOSPrinter@@IAEJJJJ@Z 1000c33b f   POSPrinterImpl.obj
 0001:0000b432       ?SetOposProp@COPOSPOSPrinter@@IAEJJPA_WJ@Z 1000c432 f   POSPrinterImpl.obj
 0001:0000b533       ?TransactionPrint@COPOSPOSPrinter@@UAGJJJPAJ@Z 1000c533 f   POSPrinterImpl.obj
 0001:0000b5a7       ?UpdateFirmware@COPOSPOSPrinter@@UAGJPA_WPAJ@Z 1000c5a7 f   POSPrinterImpl.obj
 0001:0000b5fe       ?UpdateStatistics@COPOSPOSPrinter@@UAGJPA_WPAJ@Z 1000c5fe f   POSPrinterImpl.obj
 0001:0000b655       ?ValidateData@COPOSPOSPrinter@@UAGJJPA_WPAJ@Z 1000c655 f   POSPrinterImpl.obj
 0001:0000b6d1       ?get_AsyncMode@COPOSPOSPrinter@@UAGJPAF@Z 1000c6d1 f   POSPrinterImpl.obj
 0001:0000b6ea       ?get_BinaryConversion@COPOSPOSPrinter@@UAGJPAJ@Z 1000c6ea f   POSPrinterImpl.obj
 0001:0000b700       ?get_CapCharacterSet@COPOSPOSPrinter@@UAGJPAJ@Z 1000c700 f   POSPrinterImpl.obj
 0001:0000b719       ?get_CapCompareFirmwareVersion@COPOSPOSPrinter@@UAGJPAF@Z 1000c719 f   POSPrinterImpl.obj
 0001:0000b732       ?get_CapConcurrentJrnRec@COPOSPOSPrinter@@UAGJPAF@Z 1000c732 f   POSPrinterImpl.obj
 0001:0000b74b       ?get_CapConcurrentJrnSlp@COPOSPOSPrinter@@UAGJPAF@Z 1000c74b f   POSPrinterImpl.obj
 0001:0000b764       ?get_CapConcurrentPageMode@COPOSPOSPrinter@@UAGJPAF@Z 1000c764 f   POSPrinterImpl.obj
 0001:0000b77d       ?get_CapConcurrentRecSlp@COPOSPOSPrinter@@UAGJPAF@Z 1000c77d f   POSPrinterImpl.obj
 0001:0000b796       ?get_CapCoverSensor@COPOSPOSPrinter@@UAGJPAF@Z 1000c796 f   POSPrinterImpl.obj
 0001:0000b7af       ?get_CapJrn2Color@COPOSPOSPrinter@@UAGJPAF@Z 1000c7af f   POSPrinterImpl.obj
 0001:0000b7c8       ?get_CapJrnBold@COPOSPOSPrinter@@UAGJPAF@Z 1000c7c8 f   POSPrinterImpl.obj
 0001:0000b7e1       ?get_CapJrnCartridgeSensor@COPOSPOSPrinter@@UAGJPAJ@Z 1000c7e1 f   POSPrinterImpl.obj
 0001:0000b7fa       ?get_CapJrnColor@COPOSPOSPrinter@@UAGJPAJ@Z 1000c7fa f   POSPrinterImpl.obj
 0001:0000b813       ?get_CapJrnDhigh@COPOSPOSPrinter@@UAGJPAF@Z 1000c813 f   POSPrinterImpl.obj
 0001:0000b82c       ?get_CapJrnDwide@COPOSPOSPrinter@@UAGJPAF@Z 1000c82c f   POSPrinterImpl.obj
 0001:0000b845       ?get_CapJrnDwideDhigh@COPOSPOSPrinter@@UAGJPAF@Z 1000c845 f   POSPrinterImpl.obj
 0001:0000b85e       ?get_CapJrnEmptySensor@COPOSPOSPrinter@@UAGJPAF@Z 1000c85e f   POSPrinterImpl.obj
 0001:0000b877       ?get_CapJrnItalic@COPOSPOSPrinter@@UAGJPAF@Z 1000c877 f   POSPrinterImpl.obj
 0001:0000b890       ?get_CapJrnNearEndSensor@COPOSPOSPrinter@@UAGJPAF@Z 1000c890 f   POSPrinterImpl.obj
 0001:0000b8a9       ?get_CapJrnPresent@COPOSPOSPrinter@@UAGJPAF@Z 1000c8a9 f   POSPrinterImpl.obj
 0001:0000b8c2       ?get_CapJrnUnderline@COPOSPOSPrinter@@UAGJPAF@Z 1000c8c2 f   POSPrinterImpl.obj
 0001:0000b8db       ?get_CapMapCharacterSet@COPOSPOSPrinter@@UAGJPAF@Z 1000c8db f   POSPrinterImpl.obj
 0001:0000b8f4       ?get_CapPowerReporting@COPOSPOSPrinter@@UAGJPAJ@Z 1000c8f4 f   POSPrinterImpl.obj
 0001:0000b90d       ?get_CapRec2Color@COPOSPOSPrinter@@UAGJPAF@Z 1000c90d f   POSPrinterImpl.obj
 0001:0000b926       ?get_CapRecBarCode@COPOSPOSPrinter@@UAGJPAF@Z 1000c926 f   POSPrinterImpl.obj
 0001:0000b93f       ?get_CapRecBitmap@COPOSPOSPrinter@@UAGJPAF@Z 1000c93f f   POSPrinterImpl.obj
 0001:0000b958       ?get_CapRecBold@COPOSPOSPrinter@@UAGJPAF@Z 1000c958 f   POSPrinterImpl.obj
 0001:0000b971       ?get_CapRecCartridgeSensor@COPOSPOSPrinter@@UAGJPAJ@Z 1000c971 f   POSPrinterImpl.obj
 0001:0000b98a       ?get_CapRecColor@COPOSPOSPrinter@@UAGJPAJ@Z 1000c98a f   POSPrinterImpl.obj
 0001:0000b9a3       ?get_CapRecDhigh@COPOSPOSPrinter@@UAGJPAF@Z 1000c9a3 f   POSPrinterImpl.obj
 0001:0000b9bc       ?get_CapRecDwide@COPOSPOSPrinter@@UAGJPAF@Z 1000c9bc f   POSPrinterImpl.obj
 0001:0000b9d5       ?get_CapRecDwideDhigh@COPOSPOSPrinter@@UAGJPAF@Z 1000c9d5 f   POSPrinterImpl.obj
 0001:0000b9ee       ?get_CapRecEmptySensor@COPOSPOSPrinter@@UAGJPAF@Z 1000c9ee f   POSPrinterImpl.obj
 0001:0000ba07       ?get_CapRecItalic@COPOSPOSPrinter@@UAGJPAF@Z 1000ca07 f   POSPrinterImpl.obj
 0001:0000ba20       ?get_CapRecLeft90@COPOSPOSPrinter@@UAGJPAF@Z 1000ca20 f   POSPrinterImpl.obj
 0001:0000ba39       ?get_CapRecMarkFeed@COPOSPOSPrinter@@UAGJPAJ@Z 1000ca39 f   POSPrinterImpl.obj
 0001:0000ba52       ?get_CapRecNearEndSensor@COPOSPOSPrinter@@UAGJPAF@Z 1000ca52 f   POSPrinterImpl.obj
 0001:0000ba6b       ?get_CapRecPageMode@COPOSPOSPrinter@@UAGJPAF@Z 1000ca6b f   POSPrinterImpl.obj
 0001:0000ba84       ?get_CapRecPapercut@COPOSPOSPrinter@@UAGJPAF@Z 1000ca84 f   POSPrinterImpl.obj
 0001:0000ba9d       ?get_CapRecPresent@COPOSPOSPrinter@@UAGJPAF@Z 1000ca9d f   POSPrinterImpl.obj
 0001:0000bab6       ?get_CapRecRight90@COPOSPOSPrinter@@UAGJPAF@Z 1000cab6 f   POSPrinterImpl.obj
 0001:0000bacf       ?get_CapRecRotate180@COPOSPOSPrinter@@UAGJPAF@Z 1000cacf f   POSPrinterImpl.obj
 0001:0000bae8       ?get_CapRecRuledLine@COPOSPOSPrinter@@UAGJPAJ@Z 1000cae8 f   POSPrinterImpl.obj
 0001:0000bb01       ?get_CapRecStamp@COPOSPOSPrinter@@UAGJPAF@Z 1000cb01 f   POSPrinterImpl.obj
 0001:0000bb1a       ?get_CapRecUnderline@COPOSPOSPrinter@@UAGJPAF@Z 1000cb1a f   POSPrinterImpl.obj
 0001:0000bb33       ?get_CapSlp2Color@COPOSPOSPrinter@@UAGJPAF@Z 1000cb33 f   POSPrinterImpl.obj
 0001:0000bb4c       ?get_CapSlpBarCode@COPOSPOSPrinter@@UAGJPAF@Z 1000cb4c f   POSPrinterImpl.obj
 0001:0000bb65       ?get_CapSlpBitmap@COPOSPOSPrinter@@UAGJPAF@Z 1000cb65 f   POSPrinterImpl.obj
 0001:0000bb7e       ?get_CapSlpBold@COPOSPOSPrinter@@UAGJPAF@Z 1000cb7e f   POSPrinterImpl.obj
 0001:0000bb97       ?get_CapSlpBothSidesPrint@COPOSPOSPrinter@@UAGJPAF@Z 1000cb97 f   POSPrinterImpl.obj
 0001:0000bbb0       ?get_CapSlpCartridgeSensor@COPOSPOSPrinter@@UAGJPAJ@Z 1000cbb0 f   POSPrinterImpl.obj
 0001:0000bbc9       ?get_CapSlpColor@COPOSPOSPrinter@@UAGJPAJ@Z 1000cbc9 f   POSPrinterImpl.obj
 0001:0000bbe2       ?get_CapSlpDhigh@COPOSPOSPrinter@@UAGJPAF@Z 1000cbe2 f   POSPrinterImpl.obj
 0001:0000bbfb       ?get_CapSlpDwide@COPOSPOSPrinter@@UAGJPAF@Z 1000cbfb f   POSPrinterImpl.obj
 0001:0000bc14       ?get_CapSlpDwideDhigh@COPOSPOSPrinter@@UAGJPAF@Z 1000cc14 f   POSPrinterImpl.obj
 0001:0000bc2d       ?get_CapSlpEmptySensor@COPOSPOSPrinter@@UAGJPAF@Z 1000cc2d f   POSPrinterImpl.obj
 0001:0000bc46       ?get_CapSlpFullslip@COPOSPOSPrinter@@UAGJPAF@Z 1000cc46 f   POSPrinterImpl.obj
 0001:0000bc5f       ?get_CapSlpItalic@COPOSPOSPrinter@@UAGJPAF@Z 1000cc5f f   POSPrinterImpl.obj
 0001:0000bc78       ?get_CapSlpLeft90@COPOSPOSPrinter@@UAGJPAF@Z 1000cc78 f   POSPrinterImpl.obj
 0001:0000bc91       ?get_CapSlpNearEndSensor@COPOSPOSPrinter@@UAGJPAF@Z 1000cc91 f   POSPrinterImpl.obj
 0001:0000bcaa       ?get_CapSlpPageMode@COPOSPOSPrinter@@UAGJPAF@Z 1000ccaa f   POSPrinterImpl.obj
 0001:0000bcc3       ?get_CapSlpPresent@COPOSPOSPrinter@@UAGJPAF@Z 1000ccc3 f   POSPrinterImpl.obj
 0001:0000bcdc       ?get_CapSlpRight90@COPOSPOSPrinter@@UAGJPAF@Z 1000ccdc f   POSPrinterImpl.obj
 0001:0000bcf5       ?get_CapSlpRotate180@COPOSPOSPrinter@@UAGJPAF@Z 1000ccf5 f   POSPrinterImpl.obj
 0001:0000bd0e       ?get_CapSlpRuledLine@COPOSPOSPrinter@@UAGJPAJ@Z 1000cd0e f   POSPrinterImpl.obj
 0001:0000bd27       ?get_CapSlpUnderline@COPOSPOSPrinter@@UAGJPAF@Z 1000cd27 f   POSPrinterImpl.obj
 0001:0000bd40       ?get_CapStatisticsReporting@COPOSPOSPrinter@@UAGJPAF@Z 1000cd40 f   POSPrinterImpl.obj
 0001:0000bd59       ?get_CapTransaction@COPOSPOSPrinter@@UAGJPAF@Z 1000cd59 f   POSPrinterImpl.obj
 0001:0000bd72       ?get_CapUpdateFirmware@COPOSPOSPrinter@@UAGJPAF@Z 1000cd72 f   POSPrinterImpl.obj
 0001:0000bd8b       ?get_CapUpdateStatistics@COPOSPOSPrinter@@UAGJPAF@Z 1000cd8b f   POSPrinterImpl.obj
 0001:0000bda4       ?get_CartridgeNotify@COPOSPOSPrinter@@UAGJPAJ@Z 1000cda4 f   POSPrinterImpl.obj
 0001:0000bdbd       ?get_CharacterSet@COPOSPOSPrinter@@UAGJPAJ@Z 1000cdbd f   POSPrinterImpl.obj
 0001:0000bdd6       ?get_CharacterSetList@COPOSPOSPrinter@@UAGJPAPA_W@Z 1000cdd6 f   POSPrinterImpl.obj
 0001:0000bdef       ?get_CheckHealthText@COPOSPOSPrinter@@UAGJPAPA_W@Z 1000cdef f   POSPrinterImpl.obj
 0001:0000be08       ?get_Claimed@COPOSPOSPrinter@@UAGJPAF@Z 1000ce08 f   POSPrinterImpl.obj
 0001:0000be1e       ?get_ControlObjectDescription@COPOSPOSPrinter@@UAGJPAPA_W@Z 1000ce1e f   POSPrinterImpl.obj
 0001:0000be6c       ?get_ControlObjectVersion@COPOSPOSPrinter@@UAGJPAJ@Z 1000ce6c f   POSPrinterImpl.obj
 0001:0000be7f       ?get_CoverOpen@COPOSPOSPrinter@@UAGJPAF@Z 1000ce7f f   POSPrinterImpl.obj
 0001:0000be98       ?get_DeviceDescription@COPOSPOSPrinter@@UAGJPAPA_W@Z 1000ce98 f   POSPrinterImpl.obj
 0001:0000beb1       ?get_DeviceEnabled@COPOSPOSPrinter@@UAGJPAF@Z 1000ceb1 f   POSPrinterImpl.obj
 0001:0000bec7       ?get_DeviceName@COPOSPOSPrinter@@UAGJPAPA_W@Z 1000cec7 f   POSPrinterImpl.obj
 0001:0000bee0       ?get_ErrorLevel@COPOSPOSPrinter@@UAGJPAJ@Z 1000cee0 f   POSPrinterImpl.obj
 0001:0000bef9       ?get_ErrorStation@COPOSPOSPrinter@@UAGJPAJ@Z 1000cef9 f   POSPrinterImpl.obj
 0001:0000bf12       ?get_ErrorString@COPOSPOSPrinter@@UAGJPAPA_W@Z 1000cf12 f   POSPrinterImpl.obj
 0001:0000bf2b       ?get_FlagWhenIdle@COPOSPOSPrinter@@UAGJPAF@Z 1000cf2b f   POSPrinterImpl.obj
 0001:0000bf44       ?get_FontTypefaceList@COPOSPOSPrinter@@UAGJPAPA_W@Z 1000cf44 f   POSPrinterImpl.obj
 0001:0000bf5d       ?get_FreezeEvents@COPOSPOSPrinter@@UAGJPAF@Z 1000cf5d f   POSPrinterImpl.obj
 0001:0000bf73       ?get_JrnCartridgeState@COPOSPOSPrinter@@UAGJPAJ@Z 1000cf73 f   POSPrinterImpl.obj
 0001:0000bf8c       ?get_JrnCurrentCartridge@COPOSPOSPrinter@@UAGJPAJ@Z 1000cf8c f   POSPrinterImpl.obj
 0001:0000bfa5       ?get_JrnEmpty@COPOSPOSPrinter@@UAGJPAF@Z 1000cfa5 f   POSPrinterImpl.obj
 0001:0000bfbe       ?get_JrnLetterQuality@COPOSPOSPrinter@@UAGJPAF@Z 1000cfbe f   POSPrinterImpl.obj
 0001:0000bfd7       ?get_JrnLineChars@COPOSPOSPrinter@@UAGJPAJ@Z 1000cfd7 f   POSPrinterImpl.obj
 0001:0000bff0       ?get_JrnLineCharsList@COPOSPOSPrinter@@UAGJPAPA_W@Z 1000cff0 f   POSPrinterImpl.obj
 0001:0000c009       ?get_JrnLineHeight@COPOSPOSPrinter@@UAGJPAJ@Z 1000d009 f   POSPrinterImpl.obj
 0001:0000c022       ?get_JrnLineSpacing@COPOSPOSPrinter@@UAGJPAJ@Z 1000d022 f   POSPrinterImpl.obj
 0001:0000c03b       ?get_JrnLineWidth@COPOSPOSPrinter@@UAGJPAJ@Z 1000d03b f   POSPrinterImpl.obj
 0001:0000c054       ?get_JrnNearEnd@COPOSPOSPrinter@@UAGJPAF@Z 1000d054 f   POSPrinterImpl.obj
 0001:0000c06d       ?get_MapCharacterSet@COPOSPOSPrinter@@UAGJPAF@Z 1000d06d f   POSPrinterImpl.obj
 0001:0000c086       ?get_MapMode@COPOSPOSPrinter@@UAGJPAJ@Z 1000d086 f   POSPrinterImpl.obj
 0001:0000c09f       ?get_OpenResult@COPOSPOSPrinter@@UAGJPAJ@Z 1000d09f f   POSPrinterImpl.obj
 0001:0000c0b6       ?get_OutputID@COPOSPOSPrinter@@UAGJPAJ@Z 1000d0b6 f   POSPrinterImpl.obj
 0001:0000c0cc       ?get_PageModeArea@COPOSPOSPrinter@@UAGJPAPA_W@Z 1000d0cc f   POSPrinterImpl.obj
 0001:0000c0e5       ?get_PageModeDescriptor@COPOSPOSPrinter@@UAGJPAJ@Z 1000d0e5 f   POSPrinterImpl.obj
 0001:0000c0fe       ?get_PageModeHorizontalPosition@COPOSPOSPrinter@@UAGJPAJ@Z 1000d0fe f   POSPrinterImpl.obj
 0001:0000c117       ?get_PageModePrintArea@COPOSPOSPrinter@@UAGJPAPA_W@Z 1000d117 f   POSPrinterImpl.obj
 0001:0000c130       ?get_PageModePrintDirection@COPOSPOSPrinter@@UAGJPAJ@Z 1000d130 f   POSPrinterImpl.obj
 0001:0000c149       ?get_PageModeStation@COPOSPOSPrinter@@UAGJPAJ@Z 1000d149 f   POSPrinterImpl.obj
 0001:0000c162       ?get_PageModeVerticalPosition@COPOSPOSPrinter@@UAGJPAJ@Z 1000d162 f   POSPrinterImpl.obj
 0001:0000c17b       ?get_PowerNotify@COPOSPOSPrinter@@UAGJPAJ@Z 1000d17b f   POSPrinterImpl.obj
 0001:0000c191       ?get_PowerState@COPOSPOSPrinter@@UAGJPAJ@Z 1000d191 f   POSPrinterImpl.obj
 0001:0000c1a7       ?get_RecBarCodeRotationList@COPOSPOSPrinter@@UAGJPAPA_W@Z 1000d1a7 f   POSPrinterImpl.obj
 0001:0000c1c0       ?get_RecBitmapRotationList@COPOSPOSPrinter@@UAGJPAPA_W@Z 1000d1c0 f   POSPrinterImpl.obj
 0001:0000c1d9       ?get_RecCartridgeState@COPOSPOSPrinter@@UAGJPAJ@Z 1000d1d9 f   POSPrinterImpl.obj
 0001:0000c1f2       ?get_RecCurrentCartridge@COPOSPOSPrinter@@UAGJPAJ@Z 1000d1f2 f   POSPrinterImpl.obj
 0001:0000c20b       ?get_RecEmpty@COPOSPOSPrinter@@UAGJPAF@Z 1000d20b f   POSPrinterImpl.obj
 0001:0000c224       ?get_RecLetterQuality@COPOSPOSPrinter@@UAGJPAF@Z 1000d224 f   POSPrinterImpl.obj
 0001:0000c23d       ?get_RecLineChars@COPOSPOSPrinter@@UAGJPAJ@Z 1000d23d f   POSPrinterImpl.obj
 0001:0000c256       ?get_RecLineCharsList@COPOSPOSPrinter@@UAGJPAPA_W@Z 1000d256 f   POSPrinterImpl.obj
 0001:0000c26f       ?get_RecLineHeight@COPOSPOSPrinter@@UAGJPAJ@Z 1000d26f f   POSPrinterImpl.obj
 0001:0000c288       ?get_RecLineSpacing@COPOSPOSPrinter@@UAGJPAJ@Z 1000d288 f   POSPrinterImpl.obj
 0001:0000c2a1       ?get_RecLineWidth@COPOSPOSPrinter@@UAGJPAJ@Z 1000d2a1 f   POSPrinterImpl.obj
 0001:0000c2ba       ?get_RecLinesToPaperCut@COPOSPOSPrinter@@UAGJPAJ@Z 1000d2ba f   POSPrinterImpl.obj
 0001:0000c2d3       ?get_RecNearEnd@COPOSPOSPrinter@@UAGJPAF@Z 1000d2d3 f   POSPrinterImpl.obj
 0001:0000c2ec       ?get_RecSidewaysMaxChars@COPOSPOSPrinter@@UAGJPAJ@Z 1000d2ec f   POSPrinterImpl.obj
 0001:0000c305       ?get_RecSidewaysMaxLines@COPOSPOSPrinter@@UAGJPAJ@Z 1000d305 f   POSPrinterImpl.obj
 0001:0000c31e       ?get_ResultCode@COPOSPOSPrinter@@UAGJPAJ@Z 1000d31e f   POSPrinterImpl.obj
 0001:0000c35c       ?get_ResultCodeExtended@COPOSPOSPrinter@@UAGJPAJ@Z 1000d35c f   POSPrinterImpl.obj
 0001:0000c372       ?get_RotateSpecial@COPOSPOSPrinter@@UAGJPAJ@Z 1000d372 f   POSPrinterImpl.obj
 0001:0000c38b       ?get_ServiceObjectDescription@COPOSPOSPrinter@@UAGJPAPA_W@Z 1000d38b f   POSPrinterImpl.obj
 0001:0000c3a4       ?get_ServiceObjectVersion@COPOSPOSPrinter@@UAGJPAJ@Z 1000d3a4 f   POSPrinterImpl.obj
 0001:0000c3ba       ?get_SlpBarCodeRotationList@COPOSPOSPrinter@@UAGJPAPA_W@Z 1000d3ba f   POSPrinterImpl.obj
 0001:0000c3d3       ?get_SlpBitmapRotationList@COPOSPOSPrinter@@UAGJPAPA_W@Z 1000d3d3 f   POSPrinterImpl.obj
 0001:0000c3ec       ?get_SlpCartridgeState@COPOSPOSPrinter@@UAGJPAJ@Z 1000d3ec f   POSPrinterImpl.obj
 0001:0000c405       ?get_SlpCurrentCartridge@COPOSPOSPrinter@@UAGJPAJ@Z 1000d405 f   POSPrinterImpl.obj
 0001:0000c41e       ?get_SlpEmpty@COPOSPOSPrinter@@UAGJPAF@Z 1000d41e f   POSPrinterImpl.obj
 0001:0000c437       ?get_SlpLetterQuality@COPOSPOSPrinter@@UAGJPAF@Z 1000d437 f   POSPrinterImpl.obj
 0001:0000c450       ?get_SlpLineChars@COPOSPOSPrinter@@UAGJPAJ@Z 1000d450 f   POSPrinterImpl.obj
 0001:0000c469       ?get_SlpLineCharsList@COPOSPOSPrinter@@UAGJPAPA_W@Z 1000d469 f   POSPrinterImpl.obj
 0001:0000c482       ?get_SlpLineHeight@COPOSPOSPrinter@@UAGJPAJ@Z 1000d482 f   POSPrinterImpl.obj
 0001:0000c49b       ?get_SlpLineSpacing@COPOSPOSPrinter@@UAGJPAJ@Z 1000d49b f   POSPrinterImpl.obj
 0001:0000c4b4       ?get_SlpLineWidth@COPOSPOSPrinter@@UAGJPAJ@Z 1000d4b4 f   POSPrinterImpl.obj
 0001:0000c4cd       ?get_SlpLinesNearEndToEnd@COPOSPOSPrinter@@UAGJPAJ@Z 1000d4cd f   POSPrinterImpl.obj
 0001:0000c4e6       ?get_SlpMaxLines@COPOSPOSPrinter@@UAGJPAJ@Z 1000d4e6 f   POSPrinterImpl.obj
 0001:0000c4ff       ?get_SlpNearEnd@COPOSPOSPrinter@@UAGJPAF@Z 1000d4ff f   POSPrinterImpl.obj
 0001:0000c518       ?get_SlpPrintSide@COPOSPOSPrinter@@UAGJPAJ@Z 1000d518 f   POSPrinterImpl.obj
 0001:0000c531       ?get_SlpSidewaysMaxChars@COPOSPOSPrinter@@UAGJPAJ@Z 1000d531 f   POSPrinterImpl.obj
 0001:0000c54a       ?get_SlpSidewaysMaxLines@COPOSPOSPrinter@@UAGJPAJ@Z 1000d54a f   POSPrinterImpl.obj
 0001:0000c563       ?get_State@COPOSPOSPrinter@@UAGJPAJ@Z 1000d563 f   POSPrinterImpl.obj
 0001:0000c58f       ?put_AsyncMode@COPOSPOSPrinter@@UAGJF@Z 1000d58f f   POSPrinterImpl.obj
 0001:0000c5af       ?put_BinaryConversion@COPOSPOSPrinter@@UAGJJ@Z 1000d5af f   POSPrinterImpl.obj
 0001:0000c5c5       ?put_CartridgeNotify@COPOSPOSPrinter@@UAGJJ@Z 1000d5c5 f   POSPrinterImpl.obj
 0001:0000c5de       ?put_CharacterSet@COPOSPOSPrinter@@UAGJJ@Z 1000d5de f   POSPrinterImpl.obj
 0001:0000c5f7       ?put_DeviceEnabled@COPOSPOSPrinter@@UAGJF@Z 1000d5f7 f   POSPrinterImpl.obj
 0001:0000c614       ?put_FlagWhenIdle@COPOSPOSPrinter@@UAGJF@Z 1000d614 f   POSPrinterImpl.obj
 0001:0000c634       ?put_FreezeEvents@COPOSPOSPrinter@@UAGJF@Z 1000d634 f   POSPrinterImpl.obj
 0001:0000c680       ?put_JrnCurrentCartridge@COPOSPOSPrinter@@UAGJJ@Z 1000d680 f   POSPrinterImpl.obj
 0001:0000c699       ?put_JrnLetterQuality@COPOSPOSPrinter@@UAGJF@Z 1000d699 f   POSPrinterImpl.obj
 0001:0000c6b9       ?put_JrnLineChars@COPOSPOSPrinter@@UAGJJ@Z 1000d6b9 f   POSPrinterImpl.obj
 0001:0000c6d2       ?put_JrnLineHeight@COPOSPOSPrinter@@UAGJJ@Z 1000d6d2 f   POSPrinterImpl.obj
 0001:0000c6eb       ?put_JrnLineSpacing@COPOSPOSPrinter@@UAGJJ@Z 1000d6eb f   POSPrinterImpl.obj
 0001:0000c704       ?put_MapCharacterSet@COPOSPOSPrinter@@UAGJF@Z 1000d704 f   POSPrinterImpl.obj
 0001:0000c724       ?put_MapMode@COPOSPOSPrinter@@UAGJJ@Z 1000d724 f   POSPrinterImpl.obj
 0001:0000c73d       ?put_PageModeHorizontalPosition@COPOSPOSPrinter@@UAGJJ@Z 1000d73d f   POSPrinterImpl.obj
 0001:0000c756       ?put_PageModePrintArea@COPOSPOSPrinter@@UAGJPA_W@Z 1000d756 f   POSPrinterImpl.obj
 0001:0000c76f       ?put_PageModePrintDirection@COPOSPOSPrinter@@UAGJJ@Z 1000d76f f   POSPrinterImpl.obj
 0001:0000c788       ?put_PageModeStation@COPOSPOSPrinter@@UAGJJ@Z 1000d788 f   POSPrinterImpl.obj
 0001:0000c7a1       ?put_PageModeVerticalPosition@COPOSPOSPrinter@@UAGJJ@Z 1000d7a1 f   POSPrinterImpl.obj
 0001:0000c7ba       ?put_PowerNotify@COPOSPOSPrinter@@UAGJJ@Z 1000d7ba f   POSPrinterImpl.obj
 0001:0000c7d0       ?put_RecCurrentCartridge@COPOSPOSPrinter@@UAGJJ@Z 1000d7d0 f   POSPrinterImpl.obj
 0001:0000c7e9       ?put_RecLetterQuality@COPOSPOSPrinter@@UAGJF@Z 1000d7e9 f   POSPrinterImpl.obj
 0001:0000c809       ?put_RecLineChars@COPOSPOSPrinter@@UAGJJ@Z 1000d809 f   POSPrinterImpl.obj
 0001:0000c822       ?put_RecLineHeight@COPOSPOSPrinter@@UAGJJ@Z 1000d822 f   POSPrinterImpl.obj
 0001:0000c83b       ?put_RecLineSpacing@COPOSPOSPrinter@@UAGJJ@Z 1000d83b f   POSPrinterImpl.obj
 0001:0000c854       ?put_RotateSpecial@COPOSPOSPrinter@@UAGJJ@Z 1000d854 f   POSPrinterImpl.obj
 0001:0000c86d       ?put_SlpCurrentCartridge@COPOSPOSPrinter@@UAGJJ@Z 1000d86d f   POSPrinterImpl.obj
 0001:0000c886       ?put_SlpLetterQuality@COPOSPOSPrinter@@UAGJF@Z 1000d886 f   POSPrinterImpl.obj
 0001:0000c8a6       ?put_SlpLineChars@COPOSPOSPrinter@@UAGJJ@Z 1000d8a6 f   POSPrinterImpl.obj
 0001:0000c8bf       ?put_SlpLineHeight@COPOSPOSPrinter@@UAGJJ@Z 1000d8bf f   POSPrinterImpl.obj
 0001:0000c8d8       ?put_SlpLineSpacing@COPOSPOSPrinter@@UAGJJ@Z 1000d8d8 f   POSPrinterImpl.obj
 0001:0000c8f1       ?s_EventWindowProc@COPOSPOSPrinter@@KGJPAUHWND__@@IIJ@Z 1000d8f1 f i POSPrinterImpl.obj
 0001:0000c943       ??_U@YAPAXI@Z              1000d943 f   LIBCMT:new_array.obj
 0001:0000c94c       ??3@YAXPAXI@Z              1000d94c f   LIBCMT:delete_scalar_size.obj
 0001:0000c95a       ??_V@YAXPAX@Z              1000d95a f   LIBCMT:delete_array.obj
 0001:0000c95f       ??_V@YAXPAXI@Z             1000d95f f   LIBCMT:delete_array_size.obj
 0001:0000c9b1       ___scrt_acquire_startup_lock 1000d9b1 f   LIBCMT:utility.obj
 0001:0000c9e3       ___scrt_dllmain_after_initialize_c 1000d9e3 f   LIBCMT:utility.obj
 0001:0000ca0e       ___scrt_dllmain_before_initialize_c 1000da0e f   LIBCMT:utility.obj
 0001:0000ca1c       ___scrt_dllmain_crt_thread_attach 1000da1c f   LIBCMT:utility.obj
 0001:0000ca3b       ___scrt_dllmain_crt_thread_detach 1000da3b f   LIBCMT:utility.obj
 0001:0000ca48       ___scrt_dllmain_exception_filter 1000da48 f   LIBCMT:utility.obj
 0001:0000ca7c       ___scrt_dllmain_uninitialize_c 1000da7c f   LIBCMT:utility.obj
 0001:0000ca9f       ___scrt_dllmain_uninitialize_critical 1000da9f f   LIBCMT:utility.obj
 0001:0000caac       ___scrt_initialize_crt     1000daac f   LIBCMT:utility.obj
 0001:0000cae5       ___scrt_initialize_onexit_tables 1000dae5 f   LIBCMT:utility.obj
 0001:0000cb6c       ___scrt_is_nonwritable_in_current_image 1000db6c f   LIBCMT:utility.obj
 0001:0000cc00       ___scrt_release_startup_lock 1000dc00 f   LIBCMT:utility.obj
 0001:0000cc1d       ___scrt_uninitialize_crt   1000dc1d f   LIBCMT:utility.obj
 0001:0000cc45       __onexit                   1000dc45 f   LIBCMT:utility.obj
 0001:0000cc72       _atexit                    1000dc72 f   LIBCMT:utility.obj
 0001:0000cc87       ??3@YAXPAX@Z               1000dc87 f   LIBCMT:delete_scalar.obj
 0001:0000cd51       __Init_thread_footer       1000dd51 f   LIBCMT:thread_safe_statics.obj
 0001:0000cd9b       __Init_thread_header       1000dd9b f   LIBCMT:thread_safe_statics.obj
 0001:0000cded       __Init_thread_notify       1000dded f   LIBCMT:thread_safe_statics.obj
 0001:0000ce23       __Init_thread_wait         1000de23 f   LIBCMT:thread_safe_statics.obj
 0001:0000ce71       ___raise_securityfailure   1000de71 f   LIBCMT:gs_report.obj
 0001:0000ce99       ___report_gsfailure        1000de99 f   LIBCMT:gs_report.obj
 0001:0000cf92       ___report_rangecheckfailure 1000df92 f   LIBCMT:gs_report.obj
 0001:0000cf9e       ___report_securityfailure  1000df9e f   LIBCMT:gs_report.obj
 0001:0000d06c       ??2@YAPAXIABUnothrow_t@std@@@Z 1000e06c f   LIBCMT:new_scalar_nothrow.obj
 0001:0000d0c1       ??_U@YAPAXIABUnothrow_t@std@@@Z 1000e0c1 f   LIBCMT:new_array_nothrow.obj
 0001:0000d0ca       @__security_check_cookie@4 1000e0ca f   LIBCMT:secchk.obj
 0001:0000d0e0       __SEH_prolog4_GS           1000e0e0 f   LIBCMT:sehprolg4gs.obj
 0001:0000d127       __SEH_epilog4_GS           1000e127 f   LIBCMT:sehprolg4gs.obj
 0001:0000d140       __alloca_probe_16          1000e140 f   LIBCMT:alloca16.obj
 0001:0000d156       __alloca_probe_8           1000e156     LIBCMT:alloca16.obj
 0001:0000d170       __chkstk                   1000e170 f   LIBCMT:chkstk.obj
 0001:0000d170       __alloca_probe             1000e170 f   LIBCMT:chkstk.obj
 0001:0000d4dd       __DllMainCRTStartup@12     1000e4dd f   LIBCMT:dll_dllmain.obj
 0001:0000d500       ??2@YAPAXI@Z               1000e500 f   LIBCMT:new_scalar.obj
 0001:0000d530       ___isa_available_init      1000e530 f   LIBCMT:cpu_disp.obj
 0001:0000d700       ___scrt_is_ucrt_dll_in_use 1000e700 f   LIBCMT:ucrt_detection.obj
 0001:0000d70c       ___scrt_fastfail           1000e70c f   LIBCMT:utility_desktop.obj
 0001:0000d826       __crt_debugger_hook        1000e826 f   LIBCMT:utility_desktop.obj
 0001:0000d830       __SEH_prolog4              1000e830 f   LIBCMT:sehprolg4.obj
 0001:0000d874       __SEH_epilog4              1000e874 f   LIBCMT:sehprolg4.obj
 0001:0000d888       @_guard_check_icall_nop@4  1000e888 f i LIBCMT:guard_support.obj
 0001:0000d8d8       ___security_init_cookie    1000e8d8 f   LIBCMT:gs_support.obj
 0001:0000d923       ?__scrt_initialize_type_info@@YAXXZ 1000e923 f   LIBCMT:tncleanup.obj
 0001:0000d92f       ?__scrt_uninitialize_type_info@@YAXXZ 1000e92f f   LIBCMT:tncleanup.obj
 0001:0000d93b       ___local_stdio_scanf_options 1000e93b f i LIBCMT:default_local_stdio_options.obj
 0001:0000d941       ___scrt_initialize_default_local_stdio_options 1000e941 f   LIBCMT:default_local_stdio_options.obj
 0001:0000d95e       ___scrt_get_dyn_tls_init_callback 1000e95e f   LIBCMT:dyn_tls_init.obj
 0001:0000d964       __RTC_Initialize           1000e964 f   LIBCMT:initsect.obj
 0001:0000d990       __RTC_Terminate            1000e990 f   LIBCMT:initsect.obj
 0001:0000d9bc       ??0bad_alloc@std@@QAE@ABV01@@Z 1000e9bc f i LIBCMT:throw_bad_alloc.obj
 0001:0000d9d7       ??0bad_alloc@std@@QAE@XZ   1000e9d7 f i LIBCMT:throw_bad_alloc.obj
 0001:0000d9ef       ??0bad_array_new_length@std@@QAE@ABV01@@Z 1000e9ef f i LIBCMT:throw_bad_alloc.obj
 0001:0000da0a       ??0bad_array_new_length@std@@QAE@XZ 1000ea0a f i LIBCMT:throw_bad_alloc.obj
 0001:0000da22       ??0exception@std@@QAE@ABV01@@Z 1000ea22 f i LIBCMT:throw_bad_alloc.obj
 0001:0000da4e       ??1bad_exception@std@@UAE@XZ 1000ea4e f i libvcruntime:frame.obj
 0001:0000da4e       ??1bad_alloc@std@@UAE@XZ   1000ea4e f i LIBCMT:throw_bad_alloc.obj
 0001:0000da4e       ??1bad_array_new_length@std@@UAE@XZ 1000ea4e f i LIBCMT:throw_bad_alloc.obj
 0001:0000da5f       ??_Eexception@std@@UAEPAXI@Z 1000ea5f f i LIBCMT:throw_bad_alloc.obj
 0001:0000da5f       ??_Ebad_array_new_length@std@@UAEPAXI@Z 1000ea5f f i LIBCMT:throw_bad_alloc.obj
 0001:0000da5f       ??_Gexception@std@@UAEPAXI@Z 1000ea5f f i LIBCMT:throw_bad_alloc.obj
 0001:0000da5f       ??_Ebad_exception@std@@UAEPAXI@Z 1000ea5f f i libvcruntime:frame.obj
 0001:0000da5f       ??_Gbad_alloc@std@@UAEPAXI@Z 1000ea5f f i LIBCMT:throw_bad_alloc.obj
 0001:0000da5f       ??_Gbad_array_new_length@std@@UAEPAXI@Z 1000ea5f f i LIBCMT:throw_bad_alloc.obj
 0001:0000da5f       ??_Gbad_exception@std@@UAEPAXI@Z 1000ea5f f i libvcruntime:frame.obj
 0001:0000da5f       ??_Ebad_alloc@std@@UAEPAXI@Z 1000ea5f f i LIBCMT:throw_bad_alloc.obj
 0001:0000da8c       ?__scrt_throw_std_bad_alloc@@YAXXZ 1000ea8c f   LIBCMT:throw_bad_alloc.obj
 0001:0000daa9       ?__scrt_throw_std_bad_array_new_length@@YAXXZ 1000eaa9 f   LIBCMT:throw_bad_alloc.obj
 0001:0000dac6       ?what@exception@std@@UBEPBDXZ 1000eac6 f i LIBCMT:throw_bad_alloc.obj
 0001:0000dad3       ??_Etype_info@@UAEPAXI@Z   1000ead3 f i LIBCMT:std_type_info_static.obj
 0001:0000dad3       ??_Gtype_info@@UAEPAXI@Z   1000ead3 f i LIBCMT:std_type_info_static.obj
 0001:0000daf6       ??0CAtlBaseModule@ATL@@QAE@XZ 1000eaf6 f   atls:atlbase.obj
 0001:0000db49       ??0_ATL_BASE_MODULE70@ATL@@QAE@XZ 1000eb49 f i atls:atlbase.obj
 0001:0000db6c       ??1CAtlBaseModule@ATL@@QAE@XZ 1000eb6c f   atls:atlbase.obj
 0001:0000dc59       ?Init@_stdcallthunk@ATL@@QAEHKPAX@Z 1000ec59 f i atls:atlthunk.obj
 0001:0000dc8e       ?__AllocStdCallThunk_cmn@@YAPAXXZ 1000ec8e f   atls:atlthunk.obj
 0001:0000dd54       ?__FreeStdCallThunk_cmn@@YAXPAX@Z 1000ed54 f   atls:atlthunk.obj
 0001:0000ddef       _AtlThunk_AllocateData@0   1000edef f   atls:atlthunk.obj
 0001:0000de54       _AtlThunk_DataToCode@4     1000ee54 f   atls:atlthunk.obj
 0001:0000de9b       _AtlThunk_FreeData@4       1000ee9b f   atls:atlthunk.obj
 0001:0000def1       _AtlThunk_InitData@12      1000eef1 f   atls:atlthunk.obj
 0001:0000df40       __get_purecall_handler     1000ef40 f   libvcruntime:purevirt.obj
 0001:0000df46       __purecall                 1000ef46 f   libvcruntime:purevirt.obj
 0001:0000df62       _wcsstr                    1000ef62 f   libvcruntime:wcsstr.obj
 0001:0000e210       __except_handler4          1000f210 f   libvcruntime:chandler4.obj
 0001:0000e36e       _memcmp                    1000f36e f   libvcruntime:memcmp.obj
 0001:0000f280       _memcpy                    10010280 f   libvcruntime:memcpy.obj
 0001:0000f800       _memset                    10010800 f   libvcruntime:memset.obj
 0001:0000f95a       ___vcrt_initialize         1001095a f   libvcruntime:initialization.obj
 0001:0000f979       ___vcrt_thread_attach      10010979 f   libvcruntime:initialization.obj
 0001:0000f984       ___vcrt_thread_detach      10010984 f   libvcruntime:initialization.obj
 0001:0000f98f       ___vcrt_uninitialize       1001098f f   libvcruntime:initialization.obj
 0001:0000f9a6       ___vcrt_uninitialize_critical 100109a6 f   libvcruntime:initialization.obj
 0001:0000f9ae       ?GetRangeOfTrysToCheck@__FrameHandler3@@SA?AU?$pair@Viterator@TryBlockMap@__FrameHandler3@@V123@@std@@AAVTryBlockMap@1@HPAXPBU_s_FuncInfo@@H@Z 100109ae f   libvcruntime:trnsctrl.obj
 0001:0000fa1e       ?_CallCatchBlock2@@YAPAXPAUEHRegistrationNode@@PBU_s_FuncInfo@@PAXHK@Z 10010a1e f   libvcruntime:trnsctrl.obj
 0001:0000fa7c       ?_CallSETranslator@@YAHPAUEHExceptionRecord@@PAUEHRegistrationNode@@PAX2PBU_s_FuncInfo@@H1@Z 10010a7c f   libvcruntime:trnsctrl.obj
 0001:0000fb62       ?_JumpToContinuation@@YGXPAXPAUEHRegistrationNode@@@Z 10010b62 f   libvcruntime:trnsctrl.obj
 0001:0000fb92       ?_UnwindNestedFrames@@YGXPAUEHRegistrationNode@@PAUEHExceptionRecord@@@Z 10010b92 f   libvcruntime:trnsctrl.obj
 0001:0000fbe5       __CatchGuardHandler        10010be5 f   libvcruntime:trnsctrl.obj
 0001:0000fc16       __CreateFrameInfo          10010c16 f   libvcruntime:trnsctrl.obj
 0001:0000fc3a       __FindAndUnlinkFrame       10010c3a f   libvcruntime:trnsctrl.obj
 0001:0000fc82       __TranslatorGuardHandler   10010c82 f   libvcruntime:trnsctrl.obj
 0001:0000fd1f       ___CxxFrameHandler3        10010d1f f   libvcruntime:trnsctrl.obj
 0001:0000fd55       ___DestructExceptionObject 10010d55 f   libvcruntime:ehhelpers.obj
 0001:0000fdf6       ?_CallMemberFunction0@@YGXQAX0@Z 10010df6 f i libvcruntime:ehhelpers.obj
 0001:0000fe5b       __IsExceptionObjectToBeDestroyed 10010e5b f   libvcruntime:ehhelpers.obj
 0001:0000fe81       ___AdjustPointer           10010e81 f   libvcruntime:ehhelpers.obj
 0001:0000fea6       ___FrameUnwindFilter       10010ea6 f   libvcruntime:ehhelpers.obj
 0001:0000fefc       ___std_type_info_compare   10010efc f   libvcruntime:std_type_info.obj
 0001:0000ff38       ___std_type_info_destroy_list 10010f38 f   libvcruntime:std_type_info.obj
 0001:0000ff5b       ___std_exception_copy      10010f5b f   libvcruntime:std_exception.obj
 0001:0000ffbe       ___std_exception_destroy   10010fbe f   libvcruntime:std_exception.obj
 0001:0000ffdd       __CxxThrowException@8      10010fdd f   libvcruntime:throw.obj
 0001:00010050       _memmove                   10011050 f   libvcruntime:memmove.obj
 0001:000105d0       __local_unwind4            100115d0 f   libvcruntime:exsup4.obj
 0001:000106a4       __seh_longjmp_unwind4@4    100116a4 f   libvcruntime:exsup4.obj
 0001:000106cc       @_EH4_CallFilterFunc@8     100116cc f   libvcruntime:exsup4.obj
 0001:000106e4       @_EH4_TransferToHandler@8  100116e4 f   libvcruntime:exsup4.obj
 0001:00010700       @_EH4_GlobalUnwind2@8      10011700 f   libvcruntime:exsup4.obj
 0001:0001071c       @_EH4_LocalUnwind@16       1001171c f   libvcruntime:exsup4.obj
 0001:00010733       ___except_validate_context_record 10011733 f   libvcruntime:jbcxrval.obj
 0001:00010763       ___except_validate_jump_buffer 10011763 f   libvcruntime:jbcxrval.obj
 0001:00010790       ___vcrt_freefls@4          10011790 f   libvcruntime:per_thread_data.obj
 0001:000107ac       ___vcrt_freeptd            100117ac f   libvcruntime:per_thread_data.obj
 0001:000107e2       ___vcrt_getptd             100117e2 f   libvcruntime:per_thread_data.obj
 0001:000107f0       ___vcrt_getptd_noexit      100117f0 f   libvcruntime:per_thread_data.obj
 0001:00010882       ___vcrt_initialize_ptd     10011882 f   libvcruntime:per_thread_data.obj
 0001:000108b5       ___vcrt_uninitialize_ptd   100118b5 f   libvcruntime:per_thread_data.obj
 0001:000108d0       ___vcrt_initialize_locks   100118d0 f   libvcruntime:locks.obj
 0001:0001090c       ___vcrt_uninitialize_locks 1001190c f   libvcruntime:locks.obj
 0001:0001107e       ??$TypeMatchHelper@V__FrameHandler3@@@@YAHPBU_s_HandlerType@@PBU_s_CatchableType@@PBU_s_ThrowInfo@@@Z 1001207e f i libvcruntime:frame.obj
 0001:0001110c       ??$__InternalCxxFrameHandler@V__FrameHandler3@@@@YA?AW4_EXCEPTION_DISPOSITION@@PAUEHExceptionRecord@@PAUEHRegistrationNode@@PAU_CONTEXT@@PAXPBU_s_FuncInfo@@H1E@Z 1001210c f i libvcruntime:frame.obj
 0001:0001120e       ??0bad_exception@std@@QAE@ABV01@@Z 1001220e f i libvcruntime:frame.obj
 0001:00011229       ??0bad_exception@std@@QAE@XZ 10012229 f i libvcruntime:frame.obj
 0001:00011241       ??8type_info@@QBE_NABV0@@Z 10012241 f i libvcruntime:frame.obj
 0001:000114ad       ?FrameUnwindToEmptyState@__FrameHandler3@@SAXPAUEHRegistrationNode@@PAXPBU_s_FuncInfo@@@Z 100124ad f   libvcruntime:frame.obj
 0001:000114c5       ?FrameUnwindToState@__FrameHandler3@@SAXPAUEHRegistrationNode@@PAXPBU_s_FuncInfo@@H@Z 100124c5 f   libvcruntime:frame.obj
 0001:00011647       ?_CallMemberFunction1@@YGXQAX00@Z 10012647 f i libvcruntime:frame.obj
 0001:00011657       ?_CallMemberFunction2@@YGXQAX00H@Z 10012657 f i libvcruntime:frame.obj
 0001:0001166a       ?getESTypes@__FrameHandler3@@SAPBU_s_ESTypeList@@PBU_s_FuncInfo@@@Z 1001266a f i libvcruntime:frame.obj
 0001:00011680       __CallSettingFrame@12      10012680 f   libvcruntime:lowhelpr.obj
 0001:000116a7       __NLG_Return               100126a7     libvcruntime:lowhelpr.obj
 0001:000116d0       __global_unwind2           100126d0 f   libvcruntime:exsup.obj
 0001:00011736       __local_unwind2            10012736 f   libvcruntime:exsup.obj
 0001:000117ba       __abnormal_termination     100127ba f   libvcruntime:exsup.obj
 0001:000117e0       __NLG_Notify1              100127e0 f   libvcruntime:exsup.obj
 0001:000117ec       __NLG_Notify               100127ec f   libvcruntime:exsup.obj
 0001:00011803       __NLG_Dispatch             10012803     libvcruntime:exsup.obj
 0001:00011803       __NLG_Dispatch2            10012803     libvcruntime:exsup.obj
 0001:0001180b       __NLG_Call                 1001280b f   libvcruntime:exsup.obj
 0001:0001180d       __NLG_Return2              1001280d     libvcruntime:exsup.obj
 0001:000118f1       ___vcrt_FlsAlloc           100128f1 f   libvcruntime:winapi_downlevel.obj
 0001:0001192c       ___vcrt_FlsFree            1001292c f   libvcruntime:winapi_downlevel.obj
 0001:00011967       ___vcrt_FlsGetValue        10012967 f   libvcruntime:winapi_downlevel.obj
 0001:000119a2       ___vcrt_FlsSetValue        100129a2 f   libvcruntime:winapi_downlevel.obj
 0001:000119e0       ___vcrt_InitializeCriticalSectionEx 100129e0 f   libvcruntime:winapi_downlevel.obj
 0001:00011a27       _unexpected                10012a27 f   libvcruntime:unexpected.obj
 0001:00011a44       ?GetCurrentState@__FrameHandler3@@SAHPAUEHRegistrationNode@@PAXPBU_s_FuncInfo@@@Z 10012a44 f   libvcruntime:ehstate.obj
 0001:00011a61       ?SetState@__FrameHandler3@@SAXPAUEHRegistrationNode@@PBU_s_FuncInfo@@H@Z 10012a61 f   libvcruntime:ehstate.obj
 0001:00011a6f       _free                      10012a6f f   libucrt:free.obj
 0001:00011a8a       ___acrt_call_reportfault   10012a8a f   libucrt:invalid_parameter.obj
 0001:00011bc3       ___acrt_initialize_invalid_parameter_handler 10012bc3 f   libucrt:invalid_parameter.obj
 0001:00011bd2       __invalid_parameter        10012bd2 f   libucrt:invalid_parameter.obj
 0001:00011c36       __invalid_parameter_noinfo 10012c36 f   libucrt:invalid_parameter.obj
 0001:00011c46       __invoke_watson            10012c46 f   libucrt:invalid_parameter.obj
 0001:00011c7a       ___acrt_errno_from_os_error 10012c7a f   libucrt:errno.obj
 0001:00011cbd       ___acrt_errno_map_os_error 10012cbd f   libucrt:errno.obj
 0001:00011ce0       ___doserrno                10012ce0 f   libucrt:errno.obj
 0001:00011cf3       __errno                    10012cf3 f   libucrt:errno.obj
 0001:00011d06       _calloc                    10012d06 f   libucrt:calloc.obj
 0001:00011d11       _malloc                    10012d11 f   libucrt:malloc.obj
 0001:00011d1c       __recalloc                 10012d1c f   libucrt:recalloc.obj
 0001:00011d27       __recalloc_base            10012d27 f   libucrt:recalloc.obj
 0001:00011d94       __resetstkoflw             10012d94 f   libucrt:resetstk.obj
 0001:00011e59       _wcscat_s                  10012e59 f   libucrt:wcscat_s.obj
 0001:00011ece       _wcscpy_s                  10012ece f   libucrt:wcscpy_s.obj
 0001:00011ffd       _wcsncpy_s                 10012ffd f   libucrt:wcsncpy_s.obj
 0001:00012209       ??$count@D@formatting_buffer@__crt_stdio_output@@QBEIXZ 10013209 f i libucrt:output.obj
 0001:00012221       ??$count@_W@formatting_buffer@__crt_stdio_output@@QBEIXZ 10013221 f i libucrt:output.obj
 0001:0001223a       ??$ensure_buffer_is_big_enough@D@formatting_buffer@__crt_stdio_output@@QAE_NI@Z 1001323a f i libucrt:output.obj
 0001:000122b7       ??$ensure_buffer_is_big_enough@_W@formatting_buffer@__crt_stdio_output@@QAE_NI@Z 100132b7 f i libucrt:output.obj
 0001:00012335       ??$is_wide_character_specifier@_W@__crt_stdio_output@@YA_N_K_WW4length_modifier@0@@Z 10013335 f i libucrt:output.obj
 0001:00012383       ??$scratch_data@D@formatting_buffer@__crt_stdio_output@@QAEPADXZ 10013383 f i libucrt:output.obj
 0001:000123a1       ??$type_case_integer_parse_into_buffer@I@?$output_processor@_WV?$string_output_adapter@_W@__crt_stdio_output@@V?$format_validation_base@_WV?$string_output_adapter@_W@__crt_stdio_output@@@2@@__crt_stdio_output@@AAEXII_N@Z 100133a1 f i libucrt:output.obj
 0001:00012428       ??$type_case_integer_parse_into_buffer@_K@?$output_processor@_WV?$string_output_adapter@_W@__crt_stdio_output@@V?$format_validation_base@_WV?$string_output_adapter@_W@__crt_stdio_output@@@2@@__crt_stdio_output@@AAEX_KI_N@Z 10013428 f i libucrt:output.obj
 0001:000124ca       ??$write_multiple_characters@V?$string_output_adapter@_W@__crt_stdio_output@@D@__crt_stdio_output@@YAXABV?$string_output_adapter@_W@0@DHQAH@Z 100134ca f i libucrt:output.obj
 0001:000124fb       ??0?$common_data@_W@__crt_stdio_output@@IAE@XZ 100134fb f i libucrt:output.obj
 0001:00012545       ??0?$output_adapter_data@_WV?$string_output_adapter@_W@__crt_stdio_output@@@__crt_stdio_output@@IAE@ABV?$string_output_adapter@_W@1@_KQB_WQAU__crt_locale_pointers@@QAD@Z 10013545 f i libucrt:output.obj
 0001:00012581       ??0_LocaleUpdate@@QAE@QAU__crt_locale_pointers@@@Z 10013581 f i libucrt:output.obj
 0001:00012604       ??1formatting_buffer@__crt_stdio_output@@QAE@XZ 10013604 f i libucrt:output.obj
 0001:0001261e       ??4?$__crt_unique_heap_ptr@DU__crt_internal_free_policy@@@@QAEAAV0@$$QAV0@@Z 1001361e f i libucrt:output.obj
 0001:00012650       ?crop_zeroes@__crt_stdio_output@@YAXPADQAU__crt_locale_pointers@@@Z 10013650 f i libucrt:output.obj
 0001:000126d1       ?find_next_state@?$output_processor@_WV?$string_output_adapter@_W@__crt_stdio_output@@V?$format_validation_base@_WV?$string_output_adapter@_W@__crt_stdio_output@@@2@@__crt_stdio_output@@ABE?AW4state@2@_WW432@@Z 100136d1 f i libucrt:output.obj
 0001:00012710       ?force_decimal_point@__crt_stdio_output@@YAXPADQAU__crt_locale_pointers@@@Z 10013710 f i libucrt:output.obj
 0001:00012775       ?parse_int_from_format_string@?$output_processor@_WV?$string_output_adapter@_W@__crt_stdio_output@@V?$format_validation_base@_WV?$string_output_adapter@_W@__crt_stdio_output@@@2@@__crt_stdio_output@@AAE_NQAH@Z 10013775 f i libucrt:output.obj
 0001:000127eb       ?process@?$output_processor@_WV?$string_output_adapter@_W@__crt_stdio_output@@V?$format_validation_base@_WV?$string_output_adapter@_W@__crt_stdio_output@@@2@@__crt_stdio_output@@QAEHXZ 100137eb f i libucrt:output.obj
 0001:00012913       ?state_case_flag@?$output_processor@_WV?$string_output_adapter@_W@__crt_stdio_output@@V?$format_validation_base@_WV?$string_output_adapter@_W@__crt_stdio_output@@@2@@__crt_stdio_output@@AAE_NXZ 10013913 f i libucrt:output.obj
 0001:00012950       ?state_case_normal@?$output_processor@_WV?$string_output_adapter@_W@__crt_stdio_output@@V?$format_validation_base@_WV?$string_output_adapter@_W@__crt_stdio_output@@@2@@__crt_stdio_output@@AAE_NXZ 10013950 f i libucrt:output.obj
 0001:0001296f       ?state_case_normal_common@?$output_processor@_WV?$string_output_adapter@_W@__crt_stdio_output@@V?$format_validation_base@_WV?$string_output_adapter@_W@__crt_stdio_output@@@2@@__crt_stdio_output@@AAE_NXZ 1001396f f i libucrt:output.obj
 0001:0001298a       ?state_case_precision@?$output_processor@_WV?$string_output_adapter@_W@__crt_stdio_output@@V?$format_validation_base@_WV?$string_output_adapter@_W@__crt_stdio_output@@@2@@__crt_stdio_output@@AAE_NXZ 1001398a f i libucrt:output.obj
 0001:000129b1       ?state_case_size@?$output_processor@_WV?$string_output_adapter@_W@__crt_stdio_output@@V?$format_validation_base@_WV?$string_output_adapter@_W@__crt_stdio_output@@@2@@__crt_stdio_output@@AAE_NXZ 100139b1 f i libucrt:output.obj
 0001:00012b29       ?state_case_type@?$output_processor@_WV?$string_output_adapter@_W@__crt_stdio_output@@V?$format_validation_base@_WV?$string_output_adapter@_W@__crt_stdio_output@@@2@@__crt_stdio_output@@AAE_NXZ 10013b29 f i libucrt:output.obj
 0001:00012d86       ?state_case_width@?$output_processor@_WV?$string_output_adapter@_W@__crt_stdio_output@@V?$format_validation_base@_WV?$string_output_adapter@_W@__crt_stdio_output@@@2@@__crt_stdio_output@@AAE_NXZ 10013d86 f i libucrt:output.obj
 0001:00012dc0       ?to_integer_size@__crt_stdio_output@@YAIW4length_modifier@1@@Z 10013dc0 f i libucrt:output.obj
 0001:00012e1c       ?type_case_Z@?$output_processor@_WV?$string_output_adapter@_W@__crt_stdio_output@@V?$format_validation_base@_WV?$string_output_adapter@_W@__crt_stdio_output@@@2@@__crt_stdio_output@@AAE_NXZ 10013e1c f i libucrt:output.obj
 0001:00012e76       ?type_case_a@?$output_processor@_WV?$string_output_adapter@_W@__crt_stdio_output@@V?$format_validation_base@_WV?$string_output_adapter@_W@__crt_stdio_output@@@2@@__crt_stdio_output@@AAE_NXZ 10013e76 f i libucrt:output.obj
 0001:00012fdd       ?type_case_c_tchar@?$output_processor@_WV?$string_output_adapter@_W@__crt_stdio_output@@V?$format_validation_base@_WV?$string_output_adapter@_W@__crt_stdio_output@@@2@@__crt_stdio_output@@AAE_N_W@Z 10013fdd f i libucrt:output.obj
 0001:00013073       ?type_case_integer@?$output_processor@_WV?$string_output_adapter@_W@__crt_stdio_output@@V?$format_validation_base@_WV?$string_output_adapter@_W@__crt_stdio_output@@@2@@__crt_stdio_output@@AAE_NI_N@Z 10014073 f i libucrt:output.obj
 0001:000131c8       ?type_case_n@?$output_processor@_WV?$string_output_adapter@_W@__crt_stdio_output@@V?$format_validation_base@_WV?$string_output_adapter@_W@__crt_stdio_output@@@2@@__crt_stdio_output@@AAE_NXZ 100141c8 f i libucrt:output.obj
 0001:0001323c       ?type_case_o@?$output_processor@_WV?$string_output_adapter@_W@__crt_stdio_output@@V?$format_validation_base@_WV?$string_output_adapter@_W@__crt_stdio_output@@@2@@__crt_stdio_output@@AAE_NXZ 1001423c f i libucrt:output.obj
 0001:0001325b       ?type_case_p@?$output_processor@_WV?$string_output_adapter@_W@__crt_stdio_output@@V?$format_validation_base@_WV?$string_output_adapter@_W@__crt_stdio_output@@@2@@__crt_stdio_output@@AAE_NXZ 1001425b f i libucrt:output.obj
 0001:00013273       ?type_case_s@?$output_processor@_WV?$string_output_adapter@_W@__crt_stdio_output@@V?$format_validation_base@_WV?$string_output_adapter@_W@__crt_stdio_output@@@2@@__crt_stdio_output@@AAE_NXZ 10014273 f i libucrt:output.obj
 0001:000132e6       ?type_case_s_compute_narrow_string_length@?$output_processor@_WV?$string_output_adapter@_W@__crt_stdio_output@@V?$format_validation_base@_WV?$string_output_adapter@_W@__crt_stdio_output@@@2@@__crt_stdio_output@@ABEHH_W@Z 100142e6 f i libucrt:output.obj
 0001:0001332d       ?validate@?$c_string_character_source@_W@__crt_strtox@@QBE_NXZ 1001432d f i libucrt:atox.obj
 0001:0001332d       ?validate@?$string_output_adapter@_W@__crt_stdio_output@@QBE_NXZ 1001432d f i libucrt:output.obj
 0001:00013348       ?validate_and_update_state_at_end_of_format_string@?$format_validation_base@_WV?$string_output_adapter@_W@__crt_stdio_output@@@__crt_stdio_output@@IBE_NXZ 10014348 f i libucrt:output.obj
 0001:0001336a       ?write_character@?$string_output_adapter@_W@__crt_stdio_output@@QBE_N_WQAH@Z 1001436a f i libucrt:output.obj
 0001:000133af       ?write_stored_string_tchar@?$output_processor@_WV?$string_output_adapter@_W@__crt_stdio_output@@V?$format_validation_base@_WV?$string_output_adapter@_W@__crt_stdio_output@@@2@@__crt_stdio_output@@AAE_N_W@Z 100143af f i libucrt:output.obj
 0001:0001343c       ?write_string@?$string_output_adapter@_W@__crt_stdio_output@@QBEXQB_WHQAHAAV__crt_deferred_errno_cache@@@Z 1001443c f i libucrt:output.obj
 0001:000134ad       ___acrt_locale_get_ctype_array_value 100144ad f i libucrt:output.obj
 0001:000134cf       ___stdio_common_vswprintf_s 100144cf f   libucrt:output.obj
 0001:000134f3       __seh_filter_dll           100144f3 f   libucrt:exception_filter.obj
 0001:00013513       __seh_filter_exe           10014513 f   libucrt:exception_filter.obj
 0001:000138e1       ___acrt_initialize_thread_local_exit_callback 100148e1 f   libucrt:exit.obj
 0001:000138f0       __cexit                    100148f0 f   libucrt:exit.obj
 0001:000138ff       __exit                     100148ff f   libucrt:exit.obj
 0001:00013915       __is_c_termination_complete 10014915 f   libucrt:exit.obj
 0001:00013bc6       ___acrt_allocate_buffer_for_argv 10014bc6 f   libucrt:argv_parsing.obj
 0001:00013c15       __configure_narrow_argv    10014c15 f   libucrt:argv_parsing.obj
 0001:00013d72       ??$uninitialize@A6AXAAPAPA_W@Z@?$dual_state_global@PAPA_W@__crt_state_management@@QAEXA6AXAAPAPA_W@Z@Z 10014d72 f i libucrt:environment_initialization.obj
 0001:00013d72       ??$uninitialize@A6AXAAPAPAD@Z@?$dual_state_global@PAPAD@__crt_state_management@@QAEXA6AXAAPAPAD@Z@Z 10014d72 f i libucrt:environment_initialization.obj
 0001:00013dd1       ___dcrt_uninitialize_environments_nolock 10014dd1 f   libucrt:environment_initialization.obj
 0001:00013e08       __initialize_narrow_environment 10014e08 f   libucrt:environment_initialization.obj
 0001:00013ec3       ??$__crt_fast_encode_pointer@PAX@@YAPAXQAX@Z 10014ec3 f i libucrt:initialization.obj
 0001:00013ec3       ??$__crt_fast_encode_pointer@P6AHXZ@@YAP6AHXZQ6AHXZ@Z 10014ec3 f i libucrt:onexit.obj
 0001:00013ec3       ??$__crt_fast_encode_pointer@PAP6AXXZ@@YAPAP6AXXZQAP6AXXZ@Z 10014ec3 f i libucrt:onexit.obj
 0001:000140e5       __crt_atexit               100150e5 f   libucrt:onexit.obj
 0001:000140fb       __execute_onexit_table     100150fb f   libucrt:onexit.obj
 0001:00014128       __initialize_onexit_table  10015128 f   libucrt:onexit.obj
 0001:00014151       __register_onexit_function 10015151 f   libucrt:onexit.obj
 0001:000141ab       ___acrt_uninitialize_command_line 100151ab f   libucrt:argv_data.obj
 0001:00014282       ___acrt_initialize         10015282 f   libucrt:initialization.obj
 0001:00014294       ___acrt_thread_attach      10015294 f   libucrt:initialization.obj
 0001:0001429f       ___acrt_thread_detach      1001529f f   libucrt:initialization.obj
 0001:000142a7       ___acrt_uninitialize       100152a7 f   libucrt:initialization.obj
 0001:000142d7       ___acrt_uninitialize_critical 100152d7 f   libucrt:initialization.obj
 0001:000142e9       __initterm                 100152e9 f   libucrt:initterm.obj
 0001:0001432e       __initterm_e               1001532e f   libucrt:initterm.obj
 0001:0001435c       ___acrt_initialize_new_handler 1001535c f   libucrt:new_handler.obj
 0001:0001436b       __callnewh                 1001536b f   libucrt:new_handler.obj
 0001:00014398       __query_new_handler        10015398 f   libucrt:new_handler.obj
 0001:000143f4       _terminate                 100153f4 f   libucrt:terminate.obj
 0001:00014430       _abort                     10015430 f   libucrt:abort.obj
 0001:00014474       _strcpy_s                  10015474 f   libucrt:strcpy_s.obj
 0001:000144ce       ??$is_overflow_condition@K@__crt_strtox@@YA_NIK@Z 100154ce f i libucrt:atox.obj
 0001:000144ff       ??$parse_integer@KV?$c_string_character_source@_W@__crt_strtox@@@__crt_strtox@@YAKQAU__crt_locale_pointers@@V?$c_string_character_source@_W@0@H_N@Z 100154ff f i libucrt:atox.obj
 0001:00014b07       ?unget@?$c_string_character_source@_W@__crt_strtox@@QAEX_W@Z 10015b07 f i libucrt:atox.obj
 0001:00014b40       _strncmp                   10015b40 f   libucrt:strncmp.obj
 0001:00014bb8       _wcsncmp                   10015bb8 f   libucrt:wcsncmp.obj
 0001:00014bf2       __free_base                10015bf2 f   libucrt:free_base.obj
 0001:00014f6a       ___acrt_freeptd            10015f6a f   libucrt:per_thread_data.obj
 0001:00014f96       ___acrt_getptd             10015f96 f   libucrt:per_thread_data.obj
 0001:00015053       ___acrt_getptd_head        10016053 f   libucrt:per_thread_data.obj
 0001:000150ed       ___acrt_getptd_noexit      100160ed f   libucrt:per_thread_data.obj
 0001:000151a2       ___acrt_initialize_ptd     100161a2 f   libucrt:per_thread_data.obj
 0001:000151ce       ___acrt_uninitialize_ptd   100161ce f   libucrt:per_thread_data.obj
 0001:000151e8       __calloc_base              100161e8 f   libucrt:calloc_base.obj
 0001:00015245       __malloc_base              10016245 f   libucrt:malloc_base.obj
 0001:00015293       __msize_base               10016293 f   libucrt:msize.obj
 0001:000152c6       __realloc_base             100162c6 f   libucrt:realloc_base.obj
 0001:000154c7       ___acrt_AppPolicyGetProcessTerminationMethodInternal@4 100164c7 f   libucrt:winapi_thunks.obj
 0001:00015507       ___acrt_AreFileApisANSI@0  10016507 f   libucrt:winapi_thunks.obj
 0001:00015526       ___acrt_FlsAlloc@4         10016526 f   libucrt:winapi_thunks.obj
 0001:00015565       ___acrt_FlsFree@4          10016565 f   libucrt:winapi_thunks.obj
 0001:000155a4       ___acrt_FlsGetValue@4      100165a4 f   libucrt:winapi_thunks.obj
 0001:000155e3       ___acrt_FlsSetValue@8      100165e3 f   libucrt:winapi_thunks.obj
 0001:00015625       ___acrt_InitializeCriticalSectionEx@12 10016625 f   libucrt:winapi_thunks.obj
 0001:00015670       ___acrt_LCMapStringEx@36   10016670 f   libucrt:winapi_thunks.obj
 0001:000156cd       ___acrt_LocaleNameToLCID@8 100166cd f   libucrt:winapi_thunks.obj
 0001:000156fe       ___acrt_SetThreadStackGuarantee@4 100166fe f   libucrt:winapi_thunks.obj
 0001:00015739       ___acrt_initialize_winapi_thunks 10016739 f   libucrt:winapi_thunks.obj
 0001:00015764       ___acrt_uninitialize_winapi_thunks 10016764 f   libucrt:winapi_thunks.obj
 0001:0001579a       ??$make_c_string_character_source@_WPAPA_W@__crt_strtox@@YA?AV?$c_string_character_source@_W@0@QB_WQAPA_W@Z 1001679a f i libucrt:strtox.obj
 0001:000157b5       _wcstol                    100167b5 f   libucrt:strtox.obj
 0001:000157df       __mbtowc_l                 100167df f   libucrt:mbtowc.obj
 0001:00015921       _mbtowc                    10016921 f   libucrt:mbtowc.obj
 0001:0001593b       _wcsnlen                   1001693b f   libucrt:strnlen.obj
 0001:00015aeb       ___acrt_update_locale_info 10016aeb f   libucrt:locale_update.obj
 0001:00015b18       ___acrt_update_multibyte_info 10016b18 f   libucrt:locale_update.obj
 0001:00015b45       ?__acrt_fp_classify@@YA?AW4__acrt_fp_class@@ABN@Z 10016b45 f i libucrt:cvt.obj
 0001:000164f7       ___acrt_fp_format          100174f7 f   libucrt:cvt.obj
 0001:00016655       __fileno                   10017655 f   libucrt:fileno.obj
 0001:0001667c       ___acrt_initialize_stdio   1001767c f   libucrt:_file.obj
 0001:00016744       ___acrt_uninitialize_stdio 10017744 f   libucrt:_file.obj
 0001:00016790       __lock_file                10017790 f   libucrt:_file.obj
 0001:000167a4       __unlock_file              100177a4 f   libucrt:_file.obj
 0001:000167b8       __get_printf_count_output  100177b8 f   libucrt:printf_count_output.obj
 0001:0001683b       ___acrt_set_locale_changed 1001783b f   libucrt:wsetlocale.obj
 0001:00016846       ___acrt_uninitialize_locale 10017846 f   libucrt:wsetlocale.obj
 0001:000169d7       ___acrt_initialize_lowio   100179d7 f   libucrt:ioinit.obj
 0001:00016a37       ___acrt_uninitialize_lowio 10017a37 f   libucrt:ioinit.obj
 0001:00016a63       ___acrt_initialize_locks   10017a63 f   libucrt:locks.obj
 0001:00016aa4       ___acrt_lock               10017aa4 f   libucrt:locks.obj
 0001:00016abb       ___acrt_uninitialize_locks 10017abb f   libucrt:locks.obj
 0001:00016aec       ___acrt_unlock             10017aec f   libucrt:locks.obj
 0001:00016b03       ___acrt_get_process_end_policy 10017b03 f   libucrt:win_policies.obj
 0001:00016ccd       ??$__acrt_mbs_to_wcs_cp@U__crt_win32_buffer_internal_dynamic_resizing@@@@YAHQBDAAV?$__crt_win32_buffer@_WU__crt_win32_buffer_internal_dynamic_resizing@@@@I@Z 10017ccd f i libucrt:argv_wildcards.obj
 0001:000171e1       ?__acrt_get_utf8_acp_compatibility_codepage@@YAIXZ 100181e1 f i libucrt:argv_wildcards.obj
 0001:00017220       ?_deallocate@?$__crt_win32_buffer@_WU__crt_win32_buffer_internal_dynamic_resizing@@@@AAEXXZ 10018220 f i libucrt:argv_wildcards.obj
 0001:00017220       ?_deallocate@?$__crt_win32_buffer@DU__crt_win32_buffer_internal_dynamic_resizing@@@@AAEXXZ 10018220 f i libucrt:argv_wildcards.obj
 0001:0001723a       ?allocate@?$__crt_win32_buffer@DU__crt_win32_buffer_internal_dynamic_resizing@@@@QAEHI@Z 1001823a f i libucrt:argv_wildcards.obj
 0001:00017276       ?allocate@?$__crt_win32_buffer@_WU__crt_win32_buffer_internal_dynamic_resizing@@@@QAEHI@Z 10018276 f i libucrt:argv_wildcards.obj
 0001:000172b5       ?allocate@__crt_win32_buffer_internal_dynamic_resizing@@SAHQAPAXIABV__crt_win32_buffer_empty_debug_info@@@Z 100182b5 f i libucrt:argv_wildcards.obj
 0001:0001735b       ___acrt_expand_narrow_argv_wildcards 1001835b f   libucrt:argv_wildcards.obj
 0001:0001742d       ?allocate@?$__crt_win32_buffer@DU__crt_win32_buffer_no_resizing@@@@QAEHI@Z 1001842d f i libucrt:getmodulefilenamea.obj
 0001:00017454       ?set_to_nullptr@?$__crt_win32_buffer@DU__crt_win32_buffer_no_resizing@@@@QAEXXZ 10018454 f i libucrt:getmodulefilenamea.obj
 0001:00017468       ___acrt_GetModuleFileNameA 10018468 f   libucrt:getmodulefilenamea.obj
 0001:00017a21       ___acrt_initialize_multibyte 10018a21 f   libucrt:mbctype.obj
 0001:00017a69       ___acrt_update_thread_multibyte_data 10018a69 f   libucrt:mbctype.obj
 0001:00017a7c       __setmbcp_nolock           10018a7c f   libucrt:mbctype.obj
 0001:00017d47       __ismbblead                10018d47 f   libucrt:ismbbyte.obj
 0001:00017d5f       ___acrt_initialize_command_line 10018d5f f   libucrt:argv_data.obj
 0001:00017d78       ___acrt_MultiByteToWideChar 10018d78 f   libucrt:multibytetowidechar.obj
 0001:00017df4       ___acrt_WideCharToMultiByte 10018df4 f   libucrt:widechartomultibyte.obj
 0001:00017ee2       ___dcrt_get_narrow_environment_from_os 10018ee2 f   libucrt:get_environment_from_os.obj
 0001:00017f66       ___acrt_initialize_heap    10018f66 f   libucrt:heap_handle.obj
 0001:00017f77       ___acrt_uninitialize_heap  10018f77 f   libucrt:heap_handle.obj
 0001:00017f81       ___acrt_execute_initializers 10018f81 f   libucrt:shared_initialization.obj
 0001:00017fe9       ___acrt_execute_uninitializers 10018fe9 f   libucrt:shared_initialization.obj
 0001:000180e8       ___acrt_get_sigabrt_handler 100190e8 f   libucrt:signal.obj
 0001:0001810f       ___acrt_initialize_signal_handlers 1001910f f   libucrt:signal.obj
 0001:0001812d       _raise                     1001912d f   libucrt:signal.obj
 0001:00018320       ___acrt_has_user_matherr   10019320 f   libucrt:matherr.obj
 0001:00018338       ___acrt_initialize_user_matherr 10019338 f   libucrt:matherr.obj
 0001:00018347       ___acrt_invoke_user_matherr 10019347 f   libucrt:matherr.obj
 0001:00018556       ___acrt_stdio_flush_nolock 10019556 f   libucrt:fflush.obj
 0001:000185bb       __fflush_nolock            100195bb f   libucrt:fflush.obj
 0001:00018603       __flushall                 10019603 f   libucrt:fflush.obj
 0001:0001860c       ___pctype_func             1001960c f   libucrt:ctype.obj
 0001:00018630       _iswctype                  10019630 f   libucrt:iswctype.obj
 0001:00018699       ___acrt_add_locale_ref     10019699 f   libucrt:locale_refcounting.obj
 0001:00018716       ___acrt_free_locale        10019716 f   libucrt:locale_refcounting.obj
 0001:0001885e       ___acrt_locale_add_lc_time_reference 1001985e f   libucrt:locale_refcounting.obj
 0001:00018887       ___acrt_locale_free_lc_time_if_unreferenced 10019887 f   libucrt:locale_refcounting.obj
 0001:000188b8       ___acrt_locale_release_lc_time_reference 100198b8 f   libucrt:locale_refcounting.obj
 0001:000188e1       ___acrt_release_locale_ref 100198e1 f   libucrt:locale_refcounting.obj
 0001:00018962       ___acrt_update_thread_locale_data 10019962 f   libucrt:locale_refcounting.obj
 0001:000189e3       __updatetlocinfoEx_nolock  100199e3 f   libucrt:locale_refcounting.obj
 0001:00018a33       __query_new_mode           10019a33 f   libucrt:new_mode.obj
 0001:00018a8a       ___acrt_DownlevelLocaleNameToLCID 10019a8a f   libucrt:lcidtoname_downlevel.obj
 0001:00018ab6       __isleadbyte_l             10019ab6 f i libucrt:_wctype.obj
 0001:00018b1c       ?__mbrtowc_utf8@__crt_mbstring@@YAIPA_WPBDIPAU_Mbstatet@@@Z 10019b1c f   libucrt:mbrtowc.obj
 0001:00018b5c       ?__mbsrtowcs_utf8@__crt_mbstring@@YAIPA_WPAPBDIPAU_Mbstatet@@@Z 10019b5c f   libucrt:mbrtowc.obj
 0001:00018c57       ?return_illegal_sequence@__crt_mbstring@@YAIPAU_Mbstatet@@@Z 10019c57 f i libucrt:c32rtomb.obj
 0001:00018ce1       ___acrt_fp_strflt_to_string 10019ce1 f   libucrt:_fptostr.obj
 0001:00018dc0       ?divide@__crt_strtox@@YA_KAAUbig_integer@1@ABU21@@Z 10019dc0 f i libucrt:cfout.obj
 0001:00019258       ___acrt_fltout             1001a258 f   libucrt:cfout.obj
 0001:0001a75f       _fegetround                1001b75f f   libucrt:fegetround.obj
 0001:0001a76c       __fcloseall                1001b76c f   libucrt:closeall.obj
 0001:0001a817       ___acrt_stdio_free_buffer_nolock 1001b817 f   libucrt:_freebuf.obj
 0001:0001a857       __isatty                   1001b857 f   libucrt:isatty.obj
 0001:0001a8ad       ___acrt_locale_free_monetary 1001b8ad f   libucrt:initmon.obj
 0001:0001a9ab       ___acrt_locale_free_numeric 1001b9ab f   libucrt:initnum.obj
 0001:0001aa4c       ___acrt_locale_free_time   1001ba4c f   libucrt:inittime.obj
 0001:0001ab30       ___acrt_GetStringTypeA     1001bb30 f   libucrt:getstringtypea.obj
 0001:0001ac33       __freea_crt                1001bc33 f i libucrt:getstringtypea.obj
 0001:0001ac53       ___acrt_lowio_create_handle_array 1001bc53 f   libucrt:osfinfo.obj
 0001:0001acce       ___acrt_lowio_destroy_handle_array 1001bcce f   libucrt:osfinfo.obj
 0001:0001ad03       ___acrt_lowio_ensure_fh_exists 1001bd03 f   libucrt:osfinfo.obj
 0001:0001ada1       ___acrt_lowio_lock_fh      1001bda1 f   libucrt:osfinfo.obj
 0001:0001adc4       ___acrt_lowio_unlock_fh    1001bdc4 f   libucrt:osfinfo.obj
 0001:0001ade7       __free_osfhnd              1001bde7 f   libucrt:osfinfo.obj
 0001:0001ae78       __get_osfhandle            1001be78 f   libucrt:osfinfo.obj
 0001:0001aef0       _qsort                     1001bef0 f   libucrt:qsort.obj
 0001:0001b491       _strncpy_s                 1001c491 f   libucrt:strncpy_s.obj
 0001:0001b4a0       _strpbrk                   1001c4a0 f   libucrt:strpbrk.obj
 0001:0001b4e0       __mbsdec                   1001c4e0 f   libucrt:mbsdec.obj
 0001:0001b4f7       __mbsdec_l                 1001c4f7 f   libucrt:mbsdec.obj
 0001:0001b76e       ___acrt_LCMapStringA       1001c76e f   libucrt:lcmapstringa.obj
 0001:0001b868       __commit                   1001c868 f   libucrt:commit.obj
 0001:0001c060       __write                    1001d060 f   libucrt:write.obj
 0001:0001c152       __write_nolock             1001d152 f   libucrt:write.obj
 0001:0001c32c       ___acrt_GetStringTypeW     1001d32c f   libucrt:getstringtypew.obj
 0001:0001c345       ___ascii_wcsnicmp          1001d345 f   libucrt:wcsnicmp.obj
 0001:0001c394       ?__mbrtoc32_utf8@__crt_mbstring@@YAIPA_UPBDIPAU_Mbstatet@@@Z 1001d394 f   libucrt:mbrtoc32.obj
 0001:0001c53b       __controlfp_s              1001d53b f   libucrt:contrlfp.obj
 0001:0001c59a       _fegetenv                  1001d59a f   libucrt:fegetenv.obj
 0001:0001c5b7       _fesetenv                  1001d5b7 f   libucrt:fesetenv.obj
 0001:0001c602       _feholdexcept              1001d602 f   libucrt:feholdexcept.obj
 0001:0001c650       __CIlog10                  1001d650 f   libucrt:log10_impl.obj
 0001:0001c68b       __CIlog10_default          1001d68b f   libucrt:log10_impl.obj
 0001:0001c69f       __log10_default            1001d69f     libucrt:log10_impl.obj
 0001:0001c760       _ceil                      1001d760 f   libucrt:ceil_pentium4.obj
 0001:0001c7a0       __ceil_pentium4            1001d7a0 f   libucrt:ceil_pentium4.obj
 0001:0001cb9a       ___acrt_fenv_get_common_round_control 1001db9a f   libucrt:_fenvutils.obj
 0001:0001cbbc       ___acrt_fenv_get_control   1001dbbc f   libucrt:_fenvutils.obj
 0001:0001cc3c       ___acrt_fenv_get_status    1001dc3c f   libucrt:_fenvutils.obj
 0001:0001ccf4       ___acrt_fenv_set_control   1001dcf4 f   libucrt:_fenvutils.obj
 0001:0001cd5c       ___acrt_fenv_set_status    1001dd5c f   libucrt:_fenvutils.obj
 0001:0001cecf       __lseeki64_nolock          1001decf f   libucrt:lseek.obj
 0001:0001ceea       __fclose_nolock            1001deea f   libucrt:fclose.obj
 0001:0001cf61       _fclose                    1001df61 f   libucrt:fclose.obj
 0001:0001cfe5       __query_app_type           1001dfe5 f   libucrt:report_runtime_error.obj
 0001:0001cfeb       ___strncnt                 1001dfeb f   libucrt:strncnt.obj
 0001:0001d007       __putwch_nolock            1001e007 f   libucrt:putwch.obj
 0001:0001d0e0       __clearfp                  1001e0e0 f   libucrt:ieee87.obj
 0001:0001d1be       __control87                1001e1be f   libucrt:ieee87.obj
 0001:0001d55d       ___acrt_initialize_sse2    1001e55d f   libucrt:mathfcns.obj
 0001:0001d570       __CIlog10_pentium4         1001e570 f   libucrt:log10_pentium4.obj
 0001:0001d588       __log10_pentium4           1001e588     libucrt:log10_pentium4.obj
 0001:0001d820       __fFEXP                    1001e820 f   libucrt:87tran.obj
 0001:0001d877       __rtinfpopse               1001e877     libucrt:87tran.obj
 0001:0001d879       __rtinfnpopse              1001e879     libucrt:87tran.obj
 0001:0001d889       __fFLN                     1001e889     libucrt:87tran.obj
 0001:0001d93e       __rtinfpop                 1001e93e     libucrt:87tran.obj
 0001:0001d940       __rtinfnpop                1001e940     libucrt:87tran.obj
 0001:0001d950       __rtforexpinf              1001e950 f   libucrt:87tran.obj
 0001:0001d95d       __ffexpm1                  1001e95d     libucrt:87tran.obj
 0001:0001da10       __trandisp1                1001ea10 f   libucrt:87disp.obj
 0001:0001da85       __trandisp2                1001ea85 f   libucrt:87disp.obj
 0001:0001db1f       __rttospopde               1001eb1f     libucrt:87disp.obj
 0001:0001db24       __rttospop                 1001eb24     libucrt:87disp.obj
 0001:0001db30       __rtnospop                 1001eb30 f   libucrt:87disp.obj
 0001:0001db40       __rttosnpop                1001eb40 f   libucrt:87disp.obj
 0001:0001db41       __rtnospopde               1001eb41     libucrt:87disp.obj
 0001:0001db48       __rtzeropop                1001eb48     libucrt:87disp.obj
 0001:0001db4a       __rtzeronpop               1001eb4a     libucrt:87disp.obj
 0001:0001db50       __rtzerospop               1001eb50 f   libucrt:87disp.obj
 0001:0001db5d       __rtonepop                 1001eb5d     libucrt:87disp.obj
 0001:0001db60       __rtonenpop                1001eb60 f   libucrt:87disp.obj
 0001:0001db70       __tosnan1                  1001eb70 f   libucrt:87disp.obj
 0001:0001dba0       __nosnan2                  1001eba0 f   libucrt:87disp.obj
 0001:0001dbb0       __tosnan2                  1001ebb0 f   libucrt:87disp.obj
 0001:0001dbe0       __nan2                     1001ebe0 f   libucrt:87disp.obj
 0001:0001dc20       __rtindfpop                1001ec20 f   libucrt:87disp.obj
 0001:0001dc22       __rtindfnpop               1001ec22     libucrt:87disp.obj
 0001:0001dc33       __rttosnpopde              1001ec33     libucrt:87disp.obj
 0001:0001dc40       __rtatan2inf               1001ec40 f   libucrt:87disp.obj
 0001:0001dc5d       __rtchsifneg               1001ec5d     libucrt:87disp.obj
 0001:0001dc70       __twoToTOS                 1001ec70 f   libucrt:common.obj
 0001:0001dc85       __load_CW                  1001ec85 f   libucrt:common.obj
 0001:0001dc9c       __convertTOStoQNaN         1001ec9c f   libucrt:common.obj
 0001:0001dcb5       __fload_withFB             1001ecb5 f   libucrt:common.obj
 0001:0001dcf8       __checkTOS_withFB          1001ecf8 f   libucrt:common.obj
 0001:0001dd0e       __fast_exit                1001ed0e f   libucrt:common.obj
 0001:0001dd1b       __math_exit                1001ed1b f   libucrt:common.obj
 0001:0001dd45       __check_overflow_exit      1001ed45 f   libucrt:common.obj
 0001:0001dd59       __check_range_exit         1001ed59 f   libucrt:common.obj
 0001:0001de00       __startTwoArgErrorHandling 1001ee00 f   libucrt:genexcep.obj
 0001:0001de17       __startOneArgErrorHandling 1001ee17 f   libucrt:genexcep.obj
 0001:0001de53       ___libm_error_support      1001ee53 f   libucrt:libm_error.obj
 0001:0001e047       __ceil_default             1001f047 f   libucrt:ceil.obj
 0001:0001e188       __close                    1001f188 f   libucrt:close.obj
 0001:0001e215       __close_nolock             1001f215 f   libucrt:close.obj
 0001:0001e2b1       ?__acrt_stdio_free_stream@@YAXV__crt_stdio_stream@@@Z 1001f2b1 f   libucrt:stream.obj
 0001:0001e2f0       ___ascii_strnicmp          1001f2f0 f   libucrt:_strnicm.obj
 0001:0001e370       ___dcrt_lowio_ensure_console_output_initialized 1001f370 f   libucrt:initcon.obj
 0001:0001e38f       ___dcrt_terminate_console_output 1001f38f f   libucrt:initcon.obj
 0001:0001e3a6       ___dcrt_write_console      1001f3a6 f   libucrt:initcon.obj
 0001:0001e3fb       ___set_fpsr_sse2           1001f3fb f   libucrt:fpctrl.obj
 0001:0001e47b       __clrfp                    1001f47b f   libucrt:fpctrl.obj
 0001:0001e48c       __ctrlfp                   1001f48c f   libucrt:fpctrl.obj
 0001:0001e4b6       __set_statfp               1001f4b6 f   libucrt:fpctrl.obj
 0001:0001e50f       __statfp                   1001f50f f   libucrt:fpctrl.obj
 0001:0001e51f       __d_inttype                1001f51f f   libucrt:powhlp.obj
 0001:0001e587       __powhlp                   1001f587 f   libucrt:powhlp.obj
 0001:0001e6b2       __87except                 1001f6b2 f   libucrt:87except.obj
 0001:0001e7bc       __frnd                     1001f7bc f   libucrt:frnd.obj
 0001:0001e7d0       __errcode                  1001f7d0 f   libucrt:fpexcept.obj
 0001:0001e804       __except1                  1001f804 f   libucrt:fpexcept.obj
 0001:0001e8d2       __handle_exc               1001f8d2 f   libucrt:fpexcept.obj
 0001:0001eabd       __raise_exc                1001fabd f   libucrt:fpexcept.obj
 0001:0001eae0       __raise_exc_ex             1001fae0 f   libucrt:fpexcept.obj
 0001:0001edd6       __set_errno_from_matherr   1001fdd6 f   libucrt:fpexcept.obj
 0001:0001ee05       __umatherr                 1001fe05 f   libucrt:fpexcept.obj
 0001:0001eea5       __decomp                   1001fea5 f   libucrt:util.obj
 0001:0001ef77       __set_exp                  1001ff77 f   libucrt:util.obj
 0001:0001efa4       __sptype                   1001ffa4 f   libucrt:util.obj
 0001:0001f002       __fpclass                  10020002 f   libucrt:ieeemisc.obj
 0001:0001f0a6       _IsProcessorFeaturePresent@4 100200a6 f   kernel32:KERNEL32.dll
 0001:0001f0b0       __FindPESection            100200b0 f   LIBCMT:pesect.obj
 0001:0001f100       __IsNonwritableInCurrentImage 10020100 f   LIBCMT:pesect.obj
 0001:0001f1c0       __ValidateImageBase        100201c0 f   LIBCMT:pesect.obj
 0001:0001f1f3       __EH_prolog3_catch         100201f3 f   LIBCMT:ehprolg3.obj
 0001:0001f230       __aulldvrm                 10020230 f   LIBCMT:ulldvrm.obj
 0001:0001f2d0       __allmul                   100202d0 f   LIBCMT:llmul.obj
 0001:0001f310       __alldvrm                  10020310 f   LIBCMT:lldvrm.obj
 0001:0001f3f0       __allshl                   100203f0 f   LIBCMT:llshl.obj
 0001:0001f410       __aullshr                  10020410 f   LIBCMT:ullshr.obj
 0001:0001f430       __ftoi2                    10020430 f   LIBCMT:ftol2.obj
 0001:0001f430       __ftol2_sse                10020430     LIBCMT:ftol2.obj
 0001:0001f430       __ftol2_sse_excpt          10020430     LIBCMT:ftol2.obj
 0001:0001f4b0       __ftoui2                   100204b0 f   LIBCMT:ftol2.obj
 0001:0001f560       __ftol2                    10020560 f   LIBCMT:ftol2.obj
 0001:0001f610       __ftoul2                   10020610 f   LIBCMT:ftol2.obj
 0001:0001f6d0       _strrchr                   100206d0 f   libvcruntime:strrchr.obj
 0001:0001f810       _strchr                    10020810 f   libvcruntime:strchr.obj
 0001:0001f87e       ___from_strstr_to_strchr   1002087e     libvcruntime:strchr.obj
 0001:0001f93b       __filter_x86_sse2_floating_point_exception_default 1002093b f   LIBCMT:x86_exception_filter.obj
 0001:0001f93b       __filter_x86_sse2_floating_point_exception 1002093b f   LIBCMT:x86_exception_filter.obj
 0002:00000000       __imp__RegQueryValueExW@24 10021000     advapi32:ADVAPI32.dll
 0002:00000004       __imp__RegSetValueExW@24   10021004     advapi32:ADVAPI32.dll
 0002:00000008       __imp__RegQueryInfoKeyW@48 10021008     advapi32:ADVAPI32.dll
 0002:0000000c       __imp__RegOpenKeyExW@20    1002100c     advapi32:ADVAPI32.dll
 0002:00000010       __imp__RegEnumKeyExW@32    10021010     advapi32:ADVAPI32.dll
 0002:00000014       __imp__RegDeleteValueW@8   10021014     advapi32:ADVAPI32.dll
 0002:00000018       __imp__RegDeleteKeyW@8     10021018     advapi32:ADVAPI32.dll
 0002:0000001c       __imp__RegCreateKeyExW@36  1002101c     advapi32:ADVAPI32.dll
 0002:00000020       __imp__RegCloseKey@4       10021020     advapi32:ADVAPI32.dll
 0002:00000024       \177ADVAPI32_NULL_THUNK_DATA 10021024     advapi32:ADVAPI32.dll
 0002:00000028       __imp__GetObjectW@12       10021028     gdi32:GDI32.dll
 0002:0000002c       __imp__SelectObject@8      1002102c     gdi32:GDI32.dll
 0002:00000030       __imp__DeleteObject@4      10021030     gdi32:GDI32.dll
 0002:00000034       __imp__CreateCompatibleDC@4 10021034     gdi32:GDI32.dll
 0002:00000038       __imp__BitBlt@36           10021038     gdi32:GDI32.dll
 0002:0000003c       __imp__SetWindowOrgEx@16   1002103c     gdi32:GDI32.dll
 0002:00000040       __imp__SetWindowExtEx@16   10021040     gdi32:GDI32.dll
 0002:00000044       __imp__SetViewportOrgEx@16 10021044     gdi32:GDI32.dll
 0002:00000048       __imp__LPtoDP@12           10021048     gdi32:GDI32.dll
 0002:0000004c       __imp__SetMapMode@8        1002104c     gdi32:GDI32.dll
 0002:00000050       __imp__SaveDC@4            10021050     gdi32:GDI32.dll
 0002:00000054       __imp__RestoreDC@8         10021054     gdi32:GDI32.dll
 0002:00000058       __imp__GetDeviceCaps@8     10021058     gdi32:GDI32.dll
 0002:0000005c       __imp__DeleteMetaFile@4    1002105c     gdi32:GDI32.dll
 0002:00000060       __imp__DeleteDC@4          10021060     gdi32:GDI32.dll
 0002:00000064       __imp__CreateRectRgnIndirect@4 10021064     gdi32:GDI32.dll
 0002:00000068       __imp__CreateMetaFileW@4   10021068     gdi32:GDI32.dll
 0002:0000006c       __imp__CreateDCW@16        1002106c     gdi32:GDI32.dll
 0002:00000070       __imp__CloseMetaFile@4     10021070     gdi32:GDI32.dll
 0002:00000074       \177GDI32_NULL_THUNK_DATA  10021074     gdi32:GDI32.dll
 0002:00000078       __imp__CloseHandle@4       10021078     kernel32:KERNEL32.dll
 0002:0000007c       __imp__SetEvent@4          1002107c     kernel32:KERNEL32.dll
 0002:00000080       __imp__CreateMutexW@12     10021080     kernel32:KERNEL32.dll
 0002:00000084       __imp__CreateEventW@16     10021084     kernel32:KERNEL32.dll
 0002:00000088       __imp__GetCurrentProcessId@0 10021088     kernel32:KERNEL32.dll
 0002:0000008c       __imp__CreateFileW@28      1002108c     kernel32:KERNEL32.dll
 0002:00000090       __imp__GetConsoleMode@8    10021090     kernel32:KERNEL32.dll
 0002:00000094       __imp__GetConsoleOutputCP@0 10021094     kernel32:KERNEL32.dll
 0002:00000098       __imp__WriteFile@20        10021098     kernel32:KERNEL32.dll
 0002:0000009c       __imp__FlushFileBuffers@4  1002109c     kernel32:KERNEL32.dll
 0002:000000a0       __imp__SetStdHandle@8      100210a0     kernel32:KERNEL32.dll
 0002:000000a4       __imp__GetStringTypeW@16   100210a4     kernel32:KERNEL32.dll
 0002:000000a8       __imp__SetFilePointerEx@20 100210a8     kernel32:KERNEL32.dll
 0002:000000ac       __imp__FreeEnvironmentStringsW@4 100210ac     kernel32:KERNEL32.dll
 0002:000000b0       __imp__GetEnvironmentStringsW@0 100210b0     kernel32:KERNEL32.dll
 0002:000000b4       __imp__lstrcmpiW@8         100210b4     kernel32:KERNEL32.dll
 0002:000000b8       __imp__GetCommandLineA@0   100210b8     kernel32:KERNEL32.dll
 0002:000000bc       __imp__GetCPInfo@8         100210bc     kernel32:KERNEL32.dll
 0002:000000c0       __imp__GetOEMCP@0          100210c0     kernel32:KERNEL32.dll
 0002:000000c4       __imp__GetACP@0            100210c4     kernel32:KERNEL32.dll
 0002:000000c8       __imp__IsValidCodePage@4   100210c8     kernel32:KERNEL32.dll
 0002:000000cc       __imp__FindNextFileW@8     100210cc     kernel32:KERNEL32.dll
 0002:000000d0       __imp__FindFirstFileExW@24 100210d0     kernel32:KERNEL32.dll
 0002:000000d4       __imp__FindClose@4         100210d4     kernel32:KERNEL32.dll
 0002:000000d8       __imp__GetFileType@4       100210d8     kernel32:KERNEL32.dll
 0002:000000dc       __imp__GetStdHandle@4      100210dc     kernel32:KERNEL32.dll
 0002:000000e0       __imp__LCMapStringW@24     100210e0     kernel32:KERNEL32.dll
 0002:000000e4       __imp__HeapReAlloc@16      100210e4     kernel32:KERNEL32.dll
 0002:000000e8       __imp__HeapSize@12         100210e8     kernel32:KERNEL32.dll
 0002:000000ec       __imp__MulDiv@12           100210ec     kernel32:KERNEL32.dll
 0002:000000f0       __imp__GlobalLock@4        100210f0     kernel32:KERNEL32.dll
 0002:000000f4       __imp__GlobalUnlock@4      100210f4     kernel32:KERNEL32.dll
 0002:000000f8       __imp__GlobalAlloc@8       100210f8     kernel32:KERNEL32.dll
 0002:000000fc       __imp__FindResourceW@12    100210fc     kernel32:KERNEL32.dll
 0002:00000100       __imp__SizeofResource@8    10021100     kernel32:KERNEL32.dll
 0002:00000104       __imp__LoadResource@8      10021104     kernel32:KERNEL32.dll
 0002:00000108       __imp__LoadLibraryExW@12   10021108     kernel32:KERNEL32.dll
 0002:0000010c       __imp__GetProcAddress@8    1002110c     kernel32:KERNEL32.dll
 0002:00000110       __imp__GetModuleHandleW@4  10021110     kernel32:KERNEL32.dll
 0002:00000114       __imp__GetModuleFileNameW@12 10021114     kernel32:KERNEL32.dll
 0002:00000118       __imp__FreeLibrary@4       10021118     kernel32:KERNEL32.dll
 0002:0000011c       __imp__DisableThreadLibraryCalls@4 1002111c     kernel32:KERNEL32.dll
 0002:00000120       __imp__GetCurrentThreadId@0 10021120     kernel32:KERNEL32.dll
 0002:00000124       __imp__Sleep@4             10021124     kernel32:KERNEL32.dll
 0002:00000128       __imp__WaitForSingleObject@8 10021128     kernel32:KERNEL32.dll
 0002:0000012c       __imp__ReleaseMutex@4      1002112c     kernel32:KERNEL32.dll
 0002:00000130       __imp__ResetEvent@4        10021130     kernel32:KERNEL32.dll
 0002:00000134       __imp__EnterCriticalSection@4 10021134     kernel32:KERNEL32.dll
 0002:00000138       __imp__LeaveCriticalSection@4 10021138     kernel32:KERNEL32.dll
 0002:0000013c       __imp__SetLastError@4      1002113c     kernel32:KERNEL32.dll
 0002:00000140       __imp__EncodePointer@4     10021140     kernel32:KERNEL32.dll
 0002:00000144       __imp__DeleteCriticalSection@4 10021144     kernel32:KERNEL32.dll
 0002:00000148       __imp__InitializeCriticalSectionEx@12 10021148     kernel32:KERNEL32.dll
 0002:0000014c       __imp__GetLastError@0      1002114c     kernel32:KERNEL32.dll
 0002:00000150       __imp__RaiseException@16   10021150     kernel32:KERNEL32.dll
 0002:00000154       __imp__DecodePointer@4     10021154     kernel32:KERNEL32.dll
 0002:00000158       __imp__WideCharToMultiByte@32 10021158     kernel32:KERNEL32.dll
 0002:0000015c       __imp__GetCommandLineW@0   1002115c     kernel32:KERNEL32.dll
 0002:00000160       __imp__MultiByteToWideChar@24 10021160     kernel32:KERNEL32.dll
 0002:00000164       __imp__WriteConsoleW@20    10021164     kernel32:KERNEL32.dll
 0002:00000168       __imp__GetModuleHandleExW@12 10021168     kernel32:KERNEL32.dll
 0002:0000016c       __imp__ExitProcess@4       1002116c     kernel32:KERNEL32.dll
 0002:00000170       __imp__VirtualQuery@12     10021170     kernel32:KERNEL32.dll
 0002:00000174       __imp__VirtualProtect@16   10021174     kernel32:KERNEL32.dll
 0002:00000178       __imp__GetSystemInfo@4     10021178     kernel32:KERNEL32.dll
 0002:0000017c       __imp__TlsFree@4           1002117c     kernel32:KERNEL32.dll
 0002:00000180       __imp__TlsSetValue@8       10021180     kernel32:KERNEL32.dll
 0002:00000184       __imp__TlsGetValue@4       10021184     kernel32:KERNEL32.dll
 0002:00000188       __imp__TlsAlloc@0          10021188     kernel32:KERNEL32.dll
 0002:0000018c       __imp__InterlockedFlushSList@4 1002118c     kernel32:KERNEL32.dll
 0002:00000190       __imp__RtlUnwind@16        10021190     kernel32:KERNEL32.dll
 0002:00000194       __imp__LoadLibraryExA@12   10021194     kernel32:KERNEL32.dll
 0002:00000198       __imp__VirtualFree@12      10021198     kernel32:KERNEL32.dll
 0002:0000019c       __imp__VirtualAlloc@16     1002119c     kernel32:KERNEL32.dll
 0002:000001a0       __imp__FlushInstructionCache@12 100211a0     kernel32:KERNEL32.dll
 0002:000001a4       __imp__InterlockedPushEntrySList@8 100211a4     kernel32:KERNEL32.dll
 0002:000001a8       __imp__InterlockedPopEntrySList@4 100211a8     kernel32:KERNEL32.dll
 0002:000001ac       __imp__GetProcessHeap@0    100211ac     kernel32:KERNEL32.dll
 0002:000001b0       __imp__HeapFree@12         100211b0     kernel32:KERNEL32.dll
 0002:000001b4       __imp__HeapAlloc@12        100211b4     kernel32:KERNEL32.dll
 0002:000001b8       __imp__OutputDebugStringW@4 100211b8     kernel32:KERNEL32.dll
 0002:000001bc       __imp__InitializeSListHead@4 100211bc     kernel32:KERNEL32.dll
 0002:000001c0       __imp__GetSystemTimeAsFileTime@4 100211c0     kernel32:KERNEL32.dll
 0002:000001c4       __imp__QueryPerformanceCounter@4 100211c4     kernel32:KERNEL32.dll
 0002:000001c8       __imp__GetStartupInfoW@4   100211c8     kernel32:KERNEL32.dll
 0002:000001cc       __imp__IsDebuggerPresent@0 100211cc     kernel32:KERNEL32.dll
 0002:000001d0       __imp__IsProcessorFeaturePresent@4 100211d0     kernel32:KERNEL32.dll
 0002:000001d4       __imp__TerminateProcess@8  100211d4     kernel32:KERNEL32.dll
 0002:000001d8       __imp__GetCurrentProcess@0 100211d8     kernel32:KERNEL32.dll
 0002:000001dc       __imp__SetUnhandledExceptionFilter@4 100211dc     kernel32:KERNEL32.dll
 0002:000001e0       __imp__UnhandledExceptionFilter@4 100211e0     kernel32:KERNEL32.dll
 0002:000001e4       __imp__InitializeCriticalSectionAndSpinCount@8 100211e4     kernel32:KERNEL32.dll
 0002:000001e8       __imp__WaitForSingleObjectEx@12 100211e8     kernel32:KERNEL32.dll
 0002:000001ec       \177KERNEL32_NULL_THUNK_DATA 100211ec     kernel32:KERNEL32.dll
 0002:000001f0       __imp__OleCreatePropertyFrame@44 100211f0     oleaut32:OLEAUT32.dll
 0002:000001f4       __imp__UnRegisterTypeLib@20 100211f4     oleaut32:OLEAUT32.dll
 0002:000001f8       __imp__RegisterTypeLib@12  100211f8     oleaut32:OLEAUT32.dll
 0002:000001fc       __imp__LoadRegTypeLib@20   100211fc     oleaut32:OLEAUT32.dll
 0002:00000200       __imp__LoadTypeLib@8       10021200     oleaut32:OLEAUT32.dll
 0002:00000204       __imp__VarUI4FromStr@16    10021204     oleaut32:OLEAUT32.dll
 0002:00000208       __imp__VariantInit@4       10021208     oleaut32:OLEAUT32.dll
 0002:0000020c       __imp__SysAllocStringByteLen@8 1002120c     oleaut32:OLEAUT32.dll
 0002:00000210       __imp__SysStringByteLen@4  10021210     oleaut32:OLEAUT32.dll
 0002:00000214       __imp__VariantChangeType@16 10021214     oleaut32:OLEAUT32.dll
 0002:00000218       __imp__VariantClear@4      10021218     oleaut32:OLEAUT32.dll
 0002:0000021c       __imp__SysStringLen@4      1002121c     oleaut32:OLEAUT32.dll
 0002:00000220       __imp__SysFreeString@4     10021220     oleaut32:OLEAUT32.dll
 0002:00000224       __imp__SysAllocStringLen@8 10021224     oleaut32:OLEAUT32.dll
 0002:00000228       __imp__SysAllocString@4    10021228     oleaut32:OLEAUT32.dll
 0002:0000022c       \177OLEAUT32_NULL_THUNK_DATA 1002122c     oleaut32:OLEAUT32.dll
 0002:00000230       __imp__UnregisterClassW@8  10021230     user32:USER32.dll
 0002:00000234       __imp__PostMessageW@16     10021234     user32:USER32.dll
 0002:00000238       __imp__DefWindowProcW@16   10021238     user32:USER32.dll
 0002:0000023c       __imp__CallWindowProcW@20  1002123c     user32:USER32.dll
 0002:00000240       __imp__RegisterClassExW@4  10021240     user32:USER32.dll
 0002:00000244       __imp__GetClassInfoExW@12  10021244     user32:USER32.dll
 0002:00000248       __imp__CreateWindowExW@48  10021248     user32:USER32.dll
 0002:0000024c       __imp__IsWindow@4          1002124c     user32:USER32.dll
 0002:00000250       __imp__IsChild@8           10021250     user32:USER32.dll
 0002:00000254       __imp__DestroyWindow@4     10021254     user32:USER32.dll
 0002:00000258       __imp__ShowWindow@8        10021258     user32:USER32.dll
 0002:0000025c       __imp__SetWindowPos@28     1002125c     user32:USER32.dll
 0002:00000260       __imp__CharNextW@4         10021260     user32:USER32.dll
 0002:00000264       __imp__SetFocus@4          10021264     user32:USER32.dll
 0002:00000268       __imp__LoadBitmapW@8       10021268     user32:USER32.dll
 0002:0000026c       __imp__RegisterClassW@4    1002126c     user32:USER32.dll
 0002:00000270       __imp__PeekMessageW@20     10021270     user32:USER32.dll
 0002:00000274       __imp__LoadCursorW@8       10021274     user32:USER32.dll
 0002:00000278       __imp__GetParent@4         10021278     user32:USER32.dll
 0002:0000027c       __imp__SetWindowLongW@12   1002127c     user32:USER32.dll
 0002:00000280       __imp__GetWindowLongW@8    10021280     user32:USER32.dll
 0002:00000284       __imp__PtInRect@12         10021284     user32:USER32.dll
 0002:00000288       __imp__EqualRect@8         10021288     user32:USER32.dll
 0002:0000028c       __imp__OffsetRect@12       1002128c     user32:USER32.dll
 0002:00000290       __imp__UnionRect@12        10021290     user32:USER32.dll
 0002:00000294       __imp__IntersectRect@12    10021294     user32:USER32.dll
 0002:00000298       __imp__GetClientRect@8     10021298     user32:USER32.dll
 0002:0000029c       __imp__InvalidateRect@12   1002129c     user32:USER32.dll
 0002:000002a0       __imp__SetWindowRgn@12     100212a0     user32:USER32.dll
 0002:000002a4       __imp__EndPaint@8          100212a4     user32:USER32.dll
 0002:000002a8       __imp__BeginPaint@8        100212a8     user32:USER32.dll
 0002:000002ac       __imp__ReleaseDC@8         100212ac     user32:USER32.dll
 0002:000002b0       __imp__GetDC@4             100212b0     user32:USER32.dll
 0002:000002b4       __imp__GetKeyState@4       100212b4     user32:USER32.dll
 0002:000002b8       __imp__GetFocus@0          100212b8     user32:USER32.dll
 0002:000002bc       \177USER32_NULL_THUNK_DATA 100212bc     user32:USER32.dll
 0002:000002c0       __imp__StringFromGUID2@12  100212c0     ole32:ole32.dll
 0002:000002c4       __imp__CoTaskMemAlloc@4    100212c4     ole32:ole32.dll
 0002:000002c8       __imp__CoTaskMemRealloc@8  100212c8     ole32:ole32.dll
 0002:000002cc       __imp__CoTaskMemFree@4     100212cc     ole32:ole32.dll
 0002:000002d0       __imp__ReadClassStm@8      100212d0     ole32:ole32.dll
 0002:000002d4       __imp__WriteClassStm@8     100212d4     ole32:ole32.dll
 0002:000002d8       __imp__CreateDataAdviseHolder@4 100212d8     ole32:ole32.dll
 0002:000002dc       __imp__OleSaveToStream@8   100212dc     ole32:ole32.dll
 0002:000002e0       __imp__CreateOleAdviseHolder@4 100212e0     ole32:ole32.dll
 0002:000002e4       __imp__OleRegGetUserType@12 100212e4     ole32:ole32.dll
 0002:000002e8       __imp__OleRegGetMiscStatus@12 100212e8     ole32:ole32.dll
 0002:000002ec       __imp__OleRegEnumVerbs@8   100212ec     ole32:ole32.dll
 0002:000002f0       __imp__CLSIDFromProgID@8   100212f0     ole32:ole32.dll
 0002:000002f4       __imp__CoCreateInstance@20 100212f4     ole32:ole32.dll
 0002:000002f8       \177ole32_NULL_THUNK_DATA  100212f8     ole32:ole32.dll
 0002:000002fc       ___guard_check_icall_fptr  100212fc     LIBCMT:guard_support.obj
 0002:00000300       ___xc_a                    10021300     LIBCMT:initializers.obj
 0002:00000318       ___xc_z                    10021318     LIBCMT:initializers.obj
 0002:0000031c       ___xi_a                    1002131c     LIBCMT:initializers.obj
 0002:00000324       ___acrt_stdio_initializer  10021324     libucrt:stdio_initializer.obj
 0002:00000328       ___acrt_multibyte_initializer 10021328     libucrt:multibyte_initializer.obj
 0002:0000032c       ___acrt_tran_sse2_initializer 1002132c     libucrt:sse2_initializer.obj
 0002:00000330       ___xi_z                    10021330     LIBCMT:initializers.obj
 0002:00000334       ___xl_a                    10021334     LIBCMT:tlssup.obj
 0002:00000338       ___xl_z                    10021338     LIBCMT:tlssup.obj
 0002:0000033c       ___xp_a                    1002133c     LIBCMT:initializers.obj
 0002:00000340       ___acrt_locale_terminator  10021340     libucrt:locale_initializer.obj
 0002:00000344       ___dcrt_console_output_terminator 10021344     libucrt:console_output_initializer.obj
 0002:00000348       ___acrt_stdio_terminator   10021348     libucrt:stdio_initializer.obj
 0002:0000034c       ___xp_z                    1002134c     LIBCMT:initializers.obj
 0002:00000350       ___xt_a                    10021350     LIBCMT:initializers.obj
 0002:00000354       ___xt_z                    10021354     LIBCMT:initializers.obj
 0002:00000360       ??_C@_13HADIAKP@?$AAS@     10021360     OposVariant.obj
 0002:00000364       ??_C@_13LHMFKAAD@?$AAM@    10021364     OposVariant.obj
 0002:00000368       ??_C@_13MKMNOPIJ@?$AAD@    10021368     OposVariant.obj
 0002:0000036c       ??_C@_13OPKGLAFF@?$AAB@    1002136c     OposVariant.obj
 0002:00000370       ??_C@_17LLMMEOJD@?$AAV?$AAa?$AAl@ 10021370     OposVariant.obj
 0002:00000378       ??_C@_1BI@JFAIJMHL@?$AAF?$AAo?$AAr?$AAc?$AAe?$AAR?$AAe?$AAm?$AAo?$AAv?$AAe@ 10021378     OposVariant.obj
 0002:00000390       ??_C@_1BC@GCKHIPE@?$AAN?$AAo?$AAR?$AAe?$AAm?$AAo?$AAv?$AAe@ 10021390     OposVariant.obj
 0002:000003a4       ??_C@_1O@JDLOHAN@?$AAD?$AAe?$AAl?$AAe?$AAt?$AAe@ 100213a4     OposVariant.obj
 0002:000003b4       ??_C@_11LOCGONAA@@         100213b4     OposVariant.obj
 0002:000003b8       __GUID_00020412_0000_0000_c000_000000000046 100213b8     POSPrinter.obj
 0002:000003c8       __GUID_00020401_0000_0000_c000_000000000046 100213c8     POSPrinter.obj
 0002:000003d8       ??_7CComClassFactory@ATL@@6B@ 100213d8     POSPrinter.obj
 0002:000003f0       ?_entries@?1??_GetEntries@CComClassFactory@ATL@@SGPBU_ATL_INTMAP_ENTRY@3@XZ@4QBU43@B 100213f0     POSPrinter.obj
 0002:00000408       __GUID_00000001_0000_0000_c000_000000000046 10021408     POSPrinter.obj
 0002:00000418       ??_7?$CComObject@V?$CComEnum@UIEnumConnections@@$1?_GUID_b196b287_bab4_101a_b69c_00aa00341d07@@3U__s_GUID@@BUtagCONNECTDATA@@V?$_Copy@UtagCONNECTDATA@@@ATL@@VCComSingleThreadModel@6@@ATL@@@ATL@@6B@ 10021418     POSPrinter.obj
 0002:00000438       _IID_IOPOSPOSPrinter_1_5   10021438     POSPrinter.obj
 0002:00000448       ?_entries@?1??_GetEntries@?$CComEnum@UIEnumConnections@@$1?_GUID_b196b287_bab4_101a_b69c_00aa00341d07@@3U__s_GUID@@BUtagCONNECTDATA@@V?$_Copy@UtagCONNECTDATA@@@ATL@@VCComSingleThreadModel@6@@ATL@@SGPBU_ATL_INTMAP_ENTRY@3@XZ@4QBU43@B 10021448     POSPrinter.obj
 0002:00000460       ??_C@_1BK@BIGILECK@?$AAA?$AAd?$AAv?$AAa?$AAp?$AAi?$AA3?$AA2?$AA?4?$AAd?$AAl?$AAl@ 10021460     POSPrinter.obj
 0002:0000047c       __GUID_00000114_0000_0000_c000_000000000046 1002147c     POSPrinter.obj
 0002:0000048c       ??_C@_0BI@MNCFCPFK@RegCreateKeyTransactedW@ 1002148c     POSPrinter.obj
 0002:000004a4       __GUID_b196b287_bab4_101a_b69c_00aa00341d07 100214a4     POSPrinter.obj
 0002:000004b4       __GUID_b196b285_bab4_101a_b69c_00aa00341d07 100214b4     POSPrinter.obj
 0002:000004c4       _IID_IOPOSPOSPrinter_1_7   100214c4     POSPrinter.obj
 0002:000004d4       _IID_IOPOSPOSPrinter_1_8   100214d4     POSPrinter.obj
 0002:000004e4       _IID_IOPOSPOSPrinter_1_9   100214e4     POSPrinter.obj
 0002:000004f4       __GUID_a6bc3ac0_dbaa_11ce_9de3_00aa004bb851 100214f4     POSPrinter.obj
 0002:00000504       __GUID_0000010c_0000_0000_c000_000000000046 10021504     POSPrinter.obj
 0002:00000514       _IID_IOPOSPOSPrinter_1_10  10021514     POSPrinter.obj
 0002:00000524       _IID_IOPOSPOSPrinter_1_10_zz 10021524     POSPrinter.obj
 0002:00000534       _IID_IOPOSPOSPrinter_1_13  10021534     POSPrinter.obj
 0002:00000544       _IID_IOPOSPOSPrinter       10021544     POSPrinter.obj
 0002:00000554       __GUID_00000146_0000_0000_c000_000000000046 10021554     POSPrinter.obj
 0002:00000564       _LIBID_OposPOSPrinter_CCO  10021564     POSPrinter.obj
 0002:00000574       _DIID__IOPOSPOSPrinterEvents 10021574     POSPrinter.obj
 0002:00000584       _CLSID_OPOSPOSPrinter      10021584     POSPrinter.obj
 0002:00000594       ??_7CComModule@ATL@@6B@    10021594     POSPrinter.obj
 0002:000005bc       __GUID_922eada0_3424_11cf_b670_00aa004cd6d8 100215bc     POSPrinter.obj
 0002:000005cc       __GUID_9c2cad80_3424_11cf_b670_00aa004cd6d8 100215cc     POSPrinter.obj
 0002:000005dc       __GUID_00000119_0000_0000_c000_000000000046 100215dc     POSPrinter.obj
 0002:000005ec       __GUID_b196b289_bab4_101a_b69c_00aa00341d07 100215ec     POSPrinter.obj
 0002:000005fc       __GUID_00000000_0000_0000_c000_000000000046 100215fc     POSPrinter.obj
 0002:0000060c       __GUID_00020400_0000_0000_c000_000000000046 1002160c     POSPrinter.obj
 0002:0000061c       __GUID_00000117_0000_0000_c000_000000000046 1002161c     POSPrinter.obj
 0002:0000062c       ??_C@_1M@KANJNLFF@?$AAC?$AAL?$AAS?$AAI?$AAD@ 1002162c     POSPrinter.obj
 0002:00000638       ??_C@_1M@EJNEECMJ@?$AAA?$AAp?$AAp?$AAI?$AAD@ 10021638     POSPrinter.obj
 0002:00000644       __GUID_0000010e_0000_0000_c000_000000000046 10021644     POSPrinter.obj
 0002:00000654       __GUID_b196b288_bab4_101a_b69c_00aa00341d07 10021654     POSPrinter.obj
 0002:00000664       ?rgszNeverDelete@CRegParser@ATL@@1QBQB_WB 10021664     POSPrinter.obj
 0002:00000698       ?_entries@?1??_GetEntries@COPOSPOSPrinter@@SGPBU_ATL_INTMAP_ENTRY@ATL@@XZ@4QBU34@B 10021698     POSPrinter.obj
 0002:00000800       ??_7CRegObject@ATL@@6B@    10021800     POSPrinter.obj
 0002:00000818       __GUID_cf51ed10_62fe_11cf_bf86_00a0c9034836 10021818     POSPrinter.obj
 0002:00000828       __GUID_0000010a_0000_0000_c000_000000000046 10021828     POSPrinter.obj
 0002:00000838       __GUID_b196b283_bab4_101a_b69c_00aa00341d07 10021838     POSPrinter.obj
 0002:00000848       __GUID_cb5bdc81_93c1_11cf_8f20_00805f2cd064 10021848     POSPrinter.obj
 0002:00000858       ?pPropMap@?1??GetPropertyMap@COPOSPOSPrinter@@SAPBUATL_PROPMAP_ENTRY@ATL@@XZ@4QBU34@B 10021858     POSPrinter.obj
 0002:000008c4       __GUID_00000113_0000_0000_c000_000000000046 100218c4     POSPrinter.obj
 0002:000008d4       ??_C@_17DGDADEHL@?$AA_?$AAc?$AAx@ 100218d4     POSPrinter.obj
 0002:000008dc       ??_C@_17IOIMFDBO@?$AA_?$AAc?$AAy@ 100218dc     POSPrinter.obj
 0002:000008e4       __GUID_1c2056cc_5ef4_101b_8bc8_00aa003e3b29 100218e4     POSPrinter.obj
 0002:000008f4       ??_C@_1CK@OEKPKBNA@?$AAC?$AAo?$AAm?$AAp?$AAo?$AAn?$AAe?$AAn?$AAt?$AA?5?$AAC?$AAa?$AAt?$AAe?$AAg@ 100218f4     POSPrinter.obj
 0002:00000920       ??_C@_1BC@NKMMNMGL@?$AAF?$AAi?$AAl?$AAe?$AAT?$AAy?$AAp?$AAe@ 10021920     POSPrinter.obj
 0002:00000934       ??_C@_1BE@EKPAFMCP@?$AAI?$AAn?$AAt?$AAe?$AAr?$AAf?$AAa?$AAc?$AAe@ 10021934     POSPrinter.obj
 0002:00000948       ??_C@_1BC@MAICEHGI@?$AAH?$AAa?$AAr?$AAd?$AAw?$AAa?$AAr?$AAe@ 10021948     POSPrinter.obj
 0002:0000095c       ??_C@_19HLLLM@?$AAM?$AAi?$AAm?$AAe@ 1002195c     POSPrinter.obj
 0002:00000968       ??_C@_17OMAOINJK@?$AAS?$AAA?$AAM@ 10021968     POSPrinter.obj
 0002:00000970       ??_C@_1BC@IBECJAAI@?$AAS?$AAE?$AAC?$AAU?$AAR?$AAI?$AAT?$AAY@ 10021970     POSPrinter.obj
 0002:00000984       ??_C@_1O@GBFINDKL@?$AAS?$AAY?$AAS?$AAT?$AAE?$AAM@ 10021984     POSPrinter.obj
 0002:00000994       ??_C@_1BC@EAHCMADO@?$AAS?$AAo?$AAf?$AAt?$AAw?$AAa?$AAr?$AAe@ 10021994     POSPrinter.obj
 0002:000009a8       ??_C@_1BA@JIHHIEDE@?$AAT?$AAy?$AAp?$AAe?$AAL?$AAi?$AAb@ 100219a8     POSPrinter.obj
 0002:000009b8       ?map@?1??HKeyFromString@CRegParser@ATL@@KAPAUHKEY__@@PA_W@Z@4QBUkeymap@?1??123@KAPAU4@0@Z@B 100219b8     POSPrinter.obj
 0002:00000a28       ??_7?$CComObjectCached@VCComClassFactory@ATL@@@ATL@@6B@ 10021a28     POSPrinter.obj
 0002:00000a40       ??_C@_19NCHLBIN@?$AAH?$AAK?$AAC?$AAR@ 10021a40     POSPrinter.obj
 0002:00000a4c       ??_C@_19JAPAIJDE@?$AAH?$AAK?$AAC?$AAU@ 10021a4c     POSPrinter.obj
 0002:00000a58       ??_C@_19PEALEEJB@?$AAH?$AAK?$AAL?$AAM@ 10021a58     POSPrinter.obj
 0002:00000a64       ??_C@_17PJOJPMPB@?$AAH?$AAK?$AAU@ 10021a64     POSPrinter.obj
 0002:00000a6c       ??_C@_19PNBHMJPL@?$AAH?$AAK?$AAP?$AAD@ 10021a6c     POSPrinter.obj
 0002:00000a78       ??_C@_19GFFAIJHG@?$AAH?$AAK?$AAD?$AAD@ 10021a78     POSPrinter.obj
 0002:00000a84       ??_C@_19OFICIBHH@?$AAH?$AAK?$AAC?$AAC@ 10021a84     POSPrinter.obj
 0002:00000a90       ??_C@_1CE@PACHPJFI@?$AAH?$AAK?$AAE?$AAY?$AA_?$AAC?$AAL?$AAA?$AAS?$AAS?$AAE?$AAS?$AA_?$AAR?$AAO@ 10021a90     POSPrinter.obj
 0002:00000ab4       ??_C@_1CE@HLHNCBPM@?$AAH?$AAK?$AAE?$AAY?$AA_?$AAC?$AAU?$AAR?$AAR?$AAE?$AAN?$AAT?$AA_?$AAU?$AAS@ 10021ab4     POSPrinter.obj
 0002:00000ad8       ??_C@_1CG@GFBEANJL@?$AAH?$AAK?$AAE?$AAY?$AA_?$AAL?$AAO?$AAC?$AAA?$AAL?$AA_?$AAM?$AAA?$AAC?$AAH@ 10021ad8     POSPrinter.obj
 0002:00000b00       ??_C@_1BG@BGODANIO@?$AAH?$AAK?$AAE?$AAY?$AA_?$AAU?$AAS?$AAE?$AAR?$AAS@ 10021b00     POSPrinter.obj
 0002:00000b18       ??_C@_1CM@KHNNAOIC@?$AAH?$AAK?$AAE?$AAY?$AA_?$AAP?$AAE?$AAR?$AAF?$AAO?$AAR?$AAM?$AAA?$AAN?$AAC@ 10021b18     POSPrinter.obj
 0002:00000b44       ??_C@_1BM@HAGMMHIA@?$AAH?$AAK?$AAE?$AAY?$AA_?$AAD?$AAY?$AAN?$AA_?$AAD?$AAA?$AAT?$AAA@ 10021b44     POSPrinter.obj
 0002:00000b60       ??_C@_1CI@BBJOACGG@?$AAH?$AAK?$AAE?$AAY?$AA_?$AAC?$AAU?$AAR?$AAR?$AAE?$AAN?$AAT?$AA_?$AAC?$AAO@ 10021b60     POSPrinter.obj
 0002:00000b88       ??_C@_1CE@PGFMOFKI@?$AAS?$AAt?$AAa?$AAt?$AAu?$AAs?$AAU?$AAp?$AAd?$AAa?$AAt?$AAe?$AAE?$AAv?$AAe@ 10021b88     POSPrinter.obj
 0002:00000bac       ??_C@_1CI@HLBJDONE@?$AAO?$AAu?$AAt?$AAp?$AAu?$AAt?$AAC?$AAo?$AAm?$AAp?$AAl?$AAe?$AAt?$AAe?$AAE@ 10021bac     POSPrinter.obj
 0002:00000bd4       ??_C@_1BG@LODEBHDD@?$AAE?$AAr?$AAr?$AAo?$AAr?$AAE?$AAv?$AAe?$AAn?$AAt@ 10021bd4     POSPrinter.obj
 0002:00000bec       ??_C@_1BM@CBGEBBBJ@?$AAD?$AAi?$AAr?$AAe?$AAc?$AAt?$AAI?$AAO?$AAE?$AAv?$AAe?$AAn?$AAt@ 10021bec     POSPrinter.obj
 0002:00000c08       __GUID_00000109_0000_0000_c000_000000000046 10021c08     POSPrinter.obj
 0002:00000c18       __GUID_b196b286_bab4_101a_b69c_00aa00341d07 10021c18     POSPrinter.obj
 0002:00000c28       __GUID_7fd52380_4e07_101b_ae2d_08002b2ec713 10021c28     POSPrinter.obj
 0002:00000c38       __GUID_00000112_0000_0000_c000_000000000046 10021c38     POSPrinter.obj
 0002:00000c48       ??_C@_1BC@ENICKDH@?$AAC?$AAo?$AAn?$AAt?$AAe?$AAn?$AAt?$AAs@ 10021c48     POSPrinter.obj
 0002:00000c5c       __GUID_3af24292_0c96_11ce_a0cf_00aa00600ab8 10021c5c     POSPrinter.obj
 0002:00000c6c       __GUID_00000127_0000_0000_c000_000000000046 10021c6c     POSPrinter.obj
 0002:00000c7c       __GUID_0000010d_0000_0000_c000_000000000046 10021c7c     POSPrinter.obj
 0002:00000c90       ??_C@_1EA@NHKLICFA@?$AAH?$AAK?$AAC?$AAU?$AA?$AN?$AA?6?$AA?$HL?$AA?7?$AAS?$AAo?$AAf?$AAt?$AAw?$AAa?$AAr@ 10021c90     POSPrinter.obj
 0002:00000cd0       ??_C@_1BE@LJOLIMEM@?$AA?$AN?$AA?6?$AA?7?$AA?$HN?$AA?$AN?$AA?6?$AA?$HN?$AA?$AN?$AA?6@ 10021cd0     POSPrinter.obj
 0002:00000ce4       ??_7?$CComObject@V?$CComEnum@UIEnumConnectionPoints@@$1?_GUID_b196b285_bab4_101a_b69c_00aa00341d07@@3U__s_GUID@@BPAUIConnectionPoint@@V?$_CopyInterface@UIConnectionPoint@@@ATL@@VCComSingleThreadModel@6@@ATL@@@ATL@@6B@ 10021ce4     POSPrinter.obj
 0002:00000d04       ??_C@_1O@MNLDABAF@?$AAM?$AAo?$AAd?$AAu?$AAl?$AAe@ 10021d04     POSPrinter.obj
 0002:00000d14       ??_C@_1BG@JBACFMF@?$AAM?$AAo?$AAd?$AAu?$AAl?$AAe?$AA_?$AAR?$AAa?$AAw@ 10021d14     POSPrinter.obj
 0002:00000d2c       ??_C@_1BC@KAILKFFG@?$AAR?$AAE?$AAG?$AAI?$AAS?$AAT?$AAR?$AAY@ 10021d2c     POSPrinter.obj
 0002:00000d40       ??_C@_1O@GBFKGNEO@?$AAA?$AAT?$AAL?$AA?3?$AA?$CF?$AAp@ 10021d40     POSPrinter.obj
 0002:00000d50       ??_C@_1BA@PICGEGJB@?$AAD?$AAI?$AAS?$AAP?$AAL?$AAA?$AAY@ 10021d50     POSPrinter.obj
 0002:00000d60       __GUID_9bfbbc02_eff1_101a_84ed_00aa00341d07 10021d60     POSPrinter.obj
 0002:00000d70       __GUID_b196b284_bab4_101a_b69c_00aa00341d07 10021d70     POSPrinter.obj
 0002:00000d80       ??_C@_1M@PPPPCDEP@?$AAA?$AAP?$AAP?$AAI?$AAD@ 10021d80     POSPrinter.obj
 0002:00000d8c       ??_7?$CComContainedObject@VCOPOSPOSPrinter@@@ATL@@6B?$IDispatchImpl@UIOPOSPOSPrinter@@$1?IID_IOPOSPOSPrinter@@3U_GUID@@B$1?LIBID_OposPOSPrinter_CCO@@3U3@B$00$0A@VCComTypeInfoHolder@ATL@@@1@@ 10021d8c     POSPrinter.obj
 0002:00001110       ??_7?$CComContainedObject@VCOPOSPOSPrinter@@@ATL@@6BCComControlBase@1@@ 10022110     POSPrinter.obj
 0002:00001124       ??_7?$CComContainedObject@VCOPOSPOSPrinter@@@ATL@@6B?$CWindowImpl@VCOPOSPOSPrinter@@VCWindow@ATL@@V?$CWinTraits@$0FGAAAAAA@$0A@@3@@1@@ 10022124     POSPrinter.obj
 0002:00001134       ??_7?$CComContainedObject@VCOPOSPOSPrinter@@@ATL@@6B?$IPersistStreamInitImpl@VCOPOSPOSPrinter@@@1@@ 10022134     POSPrinter.obj
 0002:00001158       ??_7?$CComContainedObject@VCOPOSPOSPrinter@@@ATL@@6B?$IOleControlImpl@VCOPOSPOSPrinter@@@1@@ 10022158     POSPrinter.obj
 0002:00001174       ??_7?$CComContainedObject@VCOPOSPOSPrinter@@@ATL@@6B?$IOleObjectImpl@VCOPOSPOSPrinter@@@1@@ 10022174     POSPrinter.obj
 0002:000011d4       ??_7?$CComContainedObject@VCOPOSPOSPrinter@@@ATL@@6B?$IOleInPlaceActiveObjectImpl@VCOPOSPOSPrinter@@@1@@ 100221d4     POSPrinter.obj
 0002:000011fc       ??_7?$CComContainedObject@VCOPOSPOSPrinter@@@ATL@@6B?$IViewObjectExImpl@VCOPOSPOSPrinter@@@1@@ 100221fc     POSPrinter.obj
 0002:00001238       ??_7?$CComContainedObject@VCOPOSPOSPrinter@@@ATL@@6B?$IOleInPlaceObjectWindowlessImpl@VCOPOSPOSPrinter@@@1@@ 10022238     POSPrinter.obj
 0002:00001264       ??_7?$CComContainedObject@VCOPOSPOSPrinter@@@ATL@@6B?$IConnectionPointContainerImpl@VCOPOSPOSPrinter@@@1@@ 10022264     POSPrinter.obj
 0002:00001278       ??_7?$CComContainedObject@VCOPOSPOSPrinter@@@ATL@@6B?$IPersistStorageImpl@VCOPOSPOSPrinter@@@1@@ 10022278     POSPrinter.obj
 0002:000012a0       ??_7?$CComContainedObject@VCOPOSPOSPrinter@@@ATL@@6B?$ISpecifyPropertyPagesImpl@VCOPOSPOSPrinter@@@1@@ 100222a0     POSPrinter.obj
 0002:000012b0       ??_7?$CComContainedObject@VCOPOSPOSPrinter@@@ATL@@6B?$IQuickActivateImpl@VCOPOSPOSPrinter@@@1@@ 100222b0     POSPrinter.obj
 0002:000012c8       ??_7?$CComContainedObject@VCOPOSPOSPrinter@@@ATL@@6B?$IDataObjectImpl@VCOPOSPOSPrinter@@@1@@ 100222c8     POSPrinter.obj
 0002:000012f8       ??_7?$CComContainedObject@VCOPOSPOSPrinter@@@ATL@@6B?$IProvideClassInfo2Impl@$1?CLSID_OPOSPOSPrinter@@3U_GUID@@B$1?DIID__IOPOSPOSPrinterEvents@@3U2@B$1?LIBID_OposPOSPrinter_CCO@@3U2@B$00$0A@VCComTypeInfoHolder@ATL@@@1@@ 100222f8     POSPrinter.obj
 0002:0000130c       ??_7?$CComContainedObject@VCOPOSPOSPrinter@@@ATL@@6B?$IObjectSafetyImpl@VCOPOSPOSPrinter@@$02@1@@ 1002230c     POSPrinter.obj
 0002:00001324       ??_7?$CComContainedObject@VCOPOSPOSPrinter@@@ATL@@6B?$IPropertyNotifySinkCP@VCOPOSPOSPrinter@@VCComDynamicUnkArray@ATL@@@1@@ 10022324     POSPrinter.obj
 0002:00001344       ??_7?$CComContainedObject@VCOPOSPOSPrinter@@@ATL@@6B?$CProxy_IOPOSEvents@VCOPOSPOSPrinter@@@@@ 10022344     POSPrinter.obj
 0002:00001364       ??_7?$CComAggObject@VCOPOSPOSPrinter@@@ATL@@6B@ 10022364     POSPrinter.obj
 0002:00001374       ??_7?$CComObject@VCOPOSPOSPrinter@@@ATL@@6B?$IDispatchImpl@UIOPOSPOSPrinter@@$1?IID_IOPOSPOSPrinter@@3U_GUID@@B$1?LIBID_OposPOSPrinter_CCO@@3U3@B$00$0A@VCComTypeInfoHolder@ATL@@@1@@ 10022374     POSPrinter.obj
 0002:000016f8       ??_7?$CComObject@VCOPOSPOSPrinter@@@ATL@@6BCComControlBase@1@@ 100226f8     POSPrinter.obj
 0002:0000170c       ??_7?$CComObject@VCOPOSPOSPrinter@@@ATL@@6B?$CWindowImpl@VCOPOSPOSPrinter@@VCWindow@ATL@@V?$CWinTraits@$0FGAAAAAA@$0A@@3@@1@@ 1002270c     POSPrinter.obj
 0002:0000171c       ??_7?$CComObject@VCOPOSPOSPrinter@@@ATL@@6B?$IPersistStreamInitImpl@VCOPOSPOSPrinter@@@1@@ 1002271c     POSPrinter.obj
 0002:00001740       ??_7?$CComObject@VCOPOSPOSPrinter@@@ATL@@6B?$IOleControlImpl@VCOPOSPOSPrinter@@@1@@ 10022740     POSPrinter.obj
 0002:0000175c       ??_7?$CComObject@VCOPOSPOSPrinter@@@ATL@@6B?$IOleObjectImpl@VCOPOSPOSPrinter@@@1@@ 1002275c     POSPrinter.obj
 0002:000017bc       ??_7?$CComObject@VCOPOSPOSPrinter@@@ATL@@6B?$IOleInPlaceActiveObjectImpl@VCOPOSPOSPrinter@@@1@@ 100227bc     POSPrinter.obj
 0002:000017e4       ??_7?$CComObject@VCOPOSPOSPrinter@@@ATL@@6B?$IViewObjectExImpl@VCOPOSPOSPrinter@@@1@@ 100227e4     POSPrinter.obj
 0002:00001820       ??_7?$CComObject@VCOPOSPOSPrinter@@@ATL@@6B?$IOleInPlaceObjectWindowlessImpl@VCOPOSPOSPrinter@@@1@@ 10022820     POSPrinter.obj
 0002:0000184c       ??_7?$CComObject@VCOPOSPOSPrinter@@@ATL@@6B?$IConnectionPointContainerImpl@VCOPOSPOSPrinter@@@1@@ 1002284c     POSPrinter.obj
 0002:00001860       ??_7?$CComObject@VCOPOSPOSPrinter@@@ATL@@6B?$IPersistStorageImpl@VCOPOSPOSPrinter@@@1@@ 10022860     POSPrinter.obj
 0002:00001888       ??_7?$CComObject@VCOPOSPOSPrinter@@@ATL@@6B?$ISpecifyPropertyPagesImpl@VCOPOSPOSPrinter@@@1@@ 10022888     POSPrinter.obj
 0002:00001898       ??_7?$CComObject@VCOPOSPOSPrinter@@@ATL@@6B?$IQuickActivateImpl@VCOPOSPOSPrinter@@@1@@ 10022898     POSPrinter.obj
 0002:000018b0       ??_7?$CComObject@VCOPOSPOSPrinter@@@ATL@@6B?$IDataObjectImpl@VCOPOSPOSPrinter@@@1@@ 100228b0     POSPrinter.obj
 0002:000018e0       ??_7?$CComObject@VCOPOSPOSPrinter@@@ATL@@6B?$IProvideClassInfo2Impl@$1?CLSID_OPOSPOSPrinter@@3U_GUID@@B$1?DIID__IOPOSPOSPrinterEvents@@3U2@B$1?LIBID_OposPOSPrinter_CCO@@3U2@B$00$0A@VCComTypeInfoHolder@ATL@@@1@@ 100228e0     POSPrinter.obj
 0002:000018f4       ??_7?$CComObject@VCOPOSPOSPrinter@@@ATL@@6B?$IObjectSafetyImpl@VCOPOSPOSPrinter@@$02@1@@ 100228f4     POSPrinter.obj
 0002:0000190c       ??_7?$CComObject@VCOPOSPOSPrinter@@@ATL@@6B?$IPropertyNotifySinkCP@VCOPOSPOSPrinter@@VCComDynamicUnkArray@ATL@@@1@@ 1002290c     POSPrinter.obj
 0002:0000192c       ??_7?$CComObject@VCOPOSPOSPrinter@@@ATL@@6B?$CProxy_IOPOSEvents@VCOPOSPOSPrinter@@@@@ 1002292c     POSPrinter.obj
 0002:0000194c       __GUID_55980ba0_35aa_11cf_b671_00aa004cd6d8 1002294c     POSPrinter.obj
 0002:0000195c       __GUID_b196b28b_bab4_101a_b69c_00aa00341d07 1002295c     POSPrinter.obj
 0002:0000196c       ?_entries@?1??_GetEntries@?$CComEnum@UIEnumConnectionPoints@@$1?_GUID_b196b285_bab4_101a_b69c_00aa00341d07@@3U__s_GUID@@BPAUIConnectionPoint@@V?$_CopyInterface@UIConnectionPoint@@@ATL@@VCComSingleThreadModel@6@@ATL@@SGPBU_ATL_INTMAP_ENTRY@3@XZ@4QBU43@B 1002296c     POSPrinter.obj
 0002:00001984       ??_C@_0BG@EKFFMJIO@RegOpenKeyTransactedW@ 10022984     POSPrinter.obj
 0002:0000199c       ??_C@_0BI@HAKLOOGP@RegDeleteKeyTransactedW@ 1002299c     POSPrinter.obj
 0002:000019b4       ??_C@_0BA@LILAPHGE@RegDeleteKeyExW@ 100229b4     POSPrinter.obj
 0002:000019c4       ??_C@_19ILOCMLCJ@?$AA?4?$AAt?$AAl?$AAb@ 100229c4     POSPrinter.obj
 0002:000019d0       __GUID_0002e012_0000_0000_c000_000000000046 100229d0     POSPrinter.obj
 0002:000019e0       ??_C@_1O@FHBGLCIO@?$AAC?$AAL?$AAS?$AAI?$AAD?$AA?2@ 100229e0     POSPrinter.obj
 0002:000019f0       ??_C@_1CK@IFBKBFAA@?$AA?2?$AAR?$AAe?$AAq?$AAu?$AAi?$AAr?$AAe?$AAd?$AA?5?$AAC?$AAa?$AAt?$AAe?$AAg@ 100229f0     POSPrinter.obj
 0002:00001a1c       ??_C@_1DA@BIHALFED@?$AA?2?$AAI?$AAm?$AAp?$AAl?$AAe?$AAm?$AAe?$AAn?$AAt?$AAe?$AAd?$AA?5?$AAC?$AAa@ 10022a1c     POSPrinter.obj
 0002:00001a4c       ??_C@_1BK@EDKOLFBJ@?$AAO?$AAL?$AAE?$AAA?$AAU?$AAT?$AA3?$AA2?$AA?4?$AAD?$AAL?$AAL@ 10022a4c     POSPrinter.obj
 0002:00001a68       ??_C@_0BJ@CNLFOMHB@UnRegisterTypeLibForUser@ 10022a68     POSPrinter.obj
 0002:00001a84       ??_C@_0BH@LBOMMKPJ@RegisterTypeLibForUser@ 10022a84     POSPrinter.obj
 0002:00001a9c       ??_C@_0P@MMNMMLGK@COFreezeEvents@ 10022a9c     POSPrinterImpl.obj
 0002:00001aac       ??_C@_0BC@OGCGGIMP@GetPropertyNumber@ 10022aac     POSPrinterImpl.obj
 0002:00001ac0       ??_C@_0BC@MDCNODNB@SetPropertyNumber@ 10022ac0     POSPrinterImpl.obj
 0002:00001ad4       ??_C@_0BC@CFCCMIMD@GetPropertyString@ 10022ad4     POSPrinterImpl.obj
 0002:00001ae8       ??_C@_0BC@CJEDNN@SetPropertyString@ 10022ae8     POSPrinterImpl.obj
 0002:00001afc       ??_C@_0M@LNPKKKDA@OpenService@ 10022afc     POSPrinterImpl.obj
 0002:00001b08       ??_C@_0M@PCMCHHMH@CheckHealth@ 10022b08     POSPrinterImpl.obj
 0002:00001b14       ??_C@_0M@JGMIDNEK@ClaimDevice@ 10022b14     POSPrinterImpl.obj
 0002:00001b20       ??_C@_0M@JMBCPNGJ@ClearOutput@ 10022b20     POSPrinterImpl.obj
 0002:00001b2c       ??_C@_0N@DDFIIBMP@CloseService@ 10022b2c     POSPrinterImpl.obj
 0002:00001b3c       ??_C@_08EEIHICPC@DirectIO@ 10022b3c     POSPrinterImpl.obj
 0002:00001b48       ??_C@_0O@BCPMENMJ@ReleaseDevice@ 10022b48     POSPrinterImpl.obj
 0002:00001b58       ??_C@_0P@DPMKPLAE@BeginInsertion@ 10022b58     POSPrinterImpl.obj
 0002:00001b68       ??_C@_0N@PCJLGBKP@BeginRemoval@ 10022b68     POSPrinterImpl.obj
 0002:00001b78       ??_C@_08JCIIFLHG@CutPaper@ 10022b78     POSPrinterImpl.obj
 0002:00001b84       ??_C@_0N@MIHLNKHM@EndInsertion@ 10022b84     POSPrinterImpl.obj
 0002:00001b94       ??_C@_0L@FCEKAOMI@EndRemoval@ 10022b94     POSPrinterImpl.obj
 0002:00001ba0       ??_C@_0N@FDFJIIBJ@PrintBarCode@ 10022ba0     POSPrinterImpl.obj
 0002:00001bb0       ??_C@_0M@NAANOJLK@PrintBitmap@ 10022bb0     POSPrinterImpl.obj
 0002:00001bbc       ??_C@_0P@DJAGCKNK@PrintImmediate@ 10022bbc     POSPrinterImpl.obj
 0002:00001bcc       ??_C@_0M@KIMDMICO@PrintNormal@ 10022bcc     POSPrinterImpl.obj
 0002:00001bd8       ??_C@_0P@KBCJLBEM@PrintTwoNormal@ 10022bd8     POSPrinterImpl.obj
 0002:00001be8       ??_C@_0M@BCMAIKNJ@RotatePrint@ 10022be8     POSPrinterImpl.obj
 0002:00001bf4       ??_C@_09CPODHKLB@SetBitmap@ 10022bf4     POSPrinterImpl.obj
 0002:00001c00       ??_C@_07FJPCAAPG@SetLogo@  10022c00     POSPrinterImpl.obj
 0002:00001c08       ??_C@_0BB@ILDNAJHD@TransactionPrint@ 10022c08     POSPrinterImpl.obj
 0002:00001c1c       ??_C@_0N@MBAILECK@ValidateData@ 10022c1c     POSPrinterImpl.obj
 0002:00001c2c       ??_C@_0BA@IMNNCHOC@ChangePrintSide@ 10022c2c     POSPrinterImpl.obj
 0002:00001c3c       ??_C@_08KHGIJMAP@MarkFeed@ 10022c3c     POSPrinterImpl.obj
 0002:00001c48       ??_C@_0BA@GFABKEEE@ResetStatistics@ 10022c48     POSPrinterImpl.obj
 0002:00001c58       ??_C@_0BD@DPALHJGC@RetrieveStatistics@ 10022c58     POSPrinterImpl.obj
 0002:00001c6c       ??_C@_0BB@KOHIKNFC@UpdateStatistics@ 10022c6c     POSPrinterImpl.obj
 0002:00001c80       ??_C@_0BH@PBKBNMGB@CompareFirmwareVersion@ 10022c80     POSPrinterImpl.obj
 0002:00001c98       ??_C@_0P@FBPDPIPA@UpdateFirmware@ 10022c98     POSPrinterImpl.obj
 0002:00001ca8       ??_C@_0P@CGGHLFCH@ClearPrintArea@ 10022ca8     POSPrinterImpl.obj
 0002:00001cb8       ??_C@_0O@CHKKHOM@PageModePrint@ 10022cb8     POSPrinterImpl.obj
 0002:00001cc8       ??_C@_0BC@MHBLCEPK@PrintMemoryBitmap@ 10022cc8     POSPrinterImpl.obj
 0002:00001cdc       ??_C@_0O@IDIDGPBG@DrawRuledLine@ 10022cdc     POSPrinterImpl.obj
 0002:00001cec       ??_7?$CProxy_IOPOSEvents@VCOPOSPOSPrinter@@@@6B@ 10022cec     POSPrinterImpl.obj
 0002:00001d0c       ??_C@_1BA@IFHENID@?$AA?$FL?$AAE?$AAr?$AAr?$AAo?$AAr?$AA?$FN@ 10022d0c     POSPrinterImpl.obj
 0002:00001d1c       ??_C@_0CN@NINACFLC@SOFTWARE?2OLEforRetail?2ServiceOP@ 10022d1c     POSPrinterImpl.obj
 0002:00001d4c       ??_C@_1M@IAIJHCCH@?$AAC?$AAl?$AAo?$AAs?$AAe@ 10022d4c     POSPrinterImpl.obj
 0002:00001d58       ??_C@_1M@PCPKGJAH@?$AAC?$AAl?$AAa?$AAi?$AAm@ 10022d58     POSPrinterImpl.obj
 0002:00001d64       ??_C@_1BA@NDFKIOCP@?$AAR?$AAe?$AAl?$AAe?$AAa?$AAs?$AAe@ 10022d64     POSPrinterImpl.obj
 0002:00001d74       ??_C@_0L@FIMIDCKH@POSPrinter@ 10022d74     POSPrinterImpl.obj
 0002:00001d80       ??_C@_1BM@IJMNMBPK@?$AAG?$AAe?$AAt?$AAO?$AAp?$AAe?$AAn?$AAR?$AAe?$AAs?$AAu?$AAl?$AAt@ 10022d80     POSPrinterImpl.obj
 0002:00001d9c       _IID_IPropertyNotifySink   10022d9c     uuid:ocidl_i.obj
 0002:00001dac       _GUID_NULL                 10022dac     uuid:cguid_i.obj
 0002:00001dbc       _CLSID_StdGlobalInterfaceTable 10022dbc     uuid:cguid_i.obj
 0002:00001dcc       _IID_IDispatch             10022dcc     uuid:oaidl_i.obj
 0002:00001ddc       _CLSID_StdComponentCategoriesMgr 10022ddc     uuid:ieguids.obj
 0002:00001dec       _IID_IUnknown              10022dec     uuid:unknwn_i.obj
 0002:00001e00       ??_C@_1EC@JIJBPKFM@?$AAa?$AAp?$AAi?$AA?9?$AAm?$AAs?$AA?9?$AAw?$AAi?$AAn?$AA?9?$AAc?$AAo?$AAr?$AAe@ 10022e00     LIBCMT:thread_safe_statics.obj
 0002:00001e44       ??_C@_1BK@MGMFAEKH@?$AAk?$AAe?$AAr?$AAn?$AAe?$AAl?$AA3?$AA2?$AA?4?$AAd?$AAl?$AAl@ 10022e44     LIBCMT:thread_safe_statics.obj
 0002:00001e60       ??_C@_0BJ@JEBJOJFJ@SleepConditionVariableCS@ 10022e60     LIBCMT:thread_safe_statics.obj
 0002:00001e7c       ??_C@_0BJ@PGPPEPCC@WakeAllConditionVariable@ 10022e7c     LIBCMT:thread_safe_statics.obj
 0002:00001e95       ?nothrow@std@@3Unothrow_t@1@B 10022e95     LIBCMT:std_nothrow.obj
 0002:00001ea0       __pDefaultRawDllMain       10022ea0     LIBCMT:dll_dllmain.obj
 0002:00001ea0       __pRawDllMain              10022ea0     LIBCMT:dll_dllmain.obj
 0002:00001ea8       ??_7exception@std@@6B@     10022ea8     LIBCMT:throw_bad_alloc.obj
 0002:00001eb0       ??_C@_0BC@EOODALEL@Unknown?5exception@ 10022eb0     LIBCMT:throw_bad_alloc.obj
 0002:00001ec8       ??_7bad_alloc@std@@6B@     10022ec8     LIBCMT:throw_bad_alloc.obj
 0002:00001ed0       ??_C@_0P@GHFPNOJB@bad?5allocation@ 10022ed0     LIBCMT:throw_bad_alloc.obj
 0002:00001ee4       ??_7bad_array_new_length@std@@6B@ 10022ee4     LIBCMT:throw_bad_alloc.obj
 0002:00001eec       ??_C@_0BF@KINCDENJ@bad?5array?5new?5length@ 10022eec     LIBCMT:throw_bad_alloc.obj
 0002:00001f08       ??_7type_info@@6B@         10022f08     LIBCMT:std_type_info_static.obj
 0002:00001f0c       _GUID_ATLVer110            10022f0c     atls:atlbase.obj
 0002:00001f20       ??_C@_1IC@ONKHOIDK@?$AAE?$AAR?$AAR?$AAO?$AAR?$AA?5?$AA?3?$AA?5?$AAU?$AAn?$AAa?$AAb?$AAl?$AAe?$AA?5@ 10022f20     atls:atlbase.obj
 0002:00001fa4       ??_C@_0N@FJEPLCIH@atlthunk?4dll@ 10022fa4     atls:atlthunk.obj
 0002:00001fb4       ??_C@_0BG@GAKFHCBM@AtlThunk_AllocateData@ 10022fb4     atls:atlthunk.obj
 0002:00001fcc       ??_C@_0BC@JKONFIAH@AtlThunk_InitData@ 10022fcc     atls:atlthunk.obj
 0002:00001fe0       ??_C@_0BE@IAOEELAK@AtlThunk_DataToCode@ 10022fe0     atls:atlthunk.obj
 0002:00001ff4       ??_C@_0BC@GBGKAIPI@AtlThunk_FreeData@ 10022ff4     atls:atlthunk.obj
 0002:00002008       __pDestructExceptionObject 10023008     libvcruntime:ehhelpers.obj
 0002:00002010       ??_7bad_exception@std@@6B@ 10023010     libvcruntime:frame.obj
 0002:00002018       ??_C@_0O@DPKOEFFH@bad?5exception@ 10023018     libvcruntime:frame.obj
 0002:000023a8       ??_C@_08EHJDFFNH@__based?$CI@ 100233a8     libvcruntime:undname.obj
 0002:000023b4       ??_C@_07KOLFKCDI@__cdecl@  100233b4     libvcruntime:undname.obj
 0002:000023bc       ??_C@_08GHMPAG@__pascal@   100233bc     libvcruntime:undname.obj
 0002:000023c8       ??_C@_09IFJBGAPI@__stdcall@ 100233c8     libvcruntime:undname.obj
 0002:000023d4       ??_C@_0L@NPHFGOKO@__thiscall@ 100233d4     libvcruntime:undname.obj
 0002:000023e0       ??_C@_0L@JMKHOMEK@__fastcall@ 100233e0     libvcruntime:undname.obj
 0002:000023ec       ??_C@_0N@BCKKPABJ@__vectorcall@ 100233ec     libvcruntime:undname.obj
 0002:000023fc       ??_C@_09HIJEGCPM@__clrcall@ 100233fc     libvcruntime:undname.obj
 0002:00002408       ??_C@_06GHPCKEAG@__eabi@   10023408     libvcruntime:undname.obj
 0002:00002410       ??_C@_09IOPIDJLG@__swift_1@ 10023410     libvcruntime:undname.obj
 0002:0000241c       ??_C@_09KFNFGKHF@__swift_2@ 1002341c     libvcruntime:undname.obj
 0002:00002428       ??_C@_07JOMMBBKO@__ptr64@  10023428     libvcruntime:undname.obj
 0002:00002430       ??_C@_0L@PILCLIHE@__restrict@ 10023430     libvcruntime:undname.obj
 0002:0000243c       ??_C@_0M@GFIIJFMG@__unaligned@ 1002343c     libvcruntime:undname.obj
 0002:00002448       ??_C@_09DHDLOLLB@restrict?$CI@ 10023448     libvcruntime:undname.obj
 0002:00002452       ??_C@_00CNPNBAHC@@         10023452     libvcruntime:undname.obj
 0002:00002454       ??_C@_04NIHEBCM@?5new@     10023454     libvcruntime:undname.obj
 0002:0000245c       ??_C@_07FPCDHGMM@?5delete@ 1002345c     libvcruntime:undname.obj
 0002:00002464       ??_C@_01NEMOKFLO@?$DN@     10023464     libvcruntime:undname.obj
 0002:00002468       ??_C@_02GPIOPFAK@?$DO?$DO@ 10023468     libvcruntime:undname.obj
 0002:0000246c       ??_C@_02FODMEDOG@?$DM?$DM@ 1002346c     libvcruntime:undname.obj
 0002:00002470       ??_C@_01DCLJPIOD@?$CB@     10023470     libvcruntime:undname.obj
 0002:00002474       ??_C@_02EGOFBIJA@?$DN?$DN@ 10023474     libvcruntime:undname.obj
 0002:00002478       ??_C@_02FDNJECIE@?$CB?$DN@ 10023478     libvcruntime:undname.obj
 0002:0000247c       ??_C@_02GPECMEKF@?$FL?$FN@ 1002347c     libvcruntime:undname.obj
 0002:00002480       ??_C@_08LHJFAFGD@operator@ 10023480     libvcruntime:undname.obj
 0002:0000248c       ??_C@_02HBOOOICD@?9?$DO@   1002348c     libvcruntime:undname.obj
 0002:00002490       ??_C@_01NBENCBCI@?$CK@     10023490     libvcruntime:undname.obj
 0002:00002494       ??_C@_02ECNGHCIF@?$CL?$CL@ 10023494     libvcruntime:undname.obj
 0002:00002498       ??_C@_02BAABKJLB@?9?9@     10023498     libvcruntime:undname.obj
 0002:0000249c       ??_C@_01JOAMLHOP@?9@       1002349c     libvcruntime:undname.obj
 0002:000024a0       ??_C@_01MIFGBAGJ@?$CL@     100234a0     libvcruntime:undname.obj
 0002:000024a4       ??_C@_01HNPIGOCE@?$CG@     100234a4     libvcruntime:undname.obj
 0002:000024a8       ??_C@_03MNHNFDLC@?9?$DO?$CK@ 100234a8     libvcruntime:undname.obj
 0002:000024ac       ??_C@_01KMDKNFGN@?1@       100234ac     libvcruntime:undname.obj
 0002:000024b0       ??_C@_01FGNFDNOH@?$CF@     100234b0     libvcruntime:undname.obj
 0002:000024b4       ??_C@_01MNNFJEPP@?$DM@     100234b4     libvcruntime:undname.obj
 0002:000024b8       ??_C@_02EHCHHCKH@?$DM?$DN@ 100234b8     libvcruntime:undname.obj
 0002:000024bc       ??_C@_01PPODPGHN@?$DO@     100234bc     libvcruntime:undname.obj
 0002:000024c0       ??_C@_02EEKDKGMJ@?$DO?$DN@ 100234c0     libvcruntime:undname.obj
 0002:000024c4       ??_C@_01IHBHIGKO@?0@       100234c4     libvcruntime:undname.obj
 0002:000024c8       ??_C@_02HCKGKOFO@?$CI?$CJ@ 100234c8     libvcruntime:undname.obj
 0002:000024cc       ??_C@_01PJKLJHI@?$HO@      100234cc     libvcruntime:undname.obj
 0002:000024d0       ??_C@_01JKBOJNNK@?$FO@     100234d0     libvcruntime:undname.obj
 0002:000024d4       ??_C@_01DNKMNLPK@?$HM@     100234d4     libvcruntime:undname.obj
 0002:000024d8       ??_C@_02PPKAJPJL@?$CG?$CG@ 100234d8     libvcruntime:undname.obj
 0002:000024dc       ??_C@_02NONPIBCD@?$HM?$HM@ 100234dc     libvcruntime:undname.obj
 0002:000024e0       ??_C@_02FPIMKNGF@?$CK?$DN@ 100234e0     libvcruntime:undname.obj
 0002:000024e4       ??_C@_02FOEOMHFC@?$CL?$DN@ 100234e4     libvcruntime:undname.obj
 0002:000024e8       ??_C@_02FKMDLLOA@?9?$DN@   100234e8     libvcruntime:undname.obj
 0002:000024ec       ??_C@_02FJEHGPIO@?1?$DN@   100234ec     libvcruntime:undname.obj
 0002:000024f0       ??_C@_02FENAOKFI@?$CF?$DN@ 100234f0     libvcruntime:undname.obj
 0002:000024f4       ??_C@_03IKFCCPFF@?$DO?$DO?$DN@ 100234f4     libvcruntime:undname.obj
 0002:000024f8       ??_C@_03CDNPDDLA@?$DM?$DM?$DN@ 100234f8     libvcruntime:undname.obj
 0002:000024fc       ??_C@_02FGJGFEAB@?$CG?$DN@ 100234fc     libvcruntime:undname.obj
 0002:00002500       ??_C@_02DHLNPPGH@?$HM?$DN@ 10023500     libvcruntime:undname.obj
 0002:00002504       ??_C@_02MHEGNOJ@?$FO?$DN@  10023504     libvcruntime:undname.obj
 0002:00002508       ??_C@_09IFPLHPGF@?$GAvftable?8@ 10023508     libvcruntime:undname.obj
 0002:00002514       ??_C@_09BLBHBJP@?$GAvbtable?8@ 10023514     libvcruntime:undname.obj
 0002:00002520       ??_C@_07FEEIOKP@?$GAvcall?8@ 10023520     libvcruntime:undname.obj
 0002:00002528       ??_C@_08LLFFHHDJ@?$GAtypeof?8@ 10023528     libvcruntime:undname.obj
 0002:00002534       ??_C@_0BF@KDPPACIK@?$GAlocal?5static?5guard?8@ 10023534     libvcruntime:undname.obj
 0002:0000254c       ??_C@_08OBABFOLI@?$GAstring?8@ 1002354c     libvcruntime:undname.obj
 0002:00002558       ??_C@_0BD@JDLKDPAB@?$GAvbase?5destructor?8@ 10023558     libvcruntime:undname.obj
 0002:0000256c       ??_C@_0BN@DEGPLNFK@?$GAvector?5deleting?5destructor?8@ 1002356c     libvcruntime:undname.obj
 0002:0000258c       ??_C@_0BO@OBMKPJIG@?$GAdefault?5constructor?5closure?8@ 1002358c     libvcruntime:undname.obj
 0002:000025ac       ??_C@_0BN@IMDCHIKM@?$GAscalar?5deleting?5destructor?8@ 100235ac     libvcruntime:undname.obj
 0002:000025cc       ??_C@_0BO@PFGOCPJJ@?$GAvector?5constructor?5iterator?8@ 100235cc     libvcruntime:undname.obj
 0002:000025ec       ??_C@_0BN@LFPFMEDL@?$GAvector?5destructor?5iterator?8@ 100235ec     libvcruntime:undname.obj
 0002:0000260c       ??_C@_0CE@IKBNEHA@?$GAvector?5vbase?5constructor?5itera@ 1002360c     libvcruntime:undname.obj
 0002:00002630       ??_C@_0BL@NILFHHPC@?$GAvirtual?5displacement?5map?8@ 10023630     libvcruntime:undname.obj
 0002:0000264c       ??_C@_0CB@JONCMFFK@?$GAeh?5vector?5constructor?5iterator@ 1002364c     libvcruntime:undname.obj
 0002:00002670       ??_C@_0CA@GCEOPDGL@?$GAeh?5vector?5destructor?5iterator?8@ 10023670     libvcruntime:undname.obj
 0002:00002690       ??_C@_0CH@OOJPLCPH@?$GAeh?5vector?5vbase?5constructor?5it@ 10023690     libvcruntime:undname.obj
 0002:000026b8       ??_C@_0BL@LLKPOHJI@?$GAcopy?5constructor?5closure?8@ 100236b8     libvcruntime:undname.obj
 0002:000026d4       ??_C@_0BA@KBCDOMBN@?$GAudt?5returning?8@ 100236d4     libvcruntime:undname.obj
 0002:000026e4       ??_C@_03KLGMFNMG@?$GAEH@   100236e4     libvcruntime:undname.obj
 0002:000026e8       ??_C@_05KHLCHHI@?$GARTTI@  100236e8     libvcruntime:undname.obj
 0002:000026f0       ??_C@_0BA@KKLDJDLB@?$GAlocal?5vftable?8@ 100236f0     libvcruntime:undname.obj
 0002:00002700       ??_C@_0CE@IIHCMGGL@?$GAlocal?5vftable?5constructor?5clos@ 10023700     libvcruntime:undname.obj
 0002:00002724       ??_C@_06FHBGPFGH@?5new?$FL?$FN@ 10023724     libvcruntime:undname.obj
 0002:0000272c       ??_C@_09LBNFPBCA@?5delete?$FL?$FN@ 1002372c     libvcruntime:undname.obj
 0002:00002738       ??_C@_0P@HJKNJFNN@?$GAomni?5callsig?8@ 10023738     libvcruntime:undname.obj
 0002:00002748       ??_C@_0BL@CNOONJFP@?$GAplacement?5delete?5closure?8@ 10023748     libvcruntime:undname.obj
 0002:00002764       ??_C@_0BN@CKNJLHMB@?$GAplacement?5delete?$FL?$FN?5closure?8@ 10023764     libvcruntime:undname.obj
 0002:00002784       ??_C@_0CG@CFDHKGGD@?$GAmanaged?5vector?5constructor?5ite@ 10023784     libvcruntime:undname.obj
 0002:000027ac       ??_C@_0CF@IMGKMJNO@?$GAmanaged?5vector?5destructor?5iter@ 100237ac     libvcruntime:undname.obj
 0002:000027d4       ??_C@_0CG@HLDDJMAG@?$GAeh?5vector?5copy?5constructor?5ite@ 100237d4     libvcruntime:undname.obj
 0002:000027fc       ??_C@_0CM@FCBBDIGB@?$GAeh?5vector?5vbase?5copy?5construct@ 100237fc     libvcruntime:undname.obj
 0002:00002828       ??_C@_0BL@CLIPGLGB@?$GAdynamic?5initializer?5for?5?8@ 10023828     libvcruntime:undname.obj
 0002:00002844       ??_C@_0CB@PDBIFEP@?$GAdynamic?5atexit?5destructor?5for?5@ 10023844     libvcruntime:undname.obj
 0002:00002868       ??_C@_0CD@CGAJBKEJ@?$GAvector?5copy?5constructor?5iterat@ 10023868     libvcruntime:undname.obj
 0002:0000288c       ??_C@_0CJ@GJELGAMM@?$GAvector?5vbase?5copy?5constructor?5@ 1002388c     libvcruntime:undname.obj
 0002:000028b8       ??_C@_0CL@FGIJHLCE@?$GAmanaged?5vector?5copy?5constructo@ 100238b8     libvcruntime:undname.obj
 0002:000028e4       ??_C@_0BM@PMGGMLDN@?$GAlocal?5static?5thread?5guard?8@ 100238e4     libvcruntime:undname.obj
 0002:00002900       ??_C@_0N@BDNMDMOL@operator?5?$CC?$CC?5@ 10023900     libvcruntime:undname.obj
 0002:00002910       ??_C@_0BC@GGEBGALA@operator?5co_await@ 10023910     libvcruntime:undname.obj
 0002:00002924       ??_C@_0M@GAAIMMOH@operator?$DM?$DN?$DO@ 10023924     libvcruntime:undname.obj
 0002:00002930       ??_C@_0BC@DAFEJGAK@?5Type?5Descriptor?8@ 10023930     libvcruntime:undname.obj
 0002:00002944       ??_C@_0BM@LDKODKLH@?5Base?5Class?5Descriptor?5at?5?$CI@ 10023944     libvcruntime:undname.obj
 0002:00002960       ??_C@_0BD@LGICGFMM@?5Base?5Class?5Array?8@ 10023960     libvcruntime:undname.obj
 0002:00002974       ??_C@_0BN@MECKDCOJ@?5Class?5Hierarchy?5Descriptor?8@ 10023974     libvcruntime:undname.obj
 0002:00002994       ??_C@_0BK@CFCOFLF@?5Complete?5Object?5Locator?8@ 10023994     libvcruntime:undname.obj
 0002:000029b0       ??_C@_0BG@JNJLAMPM@?$GAanonymous?5namespace?8@ 100239b0     libvcruntime:undname.obj
 0002:000029d4       ??_C@_1DM@KHCHBNEB@?$AAa?$AAp?$AAi?$AA?9?$AAm?$AAs?$AA?9?$AAw?$AAi?$AAn?$AA?9?$AAc?$AAo?$AAr?$AAe@ 100239d4     libvcruntime:winapi_downlevel.obj
 0002:00002a10       ??_C@_1DK@LPPGFMPP@?$AAa?$AAp?$AAi?$AA?9?$AAm?$AAs?$AA?9?$AAw?$AAi?$AAn?$AA?9?$AAc?$AAo?$AAr?$AAe@ 10023a10     libvcruntime:winapi_downlevel.obj
 0002:00002a4c       ??_C@_1BC@GDMECMAK@?$AAk?$AAe?$AAr?$AAn?$AAe?$AAl?$AA3?$AA2@ 10023a4c     libvcruntime:winapi_downlevel.obj
 0002:00002a60       ??_C@_1BA@PFFKHIOG@?$AAa?$AAp?$AAi?$AA?9?$AAm?$AAs?$AA?9@ 10023a60     libvcruntime:winapi_downlevel.obj
 0002:00002a78       ??_C@_08KNHFBNJ@FlsAlloc@  10023a78     libvcruntime:winapi_downlevel.obj
 0002:00002a8c       ??_C@_07PEJMOBNF@FlsFree@  10023a8c     libvcruntime:winapi_downlevel.obj
 0002:00002a9c       ??_C@_0M@GDNOONDI@FlsGetValue@ 10023a9c     libvcruntime:winapi_downlevel.obj
 0002:00002ab0       ??_C@_0M@JCPCPOEF@FlsSetValue@ 10023ab0     libvcruntime:winapi_downlevel.obj
 0002:00002ac4       ??_C@_0BM@HCFOFFN@InitializeCriticalSectionEx@ 10023ac4     libvcruntime:winapi_downlevel.obj
 0002:00002c48       ?format_validation_lookup_table_spectre@__crt_stdio_output@@3V?$spectre_mitigated_lookup_table@Ustate_transition_pair@__crt_stdio_output@@$0IA@@1@B 10023c48     libucrt:output.obj
 0002:00003048       ??_C@_1O@CEDCILHN@?$AA?$CI?$AAn?$AAu?$AAl?$AAl?$AA?$CJ@ 10024048     libucrt:output.obj
 0002:00003058       ??_C@_06OJHGLDPL@?$CInull?$CJ@ 10024058     libucrt:output.obj
 0002:00003060       ___acrt_exception_action_table 10024060     libucrt:exception_filter.obj
 0002:000030f0       ___acrt_signal_action_table_count 100240f0     libucrt:exception_filter.obj
 0002:000030f4       ___acrt_signal_action_first_fpe_index 100240f4     libucrt:exception_filter.obj
 0002:000030f8       ___acrt_signal_action_fpe_count 100240f8     libucrt:exception_filter.obj
 0002:000030fc       ??_C@_1BI@BGOHAHKC@?$AAm?$AAs?$AAc?$AAo?$AAr?$AAe?$AAe?$AA?4?$AAd?$AAl?$AAl@ 100240fc     libucrt:exit.obj
 0002:00003114       ??_C@_0P@MIGLKIOC@CorExitProcess@ 10024114     libucrt:exit.obj
 0002:000031f8       ??_C@_1EA@JGEFHKEI@?$AAa?$AAp?$AAi?$AA?9?$AAm?$AAs?$AA?9?$AAw?$AAi?$AAn?$AA?9?$AAc?$AAo?$AAr?$AAe@ 100241f8     libucrt:winapi_thunks.obj
 0002:00003238       ??_C@_1DI@IJCEHOCB@?$AAa?$AAp?$AAi?$AA?9?$AAm?$AAs?$AA?9?$AAw?$AAi?$AAn?$AA?9?$AAc?$AAo?$AAr?$AAe@ 10024238     libucrt:winapi_thunks.obj
 0002:00003270       ??_C@_1EI@MPIAOHOC@?$AAa?$AAp?$AAi?$AA?9?$AAm?$AAs?$AA?9?$AAw?$AAi?$AAn?$AA?9?$AAc?$AAo?$AAr?$AAe@ 10024270     libucrt:winapi_thunks.obj
 0002:000032b8       ??_C@_1FK@FPHCKFIE@?$AAa?$AAp?$AAi?$AA?9?$AAm?$AAs?$AA?9?$AAw?$AAi?$AAn?$AA?9?$AAc?$AAo?$AAr?$AAe@ 100242b8     libucrt:winapi_thunks.obj
 0002:00003318       ??_C@_1EM@DILCGIIO@?$AAa?$AAp?$AAi?$AA?9?$AAm?$AAs?$AA?9?$AAw?$AAi?$AAn?$AA?9?$AAc?$AAo?$AAr?$AAe@ 10024318     libucrt:winapi_thunks.obj
 0002:00003364       ??_C@_1DM@LNCGDDPN@?$AAa?$AAp?$AAi?$AA?9?$AAm?$AAs?$AA?9?$AAw?$AAi?$AAn?$AA?9?$AAc?$AAo?$AAr?$AAe@ 10024364     libucrt:winapi_thunks.obj
 0002:000033a0       ??_C@_1DO@FPAPJEMD@?$AAa?$AAp?$AAi?$AA?9?$AAm?$AAs?$AA?9?$AAw?$AAi?$AAn?$AA?9?$AAc?$AAo?$AAr?$AAe@ 100243a0     libucrt:winapi_thunks.obj
 0002:000033e0       ??_C@_1DK@NDHNAHIO@?$AAa?$AAp?$AAi?$AA?9?$AAm?$AAs?$AA?9?$AAw?$AAi?$AAn?$AA?9?$AAc?$AAo?$AAr?$AAe@ 100243e0     libucrt:winapi_thunks.obj
 0002:0000341c       ??_C@_1DM@KGHDGBCM@?$AAa?$AAp?$AAi?$AA?9?$AAm?$AAs?$AA?9?$AAw?$AAi?$AAn?$AA?9?$AAc?$AAo?$AAr?$AAe@ 1002441c     libucrt:winapi_thunks.obj
 0002:00003458       ??_C@_1EO@IJIOEFOH@?$AAa?$AAp?$AAi?$AA?9?$AAm?$AAs?$AA?9?$AAw?$AAi?$AAn?$AA?9?$AAr?$AAt?$AAc?$AAo@ 10024458     libucrt:winapi_thunks.obj
 0002:000034a8       ??_C@_1FG@HHGEKANL@?$AAa?$AAp?$AAi?$AA?9?$AAm?$AAs?$AA?9?$AAw?$AAi?$AAn?$AA?9?$AAs?$AAe?$AAc?$AAu@ 100244a8     libucrt:winapi_thunks.obj
 0002:00003500       ??_C@_1EG@DBIOJECG@?$AAe?$AAx?$AAt?$AA?9?$AAm?$AAs?$AA?9?$AAw?$AAi?$AAn?$AA?9?$AAn?$AAt?$AAu?$AAs@ 10024500     libucrt:winapi_thunks.obj
 0002:00003548       ??_C@_1EO@FIHMJCLF@?$AAe?$AAx?$AAt?$AA?9?$AAm?$AAs?$AA?9?$AAw?$AAi?$AAn?$AA?9?$AAn?$AAt?$AAu?$AAs@ 10024548     libucrt:winapi_thunks.obj
 0002:00003598       ??_C@_1BC@DNHGCMLG@?$AAa?$AAd?$AAv?$AAa?$AAp?$AAi?$AA3?$AA2@ 10024598     libucrt:winapi_thunks.obj
 0002:000035ac       ??_C@_1M@OAIMIKLP@?$AAn?$AAt?$AAd?$AAl?$AAl@ 100245ac     libucrt:winapi_thunks.obj
 0002:000035b8       ??_C@_1EG@DPGNFKGC@?$AAa?$AAp?$AAi?$AA?9?$AAm?$AAs?$AA?9?$AAw?$AAi?$AAn?$AA?9?$AAa?$AAp?$AAp?$AAm@ 100245b8     libucrt:winapi_thunks.obj
 0002:00003600       ??_C@_1O@BCCLBEOE@?$AAu?$AAs?$AAe?$AAr?$AA3?$AA2@ 10024600     libucrt:winapi_thunks.obj
 0002:00003610       ??_C@_1BA@IAIFMGEF@?$AAe?$AAx?$AAt?$AA?9?$AAm?$AAs?$AA?9@ 10024610     libucrt:winapi_thunks.obj
 0002:00003624       ??_C@_0BA@FHFNEAED@AreFileApisANSI@ 10024624     libucrt:winapi_thunks.obj
 0002:00003664       ??_C@_0O@KKBNKAPF@LCMapStringEx@ 10024664     libucrt:winapi_thunks.obj
 0002:0000367c       ??_C@_0BB@HBDEELFH@LocaleNameToLCID@ 1002467c     libucrt:winapi_thunks.obj
 0002:00003694       ??_C@_0CF@OJOFEIGO@AppPolicyGetProcessTerminationM@ 10024694     libucrt:winapi_thunks.obj
 0002:000036c4       ??_C@_0BI@BKLFFAPO@SetThreadStackGuarantee@ 100246c4     libucrt:winapi_thunks.obj
 0002:00003720       ??_C@_03OEIAHPBN@INF@      10024720     libucrt:cvt.obj
 0002:00003724       ??_C@_03OJHLLCGB@inf@      10024724     libucrt:cvt.obj
 0002:00003728       ??_C@_03LKNCIKJB@NAN@      10024728     libucrt:cvt.obj
 0002:0000372c       ??_C@_03LHCJEHON@nan@      1002472c     libucrt:cvt.obj
 0002:00003730       ??_C@_09OFJJIMPC@NAN?$CISNAN?$CJ@ 10024730     libucrt:cvt.obj
 0002:0000373c       ??_C@_09IPFBKMDL@nan?$CIsnan?$CJ@ 1002473c     libucrt:cvt.obj
 0002:00003748       ??_C@_08IKHNHAJ@NAN?$CIIND?$CJ@ 10024748     libucrt:cvt.obj
 0002:00003754       ??_C@_08OFCDMILK@nan?$CIind?$CJ@ 10024754     libucrt:cvt.obj
 0002:00003760       ??_C@_05KLBDPFGC@e?$CL000@ 10024760     libucrt:cvt.obj
 0002:00003768       ___lc_time_c               10024768     libucrt:nlsdata.obj
 0002:000038cc       ??_C@_03KOEHGMDN@Sun@      100248cc     libucrt:nlsdata.obj
 0002:000038d0       ??_C@_03PDAGKDH@Mon@       100248d0     libucrt:nlsdata.obj
 0002:000038d4       ??_C@_03NAGEINEP@Tue@      100248d4     libucrt:nlsdata.obj
 0002:000038d8       ??_C@_03MHOMLAJA@Wed@      100248d8     libucrt:nlsdata.obj
 0002:000038dc       ??_C@_03IOFIKPDN@Thu@      100248dc     libucrt:nlsdata.obj
 0002:000038e0       ??_C@_03IDIOELNC@Fri@      100248e0     libucrt:nlsdata.obj
 0002:000038e4       ??_C@_03FEFJNEK@Sat@       100248e4     libucrt:nlsdata.obj
 0002:000038e8       ??_C@_06OOPIFAJ@Sunday@    100248e8     libucrt:nlsdata.obj
 0002:000038f0       ??_C@_06JLEDEDGH@Monday@   100248f0     libucrt:nlsdata.obj
 0002:000038f8       ??_C@_07BAAGCFCM@Tuesday@  100248f8     libucrt:nlsdata.obj
 0002:00003900       ??_C@_09DLIGFAKA@Wednesday@ 10024900     libucrt:nlsdata.obj
 0002:0000390c       ??_C@_08HACCIKIA@Thursday@ 1002490c     libucrt:nlsdata.obj
 0002:00003918       ??_C@_06JECMNKMI@Friday@   10024918     libucrt:nlsdata.obj
 0002:00003920       ??_C@_08INBOOONO@Saturday@ 10024920     libucrt:nlsdata.obj
 0002:0000392c       ??_C@_03JIHJHPIE@Jan@      1002492c     libucrt:nlsdata.obj
 0002:00003930       ??_C@_03HJBDCHOM@Feb@      10024930     libucrt:nlsdata.obj
 0002:00003934       ??_C@_03ODNJBKGA@Mar@      10024934     libucrt:nlsdata.obj
 0002:00003938       ??_C@_03LEOLGMJP@Apr@      10024938     libucrt:nlsdata.obj
 0002:0000393c       ??_C@_03CNMDKL@May@        1002493c     libucrt:nlsdata.obj
 0002:00003940       ??_C@_03IDFGHECI@Jun@      10024940     libucrt:nlsdata.obj
 0002:00003944       ??_C@_03LBGABGKK@Jul@      10024944     libucrt:nlsdata.obj
 0002:00003948       ??_C@_03IFJFEIGA@Aug@      10024948     libucrt:nlsdata.obj
 0002:0000394c       ??_C@_03GGCAPAJC@Sep@      1002494c     libucrt:nlsdata.obj
 0002:00003950       ??_C@_03BMAOKBAD@Oct@      10024950     libucrt:nlsdata.obj
 0002:00003954       ??_C@_03JPJOFNIA@Nov@      10024954     libucrt:nlsdata.obj
 0002:00003958       ??_C@_03MKABNOCG@Dec@      10024958     libucrt:nlsdata.obj
 0002:0000395c       ??_C@_07CGJPFGJA@January@  1002495c     libucrt:nlsdata.obj
 0002:00003964       ??_C@_08GNJGEPFN@February@ 10024964     libucrt:nlsdata.obj
 0002:00003970       ??_C@_05HPCKOFNC@March@    10024970     libucrt:nlsdata.obj
 0002:00003978       ??_C@_05DMJDNLEJ@April@    10024978     libucrt:nlsdata.obj
 0002:00003980       ??_C@_04CNLMGBGM@June@     10024980     libucrt:nlsdata.obj
 0002:00003988       ??_C@_04MIEPOIFP@July@     10024988     libucrt:nlsdata.obj
 0002:00003990       ??_C@_06LBBHFDDG@August@   10024990     libucrt:nlsdata.obj
 0002:00003998       ??_C@_09BHHEALKD@September@ 10024998     libucrt:nlsdata.obj
 0002:000039a4       ??_C@_07JJNFCEND@October@  100249a4     libucrt:nlsdata.obj
 0002:000039ac       ??_C@_08HCHEGEOA@November@ 100249ac     libucrt:nlsdata.obj
 0002:000039b8       ??_C@_08EDHMEBNP@December@ 100249b8     libucrt:nlsdata.obj
 0002:000039c4       ??_C@_02DEDBPAFC@AM@       100249c4     libucrt:nlsdata.obj
 0002:000039c8       ??_C@_02CJNFDJBF@PM@       100249c8     libucrt:nlsdata.obj
 0002:000039cc       ??_C@_08BPBNCDIB@MM?1dd?1yy@ 100249cc     libucrt:nlsdata.obj
 0002:000039d8       ??_C@_0BE@CKGJFCPC@dddd?0?5MMMM?5dd?0?5yyyy@ 100249d8     libucrt:nlsdata.obj
 0002:000039ec       ??_C@_08JCCMCCIL@HH?3mm?3ss@ 100249ec     libucrt:nlsdata.obj
 0002:000039f8       ??_C@_17MBGCMIPB@?$AAS?$AAu?$AAn@ 100249f8     libucrt:nlsdata.obj
 0002:00003a00       ??_C@_17KBOMKBF@?$AAM?$AAo?$AAn@ 10024a00     libucrt:nlsdata.obj
 0002:00003a08       ??_C@_17BMKGEGOJ@?$AAT?$AAu?$AAe@ 10024a08     libucrt:nlsdata.obj
 0002:00003a10       ??_C@_17CJEDCEPE@?$AAW?$AAe?$AAd@ 10024a10     libucrt:nlsdata.obj
 0002:00003a18       ??_C@_17PDPHAADD@?$AAT?$AAh?$AAu@ 10024a18     libucrt:nlsdata.obj
 0002:00003a20       ??_C@_17HFOLPPLP@?$AAF?$AAr?$AAi@ 10024a20     libucrt:nlsdata.obj
 0002:00003a28       ??_C@_17GGIBDPIH@?$AAS?$AAa?$AAt@ 10024a28     libucrt:nlsdata.obj
 0002:00003a30       ??_C@_1O@IHNHDHPB@?$AAS?$AAu?$AAn?$AAd?$AAa?$AAy@ 10024a30     libucrt:nlsdata.obj
 0002:00003a40       ??_C@_1O@MMNBFLIA@?$AAM?$AAo?$AAn?$AAd?$AAa?$AAy@ 10024a40     libucrt:nlsdata.obj
 0002:00003a50       ??_C@_1BA@ENFBFFEK@?$AAT?$AAu?$AAe?$AAs?$AAd?$AAa?$AAy@ 10024a50     libucrt:nlsdata.obj
 0002:00003a60       ??_C@_1BE@EBOGMDOH@?$AAW?$AAe?$AAd?$AAn?$AAe?$AAs?$AAd?$AAa?$AAy@ 10024a60     libucrt:nlsdata.obj
 0002:00003a74       ??_C@_1BC@HHMNLIHE@?$AAT?$AAh?$AAu?$AAr?$AAs?$AAd?$AAa?$AAy@ 10024a74     libucrt:nlsdata.obj
 0002:00003a88       ??_C@_1O@PDICJHAG@?$AAF?$AAr?$AAi?$AAd?$AAa?$AAy@ 10024a88     libucrt:nlsdata.obj
 0002:00003a98       ??_C@_1BC@ENMNNPAJ@?$AAS?$AAa?$AAt?$AAu?$AAr?$AAd?$AAa?$AAy@ 10024a98     libucrt:nlsdata.obj
 0002:00003aac       ??_C@_17DKNBKCHM@?$AAJ?$AAa?$AAn@ 10024aac     libucrt:nlsdata.obj
 0002:00003ab4       ??_C@_17LMDJEKJN@?$AAF?$AAe?$AAb@ 10024ab4     libucrt:nlsdata.obj
 0002:00003abc       ??_C@_17CKNLEDEC@?$AAM?$AAa?$AAr@ 10024abc     libucrt:nlsdata.obj
 0002:00003ac4       ??_C@_17LFPOIHDD@?$AAA?$AAp?$AAr@ 10024ac4     libucrt:nlsdata.obj
 0002:00003acc       ??_C@_17PNNKMEED@?$AAM?$AAa?$AAy@ 10024acc     libucrt:nlsdata.obj
 0002:00003ad4       ??_C@_17KCJGOCPB@?$AAJ?$AAu?$AAn@ 10024ad4     libucrt:nlsdata.obj
 0002:00003adc       ??_C@_17IJPCKHK@?$AAJ?$AAu?$AAl@ 10024adc     libucrt:nlsdata.obj
 0002:00003ae4       ??_C@_17ICPELBCN@?$AAA?$AAu?$AAg@ 10024ae4     libucrt:nlsdata.obj
 0002:00003aec       ??_C@_17HCHCOKMG@?$AAS?$AAe?$AAp@ 10024aec     libucrt:nlsdata.obj
 0002:00003af4       ??_C@_17FNLKOI@?$AAO?$AAc?$AAt@ 10024af4     libucrt:nlsdata.obj
 0002:00003afc       ??_C@_17BBDMLCIG@?$AAN?$AAo?$AAv@ 10024afc     libucrt:nlsdata.obj
 0002:00003b04       ??_C@_17EGKACKIF@?$AAD?$AAe?$AAc@ 10024b04     libucrt:nlsdata.obj
 0002:00003b0c       ??_C@_1BA@EFMEIEBA@?$AAJ?$AAa?$AAn?$AAu?$AAa?$AAr?$AAy@ 10024b0c     libucrt:nlsdata.obj
 0002:00003b1c       ??_C@_1BC@JGDDFFAM@?$AAF?$AAe?$AAb?$AAr?$AAu?$AAa?$AAr?$AAy@ 10024b1c     libucrt:nlsdata.obj
 0002:00003b30       ??_C@_1M@IKEENEDF@?$AAM?$AAa?$AAr?$AAc?$AAh@ 10024b30     libucrt:nlsdata.obj
 0002:00003b3c       ??_C@_1M@GJNLMHFD@?$AAA?$AAp?$AAr?$AAi?$AAl@ 10024b3c     libucrt:nlsdata.obj
 0002:00003b48       ??_C@_19EPFLPGAP@?$AAJ?$AAu?$AAn?$AAe@ 10024b48     libucrt:nlsdata.obj
 0002:00003b54       ??_C@_19BIFMLPCD@?$AAJ?$AAu?$AAl?$AAy@ 10024b54     libucrt:nlsdata.obj
 0002:00003b60       ??_C@_1O@PAHLKOAC@?$AAA?$AAu?$AAg?$AAu?$AAs?$AAt@ 10024b60     libucrt:nlsdata.obj
 0002:00003b70       ??_C@_1BE@DKAAMBJL@?$AAS?$AAe?$AAp?$AAt?$AAe?$AAm?$AAb?$AAe?$AAr@ 10024b70     libucrt:nlsdata.obj
 0002:00003b84       ??_C@_1BA@EPANDLNG@?$AAO?$AAc?$AAt?$AAo?$AAb?$AAe?$AAr@ 10024b84     libucrt:nlsdata.obj
 0002:00003b94       ??_C@_1BC@BGLIFPF@?$AAN?$AAo?$AAv?$AAe?$AAm?$AAb?$AAe?$AAr@ 10024b94     libucrt:nlsdata.obj
 0002:00003ba8       ??_C@_1BC@FEMKIFH@?$AAD?$AAe?$AAc?$AAe?$AAm?$AAb?$AAe?$AAr@ 10024ba8     libucrt:nlsdata.obj
 0002:00003bbc       ??_C@_15ODEHAHHF@?$AAA?$AAM@ 10024bbc     libucrt:nlsdata.obj
 0002:00003bc4       ??_C@_15CLMNNGEL@?$AAP?$AAM@ 10024bc4     libucrt:nlsdata.obj
 0002:00003bcc       ??_C@_1BC@IEBCMHCM@?$AAM?$AAM?$AA?1?$AAd?$AAd?$AA?1?$AAy?$AAy@ 10024bcc     libucrt:nlsdata.obj
 0002:00003be0       ??_C@_1CI@KNAKOEBC@?$AAd?$AAd?$AAd?$AAd?$AA?0?$AA?5?$AAM?$AAM?$AAM?$AAM?$AA?5?$AAd?$AAd?$AA?0?$AA?5@ 10024be0     libucrt:nlsdata.obj
 0002:00003c08       ??_C@_1BC@GDGBMEMK@?$AAH?$AAH?$AA?3?$AAm?$AAm?$AA?3?$AAs?$AAs@ 10024c08     libucrt:nlsdata.obj
 0002:00003c1c       ??_C@_1M@BMHNFIME@?$AAe?$AAn?$AA?9?$AAU?$AAS@ 10024c1c     libucrt:nlsdata.obj
 0002:00003c38       ??_C@_1M@HPNHIDJI@?$AAj?$AAa?$AA?9?$AAJ?$AAP@ 10024c38     libucrt:mbctype.obj
 0002:00003c44       ??_C@_1M@BIBDDEMK@?$AAz?$AAh?$AA?9?$AAC?$AAN@ 10024c44     libucrt:mbctype.obj
 0002:00003c50       ??_C@_1M@JLOOOEGK@?$AAk?$AAo?$AA?9?$AAK?$AAR@ 10024c50     libucrt:mbctype.obj
 0002:00003c5c       ??_C@_1M@CLNBBOPM@?$AAz?$AAh?$AA?9?$AAT?$AAW@ 10024c5c     libucrt:mbctype.obj
 0002:00003c68       ___newctype                10024c68     libucrt:ctype.obj
 0002:00003f68       ___newclmap                10024f68     libucrt:ctype.obj
 0002:000040e8       ___newcumap                100250e8     libucrt:ctype.obj
 0002:00004268       __wctype                   10025268     libucrt:ctype.obj
 0002:00004b90       ??_C@_15EMKDOKLE@?$AAa?$AAr@ 10025b90     libucrt:lcidtoname_downlevel.obj
 0002:00004b98       ??_C@_15KNPADPLH@?$AAb?$AAg@ 10025b98     libucrt:lcidtoname_downlevel.obj
 0002:00004ba0       ??_C@_15EDMHLDMO@?$AAc?$AAa@ 10025ba0     libucrt:lcidtoname_downlevel.obj
 0002:00004ba8       ??_C@_1O@BPEAJADD@?$AAz?$AAh?$AA?9?$AAC?$AAH?$AAS@ 10025ba8     libucrt:lcidtoname_downlevel.obj
 0002:00004bb8       ??_C@_15LJNHCMNK@?$AAc?$AAs@ 10025bb8     libucrt:lcidtoname_downlevel.obj
 0002:00004bc0       ??_C@_15FOMCIDHG@?$AAd?$AAa@ 10025bc0     libucrt:lcidtoname_downlevel.obj
 0002:00004bc8       ??_C@_15NBKABECB@?$AAd?$AAe@ 10025bc8     libucrt:lcidtoname_downlevel.obj
 0002:00004bd0       ??_C@_15GHPEIIAO@?$AAe?$AAl@ 10025bd0     libucrt:lcidtoname_downlevel.obj
 0002:00004bd8       ??_C@_15MNPNEAIF@?$AAe?$AAn@ 10025bd8     libucrt:lcidtoname_downlevel.obj
 0002:00004be0       ??_C@_15GPIOMPMH@?$AAe?$AAs@ 10025be0     libucrt:lcidtoname_downlevel.obj
 0002:00004be8       ??_C@_15NGLOAKJC@?$AAf?$AAi@ 10025be8     libucrt:lcidtoname_downlevel.obj
 0002:00004bf0       ??_C@_15FBKGNKAM@?$AAf?$AAr@ 10025bf0     libucrt:lcidtoname_downlevel.obj
 0002:00004bf8       ??_C@_15KGGCNEFK@?$AAh?$AAe@ 10025bf8     libucrt:lcidtoname_downlevel.obj
 0002:00004c00       ??_C@_15PGHLIDMF@?$AAh?$AAu@ 10025c00     libucrt:lcidtoname_downlevel.obj
 0002:00004c08       ??_C@_15BIEMAPLM@?$AAi?$AAs@ 10025c08     libucrt:lcidtoname_downlevel.obj
 0002:00004c10       ??_C@_15IFJLDHAF@?$AAi?$AAt@ 10025c10     libucrt:lcidtoname_downlevel.obj
 0002:00004c18       ??_C@_15GEMIOCAG@?$AAj?$AAa@ 10025c18     libucrt:lcidtoname_downlevel.obj
 0002:00004c20       ??_C@_15EPELEGJA@?$AAk?$AAo@ 10025c20     libucrt:lcidtoname_downlevel.obj
 0002:00004c28       ??_C@_15NDDHIMN@?$AAn?$AAl@ 10025c28     libucrt:lcidtoname_downlevel.obj
 0002:00004c30       ??_C@_15BPIGNHCD@?$AAn?$AAo@ 10025c30     libucrt:lcidtoname_downlevel.obj
 0002:00004c38       ??_C@_15DEOPBLCG@?$AAp?$AAl@ 10025c38     libucrt:lcidtoname_downlevel.obj
 0002:00004c40       ??_C@_15KBECGEFG@?$AAp?$AAt@ 10025c40     libucrt:lcidtoname_downlevel.obj
 0002:00004c48       ??_C@_15GLJCBFMD@?$AAr?$AAo@ 10025c48     libucrt:lcidtoname_downlevel.obj
 0002:00004c50       ??_C@_15FEDGKCDI@?$AAr?$AAu@ 10025c50     libucrt:lcidtoname_downlevel.obj
 0002:00004c58       ??_C@_15GLKMLLHM@?$AAh?$AAr@ 10025c58     libucrt:lcidtoname_downlevel.obj
 0002:00004c60       ??_C@_15CPKMFBDB@?$AAs?$AAk@ 10025c60     libucrt:lcidtoname_downlevel.obj
 0002:00004c68       ??_C@_15BAAIOGMK@?$AAs?$AAq@ 10025c68     libucrt:lcidtoname_downlevel.obj
 0002:00004c70       ??_C@_15INNPNOHD@?$AAs?$AAv@ 10025c70     libucrt:lcidtoname_downlevel.obj
 0002:00004c78       ??_C@_15CABMMOGH@?$AAt?$AAh@ 10025c78     libucrt:lcidtoname_downlevel.obj
 0002:00004c80       ??_C@_15BPLIHJJM@?$AAt?$AAr@ 10025c80     libucrt:lcidtoname_downlevel.obj
 0002:00004c88       ??_C@_15NEOEKKDJ@?$AAu?$AAr@ 10025c88     libucrt:lcidtoname_downlevel.obj
 0002:00004c90       ??_C@_15NFICGAJK@?$AAi?$AAd@ 10025c90     libucrt:lcidtoname_downlevel.obj
 0002:00004c98       ??_C@_15PJPFLCCM@?$AAu?$AAk@ 10025c98     libucrt:lcidtoname_downlevel.obj
 0002:00004ca0       ??_C@_15HPJPHDM@?$AAb?$AAe@ 10025ca0     libucrt:lcidtoname_downlevel.obj
 0002:00004ca8       ??_C@_15LCHLGJII@?$AAs?$AAl@ 10025ca8     libucrt:lcidtoname_downlevel.obj
 0002:00004cb0       ??_C@_15PCFJPHHO@?$AAe?$AAt@ 10025cb0     libucrt:lcidtoname_downlevel.obj
 0002:00004cb8       ??_C@_15HPFPGODN@?$AAl?$AAv@ 10025cb8     libucrt:lcidtoname_downlevel.obj
 0002:00004cc0       ??_C@_15NFFGKGLG@?$AAl?$AAt@ 10025cc0     libucrt:lcidtoname_downlevel.obj
 0002:00004cc8       ??_C@_15BDAKCCHN@?$AAf?$AAa@ 10025cc8     libucrt:lcidtoname_downlevel.obj
 0002:00004cd0       ??_C@_15NFGIAIAJ@?$AAv?$AAi@ 10025cd0     libucrt:lcidtoname_downlevel.obj
 0002:00004cd8       ??_C@_15LMKNDMHN@?$AAh?$AAy@ 10025cd8     libucrt:lcidtoname_downlevel.obj
 0002:00004ce0       ??_C@_15IJBHMCFL@?$AAa?$AAz@ 10025ce0     libucrt:lcidtoname_downlevel.obj
 0002:00004ce8       ??_C@_15EKOFJABL@?$AAe?$AAu@ 10025ce8     libucrt:lcidtoname_downlevel.obj
 0002:00004cf0       ??_C@_15BGHADCNK@?$AAm?$AAk@ 10025cf0     libucrt:lcidtoname_downlevel.obj
 0002:00004cf8       ??_C@_15JDNICKHM@?$AAa?$AAf@ 10025cf8     libucrt:lcidtoname_downlevel.obj
 0002:00004d00       ??_C@_15KPJEDBKD@?$AAk?$AAa@ 10025d00     libucrt:lcidtoname_downlevel.obj
 0002:00004d08       ??_C@_15PDNFFFEO@?$AAf?$AAo@ 10025d08     libucrt:lcidtoname_downlevel.obj
 0002:00004d10       ??_C@_15OMLEGLOC@?$AAh?$AAi@ 10025d10     libucrt:lcidtoname_downlevel.obj
 0002:00004d18       ??_C@_15IDNNENKK@?$AAm?$AAs@ 10025d18     libucrt:lcidtoname_downlevel.obj
 0002:00004d20       ??_C@_15MACJNBMH@?$AAk?$AAk@ 10025d20     libucrt:lcidtoname_downlevel.obj
 0002:00004d28       ??_C@_15DKDJEOND@?$AAk?$AAy@ 10025d28     libucrt:lcidtoname_downlevel.obj
 0002:00004d30       ??_C@_15DFGDLJBG@?$AAs?$AAw@ 10025d30     libucrt:lcidtoname_downlevel.obj
 0002:00004d38       ??_C@_15BBFAICNG@?$AAu?$AAz@ 10025d38     libucrt:lcidtoname_downlevel.obj
 0002:00004d40       ??_C@_15DKNDCGEA@?$AAt?$AAt@ 10025d40     libucrt:lcidtoname_downlevel.obj
 0002:00004d48       ??_C@_15MGIFMDPL@?$AAp?$AAa@ 10025d48     libucrt:lcidtoname_downlevel.obj
 0002:00004d50       ??_C@_15HCNDBBA@?$AAg?$AAu@ 10025d50     libucrt:lcidtoname_downlevel.obj
 0002:00004d58       ??_C@_15FNBEIBON@?$AAt?$AAa@ 10025d58     libucrt:lcidtoname_downlevel.obj
 0002:00004d60       ??_C@_15NCHGBGLK@?$AAt?$AAe@ 10025d60     libucrt:lcidtoname_downlevel.obj
 0002:00004d68       ??_C@_15PHPHCBPF@?$AAk?$AAn@ 10025d68     libucrt:lcidtoname_downlevel.obj
 0002:00004d70       ??_C@_15DLGBCKMP@?$AAm?$AAr@ 10025d70     libucrt:lcidtoname_downlevel.obj
 0002:00004d78       ??_C@_15EABBLBFF@?$AAs?$AAa@ 10025d78     libucrt:lcidtoname_downlevel.obj
 0002:00004d80       ??_C@_15CBKOMCOI@?$AAm?$AAn@ 10025d80     libucrt:lcidtoname_downlevel.obj
 0002:00004d88       ??_C@_15CKDMCJAF@?$AAg?$AAl@ 10025d88     libucrt:lcidtoname_downlevel.obj
 0002:00004d90       ??_C@_17CNJFBPG@?$AAk?$AAo?$AAk@ 10025d90     libucrt:lcidtoname_downlevel.obj
 0002:00004d98       ??_C@_17FFBJICPL@?$AAs?$AAy?$AAr@ 10025d98     libucrt:lcidtoname_downlevel.obj
 0002:00004da0       ??_C@_17KPNDCPAF@?$AAd?$AAi?$AAv@ 10025da0     libucrt:lcidtoname_downlevel.obj
 0002:00004da8       ??_C@_1M@OKAHONE@?$AAa?$AAr?$AA?9?$AAS?$AAA@ 10025da8     libucrt:lcidtoname_downlevel.obj
 0002:00004db4       ??_C@_1M@FFFIGIGK@?$AAb?$AAg?$AA?9?$AAB?$AAG@ 10025db4     libucrt:lcidtoname_downlevel.obj
 0002:00004dc0       ??_C@_1M@BJNKEDC@?$AAc?$AAa?$AA?9?$AAE?$AAS@ 10025dc0     libucrt:lcidtoname_downlevel.obj
 0002:00004dcc       ??_C@_1M@IJJHFJHA@?$AAc?$AAs?$AA?9?$AAC?$AAZ@ 10025dcc     libucrt:lcidtoname_downlevel.obj
 0002:00004dd8       ??_C@_1M@CLPEOBGI@?$AAd?$AAa?$AA?9?$AAD?$AAK@ 10025dd8     libucrt:lcidtoname_downlevel.obj
 0002:00004de4       ??_C@_1M@MCMADGCB@?$AAd?$AAe?$AA?9?$AAD?$AAE@ 10025de4     libucrt:lcidtoname_downlevel.obj
 0002:00004df0       ??_C@_1M@OOCKEMAM@?$AAe?$AAl?$AA?9?$AAG?$AAR@ 10025df0     libucrt:lcidtoname_downlevel.obj
 0002:00004dfc       ??_C@_1M@DDNJFGID@?$AAf?$AAi?$AA?9?$AAF?$AAI@ 10025dfc     libucrt:lcidtoname_downlevel.obj
 0002:00004e08       ??_C@_1M@GLIPPMAC@?$AAf?$AAr?$AA?9?$AAF?$AAR@ 10025e08     libucrt:lcidtoname_downlevel.obj
 0002:00004e14       ??_C@_1M@GFMCHPE@?$AAh?$AAe?$AA?9?$AAI?$AAL@ 10025e14     libucrt:lcidtoname_downlevel.obj
 0002:00004e20       ??_C@_1M@MHLPGNKM@?$AAh?$AAu?$AA?9?$AAH?$AAU@ 10025e20     libucrt:lcidtoname_downlevel.obj
 0002:00004e2c       ??_C@_1M@LPDDNNPN@?$AAi?$AAs?$AA?9?$AAI?$AAS@ 10025e2c     libucrt:lcidtoname_downlevel.obj
 0002:00004e38       ??_C@_1M@MADIPODN@?$AAi?$AAt?$AA?9?$AAI?$AAT@ 10025e38     libucrt:lcidtoname_downlevel.obj
 0002:00004e44       ??_C@_1M@IHBJJGG@?$AAn?$AAl?$AA?9?$AAN?$AAL@ 10025e44     libucrt:lcidtoname_downlevel.obj
 0002:00004e50       ??_C@_1M@EANAGDL@?$AAn?$AAb?$AA?9?$AAN?$AAO@ 10025e50     libucrt:lcidtoname_downlevel.obj
 0002:00004e5c       ??_C@_1M@NEIEMEGP@?$AAp?$AAl?$AA?9?$AAP?$AAL@ 10025e5c     libucrt:lcidtoname_downlevel.obj
 0002:00004e68       ??_C@_1M@BOCFIGEP@?$AAp?$AAt?$AA?9?$AAB?$AAR@ 10025e68     libucrt:lcidtoname_downlevel.obj
 0002:00004e74       ??_C@_1M@IMPFOPBG@?$AAr?$AAo?$AA?9?$AAR?$AAO@ 10025e74     libucrt:lcidtoname_downlevel.obj
 0002:00004e80       ??_C@_1M@IDNNEJMM@?$AAr?$AAu?$AA?9?$AAR?$AAU@ 10025e80     libucrt:lcidtoname_downlevel.obj
 0002:00004e8c       ??_C@_1M@LILEEOGM@?$AAh?$AAr?$AA?9?$AAH?$AAR@ 10025e8c     libucrt:lcidtoname_downlevel.obj
 0002:00004e98       ??_C@_1M@FKIFEHPB@?$AAs?$AAk?$AA?9?$AAS?$AAK@ 10025e98     libucrt:lcidtoname_downlevel.obj
 0002:00004ea4       ??_C@_1M@LJMAMNPJ@?$AAs?$AAq?$AA?9?$AAA?$AAL@ 10025ea4     libucrt:lcidtoname_downlevel.obj
 0002:00004eb0       ??_C@_1M@GIAKDKJK@?$AAs?$AAv?$AA?9?$AAS?$AAE@ 10025eb0     libucrt:lcidtoname_downlevel.obj
 0002:00004ebc       ??_C@_1M@MKJKIKCL@?$AAt?$AAh?$AA?9?$AAT?$AAH@ 10025ebc     libucrt:lcidtoname_downlevel.obj
 0002:00004ec8       ??_C@_1M@MFLCCMPB@?$AAt?$AAr?$AA?9?$AAT?$AAR@ 10025ec8     libucrt:lcidtoname_downlevel.obj
 0002:00004ed4       ??_C@_1M@OIJHDKJN@?$AAu?$AAr?$AA?9?$AAP?$AAK@ 10025ed4     libucrt:lcidtoname_downlevel.obj
 0002:00004ee0       ??_C@_1M@LHIPCIEK@?$AAi?$AAd?$AA?9?$AAI?$AAD@ 10025ee0     libucrt:lcidtoname_downlevel.obj
 0002:00004eec       ??_C@_1M@MFMOBGI@?$AAu?$AAk?$AA?9?$AAU?$AAA@ 10025eec     libucrt:lcidtoname_downlevel.obj
 0002:00004ef8       ??_C@_1M@OBGLJIPL@?$AAb?$AAe?$AA?9?$AAB?$AAY@ 10025ef8     libucrt:lcidtoname_downlevel.obj
 0002:00004f04       ??_C@_1M@BCFAJEAD@?$AAs?$AAl?$AA?9?$AAS?$AAI@ 10025f04     libucrt:lcidtoname_downlevel.obj
 0002:00004f10       ??_C@_1M@FKFFEDDN@?$AAe?$AAt?$AA?9?$AAE?$AAE@ 10025f10     libucrt:lcidtoname_downlevel.obj
 0002:00004f1c       ??_C@_1M@KGKKAACI@?$AAl?$AAv?$AA?9?$AAL?$AAV@ 10025f1c     libucrt:lcidtoname_downlevel.obj
 0002:00004f28       ??_C@_1M@IFGBIJO@?$AAl?$AAt?$AA?9?$AAL?$AAT@ 10025f28     libucrt:lcidtoname_downlevel.obj
 0002:00004f34       ??_C@_1M@FGEAHEDM@?$AAf?$AAa?$AA?9?$AAI?$AAR@ 10025f34     libucrt:lcidtoname_downlevel.obj
 0002:00004f40       ??_C@_1M@KBMAIBFN@?$AAv?$AAi?$AA?9?$AAV?$AAN@ 10025f40     libucrt:lcidtoname_downlevel.obj
 0002:00004f4c       ??_C@_1M@GPCBKDJK@?$AAh?$AAy?$AA?9?$AAA?$AAM@ 10025f4c     libucrt:lcidtoname_downlevel.obj
 0002:00004f58       ??_C@_1BG@BECMDDJB@?$AAa?$AAz?$AA?9?$AAA?$AAZ?$AA?9?$AAL?$AAa?$AAt?$AAn@ 10025f58     libucrt:lcidtoname_downlevel.obj
 0002:00004f70       ??_C@_1M@MAOFCAEA@?$AAe?$AAu?$AA?9?$AAE?$AAS@ 10025f70     libucrt:lcidtoname_downlevel.obj
 0002:00004f7c       ??_C@_1M@IGHABKPI@?$AAm?$AAk?$AA?9?$AAM?$AAK@ 10025f7c     libucrt:lcidtoname_downlevel.obj
 0002:00004f88       ??_C@_1M@IAIGNEJG@?$AAt?$AAn?$AA?9?$AAZ?$AAA@ 10025f88     libucrt:lcidtoname_downlevel.obj
 0002:00004f94       ??_C@_1M@IIJCOJFA@?$AAx?$AAh?$AA?9?$AAZ?$AAA@ 10025f94     libucrt:lcidtoname_downlevel.obj
 0002:00004fa0       ??_C@_1M@LGPJHNJH@?$AAz?$AAu?$AA?9?$AAZ?$AAA@ 10025fa0     libucrt:lcidtoname_downlevel.obj
 0002:00004fac       ??_C@_1M@HOKAOIO@?$AAa?$AAf?$AA?9?$AAZ?$AAA@ 10025fac     libucrt:lcidtoname_downlevel.obj
 0002:00004fb8       ??_C@_1M@DPCLHLIE@?$AAk?$AAa?$AA?9?$AAG?$AAE@ 10025fb8     libucrt:lcidtoname_downlevel.obj
 0002:00004fc4       ??_C@_1M@BLKMHJBI@?$AAf?$AAo?$AA?9?$AAF?$AAO@ 10025fc4     libucrt:lcidtoname_downlevel.obj
 0002:00004fd0       ??_C@_1M@LGGJAPPB@?$AAh?$AAi?$AA?9?$AAI?$AAN@ 10025fd0     libucrt:lcidtoname_downlevel.obj
 0002:00004fdc       ??_C@_1M@FIKPIHFE@?$AAm?$AAt?$AA?9?$AAM?$AAT@ 10025fdc     libucrt:lcidtoname_downlevel.obj
 0002:00004fe8       ??_C@_1M@HEGGPBFA@?$AAs?$AAe?$AA?9?$AAN?$AAO@ 10025fe8     libucrt:lcidtoname_downlevel.obj
 0002:00004ff4       ??_C@_1M@EIBJEEPA@?$AAm?$AAs?$AA?9?$AAM?$AAY@ 10025ff4     libucrt:lcidtoname_downlevel.obj
 0002:00005000       ??_C@_1M@FHLBGMPP@?$AAk?$AAk?$AA?9?$AAK?$AAZ@ 10026000     libucrt:lcidtoname_downlevel.obj
 0002:0000500c       ??_C@_1M@NGJJLCGI@?$AAk?$AAy?$AA?9?$AAK?$AAG@ 1002600c     libucrt:lcidtoname_downlevel.obj
 0002:00005018       ??_C@_1M@GIENNBFC@?$AAs?$AAw?$AA?9?$AAK?$AAE@ 10026018     libucrt:lcidtoname_downlevel.obj
 0002:00005024       ??_C@_1BG@NDGMJIMJ@?$AAu?$AAz?$AA?9?$AAU?$AAZ?$AA?9?$AAL?$AAa?$AAt?$AAn@ 10026024     libucrt:lcidtoname_downlevel.obj
 0002:0000503c       ??_C@_1M@IDCCIHBC@?$AAt?$AAt?$AA?9?$AAR?$AAU@ 1002603c     libucrt:lcidtoname_downlevel.obj
 0002:00005048       ??_C@_1M@LOICPMOJ@?$AAb?$AAn?$AA?9?$AAI?$AAN@ 10026048     libucrt:lcidtoname_downlevel.obj
 0002:00005054       ??_C@_1M@KPKKNEAH@?$AAp?$AAa?$AA?9?$AAI?$AAN@ 10026054     libucrt:lcidtoname_downlevel.obj
 0002:00005060       ??_C@_1M@PJGPPBOG@?$AAg?$AAu?$AA?9?$AAI?$AAN@ 10026060     libucrt:lcidtoname_downlevel.obj
 0002:0000506c       ??_C@_1M@KMKMOPHI@?$AAt?$AAa?$AA?9?$AAI?$AAN@ 1002606c     libucrt:lcidtoname_downlevel.obj
 0002:00005078       ??_C@_1M@KFEHEPAC@?$AAt?$AAe?$AA?9?$AAI?$AAN@ 10026078     libucrt:lcidtoname_downlevel.obj
 0002:00005084       ??_C@_1M@CDCLMGHI@?$AAk?$AAn?$AA?9?$AAI?$AAN@ 10026084     libucrt:lcidtoname_downlevel.obj
 0002:00005090       ??_C@_1M@MIODLDKF@?$AAm?$AAl?$AA?9?$AAI?$AAN@ 10026090     libucrt:lcidtoname_downlevel.obj
 0002:0000509c       ??_C@_1M@PBIEACPO@?$AAm?$AAr?$AA?9?$AAI?$AAN@ 1002609c     libucrt:lcidtoname_downlevel.obj
 0002:000050a8       ??_C@_1M@NIDEAGPH@?$AAs?$AAa?$AA?9?$AAI?$AAN@ 100260a8     libucrt:lcidtoname_downlevel.obj
 0002:000050b4       ??_C@_1M@FHIHCBIO@?$AAm?$AAn?$AA?9?$AAM?$AAN@ 100260b4     libucrt:lcidtoname_downlevel.obj
 0002:000050c0       ??_C@_1M@JAIJPENP@?$AAc?$AAy?$AA?9?$AAG?$AAB@ 100260c0     libucrt:lcidtoname_downlevel.obj
 0002:000050cc       ??_C@_1M@PHGFBEPN@?$AAg?$AAl?$AA?9?$AAE?$AAS@ 100260cc     libucrt:lcidtoname_downlevel.obj
 0002:000050d8       ??_C@_1O@KPIPDNCP@?$AAk?$AAo?$AAk?$AA?9?$AAI?$AAN@ 100260d8     libucrt:lcidtoname_downlevel.obj
 0002:000050e8       ??_C@_1O@KNHJLDJA@?$AAs?$AAy?$AAr?$AA?9?$AAS?$AAY@ 100260e8     libucrt:lcidtoname_downlevel.obj
 0002:000050f8       ??_C@_1O@MKEKBLAH@?$AAd?$AAi?$AAv?$AA?9?$AAM?$AAV@ 100260f8     libucrt:lcidtoname_downlevel.obj
 0002:00005108       ??_C@_1O@OHDCKDDF@?$AAq?$AAu?$AAz?$AA?9?$AAB?$AAO@ 10026108     libucrt:lcidtoname_downlevel.obj
 0002:00005118       ??_C@_1M@LEPJNLFD@?$AAn?$AAs?$AA?9?$AAZ?$AAA@ 10026118     libucrt:lcidtoname_downlevel.obj
 0002:00005124       ??_C@_1M@OMLEIIJB@?$AAm?$AAi?$AA?9?$AAN?$AAZ@ 10026124     libucrt:lcidtoname_downlevel.obj
 0002:00005130       ??_C@_1M@PMPEAILG@?$AAa?$AAr?$AA?9?$AAI?$AAQ@ 10026130     libucrt:lcidtoname_downlevel.obj
 0002:0000513c       ??_C@_1M@CNKPNOEE@?$AAd?$AAe?$AA?9?$AAC?$AAH@ 1002613c     libucrt:lcidtoname_downlevel.obj
 0002:00005148       ??_C@_1M@LKMGMLKO@?$AAe?$AAn?$AA?9?$AAG?$AAB@ 10026148     libucrt:lcidtoname_downlevel.obj
 0002:00005154       ??_C@_1M@PGKJFFGL@?$AAe?$AAs?$AA?9?$AAM?$AAX@ 10026154     libucrt:lcidtoname_downlevel.obj
 0002:00005160       ??_C@_1M@DNNANBDC@?$AAf?$AAr?$AA?9?$AAB?$AAE@ 10026160     libucrt:lcidtoname_downlevel.obj
 0002:0000516c       ??_C@_1M@HLGMDFHM@?$AAi?$AAt?$AA?9?$AAC?$AAH@ 1002616c     libucrt:lcidtoname_downlevel.obj
 0002:00005178       ??_C@_1M@CLLBGJH@?$AAn?$AAl?$AA?9?$AAB?$AAE@ 10026178     libucrt:lcidtoname_downlevel.obj
 0002:00005184       ??_C@_1M@BODBOGLF@?$AAn?$AAn?$AA?9?$AAN?$AAO@ 10026184     libucrt:lcidtoname_downlevel.obj
 0002:00005190       ??_C@_1M@HFFAHKAD@?$AAp?$AAt?$AA?9?$AAP?$AAT@ 10026190     libucrt:lcidtoname_downlevel.obj
 0002:0000519c       ??_C@_1BG@LNOAKHIE@?$AAs?$AAr?$AA?9?$AAS?$AAP?$AA?9?$AAL?$AAa?$AAt?$AAn@ 1002619c     libucrt:lcidtoname_downlevel.obj
 0002:000051b4       ??_C@_1M@HBMHBGAK@?$AAs?$AAv?$AA?9?$AAF?$AAI@ 100261b4     libucrt:lcidtoname_downlevel.obj
 0002:000051c0       ??_C@_1BG@DGCJGJBE@?$AAa?$AAz?$AA?9?$AAA?$AAZ?$AA?9?$AAC?$AAy?$AAr?$AAl@ 100261c0     libucrt:lcidtoname_downlevel.obj
 0002:000051d8       ??_C@_1M@KEJDAAHB@?$AAs?$AAe?$AA?9?$AAS?$AAE@ 100261d8     libucrt:lcidtoname_downlevel.obj
 0002:000051e4       ??_C@_1M@HEIBJJAD@?$AAm?$AAs?$AA?9?$AAB?$AAN@ 100261e4     libucrt:lcidtoname_downlevel.obj
 0002:000051f0       ??_C@_1BG@PBGJMCEM@?$AAu?$AAz?$AA?9?$AAU?$AAZ?$AA?9?$AAC?$AAy?$AAr?$AAl@ 100261f0     libucrt:lcidtoname_downlevel.obj
 0002:00005208       ??_C@_1O@LAOBCMDF@?$AAq?$AAu?$AAz?$AA?9?$AAE?$AAC@ 10026208     libucrt:lcidtoname_downlevel.obj
 0002:00005218       ??_C@_1M@POEEMAIO@?$AAa?$AAr?$AA?9?$AAE?$AAG@ 10026218     libucrt:lcidtoname_downlevel.obj
 0002:00005224       ??_C@_1M@EFAKDEDL@?$AAz?$AAh?$AA?9?$AAH?$AAK@ 10026224     libucrt:lcidtoname_downlevel.obj
 0002:00005230       ??_C@_1M@HKKIJHGI@?$AAd?$AAe?$AA?9?$AAA?$AAT@ 10026230     libucrt:lcidtoname_downlevel.obj
 0002:0000523c       ??_C@_1M@KBFBEHJF@?$AAe?$AAn?$AA?9?$AAA?$AAU@ 1002623c     libucrt:lcidtoname_downlevel.obj
 0002:00005248       ??_C@_1M@MNPLFAAH@?$AAe?$AAs?$AA?9?$AAE?$AAS@ 10026248     libucrt:lcidtoname_downlevel.obj
 0002:00005254       ??_C@_1M@HJOOJFMA@?$AAf?$AAr?$AA?9?$AAC?$AAA@ 10026254     libucrt:lcidtoname_downlevel.obj
 0002:00005260       ??_C@_1BG@JPOFPNAB@?$AAs?$AAr?$AA?9?$AAS?$AAP?$AA?9?$AAC?$AAy?$AAr?$AAl@ 10026260     libucrt:lcidtoname_downlevel.obj
 0002:00005278       ??_C@_1M@LNFOCMOB@?$AAs?$AAe?$AA?9?$AAF?$AAI@ 10026278     libucrt:lcidtoname_downlevel.obj
 0002:00005284       ??_C@_1O@MGJBOAMB@?$AAq?$AAu?$AAz?$AA?9?$AAP?$AAE@ 10026284     libucrt:lcidtoname_downlevel.obj
 0002:00005294       ??_C@_1M@GJINLBOK@?$AAa?$AAr?$AA?9?$AAL?$AAY@ 10026294     libucrt:lcidtoname_downlevel.obj
 0002:000052a0       ??_C@_1M@GGMNHJNL@?$AAz?$AAh?$AA?9?$AAS?$AAG@ 100262a0     libucrt:lcidtoname_downlevel.obj
 0002:000052ac       ??_C@_1M@HOIKODND@?$AAd?$AAe?$AA?9?$AAL?$AAU@ 100262ac     libucrt:lcidtoname_downlevel.obj
 0002:000052b8       ??_C@_1M@DDOCCGFG@?$AAe?$AAn?$AA?9?$AAC?$AAA@ 100262b8     libucrt:lcidtoname_downlevel.obj
 0002:000052c4       ??_C@_1M@BNOEMJLF@?$AAe?$AAs?$AA?9?$AAG?$AAT@ 100262c4     libucrt:lcidtoname_downlevel.obj
 0002:000052d0       ??_C@_1M@EOGNKEK@?$AAf?$AAr?$AA?9?$AAC?$AAH@ 100262d0     libucrt:lcidtoname_downlevel.obj
 0002:000052dc       ??_C@_1M@FLIDJFHL@?$AAh?$AAr?$AA?9?$AAB?$AAA@ 100262dc     libucrt:lcidtoname_downlevel.obj
 0002:000052e8       ??_C@_1O@FMCELNAJ@?$AAs?$AAm?$AAj?$AA?9?$AAN?$AAO@ 100262e8     libucrt:lcidtoname_downlevel.obj
 0002:000052f8       ??_C@_1M@JHGLJMGJ@?$AAa?$AAr?$AA?9?$AAD?$AAZ@ 100262f8     libucrt:lcidtoname_downlevel.obj
 0002:00005304       ??_C@_1M@JKKFDCNP@?$AAz?$AAh?$AA?9?$AAM?$AAO@ 10026304     libucrt:lcidtoname_downlevel.obj
 0002:00005310       ??_C@_1M@GEEFALPE@?$AAd?$AAe?$AA?9?$AAL?$AAI@ 10026310     libucrt:lcidtoname_downlevel.obj
 0002:0000531c       ??_C@_1M@IGEOFBG@?$AAe?$AAn?$AA?9?$AAN?$AAZ@ 1002631c     libucrt:lcidtoname_downlevel.obj
 0002:00005328       ??_C@_1M@KDBONEHP@?$AAe?$AAs?$AA?9?$AAC?$AAR@ 10026328     libucrt:lcidtoname_downlevel.obj
 0002:00005334       ??_C@_1M@FHMDOHNN@?$AAf?$AAr?$AA?9?$AAL?$AAU@ 10026334     libucrt:lcidtoname_downlevel.obj
 0002:00005340       ??_C@_1BG@NFKKMAFG@?$AAb?$AAs?$AA?9?$AAB?$AAA?$AA?9?$AAL?$AAa?$AAt?$AAn@ 10026340     libucrt:lcidtoname_downlevel.obj
 0002:00005358       ??_C@_1O@IMNBEMCI@?$AAs?$AAm?$AAj?$AA?9?$AAS?$AAE@ 10026358     libucrt:lcidtoname_downlevel.obj
 0002:00005368       ??_C@_1M@DHHMBNDP@?$AAa?$AAr?$AA?9?$AAM?$AAA@ 10026368     libucrt:lcidtoname_downlevel.obj
 0002:00005374       ??_C@_1M@BNBLJCGH@?$AAe?$AAn?$AA?9?$AAI?$AAE@ 10026374     libucrt:lcidtoname_downlevel.obj
 0002:00005380       ??_C@_1M@GEPAFMDL@?$AAe?$AAs?$AA?9?$AAP?$AAA@ 10026380     libucrt:lcidtoname_downlevel.obj
 0002:0000538c       ??_C@_1M@OJONDMDL@?$AAf?$AAr?$AA?9?$AAM?$AAC@ 1002638c     libucrt:lcidtoname_downlevel.obj
 0002:00005398       ??_C@_1BG@OBCNFJB@?$AAs?$AAr?$AA?9?$AAB?$AAA?$AA?9?$AAL?$AAa?$AAt?$AAn@ 10026398     libucrt:lcidtoname_downlevel.obj
 0002:000053b0       ??_C@_1O@KEMEEGPO@?$AAs?$AAm?$AAa?$AA?9?$AAN?$AAO@ 100263b0     libucrt:lcidtoname_downlevel.obj
 0002:000053c0       ??_C@_1M@ELMGFODK@?$AAa?$AAr?$AA?9?$AAT?$AAN@ 100263c0     libucrt:lcidtoname_downlevel.obj
 0002:000053cc       ??_C@_1M@BHDLHFAF@?$AAe?$AAn?$AA?9?$AAZ?$AAA@ 100263cc     libucrt:lcidtoname_downlevel.obj
 0002:000053d8       ??_C@_1M@BMGIGLIF@?$AAe?$AAs?$AA?9?$AAD?$AAO@ 100263d8     libucrt:lcidtoname_downlevel.obj
 0002:000053e4       ??_C@_1BG@CMBHIPBE@?$AAs?$AAr?$AA?9?$AAB?$AAA?$AA?9?$AAC?$AAy?$AAr?$AAl@ 100263e4     libucrt:lcidtoname_downlevel.obj
 0002:000053fc       ??_C@_1O@HEDBLHNP@?$AAs?$AAm?$AAa?$AA?9?$AAS?$AAE@ 100263fc     libucrt:lcidtoname_downlevel.obj
 0002:0000540c       ??_C@_1M@DAGCADIM@?$AAa?$AAr?$AA?9?$AAO?$AAM@ 1002640c     libucrt:lcidtoname_downlevel.obj
 0002:00005418       ??_C@_1M@FODLMICG@?$AAe?$AAn?$AA?9?$AAJ?$AAM@ 10026418     libucrt:lcidtoname_downlevel.obj
 0002:00005424       ??_C@_1M@DNMLCIHB@?$AAe?$AAs?$AA?9?$AAV?$AAE@ 10026424     libucrt:lcidtoname_downlevel.obj
 0002:00005430       ??_C@_1O@EOKHMKJK@?$AAs?$AAm?$AAs?$AA?9?$AAF?$AAI@ 10026430     libucrt:lcidtoname_downlevel.obj
 0002:00005440       ??_C@_1M@CAFJMKOF@?$AAa?$AAr?$AA?9?$AAY?$AAE@ 10026440     libucrt:lcidtoname_downlevel.obj
 0002:0000544c       ??_C@_1M@CBFHIJLI@?$AAe?$AAn?$AA?9?$AAC?$AAB@ 1002644c     libucrt:lcidtoname_downlevel.obj
 0002:00005458       ??_C@_1M@BGNFLDN@?$AAe?$AAs?$AA?9?$AAC?$AAO@ 10026458     libucrt:lcidtoname_downlevel.obj
 0002:00005464       ??_C@_1O@JMPHMAMC@?$AAs?$AAm?$AAn?$AA?9?$AAF?$AAI@ 10026464     libucrt:lcidtoname_downlevel.obj
 0002:00005474       ??_C@_1M@JLANABKE@?$AAa?$AAr?$AA?9?$AAS?$AAY@ 10026474     libucrt:lcidtoname_downlevel.obj
 0002:00005480       ??_C@_1M@HPKGCFGN@?$AAe?$AAn?$AA?9?$AAB?$AAZ@ 10026480     libucrt:lcidtoname_downlevel.obj
 0002:0000548c       ??_C@_1M@OLJCMLGM@?$AAe?$AAs?$AA?9?$AAP?$AAE@ 1002648c     libucrt:lcidtoname_downlevel.obj
 0002:00005498       ??_C@_1M@MKKGFKLE@?$AAa?$AAr?$AA?9?$AAJ?$AAO@ 10026498     libucrt:lcidtoname_downlevel.obj
 0002:000054a4       ??_C@_1M@EKPGLDNI@?$AAe?$AAn?$AA?9?$AAT?$AAT@ 100264a4     libucrt:lcidtoname_downlevel.obj
 0002:000054b0       ??_C@_1M@OONGHFHE@?$AAe?$AAs?$AA?9?$AAA?$AAR@ 100264b0     libucrt:lcidtoname_downlevel.obj
 0002:000054bc       ??_C@_1M@OOJFGBHE@?$AAa?$AAr?$AA?9?$AAL?$AAB@ 100264bc     libucrt:lcidtoname_downlevel.obj
 0002:000054c8       ??_C@_1M@GCEJHNEG@?$AAe?$AAn?$AA?9?$AAZ?$AAW@ 100264c8     libucrt:lcidtoname_downlevel.obj
 0002:000054d4       ??_C@_1M@JNOCAHJI@?$AAe?$AAs?$AA?9?$AAE?$AAC@ 100264d4     libucrt:lcidtoname_downlevel.obj
 0002:000054e0       ??_C@_1M@JEFHPGGB@?$AAa?$AAr?$AA?9?$AAK?$AAW@ 100264e0     libucrt:lcidtoname_downlevel.obj
 0002:000054ec       ??_C@_1M@MLKIBJOJ@?$AAe?$AAn?$AA?9?$AAP?$AAH@ 100264ec     libucrt:lcidtoname_downlevel.obj
 0002:000054f8       ??_C@_1M@BDNIPEND@?$AAe?$AAs?$AA?9?$AAC?$AAL@ 100264f8     libucrt:lcidtoname_downlevel.obj
 0002:00005504       ??_C@_1M@MPNMEKBD@?$AAa?$AAr?$AA?9?$AAA?$AAE@ 10026504     libucrt:lcidtoname_downlevel.obj
 0002:00005510       ??_C@_1M@KBJALCPI@?$AAe?$AAs?$AA?9?$AAU?$AAY@ 10026510     libucrt:lcidtoname_downlevel.obj
 0002:0000551c       ??_C@_1M@LLCCOAGA@?$AAa?$AAr?$AA?9?$AAB?$AAH@ 1002651c     libucrt:lcidtoname_downlevel.obj
 0002:00005528       ??_C@_1M@PBFNCDEL@?$AAe?$AAs?$AA?9?$AAP?$AAY@ 10026528     libucrt:lcidtoname_downlevel.obj
 0002:00005534       ??_C@_1M@EDGINPNP@?$AAa?$AAr?$AA?9?$AAQ?$AAA@ 10026534     libucrt:lcidtoname_downlevel.obj
 0002:00005540       ??_C@_1M@MKDBIIJI@?$AAe?$AAs?$AA?9?$AAB?$AAO@ 10026540     libucrt:lcidtoname_downlevel.obj
 0002:0000554c       ??_C@_1M@CPKKEBLD@?$AAe?$AAs?$AA?9?$AAS?$AAV@ 1002654c     libucrt:lcidtoname_downlevel.obj
 0002:00005558       ??_C@_1M@NDBGMMJL@?$AAe?$AAs?$AA?9?$AAH?$AAN@ 10026558     libucrt:lcidtoname_downlevel.obj
 0002:00005564       ??_C@_1M@JIJIBHDP@?$AAe?$AAs?$AA?9?$AAN?$AAI@ 10026564     libucrt:lcidtoname_downlevel.obj
 0002:00005570       ??_C@_1M@CGFMKEEK@?$AAe?$AAs?$AA?9?$AAP?$AAR@ 10026570     libucrt:lcidtoname_downlevel.obj
 0002:0000557c       ??_C@_1O@ICJHKIIK@?$AAz?$AAh?$AA?9?$AAC?$AAH?$AAT@ 1002657c     libucrt:lcidtoname_downlevel.obj
 0002:0000558c       ??_C@_15CLNEJCE@?$AAs?$AAr@ 1002658c     libucrt:lcidtoname_downlevel.obj
 0002:00005cb8       ??_C@_1M@KAHEKEIG@?$AAa?$AAf?$AA?9?$AAz?$AAa@ 10026cb8     libucrt:lcidtoname_downlevel.obj
 0002:00005cc4       ??_C@_1M@GIECOABL@?$AAa?$AAr?$AA?9?$AAa?$AAe@ 10026cc4     libucrt:lcidtoname_downlevel.obj
 0002:00005cd0       ??_C@_1M@BMLMEKGI@?$AAa?$AAr?$AA?9?$AAb?$AAh@ 10026cd0     libucrt:lcidtoname_downlevel.obj
 0002:00005cdc       ??_C@_1M@DAPFDGGB@?$AAa?$AAr?$AA?9?$AAd?$AAz@ 10026cdc     libucrt:lcidtoname_downlevel.obj
 0002:00005ce8       ??_C@_1M@FJNKGKIG@?$AAa?$AAr?$AA?9?$AAe?$AAg@ 10026ce8     libucrt:lcidtoname_downlevel.obj
 0002:00005cf4       ??_C@_1M@FLGKKCLO@?$AAa?$AAr?$AA?9?$AAi?$AAq@ 10026cf4     libucrt:lcidtoname_downlevel.obj
 0002:00005d00       ??_C@_1M@GNDIPALM@?$AAa?$AAr?$AA?9?$AAj?$AAo@ 10026d00     libucrt:lcidtoname_downlevel.obj
 0002:00005d0c       ??_C@_1M@DDMJFMGJ@?$AAa?$AAr?$AA?9?$AAk?$AAw@ 10026d0c     libucrt:lcidtoname_downlevel.obj
 0002:00005d18       ??_C@_1M@EJALMLHM@?$AAa?$AAr?$AA?9?$AAl?$AAb@ 10026d18     libucrt:lcidtoname_downlevel.obj
 0002:00005d24       ??_C@_1M@MOBDBLOC@?$AAa?$AAr?$AA?9?$AAl?$AAy@ 10026d24     libucrt:lcidtoname_downlevel.obj
 0002:00005d30       ??_C@_1M@JAOCLHDH@?$AAa?$AAr?$AA?9?$AAm?$AAa@ 10026d30     libucrt:lcidtoname_downlevel.obj
 0002:00005d3c       ??_C@_1M@JHPMKJIE@?$AAa?$AAr?$AA?9?$AAo?$AAm@ 10026d3c     libucrt:lcidtoname_downlevel.obj
 0002:00005d48       ??_C@_1M@OEPGHFNH@?$AAa?$AAr?$AA?9?$AAq?$AAa@ 10026d48     libucrt:lcidtoname_downlevel.obj
 0002:00005d54       ??_C@_1M@KJDONENM@?$AAa?$AAr?$AA?9?$AAs?$AAa@ 10026d54     libucrt:lcidtoname_downlevel.obj
 0002:00005d60       ??_C@_1M@DMJDKLKM@?$AAa?$AAr?$AA?9?$AAs?$AAy@ 10026d60     libucrt:lcidtoname_downlevel.obj
 0002:00005d6c       ??_C@_1M@OMFIPEDC@?$AAa?$AAr?$AA?9?$AAt?$AAn@ 10026d6c     libucrt:lcidtoname_downlevel.obj
 0002:00005d78       ??_C@_1M@IHMHGAON@?$AAa?$AAr?$AA?9?$AAy?$AAe@ 10026d78     libucrt:lcidtoname_downlevel.obj
 0002:00005d84       ??_C@_1BG@KDCPGJGB@?$AAa?$AAz?$AA?9?$AAa?$AAz?$AA?9?$AAc?$AAy?$AAr?$AAl@ 10026d84     libucrt:lcidtoname_downlevel.obj
 0002:00005d9c       ??_C@_1BG@IBCKDDOE@?$AAa?$AAz?$AA?9?$AAa?$AAz?$AA?9?$AAl?$AAa?$AAt?$AAn@ 10026d9c     libucrt:lcidtoname_downlevel.obj
 0002:00005db4       ??_C@_1M@EGPFDCPD@?$AAb?$AAe?$AA?9?$AAb?$AAy@ 10026db4     libucrt:lcidtoname_downlevel.obj
 0002:00005dc0       ??_C@_1M@PCMGMCGC@?$AAb?$AAg?$AA?9?$AAb?$AAg@ 10026dc0     libucrt:lcidtoname_downlevel.obj
 0002:00005dcc       ??_C@_1M@BJBMFGOB@?$AAb?$AAn?$AA?9?$AAi?$AAn@ 10026dcc     libucrt:lcidtoname_downlevel.obj
 0002:00005dd8       ??_C@_1BG@EAKMMACD@?$AAb?$AAs?$AA?9?$AAb?$AAa?$AA?9?$AAl?$AAa?$AAt?$AAn@ 10026dd8     libucrt:lcidtoname_downlevel.obj
 0002:00005df0       ??_C@_1M@KGADAODK@?$AAc?$AAa?$AA?9?$AAe?$AAs@ 10026df0     libucrt:lcidtoname_downlevel.obj
 0002:00005dfc       ??_C@_1M@COAJPDHI@?$AAc?$AAs?$AA?9?$AAc?$AAz@ 10026dfc     libucrt:lcidtoname_downlevel.obj
 0002:00005e08       ??_C@_1M@DHBHFONH@?$AAc?$AAy?$AA?9?$AAg?$AAb@ 10026e08     libucrt:lcidtoname_downlevel.obj
 0002:00005e14       ??_C@_1M@IMGKELGA@?$AAd?$AAa?$AA?9?$AAd?$AAk@ 10026e14     libucrt:lcidtoname_downlevel.obj
 0002:00005e20       ??_C@_1M@NNDGDNGA@?$AAd?$AAe?$AA?9?$AAa?$AAt@ 10026e20     libucrt:lcidtoname_downlevel.obj
 0002:00005e2c       ??_C@_1M@IKDBHEEM@?$AAd?$AAe?$AA?9?$AAc?$AAh@ 10026e2c     libucrt:lcidtoname_downlevel.obj
 0002:00005e38       ??_C@_1M@GFFOJMCJ@?$AAd?$AAe?$AA?9?$AAd?$AAe@ 10026e38     libucrt:lcidtoname_downlevel.obj
 0002:00005e44       ??_C@_1M@MDNLKBPM@?$AAd?$AAe?$AA?9?$AAl?$AAi@ 10026e44     libucrt:lcidtoname_downlevel.obj
 0002:00005e50       ??_C@_1M@NJBEEJNL@?$AAd?$AAe?$AA?9?$AAl?$AAu@ 10026e50     libucrt:lcidtoname_downlevel.obj
 0002:00005e5c       ??_C@_1O@GNNELBAP@?$AAd?$AAi?$AAv?$AA?9?$AAm?$AAv@ 10026e5c     libucrt:lcidtoname_downlevel.obj
 0002:00005e6c       ??_C@_1M@EJLEOGAE@?$AAe?$AAl?$AA?9?$AAg?$AAr@ 10026e6c     libucrt:lcidtoname_downlevel.obj
 0002:00005e78       ??_C@_1M@GMPONJN@?$AAe?$AAn?$AA?9?$AAa?$AAu@ 10026e78     libucrt:lcidtoname_downlevel.obj
 0002:00005e84       ??_C@_1M@NIDIIPGF@?$AAe?$AAn?$AA?9?$AAb?$AAz@ 10026e84     libucrt:lcidtoname_downlevel.obj
 0002:00005e90       ??_C@_1M@JEHMIMFO@?$AAe?$AAn?$AA?9?$AAc?$AAa@ 10026e90     libucrt:lcidtoname_downlevel.obj
 0002:00005e9c       ??_C@_1M@IGMJCDLA@?$AAe?$AAn?$AA?9?$AAc?$AAb@ 10026e9c     libucrt:lcidtoname_downlevel.obj
 0002:00005ea8       ??_C@_1M@BNFIGBKG@?$AAe?$AAn?$AA?9?$AAg?$AAb@ 10026ea8     libucrt:lcidtoname_downlevel.obj
 0002:00005eb4       ??_C@_1M@LKIFDIGP@?$AAe?$AAn?$AA?9?$AAi?$AAe@ 10026eb4     libucrt:lcidtoname_downlevel.obj
 0002:00005ec0       ??_C@_1M@PJKFGCCO@?$AAe?$AAn?$AA?9?$AAj?$AAm@ 10026ec0     libucrt:lcidtoname_downlevel.obj
 0002:00005ecc       ??_C@_1M@KPPKEPBO@?$AAe?$AAn?$AA?9?$AAn?$AAz@ 10026ecc     libucrt:lcidtoname_downlevel.obj
 0002:00005ed8       ??_C@_1M@GMDGLDOB@?$AAe?$AAn?$AA?9?$AAp?$AAh@ 10026ed8     libucrt:lcidtoname_downlevel.obj
 0002:00005ee4       ??_C@_1M@ONGIBJNA@?$AAe?$AAn?$AA?9?$AAt?$AAt@ 10026ee4     libucrt:lcidtoname_downlevel.obj
 0002:00005ef0       ??_C@_1M@LLODPCMM@?$AAe?$AAn?$AA?9?$AAu?$AAs@ 10026ef0     libucrt:lcidtoname_downlevel.obj
 0002:00005efc       ??_C@_1M@LAKFNPAN@?$AAe?$AAn?$AA?9?$AAz?$AAa@ 10026efc     libucrt:lcidtoname_downlevel.obj
 0002:00005f08       ??_C@_1M@MFNHNHEO@?$AAe?$AAn?$AA?9?$AAz?$AAw@ 10026f08     libucrt:lcidtoname_downlevel.obj
 0002:00005f14       ??_C@_1M@EJEINPHM@?$AAe?$AAs?$AA?9?$AAa?$AAr@ 10026f14     libucrt:lcidtoname_downlevel.obj
 0002:00005f20       ??_C@_1M@GNKPCCJA@?$AAe?$AAs?$AA?9?$AAb?$AAo@ 10026f20     libucrt:lcidtoname_downlevel.obj
 0002:00005f2c       ??_C@_1M@LEEGFONL@?$AAe?$AAs?$AA?9?$AAc?$AAl@ 10026f2c     libucrt:lcidtoname_downlevel.obj
 0002:00005f38       ??_C@_1M@KGPDPBDF@?$AAe?$AAs?$AA?9?$AAc?$AAo@ 10026f38     libucrt:lcidtoname_downlevel.obj
 0002:00005f44       ??_C@_1M@EIAHOHH@?$AAe?$AAs?$AA?9?$AAc?$AAr@ 10026f44     libucrt:lcidtoname_downlevel.obj
 0002:00005f50       ??_C@_1M@LLPGMBIN@?$AAe?$AAs?$AA?9?$AAd?$AAo@ 10026f50     libucrt:lcidtoname_downlevel.obj
 0002:00005f5c       ??_C@_1M@DKHMKNJA@?$AAe?$AAs?$AA?9?$AAe?$AAc@ 10026f5c     libucrt:lcidtoname_downlevel.obj
 0002:00005f68       ??_C@_1M@GKGFPKAP@?$AAe?$AAs?$AA?9?$AAe?$AAs@ 10026f68     libucrt:lcidtoname_downlevel.obj
 0002:00005f74       ??_C@_1M@LKHKGDLN@?$AAe?$AAs?$AA?9?$AAg?$AAt@ 10026f74     libucrt:lcidtoname_downlevel.obj
 0002:00005f80       ??_C@_1M@HEIIGGJD@?$AAe?$AAs?$AA?9?$AAh?$AAn@ 10026f80     libucrt:lcidtoname_downlevel.obj
 0002:00005f8c       ??_C@_1M@FBDHPPGD@?$AAe?$AAs?$AA?9?$AAm?$AAx@ 10026f8c     libucrt:lcidtoname_downlevel.obj
 0002:00005f98       ??_C@_1M@DPAGLNDH@?$AAe?$AAs?$AA?9?$AAn?$AAi@ 10026f98     libucrt:lcidtoname_downlevel.obj
 0002:00005fa4       ??_C@_1M@MDGOPGDD@?$AAe?$AAs?$AA?9?$AAp?$AAa@ 10026fa4     libucrt:lcidtoname_downlevel.obj
 0002:00005fb0       ??_C@_1M@EMAMGBGE@?$AAe?$AAs?$AA?9?$AAp?$AAe@ 10026fb0     libucrt:lcidtoname_downlevel.obj
 0002:00005fbc       ??_C@_1M@IBMCAOEC@?$AAe?$AAs?$AA?9?$AAp?$AAr@ 10026fbc     libucrt:lcidtoname_downlevel.obj
 0002:00005fc8       ??_C@_1M@FGMDIJED@?$AAe?$AAs?$AA?9?$AAp?$AAy@ 10026fc8     libucrt:lcidtoname_downlevel.obj
 0002:00005fd4       ??_C@_1M@IIDEOLLL@?$AAe?$AAs?$AA?9?$AAs?$AAv@ 10026fd4     libucrt:lcidtoname_downlevel.obj
 0002:00005fe0       ??_C@_1M@GAOBIPA@?$AAe?$AAs?$AA?9?$AAu?$AAy@ 10026fe0     libucrt:lcidtoname_downlevel.obj
 0002:00005fec       ??_C@_1M@JKFFICHJ@?$AAe?$AAs?$AA?9?$AAv?$AAe@ 10026fec     libucrt:lcidtoname_downlevel.obj
 0002:00005ff8       ??_C@_1M@PNMLOJDF@?$AAe?$AAt?$AA?9?$AAe?$AAe@ 10026ff8     libucrt:lcidtoname_downlevel.obj
 0002:00006004       ??_C@_1M@GHHLIKEI@?$AAe?$AAu?$AA?9?$AAe?$AAs@ 10027004     libucrt:lcidtoname_downlevel.obj
 0002:00006010       ??_C@_1M@PBNONODE@?$AAf?$AAa?$AA?9?$AAi?$AAr@ 10027010     libucrt:lcidtoname_downlevel.obj
 0002:0000601c       ??_C@_1M@JEEHPMIL@?$AAf?$AAi?$AA?9?$AAf?$AAi@ 1002701c     libucrt:lcidtoname_downlevel.obj
 0002:00006028       ??_C@_1M@LMDCNDBA@?$AAf?$AAo?$AA?9?$AAf?$AAo@ 10027028     libucrt:lcidtoname_downlevel.obj
 0002:00006034       ??_C@_1M@JKEOHLDK@?$AAf?$AAr?$AA?9?$AAb?$AAe@ 10027034     libucrt:lcidtoname_downlevel.obj
 0002:00006040       ??_C@_1M@NOHADPMI@?$AAf?$AAr?$AA?9?$AAc?$AAa@ 10027040     libucrt:lcidtoname_downlevel.obj
 0002:0000604c       ??_C@_1M@KDHIHAEC@?$AAf?$AAr?$AA?9?$AAc?$AAh@ 1002704c     libucrt:lcidtoname_downlevel.obj
 0002:00006058       ??_C@_1M@MMBBFGAK@?$AAf?$AAr?$AA?9?$AAf?$AAr@ 10027058     libucrt:lcidtoname_downlevel.obj
 0002:00006064       ??_C@_1M@PAFNENNF@?$AAf?$AAr?$AA?9?$AAl?$AAu@ 10027064     libucrt:lcidtoname_downlevel.obj
 0002:00006070       ??_C@_1M@EOHDJGDD@?$AAf?$AAr?$AA?9?$AAm?$AAc@ 10027070     libucrt:lcidtoname_downlevel.obj
 0002:0000607c       ??_C@_1M@FAPLLOPF@?$AAg?$AAl?$AA?9?$AAe?$AAs@ 1002707c     libucrt:lcidtoname_downlevel.obj
 0002:00006088       ??_C@_1M@FOPBFLOO@?$AAg?$AAu?$AA?9?$AAi?$AAn@ 10027088     libucrt:lcidtoname_downlevel.obj
 0002:00006094       ??_C@_1M@KBMCINPM@?$AAh?$AAe?$AA?9?$AAi?$AAl@ 10027094     libucrt:lcidtoname_downlevel.obj
 0002:000060a0       ??_C@_1M@BBPHKFPJ@?$AAh?$AAi?$AA?9?$AAi?$AAn@ 100270a0     libucrt:lcidtoname_downlevel.obj
 0002:000060ac       ??_C@_1M@PMBNDPHD@?$AAh?$AAr?$AA?9?$AAb?$AAa@ 100270ac     libucrt:lcidtoname_downlevel.obj
 0002:000060b8       ??_C@_1M@BPCKOEGE@?$AAh?$AAr?$AA?9?$AAh?$AAr@ 100270b8     libucrt:lcidtoname_downlevel.obj
 0002:000060c4       ??_C@_1M@GACBMHKE@?$AAh?$AAu?$AA?9?$AAh?$AAu@ 100270c4     libucrt:lcidtoname_downlevel.obj
 0002:000060d0       ??_C@_1M@MILPAJJC@?$AAh?$AAy?$AA?9?$AAa?$AAm@ 100270d0     libucrt:lcidtoname_downlevel.obj
 0002:000060dc       ??_C@_1M@BABBICEC@?$AAi?$AAd?$AA?9?$AAi?$AAd@ 100270dc     libucrt:lcidtoname_downlevel.obj
 0002:000060e8       ??_C@_1M@BIKNHHPF@?$AAi?$AAs?$AA?9?$AAi?$AAs@ 100270e8     libucrt:lcidtoname_downlevel.obj
 0002:000060f4       ??_C@_1M@NMPCJPHE@?$AAi?$AAt?$AA?9?$AAc?$AAh@ 100270f4     libucrt:lcidtoname_downlevel.obj
 0002:00006100       ??_C@_1M@GHKGFEDF@?$AAi?$AAt?$AA?9?$AAi?$AAt@ 10027100     libucrt:lcidtoname_downlevel.obj
 0002:0000610c       ??_C@_1M@NIEJCJJA@?$AAj?$AAa?$AA?9?$AAj?$AAp@ 1002710c     libucrt:lcidtoname_downlevel.obj
 0002:00006118       ??_C@_1M@JILFNBIM@?$AAk?$AAa?$AA?9?$AAg?$AAe@ 10027118     libucrt:lcidtoname_downlevel.obj
 0002:00006124       ??_C@_1M@PACPMGPH@?$AAk?$AAk?$AA?9?$AAk?$AAz@ 10027124     libucrt:lcidtoname_downlevel.obj
 0002:00006130       ??_C@_1M@IELFGMHA@?$AAk?$AAn?$AA?9?$AAi?$AAn@ 10027130     libucrt:lcidtoname_downlevel.obj
 0002:0000613c       ??_C@_1O@IBBJHCH@?$AAk?$AAo?$AAk?$AA?9?$AAi?$AAn@ 1002713c     libucrt:lcidtoname_downlevel.obj
 0002:0000614c       ??_C@_1M@DMHAEOGC@?$AAk?$AAo?$AA?9?$AAk?$AAr@ 1002714c     libucrt:lcidtoname_downlevel.obj
 0002:00006158       ??_C@_1M@HBAHBIGA@?$AAk?$AAy?$AA?9?$AAk?$AAg@ 10027158     libucrt:lcidtoname_downlevel.obj
 0002:00006164       ??_C@_1M@KPMILCJG@?$AAl?$AAt?$AA?9?$AAl?$AAt@ 10027164     libucrt:lcidtoname_downlevel.obj
 0002:00006170       ??_C@_1M@BDEKKCA@?$AAl?$AAv?$AA?9?$AAl?$AAv@ 10027170     libucrt:lcidtoname_downlevel.obj
 0002:0000617c       ??_C@_1M@ELCKCCJJ@?$AAm?$AAi?$AA?9?$AAn?$AAz@ 1002717c     libucrt:lcidtoname_downlevel.obj
 0002:00006188       ??_C@_1M@CBOOLAPA@?$AAm?$AAk?$AA?9?$AAm?$AAk@ 10027188     libucrt:lcidtoname_downlevel.obj
 0002:00006194       ??_C@_1M@GPHNBJKN@?$AAm?$AAl?$AA?9?$AAi?$AAn@ 10027194     libucrt:lcidtoname_downlevel.obj
 0002:000061a0       ??_C@_1M@PABJILIG@?$AAm?$AAn?$AA?9?$AAm?$AAn@ 100271a0     libucrt:lcidtoname_downlevel.obj
 0002:000061ac       ??_C@_1M@FGBKKIPG@?$AAm?$AAr?$AA?9?$AAi?$AAn@ 100271ac     libucrt:lcidtoname_downlevel.obj
 0002:000061b8       ??_C@_1M@NDBPDDAL@?$AAm?$AAs?$AA?9?$AAb?$AAn@ 100271b8     libucrt:lcidtoname_downlevel.obj
 0002:000061c4       ??_C@_1M@OPIHOOPI@?$AAm?$AAs?$AA?9?$AAm?$AAy@ 100271c4     libucrt:lcidtoname_downlevel.obj
 0002:000061d0       ??_C@_1M@PPDBCNFM@?$AAm?$AAt?$AA?9?$AAm?$AAt@ 100271d0     libucrt:lcidtoname_downlevel.obj
 0002:000061dc       ??_C@_1M@KDJDKMDD@?$AAn?$AAb?$AA?9?$AAn?$AAo@ 100271dc     libucrt:lcidtoname_downlevel.obj
 0002:000061e8       ??_C@_1M@KFCFLMJP@?$AAn?$AAl?$AA?9?$AAb?$AAe@ 100271e8     libucrt:lcidtoname_downlevel.obj
 0002:000061f4       ??_C@_1M@KPOPDDGO@?$AAn?$AAl?$AA?9?$AAn?$AAl@ 100271f4     libucrt:lcidtoname_downlevel.obj
 0002:00006200       ??_C@_1M@LJKPEMLN@?$AAn?$AAn?$AA?9?$AAn?$AAo@ 10027200     libucrt:lcidtoname_downlevel.obj
 0002:0000620c       ??_C@_1M@BDGHHBFL@?$AAn?$AAs?$AA?9?$AAz?$AAa@ 1002720c     libucrt:lcidtoname_downlevel.obj
 0002:00006218       ??_C@_1M@IDEHOAP@?$AAp?$AAa?$AA?9?$AAi?$AAn@ 10027218     libucrt:lcidtoname_downlevel.obj
 0002:00006224       ??_C@_1M@HDBKGOGH@?$AAp?$AAl?$AA?9?$AAp?$AAl@ 10027224     libucrt:lcidtoname_downlevel.obj
 0002:00006230       ??_C@_1M@LJLLCMEH@?$AAp?$AAt?$AA?9?$AAb?$AAr@ 10027230     libucrt:lcidtoname_downlevel.obj
 0002:0000623c       ??_C@_1M@NCMONAAL@?$AAp?$AAt?$AA?9?$AAp?$AAt@ 1002723c     libucrt:lcidtoname_downlevel.obj
 0002:00006248       ??_C@_1O@EAKMAJDN@?$AAq?$AAu?$AAz?$AA?9?$AAb?$AAo@ 10027248     libucrt:lcidtoname_downlevel.obj
 0002:00006258       ??_C@_1O@BHHPIGDN@?$AAq?$AAu?$AAz?$AA?9?$AAe?$AAc@ 10027258     libucrt:lcidtoname_downlevel.obj
 0002:00006268       ??_C@_1O@GBAPEKMJ@?$AAq?$AAu?$AAz?$AA?9?$AAp?$AAe@ 10027268     libucrt:lcidtoname_downlevel.obj
 0002:00006278       ??_C@_1M@CLGLEFBO@?$AAr?$AAo?$AA?9?$AAr?$AAo@ 10027278     libucrt:lcidtoname_downlevel.obj
 0002:00006284       ??_C@_1M@CEEDODME@?$AAr?$AAu?$AA?9?$AAr?$AAu@ 10027284     libucrt:lcidtoname_downlevel.obj
 0002:00006290       ??_C@_1M@HPKKKMPP@?$AAs?$AAa?$AA?9?$AAi?$AAn@ 10027290     libucrt:lcidtoname_downlevel.obj
 0002:0000629c       ??_C@_1M@BKMAIGOJ@?$AAs?$AAe?$AA?9?$AAf?$AAi@ 1002729c     libucrt:lcidtoname_downlevel.obj
 0002:000062a8       ??_C@_1M@NDPIFLFI@?$AAs?$AAe?$AA?9?$AAn?$AAo@ 100272a8     libucrt:lcidtoname_downlevel.obj
 0002:000062b4       ??_C@_1M@DANKKHJ@?$AAs?$AAe?$AA?9?$AAs?$AAe@ 100272b4     libucrt:lcidtoname_downlevel.obj
 0002:000062c0       ??_C@_1M@PNBLONPJ@?$AAs?$AAk?$AA?9?$AAs?$AAk@ 100272c0     libucrt:lcidtoname_downlevel.obj
 0002:000062cc       ??_C@_1M@LFMODOAL@?$AAs?$AAl?$AA?9?$AAs?$AAi@ 100272cc     libucrt:lcidtoname_downlevel.obj
 0002:000062d8       ??_C@_1O@DFKOMPG@?$AAs?$AAm?$AAa?$AA?9?$AAn?$AAo@ 100272d8     libucrt:lcidtoname_downlevel.obj
 0002:000062e8       ??_C@_1O@NDKPBNNH@?$AAs?$AAm?$AAa?$AA?9?$AAs?$AAe@ 100272e8     libucrt:lcidtoname_downlevel.obj
 0002:000062f8       ??_C@_1O@PLLKBHAB@?$AAs?$AAm?$AAj?$AA?9?$AAn?$AAo@ 100272f8     libucrt:lcidtoname_downlevel.obj
 0002:00006308       ??_C@_1O@CLEPOGCA@?$AAs?$AAm?$AAj?$AA?9?$AAs?$AAe@ 10027308     libucrt:lcidtoname_downlevel.obj
 0002:00006318       ??_C@_1O@DLGJGKMK@?$AAs?$AAm?$AAn?$AA?9?$AAf?$AAi@ 10027318     libucrt:lcidtoname_downlevel.obj
 0002:00006328       ??_C@_1O@OJDJGAJC@?$AAs?$AAm?$AAs?$AA?9?$AAf?$AAi@ 10027328     libucrt:lcidtoname_downlevel.obj
 0002:00006338       ??_C@_1M@BOFOGHPB@?$AAs?$AAq?$AA?9?$AAa?$AAl@ 10027338     libucrt:lcidtoname_downlevel.obj
 0002:00006344       ??_C@_1BG@LJBBIPGB@?$AAs?$AAr?$AA?9?$AAb?$AAa?$AA?9?$AAc?$AAy?$AAr?$AAl@ 10027344     libucrt:lcidtoname_downlevel.obj
 0002:0000635c       ??_C@_1BG@JLBENFOE@?$AAs?$AAr?$AA?9?$AAb?$AAa?$AA?9?$AAl?$AAa?$AAt?$AAn@ 1002735c     libucrt:lcidtoname_downlevel.obj
 0002:00006374       ??_C@_1BG@KODPNHE@?$AAs?$AAr?$AA?9?$AAs?$AAp?$AA?9?$AAc?$AAy?$AAr?$AAl@ 10027374     libucrt:lcidtoname_downlevel.obj
 0002:0000638c       ??_C@_1BG@CIOGKHPB@?$AAs?$AAr?$AA?9?$AAs?$AAp?$AA?9?$AAl?$AAa?$AAt?$AAn@ 1002738c     libucrt:lcidtoname_downlevel.obj
 0002:000063a4       ??_C@_1M@NGFJLMAC@?$AAs?$AAv?$AA?9?$AAf?$AAi@ 100273a4     libucrt:lcidtoname_downlevel.obj
 0002:000063b0       ??_C@_1M@MPJEJAJC@?$AAs?$AAv?$AA?9?$AAs?$AAe@ 100273b0     libucrt:lcidtoname_downlevel.obj
 0002:000063bc       ??_C@_1M@MPNDHLFK@?$AAs?$AAw?$AA?9?$AAk?$AAe@ 100273bc     libucrt:lcidtoname_downlevel.obj
 0002:000063c8       ??_C@_1O@KOHBJJI@?$AAs?$AAy?$AAr?$AA?9?$AAs?$AAy@ 100273c8     libucrt:lcidtoname_downlevel.obj
 0002:000063d8       ??_C@_1M@LDCEFHA@?$AAt?$AAa?$AA?9?$AAi?$AAn@ 100273d8     libucrt:lcidtoname_downlevel.obj
 0002:000063e4       ??_C@_1M@CNJOFAK@?$AAt?$AAe?$AA?9?$AAi?$AAn@ 100273e4     libucrt:lcidtoname_downlevel.obj
 0002:000063f0       ??_C@_1M@GNAECACD@?$AAt?$AAh?$AA?9?$AAt?$AAh@ 100273f0     libucrt:lcidtoname_downlevel.obj
 0002:000063fc       ??_C@_1M@CHBIHOJO@?$AAt?$AAn?$AA?9?$AAz?$AAa@ 100273fc     libucrt:lcidtoname_downlevel.obj
 0002:00006408       ??_C@_1M@GCCMIGPJ@?$AAt?$AAr?$AA?9?$AAt?$AAr@ 10027408     libucrt:lcidtoname_downlevel.obj
 0002:00006414       ??_C@_1M@CELMCNBK@?$AAt?$AAt?$AA?9?$AAr?$AAu@ 10027414     libucrt:lcidtoname_downlevel.obj
 0002:00006420       ??_C@_1M@KLMCELGA@?$AAu?$AAk?$AA?9?$AAu?$AAa@ 10027420     libucrt:lcidtoname_downlevel.obj
 0002:0000642c       ??_C@_1M@EPAJJAJF@?$AAu?$AAr?$AA?9?$AAp?$AAk@ 1002742c     libucrt:lcidtoname_downlevel.obj
 0002:00006438       ??_C@_1BG@GEGPMCDJ@?$AAu?$AAz?$AA?9?$AAu?$AAz?$AA?9?$AAc?$AAy?$AAr?$AAl@ 10027438     libucrt:lcidtoname_downlevel.obj
 0002:00006450       ??_C@_1BG@EGGKJILM@?$AAu?$AAz?$AA?9?$AAu?$AAz?$AA?9?$AAl?$AAa?$AAt?$AAn@ 10027450     libucrt:lcidtoname_downlevel.obj
 0002:00006468       ??_C@_1M@GFOCLFF@?$AAv?$AAi?$AA?9?$AAv?$AAn@ 10027468     libucrt:lcidtoname_downlevel.obj
 0002:00006474       ??_C@_1M@CPAMEDFI@?$AAx?$AAh?$AA?9?$AAz?$AAa@ 10027474     libucrt:lcidtoname_downlevel.obj
 0002:00006480       ??_C@_1O@EBKIFIGN@?$AAz?$AAh?$AA?9?$AAc?$AAh?$AAs@ 10027480     libucrt:lcidtoname_downlevel.obj
 0002:00006490       ??_C@_1O@NMHPGANE@?$AAz?$AAh?$AA?9?$AAc?$AAh?$AAt@ 10027490     libucrt:lcidtoname_downlevel.obj
 0002:000064a0       ??_C@_1M@LPINJOMC@?$AAz?$AAh?$AA?9?$AAc?$AAn@ 100274a0     libucrt:lcidtoname_downlevel.obj
 0002:000064ac       ??_C@_1M@OCJEJODD@?$AAz?$AAh?$AA?9?$AAh?$AAk@ 100274ac     libucrt:lcidtoname_downlevel.obj
 0002:000064b8       ??_C@_1M@DNDLJINH@?$AAz?$AAh?$AA?9?$AAm?$AAo@ 100274b8     libucrt:lcidtoname_downlevel.obj
 0002:000064c4       ??_C@_1M@MBFDNDND@?$AAz?$AAh?$AA?9?$AAs?$AAg@ 100274c4     libucrt:lcidtoname_downlevel.obj
 0002:000064d0       ??_C@_1M@IMEPLEPE@?$AAz?$AAh?$AA?9?$AAt?$AAw@ 100274d0     libucrt:lcidtoname_downlevel.obj
 0002:000064dc       ??_C@_1M@BBGHNHJP@?$AAz?$AAu?$AA?9?$AAz?$AAa@ 100274dc     libucrt:lcidtoname_downlevel.obj
 0002:000064e8       ?large_power_data@?1??multiply_by_power_of_ten@__crt_strtox@@YA_NAAUbig_integer@2@I@Z@4QBIB 100274e8     libucrt:cfout.obj
 0002:00006df0       ?large_power_indices@?1??multiply_by_power_of_ten@__crt_strtox@@YA_NAAUbig_integer@2@I@Z@4QBUunpack_index@?1??12@YA_N0I@Z@B 10027df0     libucrt:cfout.obj
 0002:00006e88       ?small_powers_of_ten@?1??multiply_by_power_of_ten@__crt_strtox@@YA_NAAUbig_integer@2@I@Z@4QBIB 10027e88     libucrt:cfout.obj
 0002:00006eac       ??_C@_01GBGANLPD@0@        10027eac     libucrt:cfout.obj
 0002:00006eb0       ??_C@_05DNEBIAHO@1?$CDINF@ 10027eb0     libucrt:cfout.obj
 0002:00006eb8       ??_C@_06IMKFLFPG@1?$CDQNAN@ 10027eb8     libucrt:cfout.obj
 0002:00006ec0       ??_C@_06PGGFOGJG@1?$CDSNAN@ 10027ec0     libucrt:cfout.obj
 0002:00006ec8       ??_C@_05PHHOCPM@1?$CDIND@  10027ec8     libucrt:cfout.obj
 0002:00007030       __infinity                 10028030     libucrt:87tran.obj
 0002:0000703a       __minfinity                1002803a     libucrt:87tran.obj
 0002:00007044       __logemax                  10028044     libucrt:87tran.obj
 0002:0000706a       __OP_EXPjmptab             1002806a     libucrt:87tran.obj
 0002:00007090       __indefinite               10028090     libucrt:87disp.obj
 0002:0000709a       __piby2                    1002809a     libucrt:87disp.obj
 0002:000070a4       __piby4                    100280a4     libucrt:87disp.obj
 0002:000070d8       __DEFAULT_CW_in_mem        100280d8     libucrt:common.obj
 0002:000070da       __pi_by_2_to_61            100280da     libucrt:common.obj
 0002:00007114       ??_C@_03MGHMBJCF@log@      10028114     libucrt:libm_error.obj
 0002:00007118       ??_C@_05HGHHAHAP@log10@    10028118     libucrt:libm_error.obj
 0002:00007120       ??_C@_03KHJOGHMM@exp@      10028120     libucrt:libm_error.obj
 0002:00007124       ??_C@_03JGHBODFD@pow@      10028124     libucrt:libm_error.obj
 0002:00007128       ??_C@_04FIHNOPOL@asin@     10028128     libucrt:libm_error.obj
 0002:00007130       ??_C@_04PDIFKINK@acos@     10028130     libucrt:libm_error.obj
 0002:00007138       ??_C@_04EIAKFFMI@sqrt@     10028138     libucrt:libm_error.obj
 0002:00007140       __real@3ff0000000000000    10028140     libucrt:libm_error.obj
 0002:00007148       ??_C@_1BA@BALFACEM@?$AAC?$AAO?$AAN?$AAO?$AAU?$AAT?$AA$@ 10028148     libucrt:initcon.obj
 0002:00007170       ___acrt_log10_table_t      10028170     libucrt:log10_tables.obj
 0002:00007580       ___acrt_log10_table_cb     10028580     libucrt:log10_tables.obj
 0002:00007990       __real@3fe0000000000000    10028990     libucrt:powhlp.obj
 0002:00007a80       ??_C@_04COOMCNPB@sinh@     10028a80     libucrt:fpexcept.obj
 0002:00007a88       ??_C@_04HPJJNFIM@cosh@     10028a88     libucrt:fpexcept.obj
 0002:00007a90       ??_C@_04FJHINJAO@tanh@     10028a90     libucrt:fpexcept.obj
 0002:00007a98       ??_C@_04MLLJIGOK@atan@     10028a98     libucrt:fpexcept.obj
 0002:00007aa0       ??_C@_05KNGEOGJB@atan2@    10028aa0     libucrt:fpexcept.obj
 0002:00007aa8       ??_C@_03BLEJJJBH@sin@      10028aa8     libucrt:fpexcept.obj
 0002:00007aac       ??_C@_03LALBNOCG@cos@      10028aac     libucrt:fpexcept.obj
 0002:00007ab0       ??_C@_03IIINPABG@tan@      10028ab0     libucrt:fpexcept.obj
 0002:00007ab4       ??_C@_04GFPJNGEK@ceil@     10028ab4     libucrt:fpexcept.obj
 0002:00007abc       ??_C@_05PBJFFIGL@floor@    10028abc     libucrt:fpexcept.obj
 0002:00007ac4       ??_C@_04ODHECPBC@fabs@     10028ac4     libucrt:fpexcept.obj
 0002:00007acc       ??_C@_04EHEDPDJG@modf@     10028acc     libucrt:fpexcept.obj
 0002:00007ad4       ??_C@_05CEJMAHNP@ldexp@    10028ad4     libucrt:fpexcept.obj
 0002:00007adc       ??_C@_05KBKMEMPO@_cabs@    10028adc     libucrt:fpexcept.obj
 0002:00007ae4       ??_C@_06MEIMCGCF@_hypot@   10028ae4     libucrt:fpexcept.obj
 0002:00007aec       ??_C@_04KEPJIHGP@fmod@     10028aec     libucrt:fpexcept.obj
 0002:00007af4       ??_C@_05GKKHEGJL@frexp@    10028af4     libucrt:fpexcept.obj
 0002:00007afc       ??_C@_03MJLDFKDL@_y0@      10028afc     libucrt:fpexcept.obj
 0002:00007b00       ??_C@_03NAKIGLHK@_y1@      10028b00     libucrt:fpexcept.obj
 0002:00007b04       ??_C@_03ONILCKOB@_yn@      10028b04     libucrt:fpexcept.obj
 0002:00007b08       ??_C@_05JGDBENOH@_logb@    10028b08     libucrt:fpexcept.obj
 0002:00007b10       ??_C@_0L@KDOEJCKC@_nextafter@ 10028b10     libucrt:fpexcept.obj
 0002:00007b20       __d_inf                    10028b20     libucrt:util.obj
 0002:00007b28       __d_max                    10028b28     libucrt:util.obj
 0002:00007b30       __d_mzero                  10028b30     libucrt:util.obj
 0002:00007ba0       __load_config_used         10028ba0     LIBCMT:loadcfg.obj
 0002:00007c80       __tls_used                 10028c80     LIBCMT:tlssup.obj
 0002:00007c98       ??_R4exception@std@@6B@    10028c98     LIBCMT:throw_bad_alloc.obj
 0002:00007cac       ??_R3exception@std@@8      10028cac     LIBCMT:throw_bad_alloc.obj
 0002:00007cbc       ??_R2exception@std@@8      10028cbc     LIBCMT:throw_bad_alloc.obj
 0002:00007cc4       ??_R1A@?0A@EA@exception@std@@8 10028cc4     LIBCMT:throw_bad_alloc.obj
 0002:00007ce0       ??_R4bad_alloc@std@@6B@    10028ce0     LIBCMT:throw_bad_alloc.obj
 0002:00007cf4       ??_R3bad_alloc@std@@8      10028cf4     LIBCMT:throw_bad_alloc.obj
 0002:00007d04       ??_R2bad_alloc@std@@8      10028d04     LIBCMT:throw_bad_alloc.obj
 0002:00007d10       ??_R1A@?0A@EA@bad_alloc@std@@8 10028d10     LIBCMT:throw_bad_alloc.obj
 0002:00007d2c       ??_R4bad_array_new_length@std@@6B@ 10028d2c     LIBCMT:throw_bad_alloc.obj
 0002:00007d40       ??_R3bad_array_new_length@std@@8 10028d40     LIBCMT:throw_bad_alloc.obj
 0002:00007d50       ??_R2bad_array_new_length@std@@8 10028d50     LIBCMT:throw_bad_alloc.obj
 0002:00007d60       ??_R1A@?0A@EA@bad_array_new_length@std@@8 10028d60     LIBCMT:throw_bad_alloc.obj
 0002:00007d7c       ??_R4type_info@@6B@        10028d7c     LIBCMT:std_type_info_static.obj
 0002:00007d90       ??_R3type_info@@8          10028d90     LIBCMT:std_type_info_static.obj
 0002:00007da0       ??_R2type_info@@8          10028da0     LIBCMT:std_type_info_static.obj
 0002:00007da8       ??_R1A@?0A@EA@type_info@@8 10028da8     LIBCMT:std_type_info_static.obj
 0002:00007dc4       ??_R4bad_exception@std@@6B@ 10028dc4     libvcruntime:frame.obj
 0002:00007dd8       ??_R3bad_exception@std@@8  10028dd8     libvcruntime:frame.obj
 0002:00007de8       ??_R2bad_exception@std@@8  10028de8     libvcruntime:frame.obj
 0002:00007df4       ??_R1A@?0A@EA@bad_exception@std@@8 10028df4     libvcruntime:frame.obj
 0002:00007e10       ___safe_se_handler_table   10028e10     <linker-defined>
 0002:0000820c       ___rtc_iaa                 1002920c     LIBCMT:initsect.obj
 0002:00008210       ___rtc_izz                 10029210     LIBCMT:initsect.obj
 0002:00008214       ___rtc_taa                 10029214     LIBCMT:initsect.obj
 0002:00008218       ___rtc_tzz                 10029218     LIBCMT:initsect.obj
 0002:0000821c       __tls_start                1002921c     LIBCMT:tlssup.obj
 0002:00008220       __Init_thread_epoch        10029220     LIBCMT:thread_safe_statics.obj
 0002:00008224       __tls_end                  10029224     LIBCMT:tlssup.obj
 0002:00008324       __TI2?AVbad_alloc@std@@    10029324     LIBCMT:throw_bad_alloc.obj
 0002:00008334       __CTA2?AVbad_alloc@std@@   10029334     LIBCMT:throw_bad_alloc.obj
 0002:00008340       __CT??_R0?AVbad_alloc@std@@@8??0bad_alloc@std@@QAE@ABV01@@Z12 10029340     LIBCMT:throw_bad_alloc.obj
 0002:0000835c       __CT??_R0?AVexception@std@@@8??0exception@std@@QAE@ABV01@@Z12 1002935c     LIBCMT:throw_bad_alloc.obj
 0002:00008378       __TI3?AVbad_array_new_length@std@@ 10029378     LIBCMT:throw_bad_alloc.obj
 0002:00008388       __CTA3?AVbad_array_new_length@std@@ 10029388     LIBCMT:throw_bad_alloc.obj
 0002:00008398       __CT??_R0?AVbad_array_new_length@std@@@8??0bad_array_new_length@std@@QAE@ABV01@@Z12 10029398     LIBCMT:throw_bad_alloc.obj
 0002:000084bc       __TI2?AVbad_exception@std@@ 100294bc     libvcruntime:frame.obj
 0002:000084cc       __CTA2?AVbad_exception@std@@ 100294cc     libvcruntime:frame.obj
 0002:000084d8       __CT??_R0?AVbad_exception@std@@@8??0bad_exception@std@@QAE@ABV01@@Z12 100294d8     libvcruntime:frame.obj
 0002:00008854       ___pobjMapEntryFirst       10029854     OposVariant.obj
 0002:00008858       ___pobjMapEntryLast        10029858     OposVariant.obj
 0002:0000890c       __IMPORT_DESCRIPTOR_KERNEL32 1002990c     kernel32:KERNEL32.dll
 0002:00008920       __IMPORT_DESCRIPTOR_USER32 10029920     user32:USER32.dll
 0002:00008934       __IMPORT_DESCRIPTOR_GDI32  10029934     gdi32:GDI32.dll
 0002:00008948       __IMPORT_DESCRIPTOR_ADVAPI32 10029948     advapi32:ADVAPI32.dll
 0002:0000895c       __IMPORT_DESCRIPTOR_ole32  1002995c     ole32:ole32.dll
 0002:00008970       __IMPORT_DESCRIPTOR_OLEAUT32 10029970     oleaut32:OLEAUT32.dll
 0002:00008984       __NULL_IMPORT_DESCRIPTOR   10029984     kernel32:KERNEL32.dll
 0003:00000000       ?s_Claim@?7??GetIDsOfNames@CComTypeInfoHolder@ATL@@QAEJABU_GUID@@PAPA_WIKPAJ@Z@4PA_WA 1002b000     POSPrinter.obj
 0003:00000018       ?s_Release@?7??GetIDsOfNames@CComTypeInfoHolder@ATL@@QAEJABU_GUID@@PAPA_WIKPAJ@Z@4PA_WA 1002b018     POSPrinter.obj
 0003:00000034       ?_tih@?$IDispatchImpl@UIOPOSPOSPrinter@@$1?IID_IOPOSPOSPrinter@@3U_GUID@@B$1?LIBID_OposPOSPrinter_CCO@@3U3@B$00$0A@VCComTypeInfoHolder@ATL@@@ATL@@1VCComTypeInfoHolder@2@A 1002b034     POSPrinter.obj
 0003:00000050       ?_tih@?$IProvideClassInfo2Impl@$1?CLSID_OPOSPOSPrinter@@3U_GUID@@B$1?DIID__IOPOSPOSPrinterEvents@@3U2@B$1?LIBID_OposPOSPrinter_CCO@@3U2@B$00$0A@VCComTypeInfoHolder@ATL@@@ATL@@1VCComTypeInfoHolder@2@A 1002b050     POSPrinter.obj
 0003:0000006c       ?vszContents@?6??Save@?$IPersistStorageImpl@VCOPOSPOSPrinter@@@ATL@@UAGJPAUIStorage@@H@Z@4PB_WB 1002b06c     POSPrinter.obj
 0003:00000070       ?rcDefault@CWindow@ATL@@2UtagRECT@@A 1002b070     POSPrinter.obj
 0003:00000080       ?wc@?1??GetWndClassInfo@?$CWindowImpl@VCOPOSPOSPrinter@@VCWindow@ATL@@V?$CWinTraits@$0FGAAAAAA@$0A@@3@@ATL@@SAAAU_ATL_WNDCLASSINFOW@3@XZ@4U43@A 1002b080     POSPrinter.obj
 0003:00000158       ?g_WindowName@@3PA_WA      1002b158     POSPrinterImpl.obj
 0003:0000017c       ?g_ControlVersion@@3JA     1002b17c     POSPrinterImpl.obj
 0003:00000180       ?g_ControlDescription@@3PADA 1002b180     POSPrinterImpl.obj
 0003:000002a4       ___scrt_native_dllmain_reason 1002b2a4     LIBCMT:utility.obj
 0003:000002a8       __Init_global_epoch        1002b2a8     LIBCMT:thread_safe_statics.obj
 0003:000002b0       ___security_cookie_complement 1002b2b0     LIBCMT:gs_cookie.obj
 0003:000002b4       ___security_cookie         1002b2b4     LIBCMT:gs_cookie.obj
 0003:000002b8       ___isa_enabled             1002b2b8     LIBCMT:cpu_disp.obj
 0003:000002d0       __NLG_Destination          1002b2d0     libvcruntime:exsup.obj
 0003:000002e8       ___abort_behavior          1002b2e8     libucrt:abort.obj
 0003:000002f8       __iob                      1002b2f8     libucrt:_file.obj
 0003:000003a0       ___acrt_initial_locale_data 1002b3a0     libucrt:nlsdata.obj
 0003:00000458       ___acrt_initial_locale_pointers 1002b458     libucrt:nlsdata.obj
 0003:00000460       ___acrt_wide_c_locale_string 1002b460     libucrt:nlsdata.obj
 0003:00000468       ___acrt_initial_multibyte_data 1002b468     libucrt:mbctype.obj
 0003:00000988       __pwctype                  1002b988     libucrt:ctype.obj
 0003:0000098c       ___globallocalestatus      1002b98c     libucrt:glstatus.obj
 0003:00000990       ___acrt_lconv_c            1002b990     libucrt:localeconv.obj
 0003:000009e0       ___acrt_lconv_static_decimal 1002b9e0     libucrt:localeconv.obj
 0003:000009e4       ___acrt_lconv_static_W_decimal 1002b9e4     libucrt:localeconv.obj
 0003:000009f0       __lookuptrailbytes         1002b9f0     libucrt:read.obj
 0003:00000b00       __fltused                  1002bb00     LIBCMT:fltused.obj
 0003:00000b10       ??_R0?AVbad_alloc@std@@@8  1002bb10     LIBCMT:throw_bad_alloc.obj
 0003:00000b2c       ??_R0?AVexception@std@@@8  1002bb2c     LIBCMT:throw_bad_alloc.obj
 0003:00000b48       ??_R0?AVbad_array_new_length@std@@@8 1002bb48     LIBCMT:throw_bad_alloc.obj
 0003:00000b70       ??_R0?AVtype_info@@@8      1002bb70     LIBCMT:std_type_info_static.obj
 0003:00000b88       ??_R0?AVbad_exception@std@@@8 1002bb88     libvcruntime:frame.obj
 0003:00000ba8       ?m_bInitFailed@CAtlBaseModule@ATL@@2_NA 1002bba8     OposVariant.obj
 0003:00000bac       ?_pPerfRegFunc@ATL@@3P6AJPAUHINSTANCE__@@@ZA 1002bbac     OposVariant.obj
 0003:00000bb0       ?_pPerfUnRegFunc@ATL@@3P6AJXZA 1002bbb0     OposVariant.obj
 0003:00000bb4       ?_AtlRegisterPerUser@ATL@@3_NA 1002bbb4     OposVariant.obj
 0003:00000bb8       ?_pAtlModule@ATL@@3PAVCAtlModule@1@A 1002bbb8     OposVariant.obj
 0003:00000bbc       ?_pModule@ATL@@3PAVCComModule@1@A 1002bbbc     OposVariant.obj
 0003:00000bc0       ?_AtlComModule@ATL@@3VCAtlComModule@1@A 1002bbc0     OposVariant.obj
 0003:00000be8       ?_AtlWinModule@ATL@@3VCAtlWinModule@1@A 1002bbe8     OposVariant.obj
 0003:00000c14       ?m_libid@CAtlModule@ATL@@2U_GUID@@A 1002bc14     POSPrinter.obj
 0003:00000c24       ?_entries@?1??GetConnMap@COPOSPOSPrinter@@SAPBU_ATL_CONNMAP_ENTRY@ATL@@PAH@Z@4QBU34@B 1002bc24     POSPrinter.obj
 0003:00000c30       ?$TSS0@?1??GetConnMap@COPOSPOSPrinter@@SAPBU_ATL_CONNMAP_ENTRY@ATL@@PAH@Z@4HA 1002bc30     POSPrinter.obj
 0003:00000c38       ?_OptionsStorage@?1??__local_stdio_printf_options@@9@4_KA 1002bc38     POSPrinter.obj
 0003:00000c40       ?pfnRegDeleteKeyEx@?1??DeleteSubKey@CRegKey@ATL@@QAEJPB_W@Z@4P6GJPAUHKEY__@@0KK@ZA 1002bc40     POSPrinter.obj
 0003:00000c44       ?bInitialized@?1??DeleteSubKey@CRegKey@ATL@@QAEJPB_W@Z@4_NA 1002bc44     POSPrinter.obj
 0003:00000c48       ?_Module@@3VCComModule@ATL@@A 1002bc48     POSPrinter.obj
 0003:00000c78       ?pConnMap@?$IConnectionPointContainerImpl@VCOPOSPOSPrinter@@@ATL@@0PBU_ATL_CONNMAP_ENTRY@2@B 1002bc78     POSPrinter.obj
 0003:00000c7c       ?s_nInstances@COPOSPOSPrinter@@1HA 1002bc7c     POSPrinterImpl.obj
 0003:00000c80       ___scrt_current_native_startup_state 1002bc80     LIBCMT:utility.obj
 0003:00000c84       ___scrt_native_startup_lock 1002bc84     LIBCMT:utility.obj
 0003:00000fec       __tls_index                1002bfec     LIBCMT:tlssup.obj
 0003:00000ff4       ___isa_available           1002bff4     LIBCMT:cpu_disp.obj
 0003:00000ff8       ___favor                   1002bff8     LIBCMT:cpu_disp.obj
 0003:00000ffc       ___scrt_debugger_hook_flag 1002bffc     LIBCMT:utility_desktop.obj
 0003:00001000       ___castguard_check_failure_os_handled_fptr 1002c000     LIBCMT:guard_support.obj
 0003:00001008       ?__type_info_root_node@@3U__type_info_node@@A 1002c008     LIBCMT:tncleanup.obj
 0003:00001010       ?_OptionsStorage@?1??__local_stdio_scanf_options@@9@4_KA 1002c010     LIBCMT:default_local_stdio_options.obj
 0003:00001018       ?_AtlBaseModule@ATL@@3VCAtlBaseModule@1@A 1002c018     atls:atlbase.obj
 0003:00001050       ?__AtlThunkPool@@3PAT_SLIST_HEADER@@A 1002c050     atls:atlthunk.obj
 0003:00001068       ___@@_PchSym_@00@UztvmgUPdlipUFHUhUrmgvinvwrzgvUexgllohUzgohOmzgrevkilqPBACIAJCBDBUlyqiUcIGUhgwzucOlyq@4B2008FD98C1DD4 1002c068     atls:stdafx.obj
 0003:0000106c       ?__WinRTOutOfMemoryExceptionCallback@@3P6GPAXXZA 1002c06c     libvcruntime:ehhelpers.obj
 0003:00001070       ___pPurecall               1002c070     libvcruntime:purevirt_data.obj
 0003:000010b8       ?pArgList@UnDecorator@@0PAVReplicator@@A 1002c0b8     libvcruntime:undname.obj
 0003:000010bc       ?pZNameList@UnDecorator@@0PAVReplicator@@A 1002c0bc     libvcruntime:undname.obj
 0003:000010c0       ?pTemplateArgList@UnDecorator@@0PAVReplicator@@A 1002c0c0     libvcruntime:undname.obj
 0003:000010c4       ?gName@UnDecorator@@0PBDB  1002c0c4     libvcruntime:undname.obj
 0003:000010c8       ?name@UnDecorator@@0PBDB   1002c0c8     libvcruntime:undname.obj
 0003:000010cc       ?disableFlags@UnDecorator@@0KA 1002c0cc     libvcruntime:undname.obj
 0003:000010d0       ?fExplicitTemplateParams@UnDecorator@@0_NA 1002c0d0     libvcruntime:undname.obj
 0003:000010d1       ?fGetTemplateArgumentList@UnDecorator@@0_NA 1002c0d1     libvcruntime:undname.obj
 0003:000010d4       ?m_pGetParameter@UnDecorator@@0P6APADJ@ZA 1002c0d4     libvcruntime:undname.obj
 0003:000010d8       ?m_CHPENameOffset@UnDecorator@@0KA 1002c0d8     libvcruntime:undname.obj
 0003:000010dc       ?m_recursionLevel@UnDecorator@@0KA 1002c0dc     libvcruntime:undname.obj
 0003:00001120       ?c_exit_complete@?1???R<lambda_6e4b09c48022b2350581041d5f6b0c4c>@@QBE@XZ@4_NA 1002c120     libucrt:exit.obj
 0003:00001230       __environ_table            1002c230     libucrt:environment_initialization.obj
 0003:00001234       __wenviron_table           1002c234     libucrt:environment_initialization.obj
 0003:00001238       ___dcrt_initial_wide_environment 1002c238     libucrt:environment_initialization.obj
 0003:0000123c       ___dcrt_initial_narrow_environment 1002c23c     libucrt:environment_initialization.obj
 0003:00001240       ___acrt_atexit_table       1002c240     libucrt:onexit.obj
 0003:0000124c       ___acrt_at_quick_exit_table 1002c24c     libucrt:onexit.obj
 0003:00001340       __nstream                  1002c340     libucrt:_file.obj
 0003:00001344       ___piob                    1002c344     libucrt:_file.obj
 0003:0000134c       ___acrt_stdout_buffer      1002c34c     libucrt:_sftbuf.obj
 0003:00001350       ___acrt_stderr_buffer      1002c350     libucrt:_sftbuf.obj
 0003:00001354       ___acrt_locale_changed_data 1002c354     libucrt:wsetlocale.obj
 0003:00001358       ___acrt_current_locale_data 1002c358     libucrt:nlsdata.obj
 0003:00001360       ___pioinfo                 1002c360     libucrt:ioinit.obj
 0003:00001560       __nhandle                  1002c560     libucrt:ioinit.obj
 0003:000016bc       __mbctype                  1002c6bc     libucrt:mbctype.obj
 0003:000016c0       __mbcasemap                1002c6c0     libucrt:mbctype.obj
 0003:000016c4       ___acrt_current_multibyte_data 1002c6c4     libucrt:mbctype.obj
 0003:000016d0       __pgmptr                   1002c6d0     libucrt:argv_data.obj
 0003:000016d4       ___argc                    1002c6d4     libucrt:argv_data.obj
 0003:000016d8       ___argv                    1002c6d8     libucrt:argv_data.obj
 0003:000016dc       ___wargv                   1002c6dc     libucrt:argv_data.obj
 0003:000016e0       __acmdln                   1002c6e0     libucrt:argv_data.obj
 0003:000016e4       __wcmdln                   1002c6e4     libucrt:argv_data.obj
 0003:000016e8       ___acrt_heap               1002c6e8     libucrt:heap_handle.obj
 0003:00001704       ___acrt_lconv_static_null  1002c704     libucrt:localeconv.obj
 0003:00001708       ___acrt_lconv_static_W_null 1002c708     libucrt:localeconv.obj
 0003:00001718       ___fastflag                1002c718     libucrt:fp_flags.obj
 0003:00001720       ___dyn_tls_init_callback   1002c720     <common>
 0003:00001724       ___scrt_ucrt_dll_is_in_use 1002c724     <common>
 0003:00001728       __pmatherr                 1002c728     <common>
 0003:0000172c       ___use_sse2_mathfcns       1002c72c     <common>

 entry point at        0001:0000d4dd

 Static symbols

 0000:fffc7000       .debug$S                   10000000     OPOSPOSPrinter.exp
 0000:fffc7000       .debug$S                   10000000     advapi32:ADVAPI32.dll
 0000:fffc7000       .debug$S                   10000000     advapi32:ADVAPI32.dll
 0000:fffc7000       .debug$S                   10000000     advapi32:ADVAPI32.dll
 0000:fffc7000       .debug$S                   10000000     advapi32:ADVAPI32.dll
 0000:fffc7000       .debug$S                   10000000     advapi32:ADVAPI32.dll
 0000:fffc7000       .debug$S                   10000000     advapi32:ADVAPI32.dll
 0000:fffc7000       .debug$S                   10000000     advapi32:ADVAPI32.dll
 0000:fffc7000       .debug$S                   10000000     advapi32:ADVAPI32.dll
 0000:fffc7000       .debug$S                   10000000     advapi32:ADVAPI32.dll
 0000:fffc7000       .debug$S                   10000000     gdi32:GDI32.dll
 0000:fffc7000       .debug$S                   10000000     gdi32:GDI32.dll
 0000:fffc7000       .debug$S                   10000000     gdi32:GDI32.dll
 0000:fffc7000       .debug$S                   10000000     gdi32:GDI32.dll
 0000:fffc7000       .debug$S                   10000000     gdi32:GDI32.dll
 0000:fffc7000       .debug$S                   10000000     gdi32:GDI32.dll
 0000:fffc7000       .debug$S                   10000000     gdi32:GDI32.dll
 0000:fffc7000       .debug$S                   10000000     gdi32:GDI32.dll
 0000:fffc7000       .debug$S                   10000000     gdi32:GDI32.dll
 0000:fffc7000       .debug$S                   10000000     gdi32:GDI32.dll
 0000:fffc7000       .debug$S                   10000000     gdi32:GDI32.dll
 0000:fffc7000       .debug$S                   10000000     gdi32:GDI32.dll
 0000:fffc7000       .debug$S                   10000000     gdi32:GDI32.dll
 0000:fffc7000       .debug$S                   10000000     gdi32:GDI32.dll
 0000:fffc7000       .debug$S                   10000000     gdi32:GDI32.dll
 0000:fffc7000       .debug$S                   10000000     gdi32:GDI32.dll
 0000:fffc7000       .debug$S                   10000000     gdi32:GDI32.dll
 0000:fffc7000       .debug$S                   10000000     gdi32:GDI32.dll
 0000:fffc7000       .debug$S                   10000000     gdi32:GDI32.dll
 0000:fffc7000       .debug$S                   10000000     kernel32:KERNEL32.dll
 0000:fffc7000       .debug$S                   10000000     kernel32:KERNEL32.dll
 0000:fffc7000       .debug$S                   10000000     kernel32:KERNEL32.dll
 0000:fffc7000       .debug$S                   10000000     kernel32:KERNEL32.dll
 0000:fffc7000       .debug$S                   10000000     kernel32:KERNEL32.dll
 0000:fffc7000       .debug$S                   10000000     kernel32:KERNEL32.dll
 0000:fffc7000       .debug$S                   10000000     kernel32:KERNEL32.dll
 0000:fffc7000       .debug$S                   10000000     kernel32:KERNEL32.dll
 0000:fffc7000       .debug$S                   10000000     kernel32:KERNEL32.dll
 0000:fffc7000       .debug$S                   10000000     kernel32:KERNEL32.dll
 0000:fffc7000       .debug$S                   10000000     kernel32:KERNEL32.dll
 0000:fffc7000       .debug$S                   10000000     kernel32:KERNEL32.dll
 0000:fffc7000       .debug$S                   10000000     kernel32:KERNEL32.dll
 0000:fffc7000       .debug$S                   10000000     kernel32:KERNEL32.dll
 0000:fffc7000       .debug$S                   10000000     kernel32:KERNEL32.dll
 0000:fffc7000       .debug$S                   10000000     kernel32:KERNEL32.dll
 0000:fffc7000       .debug$S                   10000000     kernel32:KERNEL32.dll
 0000:fffc7000       .debug$S                   10000000     kernel32:KERNEL32.dll
 0000:fffc7000       .debug$S                   10000000     kernel32:KERNEL32.dll
 0000:fffc7000       .debug$S                   10000000     kernel32:KERNEL32.dll
 0000:fffc7000       .debug$S                   10000000     kernel32:KERNEL32.dll
 0000:fffc7000       .debug$S                   10000000     kernel32:KERNEL32.dll
 0000:fffc7000       .debug$S                   10000000     kernel32:KERNEL32.dll
 0000:fffc7000       .debug$S                   10000000     kernel32:KERNEL32.dll
 0000:fffc7000       .debug$S                   10000000     kernel32:KERNEL32.dll
 0000:fffc7000       .debug$S                   10000000     kernel32:KERNEL32.dll
 0000:fffc7000       .debug$S                   10000000     kernel32:KERNEL32.dll
 0000:fffc7000       .debug$S                   10000000     kernel32:KERNEL32.dll
 0000:fffc7000       .debug$S                   10000000     kernel32:KERNEL32.dll
 0000:fffc7000       .debug$S                   10000000     kernel32:KERNEL32.dll
 0000:fffc7000       .debug$S                   10000000     kernel32:KERNEL32.dll
 0000:fffc7000       .debug$S                   10000000     kernel32:KERNEL32.dll
 0000:fffc7000       .debug$S                   10000000     kernel32:KERNEL32.dll
 0000:fffc7000       .debug$S                   10000000     kernel32:KERNEL32.dll
 0000:fffc7000       .debug$S                   10000000     kernel32:KERNEL32.dll
 0000:fffc7000       .debug$S                   10000000     kernel32:KERNEL32.dll
 0000:fffc7000       .debug$S                   10000000     kernel32:KERNEL32.dll
 0000:fffc7000       .debug$S                   10000000     kernel32:KERNEL32.dll
 0000:fffc7000       .debug$S                   10000000     kernel32:KERNEL32.dll
 0000:fffc7000       .debug$S                   10000000     kernel32:KERNEL32.dll
 0000:fffc7000       .debug$S                   10000000     kernel32:KERNEL32.dll
 0000:fffc7000       .debug$S                   10000000     kernel32:KERNEL32.dll
 0000:fffc7000       .debug$S                   10000000     kernel32:KERNEL32.dll
 0000:fffc7000       .debug$S                   10000000     kernel32:KERNEL32.dll
 0000:fffc7000       .debug$S                   10000000     kernel32:KERNEL32.dll
 0000:fffc7000       .debug$S                   10000000     kernel32:KERNEL32.dll
 0000:fffc7000       .debug$S                   10000000     kernel32:KERNEL32.dll
 0000:fffc7000       .debug$S                   10000000     kernel32:KERNEL32.dll
 0000:fffc7000       .debug$S                   10000000     kernel32:KERNEL32.dll
 0000:fffc7000       .debug$S                   10000000     kernel32:KERNEL32.dll
 0000:fffc7000       .debug$S                   10000000     kernel32:KERNEL32.dll
 0000:fffc7000       .debug$S                   10000000     kernel32:KERNEL32.dll
 0000:fffc7000       .debug$S                   10000000     kernel32:KERNEL32.dll
 0000:fffc7000       .debug$S                   10000000     kernel32:KERNEL32.dll
 0000:fffc7000       .debug$S                   10000000     kernel32:KERNEL32.dll
 0000:fffc7000       .debug$S                   10000000     kernel32:KERNEL32.dll
 0000:fffc7000       .debug$S                   10000000     kernel32:KERNEL32.dll
 0000:fffc7000       .debug$S                   10000000     kernel32:KERNEL32.dll
 0000:fffc7000       .debug$S                   10000000     kernel32:KERNEL32.dll
 0000:fffc7000       .debug$S                   10000000     kernel32:KERNEL32.dll
 0000:fffc7000       .debug$S                   10000000     kernel32:KERNEL32.dll
 0000:fffc7000       .debug$S                   10000000     kernel32:KERNEL32.dll
 0000:fffc7000       .debug$S                   10000000     kernel32:KERNEL32.dll
 0000:fffc7000       .debug$S                   10000000     kernel32:KERNEL32.dll
 0000:fffc7000       .debug$S                   10000000     kernel32:KERNEL32.dll
 0000:fffc7000       .debug$S                   10000000     kernel32:KERNEL32.dll
 0000:fffc7000       .debug$S                   10000000     kernel32:KERNEL32.dll
 0000:fffc7000       .debug$S                   10000000     kernel32:KERNEL32.dll
 0000:fffc7000       .debug$S                   10000000     kernel32:KERNEL32.dll
 0000:fffc7000       .debug$S                   10000000     kernel32:KERNEL32.dll
 0000:fffc7000       .debug$S                   10000000     kernel32:KERNEL32.dll
 0000:fffc7000       .debug$S                   10000000     kernel32:KERNEL32.dll
 0000:fffc7000       .debug$S                   10000000     kernel32:KERNEL32.dll
 0000:fffc7000       .debug$S                   10000000     kernel32:KERNEL32.dll
 0000:fffc7000       .debug$S                   10000000     kernel32:KERNEL32.dll
 0000:fffc7000       .debug$S                   10000000     kernel32:KERNEL32.dll
 0000:fffc7000       .debug$S                   10000000     kernel32:KERNEL32.dll
 0000:fffc7000       .debug$S                   10000000     kernel32:KERNEL32.dll
 0000:fffc7000       .debug$S                   10000000     kernel32:KERNEL32.dll
 0000:fffc7000       .debug$S                   10000000     kernel32:KERNEL32.dll
 0000:fffc7000       .debug$S                   10000000     kernel32:KERNEL32.dll
 0000:fffc7000       .debug$S                   10000000     kernel32:KERNEL32.dll
 0000:fffc7000       .debug$S                   10000000     kernel32:KERNEL32.dll
 0000:fffc7000       .debug$S                   10000000     kernel32:KERNEL32.dll
 0000:fffc7000       .debug$S                   10000000     kernel32:KERNEL32.dll
 0000:fffc7000       .debug$S                   10000000     kernel32:KERNEL32.dll
 0000:fffc7000       .debug$S                   10000000     kernel32:KERNEL32.dll
 0000:fffc7000       .debug$S                   10000000     kernel32:KERNEL32.dll
 0000:fffc7000       .debug$S                   10000000     kernel32:KERNEL32.dll
 0000:fffc7000       .debug$S                   10000000     kernel32:KERNEL32.dll
 0000:fffc7000       .debug$S                   10000000     kernel32:KERNEL32.dll
 0000:fffc7000       .debug$S                   10000000     kernel32:KERNEL32.dll
 0000:fffc7000       .debug$S                   10000000     kernel32:KERNEL32.dll
 0000:fffc7000       .debug$S                   10000000     kernel32:KERNEL32.dll
 0000:fffc7000       .debug$S                   10000000     kernel32:KERNEL32.dll
 0000:fffc7000       .debug$S                   10000000     kernel32:KERNEL32.dll
 0000:fffc7000       .debug$S                   10000000     kernel32:KERNEL32.dll
 0000:fffc7000       .debug$S                   10000000     kernel32:KERNEL32.dll
 0000:fffc7000       .debug$S                   10000000     kernel32:KERNEL32.dll
 0000:fffc7000       .debug$S                   10000000     kernel32:KERNEL32.dll
 0000:fffc7000       .debug$S                   10000000     kernel32:KERNEL32.dll
 0000:fffc7000       .debug$S                   10000000     kernel32:KERNEL32.dll
 0000:fffc7000       .debug$S                   10000000     kernel32:KERNEL32.dll
 0000:fffc7000       .debug$S                   10000000     kernel32:KERNEL32.dll
 0000:fffc7000       .debug$S                   10000000     kernel32:KERNEL32.dll
 0000:fffc7000       .debug$S                   10000000     kernel32:KERNEL32.dll
 0000:fffc7000       .debug$S                   10000000     ole32:ole32.dll
 0000:fffc7000       .debug$S                   10000000     ole32:ole32.dll
 0000:fffc7000       .debug$S                   10000000     ole32:ole32.dll
 0000:fffc7000       .debug$S                   10000000     ole32:ole32.dll
 0000:fffc7000       .debug$S                   10000000     ole32:ole32.dll
 0000:fffc7000       .debug$S                   10000000     ole32:ole32.dll
 0000:fffc7000       .debug$S                   10000000     ole32:ole32.dll
 0000:fffc7000       .debug$S                   10000000     ole32:ole32.dll
 0000:fffc7000       .debug$S                   10000000     ole32:ole32.dll
 0000:fffc7000       .debug$S                   10000000     ole32:ole32.dll
 0000:fffc7000       .debug$S                   10000000     ole32:ole32.dll
 0000:fffc7000       .debug$S                   10000000     ole32:ole32.dll
 0000:fffc7000       .debug$S                   10000000     ole32:ole32.dll
 0000:fffc7000       .debug$S                   10000000     ole32:ole32.dll
 0000:fffc7000       .debug$S                   10000000     oleaut32:OLEAUT32.dll
 0000:fffc7000       .debug$S                   10000000     oleaut32:OLEAUT32.dll
 0000:fffc7000       .debug$S                   10000000     oleaut32:OLEAUT32.dll
 0000:fffc7000       .debug$S                   10000000     oleaut32:OLEAUT32.dll
 0000:fffc7000       .debug$S                   10000000     oleaut32:OLEAUT32.dll
 0000:fffc7000       .debug$S                   10000000     oleaut32:OLEAUT32.dll
 0000:fffc7000       .debug$S                   10000000     oleaut32:OLEAUT32.dll
 0000:fffc7000       .debug$S                   10000000     oleaut32:OLEAUT32.dll
 0000:fffc7000       .debug$S                   10000000     oleaut32:OLEAUT32.dll
 0000:fffc7000       .debug$S                   10000000     oleaut32:OLEAUT32.dll
 0000:fffc7000       .debug$S                   10000000     oleaut32:OLEAUT32.dll
 0000:fffc7000       .debug$S                   10000000     oleaut32:OLEAUT32.dll
 0000:fffc7000       .debug$S                   10000000     oleaut32:OLEAUT32.dll
 0000:fffc7000       .debug$S                   10000000     oleaut32:OLEAUT32.dll
 0000:fffc7000       .debug$S                   10000000     oleaut32:OLEAUT32.dll
 0000:fffc7000       .debug$S                   10000000     oleaut32:OLEAUT32.dll
 0000:fffc7000       .debug$S                   10000000     user32:USER32.dll
 0000:fffc7000       .debug$S                   10000000     user32:USER32.dll
 0000:fffc7000       .debug$S                   10000000     user32:USER32.dll
 0000:fffc7000       .debug$S                   10000000     user32:USER32.dll
 0000:fffc7000       .debug$S                   10000000     user32:USER32.dll
 0000:fffc7000       .debug$S                   10000000     user32:USER32.dll
 0000:fffc7000       .debug$S                   10000000     user32:USER32.dll
 0000:fffc7000       .debug$S                   10000000     user32:USER32.dll
 0000:fffc7000       .debug$S                   10000000     user32:USER32.dll
 0000:fffc7000       .debug$S                   10000000     user32:USER32.dll
 0000:fffc7000       .debug$S                   10000000     user32:USER32.dll
 0000:fffc7000       .debug$S                   10000000     user32:USER32.dll
 0000:fffc7000       .debug$S                   10000000     user32:USER32.dll
 0000:fffc7000       .debug$S                   10000000     user32:USER32.dll
 0000:fffc7000       .debug$S                   10000000     user32:USER32.dll
 0000:fffc7000       .debug$S                   10000000     user32:USER32.dll
 0000:fffc7000       .debug$S                   10000000     user32:USER32.dll
 0000:fffc7000       .debug$S                   10000000     user32:USER32.dll
 0000:fffc7000       .debug$S                   10000000     user32:USER32.dll
 0000:fffc7000       .debug$S                   10000000     user32:USER32.dll
 0000:fffc7000       .debug$S                   10000000     user32:USER32.dll
 0000:fffc7000       .debug$S                   10000000     user32:USER32.dll
 0000:fffc7000       .debug$S                   10000000     user32:USER32.dll
 0000:fffc7000       .debug$S                   10000000     user32:USER32.dll
 0000:fffc7000       .debug$S                   10000000     user32:USER32.dll
 0000:fffc7000       .debug$S                   10000000     user32:USER32.dll
 0000:fffc7000       .debug$S                   10000000     user32:USER32.dll
 0000:fffc7000       .debug$S                   10000000     user32:USER32.dll
 0000:fffc7000       .debug$S                   10000000     user32:USER32.dll
 0000:fffc7000       .debug$S                   10000000     user32:USER32.dll
 0000:fffc7000       .debug$S                   10000000     user32:USER32.dll
 0000:fffc7000       .debug$S                   10000000     user32:USER32.dll
 0000:fffc7000       .debug$S                   10000000     user32:USER32.dll
 0000:fffc7000       .debug$S                   10000000     user32:USER32.dll
 0000:fffc7000       .debug$S                   10000000     user32:USER32.dll
 0001:00000000       ??__E_AtlComModule@ATL@@YAXXZ 10001000 f   OposVariant.obj
 0001:00000016       ??__E_AtlWinModule@ATL@@YAXXZ 10001016 f   OposVariant.obj
 0001:0000002c       ??__E?pConnMap@?$IConnectionPointContainerImpl@VCOPOSPOSPrinter@@@ATL@@0PBU_ATL_CONNMAP_ENTRY@2@B@@YAXXZ 1000102c f   POSPrinter.obj
 0001:0000003a       ??__E_Module@@YAXXZ        1000103a f   POSPrinter.obj
 0001:00000064       ??__E_AtlBaseModule@ATL@@YAXXZ 10001064 f   atls:atlbase.obj
 0001:0000136e       $LN24                      1000236e     POSPrinter.obj
 0001:000058b2       $LN48                      100068b2     POSPrinter.obj
 0001:000058ca       $LN47                      100068ca     POSPrinter.obj
 0001:00007a75       $LN38                      10008a75     POSPrinter.obj
 0001:00007a8d       $LN37                      10008a8d     POSPrinter.obj
 0001:0000917d       $LN76                      1000a17d     POSPrinter.obj
 0001:00009195       $LN75                      1000a195     POSPrinter.obj
 0001:0000954e       _memcpy_s                  1000a54e f   POSPrinter.obj
 0001:0000c96d       ?find_pe_section@@YAPAU_IMAGE_SECTION_HEADER@@QAEI@Z 1000d96d f   LIBCMT:utility.obj
 0001:0000cc8c       ?__scrt_initialize_thread_safe_statics@@YAHXZ 1000dc8c f   LIBCMT:thread_safe_statics.obj
 0001:0000ccb3       ?__scrt_initialize_thread_safe_statics_platform_specific@@YAXXZ 1000dcb3 f   LIBCMT:thread_safe_statics.obj
 0001:0000cd35       ?__scrt_uninitialize_thread_safe_statics@@YAXXZ 1000dd35 f   LIBCMT:thread_safe_statics.obj
 0001:0000d0a4       __catch$??2@YAPAXIABUnothrow_t@std@@@Z$0 1000e0a4 f   LIBCMT:new_scalar_nothrow.obj
 0001:0000d0e0       $$000000                   1000e0e0     LIBCMT:sehprolg4gs.obj
 0001:0000d140       $$000000                   1000e140     LIBCMT:alloca16.obj
 0001:0000d170       $$000000                   1000e170     LIBCMT:chkstk.obj
 0001:0000d19d       ?dllmain_crt_dispatch@@YGHQAUHINSTANCE__@@KQAX@Z 1000e19d f   LIBCMT:dll_dllmain.obj
 0001:0000d1f0       ?dllmain_crt_process_attach@@YAHQAUHINSTANCE__@@QAX@Z 1000e1f0 f   LIBCMT:dll_dllmain.obj
 0001:0000d2f7       ?dllmain_crt_process_detach@@YAH_N@Z 1000e2f7 f   LIBCMT:dll_dllmain.obj
 0001:0000d3a7       ?dllmain_dispatch@@YAHQAUHINSTANCE__@@KQAX@Z 1000e3a7 f   LIBCMT:dll_dllmain.obj
 0001:0000d4b2       ?dllmain_raw@@YGHQAUHINSTANCE__@@KQAX@Z 1000e4b2 f   LIBCMT:dll_dllmain.obj
 0001:0000d830       $$000000                   1000e830     LIBCMT:sehprolg4.obj
 0001:0000d88b       ___get_entropy             1000e88b f   LIBCMT:gs_support.obj
 0001:0000db82       ??$GetProcAddressAll@P6GP6GJPAUHWND__@@IIJ@ZPAUAtlThunkData_t@@@Z@@YAP6GP6GJPAUHWND__@@IIJ@ZPAUAtlThunkData_t@@@ZPAP6GP6GJ0IIJ@Z1@Z@Z 1000eb82 f   atls:atlthunk.obj
 0001:0000db82       ??$GetProcAddressAll@P6GPAUAtlThunkData_t@@XZ@@YAP6GPAUAtlThunkData_t@@XZPAP6GPAU0@XZ@Z 1000eb82 f   atls:atlthunk.obj
 0001:0000db82       ??$GetProcAddressAll@P6GXPAUAtlThunkData_t@@@Z@@YAP6GXPAUAtlThunkData_t@@@ZPAP6GX0@Z@Z 1000eb82 f   atls:atlthunk.obj
 0001:0000db82       ??$GetProcAddressAll@P6GXPAUAtlThunkData_t@@PAXI@Z@@YAP6GXPAUAtlThunkData_t@@PAXI@ZPAP6GX01I@Z@Z 1000eb82 f   atls:atlthunk.obj
 0001:0000dc32       ?GetProcAddressSingle@@YA_NPAUHINSTANCE__@@PBDPAPAX@Z 1000ec32 f   atls:atlthunk.obj
 0001:0000dd84       ?__InitializeThunkPool@@YAHXZ 1000ed84 f   atls:atlthunk.obj
 0001:0000e1d0       _ValidateLocalCookies      1000f1d0 f   libvcruntime:chandler4.obj
 0001:0000f1fa       $LN1250                    100101fa     libvcruntime:memcmp.obj
 0001:0000f280       $$000000                   10010280     libvcruntime:memcpy.obj
 0001:0000f4e4       TrailingUpVec              100104e4     libvcruntime:memcpy.obj
 0001:0000f590       TrailingDownVec            10010590     libvcruntime:memcpy.obj
 0001:0000f800       $$000000                   10010800     libvcruntime:memset.obj
 0001:0000fe03       ?_FilterSetCurrentException@@YAKPAU_EXCEPTION_POINTERS@@E@Z 10010e03 f   libvcruntime:ehhelpers.obj
 0001:00010050       $$000000                   10011050     libvcruntime:memmove.obj
 0001:000102b4       TrailingUpVec              100112b4     libvcruntime:memmove.obj
 0001:00010360       TrailingDownVec            10011360     libvcruntime:memmove.obj
 0001:000105d0       $$000000                   100115d0     libvcruntime:exsup4.obj
 0001:0001065d       __unwind_handler4          1001165d f   libvcruntime:exsup4.obj
 0001:0001093b       ??$BuildCatchObjectHelperInternal@V__FrameHandler3@@@@YAHPAUEHExceptionRecord@@PAXPBU_s_HandlerType@@PBU_s_CatchableType@@@Z 1001193b f   libvcruntime:frame.obj
 0001:00010a79       ??$BuildCatchObjectInternal@V__FrameHandler3@@@@YAXPAUEHExceptionRecord@@PAXPBU_s_HandlerType@@PBU_s_CatchableType@@@Z 10011a79 f   libvcruntime:frame.obj
 0001:00010b12       ??$CatchIt@V__FrameHandler3@@@@YAXPAUEHExceptionRecord@@PAUEHRegistrationNode@@PAU_CONTEXT@@PAXPBU_s_FuncInfo@@PBU_s_HandlerType@@PBU_s_CatchableType@@PBU_s_TryBlockMapEntry@@H1EE@Z 10011b12 f   libvcruntime:frame.obj
 0001:00010b92       ??$FindHandler@V__FrameHandler3@@@@YAXPAUEHExceptionRecord@@PAUEHRegistrationNode@@PAU_CONTEXT@@PAXPBU_s_FuncInfo@@EH1@Z 10011b92 f   libvcruntime:frame.obj
 0001:00010f48       ??$FindHandlerForForeignException@V__FrameHandler3@@@@YAXPAUEHExceptionRecord@@PAUEHRegistrationNode@@PAU_CONTEXT@@PAXPBU_s_FuncInfo@@HH1@Z 10011f48 f   libvcruntime:frame.obj
 0001:00011260       ?CallCatchBlock@@YAPAXPAUEHExceptionRecord@@PAUEHRegistrationNode@@PAU_CONTEXT@@PBU_s_FuncInfo@@PAXHK@Z 10012260 f   libvcruntime:frame.obj
 0001:00011424       ?CallUnexpected@@YAXPBU_s_ESTypeList@@@Z 10012424 f   libvcruntime:frame.obj
 0001:00011444       __catch$?CallUnexpected@@YAXPBU_s_ESTypeList@@@Z$0 10012444 f   libvcruntime:frame.obj
 0001:00011463       ?ExFilterRethrow@@YAHPAU_EXCEPTION_POINTERS@@@Z 10012463 f   libvcruntime:frame.obj
 0001:000115ad       ?IsInExceptionSpec@@YAEPAUEHExceptionRecord@@PBU_s_ESTypeList@@@Z 100125ad f   libvcruntime:frame.obj
 0001:00011680       $$000000                   10012680     libvcruntime:lowhelpr.obj
 0001:000116d0       $$000000                   100126d0     libvcruntime:exsup.obj
 0001:000116f1       __unwind_handler           100126f1 f   libvcruntime:exsup.obj
 0001:0001180e       ?try_get_first_available_module@@YAPAUHINSTANCE__@@QBW4module_id@?A0xb97aeec8@@0@Z 1001280e f   libvcruntime:winapi_downlevel.obj
 0001:000118a8       ?try_get_function@@YAPAXW4function_id@?A0xb97aeec8@@QBDQBW4module_id@2@2@Z 100128a8 f   libvcruntime:winapi_downlevel.obj
 0001:00011f32       ??$common_tcsncpy_s@_W@@YAHQA_WIQB_WI@Z 10012f32 f   libucrt:wcsncpy_s.obj
 0001:00012008       ??$common_vsprintf@Vformat_validation_base@__crt_stdio_output@@_W@@YAH_KQA_WIQB_WQAU__crt_locale_pointers@@QAD@Z 10013008 f   libucrt:output.obj
 0001:0001218f       ??$common_vsprintf_s@_W@@YAH_KQA_WIQB_WQAU__crt_locale_pointers@@QAD@Z 1001318f f   libucrt:output.obj
 0001:000128f3       $LN48                      100138f3     libucrt:output.obj
 0001:00012dfc       $LN18                      10013dfc     libucrt:output.obj
 0001:00012e10       $LN17                      10013e10     libucrt:output.obj
 0001:0001366b       ??$?RV<lambda_03b1d95aef87969028cfba75ccab2455>@@AAV<lambda_6e4b09c48022b2350581041d5f6b0c4c>@@V<lambda_22bdf7517842c4b3e53723af5aa32b9e>@@@?$__crt_seh_guarded_call@X@@QAEX$$QAV<lambda_03b1d95aef87969028cfba75ccab2455>@@AAV<lambda_6e4b09c48022b2350581041d5f6b0c4c>@@$$QAV<lambda_22bdf7517842c4b3e53723af5aa32b9e>@@@Z 1001466b f   libucrt:exit.obj
 0001:000136b8       ??R<lambda_6e4b09c48022b2350581041d5f6b0c4c>@@QBE@XZ 100146b8 f   libucrt:exit.obj
 0001:00013792       ?atexit_exception_filter@@YAHK@Z 10014792 f   libucrt:exit.obj
 0001:000137a5       ?common_exit@@YAXHW4_crt_exit_cleanup_mode@@W4_crt_exit_return_mode@@@Z 100147a5 f   libucrt:exit.obj
 0001:00013809       ?exit_or_terminate_process@@YAXI@Z 10014809 f   libucrt:exit.obj
 0001:0001384b       ?is_managed_app@@YA_NXZ    1001484b f   libucrt:exit.obj
 0001:0001388e       ?try_cor_exit_process@@YAXI@Z 1001488e f   libucrt:exit.obj
 0001:0001391c       ??$common_configure_argv@D@@YAHW4_crt_argv_mode@@@Z 1001491c f   libucrt:argv_parsing.obj
 0001:00013a52       ??$parse_command_line@D@@YAXPADPAPAD0PAI2@Z 10014a52 f   libucrt:argv_parsing.obj
 0001:00013c20       ??$common_initialize_environment_nolock@D@@YAHXZ 10014c20 f   libucrt:environment_initialization.obj
 0001:00013c73       ??$create_environment@D@@YAQAPADQAD@Z 10014c73 f   libucrt:environment_initialization.obj
 0001:00013d43       ??$free_environment@D@@YAXQAPAD@Z 10014d43 f   libucrt:environment_initialization.obj
 0001:00013d43       ??$free_environment@_W@@YAXQAPA_W@Z 10014d43 f   libucrt:environment_initialization.obj
 0001:00013d9b       ??$uninitialize_environment_internal@D@@YAXAAPAPAD@Z 10014d9b f   libucrt:environment_initialization.obj
 0001:00013db6       ??$uninitialize_environment_internal@_W@@YAXAAPAPA_W@Z 10014db6 f   libucrt:environment_initialization.obj
 0001:00013e0d       ??$?RV<lambda_69a2805e680e0e292e8ba93315fe43a8>@@AAV<lambda_f03950bc5685219e0bcd2087efbe011e>@@V<lambda_03fcd07e894ec930e3f35da366ca99d6>@@@?$__crt_seh_guarded_call@H@@QAEH$$QAV<lambda_69a2805e680e0e292e8ba93315fe43a8>@@AAV<lambda_f03950bc5685219e0bcd2087efbe011e>@@$$QAV<lambda_03fcd07e894ec930e3f35da366ca99d6>@@@Z 10014e0d f   libucrt:onexit.obj
 0001:00013e68       ??$?RV<lambda_8e746cf0007f6ed984d6f78af1fec997>@@AAV<lambda_22ebabd17bc4fa466a2aca6d8deb888d>@@V<lambda_18ed0c0b38a6dc0daf1e7ac6d6adf05e>@@@?$__crt_seh_guarded_call@H@@QAEH$$QAV<lambda_8e746cf0007f6ed984d6f78af1fec997>@@AAV<lambda_22ebabd17bc4fa466a2aca6d8deb888d>@@$$QAV<lambda_18ed0c0b38a6dc0daf1e7ac6d6adf05e>@@@Z 10014e68 f   libucrt:onexit.obj
 0001:00013ee2       ??R<lambda_22ebabd17bc4fa466a2aca6d8deb888d>@@QBEHXZ 10014ee2 f   libucrt:onexit.obj
 0001:0001400b       ??R<lambda_f03950bc5685219e0bcd2087efbe011e>@@QBEHXZ 1001500b f   libucrt:onexit.obj
 0001:00014184       _initialize_global_variables 10015184 f   libucrt:initialization.obj
 0001:00014191       _initialize_c              10015191 f   libucrt:initialization.obj
 0001:000141ab       _initialize_environment    100151ab f   libucrt:initialization.obj
 0001:000141ab       _initialize_global_state_isolation 100151ab f   libucrt:initialization.obj
 0001:000141ab       _report_memory_leaks       100151ab f   libucrt:initialization.obj
 0001:000141ab       _uninitialize_c            100151ab f   libucrt:initialization.obj
 0001:000141ab       _uninitialize_global_state_isolation 100151ab f   libucrt:initialization.obj
 0001:000141ae       _uninitialize_environment  100151ae f   libucrt:initialization.obj
 0001:000141b6       _initialize_pointers       100151b6 f   libucrt:initialization.obj
 0001:000141e4       _uninitialize_vcruntime    100151e4 f   libucrt:initialization.obj
 0001:000141ed       _uninitialize_allocated_memory 100151ed f   libucrt:initialization.obj
 0001:00014204       _uninitialize_allocated_io_buffers 10015204 f   libucrt:initialization.obj
 0001:00014254       ??R<lambda_af42a3ee9806e9a7305d451646e05244>@@QBEXAAPAU__crt_multibyte_data@@@Z 10015254 f   libucrt:initialization.obj
 0001:00014b40       $$000000                   10015b40     libucrt:strncmp.obj
 0001:00014c2c       ??$?RV<lambda_15ade71b0218206bbe3333a0c9b79046>@@AAV<lambda_da44e0f8b0f19ba52fefafb335991732>@@V<lambda_207f2d024fc103971653565357d6cd41>@@@?$__crt_seh_guarded_call@X@@QAEX$$QAV<lambda_15ade71b0218206bbe3333a0c9b79046>@@AAV<lambda_da44e0f8b0f19ba52fefafb335991732>@@$$QAV<lambda_207f2d024fc103971653565357d6cd41>@@@Z 10015c2c f   libucrt:per_thread_data.obj
 0001:00014c7e       ??$?RV<lambda_38edbb1296d33220d7e4dd0ed76b244a>@@AAV<lambda_5ce1d447e08cb34b2473517608e21441>@@V<lambda_fb385d3da700c9147fc39e65dd577a8c>@@@?$__crt_seh_guarded_call@X@@QAEX$$QAV<lambda_38edbb1296d33220d7e4dd0ed76b244a>@@AAV<lambda_5ce1d447e08cb34b2473517608e21441>@@$$QAV<lambda_fb385d3da700c9147fc39e65dd577a8c>@@@Z 10015c7e f   libucrt:per_thread_data.obj
 0001:00014ce9       ??$?RV<lambda_6affb1475c98b40b75cdec977db92e3c>@@AAV<lambda_b8d4b9c228a6ecc3f80208dbb4b4a104>@@V<lambda_608742c3c92a14382c1684fc64f96c88>@@@?$__crt_seh_guarded_call@X@@QAEX$$QAV<lambda_6affb1475c98b40b75cdec977db92e3c>@@AAV<lambda_b8d4b9c228a6ecc3f80208dbb4b4a104>@@$$QAV<lambda_608742c3c92a14382c1684fc64f96c88>@@@Z 10015ce9 f   libucrt:per_thread_data.obj
 0001:00014d3e       ??$?RV<lambda_a7e850c220f1c8d1e6efeecdedd162c6>@@AAV<lambda_46720907175c18b6c9d2717bc0d2d362>@@V<lambda_9048902d66e8d99359bc9897bbb930a8>@@@?$__crt_seh_guarded_call@X@@QAEX$$QAV<lambda_a7e850c220f1c8d1e6efeecdedd162c6>@@AAV<lambda_46720907175c18b6c9d2717bc0d2d362>@@$$QAV<lambda_9048902d66e8d99359bc9897bbb930a8>@@@Z 10015d3e f   libucrt:per_thread_data.obj
 0001:00014d98       ?construct_ptd@@YAXQAU__acrt_ptd@@QAPAU__crt_locale_data@@@Z 10015d98 f   libucrt:per_thread_data.obj
 0001:00014e31       ?destroy_fls@@YGXPAX@Z     10015e31 f   libucrt:per_thread_data.obj
 0001:00014e52       ?destroy_ptd@@YAXQAU__acrt_ptd@@@Z 10015e52 f   libucrt:per_thread_data.obj
 0001:00014f1f       ?replace_current_thread_locale_nolock@@YAXQAU__acrt_ptd@@QAU__crt_locale_data@@@Z 10015f1f f   libucrt:per_thread_data.obj
 0001:0001532f       ?try_get_AreFileApisANSI@@YAP6GHXZXZ 1001632f f   libucrt:winapi_thunks.obj
 0001:00015349       ?try_get_LCMapStringEx@@YAP6GHPB_WK0HPA_WHPAU_nlsversioninfo@@PAXJ@ZXZ 10016349 f   libucrt:winapi_thunks.obj
 0001:00015363       ?try_get_LocaleNameToLCID@@YAP6GKPB_WK@ZXZ 10016363 f   libucrt:winapi_thunks.obj
 0001:0001537d       ?try_get_first_available_module@@YAPAUHINSTANCE__@@QBW4module_id@?A0x391cf84c@@0@Z 1001637d f   libucrt:winapi_thunks.obj
 0001:00015444       ?try_get_function@@YAPAXW4function_id@?A0x391cf84c@@QBDQBW4module_id@2@2@Z 10016444 f   libucrt:winapi_thunks.obj
 0001:00015ba7       ?fe_to_nearest@@YA_NQBN_KF@Z 10016ba7 f   libucrt:cvt.obj
 0001:00015c4a       ?fp_format_a@@YAHQBNPADIQADIH_NIQAU__crt_locale_pointers@@W4__acrt_rounding_mode@@@Z 10016c4a f   libucrt:cvt.obj
 0001:00015f59       ?fp_format_e@@YAHQBNQADI1IH_NIQAU__crt_locale_pointers@@W4__acrt_rounding_mode@@@Z 10016f59 f   libucrt:cvt.obj
 0001:00016001       ?fp_format_e_internal@@YAHQADIH_NIQAU_strflt@@1QAU__crt_locale_pointers@@@Z 10017001 f   libucrt:cvt.obj
 0001:00016149       ?fp_format_f@@YAHQBNQADI1IHQAU__crt_locale_pointers@@W4__acrt_rounding_mode@@@Z 10017149 f   libucrt:cvt.obj
 0001:000161da       ?fp_format_f_internal@@YAHQADIHQAU_strflt@@_NQAU__crt_locale_pointers@@@Z 100171da f   libucrt:cvt.obj
 0001:000162d2       ?fp_format_g@@YAHQBNQADI1IH_NIQAU__crt_locale_pointers@@@Z 100172d2 f   libucrt:cvt.obj
 0001:0001639b       ?fp_format_nan_or_infinity@@YAHW4__acrt_fp_class@@_NPADI1@Z 1001739b f   libucrt:cvt.obj
 0001:00016430       ?shift_bytes@@YAXQADI0H@Z  10017430 f   libucrt:cvt.obj
 0001:00016464       ?should_round_up@@YA_NQBN_KFW4__acrt_rounding_mode@@@Z 10017464 f   libucrt:cvt.obj
 0001:000167cd       ??$?RV<lambda_e5124f882df8998aaf41531e079ba474>@@AAV<lambda_3e16ef9562a7dcce91392c22ab16ea36>@@V<lambda_e25ca0880e6ef98be67edffd8c599615>@@@?$__crt_seh_guarded_call@X@@QAEX$$QAV<lambda_e5124f882df8998aaf41531e079ba474>@@AAV<lambda_3e16ef9562a7dcce91392c22ab16ea36>@@$$QAV<lambda_e25ca0880e6ef98be67edffd8c599615>@@@Z 100177cd f   libucrt:wsetlocale.obj
 0001:0001686d       ?initialize_inherited_file_handles_nolock@@YAXXZ 1001786d f   libucrt:ioinit.obj
 0001:00016923       ?initialize_stdio_handles_nolock@@YAXXZ 10017923 f   libucrt:ioinit.obj
 0001:00016b34       ?<lambda_invoker_cdecl>@<lambda_838c7f62c73c983481e27c09e84b0b5d>@@CAHPBX0@Z 10017b34 f   libucrt:argv_wildcards.obj
 0001:00016b4c       ??$__acrt_convert_wcs_mbs_cp@D_WV<lambda_62f6974d9771e494a5ea317cc32e971c>@@U__crt_win32_buffer_internal_dynamic_resizing@@@@YAHQBDAAV?$__crt_win32_buffer@_WU__crt_win32_buffer_internal_dynamic_resizing@@@@ABV<lambda_62f6974d9771e494a5ea317cc32e971c>@@I@Z 10017b4c f   libucrt:argv_wildcards.obj
 0001:00016bfe       ??$__acrt_convert_wcs_mbs_cp@_WDV<lambda_28bda7af82a03b66c1cb3803a755f95d>@@U__crt_win32_buffer_internal_dynamic_resizing@@@@YAHQB_WAAV?$__crt_win32_buffer@DU__crt_win32_buffer_internal_dynamic_resizing@@@@ABV<lambda_28bda7af82a03b66c1cb3803a755f95d>@@I@Z 10017bfe f   libucrt:argv_wildcards.obj
 0001:00016cea       ??$common_expand_argv_wildcards@D@@YAHQAPADQAPAPAD@Z 10017cea f   libucrt:argv_wildcards.obj
 0001:00016ed9       ??$copy_and_add_argument_to_buffer@D@@YAHQBD0IAAV?$argument_list@D@?A0x5f5c8891@@@Z 10017ed9 f   libucrt:argv_wildcards.obj
 0001:00016f8a       ??$expand_argument_wildcards@D@@YAHQAD0AAV?$argument_list@D@?A0x5f5c8891@@@Z 10017f8a f   libucrt:argv_wildcards.obj
 0001:000172d4       ?expand_if_necessary@?$argument_list@D@?A0x5f5c8891@@AAEHXZ 100182d4 f   libucrt:argv_wildcards.obj
 0001:00017366       ??$__acrt_convert_wcs_mbs_cp@_WDV<lambda_0fec1a7b3f42a53036604e18c2d5e07e>@@U__crt_win32_buffer_no_resizing@@@@YAHQB_WAAV?$__crt_win32_buffer@DU__crt_win32_buffer_no_resizing@@@@ABV<lambda_0fec1a7b3f42a53036604e18c2d5e07e>@@I@Z 10018366 f   libucrt:getmodulefilenamea.obj
 0001:00017509       ??$?RV<lambda_ceb1ee4838e85a9d631eb091e2fbe199>@@AAV<lambda_ae742caa10f662c28703da3d2ea5e57e>@@V<lambda_cd08b5d6af4937fe54fc07d0c9bf6b37>@@@?$__crt_seh_guarded_call@X@@QAEX$$QAV<lambda_ceb1ee4838e85a9d631eb091e2fbe199>@@AAV<lambda_ae742caa10f662c28703da3d2ea5e57e>@@$$QAV<lambda_cd08b5d6af4937fe54fc07d0c9bf6b37>@@@Z 10018509 f   libucrt:mbctype.obj
 0001:00017556       ??R<lambda_ae742caa10f662c28703da3d2ea5e57e>@@QBEXXZ 10018556 f   libucrt:mbctype.obj
 0001:000175d9       ?CPtoLocaleName@@YAPB_WH@Z 100185d9 f   libucrt:mbctype.obj
 0001:00017617       ?getSystemCP@@YAHH@Z       10018617 f   libucrt:mbctype.obj
 0001:00017688       ?setSBCS@@YAXPAU__crt_multibyte_data@@@Z 10018688 f   libucrt:mbctype.obj
 0001:000176ed       ?setSBUpLow@@YAXPAU__crt_multibyte_data@@@Z 100186ed f   libucrt:mbctype.obj
 0001:0001786d       ?setmbcp_internal@@YAHH_NQAU__acrt_ptd@@QAPAU__crt_multibyte_data@@@Z 1001886d f   libucrt:mbctype.obj
 0001:00017981       ?update_thread_multibyte_data_internal@@YAPAU__crt_multibyte_data@@QAU__acrt_ptd@@QAPAU1@@Z 10018981 f   libucrt:mbctype.obj
 0001:00017c6f       _memcpy_s                  10018c6f f   libucrt:cfout.obj
 0001:00017c6f       _memcpy_s                  10018c6f f   libucrt:mbctype.obj
 0001:00017cf0       ?x_ismbbtype_l@@YAHPAU__crt_locale_pointers@@IHH@Z 10018cf0 f   libucrt:ismbbyte.obj
 0001:00017eab       ?find_end_of_double_null_terminated_sequence@@YAPB_WQB_W@Z 10018eab f   libucrt:get_environment_from_os.obj
 0001:0001801a       ??$?RV<lambda_cbab9ec6f41b0180b23cc171c22676b0>@@AAV<lambda_44731a7d0e6d81c3e6aa82d741081786>@@V<lambda_4b292cb8dd18144e164572427af410ab>@@@?$__crt_seh_guarded_call@P6AXH@Z@@QAEP6AXH@Z$$QAV<lambda_cbab9ec6f41b0180b23cc171c22676b0>@@AAV<lambda_44731a7d0e6d81c3e6aa82d741081786>@@$$QAV<lambda_4b292cb8dd18144e164572427af410ab>@@@Z 1001901a f   libucrt:signal.obj
 0001:0001807e       ?get_global_action_nolock@@YAPAP6AXH@ZH@Z 1001907e f   libucrt:signal.obj
 0001:000180c0       ?siglookup@@YAPAU__crt_signal_action_t@@HQAU1@@Z 100190c0 f   libucrt:signal.obj
 0001:00018379       ??$?RV<lambda_2866be3712abc81a800a822484c830d8>@@AAV<lambda_39ca0ed439415581b5b15c265174cece>@@V<lambda_2b24c74d71094a6cd0cb82e44167d71b>@@@?$__crt_seh_guarded_call@X@@QAEX$$QAV<lambda_2866be3712abc81a800a822484c830d8>@@AAV<lambda_39ca0ed439415581b5b15c265174cece>@@$$QAV<lambda_2b24c74d71094a6cd0cb82e44167d71b>@@@Z 10019379 f   libucrt:fflush.obj
 0001:00018405       ??$?RV<lambda_2cc53f568c5a2bb6f192f930a45d44ea>@@AAV<lambda_ab61a845afdef5b7c387490eaf3616ee>@@V<lambda_c2ffc0b7726aa6be21d5f0026187e748>@@@?$__crt_seh_guarded_call@X@@QAEX$$QAV<lambda_2cc53f568c5a2bb6f192f930a45d44ea>@@AAV<lambda_ab61a845afdef5b7c387490eaf3616ee>@@$$QAV<lambda_c2ffc0b7726aa6be21d5f0026187e748>@@@Z 10019405 f   libucrt:fflush.obj
 0001:000184b1       ?common_flush_all@@YAH_N@Z 100194b1 f   libucrt:fflush.obj
 0001:000184fe       ?common_flush_all_should_try_to_flush_stream@@YA_NV__crt_stdio_stream@@QAH@Z 100194fe f   libucrt:fflush.obj
 0001:00018531       ?is_stream_flushable_or_commitable@@YA_NJ@Z 10019531 f   libucrt:fflush.obj
 0001:00018a3a       ?GetTableIndexFromLocaleName@@YAHPB_W@Z 10019a3a f   libucrt:lcidtoname_downlevel.obj
 0001:00018af0       ??R<lambda_3d301b9e52f5099be73030e1f0bf487e>@@QBEIPBD@Z 10019af0 f   libucrt:mbrtowc.obj
 0001:00018c76       ?should_round_up@@YA_NQBDHW4__acrt_has_trailing_digits@@W4__acrt_rounding_mode@@@Z 10019c76 f   libucrt:_fptostr.obj
 0001:0001aa14       ?free_crt_array_internal@@YAXQAPBXI@Z 1001ba14 f   libucrt:inittime.obj
 0001:0001b3de       ??$common_tcsncpy_s@D@@YAHQADIQBDI@Z 1001c3de f   libucrt:strncpy_s.obj
 0001:0001b4a0       $$000000                   1001c4a0     libucrt:strpbrk.obj
 0001:0001b584       ?__acrt_LCMapStringA_stat@@YAHPAU__crt_locale_pointers@@PB_WKPBDHPADHHH@Z 1001c584 f   libucrt:lcmapstringa.obj
 0001:0001b7b7       ?initialize_multibyte@@YAHXZ 1001c7b7 f   libucrt:multibyte_initializer.obj
 0001:0001b7c6       ??$?RV<lambda_9e9de3de5fa147e2223d7db92bc10aa6>@@AAV<lambda_38ce7e780aa69e748d6df282ebc68efe>@@V<lambda_8ca6da459f0f6780f1cff60fdc3d00e5>@@@?$__crt_seh_guarded_call@H@@QAEH$$QAV<lambda_9e9de3de5fa147e2223d7db92bc10aa6>@@AAV<lambda_38ce7e780aa69e748d6df282ebc68efe>@@$$QAV<lambda_8ca6da459f0f6780f1cff60fdc3d00e5>@@@Z 1001c7c6 f   libucrt:commit.obj
 0001:0001b8e5       ?write_double_translated_ansi_nolock@@YA?AUwrite_result@?A0x17268360@@HQBDI@Z 1001c8e5 f   libucrt:write.obj
 0001:0001bc91       ?write_double_translated_unicode_nolock@@YA?AUwrite_result@?A0x17268360@@QBDI@Z 1001cc91 f   libucrt:write.obj
 0001:0001bcf9       ?write_requires_double_translation_nolock@@YA_NH@Z 1001ccf9 f   libucrt:write.obj
 0001:0001bd6a       ?write_text_ansi_nolock@@YA?AUwrite_result@?A0x17268360@@HQBDI@Z 1001cd6a f   libucrt:write.obj
 0001:0001be45       ?write_text_utf16le_nolock@@YA?AUwrite_result@?A0x17268360@@HQBDI@Z 1001ce45 f   libucrt:write.obj
 0001:0001bf2e       ?write_text_utf8_nolock@@YA?AUwrite_result@?A0x17268360@@HQBDI@Z 1001cf2e f   libucrt:write.obj
 0001:0001c650       $$000000                   1001d650     libucrt:log10_impl.obj
 0001:0001c760       $$000000                   1001d760     libucrt:ceil_pentium4.obj
 0001:0001c87d       ?to_abstract_control@@YA?AW4__acrt_fenv_abstract_control@@W4__acrt_fenv_machine_sse_control@@@Z 1001d87d f   libucrt:_fenvutils.obj
 0001:0001c939       ?to_abstract_control@@YA?AW4__acrt_fenv_abstract_control@@W4__acrt_fenv_machine_x87_control@@@Z 1001d939 f   libucrt:_fenvutils.obj
 0001:0001c9f2       ?to_machine_sse_control@@YA?AW4__acrt_fenv_machine_sse_control@@W4__acrt_fenv_abstract_control@@@Z 1001d9f2 f   libucrt:_fenvutils.obj
 0001:0001cabf       ?to_machine_x87_control@@YA?AW4__acrt_fenv_machine_x87_control@@W4__acrt_fenv_abstract_control@@@Z 1001dabf f   libucrt:_fenvutils.obj
 0001:0001ce53       ??$common_lseek_nolock@_J@@YA_JH_JH@Z 1001de53 f   libucrt:lseek.obj
 0001:0001d039       ___hw_cw_sse2              1001e039 f   libucrt:ieee87.obj
 0001:0001d4bf       __hw_cw                    1001e4bf f   libucrt:ieee87.obj
 0001:0001d570       $$000000                   1001e570     libucrt:log10_pentium4.obj
 0001:0001d800       $$000000                   1001e800     libucrt:87tran.obj
 0001:0001da10       $$000000                   1001ea10     libucrt:87disp.obj
 0001:0001dc70       $$000000                   1001ec70     libucrt:common.obj
 0001:0001de00       $$000000                   1001ee00     libucrt:genexcep.obj
 0001:0001e0fc       ??$?RV<lambda_218ce3db14220d0be481dae8ef3383b6>@@AAV<lambda_628dfdc04ba53c8bfc02c9951375f3f5>@@V<lambda_57dc472bd5c9d5f3b2cbca59b8a843ae>@@@?$__crt_seh_guarded_call@H@@QAEH$$QAV<lambda_218ce3db14220d0be481dae8ef3383b6>@@AAV<lambda_628dfdc04ba53c8bfc02c9951375f3f5>@@$$QAV<lambda_57dc472bd5c9d5f3b2cbca59b8a843ae>@@@Z 1001f0fc f   libucrt:close.obj
 0001:0001e2f0       $$000000                   1001f2f0     libucrt:_strnicm.obj
 0001:0001e351       ?__dcrt_lowio_initialize_console_output@@YAXXZ 1001f351 f   libucrt:initcon.obj
 0001:0001f230       $$000000                   10020230     LIBCMT:ulldvrm.obj
 0001:0001f2d0       $$000000                   100202d0     LIBCMT:llmul.obj
 0001:0001f310       $$000000                   10020310     LIBCMT:lldvrm.obj
 0001:0001f3f0       $$000000                   100203f0     LIBCMT:llshl.obj
 0001:0001f410       $$000000                   10020410     LIBCMT:ullshr.obj
 0001:0001f430       $$000000                   10020430     LIBCMT:ftol2.obj
 0001:0001f6d0       $$000000                   100206d0     libvcruntime:strrchr.obj
 0001:0001f810       $$000000                   10020810     libvcruntime:strchr.obj
 0001:0001f9b3       __ehhandler$??2@YAPAXIABUnothrow_t@std@@@Z 100209b3 f   LIBCMT:new_scalar_nothrow.obj
 0001:0001f9d0       __ehhandler$?CallUnexpected@@YAXPBU_s_ESTypeList@@@Z 100209d0 f   libvcruntime:frame.obj
 0001:0001f9ed       ??__F_AtlComModule@ATL@@YAXXZ 100209ed f   OposVariant.obj
 0001:0001f9f7       ??__F_AtlWinModule@ATL@@YAXXZ 100209f7 f   OposVariant.obj
 0001:0001fa11       ??__F_Module@@YAXXZ        10020a11 f   POSPrinter.obj
 0001:0001fa25       ??__F_AtlBaseModule@ATL@@YAXXZ 10020a25 f   atls:atlbase.obj
 0002:00000304       ?_AtlBaseModule$initializer$@ATL@@3P6AXXZA 10021304     atls:atlbase.obj
 0002:00000308       ?_AtlComModule$initializer$@ATL@@3P6AXXZA 10021308     OposVariant.obj
 0002:0000030c       ?_AtlWinModule$initializer$@ATL@@3P6AXXZA 1002130c     OposVariant.obj
 0002:00000310       ?_Module$initializer$@@3P6AXXZA 10021310     POSPrinter.obj
 0002:00000314       ??pConnMap$initializer$@?$IConnectionPointContainerImpl@VCOPOSPOSPrinter@@@ATL@@0P6AXXZA@@3P6AXXZA 10021314     POSPrinter.obj
 0002:00000320       ?__scrt_initialize_tss_var@@3P6AHXZA 10021320     LIBCMT:thread_safe_statics.obj
 0002:00001e98       _GS_ExceptionPointers      10022e98     LIBCMT:gs_report.obj
 0002:00002028       ?tokenTable@@3QBUStringLiteral@@B 10023028     libvcruntime:undname.obj
 0002:000020a8       ?nameTable@@3QBUStringLiteral@@B 100230a8     libvcruntime:undname.obj
 0002:00002340       ?rttiTable@@3QBUStringLiteral@@B 10023340     libvcruntime:undname.obj
 0002:00002368       ?IndirectionName@@3QBUStringLiteral@@B 10023368     libvcruntime:undname.obj
 0002:00002398       ?PrefixName@@3QBUStringLiteral@@B 10023398     libvcruntime:undname.obj
 0002:000029c8       ?module_names@?A0xb97aeec8@@3QBQB_WB 100239c8     libvcruntime:winapi_downlevel.obj
 0002:00002a70       ?candidate_modules@?1??try_get_FlsAlloc@@YAP6GKP6GXPAX@Z@ZXZ@4QBW4module_id@?A0xb97aeec8@@B 10023a70     libvcruntime:winapi_downlevel.obj
 0002:00002a84       ?candidate_modules@?1??try_get_FlsFree@@YAP6GHK@ZXZ@4QBW4module_id@?A0xb97aeec8@@B 10023a84     libvcruntime:winapi_downlevel.obj
 0002:00002a94       ?candidate_modules@?1??try_get_FlsGetValue@@YAP6GPAXK@ZXZ@4QBW4module_id@?A0xb97aeec8@@B 10023a94     libvcruntime:winapi_downlevel.obj
 0002:00002aa8       ?candidate_modules@?1??try_get_FlsSetValue@@YAP6GHKPAX@ZXZ@4QBW4module_id@?A0xb97aeec8@@B 10023aa8     libvcruntime:winapi_downlevel.obj
 0002:00002abc       ?candidate_modules@?1??try_get_InitializeCriticalSectionEx@@YAP6GHPAU_RTL_CRITICAL_SECTION@@KK@ZXZ@4QBW4module_id@?A0xb97aeec8@@B 10023abc     libvcruntime:winapi_downlevel.obj
 0002:00002ae0       ?errtable@@3QBUerrentry@?A0x31fdb9ec@@B 10023ae0     libucrt:errno.obj
 0002:00003128       ___acrt_initializers       10024128     libucrt:initialization.obj
 0002:000031a8       ?module_names@?A0x391cf84c@@3QBQB_WB 100241a8     libucrt:winapi_thunks.obj
 0002:00003620       ?candidate_modules@?1??try_get_AreFileApisANSI@@YAP6GHXZXZ@4QBW4module_id@?A0x391cf84c@@B 10024620     libucrt:winapi_thunks.obj
 0002:00003634       ?candidate_modules@?1??try_get_FlsAlloc@@YAP6GKP6GXPAX@Z@ZXZ@4QBW4module_id@?A0x391cf84c@@B 10024634     libucrt:winapi_thunks.obj
 0002:0000363c       ?candidate_modules@?1??try_get_FlsFree@@YAP6GHK@ZXZ@4QBW4module_id@?A0x391cf84c@@B 1002463c     libucrt:winapi_thunks.obj
 0002:00003644       ?candidate_modules@?1??try_get_FlsGetValue@@YAP6GPAXK@ZXZ@4QBW4module_id@?A0x391cf84c@@B 10024644     libucrt:winapi_thunks.obj
 0002:0000364c       ?candidate_modules@?1??try_get_FlsSetValue@@YAP6GHKPAX@ZXZ@4QBW4module_id@?A0x391cf84c@@B 1002464c     libucrt:winapi_thunks.obj
 0002:00003654       ?candidate_modules@?1??try_get_InitializeCriticalSectionEx@@YAP6GHPAU_RTL_CRITICAL_SECTION@@KK@ZXZ@4QBW4module_id@?A0x391cf84c@@B 10024654     libucrt:winapi_thunks.obj
 0002:0000365c       ?candidate_modules@?1??try_get_LCMapStringEx@@YAP6GHPB_WK0HPA_WHPAU_nlsversioninfo@@PAXJ@ZXZ@4QBW4module_id@?A0x391cf84c@@B 1002465c     libucrt:winapi_thunks.obj
 0002:00003674       ?candidate_modules@?1??try_get_LocaleNameToLCID@@YAP6GKPB_WK@ZXZ@4QBW4module_id@?A0x391cf84c@@B 10024674     libucrt:winapi_thunks.obj
 0002:00003690       ?candidate_modules@?1??try_get_AppPolicyGetProcessTerminationMethod@@YAP6GJPAXPAW4AppPolicyProcessTerminationMethod@@@ZXZ@4QBW4module_id@?A0x391cf84c@@B 10024690     libucrt:winapi_thunks.obj
 0002:000036bc       ?candidate_modules@?1??try_get_SetThreadStackGuarantee@@YAP6GHPAK@ZXZ@4QBW4module_id@?A0x391cf84c@@B 100246bc     libucrt:winapi_thunks.obj
 0002:000036e0       ?strings@?1??fp_format_nan_or_infinity@@YAHW4__acrt_fp_class@@_NPADI1@Z@4QAY03QBDA 100246e0     libucrt:cvt.obj
 0002:00003c28       ?_mb_locale_names@@3QBQB_WB 10024c28     libucrt:mbctype.obj
 0002:00004470       ?LcidToLocaleNameTable@?A0x881e4c05@@3QBULcidToLocaleName@1@B 10025470     libucrt:lcidtoname_downlevel.obj
 0002:00005598       ?LocaleNameToIndexTable@?A0x881e4c05@@3QBULocaleNameIndex@1@B 10026598     libucrt:lcidtoname_downlevel.obj
 0002:00006ed0       LOG_name                   10027ed0     libucrt:log10_impl.obj
 0002:00006ee0       _One                       10027ee0     libucrt:ceil_pentium4.obj
 0002:00006ef0       _Bns                       10027ef0     libucrt:ceil_pentium4.obj
 0002:00006f00       _Zero                      10027f00     libucrt:ceil_pentium4.obj
 0002:00006f10       _S                         10027f10     libucrt:ceil_pentium4.obj
 0002:00006f20       _NegZero                   10027f20     libucrt:ceil_pentium4.obj
 0002:00006f30       emask                      10027f30     libucrt:log10_pentium4.obj
 0002:00006f40       CC                         10027f40     libucrt:log10_pentium4.obj
 0002:00006f50       Magic                      10027f50     libucrt:log10_pentium4.obj
 0002:00006f60       hi_mask                    10027f60     libucrt:log10_pentium4.obj
 0002:00006f70       LOG10_2                    10027f70     libucrt:log10_pentium4.obj
 0002:00006f80       place_L                    10027f80     libucrt:log10_pentium4.obj
 0002:00006fa0       One                        10027fa0     libucrt:log10_pentium4.obj
 0002:00006fb0       Zero                       10027fb0     libucrt:log10_pentium4.obj
 0002:00006fc0       Two52                      10027fc0     libucrt:log10_pentium4.obj
 0002:00006fd0       Infs                       10027fd0     libucrt:log10_pentium4.obj
 0002:00006fe0       NaN                        10027fe0     libucrt:log10_pentium4.obj
 0002:00006ff0       coeff                      10027ff0     libucrt:log10_pentium4.obj
 0002:0000704e       _log2max                   1002804e     libucrt:87tran.obj
 0002:00007058       _smallarg                  10028058     libucrt:87tran.obj
 0002:00007062       _half                      10028062     libucrt:87tran.obj
 0002:000070ae       One                        100280ae     libucrt:87disp.obj
 0002:000070b6       Three                      100280b6     libucrt:87disp.obj
 0002:000070be       XAMtoTagTab                100280be     libucrt:87disp.obj
 0002:000070d0       One                        100280d0     libucrt:common.obj
 0002:000070e4       DblMax                     100280e4     libucrt:common.obj
 0002:000070ec       DblMin                     100280ec     libucrt:common.obj
 0002:000070f4       IeeeAdjO                   100280f4     libucrt:common.obj
 0002:000070fc       IeeeAdjU                   100280fc     libucrt:common.obj
 0002:00007104       _infinity                  10028104     libucrt:common.obj
 0002:0000710c       _zero                      1002810c     libucrt:common.obj
 0002:00007158       _over                      10028158     libucrt:fpctrl.obj
 0002:00007164       _under                     10028164     libucrt:fpctrl.obj
 0002:00007998       ?_names@?1??_get_fname@@9@9 10028998     libucrt:fpexcept.obj
 0002:00007b40       two32                      10028b40     LIBCMT:ftol2.obj
 0002:00007b44       two63                      10028b44     LIBCMT:ftol2.obj
 0002:00007b48       _NaN                       10028b48     LIBCMT:ftol2.obj
 0002:00008228       __sehtable$?_AtlVerifyStackAvailable@_ATL_SAFE_ALLOCA_IMPL@ATL@@YA_NK@Z 10029228     POSPrinter.obj
 0002:00008248       __sehtable$___scrt_is_nonwritable_in_current_image 10029248     LIBCMT:utility.obj
 0002:00008264       __catchsym$??2@YAPAXIABUnothrow_t@std@@@Z$2 10029264     LIBCMT:new_scalar_nothrow.obj
 0002:00008274       __unwindtable$??2@YAPAXIABUnothrow_t@std@@@Z 10029274     LIBCMT:new_scalar_nothrow.obj
 0002:00008284       __tryblocktable$??2@YAPAXIABUnothrow_t@std@@@Z 10029284     LIBCMT:new_scalar_nothrow.obj
 0002:00008298       __ehfuncinfo$??2@YAPAXIABUnothrow_t@std@@@Z 10029298     LIBCMT:new_scalar_nothrow.obj
 0002:000082c0       __sehtable$?dllmain_crt_process_attach@@YAHQAUHINSTANCE__@@QAX@Z 100292c0     LIBCMT:dll_dllmain.obj
 0002:000082e0       __sehtable$?dllmain_crt_process_detach@@YAH_N@Z 100292e0     LIBCMT:dll_dllmain.obj
 0002:00008308       __sehtable$?dllmain_dispatch@@YAHQAUHINSTANCE__@@KQAX@Z 10029308     LIBCMT:dll_dllmain.obj
 0002:000083b8       __sehtable$___DestructExceptionObject 100293b8     libvcruntime:ehhelpers.obj
 0002:000083d8       __sehtable$?FrameUnwindToState@__FrameHandler3@@SAXPAUEHRegistrationNode@@PAXPBU_s_FuncInfo@@H@Z 100293d8     libvcruntime:frame.obj
 0002:00008400       __sehtable$?CallCatchBlock@@YAPAXPAUEHExceptionRecord@@PAUEHRegistrationNode@@PAU_CONTEXT@@PBU_s_FuncInfo@@PAXHK@Z 10029400     libvcruntime:frame.obj
 0002:00008428       __catchsym$?CallUnexpected@@YAXPBU_s_ESTypeList@@@Z$2 10029428     libvcruntime:frame.obj
 0002:00008438       __unwindtable$?CallUnexpected@@YAXPBU_s_ESTypeList@@@Z 10029438     libvcruntime:frame.obj
 0002:00008448       __tryblocktable$?CallUnexpected@@YAXPBU_s_ESTypeList@@@Z 10029448     libvcruntime:frame.obj
 0002:0000845c       __ehfuncinfo$?CallUnexpected@@YAXPBU_s_ESTypeList@@@Z 1002945c     libvcruntime:frame.obj
 0002:00008480       __sehtable$??$BuildCatchObjectHelperInternal@V__FrameHandler3@@@@YAHPAUEHExceptionRecord@@PAXPBU_s_HandlerType@@PBU_s_CatchableType@@@Z 10029480     libvcruntime:frame.obj
 0002:000084a0       __sehtable$??$BuildCatchObjectInternal@V__FrameHandler3@@@@YAXPAUEHExceptionRecord@@PAXPBU_s_HandlerType@@PBU_s_CatchableType@@@Z 100294a0     libvcruntime:frame.obj
 0002:000084f8       __sehtable$??R<lambda_6e4b09c48022b2350581041d5f6b0c4c>@@QBE@XZ 100294f8     libucrt:exit.obj
 0002:00008518       __sehtable$??$?RV<lambda_03b1d95aef87969028cfba75ccab2455>@@AAV<lambda_6e4b09c48022b2350581041d5f6b0c4c>@@V<lambda_22bdf7517842c4b3e53723af5aa32b9e>@@@?$__crt_seh_guarded_call@X@@QAEX$$QAV<lambda_03b1d95aef87969028cfba75ccab2455>@@AAV<lambda_6e4b09c48022b2350581041d5f6b0c4c>@@$$QAV<lambda_22bdf7517842c4b3e53723af5aa32b9e>@@@Z 10029518     libucrt:exit.obj
 0002:00008538       __sehtable$??$?RV<lambda_8e746cf0007f6ed984d6f78af1fec997>@@AAV<lambda_22ebabd17bc4fa466a2aca6d8deb888d>@@V<lambda_18ed0c0b38a6dc0daf1e7ac6d6adf05e>@@@?$__crt_seh_guarded_call@H@@QAEH$$QAV<lambda_8e746cf0007f6ed984d6f78af1fec997>@@AAV<lambda_22ebabd17bc4fa466a2aca6d8deb888d>@@$$QAV<lambda_18ed0c0b38a6dc0daf1e7ac6d6adf05e>@@@Z 10029538     libucrt:onexit.obj
 0002:00008558       __sehtable$??$?RV<lambda_69a2805e680e0e292e8ba93315fe43a8>@@AAV<lambda_f03950bc5685219e0bcd2087efbe011e>@@V<lambda_03fcd07e894ec930e3f35da366ca99d6>@@@?$__crt_seh_guarded_call@H@@QAEH$$QAV<lambda_69a2805e680e0e292e8ba93315fe43a8>@@AAV<lambda_f03950bc5685219e0bcd2087efbe011e>@@$$QAV<lambda_03fcd07e894ec930e3f35da366ca99d6>@@@Z 10029558     libucrt:onexit.obj
 0002:00008578       __sehtable$__query_new_handler 10029578     libucrt:new_handler.obj
 0002:00008598       __sehtable$_terminate      10029598     libucrt:terminate.obj
 0002:000085b8       __sehtable$??$?RV<lambda_15ade71b0218206bbe3333a0c9b79046>@@AAV<lambda_da44e0f8b0f19ba52fefafb335991732>@@V<lambda_207f2d024fc103971653565357d6cd41>@@@?$__crt_seh_guarded_call@X@@QAEX$$QAV<lambda_15ade71b0218206bbe3333a0c9b79046>@@AAV<lambda_da44e0f8b0f19ba52fefafb335991732>@@$$QAV<lambda_207f2d024fc103971653565357d6cd41>@@@Z 100295b8     libucrt:per_thread_data.obj
 0002:000085d8       __sehtable$??$?RV<lambda_a7e850c220f1c8d1e6efeecdedd162c6>@@AAV<lambda_46720907175c18b6c9d2717bc0d2d362>@@V<lambda_9048902d66e8d99359bc9897bbb930a8>@@@?$__crt_seh_guarded_call@X@@QAEX$$QAV<lambda_a7e850c220f1c8d1e6efeecdedd162c6>@@AAV<lambda_46720907175c18b6c9d2717bc0d2d362>@@$$QAV<lambda_9048902d66e8d99359bc9897bbb930a8>@@@Z 100295d8     libucrt:per_thread_data.obj
 0002:000085f8       __sehtable$??$?RV<lambda_38edbb1296d33220d7e4dd0ed76b244a>@@AAV<lambda_5ce1d447e08cb34b2473517608e21441>@@V<lambda_fb385d3da700c9147fc39e65dd577a8c>@@@?$__crt_seh_guarded_call@X@@QAEX$$QAV<lambda_38edbb1296d33220d7e4dd0ed76b244a>@@AAV<lambda_5ce1d447e08cb34b2473517608e21441>@@$$QAV<lambda_fb385d3da700c9147fc39e65dd577a8c>@@@Z 100295f8     libucrt:per_thread_data.obj
 0002:00008618       __sehtable$??$?RV<lambda_6affb1475c98b40b75cdec977db92e3c>@@AAV<lambda_b8d4b9c228a6ecc3f80208dbb4b4a104>@@V<lambda_608742c3c92a14382c1684fc64f96c88>@@@?$__crt_seh_guarded_call@X@@QAEX$$QAV<lambda_6affb1475c98b40b75cdec977db92e3c>@@AAV<lambda_b8d4b9c228a6ecc3f80208dbb4b4a104>@@$$QAV<lambda_608742c3c92a14382c1684fc64f96c88>@@@Z 10029618     libucrt:per_thread_data.obj
 0002:00008638       __sehtable$??$?RV<lambda_e5124f882df8998aaf41531e079ba474>@@AAV<lambda_3e16ef9562a7dcce91392c22ab16ea36>@@V<lambda_e25ca0880e6ef98be67edffd8c599615>@@@?$__crt_seh_guarded_call@X@@QAEX$$QAV<lambda_e5124f882df8998aaf41531e079ba474>@@AAV<lambda_3e16ef9562a7dcce91392c22ab16ea36>@@$$QAV<lambda_e25ca0880e6ef98be67edffd8c599615>@@@Z 10029638     libucrt:wsetlocale.obj
 0002:00008658       __sehtable$___acrt_initialize_lowio 10029658     libucrt:ioinit.obj
 0002:00008678       __sehtable$?update_thread_multibyte_data_internal@@YAPAU__crt_multibyte_data@@QAU__acrt_ptd@@QAPAU1@@Z 10029678     libucrt:mbctype.obj
 0002:00008698       __sehtable$??$?RV<lambda_ceb1ee4838e85a9d631eb091e2fbe199>@@AAV<lambda_ae742caa10f662c28703da3d2ea5e57e>@@V<lambda_cd08b5d6af4937fe54fc07d0c9bf6b37>@@@?$__crt_seh_guarded_call@X@@QAEX$$QAV<lambda_ceb1ee4838e85a9d631eb091e2fbe199>@@AAV<lambda_ae742caa10f662c28703da3d2ea5e57e>@@$$QAV<lambda_cd08b5d6af4937fe54fc07d0c9bf6b37>@@@Z 10029698     libucrt:mbctype.obj
 0002:000086b8       __sehtable$_raise          100296b8     libucrt:signal.obj
 0002:000086d8       __sehtable$??$?RV<lambda_cbab9ec6f41b0180b23cc171c22676b0>@@AAV<lambda_44731a7d0e6d81c3e6aa82d741081786>@@V<lambda_4b292cb8dd18144e164572427af410ab>@@@?$__crt_seh_guarded_call@P6AXH@Z@@QAEP6AXH@Z$$QAV<lambda_cbab9ec6f41b0180b23cc171c22676b0>@@AAV<lambda_44731a7d0e6d81c3e6aa82d741081786>@@$$QAV<lambda_4b292cb8dd18144e164572427af410ab>@@@Z 100296d8     libucrt:signal.obj
 0002:000086f8       __sehtable$??$?RV<lambda_2866be3712abc81a800a822484c830d8>@@AAV<lambda_39ca0ed439415581b5b15c265174cece>@@V<lambda_2b24c74d71094a6cd0cb82e44167d71b>@@@?$__crt_seh_guarded_call@X@@QAEX$$QAV<lambda_2866be3712abc81a800a822484c830d8>@@AAV<lambda_39ca0ed439415581b5b15c265174cece>@@$$QAV<lambda_2b24c74d71094a6cd0cb82e44167d71b>@@@Z 100296f8     libucrt:fflush.obj
 0002:00008718       __sehtable$??$?RV<lambda_2cc53f568c5a2bb6f192f930a45d44ea>@@AAV<lambda_ab61a845afdef5b7c387490eaf3616ee>@@V<lambda_c2ffc0b7726aa6be21d5f0026187e748>@@@?$__crt_seh_guarded_call@X@@QAEX$$QAV<lambda_2cc53f568c5a2bb6f192f930a45d44ea>@@AAV<lambda_ab61a845afdef5b7c387490eaf3616ee>@@$$QAV<lambda_c2ffc0b7726aa6be21d5f0026187e748>@@@Z 10029718     libucrt:fflush.obj
 0002:00008738       __sehtable$___acrt_update_thread_locale_data 10029738     libucrt:locale_refcounting.obj
 0002:00008758       __sehtable$__fcloseall     10029758     libucrt:closeall.obj
 0002:00008778       __sehtable$___acrt_lowio_ensure_fh_exists 10029778     libucrt:osfinfo.obj
 0002:00008798       __sehtable$??$?RV<lambda_9e9de3de5fa147e2223d7db92bc10aa6>@@AAV<lambda_38ce7e780aa69e748d6df282ebc68efe>@@V<lambda_8ca6da459f0f6780f1cff60fdc3d00e5>@@@?$__crt_seh_guarded_call@H@@QAEH$$QAV<lambda_9e9de3de5fa147e2223d7db92bc10aa6>@@AAV<lambda_38ce7e780aa69e748d6df282ebc68efe>@@$$QAV<lambda_8ca6da459f0f6780f1cff60fdc3d00e5>@@@Z 10029798     libucrt:commit.obj
 0002:000087b8       __sehtable$__write         100297b8     libucrt:write.obj
 0002:000087d8       __sehtable$_fclose         100297d8     libucrt:fclose.obj
 0002:000087f8       __sehtable$??$?RV<lambda_218ce3db14220d0be481dae8ef3383b6>@@AAV<lambda_628dfdc04ba53c8bfc02c9951375f3f5>@@V<lambda_57dc472bd5c9d5f3b2cbca59b8a843ae>@@@?$__crt_seh_guarded_call@H@@QAEH$$QAV<lambda_218ce3db14220d0be481dae8ef3383b6>@@AAV<lambda_628dfdc04ba53c8bfc02c9951375f3f5>@@$$QAV<lambda_57dc472bd5c9d5f3b2cbca59b8a843ae>@@@Z 100297f8     libucrt:close.obj
 0002:00008818       __sehtable$___set_fpsr_sse2 10029818     libucrt:fpctrl.obj
 0002:00008838       __sehtable$__IsNonwritableInCurrentImage 10029838     LIBCMT:pesect.obj
 0002:00008860       .edata                     10029860     OPOSPOSPrinter.exp
 0002:00008888       rgpv                       10029888     OPOSPOSPrinter.exp
 0002:00008898       rgszName                   10029898     OPOSPOSPrinter.exp
 0002:000088a8       rgwOrd                     100298a8     OPOSPOSPrinter.exp
 0002:000088b0       szName                     100298b0     OPOSPOSPrinter.exp
 0002:000088c3       $N00001                    100298c3     OPOSPOSPrinter.exp
 0002:000088d3       $N00002                    100298d3     OPOSPOSPrinter.exp
 0002:000088e5       $N00003                    100298e5     OPOSPOSPrinter.exp
 0002:000088f7       $N00004                    100298f7     OPOSPOSPrinter.exp
 0002:00008f06       .idata$6                   10029f06     kernel32:KERNEL32.dll
 0002:0000911a       .idata$6                   1002a11a     user32:USER32.dll
 0002:0000924e       .idata$6                   1002a24e     gdi32:GDI32.dll
 0002:000092f4       .idata$6                   1002a2f4     advapi32:ADVAPI32.dll
 0002:00009410       .idata$6                   1002a410     ole32:ole32.dll
 0002:0000941a       .idata$6                   1002a41a     oleaut32:OLEAUT32.dll
 0003:00000110       ?ObjectMap@@3PAU_ATL_OBJMAP_ENTRY30@ATL@@A 1002b110     POSPrinter.obj
 0003:000001d0       ?s_SOMethodNames@@3PAPADA  1002b1d0     POSPrinterImpl.obj
 0003:0000026c       ?s_RequiredMethodsPerRelease@@3PAHA 1002b26c     POSPrinterImpl.obj
 0003:000002c0       ?__vcrt_flsindex@@3KA      1002b2c0     libvcruntime:per_thread_data.obj
 0003:000002e0       ?errno_no_memory@@3HA      1002b2e0     libucrt:errno.obj
 0003:000002e4       ?doserrno_no_memory@@3KA   1002b2e4     libucrt:errno.obj
 0003:000002f0       ?__acrt_flsindex@@3KA      1002b2f0     libucrt:per_thread_data.obj
 0003:00000688       __mbctypes                 1002b688     libucrt:mbctype.obj
 0003:00000790       __mbcasemaps               1002b790     libucrt:mbctype.obj
 0003:00000890       ?__rgctypeflag@@3PADA      1002b890     libucrt:mbctype.obj
 0003:00000898       ?__rgcode_page_info@@3PAUcode_page_info@@A 1002b898     libucrt:mbctype.obj
 0003:00000af0       ?__dcrt_lowio_console_output_handle@@3PAXA 1002baf0     libucrt:initcon.obj
 0003:00000af4       ?__DAZ_ENABLED@?1??__set_fpsr_sse2@@9@9 1002baf4     libucrt:fpctrl.obj
 0003:00000c88       ?is_initialized_as_dll@@3_NA 1002bc88     LIBCMT:utility.obj
 0003:00000c89       ?module_local_atexit_table_initialized@@3_NA 1002bc89     LIBCMT:utility.obj
 0003:00000c8c       ?module_local_atexit_table@@3U_onexit_table_t@@A 1002bc8c     LIBCMT:utility.obj
 0003:00000c98       ?module_local_at_quick_exit_table@@3U_onexit_table_t@@A 1002bc98     LIBCMT:utility.obj
 0003:00000ca4       ?g_tss_cv@@3U_RTL_CONDITION_VARIABLE@@A 1002bca4     LIBCMT:thread_safe_statics.obj
 0003:00000ca8       ?g_tss_event@@3PAXA        1002bca8     LIBCMT:thread_safe_statics.obj
 0003:00000cac       ?g_tss_mutex@@3U_RTL_CRITICAL_SECTION@@A 1002bcac     LIBCMT:thread_safe_statics.obj
 0003:00000cc4       ?g_sleep_condition_variable_cs@@3P6GHPAU_RTL_CONDITION_VARIABLE@@PAU_RTL_CRITICAL_SECTION@@K@ZA 1002bcc4     LIBCMT:thread_safe_statics.obj
 0003:00000cc8       ?g_wake_all_condition_variable@@3P6GXPAU_RTL_CONDITION_VARIABLE@@@ZA 1002bcc8     LIBCMT:thread_safe_statics.obj
 0003:00000cd0       _GS_ExceptionRecord        1002bcd0     LIBCMT:gs_report.obj
 0003:00000d20       _GS_ContextRecord          1002bd20     LIBCMT:gs_report.obj
 0003:00000ff0       ?__proc_attached@@3HA      1002bff0     LIBCMT:dll_dllmain.obj
 0003:00001054       ?AllocateData@@3P6GPAUAtlThunkData_t@@XZA 1002c054     atls:atlthunk.obj
 0003:00001058       ?InitData@@3P6GXPAUAtlThunkData_t@@PAXI@ZA 1002c058     atls:atlthunk.obj
 0003:0000105c       ?DataToCode@@3P6GP6GJPAUHWND__@@IIJ@ZPAUAtlThunkData_t@@@ZA 1002c05c     atls:atlthunk.obj
 0003:00001060       ?FreeData@@3P6GXPAUAtlThunkData_t@@@ZA 1002c060     atls:atlthunk.obj
 0003:00001064       ?Initialized@@3_NA         1002c064     atls:atlthunk.obj
 0003:00001074       ?__vcrt_startup_thread_ptd@@3U__vcrt_ptd@@A 1002c074     libvcruntime:per_thread_data.obj
 0003:0000109c       ___vcrt_lock_table         1002c09c     libvcruntime:locks.obj
 0003:000010b4       ___vcrt_locks_initialized  1002c0b4     libvcruntime:locks.obj
 0003:000010e0       ?heap@@3V_HeapManager@@A   1002c0e0     libvcruntime:undname.obj
 0003:000010f4       ?module_handles@@3PAPAUHINSTANCE__@@A 1002c0f4     libvcruntime:winapi_downlevel.obj
 0003:00001100       ?function_pointers@@3PAPAXA 1002c100     libvcruntime:winapi_downlevel.obj
 0003:00001114       ?__acrt_invalid_parameter_handler@@3V?$dual_state_global@P6AXPB_W00II@Z@__crt_state_management@@A 1002c114     libucrt:invalid_parameter.obj
 0003:00001118       ?c_termination_complete@@3JA 1002c118     libucrt:exit.obj
 0003:0000111c       ?thread_local_exit_callback_func@@3P6GXPAXK0@ZA 1002c11c     libucrt:exit.obj
 0003:00001128       ?program_name@?1???$common_configure_argv@D@@YAHW4_crt_argv_mode@@@Z@4PADA 1002c128     libucrt:argv_parsing.obj
 0003:00001258       ?__acrt_new_handler@@3V?$dual_state_global@P6AHI@Z@__crt_state_management@@A 1002c258     libucrt:new_handler.obj
 0003:00001260       ?module_handles@@3PAPAUHINSTANCE__@@A 1002c260     libucrt:winapi_thunks.obj
 0003:000012b0       ?encoded_function_pointers@@3PAPAXA 1002c2b0     libucrt:winapi_thunks.obj
 0003:00001338       ?internal_state@?1??_mbtowc_l@@9@4U_Mbstatet@@A 1002c338     libucrt:mbtowc.obj
 0003:00001348       ?enable_percent_n@@3IA     1002c348     libucrt:printf_count_output.obj
 0003:00001568       ?__acrt_lock_table@@3PAU_RTL_CRITICAL_SECTION@@A 1002c568     libucrt:locks.obj
 0003:000016b8       ?__acrt_locks_initialized@@3IA 1002c6b8     libucrt:locks.obj
 0003:000016c8       ?fSystemSet@@3HA           1002c6c8     libucrt:mbctype.obj
 0003:000016cc       ?initialized@?1??__acrt_initialize_multibyte@@9@4_NA 1002c6cc     libucrt:mbctype.obj
 0003:000016ec       ?ctrlc_action@@3V?$dual_state_global@P6AXH@Z@__crt_state_management@@A 1002c6ec     libucrt:signal.obj
 0003:000016f0       ?ctrlbreak_action@@3V?$dual_state_global@P6AXH@Z@__crt_state_management@@A 1002c6f0     libucrt:signal.obj
 0003:000016f4       ?abort_action@@3V?$dual_state_global@P6AXH@Z@__crt_state_management@@A 1002c6f4     libucrt:signal.obj
 0003:000016f8       ?term_action@@3V?$dual_state_global@P6AXH@Z@__crt_state_management@@A 1002c6f8     libucrt:signal.obj
 0003:000016fc       ?user_matherr@@3V?$dual_state_global@P6AHPAU_exception@@@Z@__crt_state_management@@A 1002c6fc     libucrt:matherr.obj
 0003:00001700       ?__acrt_global_new_mode@@3V?$dual_state_global@J@__crt_state_management@@A 1002c700     libucrt:new_mode.obj
 0003:0000170c       ?internal_pst@?1??__mbrtoc32_utf8@__crt_mbstring@@YAIPA_UPBDIPAU_Mbstatet@@@Z@4U3@A 1002c70c     libucrt:mbrtoc32.obj
 0003:00001714       ?__acrt_app_type@@3W4_crt_app_type@@A 1002c714     libucrt:report_runtime_error.obj
 0003:0000171c       __pmatherr_set             1002c71c     libucrt:libm_error.obj
 0004:00000220       $R000000                   1002d220     POSPrinter.res
 0004:00000bb8       $R000998                   1002dbb8     POSPrinter.res
 0004:00000ca0       $R000A80                   1002dca0     POSPrinter.res
 0004:00000f08       $R000CE8                   1002df08     POSPrinter.res
 0004:00001470       $R001250                   1002e470     POSPrinter.res
 0004:00009228       $R009008                   10036228     POSPrinter.res
 0004:00009260       $R009040                   10036260     POSPrinter.res
