 OPOSImageScanner

 Timestamp is 5d429e30 (Thu Aug  1 17:09:20 2019)

 Preferred load address is 10000000

 Start         Length     Name                   Class
 0001:00000000 00000080H .text$di                CODE
 0001:00000080 0001d513H .text$mn                CODE
 0001:0001d593 00000036H .text$x                 CODE
 0001:0001d5c9 00000042H .text$yd                CODE
 0002:00000000 000002fcH .idata$5                DATA
 0002:000002fc 00000004H .00cfg                  DATA
 0002:00000300 00000004H .CRT$XCA                DATA
 0002:00000304 00000004H .CRT$XCL                DATA
 0002:00000308 00000010H .CRT$XCU                DATA
 0002:00000318 00000004H .CRT$XCZ                DATA
 0002:0000031c 00000004H .CRT$XIA                DATA
 0002:00000320 00000010H .CRT$XIC                DATA
 0002:00000330 00000004H .CRT$XIZ                DATA
 0002:00000334 00000004H .CRT$XLA                DATA
 0002:00000338 00000004H .CRT$XLZ                DATA
 0002:0000033c 00000004H .CRT$XPA                DATA
 0002:00000340 00000008H .CRT$XPX                DATA
 0002:00000348 00000004H .CRT$XPXA               DATA
 0002:0000034c 00000004H .CRT$XPZ                DATA
 0002:00000350 00000004H .CRT$XTA                DATA
 0002:00000354 0000000cH .CRT$XTZ                DATA
 0002:00000358 00000000H .gfids$y                DATA
 0002:00000360 00006d4cH .rdata                  DATA
 0002:000070ac 00000018H .rdata$T                DATA
 0002:000070c4 0000017cH .rdata$r                DATA
 0002:00007240 0000001cH .rdata$sxdata           DATA
 0002:0000725c 000003e0H .rdata$zzzdbg           DATA
 0002:0000763c 00000004H .rtc$IAA                DATA
 0002:00007640 00000004H .rtc$IZZ                DATA
 0002:00007644 00000004H .rtc$TAA                DATA
 0002:00007648 00000004H .rtc$TZZ                DATA
 0002:0000764c 00000004H .tls                    DATA
 0002:00007650 00000004H .tls$                   DATA
 0002:00007654 00000004H .tls$ZZZ                DATA
 0002:00007658 00000604H .xdata$x                DATA
 0002:00007c5c 00000004H ATL$__a                 DATA
 0002:00007c60 00000010H ATL$__z                 DATA
 0002:00007c70 000000b0H .edata                  DATA
 0002:00007d20 00000078H .idata$2                DATA
 0002:00007d98 00000014H .idata$3                DATA
 0002:00007dac 000002fcH .idata$4                DATA
 0002:000080a8 00000bc8H .idata$6                DATA
 0003:00000000 00000a80H .data                   DATA
 0003:00000a80 00000098H .data$r                 DATA
 0003:00000b18 00000b80H .bss                    DATA
 0004:00000000 00000220H .rsrc$01                DATA
 0004:00000220 00004350H .rsrc$02                DATA

  Address         Publics by Value              Rva+Base       Lib:Object

 0000:00000000       ___dynamic_value_reloc_table 00000000     <absolute>
 0000:00000000       ___guard_fids_count        00000000     <absolute>
 0000:00000000       ___guard_longjmp_table     00000000     <absolute>
 0000:00000000       __except_list              00000000     <absolute>
 0000:00000000       ___hybrid_code_map_count   00000000     <absolute>
 0000:00000000       ___hybrid_auxiliary_iat    00000000     <absolute>
 0000:00000000       ___guard_fids_table        00000000     <absolute>
 0000:00000000       ___guard_longjmp_count     00000000     <absolute>
 0000:00000000       ___guard_iat_table         00000000     <absolute>
 0000:00000000       ___volatile_metadata       00000000     <absolute>
 0000:00000000       ___AbsoluteZero            00000000     <absolute>
 0000:00000000       ___enclave_config          00000000     <absolute>
 0000:00000000       ___guard_iat_count         00000000     <absolute>
 0000:00000000       ___hybrid_code_map         00000000     <absolute>
 0000:00000007       ___safe_se_handler_count   00000007     <absolute>
 0000:0000002c       __tls_array                0000002c     <absolute>
 0000:00000100       ___guard_flags             00000100     <absolute>
 0000:00000000       ___ImageBase               10000000     <linker-defined>
 0001:00000080       ?DupWide@_CW@@AAEXXZ       10001080 f   CWString.obj
 0001:0000009c       ?cw_dup@@YGXPBDAAHAAPA_W1@Z 1000109c f   CWString.obj
 0001:0000010b       ?cw_memcpy@@YGHPA_WPBDH@Z  1000110b f   CWString.obj
 0001:00000137       ?cw_strcpy@@YAHPA_WPBD@Z   10001137 f   CWString.obj
 0001:0000014a       ?cw_strlen@@YAHPBD@Z       1000114a f   CWString.obj
 0001:00000163       ??0CAtlComModule@ATL@@QAE@XZ 10001163 f i OposVariant.obj
 0001:000001a8       ??0CAtlWinModule@ATL@@QAE@XZ 100011a8 f i OposVariant.obj
 0001:000001df       ??0OposDispParms@@QAE@PAVOposVariant@@H@Z 100011df f   OposVariant.obj
 0001:00000250       ??1OposDispParms@@QAE@XZ   10001250 f   OposVariant.obj
 0001:0000025e       ??A?$CSimpleArray@GV?$CSimpleArrayEqualHelper@G@ATL@@@ATL@@QAEAAGH@Z 1000125e f i OposVariant.obj
 0001:00000283       ??_Estringdispid@CComTypeInfoHolder@ATL@@QAEPAXI@Z 10001283 f i OposVariant.obj
 0001:000002ef       ?AtlWinModuleInit@ATL@@YGJPAU_ATL_WIN_MODULE70@1@@Z 100012ef f i OposVariant.obj
 0001:00000315       ?AtlWinModuleTerm@ATL@@YGJPAU_ATL_WIN_MODULE70@1@PAUHINSTANCE__@@@Z 10001315 f i OposVariant.obj
 0001:00000378       ?ChangeBSTR@OposVariant@@QAEXPAPA_WAAJ@Z 10001378 f   OposVariant.obj
 0001:000003b9       ?ChangeLONG@OposVariant@@QAEXPAJAAJ@Z 100013b9 f   OposVariant.obj
 0001:000003fa       ?GetLONG@OposVariant@@QAEJXZ 100013fa f   OposVariant.obj
 0001:00000415       ?Init@CComCriticalSection@ATL@@QAEJXZ 10001415 f i OposVariant.obj
 0001:0000043d       ?RemoveAll@?$CSimpleArray@GV?$CSimpleArrayEqualHelper@G@ATL@@@ATL@@QAEXXZ 1000143d f i OposVariant.obj
 0001:0000043d       ?RemoveAll@?$CSimpleArray@PAUHINSTANCE__@@V?$CSimpleArrayEqualHelper@PAUHINSTANCE__@@@ATL@@@ATL@@QAEXXZ 1000143d f i atls:atlbase.obj
 0001:0000045a       ?SetBSTR@OposVariant@@QAEXPA_WAAJ@Z 1000145a f   OposVariant.obj
 0001:0000048e       ?SetBSTR_Copy@OposVariant@@QAEXPA_WAAJ@Z 1000148e f   OposVariant.obj
 0001:000004de       ?SetBSTR_InOutPtr@OposVariant@@QAE_NPAPA_WAAJ@Z 100014de f   OposVariant.obj
 0001:00000515       ?SetDispatch_Ptr@OposVariant@@QAEXPAUIDispatch@@AAJ@Z 10001515 f   OposVariant.obj
 0001:00000550       ?SetLONG@OposVariant@@QAEXJ@Z 10001550 f   OposVariant.obj
 0001:00000572       ?SetLONG_Ptr@OposVariant@@QAEXPAJAAJ@Z 10001572 f   OposVariant.obj
 0001:000005a5       ?SetString@OposVariant@@QAEXPB_WAAJ@Z 100015a5 f   OposVariant.obj
 0001:000005eb       ?SetVARIANT_BOOL@OposVariant@@QAEXF@Z 100015eb f   OposVariant.obj
 0001:00000615       ?Term@CAtlComModule@ATL@@QAEXXZ 10001615 f i OposVariant.obj
 0001:0000065f       ?_AtlRaiseException@ATL@@YAXKK@Z 1000165f f i OposVariant.obj
 0001:00000674       ?AddRef@?$CComObjectCached@VCComClassFactory@ATL@@@ATL@@UAGKXZ 10001674 f i ImageScanner.obj
 0001:0000069b       ?Release@?$CComObjectCached@VCComClassFactory@ATL@@@ATL@@UAGKXZ 1000169b f i ImageScanner.obj
 0001:000006d1       ?QueryInterface@?$CComObjectCached@VCComClassFactory@ATL@@@ATL@@UAGJABU_GUID@@PAPAX@Z 100016d1 f i ImageScanner.obj
 0001:000006eb       ??_G?$CComObjectCached@VCComClassFactory@ATL@@@ATL@@UAEPAXI@Z 100016eb f i ImageScanner.obj
 0001:000006eb       ??_E?$CComObjectCached@VCComClassFactory@ATL@@@ATL@@UAEPAXI@Z 100016eb f i ImageScanner.obj
 0001:0000070d       ?AddRef@?$CComAggObject@VCOPOSImageScanner@@@ATL@@UAGKXZ 1000170d f i ImageScanner.obj
 0001:0000071e       ?Release@?$CComAggObject@VCOPOSImageScanner@@@ATL@@UAGKXZ 1000171e f i ImageScanner.obj
 0001:0000075a       ?QueryInterface@?$CComAggObject@VCOPOSImageScanner@@@ATL@@UAGJABU_GUID@@PAPAX@Z 1000175a f i ImageScanner.obj
 0001:000007a9       ?AddRef@?$CComContainedObject@VCOPOSImageScanner@@@ATL@@UAGKXZ 100017a9 f i ImageScanner.obj
 0001:000007bf       ?Release@?$CComContainedObject@VCOPOSImageScanner@@@ATL@@UAGKXZ 100017bf f i ImageScanner.obj
 0001:000007d5       ?QueryInterface@?$CComContainedObject@VCOPOSImageScanner@@@ATL@@UAGJABU_GUID@@PAPAX@Z 100017d5 f i ImageScanner.obj
 0001:000007f0       ??_G?$CComAggObject@VCOPOSImageScanner@@@ATL@@UAEPAXI@Z 100017f0 f i ImageScanner.obj
 0001:000007f0       ??_E?$CComAggObject@VCOPOSImageScanner@@@ATL@@UAEPAXI@Z 100017f0 f i ImageScanner.obj
 0001:00000815       ?AddRef@?$CComObject@VCOPOSImageScanner@@@ATL@@UAGKXZ 10001815 f i ImageScanner.obj
 0001:0000082c       ?Release@?$CComObject@VCOPOSImageScanner@@@ATL@@UAGKXZ 1000182c f i ImageScanner.obj
 0001:0000086e       ?QueryInterface@?$CComObject@VCOPOSImageScanner@@@ATL@@UAGJABU_GUID@@PAPAX@Z 1000186e f i ImageScanner.obj
 0001:00000888       ?Lock@CAtlModule@ATL@@UAEJXZ 10001888 f i ImageScanner.obj
 0001:00000892       ?Unlock@CAtlModule@ATL@@UAEJXZ 10001892 f i ImageScanner.obj
 0001:0000089c       ?GetLockCount@CAtlModule@ATL@@UAEJXZ 1000189c f i ImageScanner.obj
 0001:000008a0       ?GetGITPtr@CAtlModule@ATL@@UAEJPAPAUIGlobalInterfaceTable@@@Z 100018a0 f i ImageScanner.obj
 0001:000008ec       ?AddCommonRGSReplacements@?$CAtlModuleT@VCComModule@ATL@@@ATL@@UAEJPAUIRegistrarBase@@@Z 100018ec f i ImageScanner.obj
 0001:00000906       ?UpdateRegistryFromResourceD@CComModule@ATL@@UAGJPB_WHPAU_ATL_REGMAP_ENTRY@2@@Z 10001906 f i ImageScanner.obj
 0001:00000906       ?UpdateRegistryFromResourceD@CComModule@ATL@@UAGJIHPAU_ATL_REGMAP_ENTRY@2@@Z 10001906 f i ImageScanner.obj
 0001:0000090e       ?UpdateRegistryFromResource@CComModule@ATL@@UAGJPB_WHPAU_ATL_REGMAP_ENTRY@2@@Z 1000190e f i ImageScanner.obj
 0001:00000917       ?UpdateRegistryFromResource@CComModule@ATL@@UAGJIHPAU_ATL_REGMAP_ENTRY@2@@Z 10001917 f i ImageScanner.obj
 0001:00000920       ??_GCComModule@ATL@@UAEPAXI@Z 10001920 f i ImageScanner.obj
 0001:00000920       ??_ECComModule@ATL@@UAEPAXI@Z 10001920 f i ImageScanner.obj
 0001:00000948       ?OnDrawAdvanced@CComControlBase@ATL@@UAEJAAUATL_DRAWINFO@@@Z 10001948 f i ImageScanner.obj
 0001:00000a37       ?Next@?$CComEnumImpl@UIEnumConnections@@$1?_GUID_b196b287_bab4_101a_b69c_00aa00341d07@@3U__s_GUID@@BUtagCONNECTDATA@@V?$_Copy@UtagCONNECTDATA@@@ATL@@@ATL@@UAGJKPAUtagCONNECTDATA@@PAK@Z 10001a37 f i ImageScanner.obj
 0001:00000b0e       ?Skip@?$CComEnumImpl@UIEnumConnections@@$1?_GUID_b196b287_bab4_101a_b69c_00aa00341d07@@3U__s_GUID@@BUtagCONNECTDATA@@V?$_Copy@UtagCONNECTDATA@@@ATL@@@ATL@@UAGJK@Z 10001b0e f i ImageScanner.obj
 0001:00000b3b       ?Reset@?$CComEnumImpl@UIEnumConnectionPoints@@$1?_GUID_b196b285_bab4_101a_b69c_00aa00341d07@@3U__s_GUID@@BPAUIConnectionPoint@@V?$_CopyInterface@UIConnectionPoint@@@ATL@@@ATL@@UAGJXZ 10001b3b f i ImageScanner.obj
 0001:00000b3b       ?Reset@?$CComEnumImpl@UIEnumConnections@@$1?_GUID_b196b287_bab4_101a_b69c_00aa00341d07@@3U__s_GUID@@BUtagCONNECTDATA@@V?$_Copy@UtagCONNECTDATA@@@ATL@@@ATL@@UAGJXZ 10001b3b f i ImageScanner.obj
 0001:00000b4d       ?Clone@?$CComEnumImpl@UIEnumConnections@@$1?_GUID_b196b287_bab4_101a_b69c_00aa00341d07@@3U__s_GUID@@BUtagCONNECTDATA@@V?$_Copy@UtagCONNECTDATA@@@ATL@@@ATL@@UAGJPAPAUIEnumConnections@@@Z 10001b4d f i ImageScanner.obj
 0001:00000c2e       ?AddRef@?$CComObject@V?$CComEnum@UIEnumConnectionPoints@@$1?_GUID_b196b285_bab4_101a_b69c_00aa00341d07@@3U__s_GUID@@BPAUIConnectionPoint@@V?$_CopyInterface@UIConnectionPoint@@@ATL@@VCComSingleThreadModel@6@@ATL@@@ATL@@UAGKXZ 10001c2e f i ImageScanner.obj
 0001:00000c2e       ?AddRef@?$CComObject@V?$CComEnum@UIEnumConnections@@$1?_GUID_b196b287_bab4_101a_b69c_00aa00341d07@@3U__s_GUID@@BUtagCONNECTDATA@@V?$_Copy@UtagCONNECTDATA@@@ATL@@VCComSingleThreadModel@6@@ATL@@@ATL@@UAGKXZ 10001c2e f i ImageScanner.obj
 0001:00000c3f       ?Release@?$CComObject@V?$CComEnum@UIEnumConnections@@$1?_GUID_b196b287_bab4_101a_b69c_00aa00341d07@@3U__s_GUID@@BUtagCONNECTDATA@@V?$_Copy@UtagCONNECTDATA@@@ATL@@VCComSingleThreadModel@6@@ATL@@@ATL@@UAGKXZ 10001c3f f i ImageScanner.obj
 0001:00000c3f       ?Release@?$CComObject@V?$CComEnum@UIEnumConnectionPoints@@$1?_GUID_b196b285_bab4_101a_b69c_00aa00341d07@@3U__s_GUID@@BPAUIConnectionPoint@@V?$_CopyInterface@UIConnectionPoint@@@ATL@@VCComSingleThreadModel@6@@ATL@@@ATL@@UAGKXZ 10001c3f f i ImageScanner.obj
 0001:00000c7b       ?QueryInterface@?$CComObject@V?$CComEnum@UIEnumConnections@@$1?_GUID_b196b287_bab4_101a_b69c_00aa00341d07@@3U__s_GUID@@BUtagCONNECTDATA@@V?$_Copy@UtagCONNECTDATA@@@ATL@@VCComSingleThreadModel@6@@ATL@@@ATL@@UAGJABU_GUID@@PAPAX@Z 10001c7b f i ImageScanner.obj
 0001:00000c95       ??_E?$CComObject@V?$CComEnum@UIEnumConnections@@$1?_GUID_b196b287_bab4_101a_b69c_00aa00341d07@@3U__s_GUID@@BUtagCONNECTDATA@@V?$_Copy@UtagCONNECTDATA@@@ATL@@VCComSingleThreadModel@6@@ATL@@@ATL@@UAEPAXI@Z 10001c95 f i ImageScanner.obj
 0001:00000c95       ??_G?$CComObject@V?$CComEnum@UIEnumConnections@@$1?_GUID_b196b287_bab4_101a_b69c_00aa00341d07@@3U__s_GUID@@BUtagCONNECTDATA@@V?$_Copy@UtagCONNECTDATA@@@ATL@@VCComSingleThreadModel@6@@ATL@@@ATL@@UAEPAXI@Z 10001c95 f i ImageScanner.obj
 0001:00000cb7       ?GetClipboardData@?$IOleObjectImpl@VCOPOSImageScanner@@@ATL@@UAGJKPAPAUIDataObject@@@Z 10001cb7 f i ImageScanner.obj
 0001:00000cb7       ?SetMoniker@?$IOleObjectImpl@VCOPOSImageScanner@@@ATL@@UAGJKPAUIMoniker@@@Z 10001cb7 f i ImageScanner.obj
 0001:00000cb7       ?GetCanonicalFormatEtc@?$IDataObjectImpl@VCOPOSImageScanner@@@ATL@@UAGJPAUtagFORMATETC@@0@Z 10001cb7 f i ImageScanner.obj
 0001:00000cb7       ?GetRect@?$IViewObjectExImpl@VCOPOSImageScanner@@@ATL@@UAGJKPAU_RECTL@@@Z 10001cb7 f i ImageScanner.obj
 0001:00000cb7       ?GetDataHere@?$IDataObjectImpl@VCOPOSImageScanner@@@ATL@@UAGJPAUtagFORMATETC@@PAUtagSTGMEDIUM@@@Z 10001cb7 f i ImageScanner.obj
 0001:00000cb7       ?QueryInterface@CRegObject@ATL@@UAGJABU_GUID@@PAPAX@Z 10001cb7 f i ImageScanner.obj
 0001:00000cb7       ?EnumFormatEtc@?$IDataObjectImpl@VCOPOSImageScanner@@@ATL@@UAGJKPAPAUIEnumFORMATETC@@@Z 10001cb7 f i ImageScanner.obj
 0001:00000cbf       ?AddRef@CRegObject@ATL@@UAGKXZ 10001cbf f i ImageScanner.obj
 0001:00000cc5       ?IsUpToDate@?$IOleObjectImpl@VCOPOSImageScanner@@@ATL@@UAGJXZ 10001cc5 f i ImageScanner.obj
 0001:00000cc5       ?Update@?$IOleObjectImpl@VCOPOSImageScanner@@@ATL@@UAGJXZ 10001cc5 f i ImageScanner.obj
 0001:00000cc5       ?HandsOffStorage@?$IPersistStorageImpl@VCOPOSImageScanner@@@ATL@@UAGJXZ 10001cc5 f i ImageScanner.obj
 0001:00000cc5       ?Release@CRegObject@ATL@@UAGKXZ 10001cc5 f i ImageScanner.obj
 0001:00000cca       ?AddReplacement@CRegObject@ATL@@UAGJPB_W0@Z 10001cca f i ImageScanner.obj
 0001:00000d03       ?ClearReplacements@CRegObject@ATL@@UAGJXZ 10001d03 f i ImageScanner.obj
 0001:00000d15       ??_ECRegObject@ATL@@UAEPAXI@Z 10001d15 f i ImageScanner.obj
 0001:00000d15       ??_GCRegObject@ATL@@UAEPAXI@Z 10001d15 f i ImageScanner.obj
 0001:00000d37       ??_E?$CComObject@VCOPOSImageScanner@@@ATL@@W3AEPAXI@Z 10001d37 f i ImageScanner.obj
 0001:00000d3f       ??_E?$CComObject@VCOPOSImageScanner@@@ATL@@WEM@AEPAXI@Z 10001d3f f i ImageScanner.obj
 0001:00000d47       ?QueryInterface@?$CComObject@VCOPOSImageScanner@@@ATL@@WHA@AGJABU_GUID@@PAPAX@Z 10001d47 f i ImageScanner.obj
 0001:00000d51       ?AddRef@?$CComObject@VCOPOSImageScanner@@@ATL@@WHA@AGKXZ 10001d51 f i ImageScanner.obj
 0001:00000d5b       ?Release@?$CComObject@VCOPOSImageScanner@@@ATL@@WHA@AGKXZ 10001d5b f i ImageScanner.obj
 0001:00000d65       ?QueryInterface@?$CComObject@VCOPOSImageScanner@@@ATL@@WHE@AGJABU_GUID@@PAPAX@Z 10001d65 f i ImageScanner.obj
 0001:00000d6f       ?AddRef@?$CComObject@VCOPOSImageScanner@@@ATL@@WHE@AGKXZ 10001d6f f i ImageScanner.obj
 0001:00000d79       ?Release@?$CComObject@VCOPOSImageScanner@@@ATL@@WHE@AGKXZ 10001d79 f i ImageScanner.obj
 0001:00000d83       ?QueryInterface@?$CComObject@VCOPOSImageScanner@@@ATL@@WHI@AGJABU_GUID@@PAPAX@Z 10001d83 f i ImageScanner.obj
 0001:00000d8d       ?AddRef@?$CComObject@VCOPOSImageScanner@@@ATL@@WHI@AGKXZ 10001d8d f i ImageScanner.obj
 0001:00000d97       ?Release@?$CComObject@VCOPOSImageScanner@@@ATL@@WHI@AGKXZ 10001d97 f i ImageScanner.obj
 0001:00000da1       ?QueryInterface@?$CComObject@VCOPOSImageScanner@@@ATL@@WHM@AGJABU_GUID@@PAPAX@Z 10001da1 f i ImageScanner.obj
 0001:00000dab       ?AddRef@?$CComObject@VCOPOSImageScanner@@@ATL@@WHM@AGKXZ 10001dab f i ImageScanner.obj
 0001:00000db5       ?Release@?$CComObject@VCOPOSImageScanner@@@ATL@@WHM@AGKXZ 10001db5 f i ImageScanner.obj
 0001:00000dbf       ?QueryInterface@?$CComObject@VCOPOSImageScanner@@@ATL@@WIA@AGJABU_GUID@@PAPAX@Z 10001dbf f i ImageScanner.obj
 0001:00000dcc       ?AddRef@?$CComObject@VCOPOSImageScanner@@@ATL@@WIA@AGKXZ 10001dcc f i ImageScanner.obj
 0001:00000dd9       ?Release@?$CComObject@VCOPOSImageScanner@@@ATL@@WIA@AGKXZ 10001dd9 f i ImageScanner.obj
 0001:00000de6       ?QueryInterface@?$CComObject@VCOPOSImageScanner@@@ATL@@WIE@AGJABU_GUID@@PAPAX@Z 10001de6 f i ImageScanner.obj
 0001:00000df3       ?AddRef@?$CComObject@VCOPOSImageScanner@@@ATL@@WIE@AGKXZ 10001df3 f i ImageScanner.obj
 0001:00000e00       ?Release@?$CComObject@VCOPOSImageScanner@@@ATL@@WIE@AGKXZ 10001e00 f i ImageScanner.obj
 0001:00000e0d       ?QueryInterface@?$CComObject@VCOPOSImageScanner@@@ATL@@WII@AGJABU_GUID@@PAPAX@Z 10001e0d f i ImageScanner.obj
 0001:00000e1a       ?AddRef@?$CComObject@VCOPOSImageScanner@@@ATL@@WII@AGKXZ 10001e1a f i ImageScanner.obj
 0001:00000e27       ?Release@?$CComObject@VCOPOSImageScanner@@@ATL@@WII@AGKXZ 10001e27 f i ImageScanner.obj
 0001:00000e34       ?QueryInterface@?$CComObject@VCOPOSImageScanner@@@ATL@@WIM@AGJABU_GUID@@PAPAX@Z 10001e34 f i ImageScanner.obj
 0001:00000e41       ?AddRef@?$CComObject@VCOPOSImageScanner@@@ATL@@WIM@AGKXZ 10001e41 f i ImageScanner.obj
 0001:00000e4e       ?Release@?$CComObject@VCOPOSImageScanner@@@ATL@@WIM@AGKXZ 10001e4e f i ImageScanner.obj
 0001:00000e5b       ?QueryInterface@?$CComObject@VCOPOSImageScanner@@@ATL@@WJA@AGJABU_GUID@@PAPAX@Z 10001e5b f i ImageScanner.obj
 0001:00000e68       ?AddRef@?$CComObject@VCOPOSImageScanner@@@ATL@@WJA@AGKXZ 10001e68 f i ImageScanner.obj
 0001:00000e75       ?Release@?$CComObject@VCOPOSImageScanner@@@ATL@@WJA@AGKXZ 10001e75 f i ImageScanner.obj
 0001:00000e82       ?QueryInterface@?$CComObject@VCOPOSImageScanner@@@ATL@@WJE@AGJABU_GUID@@PAPAX@Z 10001e82 f i ImageScanner.obj
 0001:00000e8f       ?AddRef@?$CComObject@VCOPOSImageScanner@@@ATL@@WJE@AGKXZ 10001e8f f i ImageScanner.obj
 0001:00000e9c       ?Release@?$CComObject@VCOPOSImageScanner@@@ATL@@WJE@AGKXZ 10001e9c f i ImageScanner.obj
 0001:00000ea9       ?QueryInterface@?$CComObject@VCOPOSImageScanner@@@ATL@@WJI@AGJABU_GUID@@PAPAX@Z 10001ea9 f i ImageScanner.obj
 0001:00000eb6       ?AddRef@?$CComObject@VCOPOSImageScanner@@@ATL@@WJI@AGKXZ 10001eb6 f i ImageScanner.obj
 0001:00000ec3       ?Release@?$CComObject@VCOPOSImageScanner@@@ATL@@WJI@AGKXZ 10001ec3 f i ImageScanner.obj
 0001:00000ed0       ?QueryInterface@?$CComObject@VCOPOSImageScanner@@@ATL@@WJM@AGJABU_GUID@@PAPAX@Z 10001ed0 f i ImageScanner.obj
 0001:00000edd       ?AddRef@?$CComObject@VCOPOSImageScanner@@@ATL@@WJM@AGKXZ 10001edd f i ImageScanner.obj
 0001:00000eea       ?Release@?$CComObject@VCOPOSImageScanner@@@ATL@@WJM@AGKXZ 10001eea f i ImageScanner.obj
 0001:00000ef7       ?QueryInterface@?$CComObject@VCOPOSImageScanner@@@ATL@@WKA@AGJABU_GUID@@PAPAX@Z 10001ef7 f i ImageScanner.obj
 0001:00000f04       ?AddRef@?$CComObject@VCOPOSImageScanner@@@ATL@@WKA@AGKXZ 10001f04 f i ImageScanner.obj
 0001:00000f11       ?Release@?$CComObject@VCOPOSImageScanner@@@ATL@@WKA@AGKXZ 10001f11 f i ImageScanner.obj
 0001:00000f1e       ?AddRef@?$CComObject@VCOPOSImageScanner@@@ATL@@WKI@AGKXZ 10001f1e f i ImageScanner.obj
 0001:00000f2b       ?Release@?$CComObject@VCOPOSImageScanner@@@ATL@@WKI@AGKXZ 10001f2b f i ImageScanner.obj
 0001:00000f38       ?AddRef@?$CComObject@VCOPOSImageScanner@@@ATL@@WLE@AGKXZ 10001f38 f i ImageScanner.obj
 0001:00000f45       ?Release@?$CComObject@VCOPOSImageScanner@@@ATL@@WLE@AGKXZ 10001f45 f i ImageScanner.obj
 0001:00000f52       ??_E?$CComContainedObject@VCOPOSImageScanner@@@ATL@@W3AEPAXI@Z 10001f52 f i ImageScanner.obj
 0001:00000f5a       ??_E?$CComContainedObject@VCOPOSImageScanner@@@ATL@@WEM@AEPAXI@Z 10001f5a f i ImageScanner.obj
 0001:00000f62       ?QueryInterface@?$CComContainedObject@VCOPOSImageScanner@@@ATL@@WHA@AGJABU_GUID@@PAPAX@Z 10001f62 f i ImageScanner.obj
 0001:00000f6c       ?AddRef@?$CComContainedObject@VCOPOSImageScanner@@@ATL@@WHA@AGKXZ 10001f6c f i ImageScanner.obj
 0001:00000f76       ?Release@?$CComContainedObject@VCOPOSImageScanner@@@ATL@@WHA@AGKXZ 10001f76 f i ImageScanner.obj
 0001:00000f80       ?QueryInterface@?$CComContainedObject@VCOPOSImageScanner@@@ATL@@WHE@AGJABU_GUID@@PAPAX@Z 10001f80 f i ImageScanner.obj
 0001:00000f8a       ?AddRef@?$CComContainedObject@VCOPOSImageScanner@@@ATL@@WHE@AGKXZ 10001f8a f i ImageScanner.obj
 0001:00000f94       ?Release@?$CComContainedObject@VCOPOSImageScanner@@@ATL@@WHE@AGKXZ 10001f94 f i ImageScanner.obj
 0001:00000f9e       ?QueryInterface@?$CComContainedObject@VCOPOSImageScanner@@@ATL@@WHI@AGJABU_GUID@@PAPAX@Z 10001f9e f i ImageScanner.obj
 0001:00000fa8       ?AddRef@?$CComContainedObject@VCOPOSImageScanner@@@ATL@@WHI@AGKXZ 10001fa8 f i ImageScanner.obj
 0001:00000fb2       ?Release@?$CComContainedObject@VCOPOSImageScanner@@@ATL@@WHI@AGKXZ 10001fb2 f i ImageScanner.obj
 0001:00000fbc       ?QueryInterface@?$CComContainedObject@VCOPOSImageScanner@@@ATL@@WHM@AGJABU_GUID@@PAPAX@Z 10001fbc f i ImageScanner.obj
 0001:00000fc6       ?AddRef@?$CComContainedObject@VCOPOSImageScanner@@@ATL@@WHM@AGKXZ 10001fc6 f i ImageScanner.obj
 0001:00000fd0       ?Release@?$CComContainedObject@VCOPOSImageScanner@@@ATL@@WHM@AGKXZ 10001fd0 f i ImageScanner.obj
 0001:00000fda       ?QueryInterface@?$CComContainedObject@VCOPOSImageScanner@@@ATL@@WIA@AGJABU_GUID@@PAPAX@Z 10001fda f i ImageScanner.obj
 0001:00000fe7       ?AddRef@?$CComContainedObject@VCOPOSImageScanner@@@ATL@@WIA@AGKXZ 10001fe7 f i ImageScanner.obj
 0001:00000ff4       ?Release@?$CComContainedObject@VCOPOSImageScanner@@@ATL@@WIA@AGKXZ 10001ff4 f i ImageScanner.obj
 0001:00001001       ?QueryInterface@?$CComContainedObject@VCOPOSImageScanner@@@ATL@@WIE@AGJABU_GUID@@PAPAX@Z 10002001 f i ImageScanner.obj
 0001:0000100e       ?AddRef@?$CComContainedObject@VCOPOSImageScanner@@@ATL@@WIE@AGKXZ 1000200e f i ImageScanner.obj
 0001:0000101b       ?Release@?$CComContainedObject@VCOPOSImageScanner@@@ATL@@WIE@AGKXZ 1000201b f i ImageScanner.obj
 0001:00001028       ?QueryInterface@?$CComContainedObject@VCOPOSImageScanner@@@ATL@@WII@AGJABU_GUID@@PAPAX@Z 10002028 f i ImageScanner.obj
 0001:00001035       ?AddRef@?$CComContainedObject@VCOPOSImageScanner@@@ATL@@WII@AGKXZ 10002035 f i ImageScanner.obj
 0001:00001042       ?Release@?$CComContainedObject@VCOPOSImageScanner@@@ATL@@WII@AGKXZ 10002042 f i ImageScanner.obj
 0001:0000104f       ?QueryInterface@?$CComContainedObject@VCOPOSImageScanner@@@ATL@@WIM@AGJABU_GUID@@PAPAX@Z 1000204f f i ImageScanner.obj
 0001:0000105c       ?AddRef@?$CComContainedObject@VCOPOSImageScanner@@@ATL@@WIM@AGKXZ 1000205c f i ImageScanner.obj
 0001:00001069       ?Release@?$CComContainedObject@VCOPOSImageScanner@@@ATL@@WIM@AGKXZ 10002069 f i ImageScanner.obj
 0001:00001076       ?QueryInterface@?$CComContainedObject@VCOPOSImageScanner@@@ATL@@WJA@AGJABU_GUID@@PAPAX@Z 10002076 f i ImageScanner.obj
 0001:00001083       ?AddRef@?$CComContainedObject@VCOPOSImageScanner@@@ATL@@WJA@AGKXZ 10002083 f i ImageScanner.obj
 0001:00001090       ?Release@?$CComContainedObject@VCOPOSImageScanner@@@ATL@@WJA@AGKXZ 10002090 f i ImageScanner.obj
 0001:0000109d       ?QueryInterface@?$CComContainedObject@VCOPOSImageScanner@@@ATL@@WJE@AGJABU_GUID@@PAPAX@Z 1000209d f i ImageScanner.obj
 0001:000010aa       ?AddRef@?$CComContainedObject@VCOPOSImageScanner@@@ATL@@WJE@AGKXZ 100020aa f i ImageScanner.obj
 0001:000010b7       ?Release@?$CComContainedObject@VCOPOSImageScanner@@@ATL@@WJE@AGKXZ 100020b7 f i ImageScanner.obj
 0001:000010c4       ?QueryInterface@?$CComContainedObject@VCOPOSImageScanner@@@ATL@@WJI@AGJABU_GUID@@PAPAX@Z 100020c4 f i ImageScanner.obj
 0001:000010d1       ?AddRef@?$CComContainedObject@VCOPOSImageScanner@@@ATL@@WJI@AGKXZ 100020d1 f i ImageScanner.obj
 0001:000010de       ?Release@?$CComContainedObject@VCOPOSImageScanner@@@ATL@@WJI@AGKXZ 100020de f i ImageScanner.obj
 0001:000010eb       ?QueryInterface@?$CComContainedObject@VCOPOSImageScanner@@@ATL@@WJM@AGJABU_GUID@@PAPAX@Z 100020eb f i ImageScanner.obj
 0001:000010f8       ?AddRef@?$CComContainedObject@VCOPOSImageScanner@@@ATL@@WJM@AGKXZ 100020f8 f i ImageScanner.obj
 0001:00001105       ?Release@?$CComContainedObject@VCOPOSImageScanner@@@ATL@@WJM@AGKXZ 10002105 f i ImageScanner.obj
 0001:00001112       ?QueryInterface@?$CComContainedObject@VCOPOSImageScanner@@@ATL@@WKA@AGJABU_GUID@@PAPAX@Z 10002112 f i ImageScanner.obj
 0001:0000111f       ?AddRef@?$CComContainedObject@VCOPOSImageScanner@@@ATL@@WKA@AGKXZ 1000211f f i ImageScanner.obj
 0001:0000112c       ?Release@?$CComContainedObject@VCOPOSImageScanner@@@ATL@@WKA@AGKXZ 1000212c f i ImageScanner.obj
 0001:00001139       ?AddRef@?$CComContainedObject@VCOPOSImageScanner@@@ATL@@WKI@AGKXZ 10002139 f i ImageScanner.obj
 0001:00001146       ?Release@?$CComContainedObject@VCOPOSImageScanner@@@ATL@@WKI@AGKXZ 10002146 f i ImageScanner.obj
 0001:00001153       ?AddRef@?$CComContainedObject@VCOPOSImageScanner@@@ATL@@WLE@AGKXZ 10002153 f i ImageScanner.obj
 0001:00001160       ?Release@?$CComContainedObject@VCOPOSImageScanner@@@ATL@@WLE@AGKXZ 10002160 f i ImageScanner.obj
 0001:0000116d       ?GetWindowProc@?$CWindowImplBaseT@VCWindow@ATL@@V?$CWinTraits@$0FGAAAAAA@$0A@@2@@ATL@@UAEP6GJPAUHWND__@@IIJ@ZXZ 1000216d f i ImageScanner.obj
 0001:00001173       ?StartWindowProc@?$CWindowImplBaseT@VCWindow@ATL@@V?$CWinTraits@$0FGAAAAAA@$0A@@2@@ATL@@SGJPAUHWND__@@IIJ@Z 10002173 f i ImageScanner.obj
 0001:000011c7       ?ObjectMain@CComObjectRootBase@ATL@@SGX_N@Z 100021c7 f i ImageScanner.obj
 0001:000011c7       ?OnFinalMessage@?$CWindowImplBaseT@VCWindow@ATL@@V?$CWinTraits@$0FGAAAAAA@$0A@@2@@ATL@@UAEXPAUHWND__@@@Z 100021c7 f i ImageScanner.obj
 0001:000011ca       ?GetTypeInfoCount@?$IDispatchImpl@UIOPOSImageScanner@@$1?IID_IOPOSImageScanner@@3U_GUID@@B$1?LIBID_OposImageScanner_CCO@@3U3@B$00$0A@VCComTypeInfoHolder@ATL@@@ATL@@UAGJPAI@Z 100021ca f i ImageScanner.obj
 0001:000011e7       ?GetTypeInfo@?$IDispatchImpl@UIOPOSImageScanner@@$1?IID_IOPOSImageScanner@@3U_GUID@@B$1?LIBID_OposImageScanner_CCO@@3U3@B$00$0A@VCComTypeInfoHolder@ATL@@@ATL@@UAGJIKPAPAUITypeInfo@@@Z 100021e7 f i ImageScanner.obj
 0001:0000120b       ?GetIDsOfNames@?$IDispatchImpl@UIOPOSImageScanner@@$1?IID_IOPOSImageScanner@@3U_GUID@@B$1?LIBID_OposImageScanner_CCO@@3U3@B$00$0A@VCComTypeInfoHolder@ATL@@@ATL@@UAGJABU_GUID@@PAPA_WIKPAJ@Z 1000220b f i ImageScanner.obj
 0001:0000122b       ?Invoke@?$IDispatchImpl@UIOPOSImageScanner@@$1?IID_IOPOSImageScanner@@3U_GUID@@B$1?LIBID_OposImageScanner_CCO@@3U3@B$00$0A@VCComTypeInfoHolder@ATL@@@ATL@@UAGJJABU_GUID@@KGPAUtagDISPPARAMS@@PAUtagVARIANT@@PAUtagEXCEPINFO@@PAI@Z 1000222b f i ImageScanner.obj
 0001:00001239       ?CreateControlWindow@?$CComControl@VCOPOSImageScanner@@V?$CWindowImpl@VCOPOSImageScanner@@VCWindow@ATL@@V?$CWinTraits@$0FGAAAAAA@$0A@@3@@ATL@@@ATL@@UAEPAUHWND__@@PAU3@AAUtagRECT@@@Z 10002239 f i ImageScanner.obj
 0001:00001268       ?ControlQueryInterface@?$CComControl@VCOPOSImageScanner@@V?$CWindowImpl@VCOPOSImageScanner@@VCWindow@ATL@@V?$CWinTraits@$0FGAAAAAA@$0A@@3@@ATL@@@ATL@@UAEJABU_GUID@@PAPAX@Z 10002268 f i ImageScanner.obj
 0001:00001283       ?GetUserClassID@?$IOleObjectImpl@VCOPOSImageScanner@@@ATL@@UAGJPAU_GUID@@@Z 10002283 f i ImageScanner.obj
 0001:00001283       ?GetClassID@?$IPersistStreamInitImpl@VCOPOSImageScanner@@@ATL@@UAGJPAU_GUID@@@Z 10002283 f i ImageScanner.obj
 0001:00001283       ?GetClassID@?$IPersistStorageImpl@VCOPOSImageScanner@@@ATL@@UAGJPAU_GUID@@@Z 10002283 f i ImageScanner.obj
 0001:000012a7       ?IsDirty@?$IPersistStreamInitImpl@VCOPOSImageScanner@@@ATL@@UAGJXZ 100022a7 f i ImageScanner.obj
 0001:000012c6       ?Load@?$IPersistStreamInitImpl@VCOPOSImageScanner@@@ATL@@UAGJPAUIStream@@@Z 100022c6 f i ImageScanner.obj
 0001:000012e5       ?Save@?$IPersistStreamInitImpl@VCOPOSImageScanner@@@ATL@@UAGJPAUIStream@@H@Z 100022e5 f i ImageScanner.obj
 0001:00001307       ?GetSizeMax@?$IPersistStreamInitImpl@VCOPOSImageScanner@@@ATL@@UAGJPAT_ULARGE_INTEGER@@@Z 10002307 f i ImageScanner.obj
 0001:000014bc       ?InitNew@?$IPersistStreamInitImpl@VCOPOSImageScanner@@@ATL@@UAGJXZ 100024bc f i ImageScanner.obj
 0001:000014d9       ?SOOutputCompleteDummy@COPOSImageScanner@@MAGJJ@Z 100024d9 f i ImageScanner.obj
 0001:000014d9       ?SetColorScheme@?$IOleObjectImpl@VCOPOSImageScanner@@@ATL@@UAGJPAUtagLOGPALETTE@@@Z 100024d9 f i ImageScanner.obj
 0001:000014d9       ?GetControlInfo@?$IOleControlImpl@VCOPOSImageScanner@@@ATL@@UAGJPAUtagCONTROLINFO@@@Z 100024d9 f i ImageScanner.obj
 0001:000014d9       ?GetDropTarget@?$IOleInPlaceObjectWindowlessImpl@VCOPOSImageScanner@@@ATL@@UAGJPAPAUIDropTarget@@@Z 100024d9 f i ImageScanner.obj
 0001:000014d9       ?OnMnemonic@?$IOleControlImpl@VCOPOSImageScanner@@@ATL@@UAGJPAUtagMSG@@@Z 100024d9 f i ImageScanner.obj
 0001:000014d9       ?QueryGetData@?$IDataObjectImpl@VCOPOSImageScanner@@@ATL@@UAGJPAUtagFORMATETC@@@Z 100024d9 f i ImageScanner.obj
 0001:000014d9       ?ContextSensitiveHelp@?$IOleInPlaceObjectWindowlessImpl@VCOPOSImageScanner@@@ATL@@UAGJH@Z 100024d9 f i ImageScanner.obj
 0001:000014d9       ?Unfreeze@?$IViewObjectExImpl@VCOPOSImageScanner@@@ATL@@UAGJK@Z 100024d9 f i ImageScanner.obj
 0001:000014d9       ?ContextSensitiveHelp@?$IOleInPlaceActiveObjectImpl@VCOPOSImageScanner@@@ATL@@UAGJH@Z 100024d9 f i ImageScanner.obj
 0001:000014e1       ?OnFrameWindowActivate@?$IOleInPlaceActiveObjectImpl@VCOPOSImageScanner@@@ATL@@UAGJH@Z 100024e1 f i ImageScanner.obj
 0001:000014e1       ?SaveCompleted@?$IPersistStorageImpl@VCOPOSImageScanner@@@ATL@@UAGJPAUIStorage@@@Z 100024e1 f i ImageScanner.obj
 0001:000014e1       ?EnableModeless@?$IOleInPlaceActiveObjectImpl@VCOPOSImageScanner@@@ATL@@UAGJH@Z 100024e1 f i ImageScanner.obj
 0001:000014e1       ?OnAmbientPropertyChange@?$IOleControlImpl@VCOPOSImageScanner@@@ATL@@UAGJJ@Z 100024e1 f i ImageScanner.obj
 0001:000014e6       ?SetClientSite@?$IOleObjectImpl@VCOPOSImageScanner@@@ATL@@UAGJPAUIOleClientSite@@@Z 100024e6 f i ImageScanner.obj
 0001:00001503       ?GetClientSite@?$IOleObjectImpl@VCOPOSImageScanner@@@ATL@@UAGJPAPAUIOleClientSite@@@Z 10002503 f i ImageScanner.obj
 0001:00001520       ?SetHostNames@?$IOleObjectImpl@VCOPOSImageScanner@@@ATL@@UAGJPB_W0@Z 10002520 f i ImageScanner.obj
 0001:00001525       ?Close@?$IOleObjectImpl@VCOPOSImageScanner@@@ATL@@UAGJK@Z 10002525 f i ImageScanner.obj
 0001:00001542       ?GetMoniker@?$IOleObjectImpl@VCOPOSImageScanner@@@ATL@@UAGJKKPAPAUIMoniker@@@Z 10002542 f i ImageScanner.obj
 0001:00001542       ?SetData@?$IDataObjectImpl@VCOPOSImageScanner@@@ATL@@UAGJPAUtagFORMATETC@@PAUtagSTGMEDIUM@@H@Z 10002542 f i ImageScanner.obj
 0001:00001542       ?InitFromData@?$IOleObjectImpl@VCOPOSImageScanner@@@ATL@@UAGJPAUIDataObject@@HK@Z 10002542 f i ImageScanner.obj
 0001:0000154a       ?DoVerb@?$IOleObjectImpl@VCOPOSImageScanner@@@ATL@@UAGJJPAUtagMSG@@PAUIOleClientSite@@JPAUHWND__@@PBUtagRECT@@@Z 1000254a f i ImageScanner.obj
 0001:00001662       ?EnumVerbs@?$IOleObjectImpl@VCOPOSImageScanner@@@ATL@@UAGJPAPAUIEnumOLEVERB@@@Z 10002662 f i ImageScanner.obj
 0001:00001684       ?GetUserType@?$IOleObjectImpl@VCOPOSImageScanner@@@ATL@@UAGJKPAPA_W@Z 10002684 f i ImageScanner.obj
 0001:0000169c       ?SetExtent@?$IOleObjectImpl@VCOPOSImageScanner@@@ATL@@UAGJKPAUtagSIZE@@@Z 1000269c f i ImageScanner.obj
 0001:000016bc       ?GetExtent@?$IOleObjectImpl@VCOPOSImageScanner@@@ATL@@UAGJKPAUtagSIZE@@@Z 100026bc f i ImageScanner.obj
 0001:000016fa       ?Advise@?$IOleObjectImpl@VCOPOSImageScanner@@@ATL@@UAGJPAUIAdviseSink@@PAK@Z 100026fa f i ImageScanner.obj
 0001:0000171a       ?Unadvise@?$IOleObjectImpl@VCOPOSImageScanner@@@ATL@@UAGJK@Z 1000271a f i ImageScanner.obj
 0001:00001749       ?EnumAdvise@?$IOleObjectImpl@VCOPOSImageScanner@@@ATL@@UAGJPAPAUIEnumSTATDATA@@@Z 10002749 f i ImageScanner.obj
 0001:00001789       ?GetMiscStatus@?$IOleObjectImpl@VCOPOSImageScanner@@@ATL@@UAGJKPAK@Z 10002789 f i ImageScanner.obj
 0001:000017a1       ?GetWindow@?$IOleInPlaceActiveObjectImpl@VCOPOSImageScanner@@@ATL@@UAGJPAPAUHWND__@@@Z 100027a1 f i ImageScanner.obj
 0001:000017ee       ?TranslateAcceleratorW@?$IOleInPlaceActiveObjectImpl@VCOPOSImageScanner@@@ATL@@UAGJPAUtagMSG@@@Z 100027ee f i ImageScanner.obj
 0001:0000188c       ?OnDocWindowActivate@?$IOleInPlaceActiveObjectImpl@VCOPOSImageScanner@@@ATL@@UAGJH@Z 1000288c f i ImageScanner.obj
 0001:000018ae       ?ResizeBorder@?$IOleInPlaceActiveObjectImpl@VCOPOSImageScanner@@@ATL@@UAGJPBUtagRECT@@PAUIOleInPlaceUIWindow@@H@Z 100028ae f i ImageScanner.obj
 0001:000018b3       ?Draw@?$IViewObjectExImpl@VCOPOSImageScanner@@@ATL@@UAGJKJPAXPAUtagDVTARGETDEVICE@@PAUHDC__@@2PBU_RECTL@@3P6GHK@ZK@Z 100028b3 f i ImageScanner.obj
 0001:000018e5       ?GetColorSet@?$IViewObjectExImpl@VCOPOSImageScanner@@@ATL@@UAGJKJPAXPAUtagDVTARGETDEVICE@@PAUHDC__@@PAPAUtagLOGPALETTE@@@Z 100028e5 f i ImageScanner.obj
 0001:000018ed       ?Freeze@?$IViewObjectExImpl@VCOPOSImageScanner@@@ATL@@UAGJKJPAXPAK@Z 100028ed f i ImageScanner.obj
 0001:000018f5       ?SetAdvise@?$IViewObjectExImpl@VCOPOSImageScanner@@@ATL@@UAGJKKPAUIAdviseSink@@@Z 100028f5 f i ImageScanner.obj
 0001:00001914       ?GetAdvise@?$IViewObjectExImpl@VCOPOSImageScanner@@@ATL@@UAGJPAK0PAPAUIAdviseSink@@@Z 10002914 f i ImageScanner.obj
 0001:00001949       ?GetExtent@?$IViewObjectExImpl@VCOPOSImageScanner@@@ATL@@UAGJKJPAUtagDVTARGETDEVICE@@PAUtagSIZE@@@Z 10002949 f i ImageScanner.obj
 0001:0000197a       ?GetViewStatus@?$IViewObjectExImpl@VCOPOSImageScanner@@@ATL@@UAGJPAK@Z 1000297a f i ImageScanner.obj
 0001:00001997       ?QueryHitPoint@?$IViewObjectExImpl@VCOPOSImageScanner@@@ATL@@UAGJKPBUtagRECT@@UtagPOINT@@JPAK@Z 10002997 f i ImageScanner.obj
 0001:000019d8       ?QueryHitRect@?$IViewObjectExImpl@VCOPOSImageScanner@@@ATL@@UAGJKPBUtagRECT@@0JPAK@Z 100029d8 f i ImageScanner.obj
 0001:00001a33       ?GetNaturalExtent@?$IViewObjectExImpl@VCOPOSImageScanner@@@ATL@@UAGJKJPAUtagDVTARGETDEVICE@@PAUHDC__@@PAUtagExtentInfo@@PAUtagSIZE@@@Z 10002a33 f i ImageScanner.obj
 0001:00001a7e       ?GetWindow@?$IOleInPlaceObjectWindowlessImpl@VCOPOSImageScanner@@@ATL@@UAGJPAPAUHWND__@@@Z 10002a7e f i ImageScanner.obj
 0001:00001acb       ?InPlaceDeactivate@?$IOleInPlaceObjectWindowlessImpl@VCOPOSImageScanner@@@ATL@@UAGJXZ 10002acb f i ImageScanner.obj
 0001:00001ae5       ?UIDeactivate@?$IOleInPlaceObjectWindowlessImpl@VCOPOSImageScanner@@@ATL@@UAGJXZ 10002ae5 f i ImageScanner.obj
 0001:00001aff       ?SetObjectRects@?$IOleInPlaceObjectWindowlessImpl@VCOPOSImageScanner@@@ATL@@UAGJPBUtagRECT@@0@Z 10002aff f i ImageScanner.obj
 0001:00001b1f       ?ReactivateAndUndo@?$IOleInPlaceObjectWindowlessImpl@VCOPOSImageScanner@@@ATL@@UAGJXZ 10002b1f f i ImageScanner.obj
 0001:00001b27       ?OnWindowMessage@?$IOleInPlaceObjectWindowlessImpl@VCOPOSImageScanner@@@ATL@@UAGJIIJPAJ@Z 10002b27 f i ImageScanner.obj
 0001:00001b97       ?EnumConnectionPoints@?$IConnectionPointContainerImpl@VCOPOSImageScanner@@@ATL@@UAGJPAPAUIEnumConnectionPoints@@@Z 10002b97 f i ImageScanner.obj
 0001:00001d11       ?FindConnectionPoint@?$IConnectionPointContainerImpl@VCOPOSImageScanner@@@ATL@@UAGJABU_GUID@@PAPAUIConnectionPoint@@@Z 10002d11 f i ImageScanner.obj
 0001:00001db4       ?IsDirty@?$IPersistStorageImpl@VCOPOSImageScanner@@@ATL@@UAGJXZ 10002db4 f i ImageScanner.obj
 0001:00001de8       ?InitNew@?$IPersistStorageImpl@VCOPOSImageScanner@@@ATL@@UAGJPAUIStorage@@@Z 10002de8 f i ImageScanner.obj
 0001:00001e1c       ?Load@?$IPersistStorageImpl@VCOPOSImageScanner@@@ATL@@UAGJPAUIStorage@@@Z 10002e1c f i ImageScanner.obj
 0001:00001e88       ?Save@?$IPersistStorageImpl@VCOPOSImageScanner@@@ATL@@UAGJPAUIStorage@@H@Z 10002e88 f i ImageScanner.obj
 0001:00001efb       ?GetPages@?$ISpecifyPropertyPagesImpl@VCOPOSImageScanner@@@ATL@@UAGJPAUtagCAUUID@@@Z 10002efb f i ImageScanner.obj
 0001:00001f12       ?QuickActivate@?$IQuickActivateImpl@VCOPOSImageScanner@@@ATL@@UAGJPAUtagQACONTAINER@@PAUtagQACONTROL@@@Z 10002f12 f i ImageScanner.obj
 0001:00001f35       ?SetContentExtent@?$IQuickActivateImpl@VCOPOSImageScanner@@@ATL@@UAGJPAUtagSIZE@@@Z 10002f35 f i ImageScanner.obj
 0001:00001f61       ?GetContentExtent@?$IQuickActivateImpl@VCOPOSImageScanner@@@ATL@@UAGJPAUtagSIZE@@@Z 10002f61 f i ImageScanner.obj
 0001:00001f81       ?GetData@?$IDataObjectImpl@VCOPOSImageScanner@@@ATL@@UAGJPAUtagFORMATETC@@PAUtagSTGMEDIUM@@@Z 10002f81 f i ImageScanner.obj
 0001:00001fa4       ?DAdvise@?$IDataObjectImpl@VCOPOSImageScanner@@@ATL@@UAGJPAUtagFORMATETC@@KPAUIAdviseSink@@PAK@Z 10002fa4 f i ImageScanner.obj
 0001:00001fe5       ?DUnadvise@?$IDataObjectImpl@VCOPOSImageScanner@@@ATL@@UAGJK@Z 10002fe5 f i ImageScanner.obj
 0001:00002013       ?EnumDAdvise@?$IDataObjectImpl@VCOPOSImageScanner@@@ATL@@UAGJPAPAUIEnumSTATDATA@@@Z 10003013 f i ImageScanner.obj
 0001:00002052       ?GetClassInfoW@?$IProvideClassInfo2Impl@$1?CLSID_OPOSImageScanner@@3U_GUID@@B$1?DIID__IOPOSImageScannerEvents@@3U2@B$1?LIBID_OposImageScanner_CCO@@3U2@B$00$0A@VCComTypeInfoHolder@ATL@@@ATL@@UAGJPAPAUITypeInfo@@@Z 10003052 f i ImageScanner.obj
 0001:00002068       ?GetGUID@?$IProvideClassInfo2Impl@$1?CLSID_OPOSImageScanner@@3U_GUID@@B$1?DIID__IOPOSImageScannerEvents@@3U2@B$1?LIBID_OposImageScanner_CCO@@3U2@B$00$0A@VCComTypeInfoHolder@ATL@@@ATL@@UAGJKPAU_GUID@@@Z 10003068 f i ImageScanner.obj
 0001:000020a6       __get_startup_argv_mode    100030a6 f i LIBCMT:argv_mode.obj
 0001:000020a6       ?FAccessAllowed@?$IObjectSafetyImpl@VCOPOSImageScanner@@$02@ATL@@MAEHXZ 100030a6 f i ImageScanner.obj
 0001:000020aa       ?GetInterfaceSafetyOptions@?$IObjectSafetyImpl@VCOPOSImageScanner@@$02@ATL@@UAGJABU_GUID@@PAK1@Z 100030aa f i ImageScanner.obj
 0001:0000211e       ?SetInterfaceSafetyOptions@?$IObjectSafetyImpl@VCOPOSImageScanner@@$02@ATL@@UAGJABU_GUID@@KK@Z 1000311e f i ImageScanner.obj
 0001:00002198       ?_LocCPQueryInterface@?$IConnectionPointImpl@VCOPOSImageScanner@@$1?IID_IPropertyNotifySink@@3U_GUID@@BVCComDynamicUnkArray@ATL@@@ATL@@UAGJABU_GUID@@PAPAX@Z 10003198 f i ImageScanner.obj
 0001:00002198       ?_LocCPQueryInterface@?$IConnectionPointImpl@VCOPOSImageScanner@@$1?DIID__IOPOSImageScannerEvents@@3U_GUID@@BVCComDynamicUnkArray@ATL@@@ATL@@UAGJABU_GUID@@PAPAX@Z 10003198 f i ImageScanner.obj
 0001:000021e5       ?GetConnectionInterface@?$IConnectionPointImpl@VCOPOSImageScanner@@$1?IID_IPropertyNotifySink@@3U_GUID@@BVCComDynamicUnkArray@ATL@@@ATL@@UAGJPAU_GUID@@@Z 100031e5 f i ImageScanner.obj
 0001:00002209       ?GetConnectionPointContainer@?$IConnectionPointImpl@VCOPOSImageScanner@@$1?IID_IPropertyNotifySink@@3U_GUID@@BVCComDynamicUnkArray@ATL@@@ATL@@UAGJPAPAUIConnectionPointContainer@@@Z 10003209 f i ImageScanner.obj
 0001:0000222c       ?Advise@?$IConnectionPointImpl@VCOPOSImageScanner@@$1?DIID__IOPOSImageScannerEvents@@3U_GUID@@BVCComDynamicUnkArray@ATL@@@ATL@@UAGJPAUIUnknown@@PAK@Z 1000322c f i ImageScanner.obj
 0001:0000222c       ?Advise@?$IConnectionPointImpl@VCOPOSImageScanner@@$1?IID_IPropertyNotifySink@@3U_GUID@@BVCComDynamicUnkArray@ATL@@@ATL@@UAGJPAUIUnknown@@PAK@Z 1000322c f i ImageScanner.obj
 0001:000022cd       ?Unadvise@?$IConnectionPointImpl@VCOPOSImageScanner@@$1?DIID__IOPOSImageScannerEvents@@3U_GUID@@BVCComDynamicUnkArray@ATL@@@ATL@@UAGJK@Z 100032cd f i ImageScanner.obj
 0001:000022cd       ?Unadvise@?$IConnectionPointImpl@VCOPOSImageScanner@@$1?IID_IPropertyNotifySink@@3U_GUID@@BVCComDynamicUnkArray@ATL@@@ATL@@UAGJK@Z 100032cd f i ImageScanner.obj
 0001:0000230d       ?EnumConnections@?$IConnectionPointImpl@VCOPOSImageScanner@@$1?IID_IPropertyNotifySink@@3U_GUID@@BVCComDynamicUnkArray@ATL@@@ATL@@UAGJPAPAUIEnumConnections@@@Z 1000330d f i ImageScanner.obj
 0001:0000230d       ?EnumConnections@?$IConnectionPointImpl@VCOPOSImageScanner@@$1?DIID__IOPOSImageScannerEvents@@3U_GUID@@BVCComDynamicUnkArray@ATL@@@ATL@@UAGJPAPAUIEnumConnections@@@Z 1000330d f i ImageScanner.obj
 0001:00002413       ?GetObjectDescription@?$CComCoClass@VCOPOSImageScanner@@$1?CLSID_OPOSImageScanner@@3U_GUID@@B@ATL@@SGPB_WXZ 10003413 f i ImageScanner.obj
 0001:00002413       ?GetCategoryMap@CComObjectRootBase@ATL@@SAPBU_ATL_CATMAP_ENTRY@2@XZ 10003413 f i ImageScanner.obj
 0001:00002416       ?GetConnectionInterface@?$IConnectionPointImpl@VCOPOSImageScanner@@$1?DIID__IOPOSImageScannerEvents@@3U_GUID@@BVCComDynamicUnkArray@ATL@@@ATL@@UAGJPAU_GUID@@@Z 10003416 f i ImageScanner.obj
 0001:0000243a       ?GetConnectionPointContainer@?$IConnectionPointImpl@VCOPOSImageScanner@@$1?DIID__IOPOSImageScannerEvents@@3U_GUID@@BVCComDynamicUnkArray@ATL@@@ATL@@UAGJPAPAUIConnectionPointContainer@@@Z 1000343a f i ImageScanner.obj
 0001:0000245d       ?UpdateRegistry@COPOSImageScanner@@SGJH@Z 1000345d f i ImageScanner.obj
 0001:00002475       ?ProcessWindowMessage@COPOSImageScanner@@UAEHPAUHWND__@@IIJAAJK@Z 10003475 f i ImageScanner.obj
 0001:000024be       ?SOData@COPOSImageScanner@@MAGJJ@Z 100034be f i ImageScanner.obj
 0001:000024f7       ?SODirectIO@COPOSImageScanner@@MAGJJPAJPAPA_W@Z 100034f7 f i ImageScanner.obj
 0001:00002540       ?SOError@COPOSImageScanner@@MAGJJJJPAJ@Z 10003540 f i ImageScanner.obj
 0001:00002595       ?SOStatusUpdate@COPOSImageScanner@@MAGJJ@Z 10003595 f i ImageScanner.obj
 0001:000025ce       ?CreateInstance@?$CComCreator@V?$CComObjectCached@VCComClassFactory@ATL@@@ATL@@@ATL@@SGJPAXABU_GUID@@PAPAX@Z 100035ce f i ImageScanner.obj
 0001:00002661       ?CreateInstance@?$CComCreator2@V?$CComCreator@V?$CComObject@VCOPOSImageScanner@@@ATL@@@ATL@@V?$CComCreator@V?$CComAggObject@VCOPOSImageScanner@@@ATL@@@2@@ATL@@SGJPAXABU_GUID@@PAPAX@Z 10003661 f i ImageScanner.obj
 0001:00002681       ?Next@?$CComEnumImpl@UIEnumConnectionPoints@@$1?_GUID_b196b285_bab4_101a_b69c_00aa00341d07@@3U__s_GUID@@BPAUIConnectionPoint@@V?$_CopyInterface@UIConnectionPoint@@@ATL@@@ATL@@UAGJKPAPAUIConnectionPoint@@PAK@Z 10003681 f i ImageScanner.obj
 0001:00002758       ?Skip@?$CComEnumImpl@UIEnumConnectionPoints@@$1?_GUID_b196b285_bab4_101a_b69c_00aa00341d07@@3U__s_GUID@@BPAUIConnectionPoint@@V?$_CopyInterface@UIConnectionPoint@@@ATL@@@ATL@@UAGJK@Z 10003758 f i ImageScanner.obj
 0001:00002785       ?Clone@?$CComEnumImpl@UIEnumConnectionPoints@@$1?_GUID_b196b285_bab4_101a_b69c_00aa00341d07@@3U__s_GUID@@BPAUIConnectionPoint@@V?$_CopyInterface@UIConnectionPoint@@@ATL@@@ATL@@UAGJPAPAUIEnumConnectionPoints@@@Z 10003785 f i ImageScanner.obj
 0001:00002866       ?QueryInterface@?$CComObject@V?$CComEnum@UIEnumConnectionPoints@@$1?_GUID_b196b285_bab4_101a_b69c_00aa00341d07@@3U__s_GUID@@BPAUIConnectionPoint@@V?$_CopyInterface@UIConnectionPoint@@@ATL@@VCComSingleThreadModel@6@@ATL@@@ATL@@UAGJABU_GUID@@PAPAX@Z 10003866 f i ImageScanner.obj
 0001:00002880       ??_G?$CComObject@V?$CComEnum@UIEnumConnectionPoints@@$1?_GUID_b196b285_bab4_101a_b69c_00aa00341d07@@3U__s_GUID@@BPAUIConnectionPoint@@V?$_CopyInterface@UIConnectionPoint@@@ATL@@VCComSingleThreadModel@6@@ATL@@@ATL@@UAEPAXI@Z 10003880 f i ImageScanner.obj
 0001:00002880       ??_E?$CComObject@V?$CComEnum@UIEnumConnectionPoints@@$1?_GUID_b196b285_bab4_101a_b69c_00aa00341d07@@3U__s_GUID@@BPAUIConnectionPoint@@V?$_CopyInterface@UIConnectionPoint@@@ATL@@VCComSingleThreadModel@6@@ATL@@@ATL@@UAEPAXI@Z 10003880 f i ImageScanner.obj
 0001:000028a2       ?CreateInstance@CComClassFactory@ATL@@UAGJPAUIUnknown@@ABU_GUID@@PAPAX@Z 100038a2 f i ImageScanner.obj
 0001:000028e0       ?LockServer@CComClassFactory@ATL@@UAGJH@Z 100038e0 f i ImageScanner.obj
 0001:000028ff       ??_ECComClassFactory@ATL@@UAEPAXI@Z 100038ff f i ImageScanner.obj
 0001:000028ff       ??_GCComClassFactory@ATL@@UAEPAXI@Z 100038ff f i ImageScanner.obj
 0001:0000292a       ??$?4UITypeInfo2@@@?$CComPtr@UITypeInfo@@@ATL@@QAEPAUITypeInfo@@ABV?$CComPtr@UITypeInfo2@@@1@@Z 1000392a f i ImageScanner.obj
 0001:00002957       ??$AtlAdd@K@ATL@@YAJPAKKK@Z 10003957 f i ImageScanner.obj
 0001:0000297a       ??$AtlAdd@_K@ATL@@YAJPA_K_K1@Z 1000397a f i ImageScanner.obj
 0001:000029b2       ??$AtlAddThrow@K@ATL@@YAKKK@Z 100039b2 f i ImageScanner.obj
 0001:000029d8       ??$AtlModuleRegisterWndClassInfoT@VAtlModuleRegisterWndClassInfoParamW@ATL@@@ATL@@YAGPAU_ATL_BASE_MODULE70@0@PAU_ATL_WIN_MODULE70@0@PAU_ATL_WNDCLASSINFOW@0@PAP6GJPAUHWND__@@IIJ@ZVAtlModuleRegisterWndClassInfoParamW@0@@Z 100039d8 f i ImageScanner.obj
 0001:00002b26       ??$AtlMultiply@H@ATL@@YAJPAHHH@Z 10003b26 f i ImageScanner.obj
 0001:00002b5e       ??$AtlMultiply@I@ATL@@YAJPAIII@Z 10003b5e f i ImageScanner.obj
 0001:00002b5e       ??$AtlMultiply@K@ATL@@YAJPAKKK@Z 10003b5e f i ImageScanner.obj
 0001:00002b80       ??$AtlMultiplyThrow@I@ATL@@YAIII@Z 10003b80 f i ImageScanner.obj
 0001:00002ba6       ??0?$CComAggObject@VCOPOSImageScanner@@@ATL@@QAE@PAX@Z 10003ba6 f i ImageScanner.obj
 0001:00002bd3       ??0?$CComContainedObject@VCOPOSImageScanner@@@ATL@@QAE@PAX@Z 10003bd3 f i ImageScanner.obj
 0001:00002c8c       ??0?$CComObject@V?$CComEnum@UIEnumConnectionPoints@@$1?_GUID_b196b285_bab4_101a_b69c_00aa00341d07@@3U__s_GUID@@BPAUIConnectionPoint@@V?$_CopyInterface@UIConnectionPoint@@@ATL@@VCComSingleThreadModel@6@@ATL@@@ATL@@QAE@PAX@Z 10003c8c f i ImageScanner.obj
 0001:00002cba       ??0?$CComObject@V?$CComEnum@UIEnumConnections@@$1?_GUID_b196b287_bab4_101a_b69c_00aa00341d07@@3U__s_GUID@@BUtagCONNECTDATA@@V?$_Copy@UtagCONNECTDATA@@@ATL@@VCComSingleThreadModel@6@@ATL@@@ATL@@QAE@PAX@Z 10003cba f i ImageScanner.obj
 0001:00002ce8       ??0?$CComObject@VCOPOSImageScanner@@@ATL@@QAE@PAX@Z 10003ce8 f i ImageScanner.obj
 0001:00002d9f       ??0?$CComQIPtr@UIOleControlSite@@$1?_GUID_b196b289_bab4_101a_b69c_00aa00341d07@@3U__s_GUID@@B@ATL@@QAE@PAUIUnknown@@@Z 10003d9f f i ImageScanner.obj
 0001:00002dc8       ??0CAtlModule@ATL@@QAE@XZ  10003dc8 f i ImageScanner.obj
 0001:00002e09       ??0CParseBuffer@CRegParser@ATL@@QAE@H@Z 10003e09 f i ImageScanner.obj
 0001:00002e3f       ??0_ATL_MSG@ATL@@QAE@PAUHWND__@@IIJH@Z 10003e3f f i ImageScanner.obj
 0001:00002e77       ??1?$CComAggObject@VCOPOSImageScanner@@@ATL@@UAE@XZ 10003e77 f i ImageScanner.obj
 0001:00002e9b       ??1?$CComEnumImpl@UIEnumConnectionPoints@@$1?_GUID_b196b285_bab4_101a_b69c_00aa00341d07@@3U__s_GUID@@BPAUIConnectionPoint@@V?$_CopyInterface@UIConnectionPoint@@@ATL@@@ATL@@UAE@XZ 10003e9b f i ImageScanner.obj
 0001:00002edb       ??1?$CComEnumImpl@UIEnumConnections@@$1?_GUID_b196b287_bab4_101a_b69c_00aa00341d07@@3U__s_GUID@@BUtagCONNECTDATA@@V?$_Copy@UtagCONNECTDATA@@@ATL@@@ATL@@UAE@XZ 10003edb f i ImageScanner.obj
 0001:00002f1b       ??1?$CComObject@V?$CComEnum@UIEnumConnectionPoints@@$1?_GUID_b196b285_bab4_101a_b69c_00aa00341d07@@3U__s_GUID@@BPAUIConnectionPoint@@V?$_CopyInterface@UIConnectionPoint@@@ATL@@VCComSingleThreadModel@6@@ATL@@@ATL@@UAE@XZ 10003f1b f i ImageScanner.obj
 0001:00002f3e       ??1?$CComObject@V?$CComEnum@UIEnumConnections@@$1?_GUID_b196b287_bab4_101a_b69c_00aa00341d07@@3U__s_GUID@@BUtagCONNECTDATA@@V?$_Copy@UtagCONNECTDATA@@@ATL@@VCComSingleThreadModel@6@@ATL@@@ATL@@UAE@XZ 10003f3e f i ImageScanner.obj
 0001:00002f61       ??1?$CComObject@VCOPOSImageScanner@@@ATL@@UAE@XZ 10003f61 f i ImageScanner.obj
 0001:0000301f       ??1?$CComObjectCached@VCComClassFactory@ATL@@@ATL@@UAE@XZ 1000401f f i ImageScanner.obj
 0001:00003035       ??1?$CComObjectRootEx@VCComMultiThreadModel@ATL@@@ATL@@QAE@XZ 10004035 f i ImageScanner.obj
 0001:0000304a       ??1CRegObject@ATL@@UAE@XZ  1000404a f i ImageScanner.obj
 0001:0000306a       ??4?$CComPtr@UIUnknown@@@ATL@@QAEPAUIUnknown@@PAU2@@Z 1000406a f i ImageScanner.obj
 0001:0000306a       ??4?$CComPtr@UIOleClientSite@@@ATL@@QAEPAUIOleClientSite@@PAU2@@Z 1000406a f i ImageScanner.obj
 0001:0000306a       ??4?$CComPtr@UIAdviseSink@@@ATL@@QAEPAUIAdviseSink@@PAU2@@Z 1000406a f i ImageScanner.obj
 0001:0000309e       ??4?$CComQIPtr@UIOleObject@@$1?_GUID_00000112_0000_0000_c000_000000000046@@3U__s_GUID@@B@ATL@@QAEPAUIOleObject@@PAUIUnknown@@@Z 1000409e f i ImageScanner.obj
 0001:000030c3       ??4?$CComQIPtr@UISpecifyPropertyPages@@$1?_GUID_b196b28b_bab4_101a_b69c_00aa00341d07@@3U__s_GUID@@B@ATL@@QAEPAUISpecifyPropertyPages@@PAUIUnknown@@@Z 100040c3 f i ImageScanner.obj
 0001:000030e8       ??_G?$CComContainedObject@VCOPOSImageScanner@@@ATL@@UAEPAXI@Z 100040e8 f i ImageScanner.obj
 0001:000030e8       ??_E?$CComContainedObject@VCOPOSImageScanner@@@ATL@@UAEPAXI@Z 100040e8 f i ImageScanner.obj
 0001:0000310d       ??_E?$CComObject@VCOPOSImageScanner@@@ATL@@UAEPAXI@Z 1000410d f i ImageScanner.obj
 0001:0000310d       ??_G?$CComObject@VCOPOSImageScanner@@@ATL@@UAEPAXI@Z 1000410d f i ImageScanner.obj
 0001:00003132       ?Add@?$CSimpleArray@GV?$CSimpleArrayEqualHelper@G@ATL@@@ATL@@QAEHABG@Z 10004132 f i ImageScanner.obj
 0001:000031b6       ?Add@?$CSimpleMap@PA_WPA_WVCExpansionVectorEqualHelper@ATL@@@ATL@@QAEHABQA_W0@Z 100041b6 f i ImageScanner.obj
 0001:0000320b       ?Add@CComDynamicUnkArray@ATL@@QAEKPAUIUnknown@@@Z 1000420b f i ImageScanner.obj
 0001:000032c1       ?Add@CExpansionVector@ATL@@QAEHPB_W0@Z 100042c1 f i ImageScanner.obj
 0001:000033c5       ?AddString@CParseBuffer@CRegParser@ATL@@QAEHPB_W@Z 100043c5 f i ImageScanner.obj
 0001:000033fa       ?AddValue@CRegParser@ATL@@IAEJAAVCRegKey@2@PB_WPA_W@Z 100043fa f i ImageScanner.obj
 0001:0000371b       ?Allocate@?$CAtlSafeAllocBufferManager@VCCRTAllocator@ATL@@@_ATL_SAFE_ALLOCA_IMPL@ATL@@QAEPAXK@Z 1000471b f i ImageScanner.obj
 0001:00003748       ?Allocate@?$CTempBuffer@E$0BAA@VCCRTAllocator@ATL@@@ATL@@QAEPAEI@Z 10004748 f i ImageScanner.obj
 0001:00003777       ?Allocate@?$CTempBuffer@_W$0BAA@VCCRTAllocator@ATL@@@ATL@@QAEPA_WI@Z 10004777 f i ImageScanner.obj
 0001:000037a6       ?Allocate@?$CTempBuffer@_W$0EAA@VCCRTAllocator@ATL@@@ATL@@QAEPA_WI@Z 100047a6 f i ImageScanner.obj
 0001:000037d5       ?AllocateHeap@?$CTempBuffer@_W$0EAA@VCCRTAllocator@ATL@@@ATL@@AAEXI@Z 100047d5 f i ImageScanner.obj
 0001:000037d5       ?AllocateHeap@?$CTempBuffer@_W$0BAA@VCCRTAllocator@ATL@@@ATL@@AAEXI@Z 100047d5 f i ImageScanner.obj
 0001:000037d5       ?AllocateHeap@?$CTempBuffer@E$0BAA@VCCRTAllocator@ATL@@@ATL@@AAEXI@Z 100047d5 f i ImageScanner.obj
 0001:000037fa       ?Append@CParseBuffer@CRegParser@ATL@@QAEHPB_WH@Z 100047fa f i ImageScanner.obj
 0001:00003888       ?AtlCallTermFunc@ATL@@YGXPAU_ATL_MODULE70@1@@Z 10004888 f i ImageScanner.obj
 0001:000038cc       ?AtlCoTaskMemCAlloc@ATL@@YAPAXKK@Z 100048cc f i ImageScanner.obj
 0001:000038f9       ?AtlCoTaskMemRecalloc@ATL@@YAPAXPAXKK@Z 100048f9 f i ImageScanner.obj
 0001:00003929       ?AtlComModuleGetClassObject@ATL@@YGJPAU_ATL_COM_MODULE70@1@ABU_GUID@@1PAPAX@Z 10004929 f i ImageScanner.obj
 0001:00003a1c       ?AtlComModuleRegisterServer@ATL@@YGJPAU_ATL_COM_MODULE70@1@HPBU_GUID@@@Z 10004a1c f i ImageScanner.obj
 0001:00003aa4       ?AtlComModuleUnregisterServer@ATL@@YGJPAU_ATL_COM_MODULE70@1@HPBU_GUID@@@Z 10004aa4 f i ImageScanner.obj
 0001:00003b2c       ?AtlComQIPtrAssign2@ATL@@YAXPAPAUIUnknown@@PAU2@ABU_GUID@@@Z 10004b2c f i ImageScanner.obj
 0001:00003b5b       ?AtlCreateTargetDC@ATL@@YGPAUHDC__@@PAU2@PAUtagDVTARGETDEVICE@@@Z 10004b5b f i ImageScanner.obj
 0001:00003bc4       ?AtlCrtErrorCheck@ATL@@YAHH@Z 10004bc4 f i ImageScanner.obj
 0001:00003bff       ?AtlHiMetricToPixel@ATL@@YGXPBUtagSIZE@@PAU2@@Z 10004bff f i ImageScanner.obj
 0001:00003c74       ?AtlHresultFromLastError@ATL@@YAJXZ 10004c74 f i ImageScanner.obj
 0001:00003c8b       ?AtlHresultFromWin32@ATL@@YAJK@Z 10004c8b f i ImageScanner.obj
 0001:00003ca0       ?AtlIPersistStreamInit_Load@ATL@@YGJPAUIStream@@PBUATL_PROPMAP_ENTRY@1@PAXPAUIUnknown@@@Z 10004ca0 f i ImageScanner.obj
 0001:00003e80       ?AtlIPersistStreamInit_Save@ATL@@YGJPAUIStream@@HPBUATL_PROPMAP_ENTRY@1@PAXPAUIUnknown@@@Z 10004e80 f i ImageScanner.obj
 0001:00004018       ?AtlInternalOleLoadFromStream@ATL@@YAJPAUIStream@@ABU_GUID@@PAPAXTClassesAllowedInStream@1@K@Z 10005018 f i ImageScanner.obj
 0001:0000413e       ?AtlInternalQueryInterface@ATL@@YGJPAXPBU_ATL_INTMAP_ENTRY@1@ABU_GUID@@PAPAX@Z 1000513e f i ImageScanner.obj
 0001:000041e1       ?AtlLoadTypeLib@ATL@@YGJPAUHINSTANCE__@@PB_WPAPA_WPAPAUITypeLib@@@Z 100051e1 f i ImageScanner.obj
 0001:000043bf       ?AtlModuleAddTermFunc@ATL@@YGJPAU_ATL_MODULE70@1@P6GXK@ZK@Z 100053bf f i ImageScanner.obj
 0001:0000441c       ?AtlRegisterClassCategoriesHelper@ATL@@YGJABU_GUID@@PBU_ATL_CATMAP_ENTRY@1@H@Z 1000541c f i ImageScanner.obj
 0001:000046fc       ?AtlRegisterTypeLib@ATL@@YGJPAUHINSTANCE__@@PB_W@Z 100056fc f i ImageScanner.obj
 0001:00004884       ?AtlThrowImpl@ATL@@YGXJ@Z  10005884 f i ImageScanner.obj
 0001:000048a2       ?AtlUnRegisterTypeLib@ATL@@YGJPAUHINSTANCE__@@PB_W@Z 100058a2 f i ImageScanner.obj
 0001:0000494d       ?AtlWinModuleAddCreateWndData@ATL@@YGXPAU_ATL_WIN_MODULE70@1@PAU_AtlCreateWndData@1@PAX@Z 1000594d f i ImageScanner.obj
 0001:000049a1       ?AtlWinModuleExtractCreateWndData@ATL@@YGPAXPAU_ATL_WIN_MODULE70@1@@Z 100059a1 f i ImageScanner.obj
 0001:00004a04       ?AtlWinModuleRegisterClassExW@ATL@@YGGPAU_ATL_WIN_MODULE70@1@PBUtagWNDCLASSEXW@@@Z 10005a04 f i ImageScanner.obj
 0001:00004a43       ?CanForceRemoveKey@CRegParser@ATL@@IAEHPB_W@Z 10005a43 f i ImageScanner.obj
 0001:00004a72       ?ChToByte@CRegParser@ATL@@KAE_W@Z 10005a72 f i ImageScanner.obj
 0001:00004aa5       ?Cleanup@CComTypeInfoHolder@ATL@@SGXK@Z 10005aa5 f i ImageScanner.obj
 0001:00004ad8       ?ClearReplacements@CExpansionVector@ATL@@QAEJXZ 10005ad8 f i ImageScanner.obj
 0001:00004b15       ?Close@CRegKey@ATL@@QAEJXZ 10005b15 f i ImageScanner.obj
 0001:00004b2f       ?CreateInstance@?$CComCreator@V?$CComAggObject@VCOPOSImageScanner@@@ATL@@@ATL@@SGJPAXABU_GUID@@PAPAX@Z 10005b2f f i ImageScanner.obj
 0001:00004ba5       ?CreateInstance@?$CComCreator@V?$CComObject@VCOPOSImageScanner@@@ATL@@@ATL@@SGJPAXABU_GUID@@PAPAX@Z 10005ba5 f i ImageScanner.obj
 0001:00004c26       ?CreateInstance@?$CComObject@V?$CComEnum@UIEnumConnectionPoints@@$1?_GUID_b196b285_bab4_101a_b69c_00aa00341d07@@3U__s_GUID@@BPAUIConnectionPoint@@V?$_CopyInterface@UIConnectionPoint@@@ATL@@VCComSingleThreadModel@6@@ATL@@@ATL@@SGJPAPAV12@@Z 10005c26 f i ImageScanner.obj
 0001:00004c6d       ?CreateInstance@?$CComObject@V?$CComEnum@UIEnumConnections@@$1?_GUID_b196b287_bab4_101a_b69c_00aa00341d07@@3U__s_GUID@@BUtagCONNECTDATA@@V?$_Copy@UtagCONNECTDATA@@@ATL@@VCComSingleThreadModel@6@@ATL@@@ATL@@SGJPAPAV12@@Z 10005c6d f i ImageScanner.obj
 0001:00004cb4       ?DefaultReflectionHandler@?$CWindowImplRoot@VCWindow@ATL@@@ATL@@SAHPAUHWND__@@IIJAAJ@Z 10005cb4 f i ImageScanner.obj
 0001:00004d27       ?DeleteSubKey@CRegKey@ATL@@QAEJPB_W@Z 10005d27 f i ImageScanner.obj
 0001:00004da0       ?DoEvent@COPOSImageScanner@@IAEXIIJ@Z 10005da0 f i ImageScanner.obj
 0001:00004e20       ?DoVerbHide@?$IOleObjectImpl@VCOPOSImageScanner@@@ATL@@QAEJPBUtagRECT@@PAUHWND__@@@Z 10005e20 f i ImageScanner.obj
 0001:00004e56       ?DoVerbInPlaceActivate@?$IOleObjectImpl@VCOPOSImageScanner@@@ATL@@QAEJPBUtagRECT@@PAUHWND__@@@Z 10005e56 f i ImageScanner.obj
 0001:00004e89       ?DoVerbPrimary@?$IOleObjectImpl@VCOPOSImageScanner@@@ATL@@QAEJPBUtagRECT@@PAUHWND__@@@Z 10005e89 f i ImageScanner.obj
 0001:00004f15       ?DoVerbProperties@CComControlBase@ATL@@QAEJPBUtagRECT@@PAUHWND__@@@Z 10005f15 f i ImageScanner.obj
 0001:0000503c       ?DoVerbShow@?$IOleObjectImpl@VCOPOSImageScanner@@@ATL@@QAEJPBUtagRECT@@PAUHWND__@@@Z 1000603c f i ImageScanner.obj
 0001:00005061       ?DoVerbUIActivate@?$IOleObjectImpl@VCOPOSImageScanner@@@ATL@@QAEJPBUtagRECT@@PAUHWND__@@@Z 10006061 f i ImageScanner.obj
 0001:0000509e       ?DoesVerbActivate@CComControlBase@ATL@@QAEHJ@Z 1000609e f i ImageScanner.obj
 0001:000050bf       ?DoesVerbUIActivate@CComControlBase@ATL@@QAEHJ@Z 100060bf f i ImageScanner.obj
 0001:000050f4       ?EndOfVar@CRegParser@ATL@@IAEHXZ 100060f4 f i ImageScanner.obj
 0001:00005114       ?EscapeSingleQuote@CAtlModule@ATL@@SAXPA_WIPB_W@Z 10006114 f i ImageScanner.obj
 0001:00005163       ?FindKey@?$CSimpleMap@PA_WPA_WVCExpansionVectorEqualHelper@ATL@@@ATL@@QBEHABQA_W@Z 10006163 f i ImageScanner.obj
 0001:0000519a       ?FireTheEvent@?$CProxy_IOPOSEvents@VCOPOSImageScanner@@@@IAEXPAVOposVariant@@IAAJPB_WJ@Z 1000619a f i ImageScanner.obj
 0001:0000522c       ?FireViewChange@CComControlBase@ATL@@QAEJXZ 1000622c f i ImageScanner.obj
 0001:00005275       ?Fire_DataEvent@?$CProxy_IOPOSEvents@VCOPOSImageScanner@@@@QAEXJ@Z 10006275 f i ImageScanner.obj
 0001:00005301       ?Fire_DirectIOEvent@?$CProxy_IOPOSEvents@VCOPOSImageScanner@@@@QAEXJPAJPAPA_W@Z 10006301 f i ImageScanner.obj
 0001:000053e7       ?Fire_ErrorEvent@?$CProxy_IOPOSEvents@VCOPOSImageScanner@@@@QAEXJJJPAJ@Z 100063e7 f i ImageScanner.obj
 0001:000054ce       ?Fire_StatusUpdateEvent@?$CProxy_IOPOSEvents@VCOPOSImageScanner@@@@QAEXJ@Z 100064ce f i ImageScanner.obj
 0001:0000555a       ?FreeHeap@?$CTempBuffer@E$0BAA@VCCRTAllocator@ATL@@@ATL@@AAEXXZ 1000655a f i ImageScanner.obj
 0001:0000555a       ?FreeHeap@?$CTempBuffer@_W$0EAA@VCCRTAllocator@ATL@@@ATL@@AAEXXZ 1000655a f i ImageScanner.obj
 0001:0000555a       ?FreeHeap@?$CTempBuffer@_W$0BAA@VCCRTAllocator@ATL@@@ATL@@AAEXXZ 1000655a f i ImageScanner.obj
 0001:00005563       ?GetAmbientLocaleID@CComControlBase@ATL@@QAEJAAK@Z 10006563 f i ImageScanner.obj
 0001:000055bf       ?GetAmbientUserMode@CComControlBase@ATL@@QAEJAAH@Z 100065bf f i ImageScanner.obj
 0001:0000562f       ?GetAt@CComDynamicUnkArray@ATL@@QAEPAUIUnknown@@H@Z 1000662f f i ImageScanner.obj
 0001:0000564b       ?GetClassObject@CComModule@ATL@@QAEJABU_GUID@@0PAPAX@Z 1000664b f i ImageScanner.obj
 0001:000056ed       ?GetConnMap@COPOSImageScanner@@SAPBU_ATL_CONNMAP_ENTRY@ATL@@PAH@Z 100066ed f i ImageScanner.obj
 0001:0000575d       ?GetCookie@CComDynamicUnkArray@ATL@@QAGKPAPAUIUnknown@@@Z 1000675d f i ImageScanner.obj
 0001:00005795       ?GetIDsOfNames@CComTypeInfoHolder@ATL@@QAEJABU_GUID@@PAPA_WIKPAJ@Z 10006795 f i ImageScanner.obj
 0001:000058a3       ?GetKeyAt@?$CSimpleMap@PA_WPA_WVCExpansionVectorEqualHelper@ATL@@@ATL@@QBEAAPA_WH@Z 100068a3 f i ImageScanner.obj
 0001:000058c8       ?GetPagesHelper@?$ISpecifyPropertyPagesImpl@VCOPOSImageScanner@@@ATL@@IAEJPAUtagCAUUID@@PBUATL_PROPMAP_ENTRY@2@@Z 100068c8 f i ImageScanner.obj
 0001:000059ef       ?GetProperty@?$CComPtr@UIDispatch@@@ATL@@SAJPAUIDispatch@@JPAUtagVARIANT@@@Z 100069ef f i ImageScanner.obj
 0001:00005a3e       ?GetSizeMax@CComVariant@ATL@@QBEJPAT_ULARGE_INTEGER@@@Z 10006a3e f i ImageScanner.obj
 0001:00005bf8       ?GetStreamSize@CComBSTR@ATL@@SAKPA_W@Z 10006bf8 f i ImageScanner.obj
 0001:00005c12       ?GetTI@CComTypeInfoHolder@ATL@@QAEJK@Z 10006c12 f i ImageScanner.obj
 0001:00005dfb       ?GetTI@CComTypeInfoHolder@ATL@@QAEJKPAPAUITypeInfo@@@Z 10006dfb f i ImageScanner.obj
 0001:00005e3d       ?GetUnknown@CComDynamicUnkArray@ATL@@QAGPAUIUnknown@@K@Z 10006e3d f i ImageScanner.obj
 0001:00005e5e       ?GetValueAt@?$CSimpleMap@PA_WPA_WVCExpansionVectorEqualHelper@ATL@@@ATL@@QBEAAPA_WH@Z 10006e5e f i ImageScanner.obj
 0001:00005e84       ?GetZoomInfo@CComControlBase@ATL@@QAEXAAUATL_DRAWINFO@@@Z 10006e84 f i ImageScanner.obj
 0001:00005f17       ?HKeyFromString@CRegParser@ATL@@KAPAUHKEY__@@PA_W@Z 10006f17 f i ImageScanner.obj
 0001:00005f45       ?HasSubKeys@CRegParser@ATL@@IAEHPAUHKEY__@@@Z 10006f45 f i ImageScanner.obj
 0001:00005f7a       ?IDataObject_GetData@CComControlBase@ATL@@QAEJPAUtagFORMATETC@@PAUtagSTGMEDIUM@@@Z 10006f7a f i ImageScanner.obj
 0001:00006120       ?IOleInPlaceObject_InPlaceDeactivate@CComControlBase@ATL@@QAEJXZ 10007120 f i ImageScanner.obj
 0001:000061a7       ?IOleInPlaceObject_SetObjectRects@CComControlBase@ATL@@QAEJPBUtagRECT@@0@Z 100071a7 f i ImageScanner.obj
 0001:00006274       ?IOleInPlaceObject_UIDeactivate@CComControlBase@ATL@@QAEJXZ 10007274 f i ImageScanner.obj
 0001:00006336       ?IOleObject_Advise@CComControlBase@ATL@@QAEJPAUIAdviseSink@@PAK@Z 10007336 f i ImageScanner.obj
 0001:00006360       ?IOleObject_Close@CComControlBase@ATL@@QAEJK@Z 10007360 f i ImageScanner.obj
 0001:00006444       ?IOleObject_GetClientSite@CComControlBase@ATL@@QAEJPAPAUIOleClientSite@@@Z 10007444 f i ImageScanner.obj
 0001:0000646d       ?IOleObject_SetClientSite@CComControlBase@ATL@@QAEJPAUIOleClientSite@@@Z 1000746d f i ImageScanner.obj
 0001:000064ac       ?IOleObject_SetExtent@CComControlBase@ATL@@QAEJKPAUtagSIZE@@@Z 100074ac f i ImageScanner.obj
 0001:00006560       ?IPSI_GetIPersistStreamInit@?$IPersistStorageImpl@VCOPOSImageScanner@@@ATL@@AAEPAUIPersistStreamInit@@XZ 10007560 f i ImageScanner.obj
 0001:000065a2       ?IPersistStreamInit_Load@?$IPersistStreamInitImpl@VCOPOSImageScanner@@@ATL@@QAEJPAUIStream@@PBUATL_PROPMAP_ENTRY@2@@Z 100075a2 f i ImageScanner.obj
 0001:000065ce       ?IPersistStreamInit_Save@?$IPersistStreamInitImpl@VCOPOSImageScanner@@@ATL@@QAEJPAUIStream@@HPBUATL_PROPMAP_ENTRY@2@@Z 100075ce f i ImageScanner.obj
 0001:00006603       ?IQuickActivate_QuickActivate@CComControlBase@ATL@@QAEJPAUtagQACONTAINER@@PAUtagQACONTROL@@@Z 10007603 f i ImageScanner.obj
 0001:00006845       ?IViewObject_Draw@CComControlBase@ATL@@QAEJKJPAXPAUtagDVTARGETDEVICE@@PAUHDC__@@2PBU_RECTL@@3@Z 10007845 f i ImageScanner.obj
 0001:000068ed       ?InPlaceActivate@CComControlBase@ATL@@QAEJJPBUtagRECT@@@Z 100078ed f i ImageScanner.obj
 0001:00006b5e       ?Init@?$CComEnumImpl@UIEnumConnectionPoints@@$1?_GUID_b196b285_bab4_101a_b69c_00aa00341d07@@3U__s_GUID@@BPAUIConnectionPoint@@V?$_CopyInterface@UIConnectionPoint@@@ATL@@@ATL@@QAEJPAPAUIConnectionPoint@@0PAUIUnknown@@W4CComEnumFlags@2@@Z 10007b5e f i ImageScanner.obj
 0001:00006c3d       ?Init@?$CComEnumImpl@UIEnumConnections@@$1?_GUID_b196b287_bab4_101a_b69c_00aa00341d07@@3U__s_GUID@@BUtagCONNECTDATA@@V?$_Copy@UtagCONNECTDATA@@@ATL@@@ATL@@QAEJPAUtagCONNECTDATA@@0PAUIUnknown@@W4CComEnumFlags@2@@Z 10007c3d f i ImageScanner.obj
 0001:00006d1c       ?Init@CComModule@ATL@@QAEJPAU_ATL_OBJMAP_ENTRY30@2@PAUHINSTANCE__@@PBU_GUID@@@Z 10007d1c f i ImageScanner.obj
 0001:00006d7b       ?Init@CDynamicStdCallThunk2@ATL@@QAEHKPAX@Z 10007d7b f i ImageScanner.obj
 0001:00006da6       ?InlineIsEqualUnknown@ATL@@YGHABU_GUID@@@Z 10007da6 f i ImageScanner.obj
 0001:00006dce       ?InternalGetSite@CComControlBase@ATL@@QAEJABU_GUID@@PAPAX@Z 10007dce f i ImageScanner.obj
 0001:00006dfc       ?InternalSetAtIndex@?$CSimpleMap@PA_WPA_WVCExpansionVectorEqualHelper@ATL@@@ATL@@QAEXHABQA_W0@Z 10007dfc f i ImageScanner.obj
 0001:00006e26       ?Invoke@CComTypeInfoHolder@ATL@@QAEJPAUIDispatch@@JABU_GUID@@KGPAUtagDISPPARAMS@@PAUtagVARIANT@@PAUtagEXCEPINFO@@PAI@Z 10007e26 f i ImageScanner.obj
 0001:00006e69       ?IsEqualObject@?$CComPtrBase@UIOleClientSite@@@ATL@@QAE_NPAUIUnknown@@@Z 10007e69 f i ImageScanner.obj
 0001:00006e69       ?IsEqualObject@?$CComPtrBase@UITypeInfo@@@ATL@@QAE_NPAUIUnknown@@@Z 10007e69 f i ImageScanner.obj
 0001:00006ed6       ?IsSpace@CRegParser@ATL@@IAEH_W@Z 10007ed6 f i ImageScanner.obj
 0001:00006f00       ?LoadNameCache@CComTypeInfoHolder@ATL@@QAEJPAUITypeInfo@@@Z 10007f00 f i ImageScanner.obj
 0001:0000704e       ?Lookup@?$CSimpleMap@PA_WPA_WVCExpansionVectorEqualHelper@ATL@@@ATL@@QBEPA_WABQA_W@Z 1000804e f i ImageScanner.obj
 0001:00007074       ?NextToken@CRegParser@ATL@@IAEJPA_W@Z 10008074 f i ImageScanner.obj
 0001:000071ac       ?OnKillFocus@CComControlBase@ATL@@QAEJIIJAAH@Z 100081ac f i ImageScanner.obj
 0001:00007207       ?OnMouseActivate@CComControlBase@ATL@@QAEJIIJAAH@Z 10008207 f i ImageScanner.obj
 0001:00007275       ?OnPaint@CComControlBase@ATL@@QAEJIIJAAH@Z 10008275 f i ImageScanner.obj
 0001:00007327       ?OnSetFocus@CComControlBase@ATL@@QAEJIIJAAH@Z 10008327 f i ImageScanner.obj
 0001:000073b0       ?Open@CRegKey@ATL@@QAEJPAUHKEY__@@PB_WK@Z 100083b0 f i ImageScanner.obj
 0001:00007405       ?PreProcessBuffer@CRegParser@ATL@@QAEJPA_WPAPA_W@Z 10008405 f i ImageScanner.obj
 0001:0000766f       ?ProcessWindowMessage@?$CComControl@VCOPOSImageScanner@@V?$CWindowImpl@VCOPOSImageScanner@@VCWindow@ATL@@V?$CWinTraits@$0FGAAAAAA@$0A@@3@@ATL@@@ATL@@UAEHPAUHWND__@@IIJAAJK@Z 1000866f f i ImageScanner.obj
 0001:0000770e       ?PutProperty@?$CComPtr@UIDispatch@@@ATL@@SAJPAUIDispatch@@JPAUtagVARIANT@@@Z 1000870e f i ImageScanner.obj
 0001:000077a0       ?ReadFromStream@CComBSTR@ATL@@QAEJPAUIStream@@@Z 100087a0 f i ImageScanner.obj
 0001:000078ce       ?ReadFromStream@CComVariant@ATL@@QAEJPAUIStream@@GTClassesAllowedInStream@2@K@Z 100088ce f i ImageScanner.obj
 0001:00007a54       ?RecurseDeleteKey@CRegKey@ATL@@QAEJPB_W@Z 10008a54 f i ImageScanner.obj
 0001:00007b16       ?RegCreateKeyExW@CAtlTransactionManager@ATL@@QAEJPAUHKEY__@@PB_WKPA_WKKQAU_SECURITY_ATTRIBUTES@@PAPAU3@PAK@Z 10008b16 f i ImageScanner.obj
 0001:00007b79       ?RegDeleteKeyW@CAtlTransactionManager@ATL@@QAEJPAUHKEY__@@PB_W@Z 10008b79 f i ImageScanner.obj
 0001:00007bcb       ?RegOpenKeyExW@CAtlTransactionManager@ATL@@QAEJPAUHKEY__@@PB_WKKPAPAU3@@Z 10008bcb f i ImageScanner.obj
 0001:00007c22       ?Register@_ATL_WNDCLASSINFOW@ATL@@QAEGPAP6GJPAUHWND__@@IIJ@Z@Z 10008c22 f i ImageScanner.obj
 0001:00007c42       ?RegisterBuffer@CRegParser@ATL@@QAEJPA_WH@Z 10008c42 f i ImageScanner.obj
 0001:00007d7b       ?RegisterFromResource@CRegObject@ATL@@IAEJPB_W00H@Z 10008d7b f i ImageScanner.obj
 0001:00007eb1       ?RegisterServer@?$CAtlModuleT@VCComModule@ATL@@@ATL@@QAEJHPBU_GUID@@@Z 10008eb1 f i ImageScanner.obj
 0001:00007edf       ?RegisterServer@CComModule@ATL@@QAEJHPBU_GUID@@@Z 10008edf f i ImageScanner.obj
 0001:00007f55       ?RegisterSubkeys@CRegParser@ATL@@IAEJPA_WPAUHKEY__@@HH@Z 10008f55 f i ImageScanner.obj
 0001:00008527       ?Remove@CComDynamicUnkArray@ATL@@QAEHK@Z 10009527 f i ImageScanner.obj
 0001:00008550       ?RemoveAll@?$CSimpleMap@PA_WPA_WVCExpansionVectorEqualHelper@ATL@@@ATL@@QAEXXZ 10009550 f i ImageScanner.obj
 0001:0000857c       ?ResourceRegisterSz@CRegObject@ATL@@QAGJPB_W00@Z 1000957c f i ImageScanner.obj
 0001:000085a9       ?ResourceUnregisterSz@CRegObject@ATL@@QAGJPB_W00@Z 100095a9 f i ImageScanner.obj
 0001:000085d6       ?SendOnDataChange@CComControlBase@ATL@@QAEJK@Z 100095d6 f i ImageScanner.obj
 0001:00008623       ?SetControlFocus@CComControlBase@ATL@@QAEHH@Z 10009623 f i ImageScanner.obj
 0001:000086c0       ?SetMultiStringValue@CRegKey@ATL@@QAEJPB_W0@Z 100096c0 f i ImageScanner.obj
 0001:0000871c       ?SetStringValue@CRegKey@ATL@@QAEJPB_W0K@Z 1000971c f i ImageScanner.obj
 0001:00008765       ?SkipAssignment@CRegParser@ATL@@IAEJPA_W@Z 10009765 f i ImageScanner.obj
 0001:000087ca       ?SkipWhiteSpace@CRegParser@ATL@@IAEXXZ 100097ca f i ImageScanner.obj
 0001:000087ec       ?StrChrW@CRegParser@ATL@@KAPA_WPA_W_W@Z 100097ec f i ImageScanner.obj
 0001:00008829       ?Term@CAtlModule@ATL@@QAEXXZ 10009829 f i ImageScanner.obj
 0001:00008862       ?Term@CComModule@ATL@@QAEXXZ 10009862 f i ImageScanner.obj
 0001:000088ba       ?UnregisterServer@?$CAtlModuleT@VCComModule@ATL@@@ATL@@QAEJHPBU_GUID@@@Z 100098ba f i ImageScanner.obj
 0001:000088e0       ?UnregisterServer@CComModule@ATL@@QAEJHPBU_GUID@@@Z 100098e0 f i ImageScanner.obj
 0001:00008956       ?UpdateRegistryFromResource@CAtlModule@ATL@@QAGJIHPAU_ATL_REGMAP_ENTRY@2@@Z 10009956 f i ImageScanner.obj
 0001:00008b21       ?UpdateRegistryFromResource@CAtlModule@ATL@@QAGJPB_WHPAU_ATL_REGMAP_ENTRY@2@@Z 10009b21 f i ImageScanner.obj
 0001:00008cf2       ?VTFromRegType@CRegParser@ATL@@KAHPB_WAAG@Z 10009cf2 f i ImageScanner.obj
 0001:00008d5f       ?WindowProc@?$CWindowImplBaseT@VCWindow@ATL@@V?$CWinTraits@$0FGAAAAAA@$0A@@2@@ATL@@SGJPAUHWND__@@IIJ@Z 10009d5f f i ImageScanner.obj
 0001:00008e51       ?WriteToStream@CComBSTR@ATL@@QAEJPAUIStream@@@Z 10009e51 f i ImageScanner.obj
 0001:00008ea8       ?WriteToStream@CComVariant@ATL@@QAEJPAUIStream@@@Z 10009ea8 f i ImageScanner.obj
 0001:00009022       ?WriteToStream@CComVariant@ATL@@QAEJPAUIStream@@G@Z 1000a022 f i ImageScanner.obj
 0001:0000908b       ?_AtlInitialConstruct@?$CComObjectRootEx@VCComMultiThreadModel@ATL@@@ATL@@QAEJXZ 1000a08b f i ImageScanner.obj
 0001:000090a0       ?_AtlVerifyStackAvailable@_ATL_SAFE_ALLOCA_IMPL@ATL@@YA_NK@Z 1000a0a0 f i ImageScanner.obj
 0001:0000911e       ?atlCreate@?$CWindowImpl@VCOPOSImageScanner@@VCWindow@ATL@@V?$CWinTraits@$0FGAAAAAA@$0A@@3@@ATL@@QAEPAUHWND__@@PAU3@V_U_RECT@2@PB_WKKV_U_MENUorID@2@PAX@Z 1000a11e f i ImageScanner.obj
 0001:00009162       ?atlCreate@?$CWindowImplBaseT@VCWindow@ATL@@V?$CWinTraits@$0FGAAAAAA@$0A@@2@@ATL@@QAEPAUHWND__@@PAU3@V_U_RECT@2@PB_WKKV_U_MENUorID@2@GPAX@Z 1000a162 f i ImageScanner.obj
 0001:000091fe       ?atlCreate@CRegKey@ATL@@QAEJPAUHKEY__@@PB_WPA_WKKPAU_SECURITY_ATTRIBUTES@@PAK@Z 1000a1fe f i ImageScanner.obj
 0001:0000926d       ?copy@?$_Copy@UtagCONNECTDATA@@@ATL@@SAJPAUtagCONNECTDATA@@PBU3@@Z 1000a26d f i ImageScanner.obj
 0001:000092a3       ?copy@?$_CopyInterface@UIConnectionPoint@@@ATL@@SAJPAPAUIConnectionPoint@@PBQAU3@@Z 1000a2a3 f i ImageScanner.obj
 0001:000092d1       ?memcpy_s@Checked@ATL@@YAXPAXIPBXI@Z 1000a2d1 f i ImageScanner.obj
 0001:000092f0       ?ocscpy_s@@YA_NPA_WIPB_W@Z 1000a2f0 f i ImageScanner.obj
 0001:0000931f       ?ocslen@@YAHPB_W@Z         1000a31f f i ImageScanner.obj
 0001:0000933f       ?wcscpy_s@Checked@ATL@@YAXPA_WIPB_W@Z 1000a33f f i ImageScanner.obj
 0001:0000935b       _DllCanUnloadNow@0         1000a35b f   ImageScanner.obj
 0001:00009367       _DllGetClassObject@12      1000a367 f   ImageScanner.obj
 0001:00009375       _DllMain@12                1000a375 f   ImageScanner.obj
 0001:000093b7       _DllRegisterServer@0       1000a3b7 f   ImageScanner.obj
 0001:000093c6       _DllUnregisterServer@0     1000a3c6 f   ImageScanner.obj
 0001:000093d5       _InlineIsEqualGUID         1000a3d5 f i ImageScanner.obj
 0001:00009405       ___local_stdio_printf_options 1000a405 f i ImageScanner.obj
 0001:0000940b       __vswprintf_s_l            1000a40b f i ImageScanner.obj
 0001:000094b8       _swprintf_s                1000a4b8 f i ImageScanner.obj
 0001:000094d4       ??0?$CComControl@VCOPOSImageScanner@@V?$CWindowImpl@VCOPOSImageScanner@@VCWindow@ATL@@V?$CWinTraits@$0FGAAAAAA@$0A@@3@@ATL@@@ATL@@QAE@XZ 1000a4d4 f i ImageScannerImpl.obj
 0001:000094fb       ??0?$CProxy_IOPOSEvents@VCOPOSImageScanner@@@@QAE@XZ 1000a4fb f i ImageScannerImpl.obj
 0001:0000951b       ??0CComControlBase@ATL@@QAE@AAPAUHWND__@@@Z 1000a51b f i ImageScannerImpl.obj
 0001:00009565       ??0COPOSImageScanner@@QAE@XZ 1000a565 f   ImageScannerImpl.obj
 0001:0000959b       ??1?$CComControl@VCOPOSImageScanner@@V?$CWindowImpl@VCOPOSImageScanner@@VCWindow@ATL@@V?$CWinTraits@$0FGAAAAAA@$0A@@3@@ATL@@@ATL@@UAE@XZ 1000a59b f i ImageScannerImpl.obj
 0001:000095b4       ??1?$IConnectionPointImpl@VCOPOSImageScanner@@$1?IID_IPropertyNotifySink@@3U_GUID@@BVCComDynamicUnkArray@ATL@@@ATL@@QAE@XZ 1000a5b4 f i ImageScannerImpl.obj
 0001:000095b4       ??1?$IConnectionPointImpl@VCOPOSImageScanner@@$1?DIID__IOPOSImageScannerEvents@@3U_GUID@@BVCComDynamicUnkArray@ATL@@@ATL@@QAE@XZ 1000a5b4 f i ImageScannerImpl.obj
 0001:000095f1       ??1CComControlBase@ATL@@UAE@XZ 1000a5f1 f i ImageScannerImpl.obj
 0001:00009654       ??1COPOSImageScanner@@UAE@XZ 1000a654 f   ImageScannerImpl.obj
 0001:0000969c       ??1OposVariantResult@@QAE@XZ 1000a69c f i ImageScannerImpl.obj
 0001:000096bd       ??1_CW@@QAE@XZ             1000a6bd f i ImageScannerImpl.obj
 0001:000096d6       ?CheckHealth@COPOSImageScanner@@UAGJJPAJ@Z 1000a6d6 f   ImageScannerImpl.obj
 0001:00009725       ?ClaimDevice@COPOSImageScanner@@UAGJJPAJ@Z 1000a725 f   ImageScannerImpl.obj
 0001:0000979a       ?ClearInput@COPOSImageScanner@@UAGJPAJ@Z 1000a79a f   ImageScannerImpl.obj
 0001:000097b5       ?ClearInputProperties@COPOSImageScanner@@UAGJPAJ@Z 1000a7b5 f   ImageScannerImpl.obj
 0001:000097d0       ?Close@COPOSImageScanner@@UAGJPAJ@Z 1000a7d0 f   ImageScannerImpl.obj
 0001:0000983e       ?CompareFirmwareVersion@COPOSImageScanner@@UAGJPA_WPAJ1@Z 1000a83e f   ImageScannerImpl.obj
 0001:000098be       ?DirectIO@COPOSImageScanner@@UAGJJPAJPAPA_W0@Z 1000a8be f   ImageScannerImpl.obj
 0001:0000996c       ?DoInvoke@COPOSImageScanner@@IAEJJPAVOposVariant@@IHPAJ_N@Z 1000a96c f   ImageScannerImpl.obj
 0001:00009a2e       ?EventClose@COPOSImageScanner@@IAEXXZ 1000aa2e f i ImageScannerImpl.obj
 0001:00009a61       ?EventInit@COPOSImageScanner@@IAEJXZ 1000aa61 f i ImageScannerImpl.obj
 0001:00009b2d       ?EventUninit@COPOSImageScanner@@IAEXXZ 1000ab2d f i ImageScannerImpl.obj
 0001:00009b7f       ?EventWindowProc@COPOSImageScanner@@IAGJIIJ@Z 1000ab7f f i ImageScannerImpl.obj
 0001:00009c53       ?FinalConstruct@COPOSImageScanner@@QAEJXZ 1000ac53 f   ImageScannerImpl.obj
 0001:00009c8c       ?FireEventCleanup@COPOSImageScanner@@IAEXXZ 1000ac8c f i ImageScannerImpl.obj
 0001:00009ca2       ?FireEventSetup@COPOSImageScanner@@IAE_NXZ 1000aca2 f i ImageScannerImpl.obj
 0001:00009cd6       ?FreezeEvents@COPOSImageScanner@@MAGJH@Z 1000acd6 f   ImageScannerImpl.obj
 0001:00009d36       ?GetOposProp@COPOSImageScanner@@IAEJJPAFJ@Z 1000ad36 f   ImageScannerImpl.obj
 0001:00009d59       ?GetOposProp@COPOSImageScanner@@IAEJJPAJJ@Z 1000ad59 f   ImageScannerImpl.obj
 0001:00009e17       ?GetOposProp@COPOSImageScanner@@IAEJJPAPA_WJ@Z 1000ae17 f   ImageScannerImpl.obj
 0001:00009ee2       ?OnDraw@COPOSImageScanner@@MAEJAAUATL_DRAWINFO@@@Z 1000aee2 f   ImageScannerImpl.obj
 0001:00009f82       ?Open@COPOSImageScanner@@UAGJPA_WPAJ@Z 1000af82 f   ImageScannerImpl.obj
 0001:0000a71b       ?ReleaseDevice@COPOSImageScanner@@UAGJPAJ@Z 1000b71b f   ImageScannerImpl.obj
 0001:0000a76a       ?ResetStatistics@COPOSImageScanner@@UAGJPA_WPAJ@Z 1000b76a f   ImageScannerImpl.obj
 0001:0000a7c1       ?RetrieveStatistics@COPOSImageScanner@@UAGJPAPA_WPAJ@Z 1000b7c1 f   ImageScannerImpl.obj
 0001:0000a818       ?SOProcessID@COPOSImageScanner@@UAGJPAJ@Z 1000b818 f   ImageScannerImpl.obj
 0001:0000a82c       ?SetCOFreezeEvents@COPOSImageScanner@@IAEXF@Z 1000b82c f   ImageScannerImpl.obj
 0001:0000a8b7       ?SetOposProp@COPOSImageScanner@@IAEJJJJ@Z 1000b8b7 f   ImageScannerImpl.obj
 0001:0000a995       ?StartSession@COPOSImageScanner@@UAGJPAJ@Z 1000b995 f   ImageScannerImpl.obj
 0001:0000a9b0       ?StopSession@COPOSImageScanner@@UAGJPAJ@Z 1000b9b0 f   ImageScannerImpl.obj
 0001:0000a9cb       ?UpdateFirmware@COPOSImageScanner@@UAGJPA_WPAJ@Z 1000b9cb f   ImageScannerImpl.obj
 0001:0000aa22       ?UpdateStatistics@COPOSImageScanner@@UAGJPA_WPAJ@Z 1000ba22 f   ImageScannerImpl.obj
 0001:0000aa79       ?get_AimMode@COPOSImageScanner@@UAGJPAF@Z 1000ba79 f   ImageScannerImpl.obj
 0001:0000aa92       ?get_AutoDisable@COPOSImageScanner@@UAGJPAF@Z 1000ba92 f   ImageScannerImpl.obj
 0001:0000aaa8       ?get_BinaryConversion@COPOSImageScanner@@UAGJPAJ@Z 1000baa8 f   ImageScannerImpl.obj
 0001:0000aabe       ?get_BitsPerPixel@COPOSImageScanner@@UAGJPAJ@Z 1000babe f   ImageScannerImpl.obj
 0001:0000aad7       ?get_CapAim@COPOSImageScanner@@UAGJPAF@Z 1000bad7 f   ImageScannerImpl.obj
 0001:0000aaf0       ?get_CapCompareFirmwareVersion@COPOSImageScanner@@UAGJPAF@Z 1000baf0 f   ImageScannerImpl.obj
 0001:0000ab09       ?get_CapDecodeData@COPOSImageScanner@@UAGJPAF@Z 1000bb09 f   ImageScannerImpl.obj
 0001:0000ab22       ?get_CapHostTriggered@COPOSImageScanner@@UAGJPAF@Z 1000bb22 f   ImageScannerImpl.obj
 0001:0000ab3b       ?get_CapIlluminate@COPOSImageScanner@@UAGJPAF@Z 1000bb3b f   ImageScannerImpl.obj
 0001:0000ab54       ?get_CapImageData@COPOSImageScanner@@UAGJPAF@Z 1000bb54 f   ImageScannerImpl.obj
 0001:0000ab6d       ?get_CapImageQuality@COPOSImageScanner@@UAGJPAF@Z 1000bb6d f   ImageScannerImpl.obj
 0001:0000ab86       ?get_CapPowerReporting@COPOSImageScanner@@UAGJPAJ@Z 1000bb86 f   ImageScannerImpl.obj
 0001:0000ab9f       ?get_CapStatisticsReporting@COPOSImageScanner@@UAGJPAF@Z 1000bb9f f   ImageScannerImpl.obj
 0001:0000abb8       ?get_CapUpdateFirmware@COPOSImageScanner@@UAGJPAF@Z 1000bbb8 f   ImageScannerImpl.obj
 0001:0000abd1       ?get_CapUpdateStatistics@COPOSImageScanner@@UAGJPAF@Z 1000bbd1 f   ImageScannerImpl.obj
 0001:0000abea       ?get_CapVideoData@COPOSImageScanner@@UAGJPAF@Z 1000bbea f   ImageScannerImpl.obj
 0001:0000ac03       ?get_CheckHealthText@COPOSImageScanner@@UAGJPAPA_W@Z 1000bc03 f   ImageScannerImpl.obj
 0001:0000ac1c       ?get_Claimed@COPOSImageScanner@@UAGJPAF@Z 1000bc1c f   ImageScannerImpl.obj
 0001:0000ac32       ?get_ControlObjectDescription@COPOSImageScanner@@UAGJPAPA_W@Z 1000bc32 f   ImageScannerImpl.obj
 0001:0000ac6f       ?get_ControlObjectVersion@COPOSImageScanner@@UAGJPAJ@Z 1000bc6f f   ImageScannerImpl.obj
 0001:0000ac82       ?get_DataCount@COPOSImageScanner@@UAGJPAJ@Z 1000bc82 f   ImageScannerImpl.obj
 0001:0000ac98       ?get_DataEventEnabled@COPOSImageScanner@@UAGJPAF@Z 1000bc98 f   ImageScannerImpl.obj
 0001:0000acae       ?get_DeviceDescription@COPOSImageScanner@@UAGJPAPA_W@Z 1000bcae f   ImageScannerImpl.obj
 0001:0000acc7       ?get_DeviceEnabled@COPOSImageScanner@@UAGJPAF@Z 1000bcc7 f   ImageScannerImpl.obj
 0001:0000acdd       ?get_DeviceName@COPOSImageScanner@@UAGJPAPA_W@Z 1000bcdd f   ImageScannerImpl.obj
 0001:0000acf6       ?get_FrameData@COPOSImageScanner@@UAGJPAPA_W@Z 1000bcf6 f   ImageScannerImpl.obj
 0001:0000ad0f       ?get_FrameType@COPOSImageScanner@@UAGJPAJ@Z 1000bd0f f   ImageScannerImpl.obj
 0001:0000ad28       ?get_FreezeEvents@COPOSImageScanner@@UAGJPAF@Z 1000bd28 f   ImageScannerImpl.obj
 0001:0000ad3e       ?get_IlluminateMode@COPOSImageScanner@@UAGJPAF@Z 1000bd3e f   ImageScannerImpl.obj
 0001:0000ad57       ?get_ImageHeight@COPOSImageScanner@@UAGJPAJ@Z 1000bd57 f   ImageScannerImpl.obj
 0001:0000ad70       ?get_ImageLength@COPOSImageScanner@@UAGJPAJ@Z 1000bd70 f   ImageScannerImpl.obj
 0001:0000ad89       ?get_ImageMode@COPOSImageScanner@@UAGJPAJ@Z 1000bd89 f   ImageScannerImpl.obj
 0001:0000ada2       ?get_ImageQuality@COPOSImageScanner@@UAGJPAJ@Z 1000bda2 f   ImageScannerImpl.obj
 0001:0000adbb       ?get_ImageType@COPOSImageScanner@@UAGJPAJ@Z 1000bdbb f   ImageScannerImpl.obj
 0001:0000add4       ?get_ImageWidth@COPOSImageScanner@@UAGJPAJ@Z 1000bdd4 f   ImageScannerImpl.obj
 0001:0000aded       ?get_OpenResult@COPOSImageScanner@@UAGJPAJ@Z 1000bded f   ImageScannerImpl.obj
 0001:0000ae04       ?get_PowerNotify@COPOSImageScanner@@UAGJPAJ@Z 1000be04 f   ImageScannerImpl.obj
 0001:0000ae1a       ?get_PowerState@COPOSImageScanner@@UAGJPAJ@Z 1000be1a f   ImageScannerImpl.obj
 0001:0000ae30       ?get_ResultCode@COPOSImageScanner@@UAGJPAJ@Z 1000be30 f   ImageScannerImpl.obj
 0001:0000ae6e       ?get_ResultCodeExtended@COPOSImageScanner@@UAGJPAJ@Z 1000be6e f   ImageScannerImpl.obj
 0001:0000ae84       ?get_ServiceObjectDescription@COPOSImageScanner@@UAGJPAPA_W@Z 1000be84 f   ImageScannerImpl.obj
 0001:0000ae9d       ?get_ServiceObjectVersion@COPOSImageScanner@@UAGJPAJ@Z 1000be9d f   ImageScannerImpl.obj
 0001:0000aeb3       ?get_State@COPOSImageScanner@@UAGJPAJ@Z 1000beb3 f   ImageScannerImpl.obj
 0001:0000aedf       ?get_VideoCount@COPOSImageScanner@@UAGJPAJ@Z 1000bedf f   ImageScannerImpl.obj
 0001:0000aef8       ?get_VideoRate@COPOSImageScanner@@UAGJPAJ@Z 1000bef8 f   ImageScannerImpl.obj
 0001:0000af11       ?put_AimMode@COPOSImageScanner@@UAGJF@Z 1000bf11 f   ImageScannerImpl.obj
 0001:0000af31       ?put_AutoDisable@COPOSImageScanner@@UAGJF@Z 1000bf31 f   ImageScannerImpl.obj
 0001:0000af4e       ?put_BinaryConversion@COPOSImageScanner@@UAGJJ@Z 1000bf4e f   ImageScannerImpl.obj
 0001:0000af64       ?put_DataEventEnabled@COPOSImageScanner@@UAGJF@Z 1000bf64 f   ImageScannerImpl.obj
 0001:0000af81       ?put_DeviceEnabled@COPOSImageScanner@@UAGJF@Z 1000bf81 f   ImageScannerImpl.obj
 0001:0000af9e       ?put_FreezeEvents@COPOSImageScanner@@UAGJF@Z 1000bf9e f   ImageScannerImpl.obj
 0001:0000afea       ?put_IlluminateMode@COPOSImageScanner@@UAGJF@Z 1000bfea f   ImageScannerImpl.obj
 0001:0000b00a       ?put_ImageMode@COPOSImageScanner@@UAGJJ@Z 1000c00a f   ImageScannerImpl.obj
 0001:0000b023       ?put_ImageQuality@COPOSImageScanner@@UAGJJ@Z 1000c023 f   ImageScannerImpl.obj
 0001:0000b03c       ?put_PowerNotify@COPOSImageScanner@@UAGJJ@Z 1000c03c f   ImageScannerImpl.obj
 0001:0000b052       ?put_VideoCount@COPOSImageScanner@@UAGJJ@Z 1000c052 f   ImageScannerImpl.obj
 0001:0000b06b       ?put_VideoRate@COPOSImageScanner@@UAGJJ@Z 1000c06b f   ImageScannerImpl.obj
 0001:0000b084       ?s_EventWindowProc@COPOSImageScanner@@KGJPAUHWND__@@IIJ@Z 1000c084 f i ImageScannerImpl.obj
 0001:0000b0d6       ??_U@YAPAXI@Z              1000c0d6 f   LIBCMT:new_array.obj
 0001:0000b0df       ??3@YAXPAXI@Z              1000c0df f   LIBCMT:delete_scalar_size.obj
 0001:0000b0ed       ??_V@YAXPAX@Z              1000c0ed f   LIBCMT:delete_array.obj
 0001:0000b0f2       ??_V@YAXPAXI@Z             1000c0f2 f   LIBCMT:delete_array_size.obj
 0001:0000b144       ___scrt_acquire_startup_lock 1000c144 f   LIBCMT:utility.obj
 0001:0000b176       ___scrt_dllmain_after_initialize_c 1000c176 f   LIBCMT:utility.obj
 0001:0000b1a1       ___scrt_dllmain_before_initialize_c 1000c1a1 f   LIBCMT:utility.obj
 0001:0000b1af       ___scrt_dllmain_crt_thread_attach 1000c1af f   LIBCMT:utility.obj
 0001:0000b1ce       ___scrt_dllmain_crt_thread_detach 1000c1ce f   LIBCMT:utility.obj
 0001:0000b1db       ___scrt_dllmain_exception_filter 1000c1db f   LIBCMT:utility.obj
 0001:0000b20f       ___scrt_dllmain_uninitialize_c 1000c20f f   LIBCMT:utility.obj
 0001:0000b232       ___scrt_dllmain_uninitialize_critical 1000c232 f   LIBCMT:utility.obj
 0001:0000b23f       ___scrt_initialize_crt     1000c23f f   LIBCMT:utility.obj
 0001:0000b278       ___scrt_initialize_onexit_tables 1000c278 f   LIBCMT:utility.obj
 0001:0000b2ff       ___scrt_is_nonwritable_in_current_image 1000c2ff f   LIBCMT:utility.obj
 0001:0000b393       ___scrt_release_startup_lock 1000c393 f   LIBCMT:utility.obj
 0001:0000b3b0       ___scrt_uninitialize_crt   1000c3b0 f   LIBCMT:utility.obj
 0001:0000b3d8       __onexit                   1000c3d8 f   LIBCMT:utility.obj
 0001:0000b405       _atexit                    1000c405 f   LIBCMT:utility.obj
 0001:0000b41a       ??3@YAXPAX@Z               1000c41a f   LIBCMT:delete_scalar.obj
 0001:0000b4e4       __Init_thread_footer       1000c4e4 f   LIBCMT:thread_safe_statics.obj
 0001:0000b52e       __Init_thread_header       1000c52e f   LIBCMT:thread_safe_statics.obj
 0001:0000b580       __Init_thread_notify       1000c580 f   LIBCMT:thread_safe_statics.obj
 0001:0000b5b6       __Init_thread_wait         1000c5b6 f   LIBCMT:thread_safe_statics.obj
 0001:0000b604       ___raise_securityfailure   1000c604 f   LIBCMT:gs_report.obj
 0001:0000b62c       ___report_gsfailure        1000c62c f   LIBCMT:gs_report.obj
 0001:0000b725       ___report_rangecheckfailure 1000c725 f   LIBCMT:gs_report.obj
 0001:0000b731       ___report_securityfailure  1000c731 f   LIBCMT:gs_report.obj
 0001:0000b7ff       ??2@YAPAXIABUnothrow_t@std@@@Z 1000c7ff f   LIBCMT:new_scalar_nothrow.obj
 0001:0000b84f       ??_U@YAPAXIABUnothrow_t@std@@@Z 1000c84f f   LIBCMT:new_array_nothrow.obj
 0001:0000b858       @__security_check_cookie@4 1000c858 f   LIBCMT:secchk.obj
 0001:0000b870       __SEH_prolog4_GS           1000c870 f   LIBCMT:sehprolg4gs.obj
 0001:0000b8b9       __SEH_epilog4_GS           1000c8b9 f   LIBCMT:sehprolg4gs.obj
 0001:0000b8d0       __alloca_probe_16          1000c8d0 f   LIBCMT:alloca16.obj
 0001:0000b8e6       __alloca_probe_8           1000c8e6     LIBCMT:alloca16.obj
 0001:0000b900       __chkstk                   1000c900 f   LIBCMT:chkstk.obj
 0001:0000b900       __alloca_probe             1000c900 f   LIBCMT:chkstk.obj
 0001:0000bc48       __DllMainCRTStartup@12     1000cc48 f   LIBCMT:dll_dllmain.obj
 0001:0000bc6b       ??2@YAPAXI@Z               1000cc6b f   LIBCMT:new_scalar.obj
 0001:0000bc9b       ___isa_available_init      1000cc9b f   LIBCMT:cpu_disp.obj
 0001:0000be32       ___scrt_is_ucrt_dll_in_use 1000ce32 f   LIBCMT:ucrt_detection.obj
 0001:0000be3e       ___scrt_fastfail           1000ce3e f   LIBCMT:utility_desktop.obj
 0001:0000bf58       __crt_debugger_hook        1000cf58 f   LIBCMT:utility_desktop.obj
 0001:0000bf60       __SEH_prolog4              1000cf60 f   LIBCMT:sehprolg4.obj
 0001:0000bfa6       __SEH_epilog4              1000cfa6 f   LIBCMT:sehprolg4.obj
 0001:0000bfbb       @_guard_check_icall_nop@4  1000cfbb f i LIBCMT:guard_support.obj
 0001:0000c009       ___security_init_cookie    1000d009 f   LIBCMT:gs_support.obj
 0001:0000c054       ?__scrt_initialize_type_info@@YAXXZ 1000d054 f   LIBCMT:tncleanup.obj
 0001:0000c060       ?__scrt_uninitialize_type_info@@YAXXZ 1000d060 f   LIBCMT:tncleanup.obj
 0001:0000c06c       ___local_stdio_scanf_options 1000d06c f i LIBCMT:default_local_stdio_options.obj
 0001:0000c072       ___scrt_initialize_default_local_stdio_options 1000d072 f   LIBCMT:default_local_stdio_options.obj
 0001:0000c08f       ___scrt_get_dyn_tls_init_callback 1000d08f f   LIBCMT:dyn_tls_init.obj
 0001:0000c095       __RTC_Initialize           1000d095 f   LIBCMT:initsect.obj
 0001:0000c0c1       __RTC_Terminate            1000d0c1 f   LIBCMT:initsect.obj
 0001:0000c0ed       ??0bad_alloc@std@@QAE@ABV01@@Z 1000d0ed f i LIBCMT:throw_bad_alloc.obj
 0001:0000c108       ??0bad_alloc@std@@QAE@XZ   1000d108 f i LIBCMT:throw_bad_alloc.obj
 0001:0000c120       ??0bad_array_new_length@std@@QAE@ABV01@@Z 1000d120 f i LIBCMT:throw_bad_alloc.obj
 0001:0000c13b       ??0bad_array_new_length@std@@QAE@XZ 1000d13b f i LIBCMT:throw_bad_alloc.obj
 0001:0000c153       ??0exception@std@@QAE@ABV01@@Z 1000d153 f i LIBCMT:throw_bad_alloc.obj
 0001:0000c17f       ??1bad_exception@std@@UAE@XZ 1000d17f f i libvcruntime:frame.obj
 0001:0000c17f       ??1bad_alloc@std@@UAE@XZ   1000d17f f i LIBCMT:throw_bad_alloc.obj
 0001:0000c17f       ??1bad_array_new_length@std@@UAE@XZ 1000d17f f i LIBCMT:throw_bad_alloc.obj
 0001:0000c190       ??_Ebad_alloc@std@@UAEPAXI@Z 1000d190 f i LIBCMT:throw_bad_alloc.obj
 0001:0000c190       ??_Ebad_exception@std@@UAEPAXI@Z 1000d190 f i libvcruntime:frame.obj
 0001:0000c190       ??_Gexception@std@@UAEPAXI@Z 1000d190 f i LIBCMT:throw_bad_alloc.obj
 0001:0000c190       ??_Ebad_array_new_length@std@@UAEPAXI@Z 1000d190 f i LIBCMT:throw_bad_alloc.obj
 0001:0000c190       ??_Eexception@std@@UAEPAXI@Z 1000d190 f i LIBCMT:throw_bad_alloc.obj
 0001:0000c190       ??_Gbad_array_new_length@std@@UAEPAXI@Z 1000d190 f i LIBCMT:throw_bad_alloc.obj
 0001:0000c190       ??_Gbad_alloc@std@@UAEPAXI@Z 1000d190 f i LIBCMT:throw_bad_alloc.obj
 0001:0000c190       ??_Gbad_exception@std@@UAEPAXI@Z 1000d190 f i libvcruntime:frame.obj
 0001:0000c1bd       ?__scrt_throw_std_bad_alloc@@YAXXZ 1000d1bd f   LIBCMT:throw_bad_alloc.obj
 0001:0000c1da       ?__scrt_throw_std_bad_array_new_length@@YAXXZ 1000d1da f   LIBCMT:throw_bad_alloc.obj
 0001:0000c1f7       ?what@exception@std@@UBEPBDXZ 1000d1f7 f i LIBCMT:throw_bad_alloc.obj
 0001:0000c204       ??_Etype_info@@UAEPAXI@Z   1000d204 f i LIBCMT:std_type_info_static.obj
 0001:0000c204       ??_Gtype_info@@UAEPAXI@Z   1000d204 f i LIBCMT:std_type_info_static.obj
 0001:0000c227       ??0CAtlBaseModule@ATL@@QAE@XZ 1000d227 f   atls:atlbase.obj
 0001:0000c27a       ??0_ATL_BASE_MODULE70@ATL@@QAE@XZ 1000d27a f i atls:atlbase.obj
 0001:0000c29d       ??1CAtlBaseModule@ATL@@QAE@XZ 1000d29d f   atls:atlbase.obj
 0001:0000c38a       ?Init@_stdcallthunk@ATL@@QAEHKPAX@Z 1000d38a f i atls:atlthunk.obj
 0001:0000c3bf       ?__AllocStdCallThunk_cmn@@YAPAXXZ 1000d3bf f   atls:atlthunk.obj
 0001:0000c485       ?__FreeStdCallThunk_cmn@@YAXPAX@Z 1000d485 f   atls:atlthunk.obj
 0001:0000c520       _AtlThunk_AllocateData@0   1000d520 f   atls:atlthunk.obj
 0001:0000c585       _AtlThunk_DataToCode@4     1000d585 f   atls:atlthunk.obj
 0001:0000c5cc       _AtlThunk_FreeData@4       1000d5cc f   atls:atlthunk.obj
 0001:0000c622       _AtlThunk_InitData@12      1000d622 f   atls:atlthunk.obj
 0001:0000c671       __purecall                 1000d671 f   libvcruntime:purevirt.obj
 0001:0000c68c       _wcsstr                    1000d68c f   libvcruntime:wcsstr.obj
 0001:0000c950       __except_handler4          1000d950 f   libvcruntime:chandler4.obj
 0001:0000caae       _memcmp                    1000daae f   libvcruntime:memcmp.obj
 0001:0000da60       _memcpy                    1000ea60 f   libvcruntime:memcpy.obj
 0001:0000dfe0       _memset                    1000efe0 f   libvcruntime:memset.obj
 0001:0000e13a       ___vcrt_initialize         1000f13a f   libvcruntime:initialization.obj
 0001:0000e159       ___vcrt_thread_attach      1000f159 f   libvcruntime:initialization.obj
 0001:0000e164       ___vcrt_thread_detach      1000f164 f   libvcruntime:initialization.obj
 0001:0000e16f       ___vcrt_uninitialize       1000f16f f   libvcruntime:initialization.obj
 0001:0000e186       ___vcrt_uninitialize_critical 1000f186 f   libvcruntime:initialization.obj
 0001:0000e18e       ?GetRangeOfTrysToCheck@__FrameHandler3@@SA?AU?$pair@Viterator@TryBlockMap@__FrameHandler3@@V123@@std@@AAVTryBlockMap@1@HPAXPBU_s_FuncInfo@@H@Z 1000f18e f   libvcruntime:trnsctrl.obj
 0001:0000e1fe       ?_CallCatchBlock2@@YAPAXPAUEHRegistrationNode@@PBU_s_FuncInfo@@PAXHK@Z 1000f1fe f   libvcruntime:trnsctrl.obj
 0001:0000e25c       ?_CallSETranslator@@YAHPAUEHExceptionRecord@@PAUEHRegistrationNode@@PAX2PBU_s_FuncInfo@@H1@Z 1000f25c f   libvcruntime:trnsctrl.obj
 0001:0000e342       ?_JumpToContinuation@@YGXPAXPAUEHRegistrationNode@@@Z 1000f342 f   libvcruntime:trnsctrl.obj
 0001:0000e372       ?_UnwindNestedFrames@@YGXPAUEHRegistrationNode@@PAUEHExceptionRecord@@@Z 1000f372 f   libvcruntime:trnsctrl.obj
 0001:0000e3c5       __CatchGuardHandler        1000f3c5 f   libvcruntime:trnsctrl.obj
 0001:0000e3f6       __CreateFrameInfo          1000f3f6 f   libvcruntime:trnsctrl.obj
 0001:0000e41a       __FindAndUnlinkFrame       1000f41a f   libvcruntime:trnsctrl.obj
 0001:0000e462       __TranslatorGuardHandler   1000f462 f   libvcruntime:trnsctrl.obj
 0001:0000e4ff       ___CxxFrameHandler3        1000f4ff f   libvcruntime:trnsctrl.obj
 0001:0000e535       ___std_type_info_compare   1000f535 f   libvcruntime:std_type_info.obj
 0001:0000e571       ___std_type_info_destroy_list 1000f571 f   libvcruntime:std_type_info.obj
 0001:0000e594       ___std_exception_copy      1000f594 f   libvcruntime:std_exception.obj
 0001:0000e5f7       ___std_exception_destroy   1000f5f7 f   libvcruntime:std_exception.obj
 0001:0000e616       __CxxThrowException@8      1000f616 f   libvcruntime:throw.obj
 0001:0000e690       _memmove                   1000f690 f   libvcruntime:memmove.obj
 0001:0000ec10       __local_unwind4            1000fc10 f   libvcruntime:exsup4.obj
 0001:0000ece8       __seh_longjmp_unwind4@4    1000fce8 f   libvcruntime:exsup4.obj
 0001:0000ed10       @_EH4_CallFilterFunc@8     1000fd10 f   libvcruntime:exsup4.obj
 0001:0000ed28       @_EH4_TransferToHandler@8  1000fd28 f   libvcruntime:exsup4.obj
 0001:0000ed44       @_EH4_GlobalUnwind2@8      1000fd44 f   libvcruntime:exsup4.obj
 0001:0000ed60       @_EH4_LocalUnwind@16       1000fd60 f   libvcruntime:exsup4.obj
 0001:0000ed77       ___except_validate_context_record 1000fd77 f   libvcruntime:jbcxrval.obj
 0001:0000eda7       ___except_validate_jump_buffer 1000fda7 f   libvcruntime:jbcxrval.obj
 0001:0000edd4       ___vcrt_freefls@4          1000fdd4 f   libvcruntime:per_thread_data.obj
 0001:0000edf0       ___vcrt_freeptd            1000fdf0 f   libvcruntime:per_thread_data.obj
 0001:0000ee26       ___vcrt_getptd             1000fe26 f   libvcruntime:per_thread_data.obj
 0001:0000ee34       ___vcrt_getptd_noexit      1000fe34 f   libvcruntime:per_thread_data.obj
 0001:0000eec6       ___vcrt_initialize_ptd     1000fec6 f   libvcruntime:per_thread_data.obj
 0001:0000eef9       ___vcrt_uninitialize_ptd   1000fef9 f   libvcruntime:per_thread_data.obj
 0001:0000ef14       ___vcrt_initialize_locks   1000ff14 f   libvcruntime:locks.obj
 0001:0000ef50       ___vcrt_uninitialize_locks 1000ff50 f   libvcruntime:locks.obj
 0001:0000f6ab       ??$TypeMatchHelper@V__FrameHandler3@@@@YAHPBU_s_HandlerType@@PBU_s_CatchableType@@PBU_s_ThrowInfo@@@Z 100106ab f i libvcruntime:frame.obj
 0001:0000f739       ??$__InternalCxxFrameHandler@V__FrameHandler3@@@@YA?AW4_EXCEPTION_DISPOSITION@@PAUEHExceptionRecord@@PAUEHRegistrationNode@@PAU_CONTEXT@@PAXPBU_s_FuncInfo@@H1E@Z 10010739 f i libvcruntime:frame.obj
 0001:0000f83b       ??0bad_exception@std@@QAE@ABV01@@Z 1001083b f i libvcruntime:frame.obj
 0001:0000f856       ??0bad_exception@std@@QAE@XZ 10010856 f i libvcruntime:frame.obj
 0001:0000f86e       ??8type_info@@QBE_NABV0@@Z 1001086e f i libvcruntime:frame.obj
 0001:0000fad5       ?FrameUnwindToEmptyState@__FrameHandler3@@SAXPAUEHRegistrationNode@@PAXPBU_s_FuncInfo@@@Z 10010ad5 f   libvcruntime:frame.obj
 0001:0000faed       ?FrameUnwindToState@__FrameHandler3@@SAXPAUEHRegistrationNode@@PAXPBU_s_FuncInfo@@H@Z 10010aed f   libvcruntime:frame.obj
 0001:0000fc6f       ?_CallMemberFunction1@@YGXQAX00@Z 10010c6f f i libvcruntime:frame.obj
 0001:0000fc7f       ?_CallMemberFunction2@@YGXQAX00H@Z 10010c7f f i libvcruntime:frame.obj
 0001:0000fc92       ?getESTypes@__FrameHandler3@@SAPBU_s_ESTypeList@@PBU_s_FuncInfo@@@Z 10010c92 f i libvcruntime:frame.obj
 0001:0000fca0       __CallSettingFrame@12      10010ca0 f   libvcruntime:lowhelpr.obj
 0001:0000fcc7       __NLG_Return               10010cc7     libvcruntime:lowhelpr.obj
 0001:0000fcf0       __global_unwind2           10010cf0 f   libvcruntime:exsup.obj
 0001:0000fd56       __local_unwind2            10010d56 f   libvcruntime:exsup.obj
 0001:0000fdda       __abnormal_termination     10010dda f   libvcruntime:exsup.obj
 0001:0000fe00       __NLG_Notify1              10010e00 f   libvcruntime:exsup.obj
 0001:0000fe0c       __NLG_Notify               10010e0c f   libvcruntime:exsup.obj
 0001:0000fe23       __NLG_Dispatch2            10010e23     libvcruntime:exsup.obj
 0001:0000fe23       __NLG_Dispatch             10010e23     libvcruntime:exsup.obj
 0001:0000fe2b       __NLG_Call                 10010e2b f   libvcruntime:exsup.obj
 0001:0000fe2d       __NLG_Return2              10010e2d     libvcruntime:exsup.obj
 0001:0000ff23       ___vcrt_FlsAlloc           10010f23 f   libvcruntime:winapi_downlevel.obj
 0001:0000ff5e       ___vcrt_FlsFree            10010f5e f   libvcruntime:winapi_downlevel.obj
 0001:0000ff99       ___vcrt_FlsGetValue        10010f99 f   libvcruntime:winapi_downlevel.obj
 0001:0000ffd4       ___vcrt_FlsSetValue        10010fd4 f   libvcruntime:winapi_downlevel.obj
 0001:00010012       ___vcrt_InitializeCriticalSectionEx 10011012 f   libvcruntime:winapi_downlevel.obj
 0001:00010059       _unexpected                10011059 f   libvcruntime:unexpected.obj
 0001:00010076       ?GetCurrentState@__FrameHandler3@@SAHPAUEHRegistrationNode@@PAXPBU_s_FuncInfo@@@Z 10011076 f   libvcruntime:ehstate.obj
 0001:00010093       ?SetState@__FrameHandler3@@SAXPAUEHRegistrationNode@@PBU_s_FuncInfo@@H@Z 10011093 f   libvcruntime:ehstate.obj
 0001:000100a1       ___DestructExceptionObject 100110a1 f   libvcruntime:ehhelpers.obj
 0001:00010141       ?_CallMemberFunction0@@YGXQAX0@Z 10011141 f i libvcruntime:ehhelpers.obj
 0001:0001014e       __IsExceptionObjectToBeDestroyed 1001114e f   libvcruntime:ehhelpers.obj
 0001:00010174       ___AdjustPointer           10011174 f   libvcruntime:ehhelpers.obj
 0001:00010199       ___FrameUnwindFilter       10011199 f   libvcruntime:ehhelpers.obj
 0001:000101de       _free                      100111de f   libucrt:free.obj
 0001:000101f9       ___acrt_call_reportfault   100111f9 f   libucrt:invalid_parameter.obj
 0001:00010332       ___acrt_initialize_invalid_parameter_handler 10011332 f   libucrt:invalid_parameter.obj
 0001:00010341       __invalid_parameter        10011341 f   libucrt:invalid_parameter.obj
 0001:000103a5       __invalid_parameter_noinfo 100113a5 f   libucrt:invalid_parameter.obj
 0001:000103b5       __invoke_watson            100113b5 f   libucrt:invalid_parameter.obj
 0001:000103e9       ___acrt_errno_from_os_error 100113e9 f   libucrt:errno.obj
 0001:0001042c       ___acrt_errno_map_os_error 1001142c f   libucrt:errno.obj
 0001:0001044f       ___doserrno                1001144f f   libucrt:errno.obj
 0001:00010462       __errno                    10011462 f   libucrt:errno.obj
 0001:00010475       _calloc                    10011475 f   libucrt:calloc.obj
 0001:00010480       _malloc                    10011480 f   libucrt:malloc.obj
 0001:0001048b       __recalloc                 1001148b f   libucrt:recalloc.obj
 0001:00010496       __recalloc_base            10011496 f   libucrt:recalloc.obj
 0001:00010503       __resetstkoflw             10011503 f   libucrt:resetstk.obj
 0001:000105c8       _wcscat_s                  100115c8 f   libucrt:wcscat_s.obj
 0001:0001063d       _wcscpy_s                  1001163d f   libucrt:wcscpy_s.obj
 0001:0001076c       _wcsncpy_s                 1001176c f   libucrt:wcsncpy_s.obj
 0001:00010978       ??$count@D@formatting_buffer@__crt_stdio_output@@QBEIXZ 10011978 f i libucrt:output.obj
 0001:00010990       ??$count@_W@formatting_buffer@__crt_stdio_output@@QBEIXZ 10011990 f i libucrt:output.obj
 0001:000109a9       ??$ensure_buffer_is_big_enough@D@formatting_buffer@__crt_stdio_output@@QAE_NI@Z 100119a9 f i libucrt:output.obj
 0001:00010a26       ??$ensure_buffer_is_big_enough@_W@formatting_buffer@__crt_stdio_output@@QAE_NI@Z 10011a26 f i libucrt:output.obj
 0001:00010aa4       ??$is_wide_character_specifier@_W@__crt_stdio_output@@YA_N_K_WW4length_modifier@0@@Z 10011aa4 f i libucrt:output.obj
 0001:00010af2       ??$scratch_data@D@formatting_buffer@__crt_stdio_output@@QAEPADXZ 10011af2 f i libucrt:output.obj
 0001:00010b10       ??$type_case_integer_parse_into_buffer@I@?$output_processor@_WV?$string_output_adapter@_W@__crt_stdio_output@@V?$format_validation_base@_WV?$string_output_adapter@_W@__crt_stdio_output@@@2@@__crt_stdio_output@@AAEXII_N@Z 10011b10 f i libucrt:output.obj
 0001:00010b97       ??$type_case_integer_parse_into_buffer@_K@?$output_processor@_WV?$string_output_adapter@_W@__crt_stdio_output@@V?$format_validation_base@_WV?$string_output_adapter@_W@__crt_stdio_output@@@2@@__crt_stdio_output@@AAEX_KI_N@Z 10011b97 f i libucrt:output.obj
 0001:00010c39       ??$write_multiple_characters@V?$string_output_adapter@_W@__crt_stdio_output@@D@__crt_stdio_output@@YAXABV?$string_output_adapter@_W@0@DHQAH@Z 10011c39 f i libucrt:output.obj
 0001:00010c6a       ??0?$common_data@_W@__crt_stdio_output@@IAE@XZ 10011c6a f i libucrt:output.obj
 0001:00010cb4       ??0?$output_adapter_data@_WV?$string_output_adapter@_W@__crt_stdio_output@@@__crt_stdio_output@@IAE@ABV?$string_output_adapter@_W@1@_KQB_WQAU__crt_locale_pointers@@QAD@Z 10011cb4 f i libucrt:output.obj
 0001:00010cf0       ??0_LocaleUpdate@@QAE@QAU__crt_locale_pointers@@@Z 10011cf0 f i libucrt:output.obj
 0001:00010d73       ??1formatting_buffer@__crt_stdio_output@@QAE@XZ 10011d73 f i libucrt:output.obj
 0001:00010d8d       ??4?$__crt_unique_heap_ptr@DU__crt_internal_free_policy@@@@QAEAAV0@$$QAV0@@Z 10011d8d f i libucrt:output.obj
 0001:00010db1       ?crop_zeroes@__crt_stdio_output@@YAXPADQAU__crt_locale_pointers@@@Z 10011db1 f i libucrt:output.obj
 0001:00010e11       ?find_next_state@?$output_processor@_WV?$string_output_adapter@_W@__crt_stdio_output@@V?$format_validation_base@_WV?$string_output_adapter@_W@__crt_stdio_output@@@2@@__crt_stdio_output@@ABE?AW4state@2@_WW432@@Z 10011e11 f i libucrt:output.obj
 0001:00010e53       ?force_decimal_point@__crt_stdio_output@@YAXPADQAU__crt_locale_pointers@@@Z 10011e53 f i libucrt:output.obj
 0001:00010eaf       ?parse_int_from_format_string@?$output_processor@_WV?$string_output_adapter@_W@__crt_stdio_output@@V?$format_validation_base@_WV?$string_output_adapter@_W@__crt_stdio_output@@@2@@__crt_stdio_output@@AAE_NQAH@Z 10011eaf f i libucrt:output.obj
 0001:00010f25       ?process@?$output_processor@_WV?$string_output_adapter@_W@__crt_stdio_output@@V?$format_validation_base@_WV?$string_output_adapter@_W@__crt_stdio_output@@@2@@__crt_stdio_output@@QAEHXZ 10011f25 f i libucrt:output.obj
 0001:0001104d       ?state_case_flag@?$output_processor@_WV?$string_output_adapter@_W@__crt_stdio_output@@V?$format_validation_base@_WV?$string_output_adapter@_W@__crt_stdio_output@@@2@@__crt_stdio_output@@AAE_NXZ 1001204d f i libucrt:output.obj
 0001:0001108a       ?state_case_normal@?$output_processor@_WV?$string_output_adapter@_W@__crt_stdio_output@@V?$format_validation_base@_WV?$string_output_adapter@_W@__crt_stdio_output@@@2@@__crt_stdio_output@@AAE_NXZ 1001208a f i libucrt:output.obj
 0001:000110a9       ?state_case_normal_common@?$output_processor@_WV?$string_output_adapter@_W@__crt_stdio_output@@V?$format_validation_base@_WV?$string_output_adapter@_W@__crt_stdio_output@@@2@@__crt_stdio_output@@AAE_NXZ 100120a9 f i libucrt:output.obj
 0001:000110c4       ?state_case_precision@?$output_processor@_WV?$string_output_adapter@_W@__crt_stdio_output@@V?$format_validation_base@_WV?$string_output_adapter@_W@__crt_stdio_output@@@2@@__crt_stdio_output@@AAE_NXZ 100120c4 f i libucrt:output.obj
 0001:000110eb       ?state_case_size@?$output_processor@_WV?$string_output_adapter@_W@__crt_stdio_output@@V?$format_validation_base@_WV?$string_output_adapter@_W@__crt_stdio_output@@@2@@__crt_stdio_output@@AAE_NXZ 100120eb f i libucrt:output.obj
 0001:00011263       ?state_case_type@?$output_processor@_WV?$string_output_adapter@_W@__crt_stdio_output@@V?$format_validation_base@_WV?$string_output_adapter@_W@__crt_stdio_output@@@2@@__crt_stdio_output@@AAE_NXZ 10012263 f i libucrt:output.obj
 0001:000114c8       ?state_case_width@?$output_processor@_WV?$string_output_adapter@_W@__crt_stdio_output@@V?$format_validation_base@_WV?$string_output_adapter@_W@__crt_stdio_output@@@2@@__crt_stdio_output@@AAE_NXZ 100124c8 f i libucrt:output.obj
 0001:000114f4       ?to_integer_size@__crt_stdio_output@@YAIW4length_modifier@1@@Z 100124f4 f i libucrt:output.obj
 0001:00011548       ?type_case_Z@?$output_processor@_WV?$string_output_adapter@_W@__crt_stdio_output@@V?$format_validation_base@_WV?$string_output_adapter@_W@__crt_stdio_output@@@2@@__crt_stdio_output@@AAE_NXZ 10012548 f i libucrt:output.obj
 0001:000115a2       ?type_case_a@?$output_processor@_WV?$string_output_adapter@_W@__crt_stdio_output@@V?$format_validation_base@_WV?$string_output_adapter@_W@__crt_stdio_output@@@2@@__crt_stdio_output@@AAE_NXZ 100125a2 f i libucrt:output.obj
 0001:00011707       ?type_case_c_tchar@?$output_processor@_WV?$string_output_adapter@_W@__crt_stdio_output@@V?$format_validation_base@_WV?$string_output_adapter@_W@__crt_stdio_output@@@2@@__crt_stdio_output@@AAE_N_W@Z 10012707 f i libucrt:output.obj
 0001:0001179d       ?type_case_integer@?$output_processor@_WV?$string_output_adapter@_W@__crt_stdio_output@@V?$format_validation_base@_WV?$string_output_adapter@_W@__crt_stdio_output@@@2@@__crt_stdio_output@@AAE_NI_N@Z 1001279d f i libucrt:output.obj
 0001:000118f2       ?type_case_n@?$output_processor@_WV?$string_output_adapter@_W@__crt_stdio_output@@V?$format_validation_base@_WV?$string_output_adapter@_W@__crt_stdio_output@@@2@@__crt_stdio_output@@AAE_NXZ 100128f2 f i libucrt:output.obj
 0001:00011966       ?type_case_o@?$output_processor@_WV?$string_output_adapter@_W@__crt_stdio_output@@V?$format_validation_base@_WV?$string_output_adapter@_W@__crt_stdio_output@@@2@@__crt_stdio_output@@AAE_NXZ 10012966 f i libucrt:output.obj
 0001:00011985       ?type_case_p@?$output_processor@_WV?$string_output_adapter@_W@__crt_stdio_output@@V?$format_validation_base@_WV?$string_output_adapter@_W@__crt_stdio_output@@@2@@__crt_stdio_output@@AAE_NXZ 10012985 f i libucrt:output.obj
 0001:0001199d       ?type_case_s@?$output_processor@_WV?$string_output_adapter@_W@__crt_stdio_output@@V?$format_validation_base@_WV?$string_output_adapter@_W@__crt_stdio_output@@@2@@__crt_stdio_output@@AAE_NXZ 1001299d f i libucrt:output.obj
 0001:00011a10       ?type_case_s_compute_narrow_string_length@?$output_processor@_WV?$string_output_adapter@_W@__crt_stdio_output@@V?$format_validation_base@_WV?$string_output_adapter@_W@__crt_stdio_output@@@2@@__crt_stdio_output@@ABEHH_W@Z 10012a10 f i libucrt:output.obj
 0001:00011a57       ?validate@?$string_output_adapter@_W@__crt_stdio_output@@QBE_NXZ 10012a57 f i libucrt:output.obj
 0001:00011a57       ?validate@?$c_string_character_source@_W@__crt_strtox@@QBE_NXZ 10012a57 f i libucrt:atox.obj
 0001:00011a72       ?validate_and_update_state_at_end_of_format_string@?$format_validation_base@_WV?$string_output_adapter@_W@__crt_stdio_output@@@__crt_stdio_output@@IBE_NXZ 10012a72 f i libucrt:output.obj
 0001:00011a94       ?write_character@?$string_output_adapter@_W@__crt_stdio_output@@QBE_N_WQAH@Z 10012a94 f i libucrt:output.obj
 0001:00011ad9       ?write_stored_string_tchar@?$output_processor@_WV?$string_output_adapter@_W@__crt_stdio_output@@V?$format_validation_base@_WV?$string_output_adapter@_W@__crt_stdio_output@@@2@@__crt_stdio_output@@AAE_N_W@Z 10012ad9 f i libucrt:output.obj
 0001:00011b6c       ?write_string@?$string_output_adapter@_W@__crt_stdio_output@@QBEXQB_WHQAHAAV__crt_deferred_errno_cache@@@Z 10012b6c f i libucrt:output.obj
 0001:00011bdd       ___acrt_locale_get_ctype_array_value 10012bdd f i libucrt:output.obj
 0001:00011bff       ___stdio_common_vswprintf_s 10012bff f   libucrt:output.obj
 0001:00011c23       __seh_filter_dll           10012c23 f   libucrt:exception_filter.obj
 0001:00011c43       __seh_filter_exe           10012c43 f   libucrt:exception_filter.obj
 0001:00012011       ___acrt_initialize_thread_local_exit_callback 10013011 f   libucrt:exit.obj
 0001:00012020       __cexit                    10013020 f   libucrt:exit.obj
 0001:0001202f       __exit                     1001302f f   libucrt:exit.obj
 0001:00012045       __is_c_termination_complete 10013045 f   libucrt:exit.obj
 0001:000122f9       ___acrt_allocate_buffer_for_argv 100132f9 f   libucrt:argv_parsing.obj
 0001:00012348       __configure_narrow_argv    10013348 f   libucrt:argv_parsing.obj
 0001:000124a5       ??$uninitialize@A6AXAAPAPAD@Z@?$dual_state_global@PAPAD@__crt_state_management@@QAEXA6AXAAPAPAD@Z@Z 100134a5 f i libucrt:environment_initialization.obj
 0001:000124a5       ??$uninitialize@A6AXAAPAPA_W@Z@?$dual_state_global@PAPA_W@__crt_state_management@@QAEXA6AXAAPAPA_W@Z@Z 100134a5 f i libucrt:environment_initialization.obj
 0001:00012504       ___dcrt_uninitialize_environments_nolock 10013504 f   libucrt:environment_initialization.obj
 0001:0001253b       __initialize_narrow_environment 1001353b f   libucrt:environment_initialization.obj
 0001:000125f6       ??$__crt_fast_encode_pointer@P6AHXZ@@YAP6AHXZQ6AHXZ@Z 100135f6 f i libucrt:onexit.obj
 0001:000125f6       ??$__crt_fast_encode_pointer@PAP6AXXZ@@YAPAP6AXXZQAP6AXXZ@Z 100135f6 f i libucrt:onexit.obj
 0001:000125f6       ??$__crt_fast_encode_pointer@PAX@@YAPAXQAX@Z 100135f6 f i libucrt:initialization.obj
 0001:00012818       __crt_atexit               10013818 f   libucrt:onexit.obj
 0001:0001282e       __execute_onexit_table     1001382e f   libucrt:onexit.obj
 0001:0001285b       __initialize_onexit_table  1001385b f   libucrt:onexit.obj
 0001:00012884       __register_onexit_function 10013884 f   libucrt:onexit.obj
 0001:000128b7       ___acrt_uninitialize_command_line 100138b7 f   libucrt:argv_data.obj
 0001:000129b5       ___acrt_initialize         100139b5 f   libucrt:initialization.obj
 0001:000129c7       ___acrt_thread_attach      100139c7 f   libucrt:initialization.obj
 0001:000129d2       ___acrt_thread_detach      100139d2 f   libucrt:initialization.obj
 0001:000129da       ___acrt_uninitialize       100139da f   libucrt:initialization.obj
 0001:00012a0a       ___acrt_uninitialize_critical 10013a0a f   libucrt:initialization.obj
 0001:00012a1c       __initterm                 10013a1c f   libucrt:initterm.obj
 0001:00012a61       __initterm_e               10013a61 f   libucrt:initterm.obj
 0001:00012a8f       ___acrt_initialize_new_handler 10013a8f f   libucrt:new_handler.obj
 0001:00012a9e       __callnewh                 10013a9e f   libucrt:new_handler.obj
 0001:00012acb       __query_new_handler        10013acb f   libucrt:new_handler.obj
 0001:00012b27       _terminate                 10013b27 f   libucrt:terminate.obj
 0001:00012b63       _abort                     10013b63 f   libucrt:abort.obj
 0001:00012ba7       _strcpy_s                  10013ba7 f   libucrt:strcpy_s.obj
 0001:00012c01       ??$is_overflow_condition@K@__crt_strtox@@YA_NIK@Z 10013c01 f i libucrt:atox.obj
 0001:00012c32       ??$parse_integer@KV?$c_string_character_source@_W@__crt_strtox@@@__crt_strtox@@YAKQAU__crt_locale_pointers@@V?$c_string_character_source@_W@0@H_N@Z 10013c32 f i libucrt:atox.obj
 0001:0001323a       ?unget@?$c_string_character_source@_W@__crt_strtox@@QAEX_W@Z 1001423a f i libucrt:atox.obj
 0001:00013270       _strncmp                   10014270 f   libucrt:strncmp.obj
 0001:000132e8       _wcsncmp                   100142e8 f   libucrt:wcsncmp.obj
 0001:00013322       __free_base                10014322 f   libucrt:free_base.obj
 0001:0001369a       ___acrt_freeptd            1001469a f   libucrt:per_thread_data.obj
 0001:000136c6       ___acrt_getptd             100146c6 f   libucrt:per_thread_data.obj
 0001:00013783       ___acrt_getptd_head        10014783 f   libucrt:per_thread_data.obj
 0001:0001381d       ___acrt_getptd_noexit      1001481d f   libucrt:per_thread_data.obj
 0001:000138d2       ___acrt_initialize_ptd     100148d2 f   libucrt:per_thread_data.obj
 0001:000138fe       ___acrt_uninitialize_ptd   100148fe f   libucrt:per_thread_data.obj
 0001:00013918       __calloc_base              10014918 f   libucrt:calloc_base.obj
 0001:00013975       __malloc_base              10014975 f   libucrt:malloc_base.obj
 0001:000139c3       __msize_base               100149c3 f   libucrt:msize.obj
 0001:000139f6       __realloc_base             100149f6 f   libucrt:realloc_base.obj
 0001:00013bf7       ___acrt_AppPolicyGetProcessTerminationMethodInternal@4 10014bf7 f   libucrt:winapi_thunks.obj
 0001:00013c37       ___acrt_AreFileApisANSI@0  10014c37 f   libucrt:winapi_thunks.obj
 0001:00013c56       ___acrt_FlsAlloc@4         10014c56 f   libucrt:winapi_thunks.obj
 0001:00013c95       ___acrt_FlsFree@4          10014c95 f   libucrt:winapi_thunks.obj
 0001:00013cd4       ___acrt_FlsGetValue@4      10014cd4 f   libucrt:winapi_thunks.obj
 0001:00013d13       ___acrt_FlsSetValue@8      10014d13 f   libucrt:winapi_thunks.obj
 0001:00013d55       ___acrt_InitializeCriticalSectionEx@12 10014d55 f   libucrt:winapi_thunks.obj
 0001:00013da0       ___acrt_LCMapStringEx@36   10014da0 f   libucrt:winapi_thunks.obj
 0001:00013dfd       ___acrt_LocaleNameToLCID@8 10014dfd f   libucrt:winapi_thunks.obj
 0001:00013e2e       ___acrt_SetThreadStackGuarantee@4 10014e2e f   libucrt:winapi_thunks.obj
 0001:00013e69       ___acrt_initialize_winapi_thunks 10014e69 f   libucrt:winapi_thunks.obj
 0001:00013e94       ___acrt_uninitialize_winapi_thunks 10014e94 f   libucrt:winapi_thunks.obj
 0001:00013eca       ??$make_c_string_character_source@_WPAPA_W@__crt_strtox@@YA?AV?$c_string_character_source@_W@0@QB_WQAPA_W@Z 10014eca f i libucrt:strtox.obj
 0001:00013ee5       _wcstol                    10014ee5 f   libucrt:strtox.obj
 0001:00013f0f       __mbtowc_l                 10014f0f f   libucrt:mbtowc.obj
 0001:00014051       _mbtowc                    10015051 f   libucrt:mbtowc.obj
 0001:0001406b       _wcsnlen                   1001506b f   libucrt:strnlen.obj
 0001:0001421b       ___acrt_update_locale_info 1001521b f   libucrt:locale_update.obj
 0001:00014248       ___acrt_update_multibyte_info 10015248 f   libucrt:locale_update.obj
 0001:00014275       ?__acrt_fp_classify@@YA?AW4__acrt_fp_class@@ABN@Z 10015275 f i libucrt:cvt.obj
 0001:00014ac0       ___acrt_fp_format          10015ac0 f   libucrt:cvt.obj
 0001:00014bfb       __fileno                   10015bfb f   libucrt:fileno.obj
 0001:00014c22       ___acrt_initialize_stdio   10015c22 f   libucrt:_file.obj
 0001:00014cea       ___acrt_uninitialize_stdio 10015cea f   libucrt:_file.obj
 0001:00014d36       __lock_file                10015d36 f   libucrt:_file.obj
 0001:00014d4a       __unlock_file              10015d4a f   libucrt:_file.obj
 0001:00014d5e       __get_printf_count_output  10015d5e f   libucrt:printf_count_output.obj
 0001:00014de1       ___acrt_set_locale_changed 10015de1 f   libucrt:wsetlocale.obj
 0001:00014dec       ___acrt_uninitialize_locale 10015dec f   libucrt:wsetlocale.obj
 0001:00014f7d       ___acrt_initialize_lowio   10015f7d f   libucrt:ioinit.obj
 0001:00014fdd       ___acrt_uninitialize_lowio 10015fdd f   libucrt:ioinit.obj
 0001:00015009       ___acrt_initialize_locks   10016009 f   libucrt:locks.obj
 0001:0001504a       ___acrt_lock               1001604a f   libucrt:locks.obj
 0001:00015061       ___acrt_uninitialize_locks 10016061 f   libucrt:locks.obj
 0001:00015092       ___acrt_unlock             10016092 f   libucrt:locks.obj
 0001:000150a9       ___acrt_get_process_end_policy 100160a9 f   libucrt:win_policies.obj
 0001:00015273       ??$__acrt_mbs_to_wcs_cp@U__crt_win32_buffer_internal_dynamic_resizing@@@@YAHQBDAAV?$__crt_win32_buffer@_WU__crt_win32_buffer_internal_dynamic_resizing@@@@I@Z 10016273 f i libucrt:argv_wildcards.obj
 0001:00015787       ?__acrt_get_utf8_acp_compatibility_codepage@@YAIXZ 10016787 f i libucrt:argv_wildcards.obj
 0001:000157c6       ?_deallocate@?$__crt_win32_buffer@_WU__crt_win32_buffer_internal_dynamic_resizing@@@@AAEXXZ 100167c6 f i libucrt:argv_wildcards.obj
 0001:000157c6       ?_deallocate@?$__crt_win32_buffer@DU__crt_win32_buffer_internal_dynamic_resizing@@@@AAEXXZ 100167c6 f i libucrt:argv_wildcards.obj
 0001:000157e0       ?allocate@?$__crt_win32_buffer@DU__crt_win32_buffer_internal_dynamic_resizing@@@@QAEHI@Z 100167e0 f i libucrt:argv_wildcards.obj
 0001:0001581c       ?allocate@?$__crt_win32_buffer@_WU__crt_win32_buffer_internal_dynamic_resizing@@@@QAEHI@Z 1001681c f i libucrt:argv_wildcards.obj
 0001:0001585b       ?allocate@__crt_win32_buffer_internal_dynamic_resizing@@SAHQAPAXIABV__crt_win32_buffer_empty_debug_info@@@Z 1001685b f i libucrt:argv_wildcards.obj
 0001:00015901       ___acrt_expand_narrow_argv_wildcards 10016901 f   libucrt:argv_wildcards.obj
 0001:000159d3       ?allocate@?$__crt_win32_buffer@DU__crt_win32_buffer_no_resizing@@@@QAEHI@Z 100169d3 f i libucrt:getmodulefilenamea.obj
 0001:000159fa       ?set_to_nullptr@?$__crt_win32_buffer@DU__crt_win32_buffer_no_resizing@@@@QAEXXZ 100169fa f i libucrt:getmodulefilenamea.obj
 0001:00015a0e       ___acrt_GetModuleFileNameA 10016a0e f   libucrt:getmodulefilenamea.obj
 0001:00015fcd       ___acrt_initialize_multibyte 10016fcd f   libucrt:mbctype.obj
 0001:00016015       ___acrt_update_thread_multibyte_data 10017015 f   libucrt:mbctype.obj
 0001:00016028       __setmbcp_nolock           10017028 f   libucrt:mbctype.obj
 0001:000162f3       __ismbblead                100172f3 f   libucrt:ismbbyte.obj
 0001:0001630b       ___acrt_initialize_command_line 1001730b f   libucrt:argv_data.obj
 0001:00016324       ___acrt_MultiByteToWideChar 10017324 f   libucrt:multibytetowidechar.obj
 0001:000163a0       ___acrt_WideCharToMultiByte 100173a0 f   libucrt:widechartomultibyte.obj
 0001:00016484       ___dcrt_get_narrow_environment_from_os 10017484 f   libucrt:get_environment_from_os.obj
 0001:00016508       ___acrt_initialize_heap    10017508 f   libucrt:heap_handle.obj
 0001:00016519       ___acrt_uninitialize_heap  10017519 f   libucrt:heap_handle.obj
 0001:00016523       ___acrt_execute_initializers 10017523 f   libucrt:shared_initialization.obj
 0001:0001658b       ___acrt_execute_uninitializers 1001758b f   libucrt:shared_initialization.obj
 0001:0001668a       ___acrt_get_sigabrt_handler 1001768a f   libucrt:signal.obj
 0001:000166b1       ___acrt_initialize_signal_handlers 100176b1 f   libucrt:signal.obj
 0001:000166cf       ___fpecode                 100176cf f   libucrt:signal.obj
 0001:000166d8       _raise                     100176d8 f   libucrt:signal.obj
 0001:000168d3       ___acrt_has_user_matherr   100178d3 f   libucrt:matherr.obj
 0001:000168eb       ___acrt_initialize_user_matherr 100178eb f   libucrt:matherr.obj
 0001:000168fa       ___acrt_invoke_user_matherr 100178fa f   libucrt:matherr.obj
 0001:00016b09       ___acrt_stdio_flush_nolock 10017b09 f   libucrt:fflush.obj
 0001:00016b6e       __fflush_nolock            10017b6e f   libucrt:fflush.obj
 0001:00016bb6       __flushall                 10017bb6 f   libucrt:fflush.obj
 0001:00016bbf       ___pctype_func             10017bbf f   libucrt:ctype.obj
 0001:00016be3       _iswctype                  10017be3 f   libucrt:iswctype.obj
 0001:00016c4c       ___acrt_add_locale_ref     10017c4c f   libucrt:locale_refcounting.obj
 0001:00016cc9       ___acrt_free_locale        10017cc9 f   libucrt:locale_refcounting.obj
 0001:00016e11       ___acrt_locale_add_lc_time_reference 10017e11 f   libucrt:locale_refcounting.obj
 0001:00016e3a       ___acrt_locale_free_lc_time_if_unreferenced 10017e3a f   libucrt:locale_refcounting.obj
 0001:00016e6b       ___acrt_locale_release_lc_time_reference 10017e6b f   libucrt:locale_refcounting.obj
 0001:00016e94       ___acrt_release_locale_ref 10017e94 f   libucrt:locale_refcounting.obj
 0001:00016f15       ___acrt_update_thread_locale_data 10017f15 f   libucrt:locale_refcounting.obj
 0001:00016f96       __updatetlocinfoEx_nolock  10017f96 f   libucrt:locale_refcounting.obj
 0001:00016fe6       __query_new_mode           10017fe6 f   libucrt:new_mode.obj
 0001:0001703d       ___acrt_DownlevelLocaleNameToLCID 1001803d f   libucrt:lcidtoname_downlevel.obj
 0001:00017069       __isleadbyte_l             10018069 f i libucrt:_wctype.obj
 0001:000170cf       ?__mbrtowc_utf8@__crt_mbstring@@YAIPA_WPBDIPAU_Mbstatet@@@Z 100180cf f   libucrt:mbrtowc.obj
 0001:0001710f       ?__mbsrtowcs_utf8@__crt_mbstring@@YAIPA_WPAPBDIPAU_Mbstatet@@@Z 1001810f f   libucrt:mbrtowc.obj
 0001:0001720a       ?return_illegal_sequence@__crt_mbstring@@YAIPAU_Mbstatet@@@Z 1001820a f i libucrt:c32rtomb.obj
 0001:00017229       ___acrt_fp_strflt_to_string 10018229 f   libucrt:_fptostr.obj
 0001:000172f0       ?divide@__crt_strtox@@YA_KAAUbig_integer@1@ABU21@@Z 100182f0 f i libucrt:cfout.obj
 0001:00017788       ___acrt_fltout             10018788 f   libucrt:cfout.obj
 0001:00018ad2       __fcloseall                10019ad2 f   libucrt:closeall.obj
 0001:00018b7d       ___acrt_stdio_free_buffer_nolock 10019b7d f   libucrt:_freebuf.obj
 0001:00018bbd       __isatty                   10019bbd f   libucrt:isatty.obj
 0001:00018c13       ___acrt_locale_free_monetary 10019c13 f   libucrt:initmon.obj
 0001:00018d11       ___acrt_locale_free_numeric 10019d11 f   libucrt:initnum.obj
 0001:00018db2       ___acrt_locale_free_time   10019db2 f   libucrt:inittime.obj
 0001:00018e96       ___acrt_GetStringTypeA     10019e96 f   libucrt:getstringtypea.obj
 0001:00018f99       __freea_crt                10019f99 f i libucrt:getstringtypea.obj
 0001:00018fb9       ___acrt_lowio_create_handle_array 10019fb9 f   libucrt:osfinfo.obj
 0001:00019034       ___acrt_lowio_destroy_handle_array 1001a034 f   libucrt:osfinfo.obj
 0001:00019069       ___acrt_lowio_ensure_fh_exists 1001a069 f   libucrt:osfinfo.obj
 0001:00019107       ___acrt_lowio_lock_fh      1001a107 f   libucrt:osfinfo.obj
 0001:0001912a       ___acrt_lowio_unlock_fh    1001a12a f   libucrt:osfinfo.obj
 0001:0001914d       __free_osfhnd              1001a14d f   libucrt:osfinfo.obj
 0001:000191de       __get_osfhandle            1001a1de f   libucrt:osfinfo.obj
 0001:00019290       _qsort                     1001a290 f   libucrt:qsort.obj
 0001:00019787       _strncpy_s                 1001a787 f   libucrt:strncpy_s.obj
 0001:000197a0       _strpbrk                   1001a7a0 f   libucrt:strpbrk.obj
 0001:000197e0       __mbsdec                   1001a7e0 f   libucrt:mbsdec.obj
 0001:000197f7       __mbsdec_l                 1001a7f7 f   libucrt:mbsdec.obj
 0001:00019a6e       ___acrt_LCMapStringA       1001aa6e f   libucrt:lcmapstringa.obj
 0001:00019b68       __commit                   1001ab68 f   libucrt:commit.obj
 0001:0001a35e       __write                    1001b35e f   libucrt:write.obj
 0001:0001a450       __write_nolock             1001b450 f   libucrt:write.obj
 0001:0001a632       ___acrt_GetStringTypeW     1001b632 f   libucrt:getstringtypew.obj
 0001:0001a64b       ___ascii_wcsnicmp          1001b64b f   libucrt:wcsnicmp.obj
 0001:0001a69a       ?__mbrtoc32_utf8@__crt_mbstring@@YAIPA_UPBDIPAU_Mbstatet@@@Z 1001b69a f   libucrt:mbrtoc32.obj
 0001:0001a841       _fegetenv                  1001b841 f   libucrt:fegetenv.obj
 0001:0001a85e       _fesetenv                  1001b85e f   libucrt:fesetenv.obj
 0001:0001a8a9       _feholdexcept              1001b8a9 f   libucrt:feholdexcept.obj
 0001:0001a900       __CIlog10                  1001b900 f   libucrt:log10_impl.obj
 0001:0001a93b       __CIlog10_default          1001b93b f   libucrt:log10_impl.obj
 0001:0001a94f       __log10_default            1001b94f     libucrt:log10_impl.obj
 0001:0001aa10       _ceil                      1001ba10 f   libucrt:ceil_pentium4.obj
 0001:0001aa50       __ceil_pentium4            1001ba50 f   libucrt:ceil_pentium4.obj
 0001:0001aba9       __lseeki64_nolock          1001bba9 f   libucrt:lseek.obj
 0001:0001abc4       __fclose_nolock            1001bbc4 f   libucrt:fclose.obj
 0001:0001ac3b       _fclose                    1001bc3b f   libucrt:fclose.obj
 0001:0001acbf       __query_app_type           1001bcbf f   libucrt:report_runtime_error.obj
 0001:0001acc5       ___strncnt                 1001bcc5 f   libucrt:strncnt.obj
 0001:0001ace1       __putwch_nolock            1001bce1 f   libucrt:putwch.obj
 0001:0001b020       ___acrt_fenv_get_control   1001c020 f   libucrt:_fenvutils.obj
 0001:0001b0a0       ___acrt_fenv_get_status    1001c0a0 f   libucrt:_fenvutils.obj
 0001:0001b158       ___acrt_fenv_set_control   1001c158 f   libucrt:_fenvutils.obj
 0001:0001b1c0       ___acrt_fenv_set_status    1001c1c0 f   libucrt:_fenvutils.obj
 0001:0001b2b7       __clearfp                  1001c2b7 f   libucrt:ieee87.obj
 0001:0001b395       ___acrt_initialize_sse2    1001c395 f   libucrt:mathfcns.obj
 0001:0001b3b0       __CIlog10_pentium4         1001c3b0 f   libucrt:log10_pentium4.obj
 0001:0001b3c8       __log10_pentium4           1001c3c8     libucrt:log10_pentium4.obj
 0001:0001b660       __fFEXP                    1001c660 f   libucrt:87tran.obj
 0001:0001b6b7       __rtinfpopse               1001c6b7     libucrt:87tran.obj
 0001:0001b6b9       __rtinfnpopse              1001c6b9     libucrt:87tran.obj
 0001:0001b6c9       __fFLN                     1001c6c9     libucrt:87tran.obj
 0001:0001b77e       __rtinfpop                 1001c77e     libucrt:87tran.obj
 0001:0001b780       __rtinfnpop                1001c780     libucrt:87tran.obj
 0001:0001b790       __rtforexpinf              1001c790 f   libucrt:87tran.obj
 0001:0001b79d       __ffexpm1                  1001c79d     libucrt:87tran.obj
 0001:0001b850       __trandisp1                1001c850 f   libucrt:87disp.obj
 0001:0001b8c5       __trandisp2                1001c8c5 f   libucrt:87disp.obj
 0001:0001b95f       __rttospopde               1001c95f     libucrt:87disp.obj
 0001:0001b964       __rttospop                 1001c964     libucrt:87disp.obj
 0001:0001b970       __rtnospop                 1001c970 f   libucrt:87disp.obj
 0001:0001b980       __rttosnpop                1001c980 f   libucrt:87disp.obj
 0001:0001b981       __rtnospopde               1001c981     libucrt:87disp.obj
 0001:0001b988       __rtzeropop                1001c988     libucrt:87disp.obj
 0001:0001b98a       __rtzeronpop               1001c98a     libucrt:87disp.obj
 0001:0001b990       __rtzerospop               1001c990 f   libucrt:87disp.obj
 0001:0001b99d       __rtonepop                 1001c99d     libucrt:87disp.obj
 0001:0001b9a0       __rtonenpop                1001c9a0 f   libucrt:87disp.obj
 0001:0001b9b0       __tosnan1                  1001c9b0 f   libucrt:87disp.obj
 0001:0001b9e0       __nosnan2                  1001c9e0 f   libucrt:87disp.obj
 0001:0001b9f0       __tosnan2                  1001c9f0 f   libucrt:87disp.obj
 0001:0001ba20       __nan2                     1001ca20 f   libucrt:87disp.obj
 0001:0001ba60       __rtindfpop                1001ca60 f   libucrt:87disp.obj
 0001:0001ba62       __rtindfnpop               1001ca62     libucrt:87disp.obj
 0001:0001ba73       __rttosnpopde              1001ca73     libucrt:87disp.obj
 0001:0001ba80       __rtatan2inf               1001ca80 f   libucrt:87disp.obj
 0001:0001ba9d       __rtchsifneg               1001ca9d     libucrt:87disp.obj
 0001:0001bab0       __twoToTOS                 1001cab0 f   libucrt:common.obj
 0001:0001bac5       __load_CW                  1001cac5 f   libucrt:common.obj
 0001:0001badc       __convertTOStoQNaN         1001cadc f   libucrt:common.obj
 0001:0001baf5       __fload_withFB             1001caf5 f   libucrt:common.obj
 0001:0001bb38       __checkTOS_withFB          1001cb38 f   libucrt:common.obj
 0001:0001bb4e       __fast_exit                1001cb4e f   libucrt:common.obj
 0001:0001bb5b       __math_exit                1001cb5b f   libucrt:common.obj
 0001:0001bb85       __check_overflow_exit      1001cb85 f   libucrt:common.obj
 0001:0001bb99       __check_range_exit         1001cb99 f   libucrt:common.obj
 0001:0001bc40       __startTwoArgErrorHandling 1001cc40 f   libucrt:genexcep.obj
 0001:0001bc57       __startOneArgErrorHandling 1001cc57 f   libucrt:genexcep.obj
 0001:0001bc93       ___libm_error_support      1001cc93 f   libucrt:libm_error.obj
 0001:0001be87       __ceil_default             1001ce87 f   libucrt:ceil.obj
 0001:0001bfc8       __close                    1001cfc8 f   libucrt:close.obj
 0001:0001c055       __close_nolock             1001d055 f   libucrt:close.obj
 0001:0001c0f1       ?__acrt_stdio_free_stream@@YAXV__crt_stdio_stream@@@Z 1001d0f1 f   libucrt:stream.obj
 0001:0001c130       ___ascii_strnicmp          1001d130 f   libucrt:_strnicm.obj
 0001:0001c1b0       ___dcrt_lowio_ensure_console_output_initialized 1001d1b0 f   libucrt:initcon.obj
 0001:0001c1cf       ___dcrt_terminate_console_output 1001d1cf f   libucrt:initcon.obj
 0001:0001c1e6       ___dcrt_write_console      1001d1e6 f   libucrt:initcon.obj
 0001:0001c23b       __clrfp                    1001d23b f   libucrt:fpctrl.obj
 0001:0001c24c       __ctrlfp                   1001d24c f   libucrt:fpctrl.obj
 0001:0001c276       __set_statfp               1001d276 f   libucrt:fpctrl.obj
 0001:0001c2cf       __statfp                   1001d2cf f   libucrt:fpctrl.obj
 0001:0001c2df       __d_inttype                1001d2df f   libucrt:powhlp.obj
 0001:0001c347       __powhlp                   1001d347 f   libucrt:powhlp.obj
 0001:0001c472       __87except                 1001d472 f   libucrt:87except.obj
 0001:0001c57c       __frnd                     1001d57c f   libucrt:frnd.obj
 0001:0001c590       __errcode                  1001d590 f   libucrt:fpexcept.obj
 0001:0001c5c4       __except1                  1001d5c4 f   libucrt:fpexcept.obj
 0001:0001c692       __handle_exc               1001d692 f   libucrt:fpexcept.obj
 0001:0001c87d       __raise_exc                1001d87d f   libucrt:fpexcept.obj
 0001:0001c8a0       __raise_exc_ex             1001d8a0 f   libucrt:fpexcept.obj
 0001:0001cb96       __set_errno_from_matherr   1001db96 f   libucrt:fpexcept.obj
 0001:0001cbc5       __umatherr                 1001dbc5 f   libucrt:fpexcept.obj
 0001:0001cc65       __decomp                   1001dc65 f   libucrt:util.obj
 0001:0001cd37       __set_exp                  1001dd37 f   libucrt:util.obj
 0001:0001cd64       __sptype                   1001dd64 f   libucrt:util.obj
 0001:0001cdc2       __fpclass                  1001ddc2 f   libucrt:ieeemisc.obj
 0001:0001ce66       _IsProcessorFeaturePresent@4 1001de66 f   kernel32:KERNEL32.dll
 0001:0001ce70       __FindPESection            1001de70 f   LIBCMT:pesect.obj
 0001:0001cec0       __IsNonwritableInCurrentImage 1001dec0 f   LIBCMT:pesect.obj
 0001:0001cf80       __ValidateImageBase        1001df80 f   LIBCMT:pesect.obj
 0001:0001cfb3       __EH_prolog3_catch         1001dfb3 f   LIBCMT:ehprolg3.obj
 0001:0001cff0       __aulldvrm                 1001dff0 f   LIBCMT:ulldvrm.obj
 0001:0001d090       __allmul                   1001e090 f   LIBCMT:llmul.obj
 0001:0001d0d0       __alldvrm                  1001e0d0 f   LIBCMT:lldvrm.obj
 0001:0001d1b0       __aullshr                  1001e1b0 f   LIBCMT:ullshr.obj
 0001:0001d1d0       __allshl                   1001e1d0 f   LIBCMT:llshl.obj
 0001:0001d1f0       __ftol2_sse                1001e1f0 f   LIBCMT:ftol2.obj
 0001:0001d1f9       __ftol2_pentium4           1001e1f9 f   LIBCMT:ftol2.obj
 0001:0001d20c       __ftol2_sse_excpt          1001e20c f   LIBCMT:ftol2.obj
 0001:0001d230       __ftol2                    1001e230 f   LIBCMT:ftol2.obj
 0001:0001d2b0       _strrchr                   1001e2b0 f   libvcruntime:strrchr.obj
 0001:0001d3f0       _strchr                    1001e3f0 f   libvcruntime:strchr.obj
 0001:0001d45e       ___from_strstr_to_strchr   1001e45e     libvcruntime:strchr.obj
 0001:0001d51b       __filter_x86_sse2_floating_point_exception 1001e51b f   LIBCMT:x86_exception_filter.obj
 0001:0001d51b       __filter_x86_sse2_floating_point_exception_default 1001e51b f   LIBCMT:x86_exception_filter.obj
 0002:00000000       __imp__RegQueryValueExW@24 1001f000     advapi32:ADVAPI32.dll
 0002:00000004       __imp__RegSetValueExW@24   1001f004     advapi32:ADVAPI32.dll
 0002:00000008       __imp__RegQueryInfoKeyW@48 1001f008     advapi32:ADVAPI32.dll
 0002:0000000c       __imp__RegOpenKeyExW@20    1001f00c     advapi32:ADVAPI32.dll
 0002:00000010       __imp__RegEnumKeyExW@32    1001f010     advapi32:ADVAPI32.dll
 0002:00000014       __imp__RegDeleteValueW@8   1001f014     advapi32:ADVAPI32.dll
 0002:00000018       __imp__RegDeleteKeyW@8     1001f018     advapi32:ADVAPI32.dll
 0002:0000001c       __imp__RegCreateKeyExW@36  1001f01c     advapi32:ADVAPI32.dll
 0002:00000020       __imp__RegCloseKey@4       1001f020     advapi32:ADVAPI32.dll
 0002:00000024       \177ADVAPI32_NULL_THUNK_DATA 1001f024     advapi32:ADVAPI32.dll
 0002:00000028       __imp__GetObjectW@12       1001f028     gdi32:GDI32.dll
 0002:0000002c       __imp__SelectObject@8      1001f02c     gdi32:GDI32.dll
 0002:00000030       __imp__DeleteObject@4      1001f030     gdi32:GDI32.dll
 0002:00000034       __imp__CreateCompatibleDC@4 1001f034     gdi32:GDI32.dll
 0002:00000038       __imp__BitBlt@36           1001f038     gdi32:GDI32.dll
 0002:0000003c       __imp__SetWindowOrgEx@16   1001f03c     gdi32:GDI32.dll
 0002:00000040       __imp__SetWindowExtEx@16   1001f040     gdi32:GDI32.dll
 0002:00000044       __imp__SetViewportOrgEx@16 1001f044     gdi32:GDI32.dll
 0002:00000048       __imp__LPtoDP@12           1001f048     gdi32:GDI32.dll
 0002:0000004c       __imp__SetMapMode@8        1001f04c     gdi32:GDI32.dll
 0002:00000050       __imp__SaveDC@4            1001f050     gdi32:GDI32.dll
 0002:00000054       __imp__RestoreDC@8         1001f054     gdi32:GDI32.dll
 0002:00000058       __imp__GetDeviceCaps@8     1001f058     gdi32:GDI32.dll
 0002:0000005c       __imp__DeleteMetaFile@4    1001f05c     gdi32:GDI32.dll
 0002:00000060       __imp__DeleteDC@4          1001f060     gdi32:GDI32.dll
 0002:00000064       __imp__CreateRectRgnIndirect@4 1001f064     gdi32:GDI32.dll
 0002:00000068       __imp__CreateMetaFileW@4   1001f068     gdi32:GDI32.dll
 0002:0000006c       __imp__CreateDCW@16        1001f06c     gdi32:GDI32.dll
 0002:00000070       __imp__CloseMetaFile@4     1001f070     gdi32:GDI32.dll
 0002:00000074       \177GDI32_NULL_THUNK_DATA  1001f074     gdi32:GDI32.dll
 0002:00000078       __imp__CloseHandle@4       1001f078     kernel32:KERNEL32.dll
 0002:0000007c       __imp__SetEvent@4          1001f07c     kernel32:KERNEL32.dll
 0002:00000080       __imp__CreateMutexW@12     1001f080     kernel32:KERNEL32.dll
 0002:00000084       __imp__CreateEventW@16     1001f084     kernel32:KERNEL32.dll
 0002:00000088       __imp__GetCurrentProcessId@0 1001f088     kernel32:KERNEL32.dll
 0002:0000008c       __imp__CreateFileW@28      1001f08c     kernel32:KERNEL32.dll
 0002:00000090       __imp__GetConsoleMode@8    1001f090     kernel32:KERNEL32.dll
 0002:00000094       __imp__GetConsoleCP@0      1001f094     kernel32:KERNEL32.dll
 0002:00000098       __imp__WriteFile@20        1001f098     kernel32:KERNEL32.dll
 0002:0000009c       __imp__FlushFileBuffers@4  1001f09c     kernel32:KERNEL32.dll
 0002:000000a0       __imp__SetStdHandle@8      1001f0a0     kernel32:KERNEL32.dll
 0002:000000a4       __imp__GetStringTypeW@16   1001f0a4     kernel32:KERNEL32.dll
 0002:000000a8       __imp__SetFilePointerEx@20 1001f0a8     kernel32:KERNEL32.dll
 0002:000000ac       __imp__FreeEnvironmentStringsW@4 1001f0ac     kernel32:KERNEL32.dll
 0002:000000b0       __imp__GetEnvironmentStringsW@0 1001f0b0     kernel32:KERNEL32.dll
 0002:000000b4       __imp__lstrcmpiW@8         1001f0b4     kernel32:KERNEL32.dll
 0002:000000b8       __imp__GetCommandLineA@0   1001f0b8     kernel32:KERNEL32.dll
 0002:000000bc       __imp__GetCPInfo@8         1001f0bc     kernel32:KERNEL32.dll
 0002:000000c0       __imp__GetOEMCP@0          1001f0c0     kernel32:KERNEL32.dll
 0002:000000c4       __imp__GetACP@0            1001f0c4     kernel32:KERNEL32.dll
 0002:000000c8       __imp__IsValidCodePage@4   1001f0c8     kernel32:KERNEL32.dll
 0002:000000cc       __imp__FindNextFileW@8     1001f0cc     kernel32:KERNEL32.dll
 0002:000000d0       __imp__FindFirstFileExW@24 1001f0d0     kernel32:KERNEL32.dll
 0002:000000d4       __imp__FindClose@4         1001f0d4     kernel32:KERNEL32.dll
 0002:000000d8       __imp__GetFileType@4       1001f0d8     kernel32:KERNEL32.dll
 0002:000000dc       __imp__GetStdHandle@4      1001f0dc     kernel32:KERNEL32.dll
 0002:000000e0       __imp__LCMapStringW@24     1001f0e0     kernel32:KERNEL32.dll
 0002:000000e4       __imp__HeapReAlloc@16      1001f0e4     kernel32:KERNEL32.dll
 0002:000000e8       __imp__HeapSize@12         1001f0e8     kernel32:KERNEL32.dll
 0002:000000ec       __imp__MulDiv@12           1001f0ec     kernel32:KERNEL32.dll
 0002:000000f0       __imp__GlobalLock@4        1001f0f0     kernel32:KERNEL32.dll
 0002:000000f4       __imp__GlobalUnlock@4      1001f0f4     kernel32:KERNEL32.dll
 0002:000000f8       __imp__GlobalAlloc@8       1001f0f8     kernel32:KERNEL32.dll
 0002:000000fc       __imp__FindResourceW@12    1001f0fc     kernel32:KERNEL32.dll
 0002:00000100       __imp__SizeofResource@8    1001f100     kernel32:KERNEL32.dll
 0002:00000104       __imp__LoadResource@8      1001f104     kernel32:KERNEL32.dll
 0002:00000108       __imp__LoadLibraryExW@12   1001f108     kernel32:KERNEL32.dll
 0002:0000010c       __imp__GetProcAddress@8    1001f10c     kernel32:KERNEL32.dll
 0002:00000110       __imp__GetModuleHandleW@4  1001f110     kernel32:KERNEL32.dll
 0002:00000114       __imp__GetModuleFileNameW@12 1001f114     kernel32:KERNEL32.dll
 0002:00000118       __imp__FreeLibrary@4       1001f118     kernel32:KERNEL32.dll
 0002:0000011c       __imp__DisableThreadLibraryCalls@4 1001f11c     kernel32:KERNEL32.dll
 0002:00000120       __imp__GetCurrentThreadId@0 1001f120     kernel32:KERNEL32.dll
 0002:00000124       __imp__Sleep@4             1001f124     kernel32:KERNEL32.dll
 0002:00000128       __imp__WaitForSingleObject@8 1001f128     kernel32:KERNEL32.dll
 0002:0000012c       __imp__ReleaseMutex@4      1001f12c     kernel32:KERNEL32.dll
 0002:00000130       __imp__ResetEvent@4        1001f130     kernel32:KERNEL32.dll
 0002:00000134       __imp__EnterCriticalSection@4 1001f134     kernel32:KERNEL32.dll
 0002:00000138       __imp__LeaveCriticalSection@4 1001f138     kernel32:KERNEL32.dll
 0002:0000013c       __imp__SetLastError@4      1001f13c     kernel32:KERNEL32.dll
 0002:00000140       __imp__EncodePointer@4     1001f140     kernel32:KERNEL32.dll
 0002:00000144       __imp__DeleteCriticalSection@4 1001f144     kernel32:KERNEL32.dll
 0002:00000148       __imp__InitializeCriticalSectionEx@12 1001f148     kernel32:KERNEL32.dll
 0002:0000014c       __imp__GetLastError@0      1001f14c     kernel32:KERNEL32.dll
 0002:00000150       __imp__RaiseException@16   1001f150     kernel32:KERNEL32.dll
 0002:00000154       __imp__DecodePointer@4     1001f154     kernel32:KERNEL32.dll
 0002:00000158       __imp__WideCharToMultiByte@32 1001f158     kernel32:KERNEL32.dll
 0002:0000015c       __imp__GetCommandLineW@0   1001f15c     kernel32:KERNEL32.dll
 0002:00000160       __imp__MultiByteToWideChar@24 1001f160     kernel32:KERNEL32.dll
 0002:00000164       __imp__WriteConsoleW@20    1001f164     kernel32:KERNEL32.dll
 0002:00000168       __imp__GetModuleHandleExW@12 1001f168     kernel32:KERNEL32.dll
 0002:0000016c       __imp__ExitProcess@4       1001f16c     kernel32:KERNEL32.dll
 0002:00000170       __imp__VirtualQuery@12     1001f170     kernel32:KERNEL32.dll
 0002:00000174       __imp__VirtualProtect@16   1001f174     kernel32:KERNEL32.dll
 0002:00000178       __imp__GetSystemInfo@4     1001f178     kernel32:KERNEL32.dll
 0002:0000017c       __imp__TlsFree@4           1001f17c     kernel32:KERNEL32.dll
 0002:00000180       __imp__TlsSetValue@8       1001f180     kernel32:KERNEL32.dll
 0002:00000184       __imp__TlsGetValue@4       1001f184     kernel32:KERNEL32.dll
 0002:00000188       __imp__TlsAlloc@0          1001f188     kernel32:KERNEL32.dll
 0002:0000018c       __imp__InterlockedFlushSList@4 1001f18c     kernel32:KERNEL32.dll
 0002:00000190       __imp__RtlUnwind@16        1001f190     kernel32:KERNEL32.dll
 0002:00000194       __imp__LoadLibraryExA@12   1001f194     kernel32:KERNEL32.dll
 0002:00000198       __imp__VirtualFree@12      1001f198     kernel32:KERNEL32.dll
 0002:0000019c       __imp__VirtualAlloc@16     1001f19c     kernel32:KERNEL32.dll
 0002:000001a0       __imp__FlushInstructionCache@12 1001f1a0     kernel32:KERNEL32.dll
 0002:000001a4       __imp__InterlockedPushEntrySList@8 1001f1a4     kernel32:KERNEL32.dll
 0002:000001a8       __imp__InterlockedPopEntrySList@4 1001f1a8     kernel32:KERNEL32.dll
 0002:000001ac       __imp__GetProcessHeap@0    1001f1ac     kernel32:KERNEL32.dll
 0002:000001b0       __imp__HeapFree@12         1001f1b0     kernel32:KERNEL32.dll
 0002:000001b4       __imp__HeapAlloc@12        1001f1b4     kernel32:KERNEL32.dll
 0002:000001b8       __imp__OutputDebugStringW@4 1001f1b8     kernel32:KERNEL32.dll
 0002:000001bc       __imp__InitializeSListHead@4 1001f1bc     kernel32:KERNEL32.dll
 0002:000001c0       __imp__GetSystemTimeAsFileTime@4 1001f1c0     kernel32:KERNEL32.dll
 0002:000001c4       __imp__QueryPerformanceCounter@4 1001f1c4     kernel32:KERNEL32.dll
 0002:000001c8       __imp__GetStartupInfoW@4   1001f1c8     kernel32:KERNEL32.dll
 0002:000001cc       __imp__IsDebuggerPresent@0 1001f1cc     kernel32:KERNEL32.dll
 0002:000001d0       __imp__IsProcessorFeaturePresent@4 1001f1d0     kernel32:KERNEL32.dll
 0002:000001d4       __imp__TerminateProcess@8  1001f1d4     kernel32:KERNEL32.dll
 0002:000001d8       __imp__GetCurrentProcess@0 1001f1d8     kernel32:KERNEL32.dll
 0002:000001dc       __imp__SetUnhandledExceptionFilter@4 1001f1dc     kernel32:KERNEL32.dll
 0002:000001e0       __imp__UnhandledExceptionFilter@4 1001f1e0     kernel32:KERNEL32.dll
 0002:000001e4       __imp__InitializeCriticalSectionAndSpinCount@8 1001f1e4     kernel32:KERNEL32.dll
 0002:000001e8       __imp__WaitForSingleObjectEx@12 1001f1e8     kernel32:KERNEL32.dll
 0002:000001ec       \177KERNEL32_NULL_THUNK_DATA 1001f1ec     kernel32:KERNEL32.dll
 0002:000001f0       __imp__OleCreatePropertyFrame@44 1001f1f0     oleaut32:OLEAUT32.dll
 0002:000001f4       __imp__UnRegisterTypeLib@20 1001f1f4     oleaut32:OLEAUT32.dll
 0002:000001f8       __imp__RegisterTypeLib@12  1001f1f8     oleaut32:OLEAUT32.dll
 0002:000001fc       __imp__LoadRegTypeLib@20   1001f1fc     oleaut32:OLEAUT32.dll
 0002:00000200       __imp__LoadTypeLib@8       1001f200     oleaut32:OLEAUT32.dll
 0002:00000204       __imp__VarUI4FromStr@16    1001f204     oleaut32:OLEAUT32.dll
 0002:00000208       __imp__VariantInit@4       1001f208     oleaut32:OLEAUT32.dll
 0002:0000020c       __imp__SysAllocStringByteLen@8 1001f20c     oleaut32:OLEAUT32.dll
 0002:00000210       __imp__SysStringByteLen@4  1001f210     oleaut32:OLEAUT32.dll
 0002:00000214       __imp__VariantChangeType@16 1001f214     oleaut32:OLEAUT32.dll
 0002:00000218       __imp__VariantClear@4      1001f218     oleaut32:OLEAUT32.dll
 0002:0000021c       __imp__SysStringLen@4      1001f21c     oleaut32:OLEAUT32.dll
 0002:00000220       __imp__SysFreeString@4     1001f220     oleaut32:OLEAUT32.dll
 0002:00000224       __imp__SysAllocStringLen@8 1001f224     oleaut32:OLEAUT32.dll
 0002:00000228       __imp__SysAllocString@4    1001f228     oleaut32:OLEAUT32.dll
 0002:0000022c       \177OLEAUT32_NULL_THUNK_DATA 1001f22c     oleaut32:OLEAUT32.dll
 0002:00000230       __imp__UnregisterClassW@8  1001f230     user32:USER32.dll
 0002:00000234       __imp__PostMessageW@16     1001f234     user32:USER32.dll
 0002:00000238       __imp__DefWindowProcW@16   1001f238     user32:USER32.dll
 0002:0000023c       __imp__CallWindowProcW@20  1001f23c     user32:USER32.dll
 0002:00000240       __imp__RegisterClassExW@4  1001f240     user32:USER32.dll
 0002:00000244       __imp__GetClassInfoExW@12  1001f244     user32:USER32.dll
 0002:00000248       __imp__CreateWindowExW@48  1001f248     user32:USER32.dll
 0002:0000024c       __imp__IsWindow@4          1001f24c     user32:USER32.dll
 0002:00000250       __imp__IsChild@8           1001f250     user32:USER32.dll
 0002:00000254       __imp__DestroyWindow@4     1001f254     user32:USER32.dll
 0002:00000258       __imp__ShowWindow@8        1001f258     user32:USER32.dll
 0002:0000025c       __imp__SetWindowPos@28     1001f25c     user32:USER32.dll
 0002:00000260       __imp__CharNextW@4         1001f260     user32:USER32.dll
 0002:00000264       __imp__SetFocus@4          1001f264     user32:USER32.dll
 0002:00000268       __imp__LoadBitmapW@8       1001f268     user32:USER32.dll
 0002:0000026c       __imp__RegisterClassW@4    1001f26c     user32:USER32.dll
 0002:00000270       __imp__PeekMessageW@20     1001f270     user32:USER32.dll
 0002:00000274       __imp__LoadCursorW@8       1001f274     user32:USER32.dll
 0002:00000278       __imp__GetParent@4         1001f278     user32:USER32.dll
 0002:0000027c       __imp__SetWindowLongW@12   1001f27c     user32:USER32.dll
 0002:00000280       __imp__GetWindowLongW@8    1001f280     user32:USER32.dll
 0002:00000284       __imp__PtInRect@12         1001f284     user32:USER32.dll
 0002:00000288       __imp__EqualRect@8         1001f288     user32:USER32.dll
 0002:0000028c       __imp__OffsetRect@12       1001f28c     user32:USER32.dll
 0002:00000290       __imp__UnionRect@12        1001f290     user32:USER32.dll
 0002:00000294       __imp__IntersectRect@12    1001f294     user32:USER32.dll
 0002:00000298       __imp__GetClientRect@8     1001f298     user32:USER32.dll
 0002:0000029c       __imp__InvalidateRect@12   1001f29c     user32:USER32.dll
 0002:000002a0       __imp__SetWindowRgn@12     1001f2a0     user32:USER32.dll
 0002:000002a4       __imp__EndPaint@8          1001f2a4     user32:USER32.dll
 0002:000002a8       __imp__BeginPaint@8        1001f2a8     user32:USER32.dll
 0002:000002ac       __imp__ReleaseDC@8         1001f2ac     user32:USER32.dll
 0002:000002b0       __imp__GetDC@4             1001f2b0     user32:USER32.dll
 0002:000002b4       __imp__GetKeyState@4       1001f2b4     user32:USER32.dll
 0002:000002b8       __imp__GetFocus@0          1001f2b8     user32:USER32.dll
 0002:000002bc       \177USER32_NULL_THUNK_DATA 1001f2bc     user32:USER32.dll
 0002:000002c0       __imp__StringFromGUID2@12  1001f2c0     ole32:ole32.dll
 0002:000002c4       __imp__CoTaskMemAlloc@4    1001f2c4     ole32:ole32.dll
 0002:000002c8       __imp__CoTaskMemRealloc@8  1001f2c8     ole32:ole32.dll
 0002:000002cc       __imp__CoTaskMemFree@4     1001f2cc     ole32:ole32.dll
 0002:000002d0       __imp__ReadClassStm@8      1001f2d0     ole32:ole32.dll
 0002:000002d4       __imp__WriteClassStm@8     1001f2d4     ole32:ole32.dll
 0002:000002d8       __imp__CreateDataAdviseHolder@4 1001f2d8     ole32:ole32.dll
 0002:000002dc       __imp__OleSaveToStream@8   1001f2dc     ole32:ole32.dll
 0002:000002e0       __imp__CreateOleAdviseHolder@4 1001f2e0     ole32:ole32.dll
 0002:000002e4       __imp__OleRegGetUserType@12 1001f2e4     ole32:ole32.dll
 0002:000002e8       __imp__OleRegGetMiscStatus@12 1001f2e8     ole32:ole32.dll
 0002:000002ec       __imp__OleRegEnumVerbs@8   1001f2ec     ole32:ole32.dll
 0002:000002f0       __imp__CLSIDFromProgID@8   1001f2f0     ole32:ole32.dll
 0002:000002f4       __imp__CoCreateInstance@20 1001f2f4     ole32:ole32.dll
 0002:000002f8       \177ole32_NULL_THUNK_DATA  1001f2f8     ole32:ole32.dll
 0002:000002fc       ___guard_check_icall_fptr  1001f2fc     LIBCMT:guard_support.obj
 0002:00000300       ___xc_a                    1001f300     LIBCMT:initializers.obj
 0002:00000318       ___xc_z                    1001f318     LIBCMT:initializers.obj
 0002:0000031c       ___xi_a                    1001f31c     LIBCMT:initializers.obj
 0002:00000324       ___acrt_stdio_initializer  1001f324     libucrt:stdio_initializer.obj
 0002:00000328       ___acrt_multibyte_initializer 1001f328     libucrt:multibyte_initializer.obj
 0002:0000032c       ___acrt_tran_sse2_initializer 1001f32c     libucrt:sse2_initializer.obj
 0002:00000330       ___xi_z                    1001f330     LIBCMT:initializers.obj
 0002:00000334       ___xl_a                    1001f334     LIBCMT:tlssup.obj
 0002:00000338       ___xl_z                    1001f338     LIBCMT:tlssup.obj
 0002:0000033c       ___xp_a                    1001f33c     LIBCMT:initializers.obj
 0002:00000340       ___acrt_locale_terminator  1001f340     libucrt:locale_initializer.obj
 0002:00000344       ___dcrt_console_output_terminator 1001f344     libucrt:console_output_initializer.obj
 0002:00000348       ___acrt_stdio_terminator   1001f348     libucrt:stdio_initializer.obj
 0002:0000034c       ___xp_z                    1001f34c     LIBCMT:initializers.obj
 0002:00000350       ___xt_a                    1001f350     LIBCMT:initializers.obj
 0002:00000354       ___xt_z                    1001f354     LIBCMT:initializers.obj
 0002:00000360       ??_C@_13HADIAKP@?$AAS@     1001f360     OposVariant.obj
 0002:00000364       ??_C@_13LHMFKAAD@?$AAM@    1001f364     OposVariant.obj
 0002:00000368       ??_C@_13MKMNOPIJ@?$AAD@    1001f368     OposVariant.obj
 0002:0000036c       ??_C@_13OPKGLAFF@?$AAB@    1001f36c     OposVariant.obj
 0002:00000370       ??_C@_17LLMMEOJD@?$AAV?$AAa?$AAl@ 1001f370     OposVariant.obj
 0002:00000378       ??_C@_1BI@JFAIJMHL@?$AAF?$AAo?$AAr?$AAc?$AAe?$AAR?$AAe?$AAm?$AAo?$AAv?$AAe@ 1001f378     OposVariant.obj
 0002:00000390       ??_C@_1BC@GCKHIPE@?$AAN?$AAo?$AAR?$AAe?$AAm?$AAo?$AAv?$AAe@ 1001f390     OposVariant.obj
 0002:000003a4       ??_C@_1O@JDLOHAN@?$AAD?$AAe?$AAl?$AAe?$AAt?$AAe@ 1001f3a4     OposVariant.obj
 0002:000003b4       ??_C@_11LOCGONAA@@         1001f3b4     OposVariant.obj
 0002:000003b8       __GUID_0000010e_0000_0000_c000_000000000046 1001f3b8     ImageScanner.obj
 0002:000003c8       __GUID_b196b288_bab4_101a_b69c_00aa00341d07 1001f3c8     ImageScanner.obj
 0002:000003d8       __GUID_00000113_0000_0000_c000_000000000046 1001f3d8     ImageScanner.obj
 0002:000003e8       __GUID_1c2056cc_5ef4_101b_8bc8_00aa003e3b29 1001f3e8     ImageScanner.obj
 0002:000003f8       ??_7?$CComObjectCached@VCComClassFactory@ATL@@@ATL@@6B@ 1001f3f8     ImageScanner.obj
 0002:00000410       __GUID_00000112_0000_0000_c000_000000000046 1001f410     ImageScanner.obj
 0002:00000420       ??_C@_1BK@BIGILECK@?$AAA?$AAd?$AAv?$AAa?$AAp?$AAi?$AA3?$AA2?$AA?4?$AAd?$AAl?$AAl@ 1001f420     ImageScanner.obj
 0002:0000043c       __GUID_3af24292_0c96_11ce_a0cf_00aa00600ab8 1001f43c     ImageScanner.obj
 0002:0000044c       ??_C@_0BI@MNCFCPFK@RegCreateKeyTransactedW@ 1001f44c     ImageScanner.obj
 0002:00000464       __GUID_00000127_0000_0000_c000_000000000046 1001f464     ImageScanner.obj
 0002:00000474       __GUID_0000010d_0000_0000_c000_000000000046 1001f474     ImageScanner.obj
 0002:00000484       ??_C@_1M@PPPPCDEP@?$AAA?$AAP?$AAP?$AAI?$AAD@ 1001f484     ImageScanner.obj
 0002:00000490       __GUID_b196b287_bab4_101a_b69c_00aa00341d07 1001f490     ImageScanner.obj
 0002:000004a0       __GUID_b196b285_bab4_101a_b69c_00aa00341d07 1001f4a0     ImageScanner.obj
 0002:000004b0       ??_7?$CComContainedObject@VCOPOSImageScanner@@@ATL@@6B?$IDispatchImpl@UIOPOSImageScanner@@$1?IID_IOPOSImageScanner@@3U_GUID@@B$1?LIBID_OposImageScanner_CCO@@3U3@B$00$0A@VCComTypeInfoHolder@ATL@@@1@@ 1001f4b0     ImageScanner.obj
 0002:00000604       ??_7?$CComContainedObject@VCOPOSImageScanner@@@ATL@@6BCComControlBase@1@@ 1001f604     ImageScanner.obj
 0002:00000618       ??_7?$CComContainedObject@VCOPOSImageScanner@@@ATL@@6B?$CWindowImpl@VCOPOSImageScanner@@VCWindow@ATL@@V?$CWinTraits@$0FGAAAAAA@$0A@@3@@1@@ 1001f618     ImageScanner.obj
 0002:00000628       ??_7?$CComContainedObject@VCOPOSImageScanner@@@ATL@@6B?$IPersistStreamInitImpl@VCOPOSImageScanner@@@1@@ 1001f628     ImageScanner.obj
 0002:0000064c       ??_7?$CComContainedObject@VCOPOSImageScanner@@@ATL@@6B?$IOleControlImpl@VCOPOSImageScanner@@@1@@ 1001f64c     ImageScanner.obj
 0002:00000668       ??_7?$CComContainedObject@VCOPOSImageScanner@@@ATL@@6B?$IOleObjectImpl@VCOPOSImageScanner@@@1@@ 1001f668     ImageScanner.obj
 0002:000006c8       ??_7?$CComContainedObject@VCOPOSImageScanner@@@ATL@@6B?$IOleInPlaceActiveObjectImpl@VCOPOSImageScanner@@@1@@ 1001f6c8     ImageScanner.obj
 0002:000006f0       ??_7?$CComContainedObject@VCOPOSImageScanner@@@ATL@@6B?$IViewObjectExImpl@VCOPOSImageScanner@@@1@@ 1001f6f0     ImageScanner.obj
 0002:0000072c       ??_7?$CComContainedObject@VCOPOSImageScanner@@@ATL@@6B?$IOleInPlaceObjectWindowlessImpl@VCOPOSImageScanner@@@1@@ 1001f72c     ImageScanner.obj
 0002:00000758       ??_7?$CComContainedObject@VCOPOSImageScanner@@@ATL@@6B?$IConnectionPointContainerImpl@VCOPOSImageScanner@@@1@@ 1001f758     ImageScanner.obj
 0002:0000076c       ??_7?$CComContainedObject@VCOPOSImageScanner@@@ATL@@6B?$IPersistStorageImpl@VCOPOSImageScanner@@@1@@ 1001f76c     ImageScanner.obj
 0002:00000794       ??_7?$CComContainedObject@VCOPOSImageScanner@@@ATL@@6B?$ISpecifyPropertyPagesImpl@VCOPOSImageScanner@@@1@@ 1001f794     ImageScanner.obj
 0002:000007a4       ??_7?$CComContainedObject@VCOPOSImageScanner@@@ATL@@6B?$IQuickActivateImpl@VCOPOSImageScanner@@@1@@ 1001f7a4     ImageScanner.obj
 0002:000007bc       ??_7?$CComContainedObject@VCOPOSImageScanner@@@ATL@@6B?$IDataObjectImpl@VCOPOSImageScanner@@@1@@ 1001f7bc     ImageScanner.obj
 0002:000007ec       ??_7?$CComContainedObject@VCOPOSImageScanner@@@ATL@@6B?$IProvideClassInfo2Impl@$1?CLSID_OPOSImageScanner@@3U_GUID@@B$1?DIID__IOPOSImageScannerEvents@@3U2@B$1?LIBID_OposImageScanner_CCO@@3U2@B$00$0A@VCComTypeInfoHolder@ATL@@@1@@ 1001f7ec     ImageScanner.obj
 0002:00000800       ??_7?$CComContainedObject@VCOPOSImageScanner@@@ATL@@6B?$IObjectSafetyImpl@VCOPOSImageScanner@@$02@1@@ 1001f800     ImageScanner.obj
 0002:00000818       ??_7?$CComContainedObject@VCOPOSImageScanner@@@ATL@@6B?$IPropertyNotifySinkCP@VCOPOSImageScanner@@VCComDynamicUnkArray@ATL@@@1@@ 1001f818     ImageScanner.obj
 0002:00000838       ??_7?$CComContainedObject@VCOPOSImageScanner@@@ATL@@6B?$CProxy_IOPOSEvents@VCOPOSImageScanner@@@@@ 1001f838     ImageScanner.obj
 0002:00000858       ??_7?$CComAggObject@VCOPOSImageScanner@@@ATL@@6B@ 1001f858     ImageScanner.obj
 0002:00000868       ??_7?$CComObject@VCOPOSImageScanner@@@ATL@@6B?$IDispatchImpl@UIOPOSImageScanner@@$1?IID_IOPOSImageScanner@@3U_GUID@@B$1?LIBID_OposImageScanner_CCO@@3U3@B$00$0A@VCComTypeInfoHolder@ATL@@@1@@ 1001f868     ImageScanner.obj
 0002:000009bc       ??_7?$CComObject@VCOPOSImageScanner@@@ATL@@6BCComControlBase@1@@ 1001f9bc     ImageScanner.obj
 0002:000009d0       ??_7?$CComObject@VCOPOSImageScanner@@@ATL@@6B?$CWindowImpl@VCOPOSImageScanner@@VCWindow@ATL@@V?$CWinTraits@$0FGAAAAAA@$0A@@3@@1@@ 1001f9d0     ImageScanner.obj
 0002:000009e0       ??_7?$CComObject@VCOPOSImageScanner@@@ATL@@6B?$IPersistStreamInitImpl@VCOPOSImageScanner@@@1@@ 1001f9e0     ImageScanner.obj
 0002:00000a04       ??_7?$CComObject@VCOPOSImageScanner@@@ATL@@6B?$IOleControlImpl@VCOPOSImageScanner@@@1@@ 1001fa04     ImageScanner.obj
 0002:00000a20       ??_7?$CComObject@VCOPOSImageScanner@@@ATL@@6B?$IOleObjectImpl@VCOPOSImageScanner@@@1@@ 1001fa20     ImageScanner.obj
 0002:00000a80       ??_7?$CComObject@VCOPOSImageScanner@@@ATL@@6B?$IOleInPlaceActiveObjectImpl@VCOPOSImageScanner@@@1@@ 1001fa80     ImageScanner.obj
 0002:00000aa8       ??_7?$CComObject@VCOPOSImageScanner@@@ATL@@6B?$IViewObjectExImpl@VCOPOSImageScanner@@@1@@ 1001faa8     ImageScanner.obj
 0002:00000ae4       ??_7?$CComObject@VCOPOSImageScanner@@@ATL@@6B?$IOleInPlaceObjectWindowlessImpl@VCOPOSImageScanner@@@1@@ 1001fae4     ImageScanner.obj
 0002:00000b10       ??_7?$CComObject@VCOPOSImageScanner@@@ATL@@6B?$IConnectionPointContainerImpl@VCOPOSImageScanner@@@1@@ 1001fb10     ImageScanner.obj
 0002:00000b24       ??_7?$CComObject@VCOPOSImageScanner@@@ATL@@6B?$IPersistStorageImpl@VCOPOSImageScanner@@@1@@ 1001fb24     ImageScanner.obj
 0002:00000b4c       ??_7?$CComObject@VCOPOSImageScanner@@@ATL@@6B?$ISpecifyPropertyPagesImpl@VCOPOSImageScanner@@@1@@ 1001fb4c     ImageScanner.obj
 0002:00000b5c       ??_7?$CComObject@VCOPOSImageScanner@@@ATL@@6B?$IQuickActivateImpl@VCOPOSImageScanner@@@1@@ 1001fb5c     ImageScanner.obj
 0002:00000b74       ??_7?$CComObject@VCOPOSImageScanner@@@ATL@@6B?$IDataObjectImpl@VCOPOSImageScanner@@@1@@ 1001fb74     ImageScanner.obj
 0002:00000ba4       ??_7?$CComObject@VCOPOSImageScanner@@@ATL@@6B?$IProvideClassInfo2Impl@$1?CLSID_OPOSImageScanner@@3U_GUID@@B$1?DIID__IOPOSImageScannerEvents@@3U2@B$1?LIBID_OposImageScanner_CCO@@3U2@B$00$0A@VCComTypeInfoHolder@ATL@@@1@@ 1001fba4     ImageScanner.obj
 0002:00000bb8       ??_7?$CComObject@VCOPOSImageScanner@@@ATL@@6B?$IObjectSafetyImpl@VCOPOSImageScanner@@$02@1@@ 1001fbb8     ImageScanner.obj
 0002:00000bd0       ??_7?$CComObject@VCOPOSImageScanner@@@ATL@@6B?$IPropertyNotifySinkCP@VCOPOSImageScanner@@VCComDynamicUnkArray@ATL@@@1@@ 1001fbd0     ImageScanner.obj
 0002:00000bf0       ??_7?$CComObject@VCOPOSImageScanner@@@ATL@@6B?$CProxy_IOPOSEvents@VCOPOSImageScanner@@@@@ 1001fbf0     ImageScanner.obj
 0002:00000c10       __GUID_a6bc3ac0_dbaa_11ce_9de3_00aa004bb851 1001fc10     ImageScanner.obj
 0002:00000c20       __GUID_0000010c_0000_0000_c000_000000000046 1001fc20     ImageScanner.obj
 0002:00000c30       ??_C@_1O@GBFKGNEO@?$AAA?$AAT?$AAL?$AA?3?$AA?$CF?$AAp@ 1001fc30     ImageScanner.obj
 0002:00000c40       __GUID_00000146_0000_0000_c000_000000000046 1001fc40     ImageScanner.obj
 0002:00000c50       ??_C@_1BA@PICGEGJB@?$AAD?$AAI?$AAS?$AAP?$AAL?$AAA?$AAY@ 1001fc50     ImageScanner.obj
 0002:00000c60       __GUID_9bfbbc02_eff1_101a_84ed_00aa00341d07 1001fc60     ImageScanner.obj
 0002:00000c70       ??_7CComModule@ATL@@6B@    1001fc70     ImageScanner.obj
 0002:00000c98       ?_entries@?1??_GetEntries@?$CComEnum@UIEnumConnectionPoints@@$1?_GUID_b196b285_bab4_101a_b69c_00aa00341d07@@3U__s_GUID@@BPAUIConnectionPoint@@V?$_CopyInterface@UIConnectionPoint@@@ATL@@VCComSingleThreadModel@6@@ATL@@SGPBU_ATL_INTMAP_ENTRY@3@XZ@4QBU43@B 1001fc98     ImageScanner.obj
 0002:00000cb0       __GUID_00000000_0000_0000_c000_000000000046 1001fcb0     ImageScanner.obj
 0002:00000cc0       __GUID_00020400_0000_0000_c000_000000000046 1001fcc0     ImageScanner.obj
 0002:00000cd0       __GUID_00020412_0000_0000_c000_000000000046 1001fcd0     ImageScanner.obj
 0002:00000ce0       __GUID_00020401_0000_0000_c000_000000000046 1001fce0     ImageScanner.obj
 0002:00000cf0       ??_C@_1M@KANJNLFF@?$AAC?$AAL?$AAS?$AAI?$AAD@ 1001fcf0     ImageScanner.obj
 0002:00000cfc       ??_C@_1M@EJNEECMJ@?$AAA?$AAp?$AAp?$AAI?$AAD@ 1001fcfc     ImageScanner.obj
 0002:00000d08       ??_7?$CComObject@V?$CComEnum@UIEnumConnections@@$1?_GUID_b196b287_bab4_101a_b69c_00aa00341d07@@3U__s_GUID@@BUtagCONNECTDATA@@V?$_Copy@UtagCONNECTDATA@@@ATL@@VCComSingleThreadModel@6@@ATL@@@ATL@@6B@ 1001fd08     ImageScanner.obj
 0002:00000d28       __GUID_55980ba0_35aa_11cf_b671_00aa004cd6d8 1001fd28     ImageScanner.obj
 0002:00000d38       __GUID_b196b28b_bab4_101a_b69c_00aa00341d07 1001fd38     ImageScanner.obj
 0002:00000d48       ?rgszNeverDelete@CRegParser@ATL@@1QBQB_WB 1001fd48     ImageScanner.obj
 0002:00000d78       ??_7CRegObject@ATL@@6B@    1001fd78     ImageScanner.obj
 0002:00000d90       ?_entries@?1??_GetEntries@?$CComEnum@UIEnumConnections@@$1?_GUID_b196b287_bab4_101a_b69c_00aa00341d07@@3U__s_GUID@@BUtagCONNECTDATA@@V?$_Copy@UtagCONNECTDATA@@@ATL@@VCComSingleThreadModel@6@@ATL@@SGPBU_ATL_INTMAP_ENTRY@3@XZ@4QBU43@B 1001fd90     ImageScanner.obj
 0002:00000da8       ??_C@_1CK@OEKPKBNA@?$AAC?$AAo?$AAm?$AAp?$AAo?$AAn?$AAe?$AAn?$AAt?$AA?5?$AAC?$AAa?$AAt?$AAe?$AAg@ 1001fda8     ImageScanner.obj
 0002:00000dd4       ??_C@_1BC@NKMMNMGL@?$AAF?$AAi?$AAl?$AAe?$AAT?$AAy?$AAp?$AAe@ 1001fdd4     ImageScanner.obj
 0002:00000de8       ??_C@_1BE@EKPAFMCP@?$AAI?$AAn?$AAt?$AAe?$AAr?$AAf?$AAa?$AAc?$AAe@ 1001fde8     ImageScanner.obj
 0002:00000dfc       ??_C@_1BC@MAICEHGI@?$AAH?$AAa?$AAr?$AAd?$AAw?$AAa?$AAr?$AAe@ 1001fdfc     ImageScanner.obj
 0002:00000e10       ??_C@_19HLLLM@?$AAM?$AAi?$AAm?$AAe@ 1001fe10     ImageScanner.obj
 0002:00000e1c       ??_C@_17OMAOINJK@?$AAS?$AAA?$AAM@ 1001fe1c     ImageScanner.obj
 0002:00000e24       ??_C@_1BC@IBECJAAI@?$AAS?$AAE?$AAC?$AAU?$AAR?$AAI?$AAT?$AAY@ 1001fe24     ImageScanner.obj
 0002:00000e38       ??_C@_1O@GBFINDKL@?$AAS?$AAY?$AAS?$AAT?$AAE?$AAM@ 1001fe38     ImageScanner.obj
 0002:00000e48       ??_C@_1BC@EAHCMADO@?$AAS?$AAo?$AAf?$AAt?$AAw?$AAa?$AAr?$AAe@ 1001fe48     ImageScanner.obj
 0002:00000e5c       ??_C@_1BA@JIHHIEDE@?$AAT?$AAy?$AAp?$AAe?$AAL?$AAi?$AAb@ 1001fe5c     ImageScanner.obj
 0002:00000e70       ?map@?1??HKeyFromString@CRegParser@ATL@@KAPAUHKEY__@@PA_W@Z@4QBUkeymap@?1??123@KAPAU4@0@Z@B 1001fe70     ImageScanner.obj
 0002:00000ee0       ??_C@_19NCHLBIN@?$AAH?$AAK?$AAC?$AAR@ 1001fee0     ImageScanner.obj
 0002:00000eec       ??_C@_19JAPAIJDE@?$AAH?$AAK?$AAC?$AAU@ 1001feec     ImageScanner.obj
 0002:00000ef8       ??_C@_19PEALEEJB@?$AAH?$AAK?$AAL?$AAM@ 1001fef8     ImageScanner.obj
 0002:00000f04       ??_C@_17PJOJPMPB@?$AAH?$AAK?$AAU@ 1001ff04     ImageScanner.obj
 0002:00000f0c       ??_C@_19PNBHMJPL@?$AAH?$AAK?$AAP?$AAD@ 1001ff0c     ImageScanner.obj
 0002:00000f18       ??_C@_19GFFAIJHG@?$AAH?$AAK?$AAD?$AAD@ 1001ff18     ImageScanner.obj
 0002:00000f24       ??_C@_19OFICIBHH@?$AAH?$AAK?$AAC?$AAC@ 1001ff24     ImageScanner.obj
 0002:00000f30       ??_C@_1CE@PACHPJFI@?$AAH?$AAK?$AAE?$AAY?$AA_?$AAC?$AAL?$AAA?$AAS?$AAS?$AAE?$AAS?$AA_?$AAR?$AAO@ 1001ff30     ImageScanner.obj
 0002:00000f54       ??_C@_1CE@HLHNCBPM@?$AAH?$AAK?$AAE?$AAY?$AA_?$AAC?$AAU?$AAR?$AAR?$AAE?$AAN?$AAT?$AA_?$AAU?$AAS@ 1001ff54     ImageScanner.obj
 0002:00000f78       ??_C@_1CG@GFBEANJL@?$AAH?$AAK?$AAE?$AAY?$AA_?$AAL?$AAO?$AAC?$AAA?$AAL?$AA_?$AAM?$AAA?$AAC?$AAH@ 1001ff78     ImageScanner.obj
 0002:00000fa0       ??_C@_1BG@BGODANIO@?$AAH?$AAK?$AAE?$AAY?$AA_?$AAU?$AAS?$AAE?$AAR?$AAS@ 1001ffa0     ImageScanner.obj
 0002:00000fb8       ??_C@_1CM@KHNNAOIC@?$AAH?$AAK?$AAE?$AAY?$AA_?$AAP?$AAE?$AAR?$AAF?$AAO?$AAR?$AAM?$AAA?$AAN?$AAC@ 1001ffb8     ImageScanner.obj
 0002:00000fe4       ??_C@_1BM@HAGMMHIA@?$AAH?$AAK?$AAE?$AAY?$AA_?$AAD?$AAY?$AAN?$AA_?$AAD?$AAA?$AAT?$AAA@ 1001ffe4     ImageScanner.obj
 0002:00001000       ??_C@_1CI@BBJOACGG@?$AAH?$AAK?$AAE?$AAY?$AA_?$AAC?$AAU?$AAR?$AAR?$AAE?$AAN?$AAT?$AA_?$AAC?$AAO@ 10020000     ImageScanner.obj
 0002:00001028       __GUID_00000109_0000_0000_c000_000000000046 10020028     ImageScanner.obj
 0002:00001038       __GUID_7fd52380_4e07_101b_ae2d_08002b2ec713 10020038     ImageScanner.obj
 0002:00001048       ??_C@_1EA@NHKLICFA@?$AAH?$AAK?$AAC?$AAU?$AA?$AN?$AA?6?$AA?$HL?$AA?7?$AAS?$AAo?$AAf?$AAt?$AAw?$AAa?$AAr@ 10020048     ImageScanner.obj
 0002:00001088       ??_C@_1BE@LJOLIMEM@?$AA?$AN?$AA?6?$AA?7?$AA?$HN?$AA?$AN?$AA?6?$AA?$HN?$AA?$AN?$AA?6@ 10020088     ImageScanner.obj
 0002:0000109c       ??_C@_1O@MNLDABAF@?$AAM?$AAo?$AAd?$AAu?$AAl?$AAe@ 1002009c     ImageScanner.obj
 0002:000010ac       ??_C@_1BG@JBACFMF@?$AAM?$AAo?$AAd?$AAu?$AAl?$AAe?$AA_?$AAR?$AAa?$AAw@ 100200ac     ImageScanner.obj
 0002:000010c4       ??_C@_1BC@KAILKFFG@?$AAR?$AAE?$AAG?$AAI?$AAS?$AAT?$AAR?$AAY@ 100200c4     ImageScanner.obj
 0002:000010d8       _IID_IOPOSImageScanner_1_11 100200d8     ImageScanner.obj
 0002:000010e8       _IID_IOPOSImageScanner     100200e8     ImageScanner.obj
 0002:000010f8       _LIBID_OposImageScanner_CCO 100200f8     ImageScanner.obj
 0002:00001108       _DIID__IOPOSImageScannerEvents 10020108     ImageScanner.obj
 0002:00001118       _CLSID_OPOSImageScanner    10020118     ImageScanner.obj
 0002:00001128       __GUID_00000114_0000_0000_c000_000000000046 10020128     ImageScanner.obj
 0002:00001138       __GUID_b196b284_bab4_101a_b69c_00aa00341d07 10020138     ImageScanner.obj
 0002:00001148       ?_entries@?1??_GetEntries@COPOSImageScanner@@SGPBU_ATL_INTMAP_ENTRY@ATL@@XZ@4QBU34@B 10020148     ImageScanner.obj
 0002:00001268       __GUID_cf51ed10_62fe_11cf_bf86_00a0c9034836 10020268     ImageScanner.obj
 0002:00001278       __GUID_0000010a_0000_0000_c000_000000000046 10020278     ImageScanner.obj
 0002:00001288       __GUID_b196b283_bab4_101a_b69c_00aa00341d07 10020288     ImageScanner.obj
 0002:00001298       __GUID_cb5bdc81_93c1_11cf_8f20_00805f2cd064 10020298     ImageScanner.obj
 0002:000012a8       ?pPropMap@?1??GetPropertyMap@COPOSImageScanner@@SAPBUATL_PROPMAP_ENTRY@ATL@@XZ@4QBU34@B 100202a8     ImageScanner.obj
 0002:00001314       ??_C@_17DGDADEHL@?$AA_?$AAc?$AAx@ 10020314     ImageScanner.obj
 0002:0000131c       ??_C@_17IOIMFDBO@?$AA_?$AAc?$AAy@ 1002031c     ImageScanner.obj
 0002:00001324       __GUID_922eada0_3424_11cf_b670_00aa004cd6d8 10020324     ImageScanner.obj
 0002:00001334       __GUID_9c2cad80_3424_11cf_b670_00aa004cd6d8 10020334     ImageScanner.obj
 0002:00001344       __GUID_00000119_0000_0000_c000_000000000046 10020344     ImageScanner.obj
 0002:00001354       __GUID_b196b289_bab4_101a_b69c_00aa00341d07 10020354     ImageScanner.obj
 0002:00001364       __GUID_b196b286_bab4_101a_b69c_00aa00341d07 10020364     ImageScanner.obj
 0002:00001374       ??_C@_1CE@PGFMOFKI@?$AAS?$AAt?$AAa?$AAt?$AAu?$AAs?$AAU?$AAp?$AAd?$AAa?$AAt?$AAe?$AAE?$AAv?$AAe@ 10020374     ImageScanner.obj
 0002:00001398       ??_C@_1BG@LODEBHDD@?$AAE?$AAr?$AAr?$AAo?$AAr?$AAE?$AAv?$AAe?$AAn?$AAt@ 10020398     ImageScanner.obj
 0002:000013b0       ??_C@_1BM@CBGEBBBJ@?$AAD?$AAi?$AAr?$AAe?$AAc?$AAt?$AAI?$AAO?$AAE?$AAv?$AAe?$AAn?$AAt@ 100203b0     ImageScanner.obj
 0002:000013cc       ??_C@_1BE@IEBMACEM@?$AAD?$AAa?$AAt?$AAa?$AAE?$AAv?$AAe?$AAn?$AAt@ 100203cc     ImageScanner.obj
 0002:000013e0       __GUID_00000117_0000_0000_c000_000000000046 100203e0     ImageScanner.obj
 0002:000013f0       ??_C@_1BC@ENICKDH@?$AAC?$AAo?$AAn?$AAt?$AAe?$AAn?$AAt?$AAs@ 100203f0     ImageScanner.obj
 0002:00001404       ??_7?$CComObject@V?$CComEnum@UIEnumConnectionPoints@@$1?_GUID_b196b285_bab4_101a_b69c_00aa00341d07@@3U__s_GUID@@BPAUIConnectionPoint@@V?$_CopyInterface@UIConnectionPoint@@@ATL@@VCComSingleThreadModel@6@@ATL@@@ATL@@6B@ 10020404     ImageScanner.obj
 0002:00001424       ??_7CComClassFactory@ATL@@6B@ 10020424     ImageScanner.obj
 0002:0000143c       ?_entries@?1??_GetEntries@CComClassFactory@ATL@@SGPBU_ATL_INTMAP_ENTRY@3@XZ@4QBU43@B 1002043c     ImageScanner.obj
 0002:00001454       __GUID_00000001_0000_0000_c000_000000000046 10020454     ImageScanner.obj
 0002:00001464       ??_C@_0BG@EKFFMJIO@RegOpenKeyTransactedW@ 10020464     ImageScanner.obj
 0002:0000147c       ??_C@_0BI@HAKLOOGP@RegDeleteKeyTransactedW@ 1002047c     ImageScanner.obj
 0002:00001494       ??_C@_0BA@LILAPHGE@RegDeleteKeyExW@ 10020494     ImageScanner.obj
 0002:000014a4       ??_C@_19ILOCMLCJ@?$AA?4?$AAt?$AAl?$AAb@ 100204a4     ImageScanner.obj
 0002:000014b0       __GUID_0002e012_0000_0000_c000_000000000046 100204b0     ImageScanner.obj
 0002:000014c0       ??_C@_1O@FHBGLCIO@?$AAC?$AAL?$AAS?$AAI?$AAD?$AA?2@ 100204c0     ImageScanner.obj
 0002:000014d0       ??_C@_1CK@IFBKBFAA@?$AA?2?$AAR?$AAe?$AAq?$AAu?$AAi?$AAr?$AAe?$AAd?$AA?5?$AAC?$AAa?$AAt?$AAe?$AAg@ 100204d0     ImageScanner.obj
 0002:000014fc       ??_C@_1DA@BIHALFED@?$AA?2?$AAI?$AAm?$AAp?$AAl?$AAe?$AAm?$AAe?$AAn?$AAt?$AAe?$AAd?$AA?5?$AAC?$AAa@ 100204fc     ImageScanner.obj
 0002:0000152c       ??_C@_1BK@EDKOLFBJ@?$AAO?$AAL?$AAE?$AAA?$AAU?$AAT?$AA3?$AA2?$AA?4?$AAD?$AAL?$AAL@ 1002052c     ImageScanner.obj
 0002:00001548       ??_C@_0BJ@CNLFOMHB@UnRegisterTypeLibForUser@ 10020548     ImageScanner.obj
 0002:00001564       ??_C@_0BH@LBOMMKPJ@RegisterTypeLibForUser@ 10020564     ImageScanner.obj
 0002:0000157c       ??_C@_0P@MMNMMLGK@COFreezeEvents@ 1002057c     ImageScannerImpl.obj
 0002:0000158c       ??_C@_0BC@OGCGGIMP@GetPropertyNumber@ 1002058c     ImageScannerImpl.obj
 0002:000015a0       ??_C@_0BC@MDCNODNB@SetPropertyNumber@ 100205a0     ImageScannerImpl.obj
 0002:000015b4       ??_C@_0BC@CFCCMIMD@GetPropertyString@ 100205b4     ImageScannerImpl.obj
 0002:000015c8       ??_C@_0BC@CJEDNN@SetPropertyString@ 100205c8     ImageScannerImpl.obj
 0002:000015dc       ??_C@_0M@LNPKKKDA@OpenService@ 100205dc     ImageScannerImpl.obj
 0002:000015e8       ??_C@_0M@PCMCHHMH@CheckHealth@ 100205e8     ImageScannerImpl.obj
 0002:000015f4       ??_C@_0M@JGMIDNEK@ClaimDevice@ 100205f4     ImageScannerImpl.obj
 0002:00001600       ??_C@_0L@BNEIFEJC@ClearInput@ 10020600     ImageScannerImpl.obj
 0002:0000160c       ??_C@_0N@DDFIIBMP@CloseService@ 1002060c     ImageScannerImpl.obj
 0002:0000161c       ??_C@_08EEIHICPC@DirectIO@ 1002061c     ImageScannerImpl.obj
 0002:00001628       ??_C@_0O@BCPMENMJ@ReleaseDevice@ 10020628     ImageScannerImpl.obj
 0002:00001638       ??_C@_0BA@GFABKEEE@ResetStatistics@ 10020638     ImageScannerImpl.obj
 0002:00001648       ??_C@_0BD@DPALHJGC@RetrieveStatistics@ 10020648     ImageScannerImpl.obj
 0002:0000165c       ??_C@_0BB@KOHIKNFC@UpdateStatistics@ 1002065c     ImageScannerImpl.obj
 0002:00001670       ??_C@_0BH@PBKBNMGB@CompareFirmwareVersion@ 10020670     ImageScannerImpl.obj
 0002:00001688       ??_C@_0P@FBPDPIPA@UpdateFirmware@ 10020688     ImageScannerImpl.obj
 0002:00001698       ??_C@_0BF@CMAPCJGM@ClearInputProperties@ 10020698     ImageScannerImpl.obj
 0002:000016b0       ??_C@_0N@GCBGNGGH@StartSession@ 100206b0     ImageScannerImpl.obj
 0002:000016c0       ??_C@_0M@JOEDAMJP@StopSession@ 100206c0     ImageScannerImpl.obj
 0002:000016cc       ??_7?$CProxy_IOPOSEvents@VCOPOSImageScanner@@@@6B@ 100206cc     ImageScannerImpl.obj
 0002:000016ec       ??_C@_1BA@IFHENID@?$AA?$FL?$AAE?$AAr?$AAr?$AAo?$AAr?$AA?$FN@ 100206ec     ImageScannerImpl.obj
 0002:000016fc       ??_C@_0CP@HACMBLAI@SOFTWARE?2OLEforRetail?2ServiceOP@ 100206fc     ImageScannerImpl.obj
 0002:0000172c       ??_C@_1M@IAIJHCCH@?$AAC?$AAl?$AAo?$AAs?$AAe@ 1002072c     ImageScannerImpl.obj
 0002:00001738       ??_C@_1M@PCPKGJAH@?$AAC?$AAl?$AAa?$AAi?$AAm@ 10020738     ImageScannerImpl.obj
 0002:00001744       ??_C@_1BA@NDFKIOCP@?$AAR?$AAe?$AAl?$AAe?$AAa?$AAs?$AAe@ 10020744     ImageScannerImpl.obj
 0002:00001754       ??_C@_0N@MEEKPIMD@ImageScanner@ 10020754     ImageScannerImpl.obj
 0002:00001764       ??_C@_1BM@IJMNMBPK@?$AAG?$AAe?$AAt?$AAO?$AAp?$AAe?$AAn?$AAR?$AAe?$AAs?$AAu?$AAl?$AAt@ 10020764     ImageScannerImpl.obj
 0002:00001780       _IID_IPropertyNotifySink   10020780     uuid:ocidl_i.obj
 0002:00001790       _GUID_NULL                 10020790     uuid:cguid_i.obj
 0002:000017a0       _CLSID_StdGlobalInterfaceTable 100207a0     uuid:cguid_i.obj
 0002:000017b0       _IID_IDispatch             100207b0     uuid:oaidl_i.obj
 0002:000017c0       _CLSID_StdComponentCategoriesMgr 100207c0     uuid:ieguids.obj
 0002:000017d0       _IID_IUnknown              100207d0     uuid:unknwn_i.obj
 0002:000017e0       ??_C@_1EC@JIJBPKFM@?$AAa?$AAp?$AAi?$AA?9?$AAm?$AAs?$AA?9?$AAw?$AAi?$AAn?$AA?9?$AAc?$AAo?$AAr?$AAe@ 100207e0     LIBCMT:thread_safe_statics.obj
 0002:00001824       ??_C@_1BK@MGMFAEKH@?$AAk?$AAe?$AAr?$AAn?$AAe?$AAl?$AA3?$AA2?$AA?4?$AAd?$AAl?$AAl@ 10020824     LIBCMT:thread_safe_statics.obj
 0002:00001840       ??_C@_0BJ@JEBJOJFJ@SleepConditionVariableCS@ 10020840     LIBCMT:thread_safe_statics.obj
 0002:0000185c       ??_C@_0BJ@PGPPEPCC@WakeAllConditionVariable@ 1002085c     LIBCMT:thread_safe_statics.obj
 0002:00001875       ?nothrow@std@@3Unothrow_t@1@B 10020875     LIBCMT:std_nothrow.obj
 0002:00001880       __pRawDllMain              10020880     LIBCMT:dll_dllmain.obj
 0002:00001880       __pDefaultRawDllMain       10020880     LIBCMT:dll_dllmain.obj
 0002:00001888       ??_7exception@std@@6B@     10020888     LIBCMT:throw_bad_alloc.obj
 0002:00001890       ??_C@_0BC@EOODALEL@Unknown?5exception@ 10020890     LIBCMT:throw_bad_alloc.obj
 0002:000018a8       ??_7bad_alloc@std@@6B@     100208a8     LIBCMT:throw_bad_alloc.obj
 0002:000018b0       ??_C@_0P@GHFPNOJB@bad?5allocation@ 100208b0     LIBCMT:throw_bad_alloc.obj
 0002:000018c4       ??_7bad_array_new_length@std@@6B@ 100208c4     LIBCMT:throw_bad_alloc.obj
 0002:000018cc       ??_C@_0BF@KINCDENJ@bad?5array?5new?5length@ 100208cc     LIBCMT:throw_bad_alloc.obj
 0002:000018e8       ??_7type_info@@6B@         100208e8     LIBCMT:std_type_info_static.obj
 0002:000018ec       _GUID_ATLVer110            100208ec     atls:atlbase.obj
 0002:00001900       ??_C@_1IC@ONKHOIDK@?$AAE?$AAR?$AAR?$AAO?$AAR?$AA?5?$AA?3?$AA?5?$AAU?$AAn?$AAa?$AAb?$AAl?$AAe?$AA?5@ 10020900     atls:atlbase.obj
 0002:00001984       ??_C@_0N@FJEPLCIH@atlthunk?4dll@ 10020984     atls:atlthunk.obj
 0002:00001994       ??_C@_0BG@GAKFHCBM@AtlThunk_AllocateData@ 10020994     atls:atlthunk.obj
 0002:000019ac       ??_C@_0BC@JKONFIAH@AtlThunk_InitData@ 100209ac     atls:atlthunk.obj
 0002:000019c0       ??_C@_0BE@IAOEELAK@AtlThunk_DataToCode@ 100209c0     atls:atlthunk.obj
 0002:000019d4       ??_C@_0BC@GBGKAIPI@AtlThunk_FreeData@ 100209d4     atls:atlthunk.obj
 0002:00001a0c       ??_7bad_exception@std@@6B@ 10020a0c     libvcruntime:frame.obj
 0002:00001a14       ??_C@_0O@DPKOEFFH@bad?5exception@ 10020a14     libvcruntime:frame.obj
 0002:00001bc8       ??_C@_08EHJDFFNH@__based?$CI@ 10020bc8     libvcruntime:undname.obj
 0002:00001bd4       ??_C@_07KOLFKCDI@__cdecl@  10020bd4     libvcruntime:undname.obj
 0002:00001bdc       ??_C@_08GHMPAG@__pascal@   10020bdc     libvcruntime:undname.obj
 0002:00001be8       ??_C@_09IFJBGAPI@__stdcall@ 10020be8     libvcruntime:undname.obj
 0002:00001bf4       ??_C@_0L@NPHFGOKO@__thiscall@ 10020bf4     libvcruntime:undname.obj
 0002:00001c00       ??_C@_0L@JMKHOMEK@__fastcall@ 10020c00     libvcruntime:undname.obj
 0002:00001c0c       ??_C@_0N@BCKKPABJ@__vectorcall@ 10020c0c     libvcruntime:undname.obj
 0002:00001c1c       ??_C@_09HIJEGCPM@__clrcall@ 10020c1c     libvcruntime:undname.obj
 0002:00001c28       ??_C@_06GHPCKEAG@__eabi@   10020c28     libvcruntime:undname.obj
 0002:00001c30       ??_C@_09IOPIDJLG@__swift_1@ 10020c30     libvcruntime:undname.obj
 0002:00001c3c       ??_C@_09KFNFGKHF@__swift_2@ 10020c3c     libvcruntime:undname.obj
 0002:00001c48       ??_C@_07JOMMBBKO@__ptr64@  10020c48     libvcruntime:undname.obj
 0002:00001c50       ??_C@_0L@PILCLIHE@__restrict@ 10020c50     libvcruntime:undname.obj
 0002:00001c5c       ??_C@_0M@GFIIJFMG@__unaligned@ 10020c5c     libvcruntime:undname.obj
 0002:00001c68       ??_C@_09DHDLOLLB@restrict?$CI@ 10020c68     libvcruntime:undname.obj
 0002:00001c72       ??_C@_00CNPNBAHC@@         10020c72     libvcruntime:undname.obj
 0002:00001c74       ??_C@_04NIHEBCM@?5new@     10020c74     libvcruntime:undname.obj
 0002:00001c7c       ??_C@_07FPCDHGMM@?5delete@ 10020c7c     libvcruntime:undname.obj
 0002:00001c84       ??_C@_01NEMOKFLO@?$DN@     10020c84     libvcruntime:undname.obj
 0002:00001c88       ??_C@_02GPIOPFAK@?$DO?$DO@ 10020c88     libvcruntime:undname.obj
 0002:00001c8c       ??_C@_02FODMEDOG@?$DM?$DM@ 10020c8c     libvcruntime:undname.obj
 0002:00001c90       ??_C@_01DCLJPIOD@?$CB@     10020c90     libvcruntime:undname.obj
 0002:00001c94       ??_C@_02EGOFBIJA@?$DN?$DN@ 10020c94     libvcruntime:undname.obj
 0002:00001c98       ??_C@_02FDNJECIE@?$CB?$DN@ 10020c98     libvcruntime:undname.obj
 0002:00001c9c       ??_C@_02GPECMEKF@?$FL?$FN@ 10020c9c     libvcruntime:undname.obj
 0002:00001ca0       ??_C@_08LHJFAFGD@operator@ 10020ca0     libvcruntime:undname.obj
 0002:00001cac       ??_C@_02HBOOOICD@?9?$DO@   10020cac     libvcruntime:undname.obj
 0002:00001cb0       ??_C@_01NBENCBCI@?$CK@     10020cb0     libvcruntime:undname.obj
 0002:00001cb4       ??_C@_02ECNGHCIF@?$CL?$CL@ 10020cb4     libvcruntime:undname.obj
 0002:00001cb8       ??_C@_02BAABKJLB@?9?9@     10020cb8     libvcruntime:undname.obj
 0002:00001cbc       ??_C@_01JOAMLHOP@?9@       10020cbc     libvcruntime:undname.obj
 0002:00001cc0       ??_C@_01MIFGBAGJ@?$CL@     10020cc0     libvcruntime:undname.obj
 0002:00001cc4       ??_C@_01HNPIGOCE@?$CG@     10020cc4     libvcruntime:undname.obj
 0002:00001cc8       ??_C@_03MNHNFDLC@?9?$DO?$CK@ 10020cc8     libvcruntime:undname.obj
 0002:00001ccc       ??_C@_01KMDKNFGN@?1@       10020ccc     libvcruntime:undname.obj
 0002:00001cd0       ??_C@_01FGNFDNOH@?$CF@     10020cd0     libvcruntime:undname.obj
 0002:00001cd4       ??_C@_01MNNFJEPP@?$DM@     10020cd4     libvcruntime:undname.obj
 0002:00001cd8       ??_C@_02EHCHHCKH@?$DM?$DN@ 10020cd8     libvcruntime:undname.obj
 0002:00001cdc       ??_C@_01PPODPGHN@?$DO@     10020cdc     libvcruntime:undname.obj
 0002:00001ce0       ??_C@_02EEKDKGMJ@?$DO?$DN@ 10020ce0     libvcruntime:undname.obj
 0002:00001ce4       ??_C@_01IHBHIGKO@?0@       10020ce4     libvcruntime:undname.obj
 0002:00001ce8       ??_C@_02HCKGKOFO@?$CI?$CJ@ 10020ce8     libvcruntime:undname.obj
 0002:00001cec       ??_C@_01PJKLJHI@?$HO@      10020cec     libvcruntime:undname.obj
 0002:00001cf0       ??_C@_01JKBOJNNK@?$FO@     10020cf0     libvcruntime:undname.obj
 0002:00001cf4       ??_C@_01DNKMNLPK@?$HM@     10020cf4     libvcruntime:undname.obj
 0002:00001cf8       ??_C@_02PPKAJPJL@?$CG?$CG@ 10020cf8     libvcruntime:undname.obj
 0002:00001cfc       ??_C@_02NONPIBCD@?$HM?$HM@ 10020cfc     libvcruntime:undname.obj
 0002:00001d00       ??_C@_02FPIMKNGF@?$CK?$DN@ 10020d00     libvcruntime:undname.obj
 0002:00001d04       ??_C@_02FOEOMHFC@?$CL?$DN@ 10020d04     libvcruntime:undname.obj
 0002:00001d08       ??_C@_02FKMDLLOA@?9?$DN@   10020d08     libvcruntime:undname.obj
 0002:00001d0c       ??_C@_02FJEHGPIO@?1?$DN@   10020d0c     libvcruntime:undname.obj
 0002:00001d10       ??_C@_02FENAOKFI@?$CF?$DN@ 10020d10     libvcruntime:undname.obj
 0002:00001d14       ??_C@_03IKFCCPFF@?$DO?$DO?$DN@ 10020d14     libvcruntime:undname.obj
 0002:00001d18       ??_C@_03CDNPDDLA@?$DM?$DM?$DN@ 10020d18     libvcruntime:undname.obj
 0002:00001d1c       ??_C@_02FGJGFEAB@?$CG?$DN@ 10020d1c     libvcruntime:undname.obj
 0002:00001d20       ??_C@_02DHLNPPGH@?$HM?$DN@ 10020d20     libvcruntime:undname.obj
 0002:00001d24       ??_C@_02MHEGNOJ@?$FO?$DN@  10020d24     libvcruntime:undname.obj
 0002:00001d28       ??_C@_09IFPLHPGF@?$GAvftable?8@ 10020d28     libvcruntime:undname.obj
 0002:00001d34       ??_C@_09BLBHBJP@?$GAvbtable?8@ 10020d34     libvcruntime:undname.obj
 0002:00001d40       ??_C@_07FEEIOKP@?$GAvcall?8@ 10020d40     libvcruntime:undname.obj
 0002:00001d48       ??_C@_08LLFFHHDJ@?$GAtypeof?8@ 10020d48     libvcruntime:undname.obj
 0002:00001d54       ??_C@_0BF@KDPPACIK@?$GAlocal?5static?5guard?8@ 10020d54     libvcruntime:undname.obj
 0002:00001d6c       ??_C@_08OBABFOLI@?$GAstring?8@ 10020d6c     libvcruntime:undname.obj
 0002:00001d78       ??_C@_0BD@JDLKDPAB@?$GAvbase?5destructor?8@ 10020d78     libvcruntime:undname.obj
 0002:00001d8c       ??_C@_0BN@DEGPLNFK@?$GAvector?5deleting?5destructor?8@ 10020d8c     libvcruntime:undname.obj
 0002:00001dac       ??_C@_0BO@OBMKPJIG@?$GAdefault?5constructor?5closure?8@ 10020dac     libvcruntime:undname.obj
 0002:00001dcc       ??_C@_0BN@IMDCHIKM@?$GAscalar?5deleting?5destructor?8@ 10020dcc     libvcruntime:undname.obj
 0002:00001dec       ??_C@_0BO@PFGOCPJJ@?$GAvector?5constructor?5iterator?8@ 10020dec     libvcruntime:undname.obj
 0002:00001e0c       ??_C@_0BN@LFPFMEDL@?$GAvector?5destructor?5iterator?8@ 10020e0c     libvcruntime:undname.obj
 0002:00001e2c       ??_C@_0CE@IKBNEHA@?$GAvector?5vbase?5constructor?5itera@ 10020e2c     libvcruntime:undname.obj
 0002:00001e50       ??_C@_0BL@NILFHHPC@?$GAvirtual?5displacement?5map?8@ 10020e50     libvcruntime:undname.obj
 0002:00001e6c       ??_C@_0CB@JONCMFFK@?$GAeh?5vector?5constructor?5iterator@ 10020e6c     libvcruntime:undname.obj
 0002:00001e90       ??_C@_0CA@GCEOPDGL@?$GAeh?5vector?5destructor?5iterator?8@ 10020e90     libvcruntime:undname.obj
 0002:00001eb0       ??_C@_0CH@OOJPLCPH@?$GAeh?5vector?5vbase?5constructor?5it@ 10020eb0     libvcruntime:undname.obj
 0002:00001ed8       ??_C@_0BL@LLKPOHJI@?$GAcopy?5constructor?5closure?8@ 10020ed8     libvcruntime:undname.obj
 0002:00001ef4       ??_C@_0BA@KBCDOMBN@?$GAudt?5returning?8@ 10020ef4     libvcruntime:undname.obj
 0002:00001f04       ??_C@_03KLGMFNMG@?$GAEH@   10020f04     libvcruntime:undname.obj
 0002:00001f08       ??_C@_05KHLCHHI@?$GARTTI@  10020f08     libvcruntime:undname.obj
 0002:00001f10       ??_C@_0BA@KKLDJDLB@?$GAlocal?5vftable?8@ 10020f10     libvcruntime:undname.obj
 0002:00001f20       ??_C@_0CE@IIHCMGGL@?$GAlocal?5vftable?5constructor?5clos@ 10020f20     libvcruntime:undname.obj
 0002:00001f44       ??_C@_06FHBGPFGH@?5new?$FL?$FN@ 10020f44     libvcruntime:undname.obj
 0002:00001f4c       ??_C@_09LBNFPBCA@?5delete?$FL?$FN@ 10020f4c     libvcruntime:undname.obj
 0002:00001f58       ??_C@_0P@HJKNJFNN@?$GAomni?5callsig?8@ 10020f58     libvcruntime:undname.obj
 0002:00001f68       ??_C@_0BL@CNOONJFP@?$GAplacement?5delete?5closure?8@ 10020f68     libvcruntime:undname.obj
 0002:00001f84       ??_C@_0BN@CKNJLHMB@?$GAplacement?5delete?$FL?$FN?5closure?8@ 10020f84     libvcruntime:undname.obj
 0002:00001fa4       ??_C@_0CG@CFDHKGGD@?$GAmanaged?5vector?5constructor?5ite@ 10020fa4     libvcruntime:undname.obj
 0002:00001fcc       ??_C@_0CF@IMGKMJNO@?$GAmanaged?5vector?5destructor?5iter@ 10020fcc     libvcruntime:undname.obj
 0002:00001ff4       ??_C@_0CG@HLDDJMAG@?$GAeh?5vector?5copy?5constructor?5ite@ 10020ff4     libvcruntime:undname.obj
 0002:0000201c       ??_C@_0CM@FCBBDIGB@?$GAeh?5vector?5vbase?5copy?5construct@ 1002101c     libvcruntime:undname.obj
 0002:00002048       ??_C@_0BL@CLIPGLGB@?$GAdynamic?5initializer?5for?5?8@ 10021048     libvcruntime:undname.obj
 0002:00002064       ??_C@_0CB@PDBIFEP@?$GAdynamic?5atexit?5destructor?5for?5@ 10021064     libvcruntime:undname.obj
 0002:00002088       ??_C@_0CD@CGAJBKEJ@?$GAvector?5copy?5constructor?5iterat@ 10021088     libvcruntime:undname.obj
 0002:000020ac       ??_C@_0CJ@GJELGAMM@?$GAvector?5vbase?5copy?5constructor?5@ 100210ac     libvcruntime:undname.obj
 0002:000020d8       ??_C@_0CL@FGIJHLCE@?$GAmanaged?5vector?5copy?5constructo@ 100210d8     libvcruntime:undname.obj
 0002:00002104       ??_C@_0BM@PMGGMLDN@?$GAlocal?5static?5thread?5guard?8@ 10021104     libvcruntime:undname.obj
 0002:00002120       ??_C@_0N@BDNMDMOL@operator?5?$CC?$CC?5@ 10021120     libvcruntime:undname.obj
 0002:00002130       ??_C@_0BC@GGEBGALA@operator?5co_await@ 10021130     libvcruntime:undname.obj
 0002:00002144       ??_C@_0M@GAAIMMOH@operator?$DM?$DN?$DO@ 10021144     libvcruntime:undname.obj
 0002:00002150       ??_C@_0BC@DAFEJGAK@?5Type?5Descriptor?8@ 10021150     libvcruntime:undname.obj
 0002:00002164       ??_C@_0BM@LDKODKLH@?5Base?5Class?5Descriptor?5at?5?$CI@ 10021164     libvcruntime:undname.obj
 0002:00002180       ??_C@_0BD@LGICGFMM@?5Base?5Class?5Array?8@ 10021180     libvcruntime:undname.obj
 0002:00002194       ??_C@_0BN@MECKDCOJ@?5Class?5Hierarchy?5Descriptor?8@ 10021194     libvcruntime:undname.obj
 0002:000021b4       ??_C@_0BK@CFCOFLF@?5Complete?5Object?5Locator?8@ 100211b4     libvcruntime:undname.obj
 0002:000021dc       ??_C@_1DM@KHCHBNEB@?$AAa?$AAp?$AAi?$AA?9?$AAm?$AAs?$AA?9?$AAw?$AAi?$AAn?$AA?9?$AAc?$AAo?$AAr?$AAe@ 100211dc     libvcruntime:winapi_downlevel.obj
 0002:00002218       ??_C@_1DK@LPPGFMPP@?$AAa?$AAp?$AAi?$AA?9?$AAm?$AAs?$AA?9?$AAw?$AAi?$AAn?$AA?9?$AAc?$AAo?$AAr?$AAe@ 10021218     libvcruntime:winapi_downlevel.obj
 0002:00002254       ??_C@_1BC@GDMECMAK@?$AAk?$AAe?$AAr?$AAn?$AAe?$AAl?$AA3?$AA2@ 10021254     libvcruntime:winapi_downlevel.obj
 0002:00002268       ??_C@_1BA@PFFKHIOG@?$AAa?$AAp?$AAi?$AA?9?$AAm?$AAs?$AA?9@ 10021268     libvcruntime:winapi_downlevel.obj
 0002:00002280       ??_C@_08KNHFBNJ@FlsAlloc@  10021280     libvcruntime:winapi_downlevel.obj
 0002:00002294       ??_C@_07PEJMOBNF@FlsFree@  10021294     libvcruntime:winapi_downlevel.obj
 0002:000022a4       ??_C@_0M@GDNOONDI@FlsGetValue@ 100212a4     libvcruntime:winapi_downlevel.obj
 0002:000022b8       ??_C@_0M@JCPCPOEF@FlsSetValue@ 100212b8     libvcruntime:winapi_downlevel.obj
 0002:000022cc       ??_C@_0BM@HCFOFFN@InitializeCriticalSectionEx@ 100212cc     libvcruntime:winapi_downlevel.obj
 0002:000022e8       __pDestructExceptionObject 100212e8     libvcruntime:ehhelpers.obj
 0002:00002458       _format_validation_lookup_table 10021458     libucrt:output.obj
 0002:000024b4       ??_C@_1O@CEDCILHN@?$AA?$CI?$AAn?$AAu?$AAl?$AAl?$AA?$CJ@ 100214b4     libucrt:output.obj
 0002:000024c4       ??_C@_06OJHGLDPL@?$CInull?$CJ@ 100214c4     libucrt:output.obj
 0002:000024d0       ___acrt_exception_action_table 100214d0     libucrt:exception_filter.obj
 0002:00002560       ___acrt_signal_action_table_count 10021560     libucrt:exception_filter.obj
 0002:00002564       ___acrt_signal_action_first_fpe_index 10021564     libucrt:exception_filter.obj
 0002:00002568       ___acrt_signal_action_fpe_count 10021568     libucrt:exception_filter.obj
 0002:0000256c       ??_C@_1BI@BGOHAHKC@?$AAm?$AAs?$AAc?$AAo?$AAr?$AAe?$AAe?$AA?4?$AAd?$AAl?$AAl@ 1002156c     libucrt:exit.obj
 0002:00002584       ??_C@_0P@MIGLKIOC@CorExitProcess@ 10021584     libucrt:exit.obj
 0002:00002668       ??_C@_1EA@JGEFHKEI@?$AAa?$AAp?$AAi?$AA?9?$AAm?$AAs?$AA?9?$AAw?$AAi?$AAn?$AA?9?$AAc?$AAo?$AAr?$AAe@ 10021668     libucrt:winapi_thunks.obj
 0002:000026a8       ??_C@_1DI@IJCEHOCB@?$AAa?$AAp?$AAi?$AA?9?$AAm?$AAs?$AA?9?$AAw?$AAi?$AAn?$AA?9?$AAc?$AAo?$AAr?$AAe@ 100216a8     libucrt:winapi_thunks.obj
 0002:000026e0       ??_C@_1EI@MPIAOHOC@?$AAa?$AAp?$AAi?$AA?9?$AAm?$AAs?$AA?9?$AAw?$AAi?$AAn?$AA?9?$AAc?$AAo?$AAr?$AAe@ 100216e0     libucrt:winapi_thunks.obj
 0002:00002728       ??_C@_1FK@FPHCKFIE@?$AAa?$AAp?$AAi?$AA?9?$AAm?$AAs?$AA?9?$AAw?$AAi?$AAn?$AA?9?$AAc?$AAo?$AAr?$AAe@ 10021728     libucrt:winapi_thunks.obj
 0002:00002788       ??_C@_1EM@DILCGIIO@?$AAa?$AAp?$AAi?$AA?9?$AAm?$AAs?$AA?9?$AAw?$AAi?$AAn?$AA?9?$AAc?$AAo?$AAr?$AAe@ 10021788     libucrt:winapi_thunks.obj
 0002:000027d4       ??_C@_1DM@LNCGDDPN@?$AAa?$AAp?$AAi?$AA?9?$AAm?$AAs?$AA?9?$AAw?$AAi?$AAn?$AA?9?$AAc?$AAo?$AAr?$AAe@ 100217d4     libucrt:winapi_thunks.obj
 0002:00002810       ??_C@_1DO@FPAPJEMD@?$AAa?$AAp?$AAi?$AA?9?$AAm?$AAs?$AA?9?$AAw?$AAi?$AAn?$AA?9?$AAc?$AAo?$AAr?$AAe@ 10021810     libucrt:winapi_thunks.obj
 0002:00002850       ??_C@_1DK@NDHNAHIO@?$AAa?$AAp?$AAi?$AA?9?$AAm?$AAs?$AA?9?$AAw?$AAi?$AAn?$AA?9?$AAc?$AAo?$AAr?$AAe@ 10021850     libucrt:winapi_thunks.obj
 0002:0000288c       ??_C@_1DM@KGHDGBCM@?$AAa?$AAp?$AAi?$AA?9?$AAm?$AAs?$AA?9?$AAw?$AAi?$AAn?$AA?9?$AAc?$AAo?$AAr?$AAe@ 1002188c     libucrt:winapi_thunks.obj
 0002:000028c8       ??_C@_1EO@IJIOEFOH@?$AAa?$AAp?$AAi?$AA?9?$AAm?$AAs?$AA?9?$AAw?$AAi?$AAn?$AA?9?$AAr?$AAt?$AAc?$AAo@ 100218c8     libucrt:winapi_thunks.obj
 0002:00002918       ??_C@_1FG@HHGEKANL@?$AAa?$AAp?$AAi?$AA?9?$AAm?$AAs?$AA?9?$AAw?$AAi?$AAn?$AA?9?$AAs?$AAe?$AAc?$AAu@ 10021918     libucrt:winapi_thunks.obj
 0002:00002970       ??_C@_1EG@DBIOJECG@?$AAe?$AAx?$AAt?$AA?9?$AAm?$AAs?$AA?9?$AAw?$AAi?$AAn?$AA?9?$AAn?$AAt?$AAu?$AAs@ 10021970     libucrt:winapi_thunks.obj
 0002:000029b8       ??_C@_1EO@FIHMJCLF@?$AAe?$AAx?$AAt?$AA?9?$AAm?$AAs?$AA?9?$AAw?$AAi?$AAn?$AA?9?$AAn?$AAt?$AAu?$AAs@ 100219b8     libucrt:winapi_thunks.obj
 0002:00002a08       ??_C@_1BC@DNHGCMLG@?$AAa?$AAd?$AAv?$AAa?$AAp?$AAi?$AA3?$AA2@ 10021a08     libucrt:winapi_thunks.obj
 0002:00002a1c       ??_C@_1M@OAIMIKLP@?$AAn?$AAt?$AAd?$AAl?$AAl@ 10021a1c     libucrt:winapi_thunks.obj
 0002:00002a28       ??_C@_1EG@DPGNFKGC@?$AAa?$AAp?$AAi?$AA?9?$AAm?$AAs?$AA?9?$AAw?$AAi?$AAn?$AA?9?$AAa?$AAp?$AAp?$AAm@ 10021a28     libucrt:winapi_thunks.obj
 0002:00002a70       ??_C@_1O@BCCLBEOE@?$AAu?$AAs?$AAe?$AAr?$AA3?$AA2@ 10021a70     libucrt:winapi_thunks.obj
 0002:00002a80       ??_C@_1BA@IAIFMGEF@?$AAe?$AAx?$AAt?$AA?9?$AAm?$AAs?$AA?9@ 10021a80     libucrt:winapi_thunks.obj
 0002:00002a94       ??_C@_0BA@FHFNEAED@AreFileApisANSI@ 10021a94     libucrt:winapi_thunks.obj
 0002:00002ad4       ??_C@_0O@KKBNKAPF@LCMapStringEx@ 10021ad4     libucrt:winapi_thunks.obj
 0002:00002aec       ??_C@_0BB@HBDEELFH@LocaleNameToLCID@ 10021aec     libucrt:winapi_thunks.obj
 0002:00002b04       ??_C@_0CF@OJOFEIGO@AppPolicyGetProcessTerminationM@ 10021b04     libucrt:winapi_thunks.obj
 0002:00002b34       ??_C@_0BI@BKLFFAPO@SetThreadStackGuarantee@ 10021b34     libucrt:winapi_thunks.obj
 0002:00002b90       ??_C@_03OEIAHPBN@INF@      10021b90     libucrt:cvt.obj
 0002:00002b94       ??_C@_03OJHLLCGB@inf@      10021b94     libucrt:cvt.obj
 0002:00002b98       ??_C@_03LKNCIKJB@NAN@      10021b98     libucrt:cvt.obj
 0002:00002b9c       ??_C@_03LHCJEHON@nan@      10021b9c     libucrt:cvt.obj
 0002:00002ba0       ??_C@_09OFJJIMPC@NAN?$CISNAN?$CJ@ 10021ba0     libucrt:cvt.obj
 0002:00002bac       ??_C@_09IPFBKMDL@nan?$CIsnan?$CJ@ 10021bac     libucrt:cvt.obj
 0002:00002bb8       ??_C@_08IKHNHAJ@NAN?$CIIND?$CJ@ 10021bb8     libucrt:cvt.obj
 0002:00002bc4       ??_C@_08OFCDMILK@nan?$CIind?$CJ@ 10021bc4     libucrt:cvt.obj
 0002:00002bd0       ??_C@_05KLBDPFGC@e?$CL000@ 10021bd0     libucrt:cvt.obj
 0002:00002bd8       ___lc_time_c               10021bd8     libucrt:nlsdata.obj
 0002:00002d3c       ??_C@_03KOEHGMDN@Sun@      10021d3c     libucrt:nlsdata.obj
 0002:00002d40       ??_C@_03PDAGKDH@Mon@       10021d40     libucrt:nlsdata.obj
 0002:00002d44       ??_C@_03NAGEINEP@Tue@      10021d44     libucrt:nlsdata.obj
 0002:00002d48       ??_C@_03MHOMLAJA@Wed@      10021d48     libucrt:nlsdata.obj
 0002:00002d4c       ??_C@_03IOFIKPDN@Thu@      10021d4c     libucrt:nlsdata.obj
 0002:00002d50       ??_C@_03IDIOELNC@Fri@      10021d50     libucrt:nlsdata.obj
 0002:00002d54       ??_C@_03FEFJNEK@Sat@       10021d54     libucrt:nlsdata.obj
 0002:00002d58       ??_C@_06OOPIFAJ@Sunday@    10021d58     libucrt:nlsdata.obj
 0002:00002d60       ??_C@_06JLEDEDGH@Monday@   10021d60     libucrt:nlsdata.obj
 0002:00002d68       ??_C@_07BAAGCFCM@Tuesday@  10021d68     libucrt:nlsdata.obj
 0002:00002d70       ??_C@_09DLIGFAKA@Wednesday@ 10021d70     libucrt:nlsdata.obj
 0002:00002d7c       ??_C@_08HACCIKIA@Thursday@ 10021d7c     libucrt:nlsdata.obj
 0002:00002d88       ??_C@_06JECMNKMI@Friday@   10021d88     libucrt:nlsdata.obj
 0002:00002d90       ??_C@_08INBOOONO@Saturday@ 10021d90     libucrt:nlsdata.obj
 0002:00002d9c       ??_C@_03JIHJHPIE@Jan@      10021d9c     libucrt:nlsdata.obj
 0002:00002da0       ??_C@_03HJBDCHOM@Feb@      10021da0     libucrt:nlsdata.obj
 0002:00002da4       ??_C@_03ODNJBKGA@Mar@      10021da4     libucrt:nlsdata.obj
 0002:00002da8       ??_C@_03LEOLGMJP@Apr@      10021da8     libucrt:nlsdata.obj
 0002:00002dac       ??_C@_03CNMDKL@May@        10021dac     libucrt:nlsdata.obj
 0002:00002db0       ??_C@_03IDFGHECI@Jun@      10021db0     libucrt:nlsdata.obj
 0002:00002db4       ??_C@_03LBGABGKK@Jul@      10021db4     libucrt:nlsdata.obj
 0002:00002db8       ??_C@_03IFJFEIGA@Aug@      10021db8     libucrt:nlsdata.obj
 0002:00002dbc       ??_C@_03GGCAPAJC@Sep@      10021dbc     libucrt:nlsdata.obj
 0002:00002dc0       ??_C@_03BMAOKBAD@Oct@      10021dc0     libucrt:nlsdata.obj
 0002:00002dc4       ??_C@_03JPJOFNIA@Nov@      10021dc4     libucrt:nlsdata.obj
 0002:00002dc8       ??_C@_03MKABNOCG@Dec@      10021dc8     libucrt:nlsdata.obj
 0002:00002dcc       ??_C@_07CGJPFGJA@January@  10021dcc     libucrt:nlsdata.obj
 0002:00002dd4       ??_C@_08GNJGEPFN@February@ 10021dd4     libucrt:nlsdata.obj
 0002:00002de0       ??_C@_05HPCKOFNC@March@    10021de0     libucrt:nlsdata.obj
 0002:00002de8       ??_C@_05DMJDNLEJ@April@    10021de8     libucrt:nlsdata.obj
 0002:00002df0       ??_C@_04CNLMGBGM@June@     10021df0     libucrt:nlsdata.obj
 0002:00002df8       ??_C@_04MIEPOIFP@July@     10021df8     libucrt:nlsdata.obj
 0002:00002e00       ??_C@_06LBBHFDDG@August@   10021e00     libucrt:nlsdata.obj
 0002:00002e08       ??_C@_09BHHEALKD@September@ 10021e08     libucrt:nlsdata.obj
 0002:00002e14       ??_C@_07JJNFCEND@October@  10021e14     libucrt:nlsdata.obj
 0002:00002e1c       ??_C@_08HCHEGEOA@November@ 10021e1c     libucrt:nlsdata.obj
 0002:00002e28       ??_C@_08EDHMEBNP@December@ 10021e28     libucrt:nlsdata.obj
 0002:00002e34       ??_C@_02DEDBPAFC@AM@       10021e34     libucrt:nlsdata.obj
 0002:00002e38       ??_C@_02CJNFDJBF@PM@       10021e38     libucrt:nlsdata.obj
 0002:00002e3c       ??_C@_08BPBNCDIB@MM?1dd?1yy@ 10021e3c     libucrt:nlsdata.obj
 0002:00002e48       ??_C@_0BE@CKGJFCPC@dddd?0?5MMMM?5dd?0?5yyyy@ 10021e48     libucrt:nlsdata.obj
 0002:00002e5c       ??_C@_08JCCMCCIL@HH?3mm?3ss@ 10021e5c     libucrt:nlsdata.obj
 0002:00002e68       ??_C@_17MBGCMIPB@?$AAS?$AAu?$AAn@ 10021e68     libucrt:nlsdata.obj
 0002:00002e70       ??_C@_17KBOMKBF@?$AAM?$AAo?$AAn@ 10021e70     libucrt:nlsdata.obj
 0002:00002e78       ??_C@_17BMKGEGOJ@?$AAT?$AAu?$AAe@ 10021e78     libucrt:nlsdata.obj
 0002:00002e80       ??_C@_17CJEDCEPE@?$AAW?$AAe?$AAd@ 10021e80     libucrt:nlsdata.obj
 0002:00002e88       ??_C@_17PDPHAADD@?$AAT?$AAh?$AAu@ 10021e88     libucrt:nlsdata.obj
 0002:00002e90       ??_C@_17HFOLPPLP@?$AAF?$AAr?$AAi@ 10021e90     libucrt:nlsdata.obj
 0002:00002e98       ??_C@_17GGIBDPIH@?$AAS?$AAa?$AAt@ 10021e98     libucrt:nlsdata.obj
 0002:00002ea0       ??_C@_1O@IHNHDHPB@?$AAS?$AAu?$AAn?$AAd?$AAa?$AAy@ 10021ea0     libucrt:nlsdata.obj
 0002:00002eb0       ??_C@_1O@MMNBFLIA@?$AAM?$AAo?$AAn?$AAd?$AAa?$AAy@ 10021eb0     libucrt:nlsdata.obj
 0002:00002ec0       ??_C@_1BA@ENFBFFEK@?$AAT?$AAu?$AAe?$AAs?$AAd?$AAa?$AAy@ 10021ec0     libucrt:nlsdata.obj
 0002:00002ed0       ??_C@_1BE@EBOGMDOH@?$AAW?$AAe?$AAd?$AAn?$AAe?$AAs?$AAd?$AAa?$AAy@ 10021ed0     libucrt:nlsdata.obj
 0002:00002ee4       ??_C@_1BC@HHMNLIHE@?$AAT?$AAh?$AAu?$AAr?$AAs?$AAd?$AAa?$AAy@ 10021ee4     libucrt:nlsdata.obj
 0002:00002ef8       ??_C@_1O@PDICJHAG@?$AAF?$AAr?$AAi?$AAd?$AAa?$AAy@ 10021ef8     libucrt:nlsdata.obj
 0002:00002f08       ??_C@_1BC@ENMNNPAJ@?$AAS?$AAa?$AAt?$AAu?$AAr?$AAd?$AAa?$AAy@ 10021f08     libucrt:nlsdata.obj
 0002:00002f1c       ??_C@_17DKNBKCHM@?$AAJ?$AAa?$AAn@ 10021f1c     libucrt:nlsdata.obj
 0002:00002f24       ??_C@_17LMDJEKJN@?$AAF?$AAe?$AAb@ 10021f24     libucrt:nlsdata.obj
 0002:00002f2c       ??_C@_17CKNLEDEC@?$AAM?$AAa?$AAr@ 10021f2c     libucrt:nlsdata.obj
 0002:00002f34       ??_C@_17LFPOIHDD@?$AAA?$AAp?$AAr@ 10021f34     libucrt:nlsdata.obj
 0002:00002f3c       ??_C@_17PNNKMEED@?$AAM?$AAa?$AAy@ 10021f3c     libucrt:nlsdata.obj
 0002:00002f44       ??_C@_17KCJGOCPB@?$AAJ?$AAu?$AAn@ 10021f44     libucrt:nlsdata.obj
 0002:00002f4c       ??_C@_17IJPCKHK@?$AAJ?$AAu?$AAl@ 10021f4c     libucrt:nlsdata.obj
 0002:00002f54       ??_C@_17ICPELBCN@?$AAA?$AAu?$AAg@ 10021f54     libucrt:nlsdata.obj
 0002:00002f5c       ??_C@_17HCHCOKMG@?$AAS?$AAe?$AAp@ 10021f5c     libucrt:nlsdata.obj
 0002:00002f64       ??_C@_17FNLKOI@?$AAO?$AAc?$AAt@ 10021f64     libucrt:nlsdata.obj
 0002:00002f6c       ??_C@_17BBDMLCIG@?$AAN?$AAo?$AAv@ 10021f6c     libucrt:nlsdata.obj
 0002:00002f74       ??_C@_17EGKACKIF@?$AAD?$AAe?$AAc@ 10021f74     libucrt:nlsdata.obj
 0002:00002f7c       ??_C@_1BA@EFMEIEBA@?$AAJ?$AAa?$AAn?$AAu?$AAa?$AAr?$AAy@ 10021f7c     libucrt:nlsdata.obj
 0002:00002f8c       ??_C@_1BC@JGDDFFAM@?$AAF?$AAe?$AAb?$AAr?$AAu?$AAa?$AAr?$AAy@ 10021f8c     libucrt:nlsdata.obj
 0002:00002fa0       ??_C@_1M@IKEENEDF@?$AAM?$AAa?$AAr?$AAc?$AAh@ 10021fa0     libucrt:nlsdata.obj
 0002:00002fac       ??_C@_1M@GJNLMHFD@?$AAA?$AAp?$AAr?$AAi?$AAl@ 10021fac     libucrt:nlsdata.obj
 0002:00002fb8       ??_C@_19EPFLPGAP@?$AAJ?$AAu?$AAn?$AAe@ 10021fb8     libucrt:nlsdata.obj
 0002:00002fc4       ??_C@_19BIFMLPCD@?$AAJ?$AAu?$AAl?$AAy@ 10021fc4     libucrt:nlsdata.obj
 0002:00002fd0       ??_C@_1O@PAHLKOAC@?$AAA?$AAu?$AAg?$AAu?$AAs?$AAt@ 10021fd0     libucrt:nlsdata.obj
 0002:00002fe0       ??_C@_1BE@DKAAMBJL@?$AAS?$AAe?$AAp?$AAt?$AAe?$AAm?$AAb?$AAe?$AAr@ 10021fe0     libucrt:nlsdata.obj
 0002:00002ff4       ??_C@_1BA@EPANDLNG@?$AAO?$AAc?$AAt?$AAo?$AAb?$AAe?$AAr@ 10021ff4     libucrt:nlsdata.obj
 0002:00003004       ??_C@_1BC@BGLIFPF@?$AAN?$AAo?$AAv?$AAe?$AAm?$AAb?$AAe?$AAr@ 10022004     libucrt:nlsdata.obj
 0002:00003018       ??_C@_1BC@FEMKIFH@?$AAD?$AAe?$AAc?$AAe?$AAm?$AAb?$AAe?$AAr@ 10022018     libucrt:nlsdata.obj
 0002:0000302c       ??_C@_15ODEHAHHF@?$AAA?$AAM@ 1002202c     libucrt:nlsdata.obj
 0002:00003034       ??_C@_15CLMNNGEL@?$AAP?$AAM@ 10022034     libucrt:nlsdata.obj
 0002:0000303c       ??_C@_1BC@IEBCMHCM@?$AAM?$AAM?$AA?1?$AAd?$AAd?$AA?1?$AAy?$AAy@ 1002203c     libucrt:nlsdata.obj
 0002:00003050       ??_C@_1CI@KNAKOEBC@?$AAd?$AAd?$AAd?$AAd?$AA?0?$AA?5?$AAM?$AAM?$AAM?$AAM?$AA?5?$AAd?$AAd?$AA?0?$AA?5@ 10022050     libucrt:nlsdata.obj
 0002:00003078       ??_C@_1BC@GDGBMEMK@?$AAH?$AAH?$AA?3?$AAm?$AAm?$AA?3?$AAs?$AAs@ 10022078     libucrt:nlsdata.obj
 0002:0000308c       ??_C@_1M@BMHNFIME@?$AAe?$AAn?$AA?9?$AAU?$AAS@ 1002208c     libucrt:nlsdata.obj
 0002:000030a8       ??_C@_1M@HPNHIDJI@?$AAj?$AAa?$AA?9?$AAJ?$AAP@ 100220a8     libucrt:mbctype.obj
 0002:000030b4       ??_C@_1M@BIBDDEMK@?$AAz?$AAh?$AA?9?$AAC?$AAN@ 100220b4     libucrt:mbctype.obj
 0002:000030c0       ??_C@_1M@JLOOOEGK@?$AAk?$AAo?$AA?9?$AAK?$AAR@ 100220c0     libucrt:mbctype.obj
 0002:000030cc       ??_C@_1M@CLNBBOPM@?$AAz?$AAh?$AA?9?$AAT?$AAW@ 100220cc     libucrt:mbctype.obj
 0002:000030d8       ___newctype                100220d8     libucrt:ctype.obj
 0002:000033d8       ___newclmap                100223d8     libucrt:ctype.obj
 0002:00003558       ___newcumap                10022558     libucrt:ctype.obj
 0002:000036d8       __wctype                   100226d8     libucrt:ctype.obj
 0002:00004000       ??_C@_15EMKDOKLE@?$AAa?$AAr@ 10023000     libucrt:lcidtoname_downlevel.obj
 0002:00004008       ??_C@_15KNPADPLH@?$AAb?$AAg@ 10023008     libucrt:lcidtoname_downlevel.obj
 0002:00004010       ??_C@_15EDMHLDMO@?$AAc?$AAa@ 10023010     libucrt:lcidtoname_downlevel.obj
 0002:00004018       ??_C@_1O@BPEAJADD@?$AAz?$AAh?$AA?9?$AAC?$AAH?$AAS@ 10023018     libucrt:lcidtoname_downlevel.obj
 0002:00004028       ??_C@_15LJNHCMNK@?$AAc?$AAs@ 10023028     libucrt:lcidtoname_downlevel.obj
 0002:00004030       ??_C@_15FOMCIDHG@?$AAd?$AAa@ 10023030     libucrt:lcidtoname_downlevel.obj
 0002:00004038       ??_C@_15NBKABECB@?$AAd?$AAe@ 10023038     libucrt:lcidtoname_downlevel.obj
 0002:00004040       ??_C@_15GHPEIIAO@?$AAe?$AAl@ 10023040     libucrt:lcidtoname_downlevel.obj
 0002:00004048       ??_C@_15MNPNEAIF@?$AAe?$AAn@ 10023048     libucrt:lcidtoname_downlevel.obj
 0002:00004050       ??_C@_15GPIOMPMH@?$AAe?$AAs@ 10023050     libucrt:lcidtoname_downlevel.obj
 0002:00004058       ??_C@_15NGLOAKJC@?$AAf?$AAi@ 10023058     libucrt:lcidtoname_downlevel.obj
 0002:00004060       ??_C@_15FBKGNKAM@?$AAf?$AAr@ 10023060     libucrt:lcidtoname_downlevel.obj
 0002:00004068       ??_C@_15KGGCNEFK@?$AAh?$AAe@ 10023068     libucrt:lcidtoname_downlevel.obj
 0002:00004070       ??_C@_15PGHLIDMF@?$AAh?$AAu@ 10023070     libucrt:lcidtoname_downlevel.obj
 0002:00004078       ??_C@_15BIEMAPLM@?$AAi?$AAs@ 10023078     libucrt:lcidtoname_downlevel.obj
 0002:00004080       ??_C@_15IFJLDHAF@?$AAi?$AAt@ 10023080     libucrt:lcidtoname_downlevel.obj
 0002:00004088       ??_C@_15GEMIOCAG@?$AAj?$AAa@ 10023088     libucrt:lcidtoname_downlevel.obj
 0002:00004090       ??_C@_15EPELEGJA@?$AAk?$AAo@ 10023090     libucrt:lcidtoname_downlevel.obj
 0002:00004098       ??_C@_15NDDHIMN@?$AAn?$AAl@ 10023098     libucrt:lcidtoname_downlevel.obj
 0002:000040a0       ??_C@_15BPIGNHCD@?$AAn?$AAo@ 100230a0     libucrt:lcidtoname_downlevel.obj
 0002:000040a8       ??_C@_15DEOPBLCG@?$AAp?$AAl@ 100230a8     libucrt:lcidtoname_downlevel.obj
 0002:000040b0       ??_C@_15KBECGEFG@?$AAp?$AAt@ 100230b0     libucrt:lcidtoname_downlevel.obj
 0002:000040b8       ??_C@_15GLJCBFMD@?$AAr?$AAo@ 100230b8     libucrt:lcidtoname_downlevel.obj
 0002:000040c0       ??_C@_15FEDGKCDI@?$AAr?$AAu@ 100230c0     libucrt:lcidtoname_downlevel.obj
 0002:000040c8       ??_C@_15GLKMLLHM@?$AAh?$AAr@ 100230c8     libucrt:lcidtoname_downlevel.obj
 0002:000040d0       ??_C@_15CPKMFBDB@?$AAs?$AAk@ 100230d0     libucrt:lcidtoname_downlevel.obj
 0002:000040d8       ??_C@_15BAAIOGMK@?$AAs?$AAq@ 100230d8     libucrt:lcidtoname_downlevel.obj
 0002:000040e0       ??_C@_15INNPNOHD@?$AAs?$AAv@ 100230e0     libucrt:lcidtoname_downlevel.obj
 0002:000040e8       ??_C@_15CABMMOGH@?$AAt?$AAh@ 100230e8     libucrt:lcidtoname_downlevel.obj
 0002:000040f0       ??_C@_15BPLIHJJM@?$AAt?$AAr@ 100230f0     libucrt:lcidtoname_downlevel.obj
 0002:000040f8       ??_C@_15NEOEKKDJ@?$AAu?$AAr@ 100230f8     libucrt:lcidtoname_downlevel.obj
 0002:00004100       ??_C@_15NFICGAJK@?$AAi?$AAd@ 10023100     libucrt:lcidtoname_downlevel.obj
 0002:00004108       ??_C@_15PJPFLCCM@?$AAu?$AAk@ 10023108     libucrt:lcidtoname_downlevel.obj
 0002:00004110       ??_C@_15HPJPHDM@?$AAb?$AAe@ 10023110     libucrt:lcidtoname_downlevel.obj
 0002:00004118       ??_C@_15LCHLGJII@?$AAs?$AAl@ 10023118     libucrt:lcidtoname_downlevel.obj
 0002:00004120       ??_C@_15PCFJPHHO@?$AAe?$AAt@ 10023120     libucrt:lcidtoname_downlevel.obj
 0002:00004128       ??_C@_15HPFPGODN@?$AAl?$AAv@ 10023128     libucrt:lcidtoname_downlevel.obj
 0002:00004130       ??_C@_15NFFGKGLG@?$AAl?$AAt@ 10023130     libucrt:lcidtoname_downlevel.obj
 0002:00004138       ??_C@_15BDAKCCHN@?$AAf?$AAa@ 10023138     libucrt:lcidtoname_downlevel.obj
 0002:00004140       ??_C@_15NFGIAIAJ@?$AAv?$AAi@ 10023140     libucrt:lcidtoname_downlevel.obj
 0002:00004148       ??_C@_15LMKNDMHN@?$AAh?$AAy@ 10023148     libucrt:lcidtoname_downlevel.obj
 0002:00004150       ??_C@_15IJBHMCFL@?$AAa?$AAz@ 10023150     libucrt:lcidtoname_downlevel.obj
 0002:00004158       ??_C@_15EKOFJABL@?$AAe?$AAu@ 10023158     libucrt:lcidtoname_downlevel.obj
 0002:00004160       ??_C@_15BGHADCNK@?$AAm?$AAk@ 10023160     libucrt:lcidtoname_downlevel.obj
 0002:00004168       ??_C@_15JDNICKHM@?$AAa?$AAf@ 10023168     libucrt:lcidtoname_downlevel.obj
 0002:00004170       ??_C@_15KPJEDBKD@?$AAk?$AAa@ 10023170     libucrt:lcidtoname_downlevel.obj
 0002:00004178       ??_C@_15PDNFFFEO@?$AAf?$AAo@ 10023178     libucrt:lcidtoname_downlevel.obj
 0002:00004180       ??_C@_15OMLEGLOC@?$AAh?$AAi@ 10023180     libucrt:lcidtoname_downlevel.obj
 0002:00004188       ??_C@_15IDNNENKK@?$AAm?$AAs@ 10023188     libucrt:lcidtoname_downlevel.obj
 0002:00004190       ??_C@_15MACJNBMH@?$AAk?$AAk@ 10023190     libucrt:lcidtoname_downlevel.obj
 0002:00004198       ??_C@_15DKDJEOND@?$AAk?$AAy@ 10023198     libucrt:lcidtoname_downlevel.obj
 0002:000041a0       ??_C@_15DFGDLJBG@?$AAs?$AAw@ 100231a0     libucrt:lcidtoname_downlevel.obj
 0002:000041a8       ??_C@_15BBFAICNG@?$AAu?$AAz@ 100231a8     libucrt:lcidtoname_downlevel.obj
 0002:000041b0       ??_C@_15DKNDCGEA@?$AAt?$AAt@ 100231b0     libucrt:lcidtoname_downlevel.obj
 0002:000041b8       ??_C@_15MGIFMDPL@?$AAp?$AAa@ 100231b8     libucrt:lcidtoname_downlevel.obj
 0002:000041c0       ??_C@_15HCNDBBA@?$AAg?$AAu@ 100231c0     libucrt:lcidtoname_downlevel.obj
 0002:000041c8       ??_C@_15FNBEIBON@?$AAt?$AAa@ 100231c8     libucrt:lcidtoname_downlevel.obj
 0002:000041d0       ??_C@_15NCHGBGLK@?$AAt?$AAe@ 100231d0     libucrt:lcidtoname_downlevel.obj
 0002:000041d8       ??_C@_15PHPHCBPF@?$AAk?$AAn@ 100231d8     libucrt:lcidtoname_downlevel.obj
 0002:000041e0       ??_C@_15DLGBCKMP@?$AAm?$AAr@ 100231e0     libucrt:lcidtoname_downlevel.obj
 0002:000041e8       ??_C@_15EABBLBFF@?$AAs?$AAa@ 100231e8     libucrt:lcidtoname_downlevel.obj
 0002:000041f0       ??_C@_15CBKOMCOI@?$AAm?$AAn@ 100231f0     libucrt:lcidtoname_downlevel.obj
 0002:000041f8       ??_C@_15CKDMCJAF@?$AAg?$AAl@ 100231f8     libucrt:lcidtoname_downlevel.obj
 0002:00004200       ??_C@_17CNJFBPG@?$AAk?$AAo?$AAk@ 10023200     libucrt:lcidtoname_downlevel.obj
 0002:00004208       ??_C@_17FFBJICPL@?$AAs?$AAy?$AAr@ 10023208     libucrt:lcidtoname_downlevel.obj
 0002:00004210       ??_C@_17KPNDCPAF@?$AAd?$AAi?$AAv@ 10023210     libucrt:lcidtoname_downlevel.obj
 0002:00004218       ??_C@_1M@OKAHONE@?$AAa?$AAr?$AA?9?$AAS?$AAA@ 10023218     libucrt:lcidtoname_downlevel.obj
 0002:00004224       ??_C@_1M@FFFIGIGK@?$AAb?$AAg?$AA?9?$AAB?$AAG@ 10023224     libucrt:lcidtoname_downlevel.obj
 0002:00004230       ??_C@_1M@BJNKEDC@?$AAc?$AAa?$AA?9?$AAE?$AAS@ 10023230     libucrt:lcidtoname_downlevel.obj
 0002:0000423c       ??_C@_1M@IJJHFJHA@?$AAc?$AAs?$AA?9?$AAC?$AAZ@ 1002323c     libucrt:lcidtoname_downlevel.obj
 0002:00004248       ??_C@_1M@CLPEOBGI@?$AAd?$AAa?$AA?9?$AAD?$AAK@ 10023248     libucrt:lcidtoname_downlevel.obj
 0002:00004254       ??_C@_1M@MCMADGCB@?$AAd?$AAe?$AA?9?$AAD?$AAE@ 10023254     libucrt:lcidtoname_downlevel.obj
 0002:00004260       ??_C@_1M@OOCKEMAM@?$AAe?$AAl?$AA?9?$AAG?$AAR@ 10023260     libucrt:lcidtoname_downlevel.obj
 0002:0000426c       ??_C@_1M@DDNJFGID@?$AAf?$AAi?$AA?9?$AAF?$AAI@ 1002326c     libucrt:lcidtoname_downlevel.obj
 0002:00004278       ??_C@_1M@GLIPPMAC@?$AAf?$AAr?$AA?9?$AAF?$AAR@ 10023278     libucrt:lcidtoname_downlevel.obj
 0002:00004284       ??_C@_1M@GFMCHPE@?$AAh?$AAe?$AA?9?$AAI?$AAL@ 10023284     libucrt:lcidtoname_downlevel.obj
 0002:00004290       ??_C@_1M@MHLPGNKM@?$AAh?$AAu?$AA?9?$AAH?$AAU@ 10023290     libucrt:lcidtoname_downlevel.obj
 0002:0000429c       ??_C@_1M@LPDDNNPN@?$AAi?$AAs?$AA?9?$AAI?$AAS@ 1002329c     libucrt:lcidtoname_downlevel.obj
 0002:000042a8       ??_C@_1M@MADIPODN@?$AAi?$AAt?$AA?9?$AAI?$AAT@ 100232a8     libucrt:lcidtoname_downlevel.obj
 0002:000042b4       ??_C@_1M@IHBJJGG@?$AAn?$AAl?$AA?9?$AAN?$AAL@ 100232b4     libucrt:lcidtoname_downlevel.obj
 0002:000042c0       ??_C@_1M@EANAGDL@?$AAn?$AAb?$AA?9?$AAN?$AAO@ 100232c0     libucrt:lcidtoname_downlevel.obj
 0002:000042cc       ??_C@_1M@NEIEMEGP@?$AAp?$AAl?$AA?9?$AAP?$AAL@ 100232cc     libucrt:lcidtoname_downlevel.obj
 0002:000042d8       ??_C@_1M@BOCFIGEP@?$AAp?$AAt?$AA?9?$AAB?$AAR@ 100232d8     libucrt:lcidtoname_downlevel.obj
 0002:000042e4       ??_C@_1M@IMPFOPBG@?$AAr?$AAo?$AA?9?$AAR?$AAO@ 100232e4     libucrt:lcidtoname_downlevel.obj
 0002:000042f0       ??_C@_1M@IDNNEJMM@?$AAr?$AAu?$AA?9?$AAR?$AAU@ 100232f0     libucrt:lcidtoname_downlevel.obj
 0002:000042fc       ??_C@_1M@LILEEOGM@?$AAh?$AAr?$AA?9?$AAH?$AAR@ 100232fc     libucrt:lcidtoname_downlevel.obj
 0002:00004308       ??_C@_1M@FKIFEHPB@?$AAs?$AAk?$AA?9?$AAS?$AAK@ 10023308     libucrt:lcidtoname_downlevel.obj
 0002:00004314       ??_C@_1M@LJMAMNPJ@?$AAs?$AAq?$AA?9?$AAA?$AAL@ 10023314     libucrt:lcidtoname_downlevel.obj
 0002:00004320       ??_C@_1M@GIAKDKJK@?$AAs?$AAv?$AA?9?$AAS?$AAE@ 10023320     libucrt:lcidtoname_downlevel.obj
 0002:0000432c       ??_C@_1M@MKJKIKCL@?$AAt?$AAh?$AA?9?$AAT?$AAH@ 1002332c     libucrt:lcidtoname_downlevel.obj
 0002:00004338       ??_C@_1M@MFLCCMPB@?$AAt?$AAr?$AA?9?$AAT?$AAR@ 10023338     libucrt:lcidtoname_downlevel.obj
 0002:00004344       ??_C@_1M@OIJHDKJN@?$AAu?$AAr?$AA?9?$AAP?$AAK@ 10023344     libucrt:lcidtoname_downlevel.obj
 0002:00004350       ??_C@_1M@LHIPCIEK@?$AAi?$AAd?$AA?9?$AAI?$AAD@ 10023350     libucrt:lcidtoname_downlevel.obj
 0002:0000435c       ??_C@_1M@MFMOBGI@?$AAu?$AAk?$AA?9?$AAU?$AAA@ 1002335c     libucrt:lcidtoname_downlevel.obj
 0002:00004368       ??_C@_1M@OBGLJIPL@?$AAb?$AAe?$AA?9?$AAB?$AAY@ 10023368     libucrt:lcidtoname_downlevel.obj
 0002:00004374       ??_C@_1M@BCFAJEAD@?$AAs?$AAl?$AA?9?$AAS?$AAI@ 10023374     libucrt:lcidtoname_downlevel.obj
 0002:00004380       ??_C@_1M@FKFFEDDN@?$AAe?$AAt?$AA?9?$AAE?$AAE@ 10023380     libucrt:lcidtoname_downlevel.obj
 0002:0000438c       ??_C@_1M@KGKKAACI@?$AAl?$AAv?$AA?9?$AAL?$AAV@ 1002338c     libucrt:lcidtoname_downlevel.obj
 0002:00004398       ??_C@_1M@IFGBIJO@?$AAl?$AAt?$AA?9?$AAL?$AAT@ 10023398     libucrt:lcidtoname_downlevel.obj
 0002:000043a4       ??_C@_1M@FGEAHEDM@?$AAf?$AAa?$AA?9?$AAI?$AAR@ 100233a4     libucrt:lcidtoname_downlevel.obj
 0002:000043b0       ??_C@_1M@KBMAIBFN@?$AAv?$AAi?$AA?9?$AAV?$AAN@ 100233b0     libucrt:lcidtoname_downlevel.obj
 0002:000043bc       ??_C@_1M@GPCBKDJK@?$AAh?$AAy?$AA?9?$AAA?$AAM@ 100233bc     libucrt:lcidtoname_downlevel.obj
 0002:000043c8       ??_C@_1BG@BECMDDJB@?$AAa?$AAz?$AA?9?$AAA?$AAZ?$AA?9?$AAL?$AAa?$AAt?$AAn@ 100233c8     libucrt:lcidtoname_downlevel.obj
 0002:000043e0       ??_C@_1M@MAOFCAEA@?$AAe?$AAu?$AA?9?$AAE?$AAS@ 100233e0     libucrt:lcidtoname_downlevel.obj
 0002:000043ec       ??_C@_1M@IGHABKPI@?$AAm?$AAk?$AA?9?$AAM?$AAK@ 100233ec     libucrt:lcidtoname_downlevel.obj
 0002:000043f8       ??_C@_1M@IAIGNEJG@?$AAt?$AAn?$AA?9?$AAZ?$AAA@ 100233f8     libucrt:lcidtoname_downlevel.obj
 0002:00004404       ??_C@_1M@IIJCOJFA@?$AAx?$AAh?$AA?9?$AAZ?$AAA@ 10023404     libucrt:lcidtoname_downlevel.obj
 0002:00004410       ??_C@_1M@LGPJHNJH@?$AAz?$AAu?$AA?9?$AAZ?$AAA@ 10023410     libucrt:lcidtoname_downlevel.obj
 0002:0000441c       ??_C@_1M@HOKAOIO@?$AAa?$AAf?$AA?9?$AAZ?$AAA@ 1002341c     libucrt:lcidtoname_downlevel.obj
 0002:00004428       ??_C@_1M@DPCLHLIE@?$AAk?$AAa?$AA?9?$AAG?$AAE@ 10023428     libucrt:lcidtoname_downlevel.obj
 0002:00004434       ??_C@_1M@BLKMHJBI@?$AAf?$AAo?$AA?9?$AAF?$AAO@ 10023434     libucrt:lcidtoname_downlevel.obj
 0002:00004440       ??_C@_1M@LGGJAPPB@?$AAh?$AAi?$AA?9?$AAI?$AAN@ 10023440     libucrt:lcidtoname_downlevel.obj
 0002:0000444c       ??_C@_1M@FIKPIHFE@?$AAm?$AAt?$AA?9?$AAM?$AAT@ 1002344c     libucrt:lcidtoname_downlevel.obj
 0002:00004458       ??_C@_1M@HEGGPBFA@?$AAs?$AAe?$AA?9?$AAN?$AAO@ 10023458     libucrt:lcidtoname_downlevel.obj
 0002:00004464       ??_C@_1M@EIBJEEPA@?$AAm?$AAs?$AA?9?$AAM?$AAY@ 10023464     libucrt:lcidtoname_downlevel.obj
 0002:00004470       ??_C@_1M@FHLBGMPP@?$AAk?$AAk?$AA?9?$AAK?$AAZ@ 10023470     libucrt:lcidtoname_downlevel.obj
 0002:0000447c       ??_C@_1M@NGJJLCGI@?$AAk?$AAy?$AA?9?$AAK?$AAG@ 1002347c     libucrt:lcidtoname_downlevel.obj
 0002:00004488       ??_C@_1M@GIENNBFC@?$AAs?$AAw?$AA?9?$AAK?$AAE@ 10023488     libucrt:lcidtoname_downlevel.obj
 0002:00004494       ??_C@_1BG@NDGMJIMJ@?$AAu?$AAz?$AA?9?$AAU?$AAZ?$AA?9?$AAL?$AAa?$AAt?$AAn@ 10023494     libucrt:lcidtoname_downlevel.obj
 0002:000044ac       ??_C@_1M@IDCCIHBC@?$AAt?$AAt?$AA?9?$AAR?$AAU@ 100234ac     libucrt:lcidtoname_downlevel.obj
 0002:000044b8       ??_C@_1M@LOICPMOJ@?$AAb?$AAn?$AA?9?$AAI?$AAN@ 100234b8     libucrt:lcidtoname_downlevel.obj
 0002:000044c4       ??_C@_1M@KPKKNEAH@?$AAp?$AAa?$AA?9?$AAI?$AAN@ 100234c4     libucrt:lcidtoname_downlevel.obj
 0002:000044d0       ??_C@_1M@PJGPPBOG@?$AAg?$AAu?$AA?9?$AAI?$AAN@ 100234d0     libucrt:lcidtoname_downlevel.obj
 0002:000044dc       ??_C@_1M@KMKMOPHI@?$AAt?$AAa?$AA?9?$AAI?$AAN@ 100234dc     libucrt:lcidtoname_downlevel.obj
 0002:000044e8       ??_C@_1M@KFEHEPAC@?$AAt?$AAe?$AA?9?$AAI?$AAN@ 100234e8     libucrt:lcidtoname_downlevel.obj
 0002:000044f4       ??_C@_1M@CDCLMGHI@?$AAk?$AAn?$AA?9?$AAI?$AAN@ 100234f4     libucrt:lcidtoname_downlevel.obj
 0002:00004500       ??_C@_1M@MIODLDKF@?$AAm?$AAl?$AA?9?$AAI?$AAN@ 10023500     libucrt:lcidtoname_downlevel.obj
 0002:0000450c       ??_C@_1M@PBIEACPO@?$AAm?$AAr?$AA?9?$AAI?$AAN@ 1002350c     libucrt:lcidtoname_downlevel.obj
 0002:00004518       ??_C@_1M@NIDEAGPH@?$AAs?$AAa?$AA?9?$AAI?$AAN@ 10023518     libucrt:lcidtoname_downlevel.obj
 0002:00004524       ??_C@_1M@FHIHCBIO@?$AAm?$AAn?$AA?9?$AAM?$AAN@ 10023524     libucrt:lcidtoname_downlevel.obj
 0002:00004530       ??_C@_1M@JAIJPENP@?$AAc?$AAy?$AA?9?$AAG?$AAB@ 10023530     libucrt:lcidtoname_downlevel.obj
 0002:0000453c       ??_C@_1M@PHGFBEPN@?$AAg?$AAl?$AA?9?$AAE?$AAS@ 1002353c     libucrt:lcidtoname_downlevel.obj
 0002:00004548       ??_C@_1O@KPIPDNCP@?$AAk?$AAo?$AAk?$AA?9?$AAI?$AAN@ 10023548     libucrt:lcidtoname_downlevel.obj
 0002:00004558       ??_C@_1O@KNHJLDJA@?$AAs?$AAy?$AAr?$AA?9?$AAS?$AAY@ 10023558     libucrt:lcidtoname_downlevel.obj
 0002:00004568       ??_C@_1O@MKEKBLAH@?$AAd?$AAi?$AAv?$AA?9?$AAM?$AAV@ 10023568     libucrt:lcidtoname_downlevel.obj
 0002:00004578       ??_C@_1O@OHDCKDDF@?$AAq?$AAu?$AAz?$AA?9?$AAB?$AAO@ 10023578     libucrt:lcidtoname_downlevel.obj
 0002:00004588       ??_C@_1M@LEPJNLFD@?$AAn?$AAs?$AA?9?$AAZ?$AAA@ 10023588     libucrt:lcidtoname_downlevel.obj
 0002:00004594       ??_C@_1M@OMLEIIJB@?$AAm?$AAi?$AA?9?$AAN?$AAZ@ 10023594     libucrt:lcidtoname_downlevel.obj
 0002:000045a0       ??_C@_1M@PMPEAILG@?$AAa?$AAr?$AA?9?$AAI?$AAQ@ 100235a0     libucrt:lcidtoname_downlevel.obj
 0002:000045ac       ??_C@_1M@CNKPNOEE@?$AAd?$AAe?$AA?9?$AAC?$AAH@ 100235ac     libucrt:lcidtoname_downlevel.obj
 0002:000045b8       ??_C@_1M@LKMGMLKO@?$AAe?$AAn?$AA?9?$AAG?$AAB@ 100235b8     libucrt:lcidtoname_downlevel.obj
 0002:000045c4       ??_C@_1M@PGKJFFGL@?$AAe?$AAs?$AA?9?$AAM?$AAX@ 100235c4     libucrt:lcidtoname_downlevel.obj
 0002:000045d0       ??_C@_1M@DNNANBDC@?$AAf?$AAr?$AA?9?$AAB?$AAE@ 100235d0     libucrt:lcidtoname_downlevel.obj
 0002:000045dc       ??_C@_1M@HLGMDFHM@?$AAi?$AAt?$AA?9?$AAC?$AAH@ 100235dc     libucrt:lcidtoname_downlevel.obj
 0002:000045e8       ??_C@_1M@CLLBGJH@?$AAn?$AAl?$AA?9?$AAB?$AAE@ 100235e8     libucrt:lcidtoname_downlevel.obj
 0002:000045f4       ??_C@_1M@BODBOGLF@?$AAn?$AAn?$AA?9?$AAN?$AAO@ 100235f4     libucrt:lcidtoname_downlevel.obj
 0002:00004600       ??_C@_1M@HFFAHKAD@?$AAp?$AAt?$AA?9?$AAP?$AAT@ 10023600     libucrt:lcidtoname_downlevel.obj
 0002:0000460c       ??_C@_1BG@LNOAKHIE@?$AAs?$AAr?$AA?9?$AAS?$AAP?$AA?9?$AAL?$AAa?$AAt?$AAn@ 1002360c     libucrt:lcidtoname_downlevel.obj
 0002:00004624       ??_C@_1M@HBMHBGAK@?$AAs?$AAv?$AA?9?$AAF?$AAI@ 10023624     libucrt:lcidtoname_downlevel.obj
 0002:00004630       ??_C@_1BG@DGCJGJBE@?$AAa?$AAz?$AA?9?$AAA?$AAZ?$AA?9?$AAC?$AAy?$AAr?$AAl@ 10023630     libucrt:lcidtoname_downlevel.obj
 0002:00004648       ??_C@_1M@KEJDAAHB@?$AAs?$AAe?$AA?9?$AAS?$AAE@ 10023648     libucrt:lcidtoname_downlevel.obj
 0002:00004654       ??_C@_1M@HEIBJJAD@?$AAm?$AAs?$AA?9?$AAB?$AAN@ 10023654     libucrt:lcidtoname_downlevel.obj
 0002:00004660       ??_C@_1BG@PBGJMCEM@?$AAu?$AAz?$AA?9?$AAU?$AAZ?$AA?9?$AAC?$AAy?$AAr?$AAl@ 10023660     libucrt:lcidtoname_downlevel.obj
 0002:00004678       ??_C@_1O@LAOBCMDF@?$AAq?$AAu?$AAz?$AA?9?$AAE?$AAC@ 10023678     libucrt:lcidtoname_downlevel.obj
 0002:00004688       ??_C@_1M@POEEMAIO@?$AAa?$AAr?$AA?9?$AAE?$AAG@ 10023688     libucrt:lcidtoname_downlevel.obj
 0002:00004694       ??_C@_1M@EFAKDEDL@?$AAz?$AAh?$AA?9?$AAH?$AAK@ 10023694     libucrt:lcidtoname_downlevel.obj
 0002:000046a0       ??_C@_1M@HKKIJHGI@?$AAd?$AAe?$AA?9?$AAA?$AAT@ 100236a0     libucrt:lcidtoname_downlevel.obj
 0002:000046ac       ??_C@_1M@KBFBEHJF@?$AAe?$AAn?$AA?9?$AAA?$AAU@ 100236ac     libucrt:lcidtoname_downlevel.obj
 0002:000046b8       ??_C@_1M@MNPLFAAH@?$AAe?$AAs?$AA?9?$AAE?$AAS@ 100236b8     libucrt:lcidtoname_downlevel.obj
 0002:000046c4       ??_C@_1M@HJOOJFMA@?$AAf?$AAr?$AA?9?$AAC?$AAA@ 100236c4     libucrt:lcidtoname_downlevel.obj
 0002:000046d0       ??_C@_1BG@JPOFPNAB@?$AAs?$AAr?$AA?9?$AAS?$AAP?$AA?9?$AAC?$AAy?$AAr?$AAl@ 100236d0     libucrt:lcidtoname_downlevel.obj
 0002:000046e8       ??_C@_1M@LNFOCMOB@?$AAs?$AAe?$AA?9?$AAF?$AAI@ 100236e8     libucrt:lcidtoname_downlevel.obj
 0002:000046f4       ??_C@_1O@MGJBOAMB@?$AAq?$AAu?$AAz?$AA?9?$AAP?$AAE@ 100236f4     libucrt:lcidtoname_downlevel.obj
 0002:00004704       ??_C@_1M@GJINLBOK@?$AAa?$AAr?$AA?9?$AAL?$AAY@ 10023704     libucrt:lcidtoname_downlevel.obj
 0002:00004710       ??_C@_1M@GGMNHJNL@?$AAz?$AAh?$AA?9?$AAS?$AAG@ 10023710     libucrt:lcidtoname_downlevel.obj
 0002:0000471c       ??_C@_1M@HOIKODND@?$AAd?$AAe?$AA?9?$AAL?$AAU@ 1002371c     libucrt:lcidtoname_downlevel.obj
 0002:00004728       ??_C@_1M@DDOCCGFG@?$AAe?$AAn?$AA?9?$AAC?$AAA@ 10023728     libucrt:lcidtoname_downlevel.obj
 0002:00004734       ??_C@_1M@BNOEMJLF@?$AAe?$AAs?$AA?9?$AAG?$AAT@ 10023734     libucrt:lcidtoname_downlevel.obj
 0002:00004740       ??_C@_1M@EOGNKEK@?$AAf?$AAr?$AA?9?$AAC?$AAH@ 10023740     libucrt:lcidtoname_downlevel.obj
 0002:0000474c       ??_C@_1M@FLIDJFHL@?$AAh?$AAr?$AA?9?$AAB?$AAA@ 1002374c     libucrt:lcidtoname_downlevel.obj
 0002:00004758       ??_C@_1O@FMCELNAJ@?$AAs?$AAm?$AAj?$AA?9?$AAN?$AAO@ 10023758     libucrt:lcidtoname_downlevel.obj
 0002:00004768       ??_C@_1M@JHGLJMGJ@?$AAa?$AAr?$AA?9?$AAD?$AAZ@ 10023768     libucrt:lcidtoname_downlevel.obj
 0002:00004774       ??_C@_1M@JKKFDCNP@?$AAz?$AAh?$AA?9?$AAM?$AAO@ 10023774     libucrt:lcidtoname_downlevel.obj
 0002:00004780       ??_C@_1M@GEEFALPE@?$AAd?$AAe?$AA?9?$AAL?$AAI@ 10023780     libucrt:lcidtoname_downlevel.obj
 0002:0000478c       ??_C@_1M@IGEOFBG@?$AAe?$AAn?$AA?9?$AAN?$AAZ@ 1002378c     libucrt:lcidtoname_downlevel.obj
 0002:00004798       ??_C@_1M@KDBONEHP@?$AAe?$AAs?$AA?9?$AAC?$AAR@ 10023798     libucrt:lcidtoname_downlevel.obj
 0002:000047a4       ??_C@_1M@FHMDOHNN@?$AAf?$AAr?$AA?9?$AAL?$AAU@ 100237a4     libucrt:lcidtoname_downlevel.obj
 0002:000047b0       ??_C@_1BG@NFKKMAFG@?$AAb?$AAs?$AA?9?$AAB?$AAA?$AA?9?$AAL?$AAa?$AAt?$AAn@ 100237b0     libucrt:lcidtoname_downlevel.obj
 0002:000047c8       ??_C@_1O@IMNBEMCI@?$AAs?$AAm?$AAj?$AA?9?$AAS?$AAE@ 100237c8     libucrt:lcidtoname_downlevel.obj
 0002:000047d8       ??_C@_1M@DHHMBNDP@?$AAa?$AAr?$AA?9?$AAM?$AAA@ 100237d8     libucrt:lcidtoname_downlevel.obj
 0002:000047e4       ??_C@_1M@BNBLJCGH@?$AAe?$AAn?$AA?9?$AAI?$AAE@ 100237e4     libucrt:lcidtoname_downlevel.obj
 0002:000047f0       ??_C@_1M@GEPAFMDL@?$AAe?$AAs?$AA?9?$AAP?$AAA@ 100237f0     libucrt:lcidtoname_downlevel.obj
 0002:000047fc       ??_C@_1M@OJONDMDL@?$AAf?$AAr?$AA?9?$AAM?$AAC@ 100237fc     libucrt:lcidtoname_downlevel.obj
 0002:00004808       ??_C@_1BG@OBCNFJB@?$AAs?$AAr?$AA?9?$AAB?$AAA?$AA?9?$AAL?$AAa?$AAt?$AAn@ 10023808     libucrt:lcidtoname_downlevel.obj
 0002:00004820       ??_C@_1O@KEMEEGPO@?$AAs?$AAm?$AAa?$AA?9?$AAN?$AAO@ 10023820     libucrt:lcidtoname_downlevel.obj
 0002:00004830       ??_C@_1M@ELMGFODK@?$AAa?$AAr?$AA?9?$AAT?$AAN@ 10023830     libucrt:lcidtoname_downlevel.obj
 0002:0000483c       ??_C@_1M@BHDLHFAF@?$AAe?$AAn?$AA?9?$AAZ?$AAA@ 1002383c     libucrt:lcidtoname_downlevel.obj
 0002:00004848       ??_C@_1M@BMGIGLIF@?$AAe?$AAs?$AA?9?$AAD?$AAO@ 10023848     libucrt:lcidtoname_downlevel.obj
 0002:00004854       ??_C@_1BG@CMBHIPBE@?$AAs?$AAr?$AA?9?$AAB?$AAA?$AA?9?$AAC?$AAy?$AAr?$AAl@ 10023854     libucrt:lcidtoname_downlevel.obj
 0002:0000486c       ??_C@_1O@HEDBLHNP@?$AAs?$AAm?$AAa?$AA?9?$AAS?$AAE@ 1002386c     libucrt:lcidtoname_downlevel.obj
 0002:0000487c       ??_C@_1M@DAGCADIM@?$AAa?$AAr?$AA?9?$AAO?$AAM@ 1002387c     libucrt:lcidtoname_downlevel.obj
 0002:00004888       ??_C@_1M@FODLMICG@?$AAe?$AAn?$AA?9?$AAJ?$AAM@ 10023888     libucrt:lcidtoname_downlevel.obj
 0002:00004894       ??_C@_1M@DNMLCIHB@?$AAe?$AAs?$AA?9?$AAV?$AAE@ 10023894     libucrt:lcidtoname_downlevel.obj
 0002:000048a0       ??_C@_1O@EOKHMKJK@?$AAs?$AAm?$AAs?$AA?9?$AAF?$AAI@ 100238a0     libucrt:lcidtoname_downlevel.obj
 0002:000048b0       ??_C@_1M@CAFJMKOF@?$AAa?$AAr?$AA?9?$AAY?$AAE@ 100238b0     libucrt:lcidtoname_downlevel.obj
 0002:000048bc       ??_C@_1M@CBFHIJLI@?$AAe?$AAn?$AA?9?$AAC?$AAB@ 100238bc     libucrt:lcidtoname_downlevel.obj
 0002:000048c8       ??_C@_1M@BGNFLDN@?$AAe?$AAs?$AA?9?$AAC?$AAO@ 100238c8     libucrt:lcidtoname_downlevel.obj
 0002:000048d4       ??_C@_1O@JMPHMAMC@?$AAs?$AAm?$AAn?$AA?9?$AAF?$AAI@ 100238d4     libucrt:lcidtoname_downlevel.obj
 0002:000048e4       ??_C@_1M@JLANABKE@?$AAa?$AAr?$AA?9?$AAS?$AAY@ 100238e4     libucrt:lcidtoname_downlevel.obj
 0002:000048f0       ??_C@_1M@HPKGCFGN@?$AAe?$AAn?$AA?9?$AAB?$AAZ@ 100238f0     libucrt:lcidtoname_downlevel.obj
 0002:000048fc       ??_C@_1M@OLJCMLGM@?$AAe?$AAs?$AA?9?$AAP?$AAE@ 100238fc     libucrt:lcidtoname_downlevel.obj
 0002:00004908       ??_C@_1M@MKKGFKLE@?$AAa?$AAr?$AA?9?$AAJ?$AAO@ 10023908     libucrt:lcidtoname_downlevel.obj
 0002:00004914       ??_C@_1M@EKPGLDNI@?$AAe?$AAn?$AA?9?$AAT?$AAT@ 10023914     libucrt:lcidtoname_downlevel.obj
 0002:00004920       ??_C@_1M@OONGHFHE@?$AAe?$AAs?$AA?9?$AAA?$AAR@ 10023920     libucrt:lcidtoname_downlevel.obj
 0002:0000492c       ??_C@_1M@OOJFGBHE@?$AAa?$AAr?$AA?9?$AAL?$AAB@ 1002392c     libucrt:lcidtoname_downlevel.obj
 0002:00004938       ??_C@_1M@GCEJHNEG@?$AAe?$AAn?$AA?9?$AAZ?$AAW@ 10023938     libucrt:lcidtoname_downlevel.obj
 0002:00004944       ??_C@_1M@JNOCAHJI@?$AAe?$AAs?$AA?9?$AAE?$AAC@ 10023944     libucrt:lcidtoname_downlevel.obj
 0002:00004950       ??_C@_1M@JEFHPGGB@?$AAa?$AAr?$AA?9?$AAK?$AAW@ 10023950     libucrt:lcidtoname_downlevel.obj
 0002:0000495c       ??_C@_1M@MLKIBJOJ@?$AAe?$AAn?$AA?9?$AAP?$AAH@ 1002395c     libucrt:lcidtoname_downlevel.obj
 0002:00004968       ??_C@_1M@BDNIPEND@?$AAe?$AAs?$AA?9?$AAC?$AAL@ 10023968     libucrt:lcidtoname_downlevel.obj
 0002:00004974       ??_C@_1M@MPNMEKBD@?$AAa?$AAr?$AA?9?$AAA?$AAE@ 10023974     libucrt:lcidtoname_downlevel.obj
 0002:00004980       ??_C@_1M@KBJALCPI@?$AAe?$AAs?$AA?9?$AAU?$AAY@ 10023980     libucrt:lcidtoname_downlevel.obj
 0002:0000498c       ??_C@_1M@LLCCOAGA@?$AAa?$AAr?$AA?9?$AAB?$AAH@ 1002398c     libucrt:lcidtoname_downlevel.obj
 0002:00004998       ??_C@_1M@PBFNCDEL@?$AAe?$AAs?$AA?9?$AAP?$AAY@ 10023998     libucrt:lcidtoname_downlevel.obj
 0002:000049a4       ??_C@_1M@EDGINPNP@?$AAa?$AAr?$AA?9?$AAQ?$AAA@ 100239a4     libucrt:lcidtoname_downlevel.obj
 0002:000049b0       ??_C@_1M@MKDBIIJI@?$AAe?$AAs?$AA?9?$AAB?$AAO@ 100239b0     libucrt:lcidtoname_downlevel.obj
 0002:000049bc       ??_C@_1M@CPKKEBLD@?$AAe?$AAs?$AA?9?$AAS?$AAV@ 100239bc     libucrt:lcidtoname_downlevel.obj
 0002:000049c8       ??_C@_1M@NDBGMMJL@?$AAe?$AAs?$AA?9?$AAH?$AAN@ 100239c8     libucrt:lcidtoname_downlevel.obj
 0002:000049d4       ??_C@_1M@JIJIBHDP@?$AAe?$AAs?$AA?9?$AAN?$AAI@ 100239d4     libucrt:lcidtoname_downlevel.obj
 0002:000049e0       ??_C@_1M@CGFMKEEK@?$AAe?$AAs?$AA?9?$AAP?$AAR@ 100239e0     libucrt:lcidtoname_downlevel.obj
 0002:000049ec       ??_C@_1O@ICJHKIIK@?$AAz?$AAh?$AA?9?$AAC?$AAH?$AAT@ 100239ec     libucrt:lcidtoname_downlevel.obj
 0002:000049fc       ??_C@_15CLNEJCE@?$AAs?$AAr@ 100239fc     libucrt:lcidtoname_downlevel.obj
 0002:00005128       ??_C@_1M@KAHEKEIG@?$AAa?$AAf?$AA?9?$AAz?$AAa@ 10024128     libucrt:lcidtoname_downlevel.obj
 0002:00005134       ??_C@_1M@GIECOABL@?$AAa?$AAr?$AA?9?$AAa?$AAe@ 10024134     libucrt:lcidtoname_downlevel.obj
 0002:00005140       ??_C@_1M@BMLMEKGI@?$AAa?$AAr?$AA?9?$AAb?$AAh@ 10024140     libucrt:lcidtoname_downlevel.obj
 0002:0000514c       ??_C@_1M@DAPFDGGB@?$AAa?$AAr?$AA?9?$AAd?$AAz@ 1002414c     libucrt:lcidtoname_downlevel.obj
 0002:00005158       ??_C@_1M@FJNKGKIG@?$AAa?$AAr?$AA?9?$AAe?$AAg@ 10024158     libucrt:lcidtoname_downlevel.obj
 0002:00005164       ??_C@_1M@FLGKKCLO@?$AAa?$AAr?$AA?9?$AAi?$AAq@ 10024164     libucrt:lcidtoname_downlevel.obj
 0002:00005170       ??_C@_1M@GNDIPALM@?$AAa?$AAr?$AA?9?$AAj?$AAo@ 10024170     libucrt:lcidtoname_downlevel.obj
 0002:0000517c       ??_C@_1M@DDMJFMGJ@?$AAa?$AAr?$AA?9?$AAk?$AAw@ 1002417c     libucrt:lcidtoname_downlevel.obj
 0002:00005188       ??_C@_1M@EJALMLHM@?$AAa?$AAr?$AA?9?$AAl?$AAb@ 10024188     libucrt:lcidtoname_downlevel.obj
 0002:00005194       ??_C@_1M@MOBDBLOC@?$AAa?$AAr?$AA?9?$AAl?$AAy@ 10024194     libucrt:lcidtoname_downlevel.obj
 0002:000051a0       ??_C@_1M@JAOCLHDH@?$AAa?$AAr?$AA?9?$AAm?$AAa@ 100241a0     libucrt:lcidtoname_downlevel.obj
 0002:000051ac       ??_C@_1M@JHPMKJIE@?$AAa?$AAr?$AA?9?$AAo?$AAm@ 100241ac     libucrt:lcidtoname_downlevel.obj
 0002:000051b8       ??_C@_1M@OEPGHFNH@?$AAa?$AAr?$AA?9?$AAq?$AAa@ 100241b8     libucrt:lcidtoname_downlevel.obj
 0002:000051c4       ??_C@_1M@KJDONENM@?$AAa?$AAr?$AA?9?$AAs?$AAa@ 100241c4     libucrt:lcidtoname_downlevel.obj
 0002:000051d0       ??_C@_1M@DMJDKLKM@?$AAa?$AAr?$AA?9?$AAs?$AAy@ 100241d0     libucrt:lcidtoname_downlevel.obj
 0002:000051dc       ??_C@_1M@OMFIPEDC@?$AAa?$AAr?$AA?9?$AAt?$AAn@ 100241dc     libucrt:lcidtoname_downlevel.obj
 0002:000051e8       ??_C@_1M@IHMHGAON@?$AAa?$AAr?$AA?9?$AAy?$AAe@ 100241e8     libucrt:lcidtoname_downlevel.obj
 0002:000051f4       ??_C@_1BG@KDCPGJGB@?$AAa?$AAz?$AA?9?$AAa?$AAz?$AA?9?$AAc?$AAy?$AAr?$AAl@ 100241f4     libucrt:lcidtoname_downlevel.obj
 0002:0000520c       ??_C@_1BG@IBCKDDOE@?$AAa?$AAz?$AA?9?$AAa?$AAz?$AA?9?$AAl?$AAa?$AAt?$AAn@ 1002420c     libucrt:lcidtoname_downlevel.obj
 0002:00005224       ??_C@_1M@EGPFDCPD@?$AAb?$AAe?$AA?9?$AAb?$AAy@ 10024224     libucrt:lcidtoname_downlevel.obj
 0002:00005230       ??_C@_1M@PCMGMCGC@?$AAb?$AAg?$AA?9?$AAb?$AAg@ 10024230     libucrt:lcidtoname_downlevel.obj
 0002:0000523c       ??_C@_1M@BJBMFGOB@?$AAb?$AAn?$AA?9?$AAi?$AAn@ 1002423c     libucrt:lcidtoname_downlevel.obj
 0002:00005248       ??_C@_1BG@EAKMMACD@?$AAb?$AAs?$AA?9?$AAb?$AAa?$AA?9?$AAl?$AAa?$AAt?$AAn@ 10024248     libucrt:lcidtoname_downlevel.obj
 0002:00005260       ??_C@_1M@KGADAODK@?$AAc?$AAa?$AA?9?$AAe?$AAs@ 10024260     libucrt:lcidtoname_downlevel.obj
 0002:0000526c       ??_C@_1M@COAJPDHI@?$AAc?$AAs?$AA?9?$AAc?$AAz@ 1002426c     libucrt:lcidtoname_downlevel.obj
 0002:00005278       ??_C@_1M@DHBHFONH@?$AAc?$AAy?$AA?9?$AAg?$AAb@ 10024278     libucrt:lcidtoname_downlevel.obj
 0002:00005284       ??_C@_1M@IMGKELGA@?$AAd?$AAa?$AA?9?$AAd?$AAk@ 10024284     libucrt:lcidtoname_downlevel.obj
 0002:00005290       ??_C@_1M@NNDGDNGA@?$AAd?$AAe?$AA?9?$AAa?$AAt@ 10024290     libucrt:lcidtoname_downlevel.obj
 0002:0000529c       ??_C@_1M@IKDBHEEM@?$AAd?$AAe?$AA?9?$AAc?$AAh@ 1002429c     libucrt:lcidtoname_downlevel.obj
 0002:000052a8       ??_C@_1M@GFFOJMCJ@?$AAd?$AAe?$AA?9?$AAd?$AAe@ 100242a8     libucrt:lcidtoname_downlevel.obj
 0002:000052b4       ??_C@_1M@MDNLKBPM@?$AAd?$AAe?$AA?9?$AAl?$AAi@ 100242b4     libucrt:lcidtoname_downlevel.obj
 0002:000052c0       ??_C@_1M@NJBEEJNL@?$AAd?$AAe?$AA?9?$AAl?$AAu@ 100242c0     libucrt:lcidtoname_downlevel.obj
 0002:000052cc       ??_C@_1O@GNNELBAP@?$AAd?$AAi?$AAv?$AA?9?$AAm?$AAv@ 100242cc     libucrt:lcidtoname_downlevel.obj
 0002:000052dc       ??_C@_1M@EJLEOGAE@?$AAe?$AAl?$AA?9?$AAg?$AAr@ 100242dc     libucrt:lcidtoname_downlevel.obj
 0002:000052e8       ??_C@_1M@GMPONJN@?$AAe?$AAn?$AA?9?$AAa?$AAu@ 100242e8     libucrt:lcidtoname_downlevel.obj
 0002:000052f4       ??_C@_1M@NIDIIPGF@?$AAe?$AAn?$AA?9?$AAb?$AAz@ 100242f4     libucrt:lcidtoname_downlevel.obj
 0002:00005300       ??_C@_1M@JEHMIMFO@?$AAe?$AAn?$AA?9?$AAc?$AAa@ 10024300     libucrt:lcidtoname_downlevel.obj
 0002:0000530c       ??_C@_1M@IGMJCDLA@?$AAe?$AAn?$AA?9?$AAc?$AAb@ 1002430c     libucrt:lcidtoname_downlevel.obj
 0002:00005318       ??_C@_1M@BNFIGBKG@?$AAe?$AAn?$AA?9?$AAg?$AAb@ 10024318     libucrt:lcidtoname_downlevel.obj
 0002:00005324       ??_C@_1M@LKIFDIGP@?$AAe?$AAn?$AA?9?$AAi?$AAe@ 10024324     libucrt:lcidtoname_downlevel.obj
 0002:00005330       ??_C@_1M@PJKFGCCO@?$AAe?$AAn?$AA?9?$AAj?$AAm@ 10024330     libucrt:lcidtoname_downlevel.obj
 0002:0000533c       ??_C@_1M@KPPKEPBO@?$AAe?$AAn?$AA?9?$AAn?$AAz@ 1002433c     libucrt:lcidtoname_downlevel.obj
 0002:00005348       ??_C@_1M@GMDGLDOB@?$AAe?$AAn?$AA?9?$AAp?$AAh@ 10024348     libucrt:lcidtoname_downlevel.obj
 0002:00005354       ??_C@_1M@ONGIBJNA@?$AAe?$AAn?$AA?9?$AAt?$AAt@ 10024354     libucrt:lcidtoname_downlevel.obj
 0002:00005360       ??_C@_1M@LLODPCMM@?$AAe?$AAn?$AA?9?$AAu?$AAs@ 10024360     libucrt:lcidtoname_downlevel.obj
 0002:0000536c       ??_C@_1M@LAKFNPAN@?$AAe?$AAn?$AA?9?$AAz?$AAa@ 1002436c     libucrt:lcidtoname_downlevel.obj
 0002:00005378       ??_C@_1M@MFNHNHEO@?$AAe?$AAn?$AA?9?$AAz?$AAw@ 10024378     libucrt:lcidtoname_downlevel.obj
 0002:00005384       ??_C@_1M@EJEINPHM@?$AAe?$AAs?$AA?9?$AAa?$AAr@ 10024384     libucrt:lcidtoname_downlevel.obj
 0002:00005390       ??_C@_1M@GNKPCCJA@?$AAe?$AAs?$AA?9?$AAb?$AAo@ 10024390     libucrt:lcidtoname_downlevel.obj
 0002:0000539c       ??_C@_1M@LEEGFONL@?$AAe?$AAs?$AA?9?$AAc?$AAl@ 1002439c     libucrt:lcidtoname_downlevel.obj
 0002:000053a8       ??_C@_1M@KGPDPBDF@?$AAe?$AAs?$AA?9?$AAc?$AAo@ 100243a8     libucrt:lcidtoname_downlevel.obj
 0002:000053b4       ??_C@_1M@EIAHOHH@?$AAe?$AAs?$AA?9?$AAc?$AAr@ 100243b4     libucrt:lcidtoname_downlevel.obj
 0002:000053c0       ??_C@_1M@LLPGMBIN@?$AAe?$AAs?$AA?9?$AAd?$AAo@ 100243c0     libucrt:lcidtoname_downlevel.obj
 0002:000053cc       ??_C@_1M@DKHMKNJA@?$AAe?$AAs?$AA?9?$AAe?$AAc@ 100243cc     libucrt:lcidtoname_downlevel.obj
 0002:000053d8       ??_C@_1M@GKGFPKAP@?$AAe?$AAs?$AA?9?$AAe?$AAs@ 100243d8     libucrt:lcidtoname_downlevel.obj
 0002:000053e4       ??_C@_1M@LKHKGDLN@?$AAe?$AAs?$AA?9?$AAg?$AAt@ 100243e4     libucrt:lcidtoname_downlevel.obj
 0002:000053f0       ??_C@_1M@HEIIGGJD@?$AAe?$AAs?$AA?9?$AAh?$AAn@ 100243f0     libucrt:lcidtoname_downlevel.obj
 0002:000053fc       ??_C@_1M@FBDHPPGD@?$AAe?$AAs?$AA?9?$AAm?$AAx@ 100243fc     libucrt:lcidtoname_downlevel.obj
 0002:00005408       ??_C@_1M@DPAGLNDH@?$AAe?$AAs?$AA?9?$AAn?$AAi@ 10024408     libucrt:lcidtoname_downlevel.obj
 0002:00005414       ??_C@_1M@MDGOPGDD@?$AAe?$AAs?$AA?9?$AAp?$AAa@ 10024414     libucrt:lcidtoname_downlevel.obj
 0002:00005420       ??_C@_1M@EMAMGBGE@?$AAe?$AAs?$AA?9?$AAp?$AAe@ 10024420     libucrt:lcidtoname_downlevel.obj
 0002:0000542c       ??_C@_1M@IBMCAOEC@?$AAe?$AAs?$AA?9?$AAp?$AAr@ 1002442c     libucrt:lcidtoname_downlevel.obj
 0002:00005438       ??_C@_1M@FGMDIJED@?$AAe?$AAs?$AA?9?$AAp?$AAy@ 10024438     libucrt:lcidtoname_downlevel.obj
 0002:00005444       ??_C@_1M@IIDEOLLL@?$AAe?$AAs?$AA?9?$AAs?$AAv@ 10024444     libucrt:lcidtoname_downlevel.obj
 0002:00005450       ??_C@_1M@GAOBIPA@?$AAe?$AAs?$AA?9?$AAu?$AAy@ 10024450     libucrt:lcidtoname_downlevel.obj
 0002:0000545c       ??_C@_1M@JKFFICHJ@?$AAe?$AAs?$AA?9?$AAv?$AAe@ 1002445c     libucrt:lcidtoname_downlevel.obj
 0002:00005468       ??_C@_1M@PNMLOJDF@?$AAe?$AAt?$AA?9?$AAe?$AAe@ 10024468     libucrt:lcidtoname_downlevel.obj
 0002:00005474       ??_C@_1M@GHHLIKEI@?$AAe?$AAu?$AA?9?$AAe?$AAs@ 10024474     libucrt:lcidtoname_downlevel.obj
 0002:00005480       ??_C@_1M@PBNONODE@?$AAf?$AAa?$AA?9?$AAi?$AAr@ 10024480     libucrt:lcidtoname_downlevel.obj
 0002:0000548c       ??_C@_1M@JEEHPMIL@?$AAf?$AAi?$AA?9?$AAf?$AAi@ 1002448c     libucrt:lcidtoname_downlevel.obj
 0002:00005498       ??_C@_1M@LMDCNDBA@?$AAf?$AAo?$AA?9?$AAf?$AAo@ 10024498     libucrt:lcidtoname_downlevel.obj
 0002:000054a4       ??_C@_1M@JKEOHLDK@?$AAf?$AAr?$AA?9?$AAb?$AAe@ 100244a4     libucrt:lcidtoname_downlevel.obj
 0002:000054b0       ??_C@_1M@NOHADPMI@?$AAf?$AAr?$AA?9?$AAc?$AAa@ 100244b0     libucrt:lcidtoname_downlevel.obj
 0002:000054bc       ??_C@_1M@KDHIHAEC@?$AAf?$AAr?$AA?9?$AAc?$AAh@ 100244bc     libucrt:lcidtoname_downlevel.obj
 0002:000054c8       ??_C@_1M@MMBBFGAK@?$AAf?$AAr?$AA?9?$AAf?$AAr@ 100244c8     libucrt:lcidtoname_downlevel.obj
 0002:000054d4       ??_C@_1M@PAFNENNF@?$AAf?$AAr?$AA?9?$AAl?$AAu@ 100244d4     libucrt:lcidtoname_downlevel.obj
 0002:000054e0       ??_C@_1M@EOHDJGDD@?$AAf?$AAr?$AA?9?$AAm?$AAc@ 100244e0     libucrt:lcidtoname_downlevel.obj
 0002:000054ec       ??_C@_1M@FAPLLOPF@?$AAg?$AAl?$AA?9?$AAe?$AAs@ 100244ec     libucrt:lcidtoname_downlevel.obj
 0002:000054f8       ??_C@_1M@FOPBFLOO@?$AAg?$AAu?$AA?9?$AAi?$AAn@ 100244f8     libucrt:lcidtoname_downlevel.obj
 0002:00005504       ??_C@_1M@KBMCINPM@?$AAh?$AAe?$AA?9?$AAi?$AAl@ 10024504     libucrt:lcidtoname_downlevel.obj
 0002:00005510       ??_C@_1M@BBPHKFPJ@?$AAh?$AAi?$AA?9?$AAi?$AAn@ 10024510     libucrt:lcidtoname_downlevel.obj
 0002:0000551c       ??_C@_1M@PMBNDPHD@?$AAh?$AAr?$AA?9?$AAb?$AAa@ 1002451c     libucrt:lcidtoname_downlevel.obj
 0002:00005528       ??_C@_1M@BPCKOEGE@?$AAh?$AAr?$AA?9?$AAh?$AAr@ 10024528     libucrt:lcidtoname_downlevel.obj
 0002:00005534       ??_C@_1M@GACBMHKE@?$AAh?$AAu?$AA?9?$AAh?$AAu@ 10024534     libucrt:lcidtoname_downlevel.obj
 0002:00005540       ??_C@_1M@MILPAJJC@?$AAh?$AAy?$AA?9?$AAa?$AAm@ 10024540     libucrt:lcidtoname_downlevel.obj
 0002:0000554c       ??_C@_1M@BABBICEC@?$AAi?$AAd?$AA?9?$AAi?$AAd@ 1002454c     libucrt:lcidtoname_downlevel.obj
 0002:00005558       ??_C@_1M@BIKNHHPF@?$AAi?$AAs?$AA?9?$AAi?$AAs@ 10024558     libucrt:lcidtoname_downlevel.obj
 0002:00005564       ??_C@_1M@NMPCJPHE@?$AAi?$AAt?$AA?9?$AAc?$AAh@ 10024564     libucrt:lcidtoname_downlevel.obj
 0002:00005570       ??_C@_1M@GHKGFEDF@?$AAi?$AAt?$AA?9?$AAi?$AAt@ 10024570     libucrt:lcidtoname_downlevel.obj
 0002:0000557c       ??_C@_1M@NIEJCJJA@?$AAj?$AAa?$AA?9?$AAj?$AAp@ 1002457c     libucrt:lcidtoname_downlevel.obj
 0002:00005588       ??_C@_1M@JILFNBIM@?$AAk?$AAa?$AA?9?$AAg?$AAe@ 10024588     libucrt:lcidtoname_downlevel.obj
 0002:00005594       ??_C@_1M@PACPMGPH@?$AAk?$AAk?$AA?9?$AAk?$AAz@ 10024594     libucrt:lcidtoname_downlevel.obj
 0002:000055a0       ??_C@_1M@IELFGMHA@?$AAk?$AAn?$AA?9?$AAi?$AAn@ 100245a0     libucrt:lcidtoname_downlevel.obj
 0002:000055ac       ??_C@_1O@IBBJHCH@?$AAk?$AAo?$AAk?$AA?9?$AAi?$AAn@ 100245ac     libucrt:lcidtoname_downlevel.obj
 0002:000055bc       ??_C@_1M@DMHAEOGC@?$AAk?$AAo?$AA?9?$AAk?$AAr@ 100245bc     libucrt:lcidtoname_downlevel.obj
 0002:000055c8       ??_C@_1M@HBAHBIGA@?$AAk?$AAy?$AA?9?$AAk?$AAg@ 100245c8     libucrt:lcidtoname_downlevel.obj
 0002:000055d4       ??_C@_1M@KPMILCJG@?$AAl?$AAt?$AA?9?$AAl?$AAt@ 100245d4     libucrt:lcidtoname_downlevel.obj
 0002:000055e0       ??_C@_1M@BDEKKCA@?$AAl?$AAv?$AA?9?$AAl?$AAv@ 100245e0     libucrt:lcidtoname_downlevel.obj
 0002:000055ec       ??_C@_1M@ELCKCCJJ@?$AAm?$AAi?$AA?9?$AAn?$AAz@ 100245ec     libucrt:lcidtoname_downlevel.obj
 0002:000055f8       ??_C@_1M@CBOOLAPA@?$AAm?$AAk?$AA?9?$AAm?$AAk@ 100245f8     libucrt:lcidtoname_downlevel.obj
 0002:00005604       ??_C@_1M@GPHNBJKN@?$AAm?$AAl?$AA?9?$AAi?$AAn@ 10024604     libucrt:lcidtoname_downlevel.obj
 0002:00005610       ??_C@_1M@PABJILIG@?$AAm?$AAn?$AA?9?$AAm?$AAn@ 10024610     libucrt:lcidtoname_downlevel.obj
 0002:0000561c       ??_C@_1M@FGBKKIPG@?$AAm?$AAr?$AA?9?$AAi?$AAn@ 1002461c     libucrt:lcidtoname_downlevel.obj
 0002:00005628       ??_C@_1M@NDBPDDAL@?$AAm?$AAs?$AA?9?$AAb?$AAn@ 10024628     libucrt:lcidtoname_downlevel.obj
 0002:00005634       ??_C@_1M@OPIHOOPI@?$AAm?$AAs?$AA?9?$AAm?$AAy@ 10024634     libucrt:lcidtoname_downlevel.obj
 0002:00005640       ??_C@_1M@PPDBCNFM@?$AAm?$AAt?$AA?9?$AAm?$AAt@ 10024640     libucrt:lcidtoname_downlevel.obj
 0002:0000564c       ??_C@_1M@KDJDKMDD@?$AAn?$AAb?$AA?9?$AAn?$AAo@ 1002464c     libucrt:lcidtoname_downlevel.obj
 0002:00005658       ??_C@_1M@KFCFLMJP@?$AAn?$AAl?$AA?9?$AAb?$AAe@ 10024658     libucrt:lcidtoname_downlevel.obj
 0002:00005664       ??_C@_1M@KPOPDDGO@?$AAn?$AAl?$AA?9?$AAn?$AAl@ 10024664     libucrt:lcidtoname_downlevel.obj
 0002:00005670       ??_C@_1M@LJKPEMLN@?$AAn?$AAn?$AA?9?$AAn?$AAo@ 10024670     libucrt:lcidtoname_downlevel.obj
 0002:0000567c       ??_C@_1M@BDGHHBFL@?$AAn?$AAs?$AA?9?$AAz?$AAa@ 1002467c     libucrt:lcidtoname_downlevel.obj
 0002:00005688       ??_C@_1M@IDEHOAP@?$AAp?$AAa?$AA?9?$AAi?$AAn@ 10024688     libucrt:lcidtoname_downlevel.obj
 0002:00005694       ??_C@_1M@HDBKGOGH@?$AAp?$AAl?$AA?9?$AAp?$AAl@ 10024694     libucrt:lcidtoname_downlevel.obj
 0002:000056a0       ??_C@_1M@LJLLCMEH@?$AAp?$AAt?$AA?9?$AAb?$AAr@ 100246a0     libucrt:lcidtoname_downlevel.obj
 0002:000056ac       ??_C@_1M@NCMONAAL@?$AAp?$AAt?$AA?9?$AAp?$AAt@ 100246ac     libucrt:lcidtoname_downlevel.obj
 0002:000056b8       ??_C@_1O@EAKMAJDN@?$AAq?$AAu?$AAz?$AA?9?$AAb?$AAo@ 100246b8     libucrt:lcidtoname_downlevel.obj
 0002:000056c8       ??_C@_1O@BHHPIGDN@?$AAq?$AAu?$AAz?$AA?9?$AAe?$AAc@ 100246c8     libucrt:lcidtoname_downlevel.obj
 0002:000056d8       ??_C@_1O@GBAPEKMJ@?$AAq?$AAu?$AAz?$AA?9?$AAp?$AAe@ 100246d8     libucrt:lcidtoname_downlevel.obj
 0002:000056e8       ??_C@_1M@CLGLEFBO@?$AAr?$AAo?$AA?9?$AAr?$AAo@ 100246e8     libucrt:lcidtoname_downlevel.obj
 0002:000056f4       ??_C@_1M@CEEDODME@?$AAr?$AAu?$AA?9?$AAr?$AAu@ 100246f4     libucrt:lcidtoname_downlevel.obj
 0002:00005700       ??_C@_1M@HPKKKMPP@?$AAs?$AAa?$AA?9?$AAi?$AAn@ 10024700     libucrt:lcidtoname_downlevel.obj
 0002:0000570c       ??_C@_1M@BKMAIGOJ@?$AAs?$AAe?$AA?9?$AAf?$AAi@ 1002470c     libucrt:lcidtoname_downlevel.obj
 0002:00005718       ??_C@_1M@NDPIFLFI@?$AAs?$AAe?$AA?9?$AAn?$AAo@ 10024718     libucrt:lcidtoname_downlevel.obj
 0002:00005724       ??_C@_1M@DANKKHJ@?$AAs?$AAe?$AA?9?$AAs?$AAe@ 10024724     libucrt:lcidtoname_downlevel.obj
 0002:00005730       ??_C@_1M@PNBLONPJ@?$AAs?$AAk?$AA?9?$AAs?$AAk@ 10024730     libucrt:lcidtoname_downlevel.obj
 0002:0000573c       ??_C@_1M@LFMODOAL@?$AAs?$AAl?$AA?9?$AAs?$AAi@ 1002473c     libucrt:lcidtoname_downlevel.obj
 0002:00005748       ??_C@_1O@DFKOMPG@?$AAs?$AAm?$AAa?$AA?9?$AAn?$AAo@ 10024748     libucrt:lcidtoname_downlevel.obj
 0002:00005758       ??_C@_1O@NDKPBNNH@?$AAs?$AAm?$AAa?$AA?9?$AAs?$AAe@ 10024758     libucrt:lcidtoname_downlevel.obj
 0002:00005768       ??_C@_1O@PLLKBHAB@?$AAs?$AAm?$AAj?$AA?9?$AAn?$AAo@ 10024768     libucrt:lcidtoname_downlevel.obj
 0002:00005778       ??_C@_1O@CLEPOGCA@?$AAs?$AAm?$AAj?$AA?9?$AAs?$AAe@ 10024778     libucrt:lcidtoname_downlevel.obj
 0002:00005788       ??_C@_1O@DLGJGKMK@?$AAs?$AAm?$AAn?$AA?9?$AAf?$AAi@ 10024788     libucrt:lcidtoname_downlevel.obj
 0002:00005798       ??_C@_1O@OJDJGAJC@?$AAs?$AAm?$AAs?$AA?9?$AAf?$AAi@ 10024798     libucrt:lcidtoname_downlevel.obj
 0002:000057a8       ??_C@_1M@BOFOGHPB@?$AAs?$AAq?$AA?9?$AAa?$AAl@ 100247a8     libucrt:lcidtoname_downlevel.obj
 0002:000057b4       ??_C@_1BG@LJBBIPGB@?$AAs?$AAr?$AA?9?$AAb?$AAa?$AA?9?$AAc?$AAy?$AAr?$AAl@ 100247b4     libucrt:lcidtoname_downlevel.obj
 0002:000057cc       ??_C@_1BG@JLBENFOE@?$AAs?$AAr?$AA?9?$AAb?$AAa?$AA?9?$AAl?$AAa?$AAt?$AAn@ 100247cc     libucrt:lcidtoname_downlevel.obj
 0002:000057e4       ??_C@_1BG@KODPNHE@?$AAs?$AAr?$AA?9?$AAs?$AAp?$AA?9?$AAc?$AAy?$AAr?$AAl@ 100247e4     libucrt:lcidtoname_downlevel.obj
 0002:000057fc       ??_C@_1BG@CIOGKHPB@?$AAs?$AAr?$AA?9?$AAs?$AAp?$AA?9?$AAl?$AAa?$AAt?$AAn@ 100247fc     libucrt:lcidtoname_downlevel.obj
 0002:00005814       ??_C@_1M@NGFJLMAC@?$AAs?$AAv?$AA?9?$AAf?$AAi@ 10024814     libucrt:lcidtoname_downlevel.obj
 0002:00005820       ??_C@_1M@MPJEJAJC@?$AAs?$AAv?$AA?9?$AAs?$AAe@ 10024820     libucrt:lcidtoname_downlevel.obj
 0002:0000582c       ??_C@_1M@MPNDHLFK@?$AAs?$AAw?$AA?9?$AAk?$AAe@ 1002482c     libucrt:lcidtoname_downlevel.obj
 0002:00005838       ??_C@_1O@KOHBJJI@?$AAs?$AAy?$AAr?$AA?9?$AAs?$AAy@ 10024838     libucrt:lcidtoname_downlevel.obj
 0002:00005848       ??_C@_1M@LDCEFHA@?$AAt?$AAa?$AA?9?$AAi?$AAn@ 10024848     libucrt:lcidtoname_downlevel.obj
 0002:00005854       ??_C@_1M@CNJOFAK@?$AAt?$AAe?$AA?9?$AAi?$AAn@ 10024854     libucrt:lcidtoname_downlevel.obj
 0002:00005860       ??_C@_1M@GNAECACD@?$AAt?$AAh?$AA?9?$AAt?$AAh@ 10024860     libucrt:lcidtoname_downlevel.obj
 0002:0000586c       ??_C@_1M@CHBIHOJO@?$AAt?$AAn?$AA?9?$AAz?$AAa@ 1002486c     libucrt:lcidtoname_downlevel.obj
 0002:00005878       ??_C@_1M@GCCMIGPJ@?$AAt?$AAr?$AA?9?$AAt?$AAr@ 10024878     libucrt:lcidtoname_downlevel.obj
 0002:00005884       ??_C@_1M@CELMCNBK@?$AAt?$AAt?$AA?9?$AAr?$AAu@ 10024884     libucrt:lcidtoname_downlevel.obj
 0002:00005890       ??_C@_1M@KLMCELGA@?$AAu?$AAk?$AA?9?$AAu?$AAa@ 10024890     libucrt:lcidtoname_downlevel.obj
 0002:0000589c       ??_C@_1M@EPAJJAJF@?$AAu?$AAr?$AA?9?$AAp?$AAk@ 1002489c     libucrt:lcidtoname_downlevel.obj
 0002:000058a8       ??_C@_1BG@GEGPMCDJ@?$AAu?$AAz?$AA?9?$AAu?$AAz?$AA?9?$AAc?$AAy?$AAr?$AAl@ 100248a8     libucrt:lcidtoname_downlevel.obj
 0002:000058c0       ??_C@_1BG@EGGKJILM@?$AAu?$AAz?$AA?9?$AAu?$AAz?$AA?9?$AAl?$AAa?$AAt?$AAn@ 100248c0     libucrt:lcidtoname_downlevel.obj
 0002:000058d8       ??_C@_1M@GFOCLFF@?$AAv?$AAi?$AA?9?$AAv?$AAn@ 100248d8     libucrt:lcidtoname_downlevel.obj
 0002:000058e4       ??_C@_1M@CPAMEDFI@?$AAx?$AAh?$AA?9?$AAz?$AAa@ 100248e4     libucrt:lcidtoname_downlevel.obj
 0002:000058f0       ??_C@_1O@EBKIFIGN@?$AAz?$AAh?$AA?9?$AAc?$AAh?$AAs@ 100248f0     libucrt:lcidtoname_downlevel.obj
 0002:00005900       ??_C@_1O@NMHPGANE@?$AAz?$AAh?$AA?9?$AAc?$AAh?$AAt@ 10024900     libucrt:lcidtoname_downlevel.obj
 0002:00005910       ??_C@_1M@LPINJOMC@?$AAz?$AAh?$AA?9?$AAc?$AAn@ 10024910     libucrt:lcidtoname_downlevel.obj
 0002:0000591c       ??_C@_1M@OCJEJODD@?$AAz?$AAh?$AA?9?$AAh?$AAk@ 1002491c     libucrt:lcidtoname_downlevel.obj
 0002:00005928       ??_C@_1M@DNDLJINH@?$AAz?$AAh?$AA?9?$AAm?$AAo@ 10024928     libucrt:lcidtoname_downlevel.obj
 0002:00005934       ??_C@_1M@MBFDNDND@?$AAz?$AAh?$AA?9?$AAs?$AAg@ 10024934     libucrt:lcidtoname_downlevel.obj
 0002:00005940       ??_C@_1M@IMEPLEPE@?$AAz?$AAh?$AA?9?$AAt?$AAw@ 10024940     libucrt:lcidtoname_downlevel.obj
 0002:0000594c       ??_C@_1M@BBGHNHJP@?$AAz?$AAu?$AA?9?$AAz?$AAa@ 1002494c     libucrt:lcidtoname_downlevel.obj
 0002:00005958       ?large_power_data@?1??multiply_by_power_of_ten@__crt_strtox@@YA_NAAUbig_integer@2@I@Z@4QBIB 10024958     libucrt:cfout.obj
 0002:000062f8       ?small_powers_of_ten@?1??multiply_by_power_of_ten@__crt_strtox@@YA_NAAUbig_integer@2@I@Z@4QBIB 100252f8     libucrt:cfout.obj
 0002:0000631c       ??_C@_01GBGANLPD@0@        1002531c     libucrt:cfout.obj
 0002:00006320       ??_C@_05DNEBIAHO@1?$CDINF@ 10025320     libucrt:cfout.obj
 0002:00006328       ??_C@_06IMKFLFPG@1?$CDQNAN@ 10025328     libucrt:cfout.obj
 0002:00006330       ??_C@_06PGGFOGJG@1?$CDSNAN@ 10025330     libucrt:cfout.obj
 0002:00006338       ??_C@_05PHHOCPM@1?$CDIND@  10025338     libucrt:cfout.obj
 0002:000064a0       __infinity                 100254a0     libucrt:87tran.obj
 0002:000064aa       __minfinity                100254aa     libucrt:87tran.obj
 0002:000064b4       __logemax                  100254b4     libucrt:87tran.obj
 0002:000064da       __OP_EXPjmptab             100254da     libucrt:87tran.obj
 0002:00006500       __indefinite               10025500     libucrt:87disp.obj
 0002:0000650a       __piby2                    1002550a     libucrt:87disp.obj
 0002:00006514       __piby4                    10025514     libucrt:87disp.obj
 0002:00006548       __DEFAULT_CW_in_mem        10025548     libucrt:common.obj
 0002:0000654a       __pi_by_2_to_61            1002554a     libucrt:common.obj
 0002:00006584       ??_C@_03MGHMBJCF@log@      10025584     libucrt:libm_error.obj
 0002:00006588       ??_C@_05HGHHAHAP@log10@    10025588     libucrt:libm_error.obj
 0002:00006590       ??_C@_03KHJOGHMM@exp@      10025590     libucrt:libm_error.obj
 0002:00006594       ??_C@_03JGHBODFD@pow@      10025594     libucrt:libm_error.obj
 0002:00006598       ??_C@_04FIHNOPOL@asin@     10025598     libucrt:libm_error.obj
 0002:000065a0       ??_C@_04PDIFKINK@acos@     100255a0     libucrt:libm_error.obj
 0002:000065a8       ??_C@_04EIAKFFMI@sqrt@     100255a8     libucrt:libm_error.obj
 0002:000065b0       __real@3ff0000000000000    100255b0     libucrt:libm_error.obj
 0002:000065b8       ??_C@_1BA@BALFACEM@?$AAC?$AAO?$AAN?$AAO?$AAU?$AAT?$AA$@ 100255b8     libucrt:initcon.obj
 0002:000065e0       ___acrt_log10_table_t      100255e0     libucrt:log10_tables.obj
 0002:000069f0       ___acrt_log10_table_cb     100259f0     libucrt:log10_tables.obj
 0002:00006e00       __real@3fe0000000000000    10025e00     libucrt:powhlp.obj
 0002:00006ef0       ??_C@_04COOMCNPB@sinh@     10025ef0     libucrt:fpexcept.obj
 0002:00006ef8       ??_C@_04HPJJNFIM@cosh@     10025ef8     libucrt:fpexcept.obj
 0002:00006f00       ??_C@_04FJHINJAO@tanh@     10025f00     libucrt:fpexcept.obj
 0002:00006f08       ??_C@_04MLLJIGOK@atan@     10025f08     libucrt:fpexcept.obj
 0002:00006f10       ??_C@_05KNGEOGJB@atan2@    10025f10     libucrt:fpexcept.obj
 0002:00006f18       ??_C@_03BLEJJJBH@sin@      10025f18     libucrt:fpexcept.obj
 0002:00006f1c       ??_C@_03LALBNOCG@cos@      10025f1c     libucrt:fpexcept.obj
 0002:00006f20       ??_C@_03IIINPABG@tan@      10025f20     libucrt:fpexcept.obj
 0002:00006f24       ??_C@_04GFPJNGEK@ceil@     10025f24     libucrt:fpexcept.obj
 0002:00006f2c       ??_C@_05PBJFFIGL@floor@    10025f2c     libucrt:fpexcept.obj
 0002:00006f34       ??_C@_04ODHECPBC@fabs@     10025f34     libucrt:fpexcept.obj
 0002:00006f3c       ??_C@_04EHEDPDJG@modf@     10025f3c     libucrt:fpexcept.obj
 0002:00006f44       ??_C@_05CEJMAHNP@ldexp@    10025f44     libucrt:fpexcept.obj
 0002:00006f4c       ??_C@_05KBKMEMPO@_cabs@    10025f4c     libucrt:fpexcept.obj
 0002:00006f54       ??_C@_06MEIMCGCF@_hypot@   10025f54     libucrt:fpexcept.obj
 0002:00006f5c       ??_C@_04KEPJIHGP@fmod@     10025f5c     libucrt:fpexcept.obj
 0002:00006f64       ??_C@_05GKKHEGJL@frexp@    10025f64     libucrt:fpexcept.obj
 0002:00006f6c       ??_C@_03MJLDFKDL@_y0@      10025f6c     libucrt:fpexcept.obj
 0002:00006f70       ??_C@_03NAKIGLHK@_y1@      10025f70     libucrt:fpexcept.obj
 0002:00006f74       ??_C@_03ONILCKOB@_yn@      10025f74     libucrt:fpexcept.obj
 0002:00006f78       ??_C@_05JGDBENOH@_logb@    10025f78     libucrt:fpexcept.obj
 0002:00006f80       ??_C@_0L@KDOEJCKC@_nextafter@ 10025f80     libucrt:fpexcept.obj
 0002:00006f90       __d_inf                    10025f90     libucrt:util.obj
 0002:00006f98       __d_max                    10025f98     libucrt:util.obj
 0002:00006fa0       __d_mzero                  10025fa0     libucrt:util.obj
 0002:00007008       __load_config_used         10026008     LIBCMT:loadcfg.obj
 0002:000070ac       __tls_used                 100260ac     LIBCMT:tlssup.obj
 0002:000070c4       ??_R4exception@std@@6B@    100260c4     LIBCMT:throw_bad_alloc.obj
 0002:000070d8       ??_R3exception@std@@8      100260d8     LIBCMT:throw_bad_alloc.obj
 0002:000070e8       ??_R2exception@std@@8      100260e8     LIBCMT:throw_bad_alloc.obj
 0002:000070f0       ??_R1A@?0A@EA@exception@std@@8 100260f0     LIBCMT:throw_bad_alloc.obj
 0002:0000710c       ??_R4bad_alloc@std@@6B@    1002610c     LIBCMT:throw_bad_alloc.obj
 0002:00007120       ??_R3bad_alloc@std@@8      10026120     LIBCMT:throw_bad_alloc.obj
 0002:00007130       ??_R2bad_alloc@std@@8      10026130     LIBCMT:throw_bad_alloc.obj
 0002:0000713c       ??_R1A@?0A@EA@bad_alloc@std@@8 1002613c     LIBCMT:throw_bad_alloc.obj
 0002:00007158       ??_R4bad_array_new_length@std@@6B@ 10026158     LIBCMT:throw_bad_alloc.obj
 0002:0000716c       ??_R3bad_array_new_length@std@@8 1002616c     LIBCMT:throw_bad_alloc.obj
 0002:0000717c       ??_R2bad_array_new_length@std@@8 1002617c     LIBCMT:throw_bad_alloc.obj
 0002:0000718c       ??_R1A@?0A@EA@bad_array_new_length@std@@8 1002618c     LIBCMT:throw_bad_alloc.obj
 0002:000071a8       ??_R4type_info@@6B@        100261a8     LIBCMT:std_type_info_static.obj
 0002:000071bc       ??_R3type_info@@8          100261bc     LIBCMT:std_type_info_static.obj
 0002:000071cc       ??_R2type_info@@8          100261cc     LIBCMT:std_type_info_static.obj
 0002:000071d4       ??_R1A@?0A@EA@type_info@@8 100261d4     LIBCMT:std_type_info_static.obj
 0002:000071f0       ??_R4bad_exception@std@@6B@ 100261f0     libvcruntime:frame.obj
 0002:00007204       ??_R3bad_exception@std@@8  10026204     libvcruntime:frame.obj
 0002:00007214       ??_R2bad_exception@std@@8  10026214     libvcruntime:frame.obj
 0002:00007220       ??_R1A@?0A@EA@bad_exception@std@@8 10026220     libvcruntime:frame.obj
 0002:00007240       ___safe_se_handler_table   10026240     <linker-defined>
 0002:0000763c       ___rtc_iaa                 1002663c     LIBCMT:initsect.obj
 0002:00007640       ___rtc_izz                 10026640     LIBCMT:initsect.obj
 0002:00007644       ___rtc_taa                 10026644     LIBCMT:initsect.obj
 0002:00007648       ___rtc_tzz                 10026648     LIBCMT:initsect.obj
 0002:0000764c       __tls_start                1002664c     LIBCMT:tlssup.obj
 0002:00007650       __Init_thread_epoch        10026650     LIBCMT:thread_safe_statics.obj
 0002:00007654       __tls_end                  10026654     LIBCMT:tlssup.obj
 0002:0000774c       __TI2?AVbad_alloc@std@@    1002674c     LIBCMT:throw_bad_alloc.obj
 0002:0000775c       __CTA2?AVbad_alloc@std@@   1002675c     LIBCMT:throw_bad_alloc.obj
 0002:00007768       __CT??_R0?AVbad_alloc@std@@@8??0bad_alloc@std@@QAE@ABV01@@Z12 10026768     LIBCMT:throw_bad_alloc.obj
 0002:00007784       __CT??_R0?AVexception@std@@@8??0exception@std@@QAE@ABV01@@Z12 10026784     LIBCMT:throw_bad_alloc.obj
 0002:000077a0       __TI3?AVbad_array_new_length@std@@ 100267a0     LIBCMT:throw_bad_alloc.obj
 0002:000077b0       __CTA3?AVbad_array_new_length@std@@ 100267b0     LIBCMT:throw_bad_alloc.obj
 0002:000077c0       __CT??_R0?AVbad_array_new_length@std@@@8??0bad_array_new_length@std@@QAE@ABV01@@Z12 100267c0     LIBCMT:throw_bad_alloc.obj
 0002:000078c4       __TI2?AVbad_exception@std@@ 100268c4     libvcruntime:frame.obj
 0002:000078d4       __CTA2?AVbad_exception@std@@ 100268d4     libvcruntime:frame.obj
 0002:000078e0       __CT??_R0?AVbad_exception@std@@@8??0bad_exception@std@@QAE@ABV01@@Z12 100268e0     libvcruntime:frame.obj
 0002:00007c5c       ___pobjMapEntryFirst       10026c5c     OposVariant.obj
 0002:00007c60       ___pobjMapEntryLast        10026c60     OposVariant.obj
 0002:00007d20       __IMPORT_DESCRIPTOR_KERNEL32 10026d20     kernel32:KERNEL32.dll
 0002:00007d34       __IMPORT_DESCRIPTOR_USER32 10026d34     user32:USER32.dll
 0002:00007d48       __IMPORT_DESCRIPTOR_GDI32  10026d48     gdi32:GDI32.dll
 0002:00007d5c       __IMPORT_DESCRIPTOR_ADVAPI32 10026d5c     advapi32:ADVAPI32.dll
 0002:00007d70       __IMPORT_DESCRIPTOR_ole32  10026d70     ole32:ole32.dll
 0002:00007d84       __IMPORT_DESCRIPTOR_OLEAUT32 10026d84     oleaut32:OLEAUT32.dll
 0002:00007d98       __NULL_IMPORT_DESCRIPTOR   10026d98     kernel32:KERNEL32.dll
 0003:00000000       ?s_Claim@?7??GetIDsOfNames@CComTypeInfoHolder@ATL@@QAEJABU_GUID@@PAPA_WIKPAJ@Z@4PA_WA 10028000     ImageScanner.obj
 0003:00000018       ?s_Release@?7??GetIDsOfNames@CComTypeInfoHolder@ATL@@QAEJABU_GUID@@PAPA_WIKPAJ@Z@4PA_WA 10028018     ImageScanner.obj
 0003:00000038       ?wc@?1??GetWndClassInfo@?$CWindowImpl@VCOPOSImageScanner@@VCWindow@ATL@@V?$CWinTraits@$0FGAAAAAA@$0A@@3@@ATL@@SAAAU_ATL_WNDCLASSINFOW@3@XZ@4U43@A 10028038     ImageScanner.obj
 0003:000000c4       ?rcDefault@CWindow@ATL@@2UtagRECT@@A 100280c4     ImageScanner.obj
 0003:000000d4       ?_tih@?$IDispatchImpl@UIOPOSImageScanner@@$1?IID_IOPOSImageScanner@@3U_GUID@@B$1?LIBID_OposImageScanner_CCO@@3U3@B$00$0A@VCComTypeInfoHolder@ATL@@@ATL@@1VCComTypeInfoHolder@2@A 100280d4     ImageScanner.obj
 0003:000000f0       ?_tih@?$IProvideClassInfo2Impl@$1?CLSID_OPOSImageScanner@@3U_GUID@@B$1?DIID__IOPOSImageScannerEvents@@3U2@B$1?LIBID_OposImageScanner_CCO@@3U2@B$00$0A@VCComTypeInfoHolder@ATL@@@ATL@@1VCComTypeInfoHolder@2@A 100280f0     ImageScanner.obj
 0003:0000010c       ?vszContents@?6??Save@?$IPersistStorageImpl@VCOPOSImageScanner@@@ATL@@UAGJPAUIStorage@@H@Z@4PB_WB 1002810c     ImageScanner.obj
 0003:00000158       ?g_WindowName@@3PA_WA      10028158     ImageScannerImpl.obj
 0003:00000180       ?g_ControlDescription@@3PADA 10028180     ImageScannerImpl.obj
 0003:000001b8       ?g_ControlVersion@@3JA     100281b8     ImageScannerImpl.obj
 0003:00000214       ___scrt_native_dllmain_reason 10028214     LIBCMT:utility.obj
 0003:00000218       __Init_global_epoch        10028218     LIBCMT:thread_safe_statics.obj
 0003:00000220       ___security_cookie_complement 10028220     LIBCMT:gs_cookie.obj
 0003:00000224       ___security_cookie         10028224     LIBCMT:gs_cookie.obj
 0003:00000228       ___isa_enabled             10028228     LIBCMT:cpu_disp.obj
 0003:00000240       __NLG_Destination          10028240     libvcruntime:exsup.obj
 0003:00000258       ___abort_behavior          10028258     libucrt:abort.obj
 0003:00000268       __iob                      10028268     libucrt:_file.obj
 0003:00000310       ___acrt_initial_locale_data 10028310     libucrt:nlsdata.obj
 0003:000003c8       ___acrt_initial_locale_pointers 100283c8     libucrt:nlsdata.obj
 0003:000003d0       ___acrt_wide_c_locale_string 100283d0     libucrt:nlsdata.obj
 0003:000003d8       ___acrt_initial_multibyte_data 100283d8     libucrt:mbctype.obj
 0003:000008f8       __pwctype                  100288f8     libucrt:ctype.obj
 0003:000008fc       ___globallocalestatus      100288fc     libucrt:glstatus.obj
 0003:00000900       ___acrt_lconv_c            10028900     libucrt:localeconv.obj
 0003:00000950       ___acrt_lconv_static_decimal 10028950     libucrt:localeconv.obj
 0003:00000954       ___acrt_lconv_static_W_decimal 10028954     libucrt:localeconv.obj
 0003:00000960       __lookuptrailbytes         10028960     libucrt:read.obj
 0003:00000a70       __fltused                  10028a70     LIBCMT:fltused.obj
 0003:00000a80       ??_R0?AVbad_alloc@std@@@8  10028a80     LIBCMT:throw_bad_alloc.obj
 0003:00000a9c       ??_R0?AVexception@std@@@8  10028a9c     LIBCMT:throw_bad_alloc.obj
 0003:00000ab8       ??_R0?AVbad_array_new_length@std@@@8 10028ab8     LIBCMT:throw_bad_alloc.obj
 0003:00000ae0       ??_R0?AVtype_info@@@8      10028ae0     LIBCMT:std_type_info_static.obj
 0003:00000af8       ??_R0?AVbad_exception@std@@@8 10028af8     libvcruntime:frame.obj
 0003:00000b18       ?_pPerfRegFunc@ATL@@3P6AJPAUHINSTANCE__@@@ZA 10028b18     OposVariant.obj
 0003:00000b1c       ?_pPerfUnRegFunc@ATL@@3P6AJXZA 10028b1c     OposVariant.obj
 0003:00000b20       ?_AtlRegisterPerUser@ATL@@3_NA 10028b20     OposVariant.obj
 0003:00000b24       ?_pAtlModule@ATL@@3PAVCAtlModule@1@A 10028b24     OposVariant.obj
 0003:00000b28       ?_pModule@ATL@@3PAVCComModule@1@A 10028b28     OposVariant.obj
 0003:00000b2c       ?m_bInitFailed@CAtlBaseModule@ATL@@2_NA 10028b2c     OposVariant.obj
 0003:00000b30       ?_AtlComModule@ATL@@3VCAtlComModule@1@A 10028b30     OposVariant.obj
 0003:00000b58       ?_AtlWinModule@ATL@@3VCAtlWinModule@1@A 10028b58     OposVariant.obj
 0003:00000b84       ?m_libid@CAtlModule@ATL@@2U_GUID@@A 10028b84     ImageScanner.obj
 0003:00000b98       ?_OptionsStorage@?1??__local_stdio_printf_options@@9@4_KA 10028b98     ImageScanner.obj
 0003:00000ba0       ?_entries@?1??GetConnMap@COPOSImageScanner@@SAPBU_ATL_CONNMAP_ENTRY@ATL@@PAH@Z@4QBU34@B 10028ba0     ImageScanner.obj
 0003:00000bac       ?$TSS0@?1??GetConnMap@COPOSImageScanner@@SAPBU_ATL_CONNMAP_ENTRY@ATL@@PAH@Z@4HA 10028bac     ImageScanner.obj
 0003:00000bb0       ?pfnRegDeleteKeyEx@?1??DeleteSubKey@CRegKey@ATL@@QAEJPB_W@Z@4P6GJPAUHKEY__@@0KK@ZA 10028bb0     ImageScanner.obj
 0003:00000bb4       ?bInitialized@?1??DeleteSubKey@CRegKey@ATL@@QAEJPB_W@Z@4_NA 10028bb4     ImageScanner.obj
 0003:00000bb8       ?_Module@@3VCComModule@ATL@@A 10028bb8     ImageScanner.obj
 0003:00000be8       ?pConnMap@?$IConnectionPointContainerImpl@VCOPOSImageScanner@@@ATL@@0PBU_ATL_CONNMAP_ENTRY@2@B 10028be8     ImageScanner.obj
 0003:00000bec       ?s_nInstances@COPOSImageScanner@@1HA 10028bec     ImageScannerImpl.obj
 0003:00000bf0       ___scrt_current_native_startup_state 10028bf0     LIBCMT:utility.obj
 0003:00000bf4       ___scrt_native_startup_lock 10028bf4     LIBCMT:utility.obj
 0003:00000f5c       __tls_index                10028f5c     LIBCMT:tlssup.obj
 0003:00000f64       ___isa_available           10028f64     LIBCMT:cpu_disp.obj
 0003:00000f68       ___favor                   10028f68     LIBCMT:cpu_disp.obj
 0003:00000f6c       ___scrt_debugger_hook_flag 10028f6c     LIBCMT:utility_desktop.obj
 0003:00000f70       ?__type_info_root_node@@3U__type_info_node@@A 10028f70     LIBCMT:tncleanup.obj
 0003:00000f78       ?_OptionsStorage@?1??__local_stdio_scanf_options@@9@4_KA 10028f78     LIBCMT:default_local_stdio_options.obj
 0003:00000f80       ?_AtlBaseModule@ATL@@3VCAtlBaseModule@1@A 10028f80     atls:atlbase.obj
 0003:00000fb8       ?__AtlThunkPool@@3PAT_SLIST_HEADER@@A 10028fb8     atls:atlthunk.obj
 0003:00000fd0       ___@@_PchSym_@00@UztvmgUPdlipUDUhUrmgvinvwrzgvUexgllohUzgohOmzgrevkilqPBACIAJCBDBUlyqiUcIGUhgwzucOlyq@4B2008FD98C1DD4 10028fd0     atls:stdafx.obj
 0003:00000fd4       ___pPurecall               10028fd4     libvcruntime:purevirt_data.obj
 0003:0000101c       ?pArgList@UnDecorator@@0PAVReplicator@@A 1002901c     libvcruntime:undname.obj
 0003:00001020       ?pZNameList@UnDecorator@@0PAVReplicator@@A 10029020     libvcruntime:undname.obj
 0003:00001024       ?pTemplateArgList@UnDecorator@@0PAVReplicator@@A 10029024     libvcruntime:undname.obj
 0003:00001028       ?gName@UnDecorator@@0PBDB  10029028     libvcruntime:undname.obj
 0003:0000102c       ?name@UnDecorator@@0PBDB   1002902c     libvcruntime:undname.obj
 0003:00001030       ?disableFlags@UnDecorator@@0KA 10029030     libvcruntime:undname.obj
 0003:00001034       ?fExplicitTemplateParams@UnDecorator@@0_NA 10029034     libvcruntime:undname.obj
 0003:00001035       ?fGetTemplateArgumentList@UnDecorator@@0_NA 10029035     libvcruntime:undname.obj
 0003:00001038       ?m_pGetParameter@UnDecorator@@0P6APADJ@ZA 10029038     libvcruntime:undname.obj
 0003:0000103c       ?m_CHPENameOffset@UnDecorator@@0KA 1002903c     libvcruntime:undname.obj
 0003:00001040       ?m_recursionLevel@UnDecorator@@0KA 10029040     libvcruntime:undname.obj
 0003:00001078       ?__WinRTOutOfMemoryExceptionCallback@@3P6GPAXXZA 10029078     libvcruntime:ehhelpers.obj
 0003:00001088       ?c_exit_complete@?1???R<lambda_6e4b09c48022b2350581041d5f6b0c4c>@@QBE@XZ@4_NA 10029088     libucrt:exit.obj
 0003:00001198       __environ_table            10029198     libucrt:environment_initialization.obj
 0003:0000119c       __wenviron_table           1002919c     libucrt:environment_initialization.obj
 0003:000011a0       ___dcrt_initial_wide_environment 100291a0     libucrt:environment_initialization.obj
 0003:000011a4       ___dcrt_initial_narrow_environment 100291a4     libucrt:environment_initialization.obj
 0003:000011a8       ___acrt_atexit_table       100291a8     libucrt:onexit.obj
 0003:000011b4       ___acrt_at_quick_exit_table 100291b4     libucrt:onexit.obj
 0003:000012a8       __nstream                  100292a8     libucrt:_file.obj
 0003:000012ac       ___piob                    100292ac     libucrt:_file.obj
 0003:000012b4       ___acrt_stdout_buffer      100292b4     libucrt:_sftbuf.obj
 0003:000012b8       ___acrt_stderr_buffer      100292b8     libucrt:_sftbuf.obj
 0003:000012bc       ___acrt_locale_changed_data 100292bc     libucrt:wsetlocale.obj
 0003:000012c0       ___acrt_current_locale_data 100292c0     libucrt:nlsdata.obj
 0003:000012c8       ___pioinfo                 100292c8     libucrt:ioinit.obj
 0003:000014c8       __nhandle                  100294c8     libucrt:ioinit.obj
 0003:00001624       __mbctype                  10029624     libucrt:mbctype.obj
 0003:00001628       __mbcasemap                10029628     libucrt:mbctype.obj
 0003:0000162c       ___acrt_current_multibyte_data 1002962c     libucrt:mbctype.obj
 0003:00001638       __pgmptr                   10029638     libucrt:argv_data.obj
 0003:0000163c       ___argc                    1002963c     libucrt:argv_data.obj
 0003:00001640       ___argv                    10029640     libucrt:argv_data.obj
 0003:00001644       ___wargv                   10029644     libucrt:argv_data.obj
 0003:00001648       __acmdln                   10029648     libucrt:argv_data.obj
 0003:0000164c       __wcmdln                   1002964c     libucrt:argv_data.obj
 0003:00001650       ___acrt_heap               10029650     libucrt:heap_handle.obj
 0003:0000166c       ___acrt_lconv_static_null  1002966c     libucrt:localeconv.obj
 0003:00001670       ___acrt_lconv_static_W_null 10029670     libucrt:localeconv.obj
 0003:00001680       ___fastflag                10029680     libucrt:fp_flags.obj
 0003:00001688       ___dyn_tls_init_callback   10029688     <common>
 0003:0000168c       ___scrt_ucrt_dll_is_in_use 1002968c     <common>
 0003:00001690       __pmatherr                 10029690     <common>
 0003:00001694       ___use_sse2_mathfcns       10029694     <common>

 entry point at        0001:0000bc48

 Static symbols

 0000:fffcf000       .debug$S                   10000000     kernel32:KERNEL32.dll
 0000:fffcf000       .debug$S                   10000000     ole32:ole32.dll
 0000:fffcf000       .debug$S                   10000000     ole32:ole32.dll
 0000:fffcf000       .debug$S                   10000000     ole32:ole32.dll
 0000:fffcf000       .debug$S                   10000000     ole32:ole32.dll
 0000:fffcf000       .debug$S                   10000000     ole32:ole32.dll
 0000:fffcf000       .debug$S                   10000000     oleaut32:OLEAUT32.dll
 0000:fffcf000       .debug$S                   10000000     oleaut32:OLEAUT32.dll
 0000:fffcf000       .debug$S                   10000000     oleaut32:OLEAUT32.dll
 0000:fffcf000       .debug$S                   10000000     oleaut32:OLEAUT32.dll
 0000:fffcf000       .debug$S                   10000000     oleaut32:OLEAUT32.dll
 0000:fffcf000       .debug$S                   10000000     oleaut32:OLEAUT32.dll
 0000:fffcf000       .debug$S                   10000000     oleaut32:OLEAUT32.dll
 0000:fffcf000       .debug$S                   10000000     oleaut32:OLEAUT32.dll
 0000:fffcf000       .debug$S                   10000000     oleaut32:OLEAUT32.dll
 0000:fffcf000       .debug$S                   10000000     OPOSImageScanner.exp
 0000:fffcf000       .debug$S                   10000000     oleaut32:OLEAUT32.dll
 0000:fffcf000       .debug$S                   10000000     oleaut32:OLEAUT32.dll
 0000:fffcf000       .debug$S                   10000000     oleaut32:OLEAUT32.dll
 0000:fffcf000       .debug$S                   10000000     oleaut32:OLEAUT32.dll
 0000:fffcf000       .debug$S                   10000000     oleaut32:OLEAUT32.dll
 0000:fffcf000       .debug$S                   10000000     oleaut32:OLEAUT32.dll
 0000:fffcf000       .debug$S                   10000000     oleaut32:OLEAUT32.dll
 0000:fffcf000       .debug$S                   10000000     kernel32:KERNEL32.dll
 0000:fffcf000       .debug$S                   10000000     kernel32:KERNEL32.dll
 0000:fffcf000       .debug$S                   10000000     kernel32:KERNEL32.dll
 0000:fffcf000       .debug$S                   10000000     kernel32:KERNEL32.dll
 0000:fffcf000       .debug$S                   10000000     kernel32:KERNEL32.dll
 0000:fffcf000       .debug$S                   10000000     kernel32:KERNEL32.dll
 0000:fffcf000       .debug$S                   10000000     kernel32:KERNEL32.dll
 0000:fffcf000       .debug$S                   10000000     kernel32:KERNEL32.dll
 0000:fffcf000       .debug$S                   10000000     kernel32:KERNEL32.dll
 0000:fffcf000       .debug$S                   10000000     kernel32:KERNEL32.dll
 0000:fffcf000       .debug$S                   10000000     kernel32:KERNEL32.dll
 0000:fffcf000       .debug$S                   10000000     kernel32:KERNEL32.dll
 0000:fffcf000       .debug$S                   10000000     kernel32:KERNEL32.dll
 0000:fffcf000       .debug$S                   10000000     kernel32:KERNEL32.dll
 0000:fffcf000       .debug$S                   10000000     kernel32:KERNEL32.dll
 0000:fffcf000       .debug$S                   10000000     kernel32:KERNEL32.dll
 0000:fffcf000       .debug$S                   10000000     kernel32:KERNEL32.dll
 0000:fffcf000       .debug$S                   10000000     kernel32:KERNEL32.dll
 0000:fffcf000       .debug$S                   10000000     kernel32:KERNEL32.dll
 0000:fffcf000       .debug$S                   10000000     kernel32:KERNEL32.dll
 0000:fffcf000       .debug$S                   10000000     kernel32:KERNEL32.dll
 0000:fffcf000       .debug$S                   10000000     kernel32:KERNEL32.dll
 0000:fffcf000       .debug$S                   10000000     kernel32:KERNEL32.dll
 0000:fffcf000       .debug$S                   10000000     kernel32:KERNEL32.dll
 0000:fffcf000       .debug$S                   10000000     kernel32:KERNEL32.dll
 0000:fffcf000       .debug$S                   10000000     kernel32:KERNEL32.dll
 0000:fffcf000       .debug$S                   10000000     kernel32:KERNEL32.dll
 0000:fffcf000       .debug$S                   10000000     kernel32:KERNEL32.dll
 0000:fffcf000       .debug$S                   10000000     kernel32:KERNEL32.dll
 0000:fffcf000       .debug$S                   10000000     kernel32:KERNEL32.dll
 0000:fffcf000       .debug$S                   10000000     kernel32:KERNEL32.dll
 0000:fffcf000       .debug$S                   10000000     kernel32:KERNEL32.dll
 0000:fffcf000       .debug$S                   10000000     kernel32:KERNEL32.dll
 0000:fffcf000       .debug$S                   10000000     kernel32:KERNEL32.dll
 0000:fffcf000       .debug$S                   10000000     kernel32:KERNEL32.dll
 0000:fffcf000       .debug$S                   10000000     kernel32:KERNEL32.dll
 0000:fffcf000       .debug$S                   10000000     kernel32:KERNEL32.dll
 0000:fffcf000       .debug$S                   10000000     kernel32:KERNEL32.dll
 0000:fffcf000       .debug$S                   10000000     kernel32:KERNEL32.dll
 0000:fffcf000       .debug$S                   10000000     kernel32:KERNEL32.dll
 0000:fffcf000       .debug$S                   10000000     kernel32:KERNEL32.dll
 0000:fffcf000       .debug$S                   10000000     kernel32:KERNEL32.dll
 0000:fffcf000       .debug$S                   10000000     kernel32:KERNEL32.dll
 0000:fffcf000       .debug$S                   10000000     kernel32:KERNEL32.dll
 0000:fffcf000       .debug$S                   10000000     kernel32:KERNEL32.dll
 0000:fffcf000       .debug$S                   10000000     kernel32:KERNEL32.dll
 0000:fffcf000       .debug$S                   10000000     kernel32:KERNEL32.dll
 0000:fffcf000       .debug$S                   10000000     kernel32:KERNEL32.dll
 0000:fffcf000       .debug$S                   10000000     kernel32:KERNEL32.dll
 0000:fffcf000       .debug$S                   10000000     kernel32:KERNEL32.dll
 0000:fffcf000       .debug$S                   10000000     user32:USER32.dll
 0000:fffcf000       .debug$S                   10000000     kernel32:KERNEL32.dll
 0000:fffcf000       .debug$S                   10000000     kernel32:KERNEL32.dll
 0000:fffcf000       .debug$S                   10000000     kernel32:KERNEL32.dll
 0000:fffcf000       .debug$S                   10000000     kernel32:KERNEL32.dll
 0000:fffcf000       .debug$S                   10000000     kernel32:KERNEL32.dll
 0000:fffcf000       .debug$S                   10000000     kernel32:KERNEL32.dll
 0000:fffcf000       .debug$S                   10000000     kernel32:KERNEL32.dll
 0000:fffcf000       .debug$S                   10000000     kernel32:KERNEL32.dll
 0000:fffcf000       .debug$S                   10000000     kernel32:KERNEL32.dll
 0000:fffcf000       .debug$S                   10000000     kernel32:KERNEL32.dll
 0000:fffcf000       .debug$S                   10000000     kernel32:KERNEL32.dll
 0000:fffcf000       .debug$S                   10000000     kernel32:KERNEL32.dll
 0000:fffcf000       .debug$S                   10000000     kernel32:KERNEL32.dll
 0000:fffcf000       .debug$S                   10000000     kernel32:KERNEL32.dll
 0000:fffcf000       .debug$S                   10000000     kernel32:KERNEL32.dll
 0000:fffcf000       .debug$S                   10000000     kernel32:KERNEL32.dll
 0000:fffcf000       .debug$S                   10000000     kernel32:KERNEL32.dll
 0000:fffcf000       .debug$S                   10000000     kernel32:KERNEL32.dll
 0000:fffcf000       .debug$S                   10000000     kernel32:KERNEL32.dll
 0000:fffcf000       .debug$S                   10000000     kernel32:KERNEL32.dll
 0000:fffcf000       .debug$S                   10000000     kernel32:KERNEL32.dll
 0000:fffcf000       .debug$S                   10000000     kernel32:KERNEL32.dll
 0000:fffcf000       .debug$S                   10000000     kernel32:KERNEL32.dll
 0000:fffcf000       .debug$S                   10000000     kernel32:KERNEL32.dll
 0000:fffcf000       .debug$S                   10000000     kernel32:KERNEL32.dll
 0000:fffcf000       .debug$S                   10000000     kernel32:KERNEL32.dll
 0000:fffcf000       .debug$S                   10000000     kernel32:KERNEL32.dll
 0000:fffcf000       .debug$S                   10000000     kernel32:KERNEL32.dll
 0000:fffcf000       .debug$S                   10000000     kernel32:KERNEL32.dll
 0000:fffcf000       .debug$S                   10000000     kernel32:KERNEL32.dll
 0000:fffcf000       .debug$S                   10000000     kernel32:KERNEL32.dll
 0000:fffcf000       .debug$S                   10000000     kernel32:KERNEL32.dll
 0000:fffcf000       .debug$S                   10000000     kernel32:KERNEL32.dll
 0000:fffcf000       .debug$S                   10000000     kernel32:KERNEL32.dll
 0000:fffcf000       .debug$S                   10000000     kernel32:KERNEL32.dll
 0000:fffcf000       .debug$S                   10000000     kernel32:KERNEL32.dll
 0000:fffcf000       .debug$S                   10000000     kernel32:KERNEL32.dll
 0000:fffcf000       .debug$S                   10000000     kernel32:KERNEL32.dll
 0000:fffcf000       .debug$S                   10000000     kernel32:KERNEL32.dll
 0000:fffcf000       .debug$S                   10000000     kernel32:KERNEL32.dll
 0000:fffcf000       .debug$S                   10000000     kernel32:KERNEL32.dll
 0000:fffcf000       .debug$S                   10000000     kernel32:KERNEL32.dll
 0000:fffcf000       .debug$S                   10000000     kernel32:KERNEL32.dll
 0000:fffcf000       .debug$S                   10000000     kernel32:KERNEL32.dll
 0000:fffcf000       .debug$S                   10000000     kernel32:KERNEL32.dll
 0000:fffcf000       .debug$S                   10000000     kernel32:KERNEL32.dll
 0000:fffcf000       .debug$S                   10000000     kernel32:KERNEL32.dll
 0000:fffcf000       .debug$S                   10000000     kernel32:KERNEL32.dll
 0000:fffcf000       .debug$S                   10000000     kernel32:KERNEL32.dll
 0000:fffcf000       .debug$S                   10000000     kernel32:KERNEL32.dll
 0000:fffcf000       .debug$S                   10000000     kernel32:KERNEL32.dll
 0000:fffcf000       .debug$S                   10000000     kernel32:KERNEL32.dll
 0000:fffcf000       .debug$S                   10000000     kernel32:KERNEL32.dll
 0000:fffcf000       .debug$S                   10000000     kernel32:KERNEL32.dll
 0000:fffcf000       .debug$S                   10000000     kernel32:KERNEL32.dll
 0000:fffcf000       .debug$S                   10000000     user32:USER32.dll
 0000:fffcf000       .debug$S                   10000000     user32:USER32.dll
 0000:fffcf000       .debug$S                   10000000     user32:USER32.dll
 0000:fffcf000       .debug$S                   10000000     user32:USER32.dll
 0000:fffcf000       .debug$S                   10000000     user32:USER32.dll
 0000:fffcf000       .debug$S                   10000000     user32:USER32.dll
 0000:fffcf000       .debug$S                   10000000     user32:USER32.dll
 0000:fffcf000       .debug$S                   10000000     user32:USER32.dll
 0000:fffcf000       .debug$S                   10000000     user32:USER32.dll
 0000:fffcf000       .debug$S                   10000000     user32:USER32.dll
 0000:fffcf000       .debug$S                   10000000     user32:USER32.dll
 0000:fffcf000       .debug$S                   10000000     user32:USER32.dll
 0000:fffcf000       .debug$S                   10000000     user32:USER32.dll
 0000:fffcf000       .debug$S                   10000000     user32:USER32.dll
 0000:fffcf000       .debug$S                   10000000     user32:USER32.dll
 0000:fffcf000       .debug$S                   10000000     user32:USER32.dll
 0000:fffcf000       .debug$S                   10000000     user32:USER32.dll
 0000:fffcf000       .debug$S                   10000000     user32:USER32.dll
 0000:fffcf000       .debug$S                   10000000     user32:USER32.dll
 0000:fffcf000       .debug$S                   10000000     user32:USER32.dll
 0000:fffcf000       .debug$S                   10000000     user32:USER32.dll
 0000:fffcf000       .debug$S                   10000000     user32:USER32.dll
 0000:fffcf000       .debug$S                   10000000     user32:USER32.dll
 0000:fffcf000       .debug$S                   10000000     user32:USER32.dll
 0000:fffcf000       .debug$S                   10000000     user32:USER32.dll
 0000:fffcf000       .debug$S                   10000000     user32:USER32.dll
 0000:fffcf000       .debug$S                   10000000     user32:USER32.dll
 0000:fffcf000       .debug$S                   10000000     user32:USER32.dll
 0000:fffcf000       .debug$S                   10000000     user32:USER32.dll
 0000:fffcf000       .debug$S                   10000000     user32:USER32.dll
 0000:fffcf000       .debug$S                   10000000     user32:USER32.dll
 0000:fffcf000       .debug$S                   10000000     user32:USER32.dll
 0000:fffcf000       .debug$S                   10000000     user32:USER32.dll
 0000:fffcf000       .debug$S                   10000000     user32:USER32.dll
 0000:fffcf000       .debug$S                   10000000     gdi32:GDI32.dll
 0000:fffcf000       .debug$S                   10000000     gdi32:GDI32.dll
 0000:fffcf000       .debug$S                   10000000     gdi32:GDI32.dll
 0000:fffcf000       .debug$S                   10000000     gdi32:GDI32.dll
 0000:fffcf000       .debug$S                   10000000     gdi32:GDI32.dll
 0000:fffcf000       .debug$S                   10000000     gdi32:GDI32.dll
 0000:fffcf000       .debug$S                   10000000     gdi32:GDI32.dll
 0000:fffcf000       .debug$S                   10000000     gdi32:GDI32.dll
 0000:fffcf000       .debug$S                   10000000     gdi32:GDI32.dll
 0000:fffcf000       .debug$S                   10000000     gdi32:GDI32.dll
 0000:fffcf000       .debug$S                   10000000     gdi32:GDI32.dll
 0000:fffcf000       .debug$S                   10000000     gdi32:GDI32.dll
 0000:fffcf000       .debug$S                   10000000     gdi32:GDI32.dll
 0000:fffcf000       .debug$S                   10000000     gdi32:GDI32.dll
 0000:fffcf000       .debug$S                   10000000     gdi32:GDI32.dll
 0000:fffcf000       .debug$S                   10000000     gdi32:GDI32.dll
 0000:fffcf000       .debug$S                   10000000     gdi32:GDI32.dll
 0000:fffcf000       .debug$S                   10000000     gdi32:GDI32.dll
 0000:fffcf000       .debug$S                   10000000     gdi32:GDI32.dll
 0000:fffcf000       .debug$S                   10000000     advapi32:ADVAPI32.dll
 0000:fffcf000       .debug$S                   10000000     advapi32:ADVAPI32.dll
 0000:fffcf000       .debug$S                   10000000     advapi32:ADVAPI32.dll
 0000:fffcf000       .debug$S                   10000000     advapi32:ADVAPI32.dll
 0000:fffcf000       .debug$S                   10000000     advapi32:ADVAPI32.dll
 0000:fffcf000       .debug$S                   10000000     advapi32:ADVAPI32.dll
 0000:fffcf000       .debug$S                   10000000     advapi32:ADVAPI32.dll
 0000:fffcf000       .debug$S                   10000000     advapi32:ADVAPI32.dll
 0000:fffcf000       .debug$S                   10000000     advapi32:ADVAPI32.dll
 0000:fffcf000       .debug$S                   10000000     ole32:ole32.dll
 0000:fffcf000       .debug$S                   10000000     ole32:ole32.dll
 0000:fffcf000       .debug$S                   10000000     ole32:ole32.dll
 0000:fffcf000       .debug$S                   10000000     ole32:ole32.dll
 0000:fffcf000       .debug$S                   10000000     ole32:ole32.dll
 0000:fffcf000       .debug$S                   10000000     ole32:ole32.dll
 0000:fffcf000       .debug$S                   10000000     ole32:ole32.dll
 0000:fffcf000       .debug$S                   10000000     ole32:ole32.dll
 0000:fffcf000       .debug$S                   10000000     ole32:ole32.dll
 0001:00000000       ??__E_AtlComModule@ATL@@YAXXZ 10001000 f   OposVariant.obj
 0001:00000016       ??__E_AtlWinModule@ATL@@YAXXZ 10001016 f   OposVariant.obj
 0001:0000002c       ??__E?pConnMap@?$IConnectionPointContainerImpl@VCOPOSImageScanner@@@ATL@@0PBU_ATL_CONNMAP_ENTRY@2@B@@YAXXZ 1000102c f   ImageScanner.obj
 0001:0000003a       ??__E_Module@@YAXXZ        1000103a f   ImageScanner.obj
 0001:00000064       ??__E_AtlBaseModule@ATL@@YAXXZ 10001064 f   atls:atlbase.obj
 0001:00001642       $LN36                      10002642     ImageScanner.obj
 0001:00005bca       $LN50                      10006bca     ImageScanner.obj
 0001:00005be2       $LN49                      10006be2     ImageScanner.obj
 0001:00007a26       $LN37                      10008a26     ImageScanner.obj
 0001:00007a3e       $LN36                      10008a3e     ImageScanner.obj
 0001:00008ff4       $LN82                      10009ff4     ImageScanner.obj
 0001:0000900c       $LN81                      1000a00c     ImageScanner.obj
 0001:00009439       _memcpy_s                  1000a439 f   ImageScanner.obj
 0001:0000b100       ?find_pe_section@@YAPAU_IMAGE_SECTION_HEADER@@QAEI@Z 1000c100 f   LIBCMT:utility.obj
 0001:0000b41f       ?__scrt_initialize_thread_safe_statics@@YAHXZ 1000c41f f   LIBCMT:thread_safe_statics.obj
 0001:0000b446       ?__scrt_initialize_thread_safe_statics_platform_specific@@YAXXZ 1000c446 f   LIBCMT:thread_safe_statics.obj
 0001:0000b4c8       ?__scrt_uninitialize_thread_safe_statics@@YAXXZ 1000c4c8 f   LIBCMT:thread_safe_statics.obj
 0001:0000b837       __catch$??2@YAPAXIABUnothrow_t@std@@@Z$0 1000c837 f   LIBCMT:new_scalar_nothrow.obj
 0001:0000b870       $$000000                   1000c870     LIBCMT:sehprolg4gs.obj
 0001:0000b8d0       $$000000                   1000c8d0     LIBCMT:alloca16.obj
 0001:0000b900       $$000000                   1000c900     LIBCMT:chkstk.obj
 0001:0000b92d       ?dllmain_crt_dispatch@@YGHQAUHINSTANCE__@@KQAX@Z 1000c92d f   LIBCMT:dll_dllmain.obj
 0001:0000b980       ?dllmain_crt_process_attach@@YAHQAUHINSTANCE__@@QAX@Z 1000c980 f   LIBCMT:dll_dllmain.obj
 0001:0000ba87       ?dllmain_crt_process_detach@@YAH_N@Z 1000ca87 f   LIBCMT:dll_dllmain.obj
 0001:0000bb17       ?dllmain_dispatch@@YAHQAUHINSTANCE__@@KQAX@Z 1000cb17 f   LIBCMT:dll_dllmain.obj
 0001:0000bc1d       ?dllmain_raw@@YGHQAUHINSTANCE__@@KQAX@Z 1000cc1d f   LIBCMT:dll_dllmain.obj
 0001:0000bf60       $$000000                   1000cf60     LIBCMT:sehprolg4.obj
 0001:0000bfbc       ___get_entropy             1000cfbc f   LIBCMT:gs_support.obj
 0001:0000c2b3       ??$GetProcAddressAll@P6GP6GJPAUHWND__@@IIJ@ZPAUAtlThunkData_t@@@Z@@YAP6GP6GJPAUHWND__@@IIJ@ZPAUAtlThunkData_t@@@ZPAP6GP6GJ0IIJ@Z1@Z@Z 1000d2b3 f   atls:atlthunk.obj
 0001:0000c2b3       ??$GetProcAddressAll@P6GPAUAtlThunkData_t@@XZ@@YAP6GPAUAtlThunkData_t@@XZPAP6GPAU0@XZ@Z 1000d2b3 f   atls:atlthunk.obj
 0001:0000c2b3       ??$GetProcAddressAll@P6GXPAUAtlThunkData_t@@PAXI@Z@@YAP6GXPAUAtlThunkData_t@@PAXI@ZPAP6GX01I@Z@Z 1000d2b3 f   atls:atlthunk.obj
 0001:0000c2b3       ??$GetProcAddressAll@P6GXPAUAtlThunkData_t@@@Z@@YAP6GXPAUAtlThunkData_t@@@ZPAP6GX0@Z@Z 1000d2b3 f   atls:atlthunk.obj
 0001:0000c363       ?GetProcAddressSingle@@YA_NPAUHINSTANCE__@@PBDPAPAX@Z 1000d363 f   atls:atlthunk.obj
 0001:0000c4b5       ?__InitializeThunkPool@@YAHXZ 1000d4b5 f   atls:atlthunk.obj
 0001:0000c910       _ValidateLocalCookies      1000d910 f   libvcruntime:chandler4.obj
 0001:0000d9d2       $LN1241                    1000e9d2     libvcruntime:memcmp.obj
 0001:0000da60       $$000000                   1000ea60     libvcruntime:memcpy.obj
 0001:0000dcc4       TrailingUpVec              1000ecc4     libvcruntime:memcpy.obj
 0001:0000dd70       TrailingDownVec            1000ed70     libvcruntime:memcpy.obj
 0001:0000dfe0       $$000000                   1000efe0     libvcruntime:memset.obj
 0001:0000e690       $$000000                   1000f690     libvcruntime:memmove.obj
 0001:0000e8f4       TrailingUpVec              1000f8f4     libvcruntime:memmove.obj
 0001:0000e9a0       TrailingDownVec            1000f9a0     libvcruntime:memmove.obj
 0001:0000ec10       $$000000                   1000fc10     libvcruntime:exsup4.obj
 0001:0000eca0       __unwind_handler4          1000fca0 f   libvcruntime:exsup4.obj
 0001:0000ef7f       ??$BuildCatchObjectHelperInternal@V__FrameHandler3@@@@YAHPAUEHExceptionRecord@@PAXPBU_s_HandlerType@@PBU_s_CatchableType@@@Z 1000ff7f f   libvcruntime:frame.obj
 0001:0000f0bd       ??$BuildCatchObjectInternal@V__FrameHandler3@@@@YAXPAUEHExceptionRecord@@PAXPBU_s_HandlerType@@PBU_s_CatchableType@@@Z 100100bd f   libvcruntime:frame.obj
 0001:0000f156       ??$CatchIt@V__FrameHandler3@@@@YAXPAUEHExceptionRecord@@PAUEHRegistrationNode@@PAU_CONTEXT@@PAXPBU_s_FuncInfo@@PBU_s_HandlerType@@PBU_s_CatchableType@@PBU_s_TryBlockMapEntry@@H1EE@Z 10010156 f   libvcruntime:frame.obj
 0001:0000f1d6       ??$FindHandler@V__FrameHandler3@@@@YAXPAUEHExceptionRecord@@PAUEHRegistrationNode@@PAU_CONTEXT@@PAXPBU_s_FuncInfo@@EH1@Z 100101d6 f   libvcruntime:frame.obj
 0001:0000f575       ??$FindHandlerForForeignException@V__FrameHandler3@@@@YAXPAUEHExceptionRecord@@PAUEHRegistrationNode@@PAU_CONTEXT@@PAXPBU_s_FuncInfo@@HH1@Z 10010575 f   libvcruntime:frame.obj
 0001:0000f88d       ?CallCatchBlock@@YAPAXPAUEHExceptionRecord@@PAUEHRegistrationNode@@PAU_CONTEXT@@PBU_s_FuncInfo@@PAXHK@Z 1001088d f   libvcruntime:frame.obj
 0001:0000fa51       ?CallUnexpected@@YAXPBU_s_ESTypeList@@@Z 10010a51 f   libvcruntime:frame.obj
 0001:0000fa71       __catch$?CallUnexpected@@YAXPBU_s_ESTypeList@@@Z$0 10010a71 f   libvcruntime:frame.obj
 0001:0000fa8b       ?ExFilterRethrow@@YAHPAU_EXCEPTION_POINTERS@@@Z 10010a8b f   libvcruntime:frame.obj
 0001:0000fbd5       ?IsInExceptionSpec@@YAEPAUEHExceptionRecord@@PBU_s_ESTypeList@@@Z 10010bd5 f   libvcruntime:frame.obj
 0001:0000fca0       $$000000                   10010ca0     libvcruntime:lowhelpr.obj
 0001:0000fcf0       $$000000                   10010cf0     libvcruntime:exsup.obj
 0001:0000fd11       __unwind_handler           10010d11 f   libvcruntime:exsup.obj
 0001:0000fe2e       ?try_get_first_available_module@@YAPAUHINSTANCE__@@QBW4module_id@?A0x09dcfcb8@@0@Z 10010e2e f   libvcruntime:winapi_downlevel.obj
 0001:0000feda       ?try_get_function@@YAPAXW4function_id@?A0x09dcfcb8@@QBDQBW4module_id@2@2@Z 10010eda f   libvcruntime:winapi_downlevel.obj
 0001:000106a1       ??$common_tcsncpy_s@_W@@YAHQA_WIQB_WI@Z 100116a1 f   libucrt:wcsncpy_s.obj
 0001:00010777       ??$common_vsprintf@Vformat_validation_base@__crt_stdio_output@@_W@@YAH_KQA_WIQB_WQAU__crt_locale_pointers@@QAD@Z 10011777 f   libucrt:output.obj
 0001:000108fe       ??$common_vsprintf_s@_W@@YAH_KQA_WIQB_WQAU__crt_locale_pointers@@QAD@Z 100118fe f   libucrt:output.obj
 0001:0001102d       $LN51                      1001202d     libucrt:output.obj
 0001:00011528       $LN20                      10012528     libucrt:output.obj
 0001:0001153c       $LN17                      1001253c     libucrt:output.obj
 0001:00011d9b       ??$?RV<lambda_03b1d95aef87969028cfba75ccab2455>@@AAV<lambda_6e4b09c48022b2350581041d5f6b0c4c>@@V<lambda_22bdf7517842c4b3e53723af5aa32b9e>@@@?$__crt_seh_guarded_call@X@@QAEX$$QAV<lambda_03b1d95aef87969028cfba75ccab2455>@@AAV<lambda_6e4b09c48022b2350581041d5f6b0c4c>@@$$QAV<lambda_22bdf7517842c4b3e53723af5aa32b9e>@@@Z 10012d9b f   libucrt:exit.obj
 0001:00011de8       ??R<lambda_6e4b09c48022b2350581041d5f6b0c4c>@@QBE@XZ 10012de8 f   libucrt:exit.obj
 0001:00011ec2       ?atexit_exception_filter@@YAHK@Z 10012ec2 f   libucrt:exit.obj
 0001:00011ed5       ?common_exit@@YAXHW4_crt_exit_cleanup_mode@@W4_crt_exit_return_mode@@@Z 10012ed5 f   libucrt:exit.obj
 0001:00011f39       ?exit_or_terminate_process@@YAXI@Z 10012f39 f   libucrt:exit.obj
 0001:00011f7b       ?is_managed_app@@YA_NXZ    10012f7b f   libucrt:exit.obj
 0001:00011fbe       ?try_cor_exit_process@@YAXI@Z 10012fbe f   libucrt:exit.obj
 0001:0001204c       ??$common_configure_argv@D@@YAHW4_crt_argv_mode@@@Z 1001304c f   libucrt:argv_parsing.obj
 0001:00012182       ??$parse_command_line@D@@YAXPADPAPAD0PAI2@Z 10013182 f   libucrt:argv_parsing.obj
 0001:00012353       ??$common_initialize_environment_nolock@D@@YAHXZ 10013353 f   libucrt:environment_initialization.obj
 0001:000123a6       ??$create_environment@D@@YAQAPADQAD@Z 100133a6 f   libucrt:environment_initialization.obj
 0001:00012476       ??$free_environment@_W@@YAXQAPA_W@Z 10013476 f   libucrt:environment_initialization.obj
 0001:00012476       ??$free_environment@D@@YAXQAPAD@Z 10013476 f   libucrt:environment_initialization.obj
 0001:000124ce       ??$uninitialize_environment_internal@D@@YAXAAPAPAD@Z 100134ce f   libucrt:environment_initialization.obj
 0001:000124e9       ??$uninitialize_environment_internal@_W@@YAXAAPAPA_W@Z 100134e9 f   libucrt:environment_initialization.obj
 0001:00012540       ??$?RV<lambda_69a2805e680e0e292e8ba93315fe43a8>@@AAV<lambda_f03950bc5685219e0bcd2087efbe011e>@@V<lambda_03fcd07e894ec930e3f35da366ca99d6>@@@?$__crt_seh_guarded_call@H@@QAEH$$QAV<lambda_69a2805e680e0e292e8ba93315fe43a8>@@AAV<lambda_f03950bc5685219e0bcd2087efbe011e>@@$$QAV<lambda_03fcd07e894ec930e3f35da366ca99d6>@@@Z 10013540 f   libucrt:onexit.obj
 0001:0001259b       ??$?RV<lambda_8e746cf0007f6ed984d6f78af1fec997>@@AAV<lambda_22ebabd17bc4fa466a2aca6d8deb888d>@@V<lambda_18ed0c0b38a6dc0daf1e7ac6d6adf05e>@@@?$__crt_seh_guarded_call@H@@QAEH$$QAV<lambda_8e746cf0007f6ed984d6f78af1fec997>@@AAV<lambda_22ebabd17bc4fa466a2aca6d8deb888d>@@$$QAV<lambda_18ed0c0b38a6dc0daf1e7ac6d6adf05e>@@@Z 1001359b f   libucrt:onexit.obj
 0001:00012615       ??R<lambda_22ebabd17bc4fa466a2aca6d8deb888d>@@QBEHXZ 10013615 f   libucrt:onexit.obj
 0001:0001273e       ??R<lambda_f03950bc5685219e0bcd2087efbe011e>@@QBEHXZ 1001373e f   libucrt:onexit.obj
 0001:000128b7       _report_memory_leaks       100138b7 f   libucrt:initialization.obj
 0001:000128b7       _uninitialize_c            100138b7 f   libucrt:initialization.obj
 0001:000128b7       _initialize_environment    100138b7 f   libucrt:initialization.obj
 0001:000128b7       _initialize_global_state_isolation 100138b7 f   libucrt:initialization.obj
 0001:000128b7       _uninitialize_global_state_isolation 100138b7 f   libucrt:initialization.obj
 0001:000128ba       _initialize_global_variables 100138ba f   libucrt:initialization.obj
 0001:000128c7       _initialize_c              100138c7 f   libucrt:initialization.obj
 0001:000128e1       _uninitialize_environment  100138e1 f   libucrt:initialization.obj
 0001:000128e9       _initialize_pointers       100138e9 f   libucrt:initialization.obj
 0001:00012917       _uninitialize_vcruntime    10013917 f   libucrt:initialization.obj
 0001:00012920       _uninitialize_allocated_memory 10013920 f   libucrt:initialization.obj
 0001:00012937       _uninitialize_allocated_io_buffers 10013937 f   libucrt:initialization.obj
 0001:00012987       ??R<lambda_af42a3ee9806e9a7305d451646e05244>@@QBEXAAPAU__crt_multibyte_data@@@Z 10013987 f   libucrt:initialization.obj
 0001:00013270       $$000000                   10014270     libucrt:strncmp.obj
 0001:0001335c       ??$?RV<lambda_15ade71b0218206bbe3333a0c9b79046>@@AAV<lambda_da44e0f8b0f19ba52fefafb335991732>@@V<lambda_207f2d024fc103971653565357d6cd41>@@@?$__crt_seh_guarded_call@X@@QAEX$$QAV<lambda_15ade71b0218206bbe3333a0c9b79046>@@AAV<lambda_da44e0f8b0f19ba52fefafb335991732>@@$$QAV<lambda_207f2d024fc103971653565357d6cd41>@@@Z 1001435c f   libucrt:per_thread_data.obj
 0001:000133ae       ??$?RV<lambda_38edbb1296d33220d7e4dd0ed76b244a>@@AAV<lambda_5ce1d447e08cb34b2473517608e21441>@@V<lambda_fb385d3da700c9147fc39e65dd577a8c>@@@?$__crt_seh_guarded_call@X@@QAEX$$QAV<lambda_38edbb1296d33220d7e4dd0ed76b244a>@@AAV<lambda_5ce1d447e08cb34b2473517608e21441>@@$$QAV<lambda_fb385d3da700c9147fc39e65dd577a8c>@@@Z 100143ae f   libucrt:per_thread_data.obj
 0001:00013419       ??$?RV<lambda_6affb1475c98b40b75cdec977db92e3c>@@AAV<lambda_b8d4b9c228a6ecc3f80208dbb4b4a104>@@V<lambda_608742c3c92a14382c1684fc64f96c88>@@@?$__crt_seh_guarded_call@X@@QAEX$$QAV<lambda_6affb1475c98b40b75cdec977db92e3c>@@AAV<lambda_b8d4b9c228a6ecc3f80208dbb4b4a104>@@$$QAV<lambda_608742c3c92a14382c1684fc64f96c88>@@@Z 10014419 f   libucrt:per_thread_data.obj
 0001:0001346e       ??$?RV<lambda_a7e850c220f1c8d1e6efeecdedd162c6>@@AAV<lambda_46720907175c18b6c9d2717bc0d2d362>@@V<lambda_9048902d66e8d99359bc9897bbb930a8>@@@?$__crt_seh_guarded_call@X@@QAEX$$QAV<lambda_a7e850c220f1c8d1e6efeecdedd162c6>@@AAV<lambda_46720907175c18b6c9d2717bc0d2d362>@@$$QAV<lambda_9048902d66e8d99359bc9897bbb930a8>@@@Z 1001446e f   libucrt:per_thread_data.obj
 0001:000134c8       ?construct_ptd@@YAXQAU__acrt_ptd@@QAPAU__crt_locale_data@@@Z 100144c8 f   libucrt:per_thread_data.obj
 0001:00013561       ?destroy_fls@@YGXPAX@Z     10014561 f   libucrt:per_thread_data.obj
 0001:00013582       ?destroy_ptd@@YAXQAU__acrt_ptd@@@Z 10014582 f   libucrt:per_thread_data.obj
 0001:0001364f       ?replace_current_thread_locale_nolock@@YAXQAU__acrt_ptd@@QAU__crt_locale_data@@@Z 1001464f f   libucrt:per_thread_data.obj
 0001:00013a5f       ?try_get_AreFileApisANSI@@YAP6GHXZXZ 10014a5f f   libucrt:winapi_thunks.obj
 0001:00013a79       ?try_get_LCMapStringEx@@YAP6GHPB_WK0HPA_WHPAU_nlsversioninfo@@PAXJ@ZXZ 10014a79 f   libucrt:winapi_thunks.obj
 0001:00013a93       ?try_get_LocaleNameToLCID@@YAP6GKPB_WK@ZXZ 10014a93 f   libucrt:winapi_thunks.obj
 0001:00013aad       ?try_get_first_available_module@@YAPAUHINSTANCE__@@QBW4module_id@?A0x391cf84c@@0@Z 10014aad f   libucrt:winapi_thunks.obj
 0001:00013b74       ?try_get_function@@YAPAXW4function_id@?A0x391cf84c@@QBDQBW4module_id@2@2@Z 10014b74 f   libucrt:winapi_thunks.obj
 0001:000142d7       ?fp_format_a@@YAHQBNPADIQADIH_NIQAU__crt_locale_pointers@@@Z 100152d7 f   libucrt:cvt.obj
 0001:000145f0       ?fp_format_e@@YAHQBNQADI1IH_NIQAU__crt_locale_pointers@@@Z 100155f0 f   libucrt:cvt.obj
 0001:00014692       ?fp_format_e_internal@@YAHQADIH_NIQAU_strflt@@1QAU__crt_locale_pointers@@@Z 10015692 f   libucrt:cvt.obj
 0001:000147da       ?fp_format_f@@YAHQBNQADI1IHQAU__crt_locale_pointers@@@Z 100157da f   libucrt:cvt.obj
 0001:00014865       ?fp_format_f_internal@@YAHQADIHQAU_strflt@@_NQAU__crt_locale_pointers@@@Z 10015865 f   libucrt:cvt.obj
 0001:00014936       ?fp_format_g@@YAHQBNQADI1IH_NIQAU__crt_locale_pointers@@@Z 10015936 f   libucrt:cvt.obj
 0001:000149f7       ?fp_format_nan_or_infinity@@YAHW4__acrt_fp_class@@_NPADI1@Z 100159f7 f   libucrt:cvt.obj
 0001:00014a8c       ?shift_bytes@@YAXQADI0H@Z  10015a8c f   libucrt:cvt.obj
 0001:00014d73       ??$?RV<lambda_e5124f882df8998aaf41531e079ba474>@@AAV<lambda_3e16ef9562a7dcce91392c22ab16ea36>@@V<lambda_e25ca0880e6ef98be67edffd8c599615>@@@?$__crt_seh_guarded_call@X@@QAEX$$QAV<lambda_e5124f882df8998aaf41531e079ba474>@@AAV<lambda_3e16ef9562a7dcce91392c22ab16ea36>@@$$QAV<lambda_e25ca0880e6ef98be67edffd8c599615>@@@Z 10015d73 f   libucrt:wsetlocale.obj
 0001:00014e13       ?initialize_inherited_file_handles_nolock@@YAXXZ 10015e13 f   libucrt:ioinit.obj
 0001:00014ec9       ?initialize_stdio_handles_nolock@@YAXXZ 10015ec9 f   libucrt:ioinit.obj
 0001:000150da       ?<lambda_invoker_cdecl>@<lambda_838c7f62c73c983481e27c09e84b0b5d>@@CAHPBX0@Z 100160da f   libucrt:argv_wildcards.obj
 0001:000150f2       ??$__acrt_convert_wcs_mbs_cp@D_WV<lambda_62f6974d9771e494a5ea317cc32e971c>@@U__crt_win32_buffer_internal_dynamic_resizing@@@@YAHQBDAAV?$__crt_win32_buffer@_WU__crt_win32_buffer_internal_dynamic_resizing@@@@ABV<lambda_62f6974d9771e494a5ea317cc32e971c>@@I@Z 100160f2 f   libucrt:argv_wildcards.obj
 0001:000151a4       ??$__acrt_convert_wcs_mbs_cp@_WDV<lambda_28bda7af82a03b66c1cb3803a755f95d>@@U__crt_win32_buffer_internal_dynamic_resizing@@@@YAHQB_WAAV?$__crt_win32_buffer@DU__crt_win32_buffer_internal_dynamic_resizing@@@@ABV<lambda_28bda7af82a03b66c1cb3803a755f95d>@@I@Z 100161a4 f   libucrt:argv_wildcards.obj
 0001:00015290       ??$common_expand_argv_wildcards@D@@YAHQAPADQAPAPAD@Z 10016290 f   libucrt:argv_wildcards.obj
 0001:0001547f       ??$copy_and_add_argument_to_buffer@D@@YAHQBD0IAAV?$argument_list@D@?A0x5f5c8891@@@Z 1001647f f   libucrt:argv_wildcards.obj
 0001:00015530       ??$expand_argument_wildcards@D@@YAHQAD0AAV?$argument_list@D@?A0x5f5c8891@@@Z 10016530 f   libucrt:argv_wildcards.obj
 0001:0001587a       ?expand_if_necessary@?$argument_list@D@?A0x5f5c8891@@AAEHXZ 1001687a f   libucrt:argv_wildcards.obj
 0001:0001590c       ??$__acrt_convert_wcs_mbs_cp@_WDV<lambda_0fec1a7b3f42a53036604e18c2d5e07e>@@U__crt_win32_buffer_no_resizing@@@@YAHQB_WAAV?$__crt_win32_buffer@DU__crt_win32_buffer_no_resizing@@@@ABV<lambda_0fec1a7b3f42a53036604e18c2d5e07e>@@I@Z 1001690c f   libucrt:getmodulefilenamea.obj
 0001:00015aaf       ??$?RV<lambda_ceb1ee4838e85a9d631eb091e2fbe199>@@AAV<lambda_ae742caa10f662c28703da3d2ea5e57e>@@V<lambda_cd08b5d6af4937fe54fc07d0c9bf6b37>@@@?$__crt_seh_guarded_call@X@@QAEX$$QAV<lambda_ceb1ee4838e85a9d631eb091e2fbe199>@@AAV<lambda_ae742caa10f662c28703da3d2ea5e57e>@@$$QAV<lambda_cd08b5d6af4937fe54fc07d0c9bf6b37>@@@Z 10016aaf f   libucrt:mbctype.obj
 0001:00015afc       ??R<lambda_ae742caa10f662c28703da3d2ea5e57e>@@QBEXXZ 10016afc f   libucrt:mbctype.obj
 0001:00015b7f       ?CPtoLocaleName@@YAPB_WH@Z 10016b7f f   libucrt:mbctype.obj
 0001:00015bbd       ?getSystemCP@@YAHH@Z       10016bbd f   libucrt:mbctype.obj
 0001:00015c2e       ?setSBCS@@YAXPAU__crt_multibyte_data@@@Z 10016c2e f   libucrt:mbctype.obj
 0001:00015c93       ?setSBUpLow@@YAXPAU__crt_multibyte_data@@@Z 10016c93 f   libucrt:mbctype.obj
 0001:00015e14       ?setmbcp_internal@@YAHH_NQAU__acrt_ptd@@QAPAU__crt_multibyte_data@@@Z 10016e14 f   libucrt:mbctype.obj
 0001:00015f2d       ?update_thread_multibyte_data_internal@@YAPAU__crt_multibyte_data@@QAU__acrt_ptd@@QAPAU1@@Z 10016f2d f   libucrt:mbctype.obj
 0001:0001621b       _memcpy_s                  1001721b f   libucrt:cfout.obj
 0001:0001621b       _memcpy_s                  1001721b f   libucrt:mbctype.obj
 0001:0001629c       ?x_ismbbtype_l@@YAHPAU__crt_locale_pointers@@IHH@Z 1001729c f   libucrt:ismbbyte.obj
 0001:0001644d       ?find_end_of_double_null_terminated_sequence@@YAPB_WQB_W@Z 1001744d f   libucrt:get_environment_from_os.obj
 0001:000165bc       ??$?RV<lambda_cbab9ec6f41b0180b23cc171c22676b0>@@AAV<lambda_44731a7d0e6d81c3e6aa82d741081786>@@V<lambda_4b292cb8dd18144e164572427af410ab>@@@?$__crt_seh_guarded_call@P6AXH@Z@@QAEP6AXH@Z$$QAV<lambda_cbab9ec6f41b0180b23cc171c22676b0>@@AAV<lambda_44731a7d0e6d81c3e6aa82d741081786>@@$$QAV<lambda_4b292cb8dd18144e164572427af410ab>@@@Z 100175bc f   libucrt:signal.obj
 0001:00016620       ?get_global_action_nolock@@YAPAP6AXH@ZH@Z 10017620 f   libucrt:signal.obj
 0001:00016662       ?siglookup@@YAPAU__crt_signal_action_t@@HQAU1@@Z 10017662 f   libucrt:signal.obj
 0001:0001692c       ??$?RV<lambda_2866be3712abc81a800a822484c830d8>@@AAV<lambda_39ca0ed439415581b5b15c265174cece>@@V<lambda_2b24c74d71094a6cd0cb82e44167d71b>@@@?$__crt_seh_guarded_call@X@@QAEX$$QAV<lambda_2866be3712abc81a800a822484c830d8>@@AAV<lambda_39ca0ed439415581b5b15c265174cece>@@$$QAV<lambda_2b24c74d71094a6cd0cb82e44167d71b>@@@Z 1001792c f   libucrt:fflush.obj
 0001:000169b8       ??$?RV<lambda_2cc53f568c5a2bb6f192f930a45d44ea>@@AAV<lambda_ab61a845afdef5b7c387490eaf3616ee>@@V<lambda_c2ffc0b7726aa6be21d5f0026187e748>@@@?$__crt_seh_guarded_call@X@@QAEX$$QAV<lambda_2cc53f568c5a2bb6f192f930a45d44ea>@@AAV<lambda_ab61a845afdef5b7c387490eaf3616ee>@@$$QAV<lambda_c2ffc0b7726aa6be21d5f0026187e748>@@@Z 100179b8 f   libucrt:fflush.obj
 0001:00016a64       ?common_flush_all@@YAH_N@Z 10017a64 f   libucrt:fflush.obj
 0001:00016ab1       ?common_flush_all_should_try_to_flush_stream@@YA_NV__crt_stdio_stream@@QAH@Z 10017ab1 f   libucrt:fflush.obj
 0001:00016ae4       ?is_stream_flushable_or_commitable@@YA_NJ@Z 10017ae4 f   libucrt:fflush.obj
 0001:00016fed       ?GetTableIndexFromLocaleName@@YAHPB_W@Z 10017fed f   libucrt:lcidtoname_downlevel.obj
 0001:000170a3       ??R<lambda_3d301b9e52f5099be73030e1f0bf487e>@@QBEIPBD@Z 100180a3 f   libucrt:mbrtowc.obj
 0001:00018d7a       ?free_crt_array_internal@@YAXQAPBXI@Z 10019d7a f   libucrt:inittime.obj
 0001:00019250       ?swap@@YAXPAD0I@Z          1001a250 f   libucrt:qsort.obj
 0001:000196d4       ??$common_tcsncpy_s@D@@YAHQADIQBDI@Z 1001a6d4 f   libucrt:strncpy_s.obj
 0001:000197a0       $$000000                   1001a7a0     libucrt:strpbrk.obj
 0001:00019884       ?__acrt_LCMapStringA_stat@@YAHPAU__crt_locale_pointers@@PB_WKPBDHPADHHH@Z 1001a884 f   libucrt:lcmapstringa.obj
 0001:00019ab7       ?initialize_multibyte@@YAHXZ 1001aab7 f   libucrt:multibyte_initializer.obj
 0001:00019ac6       ??$?RV<lambda_9e9de3de5fa147e2223d7db92bc10aa6>@@AAV<lambda_38ce7e780aa69e748d6df282ebc68efe>@@V<lambda_8ca6da459f0f6780f1cff60fdc3d00e5>@@@?$__crt_seh_guarded_call@H@@QAEH$$QAV<lambda_9e9de3de5fa147e2223d7db92bc10aa6>@@AAV<lambda_38ce7e780aa69e748d6df282ebc68efe>@@$$QAV<lambda_8ca6da459f0f6780f1cff60fdc3d00e5>@@@Z 1001aac6 f   libucrt:commit.obj
 0001:00019be5       ?write_double_translated_ansi_nolock@@YA?AUwrite_result@?A0x17268360@@HQBDI@Z 1001abe5 f   libucrt:write.obj
 0001:00019f8f       ?write_double_translated_unicode_nolock@@YA?AUwrite_result@?A0x17268360@@QBDI@Z 1001af8f f   libucrt:write.obj
 0001:00019ff7       ?write_requires_double_translation_nolock@@YA_NH@Z 1001aff7 f   libucrt:write.obj
 0001:0001a068       ?write_text_ansi_nolock@@YA?AUwrite_result@?A0x17268360@@HQBDI@Z 1001b068 f   libucrt:write.obj
 0001:0001a143       ?write_text_utf16le_nolock@@YA?AUwrite_result@?A0x17268360@@HQBDI@Z 1001b143 f   libucrt:write.obj
 0001:0001a22c       ?write_text_utf8_nolock@@YA?AUwrite_result@?A0x17268360@@HQBDI@Z 1001b22c f   libucrt:write.obj
 0001:0001a900       $$000000                   1001b900     libucrt:log10_impl.obj
 0001:0001aa10       $$000000                   1001ba10     libucrt:ceil_pentium4.obj
 0001:0001ab2d       ??$common_lseek_nolock@_J@@YA_JH_JH@Z 1001bb2d f   libucrt:lseek.obj
 0001:0001ad13       ?to_abstract_control@@YA?AW4__acrt_fenv_abstract_control@@W4__acrt_fenv_machine_sse_control@@@Z 1001bd13 f   libucrt:_fenvutils.obj
 0001:0001adcf       ?to_abstract_control@@YA?AW4__acrt_fenv_abstract_control@@W4__acrt_fenv_machine_x87_control@@@Z 1001bdcf f   libucrt:_fenvutils.obj
 0001:0001ae88       ?to_machine_sse_control@@YA?AW4__acrt_fenv_machine_sse_control@@W4__acrt_fenv_abstract_control@@@Z 1001be88 f   libucrt:_fenvutils.obj
 0001:0001af55       ?to_machine_x87_control@@YA?AW4__acrt_fenv_machine_x87_control@@W4__acrt_fenv_abstract_control@@@Z 1001bf55 f   libucrt:_fenvutils.obj
 0001:0001b3b0       $$000000                   1001c3b0     libucrt:log10_pentium4.obj
 0001:0001b640       $$000000                   1001c640     libucrt:87tran.obj
 0001:0001b850       $$000000                   1001c850     libucrt:87disp.obj
 0001:0001bab0       $$000000                   1001cab0     libucrt:common.obj
 0001:0001bc40       $$000000                   1001cc40     libucrt:genexcep.obj
 0001:0001bf3c       ??$?RV<lambda_218ce3db14220d0be481dae8ef3383b6>@@AAV<lambda_628dfdc04ba53c8bfc02c9951375f3f5>@@V<lambda_57dc472bd5c9d5f3b2cbca59b8a843ae>@@@?$__crt_seh_guarded_call@H@@QAEH$$QAV<lambda_218ce3db14220d0be481dae8ef3383b6>@@AAV<lambda_628dfdc04ba53c8bfc02c9951375f3f5>@@$$QAV<lambda_57dc472bd5c9d5f3b2cbca59b8a843ae>@@@Z 1001cf3c f   libucrt:close.obj
 0001:0001c130       $$000000                   1001d130     libucrt:_strnicm.obj
 0001:0001c191       ?__dcrt_lowio_initialize_console_output@@YAXXZ 1001d191 f   libucrt:initcon.obj
 0001:0001cff0       $$000000                   1001dff0     LIBCMT:ulldvrm.obj
 0001:0001d090       $$000000                   1001e090     LIBCMT:llmul.obj
 0001:0001d0d0       $$000000                   1001e0d0     LIBCMT:lldvrm.obj
 0001:0001d1b0       $$000000                   1001e1b0     LIBCMT:ullshr.obj
 0001:0001d1d0       $$000000                   1001e1d0     LIBCMT:llshl.obj
 0001:0001d1f0       $$000000                   1001e1f0     LIBCMT:ftol2.obj
 0001:0001d2b0       $$000000                   1001e2b0     libvcruntime:strrchr.obj
 0001:0001d3f0       $$000000                   1001e3f0     libvcruntime:strchr.obj
 0001:0001d593       __ehhandler$??2@YAPAXIABUnothrow_t@std@@@Z 1001e593 f   LIBCMT:new_scalar_nothrow.obj
 0001:0001d5ae       __ehhandler$?CallUnexpected@@YAXPBU_s_ESTypeList@@@Z 1001e5ae f   libvcruntime:frame.obj
 0001:0001d5c9       ??__F_AtlComModule@ATL@@YAXXZ 1001e5c9 f   OposVariant.obj
 0001:0001d5d3       ??__F_AtlWinModule@ATL@@YAXXZ 1001e5d3 f   OposVariant.obj
 0001:0001d5ed       ??__F_Module@@YAXXZ        1001e5ed f   ImageScanner.obj
 0001:0001d601       ??__F_AtlBaseModule@ATL@@YAXXZ 1001e601 f   atls:atlbase.obj
 0002:00000304       ?_AtlBaseModule$initializer$@ATL@@3P6AXXZA 1001f304     atls:atlbase.obj
 0002:00000308       ?_AtlComModule$initializer$@ATL@@3P6AXXZA 1001f308     OposVariant.obj
 0002:0000030c       ?_AtlWinModule$initializer$@ATL@@3P6AXXZA 1001f30c     OposVariant.obj
 0002:00000310       ?_Module$initializer$@@3P6AXXZA 1001f310     ImageScanner.obj
 0002:00000314       ??pConnMap$initializer$@?$IConnectionPointContainerImpl@VCOPOSImageScanner@@@ATL@@0P6AXXZA@@3P6AXXZA 1001f314     ImageScanner.obj
 0002:00000320       ?__scrt_initialize_tss_var@@3P6AHXZA 1001f320     LIBCMT:thread_safe_statics.obj
 0002:00001878       _GS_ExceptionPointers      10020878     LIBCMT:gs_report.obj
 0002:000019e8       ?ExceptionTemplate@?1??_CxxThrowException@@9@8@4UEHExceptionRecord@@B 100209e8     libvcruntime:throw.obj
 0002:00001a28       ?tokenTable@@3QBQBDB       10020a28     libvcruntime:undname.obj
 0002:00001a68       ?nameTable@@3QBQBDB        10020a68     libvcruntime:undname.obj
 0002:00001bb4       ?rttiTable@@3QBQBDB        10020bb4     libvcruntime:undname.obj
 0002:000021d0       ?module_names@?A0x09dcfcb8@@3QBQB_WB 100211d0     libvcruntime:winapi_downlevel.obj
 0002:00002278       ?candidate_modules@?1??try_get_FlsAlloc@@YAP6GKP6GXPAX@Z@ZXZ@4QBW4module_id@?A0x09dcfcb8@@B 10021278     libvcruntime:winapi_downlevel.obj
 0002:0000228c       ?candidate_modules@?1??try_get_FlsFree@@YAP6GHK@ZXZ@4QBW4module_id@?A0x09dcfcb8@@B 1002128c     libvcruntime:winapi_downlevel.obj
 0002:0000229c       ?candidate_modules@?1??try_get_FlsGetValue@@YAP6GPAXK@ZXZ@4QBW4module_id@?A0x09dcfcb8@@B 1002129c     libvcruntime:winapi_downlevel.obj
 0002:000022b0       ?candidate_modules@?1??try_get_FlsSetValue@@YAP6GHKPAX@ZXZ@4QBW4module_id@?A0x09dcfcb8@@B 100212b0     libvcruntime:winapi_downlevel.obj
 0002:000022c4       ?candidate_modules@?1??try_get_InitializeCriticalSectionEx@@YAP6GHPAU_RTL_CRITICAL_SECTION@@KK@ZXZ@4QBW4module_id@?A0x09dcfcb8@@B 100212c4     libvcruntime:winapi_downlevel.obj
 0002:000022f0       ?errtable@@3QBUerrentry@?A0x31fdb9ec@@B 100212f0     libucrt:errno.obj
 0002:00002598       ___acrt_initializers       10021598     libucrt:initialization.obj
 0002:00002618       ?module_names@?A0x391cf84c@@3QBQB_WB 10021618     libucrt:winapi_thunks.obj
 0002:00002a90       ?candidate_modules@?1??try_get_AreFileApisANSI@@YAP6GHXZXZ@4QBW4module_id@?A0x391cf84c@@B 10021a90     libucrt:winapi_thunks.obj
 0002:00002aa4       ?candidate_modules@?1??try_get_FlsAlloc@@YAP6GKP6GXPAX@Z@ZXZ@4QBW4module_id@?A0x391cf84c@@B 10021aa4     libucrt:winapi_thunks.obj
 0002:00002aac       ?candidate_modules@?1??try_get_FlsFree@@YAP6GHK@ZXZ@4QBW4module_id@?A0x391cf84c@@B 10021aac     libucrt:winapi_thunks.obj
 0002:00002ab4       ?candidate_modules@?1??try_get_FlsGetValue@@YAP6GPAXK@ZXZ@4QBW4module_id@?A0x391cf84c@@B 10021ab4     libucrt:winapi_thunks.obj
 0002:00002abc       ?candidate_modules@?1??try_get_FlsSetValue@@YAP6GHKPAX@ZXZ@4QBW4module_id@?A0x391cf84c@@B 10021abc     libucrt:winapi_thunks.obj
 0002:00002ac4       ?candidate_modules@?1??try_get_InitializeCriticalSectionEx@@YAP6GHPAU_RTL_CRITICAL_SECTION@@KK@ZXZ@4QBW4module_id@?A0x391cf84c@@B 10021ac4     libucrt:winapi_thunks.obj
 0002:00002acc       ?candidate_modules@?1??try_get_LCMapStringEx@@YAP6GHPB_WK0HPA_WHPAU_nlsversioninfo@@PAXJ@ZXZ@4QBW4module_id@?A0x391cf84c@@B 10021acc     libucrt:winapi_thunks.obj
 0002:00002ae4       ?candidate_modules@?1??try_get_LocaleNameToLCID@@YAP6GKPB_WK@ZXZ@4QBW4module_id@?A0x391cf84c@@B 10021ae4     libucrt:winapi_thunks.obj
 0002:00002b00       ?candidate_modules@?1??try_get_AppPolicyGetProcessTerminationMethod@@YAP6GJPAXPAW4AppPolicyProcessTerminationMethod@@@ZXZ@4QBW4module_id@?A0x391cf84c@@B 10021b00     libucrt:winapi_thunks.obj
 0002:00002b2c       ?candidate_modules@?1??try_get_SetThreadStackGuarantee@@YAP6GHPAK@ZXZ@4QBW4module_id@?A0x391cf84c@@B 10021b2c     libucrt:winapi_thunks.obj
 0002:00002b50       ?strings@?1??fp_format_nan_or_infinity@@YAHW4__acrt_fp_class@@_NPADI1@Z@4QAY03QBDA 10021b50     libucrt:cvt.obj
 0002:00003098       ?_mb_locale_names@@3QBQB_WB 10022098     libucrt:mbctype.obj
 0002:000038e0       ?LcidToLocaleNameTable@?A0x881e4c05@@3QBULcidToLocaleName@1@B 100228e0     libucrt:lcidtoname_downlevel.obj
 0002:00004a08       ?LocaleNameToIndexTable@?A0x881e4c05@@3QBULocaleNameIndex@1@B 10023a08     libucrt:lcidtoname_downlevel.obj
 0002:00006260       ?large_power_indices@?1??multiply_by_power_of_ten@__crt_strtox@@YA_NAAUbig_integer@2@I@Z@4QBUunpack_index@?1??12@YA_N0I@Z@B 10025260     libucrt:cfout.obj
 0002:00006340       LOG_name                   10025340     libucrt:log10_impl.obj
 0002:00006350       _One                       10025350     libucrt:ceil_pentium4.obj
 0002:00006360       _Bns                       10025360     libucrt:ceil_pentium4.obj
 0002:00006370       _Zero                      10025370     libucrt:ceil_pentium4.obj
 0002:00006380       _S                         10025380     libucrt:ceil_pentium4.obj
 0002:00006390       _NegZero                   10025390     libucrt:ceil_pentium4.obj
 0002:000063a0       emask                      100253a0     libucrt:log10_pentium4.obj
 0002:000063b0       CC                         100253b0     libucrt:log10_pentium4.obj
 0002:000063c0       Magic                      100253c0     libucrt:log10_pentium4.obj
 0002:000063d0       hi_mask                    100253d0     libucrt:log10_pentium4.obj
 0002:000063e0       LOG10_2                    100253e0     libucrt:log10_pentium4.obj
 0002:000063f0       place_L                    100253f0     libucrt:log10_pentium4.obj
 0002:00006410       One                        10025410     libucrt:log10_pentium4.obj
 0002:00006420       Zero                       10025420     libucrt:log10_pentium4.obj
 0002:00006430       Two52                      10025430     libucrt:log10_pentium4.obj
 0002:00006440       Infs                       10025440     libucrt:log10_pentium4.obj
 0002:00006450       NaN                        10025450     libucrt:log10_pentium4.obj
 0002:00006460       coeff                      10025460     libucrt:log10_pentium4.obj
 0002:000064be       _log2max                   100254be     libucrt:87tran.obj
 0002:000064c8       _smallarg                  100254c8     libucrt:87tran.obj
 0002:000064d2       _half                      100254d2     libucrt:87tran.obj
 0002:0000651e       One                        1002551e     libucrt:87disp.obj
 0002:00006526       Three                      10025526     libucrt:87disp.obj
 0002:0000652e       XAMtoTagTab                1002552e     libucrt:87disp.obj
 0002:00006540       One                        10025540     libucrt:common.obj
 0002:00006554       DblMax                     10025554     libucrt:common.obj
 0002:0000655c       DblMin                     1002555c     libucrt:common.obj
 0002:00006564       IeeeAdjO                   10025564     libucrt:common.obj
 0002:0000656c       IeeeAdjU                   1002556c     libucrt:common.obj
 0002:00006574       _infinity                  10025574     libucrt:common.obj
 0002:0000657c       _zero                      1002557c     libucrt:common.obj
 0002:000065c8       _over                      100255c8     libucrt:fpctrl.obj
 0002:000065d4       _under                     100255d4     libucrt:fpctrl.obj
 0002:00006e08       ?_names@?1??_get_fname@@9@9 10025e08     libucrt:fpexcept.obj
 0002:00007658       __sehtable$?_AtlVerifyStackAvailable@_ATL_SAFE_ALLOCA_IMPL@ATL@@YA_NK@Z 10026658     ImageScanner.obj
 0002:00007678       __sehtable$___scrt_is_nonwritable_in_current_image 10026678     LIBCMT:utility.obj
 0002:00007694       __catchsym$??2@YAPAXIABUnothrow_t@std@@@Z$2 10026694     LIBCMT:new_scalar_nothrow.obj
 0002:000076a4       __unwindtable$??2@YAPAXIABUnothrow_t@std@@@Z 100266a4     LIBCMT:new_scalar_nothrow.obj
 0002:000076b4       __tryblocktable$??2@YAPAXIABUnothrow_t@std@@@Z 100266b4     LIBCMT:new_scalar_nothrow.obj
 0002:000076c8       __ehfuncinfo$??2@YAPAXIABUnothrow_t@std@@@Z 100266c8     LIBCMT:new_scalar_nothrow.obj
 0002:000076f0       __sehtable$?dllmain_crt_process_attach@@YAHQAUHINSTANCE__@@QAX@Z 100266f0     LIBCMT:dll_dllmain.obj
 0002:00007710       __sehtable$?dllmain_crt_process_detach@@YAH_N@Z 10026710     LIBCMT:dll_dllmain.obj
 0002:00007730       __sehtable$?dllmain_dispatch@@YAHQAUHINSTANCE__@@KQAX@Z 10026730     LIBCMT:dll_dllmain.obj
 0002:000077e0       __sehtable$?FrameUnwindToState@__FrameHandler3@@SAXPAUEHRegistrationNode@@PAXPBU_s_FuncInfo@@H@Z 100267e0     libvcruntime:frame.obj
 0002:00007808       __sehtable$?CallCatchBlock@@YAPAXPAUEHExceptionRecord@@PAUEHRegistrationNode@@PAU_CONTEXT@@PBU_s_FuncInfo@@PAXHK@Z 10026808     libvcruntime:frame.obj
 0002:00007830       __catchsym$?CallUnexpected@@YAXPBU_s_ESTypeList@@@Z$2 10026830     libvcruntime:frame.obj
 0002:00007840       __unwindtable$?CallUnexpected@@YAXPBU_s_ESTypeList@@@Z 10026840     libvcruntime:frame.obj
 0002:00007850       __tryblocktable$?CallUnexpected@@YAXPBU_s_ESTypeList@@@Z 10026850     libvcruntime:frame.obj
 0002:00007864       __ehfuncinfo$?CallUnexpected@@YAXPBU_s_ESTypeList@@@Z 10026864     libvcruntime:frame.obj
 0002:00007888       __sehtable$??$BuildCatchObjectHelperInternal@V__FrameHandler3@@@@YAHPAUEHExceptionRecord@@PAXPBU_s_HandlerType@@PBU_s_CatchableType@@@Z 10026888     libvcruntime:frame.obj
 0002:000078a8       __sehtable$??$BuildCatchObjectInternal@V__FrameHandler3@@@@YAXPAUEHExceptionRecord@@PAXPBU_s_HandlerType@@PBU_s_CatchableType@@@Z 100268a8     libvcruntime:frame.obj
 0002:00007900       __sehtable$___DestructExceptionObject 10026900     libvcruntime:ehhelpers.obj
 0002:00007920       __sehtable$??R<lambda_6e4b09c48022b2350581041d5f6b0c4c>@@QBE@XZ 10026920     libucrt:exit.obj
 0002:00007940       __sehtable$??$?RV<lambda_03b1d95aef87969028cfba75ccab2455>@@AAV<lambda_6e4b09c48022b2350581041d5f6b0c4c>@@V<lambda_22bdf7517842c4b3e53723af5aa32b9e>@@@?$__crt_seh_guarded_call@X@@QAEX$$QAV<lambda_03b1d95aef87969028cfba75ccab2455>@@AAV<lambda_6e4b09c48022b2350581041d5f6b0c4c>@@$$QAV<lambda_22bdf7517842c4b3e53723af5aa32b9e>@@@Z 10026940     libucrt:exit.obj
 0002:00007960       __sehtable$??$?RV<lambda_8e746cf0007f6ed984d6f78af1fec997>@@AAV<lambda_22ebabd17bc4fa466a2aca6d8deb888d>@@V<lambda_18ed0c0b38a6dc0daf1e7ac6d6adf05e>@@@?$__crt_seh_guarded_call@H@@QAEH$$QAV<lambda_8e746cf0007f6ed984d6f78af1fec997>@@AAV<lambda_22ebabd17bc4fa466a2aca6d8deb888d>@@$$QAV<lambda_18ed0c0b38a6dc0daf1e7ac6d6adf05e>@@@Z 10026960     libucrt:onexit.obj
 0002:00007980       __sehtable$??$?RV<lambda_69a2805e680e0e292e8ba93315fe43a8>@@AAV<lambda_f03950bc5685219e0bcd2087efbe011e>@@V<lambda_03fcd07e894ec930e3f35da366ca99d6>@@@?$__crt_seh_guarded_call@H@@QAEH$$QAV<lambda_69a2805e680e0e292e8ba93315fe43a8>@@AAV<lambda_f03950bc5685219e0bcd2087efbe011e>@@$$QAV<lambda_03fcd07e894ec930e3f35da366ca99d6>@@@Z 10026980     libucrt:onexit.obj
 0002:000079a0       __sehtable$__query_new_handler 100269a0     libucrt:new_handler.obj
 0002:000079c0       __sehtable$_terminate      100269c0     libucrt:terminate.obj
 0002:000079e0       __sehtable$??$?RV<lambda_15ade71b0218206bbe3333a0c9b79046>@@AAV<lambda_da44e0f8b0f19ba52fefafb335991732>@@V<lambda_207f2d024fc103971653565357d6cd41>@@@?$__crt_seh_guarded_call@X@@QAEX$$QAV<lambda_15ade71b0218206bbe3333a0c9b79046>@@AAV<lambda_da44e0f8b0f19ba52fefafb335991732>@@$$QAV<lambda_207f2d024fc103971653565357d6cd41>@@@Z 100269e0     libucrt:per_thread_data.obj
 0002:00007a00       __sehtable$??$?RV<lambda_a7e850c220f1c8d1e6efeecdedd162c6>@@AAV<lambda_46720907175c18b6c9d2717bc0d2d362>@@V<lambda_9048902d66e8d99359bc9897bbb930a8>@@@?$__crt_seh_guarded_call@X@@QAEX$$QAV<lambda_a7e850c220f1c8d1e6efeecdedd162c6>@@AAV<lambda_46720907175c18b6c9d2717bc0d2d362>@@$$QAV<lambda_9048902d66e8d99359bc9897bbb930a8>@@@Z 10026a00     libucrt:per_thread_data.obj
 0002:00007a20       __sehtable$??$?RV<lambda_38edbb1296d33220d7e4dd0ed76b244a>@@AAV<lambda_5ce1d447e08cb34b2473517608e21441>@@V<lambda_fb385d3da700c9147fc39e65dd577a8c>@@@?$__crt_seh_guarded_call@X@@QAEX$$QAV<lambda_38edbb1296d33220d7e4dd0ed76b244a>@@AAV<lambda_5ce1d447e08cb34b2473517608e21441>@@$$QAV<lambda_fb385d3da700c9147fc39e65dd577a8c>@@@Z 10026a20     libucrt:per_thread_data.obj
 0002:00007a40       __sehtable$??$?RV<lambda_6affb1475c98b40b75cdec977db92e3c>@@AAV<lambda_b8d4b9c228a6ecc3f80208dbb4b4a104>@@V<lambda_608742c3c92a14382c1684fc64f96c88>@@@?$__crt_seh_guarded_call@X@@QAEX$$QAV<lambda_6affb1475c98b40b75cdec977db92e3c>@@AAV<lambda_b8d4b9c228a6ecc3f80208dbb4b4a104>@@$$QAV<lambda_608742c3c92a14382c1684fc64f96c88>@@@Z 10026a40     libucrt:per_thread_data.obj
 0002:00007a60       __sehtable$??$?RV<lambda_e5124f882df8998aaf41531e079ba474>@@AAV<lambda_3e16ef9562a7dcce91392c22ab16ea36>@@V<lambda_e25ca0880e6ef98be67edffd8c599615>@@@?$__crt_seh_guarded_call@X@@QAEX$$QAV<lambda_e5124f882df8998aaf41531e079ba474>@@AAV<lambda_3e16ef9562a7dcce91392c22ab16ea36>@@$$QAV<lambda_e25ca0880e6ef98be67edffd8c599615>@@@Z 10026a60     libucrt:wsetlocale.obj
 0002:00007a80       __sehtable$___acrt_initialize_lowio 10026a80     libucrt:ioinit.obj
 0002:00007aa0       __sehtable$?update_thread_multibyte_data_internal@@YAPAU__crt_multibyte_data@@QAU__acrt_ptd@@QAPAU1@@Z 10026aa0     libucrt:mbctype.obj
 0002:00007ac0       __sehtable$??$?RV<lambda_ceb1ee4838e85a9d631eb091e2fbe199>@@AAV<lambda_ae742caa10f662c28703da3d2ea5e57e>@@V<lambda_cd08b5d6af4937fe54fc07d0c9bf6b37>@@@?$__crt_seh_guarded_call@X@@QAEX$$QAV<lambda_ceb1ee4838e85a9d631eb091e2fbe199>@@AAV<lambda_ae742caa10f662c28703da3d2ea5e57e>@@$$QAV<lambda_cd08b5d6af4937fe54fc07d0c9bf6b37>@@@Z 10026ac0     libucrt:mbctype.obj
 0002:00007ae0       __sehtable$_raise          10026ae0     libucrt:signal.obj
 0002:00007b00       __sehtable$??$?RV<lambda_cbab9ec6f41b0180b23cc171c22676b0>@@AAV<lambda_44731a7d0e6d81c3e6aa82d741081786>@@V<lambda_4b292cb8dd18144e164572427af410ab>@@@?$__crt_seh_guarded_call@P6AXH@Z@@QAEP6AXH@Z$$QAV<lambda_cbab9ec6f41b0180b23cc171c22676b0>@@AAV<lambda_44731a7d0e6d81c3e6aa82d741081786>@@$$QAV<lambda_4b292cb8dd18144e164572427af410ab>@@@Z 10026b00     libucrt:signal.obj
 0002:00007b20       __sehtable$??$?RV<lambda_2866be3712abc81a800a822484c830d8>@@AAV<lambda_39ca0ed439415581b5b15c265174cece>@@V<lambda_2b24c74d71094a6cd0cb82e44167d71b>@@@?$__crt_seh_guarded_call@X@@QAEX$$QAV<lambda_2866be3712abc81a800a822484c830d8>@@AAV<lambda_39ca0ed439415581b5b15c265174cece>@@$$QAV<lambda_2b24c74d71094a6cd0cb82e44167d71b>@@@Z 10026b20     libucrt:fflush.obj
 0002:00007b40       __sehtable$??$?RV<lambda_2cc53f568c5a2bb6f192f930a45d44ea>@@AAV<lambda_ab61a845afdef5b7c387490eaf3616ee>@@V<lambda_c2ffc0b7726aa6be21d5f0026187e748>@@@?$__crt_seh_guarded_call@X@@QAEX$$QAV<lambda_2cc53f568c5a2bb6f192f930a45d44ea>@@AAV<lambda_ab61a845afdef5b7c387490eaf3616ee>@@$$QAV<lambda_c2ffc0b7726aa6be21d5f0026187e748>@@@Z 10026b40     libucrt:fflush.obj
 0002:00007b60       __sehtable$___acrt_update_thread_locale_data 10026b60     libucrt:locale_refcounting.obj
 0002:00007b80       __sehtable$__fcloseall     10026b80     libucrt:closeall.obj
 0002:00007ba0       __sehtable$___acrt_lowio_ensure_fh_exists 10026ba0     libucrt:osfinfo.obj
 0002:00007bc0       __sehtable$??$?RV<lambda_9e9de3de5fa147e2223d7db92bc10aa6>@@AAV<lambda_38ce7e780aa69e748d6df282ebc68efe>@@V<lambda_8ca6da459f0f6780f1cff60fdc3d00e5>@@@?$__crt_seh_guarded_call@H@@QAEH$$QAV<lambda_9e9de3de5fa147e2223d7db92bc10aa6>@@AAV<lambda_38ce7e780aa69e748d6df282ebc68efe>@@$$QAV<lambda_8ca6da459f0f6780f1cff60fdc3d00e5>@@@Z 10026bc0     libucrt:commit.obj
 0002:00007be0       __sehtable$__write         10026be0     libucrt:write.obj
 0002:00007c00       __sehtable$_fclose         10026c00     libucrt:fclose.obj
 0002:00007c20       __sehtable$??$?RV<lambda_218ce3db14220d0be481dae8ef3383b6>@@AAV<lambda_628dfdc04ba53c8bfc02c9951375f3f5>@@V<lambda_57dc472bd5c9d5f3b2cbca59b8a843ae>@@@?$__crt_seh_guarded_call@H@@QAEH$$QAV<lambda_218ce3db14220d0be481dae8ef3383b6>@@AAV<lambda_628dfdc04ba53c8bfc02c9951375f3f5>@@$$QAV<lambda_57dc472bd5c9d5f3b2cbca59b8a843ae>@@@Z 10026c20     libucrt:close.obj
 0002:00007c40       __sehtable$__IsNonwritableInCurrentImage 10026c40     LIBCMT:pesect.obj
 0002:00007c70       .edata                     10026c70     OPOSImageScanner.exp
 0002:00007c98       rgpv                       10026c98     OPOSImageScanner.exp
 0002:00007ca8       rgszName                   10026ca8     OPOSImageScanner.exp
 0002:00007cb8       rgwOrd                     10026cb8     OPOSImageScanner.exp
 0002:00007cc0       szName                     10026cc0     OPOSImageScanner.exp
 0002:00007cd5       $N00001                    10026cd5     OPOSImageScanner.exp
 0002:00007ce5       $N00002                    10026ce5     OPOSImageScanner.exp
 0002:00007cf7       $N00003                    10026cf7     OPOSImageScanner.exp
 0002:00007d09       $N00004                    10026d09     OPOSImageScanner.exp
 0002:0000831a       .idata$6                   1002731a     kernel32:KERNEL32.dll
 0002:0000852e       .idata$6                   1002752e     user32:USER32.dll
 0002:00008662       .idata$6                   10027662     gdi32:GDI32.dll
 0002:00008708       .idata$6                   10027708     advapi32:ADVAPI32.dll
 0002:00008824       .idata$6                   10027824     ole32:ole32.dll
 0002:0000882e       .idata$6                   1002782e     oleaut32:OLEAUT32.dll
 0003:00000110       ?ObjectMap@@3PAU_ATL_OBJMAP_ENTRY30@ATL@@A 10028110     ImageScanner.obj
 0003:000001bc       ?s_RequiredMethodsPerRelease@@3PAHA 100281bc     ImageScannerImpl.obj
 0003:000001c0       ?s_SOMethodNames@@3PAPADA  100281c0     ImageScannerImpl.obj
 0003:00000230       ?__vcrt_flsindex@@3KA      10028230     libvcruntime:per_thread_data.obj
 0003:00000250       ?errno_no_memory@@3HA      10028250     libucrt:errno.obj
 0003:00000254       ?doserrno_no_memory@@3KA   10028254     libucrt:errno.obj
 0003:00000260       ?__acrt_flsindex@@3KA      10028260     libucrt:per_thread_data.obj
 0003:000005f8       __mbctypes                 100285f8     libucrt:mbctype.obj
 0003:00000700       __mbcasemaps               10028700     libucrt:mbctype.obj
 0003:00000800       ?__rgctypeflag@@3PADA      10028800     libucrt:mbctype.obj
 0003:00000808       ?__rgcode_page_info@@3PAUcode_page_info@@A 10028808     libucrt:mbctype.obj
 0003:00000a60       ?__dcrt_lowio_console_output_handle@@3PAXA 10028a60     libucrt:initcon.obj
 0003:00000bf8       ?is_initialized_as_dll@@3_NA 10028bf8     LIBCMT:utility.obj
 0003:00000bf9       ?module_local_atexit_table_initialized@@3_NA 10028bf9     LIBCMT:utility.obj
 0003:00000bfc       ?module_local_atexit_table@@3U_onexit_table_t@@A 10028bfc     LIBCMT:utility.obj
 0003:00000c08       ?module_local_at_quick_exit_table@@3U_onexit_table_t@@A 10028c08     LIBCMT:utility.obj
 0003:00000c14       ?g_tss_cv@@3U_RTL_CONDITION_VARIABLE@@A 10028c14     LIBCMT:thread_safe_statics.obj
 0003:00000c18       ?g_tss_event@@3PAXA        10028c18     LIBCMT:thread_safe_statics.obj
 0003:00000c1c       ?g_tss_mutex@@3U_RTL_CRITICAL_SECTION@@A 10028c1c     LIBCMT:thread_safe_statics.obj
 0003:00000c34       ?g_sleep_condition_variable_cs@@3P6GHPAU_RTL_CONDITION_VARIABLE@@PAU_RTL_CRITICAL_SECTION@@K@ZA 10028c34     LIBCMT:thread_safe_statics.obj
 0003:00000c38       ?g_wake_all_condition_variable@@3P6GXPAU_RTL_CONDITION_VARIABLE@@@ZA 10028c38     LIBCMT:thread_safe_statics.obj
 0003:00000c40       _GS_ExceptionRecord        10028c40     LIBCMT:gs_report.obj
 0003:00000c90       _GS_ContextRecord          10028c90     LIBCMT:gs_report.obj
 0003:00000f60       ?__proc_attached@@3HA      10028f60     LIBCMT:dll_dllmain.obj
 0003:00000fbc       ?AllocateData@@3P6GPAUAtlThunkData_t@@XZA 10028fbc     atls:atlthunk.obj
 0003:00000fc0       ?InitData@@3P6GXPAUAtlThunkData_t@@PAXI@ZA 10028fc0     atls:atlthunk.obj
 0003:00000fc4       ?DataToCode@@3P6GP6GJPAUHWND__@@IIJ@ZPAUAtlThunkData_t@@@ZA 10028fc4     atls:atlthunk.obj
 0003:00000fc8       ?FreeData@@3P6GXPAUAtlThunkData_t@@@ZA 10028fc8     atls:atlthunk.obj
 0003:00000fcc       ?Initialized@@3_NA         10028fcc     atls:atlthunk.obj
 0003:00000fd8       ?__vcrt_startup_thread_ptd@@3U__vcrt_ptd@@A 10028fd8     libvcruntime:per_thread_data.obj
 0003:00001000       ___vcrt_lock_table         10029000     libvcruntime:locks.obj
 0003:00001018       ___vcrt_locks_initialized  10029018     libvcruntime:locks.obj
 0003:00001044       ?heap@@3V_HeapManager@@A   10029044     libvcruntime:undname.obj
 0003:00001058       ?module_handles@@3PAPAUHINSTANCE__@@A 10029058     libvcruntime:winapi_downlevel.obj
 0003:00001064       ?function_pointers@@3PAPAXA 10029064     libvcruntime:winapi_downlevel.obj
 0003:0000107c       ?__acrt_invalid_parameter_handler@@3V?$dual_state_global@P6AXPB_W00II@Z@__crt_state_management@@A 1002907c     libucrt:invalid_parameter.obj
 0003:00001080       ?c_termination_complete@@3JA 10029080     libucrt:exit.obj
 0003:00001084       ?thread_local_exit_callback_func@@3P6GXPAXK0@ZA 10029084     libucrt:exit.obj
 0003:00001090       ?program_name@?1???$common_configure_argv@D@@YAHW4_crt_argv_mode@@@Z@4PADA 10029090     libucrt:argv_parsing.obj
 0003:000011c0       ?__acrt_new_handler@@3V?$dual_state_global@P6AHI@Z@__crt_state_management@@A 100291c0     libucrt:new_handler.obj
 0003:000011c8       ?module_handles@@3PAPAUHINSTANCE__@@A 100291c8     libucrt:winapi_thunks.obj
 0003:00001218       ?encoded_function_pointers@@3PAPAXA 10029218     libucrt:winapi_thunks.obj
 0003:000012a0       ?internal_state@?1??_mbtowc_l@@9@4U_Mbstatet@@A 100292a0     libucrt:mbtowc.obj
 0003:000012b0       ?enable_percent_n@@3IA     100292b0     libucrt:printf_count_output.obj
 0003:000014d0       ?__acrt_lock_table@@3PAU_RTL_CRITICAL_SECTION@@A 100294d0     libucrt:locks.obj
 0003:00001620       ?__acrt_locks_initialized@@3IA 10029620     libucrt:locks.obj
 0003:00001630       ?fSystemSet@@3HA           10029630     libucrt:mbctype.obj
 0003:00001634       ?initialized@?1??__acrt_initialize_multibyte@@9@4_NA 10029634     libucrt:mbctype.obj
 0003:00001654       ?ctrlc_action@@3V?$dual_state_global@P6AXH@Z@__crt_state_management@@A 10029654     libucrt:signal.obj
 0003:00001658       ?ctrlbreak_action@@3V?$dual_state_global@P6AXH@Z@__crt_state_management@@A 10029658     libucrt:signal.obj
 0003:0000165c       ?abort_action@@3V?$dual_state_global@P6AXH@Z@__crt_state_management@@A 1002965c     libucrt:signal.obj
 0003:00001660       ?term_action@@3V?$dual_state_global@P6AXH@Z@__crt_state_management@@A 10029660     libucrt:signal.obj
 0003:00001664       ?user_matherr@@3V?$dual_state_global@P6AHPAU_exception@@@Z@__crt_state_management@@A 10029664     libucrt:matherr.obj
 0003:00001668       ?__acrt_global_new_mode@@3V?$dual_state_global@J@__crt_state_management@@A 10029668     libucrt:new_mode.obj
 0003:00001674       ?internal_pst@?1??__mbrtoc32_utf8@__crt_mbstring@@YAIPA_UPBDIPAU_Mbstatet@@@Z@4U3@A 10029674     libucrt:mbrtoc32.obj
 0003:0000167c       ?__acrt_app_type@@3W4_crt_app_type@@A 1002967c     libucrt:report_runtime_error.obj
 0003:00001684       __pmatherr_set             10029684     libucrt:libm_error.obj
 0004:00000220       $R000000                   1002a220     ImageScanner.res
 0004:00000ba0       $R000980                   1002aba0     ImageScanner.res
 0004:00000c88       $R000A68                   1002ac88     ImageScanner.res
 0004:00000ef0       $R000CD0                   1002aef0     ImageScanner.res
 0004:000013d0       $R0011B0                   1002b3d0     ImageScanner.res
 0004:000043b8       $R004198                   1002e3b8     ImageScanner.res
 0004:000043f0       $R0041D0                   1002e3f0     ImageScanner.res
