 OPOSIndividualRecognition

 Timestamp is 600f7b94 (Tue Jan 26 11:16:52 2021)

 Preferred load address is 10000000

 Start         Length     Name                   Class
 0001:00000000 00000080H .text$di                CODE
 0001:00000080 0001e183H .text$mn                CODE
 0001:0001e203 0000003aH .text$x                 CODE
 0001:0001e23d 00000042H .text$yd                CODE
 0002:00000000 000002fcH .idata$5                DATA
 0002:000002fc 00000004H .00cfg                  DATA
 0002:00000300 00000004H .CRT$XCA                DATA
 0002:00000304 00000004H .CRT$XCL                DATA
 0002:00000308 00000010H .CRT$XCU                DATA
 0002:00000318 00000004H .CRT$XCZ                DATA
 0002:0000031c 00000004H .CRT$XIA                DATA
 0002:00000320 00000010H .CRT$XIC                DATA
 0002:00000330 00000004H .CRT$XIZ                DATA
 0002:00000334 00000004H .CRT$XLA                DATA
 0002:00000338 00000004H .CRT$XLZ                DATA
 0002:0000033c 00000004H .CRT$XPA                DATA
 0002:00000340 00000008H .CRT$XPX                DATA
 0002:00000348 00000004H .CRT$XPXA               DATA
 0002:0000034c 00000004H .CRT$XPZ                DATA
 0002:00000350 00000004H .CRT$XTA                DATA
 0002:00000354 0000000cH .CRT$XTZ                DATA
 0002:00000358 00000000H .gfids$y                DATA
 0002:00000360 00007220H .rdata                  DATA
 0002:00007580 00000000H .rdata$CastGuardVftablesA DATA
 0002:00007580 00000000H .rdata$CastGuardVftablesC DATA
 0002:00007580 00000018H .rdata$T                DATA
 0002:00007598 00000178H .rdata$r                DATA
 0002:00007710 0000001cH .rdata$sxdata           DATA
 0002:0000772c 000003e8H .rdata$zzzdbg           DATA
 0002:00007b14 00000004H .rtc$IAA                DATA
 0002:00007b18 00000004H .rtc$IZZ                DATA
 0002:00007b1c 00000004H .rtc$TAA                DATA
 0002:00007b20 00000004H .rtc$TZZ                DATA
 0002:00007b24 00000004H .tls                    DATA
 0002:00007b28 00000004H .tls$                   DATA
 0002:00007b2c 00000004H .tls$ZZZ                DATA
 0002:00007b30 0000062cH .xdata$x                DATA
 0002:0000815c 00000004H ATL$__a                 DATA
 0002:00008160 00000010H ATL$__z                 DATA
 0002:00008170 000000b8H .edata                  DATA
 0002:00008228 00000078H .idata$2                DATA
 0002:000082a0 00000014H .idata$3                DATA
 0002:000082b4 000002fcH .idata$4                DATA
 0002:000085b0 00000bceH .idata$6                DATA
 0003:00000000 00000a90H .data                   DATA
 0003:00000a90 00000098H .data$r                 DATA
 0003:00000b28 00000b88H .bss                    DATA
 0004:00000000 00000220H .rsrc$01                DATA
 0004:00000220 00003a78H .rsrc$02                DATA

  Address         Publics by Value              Rva+Base       Lib:Object

 0000:00000000       ___guard_fids_count        00000000     <absolute>
 0000:00000000       ___guard_longjmp_table     00000000     <absolute>
 0000:00000000       ___guard_eh_cont_table     00000000     <absolute>
 0000:00000000       ___volatile_metadata       00000000     <absolute>
 0000:00000000       ___arm64x_extra_rfe_table  00000000     <absolute>
 0000:00000000       ___arm64x_redirection_metadata 00000000     <absolute>
 0000:00000000       ___guard_eh_cont_count     00000000     <absolute>
 0000:00000000       ___guard_iat_count         00000000     <absolute>
 0000:00000000       __except_list              00000000     <absolute>
 0000:00000000       ___x64_code_ranges_to_entry_points_count 00000000     <absolute>
 0000:00000000       ___hybrid_code_map_count   00000000     <absolute>
 0000:00000000       ___x64_code_ranges_to_entry_points 00000000     <absolute>
 0000:00000000       ___guard_iat_table         00000000     <absolute>
 0000:00000000       ___arm64x_native_entrypoint 00000000     <absolute>
 0000:00000000       ___hybrid_code_map         00000000     <absolute>
 0000:00000000       ___arm64x_extra_rfe_table_size 00000000     <absolute>
 0000:00000000       ___guard_longjmp_count     00000000     <absolute>
 0000:00000000       ___arm64x_redirection_metadata_count 00000000     <absolute>
 0000:00000000       ___hybrid_auxiliary_iat    00000000     <absolute>
 0000:00000000       ___dynamic_value_reloc_table 00000000     <absolute>
 0000:00000000       ___AbsoluteZero            00000000     <absolute>
 0000:00000000       ___enclave_config          00000000     <absolute>
 0000:00000000       ___guard_fids_table        00000000     <absolute>
 0000:00000007       ___safe_se_handler_count   00000007     <absolute>
 0000:0000002c       __tls_array                0000002c     <absolute>
 0000:00000100       ___guard_flags             00000100     <absolute>
 0000:00000000       ___ImageBase               10000000     <linker-defined>
 0001:00000080       ?DupWide@_CW@@AAEXXZ       10001080 f   CWString.obj
 0001:0000009c       ?cw_dup@@YGXPBDAAHAAPA_W1@Z 1000109c f   CWString.obj
 0001:00000124       ?cw_memcpy@@YGHPA_WPBDH@Z  10001124 f   CWString.obj
 0001:00000150       ?cw_strcpy@@YAHPA_WPBD@Z   10001150 f   CWString.obj
 0001:00000163       ?cw_strlen@@YAHPBD@Z       10001163 f   CWString.obj
 0001:0000017c       ??0CAtlComModule@ATL@@QAE@XZ 1000117c f i OposVariant.obj
 0001:000001c1       ??0CAtlWinModule@ATL@@QAE@XZ 100011c1 f i OposVariant.obj
 0001:000001f8       ??0OposDispParms@@QAE@PAVOposVariant@@H@Z 100011f8 f   OposVariant.obj
 0001:00000269       ??1OposDispParms@@QAE@XZ   10001269 f   OposVariant.obj
 0001:00000277       ??A?$CSimpleArray@GV?$CSimpleArrayEqualHelper@G@ATL@@@ATL@@QAEAAGH@Z 10001277 f i OposVariant.obj
 0001:0000029c       ??_Estringdispid@CComTypeInfoHolder@ATL@@QAEPAXI@Z 1000129c f i OposVariant.obj
 0001:00000308       ?AtlWinModuleInit@ATL@@YGJPAU_ATL_WIN_MODULE70@1@@Z 10001308 f i OposVariant.obj
 0001:0000032e       ?AtlWinModuleTerm@ATL@@YGJPAU_ATL_WIN_MODULE70@1@PAUHINSTANCE__@@@Z 1000132e f i OposVariant.obj
 0001:00000391       ?ChangeBSTR@OposVariant@@QAEXPAPA_WAAJ@Z 10001391 f   OposVariant.obj
 0001:000003d2       ?ChangeLONG@OposVariant@@QAEXPAJAAJ@Z 100013d2 f   OposVariant.obj
 0001:00000413       ?GetLONG@OposVariant@@QAEJXZ 10001413 f   OposVariant.obj
 0001:0000042e       ?Init@CComCriticalSection@ATL@@QAEJXZ 1000142e f i OposVariant.obj
 0001:00000456       ?RemoveAll@?$CSimpleArray@GV?$CSimpleArrayEqualHelper@G@ATL@@@ATL@@QAEXXZ 10001456 f i OposVariant.obj
 0001:00000456       ?RemoveAll@?$CSimpleArray@PAUHINSTANCE__@@V?$CSimpleArrayEqualHelper@PAUHINSTANCE__@@@ATL@@@ATL@@QAEXXZ 10001456 f i atls:atlbase.obj
 0001:00000473       ?SetBSTR@OposVariant@@QAEXPA_WAAJ@Z 10001473 f   OposVariant.obj
 0001:000004a7       ?SetBSTR_Copy@OposVariant@@QAEXPA_WAAJ@Z 100014a7 f   OposVariant.obj
 0001:000004f7       ?SetBSTR_InOutPtr@OposVariant@@QAE_NPAPA_WAAJ@Z 100014f7 f   OposVariant.obj
 0001:0000052e       ?SetDispatch_Ptr@OposVariant@@QAEXPAUIDispatch@@AAJ@Z 1000152e f   OposVariant.obj
 0001:00000569       ?SetLONG@OposVariant@@QAEXJ@Z 10001569 f   OposVariant.obj
 0001:0000058b       ?SetLONG_Ptr@OposVariant@@QAEXPAJAAJ@Z 1000158b f   OposVariant.obj
 0001:000005be       ?SetString@OposVariant@@QAEXPB_WAAJ@Z 100015be f   OposVariant.obj
 0001:00000604       ?SetVARIANT_BOOL@OposVariant@@QAEXF@Z 10001604 f   OposVariant.obj
 0001:0000062e       ?Term@CAtlComModule@ATL@@QAEXXZ 1000162e f i OposVariant.obj
 0001:00000678       ?_AtlRaiseException@ATL@@YAXKK@Z 10001678 f i OposVariant.obj
 0001:0000068d       ??_E?$CComContainedObject@VCOPOSIndividualRecognition@@@ATL@@W3AEPAXI@Z 1000168d f i IndividualRecognition.obj
 0001:00000695       ??_E?$CComContainedObject@VCOPOSIndividualRecognition@@@ATL@@WEM@AEPAXI@Z 10001695 f i IndividualRecognition.obj
 0001:0000069d       ?QueryInterface@?$CComContainedObject@VCOPOSIndividualRecognition@@@ATL@@WHA@AGJABU_GUID@@PAPAX@Z 1000169d f i IndividualRecognition.obj
 0001:000006a7       ?AddRef@?$CComContainedObject@VCOPOSIndividualRecognition@@@ATL@@WHA@AGKXZ 100016a7 f i IndividualRecognition.obj
 0001:000006b1       ?Release@?$CComContainedObject@VCOPOSIndividualRecognition@@@ATL@@WHA@AGKXZ 100016b1 f i IndividualRecognition.obj
 0001:000006bb       ?QueryInterface@?$CComContainedObject@VCOPOSIndividualRecognition@@@ATL@@WHE@AGJABU_GUID@@PAPAX@Z 100016bb f i IndividualRecognition.obj
 0001:000006c5       ?AddRef@?$CComContainedObject@VCOPOSIndividualRecognition@@@ATL@@WHE@AGKXZ 100016c5 f i IndividualRecognition.obj
 0001:000006cf       ?Release@?$CComContainedObject@VCOPOSIndividualRecognition@@@ATL@@WHE@AGKXZ 100016cf f i IndividualRecognition.obj
 0001:000006d9       ?QueryInterface@?$CComContainedObject@VCOPOSIndividualRecognition@@@ATL@@WHI@AGJABU_GUID@@PAPAX@Z 100016d9 f i IndividualRecognition.obj
 0001:000006e3       ?AddRef@?$CComContainedObject@VCOPOSIndividualRecognition@@@ATL@@WHI@AGKXZ 100016e3 f i IndividualRecognition.obj
 0001:000006ed       ?Release@?$CComContainedObject@VCOPOSIndividualRecognition@@@ATL@@WHI@AGKXZ 100016ed f i IndividualRecognition.obj
 0001:000006f7       ?QueryInterface@?$CComContainedObject@VCOPOSIndividualRecognition@@@ATL@@WHM@AGJABU_GUID@@PAPAX@Z 100016f7 f i IndividualRecognition.obj
 0001:00000701       ?AddRef@?$CComContainedObject@VCOPOSIndividualRecognition@@@ATL@@WHM@AGKXZ 10001701 f i IndividualRecognition.obj
 0001:0000070b       ?Release@?$CComContainedObject@VCOPOSIndividualRecognition@@@ATL@@WHM@AGKXZ 1000170b f i IndividualRecognition.obj
 0001:00000715       ?QueryInterface@?$CComContainedObject@VCOPOSIndividualRecognition@@@ATL@@WIA@AGJABU_GUID@@PAPAX@Z 10001715 f i IndividualRecognition.obj
 0001:00000722       ?AddRef@?$CComContainedObject@VCOPOSIndividualRecognition@@@ATL@@WIA@AGKXZ 10001722 f i IndividualRecognition.obj
 0001:0000072f       ?Release@?$CComContainedObject@VCOPOSIndividualRecognition@@@ATL@@WIA@AGKXZ 1000172f f i IndividualRecognition.obj
 0001:0000073c       ?QueryInterface@?$CComContainedObject@VCOPOSIndividualRecognition@@@ATL@@WIE@AGJABU_GUID@@PAPAX@Z 1000173c f i IndividualRecognition.obj
 0001:00000749       ?AddRef@?$CComContainedObject@VCOPOSIndividualRecognition@@@ATL@@WIE@AGKXZ 10001749 f i IndividualRecognition.obj
 0001:00000756       ?Release@?$CComContainedObject@VCOPOSIndividualRecognition@@@ATL@@WIE@AGKXZ 10001756 f i IndividualRecognition.obj
 0001:00000763       ?QueryInterface@?$CComContainedObject@VCOPOSIndividualRecognition@@@ATL@@WII@AGJABU_GUID@@PAPAX@Z 10001763 f i IndividualRecognition.obj
 0001:00000770       ?AddRef@?$CComContainedObject@VCOPOSIndividualRecognition@@@ATL@@WII@AGKXZ 10001770 f i IndividualRecognition.obj
 0001:0000077d       ?Release@?$CComContainedObject@VCOPOSIndividualRecognition@@@ATL@@WII@AGKXZ 1000177d f i IndividualRecognition.obj
 0001:0000078a       ?QueryInterface@?$CComContainedObject@VCOPOSIndividualRecognition@@@ATL@@WIM@AGJABU_GUID@@PAPAX@Z 1000178a f i IndividualRecognition.obj
 0001:00000797       ?AddRef@?$CComContainedObject@VCOPOSIndividualRecognition@@@ATL@@WIM@AGKXZ 10001797 f i IndividualRecognition.obj
 0001:000007a4       ?Release@?$CComContainedObject@VCOPOSIndividualRecognition@@@ATL@@WIM@AGKXZ 100017a4 f i IndividualRecognition.obj
 0001:000007b1       ?QueryInterface@?$CComContainedObject@VCOPOSIndividualRecognition@@@ATL@@WJA@AGJABU_GUID@@PAPAX@Z 100017b1 f i IndividualRecognition.obj
 0001:000007be       ?AddRef@?$CComContainedObject@VCOPOSIndividualRecognition@@@ATL@@WJA@AGKXZ 100017be f i IndividualRecognition.obj
 0001:000007cb       ?Release@?$CComContainedObject@VCOPOSIndividualRecognition@@@ATL@@WJA@AGKXZ 100017cb f i IndividualRecognition.obj
 0001:000007d8       ?QueryInterface@?$CComContainedObject@VCOPOSIndividualRecognition@@@ATL@@WJE@AGJABU_GUID@@PAPAX@Z 100017d8 f i IndividualRecognition.obj
 0001:000007e5       ?AddRef@?$CComContainedObject@VCOPOSIndividualRecognition@@@ATL@@WJE@AGKXZ 100017e5 f i IndividualRecognition.obj
 0001:000007f2       ?Release@?$CComContainedObject@VCOPOSIndividualRecognition@@@ATL@@WJE@AGKXZ 100017f2 f i IndividualRecognition.obj
 0001:000007ff       ?QueryInterface@?$CComContainedObject@VCOPOSIndividualRecognition@@@ATL@@WJI@AGJABU_GUID@@PAPAX@Z 100017ff f i IndividualRecognition.obj
 0001:0000080c       ?AddRef@?$CComContainedObject@VCOPOSIndividualRecognition@@@ATL@@WJI@AGKXZ 1000180c f i IndividualRecognition.obj
 0001:00000819       ?Release@?$CComContainedObject@VCOPOSIndividualRecognition@@@ATL@@WJI@AGKXZ 10001819 f i IndividualRecognition.obj
 0001:00000826       ?QueryInterface@?$CComContainedObject@VCOPOSIndividualRecognition@@@ATL@@WJM@AGJABU_GUID@@PAPAX@Z 10001826 f i IndividualRecognition.obj
 0001:00000833       ?AddRef@?$CComContainedObject@VCOPOSIndividualRecognition@@@ATL@@WJM@AGKXZ 10001833 f i IndividualRecognition.obj
 0001:00000840       ?Release@?$CComContainedObject@VCOPOSIndividualRecognition@@@ATL@@WJM@AGKXZ 10001840 f i IndividualRecognition.obj
 0001:0000084d       ?QueryInterface@?$CComContainedObject@VCOPOSIndividualRecognition@@@ATL@@WKA@AGJABU_GUID@@PAPAX@Z 1000184d f i IndividualRecognition.obj
 0001:0000085a       ?AddRef@?$CComContainedObject@VCOPOSIndividualRecognition@@@ATL@@WKA@AGKXZ 1000185a f i IndividualRecognition.obj
 0001:00000867       ?Release@?$CComContainedObject@VCOPOSIndividualRecognition@@@ATL@@WKA@AGKXZ 10001867 f i IndividualRecognition.obj
 0001:00000874       ?AddRef@?$CComContainedObject@VCOPOSIndividualRecognition@@@ATL@@WKI@AGKXZ 10001874 f i IndividualRecognition.obj
 0001:00000881       ?Release@?$CComContainedObject@VCOPOSIndividualRecognition@@@ATL@@WKI@AGKXZ 10001881 f i IndividualRecognition.obj
 0001:0000088e       ?AddRef@?$CComContainedObject@VCOPOSIndividualRecognition@@@ATL@@WLE@AGKXZ 1000188e f i IndividualRecognition.obj
 0001:0000089b       ?Release@?$CComContainedObject@VCOPOSIndividualRecognition@@@ATL@@WLE@AGKXZ 1000189b f i IndividualRecognition.obj
 0001:000008a8       ?CreateInstance@CComClassFactory@ATL@@UAGJPAUIUnknown@@ABU_GUID@@PAPAX@Z 100018a8 f i IndividualRecognition.obj
 0001:000008e6       ?LockServer@CComClassFactory@ATL@@UAGJH@Z 100018e6 f i IndividualRecognition.obj
 0001:00000905       ??_ECComClassFactory@ATL@@UAEPAXI@Z 10001905 f i IndividualRecognition.obj
 0001:00000905       ??_GCComClassFactory@ATL@@UAEPAXI@Z 10001905 f i IndividualRecognition.obj
 0001:00000930       ?GetWindowProc@?$CWindowImplBaseT@VCWindow@ATL@@V?$CWinTraits@$0FGAAAAAA@$0A@@2@@ATL@@UAEP6GJPAUHWND__@@IIJ@ZXZ 10001930 f i IndividualRecognition.obj
 0001:00000936       ?StartWindowProc@?$CWindowImplBaseT@VCWindow@ATL@@V?$CWinTraits@$0FGAAAAAA@$0A@@2@@ATL@@SGJPAUHWND__@@IIJ@Z 10001936 f i IndividualRecognition.obj
 0001:0000098a       ?OnFinalMessage@?$CWindowImplBaseT@VCWindow@ATL@@V?$CWinTraits@$0FGAAAAAA@$0A@@2@@ATL@@UAEXPAUHWND__@@@Z 1000198a f i IndividualRecognition.obj
 0001:0000098a       ?ObjectMain@CComObjectRootBase@ATL@@SGX_N@Z 1000198a f i IndividualRecognition.obj
 0001:0000098d       ?GetTypeInfoCount@?$IDispatchImpl@UIOPOSIndividualRecognition@@$1?IID_IOPOSIndividualRecognition@@3U_GUID@@B$1?LIBID_OposIndividualRecognition_CCO@@3U3@B$00$0A@VCComTypeInfoHolder@ATL@@@ATL@@UAGJPAI@Z 1000198d f i IndividualRecognition.obj
 0001:000009aa       ?GetTypeInfo@?$IDispatchImpl@UIOPOSIndividualRecognition@@$1?IID_IOPOSIndividualRecognition@@3U_GUID@@B$1?LIBID_OposIndividualRecognition_CCO@@3U3@B$00$0A@VCComTypeInfoHolder@ATL@@@ATL@@UAGJIKPAPAUITypeInfo@@@Z 100019aa f i IndividualRecognition.obj
 0001:000009ce       ?GetIDsOfNames@?$IDispatchImpl@UIOPOSIndividualRecognition@@$1?IID_IOPOSIndividualRecognition@@3U_GUID@@B$1?LIBID_OposIndividualRecognition_CCO@@3U3@B$00$0A@VCComTypeInfoHolder@ATL@@@ATL@@UAGJABU_GUID@@PAPA_WIKPAJ@Z 100019ce f i IndividualRecognition.obj
 0001:000009ee       ?Invoke@?$IDispatchImpl@UIOPOSIndividualRecognition@@$1?IID_IOPOSIndividualRecognition@@3U_GUID@@B$1?LIBID_OposIndividualRecognition_CCO@@3U3@B$00$0A@VCComTypeInfoHolder@ATL@@@ATL@@UAGJJABU_GUID@@KGPAUtagDISPPARAMS@@PAUtagVARIANT@@PAUtagEXCEPINFO@@PAI@Z 100019ee f i IndividualRecognition.obj
 0001:000009fc       ?CreateControlWindow@?$CComControl@VCOPOSIndividualRecognition@@V?$CWindowImpl@VCOPOSIndividualRecognition@@VCWindow@ATL@@V?$CWinTraits@$0FGAAAAAA@$0A@@3@@ATL@@@ATL@@UAEPAUHWND__@@PAU3@AAUtagRECT@@@Z 100019fc f i IndividualRecognition.obj
 0001:00000a2b       ?ControlQueryInterface@?$CComControl@VCOPOSIndividualRecognition@@V?$CWindowImpl@VCOPOSIndividualRecognition@@VCWindow@ATL@@V?$CWinTraits@$0FGAAAAAA@$0A@@3@@ATL@@@ATL@@UAEJABU_GUID@@PAPAX@Z 10001a2b f i IndividualRecognition.obj
 0001:00000a46       ?GetClassID@?$IPersistStorageImpl@VCOPOSIndividualRecognition@@@ATL@@UAGJPAU_GUID@@@Z 10001a46 f i IndividualRecognition.obj
 0001:00000a46       ?GetClassID@?$IPersistStreamInitImpl@VCOPOSIndividualRecognition@@@ATL@@UAGJPAU_GUID@@@Z 10001a46 f i IndividualRecognition.obj
 0001:00000a46       ?GetUserClassID@?$IOleObjectImpl@VCOPOSIndividualRecognition@@@ATL@@UAGJPAU_GUID@@@Z 10001a46 f i IndividualRecognition.obj
 0001:00000a6a       ?IsDirty@?$IPersistStreamInitImpl@VCOPOSIndividualRecognition@@@ATL@@UAGJXZ 10001a6a f i IndividualRecognition.obj
 0001:00000a89       ?Load@?$IPersistStreamInitImpl@VCOPOSIndividualRecognition@@@ATL@@UAGJPAUIStream@@@Z 10001a89 f i IndividualRecognition.obj
 0001:00000aa8       ?Save@?$IPersistStreamInitImpl@VCOPOSIndividualRecognition@@@ATL@@UAGJPAUIStream@@H@Z 10001aa8 f i IndividualRecognition.obj
 0001:00000aca       ?GetSizeMax@?$IPersistStreamInitImpl@VCOPOSIndividualRecognition@@@ATL@@UAGJPAT_ULARGE_INTEGER@@@Z 10001aca f i IndividualRecognition.obj
 0001:00000ca9       ?InitNew@?$IPersistStreamInitImpl@VCOPOSIndividualRecognition@@@ATL@@UAGJXZ 10001ca9 f i IndividualRecognition.obj
 0001:00000cc6       ?QueryGetData@?$IDataObjectImpl@VCOPOSIndividualRecognition@@@ATL@@UAGJPAUtagFORMATETC@@@Z 10001cc6 f i IndividualRecognition.obj
 0001:00000cc6       ?GetControlInfo@?$IOleControlImpl@VCOPOSIndividualRecognition@@@ATL@@UAGJPAUtagCONTROLINFO@@@Z 10001cc6 f i IndividualRecognition.obj
 0001:00000cc6       ?SetColorScheme@?$IOleObjectImpl@VCOPOSIndividualRecognition@@@ATL@@UAGJPAUtagLOGPALETTE@@@Z 10001cc6 f i IndividualRecognition.obj
 0001:00000cc6       ?ContextSensitiveHelp@?$IOleInPlaceActiveObjectImpl@VCOPOSIndividualRecognition@@@ATL@@UAGJH@Z 10001cc6 f i IndividualRecognition.obj
 0001:00000cc6       ?ContextSensitiveHelp@?$IOleInPlaceObjectWindowlessImpl@VCOPOSIndividualRecognition@@@ATL@@UAGJH@Z 10001cc6 f i IndividualRecognition.obj
 0001:00000cc6       ?Unfreeze@?$IViewObjectExImpl@VCOPOSIndividualRecognition@@@ATL@@UAGJK@Z 10001cc6 f i IndividualRecognition.obj
 0001:00000cc6       ?OnMnemonic@?$IOleControlImpl@VCOPOSIndividualRecognition@@@ATL@@UAGJPAUtagMSG@@@Z 10001cc6 f i IndividualRecognition.obj
 0001:00000cc6       ?SOOutputCompleteDummy@COPOSIndividualRecognition@@MAGJJ@Z 10001cc6 f i IndividualRecognition.obj
 0001:00000cc6       ?GetDropTarget@?$IOleInPlaceObjectWindowlessImpl@VCOPOSIndividualRecognition@@@ATL@@UAGJPAPAUIDropTarget@@@Z 10001cc6 f i IndividualRecognition.obj
 0001:00000cce       ?SaveCompleted@?$IPersistStorageImpl@VCOPOSIndividualRecognition@@@ATL@@UAGJPAUIStorage@@@Z 10001cce f i IndividualRecognition.obj
 0001:00000cce       ?OnFrameWindowActivate@?$IOleInPlaceActiveObjectImpl@VCOPOSIndividualRecognition@@@ATL@@UAGJH@Z 10001cce f i IndividualRecognition.obj
 0001:00000cce       ?EnableModeless@?$IOleInPlaceActiveObjectImpl@VCOPOSIndividualRecognition@@@ATL@@UAGJH@Z 10001cce f i IndividualRecognition.obj
 0001:00000cce       ?OnAmbientPropertyChange@?$IOleControlImpl@VCOPOSIndividualRecognition@@@ATL@@UAGJJ@Z 10001cce f i IndividualRecognition.obj
 0001:00000cd3       ?SetClientSite@?$IOleObjectImpl@VCOPOSIndividualRecognition@@@ATL@@UAGJPAUIOleClientSite@@@Z 10001cd3 f i IndividualRecognition.obj
 0001:00000cf0       ?GetClientSite@?$IOleObjectImpl@VCOPOSIndividualRecognition@@@ATL@@UAGJPAPAUIOleClientSite@@@Z 10001cf0 f i IndividualRecognition.obj
 0001:00000d0d       ?SetHostNames@?$IOleObjectImpl@VCOPOSIndividualRecognition@@@ATL@@UAGJPB_W0@Z 10001d0d f i IndividualRecognition.obj
 0001:00000d12       ?Close@?$IOleObjectImpl@VCOPOSIndividualRecognition@@@ATL@@UAGJK@Z 10001d12 f i IndividualRecognition.obj
 0001:00000d2f       ?GetDataHere@?$IDataObjectImpl@VCOPOSIndividualRecognition@@@ATL@@UAGJPAUtagFORMATETC@@PAUtagSTGMEDIUM@@@Z 10001d2f f i IndividualRecognition.obj
 0001:00000d2f       ?GetRect@?$IViewObjectExImpl@VCOPOSIndividualRecognition@@@ATL@@UAGJKPAU_RECTL@@@Z 10001d2f f i IndividualRecognition.obj
 0001:00000d2f       ?GetClipboardData@?$IOleObjectImpl@VCOPOSIndividualRecognition@@@ATL@@UAGJKPAPAUIDataObject@@@Z 10001d2f f i IndividualRecognition.obj
 0001:00000d2f       ?EnumFormatEtc@?$IDataObjectImpl@VCOPOSIndividualRecognition@@@ATL@@UAGJKPAPAUIEnumFORMATETC@@@Z 10001d2f f i IndividualRecognition.obj
 0001:00000d2f       ?SetMoniker@?$IOleObjectImpl@VCOPOSIndividualRecognition@@@ATL@@UAGJKPAUIMoniker@@@Z 10001d2f f i IndividualRecognition.obj
 0001:00000d2f       ?QueryInterface@CRegObject@ATL@@UAGJABU_GUID@@PAPAX@Z 10001d2f f i IndividualRecognition.obj
 0001:00000d2f       ?GetCanonicalFormatEtc@?$IDataObjectImpl@VCOPOSIndividualRecognition@@@ATL@@UAGJPAUtagFORMATETC@@0@Z 10001d2f f i IndividualRecognition.obj
 0001:00000d37       ?GetMoniker@?$IOleObjectImpl@VCOPOSIndividualRecognition@@@ATL@@UAGJKKPAPAUIMoniker@@@Z 10001d37 f i IndividualRecognition.obj
 0001:00000d37       ?InitFromData@?$IOleObjectImpl@VCOPOSIndividualRecognition@@@ATL@@UAGJPAUIDataObject@@HK@Z 10001d37 f i IndividualRecognition.obj
 0001:00000d37       ?SetData@?$IDataObjectImpl@VCOPOSIndividualRecognition@@@ATL@@UAGJPAUtagFORMATETC@@PAUtagSTGMEDIUM@@H@Z 10001d37 f i IndividualRecognition.obj
 0001:00000d3f       ?DoVerb@?$IOleObjectImpl@VCOPOSIndividualRecognition@@@ATL@@UAGJJPAUtagMSG@@PAUIOleClientSite@@JPAUHWND__@@PBUtagRECT@@@Z 10001d3f f i IndividualRecognition.obj
 0001:00000e33       ?EnumVerbs@?$IOleObjectImpl@VCOPOSIndividualRecognition@@@ATL@@UAGJPAPAUIEnumOLEVERB@@@Z 10001e33 f i IndividualRecognition.obj
 0001:00000e55       ?HandsOffStorage@?$IPersistStorageImpl@VCOPOSIndividualRecognition@@@ATL@@UAGJXZ 10001e55 f i IndividualRecognition.obj
 0001:00000e55       ?Update@?$IOleObjectImpl@VCOPOSIndividualRecognition@@@ATL@@UAGJXZ 10001e55 f i IndividualRecognition.obj
 0001:00000e55       ?IsUpToDate@?$IOleObjectImpl@VCOPOSIndividualRecognition@@@ATL@@UAGJXZ 10001e55 f i IndividualRecognition.obj
 0001:00000e55       ?Release@CRegObject@ATL@@UAGKXZ 10001e55 f i IndividualRecognition.obj
 0001:00000e5a       ?GetUserType@?$IOleObjectImpl@VCOPOSIndividualRecognition@@@ATL@@UAGJKPAPA_W@Z 10001e5a f i IndividualRecognition.obj
 0001:00000e72       ?SetExtent@?$IOleObjectImpl@VCOPOSIndividualRecognition@@@ATL@@UAGJKPAUtagSIZE@@@Z 10001e72 f i IndividualRecognition.obj
 0001:00000e92       ?GetExtent@?$IOleObjectImpl@VCOPOSIndividualRecognition@@@ATL@@UAGJKPAUtagSIZE@@@Z 10001e92 f i IndividualRecognition.obj
 0001:00000ed0       ?Advise@?$IOleObjectImpl@VCOPOSIndividualRecognition@@@ATL@@UAGJPAUIAdviseSink@@PAK@Z 10001ed0 f i IndividualRecognition.obj
 0001:00000ef0       ?Unadvise@?$IOleObjectImpl@VCOPOSIndividualRecognition@@@ATL@@UAGJK@Z 10001ef0 f i IndividualRecognition.obj
 0001:00000f1f       ?EnumAdvise@?$IOleObjectImpl@VCOPOSIndividualRecognition@@@ATL@@UAGJPAPAUIEnumSTATDATA@@@Z 10001f1f f i IndividualRecognition.obj
 0001:00000f5f       ?GetMiscStatus@?$IOleObjectImpl@VCOPOSIndividualRecognition@@@ATL@@UAGJKPAK@Z 10001f5f f i IndividualRecognition.obj
 0001:00000f77       ?GetWindow@?$IOleInPlaceActiveObjectImpl@VCOPOSIndividualRecognition@@@ATL@@UAGJPAPAUHWND__@@@Z 10001f77 f i IndividualRecognition.obj
 0001:00000fc4       ?TranslateAcceleratorW@?$IOleInPlaceActiveObjectImpl@VCOPOSIndividualRecognition@@@ATL@@UAGJPAUtagMSG@@@Z 10001fc4 f i IndividualRecognition.obj
 0001:00001072       ?OnDocWindowActivate@?$IOleInPlaceActiveObjectImpl@VCOPOSIndividualRecognition@@@ATL@@UAGJH@Z 10002072 f i IndividualRecognition.obj
 0001:00001094       ?ResizeBorder@?$IOleInPlaceActiveObjectImpl@VCOPOSIndividualRecognition@@@ATL@@UAGJPBUtagRECT@@PAUIOleInPlaceUIWindow@@H@Z 10002094 f i IndividualRecognition.obj
 0001:00001099       ?Draw@?$IViewObjectExImpl@VCOPOSIndividualRecognition@@@ATL@@UAGJKJPAXPAUtagDVTARGETDEVICE@@PAUHDC__@@2PBU_RECTL@@3P6GHK@ZK@Z 10002099 f i IndividualRecognition.obj
 0001:000010cb       ?GetColorSet@?$IViewObjectExImpl@VCOPOSIndividualRecognition@@@ATL@@UAGJKJPAXPAUtagDVTARGETDEVICE@@PAUHDC__@@PAPAUtagLOGPALETTE@@@Z 100020cb f i IndividualRecognition.obj
 0001:000010d3       ?Freeze@?$IViewObjectExImpl@VCOPOSIndividualRecognition@@@ATL@@UAGJKJPAXPAK@Z 100020d3 f i IndividualRecognition.obj
 0001:000010db       ?SetAdvise@?$IViewObjectExImpl@VCOPOSIndividualRecognition@@@ATL@@UAGJKKPAUIAdviseSink@@@Z 100020db f i IndividualRecognition.obj
 0001:000010fa       ?GetAdvise@?$IViewObjectExImpl@VCOPOSIndividualRecognition@@@ATL@@UAGJPAK0PAPAUIAdviseSink@@@Z 100020fa f i IndividualRecognition.obj
 0001:0000112f       ?GetExtent@?$IViewObjectExImpl@VCOPOSIndividualRecognition@@@ATL@@UAGJKJPAUtagDVTARGETDEVICE@@PAUtagSIZE@@@Z 1000212f f i IndividualRecognition.obj
 0001:00001160       ?GetViewStatus@?$IViewObjectExImpl@VCOPOSIndividualRecognition@@@ATL@@UAGJPAK@Z 10002160 f i IndividualRecognition.obj
 0001:0000117d       ?QueryHitPoint@?$IViewObjectExImpl@VCOPOSIndividualRecognition@@@ATL@@UAGJKPBUtagRECT@@UtagPOINT@@JPAK@Z 1000217d f i IndividualRecognition.obj
 0001:000011be       ?QueryHitRect@?$IViewObjectExImpl@VCOPOSIndividualRecognition@@@ATL@@UAGJKPBUtagRECT@@0JPAK@Z 100021be f i IndividualRecognition.obj
 0001:00001219       ?GetNaturalExtent@?$IViewObjectExImpl@VCOPOSIndividualRecognition@@@ATL@@UAGJKJPAUtagDVTARGETDEVICE@@PAUHDC__@@PAUtagExtentInfo@@PAUtagSIZE@@@Z 10002219 f i IndividualRecognition.obj
 0001:00001264       ?GetWindow@?$IOleInPlaceObjectWindowlessImpl@VCOPOSIndividualRecognition@@@ATL@@UAGJPAPAUHWND__@@@Z 10002264 f i IndividualRecognition.obj
 0001:000012b1       ?InPlaceDeactivate@?$IOleInPlaceObjectWindowlessImpl@VCOPOSIndividualRecognition@@@ATL@@UAGJXZ 100022b1 f i IndividualRecognition.obj
 0001:000012cb       ?UIDeactivate@?$IOleInPlaceObjectWindowlessImpl@VCOPOSIndividualRecognition@@@ATL@@UAGJXZ 100022cb f i IndividualRecognition.obj
 0001:000012e5       ?SetObjectRects@?$IOleInPlaceObjectWindowlessImpl@VCOPOSIndividualRecognition@@@ATL@@UAGJPBUtagRECT@@0@Z 100022e5 f i IndividualRecognition.obj
 0001:00001305       ?ReactivateAndUndo@?$IOleInPlaceObjectWindowlessImpl@VCOPOSIndividualRecognition@@@ATL@@UAGJXZ 10002305 f i IndividualRecognition.obj
 0001:0000130d       ?OnWindowMessage@?$IOleInPlaceObjectWindowlessImpl@VCOPOSIndividualRecognition@@@ATL@@UAGJIIJPAJ@Z 1000230d f i IndividualRecognition.obj
 0001:0000137d       ?EnumConnectionPoints@?$IConnectionPointContainerImpl@VCOPOSIndividualRecognition@@@ATL@@UAGJPAPAUIEnumConnectionPoints@@@Z 1000237d f i IndividualRecognition.obj
 0001:00001509       ?FindConnectionPoint@?$IConnectionPointContainerImpl@VCOPOSIndividualRecognition@@@ATL@@UAGJABU_GUID@@PAPAUIConnectionPoint@@@Z 10002509 f i IndividualRecognition.obj
 0001:000015ac       ?IsDirty@?$IPersistStorageImpl@VCOPOSIndividualRecognition@@@ATL@@UAGJXZ 100025ac f i IndividualRecognition.obj
 0001:000015dc       ?InitNew@?$IPersistStorageImpl@VCOPOSIndividualRecognition@@@ATL@@UAGJPAUIStorage@@@Z 100025dc f i IndividualRecognition.obj
 0001:0000160c       ?Load@?$IPersistStorageImpl@VCOPOSIndividualRecognition@@@ATL@@UAGJPAUIStorage@@@Z 1000260c f i IndividualRecognition.obj
 0001:00001678       ?Save@?$IPersistStorageImpl@VCOPOSIndividualRecognition@@@ATL@@UAGJPAUIStorage@@H@Z 10002678 f i IndividualRecognition.obj
 0001:000016eb       ?GetPages@?$ISpecifyPropertyPagesImpl@VCOPOSIndividualRecognition@@@ATL@@UAGJPAUtagCAUUID@@@Z 100026eb f i IndividualRecognition.obj
 0001:00001702       ?QuickActivate@?$IQuickActivateImpl@VCOPOSIndividualRecognition@@@ATL@@UAGJPAUtagQACONTAINER@@PAUtagQACONTROL@@@Z 10002702 f i IndividualRecognition.obj
 0001:00001725       ?SetContentExtent@?$IQuickActivateImpl@VCOPOSIndividualRecognition@@@ATL@@UAGJPAUtagSIZE@@@Z 10002725 f i IndividualRecognition.obj
 0001:00001751       ?GetContentExtent@?$IQuickActivateImpl@VCOPOSIndividualRecognition@@@ATL@@UAGJPAUtagSIZE@@@Z 10002751 f i IndividualRecognition.obj
 0001:0000178d       ?GetData@?$IDataObjectImpl@VCOPOSIndividualRecognition@@@ATL@@UAGJPAUtagFORMATETC@@PAUtagSTGMEDIUM@@@Z 1000278d f i IndividualRecognition.obj
 0001:000017b0       ?DAdvise@?$IDataObjectImpl@VCOPOSIndividualRecognition@@@ATL@@UAGJPAUtagFORMATETC@@KPAUIAdviseSink@@PAK@Z 100027b0 f i IndividualRecognition.obj
 0001:000017f1       ?DUnadvise@?$IDataObjectImpl@VCOPOSIndividualRecognition@@@ATL@@UAGJK@Z 100027f1 f i IndividualRecognition.obj
 0001:0000181f       ?EnumDAdvise@?$IDataObjectImpl@VCOPOSIndividualRecognition@@@ATL@@UAGJPAPAUIEnumSTATDATA@@@Z 1000281f f i IndividualRecognition.obj
 0001:0000185e       ?GetClassInfoW@?$IProvideClassInfo2Impl@$1?CLSID_OPOSIndividualRecognition@@3U_GUID@@B$1?DIID__IOPOSIndividualRecognitionEvents@@3U2@B$1?LIBID_OposIndividualRecognition_CCO@@3U2@B$00$0A@VCComTypeInfoHolder@ATL@@@ATL@@UAGJPAPAUITypeInfo@@@Z 1000285e f i IndividualRecognition.obj
 0001:00001874       ?GetGUID@?$IProvideClassInfo2Impl@$1?CLSID_OPOSIndividualRecognition@@3U_GUID@@B$1?DIID__IOPOSIndividualRecognitionEvents@@3U2@B$1?LIBID_OposIndividualRecognition_CCO@@3U2@B$00$0A@VCComTypeInfoHolder@ATL@@@ATL@@UAGJKPAU_GUID@@@Z 10002874 f i IndividualRecognition.obj
 0001:000018b2       ?FAccessAllowed@?$IObjectSafetyImpl@VCOPOSIndividualRecognition@@$02@ATL@@MAEHXZ 100028b2 f i IndividualRecognition.obj
 0001:000018b2       __get_startup_argv_mode    100028b2 f i LIBCMT:argv_mode.obj
 0001:000018b6       ?GetInterfaceSafetyOptions@?$IObjectSafetyImpl@VCOPOSIndividualRecognition@@$02@ATL@@UAGJABU_GUID@@PAK1@Z 100028b6 f i IndividualRecognition.obj
 0001:0000192a       ?SetInterfaceSafetyOptions@?$IObjectSafetyImpl@VCOPOSIndividualRecognition@@$02@ATL@@UAGJABU_GUID@@KK@Z 1000292a f i IndividualRecognition.obj
 0001:000019a4       ?_LocCPQueryInterface@?$IConnectionPointImpl@VCOPOSIndividualRecognition@@$1?IID_IPropertyNotifySink@@3U_GUID@@BVCComDynamicUnkArray@ATL@@@ATL@@UAGJABU_GUID@@PAPAX@Z 100029a4 f i IndividualRecognition.obj
 0001:000019a4       ?_LocCPQueryInterface@?$IConnectionPointImpl@VCOPOSIndividualRecognition@@$1?DIID__IOPOSIndividualRecognitionEvents@@3U_GUID@@BVCComDynamicUnkArray@ATL@@@ATL@@UAGJABU_GUID@@PAPAX@Z 100029a4 f i IndividualRecognition.obj
 0001:000019f1       ?GetConnectionInterface@?$IConnectionPointImpl@VCOPOSIndividualRecognition@@$1?IID_IPropertyNotifySink@@3U_GUID@@BVCComDynamicUnkArray@ATL@@@ATL@@UAGJPAU_GUID@@@Z 100029f1 f i IndividualRecognition.obj
 0001:00001a15       ?GetConnectionPointContainer@?$IConnectionPointImpl@VCOPOSIndividualRecognition@@$1?IID_IPropertyNotifySink@@3U_GUID@@BVCComDynamicUnkArray@ATL@@@ATL@@UAGJPAPAUIConnectionPointContainer@@@Z 10002a15 f i IndividualRecognition.obj
 0001:00001a38       ?Advise@?$IConnectionPointImpl@VCOPOSIndividualRecognition@@$1?DIID__IOPOSIndividualRecognitionEvents@@3U_GUID@@BVCComDynamicUnkArray@ATL@@@ATL@@UAGJPAUIUnknown@@PAK@Z 10002a38 f i IndividualRecognition.obj
 0001:00001a38       ?Advise@?$IConnectionPointImpl@VCOPOSIndividualRecognition@@$1?IID_IPropertyNotifySink@@3U_GUID@@BVCComDynamicUnkArray@ATL@@@ATL@@UAGJPAUIUnknown@@PAK@Z 10002a38 f i IndividualRecognition.obj
 0001:00001ad8       ?Unadvise@?$IConnectionPointImpl@VCOPOSIndividualRecognition@@$1?DIID__IOPOSIndividualRecognitionEvents@@3U_GUID@@BVCComDynamicUnkArray@ATL@@@ATL@@UAGJK@Z 10002ad8 f i IndividualRecognition.obj
 0001:00001ad8       ?Unadvise@?$IConnectionPointImpl@VCOPOSIndividualRecognition@@$1?IID_IPropertyNotifySink@@3U_GUID@@BVCComDynamicUnkArray@ATL@@@ATL@@UAGJK@Z 10002ad8 f i IndividualRecognition.obj
 0001:00001b18       ?EnumConnections@?$IConnectionPointImpl@VCOPOSIndividualRecognition@@$1?DIID__IOPOSIndividualRecognitionEvents@@3U_GUID@@BVCComDynamicUnkArray@ATL@@@ATL@@UAGJPAPAUIEnumConnections@@@Z 10002b18 f i IndividualRecognition.obj
 0001:00001b18       ?EnumConnections@?$IConnectionPointImpl@VCOPOSIndividualRecognition@@$1?IID_IPropertyNotifySink@@3U_GUID@@BVCComDynamicUnkArray@ATL@@@ATL@@UAGJPAPAUIEnumConnections@@@Z 10002b18 f i IndividualRecognition.obj
 0001:00001c13       ?GetCategoryMap@CComObjectRootBase@ATL@@SAPBU_ATL_CATMAP_ENTRY@2@XZ 10002c13 f i IndividualRecognition.obj
 0001:00001c13       ?GetObjectDescription@?$CComCoClass@VCOPOSIndividualRecognition@@$1?CLSID_OPOSIndividualRecognition@@3U_GUID@@B@ATL@@SGPB_WXZ 10002c13 f i IndividualRecognition.obj
 0001:00001c16       ?GetConnectionInterface@?$IConnectionPointImpl@VCOPOSIndividualRecognition@@$1?DIID__IOPOSIndividualRecognitionEvents@@3U_GUID@@BVCComDynamicUnkArray@ATL@@@ATL@@UAGJPAU_GUID@@@Z 10002c16 f i IndividualRecognition.obj
 0001:00001c3a       ?GetConnectionPointContainer@?$IConnectionPointImpl@VCOPOSIndividualRecognition@@$1?DIID__IOPOSIndividualRecognitionEvents@@3U_GUID@@BVCComDynamicUnkArray@ATL@@@ATL@@UAGJPAPAUIConnectionPointContainer@@@Z 10002c3a f i IndividualRecognition.obj
 0001:00001c5d       ?UpdateRegistry@COPOSIndividualRecognition@@SGJH@Z 10002c5d f i IndividualRecognition.obj
 0001:00001c75       ?ProcessWindowMessage@COPOSIndividualRecognition@@UAEHPAUHWND__@@IIJAAJK@Z 10002c75 f i IndividualRecognition.obj
 0001:00001cbe       ?SOData@COPOSIndividualRecognition@@MAGJJ@Z 10002cbe f i IndividualRecognition.obj
 0001:00001cf7       ?SODirectIO@COPOSIndividualRecognition@@MAGJJPAJPAPA_W@Z 10002cf7 f i IndividualRecognition.obj
 0001:00001d40       ?SOError@COPOSIndividualRecognition@@MAGJJJJPAJ@Z 10002d40 f i IndividualRecognition.obj
 0001:00001d95       ?SOStatusUpdate@COPOSIndividualRecognition@@MAGJJ@Z 10002d95 f i IndividualRecognition.obj
 0001:00001dce       ?Lock@CAtlModule@ATL@@UAEJXZ 10002dce f i IndividualRecognition.obj
 0001:00001dd8       ?Unlock@CAtlModule@ATL@@UAEJXZ 10002dd8 f i IndividualRecognition.obj
 0001:00001de2       ?GetLockCount@CAtlModule@ATL@@UAEJXZ 10002de2 f i IndividualRecognition.obj
 0001:00001de6       ?GetGITPtr@CAtlModule@ATL@@UAEJPAPAUIGlobalInterfaceTable@@@Z 10002de6 f i IndividualRecognition.obj
 0001:00001e32       ?AddCommonRGSReplacements@?$CAtlModuleT@VCComModule@ATL@@@ATL@@UAEJPAUIRegistrarBase@@@Z 10002e32 f i IndividualRecognition.obj
 0001:00001e4c       ?UpdateRegistryFromResourceD@CComModule@ATL@@UAGJIHPAU_ATL_REGMAP_ENTRY@2@@Z 10002e4c f i IndividualRecognition.obj
 0001:00001e4c       ?UpdateRegistryFromResourceD@CComModule@ATL@@UAGJPB_WHPAU_ATL_REGMAP_ENTRY@2@@Z 10002e4c f i IndividualRecognition.obj
 0001:00001e54       ?UpdateRegistryFromResource@CComModule@ATL@@UAGJPB_WHPAU_ATL_REGMAP_ENTRY@2@@Z 10002e54 f i IndividualRecognition.obj
 0001:00001e5d       ?UpdateRegistryFromResource@CComModule@ATL@@UAGJIHPAU_ATL_REGMAP_ENTRY@2@@Z 10002e5d f i IndividualRecognition.obj
 0001:00001e66       ?CreateInstance@?$CComCreator@V?$CComObjectCached@VCComClassFactory@ATL@@@ATL@@@ATL@@SGJPAXABU_GUID@@PAPAX@Z 10002e66 f i IndividualRecognition.obj
 0001:00001f06       ??_ECComModule@ATL@@UAEPAXI@Z 10002f06 f i IndividualRecognition.obj
 0001:00001f06       ??_GCComModule@ATL@@UAEPAXI@Z 10002f06 f i IndividualRecognition.obj
 0001:00001f2e       ?CreateInstance@?$CComCreator2@V?$CComCreator@V?$CComObject@VCOPOSIndividualRecognition@@@ATL@@@ATL@@V?$CComCreator@V?$CComAggObject@VCOPOSIndividualRecognition@@@ATL@@@2@@ATL@@SGJPAXABU_GUID@@PAPAX@Z 10002f2e f i IndividualRecognition.obj
 0001:00001f4e       ?AddRef@?$CComObjectCached@VCComClassFactory@ATL@@@ATL@@UAGKXZ 10002f4e f i IndividualRecognition.obj
 0001:00001f75       ?Release@?$CComObjectCached@VCComClassFactory@ATL@@@ATL@@UAGKXZ 10002f75 f i IndividualRecognition.obj
 0001:00001fab       ?QueryInterface@?$CComObjectCached@VCComClassFactory@ATL@@@ATL@@UAGJABU_GUID@@PAPAX@Z 10002fab f i IndividualRecognition.obj
 0001:00001fc5       ??_E?$CComObjectCached@VCComClassFactory@ATL@@@ATL@@UAEPAXI@Z 10002fc5 f i IndividualRecognition.obj
 0001:00001fc5       ??_G?$CComObjectCached@VCComClassFactory@ATL@@@ATL@@UAEPAXI@Z 10002fc5 f i IndividualRecognition.obj
 0001:00001fe7       ?Next@?$CComEnumImpl@UIEnumConnectionPoints@@$1?_GUID_b196b285_bab4_101a_b69c_00aa00341d07@@3U__s_GUID@@BPAUIConnectionPoint@@V?$_CopyInterface@UIConnectionPoint@@@ATL@@@ATL@@UAGJKPAPAUIConnectionPoint@@PAK@Z 10002fe7 f i IndividualRecognition.obj
 0001:000020be       ?Skip@?$CComEnumImpl@UIEnumConnectionPoints@@$1?_GUID_b196b285_bab4_101a_b69c_00aa00341d07@@3U__s_GUID@@BPAUIConnectionPoint@@V?$_CopyInterface@UIConnectionPoint@@@ATL@@@ATL@@UAGJK@Z 100030be f i IndividualRecognition.obj
 0001:000020eb       ?Reset@?$CComEnumImpl@UIEnumConnections@@$1?_GUID_b196b287_bab4_101a_b69c_00aa00341d07@@3U__s_GUID@@BUtagCONNECTDATA@@V?$_Copy@UtagCONNECTDATA@@@ATL@@@ATL@@UAGJXZ 100030eb f i IndividualRecognition.obj
 0001:000020eb       ?Reset@?$CComEnumImpl@UIEnumConnectionPoints@@$1?_GUID_b196b285_bab4_101a_b69c_00aa00341d07@@3U__s_GUID@@BPAUIConnectionPoint@@V?$_CopyInterface@UIConnectionPoint@@@ATL@@@ATL@@UAGJXZ 100030eb f i IndividualRecognition.obj
 0001:000020fd       ?Clone@?$CComEnumImpl@UIEnumConnectionPoints@@$1?_GUID_b196b285_bab4_101a_b69c_00aa00341d07@@3U__s_GUID@@BPAUIConnectionPoint@@V?$_CopyInterface@UIConnectionPoint@@@ATL@@@ATL@@UAGJPAPAUIEnumConnectionPoints@@@Z 100030fd f i IndividualRecognition.obj
 0001:000021de       ?AddRef@?$CComObject@V?$CComEnum@UIEnumConnections@@$1?_GUID_b196b287_bab4_101a_b69c_00aa00341d07@@3U__s_GUID@@BUtagCONNECTDATA@@V?$_Copy@UtagCONNECTDATA@@@ATL@@VCComSingleThreadModel@6@@ATL@@@ATL@@UAGKXZ 100031de f i IndividualRecognition.obj
 0001:000021de       ?AddRef@?$CComObject@V?$CComEnum@UIEnumConnectionPoints@@$1?_GUID_b196b285_bab4_101a_b69c_00aa00341d07@@3U__s_GUID@@BPAUIConnectionPoint@@V?$_CopyInterface@UIConnectionPoint@@@ATL@@VCComSingleThreadModel@6@@ATL@@@ATL@@UAGKXZ 100031de f i IndividualRecognition.obj
 0001:000021ef       ?Release@?$CComObject@V?$CComEnum@UIEnumConnections@@$1?_GUID_b196b287_bab4_101a_b69c_00aa00341d07@@3U__s_GUID@@BUtagCONNECTDATA@@V?$_Copy@UtagCONNECTDATA@@@ATL@@VCComSingleThreadModel@6@@ATL@@@ATL@@UAGKXZ 100031ef f i IndividualRecognition.obj
 0001:000021ef       ?Release@?$CComObject@V?$CComEnum@UIEnumConnectionPoints@@$1?_GUID_b196b285_bab4_101a_b69c_00aa00341d07@@3U__s_GUID@@BPAUIConnectionPoint@@V?$_CopyInterface@UIConnectionPoint@@@ATL@@VCComSingleThreadModel@6@@ATL@@@ATL@@UAGKXZ 100031ef f i IndividualRecognition.obj
 0001:0000222b       ?QueryInterface@?$CComObject@V?$CComEnum@UIEnumConnectionPoints@@$1?_GUID_b196b285_bab4_101a_b69c_00aa00341d07@@3U__s_GUID@@BPAUIConnectionPoint@@V?$_CopyInterface@UIConnectionPoint@@@ATL@@VCComSingleThreadModel@6@@ATL@@@ATL@@UAGJABU_GUID@@PAPAX@Z 1000322b f i IndividualRecognition.obj
 0001:00002245       ??_E?$CComObject@V?$CComEnum@UIEnumConnectionPoints@@$1?_GUID_b196b285_bab4_101a_b69c_00aa00341d07@@3U__s_GUID@@BPAUIConnectionPoint@@V?$_CopyInterface@UIConnectionPoint@@@ATL@@VCComSingleThreadModel@6@@ATL@@@ATL@@UAEPAXI@Z 10003245 f i IndividualRecognition.obj
 0001:00002245       ??_G?$CComObject@V?$CComEnum@UIEnumConnectionPoints@@$1?_GUID_b196b285_bab4_101a_b69c_00aa00341d07@@3U__s_GUID@@BPAUIConnectionPoint@@V?$_CopyInterface@UIConnectionPoint@@@ATL@@VCComSingleThreadModel@6@@ATL@@@ATL@@UAEPAXI@Z 10003245 f i IndividualRecognition.obj
 0001:00002267       ?AddRef@CRegObject@ATL@@UAGKXZ 10003267 f i IndividualRecognition.obj
 0001:0000226d       ?AddReplacement@CRegObject@ATL@@UAGJPB_W0@Z 1000326d f i IndividualRecognition.obj
 0001:000022a6       ?ClearReplacements@CRegObject@ATL@@UAGJXZ 100032a6 f i IndividualRecognition.obj
 0001:000022b8       ??_ECRegObject@ATL@@UAEPAXI@Z 100032b8 f i IndividualRecognition.obj
 0001:000022b8       ??_GCRegObject@ATL@@UAEPAXI@Z 100032b8 f i IndividualRecognition.obj
 0001:000022da       ?AddRef@?$CComAggObject@VCOPOSIndividualRecognition@@@ATL@@UAGKXZ 100032da f i IndividualRecognition.obj
 0001:000022eb       ?Release@?$CComAggObject@VCOPOSIndividualRecognition@@@ATL@@UAGKXZ 100032eb f i IndividualRecognition.obj
 0001:00002327       ?QueryInterface@?$CComAggObject@VCOPOSIndividualRecognition@@@ATL@@UAGJABU_GUID@@PAPAX@Z 10003327 f i IndividualRecognition.obj
 0001:00002376       ?AddRef@?$CComContainedObject@VCOPOSIndividualRecognition@@@ATL@@UAGKXZ 10003376 f i IndividualRecognition.obj
 0001:0000238c       ?Release@?$CComContainedObject@VCOPOSIndividualRecognition@@@ATL@@UAGKXZ 1000338c f i IndividualRecognition.obj
 0001:000023a2       ?QueryInterface@?$CComContainedObject@VCOPOSIndividualRecognition@@@ATL@@UAGJABU_GUID@@PAPAX@Z 100033a2 f i IndividualRecognition.obj
 0001:000023bd       ??_G?$CComAggObject@VCOPOSIndividualRecognition@@@ATL@@UAEPAXI@Z 100033bd f i IndividualRecognition.obj
 0001:000023bd       ??_E?$CComAggObject@VCOPOSIndividualRecognition@@@ATL@@UAEPAXI@Z 100033bd f i IndividualRecognition.obj
 0001:000023e2       ?AddRef@?$CComObject@VCOPOSIndividualRecognition@@@ATL@@UAGKXZ 100033e2 f i IndividualRecognition.obj
 0001:000023f9       ?Release@?$CComObject@VCOPOSIndividualRecognition@@@ATL@@UAGKXZ 100033f9 f i IndividualRecognition.obj
 0001:0000243b       ?QueryInterface@?$CComObject@VCOPOSIndividualRecognition@@@ATL@@UAGJABU_GUID@@PAPAX@Z 1000343b f i IndividualRecognition.obj
 0001:00002455       ?OnDrawAdvanced@CComControlBase@ATL@@UAEJAAUATL_DRAWINFO@@@Z 10003455 f i IndividualRecognition.obj
 0001:00002548       ?Next@?$CComEnumImpl@UIEnumConnections@@$1?_GUID_b196b287_bab4_101a_b69c_00aa00341d07@@3U__s_GUID@@BUtagCONNECTDATA@@V?$_Copy@UtagCONNECTDATA@@@ATL@@@ATL@@UAGJKPAUtagCONNECTDATA@@PAK@Z 10003548 f i IndividualRecognition.obj
 0001:0000261f       ?Skip@?$CComEnumImpl@UIEnumConnections@@$1?_GUID_b196b287_bab4_101a_b69c_00aa00341d07@@3U__s_GUID@@BUtagCONNECTDATA@@V?$_Copy@UtagCONNECTDATA@@@ATL@@@ATL@@UAGJK@Z 1000361f f i IndividualRecognition.obj
 0001:0000264c       ?Clone@?$CComEnumImpl@UIEnumConnections@@$1?_GUID_b196b287_bab4_101a_b69c_00aa00341d07@@3U__s_GUID@@BUtagCONNECTDATA@@V?$_Copy@UtagCONNECTDATA@@@ATL@@@ATL@@UAGJPAPAUIEnumConnections@@@Z 1000364c f i IndividualRecognition.obj
 0001:0000272d       ?QueryInterface@?$CComObject@V?$CComEnum@UIEnumConnections@@$1?_GUID_b196b287_bab4_101a_b69c_00aa00341d07@@3U__s_GUID@@BUtagCONNECTDATA@@V?$_Copy@UtagCONNECTDATA@@@ATL@@VCComSingleThreadModel@6@@ATL@@@ATL@@UAGJABU_GUID@@PAPAX@Z 1000372d f i IndividualRecognition.obj
 0001:00002747       ??_E?$CComObject@V?$CComEnum@UIEnumConnections@@$1?_GUID_b196b287_bab4_101a_b69c_00aa00341d07@@3U__s_GUID@@BUtagCONNECTDATA@@V?$_Copy@UtagCONNECTDATA@@@ATL@@VCComSingleThreadModel@6@@ATL@@@ATL@@UAEPAXI@Z 10003747 f i IndividualRecognition.obj
 0001:00002747       ??_G?$CComObject@V?$CComEnum@UIEnumConnections@@$1?_GUID_b196b287_bab4_101a_b69c_00aa00341d07@@3U__s_GUID@@BUtagCONNECTDATA@@V?$_Copy@UtagCONNECTDATA@@@ATL@@VCComSingleThreadModel@6@@ATL@@@ATL@@UAEPAXI@Z 10003747 f i IndividualRecognition.obj
 0001:00002769       ??_E?$CComObject@VCOPOSIndividualRecognition@@@ATL@@W3AEPAXI@Z 10003769 f i IndividualRecognition.obj
 0001:00002771       ??_E?$CComObject@VCOPOSIndividualRecognition@@@ATL@@WEM@AEPAXI@Z 10003771 f i IndividualRecognition.obj
 0001:00002779       ?QueryInterface@?$CComObject@VCOPOSIndividualRecognition@@@ATL@@WHA@AGJABU_GUID@@PAPAX@Z 10003779 f i IndividualRecognition.obj
 0001:00002783       ?AddRef@?$CComObject@VCOPOSIndividualRecognition@@@ATL@@WHA@AGKXZ 10003783 f i IndividualRecognition.obj
 0001:0000278d       ?Release@?$CComObject@VCOPOSIndividualRecognition@@@ATL@@WHA@AGKXZ 1000378d f i IndividualRecognition.obj
 0001:00002797       ?QueryInterface@?$CComObject@VCOPOSIndividualRecognition@@@ATL@@WHE@AGJABU_GUID@@PAPAX@Z 10003797 f i IndividualRecognition.obj
 0001:000027a1       ?AddRef@?$CComObject@VCOPOSIndividualRecognition@@@ATL@@WHE@AGKXZ 100037a1 f i IndividualRecognition.obj
 0001:000027ab       ?Release@?$CComObject@VCOPOSIndividualRecognition@@@ATL@@WHE@AGKXZ 100037ab f i IndividualRecognition.obj
 0001:000027b5       ?QueryInterface@?$CComObject@VCOPOSIndividualRecognition@@@ATL@@WHI@AGJABU_GUID@@PAPAX@Z 100037b5 f i IndividualRecognition.obj
 0001:000027bf       ?AddRef@?$CComObject@VCOPOSIndividualRecognition@@@ATL@@WHI@AGKXZ 100037bf f i IndividualRecognition.obj
 0001:000027c9       ?Release@?$CComObject@VCOPOSIndividualRecognition@@@ATL@@WHI@AGKXZ 100037c9 f i IndividualRecognition.obj
 0001:000027d3       ?QueryInterface@?$CComObject@VCOPOSIndividualRecognition@@@ATL@@WHM@AGJABU_GUID@@PAPAX@Z 100037d3 f i IndividualRecognition.obj
 0001:000027dd       ?AddRef@?$CComObject@VCOPOSIndividualRecognition@@@ATL@@WHM@AGKXZ 100037dd f i IndividualRecognition.obj
 0001:000027e7       ?Release@?$CComObject@VCOPOSIndividualRecognition@@@ATL@@WHM@AGKXZ 100037e7 f i IndividualRecognition.obj
 0001:000027f1       ?QueryInterface@?$CComObject@VCOPOSIndividualRecognition@@@ATL@@WIA@AGJABU_GUID@@PAPAX@Z 100037f1 f i IndividualRecognition.obj
 0001:000027fe       ?AddRef@?$CComObject@VCOPOSIndividualRecognition@@@ATL@@WIA@AGKXZ 100037fe f i IndividualRecognition.obj
 0001:0000280b       ?Release@?$CComObject@VCOPOSIndividualRecognition@@@ATL@@WIA@AGKXZ 1000380b f i IndividualRecognition.obj
 0001:00002818       ?QueryInterface@?$CComObject@VCOPOSIndividualRecognition@@@ATL@@WIE@AGJABU_GUID@@PAPAX@Z 10003818 f i IndividualRecognition.obj
 0001:00002825       ?AddRef@?$CComObject@VCOPOSIndividualRecognition@@@ATL@@WIE@AGKXZ 10003825 f i IndividualRecognition.obj
 0001:00002832       ?Release@?$CComObject@VCOPOSIndividualRecognition@@@ATL@@WIE@AGKXZ 10003832 f i IndividualRecognition.obj
 0001:0000283f       ?QueryInterface@?$CComObject@VCOPOSIndividualRecognition@@@ATL@@WII@AGJABU_GUID@@PAPAX@Z 1000383f f i IndividualRecognition.obj
 0001:0000284c       ?AddRef@?$CComObject@VCOPOSIndividualRecognition@@@ATL@@WII@AGKXZ 1000384c f i IndividualRecognition.obj
 0001:00002859       ?Release@?$CComObject@VCOPOSIndividualRecognition@@@ATL@@WII@AGKXZ 10003859 f i IndividualRecognition.obj
 0001:00002866       ?QueryInterface@?$CComObject@VCOPOSIndividualRecognition@@@ATL@@WIM@AGJABU_GUID@@PAPAX@Z 10003866 f i IndividualRecognition.obj
 0001:00002873       ?AddRef@?$CComObject@VCOPOSIndividualRecognition@@@ATL@@WIM@AGKXZ 10003873 f i IndividualRecognition.obj
 0001:00002880       ?Release@?$CComObject@VCOPOSIndividualRecognition@@@ATL@@WIM@AGKXZ 10003880 f i IndividualRecognition.obj
 0001:0000288d       ?QueryInterface@?$CComObject@VCOPOSIndividualRecognition@@@ATL@@WJA@AGJABU_GUID@@PAPAX@Z 1000388d f i IndividualRecognition.obj
 0001:0000289a       ?AddRef@?$CComObject@VCOPOSIndividualRecognition@@@ATL@@WJA@AGKXZ 1000389a f i IndividualRecognition.obj
 0001:000028a7       ?Release@?$CComObject@VCOPOSIndividualRecognition@@@ATL@@WJA@AGKXZ 100038a7 f i IndividualRecognition.obj
 0001:000028b4       ?QueryInterface@?$CComObject@VCOPOSIndividualRecognition@@@ATL@@WJE@AGJABU_GUID@@PAPAX@Z 100038b4 f i IndividualRecognition.obj
 0001:000028c1       ?AddRef@?$CComObject@VCOPOSIndividualRecognition@@@ATL@@WJE@AGKXZ 100038c1 f i IndividualRecognition.obj
 0001:000028ce       ?Release@?$CComObject@VCOPOSIndividualRecognition@@@ATL@@WJE@AGKXZ 100038ce f i IndividualRecognition.obj
 0001:000028db       ?QueryInterface@?$CComObject@VCOPOSIndividualRecognition@@@ATL@@WJI@AGJABU_GUID@@PAPAX@Z 100038db f i IndividualRecognition.obj
 0001:000028e8       ?AddRef@?$CComObject@VCOPOSIndividualRecognition@@@ATL@@WJI@AGKXZ 100038e8 f i IndividualRecognition.obj
 0001:000028f5       ?Release@?$CComObject@VCOPOSIndividualRecognition@@@ATL@@WJI@AGKXZ 100038f5 f i IndividualRecognition.obj
 0001:00002902       ?QueryInterface@?$CComObject@VCOPOSIndividualRecognition@@@ATL@@WJM@AGJABU_GUID@@PAPAX@Z 10003902 f i IndividualRecognition.obj
 0001:0000290f       ?AddRef@?$CComObject@VCOPOSIndividualRecognition@@@ATL@@WJM@AGKXZ 1000390f f i IndividualRecognition.obj
 0001:0000291c       ?Release@?$CComObject@VCOPOSIndividualRecognition@@@ATL@@WJM@AGKXZ 1000391c f i IndividualRecognition.obj
 0001:00002929       ?QueryInterface@?$CComObject@VCOPOSIndividualRecognition@@@ATL@@WKA@AGJABU_GUID@@PAPAX@Z 10003929 f i IndividualRecognition.obj
 0001:00002936       ?AddRef@?$CComObject@VCOPOSIndividualRecognition@@@ATL@@WKA@AGKXZ 10003936 f i IndividualRecognition.obj
 0001:00002943       ?Release@?$CComObject@VCOPOSIndividualRecognition@@@ATL@@WKA@AGKXZ 10003943 f i IndividualRecognition.obj
 0001:00002950       ?AddRef@?$CComObject@VCOPOSIndividualRecognition@@@ATL@@WKI@AGKXZ 10003950 f i IndividualRecognition.obj
 0001:0000295d       ?Release@?$CComObject@VCOPOSIndividualRecognition@@@ATL@@WKI@AGKXZ 1000395d f i IndividualRecognition.obj
 0001:0000296a       ?AddRef@?$CComObject@VCOPOSIndividualRecognition@@@ATL@@WLE@AGKXZ 1000396a f i IndividualRecognition.obj
 0001:00002977       ?Release@?$CComObject@VCOPOSIndividualRecognition@@@ATL@@WLE@AGKXZ 10003977 f i IndividualRecognition.obj
 0001:00002984       ??$?4UITypeInfo2@@@?$CComPtr@UITypeInfo@@@ATL@@QAEPAUITypeInfo@@ABV?$CComPtr@UITypeInfo2@@@1@@Z 10003984 f i IndividualRecognition.obj
 0001:000029b1       ??$AtlAdd@K@ATL@@YAJPAKKK@Z 100039b1 f i IndividualRecognition.obj
 0001:000029d4       ??$AtlAdd@_K@ATL@@YAJPA_K_K1@Z 100039d4 f i IndividualRecognition.obj
 0001:00002a0c       ??$AtlAddThrow@K@ATL@@YAKKK@Z 10003a0c f i IndividualRecognition.obj
 0001:00002a32       ??$AtlModuleRegisterWndClassInfoT@VAtlModuleRegisterWndClassInfoParamW@ATL@@@ATL@@YAGPAU_ATL_BASE_MODULE70@0@PAU_ATL_WIN_MODULE70@0@PAU_ATL_WNDCLASSINFOW@0@PAP6GJPAUHWND__@@IIJ@ZVAtlModuleRegisterWndClassInfoParamW@0@@Z 10003a32 f i IndividualRecognition.obj
 0001:00002b80       ??$AtlMultiply@H@ATL@@YAJPAHHH@Z 10003b80 f i IndividualRecognition.obj
 0001:00002bb8       ??$AtlMultiply@K@ATL@@YAJPAKKK@Z 10003bb8 f i IndividualRecognition.obj
 0001:00002bb8       ??$AtlMultiply@I@ATL@@YAJPAIII@Z 10003bb8 f i IndividualRecognition.obj
 0001:00002bda       ??$AtlMultiplyThrow@I@ATL@@YAIII@Z 10003bda f i IndividualRecognition.obj
 0001:00002c00       ??0?$CComAggObject@VCOPOSIndividualRecognition@@@ATL@@QAE@PAX@Z 10003c00 f i IndividualRecognition.obj
 0001:00002c2d       ??0?$CComContainedObject@VCOPOSIndividualRecognition@@@ATL@@QAE@PAX@Z 10003c2d f i IndividualRecognition.obj
 0001:00002ce6       ??0?$CComObject@V?$CComEnum@UIEnumConnectionPoints@@$1?_GUID_b196b285_bab4_101a_b69c_00aa00341d07@@3U__s_GUID@@BPAUIConnectionPoint@@V?$_CopyInterface@UIConnectionPoint@@@ATL@@VCComSingleThreadModel@6@@ATL@@@ATL@@QAE@PAX@Z 10003ce6 f i IndividualRecognition.obj
 0001:00002d14       ??0?$CComObject@V?$CComEnum@UIEnumConnections@@$1?_GUID_b196b287_bab4_101a_b69c_00aa00341d07@@3U__s_GUID@@BUtagCONNECTDATA@@V?$_Copy@UtagCONNECTDATA@@@ATL@@VCComSingleThreadModel@6@@ATL@@@ATL@@QAE@PAX@Z 10003d14 f i IndividualRecognition.obj
 0001:00002d42       ??0?$CComObject@VCOPOSIndividualRecognition@@@ATL@@QAE@PAX@Z 10003d42 f i IndividualRecognition.obj
 0001:00002df9       ??0?$CComQIPtr@UIOleControlSite@@$1?_GUID_b196b289_bab4_101a_b69c_00aa00341d07@@3U__s_GUID@@B@ATL@@QAE@PAUIUnknown@@@Z 10003df9 f i IndividualRecognition.obj
 0001:00002e22       ??0CAtlModule@ATL@@QAE@XZ  10003e22 f i IndividualRecognition.obj
 0001:00002e63       ??0CParseBuffer@CRegParser@ATL@@QAE@H@Z 10003e63 f i IndividualRecognition.obj
 0001:00002e99       ??0_ATL_MSG@ATL@@QAE@PAUHWND__@@IIJH@Z 10003e99 f i IndividualRecognition.obj
 0001:00002ed1       ??1?$CComAggObject@VCOPOSIndividualRecognition@@@ATL@@UAE@XZ 10003ed1 f i IndividualRecognition.obj
 0001:00002ef5       ??1?$CComEnumImpl@UIEnumConnectionPoints@@$1?_GUID_b196b285_bab4_101a_b69c_00aa00341d07@@3U__s_GUID@@BPAUIConnectionPoint@@V?$_CopyInterface@UIConnectionPoint@@@ATL@@@ATL@@UAE@XZ 10003ef5 f i IndividualRecognition.obj
 0001:00002f35       ??1?$CComEnumImpl@UIEnumConnections@@$1?_GUID_b196b287_bab4_101a_b69c_00aa00341d07@@3U__s_GUID@@BUtagCONNECTDATA@@V?$_Copy@UtagCONNECTDATA@@@ATL@@@ATL@@UAE@XZ 10003f35 f i IndividualRecognition.obj
 0001:00002f75       ??1?$CComObject@V?$CComEnum@UIEnumConnectionPoints@@$1?_GUID_b196b285_bab4_101a_b69c_00aa00341d07@@3U__s_GUID@@BPAUIConnectionPoint@@V?$_CopyInterface@UIConnectionPoint@@@ATL@@VCComSingleThreadModel@6@@ATL@@@ATL@@UAE@XZ 10003f75 f i IndividualRecognition.obj
 0001:00002f98       ??1?$CComObject@V?$CComEnum@UIEnumConnections@@$1?_GUID_b196b287_bab4_101a_b69c_00aa00341d07@@3U__s_GUID@@BUtagCONNECTDATA@@V?$_Copy@UtagCONNECTDATA@@@ATL@@VCComSingleThreadModel@6@@ATL@@@ATL@@UAE@XZ 10003f98 f i IndividualRecognition.obj
 0001:00002fbb       ??1?$CComObject@VCOPOSIndividualRecognition@@@ATL@@UAE@XZ 10003fbb f i IndividualRecognition.obj
 0001:00003079       ??1?$CComObjectCached@VCComClassFactory@ATL@@@ATL@@UAE@XZ 10004079 f i IndividualRecognition.obj
 0001:0000308f       ??1?$CComObjectRootEx@VCComMultiThreadModel@ATL@@@ATL@@QAE@XZ 1000408f f i IndividualRecognition.obj
 0001:000030a4       ??1CRegObject@ATL@@UAE@XZ  100040a4 f i IndividualRecognition.obj
 0001:000030c4       ??4?$CComPtr@UIAdviseSink@@@ATL@@QAEPAUIAdviseSink@@PAU2@@Z 100040c4 f i IndividualRecognition.obj
 0001:000030c4       ??4?$CComPtr@UIOleClientSite@@@ATL@@QAEPAUIOleClientSite@@PAU2@@Z 100040c4 f i IndividualRecognition.obj
 0001:000030c4       ??4?$CComPtr@UIUnknown@@@ATL@@QAEPAUIUnknown@@PAU2@@Z 100040c4 f i IndividualRecognition.obj
 0001:000030f8       ??_E?$CComContainedObject@VCOPOSIndividualRecognition@@@ATL@@UAEPAXI@Z 100040f8 f i IndividualRecognition.obj
 0001:000030f8       ??_G?$CComContainedObject@VCOPOSIndividualRecognition@@@ATL@@UAEPAXI@Z 100040f8 f i IndividualRecognition.obj
 0001:0000311d       ??_E?$CComObject@VCOPOSIndividualRecognition@@@ATL@@UAEPAXI@Z 1000411d f i IndividualRecognition.obj
 0001:0000311d       ??_G?$CComObject@VCOPOSIndividualRecognition@@@ATL@@UAEPAXI@Z 1000411d f i IndividualRecognition.obj
 0001:00003142       ?Add@?$CSimpleArray@GV?$CSimpleArrayEqualHelper@G@ATL@@@ATL@@QAEHABG@Z 10004142 f i IndividualRecognition.obj
 0001:000031c6       ?Add@?$CSimpleMap@PA_WPA_WVCExpansionVectorEqualHelper@ATL@@@ATL@@QAEHABQA_W0@Z 100041c6 f i IndividualRecognition.obj
 0001:0000321b       ?Add@CComDynamicUnkArray@ATL@@QAEKPAUIUnknown@@@Z 1000421b f i IndividualRecognition.obj
 0001:000032d1       ?Add@CExpansionVector@ATL@@QAEHPB_W0@Z 100042d1 f i IndividualRecognition.obj
 0001:000033da       ?AddString@CParseBuffer@CRegParser@ATL@@QAEHPB_W@Z 100043da f i IndividualRecognition.obj
 0001:0000340f       ?AddTermFunc@CAtlModule@ATL@@QAEJP6GXK@ZK@Z 1000440f f i IndividualRecognition.obj
 0001:00003472       ?AddValue@CRegParser@ATL@@IAEJAAVCRegKey@2@PB_WPA_W@Z 10004472 f i IndividualRecognition.obj
 0001:0000378c       ?Allocate@?$CAtlSafeAllocBufferManager@VCCRTAllocator@ATL@@@_ATL_SAFE_ALLOCA_IMPL@ATL@@QAEPAXK@Z 1000478c f i IndividualRecognition.obj
 0001:000037b9       ?Allocate@?$CTempBuffer@E$0BAA@VCCRTAllocator@ATL@@@ATL@@QAEPAEI@Z 100047b9 f i IndividualRecognition.obj
 0001:000037e8       ?Allocate@?$CTempBuffer@_W$0BAA@VCCRTAllocator@ATL@@@ATL@@QAEPA_WI@Z 100047e8 f i IndividualRecognition.obj
 0001:00003817       ?Allocate@?$CTempBuffer@_W$0EAA@VCCRTAllocator@ATL@@@ATL@@QAEPA_WI@Z 10004817 f i IndividualRecognition.obj
 0001:00003846       ?AllocateHeap@?$CTempBuffer@_W$0EAA@VCCRTAllocator@ATL@@@ATL@@AAEXI@Z 10004846 f i IndividualRecognition.obj
 0001:00003846       ?AllocateHeap@?$CTempBuffer@E$0BAA@VCCRTAllocator@ATL@@@ATL@@AAEXI@Z 10004846 f i IndividualRecognition.obj
 0001:00003846       ?AllocateHeap@?$CTempBuffer@_W$0BAA@VCCRTAllocator@ATL@@@ATL@@AAEXI@Z 10004846 f i IndividualRecognition.obj
 0001:0000386b       ?Append@CParseBuffer@CRegParser@ATL@@QAEHPB_WH@Z 1000486b f i IndividualRecognition.obj
 0001:000038f9       ?AtlCoTaskMemCAlloc@ATL@@YAPAXKK@Z 100048f9 f i IndividualRecognition.obj
 0001:00003926       ?AtlCoTaskMemRecalloc@ATL@@YAPAXPAXKK@Z 10004926 f i IndividualRecognition.obj
 0001:00003956       ?AtlComModuleGetClassObject@ATL@@YGJPAU_ATL_COM_MODULE70@1@ABU_GUID@@1PAPAX@Z 10004956 f i IndividualRecognition.obj
 0001:00003a49       ?AtlComModuleRegisterServer@ATL@@YGJPAU_ATL_COM_MODULE70@1@HPBU_GUID@@@Z 10004a49 f i IndividualRecognition.obj
 0001:00003ad1       ?AtlComModuleUnregisterServer@ATL@@YGJPAU_ATL_COM_MODULE70@1@HPBU_GUID@@@Z 10004ad1 f i IndividualRecognition.obj
 0001:00003b59       ?AtlComQIPtrAssign2@ATL@@YAXPAPAUIUnknown@@PAU2@ABU_GUID@@@Z 10004b59 f i IndividualRecognition.obj
 0001:00003b88       ?AtlCreateTargetDC@ATL@@YGPAUHDC__@@PAU2@PAUtagDVTARGETDEVICE@@@Z 10004b88 f i IndividualRecognition.obj
 0001:00003bf1       ?AtlCrtErrorCheck@ATL@@YAHH@Z 10004bf1 f i IndividualRecognition.obj
 0001:00003c2c       ?AtlHiMetricToPixel@ATL@@YGXPBUtagSIZE@@PAU2@@Z 10004c2c f i IndividualRecognition.obj
 0001:00003ca1       ?AtlHresultFromLastError@ATL@@YAJXZ 10004ca1 f i IndividualRecognition.obj
 0001:00003cb8       ?AtlHresultFromWin32@ATL@@YAJK@Z 10004cb8 f i IndividualRecognition.obj
 0001:00003ccd       ?AtlInternalOleLoadFromStream@ATL@@YAJPAUIStream@@ABU_GUID@@PAPAXTClassesAllowedInStream@1@K@Z 10004ccd f i IndividualRecognition.obj
 0001:00003deb       ?AtlInternalQueryInterface@ATL@@YGJPAXPBU_ATL_INTMAP_ENTRY@1@ABU_GUID@@PAPAX@Z 10004deb f i IndividualRecognition.obj
 0001:00003e8e       ?AtlLoadTypeLib@ATL@@YGJPAUHINSTANCE__@@PB_WPAPA_WPAPAUITypeLib@@@Z 10004e8e f i IndividualRecognition.obj
 0001:0000406c       ?AtlRegisterClassCategoriesHelper@ATL@@YGJABU_GUID@@PBU_ATL_CATMAP_ENTRY@1@H@Z 1000506c f i IndividualRecognition.obj
 0001:00004368       ?AtlRegisterTypeLib@ATL@@YGJPAUHINSTANCE__@@PB_W@Z 10005368 f i IndividualRecognition.obj
 0001:000044f0       ?AtlThrowImpl@ATL@@YGXJ@Z  100054f0 f i IndividualRecognition.obj
 0001:0000450e       ?AtlUnRegisterTypeLib@ATL@@YGJPAUHINSTANCE__@@PB_W@Z 1000550e f i IndividualRecognition.obj
 0001:000045b9       ?AtlWinModuleAddCreateWndData@ATL@@YGXPAU_ATL_WIN_MODULE70@1@PAU_AtlCreateWndData@1@PAX@Z 100055b9 f i IndividualRecognition.obj
 0001:0000460d       ?AtlWinModuleExtractCreateWndData@ATL@@YGPAXPAU_ATL_WIN_MODULE70@1@@Z 1000560d f i IndividualRecognition.obj
 0001:00004670       ?AtlWinModuleRegisterClassExW@ATL@@YGGPAU_ATL_WIN_MODULE70@1@PBUtagWNDCLASSEXW@@@Z 10005670 f i IndividualRecognition.obj
 0001:000046af       ?CanForceRemoveKey@CRegParser@ATL@@IAEHPB_W@Z 100056af f i IndividualRecognition.obj
 0001:000046de       ?ChToByte@CRegParser@ATL@@KAE_W@Z 100056de f i IndividualRecognition.obj
 0001:00004711       ?Cleanup@CComTypeInfoHolder@ATL@@SGXK@Z 10005711 f i IndividualRecognition.obj
 0001:00004744       ?ClearReplacements@CExpansionVector@ATL@@QAEJXZ 10005744 f i IndividualRecognition.obj
 0001:00004781       ?Close@CRegKey@ATL@@QAEJXZ 10005781 f i IndividualRecognition.obj
 0001:0000479b       ?CreateInstance@?$CComCreator@V?$CComAggObject@VCOPOSIndividualRecognition@@@ATL@@@ATL@@SGJPAXABU_GUID@@PAPAX@Z 1000579b f i IndividualRecognition.obj
 0001:00004810       ?CreateInstance@?$CComCreator@V?$CComObject@VCOPOSIndividualRecognition@@@ATL@@@ATL@@SGJPAXABU_GUID@@PAPAX@Z 10005810 f i IndividualRecognition.obj
 0001:00004890       ?CreateInstance@?$CComObject@V?$CComEnum@UIEnumConnectionPoints@@$1?_GUID_b196b285_bab4_101a_b69c_00aa00341d07@@3U__s_GUID@@BPAUIConnectionPoint@@V?$_CopyInterface@UIConnectionPoint@@@ATL@@VCComSingleThreadModel@6@@ATL@@@ATL@@SGJPAPAV12@@Z 10005890 f i IndividualRecognition.obj
 0001:000048da       ?CreateInstance@?$CComObject@V?$CComEnum@UIEnumConnections@@$1?_GUID_b196b287_bab4_101a_b69c_00aa00341d07@@3U__s_GUID@@BUtagCONNECTDATA@@V?$_Copy@UtagCONNECTDATA@@@ATL@@VCComSingleThreadModel@6@@ATL@@@ATL@@SGJPAPAV12@@Z 100058da f i IndividualRecognition.obj
 0001:00004924       ?DefaultReflectionHandler@?$CWindowImplRoot@VCWindow@ATL@@@ATL@@SAHPAUHWND__@@IIJAAJ@Z 10005924 f i IndividualRecognition.obj
 0001:00004997       ?DeleteSubKey@CRegKey@ATL@@QAEJPB_W@Z 10005997 f i IndividualRecognition.obj
 0001:00004a10       ?DoEvent@COPOSIndividualRecognition@@IAEXIIJ@Z 10005a10 f i IndividualRecognition.obj
 0001:00004a90       ?DoVerbHide@?$IOleObjectImpl@VCOPOSIndividualRecognition@@@ATL@@QAEJPBUtagRECT@@PAUHWND__@@@Z 10005a90 f i IndividualRecognition.obj
 0001:00004ac6       ?DoVerbInPlaceActivate@?$IOleObjectImpl@VCOPOSIndividualRecognition@@@ATL@@QAEJPBUtagRECT@@PAUHWND__@@@Z 10005ac6 f i IndividualRecognition.obj
 0001:00004af9       ?DoVerbPrimary@?$IOleObjectImpl@VCOPOSIndividualRecognition@@@ATL@@QAEJPBUtagRECT@@PAUHWND__@@@Z 10005af9 f i IndividualRecognition.obj
 0001:00004b85       ?DoVerbProperties@CComControlBase@ATL@@QAEJPBUtagRECT@@PAUHWND__@@@Z 10005b85 f i IndividualRecognition.obj
 0001:00004d04       ?DoVerbUIActivate@?$IOleObjectImpl@VCOPOSIndividualRecognition@@@ATL@@QAEJPBUtagRECT@@PAUHWND__@@@Z 10005d04 f i IndividualRecognition.obj
 0001:00004d41       ?DoesVerbActivate@CComControlBase@ATL@@QAEHJ@Z 10005d41 f i IndividualRecognition.obj
 0001:00004d62       ?DoesVerbUIActivate@CComControlBase@ATL@@QAEHJ@Z 10005d62 f i IndividualRecognition.obj
 0001:00004d97       ?EndOfVar@CRegParser@ATL@@IAEHXZ 10005d97 f i IndividualRecognition.obj
 0001:00004db7       ?EscapeSingleQuote@CAtlModule@ATL@@SAXPA_WIPB_W@Z 10005db7 f i IndividualRecognition.obj
 0001:00004e06       ?FindKey@?$CSimpleMap@PA_WPA_WVCExpansionVectorEqualHelper@ATL@@@ATL@@QBEHABQA_W@Z 10005e06 f i IndividualRecognition.obj
 0001:00004e3d       ?FireTheEvent@?$CProxy_IOPOSEvents@VCOPOSIndividualRecognition@@@@IAEXPAVOposVariant@@IAAJPB_WJ@Z 10005e3d f i IndividualRecognition.obj
 0001:00004ecf       ?FireViewChange@CComControlBase@ATL@@QAEJXZ 10005ecf f i IndividualRecognition.obj
 0001:00004f18       ?Fire_DataEvent@?$CProxy_IOPOSEvents@VCOPOSIndividualRecognition@@@@QAEXJ@Z 10005f18 f i IndividualRecognition.obj
 0001:00004fae       ?Fire_DirectIOEvent@?$CProxy_IOPOSEvents@VCOPOSIndividualRecognition@@@@QAEXJPAJPAPA_W@Z 10005fae f i IndividualRecognition.obj
 0001:0000509a       ?Fire_ErrorEvent@?$CProxy_IOPOSEvents@VCOPOSIndividualRecognition@@@@QAEXJJJPAJ@Z 1000609a f i IndividualRecognition.obj
 0001:0000518b       ?Fire_StatusUpdateEvent@?$CProxy_IOPOSEvents@VCOPOSIndividualRecognition@@@@QAEXJ@Z 1000618b f i IndividualRecognition.obj
 0001:00005221       ?FreeHeap@?$CTempBuffer@_W$0BAA@VCCRTAllocator@ATL@@@ATL@@AAEXXZ 10006221 f i IndividualRecognition.obj
 0001:00005221       ?FreeHeap@?$CTempBuffer@E$0BAA@VCCRTAllocator@ATL@@@ATL@@AAEXXZ 10006221 f i IndividualRecognition.obj
 0001:00005221       ?FreeHeap@?$CTempBuffer@_W$0EAA@VCCRTAllocator@ATL@@@ATL@@AAEXXZ 10006221 f i IndividualRecognition.obj
 0001:0000522a       ?GetAmbientLocaleID@CComControlBase@ATL@@QAEJAAK@Z 1000622a f i IndividualRecognition.obj
 0001:00005286       ?GetAmbientUserMode@CComControlBase@ATL@@QAEJAAH@Z 10006286 f i IndividualRecognition.obj
 0001:000052f6       ?GetAt@CComDynamicUnkArray@ATL@@QAEPAUIUnknown@@H@Z 100062f6 f i IndividualRecognition.obj
 0001:00005312       ?GetClassObject@CComModule@ATL@@QAEJABU_GUID@@0PAPAX@Z 10006312 f i IndividualRecognition.obj
 0001:000053b4       ?GetConnMap@COPOSIndividualRecognition@@SAPBU_ATL_CONNMAP_ENTRY@ATL@@PAH@Z 100063b4 f i IndividualRecognition.obj
 0001:00005424       ?GetCookie@CComDynamicUnkArray@ATL@@QAGKPAPAUIUnknown@@@Z 10006424 f i IndividualRecognition.obj
 0001:0000545c       ?GetIDsOfNames@CComTypeInfoHolder@ATL@@QAEJABU_GUID@@PAPA_WIKPAJ@Z 1000645c f i IndividualRecognition.obj
 0001:00005583       ?GetKeyAt@?$CSimpleMap@PA_WPA_WVCExpansionVectorEqualHelper@ATL@@@ATL@@QBEAAPA_WH@Z 10006583 f i IndividualRecognition.obj
 0001:000055a8       ?GetPagesHelper@?$ISpecifyPropertyPagesImpl@VCOPOSIndividualRecognition@@@ATL@@IAEJPAUtagCAUUID@@PBUATL_PROPMAP_ENTRY@2@@Z 100065a8 f i IndividualRecognition.obj
 0001:000056cf       ?GetProperty@?$CComPtr@UIDispatch@@@ATL@@SAJPAUIDispatch@@JPAUtagVARIANT@@@Z 100066cf f i IndividualRecognition.obj
 0001:0000571e       ?GetSizeMax@CComVariant@ATL@@QBEJPAT_ULARGE_INTEGER@@@Z 1000671e f i IndividualRecognition.obj
 0001:000058e0       ?GetTI@CComTypeInfoHolder@ATL@@QAEJK@Z 100068e0 f i IndividualRecognition.obj
 0001:00005abf       ?GetTI@CComTypeInfoHolder@ATL@@QAEJKPAPAUITypeInfo@@@Z 10006abf f i IndividualRecognition.obj
 0001:00005b01       ?GetUnknown@CComDynamicUnkArray@ATL@@QAGPAUIUnknown@@K@Z 10006b01 f i IndividualRecognition.obj
 0001:00005b22       ?GetValueAt@?$CSimpleMap@PA_WPA_WVCExpansionVectorEqualHelper@ATL@@@ATL@@QBEAAPA_WH@Z 10006b22 f i IndividualRecognition.obj
 0001:00005b48       ?GetZoomInfo@CComControlBase@ATL@@QAEXAAUATL_DRAWINFO@@@Z 10006b48 f i IndividualRecognition.obj
 0001:00005bdb       ?HKeyFromString@CRegParser@ATL@@KAPAUHKEY__@@PA_W@Z 10006bdb f i IndividualRecognition.obj
 0001:00005c09       ?HasSubKeys@CRegParser@ATL@@IAEHPAUHKEY__@@@Z 10006c09 f i IndividualRecognition.obj
 0001:00005c3e       ?IDataObject_GetData@CComControlBase@ATL@@QAEJPAUtagFORMATETC@@PAUtagSTGMEDIUM@@@Z 10006c3e f i IndividualRecognition.obj
 0001:00005de4       ?IOleInPlaceObject_InPlaceDeactivate@CComControlBase@ATL@@QAEJXZ 10006de4 f i IndividualRecognition.obj
 0001:00005e6b       ?IOleInPlaceObject_SetObjectRects@CComControlBase@ATL@@QAEJPBUtagRECT@@0@Z 10006e6b f i IndividualRecognition.obj
 0001:00005f38       ?IOleInPlaceObject_UIDeactivate@CComControlBase@ATL@@QAEJXZ 10006f38 f i IndividualRecognition.obj
 0001:00005ffa       ?IOleObject_Advise@CComControlBase@ATL@@QAEJPAUIAdviseSink@@PAK@Z 10006ffa f i IndividualRecognition.obj
 0001:00006024       ?IOleObject_Close@CComControlBase@ATL@@QAEJK@Z 10007024 f i IndividualRecognition.obj
 0001:00006108       ?IOleObject_GetClientSite@CComControlBase@ATL@@QAEJPAPAUIOleClientSite@@@Z 10007108 f i IndividualRecognition.obj
 0001:00006131       ?IOleObject_SetClientSite@CComControlBase@ATL@@QAEJPAUIOleClientSite@@@Z 10007131 f i IndividualRecognition.obj
 0001:00006170       ?IOleObject_SetExtent@CComControlBase@ATL@@QAEJKPAUtagSIZE@@@Z 10007170 f i IndividualRecognition.obj
 0001:00006222       ?IPSI_GetIPersistStreamInit@?$IPersistStorageImpl@VCOPOSIndividualRecognition@@@ATL@@AAEPAUIPersistStreamInit@@XZ 10007222 f i IndividualRecognition.obj
 0001:000062ca       ?IPersistStreamInit_Load@?$IPersistStreamInitImpl@VCOPOSIndividualRecognition@@@ATL@@QAEJPAUIStream@@PBUATL_PROPMAP_ENTRY@2@@Z 100072ca f i IndividualRecognition.obj
 0001:0000653f       ?IPersistStreamInit_Save@?$IPersistStreamInitImpl@VCOPOSIndividualRecognition@@@ATL@@QAEJPAUIStream@@HPBUATL_PROPMAP_ENTRY@2@@Z 1000753f f i IndividualRecognition.obj
 0001:0000672d       ?IQuickActivate_QuickActivate@CComControlBase@ATL@@QAEJPAUtagQACONTAINER@@PAUtagQACONTROL@@@Z 1000772d f i IndividualRecognition.obj
 0001:0000696f       ?IViewObject_Draw@CComControlBase@ATL@@QAEJKJPAXPAUtagDVTARGETDEVICE@@PAUHDC__@@2PBU_RECTL@@3@Z 1000796f f i IndividualRecognition.obj
 0001:00006a17       ?InPlaceActivate@CComControlBase@ATL@@QAEJJPBUtagRECT@@@Z 10007a17 f i IndividualRecognition.obj
 0001:00006c88       ?Init@?$CComEnumImpl@UIEnumConnectionPoints@@$1?_GUID_b196b285_bab4_101a_b69c_00aa00341d07@@3U__s_GUID@@BPAUIConnectionPoint@@V?$_CopyInterface@UIConnectionPoint@@@ATL@@@ATL@@QAEJPAPAUIConnectionPoint@@0PAUIUnknown@@W4CComEnumFlags@2@@Z 10007c88 f i IndividualRecognition.obj
 0001:00006d67       ?Init@?$CComEnumImpl@UIEnumConnections@@$1?_GUID_b196b287_bab4_101a_b69c_00aa00341d07@@3U__s_GUID@@BUtagCONNECTDATA@@V?$_Copy@UtagCONNECTDATA@@@ATL@@@ATL@@QAEJPAUtagCONNECTDATA@@0PAUIUnknown@@W4CComEnumFlags@2@@Z 10007d67 f i IndividualRecognition.obj
 0001:00006e46       ?Init@CComModule@ATL@@QAEJPAU_ATL_OBJMAP_ENTRY30@2@PAUHINSTANCE__@@PBU_GUID@@@Z 10007e46 f i IndividualRecognition.obj
 0001:00006ea5       ?Init@CDynamicStdCallThunk2@ATL@@QAEHKPAX@Z 10007ea5 f i IndividualRecognition.obj
 0001:00006ed0       ?InlineIsEqualUnknown@ATL@@YGHABU_GUID@@@Z 10007ed0 f i IndividualRecognition.obj
 0001:00006ef8       ?InternalSetAtIndex@?$CSimpleMap@PA_WPA_WVCExpansionVectorEqualHelper@ATL@@@ATL@@QAEXHABQA_W0@Z 10007ef8 f i IndividualRecognition.obj
 0001:00006f22       ?Invoke@CComTypeInfoHolder@ATL@@QAEJPAUIDispatch@@JABU_GUID@@KGPAUtagDISPPARAMS@@PAUtagVARIANT@@PAUtagEXCEPINFO@@PAI@Z 10007f22 f i IndividualRecognition.obj
 0001:00006f65       ?IsEqualObject@?$CComPtrBase@UITypeInfo@@@ATL@@QAE_NPAUIUnknown@@@Z 10007f65 f i IndividualRecognition.obj
 0001:00006f65       ?IsEqualObject@?$CComPtrBase@UIOleClientSite@@@ATL@@QAE_NPAUIUnknown@@@Z 10007f65 f i IndividualRecognition.obj
 0001:00006fd2       ?IsSpace@CRegParser@ATL@@IAEH_W@Z 10007fd2 f i IndividualRecognition.obj
 0001:00006ffc       ?LoadNameCache@CComTypeInfoHolder@ATL@@QAEJPAUITypeInfo@@@Z 10007ffc f i IndividualRecognition.obj
 0001:00007131       ?Lookup@?$CSimpleMap@PA_WPA_WVCExpansionVectorEqualHelper@ATL@@@ATL@@QBEPA_WABQA_W@Z 10008131 f i IndividualRecognition.obj
 0001:00007157       ?NextToken@CRegParser@ATL@@IAEJPA_W@Z 10008157 f i IndividualRecognition.obj
 0001:0000728f       ?OnKillFocus@CComControlBase@ATL@@QAEJIIJAAH@Z 1000828f f i IndividualRecognition.obj
 0001:000072ea       ?OnMouseActivate@CComControlBase@ATL@@QAEJIIJAAH@Z 100082ea f i IndividualRecognition.obj
 0001:00007358       ?OnPaint@CComControlBase@ATL@@QAEJIIJAAH@Z 10008358 f i IndividualRecognition.obj
 0001:0000740a       ?OnSetFocus@CComControlBase@ATL@@QAEJIIJAAH@Z 1000840a f i IndividualRecognition.obj
 0001:00007493       ?Open@CRegKey@ATL@@QAEJPAUHKEY__@@PB_WK@Z 10008493 f i IndividualRecognition.obj
 0001:000074e8       ?PreProcessBuffer@CRegParser@ATL@@QAEJPA_WPAPA_W@Z 100084e8 f i IndividualRecognition.obj
 0001:00007757       ?ProcessWindowMessage@?$CComControl@VCOPOSIndividualRecognition@@V?$CWindowImpl@VCOPOSIndividualRecognition@@VCWindow@ATL@@V?$CWinTraits@$0FGAAAAAA@$0A@@3@@ATL@@@ATL@@UAEHPAUHWND__@@IIJAAJK@Z 10008757 f i IndividualRecognition.obj
 0001:000077f6       ?ReadFromStream@CComBSTR@ATL@@QAEJPAUIStream@@@Z 100087f6 f i IndividualRecognition.obj
 0001:00007919       ?ReadFromStream@CComVariant@ATL@@QAEJPAUIStream@@GTClassesAllowedInStream@2@K@Z 10008919 f i IndividualRecognition.obj
 0001:00007aa3       ?RecurseDeleteKey@CRegKey@ATL@@QAEJPB_W@Z 10008aa3 f i IndividualRecognition.obj
 0001:00007b91       ?RegCreateKeyExW@CAtlTransactionManager@ATL@@QAEJPAUHKEY__@@PB_WKPA_WKKQAU_SECURITY_ATTRIBUTES@@PAPAU3@PAK@Z 10008b91 f i IndividualRecognition.obj
 0001:00007bf4       ?RegDeleteKeyW@CAtlTransactionManager@ATL@@QAEJPAUHKEY__@@PB_W@Z 10008bf4 f i IndividualRecognition.obj
 0001:00007c46       ?RegOpenKeyExW@CAtlTransactionManager@ATL@@QAEJPAUHKEY__@@PB_WKKPAPAU3@@Z 10008c46 f i IndividualRecognition.obj
 0001:00007c9d       ?Register@_ATL_WNDCLASSINFOW@ATL@@QAEGPAP6GJPAUHWND__@@IIJ@Z@Z 10008c9d f i IndividualRecognition.obj
 0001:00007cbd       ?RegisterBuffer@CRegParser@ATL@@QAEJPA_WH@Z 10008cbd f i IndividualRecognition.obj
 0001:00007e04       ?RegisterFromResource@CRegObject@ATL@@IAEJPB_W00H@Z 10008e04 f i IndividualRecognition.obj
 0001:00007f3a       ?RegisterServer@?$CAtlModuleT@VCComModule@ATL@@@ATL@@QAEJHPBU_GUID@@@Z 10008f3a f i IndividualRecognition.obj
 0001:00007f68       ?RegisterServer@CComModule@ATL@@QAEJHPBU_GUID@@@Z 10008f68 f i IndividualRecognition.obj
 0001:00007fde       ?RegisterSubkeys@CRegParser@ATL@@IAEJPA_WPAUHKEY__@@HH@Z 10008fde f i IndividualRecognition.obj
 0001:0000868b       ?Remove@CComDynamicUnkArray@ATL@@QAEHK@Z 1000968b f i IndividualRecognition.obj
 0001:000086b4       ?RemoveAll@?$CSimpleMap@PA_WPA_WVCExpansionVectorEqualHelper@ATL@@@ATL@@QAEXXZ 100096b4 f i IndividualRecognition.obj
 0001:000086e0       ?ResourceRegisterSz@CRegObject@ATL@@QAGJPB_W00@Z 100096e0 f i IndividualRecognition.obj
 0001:0000870d       ?ResourceUnregisterSz@CRegObject@ATL@@QAGJPB_W00@Z 1000970d f i IndividualRecognition.obj
 0001:0000873a       ?SendOnDataChange@CComControlBase@ATL@@QAEJK@Z 1000973a f i IndividualRecognition.obj
 0001:00008787       ?SetControlFocus@CComControlBase@ATL@@QAEHH@Z 10009787 f i IndividualRecognition.obj
 0001:00008824       ?SetMultiStringValue@CRegKey@ATL@@QAEJPB_W0@Z 10009824 f i IndividualRecognition.obj
 0001:00008880       ?SetStringValue@CRegKey@ATL@@QAEJPB_W0K@Z 10009880 f i IndividualRecognition.obj
 0001:000088c9       ?SkipAssignment@CRegParser@ATL@@IAEJPA_W@Z 100098c9 f i IndividualRecognition.obj
 0001:0000892e       ?SkipWhiteSpace@CRegParser@ATL@@IAEXXZ 1000992e f i IndividualRecognition.obj
 0001:00008950       ?StrChrW@CRegParser@ATL@@KAPA_WPA_W_W@Z 10009950 f i IndividualRecognition.obj
 0001:0000898d       ?Term@CAtlModule@ATL@@QAEXXZ 1000998d f i IndividualRecognition.obj
 0001:000089e0       ?Term@CComModule@ATL@@QAEXXZ 100099e0 f i IndividualRecognition.obj
 0001:00008a38       ?UnregisterServer@?$CAtlModuleT@VCComModule@ATL@@@ATL@@QAEJHPBU_GUID@@@Z 10009a38 f i IndividualRecognition.obj
 0001:00008a5e       ?UnregisterServer@CComModule@ATL@@QAEJHPBU_GUID@@@Z 10009a5e f i IndividualRecognition.obj
 0001:00008ad4       ?UpdateRegistryFromResource@CAtlModule@ATL@@QAGJIHPAU_ATL_REGMAP_ENTRY@2@@Z 10009ad4 f i IndividualRecognition.obj
 0001:00008c9f       ?UpdateRegistryFromResource@CAtlModule@ATL@@QAGJPB_WHPAU_ATL_REGMAP_ENTRY@2@@Z 10009c9f f i IndividualRecognition.obj
 0001:00008e70       ?VTFromRegType@CRegParser@ATL@@KAHPB_WAAG@Z 10009e70 f i IndividualRecognition.obj
 0001:00008edd       ?WindowProc@?$CWindowImplBaseT@VCWindow@ATL@@V?$CWinTraits@$0FGAAAAAA@$0A@@2@@ATL@@SGJPAUHWND__@@IIJ@Z 10009edd f i IndividualRecognition.obj
 0001:00008fcf       ?WriteToStream@CComBSTR@ATL@@QAEJPAUIStream@@@Z 10009fcf f i IndividualRecognition.obj
 0001:00009031       ?WriteToStream@CComVariant@ATL@@QAEJPAUIStream@@@Z 1000a031 f i IndividualRecognition.obj
 0001:000091ab       ?WriteToStream@CComVariant@ATL@@QAEJPAUIStream@@G@Z 1000a1ab f i IndividualRecognition.obj
 0001:00009214       ?_AtlInitialConstruct@?$CComObjectRootEx@VCComMultiThreadModel@ATL@@@ATL@@QAEJXZ 1000a214 f i IndividualRecognition.obj
 0001:00009229       ?_AtlVerifyStackAvailable@_ATL_SAFE_ALLOCA_IMPL@ATL@@YA_NK@Z 1000a229 f i IndividualRecognition.obj
 0001:000092a7       ?atlCreate@?$CWindowImpl@VCOPOSIndividualRecognition@@VCWindow@ATL@@V?$CWinTraits@$0FGAAAAAA@$0A@@3@@ATL@@QAEPAUHWND__@@PAU3@V_U_RECT@2@PB_WKKV_U_MENUorID@2@PAX@Z 1000a2a7 f i IndividualRecognition.obj
 0001:000092eb       ?atlCreate@?$CWindowImplBaseT@VCWindow@ATL@@V?$CWinTraits@$0FGAAAAAA@$0A@@2@@ATL@@QAEPAUHWND__@@PAU3@V_U_RECT@2@PB_WKKV_U_MENUorID@2@GPAX@Z 1000a2eb f i IndividualRecognition.obj
 0001:00009387       ?copy@?$_Copy@UtagCONNECTDATA@@@ATL@@SAJPAUtagCONNECTDATA@@PBU3@@Z 1000a387 f i IndividualRecognition.obj
 0001:000093bd       ?copy@?$_CopyInterface@UIConnectionPoint@@@ATL@@SAJPAPAUIConnectionPoint@@PBQAU3@@Z 1000a3bd f i IndividualRecognition.obj
 0001:000093eb       ?memcpy_s@Checked@ATL@@YAXPAXIPBXI@Z 1000a3eb f i IndividualRecognition.obj
 0001:0000940a       ?ocscpy_s@@YA_NPA_WIPB_W@Z 1000a40a f i IndividualRecognition.obj
 0001:00009454       ?wcscpy_s@Checked@ATL@@YAXPA_WIPB_W@Z 1000a454 f i IndividualRecognition.obj
 0001:00009470       _DllCanUnloadNow@0         1000a470 f   IndividualRecognition.obj
 0001:0000947c       _DllGetClassObject@12      1000a47c f   IndividualRecognition.obj
 0001:0000948a       _DllMain@12                1000a48a f   IndividualRecognition.obj
 0001:000094cc       _DllRegisterServer@0       1000a4cc f   IndividualRecognition.obj
 0001:000094db       _DllUnregisterServer@0     1000a4db f   IndividualRecognition.obj
 0001:000094ea       _InlineIsEqualGUID         1000a4ea f i IndividualRecognition.obj
 0001:0000951a       ___local_stdio_printf_options 1000a51a f i IndividualRecognition.obj
 0001:00009520       __vswprintf_s_l            1000a520 f i IndividualRecognition.obj
 0001:000095cd       _swprintf_s                1000a5cd f i IndividualRecognition.obj
 0001:000095e9       ??0?$CComControl@VCOPOSIndividualRecognition@@V?$CWindowImpl@VCOPOSIndividualRecognition@@VCWindow@ATL@@V?$CWinTraits@$0FGAAAAAA@$0A@@3@@ATL@@@ATL@@QAE@XZ 1000a5e9 f i IndividualRecognitionImpl.obj
 0001:00009610       ??0?$CProxy_IOPOSEvents@VCOPOSIndividualRecognition@@@@QAE@XZ 1000a610 f i IndividualRecognitionImpl.obj
 0001:00009633       ??0CComControlBase@ATL@@QAE@AAPAUHWND__@@@Z 1000a633 f i IndividualRecognitionImpl.obj
 0001:00009683       ??0COPOSIndividualRecognition@@QAE@XZ 1000a683 f   IndividualRecognitionImpl.obj
 0001:000096b9       ??1?$CComControl@VCOPOSIndividualRecognition@@V?$CWindowImpl@VCOPOSIndividualRecognition@@VCWindow@ATL@@V?$CWinTraits@$0FGAAAAAA@$0A@@3@@ATL@@@ATL@@UAE@XZ 1000a6b9 f i IndividualRecognitionImpl.obj
 0001:000096d2       ??1?$IConnectionPointImpl@VCOPOSIndividualRecognition@@$1?IID_IPropertyNotifySink@@3U_GUID@@BVCComDynamicUnkArray@ATL@@@ATL@@QAE@XZ 1000a6d2 f i IndividualRecognitionImpl.obj
 0001:000096d2       ??1?$IConnectionPointImpl@VCOPOSIndividualRecognition@@$1?DIID__IOPOSIndividualRecognitionEvents@@3U_GUID@@BVCComDynamicUnkArray@ATL@@@ATL@@QAE@XZ 1000a6d2 f i IndividualRecognitionImpl.obj
 0001:0000970f       ??1CComControlBase@ATL@@UAE@XZ 1000a70f f i IndividualRecognitionImpl.obj
 0001:00009772       ??1COPOSIndividualRecognition@@UAE@XZ 1000a772 f   IndividualRecognitionImpl.obj
 0001:000097ba       ?CheckHealth@COPOSIndividualRecognition@@UAGJJPAJ@Z 1000a7ba f   IndividualRecognitionImpl.obj
 0001:00009809       ?ClaimDevice@COPOSIndividualRecognition@@UAGJJPAJ@Z 1000a809 f   IndividualRecognitionImpl.obj
 0001:0000987e       ?ClearInput@COPOSIndividualRecognition@@UAGJPAJ@Z 1000a87e f   IndividualRecognitionImpl.obj
 0001:00009899       ?ClearInputProperties@COPOSIndividualRecognition@@UAGJPAJ@Z 1000a899 f   IndividualRecognitionImpl.obj
 0001:000098b4       ?Close@COPOSIndividualRecognition@@UAGJPAJ@Z 1000a8b4 f   IndividualRecognitionImpl.obj
 0001:00009922       ?CompareFirmwareVersion@COPOSIndividualRecognition@@UAGJPA_WPAJ1@Z 1000a922 f   IndividualRecognitionImpl.obj
 0001:000099a2       ?DirectIO@COPOSIndividualRecognition@@UAGJJPAJPAPA_W0@Z 1000a9a2 f   IndividualRecognitionImpl.obj
 0001:00009a50       ?DoInvoke@COPOSIndividualRecognition@@IAEJJPAVOposVariant@@IHPAJ_N@Z 1000aa50 f   IndividualRecognitionImpl.obj
 0001:00009b2c       ?EventClose@COPOSIndividualRecognition@@IAEXXZ 1000ab2c f i IndividualRecognitionImpl.obj
 0001:00009b5f       ?EventInit@COPOSIndividualRecognition@@IAEJXZ 1000ab5f f i IndividualRecognitionImpl.obj
 0001:00009c2b       ?EventUninit@COPOSIndividualRecognition@@IAEXXZ 1000ac2b f i IndividualRecognitionImpl.obj
 0001:00009c7d       ?EventWindowProc@COPOSIndividualRecognition@@IAGJIIJ@Z 1000ac7d f i IndividualRecognitionImpl.obj
 0001:00009d51       ?FinalConstruct@COPOSIndividualRecognition@@QAEJXZ 1000ad51 f   IndividualRecognitionImpl.obj
 0001:00009d8a       ?FireEventCleanup@COPOSIndividualRecognition@@IAEXXZ 1000ad8a f i IndividualRecognitionImpl.obj
 0001:00009da0       ?FireEventSetup@COPOSIndividualRecognition@@IAE_NXZ 1000ada0 f i IndividualRecognitionImpl.obj
 0001:00009dd4       ?FreezeEvents@COPOSIndividualRecognition@@MAGJH@Z 1000add4 f   IndividualRecognitionImpl.obj
 0001:00009e34       ?GetOposProp@COPOSIndividualRecognition@@IAEJJPAFJ@Z 1000ae34 f   IndividualRecognitionImpl.obj
 0001:00009e57       ?GetOposProp@COPOSIndividualRecognition@@IAEJJPAJJ@Z 1000ae57 f   IndividualRecognitionImpl.obj
 0001:00009f26       ?GetOposProp@COPOSIndividualRecognition@@IAEJJPAPA_WJ@Z 1000af26 f   IndividualRecognitionImpl.obj
 0001:0000a002       ?OnDraw@COPOSIndividualRecognition@@MAEJAAUATL_DRAWINFO@@@Z 1000b002 f   IndividualRecognitionImpl.obj
 0001:0000a0a2       ?Open@COPOSIndividualRecognition@@UAGJPA_WPAJ@Z 1000b0a2 f   IndividualRecognitionImpl.obj
 0001:0000a8e4       ?ReleaseDevice@COPOSIndividualRecognition@@UAGJPAJ@Z 1000b8e4 f   IndividualRecognitionImpl.obj
 0001:0000a933       ?ResetStatistics@COPOSIndividualRecognition@@UAGJPA_WPAJ@Z 1000b933 f   IndividualRecognitionImpl.obj
 0001:0000a98a       ?RetrieveStatistics@COPOSIndividualRecognition@@UAGJPAPA_WPAJ@Z 1000b98a f   IndividualRecognitionImpl.obj
 0001:0000a9e1       ?SOProcessID@COPOSIndividualRecognition@@UAGJPAJ@Z 1000b9e1 f   IndividualRecognitionImpl.obj
 0001:0000a9f5       ?SetCOFreezeEvents@COPOSIndividualRecognition@@IAEXF@Z 1000b9f5 f   IndividualRecognitionImpl.obj
 0001:0000aa95       ?SetOposProp@COPOSIndividualRecognition@@IAEJJJJ@Z 1000ba95 f   IndividualRecognitionImpl.obj
 0001:0000ab8c       ?SetOposProp@COPOSIndividualRecognition@@IAEJJPA_WJ@Z 1000bb8c f   IndividualRecognitionImpl.obj
 0001:0000ac8d       ?UpdateFirmware@COPOSIndividualRecognition@@UAGJPA_WPAJ@Z 1000bc8d f   IndividualRecognitionImpl.obj
 0001:0000ace4       ?UpdateStatistics@COPOSIndividualRecognition@@UAGJPA_WPAJ@Z 1000bce4 f   IndividualRecognitionImpl.obj
 0001:0000ad3b       ?get_AutoDisable@COPOSIndividualRecognition@@UAGJPAF@Z 1000bd3b f   IndividualRecognitionImpl.obj
 0001:0000ad51       ?get_BinaryConversion@COPOSIndividualRecognition@@UAGJPAJ@Z 1000bd51 f   IndividualRecognitionImpl.obj
 0001:0000ad67       ?get_CapCompareFirmwareVersion@COPOSIndividualRecognition@@UAGJPAF@Z 1000bd67 f   IndividualRecognitionImpl.obj
 0001:0000ad80       ?get_CapIndividualList@COPOSIndividualRecognition@@UAGJPAPA_W@Z 1000bd80 f   IndividualRecognitionImpl.obj
 0001:0000ad99       ?get_CapPowerReporting@COPOSIndividualRecognition@@UAGJPAJ@Z 1000bd99 f   IndividualRecognitionImpl.obj
 0001:0000adb2       ?get_CapStatisticsReporting@COPOSIndividualRecognition@@UAGJPAF@Z 1000bdb2 f   IndividualRecognitionImpl.obj
 0001:0000adcb       ?get_CapUpdateFirmware@COPOSIndividualRecognition@@UAGJPAF@Z 1000bdcb f   IndividualRecognitionImpl.obj
 0001:0000ade4       ?get_CapUpdateStatistics@COPOSIndividualRecognition@@UAGJPAF@Z 1000bde4 f   IndividualRecognitionImpl.obj
 0001:0000adfd       ?get_CheckHealthText@COPOSIndividualRecognition@@UAGJPAPA_W@Z 1000bdfd f   IndividualRecognitionImpl.obj
 0001:0000ae16       ?get_Claimed@COPOSIndividualRecognition@@UAGJPAF@Z 1000be16 f   IndividualRecognitionImpl.obj
 0001:0000ae2c       ?get_ControlObjectDescription@COPOSIndividualRecognition@@UAGJPAPA_W@Z 1000be2c f   IndividualRecognitionImpl.obj
 0001:0000ae7a       ?get_ControlObjectVersion@COPOSIndividualRecognition@@UAGJPAJ@Z 1000be7a f   IndividualRecognitionImpl.obj
 0001:0000ae8d       ?get_DataCount@COPOSIndividualRecognition@@UAGJPAJ@Z 1000be8d f   IndividualRecognitionImpl.obj
 0001:0000aea3       ?get_DataEventEnabled@COPOSIndividualRecognition@@UAGJPAF@Z 1000bea3 f   IndividualRecognitionImpl.obj
 0001:0000aeb9       ?get_DeviceDescription@COPOSIndividualRecognition@@UAGJPAPA_W@Z 1000beb9 f   IndividualRecognitionImpl.obj
 0001:0000aed2       ?get_DeviceEnabled@COPOSIndividualRecognition@@UAGJPAF@Z 1000bed2 f   IndividualRecognitionImpl.obj
 0001:0000aee8       ?get_DeviceName@COPOSIndividualRecognition@@UAGJPAPA_W@Z 1000bee8 f   IndividualRecognitionImpl.obj
 0001:0000af01       ?get_FreezeEvents@COPOSIndividualRecognition@@UAGJPAF@Z 1000bf01 f   IndividualRecognitionImpl.obj
 0001:0000af17       ?get_IndividualIDs@COPOSIndividualRecognition@@UAGJPAPA_W@Z 1000bf17 f   IndividualRecognitionImpl.obj
 0001:0000af30       ?get_IndividualRecognitionFilter@COPOSIndividualRecognition@@UAGJPAPA_W@Z 1000bf30 f   IndividualRecognitionImpl.obj
 0001:0000af49       ?get_IndividualRecognitionInformation@COPOSIndividualRecognition@@UAGJPAPA_W@Z 1000bf49 f   IndividualRecognitionImpl.obj
 0001:0000af62       ?get_OpenResult@COPOSIndividualRecognition@@UAGJPAJ@Z 1000bf62 f   IndividualRecognitionImpl.obj
 0001:0000af79       ?get_PowerNotify@COPOSIndividualRecognition@@UAGJPAJ@Z 1000bf79 f   IndividualRecognitionImpl.obj
 0001:0000af8f       ?get_PowerState@COPOSIndividualRecognition@@UAGJPAJ@Z 1000bf8f f   IndividualRecognitionImpl.obj
 0001:0000afa5       ?get_ResultCode@COPOSIndividualRecognition@@UAGJPAJ@Z 1000bfa5 f   IndividualRecognitionImpl.obj
 0001:0000afe3       ?get_ResultCodeExtended@COPOSIndividualRecognition@@UAGJPAJ@Z 1000bfe3 f   IndividualRecognitionImpl.obj
 0001:0000aff9       ?get_ServiceObjectDescription@COPOSIndividualRecognition@@UAGJPAPA_W@Z 1000bff9 f   IndividualRecognitionImpl.obj
 0001:0000b012       ?get_ServiceObjectVersion@COPOSIndividualRecognition@@UAGJPAJ@Z 1000c012 f   IndividualRecognitionImpl.obj
 0001:0000b028       ?get_State@COPOSIndividualRecognition@@UAGJPAJ@Z 1000c028 f   IndividualRecognitionImpl.obj
 0001:0000b054       ?put_AutoDisable@COPOSIndividualRecognition@@UAGJF@Z 1000c054 f   IndividualRecognitionImpl.obj
 0001:0000b071       ?put_BinaryConversion@COPOSIndividualRecognition@@UAGJJ@Z 1000c071 f   IndividualRecognitionImpl.obj
 0001:0000b087       ?put_DataEventEnabled@COPOSIndividualRecognition@@UAGJF@Z 1000c087 f   IndividualRecognitionImpl.obj
 0001:0000b0a4       ?put_DeviceEnabled@COPOSIndividualRecognition@@UAGJF@Z 1000c0a4 f   IndividualRecognitionImpl.obj
 0001:0000b0c1       ?put_FreezeEvents@COPOSIndividualRecognition@@UAGJF@Z 1000c0c1 f   IndividualRecognitionImpl.obj
 0001:0000b10d       ?put_IndividualRecognitionFilter@COPOSIndividualRecognition@@UAGJPA_W@Z 1000c10d f   IndividualRecognitionImpl.obj
 0001:0000b126       ?put_PowerNotify@COPOSIndividualRecognition@@UAGJJ@Z 1000c126 f   IndividualRecognitionImpl.obj
 0001:0000b13c       ?s_EventWindowProc@COPOSIndividualRecognition@@KGJPAUHWND__@@IIJ@Z 1000c13c f i IndividualRecognitionImpl.obj
 0001:0000b18e       ??_U@YAPAXI@Z              1000c18e f   LIBCMT:new_array.obj
 0001:0000b197       ??3@YAXPAXI@Z              1000c197 f   LIBCMT:delete_scalar_size.obj
 0001:0000b1a5       ??_V@YAXPAX@Z              1000c1a5 f   LIBCMT:delete_array.obj
 0001:0000b1aa       ??_V@YAXPAXI@Z             1000c1aa f   LIBCMT:delete_array_size.obj
 0001:0000b1fc       ___scrt_acquire_startup_lock 1000c1fc f   LIBCMT:utility.obj
 0001:0000b22e       ___scrt_dllmain_after_initialize_c 1000c22e f   LIBCMT:utility.obj
 0001:0000b259       ___scrt_dllmain_before_initialize_c 1000c259 f   LIBCMT:utility.obj
 0001:0000b267       ___scrt_dllmain_crt_thread_attach 1000c267 f   LIBCMT:utility.obj
 0001:0000b286       ___scrt_dllmain_crt_thread_detach 1000c286 f   LIBCMT:utility.obj
 0001:0000b293       ___scrt_dllmain_exception_filter 1000c293 f   LIBCMT:utility.obj
 0001:0000b2c7       ___scrt_dllmain_uninitialize_c 1000c2c7 f   LIBCMT:utility.obj
 0001:0000b2ea       ___scrt_dllmain_uninitialize_critical 1000c2ea f   LIBCMT:utility.obj
 0001:0000b2f7       ___scrt_initialize_crt     1000c2f7 f   LIBCMT:utility.obj
 0001:0000b330       ___scrt_initialize_onexit_tables 1000c330 f   LIBCMT:utility.obj
 0001:0000b3b7       ___scrt_is_nonwritable_in_current_image 1000c3b7 f   LIBCMT:utility.obj
 0001:0000b44b       ___scrt_release_startup_lock 1000c44b f   LIBCMT:utility.obj
 0001:0000b468       ___scrt_uninitialize_crt   1000c468 f   LIBCMT:utility.obj
 0001:0000b490       __onexit                   1000c490 f   LIBCMT:utility.obj
 0001:0000b4bd       _atexit                    1000c4bd f   LIBCMT:utility.obj
 0001:0000b4d2       ??3@YAXPAX@Z               1000c4d2 f   LIBCMT:delete_scalar.obj
 0001:0000b59c       __Init_thread_footer       1000c59c f   LIBCMT:thread_safe_statics.obj
 0001:0000b5e6       __Init_thread_header       1000c5e6 f   LIBCMT:thread_safe_statics.obj
 0001:0000b638       __Init_thread_notify       1000c638 f   LIBCMT:thread_safe_statics.obj
 0001:0000b66e       __Init_thread_wait         1000c66e f   LIBCMT:thread_safe_statics.obj
 0001:0000b6bc       ___raise_securityfailure   1000c6bc f   LIBCMT:gs_report.obj
 0001:0000b6e4       ___report_gsfailure        1000c6e4 f   LIBCMT:gs_report.obj
 0001:0000b7dd       ___report_rangecheckfailure 1000c7dd f   LIBCMT:gs_report.obj
 0001:0000b7e9       ___report_securityfailure  1000c7e9 f   LIBCMT:gs_report.obj
 0001:0000b8b7       ??2@YAPAXIABUnothrow_t@std@@@Z 1000c8b7 f   LIBCMT:new_scalar_nothrow.obj
 0001:0000b90c       ??_U@YAPAXIABUnothrow_t@std@@@Z 1000c90c f   LIBCMT:new_array_nothrow.obj
 0001:0000b915       @__security_check_cookie@4 1000c915 f   LIBCMT:secchk.obj
 0001:0000b930       __SEH_prolog4_GS           1000c930 f   LIBCMT:sehprolg4gs.obj
 0001:0000b977       __SEH_epilog4_GS           1000c977 f   LIBCMT:sehprolg4gs.obj
 0001:0000b990       __alloca_probe_16          1000c990 f   LIBCMT:alloca16.obj
 0001:0000b9a6       __alloca_probe_8           1000c9a6     LIBCMT:alloca16.obj
 0001:0000b9c0       __alloca_probe             1000c9c0 f   LIBCMT:chkstk.obj
 0001:0000b9c0       __chkstk                   1000c9c0 f   LIBCMT:chkstk.obj
 0001:0000bd2d       __DllMainCRTStartup@12     1000cd2d f   LIBCMT:dll_dllmain.obj
 0001:0000bd50       ??2@YAPAXI@Z               1000cd50 f   LIBCMT:new_scalar.obj
 0001:0000bd80       ___isa_available_init      1000cd80 f   LIBCMT:cpu_disp.obj
 0001:0000bf50       ___scrt_is_ucrt_dll_in_use 1000cf50 f   LIBCMT:ucrt_detection.obj
 0001:0000bf5c       ___scrt_fastfail           1000cf5c f   LIBCMT:utility_desktop.obj
 0001:0000c076       __crt_debugger_hook        1000d076 f   LIBCMT:utility_desktop.obj
 0001:0000c080       __SEH_prolog4              1000d080 f   LIBCMT:sehprolg4.obj
 0001:0000c0c4       __SEH_epilog4              1000d0c4 f   LIBCMT:sehprolg4.obj
 0001:0000c0d8       @_guard_check_icall_nop@4  1000d0d8 f i LIBCMT:guard_support.obj
 0001:0000c128       ___security_init_cookie    1000d128 f   LIBCMT:gs_support.obj
 0001:0000c173       ?__scrt_initialize_type_info@@YAXXZ 1000d173 f   LIBCMT:tncleanup.obj
 0001:0000c17f       ?__scrt_uninitialize_type_info@@YAXXZ 1000d17f f   LIBCMT:tncleanup.obj
 0001:0000c18b       ___local_stdio_scanf_options 1000d18b f i LIBCMT:default_local_stdio_options.obj
 0001:0000c191       ___scrt_initialize_default_local_stdio_options 1000d191 f   LIBCMT:default_local_stdio_options.obj
 0001:0000c1ae       ___scrt_get_dyn_tls_init_callback 1000d1ae f   LIBCMT:dyn_tls_init.obj
 0001:0000c1b4       __RTC_Initialize           1000d1b4 f   LIBCMT:initsect.obj
 0001:0000c1e0       __RTC_Terminate            1000d1e0 f   LIBCMT:initsect.obj
 0001:0000c20c       ??0bad_alloc@std@@QAE@ABV01@@Z 1000d20c f i LIBCMT:throw_bad_alloc.obj
 0001:0000c227       ??0bad_alloc@std@@QAE@XZ   1000d227 f i LIBCMT:throw_bad_alloc.obj
 0001:0000c23f       ??0bad_array_new_length@std@@QAE@ABV01@@Z 1000d23f f i LIBCMT:throw_bad_alloc.obj
 0001:0000c25a       ??0bad_array_new_length@std@@QAE@XZ 1000d25a f i LIBCMT:throw_bad_alloc.obj
 0001:0000c272       ??0exception@std@@QAE@ABV01@@Z 1000d272 f i LIBCMT:throw_bad_alloc.obj
 0001:0000c29e       ??1bad_alloc@std@@UAE@XZ   1000d29e f i LIBCMT:throw_bad_alloc.obj
 0001:0000c29e       ??1bad_exception@std@@UAE@XZ 1000d29e f i libvcruntime:frame.obj
 0001:0000c29e       ??1bad_array_new_length@std@@UAE@XZ 1000d29e f i LIBCMT:throw_bad_alloc.obj
 0001:0000c2af       ??_Ebad_exception@std@@UAEPAXI@Z 1000d2af f i libvcruntime:frame.obj
 0001:0000c2af       ??_Gbad_array_new_length@std@@UAEPAXI@Z 1000d2af f i LIBCMT:throw_bad_alloc.obj
 0001:0000c2af       ??_Ebad_array_new_length@std@@UAEPAXI@Z 1000d2af f i LIBCMT:throw_bad_alloc.obj
 0001:0000c2af       ??_Eexception@std@@UAEPAXI@Z 1000d2af f i LIBCMT:throw_bad_alloc.obj
 0001:0000c2af       ??_Gbad_alloc@std@@UAEPAXI@Z 1000d2af f i LIBCMT:throw_bad_alloc.obj
 0001:0000c2af       ??_Gexception@std@@UAEPAXI@Z 1000d2af f i LIBCMT:throw_bad_alloc.obj
 0001:0000c2af       ??_Gbad_exception@std@@UAEPAXI@Z 1000d2af f i libvcruntime:frame.obj
 0001:0000c2af       ??_Ebad_alloc@std@@UAEPAXI@Z 1000d2af f i LIBCMT:throw_bad_alloc.obj
 0001:0000c2dc       ?__scrt_throw_std_bad_alloc@@YAXXZ 1000d2dc f   LIBCMT:throw_bad_alloc.obj
 0001:0000c2f9       ?__scrt_throw_std_bad_array_new_length@@YAXXZ 1000d2f9 f   LIBCMT:throw_bad_alloc.obj
 0001:0000c316       ?what@exception@std@@UBEPBDXZ 1000d316 f i LIBCMT:throw_bad_alloc.obj
 0001:0000c323       ??_Gtype_info@@UAEPAXI@Z   1000d323 f i LIBCMT:std_type_info_static.obj
 0001:0000c323       ??_Etype_info@@UAEPAXI@Z   1000d323 f i LIBCMT:std_type_info_static.obj
 0001:0000c346       ??0CAtlBaseModule@ATL@@QAE@XZ 1000d346 f   atls:atlbase.obj
 0001:0000c399       ??0_ATL_BASE_MODULE70@ATL@@QAE@XZ 1000d399 f i atls:atlbase.obj
 0001:0000c3bc       ??1CAtlBaseModule@ATL@@QAE@XZ 1000d3bc f   atls:atlbase.obj
 0001:0000c4a9       ?Init@_stdcallthunk@ATL@@QAEHKPAX@Z 1000d4a9 f i atls:atlthunk.obj
 0001:0000c4de       ?__AllocStdCallThunk_cmn@@YAPAXXZ 1000d4de f   atls:atlthunk.obj
 0001:0000c5a4       ?__FreeStdCallThunk_cmn@@YAXPAX@Z 1000d5a4 f   atls:atlthunk.obj
 0001:0000c63f       _AtlThunk_AllocateData@0   1000d63f f   atls:atlthunk.obj
 0001:0000c6a4       _AtlThunk_DataToCode@4     1000d6a4 f   atls:atlthunk.obj
 0001:0000c6eb       _AtlThunk_FreeData@4       1000d6eb f   atls:atlthunk.obj
 0001:0000c741       _AtlThunk_InitData@12      1000d741 f   atls:atlthunk.obj
 0001:0000c790       __get_purecall_handler     1000d790 f   libvcruntime:purevirt.obj
 0001:0000c796       __purecall                 1000d796 f   libvcruntime:purevirt.obj
 0001:0000c7b2       _wcsstr                    1000d7b2 f   libvcruntime:wcsstr.obj
 0001:0000ca60       __except_handler4          1000da60 f   libvcruntime:chandler4.obj
 0001:0000cbbe       _memcmp                    1000dbbe f   libvcruntime:memcmp.obj
 0001:0000dad0       _memcpy                    1000ead0 f   libvcruntime:memcpy.obj
 0001:0000e050       _memset                    1000f050 f   libvcruntime:memset.obj
 0001:0000e1aa       ___vcrt_initialize         1000f1aa f   libvcruntime:initialization.obj
 0001:0000e1c9       ___vcrt_thread_attach      1000f1c9 f   libvcruntime:initialization.obj
 0001:0000e1d4       ___vcrt_thread_detach      1000f1d4 f   libvcruntime:initialization.obj
 0001:0000e1df       ___vcrt_uninitialize       1000f1df f   libvcruntime:initialization.obj
 0001:0000e1f6       ___vcrt_uninitialize_critical 1000f1f6 f   libvcruntime:initialization.obj
 0001:0000e1fe       ?GetRangeOfTrysToCheck@__FrameHandler3@@SA?AU?$pair@Viterator@TryBlockMap@__FrameHandler3@@V123@@std@@AAVTryBlockMap@1@HPAXPBU_s_FuncInfo@@H@Z 1000f1fe f   libvcruntime:trnsctrl.obj
 0001:0000e26e       ?_CallCatchBlock2@@YAPAXPAUEHRegistrationNode@@PBU_s_FuncInfo@@PAXHK@Z 1000f26e f   libvcruntime:trnsctrl.obj
 0001:0000e2cc       ?_CallSETranslator@@YAHPAUEHExceptionRecord@@PAUEHRegistrationNode@@PAX2PBU_s_FuncInfo@@H1@Z 1000f2cc f   libvcruntime:trnsctrl.obj
 0001:0000e3b2       ?_JumpToContinuation@@YGXPAXPAUEHRegistrationNode@@@Z 1000f3b2 f   libvcruntime:trnsctrl.obj
 0001:0000e3e2       ?_UnwindNestedFrames@@YGXPAUEHRegistrationNode@@PAUEHExceptionRecord@@@Z 1000f3e2 f   libvcruntime:trnsctrl.obj
 0001:0000e435       __CatchGuardHandler        1000f435 f   libvcruntime:trnsctrl.obj
 0001:0000e466       __CreateFrameInfo          1000f466 f   libvcruntime:trnsctrl.obj
 0001:0000e48a       __FindAndUnlinkFrame       1000f48a f   libvcruntime:trnsctrl.obj
 0001:0000e4d2       __TranslatorGuardHandler   1000f4d2 f   libvcruntime:trnsctrl.obj
 0001:0000e56f       ___CxxFrameHandler3        1000f56f f   libvcruntime:trnsctrl.obj
 0001:0000e5a5       ___DestructExceptionObject 1000f5a5 f   libvcruntime:ehhelpers.obj
 0001:0000e646       ?_CallMemberFunction0@@YGXQAX0@Z 1000f646 f i libvcruntime:ehhelpers.obj
 0001:0000e6ab       __IsExceptionObjectToBeDestroyed 1000f6ab f   libvcruntime:ehhelpers.obj
 0001:0000e6d1       ___AdjustPointer           1000f6d1 f   libvcruntime:ehhelpers.obj
 0001:0000e6f6       ___FrameUnwindFilter       1000f6f6 f   libvcruntime:ehhelpers.obj
 0001:0000e74c       ___std_type_info_compare   1000f74c f   libvcruntime:std_type_info.obj
 0001:0000e788       ___std_type_info_destroy_list 1000f788 f   libvcruntime:std_type_info.obj
 0001:0000e7ab       ___std_exception_copy      1000f7ab f   libvcruntime:std_exception.obj
 0001:0000e80e       ___std_exception_destroy   1000f80e f   libvcruntime:std_exception.obj
 0001:0000e82d       __CxxThrowException@8      1000f82d f   libvcruntime:throw.obj
 0001:0000e8a0       _memmove                   1000f8a0 f   libvcruntime:memmove.obj
 0001:0000ee20       __local_unwind4            1000fe20 f   libvcruntime:exsup4.obj
 0001:0000eef4       __seh_longjmp_unwind4@4    1000fef4 f   libvcruntime:exsup4.obj
 0001:0000ef1c       @_EH4_CallFilterFunc@8     1000ff1c f   libvcruntime:exsup4.obj
 0001:0000ef34       @_EH4_TransferToHandler@8  1000ff34 f   libvcruntime:exsup4.obj
 0001:0000ef50       @_EH4_GlobalUnwind2@8      1000ff50 f   libvcruntime:exsup4.obj
 0001:0000ef6c       @_EH4_LocalUnwind@16       1000ff6c f   libvcruntime:exsup4.obj
 0001:0000ef83       ___except_validate_context_record 1000ff83 f   libvcruntime:jbcxrval.obj
 0001:0000efb3       ___except_validate_jump_buffer 1000ffb3 f   libvcruntime:jbcxrval.obj
 0001:0000efe0       ___vcrt_freefls@4          1000ffe0 f   libvcruntime:per_thread_data.obj
 0001:0000effc       ___vcrt_freeptd            1000fffc f   libvcruntime:per_thread_data.obj
 0001:0000f032       ___vcrt_getptd             10010032 f   libvcruntime:per_thread_data.obj
 0001:0000f040       ___vcrt_getptd_noexit      10010040 f   libvcruntime:per_thread_data.obj
 0001:0000f0d2       ___vcrt_initialize_ptd     100100d2 f   libvcruntime:per_thread_data.obj
 0001:0000f105       ___vcrt_uninitialize_ptd   10010105 f   libvcruntime:per_thread_data.obj
 0001:0000f120       ___vcrt_initialize_locks   10010120 f   libvcruntime:locks.obj
 0001:0000f15c       ___vcrt_uninitialize_locks 1001015c f   libvcruntime:locks.obj
 0001:0000f8ce       ??$TypeMatchHelper@V__FrameHandler3@@@@YAHPBU_s_HandlerType@@PBU_s_CatchableType@@PBU_s_ThrowInfo@@@Z 100108ce f i libvcruntime:frame.obj
 0001:0000f95c       ??$__InternalCxxFrameHandler@V__FrameHandler3@@@@YA?AW4_EXCEPTION_DISPOSITION@@PAUEHExceptionRecord@@PAUEHRegistrationNode@@PAU_CONTEXT@@PAXPBU_s_FuncInfo@@H1E@Z 1001095c f i libvcruntime:frame.obj
 0001:0000fa5e       ??0bad_exception@std@@QAE@ABV01@@Z 10010a5e f i libvcruntime:frame.obj
 0001:0000fa79       ??0bad_exception@std@@QAE@XZ 10010a79 f i libvcruntime:frame.obj
 0001:0000fa91       ??8type_info@@QBE_NABV0@@Z 10010a91 f i libvcruntime:frame.obj
 0001:0000fcfd       ?FrameUnwindToEmptyState@__FrameHandler3@@SAXPAUEHRegistrationNode@@PAXPBU_s_FuncInfo@@@Z 10010cfd f   libvcruntime:frame.obj
 0001:0000fd15       ?FrameUnwindToState@__FrameHandler3@@SAXPAUEHRegistrationNode@@PAXPBU_s_FuncInfo@@H@Z 10010d15 f   libvcruntime:frame.obj
 0001:0000fe97       ?_CallMemberFunction1@@YGXQAX00@Z 10010e97 f i libvcruntime:frame.obj
 0001:0000fea7       ?_CallMemberFunction2@@YGXQAX00H@Z 10010ea7 f i libvcruntime:frame.obj
 0001:0000feba       ?getESTypes@__FrameHandler3@@SAPBU_s_ESTypeList@@PBU_s_FuncInfo@@@Z 10010eba f i libvcruntime:frame.obj
 0001:0000fed0       __CallSettingFrame@12      10010ed0 f   libvcruntime:lowhelpr.obj
 0001:0000fef7       __NLG_Return               10010ef7     libvcruntime:lowhelpr.obj
 0001:0000ff20       __global_unwind2           10010f20 f   libvcruntime:exsup.obj
 0001:0000ff86       __local_unwind2            10010f86 f   libvcruntime:exsup.obj
 0001:0001000a       __abnormal_termination     1001100a f   libvcruntime:exsup.obj
 0001:00010030       __NLG_Notify1              10011030 f   libvcruntime:exsup.obj
 0001:0001003c       __NLG_Notify               1001103c f   libvcruntime:exsup.obj
 0001:00010053       __NLG_Dispatch             10011053     libvcruntime:exsup.obj
 0001:00010053       __NLG_Dispatch2            10011053     libvcruntime:exsup.obj
 0001:0001005b       __NLG_Call                 1001105b f   libvcruntime:exsup.obj
 0001:0001005d       __NLG_Return2              1001105d     libvcruntime:exsup.obj
 0001:00010141       ___vcrt_FlsAlloc           10011141 f   libvcruntime:winapi_downlevel.obj
 0001:0001017c       ___vcrt_FlsFree            1001117c f   libvcruntime:winapi_downlevel.obj
 0001:000101b7       ___vcrt_FlsGetValue        100111b7 f   libvcruntime:winapi_downlevel.obj
 0001:000101f2       ___vcrt_FlsSetValue        100111f2 f   libvcruntime:winapi_downlevel.obj
 0001:00010230       ___vcrt_InitializeCriticalSectionEx 10011230 f   libvcruntime:winapi_downlevel.obj
 0001:00010277       _unexpected                10011277 f   libvcruntime:unexpected.obj
 0001:00010294       ?GetCurrentState@__FrameHandler3@@SAHPAUEHRegistrationNode@@PAXPBU_s_FuncInfo@@@Z 10011294 f   libvcruntime:ehstate.obj
 0001:000102b1       ?SetState@__FrameHandler3@@SAXPAUEHRegistrationNode@@PBU_s_FuncInfo@@H@Z 100112b1 f   libvcruntime:ehstate.obj
 0001:000102bf       _free                      100112bf f   libucrt:free.obj
 0001:000102da       ___acrt_call_reportfault   100112da f   libucrt:invalid_parameter.obj
 0001:00010413       ___acrt_initialize_invalid_parameter_handler 10011413 f   libucrt:invalid_parameter.obj
 0001:00010422       __invalid_parameter        10011422 f   libucrt:invalid_parameter.obj
 0001:00010486       __invalid_parameter_noinfo 10011486 f   libucrt:invalid_parameter.obj
 0001:00010496       __invoke_watson            10011496 f   libucrt:invalid_parameter.obj
 0001:000104ca       ___acrt_errno_from_os_error 100114ca f   libucrt:errno.obj
 0001:0001050d       ___acrt_errno_map_os_error 1001150d f   libucrt:errno.obj
 0001:00010530       ___doserrno                10011530 f   libucrt:errno.obj
 0001:00010543       __errno                    10011543 f   libucrt:errno.obj
 0001:00010556       _calloc                    10011556 f   libucrt:calloc.obj
 0001:00010561       _malloc                    10011561 f   libucrt:malloc.obj
 0001:0001056c       __recalloc                 1001156c f   libucrt:recalloc.obj
 0001:00010577       __recalloc_base            10011577 f   libucrt:recalloc.obj
 0001:000105e4       __resetstkoflw             100115e4 f   libucrt:resetstk.obj
 0001:000106a9       _wcscat_s                  100116a9 f   libucrt:wcscat_s.obj
 0001:0001071e       _wcscpy_s                  1001171e f   libucrt:wcscpy_s.obj
 0001:0001084d       _wcsncpy_s                 1001184d f   libucrt:wcsncpy_s.obj
 0001:00010a59       ??$count@D@formatting_buffer@__crt_stdio_output@@QBEIXZ 10011a59 f i libucrt:output.obj
 0001:00010a71       ??$count@_W@formatting_buffer@__crt_stdio_output@@QBEIXZ 10011a71 f i libucrt:output.obj
 0001:00010a8a       ??$ensure_buffer_is_big_enough@D@formatting_buffer@__crt_stdio_output@@QAE_NI@Z 10011a8a f i libucrt:output.obj
 0001:00010b07       ??$ensure_buffer_is_big_enough@_W@formatting_buffer@__crt_stdio_output@@QAE_NI@Z 10011b07 f i libucrt:output.obj
 0001:00010b85       ??$is_wide_character_specifier@_W@__crt_stdio_output@@YA_N_K_WW4length_modifier@0@@Z 10011b85 f i libucrt:output.obj
 0001:00010bd3       ??$scratch_data@D@formatting_buffer@__crt_stdio_output@@QAEPADXZ 10011bd3 f i libucrt:output.obj
 0001:00010bf1       ??$type_case_integer_parse_into_buffer@I@?$output_processor@_WV?$string_output_adapter@_W@__crt_stdio_output@@V?$format_validation_base@_WV?$string_output_adapter@_W@__crt_stdio_output@@@2@@__crt_stdio_output@@AAEXII_N@Z 10011bf1 f i libucrt:output.obj
 0001:00010c78       ??$type_case_integer_parse_into_buffer@_K@?$output_processor@_WV?$string_output_adapter@_W@__crt_stdio_output@@V?$format_validation_base@_WV?$string_output_adapter@_W@__crt_stdio_output@@@2@@__crt_stdio_output@@AAEX_KI_N@Z 10011c78 f i libucrt:output.obj
 0001:00010d1a       ??$write_multiple_characters@V?$string_output_adapter@_W@__crt_stdio_output@@D@__crt_stdio_output@@YAXABV?$string_output_adapter@_W@0@DHQAH@Z 10011d1a f i libucrt:output.obj
 0001:00010d4b       ??0?$common_data@_W@__crt_stdio_output@@IAE@XZ 10011d4b f i libucrt:output.obj
 0001:00010d95       ??0?$output_adapter_data@_WV?$string_output_adapter@_W@__crt_stdio_output@@@__crt_stdio_output@@IAE@ABV?$string_output_adapter@_W@1@_KQB_WQAU__crt_locale_pointers@@QAD@Z 10011d95 f i libucrt:output.obj
 0001:00010dd1       ??0_LocaleUpdate@@QAE@QAU__crt_locale_pointers@@@Z 10011dd1 f i libucrt:output.obj
 0001:00010e54       ??1formatting_buffer@__crt_stdio_output@@QAE@XZ 10011e54 f i libucrt:output.obj
 0001:00010e6e       ??4?$__crt_unique_heap_ptr@DU__crt_internal_free_policy@@@@QAEAAV0@$$QAV0@@Z 10011e6e f i libucrt:output.obj
 0001:00010ea0       ?crop_zeroes@__crt_stdio_output@@YAXPADQAU__crt_locale_pointers@@@Z 10011ea0 f i libucrt:output.obj
 0001:00010f21       ?find_next_state@?$output_processor@_WV?$string_output_adapter@_W@__crt_stdio_output@@V?$format_validation_base@_WV?$string_output_adapter@_W@__crt_stdio_output@@@2@@__crt_stdio_output@@ABE?AW4state@2@_WW432@@Z 10011f21 f i libucrt:output.obj
 0001:00010f60       ?force_decimal_point@__crt_stdio_output@@YAXPADQAU__crt_locale_pointers@@@Z 10011f60 f i libucrt:output.obj
 0001:00010fc5       ?parse_int_from_format_string@?$output_processor@_WV?$string_output_adapter@_W@__crt_stdio_output@@V?$format_validation_base@_WV?$string_output_adapter@_W@__crt_stdio_output@@@2@@__crt_stdio_output@@AAE_NQAH@Z 10011fc5 f i libucrt:output.obj
 0001:0001103b       ?process@?$output_processor@_WV?$string_output_adapter@_W@__crt_stdio_output@@V?$format_validation_base@_WV?$string_output_adapter@_W@__crt_stdio_output@@@2@@__crt_stdio_output@@QAEHXZ 1001203b f i libucrt:output.obj
 0001:00011163       ?state_case_flag@?$output_processor@_WV?$string_output_adapter@_W@__crt_stdio_output@@V?$format_validation_base@_WV?$string_output_adapter@_W@__crt_stdio_output@@@2@@__crt_stdio_output@@AAE_NXZ 10012163 f i libucrt:output.obj
 0001:000111a0       ?state_case_normal@?$output_processor@_WV?$string_output_adapter@_W@__crt_stdio_output@@V?$format_validation_base@_WV?$string_output_adapter@_W@__crt_stdio_output@@@2@@__crt_stdio_output@@AAE_NXZ 100121a0 f i libucrt:output.obj
 0001:000111bf       ?state_case_normal_common@?$output_processor@_WV?$string_output_adapter@_W@__crt_stdio_output@@V?$format_validation_base@_WV?$string_output_adapter@_W@__crt_stdio_output@@@2@@__crt_stdio_output@@AAE_NXZ 100121bf f i libucrt:output.obj
 0001:000111da       ?state_case_precision@?$output_processor@_WV?$string_output_adapter@_W@__crt_stdio_output@@V?$format_validation_base@_WV?$string_output_adapter@_W@__crt_stdio_output@@@2@@__crt_stdio_output@@AAE_NXZ 100121da f i libucrt:output.obj
 0001:00011201       ?state_case_size@?$output_processor@_WV?$string_output_adapter@_W@__crt_stdio_output@@V?$format_validation_base@_WV?$string_output_adapter@_W@__crt_stdio_output@@@2@@__crt_stdio_output@@AAE_NXZ 10012201 f i libucrt:output.obj
 0001:00011379       ?state_case_type@?$output_processor@_WV?$string_output_adapter@_W@__crt_stdio_output@@V?$format_validation_base@_WV?$string_output_adapter@_W@__crt_stdio_output@@@2@@__crt_stdio_output@@AAE_NXZ 10012379 f i libucrt:output.obj
 0001:000115d6       ?state_case_width@?$output_processor@_WV?$string_output_adapter@_W@__crt_stdio_output@@V?$format_validation_base@_WV?$string_output_adapter@_W@__crt_stdio_output@@@2@@__crt_stdio_output@@AAE_NXZ 100125d6 f i libucrt:output.obj
 0001:00011610       ?to_integer_size@__crt_stdio_output@@YAIW4length_modifier@1@@Z 10012610 f i libucrt:output.obj
 0001:0001166c       ?type_case_Z@?$output_processor@_WV?$string_output_adapter@_W@__crt_stdio_output@@V?$format_validation_base@_WV?$string_output_adapter@_W@__crt_stdio_output@@@2@@__crt_stdio_output@@AAE_NXZ 1001266c f i libucrt:output.obj
 0001:000116c6       ?type_case_a@?$output_processor@_WV?$string_output_adapter@_W@__crt_stdio_output@@V?$format_validation_base@_WV?$string_output_adapter@_W@__crt_stdio_output@@@2@@__crt_stdio_output@@AAE_NXZ 100126c6 f i libucrt:output.obj
 0001:0001182d       ?type_case_c_tchar@?$output_processor@_WV?$string_output_adapter@_W@__crt_stdio_output@@V?$format_validation_base@_WV?$string_output_adapter@_W@__crt_stdio_output@@@2@@__crt_stdio_output@@AAE_N_W@Z 1001282d f i libucrt:output.obj
 0001:000118c3       ?type_case_integer@?$output_processor@_WV?$string_output_adapter@_W@__crt_stdio_output@@V?$format_validation_base@_WV?$string_output_adapter@_W@__crt_stdio_output@@@2@@__crt_stdio_output@@AAE_NI_N@Z 100128c3 f i libucrt:output.obj
 0001:00011a18       ?type_case_n@?$output_processor@_WV?$string_output_adapter@_W@__crt_stdio_output@@V?$format_validation_base@_WV?$string_output_adapter@_W@__crt_stdio_output@@@2@@__crt_stdio_output@@AAE_NXZ 10012a18 f i libucrt:output.obj
 0001:00011a8c       ?type_case_o@?$output_processor@_WV?$string_output_adapter@_W@__crt_stdio_output@@V?$format_validation_base@_WV?$string_output_adapter@_W@__crt_stdio_output@@@2@@__crt_stdio_output@@AAE_NXZ 10012a8c f i libucrt:output.obj
 0001:00011aab       ?type_case_p@?$output_processor@_WV?$string_output_adapter@_W@__crt_stdio_output@@V?$format_validation_base@_WV?$string_output_adapter@_W@__crt_stdio_output@@@2@@__crt_stdio_output@@AAE_NXZ 10012aab f i libucrt:output.obj
 0001:00011ac3       ?type_case_s@?$output_processor@_WV?$string_output_adapter@_W@__crt_stdio_output@@V?$format_validation_base@_WV?$string_output_adapter@_W@__crt_stdio_output@@@2@@__crt_stdio_output@@AAE_NXZ 10012ac3 f i libucrt:output.obj
 0001:00011b36       ?type_case_s_compute_narrow_string_length@?$output_processor@_WV?$string_output_adapter@_W@__crt_stdio_output@@V?$format_validation_base@_WV?$string_output_adapter@_W@__crt_stdio_output@@@2@@__crt_stdio_output@@ABEHH_W@Z 10012b36 f i libucrt:output.obj
 0001:00011b7d       ?validate@?$string_output_adapter@_W@__crt_stdio_output@@QBE_NXZ 10012b7d f i libucrt:output.obj
 0001:00011b7d       ?validate@?$c_string_character_source@_W@__crt_strtox@@QBE_NXZ 10012b7d f i libucrt:atox.obj
 0001:00011b98       ?validate_and_update_state_at_end_of_format_string@?$format_validation_base@_WV?$string_output_adapter@_W@__crt_stdio_output@@@__crt_stdio_output@@IBE_NXZ 10012b98 f i libucrt:output.obj
 0001:00011bba       ?write_character@?$string_output_adapter@_W@__crt_stdio_output@@QBE_N_WQAH@Z 10012bba f i libucrt:output.obj
 0001:00011bff       ?write_stored_string_tchar@?$output_processor@_WV?$string_output_adapter@_W@__crt_stdio_output@@V?$format_validation_base@_WV?$string_output_adapter@_W@__crt_stdio_output@@@2@@__crt_stdio_output@@AAE_N_W@Z 10012bff f i libucrt:output.obj
 0001:00011c8c       ?write_string@?$string_output_adapter@_W@__crt_stdio_output@@QBEXQB_WHQAHAAV__crt_deferred_errno_cache@@@Z 10012c8c f i libucrt:output.obj
 0001:00011cfd       ___acrt_locale_get_ctype_array_value 10012cfd f i libucrt:output.obj
 0001:00011d1f       ___stdio_common_vswprintf_s 10012d1f f   libucrt:output.obj
 0001:00011d43       __seh_filter_dll           10012d43 f   libucrt:exception_filter.obj
 0001:00011d63       __seh_filter_exe           10012d63 f   libucrt:exception_filter.obj
 0001:00012131       ___acrt_initialize_thread_local_exit_callback 10013131 f   libucrt:exit.obj
 0001:00012140       __cexit                    10013140 f   libucrt:exit.obj
 0001:0001214f       __exit                     1001314f f   libucrt:exit.obj
 0001:00012165       __is_c_termination_complete 10013165 f   libucrt:exit.obj
 0001:00012416       ___acrt_allocate_buffer_for_argv 10013416 f   libucrt:argv_parsing.obj
 0001:00012465       __configure_narrow_argv    10013465 f   libucrt:argv_parsing.obj
 0001:000125c2       ??$uninitialize@A6AXAAPAPA_W@Z@?$dual_state_global@PAPA_W@__crt_state_management@@QAEXA6AXAAPAPA_W@Z@Z 100135c2 f i libucrt:environment_initialization.obj
 0001:000125c2       ??$uninitialize@A6AXAAPAPAD@Z@?$dual_state_global@PAPAD@__crt_state_management@@QAEXA6AXAAPAPAD@Z@Z 100135c2 f i libucrt:environment_initialization.obj
 0001:00012621       ___dcrt_uninitialize_environments_nolock 10013621 f   libucrt:environment_initialization.obj
 0001:00012658       __initialize_narrow_environment 10013658 f   libucrt:environment_initialization.obj
 0001:00012713       ??$__crt_fast_encode_pointer@PAP6AXXZ@@YAPAP6AXXZQAP6AXXZ@Z 10013713 f i libucrt:onexit.obj
 0001:00012713       ??$__crt_fast_encode_pointer@PAX@@YAPAXQAX@Z 10013713 f i libucrt:initialization.obj
 0001:00012713       ??$__crt_fast_encode_pointer@P6AHXZ@@YAP6AHXZQ6AHXZ@Z 10013713 f i libucrt:onexit.obj
 0001:00012935       __crt_atexit               10013935 f   libucrt:onexit.obj
 0001:0001294b       __execute_onexit_table     1001394b f   libucrt:onexit.obj
 0001:00012978       __initialize_onexit_table  10013978 f   libucrt:onexit.obj
 0001:000129a1       __register_onexit_function 100139a1 f   libucrt:onexit.obj
 0001:000129fb       ___acrt_uninitialize_command_line 100139fb f   libucrt:argv_data.obj
 0001:00012ad2       ___acrt_initialize         10013ad2 f   libucrt:initialization.obj
 0001:00012ae4       ___acrt_thread_attach      10013ae4 f   libucrt:initialization.obj
 0001:00012aef       ___acrt_thread_detach      10013aef f   libucrt:initialization.obj
 0001:00012af7       ___acrt_uninitialize       10013af7 f   libucrt:initialization.obj
 0001:00012b27       ___acrt_uninitialize_critical 10013b27 f   libucrt:initialization.obj
 0001:00012b39       __initterm                 10013b39 f   libucrt:initterm.obj
 0001:00012b7e       __initterm_e               10013b7e f   libucrt:initterm.obj
 0001:00012bac       ___acrt_initialize_new_handler 10013bac f   libucrt:new_handler.obj
 0001:00012bbb       __callnewh                 10013bbb f   libucrt:new_handler.obj
 0001:00012be8       __query_new_handler        10013be8 f   libucrt:new_handler.obj
 0001:00012c44       _terminate                 10013c44 f   libucrt:terminate.obj
 0001:00012c80       _abort                     10013c80 f   libucrt:abort.obj
 0001:00012cc4       _strcpy_s                  10013cc4 f   libucrt:strcpy_s.obj
 0001:00012d1e       ??$is_overflow_condition@K@__crt_strtox@@YA_NIK@Z 10013d1e f i libucrt:atox.obj
 0001:00012d4f       ??$parse_integer@KV?$c_string_character_source@_W@__crt_strtox@@@__crt_strtox@@YAKQAU__crt_locale_pointers@@V?$c_string_character_source@_W@0@H_N@Z 10013d4f f i libucrt:atox.obj
 0001:00013357       ?unget@?$c_string_character_source@_W@__crt_strtox@@QAEX_W@Z 10014357 f i libucrt:atox.obj
 0001:00013390       _strncmp                   10014390 f   libucrt:strncmp.obj
 0001:00013408       _wcsncmp                   10014408 f   libucrt:wcsncmp.obj
 0001:00013442       __free_base                10014442 f   libucrt:free_base.obj
 0001:000137ba       ___acrt_freeptd            100147ba f   libucrt:per_thread_data.obj
 0001:000137e6       ___acrt_getptd             100147e6 f   libucrt:per_thread_data.obj
 0001:000138a3       ___acrt_getptd_head        100148a3 f   libucrt:per_thread_data.obj
 0001:0001393d       ___acrt_getptd_noexit      1001493d f   libucrt:per_thread_data.obj
 0001:000139f2       ___acrt_initialize_ptd     100149f2 f   libucrt:per_thread_data.obj
 0001:00013a1e       ___acrt_uninitialize_ptd   10014a1e f   libucrt:per_thread_data.obj
 0001:00013a38       __calloc_base              10014a38 f   libucrt:calloc_base.obj
 0001:00013a95       __malloc_base              10014a95 f   libucrt:malloc_base.obj
 0001:00013ae3       __msize_base               10014ae3 f   libucrt:msize.obj
 0001:00013b16       __realloc_base             10014b16 f   libucrt:realloc_base.obj
 0001:00013d17       ___acrt_AppPolicyGetProcessTerminationMethodInternal@4 10014d17 f   libucrt:winapi_thunks.obj
 0001:00013d57       ___acrt_AreFileApisANSI@0  10014d57 f   libucrt:winapi_thunks.obj
 0001:00013d76       ___acrt_FlsAlloc@4         10014d76 f   libucrt:winapi_thunks.obj
 0001:00013db5       ___acrt_FlsFree@4          10014db5 f   libucrt:winapi_thunks.obj
 0001:00013df4       ___acrt_FlsGetValue@4      10014df4 f   libucrt:winapi_thunks.obj
 0001:00013e33       ___acrt_FlsSetValue@8      10014e33 f   libucrt:winapi_thunks.obj
 0001:00013e75       ___acrt_InitializeCriticalSectionEx@12 10014e75 f   libucrt:winapi_thunks.obj
 0001:00013ec0       ___acrt_LCMapStringEx@36   10014ec0 f   libucrt:winapi_thunks.obj
 0001:00013f1d       ___acrt_LocaleNameToLCID@8 10014f1d f   libucrt:winapi_thunks.obj
 0001:00013f4e       ___acrt_SetThreadStackGuarantee@4 10014f4e f   libucrt:winapi_thunks.obj
 0001:00013f89       ___acrt_initialize_winapi_thunks 10014f89 f   libucrt:winapi_thunks.obj
 0001:00013fb4       ___acrt_uninitialize_winapi_thunks 10014fb4 f   libucrt:winapi_thunks.obj
 0001:00013fea       ??$make_c_string_character_source@_WPAPA_W@__crt_strtox@@YA?AV?$c_string_character_source@_W@0@QB_WQAPA_W@Z 10014fea f i libucrt:strtox.obj
 0001:00014005       _wcstol                    10015005 f   libucrt:strtox.obj
 0001:0001402f       __mbtowc_l                 1001502f f   libucrt:mbtowc.obj
 0001:00014171       _mbtowc                    10015171 f   libucrt:mbtowc.obj
 0001:0001418b       _wcsnlen                   1001518b f   libucrt:strnlen.obj
 0001:0001433b       ___acrt_update_locale_info 1001533b f   libucrt:locale_update.obj
 0001:00014368       ___acrt_update_multibyte_info 10015368 f   libucrt:locale_update.obj
 0001:00014395       ?__acrt_fp_classify@@YA?AW4__acrt_fp_class@@ABN@Z 10015395 f i libucrt:cvt.obj
 0001:00014d47       ___acrt_fp_format          10015d47 f   libucrt:cvt.obj
 0001:00014ea5       __fileno                   10015ea5 f   libucrt:fileno.obj
 0001:00014ecc       ___acrt_initialize_stdio   10015ecc f   libucrt:_file.obj
 0001:00014f94       ___acrt_uninitialize_stdio 10015f94 f   libucrt:_file.obj
 0001:00014fe0       __lock_file                10015fe0 f   libucrt:_file.obj
 0001:00014ff4       __unlock_file              10015ff4 f   libucrt:_file.obj
 0001:00015008       __get_printf_count_output  10016008 f   libucrt:printf_count_output.obj
 0001:0001508b       ___acrt_set_locale_changed 1001608b f   libucrt:wsetlocale.obj
 0001:00015096       ___acrt_uninitialize_locale 10016096 f   libucrt:wsetlocale.obj
 0001:00015227       ___acrt_initialize_lowio   10016227 f   libucrt:ioinit.obj
 0001:00015287       ___acrt_uninitialize_lowio 10016287 f   libucrt:ioinit.obj
 0001:000152b3       ___acrt_initialize_locks   100162b3 f   libucrt:locks.obj
 0001:000152f4       ___acrt_lock               100162f4 f   libucrt:locks.obj
 0001:0001530b       ___acrt_uninitialize_locks 1001630b f   libucrt:locks.obj
 0001:0001533c       ___acrt_unlock             1001633c f   libucrt:locks.obj
 0001:00015353       ___acrt_get_process_end_policy 10016353 f   libucrt:win_policies.obj
 0001:0001551d       ??$__acrt_mbs_to_wcs_cp@U__crt_win32_buffer_internal_dynamic_resizing@@@@YAHQBDAAV?$__crt_win32_buffer@_WU__crt_win32_buffer_internal_dynamic_resizing@@@@I@Z 1001651d f i libucrt:argv_wildcards.obj
 0001:00015a31       ?__acrt_get_utf8_acp_compatibility_codepage@@YAIXZ 10016a31 f i libucrt:argv_wildcards.obj
 0001:00015a70       ?_deallocate@?$__crt_win32_buffer@DU__crt_win32_buffer_internal_dynamic_resizing@@@@AAEXXZ 10016a70 f i libucrt:argv_wildcards.obj
 0001:00015a70       ?_deallocate@?$__crt_win32_buffer@_WU__crt_win32_buffer_internal_dynamic_resizing@@@@AAEXXZ 10016a70 f i libucrt:argv_wildcards.obj
 0001:00015a8a       ?allocate@?$__crt_win32_buffer@DU__crt_win32_buffer_internal_dynamic_resizing@@@@QAEHI@Z 10016a8a f i libucrt:argv_wildcards.obj
 0001:00015ac6       ?allocate@?$__crt_win32_buffer@_WU__crt_win32_buffer_internal_dynamic_resizing@@@@QAEHI@Z 10016ac6 f i libucrt:argv_wildcards.obj
 0001:00015b05       ?allocate@__crt_win32_buffer_internal_dynamic_resizing@@SAHQAPAXIABV__crt_win32_buffer_empty_debug_info@@@Z 10016b05 f i libucrt:argv_wildcards.obj
 0001:00015bab       ___acrt_expand_narrow_argv_wildcards 10016bab f   libucrt:argv_wildcards.obj
 0001:00015c7d       ?allocate@?$__crt_win32_buffer@DU__crt_win32_buffer_no_resizing@@@@QAEHI@Z 10016c7d f i libucrt:getmodulefilenamea.obj
 0001:00015ca4       ?set_to_nullptr@?$__crt_win32_buffer@DU__crt_win32_buffer_no_resizing@@@@QAEXXZ 10016ca4 f i libucrt:getmodulefilenamea.obj
 0001:00015cb8       ___acrt_GetModuleFileNameA 10016cb8 f   libucrt:getmodulefilenamea.obj
 0001:00016271       ___acrt_initialize_multibyte 10017271 f   libucrt:mbctype.obj
 0001:000162b9       ___acrt_update_thread_multibyte_data 100172b9 f   libucrt:mbctype.obj
 0001:000162cc       __setmbcp_nolock           100172cc f   libucrt:mbctype.obj
 0001:00016597       __ismbblead                10017597 f   libucrt:ismbbyte.obj
 0001:000165af       ___acrt_initialize_command_line 100175af f   libucrt:argv_data.obj
 0001:000165c8       ___acrt_MultiByteToWideChar 100175c8 f   libucrt:multibytetowidechar.obj
 0001:00016644       ___acrt_WideCharToMultiByte 10017644 f   libucrt:widechartomultibyte.obj
 0001:00016732       ___dcrt_get_narrow_environment_from_os 10017732 f   libucrt:get_environment_from_os.obj
 0001:000167b6       ___acrt_initialize_heap    100177b6 f   libucrt:heap_handle.obj
 0001:000167c7       ___acrt_uninitialize_heap  100177c7 f   libucrt:heap_handle.obj
 0001:000167d1       ___acrt_execute_initializers 100177d1 f   libucrt:shared_initialization.obj
 0001:00016839       ___acrt_execute_uninitializers 10017839 f   libucrt:shared_initialization.obj
 0001:00016938       ___acrt_get_sigabrt_handler 10017938 f   libucrt:signal.obj
 0001:0001695f       ___acrt_initialize_signal_handlers 1001795f f   libucrt:signal.obj
 0001:0001697d       _raise                     1001797d f   libucrt:signal.obj
 0001:00016b70       ___acrt_has_user_matherr   10017b70 f   libucrt:matherr.obj
 0001:00016b88       ___acrt_initialize_user_matherr 10017b88 f   libucrt:matherr.obj
 0001:00016b97       ___acrt_invoke_user_matherr 10017b97 f   libucrt:matherr.obj
 0001:00016da6       ___acrt_stdio_flush_nolock 10017da6 f   libucrt:fflush.obj
 0001:00016e0b       __fflush_nolock            10017e0b f   libucrt:fflush.obj
 0001:00016e53       __flushall                 10017e53 f   libucrt:fflush.obj
 0001:00016e5c       ___pctype_func             10017e5c f   libucrt:ctype.obj
 0001:00016e80       _iswctype                  10017e80 f   libucrt:iswctype.obj
 0001:00016ee9       ___acrt_add_locale_ref     10017ee9 f   libucrt:locale_refcounting.obj
 0001:00016f66       ___acrt_free_locale        10017f66 f   libucrt:locale_refcounting.obj
 0001:000170ae       ___acrt_locale_add_lc_time_reference 100180ae f   libucrt:locale_refcounting.obj
 0001:000170d7       ___acrt_locale_free_lc_time_if_unreferenced 100180d7 f   libucrt:locale_refcounting.obj
 0001:00017108       ___acrt_locale_release_lc_time_reference 10018108 f   libucrt:locale_refcounting.obj
 0001:00017131       ___acrt_release_locale_ref 10018131 f   libucrt:locale_refcounting.obj
 0001:000171b2       ___acrt_update_thread_locale_data 100181b2 f   libucrt:locale_refcounting.obj
 0001:00017233       __updatetlocinfoEx_nolock  10018233 f   libucrt:locale_refcounting.obj
 0001:00017283       __query_new_mode           10018283 f   libucrt:new_mode.obj
 0001:000172da       ___acrt_DownlevelLocaleNameToLCID 100182da f   libucrt:lcidtoname_downlevel.obj
 0001:00017306       __isleadbyte_l             10018306 f i libucrt:_wctype.obj
 0001:0001736c       ?__mbrtowc_utf8@__crt_mbstring@@YAIPA_WPBDIPAU_Mbstatet@@@Z 1001836c f   libucrt:mbrtowc.obj
 0001:000173ac       ?__mbsrtowcs_utf8@__crt_mbstring@@YAIPA_WPAPBDIPAU_Mbstatet@@@Z 100183ac f   libucrt:mbrtowc.obj
 0001:000174a7       ?return_illegal_sequence@__crt_mbstring@@YAIPAU_Mbstatet@@@Z 100184a7 f i libucrt:c32rtomb.obj
 0001:00017531       ___acrt_fp_strflt_to_string 10018531 f   libucrt:_fptostr.obj
 0001:00017610       ?divide@__crt_strtox@@YA_KAAUbig_integer@1@ABU21@@Z 10018610 f i libucrt:cfout.obj
 0001:00017aa8       ___acrt_fltout             10018aa8 f   libucrt:cfout.obj
 0001:00018faf       _fegetround                10019faf f   libucrt:fegetround.obj
 0001:00018fbc       __fcloseall                10019fbc f   libucrt:closeall.obj
 0001:00019067       ___acrt_stdio_free_buffer_nolock 1001a067 f   libucrt:_freebuf.obj
 0001:000190a7       __isatty                   1001a0a7 f   libucrt:isatty.obj
 0001:000190fd       ___acrt_locale_free_monetary 1001a0fd f   libucrt:initmon.obj
 0001:000191fb       ___acrt_locale_free_numeric 1001a1fb f   libucrt:initnum.obj
 0001:0001929c       ___acrt_locale_free_time   1001a29c f   libucrt:inittime.obj
 0001:00019380       ___acrt_GetStringTypeA     1001a380 f   libucrt:getstringtypea.obj
 0001:00019483       __freea_crt                1001a483 f i libucrt:getstringtypea.obj
 0001:000194a3       ___acrt_lowio_create_handle_array 1001a4a3 f   libucrt:osfinfo.obj
 0001:0001951e       ___acrt_lowio_destroy_handle_array 1001a51e f   libucrt:osfinfo.obj
 0001:00019553       ___acrt_lowio_ensure_fh_exists 1001a553 f   libucrt:osfinfo.obj
 0001:000195f1       ___acrt_lowio_lock_fh      1001a5f1 f   libucrt:osfinfo.obj
 0001:00019614       ___acrt_lowio_unlock_fh    1001a614 f   libucrt:osfinfo.obj
 0001:00019637       __free_osfhnd              1001a637 f   libucrt:osfinfo.obj
 0001:000196c8       __get_osfhandle            1001a6c8 f   libucrt:osfinfo.obj
 0001:00019740       _qsort                     1001a740 f   libucrt:qsort.obj
 0001:00019ce1       _strncpy_s                 1001ace1 f   libucrt:strncpy_s.obj
 0001:00019cf0       _strpbrk                   1001acf0 f   libucrt:strpbrk.obj
 0001:00019d30       __mbsdec                   1001ad30 f   libucrt:mbsdec.obj
 0001:00019d47       __mbsdec_l                 1001ad47 f   libucrt:mbsdec.obj
 0001:00019fbe       ___acrt_LCMapStringA       1001afbe f   libucrt:lcmapstringa.obj
 0001:0001a0b8       __commit                   1001b0b8 f   libucrt:commit.obj
 0001:0001a8b0       __write                    1001b8b0 f   libucrt:write.obj
 0001:0001a9a2       __write_nolock             1001b9a2 f   libucrt:write.obj
 0001:0001ab7c       ___acrt_GetStringTypeW     1001bb7c f   libucrt:getstringtypew.obj
 0001:0001ab95       ___ascii_wcsnicmp          1001bb95 f   libucrt:wcsnicmp.obj
 0001:0001abe4       ?__mbrtoc32_utf8@__crt_mbstring@@YAIPA_UPBDIPAU_Mbstatet@@@Z 1001bbe4 f   libucrt:mbrtoc32.obj
 0001:0001ad8b       __controlfp_s              1001bd8b f   libucrt:contrlfp.obj
 0001:0001adea       _fegetenv                  1001bdea f   libucrt:fegetenv.obj
 0001:0001ae07       _fesetenv                  1001be07 f   libucrt:fesetenv.obj
 0001:0001ae52       _feholdexcept              1001be52 f   libucrt:feholdexcept.obj
 0001:0001aea0       __CIlog10                  1001bea0 f   libucrt:log10_impl.obj
 0001:0001aedb       __CIlog10_default          1001bedb f   libucrt:log10_impl.obj
 0001:0001aeef       __log10_default            1001beef     libucrt:log10_impl.obj
 0001:0001afb0       _ceil                      1001bfb0 f   libucrt:ceil_pentium4.obj
 0001:0001aff0       __ceil_pentium4            1001bff0 f   libucrt:ceil_pentium4.obj
 0001:0001b3ea       ___acrt_fenv_get_common_round_control 1001c3ea f   libucrt:_fenvutils.obj
 0001:0001b40c       ___acrt_fenv_get_control   1001c40c f   libucrt:_fenvutils.obj
 0001:0001b48c       ___acrt_fenv_get_status    1001c48c f   libucrt:_fenvutils.obj
 0001:0001b544       ___acrt_fenv_set_control   1001c544 f   libucrt:_fenvutils.obj
 0001:0001b5ac       ___acrt_fenv_set_status    1001c5ac f   libucrt:_fenvutils.obj
 0001:0001b71f       __lseeki64_nolock          1001c71f f   libucrt:lseek.obj
 0001:0001b73a       __fclose_nolock            1001c73a f   libucrt:fclose.obj
 0001:0001b7b1       _fclose                    1001c7b1 f   libucrt:fclose.obj
 0001:0001b835       __query_app_type           1001c835 f   libucrt:report_runtime_error.obj
 0001:0001b83b       ___strncnt                 1001c83b f   libucrt:strncnt.obj
 0001:0001b857       __putwch_nolock            1001c857 f   libucrt:putwch.obj
 0001:0001b930       __clearfp                  1001c930 f   libucrt:ieee87.obj
 0001:0001ba0e       __control87                1001ca0e f   libucrt:ieee87.obj
 0001:0001bdad       ___acrt_initialize_sse2    1001cdad f   libucrt:mathfcns.obj
 0001:0001bdc0       __CIlog10_pentium4         1001cdc0 f   libucrt:log10_pentium4.obj
 0001:0001bdd8       __log10_pentium4           1001cdd8     libucrt:log10_pentium4.obj
 0001:0001c070       __fFEXP                    1001d070 f   libucrt:87tran.obj
 0001:0001c0c7       __rtinfpopse               1001d0c7     libucrt:87tran.obj
 0001:0001c0c9       __rtinfnpopse              1001d0c9     libucrt:87tran.obj
 0001:0001c0d9       __fFLN                     1001d0d9     libucrt:87tran.obj
 0001:0001c18e       __rtinfpop                 1001d18e     libucrt:87tran.obj
 0001:0001c190       __rtinfnpop                1001d190     libucrt:87tran.obj
 0001:0001c1a0       __rtforexpinf              1001d1a0 f   libucrt:87tran.obj
 0001:0001c1ad       __ffexpm1                  1001d1ad     libucrt:87tran.obj
 0001:0001c260       __trandisp1                1001d260 f   libucrt:87disp.obj
 0001:0001c2d5       __trandisp2                1001d2d5 f   libucrt:87disp.obj
 0001:0001c36f       __rttospopde               1001d36f     libucrt:87disp.obj
 0001:0001c374       __rttospop                 1001d374     libucrt:87disp.obj
 0001:0001c380       __rtnospop                 1001d380 f   libucrt:87disp.obj
 0001:0001c390       __rttosnpop                1001d390 f   libucrt:87disp.obj
 0001:0001c391       __rtnospopde               1001d391     libucrt:87disp.obj
 0001:0001c398       __rtzeropop                1001d398     libucrt:87disp.obj
 0001:0001c39a       __rtzeronpop               1001d39a     libucrt:87disp.obj
 0001:0001c3a0       __rtzerospop               1001d3a0 f   libucrt:87disp.obj
 0001:0001c3ad       __rtonepop                 1001d3ad     libucrt:87disp.obj
 0001:0001c3b0       __rtonenpop                1001d3b0 f   libucrt:87disp.obj
 0001:0001c3c0       __tosnan1                  1001d3c0 f   libucrt:87disp.obj
 0001:0001c3f0       __nosnan2                  1001d3f0 f   libucrt:87disp.obj
 0001:0001c400       __tosnan2                  1001d400 f   libucrt:87disp.obj
 0001:0001c430       __nan2                     1001d430 f   libucrt:87disp.obj
 0001:0001c470       __rtindfpop                1001d470 f   libucrt:87disp.obj
 0001:0001c472       __rtindfnpop               1001d472     libucrt:87disp.obj
 0001:0001c483       __rttosnpopde              1001d483     libucrt:87disp.obj
 0001:0001c490       __rtatan2inf               1001d490 f   libucrt:87disp.obj
 0001:0001c4ad       __rtchsifneg               1001d4ad     libucrt:87disp.obj
 0001:0001c4c0       __twoToTOS                 1001d4c0 f   libucrt:common.obj
 0001:0001c4d5       __load_CW                  1001d4d5 f   libucrt:common.obj
 0001:0001c4ec       __convertTOStoQNaN         1001d4ec f   libucrt:common.obj
 0001:0001c505       __fload_withFB             1001d505 f   libucrt:common.obj
 0001:0001c548       __checkTOS_withFB          1001d548 f   libucrt:common.obj
 0001:0001c55e       __fast_exit                1001d55e f   libucrt:common.obj
 0001:0001c56b       __math_exit                1001d56b f   libucrt:common.obj
 0001:0001c595       __check_overflow_exit      1001d595 f   libucrt:common.obj
 0001:0001c5a9       __check_range_exit         1001d5a9 f   libucrt:common.obj
 0001:0001c650       __startTwoArgErrorHandling 1001d650 f   libucrt:genexcep.obj
 0001:0001c667       __startOneArgErrorHandling 1001d667 f   libucrt:genexcep.obj
 0001:0001c6a3       ___libm_error_support      1001d6a3 f   libucrt:libm_error.obj
 0001:0001c897       __ceil_default             1001d897 f   libucrt:ceil.obj
 0001:0001c9d8       __close                    1001d9d8 f   libucrt:close.obj
 0001:0001ca65       __close_nolock             1001da65 f   libucrt:close.obj
 0001:0001cb01       ?__acrt_stdio_free_stream@@YAXV__crt_stdio_stream@@@Z 1001db01 f   libucrt:stream.obj
 0001:0001cb40       ___ascii_strnicmp          1001db40 f   libucrt:_strnicm.obj
 0001:0001cbc0       ___dcrt_lowio_ensure_console_output_initialized 1001dbc0 f   libucrt:initcon.obj
 0001:0001cbdf       ___dcrt_terminate_console_output 1001dbdf f   libucrt:initcon.obj
 0001:0001cbf6       ___dcrt_write_console      1001dbf6 f   libucrt:initcon.obj
 0001:0001cc4b       ___set_fpsr_sse2           1001dc4b f   libucrt:fpctrl.obj
 0001:0001cccb       __clrfp                    1001dccb f   libucrt:fpctrl.obj
 0001:0001ccdc       __ctrlfp                   1001dcdc f   libucrt:fpctrl.obj
 0001:0001cd06       __set_statfp               1001dd06 f   libucrt:fpctrl.obj
 0001:0001cd5f       __statfp                   1001dd5f f   libucrt:fpctrl.obj
 0001:0001cd6f       __d_inttype                1001dd6f f   libucrt:powhlp.obj
 0001:0001cdd7       __powhlp                   1001ddd7 f   libucrt:powhlp.obj
 0001:0001cf02       __87except                 1001df02 f   libucrt:87except.obj
 0001:0001d00c       __frnd                     1001e00c f   libucrt:frnd.obj
 0001:0001d020       __errcode                  1001e020 f   libucrt:fpexcept.obj
 0001:0001d054       __except1                  1001e054 f   libucrt:fpexcept.obj
 0001:0001d122       __handle_exc               1001e122 f   libucrt:fpexcept.obj
 0001:0001d30d       __raise_exc                1001e30d f   libucrt:fpexcept.obj
 0001:0001d330       __raise_exc_ex             1001e330 f   libucrt:fpexcept.obj
 0001:0001d626       __set_errno_from_matherr   1001e626 f   libucrt:fpexcept.obj
 0001:0001d655       __umatherr                 1001e655 f   libucrt:fpexcept.obj
 0001:0001d6f5       __decomp                   1001e6f5 f   libucrt:util.obj
 0001:0001d7c7       __set_exp                  1001e7c7 f   libucrt:util.obj
 0001:0001d7f4       __sptype                   1001e7f4 f   libucrt:util.obj
 0001:0001d852       __fpclass                  1001e852 f   libucrt:ieeemisc.obj
 0001:0001d8f6       _IsProcessorFeaturePresent@4 1001e8f6 f   kernel32:KERNEL32.dll
 0001:0001d900       __FindPESection            1001e900 f   LIBCMT:pesect.obj
 0001:0001d950       __IsNonwritableInCurrentImage 1001e950 f   LIBCMT:pesect.obj
 0001:0001da10       __ValidateImageBase        1001ea10 f   LIBCMT:pesect.obj
 0001:0001da43       __EH_prolog3_catch         1001ea43 f   LIBCMT:ehprolg3.obj
 0001:0001da80       __aulldvrm                 1001ea80 f   LIBCMT:ulldvrm.obj
 0001:0001db20       __allmul                   1001eb20 f   LIBCMT:llmul.obj
 0001:0001db60       __alldvrm                  1001eb60 f   LIBCMT:lldvrm.obj
 0001:0001dc40       __allshl                   1001ec40 f   LIBCMT:llshl.obj
 0001:0001dc60       __aullshr                  1001ec60 f   LIBCMT:ullshr.obj
 0001:0001dc80       __ftoi2                    1001ec80 f   LIBCMT:ftol2.obj
 0001:0001dc80       __ftol2_sse_excpt          1001ec80     LIBCMT:ftol2.obj
 0001:0001dc80       __ftol2_sse                1001ec80     LIBCMT:ftol2.obj
 0001:0001dd00       __ftoui2                   1001ed00 f   LIBCMT:ftol2.obj
 0001:0001ddb0       __ftol2                    1001edb0 f   LIBCMT:ftol2.obj
 0001:0001de60       __ftoul2                   1001ee60 f   LIBCMT:ftol2.obj
 0001:0001df20       _strrchr                   1001ef20 f   libvcruntime:strrchr.obj
 0001:0001e060       _strchr                    1001f060 f   libvcruntime:strchr.obj
 0001:0001e0ce       ___from_strstr_to_strchr   1001f0ce     libvcruntime:strchr.obj
 0001:0001e18b       __filter_x86_sse2_floating_point_exception 1001f18b f   LIBCMT:x86_exception_filter.obj
 0001:0001e18b       __filter_x86_sse2_floating_point_exception_default 1001f18b f   LIBCMT:x86_exception_filter.obj
 0002:00000000       __imp__RegQueryValueExW@24 10020000     advapi32:ADVAPI32.dll
 0002:00000004       __imp__RegSetValueExW@24   10020004     advapi32:ADVAPI32.dll
 0002:00000008       __imp__RegQueryInfoKeyW@48 10020008     advapi32:ADVAPI32.dll
 0002:0000000c       __imp__RegOpenKeyExW@20    1002000c     advapi32:ADVAPI32.dll
 0002:00000010       __imp__RegEnumKeyExW@32    10020010     advapi32:ADVAPI32.dll
 0002:00000014       __imp__RegDeleteValueW@8   10020014     advapi32:ADVAPI32.dll
 0002:00000018       __imp__RegDeleteKeyW@8     10020018     advapi32:ADVAPI32.dll
 0002:0000001c       __imp__RegCreateKeyExW@36  1002001c     advapi32:ADVAPI32.dll
 0002:00000020       __imp__RegCloseKey@4       10020020     advapi32:ADVAPI32.dll
 0002:00000024       \177ADVAPI32_NULL_THUNK_DATA 10020024     advapi32:ADVAPI32.dll
 0002:00000028       __imp__GetObjectW@12       10020028     gdi32:GDI32.dll
 0002:0000002c       __imp__SelectObject@8      1002002c     gdi32:GDI32.dll
 0002:00000030       __imp__DeleteObject@4      10020030     gdi32:GDI32.dll
 0002:00000034       __imp__CreateCompatibleDC@4 10020034     gdi32:GDI32.dll
 0002:00000038       __imp__BitBlt@36           10020038     gdi32:GDI32.dll
 0002:0000003c       __imp__SetWindowOrgEx@16   1002003c     gdi32:GDI32.dll
 0002:00000040       __imp__SetWindowExtEx@16   10020040     gdi32:GDI32.dll
 0002:00000044       __imp__SetViewportOrgEx@16 10020044     gdi32:GDI32.dll
 0002:00000048       __imp__LPtoDP@12           10020048     gdi32:GDI32.dll
 0002:0000004c       __imp__SetMapMode@8        1002004c     gdi32:GDI32.dll
 0002:00000050       __imp__SaveDC@4            10020050     gdi32:GDI32.dll
 0002:00000054       __imp__RestoreDC@8         10020054     gdi32:GDI32.dll
 0002:00000058       __imp__GetDeviceCaps@8     10020058     gdi32:GDI32.dll
 0002:0000005c       __imp__DeleteMetaFile@4    1002005c     gdi32:GDI32.dll
 0002:00000060       __imp__DeleteDC@4          10020060     gdi32:GDI32.dll
 0002:00000064       __imp__CreateRectRgnIndirect@4 10020064     gdi32:GDI32.dll
 0002:00000068       __imp__CreateMetaFileW@4   10020068     gdi32:GDI32.dll
 0002:0000006c       __imp__CreateDCW@16        1002006c     gdi32:GDI32.dll
 0002:00000070       __imp__CloseMetaFile@4     10020070     gdi32:GDI32.dll
 0002:00000074       \177GDI32_NULL_THUNK_DATA  10020074     gdi32:GDI32.dll
 0002:00000078       __imp__CloseHandle@4       10020078     kernel32:KERNEL32.dll
 0002:0000007c       __imp__SetEvent@4          1002007c     kernel32:KERNEL32.dll
 0002:00000080       __imp__CreateMutexW@12     10020080     kernel32:KERNEL32.dll
 0002:00000084       __imp__CreateEventW@16     10020084     kernel32:KERNEL32.dll
 0002:00000088       __imp__GetCurrentProcessId@0 10020088     kernel32:KERNEL32.dll
 0002:0000008c       __imp__CreateFileW@28      1002008c     kernel32:KERNEL32.dll
 0002:00000090       __imp__GetConsoleMode@8    10020090     kernel32:KERNEL32.dll
 0002:00000094       __imp__GetConsoleOutputCP@0 10020094     kernel32:KERNEL32.dll
 0002:00000098       __imp__WriteFile@20        10020098     kernel32:KERNEL32.dll
 0002:0000009c       __imp__FlushFileBuffers@4  1002009c     kernel32:KERNEL32.dll
 0002:000000a0       __imp__SetStdHandle@8      100200a0     kernel32:KERNEL32.dll
 0002:000000a4       __imp__GetStringTypeW@16   100200a4     kernel32:KERNEL32.dll
 0002:000000a8       __imp__SetFilePointerEx@20 100200a8     kernel32:KERNEL32.dll
 0002:000000ac       __imp__FreeEnvironmentStringsW@4 100200ac     kernel32:KERNEL32.dll
 0002:000000b0       __imp__GetEnvironmentStringsW@0 100200b0     kernel32:KERNEL32.dll
 0002:000000b4       __imp__lstrcmpiW@8         100200b4     kernel32:KERNEL32.dll
 0002:000000b8       __imp__GetCommandLineA@0   100200b8     kernel32:KERNEL32.dll
 0002:000000bc       __imp__GetCPInfo@8         100200bc     kernel32:KERNEL32.dll
 0002:000000c0       __imp__GetOEMCP@0          100200c0     kernel32:KERNEL32.dll
 0002:000000c4       __imp__GetACP@0            100200c4     kernel32:KERNEL32.dll
 0002:000000c8       __imp__IsValidCodePage@4   100200c8     kernel32:KERNEL32.dll
 0002:000000cc       __imp__FindNextFileW@8     100200cc     kernel32:KERNEL32.dll
 0002:000000d0       __imp__FindFirstFileExW@24 100200d0     kernel32:KERNEL32.dll
 0002:000000d4       __imp__FindClose@4         100200d4     kernel32:KERNEL32.dll
 0002:000000d8       __imp__GetFileType@4       100200d8     kernel32:KERNEL32.dll
 0002:000000dc       __imp__GetStdHandle@4      100200dc     kernel32:KERNEL32.dll
 0002:000000e0       __imp__LCMapStringW@24     100200e0     kernel32:KERNEL32.dll
 0002:000000e4       __imp__HeapReAlloc@16      100200e4     kernel32:KERNEL32.dll
 0002:000000e8       __imp__HeapSize@12         100200e8     kernel32:KERNEL32.dll
 0002:000000ec       __imp__MulDiv@12           100200ec     kernel32:KERNEL32.dll
 0002:000000f0       __imp__GlobalLock@4        100200f0     kernel32:KERNEL32.dll
 0002:000000f4       __imp__GlobalUnlock@4      100200f4     kernel32:KERNEL32.dll
 0002:000000f8       __imp__GlobalAlloc@8       100200f8     kernel32:KERNEL32.dll
 0002:000000fc       __imp__FindResourceW@12    100200fc     kernel32:KERNEL32.dll
 0002:00000100       __imp__SizeofResource@8    10020100     kernel32:KERNEL32.dll
 0002:00000104       __imp__LoadResource@8      10020104     kernel32:KERNEL32.dll
 0002:00000108       __imp__LoadLibraryExW@12   10020108     kernel32:KERNEL32.dll
 0002:0000010c       __imp__GetProcAddress@8    1002010c     kernel32:KERNEL32.dll
 0002:00000110       __imp__GetModuleHandleW@4  10020110     kernel32:KERNEL32.dll
 0002:00000114       __imp__GetModuleFileNameW@12 10020114     kernel32:KERNEL32.dll
 0002:00000118       __imp__FreeLibrary@4       10020118     kernel32:KERNEL32.dll
 0002:0000011c       __imp__DisableThreadLibraryCalls@4 1002011c     kernel32:KERNEL32.dll
 0002:00000120       __imp__GetCurrentThreadId@0 10020120     kernel32:KERNEL32.dll
 0002:00000124       __imp__Sleep@4             10020124     kernel32:KERNEL32.dll
 0002:00000128       __imp__WaitForSingleObject@8 10020128     kernel32:KERNEL32.dll
 0002:0000012c       __imp__ReleaseMutex@4      1002012c     kernel32:KERNEL32.dll
 0002:00000130       __imp__ResetEvent@4        10020130     kernel32:KERNEL32.dll
 0002:00000134       __imp__EnterCriticalSection@4 10020134     kernel32:KERNEL32.dll
 0002:00000138       __imp__LeaveCriticalSection@4 10020138     kernel32:KERNEL32.dll
 0002:0000013c       __imp__SetLastError@4      1002013c     kernel32:KERNEL32.dll
 0002:00000140       __imp__EncodePointer@4     10020140     kernel32:KERNEL32.dll
 0002:00000144       __imp__DeleteCriticalSection@4 10020144     kernel32:KERNEL32.dll
 0002:00000148       __imp__InitializeCriticalSectionEx@12 10020148     kernel32:KERNEL32.dll
 0002:0000014c       __imp__GetLastError@0      1002014c     kernel32:KERNEL32.dll
 0002:00000150       __imp__RaiseException@16   10020150     kernel32:KERNEL32.dll
 0002:00000154       __imp__DecodePointer@4     10020154     kernel32:KERNEL32.dll
 0002:00000158       __imp__WideCharToMultiByte@32 10020158     kernel32:KERNEL32.dll
 0002:0000015c       __imp__GetCommandLineW@0   1002015c     kernel32:KERNEL32.dll
 0002:00000160       __imp__MultiByteToWideChar@24 10020160     kernel32:KERNEL32.dll
 0002:00000164       __imp__WriteConsoleW@20    10020164     kernel32:KERNEL32.dll
 0002:00000168       __imp__GetModuleHandleExW@12 10020168     kernel32:KERNEL32.dll
 0002:0000016c       __imp__ExitProcess@4       1002016c     kernel32:KERNEL32.dll
 0002:00000170       __imp__VirtualQuery@12     10020170     kernel32:KERNEL32.dll
 0002:00000174       __imp__VirtualProtect@16   10020174     kernel32:KERNEL32.dll
 0002:00000178       __imp__GetSystemInfo@4     10020178     kernel32:KERNEL32.dll
 0002:0000017c       __imp__TlsFree@4           1002017c     kernel32:KERNEL32.dll
 0002:00000180       __imp__TlsSetValue@8       10020180     kernel32:KERNEL32.dll
 0002:00000184       __imp__TlsGetValue@4       10020184     kernel32:KERNEL32.dll
 0002:00000188       __imp__TlsAlloc@0          10020188     kernel32:KERNEL32.dll
 0002:0000018c       __imp__InterlockedFlushSList@4 1002018c     kernel32:KERNEL32.dll
 0002:00000190       __imp__RtlUnwind@16        10020190     kernel32:KERNEL32.dll
 0002:00000194       __imp__LoadLibraryExA@12   10020194     kernel32:KERNEL32.dll
 0002:00000198       __imp__VirtualFree@12      10020198     kernel32:KERNEL32.dll
 0002:0000019c       __imp__VirtualAlloc@16     1002019c     kernel32:KERNEL32.dll
 0002:000001a0       __imp__FlushInstructionCache@12 100201a0     kernel32:KERNEL32.dll
 0002:000001a4       __imp__InterlockedPushEntrySList@8 100201a4     kernel32:KERNEL32.dll
 0002:000001a8       __imp__InterlockedPopEntrySList@4 100201a8     kernel32:KERNEL32.dll
 0002:000001ac       __imp__GetProcessHeap@0    100201ac     kernel32:KERNEL32.dll
 0002:000001b0       __imp__HeapFree@12         100201b0     kernel32:KERNEL32.dll
 0002:000001b4       __imp__HeapAlloc@12        100201b4     kernel32:KERNEL32.dll
 0002:000001b8       __imp__OutputDebugStringW@4 100201b8     kernel32:KERNEL32.dll
 0002:000001bc       __imp__InitializeSListHead@4 100201bc     kernel32:KERNEL32.dll
 0002:000001c0       __imp__GetSystemTimeAsFileTime@4 100201c0     kernel32:KERNEL32.dll
 0002:000001c4       __imp__QueryPerformanceCounter@4 100201c4     kernel32:KERNEL32.dll
 0002:000001c8       __imp__GetStartupInfoW@4   100201c8     kernel32:KERNEL32.dll
 0002:000001cc       __imp__IsDebuggerPresent@0 100201cc     kernel32:KERNEL32.dll
 0002:000001d0       __imp__IsProcessorFeaturePresent@4 100201d0     kernel32:KERNEL32.dll
 0002:000001d4       __imp__TerminateProcess@8  100201d4     kernel32:KERNEL32.dll
 0002:000001d8       __imp__GetCurrentProcess@0 100201d8     kernel32:KERNEL32.dll
 0002:000001dc       __imp__SetUnhandledExceptionFilter@4 100201dc     kernel32:KERNEL32.dll
 0002:000001e0       __imp__UnhandledExceptionFilter@4 100201e0     kernel32:KERNEL32.dll
 0002:000001e4       __imp__InitializeCriticalSectionAndSpinCount@8 100201e4     kernel32:KERNEL32.dll
 0002:000001e8       __imp__WaitForSingleObjectEx@12 100201e8     kernel32:KERNEL32.dll
 0002:000001ec       \177KERNEL32_NULL_THUNK_DATA 100201ec     kernel32:KERNEL32.dll
 0002:000001f0       __imp__OleCreatePropertyFrame@44 100201f0     oleaut32:OLEAUT32.dll
 0002:000001f4       __imp__UnRegisterTypeLib@20 100201f4     oleaut32:OLEAUT32.dll
 0002:000001f8       __imp__RegisterTypeLib@12  100201f8     oleaut32:OLEAUT32.dll
 0002:000001fc       __imp__LoadRegTypeLib@20   100201fc     oleaut32:OLEAUT32.dll
 0002:00000200       __imp__LoadTypeLib@8       10020200     oleaut32:OLEAUT32.dll
 0002:00000204       __imp__VarUI4FromStr@16    10020204     oleaut32:OLEAUT32.dll
 0002:00000208       __imp__VariantInit@4       10020208     oleaut32:OLEAUT32.dll
 0002:0000020c       __imp__SysAllocStringByteLen@8 1002020c     oleaut32:OLEAUT32.dll
 0002:00000210       __imp__SysStringByteLen@4  10020210     oleaut32:OLEAUT32.dll
 0002:00000214       __imp__VariantChangeType@16 10020214     oleaut32:OLEAUT32.dll
 0002:00000218       __imp__VariantClear@4      10020218     oleaut32:OLEAUT32.dll
 0002:0000021c       __imp__SysStringLen@4      1002021c     oleaut32:OLEAUT32.dll
 0002:00000220       __imp__SysFreeString@4     10020220     oleaut32:OLEAUT32.dll
 0002:00000224       __imp__SysAllocStringLen@8 10020224     oleaut32:OLEAUT32.dll
 0002:00000228       __imp__SysAllocString@4    10020228     oleaut32:OLEAUT32.dll
 0002:0000022c       \177OLEAUT32_NULL_THUNK_DATA 1002022c     oleaut32:OLEAUT32.dll
 0002:00000230       __imp__UnregisterClassW@8  10020230     user32:USER32.dll
 0002:00000234       __imp__PostMessageW@16     10020234     user32:USER32.dll
 0002:00000238       __imp__DefWindowProcW@16   10020238     user32:USER32.dll
 0002:0000023c       __imp__CallWindowProcW@20  1002023c     user32:USER32.dll
 0002:00000240       __imp__RegisterClassExW@4  10020240     user32:USER32.dll
 0002:00000244       __imp__GetClassInfoExW@12  10020244     user32:USER32.dll
 0002:00000248       __imp__CreateWindowExW@48  10020248     user32:USER32.dll
 0002:0000024c       __imp__IsWindow@4          1002024c     user32:USER32.dll
 0002:00000250       __imp__IsChild@8           10020250     user32:USER32.dll
 0002:00000254       __imp__DestroyWindow@4     10020254     user32:USER32.dll
 0002:00000258       __imp__ShowWindow@8        10020258     user32:USER32.dll
 0002:0000025c       __imp__SetWindowPos@28     1002025c     user32:USER32.dll
 0002:00000260       __imp__CharNextW@4         10020260     user32:USER32.dll
 0002:00000264       __imp__SetFocus@4          10020264     user32:USER32.dll
 0002:00000268       __imp__LoadBitmapW@8       10020268     user32:USER32.dll
 0002:0000026c       __imp__RegisterClassW@4    1002026c     user32:USER32.dll
 0002:00000270       __imp__PeekMessageW@20     10020270     user32:USER32.dll
 0002:00000274       __imp__LoadCursorW@8       10020274     user32:USER32.dll
 0002:00000278       __imp__GetParent@4         10020278     user32:USER32.dll
 0002:0000027c       __imp__SetWindowLongW@12   1002027c     user32:USER32.dll
 0002:00000280       __imp__GetWindowLongW@8    10020280     user32:USER32.dll
 0002:00000284       __imp__PtInRect@12         10020284     user32:USER32.dll
 0002:00000288       __imp__EqualRect@8         10020288     user32:USER32.dll
 0002:0000028c       __imp__OffsetRect@12       1002028c     user32:USER32.dll
 0002:00000290       __imp__UnionRect@12        10020290     user32:USER32.dll
 0002:00000294       __imp__IntersectRect@12    10020294     user32:USER32.dll
 0002:00000298       __imp__GetClientRect@8     10020298     user32:USER32.dll
 0002:0000029c       __imp__InvalidateRect@12   1002029c     user32:USER32.dll
 0002:000002a0       __imp__SetWindowRgn@12     100202a0     user32:USER32.dll
 0002:000002a4       __imp__EndPaint@8          100202a4     user32:USER32.dll
 0002:000002a8       __imp__BeginPaint@8        100202a8     user32:USER32.dll
 0002:000002ac       __imp__ReleaseDC@8         100202ac     user32:USER32.dll
 0002:000002b0       __imp__GetDC@4             100202b0     user32:USER32.dll
 0002:000002b4       __imp__GetKeyState@4       100202b4     user32:USER32.dll
 0002:000002b8       __imp__GetFocus@0          100202b8     user32:USER32.dll
 0002:000002bc       \177USER32_NULL_THUNK_DATA 100202bc     user32:USER32.dll
 0002:000002c0       __imp__StringFromGUID2@12  100202c0     ole32:ole32.dll
 0002:000002c4       __imp__CoTaskMemAlloc@4    100202c4     ole32:ole32.dll
 0002:000002c8       __imp__CoTaskMemRealloc@8  100202c8     ole32:ole32.dll
 0002:000002cc       __imp__CoTaskMemFree@4     100202cc     ole32:ole32.dll
 0002:000002d0       __imp__ReadClassStm@8      100202d0     ole32:ole32.dll
 0002:000002d4       __imp__WriteClassStm@8     100202d4     ole32:ole32.dll
 0002:000002d8       __imp__CreateDataAdviseHolder@4 100202d8     ole32:ole32.dll
 0002:000002dc       __imp__OleSaveToStream@8   100202dc     ole32:ole32.dll
 0002:000002e0       __imp__CreateOleAdviseHolder@4 100202e0     ole32:ole32.dll
 0002:000002e4       __imp__OleRegGetUserType@12 100202e4     ole32:ole32.dll
 0002:000002e8       __imp__OleRegGetMiscStatus@12 100202e8     ole32:ole32.dll
 0002:000002ec       __imp__OleRegEnumVerbs@8   100202ec     ole32:ole32.dll
 0002:000002f0       __imp__CLSIDFromProgID@8   100202f0     ole32:ole32.dll
 0002:000002f4       __imp__CoCreateInstance@20 100202f4     ole32:ole32.dll
 0002:000002f8       \177ole32_NULL_THUNK_DATA  100202f8     ole32:ole32.dll
 0002:000002fc       ___guard_check_icall_fptr  100202fc     LIBCMT:guard_support.obj
 0002:00000300       ___xc_a                    10020300     LIBCMT:initializers.obj
 0002:00000318       ___xc_z                    10020318     LIBCMT:initializers.obj
 0002:0000031c       ___xi_a                    1002031c     LIBCMT:initializers.obj
 0002:00000324       ___acrt_stdio_initializer  10020324     libucrt:stdio_initializer.obj
 0002:00000328       ___acrt_multibyte_initializer 10020328     libucrt:multibyte_initializer.obj
 0002:0000032c       ___acrt_tran_sse2_initializer 1002032c     libucrt:sse2_initializer.obj
 0002:00000330       ___xi_z                    10020330     LIBCMT:initializers.obj
 0002:00000334       ___xl_a                    10020334     LIBCMT:tlssup.obj
 0002:00000338       ___xl_z                    10020338     LIBCMT:tlssup.obj
 0002:0000033c       ___xp_a                    1002033c     LIBCMT:initializers.obj
 0002:00000340       ___acrt_locale_terminator  10020340     libucrt:locale_initializer.obj
 0002:00000344       ___dcrt_console_output_terminator 10020344     libucrt:console_output_initializer.obj
 0002:00000348       ___acrt_stdio_terminator   10020348     libucrt:stdio_initializer.obj
 0002:0000034c       ___xp_z                    1002034c     LIBCMT:initializers.obj
 0002:00000350       ___xt_a                    10020350     LIBCMT:initializers.obj
 0002:00000354       ___xt_z                    10020354     LIBCMT:initializers.obj
 0002:00000360       ??_C@_13HADIAKP@?$AAS@     10020360     OposVariant.obj
 0002:00000364       ??_C@_13LHMFKAAD@?$AAM@    10020364     OposVariant.obj
 0002:00000368       ??_C@_13MKMNOPIJ@?$AAD@    10020368     OposVariant.obj
 0002:0000036c       ??_C@_13OPKGLAFF@?$AAB@    1002036c     OposVariant.obj
 0002:00000370       ??_C@_17LLMMEOJD@?$AAV?$AAa?$AAl@ 10020370     OposVariant.obj
 0002:00000378       ??_C@_1BI@JFAIJMHL@?$AAF?$AAo?$AAr?$AAc?$AAe?$AAR?$AAe?$AAm?$AAo?$AAv?$AAe@ 10020378     OposVariant.obj
 0002:00000390       ??_C@_1BC@GCKHIPE@?$AAN?$AAo?$AAR?$AAe?$AAm?$AAo?$AAv?$AAe@ 10020390     OposVariant.obj
 0002:000003a4       ??_C@_1O@JDLOHAN@?$AAD?$AAe?$AAl?$AAe?$AAt?$AAe@ 100203a4     OposVariant.obj
 0002:000003b4       ??_C@_11LOCGONAA@@         100203b4     OposVariant.obj
 0002:000003b8       ??_7CComClassFactory@ATL@@6B@ 100203b8     IndividualRecognition.obj
 0002:000003d0       ?_entries@?1??_GetEntries@CComClassFactory@ATL@@SGPBU_ATL_INTMAP_ENTRY@3@XZ@4QBU43@B 100203d0     IndividualRecognition.obj
 0002:000003e8       __GUID_00000001_0000_0000_c000_000000000046 100203e8     IndividualRecognition.obj
 0002:000003f8       _IID_IOPOSIndividualRecognition_1_16 100203f8     IndividualRecognition.obj
 0002:00000408       _IID_IOPOSIndividualRecognition 10020408     IndividualRecognition.obj
 0002:00000418       _LIBID_OposIndividualRecognition_CCO 10020418     IndividualRecognition.obj
 0002:00000428       _DIID__IOPOSIndividualRecognitionEvents 10020428     IndividualRecognition.obj
 0002:00000438       _CLSID_OPOSIndividualRecognition 10020438     IndividualRecognition.obj
 0002:00000448       ??_C@_1BK@BIGILECK@?$AAA?$AAd?$AAv?$AAa?$AAp?$AAi?$AA3?$AA2?$AA?4?$AAd?$AAl?$AAl@ 10020448     IndividualRecognition.obj
 0002:00000464       __GUID_00000114_0000_0000_c000_000000000046 10020464     IndividualRecognition.obj
 0002:00000474       ??_C@_0BI@MNCFCPFK@RegCreateKeyTransactedW@ 10020474     IndividualRecognition.obj
 0002:0000048c       __GUID_b196b287_bab4_101a_b69c_00aa00341d07 1002048c     IndividualRecognition.obj
 0002:0000049c       __GUID_b196b285_bab4_101a_b69c_00aa00341d07 1002049c     IndividualRecognition.obj
 0002:000004ac       __GUID_a6bc3ac0_dbaa_11ce_9de3_00aa004bb851 100204ac     IndividualRecognition.obj
 0002:000004bc       __GUID_0000010c_0000_0000_c000_000000000046 100204bc     IndividualRecognition.obj
 0002:000004cc       __GUID_00000146_0000_0000_c000_000000000046 100204cc     IndividualRecognition.obj
 0002:000004e0       ?_entries@?1??_GetEntries@COPOSIndividualRecognition@@SGPBU_ATL_INTMAP_ENTRY@ATL@@XZ@4QBU34@B 100204e0     IndividualRecognition.obj
 0002:00000600       __GUID_cf51ed10_62fe_11cf_bf86_00a0c9034836 10020600     IndividualRecognition.obj
 0002:00000610       __GUID_0000010a_0000_0000_c000_000000000046 10020610     IndividualRecognition.obj
 0002:00000620       __GUID_b196b283_bab4_101a_b69c_00aa00341d07 10020620     IndividualRecognition.obj
 0002:00000630       __GUID_cb5bdc81_93c1_11cf_8f20_00805f2cd064 10020630     IndividualRecognition.obj
 0002:00000640       ?pPropMap@?1??GetPropertyMap@COPOSIndividualRecognition@@SAPBUATL_PROPMAP_ENTRY@ATL@@XZ@4QBU34@B 10020640     IndividualRecognition.obj
 0002:000006ac       ??_C@_17DGDADEHL@?$AA_?$AAc?$AAx@ 100206ac     IndividualRecognition.obj
 0002:000006b4       ??_C@_17IOIMFDBO@?$AA_?$AAc?$AAy@ 100206b4     IndividualRecognition.obj
 0002:000006bc       ??_7CComModule@ATL@@6B@    100206bc     IndividualRecognition.obj
 0002:000006e4       ??_7?$CComObjectCached@VCComClassFactory@ATL@@@ATL@@6B@ 100206e4     IndividualRecognition.obj
 0002:000006fc       __GUID_922eada0_3424_11cf_b670_00aa004cd6d8 100206fc     IndividualRecognition.obj
 0002:0000070c       __GUID_9c2cad80_3424_11cf_b670_00aa004cd6d8 1002070c     IndividualRecognition.obj
 0002:0000071c       __GUID_00000119_0000_0000_c000_000000000046 1002071c     IndividualRecognition.obj
 0002:0000072c       __GUID_b196b289_bab4_101a_b69c_00aa00341d07 1002072c     IndividualRecognition.obj
 0002:0000073c       ??_C@_1CE@PGFMOFKI@?$AAS?$AAt?$AAa?$AAt?$AAu?$AAs?$AAU?$AAp?$AAd?$AAa?$AAt?$AAe?$AAE?$AAv?$AAe@ 1002073c     IndividualRecognition.obj
 0002:00000760       __GUID_00000000_0000_0000_c000_000000000046 10020760     IndividualRecognition.obj
 0002:00000770       ??_C@_1BG@LODEBHDD@?$AAE?$AAr?$AAr?$AAo?$AAr?$AAE?$AAv?$AAe?$AAn?$AAt@ 10020770     IndividualRecognition.obj
 0002:00000788       __GUID_00020400_0000_0000_c000_000000000046 10020788     IndividualRecognition.obj
 0002:00000798       ??_C@_1BM@CBGEBBBJ@?$AAD?$AAi?$AAr?$AAe?$AAc?$AAt?$AAI?$AAO?$AAE?$AAv?$AAe?$AAn?$AAt@ 10020798     IndividualRecognition.obj
 0002:000007b4       ??_C@_1BE@IEBMACEM@?$AAD?$AAa?$AAt?$AAa?$AAE?$AAv?$AAe?$AAn?$AAt@ 100207b4     IndividualRecognition.obj
 0002:000007c8       __GUID_b196b286_bab4_101a_b69c_00aa00341d07 100207c8     IndividualRecognition.obj
 0002:000007d8       __GUID_00000117_0000_0000_c000_000000000046 100207d8     IndividualRecognition.obj
 0002:000007e8       ??_C@_1BC@ENICKDH@?$AAC?$AAo?$AAn?$AAt?$AAe?$AAn?$AAt?$AAs@ 100207e8     IndividualRecognition.obj
 0002:000007fc       ??_7?$CComObject@V?$CComEnum@UIEnumConnectionPoints@@$1?_GUID_b196b285_bab4_101a_b69c_00aa00341d07@@3U__s_GUID@@BPAUIConnectionPoint@@V?$_CopyInterface@UIConnectionPoint@@@ATL@@VCComSingleThreadModel@6@@ATL@@@ATL@@6B@ 100207fc     IndividualRecognition.obj
 0002:0000081c       ??_C@_1M@KANJNLFF@?$AAC?$AAL?$AAS?$AAI?$AAD@ 1002081c     IndividualRecognition.obj
 0002:00000828       ??_C@_1M@EJNEECMJ@?$AAA?$AAp?$AAp?$AAI?$AAD@ 10020828     IndividualRecognition.obj
 0002:00000834       __GUID_0000010e_0000_0000_c000_000000000046 10020834     IndividualRecognition.obj
 0002:00000844       __GUID_b196b288_bab4_101a_b69c_00aa00341d07 10020844     IndividualRecognition.obj
 0002:00000854       ?rgszNeverDelete@CRegParser@ATL@@1QBQB_WB 10020854     IndividualRecognition.obj
 0002:00000884       ??_7CRegObject@ATL@@6B@    10020884     IndividualRecognition.obj
 0002:0000089c       __GUID_00000113_0000_0000_c000_000000000046 1002089c     IndividualRecognition.obj
 0002:000008ac       __GUID_1c2056cc_5ef4_101b_8bc8_00aa003e3b29 100208ac     IndividualRecognition.obj
 0002:000008bc       ??_C@_1CK@OEKPKBNA@?$AAC?$AAo?$AAm?$AAp?$AAo?$AAn?$AAe?$AAn?$AAt?$AA?5?$AAC?$AAa?$AAt?$AAe?$AAg@ 100208bc     IndividualRecognition.obj
 0002:000008e8       ??_C@_1BC@NKMMNMGL@?$AAF?$AAi?$AAl?$AAe?$AAT?$AAy?$AAp?$AAe@ 100208e8     IndividualRecognition.obj
 0002:000008fc       ??_C@_1BE@EKPAFMCP@?$AAI?$AAn?$AAt?$AAe?$AAr?$AAf?$AAa?$AAc?$AAe@ 100208fc     IndividualRecognition.obj
 0002:00000910       ??_C@_1BC@MAICEHGI@?$AAH?$AAa?$AAr?$AAd?$AAw?$AAa?$AAr?$AAe@ 10020910     IndividualRecognition.obj
 0002:00000924       ??_C@_19HLLLM@?$AAM?$AAi?$AAm?$AAe@ 10020924     IndividualRecognition.obj
 0002:00000930       ??_C@_17OMAOINJK@?$AAS?$AAA?$AAM@ 10020930     IndividualRecognition.obj
 0002:00000938       ??_C@_1BC@IBECJAAI@?$AAS?$AAE?$AAC?$AAU?$AAR?$AAI?$AAT?$AAY@ 10020938     IndividualRecognition.obj
 0002:0000094c       ??_C@_1O@GBFINDKL@?$AAS?$AAY?$AAS?$AAT?$AAE?$AAM@ 1002094c     IndividualRecognition.obj
 0002:0000095c       ??_C@_1BC@EAHCMADO@?$AAS?$AAo?$AAf?$AAt?$AAw?$AAa?$AAr?$AAe@ 1002095c     IndividualRecognition.obj
 0002:00000970       ??_C@_1BA@JIHHIEDE@?$AAT?$AAy?$AAp?$AAe?$AAL?$AAi?$AAb@ 10020970     IndividualRecognition.obj
 0002:00000980       ?map@?1??HKeyFromString@CRegParser@ATL@@KAPAUHKEY__@@PA_W@Z@4QBUkeymap@?1??123@KAPAU4@0@Z@B 10020980     IndividualRecognition.obj
 0002:000009f0       ??_C@_19NCHLBIN@?$AAH?$AAK?$AAC?$AAR@ 100209f0     IndividualRecognition.obj
 0002:000009fc       ??_C@_19JAPAIJDE@?$AAH?$AAK?$AAC?$AAU@ 100209fc     IndividualRecognition.obj
 0002:00000a08       ??_C@_19PEALEEJB@?$AAH?$AAK?$AAL?$AAM@ 10020a08     IndividualRecognition.obj
 0002:00000a14       ??_C@_17PJOJPMPB@?$AAH?$AAK?$AAU@ 10020a14     IndividualRecognition.obj
 0002:00000a1c       ??_C@_19PNBHMJPL@?$AAH?$AAK?$AAP?$AAD@ 10020a1c     IndividualRecognition.obj
 0002:00000a28       ??_C@_19GFFAIJHG@?$AAH?$AAK?$AAD?$AAD@ 10020a28     IndividualRecognition.obj
 0002:00000a34       ??_C@_19OFICIBHH@?$AAH?$AAK?$AAC?$AAC@ 10020a34     IndividualRecognition.obj
 0002:00000a40       ??_C@_1CE@PACHPJFI@?$AAH?$AAK?$AAE?$AAY?$AA_?$AAC?$AAL?$AAA?$AAS?$AAS?$AAE?$AAS?$AA_?$AAR?$AAO@ 10020a40     IndividualRecognition.obj
 0002:00000a64       ??_C@_1CE@HLHNCBPM@?$AAH?$AAK?$AAE?$AAY?$AA_?$AAC?$AAU?$AAR?$AAR?$AAE?$AAN?$AAT?$AA_?$AAU?$AAS@ 10020a64     IndividualRecognition.obj
 0002:00000a88       ??_C@_1CG@GFBEANJL@?$AAH?$AAK?$AAE?$AAY?$AA_?$AAL?$AAO?$AAC?$AAA?$AAL?$AA_?$AAM?$AAA?$AAC?$AAH@ 10020a88     IndividualRecognition.obj
 0002:00000ab0       ??_C@_1BG@BGODANIO@?$AAH?$AAK?$AAE?$AAY?$AA_?$AAU?$AAS?$AAE?$AAR?$AAS@ 10020ab0     IndividualRecognition.obj
 0002:00000ac8       ??_C@_1CM@KHNNAOIC@?$AAH?$AAK?$AAE?$AAY?$AA_?$AAP?$AAE?$AAR?$AAF?$AAO?$AAR?$AAM?$AAA?$AAN?$AAC@ 10020ac8     IndividualRecognition.obj
 0002:00000af4       ??_C@_1BM@HAGMMHIA@?$AAH?$AAK?$AAE?$AAY?$AA_?$AAD?$AAY?$AAN?$AA_?$AAD?$AAA?$AAT?$AAA@ 10020af4     IndividualRecognition.obj
 0002:00000b10       ??_C@_1CI@BBJOACGG@?$AAH?$AAK?$AAE?$AAY?$AA_?$AAC?$AAU?$AAR?$AAR?$AAE?$AAN?$AAT?$AA_?$AAC?$AAO@ 10020b10     IndividualRecognition.obj
 0002:00000b38       __GUID_00000109_0000_0000_c000_000000000046 10020b38     IndividualRecognition.obj
 0002:00000b48       __GUID_7fd52380_4e07_101b_ae2d_08002b2ec713 10020b48     IndividualRecognition.obj
 0002:00000b58       __GUID_00000112_0000_0000_c000_000000000046 10020b58     IndividualRecognition.obj
 0002:00000b68       __GUID_3af24292_0c96_11ce_a0cf_00aa00600ab8 10020b68     IndividualRecognition.obj
 0002:00000b78       __GUID_00000127_0000_0000_c000_000000000046 10020b78     IndividualRecognition.obj
 0002:00000b88       __GUID_0000010d_0000_0000_c000_000000000046 10020b88     IndividualRecognition.obj
 0002:00000b98       ??_C@_1EA@NHKLICFA@?$AAH?$AAK?$AAC?$AAU?$AA?$AN?$AA?6?$AA?$HL?$AA?7?$AAS?$AAo?$AAf?$AAt?$AAw?$AAa?$AAr@ 10020b98     IndividualRecognition.obj
 0002:00000bd8       ??_C@_1BE@LJOLIMEM@?$AA?$AN?$AA?6?$AA?7?$AA?$HN?$AA?$AN?$AA?6?$AA?$HN?$AA?$AN?$AA?6@ 10020bd8     IndividualRecognition.obj
 0002:00000bec       ??_C@_1M@PPPPCDEP@?$AAA?$AAP?$AAP?$AAI?$AAD@ 10020bec     IndividualRecognition.obj
 0002:00000bf8       ??_C@_1O@MNLDABAF@?$AAM?$AAo?$AAd?$AAu?$AAl?$AAe@ 10020bf8     IndividualRecognition.obj
 0002:00000c08       ??_C@_1BG@JBACFMF@?$AAM?$AAo?$AAd?$AAu?$AAl?$AAe?$AA_?$AAR?$AAa?$AAw@ 10020c08     IndividualRecognition.obj
 0002:00000c20       ??_C@_1BC@KAILKFFG@?$AAR?$AAE?$AAG?$AAI?$AAS?$AAT?$AAR?$AAY@ 10020c20     IndividualRecognition.obj
 0002:00000c34       ??_7?$CComContainedObject@VCOPOSIndividualRecognition@@@ATL@@6B?$IDispatchImpl@UIOPOSIndividualRecognition@@$1?IID_IOPOSIndividualRecognition@@3U_GUID@@B$1?LIBID_OposIndividualRecognition_CCO@@3U3@B$00$0A@VCComTypeInfoHolder@ATL@@@1@@ 10020c34     IndividualRecognition.obj
 0002:00000d2c       ??_7?$CComContainedObject@VCOPOSIndividualRecognition@@@ATL@@6BCComControlBase@1@@ 10020d2c     IndividualRecognition.obj
 0002:00000d40       ??_7?$CComContainedObject@VCOPOSIndividualRecognition@@@ATL@@6B?$CWindowImpl@VCOPOSIndividualRecognition@@VCWindow@ATL@@V?$CWinTraits@$0FGAAAAAA@$0A@@3@@1@@ 10020d40     IndividualRecognition.obj
 0002:00000d50       ??_7?$CComContainedObject@VCOPOSIndividualRecognition@@@ATL@@6B?$IPersistStreamInitImpl@VCOPOSIndividualRecognition@@@1@@ 10020d50     IndividualRecognition.obj
 0002:00000d74       ??_7?$CComContainedObject@VCOPOSIndividualRecognition@@@ATL@@6B?$IOleControlImpl@VCOPOSIndividualRecognition@@@1@@ 10020d74     IndividualRecognition.obj
 0002:00000d90       ??_7?$CComContainedObject@VCOPOSIndividualRecognition@@@ATL@@6B?$IOleObjectImpl@VCOPOSIndividualRecognition@@@1@@ 10020d90     IndividualRecognition.obj
 0002:00000df0       ??_7?$CComContainedObject@VCOPOSIndividualRecognition@@@ATL@@6B?$IOleInPlaceActiveObjectImpl@VCOPOSIndividualRecognition@@@1@@ 10020df0     IndividualRecognition.obj
 0002:00000e18       ??_7?$CComContainedObject@VCOPOSIndividualRecognition@@@ATL@@6B?$IViewObjectExImpl@VCOPOSIndividualRecognition@@@1@@ 10020e18     IndividualRecognition.obj
 0002:00000e54       ??_7?$CComContainedObject@VCOPOSIndividualRecognition@@@ATL@@6B?$IOleInPlaceObjectWindowlessImpl@VCOPOSIndividualRecognition@@@1@@ 10020e54     IndividualRecognition.obj
 0002:00000e80       ??_7?$CComContainedObject@VCOPOSIndividualRecognition@@@ATL@@6B?$IConnectionPointContainerImpl@VCOPOSIndividualRecognition@@@1@@ 10020e80     IndividualRecognition.obj
 0002:00000e94       ??_7?$CComContainedObject@VCOPOSIndividualRecognition@@@ATL@@6B?$IPersistStorageImpl@VCOPOSIndividualRecognition@@@1@@ 10020e94     IndividualRecognition.obj
 0002:00000ebc       ??_7?$CComContainedObject@VCOPOSIndividualRecognition@@@ATL@@6B?$ISpecifyPropertyPagesImpl@VCOPOSIndividualRecognition@@@1@@ 10020ebc     IndividualRecognition.obj
 0002:00000ecc       ??_7?$CComContainedObject@VCOPOSIndividualRecognition@@@ATL@@6B?$IQuickActivateImpl@VCOPOSIndividualRecognition@@@1@@ 10020ecc     IndividualRecognition.obj
 0002:00000ee4       ??_7?$CComContainedObject@VCOPOSIndividualRecognition@@@ATL@@6B?$IDataObjectImpl@VCOPOSIndividualRecognition@@@1@@ 10020ee4     IndividualRecognition.obj
 0002:00000f14       ??_7?$CComContainedObject@VCOPOSIndividualRecognition@@@ATL@@6B?$IProvideClassInfo2Impl@$1?CLSID_OPOSIndividualRecognition@@3U_GUID@@B$1?DIID__IOPOSIndividualRecognitionEvents@@3U2@B$1?LIBID_OposIndividualRecognition_CCO@@3U2@B$00$0A@VCComTypeInfoHolder@ATL@@@1@@ 10020f14     IndividualRecognition.obj
 0002:00000f28       ??_7?$CComContainedObject@VCOPOSIndividualRecognition@@@ATL@@6B?$IObjectSafetyImpl@VCOPOSIndividualRecognition@@$02@1@@ 10020f28     IndividualRecognition.obj
 0002:00000f40       ??_7?$CComContainedObject@VCOPOSIndividualRecognition@@@ATL@@6B?$IPropertyNotifySinkCP@VCOPOSIndividualRecognition@@VCComDynamicUnkArray@ATL@@@1@@ 10020f40     IndividualRecognition.obj
 0002:00000f60       ??_7?$CComContainedObject@VCOPOSIndividualRecognition@@@ATL@@6B?$CProxy_IOPOSEvents@VCOPOSIndividualRecognition@@@@@ 10020f60     IndividualRecognition.obj
 0002:00000f80       ??_7?$CComAggObject@VCOPOSIndividualRecognition@@@ATL@@6B@ 10020f80     IndividualRecognition.obj
 0002:00000f90       ??_7?$CComObject@VCOPOSIndividualRecognition@@@ATL@@6B?$IDispatchImpl@UIOPOSIndividualRecognition@@$1?IID_IOPOSIndividualRecognition@@3U_GUID@@B$1?LIBID_OposIndividualRecognition_CCO@@3U3@B$00$0A@VCComTypeInfoHolder@ATL@@@1@@ 10020f90     IndividualRecognition.obj
 0002:00001088       ??_7?$CComObject@VCOPOSIndividualRecognition@@@ATL@@6BCComControlBase@1@@ 10021088     IndividualRecognition.obj
 0002:0000109c       ??_7?$CComObject@VCOPOSIndividualRecognition@@@ATL@@6B?$CWindowImpl@VCOPOSIndividualRecognition@@VCWindow@ATL@@V?$CWinTraits@$0FGAAAAAA@$0A@@3@@1@@ 1002109c     IndividualRecognition.obj
 0002:000010ac       ??_7?$CComObject@VCOPOSIndividualRecognition@@@ATL@@6B?$IPersistStreamInitImpl@VCOPOSIndividualRecognition@@@1@@ 100210ac     IndividualRecognition.obj
 0002:000010d0       ??_7?$CComObject@VCOPOSIndividualRecognition@@@ATL@@6B?$IOleControlImpl@VCOPOSIndividualRecognition@@@1@@ 100210d0     IndividualRecognition.obj
 0002:000010ec       ??_7?$CComObject@VCOPOSIndividualRecognition@@@ATL@@6B?$IOleObjectImpl@VCOPOSIndividualRecognition@@@1@@ 100210ec     IndividualRecognition.obj
 0002:0000114c       ??_7?$CComObject@VCOPOSIndividualRecognition@@@ATL@@6B?$IOleInPlaceActiveObjectImpl@VCOPOSIndividualRecognition@@@1@@ 1002114c     IndividualRecognition.obj
 0002:00001174       ??_7?$CComObject@VCOPOSIndividualRecognition@@@ATL@@6B?$IViewObjectExImpl@VCOPOSIndividualRecognition@@@1@@ 10021174     IndividualRecognition.obj
 0002:000011b0       ??_7?$CComObject@VCOPOSIndividualRecognition@@@ATL@@6B?$IOleInPlaceObjectWindowlessImpl@VCOPOSIndividualRecognition@@@1@@ 100211b0     IndividualRecognition.obj
 0002:000011dc       ??_7?$CComObject@VCOPOSIndividualRecognition@@@ATL@@6B?$IConnectionPointContainerImpl@VCOPOSIndividualRecognition@@@1@@ 100211dc     IndividualRecognition.obj
 0002:000011f0       ??_7?$CComObject@VCOPOSIndividualRecognition@@@ATL@@6B?$IPersistStorageImpl@VCOPOSIndividualRecognition@@@1@@ 100211f0     IndividualRecognition.obj
 0002:00001218       ??_7?$CComObject@VCOPOSIndividualRecognition@@@ATL@@6B?$ISpecifyPropertyPagesImpl@VCOPOSIndividualRecognition@@@1@@ 10021218     IndividualRecognition.obj
 0002:00001228       ??_7?$CComObject@VCOPOSIndividualRecognition@@@ATL@@6B?$IQuickActivateImpl@VCOPOSIndividualRecognition@@@1@@ 10021228     IndividualRecognition.obj
 0002:00001240       ??_7?$CComObject@VCOPOSIndividualRecognition@@@ATL@@6B?$IDataObjectImpl@VCOPOSIndividualRecognition@@@1@@ 10021240     IndividualRecognition.obj
 0002:00001270       ??_7?$CComObject@VCOPOSIndividualRecognition@@@ATL@@6B?$IProvideClassInfo2Impl@$1?CLSID_OPOSIndividualRecognition@@3U_GUID@@B$1?DIID__IOPOSIndividualRecognitionEvents@@3U2@B$1?LIBID_OposIndividualRecognition_CCO@@3U2@B$00$0A@VCComTypeInfoHolder@ATL@@@1@@ 10021270     IndividualRecognition.obj
 0002:00001284       ??_7?$CComObject@VCOPOSIndividualRecognition@@@ATL@@6B?$IObjectSafetyImpl@VCOPOSIndividualRecognition@@$02@1@@ 10021284     IndividualRecognition.obj
 0002:0000129c       ??_7?$CComObject@VCOPOSIndividualRecognition@@@ATL@@6B?$IPropertyNotifySinkCP@VCOPOSIndividualRecognition@@VCComDynamicUnkArray@ATL@@@1@@ 1002129c     IndividualRecognition.obj
 0002:000012bc       ??_7?$CComObject@VCOPOSIndividualRecognition@@@ATL@@6B?$CProxy_IOPOSEvents@VCOPOSIndividualRecognition@@@@@ 100212bc     IndividualRecognition.obj
 0002:000012dc       ??_C@_1O@GBFKGNEO@?$AAA?$AAT?$AAL?$AA?3?$AA?$CF?$AAp@ 100212dc     IndividualRecognition.obj
 0002:000012ec       ??_C@_1BA@PICGEGJB@?$AAD?$AAI?$AAS?$AAP?$AAL?$AAA?$AAY@ 100212ec     IndividualRecognition.obj
 0002:000012fc       __GUID_9bfbbc02_eff1_101a_84ed_00aa00341d07 100212fc     IndividualRecognition.obj
 0002:0000130c       __GUID_b196b284_bab4_101a_b69c_00aa00341d07 1002130c     IndividualRecognition.obj
 0002:0000131c       ?_entries@?1??_GetEntries@?$CComEnum@UIEnumConnectionPoints@@$1?_GUID_b196b285_bab4_101a_b69c_00aa00341d07@@3U__s_GUID@@BPAUIConnectionPoint@@V?$_CopyInterface@UIConnectionPoint@@@ATL@@VCComSingleThreadModel@6@@ATL@@SGPBU_ATL_INTMAP_ENTRY@3@XZ@4QBU43@B 1002131c     IndividualRecognition.obj
 0002:00001334       __GUID_00020412_0000_0000_c000_000000000046 10021334     IndividualRecognition.obj
 0002:00001344       __GUID_00020401_0000_0000_c000_000000000046 10021344     IndividualRecognition.obj
 0002:00001354       ??_7?$CComObject@V?$CComEnum@UIEnumConnections@@$1?_GUID_b196b287_bab4_101a_b69c_00aa00341d07@@3U__s_GUID@@BUtagCONNECTDATA@@V?$_Copy@UtagCONNECTDATA@@@ATL@@VCComSingleThreadModel@6@@ATL@@@ATL@@6B@ 10021354     IndividualRecognition.obj
 0002:00001374       __GUID_55980ba0_35aa_11cf_b671_00aa004cd6d8 10021374     IndividualRecognition.obj
 0002:00001384       __GUID_b196b28b_bab4_101a_b69c_00aa00341d07 10021384     IndividualRecognition.obj
 0002:00001394       ?_entries@?1??_GetEntries@?$CComEnum@UIEnumConnections@@$1?_GUID_b196b287_bab4_101a_b69c_00aa00341d07@@3U__s_GUID@@BUtagCONNECTDATA@@V?$_Copy@UtagCONNECTDATA@@@ATL@@VCComSingleThreadModel@6@@ATL@@SGPBU_ATL_INTMAP_ENTRY@3@XZ@4QBU43@B 10021394     IndividualRecognition.obj
 0002:000013ac       ??_C@_0BG@EKFFMJIO@RegOpenKeyTransactedW@ 100213ac     IndividualRecognition.obj
 0002:000013c4       ??_C@_0BI@HAKLOOGP@RegDeleteKeyTransactedW@ 100213c4     IndividualRecognition.obj
 0002:000013dc       ??_C@_0BA@LILAPHGE@RegDeleteKeyExW@ 100213dc     IndividualRecognition.obj
 0002:000013ec       ??_C@_19ILOCMLCJ@?$AA?4?$AAt?$AAl?$AAb@ 100213ec     IndividualRecognition.obj
 0002:000013f8       __GUID_0002e012_0000_0000_c000_000000000046 100213f8     IndividualRecognition.obj
 0002:00001408       ??_C@_1O@FHBGLCIO@?$AAC?$AAL?$AAS?$AAI?$AAD?$AA?2@ 10021408     IndividualRecognition.obj
 0002:00001418       ??_C@_1CK@IFBKBFAA@?$AA?2?$AAR?$AAe?$AAq?$AAu?$AAi?$AAr?$AAe?$AAd?$AA?5?$AAC?$AAa?$AAt?$AAe?$AAg@ 10021418     IndividualRecognition.obj
 0002:00001444       ??_C@_1DA@BIHALFED@?$AA?2?$AAI?$AAm?$AAp?$AAl?$AAe?$AAm?$AAe?$AAn?$AAt?$AAe?$AAd?$AA?5?$AAC?$AAa@ 10021444     IndividualRecognition.obj
 0002:00001474       ??_C@_1BK@EDKOLFBJ@?$AAO?$AAL?$AAE?$AAA?$AAU?$AAT?$AA3?$AA2?$AA?4?$AAD?$AAL?$AAL@ 10021474     IndividualRecognition.obj
 0002:00001490       ??_C@_0BJ@CNLFOMHB@UnRegisterTypeLibForUser@ 10021490     IndividualRecognition.obj
 0002:000014ac       ??_C@_0BH@LBOMMKPJ@RegisterTypeLibForUser@ 100214ac     IndividualRecognition.obj
 0002:000014c4       ??_C@_0P@MMNMMLGK@COFreezeEvents@ 100214c4     IndividualRecognitionImpl.obj
 0002:000014d4       ??_C@_0BC@OGCGGIMP@GetPropertyNumber@ 100214d4     IndividualRecognitionImpl.obj
 0002:000014e8       ??_C@_0BC@MDCNODNB@SetPropertyNumber@ 100214e8     IndividualRecognitionImpl.obj
 0002:000014fc       ??_C@_0BC@CFCCMIMD@GetPropertyString@ 100214fc     IndividualRecognitionImpl.obj
 0002:00001510       ??_C@_0BC@CJEDNN@SetPropertyString@ 10021510     IndividualRecognitionImpl.obj
 0002:00001524       ??_C@_0M@LNPKKKDA@OpenService@ 10021524     IndividualRecognitionImpl.obj
 0002:00001530       ??_C@_0M@PCMCHHMH@CheckHealth@ 10021530     IndividualRecognitionImpl.obj
 0002:0000153c       ??_C@_0M@JGMIDNEK@ClaimDevice@ 1002153c     IndividualRecognitionImpl.obj
 0002:00001548       ??_C@_0L@BNEIFEJC@ClearInput@ 10021548     IndividualRecognitionImpl.obj
 0002:00001554       ??_C@_0N@DDFIIBMP@CloseService@ 10021554     IndividualRecognitionImpl.obj
 0002:00001564       ??_C@_08EEIHICPC@DirectIO@ 10021564     IndividualRecognitionImpl.obj
 0002:00001570       ??_C@_0O@BCPMENMJ@ReleaseDevice@ 10021570     IndividualRecognitionImpl.obj
 0002:00001580       ??_C@_0BA@GFABKEEE@ResetStatistics@ 10021580     IndividualRecognitionImpl.obj
 0002:00001590       ??_C@_0BD@DPALHJGC@RetrieveStatistics@ 10021590     IndividualRecognitionImpl.obj
 0002:000015a4       ??_C@_0BB@KOHIKNFC@UpdateStatistics@ 100215a4     IndividualRecognitionImpl.obj
 0002:000015b8       ??_C@_0BH@PBKBNMGB@CompareFirmwareVersion@ 100215b8     IndividualRecognitionImpl.obj
 0002:000015d0       ??_C@_0P@FBPDPIPA@UpdateFirmware@ 100215d0     IndividualRecognitionImpl.obj
 0002:000015e0       ??_C@_0BF@CMAPCJGM@ClearInputProperties@ 100215e0     IndividualRecognitionImpl.obj
 0002:000015f8       ??_7?$CProxy_IOPOSEvents@VCOPOSIndividualRecognition@@@@6B@ 100215f8     IndividualRecognitionImpl.obj
 0002:00001618       ??_C@_1BA@IFHENID@?$AA?$FL?$AAE?$AAr?$AAr?$AAo?$AAr?$AA?$FN@ 10021618     IndividualRecognitionImpl.obj
 0002:00001628       ??_C@_0DI@BFKIGIJJ@SOFTWARE?2OLEforRetail?2ServiceOP@ 10021628     IndividualRecognitionImpl.obj
 0002:00001660       ??_C@_1M@IAIJHCCH@?$AAC?$AAl?$AAo?$AAs?$AAe@ 10021660     IndividualRecognitionImpl.obj
 0002:0000166c       ??_C@_1M@PCPKGJAH@?$AAC?$AAl?$AAa?$AAi?$AAm@ 1002166c     IndividualRecognitionImpl.obj
 0002:00001678       ??_C@_1BA@NDFKIOCP@?$AAR?$AAe?$AAl?$AAe?$AAa?$AAs?$AAe@ 10021678     IndividualRecognitionImpl.obj
 0002:00001688       ??_C@_0BG@ELFIPPDC@IndividualRecognition@ 10021688     IndividualRecognitionImpl.obj
 0002:000016a0       ??_C@_1BM@IJMNMBPK@?$AAG?$AAe?$AAt?$AAO?$AAp?$AAe?$AAn?$AAR?$AAe?$AAs?$AAu?$AAl?$AAt@ 100216a0     IndividualRecognitionImpl.obj
 0002:000016bc       _IID_IPropertyNotifySink   100216bc     uuid:ocidl_i.obj
 0002:000016cc       _GUID_NULL                 100216cc     uuid:cguid_i.obj
 0002:000016dc       _CLSID_StdGlobalInterfaceTable 100216dc     uuid:cguid_i.obj
 0002:000016ec       _IID_IDispatch             100216ec     uuid:oaidl_i.obj
 0002:000016fc       _CLSID_StdComponentCategoriesMgr 100216fc     uuid:ieguids.obj
 0002:0000170c       _IID_IUnknown              1002170c     uuid:unknwn_i.obj
 0002:00001720       ??_C@_1EC@JIJBPKFM@?$AAa?$AAp?$AAi?$AA?9?$AAm?$AAs?$AA?9?$AAw?$AAi?$AAn?$AA?9?$AAc?$AAo?$AAr?$AAe@ 10021720     LIBCMT:thread_safe_statics.obj
 0002:00001764       ??_C@_1BK@MGMFAEKH@?$AAk?$AAe?$AAr?$AAn?$AAe?$AAl?$AA3?$AA2?$AA?4?$AAd?$AAl?$AAl@ 10021764     LIBCMT:thread_safe_statics.obj
 0002:00001780       ??_C@_0BJ@JEBJOJFJ@SleepConditionVariableCS@ 10021780     LIBCMT:thread_safe_statics.obj
 0002:0000179c       ??_C@_0BJ@PGPPEPCC@WakeAllConditionVariable@ 1002179c     LIBCMT:thread_safe_statics.obj
 0002:000017b5       ?nothrow@std@@3Unothrow_t@1@B 100217b5     LIBCMT:std_nothrow.obj
 0002:000017c0       __pRawDllMain              100217c0     LIBCMT:dll_dllmain.obj
 0002:000017c0       __pDefaultRawDllMain       100217c0     LIBCMT:dll_dllmain.obj
 0002:000017c8       ??_7exception@std@@6B@     100217c8     LIBCMT:throw_bad_alloc.obj
 0002:000017d0       ??_C@_0BC@EOODALEL@Unknown?5exception@ 100217d0     LIBCMT:throw_bad_alloc.obj
 0002:000017e8       ??_7bad_alloc@std@@6B@     100217e8     LIBCMT:throw_bad_alloc.obj
 0002:000017f0       ??_C@_0P@GHFPNOJB@bad?5allocation@ 100217f0     LIBCMT:throw_bad_alloc.obj
 0002:00001804       ??_7bad_array_new_length@std@@6B@ 10021804     LIBCMT:throw_bad_alloc.obj
 0002:0000180c       ??_C@_0BF@KINCDENJ@bad?5array?5new?5length@ 1002180c     LIBCMT:throw_bad_alloc.obj
 0002:00001828       ??_7type_info@@6B@         10021828     LIBCMT:std_type_info_static.obj
 0002:0000182c       _GUID_ATLVer110            1002182c     atls:atlbase.obj
 0002:00001840       ??_C@_1IC@ONKHOIDK@?$AAE?$AAR?$AAR?$AAO?$AAR?$AA?5?$AA?3?$AA?5?$AAU?$AAn?$AAa?$AAb?$AAl?$AAe?$AA?5@ 10021840     atls:atlbase.obj
 0002:000018c4       ??_C@_0N@FJEPLCIH@atlthunk?4dll@ 100218c4     atls:atlthunk.obj
 0002:000018d4       ??_C@_0BG@GAKFHCBM@AtlThunk_AllocateData@ 100218d4     atls:atlthunk.obj
 0002:000018ec       ??_C@_0BC@JKONFIAH@AtlThunk_InitData@ 100218ec     atls:atlthunk.obj
 0002:00001900       ??_C@_0BE@IAOEELAK@AtlThunk_DataToCode@ 10021900     atls:atlthunk.obj
 0002:00001914       ??_C@_0BC@GBGKAIPI@AtlThunk_FreeData@ 10021914     atls:atlthunk.obj
 0002:00001928       __pDestructExceptionObject 10021928     libvcruntime:ehhelpers.obj
 0002:00001930       ??_7bad_exception@std@@6B@ 10021930     libvcruntime:frame.obj
 0002:00001938       ??_C@_0O@DPKOEFFH@bad?5exception@ 10021938     libvcruntime:frame.obj
 0002:00001cc8       ??_C@_08EHJDFFNH@__based?$CI@ 10021cc8     libvcruntime:undname.obj
 0002:00001cd4       ??_C@_07KOLFKCDI@__cdecl@  10021cd4     libvcruntime:undname.obj
 0002:00001cdc       ??_C@_08GHMPAG@__pascal@   10021cdc     libvcruntime:undname.obj
 0002:00001ce8       ??_C@_09IFJBGAPI@__stdcall@ 10021ce8     libvcruntime:undname.obj
 0002:00001cf4       ??_C@_0L@NPHFGOKO@__thiscall@ 10021cf4     libvcruntime:undname.obj
 0002:00001d00       ??_C@_0L@JMKHOMEK@__fastcall@ 10021d00     libvcruntime:undname.obj
 0002:00001d0c       ??_C@_0N@BCKKPABJ@__vectorcall@ 10021d0c     libvcruntime:undname.obj
 0002:00001d1c       ??_C@_09HIJEGCPM@__clrcall@ 10021d1c     libvcruntime:undname.obj
 0002:00001d28       ??_C@_06GHPCKEAG@__eabi@   10021d28     libvcruntime:undname.obj
 0002:00001d30       ??_C@_09IOPIDJLG@__swift_1@ 10021d30     libvcruntime:undname.obj
 0002:00001d3c       ??_C@_09KFNFGKHF@__swift_2@ 10021d3c     libvcruntime:undname.obj
 0002:00001d48       ??_C@_07JOMMBBKO@__ptr64@  10021d48     libvcruntime:undname.obj
 0002:00001d50       ??_C@_0L@PILCLIHE@__restrict@ 10021d50     libvcruntime:undname.obj
 0002:00001d5c       ??_C@_0M@GFIIJFMG@__unaligned@ 10021d5c     libvcruntime:undname.obj
 0002:00001d68       ??_C@_09DHDLOLLB@restrict?$CI@ 10021d68     libvcruntime:undname.obj
 0002:00001d72       ??_C@_00CNPNBAHC@@         10021d72     libvcruntime:undname.obj
 0002:00001d74       ??_C@_04NIHEBCM@?5new@     10021d74     libvcruntime:undname.obj
 0002:00001d7c       ??_C@_07FPCDHGMM@?5delete@ 10021d7c     libvcruntime:undname.obj
 0002:00001d84       ??_C@_01NEMOKFLO@?$DN@     10021d84     libvcruntime:undname.obj
 0002:00001d88       ??_C@_02GPIOPFAK@?$DO?$DO@ 10021d88     libvcruntime:undname.obj
 0002:00001d8c       ??_C@_02FODMEDOG@?$DM?$DM@ 10021d8c     libvcruntime:undname.obj
 0002:00001d90       ??_C@_01DCLJPIOD@?$CB@     10021d90     libvcruntime:undname.obj
 0002:00001d94       ??_C@_02EGOFBIJA@?$DN?$DN@ 10021d94     libvcruntime:undname.obj
 0002:00001d98       ??_C@_02FDNJECIE@?$CB?$DN@ 10021d98     libvcruntime:undname.obj
 0002:00001d9c       ??_C@_02GPECMEKF@?$FL?$FN@ 10021d9c     libvcruntime:undname.obj
 0002:00001da0       ??_C@_08LHJFAFGD@operator@ 10021da0     libvcruntime:undname.obj
 0002:00001dac       ??_C@_02HBOOOICD@?9?$DO@   10021dac     libvcruntime:undname.obj
 0002:00001db0       ??_C@_01NBENCBCI@?$CK@     10021db0     libvcruntime:undname.obj
 0002:00001db4       ??_C@_02ECNGHCIF@?$CL?$CL@ 10021db4     libvcruntime:undname.obj
 0002:00001db8       ??_C@_02BAABKJLB@?9?9@     10021db8     libvcruntime:undname.obj
 0002:00001dbc       ??_C@_01JOAMLHOP@?9@       10021dbc     libvcruntime:undname.obj
 0002:00001dc0       ??_C@_01MIFGBAGJ@?$CL@     10021dc0     libvcruntime:undname.obj
 0002:00001dc4       ??_C@_01HNPIGOCE@?$CG@     10021dc4     libvcruntime:undname.obj
 0002:00001dc8       ??_C@_03MNHNFDLC@?9?$DO?$CK@ 10021dc8     libvcruntime:undname.obj
 0002:00001dcc       ??_C@_01KMDKNFGN@?1@       10021dcc     libvcruntime:undname.obj
 0002:00001dd0       ??_C@_01FGNFDNOH@?$CF@     10021dd0     libvcruntime:undname.obj
 0002:00001dd4       ??_C@_01MNNFJEPP@?$DM@     10021dd4     libvcruntime:undname.obj
 0002:00001dd8       ??_C@_02EHCHHCKH@?$DM?$DN@ 10021dd8     libvcruntime:undname.obj
 0002:00001ddc       ??_C@_01PPODPGHN@?$DO@     10021ddc     libvcruntime:undname.obj
 0002:00001de0       ??_C@_02EEKDKGMJ@?$DO?$DN@ 10021de0     libvcruntime:undname.obj
 0002:00001de4       ??_C@_01IHBHIGKO@?0@       10021de4     libvcruntime:undname.obj
 0002:00001de8       ??_C@_02HCKGKOFO@?$CI?$CJ@ 10021de8     libvcruntime:undname.obj
 0002:00001dec       ??_C@_01PJKLJHI@?$HO@      10021dec     libvcruntime:undname.obj
 0002:00001df0       ??_C@_01JKBOJNNK@?$FO@     10021df0     libvcruntime:undname.obj
 0002:00001df4       ??_C@_01DNKMNLPK@?$HM@     10021df4     libvcruntime:undname.obj
 0002:00001df8       ??_C@_02PPKAJPJL@?$CG?$CG@ 10021df8     libvcruntime:undname.obj
 0002:00001dfc       ??_C@_02NONPIBCD@?$HM?$HM@ 10021dfc     libvcruntime:undname.obj
 0002:00001e00       ??_C@_02FPIMKNGF@?$CK?$DN@ 10021e00     libvcruntime:undname.obj
 0002:00001e04       ??_C@_02FOEOMHFC@?$CL?$DN@ 10021e04     libvcruntime:undname.obj
 0002:00001e08       ??_C@_02FKMDLLOA@?9?$DN@   10021e08     libvcruntime:undname.obj
 0002:00001e0c       ??_C@_02FJEHGPIO@?1?$DN@   10021e0c     libvcruntime:undname.obj
 0002:00001e10       ??_C@_02FENAOKFI@?$CF?$DN@ 10021e10     libvcruntime:undname.obj
 0002:00001e14       ??_C@_03IKFCCPFF@?$DO?$DO?$DN@ 10021e14     libvcruntime:undname.obj
 0002:00001e18       ??_C@_03CDNPDDLA@?$DM?$DM?$DN@ 10021e18     libvcruntime:undname.obj
 0002:00001e1c       ??_C@_02FGJGFEAB@?$CG?$DN@ 10021e1c     libvcruntime:undname.obj
 0002:00001e20       ??_C@_02DHLNPPGH@?$HM?$DN@ 10021e20     libvcruntime:undname.obj
 0002:00001e24       ??_C@_02MHEGNOJ@?$FO?$DN@  10021e24     libvcruntime:undname.obj
 0002:00001e28       ??_C@_09IFPLHPGF@?$GAvftable?8@ 10021e28     libvcruntime:undname.obj
 0002:00001e34       ??_C@_09BLBHBJP@?$GAvbtable?8@ 10021e34     libvcruntime:undname.obj
 0002:00001e40       ??_C@_07FEEIOKP@?$GAvcall?8@ 10021e40     libvcruntime:undname.obj
 0002:00001e48       ??_C@_08LLFFHHDJ@?$GAtypeof?8@ 10021e48     libvcruntime:undname.obj
 0002:00001e54       ??_C@_0BF@KDPPACIK@?$GAlocal?5static?5guard?8@ 10021e54     libvcruntime:undname.obj
 0002:00001e6c       ??_C@_08OBABFOLI@?$GAstring?8@ 10021e6c     libvcruntime:undname.obj
 0002:00001e78       ??_C@_0BD@JDLKDPAB@?$GAvbase?5destructor?8@ 10021e78     libvcruntime:undname.obj
 0002:00001e8c       ??_C@_0BN@DEGPLNFK@?$GAvector?5deleting?5destructor?8@ 10021e8c     libvcruntime:undname.obj
 0002:00001eac       ??_C@_0BO@OBMKPJIG@?$GAdefault?5constructor?5closure?8@ 10021eac     libvcruntime:undname.obj
 0002:00001ecc       ??_C@_0BN@IMDCHIKM@?$GAscalar?5deleting?5destructor?8@ 10021ecc     libvcruntime:undname.obj
 0002:00001eec       ??_C@_0BO@PFGOCPJJ@?$GAvector?5constructor?5iterator?8@ 10021eec     libvcruntime:undname.obj
 0002:00001f0c       ??_C@_0BN@LFPFMEDL@?$GAvector?5destructor?5iterator?8@ 10021f0c     libvcruntime:undname.obj
 0002:00001f2c       ??_C@_0CE@IKBNEHA@?$GAvector?5vbase?5constructor?5itera@ 10021f2c     libvcruntime:undname.obj
 0002:00001f50       ??_C@_0BL@NILFHHPC@?$GAvirtual?5displacement?5map?8@ 10021f50     libvcruntime:undname.obj
 0002:00001f6c       ??_C@_0CB@JONCMFFK@?$GAeh?5vector?5constructor?5iterator@ 10021f6c     libvcruntime:undname.obj
 0002:00001f90       ??_C@_0CA@GCEOPDGL@?$GAeh?5vector?5destructor?5iterator?8@ 10021f90     libvcruntime:undname.obj
 0002:00001fb0       ??_C@_0CH@OOJPLCPH@?$GAeh?5vector?5vbase?5constructor?5it@ 10021fb0     libvcruntime:undname.obj
 0002:00001fd8       ??_C@_0BL@LLKPOHJI@?$GAcopy?5constructor?5closure?8@ 10021fd8     libvcruntime:undname.obj
 0002:00001ff4       ??_C@_0BA@KBCDOMBN@?$GAudt?5returning?8@ 10021ff4     libvcruntime:undname.obj
 0002:00002004       ??_C@_03KLGMFNMG@?$GAEH@   10022004     libvcruntime:undname.obj
 0002:00002008       ??_C@_05KHLCHHI@?$GARTTI@  10022008     libvcruntime:undname.obj
 0002:00002010       ??_C@_0BA@KKLDJDLB@?$GAlocal?5vftable?8@ 10022010     libvcruntime:undname.obj
 0002:00002020       ??_C@_0CE@IIHCMGGL@?$GAlocal?5vftable?5constructor?5clos@ 10022020     libvcruntime:undname.obj
 0002:00002044       ??_C@_06FHBGPFGH@?5new?$FL?$FN@ 10022044     libvcruntime:undname.obj
 0002:0000204c       ??_C@_09LBNFPBCA@?5delete?$FL?$FN@ 1002204c     libvcruntime:undname.obj
 0002:00002058       ??_C@_0P@HJKNJFNN@?$GAomni?5callsig?8@ 10022058     libvcruntime:undname.obj
 0002:00002068       ??_C@_0BL@CNOONJFP@?$GAplacement?5delete?5closure?8@ 10022068     libvcruntime:undname.obj
 0002:00002084       ??_C@_0BN@CKNJLHMB@?$GAplacement?5delete?$FL?$FN?5closure?8@ 10022084     libvcruntime:undname.obj
 0002:000020a4       ??_C@_0CG@CFDHKGGD@?$GAmanaged?5vector?5constructor?5ite@ 100220a4     libvcruntime:undname.obj
 0002:000020cc       ??_C@_0CF@IMGKMJNO@?$GAmanaged?5vector?5destructor?5iter@ 100220cc     libvcruntime:undname.obj
 0002:000020f4       ??_C@_0CG@HLDDJMAG@?$GAeh?5vector?5copy?5constructor?5ite@ 100220f4     libvcruntime:undname.obj
 0002:0000211c       ??_C@_0CM@FCBBDIGB@?$GAeh?5vector?5vbase?5copy?5construct@ 1002211c     libvcruntime:undname.obj
 0002:00002148       ??_C@_0BL@CLIPGLGB@?$GAdynamic?5initializer?5for?5?8@ 10022148     libvcruntime:undname.obj
 0002:00002164       ??_C@_0CB@PDBIFEP@?$GAdynamic?5atexit?5destructor?5for?5@ 10022164     libvcruntime:undname.obj
 0002:00002188       ??_C@_0CD@CGAJBKEJ@?$GAvector?5copy?5constructor?5iterat@ 10022188     libvcruntime:undname.obj
 0002:000021ac       ??_C@_0CJ@GJELGAMM@?$GAvector?5vbase?5copy?5constructor?5@ 100221ac     libvcruntime:undname.obj
 0002:000021d8       ??_C@_0CL@FGIJHLCE@?$GAmanaged?5vector?5copy?5constructo@ 100221d8     libvcruntime:undname.obj
 0002:00002204       ??_C@_0BM@PMGGMLDN@?$GAlocal?5static?5thread?5guard?8@ 10022204     libvcruntime:undname.obj
 0002:00002220       ??_C@_0N@BDNMDMOL@operator?5?$CC?$CC?5@ 10022220     libvcruntime:undname.obj
 0002:00002230       ??_C@_0BC@GGEBGALA@operator?5co_await@ 10022230     libvcruntime:undname.obj
 0002:00002244       ??_C@_0M@GAAIMMOH@operator?$DM?$DN?$DO@ 10022244     libvcruntime:undname.obj
 0002:00002250       ??_C@_0BC@DAFEJGAK@?5Type?5Descriptor?8@ 10022250     libvcruntime:undname.obj
 0002:00002264       ??_C@_0BM@LDKODKLH@?5Base?5Class?5Descriptor?5at?5?$CI@ 10022264     libvcruntime:undname.obj
 0002:00002280       ??_C@_0BD@LGICGFMM@?5Base?5Class?5Array?8@ 10022280     libvcruntime:undname.obj
 0002:00002294       ??_C@_0BN@MECKDCOJ@?5Class?5Hierarchy?5Descriptor?8@ 10022294     libvcruntime:undname.obj
 0002:000022b4       ??_C@_0BK@CFCOFLF@?5Complete?5Object?5Locator?8@ 100222b4     libvcruntime:undname.obj
 0002:000022d0       ??_C@_0BG@JNJLAMPM@?$GAanonymous?5namespace?8@ 100222d0     libvcruntime:undname.obj
 0002:000022f4       ??_C@_1DM@KHCHBNEB@?$AAa?$AAp?$AAi?$AA?9?$AAm?$AAs?$AA?9?$AAw?$AAi?$AAn?$AA?9?$AAc?$AAo?$AAr?$AAe@ 100222f4     libvcruntime:winapi_downlevel.obj
 0002:00002330       ??_C@_1DK@LPPGFMPP@?$AAa?$AAp?$AAi?$AA?9?$AAm?$AAs?$AA?9?$AAw?$AAi?$AAn?$AA?9?$AAc?$AAo?$AAr?$AAe@ 10022330     libvcruntime:winapi_downlevel.obj
 0002:0000236c       ??_C@_1BC@GDMECMAK@?$AAk?$AAe?$AAr?$AAn?$AAe?$AAl?$AA3?$AA2@ 1002236c     libvcruntime:winapi_downlevel.obj
 0002:00002380       ??_C@_1BA@PFFKHIOG@?$AAa?$AAp?$AAi?$AA?9?$AAm?$AAs?$AA?9@ 10022380     libvcruntime:winapi_downlevel.obj
 0002:00002398       ??_C@_08KNHFBNJ@FlsAlloc@  10022398     libvcruntime:winapi_downlevel.obj
 0002:000023ac       ??_C@_07PEJMOBNF@FlsFree@  100223ac     libvcruntime:winapi_downlevel.obj
 0002:000023bc       ??_C@_0M@GDNOONDI@FlsGetValue@ 100223bc     libvcruntime:winapi_downlevel.obj
 0002:000023d0       ??_C@_0M@JCPCPOEF@FlsSetValue@ 100223d0     libvcruntime:winapi_downlevel.obj
 0002:000023e4       ??_C@_0BM@HCFOFFN@InitializeCriticalSectionEx@ 100223e4     libvcruntime:winapi_downlevel.obj
 0002:00002568       ?format_validation_lookup_table_spectre@__crt_stdio_output@@3V?$spectre_mitigated_lookup_table@Ustate_transition_pair@__crt_stdio_output@@$0IA@@1@B 10022568     libucrt:output.obj
 0002:00002968       ??_C@_1O@CEDCILHN@?$AA?$CI?$AAn?$AAu?$AAl?$AAl?$AA?$CJ@ 10022968     libucrt:output.obj
 0002:00002978       ??_C@_06OJHGLDPL@?$CInull?$CJ@ 10022978     libucrt:output.obj
 0002:00002980       ___acrt_exception_action_table 10022980     libucrt:exception_filter.obj
 0002:00002a10       ___acrt_signal_action_table_count 10022a10     libucrt:exception_filter.obj
 0002:00002a14       ___acrt_signal_action_first_fpe_index 10022a14     libucrt:exception_filter.obj
 0002:00002a18       ___acrt_signal_action_fpe_count 10022a18     libucrt:exception_filter.obj
 0002:00002a1c       ??_C@_1BI@BGOHAHKC@?$AAm?$AAs?$AAc?$AAo?$AAr?$AAe?$AAe?$AA?4?$AAd?$AAl?$AAl@ 10022a1c     libucrt:exit.obj
 0002:00002a34       ??_C@_0P@MIGLKIOC@CorExitProcess@ 10022a34     libucrt:exit.obj
 0002:00002b18       ??_C@_1EA@JGEFHKEI@?$AAa?$AAp?$AAi?$AA?9?$AAm?$AAs?$AA?9?$AAw?$AAi?$AAn?$AA?9?$AAc?$AAo?$AAr?$AAe@ 10022b18     libucrt:winapi_thunks.obj
 0002:00002b58       ??_C@_1DI@IJCEHOCB@?$AAa?$AAp?$AAi?$AA?9?$AAm?$AAs?$AA?9?$AAw?$AAi?$AAn?$AA?9?$AAc?$AAo?$AAr?$AAe@ 10022b58     libucrt:winapi_thunks.obj
 0002:00002b90       ??_C@_1EI@MPIAOHOC@?$AAa?$AAp?$AAi?$AA?9?$AAm?$AAs?$AA?9?$AAw?$AAi?$AAn?$AA?9?$AAc?$AAo?$AAr?$AAe@ 10022b90     libucrt:winapi_thunks.obj
 0002:00002bd8       ??_C@_1FK@FPHCKFIE@?$AAa?$AAp?$AAi?$AA?9?$AAm?$AAs?$AA?9?$AAw?$AAi?$AAn?$AA?9?$AAc?$AAo?$AAr?$AAe@ 10022bd8     libucrt:winapi_thunks.obj
 0002:00002c38       ??_C@_1EM@DILCGIIO@?$AAa?$AAp?$AAi?$AA?9?$AAm?$AAs?$AA?9?$AAw?$AAi?$AAn?$AA?9?$AAc?$AAo?$AAr?$AAe@ 10022c38     libucrt:winapi_thunks.obj
 0002:00002c84       ??_C@_1DM@LNCGDDPN@?$AAa?$AAp?$AAi?$AA?9?$AAm?$AAs?$AA?9?$AAw?$AAi?$AAn?$AA?9?$AAc?$AAo?$AAr?$AAe@ 10022c84     libucrt:winapi_thunks.obj
 0002:00002cc0       ??_C@_1DO@FPAPJEMD@?$AAa?$AAp?$AAi?$AA?9?$AAm?$AAs?$AA?9?$AAw?$AAi?$AAn?$AA?9?$AAc?$AAo?$AAr?$AAe@ 10022cc0     libucrt:winapi_thunks.obj
 0002:00002d00       ??_C@_1DK@NDHNAHIO@?$AAa?$AAp?$AAi?$AA?9?$AAm?$AAs?$AA?9?$AAw?$AAi?$AAn?$AA?9?$AAc?$AAo?$AAr?$AAe@ 10022d00     libucrt:winapi_thunks.obj
 0002:00002d3c       ??_C@_1DM@KGHDGBCM@?$AAa?$AAp?$AAi?$AA?9?$AAm?$AAs?$AA?9?$AAw?$AAi?$AAn?$AA?9?$AAc?$AAo?$AAr?$AAe@ 10022d3c     libucrt:winapi_thunks.obj
 0002:00002d78       ??_C@_1EO@IJIOEFOH@?$AAa?$AAp?$AAi?$AA?9?$AAm?$AAs?$AA?9?$AAw?$AAi?$AAn?$AA?9?$AAr?$AAt?$AAc?$AAo@ 10022d78     libucrt:winapi_thunks.obj
 0002:00002dc8       ??_C@_1FG@HHGEKANL@?$AAa?$AAp?$AAi?$AA?9?$AAm?$AAs?$AA?9?$AAw?$AAi?$AAn?$AA?9?$AAs?$AAe?$AAc?$AAu@ 10022dc8     libucrt:winapi_thunks.obj
 0002:00002e20       ??_C@_1EG@DBIOJECG@?$AAe?$AAx?$AAt?$AA?9?$AAm?$AAs?$AA?9?$AAw?$AAi?$AAn?$AA?9?$AAn?$AAt?$AAu?$AAs@ 10022e20     libucrt:winapi_thunks.obj
 0002:00002e68       ??_C@_1EO@FIHMJCLF@?$AAe?$AAx?$AAt?$AA?9?$AAm?$AAs?$AA?9?$AAw?$AAi?$AAn?$AA?9?$AAn?$AAt?$AAu?$AAs@ 10022e68     libucrt:winapi_thunks.obj
 0002:00002eb8       ??_C@_1BC@DNHGCMLG@?$AAa?$AAd?$AAv?$AAa?$AAp?$AAi?$AA3?$AA2@ 10022eb8     libucrt:winapi_thunks.obj
 0002:00002ecc       ??_C@_1M@OAIMIKLP@?$AAn?$AAt?$AAd?$AAl?$AAl@ 10022ecc     libucrt:winapi_thunks.obj
 0002:00002ed8       ??_C@_1EG@DPGNFKGC@?$AAa?$AAp?$AAi?$AA?9?$AAm?$AAs?$AA?9?$AAw?$AAi?$AAn?$AA?9?$AAa?$AAp?$AAp?$AAm@ 10022ed8     libucrt:winapi_thunks.obj
 0002:00002f20       ??_C@_1O@BCCLBEOE@?$AAu?$AAs?$AAe?$AAr?$AA3?$AA2@ 10022f20     libucrt:winapi_thunks.obj
 0002:00002f30       ??_C@_1BA@IAIFMGEF@?$AAe?$AAx?$AAt?$AA?9?$AAm?$AAs?$AA?9@ 10022f30     libucrt:winapi_thunks.obj
 0002:00002f44       ??_C@_0BA@FHFNEAED@AreFileApisANSI@ 10022f44     libucrt:winapi_thunks.obj
 0002:00002f84       ??_C@_0O@KKBNKAPF@LCMapStringEx@ 10022f84     libucrt:winapi_thunks.obj
 0002:00002f9c       ??_C@_0BB@HBDEELFH@LocaleNameToLCID@ 10022f9c     libucrt:winapi_thunks.obj
 0002:00002fb4       ??_C@_0CF@OJOFEIGO@AppPolicyGetProcessTerminationM@ 10022fb4     libucrt:winapi_thunks.obj
 0002:00002fe4       ??_C@_0BI@BKLFFAPO@SetThreadStackGuarantee@ 10022fe4     libucrt:winapi_thunks.obj
 0002:00003040       ??_C@_03OEIAHPBN@INF@      10023040     libucrt:cvt.obj
 0002:00003044       ??_C@_03OJHLLCGB@inf@      10023044     libucrt:cvt.obj
 0002:00003048       ??_C@_03LKNCIKJB@NAN@      10023048     libucrt:cvt.obj
 0002:0000304c       ??_C@_03LHCJEHON@nan@      1002304c     libucrt:cvt.obj
 0002:00003050       ??_C@_09OFJJIMPC@NAN?$CISNAN?$CJ@ 10023050     libucrt:cvt.obj
 0002:0000305c       ??_C@_09IPFBKMDL@nan?$CIsnan?$CJ@ 1002305c     libucrt:cvt.obj
 0002:00003068       ??_C@_08IKHNHAJ@NAN?$CIIND?$CJ@ 10023068     libucrt:cvt.obj
 0002:00003074       ??_C@_08OFCDMILK@nan?$CIind?$CJ@ 10023074     libucrt:cvt.obj
 0002:00003080       ??_C@_05KLBDPFGC@e?$CL000@ 10023080     libucrt:cvt.obj
 0002:00003088       ___lc_time_c               10023088     libucrt:nlsdata.obj
 0002:000031ec       ??_C@_03KOEHGMDN@Sun@      100231ec     libucrt:nlsdata.obj
 0002:000031f0       ??_C@_03PDAGKDH@Mon@       100231f0     libucrt:nlsdata.obj
 0002:000031f4       ??_C@_03NAGEINEP@Tue@      100231f4     libucrt:nlsdata.obj
 0002:000031f8       ??_C@_03MHOMLAJA@Wed@      100231f8     libucrt:nlsdata.obj
 0002:000031fc       ??_C@_03IOFIKPDN@Thu@      100231fc     libucrt:nlsdata.obj
 0002:00003200       ??_C@_03IDIOELNC@Fri@      10023200     libucrt:nlsdata.obj
 0002:00003204       ??_C@_03FEFJNEK@Sat@       10023204     libucrt:nlsdata.obj
 0002:00003208       ??_C@_06OOPIFAJ@Sunday@    10023208     libucrt:nlsdata.obj
 0002:00003210       ??_C@_06JLEDEDGH@Monday@   10023210     libucrt:nlsdata.obj
 0002:00003218       ??_C@_07BAAGCFCM@Tuesday@  10023218     libucrt:nlsdata.obj
 0002:00003220       ??_C@_09DLIGFAKA@Wednesday@ 10023220     libucrt:nlsdata.obj
 0002:0000322c       ??_C@_08HACCIKIA@Thursday@ 1002322c     libucrt:nlsdata.obj
 0002:00003238       ??_C@_06JECMNKMI@Friday@   10023238     libucrt:nlsdata.obj
 0002:00003240       ??_C@_08INBOOONO@Saturday@ 10023240     libucrt:nlsdata.obj
 0002:0000324c       ??_C@_03JIHJHPIE@Jan@      1002324c     libucrt:nlsdata.obj
 0002:00003250       ??_C@_03HJBDCHOM@Feb@      10023250     libucrt:nlsdata.obj
 0002:00003254       ??_C@_03ODNJBKGA@Mar@      10023254     libucrt:nlsdata.obj
 0002:00003258       ??_C@_03LEOLGMJP@Apr@      10023258     libucrt:nlsdata.obj
 0002:0000325c       ??_C@_03CNMDKL@May@        1002325c     libucrt:nlsdata.obj
 0002:00003260       ??_C@_03IDFGHECI@Jun@      10023260     libucrt:nlsdata.obj
 0002:00003264       ??_C@_03LBGABGKK@Jul@      10023264     libucrt:nlsdata.obj
 0002:00003268       ??_C@_03IFJFEIGA@Aug@      10023268     libucrt:nlsdata.obj
 0002:0000326c       ??_C@_03GGCAPAJC@Sep@      1002326c     libucrt:nlsdata.obj
 0002:00003270       ??_C@_03BMAOKBAD@Oct@      10023270     libucrt:nlsdata.obj
 0002:00003274       ??_C@_03JPJOFNIA@Nov@      10023274     libucrt:nlsdata.obj
 0002:00003278       ??_C@_03MKABNOCG@Dec@      10023278     libucrt:nlsdata.obj
 0002:0000327c       ??_C@_07CGJPFGJA@January@  1002327c     libucrt:nlsdata.obj
 0002:00003284       ??_C@_08GNJGEPFN@February@ 10023284     libucrt:nlsdata.obj
 0002:00003290       ??_C@_05HPCKOFNC@March@    10023290     libucrt:nlsdata.obj
 0002:00003298       ??_C@_05DMJDNLEJ@April@    10023298     libucrt:nlsdata.obj
 0002:000032a0       ??_C@_04CNLMGBGM@June@     100232a0     libucrt:nlsdata.obj
 0002:000032a8       ??_C@_04MIEPOIFP@July@     100232a8     libucrt:nlsdata.obj
 0002:000032b0       ??_C@_06LBBHFDDG@August@   100232b0     libucrt:nlsdata.obj
 0002:000032b8       ??_C@_09BHHEALKD@September@ 100232b8     libucrt:nlsdata.obj
 0002:000032c4       ??_C@_07JJNFCEND@October@  100232c4     libucrt:nlsdata.obj
 0002:000032cc       ??_C@_08HCHEGEOA@November@ 100232cc     libucrt:nlsdata.obj
 0002:000032d8       ??_C@_08EDHMEBNP@December@ 100232d8     libucrt:nlsdata.obj
 0002:000032e4       ??_C@_02DEDBPAFC@AM@       100232e4     libucrt:nlsdata.obj
 0002:000032e8       ??_C@_02CJNFDJBF@PM@       100232e8     libucrt:nlsdata.obj
 0002:000032ec       ??_C@_08BPBNCDIB@MM?1dd?1yy@ 100232ec     libucrt:nlsdata.obj
 0002:000032f8       ??_C@_0BE@CKGJFCPC@dddd?0?5MMMM?5dd?0?5yyyy@ 100232f8     libucrt:nlsdata.obj
 0002:0000330c       ??_C@_08JCCMCCIL@HH?3mm?3ss@ 1002330c     libucrt:nlsdata.obj
 0002:00003318       ??_C@_17MBGCMIPB@?$AAS?$AAu?$AAn@ 10023318     libucrt:nlsdata.obj
 0002:00003320       ??_C@_17KBOMKBF@?$AAM?$AAo?$AAn@ 10023320     libucrt:nlsdata.obj
 0002:00003328       ??_C@_17BMKGEGOJ@?$AAT?$AAu?$AAe@ 10023328     libucrt:nlsdata.obj
 0002:00003330       ??_C@_17CJEDCEPE@?$AAW?$AAe?$AAd@ 10023330     libucrt:nlsdata.obj
 0002:00003338       ??_C@_17PDPHAADD@?$AAT?$AAh?$AAu@ 10023338     libucrt:nlsdata.obj
 0002:00003340       ??_C@_17HFOLPPLP@?$AAF?$AAr?$AAi@ 10023340     libucrt:nlsdata.obj
 0002:00003348       ??_C@_17GGIBDPIH@?$AAS?$AAa?$AAt@ 10023348     libucrt:nlsdata.obj
 0002:00003350       ??_C@_1O@IHNHDHPB@?$AAS?$AAu?$AAn?$AAd?$AAa?$AAy@ 10023350     libucrt:nlsdata.obj
 0002:00003360       ??_C@_1O@MMNBFLIA@?$AAM?$AAo?$AAn?$AAd?$AAa?$AAy@ 10023360     libucrt:nlsdata.obj
 0002:00003370       ??_C@_1BA@ENFBFFEK@?$AAT?$AAu?$AAe?$AAs?$AAd?$AAa?$AAy@ 10023370     libucrt:nlsdata.obj
 0002:00003380       ??_C@_1BE@EBOGMDOH@?$AAW?$AAe?$AAd?$AAn?$AAe?$AAs?$AAd?$AAa?$AAy@ 10023380     libucrt:nlsdata.obj
 0002:00003394       ??_C@_1BC@HHMNLIHE@?$AAT?$AAh?$AAu?$AAr?$AAs?$AAd?$AAa?$AAy@ 10023394     libucrt:nlsdata.obj
 0002:000033a8       ??_C@_1O@PDICJHAG@?$AAF?$AAr?$AAi?$AAd?$AAa?$AAy@ 100233a8     libucrt:nlsdata.obj
 0002:000033b8       ??_C@_1BC@ENMNNPAJ@?$AAS?$AAa?$AAt?$AAu?$AAr?$AAd?$AAa?$AAy@ 100233b8     libucrt:nlsdata.obj
 0002:000033cc       ??_C@_17DKNBKCHM@?$AAJ?$AAa?$AAn@ 100233cc     libucrt:nlsdata.obj
 0002:000033d4       ??_C@_17LMDJEKJN@?$AAF?$AAe?$AAb@ 100233d4     libucrt:nlsdata.obj
 0002:000033dc       ??_C@_17CKNLEDEC@?$AAM?$AAa?$AAr@ 100233dc     libucrt:nlsdata.obj
 0002:000033e4       ??_C@_17LFPOIHDD@?$AAA?$AAp?$AAr@ 100233e4     libucrt:nlsdata.obj
 0002:000033ec       ??_C@_17PNNKMEED@?$AAM?$AAa?$AAy@ 100233ec     libucrt:nlsdata.obj
 0002:000033f4       ??_C@_17KCJGOCPB@?$AAJ?$AAu?$AAn@ 100233f4     libucrt:nlsdata.obj
 0002:000033fc       ??_C@_17IJPCKHK@?$AAJ?$AAu?$AAl@ 100233fc     libucrt:nlsdata.obj
 0002:00003404       ??_C@_17ICPELBCN@?$AAA?$AAu?$AAg@ 10023404     libucrt:nlsdata.obj
 0002:0000340c       ??_C@_17HCHCOKMG@?$AAS?$AAe?$AAp@ 1002340c     libucrt:nlsdata.obj
 0002:00003414       ??_C@_17FNLKOI@?$AAO?$AAc?$AAt@ 10023414     libucrt:nlsdata.obj
 0002:0000341c       ??_C@_17BBDMLCIG@?$AAN?$AAo?$AAv@ 1002341c     libucrt:nlsdata.obj
 0002:00003424       ??_C@_17EGKACKIF@?$AAD?$AAe?$AAc@ 10023424     libucrt:nlsdata.obj
 0002:0000342c       ??_C@_1BA@EFMEIEBA@?$AAJ?$AAa?$AAn?$AAu?$AAa?$AAr?$AAy@ 1002342c     libucrt:nlsdata.obj
 0002:0000343c       ??_C@_1BC@JGDDFFAM@?$AAF?$AAe?$AAb?$AAr?$AAu?$AAa?$AAr?$AAy@ 1002343c     libucrt:nlsdata.obj
 0002:00003450       ??_C@_1M@IKEENEDF@?$AAM?$AAa?$AAr?$AAc?$AAh@ 10023450     libucrt:nlsdata.obj
 0002:0000345c       ??_C@_1M@GJNLMHFD@?$AAA?$AAp?$AAr?$AAi?$AAl@ 1002345c     libucrt:nlsdata.obj
 0002:00003468       ??_C@_19EPFLPGAP@?$AAJ?$AAu?$AAn?$AAe@ 10023468     libucrt:nlsdata.obj
 0002:00003474       ??_C@_19BIFMLPCD@?$AAJ?$AAu?$AAl?$AAy@ 10023474     libucrt:nlsdata.obj
 0002:00003480       ??_C@_1O@PAHLKOAC@?$AAA?$AAu?$AAg?$AAu?$AAs?$AAt@ 10023480     libucrt:nlsdata.obj
 0002:00003490       ??_C@_1BE@DKAAMBJL@?$AAS?$AAe?$AAp?$AAt?$AAe?$AAm?$AAb?$AAe?$AAr@ 10023490     libucrt:nlsdata.obj
 0002:000034a4       ??_C@_1BA@EPANDLNG@?$AAO?$AAc?$AAt?$AAo?$AAb?$AAe?$AAr@ 100234a4     libucrt:nlsdata.obj
 0002:000034b4       ??_C@_1BC@BGLIFPF@?$AAN?$AAo?$AAv?$AAe?$AAm?$AAb?$AAe?$AAr@ 100234b4     libucrt:nlsdata.obj
 0002:000034c8       ??_C@_1BC@FEMKIFH@?$AAD?$AAe?$AAc?$AAe?$AAm?$AAb?$AAe?$AAr@ 100234c8     libucrt:nlsdata.obj
 0002:000034dc       ??_C@_15ODEHAHHF@?$AAA?$AAM@ 100234dc     libucrt:nlsdata.obj
 0002:000034e4       ??_C@_15CLMNNGEL@?$AAP?$AAM@ 100234e4     libucrt:nlsdata.obj
 0002:000034ec       ??_C@_1BC@IEBCMHCM@?$AAM?$AAM?$AA?1?$AAd?$AAd?$AA?1?$AAy?$AAy@ 100234ec     libucrt:nlsdata.obj
 0002:00003500       ??_C@_1CI@KNAKOEBC@?$AAd?$AAd?$AAd?$AAd?$AA?0?$AA?5?$AAM?$AAM?$AAM?$AAM?$AA?5?$AAd?$AAd?$AA?0?$AA?5@ 10023500     libucrt:nlsdata.obj
 0002:00003528       ??_C@_1BC@GDGBMEMK@?$AAH?$AAH?$AA?3?$AAm?$AAm?$AA?3?$AAs?$AAs@ 10023528     libucrt:nlsdata.obj
 0002:0000353c       ??_C@_1M@BMHNFIME@?$AAe?$AAn?$AA?9?$AAU?$AAS@ 1002353c     libucrt:nlsdata.obj
 0002:00003558       ??_C@_1M@HPNHIDJI@?$AAj?$AAa?$AA?9?$AAJ?$AAP@ 10023558     libucrt:mbctype.obj
 0002:00003564       ??_C@_1M@BIBDDEMK@?$AAz?$AAh?$AA?9?$AAC?$AAN@ 10023564     libucrt:mbctype.obj
 0002:00003570       ??_C@_1M@JLOOOEGK@?$AAk?$AAo?$AA?9?$AAK?$AAR@ 10023570     libucrt:mbctype.obj
 0002:0000357c       ??_C@_1M@CLNBBOPM@?$AAz?$AAh?$AA?9?$AAT?$AAW@ 1002357c     libucrt:mbctype.obj
 0002:00003588       ___newctype                10023588     libucrt:ctype.obj
 0002:00003888       ___newclmap                10023888     libucrt:ctype.obj
 0002:00003a08       ___newcumap                10023a08     libucrt:ctype.obj
 0002:00003b88       __wctype                   10023b88     libucrt:ctype.obj
 0002:000044b0       ??_C@_15EMKDOKLE@?$AAa?$AAr@ 100244b0     libucrt:lcidtoname_downlevel.obj
 0002:000044b8       ??_C@_15KNPADPLH@?$AAb?$AAg@ 100244b8     libucrt:lcidtoname_downlevel.obj
 0002:000044c0       ??_C@_15EDMHLDMO@?$AAc?$AAa@ 100244c0     libucrt:lcidtoname_downlevel.obj
 0002:000044c8       ??_C@_1O@BPEAJADD@?$AAz?$AAh?$AA?9?$AAC?$AAH?$AAS@ 100244c8     libucrt:lcidtoname_downlevel.obj
 0002:000044d8       ??_C@_15LJNHCMNK@?$AAc?$AAs@ 100244d8     libucrt:lcidtoname_downlevel.obj
 0002:000044e0       ??_C@_15FOMCIDHG@?$AAd?$AAa@ 100244e0     libucrt:lcidtoname_downlevel.obj
 0002:000044e8       ??_C@_15NBKABECB@?$AAd?$AAe@ 100244e8     libucrt:lcidtoname_downlevel.obj
 0002:000044f0       ??_C@_15GHPEIIAO@?$AAe?$AAl@ 100244f0     libucrt:lcidtoname_downlevel.obj
 0002:000044f8       ??_C@_15MNPNEAIF@?$AAe?$AAn@ 100244f8     libucrt:lcidtoname_downlevel.obj
 0002:00004500       ??_C@_15GPIOMPMH@?$AAe?$AAs@ 10024500     libucrt:lcidtoname_downlevel.obj
 0002:00004508       ??_C@_15NGLOAKJC@?$AAf?$AAi@ 10024508     libucrt:lcidtoname_downlevel.obj
 0002:00004510       ??_C@_15FBKGNKAM@?$AAf?$AAr@ 10024510     libucrt:lcidtoname_downlevel.obj
 0002:00004518       ??_C@_15KGGCNEFK@?$AAh?$AAe@ 10024518     libucrt:lcidtoname_downlevel.obj
 0002:00004520       ??_C@_15PGHLIDMF@?$AAh?$AAu@ 10024520     libucrt:lcidtoname_downlevel.obj
 0002:00004528       ??_C@_15BIEMAPLM@?$AAi?$AAs@ 10024528     libucrt:lcidtoname_downlevel.obj
 0002:00004530       ??_C@_15IFJLDHAF@?$AAi?$AAt@ 10024530     libucrt:lcidtoname_downlevel.obj
 0002:00004538       ??_C@_15GEMIOCAG@?$AAj?$AAa@ 10024538     libucrt:lcidtoname_downlevel.obj
 0002:00004540       ??_C@_15EPELEGJA@?$AAk?$AAo@ 10024540     libucrt:lcidtoname_downlevel.obj
 0002:00004548       ??_C@_15NDDHIMN@?$AAn?$AAl@ 10024548     libucrt:lcidtoname_downlevel.obj
 0002:00004550       ??_C@_15BPIGNHCD@?$AAn?$AAo@ 10024550     libucrt:lcidtoname_downlevel.obj
 0002:00004558       ??_C@_15DEOPBLCG@?$AAp?$AAl@ 10024558     libucrt:lcidtoname_downlevel.obj
 0002:00004560       ??_C@_15KBECGEFG@?$AAp?$AAt@ 10024560     libucrt:lcidtoname_downlevel.obj
 0002:00004568       ??_C@_15GLJCBFMD@?$AAr?$AAo@ 10024568     libucrt:lcidtoname_downlevel.obj
 0002:00004570       ??_C@_15FEDGKCDI@?$AAr?$AAu@ 10024570     libucrt:lcidtoname_downlevel.obj
 0002:00004578       ??_C@_15GLKMLLHM@?$AAh?$AAr@ 10024578     libucrt:lcidtoname_downlevel.obj
 0002:00004580       ??_C@_15CPKMFBDB@?$AAs?$AAk@ 10024580     libucrt:lcidtoname_downlevel.obj
 0002:00004588       ??_C@_15BAAIOGMK@?$AAs?$AAq@ 10024588     libucrt:lcidtoname_downlevel.obj
 0002:00004590       ??_C@_15INNPNOHD@?$AAs?$AAv@ 10024590     libucrt:lcidtoname_downlevel.obj
 0002:00004598       ??_C@_15CABMMOGH@?$AAt?$AAh@ 10024598     libucrt:lcidtoname_downlevel.obj
 0002:000045a0       ??_C@_15BPLIHJJM@?$AAt?$AAr@ 100245a0     libucrt:lcidtoname_downlevel.obj
 0002:000045a8       ??_C@_15NEOEKKDJ@?$AAu?$AAr@ 100245a8     libucrt:lcidtoname_downlevel.obj
 0002:000045b0       ??_C@_15NFICGAJK@?$AAi?$AAd@ 100245b0     libucrt:lcidtoname_downlevel.obj
 0002:000045b8       ??_C@_15PJPFLCCM@?$AAu?$AAk@ 100245b8     libucrt:lcidtoname_downlevel.obj
 0002:000045c0       ??_C@_15HPJPHDM@?$AAb?$AAe@ 100245c0     libucrt:lcidtoname_downlevel.obj
 0002:000045c8       ??_C@_15LCHLGJII@?$AAs?$AAl@ 100245c8     libucrt:lcidtoname_downlevel.obj
 0002:000045d0       ??_C@_15PCFJPHHO@?$AAe?$AAt@ 100245d0     libucrt:lcidtoname_downlevel.obj
 0002:000045d8       ??_C@_15HPFPGODN@?$AAl?$AAv@ 100245d8     libucrt:lcidtoname_downlevel.obj
 0002:000045e0       ??_C@_15NFFGKGLG@?$AAl?$AAt@ 100245e0     libucrt:lcidtoname_downlevel.obj
 0002:000045e8       ??_C@_15BDAKCCHN@?$AAf?$AAa@ 100245e8     libucrt:lcidtoname_downlevel.obj
 0002:000045f0       ??_C@_15NFGIAIAJ@?$AAv?$AAi@ 100245f0     libucrt:lcidtoname_downlevel.obj
 0002:000045f8       ??_C@_15LMKNDMHN@?$AAh?$AAy@ 100245f8     libucrt:lcidtoname_downlevel.obj
 0002:00004600       ??_C@_15IJBHMCFL@?$AAa?$AAz@ 10024600     libucrt:lcidtoname_downlevel.obj
 0002:00004608       ??_C@_15EKOFJABL@?$AAe?$AAu@ 10024608     libucrt:lcidtoname_downlevel.obj
 0002:00004610       ??_C@_15BGHADCNK@?$AAm?$AAk@ 10024610     libucrt:lcidtoname_downlevel.obj
 0002:00004618       ??_C@_15JDNICKHM@?$AAa?$AAf@ 10024618     libucrt:lcidtoname_downlevel.obj
 0002:00004620       ??_C@_15KPJEDBKD@?$AAk?$AAa@ 10024620     libucrt:lcidtoname_downlevel.obj
 0002:00004628       ??_C@_15PDNFFFEO@?$AAf?$AAo@ 10024628     libucrt:lcidtoname_downlevel.obj
 0002:00004630       ??_C@_15OMLEGLOC@?$AAh?$AAi@ 10024630     libucrt:lcidtoname_downlevel.obj
 0002:00004638       ??_C@_15IDNNENKK@?$AAm?$AAs@ 10024638     libucrt:lcidtoname_downlevel.obj
 0002:00004640       ??_C@_15MACJNBMH@?$AAk?$AAk@ 10024640     libucrt:lcidtoname_downlevel.obj
 0002:00004648       ??_C@_15DKDJEOND@?$AAk?$AAy@ 10024648     libucrt:lcidtoname_downlevel.obj
 0002:00004650       ??_C@_15DFGDLJBG@?$AAs?$AAw@ 10024650     libucrt:lcidtoname_downlevel.obj
 0002:00004658       ??_C@_15BBFAICNG@?$AAu?$AAz@ 10024658     libucrt:lcidtoname_downlevel.obj
 0002:00004660       ??_C@_15DKNDCGEA@?$AAt?$AAt@ 10024660     libucrt:lcidtoname_downlevel.obj
 0002:00004668       ??_C@_15MGIFMDPL@?$AAp?$AAa@ 10024668     libucrt:lcidtoname_downlevel.obj
 0002:00004670       ??_C@_15HCNDBBA@?$AAg?$AAu@ 10024670     libucrt:lcidtoname_downlevel.obj
 0002:00004678       ??_C@_15FNBEIBON@?$AAt?$AAa@ 10024678     libucrt:lcidtoname_downlevel.obj
 0002:00004680       ??_C@_15NCHGBGLK@?$AAt?$AAe@ 10024680     libucrt:lcidtoname_downlevel.obj
 0002:00004688       ??_C@_15PHPHCBPF@?$AAk?$AAn@ 10024688     libucrt:lcidtoname_downlevel.obj
 0002:00004690       ??_C@_15DLGBCKMP@?$AAm?$AAr@ 10024690     libucrt:lcidtoname_downlevel.obj
 0002:00004698       ??_C@_15EABBLBFF@?$AAs?$AAa@ 10024698     libucrt:lcidtoname_downlevel.obj
 0002:000046a0       ??_C@_15CBKOMCOI@?$AAm?$AAn@ 100246a0     libucrt:lcidtoname_downlevel.obj
 0002:000046a8       ??_C@_15CKDMCJAF@?$AAg?$AAl@ 100246a8     libucrt:lcidtoname_downlevel.obj
 0002:000046b0       ??_C@_17CNJFBPG@?$AAk?$AAo?$AAk@ 100246b0     libucrt:lcidtoname_downlevel.obj
 0002:000046b8       ??_C@_17FFBJICPL@?$AAs?$AAy?$AAr@ 100246b8     libucrt:lcidtoname_downlevel.obj
 0002:000046c0       ??_C@_17KPNDCPAF@?$AAd?$AAi?$AAv@ 100246c0     libucrt:lcidtoname_downlevel.obj
 0002:000046c8       ??_C@_1M@OKAHONE@?$AAa?$AAr?$AA?9?$AAS?$AAA@ 100246c8     libucrt:lcidtoname_downlevel.obj
 0002:000046d4       ??_C@_1M@FFFIGIGK@?$AAb?$AAg?$AA?9?$AAB?$AAG@ 100246d4     libucrt:lcidtoname_downlevel.obj
 0002:000046e0       ??_C@_1M@BJNKEDC@?$AAc?$AAa?$AA?9?$AAE?$AAS@ 100246e0     libucrt:lcidtoname_downlevel.obj
 0002:000046ec       ??_C@_1M@IJJHFJHA@?$AAc?$AAs?$AA?9?$AAC?$AAZ@ 100246ec     libucrt:lcidtoname_downlevel.obj
 0002:000046f8       ??_C@_1M@CLPEOBGI@?$AAd?$AAa?$AA?9?$AAD?$AAK@ 100246f8     libucrt:lcidtoname_downlevel.obj
 0002:00004704       ??_C@_1M@MCMADGCB@?$AAd?$AAe?$AA?9?$AAD?$AAE@ 10024704     libucrt:lcidtoname_downlevel.obj
 0002:00004710       ??_C@_1M@OOCKEMAM@?$AAe?$AAl?$AA?9?$AAG?$AAR@ 10024710     libucrt:lcidtoname_downlevel.obj
 0002:0000471c       ??_C@_1M@DDNJFGID@?$AAf?$AAi?$AA?9?$AAF?$AAI@ 1002471c     libucrt:lcidtoname_downlevel.obj
 0002:00004728       ??_C@_1M@GLIPPMAC@?$AAf?$AAr?$AA?9?$AAF?$AAR@ 10024728     libucrt:lcidtoname_downlevel.obj
 0002:00004734       ??_C@_1M@GFMCHPE@?$AAh?$AAe?$AA?9?$AAI?$AAL@ 10024734     libucrt:lcidtoname_downlevel.obj
 0002:00004740       ??_C@_1M@MHLPGNKM@?$AAh?$AAu?$AA?9?$AAH?$AAU@ 10024740     libucrt:lcidtoname_downlevel.obj
 0002:0000474c       ??_C@_1M@LPDDNNPN@?$AAi?$AAs?$AA?9?$AAI?$AAS@ 1002474c     libucrt:lcidtoname_downlevel.obj
 0002:00004758       ??_C@_1M@MADIPODN@?$AAi?$AAt?$AA?9?$AAI?$AAT@ 10024758     libucrt:lcidtoname_downlevel.obj
 0002:00004764       ??_C@_1M@IHBJJGG@?$AAn?$AAl?$AA?9?$AAN?$AAL@ 10024764     libucrt:lcidtoname_downlevel.obj
 0002:00004770       ??_C@_1M@EANAGDL@?$AAn?$AAb?$AA?9?$AAN?$AAO@ 10024770     libucrt:lcidtoname_downlevel.obj
 0002:0000477c       ??_C@_1M@NEIEMEGP@?$AAp?$AAl?$AA?9?$AAP?$AAL@ 1002477c     libucrt:lcidtoname_downlevel.obj
 0002:00004788       ??_C@_1M@BOCFIGEP@?$AAp?$AAt?$AA?9?$AAB?$AAR@ 10024788     libucrt:lcidtoname_downlevel.obj
 0002:00004794       ??_C@_1M@IMPFOPBG@?$AAr?$AAo?$AA?9?$AAR?$AAO@ 10024794     libucrt:lcidtoname_downlevel.obj
 0002:000047a0       ??_C@_1M@IDNNEJMM@?$AAr?$AAu?$AA?9?$AAR?$AAU@ 100247a0     libucrt:lcidtoname_downlevel.obj
 0002:000047ac       ??_C@_1M@LILEEOGM@?$AAh?$AAr?$AA?9?$AAH?$AAR@ 100247ac     libucrt:lcidtoname_downlevel.obj
 0002:000047b8       ??_C@_1M@FKIFEHPB@?$AAs?$AAk?$AA?9?$AAS?$AAK@ 100247b8     libucrt:lcidtoname_downlevel.obj
 0002:000047c4       ??_C@_1M@LJMAMNPJ@?$AAs?$AAq?$AA?9?$AAA?$AAL@ 100247c4     libucrt:lcidtoname_downlevel.obj
 0002:000047d0       ??_C@_1M@GIAKDKJK@?$AAs?$AAv?$AA?9?$AAS?$AAE@ 100247d0     libucrt:lcidtoname_downlevel.obj
 0002:000047dc       ??_C@_1M@MKJKIKCL@?$AAt?$AAh?$AA?9?$AAT?$AAH@ 100247dc     libucrt:lcidtoname_downlevel.obj
 0002:000047e8       ??_C@_1M@MFLCCMPB@?$AAt?$AAr?$AA?9?$AAT?$AAR@ 100247e8     libucrt:lcidtoname_downlevel.obj
 0002:000047f4       ??_C@_1M@OIJHDKJN@?$AAu?$AAr?$AA?9?$AAP?$AAK@ 100247f4     libucrt:lcidtoname_downlevel.obj
 0002:00004800       ??_C@_1M@LHIPCIEK@?$AAi?$AAd?$AA?9?$AAI?$AAD@ 10024800     libucrt:lcidtoname_downlevel.obj
 0002:0000480c       ??_C@_1M@MFMOBGI@?$AAu?$AAk?$AA?9?$AAU?$AAA@ 1002480c     libucrt:lcidtoname_downlevel.obj
 0002:00004818       ??_C@_1M@OBGLJIPL@?$AAb?$AAe?$AA?9?$AAB?$AAY@ 10024818     libucrt:lcidtoname_downlevel.obj
 0002:00004824       ??_C@_1M@BCFAJEAD@?$AAs?$AAl?$AA?9?$AAS?$AAI@ 10024824     libucrt:lcidtoname_downlevel.obj
 0002:00004830       ??_C@_1M@FKFFEDDN@?$AAe?$AAt?$AA?9?$AAE?$AAE@ 10024830     libucrt:lcidtoname_downlevel.obj
 0002:0000483c       ??_C@_1M@KGKKAACI@?$AAl?$AAv?$AA?9?$AAL?$AAV@ 1002483c     libucrt:lcidtoname_downlevel.obj
 0002:00004848       ??_C@_1M@IFGBIJO@?$AAl?$AAt?$AA?9?$AAL?$AAT@ 10024848     libucrt:lcidtoname_downlevel.obj
 0002:00004854       ??_C@_1M@FGEAHEDM@?$AAf?$AAa?$AA?9?$AAI?$AAR@ 10024854     libucrt:lcidtoname_downlevel.obj
 0002:00004860       ??_C@_1M@KBMAIBFN@?$AAv?$AAi?$AA?9?$AAV?$AAN@ 10024860     libucrt:lcidtoname_downlevel.obj
 0002:0000486c       ??_C@_1M@GPCBKDJK@?$AAh?$AAy?$AA?9?$AAA?$AAM@ 1002486c     libucrt:lcidtoname_downlevel.obj
 0002:00004878       ??_C@_1BG@BECMDDJB@?$AAa?$AAz?$AA?9?$AAA?$AAZ?$AA?9?$AAL?$AAa?$AAt?$AAn@ 10024878     libucrt:lcidtoname_downlevel.obj
 0002:00004890       ??_C@_1M@MAOFCAEA@?$AAe?$AAu?$AA?9?$AAE?$AAS@ 10024890     libucrt:lcidtoname_downlevel.obj
 0002:0000489c       ??_C@_1M@IGHABKPI@?$AAm?$AAk?$AA?9?$AAM?$AAK@ 1002489c     libucrt:lcidtoname_downlevel.obj
 0002:000048a8       ??_C@_1M@IAIGNEJG@?$AAt?$AAn?$AA?9?$AAZ?$AAA@ 100248a8     libucrt:lcidtoname_downlevel.obj
 0002:000048b4       ??_C@_1M@IIJCOJFA@?$AAx?$AAh?$AA?9?$AAZ?$AAA@ 100248b4     libucrt:lcidtoname_downlevel.obj
 0002:000048c0       ??_C@_1M@LGPJHNJH@?$AAz?$AAu?$AA?9?$AAZ?$AAA@ 100248c0     libucrt:lcidtoname_downlevel.obj
 0002:000048cc       ??_C@_1M@HOKAOIO@?$AAa?$AAf?$AA?9?$AAZ?$AAA@ 100248cc     libucrt:lcidtoname_downlevel.obj
 0002:000048d8       ??_C@_1M@DPCLHLIE@?$AAk?$AAa?$AA?9?$AAG?$AAE@ 100248d8     libucrt:lcidtoname_downlevel.obj
 0002:000048e4       ??_C@_1M@BLKMHJBI@?$AAf?$AAo?$AA?9?$AAF?$AAO@ 100248e4     libucrt:lcidtoname_downlevel.obj
 0002:000048f0       ??_C@_1M@LGGJAPPB@?$AAh?$AAi?$AA?9?$AAI?$AAN@ 100248f0     libucrt:lcidtoname_downlevel.obj
 0002:000048fc       ??_C@_1M@FIKPIHFE@?$AAm?$AAt?$AA?9?$AAM?$AAT@ 100248fc     libucrt:lcidtoname_downlevel.obj
 0002:00004908       ??_C@_1M@HEGGPBFA@?$AAs?$AAe?$AA?9?$AAN?$AAO@ 10024908     libucrt:lcidtoname_downlevel.obj
 0002:00004914       ??_C@_1M@EIBJEEPA@?$AAm?$AAs?$AA?9?$AAM?$AAY@ 10024914     libucrt:lcidtoname_downlevel.obj
 0002:00004920       ??_C@_1M@FHLBGMPP@?$AAk?$AAk?$AA?9?$AAK?$AAZ@ 10024920     libucrt:lcidtoname_downlevel.obj
 0002:0000492c       ??_C@_1M@NGJJLCGI@?$AAk?$AAy?$AA?9?$AAK?$AAG@ 1002492c     libucrt:lcidtoname_downlevel.obj
 0002:00004938       ??_C@_1M@GIENNBFC@?$AAs?$AAw?$AA?9?$AAK?$AAE@ 10024938     libucrt:lcidtoname_downlevel.obj
 0002:00004944       ??_C@_1BG@NDGMJIMJ@?$AAu?$AAz?$AA?9?$AAU?$AAZ?$AA?9?$AAL?$AAa?$AAt?$AAn@ 10024944     libucrt:lcidtoname_downlevel.obj
 0002:0000495c       ??_C@_1M@IDCCIHBC@?$AAt?$AAt?$AA?9?$AAR?$AAU@ 1002495c     libucrt:lcidtoname_downlevel.obj
 0002:00004968       ??_C@_1M@LOICPMOJ@?$AAb?$AAn?$AA?9?$AAI?$AAN@ 10024968     libucrt:lcidtoname_downlevel.obj
 0002:00004974       ??_C@_1M@KPKKNEAH@?$AAp?$AAa?$AA?9?$AAI?$AAN@ 10024974     libucrt:lcidtoname_downlevel.obj
 0002:00004980       ??_C@_1M@PJGPPBOG@?$AAg?$AAu?$AA?9?$AAI?$AAN@ 10024980     libucrt:lcidtoname_downlevel.obj
 0002:0000498c       ??_C@_1M@KMKMOPHI@?$AAt?$AAa?$AA?9?$AAI?$AAN@ 1002498c     libucrt:lcidtoname_downlevel.obj
 0002:00004998       ??_C@_1M@KFEHEPAC@?$AAt?$AAe?$AA?9?$AAI?$AAN@ 10024998     libucrt:lcidtoname_downlevel.obj
 0002:000049a4       ??_C@_1M@CDCLMGHI@?$AAk?$AAn?$AA?9?$AAI?$AAN@ 100249a4     libucrt:lcidtoname_downlevel.obj
 0002:000049b0       ??_C@_1M@MIODLDKF@?$AAm?$AAl?$AA?9?$AAI?$AAN@ 100249b0     libucrt:lcidtoname_downlevel.obj
 0002:000049bc       ??_C@_1M@PBIEACPO@?$AAm?$AAr?$AA?9?$AAI?$AAN@ 100249bc     libucrt:lcidtoname_downlevel.obj
 0002:000049c8       ??_C@_1M@NIDEAGPH@?$AAs?$AAa?$AA?9?$AAI?$AAN@ 100249c8     libucrt:lcidtoname_downlevel.obj
 0002:000049d4       ??_C@_1M@FHIHCBIO@?$AAm?$AAn?$AA?9?$AAM?$AAN@ 100249d4     libucrt:lcidtoname_downlevel.obj
 0002:000049e0       ??_C@_1M@JAIJPENP@?$AAc?$AAy?$AA?9?$AAG?$AAB@ 100249e0     libucrt:lcidtoname_downlevel.obj
 0002:000049ec       ??_C@_1M@PHGFBEPN@?$AAg?$AAl?$AA?9?$AAE?$AAS@ 100249ec     libucrt:lcidtoname_downlevel.obj
 0002:000049f8       ??_C@_1O@KPIPDNCP@?$AAk?$AAo?$AAk?$AA?9?$AAI?$AAN@ 100249f8     libucrt:lcidtoname_downlevel.obj
 0002:00004a08       ??_C@_1O@KNHJLDJA@?$AAs?$AAy?$AAr?$AA?9?$AAS?$AAY@ 10024a08     libucrt:lcidtoname_downlevel.obj
 0002:00004a18       ??_C@_1O@MKEKBLAH@?$AAd?$AAi?$AAv?$AA?9?$AAM?$AAV@ 10024a18     libucrt:lcidtoname_downlevel.obj
 0002:00004a28       ??_C@_1O@OHDCKDDF@?$AAq?$AAu?$AAz?$AA?9?$AAB?$AAO@ 10024a28     libucrt:lcidtoname_downlevel.obj
 0002:00004a38       ??_C@_1M@LEPJNLFD@?$AAn?$AAs?$AA?9?$AAZ?$AAA@ 10024a38     libucrt:lcidtoname_downlevel.obj
 0002:00004a44       ??_C@_1M@OMLEIIJB@?$AAm?$AAi?$AA?9?$AAN?$AAZ@ 10024a44     libucrt:lcidtoname_downlevel.obj
 0002:00004a50       ??_C@_1M@PMPEAILG@?$AAa?$AAr?$AA?9?$AAI?$AAQ@ 10024a50     libucrt:lcidtoname_downlevel.obj
 0002:00004a5c       ??_C@_1M@CNKPNOEE@?$AAd?$AAe?$AA?9?$AAC?$AAH@ 10024a5c     libucrt:lcidtoname_downlevel.obj
 0002:00004a68       ??_C@_1M@LKMGMLKO@?$AAe?$AAn?$AA?9?$AAG?$AAB@ 10024a68     libucrt:lcidtoname_downlevel.obj
 0002:00004a74       ??_C@_1M@PGKJFFGL@?$AAe?$AAs?$AA?9?$AAM?$AAX@ 10024a74     libucrt:lcidtoname_downlevel.obj
 0002:00004a80       ??_C@_1M@DNNANBDC@?$AAf?$AAr?$AA?9?$AAB?$AAE@ 10024a80     libucrt:lcidtoname_downlevel.obj
 0002:00004a8c       ??_C@_1M@HLGMDFHM@?$AAi?$AAt?$AA?9?$AAC?$AAH@ 10024a8c     libucrt:lcidtoname_downlevel.obj
 0002:00004a98       ??_C@_1M@CLLBGJH@?$AAn?$AAl?$AA?9?$AAB?$AAE@ 10024a98     libucrt:lcidtoname_downlevel.obj
 0002:00004aa4       ??_C@_1M@BODBOGLF@?$AAn?$AAn?$AA?9?$AAN?$AAO@ 10024aa4     libucrt:lcidtoname_downlevel.obj
 0002:00004ab0       ??_C@_1M@HFFAHKAD@?$AAp?$AAt?$AA?9?$AAP?$AAT@ 10024ab0     libucrt:lcidtoname_downlevel.obj
 0002:00004abc       ??_C@_1BG@LNOAKHIE@?$AAs?$AAr?$AA?9?$AAS?$AAP?$AA?9?$AAL?$AAa?$AAt?$AAn@ 10024abc     libucrt:lcidtoname_downlevel.obj
 0002:00004ad4       ??_C@_1M@HBMHBGAK@?$AAs?$AAv?$AA?9?$AAF?$AAI@ 10024ad4     libucrt:lcidtoname_downlevel.obj
 0002:00004ae0       ??_C@_1BG@DGCJGJBE@?$AAa?$AAz?$AA?9?$AAA?$AAZ?$AA?9?$AAC?$AAy?$AAr?$AAl@ 10024ae0     libucrt:lcidtoname_downlevel.obj
 0002:00004af8       ??_C@_1M@KEJDAAHB@?$AAs?$AAe?$AA?9?$AAS?$AAE@ 10024af8     libucrt:lcidtoname_downlevel.obj
 0002:00004b04       ??_C@_1M@HEIBJJAD@?$AAm?$AAs?$AA?9?$AAB?$AAN@ 10024b04     libucrt:lcidtoname_downlevel.obj
 0002:00004b10       ??_C@_1BG@PBGJMCEM@?$AAu?$AAz?$AA?9?$AAU?$AAZ?$AA?9?$AAC?$AAy?$AAr?$AAl@ 10024b10     libucrt:lcidtoname_downlevel.obj
 0002:00004b28       ??_C@_1O@LAOBCMDF@?$AAq?$AAu?$AAz?$AA?9?$AAE?$AAC@ 10024b28     libucrt:lcidtoname_downlevel.obj
 0002:00004b38       ??_C@_1M@POEEMAIO@?$AAa?$AAr?$AA?9?$AAE?$AAG@ 10024b38     libucrt:lcidtoname_downlevel.obj
 0002:00004b44       ??_C@_1M@EFAKDEDL@?$AAz?$AAh?$AA?9?$AAH?$AAK@ 10024b44     libucrt:lcidtoname_downlevel.obj
 0002:00004b50       ??_C@_1M@HKKIJHGI@?$AAd?$AAe?$AA?9?$AAA?$AAT@ 10024b50     libucrt:lcidtoname_downlevel.obj
 0002:00004b5c       ??_C@_1M@KBFBEHJF@?$AAe?$AAn?$AA?9?$AAA?$AAU@ 10024b5c     libucrt:lcidtoname_downlevel.obj
 0002:00004b68       ??_C@_1M@MNPLFAAH@?$AAe?$AAs?$AA?9?$AAE?$AAS@ 10024b68     libucrt:lcidtoname_downlevel.obj
 0002:00004b74       ??_C@_1M@HJOOJFMA@?$AAf?$AAr?$AA?9?$AAC?$AAA@ 10024b74     libucrt:lcidtoname_downlevel.obj
 0002:00004b80       ??_C@_1BG@JPOFPNAB@?$AAs?$AAr?$AA?9?$AAS?$AAP?$AA?9?$AAC?$AAy?$AAr?$AAl@ 10024b80     libucrt:lcidtoname_downlevel.obj
 0002:00004b98       ??_C@_1M@LNFOCMOB@?$AAs?$AAe?$AA?9?$AAF?$AAI@ 10024b98     libucrt:lcidtoname_downlevel.obj
 0002:00004ba4       ??_C@_1O@MGJBOAMB@?$AAq?$AAu?$AAz?$AA?9?$AAP?$AAE@ 10024ba4     libucrt:lcidtoname_downlevel.obj
 0002:00004bb4       ??_C@_1M@GJINLBOK@?$AAa?$AAr?$AA?9?$AAL?$AAY@ 10024bb4     libucrt:lcidtoname_downlevel.obj
 0002:00004bc0       ??_C@_1M@GGMNHJNL@?$AAz?$AAh?$AA?9?$AAS?$AAG@ 10024bc0     libucrt:lcidtoname_downlevel.obj
 0002:00004bcc       ??_C@_1M@HOIKODND@?$AAd?$AAe?$AA?9?$AAL?$AAU@ 10024bcc     libucrt:lcidtoname_downlevel.obj
 0002:00004bd8       ??_C@_1M@DDOCCGFG@?$AAe?$AAn?$AA?9?$AAC?$AAA@ 10024bd8     libucrt:lcidtoname_downlevel.obj
 0002:00004be4       ??_C@_1M@BNOEMJLF@?$AAe?$AAs?$AA?9?$AAG?$AAT@ 10024be4     libucrt:lcidtoname_downlevel.obj
 0002:00004bf0       ??_C@_1M@EOGNKEK@?$AAf?$AAr?$AA?9?$AAC?$AAH@ 10024bf0     libucrt:lcidtoname_downlevel.obj
 0002:00004bfc       ??_C@_1M@FLIDJFHL@?$AAh?$AAr?$AA?9?$AAB?$AAA@ 10024bfc     libucrt:lcidtoname_downlevel.obj
 0002:00004c08       ??_C@_1O@FMCELNAJ@?$AAs?$AAm?$AAj?$AA?9?$AAN?$AAO@ 10024c08     libucrt:lcidtoname_downlevel.obj
 0002:00004c18       ??_C@_1M@JHGLJMGJ@?$AAa?$AAr?$AA?9?$AAD?$AAZ@ 10024c18     libucrt:lcidtoname_downlevel.obj
 0002:00004c24       ??_C@_1M@JKKFDCNP@?$AAz?$AAh?$AA?9?$AAM?$AAO@ 10024c24     libucrt:lcidtoname_downlevel.obj
 0002:00004c30       ??_C@_1M@GEEFALPE@?$AAd?$AAe?$AA?9?$AAL?$AAI@ 10024c30     libucrt:lcidtoname_downlevel.obj
 0002:00004c3c       ??_C@_1M@IGEOFBG@?$AAe?$AAn?$AA?9?$AAN?$AAZ@ 10024c3c     libucrt:lcidtoname_downlevel.obj
 0002:00004c48       ??_C@_1M@KDBONEHP@?$AAe?$AAs?$AA?9?$AAC?$AAR@ 10024c48     libucrt:lcidtoname_downlevel.obj
 0002:00004c54       ??_C@_1M@FHMDOHNN@?$AAf?$AAr?$AA?9?$AAL?$AAU@ 10024c54     libucrt:lcidtoname_downlevel.obj
 0002:00004c60       ??_C@_1BG@NFKKMAFG@?$AAb?$AAs?$AA?9?$AAB?$AAA?$AA?9?$AAL?$AAa?$AAt?$AAn@ 10024c60     libucrt:lcidtoname_downlevel.obj
 0002:00004c78       ??_C@_1O@IMNBEMCI@?$AAs?$AAm?$AAj?$AA?9?$AAS?$AAE@ 10024c78     libucrt:lcidtoname_downlevel.obj
 0002:00004c88       ??_C@_1M@DHHMBNDP@?$AAa?$AAr?$AA?9?$AAM?$AAA@ 10024c88     libucrt:lcidtoname_downlevel.obj
 0002:00004c94       ??_C@_1M@BNBLJCGH@?$AAe?$AAn?$AA?9?$AAI?$AAE@ 10024c94     libucrt:lcidtoname_downlevel.obj
 0002:00004ca0       ??_C@_1M@GEPAFMDL@?$AAe?$AAs?$AA?9?$AAP?$AAA@ 10024ca0     libucrt:lcidtoname_downlevel.obj
 0002:00004cac       ??_C@_1M@OJONDMDL@?$AAf?$AAr?$AA?9?$AAM?$AAC@ 10024cac     libucrt:lcidtoname_downlevel.obj
 0002:00004cb8       ??_C@_1BG@OBCNFJB@?$AAs?$AAr?$AA?9?$AAB?$AAA?$AA?9?$AAL?$AAa?$AAt?$AAn@ 10024cb8     libucrt:lcidtoname_downlevel.obj
 0002:00004cd0       ??_C@_1O@KEMEEGPO@?$AAs?$AAm?$AAa?$AA?9?$AAN?$AAO@ 10024cd0     libucrt:lcidtoname_downlevel.obj
 0002:00004ce0       ??_C@_1M@ELMGFODK@?$AAa?$AAr?$AA?9?$AAT?$AAN@ 10024ce0     libucrt:lcidtoname_downlevel.obj
 0002:00004cec       ??_C@_1M@BHDLHFAF@?$AAe?$AAn?$AA?9?$AAZ?$AAA@ 10024cec     libucrt:lcidtoname_downlevel.obj
 0002:00004cf8       ??_C@_1M@BMGIGLIF@?$AAe?$AAs?$AA?9?$AAD?$AAO@ 10024cf8     libucrt:lcidtoname_downlevel.obj
 0002:00004d04       ??_C@_1BG@CMBHIPBE@?$AAs?$AAr?$AA?9?$AAB?$AAA?$AA?9?$AAC?$AAy?$AAr?$AAl@ 10024d04     libucrt:lcidtoname_downlevel.obj
 0002:00004d1c       ??_C@_1O@HEDBLHNP@?$AAs?$AAm?$AAa?$AA?9?$AAS?$AAE@ 10024d1c     libucrt:lcidtoname_downlevel.obj
 0002:00004d2c       ??_C@_1M@DAGCADIM@?$AAa?$AAr?$AA?9?$AAO?$AAM@ 10024d2c     libucrt:lcidtoname_downlevel.obj
 0002:00004d38       ??_C@_1M@FODLMICG@?$AAe?$AAn?$AA?9?$AAJ?$AAM@ 10024d38     libucrt:lcidtoname_downlevel.obj
 0002:00004d44       ??_C@_1M@DNMLCIHB@?$AAe?$AAs?$AA?9?$AAV?$AAE@ 10024d44     libucrt:lcidtoname_downlevel.obj
 0002:00004d50       ??_C@_1O@EOKHMKJK@?$AAs?$AAm?$AAs?$AA?9?$AAF?$AAI@ 10024d50     libucrt:lcidtoname_downlevel.obj
 0002:00004d60       ??_C@_1M@CAFJMKOF@?$AAa?$AAr?$AA?9?$AAY?$AAE@ 10024d60     libucrt:lcidtoname_downlevel.obj
 0002:00004d6c       ??_C@_1M@CBFHIJLI@?$AAe?$AAn?$AA?9?$AAC?$AAB@ 10024d6c     libucrt:lcidtoname_downlevel.obj
 0002:00004d78       ??_C@_1M@BGNFLDN@?$AAe?$AAs?$AA?9?$AAC?$AAO@ 10024d78     libucrt:lcidtoname_downlevel.obj
 0002:00004d84       ??_C@_1O@JMPHMAMC@?$AAs?$AAm?$AAn?$AA?9?$AAF?$AAI@ 10024d84     libucrt:lcidtoname_downlevel.obj
 0002:00004d94       ??_C@_1M@JLANABKE@?$AAa?$AAr?$AA?9?$AAS?$AAY@ 10024d94     libucrt:lcidtoname_downlevel.obj
 0002:00004da0       ??_C@_1M@HPKGCFGN@?$AAe?$AAn?$AA?9?$AAB?$AAZ@ 10024da0     libucrt:lcidtoname_downlevel.obj
 0002:00004dac       ??_C@_1M@OLJCMLGM@?$AAe?$AAs?$AA?9?$AAP?$AAE@ 10024dac     libucrt:lcidtoname_downlevel.obj
 0002:00004db8       ??_C@_1M@MKKGFKLE@?$AAa?$AAr?$AA?9?$AAJ?$AAO@ 10024db8     libucrt:lcidtoname_downlevel.obj
 0002:00004dc4       ??_C@_1M@EKPGLDNI@?$AAe?$AAn?$AA?9?$AAT?$AAT@ 10024dc4     libucrt:lcidtoname_downlevel.obj
 0002:00004dd0       ??_C@_1M@OONGHFHE@?$AAe?$AAs?$AA?9?$AAA?$AAR@ 10024dd0     libucrt:lcidtoname_downlevel.obj
 0002:00004ddc       ??_C@_1M@OOJFGBHE@?$AAa?$AAr?$AA?9?$AAL?$AAB@ 10024ddc     libucrt:lcidtoname_downlevel.obj
 0002:00004de8       ??_C@_1M@GCEJHNEG@?$AAe?$AAn?$AA?9?$AAZ?$AAW@ 10024de8     libucrt:lcidtoname_downlevel.obj
 0002:00004df4       ??_C@_1M@JNOCAHJI@?$AAe?$AAs?$AA?9?$AAE?$AAC@ 10024df4     libucrt:lcidtoname_downlevel.obj
 0002:00004e00       ??_C@_1M@JEFHPGGB@?$AAa?$AAr?$AA?9?$AAK?$AAW@ 10024e00     libucrt:lcidtoname_downlevel.obj
 0002:00004e0c       ??_C@_1M@MLKIBJOJ@?$AAe?$AAn?$AA?9?$AAP?$AAH@ 10024e0c     libucrt:lcidtoname_downlevel.obj
 0002:00004e18       ??_C@_1M@BDNIPEND@?$AAe?$AAs?$AA?9?$AAC?$AAL@ 10024e18     libucrt:lcidtoname_downlevel.obj
 0002:00004e24       ??_C@_1M@MPNMEKBD@?$AAa?$AAr?$AA?9?$AAA?$AAE@ 10024e24     libucrt:lcidtoname_downlevel.obj
 0002:00004e30       ??_C@_1M@KBJALCPI@?$AAe?$AAs?$AA?9?$AAU?$AAY@ 10024e30     libucrt:lcidtoname_downlevel.obj
 0002:00004e3c       ??_C@_1M@LLCCOAGA@?$AAa?$AAr?$AA?9?$AAB?$AAH@ 10024e3c     libucrt:lcidtoname_downlevel.obj
 0002:00004e48       ??_C@_1M@PBFNCDEL@?$AAe?$AAs?$AA?9?$AAP?$AAY@ 10024e48     libucrt:lcidtoname_downlevel.obj
 0002:00004e54       ??_C@_1M@EDGINPNP@?$AAa?$AAr?$AA?9?$AAQ?$AAA@ 10024e54     libucrt:lcidtoname_downlevel.obj
 0002:00004e60       ??_C@_1M@MKDBIIJI@?$AAe?$AAs?$AA?9?$AAB?$AAO@ 10024e60     libucrt:lcidtoname_downlevel.obj
 0002:00004e6c       ??_C@_1M@CPKKEBLD@?$AAe?$AAs?$AA?9?$AAS?$AAV@ 10024e6c     libucrt:lcidtoname_downlevel.obj
 0002:00004e78       ??_C@_1M@NDBGMMJL@?$AAe?$AAs?$AA?9?$AAH?$AAN@ 10024e78     libucrt:lcidtoname_downlevel.obj
 0002:00004e84       ??_C@_1M@JIJIBHDP@?$AAe?$AAs?$AA?9?$AAN?$AAI@ 10024e84     libucrt:lcidtoname_downlevel.obj
 0002:00004e90       ??_C@_1M@CGFMKEEK@?$AAe?$AAs?$AA?9?$AAP?$AAR@ 10024e90     libucrt:lcidtoname_downlevel.obj
 0002:00004e9c       ??_C@_1O@ICJHKIIK@?$AAz?$AAh?$AA?9?$AAC?$AAH?$AAT@ 10024e9c     libucrt:lcidtoname_downlevel.obj
 0002:00004eac       ??_C@_15CLNEJCE@?$AAs?$AAr@ 10024eac     libucrt:lcidtoname_downlevel.obj
 0002:000055d8       ??_C@_1M@KAHEKEIG@?$AAa?$AAf?$AA?9?$AAz?$AAa@ 100255d8     libucrt:lcidtoname_downlevel.obj
 0002:000055e4       ??_C@_1M@GIECOABL@?$AAa?$AAr?$AA?9?$AAa?$AAe@ 100255e4     libucrt:lcidtoname_downlevel.obj
 0002:000055f0       ??_C@_1M@BMLMEKGI@?$AAa?$AAr?$AA?9?$AAb?$AAh@ 100255f0     libucrt:lcidtoname_downlevel.obj
 0002:000055fc       ??_C@_1M@DAPFDGGB@?$AAa?$AAr?$AA?9?$AAd?$AAz@ 100255fc     libucrt:lcidtoname_downlevel.obj
 0002:00005608       ??_C@_1M@FJNKGKIG@?$AAa?$AAr?$AA?9?$AAe?$AAg@ 10025608     libucrt:lcidtoname_downlevel.obj
 0002:00005614       ??_C@_1M@FLGKKCLO@?$AAa?$AAr?$AA?9?$AAi?$AAq@ 10025614     libucrt:lcidtoname_downlevel.obj
 0002:00005620       ??_C@_1M@GNDIPALM@?$AAa?$AAr?$AA?9?$AAj?$AAo@ 10025620     libucrt:lcidtoname_downlevel.obj
 0002:0000562c       ??_C@_1M@DDMJFMGJ@?$AAa?$AAr?$AA?9?$AAk?$AAw@ 1002562c     libucrt:lcidtoname_downlevel.obj
 0002:00005638       ??_C@_1M@EJALMLHM@?$AAa?$AAr?$AA?9?$AAl?$AAb@ 10025638     libucrt:lcidtoname_downlevel.obj
 0002:00005644       ??_C@_1M@MOBDBLOC@?$AAa?$AAr?$AA?9?$AAl?$AAy@ 10025644     libucrt:lcidtoname_downlevel.obj
 0002:00005650       ??_C@_1M@JAOCLHDH@?$AAa?$AAr?$AA?9?$AAm?$AAa@ 10025650     libucrt:lcidtoname_downlevel.obj
 0002:0000565c       ??_C@_1M@JHPMKJIE@?$AAa?$AAr?$AA?9?$AAo?$AAm@ 1002565c     libucrt:lcidtoname_downlevel.obj
 0002:00005668       ??_C@_1M@OEPGHFNH@?$AAa?$AAr?$AA?9?$AAq?$AAa@ 10025668     libucrt:lcidtoname_downlevel.obj
 0002:00005674       ??_C@_1M@KJDONENM@?$AAa?$AAr?$AA?9?$AAs?$AAa@ 10025674     libucrt:lcidtoname_downlevel.obj
 0002:00005680       ??_C@_1M@DMJDKLKM@?$AAa?$AAr?$AA?9?$AAs?$AAy@ 10025680     libucrt:lcidtoname_downlevel.obj
 0002:0000568c       ??_C@_1M@OMFIPEDC@?$AAa?$AAr?$AA?9?$AAt?$AAn@ 1002568c     libucrt:lcidtoname_downlevel.obj
 0002:00005698       ??_C@_1M@IHMHGAON@?$AAa?$AAr?$AA?9?$AAy?$AAe@ 10025698     libucrt:lcidtoname_downlevel.obj
 0002:000056a4       ??_C@_1BG@KDCPGJGB@?$AAa?$AAz?$AA?9?$AAa?$AAz?$AA?9?$AAc?$AAy?$AAr?$AAl@ 100256a4     libucrt:lcidtoname_downlevel.obj
 0002:000056bc       ??_C@_1BG@IBCKDDOE@?$AAa?$AAz?$AA?9?$AAa?$AAz?$AA?9?$AAl?$AAa?$AAt?$AAn@ 100256bc     libucrt:lcidtoname_downlevel.obj
 0002:000056d4       ??_C@_1M@EGPFDCPD@?$AAb?$AAe?$AA?9?$AAb?$AAy@ 100256d4     libucrt:lcidtoname_downlevel.obj
 0002:000056e0       ??_C@_1M@PCMGMCGC@?$AAb?$AAg?$AA?9?$AAb?$AAg@ 100256e0     libucrt:lcidtoname_downlevel.obj
 0002:000056ec       ??_C@_1M@BJBMFGOB@?$AAb?$AAn?$AA?9?$AAi?$AAn@ 100256ec     libucrt:lcidtoname_downlevel.obj
 0002:000056f8       ??_C@_1BG@EAKMMACD@?$AAb?$AAs?$AA?9?$AAb?$AAa?$AA?9?$AAl?$AAa?$AAt?$AAn@ 100256f8     libucrt:lcidtoname_downlevel.obj
 0002:00005710       ??_C@_1M@KGADAODK@?$AAc?$AAa?$AA?9?$AAe?$AAs@ 10025710     libucrt:lcidtoname_downlevel.obj
 0002:0000571c       ??_C@_1M@COAJPDHI@?$AAc?$AAs?$AA?9?$AAc?$AAz@ 1002571c     libucrt:lcidtoname_downlevel.obj
 0002:00005728       ??_C@_1M@DHBHFONH@?$AAc?$AAy?$AA?9?$AAg?$AAb@ 10025728     libucrt:lcidtoname_downlevel.obj
 0002:00005734       ??_C@_1M@IMGKELGA@?$AAd?$AAa?$AA?9?$AAd?$AAk@ 10025734     libucrt:lcidtoname_downlevel.obj
 0002:00005740       ??_C@_1M@NNDGDNGA@?$AAd?$AAe?$AA?9?$AAa?$AAt@ 10025740     libucrt:lcidtoname_downlevel.obj
 0002:0000574c       ??_C@_1M@IKDBHEEM@?$AAd?$AAe?$AA?9?$AAc?$AAh@ 1002574c     libucrt:lcidtoname_downlevel.obj
 0002:00005758       ??_C@_1M@GFFOJMCJ@?$AAd?$AAe?$AA?9?$AAd?$AAe@ 10025758     libucrt:lcidtoname_downlevel.obj
 0002:00005764       ??_C@_1M@MDNLKBPM@?$AAd?$AAe?$AA?9?$AAl?$AAi@ 10025764     libucrt:lcidtoname_downlevel.obj
 0002:00005770       ??_C@_1M@NJBEEJNL@?$AAd?$AAe?$AA?9?$AAl?$AAu@ 10025770     libucrt:lcidtoname_downlevel.obj
 0002:0000577c       ??_C@_1O@GNNELBAP@?$AAd?$AAi?$AAv?$AA?9?$AAm?$AAv@ 1002577c     libucrt:lcidtoname_downlevel.obj
 0002:0000578c       ??_C@_1M@EJLEOGAE@?$AAe?$AAl?$AA?9?$AAg?$AAr@ 1002578c     libucrt:lcidtoname_downlevel.obj
 0002:00005798       ??_C@_1M@GMPONJN@?$AAe?$AAn?$AA?9?$AAa?$AAu@ 10025798     libucrt:lcidtoname_downlevel.obj
 0002:000057a4       ??_C@_1M@NIDIIPGF@?$AAe?$AAn?$AA?9?$AAb?$AAz@ 100257a4     libucrt:lcidtoname_downlevel.obj
 0002:000057b0       ??_C@_1M@JEHMIMFO@?$AAe?$AAn?$AA?9?$AAc?$AAa@ 100257b0     libucrt:lcidtoname_downlevel.obj
 0002:000057bc       ??_C@_1M@IGMJCDLA@?$AAe?$AAn?$AA?9?$AAc?$AAb@ 100257bc     libucrt:lcidtoname_downlevel.obj
 0002:000057c8       ??_C@_1M@BNFIGBKG@?$AAe?$AAn?$AA?9?$AAg?$AAb@ 100257c8     libucrt:lcidtoname_downlevel.obj
 0002:000057d4       ??_C@_1M@LKIFDIGP@?$AAe?$AAn?$AA?9?$AAi?$AAe@ 100257d4     libucrt:lcidtoname_downlevel.obj
 0002:000057e0       ??_C@_1M@PJKFGCCO@?$AAe?$AAn?$AA?9?$AAj?$AAm@ 100257e0     libucrt:lcidtoname_downlevel.obj
 0002:000057ec       ??_C@_1M@KPPKEPBO@?$AAe?$AAn?$AA?9?$AAn?$AAz@ 100257ec     libucrt:lcidtoname_downlevel.obj
 0002:000057f8       ??_C@_1M@GMDGLDOB@?$AAe?$AAn?$AA?9?$AAp?$AAh@ 100257f8     libucrt:lcidtoname_downlevel.obj
 0002:00005804       ??_C@_1M@ONGIBJNA@?$AAe?$AAn?$AA?9?$AAt?$AAt@ 10025804     libucrt:lcidtoname_downlevel.obj
 0002:00005810       ??_C@_1M@LLODPCMM@?$AAe?$AAn?$AA?9?$AAu?$AAs@ 10025810     libucrt:lcidtoname_downlevel.obj
 0002:0000581c       ??_C@_1M@LAKFNPAN@?$AAe?$AAn?$AA?9?$AAz?$AAa@ 1002581c     libucrt:lcidtoname_downlevel.obj
 0002:00005828       ??_C@_1M@MFNHNHEO@?$AAe?$AAn?$AA?9?$AAz?$AAw@ 10025828     libucrt:lcidtoname_downlevel.obj
 0002:00005834       ??_C@_1M@EJEINPHM@?$AAe?$AAs?$AA?9?$AAa?$AAr@ 10025834     libucrt:lcidtoname_downlevel.obj
 0002:00005840       ??_C@_1M@GNKPCCJA@?$AAe?$AAs?$AA?9?$AAb?$AAo@ 10025840     libucrt:lcidtoname_downlevel.obj
 0002:0000584c       ??_C@_1M@LEEGFONL@?$AAe?$AAs?$AA?9?$AAc?$AAl@ 1002584c     libucrt:lcidtoname_downlevel.obj
 0002:00005858       ??_C@_1M@KGPDPBDF@?$AAe?$AAs?$AA?9?$AAc?$AAo@ 10025858     libucrt:lcidtoname_downlevel.obj
 0002:00005864       ??_C@_1M@EIAHOHH@?$AAe?$AAs?$AA?9?$AAc?$AAr@ 10025864     libucrt:lcidtoname_downlevel.obj
 0002:00005870       ??_C@_1M@LLPGMBIN@?$AAe?$AAs?$AA?9?$AAd?$AAo@ 10025870     libucrt:lcidtoname_downlevel.obj
 0002:0000587c       ??_C@_1M@DKHMKNJA@?$AAe?$AAs?$AA?9?$AAe?$AAc@ 1002587c     libucrt:lcidtoname_downlevel.obj
 0002:00005888       ??_C@_1M@GKGFPKAP@?$AAe?$AAs?$AA?9?$AAe?$AAs@ 10025888     libucrt:lcidtoname_downlevel.obj
 0002:00005894       ??_C@_1M@LKHKGDLN@?$AAe?$AAs?$AA?9?$AAg?$AAt@ 10025894     libucrt:lcidtoname_downlevel.obj
 0002:000058a0       ??_C@_1M@HEIIGGJD@?$AAe?$AAs?$AA?9?$AAh?$AAn@ 100258a0     libucrt:lcidtoname_downlevel.obj
 0002:000058ac       ??_C@_1M@FBDHPPGD@?$AAe?$AAs?$AA?9?$AAm?$AAx@ 100258ac     libucrt:lcidtoname_downlevel.obj
 0002:000058b8       ??_C@_1M@DPAGLNDH@?$AAe?$AAs?$AA?9?$AAn?$AAi@ 100258b8     libucrt:lcidtoname_downlevel.obj
 0002:000058c4       ??_C@_1M@MDGOPGDD@?$AAe?$AAs?$AA?9?$AAp?$AAa@ 100258c4     libucrt:lcidtoname_downlevel.obj
 0002:000058d0       ??_C@_1M@EMAMGBGE@?$AAe?$AAs?$AA?9?$AAp?$AAe@ 100258d0     libucrt:lcidtoname_downlevel.obj
 0002:000058dc       ??_C@_1M@IBMCAOEC@?$AAe?$AAs?$AA?9?$AAp?$AAr@ 100258dc     libucrt:lcidtoname_downlevel.obj
 0002:000058e8       ??_C@_1M@FGMDIJED@?$AAe?$AAs?$AA?9?$AAp?$AAy@ 100258e8     libucrt:lcidtoname_downlevel.obj
 0002:000058f4       ??_C@_1M@IIDEOLLL@?$AAe?$AAs?$AA?9?$AAs?$AAv@ 100258f4     libucrt:lcidtoname_downlevel.obj
 0002:00005900       ??_C@_1M@GAOBIPA@?$AAe?$AAs?$AA?9?$AAu?$AAy@ 10025900     libucrt:lcidtoname_downlevel.obj
 0002:0000590c       ??_C@_1M@JKFFICHJ@?$AAe?$AAs?$AA?9?$AAv?$AAe@ 1002590c     libucrt:lcidtoname_downlevel.obj
 0002:00005918       ??_C@_1M@PNMLOJDF@?$AAe?$AAt?$AA?9?$AAe?$AAe@ 10025918     libucrt:lcidtoname_downlevel.obj
 0002:00005924       ??_C@_1M@GHHLIKEI@?$AAe?$AAu?$AA?9?$AAe?$AAs@ 10025924     libucrt:lcidtoname_downlevel.obj
 0002:00005930       ??_C@_1M@PBNONODE@?$AAf?$AAa?$AA?9?$AAi?$AAr@ 10025930     libucrt:lcidtoname_downlevel.obj
 0002:0000593c       ??_C@_1M@JEEHPMIL@?$AAf?$AAi?$AA?9?$AAf?$AAi@ 1002593c     libucrt:lcidtoname_downlevel.obj
 0002:00005948       ??_C@_1M@LMDCNDBA@?$AAf?$AAo?$AA?9?$AAf?$AAo@ 10025948     libucrt:lcidtoname_downlevel.obj
 0002:00005954       ??_C@_1M@JKEOHLDK@?$AAf?$AAr?$AA?9?$AAb?$AAe@ 10025954     libucrt:lcidtoname_downlevel.obj
 0002:00005960       ??_C@_1M@NOHADPMI@?$AAf?$AAr?$AA?9?$AAc?$AAa@ 10025960     libucrt:lcidtoname_downlevel.obj
 0002:0000596c       ??_C@_1M@KDHIHAEC@?$AAf?$AAr?$AA?9?$AAc?$AAh@ 1002596c     libucrt:lcidtoname_downlevel.obj
 0002:00005978       ??_C@_1M@MMBBFGAK@?$AAf?$AAr?$AA?9?$AAf?$AAr@ 10025978     libucrt:lcidtoname_downlevel.obj
 0002:00005984       ??_C@_1M@PAFNENNF@?$AAf?$AAr?$AA?9?$AAl?$AAu@ 10025984     libucrt:lcidtoname_downlevel.obj
 0002:00005990       ??_C@_1M@EOHDJGDD@?$AAf?$AAr?$AA?9?$AAm?$AAc@ 10025990     libucrt:lcidtoname_downlevel.obj
 0002:0000599c       ??_C@_1M@FAPLLOPF@?$AAg?$AAl?$AA?9?$AAe?$AAs@ 1002599c     libucrt:lcidtoname_downlevel.obj
 0002:000059a8       ??_C@_1M@FOPBFLOO@?$AAg?$AAu?$AA?9?$AAi?$AAn@ 100259a8     libucrt:lcidtoname_downlevel.obj
 0002:000059b4       ??_C@_1M@KBMCINPM@?$AAh?$AAe?$AA?9?$AAi?$AAl@ 100259b4     libucrt:lcidtoname_downlevel.obj
 0002:000059c0       ??_C@_1M@BBPHKFPJ@?$AAh?$AAi?$AA?9?$AAi?$AAn@ 100259c0     libucrt:lcidtoname_downlevel.obj
 0002:000059cc       ??_C@_1M@PMBNDPHD@?$AAh?$AAr?$AA?9?$AAb?$AAa@ 100259cc     libucrt:lcidtoname_downlevel.obj
 0002:000059d8       ??_C@_1M@BPCKOEGE@?$AAh?$AAr?$AA?9?$AAh?$AAr@ 100259d8     libucrt:lcidtoname_downlevel.obj
 0002:000059e4       ??_C@_1M@GACBMHKE@?$AAh?$AAu?$AA?9?$AAh?$AAu@ 100259e4     libucrt:lcidtoname_downlevel.obj
 0002:000059f0       ??_C@_1M@MILPAJJC@?$AAh?$AAy?$AA?9?$AAa?$AAm@ 100259f0     libucrt:lcidtoname_downlevel.obj
 0002:000059fc       ??_C@_1M@BABBICEC@?$AAi?$AAd?$AA?9?$AAi?$AAd@ 100259fc     libucrt:lcidtoname_downlevel.obj
 0002:00005a08       ??_C@_1M@BIKNHHPF@?$AAi?$AAs?$AA?9?$AAi?$AAs@ 10025a08     libucrt:lcidtoname_downlevel.obj
 0002:00005a14       ??_C@_1M@NMPCJPHE@?$AAi?$AAt?$AA?9?$AAc?$AAh@ 10025a14     libucrt:lcidtoname_downlevel.obj
 0002:00005a20       ??_C@_1M@GHKGFEDF@?$AAi?$AAt?$AA?9?$AAi?$AAt@ 10025a20     libucrt:lcidtoname_downlevel.obj
 0002:00005a2c       ??_C@_1M@NIEJCJJA@?$AAj?$AAa?$AA?9?$AAj?$AAp@ 10025a2c     libucrt:lcidtoname_downlevel.obj
 0002:00005a38       ??_C@_1M@JILFNBIM@?$AAk?$AAa?$AA?9?$AAg?$AAe@ 10025a38     libucrt:lcidtoname_downlevel.obj
 0002:00005a44       ??_C@_1M@PACPMGPH@?$AAk?$AAk?$AA?9?$AAk?$AAz@ 10025a44     libucrt:lcidtoname_downlevel.obj
 0002:00005a50       ??_C@_1M@IELFGMHA@?$AAk?$AAn?$AA?9?$AAi?$AAn@ 10025a50     libucrt:lcidtoname_downlevel.obj
 0002:00005a5c       ??_C@_1O@IBBJHCH@?$AAk?$AAo?$AAk?$AA?9?$AAi?$AAn@ 10025a5c     libucrt:lcidtoname_downlevel.obj
 0002:00005a6c       ??_C@_1M@DMHAEOGC@?$AAk?$AAo?$AA?9?$AAk?$AAr@ 10025a6c     libucrt:lcidtoname_downlevel.obj
 0002:00005a78       ??_C@_1M@HBAHBIGA@?$AAk?$AAy?$AA?9?$AAk?$AAg@ 10025a78     libucrt:lcidtoname_downlevel.obj
 0002:00005a84       ??_C@_1M@KPMILCJG@?$AAl?$AAt?$AA?9?$AAl?$AAt@ 10025a84     libucrt:lcidtoname_downlevel.obj
 0002:00005a90       ??_C@_1M@BDEKKCA@?$AAl?$AAv?$AA?9?$AAl?$AAv@ 10025a90     libucrt:lcidtoname_downlevel.obj
 0002:00005a9c       ??_C@_1M@ELCKCCJJ@?$AAm?$AAi?$AA?9?$AAn?$AAz@ 10025a9c     libucrt:lcidtoname_downlevel.obj
 0002:00005aa8       ??_C@_1M@CBOOLAPA@?$AAm?$AAk?$AA?9?$AAm?$AAk@ 10025aa8     libucrt:lcidtoname_downlevel.obj
 0002:00005ab4       ??_C@_1M@GPHNBJKN@?$AAm?$AAl?$AA?9?$AAi?$AAn@ 10025ab4     libucrt:lcidtoname_downlevel.obj
 0002:00005ac0       ??_C@_1M@PABJILIG@?$AAm?$AAn?$AA?9?$AAm?$AAn@ 10025ac0     libucrt:lcidtoname_downlevel.obj
 0002:00005acc       ??_C@_1M@FGBKKIPG@?$AAm?$AAr?$AA?9?$AAi?$AAn@ 10025acc     libucrt:lcidtoname_downlevel.obj
 0002:00005ad8       ??_C@_1M@NDBPDDAL@?$AAm?$AAs?$AA?9?$AAb?$AAn@ 10025ad8     libucrt:lcidtoname_downlevel.obj
 0002:00005ae4       ??_C@_1M@OPIHOOPI@?$AAm?$AAs?$AA?9?$AAm?$AAy@ 10025ae4     libucrt:lcidtoname_downlevel.obj
 0002:00005af0       ??_C@_1M@PPDBCNFM@?$AAm?$AAt?$AA?9?$AAm?$AAt@ 10025af0     libucrt:lcidtoname_downlevel.obj
 0002:00005afc       ??_C@_1M@KDJDKMDD@?$AAn?$AAb?$AA?9?$AAn?$AAo@ 10025afc     libucrt:lcidtoname_downlevel.obj
 0002:00005b08       ??_C@_1M@KFCFLMJP@?$AAn?$AAl?$AA?9?$AAb?$AAe@ 10025b08     libucrt:lcidtoname_downlevel.obj
 0002:00005b14       ??_C@_1M@KPOPDDGO@?$AAn?$AAl?$AA?9?$AAn?$AAl@ 10025b14     libucrt:lcidtoname_downlevel.obj
 0002:00005b20       ??_C@_1M@LJKPEMLN@?$AAn?$AAn?$AA?9?$AAn?$AAo@ 10025b20     libucrt:lcidtoname_downlevel.obj
 0002:00005b2c       ??_C@_1M@BDGHHBFL@?$AAn?$AAs?$AA?9?$AAz?$AAa@ 10025b2c     libucrt:lcidtoname_downlevel.obj
 0002:00005b38       ??_C@_1M@IDEHOAP@?$AAp?$AAa?$AA?9?$AAi?$AAn@ 10025b38     libucrt:lcidtoname_downlevel.obj
 0002:00005b44       ??_C@_1M@HDBKGOGH@?$AAp?$AAl?$AA?9?$AAp?$AAl@ 10025b44     libucrt:lcidtoname_downlevel.obj
 0002:00005b50       ??_C@_1M@LJLLCMEH@?$AAp?$AAt?$AA?9?$AAb?$AAr@ 10025b50     libucrt:lcidtoname_downlevel.obj
 0002:00005b5c       ??_C@_1M@NCMONAAL@?$AAp?$AAt?$AA?9?$AAp?$AAt@ 10025b5c     libucrt:lcidtoname_downlevel.obj
 0002:00005b68       ??_C@_1O@EAKMAJDN@?$AAq?$AAu?$AAz?$AA?9?$AAb?$AAo@ 10025b68     libucrt:lcidtoname_downlevel.obj
 0002:00005b78       ??_C@_1O@BHHPIGDN@?$AAq?$AAu?$AAz?$AA?9?$AAe?$AAc@ 10025b78     libucrt:lcidtoname_downlevel.obj
 0002:00005b88       ??_C@_1O@GBAPEKMJ@?$AAq?$AAu?$AAz?$AA?9?$AAp?$AAe@ 10025b88     libucrt:lcidtoname_downlevel.obj
 0002:00005b98       ??_C@_1M@CLGLEFBO@?$AAr?$AAo?$AA?9?$AAr?$AAo@ 10025b98     libucrt:lcidtoname_downlevel.obj
 0002:00005ba4       ??_C@_1M@CEEDODME@?$AAr?$AAu?$AA?9?$AAr?$AAu@ 10025ba4     libucrt:lcidtoname_downlevel.obj
 0002:00005bb0       ??_C@_1M@HPKKKMPP@?$AAs?$AAa?$AA?9?$AAi?$AAn@ 10025bb0     libucrt:lcidtoname_downlevel.obj
 0002:00005bbc       ??_C@_1M@BKMAIGOJ@?$AAs?$AAe?$AA?9?$AAf?$AAi@ 10025bbc     libucrt:lcidtoname_downlevel.obj
 0002:00005bc8       ??_C@_1M@NDPIFLFI@?$AAs?$AAe?$AA?9?$AAn?$AAo@ 10025bc8     libucrt:lcidtoname_downlevel.obj
 0002:00005bd4       ??_C@_1M@DANKKHJ@?$AAs?$AAe?$AA?9?$AAs?$AAe@ 10025bd4     libucrt:lcidtoname_downlevel.obj
 0002:00005be0       ??_C@_1M@PNBLONPJ@?$AAs?$AAk?$AA?9?$AAs?$AAk@ 10025be0     libucrt:lcidtoname_downlevel.obj
 0002:00005bec       ??_C@_1M@LFMODOAL@?$AAs?$AAl?$AA?9?$AAs?$AAi@ 10025bec     libucrt:lcidtoname_downlevel.obj
 0002:00005bf8       ??_C@_1O@DFKOMPG@?$AAs?$AAm?$AAa?$AA?9?$AAn?$AAo@ 10025bf8     libucrt:lcidtoname_downlevel.obj
 0002:00005c08       ??_C@_1O@NDKPBNNH@?$AAs?$AAm?$AAa?$AA?9?$AAs?$AAe@ 10025c08     libucrt:lcidtoname_downlevel.obj
 0002:00005c18       ??_C@_1O@PLLKBHAB@?$AAs?$AAm?$AAj?$AA?9?$AAn?$AAo@ 10025c18     libucrt:lcidtoname_downlevel.obj
 0002:00005c28       ??_C@_1O@CLEPOGCA@?$AAs?$AAm?$AAj?$AA?9?$AAs?$AAe@ 10025c28     libucrt:lcidtoname_downlevel.obj
 0002:00005c38       ??_C@_1O@DLGJGKMK@?$AAs?$AAm?$AAn?$AA?9?$AAf?$AAi@ 10025c38     libucrt:lcidtoname_downlevel.obj
 0002:00005c48       ??_C@_1O@OJDJGAJC@?$AAs?$AAm?$AAs?$AA?9?$AAf?$AAi@ 10025c48     libucrt:lcidtoname_downlevel.obj
 0002:00005c58       ??_C@_1M@BOFOGHPB@?$AAs?$AAq?$AA?9?$AAa?$AAl@ 10025c58     libucrt:lcidtoname_downlevel.obj
 0002:00005c64       ??_C@_1BG@LJBBIPGB@?$AAs?$AAr?$AA?9?$AAb?$AAa?$AA?9?$AAc?$AAy?$AAr?$AAl@ 10025c64     libucrt:lcidtoname_downlevel.obj
 0002:00005c7c       ??_C@_1BG@JLBENFOE@?$AAs?$AAr?$AA?9?$AAb?$AAa?$AA?9?$AAl?$AAa?$AAt?$AAn@ 10025c7c     libucrt:lcidtoname_downlevel.obj
 0002:00005c94       ??_C@_1BG@KODPNHE@?$AAs?$AAr?$AA?9?$AAs?$AAp?$AA?9?$AAc?$AAy?$AAr?$AAl@ 10025c94     libucrt:lcidtoname_downlevel.obj
 0002:00005cac       ??_C@_1BG@CIOGKHPB@?$AAs?$AAr?$AA?9?$AAs?$AAp?$AA?9?$AAl?$AAa?$AAt?$AAn@ 10025cac     libucrt:lcidtoname_downlevel.obj
 0002:00005cc4       ??_C@_1M@NGFJLMAC@?$AAs?$AAv?$AA?9?$AAf?$AAi@ 10025cc4     libucrt:lcidtoname_downlevel.obj
 0002:00005cd0       ??_C@_1M@MPJEJAJC@?$AAs?$AAv?$AA?9?$AAs?$AAe@ 10025cd0     libucrt:lcidtoname_downlevel.obj
 0002:00005cdc       ??_C@_1M@MPNDHLFK@?$AAs?$AAw?$AA?9?$AAk?$AAe@ 10025cdc     libucrt:lcidtoname_downlevel.obj
 0002:00005ce8       ??_C@_1O@KOHBJJI@?$AAs?$AAy?$AAr?$AA?9?$AAs?$AAy@ 10025ce8     libucrt:lcidtoname_downlevel.obj
 0002:00005cf8       ??_C@_1M@LDCEFHA@?$AAt?$AAa?$AA?9?$AAi?$AAn@ 10025cf8     libucrt:lcidtoname_downlevel.obj
 0002:00005d04       ??_C@_1M@CNJOFAK@?$AAt?$AAe?$AA?9?$AAi?$AAn@ 10025d04     libucrt:lcidtoname_downlevel.obj
 0002:00005d10       ??_C@_1M@GNAECACD@?$AAt?$AAh?$AA?9?$AAt?$AAh@ 10025d10     libucrt:lcidtoname_downlevel.obj
 0002:00005d1c       ??_C@_1M@CHBIHOJO@?$AAt?$AAn?$AA?9?$AAz?$AAa@ 10025d1c     libucrt:lcidtoname_downlevel.obj
 0002:00005d28       ??_C@_1M@GCCMIGPJ@?$AAt?$AAr?$AA?9?$AAt?$AAr@ 10025d28     libucrt:lcidtoname_downlevel.obj
 0002:00005d34       ??_C@_1M@CELMCNBK@?$AAt?$AAt?$AA?9?$AAr?$AAu@ 10025d34     libucrt:lcidtoname_downlevel.obj
 0002:00005d40       ??_C@_1M@KLMCELGA@?$AAu?$AAk?$AA?9?$AAu?$AAa@ 10025d40     libucrt:lcidtoname_downlevel.obj
 0002:00005d4c       ??_C@_1M@EPAJJAJF@?$AAu?$AAr?$AA?9?$AAp?$AAk@ 10025d4c     libucrt:lcidtoname_downlevel.obj
 0002:00005d58       ??_C@_1BG@GEGPMCDJ@?$AAu?$AAz?$AA?9?$AAu?$AAz?$AA?9?$AAc?$AAy?$AAr?$AAl@ 10025d58     libucrt:lcidtoname_downlevel.obj
 0002:00005d70       ??_C@_1BG@EGGKJILM@?$AAu?$AAz?$AA?9?$AAu?$AAz?$AA?9?$AAl?$AAa?$AAt?$AAn@ 10025d70     libucrt:lcidtoname_downlevel.obj
 0002:00005d88       ??_C@_1M@GFOCLFF@?$AAv?$AAi?$AA?9?$AAv?$AAn@ 10025d88     libucrt:lcidtoname_downlevel.obj
 0002:00005d94       ??_C@_1M@CPAMEDFI@?$AAx?$AAh?$AA?9?$AAz?$AAa@ 10025d94     libucrt:lcidtoname_downlevel.obj
 0002:00005da0       ??_C@_1O@EBKIFIGN@?$AAz?$AAh?$AA?9?$AAc?$AAh?$AAs@ 10025da0     libucrt:lcidtoname_downlevel.obj
 0002:00005db0       ??_C@_1O@NMHPGANE@?$AAz?$AAh?$AA?9?$AAc?$AAh?$AAt@ 10025db0     libucrt:lcidtoname_downlevel.obj
 0002:00005dc0       ??_C@_1M@LPINJOMC@?$AAz?$AAh?$AA?9?$AAc?$AAn@ 10025dc0     libucrt:lcidtoname_downlevel.obj
 0002:00005dcc       ??_C@_1M@OCJEJODD@?$AAz?$AAh?$AA?9?$AAh?$AAk@ 10025dcc     libucrt:lcidtoname_downlevel.obj
 0002:00005dd8       ??_C@_1M@DNDLJINH@?$AAz?$AAh?$AA?9?$AAm?$AAo@ 10025dd8     libucrt:lcidtoname_downlevel.obj
 0002:00005de4       ??_C@_1M@MBFDNDND@?$AAz?$AAh?$AA?9?$AAs?$AAg@ 10025de4     libucrt:lcidtoname_downlevel.obj
 0002:00005df0       ??_C@_1M@IMEPLEPE@?$AAz?$AAh?$AA?9?$AAt?$AAw@ 10025df0     libucrt:lcidtoname_downlevel.obj
 0002:00005dfc       ??_C@_1M@BBGHNHJP@?$AAz?$AAu?$AA?9?$AAz?$AAa@ 10025dfc     libucrt:lcidtoname_downlevel.obj
 0002:00005e08       ?large_power_data@?1??multiply_by_power_of_ten@__crt_strtox@@YA_NAAUbig_integer@2@I@Z@4QBIB 10025e08     libucrt:cfout.obj
 0002:00006710       ?large_power_indices@?1??multiply_by_power_of_ten@__crt_strtox@@YA_NAAUbig_integer@2@I@Z@4QBUunpack_index@?1??12@YA_N0I@Z@B 10026710     libucrt:cfout.obj
 0002:000067a8       ?small_powers_of_ten@?1??multiply_by_power_of_ten@__crt_strtox@@YA_NAAUbig_integer@2@I@Z@4QBIB 100267a8     libucrt:cfout.obj
 0002:000067cc       ??_C@_01GBGANLPD@0@        100267cc     libucrt:cfout.obj
 0002:000067d0       ??_C@_05DNEBIAHO@1?$CDINF@ 100267d0     libucrt:cfout.obj
 0002:000067d8       ??_C@_06IMKFLFPG@1?$CDQNAN@ 100267d8     libucrt:cfout.obj
 0002:000067e0       ??_C@_06PGGFOGJG@1?$CDSNAN@ 100267e0     libucrt:cfout.obj
 0002:000067e8       ??_C@_05PHHOCPM@1?$CDIND@  100267e8     libucrt:cfout.obj
 0002:00006950       __infinity                 10026950     libucrt:87tran.obj
 0002:0000695a       __minfinity                1002695a     libucrt:87tran.obj
 0002:00006964       __logemax                  10026964     libucrt:87tran.obj
 0002:0000698a       __OP_EXPjmptab             1002698a     libucrt:87tran.obj
 0002:000069b0       __indefinite               100269b0     libucrt:87disp.obj
 0002:000069ba       __piby2                    100269ba     libucrt:87disp.obj
 0002:000069c4       __piby4                    100269c4     libucrt:87disp.obj
 0002:000069f8       __DEFAULT_CW_in_mem        100269f8     libucrt:common.obj
 0002:000069fa       __pi_by_2_to_61            100269fa     libucrt:common.obj
 0002:00006a34       ??_C@_03MGHMBJCF@log@      10026a34     libucrt:libm_error.obj
 0002:00006a38       ??_C@_05HGHHAHAP@log10@    10026a38     libucrt:libm_error.obj
 0002:00006a40       ??_C@_03KHJOGHMM@exp@      10026a40     libucrt:libm_error.obj
 0002:00006a44       ??_C@_03JGHBODFD@pow@      10026a44     libucrt:libm_error.obj
 0002:00006a48       ??_C@_04FIHNOPOL@asin@     10026a48     libucrt:libm_error.obj
 0002:00006a50       ??_C@_04PDIFKINK@acos@     10026a50     libucrt:libm_error.obj
 0002:00006a58       ??_C@_04EIAKFFMI@sqrt@     10026a58     libucrt:libm_error.obj
 0002:00006a60       __real@3ff0000000000000    10026a60     libucrt:libm_error.obj
 0002:00006a68       ??_C@_1BA@BALFACEM@?$AAC?$AAO?$AAN?$AAO?$AAU?$AAT?$AA$@ 10026a68     libucrt:initcon.obj
 0002:00006a90       ___acrt_log10_table_t      10026a90     libucrt:log10_tables.obj
 0002:00006ea0       ___acrt_log10_table_cb     10026ea0     libucrt:log10_tables.obj
 0002:000072b0       __real@3fe0000000000000    100272b0     libucrt:powhlp.obj
 0002:000073a0       ??_C@_04COOMCNPB@sinh@     100273a0     libucrt:fpexcept.obj
 0002:000073a8       ??_C@_04HPJJNFIM@cosh@     100273a8     libucrt:fpexcept.obj
 0002:000073b0       ??_C@_04FJHINJAO@tanh@     100273b0     libucrt:fpexcept.obj
 0002:000073b8       ??_C@_04MLLJIGOK@atan@     100273b8     libucrt:fpexcept.obj
 0002:000073c0       ??_C@_05KNGEOGJB@atan2@    100273c0     libucrt:fpexcept.obj
 0002:000073c8       ??_C@_03BLEJJJBH@sin@      100273c8     libucrt:fpexcept.obj
 0002:000073cc       ??_C@_03LALBNOCG@cos@      100273cc     libucrt:fpexcept.obj
 0002:000073d0       ??_C@_03IIINPABG@tan@      100273d0     libucrt:fpexcept.obj
 0002:000073d4       ??_C@_04GFPJNGEK@ceil@     100273d4     libucrt:fpexcept.obj
 0002:000073dc       ??_C@_05PBJFFIGL@floor@    100273dc     libucrt:fpexcept.obj
 0002:000073e4       ??_C@_04ODHECPBC@fabs@     100273e4     libucrt:fpexcept.obj
 0002:000073ec       ??_C@_04EHEDPDJG@modf@     100273ec     libucrt:fpexcept.obj
 0002:000073f4       ??_C@_05CEJMAHNP@ldexp@    100273f4     libucrt:fpexcept.obj
 0002:000073fc       ??_C@_05KBKMEMPO@_cabs@    100273fc     libucrt:fpexcept.obj
 0002:00007404       ??_C@_06MEIMCGCF@_hypot@   10027404     libucrt:fpexcept.obj
 0002:0000740c       ??_C@_04KEPJIHGP@fmod@     1002740c     libucrt:fpexcept.obj
 0002:00007414       ??_C@_05GKKHEGJL@frexp@    10027414     libucrt:fpexcept.obj
 0002:0000741c       ??_C@_03MJLDFKDL@_y0@      1002741c     libucrt:fpexcept.obj
 0002:00007420       ??_C@_03NAKIGLHK@_y1@      10027420     libucrt:fpexcept.obj
 0002:00007424       ??_C@_03ONILCKOB@_yn@      10027424     libucrt:fpexcept.obj
 0002:00007428       ??_C@_05JGDBENOH@_logb@    10027428     libucrt:fpexcept.obj
 0002:00007430       ??_C@_0L@KDOEJCKC@_nextafter@ 10027430     libucrt:fpexcept.obj
 0002:00007440       __d_inf                    10027440     libucrt:util.obj
 0002:00007448       __d_max                    10027448     libucrt:util.obj
 0002:00007450       __d_mzero                  10027450     libucrt:util.obj
 0002:000074c0       __load_config_used         100274c0     LIBCMT:loadcfg.obj
 0002:00007580       __tls_used                 10027580     LIBCMT:tlssup.obj
 0002:00007598       ??_R4exception@std@@6B@    10027598     LIBCMT:throw_bad_alloc.obj
 0002:000075ac       ??_R3exception@std@@8      100275ac     LIBCMT:throw_bad_alloc.obj
 0002:000075bc       ??_R2exception@std@@8      100275bc     LIBCMT:throw_bad_alloc.obj
 0002:000075c4       ??_R1A@?0A@EA@exception@std@@8 100275c4     LIBCMT:throw_bad_alloc.obj
 0002:000075e0       ??_R4bad_alloc@std@@6B@    100275e0     LIBCMT:throw_bad_alloc.obj
 0002:000075f4       ??_R3bad_alloc@std@@8      100275f4     LIBCMT:throw_bad_alloc.obj
 0002:00007604       ??_R2bad_alloc@std@@8      10027604     LIBCMT:throw_bad_alloc.obj
 0002:00007610       ??_R1A@?0A@EA@bad_alloc@std@@8 10027610     LIBCMT:throw_bad_alloc.obj
 0002:0000762c       ??_R4bad_array_new_length@std@@6B@ 1002762c     LIBCMT:throw_bad_alloc.obj
 0002:00007640       ??_R3bad_array_new_length@std@@8 10027640     LIBCMT:throw_bad_alloc.obj
 0002:00007650       ??_R2bad_array_new_length@std@@8 10027650     LIBCMT:throw_bad_alloc.obj
 0002:00007660       ??_R1A@?0A@EA@bad_array_new_length@std@@8 10027660     LIBCMT:throw_bad_alloc.obj
 0002:0000767c       ??_R4type_info@@6B@        1002767c     LIBCMT:std_type_info_static.obj
 0002:00007690       ??_R3type_info@@8          10027690     LIBCMT:std_type_info_static.obj
 0002:000076a0       ??_R2type_info@@8          100276a0     LIBCMT:std_type_info_static.obj
 0002:000076a8       ??_R1A@?0A@EA@type_info@@8 100276a8     LIBCMT:std_type_info_static.obj
 0002:000076c4       ??_R4bad_exception@std@@6B@ 100276c4     libvcruntime:frame.obj
 0002:000076d8       ??_R3bad_exception@std@@8  100276d8     libvcruntime:frame.obj
 0002:000076e8       ??_R2bad_exception@std@@8  100276e8     libvcruntime:frame.obj
 0002:000076f4       ??_R1A@?0A@EA@bad_exception@std@@8 100276f4     libvcruntime:frame.obj
 0002:00007710       ___safe_se_handler_table   10027710     <linker-defined>
 0002:00007b14       ___rtc_iaa                 10027b14     LIBCMT:initsect.obj
 0002:00007b18       ___rtc_izz                 10027b18     LIBCMT:initsect.obj
 0002:00007b1c       ___rtc_taa                 10027b1c     LIBCMT:initsect.obj
 0002:00007b20       ___rtc_tzz                 10027b20     LIBCMT:initsect.obj
 0002:00007b24       __tls_start                10027b24     LIBCMT:tlssup.obj
 0002:00007b28       __Init_thread_epoch        10027b28     LIBCMT:thread_safe_statics.obj
 0002:00007b2c       __tls_end                  10027b2c     LIBCMT:tlssup.obj
 0002:00007c2c       __TI2?AVbad_alloc@std@@    10027c2c     LIBCMT:throw_bad_alloc.obj
 0002:00007c3c       __CTA2?AVbad_alloc@std@@   10027c3c     LIBCMT:throw_bad_alloc.obj
 0002:00007c48       __CT??_R0?AVbad_alloc@std@@@8??0bad_alloc@std@@QAE@ABV01@@Z12 10027c48     LIBCMT:throw_bad_alloc.obj
 0002:00007c64       __CT??_R0?AVexception@std@@@8??0exception@std@@QAE@ABV01@@Z12 10027c64     LIBCMT:throw_bad_alloc.obj
 0002:00007c80       __TI3?AVbad_array_new_length@std@@ 10027c80     LIBCMT:throw_bad_alloc.obj
 0002:00007c90       __CTA3?AVbad_array_new_length@std@@ 10027c90     LIBCMT:throw_bad_alloc.obj
 0002:00007ca0       __CT??_R0?AVbad_array_new_length@std@@@8??0bad_array_new_length@std@@QAE@ABV01@@Z12 10027ca0     LIBCMT:throw_bad_alloc.obj
 0002:00007dc4       __TI2?AVbad_exception@std@@ 10027dc4     libvcruntime:frame.obj
 0002:00007dd4       __CTA2?AVbad_exception@std@@ 10027dd4     libvcruntime:frame.obj
 0002:00007de0       __CT??_R0?AVbad_exception@std@@@8??0bad_exception@std@@QAE@ABV01@@Z12 10027de0     libvcruntime:frame.obj
 0002:0000815c       ___pobjMapEntryFirst       1002815c     OposVariant.obj
 0002:00008160       ___pobjMapEntryLast        10028160     OposVariant.obj
 0002:00008228       __IMPORT_DESCRIPTOR_KERNEL32 10028228     kernel32:KERNEL32.dll
 0002:0000823c       __IMPORT_DESCRIPTOR_USER32 1002823c     user32:USER32.dll
 0002:00008250       __IMPORT_DESCRIPTOR_GDI32  10028250     gdi32:GDI32.dll
 0002:00008264       __IMPORT_DESCRIPTOR_ADVAPI32 10028264     advapi32:ADVAPI32.dll
 0002:00008278       __IMPORT_DESCRIPTOR_ole32  10028278     ole32:ole32.dll
 0002:0000828c       __IMPORT_DESCRIPTOR_OLEAUT32 1002828c     oleaut32:OLEAUT32.dll
 0002:000082a0       __NULL_IMPORT_DESCRIPTOR   100282a0     kernel32:KERNEL32.dll
 0003:00000000       ?s_Claim@?7??GetIDsOfNames@CComTypeInfoHolder@ATL@@QAEJABU_GUID@@PAPA_WIKPAJ@Z@4PA_WA 1002a000     IndividualRecognition.obj
 0003:00000018       ?s_Release@?7??GetIDsOfNames@CComTypeInfoHolder@ATL@@QAEJABU_GUID@@PAPA_WIKPAJ@Z@4PA_WA 1002a018     IndividualRecognition.obj
 0003:00000034       ?_tih@?$IDispatchImpl@UIOPOSIndividualRecognition@@$1?IID_IOPOSIndividualRecognition@@3U_GUID@@B$1?LIBID_OposIndividualRecognition_CCO@@3U3@B$00$0A@VCComTypeInfoHolder@ATL@@@ATL@@1VCComTypeInfoHolder@2@A 1002a034     IndividualRecognition.obj
 0003:00000050       ?_tih@?$IProvideClassInfo2Impl@$1?CLSID_OPOSIndividualRecognition@@3U_GUID@@B$1?DIID__IOPOSIndividualRecognitionEvents@@3U2@B$1?LIBID_OposIndividualRecognition_CCO@@3U2@B$00$0A@VCComTypeInfoHolder@ATL@@@ATL@@1VCComTypeInfoHolder@2@A 1002a050     IndividualRecognition.obj
 0003:0000006c       ?vszContents@?6??Save@?$IPersistStorageImpl@VCOPOSIndividualRecognition@@@ATL@@UAGJPAUIStorage@@H@Z@4PB_WB 1002a06c     IndividualRecognition.obj
 0003:00000070       ?wc@?1??GetWndClassInfo@?$CWindowImpl@VCOPOSIndividualRecognition@@VCWindow@ATL@@V?$CWinTraits@$0FGAAAAAA@$0A@@3@@ATL@@SAAAU_ATL_WNDCLASSINFOW@3@XZ@4U43@A 1002a070     IndividualRecognition.obj
 0003:000000fc       ?rcDefault@CWindow@ATL@@2UtagRECT@@A 1002a0fc     IndividualRecognition.obj
 0003:00000158       ?g_WindowName@@3PA_WA      1002a158     IndividualRecognitionImpl.obj
 0003:00000194       ?g_ControlDescription@@3PADA 1002a194     IndividualRecognitionImpl.obj
 0003:000001d0       ?g_ControlVersion@@3JA     1002a1d0     IndividualRecognitionImpl.obj
 0003:00000224       ___scrt_native_dllmain_reason 1002a224     LIBCMT:utility.obj
 0003:00000228       __Init_global_epoch        1002a228     LIBCMT:thread_safe_statics.obj
 0003:00000230       ___security_cookie_complement 1002a230     LIBCMT:gs_cookie.obj
 0003:00000234       ___security_cookie         1002a234     LIBCMT:gs_cookie.obj
 0003:00000238       ___isa_enabled             1002a238     LIBCMT:cpu_disp.obj
 0003:00000250       __NLG_Destination          1002a250     libvcruntime:exsup.obj
 0003:00000268       ___abort_behavior          1002a268     libucrt:abort.obj
 0003:00000278       __iob                      1002a278     libucrt:_file.obj
 0003:00000320       ___acrt_initial_locale_data 1002a320     libucrt:nlsdata.obj
 0003:000003d8       ___acrt_initial_locale_pointers 1002a3d8     libucrt:nlsdata.obj
 0003:000003e0       ___acrt_wide_c_locale_string 1002a3e0     libucrt:nlsdata.obj
 0003:000003e8       ___acrt_initial_multibyte_data 1002a3e8     libucrt:mbctype.obj
 0003:00000908       __pwctype                  1002a908     libucrt:ctype.obj
 0003:0000090c       ___globallocalestatus      1002a90c     libucrt:glstatus.obj
 0003:00000910       ___acrt_lconv_c            1002a910     libucrt:localeconv.obj
 0003:00000960       ___acrt_lconv_static_decimal 1002a960     libucrt:localeconv.obj
 0003:00000964       ___acrt_lconv_static_W_decimal 1002a964     libucrt:localeconv.obj
 0003:00000970       __lookuptrailbytes         1002a970     libucrt:read.obj
 0003:00000a80       __fltused                  1002aa80     LIBCMT:fltused.obj
 0003:00000a90       ??_R0?AVbad_alloc@std@@@8  1002aa90     LIBCMT:throw_bad_alloc.obj
 0003:00000aac       ??_R0?AVexception@std@@@8  1002aaac     LIBCMT:throw_bad_alloc.obj
 0003:00000ac8       ??_R0?AVbad_array_new_length@std@@@8 1002aac8     LIBCMT:throw_bad_alloc.obj
 0003:00000af0       ??_R0?AVtype_info@@@8      1002aaf0     LIBCMT:std_type_info_static.obj
 0003:00000b08       ??_R0?AVbad_exception@std@@@8 1002ab08     libvcruntime:frame.obj
 0003:00000b28       ?m_bInitFailed@CAtlBaseModule@ATL@@2_NA 1002ab28     OposVariant.obj
 0003:00000b2c       ?_pPerfRegFunc@ATL@@3P6AJPAUHINSTANCE__@@@ZA 1002ab2c     OposVariant.obj
 0003:00000b30       ?_pPerfUnRegFunc@ATL@@3P6AJXZA 1002ab30     OposVariant.obj
 0003:00000b34       ?_AtlRegisterPerUser@ATL@@3_NA 1002ab34     OposVariant.obj
 0003:00000b38       ?_pAtlModule@ATL@@3PAVCAtlModule@1@A 1002ab38     OposVariant.obj
 0003:00000b3c       ?_pModule@ATL@@3PAVCComModule@1@A 1002ab3c     OposVariant.obj
 0003:00000b40       ?_AtlComModule@ATL@@3VCAtlComModule@1@A 1002ab40     OposVariant.obj
 0003:00000b68       ?_AtlWinModule@ATL@@3VCAtlWinModule@1@A 1002ab68     OposVariant.obj
 0003:00000b94       ?m_libid@CAtlModule@ATL@@2U_GUID@@A 1002ab94     IndividualRecognition.obj
 0003:00000ba4       ?_entries@?1??GetConnMap@COPOSIndividualRecognition@@SAPBU_ATL_CONNMAP_ENTRY@ATL@@PAH@Z@4QBU34@B 1002aba4     IndividualRecognition.obj
 0003:00000bb0       ?$TSS0@?1??GetConnMap@COPOSIndividualRecognition@@SAPBU_ATL_CONNMAP_ENTRY@ATL@@PAH@Z@4HA 1002abb0     IndividualRecognition.obj
 0003:00000bb8       ?_OptionsStorage@?1??__local_stdio_printf_options@@9@4_KA 1002abb8     IndividualRecognition.obj
 0003:00000bc0       ?pfnRegDeleteKeyEx@?1??DeleteSubKey@CRegKey@ATL@@QAEJPB_W@Z@4P6GJPAUHKEY__@@0KK@ZA 1002abc0     IndividualRecognition.obj
 0003:00000bc4       ?bInitialized@?1??DeleteSubKey@CRegKey@ATL@@QAEJPB_W@Z@4_NA 1002abc4     IndividualRecognition.obj
 0003:00000bc8       ?_Module@@3VCComModule@ATL@@A 1002abc8     IndividualRecognition.obj
 0003:00000bf8       ?pConnMap@?$IConnectionPointContainerImpl@VCOPOSIndividualRecognition@@@ATL@@0PBU_ATL_CONNMAP_ENTRY@2@B 1002abf8     IndividualRecognition.obj
 0003:00000bfc       ?s_nInstances@COPOSIndividualRecognition@@1HA 1002abfc     IndividualRecognitionImpl.obj
 0003:00000c00       ___scrt_current_native_startup_state 1002ac00     LIBCMT:utility.obj
 0003:00000c04       ___scrt_native_startup_lock 1002ac04     LIBCMT:utility.obj
 0003:00000f6c       __tls_index                1002af6c     LIBCMT:tlssup.obj
 0003:00000f74       ___isa_available           1002af74     LIBCMT:cpu_disp.obj
 0003:00000f78       ___favor                   1002af78     LIBCMT:cpu_disp.obj
 0003:00000f7c       ___scrt_debugger_hook_flag 1002af7c     LIBCMT:utility_desktop.obj
 0003:00000f80       ___castguard_check_failure_os_handled_fptr 1002af80     LIBCMT:guard_support.obj
 0003:00000f88       ?__type_info_root_node@@3U__type_info_node@@A 1002af88     LIBCMT:tncleanup.obj
 0003:00000f90       ?_OptionsStorage@?1??__local_stdio_scanf_options@@9@4_KA 1002af90     LIBCMT:default_local_stdio_options.obj
 0003:00000f98       ?_AtlBaseModule@ATL@@3VCAtlBaseModule@1@A 1002af98     atls:atlbase.obj
 0003:00000fd0       ?__AtlThunkPool@@3PAT_SLIST_HEADER@@A 1002afd0     atls:atlthunk.obj
 0003:00000fe8       ___@@_PchSym_@00@UztvmgUPdlipUFHUhUrmgvinvwrzgvUexgllohUzgohOmzgrevkilqPBACIAJCBDBUlyqiUcIGUhgwzucOlyq@4B2008FD98C1DD4 1002afe8     atls:stdafx.obj
 0003:00000fec       ?__WinRTOutOfMemoryExceptionCallback@@3P6GPAXXZA 1002afec     libvcruntime:ehhelpers.obj
 0003:00000ff0       ___pPurecall               1002aff0     libvcruntime:purevirt_data.obj
 0003:00001038       ?pArgList@UnDecorator@@0PAVReplicator@@A 1002b038     libvcruntime:undname.obj
 0003:0000103c       ?pZNameList@UnDecorator@@0PAVReplicator@@A 1002b03c     libvcruntime:undname.obj
 0003:00001040       ?pTemplateArgList@UnDecorator@@0PAVReplicator@@A 1002b040     libvcruntime:undname.obj
 0003:00001044       ?gName@UnDecorator@@0PBDB  1002b044     libvcruntime:undname.obj
 0003:00001048       ?name@UnDecorator@@0PBDB   1002b048     libvcruntime:undname.obj
 0003:0000104c       ?disableFlags@UnDecorator@@0KA 1002b04c     libvcruntime:undname.obj
 0003:00001050       ?fExplicitTemplateParams@UnDecorator@@0_NA 1002b050     libvcruntime:undname.obj
 0003:00001051       ?fGetTemplateArgumentList@UnDecorator@@0_NA 1002b051     libvcruntime:undname.obj
 0003:00001054       ?m_pGetParameter@UnDecorator@@0P6APADJ@ZA 1002b054     libvcruntime:undname.obj
 0003:00001058       ?m_CHPENameOffset@UnDecorator@@0KA 1002b058     libvcruntime:undname.obj
 0003:0000105c       ?m_recursionLevel@UnDecorator@@0KA 1002b05c     libvcruntime:undname.obj
 0003:000010a0       ?c_exit_complete@?1???R<lambda_6e4b09c48022b2350581041d5f6b0c4c>@@QBE@XZ@4_NA 1002b0a0     libucrt:exit.obj
 0003:000011b0       __environ_table            1002b1b0     libucrt:environment_initialization.obj
 0003:000011b4       __wenviron_table           1002b1b4     libucrt:environment_initialization.obj
 0003:000011b8       ___dcrt_initial_wide_environment 1002b1b8     libucrt:environment_initialization.obj
 0003:000011bc       ___dcrt_initial_narrow_environment 1002b1bc     libucrt:environment_initialization.obj
 0003:000011c0       ___acrt_atexit_table       1002b1c0     libucrt:onexit.obj
 0003:000011cc       ___acrt_at_quick_exit_table 1002b1cc     libucrt:onexit.obj
 0003:000012c0       __nstream                  1002b2c0     libucrt:_file.obj
 0003:000012c4       ___piob                    1002b2c4     libucrt:_file.obj
 0003:000012cc       ___acrt_stdout_buffer      1002b2cc     libucrt:_sftbuf.obj
 0003:000012d0       ___acrt_stderr_buffer      1002b2d0     libucrt:_sftbuf.obj
 0003:000012d4       ___acrt_locale_changed_data 1002b2d4     libucrt:wsetlocale.obj
 0003:000012d8       ___acrt_current_locale_data 1002b2d8     libucrt:nlsdata.obj
 0003:000012e0       ___pioinfo                 1002b2e0     libucrt:ioinit.obj
 0003:000014e0       __nhandle                  1002b4e0     libucrt:ioinit.obj
 0003:0000163c       __mbctype                  1002b63c     libucrt:mbctype.obj
 0003:00001640       __mbcasemap                1002b640     libucrt:mbctype.obj
 0003:00001644       ___acrt_current_multibyte_data 1002b644     libucrt:mbctype.obj
 0003:00001650       __pgmptr                   1002b650     libucrt:argv_data.obj
 0003:00001654       ___argc                    1002b654     libucrt:argv_data.obj
 0003:00001658       ___argv                    1002b658     libucrt:argv_data.obj
 0003:0000165c       ___wargv                   1002b65c     libucrt:argv_data.obj
 0003:00001660       __acmdln                   1002b660     libucrt:argv_data.obj
 0003:00001664       __wcmdln                   1002b664     libucrt:argv_data.obj
 0003:00001668       ___acrt_heap               1002b668     libucrt:heap_handle.obj
 0003:00001684       ___acrt_lconv_static_null  1002b684     libucrt:localeconv.obj
 0003:00001688       ___acrt_lconv_static_W_null 1002b688     libucrt:localeconv.obj
 0003:00001698       ___fastflag                1002b698     libucrt:fp_flags.obj
 0003:000016a0       ___dyn_tls_init_callback   1002b6a0     <common>
 0003:000016a4       ___scrt_ucrt_dll_is_in_use 1002b6a4     <common>
 0003:000016a8       __pmatherr                 1002b6a8     <common>
 0003:000016ac       ___use_sse2_mathfcns       1002b6ac     <common>

 entry point at        0001:0000bd2d

 Static symbols

 0000:fffce000       .debug$S                   10000000     OPOSIndividualRecognition.exp
 0000:fffce000       .debug$S                   10000000     advapi32:ADVAPI32.dll
 0000:fffce000       .debug$S                   10000000     advapi32:ADVAPI32.dll
 0000:fffce000       .debug$S                   10000000     advapi32:ADVAPI32.dll
 0000:fffce000       .debug$S                   10000000     advapi32:ADVAPI32.dll
 0000:fffce000       .debug$S                   10000000     advapi32:ADVAPI32.dll
 0000:fffce000       .debug$S                   10000000     advapi32:ADVAPI32.dll
 0000:fffce000       .debug$S                   10000000     advapi32:ADVAPI32.dll
 0000:fffce000       .debug$S                   10000000     advapi32:ADVAPI32.dll
 0000:fffce000       .debug$S                   10000000     advapi32:ADVAPI32.dll
 0000:fffce000       .debug$S                   10000000     gdi32:GDI32.dll
 0000:fffce000       .debug$S                   10000000     gdi32:GDI32.dll
 0000:fffce000       .debug$S                   10000000     gdi32:GDI32.dll
 0000:fffce000       .debug$S                   10000000     gdi32:GDI32.dll
 0000:fffce000       .debug$S                   10000000     gdi32:GDI32.dll
 0000:fffce000       .debug$S                   10000000     gdi32:GDI32.dll
 0000:fffce000       .debug$S                   10000000     gdi32:GDI32.dll
 0000:fffce000       .debug$S                   10000000     gdi32:GDI32.dll
 0000:fffce000       .debug$S                   10000000     gdi32:GDI32.dll
 0000:fffce000       .debug$S                   10000000     gdi32:GDI32.dll
 0000:fffce000       .debug$S                   10000000     gdi32:GDI32.dll
 0000:fffce000       .debug$S                   10000000     gdi32:GDI32.dll
 0000:fffce000       .debug$S                   10000000     gdi32:GDI32.dll
 0000:fffce000       .debug$S                   10000000     gdi32:GDI32.dll
 0000:fffce000       .debug$S                   10000000     gdi32:GDI32.dll
 0000:fffce000       .debug$S                   10000000     gdi32:GDI32.dll
 0000:fffce000       .debug$S                   10000000     gdi32:GDI32.dll
 0000:fffce000       .debug$S                   10000000     gdi32:GDI32.dll
 0000:fffce000       .debug$S                   10000000     gdi32:GDI32.dll
 0000:fffce000       .debug$S                   10000000     kernel32:KERNEL32.dll
 0000:fffce000       .debug$S                   10000000     kernel32:KERNEL32.dll
 0000:fffce000       .debug$S                   10000000     kernel32:KERNEL32.dll
 0000:fffce000       .debug$S                   10000000     kernel32:KERNEL32.dll
 0000:fffce000       .debug$S                   10000000     kernel32:KERNEL32.dll
 0000:fffce000       .debug$S                   10000000     kernel32:KERNEL32.dll
 0000:fffce000       .debug$S                   10000000     kernel32:KERNEL32.dll
 0000:fffce000       .debug$S                   10000000     kernel32:KERNEL32.dll
 0000:fffce000       .debug$S                   10000000     kernel32:KERNEL32.dll
 0000:fffce000       .debug$S                   10000000     kernel32:KERNEL32.dll
 0000:fffce000       .debug$S                   10000000     kernel32:KERNEL32.dll
 0000:fffce000       .debug$S                   10000000     kernel32:KERNEL32.dll
 0000:fffce000       .debug$S                   10000000     kernel32:KERNEL32.dll
 0000:fffce000       .debug$S                   10000000     kernel32:KERNEL32.dll
 0000:fffce000       .debug$S                   10000000     kernel32:KERNEL32.dll
 0000:fffce000       .debug$S                   10000000     kernel32:KERNEL32.dll
 0000:fffce000       .debug$S                   10000000     kernel32:KERNEL32.dll
 0000:fffce000       .debug$S                   10000000     kernel32:KERNEL32.dll
 0000:fffce000       .debug$S                   10000000     kernel32:KERNEL32.dll
 0000:fffce000       .debug$S                   10000000     kernel32:KERNEL32.dll
 0000:fffce000       .debug$S                   10000000     kernel32:KERNEL32.dll
 0000:fffce000       .debug$S                   10000000     kernel32:KERNEL32.dll
 0000:fffce000       .debug$S                   10000000     kernel32:KERNEL32.dll
 0000:fffce000       .debug$S                   10000000     kernel32:KERNEL32.dll
 0000:fffce000       .debug$S                   10000000     kernel32:KERNEL32.dll
 0000:fffce000       .debug$S                   10000000     kernel32:KERNEL32.dll
 0000:fffce000       .debug$S                   10000000     kernel32:KERNEL32.dll
 0000:fffce000       .debug$S                   10000000     kernel32:KERNEL32.dll
 0000:fffce000       .debug$S                   10000000     kernel32:KERNEL32.dll
 0000:fffce000       .debug$S                   10000000     kernel32:KERNEL32.dll
 0000:fffce000       .debug$S                   10000000     kernel32:KERNEL32.dll
 0000:fffce000       .debug$S                   10000000     kernel32:KERNEL32.dll
 0000:fffce000       .debug$S                   10000000     kernel32:KERNEL32.dll
 0000:fffce000       .debug$S                   10000000     kernel32:KERNEL32.dll
 0000:fffce000       .debug$S                   10000000     kernel32:KERNEL32.dll
 0000:fffce000       .debug$S                   10000000     kernel32:KERNEL32.dll
 0000:fffce000       .debug$S                   10000000     kernel32:KERNEL32.dll
 0000:fffce000       .debug$S                   10000000     kernel32:KERNEL32.dll
 0000:fffce000       .debug$S                   10000000     kernel32:KERNEL32.dll
 0000:fffce000       .debug$S                   10000000     kernel32:KERNEL32.dll
 0000:fffce000       .debug$S                   10000000     kernel32:KERNEL32.dll
 0000:fffce000       .debug$S                   10000000     kernel32:KERNEL32.dll
 0000:fffce000       .debug$S                   10000000     kernel32:KERNEL32.dll
 0000:fffce000       .debug$S                   10000000     kernel32:KERNEL32.dll
 0000:fffce000       .debug$S                   10000000     kernel32:KERNEL32.dll
 0000:fffce000       .debug$S                   10000000     kernel32:KERNEL32.dll
 0000:fffce000       .debug$S                   10000000     kernel32:KERNEL32.dll
 0000:fffce000       .debug$S                   10000000     kernel32:KERNEL32.dll
 0000:fffce000       .debug$S                   10000000     kernel32:KERNEL32.dll
 0000:fffce000       .debug$S                   10000000     kernel32:KERNEL32.dll
 0000:fffce000       .debug$S                   10000000     kernel32:KERNEL32.dll
 0000:fffce000       .debug$S                   10000000     kernel32:KERNEL32.dll
 0000:fffce000       .debug$S                   10000000     kernel32:KERNEL32.dll
 0000:fffce000       .debug$S                   10000000     kernel32:KERNEL32.dll
 0000:fffce000       .debug$S                   10000000     kernel32:KERNEL32.dll
 0000:fffce000       .debug$S                   10000000     kernel32:KERNEL32.dll
 0000:fffce000       .debug$S                   10000000     kernel32:KERNEL32.dll
 0000:fffce000       .debug$S                   10000000     kernel32:KERNEL32.dll
 0000:fffce000       .debug$S                   10000000     kernel32:KERNEL32.dll
 0000:fffce000       .debug$S                   10000000     kernel32:KERNEL32.dll
 0000:fffce000       .debug$S                   10000000     kernel32:KERNEL32.dll
 0000:fffce000       .debug$S                   10000000     kernel32:KERNEL32.dll
 0000:fffce000       .debug$S                   10000000     kernel32:KERNEL32.dll
 0000:fffce000       .debug$S                   10000000     kernel32:KERNEL32.dll
 0000:fffce000       .debug$S                   10000000     kernel32:KERNEL32.dll
 0000:fffce000       .debug$S                   10000000     kernel32:KERNEL32.dll
 0000:fffce000       .debug$S                   10000000     kernel32:KERNEL32.dll
 0000:fffce000       .debug$S                   10000000     kernel32:KERNEL32.dll
 0000:fffce000       .debug$S                   10000000     kernel32:KERNEL32.dll
 0000:fffce000       .debug$S                   10000000     kernel32:KERNEL32.dll
 0000:fffce000       .debug$S                   10000000     kernel32:KERNEL32.dll
 0000:fffce000       .debug$S                   10000000     kernel32:KERNEL32.dll
 0000:fffce000       .debug$S                   10000000     kernel32:KERNEL32.dll
 0000:fffce000       .debug$S                   10000000     kernel32:KERNEL32.dll
 0000:fffce000       .debug$S                   10000000     kernel32:KERNEL32.dll
 0000:fffce000       .debug$S                   10000000     kernel32:KERNEL32.dll
 0000:fffce000       .debug$S                   10000000     kernel32:KERNEL32.dll
 0000:fffce000       .debug$S                   10000000     kernel32:KERNEL32.dll
 0000:fffce000       .debug$S                   10000000     kernel32:KERNEL32.dll
 0000:fffce000       .debug$S                   10000000     kernel32:KERNEL32.dll
 0000:fffce000       .debug$S                   10000000     kernel32:KERNEL32.dll
 0000:fffce000       .debug$S                   10000000     kernel32:KERNEL32.dll
 0000:fffce000       .debug$S                   10000000     kernel32:KERNEL32.dll
 0000:fffce000       .debug$S                   10000000     kernel32:KERNEL32.dll
 0000:fffce000       .debug$S                   10000000     kernel32:KERNEL32.dll
 0000:fffce000       .debug$S                   10000000     kernel32:KERNEL32.dll
 0000:fffce000       .debug$S                   10000000     kernel32:KERNEL32.dll
 0000:fffce000       .debug$S                   10000000     kernel32:KERNEL32.dll
 0000:fffce000       .debug$S                   10000000     kernel32:KERNEL32.dll
 0000:fffce000       .debug$S                   10000000     kernel32:KERNEL32.dll
 0000:fffce000       .debug$S                   10000000     kernel32:KERNEL32.dll
 0000:fffce000       .debug$S                   10000000     kernel32:KERNEL32.dll
 0000:fffce000       .debug$S                   10000000     kernel32:KERNEL32.dll
 0000:fffce000       .debug$S                   10000000     kernel32:KERNEL32.dll
 0000:fffce000       .debug$S                   10000000     kernel32:KERNEL32.dll
 0000:fffce000       .debug$S                   10000000     kernel32:KERNEL32.dll
 0000:fffce000       .debug$S                   10000000     kernel32:KERNEL32.dll
 0000:fffce000       .debug$S                   10000000     kernel32:KERNEL32.dll
 0000:fffce000       .debug$S                   10000000     kernel32:KERNEL32.dll
 0000:fffce000       .debug$S                   10000000     kernel32:KERNEL32.dll
 0000:fffce000       .debug$S                   10000000     kernel32:KERNEL32.dll
 0000:fffce000       .debug$S                   10000000     kernel32:KERNEL32.dll
 0000:fffce000       .debug$S                   10000000     kernel32:KERNEL32.dll
 0000:fffce000       .debug$S                   10000000     kernel32:KERNEL32.dll
 0000:fffce000       .debug$S                   10000000     kernel32:KERNEL32.dll
 0000:fffce000       .debug$S                   10000000     kernel32:KERNEL32.dll
 0000:fffce000       .debug$S                   10000000     ole32:ole32.dll
 0000:fffce000       .debug$S                   10000000     ole32:ole32.dll
 0000:fffce000       .debug$S                   10000000     ole32:ole32.dll
 0000:fffce000       .debug$S                   10000000     ole32:ole32.dll
 0000:fffce000       .debug$S                   10000000     ole32:ole32.dll
 0000:fffce000       .debug$S                   10000000     ole32:ole32.dll
 0000:fffce000       .debug$S                   10000000     ole32:ole32.dll
 0000:fffce000       .debug$S                   10000000     ole32:ole32.dll
 0000:fffce000       .debug$S                   10000000     ole32:ole32.dll
 0000:fffce000       .debug$S                   10000000     ole32:ole32.dll
 0000:fffce000       .debug$S                   10000000     ole32:ole32.dll
 0000:fffce000       .debug$S                   10000000     ole32:ole32.dll
 0000:fffce000       .debug$S                   10000000     ole32:ole32.dll
 0000:fffce000       .debug$S                   10000000     ole32:ole32.dll
 0000:fffce000       .debug$S                   10000000     oleaut32:OLEAUT32.dll
 0000:fffce000       .debug$S                   10000000     oleaut32:OLEAUT32.dll
 0000:fffce000       .debug$S                   10000000     oleaut32:OLEAUT32.dll
 0000:fffce000       .debug$S                   10000000     oleaut32:OLEAUT32.dll
 0000:fffce000       .debug$S                   10000000     oleaut32:OLEAUT32.dll
 0000:fffce000       .debug$S                   10000000     oleaut32:OLEAUT32.dll
 0000:fffce000       .debug$S                   10000000     oleaut32:OLEAUT32.dll
 0000:fffce000       .debug$S                   10000000     oleaut32:OLEAUT32.dll
 0000:fffce000       .debug$S                   10000000     oleaut32:OLEAUT32.dll
 0000:fffce000       .debug$S                   10000000     oleaut32:OLEAUT32.dll
 0000:fffce000       .debug$S                   10000000     oleaut32:OLEAUT32.dll
 0000:fffce000       .debug$S                   10000000     oleaut32:OLEAUT32.dll
 0000:fffce000       .debug$S                   10000000     oleaut32:OLEAUT32.dll
 0000:fffce000       .debug$S                   10000000     oleaut32:OLEAUT32.dll
 0000:fffce000       .debug$S                   10000000     oleaut32:OLEAUT32.dll
 0000:fffce000       .debug$S                   10000000     oleaut32:OLEAUT32.dll
 0000:fffce000       .debug$S                   10000000     user32:USER32.dll
 0000:fffce000       .debug$S                   10000000     user32:USER32.dll
 0000:fffce000       .debug$S                   10000000     user32:USER32.dll
 0000:fffce000       .debug$S                   10000000     user32:USER32.dll
 0000:fffce000       .debug$S                   10000000     user32:USER32.dll
 0000:fffce000       .debug$S                   10000000     user32:USER32.dll
 0000:fffce000       .debug$S                   10000000     user32:USER32.dll
 0000:fffce000       .debug$S                   10000000     user32:USER32.dll
 0000:fffce000       .debug$S                   10000000     user32:USER32.dll
 0000:fffce000       .debug$S                   10000000     user32:USER32.dll
 0000:fffce000       .debug$S                   10000000     user32:USER32.dll
 0000:fffce000       .debug$S                   10000000     user32:USER32.dll
 0000:fffce000       .debug$S                   10000000     user32:USER32.dll
 0000:fffce000       .debug$S                   10000000     user32:USER32.dll
 0000:fffce000       .debug$S                   10000000     user32:USER32.dll
 0000:fffce000       .debug$S                   10000000     user32:USER32.dll
 0000:fffce000       .debug$S                   10000000     user32:USER32.dll
 0000:fffce000       .debug$S                   10000000     user32:USER32.dll
 0000:fffce000       .debug$S                   10000000     user32:USER32.dll
 0000:fffce000       .debug$S                   10000000     user32:USER32.dll
 0000:fffce000       .debug$S                   10000000     user32:USER32.dll
 0000:fffce000       .debug$S                   10000000     user32:USER32.dll
 0000:fffce000       .debug$S                   10000000     user32:USER32.dll
 0000:fffce000       .debug$S                   10000000     user32:USER32.dll
 0000:fffce000       .debug$S                   10000000     user32:USER32.dll
 0000:fffce000       .debug$S                   10000000     user32:USER32.dll
 0000:fffce000       .debug$S                   10000000     user32:USER32.dll
 0000:fffce000       .debug$S                   10000000     user32:USER32.dll
 0000:fffce000       .debug$S                   10000000     user32:USER32.dll
 0000:fffce000       .debug$S                   10000000     user32:USER32.dll
 0000:fffce000       .debug$S                   10000000     user32:USER32.dll
 0000:fffce000       .debug$S                   10000000     user32:USER32.dll
 0000:fffce000       .debug$S                   10000000     user32:USER32.dll
 0000:fffce000       .debug$S                   10000000     user32:USER32.dll
 0000:fffce000       .debug$S                   10000000     user32:USER32.dll
 0001:00000000       ??__E_AtlComModule@ATL@@YAXXZ 10001000 f   OposVariant.obj
 0001:00000016       ??__E_AtlWinModule@ATL@@YAXXZ 10001016 f   OposVariant.obj
 0001:0000002c       ??__E?pConnMap@?$IConnectionPointContainerImpl@VCOPOSIndividualRecognition@@@ATL@@0PBU_ATL_CONNMAP_ENTRY@2@B@@YAXXZ 1000102c f   IndividualRecognition.obj
 0001:0000003a       ??__E_Module@@YAXXZ        1000103a f   IndividualRecognition.obj
 0001:00000064       ??__E_AtlBaseModule@ATL@@YAXXZ 10001064 f   atls:atlbase.obj
 0001:00000e13       $LN24                      10001e13     IndividualRecognition.obj
 0001:000058b2       $LN48                      100068b2     IndividualRecognition.obj
 0001:000058ca       $LN47                      100068ca     IndividualRecognition.obj
 0001:00007a75       $LN38                      10008a75     IndividualRecognition.obj
 0001:00007a8d       $LN37                      10008a8d     IndividualRecognition.obj
 0001:0000917d       $LN76                      1000a17d     IndividualRecognition.obj
 0001:00009195       $LN75                      1000a195     IndividualRecognition.obj
 0001:0000954e       _memcpy_s                  1000a54e f   IndividualRecognition.obj
 0001:0000b1b8       ?find_pe_section@@YAPAU_IMAGE_SECTION_HEADER@@QAEI@Z 1000c1b8 f   LIBCMT:utility.obj
 0001:0000b4d7       ?__scrt_initialize_thread_safe_statics@@YAHXZ 1000c4d7 f   LIBCMT:thread_safe_statics.obj
 0001:0000b4fe       ?__scrt_initialize_thread_safe_statics_platform_specific@@YAXXZ 1000c4fe f   LIBCMT:thread_safe_statics.obj
 0001:0000b580       ?__scrt_uninitialize_thread_safe_statics@@YAXXZ 1000c580 f   LIBCMT:thread_safe_statics.obj
 0001:0000b8ef       __catch$??2@YAPAXIABUnothrow_t@std@@@Z$0 1000c8ef f   LIBCMT:new_scalar_nothrow.obj
 0001:0000b930       $$000000                   1000c930     LIBCMT:sehprolg4gs.obj
 0001:0000b990       $$000000                   1000c990     LIBCMT:alloca16.obj
 0001:0000b9c0       $$000000                   1000c9c0     LIBCMT:chkstk.obj
 0001:0000b9ed       ?dllmain_crt_dispatch@@YGHQAUHINSTANCE__@@KQAX@Z 1000c9ed f   LIBCMT:dll_dllmain.obj
 0001:0000ba40       ?dllmain_crt_process_attach@@YAHQAUHINSTANCE__@@QAX@Z 1000ca40 f   LIBCMT:dll_dllmain.obj
 0001:0000bb47       ?dllmain_crt_process_detach@@YAH_N@Z 1000cb47 f   LIBCMT:dll_dllmain.obj
 0001:0000bbf7       ?dllmain_dispatch@@YAHQAUHINSTANCE__@@KQAX@Z 1000cbf7 f   LIBCMT:dll_dllmain.obj
 0001:0000bd02       ?dllmain_raw@@YGHQAUHINSTANCE__@@KQAX@Z 1000cd02 f   LIBCMT:dll_dllmain.obj
 0001:0000c080       $$000000                   1000d080     LIBCMT:sehprolg4.obj
 0001:0000c0db       ___get_entropy             1000d0db f   LIBCMT:gs_support.obj
 0001:0000c3d2       ??$GetProcAddressAll@P6GP6GJPAUHWND__@@IIJ@ZPAUAtlThunkData_t@@@Z@@YAP6GP6GJPAUHWND__@@IIJ@ZPAUAtlThunkData_t@@@ZPAP6GP6GJ0IIJ@Z1@Z@Z 1000d3d2 f   atls:atlthunk.obj
 0001:0000c3d2       ??$GetProcAddressAll@P6GPAUAtlThunkData_t@@XZ@@YAP6GPAUAtlThunkData_t@@XZPAP6GPAU0@XZ@Z 1000d3d2 f   atls:atlthunk.obj
 0001:0000c3d2       ??$GetProcAddressAll@P6GXPAUAtlThunkData_t@@@Z@@YAP6GXPAUAtlThunkData_t@@@ZPAP6GX0@Z@Z 1000d3d2 f   atls:atlthunk.obj
 0001:0000c3d2       ??$GetProcAddressAll@P6GXPAUAtlThunkData_t@@PAXI@Z@@YAP6GXPAUAtlThunkData_t@@PAXI@ZPAP6GX01I@Z@Z 1000d3d2 f   atls:atlthunk.obj
 0001:0000c482       ?GetProcAddressSingle@@YA_NPAUHINSTANCE__@@PBDPAPAX@Z 1000d482 f   atls:atlthunk.obj
 0001:0000c5d4       ?__InitializeThunkPool@@YAHXZ 1000d5d4 f   atls:atlthunk.obj
 0001:0000ca20       _ValidateLocalCookies      1000da20 f   libvcruntime:chandler4.obj
 0001:0000da4a       $LN1250                    1000ea4a     libvcruntime:memcmp.obj
 0001:0000dad0       $$000000                   1000ead0     libvcruntime:memcpy.obj
 0001:0000dd34       TrailingUpVec              1000ed34     libvcruntime:memcpy.obj
 0001:0000dde0       TrailingDownVec            1000ede0     libvcruntime:memcpy.obj
 0001:0000e050       $$000000                   1000f050     libvcruntime:memset.obj
 0001:0000e653       ?_FilterSetCurrentException@@YAKPAU_EXCEPTION_POINTERS@@E@Z 1000f653 f   libvcruntime:ehhelpers.obj
 0001:0000e8a0       $$000000                   1000f8a0     libvcruntime:memmove.obj
 0001:0000eb04       TrailingUpVec              1000fb04     libvcruntime:memmove.obj
 0001:0000ebb0       TrailingDownVec            1000fbb0     libvcruntime:memmove.obj
 0001:0000ee20       $$000000                   1000fe20     libvcruntime:exsup4.obj
 0001:0000eead       __unwind_handler4          1000fead f   libvcruntime:exsup4.obj
 0001:0000f18b       ??$BuildCatchObjectHelperInternal@V__FrameHandler3@@@@YAHPAUEHExceptionRecord@@PAXPBU_s_HandlerType@@PBU_s_CatchableType@@@Z 1001018b f   libvcruntime:frame.obj
 0001:0000f2c9       ??$BuildCatchObjectInternal@V__FrameHandler3@@@@YAXPAUEHExceptionRecord@@PAXPBU_s_HandlerType@@PBU_s_CatchableType@@@Z 100102c9 f   libvcruntime:frame.obj
 0001:0000f362       ??$CatchIt@V__FrameHandler3@@@@YAXPAUEHExceptionRecord@@PAUEHRegistrationNode@@PAU_CONTEXT@@PAXPBU_s_FuncInfo@@PBU_s_HandlerType@@PBU_s_CatchableType@@PBU_s_TryBlockMapEntry@@H1EE@Z 10010362 f   libvcruntime:frame.obj
 0001:0000f3e2       ??$FindHandler@V__FrameHandler3@@@@YAXPAUEHExceptionRecord@@PAUEHRegistrationNode@@PAU_CONTEXT@@PAXPBU_s_FuncInfo@@EH1@Z 100103e2 f   libvcruntime:frame.obj
 0001:0000f798       ??$FindHandlerForForeignException@V__FrameHandler3@@@@YAXPAUEHExceptionRecord@@PAUEHRegistrationNode@@PAU_CONTEXT@@PAXPBU_s_FuncInfo@@HH1@Z 10010798 f   libvcruntime:frame.obj
 0001:0000fab0       ?CallCatchBlock@@YAPAXPAUEHExceptionRecord@@PAUEHRegistrationNode@@PAU_CONTEXT@@PBU_s_FuncInfo@@PAXHK@Z 10010ab0 f   libvcruntime:frame.obj
 0001:0000fc74       ?CallUnexpected@@YAXPBU_s_ESTypeList@@@Z 10010c74 f   libvcruntime:frame.obj
 0001:0000fc94       __catch$?CallUnexpected@@YAXPBU_s_ESTypeList@@@Z$0 10010c94 f   libvcruntime:frame.obj
 0001:0000fcb3       ?ExFilterRethrow@@YAHPAU_EXCEPTION_POINTERS@@@Z 10010cb3 f   libvcruntime:frame.obj
 0001:0000fdfd       ?IsInExceptionSpec@@YAEPAUEHExceptionRecord@@PBU_s_ESTypeList@@@Z 10010dfd f   libvcruntime:frame.obj
 0001:0000fed0       $$000000                   10010ed0     libvcruntime:lowhelpr.obj
 0001:0000ff20       $$000000                   10010f20     libvcruntime:exsup.obj
 0001:0000ff41       __unwind_handler           10010f41 f   libvcruntime:exsup.obj
 0001:0001005e       ?try_get_first_available_module@@YAPAUHINSTANCE__@@QBW4module_id@?A0xb97aeec8@@0@Z 1001105e f   libvcruntime:winapi_downlevel.obj
 0001:000100f8       ?try_get_function@@YAPAXW4function_id@?A0xb97aeec8@@QBDQBW4module_id@2@2@Z 100110f8 f   libvcruntime:winapi_downlevel.obj
 0001:00010782       ??$common_tcsncpy_s@_W@@YAHQA_WIQB_WI@Z 10011782 f   libucrt:wcsncpy_s.obj
 0001:00010858       ??$common_vsprintf@Vformat_validation_base@__crt_stdio_output@@_W@@YAH_KQA_WIQB_WQAU__crt_locale_pointers@@QAD@Z 10011858 f   libucrt:output.obj
 0001:000109df       ??$common_vsprintf_s@_W@@YAH_KQA_WIQB_WQAU__crt_locale_pointers@@QAD@Z 100119df f   libucrt:output.obj
 0001:00011143       $LN48                      10012143     libucrt:output.obj
 0001:0001164c       $LN18                      1001264c     libucrt:output.obj
 0001:00011660       $LN17                      10012660     libucrt:output.obj
 0001:00011ebb       ??$?RV<lambda_03b1d95aef87969028cfba75ccab2455>@@AAV<lambda_6e4b09c48022b2350581041d5f6b0c4c>@@V<lambda_22bdf7517842c4b3e53723af5aa32b9e>@@@?$__crt_seh_guarded_call@X@@QAEX$$QAV<lambda_03b1d95aef87969028cfba75ccab2455>@@AAV<lambda_6e4b09c48022b2350581041d5f6b0c4c>@@$$QAV<lambda_22bdf7517842c4b3e53723af5aa32b9e>@@@Z 10012ebb f   libucrt:exit.obj
 0001:00011f08       ??R<lambda_6e4b09c48022b2350581041d5f6b0c4c>@@QBE@XZ 10012f08 f   libucrt:exit.obj
 0001:00011fe2       ?atexit_exception_filter@@YAHK@Z 10012fe2 f   libucrt:exit.obj
 0001:00011ff5       ?common_exit@@YAXHW4_crt_exit_cleanup_mode@@W4_crt_exit_return_mode@@@Z 10012ff5 f   libucrt:exit.obj
 0001:00012059       ?exit_or_terminate_process@@YAXI@Z 10013059 f   libucrt:exit.obj
 0001:0001209b       ?is_managed_app@@YA_NXZ    1001309b f   libucrt:exit.obj
 0001:000120de       ?try_cor_exit_process@@YAXI@Z 100130de f   libucrt:exit.obj
 0001:0001216c       ??$common_configure_argv@D@@YAHW4_crt_argv_mode@@@Z 1001316c f   libucrt:argv_parsing.obj
 0001:000122a2       ??$parse_command_line@D@@YAXPADPAPAD0PAI2@Z 100132a2 f   libucrt:argv_parsing.obj
 0001:00012470       ??$common_initialize_environment_nolock@D@@YAHXZ 10013470 f   libucrt:environment_initialization.obj
 0001:000124c3       ??$create_environment@D@@YAQAPADQAD@Z 100134c3 f   libucrt:environment_initialization.obj
 0001:00012593       ??$free_environment@D@@YAXQAPAD@Z 10013593 f   libucrt:environment_initialization.obj
 0001:00012593       ??$free_environment@_W@@YAXQAPA_W@Z 10013593 f   libucrt:environment_initialization.obj
 0001:000125eb       ??$uninitialize_environment_internal@D@@YAXAAPAPAD@Z 100135eb f   libucrt:environment_initialization.obj
 0001:00012606       ??$uninitialize_environment_internal@_W@@YAXAAPAPA_W@Z 10013606 f   libucrt:environment_initialization.obj
 0001:0001265d       ??$?RV<lambda_69a2805e680e0e292e8ba93315fe43a8>@@AAV<lambda_f03950bc5685219e0bcd2087efbe011e>@@V<lambda_03fcd07e894ec930e3f35da366ca99d6>@@@?$__crt_seh_guarded_call@H@@QAEH$$QAV<lambda_69a2805e680e0e292e8ba93315fe43a8>@@AAV<lambda_f03950bc5685219e0bcd2087efbe011e>@@$$QAV<lambda_03fcd07e894ec930e3f35da366ca99d6>@@@Z 1001365d f   libucrt:onexit.obj
 0001:000126b8       ??$?RV<lambda_8e746cf0007f6ed984d6f78af1fec997>@@AAV<lambda_22ebabd17bc4fa466a2aca6d8deb888d>@@V<lambda_18ed0c0b38a6dc0daf1e7ac6d6adf05e>@@@?$__crt_seh_guarded_call@H@@QAEH$$QAV<lambda_8e746cf0007f6ed984d6f78af1fec997>@@AAV<lambda_22ebabd17bc4fa466a2aca6d8deb888d>@@$$QAV<lambda_18ed0c0b38a6dc0daf1e7ac6d6adf05e>@@@Z 100136b8 f   libucrt:onexit.obj
 0001:00012732       ??R<lambda_22ebabd17bc4fa466a2aca6d8deb888d>@@QBEHXZ 10013732 f   libucrt:onexit.obj
 0001:0001285b       ??R<lambda_f03950bc5685219e0bcd2087efbe011e>@@QBEHXZ 1001385b f   libucrt:onexit.obj
 0001:000129d4       _initialize_global_variables 100139d4 f   libucrt:initialization.obj
 0001:000129e1       _initialize_c              100139e1 f   libucrt:initialization.obj
 0001:000129fb       _initialize_environment    100139fb f   libucrt:initialization.obj
 0001:000129fb       _initialize_global_state_isolation 100139fb f   libucrt:initialization.obj
 0001:000129fb       _report_memory_leaks       100139fb f   libucrt:initialization.obj
 0001:000129fb       _uninitialize_c            100139fb f   libucrt:initialization.obj
 0001:000129fb       _uninitialize_global_state_isolation 100139fb f   libucrt:initialization.obj
 0001:000129fe       _uninitialize_environment  100139fe f   libucrt:initialization.obj
 0001:00012a06       _initialize_pointers       10013a06 f   libucrt:initialization.obj
 0001:00012a34       _uninitialize_vcruntime    10013a34 f   libucrt:initialization.obj
 0001:00012a3d       _uninitialize_allocated_memory 10013a3d f   libucrt:initialization.obj
 0001:00012a54       _uninitialize_allocated_io_buffers 10013a54 f   libucrt:initialization.obj
 0001:00012aa4       ??R<lambda_af42a3ee9806e9a7305d451646e05244>@@QBEXAAPAU__crt_multibyte_data@@@Z 10013aa4 f   libucrt:initialization.obj
 0001:00013390       $$000000                   10014390     libucrt:strncmp.obj
 0001:0001347c       ??$?RV<lambda_15ade71b0218206bbe3333a0c9b79046>@@AAV<lambda_da44e0f8b0f19ba52fefafb335991732>@@V<lambda_207f2d024fc103971653565357d6cd41>@@@?$__crt_seh_guarded_call@X@@QAEX$$QAV<lambda_15ade71b0218206bbe3333a0c9b79046>@@AAV<lambda_da44e0f8b0f19ba52fefafb335991732>@@$$QAV<lambda_207f2d024fc103971653565357d6cd41>@@@Z 1001447c f   libucrt:per_thread_data.obj
 0001:000134ce       ??$?RV<lambda_38edbb1296d33220d7e4dd0ed76b244a>@@AAV<lambda_5ce1d447e08cb34b2473517608e21441>@@V<lambda_fb385d3da700c9147fc39e65dd577a8c>@@@?$__crt_seh_guarded_call@X@@QAEX$$QAV<lambda_38edbb1296d33220d7e4dd0ed76b244a>@@AAV<lambda_5ce1d447e08cb34b2473517608e21441>@@$$QAV<lambda_fb385d3da700c9147fc39e65dd577a8c>@@@Z 100144ce f   libucrt:per_thread_data.obj
 0001:00013539       ??$?RV<lambda_6affb1475c98b40b75cdec977db92e3c>@@AAV<lambda_b8d4b9c228a6ecc3f80208dbb4b4a104>@@V<lambda_608742c3c92a14382c1684fc64f96c88>@@@?$__crt_seh_guarded_call@X@@QAEX$$QAV<lambda_6affb1475c98b40b75cdec977db92e3c>@@AAV<lambda_b8d4b9c228a6ecc3f80208dbb4b4a104>@@$$QAV<lambda_608742c3c92a14382c1684fc64f96c88>@@@Z 10014539 f   libucrt:per_thread_data.obj
 0001:0001358e       ??$?RV<lambda_a7e850c220f1c8d1e6efeecdedd162c6>@@AAV<lambda_46720907175c18b6c9d2717bc0d2d362>@@V<lambda_9048902d66e8d99359bc9897bbb930a8>@@@?$__crt_seh_guarded_call@X@@QAEX$$QAV<lambda_a7e850c220f1c8d1e6efeecdedd162c6>@@AAV<lambda_46720907175c18b6c9d2717bc0d2d362>@@$$QAV<lambda_9048902d66e8d99359bc9897bbb930a8>@@@Z 1001458e f   libucrt:per_thread_data.obj
 0001:000135e8       ?construct_ptd@@YAXQAU__acrt_ptd@@QAPAU__crt_locale_data@@@Z 100145e8 f   libucrt:per_thread_data.obj
 0001:00013681       ?destroy_fls@@YGXPAX@Z     10014681 f   libucrt:per_thread_data.obj
 0001:000136a2       ?destroy_ptd@@YAXQAU__acrt_ptd@@@Z 100146a2 f   libucrt:per_thread_data.obj
 0001:0001376f       ?replace_current_thread_locale_nolock@@YAXQAU__acrt_ptd@@QAU__crt_locale_data@@@Z 1001476f f   libucrt:per_thread_data.obj
 0001:00013b7f       ?try_get_AreFileApisANSI@@YAP6GHXZXZ 10014b7f f   libucrt:winapi_thunks.obj
 0001:00013b99       ?try_get_LCMapStringEx@@YAP6GHPB_WK0HPA_WHPAU_nlsversioninfo@@PAXJ@ZXZ 10014b99 f   libucrt:winapi_thunks.obj
 0001:00013bb3       ?try_get_LocaleNameToLCID@@YAP6GKPB_WK@ZXZ 10014bb3 f   libucrt:winapi_thunks.obj
 0001:00013bcd       ?try_get_first_available_module@@YAPAUHINSTANCE__@@QBW4module_id@?A0x391cf84c@@0@Z 10014bcd f   libucrt:winapi_thunks.obj
 0001:00013c94       ?try_get_function@@YAPAXW4function_id@?A0x391cf84c@@QBDQBW4module_id@2@2@Z 10014c94 f   libucrt:winapi_thunks.obj
 0001:000143f7       ?fe_to_nearest@@YA_NQBN_KF@Z 100153f7 f   libucrt:cvt.obj
 0001:0001449a       ?fp_format_a@@YAHQBNPADIQADIH_NIQAU__crt_locale_pointers@@W4__acrt_rounding_mode@@@Z 1001549a f   libucrt:cvt.obj
 0001:000147a9       ?fp_format_e@@YAHQBNQADI1IH_NIQAU__crt_locale_pointers@@W4__acrt_rounding_mode@@@Z 100157a9 f   libucrt:cvt.obj
 0001:00014851       ?fp_format_e_internal@@YAHQADIH_NIQAU_strflt@@1QAU__crt_locale_pointers@@@Z 10015851 f   libucrt:cvt.obj
 0001:00014999       ?fp_format_f@@YAHQBNQADI1IHQAU__crt_locale_pointers@@W4__acrt_rounding_mode@@@Z 10015999 f   libucrt:cvt.obj
 0001:00014a2a       ?fp_format_f_internal@@YAHQADIHQAU_strflt@@_NQAU__crt_locale_pointers@@@Z 10015a2a f   libucrt:cvt.obj
 0001:00014b22       ?fp_format_g@@YAHQBNQADI1IH_NIQAU__crt_locale_pointers@@@Z 10015b22 f   libucrt:cvt.obj
 0001:00014beb       ?fp_format_nan_or_infinity@@YAHW4__acrt_fp_class@@_NPADI1@Z 10015beb f   libucrt:cvt.obj
 0001:00014c80       ?shift_bytes@@YAXQADI0H@Z  10015c80 f   libucrt:cvt.obj
 0001:00014cb4       ?should_round_up@@YA_NQBN_KFW4__acrt_rounding_mode@@@Z 10015cb4 f   libucrt:cvt.obj
 0001:0001501d       ??$?RV<lambda_e5124f882df8998aaf41531e079ba474>@@AAV<lambda_3e16ef9562a7dcce91392c22ab16ea36>@@V<lambda_e25ca0880e6ef98be67edffd8c599615>@@@?$__crt_seh_guarded_call@X@@QAEX$$QAV<lambda_e5124f882df8998aaf41531e079ba474>@@AAV<lambda_3e16ef9562a7dcce91392c22ab16ea36>@@$$QAV<lambda_e25ca0880e6ef98be67edffd8c599615>@@@Z 1001601d f   libucrt:wsetlocale.obj
 0001:000150bd       ?initialize_inherited_file_handles_nolock@@YAXXZ 100160bd f   libucrt:ioinit.obj
 0001:00015173       ?initialize_stdio_handles_nolock@@YAXXZ 10016173 f   libucrt:ioinit.obj
 0001:00015384       ?<lambda_invoker_cdecl>@<lambda_838c7f62c73c983481e27c09e84b0b5d>@@CAHPBX0@Z 10016384 f   libucrt:argv_wildcards.obj
 0001:0001539c       ??$__acrt_convert_wcs_mbs_cp@D_WV<lambda_62f6974d9771e494a5ea317cc32e971c>@@U__crt_win32_buffer_internal_dynamic_resizing@@@@YAHQBDAAV?$__crt_win32_buffer@_WU__crt_win32_buffer_internal_dynamic_resizing@@@@ABV<lambda_62f6974d9771e494a5ea317cc32e971c>@@I@Z 1001639c f   libucrt:argv_wildcards.obj
 0001:0001544e       ??$__acrt_convert_wcs_mbs_cp@_WDV<lambda_28bda7af82a03b66c1cb3803a755f95d>@@U__crt_win32_buffer_internal_dynamic_resizing@@@@YAHQB_WAAV?$__crt_win32_buffer@DU__crt_win32_buffer_internal_dynamic_resizing@@@@ABV<lambda_28bda7af82a03b66c1cb3803a755f95d>@@I@Z 1001644e f   libucrt:argv_wildcards.obj
 0001:0001553a       ??$common_expand_argv_wildcards@D@@YAHQAPADQAPAPAD@Z 1001653a f   libucrt:argv_wildcards.obj
 0001:00015729       ??$copy_and_add_argument_to_buffer@D@@YAHQBD0IAAV?$argument_list@D@?A0x5f5c8891@@@Z 10016729 f   libucrt:argv_wildcards.obj
 0001:000157da       ??$expand_argument_wildcards@D@@YAHQAD0AAV?$argument_list@D@?A0x5f5c8891@@@Z 100167da f   libucrt:argv_wildcards.obj
 0001:00015b24       ?expand_if_necessary@?$argument_list@D@?A0x5f5c8891@@AAEHXZ 10016b24 f   libucrt:argv_wildcards.obj
 0001:00015bb6       ??$__acrt_convert_wcs_mbs_cp@_WDV<lambda_0fec1a7b3f42a53036604e18c2d5e07e>@@U__crt_win32_buffer_no_resizing@@@@YAHQB_WAAV?$__crt_win32_buffer@DU__crt_win32_buffer_no_resizing@@@@ABV<lambda_0fec1a7b3f42a53036604e18c2d5e07e>@@I@Z 10016bb6 f   libucrt:getmodulefilenamea.obj
 0001:00015d59       ??$?RV<lambda_ceb1ee4838e85a9d631eb091e2fbe199>@@AAV<lambda_ae742caa10f662c28703da3d2ea5e57e>@@V<lambda_cd08b5d6af4937fe54fc07d0c9bf6b37>@@@?$__crt_seh_guarded_call@X@@QAEX$$QAV<lambda_ceb1ee4838e85a9d631eb091e2fbe199>@@AAV<lambda_ae742caa10f662c28703da3d2ea5e57e>@@$$QAV<lambda_cd08b5d6af4937fe54fc07d0c9bf6b37>@@@Z 10016d59 f   libucrt:mbctype.obj
 0001:00015da6       ??R<lambda_ae742caa10f662c28703da3d2ea5e57e>@@QBEXXZ 10016da6 f   libucrt:mbctype.obj
 0001:00015e29       ?CPtoLocaleName@@YAPB_WH@Z 10016e29 f   libucrt:mbctype.obj
 0001:00015e67       ?getSystemCP@@YAHH@Z       10016e67 f   libucrt:mbctype.obj
 0001:00015ed8       ?setSBCS@@YAXPAU__crt_multibyte_data@@@Z 10016ed8 f   libucrt:mbctype.obj
 0001:00015f3d       ?setSBUpLow@@YAXPAU__crt_multibyte_data@@@Z 10016f3d f   libucrt:mbctype.obj
 0001:000160bd       ?setmbcp_internal@@YAHH_NQAU__acrt_ptd@@QAPAU__crt_multibyte_data@@@Z 100170bd f   libucrt:mbctype.obj
 0001:000161d1       ?update_thread_multibyte_data_internal@@YAPAU__crt_multibyte_data@@QAU__acrt_ptd@@QAPAU1@@Z 100171d1 f   libucrt:mbctype.obj
 0001:000164bf       _memcpy_s                  100174bf f   libucrt:cfout.obj
 0001:000164bf       _memcpy_s                  100174bf f   libucrt:mbctype.obj
 0001:00016540       ?x_ismbbtype_l@@YAHPAU__crt_locale_pointers@@IHH@Z 10017540 f   libucrt:ismbbyte.obj
 0001:000166fb       ?find_end_of_double_null_terminated_sequence@@YAPB_WQB_W@Z 100176fb f   libucrt:get_environment_from_os.obj
 0001:0001686a       ??$?RV<lambda_cbab9ec6f41b0180b23cc171c22676b0>@@AAV<lambda_44731a7d0e6d81c3e6aa82d741081786>@@V<lambda_4b292cb8dd18144e164572427af410ab>@@@?$__crt_seh_guarded_call@P6AXH@Z@@QAEP6AXH@Z$$QAV<lambda_cbab9ec6f41b0180b23cc171c22676b0>@@AAV<lambda_44731a7d0e6d81c3e6aa82d741081786>@@$$QAV<lambda_4b292cb8dd18144e164572427af410ab>@@@Z 1001786a f   libucrt:signal.obj
 0001:000168ce       ?get_global_action_nolock@@YAPAP6AXH@ZH@Z 100178ce f   libucrt:signal.obj
 0001:00016910       ?siglookup@@YAPAU__crt_signal_action_t@@HQAU1@@Z 10017910 f   libucrt:signal.obj
 0001:00016bc9       ??$?RV<lambda_2866be3712abc81a800a822484c830d8>@@AAV<lambda_39ca0ed439415581b5b15c265174cece>@@V<lambda_2b24c74d71094a6cd0cb82e44167d71b>@@@?$__crt_seh_guarded_call@X@@QAEX$$QAV<lambda_2866be3712abc81a800a822484c830d8>@@AAV<lambda_39ca0ed439415581b5b15c265174cece>@@$$QAV<lambda_2b24c74d71094a6cd0cb82e44167d71b>@@@Z 10017bc9 f   libucrt:fflush.obj
 0001:00016c55       ??$?RV<lambda_2cc53f568c5a2bb6f192f930a45d44ea>@@AAV<lambda_ab61a845afdef5b7c387490eaf3616ee>@@V<lambda_c2ffc0b7726aa6be21d5f0026187e748>@@@?$__crt_seh_guarded_call@X@@QAEX$$QAV<lambda_2cc53f568c5a2bb6f192f930a45d44ea>@@AAV<lambda_ab61a845afdef5b7c387490eaf3616ee>@@$$QAV<lambda_c2ffc0b7726aa6be21d5f0026187e748>@@@Z 10017c55 f   libucrt:fflush.obj
 0001:00016d01       ?common_flush_all@@YAH_N@Z 10017d01 f   libucrt:fflush.obj
 0001:00016d4e       ?common_flush_all_should_try_to_flush_stream@@YA_NV__crt_stdio_stream@@QAH@Z 10017d4e f   libucrt:fflush.obj
 0001:00016d81       ?is_stream_flushable_or_commitable@@YA_NJ@Z 10017d81 f   libucrt:fflush.obj
 0001:0001728a       ?GetTableIndexFromLocaleName@@YAHPB_W@Z 1001828a f   libucrt:lcidtoname_downlevel.obj
 0001:00017340       ??R<lambda_3d301b9e52f5099be73030e1f0bf487e>@@QBEIPBD@Z 10018340 f   libucrt:mbrtowc.obj
 0001:000174c6       ?should_round_up@@YA_NQBDHW4__acrt_has_trailing_digits@@W4__acrt_rounding_mode@@@Z 100184c6 f   libucrt:_fptostr.obj
 0001:00019264       ?free_crt_array_internal@@YAXQAPBXI@Z 1001a264 f   libucrt:inittime.obj
 0001:00019c2e       ??$common_tcsncpy_s@D@@YAHQADIQBDI@Z 1001ac2e f   libucrt:strncpy_s.obj
 0001:00019cf0       $$000000                   1001acf0     libucrt:strpbrk.obj
 0001:00019dd4       ?__acrt_LCMapStringA_stat@@YAHPAU__crt_locale_pointers@@PB_WKPBDHPADHHH@Z 1001add4 f   libucrt:lcmapstringa.obj
 0001:0001a007       ?initialize_multibyte@@YAHXZ 1001b007 f   libucrt:multibyte_initializer.obj
 0001:0001a016       ??$?RV<lambda_9e9de3de5fa147e2223d7db92bc10aa6>@@AAV<lambda_38ce7e780aa69e748d6df282ebc68efe>@@V<lambda_8ca6da459f0f6780f1cff60fdc3d00e5>@@@?$__crt_seh_guarded_call@H@@QAEH$$QAV<lambda_9e9de3de5fa147e2223d7db92bc10aa6>@@AAV<lambda_38ce7e780aa69e748d6df282ebc68efe>@@$$QAV<lambda_8ca6da459f0f6780f1cff60fdc3d00e5>@@@Z 1001b016 f   libucrt:commit.obj
 0001:0001a135       ?write_double_translated_ansi_nolock@@YA?AUwrite_result@?A0x17268360@@HQBDI@Z 1001b135 f   libucrt:write.obj
 0001:0001a4e1       ?write_double_translated_unicode_nolock@@YA?AUwrite_result@?A0x17268360@@QBDI@Z 1001b4e1 f   libucrt:write.obj
 0001:0001a549       ?write_requires_double_translation_nolock@@YA_NH@Z 1001b549 f   libucrt:write.obj
 0001:0001a5ba       ?write_text_ansi_nolock@@YA?AUwrite_result@?A0x17268360@@HQBDI@Z 1001b5ba f   libucrt:write.obj
 0001:0001a695       ?write_text_utf16le_nolock@@YA?AUwrite_result@?A0x17268360@@HQBDI@Z 1001b695 f   libucrt:write.obj
 0001:0001a77e       ?write_text_utf8_nolock@@YA?AUwrite_result@?A0x17268360@@HQBDI@Z 1001b77e f   libucrt:write.obj
 0001:0001aea0       $$000000                   1001bea0     libucrt:log10_impl.obj
 0001:0001afb0       $$000000                   1001bfb0     libucrt:ceil_pentium4.obj
 0001:0001b0cd       ?to_abstract_control@@YA?AW4__acrt_fenv_abstract_control@@W4__acrt_fenv_machine_sse_control@@@Z 1001c0cd f   libucrt:_fenvutils.obj
 0001:0001b189       ?to_abstract_control@@YA?AW4__acrt_fenv_abstract_control@@W4__acrt_fenv_machine_x87_control@@@Z 1001c189 f   libucrt:_fenvutils.obj
 0001:0001b242       ?to_machine_sse_control@@YA?AW4__acrt_fenv_machine_sse_control@@W4__acrt_fenv_abstract_control@@@Z 1001c242 f   libucrt:_fenvutils.obj
 0001:0001b30f       ?to_machine_x87_control@@YA?AW4__acrt_fenv_machine_x87_control@@W4__acrt_fenv_abstract_control@@@Z 1001c30f f   libucrt:_fenvutils.obj
 0001:0001b6a3       ??$common_lseek_nolock@_J@@YA_JH_JH@Z 1001c6a3 f   libucrt:lseek.obj
 0001:0001b889       ___hw_cw_sse2              1001c889 f   libucrt:ieee87.obj
 0001:0001bd0f       __hw_cw                    1001cd0f f   libucrt:ieee87.obj
 0001:0001bdc0       $$000000                   1001cdc0     libucrt:log10_pentium4.obj
 0001:0001c050       $$000000                   1001d050     libucrt:87tran.obj
 0001:0001c260       $$000000                   1001d260     libucrt:87disp.obj
 0001:0001c4c0       $$000000                   1001d4c0     libucrt:common.obj
 0001:0001c650       $$000000                   1001d650     libucrt:genexcep.obj
 0001:0001c94c       ??$?RV<lambda_218ce3db14220d0be481dae8ef3383b6>@@AAV<lambda_628dfdc04ba53c8bfc02c9951375f3f5>@@V<lambda_57dc472bd5c9d5f3b2cbca59b8a843ae>@@@?$__crt_seh_guarded_call@H@@QAEH$$QAV<lambda_218ce3db14220d0be481dae8ef3383b6>@@AAV<lambda_628dfdc04ba53c8bfc02c9951375f3f5>@@$$QAV<lambda_57dc472bd5c9d5f3b2cbca59b8a843ae>@@@Z 1001d94c f   libucrt:close.obj
 0001:0001cb40       $$000000                   1001db40     libucrt:_strnicm.obj
 0001:0001cba1       ?__dcrt_lowio_initialize_console_output@@YAXXZ 1001dba1 f   libucrt:initcon.obj
 0001:0001da80       $$000000                   1001ea80     LIBCMT:ulldvrm.obj
 0001:0001db20       $$000000                   1001eb20     LIBCMT:llmul.obj
 0001:0001db60       $$000000                   1001eb60     LIBCMT:lldvrm.obj
 0001:0001dc40       $$000000                   1001ec40     LIBCMT:llshl.obj
 0001:0001dc60       $$000000                   1001ec60     LIBCMT:ullshr.obj
 0001:0001dc80       $$000000                   1001ec80     LIBCMT:ftol2.obj
 0001:0001df20       $$000000                   1001ef20     libvcruntime:strrchr.obj
 0001:0001e060       $$000000                   1001f060     libvcruntime:strchr.obj
 0001:0001e203       __ehhandler$??2@YAPAXIABUnothrow_t@std@@@Z 1001f203 f   LIBCMT:new_scalar_nothrow.obj
 0001:0001e220       __ehhandler$?CallUnexpected@@YAXPBU_s_ESTypeList@@@Z 1001f220 f   libvcruntime:frame.obj
 0001:0001e23d       ??__F_AtlComModule@ATL@@YAXXZ 1001f23d f   OposVariant.obj
 0001:0001e247       ??__F_AtlWinModule@ATL@@YAXXZ 1001f247 f   OposVariant.obj
 0001:0001e261       ??__F_Module@@YAXXZ        1001f261 f   IndividualRecognition.obj
 0001:0001e275       ??__F_AtlBaseModule@ATL@@YAXXZ 1001f275 f   atls:atlbase.obj
 0002:00000304       ?_AtlBaseModule$initializer$@ATL@@3P6AXXZA 10020304     atls:atlbase.obj
 0002:00000308       ?_AtlComModule$initializer$@ATL@@3P6AXXZA 10020308     OposVariant.obj
 0002:0000030c       ?_AtlWinModule$initializer$@ATL@@3P6AXXZA 1002030c     OposVariant.obj
 0002:00000310       ?_Module$initializer$@@3P6AXXZA 10020310     IndividualRecognition.obj
 0002:00000314       ??pConnMap$initializer$@?$IConnectionPointContainerImpl@VCOPOSIndividualRecognition@@@ATL@@0P6AXXZA@@3P6AXXZA 10020314     IndividualRecognition.obj
 0002:00000320       ?__scrt_initialize_tss_var@@3P6AHXZA 10020320     LIBCMT:thread_safe_statics.obj
 0002:000017b8       _GS_ExceptionPointers      100217b8     LIBCMT:gs_report.obj
 0002:00001948       ?tokenTable@@3QBUStringLiteral@@B 10021948     libvcruntime:undname.obj
 0002:000019c8       ?nameTable@@3QBUStringLiteral@@B 100219c8     libvcruntime:undname.obj
 0002:00001c60       ?rttiTable@@3QBUStringLiteral@@B 10021c60     libvcruntime:undname.obj
 0002:00001c88       ?IndirectionName@@3QBUStringLiteral@@B 10021c88     libvcruntime:undname.obj
 0002:00001cb8       ?PrefixName@@3QBUStringLiteral@@B 10021cb8     libvcruntime:undname.obj
 0002:000022e8       ?module_names@?A0xb97aeec8@@3QBQB_WB 100222e8     libvcruntime:winapi_downlevel.obj
 0002:00002390       ?candidate_modules@?1??try_get_FlsAlloc@@YAP6GKP6GXPAX@Z@ZXZ@4QBW4module_id@?A0xb97aeec8@@B 10022390     libvcruntime:winapi_downlevel.obj
 0002:000023a4       ?candidate_modules@?1??try_get_FlsFree@@YAP6GHK@ZXZ@4QBW4module_id@?A0xb97aeec8@@B 100223a4     libvcruntime:winapi_downlevel.obj
 0002:000023b4       ?candidate_modules@?1??try_get_FlsGetValue@@YAP6GPAXK@ZXZ@4QBW4module_id@?A0xb97aeec8@@B 100223b4     libvcruntime:winapi_downlevel.obj
 0002:000023c8       ?candidate_modules@?1??try_get_FlsSetValue@@YAP6GHKPAX@ZXZ@4QBW4module_id@?A0xb97aeec8@@B 100223c8     libvcruntime:winapi_downlevel.obj
 0002:000023dc       ?candidate_modules@?1??try_get_InitializeCriticalSectionEx@@YAP6GHPAU_RTL_CRITICAL_SECTION@@KK@ZXZ@4QBW4module_id@?A0xb97aeec8@@B 100223dc     libvcruntime:winapi_downlevel.obj
 0002:00002400       ?errtable@@3QBUerrentry@?A0x31fdb9ec@@B 10022400     libucrt:errno.obj
 0002:00002a48       ___acrt_initializers       10022a48     libucrt:initialization.obj
 0002:00002ac8       ?module_names@?A0x391cf84c@@3QBQB_WB 10022ac8     libucrt:winapi_thunks.obj
 0002:00002f40       ?candidate_modules@?1??try_get_AreFileApisANSI@@YAP6GHXZXZ@4QBW4module_id@?A0x391cf84c@@B 10022f40     libucrt:winapi_thunks.obj
 0002:00002f54       ?candidate_modules@?1??try_get_FlsAlloc@@YAP6GKP6GXPAX@Z@ZXZ@4QBW4module_id@?A0x391cf84c@@B 10022f54     libucrt:winapi_thunks.obj
 0002:00002f5c       ?candidate_modules@?1??try_get_FlsFree@@YAP6GHK@ZXZ@4QBW4module_id@?A0x391cf84c@@B 10022f5c     libucrt:winapi_thunks.obj
 0002:00002f64       ?candidate_modules@?1??try_get_FlsGetValue@@YAP6GPAXK@ZXZ@4QBW4module_id@?A0x391cf84c@@B 10022f64     libucrt:winapi_thunks.obj
 0002:00002f6c       ?candidate_modules@?1??try_get_FlsSetValue@@YAP6GHKPAX@ZXZ@4QBW4module_id@?A0x391cf84c@@B 10022f6c     libucrt:winapi_thunks.obj
 0002:00002f74       ?candidate_modules@?1??try_get_InitializeCriticalSectionEx@@YAP6GHPAU_RTL_CRITICAL_SECTION@@KK@ZXZ@4QBW4module_id@?A0x391cf84c@@B 10022f74     libucrt:winapi_thunks.obj
 0002:00002f7c       ?candidate_modules@?1??try_get_LCMapStringEx@@YAP6GHPB_WK0HPA_WHPAU_nlsversioninfo@@PAXJ@ZXZ@4QBW4module_id@?A0x391cf84c@@B 10022f7c     libucrt:winapi_thunks.obj
 0002:00002f94       ?candidate_modules@?1??try_get_LocaleNameToLCID@@YAP6GKPB_WK@ZXZ@4QBW4module_id@?A0x391cf84c@@B 10022f94     libucrt:winapi_thunks.obj
 0002:00002fb0       ?candidate_modules@?1??try_get_AppPolicyGetProcessTerminationMethod@@YAP6GJPAXPAW4AppPolicyProcessTerminationMethod@@@ZXZ@4QBW4module_id@?A0x391cf84c@@B 10022fb0     libucrt:winapi_thunks.obj
 0002:00002fdc       ?candidate_modules@?1??try_get_SetThreadStackGuarantee@@YAP6GHPAK@ZXZ@4QBW4module_id@?A0x391cf84c@@B 10022fdc     libucrt:winapi_thunks.obj
 0002:00003000       ?strings@?1??fp_format_nan_or_infinity@@YAHW4__acrt_fp_class@@_NPADI1@Z@4QAY03QBDA 10023000     libucrt:cvt.obj
 0002:00003548       ?_mb_locale_names@@3QBQB_WB 10023548     libucrt:mbctype.obj
 0002:00003d90       ?LcidToLocaleNameTable@?A0x881e4c05@@3QBULcidToLocaleName@1@B 10023d90     libucrt:lcidtoname_downlevel.obj
 0002:00004eb8       ?LocaleNameToIndexTable@?A0x881e4c05@@3QBULocaleNameIndex@1@B 10024eb8     libucrt:lcidtoname_downlevel.obj
 0002:000067f0       LOG_name                   100267f0     libucrt:log10_impl.obj
 0002:00006800       _One                       10026800     libucrt:ceil_pentium4.obj
 0002:00006810       _Bns                       10026810     libucrt:ceil_pentium4.obj
 0002:00006820       _Zero                      10026820     libucrt:ceil_pentium4.obj
 0002:00006830       _S                         10026830     libucrt:ceil_pentium4.obj
 0002:00006840       _NegZero                   10026840     libucrt:ceil_pentium4.obj
 0002:00006850       emask                      10026850     libucrt:log10_pentium4.obj
 0002:00006860       CC                         10026860     libucrt:log10_pentium4.obj
 0002:00006870       Magic                      10026870     libucrt:log10_pentium4.obj
 0002:00006880       hi_mask                    10026880     libucrt:log10_pentium4.obj
 0002:00006890       LOG10_2                    10026890     libucrt:log10_pentium4.obj
 0002:000068a0       place_L                    100268a0     libucrt:log10_pentium4.obj
 0002:000068c0       One                        100268c0     libucrt:log10_pentium4.obj
 0002:000068d0       Zero                       100268d0     libucrt:log10_pentium4.obj
 0002:000068e0       Two52                      100268e0     libucrt:log10_pentium4.obj
 0002:000068f0       Infs                       100268f0     libucrt:log10_pentium4.obj
 0002:00006900       NaN                        10026900     libucrt:log10_pentium4.obj
 0002:00006910       coeff                      10026910     libucrt:log10_pentium4.obj
 0002:0000696e       _log2max                   1002696e     libucrt:87tran.obj
 0002:00006978       _smallarg                  10026978     libucrt:87tran.obj
 0002:00006982       _half                      10026982     libucrt:87tran.obj
 0002:000069ce       One                        100269ce     libucrt:87disp.obj
 0002:000069d6       Three                      100269d6     libucrt:87disp.obj
 0002:000069de       XAMtoTagTab                100269de     libucrt:87disp.obj
 0002:000069f0       One                        100269f0     libucrt:common.obj
 0002:00006a04       DblMax                     10026a04     libucrt:common.obj
 0002:00006a0c       DblMin                     10026a0c     libucrt:common.obj
 0002:00006a14       IeeeAdjO                   10026a14     libucrt:common.obj
 0002:00006a1c       IeeeAdjU                   10026a1c     libucrt:common.obj
 0002:00006a24       _infinity                  10026a24     libucrt:common.obj
 0002:00006a2c       _zero                      10026a2c     libucrt:common.obj
 0002:00006a78       _over                      10026a78     libucrt:fpctrl.obj
 0002:00006a84       _under                     10026a84     libucrt:fpctrl.obj
 0002:000072b8       ?_names@?1??_get_fname@@9@9 100272b8     libucrt:fpexcept.obj
 0002:00007460       two32                      10027460     LIBCMT:ftol2.obj
 0002:00007464       two63                      10027464     LIBCMT:ftol2.obj
 0002:00007468       _NaN                       10027468     LIBCMT:ftol2.obj
 0002:00007b30       __sehtable$?_AtlVerifyStackAvailable@_ATL_SAFE_ALLOCA_IMPL@ATL@@YA_NK@Z 10027b30     IndividualRecognition.obj
 0002:00007b50       __sehtable$___scrt_is_nonwritable_in_current_image 10027b50     LIBCMT:utility.obj
 0002:00007b6c       __catchsym$??2@YAPAXIABUnothrow_t@std@@@Z$2 10027b6c     LIBCMT:new_scalar_nothrow.obj
 0002:00007b7c       __unwindtable$??2@YAPAXIABUnothrow_t@std@@@Z 10027b7c     LIBCMT:new_scalar_nothrow.obj
 0002:00007b8c       __tryblocktable$??2@YAPAXIABUnothrow_t@std@@@Z 10027b8c     LIBCMT:new_scalar_nothrow.obj
 0002:00007ba0       __ehfuncinfo$??2@YAPAXIABUnothrow_t@std@@@Z 10027ba0     LIBCMT:new_scalar_nothrow.obj
 0002:00007bc8       __sehtable$?dllmain_crt_process_attach@@YAHQAUHINSTANCE__@@QAX@Z 10027bc8     LIBCMT:dll_dllmain.obj
 0002:00007be8       __sehtable$?dllmain_crt_process_detach@@YAH_N@Z 10027be8     LIBCMT:dll_dllmain.obj
 0002:00007c10       __sehtable$?dllmain_dispatch@@YAHQAUHINSTANCE__@@KQAX@Z 10027c10     LIBCMT:dll_dllmain.obj
 0002:00007cc0       __sehtable$___DestructExceptionObject 10027cc0     libvcruntime:ehhelpers.obj
 0002:00007ce0       __sehtable$?FrameUnwindToState@__FrameHandler3@@SAXPAUEHRegistrationNode@@PAXPBU_s_FuncInfo@@H@Z 10027ce0     libvcruntime:frame.obj
 0002:00007d08       __sehtable$?CallCatchBlock@@YAPAXPAUEHExceptionRecord@@PAUEHRegistrationNode@@PAU_CONTEXT@@PBU_s_FuncInfo@@PAXHK@Z 10027d08     libvcruntime:frame.obj
 0002:00007d30       __catchsym$?CallUnexpected@@YAXPBU_s_ESTypeList@@@Z$2 10027d30     libvcruntime:frame.obj
 0002:00007d40       __unwindtable$?CallUnexpected@@YAXPBU_s_ESTypeList@@@Z 10027d40     libvcruntime:frame.obj
 0002:00007d50       __tryblocktable$?CallUnexpected@@YAXPBU_s_ESTypeList@@@Z 10027d50     libvcruntime:frame.obj
 0002:00007d64       __ehfuncinfo$?CallUnexpected@@YAXPBU_s_ESTypeList@@@Z 10027d64     libvcruntime:frame.obj
 0002:00007d88       __sehtable$??$BuildCatchObjectHelperInternal@V__FrameHandler3@@@@YAHPAUEHExceptionRecord@@PAXPBU_s_HandlerType@@PBU_s_CatchableType@@@Z 10027d88     libvcruntime:frame.obj
 0002:00007da8       __sehtable$??$BuildCatchObjectInternal@V__FrameHandler3@@@@YAXPAUEHExceptionRecord@@PAXPBU_s_HandlerType@@PBU_s_CatchableType@@@Z 10027da8     libvcruntime:frame.obj
 0002:00007e00       __sehtable$??R<lambda_6e4b09c48022b2350581041d5f6b0c4c>@@QBE@XZ 10027e00     libucrt:exit.obj
 0002:00007e20       __sehtable$??$?RV<lambda_03b1d95aef87969028cfba75ccab2455>@@AAV<lambda_6e4b09c48022b2350581041d5f6b0c4c>@@V<lambda_22bdf7517842c4b3e53723af5aa32b9e>@@@?$__crt_seh_guarded_call@X@@QAEX$$QAV<lambda_03b1d95aef87969028cfba75ccab2455>@@AAV<lambda_6e4b09c48022b2350581041d5f6b0c4c>@@$$QAV<lambda_22bdf7517842c4b3e53723af5aa32b9e>@@@Z 10027e20     libucrt:exit.obj
 0002:00007e40       __sehtable$??$?RV<lambda_8e746cf0007f6ed984d6f78af1fec997>@@AAV<lambda_22ebabd17bc4fa466a2aca6d8deb888d>@@V<lambda_18ed0c0b38a6dc0daf1e7ac6d6adf05e>@@@?$__crt_seh_guarded_call@H@@QAEH$$QAV<lambda_8e746cf0007f6ed984d6f78af1fec997>@@AAV<lambda_22ebabd17bc4fa466a2aca6d8deb888d>@@$$QAV<lambda_18ed0c0b38a6dc0daf1e7ac6d6adf05e>@@@Z 10027e40     libucrt:onexit.obj
 0002:00007e60       __sehtable$??$?RV<lambda_69a2805e680e0e292e8ba93315fe43a8>@@AAV<lambda_f03950bc5685219e0bcd2087efbe011e>@@V<lambda_03fcd07e894ec930e3f35da366ca99d6>@@@?$__crt_seh_guarded_call@H@@QAEH$$QAV<lambda_69a2805e680e0e292e8ba93315fe43a8>@@AAV<lambda_f03950bc5685219e0bcd2087efbe011e>@@$$QAV<lambda_03fcd07e894ec930e3f35da366ca99d6>@@@Z 10027e60     libucrt:onexit.obj
 0002:00007e80       __sehtable$__query_new_handler 10027e80     libucrt:new_handler.obj
 0002:00007ea0       __sehtable$_terminate      10027ea0     libucrt:terminate.obj
 0002:00007ec0       __sehtable$??$?RV<lambda_15ade71b0218206bbe3333a0c9b79046>@@AAV<lambda_da44e0f8b0f19ba52fefafb335991732>@@V<lambda_207f2d024fc103971653565357d6cd41>@@@?$__crt_seh_guarded_call@X@@QAEX$$QAV<lambda_15ade71b0218206bbe3333a0c9b79046>@@AAV<lambda_da44e0f8b0f19ba52fefafb335991732>@@$$QAV<lambda_207f2d024fc103971653565357d6cd41>@@@Z 10027ec0     libucrt:per_thread_data.obj
 0002:00007ee0       __sehtable$??$?RV<lambda_a7e850c220f1c8d1e6efeecdedd162c6>@@AAV<lambda_46720907175c18b6c9d2717bc0d2d362>@@V<lambda_9048902d66e8d99359bc9897bbb930a8>@@@?$__crt_seh_guarded_call@X@@QAEX$$QAV<lambda_a7e850c220f1c8d1e6efeecdedd162c6>@@AAV<lambda_46720907175c18b6c9d2717bc0d2d362>@@$$QAV<lambda_9048902d66e8d99359bc9897bbb930a8>@@@Z 10027ee0     libucrt:per_thread_data.obj
 0002:00007f00       __sehtable$??$?RV<lambda_38edbb1296d33220d7e4dd0ed76b244a>@@AAV<lambda_5ce1d447e08cb34b2473517608e21441>@@V<lambda_fb385d3da700c9147fc39e65dd577a8c>@@@?$__crt_seh_guarded_call@X@@QAEX$$QAV<lambda_38edbb1296d33220d7e4dd0ed76b244a>@@AAV<lambda_5ce1d447e08cb34b2473517608e21441>@@$$QAV<lambda_fb385d3da700c9147fc39e65dd577a8c>@@@Z 10027f00     libucrt:per_thread_data.obj
 0002:00007f20       __sehtable$??$?RV<lambda_6affb1475c98b40b75cdec977db92e3c>@@AAV<lambda_b8d4b9c228a6ecc3f80208dbb4b4a104>@@V<lambda_608742c3c92a14382c1684fc64f96c88>@@@?$__crt_seh_guarded_call@X@@QAEX$$QAV<lambda_6affb1475c98b40b75cdec977db92e3c>@@AAV<lambda_b8d4b9c228a6ecc3f80208dbb4b4a104>@@$$QAV<lambda_608742c3c92a14382c1684fc64f96c88>@@@Z 10027f20     libucrt:per_thread_data.obj
 0002:00007f40       __sehtable$??$?RV<lambda_e5124f882df8998aaf41531e079ba474>@@AAV<lambda_3e16ef9562a7dcce91392c22ab16ea36>@@V<lambda_e25ca0880e6ef98be67edffd8c599615>@@@?$__crt_seh_guarded_call@X@@QAEX$$QAV<lambda_e5124f882df8998aaf41531e079ba474>@@AAV<lambda_3e16ef9562a7dcce91392c22ab16ea36>@@$$QAV<lambda_e25ca0880e6ef98be67edffd8c599615>@@@Z 10027f40     libucrt:wsetlocale.obj
 0002:00007f60       __sehtable$___acrt_initialize_lowio 10027f60     libucrt:ioinit.obj
 0002:00007f80       __sehtable$?update_thread_multibyte_data_internal@@YAPAU__crt_multibyte_data@@QAU__acrt_ptd@@QAPAU1@@Z 10027f80     libucrt:mbctype.obj
 0002:00007fa0       __sehtable$??$?RV<lambda_ceb1ee4838e85a9d631eb091e2fbe199>@@AAV<lambda_ae742caa10f662c28703da3d2ea5e57e>@@V<lambda_cd08b5d6af4937fe54fc07d0c9bf6b37>@@@?$__crt_seh_guarded_call@X@@QAEX$$QAV<lambda_ceb1ee4838e85a9d631eb091e2fbe199>@@AAV<lambda_ae742caa10f662c28703da3d2ea5e57e>@@$$QAV<lambda_cd08b5d6af4937fe54fc07d0c9bf6b37>@@@Z 10027fa0     libucrt:mbctype.obj
 0002:00007fc0       __sehtable$_raise          10027fc0     libucrt:signal.obj
 0002:00007fe0       __sehtable$??$?RV<lambda_cbab9ec6f41b0180b23cc171c22676b0>@@AAV<lambda_44731a7d0e6d81c3e6aa82d741081786>@@V<lambda_4b292cb8dd18144e164572427af410ab>@@@?$__crt_seh_guarded_call@P6AXH@Z@@QAEP6AXH@Z$$QAV<lambda_cbab9ec6f41b0180b23cc171c22676b0>@@AAV<lambda_44731a7d0e6d81c3e6aa82d741081786>@@$$QAV<lambda_4b292cb8dd18144e164572427af410ab>@@@Z 10027fe0     libucrt:signal.obj
 0002:00008000       __sehtable$??$?RV<lambda_2866be3712abc81a800a822484c830d8>@@AAV<lambda_39ca0ed439415581b5b15c265174cece>@@V<lambda_2b24c74d71094a6cd0cb82e44167d71b>@@@?$__crt_seh_guarded_call@X@@QAEX$$QAV<lambda_2866be3712abc81a800a822484c830d8>@@AAV<lambda_39ca0ed439415581b5b15c265174cece>@@$$QAV<lambda_2b24c74d71094a6cd0cb82e44167d71b>@@@Z 10028000     libucrt:fflush.obj
 0002:00008020       __sehtable$??$?RV<lambda_2cc53f568c5a2bb6f192f930a45d44ea>@@AAV<lambda_ab61a845afdef5b7c387490eaf3616ee>@@V<lambda_c2ffc0b7726aa6be21d5f0026187e748>@@@?$__crt_seh_guarded_call@X@@QAEX$$QAV<lambda_2cc53f568c5a2bb6f192f930a45d44ea>@@AAV<lambda_ab61a845afdef5b7c387490eaf3616ee>@@$$QAV<lambda_c2ffc0b7726aa6be21d5f0026187e748>@@@Z 10028020     libucrt:fflush.obj
 0002:00008040       __sehtable$___acrt_update_thread_locale_data 10028040     libucrt:locale_refcounting.obj
 0002:00008060       __sehtable$__fcloseall     10028060     libucrt:closeall.obj
 0002:00008080       __sehtable$___acrt_lowio_ensure_fh_exists 10028080     libucrt:osfinfo.obj
 0002:000080a0       __sehtable$??$?RV<lambda_9e9de3de5fa147e2223d7db92bc10aa6>@@AAV<lambda_38ce7e780aa69e748d6df282ebc68efe>@@V<lambda_8ca6da459f0f6780f1cff60fdc3d00e5>@@@?$__crt_seh_guarded_call@H@@QAEH$$QAV<lambda_9e9de3de5fa147e2223d7db92bc10aa6>@@AAV<lambda_38ce7e780aa69e748d6df282ebc68efe>@@$$QAV<lambda_8ca6da459f0f6780f1cff60fdc3d00e5>@@@Z 100280a0     libucrt:commit.obj
 0002:000080c0       __sehtable$__write         100280c0     libucrt:write.obj
 0002:000080e0       __sehtable$_fclose         100280e0     libucrt:fclose.obj
 0002:00008100       __sehtable$??$?RV<lambda_218ce3db14220d0be481dae8ef3383b6>@@AAV<lambda_628dfdc04ba53c8bfc02c9951375f3f5>@@V<lambda_57dc472bd5c9d5f3b2cbca59b8a843ae>@@@?$__crt_seh_guarded_call@H@@QAEH$$QAV<lambda_218ce3db14220d0be481dae8ef3383b6>@@AAV<lambda_628dfdc04ba53c8bfc02c9951375f3f5>@@$$QAV<lambda_57dc472bd5c9d5f3b2cbca59b8a843ae>@@@Z 10028100     libucrt:close.obj
 0002:00008120       __sehtable$___set_fpsr_sse2 10028120     libucrt:fpctrl.obj
 0002:00008140       __sehtable$__IsNonwritableInCurrentImage 10028140     LIBCMT:pesect.obj
 0002:00008170       .edata                     10028170     OPOSIndividualRecognition.exp
 0002:00008198       rgpv                       10028198     OPOSIndividualRecognition.exp
 0002:000081a8       rgszName                   100281a8     OPOSIndividualRecognition.exp
 0002:000081b8       rgwOrd                     100281b8     OPOSIndividualRecognition.exp
 0002:000081c0       szName                     100281c0     OPOSIndividualRecognition.exp
 0002:000081de       $N00001                    100281de     OPOSIndividualRecognition.exp
 0002:000081ee       $N00002                    100281ee     OPOSIndividualRecognition.exp
 0002:00008200       $N00003                    10028200     OPOSIndividualRecognition.exp
 0002:00008212       $N00004                    10028212     OPOSIndividualRecognition.exp
 0002:00008822       .idata$6                   10028822     kernel32:KERNEL32.dll
 0002:00008a36       .idata$6                   10028a36     user32:USER32.dll
 0002:00008b6a       .idata$6                   10028b6a     gdi32:GDI32.dll
 0002:00008c10       .idata$6                   10028c10     advapi32:ADVAPI32.dll
 0002:00008d2c       .idata$6                   10028d2c     ole32:ole32.dll
 0002:00008d36       .idata$6                   10028d36     oleaut32:OLEAUT32.dll
 0003:00000110       ?ObjectMap@@3PAU_ATL_OBJMAP_ENTRY30@ATL@@A 1002a110     IndividualRecognition.obj
 0003:000001d4       ?s_RequiredMethodsPerRelease@@3PAHA 1002a1d4     IndividualRecognitionImpl.obj
 0003:000001d8       ?s_SOMethodNames@@3PAPADA  1002a1d8     IndividualRecognitionImpl.obj
 0003:00000240       ?__vcrt_flsindex@@3KA      1002a240     libvcruntime:per_thread_data.obj
 0003:00000260       ?errno_no_memory@@3HA      1002a260     libucrt:errno.obj
 0003:00000264       ?doserrno_no_memory@@3KA   1002a264     libucrt:errno.obj
 0003:00000270       ?__acrt_flsindex@@3KA      1002a270     libucrt:per_thread_data.obj
 0003:00000608       __mbctypes                 1002a608     libucrt:mbctype.obj
 0003:00000710       __mbcasemaps               1002a710     libucrt:mbctype.obj
 0003:00000810       ?__rgctypeflag@@3PADA      1002a810     libucrt:mbctype.obj
 0003:00000818       ?__rgcode_page_info@@3PAUcode_page_info@@A 1002a818     libucrt:mbctype.obj
 0003:00000a70       ?__dcrt_lowio_console_output_handle@@3PAXA 1002aa70     libucrt:initcon.obj
 0003:00000a74       ?__DAZ_ENABLED@?1??__set_fpsr_sse2@@9@9 1002aa74     libucrt:fpctrl.obj
 0003:00000c08       ?is_initialized_as_dll@@3_NA 1002ac08     LIBCMT:utility.obj
 0003:00000c09       ?module_local_atexit_table_initialized@@3_NA 1002ac09     LIBCMT:utility.obj
 0003:00000c0c       ?module_local_atexit_table@@3U_onexit_table_t@@A 1002ac0c     LIBCMT:utility.obj
 0003:00000c18       ?module_local_at_quick_exit_table@@3U_onexit_table_t@@A 1002ac18     LIBCMT:utility.obj
 0003:00000c24       ?g_tss_cv@@3U_RTL_CONDITION_VARIABLE@@A 1002ac24     LIBCMT:thread_safe_statics.obj
 0003:00000c28       ?g_tss_event@@3PAXA        1002ac28     LIBCMT:thread_safe_statics.obj
 0003:00000c2c       ?g_tss_mutex@@3U_RTL_CRITICAL_SECTION@@A 1002ac2c     LIBCMT:thread_safe_statics.obj
 0003:00000c44       ?g_sleep_condition_variable_cs@@3P6GHPAU_RTL_CONDITION_VARIABLE@@PAU_RTL_CRITICAL_SECTION@@K@ZA 1002ac44     LIBCMT:thread_safe_statics.obj
 0003:00000c48       ?g_wake_all_condition_variable@@3P6GXPAU_RTL_CONDITION_VARIABLE@@@ZA 1002ac48     LIBCMT:thread_safe_statics.obj
 0003:00000c50       _GS_ExceptionRecord        1002ac50     LIBCMT:gs_report.obj
 0003:00000ca0       _GS_ContextRecord          1002aca0     LIBCMT:gs_report.obj
 0003:00000f70       ?__proc_attached@@3HA      1002af70     LIBCMT:dll_dllmain.obj
 0003:00000fd4       ?AllocateData@@3P6GPAUAtlThunkData_t@@XZA 1002afd4     atls:atlthunk.obj
 0003:00000fd8       ?InitData@@3P6GXPAUAtlThunkData_t@@PAXI@ZA 1002afd8     atls:atlthunk.obj
 0003:00000fdc       ?DataToCode@@3P6GP6GJPAUHWND__@@IIJ@ZPAUAtlThunkData_t@@@ZA 1002afdc     atls:atlthunk.obj
 0003:00000fe0       ?FreeData@@3P6GXPAUAtlThunkData_t@@@ZA 1002afe0     atls:atlthunk.obj
 0003:00000fe4       ?Initialized@@3_NA         1002afe4     atls:atlthunk.obj
 0003:00000ff4       ?__vcrt_startup_thread_ptd@@3U__vcrt_ptd@@A 1002aff4     libvcruntime:per_thread_data.obj
 0003:0000101c       ___vcrt_lock_table         1002b01c     libvcruntime:locks.obj
 0003:00001034       ___vcrt_locks_initialized  1002b034     libvcruntime:locks.obj
 0003:00001060       ?heap@@3V_HeapManager@@A   1002b060     libvcruntime:undname.obj
 0003:00001074       ?module_handles@@3PAPAUHINSTANCE__@@A 1002b074     libvcruntime:winapi_downlevel.obj
 0003:00001080       ?function_pointers@@3PAPAXA 1002b080     libvcruntime:winapi_downlevel.obj
 0003:00001094       ?__acrt_invalid_parameter_handler@@3V?$dual_state_global@P6AXPB_W00II@Z@__crt_state_management@@A 1002b094     libucrt:invalid_parameter.obj
 0003:00001098       ?c_termination_complete@@3JA 1002b098     libucrt:exit.obj
 0003:0000109c       ?thread_local_exit_callback_func@@3P6GXPAXK0@ZA 1002b09c     libucrt:exit.obj
 0003:000010a8       ?program_name@?1???$common_configure_argv@D@@YAHW4_crt_argv_mode@@@Z@4PADA 1002b0a8     libucrt:argv_parsing.obj
 0003:000011d8       ?__acrt_new_handler@@3V?$dual_state_global@P6AHI@Z@__crt_state_management@@A 1002b1d8     libucrt:new_handler.obj
 0003:000011e0       ?module_handles@@3PAPAUHINSTANCE__@@A 1002b1e0     libucrt:winapi_thunks.obj
 0003:00001230       ?encoded_function_pointers@@3PAPAXA 1002b230     libucrt:winapi_thunks.obj
 0003:000012b8       ?internal_state@?1??_mbtowc_l@@9@4U_Mbstatet@@A 1002b2b8     libucrt:mbtowc.obj
 0003:000012c8       ?enable_percent_n@@3IA     1002b2c8     libucrt:printf_count_output.obj
 0003:000014e8       ?__acrt_lock_table@@3PAU_RTL_CRITICAL_SECTION@@A 1002b4e8     libucrt:locks.obj
 0003:00001638       ?__acrt_locks_initialized@@3IA 1002b638     libucrt:locks.obj
 0003:00001648       ?fSystemSet@@3HA           1002b648     libucrt:mbctype.obj
 0003:0000164c       ?initialized@?1??__acrt_initialize_multibyte@@9@4_NA 1002b64c     libucrt:mbctype.obj
 0003:0000166c       ?ctrlc_action@@3V?$dual_state_global@P6AXH@Z@__crt_state_management@@A 1002b66c     libucrt:signal.obj
 0003:00001670       ?ctrlbreak_action@@3V?$dual_state_global@P6AXH@Z@__crt_state_management@@A 1002b670     libucrt:signal.obj
 0003:00001674       ?abort_action@@3V?$dual_state_global@P6AXH@Z@__crt_state_management@@A 1002b674     libucrt:signal.obj
 0003:00001678       ?term_action@@3V?$dual_state_global@P6AXH@Z@__crt_state_management@@A 1002b678     libucrt:signal.obj
 0003:0000167c       ?user_matherr@@3V?$dual_state_global@P6AHPAU_exception@@@Z@__crt_state_management@@A 1002b67c     libucrt:matherr.obj
 0003:00001680       ?__acrt_global_new_mode@@3V?$dual_state_global@J@__crt_state_management@@A 1002b680     libucrt:new_mode.obj
 0003:0000168c       ?internal_pst@?1??__mbrtoc32_utf8@__crt_mbstring@@YAIPA_UPBDIPAU_Mbstatet@@@Z@4U3@A 1002b68c     libucrt:mbrtoc32.obj
 0003:00001694       ?__acrt_app_type@@3W4_crt_app_type@@A 1002b694     libucrt:report_runtime_error.obj
 0003:0000169c       __pmatherr_set             1002b69c     libucrt:libm_error.obj
 0004:00000220       $R000000                   1002c220     IndividualRecognition.res
 0004:00000b98       $R000978                   1002cb98     IndividualRecognition.res
 0004:00000c80       $R000A60                   1002cc80     IndividualRecognition.res
 0004:00000ee8       $R000CC8                   1002cee8     IndividualRecognition.res
 0004:00001400       $R0011E0                   1002d400     IndividualRecognition.res
 0004:00003ac8       $R0038A8                   1002fac8     IndividualRecognition.res
 0004:00003b18       $R0038F8                   1002fb18     IndividualRecognition.res
