 OPOSMSR

 Timestamp is 5defaa0f (Tue Dec 10 23:22:07 2019)

 Preferred load address is 10000000

 Start         Length     Name                   Class
 0001:00000000 00000080H .text$di                CODE
 0001:00000080 0001e093H .text$mn                CODE
 0001:0001e113 00000036H .text$x                 CODE
 0001:0001e149 00000042H .text$yd                CODE
 0002:00000000 00000300H .idata$5                DATA
 0002:00000300 00000004H .00cfg                  DATA
 0002:00000304 00000004H .CRT$XCA                DATA
 0002:00000308 00000004H .CRT$XCL                DATA
 0002:0000030c 00000010H .CRT$XCU                DATA
 0002:0000031c 00000004H .CRT$XCZ                DATA
 0002:00000320 00000004H .CRT$XIA                DATA
 0002:00000324 00000010H .CRT$XIC                DATA
 0002:00000334 00000004H .CRT$XIZ                DATA
 0002:00000338 00000004H .CRT$XLA                DATA
 0002:0000033c 00000004H .CRT$XLZ                DATA
 0002:00000340 00000004H .CRT$XPA                DATA
 0002:00000344 00000008H .CRT$XPX                DATA
 0002:0000034c 00000004H .CRT$XPXA               DATA
 0002:00000350 00000004H .CRT$XPZ                DATA
 0002:00000354 00000004H .CRT$XTA                DATA
 0002:00000358 00000008H .CRT$XTZ                DATA
 0002:0000035c 00000000H .gfids$y                DATA
 0002:00000360 0000710cH .rdata                  DATA
 0002:0000746c 00000018H .rdata$T                DATA
 0002:00007484 0000017cH .rdata$r                DATA
 0002:00007600 0000001cH .rdata$sxdata           DATA
 0002:0000761c 000003d8H .rdata$zzzdbg           DATA
 0002:000079f4 00000004H .rtc$IAA                DATA
 0002:000079f8 00000004H .rtc$IZZ                DATA
 0002:000079fc 00000004H .rtc$TAA                DATA
 0002:00007a00 00000004H .rtc$TZZ                DATA
 0002:00007a04 00000004H .tls                    DATA
 0002:00007a08 00000004H .tls$                   DATA
 0002:00007a0c 00000004H .tls$ZZZ                DATA
 0002:00007a10 0000060cH .xdata$x                DATA
 0002:0000801c 00000004H ATL$__a                 DATA
 0002:00008020 00000010H ATL$__z                 DATA
 0002:00008030 000000a4H .edata                  DATA
 0002:000080d4 00000078H .idata$2                DATA
 0002:0000814c 00000014H .idata$3                DATA
 0002:00008160 00000300H .idata$4                DATA
 0002:00008460 00000bc8H .idata$6                DATA
 0003:00000000 00000ac0H .data                   DATA
 0003:00000ac0 00000098H .data$r                 DATA
 0003:00000b58 00000b80H .bss                    DATA
 0004:00000000 00000220H .rsrc$01                DATA
 0004:00000220 00005b88H .rsrc$02                DATA

  Address         Publics by Value              Rva+Base       Lib:Object

 0000:00000000       ___guard_fids_count        00000000     <absolute>
 0000:00000000       ___hybrid_code_map_count   00000000     <absolute>
 0000:00000000       __except_list              00000000     <absolute>
 0000:00000000       ___hybrid_auxiliary_iat    00000000     <absolute>
 0000:00000000       ___guard_fids_table        00000000     <absolute>
 0000:00000000       ___guard_longjmp_table     00000000     <absolute>
 0000:00000000       ___guard_iat_count         00000000     <absolute>
 0000:00000000       ___guard_iat_table         00000000     <absolute>
 0000:00000000       ___volatile_metadata       00000000     <absolute>
 0000:00000000       ___AbsoluteZero            00000000     <absolute>
 0000:00000000       ___enclave_config          00000000     <absolute>
 0000:00000000       ___dynamic_value_reloc_table 00000000     <absolute>
 0000:00000000       ___guard_longjmp_count     00000000     <absolute>
 0000:00000000       ___hybrid_code_map         00000000     <absolute>
 0000:00000007       ___safe_se_handler_count   00000007     <absolute>
 0000:0000002c       __tls_array                0000002c     <absolute>
 0000:00000100       ___guard_flags             00000100     <absolute>
 0000:00000000       ___ImageBase               10000000     <linker-defined>
 0001:00000080       ?DupWide@_CW@@AAEXXZ       10001080 f   CWString.obj
 0001:0000009c       ?cw_dup@@YGXPBDAAHAAPA_W1@Z 1000109c f   CWString.obj
 0001:00000124       ?cw_memcpy@@YGHPA_WPBDH@Z  10001124 f   CWString.obj
 0001:00000150       ?cw_strcpy@@YAHPA_WPBD@Z   10001150 f   CWString.obj
 0001:00000163       ?cw_strlen@@YAHPBD@Z       10001163 f   CWString.obj
 0001:0000017c       ??0CAtlComModule@ATL@@QAE@XZ 1000117c f i OposVariant.obj
 0001:000001c1       ??0CAtlWinModule@ATL@@QAE@XZ 100011c1 f i OposVariant.obj
 0001:000001f8       ??0OposDispParms@@QAE@PAVOposVariant@@H@Z 100011f8 f   OposVariant.obj
 0001:00000269       ??1OposDispParms@@QAE@XZ   10001269 f   OposVariant.obj
 0001:00000277       ??A?$CSimpleArray@GV?$CSimpleArrayEqualHelper@G@ATL@@@ATL@@QAEAAGH@Z 10001277 f i OposVariant.obj
 0001:0000029c       ??_Estringdispid@CComTypeInfoHolder@ATL@@QAEPAXI@Z 1000129c f i OposVariant.obj
 0001:00000308       ?AtlWinModuleInit@ATL@@YGJPAU_ATL_WIN_MODULE70@1@@Z 10001308 f i OposVariant.obj
 0001:0000032e       ?AtlWinModuleTerm@ATL@@YGJPAU_ATL_WIN_MODULE70@1@PAUHINSTANCE__@@@Z 1000132e f i OposVariant.obj
 0001:00000391       ?ChangeBSTR@OposVariant@@QAEXPAPA_WAAJ@Z 10001391 f   OposVariant.obj
 0001:000003d2       ?ChangeLONG@OposVariant@@QAEXPAJAAJ@Z 100013d2 f   OposVariant.obj
 0001:00000413       ?GetLONG@OposVariant@@QAEJXZ 10001413 f   OposVariant.obj
 0001:0000042e       ?Init@CComCriticalSection@ATL@@QAEJXZ 1000142e f i OposVariant.obj
 0001:00000456       ?RemoveAll@?$CSimpleArray@GV?$CSimpleArrayEqualHelper@G@ATL@@@ATL@@QAEXXZ 10001456 f i OposVariant.obj
 0001:00000456       ?RemoveAll@?$CSimpleArray@PAUHINSTANCE__@@V?$CSimpleArrayEqualHelper@PAUHINSTANCE__@@@ATL@@@ATL@@QAEXXZ 10001456 f i atls:atlbase.obj
 0001:00000473       ?SetBSTR@OposVariant@@QAEXPA_WAAJ@Z 10001473 f   OposVariant.obj
 0001:000004a7       ?SetBSTR_Copy@OposVariant@@QAEXPA_WAAJ@Z 100014a7 f   OposVariant.obj
 0001:000004f7       ?SetBSTR_InOutPtr@OposVariant@@QAE_NPAPA_WAAJ@Z 100014f7 f   OposVariant.obj
 0001:0000052e       ?SetBSTR_OutPtr@OposVariant@@QAE_NPAPA_WAAJ@Z 1000152e f   OposVariant.obj
 0001:0000054a       ?SetDispatch_Ptr@OposVariant@@QAEXPAUIDispatch@@AAJ@Z 1000154a f   OposVariant.obj
 0001:00000585       ?SetLONG@OposVariant@@QAEXJ@Z 10001585 f   OposVariant.obj
 0001:000005a7       ?SetLONG_Ptr@OposVariant@@QAEXPAJAAJ@Z 100015a7 f   OposVariant.obj
 0001:000005da       ?SetString@OposVariant@@QAEXPB_WAAJ@Z 100015da f   OposVariant.obj
 0001:00000620       ?SetVARIANT@OposVariant@@QAEXAAUtagVARIANT@@GAAJ@Z 10001620 f   OposVariant.obj
 0001:00000667       ?SetVARIANT_BOOL@OposVariant@@QAEXF@Z 10001667 f   OposVariant.obj
 0001:00000691       ?Term@CAtlComModule@ATL@@QAEXXZ 10001691 f i OposVariant.obj
 0001:000006db       ?_AtlRaiseException@ATL@@YAXKK@Z 100016db f i OposVariant.obj
 0001:000006f0       ?AddRef@?$CComObject@VCOPOSMSR@@@ATL@@WHM@AGKXZ 100016f0 f i MSR.obj
 0001:000006fa       ?Release@?$CComObject@VCOPOSMSR@@@ATL@@WHM@AGKXZ 100016fa f i MSR.obj
 0001:00000704       ?QueryInterface@?$CComObject@VCOPOSMSR@@@ATL@@WIA@AGJABU_GUID@@PAPAX@Z 10001704 f i MSR.obj
 0001:00000711       ?AddRef@?$CComObject@VCOPOSMSR@@@ATL@@WIA@AGKXZ 10001711 f i MSR.obj
 0001:0000071e       ?CreateInstance@CComClassFactory@ATL@@UAGJPAUIUnknown@@ABU_GUID@@PAPAX@Z 1000171e f i MSR.obj
 0001:0000075c       ?Release@?$CComObject@VCOPOSMSR@@@ATL@@WIA@AGKXZ 1000175c f i MSR.obj
 0001:00000769       ?QueryInterface@?$CComObject@VCOPOSMSR@@@ATL@@WIE@AGJABU_GUID@@PAPAX@Z 10001769 f i MSR.obj
 0001:00000776       ?LockServer@CComClassFactory@ATL@@UAGJH@Z 10001776 f i MSR.obj
 0001:00000795       ?AddRef@?$CComObject@VCOPOSMSR@@@ATL@@WIE@AGKXZ 10001795 f i MSR.obj
 0001:000007a2       ?Release@?$CComObject@VCOPOSMSR@@@ATL@@WIE@AGKXZ 100017a2 f i MSR.obj
 0001:000007af       ?QueryInterface@?$CComObject@VCOPOSMSR@@@ATL@@WII@AGJABU_GUID@@PAPAX@Z 100017af f i MSR.obj
 0001:000007bc       ?AddRef@?$CComObject@VCOPOSMSR@@@ATL@@WII@AGKXZ 100017bc f i MSR.obj
 0001:000007c9       ?Release@?$CComObject@VCOPOSMSR@@@ATL@@WII@AGKXZ 100017c9 f i MSR.obj
 0001:000007d6       ?QueryInterface@?$CComObject@VCOPOSMSR@@@ATL@@WIM@AGJABU_GUID@@PAPAX@Z 100017d6 f i MSR.obj
 0001:000007e3       ?AddRef@?$CComObject@VCOPOSMSR@@@ATL@@WIM@AGKXZ 100017e3 f i MSR.obj
 0001:000007f0       ?Release@?$CComObject@VCOPOSMSR@@@ATL@@WIM@AGKXZ 100017f0 f i MSR.obj
 0001:000007fd       ?QueryInterface@?$CComObject@VCOPOSMSR@@@ATL@@WJA@AGJABU_GUID@@PAPAX@Z 100017fd f i MSR.obj
 0001:0000080a       ?AddRef@?$CComObject@VCOPOSMSR@@@ATL@@WJA@AGKXZ 1000180a f i MSR.obj
 0001:00000817       ?Release@?$CComObject@VCOPOSMSR@@@ATL@@WJA@AGKXZ 10001817 f i MSR.obj
 0001:00000824       ?QueryInterface@?$CComObject@VCOPOSMSR@@@ATL@@WJE@AGJABU_GUID@@PAPAX@Z 10001824 f i MSR.obj
 0001:00000831       ?AddRef@?$CComObject@VCOPOSMSR@@@ATL@@WJE@AGKXZ 10001831 f i MSR.obj
 0001:0000083e       ??_GCComClassFactory@ATL@@UAEPAXI@Z 1000183e f i MSR.obj
 0001:0000083e       ??_ECComClassFactory@ATL@@UAEPAXI@Z 1000183e f i MSR.obj
 0001:00000869       ?Release@?$CComObject@VCOPOSMSR@@@ATL@@WJE@AGKXZ 10001869 f i MSR.obj
 0001:00000876       ?QueryInterface@?$CComObject@VCOPOSMSR@@@ATL@@WJI@AGJABU_GUID@@PAPAX@Z 10001876 f i MSR.obj
 0001:00000883       ?AddRef@?$CComObject@VCOPOSMSR@@@ATL@@WJI@AGKXZ 10001883 f i MSR.obj
 0001:00000890       ?Release@?$CComObject@VCOPOSMSR@@@ATL@@WJI@AGKXZ 10001890 f i MSR.obj
 0001:0000089d       ?QueryInterface@?$CComObject@VCOPOSMSR@@@ATL@@WJM@AGJABU_GUID@@PAPAX@Z 1000189d f i MSR.obj
 0001:000008aa       ?AddRef@?$CComObject@VCOPOSMSR@@@ATL@@WJM@AGKXZ 100018aa f i MSR.obj
 0001:000008b7       ?Release@?$CComObject@VCOPOSMSR@@@ATL@@WJM@AGKXZ 100018b7 f i MSR.obj
 0001:000008c4       ?QueryInterface@?$CComObject@VCOPOSMSR@@@ATL@@WKA@AGJABU_GUID@@PAPAX@Z 100018c4 f i MSR.obj
 0001:000008d1       ?AddRef@?$CComObject@VCOPOSMSR@@@ATL@@WKA@AGKXZ 100018d1 f i MSR.obj
 0001:000008de       ?Release@?$CComObject@VCOPOSMSR@@@ATL@@WKA@AGKXZ 100018de f i MSR.obj
 0001:000008eb       ?AddRef@?$CComObject@VCOPOSMSR@@@ATL@@WKI@AGKXZ 100018eb f i MSR.obj
 0001:000008f8       ?Release@?$CComObject@VCOPOSMSR@@@ATL@@WKI@AGKXZ 100018f8 f i MSR.obj
 0001:00000905       ?AddRef@?$CComObject@VCOPOSMSR@@@ATL@@WLE@AGKXZ 10001905 f i MSR.obj
 0001:00000912       ?Release@?$CComObject@VCOPOSMSR@@@ATL@@WLE@AGKXZ 10001912 f i MSR.obj
 0001:0000091f       ??_E?$CComContainedObject@VCOPOSMSR@@@ATL@@W3AEPAXI@Z 1000191f f i MSR.obj
 0001:00000927       ??_E?$CComContainedObject@VCOPOSMSR@@@ATL@@WEM@AEPAXI@Z 10001927 f i MSR.obj
 0001:0000092f       ?QueryInterface@?$CComContainedObject@VCOPOSMSR@@@ATL@@WHA@AGJABU_GUID@@PAPAX@Z 1000192f f i MSR.obj
 0001:00000939       ?AddRef@?$CComContainedObject@VCOPOSMSR@@@ATL@@WHA@AGKXZ 10001939 f i MSR.obj
 0001:00000943       ?Release@?$CComContainedObject@VCOPOSMSR@@@ATL@@WHA@AGKXZ 10001943 f i MSR.obj
 0001:0000094d       ?QueryInterface@?$CComContainedObject@VCOPOSMSR@@@ATL@@WHE@AGJABU_GUID@@PAPAX@Z 1000194d f i MSR.obj
 0001:00000957       ?AddRef@?$CComContainedObject@VCOPOSMSR@@@ATL@@WHE@AGKXZ 10001957 f i MSR.obj
 0001:00000961       ?Release@?$CComContainedObject@VCOPOSMSR@@@ATL@@WHE@AGKXZ 10001961 f i MSR.obj
 0001:0000096b       ?QueryInterface@?$CComContainedObject@VCOPOSMSR@@@ATL@@WHI@AGJABU_GUID@@PAPAX@Z 1000196b f i MSR.obj
 0001:00000975       ?AddRef@?$CComContainedObject@VCOPOSMSR@@@ATL@@WHI@AGKXZ 10001975 f i MSR.obj
 0001:0000097f       ?Release@?$CComContainedObject@VCOPOSMSR@@@ATL@@WHI@AGKXZ 1000197f f i MSR.obj
 0001:00000989       ?QueryInterface@?$CComContainedObject@VCOPOSMSR@@@ATL@@WHM@AGJABU_GUID@@PAPAX@Z 10001989 f i MSR.obj
 0001:00000993       ?AddRef@?$CComContainedObject@VCOPOSMSR@@@ATL@@WHM@AGKXZ 10001993 f i MSR.obj
 0001:0000099d       ?Release@?$CComContainedObject@VCOPOSMSR@@@ATL@@WHM@AGKXZ 1000199d f i MSR.obj
 0001:000009a7       ?QueryInterface@?$CComContainedObject@VCOPOSMSR@@@ATL@@WIA@AGJABU_GUID@@PAPAX@Z 100019a7 f i MSR.obj
 0001:000009b4       ?AddRef@?$CComContainedObject@VCOPOSMSR@@@ATL@@WIA@AGKXZ 100019b4 f i MSR.obj
 0001:000009c1       ?Release@?$CComContainedObject@VCOPOSMSR@@@ATL@@WIA@AGKXZ 100019c1 f i MSR.obj
 0001:000009ce       ?QueryInterface@?$CComContainedObject@VCOPOSMSR@@@ATL@@WIE@AGJABU_GUID@@PAPAX@Z 100019ce f i MSR.obj
 0001:000009db       ?AddRef@?$CComContainedObject@VCOPOSMSR@@@ATL@@WIE@AGKXZ 100019db f i MSR.obj
 0001:000009e8       ?Release@?$CComContainedObject@VCOPOSMSR@@@ATL@@WIE@AGKXZ 100019e8 f i MSR.obj
 0001:000009f5       ?QueryInterface@?$CComContainedObject@VCOPOSMSR@@@ATL@@WII@AGJABU_GUID@@PAPAX@Z 100019f5 f i MSR.obj
 0001:00000a02       ?AddRef@?$CComContainedObject@VCOPOSMSR@@@ATL@@WII@AGKXZ 10001a02 f i MSR.obj
 0001:00000a0f       ?Release@?$CComContainedObject@VCOPOSMSR@@@ATL@@WII@AGKXZ 10001a0f f i MSR.obj
 0001:00000a1c       ?QueryInterface@?$CComContainedObject@VCOPOSMSR@@@ATL@@WIM@AGJABU_GUID@@PAPAX@Z 10001a1c f i MSR.obj
 0001:00000a29       ?AddRef@?$CComContainedObject@VCOPOSMSR@@@ATL@@WIM@AGKXZ 10001a29 f i MSR.obj
 0001:00000a36       ?Release@?$CComContainedObject@VCOPOSMSR@@@ATL@@WIM@AGKXZ 10001a36 f i MSR.obj
 0001:00000a43       ?QueryInterface@?$CComContainedObject@VCOPOSMSR@@@ATL@@WJA@AGJABU_GUID@@PAPAX@Z 10001a43 f i MSR.obj
 0001:00000a50       ?AddRef@?$CComContainedObject@VCOPOSMSR@@@ATL@@WJA@AGKXZ 10001a50 f i MSR.obj
 0001:00000a5d       ?Release@?$CComContainedObject@VCOPOSMSR@@@ATL@@WJA@AGKXZ 10001a5d f i MSR.obj
 0001:00000a6a       ?QueryInterface@?$CComContainedObject@VCOPOSMSR@@@ATL@@WJE@AGJABU_GUID@@PAPAX@Z 10001a6a f i MSR.obj
 0001:00000a77       ?AddRef@?$CComContainedObject@VCOPOSMSR@@@ATL@@WJE@AGKXZ 10001a77 f i MSR.obj
 0001:00000a84       ?Release@?$CComContainedObject@VCOPOSMSR@@@ATL@@WJE@AGKXZ 10001a84 f i MSR.obj
 0001:00000a91       ?QueryInterface@?$CComContainedObject@VCOPOSMSR@@@ATL@@WJI@AGJABU_GUID@@PAPAX@Z 10001a91 f i MSR.obj
 0001:00000a9e       ?AddRef@?$CComContainedObject@VCOPOSMSR@@@ATL@@WJI@AGKXZ 10001a9e f i MSR.obj
 0001:00000aab       ?Release@?$CComContainedObject@VCOPOSMSR@@@ATL@@WJI@AGKXZ 10001aab f i MSR.obj
 0001:00000ab8       ?QueryInterface@?$CComContainedObject@VCOPOSMSR@@@ATL@@WJM@AGJABU_GUID@@PAPAX@Z 10001ab8 f i MSR.obj
 0001:00000ac5       ?AddRef@?$CComContainedObject@VCOPOSMSR@@@ATL@@WJM@AGKXZ 10001ac5 f i MSR.obj
 0001:00000ad2       ?Release@?$CComContainedObject@VCOPOSMSR@@@ATL@@WJM@AGKXZ 10001ad2 f i MSR.obj
 0001:00000adf       ?QueryInterface@?$CComContainedObject@VCOPOSMSR@@@ATL@@WKA@AGJABU_GUID@@PAPAX@Z 10001adf f i MSR.obj
 0001:00000aec       ?AddRef@?$CComContainedObject@VCOPOSMSR@@@ATL@@WKA@AGKXZ 10001aec f i MSR.obj
 0001:00000af9       ?Release@?$CComContainedObject@VCOPOSMSR@@@ATL@@WKA@AGKXZ 10001af9 f i MSR.obj
 0001:00000b06       ?AddRef@?$CComContainedObject@VCOPOSMSR@@@ATL@@WKI@AGKXZ 10001b06 f i MSR.obj
 0001:00000b13       ?Release@?$CComContainedObject@VCOPOSMSR@@@ATL@@WKI@AGKXZ 10001b13 f i MSR.obj
 0001:00000b20       ?AddRef@?$CComContainedObject@VCOPOSMSR@@@ATL@@WLE@AGKXZ 10001b20 f i MSR.obj
 0001:00000b2d       ?Release@?$CComContainedObject@VCOPOSMSR@@@ATL@@WLE@AGKXZ 10001b2d f i MSR.obj
 0001:00000b3a       ?GetWindowProc@?$CWindowImplBaseT@VCWindow@ATL@@V?$CWinTraits@$0FGAAAAAA@$0A@@2@@ATL@@UAEP6GJPAUHWND__@@IIJ@ZXZ 10001b3a f i MSR.obj
 0001:00000b40       ?StartWindowProc@?$CWindowImplBaseT@VCWindow@ATL@@V?$CWinTraits@$0FGAAAAAA@$0A@@2@@ATL@@SGJPAUHWND__@@IIJ@Z 10001b40 f i MSR.obj
 0001:00000b94       ?ObjectMain@CComObjectRootBase@ATL@@SGX_N@Z 10001b94 f i MSR.obj
 0001:00000b94       ?OnFinalMessage@?$CWindowImplBaseT@VCWindow@ATL@@V?$CWinTraits@$0FGAAAAAA@$0A@@2@@ATL@@UAEXPAUHWND__@@@Z 10001b94 f i MSR.obj
 0001:00000b97       ?GetTypeInfoCount@?$IDispatchImpl@UIOPOSMSR@@$1?IID_IOPOSMSR@@3U_GUID@@B$1?LIBID_OposMSR_CCO@@3U3@B$00$0A@VCComTypeInfoHolder@ATL@@@ATL@@UAGJPAI@Z 10001b97 f i MSR.obj
 0001:00000bb4       ?GetTypeInfo@?$IDispatchImpl@UIOPOSMSR@@$1?IID_IOPOSMSR@@3U_GUID@@B$1?LIBID_OposMSR_CCO@@3U3@B$00$0A@VCComTypeInfoHolder@ATL@@@ATL@@UAGJIKPAPAUITypeInfo@@@Z 10001bb4 f i MSR.obj
 0001:00000bd8       ?GetIDsOfNames@?$IDispatchImpl@UIOPOSMSR@@$1?IID_IOPOSMSR@@3U_GUID@@B$1?LIBID_OposMSR_CCO@@3U3@B$00$0A@VCComTypeInfoHolder@ATL@@@ATL@@UAGJABU_GUID@@PAPA_WIKPAJ@Z 10001bd8 f i MSR.obj
 0001:00000bf8       ?Invoke@?$IDispatchImpl@UIOPOSMSR@@$1?IID_IOPOSMSR@@3U_GUID@@B$1?LIBID_OposMSR_CCO@@3U3@B$00$0A@VCComTypeInfoHolder@ATL@@@ATL@@UAGJJABU_GUID@@KGPAUtagDISPPARAMS@@PAUtagVARIANT@@PAUtagEXCEPINFO@@PAI@Z 10001bf8 f i MSR.obj
 0001:00000c06       ?CreateControlWindow@?$CComControl@VCOPOSMSR@@V?$CWindowImpl@VCOPOSMSR@@VCWindow@ATL@@V?$CWinTraits@$0FGAAAAAA@$0A@@3@@ATL@@@ATL@@UAEPAUHWND__@@PAU3@AAUtagRECT@@@Z 10001c06 f i MSR.obj
 0001:00000c35       ?ControlQueryInterface@?$CComControl@VCOPOSMSR@@V?$CWindowImpl@VCOPOSMSR@@VCWindow@ATL@@V?$CWinTraits@$0FGAAAAAA@$0A@@3@@ATL@@@ATL@@UAEJABU_GUID@@PAPAX@Z 10001c35 f i MSR.obj
 0001:00000c50       ?GetClassID@?$IPersistStorageImpl@VCOPOSMSR@@@ATL@@UAGJPAU_GUID@@@Z 10001c50 f i MSR.obj
 0001:00000c50       ?GetClassID@?$IPersistStreamInitImpl@VCOPOSMSR@@@ATL@@UAGJPAU_GUID@@@Z 10001c50 f i MSR.obj
 0001:00000c50       ?GetUserClassID@?$IOleObjectImpl@VCOPOSMSR@@@ATL@@UAGJPAU_GUID@@@Z 10001c50 f i MSR.obj
 0001:00000c74       ?IsDirty@?$IPersistStreamInitImpl@VCOPOSMSR@@@ATL@@UAGJXZ 10001c74 f i MSR.obj
 0001:00000c93       ?Load@?$IPersistStreamInitImpl@VCOPOSMSR@@@ATL@@UAGJPAUIStream@@@Z 10001c93 f i MSR.obj
 0001:00000cb2       ?Save@?$IPersistStreamInitImpl@VCOPOSMSR@@@ATL@@UAGJPAUIStream@@H@Z 10001cb2 f i MSR.obj
 0001:00000cd4       ?GetSizeMax@?$IPersistStreamInitImpl@VCOPOSMSR@@@ATL@@UAGJPAT_ULARGE_INTEGER@@@Z 10001cd4 f i MSR.obj
 0001:00000eb3       ?InitNew@?$IPersistStreamInitImpl@VCOPOSMSR@@@ATL@@UAGJXZ 10001eb3 f i MSR.obj
 0001:00000ed0       ?ContextSensitiveHelp@?$IOleInPlaceActiveObjectImpl@VCOPOSMSR@@@ATL@@UAGJH@Z 10001ed0 f i MSR.obj
 0001:00000ed0       ?QueryGetData@?$IDataObjectImpl@VCOPOSMSR@@@ATL@@UAGJPAUtagFORMATETC@@@Z 10001ed0 f i MSR.obj
 0001:00000ed0       ?SOOutputCompleteDummy@COPOSMSR@@MAGJJ@Z 10001ed0 f i MSR.obj
 0001:00000ed0       ?GetDropTarget@?$IOleInPlaceObjectWindowlessImpl@VCOPOSMSR@@@ATL@@UAGJPAPAUIDropTarget@@@Z 10001ed0 f i MSR.obj
 0001:00000ed0       ?ContextSensitiveHelp@?$IOleInPlaceObjectWindowlessImpl@VCOPOSMSR@@@ATL@@UAGJH@Z 10001ed0 f i MSR.obj
 0001:00000ed0       ?SetColorScheme@?$IOleObjectImpl@VCOPOSMSR@@@ATL@@UAGJPAUtagLOGPALETTE@@@Z 10001ed0 f i MSR.obj
 0001:00000ed0       ?OnMnemonic@?$IOleControlImpl@VCOPOSMSR@@@ATL@@UAGJPAUtagMSG@@@Z 10001ed0 f i MSR.obj
 0001:00000ed0       ?Unfreeze@?$IViewObjectExImpl@VCOPOSMSR@@@ATL@@UAGJK@Z 10001ed0 f i MSR.obj
 0001:00000ed0       ?GetControlInfo@?$IOleControlImpl@VCOPOSMSR@@@ATL@@UAGJPAUtagCONTROLINFO@@@Z 10001ed0 f i MSR.obj
 0001:00000ed8       ?SaveCompleted@?$IPersistStorageImpl@VCOPOSMSR@@@ATL@@UAGJPAUIStorage@@@Z 10001ed8 f i MSR.obj
 0001:00000ed8       ?EnableModeless@?$IOleInPlaceActiveObjectImpl@VCOPOSMSR@@@ATL@@UAGJH@Z 10001ed8 f i MSR.obj
 0001:00000ed8       ?OnAmbientPropertyChange@?$IOleControlImpl@VCOPOSMSR@@@ATL@@UAGJJ@Z 10001ed8 f i MSR.obj
 0001:00000ed8       ?OnFrameWindowActivate@?$IOleInPlaceActiveObjectImpl@VCOPOSMSR@@@ATL@@UAGJH@Z 10001ed8 f i MSR.obj
 0001:00000edd       ?SetClientSite@?$IOleObjectImpl@VCOPOSMSR@@@ATL@@UAGJPAUIOleClientSite@@@Z 10001edd f i MSR.obj
 0001:00000efa       ?GetClientSite@?$IOleObjectImpl@VCOPOSMSR@@@ATL@@UAGJPAPAUIOleClientSite@@@Z 10001efa f i MSR.obj
 0001:00000f17       ?SetHostNames@?$IOleObjectImpl@VCOPOSMSR@@@ATL@@UAGJPB_W0@Z 10001f17 f i MSR.obj
 0001:00000f1c       ?Close@?$IOleObjectImpl@VCOPOSMSR@@@ATL@@UAGJK@Z 10001f1c f i MSR.obj
 0001:00000f39       ?EnumFormatEtc@?$IDataObjectImpl@VCOPOSMSR@@@ATL@@UAGJKPAPAUIEnumFORMATETC@@@Z 10001f39 f i MSR.obj
 0001:00000f39       ?GetCanonicalFormatEtc@?$IDataObjectImpl@VCOPOSMSR@@@ATL@@UAGJPAUtagFORMATETC@@0@Z 10001f39 f i MSR.obj
 0001:00000f39       ?SetMoniker@?$IOleObjectImpl@VCOPOSMSR@@@ATL@@UAGJKPAUIMoniker@@@Z 10001f39 f i MSR.obj
 0001:00000f39       ?GetClipboardData@?$IOleObjectImpl@VCOPOSMSR@@@ATL@@UAGJKPAPAUIDataObject@@@Z 10001f39 f i MSR.obj
 0001:00000f39       ?GetRect@?$IViewObjectExImpl@VCOPOSMSR@@@ATL@@UAGJKPAU_RECTL@@@Z 10001f39 f i MSR.obj
 0001:00000f39       ?QueryInterface@CRegObject@ATL@@UAGJABU_GUID@@PAPAX@Z 10001f39 f i MSR.obj
 0001:00000f39       ?GetDataHere@?$IDataObjectImpl@VCOPOSMSR@@@ATL@@UAGJPAUtagFORMATETC@@PAUtagSTGMEDIUM@@@Z 10001f39 f i MSR.obj
 0001:00000f41       ?GetMoniker@?$IOleObjectImpl@VCOPOSMSR@@@ATL@@UAGJKKPAPAUIMoniker@@@Z 10001f41 f i MSR.obj
 0001:00000f41       ?SetData@?$IDataObjectImpl@VCOPOSMSR@@@ATL@@UAGJPAUtagFORMATETC@@PAUtagSTGMEDIUM@@H@Z 10001f41 f i MSR.obj
 0001:00000f41       ?InitFromData@?$IOleObjectImpl@VCOPOSMSR@@@ATL@@UAGJPAUIDataObject@@HK@Z 10001f41 f i MSR.obj
 0001:00000f49       ?DoVerb@?$IOleObjectImpl@VCOPOSMSR@@@ATL@@UAGJJPAUtagMSG@@PAUIOleClientSite@@JPAUHWND__@@PBUtagRECT@@@Z 10001f49 f i MSR.obj
 0001:0000103d       ?EnumVerbs@?$IOleObjectImpl@VCOPOSMSR@@@ATL@@UAGJPAPAUIEnumOLEVERB@@@Z 1000203d f i MSR.obj
 0001:0000105f       ?IsUpToDate@?$IOleObjectImpl@VCOPOSMSR@@@ATL@@UAGJXZ 1000205f f i MSR.obj
 0001:0000105f       ?HandsOffStorage@?$IPersistStorageImpl@VCOPOSMSR@@@ATL@@UAGJXZ 1000205f f i MSR.obj
 0001:0000105f       ?Release@CRegObject@ATL@@UAGKXZ 1000205f f i MSR.obj
 0001:0000105f       ?Update@?$IOleObjectImpl@VCOPOSMSR@@@ATL@@UAGJXZ 1000205f f i MSR.obj
 0001:00001064       ?GetUserType@?$IOleObjectImpl@VCOPOSMSR@@@ATL@@UAGJKPAPA_W@Z 10002064 f i MSR.obj
 0001:0000107c       ?SetExtent@?$IOleObjectImpl@VCOPOSMSR@@@ATL@@UAGJKPAUtagSIZE@@@Z 1000207c f i MSR.obj
 0001:0000109c       ?GetExtent@?$IOleObjectImpl@VCOPOSMSR@@@ATL@@UAGJKPAUtagSIZE@@@Z 1000209c f i MSR.obj
 0001:000010da       ?Advise@?$IOleObjectImpl@VCOPOSMSR@@@ATL@@UAGJPAUIAdviseSink@@PAK@Z 100020da f i MSR.obj
 0001:000010fa       ?Unadvise@?$IOleObjectImpl@VCOPOSMSR@@@ATL@@UAGJK@Z 100020fa f i MSR.obj
 0001:00001129       ?EnumAdvise@?$IOleObjectImpl@VCOPOSMSR@@@ATL@@UAGJPAPAUIEnumSTATDATA@@@Z 10002129 f i MSR.obj
 0001:00001169       ?GetMiscStatus@?$IOleObjectImpl@VCOPOSMSR@@@ATL@@UAGJKPAK@Z 10002169 f i MSR.obj
 0001:00001181       ?GetWindow@?$IOleInPlaceActiveObjectImpl@VCOPOSMSR@@@ATL@@UAGJPAPAUHWND__@@@Z 10002181 f i MSR.obj
 0001:000011ce       ?TranslateAcceleratorW@?$IOleInPlaceActiveObjectImpl@VCOPOSMSR@@@ATL@@UAGJPAUtagMSG@@@Z 100021ce f i MSR.obj
 0001:0000127c       ?OnDocWindowActivate@?$IOleInPlaceActiveObjectImpl@VCOPOSMSR@@@ATL@@UAGJH@Z 1000227c f i MSR.obj
 0001:0000129e       ?ResizeBorder@?$IOleInPlaceActiveObjectImpl@VCOPOSMSR@@@ATL@@UAGJPBUtagRECT@@PAUIOleInPlaceUIWindow@@H@Z 1000229e f i MSR.obj
 0001:000012a3       ?Draw@?$IViewObjectExImpl@VCOPOSMSR@@@ATL@@UAGJKJPAXPAUtagDVTARGETDEVICE@@PAUHDC__@@2PBU_RECTL@@3P6GHK@ZK@Z 100022a3 f i MSR.obj
 0001:000012d5       ?GetColorSet@?$IViewObjectExImpl@VCOPOSMSR@@@ATL@@UAGJKJPAXPAUtagDVTARGETDEVICE@@PAUHDC__@@PAPAUtagLOGPALETTE@@@Z 100022d5 f i MSR.obj
 0001:000012dd       ?Freeze@?$IViewObjectExImpl@VCOPOSMSR@@@ATL@@UAGJKJPAXPAK@Z 100022dd f i MSR.obj
 0001:000012e5       ?SetAdvise@?$IViewObjectExImpl@VCOPOSMSR@@@ATL@@UAGJKKPAUIAdviseSink@@@Z 100022e5 f i MSR.obj
 0001:00001304       ?GetAdvise@?$IViewObjectExImpl@VCOPOSMSR@@@ATL@@UAGJPAK0PAPAUIAdviseSink@@@Z 10002304 f i MSR.obj
 0001:00001339       ?GetExtent@?$IViewObjectExImpl@VCOPOSMSR@@@ATL@@UAGJKJPAUtagDVTARGETDEVICE@@PAUtagSIZE@@@Z 10002339 f i MSR.obj
 0001:0000136a       ?GetViewStatus@?$IViewObjectExImpl@VCOPOSMSR@@@ATL@@UAGJPAK@Z 1000236a f i MSR.obj
 0001:00001387       ?QueryHitPoint@?$IViewObjectExImpl@VCOPOSMSR@@@ATL@@UAGJKPBUtagRECT@@UtagPOINT@@JPAK@Z 10002387 f i MSR.obj
 0001:000013c8       ?QueryHitRect@?$IViewObjectExImpl@VCOPOSMSR@@@ATL@@UAGJKPBUtagRECT@@0JPAK@Z 100023c8 f i MSR.obj
 0001:00001423       ?GetNaturalExtent@?$IViewObjectExImpl@VCOPOSMSR@@@ATL@@UAGJKJPAUtagDVTARGETDEVICE@@PAUHDC__@@PAUtagExtentInfo@@PAUtagSIZE@@@Z 10002423 f i MSR.obj
 0001:0000146e       ?GetWindow@?$IOleInPlaceObjectWindowlessImpl@VCOPOSMSR@@@ATL@@UAGJPAPAUHWND__@@@Z 1000246e f i MSR.obj
 0001:000014bb       ?InPlaceDeactivate@?$IOleInPlaceObjectWindowlessImpl@VCOPOSMSR@@@ATL@@UAGJXZ 100024bb f i MSR.obj
 0001:000014d5       ?UIDeactivate@?$IOleInPlaceObjectWindowlessImpl@VCOPOSMSR@@@ATL@@UAGJXZ 100024d5 f i MSR.obj
 0001:000014ef       ?SetObjectRects@?$IOleInPlaceObjectWindowlessImpl@VCOPOSMSR@@@ATL@@UAGJPBUtagRECT@@0@Z 100024ef f i MSR.obj
 0001:0000150f       ?ReactivateAndUndo@?$IOleInPlaceObjectWindowlessImpl@VCOPOSMSR@@@ATL@@UAGJXZ 1000250f f i MSR.obj
 0001:00001517       ?OnWindowMessage@?$IOleInPlaceObjectWindowlessImpl@VCOPOSMSR@@@ATL@@UAGJIIJPAJ@Z 10002517 f i MSR.obj
 0001:00001587       ?EnumConnectionPoints@?$IConnectionPointContainerImpl@VCOPOSMSR@@@ATL@@UAGJPAPAUIEnumConnectionPoints@@@Z 10002587 f i MSR.obj
 0001:00001701       ?FindConnectionPoint@?$IConnectionPointContainerImpl@VCOPOSMSR@@@ATL@@UAGJABU_GUID@@PAPAUIConnectionPoint@@@Z 10002701 f i MSR.obj
 0001:000017a4       ?IsDirty@?$IPersistStorageImpl@VCOPOSMSR@@@ATL@@UAGJXZ 100027a4 f i MSR.obj
 0001:000017d8       ?InitNew@?$IPersistStorageImpl@VCOPOSMSR@@@ATL@@UAGJPAUIStorage@@@Z 100027d8 f i MSR.obj
 0001:0000180c       ?Load@?$IPersistStorageImpl@VCOPOSMSR@@@ATL@@UAGJPAUIStorage@@@Z 1000280c f i MSR.obj
 0001:00001878       ?Save@?$IPersistStorageImpl@VCOPOSMSR@@@ATL@@UAGJPAUIStorage@@H@Z 10002878 f i MSR.obj
 0001:000018eb       ?GetPages@?$ISpecifyPropertyPagesImpl@VCOPOSMSR@@@ATL@@UAGJPAUtagCAUUID@@@Z 100028eb f i MSR.obj
 0001:00001902       ?QuickActivate@?$IQuickActivateImpl@VCOPOSMSR@@@ATL@@UAGJPAUtagQACONTAINER@@PAUtagQACONTROL@@@Z 10002902 f i MSR.obj
 0001:00001925       ?SetContentExtent@?$IQuickActivateImpl@VCOPOSMSR@@@ATL@@UAGJPAUtagSIZE@@@Z 10002925 f i MSR.obj
 0001:00001951       ?GetContentExtent@?$IQuickActivateImpl@VCOPOSMSR@@@ATL@@UAGJPAUtagSIZE@@@Z 10002951 f i MSR.obj
 0001:0000198b       ?GetData@?$IDataObjectImpl@VCOPOSMSR@@@ATL@@UAGJPAUtagFORMATETC@@PAUtagSTGMEDIUM@@@Z 1000298b f i MSR.obj
 0001:000019ae       ?DAdvise@?$IDataObjectImpl@VCOPOSMSR@@@ATL@@UAGJPAUtagFORMATETC@@KPAUIAdviseSink@@PAK@Z 100029ae f i MSR.obj
 0001:000019ef       ?DUnadvise@?$IDataObjectImpl@VCOPOSMSR@@@ATL@@UAGJK@Z 100029ef f i MSR.obj
 0001:00001a1d       ?EnumDAdvise@?$IDataObjectImpl@VCOPOSMSR@@@ATL@@UAGJPAPAUIEnumSTATDATA@@@Z 10002a1d f i MSR.obj
 0001:00001a5c       ?GetClassInfoW@?$IProvideClassInfo2Impl@$1?CLSID_OPOSMSR@@3U_GUID@@B$1?DIID__IOPOSMSREvents@@3U2@B$1?LIBID_OposMSR_CCO@@3U2@B$00$0A@VCComTypeInfoHolder@ATL@@@ATL@@UAGJPAPAUITypeInfo@@@Z 10002a5c f i MSR.obj
 0001:00001a72       ?GetGUID@?$IProvideClassInfo2Impl@$1?CLSID_OPOSMSR@@3U_GUID@@B$1?DIID__IOPOSMSREvents@@3U2@B$1?LIBID_OposMSR_CCO@@3U2@B$00$0A@VCComTypeInfoHolder@ATL@@@ATL@@UAGJKPAU_GUID@@@Z 10002a72 f i MSR.obj
 0001:00001ab0       __get_startup_argv_mode    10002ab0 f i LIBCMT:argv_mode.obj
 0001:00001ab0       ?FAccessAllowed@?$IObjectSafetyImpl@VCOPOSMSR@@$02@ATL@@MAEHXZ 10002ab0 f i MSR.obj
 0001:00001ab4       ?GetInterfaceSafetyOptions@?$IObjectSafetyImpl@VCOPOSMSR@@$02@ATL@@UAGJABU_GUID@@PAK1@Z 10002ab4 f i MSR.obj
 0001:00001b28       ?SetInterfaceSafetyOptions@?$IObjectSafetyImpl@VCOPOSMSR@@$02@ATL@@UAGJABU_GUID@@KK@Z 10002b28 f i MSR.obj
 0001:00001ba2       ?_LocCPQueryInterface@?$IConnectionPointImpl@VCOPOSMSR@@$1?DIID__IOPOSMSREvents@@3U_GUID@@BVCComDynamicUnkArray@ATL@@@ATL@@UAGJABU_GUID@@PAPAX@Z 10002ba2 f i MSR.obj
 0001:00001ba2       ?_LocCPQueryInterface@?$IConnectionPointImpl@VCOPOSMSR@@$1?IID_IPropertyNotifySink@@3U_GUID@@BVCComDynamicUnkArray@ATL@@@ATL@@UAGJABU_GUID@@PAPAX@Z 10002ba2 f i MSR.obj
 0001:00001bef       ?GetConnectionInterface@?$IConnectionPointImpl@VCOPOSMSR@@$1?IID_IPropertyNotifySink@@3U_GUID@@BVCComDynamicUnkArray@ATL@@@ATL@@UAGJPAU_GUID@@@Z 10002bef f i MSR.obj
 0001:00001c13       ?GetConnectionPointContainer@?$IConnectionPointImpl@VCOPOSMSR@@$1?IID_IPropertyNotifySink@@3U_GUID@@BVCComDynamicUnkArray@ATL@@@ATL@@UAGJPAPAUIConnectionPointContainer@@@Z 10002c13 f i MSR.obj
 0001:00001c36       ?Advise@?$IConnectionPointImpl@VCOPOSMSR@@$1?IID_IPropertyNotifySink@@3U_GUID@@BVCComDynamicUnkArray@ATL@@@ATL@@UAGJPAUIUnknown@@PAK@Z 10002c36 f i MSR.obj
 0001:00001c36       ?Advise@?$IConnectionPointImpl@VCOPOSMSR@@$1?DIID__IOPOSMSREvents@@3U_GUID@@BVCComDynamicUnkArray@ATL@@@ATL@@UAGJPAUIUnknown@@PAK@Z 10002c36 f i MSR.obj
 0001:00001cd7       ?Unadvise@?$IConnectionPointImpl@VCOPOSMSR@@$1?DIID__IOPOSMSREvents@@3U_GUID@@BVCComDynamicUnkArray@ATL@@@ATL@@UAGJK@Z 10002cd7 f i MSR.obj
 0001:00001cd7       ?Unadvise@?$IConnectionPointImpl@VCOPOSMSR@@$1?IID_IPropertyNotifySink@@3U_GUID@@BVCComDynamicUnkArray@ATL@@@ATL@@UAGJK@Z 10002cd7 f i MSR.obj
 0001:00001d17       ?EnumConnections@?$IConnectionPointImpl@VCOPOSMSR@@$1?DIID__IOPOSMSREvents@@3U_GUID@@BVCComDynamicUnkArray@ATL@@@ATL@@UAGJPAPAUIEnumConnections@@@Z 10002d17 f i MSR.obj
 0001:00001d17       ?EnumConnections@?$IConnectionPointImpl@VCOPOSMSR@@$1?IID_IPropertyNotifySink@@3U_GUID@@BVCComDynamicUnkArray@ATL@@@ATL@@UAGJPAPAUIEnumConnections@@@Z 10002d17 f i MSR.obj
 0001:00001e1d       ?GetObjectDescription@?$CComCoClass@VCOPOSMSR@@$1?CLSID_OPOSMSR@@3U_GUID@@B@ATL@@SGPB_WXZ 10002e1d f i MSR.obj
 0001:00001e1d       ?GetCategoryMap@CComObjectRootBase@ATL@@SAPBU_ATL_CATMAP_ENTRY@2@XZ 10002e1d f i MSR.obj
 0001:00001e20       ?GetConnectionInterface@?$IConnectionPointImpl@VCOPOSMSR@@$1?DIID__IOPOSMSREvents@@3U_GUID@@BVCComDynamicUnkArray@ATL@@@ATL@@UAGJPAU_GUID@@@Z 10002e20 f i MSR.obj
 0001:00001e44       ?GetConnectionPointContainer@?$IConnectionPointImpl@VCOPOSMSR@@$1?DIID__IOPOSMSREvents@@3U_GUID@@BVCComDynamicUnkArray@ATL@@@ATL@@UAGJPAPAUIConnectionPointContainer@@@Z 10002e44 f i MSR.obj
 0001:00001e67       ?Lock@CAtlModule@ATL@@UAEJXZ 10002e67 f i MSR.obj
 0001:00001e71       ?Unlock@CAtlModule@ATL@@UAEJXZ 10002e71 f i MSR.obj
 0001:00001e7b       ?GetLockCount@CAtlModule@ATL@@UAEJXZ 10002e7b f i MSR.obj
 0001:00001e7f       ?GetGITPtr@CAtlModule@ATL@@UAEJPAPAUIGlobalInterfaceTable@@@Z 10002e7f f i MSR.obj
 0001:00001ecb       ?UpdateRegistry@COPOSMSR@@SGJH@Z 10002ecb f i MSR.obj
 0001:00001ee3       ?ProcessWindowMessage@COPOSMSR@@UAEHPAUHWND__@@IIJAAJK@Z 10002ee3 f i MSR.obj
 0001:00001f2c       ?SOData@COPOSMSR@@MAGJJ@Z  10002f2c f i MSR.obj
 0001:00001f65       ?SODirectIO@COPOSMSR@@MAGJJPAJPAPA_W@Z 10002f65 f i MSR.obj
 0001:00001fae       ?SOError@COPOSMSR@@MAGJJJJPAJ@Z 10002fae f i MSR.obj
 0001:00002003       ?SOStatusUpdate@COPOSMSR@@MAGJJ@Z 10003003 f i MSR.obj
 0001:0000203c       ?AddCommonRGSReplacements@?$CAtlModuleT@VCComModule@ATL@@@ATL@@UAEJPAUIRegistrarBase@@@Z 1000303c f i MSR.obj
 0001:00002056       ?UpdateRegistryFromResourceD@CComModule@ATL@@UAGJIHPAU_ATL_REGMAP_ENTRY@2@@Z 10003056 f i MSR.obj
 0001:00002056       ?UpdateRegistryFromResourceD@CComModule@ATL@@UAGJPB_WHPAU_ATL_REGMAP_ENTRY@2@@Z 10003056 f i MSR.obj
 0001:0000205e       ?UpdateRegistryFromResource@CComModule@ATL@@UAGJPB_WHPAU_ATL_REGMAP_ENTRY@2@@Z 1000305e f i MSR.obj
 0001:00002067       ?UpdateRegistryFromResource@CComModule@ATL@@UAGJIHPAU_ATL_REGMAP_ENTRY@2@@Z 10003067 f i MSR.obj
 0001:00002070       ??_GCComModule@ATL@@UAEPAXI@Z 10003070 f i MSR.obj
 0001:00002070       ??_ECComModule@ATL@@UAEPAXI@Z 10003070 f i MSR.obj
 0001:00002098       ?CreateInstance@?$CComCreator@V?$CComObjectCached@VCComClassFactory@ATL@@@ATL@@@ATL@@SGJPAXABU_GUID@@PAPAX@Z 10003098 f i MSR.obj
 0001:00002144       ?CreateInstance@?$CComCreator2@V?$CComCreator@V?$CComObject@VCOPOSMSR@@@ATL@@@ATL@@V?$CComCreator@V?$CComAggObject@VCOPOSMSR@@@ATL@@@2@@ATL@@SGJPAXABU_GUID@@PAPAX@Z 10003144 f i MSR.obj
 0001:00002164       ?AddRef@?$CComObjectCached@VCComClassFactory@ATL@@@ATL@@UAGKXZ 10003164 f i MSR.obj
 0001:0000218b       ?Release@?$CComObjectCached@VCComClassFactory@ATL@@@ATL@@UAGKXZ 1000318b f i MSR.obj
 0001:000021c1       ?QueryInterface@?$CComObjectCached@VCComClassFactory@ATL@@@ATL@@UAGJABU_GUID@@PAPAX@Z 100031c1 f i MSR.obj
 0001:000021db       ??_G?$CComObjectCached@VCComClassFactory@ATL@@@ATL@@UAEPAXI@Z 100031db f i MSR.obj
 0001:000021db       ??_E?$CComObjectCached@VCComClassFactory@ATL@@@ATL@@UAEPAXI@Z 100031db f i MSR.obj
 0001:000021fd       ?Next@?$CComEnumImpl@UIEnumConnectionPoints@@$1?_GUID_b196b285_bab4_101a_b69c_00aa00341d07@@3U__s_GUID@@BPAUIConnectionPoint@@V?$_CopyInterface@UIConnectionPoint@@@ATL@@@ATL@@UAGJKPAPAUIConnectionPoint@@PAK@Z 100031fd f i MSR.obj
 0001:000022d4       ?Skip@?$CComEnumImpl@UIEnumConnectionPoints@@$1?_GUID_b196b285_bab4_101a_b69c_00aa00341d07@@3U__s_GUID@@BPAUIConnectionPoint@@V?$_CopyInterface@UIConnectionPoint@@@ATL@@@ATL@@UAGJK@Z 100032d4 f i MSR.obj
 0001:00002301       ?Reset@?$CComEnumImpl@UIEnumConnections@@$1?_GUID_b196b287_bab4_101a_b69c_00aa00341d07@@3U__s_GUID@@BUtagCONNECTDATA@@V?$_Copy@UtagCONNECTDATA@@@ATL@@@ATL@@UAGJXZ 10003301 f i MSR.obj
 0001:00002301       ?Reset@?$CComEnumImpl@UIEnumConnectionPoints@@$1?_GUID_b196b285_bab4_101a_b69c_00aa00341d07@@3U__s_GUID@@BPAUIConnectionPoint@@V?$_CopyInterface@UIConnectionPoint@@@ATL@@@ATL@@UAGJXZ 10003301 f i MSR.obj
 0001:00002313       ?Clone@?$CComEnumImpl@UIEnumConnectionPoints@@$1?_GUID_b196b285_bab4_101a_b69c_00aa00341d07@@3U__s_GUID@@BPAUIConnectionPoint@@V?$_CopyInterface@UIConnectionPoint@@@ATL@@@ATL@@UAGJPAPAUIEnumConnectionPoints@@@Z 10003313 f i MSR.obj
 0001:000023f4       ?AddRef@?$CComObject@V?$CComEnum@UIEnumConnections@@$1?_GUID_b196b287_bab4_101a_b69c_00aa00341d07@@3U__s_GUID@@BUtagCONNECTDATA@@V?$_Copy@UtagCONNECTDATA@@@ATL@@VCComSingleThreadModel@6@@ATL@@@ATL@@UAGKXZ 100033f4 f i MSR.obj
 0001:000023f4       ?AddRef@?$CComObject@V?$CComEnum@UIEnumConnectionPoints@@$1?_GUID_b196b285_bab4_101a_b69c_00aa00341d07@@3U__s_GUID@@BPAUIConnectionPoint@@V?$_CopyInterface@UIConnectionPoint@@@ATL@@VCComSingleThreadModel@6@@ATL@@@ATL@@UAGKXZ 100033f4 f i MSR.obj
 0001:00002405       ?Release@?$CComObject@V?$CComEnum@UIEnumConnectionPoints@@$1?_GUID_b196b285_bab4_101a_b69c_00aa00341d07@@3U__s_GUID@@BPAUIConnectionPoint@@V?$_CopyInterface@UIConnectionPoint@@@ATL@@VCComSingleThreadModel@6@@ATL@@@ATL@@UAGKXZ 10003405 f i MSR.obj
 0001:00002405       ?Release@?$CComObject@V?$CComEnum@UIEnumConnections@@$1?_GUID_b196b287_bab4_101a_b69c_00aa00341d07@@3U__s_GUID@@BUtagCONNECTDATA@@V?$_Copy@UtagCONNECTDATA@@@ATL@@VCComSingleThreadModel@6@@ATL@@@ATL@@UAGKXZ 10003405 f i MSR.obj
 0001:00002441       ?QueryInterface@?$CComObject@V?$CComEnum@UIEnumConnectionPoints@@$1?_GUID_b196b285_bab4_101a_b69c_00aa00341d07@@3U__s_GUID@@BPAUIConnectionPoint@@V?$_CopyInterface@UIConnectionPoint@@@ATL@@VCComSingleThreadModel@6@@ATL@@@ATL@@UAGJABU_GUID@@PAPAX@Z 10003441 f i MSR.obj
 0001:0000245b       ??_E?$CComObject@V?$CComEnum@UIEnumConnectionPoints@@$1?_GUID_b196b285_bab4_101a_b69c_00aa00341d07@@3U__s_GUID@@BPAUIConnectionPoint@@V?$_CopyInterface@UIConnectionPoint@@@ATL@@VCComSingleThreadModel@6@@ATL@@@ATL@@UAEPAXI@Z 1000345b f i MSR.obj
 0001:0000245b       ??_G?$CComObject@V?$CComEnum@UIEnumConnectionPoints@@$1?_GUID_b196b285_bab4_101a_b69c_00aa00341d07@@3U__s_GUID@@BPAUIConnectionPoint@@V?$_CopyInterface@UIConnectionPoint@@@ATL@@VCComSingleThreadModel@6@@ATL@@@ATL@@UAEPAXI@Z 1000345b f i MSR.obj
 0001:0000247d       ?AddRef@CRegObject@ATL@@UAGKXZ 1000347d f i MSR.obj
 0001:00002483       ?AddReplacement@CRegObject@ATL@@UAGJPB_W0@Z 10003483 f i MSR.obj
 0001:000024bc       ?ClearReplacements@CRegObject@ATL@@UAGJXZ 100034bc f i MSR.obj
 0001:000024ce       ??_ECRegObject@ATL@@UAEPAXI@Z 100034ce f i MSR.obj
 0001:000024ce       ??_GCRegObject@ATL@@UAEPAXI@Z 100034ce f i MSR.obj
 0001:000024f0       ?AddRef@?$CComAggObject@VCOPOSMSR@@@ATL@@UAGKXZ 100034f0 f i MSR.obj
 0001:00002501       ?Release@?$CComAggObject@VCOPOSMSR@@@ATL@@UAGKXZ 10003501 f i MSR.obj
 0001:0000253d       ?QueryInterface@?$CComAggObject@VCOPOSMSR@@@ATL@@UAGJABU_GUID@@PAPAX@Z 1000353d f i MSR.obj
 0001:0000258c       ?AddRef@?$CComContainedObject@VCOPOSMSR@@@ATL@@UAGKXZ 1000358c f i MSR.obj
 0001:000025a2       ?Release@?$CComContainedObject@VCOPOSMSR@@@ATL@@UAGKXZ 100035a2 f i MSR.obj
 0001:000025b8       ?QueryInterface@?$CComContainedObject@VCOPOSMSR@@@ATL@@UAGJABU_GUID@@PAPAX@Z 100035b8 f i MSR.obj
 0001:000025d3       ??_G?$CComAggObject@VCOPOSMSR@@@ATL@@UAEPAXI@Z 100035d3 f i MSR.obj
 0001:000025d3       ??_E?$CComAggObject@VCOPOSMSR@@@ATL@@UAEPAXI@Z 100035d3 f i MSR.obj
 0001:000025f8       ?AddRef@?$CComObject@VCOPOSMSR@@@ATL@@UAGKXZ 100035f8 f i MSR.obj
 0001:0000260f       ?Release@?$CComObject@VCOPOSMSR@@@ATL@@UAGKXZ 1000360f f i MSR.obj
 0001:00002651       ?QueryInterface@?$CComObject@VCOPOSMSR@@@ATL@@UAGJABU_GUID@@PAPAX@Z 10003651 f i MSR.obj
 0001:0000266b       ?OnDrawAdvanced@CComControlBase@ATL@@UAEJAAUATL_DRAWINFO@@@Z 1000366b f i MSR.obj
 0001:0000275e       ?Next@?$CComEnumImpl@UIEnumConnections@@$1?_GUID_b196b287_bab4_101a_b69c_00aa00341d07@@3U__s_GUID@@BUtagCONNECTDATA@@V?$_Copy@UtagCONNECTDATA@@@ATL@@@ATL@@UAGJKPAUtagCONNECTDATA@@PAK@Z 1000375e f i MSR.obj
 0001:00002835       ?Skip@?$CComEnumImpl@UIEnumConnections@@$1?_GUID_b196b287_bab4_101a_b69c_00aa00341d07@@3U__s_GUID@@BUtagCONNECTDATA@@V?$_Copy@UtagCONNECTDATA@@@ATL@@@ATL@@UAGJK@Z 10003835 f i MSR.obj
 0001:00002862       ?Clone@?$CComEnumImpl@UIEnumConnections@@$1?_GUID_b196b287_bab4_101a_b69c_00aa00341d07@@3U__s_GUID@@BUtagCONNECTDATA@@V?$_Copy@UtagCONNECTDATA@@@ATL@@@ATL@@UAGJPAPAUIEnumConnections@@@Z 10003862 f i MSR.obj
 0001:00002943       ?QueryInterface@?$CComObject@V?$CComEnum@UIEnumConnections@@$1?_GUID_b196b287_bab4_101a_b69c_00aa00341d07@@3U__s_GUID@@BUtagCONNECTDATA@@V?$_Copy@UtagCONNECTDATA@@@ATL@@VCComSingleThreadModel@6@@ATL@@@ATL@@UAGJABU_GUID@@PAPAX@Z 10003943 f i MSR.obj
 0001:0000295d       ??_E?$CComObject@V?$CComEnum@UIEnumConnections@@$1?_GUID_b196b287_bab4_101a_b69c_00aa00341d07@@3U__s_GUID@@BUtagCONNECTDATA@@V?$_Copy@UtagCONNECTDATA@@@ATL@@VCComSingleThreadModel@6@@ATL@@@ATL@@UAEPAXI@Z 1000395d f i MSR.obj
 0001:0000295d       ??_G?$CComObject@V?$CComEnum@UIEnumConnections@@$1?_GUID_b196b287_bab4_101a_b69c_00aa00341d07@@3U__s_GUID@@BUtagCONNECTDATA@@V?$_Copy@UtagCONNECTDATA@@@ATL@@VCComSingleThreadModel@6@@ATL@@@ATL@@UAEPAXI@Z 1000395d f i MSR.obj
 0001:0000297f       ??_E?$CComObject@VCOPOSMSR@@@ATL@@W3AEPAXI@Z 1000397f f i MSR.obj
 0001:00002987       ??_E?$CComObject@VCOPOSMSR@@@ATL@@WEM@AEPAXI@Z 10003987 f i MSR.obj
 0001:0000298f       ?QueryInterface@?$CComObject@VCOPOSMSR@@@ATL@@WHA@AGJABU_GUID@@PAPAX@Z 1000398f f i MSR.obj
 0001:00002999       ?AddRef@?$CComObject@VCOPOSMSR@@@ATL@@WHA@AGKXZ 10003999 f i MSR.obj
 0001:000029a3       ?Release@?$CComObject@VCOPOSMSR@@@ATL@@WHA@AGKXZ 100039a3 f i MSR.obj
 0001:000029ad       ?QueryInterface@?$CComObject@VCOPOSMSR@@@ATL@@WHE@AGJABU_GUID@@PAPAX@Z 100039ad f i MSR.obj
 0001:000029b7       ?AddRef@?$CComObject@VCOPOSMSR@@@ATL@@WHE@AGKXZ 100039b7 f i MSR.obj
 0001:000029c1       ?Release@?$CComObject@VCOPOSMSR@@@ATL@@WHE@AGKXZ 100039c1 f i MSR.obj
 0001:000029cb       ?QueryInterface@?$CComObject@VCOPOSMSR@@@ATL@@WHI@AGJABU_GUID@@PAPAX@Z 100039cb f i MSR.obj
 0001:000029d5       ?AddRef@?$CComObject@VCOPOSMSR@@@ATL@@WHI@AGKXZ 100039d5 f i MSR.obj
 0001:000029df       ?Release@?$CComObject@VCOPOSMSR@@@ATL@@WHI@AGKXZ 100039df f i MSR.obj
 0001:000029e9       ?QueryInterface@?$CComObject@VCOPOSMSR@@@ATL@@WHM@AGJABU_GUID@@PAPAX@Z 100039e9 f i MSR.obj
 0001:000029f3       ??$?4UITypeInfo2@@@?$CComPtr@UITypeInfo@@@ATL@@QAEPAUITypeInfo@@ABV?$CComPtr@UITypeInfo2@@@1@@Z 100039f3 f i MSR.obj
 0001:00002a20       ??$AtlAdd@K@ATL@@YAJPAKKK@Z 10003a20 f i MSR.obj
 0001:00002a43       ??$AtlAdd@_K@ATL@@YAJPA_K_K1@Z 10003a43 f i MSR.obj
 0001:00002a7b       ??$AtlAddThrow@K@ATL@@YAKKK@Z 10003a7b f i MSR.obj
 0001:00002aa1       ??$AtlModuleRegisterWndClassInfoT@VAtlModuleRegisterWndClassInfoParamW@ATL@@@ATL@@YAGPAU_ATL_BASE_MODULE70@0@PAU_ATL_WIN_MODULE70@0@PAU_ATL_WNDCLASSINFOW@0@PAP6GJPAUHWND__@@IIJ@ZVAtlModuleRegisterWndClassInfoParamW@0@@Z 10003aa1 f i MSR.obj
 0001:00002bef       ??$AtlMultiply@H@ATL@@YAJPAHHH@Z 10003bef f i MSR.obj
 0001:00002c27       ??$AtlMultiply@I@ATL@@YAJPAIII@Z 10003c27 f i MSR.obj
 0001:00002c27       ??$AtlMultiply@K@ATL@@YAJPAKKK@Z 10003c27 f i MSR.obj
 0001:00002c49       ??$AtlMultiplyThrow@I@ATL@@YAIII@Z 10003c49 f i MSR.obj
 0001:00002c6f       ??0?$CComAggObject@VCOPOSMSR@@@ATL@@QAE@PAX@Z 10003c6f f i MSR.obj
 0001:00002c9c       ??0?$CComContainedObject@VCOPOSMSR@@@ATL@@QAE@PAX@Z 10003c9c f i MSR.obj
 0001:00002d55       ??0?$CComObject@V?$CComEnum@UIEnumConnectionPoints@@$1?_GUID_b196b285_bab4_101a_b69c_00aa00341d07@@3U__s_GUID@@BPAUIConnectionPoint@@V?$_CopyInterface@UIConnectionPoint@@@ATL@@VCComSingleThreadModel@6@@ATL@@@ATL@@QAE@PAX@Z 10003d55 f i MSR.obj
 0001:00002d83       ??0?$CComObject@V?$CComEnum@UIEnumConnections@@$1?_GUID_b196b287_bab4_101a_b69c_00aa00341d07@@3U__s_GUID@@BUtagCONNECTDATA@@V?$_Copy@UtagCONNECTDATA@@@ATL@@VCComSingleThreadModel@6@@ATL@@@ATL@@QAE@PAX@Z 10003d83 f i MSR.obj
 0001:00002db1       ??0?$CComObject@VCOPOSMSR@@@ATL@@QAE@PAX@Z 10003db1 f i MSR.obj
 0001:00002e68       ??0?$CComQIPtr@UIOleControlSite@@$1?_GUID_b196b289_bab4_101a_b69c_00aa00341d07@@3U__s_GUID@@B@ATL@@QAE@PAUIUnknown@@@Z 10003e68 f i MSR.obj
 0001:00002e91       ??0CAtlModule@ATL@@QAE@XZ  10003e91 f i MSR.obj
 0001:00002ed2       ??0CParseBuffer@CRegParser@ATL@@QAE@H@Z 10003ed2 f i MSR.obj
 0001:00002f08       ??0_ATL_MSG@ATL@@QAE@PAUHWND__@@IIJH@Z 10003f08 f i MSR.obj
 0001:00002f40       ??1?$CComAggObject@VCOPOSMSR@@@ATL@@UAE@XZ 10003f40 f i MSR.obj
 0001:00002f64       ??1?$CComEnumImpl@UIEnumConnectionPoints@@$1?_GUID_b196b285_bab4_101a_b69c_00aa00341d07@@3U__s_GUID@@BPAUIConnectionPoint@@V?$_CopyInterface@UIConnectionPoint@@@ATL@@@ATL@@UAE@XZ 10003f64 f i MSR.obj
 0001:00002fa4       ??1?$CComEnumImpl@UIEnumConnections@@$1?_GUID_b196b287_bab4_101a_b69c_00aa00341d07@@3U__s_GUID@@BUtagCONNECTDATA@@V?$_Copy@UtagCONNECTDATA@@@ATL@@@ATL@@UAE@XZ 10003fa4 f i MSR.obj
 0001:00002fe4       ??1?$CComObject@V?$CComEnum@UIEnumConnectionPoints@@$1?_GUID_b196b285_bab4_101a_b69c_00aa00341d07@@3U__s_GUID@@BPAUIConnectionPoint@@V?$_CopyInterface@UIConnectionPoint@@@ATL@@VCComSingleThreadModel@6@@ATL@@@ATL@@UAE@XZ 10003fe4 f i MSR.obj
 0001:00003007       ??1?$CComObject@V?$CComEnum@UIEnumConnections@@$1?_GUID_b196b287_bab4_101a_b69c_00aa00341d07@@3U__s_GUID@@BUtagCONNECTDATA@@V?$_Copy@UtagCONNECTDATA@@@ATL@@VCComSingleThreadModel@6@@ATL@@@ATL@@UAE@XZ 10004007 f i MSR.obj
 0001:0000302a       ??1?$CComObject@VCOPOSMSR@@@ATL@@UAE@XZ 1000402a f i MSR.obj
 0001:000030e8       ??1?$CComObjectCached@VCComClassFactory@ATL@@@ATL@@UAE@XZ 100040e8 f i MSR.obj
 0001:000030fe       ??1?$CComObjectRootEx@VCComMultiThreadModel@ATL@@@ATL@@QAE@XZ 100040fe f i MSR.obj
 0001:00003113       ??1CRegObject@ATL@@UAE@XZ  10004113 f i MSR.obj
 0001:00003133       ??4?$CComPtr@UIAdviseSink@@@ATL@@QAEPAUIAdviseSink@@PAU2@@Z 10004133 f i MSR.obj
 0001:00003133       ??4?$CComPtr@UIOleClientSite@@@ATL@@QAEPAUIOleClientSite@@PAU2@@Z 10004133 f i MSR.obj
 0001:00003133       ??4?$CComPtr@UIUnknown@@@ATL@@QAEPAUIUnknown@@PAU2@@Z 10004133 f i MSR.obj
 0001:00003167       ??_G?$CComContainedObject@VCOPOSMSR@@@ATL@@UAEPAXI@Z 10004167 f i MSR.obj
 0001:00003167       ??_E?$CComContainedObject@VCOPOSMSR@@@ATL@@UAEPAXI@Z 10004167 f i MSR.obj
 0001:0000318c       ??_E?$CComObject@VCOPOSMSR@@@ATL@@UAEPAXI@Z 1000418c f i MSR.obj
 0001:0000318c       ??_G?$CComObject@VCOPOSMSR@@@ATL@@UAEPAXI@Z 1000418c f i MSR.obj
 0001:000031b1       ?Add@?$CSimpleArray@GV?$CSimpleArrayEqualHelper@G@ATL@@@ATL@@QAEHABG@Z 100041b1 f i MSR.obj
 0001:00003235       ?Add@?$CSimpleMap@PA_WPA_WVCExpansionVectorEqualHelper@ATL@@@ATL@@QAEHABQA_W0@Z 10004235 f i MSR.obj
 0001:0000328a       ?Add@CComDynamicUnkArray@ATL@@QAEKPAUIUnknown@@@Z 1000428a f i MSR.obj
 0001:00003340       ?Add@CExpansionVector@ATL@@QAEHPB_W0@Z 10004340 f i MSR.obj
 0001:00003449       ?AddString@CParseBuffer@CRegParser@ATL@@QAEHPB_W@Z 10004449 f i MSR.obj
 0001:0000347e       ?AddTermFunc@CAtlModule@ATL@@QAEJP6GXK@ZK@Z 1000447e f i MSR.obj
 0001:000034e1       ?AddValue@CRegParser@ATL@@IAEJAAVCRegKey@2@PB_WPA_W@Z 100044e1 f i MSR.obj
 0001:000037fb       ?Allocate@?$CAtlSafeAllocBufferManager@VCCRTAllocator@ATL@@@_ATL_SAFE_ALLOCA_IMPL@ATL@@QAEPAXK@Z 100047fb f i MSR.obj
 0001:00003828       ?Allocate@?$CTempBuffer@E$0BAA@VCCRTAllocator@ATL@@@ATL@@QAEPAEI@Z 10004828 f i MSR.obj
 0001:00003857       ?Allocate@?$CTempBuffer@_W$0BAA@VCCRTAllocator@ATL@@@ATL@@QAEPA_WI@Z 10004857 f i MSR.obj
 0001:00003886       ?Allocate@?$CTempBuffer@_W$0EAA@VCCRTAllocator@ATL@@@ATL@@QAEPA_WI@Z 10004886 f i MSR.obj
 0001:000038b5       ?AllocateHeap@?$CTempBuffer@_W$0BAA@VCCRTAllocator@ATL@@@ATL@@AAEXI@Z 100048b5 f i MSR.obj
 0001:000038b5       ?AllocateHeap@?$CTempBuffer@E$0BAA@VCCRTAllocator@ATL@@@ATL@@AAEXI@Z 100048b5 f i MSR.obj
 0001:000038b5       ?AllocateHeap@?$CTempBuffer@_W$0EAA@VCCRTAllocator@ATL@@@ATL@@AAEXI@Z 100048b5 f i MSR.obj
 0001:000038da       ?Append@CParseBuffer@CRegParser@ATL@@QAEHPB_WH@Z 100048da f i MSR.obj
 0001:00003968       ?AtlCoTaskMemCAlloc@ATL@@YAPAXKK@Z 10004968 f i MSR.obj
 0001:00003995       ?AtlCoTaskMemRecalloc@ATL@@YAPAXPAXKK@Z 10004995 f i MSR.obj
 0001:000039c5       ?AtlComModuleGetClassObject@ATL@@YGJPAU_ATL_COM_MODULE70@1@ABU_GUID@@1PAPAX@Z 100049c5 f i MSR.obj
 0001:00003ab8       ?AtlComModuleRegisterServer@ATL@@YGJPAU_ATL_COM_MODULE70@1@HPBU_GUID@@@Z 10004ab8 f i MSR.obj
 0001:00003b40       ?AtlComModuleUnregisterServer@ATL@@YGJPAU_ATL_COM_MODULE70@1@HPBU_GUID@@@Z 10004b40 f i MSR.obj
 0001:00003bc8       ?AtlComQIPtrAssign2@ATL@@YAXPAPAUIUnknown@@PAU2@ABU_GUID@@@Z 10004bc8 f i MSR.obj
 0001:00003bf7       ?AtlCreateTargetDC@ATL@@YGPAUHDC__@@PAU2@PAUtagDVTARGETDEVICE@@@Z 10004bf7 f i MSR.obj
 0001:00003c60       ?AtlCrtErrorCheck@ATL@@YAHH@Z 10004c60 f i MSR.obj
 0001:00003c9b       ?AtlHiMetricToPixel@ATL@@YGXPBUtagSIZE@@PAU2@@Z 10004c9b f i MSR.obj
 0001:00003d10       ?AtlHresultFromLastError@ATL@@YAJXZ 10004d10 f i MSR.obj
 0001:00003d27       ?AtlHresultFromWin32@ATL@@YAJK@Z 10004d27 f i MSR.obj
 0001:00003d3c       ?AtlInternalOleLoadFromStream@ATL@@YAJPAUIStream@@ABU_GUID@@PAPAXTClassesAllowedInStream@1@K@Z 10004d3c f i MSR.obj
 0001:00003e62       ?AtlInternalQueryInterface@ATL@@YGJPAXPBU_ATL_INTMAP_ENTRY@1@ABU_GUID@@PAPAX@Z 10004e62 f i MSR.obj
 0001:00003f05       ?AtlLoadTypeLib@ATL@@YGJPAUHINSTANCE__@@PB_WPAPA_WPAPAUITypeLib@@@Z 10004f05 f i MSR.obj
 0001:000040e3       ?AtlRegisterClassCategoriesHelper@ATL@@YGJABU_GUID@@PBU_ATL_CATMAP_ENTRY@1@H@Z 100050e3 f i MSR.obj
 0001:000043df       ?AtlRegisterTypeLib@ATL@@YGJPAUHINSTANCE__@@PB_W@Z 100053df f i MSR.obj
 0001:00004567       ?AtlThrowImpl@ATL@@YGXJ@Z  10005567 f i MSR.obj
 0001:00004585       ?AtlUnRegisterTypeLib@ATL@@YGJPAUHINSTANCE__@@PB_W@Z 10005585 f i MSR.obj
 0001:00004630       ?AtlWinModuleAddCreateWndData@ATL@@YGXPAU_ATL_WIN_MODULE70@1@PAU_AtlCreateWndData@1@PAX@Z 10005630 f i MSR.obj
 0001:00004684       ?AtlWinModuleExtractCreateWndData@ATL@@YGPAXPAU_ATL_WIN_MODULE70@1@@Z 10005684 f i MSR.obj
 0001:000046e7       ?AtlWinModuleRegisterClassExW@ATL@@YGGPAU_ATL_WIN_MODULE70@1@PBUtagWNDCLASSEXW@@@Z 100056e7 f i MSR.obj
 0001:00004726       ?CanForceRemoveKey@CRegParser@ATL@@IAEHPB_W@Z 10005726 f i MSR.obj
 0001:00004755       ?ChToByte@CRegParser@ATL@@KAE_W@Z 10005755 f i MSR.obj
 0001:00004788       ?Cleanup@CComTypeInfoHolder@ATL@@SGXK@Z 10005788 f i MSR.obj
 0001:000047bb       ?ClearReplacements@CExpansionVector@ATL@@QAEJXZ 100057bb f i MSR.obj
 0001:000047f8       ?Close@CRegKey@ATL@@QAEJXZ 100057f8 f i MSR.obj
 0001:00004812       ?CreateInstance@?$CComCreator@V?$CComAggObject@VCOPOSMSR@@@ATL@@@ATL@@SGJPAXABU_GUID@@PAPAX@Z 10005812 f i MSR.obj
 0001:00004888       ?CreateInstance@?$CComCreator@V?$CComObject@VCOPOSMSR@@@ATL@@@ATL@@SGJPAXABU_GUID@@PAPAX@Z 10005888 f i MSR.obj
 0001:00004909       ?CreateInstance@?$CComObject@V?$CComEnum@UIEnumConnectionPoints@@$1?_GUID_b196b285_bab4_101a_b69c_00aa00341d07@@3U__s_GUID@@BPAUIConnectionPoint@@V?$_CopyInterface@UIConnectionPoint@@@ATL@@VCComSingleThreadModel@6@@ATL@@@ATL@@SGJPAPAV12@@Z 10005909 f i MSR.obj
 0001:00004950       ?CreateInstance@?$CComObject@V?$CComEnum@UIEnumConnections@@$1?_GUID_b196b287_bab4_101a_b69c_00aa00341d07@@3U__s_GUID@@BUtagCONNECTDATA@@V?$_Copy@UtagCONNECTDATA@@@ATL@@VCComSingleThreadModel@6@@ATL@@@ATL@@SGJPAPAV12@@Z 10005950 f i MSR.obj
 0001:00004997       ?DefaultReflectionHandler@?$CWindowImplRoot@VCWindow@ATL@@@ATL@@SAHPAUHWND__@@IIJAAJ@Z 10005997 f i MSR.obj
 0001:00004a0a       ?DeleteSubKey@CRegKey@ATL@@QAEJPB_W@Z 10005a0a f i MSR.obj
 0001:00004a83       ?DoEvent@COPOSMSR@@IAEXIIJ@Z 10005a83 f i MSR.obj
 0001:00004b03       ?DoVerbHide@?$IOleObjectImpl@VCOPOSMSR@@@ATL@@QAEJPBUtagRECT@@PAUHWND__@@@Z 10005b03 f i MSR.obj
 0001:00004b39       ?DoVerbInPlaceActivate@?$IOleObjectImpl@VCOPOSMSR@@@ATL@@QAEJPBUtagRECT@@PAUHWND__@@@Z 10005b39 f i MSR.obj
 0001:00004b6c       ?DoVerbPrimary@?$IOleObjectImpl@VCOPOSMSR@@@ATL@@QAEJPBUtagRECT@@PAUHWND__@@@Z 10005b6c f i MSR.obj
 0001:00004bf8       ?DoVerbProperties@CComControlBase@ATL@@QAEJPBUtagRECT@@PAUHWND__@@@Z 10005bf8 f i MSR.obj
 0001:00004d77       ?DoVerbUIActivate@?$IOleObjectImpl@VCOPOSMSR@@@ATL@@QAEJPBUtagRECT@@PAUHWND__@@@Z 10005d77 f i MSR.obj
 0001:00004db4       ?DoesVerbActivate@CComControlBase@ATL@@QAEHJ@Z 10005db4 f i MSR.obj
 0001:00004dd5       ?DoesVerbUIActivate@CComControlBase@ATL@@QAEHJ@Z 10005dd5 f i MSR.obj
 0001:00004e0a       ?EndOfVar@CRegParser@ATL@@IAEHXZ 10005e0a f i MSR.obj
 0001:00004e2a       ?EscapeSingleQuote@CAtlModule@ATL@@SAXPA_WIPB_W@Z 10005e2a f i MSR.obj
 0001:00004e79       ?FindKey@?$CSimpleMap@PA_WPA_WVCExpansionVectorEqualHelper@ATL@@@ATL@@QBEHABQA_W@Z 10005e79 f i MSR.obj
 0001:00004eb0       ?FireTheEvent@?$CProxy_IOPOSEvents@VCOPOSMSR@@@@IAEXPAVOposVariant@@IAAJPB_WJ@Z 10005eb0 f i MSR.obj
 0001:00004f42       ?FireViewChange@CComControlBase@ATL@@QAEJXZ 10005f42 f i MSR.obj
 0001:00004f8b       ?Fire_DataEvent@?$CProxy_IOPOSEvents@VCOPOSMSR@@@@QAEXJ@Z 10005f8b f i MSR.obj
 0001:0000501e       ?Fire_DirectIOEvent@?$CProxy_IOPOSEvents@VCOPOSMSR@@@@QAEXJPAJPAPA_W@Z 1000601e f i MSR.obj
 0001:00005107       ?Fire_ErrorEvent@?$CProxy_IOPOSEvents@VCOPOSMSR@@@@QAEXJJJPAJ@Z 10006107 f i MSR.obj
 0001:000051f1       ?Fire_StatusUpdateEvent@?$CProxy_IOPOSEvents@VCOPOSMSR@@@@QAEXJ@Z 100061f1 f i MSR.obj
 0001:00005284       ?FreeHeap@?$CTempBuffer@_W$0EAA@VCCRTAllocator@ATL@@@ATL@@AAEXXZ 10006284 f i MSR.obj
 0001:00005284       ?FreeHeap@?$CTempBuffer@E$0BAA@VCCRTAllocator@ATL@@@ATL@@AAEXXZ 10006284 f i MSR.obj
 0001:00005284       ?FreeHeap@?$CTempBuffer@_W$0BAA@VCCRTAllocator@ATL@@@ATL@@AAEXXZ 10006284 f i MSR.obj
 0001:0000528d       ?GetAmbientLocaleID@CComControlBase@ATL@@QAEJAAK@Z 1000628d f i MSR.obj
 0001:000052e9       ?GetAmbientUserMode@CComControlBase@ATL@@QAEJAAH@Z 100062e9 f i MSR.obj
 0001:00005359       ?GetAt@CComDynamicUnkArray@ATL@@QAEPAUIUnknown@@H@Z 10006359 f i MSR.obj
 0001:00005375       ?GetClassObject@CComModule@ATL@@QAEJABU_GUID@@0PAPAX@Z 10006375 f i MSR.obj
 0001:00005417       ?GetConnMap@COPOSMSR@@SAPBU_ATL_CONNMAP_ENTRY@ATL@@PAH@Z 10006417 f i MSR.obj
 0001:00005487       ?GetCookie@CComDynamicUnkArray@ATL@@QAGKPAPAUIUnknown@@@Z 10006487 f i MSR.obj
 0001:000054bf       ?GetIDsOfNames@CComTypeInfoHolder@ATL@@QAEJABU_GUID@@PAPA_WIKPAJ@Z 100064bf f i MSR.obj
 0001:000055e6       ?GetKeyAt@?$CSimpleMap@PA_WPA_WVCExpansionVectorEqualHelper@ATL@@@ATL@@QBEAAPA_WH@Z 100065e6 f i MSR.obj
 0001:0000560b       ?GetPagesHelper@?$ISpecifyPropertyPagesImpl@VCOPOSMSR@@@ATL@@IAEJPAUtagCAUUID@@PBUATL_PROPMAP_ENTRY@2@@Z 1000660b f i MSR.obj
 0001:00005732       ?GetProperty@?$CComPtr@UIDispatch@@@ATL@@SAJPAUIDispatch@@JPAUtagVARIANT@@@Z 10006732 f i MSR.obj
 0001:00005781       ?GetSizeMax@CComVariant@ATL@@QBEJPAT_ULARGE_INTEGER@@@Z 10006781 f i MSR.obj
 0001:00005947       ?GetTI@CComTypeInfoHolder@ATL@@QAEJK@Z 10006947 f i MSR.obj
 0001:00005b26       ?GetTI@CComTypeInfoHolder@ATL@@QAEJKPAPAUITypeInfo@@@Z 10006b26 f i MSR.obj
 0001:00005b68       ?GetUnknown@CComDynamicUnkArray@ATL@@QAGPAUIUnknown@@K@Z 10006b68 f i MSR.obj
 0001:00005b89       ?GetValueAt@?$CSimpleMap@PA_WPA_WVCExpansionVectorEqualHelper@ATL@@@ATL@@QBEAAPA_WH@Z 10006b89 f i MSR.obj
 0001:00005baf       ?GetZoomInfo@CComControlBase@ATL@@QAEXAAUATL_DRAWINFO@@@Z 10006baf f i MSR.obj
 0001:00005c42       ?HKeyFromString@CRegParser@ATL@@KAPAUHKEY__@@PA_W@Z 10006c42 f i MSR.obj
 0001:00005c70       ?HasSubKeys@CRegParser@ATL@@IAEHPAUHKEY__@@@Z 10006c70 f i MSR.obj
 0001:00005ca5       ?IDataObject_GetData@CComControlBase@ATL@@QAEJPAUtagFORMATETC@@PAUtagSTGMEDIUM@@@Z 10006ca5 f i MSR.obj
 0001:00005e4b       ?IOleInPlaceObject_InPlaceDeactivate@CComControlBase@ATL@@QAEJXZ 10006e4b f i MSR.obj
 0001:00005ed2       ?IOleInPlaceObject_SetObjectRects@CComControlBase@ATL@@QAEJPBUtagRECT@@0@Z 10006ed2 f i MSR.obj
 0001:00005f9f       ?IOleInPlaceObject_UIDeactivate@CComControlBase@ATL@@QAEJXZ 10006f9f f i MSR.obj
 0001:00006061       ?IOleObject_Advise@CComControlBase@ATL@@QAEJPAUIAdviseSink@@PAK@Z 10007061 f i MSR.obj
 0001:0000608b       ?IOleObject_Close@CComControlBase@ATL@@QAEJK@Z 1000708b f i MSR.obj
 0001:0000616f       ?IOleObject_GetClientSite@CComControlBase@ATL@@QAEJPAPAUIOleClientSite@@@Z 1000716f f i MSR.obj
 0001:00006198       ?IOleObject_SetClientSite@CComControlBase@ATL@@QAEJPAUIOleClientSite@@@Z 10007198 f i MSR.obj
 0001:000061d7       ?IOleObject_SetExtent@CComControlBase@ATL@@QAEJKPAUtagSIZE@@@Z 100071d7 f i MSR.obj
 0001:0000628b       ?IPSI_GetIPersistStreamInit@?$IPersistStorageImpl@VCOPOSMSR@@@ATL@@AAEPAUIPersistStreamInit@@XZ 1000728b f i MSR.obj
 0001:00006333       ?IPersistStreamInit_Load@?$IPersistStreamInitImpl@VCOPOSMSR@@@ATL@@QAEJPAUIStream@@PBUATL_PROPMAP_ENTRY@2@@Z 10007333 f i MSR.obj
 0001:000065af       ?IPersistStreamInit_Save@?$IPersistStreamInitImpl@VCOPOSMSR@@@ATL@@QAEJPAUIStream@@HPBUATL_PROPMAP_ENTRY@2@@Z 100075af f i MSR.obj
 0001:0000679d       ?IQuickActivate_QuickActivate@CComControlBase@ATL@@QAEJPAUtagQACONTAINER@@PAUtagQACONTROL@@@Z 1000779d f i MSR.obj
 0001:000069df       ?IViewObject_Draw@CComControlBase@ATL@@QAEJKJPAXPAUtagDVTARGETDEVICE@@PAUHDC__@@2PBU_RECTL@@3@Z 100079df f i MSR.obj
 0001:00006a87       ?InPlaceActivate@CComControlBase@ATL@@QAEJJPBUtagRECT@@@Z 10007a87 f i MSR.obj
 0001:00006cf8       ?Init@?$CComEnumImpl@UIEnumConnectionPoints@@$1?_GUID_b196b285_bab4_101a_b69c_00aa00341d07@@3U__s_GUID@@BPAUIConnectionPoint@@V?$_CopyInterface@UIConnectionPoint@@@ATL@@@ATL@@QAEJPAPAUIConnectionPoint@@0PAUIUnknown@@W4CComEnumFlags@2@@Z 10007cf8 f i MSR.obj
 0001:00006dd7       ?Init@?$CComEnumImpl@UIEnumConnections@@$1?_GUID_b196b287_bab4_101a_b69c_00aa00341d07@@3U__s_GUID@@BUtagCONNECTDATA@@V?$_Copy@UtagCONNECTDATA@@@ATL@@@ATL@@QAEJPAUtagCONNECTDATA@@0PAUIUnknown@@W4CComEnumFlags@2@@Z 10007dd7 f i MSR.obj
 0001:00006eb6       ?Init@CComModule@ATL@@QAEJPAU_ATL_OBJMAP_ENTRY30@2@PAUHINSTANCE__@@PBU_GUID@@@Z 10007eb6 f i MSR.obj
 0001:00006f15       ?Init@CDynamicStdCallThunk2@ATL@@QAEHKPAX@Z 10007f15 f i MSR.obj
 0001:00006f40       ?InlineIsEqualUnknown@ATL@@YGHABU_GUID@@@Z 10007f40 f i MSR.obj
 0001:00006f68       ?InternalSetAtIndex@?$CSimpleMap@PA_WPA_WVCExpansionVectorEqualHelper@ATL@@@ATL@@QAEXHABQA_W0@Z 10007f68 f i MSR.obj
 0001:00006f92       ?Invoke@CComTypeInfoHolder@ATL@@QAEJPAUIDispatch@@JABU_GUID@@KGPAUtagDISPPARAMS@@PAUtagVARIANT@@PAUtagEXCEPINFO@@PAI@Z 10007f92 f i MSR.obj
 0001:00006fd5       ?IsEqualObject@?$CComPtrBase@UIOleClientSite@@@ATL@@QAE_NPAUIUnknown@@@Z 10007fd5 f i MSR.obj
 0001:00006fd5       ?IsEqualObject@?$CComPtrBase@UITypeInfo@@@ATL@@QAE_NPAUIUnknown@@@Z 10007fd5 f i MSR.obj
 0001:00007042       ?IsSpace@CRegParser@ATL@@IAEH_W@Z 10008042 f i MSR.obj
 0001:0000706c       ?LoadNameCache@CComTypeInfoHolder@ATL@@QAEJPAUITypeInfo@@@Z 1000806c f i MSR.obj
 0001:000071b8       ?Lookup@?$CSimpleMap@PA_WPA_WVCExpansionVectorEqualHelper@ATL@@@ATL@@QBEPA_WABQA_W@Z 100081b8 f i MSR.obj
 0001:000071de       ?NextToken@CRegParser@ATL@@IAEJPA_W@Z 100081de f i MSR.obj
 0001:00007316       ?OnKillFocus@CComControlBase@ATL@@QAEJIIJAAH@Z 10008316 f i MSR.obj
 0001:00007371       ?OnMouseActivate@CComControlBase@ATL@@QAEJIIJAAH@Z 10008371 f i MSR.obj
 0001:000073df       ?OnPaint@CComControlBase@ATL@@QAEJIIJAAH@Z 100083df f i MSR.obj
 0001:00007491       ?OnSetFocus@CComControlBase@ATL@@QAEJIIJAAH@Z 10008491 f i MSR.obj
 0001:0000751a       ?Open@CRegKey@ATL@@QAEJPAUHKEY__@@PB_WK@Z 1000851a f i MSR.obj
 0001:0000756f       ?PreProcessBuffer@CRegParser@ATL@@QAEJPA_WPAPA_W@Z 1000856f f i MSR.obj
 0001:000077d9       ?ProcessWindowMessage@?$CComControl@VCOPOSMSR@@V?$CWindowImpl@VCOPOSMSR@@VCWindow@ATL@@V?$CWinTraits@$0FGAAAAAA@$0A@@3@@ATL@@@ATL@@UAEHPAUHWND__@@IIJAAJK@Z 100087d9 f i MSR.obj
 0001:00007878       ?ReadFromStream@CComBSTR@ATL@@QAEJPAUIStream@@@Z 10008878 f i MSR.obj
 0001:000079a6       ?ReadFromStream@CComVariant@ATL@@QAEJPAUIStream@@GTClassesAllowedInStream@2@K@Z 100089a6 f i MSR.obj
 0001:00007b2c       ?RecurseDeleteKey@CRegKey@ATL@@QAEJPB_W@Z 10008b2c f i MSR.obj
 0001:00007c1a       ?RegCreateKeyExW@CAtlTransactionManager@ATL@@QAEJPAUHKEY__@@PB_WKPA_WKKQAU_SECURITY_ATTRIBUTES@@PAPAU3@PAK@Z 10008c1a f i MSR.obj
 0001:00007c7d       ?RegDeleteKeyW@CAtlTransactionManager@ATL@@QAEJPAUHKEY__@@PB_W@Z 10008c7d f i MSR.obj
 0001:00007ccf       ?RegOpenKeyExW@CAtlTransactionManager@ATL@@QAEJPAUHKEY__@@PB_WKKPAPAU3@@Z 10008ccf f i MSR.obj
 0001:00007d26       ?Register@_ATL_WNDCLASSINFOW@ATL@@QAEGPAP6GJPAUHWND__@@IIJ@Z@Z 10008d26 f i MSR.obj
 0001:00007d46       ?RegisterBuffer@CRegParser@ATL@@QAEJPA_WH@Z 10008d46 f i MSR.obj
 0001:00007e7f       ?RegisterFromResource@CRegObject@ATL@@IAEJPB_W00H@Z 10008e7f f i MSR.obj
 0001:00007fb5       ?RegisterServer@?$CAtlModuleT@VCComModule@ATL@@@ATL@@QAEJHPBU_GUID@@@Z 10008fb5 f i MSR.obj
 0001:00007fe3       ?RegisterServer@CComModule@ATL@@QAEJHPBU_GUID@@@Z 10008fe3 f i MSR.obj
 0001:00008059       ?RegisterSubkeys@CRegParser@ATL@@IAEJPA_WPAUHKEY__@@HH@Z 10009059 f i MSR.obj
 0001:00008700       ?Remove@CComDynamicUnkArray@ATL@@QAEHK@Z 10009700 f i MSR.obj
 0001:00008729       ?RemoveAll@?$CSimpleMap@PA_WPA_WVCExpansionVectorEqualHelper@ATL@@@ATL@@QAEXXZ 10009729 f i MSR.obj
 0001:00008755       ?ResourceRegisterSz@CRegObject@ATL@@QAGJPB_W00@Z 10009755 f i MSR.obj
 0001:00008782       ?ResourceUnregisterSz@CRegObject@ATL@@QAGJPB_W00@Z 10009782 f i MSR.obj
 0001:000087af       ?SendOnDataChange@CComControlBase@ATL@@QAEJK@Z 100097af f i MSR.obj
 0001:000087fc       ?SetControlFocus@CComControlBase@ATL@@QAEHH@Z 100097fc f i MSR.obj
 0001:00008899       ?SetMultiStringValue@CRegKey@ATL@@QAEJPB_W0@Z 10009899 f i MSR.obj
 0001:000088f5       ?SetStringValue@CRegKey@ATL@@QAEJPB_W0K@Z 100098f5 f i MSR.obj
 0001:0000893e       ?SkipAssignment@CRegParser@ATL@@IAEJPA_W@Z 1000993e f i MSR.obj
 0001:000089a3       ?SkipWhiteSpace@CRegParser@ATL@@IAEXXZ 100099a3 f i MSR.obj
 0001:000089c5       ?StrChrW@CRegParser@ATL@@KAPA_WPA_W_W@Z 100099c5 f i MSR.obj
 0001:00008a02       ?Term@CAtlModule@ATL@@QAEXXZ 10009a02 f i MSR.obj
 0001:00008a55       ?Term@CComModule@ATL@@QAEXXZ 10009a55 f i MSR.obj
 0001:00008aad       ?UnregisterServer@?$CAtlModuleT@VCComModule@ATL@@@ATL@@QAEJHPBU_GUID@@@Z 10009aad f i MSR.obj
 0001:00008ad3       ?UnregisterServer@CComModule@ATL@@QAEJHPBU_GUID@@@Z 10009ad3 f i MSR.obj
 0001:00008b49       ?UpdateRegistryFromResource@CAtlModule@ATL@@QAGJIHPAU_ATL_REGMAP_ENTRY@2@@Z 10009b49 f i MSR.obj
 0001:00008d14       ?UpdateRegistryFromResource@CAtlModule@ATL@@QAGJPB_WHPAU_ATL_REGMAP_ENTRY@2@@Z 10009d14 f i MSR.obj
 0001:00008ee5       ?VTFromRegType@CRegParser@ATL@@KAHPB_WAAG@Z 10009ee5 f i MSR.obj
 0001:00008f52       ?WindowProc@?$CWindowImplBaseT@VCWindow@ATL@@V?$CWinTraits@$0FGAAAAAA@$0A@@2@@ATL@@SGJPAUHWND__@@IIJ@Z 10009f52 f i MSR.obj
 0001:00009044       ?WriteToStream@CComBSTR@ATL@@QAEJPAUIStream@@@Z 1000a044 f i MSR.obj
 0001:000090a6       ?WriteToStream@CComVariant@ATL@@QAEJPAUIStream@@@Z 1000a0a6 f i MSR.obj
 0001:00009220       ?WriteToStream@CComVariant@ATL@@QAEJPAUIStream@@G@Z 1000a220 f i MSR.obj
 0001:00009289       ?_AtlInitialConstruct@?$CComObjectRootEx@VCComMultiThreadModel@ATL@@@ATL@@QAEJXZ 1000a289 f i MSR.obj
 0001:0000929e       ?_AtlVerifyStackAvailable@_ATL_SAFE_ALLOCA_IMPL@ATL@@YA_NK@Z 1000a29e f i MSR.obj
 0001:0000931c       ?atlCreate@?$CWindowImpl@VCOPOSMSR@@VCWindow@ATL@@V?$CWinTraits@$0FGAAAAAA@$0A@@3@@ATL@@QAEPAUHWND__@@PAU3@V_U_RECT@2@PB_WKKV_U_MENUorID@2@PAX@Z 1000a31c f i MSR.obj
 0001:00009360       ?atlCreate@?$CWindowImplBaseT@VCWindow@ATL@@V?$CWinTraits@$0FGAAAAAA@$0A@@2@@ATL@@QAEPAUHWND__@@PAU3@V_U_RECT@2@PB_WKKV_U_MENUorID@2@GPAX@Z 1000a360 f i MSR.obj
 0001:000093fc       ?copy@?$_Copy@UtagCONNECTDATA@@@ATL@@SAJPAUtagCONNECTDATA@@PBU3@@Z 1000a3fc f i MSR.obj
 0001:00009432       ?copy@?$_CopyInterface@UIConnectionPoint@@@ATL@@SAJPAPAUIConnectionPoint@@PBQAU3@@Z 1000a432 f i MSR.obj
 0001:00009460       ?memcpy_s@Checked@ATL@@YAXPAXIPBXI@Z 1000a460 f i MSR.obj
 0001:0000947f       ?ocscpy_s@@YA_NPA_WIPB_W@Z 1000a47f f i MSR.obj
 0001:000094c9       ?wcscpy_s@Checked@ATL@@YAXPA_WIPB_W@Z 1000a4c9 f i MSR.obj
 0001:000094e5       _DllCanUnloadNow@0         1000a4e5 f   MSR.obj
 0001:000094f1       _DllGetClassObject@12      1000a4f1 f   MSR.obj
 0001:000094ff       _DllMain@12                1000a4ff f   MSR.obj
 0001:00009541       _DllRegisterServer@0       1000a541 f   MSR.obj
 0001:00009550       _DllUnregisterServer@0     1000a550 f   MSR.obj
 0001:0000955f       _InlineIsEqualGUID         1000a55f f i MSR.obj
 0001:0000958f       ___local_stdio_printf_options 1000a58f f i MSR.obj
 0001:00009595       __vswprintf_s_l            1000a595 f i MSR.obj
 0001:00009642       _swprintf_s                1000a642 f i MSR.obj
 0001:0000965e       ??0?$CComControl@VCOPOSMSR@@V?$CWindowImpl@VCOPOSMSR@@VCWindow@ATL@@V?$CWinTraits@$0FGAAAAAA@$0A@@3@@ATL@@@ATL@@QAE@XZ 1000a65e f i MSRImpl.obj
 0001:00009685       ??0?$CProxy_IOPOSEvents@VCOPOSMSR@@@@QAE@XZ 1000a685 f i MSRImpl.obj
 0001:000096a5       ??0CComControlBase@ATL@@QAE@AAPAUHWND__@@@Z 1000a6a5 f i MSRImpl.obj
 0001:000096ef       ??0COPOSMSR@@QAE@XZ        1000a6ef f   MSRImpl.obj
 0001:00009725       ??1?$CComControl@VCOPOSMSR@@V?$CWindowImpl@VCOPOSMSR@@VCWindow@ATL@@V?$CWinTraits@$0FGAAAAAA@$0A@@3@@ATL@@@ATL@@UAE@XZ 1000a725 f i MSRImpl.obj
 0001:0000973e       ??1?$IConnectionPointImpl@VCOPOSMSR@@$1?IID_IPropertyNotifySink@@3U_GUID@@BVCComDynamicUnkArray@ATL@@@ATL@@QAE@XZ 1000a73e f i MSRImpl.obj
 0001:0000973e       ??1?$IConnectionPointImpl@VCOPOSMSR@@$1?DIID__IOPOSMSREvents@@3U_GUID@@BVCComDynamicUnkArray@ATL@@@ATL@@QAE@XZ 1000a73e f i MSRImpl.obj
 0001:0000977b       ??1CComControlBase@ATL@@UAE@XZ 1000a77b f i MSRImpl.obj
 0001:000097de       ??1COPOSMSR@@UAE@XZ        1000a7de f   MSRImpl.obj
 0001:00009826       ?AuthenticateDevice@COPOSMSR@@UAGJPA_WPAJ@Z 1000a826 f   MSRImpl.obj
 0001:0000987d       ?CheckHealth@COPOSMSR@@UAGJJPAJ@Z 1000a87d f   MSRImpl.obj
 0001:000098cc       ?ClaimDevice@COPOSMSR@@UAGJJPAJ@Z 1000a8cc f   MSRImpl.obj
 0001:00009941       ?ClearInput@COPOSMSR@@UAGJPAJ@Z 1000a941 f   MSRImpl.obj
 0001:0000995c       ?ClearInputProperties@COPOSMSR@@UAGJPAJ@Z 1000a95c f   MSRImpl.obj
 0001:00009977       ?Close@COPOSMSR@@UAGJPAJ@Z 1000a977 f   MSRImpl.obj
 0001:000099e5       ?CompareFirmwareVersion@COPOSMSR@@UAGJPA_WPAJ1@Z 1000a9e5 f   MSRImpl.obj
 0001:00009a65       ?DeauthenticateDevice@COPOSMSR@@UAGJPA_WPAJ@Z 1000aa65 f   MSRImpl.obj
 0001:00009abc       ?DirectIO@COPOSMSR@@UAGJJPAJPAPA_W0@Z 1000aabc f   MSRImpl.obj
 0001:00009b6a       ?DoInvoke@COPOSMSR@@IAEJJPAVOposVariant@@IHPAJ_N@Z 1000ab6a f   MSRImpl.obj
 0001:00009c46       ?EventClose@COPOSMSR@@IAEXXZ 1000ac46 f i MSRImpl.obj
 0001:00009c79       ?EventInit@COPOSMSR@@IAEJXZ 1000ac79 f i MSRImpl.obj
 0001:00009d45       ?EventUninit@COPOSMSR@@IAEXXZ 1000ad45 f i MSRImpl.obj
 0001:00009d97       ?EventWindowProc@COPOSMSR@@IAGJIIJ@Z 1000ad97 f i MSRImpl.obj
 0001:00009e6b       ?FinalConstruct@COPOSMSR@@QAEJXZ 1000ae6b f   MSRImpl.obj
 0001:00009ea4       ?FireEventCleanup@COPOSMSR@@IAEXXZ 1000aea4 f i MSRImpl.obj
 0001:00009eba       ?FireEventSetup@COPOSMSR@@IAE_NXZ 1000aeba f i MSRImpl.obj
 0001:00009eee       ?FreezeEvents@COPOSMSR@@MAGJH@Z 1000aeee f   MSRImpl.obj
 0001:00009f4e       ?GetOposProp@COPOSMSR@@IAEJJPAFJ@Z 1000af4e f   MSRImpl.obj
 0001:00009f71       ?GetOposProp@COPOSMSR@@IAEJJPAJJ@Z 1000af71 f   MSRImpl.obj
 0001:0000a040       ?GetOposProp@COPOSMSR@@IAEJJPAPA_WJ@Z 1000b040 f   MSRImpl.obj
 0001:0000a11c       ?OnDraw@COPOSMSR@@MAEJAAUATL_DRAWINFO@@@Z 1000b11c f   MSRImpl.obj
 0001:0000a1bc       ?Open@COPOSMSR@@UAGJPA_WPAJ@Z 1000b1bc f   MSRImpl.obj
 0001:0000a9ff       ?ReleaseDevice@COPOSMSR@@UAGJPAJ@Z 1000b9ff f   MSRImpl.obj
 0001:0000aa4e       ?ResetStatistics@COPOSMSR@@UAGJPA_WPAJ@Z 1000ba4e f   MSRImpl.obj
 0001:0000aaa5       ?RetrieveCardProperty@COPOSMSR@@UAGJPA_WPAPA_WPAJ@Z 1000baa5 f   MSRImpl.obj
 0001:0000ab25       ?RetrieveDeviceAuthenticationData@COPOSMSR@@UAGJPAPA_WPAJ@Z 1000bb25 f   MSRImpl.obj
 0001:0000ab7c       ?RetrieveStatistics@COPOSMSR@@UAGJPAPA_WPAJ@Z 1000bb7c f   MSRImpl.obj
 0001:0000abd3       ?SOProcessID@COPOSMSR@@UAGJPAJ@Z 1000bbd3 f   MSRImpl.obj
 0001:0000abe7       ?SetCOFreezeEvents@COPOSMSR@@IAEXF@Z 1000bbe7 f   MSRImpl.obj
 0001:0000ac87       ?SetOposProp@COPOSMSR@@IAEJJJJ@Z 1000bc87 f   MSRImpl.obj
 0001:0000ad7e       ?SetOposProp@COPOSMSR@@IAEJJPA_WJ@Z 1000bd7e f   MSRImpl.obj
 0001:0000ae7f       ?UpdateFirmware@COPOSMSR@@UAGJPA_WPAJ@Z 1000be7f f   MSRImpl.obj
 0001:0000aed6       ?UpdateKey@COPOSMSR@@UAGJPA_W0PAJ@Z 1000bed6 f   MSRImpl.obj
 0001:0000af56       ?UpdateStatistics@COPOSMSR@@UAGJPA_WPAJ@Z 1000bf56 f   MSRImpl.obj
 0001:0000afad       ?WriteTracks@COPOSMSR@@UAGJUtagVARIANT@@JPAJ@Z 1000bfad f   MSRImpl.obj
 0001:0000b02f       ?get_AccountNumber@COPOSMSR@@UAGJPAPA_W@Z 1000c02f f   MSRImpl.obj
 0001:0000b048       ?get_AdditionalSecurityInformation@COPOSMSR@@UAGJPAPA_W@Z 1000c048 f   MSRImpl.obj
 0001:0000b061       ?get_AutoDisable@COPOSMSR@@UAGJPAF@Z 1000c061 f   MSRImpl.obj
 0001:0000b077       ?get_BinaryConversion@COPOSMSR@@UAGJPAJ@Z 1000c077 f   MSRImpl.obj
 0001:0000b08d       ?get_CapCardAuthentication@COPOSMSR@@UAGJPAPA_W@Z 1000c08d f   MSRImpl.obj
 0001:0000b0a6       ?get_CapCompareFirmwareVersion@COPOSMSR@@UAGJPAF@Z 1000c0a6 f   MSRImpl.obj
 0001:0000b0bf       ?get_CapDataEncryption@COPOSMSR@@UAGJPAJ@Z 1000c0bf f   MSRImpl.obj
 0001:0000b0d8       ?get_CapDeviceAuthentication@COPOSMSR@@UAGJPAJ@Z 1000c0d8 f   MSRImpl.obj
 0001:0000b0f1       ?get_CapISO@COPOSMSR@@UAGJPAF@Z 1000c0f1 f   MSRImpl.obj
 0001:0000b10a       ?get_CapJISOne@COPOSMSR@@UAGJPAF@Z 1000c10a f   MSRImpl.obj
 0001:0000b123       ?get_CapJISTwo@COPOSMSR@@UAGJPAF@Z 1000c123 f   MSRImpl.obj
 0001:0000b13c       ?get_CapPowerReporting@COPOSMSR@@UAGJPAJ@Z 1000c13c f   MSRImpl.obj
 0001:0000b155       ?get_CapStatisticsReporting@COPOSMSR@@UAGJPAF@Z 1000c155 f   MSRImpl.obj
 0001:0000b16e       ?get_CapTrackDataMasking@COPOSMSR@@UAGJPAF@Z 1000c16e f   MSRImpl.obj
 0001:0000b187       ?get_CapTransmitSentinels@COPOSMSR@@UAGJPAF@Z 1000c187 f   MSRImpl.obj
 0001:0000b1a0       ?get_CapUpdateFirmware@COPOSMSR@@UAGJPAF@Z 1000c1a0 f   MSRImpl.obj
 0001:0000b1b9       ?get_CapUpdateStatistics@COPOSMSR@@UAGJPAF@Z 1000c1b9 f   MSRImpl.obj
 0001:0000b1d2       ?get_CapWritableTracks@COPOSMSR@@UAGJPAJ@Z 1000c1d2 f   MSRImpl.obj
 0001:0000b1eb       ?get_CardAuthenticationData@COPOSMSR@@UAGJPAPA_W@Z 1000c1eb f   MSRImpl.obj
 0001:0000b204       ?get_CardAuthenticationDataLength@COPOSMSR@@UAGJPAJ@Z 1000c204 f   MSRImpl.obj
 0001:0000b21d       ?get_CardPropertyList@COPOSMSR@@UAGJPAPA_W@Z 1000c21d f   MSRImpl.obj
 0001:0000b236       ?get_CardType@COPOSMSR@@UAGJPAPA_W@Z 1000c236 f   MSRImpl.obj
 0001:0000b24f       ?get_CardTypeList@COPOSMSR@@UAGJPAPA_W@Z 1000c24f f   MSRImpl.obj
 0001:0000b268       ?get_CheckHealthText@COPOSMSR@@UAGJPAPA_W@Z 1000c268 f   MSRImpl.obj
 0001:0000b281       ?get_Claimed@COPOSMSR@@UAGJPAF@Z 1000c281 f   MSRImpl.obj
 0001:0000b297       ?get_ControlObjectDescription@COPOSMSR@@UAGJPAPA_W@Z 1000c297 f   MSRImpl.obj
 0001:0000b2e5       ?get_ControlObjectVersion@COPOSMSR@@UAGJPAJ@Z 1000c2e5 f   MSRImpl.obj
 0001:0000b2f8       ?get_DataCount@COPOSMSR@@UAGJPAJ@Z 1000c2f8 f   MSRImpl.obj
 0001:0000b30e       ?get_DataEncryptionAlgorithm@COPOSMSR@@UAGJPAJ@Z 1000c30e f   MSRImpl.obj
 0001:0000b327       ?get_DataEventEnabled@COPOSMSR@@UAGJPAF@Z 1000c327 f   MSRImpl.obj
 0001:0000b33d       ?get_DecodeData@COPOSMSR@@UAGJPAF@Z 1000c33d f   MSRImpl.obj
 0001:0000b356       ?get_DeviceAuthenticated@COPOSMSR@@UAGJPAF@Z 1000c356 f   MSRImpl.obj
 0001:0000b36f       ?get_DeviceAuthenticationProtocol@COPOSMSR@@UAGJPAJ@Z 1000c36f f   MSRImpl.obj
 0001:0000b388       ?get_DeviceDescription@COPOSMSR@@UAGJPAPA_W@Z 1000c388 f   MSRImpl.obj
 0001:0000b3a1       ?get_DeviceEnabled@COPOSMSR@@UAGJPAF@Z 1000c3a1 f   MSRImpl.obj
 0001:0000b3b7       ?get_DeviceName@COPOSMSR@@UAGJPAPA_W@Z 1000c3b7 f   MSRImpl.obj
 0001:0000b3d0       ?get_EncodingMaxLength@COPOSMSR@@UAGJPAJ@Z 1000c3d0 f   MSRImpl.obj
 0001:0000b3e9       ?get_ErrorReportingType@COPOSMSR@@UAGJPAJ@Z 1000c3e9 f   MSRImpl.obj
 0001:0000b402       ?get_ExpirationDate@COPOSMSR@@UAGJPAPA_W@Z 1000c402 f   MSRImpl.obj
 0001:0000b41b       ?get_FirstName@COPOSMSR@@UAGJPAPA_W@Z 1000c41b f   MSRImpl.obj
 0001:0000b434       ?get_FreezeEvents@COPOSMSR@@UAGJPAF@Z 1000c434 f   MSRImpl.obj
 0001:0000b44a       ?get_MiddleInitial@COPOSMSR@@UAGJPAPA_W@Z 1000c44a f   MSRImpl.obj
 0001:0000b463       ?get_OpenResult@COPOSMSR@@UAGJPAJ@Z 1000c463 f   MSRImpl.obj
 0001:0000b47a       ?get_ParseDecodeData@COPOSMSR@@UAGJPAF@Z 1000c47a f   MSRImpl.obj
 0001:0000b47a       ?get_ParseDecodedData@COPOSMSR@@UAGJPAF@Z 1000c47a f   MSRImpl.obj
 0001:0000b493       ?get_PowerNotify@COPOSMSR@@UAGJPAJ@Z 1000c493 f   MSRImpl.obj
 0001:0000b4a9       ?get_PowerState@COPOSMSR@@UAGJPAJ@Z 1000c4a9 f   MSRImpl.obj
 0001:0000b4bf       ?get_ResultCode@COPOSMSR@@UAGJPAJ@Z 1000c4bf f   MSRImpl.obj
 0001:0000b4fd       ?get_ResultCodeExtended@COPOSMSR@@UAGJPAJ@Z 1000c4fd f   MSRImpl.obj
 0001:0000b513       ?get_ServiceCode@COPOSMSR@@UAGJPAPA_W@Z 1000c513 f   MSRImpl.obj
 0001:0000b52c       ?get_ServiceObjectDescription@COPOSMSR@@UAGJPAPA_W@Z 1000c52c f   MSRImpl.obj
 0001:0000b545       ?get_ServiceObjectVersion@COPOSMSR@@UAGJPAJ@Z 1000c545 f   MSRImpl.obj
 0001:0000b55b       ?get_State@COPOSMSR@@UAGJPAJ@Z 1000c55b f   MSRImpl.obj
 0001:0000b587       ?get_Suffix@COPOSMSR@@UAGJPAPA_W@Z 1000c587 f   MSRImpl.obj
 0001:0000b5a0       ?get_Surname@COPOSMSR@@UAGJPAPA_W@Z 1000c5a0 f   MSRImpl.obj
 0001:0000b5b9       ?get_Title@COPOSMSR@@UAGJPAPA_W@Z 1000c5b9 f   MSRImpl.obj
 0001:0000b5d2       ?get_Track1Data@COPOSMSR@@UAGJPAPA_W@Z 1000c5d2 f   MSRImpl.obj
 0001:0000b5eb       ?get_Track1DiscretionaryData@COPOSMSR@@UAGJPAPA_W@Z 1000c5eb f   MSRImpl.obj
 0001:0000b604       ?get_Track1EncryptedData@COPOSMSR@@UAGJPAPA_W@Z 1000c604 f   MSRImpl.obj
 0001:0000b61d       ?get_Track1EncryptedDataLength@COPOSMSR@@UAGJPAJ@Z 1000c61d f   MSRImpl.obj
 0001:0000b636       ?get_Track2Data@COPOSMSR@@UAGJPAPA_W@Z 1000c636 f   MSRImpl.obj
 0001:0000b64f       ?get_Track2DiscretionaryData@COPOSMSR@@UAGJPAPA_W@Z 1000c64f f   MSRImpl.obj
 0001:0000b668       ?get_Track2EncryptedData@COPOSMSR@@UAGJPAPA_W@Z 1000c668 f   MSRImpl.obj
 0001:0000b681       ?get_Track2EncryptedDataLength@COPOSMSR@@UAGJPAJ@Z 1000c681 f   MSRImpl.obj
 0001:0000b69a       ?get_Track3Data@COPOSMSR@@UAGJPAPA_W@Z 1000c69a f   MSRImpl.obj
 0001:0000b6b3       ?get_Track3EncryptedData@COPOSMSR@@UAGJPAPA_W@Z 1000c6b3 f   MSRImpl.obj
 0001:0000b6cc       ?get_Track3EncryptedDataLength@COPOSMSR@@UAGJPAJ@Z 1000c6cc f   MSRImpl.obj
 0001:0000b6e5       ?get_Track4Data@COPOSMSR@@UAGJPAPA_W@Z 1000c6e5 f   MSRImpl.obj
 0001:0000b6fe       ?get_Track4EncryptedData@COPOSMSR@@UAGJPAPA_W@Z 1000c6fe f   MSRImpl.obj
 0001:0000b717       ?get_Track4EncryptedDataLength@COPOSMSR@@UAGJPAJ@Z 1000c717 f   MSRImpl.obj
 0001:0000b730       ?get_TracksToRead@COPOSMSR@@UAGJPAJ@Z 1000c730 f   MSRImpl.obj
 0001:0000b749       ?get_TracksToWrite@COPOSMSR@@UAGJPAJ@Z 1000c749 f   MSRImpl.obj
 0001:0000b762       ?get_TransmitSentinels@COPOSMSR@@UAGJPAF@Z 1000c762 f   MSRImpl.obj
 0001:0000b77b       ?get_WriteCardType@COPOSMSR@@UAGJPAPA_W@Z 1000c77b f   MSRImpl.obj
 0001:0000b794       ?put_AutoDisable@COPOSMSR@@UAGJF@Z 1000c794 f   MSRImpl.obj
 0001:0000b7b1       ?put_BinaryConversion@COPOSMSR@@UAGJJ@Z 1000c7b1 f   MSRImpl.obj
 0001:0000b7c7       ?put_DataEncryptionAlgorithm@COPOSMSR@@UAGJJ@Z 1000c7c7 f   MSRImpl.obj
 0001:0000b7e0       ?put_DataEventEnabled@COPOSMSR@@UAGJF@Z 1000c7e0 f   MSRImpl.obj
 0001:0000b7fd       ?put_DecodeData@COPOSMSR@@UAGJF@Z 1000c7fd f   MSRImpl.obj
 0001:0000b81d       ?put_DeviceEnabled@COPOSMSR@@UAGJF@Z 1000c81d f   MSRImpl.obj
 0001:0000b83a       ?put_ErrorReportingType@COPOSMSR@@UAGJJ@Z 1000c83a f   MSRImpl.obj
 0001:0000b853       ?put_FreezeEvents@COPOSMSR@@UAGJF@Z 1000c853 f   MSRImpl.obj
 0001:0000b89f       ?put_ParseDecodeData@COPOSMSR@@UAGJF@Z 1000c89f f   MSRImpl.obj
 0001:0000b89f       ?put_ParseDecodedData@COPOSMSR@@UAGJF@Z 1000c89f f   MSRImpl.obj
 0001:0000b8bf       ?put_PowerNotify@COPOSMSR@@UAGJJ@Z 1000c8bf f   MSRImpl.obj
 0001:0000b8d5       ?put_TracksToRead@COPOSMSR@@UAGJJ@Z 1000c8d5 f   MSRImpl.obj
 0001:0000b8ee       ?put_TracksToWrite@COPOSMSR@@UAGJJ@Z 1000c8ee f   MSRImpl.obj
 0001:0000b907       ?put_TransmitSentinels@COPOSMSR@@UAGJF@Z 1000c907 f   MSRImpl.obj
 0001:0000b927       ?put_WriteCardType@COPOSMSR@@UAGJPA_W@Z 1000c927 f   MSRImpl.obj
 0001:0000b940       ?s_EventWindowProc@COPOSMSR@@KGJPAUHWND__@@IIJ@Z 1000c940 f i MSRImpl.obj
 0001:0000b992       ??_U@YAPAXI@Z              1000c992 f   LIBCMT:new_array.obj
 0001:0000b99b       ??3@YAXPAXI@Z              1000c99b f   LIBCMT:delete_scalar_size.obj
 0001:0000b9a9       ??_V@YAXPAX@Z              1000c9a9 f   LIBCMT:delete_array.obj
 0001:0000b9ae       ??_V@YAXPAXI@Z             1000c9ae f   LIBCMT:delete_array_size.obj
 0001:0000ba00       ___scrt_acquire_startup_lock 1000ca00 f   LIBCMT:utility.obj
 0001:0000ba32       ___scrt_dllmain_after_initialize_c 1000ca32 f   LIBCMT:utility.obj
 0001:0000ba5d       ___scrt_dllmain_before_initialize_c 1000ca5d f   LIBCMT:utility.obj
 0001:0000ba6b       ___scrt_dllmain_crt_thread_attach 1000ca6b f   LIBCMT:utility.obj
 0001:0000ba8a       ___scrt_dllmain_crt_thread_detach 1000ca8a f   LIBCMT:utility.obj
 0001:0000ba97       ___scrt_dllmain_exception_filter 1000ca97 f   LIBCMT:utility.obj
 0001:0000bacb       ___scrt_dllmain_uninitialize_c 1000cacb f   LIBCMT:utility.obj
 0001:0000baee       ___scrt_dllmain_uninitialize_critical 1000caee f   LIBCMT:utility.obj
 0001:0000bafb       ___scrt_initialize_crt     1000cafb f   LIBCMT:utility.obj
 0001:0000bb34       ___scrt_initialize_onexit_tables 1000cb34 f   LIBCMT:utility.obj
 0001:0000bbbb       ___scrt_is_nonwritable_in_current_image 1000cbbb f   LIBCMT:utility.obj
 0001:0000bc4f       ___scrt_release_startup_lock 1000cc4f f   LIBCMT:utility.obj
 0001:0000bc6c       ___scrt_uninitialize_crt   1000cc6c f   LIBCMT:utility.obj
 0001:0000bc94       __onexit                   1000cc94 f   LIBCMT:utility.obj
 0001:0000bcc1       _atexit                    1000ccc1 f   LIBCMT:utility.obj
 0001:0000bcd6       ??3@YAXPAX@Z               1000ccd6 f   LIBCMT:delete_scalar.obj
 0001:0000bda0       __Init_thread_footer       1000cda0 f   LIBCMT:thread_safe_statics.obj
 0001:0000bdea       __Init_thread_header       1000cdea f   LIBCMT:thread_safe_statics.obj
 0001:0000be3c       __Init_thread_notify       1000ce3c f   LIBCMT:thread_safe_statics.obj
 0001:0000be72       __Init_thread_wait         1000ce72 f   LIBCMT:thread_safe_statics.obj
 0001:0000bec0       ___raise_securityfailure   1000cec0 f   LIBCMT:gs_report.obj
 0001:0000bee8       ___report_gsfailure        1000cee8 f   LIBCMT:gs_report.obj
 0001:0000bfe1       ___report_rangecheckfailure 1000cfe1 f   LIBCMT:gs_report.obj
 0001:0000bfed       ___report_securityfailure  1000cfed f   LIBCMT:gs_report.obj
 0001:0000c0bb       ??2@YAPAXIABUnothrow_t@std@@@Z 1000d0bb f   LIBCMT:new_scalar_nothrow.obj
 0001:0000c10b       ??_U@YAPAXIABUnothrow_t@std@@@Z 1000d10b f   LIBCMT:new_array_nothrow.obj
 0001:0000c114       @__security_check_cookie@4 1000d114 f   LIBCMT:secchk.obj
 0001:0000c130       __SEH_prolog4_GS           1000d130 f   LIBCMT:sehprolg4gs.obj
 0001:0000c179       __SEH_epilog4_GS           1000d179 f   LIBCMT:sehprolg4gs.obj
 0001:0000c190       __alloca_probe_16          1000d190 f   LIBCMT:alloca16.obj
 0001:0000c1a6       __alloca_probe_8           1000d1a6     LIBCMT:alloca16.obj
 0001:0000c1c0       __chkstk                   1000d1c0 f   LIBCMT:chkstk.obj
 0001:0000c1c0       __alloca_probe             1000d1c0 f   LIBCMT:chkstk.obj
 0001:0000c528       __DllMainCRTStartup@12     1000d528 f   LIBCMT:dll_dllmain.obj
 0001:0000c54b       ??2@YAPAXI@Z               1000d54b f   LIBCMT:new_scalar.obj
 0001:0000c57b       ___isa_available_init      1000d57b f   LIBCMT:cpu_disp.obj
 0001:0000c74b       ___scrt_is_ucrt_dll_in_use 1000d74b f   LIBCMT:ucrt_detection.obj
 0001:0000c757       ___scrt_fastfail           1000d757 f   LIBCMT:utility_desktop.obj
 0001:0000c871       __crt_debugger_hook        1000d871 f   LIBCMT:utility_desktop.obj
 0001:0000c880       __SEH_prolog4              1000d880 f   LIBCMT:sehprolg4.obj
 0001:0000c8c6       __SEH_epilog4              1000d8c6 f   LIBCMT:sehprolg4.obj
 0001:0000c8db       @_guard_check_icall_nop@4  1000d8db f i LIBCMT:guard_support.obj
 0001:0000c929       ___security_init_cookie    1000d929 f   LIBCMT:gs_support.obj
 0001:0000c974       ?__scrt_initialize_type_info@@YAXXZ 1000d974 f   LIBCMT:tncleanup.obj
 0001:0000c980       ?__scrt_uninitialize_type_info@@YAXXZ 1000d980 f   LIBCMT:tncleanup.obj
 0001:0000c98c       ___local_stdio_scanf_options 1000d98c f i LIBCMT:default_local_stdio_options.obj
 0001:0000c992       ___scrt_initialize_default_local_stdio_options 1000d992 f   LIBCMT:default_local_stdio_options.obj
 0001:0000c9af       ___scrt_get_dyn_tls_init_callback 1000d9af f   LIBCMT:dyn_tls_init.obj
 0001:0000c9b5       __RTC_Initialize           1000d9b5 f   LIBCMT:initsect.obj
 0001:0000c9e1       __RTC_Terminate            1000d9e1 f   LIBCMT:initsect.obj
 0001:0000ca0d       ??0bad_alloc@std@@QAE@ABV01@@Z 1000da0d f i LIBCMT:throw_bad_alloc.obj
 0001:0000ca28       ??0bad_alloc@std@@QAE@XZ   1000da28 f i LIBCMT:throw_bad_alloc.obj
 0001:0000ca40       ??0bad_array_new_length@std@@QAE@ABV01@@Z 1000da40 f i LIBCMT:throw_bad_alloc.obj
 0001:0000ca5b       ??0bad_array_new_length@std@@QAE@XZ 1000da5b f i LIBCMT:throw_bad_alloc.obj
 0001:0000ca73       ??0exception@std@@QAE@ABV01@@Z 1000da73 f i LIBCMT:throw_bad_alloc.obj
 0001:0000ca9f       ??1bad_alloc@std@@UAE@XZ   1000da9f f i LIBCMT:throw_bad_alloc.obj
 0001:0000ca9f       ??1bad_array_new_length@std@@UAE@XZ 1000da9f f i LIBCMT:throw_bad_alloc.obj
 0001:0000ca9f       ??1bad_exception@std@@UAE@XZ 1000da9f f i libvcruntime:frame.obj
 0001:0000cab0       ??_Gbad_exception@std@@UAEPAXI@Z 1000dab0 f i libvcruntime:frame.obj
 0001:0000cab0       ??_Gexception@std@@UAEPAXI@Z 1000dab0 f i LIBCMT:throw_bad_alloc.obj
 0001:0000cab0       ??_Ebad_exception@std@@UAEPAXI@Z 1000dab0 f i libvcruntime:frame.obj
 0001:0000cab0       ??_Eexception@std@@UAEPAXI@Z 1000dab0 f i LIBCMT:throw_bad_alloc.obj
 0001:0000cab0       ??_Gbad_alloc@std@@UAEPAXI@Z 1000dab0 f i LIBCMT:throw_bad_alloc.obj
 0001:0000cab0       ??_Ebad_alloc@std@@UAEPAXI@Z 1000dab0 f i LIBCMT:throw_bad_alloc.obj
 0001:0000cab0       ??_Ebad_array_new_length@std@@UAEPAXI@Z 1000dab0 f i LIBCMT:throw_bad_alloc.obj
 0001:0000cab0       ??_Gbad_array_new_length@std@@UAEPAXI@Z 1000dab0 f i LIBCMT:throw_bad_alloc.obj
 0001:0000cadd       ?__scrt_throw_std_bad_alloc@@YAXXZ 1000dadd f   LIBCMT:throw_bad_alloc.obj
 0001:0000cafa       ?__scrt_throw_std_bad_array_new_length@@YAXXZ 1000dafa f   LIBCMT:throw_bad_alloc.obj
 0001:0000cb17       ?what@exception@std@@UBEPBDXZ 1000db17 f i LIBCMT:throw_bad_alloc.obj
 0001:0000cb24       ??_Etype_info@@UAEPAXI@Z   1000db24 f i LIBCMT:std_type_info_static.obj
 0001:0000cb24       ??_Gtype_info@@UAEPAXI@Z   1000db24 f i LIBCMT:std_type_info_static.obj
 0001:0000cb47       ??0CAtlBaseModule@ATL@@QAE@XZ 1000db47 f   atls:atlbase.obj
 0001:0000cb9a       ??0_ATL_BASE_MODULE70@ATL@@QAE@XZ 1000db9a f i atls:atlbase.obj
 0001:0000cbbd       ??1CAtlBaseModule@ATL@@QAE@XZ 1000dbbd f   atls:atlbase.obj
 0001:0000ccaa       ?Init@_stdcallthunk@ATL@@QAEHKPAX@Z 1000dcaa f i atls:atlthunk.obj
 0001:0000ccdf       ?__AllocStdCallThunk_cmn@@YAPAXXZ 1000dcdf f   atls:atlthunk.obj
 0001:0000cda5       ?__FreeStdCallThunk_cmn@@YAXPAX@Z 1000dda5 f   atls:atlthunk.obj
 0001:0000ce40       _AtlThunk_AllocateData@0   1000de40 f   atls:atlthunk.obj
 0001:0000cea5       _AtlThunk_DataToCode@4     1000dea5 f   atls:atlthunk.obj
 0001:0000ceec       _AtlThunk_FreeData@4       1000deec f   atls:atlthunk.obj
 0001:0000cf42       _AtlThunk_InitData@12      1000df42 f   atls:atlthunk.obj
 0001:0000cf91       __get_purecall_handler     1000df91 f   libvcruntime:purevirt.obj
 0001:0000cf97       __purecall                 1000df97 f   libvcruntime:purevirt.obj
 0001:0000cfb3       _wcsstr                    1000dfb3 f   libvcruntime:wcsstr.obj
 0001:0000d270       __except_handler4          1000e270 f   libvcruntime:chandler4.obj
 0001:0000d3ce       _memcmp                    1000e3ce f   libvcruntime:memcmp.obj
 0001:0000e380       _memcpy                    1000f380 f   libvcruntime:memcpy.obj
 0001:0000e900       _memset                    1000f900 f   libvcruntime:memset.obj
 0001:0000ea5a       ___vcrt_initialize         1000fa5a f   libvcruntime:initialization.obj
 0001:0000ea79       ___vcrt_thread_attach      1000fa79 f   libvcruntime:initialization.obj
 0001:0000ea84       ___vcrt_thread_detach      1000fa84 f   libvcruntime:initialization.obj
 0001:0000ea8f       ___vcrt_uninitialize       1000fa8f f   libvcruntime:initialization.obj
 0001:0000eaa6       ___vcrt_uninitialize_critical 1000faa6 f   libvcruntime:initialization.obj
 0001:0000eaae       ?GetRangeOfTrysToCheck@__FrameHandler3@@SA?AU?$pair@Viterator@TryBlockMap@__FrameHandler3@@V123@@std@@AAVTryBlockMap@1@HPAXPBU_s_FuncInfo@@H@Z 1000faae f   libvcruntime:trnsctrl.obj
 0001:0000eb1e       ?_CallCatchBlock2@@YAPAXPAUEHRegistrationNode@@PBU_s_FuncInfo@@PAXHK@Z 1000fb1e f   libvcruntime:trnsctrl.obj
 0001:0000eb7c       ?_CallSETranslator@@YAHPAUEHExceptionRecord@@PAUEHRegistrationNode@@PAX2PBU_s_FuncInfo@@H1@Z 1000fb7c f   libvcruntime:trnsctrl.obj
 0001:0000ec62       ?_JumpToContinuation@@YGXPAXPAUEHRegistrationNode@@@Z 1000fc62 f   libvcruntime:trnsctrl.obj
 0001:0000ec92       ?_UnwindNestedFrames@@YGXPAUEHRegistrationNode@@PAUEHExceptionRecord@@@Z 1000fc92 f   libvcruntime:trnsctrl.obj
 0001:0000ece5       __CatchGuardHandler        1000fce5 f   libvcruntime:trnsctrl.obj
 0001:0000ed16       __CreateFrameInfo          1000fd16 f   libvcruntime:trnsctrl.obj
 0001:0000ed3a       __FindAndUnlinkFrame       1000fd3a f   libvcruntime:trnsctrl.obj
 0001:0000ed82       __TranslatorGuardHandler   1000fd82 f   libvcruntime:trnsctrl.obj
 0001:0000ee1f       ___CxxFrameHandler3        1000fe1f f   libvcruntime:trnsctrl.obj
 0001:0000ee55       ___DestructExceptionObject 1000fe55 f   libvcruntime:ehhelpers.obj
 0001:0000eef6       ?_CallMemberFunction0@@YGXQAX0@Z 1000fef6 f i libvcruntime:ehhelpers.obj
 0001:0000ef5b       __IsExceptionObjectToBeDestroyed 1000ff5b f   libvcruntime:ehhelpers.obj
 0001:0000ef81       ___AdjustPointer           1000ff81 f   libvcruntime:ehhelpers.obj
 0001:0000efa6       ___FrameUnwindFilter       1000ffa6 f   libvcruntime:ehhelpers.obj
 0001:0000effc       ___std_type_info_compare   1000fffc f   libvcruntime:std_type_info.obj
 0001:0000f038       ___std_type_info_destroy_list 10010038 f   libvcruntime:std_type_info.obj
 0001:0000f05b       ___std_exception_copy      1001005b f   libvcruntime:std_exception.obj
 0001:0000f0be       ___std_exception_destroy   100100be f   libvcruntime:std_exception.obj
 0001:0000f0dd       __CxxThrowException@8      100100dd f   libvcruntime:throw.obj
 0001:0000f150       _memmove                   10010150 f   libvcruntime:memmove.obj
 0001:0000f6d0       __local_unwind4            100106d0 f   libvcruntime:exsup4.obj
 0001:0000f7a8       __seh_longjmp_unwind4@4    100107a8 f   libvcruntime:exsup4.obj
 0001:0000f7d0       @_EH4_CallFilterFunc@8     100107d0 f   libvcruntime:exsup4.obj
 0001:0000f7e8       @_EH4_TransferToHandler@8  100107e8 f   libvcruntime:exsup4.obj
 0001:0000f804       @_EH4_GlobalUnwind2@8      10010804 f   libvcruntime:exsup4.obj
 0001:0000f820       @_EH4_LocalUnwind@16       10010820 f   libvcruntime:exsup4.obj
 0001:0000f837       ___except_validate_context_record 10010837 f   libvcruntime:jbcxrval.obj
 0001:0000f867       ___except_validate_jump_buffer 10010867 f   libvcruntime:jbcxrval.obj
 0001:0000f894       ___vcrt_freefls@4          10010894 f   libvcruntime:per_thread_data.obj
 0001:0000f8b0       ___vcrt_freeptd            100108b0 f   libvcruntime:per_thread_data.obj
 0001:0000f8e6       ___vcrt_getptd             100108e6 f   libvcruntime:per_thread_data.obj
 0001:0000f8f4       ___vcrt_getptd_noexit      100108f4 f   libvcruntime:per_thread_data.obj
 0001:0000f986       ___vcrt_initialize_ptd     10010986 f   libvcruntime:per_thread_data.obj
 0001:0000f9b9       ___vcrt_uninitialize_ptd   100109b9 f   libvcruntime:per_thread_data.obj
 0001:0000f9d4       ___vcrt_initialize_locks   100109d4 f   libvcruntime:locks.obj
 0001:0000fa10       ___vcrt_uninitialize_locks 10010a10 f   libvcruntime:locks.obj
 0001:00010182       ??$TypeMatchHelper@V__FrameHandler3@@@@YAHPBU_s_HandlerType@@PBU_s_CatchableType@@PBU_s_ThrowInfo@@@Z 10011182 f i libvcruntime:frame.obj
 0001:00010210       ??$__InternalCxxFrameHandler@V__FrameHandler3@@@@YA?AW4_EXCEPTION_DISPOSITION@@PAUEHExceptionRecord@@PAUEHRegistrationNode@@PAU_CONTEXT@@PAXPBU_s_FuncInfo@@H1E@Z 10011210 f i libvcruntime:frame.obj
 0001:00010312       ??0bad_exception@std@@QAE@ABV01@@Z 10011312 f i libvcruntime:frame.obj
 0001:0001032d       ??0bad_exception@std@@QAE@XZ 1001132d f i libvcruntime:frame.obj
 0001:00010345       ??8type_info@@QBE_NABV0@@Z 10011345 f i libvcruntime:frame.obj
 0001:000105ac       ?FrameUnwindToEmptyState@__FrameHandler3@@SAXPAUEHRegistrationNode@@PAXPBU_s_FuncInfo@@@Z 100115ac f   libvcruntime:frame.obj
 0001:000105c4       ?FrameUnwindToState@__FrameHandler3@@SAXPAUEHRegistrationNode@@PAXPBU_s_FuncInfo@@H@Z 100115c4 f   libvcruntime:frame.obj
 0001:00010746       ?_CallMemberFunction1@@YGXQAX00@Z 10011746 f i libvcruntime:frame.obj
 0001:00010756       ?_CallMemberFunction2@@YGXQAX00H@Z 10011756 f i libvcruntime:frame.obj
 0001:00010769       ?getESTypes@__FrameHandler3@@SAPBU_s_ESTypeList@@PBU_s_FuncInfo@@@Z 10011769 f i libvcruntime:frame.obj
 0001:00010780       __CallSettingFrame@12      10011780 f   libvcruntime:lowhelpr.obj
 0001:000107a7       __NLG_Return               100117a7     libvcruntime:lowhelpr.obj
 0001:000107d0       __global_unwind2           100117d0 f   libvcruntime:exsup.obj
 0001:00010836       __local_unwind2            10011836 f   libvcruntime:exsup.obj
 0001:000108ba       __abnormal_termination     100118ba f   libvcruntime:exsup.obj
 0001:000108e0       __NLG_Notify1              100118e0 f   libvcruntime:exsup.obj
 0001:000108ec       __NLG_Notify               100118ec f   libvcruntime:exsup.obj
 0001:00010903       __NLG_Dispatch             10011903     libvcruntime:exsup.obj
 0001:00010903       __NLG_Dispatch2            10011903     libvcruntime:exsup.obj
 0001:0001090b       __NLG_Call                 1001190b f   libvcruntime:exsup.obj
 0001:0001090d       __NLG_Return2              1001190d     libvcruntime:exsup.obj
 0001:00010a03       ___vcrt_FlsAlloc           10011a03 f   libvcruntime:winapi_downlevel.obj
 0001:00010a3e       ___vcrt_FlsFree            10011a3e f   libvcruntime:winapi_downlevel.obj
 0001:00010a79       ___vcrt_FlsGetValue        10011a79 f   libvcruntime:winapi_downlevel.obj
 0001:00010ab4       ___vcrt_FlsSetValue        10011ab4 f   libvcruntime:winapi_downlevel.obj
 0001:00010af2       ___vcrt_InitializeCriticalSectionEx 10011af2 f   libvcruntime:winapi_downlevel.obj
 0001:00010b39       _unexpected                10011b39 f   libvcruntime:unexpected.obj
 0001:00010b56       ?GetCurrentState@__FrameHandler3@@SAHPAUEHRegistrationNode@@PAXPBU_s_FuncInfo@@@Z 10011b56 f   libvcruntime:ehstate.obj
 0001:00010b73       ?SetState@__FrameHandler3@@SAXPAUEHRegistrationNode@@PBU_s_FuncInfo@@H@Z 10011b73 f   libvcruntime:ehstate.obj
 0001:00010b81       _free                      10011b81 f   libucrt:free.obj
 0001:00010b9c       ___acrt_call_reportfault   10011b9c f   libucrt:invalid_parameter.obj
 0001:00010cd5       ___acrt_initialize_invalid_parameter_handler 10011cd5 f   libucrt:invalid_parameter.obj
 0001:00010ce4       __invalid_parameter        10011ce4 f   libucrt:invalid_parameter.obj
 0001:00010d48       __invalid_parameter_noinfo 10011d48 f   libucrt:invalid_parameter.obj
 0001:00010d58       __invoke_watson            10011d58 f   libucrt:invalid_parameter.obj
 0001:00010d8c       ___acrt_errno_from_os_error 10011d8c f   libucrt:errno.obj
 0001:00010dcf       ___acrt_errno_map_os_error 10011dcf f   libucrt:errno.obj
 0001:00010df2       ___doserrno                10011df2 f   libucrt:errno.obj
 0001:00010e05       __errno                    10011e05 f   libucrt:errno.obj
 0001:00010e18       _calloc                    10011e18 f   libucrt:calloc.obj
 0001:00010e23       _malloc                    10011e23 f   libucrt:malloc.obj
 0001:00010e2e       __recalloc                 10011e2e f   libucrt:recalloc.obj
 0001:00010e39       __recalloc_base            10011e39 f   libucrt:recalloc.obj
 0001:00010ea6       __resetstkoflw             10011ea6 f   libucrt:resetstk.obj
 0001:00010f6b       _wcscat_s                  10011f6b f   libucrt:wcscat_s.obj
 0001:00010fe0       _wcscpy_s                  10011fe0 f   libucrt:wcscpy_s.obj
 0001:0001110f       _wcsncpy_s                 1001210f f   libucrt:wcsncpy_s.obj
 0001:0001131b       ??$count@D@formatting_buffer@__crt_stdio_output@@QBEIXZ 1001231b f i libucrt:output.obj
 0001:00011333       ??$count@_W@formatting_buffer@__crt_stdio_output@@QBEIXZ 10012333 f i libucrt:output.obj
 0001:0001134c       ??$ensure_buffer_is_big_enough@D@formatting_buffer@__crt_stdio_output@@QAE_NI@Z 1001234c f i libucrt:output.obj
 0001:000113c9       ??$ensure_buffer_is_big_enough@_W@formatting_buffer@__crt_stdio_output@@QAE_NI@Z 100123c9 f i libucrt:output.obj
 0001:00011447       ??$is_wide_character_specifier@_W@__crt_stdio_output@@YA_N_K_WW4length_modifier@0@@Z 10012447 f i libucrt:output.obj
 0001:00011495       ??$scratch_data@D@formatting_buffer@__crt_stdio_output@@QAEPADXZ 10012495 f i libucrt:output.obj
 0001:000114b3       ??$type_case_integer_parse_into_buffer@I@?$output_processor@_WV?$string_output_adapter@_W@__crt_stdio_output@@V?$format_validation_base@_WV?$string_output_adapter@_W@__crt_stdio_output@@@2@@__crt_stdio_output@@AAEXII_N@Z 100124b3 f i libucrt:output.obj
 0001:0001153a       ??$type_case_integer_parse_into_buffer@_K@?$output_processor@_WV?$string_output_adapter@_W@__crt_stdio_output@@V?$format_validation_base@_WV?$string_output_adapter@_W@__crt_stdio_output@@@2@@__crt_stdio_output@@AAEX_KI_N@Z 1001253a f i libucrt:output.obj
 0001:000115dc       ??$write_multiple_characters@V?$string_output_adapter@_W@__crt_stdio_output@@D@__crt_stdio_output@@YAXABV?$string_output_adapter@_W@0@DHQAH@Z 100125dc f i libucrt:output.obj
 0001:0001160d       ??0?$common_data@_W@__crt_stdio_output@@IAE@XZ 1001260d f i libucrt:output.obj
 0001:00011657       ??0?$output_adapter_data@_WV?$string_output_adapter@_W@__crt_stdio_output@@@__crt_stdio_output@@IAE@ABV?$string_output_adapter@_W@1@_KQB_WQAU__crt_locale_pointers@@QAD@Z 10012657 f i libucrt:output.obj
 0001:00011693       ??0_LocaleUpdate@@QAE@QAU__crt_locale_pointers@@@Z 10012693 f i libucrt:output.obj
 0001:00011716       ??1formatting_buffer@__crt_stdio_output@@QAE@XZ 10012716 f i libucrt:output.obj
 0001:00011730       ??4?$__crt_unique_heap_ptr@DU__crt_internal_free_policy@@@@QAEAAV0@$$QAV0@@Z 10012730 f i libucrt:output.obj
 0001:00011754       ?crop_zeroes@__crt_stdio_output@@YAXPADQAU__crt_locale_pointers@@@Z 10012754 f i libucrt:output.obj
 0001:000117b4       ?find_next_state@?$output_processor@_WV?$string_output_adapter@_W@__crt_stdio_output@@V?$format_validation_base@_WV?$string_output_adapter@_W@__crt_stdio_output@@@2@@__crt_stdio_output@@ABE?AW4state@2@_WW432@@Z 100127b4 f i libucrt:output.obj
 0001:000117f6       ?force_decimal_point@__crt_stdio_output@@YAXPADQAU__crt_locale_pointers@@@Z 100127f6 f i libucrt:output.obj
 0001:00011852       ?parse_int_from_format_string@?$output_processor@_WV?$string_output_adapter@_W@__crt_stdio_output@@V?$format_validation_base@_WV?$string_output_adapter@_W@__crt_stdio_output@@@2@@__crt_stdio_output@@AAE_NQAH@Z 10012852 f i libucrt:output.obj
 0001:000118c8       ?process@?$output_processor@_WV?$string_output_adapter@_W@__crt_stdio_output@@V?$format_validation_base@_WV?$string_output_adapter@_W@__crt_stdio_output@@@2@@__crt_stdio_output@@QAEHXZ 100128c8 f i libucrt:output.obj
 0001:000119f0       ?state_case_flag@?$output_processor@_WV?$string_output_adapter@_W@__crt_stdio_output@@V?$format_validation_base@_WV?$string_output_adapter@_W@__crt_stdio_output@@@2@@__crt_stdio_output@@AAE_NXZ 100129f0 f i libucrt:output.obj
 0001:00011a2d       ?state_case_normal@?$output_processor@_WV?$string_output_adapter@_W@__crt_stdio_output@@V?$format_validation_base@_WV?$string_output_adapter@_W@__crt_stdio_output@@@2@@__crt_stdio_output@@AAE_NXZ 10012a2d f i libucrt:output.obj
 0001:00011a4c       ?state_case_normal_common@?$output_processor@_WV?$string_output_adapter@_W@__crt_stdio_output@@V?$format_validation_base@_WV?$string_output_adapter@_W@__crt_stdio_output@@@2@@__crt_stdio_output@@AAE_NXZ 10012a4c f i libucrt:output.obj
 0001:00011a67       ?state_case_precision@?$output_processor@_WV?$string_output_adapter@_W@__crt_stdio_output@@V?$format_validation_base@_WV?$string_output_adapter@_W@__crt_stdio_output@@@2@@__crt_stdio_output@@AAE_NXZ 10012a67 f i libucrt:output.obj
 0001:00011a8e       ?state_case_size@?$output_processor@_WV?$string_output_adapter@_W@__crt_stdio_output@@V?$format_validation_base@_WV?$string_output_adapter@_W@__crt_stdio_output@@@2@@__crt_stdio_output@@AAE_NXZ 10012a8e f i libucrt:output.obj
 0001:00011c06       ?state_case_type@?$output_processor@_WV?$string_output_adapter@_W@__crt_stdio_output@@V?$format_validation_base@_WV?$string_output_adapter@_W@__crt_stdio_output@@@2@@__crt_stdio_output@@AAE_NXZ 10012c06 f i libucrt:output.obj
 0001:00011e6b       ?state_case_width@?$output_processor@_WV?$string_output_adapter@_W@__crt_stdio_output@@V?$format_validation_base@_WV?$string_output_adapter@_W@__crt_stdio_output@@@2@@__crt_stdio_output@@AAE_NXZ 10012e6b f i libucrt:output.obj
 0001:00011e97       ?to_integer_size@__crt_stdio_output@@YAIW4length_modifier@1@@Z 10012e97 f i libucrt:output.obj
 0001:00011eeb       ?type_case_Z@?$output_processor@_WV?$string_output_adapter@_W@__crt_stdio_output@@V?$format_validation_base@_WV?$string_output_adapter@_W@__crt_stdio_output@@@2@@__crt_stdio_output@@AAE_NXZ 10012eeb f i libucrt:output.obj
 0001:00011f45       ?type_case_a@?$output_processor@_WV?$string_output_adapter@_W@__crt_stdio_output@@V?$format_validation_base@_WV?$string_output_adapter@_W@__crt_stdio_output@@@2@@__crt_stdio_output@@AAE_NXZ 10012f45 f i libucrt:output.obj
 0001:000120aa       ?type_case_c_tchar@?$output_processor@_WV?$string_output_adapter@_W@__crt_stdio_output@@V?$format_validation_base@_WV?$string_output_adapter@_W@__crt_stdio_output@@@2@@__crt_stdio_output@@AAE_N_W@Z 100130aa f i libucrt:output.obj
 0001:00012140       ?type_case_integer@?$output_processor@_WV?$string_output_adapter@_W@__crt_stdio_output@@V?$format_validation_base@_WV?$string_output_adapter@_W@__crt_stdio_output@@@2@@__crt_stdio_output@@AAE_NI_N@Z 10013140 f i libucrt:output.obj
 0001:00012295       ?type_case_n@?$output_processor@_WV?$string_output_adapter@_W@__crt_stdio_output@@V?$format_validation_base@_WV?$string_output_adapter@_W@__crt_stdio_output@@@2@@__crt_stdio_output@@AAE_NXZ 10013295 f i libucrt:output.obj
 0001:00012309       ?type_case_o@?$output_processor@_WV?$string_output_adapter@_W@__crt_stdio_output@@V?$format_validation_base@_WV?$string_output_adapter@_W@__crt_stdio_output@@@2@@__crt_stdio_output@@AAE_NXZ 10013309 f i libucrt:output.obj
 0001:00012328       ?type_case_p@?$output_processor@_WV?$string_output_adapter@_W@__crt_stdio_output@@V?$format_validation_base@_WV?$string_output_adapter@_W@__crt_stdio_output@@@2@@__crt_stdio_output@@AAE_NXZ 10013328 f i libucrt:output.obj
 0001:00012340       ?type_case_s@?$output_processor@_WV?$string_output_adapter@_W@__crt_stdio_output@@V?$format_validation_base@_WV?$string_output_adapter@_W@__crt_stdio_output@@@2@@__crt_stdio_output@@AAE_NXZ 10013340 f i libucrt:output.obj
 0001:000123b3       ?type_case_s_compute_narrow_string_length@?$output_processor@_WV?$string_output_adapter@_W@__crt_stdio_output@@V?$format_validation_base@_WV?$string_output_adapter@_W@__crt_stdio_output@@@2@@__crt_stdio_output@@ABEHH_W@Z 100133b3 f i libucrt:output.obj
 0001:000123fa       ?validate@?$c_string_character_source@_W@__crt_strtox@@QBE_NXZ 100133fa f i libucrt:atox.obj
 0001:000123fa       ?validate@?$string_output_adapter@_W@__crt_stdio_output@@QBE_NXZ 100133fa f i libucrt:output.obj
 0001:00012415       ?validate_and_update_state_at_end_of_format_string@?$format_validation_base@_WV?$string_output_adapter@_W@__crt_stdio_output@@@__crt_stdio_output@@IBE_NXZ 10013415 f i libucrt:output.obj
 0001:00012437       ?write_character@?$string_output_adapter@_W@__crt_stdio_output@@QBE_N_WQAH@Z 10013437 f i libucrt:output.obj
 0001:0001247c       ?write_stored_string_tchar@?$output_processor@_WV?$string_output_adapter@_W@__crt_stdio_output@@V?$format_validation_base@_WV?$string_output_adapter@_W@__crt_stdio_output@@@2@@__crt_stdio_output@@AAE_N_W@Z 1001347c f i libucrt:output.obj
 0001:0001250f       ?write_string@?$string_output_adapter@_W@__crt_stdio_output@@QBEXQB_WHQAHAAV__crt_deferred_errno_cache@@@Z 1001350f f i libucrt:output.obj
 0001:00012580       ___acrt_locale_get_ctype_array_value 10013580 f i libucrt:output.obj
 0001:000125a2       ___stdio_common_vswprintf_s 100135a2 f   libucrt:output.obj
 0001:000125c6       __seh_filter_dll           100135c6 f   libucrt:exception_filter.obj
 0001:000125e6       __seh_filter_exe           100135e6 f   libucrt:exception_filter.obj
 0001:000129b4       ___acrt_initialize_thread_local_exit_callback 100139b4 f   libucrt:exit.obj
 0001:000129c3       __cexit                    100139c3 f   libucrt:exit.obj
 0001:000129d2       __exit                     100139d2 f   libucrt:exit.obj
 0001:000129e8       __is_c_termination_complete 100139e8 f   libucrt:exit.obj
 0001:00012c9c       ___acrt_allocate_buffer_for_argv 10013c9c f   libucrt:argv_parsing.obj
 0001:00012ceb       __configure_narrow_argv    10013ceb f   libucrt:argv_parsing.obj
 0001:00012e48       ??$uninitialize@A6AXAAPAPA_W@Z@?$dual_state_global@PAPA_W@__crt_state_management@@QAEXA6AXAAPAPA_W@Z@Z 10013e48 f i libucrt:environment_initialization.obj
 0001:00012e48       ??$uninitialize@A6AXAAPAPAD@Z@?$dual_state_global@PAPAD@__crt_state_management@@QAEXA6AXAAPAPAD@Z@Z 10013e48 f i libucrt:environment_initialization.obj
 0001:00012ea7       ___dcrt_uninitialize_environments_nolock 10013ea7 f   libucrt:environment_initialization.obj
 0001:00012ede       __initialize_narrow_environment 10013ede f   libucrt:environment_initialization.obj
 0001:00012f99       ??$__crt_fast_encode_pointer@PAX@@YAPAXQAX@Z 10013f99 f i libucrt:initialization.obj
 0001:00012f99       ??$__crt_fast_encode_pointer@P6AHXZ@@YAP6AHXZQ6AHXZ@Z 10013f99 f i libucrt:onexit.obj
 0001:00012f99       ??$__crt_fast_encode_pointer@PAP6AXXZ@@YAPAP6AXXZQAP6AXXZ@Z 10013f99 f i libucrt:onexit.obj
 0001:000131bb       __crt_atexit               100141bb f   libucrt:onexit.obj
 0001:000131d1       __execute_onexit_table     100141d1 f   libucrt:onexit.obj
 0001:000131fe       __initialize_onexit_table  100141fe f   libucrt:onexit.obj
 0001:00013227       __register_onexit_function 10014227 f   libucrt:onexit.obj
 0001:0001325a       ___acrt_uninitialize_command_line 1001425a f   libucrt:argv_data.obj
 0001:00013358       ___acrt_initialize         10014358 f   libucrt:initialization.obj
 0001:0001336a       ___acrt_thread_attach      1001436a f   libucrt:initialization.obj
 0001:00013375       ___acrt_thread_detach      10014375 f   libucrt:initialization.obj
 0001:0001337d       ___acrt_uninitialize       1001437d f   libucrt:initialization.obj
 0001:000133ad       ___acrt_uninitialize_critical 100143ad f   libucrt:initialization.obj
 0001:000133bf       __initterm                 100143bf f   libucrt:initterm.obj
 0001:00013404       __initterm_e               10014404 f   libucrt:initterm.obj
 0001:00013432       ___acrt_initialize_new_handler 10014432 f   libucrt:new_handler.obj
 0001:00013441       __callnewh                 10014441 f   libucrt:new_handler.obj
 0001:0001346e       __query_new_handler        1001446e f   libucrt:new_handler.obj
 0001:000134ca       _terminate                 100144ca f   libucrt:terminate.obj
 0001:00013506       _abort                     10014506 f   libucrt:abort.obj
 0001:0001354a       _strcpy_s                  1001454a f   libucrt:strcpy_s.obj
 0001:000135a4       ??$is_overflow_condition@K@__crt_strtox@@YA_NIK@Z 100145a4 f i libucrt:atox.obj
 0001:000135d5       ??$parse_integer@KV?$c_string_character_source@_W@__crt_strtox@@@__crt_strtox@@YAKQAU__crt_locale_pointers@@V?$c_string_character_source@_W@0@H_N@Z 100145d5 f i libucrt:atox.obj
 0001:00013bdd       ?unget@?$c_string_character_source@_W@__crt_strtox@@QAEX_W@Z 10014bdd f i libucrt:atox.obj
 0001:00013c10       _strncmp                   10014c10 f   libucrt:strncmp.obj
 0001:00013c88       _wcsncmp                   10014c88 f   libucrt:wcsncmp.obj
 0001:00013cc2       __free_base                10014cc2 f   libucrt:free_base.obj
 0001:0001403a       ___acrt_freeptd            1001503a f   libucrt:per_thread_data.obj
 0001:00014066       ___acrt_getptd             10015066 f   libucrt:per_thread_data.obj
 0001:00014123       ___acrt_getptd_head        10015123 f   libucrt:per_thread_data.obj
 0001:000141bd       ___acrt_getptd_noexit      100151bd f   libucrt:per_thread_data.obj
 0001:00014272       ___acrt_initialize_ptd     10015272 f   libucrt:per_thread_data.obj
 0001:0001429e       ___acrt_uninitialize_ptd   1001529e f   libucrt:per_thread_data.obj
 0001:000142b8       __calloc_base              100152b8 f   libucrt:calloc_base.obj
 0001:00014315       __malloc_base              10015315 f   libucrt:malloc_base.obj
 0001:00014363       __msize_base               10015363 f   libucrt:msize.obj
 0001:00014396       __realloc_base             10015396 f   libucrt:realloc_base.obj
 0001:00014597       ___acrt_AppPolicyGetProcessTerminationMethodInternal@4 10015597 f   libucrt:winapi_thunks.obj
 0001:000145d7       ___acrt_AreFileApisANSI@0  100155d7 f   libucrt:winapi_thunks.obj
 0001:000145f6       ___acrt_FlsAlloc@4         100155f6 f   libucrt:winapi_thunks.obj
 0001:00014635       ___acrt_FlsFree@4          10015635 f   libucrt:winapi_thunks.obj
 0001:00014674       ___acrt_FlsGetValue@4      10015674 f   libucrt:winapi_thunks.obj
 0001:000146b3       ___acrt_FlsSetValue@8      100156b3 f   libucrt:winapi_thunks.obj
 0001:000146f5       ___acrt_InitializeCriticalSectionEx@12 100156f5 f   libucrt:winapi_thunks.obj
 0001:00014740       ___acrt_LCMapStringEx@36   10015740 f   libucrt:winapi_thunks.obj
 0001:0001479d       ___acrt_LocaleNameToLCID@8 1001579d f   libucrt:winapi_thunks.obj
 0001:000147ce       ___acrt_SetThreadStackGuarantee@4 100157ce f   libucrt:winapi_thunks.obj
 0001:00014809       ___acrt_initialize_winapi_thunks 10015809 f   libucrt:winapi_thunks.obj
 0001:00014834       ___acrt_uninitialize_winapi_thunks 10015834 f   libucrt:winapi_thunks.obj
 0001:0001486a       ??$make_c_string_character_source@_WPAPA_W@__crt_strtox@@YA?AV?$c_string_character_source@_W@0@QB_WQAPA_W@Z 1001586a f i libucrt:strtox.obj
 0001:00014885       _wcstol                    10015885 f   libucrt:strtox.obj
 0001:000148af       __mbtowc_l                 100158af f   libucrt:mbtowc.obj
 0001:000149f1       _mbtowc                    100159f1 f   libucrt:mbtowc.obj
 0001:00014a0b       _wcsnlen                   10015a0b f   libucrt:strnlen.obj
 0001:00014bbb       ___acrt_update_locale_info 10015bbb f   libucrt:locale_update.obj
 0001:00014be8       ___acrt_update_multibyte_info 10015be8 f   libucrt:locale_update.obj
 0001:00014c15       ?__acrt_fp_classify@@YA?AW4__acrt_fp_class@@ABN@Z 10015c15 f i libucrt:cvt.obj
 0001:00015460       ___acrt_fp_format          10016460 f   libucrt:cvt.obj
 0001:0001559b       __fileno                   1001659b f   libucrt:fileno.obj
 0001:000155c2       ___acrt_initialize_stdio   100165c2 f   libucrt:_file.obj
 0001:0001568a       ___acrt_uninitialize_stdio 1001668a f   libucrt:_file.obj
 0001:000156d6       __lock_file                100166d6 f   libucrt:_file.obj
 0001:000156ea       __unlock_file              100166ea f   libucrt:_file.obj
 0001:000156fe       __get_printf_count_output  100166fe f   libucrt:printf_count_output.obj
 0001:00015781       ___acrt_set_locale_changed 10016781 f   libucrt:wsetlocale.obj
 0001:0001578c       ___acrt_uninitialize_locale 1001678c f   libucrt:wsetlocale.obj
 0001:0001591d       ___acrt_initialize_lowio   1001691d f   libucrt:ioinit.obj
 0001:0001597d       ___acrt_uninitialize_lowio 1001697d f   libucrt:ioinit.obj
 0001:000159a9       ___acrt_initialize_locks   100169a9 f   libucrt:locks.obj
 0001:000159ea       ___acrt_lock               100169ea f   libucrt:locks.obj
 0001:00015a01       ___acrt_uninitialize_locks 10016a01 f   libucrt:locks.obj
 0001:00015a32       ___acrt_unlock             10016a32 f   libucrt:locks.obj
 0001:00015a49       ___acrt_get_process_end_policy 10016a49 f   libucrt:win_policies.obj
 0001:00015c13       ??$__acrt_mbs_to_wcs_cp@U__crt_win32_buffer_internal_dynamic_resizing@@@@YAHQBDAAV?$__crt_win32_buffer@_WU__crt_win32_buffer_internal_dynamic_resizing@@@@I@Z 10016c13 f i libucrt:argv_wildcards.obj
 0001:00016127       ?__acrt_get_utf8_acp_compatibility_codepage@@YAIXZ 10017127 f i libucrt:argv_wildcards.obj
 0001:00016166       ?_deallocate@?$__crt_win32_buffer@DU__crt_win32_buffer_internal_dynamic_resizing@@@@AAEXXZ 10017166 f i libucrt:argv_wildcards.obj
 0001:00016166       ?_deallocate@?$__crt_win32_buffer@_WU__crt_win32_buffer_internal_dynamic_resizing@@@@AAEXXZ 10017166 f i libucrt:argv_wildcards.obj
 0001:00016180       ?allocate@?$__crt_win32_buffer@DU__crt_win32_buffer_internal_dynamic_resizing@@@@QAEHI@Z 10017180 f i libucrt:argv_wildcards.obj
 0001:000161bc       ?allocate@?$__crt_win32_buffer@_WU__crt_win32_buffer_internal_dynamic_resizing@@@@QAEHI@Z 100171bc f i libucrt:argv_wildcards.obj
 0001:000161fb       ?allocate@__crt_win32_buffer_internal_dynamic_resizing@@SAHQAPAXIABV__crt_win32_buffer_empty_debug_info@@@Z 100171fb f i libucrt:argv_wildcards.obj
 0001:000162a1       ___acrt_expand_narrow_argv_wildcards 100172a1 f   libucrt:argv_wildcards.obj
 0001:00016373       ?allocate@?$__crt_win32_buffer@DU__crt_win32_buffer_no_resizing@@@@QAEHI@Z 10017373 f i libucrt:getmodulefilenamea.obj
 0001:0001639a       ?set_to_nullptr@?$__crt_win32_buffer@DU__crt_win32_buffer_no_resizing@@@@QAEXXZ 1001739a f i libucrt:getmodulefilenamea.obj
 0001:000163ae       ___acrt_GetModuleFileNameA 100173ae f   libucrt:getmodulefilenamea.obj
 0001:0001696d       ___acrt_initialize_multibyte 1001796d f   libucrt:mbctype.obj
 0001:000169b5       ___acrt_update_thread_multibyte_data 100179b5 f   libucrt:mbctype.obj
 0001:000169c8       __setmbcp_nolock           100179c8 f   libucrt:mbctype.obj
 0001:00016c93       __ismbblead                10017c93 f   libucrt:ismbbyte.obj
 0001:00016cab       ___acrt_initialize_command_line 10017cab f   libucrt:argv_data.obj
 0001:00016cc4       ___acrt_MultiByteToWideChar 10017cc4 f   libucrt:multibytetowidechar.obj
 0001:00016d40       ___acrt_WideCharToMultiByte 10017d40 f   libucrt:widechartomultibyte.obj
 0001:00016e24       ___dcrt_get_narrow_environment_from_os 10017e24 f   libucrt:get_environment_from_os.obj
 0001:00016ea8       ___acrt_initialize_heap    10017ea8 f   libucrt:heap_handle.obj
 0001:00016eb9       ___acrt_uninitialize_heap  10017eb9 f   libucrt:heap_handle.obj
 0001:00016ec3       ___acrt_execute_initializers 10017ec3 f   libucrt:shared_initialization.obj
 0001:00016f2b       ___acrt_execute_uninitializers 10017f2b f   libucrt:shared_initialization.obj
 0001:0001702a       ___acrt_get_sigabrt_handler 1001802a f   libucrt:signal.obj
 0001:00017051       ___acrt_initialize_signal_handlers 10018051 f   libucrt:signal.obj
 0001:0001706f       ___fpecode                 1001806f f   libucrt:signal.obj
 0001:00017078       _raise                     10018078 f   libucrt:signal.obj
 0001:00017273       ___acrt_has_user_matherr   10018273 f   libucrt:matherr.obj
 0001:0001728b       ___acrt_initialize_user_matherr 1001828b f   libucrt:matherr.obj
 0001:0001729a       ___acrt_invoke_user_matherr 1001829a f   libucrt:matherr.obj
 0001:000174a9       ___acrt_stdio_flush_nolock 100184a9 f   libucrt:fflush.obj
 0001:0001750e       __fflush_nolock            1001850e f   libucrt:fflush.obj
 0001:00017556       __flushall                 10018556 f   libucrt:fflush.obj
 0001:0001755f       ___pctype_func             1001855f f   libucrt:ctype.obj
 0001:00017583       _iswctype                  10018583 f   libucrt:iswctype.obj
 0001:000175ec       ___acrt_add_locale_ref     100185ec f   libucrt:locale_refcounting.obj
 0001:00017669       ___acrt_free_locale        10018669 f   libucrt:locale_refcounting.obj
 0001:000177b1       ___acrt_locale_add_lc_time_reference 100187b1 f   libucrt:locale_refcounting.obj
 0001:000177da       ___acrt_locale_free_lc_time_if_unreferenced 100187da f   libucrt:locale_refcounting.obj
 0001:0001780b       ___acrt_locale_release_lc_time_reference 1001880b f   libucrt:locale_refcounting.obj
 0001:00017834       ___acrt_release_locale_ref 10018834 f   libucrt:locale_refcounting.obj
 0001:000178b5       ___acrt_update_thread_locale_data 100188b5 f   libucrt:locale_refcounting.obj
 0001:00017936       __updatetlocinfoEx_nolock  10018936 f   libucrt:locale_refcounting.obj
 0001:00017986       __query_new_mode           10018986 f   libucrt:new_mode.obj
 0001:000179dd       ___acrt_DownlevelLocaleNameToLCID 100189dd f   libucrt:lcidtoname_downlevel.obj
 0001:00017a09       __isleadbyte_l             10018a09 f i libucrt:_wctype.obj
 0001:00017a6f       ?__mbrtowc_utf8@__crt_mbstring@@YAIPA_WPBDIPAU_Mbstatet@@@Z 10018a6f f   libucrt:mbrtowc.obj
 0001:00017aaf       ?__mbsrtowcs_utf8@__crt_mbstring@@YAIPA_WPAPBDIPAU_Mbstatet@@@Z 10018aaf f   libucrt:mbrtowc.obj
 0001:00017baa       ?return_illegal_sequence@__crt_mbstring@@YAIPAU_Mbstatet@@@Z 10018baa f i libucrt:c32rtomb.obj
 0001:00017bc9       ___acrt_fp_strflt_to_string 10018bc9 f   libucrt:_fptostr.obj
 0001:00017c90       ?divide@__crt_strtox@@YA_KAAUbig_integer@1@ABU21@@Z 10018c90 f i libucrt:cfout.obj
 0001:00018128       ___acrt_fltout             10019128 f   libucrt:cfout.obj
 0001:00019472       __fcloseall                1001a472 f   libucrt:closeall.obj
 0001:0001951d       ___acrt_stdio_free_buffer_nolock 1001a51d f   libucrt:_freebuf.obj
 0001:0001955d       __isatty                   1001a55d f   libucrt:isatty.obj
 0001:000195b3       ___acrt_locale_free_monetary 1001a5b3 f   libucrt:initmon.obj
 0001:000196b1       ___acrt_locale_free_numeric 1001a6b1 f   libucrt:initnum.obj
 0001:00019752       ___acrt_locale_free_time   1001a752 f   libucrt:inittime.obj
 0001:00019836       ___acrt_GetStringTypeA     1001a836 f   libucrt:getstringtypea.obj
 0001:00019939       __freea_crt                1001a939 f i libucrt:getstringtypea.obj
 0001:00019959       ___acrt_lowio_create_handle_array 1001a959 f   libucrt:osfinfo.obj
 0001:000199d4       ___acrt_lowio_destroy_handle_array 1001a9d4 f   libucrt:osfinfo.obj
 0001:00019a09       ___acrt_lowio_ensure_fh_exists 1001aa09 f   libucrt:osfinfo.obj
 0001:00019aa7       ___acrt_lowio_lock_fh      1001aaa7 f   libucrt:osfinfo.obj
 0001:00019aca       ___acrt_lowio_unlock_fh    1001aaca f   libucrt:osfinfo.obj
 0001:00019aed       __free_osfhnd              1001aaed f   libucrt:osfinfo.obj
 0001:00019b7e       __get_osfhandle            1001ab7e f   libucrt:osfinfo.obj
 0001:00019c30       _qsort                     1001ac30 f   libucrt:qsort.obj
 0001:0001a127       _strncpy_s                 1001b127 f   libucrt:strncpy_s.obj
 0001:0001a140       _strpbrk                   1001b140 f   libucrt:strpbrk.obj
 0001:0001a180       __mbsdec                   1001b180 f   libucrt:mbsdec.obj
 0001:0001a197       __mbsdec_l                 1001b197 f   libucrt:mbsdec.obj
 0001:0001a40e       ___acrt_LCMapStringA       1001b40e f   libucrt:lcmapstringa.obj
 0001:0001a508       __commit                   1001b508 f   libucrt:commit.obj
 0001:0001acfe       __write                    1001bcfe f   libucrt:write.obj
 0001:0001adf0       __write_nolock             1001bdf0 f   libucrt:write.obj
 0001:0001afd2       ___acrt_GetStringTypeW     1001bfd2 f   libucrt:getstringtypew.obj
 0001:0001afeb       ___ascii_wcsnicmp          1001bfeb f   libucrt:wcsnicmp.obj
 0001:0001b03a       ?__mbrtoc32_utf8@__crt_mbstring@@YAIPA_UPBDIPAU_Mbstatet@@@Z 1001c03a f   libucrt:mbrtoc32.obj
 0001:0001b1e1       _fegetenv                  1001c1e1 f   libucrt:fegetenv.obj
 0001:0001b1fe       _fesetenv                  1001c1fe f   libucrt:fesetenv.obj
 0001:0001b249       _feholdexcept              1001c249 f   libucrt:feholdexcept.obj
 0001:0001b2a0       __CIlog10                  1001c2a0 f   libucrt:log10_impl.obj
 0001:0001b2db       __CIlog10_default          1001c2db f   libucrt:log10_impl.obj
 0001:0001b2ef       __log10_default            1001c2ef     libucrt:log10_impl.obj
 0001:0001b3b0       _ceil                      1001c3b0 f   libucrt:ceil_pentium4.obj
 0001:0001b3f0       __ceil_pentium4            1001c3f0 f   libucrt:ceil_pentium4.obj
 0001:0001b549       __lseeki64_nolock          1001c549 f   libucrt:lseek.obj
 0001:0001b564       __fclose_nolock            1001c564 f   libucrt:fclose.obj
 0001:0001b5db       _fclose                    1001c5db f   libucrt:fclose.obj
 0001:0001b65f       __query_app_type           1001c65f f   libucrt:report_runtime_error.obj
 0001:0001b665       ___strncnt                 1001c665 f   libucrt:strncnt.obj
 0001:0001b681       __putwch_nolock            1001c681 f   libucrt:putwch.obj
 0001:0001b9c0       ___acrt_fenv_get_control   1001c9c0 f   libucrt:_fenvutils.obj
 0001:0001ba40       ___acrt_fenv_get_status    1001ca40 f   libucrt:_fenvutils.obj
 0001:0001baf8       ___acrt_fenv_set_control   1001caf8 f   libucrt:_fenvutils.obj
 0001:0001bb60       ___acrt_fenv_set_status    1001cb60 f   libucrt:_fenvutils.obj
 0001:0001bc57       __clearfp                  1001cc57 f   libucrt:ieee87.obj
 0001:0001bd35       ___acrt_initialize_sse2    1001cd35 f   libucrt:mathfcns.obj
 0001:0001bd50       __CIlog10_pentium4         1001cd50 f   libucrt:log10_pentium4.obj
 0001:0001bd68       __log10_pentium4           1001cd68     libucrt:log10_pentium4.obj
 0001:0001c000       __fFEXP                    1001d000 f   libucrt:87tran.obj
 0001:0001c057       __rtinfpopse               1001d057     libucrt:87tran.obj
 0001:0001c059       __rtinfnpopse              1001d059     libucrt:87tran.obj
 0001:0001c069       __fFLN                     1001d069     libucrt:87tran.obj
 0001:0001c11e       __rtinfpop                 1001d11e     libucrt:87tran.obj
 0001:0001c120       __rtinfnpop                1001d120     libucrt:87tran.obj
 0001:0001c130       __rtforexpinf              1001d130 f   libucrt:87tran.obj
 0001:0001c13d       __ffexpm1                  1001d13d     libucrt:87tran.obj
 0001:0001c1f0       __trandisp1                1001d1f0 f   libucrt:87disp.obj
 0001:0001c265       __trandisp2                1001d265 f   libucrt:87disp.obj
 0001:0001c2ff       __rttospopde               1001d2ff     libucrt:87disp.obj
 0001:0001c304       __rttospop                 1001d304     libucrt:87disp.obj
 0001:0001c310       __rtnospop                 1001d310 f   libucrt:87disp.obj
 0001:0001c320       __rttosnpop                1001d320 f   libucrt:87disp.obj
 0001:0001c321       __rtnospopde               1001d321     libucrt:87disp.obj
 0001:0001c328       __rtzeropop                1001d328     libucrt:87disp.obj
 0001:0001c32a       __rtzeronpop               1001d32a     libucrt:87disp.obj
 0001:0001c330       __rtzerospop               1001d330 f   libucrt:87disp.obj
 0001:0001c33d       __rtonepop                 1001d33d     libucrt:87disp.obj
 0001:0001c340       __rtonenpop                1001d340 f   libucrt:87disp.obj
 0001:0001c350       __tosnan1                  1001d350 f   libucrt:87disp.obj
 0001:0001c380       __nosnan2                  1001d380 f   libucrt:87disp.obj
 0001:0001c390       __tosnan2                  1001d390 f   libucrt:87disp.obj
 0001:0001c3c0       __nan2                     1001d3c0 f   libucrt:87disp.obj
 0001:0001c400       __rtindfpop                1001d400 f   libucrt:87disp.obj
 0001:0001c402       __rtindfnpop               1001d402     libucrt:87disp.obj
 0001:0001c413       __rttosnpopde              1001d413     libucrt:87disp.obj
 0001:0001c420       __rtatan2inf               1001d420 f   libucrt:87disp.obj
 0001:0001c43d       __rtchsifneg               1001d43d     libucrt:87disp.obj
 0001:0001c450       __twoToTOS                 1001d450 f   libucrt:common.obj
 0001:0001c465       __load_CW                  1001d465 f   libucrt:common.obj
 0001:0001c47c       __convertTOStoQNaN         1001d47c f   libucrt:common.obj
 0001:0001c495       __fload_withFB             1001d495 f   libucrt:common.obj
 0001:0001c4d8       __checkTOS_withFB          1001d4d8 f   libucrt:common.obj
 0001:0001c4ee       __fast_exit                1001d4ee f   libucrt:common.obj
 0001:0001c4fb       __math_exit                1001d4fb f   libucrt:common.obj
 0001:0001c525       __check_overflow_exit      1001d525 f   libucrt:common.obj
 0001:0001c539       __check_range_exit         1001d539 f   libucrt:common.obj
 0001:0001c5e0       __startTwoArgErrorHandling 1001d5e0 f   libucrt:genexcep.obj
 0001:0001c5f7       __startOneArgErrorHandling 1001d5f7 f   libucrt:genexcep.obj
 0001:0001c633       ___libm_error_support      1001d633 f   libucrt:libm_error.obj
 0001:0001c827       __ceil_default             1001d827 f   libucrt:ceil.obj
 0001:0001c968       __close                    1001d968 f   libucrt:close.obj
 0001:0001c9f5       __close_nolock             1001d9f5 f   libucrt:close.obj
 0001:0001ca91       ?__acrt_stdio_free_stream@@YAXV__crt_stdio_stream@@@Z 1001da91 f   libucrt:stream.obj
 0001:0001cad0       ___ascii_strnicmp          1001dad0 f   libucrt:_strnicm.obj
 0001:0001cb50       ___dcrt_lowio_ensure_console_output_initialized 1001db50 f   libucrt:initcon.obj
 0001:0001cb6f       ___dcrt_terminate_console_output 1001db6f f   libucrt:initcon.obj
 0001:0001cb86       ___dcrt_write_console      1001db86 f   libucrt:initcon.obj
 0001:0001cbdb       __clrfp                    1001dbdb f   libucrt:fpctrl.obj
 0001:0001cbec       __ctrlfp                   1001dbec f   libucrt:fpctrl.obj
 0001:0001cc16       __set_statfp               1001dc16 f   libucrt:fpctrl.obj
 0001:0001cc6f       __statfp                   1001dc6f f   libucrt:fpctrl.obj
 0001:0001cc7f       __d_inttype                1001dc7f f   libucrt:powhlp.obj
 0001:0001cce7       __powhlp                   1001dce7 f   libucrt:powhlp.obj
 0001:0001ce12       __87except                 1001de12 f   libucrt:87except.obj
 0001:0001cf1c       __frnd                     1001df1c f   libucrt:frnd.obj
 0001:0001cf30       __errcode                  1001df30 f   libucrt:fpexcept.obj
 0001:0001cf64       __except1                  1001df64 f   libucrt:fpexcept.obj
 0001:0001d032       __handle_exc               1001e032 f   libucrt:fpexcept.obj
 0001:0001d21d       __raise_exc                1001e21d f   libucrt:fpexcept.obj
 0001:0001d240       __raise_exc_ex             1001e240 f   libucrt:fpexcept.obj
 0001:0001d536       __set_errno_from_matherr   1001e536 f   libucrt:fpexcept.obj
 0001:0001d565       __umatherr                 1001e565 f   libucrt:fpexcept.obj
 0001:0001d605       __decomp                   1001e605 f   libucrt:util.obj
 0001:0001d6d7       __set_exp                  1001e6d7 f   libucrt:util.obj
 0001:0001d704       __sptype                   1001e704 f   libucrt:util.obj
 0001:0001d762       __fpclass                  1001e762 f   libucrt:ieeemisc.obj
 0001:0001d806       _IsProcessorFeaturePresent@4 1001e806 f   kernel32:KERNEL32.dll
 0001:0001d810       __FindPESection            1001e810 f   LIBCMT:pesect.obj
 0001:0001d860       __IsNonwritableInCurrentImage 1001e860 f   LIBCMT:pesect.obj
 0001:0001d920       __ValidateImageBase        1001e920 f   LIBCMT:pesect.obj
 0001:0001d953       __EH_prolog3_catch         1001e953 f   LIBCMT:ehprolg3.obj
 0001:0001d990       __aulldvrm                 1001e990 f   LIBCMT:ulldvrm.obj
 0001:0001da30       __allmul                   1001ea30 f   LIBCMT:llmul.obj
 0001:0001da70       __alldvrm                  1001ea70 f   LIBCMT:lldvrm.obj
 0001:0001db50       __aullshr                  1001eb50 f   LIBCMT:ullshr.obj
 0001:0001db70       __allshl                   1001eb70 f   LIBCMT:llshl.obj
 0001:0001db90       __ftoi2                    1001eb90 f   LIBCMT:ftol2.obj
 0001:0001db90       __ftol2_sse_excpt          1001eb90     LIBCMT:ftol2.obj
 0001:0001db90       __ftol2_sse                1001eb90     LIBCMT:ftol2.obj
 0001:0001dc10       __ftoui2                   1001ec10 f   LIBCMT:ftol2.obj
 0001:0001dcc0       __ftol2                    1001ecc0 f   LIBCMT:ftol2.obj
 0001:0001dd70       __ftoul2                   1001ed70 f   LIBCMT:ftol2.obj
 0001:0001de30       _strrchr                   1001ee30 f   libvcruntime:strrchr.obj
 0001:0001df70       _strchr                    1001ef70 f   libvcruntime:strchr.obj
 0001:0001dfde       ___from_strstr_to_strchr   1001efde     libvcruntime:strchr.obj
 0001:0001e09b       __filter_x86_sse2_floating_point_exception 1001f09b f   LIBCMT:x86_exception_filter.obj
 0001:0001e09b       __filter_x86_sse2_floating_point_exception_default 1001f09b f   LIBCMT:x86_exception_filter.obj
 0002:00000000       __imp__RegQueryValueExW@24 10020000     advapi32:ADVAPI32.dll
 0002:00000004       __imp__RegSetValueExW@24   10020004     advapi32:ADVAPI32.dll
 0002:00000008       __imp__RegQueryInfoKeyW@48 10020008     advapi32:ADVAPI32.dll
 0002:0000000c       __imp__RegOpenKeyExW@20    1002000c     advapi32:ADVAPI32.dll
 0002:00000010       __imp__RegEnumKeyExW@32    10020010     advapi32:ADVAPI32.dll
 0002:00000014       __imp__RegDeleteValueW@8   10020014     advapi32:ADVAPI32.dll
 0002:00000018       __imp__RegDeleteKeyW@8     10020018     advapi32:ADVAPI32.dll
 0002:0000001c       __imp__RegCreateKeyExW@36  1002001c     advapi32:ADVAPI32.dll
 0002:00000020       __imp__RegCloseKey@4       10020020     advapi32:ADVAPI32.dll
 0002:00000024       \177ADVAPI32_NULL_THUNK_DATA 10020024     advapi32:ADVAPI32.dll
 0002:00000028       __imp__GetObjectW@12       10020028     gdi32:GDI32.dll
 0002:0000002c       __imp__SelectObject@8      1002002c     gdi32:GDI32.dll
 0002:00000030       __imp__DeleteObject@4      10020030     gdi32:GDI32.dll
 0002:00000034       __imp__CreateCompatibleDC@4 10020034     gdi32:GDI32.dll
 0002:00000038       __imp__BitBlt@36           10020038     gdi32:GDI32.dll
 0002:0000003c       __imp__SetWindowOrgEx@16   1002003c     gdi32:GDI32.dll
 0002:00000040       __imp__SetWindowExtEx@16   10020040     gdi32:GDI32.dll
 0002:00000044       __imp__SetViewportOrgEx@16 10020044     gdi32:GDI32.dll
 0002:00000048       __imp__LPtoDP@12           10020048     gdi32:GDI32.dll
 0002:0000004c       __imp__SetMapMode@8        1002004c     gdi32:GDI32.dll
 0002:00000050       __imp__SaveDC@4            10020050     gdi32:GDI32.dll
 0002:00000054       __imp__RestoreDC@8         10020054     gdi32:GDI32.dll
 0002:00000058       __imp__GetDeviceCaps@8     10020058     gdi32:GDI32.dll
 0002:0000005c       __imp__DeleteMetaFile@4    1002005c     gdi32:GDI32.dll
 0002:00000060       __imp__DeleteDC@4          10020060     gdi32:GDI32.dll
 0002:00000064       __imp__CreateRectRgnIndirect@4 10020064     gdi32:GDI32.dll
 0002:00000068       __imp__CreateMetaFileW@4   10020068     gdi32:GDI32.dll
 0002:0000006c       __imp__CreateDCW@16        1002006c     gdi32:GDI32.dll
 0002:00000070       __imp__CloseMetaFile@4     10020070     gdi32:GDI32.dll
 0002:00000074       \177GDI32_NULL_THUNK_DATA  10020074     gdi32:GDI32.dll
 0002:00000078       __imp__CloseHandle@4       10020078     kernel32:KERNEL32.dll
 0002:0000007c       __imp__SetEvent@4          1002007c     kernel32:KERNEL32.dll
 0002:00000080       __imp__CreateMutexW@12     10020080     kernel32:KERNEL32.dll
 0002:00000084       __imp__CreateEventW@16     10020084     kernel32:KERNEL32.dll
 0002:00000088       __imp__GetCurrentProcessId@0 10020088     kernel32:KERNEL32.dll
 0002:0000008c       __imp__CreateFileW@28      1002008c     kernel32:KERNEL32.dll
 0002:00000090       __imp__GetConsoleMode@8    10020090     kernel32:KERNEL32.dll
 0002:00000094       __imp__GetConsoleCP@0      10020094     kernel32:KERNEL32.dll
 0002:00000098       __imp__WriteFile@20        10020098     kernel32:KERNEL32.dll
 0002:0000009c       __imp__FlushFileBuffers@4  1002009c     kernel32:KERNEL32.dll
 0002:000000a0       __imp__SetStdHandle@8      100200a0     kernel32:KERNEL32.dll
 0002:000000a4       __imp__GetStringTypeW@16   100200a4     kernel32:KERNEL32.dll
 0002:000000a8       __imp__SetFilePointerEx@20 100200a8     kernel32:KERNEL32.dll
 0002:000000ac       __imp__FreeEnvironmentStringsW@4 100200ac     kernel32:KERNEL32.dll
 0002:000000b0       __imp__GetEnvironmentStringsW@0 100200b0     kernel32:KERNEL32.dll
 0002:000000b4       __imp__lstrcmpiW@8         100200b4     kernel32:KERNEL32.dll
 0002:000000b8       __imp__GetCommandLineA@0   100200b8     kernel32:KERNEL32.dll
 0002:000000bc       __imp__GetCPInfo@8         100200bc     kernel32:KERNEL32.dll
 0002:000000c0       __imp__GetOEMCP@0          100200c0     kernel32:KERNEL32.dll
 0002:000000c4       __imp__GetACP@0            100200c4     kernel32:KERNEL32.dll
 0002:000000c8       __imp__IsValidCodePage@4   100200c8     kernel32:KERNEL32.dll
 0002:000000cc       __imp__FindNextFileW@8     100200cc     kernel32:KERNEL32.dll
 0002:000000d0       __imp__FindFirstFileExW@24 100200d0     kernel32:KERNEL32.dll
 0002:000000d4       __imp__FindClose@4         100200d4     kernel32:KERNEL32.dll
 0002:000000d8       __imp__GetFileType@4       100200d8     kernel32:KERNEL32.dll
 0002:000000dc       __imp__GetStdHandle@4      100200dc     kernel32:KERNEL32.dll
 0002:000000e0       __imp__LCMapStringW@24     100200e0     kernel32:KERNEL32.dll
 0002:000000e4       __imp__HeapReAlloc@16      100200e4     kernel32:KERNEL32.dll
 0002:000000e8       __imp__HeapSize@12         100200e8     kernel32:KERNEL32.dll
 0002:000000ec       __imp__MulDiv@12           100200ec     kernel32:KERNEL32.dll
 0002:000000f0       __imp__GlobalLock@4        100200f0     kernel32:KERNEL32.dll
 0002:000000f4       __imp__GlobalUnlock@4      100200f4     kernel32:KERNEL32.dll
 0002:000000f8       __imp__GlobalAlloc@8       100200f8     kernel32:KERNEL32.dll
 0002:000000fc       __imp__FindResourceW@12    100200fc     kernel32:KERNEL32.dll
 0002:00000100       __imp__SizeofResource@8    10020100     kernel32:KERNEL32.dll
 0002:00000104       __imp__LoadResource@8      10020104     kernel32:KERNEL32.dll
 0002:00000108       __imp__LoadLibraryExW@12   10020108     kernel32:KERNEL32.dll
 0002:0000010c       __imp__GetProcAddress@8    1002010c     kernel32:KERNEL32.dll
 0002:00000110       __imp__GetModuleHandleW@4  10020110     kernel32:KERNEL32.dll
 0002:00000114       __imp__GetModuleFileNameW@12 10020114     kernel32:KERNEL32.dll
 0002:00000118       __imp__FreeLibrary@4       10020118     kernel32:KERNEL32.dll
 0002:0000011c       __imp__DisableThreadLibraryCalls@4 1002011c     kernel32:KERNEL32.dll
 0002:00000120       __imp__GetCurrentThreadId@0 10020120     kernel32:KERNEL32.dll
 0002:00000124       __imp__Sleep@4             10020124     kernel32:KERNEL32.dll
 0002:00000128       __imp__WaitForSingleObject@8 10020128     kernel32:KERNEL32.dll
 0002:0000012c       __imp__ReleaseMutex@4      1002012c     kernel32:KERNEL32.dll
 0002:00000130       __imp__ResetEvent@4        10020130     kernel32:KERNEL32.dll
 0002:00000134       __imp__EnterCriticalSection@4 10020134     kernel32:KERNEL32.dll
 0002:00000138       __imp__LeaveCriticalSection@4 10020138     kernel32:KERNEL32.dll
 0002:0000013c       __imp__SetLastError@4      1002013c     kernel32:KERNEL32.dll
 0002:00000140       __imp__EncodePointer@4     10020140     kernel32:KERNEL32.dll
 0002:00000144       __imp__DeleteCriticalSection@4 10020144     kernel32:KERNEL32.dll
 0002:00000148       __imp__InitializeCriticalSectionEx@12 10020148     kernel32:KERNEL32.dll
 0002:0000014c       __imp__GetLastError@0      1002014c     kernel32:KERNEL32.dll
 0002:00000150       __imp__RaiseException@16   10020150     kernel32:KERNEL32.dll
 0002:00000154       __imp__DecodePointer@4     10020154     kernel32:KERNEL32.dll
 0002:00000158       __imp__WideCharToMultiByte@32 10020158     kernel32:KERNEL32.dll
 0002:0000015c       __imp__GetCommandLineW@0   1002015c     kernel32:KERNEL32.dll
 0002:00000160       __imp__MultiByteToWideChar@24 10020160     kernel32:KERNEL32.dll
 0002:00000164       __imp__WriteConsoleW@20    10020164     kernel32:KERNEL32.dll
 0002:00000168       __imp__GetModuleHandleExW@12 10020168     kernel32:KERNEL32.dll
 0002:0000016c       __imp__ExitProcess@4       1002016c     kernel32:KERNEL32.dll
 0002:00000170       __imp__VirtualQuery@12     10020170     kernel32:KERNEL32.dll
 0002:00000174       __imp__VirtualProtect@16   10020174     kernel32:KERNEL32.dll
 0002:00000178       __imp__GetSystemInfo@4     10020178     kernel32:KERNEL32.dll
 0002:0000017c       __imp__TlsFree@4           1002017c     kernel32:KERNEL32.dll
 0002:00000180       __imp__TlsSetValue@8       10020180     kernel32:KERNEL32.dll
 0002:00000184       __imp__TlsGetValue@4       10020184     kernel32:KERNEL32.dll
 0002:00000188       __imp__TlsAlloc@0          10020188     kernel32:KERNEL32.dll
 0002:0000018c       __imp__InterlockedFlushSList@4 1002018c     kernel32:KERNEL32.dll
 0002:00000190       __imp__RtlUnwind@16        10020190     kernel32:KERNEL32.dll
 0002:00000194       __imp__LoadLibraryExA@12   10020194     kernel32:KERNEL32.dll
 0002:00000198       __imp__VirtualFree@12      10020198     kernel32:KERNEL32.dll
 0002:0000019c       __imp__VirtualAlloc@16     1002019c     kernel32:KERNEL32.dll
 0002:000001a0       __imp__FlushInstructionCache@12 100201a0     kernel32:KERNEL32.dll
 0002:000001a4       __imp__InterlockedPushEntrySList@8 100201a4     kernel32:KERNEL32.dll
 0002:000001a8       __imp__InterlockedPopEntrySList@4 100201a8     kernel32:KERNEL32.dll
 0002:000001ac       __imp__GetProcessHeap@0    100201ac     kernel32:KERNEL32.dll
 0002:000001b0       __imp__HeapFree@12         100201b0     kernel32:KERNEL32.dll
 0002:000001b4       __imp__HeapAlloc@12        100201b4     kernel32:KERNEL32.dll
 0002:000001b8       __imp__OutputDebugStringW@4 100201b8     kernel32:KERNEL32.dll
 0002:000001bc       __imp__InitializeSListHead@4 100201bc     kernel32:KERNEL32.dll
 0002:000001c0       __imp__GetSystemTimeAsFileTime@4 100201c0     kernel32:KERNEL32.dll
 0002:000001c4       __imp__QueryPerformanceCounter@4 100201c4     kernel32:KERNEL32.dll
 0002:000001c8       __imp__GetStartupInfoW@4   100201c8     kernel32:KERNEL32.dll
 0002:000001cc       __imp__IsDebuggerPresent@0 100201cc     kernel32:KERNEL32.dll
 0002:000001d0       __imp__IsProcessorFeaturePresent@4 100201d0     kernel32:KERNEL32.dll
 0002:000001d4       __imp__TerminateProcess@8  100201d4     kernel32:KERNEL32.dll
 0002:000001d8       __imp__GetCurrentProcess@0 100201d8     kernel32:KERNEL32.dll
 0002:000001dc       __imp__SetUnhandledExceptionFilter@4 100201dc     kernel32:KERNEL32.dll
 0002:000001e0       __imp__UnhandledExceptionFilter@4 100201e0     kernel32:KERNEL32.dll
 0002:000001e4       __imp__InitializeCriticalSectionAndSpinCount@8 100201e4     kernel32:KERNEL32.dll
 0002:000001e8       __imp__WaitForSingleObjectEx@12 100201e8     kernel32:KERNEL32.dll
 0002:000001ec       \177KERNEL32_NULL_THUNK_DATA 100201ec     kernel32:KERNEL32.dll
 0002:000001f0       __imp__OleCreatePropertyFrame@44 100201f0     oleaut32:OLEAUT32.dll
 0002:000001f4       __imp__UnRegisterTypeLib@20 100201f4     oleaut32:OLEAUT32.dll
 0002:000001f8       __imp__RegisterTypeLib@12  100201f8     oleaut32:OLEAUT32.dll
 0002:000001fc       __imp__LoadRegTypeLib@20   100201fc     oleaut32:OLEAUT32.dll
 0002:00000200       __imp__LoadTypeLib@8       10020200     oleaut32:OLEAUT32.dll
 0002:00000204       __imp__VarUI4FromStr@16    10020204     oleaut32:OLEAUT32.dll
 0002:00000208       __imp__VariantInit@4       10020208     oleaut32:OLEAUT32.dll
 0002:0000020c       __imp__SysAllocStringByteLen@8 1002020c     oleaut32:OLEAUT32.dll
 0002:00000210       __imp__SysStringByteLen@4  10020210     oleaut32:OLEAUT32.dll
 0002:00000214       __imp__VariantChangeType@16 10020214     oleaut32:OLEAUT32.dll
 0002:00000218       __imp__VariantCopyInd@8    10020218     oleaut32:OLEAUT32.dll
 0002:0000021c       __imp__VariantClear@4      1002021c     oleaut32:OLEAUT32.dll
 0002:00000220       __imp__SysStringLen@4      10020220     oleaut32:OLEAUT32.dll
 0002:00000224       __imp__SysFreeString@4     10020224     oleaut32:OLEAUT32.dll
 0002:00000228       __imp__SysAllocStringLen@8 10020228     oleaut32:OLEAUT32.dll
 0002:0000022c       __imp__SysAllocString@4    1002022c     oleaut32:OLEAUT32.dll
 0002:00000230       \177OLEAUT32_NULL_THUNK_DATA 10020230     oleaut32:OLEAUT32.dll
 0002:00000234       __imp__UnregisterClassW@8  10020234     user32:USER32.dll
 0002:00000238       __imp__PostMessageW@16     10020238     user32:USER32.dll
 0002:0000023c       __imp__DefWindowProcW@16   1002023c     user32:USER32.dll
 0002:00000240       __imp__CallWindowProcW@20  10020240     user32:USER32.dll
 0002:00000244       __imp__RegisterClassExW@4  10020244     user32:USER32.dll
 0002:00000248       __imp__GetClassInfoExW@12  10020248     user32:USER32.dll
 0002:0000024c       __imp__CreateWindowExW@48  1002024c     user32:USER32.dll
 0002:00000250       __imp__IsWindow@4          10020250     user32:USER32.dll
 0002:00000254       __imp__IsChild@8           10020254     user32:USER32.dll
 0002:00000258       __imp__DestroyWindow@4     10020258     user32:USER32.dll
 0002:0000025c       __imp__ShowWindow@8        1002025c     user32:USER32.dll
 0002:00000260       __imp__SetWindowPos@28     10020260     user32:USER32.dll
 0002:00000264       __imp__CharNextW@4         10020264     user32:USER32.dll
 0002:00000268       __imp__SetFocus@4          10020268     user32:USER32.dll
 0002:0000026c       __imp__LoadBitmapW@8       1002026c     user32:USER32.dll
 0002:00000270       __imp__RegisterClassW@4    10020270     user32:USER32.dll
 0002:00000274       __imp__PeekMessageW@20     10020274     user32:USER32.dll
 0002:00000278       __imp__LoadCursorW@8       10020278     user32:USER32.dll
 0002:0000027c       __imp__GetParent@4         1002027c     user32:USER32.dll
 0002:00000280       __imp__SetWindowLongW@12   10020280     user32:USER32.dll
 0002:00000284       __imp__GetWindowLongW@8    10020284     user32:USER32.dll
 0002:00000288       __imp__PtInRect@12         10020288     user32:USER32.dll
 0002:0000028c       __imp__EqualRect@8         1002028c     user32:USER32.dll
 0002:00000290       __imp__OffsetRect@12       10020290     user32:USER32.dll
 0002:00000294       __imp__UnionRect@12        10020294     user32:USER32.dll
 0002:00000298       __imp__IntersectRect@12    10020298     user32:USER32.dll
 0002:0000029c       __imp__GetClientRect@8     1002029c     user32:USER32.dll
 0002:000002a0       __imp__InvalidateRect@12   100202a0     user32:USER32.dll
 0002:000002a4       __imp__SetWindowRgn@12     100202a4     user32:USER32.dll
 0002:000002a8       __imp__EndPaint@8          100202a8     user32:USER32.dll
 0002:000002ac       __imp__BeginPaint@8        100202ac     user32:USER32.dll
 0002:000002b0       __imp__ReleaseDC@8         100202b0     user32:USER32.dll
 0002:000002b4       __imp__GetDC@4             100202b4     user32:USER32.dll
 0002:000002b8       __imp__GetKeyState@4       100202b8     user32:USER32.dll
 0002:000002bc       __imp__GetFocus@0          100202bc     user32:USER32.dll
 0002:000002c0       \177USER32_NULL_THUNK_DATA 100202c0     user32:USER32.dll
 0002:000002c4       __imp__StringFromGUID2@12  100202c4     ole32:ole32.dll
 0002:000002c8       __imp__CoTaskMemAlloc@4    100202c8     ole32:ole32.dll
 0002:000002cc       __imp__CoTaskMemRealloc@8  100202cc     ole32:ole32.dll
 0002:000002d0       __imp__CoTaskMemFree@4     100202d0     ole32:ole32.dll
 0002:000002d4       __imp__ReadClassStm@8      100202d4     ole32:ole32.dll
 0002:000002d8       __imp__WriteClassStm@8     100202d8     ole32:ole32.dll
 0002:000002dc       __imp__CreateDataAdviseHolder@4 100202dc     ole32:ole32.dll
 0002:000002e0       __imp__OleSaveToStream@8   100202e0     ole32:ole32.dll
 0002:000002e4       __imp__CreateOleAdviseHolder@4 100202e4     ole32:ole32.dll
 0002:000002e8       __imp__OleRegGetUserType@12 100202e8     ole32:ole32.dll
 0002:000002ec       __imp__OleRegGetMiscStatus@12 100202ec     ole32:ole32.dll
 0002:000002f0       __imp__OleRegEnumVerbs@8   100202f0     ole32:ole32.dll
 0002:000002f4       __imp__CLSIDFromProgID@8   100202f4     ole32:ole32.dll
 0002:000002f8       __imp__CoCreateInstance@20 100202f8     ole32:ole32.dll
 0002:000002fc       \177ole32_NULL_THUNK_DATA  100202fc     ole32:ole32.dll
 0002:00000300       ___guard_check_icall_fptr  10020300     LIBCMT:guard_support.obj
 0002:00000304       ___xc_a                    10020304     LIBCMT:initializers.obj
 0002:0000031c       ___xc_z                    1002031c     LIBCMT:initializers.obj
 0002:00000320       ___xi_a                    10020320     LIBCMT:initializers.obj
 0002:00000328       ___acrt_stdio_initializer  10020328     libucrt:stdio_initializer.obj
 0002:0000032c       ___acrt_multibyte_initializer 1002032c     libucrt:multibyte_initializer.obj
 0002:00000330       ___acrt_tran_sse2_initializer 10020330     libucrt:sse2_initializer.obj
 0002:00000334       ___xi_z                    10020334     LIBCMT:initializers.obj
 0002:00000338       ___xl_a                    10020338     LIBCMT:tlssup.obj
 0002:0000033c       ___xl_z                    1002033c     LIBCMT:tlssup.obj
 0002:00000340       ___xp_a                    10020340     LIBCMT:initializers.obj
 0002:00000344       ___acrt_locale_terminator  10020344     libucrt:locale_initializer.obj
 0002:00000348       ___dcrt_console_output_terminator 10020348     libucrt:console_output_initializer.obj
 0002:0000034c       ___acrt_stdio_terminator   1002034c     libucrt:stdio_initializer.obj
 0002:00000350       ___xp_z                    10020350     LIBCMT:initializers.obj
 0002:00000354       ___xt_a                    10020354     LIBCMT:initializers.obj
 0002:00000358       ___xt_z                    10020358     LIBCMT:initializers.obj
 0002:00000360       ??_C@_13HADIAKP@?$AAS@     10020360     OposVariant.obj
 0002:00000364       ??_C@_13LHMFKAAD@?$AAM@    10020364     OposVariant.obj
 0002:00000368       ??_C@_13MKMNOPIJ@?$AAD@    10020368     OposVariant.obj
 0002:0000036c       ??_C@_13OPKGLAFF@?$AAB@    1002036c     OposVariant.obj
 0002:00000370       ??_C@_17LLMMEOJD@?$AAV?$AAa?$AAl@ 10020370     OposVariant.obj
 0002:00000378       ??_C@_1BI@JFAIJMHL@?$AAF?$AAo?$AAr?$AAc?$AAe?$AAR?$AAe?$AAm?$AAo?$AAv?$AAe@ 10020378     OposVariant.obj
 0002:00000390       ??_C@_1BC@GCKHIPE@?$AAN?$AAo?$AAR?$AAe?$AAm?$AAo?$AAv?$AAe@ 10020390     OposVariant.obj
 0002:000003a4       ??_C@_1O@JDLOHAN@?$AAD?$AAe?$AAl?$AAe?$AAt?$AAe@ 100203a4     OposVariant.obj
 0002:000003b4       ??_C@_11LOCGONAA@@         100203b4     OposVariant.obj
 0002:000003b8       ??_7CComClassFactory@ATL@@6B@ 100203b8     MSR.obj
 0002:000003d0       ?_entries@?1??_GetEntries@CComClassFactory@ATL@@SGPBU_ATL_INTMAP_ENTRY@3@XZ@4QBU43@B 100203d0     MSR.obj
 0002:000003e8       __GUID_00000001_0000_0000_c000_000000000046 100203e8     MSR.obj
 0002:000003f8       _IID_IOPOSMSR_1_5          100203f8     MSR.obj
 0002:00000408       _IID_IOPOSMSR_1_8          10020408     MSR.obj
 0002:00000418       _IID_IOPOSMSR_1_9          10020418     MSR.obj
 0002:00000428       _IID_IOPOSMSR_1_10         10020428     MSR.obj
 0002:00000438       _IID_IOPOSMSR_1_12         10020438     MSR.obj
 0002:00000448       _IID_IOPOSMSR              10020448     MSR.obj
 0002:00000458       _LIBID_OposMSR_CCO         10020458     MSR.obj
 0002:00000468       _DIID__IOPOSMSREvents      10020468     MSR.obj
 0002:00000478       _CLSID_OPOSMSR             10020478     MSR.obj
 0002:00000488       __GUID_00000114_0000_0000_c000_000000000046 10020488     MSR.obj
 0002:00000498       ??_C@_1BK@BIGILECK@?$AAA?$AAd?$AAv?$AAa?$AAp?$AAi?$AA3?$AA2?$AA?4?$AAd?$AAl?$AAl@ 10020498     MSR.obj
 0002:000004b4       ??_C@_0BI@MNCFCPFK@RegCreateKeyTransactedW@ 100204b4     MSR.obj
 0002:000004cc       __GUID_b196b287_bab4_101a_b69c_00aa00341d07 100204cc     MSR.obj
 0002:000004dc       __GUID_b196b285_bab4_101a_b69c_00aa00341d07 100204dc     MSR.obj
 0002:000004ec       __GUID_a6bc3ac0_dbaa_11ce_9de3_00aa004bb851 100204ec     MSR.obj
 0002:000004fc       __GUID_0000010c_0000_0000_c000_000000000046 100204fc     MSR.obj
 0002:0000050c       __GUID_00000146_0000_0000_c000_000000000046 1002050c     MSR.obj
 0002:00000520       ?_entries@?1??_GetEntries@COPOSMSR@@SGPBU_ATL_INTMAP_ENTRY@ATL@@XZ@4QBU34@B 10020520     MSR.obj
 0002:00000670       ??_7CComModule@ATL@@6B@    10020670     MSR.obj
 0002:00000698       __GUID_922eada0_3424_11cf_b670_00aa004cd6d8 10020698     MSR.obj
 0002:000006a8       __GUID_9c2cad80_3424_11cf_b670_00aa004cd6d8 100206a8     MSR.obj
 0002:000006b8       __GUID_00000119_0000_0000_c000_000000000046 100206b8     MSR.obj
 0002:000006c8       __GUID_b196b289_bab4_101a_b69c_00aa00341d07 100206c8     MSR.obj
 0002:000006d8       __GUID_cf51ed10_62fe_11cf_bf86_00a0c9034836 100206d8     MSR.obj
 0002:000006e8       __GUID_0000010a_0000_0000_c000_000000000046 100206e8     MSR.obj
 0002:000006f8       __GUID_b196b283_bab4_101a_b69c_00aa00341d07 100206f8     MSR.obj
 0002:00000708       __GUID_cb5bdc81_93c1_11cf_8f20_00805f2cd064 10020708     MSR.obj
 0002:00000718       ?pPropMap@?1??GetPropertyMap@COPOSMSR@@SAPBUATL_PROPMAP_ENTRY@ATL@@XZ@4QBU34@B 10020718     MSR.obj
 0002:00000784       ??_C@_17DGDADEHL@?$AA_?$AAc?$AAx@ 10020784     MSR.obj
 0002:0000078c       ??_C@_17IOIMFDBO@?$AA_?$AAc?$AAy@ 1002078c     MSR.obj
 0002:00000794       __GUID_00000000_0000_0000_c000_000000000046 10020794     MSR.obj
 0002:000007a4       __GUID_00020400_0000_0000_c000_000000000046 100207a4     MSR.obj
 0002:000007b4       __GUID_00000117_0000_0000_c000_000000000046 100207b4     MSR.obj
 0002:000007c4       ??_7?$CComObjectCached@VCComClassFactory@ATL@@@ATL@@6B@ 100207c4     MSR.obj
 0002:000007dc       ??_C@_1CE@PGFMOFKI@?$AAS?$AAt?$AAa?$AAt?$AAu?$AAs?$AAU?$AAp?$AAd?$AAa?$AAt?$AAe?$AAE?$AAv?$AAe@ 100207dc     MSR.obj
 0002:00000800       ??_C@_1BG@LODEBHDD@?$AAE?$AAr?$AAr?$AAo?$AAr?$AAE?$AAv?$AAe?$AAn?$AAt@ 10020800     MSR.obj
 0002:00000818       ??_C@_1BM@CBGEBBBJ@?$AAD?$AAi?$AAr?$AAe?$AAc?$AAt?$AAI?$AAO?$AAE?$AAv?$AAe?$AAn?$AAt@ 10020818     MSR.obj
 0002:00000834       ??_C@_1BE@IEBMACEM@?$AAD?$AAa?$AAt?$AAa?$AAE?$AAv?$AAe?$AAn?$AAt@ 10020834     MSR.obj
 0002:00000848       __GUID_b196b286_bab4_101a_b69c_00aa00341d07 10020848     MSR.obj
 0002:00000858       ??_C@_1BC@ENICKDH@?$AAC?$AAo?$AAn?$AAt?$AAe?$AAn?$AAt?$AAs@ 10020858     MSR.obj
 0002:0000086c       ??_7?$CComObject@V?$CComEnum@UIEnumConnectionPoints@@$1?_GUID_b196b285_bab4_101a_b69c_00aa00341d07@@3U__s_GUID@@BPAUIConnectionPoint@@V?$_CopyInterface@UIConnectionPoint@@@ATL@@VCComSingleThreadModel@6@@ATL@@@ATL@@6B@ 1002086c     MSR.obj
 0002:0000088c       ??_C@_1M@KANJNLFF@?$AAC?$AAL?$AAS?$AAI?$AAD@ 1002088c     MSR.obj
 0002:00000898       ??_C@_1M@EJNEECMJ@?$AAA?$AAp?$AAp?$AAI?$AAD@ 10020898     MSR.obj
 0002:000008a4       __GUID_0000010e_0000_0000_c000_000000000046 100208a4     MSR.obj
 0002:000008b4       __GUID_b196b288_bab4_101a_b69c_00aa00341d07 100208b4     MSR.obj
 0002:000008c4       ?rgszNeverDelete@CRegParser@ATL@@1QBQB_WB 100208c4     MSR.obj
 0002:000008f4       ??_7CRegObject@ATL@@6B@    100208f4     MSR.obj
 0002:0000090c       __GUID_00000113_0000_0000_c000_000000000046 1002090c     MSR.obj
 0002:0000091c       __GUID_1c2056cc_5ef4_101b_8bc8_00aa003e3b29 1002091c     MSR.obj
 0002:0000092c       ??_C@_1CK@OEKPKBNA@?$AAC?$AAo?$AAm?$AAp?$AAo?$AAn?$AAe?$AAn?$AAt?$AA?5?$AAC?$AAa?$AAt?$AAe?$AAg@ 1002092c     MSR.obj
 0002:00000958       ??_C@_1BC@NKMMNMGL@?$AAF?$AAi?$AAl?$AAe?$AAT?$AAy?$AAp?$AAe@ 10020958     MSR.obj
 0002:0000096c       ??_C@_1BE@EKPAFMCP@?$AAI?$AAn?$AAt?$AAe?$AAr?$AAf?$AAa?$AAc?$AAe@ 1002096c     MSR.obj
 0002:00000980       ??_C@_1BC@MAICEHGI@?$AAH?$AAa?$AAr?$AAd?$AAw?$AAa?$AAr?$AAe@ 10020980     MSR.obj
 0002:00000994       ??_C@_19HLLLM@?$AAM?$AAi?$AAm?$AAe@ 10020994     MSR.obj
 0002:000009a0       ??_C@_17OMAOINJK@?$AAS?$AAA?$AAM@ 100209a0     MSR.obj
 0002:000009a8       ??_C@_1BC@IBECJAAI@?$AAS?$AAE?$AAC?$AAU?$AAR?$AAI?$AAT?$AAY@ 100209a8     MSR.obj
 0002:000009bc       ??_C@_1O@GBFINDKL@?$AAS?$AAY?$AAS?$AAT?$AAE?$AAM@ 100209bc     MSR.obj
 0002:000009cc       ??_C@_1BC@EAHCMADO@?$AAS?$AAo?$AAf?$AAt?$AAw?$AAa?$AAr?$AAe@ 100209cc     MSR.obj
 0002:000009e0       ??_C@_1BA@JIHHIEDE@?$AAT?$AAy?$AAp?$AAe?$AAL?$AAi?$AAb@ 100209e0     MSR.obj
 0002:000009f0       ?map@?1??HKeyFromString@CRegParser@ATL@@KAPAUHKEY__@@PA_W@Z@4QBUkeymap@?1??123@KAPAU4@0@Z@B 100209f0     MSR.obj
 0002:00000a60       ??_C@_19NCHLBIN@?$AAH?$AAK?$AAC?$AAR@ 10020a60     MSR.obj
 0002:00000a6c       ??_C@_19JAPAIJDE@?$AAH?$AAK?$AAC?$AAU@ 10020a6c     MSR.obj
 0002:00000a78       ??_C@_19PEALEEJB@?$AAH?$AAK?$AAL?$AAM@ 10020a78     MSR.obj
 0002:00000a84       ??_C@_17PJOJPMPB@?$AAH?$AAK?$AAU@ 10020a84     MSR.obj
 0002:00000a8c       ??_C@_19PNBHMJPL@?$AAH?$AAK?$AAP?$AAD@ 10020a8c     MSR.obj
 0002:00000a98       ??_C@_19GFFAIJHG@?$AAH?$AAK?$AAD?$AAD@ 10020a98     MSR.obj
 0002:00000aa4       ??_C@_19OFICIBHH@?$AAH?$AAK?$AAC?$AAC@ 10020aa4     MSR.obj
 0002:00000ab0       ??_C@_1CE@PACHPJFI@?$AAH?$AAK?$AAE?$AAY?$AA_?$AAC?$AAL?$AAA?$AAS?$AAS?$AAE?$AAS?$AA_?$AAR?$AAO@ 10020ab0     MSR.obj
 0002:00000ad4       ??_C@_1CE@HLHNCBPM@?$AAH?$AAK?$AAE?$AAY?$AA_?$AAC?$AAU?$AAR?$AAR?$AAE?$AAN?$AAT?$AA_?$AAU?$AAS@ 10020ad4     MSR.obj
 0002:00000af8       ??_C@_1CG@GFBEANJL@?$AAH?$AAK?$AAE?$AAY?$AA_?$AAL?$AAO?$AAC?$AAA?$AAL?$AA_?$AAM?$AAA?$AAC?$AAH@ 10020af8     MSR.obj
 0002:00000b20       ??_C@_1BG@BGODANIO@?$AAH?$AAK?$AAE?$AAY?$AA_?$AAU?$AAS?$AAE?$AAR?$AAS@ 10020b20     MSR.obj
 0002:00000b38       ??_C@_1CM@KHNNAOIC@?$AAH?$AAK?$AAE?$AAY?$AA_?$AAP?$AAE?$AAR?$AAF?$AAO?$AAR?$AAM?$AAA?$AAN?$AAC@ 10020b38     MSR.obj
 0002:00000b64       ??_C@_1BM@HAGMMHIA@?$AAH?$AAK?$AAE?$AAY?$AA_?$AAD?$AAY?$AAN?$AA_?$AAD?$AAA?$AAT?$AAA@ 10020b64     MSR.obj
 0002:00000b80       ??_C@_1CI@BBJOACGG@?$AAH?$AAK?$AAE?$AAY?$AA_?$AAC?$AAU?$AAR?$AAR?$AAE?$AAN?$AAT?$AA_?$AAC?$AAO@ 10020b80     MSR.obj
 0002:00000ba8       __GUID_00000112_0000_0000_c000_000000000046 10020ba8     MSR.obj
 0002:00000bb8       __GUID_00000109_0000_0000_c000_000000000046 10020bb8     MSR.obj
 0002:00000bc8       __GUID_7fd52380_4e07_101b_ae2d_08002b2ec713 10020bc8     MSR.obj
 0002:00000bd8       __GUID_3af24292_0c96_11ce_a0cf_00aa00600ab8 10020bd8     MSR.obj
 0002:00000be8       __GUID_00000127_0000_0000_c000_000000000046 10020be8     MSR.obj
 0002:00000bf8       __GUID_0000010d_0000_0000_c000_000000000046 10020bf8     MSR.obj
 0002:00000c08       ??_C@_1EA@NHKLICFA@?$AAH?$AAK?$AAC?$AAU?$AA?$AN?$AA?6?$AA?$HL?$AA?7?$AAS?$AAo?$AAf?$AAt?$AAw?$AAa?$AAr@ 10020c08     MSR.obj
 0002:00000c48       ??_C@_1BE@LJOLIMEM@?$AA?$AN?$AA?6?$AA?7?$AA?$HN?$AA?$AN?$AA?6?$AA?$HN?$AA?$AN?$AA?6@ 10020c48     MSR.obj
 0002:00000c5c       ??_C@_1O@MNLDABAF@?$AAM?$AAo?$AAd?$AAu?$AAl?$AAe@ 10020c5c     MSR.obj
 0002:00000c6c       ??_C@_1BG@JBACFMF@?$AAM?$AAo?$AAd?$AAu?$AAl?$AAe?$AA_?$AAR?$AAa?$AAw@ 10020c6c     MSR.obj
 0002:00000c84       ??_C@_1BC@KAILKFFG@?$AAR?$AAE?$AAG?$AAI?$AAS?$AAT?$AAR?$AAY@ 10020c84     MSR.obj
 0002:00000c98       ??_C@_1M@PPPPCDEP@?$AAA?$AAP?$AAP?$AAI?$AAD@ 10020c98     MSR.obj
 0002:00000ca4       ??_7?$CComContainedObject@VCOPOSMSR@@@ATL@@6B?$IDispatchImpl@UIOPOSMSR@@$1?IID_IOPOSMSR@@3U_GUID@@B$1?LIBID_OposMSR_CCO@@3U3@B$00$0A@VCComTypeInfoHolder@ATL@@@1@@ 10020ca4     MSR.obj
 0002:00000e88       ??_7?$CComContainedObject@VCOPOSMSR@@@ATL@@6BCComControlBase@1@@ 10020e88     MSR.obj
 0002:00000e9c       ??_7?$CComContainedObject@VCOPOSMSR@@@ATL@@6B?$CWindowImpl@VCOPOSMSR@@VCWindow@ATL@@V?$CWinTraits@$0FGAAAAAA@$0A@@3@@1@@ 10020e9c     MSR.obj
 0002:00000eac       ??_7?$CComContainedObject@VCOPOSMSR@@@ATL@@6B?$IPersistStreamInitImpl@VCOPOSMSR@@@1@@ 10020eac     MSR.obj
 0002:00000ed0       ??_7?$CComContainedObject@VCOPOSMSR@@@ATL@@6B?$IOleControlImpl@VCOPOSMSR@@@1@@ 10020ed0     MSR.obj
 0002:00000eec       ??_7?$CComContainedObject@VCOPOSMSR@@@ATL@@6B?$IOleObjectImpl@VCOPOSMSR@@@1@@ 10020eec     MSR.obj
 0002:00000f4c       ??_7?$CComContainedObject@VCOPOSMSR@@@ATL@@6B?$IOleInPlaceActiveObjectImpl@VCOPOSMSR@@@1@@ 10020f4c     MSR.obj
 0002:00000f74       ??_7?$CComContainedObject@VCOPOSMSR@@@ATL@@6B?$IViewObjectExImpl@VCOPOSMSR@@@1@@ 10020f74     MSR.obj
 0002:00000fb0       ??_7?$CComContainedObject@VCOPOSMSR@@@ATL@@6B?$IOleInPlaceObjectWindowlessImpl@VCOPOSMSR@@@1@@ 10020fb0     MSR.obj
 0002:00000fdc       ??_7?$CComContainedObject@VCOPOSMSR@@@ATL@@6B?$IConnectionPointContainerImpl@VCOPOSMSR@@@1@@ 10020fdc     MSR.obj
 0002:00000ff0       ??_7?$CComContainedObject@VCOPOSMSR@@@ATL@@6B?$IPersistStorageImpl@VCOPOSMSR@@@1@@ 10020ff0     MSR.obj
 0002:00001018       ??_7?$CComContainedObject@VCOPOSMSR@@@ATL@@6B?$ISpecifyPropertyPagesImpl@VCOPOSMSR@@@1@@ 10021018     MSR.obj
 0002:00001028       ??_7?$CComContainedObject@VCOPOSMSR@@@ATL@@6B?$IQuickActivateImpl@VCOPOSMSR@@@1@@ 10021028     MSR.obj
 0002:00001040       ??_7?$CComContainedObject@VCOPOSMSR@@@ATL@@6B?$IDataObjectImpl@VCOPOSMSR@@@1@@ 10021040     MSR.obj
 0002:00001070       ??_7?$CComContainedObject@VCOPOSMSR@@@ATL@@6B?$IProvideClassInfo2Impl@$1?CLSID_OPOSMSR@@3U_GUID@@B$1?DIID__IOPOSMSREvents@@3U2@B$1?LIBID_OposMSR_CCO@@3U2@B$00$0A@VCComTypeInfoHolder@ATL@@@1@@ 10021070     MSR.obj
 0002:00001084       ??_7?$CComContainedObject@VCOPOSMSR@@@ATL@@6B?$IObjectSafetyImpl@VCOPOSMSR@@$02@1@@ 10021084     MSR.obj
 0002:0000109c       ??_7?$CComContainedObject@VCOPOSMSR@@@ATL@@6B?$IPropertyNotifySinkCP@VCOPOSMSR@@VCComDynamicUnkArray@ATL@@@1@@ 1002109c     MSR.obj
 0002:000010bc       ??_7?$CComContainedObject@VCOPOSMSR@@@ATL@@6B?$CProxy_IOPOSEvents@VCOPOSMSR@@@@@ 100210bc     MSR.obj
 0002:000010dc       ??_7?$CComAggObject@VCOPOSMSR@@@ATL@@6B@ 100210dc     MSR.obj
 0002:000010ec       ??_7?$CComObject@VCOPOSMSR@@@ATL@@6B?$IDispatchImpl@UIOPOSMSR@@$1?IID_IOPOSMSR@@3U_GUID@@B$1?LIBID_OposMSR_CCO@@3U3@B$00$0A@VCComTypeInfoHolder@ATL@@@1@@ 100210ec     MSR.obj
 0002:000012d0       ??_7?$CComObject@VCOPOSMSR@@@ATL@@6BCComControlBase@1@@ 100212d0     MSR.obj
 0002:000012e4       ??_7?$CComObject@VCOPOSMSR@@@ATL@@6B?$CWindowImpl@VCOPOSMSR@@VCWindow@ATL@@V?$CWinTraits@$0FGAAAAAA@$0A@@3@@1@@ 100212e4     MSR.obj
 0002:000012f4       ??_7?$CComObject@VCOPOSMSR@@@ATL@@6B?$IPersistStreamInitImpl@VCOPOSMSR@@@1@@ 100212f4     MSR.obj
 0002:00001318       ??_7?$CComObject@VCOPOSMSR@@@ATL@@6B?$IOleControlImpl@VCOPOSMSR@@@1@@ 10021318     MSR.obj
 0002:00001334       ??_7?$CComObject@VCOPOSMSR@@@ATL@@6B?$IOleObjectImpl@VCOPOSMSR@@@1@@ 10021334     MSR.obj
 0002:00001394       ??_7?$CComObject@VCOPOSMSR@@@ATL@@6B?$IOleInPlaceActiveObjectImpl@VCOPOSMSR@@@1@@ 10021394     MSR.obj
 0002:000013bc       ??_7?$CComObject@VCOPOSMSR@@@ATL@@6B?$IViewObjectExImpl@VCOPOSMSR@@@1@@ 100213bc     MSR.obj
 0002:000013f8       ??_7?$CComObject@VCOPOSMSR@@@ATL@@6B?$IOleInPlaceObjectWindowlessImpl@VCOPOSMSR@@@1@@ 100213f8     MSR.obj
 0002:00001424       ??_7?$CComObject@VCOPOSMSR@@@ATL@@6B?$IConnectionPointContainerImpl@VCOPOSMSR@@@1@@ 10021424     MSR.obj
 0002:00001438       ??_7?$CComObject@VCOPOSMSR@@@ATL@@6B?$IPersistStorageImpl@VCOPOSMSR@@@1@@ 10021438     MSR.obj
 0002:00001460       ??_7?$CComObject@VCOPOSMSR@@@ATL@@6B?$ISpecifyPropertyPagesImpl@VCOPOSMSR@@@1@@ 10021460     MSR.obj
 0002:00001470       ??_7?$CComObject@VCOPOSMSR@@@ATL@@6B?$IQuickActivateImpl@VCOPOSMSR@@@1@@ 10021470     MSR.obj
 0002:00001488       ??_7?$CComObject@VCOPOSMSR@@@ATL@@6B?$IDataObjectImpl@VCOPOSMSR@@@1@@ 10021488     MSR.obj
 0002:000014b8       ??_7?$CComObject@VCOPOSMSR@@@ATL@@6B?$IProvideClassInfo2Impl@$1?CLSID_OPOSMSR@@3U_GUID@@B$1?DIID__IOPOSMSREvents@@3U2@B$1?LIBID_OposMSR_CCO@@3U2@B$00$0A@VCComTypeInfoHolder@ATL@@@1@@ 100214b8     MSR.obj
 0002:000014cc       ??_7?$CComObject@VCOPOSMSR@@@ATL@@6B?$IObjectSafetyImpl@VCOPOSMSR@@$02@1@@ 100214cc     MSR.obj
 0002:000014e4       ??_7?$CComObject@VCOPOSMSR@@@ATL@@6B?$IPropertyNotifySinkCP@VCOPOSMSR@@VCComDynamicUnkArray@ATL@@@1@@ 100214e4     MSR.obj
 0002:00001504       ??_7?$CComObject@VCOPOSMSR@@@ATL@@6B?$CProxy_IOPOSEvents@VCOPOSMSR@@@@@ 10021504     MSR.obj
 0002:00001524       ??_C@_1O@GBFKGNEO@?$AAA?$AAT?$AAL?$AA?3?$AA?$CF?$AAp@ 10021524     MSR.obj
 0002:00001534       ??_C@_1BA@PICGEGJB@?$AAD?$AAI?$AAS?$AAP?$AAL?$AAA?$AAY@ 10021534     MSR.obj
 0002:00001544       __GUID_9bfbbc02_eff1_101a_84ed_00aa00341d07 10021544     MSR.obj
 0002:00001554       __GUID_b196b284_bab4_101a_b69c_00aa00341d07 10021554     MSR.obj
 0002:00001564       ?_entries@?1??_GetEntries@?$CComEnum@UIEnumConnectionPoints@@$1?_GUID_b196b285_bab4_101a_b69c_00aa00341d07@@3U__s_GUID@@BPAUIConnectionPoint@@V?$_CopyInterface@UIConnectionPoint@@@ATL@@VCComSingleThreadModel@6@@ATL@@SGPBU_ATL_INTMAP_ENTRY@3@XZ@4QBU43@B 10021564     MSR.obj
 0002:0000157c       __GUID_00020412_0000_0000_c000_000000000046 1002157c     MSR.obj
 0002:0000158c       __GUID_00020401_0000_0000_c000_000000000046 1002158c     MSR.obj
 0002:0000159c       __GUID_55980ba0_35aa_11cf_b671_00aa004cd6d8 1002159c     MSR.obj
 0002:000015ac       __GUID_b196b28b_bab4_101a_b69c_00aa00341d07 100215ac     MSR.obj
 0002:000015bc       ??_7?$CComObject@V?$CComEnum@UIEnumConnections@@$1?_GUID_b196b287_bab4_101a_b69c_00aa00341d07@@3U__s_GUID@@BUtagCONNECTDATA@@V?$_Copy@UtagCONNECTDATA@@@ATL@@VCComSingleThreadModel@6@@ATL@@@ATL@@6B@ 100215bc     MSR.obj
 0002:000015dc       ?_entries@?1??_GetEntries@?$CComEnum@UIEnumConnections@@$1?_GUID_b196b287_bab4_101a_b69c_00aa00341d07@@3U__s_GUID@@BUtagCONNECTDATA@@V?$_Copy@UtagCONNECTDATA@@@ATL@@VCComSingleThreadModel@6@@ATL@@SGPBU_ATL_INTMAP_ENTRY@3@XZ@4QBU43@B 100215dc     MSR.obj
 0002:000015f4       ??_C@_0BG@EKFFMJIO@RegOpenKeyTransactedW@ 100215f4     MSR.obj
 0002:0000160c       ??_C@_0BI@HAKLOOGP@RegDeleteKeyTransactedW@ 1002160c     MSR.obj
 0002:00001624       ??_C@_0BA@LILAPHGE@RegDeleteKeyExW@ 10021624     MSR.obj
 0002:00001634       ??_C@_19ILOCMLCJ@?$AA?4?$AAt?$AAl?$AAb@ 10021634     MSR.obj
 0002:00001640       __GUID_0002e012_0000_0000_c000_000000000046 10021640     MSR.obj
 0002:00001650       ??_C@_1O@FHBGLCIO@?$AAC?$AAL?$AAS?$AAI?$AAD?$AA?2@ 10021650     MSR.obj
 0002:00001660       ??_C@_1CK@IFBKBFAA@?$AA?2?$AAR?$AAe?$AAq?$AAu?$AAi?$AAr?$AAe?$AAd?$AA?5?$AAC?$AAa?$AAt?$AAe?$AAg@ 10021660     MSR.obj
 0002:0000168c       ??_C@_1DA@BIHALFED@?$AA?2?$AAI?$AAm?$AAp?$AAl?$AAe?$AAm?$AAe?$AAn?$AAt?$AAe?$AAd?$AA?5?$AAC?$AAa@ 1002168c     MSR.obj
 0002:000016bc       ??_C@_1BK@EDKOLFBJ@?$AAO?$AAL?$AAE?$AAA?$AAU?$AAT?$AA3?$AA2?$AA?4?$AAD?$AAL?$AAL@ 100216bc     MSR.obj
 0002:000016d8       ??_C@_0BJ@CNLFOMHB@UnRegisterTypeLibForUser@ 100216d8     MSR.obj
 0002:000016f4       ??_C@_0BH@LBOMMKPJ@RegisterTypeLibForUser@ 100216f4     MSR.obj
 0002:0000170c       ??_C@_0P@MMNMMLGK@COFreezeEvents@ 1002170c     MSRImpl.obj
 0002:0000171c       ??_C@_0BC@OGCGGIMP@GetPropertyNumber@ 1002171c     MSRImpl.obj
 0002:00001730       ??_C@_0BC@MDCNODNB@SetPropertyNumber@ 10021730     MSRImpl.obj
 0002:00001744       ??_C@_0BC@CFCCMIMD@GetPropertyString@ 10021744     MSRImpl.obj
 0002:00001758       ??_C@_0BC@CJEDNN@SetPropertyString@ 10021758     MSRImpl.obj
 0002:0000176c       ??_C@_0M@LNPKKKDA@OpenService@ 1002176c     MSRImpl.obj
 0002:00001778       ??_C@_0M@PCMCHHMH@CheckHealth@ 10021778     MSRImpl.obj
 0002:00001784       ??_C@_0M@JGMIDNEK@ClaimDevice@ 10021784     MSRImpl.obj
 0002:00001790       ??_C@_0L@BNEIFEJC@ClearInput@ 10021790     MSRImpl.obj
 0002:0000179c       ??_C@_0N@DDFIIBMP@CloseService@ 1002179c     MSRImpl.obj
 0002:000017ac       ??_C@_08EEIHICPC@DirectIO@ 100217ac     MSRImpl.obj
 0002:000017b8       ??_C@_0O@BCPMENMJ@ReleaseDevice@ 100217b8     MSRImpl.obj
 0002:000017c8       ??_C@_0BA@GFABKEEE@ResetStatistics@ 100217c8     MSRImpl.obj
 0002:000017d8       ??_C@_0BD@DPALHJGC@RetrieveStatistics@ 100217d8     MSRImpl.obj
 0002:000017ec       ??_C@_0BB@KOHIKNFC@UpdateStatistics@ 100217ec     MSRImpl.obj
 0002:00001800       ??_C@_0BH@PBKBNMGB@CompareFirmwareVersion@ 10021800     MSRImpl.obj
 0002:00001818       ??_C@_0P@FBPDPIPA@UpdateFirmware@ 10021818     MSRImpl.obj
 0002:00001828       ??_C@_0BF@CMAPCJGM@ClearInputProperties@ 10021828     MSRImpl.obj
 0002:00001840       ??_C@_0M@COBABLBH@WriteTracks@ 10021840     MSRImpl.obj
 0002:0000184c       ??_C@_0BD@HOKFBOPO@AuthenticateDevice@ 1002184c     MSRImpl.obj
 0002:00001860       ??_C@_0BF@CBLLANEG@DeauthenticateDevice@ 10021860     MSRImpl.obj
 0002:00001878       ??_C@_0BF@NLNFJNCE@RetrieveCardProperty@ 10021878     MSRImpl.obj
 0002:00001890       ??_C@_0CB@OLJBDIAM@RetrieveDeviceAuthenticationDat@ 10021890     MSRImpl.obj
 0002:000018b4       ??_C@_09PHBOFDOC@UpdateKey@ 100218b4     MSRImpl.obj
 0002:000018c0       ??_7?$CProxy_IOPOSEvents@VCOPOSMSR@@@@6B@ 100218c0     MSRImpl.obj
 0002:000018e0       ??_C@_1BA@IFHENID@?$AA?$FL?$AAE?$AAr?$AAr?$AAo?$AAr?$AA?$FN@ 100218e0     MSRImpl.obj
 0002:000018f0       ??_C@_0CG@PBLEKEDP@SOFTWARE?2OLEforRetail?2ServiceOP@ 100218f0     MSRImpl.obj
 0002:00001918       ??_C@_1M@IAIJHCCH@?$AAC?$AAl?$AAo?$AAs?$AAe@ 10021918     MSRImpl.obj
 0002:00001924       ??_C@_1M@PCPKGJAH@?$AAC?$AAl?$AAa?$AAi?$AAm@ 10021924     MSRImpl.obj
 0002:00001930       ??_C@_1BA@NDFKIOCP@?$AAR?$AAe?$AAl?$AAe?$AAa?$AAs?$AAe@ 10021930     MSRImpl.obj
 0002:00001940       ??_C@_03FBLCAPDM@MSR@      10021940     MSRImpl.obj
 0002:00001944       ??_C@_1BM@IJMNMBPK@?$AAG?$AAe?$AAt?$AAO?$AAp?$AAe?$AAn?$AAR?$AAe?$AAs?$AAu?$AAl?$AAt@ 10021944     MSRImpl.obj
 0002:00001960       _IID_IPropertyNotifySink   10021960     uuid:ocidl_i.obj
 0002:00001970       _GUID_NULL                 10021970     uuid:cguid_i.obj
 0002:00001980       _CLSID_StdGlobalInterfaceTable 10021980     uuid:cguid_i.obj
 0002:00001990       _IID_IDispatch             10021990     uuid:oaidl_i.obj
 0002:000019a0       _CLSID_StdComponentCategoriesMgr 100219a0     uuid:ieguids.obj
 0002:000019b0       _IID_IUnknown              100219b0     uuid:unknwn_i.obj
 0002:000019c0       ??_C@_1EC@JIJBPKFM@?$AAa?$AAp?$AAi?$AA?9?$AAm?$AAs?$AA?9?$AAw?$AAi?$AAn?$AA?9?$AAc?$AAo?$AAr?$AAe@ 100219c0     LIBCMT:thread_safe_statics.obj
 0002:00001a04       ??_C@_1BK@MGMFAEKH@?$AAk?$AAe?$AAr?$AAn?$AAe?$AAl?$AA3?$AA2?$AA?4?$AAd?$AAl?$AAl@ 10021a04     LIBCMT:thread_safe_statics.obj
 0002:00001a20       ??_C@_0BJ@JEBJOJFJ@SleepConditionVariableCS@ 10021a20     LIBCMT:thread_safe_statics.obj
 0002:00001a3c       ??_C@_0BJ@PGPPEPCC@WakeAllConditionVariable@ 10021a3c     LIBCMT:thread_safe_statics.obj
 0002:00001a55       ?nothrow@std@@3Unothrow_t@1@B 10021a55     LIBCMT:std_nothrow.obj
 0002:00001a60       __pDefaultRawDllMain       10021a60     LIBCMT:dll_dllmain.obj
 0002:00001a60       __pRawDllMain              10021a60     LIBCMT:dll_dllmain.obj
 0002:00001a68       ??_7exception@std@@6B@     10021a68     LIBCMT:throw_bad_alloc.obj
 0002:00001a70       ??_C@_0BC@EOODALEL@Unknown?5exception@ 10021a70     LIBCMT:throw_bad_alloc.obj
 0002:00001a88       ??_7bad_alloc@std@@6B@     10021a88     LIBCMT:throw_bad_alloc.obj
 0002:00001a90       ??_C@_0P@GHFPNOJB@bad?5allocation@ 10021a90     LIBCMT:throw_bad_alloc.obj
 0002:00001aa4       ??_7bad_array_new_length@std@@6B@ 10021aa4     LIBCMT:throw_bad_alloc.obj
 0002:00001aac       ??_C@_0BF@KINCDENJ@bad?5array?5new?5length@ 10021aac     LIBCMT:throw_bad_alloc.obj
 0002:00001ac8       ??_7type_info@@6B@         10021ac8     LIBCMT:std_type_info_static.obj
 0002:00001acc       _GUID_ATLVer110            10021acc     atls:atlbase.obj
 0002:00001ae0       ??_C@_1IC@ONKHOIDK@?$AAE?$AAR?$AAR?$AAO?$AAR?$AA?5?$AA?3?$AA?5?$AAU?$AAn?$AAa?$AAb?$AAl?$AAe?$AA?5@ 10021ae0     atls:atlbase.obj
 0002:00001b64       ??_C@_0N@FJEPLCIH@atlthunk?4dll@ 10021b64     atls:atlthunk.obj
 0002:00001b74       ??_C@_0BG@GAKFHCBM@AtlThunk_AllocateData@ 10021b74     atls:atlthunk.obj
 0002:00001b8c       ??_C@_0BC@JKONFIAH@AtlThunk_InitData@ 10021b8c     atls:atlthunk.obj
 0002:00001ba0       ??_C@_0BE@IAOEELAK@AtlThunk_DataToCode@ 10021ba0     atls:atlthunk.obj
 0002:00001bb4       ??_C@_0BC@GBGKAIPI@AtlThunk_FreeData@ 10021bb4     atls:atlthunk.obj
 0002:00001bc8       __pDestructExceptionObject 10021bc8     libvcruntime:ehhelpers.obj
 0002:00001bd0       ??_7bad_exception@std@@6B@ 10021bd0     libvcruntime:frame.obj
 0002:00001bd8       ??_C@_0O@DPKOEFFH@bad?5exception@ 10021bd8     libvcruntime:frame.obj
 0002:00001f68       ??_C@_08EHJDFFNH@__based?$CI@ 10021f68     libvcruntime:undname.obj
 0002:00001f74       ??_C@_07KOLFKCDI@__cdecl@  10021f74     libvcruntime:undname.obj
 0002:00001f7c       ??_C@_08GHMPAG@__pascal@   10021f7c     libvcruntime:undname.obj
 0002:00001f88       ??_C@_09IFJBGAPI@__stdcall@ 10021f88     libvcruntime:undname.obj
 0002:00001f94       ??_C@_0L@NPHFGOKO@__thiscall@ 10021f94     libvcruntime:undname.obj
 0002:00001fa0       ??_C@_0L@JMKHOMEK@__fastcall@ 10021fa0     libvcruntime:undname.obj
 0002:00001fac       ??_C@_0N@BCKKPABJ@__vectorcall@ 10021fac     libvcruntime:undname.obj
 0002:00001fbc       ??_C@_09HIJEGCPM@__clrcall@ 10021fbc     libvcruntime:undname.obj
 0002:00001fc8       ??_C@_06GHPCKEAG@__eabi@   10021fc8     libvcruntime:undname.obj
 0002:00001fd0       ??_C@_09IOPIDJLG@__swift_1@ 10021fd0     libvcruntime:undname.obj
 0002:00001fdc       ??_C@_09KFNFGKHF@__swift_2@ 10021fdc     libvcruntime:undname.obj
 0002:00001fe8       ??_C@_07JOMMBBKO@__ptr64@  10021fe8     libvcruntime:undname.obj
 0002:00001ff0       ??_C@_0L@PILCLIHE@__restrict@ 10021ff0     libvcruntime:undname.obj
 0002:00001ffc       ??_C@_0M@GFIIJFMG@__unaligned@ 10021ffc     libvcruntime:undname.obj
 0002:00002008       ??_C@_09DHDLOLLB@restrict?$CI@ 10022008     libvcruntime:undname.obj
 0002:00002012       ??_C@_00CNPNBAHC@@         10022012     libvcruntime:undname.obj
 0002:00002014       ??_C@_04NIHEBCM@?5new@     10022014     libvcruntime:undname.obj
 0002:0000201c       ??_C@_07FPCDHGMM@?5delete@ 1002201c     libvcruntime:undname.obj
 0002:00002024       ??_C@_01NEMOKFLO@?$DN@     10022024     libvcruntime:undname.obj
 0002:00002028       ??_C@_02GPIOPFAK@?$DO?$DO@ 10022028     libvcruntime:undname.obj
 0002:0000202c       ??_C@_02FODMEDOG@?$DM?$DM@ 1002202c     libvcruntime:undname.obj
 0002:00002030       ??_C@_01DCLJPIOD@?$CB@     10022030     libvcruntime:undname.obj
 0002:00002034       ??_C@_02EGOFBIJA@?$DN?$DN@ 10022034     libvcruntime:undname.obj
 0002:00002038       ??_C@_02FDNJECIE@?$CB?$DN@ 10022038     libvcruntime:undname.obj
 0002:0000203c       ??_C@_02GPECMEKF@?$FL?$FN@ 1002203c     libvcruntime:undname.obj
 0002:00002040       ??_C@_08LHJFAFGD@operator@ 10022040     libvcruntime:undname.obj
 0002:0000204c       ??_C@_02HBOOOICD@?9?$DO@   1002204c     libvcruntime:undname.obj
 0002:00002050       ??_C@_01NBENCBCI@?$CK@     10022050     libvcruntime:undname.obj
 0002:00002054       ??_C@_02ECNGHCIF@?$CL?$CL@ 10022054     libvcruntime:undname.obj
 0002:00002058       ??_C@_02BAABKJLB@?9?9@     10022058     libvcruntime:undname.obj
 0002:0000205c       ??_C@_01JOAMLHOP@?9@       1002205c     libvcruntime:undname.obj
 0002:00002060       ??_C@_01MIFGBAGJ@?$CL@     10022060     libvcruntime:undname.obj
 0002:00002064       ??_C@_01HNPIGOCE@?$CG@     10022064     libvcruntime:undname.obj
 0002:00002068       ??_C@_03MNHNFDLC@?9?$DO?$CK@ 10022068     libvcruntime:undname.obj
 0002:0000206c       ??_C@_01KMDKNFGN@?1@       1002206c     libvcruntime:undname.obj
 0002:00002070       ??_C@_01FGNFDNOH@?$CF@     10022070     libvcruntime:undname.obj
 0002:00002074       ??_C@_01MNNFJEPP@?$DM@     10022074     libvcruntime:undname.obj
 0002:00002078       ??_C@_02EHCHHCKH@?$DM?$DN@ 10022078     libvcruntime:undname.obj
 0002:0000207c       ??_C@_01PPODPGHN@?$DO@     1002207c     libvcruntime:undname.obj
 0002:00002080       ??_C@_02EEKDKGMJ@?$DO?$DN@ 10022080     libvcruntime:undname.obj
 0002:00002084       ??_C@_01IHBHIGKO@?0@       10022084     libvcruntime:undname.obj
 0002:00002088       ??_C@_02HCKGKOFO@?$CI?$CJ@ 10022088     libvcruntime:undname.obj
 0002:0000208c       ??_C@_01PJKLJHI@?$HO@      1002208c     libvcruntime:undname.obj
 0002:00002090       ??_C@_01JKBOJNNK@?$FO@     10022090     libvcruntime:undname.obj
 0002:00002094       ??_C@_01DNKMNLPK@?$HM@     10022094     libvcruntime:undname.obj
 0002:00002098       ??_C@_02PPKAJPJL@?$CG?$CG@ 10022098     libvcruntime:undname.obj
 0002:0000209c       ??_C@_02NONPIBCD@?$HM?$HM@ 1002209c     libvcruntime:undname.obj
 0002:000020a0       ??_C@_02FPIMKNGF@?$CK?$DN@ 100220a0     libvcruntime:undname.obj
 0002:000020a4       ??_C@_02FOEOMHFC@?$CL?$DN@ 100220a4     libvcruntime:undname.obj
 0002:000020a8       ??_C@_02FKMDLLOA@?9?$DN@   100220a8     libvcruntime:undname.obj
 0002:000020ac       ??_C@_02FJEHGPIO@?1?$DN@   100220ac     libvcruntime:undname.obj
 0002:000020b0       ??_C@_02FENAOKFI@?$CF?$DN@ 100220b0     libvcruntime:undname.obj
 0002:000020b4       ??_C@_03IKFCCPFF@?$DO?$DO?$DN@ 100220b4     libvcruntime:undname.obj
 0002:000020b8       ??_C@_03CDNPDDLA@?$DM?$DM?$DN@ 100220b8     libvcruntime:undname.obj
 0002:000020bc       ??_C@_02FGJGFEAB@?$CG?$DN@ 100220bc     libvcruntime:undname.obj
 0002:000020c0       ??_C@_02DHLNPPGH@?$HM?$DN@ 100220c0     libvcruntime:undname.obj
 0002:000020c4       ??_C@_02MHEGNOJ@?$FO?$DN@  100220c4     libvcruntime:undname.obj
 0002:000020c8       ??_C@_09IFPLHPGF@?$GAvftable?8@ 100220c8     libvcruntime:undname.obj
 0002:000020d4       ??_C@_09BLBHBJP@?$GAvbtable?8@ 100220d4     libvcruntime:undname.obj
 0002:000020e0       ??_C@_07FEEIOKP@?$GAvcall?8@ 100220e0     libvcruntime:undname.obj
 0002:000020e8       ??_C@_08LLFFHHDJ@?$GAtypeof?8@ 100220e8     libvcruntime:undname.obj
 0002:000020f4       ??_C@_0BF@KDPPACIK@?$GAlocal?5static?5guard?8@ 100220f4     libvcruntime:undname.obj
 0002:0000210c       ??_C@_08OBABFOLI@?$GAstring?8@ 1002210c     libvcruntime:undname.obj
 0002:00002118       ??_C@_0BD@JDLKDPAB@?$GAvbase?5destructor?8@ 10022118     libvcruntime:undname.obj
 0002:0000212c       ??_C@_0BN@DEGPLNFK@?$GAvector?5deleting?5destructor?8@ 1002212c     libvcruntime:undname.obj
 0002:0000214c       ??_C@_0BO@OBMKPJIG@?$GAdefault?5constructor?5closure?8@ 1002214c     libvcruntime:undname.obj
 0002:0000216c       ??_C@_0BN@IMDCHIKM@?$GAscalar?5deleting?5destructor?8@ 1002216c     libvcruntime:undname.obj
 0002:0000218c       ??_C@_0BO@PFGOCPJJ@?$GAvector?5constructor?5iterator?8@ 1002218c     libvcruntime:undname.obj
 0002:000021ac       ??_C@_0BN@LFPFMEDL@?$GAvector?5destructor?5iterator?8@ 100221ac     libvcruntime:undname.obj
 0002:000021cc       ??_C@_0CE@IKBNEHA@?$GAvector?5vbase?5constructor?5itera@ 100221cc     libvcruntime:undname.obj
 0002:000021f0       ??_C@_0BL@NILFHHPC@?$GAvirtual?5displacement?5map?8@ 100221f0     libvcruntime:undname.obj
 0002:0000220c       ??_C@_0CB@JONCMFFK@?$GAeh?5vector?5constructor?5iterator@ 1002220c     libvcruntime:undname.obj
 0002:00002230       ??_C@_0CA@GCEOPDGL@?$GAeh?5vector?5destructor?5iterator?8@ 10022230     libvcruntime:undname.obj
 0002:00002250       ??_C@_0CH@OOJPLCPH@?$GAeh?5vector?5vbase?5constructor?5it@ 10022250     libvcruntime:undname.obj
 0002:00002278       ??_C@_0BL@LLKPOHJI@?$GAcopy?5constructor?5closure?8@ 10022278     libvcruntime:undname.obj
 0002:00002294       ??_C@_0BA@KBCDOMBN@?$GAudt?5returning?8@ 10022294     libvcruntime:undname.obj
 0002:000022a4       ??_C@_03KLGMFNMG@?$GAEH@   100222a4     libvcruntime:undname.obj
 0002:000022a8       ??_C@_05KHLCHHI@?$GARTTI@  100222a8     libvcruntime:undname.obj
 0002:000022b0       ??_C@_0BA@KKLDJDLB@?$GAlocal?5vftable?8@ 100222b0     libvcruntime:undname.obj
 0002:000022c0       ??_C@_0CE@IIHCMGGL@?$GAlocal?5vftable?5constructor?5clos@ 100222c0     libvcruntime:undname.obj
 0002:000022e4       ??_C@_06FHBGPFGH@?5new?$FL?$FN@ 100222e4     libvcruntime:undname.obj
 0002:000022ec       ??_C@_09LBNFPBCA@?5delete?$FL?$FN@ 100222ec     libvcruntime:undname.obj
 0002:000022f8       ??_C@_0P@HJKNJFNN@?$GAomni?5callsig?8@ 100222f8     libvcruntime:undname.obj
 0002:00002308       ??_C@_0BL@CNOONJFP@?$GAplacement?5delete?5closure?8@ 10022308     libvcruntime:undname.obj
 0002:00002324       ??_C@_0BN@CKNJLHMB@?$GAplacement?5delete?$FL?$FN?5closure?8@ 10022324     libvcruntime:undname.obj
 0002:00002344       ??_C@_0CG@CFDHKGGD@?$GAmanaged?5vector?5constructor?5ite@ 10022344     libvcruntime:undname.obj
 0002:0000236c       ??_C@_0CF@IMGKMJNO@?$GAmanaged?5vector?5destructor?5iter@ 1002236c     libvcruntime:undname.obj
 0002:00002394       ??_C@_0CG@HLDDJMAG@?$GAeh?5vector?5copy?5constructor?5ite@ 10022394     libvcruntime:undname.obj
 0002:000023bc       ??_C@_0CM@FCBBDIGB@?$GAeh?5vector?5vbase?5copy?5construct@ 100223bc     libvcruntime:undname.obj
 0002:000023e8       ??_C@_0BL@CLIPGLGB@?$GAdynamic?5initializer?5for?5?8@ 100223e8     libvcruntime:undname.obj
 0002:00002404       ??_C@_0CB@PDBIFEP@?$GAdynamic?5atexit?5destructor?5for?5@ 10022404     libvcruntime:undname.obj
 0002:00002428       ??_C@_0CD@CGAJBKEJ@?$GAvector?5copy?5constructor?5iterat@ 10022428     libvcruntime:undname.obj
 0002:0000244c       ??_C@_0CJ@GJELGAMM@?$GAvector?5vbase?5copy?5constructor?5@ 1002244c     libvcruntime:undname.obj
 0002:00002478       ??_C@_0CL@FGIJHLCE@?$GAmanaged?5vector?5copy?5constructo@ 10022478     libvcruntime:undname.obj
 0002:000024a4       ??_C@_0BM@PMGGMLDN@?$GAlocal?5static?5thread?5guard?8@ 100224a4     libvcruntime:undname.obj
 0002:000024c0       ??_C@_0N@BDNMDMOL@operator?5?$CC?$CC?5@ 100224c0     libvcruntime:undname.obj
 0002:000024d0       ??_C@_0BC@GGEBGALA@operator?5co_await@ 100224d0     libvcruntime:undname.obj
 0002:000024e4       ??_C@_0M@GAAIMMOH@operator?$DM?$DN?$DO@ 100224e4     libvcruntime:undname.obj
 0002:000024f0       ??_C@_0BC@DAFEJGAK@?5Type?5Descriptor?8@ 100224f0     libvcruntime:undname.obj
 0002:00002504       ??_C@_0BM@LDKODKLH@?5Base?5Class?5Descriptor?5at?5?$CI@ 10022504     libvcruntime:undname.obj
 0002:00002520       ??_C@_0BD@LGICGFMM@?5Base?5Class?5Array?8@ 10022520     libvcruntime:undname.obj
 0002:00002534       ??_C@_0BN@MECKDCOJ@?5Class?5Hierarchy?5Descriptor?8@ 10022534     libvcruntime:undname.obj
 0002:00002554       ??_C@_0BK@CFCOFLF@?5Complete?5Object?5Locator?8@ 10022554     libvcruntime:undname.obj
 0002:00002570       ??_C@_0BG@JNJLAMPM@?$GAanonymous?5namespace?8@ 10022570     libvcruntime:undname.obj
 0002:00002594       ??_C@_1DM@KHCHBNEB@?$AAa?$AAp?$AAi?$AA?9?$AAm?$AAs?$AA?9?$AAw?$AAi?$AAn?$AA?9?$AAc?$AAo?$AAr?$AAe@ 10022594     libvcruntime:winapi_downlevel.obj
 0002:000025d0       ??_C@_1DK@LPPGFMPP@?$AAa?$AAp?$AAi?$AA?9?$AAm?$AAs?$AA?9?$AAw?$AAi?$AAn?$AA?9?$AAc?$AAo?$AAr?$AAe@ 100225d0     libvcruntime:winapi_downlevel.obj
 0002:0000260c       ??_C@_1BC@GDMECMAK@?$AAk?$AAe?$AAr?$AAn?$AAe?$AAl?$AA3?$AA2@ 1002260c     libvcruntime:winapi_downlevel.obj
 0002:00002620       ??_C@_1BA@PFFKHIOG@?$AAa?$AAp?$AAi?$AA?9?$AAm?$AAs?$AA?9@ 10022620     libvcruntime:winapi_downlevel.obj
 0002:00002638       ??_C@_08KNHFBNJ@FlsAlloc@  10022638     libvcruntime:winapi_downlevel.obj
 0002:0000264c       ??_C@_07PEJMOBNF@FlsFree@  1002264c     libvcruntime:winapi_downlevel.obj
 0002:0000265c       ??_C@_0M@GDNOONDI@FlsGetValue@ 1002265c     libvcruntime:winapi_downlevel.obj
 0002:00002670       ??_C@_0M@JCPCPOEF@FlsSetValue@ 10022670     libvcruntime:winapi_downlevel.obj
 0002:00002684       ??_C@_0BM@HCFOFFN@InitializeCriticalSectionEx@ 10022684     libvcruntime:winapi_downlevel.obj
 0002:00002808       _format_validation_lookup_table 10022808     libucrt:output.obj
 0002:00002864       ??_C@_1O@CEDCILHN@?$AA?$CI?$AAn?$AAu?$AAl?$AAl?$AA?$CJ@ 10022864     libucrt:output.obj
 0002:00002874       ??_C@_06OJHGLDPL@?$CInull?$CJ@ 10022874     libucrt:output.obj
 0002:00002880       ___acrt_exception_action_table 10022880     libucrt:exception_filter.obj
 0002:00002910       ___acrt_signal_action_table_count 10022910     libucrt:exception_filter.obj
 0002:00002914       ___acrt_signal_action_first_fpe_index 10022914     libucrt:exception_filter.obj
 0002:00002918       ___acrt_signal_action_fpe_count 10022918     libucrt:exception_filter.obj
 0002:0000291c       ??_C@_1BI@BGOHAHKC@?$AAm?$AAs?$AAc?$AAo?$AAr?$AAe?$AAe?$AA?4?$AAd?$AAl?$AAl@ 1002291c     libucrt:exit.obj
 0002:00002934       ??_C@_0P@MIGLKIOC@CorExitProcess@ 10022934     libucrt:exit.obj
 0002:00002a18       ??_C@_1EA@JGEFHKEI@?$AAa?$AAp?$AAi?$AA?9?$AAm?$AAs?$AA?9?$AAw?$AAi?$AAn?$AA?9?$AAc?$AAo?$AAr?$AAe@ 10022a18     libucrt:winapi_thunks.obj
 0002:00002a58       ??_C@_1DI@IJCEHOCB@?$AAa?$AAp?$AAi?$AA?9?$AAm?$AAs?$AA?9?$AAw?$AAi?$AAn?$AA?9?$AAc?$AAo?$AAr?$AAe@ 10022a58     libucrt:winapi_thunks.obj
 0002:00002a90       ??_C@_1EI@MPIAOHOC@?$AAa?$AAp?$AAi?$AA?9?$AAm?$AAs?$AA?9?$AAw?$AAi?$AAn?$AA?9?$AAc?$AAo?$AAr?$AAe@ 10022a90     libucrt:winapi_thunks.obj
 0002:00002ad8       ??_C@_1FK@FPHCKFIE@?$AAa?$AAp?$AAi?$AA?9?$AAm?$AAs?$AA?9?$AAw?$AAi?$AAn?$AA?9?$AAc?$AAo?$AAr?$AAe@ 10022ad8     libucrt:winapi_thunks.obj
 0002:00002b38       ??_C@_1EM@DILCGIIO@?$AAa?$AAp?$AAi?$AA?9?$AAm?$AAs?$AA?9?$AAw?$AAi?$AAn?$AA?9?$AAc?$AAo?$AAr?$AAe@ 10022b38     libucrt:winapi_thunks.obj
 0002:00002b84       ??_C@_1DM@LNCGDDPN@?$AAa?$AAp?$AAi?$AA?9?$AAm?$AAs?$AA?9?$AAw?$AAi?$AAn?$AA?9?$AAc?$AAo?$AAr?$AAe@ 10022b84     libucrt:winapi_thunks.obj
 0002:00002bc0       ??_C@_1DO@FPAPJEMD@?$AAa?$AAp?$AAi?$AA?9?$AAm?$AAs?$AA?9?$AAw?$AAi?$AAn?$AA?9?$AAc?$AAo?$AAr?$AAe@ 10022bc0     libucrt:winapi_thunks.obj
 0002:00002c00       ??_C@_1DK@NDHNAHIO@?$AAa?$AAp?$AAi?$AA?9?$AAm?$AAs?$AA?9?$AAw?$AAi?$AAn?$AA?9?$AAc?$AAo?$AAr?$AAe@ 10022c00     libucrt:winapi_thunks.obj
 0002:00002c3c       ??_C@_1DM@KGHDGBCM@?$AAa?$AAp?$AAi?$AA?9?$AAm?$AAs?$AA?9?$AAw?$AAi?$AAn?$AA?9?$AAc?$AAo?$AAr?$AAe@ 10022c3c     libucrt:winapi_thunks.obj
 0002:00002c78       ??_C@_1EO@IJIOEFOH@?$AAa?$AAp?$AAi?$AA?9?$AAm?$AAs?$AA?9?$AAw?$AAi?$AAn?$AA?9?$AAr?$AAt?$AAc?$AAo@ 10022c78     libucrt:winapi_thunks.obj
 0002:00002cc8       ??_C@_1FG@HHGEKANL@?$AAa?$AAp?$AAi?$AA?9?$AAm?$AAs?$AA?9?$AAw?$AAi?$AAn?$AA?9?$AAs?$AAe?$AAc?$AAu@ 10022cc8     libucrt:winapi_thunks.obj
 0002:00002d20       ??_C@_1EG@DBIOJECG@?$AAe?$AAx?$AAt?$AA?9?$AAm?$AAs?$AA?9?$AAw?$AAi?$AAn?$AA?9?$AAn?$AAt?$AAu?$AAs@ 10022d20     libucrt:winapi_thunks.obj
 0002:00002d68       ??_C@_1EO@FIHMJCLF@?$AAe?$AAx?$AAt?$AA?9?$AAm?$AAs?$AA?9?$AAw?$AAi?$AAn?$AA?9?$AAn?$AAt?$AAu?$AAs@ 10022d68     libucrt:winapi_thunks.obj
 0002:00002db8       ??_C@_1BC@DNHGCMLG@?$AAa?$AAd?$AAv?$AAa?$AAp?$AAi?$AA3?$AA2@ 10022db8     libucrt:winapi_thunks.obj
 0002:00002dcc       ??_C@_1M@OAIMIKLP@?$AAn?$AAt?$AAd?$AAl?$AAl@ 10022dcc     libucrt:winapi_thunks.obj
 0002:00002dd8       ??_C@_1EG@DPGNFKGC@?$AAa?$AAp?$AAi?$AA?9?$AAm?$AAs?$AA?9?$AAw?$AAi?$AAn?$AA?9?$AAa?$AAp?$AAp?$AAm@ 10022dd8     libucrt:winapi_thunks.obj
 0002:00002e20       ??_C@_1O@BCCLBEOE@?$AAu?$AAs?$AAe?$AAr?$AA3?$AA2@ 10022e20     libucrt:winapi_thunks.obj
 0002:00002e30       ??_C@_1BA@IAIFMGEF@?$AAe?$AAx?$AAt?$AA?9?$AAm?$AAs?$AA?9@ 10022e30     libucrt:winapi_thunks.obj
 0002:00002e44       ??_C@_0BA@FHFNEAED@AreFileApisANSI@ 10022e44     libucrt:winapi_thunks.obj
 0002:00002e84       ??_C@_0O@KKBNKAPF@LCMapStringEx@ 10022e84     libucrt:winapi_thunks.obj
 0002:00002e9c       ??_C@_0BB@HBDEELFH@LocaleNameToLCID@ 10022e9c     libucrt:winapi_thunks.obj
 0002:00002eb4       ??_C@_0CF@OJOFEIGO@AppPolicyGetProcessTerminationM@ 10022eb4     libucrt:winapi_thunks.obj
 0002:00002ee4       ??_C@_0BI@BKLFFAPO@SetThreadStackGuarantee@ 10022ee4     libucrt:winapi_thunks.obj
 0002:00002f40       ??_C@_03OEIAHPBN@INF@      10022f40     libucrt:cvt.obj
 0002:00002f44       ??_C@_03OJHLLCGB@inf@      10022f44     libucrt:cvt.obj
 0002:00002f48       ??_C@_03LKNCIKJB@NAN@      10022f48     libucrt:cvt.obj
 0002:00002f4c       ??_C@_03LHCJEHON@nan@      10022f4c     libucrt:cvt.obj
 0002:00002f50       ??_C@_09OFJJIMPC@NAN?$CISNAN?$CJ@ 10022f50     libucrt:cvt.obj
 0002:00002f5c       ??_C@_09IPFBKMDL@nan?$CIsnan?$CJ@ 10022f5c     libucrt:cvt.obj
 0002:00002f68       ??_C@_08IKHNHAJ@NAN?$CIIND?$CJ@ 10022f68     libucrt:cvt.obj
 0002:00002f74       ??_C@_08OFCDMILK@nan?$CIind?$CJ@ 10022f74     libucrt:cvt.obj
 0002:00002f80       ??_C@_05KLBDPFGC@e?$CL000@ 10022f80     libucrt:cvt.obj
 0002:00002f88       ___lc_time_c               10022f88     libucrt:nlsdata.obj
 0002:000030ec       ??_C@_03KOEHGMDN@Sun@      100230ec     libucrt:nlsdata.obj
 0002:000030f0       ??_C@_03PDAGKDH@Mon@       100230f0     libucrt:nlsdata.obj
 0002:000030f4       ??_C@_03NAGEINEP@Tue@      100230f4     libucrt:nlsdata.obj
 0002:000030f8       ??_C@_03MHOMLAJA@Wed@      100230f8     libucrt:nlsdata.obj
 0002:000030fc       ??_C@_03IOFIKPDN@Thu@      100230fc     libucrt:nlsdata.obj
 0002:00003100       ??_C@_03IDIOELNC@Fri@      10023100     libucrt:nlsdata.obj
 0002:00003104       ??_C@_03FEFJNEK@Sat@       10023104     libucrt:nlsdata.obj
 0002:00003108       ??_C@_06OOPIFAJ@Sunday@    10023108     libucrt:nlsdata.obj
 0002:00003110       ??_C@_06JLEDEDGH@Monday@   10023110     libucrt:nlsdata.obj
 0002:00003118       ??_C@_07BAAGCFCM@Tuesday@  10023118     libucrt:nlsdata.obj
 0002:00003120       ??_C@_09DLIGFAKA@Wednesday@ 10023120     libucrt:nlsdata.obj
 0002:0000312c       ??_C@_08HACCIKIA@Thursday@ 1002312c     libucrt:nlsdata.obj
 0002:00003138       ??_C@_06JECMNKMI@Friday@   10023138     libucrt:nlsdata.obj
 0002:00003140       ??_C@_08INBOOONO@Saturday@ 10023140     libucrt:nlsdata.obj
 0002:0000314c       ??_C@_03JIHJHPIE@Jan@      1002314c     libucrt:nlsdata.obj
 0002:00003150       ??_C@_03HJBDCHOM@Feb@      10023150     libucrt:nlsdata.obj
 0002:00003154       ??_C@_03ODNJBKGA@Mar@      10023154     libucrt:nlsdata.obj
 0002:00003158       ??_C@_03LEOLGMJP@Apr@      10023158     libucrt:nlsdata.obj
 0002:0000315c       ??_C@_03CNMDKL@May@        1002315c     libucrt:nlsdata.obj
 0002:00003160       ??_C@_03IDFGHECI@Jun@      10023160     libucrt:nlsdata.obj
 0002:00003164       ??_C@_03LBGABGKK@Jul@      10023164     libucrt:nlsdata.obj
 0002:00003168       ??_C@_03IFJFEIGA@Aug@      10023168     libucrt:nlsdata.obj
 0002:0000316c       ??_C@_03GGCAPAJC@Sep@      1002316c     libucrt:nlsdata.obj
 0002:00003170       ??_C@_03BMAOKBAD@Oct@      10023170     libucrt:nlsdata.obj
 0002:00003174       ??_C@_03JPJOFNIA@Nov@      10023174     libucrt:nlsdata.obj
 0002:00003178       ??_C@_03MKABNOCG@Dec@      10023178     libucrt:nlsdata.obj
 0002:0000317c       ??_C@_07CGJPFGJA@January@  1002317c     libucrt:nlsdata.obj
 0002:00003184       ??_C@_08GNJGEPFN@February@ 10023184     libucrt:nlsdata.obj
 0002:00003190       ??_C@_05HPCKOFNC@March@    10023190     libucrt:nlsdata.obj
 0002:00003198       ??_C@_05DMJDNLEJ@April@    10023198     libucrt:nlsdata.obj
 0002:000031a0       ??_C@_04CNLMGBGM@June@     100231a0     libucrt:nlsdata.obj
 0002:000031a8       ??_C@_04MIEPOIFP@July@     100231a8     libucrt:nlsdata.obj
 0002:000031b0       ??_C@_06LBBHFDDG@August@   100231b0     libucrt:nlsdata.obj
 0002:000031b8       ??_C@_09BHHEALKD@September@ 100231b8     libucrt:nlsdata.obj
 0002:000031c4       ??_C@_07JJNFCEND@October@  100231c4     libucrt:nlsdata.obj
 0002:000031cc       ??_C@_08HCHEGEOA@November@ 100231cc     libucrt:nlsdata.obj
 0002:000031d8       ??_C@_08EDHMEBNP@December@ 100231d8     libucrt:nlsdata.obj
 0002:000031e4       ??_C@_02DEDBPAFC@AM@       100231e4     libucrt:nlsdata.obj
 0002:000031e8       ??_C@_02CJNFDJBF@PM@       100231e8     libucrt:nlsdata.obj
 0002:000031ec       ??_C@_08BPBNCDIB@MM?1dd?1yy@ 100231ec     libucrt:nlsdata.obj
 0002:000031f8       ??_C@_0BE@CKGJFCPC@dddd?0?5MMMM?5dd?0?5yyyy@ 100231f8     libucrt:nlsdata.obj
 0002:0000320c       ??_C@_08JCCMCCIL@HH?3mm?3ss@ 1002320c     libucrt:nlsdata.obj
 0002:00003218       ??_C@_17MBGCMIPB@?$AAS?$AAu?$AAn@ 10023218     libucrt:nlsdata.obj
 0002:00003220       ??_C@_17KBOMKBF@?$AAM?$AAo?$AAn@ 10023220     libucrt:nlsdata.obj
 0002:00003228       ??_C@_17BMKGEGOJ@?$AAT?$AAu?$AAe@ 10023228     libucrt:nlsdata.obj
 0002:00003230       ??_C@_17CJEDCEPE@?$AAW?$AAe?$AAd@ 10023230     libucrt:nlsdata.obj
 0002:00003238       ??_C@_17PDPHAADD@?$AAT?$AAh?$AAu@ 10023238     libucrt:nlsdata.obj
 0002:00003240       ??_C@_17HFOLPPLP@?$AAF?$AAr?$AAi@ 10023240     libucrt:nlsdata.obj
 0002:00003248       ??_C@_17GGIBDPIH@?$AAS?$AAa?$AAt@ 10023248     libucrt:nlsdata.obj
 0002:00003250       ??_C@_1O@IHNHDHPB@?$AAS?$AAu?$AAn?$AAd?$AAa?$AAy@ 10023250     libucrt:nlsdata.obj
 0002:00003260       ??_C@_1O@MMNBFLIA@?$AAM?$AAo?$AAn?$AAd?$AAa?$AAy@ 10023260     libucrt:nlsdata.obj
 0002:00003270       ??_C@_1BA@ENFBFFEK@?$AAT?$AAu?$AAe?$AAs?$AAd?$AAa?$AAy@ 10023270     libucrt:nlsdata.obj
 0002:00003280       ??_C@_1BE@EBOGMDOH@?$AAW?$AAe?$AAd?$AAn?$AAe?$AAs?$AAd?$AAa?$AAy@ 10023280     libucrt:nlsdata.obj
 0002:00003294       ??_C@_1BC@HHMNLIHE@?$AAT?$AAh?$AAu?$AAr?$AAs?$AAd?$AAa?$AAy@ 10023294     libucrt:nlsdata.obj
 0002:000032a8       ??_C@_1O@PDICJHAG@?$AAF?$AAr?$AAi?$AAd?$AAa?$AAy@ 100232a8     libucrt:nlsdata.obj
 0002:000032b8       ??_C@_1BC@ENMNNPAJ@?$AAS?$AAa?$AAt?$AAu?$AAr?$AAd?$AAa?$AAy@ 100232b8     libucrt:nlsdata.obj
 0002:000032cc       ??_C@_17DKNBKCHM@?$AAJ?$AAa?$AAn@ 100232cc     libucrt:nlsdata.obj
 0002:000032d4       ??_C@_17LMDJEKJN@?$AAF?$AAe?$AAb@ 100232d4     libucrt:nlsdata.obj
 0002:000032dc       ??_C@_17CKNLEDEC@?$AAM?$AAa?$AAr@ 100232dc     libucrt:nlsdata.obj
 0002:000032e4       ??_C@_17LFPOIHDD@?$AAA?$AAp?$AAr@ 100232e4     libucrt:nlsdata.obj
 0002:000032ec       ??_C@_17PNNKMEED@?$AAM?$AAa?$AAy@ 100232ec     libucrt:nlsdata.obj
 0002:000032f4       ??_C@_17KCJGOCPB@?$AAJ?$AAu?$AAn@ 100232f4     libucrt:nlsdata.obj
 0002:000032fc       ??_C@_17IJPCKHK@?$AAJ?$AAu?$AAl@ 100232fc     libucrt:nlsdata.obj
 0002:00003304       ??_C@_17ICPELBCN@?$AAA?$AAu?$AAg@ 10023304     libucrt:nlsdata.obj
 0002:0000330c       ??_C@_17HCHCOKMG@?$AAS?$AAe?$AAp@ 1002330c     libucrt:nlsdata.obj
 0002:00003314       ??_C@_17FNLKOI@?$AAO?$AAc?$AAt@ 10023314     libucrt:nlsdata.obj
 0002:0000331c       ??_C@_17BBDMLCIG@?$AAN?$AAo?$AAv@ 1002331c     libucrt:nlsdata.obj
 0002:00003324       ??_C@_17EGKACKIF@?$AAD?$AAe?$AAc@ 10023324     libucrt:nlsdata.obj
 0002:0000332c       ??_C@_1BA@EFMEIEBA@?$AAJ?$AAa?$AAn?$AAu?$AAa?$AAr?$AAy@ 1002332c     libucrt:nlsdata.obj
 0002:0000333c       ??_C@_1BC@JGDDFFAM@?$AAF?$AAe?$AAb?$AAr?$AAu?$AAa?$AAr?$AAy@ 1002333c     libucrt:nlsdata.obj
 0002:00003350       ??_C@_1M@IKEENEDF@?$AAM?$AAa?$AAr?$AAc?$AAh@ 10023350     libucrt:nlsdata.obj
 0002:0000335c       ??_C@_1M@GJNLMHFD@?$AAA?$AAp?$AAr?$AAi?$AAl@ 1002335c     libucrt:nlsdata.obj
 0002:00003368       ??_C@_19EPFLPGAP@?$AAJ?$AAu?$AAn?$AAe@ 10023368     libucrt:nlsdata.obj
 0002:00003374       ??_C@_19BIFMLPCD@?$AAJ?$AAu?$AAl?$AAy@ 10023374     libucrt:nlsdata.obj
 0002:00003380       ??_C@_1O@PAHLKOAC@?$AAA?$AAu?$AAg?$AAu?$AAs?$AAt@ 10023380     libucrt:nlsdata.obj
 0002:00003390       ??_C@_1BE@DKAAMBJL@?$AAS?$AAe?$AAp?$AAt?$AAe?$AAm?$AAb?$AAe?$AAr@ 10023390     libucrt:nlsdata.obj
 0002:000033a4       ??_C@_1BA@EPANDLNG@?$AAO?$AAc?$AAt?$AAo?$AAb?$AAe?$AAr@ 100233a4     libucrt:nlsdata.obj
 0002:000033b4       ??_C@_1BC@BGLIFPF@?$AAN?$AAo?$AAv?$AAe?$AAm?$AAb?$AAe?$AAr@ 100233b4     libucrt:nlsdata.obj
 0002:000033c8       ??_C@_1BC@FEMKIFH@?$AAD?$AAe?$AAc?$AAe?$AAm?$AAb?$AAe?$AAr@ 100233c8     libucrt:nlsdata.obj
 0002:000033dc       ??_C@_15ODEHAHHF@?$AAA?$AAM@ 100233dc     libucrt:nlsdata.obj
 0002:000033e4       ??_C@_15CLMNNGEL@?$AAP?$AAM@ 100233e4     libucrt:nlsdata.obj
 0002:000033ec       ??_C@_1BC@IEBCMHCM@?$AAM?$AAM?$AA?1?$AAd?$AAd?$AA?1?$AAy?$AAy@ 100233ec     libucrt:nlsdata.obj
 0002:00003400       ??_C@_1CI@KNAKOEBC@?$AAd?$AAd?$AAd?$AAd?$AA?0?$AA?5?$AAM?$AAM?$AAM?$AAM?$AA?5?$AAd?$AAd?$AA?0?$AA?5@ 10023400     libucrt:nlsdata.obj
 0002:00003428       ??_C@_1BC@GDGBMEMK@?$AAH?$AAH?$AA?3?$AAm?$AAm?$AA?3?$AAs?$AAs@ 10023428     libucrt:nlsdata.obj
 0002:0000343c       ??_C@_1M@BMHNFIME@?$AAe?$AAn?$AA?9?$AAU?$AAS@ 1002343c     libucrt:nlsdata.obj
 0002:00003458       ??_C@_1M@HPNHIDJI@?$AAj?$AAa?$AA?9?$AAJ?$AAP@ 10023458     libucrt:mbctype.obj
 0002:00003464       ??_C@_1M@BIBDDEMK@?$AAz?$AAh?$AA?9?$AAC?$AAN@ 10023464     libucrt:mbctype.obj
 0002:00003470       ??_C@_1M@JLOOOEGK@?$AAk?$AAo?$AA?9?$AAK?$AAR@ 10023470     libucrt:mbctype.obj
 0002:0000347c       ??_C@_1M@CLNBBOPM@?$AAz?$AAh?$AA?9?$AAT?$AAW@ 1002347c     libucrt:mbctype.obj
 0002:00003488       ___newctype                10023488     libucrt:ctype.obj
 0002:00003788       ___newclmap                10023788     libucrt:ctype.obj
 0002:00003908       ___newcumap                10023908     libucrt:ctype.obj
 0002:00003a88       __wctype                   10023a88     libucrt:ctype.obj
 0002:000043b0       ??_C@_15EMKDOKLE@?$AAa?$AAr@ 100243b0     libucrt:lcidtoname_downlevel.obj
 0002:000043b8       ??_C@_15KNPADPLH@?$AAb?$AAg@ 100243b8     libucrt:lcidtoname_downlevel.obj
 0002:000043c0       ??_C@_15EDMHLDMO@?$AAc?$AAa@ 100243c0     libucrt:lcidtoname_downlevel.obj
 0002:000043c8       ??_C@_1O@BPEAJADD@?$AAz?$AAh?$AA?9?$AAC?$AAH?$AAS@ 100243c8     libucrt:lcidtoname_downlevel.obj
 0002:000043d8       ??_C@_15LJNHCMNK@?$AAc?$AAs@ 100243d8     libucrt:lcidtoname_downlevel.obj
 0002:000043e0       ??_C@_15FOMCIDHG@?$AAd?$AAa@ 100243e0     libucrt:lcidtoname_downlevel.obj
 0002:000043e8       ??_C@_15NBKABECB@?$AAd?$AAe@ 100243e8     libucrt:lcidtoname_downlevel.obj
 0002:000043f0       ??_C@_15GHPEIIAO@?$AAe?$AAl@ 100243f0     libucrt:lcidtoname_downlevel.obj
 0002:000043f8       ??_C@_15MNPNEAIF@?$AAe?$AAn@ 100243f8     libucrt:lcidtoname_downlevel.obj
 0002:00004400       ??_C@_15GPIOMPMH@?$AAe?$AAs@ 10024400     libucrt:lcidtoname_downlevel.obj
 0002:00004408       ??_C@_15NGLOAKJC@?$AAf?$AAi@ 10024408     libucrt:lcidtoname_downlevel.obj
 0002:00004410       ??_C@_15FBKGNKAM@?$AAf?$AAr@ 10024410     libucrt:lcidtoname_downlevel.obj
 0002:00004418       ??_C@_15KGGCNEFK@?$AAh?$AAe@ 10024418     libucrt:lcidtoname_downlevel.obj
 0002:00004420       ??_C@_15PGHLIDMF@?$AAh?$AAu@ 10024420     libucrt:lcidtoname_downlevel.obj
 0002:00004428       ??_C@_15BIEMAPLM@?$AAi?$AAs@ 10024428     libucrt:lcidtoname_downlevel.obj
 0002:00004430       ??_C@_15IFJLDHAF@?$AAi?$AAt@ 10024430     libucrt:lcidtoname_downlevel.obj
 0002:00004438       ??_C@_15GEMIOCAG@?$AAj?$AAa@ 10024438     libucrt:lcidtoname_downlevel.obj
 0002:00004440       ??_C@_15EPELEGJA@?$AAk?$AAo@ 10024440     libucrt:lcidtoname_downlevel.obj
 0002:00004448       ??_C@_15NDDHIMN@?$AAn?$AAl@ 10024448     libucrt:lcidtoname_downlevel.obj
 0002:00004450       ??_C@_15BPIGNHCD@?$AAn?$AAo@ 10024450     libucrt:lcidtoname_downlevel.obj
 0002:00004458       ??_C@_15DEOPBLCG@?$AAp?$AAl@ 10024458     libucrt:lcidtoname_downlevel.obj
 0002:00004460       ??_C@_15KBECGEFG@?$AAp?$AAt@ 10024460     libucrt:lcidtoname_downlevel.obj
 0002:00004468       ??_C@_15GLJCBFMD@?$AAr?$AAo@ 10024468     libucrt:lcidtoname_downlevel.obj
 0002:00004470       ??_C@_15FEDGKCDI@?$AAr?$AAu@ 10024470     libucrt:lcidtoname_downlevel.obj
 0002:00004478       ??_C@_15GLKMLLHM@?$AAh?$AAr@ 10024478     libucrt:lcidtoname_downlevel.obj
 0002:00004480       ??_C@_15CPKMFBDB@?$AAs?$AAk@ 10024480     libucrt:lcidtoname_downlevel.obj
 0002:00004488       ??_C@_15BAAIOGMK@?$AAs?$AAq@ 10024488     libucrt:lcidtoname_downlevel.obj
 0002:00004490       ??_C@_15INNPNOHD@?$AAs?$AAv@ 10024490     libucrt:lcidtoname_downlevel.obj
 0002:00004498       ??_C@_15CABMMOGH@?$AAt?$AAh@ 10024498     libucrt:lcidtoname_downlevel.obj
 0002:000044a0       ??_C@_15BPLIHJJM@?$AAt?$AAr@ 100244a0     libucrt:lcidtoname_downlevel.obj
 0002:000044a8       ??_C@_15NEOEKKDJ@?$AAu?$AAr@ 100244a8     libucrt:lcidtoname_downlevel.obj
 0002:000044b0       ??_C@_15NFICGAJK@?$AAi?$AAd@ 100244b0     libucrt:lcidtoname_downlevel.obj
 0002:000044b8       ??_C@_15PJPFLCCM@?$AAu?$AAk@ 100244b8     libucrt:lcidtoname_downlevel.obj
 0002:000044c0       ??_C@_15HPJPHDM@?$AAb?$AAe@ 100244c0     libucrt:lcidtoname_downlevel.obj
 0002:000044c8       ??_C@_15LCHLGJII@?$AAs?$AAl@ 100244c8     libucrt:lcidtoname_downlevel.obj
 0002:000044d0       ??_C@_15PCFJPHHO@?$AAe?$AAt@ 100244d0     libucrt:lcidtoname_downlevel.obj
 0002:000044d8       ??_C@_15HPFPGODN@?$AAl?$AAv@ 100244d8     libucrt:lcidtoname_downlevel.obj
 0002:000044e0       ??_C@_15NFFGKGLG@?$AAl?$AAt@ 100244e0     libucrt:lcidtoname_downlevel.obj
 0002:000044e8       ??_C@_15BDAKCCHN@?$AAf?$AAa@ 100244e8     libucrt:lcidtoname_downlevel.obj
 0002:000044f0       ??_C@_15NFGIAIAJ@?$AAv?$AAi@ 100244f0     libucrt:lcidtoname_downlevel.obj
 0002:000044f8       ??_C@_15LMKNDMHN@?$AAh?$AAy@ 100244f8     libucrt:lcidtoname_downlevel.obj
 0002:00004500       ??_C@_15IJBHMCFL@?$AAa?$AAz@ 10024500     libucrt:lcidtoname_downlevel.obj
 0002:00004508       ??_C@_15EKOFJABL@?$AAe?$AAu@ 10024508     libucrt:lcidtoname_downlevel.obj
 0002:00004510       ??_C@_15BGHADCNK@?$AAm?$AAk@ 10024510     libucrt:lcidtoname_downlevel.obj
 0002:00004518       ??_C@_15JDNICKHM@?$AAa?$AAf@ 10024518     libucrt:lcidtoname_downlevel.obj
 0002:00004520       ??_C@_15KPJEDBKD@?$AAk?$AAa@ 10024520     libucrt:lcidtoname_downlevel.obj
 0002:00004528       ??_C@_15PDNFFFEO@?$AAf?$AAo@ 10024528     libucrt:lcidtoname_downlevel.obj
 0002:00004530       ??_C@_15OMLEGLOC@?$AAh?$AAi@ 10024530     libucrt:lcidtoname_downlevel.obj
 0002:00004538       ??_C@_15IDNNENKK@?$AAm?$AAs@ 10024538     libucrt:lcidtoname_downlevel.obj
 0002:00004540       ??_C@_15MACJNBMH@?$AAk?$AAk@ 10024540     libucrt:lcidtoname_downlevel.obj
 0002:00004548       ??_C@_15DKDJEOND@?$AAk?$AAy@ 10024548     libucrt:lcidtoname_downlevel.obj
 0002:00004550       ??_C@_15DFGDLJBG@?$AAs?$AAw@ 10024550     libucrt:lcidtoname_downlevel.obj
 0002:00004558       ??_C@_15BBFAICNG@?$AAu?$AAz@ 10024558     libucrt:lcidtoname_downlevel.obj
 0002:00004560       ??_C@_15DKNDCGEA@?$AAt?$AAt@ 10024560     libucrt:lcidtoname_downlevel.obj
 0002:00004568       ??_C@_15MGIFMDPL@?$AAp?$AAa@ 10024568     libucrt:lcidtoname_downlevel.obj
 0002:00004570       ??_C@_15HCNDBBA@?$AAg?$AAu@ 10024570     libucrt:lcidtoname_downlevel.obj
 0002:00004578       ??_C@_15FNBEIBON@?$AAt?$AAa@ 10024578     libucrt:lcidtoname_downlevel.obj
 0002:00004580       ??_C@_15NCHGBGLK@?$AAt?$AAe@ 10024580     libucrt:lcidtoname_downlevel.obj
 0002:00004588       ??_C@_15PHPHCBPF@?$AAk?$AAn@ 10024588     libucrt:lcidtoname_downlevel.obj
 0002:00004590       ??_C@_15DLGBCKMP@?$AAm?$AAr@ 10024590     libucrt:lcidtoname_downlevel.obj
 0002:00004598       ??_C@_15EABBLBFF@?$AAs?$AAa@ 10024598     libucrt:lcidtoname_downlevel.obj
 0002:000045a0       ??_C@_15CBKOMCOI@?$AAm?$AAn@ 100245a0     libucrt:lcidtoname_downlevel.obj
 0002:000045a8       ??_C@_15CKDMCJAF@?$AAg?$AAl@ 100245a8     libucrt:lcidtoname_downlevel.obj
 0002:000045b0       ??_C@_17CNJFBPG@?$AAk?$AAo?$AAk@ 100245b0     libucrt:lcidtoname_downlevel.obj
 0002:000045b8       ??_C@_17FFBJICPL@?$AAs?$AAy?$AAr@ 100245b8     libucrt:lcidtoname_downlevel.obj
 0002:000045c0       ??_C@_17KPNDCPAF@?$AAd?$AAi?$AAv@ 100245c0     libucrt:lcidtoname_downlevel.obj
 0002:000045c8       ??_C@_1M@OKAHONE@?$AAa?$AAr?$AA?9?$AAS?$AAA@ 100245c8     libucrt:lcidtoname_downlevel.obj
 0002:000045d4       ??_C@_1M@FFFIGIGK@?$AAb?$AAg?$AA?9?$AAB?$AAG@ 100245d4     libucrt:lcidtoname_downlevel.obj
 0002:000045e0       ??_C@_1M@BJNKEDC@?$AAc?$AAa?$AA?9?$AAE?$AAS@ 100245e0     libucrt:lcidtoname_downlevel.obj
 0002:000045ec       ??_C@_1M@IJJHFJHA@?$AAc?$AAs?$AA?9?$AAC?$AAZ@ 100245ec     libucrt:lcidtoname_downlevel.obj
 0002:000045f8       ??_C@_1M@CLPEOBGI@?$AAd?$AAa?$AA?9?$AAD?$AAK@ 100245f8     libucrt:lcidtoname_downlevel.obj
 0002:00004604       ??_C@_1M@MCMADGCB@?$AAd?$AAe?$AA?9?$AAD?$AAE@ 10024604     libucrt:lcidtoname_downlevel.obj
 0002:00004610       ??_C@_1M@OOCKEMAM@?$AAe?$AAl?$AA?9?$AAG?$AAR@ 10024610     libucrt:lcidtoname_downlevel.obj
 0002:0000461c       ??_C@_1M@DDNJFGID@?$AAf?$AAi?$AA?9?$AAF?$AAI@ 1002461c     libucrt:lcidtoname_downlevel.obj
 0002:00004628       ??_C@_1M@GLIPPMAC@?$AAf?$AAr?$AA?9?$AAF?$AAR@ 10024628     libucrt:lcidtoname_downlevel.obj
 0002:00004634       ??_C@_1M@GFMCHPE@?$AAh?$AAe?$AA?9?$AAI?$AAL@ 10024634     libucrt:lcidtoname_downlevel.obj
 0002:00004640       ??_C@_1M@MHLPGNKM@?$AAh?$AAu?$AA?9?$AAH?$AAU@ 10024640     libucrt:lcidtoname_downlevel.obj
 0002:0000464c       ??_C@_1M@LPDDNNPN@?$AAi?$AAs?$AA?9?$AAI?$AAS@ 1002464c     libucrt:lcidtoname_downlevel.obj
 0002:00004658       ??_C@_1M@MADIPODN@?$AAi?$AAt?$AA?9?$AAI?$AAT@ 10024658     libucrt:lcidtoname_downlevel.obj
 0002:00004664       ??_C@_1M@IHBJJGG@?$AAn?$AAl?$AA?9?$AAN?$AAL@ 10024664     libucrt:lcidtoname_downlevel.obj
 0002:00004670       ??_C@_1M@EANAGDL@?$AAn?$AAb?$AA?9?$AAN?$AAO@ 10024670     libucrt:lcidtoname_downlevel.obj
 0002:0000467c       ??_C@_1M@NEIEMEGP@?$AAp?$AAl?$AA?9?$AAP?$AAL@ 1002467c     libucrt:lcidtoname_downlevel.obj
 0002:00004688       ??_C@_1M@BOCFIGEP@?$AAp?$AAt?$AA?9?$AAB?$AAR@ 10024688     libucrt:lcidtoname_downlevel.obj
 0002:00004694       ??_C@_1M@IMPFOPBG@?$AAr?$AAo?$AA?9?$AAR?$AAO@ 10024694     libucrt:lcidtoname_downlevel.obj
 0002:000046a0       ??_C@_1M@IDNNEJMM@?$AAr?$AAu?$AA?9?$AAR?$AAU@ 100246a0     libucrt:lcidtoname_downlevel.obj
 0002:000046ac       ??_C@_1M@LILEEOGM@?$AAh?$AAr?$AA?9?$AAH?$AAR@ 100246ac     libucrt:lcidtoname_downlevel.obj
 0002:000046b8       ??_C@_1M@FKIFEHPB@?$AAs?$AAk?$AA?9?$AAS?$AAK@ 100246b8     libucrt:lcidtoname_downlevel.obj
 0002:000046c4       ??_C@_1M@LJMAMNPJ@?$AAs?$AAq?$AA?9?$AAA?$AAL@ 100246c4     libucrt:lcidtoname_downlevel.obj
 0002:000046d0       ??_C@_1M@GIAKDKJK@?$AAs?$AAv?$AA?9?$AAS?$AAE@ 100246d0     libucrt:lcidtoname_downlevel.obj
 0002:000046dc       ??_C@_1M@MKJKIKCL@?$AAt?$AAh?$AA?9?$AAT?$AAH@ 100246dc     libucrt:lcidtoname_downlevel.obj
 0002:000046e8       ??_C@_1M@MFLCCMPB@?$AAt?$AAr?$AA?9?$AAT?$AAR@ 100246e8     libucrt:lcidtoname_downlevel.obj
 0002:000046f4       ??_C@_1M@OIJHDKJN@?$AAu?$AAr?$AA?9?$AAP?$AAK@ 100246f4     libucrt:lcidtoname_downlevel.obj
 0002:00004700       ??_C@_1M@LHIPCIEK@?$AAi?$AAd?$AA?9?$AAI?$AAD@ 10024700     libucrt:lcidtoname_downlevel.obj
 0002:0000470c       ??_C@_1M@MFMOBGI@?$AAu?$AAk?$AA?9?$AAU?$AAA@ 1002470c     libucrt:lcidtoname_downlevel.obj
 0002:00004718       ??_C@_1M@OBGLJIPL@?$AAb?$AAe?$AA?9?$AAB?$AAY@ 10024718     libucrt:lcidtoname_downlevel.obj
 0002:00004724       ??_C@_1M@BCFAJEAD@?$AAs?$AAl?$AA?9?$AAS?$AAI@ 10024724     libucrt:lcidtoname_downlevel.obj
 0002:00004730       ??_C@_1M@FKFFEDDN@?$AAe?$AAt?$AA?9?$AAE?$AAE@ 10024730     libucrt:lcidtoname_downlevel.obj
 0002:0000473c       ??_C@_1M@KGKKAACI@?$AAl?$AAv?$AA?9?$AAL?$AAV@ 1002473c     libucrt:lcidtoname_downlevel.obj
 0002:00004748       ??_C@_1M@IFGBIJO@?$AAl?$AAt?$AA?9?$AAL?$AAT@ 10024748     libucrt:lcidtoname_downlevel.obj
 0002:00004754       ??_C@_1M@FGEAHEDM@?$AAf?$AAa?$AA?9?$AAI?$AAR@ 10024754     libucrt:lcidtoname_downlevel.obj
 0002:00004760       ??_C@_1M@KBMAIBFN@?$AAv?$AAi?$AA?9?$AAV?$AAN@ 10024760     libucrt:lcidtoname_downlevel.obj
 0002:0000476c       ??_C@_1M@GPCBKDJK@?$AAh?$AAy?$AA?9?$AAA?$AAM@ 1002476c     libucrt:lcidtoname_downlevel.obj
 0002:00004778       ??_C@_1BG@BECMDDJB@?$AAa?$AAz?$AA?9?$AAA?$AAZ?$AA?9?$AAL?$AAa?$AAt?$AAn@ 10024778     libucrt:lcidtoname_downlevel.obj
 0002:00004790       ??_C@_1M@MAOFCAEA@?$AAe?$AAu?$AA?9?$AAE?$AAS@ 10024790     libucrt:lcidtoname_downlevel.obj
 0002:0000479c       ??_C@_1M@IGHABKPI@?$AAm?$AAk?$AA?9?$AAM?$AAK@ 1002479c     libucrt:lcidtoname_downlevel.obj
 0002:000047a8       ??_C@_1M@IAIGNEJG@?$AAt?$AAn?$AA?9?$AAZ?$AAA@ 100247a8     libucrt:lcidtoname_downlevel.obj
 0002:000047b4       ??_C@_1M@IIJCOJFA@?$AAx?$AAh?$AA?9?$AAZ?$AAA@ 100247b4     libucrt:lcidtoname_downlevel.obj
 0002:000047c0       ??_C@_1M@LGPJHNJH@?$AAz?$AAu?$AA?9?$AAZ?$AAA@ 100247c0     libucrt:lcidtoname_downlevel.obj
 0002:000047cc       ??_C@_1M@HOKAOIO@?$AAa?$AAf?$AA?9?$AAZ?$AAA@ 100247cc     libucrt:lcidtoname_downlevel.obj
 0002:000047d8       ??_C@_1M@DPCLHLIE@?$AAk?$AAa?$AA?9?$AAG?$AAE@ 100247d8     libucrt:lcidtoname_downlevel.obj
 0002:000047e4       ??_C@_1M@BLKMHJBI@?$AAf?$AAo?$AA?9?$AAF?$AAO@ 100247e4     libucrt:lcidtoname_downlevel.obj
 0002:000047f0       ??_C@_1M@LGGJAPPB@?$AAh?$AAi?$AA?9?$AAI?$AAN@ 100247f0     libucrt:lcidtoname_downlevel.obj
 0002:000047fc       ??_C@_1M@FIKPIHFE@?$AAm?$AAt?$AA?9?$AAM?$AAT@ 100247fc     libucrt:lcidtoname_downlevel.obj
 0002:00004808       ??_C@_1M@HEGGPBFA@?$AAs?$AAe?$AA?9?$AAN?$AAO@ 10024808     libucrt:lcidtoname_downlevel.obj
 0002:00004814       ??_C@_1M@EIBJEEPA@?$AAm?$AAs?$AA?9?$AAM?$AAY@ 10024814     libucrt:lcidtoname_downlevel.obj
 0002:00004820       ??_C@_1M@FHLBGMPP@?$AAk?$AAk?$AA?9?$AAK?$AAZ@ 10024820     libucrt:lcidtoname_downlevel.obj
 0002:0000482c       ??_C@_1M@NGJJLCGI@?$AAk?$AAy?$AA?9?$AAK?$AAG@ 1002482c     libucrt:lcidtoname_downlevel.obj
 0002:00004838       ??_C@_1M@GIENNBFC@?$AAs?$AAw?$AA?9?$AAK?$AAE@ 10024838     libucrt:lcidtoname_downlevel.obj
 0002:00004844       ??_C@_1BG@NDGMJIMJ@?$AAu?$AAz?$AA?9?$AAU?$AAZ?$AA?9?$AAL?$AAa?$AAt?$AAn@ 10024844     libucrt:lcidtoname_downlevel.obj
 0002:0000485c       ??_C@_1M@IDCCIHBC@?$AAt?$AAt?$AA?9?$AAR?$AAU@ 1002485c     libucrt:lcidtoname_downlevel.obj
 0002:00004868       ??_C@_1M@LOICPMOJ@?$AAb?$AAn?$AA?9?$AAI?$AAN@ 10024868     libucrt:lcidtoname_downlevel.obj
 0002:00004874       ??_C@_1M@KPKKNEAH@?$AAp?$AAa?$AA?9?$AAI?$AAN@ 10024874     libucrt:lcidtoname_downlevel.obj
 0002:00004880       ??_C@_1M@PJGPPBOG@?$AAg?$AAu?$AA?9?$AAI?$AAN@ 10024880     libucrt:lcidtoname_downlevel.obj
 0002:0000488c       ??_C@_1M@KMKMOPHI@?$AAt?$AAa?$AA?9?$AAI?$AAN@ 1002488c     libucrt:lcidtoname_downlevel.obj
 0002:00004898       ??_C@_1M@KFEHEPAC@?$AAt?$AAe?$AA?9?$AAI?$AAN@ 10024898     libucrt:lcidtoname_downlevel.obj
 0002:000048a4       ??_C@_1M@CDCLMGHI@?$AAk?$AAn?$AA?9?$AAI?$AAN@ 100248a4     libucrt:lcidtoname_downlevel.obj
 0002:000048b0       ??_C@_1M@MIODLDKF@?$AAm?$AAl?$AA?9?$AAI?$AAN@ 100248b0     libucrt:lcidtoname_downlevel.obj
 0002:000048bc       ??_C@_1M@PBIEACPO@?$AAm?$AAr?$AA?9?$AAI?$AAN@ 100248bc     libucrt:lcidtoname_downlevel.obj
 0002:000048c8       ??_C@_1M@NIDEAGPH@?$AAs?$AAa?$AA?9?$AAI?$AAN@ 100248c8     libucrt:lcidtoname_downlevel.obj
 0002:000048d4       ??_C@_1M@FHIHCBIO@?$AAm?$AAn?$AA?9?$AAM?$AAN@ 100248d4     libucrt:lcidtoname_downlevel.obj
 0002:000048e0       ??_C@_1M@JAIJPENP@?$AAc?$AAy?$AA?9?$AAG?$AAB@ 100248e0     libucrt:lcidtoname_downlevel.obj
 0002:000048ec       ??_C@_1M@PHGFBEPN@?$AAg?$AAl?$AA?9?$AAE?$AAS@ 100248ec     libucrt:lcidtoname_downlevel.obj
 0002:000048f8       ??_C@_1O@KPIPDNCP@?$AAk?$AAo?$AAk?$AA?9?$AAI?$AAN@ 100248f8     libucrt:lcidtoname_downlevel.obj
 0002:00004908       ??_C@_1O@KNHJLDJA@?$AAs?$AAy?$AAr?$AA?9?$AAS?$AAY@ 10024908     libucrt:lcidtoname_downlevel.obj
 0002:00004918       ??_C@_1O@MKEKBLAH@?$AAd?$AAi?$AAv?$AA?9?$AAM?$AAV@ 10024918     libucrt:lcidtoname_downlevel.obj
 0002:00004928       ??_C@_1O@OHDCKDDF@?$AAq?$AAu?$AAz?$AA?9?$AAB?$AAO@ 10024928     libucrt:lcidtoname_downlevel.obj
 0002:00004938       ??_C@_1M@LEPJNLFD@?$AAn?$AAs?$AA?9?$AAZ?$AAA@ 10024938     libucrt:lcidtoname_downlevel.obj
 0002:00004944       ??_C@_1M@OMLEIIJB@?$AAm?$AAi?$AA?9?$AAN?$AAZ@ 10024944     libucrt:lcidtoname_downlevel.obj
 0002:00004950       ??_C@_1M@PMPEAILG@?$AAa?$AAr?$AA?9?$AAI?$AAQ@ 10024950     libucrt:lcidtoname_downlevel.obj
 0002:0000495c       ??_C@_1M@CNKPNOEE@?$AAd?$AAe?$AA?9?$AAC?$AAH@ 1002495c     libucrt:lcidtoname_downlevel.obj
 0002:00004968       ??_C@_1M@LKMGMLKO@?$AAe?$AAn?$AA?9?$AAG?$AAB@ 10024968     libucrt:lcidtoname_downlevel.obj
 0002:00004974       ??_C@_1M@PGKJFFGL@?$AAe?$AAs?$AA?9?$AAM?$AAX@ 10024974     libucrt:lcidtoname_downlevel.obj
 0002:00004980       ??_C@_1M@DNNANBDC@?$AAf?$AAr?$AA?9?$AAB?$AAE@ 10024980     libucrt:lcidtoname_downlevel.obj
 0002:0000498c       ??_C@_1M@HLGMDFHM@?$AAi?$AAt?$AA?9?$AAC?$AAH@ 1002498c     libucrt:lcidtoname_downlevel.obj
 0002:00004998       ??_C@_1M@CLLBGJH@?$AAn?$AAl?$AA?9?$AAB?$AAE@ 10024998     libucrt:lcidtoname_downlevel.obj
 0002:000049a4       ??_C@_1M@BODBOGLF@?$AAn?$AAn?$AA?9?$AAN?$AAO@ 100249a4     libucrt:lcidtoname_downlevel.obj
 0002:000049b0       ??_C@_1M@HFFAHKAD@?$AAp?$AAt?$AA?9?$AAP?$AAT@ 100249b0     libucrt:lcidtoname_downlevel.obj
 0002:000049bc       ??_C@_1BG@LNOAKHIE@?$AAs?$AAr?$AA?9?$AAS?$AAP?$AA?9?$AAL?$AAa?$AAt?$AAn@ 100249bc     libucrt:lcidtoname_downlevel.obj
 0002:000049d4       ??_C@_1M@HBMHBGAK@?$AAs?$AAv?$AA?9?$AAF?$AAI@ 100249d4     libucrt:lcidtoname_downlevel.obj
 0002:000049e0       ??_C@_1BG@DGCJGJBE@?$AAa?$AAz?$AA?9?$AAA?$AAZ?$AA?9?$AAC?$AAy?$AAr?$AAl@ 100249e0     libucrt:lcidtoname_downlevel.obj
 0002:000049f8       ??_C@_1M@KEJDAAHB@?$AAs?$AAe?$AA?9?$AAS?$AAE@ 100249f8     libucrt:lcidtoname_downlevel.obj
 0002:00004a04       ??_C@_1M@HEIBJJAD@?$AAm?$AAs?$AA?9?$AAB?$AAN@ 10024a04     libucrt:lcidtoname_downlevel.obj
 0002:00004a10       ??_C@_1BG@PBGJMCEM@?$AAu?$AAz?$AA?9?$AAU?$AAZ?$AA?9?$AAC?$AAy?$AAr?$AAl@ 10024a10     libucrt:lcidtoname_downlevel.obj
 0002:00004a28       ??_C@_1O@LAOBCMDF@?$AAq?$AAu?$AAz?$AA?9?$AAE?$AAC@ 10024a28     libucrt:lcidtoname_downlevel.obj
 0002:00004a38       ??_C@_1M@POEEMAIO@?$AAa?$AAr?$AA?9?$AAE?$AAG@ 10024a38     libucrt:lcidtoname_downlevel.obj
 0002:00004a44       ??_C@_1M@EFAKDEDL@?$AAz?$AAh?$AA?9?$AAH?$AAK@ 10024a44     libucrt:lcidtoname_downlevel.obj
 0002:00004a50       ??_C@_1M@HKKIJHGI@?$AAd?$AAe?$AA?9?$AAA?$AAT@ 10024a50     libucrt:lcidtoname_downlevel.obj
 0002:00004a5c       ??_C@_1M@KBFBEHJF@?$AAe?$AAn?$AA?9?$AAA?$AAU@ 10024a5c     libucrt:lcidtoname_downlevel.obj
 0002:00004a68       ??_C@_1M@MNPLFAAH@?$AAe?$AAs?$AA?9?$AAE?$AAS@ 10024a68     libucrt:lcidtoname_downlevel.obj
 0002:00004a74       ??_C@_1M@HJOOJFMA@?$AAf?$AAr?$AA?9?$AAC?$AAA@ 10024a74     libucrt:lcidtoname_downlevel.obj
 0002:00004a80       ??_C@_1BG@JPOFPNAB@?$AAs?$AAr?$AA?9?$AAS?$AAP?$AA?9?$AAC?$AAy?$AAr?$AAl@ 10024a80     libucrt:lcidtoname_downlevel.obj
 0002:00004a98       ??_C@_1M@LNFOCMOB@?$AAs?$AAe?$AA?9?$AAF?$AAI@ 10024a98     libucrt:lcidtoname_downlevel.obj
 0002:00004aa4       ??_C@_1O@MGJBOAMB@?$AAq?$AAu?$AAz?$AA?9?$AAP?$AAE@ 10024aa4     libucrt:lcidtoname_downlevel.obj
 0002:00004ab4       ??_C@_1M@GJINLBOK@?$AAa?$AAr?$AA?9?$AAL?$AAY@ 10024ab4     libucrt:lcidtoname_downlevel.obj
 0002:00004ac0       ??_C@_1M@GGMNHJNL@?$AAz?$AAh?$AA?9?$AAS?$AAG@ 10024ac0     libucrt:lcidtoname_downlevel.obj
 0002:00004acc       ??_C@_1M@HOIKODND@?$AAd?$AAe?$AA?9?$AAL?$AAU@ 10024acc     libucrt:lcidtoname_downlevel.obj
 0002:00004ad8       ??_C@_1M@DDOCCGFG@?$AAe?$AAn?$AA?9?$AAC?$AAA@ 10024ad8     libucrt:lcidtoname_downlevel.obj
 0002:00004ae4       ??_C@_1M@BNOEMJLF@?$AAe?$AAs?$AA?9?$AAG?$AAT@ 10024ae4     libucrt:lcidtoname_downlevel.obj
 0002:00004af0       ??_C@_1M@EOGNKEK@?$AAf?$AAr?$AA?9?$AAC?$AAH@ 10024af0     libucrt:lcidtoname_downlevel.obj
 0002:00004afc       ??_C@_1M@FLIDJFHL@?$AAh?$AAr?$AA?9?$AAB?$AAA@ 10024afc     libucrt:lcidtoname_downlevel.obj
 0002:00004b08       ??_C@_1O@FMCELNAJ@?$AAs?$AAm?$AAj?$AA?9?$AAN?$AAO@ 10024b08     libucrt:lcidtoname_downlevel.obj
 0002:00004b18       ??_C@_1M@JHGLJMGJ@?$AAa?$AAr?$AA?9?$AAD?$AAZ@ 10024b18     libucrt:lcidtoname_downlevel.obj
 0002:00004b24       ??_C@_1M@JKKFDCNP@?$AAz?$AAh?$AA?9?$AAM?$AAO@ 10024b24     libucrt:lcidtoname_downlevel.obj
 0002:00004b30       ??_C@_1M@GEEFALPE@?$AAd?$AAe?$AA?9?$AAL?$AAI@ 10024b30     libucrt:lcidtoname_downlevel.obj
 0002:00004b3c       ??_C@_1M@IGEOFBG@?$AAe?$AAn?$AA?9?$AAN?$AAZ@ 10024b3c     libucrt:lcidtoname_downlevel.obj
 0002:00004b48       ??_C@_1M@KDBONEHP@?$AAe?$AAs?$AA?9?$AAC?$AAR@ 10024b48     libucrt:lcidtoname_downlevel.obj
 0002:00004b54       ??_C@_1M@FHMDOHNN@?$AAf?$AAr?$AA?9?$AAL?$AAU@ 10024b54     libucrt:lcidtoname_downlevel.obj
 0002:00004b60       ??_C@_1BG@NFKKMAFG@?$AAb?$AAs?$AA?9?$AAB?$AAA?$AA?9?$AAL?$AAa?$AAt?$AAn@ 10024b60     libucrt:lcidtoname_downlevel.obj
 0002:00004b78       ??_C@_1O@IMNBEMCI@?$AAs?$AAm?$AAj?$AA?9?$AAS?$AAE@ 10024b78     libucrt:lcidtoname_downlevel.obj
 0002:00004b88       ??_C@_1M@DHHMBNDP@?$AAa?$AAr?$AA?9?$AAM?$AAA@ 10024b88     libucrt:lcidtoname_downlevel.obj
 0002:00004b94       ??_C@_1M@BNBLJCGH@?$AAe?$AAn?$AA?9?$AAI?$AAE@ 10024b94     libucrt:lcidtoname_downlevel.obj
 0002:00004ba0       ??_C@_1M@GEPAFMDL@?$AAe?$AAs?$AA?9?$AAP?$AAA@ 10024ba0     libucrt:lcidtoname_downlevel.obj
 0002:00004bac       ??_C@_1M@OJONDMDL@?$AAf?$AAr?$AA?9?$AAM?$AAC@ 10024bac     libucrt:lcidtoname_downlevel.obj
 0002:00004bb8       ??_C@_1BG@OBCNFJB@?$AAs?$AAr?$AA?9?$AAB?$AAA?$AA?9?$AAL?$AAa?$AAt?$AAn@ 10024bb8     libucrt:lcidtoname_downlevel.obj
 0002:00004bd0       ??_C@_1O@KEMEEGPO@?$AAs?$AAm?$AAa?$AA?9?$AAN?$AAO@ 10024bd0     libucrt:lcidtoname_downlevel.obj
 0002:00004be0       ??_C@_1M@ELMGFODK@?$AAa?$AAr?$AA?9?$AAT?$AAN@ 10024be0     libucrt:lcidtoname_downlevel.obj
 0002:00004bec       ??_C@_1M@BHDLHFAF@?$AAe?$AAn?$AA?9?$AAZ?$AAA@ 10024bec     libucrt:lcidtoname_downlevel.obj
 0002:00004bf8       ??_C@_1M@BMGIGLIF@?$AAe?$AAs?$AA?9?$AAD?$AAO@ 10024bf8     libucrt:lcidtoname_downlevel.obj
 0002:00004c04       ??_C@_1BG@CMBHIPBE@?$AAs?$AAr?$AA?9?$AAB?$AAA?$AA?9?$AAC?$AAy?$AAr?$AAl@ 10024c04     libucrt:lcidtoname_downlevel.obj
 0002:00004c1c       ??_C@_1O@HEDBLHNP@?$AAs?$AAm?$AAa?$AA?9?$AAS?$AAE@ 10024c1c     libucrt:lcidtoname_downlevel.obj
 0002:00004c2c       ??_C@_1M@DAGCADIM@?$AAa?$AAr?$AA?9?$AAO?$AAM@ 10024c2c     libucrt:lcidtoname_downlevel.obj
 0002:00004c38       ??_C@_1M@FODLMICG@?$AAe?$AAn?$AA?9?$AAJ?$AAM@ 10024c38     libucrt:lcidtoname_downlevel.obj
 0002:00004c44       ??_C@_1M@DNMLCIHB@?$AAe?$AAs?$AA?9?$AAV?$AAE@ 10024c44     libucrt:lcidtoname_downlevel.obj
 0002:00004c50       ??_C@_1O@EOKHMKJK@?$AAs?$AAm?$AAs?$AA?9?$AAF?$AAI@ 10024c50     libucrt:lcidtoname_downlevel.obj
 0002:00004c60       ??_C@_1M@CAFJMKOF@?$AAa?$AAr?$AA?9?$AAY?$AAE@ 10024c60     libucrt:lcidtoname_downlevel.obj
 0002:00004c6c       ??_C@_1M@CBFHIJLI@?$AAe?$AAn?$AA?9?$AAC?$AAB@ 10024c6c     libucrt:lcidtoname_downlevel.obj
 0002:00004c78       ??_C@_1M@BGNFLDN@?$AAe?$AAs?$AA?9?$AAC?$AAO@ 10024c78     libucrt:lcidtoname_downlevel.obj
 0002:00004c84       ??_C@_1O@JMPHMAMC@?$AAs?$AAm?$AAn?$AA?9?$AAF?$AAI@ 10024c84     libucrt:lcidtoname_downlevel.obj
 0002:00004c94       ??_C@_1M@JLANABKE@?$AAa?$AAr?$AA?9?$AAS?$AAY@ 10024c94     libucrt:lcidtoname_downlevel.obj
 0002:00004ca0       ??_C@_1M@HPKGCFGN@?$AAe?$AAn?$AA?9?$AAB?$AAZ@ 10024ca0     libucrt:lcidtoname_downlevel.obj
 0002:00004cac       ??_C@_1M@OLJCMLGM@?$AAe?$AAs?$AA?9?$AAP?$AAE@ 10024cac     libucrt:lcidtoname_downlevel.obj
 0002:00004cb8       ??_C@_1M@MKKGFKLE@?$AAa?$AAr?$AA?9?$AAJ?$AAO@ 10024cb8     libucrt:lcidtoname_downlevel.obj
 0002:00004cc4       ??_C@_1M@EKPGLDNI@?$AAe?$AAn?$AA?9?$AAT?$AAT@ 10024cc4     libucrt:lcidtoname_downlevel.obj
 0002:00004cd0       ??_C@_1M@OONGHFHE@?$AAe?$AAs?$AA?9?$AAA?$AAR@ 10024cd0     libucrt:lcidtoname_downlevel.obj
 0002:00004cdc       ??_C@_1M@OOJFGBHE@?$AAa?$AAr?$AA?9?$AAL?$AAB@ 10024cdc     libucrt:lcidtoname_downlevel.obj
 0002:00004ce8       ??_C@_1M@GCEJHNEG@?$AAe?$AAn?$AA?9?$AAZ?$AAW@ 10024ce8     libucrt:lcidtoname_downlevel.obj
 0002:00004cf4       ??_C@_1M@JNOCAHJI@?$AAe?$AAs?$AA?9?$AAE?$AAC@ 10024cf4     libucrt:lcidtoname_downlevel.obj
 0002:00004d00       ??_C@_1M@JEFHPGGB@?$AAa?$AAr?$AA?9?$AAK?$AAW@ 10024d00     libucrt:lcidtoname_downlevel.obj
 0002:00004d0c       ??_C@_1M@MLKIBJOJ@?$AAe?$AAn?$AA?9?$AAP?$AAH@ 10024d0c     libucrt:lcidtoname_downlevel.obj
 0002:00004d18       ??_C@_1M@BDNIPEND@?$AAe?$AAs?$AA?9?$AAC?$AAL@ 10024d18     libucrt:lcidtoname_downlevel.obj
 0002:00004d24       ??_C@_1M@MPNMEKBD@?$AAa?$AAr?$AA?9?$AAA?$AAE@ 10024d24     libucrt:lcidtoname_downlevel.obj
 0002:00004d30       ??_C@_1M@KBJALCPI@?$AAe?$AAs?$AA?9?$AAU?$AAY@ 10024d30     libucrt:lcidtoname_downlevel.obj
 0002:00004d3c       ??_C@_1M@LLCCOAGA@?$AAa?$AAr?$AA?9?$AAB?$AAH@ 10024d3c     libucrt:lcidtoname_downlevel.obj
 0002:00004d48       ??_C@_1M@PBFNCDEL@?$AAe?$AAs?$AA?9?$AAP?$AAY@ 10024d48     libucrt:lcidtoname_downlevel.obj
 0002:00004d54       ??_C@_1M@EDGINPNP@?$AAa?$AAr?$AA?9?$AAQ?$AAA@ 10024d54     libucrt:lcidtoname_downlevel.obj
 0002:00004d60       ??_C@_1M@MKDBIIJI@?$AAe?$AAs?$AA?9?$AAB?$AAO@ 10024d60     libucrt:lcidtoname_downlevel.obj
 0002:00004d6c       ??_C@_1M@CPKKEBLD@?$AAe?$AAs?$AA?9?$AAS?$AAV@ 10024d6c     libucrt:lcidtoname_downlevel.obj
 0002:00004d78       ??_C@_1M@NDBGMMJL@?$AAe?$AAs?$AA?9?$AAH?$AAN@ 10024d78     libucrt:lcidtoname_downlevel.obj
 0002:00004d84       ??_C@_1M@JIJIBHDP@?$AAe?$AAs?$AA?9?$AAN?$AAI@ 10024d84     libucrt:lcidtoname_downlevel.obj
 0002:00004d90       ??_C@_1M@CGFMKEEK@?$AAe?$AAs?$AA?9?$AAP?$AAR@ 10024d90     libucrt:lcidtoname_downlevel.obj
 0002:00004d9c       ??_C@_1O@ICJHKIIK@?$AAz?$AAh?$AA?9?$AAC?$AAH?$AAT@ 10024d9c     libucrt:lcidtoname_downlevel.obj
 0002:00004dac       ??_C@_15CLNEJCE@?$AAs?$AAr@ 10024dac     libucrt:lcidtoname_downlevel.obj
 0002:000054d8       ??_C@_1M@KAHEKEIG@?$AAa?$AAf?$AA?9?$AAz?$AAa@ 100254d8     libucrt:lcidtoname_downlevel.obj
 0002:000054e4       ??_C@_1M@GIECOABL@?$AAa?$AAr?$AA?9?$AAa?$AAe@ 100254e4     libucrt:lcidtoname_downlevel.obj
 0002:000054f0       ??_C@_1M@BMLMEKGI@?$AAa?$AAr?$AA?9?$AAb?$AAh@ 100254f0     libucrt:lcidtoname_downlevel.obj
 0002:000054fc       ??_C@_1M@DAPFDGGB@?$AAa?$AAr?$AA?9?$AAd?$AAz@ 100254fc     libucrt:lcidtoname_downlevel.obj
 0002:00005508       ??_C@_1M@FJNKGKIG@?$AAa?$AAr?$AA?9?$AAe?$AAg@ 10025508     libucrt:lcidtoname_downlevel.obj
 0002:00005514       ??_C@_1M@FLGKKCLO@?$AAa?$AAr?$AA?9?$AAi?$AAq@ 10025514     libucrt:lcidtoname_downlevel.obj
 0002:00005520       ??_C@_1M@GNDIPALM@?$AAa?$AAr?$AA?9?$AAj?$AAo@ 10025520     libucrt:lcidtoname_downlevel.obj
 0002:0000552c       ??_C@_1M@DDMJFMGJ@?$AAa?$AAr?$AA?9?$AAk?$AAw@ 1002552c     libucrt:lcidtoname_downlevel.obj
 0002:00005538       ??_C@_1M@EJALMLHM@?$AAa?$AAr?$AA?9?$AAl?$AAb@ 10025538     libucrt:lcidtoname_downlevel.obj
 0002:00005544       ??_C@_1M@MOBDBLOC@?$AAa?$AAr?$AA?9?$AAl?$AAy@ 10025544     libucrt:lcidtoname_downlevel.obj
 0002:00005550       ??_C@_1M@JAOCLHDH@?$AAa?$AAr?$AA?9?$AAm?$AAa@ 10025550     libucrt:lcidtoname_downlevel.obj
 0002:0000555c       ??_C@_1M@JHPMKJIE@?$AAa?$AAr?$AA?9?$AAo?$AAm@ 1002555c     libucrt:lcidtoname_downlevel.obj
 0002:00005568       ??_C@_1M@OEPGHFNH@?$AAa?$AAr?$AA?9?$AAq?$AAa@ 10025568     libucrt:lcidtoname_downlevel.obj
 0002:00005574       ??_C@_1M@KJDONENM@?$AAa?$AAr?$AA?9?$AAs?$AAa@ 10025574     libucrt:lcidtoname_downlevel.obj
 0002:00005580       ??_C@_1M@DMJDKLKM@?$AAa?$AAr?$AA?9?$AAs?$AAy@ 10025580     libucrt:lcidtoname_downlevel.obj
 0002:0000558c       ??_C@_1M@OMFIPEDC@?$AAa?$AAr?$AA?9?$AAt?$AAn@ 1002558c     libucrt:lcidtoname_downlevel.obj
 0002:00005598       ??_C@_1M@IHMHGAON@?$AAa?$AAr?$AA?9?$AAy?$AAe@ 10025598     libucrt:lcidtoname_downlevel.obj
 0002:000055a4       ??_C@_1BG@KDCPGJGB@?$AAa?$AAz?$AA?9?$AAa?$AAz?$AA?9?$AAc?$AAy?$AAr?$AAl@ 100255a4     libucrt:lcidtoname_downlevel.obj
 0002:000055bc       ??_C@_1BG@IBCKDDOE@?$AAa?$AAz?$AA?9?$AAa?$AAz?$AA?9?$AAl?$AAa?$AAt?$AAn@ 100255bc     libucrt:lcidtoname_downlevel.obj
 0002:000055d4       ??_C@_1M@EGPFDCPD@?$AAb?$AAe?$AA?9?$AAb?$AAy@ 100255d4     libucrt:lcidtoname_downlevel.obj
 0002:000055e0       ??_C@_1M@PCMGMCGC@?$AAb?$AAg?$AA?9?$AAb?$AAg@ 100255e0     libucrt:lcidtoname_downlevel.obj
 0002:000055ec       ??_C@_1M@BJBMFGOB@?$AAb?$AAn?$AA?9?$AAi?$AAn@ 100255ec     libucrt:lcidtoname_downlevel.obj
 0002:000055f8       ??_C@_1BG@EAKMMACD@?$AAb?$AAs?$AA?9?$AAb?$AAa?$AA?9?$AAl?$AAa?$AAt?$AAn@ 100255f8     libucrt:lcidtoname_downlevel.obj
 0002:00005610       ??_C@_1M@KGADAODK@?$AAc?$AAa?$AA?9?$AAe?$AAs@ 10025610     libucrt:lcidtoname_downlevel.obj
 0002:0000561c       ??_C@_1M@COAJPDHI@?$AAc?$AAs?$AA?9?$AAc?$AAz@ 1002561c     libucrt:lcidtoname_downlevel.obj
 0002:00005628       ??_C@_1M@DHBHFONH@?$AAc?$AAy?$AA?9?$AAg?$AAb@ 10025628     libucrt:lcidtoname_downlevel.obj
 0002:00005634       ??_C@_1M@IMGKELGA@?$AAd?$AAa?$AA?9?$AAd?$AAk@ 10025634     libucrt:lcidtoname_downlevel.obj
 0002:00005640       ??_C@_1M@NNDGDNGA@?$AAd?$AAe?$AA?9?$AAa?$AAt@ 10025640     libucrt:lcidtoname_downlevel.obj
 0002:0000564c       ??_C@_1M@IKDBHEEM@?$AAd?$AAe?$AA?9?$AAc?$AAh@ 1002564c     libucrt:lcidtoname_downlevel.obj
 0002:00005658       ??_C@_1M@GFFOJMCJ@?$AAd?$AAe?$AA?9?$AAd?$AAe@ 10025658     libucrt:lcidtoname_downlevel.obj
 0002:00005664       ??_C@_1M@MDNLKBPM@?$AAd?$AAe?$AA?9?$AAl?$AAi@ 10025664     libucrt:lcidtoname_downlevel.obj
 0002:00005670       ??_C@_1M@NJBEEJNL@?$AAd?$AAe?$AA?9?$AAl?$AAu@ 10025670     libucrt:lcidtoname_downlevel.obj
 0002:0000567c       ??_C@_1O@GNNELBAP@?$AAd?$AAi?$AAv?$AA?9?$AAm?$AAv@ 1002567c     libucrt:lcidtoname_downlevel.obj
 0002:0000568c       ??_C@_1M@EJLEOGAE@?$AAe?$AAl?$AA?9?$AAg?$AAr@ 1002568c     libucrt:lcidtoname_downlevel.obj
 0002:00005698       ??_C@_1M@GMPONJN@?$AAe?$AAn?$AA?9?$AAa?$AAu@ 10025698     libucrt:lcidtoname_downlevel.obj
 0002:000056a4       ??_C@_1M@NIDIIPGF@?$AAe?$AAn?$AA?9?$AAb?$AAz@ 100256a4     libucrt:lcidtoname_downlevel.obj
 0002:000056b0       ??_C@_1M@JEHMIMFO@?$AAe?$AAn?$AA?9?$AAc?$AAa@ 100256b0     libucrt:lcidtoname_downlevel.obj
 0002:000056bc       ??_C@_1M@IGMJCDLA@?$AAe?$AAn?$AA?9?$AAc?$AAb@ 100256bc     libucrt:lcidtoname_downlevel.obj
 0002:000056c8       ??_C@_1M@BNFIGBKG@?$AAe?$AAn?$AA?9?$AAg?$AAb@ 100256c8     libucrt:lcidtoname_downlevel.obj
 0002:000056d4       ??_C@_1M@LKIFDIGP@?$AAe?$AAn?$AA?9?$AAi?$AAe@ 100256d4     libucrt:lcidtoname_downlevel.obj
 0002:000056e0       ??_C@_1M@PJKFGCCO@?$AAe?$AAn?$AA?9?$AAj?$AAm@ 100256e0     libucrt:lcidtoname_downlevel.obj
 0002:000056ec       ??_C@_1M@KPPKEPBO@?$AAe?$AAn?$AA?9?$AAn?$AAz@ 100256ec     libucrt:lcidtoname_downlevel.obj
 0002:000056f8       ??_C@_1M@GMDGLDOB@?$AAe?$AAn?$AA?9?$AAp?$AAh@ 100256f8     libucrt:lcidtoname_downlevel.obj
 0002:00005704       ??_C@_1M@ONGIBJNA@?$AAe?$AAn?$AA?9?$AAt?$AAt@ 10025704     libucrt:lcidtoname_downlevel.obj
 0002:00005710       ??_C@_1M@LLODPCMM@?$AAe?$AAn?$AA?9?$AAu?$AAs@ 10025710     libucrt:lcidtoname_downlevel.obj
 0002:0000571c       ??_C@_1M@LAKFNPAN@?$AAe?$AAn?$AA?9?$AAz?$AAa@ 1002571c     libucrt:lcidtoname_downlevel.obj
 0002:00005728       ??_C@_1M@MFNHNHEO@?$AAe?$AAn?$AA?9?$AAz?$AAw@ 10025728     libucrt:lcidtoname_downlevel.obj
 0002:00005734       ??_C@_1M@EJEINPHM@?$AAe?$AAs?$AA?9?$AAa?$AAr@ 10025734     libucrt:lcidtoname_downlevel.obj
 0002:00005740       ??_C@_1M@GNKPCCJA@?$AAe?$AAs?$AA?9?$AAb?$AAo@ 10025740     libucrt:lcidtoname_downlevel.obj
 0002:0000574c       ??_C@_1M@LEEGFONL@?$AAe?$AAs?$AA?9?$AAc?$AAl@ 1002574c     libucrt:lcidtoname_downlevel.obj
 0002:00005758       ??_C@_1M@KGPDPBDF@?$AAe?$AAs?$AA?9?$AAc?$AAo@ 10025758     libucrt:lcidtoname_downlevel.obj
 0002:00005764       ??_C@_1M@EIAHOHH@?$AAe?$AAs?$AA?9?$AAc?$AAr@ 10025764     libucrt:lcidtoname_downlevel.obj
 0002:00005770       ??_C@_1M@LLPGMBIN@?$AAe?$AAs?$AA?9?$AAd?$AAo@ 10025770     libucrt:lcidtoname_downlevel.obj
 0002:0000577c       ??_C@_1M@DKHMKNJA@?$AAe?$AAs?$AA?9?$AAe?$AAc@ 1002577c     libucrt:lcidtoname_downlevel.obj
 0002:00005788       ??_C@_1M@GKGFPKAP@?$AAe?$AAs?$AA?9?$AAe?$AAs@ 10025788     libucrt:lcidtoname_downlevel.obj
 0002:00005794       ??_C@_1M@LKHKGDLN@?$AAe?$AAs?$AA?9?$AAg?$AAt@ 10025794     libucrt:lcidtoname_downlevel.obj
 0002:000057a0       ??_C@_1M@HEIIGGJD@?$AAe?$AAs?$AA?9?$AAh?$AAn@ 100257a0     libucrt:lcidtoname_downlevel.obj
 0002:000057ac       ??_C@_1M@FBDHPPGD@?$AAe?$AAs?$AA?9?$AAm?$AAx@ 100257ac     libucrt:lcidtoname_downlevel.obj
 0002:000057b8       ??_C@_1M@DPAGLNDH@?$AAe?$AAs?$AA?9?$AAn?$AAi@ 100257b8     libucrt:lcidtoname_downlevel.obj
 0002:000057c4       ??_C@_1M@MDGOPGDD@?$AAe?$AAs?$AA?9?$AAp?$AAa@ 100257c4     libucrt:lcidtoname_downlevel.obj
 0002:000057d0       ??_C@_1M@EMAMGBGE@?$AAe?$AAs?$AA?9?$AAp?$AAe@ 100257d0     libucrt:lcidtoname_downlevel.obj
 0002:000057dc       ??_C@_1M@IBMCAOEC@?$AAe?$AAs?$AA?9?$AAp?$AAr@ 100257dc     libucrt:lcidtoname_downlevel.obj
 0002:000057e8       ??_C@_1M@FGMDIJED@?$AAe?$AAs?$AA?9?$AAp?$AAy@ 100257e8     libucrt:lcidtoname_downlevel.obj
 0002:000057f4       ??_C@_1M@IIDEOLLL@?$AAe?$AAs?$AA?9?$AAs?$AAv@ 100257f4     libucrt:lcidtoname_downlevel.obj
 0002:00005800       ??_C@_1M@GAOBIPA@?$AAe?$AAs?$AA?9?$AAu?$AAy@ 10025800     libucrt:lcidtoname_downlevel.obj
 0002:0000580c       ??_C@_1M@JKFFICHJ@?$AAe?$AAs?$AA?9?$AAv?$AAe@ 1002580c     libucrt:lcidtoname_downlevel.obj
 0002:00005818       ??_C@_1M@PNMLOJDF@?$AAe?$AAt?$AA?9?$AAe?$AAe@ 10025818     libucrt:lcidtoname_downlevel.obj
 0002:00005824       ??_C@_1M@GHHLIKEI@?$AAe?$AAu?$AA?9?$AAe?$AAs@ 10025824     libucrt:lcidtoname_downlevel.obj
 0002:00005830       ??_C@_1M@PBNONODE@?$AAf?$AAa?$AA?9?$AAi?$AAr@ 10025830     libucrt:lcidtoname_downlevel.obj
 0002:0000583c       ??_C@_1M@JEEHPMIL@?$AAf?$AAi?$AA?9?$AAf?$AAi@ 1002583c     libucrt:lcidtoname_downlevel.obj
 0002:00005848       ??_C@_1M@LMDCNDBA@?$AAf?$AAo?$AA?9?$AAf?$AAo@ 10025848     libucrt:lcidtoname_downlevel.obj
 0002:00005854       ??_C@_1M@JKEOHLDK@?$AAf?$AAr?$AA?9?$AAb?$AAe@ 10025854     libucrt:lcidtoname_downlevel.obj
 0002:00005860       ??_C@_1M@NOHADPMI@?$AAf?$AAr?$AA?9?$AAc?$AAa@ 10025860     libucrt:lcidtoname_downlevel.obj
 0002:0000586c       ??_C@_1M@KDHIHAEC@?$AAf?$AAr?$AA?9?$AAc?$AAh@ 1002586c     libucrt:lcidtoname_downlevel.obj
 0002:00005878       ??_C@_1M@MMBBFGAK@?$AAf?$AAr?$AA?9?$AAf?$AAr@ 10025878     libucrt:lcidtoname_downlevel.obj
 0002:00005884       ??_C@_1M@PAFNENNF@?$AAf?$AAr?$AA?9?$AAl?$AAu@ 10025884     libucrt:lcidtoname_downlevel.obj
 0002:00005890       ??_C@_1M@EOHDJGDD@?$AAf?$AAr?$AA?9?$AAm?$AAc@ 10025890     libucrt:lcidtoname_downlevel.obj
 0002:0000589c       ??_C@_1M@FAPLLOPF@?$AAg?$AAl?$AA?9?$AAe?$AAs@ 1002589c     libucrt:lcidtoname_downlevel.obj
 0002:000058a8       ??_C@_1M@FOPBFLOO@?$AAg?$AAu?$AA?9?$AAi?$AAn@ 100258a8     libucrt:lcidtoname_downlevel.obj
 0002:000058b4       ??_C@_1M@KBMCINPM@?$AAh?$AAe?$AA?9?$AAi?$AAl@ 100258b4     libucrt:lcidtoname_downlevel.obj
 0002:000058c0       ??_C@_1M@BBPHKFPJ@?$AAh?$AAi?$AA?9?$AAi?$AAn@ 100258c0     libucrt:lcidtoname_downlevel.obj
 0002:000058cc       ??_C@_1M@PMBNDPHD@?$AAh?$AAr?$AA?9?$AAb?$AAa@ 100258cc     libucrt:lcidtoname_downlevel.obj
 0002:000058d8       ??_C@_1M@BPCKOEGE@?$AAh?$AAr?$AA?9?$AAh?$AAr@ 100258d8     libucrt:lcidtoname_downlevel.obj
 0002:000058e4       ??_C@_1M@GACBMHKE@?$AAh?$AAu?$AA?9?$AAh?$AAu@ 100258e4     libucrt:lcidtoname_downlevel.obj
 0002:000058f0       ??_C@_1M@MILPAJJC@?$AAh?$AAy?$AA?9?$AAa?$AAm@ 100258f0     libucrt:lcidtoname_downlevel.obj
 0002:000058fc       ??_C@_1M@BABBICEC@?$AAi?$AAd?$AA?9?$AAi?$AAd@ 100258fc     libucrt:lcidtoname_downlevel.obj
 0002:00005908       ??_C@_1M@BIKNHHPF@?$AAi?$AAs?$AA?9?$AAi?$AAs@ 10025908     libucrt:lcidtoname_downlevel.obj
 0002:00005914       ??_C@_1M@NMPCJPHE@?$AAi?$AAt?$AA?9?$AAc?$AAh@ 10025914     libucrt:lcidtoname_downlevel.obj
 0002:00005920       ??_C@_1M@GHKGFEDF@?$AAi?$AAt?$AA?9?$AAi?$AAt@ 10025920     libucrt:lcidtoname_downlevel.obj
 0002:0000592c       ??_C@_1M@NIEJCJJA@?$AAj?$AAa?$AA?9?$AAj?$AAp@ 1002592c     libucrt:lcidtoname_downlevel.obj
 0002:00005938       ??_C@_1M@JILFNBIM@?$AAk?$AAa?$AA?9?$AAg?$AAe@ 10025938     libucrt:lcidtoname_downlevel.obj
 0002:00005944       ??_C@_1M@PACPMGPH@?$AAk?$AAk?$AA?9?$AAk?$AAz@ 10025944     libucrt:lcidtoname_downlevel.obj
 0002:00005950       ??_C@_1M@IELFGMHA@?$AAk?$AAn?$AA?9?$AAi?$AAn@ 10025950     libucrt:lcidtoname_downlevel.obj
 0002:0000595c       ??_C@_1O@IBBJHCH@?$AAk?$AAo?$AAk?$AA?9?$AAi?$AAn@ 1002595c     libucrt:lcidtoname_downlevel.obj
 0002:0000596c       ??_C@_1M@DMHAEOGC@?$AAk?$AAo?$AA?9?$AAk?$AAr@ 1002596c     libucrt:lcidtoname_downlevel.obj
 0002:00005978       ??_C@_1M@HBAHBIGA@?$AAk?$AAy?$AA?9?$AAk?$AAg@ 10025978     libucrt:lcidtoname_downlevel.obj
 0002:00005984       ??_C@_1M@KPMILCJG@?$AAl?$AAt?$AA?9?$AAl?$AAt@ 10025984     libucrt:lcidtoname_downlevel.obj
 0002:00005990       ??_C@_1M@BDEKKCA@?$AAl?$AAv?$AA?9?$AAl?$AAv@ 10025990     libucrt:lcidtoname_downlevel.obj
 0002:0000599c       ??_C@_1M@ELCKCCJJ@?$AAm?$AAi?$AA?9?$AAn?$AAz@ 1002599c     libucrt:lcidtoname_downlevel.obj
 0002:000059a8       ??_C@_1M@CBOOLAPA@?$AAm?$AAk?$AA?9?$AAm?$AAk@ 100259a8     libucrt:lcidtoname_downlevel.obj
 0002:000059b4       ??_C@_1M@GPHNBJKN@?$AAm?$AAl?$AA?9?$AAi?$AAn@ 100259b4     libucrt:lcidtoname_downlevel.obj
 0002:000059c0       ??_C@_1M@PABJILIG@?$AAm?$AAn?$AA?9?$AAm?$AAn@ 100259c0     libucrt:lcidtoname_downlevel.obj
 0002:000059cc       ??_C@_1M@FGBKKIPG@?$AAm?$AAr?$AA?9?$AAi?$AAn@ 100259cc     libucrt:lcidtoname_downlevel.obj
 0002:000059d8       ??_C@_1M@NDBPDDAL@?$AAm?$AAs?$AA?9?$AAb?$AAn@ 100259d8     libucrt:lcidtoname_downlevel.obj
 0002:000059e4       ??_C@_1M@OPIHOOPI@?$AAm?$AAs?$AA?9?$AAm?$AAy@ 100259e4     libucrt:lcidtoname_downlevel.obj
 0002:000059f0       ??_C@_1M@PPDBCNFM@?$AAm?$AAt?$AA?9?$AAm?$AAt@ 100259f0     libucrt:lcidtoname_downlevel.obj
 0002:000059fc       ??_C@_1M@KDJDKMDD@?$AAn?$AAb?$AA?9?$AAn?$AAo@ 100259fc     libucrt:lcidtoname_downlevel.obj
 0002:00005a08       ??_C@_1M@KFCFLMJP@?$AAn?$AAl?$AA?9?$AAb?$AAe@ 10025a08     libucrt:lcidtoname_downlevel.obj
 0002:00005a14       ??_C@_1M@KPOPDDGO@?$AAn?$AAl?$AA?9?$AAn?$AAl@ 10025a14     libucrt:lcidtoname_downlevel.obj
 0002:00005a20       ??_C@_1M@LJKPEMLN@?$AAn?$AAn?$AA?9?$AAn?$AAo@ 10025a20     libucrt:lcidtoname_downlevel.obj
 0002:00005a2c       ??_C@_1M@BDGHHBFL@?$AAn?$AAs?$AA?9?$AAz?$AAa@ 10025a2c     libucrt:lcidtoname_downlevel.obj
 0002:00005a38       ??_C@_1M@IDEHOAP@?$AAp?$AAa?$AA?9?$AAi?$AAn@ 10025a38     libucrt:lcidtoname_downlevel.obj
 0002:00005a44       ??_C@_1M@HDBKGOGH@?$AAp?$AAl?$AA?9?$AAp?$AAl@ 10025a44     libucrt:lcidtoname_downlevel.obj
 0002:00005a50       ??_C@_1M@LJLLCMEH@?$AAp?$AAt?$AA?9?$AAb?$AAr@ 10025a50     libucrt:lcidtoname_downlevel.obj
 0002:00005a5c       ??_C@_1M@NCMONAAL@?$AAp?$AAt?$AA?9?$AAp?$AAt@ 10025a5c     libucrt:lcidtoname_downlevel.obj
 0002:00005a68       ??_C@_1O@EAKMAJDN@?$AAq?$AAu?$AAz?$AA?9?$AAb?$AAo@ 10025a68     libucrt:lcidtoname_downlevel.obj
 0002:00005a78       ??_C@_1O@BHHPIGDN@?$AAq?$AAu?$AAz?$AA?9?$AAe?$AAc@ 10025a78     libucrt:lcidtoname_downlevel.obj
 0002:00005a88       ??_C@_1O@GBAPEKMJ@?$AAq?$AAu?$AAz?$AA?9?$AAp?$AAe@ 10025a88     libucrt:lcidtoname_downlevel.obj
 0002:00005a98       ??_C@_1M@CLGLEFBO@?$AAr?$AAo?$AA?9?$AAr?$AAo@ 10025a98     libucrt:lcidtoname_downlevel.obj
 0002:00005aa4       ??_C@_1M@CEEDODME@?$AAr?$AAu?$AA?9?$AAr?$AAu@ 10025aa4     libucrt:lcidtoname_downlevel.obj
 0002:00005ab0       ??_C@_1M@HPKKKMPP@?$AAs?$AAa?$AA?9?$AAi?$AAn@ 10025ab0     libucrt:lcidtoname_downlevel.obj
 0002:00005abc       ??_C@_1M@BKMAIGOJ@?$AAs?$AAe?$AA?9?$AAf?$AAi@ 10025abc     libucrt:lcidtoname_downlevel.obj
 0002:00005ac8       ??_C@_1M@NDPIFLFI@?$AAs?$AAe?$AA?9?$AAn?$AAo@ 10025ac8     libucrt:lcidtoname_downlevel.obj
 0002:00005ad4       ??_C@_1M@DANKKHJ@?$AAs?$AAe?$AA?9?$AAs?$AAe@ 10025ad4     libucrt:lcidtoname_downlevel.obj
 0002:00005ae0       ??_C@_1M@PNBLONPJ@?$AAs?$AAk?$AA?9?$AAs?$AAk@ 10025ae0     libucrt:lcidtoname_downlevel.obj
 0002:00005aec       ??_C@_1M@LFMODOAL@?$AAs?$AAl?$AA?9?$AAs?$AAi@ 10025aec     libucrt:lcidtoname_downlevel.obj
 0002:00005af8       ??_C@_1O@DFKOMPG@?$AAs?$AAm?$AAa?$AA?9?$AAn?$AAo@ 10025af8     libucrt:lcidtoname_downlevel.obj
 0002:00005b08       ??_C@_1O@NDKPBNNH@?$AAs?$AAm?$AAa?$AA?9?$AAs?$AAe@ 10025b08     libucrt:lcidtoname_downlevel.obj
 0002:00005b18       ??_C@_1O@PLLKBHAB@?$AAs?$AAm?$AAj?$AA?9?$AAn?$AAo@ 10025b18     libucrt:lcidtoname_downlevel.obj
 0002:00005b28       ??_C@_1O@CLEPOGCA@?$AAs?$AAm?$AAj?$AA?9?$AAs?$AAe@ 10025b28     libucrt:lcidtoname_downlevel.obj
 0002:00005b38       ??_C@_1O@DLGJGKMK@?$AAs?$AAm?$AAn?$AA?9?$AAf?$AAi@ 10025b38     libucrt:lcidtoname_downlevel.obj
 0002:00005b48       ??_C@_1O@OJDJGAJC@?$AAs?$AAm?$AAs?$AA?9?$AAf?$AAi@ 10025b48     libucrt:lcidtoname_downlevel.obj
 0002:00005b58       ??_C@_1M@BOFOGHPB@?$AAs?$AAq?$AA?9?$AAa?$AAl@ 10025b58     libucrt:lcidtoname_downlevel.obj
 0002:00005b64       ??_C@_1BG@LJBBIPGB@?$AAs?$AAr?$AA?9?$AAb?$AAa?$AA?9?$AAc?$AAy?$AAr?$AAl@ 10025b64     libucrt:lcidtoname_downlevel.obj
 0002:00005b7c       ??_C@_1BG@JLBENFOE@?$AAs?$AAr?$AA?9?$AAb?$AAa?$AA?9?$AAl?$AAa?$AAt?$AAn@ 10025b7c     libucrt:lcidtoname_downlevel.obj
 0002:00005b94       ??_C@_1BG@KODPNHE@?$AAs?$AAr?$AA?9?$AAs?$AAp?$AA?9?$AAc?$AAy?$AAr?$AAl@ 10025b94     libucrt:lcidtoname_downlevel.obj
 0002:00005bac       ??_C@_1BG@CIOGKHPB@?$AAs?$AAr?$AA?9?$AAs?$AAp?$AA?9?$AAl?$AAa?$AAt?$AAn@ 10025bac     libucrt:lcidtoname_downlevel.obj
 0002:00005bc4       ??_C@_1M@NGFJLMAC@?$AAs?$AAv?$AA?9?$AAf?$AAi@ 10025bc4     libucrt:lcidtoname_downlevel.obj
 0002:00005bd0       ??_C@_1M@MPJEJAJC@?$AAs?$AAv?$AA?9?$AAs?$AAe@ 10025bd0     libucrt:lcidtoname_downlevel.obj
 0002:00005bdc       ??_C@_1M@MPNDHLFK@?$AAs?$AAw?$AA?9?$AAk?$AAe@ 10025bdc     libucrt:lcidtoname_downlevel.obj
 0002:00005be8       ??_C@_1O@KOHBJJI@?$AAs?$AAy?$AAr?$AA?9?$AAs?$AAy@ 10025be8     libucrt:lcidtoname_downlevel.obj
 0002:00005bf8       ??_C@_1M@LDCEFHA@?$AAt?$AAa?$AA?9?$AAi?$AAn@ 10025bf8     libucrt:lcidtoname_downlevel.obj
 0002:00005c04       ??_C@_1M@CNJOFAK@?$AAt?$AAe?$AA?9?$AAi?$AAn@ 10025c04     libucrt:lcidtoname_downlevel.obj
 0002:00005c10       ??_C@_1M@GNAECACD@?$AAt?$AAh?$AA?9?$AAt?$AAh@ 10025c10     libucrt:lcidtoname_downlevel.obj
 0002:00005c1c       ??_C@_1M@CHBIHOJO@?$AAt?$AAn?$AA?9?$AAz?$AAa@ 10025c1c     libucrt:lcidtoname_downlevel.obj
 0002:00005c28       ??_C@_1M@GCCMIGPJ@?$AAt?$AAr?$AA?9?$AAt?$AAr@ 10025c28     libucrt:lcidtoname_downlevel.obj
 0002:00005c34       ??_C@_1M@CELMCNBK@?$AAt?$AAt?$AA?9?$AAr?$AAu@ 10025c34     libucrt:lcidtoname_downlevel.obj
 0002:00005c40       ??_C@_1M@KLMCELGA@?$AAu?$AAk?$AA?9?$AAu?$AAa@ 10025c40     libucrt:lcidtoname_downlevel.obj
 0002:00005c4c       ??_C@_1M@EPAJJAJF@?$AAu?$AAr?$AA?9?$AAp?$AAk@ 10025c4c     libucrt:lcidtoname_downlevel.obj
 0002:00005c58       ??_C@_1BG@GEGPMCDJ@?$AAu?$AAz?$AA?9?$AAu?$AAz?$AA?9?$AAc?$AAy?$AAr?$AAl@ 10025c58     libucrt:lcidtoname_downlevel.obj
 0002:00005c70       ??_C@_1BG@EGGKJILM@?$AAu?$AAz?$AA?9?$AAu?$AAz?$AA?9?$AAl?$AAa?$AAt?$AAn@ 10025c70     libucrt:lcidtoname_downlevel.obj
 0002:00005c88       ??_C@_1M@GFOCLFF@?$AAv?$AAi?$AA?9?$AAv?$AAn@ 10025c88     libucrt:lcidtoname_downlevel.obj
 0002:00005c94       ??_C@_1M@CPAMEDFI@?$AAx?$AAh?$AA?9?$AAz?$AAa@ 10025c94     libucrt:lcidtoname_downlevel.obj
 0002:00005ca0       ??_C@_1O@EBKIFIGN@?$AAz?$AAh?$AA?9?$AAc?$AAh?$AAs@ 10025ca0     libucrt:lcidtoname_downlevel.obj
 0002:00005cb0       ??_C@_1O@NMHPGANE@?$AAz?$AAh?$AA?9?$AAc?$AAh?$AAt@ 10025cb0     libucrt:lcidtoname_downlevel.obj
 0002:00005cc0       ??_C@_1M@LPINJOMC@?$AAz?$AAh?$AA?9?$AAc?$AAn@ 10025cc0     libucrt:lcidtoname_downlevel.obj
 0002:00005ccc       ??_C@_1M@OCJEJODD@?$AAz?$AAh?$AA?9?$AAh?$AAk@ 10025ccc     libucrt:lcidtoname_downlevel.obj
 0002:00005cd8       ??_C@_1M@DNDLJINH@?$AAz?$AAh?$AA?9?$AAm?$AAo@ 10025cd8     libucrt:lcidtoname_downlevel.obj
 0002:00005ce4       ??_C@_1M@MBFDNDND@?$AAz?$AAh?$AA?9?$AAs?$AAg@ 10025ce4     libucrt:lcidtoname_downlevel.obj
 0002:00005cf0       ??_C@_1M@IMEPLEPE@?$AAz?$AAh?$AA?9?$AAt?$AAw@ 10025cf0     libucrt:lcidtoname_downlevel.obj
 0002:00005cfc       ??_C@_1M@BBGHNHJP@?$AAz?$AAu?$AA?9?$AAz?$AAa@ 10025cfc     libucrt:lcidtoname_downlevel.obj
 0002:00005d08       ?large_power_data@?1??multiply_by_power_of_ten@__crt_strtox@@YA_NAAUbig_integer@2@I@Z@4QBIB 10025d08     libucrt:cfout.obj
 0002:000066a8       ?small_powers_of_ten@?1??multiply_by_power_of_ten@__crt_strtox@@YA_NAAUbig_integer@2@I@Z@4QBIB 100266a8     libucrt:cfout.obj
 0002:000066cc       ??_C@_01GBGANLPD@0@        100266cc     libucrt:cfout.obj
 0002:000066d0       ??_C@_05DNEBIAHO@1?$CDINF@ 100266d0     libucrt:cfout.obj
 0002:000066d8       ??_C@_06IMKFLFPG@1?$CDQNAN@ 100266d8     libucrt:cfout.obj
 0002:000066e0       ??_C@_06PGGFOGJG@1?$CDSNAN@ 100266e0     libucrt:cfout.obj
 0002:000066e8       ??_C@_05PHHOCPM@1?$CDIND@  100266e8     libucrt:cfout.obj
 0002:00006850       __infinity                 10026850     libucrt:87tran.obj
 0002:0000685a       __minfinity                1002685a     libucrt:87tran.obj
 0002:00006864       __logemax                  10026864     libucrt:87tran.obj
 0002:0000688a       __OP_EXPjmptab             1002688a     libucrt:87tran.obj
 0002:000068b0       __indefinite               100268b0     libucrt:87disp.obj
 0002:000068ba       __piby2                    100268ba     libucrt:87disp.obj
 0002:000068c4       __piby4                    100268c4     libucrt:87disp.obj
 0002:000068f8       __DEFAULT_CW_in_mem        100268f8     libucrt:common.obj
 0002:000068fa       __pi_by_2_to_61            100268fa     libucrt:common.obj
 0002:00006934       ??_C@_03MGHMBJCF@log@      10026934     libucrt:libm_error.obj
 0002:00006938       ??_C@_05HGHHAHAP@log10@    10026938     libucrt:libm_error.obj
 0002:00006940       ??_C@_03KHJOGHMM@exp@      10026940     libucrt:libm_error.obj
 0002:00006944       ??_C@_03JGHBODFD@pow@      10026944     libucrt:libm_error.obj
 0002:00006948       ??_C@_04FIHNOPOL@asin@     10026948     libucrt:libm_error.obj
 0002:00006950       ??_C@_04PDIFKINK@acos@     10026950     libucrt:libm_error.obj
 0002:00006958       ??_C@_04EIAKFFMI@sqrt@     10026958     libucrt:libm_error.obj
 0002:00006960       __real@3ff0000000000000    10026960     libucrt:libm_error.obj
 0002:00006968       ??_C@_1BA@BALFACEM@?$AAC?$AAO?$AAN?$AAO?$AAU?$AAT?$AA$@ 10026968     libucrt:initcon.obj
 0002:00006990       ___acrt_log10_table_t      10026990     libucrt:log10_tables.obj
 0002:00006da0       ___acrt_log10_table_cb     10026da0     libucrt:log10_tables.obj
 0002:000071b0       __real@3fe0000000000000    100271b0     libucrt:powhlp.obj
 0002:000072a0       ??_C@_04COOMCNPB@sinh@     100272a0     libucrt:fpexcept.obj
 0002:000072a8       ??_C@_04HPJJNFIM@cosh@     100272a8     libucrt:fpexcept.obj
 0002:000072b0       ??_C@_04FJHINJAO@tanh@     100272b0     libucrt:fpexcept.obj
 0002:000072b8       ??_C@_04MLLJIGOK@atan@     100272b8     libucrt:fpexcept.obj
 0002:000072c0       ??_C@_05KNGEOGJB@atan2@    100272c0     libucrt:fpexcept.obj
 0002:000072c8       ??_C@_03BLEJJJBH@sin@      100272c8     libucrt:fpexcept.obj
 0002:000072cc       ??_C@_03LALBNOCG@cos@      100272cc     libucrt:fpexcept.obj
 0002:000072d0       ??_C@_03IIINPABG@tan@      100272d0     libucrt:fpexcept.obj
 0002:000072d4       ??_C@_04GFPJNGEK@ceil@     100272d4     libucrt:fpexcept.obj
 0002:000072dc       ??_C@_05PBJFFIGL@floor@    100272dc     libucrt:fpexcept.obj
 0002:000072e4       ??_C@_04ODHECPBC@fabs@     100272e4     libucrt:fpexcept.obj
 0002:000072ec       ??_C@_04EHEDPDJG@modf@     100272ec     libucrt:fpexcept.obj
 0002:000072f4       ??_C@_05CEJMAHNP@ldexp@    100272f4     libucrt:fpexcept.obj
 0002:000072fc       ??_C@_05KBKMEMPO@_cabs@    100272fc     libucrt:fpexcept.obj
 0002:00007304       ??_C@_06MEIMCGCF@_hypot@   10027304     libucrt:fpexcept.obj
 0002:0000730c       ??_C@_04KEPJIHGP@fmod@     1002730c     libucrt:fpexcept.obj
 0002:00007314       ??_C@_05GKKHEGJL@frexp@    10027314     libucrt:fpexcept.obj
 0002:0000731c       ??_C@_03MJLDFKDL@_y0@      1002731c     libucrt:fpexcept.obj
 0002:00007320       ??_C@_03NAKIGLHK@_y1@      10027320     libucrt:fpexcept.obj
 0002:00007324       ??_C@_03ONILCKOB@_yn@      10027324     libucrt:fpexcept.obj
 0002:00007328       ??_C@_05JGDBENOH@_logb@    10027328     libucrt:fpexcept.obj
 0002:00007330       ??_C@_0L@KDOEJCKC@_nextafter@ 10027330     libucrt:fpexcept.obj
 0002:00007340       __d_inf                    10027340     libucrt:util.obj
 0002:00007348       __d_max                    10027348     libucrt:util.obj
 0002:00007350       __d_mzero                  10027350     libucrt:util.obj
 0002:000073c8       __load_config_used         100273c8     LIBCMT:loadcfg.obj
 0002:0000746c       __tls_used                 1002746c     LIBCMT:tlssup.obj
 0002:00007484       ??_R4exception@std@@6B@    10027484     LIBCMT:throw_bad_alloc.obj
 0002:00007498       ??_R3exception@std@@8      10027498     LIBCMT:throw_bad_alloc.obj
 0002:000074a8       ??_R2exception@std@@8      100274a8     LIBCMT:throw_bad_alloc.obj
 0002:000074b0       ??_R1A@?0A@EA@exception@std@@8 100274b0     LIBCMT:throw_bad_alloc.obj
 0002:000074cc       ??_R4bad_alloc@std@@6B@    100274cc     LIBCMT:throw_bad_alloc.obj
 0002:000074e0       ??_R3bad_alloc@std@@8      100274e0     LIBCMT:throw_bad_alloc.obj
 0002:000074f0       ??_R2bad_alloc@std@@8      100274f0     LIBCMT:throw_bad_alloc.obj
 0002:000074fc       ??_R1A@?0A@EA@bad_alloc@std@@8 100274fc     LIBCMT:throw_bad_alloc.obj
 0002:00007518       ??_R4bad_array_new_length@std@@6B@ 10027518     LIBCMT:throw_bad_alloc.obj
 0002:0000752c       ??_R3bad_array_new_length@std@@8 1002752c     LIBCMT:throw_bad_alloc.obj
 0002:0000753c       ??_R2bad_array_new_length@std@@8 1002753c     LIBCMT:throw_bad_alloc.obj
 0002:0000754c       ??_R1A@?0A@EA@bad_array_new_length@std@@8 1002754c     LIBCMT:throw_bad_alloc.obj
 0002:00007568       ??_R4type_info@@6B@        10027568     LIBCMT:std_type_info_static.obj
 0002:0000757c       ??_R3type_info@@8          1002757c     LIBCMT:std_type_info_static.obj
 0002:0000758c       ??_R2type_info@@8          1002758c     LIBCMT:std_type_info_static.obj
 0002:00007594       ??_R1A@?0A@EA@type_info@@8 10027594     LIBCMT:std_type_info_static.obj
 0002:000075b0       ??_R4bad_exception@std@@6B@ 100275b0     libvcruntime:frame.obj
 0002:000075c4       ??_R3bad_exception@std@@8  100275c4     libvcruntime:frame.obj
 0002:000075d4       ??_R2bad_exception@std@@8  100275d4     libvcruntime:frame.obj
 0002:000075e0       ??_R1A@?0A@EA@bad_exception@std@@8 100275e0     libvcruntime:frame.obj
 0002:00007600       ___safe_se_handler_table   10027600     <linker-defined>
 0002:000079f4       ___rtc_iaa                 100279f4     LIBCMT:initsect.obj
 0002:000079f8       ___rtc_izz                 100279f8     LIBCMT:initsect.obj
 0002:000079fc       ___rtc_taa                 100279fc     LIBCMT:initsect.obj
 0002:00007a00       ___rtc_tzz                 10027a00     LIBCMT:initsect.obj
 0002:00007a04       __tls_start                10027a04     LIBCMT:tlssup.obj
 0002:00007a08       __Init_thread_epoch        10027a08     LIBCMT:thread_safe_statics.obj
 0002:00007a0c       __tls_end                  10027a0c     LIBCMT:tlssup.obj
 0002:00007b0c       __TI2?AVbad_alloc@std@@    10027b0c     LIBCMT:throw_bad_alloc.obj
 0002:00007b1c       __CTA2?AVbad_alloc@std@@   10027b1c     LIBCMT:throw_bad_alloc.obj
 0002:00007b28       __CT??_R0?AVbad_alloc@std@@@8??0bad_alloc@std@@QAE@ABV01@@Z12 10027b28     LIBCMT:throw_bad_alloc.obj
 0002:00007b44       __CT??_R0?AVexception@std@@@8??0exception@std@@QAE@ABV01@@Z12 10027b44     LIBCMT:throw_bad_alloc.obj
 0002:00007b60       __TI3?AVbad_array_new_length@std@@ 10027b60     LIBCMT:throw_bad_alloc.obj
 0002:00007b70       __CTA3?AVbad_array_new_length@std@@ 10027b70     LIBCMT:throw_bad_alloc.obj
 0002:00007b80       __CT??_R0?AVbad_array_new_length@std@@@8??0bad_array_new_length@std@@QAE@ABV01@@Z12 10027b80     LIBCMT:throw_bad_alloc.obj
 0002:00007ca4       __TI2?AVbad_exception@std@@ 10027ca4     libvcruntime:frame.obj
 0002:00007cb4       __CTA2?AVbad_exception@std@@ 10027cb4     libvcruntime:frame.obj
 0002:00007cc0       __CT??_R0?AVbad_exception@std@@@8??0bad_exception@std@@QAE@ABV01@@Z12 10027cc0     libvcruntime:frame.obj
 0002:0000801c       ___pobjMapEntryFirst       1002801c     OposVariant.obj
 0002:00008020       ___pobjMapEntryLast        10028020     OposVariant.obj
 0002:000080d4       __IMPORT_DESCRIPTOR_KERNEL32 100280d4     kernel32:KERNEL32.dll
 0002:000080e8       __IMPORT_DESCRIPTOR_USER32 100280e8     user32:USER32.dll
 0002:000080fc       __IMPORT_DESCRIPTOR_GDI32  100280fc     gdi32:GDI32.dll
 0002:00008110       __IMPORT_DESCRIPTOR_ADVAPI32 10028110     advapi32:ADVAPI32.dll
 0002:00008124       __IMPORT_DESCRIPTOR_ole32  10028124     ole32:ole32.dll
 0002:00008138       __IMPORT_DESCRIPTOR_OLEAUT32 10028138     oleaut32:OLEAUT32.dll
 0002:0000814c       __NULL_IMPORT_DESCRIPTOR   1002814c     kernel32:KERNEL32.dll
 0003:00000000       ?s_Claim@?7??GetIDsOfNames@CComTypeInfoHolder@ATL@@QAEJABU_GUID@@PAPA_WIKPAJ@Z@4PA_WA 1002a000     MSR.obj
 0003:00000018       ?s_Release@?7??GetIDsOfNames@CComTypeInfoHolder@ATL@@QAEJABU_GUID@@PAPA_WIKPAJ@Z@4PA_WA 1002a018     MSR.obj
 0003:00000034       ?_tih@?$IDispatchImpl@UIOPOSMSR@@$1?IID_IOPOSMSR@@3U_GUID@@B$1?LIBID_OposMSR_CCO@@3U3@B$00$0A@VCComTypeInfoHolder@ATL@@@ATL@@1VCComTypeInfoHolder@2@A 1002a034     MSR.obj
 0003:00000050       ?_tih@?$IProvideClassInfo2Impl@$1?CLSID_OPOSMSR@@3U_GUID@@B$1?DIID__IOPOSMSREvents@@3U2@B$1?LIBID_OposMSR_CCO@@3U2@B$00$0A@VCComTypeInfoHolder@ATL@@@ATL@@1VCComTypeInfoHolder@2@A 1002a050     MSR.obj
 0003:0000006c       ?vszContents@?6??Save@?$IPersistStorageImpl@VCOPOSMSR@@@ATL@@UAGJPAUIStorage@@H@Z@4PB_WB 1002a06c     MSR.obj
 0003:00000070       ?wc@?1??GetWndClassInfo@?$CWindowImpl@VCOPOSMSR@@VCWindow@ATL@@V?$CWinTraits@$0FGAAAAAA@$0A@@3@@ATL@@SAAAU_ATL_WNDCLASSINFOW@3@XZ@4U43@A 1002a070     MSR.obj
 0003:000000fc       ?rcDefault@CWindow@ATL@@2UtagRECT@@A 1002a0fc     MSR.obj
 0003:00000158       ?g_WindowName@@3PA_WA      1002a158     MSRImpl.obj
 0003:00000170       ?g_ControlDescription@@3PADA 1002a170     MSRImpl.obj
 0003:000001b4       ?g_ControlVersion@@3JA     1002a1b4     MSRImpl.obj
 0003:00000250       ___scrt_native_dllmain_reason 1002a250     LIBCMT:utility.obj
 0003:00000254       __Init_global_epoch        1002a254     LIBCMT:thread_safe_statics.obj
 0003:00000260       ___security_cookie_complement 1002a260     LIBCMT:gs_cookie.obj
 0003:00000264       ___security_cookie         1002a264     LIBCMT:gs_cookie.obj
 0003:00000268       ___isa_enabled             1002a268     LIBCMT:cpu_disp.obj
 0003:00000280       __NLG_Destination          1002a280     libvcruntime:exsup.obj
 0003:00000298       ___abort_behavior          1002a298     libucrt:abort.obj
 0003:000002a8       __iob                      1002a2a8     libucrt:_file.obj
 0003:00000350       ___acrt_initial_locale_data 1002a350     libucrt:nlsdata.obj
 0003:00000408       ___acrt_initial_locale_pointers 1002a408     libucrt:nlsdata.obj
 0003:00000410       ___acrt_wide_c_locale_string 1002a410     libucrt:nlsdata.obj
 0003:00000418       ___acrt_initial_multibyte_data 1002a418     libucrt:mbctype.obj
 0003:00000938       __pwctype                  1002a938     libucrt:ctype.obj
 0003:0000093c       ___globallocalestatus      1002a93c     libucrt:glstatus.obj
 0003:00000940       ___acrt_lconv_c            1002a940     libucrt:localeconv.obj
 0003:00000990       ___acrt_lconv_static_decimal 1002a990     libucrt:localeconv.obj
 0003:00000994       ___acrt_lconv_static_W_decimal 1002a994     libucrt:localeconv.obj
 0003:000009a0       __lookuptrailbytes         1002a9a0     libucrt:read.obj
 0003:00000ab0       __fltused                  1002aab0     LIBCMT:fltused.obj
 0003:00000ac0       ??_R0?AVbad_alloc@std@@@8  1002aac0     LIBCMT:throw_bad_alloc.obj
 0003:00000adc       ??_R0?AVexception@std@@@8  1002aadc     LIBCMT:throw_bad_alloc.obj
 0003:00000af8       ??_R0?AVbad_array_new_length@std@@@8 1002aaf8     LIBCMT:throw_bad_alloc.obj
 0003:00000b20       ??_R0?AVtype_info@@@8      1002ab20     LIBCMT:std_type_info_static.obj
 0003:00000b38       ??_R0?AVbad_exception@std@@@8 1002ab38     libvcruntime:frame.obj
 0003:00000b58       ?_pPerfRegFunc@ATL@@3P6AJPAUHINSTANCE__@@@ZA 1002ab58     OposVariant.obj
 0003:00000b5c       ?_pPerfUnRegFunc@ATL@@3P6AJXZA 1002ab5c     OposVariant.obj
 0003:00000b60       ?_AtlRegisterPerUser@ATL@@3_NA 1002ab60     OposVariant.obj
 0003:00000b64       ?_pAtlModule@ATL@@3PAVCAtlModule@1@A 1002ab64     OposVariant.obj
 0003:00000b68       ?_pModule@ATL@@3PAVCComModule@1@A 1002ab68     OposVariant.obj
 0003:00000b6c       ?m_bInitFailed@CAtlBaseModule@ATL@@2_NA 1002ab6c     OposVariant.obj
 0003:00000b70       ?_AtlComModule@ATL@@3VCAtlComModule@1@A 1002ab70     OposVariant.obj
 0003:00000b98       ?_AtlWinModule@ATL@@3VCAtlWinModule@1@A 1002ab98     OposVariant.obj
 0003:00000bc4       ?m_libid@CAtlModule@ATL@@2U_GUID@@A 1002abc4     MSR.obj
 0003:00000bd4       ?_entries@?1??GetConnMap@COPOSMSR@@SAPBU_ATL_CONNMAP_ENTRY@ATL@@PAH@Z@4QBU34@B 1002abd4     MSR.obj
 0003:00000be0       ?$TSS0@?1??GetConnMap@COPOSMSR@@SAPBU_ATL_CONNMAP_ENTRY@ATL@@PAH@Z@4HA 1002abe0     MSR.obj
 0003:00000be8       ?_OptionsStorage@?1??__local_stdio_printf_options@@9@4_KA 1002abe8     MSR.obj
 0003:00000bf0       ?pfnRegDeleteKeyEx@?1??DeleteSubKey@CRegKey@ATL@@QAEJPB_W@Z@4P6GJPAUHKEY__@@0KK@ZA 1002abf0     MSR.obj
 0003:00000bf4       ?bInitialized@?1??DeleteSubKey@CRegKey@ATL@@QAEJPB_W@Z@4_NA 1002abf4     MSR.obj
 0003:00000bf8       ?_Module@@3VCComModule@ATL@@A 1002abf8     MSR.obj
 0003:00000c28       ?pConnMap@?$IConnectionPointContainerImpl@VCOPOSMSR@@@ATL@@0PBU_ATL_CONNMAP_ENTRY@2@B 1002ac28     MSR.obj
 0003:00000c2c       ?s_nInstances@COPOSMSR@@1HA 1002ac2c     MSRImpl.obj
 0003:00000c30       ___scrt_current_native_startup_state 1002ac30     LIBCMT:utility.obj
 0003:00000c34       ___scrt_native_startup_lock 1002ac34     LIBCMT:utility.obj
 0003:00000f9c       __tls_index                1002af9c     LIBCMT:tlssup.obj
 0003:00000fa4       ___isa_available           1002afa4     LIBCMT:cpu_disp.obj
 0003:00000fa8       ___favor                   1002afa8     LIBCMT:cpu_disp.obj
 0003:00000fac       ___scrt_debugger_hook_flag 1002afac     LIBCMT:utility_desktop.obj
 0003:00000fb0       ?__type_info_root_node@@3U__type_info_node@@A 1002afb0     LIBCMT:tncleanup.obj
 0003:00000fb8       ?_OptionsStorage@?1??__local_stdio_scanf_options@@9@4_KA 1002afb8     LIBCMT:default_local_stdio_options.obj
 0003:00000fc0       ?_AtlBaseModule@ATL@@3VCAtlBaseModule@1@A 1002afc0     atls:atlbase.obj
 0003:00000ff8       ?__AtlThunkPool@@3PAT_SLIST_HEADER@@A 1002aff8     atls:atlthunk.obj
 0003:00001010       ___@@_PchSym_@00@UztvmgUPdlipUGUhUrmgvinvwrzgvUexgllohUzgohOmzgrevkilqPBACIAJCBDBUlyqiUcIGUhgwzucOlyq@4B2008FD98C1DD4 1002b010     atls:stdafx.obj
 0003:00001014       ?__WinRTOutOfMemoryExceptionCallback@@3P6GPAXXZA 1002b014     libvcruntime:ehhelpers.obj
 0003:00001018       ___pPurecall               1002b018     libvcruntime:purevirt_data.obj
 0003:00001060       ?pArgList@UnDecorator@@0PAVReplicator@@A 1002b060     libvcruntime:undname.obj
 0003:00001064       ?pZNameList@UnDecorator@@0PAVReplicator@@A 1002b064     libvcruntime:undname.obj
 0003:00001068       ?pTemplateArgList@UnDecorator@@0PAVReplicator@@A 1002b068     libvcruntime:undname.obj
 0003:0000106c       ?gName@UnDecorator@@0PBDB  1002b06c     libvcruntime:undname.obj
 0003:00001070       ?name@UnDecorator@@0PBDB   1002b070     libvcruntime:undname.obj
 0003:00001074       ?disableFlags@UnDecorator@@0KA 1002b074     libvcruntime:undname.obj
 0003:00001078       ?fExplicitTemplateParams@UnDecorator@@0_NA 1002b078     libvcruntime:undname.obj
 0003:00001079       ?fGetTemplateArgumentList@UnDecorator@@0_NA 1002b079     libvcruntime:undname.obj
 0003:0000107c       ?m_pGetParameter@UnDecorator@@0P6APADJ@ZA 1002b07c     libvcruntime:undname.obj
 0003:00001080       ?m_CHPENameOffset@UnDecorator@@0KA 1002b080     libvcruntime:undname.obj
 0003:00001084       ?m_recursionLevel@UnDecorator@@0KA 1002b084     libvcruntime:undname.obj
 0003:000010c8       ?c_exit_complete@?1???R<lambda_6e4b09c48022b2350581041d5f6b0c4c>@@QBE@XZ@4_NA 1002b0c8     libucrt:exit.obj
 0003:000011d8       __environ_table            1002b1d8     libucrt:environment_initialization.obj
 0003:000011dc       __wenviron_table           1002b1dc     libucrt:environment_initialization.obj
 0003:000011e0       ___dcrt_initial_wide_environment 1002b1e0     libucrt:environment_initialization.obj
 0003:000011e4       ___dcrt_initial_narrow_environment 1002b1e4     libucrt:environment_initialization.obj
 0003:000011e8       ___acrt_atexit_table       1002b1e8     libucrt:onexit.obj
 0003:000011f4       ___acrt_at_quick_exit_table 1002b1f4     libucrt:onexit.obj
 0003:000012e8       __nstream                  1002b2e8     libucrt:_file.obj
 0003:000012ec       ___piob                    1002b2ec     libucrt:_file.obj
 0003:000012f4       ___acrt_stdout_buffer      1002b2f4     libucrt:_sftbuf.obj
 0003:000012f8       ___acrt_stderr_buffer      1002b2f8     libucrt:_sftbuf.obj
 0003:000012fc       ___acrt_locale_changed_data 1002b2fc     libucrt:wsetlocale.obj
 0003:00001300       ___acrt_current_locale_data 1002b300     libucrt:nlsdata.obj
 0003:00001308       ___pioinfo                 1002b308     libucrt:ioinit.obj
 0003:00001508       __nhandle                  1002b508     libucrt:ioinit.obj
 0003:00001664       __mbctype                  1002b664     libucrt:mbctype.obj
 0003:00001668       __mbcasemap                1002b668     libucrt:mbctype.obj
 0003:0000166c       ___acrt_current_multibyte_data 1002b66c     libucrt:mbctype.obj
 0003:00001678       __pgmptr                   1002b678     libucrt:argv_data.obj
 0003:0000167c       ___argc                    1002b67c     libucrt:argv_data.obj
 0003:00001680       ___argv                    1002b680     libucrt:argv_data.obj
 0003:00001684       ___wargv                   1002b684     libucrt:argv_data.obj
 0003:00001688       __acmdln                   1002b688     libucrt:argv_data.obj
 0003:0000168c       __wcmdln                   1002b68c     libucrt:argv_data.obj
 0003:00001690       ___acrt_heap               1002b690     libucrt:heap_handle.obj
 0003:000016ac       ___acrt_lconv_static_null  1002b6ac     libucrt:localeconv.obj
 0003:000016b0       ___acrt_lconv_static_W_null 1002b6b0     libucrt:localeconv.obj
 0003:000016c0       ___fastflag                1002b6c0     libucrt:fp_flags.obj
 0003:000016c8       ___dyn_tls_init_callback   1002b6c8     <common>
 0003:000016cc       ___scrt_ucrt_dll_is_in_use 1002b6cc     <common>
 0003:000016d0       __pmatherr                 1002b6d0     <common>
 0003:000016d4       ___use_sse2_mathfcns       1002b6d4     <common>

 entry point at        0001:0000c528

 Static symbols

 0000:fffcc000       .debug$S                   10000000     OPOSMSR.exp
 0000:fffcc000       .debug$S                   10000000     advapi32:ADVAPI32.dll
 0000:fffcc000       .debug$S                   10000000     advapi32:ADVAPI32.dll
 0000:fffcc000       .debug$S                   10000000     advapi32:ADVAPI32.dll
 0000:fffcc000       .debug$S                   10000000     advapi32:ADVAPI32.dll
 0000:fffcc000       .debug$S                   10000000     advapi32:ADVAPI32.dll
 0000:fffcc000       .debug$S                   10000000     advapi32:ADVAPI32.dll
 0000:fffcc000       .debug$S                   10000000     advapi32:ADVAPI32.dll
 0000:fffcc000       .debug$S                   10000000     advapi32:ADVAPI32.dll
 0000:fffcc000       .debug$S                   10000000     advapi32:ADVAPI32.dll
 0000:fffcc000       .debug$S                   10000000     gdi32:GDI32.dll
 0000:fffcc000       .debug$S                   10000000     gdi32:GDI32.dll
 0000:fffcc000       .debug$S                   10000000     gdi32:GDI32.dll
 0000:fffcc000       .debug$S                   10000000     gdi32:GDI32.dll
 0000:fffcc000       .debug$S                   10000000     gdi32:GDI32.dll
 0000:fffcc000       .debug$S                   10000000     gdi32:GDI32.dll
 0000:fffcc000       .debug$S                   10000000     gdi32:GDI32.dll
 0000:fffcc000       .debug$S                   10000000     gdi32:GDI32.dll
 0000:fffcc000       .debug$S                   10000000     gdi32:GDI32.dll
 0000:fffcc000       .debug$S                   10000000     gdi32:GDI32.dll
 0000:fffcc000       .debug$S                   10000000     gdi32:GDI32.dll
 0000:fffcc000       .debug$S                   10000000     gdi32:GDI32.dll
 0000:fffcc000       .debug$S                   10000000     gdi32:GDI32.dll
 0000:fffcc000       .debug$S                   10000000     gdi32:GDI32.dll
 0000:fffcc000       .debug$S                   10000000     gdi32:GDI32.dll
 0000:fffcc000       .debug$S                   10000000     gdi32:GDI32.dll
 0000:fffcc000       .debug$S                   10000000     gdi32:GDI32.dll
 0000:fffcc000       .debug$S                   10000000     gdi32:GDI32.dll
 0000:fffcc000       .debug$S                   10000000     gdi32:GDI32.dll
 0000:fffcc000       .debug$S                   10000000     kernel32:KERNEL32.dll
 0000:fffcc000       .debug$S                   10000000     kernel32:KERNEL32.dll
 0000:fffcc000       .debug$S                   10000000     kernel32:KERNEL32.dll
 0000:fffcc000       .debug$S                   10000000     kernel32:KERNEL32.dll
 0000:fffcc000       .debug$S                   10000000     kernel32:KERNEL32.dll
 0000:fffcc000       .debug$S                   10000000     kernel32:KERNEL32.dll
 0000:fffcc000       .debug$S                   10000000     kernel32:KERNEL32.dll
 0000:fffcc000       .debug$S                   10000000     kernel32:KERNEL32.dll
 0000:fffcc000       .debug$S                   10000000     kernel32:KERNEL32.dll
 0000:fffcc000       .debug$S                   10000000     kernel32:KERNEL32.dll
 0000:fffcc000       .debug$S                   10000000     kernel32:KERNEL32.dll
 0000:fffcc000       .debug$S                   10000000     kernel32:KERNEL32.dll
 0000:fffcc000       .debug$S                   10000000     kernel32:KERNEL32.dll
 0000:fffcc000       .debug$S                   10000000     kernel32:KERNEL32.dll
 0000:fffcc000       .debug$S                   10000000     kernel32:KERNEL32.dll
 0000:fffcc000       .debug$S                   10000000     kernel32:KERNEL32.dll
 0000:fffcc000       .debug$S                   10000000     kernel32:KERNEL32.dll
 0000:fffcc000       .debug$S                   10000000     kernel32:KERNEL32.dll
 0000:fffcc000       .debug$S                   10000000     kernel32:KERNEL32.dll
 0000:fffcc000       .debug$S                   10000000     kernel32:KERNEL32.dll
 0000:fffcc000       .debug$S                   10000000     kernel32:KERNEL32.dll
 0000:fffcc000       .debug$S                   10000000     kernel32:KERNEL32.dll
 0000:fffcc000       .debug$S                   10000000     kernel32:KERNEL32.dll
 0000:fffcc000       .debug$S                   10000000     kernel32:KERNEL32.dll
 0000:fffcc000       .debug$S                   10000000     kernel32:KERNEL32.dll
 0000:fffcc000       .debug$S                   10000000     kernel32:KERNEL32.dll
 0000:fffcc000       .debug$S                   10000000     kernel32:KERNEL32.dll
 0000:fffcc000       .debug$S                   10000000     kernel32:KERNEL32.dll
 0000:fffcc000       .debug$S                   10000000     kernel32:KERNEL32.dll
 0000:fffcc000       .debug$S                   10000000     kernel32:KERNEL32.dll
 0000:fffcc000       .debug$S                   10000000     kernel32:KERNEL32.dll
 0000:fffcc000       .debug$S                   10000000     kernel32:KERNEL32.dll
 0000:fffcc000       .debug$S                   10000000     kernel32:KERNEL32.dll
 0000:fffcc000       .debug$S                   10000000     kernel32:KERNEL32.dll
 0000:fffcc000       .debug$S                   10000000     kernel32:KERNEL32.dll
 0000:fffcc000       .debug$S                   10000000     kernel32:KERNEL32.dll
 0000:fffcc000       .debug$S                   10000000     kernel32:KERNEL32.dll
 0000:fffcc000       .debug$S                   10000000     kernel32:KERNEL32.dll
 0000:fffcc000       .debug$S                   10000000     kernel32:KERNEL32.dll
 0000:fffcc000       .debug$S                   10000000     kernel32:KERNEL32.dll
 0000:fffcc000       .debug$S                   10000000     kernel32:KERNEL32.dll
 0000:fffcc000       .debug$S                   10000000     kernel32:KERNEL32.dll
 0000:fffcc000       .debug$S                   10000000     kernel32:KERNEL32.dll
 0000:fffcc000       .debug$S                   10000000     kernel32:KERNEL32.dll
 0000:fffcc000       .debug$S                   10000000     kernel32:KERNEL32.dll
 0000:fffcc000       .debug$S                   10000000     kernel32:KERNEL32.dll
 0000:fffcc000       .debug$S                   10000000     kernel32:KERNEL32.dll
 0000:fffcc000       .debug$S                   10000000     kernel32:KERNEL32.dll
 0000:fffcc000       .debug$S                   10000000     kernel32:KERNEL32.dll
 0000:fffcc000       .debug$S                   10000000     kernel32:KERNEL32.dll
 0000:fffcc000       .debug$S                   10000000     kernel32:KERNEL32.dll
 0000:fffcc000       .debug$S                   10000000     kernel32:KERNEL32.dll
 0000:fffcc000       .debug$S                   10000000     kernel32:KERNEL32.dll
 0000:fffcc000       .debug$S                   10000000     kernel32:KERNEL32.dll
 0000:fffcc000       .debug$S                   10000000     kernel32:KERNEL32.dll
 0000:fffcc000       .debug$S                   10000000     kernel32:KERNEL32.dll
 0000:fffcc000       .debug$S                   10000000     kernel32:KERNEL32.dll
 0000:fffcc000       .debug$S                   10000000     kernel32:KERNEL32.dll
 0000:fffcc000       .debug$S                   10000000     kernel32:KERNEL32.dll
 0000:fffcc000       .debug$S                   10000000     kernel32:KERNEL32.dll
 0000:fffcc000       .debug$S                   10000000     kernel32:KERNEL32.dll
 0000:fffcc000       .debug$S                   10000000     kernel32:KERNEL32.dll
 0000:fffcc000       .debug$S                   10000000     kernel32:KERNEL32.dll
 0000:fffcc000       .debug$S                   10000000     kernel32:KERNEL32.dll
 0000:fffcc000       .debug$S                   10000000     kernel32:KERNEL32.dll
 0000:fffcc000       .debug$S                   10000000     kernel32:KERNEL32.dll
 0000:fffcc000       .debug$S                   10000000     kernel32:KERNEL32.dll
 0000:fffcc000       .debug$S                   10000000     kernel32:KERNEL32.dll
 0000:fffcc000       .debug$S                   10000000     kernel32:KERNEL32.dll
 0000:fffcc000       .debug$S                   10000000     kernel32:KERNEL32.dll
 0000:fffcc000       .debug$S                   10000000     kernel32:KERNEL32.dll
 0000:fffcc000       .debug$S                   10000000     kernel32:KERNEL32.dll
 0000:fffcc000       .debug$S                   10000000     kernel32:KERNEL32.dll
 0000:fffcc000       .debug$S                   10000000     kernel32:KERNEL32.dll
 0000:fffcc000       .debug$S                   10000000     kernel32:KERNEL32.dll
 0000:fffcc000       .debug$S                   10000000     kernel32:KERNEL32.dll
 0000:fffcc000       .debug$S                   10000000     kernel32:KERNEL32.dll
 0000:fffcc000       .debug$S                   10000000     kernel32:KERNEL32.dll
 0000:fffcc000       .debug$S                   10000000     kernel32:KERNEL32.dll
 0000:fffcc000       .debug$S                   10000000     kernel32:KERNEL32.dll
 0000:fffcc000       .debug$S                   10000000     kernel32:KERNEL32.dll
 0000:fffcc000       .debug$S                   10000000     kernel32:KERNEL32.dll
 0000:fffcc000       .debug$S                   10000000     kernel32:KERNEL32.dll
 0000:fffcc000       .debug$S                   10000000     kernel32:KERNEL32.dll
 0000:fffcc000       .debug$S                   10000000     kernel32:KERNEL32.dll
 0000:fffcc000       .debug$S                   10000000     kernel32:KERNEL32.dll
 0000:fffcc000       .debug$S                   10000000     kernel32:KERNEL32.dll
 0000:fffcc000       .debug$S                   10000000     kernel32:KERNEL32.dll
 0000:fffcc000       .debug$S                   10000000     kernel32:KERNEL32.dll
 0000:fffcc000       .debug$S                   10000000     kernel32:KERNEL32.dll
 0000:fffcc000       .debug$S                   10000000     kernel32:KERNEL32.dll
 0000:fffcc000       .debug$S                   10000000     kernel32:KERNEL32.dll
 0000:fffcc000       .debug$S                   10000000     kernel32:KERNEL32.dll
 0000:fffcc000       .debug$S                   10000000     kernel32:KERNEL32.dll
 0000:fffcc000       .debug$S                   10000000     kernel32:KERNEL32.dll
 0000:fffcc000       .debug$S                   10000000     kernel32:KERNEL32.dll
 0000:fffcc000       .debug$S                   10000000     kernel32:KERNEL32.dll
 0000:fffcc000       .debug$S                   10000000     kernel32:KERNEL32.dll
 0000:fffcc000       .debug$S                   10000000     kernel32:KERNEL32.dll
 0000:fffcc000       .debug$S                   10000000     kernel32:KERNEL32.dll
 0000:fffcc000       .debug$S                   10000000     kernel32:KERNEL32.dll
 0000:fffcc000       .debug$S                   10000000     kernel32:KERNEL32.dll
 0000:fffcc000       .debug$S                   10000000     kernel32:KERNEL32.dll
 0000:fffcc000       .debug$S                   10000000     kernel32:KERNEL32.dll
 0000:fffcc000       .debug$S                   10000000     kernel32:KERNEL32.dll
 0000:fffcc000       .debug$S                   10000000     kernel32:KERNEL32.dll
 0000:fffcc000       .debug$S                   10000000     ole32:ole32.dll
 0000:fffcc000       .debug$S                   10000000     ole32:ole32.dll
 0000:fffcc000       .debug$S                   10000000     ole32:ole32.dll
 0000:fffcc000       .debug$S                   10000000     ole32:ole32.dll
 0000:fffcc000       .debug$S                   10000000     ole32:ole32.dll
 0000:fffcc000       .debug$S                   10000000     ole32:ole32.dll
 0000:fffcc000       .debug$S                   10000000     ole32:ole32.dll
 0000:fffcc000       .debug$S                   10000000     ole32:ole32.dll
 0000:fffcc000       .debug$S                   10000000     ole32:ole32.dll
 0000:fffcc000       .debug$S                   10000000     ole32:ole32.dll
 0000:fffcc000       .debug$S                   10000000     ole32:ole32.dll
 0000:fffcc000       .debug$S                   10000000     ole32:ole32.dll
 0000:fffcc000       .debug$S                   10000000     ole32:ole32.dll
 0000:fffcc000       .debug$S                   10000000     ole32:ole32.dll
 0000:fffcc000       .debug$S                   10000000     oleaut32:OLEAUT32.dll
 0000:fffcc000       .debug$S                   10000000     oleaut32:OLEAUT32.dll
 0000:fffcc000       .debug$S                   10000000     oleaut32:OLEAUT32.dll
 0000:fffcc000       .debug$S                   10000000     oleaut32:OLEAUT32.dll
 0000:fffcc000       .debug$S                   10000000     oleaut32:OLEAUT32.dll
 0000:fffcc000       .debug$S                   10000000     oleaut32:OLEAUT32.dll
 0000:fffcc000       .debug$S                   10000000     oleaut32:OLEAUT32.dll
 0000:fffcc000       .debug$S                   10000000     oleaut32:OLEAUT32.dll
 0000:fffcc000       .debug$S                   10000000     oleaut32:OLEAUT32.dll
 0000:fffcc000       .debug$S                   10000000     oleaut32:OLEAUT32.dll
 0000:fffcc000       .debug$S                   10000000     oleaut32:OLEAUT32.dll
 0000:fffcc000       .debug$S                   10000000     oleaut32:OLEAUT32.dll
 0000:fffcc000       .debug$S                   10000000     oleaut32:OLEAUT32.dll
 0000:fffcc000       .debug$S                   10000000     oleaut32:OLEAUT32.dll
 0000:fffcc000       .debug$S                   10000000     oleaut32:OLEAUT32.dll
 0000:fffcc000       .debug$S                   10000000     oleaut32:OLEAUT32.dll
 0000:fffcc000       .debug$S                   10000000     user32:USER32.dll
 0000:fffcc000       .debug$S                   10000000     user32:USER32.dll
 0000:fffcc000       .debug$S                   10000000     user32:USER32.dll
 0000:fffcc000       .debug$S                   10000000     user32:USER32.dll
 0000:fffcc000       .debug$S                   10000000     user32:USER32.dll
 0000:fffcc000       .debug$S                   10000000     user32:USER32.dll
 0000:fffcc000       .debug$S                   10000000     user32:USER32.dll
 0000:fffcc000       .debug$S                   10000000     user32:USER32.dll
 0000:fffcc000       .debug$S                   10000000     user32:USER32.dll
 0000:fffcc000       .debug$S                   10000000     user32:USER32.dll
 0000:fffcc000       .debug$S                   10000000     user32:USER32.dll
 0000:fffcc000       .debug$S                   10000000     user32:USER32.dll
 0000:fffcc000       .debug$S                   10000000     user32:USER32.dll
 0000:fffcc000       .debug$S                   10000000     user32:USER32.dll
 0000:fffcc000       .debug$S                   10000000     user32:USER32.dll
 0000:fffcc000       .debug$S                   10000000     user32:USER32.dll
 0000:fffcc000       .debug$S                   10000000     user32:USER32.dll
 0000:fffcc000       .debug$S                   10000000     user32:USER32.dll
 0000:fffcc000       .debug$S                   10000000     user32:USER32.dll
 0000:fffcc000       .debug$S                   10000000     user32:USER32.dll
 0000:fffcc000       .debug$S                   10000000     user32:USER32.dll
 0000:fffcc000       .debug$S                   10000000     user32:USER32.dll
 0000:fffcc000       .debug$S                   10000000     user32:USER32.dll
 0000:fffcc000       .debug$S                   10000000     user32:USER32.dll
 0000:fffcc000       .debug$S                   10000000     user32:USER32.dll
 0000:fffcc000       .debug$S                   10000000     user32:USER32.dll
 0000:fffcc000       .debug$S                   10000000     user32:USER32.dll
 0000:fffcc000       .debug$S                   10000000     user32:USER32.dll
 0000:fffcc000       .debug$S                   10000000     user32:USER32.dll
 0000:fffcc000       .debug$S                   10000000     user32:USER32.dll
 0000:fffcc000       .debug$S                   10000000     user32:USER32.dll
 0000:fffcc000       .debug$S                   10000000     user32:USER32.dll
 0000:fffcc000       .debug$S                   10000000     user32:USER32.dll
 0000:fffcc000       .debug$S                   10000000     user32:USER32.dll
 0000:fffcc000       .debug$S                   10000000     user32:USER32.dll
 0001:00000000       ??__E_AtlComModule@ATL@@YAXXZ 10001000 f   OposVariant.obj
 0001:00000016       ??__E_AtlWinModule@ATL@@YAXXZ 10001016 f   OposVariant.obj
 0001:0000002c       ??__E?pConnMap@?$IConnectionPointContainerImpl@VCOPOSMSR@@@ATL@@0PBU_ATL_CONNMAP_ENTRY@2@B@@YAXXZ 1000102c f   MSR.obj
 0001:0000003a       ??__E_Module@@YAXXZ        1000103a f   MSR.obj
 0001:00000064       ??__E_AtlBaseModule@ATL@@YAXXZ 10001064 f   atls:atlbase.obj
 0001:0000101d       $LN24                      1000201d     MSR.obj
 0001:00005919       $LN47                      10006919     MSR.obj
 0001:00005931       $LN46                      10006931     MSR.obj
 0001:00007afe       $LN37                      10008afe     MSR.obj
 0001:00007b16       $LN36                      10008b16     MSR.obj
 0001:000091f2       $LN76                      1000a1f2     MSR.obj
 0001:0000920a       $LN75                      1000a20a     MSR.obj
 0001:000095c3       _memcpy_s                  1000a5c3 f   MSR.obj
 0001:0000b9bc       ?find_pe_section@@YAPAU_IMAGE_SECTION_HEADER@@QAEI@Z 1000c9bc f   LIBCMT:utility.obj
 0001:0000bcdb       ?__scrt_initialize_thread_safe_statics@@YAHXZ 1000ccdb f   LIBCMT:thread_safe_statics.obj
 0001:0000bd02       ?__scrt_initialize_thread_safe_statics_platform_specific@@YAXXZ 1000cd02 f   LIBCMT:thread_safe_statics.obj
 0001:0000bd84       ?__scrt_uninitialize_thread_safe_statics@@YAXXZ 1000cd84 f   LIBCMT:thread_safe_statics.obj
 0001:0000c0f3       __catch$??2@YAPAXIABUnothrow_t@std@@@Z$0 1000d0f3 f   LIBCMT:new_scalar_nothrow.obj
 0001:0000c130       $$000000                   1000d130     LIBCMT:sehprolg4gs.obj
 0001:0000c190       $$000000                   1000d190     LIBCMT:alloca16.obj
 0001:0000c1c0       $$000000                   1000d1c0     LIBCMT:chkstk.obj
 0001:0000c1ed       ?dllmain_crt_dispatch@@YGHQAUHINSTANCE__@@KQAX@Z 1000d1ed f   LIBCMT:dll_dllmain.obj
 0001:0000c240       ?dllmain_crt_process_attach@@YAHQAUHINSTANCE__@@QAX@Z 1000d240 f   LIBCMT:dll_dllmain.obj
 0001:0000c347       ?dllmain_crt_process_detach@@YAH_N@Z 1000d347 f   LIBCMT:dll_dllmain.obj
 0001:0000c3f7       ?dllmain_dispatch@@YAHQAUHINSTANCE__@@KQAX@Z 1000d3f7 f   LIBCMT:dll_dllmain.obj
 0001:0000c4fd       ?dllmain_raw@@YGHQAUHINSTANCE__@@KQAX@Z 1000d4fd f   LIBCMT:dll_dllmain.obj
 0001:0000c880       $$000000                   1000d880     LIBCMT:sehprolg4.obj
 0001:0000c8dc       ___get_entropy             1000d8dc f   LIBCMT:gs_support.obj
 0001:0000cbd3       ??$GetProcAddressAll@P6GP6GJPAUHWND__@@IIJ@ZPAUAtlThunkData_t@@@Z@@YAP6GP6GJPAUHWND__@@IIJ@ZPAUAtlThunkData_t@@@ZPAP6GP6GJ0IIJ@Z1@Z@Z 1000dbd3 f   atls:atlthunk.obj
 0001:0000cbd3       ??$GetProcAddressAll@P6GPAUAtlThunkData_t@@XZ@@YAP6GPAUAtlThunkData_t@@XZPAP6GPAU0@XZ@Z 1000dbd3 f   atls:atlthunk.obj
 0001:0000cbd3       ??$GetProcAddressAll@P6GXPAUAtlThunkData_t@@@Z@@YAP6GXPAUAtlThunkData_t@@@ZPAP6GX0@Z@Z 1000dbd3 f   atls:atlthunk.obj
 0001:0000cbd3       ??$GetProcAddressAll@P6GXPAUAtlThunkData_t@@PAXI@Z@@YAP6GXPAUAtlThunkData_t@@PAXI@ZPAP6GX01I@Z@Z 1000dbd3 f   atls:atlthunk.obj
 0001:0000cc83       ?GetProcAddressSingle@@YA_NPAUHINSTANCE__@@PBDPAPAX@Z 1000dc83 f   atls:atlthunk.obj
 0001:0000cdd5       ?__InitializeThunkPool@@YAHXZ 1000ddd5 f   atls:atlthunk.obj
 0001:0000d230       _ValidateLocalCookies      1000e230 f   libvcruntime:chandler4.obj
 0001:0000e2f2       $LN1241                    1000f2f2     libvcruntime:memcmp.obj
 0001:0000e380       $$000000                   1000f380     libvcruntime:memcpy.obj
 0001:0000e5e4       TrailingUpVec              1000f5e4     libvcruntime:memcpy.obj
 0001:0000e690       TrailingDownVec            1000f690     libvcruntime:memcpy.obj
 0001:0000e900       $$000000                   1000f900     libvcruntime:memset.obj
 0001:0000ef03       ?_FilterSetCurrentException@@YAKPAU_EXCEPTION_POINTERS@@E@Z 1000ff03 f   libvcruntime:ehhelpers.obj
 0001:0000f150       $$000000                   10010150     libvcruntime:memmove.obj
 0001:0000f3b4       TrailingUpVec              100103b4     libvcruntime:memmove.obj
 0001:0000f460       TrailingDownVec            10010460     libvcruntime:memmove.obj
 0001:0000f6d0       $$000000                   100106d0     libvcruntime:exsup4.obj
 0001:0000f760       __unwind_handler4          10010760 f   libvcruntime:exsup4.obj
 0001:0000fa3f       ??$BuildCatchObjectHelperInternal@V__FrameHandler3@@@@YAHPAUEHExceptionRecord@@PAXPBU_s_HandlerType@@PBU_s_CatchableType@@@Z 10010a3f f   libvcruntime:frame.obj
 0001:0000fb7d       ??$BuildCatchObjectInternal@V__FrameHandler3@@@@YAXPAUEHExceptionRecord@@PAXPBU_s_HandlerType@@PBU_s_CatchableType@@@Z 10010b7d f   libvcruntime:frame.obj
 0001:0000fc16       ??$CatchIt@V__FrameHandler3@@@@YAXPAUEHExceptionRecord@@PAUEHRegistrationNode@@PAU_CONTEXT@@PAXPBU_s_FuncInfo@@PBU_s_HandlerType@@PBU_s_CatchableType@@PBU_s_TryBlockMapEntry@@H1EE@Z 10010c16 f   libvcruntime:frame.obj
 0001:0000fc96       ??$FindHandler@V__FrameHandler3@@@@YAXPAUEHExceptionRecord@@PAUEHRegistrationNode@@PAU_CONTEXT@@PAXPBU_s_FuncInfo@@EH1@Z 10010c96 f   libvcruntime:frame.obj
 0001:0001004c       ??$FindHandlerForForeignException@V__FrameHandler3@@@@YAXPAUEHExceptionRecord@@PAUEHRegistrationNode@@PAU_CONTEXT@@PAXPBU_s_FuncInfo@@HH1@Z 1001104c f   libvcruntime:frame.obj
 0001:00010364       ?CallCatchBlock@@YAPAXPAUEHExceptionRecord@@PAUEHRegistrationNode@@PAU_CONTEXT@@PBU_s_FuncInfo@@PAXHK@Z 10011364 f   libvcruntime:frame.obj
 0001:00010528       ?CallUnexpected@@YAXPBU_s_ESTypeList@@@Z 10011528 f   libvcruntime:frame.obj
 0001:00010548       __catch$?CallUnexpected@@YAXPBU_s_ESTypeList@@@Z$0 10011548 f   libvcruntime:frame.obj
 0001:00010562       ?ExFilterRethrow@@YAHPAU_EXCEPTION_POINTERS@@@Z 10011562 f   libvcruntime:frame.obj
 0001:000106ac       ?IsInExceptionSpec@@YAEPAUEHExceptionRecord@@PBU_s_ESTypeList@@@Z 100116ac f   libvcruntime:frame.obj
 0001:00010780       $$000000                   10011780     libvcruntime:lowhelpr.obj
 0001:000107d0       $$000000                   100117d0     libvcruntime:exsup.obj
 0001:000107f1       __unwind_handler           100117f1 f   libvcruntime:exsup.obj
 0001:0001090e       ?try_get_first_available_module@@YAPAUHINSTANCE__@@QBW4module_id@?A0x1172487b@@0@Z 1001190e f   libvcruntime:winapi_downlevel.obj
 0001:000109ba       ?try_get_function@@YAPAXW4function_id@?A0x1172487b@@QBDQBW4module_id@2@2@Z 100119ba f   libvcruntime:winapi_downlevel.obj
 0001:00011044       ??$common_tcsncpy_s@_W@@YAHQA_WIQB_WI@Z 10012044 f   libucrt:wcsncpy_s.obj
 0001:0001111a       ??$common_vsprintf@Vformat_validation_base@__crt_stdio_output@@_W@@YAH_KQA_WIQB_WQAU__crt_locale_pointers@@QAD@Z 1001211a f   libucrt:output.obj
 0001:000112a1       ??$common_vsprintf_s@_W@@YAH_KQA_WIQB_WQAU__crt_locale_pointers@@QAD@Z 100122a1 f   libucrt:output.obj
 0001:000119d0       $LN51                      100129d0     libucrt:output.obj
 0001:00011ecb       $LN20                      10012ecb     libucrt:output.obj
 0001:00011edf       $LN17                      10012edf     libucrt:output.obj
 0001:0001273e       ??$?RV<lambda_03b1d95aef87969028cfba75ccab2455>@@AAV<lambda_6e4b09c48022b2350581041d5f6b0c4c>@@V<lambda_22bdf7517842c4b3e53723af5aa32b9e>@@@?$__crt_seh_guarded_call@X@@QAEX$$QAV<lambda_03b1d95aef87969028cfba75ccab2455>@@AAV<lambda_6e4b09c48022b2350581041d5f6b0c4c>@@$$QAV<lambda_22bdf7517842c4b3e53723af5aa32b9e>@@@Z 1001373e f   libucrt:exit.obj
 0001:0001278b       ??R<lambda_6e4b09c48022b2350581041d5f6b0c4c>@@QBE@XZ 1001378b f   libucrt:exit.obj
 0001:00012865       ?atexit_exception_filter@@YAHK@Z 10013865 f   libucrt:exit.obj
 0001:00012878       ?common_exit@@YAXHW4_crt_exit_cleanup_mode@@W4_crt_exit_return_mode@@@Z 10013878 f   libucrt:exit.obj
 0001:000128dc       ?exit_or_terminate_process@@YAXI@Z 100138dc f   libucrt:exit.obj
 0001:0001291e       ?is_managed_app@@YA_NXZ    1001391e f   libucrt:exit.obj
 0001:00012961       ?try_cor_exit_process@@YAXI@Z 10013961 f   libucrt:exit.obj
 0001:000129ef       ??$common_configure_argv@D@@YAHW4_crt_argv_mode@@@Z 100139ef f   libucrt:argv_parsing.obj
 0001:00012b25       ??$parse_command_line@D@@YAXPADPAPAD0PAI2@Z 10013b25 f   libucrt:argv_parsing.obj
 0001:00012cf6       ??$common_initialize_environment_nolock@D@@YAHXZ 10013cf6 f   libucrt:environment_initialization.obj
 0001:00012d49       ??$create_environment@D@@YAQAPADQAD@Z 10013d49 f   libucrt:environment_initialization.obj
 0001:00012e19       ??$free_environment@D@@YAXQAPAD@Z 10013e19 f   libucrt:environment_initialization.obj
 0001:00012e19       ??$free_environment@_W@@YAXQAPA_W@Z 10013e19 f   libucrt:environment_initialization.obj
 0001:00012e71       ??$uninitialize_environment_internal@D@@YAXAAPAPAD@Z 10013e71 f   libucrt:environment_initialization.obj
 0001:00012e8c       ??$uninitialize_environment_internal@_W@@YAXAAPAPA_W@Z 10013e8c f   libucrt:environment_initialization.obj
 0001:00012ee3       ??$?RV<lambda_69a2805e680e0e292e8ba93315fe43a8>@@AAV<lambda_f03950bc5685219e0bcd2087efbe011e>@@V<lambda_03fcd07e894ec930e3f35da366ca99d6>@@@?$__crt_seh_guarded_call@H@@QAEH$$QAV<lambda_69a2805e680e0e292e8ba93315fe43a8>@@AAV<lambda_f03950bc5685219e0bcd2087efbe011e>@@$$QAV<lambda_03fcd07e894ec930e3f35da366ca99d6>@@@Z 10013ee3 f   libucrt:onexit.obj
 0001:00012f3e       ??$?RV<lambda_8e746cf0007f6ed984d6f78af1fec997>@@AAV<lambda_22ebabd17bc4fa466a2aca6d8deb888d>@@V<lambda_18ed0c0b38a6dc0daf1e7ac6d6adf05e>@@@?$__crt_seh_guarded_call@H@@QAEH$$QAV<lambda_8e746cf0007f6ed984d6f78af1fec997>@@AAV<lambda_22ebabd17bc4fa466a2aca6d8deb888d>@@$$QAV<lambda_18ed0c0b38a6dc0daf1e7ac6d6adf05e>@@@Z 10013f3e f   libucrt:onexit.obj
 0001:00012fb8       ??R<lambda_22ebabd17bc4fa466a2aca6d8deb888d>@@QBEHXZ 10013fb8 f   libucrt:onexit.obj
 0001:000130e1       ??R<lambda_f03950bc5685219e0bcd2087efbe011e>@@QBEHXZ 100140e1 f   libucrt:onexit.obj
 0001:0001325a       _initialize_environment    1001425a f   libucrt:initialization.obj
 0001:0001325a       _initialize_global_state_isolation 1001425a f   libucrt:initialization.obj
 0001:0001325a       _report_memory_leaks       1001425a f   libucrt:initialization.obj
 0001:0001325a       _uninitialize_c            1001425a f   libucrt:initialization.obj
 0001:0001325a       _uninitialize_global_state_isolation 1001425a f   libucrt:initialization.obj
 0001:0001325d       _initialize_global_variables 1001425d f   libucrt:initialization.obj
 0001:0001326a       _initialize_c              1001426a f   libucrt:initialization.obj
 0001:00013284       _uninitialize_environment  10014284 f   libucrt:initialization.obj
 0001:0001328c       _initialize_pointers       1001428c f   libucrt:initialization.obj
 0001:000132ba       _uninitialize_vcruntime    100142ba f   libucrt:initialization.obj
 0001:000132c3       _uninitialize_allocated_memory 100142c3 f   libucrt:initialization.obj
 0001:000132da       _uninitialize_allocated_io_buffers 100142da f   libucrt:initialization.obj
 0001:0001332a       ??R<lambda_af42a3ee9806e9a7305d451646e05244>@@QBEXAAPAU__crt_multibyte_data@@@Z 1001432a f   libucrt:initialization.obj
 0001:00013c10       $$000000                   10014c10     libucrt:strncmp.obj
 0001:00013cfc       ??$?RV<lambda_15ade71b0218206bbe3333a0c9b79046>@@AAV<lambda_da44e0f8b0f19ba52fefafb335991732>@@V<lambda_207f2d024fc103971653565357d6cd41>@@@?$__crt_seh_guarded_call@X@@QAEX$$QAV<lambda_15ade71b0218206bbe3333a0c9b79046>@@AAV<lambda_da44e0f8b0f19ba52fefafb335991732>@@$$QAV<lambda_207f2d024fc103971653565357d6cd41>@@@Z 10014cfc f   libucrt:per_thread_data.obj
 0001:00013d4e       ??$?RV<lambda_38edbb1296d33220d7e4dd0ed76b244a>@@AAV<lambda_5ce1d447e08cb34b2473517608e21441>@@V<lambda_fb385d3da700c9147fc39e65dd577a8c>@@@?$__crt_seh_guarded_call@X@@QAEX$$QAV<lambda_38edbb1296d33220d7e4dd0ed76b244a>@@AAV<lambda_5ce1d447e08cb34b2473517608e21441>@@$$QAV<lambda_fb385d3da700c9147fc39e65dd577a8c>@@@Z 10014d4e f   libucrt:per_thread_data.obj
 0001:00013db9       ??$?RV<lambda_6affb1475c98b40b75cdec977db92e3c>@@AAV<lambda_b8d4b9c228a6ecc3f80208dbb4b4a104>@@V<lambda_608742c3c92a14382c1684fc64f96c88>@@@?$__crt_seh_guarded_call@X@@QAEX$$QAV<lambda_6affb1475c98b40b75cdec977db92e3c>@@AAV<lambda_b8d4b9c228a6ecc3f80208dbb4b4a104>@@$$QAV<lambda_608742c3c92a14382c1684fc64f96c88>@@@Z 10014db9 f   libucrt:per_thread_data.obj
 0001:00013e0e       ??$?RV<lambda_a7e850c220f1c8d1e6efeecdedd162c6>@@AAV<lambda_46720907175c18b6c9d2717bc0d2d362>@@V<lambda_9048902d66e8d99359bc9897bbb930a8>@@@?$__crt_seh_guarded_call@X@@QAEX$$QAV<lambda_a7e850c220f1c8d1e6efeecdedd162c6>@@AAV<lambda_46720907175c18b6c9d2717bc0d2d362>@@$$QAV<lambda_9048902d66e8d99359bc9897bbb930a8>@@@Z 10014e0e f   libucrt:per_thread_data.obj
 0001:00013e68       ?construct_ptd@@YAXQAU__acrt_ptd@@QAPAU__crt_locale_data@@@Z 10014e68 f   libucrt:per_thread_data.obj
 0001:00013f01       ?destroy_fls@@YGXPAX@Z     10014f01 f   libucrt:per_thread_data.obj
 0001:00013f22       ?destroy_ptd@@YAXQAU__acrt_ptd@@@Z 10014f22 f   libucrt:per_thread_data.obj
 0001:00013fef       ?replace_current_thread_locale_nolock@@YAXQAU__acrt_ptd@@QAU__crt_locale_data@@@Z 10014fef f   libucrt:per_thread_data.obj
 0001:000143ff       ?try_get_AreFileApisANSI@@YAP6GHXZXZ 100153ff f   libucrt:winapi_thunks.obj
 0001:00014419       ?try_get_LCMapStringEx@@YAP6GHPB_WK0HPA_WHPAU_nlsversioninfo@@PAXJ@ZXZ 10015419 f   libucrt:winapi_thunks.obj
 0001:00014433       ?try_get_LocaleNameToLCID@@YAP6GKPB_WK@ZXZ 10015433 f   libucrt:winapi_thunks.obj
 0001:0001444d       ?try_get_first_available_module@@YAPAUHINSTANCE__@@QBW4module_id@?A0x391cf84c@@0@Z 1001544d f   libucrt:winapi_thunks.obj
 0001:00014514       ?try_get_function@@YAPAXW4function_id@?A0x391cf84c@@QBDQBW4module_id@2@2@Z 10015514 f   libucrt:winapi_thunks.obj
 0001:00014c77       ?fp_format_a@@YAHQBNPADIQADIH_NIQAU__crt_locale_pointers@@@Z 10015c77 f   libucrt:cvt.obj
 0001:00014f90       ?fp_format_e@@YAHQBNQADI1IH_NIQAU__crt_locale_pointers@@@Z 10015f90 f   libucrt:cvt.obj
 0001:00015032       ?fp_format_e_internal@@YAHQADIH_NIQAU_strflt@@1QAU__crt_locale_pointers@@@Z 10016032 f   libucrt:cvt.obj
 0001:0001517a       ?fp_format_f@@YAHQBNQADI1IHQAU__crt_locale_pointers@@@Z 1001617a f   libucrt:cvt.obj
 0001:00015205       ?fp_format_f_internal@@YAHQADIHQAU_strflt@@_NQAU__crt_locale_pointers@@@Z 10016205 f   libucrt:cvt.obj
 0001:000152d6       ?fp_format_g@@YAHQBNQADI1IH_NIQAU__crt_locale_pointers@@@Z 100162d6 f   libucrt:cvt.obj
 0001:00015397       ?fp_format_nan_or_infinity@@YAHW4__acrt_fp_class@@_NPADI1@Z 10016397 f   libucrt:cvt.obj
 0001:0001542c       ?shift_bytes@@YAXQADI0H@Z  1001642c f   libucrt:cvt.obj
 0001:00015713       ??$?RV<lambda_e5124f882df8998aaf41531e079ba474>@@AAV<lambda_3e16ef9562a7dcce91392c22ab16ea36>@@V<lambda_e25ca0880e6ef98be67edffd8c599615>@@@?$__crt_seh_guarded_call@X@@QAEX$$QAV<lambda_e5124f882df8998aaf41531e079ba474>@@AAV<lambda_3e16ef9562a7dcce91392c22ab16ea36>@@$$QAV<lambda_e25ca0880e6ef98be67edffd8c599615>@@@Z 10016713 f   libucrt:wsetlocale.obj
 0001:000157b3       ?initialize_inherited_file_handles_nolock@@YAXXZ 100167b3 f   libucrt:ioinit.obj
 0001:00015869       ?initialize_stdio_handles_nolock@@YAXXZ 10016869 f   libucrt:ioinit.obj
 0001:00015a7a       ?<lambda_invoker_cdecl>@<lambda_838c7f62c73c983481e27c09e84b0b5d>@@CAHPBX0@Z 10016a7a f   libucrt:argv_wildcards.obj
 0001:00015a92       ??$__acrt_convert_wcs_mbs_cp@D_WV<lambda_62f6974d9771e494a5ea317cc32e971c>@@U__crt_win32_buffer_internal_dynamic_resizing@@@@YAHQBDAAV?$__crt_win32_buffer@_WU__crt_win32_buffer_internal_dynamic_resizing@@@@ABV<lambda_62f6974d9771e494a5ea317cc32e971c>@@I@Z 10016a92 f   libucrt:argv_wildcards.obj
 0001:00015b44       ??$__acrt_convert_wcs_mbs_cp@_WDV<lambda_28bda7af82a03b66c1cb3803a755f95d>@@U__crt_win32_buffer_internal_dynamic_resizing@@@@YAHQB_WAAV?$__crt_win32_buffer@DU__crt_win32_buffer_internal_dynamic_resizing@@@@ABV<lambda_28bda7af82a03b66c1cb3803a755f95d>@@I@Z 10016b44 f   libucrt:argv_wildcards.obj
 0001:00015c30       ??$common_expand_argv_wildcards@D@@YAHQAPADQAPAPAD@Z 10016c30 f   libucrt:argv_wildcards.obj
 0001:00015e1f       ??$copy_and_add_argument_to_buffer@D@@YAHQBD0IAAV?$argument_list@D@?A0x5f5c8891@@@Z 10016e1f f   libucrt:argv_wildcards.obj
 0001:00015ed0       ??$expand_argument_wildcards@D@@YAHQAD0AAV?$argument_list@D@?A0x5f5c8891@@@Z 10016ed0 f   libucrt:argv_wildcards.obj
 0001:0001621a       ?expand_if_necessary@?$argument_list@D@?A0x5f5c8891@@AAEHXZ 1001721a f   libucrt:argv_wildcards.obj
 0001:000162ac       ??$__acrt_convert_wcs_mbs_cp@_WDV<lambda_0fec1a7b3f42a53036604e18c2d5e07e>@@U__crt_win32_buffer_no_resizing@@@@YAHQB_WAAV?$__crt_win32_buffer@DU__crt_win32_buffer_no_resizing@@@@ABV<lambda_0fec1a7b3f42a53036604e18c2d5e07e>@@I@Z 100172ac f   libucrt:getmodulefilenamea.obj
 0001:0001644f       ??$?RV<lambda_ceb1ee4838e85a9d631eb091e2fbe199>@@AAV<lambda_ae742caa10f662c28703da3d2ea5e57e>@@V<lambda_cd08b5d6af4937fe54fc07d0c9bf6b37>@@@?$__crt_seh_guarded_call@X@@QAEX$$QAV<lambda_ceb1ee4838e85a9d631eb091e2fbe199>@@AAV<lambda_ae742caa10f662c28703da3d2ea5e57e>@@$$QAV<lambda_cd08b5d6af4937fe54fc07d0c9bf6b37>@@@Z 1001744f f   libucrt:mbctype.obj
 0001:0001649c       ??R<lambda_ae742caa10f662c28703da3d2ea5e57e>@@QBEXXZ 1001749c f   libucrt:mbctype.obj
 0001:0001651f       ?CPtoLocaleName@@YAPB_WH@Z 1001751f f   libucrt:mbctype.obj
 0001:0001655d       ?getSystemCP@@YAHH@Z       1001755d f   libucrt:mbctype.obj
 0001:000165ce       ?setSBCS@@YAXPAU__crt_multibyte_data@@@Z 100175ce f   libucrt:mbctype.obj
 0001:00016633       ?setSBUpLow@@YAXPAU__crt_multibyte_data@@@Z 10017633 f   libucrt:mbctype.obj
 0001:000167b4       ?setmbcp_internal@@YAHH_NQAU__acrt_ptd@@QAPAU__crt_multibyte_data@@@Z 100177b4 f   libucrt:mbctype.obj
 0001:000168cd       ?update_thread_multibyte_data_internal@@YAPAU__crt_multibyte_data@@QAU__acrt_ptd@@QAPAU1@@Z 100178cd f   libucrt:mbctype.obj
 0001:00016bbb       _memcpy_s                  10017bbb f   libucrt:cfout.obj
 0001:00016bbb       _memcpy_s                  10017bbb f   libucrt:mbctype.obj
 0001:00016c3c       ?x_ismbbtype_l@@YAHPAU__crt_locale_pointers@@IHH@Z 10017c3c f   libucrt:ismbbyte.obj
 0001:00016ded       ?find_end_of_double_null_terminated_sequence@@YAPB_WQB_W@Z 10017ded f   libucrt:get_environment_from_os.obj
 0001:00016f5c       ??$?RV<lambda_cbab9ec6f41b0180b23cc171c22676b0>@@AAV<lambda_44731a7d0e6d81c3e6aa82d741081786>@@V<lambda_4b292cb8dd18144e164572427af410ab>@@@?$__crt_seh_guarded_call@P6AXH@Z@@QAEP6AXH@Z$$QAV<lambda_cbab9ec6f41b0180b23cc171c22676b0>@@AAV<lambda_44731a7d0e6d81c3e6aa82d741081786>@@$$QAV<lambda_4b292cb8dd18144e164572427af410ab>@@@Z 10017f5c f   libucrt:signal.obj
 0001:00016fc0       ?get_global_action_nolock@@YAPAP6AXH@ZH@Z 10017fc0 f   libucrt:signal.obj
 0001:00017002       ?siglookup@@YAPAU__crt_signal_action_t@@HQAU1@@Z 10018002 f   libucrt:signal.obj
 0001:000172cc       ??$?RV<lambda_2866be3712abc81a800a822484c830d8>@@AAV<lambda_39ca0ed439415581b5b15c265174cece>@@V<lambda_2b24c74d71094a6cd0cb82e44167d71b>@@@?$__crt_seh_guarded_call@X@@QAEX$$QAV<lambda_2866be3712abc81a800a822484c830d8>@@AAV<lambda_39ca0ed439415581b5b15c265174cece>@@$$QAV<lambda_2b24c74d71094a6cd0cb82e44167d71b>@@@Z 100182cc f   libucrt:fflush.obj
 0001:00017358       ??$?RV<lambda_2cc53f568c5a2bb6f192f930a45d44ea>@@AAV<lambda_ab61a845afdef5b7c387490eaf3616ee>@@V<lambda_c2ffc0b7726aa6be21d5f0026187e748>@@@?$__crt_seh_guarded_call@X@@QAEX$$QAV<lambda_2cc53f568c5a2bb6f192f930a45d44ea>@@AAV<lambda_ab61a845afdef5b7c387490eaf3616ee>@@$$QAV<lambda_c2ffc0b7726aa6be21d5f0026187e748>@@@Z 10018358 f   libucrt:fflush.obj
 0001:00017404       ?common_flush_all@@YAH_N@Z 10018404 f   libucrt:fflush.obj
 0001:00017451       ?common_flush_all_should_try_to_flush_stream@@YA_NV__crt_stdio_stream@@QAH@Z 10018451 f   libucrt:fflush.obj
 0001:00017484       ?is_stream_flushable_or_commitable@@YA_NJ@Z 10018484 f   libucrt:fflush.obj
 0001:0001798d       ?GetTableIndexFromLocaleName@@YAHPB_W@Z 1001898d f   libucrt:lcidtoname_downlevel.obj
 0001:00017a43       ??R<lambda_3d301b9e52f5099be73030e1f0bf487e>@@QBEIPBD@Z 10018a43 f   libucrt:mbrtowc.obj
 0001:0001971a       ?free_crt_array_internal@@YAXQAPBXI@Z 1001a71a f   libucrt:inittime.obj
 0001:00019bf0       ?swap@@YAXPAD0I@Z          1001abf0 f   libucrt:qsort.obj
 0001:0001a074       ??$common_tcsncpy_s@D@@YAHQADIQBDI@Z 1001b074 f   libucrt:strncpy_s.obj
 0001:0001a140       $$000000                   1001b140     libucrt:strpbrk.obj
 0001:0001a224       ?__acrt_LCMapStringA_stat@@YAHPAU__crt_locale_pointers@@PB_WKPBDHPADHHH@Z 1001b224 f   libucrt:lcmapstringa.obj
 0001:0001a457       ?initialize_multibyte@@YAHXZ 1001b457 f   libucrt:multibyte_initializer.obj
 0001:0001a466       ??$?RV<lambda_9e9de3de5fa147e2223d7db92bc10aa6>@@AAV<lambda_38ce7e780aa69e748d6df282ebc68efe>@@V<lambda_8ca6da459f0f6780f1cff60fdc3d00e5>@@@?$__crt_seh_guarded_call@H@@QAEH$$QAV<lambda_9e9de3de5fa147e2223d7db92bc10aa6>@@AAV<lambda_38ce7e780aa69e748d6df282ebc68efe>@@$$QAV<lambda_8ca6da459f0f6780f1cff60fdc3d00e5>@@@Z 1001b466 f   libucrt:commit.obj
 0001:0001a585       ?write_double_translated_ansi_nolock@@YA?AUwrite_result@?A0x17268360@@HQBDI@Z 1001b585 f   libucrt:write.obj
 0001:0001a92f       ?write_double_translated_unicode_nolock@@YA?AUwrite_result@?A0x17268360@@QBDI@Z 1001b92f f   libucrt:write.obj
 0001:0001a997       ?write_requires_double_translation_nolock@@YA_NH@Z 1001b997 f   libucrt:write.obj
 0001:0001aa08       ?write_text_ansi_nolock@@YA?AUwrite_result@?A0x17268360@@HQBDI@Z 1001ba08 f   libucrt:write.obj
 0001:0001aae3       ?write_text_utf16le_nolock@@YA?AUwrite_result@?A0x17268360@@HQBDI@Z 1001bae3 f   libucrt:write.obj
 0001:0001abcc       ?write_text_utf8_nolock@@YA?AUwrite_result@?A0x17268360@@HQBDI@Z 1001bbcc f   libucrt:write.obj
 0001:0001b2a0       $$000000                   1001c2a0     libucrt:log10_impl.obj
 0001:0001b3b0       $$000000                   1001c3b0     libucrt:ceil_pentium4.obj
 0001:0001b4cd       ??$common_lseek_nolock@_J@@YA_JH_JH@Z 1001c4cd f   libucrt:lseek.obj
 0001:0001b6b3       ?to_abstract_control@@YA?AW4__acrt_fenv_abstract_control@@W4__acrt_fenv_machine_sse_control@@@Z 1001c6b3 f   libucrt:_fenvutils.obj
 0001:0001b76f       ?to_abstract_control@@YA?AW4__acrt_fenv_abstract_control@@W4__acrt_fenv_machine_x87_control@@@Z 1001c76f f   libucrt:_fenvutils.obj
 0001:0001b828       ?to_machine_sse_control@@YA?AW4__acrt_fenv_machine_sse_control@@W4__acrt_fenv_abstract_control@@@Z 1001c828 f   libucrt:_fenvutils.obj
 0001:0001b8f5       ?to_machine_x87_control@@YA?AW4__acrt_fenv_machine_x87_control@@W4__acrt_fenv_abstract_control@@@Z 1001c8f5 f   libucrt:_fenvutils.obj
 0001:0001bd50       $$000000                   1001cd50     libucrt:log10_pentium4.obj
 0001:0001bfe0       $$000000                   1001cfe0     libucrt:87tran.obj
 0001:0001c1f0       $$000000                   1001d1f0     libucrt:87disp.obj
 0001:0001c450       $$000000                   1001d450     libucrt:common.obj
 0001:0001c5e0       $$000000                   1001d5e0     libucrt:genexcep.obj
 0001:0001c8dc       ??$?RV<lambda_218ce3db14220d0be481dae8ef3383b6>@@AAV<lambda_628dfdc04ba53c8bfc02c9951375f3f5>@@V<lambda_57dc472bd5c9d5f3b2cbca59b8a843ae>@@@?$__crt_seh_guarded_call@H@@QAEH$$QAV<lambda_218ce3db14220d0be481dae8ef3383b6>@@AAV<lambda_628dfdc04ba53c8bfc02c9951375f3f5>@@$$QAV<lambda_57dc472bd5c9d5f3b2cbca59b8a843ae>@@@Z 1001d8dc f   libucrt:close.obj
 0001:0001cad0       $$000000                   1001dad0     libucrt:_strnicm.obj
 0001:0001cb31       ?__dcrt_lowio_initialize_console_output@@YAXXZ 1001db31 f   libucrt:initcon.obj
 0001:0001d990       $$000000                   1001e990     LIBCMT:ulldvrm.obj
 0001:0001da30       $$000000                   1001ea30     LIBCMT:llmul.obj
 0001:0001da70       $$000000                   1001ea70     LIBCMT:lldvrm.obj
 0001:0001db50       $$000000                   1001eb50     LIBCMT:ullshr.obj
 0001:0001db70       $$000000                   1001eb70     LIBCMT:llshl.obj
 0001:0001db90       $$000000                   1001eb90     LIBCMT:ftol2.obj
 0001:0001de30       $$000000                   1001ee30     libvcruntime:strrchr.obj
 0001:0001df70       $$000000                   1001ef70     libvcruntime:strchr.obj
 0001:0001e113       __ehhandler$??2@YAPAXIABUnothrow_t@std@@@Z 1001f113 f   LIBCMT:new_scalar_nothrow.obj
 0001:0001e12e       __ehhandler$?CallUnexpected@@YAXPBU_s_ESTypeList@@@Z 1001f12e f   libvcruntime:frame.obj
 0001:0001e149       ??__F_AtlComModule@ATL@@YAXXZ 1001f149 f   OposVariant.obj
 0001:0001e153       ??__F_AtlWinModule@ATL@@YAXXZ 1001f153 f   OposVariant.obj
 0001:0001e16d       ??__F_Module@@YAXXZ        1001f16d f   MSR.obj
 0001:0001e181       ??__F_AtlBaseModule@ATL@@YAXXZ 1001f181 f   atls:atlbase.obj
 0002:00000308       ?_AtlBaseModule$initializer$@ATL@@3P6AXXZA 10020308     atls:atlbase.obj
 0002:0000030c       ?_AtlComModule$initializer$@ATL@@3P6AXXZA 1002030c     OposVariant.obj
 0002:00000310       ?_AtlWinModule$initializer$@ATL@@3P6AXXZA 10020310     OposVariant.obj
 0002:00000314       ?_Module$initializer$@@3P6AXXZA 10020314     MSR.obj
 0002:00000318       ??pConnMap$initializer$@?$IConnectionPointContainerImpl@VCOPOSMSR@@@ATL@@0P6AXXZA@@3P6AXXZA 10020318     MSR.obj
 0002:00000324       ?__scrt_initialize_tss_var@@3P6AHXZA 10020324     LIBCMT:thread_safe_statics.obj
 0002:00001a58       _GS_ExceptionPointers      10021a58     LIBCMT:gs_report.obj
 0002:00001be8       ?tokenTable@@3QBUStringLiteral@@B 10021be8     libvcruntime:undname.obj
 0002:00001c68       ?nameTable@@3QBUStringLiteral@@B 10021c68     libvcruntime:undname.obj
 0002:00001f00       ?rttiTable@@3QBUStringLiteral@@B 10021f00     libvcruntime:undname.obj
 0002:00001f28       ?IndirectionName@@3QBUStringLiteral@@B 10021f28     libvcruntime:undname.obj
 0002:00001f58       ?PrefixName@@3QBUStringLiteral@@B 10021f58     libvcruntime:undname.obj
 0002:00002588       ?module_names@?A0x1172487b@@3QBQB_WB 10022588     libvcruntime:winapi_downlevel.obj
 0002:00002630       ?candidate_modules@?1??try_get_FlsAlloc@@YAP6GKP6GXPAX@Z@ZXZ@4QBW4module_id@?A0x1172487b@@B 10022630     libvcruntime:winapi_downlevel.obj
 0002:00002644       ?candidate_modules@?1??try_get_FlsFree@@YAP6GHK@ZXZ@4QBW4module_id@?A0x1172487b@@B 10022644     libvcruntime:winapi_downlevel.obj
 0002:00002654       ?candidate_modules@?1??try_get_FlsGetValue@@YAP6GPAXK@ZXZ@4QBW4module_id@?A0x1172487b@@B 10022654     libvcruntime:winapi_downlevel.obj
 0002:00002668       ?candidate_modules@?1??try_get_FlsSetValue@@YAP6GHKPAX@ZXZ@4QBW4module_id@?A0x1172487b@@B 10022668     libvcruntime:winapi_downlevel.obj
 0002:0000267c       ?candidate_modules@?1??try_get_InitializeCriticalSectionEx@@YAP6GHPAU_RTL_CRITICAL_SECTION@@KK@ZXZ@4QBW4module_id@?A0x1172487b@@B 1002267c     libvcruntime:winapi_downlevel.obj
 0002:000026a0       ?errtable@@3QBUerrentry@?A0x31fdb9ec@@B 100226a0     libucrt:errno.obj
 0002:00002948       ___acrt_initializers       10022948     libucrt:initialization.obj
 0002:000029c8       ?module_names@?A0x391cf84c@@3QBQB_WB 100229c8     libucrt:winapi_thunks.obj
 0002:00002e40       ?candidate_modules@?1??try_get_AreFileApisANSI@@YAP6GHXZXZ@4QBW4module_id@?A0x391cf84c@@B 10022e40     libucrt:winapi_thunks.obj
 0002:00002e54       ?candidate_modules@?1??try_get_FlsAlloc@@YAP6GKP6GXPAX@Z@ZXZ@4QBW4module_id@?A0x391cf84c@@B 10022e54     libucrt:winapi_thunks.obj
 0002:00002e5c       ?candidate_modules@?1??try_get_FlsFree@@YAP6GHK@ZXZ@4QBW4module_id@?A0x391cf84c@@B 10022e5c     libucrt:winapi_thunks.obj
 0002:00002e64       ?candidate_modules@?1??try_get_FlsGetValue@@YAP6GPAXK@ZXZ@4QBW4module_id@?A0x391cf84c@@B 10022e64     libucrt:winapi_thunks.obj
 0002:00002e6c       ?candidate_modules@?1??try_get_FlsSetValue@@YAP6GHKPAX@ZXZ@4QBW4module_id@?A0x391cf84c@@B 10022e6c     libucrt:winapi_thunks.obj
 0002:00002e74       ?candidate_modules@?1??try_get_InitializeCriticalSectionEx@@YAP6GHPAU_RTL_CRITICAL_SECTION@@KK@ZXZ@4QBW4module_id@?A0x391cf84c@@B 10022e74     libucrt:winapi_thunks.obj
 0002:00002e7c       ?candidate_modules@?1??try_get_LCMapStringEx@@YAP6GHPB_WK0HPA_WHPAU_nlsversioninfo@@PAXJ@ZXZ@4QBW4module_id@?A0x391cf84c@@B 10022e7c     libucrt:winapi_thunks.obj
 0002:00002e94       ?candidate_modules@?1??try_get_LocaleNameToLCID@@YAP6GKPB_WK@ZXZ@4QBW4module_id@?A0x391cf84c@@B 10022e94     libucrt:winapi_thunks.obj
 0002:00002eb0       ?candidate_modules@?1??try_get_AppPolicyGetProcessTerminationMethod@@YAP6GJPAXPAW4AppPolicyProcessTerminationMethod@@@ZXZ@4QBW4module_id@?A0x391cf84c@@B 10022eb0     libucrt:winapi_thunks.obj
 0002:00002edc       ?candidate_modules@?1??try_get_SetThreadStackGuarantee@@YAP6GHPAK@ZXZ@4QBW4module_id@?A0x391cf84c@@B 10022edc     libucrt:winapi_thunks.obj
 0002:00002f00       ?strings@?1??fp_format_nan_or_infinity@@YAHW4__acrt_fp_class@@_NPADI1@Z@4QAY03QBDA 10022f00     libucrt:cvt.obj
 0002:00003448       ?_mb_locale_names@@3QBQB_WB 10023448     libucrt:mbctype.obj
 0002:00003c90       ?LcidToLocaleNameTable@?A0x881e4c05@@3QBULcidToLocaleName@1@B 10023c90     libucrt:lcidtoname_downlevel.obj
 0002:00004db8       ?LocaleNameToIndexTable@?A0x881e4c05@@3QBULocaleNameIndex@1@B 10024db8     libucrt:lcidtoname_downlevel.obj
 0002:00006610       ?large_power_indices@?1??multiply_by_power_of_ten@__crt_strtox@@YA_NAAUbig_integer@2@I@Z@4QBUunpack_index@?1??12@YA_N0I@Z@B 10026610     libucrt:cfout.obj
 0002:000066f0       LOG_name                   100266f0     libucrt:log10_impl.obj
 0002:00006700       _One                       10026700     libucrt:ceil_pentium4.obj
 0002:00006710       _Bns                       10026710     libucrt:ceil_pentium4.obj
 0002:00006720       _Zero                      10026720     libucrt:ceil_pentium4.obj
 0002:00006730       _S                         10026730     libucrt:ceil_pentium4.obj
 0002:00006740       _NegZero                   10026740     libucrt:ceil_pentium4.obj
 0002:00006750       emask                      10026750     libucrt:log10_pentium4.obj
 0002:00006760       CC                         10026760     libucrt:log10_pentium4.obj
 0002:00006770       Magic                      10026770     libucrt:log10_pentium4.obj
 0002:00006780       hi_mask                    10026780     libucrt:log10_pentium4.obj
 0002:00006790       LOG10_2                    10026790     libucrt:log10_pentium4.obj
 0002:000067a0       place_L                    100267a0     libucrt:log10_pentium4.obj
 0002:000067c0       One                        100267c0     libucrt:log10_pentium4.obj
 0002:000067d0       Zero                       100267d0     libucrt:log10_pentium4.obj
 0002:000067e0       Two52                      100267e0     libucrt:log10_pentium4.obj
 0002:000067f0       Infs                       100267f0     libucrt:log10_pentium4.obj
 0002:00006800       NaN                        10026800     libucrt:log10_pentium4.obj
 0002:00006810       coeff                      10026810     libucrt:log10_pentium4.obj
 0002:0000686e       _log2max                   1002686e     libucrt:87tran.obj
 0002:00006878       _smallarg                  10026878     libucrt:87tran.obj
 0002:00006882       _half                      10026882     libucrt:87tran.obj
 0002:000068ce       One                        100268ce     libucrt:87disp.obj
 0002:000068d6       Three                      100268d6     libucrt:87disp.obj
 0002:000068de       XAMtoTagTab                100268de     libucrt:87disp.obj
 0002:000068f0       One                        100268f0     libucrt:common.obj
 0002:00006904       DblMax                     10026904     libucrt:common.obj
 0002:0000690c       DblMin                     1002690c     libucrt:common.obj
 0002:00006914       IeeeAdjO                   10026914     libucrt:common.obj
 0002:0000691c       IeeeAdjU                   1002691c     libucrt:common.obj
 0002:00006924       _infinity                  10026924     libucrt:common.obj
 0002:0000692c       _zero                      1002692c     libucrt:common.obj
 0002:00006978       _over                      10026978     libucrt:fpctrl.obj
 0002:00006984       _under                     10026984     libucrt:fpctrl.obj
 0002:000071b8       ?_names@?1??_get_fname@@9@9 100271b8     libucrt:fpexcept.obj
 0002:00007360       two32                      10027360     LIBCMT:ftol2.obj
 0002:00007364       two63                      10027364     LIBCMT:ftol2.obj
 0002:00007368       _NaN                       10027368     LIBCMT:ftol2.obj
 0002:00007a10       __sehtable$?_AtlVerifyStackAvailable@_ATL_SAFE_ALLOCA_IMPL@ATL@@YA_NK@Z 10027a10     MSR.obj
 0002:00007a30       __sehtable$___scrt_is_nonwritable_in_current_image 10027a30     LIBCMT:utility.obj
 0002:00007a4c       __catchsym$??2@YAPAXIABUnothrow_t@std@@@Z$2 10027a4c     LIBCMT:new_scalar_nothrow.obj
 0002:00007a5c       __unwindtable$??2@YAPAXIABUnothrow_t@std@@@Z 10027a5c     LIBCMT:new_scalar_nothrow.obj
 0002:00007a6c       __tryblocktable$??2@YAPAXIABUnothrow_t@std@@@Z 10027a6c     LIBCMT:new_scalar_nothrow.obj
 0002:00007a80       __ehfuncinfo$??2@YAPAXIABUnothrow_t@std@@@Z 10027a80     LIBCMT:new_scalar_nothrow.obj
 0002:00007aa8       __sehtable$?dllmain_crt_process_attach@@YAHQAUHINSTANCE__@@QAX@Z 10027aa8     LIBCMT:dll_dllmain.obj
 0002:00007ac8       __sehtable$?dllmain_crt_process_detach@@YAH_N@Z 10027ac8     LIBCMT:dll_dllmain.obj
 0002:00007af0       __sehtable$?dllmain_dispatch@@YAHQAUHINSTANCE__@@KQAX@Z 10027af0     LIBCMT:dll_dllmain.obj
 0002:00007ba0       __sehtable$___DestructExceptionObject 10027ba0     libvcruntime:ehhelpers.obj
 0002:00007bc0       __sehtable$?FrameUnwindToState@__FrameHandler3@@SAXPAUEHRegistrationNode@@PAXPBU_s_FuncInfo@@H@Z 10027bc0     libvcruntime:frame.obj
 0002:00007be8       __sehtable$?CallCatchBlock@@YAPAXPAUEHExceptionRecord@@PAUEHRegistrationNode@@PAU_CONTEXT@@PBU_s_FuncInfo@@PAXHK@Z 10027be8     libvcruntime:frame.obj
 0002:00007c10       __catchsym$?CallUnexpected@@YAXPBU_s_ESTypeList@@@Z$2 10027c10     libvcruntime:frame.obj
 0002:00007c20       __unwindtable$?CallUnexpected@@YAXPBU_s_ESTypeList@@@Z 10027c20     libvcruntime:frame.obj
 0002:00007c30       __tryblocktable$?CallUnexpected@@YAXPBU_s_ESTypeList@@@Z 10027c30     libvcruntime:frame.obj
 0002:00007c44       __ehfuncinfo$?CallUnexpected@@YAXPBU_s_ESTypeList@@@Z 10027c44     libvcruntime:frame.obj
 0002:00007c68       __sehtable$??$BuildCatchObjectHelperInternal@V__FrameHandler3@@@@YAHPAUEHExceptionRecord@@PAXPBU_s_HandlerType@@PBU_s_CatchableType@@@Z 10027c68     libvcruntime:frame.obj
 0002:00007c88       __sehtable$??$BuildCatchObjectInternal@V__FrameHandler3@@@@YAXPAUEHExceptionRecord@@PAXPBU_s_HandlerType@@PBU_s_CatchableType@@@Z 10027c88     libvcruntime:frame.obj
 0002:00007ce0       __sehtable$??R<lambda_6e4b09c48022b2350581041d5f6b0c4c>@@QBE@XZ 10027ce0     libucrt:exit.obj
 0002:00007d00       __sehtable$??$?RV<lambda_03b1d95aef87969028cfba75ccab2455>@@AAV<lambda_6e4b09c48022b2350581041d5f6b0c4c>@@V<lambda_22bdf7517842c4b3e53723af5aa32b9e>@@@?$__crt_seh_guarded_call@X@@QAEX$$QAV<lambda_03b1d95aef87969028cfba75ccab2455>@@AAV<lambda_6e4b09c48022b2350581041d5f6b0c4c>@@$$QAV<lambda_22bdf7517842c4b3e53723af5aa32b9e>@@@Z 10027d00     libucrt:exit.obj
 0002:00007d20       __sehtable$??$?RV<lambda_8e746cf0007f6ed984d6f78af1fec997>@@AAV<lambda_22ebabd17bc4fa466a2aca6d8deb888d>@@V<lambda_18ed0c0b38a6dc0daf1e7ac6d6adf05e>@@@?$__crt_seh_guarded_call@H@@QAEH$$QAV<lambda_8e746cf0007f6ed984d6f78af1fec997>@@AAV<lambda_22ebabd17bc4fa466a2aca6d8deb888d>@@$$QAV<lambda_18ed0c0b38a6dc0daf1e7ac6d6adf05e>@@@Z 10027d20     libucrt:onexit.obj
 0002:00007d40       __sehtable$??$?RV<lambda_69a2805e680e0e292e8ba93315fe43a8>@@AAV<lambda_f03950bc5685219e0bcd2087efbe011e>@@V<lambda_03fcd07e894ec930e3f35da366ca99d6>@@@?$__crt_seh_guarded_call@H@@QAEH$$QAV<lambda_69a2805e680e0e292e8ba93315fe43a8>@@AAV<lambda_f03950bc5685219e0bcd2087efbe011e>@@$$QAV<lambda_03fcd07e894ec930e3f35da366ca99d6>@@@Z 10027d40     libucrt:onexit.obj
 0002:00007d60       __sehtable$__query_new_handler 10027d60     libucrt:new_handler.obj
 0002:00007d80       __sehtable$_terminate      10027d80     libucrt:terminate.obj
 0002:00007da0       __sehtable$??$?RV<lambda_15ade71b0218206bbe3333a0c9b79046>@@AAV<lambda_da44e0f8b0f19ba52fefafb335991732>@@V<lambda_207f2d024fc103971653565357d6cd41>@@@?$__crt_seh_guarded_call@X@@QAEX$$QAV<lambda_15ade71b0218206bbe3333a0c9b79046>@@AAV<lambda_da44e0f8b0f19ba52fefafb335991732>@@$$QAV<lambda_207f2d024fc103971653565357d6cd41>@@@Z 10027da0     libucrt:per_thread_data.obj
 0002:00007dc0       __sehtable$??$?RV<lambda_a7e850c220f1c8d1e6efeecdedd162c6>@@AAV<lambda_46720907175c18b6c9d2717bc0d2d362>@@V<lambda_9048902d66e8d99359bc9897bbb930a8>@@@?$__crt_seh_guarded_call@X@@QAEX$$QAV<lambda_a7e850c220f1c8d1e6efeecdedd162c6>@@AAV<lambda_46720907175c18b6c9d2717bc0d2d362>@@$$QAV<lambda_9048902d66e8d99359bc9897bbb930a8>@@@Z 10027dc0     libucrt:per_thread_data.obj
 0002:00007de0       __sehtable$??$?RV<lambda_38edbb1296d33220d7e4dd0ed76b244a>@@AAV<lambda_5ce1d447e08cb34b2473517608e21441>@@V<lambda_fb385d3da700c9147fc39e65dd577a8c>@@@?$__crt_seh_guarded_call@X@@QAEX$$QAV<lambda_38edbb1296d33220d7e4dd0ed76b244a>@@AAV<lambda_5ce1d447e08cb34b2473517608e21441>@@$$QAV<lambda_fb385d3da700c9147fc39e65dd577a8c>@@@Z 10027de0     libucrt:per_thread_data.obj
 0002:00007e00       __sehtable$??$?RV<lambda_6affb1475c98b40b75cdec977db92e3c>@@AAV<lambda_b8d4b9c228a6ecc3f80208dbb4b4a104>@@V<lambda_608742c3c92a14382c1684fc64f96c88>@@@?$__crt_seh_guarded_call@X@@QAEX$$QAV<lambda_6affb1475c98b40b75cdec977db92e3c>@@AAV<lambda_b8d4b9c228a6ecc3f80208dbb4b4a104>@@$$QAV<lambda_608742c3c92a14382c1684fc64f96c88>@@@Z 10027e00     libucrt:per_thread_data.obj
 0002:00007e20       __sehtable$??$?RV<lambda_e5124f882df8998aaf41531e079ba474>@@AAV<lambda_3e16ef9562a7dcce91392c22ab16ea36>@@V<lambda_e25ca0880e6ef98be67edffd8c599615>@@@?$__crt_seh_guarded_call@X@@QAEX$$QAV<lambda_e5124f882df8998aaf41531e079ba474>@@AAV<lambda_3e16ef9562a7dcce91392c22ab16ea36>@@$$QAV<lambda_e25ca0880e6ef98be67edffd8c599615>@@@Z 10027e20     libucrt:wsetlocale.obj
 0002:00007e40       __sehtable$___acrt_initialize_lowio 10027e40     libucrt:ioinit.obj
 0002:00007e60       __sehtable$?update_thread_multibyte_data_internal@@YAPAU__crt_multibyte_data@@QAU__acrt_ptd@@QAPAU1@@Z 10027e60     libucrt:mbctype.obj
 0002:00007e80       __sehtable$??$?RV<lambda_ceb1ee4838e85a9d631eb091e2fbe199>@@AAV<lambda_ae742caa10f662c28703da3d2ea5e57e>@@V<lambda_cd08b5d6af4937fe54fc07d0c9bf6b37>@@@?$__crt_seh_guarded_call@X@@QAEX$$QAV<lambda_ceb1ee4838e85a9d631eb091e2fbe199>@@AAV<lambda_ae742caa10f662c28703da3d2ea5e57e>@@$$QAV<lambda_cd08b5d6af4937fe54fc07d0c9bf6b37>@@@Z 10027e80     libucrt:mbctype.obj
 0002:00007ea0       __sehtable$_raise          10027ea0     libucrt:signal.obj
 0002:00007ec0       __sehtable$??$?RV<lambda_cbab9ec6f41b0180b23cc171c22676b0>@@AAV<lambda_44731a7d0e6d81c3e6aa82d741081786>@@V<lambda_4b292cb8dd18144e164572427af410ab>@@@?$__crt_seh_guarded_call@P6AXH@Z@@QAEP6AXH@Z$$QAV<lambda_cbab9ec6f41b0180b23cc171c22676b0>@@AAV<lambda_44731a7d0e6d81c3e6aa82d741081786>@@$$QAV<lambda_4b292cb8dd18144e164572427af410ab>@@@Z 10027ec0     libucrt:signal.obj
 0002:00007ee0       __sehtable$??$?RV<lambda_2866be3712abc81a800a822484c830d8>@@AAV<lambda_39ca0ed439415581b5b15c265174cece>@@V<lambda_2b24c74d71094a6cd0cb82e44167d71b>@@@?$__crt_seh_guarded_call@X@@QAEX$$QAV<lambda_2866be3712abc81a800a822484c830d8>@@AAV<lambda_39ca0ed439415581b5b15c265174cece>@@$$QAV<lambda_2b24c74d71094a6cd0cb82e44167d71b>@@@Z 10027ee0     libucrt:fflush.obj
 0002:00007f00       __sehtable$??$?RV<lambda_2cc53f568c5a2bb6f192f930a45d44ea>@@AAV<lambda_ab61a845afdef5b7c387490eaf3616ee>@@V<lambda_c2ffc0b7726aa6be21d5f0026187e748>@@@?$__crt_seh_guarded_call@X@@QAEX$$QAV<lambda_2cc53f568c5a2bb6f192f930a45d44ea>@@AAV<lambda_ab61a845afdef5b7c387490eaf3616ee>@@$$QAV<lambda_c2ffc0b7726aa6be21d5f0026187e748>@@@Z 10027f00     libucrt:fflush.obj
 0002:00007f20       __sehtable$___acrt_update_thread_locale_data 10027f20     libucrt:locale_refcounting.obj
 0002:00007f40       __sehtable$__fcloseall     10027f40     libucrt:closeall.obj
 0002:00007f60       __sehtable$___acrt_lowio_ensure_fh_exists 10027f60     libucrt:osfinfo.obj
 0002:00007f80       __sehtable$??$?RV<lambda_9e9de3de5fa147e2223d7db92bc10aa6>@@AAV<lambda_38ce7e780aa69e748d6df282ebc68efe>@@V<lambda_8ca6da459f0f6780f1cff60fdc3d00e5>@@@?$__crt_seh_guarded_call@H@@QAEH$$QAV<lambda_9e9de3de5fa147e2223d7db92bc10aa6>@@AAV<lambda_38ce7e780aa69e748d6df282ebc68efe>@@$$QAV<lambda_8ca6da459f0f6780f1cff60fdc3d00e5>@@@Z 10027f80     libucrt:commit.obj
 0002:00007fa0       __sehtable$__write         10027fa0     libucrt:write.obj
 0002:00007fc0       __sehtable$_fclose         10027fc0     libucrt:fclose.obj
 0002:00007fe0       __sehtable$??$?RV<lambda_218ce3db14220d0be481dae8ef3383b6>@@AAV<lambda_628dfdc04ba53c8bfc02c9951375f3f5>@@V<lambda_57dc472bd5c9d5f3b2cbca59b8a843ae>@@@?$__crt_seh_guarded_call@H@@QAEH$$QAV<lambda_218ce3db14220d0be481dae8ef3383b6>@@AAV<lambda_628dfdc04ba53c8bfc02c9951375f3f5>@@$$QAV<lambda_57dc472bd5c9d5f3b2cbca59b8a843ae>@@@Z 10027fe0     libucrt:close.obj
 0002:00008000       __sehtable$__IsNonwritableInCurrentImage 10028000     LIBCMT:pesect.obj
 0002:00008030       .edata                     10028030     OPOSMSR.exp
 0002:00008058       rgpv                       10028058     OPOSMSR.exp
 0002:00008068       rgszName                   10028068     OPOSMSR.exp
 0002:00008078       rgwOrd                     10028078     OPOSMSR.exp
 0002:00008080       szName                     10028080     OPOSMSR.exp
 0002:0000808c       $N00001                    1002808c     OPOSMSR.exp
 0002:0000809c       $N00002                    1002809c     OPOSMSR.exp
 0002:000080ae       $N00003                    100280ae     OPOSMSR.exp
 0002:000080c0       $N00004                    100280c0     OPOSMSR.exp
 0002:000086d2       .idata$6                   100286d2     kernel32:KERNEL32.dll
 0002:000088e6       .idata$6                   100288e6     user32:USER32.dll
 0002:00008a1a       .idata$6                   10028a1a     gdi32:GDI32.dll
 0002:00008ac0       .idata$6                   10028ac0     advapi32:ADVAPI32.dll
 0002:00008bdc       .idata$6                   10028bdc     ole32:ole32.dll
 0002:00008be6       .idata$6                   10028be6     oleaut32:OLEAUT32.dll
 0003:00000110       ?ObjectMap@@3PAU_ATL_OBJMAP_ENTRY30@ATL@@A 1002a110     MSR.obj
 0003:000001b8       ?s_SOMethodNames@@3PAPADA  1002a1b8     MSRImpl.obj
 0003:0000021c       ?s_RequiredMethodsPerRelease@@3PAHA 1002a21c     MSRImpl.obj
 0003:00000270       ?__vcrt_flsindex@@3KA      1002a270     libvcruntime:per_thread_data.obj
 0003:00000290       ?errno_no_memory@@3HA      1002a290     libucrt:errno.obj
 0003:00000294       ?doserrno_no_memory@@3KA   1002a294     libucrt:errno.obj
 0003:000002a0       ?__acrt_flsindex@@3KA      1002a2a0     libucrt:per_thread_data.obj
 0003:00000638       __mbctypes                 1002a638     libucrt:mbctype.obj
 0003:00000740       __mbcasemaps               1002a740     libucrt:mbctype.obj
 0003:00000840       ?__rgctypeflag@@3PADA      1002a840     libucrt:mbctype.obj
 0003:00000848       ?__rgcode_page_info@@3PAUcode_page_info@@A 1002a848     libucrt:mbctype.obj
 0003:00000aa0       ?__dcrt_lowio_console_output_handle@@3PAXA 1002aaa0     libucrt:initcon.obj
 0003:00000c38       ?is_initialized_as_dll@@3_NA 1002ac38     LIBCMT:utility.obj
 0003:00000c39       ?module_local_atexit_table_initialized@@3_NA 1002ac39     LIBCMT:utility.obj
 0003:00000c3c       ?module_local_atexit_table@@3U_onexit_table_t@@A 1002ac3c     LIBCMT:utility.obj
 0003:00000c48       ?module_local_at_quick_exit_table@@3U_onexit_table_t@@A 1002ac48     LIBCMT:utility.obj
 0003:00000c54       ?g_tss_cv@@3U_RTL_CONDITION_VARIABLE@@A 1002ac54     LIBCMT:thread_safe_statics.obj
 0003:00000c58       ?g_tss_event@@3PAXA        1002ac58     LIBCMT:thread_safe_statics.obj
 0003:00000c5c       ?g_tss_mutex@@3U_RTL_CRITICAL_SECTION@@A 1002ac5c     LIBCMT:thread_safe_statics.obj
 0003:00000c74       ?g_sleep_condition_variable_cs@@3P6GHPAU_RTL_CONDITION_VARIABLE@@PAU_RTL_CRITICAL_SECTION@@K@ZA 1002ac74     LIBCMT:thread_safe_statics.obj
 0003:00000c78       ?g_wake_all_condition_variable@@3P6GXPAU_RTL_CONDITION_VARIABLE@@@ZA 1002ac78     LIBCMT:thread_safe_statics.obj
 0003:00000c80       _GS_ExceptionRecord        1002ac80     LIBCMT:gs_report.obj
 0003:00000cd0       _GS_ContextRecord          1002acd0     LIBCMT:gs_report.obj
 0003:00000fa0       ?__proc_attached@@3HA      1002afa0     LIBCMT:dll_dllmain.obj
 0003:00000ffc       ?AllocateData@@3P6GPAUAtlThunkData_t@@XZA 1002affc     atls:atlthunk.obj
 0003:00001000       ?InitData@@3P6GXPAUAtlThunkData_t@@PAXI@ZA 1002b000     atls:atlthunk.obj
 0003:00001004       ?DataToCode@@3P6GP6GJPAUHWND__@@IIJ@ZPAUAtlThunkData_t@@@ZA 1002b004     atls:atlthunk.obj
 0003:00001008       ?FreeData@@3P6GXPAUAtlThunkData_t@@@ZA 1002b008     atls:atlthunk.obj
 0003:0000100c       ?Initialized@@3_NA         1002b00c     atls:atlthunk.obj
 0003:0000101c       ?__vcrt_startup_thread_ptd@@3U__vcrt_ptd@@A 1002b01c     libvcruntime:per_thread_data.obj
 0003:00001044       ___vcrt_lock_table         1002b044     libvcruntime:locks.obj
 0003:0000105c       ___vcrt_locks_initialized  1002b05c     libvcruntime:locks.obj
 0003:00001088       ?heap@@3V_HeapManager@@A   1002b088     libvcruntime:undname.obj
 0003:0000109c       ?module_handles@@3PAPAUHINSTANCE__@@A 1002b09c     libvcruntime:winapi_downlevel.obj
 0003:000010a8       ?function_pointers@@3PAPAXA 1002b0a8     libvcruntime:winapi_downlevel.obj
 0003:000010bc       ?__acrt_invalid_parameter_handler@@3V?$dual_state_global@P6AXPB_W00II@Z@__crt_state_management@@A 1002b0bc     libucrt:invalid_parameter.obj
 0003:000010c0       ?c_termination_complete@@3JA 1002b0c0     libucrt:exit.obj
 0003:000010c4       ?thread_local_exit_callback_func@@3P6GXPAXK0@ZA 1002b0c4     libucrt:exit.obj
 0003:000010d0       ?program_name@?1???$common_configure_argv@D@@YAHW4_crt_argv_mode@@@Z@4PADA 1002b0d0     libucrt:argv_parsing.obj
 0003:00001200       ?__acrt_new_handler@@3V?$dual_state_global@P6AHI@Z@__crt_state_management@@A 1002b200     libucrt:new_handler.obj
 0003:00001208       ?module_handles@@3PAPAUHINSTANCE__@@A 1002b208     libucrt:winapi_thunks.obj
 0003:00001258       ?encoded_function_pointers@@3PAPAXA 1002b258     libucrt:winapi_thunks.obj
 0003:000012e0       ?internal_state@?1??_mbtowc_l@@9@4U_Mbstatet@@A 1002b2e0     libucrt:mbtowc.obj
 0003:000012f0       ?enable_percent_n@@3IA     1002b2f0     libucrt:printf_count_output.obj
 0003:00001510       ?__acrt_lock_table@@3PAU_RTL_CRITICAL_SECTION@@A 1002b510     libucrt:locks.obj
 0003:00001660       ?__acrt_locks_initialized@@3IA 1002b660     libucrt:locks.obj
 0003:00001670       ?fSystemSet@@3HA           1002b670     libucrt:mbctype.obj
 0003:00001674       ?initialized@?1??__acrt_initialize_multibyte@@9@4_NA 1002b674     libucrt:mbctype.obj
 0003:00001694       ?ctrlc_action@@3V?$dual_state_global@P6AXH@Z@__crt_state_management@@A 1002b694     libucrt:signal.obj
 0003:00001698       ?ctrlbreak_action@@3V?$dual_state_global@P6AXH@Z@__crt_state_management@@A 1002b698     libucrt:signal.obj
 0003:0000169c       ?abort_action@@3V?$dual_state_global@P6AXH@Z@__crt_state_management@@A 1002b69c     libucrt:signal.obj
 0003:000016a0       ?term_action@@3V?$dual_state_global@P6AXH@Z@__crt_state_management@@A 1002b6a0     libucrt:signal.obj
 0003:000016a4       ?user_matherr@@3V?$dual_state_global@P6AHPAU_exception@@@Z@__crt_state_management@@A 1002b6a4     libucrt:matherr.obj
 0003:000016a8       ?__acrt_global_new_mode@@3V?$dual_state_global@J@__crt_state_management@@A 1002b6a8     libucrt:new_mode.obj
 0003:000016b4       ?internal_pst@?1??__mbrtoc32_utf8@__crt_mbstring@@YAIPA_UPBDIPAU_Mbstatet@@@Z@4U3@A 1002b6b4     libucrt:mbrtoc32.obj
 0003:000016bc       ?__acrt_app_type@@3W4_crt_app_type@@A 1002b6bc     libucrt:report_runtime_error.obj
 0003:000016c4       __pmatherr_set             1002b6c4     libucrt:libm_error.obj
 0004:00000220       $R000000                   1002c220     MSR.res
 0004:00000b90       $R000970                   1002cb90     MSR.res
 0004:00000c78       $R000A58                   1002cc78     MSR.res
 0004:00000ee0       $R000CC0                   1002cee0     MSR.res
 0004:00001410       $R0011F0                   1002d410     MSR.res
 0004:00005c00       $R0059E0                   10031c00     MSR.res
 0004:00005c28       $R005A08                   10031c28     MSR.res
