 OPOSCheckScanner

 Timestamp is 5defa8b5 (Tue Dec 10 23:16:21 2019)

 Preferred load address is 10000000

 Start         Length     Name                   Class
 0001:00000000 00000080H .text$di                CODE
 0001:00000080 0001dee3H .text$mn                CODE
 0001:0001df63 00000036H .text$x                 CODE
 0001:0001df99 00000042H .text$yd                CODE
 0002:00000000 000002fcH .idata$5                DATA
 0002:000002fc 00000004H .00cfg                  DATA
 0002:00000300 00000004H .CRT$XCA                DATA
 0002:00000304 00000004H .CRT$XCL                DATA
 0002:00000308 00000010H .CRT$XCU                DATA
 0002:00000318 00000004H .CRT$XCZ                DATA
 0002:0000031c 00000004H .CRT$XIA                DATA
 0002:00000320 00000010H .CRT$XIC                DATA
 0002:00000330 00000004H .CRT$XIZ                DATA
 0002:00000334 00000004H .CRT$XLA                DATA
 0002:00000338 00000004H .CRT$XLZ                DATA
 0002:0000033c 00000004H .CRT$XPA                DATA
 0002:00000340 00000008H .CRT$XPX                DATA
 0002:00000348 00000004H .CRT$XPXA               DATA
 0002:0000034c 00000004H .CRT$XPZ                DATA
 0002:00000350 00000004H .CRT$XTA                DATA
 0002:00000354 0000000cH .CRT$XTZ                DATA
 0002:00000358 00000000H .gfids$y                DATA
 0002:00000360 0000709cH .rdata                  DATA
 0002:000073fc 00000018H .rdata$T                DATA
 0002:00007414 0000017cH .rdata$r                DATA
 0002:00007590 0000001cH .rdata$sxdata           DATA
 0002:000075ac 000003e0H .rdata$zzzdbg           DATA
 0002:0000798c 00000004H .rtc$IAA                DATA
 0002:00007990 00000004H .rtc$IZZ                DATA
 0002:00007994 00000004H .rtc$TAA                DATA
 0002:00007998 00000004H .rtc$TZZ                DATA
 0002:0000799c 00000004H .tls                    DATA
 0002:000079a0 00000004H .tls$                   DATA
 0002:000079a4 00000004H .tls$ZZZ                DATA
 0002:000079a8 0000060cH .xdata$x                DATA
 0002:00007fb4 00000004H ATL$__a                 DATA
 0002:00007fb8 00000008H ATL$__z                 DATA
 0002:00007fc0 000000b0H .edata                  DATA
 0002:00008070 00000078H .idata$2                DATA
 0002:000080e8 00000014H .idata$3                DATA
 0002:000080fc 000002fcH .idata$4                DATA
 0002:000083f8 00000bc8H .idata$6                DATA
 0003:00000000 00000ac0H .data                   DATA
 0003:00000ac0 00000098H .data$r                 DATA
 0003:00000b58 00000b80H .bss                    DATA
 0004:00000000 00000220H .rsrc$01                DATA
 0004:00000220 00005110H .rsrc$02                DATA

  Address         Publics by Value              Rva+Base       Lib:Object

 0000:00000000       ___guard_fids_count        00000000     <absolute>
 0000:00000000       ___guard_iat_count         00000000     <absolute>
 0000:00000000       ___hybrid_code_map_count   00000000     <absolute>
 0000:00000000       ___dynamic_value_reloc_table 00000000     <absolute>
 0000:00000000       ___guard_longjmp_count     00000000     <absolute>
 0000:00000000       __except_list              00000000     <absolute>
 0000:00000000       ___guard_fids_table        00000000     <absolute>
 0000:00000000       ___guard_longjmp_table     00000000     <absolute>
 0000:00000000       ___hybrid_auxiliary_iat    00000000     <absolute>
 0000:00000000       ___guard_iat_table         00000000     <absolute>
 0000:00000000       ___volatile_metadata       00000000     <absolute>
 0000:00000000       ___enclave_config          00000000     <absolute>
 0000:00000000       ___AbsoluteZero            00000000     <absolute>
 0000:00000000       ___hybrid_code_map         00000000     <absolute>
 0000:00000007       ___safe_se_handler_count   00000007     <absolute>
 0000:0000002c       __tls_array                0000002c     <absolute>
 0000:00000100       ___guard_flags             00000100     <absolute>
 0000:00000000       ___ImageBase               10000000     <linker-defined>
 0001:00000080       ?DupWide@_CW@@AAEXXZ       10001080 f   CWString.obj
 0001:0000009c       ?cw_dup@@YGXPBDAAHAAPA_W1@Z 1000109c f   CWString.obj
 0001:00000124       ?cw_memcpy@@YGHPA_WPBDH@Z  10001124 f   CWString.obj
 0001:00000150       ?cw_strcpy@@YAHPA_WPBD@Z   10001150 f   CWString.obj
 0001:00000163       ?cw_strlen@@YAHPBD@Z       10001163 f   CWString.obj
 0001:0000017c       ??0CAtlComModule@ATL@@QAE@XZ 1000117c f i OposVariant.obj
 0001:000001c1       ??0CAtlWinModule@ATL@@QAE@XZ 100011c1 f i OposVariant.obj
 0001:000001f8       ??0OposDispParms@@QAE@PAVOposVariant@@H@Z 100011f8 f   OposVariant.obj
 0001:00000269       ??1OposDispParms@@QAE@XZ   10001269 f   OposVariant.obj
 0001:00000277       ??A?$CSimpleArray@GV?$CSimpleArrayEqualHelper@G@ATL@@@ATL@@QAEAAGH@Z 10001277 f i OposVariant.obj
 0001:0000029c       ??_Estringdispid@CComTypeInfoHolder@ATL@@QAEPAXI@Z 1000129c f i OposVariant.obj
 0001:00000308       ?AtlWinModuleInit@ATL@@YGJPAU_ATL_WIN_MODULE70@1@@Z 10001308 f i OposVariant.obj
 0001:0000032e       ?AtlWinModuleTerm@ATL@@YGJPAU_ATL_WIN_MODULE70@1@PAUHINSTANCE__@@@Z 1000132e f i OposVariant.obj
 0001:00000391       ?ChangeBSTR@OposVariant@@QAEXPAPA_WAAJ@Z 10001391 f   OposVariant.obj
 0001:000003d2       ?ChangeLONG@OposVariant@@QAEXPAJAAJ@Z 100013d2 f   OposVariant.obj
 0001:00000413       ?GetLONG@OposVariant@@QAEJXZ 10001413 f   OposVariant.obj
 0001:0000042e       ?Init@CComCriticalSection@ATL@@QAEJXZ 1000142e f i OposVariant.obj
 0001:00000456       ?RemoveAll@?$CSimpleArray@GV?$CSimpleArrayEqualHelper@G@ATL@@@ATL@@QAEXXZ 10001456 f i OposVariant.obj
 0001:00000456       ?RemoveAll@?$CSimpleArray@PAUHINSTANCE__@@V?$CSimpleArrayEqualHelper@PAUHINSTANCE__@@@ATL@@@ATL@@QAEXXZ 10001456 f i atls:atlbase.obj
 0001:00000473       ?SetBSTR@OposVariant@@QAEXPA_WAAJ@Z 10001473 f   OposVariant.obj
 0001:000004a7       ?SetBSTR_Copy@OposVariant@@QAEXPA_WAAJ@Z 100014a7 f   OposVariant.obj
 0001:000004f7       ?SetBSTR_InOutPtr@OposVariant@@QAE_NPAPA_WAAJ@Z 100014f7 f   OposVariant.obj
 0001:0000052e       ?SetDispatch_Ptr@OposVariant@@QAEXPAUIDispatch@@AAJ@Z 1000152e f   OposVariant.obj
 0001:00000569       ?SetLONG@OposVariant@@QAEXJ@Z 10001569 f   OposVariant.obj
 0001:0000058b       ?SetLONG_Ptr@OposVariant@@QAEXPAJAAJ@Z 1000158b f   OposVariant.obj
 0001:000005be       ?SetString@OposVariant@@QAEXPB_WAAJ@Z 100015be f   OposVariant.obj
 0001:00000604       ?SetVARIANT_BOOL@OposVariant@@QAEXF@Z 10001604 f   OposVariant.obj
 0001:0000062e       ?Term@CAtlComModule@ATL@@QAEXXZ 1000162e f i OposVariant.obj
 0001:00000678       ?_AtlRaiseException@ATL@@YAXKK@Z 10001678 f i OposVariant.obj
 0001:0000068d       ?AddRef@?$CComContainedObject@VCOPOSCheckScanner@@@ATL@@WKA@AGKXZ 1000168d f i CheckScanner.obj
 0001:0000069a       ?Release@?$CComContainedObject@VCOPOSCheckScanner@@@ATL@@WKA@AGKXZ 1000169a f i CheckScanner.obj
 0001:000006a7       ?AddRef@?$CComContainedObject@VCOPOSCheckScanner@@@ATL@@WKI@AGKXZ 100016a7 f i CheckScanner.obj
 0001:000006b4       ?Release@?$CComContainedObject@VCOPOSCheckScanner@@@ATL@@WKI@AGKXZ 100016b4 f i CheckScanner.obj
 0001:000006c1       ?CreateInstance@CComClassFactory@ATL@@UAGJPAUIUnknown@@ABU_GUID@@PAPAX@Z 100016c1 f i CheckScanner.obj
 0001:000006ff       ?AddRef@?$CComContainedObject@VCOPOSCheckScanner@@@ATL@@WLE@AGKXZ 100016ff f i CheckScanner.obj
 0001:0000070c       ?Release@?$CComContainedObject@VCOPOSCheckScanner@@@ATL@@WLE@AGKXZ 1000170c f i CheckScanner.obj
 0001:00000719       ?LockServer@CComClassFactory@ATL@@UAGJH@Z 10001719 f i CheckScanner.obj
 0001:00000738       ??_ECComClassFactory@ATL@@UAEPAXI@Z 10001738 f i CheckScanner.obj
 0001:00000738       ??_GCComClassFactory@ATL@@UAEPAXI@Z 10001738 f i CheckScanner.obj
 0001:00000763       ?GetWindowProc@?$CWindowImplBaseT@VCWindow@ATL@@V?$CWinTraits@$0FGAAAAAA@$0A@@2@@ATL@@UAEP6GJPAUHWND__@@IIJ@ZXZ 10001763 f i CheckScanner.obj
 0001:00000769       ?StartWindowProc@?$CWindowImplBaseT@VCWindow@ATL@@V?$CWinTraits@$0FGAAAAAA@$0A@@2@@ATL@@SGJPAUHWND__@@IIJ@Z 10001769 f i CheckScanner.obj
 0001:000007bd       ?OnFinalMessage@?$CWindowImplBaseT@VCWindow@ATL@@V?$CWinTraits@$0FGAAAAAA@$0A@@2@@ATL@@UAEXPAUHWND__@@@Z 100017bd f i CheckScanner.obj
 0001:000007bd       ?ObjectMain@CComObjectRootBase@ATL@@SGX_N@Z 100017bd f i CheckScanner.obj
 0001:000007c0       ?GetTypeInfoCount@?$IDispatchImpl@UIOPOSCheckScanner@@$1?IID_IOPOSCheckScanner@@3U_GUID@@B$1?LIBID_OposCheckScanner_CCO@@3U3@B$00$0A@VCComTypeInfoHolder@ATL@@@ATL@@UAGJPAI@Z 100017c0 f i CheckScanner.obj
 0001:000007dd       ?GetTypeInfo@?$IDispatchImpl@UIOPOSCheckScanner@@$1?IID_IOPOSCheckScanner@@3U_GUID@@B$1?LIBID_OposCheckScanner_CCO@@3U3@B$00$0A@VCComTypeInfoHolder@ATL@@@ATL@@UAGJIKPAPAUITypeInfo@@@Z 100017dd f i CheckScanner.obj
 0001:00000801       ?GetIDsOfNames@?$IDispatchImpl@UIOPOSCheckScanner@@$1?IID_IOPOSCheckScanner@@3U_GUID@@B$1?LIBID_OposCheckScanner_CCO@@3U3@B$00$0A@VCComTypeInfoHolder@ATL@@@ATL@@UAGJABU_GUID@@PAPA_WIKPAJ@Z 10001801 f i CheckScanner.obj
 0001:00000821       ?Invoke@?$IDispatchImpl@UIOPOSCheckScanner@@$1?IID_IOPOSCheckScanner@@3U_GUID@@B$1?LIBID_OposCheckScanner_CCO@@3U3@B$00$0A@VCComTypeInfoHolder@ATL@@@ATL@@UAGJJABU_GUID@@KGPAUtagDISPPARAMS@@PAUtagVARIANT@@PAUtagEXCEPINFO@@PAI@Z 10001821 f i CheckScanner.obj
 0001:0000082f       ?CreateControlWindow@?$CComControl@VCOPOSCheckScanner@@V?$CWindowImpl@VCOPOSCheckScanner@@VCWindow@ATL@@V?$CWinTraits@$0FGAAAAAA@$0A@@3@@ATL@@@ATL@@UAEPAUHWND__@@PAU3@AAUtagRECT@@@Z 1000182f f i CheckScanner.obj
 0001:0000085e       ?ControlQueryInterface@?$CComControl@VCOPOSCheckScanner@@V?$CWindowImpl@VCOPOSCheckScanner@@VCWindow@ATL@@V?$CWinTraits@$0FGAAAAAA@$0A@@3@@ATL@@@ATL@@UAEJABU_GUID@@PAPAX@Z 1000185e f i CheckScanner.obj
 0001:00000879       ?GetClassID@?$IPersistStorageImpl@VCOPOSCheckScanner@@@ATL@@UAGJPAU_GUID@@@Z 10001879 f i CheckScanner.obj
 0001:00000879       ?GetClassID@?$IPersistStreamInitImpl@VCOPOSCheckScanner@@@ATL@@UAGJPAU_GUID@@@Z 10001879 f i CheckScanner.obj
 0001:00000879       ?GetUserClassID@?$IOleObjectImpl@VCOPOSCheckScanner@@@ATL@@UAGJPAU_GUID@@@Z 10001879 f i CheckScanner.obj
 0001:0000089d       ?IsDirty@?$IPersistStreamInitImpl@VCOPOSCheckScanner@@@ATL@@UAGJXZ 1000189d f i CheckScanner.obj
 0001:000008bc       ?Load@?$IPersistStreamInitImpl@VCOPOSCheckScanner@@@ATL@@UAGJPAUIStream@@@Z 100018bc f i CheckScanner.obj
 0001:000008db       ?Save@?$IPersistStreamInitImpl@VCOPOSCheckScanner@@@ATL@@UAGJPAUIStream@@H@Z 100018db f i CheckScanner.obj
 0001:000008fd       ?GetSizeMax@?$IPersistStreamInitImpl@VCOPOSCheckScanner@@@ATL@@UAGJPAT_ULARGE_INTEGER@@@Z 100018fd f i CheckScanner.obj
 0001:00000adc       ?InitNew@?$IPersistStreamInitImpl@VCOPOSCheckScanner@@@ATL@@UAGJXZ 10001adc f i CheckScanner.obj
 0001:00000af9       ?GetControlInfo@?$IOleControlImpl@VCOPOSCheckScanner@@@ATL@@UAGJPAUtagCONTROLINFO@@@Z 10001af9 f i CheckScanner.obj
 0001:00000af9       ?OnMnemonic@?$IOleControlImpl@VCOPOSCheckScanner@@@ATL@@UAGJPAUtagMSG@@@Z 10001af9 f i CheckScanner.obj
 0001:00000af9       ?Unfreeze@?$IViewObjectExImpl@VCOPOSCheckScanner@@@ATL@@UAGJK@Z 10001af9 f i CheckScanner.obj
 0001:00000af9       ?GetDropTarget@?$IOleInPlaceObjectWindowlessImpl@VCOPOSCheckScanner@@@ATL@@UAGJPAPAUIDropTarget@@@Z 10001af9 f i CheckScanner.obj
 0001:00000af9       ?ContextSensitiveHelp@?$IOleInPlaceActiveObjectImpl@VCOPOSCheckScanner@@@ATL@@UAGJH@Z 10001af9 f i CheckScanner.obj
 0001:00000af9       ?QueryGetData@?$IDataObjectImpl@VCOPOSCheckScanner@@@ATL@@UAGJPAUtagFORMATETC@@@Z 10001af9 f i CheckScanner.obj
 0001:00000af9       ?ContextSensitiveHelp@?$IOleInPlaceObjectWindowlessImpl@VCOPOSCheckScanner@@@ATL@@UAGJH@Z 10001af9 f i CheckScanner.obj
 0001:00000af9       ?SetColorScheme@?$IOleObjectImpl@VCOPOSCheckScanner@@@ATL@@UAGJPAUtagLOGPALETTE@@@Z 10001af9 f i CheckScanner.obj
 0001:00000af9       ?SOOutputCompleteDummy@COPOSCheckScanner@@MAGJJ@Z 10001af9 f i CheckScanner.obj
 0001:00000b01       ?OnFrameWindowActivate@?$IOleInPlaceActiveObjectImpl@VCOPOSCheckScanner@@@ATL@@UAGJH@Z 10001b01 f i CheckScanner.obj
 0001:00000b01       ?EnableModeless@?$IOleInPlaceActiveObjectImpl@VCOPOSCheckScanner@@@ATL@@UAGJH@Z 10001b01 f i CheckScanner.obj
 0001:00000b01       ?OnAmbientPropertyChange@?$IOleControlImpl@VCOPOSCheckScanner@@@ATL@@UAGJJ@Z 10001b01 f i CheckScanner.obj
 0001:00000b01       ?SaveCompleted@?$IPersistStorageImpl@VCOPOSCheckScanner@@@ATL@@UAGJPAUIStorage@@@Z 10001b01 f i CheckScanner.obj
 0001:00000b06       ?SetClientSite@?$IOleObjectImpl@VCOPOSCheckScanner@@@ATL@@UAGJPAUIOleClientSite@@@Z 10001b06 f i CheckScanner.obj
 0001:00000b23       ?GetClientSite@?$IOleObjectImpl@VCOPOSCheckScanner@@@ATL@@UAGJPAPAUIOleClientSite@@@Z 10001b23 f i CheckScanner.obj
 0001:00000b40       ?SetHostNames@?$IOleObjectImpl@VCOPOSCheckScanner@@@ATL@@UAGJPB_W0@Z 10001b40 f i CheckScanner.obj
 0001:00000b45       ?Close@?$IOleObjectImpl@VCOPOSCheckScanner@@@ATL@@UAGJK@Z 10001b45 f i CheckScanner.obj
 0001:00000b62       ?GetRect@?$IViewObjectExImpl@VCOPOSCheckScanner@@@ATL@@UAGJKPAU_RECTL@@@Z 10001b62 f i CheckScanner.obj
 0001:00000b62       ?QueryInterface@CRegObject@ATL@@UAGJABU_GUID@@PAPAX@Z 10001b62 f i CheckScanner.obj
 0001:00000b62       ?GetClipboardData@?$IOleObjectImpl@VCOPOSCheckScanner@@@ATL@@UAGJKPAPAUIDataObject@@@Z 10001b62 f i CheckScanner.obj
 0001:00000b62       ?SetMoniker@?$IOleObjectImpl@VCOPOSCheckScanner@@@ATL@@UAGJKPAUIMoniker@@@Z 10001b62 f i CheckScanner.obj
 0001:00000b62       ?EnumFormatEtc@?$IDataObjectImpl@VCOPOSCheckScanner@@@ATL@@UAGJKPAPAUIEnumFORMATETC@@@Z 10001b62 f i CheckScanner.obj
 0001:00000b62       ?GetCanonicalFormatEtc@?$IDataObjectImpl@VCOPOSCheckScanner@@@ATL@@UAGJPAUtagFORMATETC@@0@Z 10001b62 f i CheckScanner.obj
 0001:00000b62       ?GetDataHere@?$IDataObjectImpl@VCOPOSCheckScanner@@@ATL@@UAGJPAUtagFORMATETC@@PAUtagSTGMEDIUM@@@Z 10001b62 f i CheckScanner.obj
 0001:00000b6a       ?InitFromData@?$IOleObjectImpl@VCOPOSCheckScanner@@@ATL@@UAGJPAUIDataObject@@HK@Z 10001b6a f i CheckScanner.obj
 0001:00000b6a       ?SetData@?$IDataObjectImpl@VCOPOSCheckScanner@@@ATL@@UAGJPAUtagFORMATETC@@PAUtagSTGMEDIUM@@H@Z 10001b6a f i CheckScanner.obj
 0001:00000b6a       ?GetMoniker@?$IOleObjectImpl@VCOPOSCheckScanner@@@ATL@@UAGJKKPAPAUIMoniker@@@Z 10001b6a f i CheckScanner.obj
 0001:00000b72       ?DoVerb@?$IOleObjectImpl@VCOPOSCheckScanner@@@ATL@@UAGJJPAUtagMSG@@PAUIOleClientSite@@JPAUHWND__@@PBUtagRECT@@@Z 10001b72 f i CheckScanner.obj
 0001:00000c66       ?EnumVerbs@?$IOleObjectImpl@VCOPOSCheckScanner@@@ATL@@UAGJPAPAUIEnumOLEVERB@@@Z 10001c66 f i CheckScanner.obj
 0001:00000c88       ?HandsOffStorage@?$IPersistStorageImpl@VCOPOSCheckScanner@@@ATL@@UAGJXZ 10001c88 f i CheckScanner.obj
 0001:00000c88       ?IsUpToDate@?$IOleObjectImpl@VCOPOSCheckScanner@@@ATL@@UAGJXZ 10001c88 f i CheckScanner.obj
 0001:00000c88       ?Update@?$IOleObjectImpl@VCOPOSCheckScanner@@@ATL@@UAGJXZ 10001c88 f i CheckScanner.obj
 0001:00000c88       ?Release@CRegObject@ATL@@UAGKXZ 10001c88 f i CheckScanner.obj
 0001:00000c8d       ?GetUserType@?$IOleObjectImpl@VCOPOSCheckScanner@@@ATL@@UAGJKPAPA_W@Z 10001c8d f i CheckScanner.obj
 0001:00000ca5       ?SetExtent@?$IOleObjectImpl@VCOPOSCheckScanner@@@ATL@@UAGJKPAUtagSIZE@@@Z 10001ca5 f i CheckScanner.obj
 0001:00000cc5       ?GetExtent@?$IOleObjectImpl@VCOPOSCheckScanner@@@ATL@@UAGJKPAUtagSIZE@@@Z 10001cc5 f i CheckScanner.obj
 0001:00000d03       ?Advise@?$IOleObjectImpl@VCOPOSCheckScanner@@@ATL@@UAGJPAUIAdviseSink@@PAK@Z 10001d03 f i CheckScanner.obj
 0001:00000d23       ?Unadvise@?$IOleObjectImpl@VCOPOSCheckScanner@@@ATL@@UAGJK@Z 10001d23 f i CheckScanner.obj
 0001:00000d52       ?EnumAdvise@?$IOleObjectImpl@VCOPOSCheckScanner@@@ATL@@UAGJPAPAUIEnumSTATDATA@@@Z 10001d52 f i CheckScanner.obj
 0001:00000d92       ?GetMiscStatus@?$IOleObjectImpl@VCOPOSCheckScanner@@@ATL@@UAGJKPAK@Z 10001d92 f i CheckScanner.obj
 0001:00000daa       ?GetWindow@?$IOleInPlaceActiveObjectImpl@VCOPOSCheckScanner@@@ATL@@UAGJPAPAUHWND__@@@Z 10001daa f i CheckScanner.obj
 0001:00000df7       ?TranslateAcceleratorW@?$IOleInPlaceActiveObjectImpl@VCOPOSCheckScanner@@@ATL@@UAGJPAUtagMSG@@@Z 10001df7 f i CheckScanner.obj
 0001:00000ea5       ?OnDocWindowActivate@?$IOleInPlaceActiveObjectImpl@VCOPOSCheckScanner@@@ATL@@UAGJH@Z 10001ea5 f i CheckScanner.obj
 0001:00000ec7       ?ResizeBorder@?$IOleInPlaceActiveObjectImpl@VCOPOSCheckScanner@@@ATL@@UAGJPBUtagRECT@@PAUIOleInPlaceUIWindow@@H@Z 10001ec7 f i CheckScanner.obj
 0001:00000ecc       ?Draw@?$IViewObjectExImpl@VCOPOSCheckScanner@@@ATL@@UAGJKJPAXPAUtagDVTARGETDEVICE@@PAUHDC__@@2PBU_RECTL@@3P6GHK@ZK@Z 10001ecc f i CheckScanner.obj
 0001:00000efe       ?GetColorSet@?$IViewObjectExImpl@VCOPOSCheckScanner@@@ATL@@UAGJKJPAXPAUtagDVTARGETDEVICE@@PAUHDC__@@PAPAUtagLOGPALETTE@@@Z 10001efe f i CheckScanner.obj
 0001:00000f06       ?Freeze@?$IViewObjectExImpl@VCOPOSCheckScanner@@@ATL@@UAGJKJPAXPAK@Z 10001f06 f i CheckScanner.obj
 0001:00000f0e       ?SetAdvise@?$IViewObjectExImpl@VCOPOSCheckScanner@@@ATL@@UAGJKKPAUIAdviseSink@@@Z 10001f0e f i CheckScanner.obj
 0001:00000f2d       ?GetAdvise@?$IViewObjectExImpl@VCOPOSCheckScanner@@@ATL@@UAGJPAK0PAPAUIAdviseSink@@@Z 10001f2d f i CheckScanner.obj
 0001:00000f62       ?GetExtent@?$IViewObjectExImpl@VCOPOSCheckScanner@@@ATL@@UAGJKJPAUtagDVTARGETDEVICE@@PAUtagSIZE@@@Z 10001f62 f i CheckScanner.obj
 0001:00000f93       ?GetViewStatus@?$IViewObjectExImpl@VCOPOSCheckScanner@@@ATL@@UAGJPAK@Z 10001f93 f i CheckScanner.obj
 0001:00000fb0       ?QueryHitPoint@?$IViewObjectExImpl@VCOPOSCheckScanner@@@ATL@@UAGJKPBUtagRECT@@UtagPOINT@@JPAK@Z 10001fb0 f i CheckScanner.obj
 0001:00000ff1       ?QueryHitRect@?$IViewObjectExImpl@VCOPOSCheckScanner@@@ATL@@UAGJKPBUtagRECT@@0JPAK@Z 10001ff1 f i CheckScanner.obj
 0001:0000104c       ?GetNaturalExtent@?$IViewObjectExImpl@VCOPOSCheckScanner@@@ATL@@UAGJKJPAUtagDVTARGETDEVICE@@PAUHDC__@@PAUtagExtentInfo@@PAUtagSIZE@@@Z 1000204c f i CheckScanner.obj
 0001:00001097       ?GetWindow@?$IOleInPlaceObjectWindowlessImpl@VCOPOSCheckScanner@@@ATL@@UAGJPAPAUHWND__@@@Z 10002097 f i CheckScanner.obj
 0001:000010e4       ?InPlaceDeactivate@?$IOleInPlaceObjectWindowlessImpl@VCOPOSCheckScanner@@@ATL@@UAGJXZ 100020e4 f i CheckScanner.obj
 0001:000010fe       ?UIDeactivate@?$IOleInPlaceObjectWindowlessImpl@VCOPOSCheckScanner@@@ATL@@UAGJXZ 100020fe f i CheckScanner.obj
 0001:00001118       ?SetObjectRects@?$IOleInPlaceObjectWindowlessImpl@VCOPOSCheckScanner@@@ATL@@UAGJPBUtagRECT@@0@Z 10002118 f i CheckScanner.obj
 0001:00001138       ?ReactivateAndUndo@?$IOleInPlaceObjectWindowlessImpl@VCOPOSCheckScanner@@@ATL@@UAGJXZ 10002138 f i CheckScanner.obj
 0001:00001140       ?OnWindowMessage@?$IOleInPlaceObjectWindowlessImpl@VCOPOSCheckScanner@@@ATL@@UAGJIIJPAJ@Z 10002140 f i CheckScanner.obj
 0001:000011b0       ?EnumConnectionPoints@?$IConnectionPointContainerImpl@VCOPOSCheckScanner@@@ATL@@UAGJPAPAUIEnumConnectionPoints@@@Z 100021b0 f i CheckScanner.obj
 0001:0000132a       ?FindConnectionPoint@?$IConnectionPointContainerImpl@VCOPOSCheckScanner@@@ATL@@UAGJABU_GUID@@PAPAUIConnectionPoint@@@Z 1000232a f i CheckScanner.obj
 0001:000013cd       ?IsDirty@?$IPersistStorageImpl@VCOPOSCheckScanner@@@ATL@@UAGJXZ 100023cd f i CheckScanner.obj
 0001:00001401       ?InitNew@?$IPersistStorageImpl@VCOPOSCheckScanner@@@ATL@@UAGJPAUIStorage@@@Z 10002401 f i CheckScanner.obj
 0001:00001435       ?Load@?$IPersistStorageImpl@VCOPOSCheckScanner@@@ATL@@UAGJPAUIStorage@@@Z 10002435 f i CheckScanner.obj
 0001:000014a1       ?Save@?$IPersistStorageImpl@VCOPOSCheckScanner@@@ATL@@UAGJPAUIStorage@@H@Z 100024a1 f i CheckScanner.obj
 0001:00001514       ?GetPages@?$ISpecifyPropertyPagesImpl@VCOPOSCheckScanner@@@ATL@@UAGJPAUtagCAUUID@@@Z 10002514 f i CheckScanner.obj
 0001:0000152b       ?QuickActivate@?$IQuickActivateImpl@VCOPOSCheckScanner@@@ATL@@UAGJPAUtagQACONTAINER@@PAUtagQACONTROL@@@Z 1000252b f i CheckScanner.obj
 0001:0000154e       ?SetContentExtent@?$IQuickActivateImpl@VCOPOSCheckScanner@@@ATL@@UAGJPAUtagSIZE@@@Z 1000254e f i CheckScanner.obj
 0001:0000157a       ?GetContentExtent@?$IQuickActivateImpl@VCOPOSCheckScanner@@@ATL@@UAGJPAUtagSIZE@@@Z 1000257a f i CheckScanner.obj
 0001:000015b4       ?GetData@?$IDataObjectImpl@VCOPOSCheckScanner@@@ATL@@UAGJPAUtagFORMATETC@@PAUtagSTGMEDIUM@@@Z 100025b4 f i CheckScanner.obj
 0001:000015d7       ?DAdvise@?$IDataObjectImpl@VCOPOSCheckScanner@@@ATL@@UAGJPAUtagFORMATETC@@KPAUIAdviseSink@@PAK@Z 100025d7 f i CheckScanner.obj
 0001:00001618       ?DUnadvise@?$IDataObjectImpl@VCOPOSCheckScanner@@@ATL@@UAGJK@Z 10002618 f i CheckScanner.obj
 0001:00001646       ?EnumDAdvise@?$IDataObjectImpl@VCOPOSCheckScanner@@@ATL@@UAGJPAPAUIEnumSTATDATA@@@Z 10002646 f i CheckScanner.obj
 0001:00001685       ?GetClassInfoW@?$IProvideClassInfo2Impl@$1?CLSID_OPOSCheckScanner@@3U_GUID@@B$1?DIID__IOPOSCheckScannerEvents@@3U2@B$1?LIBID_OposCheckScanner_CCO@@3U2@B$00$0A@VCComTypeInfoHolder@ATL@@@ATL@@UAGJPAPAUITypeInfo@@@Z 10002685 f i CheckScanner.obj
 0001:0000169b       ?GetGUID@?$IProvideClassInfo2Impl@$1?CLSID_OPOSCheckScanner@@3U_GUID@@B$1?DIID__IOPOSCheckScannerEvents@@3U2@B$1?LIBID_OposCheckScanner_CCO@@3U2@B$00$0A@VCComTypeInfoHolder@ATL@@@ATL@@UAGJKPAU_GUID@@@Z 1000269b f i CheckScanner.obj
 0001:000016d9       __get_startup_argv_mode    100026d9 f i LIBCMT:argv_mode.obj
 0001:000016d9       ?FAccessAllowed@?$IObjectSafetyImpl@VCOPOSCheckScanner@@$02@ATL@@MAEHXZ 100026d9 f i CheckScanner.obj
 0001:000016dd       ?GetInterfaceSafetyOptions@?$IObjectSafetyImpl@VCOPOSCheckScanner@@$02@ATL@@UAGJABU_GUID@@PAK1@Z 100026dd f i CheckScanner.obj
 0001:00001751       ?SetInterfaceSafetyOptions@?$IObjectSafetyImpl@VCOPOSCheckScanner@@$02@ATL@@UAGJABU_GUID@@KK@Z 10002751 f i CheckScanner.obj
 0001:000017cb       ?_LocCPQueryInterface@?$IConnectionPointImpl@VCOPOSCheckScanner@@$1?DIID__IOPOSCheckScannerEvents@@3U_GUID@@BVCComDynamicUnkArray@ATL@@@ATL@@UAGJABU_GUID@@PAPAX@Z 100027cb f i CheckScanner.obj
 0001:000017cb       ?_LocCPQueryInterface@?$IConnectionPointImpl@VCOPOSCheckScanner@@$1?IID_IPropertyNotifySink@@3U_GUID@@BVCComDynamicUnkArray@ATL@@@ATL@@UAGJABU_GUID@@PAPAX@Z 100027cb f i CheckScanner.obj
 0001:00001818       ?GetConnectionInterface@?$IConnectionPointImpl@VCOPOSCheckScanner@@$1?IID_IPropertyNotifySink@@3U_GUID@@BVCComDynamicUnkArray@ATL@@@ATL@@UAGJPAU_GUID@@@Z 10002818 f i CheckScanner.obj
 0001:0000183c       ?GetConnectionPointContainer@?$IConnectionPointImpl@VCOPOSCheckScanner@@$1?IID_IPropertyNotifySink@@3U_GUID@@BVCComDynamicUnkArray@ATL@@@ATL@@UAGJPAPAUIConnectionPointContainer@@@Z 1000283c f i CheckScanner.obj
 0001:0000185f       ?Advise@?$IConnectionPointImpl@VCOPOSCheckScanner@@$1?DIID__IOPOSCheckScannerEvents@@3U_GUID@@BVCComDynamicUnkArray@ATL@@@ATL@@UAGJPAUIUnknown@@PAK@Z 1000285f f i CheckScanner.obj
 0001:0000185f       ?Advise@?$IConnectionPointImpl@VCOPOSCheckScanner@@$1?IID_IPropertyNotifySink@@3U_GUID@@BVCComDynamicUnkArray@ATL@@@ATL@@UAGJPAUIUnknown@@PAK@Z 1000285f f i CheckScanner.obj
 0001:00001900       ?Unadvise@?$IConnectionPointImpl@VCOPOSCheckScanner@@$1?IID_IPropertyNotifySink@@3U_GUID@@BVCComDynamicUnkArray@ATL@@@ATL@@UAGJK@Z 10002900 f i CheckScanner.obj
 0001:00001900       ?Unadvise@?$IConnectionPointImpl@VCOPOSCheckScanner@@$1?DIID__IOPOSCheckScannerEvents@@3U_GUID@@BVCComDynamicUnkArray@ATL@@@ATL@@UAGJK@Z 10002900 f i CheckScanner.obj
 0001:00001940       ?EnumConnections@?$IConnectionPointImpl@VCOPOSCheckScanner@@$1?IID_IPropertyNotifySink@@3U_GUID@@BVCComDynamicUnkArray@ATL@@@ATL@@UAGJPAPAUIEnumConnections@@@Z 10002940 f i CheckScanner.obj
 0001:00001940       ?EnumConnections@?$IConnectionPointImpl@VCOPOSCheckScanner@@$1?DIID__IOPOSCheckScannerEvents@@3U_GUID@@BVCComDynamicUnkArray@ATL@@@ATL@@UAGJPAPAUIEnumConnections@@@Z 10002940 f i CheckScanner.obj
 0001:00001a46       ?GetObjectDescription@?$CComCoClass@VCOPOSCheckScanner@@$1?CLSID_OPOSCheckScanner@@3U_GUID@@B@ATL@@SGPB_WXZ 10002a46 f i CheckScanner.obj
 0001:00001a46       ?GetCategoryMap@CComObjectRootBase@ATL@@SAPBU_ATL_CATMAP_ENTRY@2@XZ 10002a46 f i CheckScanner.obj
 0001:00001a49       ?GetConnectionInterface@?$IConnectionPointImpl@VCOPOSCheckScanner@@$1?DIID__IOPOSCheckScannerEvents@@3U_GUID@@BVCComDynamicUnkArray@ATL@@@ATL@@UAGJPAU_GUID@@@Z 10002a49 f i CheckScanner.obj
 0001:00001a6d       ?GetConnectionPointContainer@?$IConnectionPointImpl@VCOPOSCheckScanner@@$1?DIID__IOPOSCheckScannerEvents@@3U_GUID@@BVCComDynamicUnkArray@ATL@@@ATL@@UAGJPAPAUIConnectionPointContainer@@@Z 10002a6d f i CheckScanner.obj
 0001:00001a90       ?UpdateRegistry@COPOSCheckScanner@@SGJH@Z 10002a90 f i CheckScanner.obj
 0001:00001aa8       ?ProcessWindowMessage@COPOSCheckScanner@@UAEHPAUHWND__@@IIJAAJK@Z 10002aa8 f i CheckScanner.obj
 0001:00001af1       ?Lock@CAtlModule@ATL@@UAEJXZ 10002af1 f i CheckScanner.obj
 0001:00001afb       ?Unlock@CAtlModule@ATL@@UAEJXZ 10002afb f i CheckScanner.obj
 0001:00001b05       ?GetLockCount@CAtlModule@ATL@@UAEJXZ 10002b05 f i CheckScanner.obj
 0001:00001b09       ?SOData@COPOSCheckScanner@@MAGJJ@Z 10002b09 f i CheckScanner.obj
 0001:00001b42       ?GetGITPtr@CAtlModule@ATL@@UAEJPAPAUIGlobalInterfaceTable@@@Z 10002b42 f i CheckScanner.obj
 0001:00001b8e       ?SODirectIO@COPOSCheckScanner@@MAGJJPAJPAPA_W@Z 10002b8e f i CheckScanner.obj
 0001:00001bd7       ?SOError@COPOSCheckScanner@@MAGJJJJPAJ@Z 10002bd7 f i CheckScanner.obj
 0001:00001c2c       ?SOStatusUpdate@COPOSCheckScanner@@MAGJJ@Z 10002c2c f i CheckScanner.obj
 0001:00001c65       ?AddCommonRGSReplacements@?$CAtlModuleT@VCComModule@ATL@@@ATL@@UAEJPAUIRegistrarBase@@@Z 10002c65 f i CheckScanner.obj
 0001:00001c7f       ?UpdateRegistryFromResourceD@CComModule@ATL@@UAGJIHPAU_ATL_REGMAP_ENTRY@2@@Z 10002c7f f i CheckScanner.obj
 0001:00001c7f       ?UpdateRegistryFromResourceD@CComModule@ATL@@UAGJPB_WHPAU_ATL_REGMAP_ENTRY@2@@Z 10002c7f f i CheckScanner.obj
 0001:00001c87       ?UpdateRegistryFromResource@CComModule@ATL@@UAGJPB_WHPAU_ATL_REGMAP_ENTRY@2@@Z 10002c87 f i CheckScanner.obj
 0001:00001c90       ?UpdateRegistryFromResource@CComModule@ATL@@UAGJIHPAU_ATL_REGMAP_ENTRY@2@@Z 10002c90 f i CheckScanner.obj
 0001:00001c99       ??_GCComModule@ATL@@UAEPAXI@Z 10002c99 f i CheckScanner.obj
 0001:00001c99       ??_ECComModule@ATL@@UAEPAXI@Z 10002c99 f i CheckScanner.obj
 0001:00001cc1       ?CreateInstance@?$CComCreator@V?$CComObjectCached@VCComClassFactory@ATL@@@ATL@@@ATL@@SGJPAXABU_GUID@@PAPAX@Z 10002cc1 f i CheckScanner.obj
 0001:00001d6d       ?CreateInstance@?$CComCreator2@V?$CComCreator@V?$CComObject@VCOPOSCheckScanner@@@ATL@@@ATL@@V?$CComCreator@V?$CComAggObject@VCOPOSCheckScanner@@@ATL@@@2@@ATL@@SGJPAXABU_GUID@@PAPAX@Z 10002d6d f i CheckScanner.obj
 0001:00001d8d       ?AddRef@?$CComObjectCached@VCComClassFactory@ATL@@@ATL@@UAGKXZ 10002d8d f i CheckScanner.obj
 0001:00001db4       ?Release@?$CComObjectCached@VCComClassFactory@ATL@@@ATL@@UAGKXZ 10002db4 f i CheckScanner.obj
 0001:00001dea       ?QueryInterface@?$CComObjectCached@VCComClassFactory@ATL@@@ATL@@UAGJABU_GUID@@PAPAX@Z 10002dea f i CheckScanner.obj
 0001:00001e04       ??_E?$CComObjectCached@VCComClassFactory@ATL@@@ATL@@UAEPAXI@Z 10002e04 f i CheckScanner.obj
 0001:00001e04       ??_G?$CComObjectCached@VCComClassFactory@ATL@@@ATL@@UAEPAXI@Z 10002e04 f i CheckScanner.obj
 0001:00001e26       ?Next@?$CComEnumImpl@UIEnumConnectionPoints@@$1?_GUID_b196b285_bab4_101a_b69c_00aa00341d07@@3U__s_GUID@@BPAUIConnectionPoint@@V?$_CopyInterface@UIConnectionPoint@@@ATL@@@ATL@@UAGJKPAPAUIConnectionPoint@@PAK@Z 10002e26 f i CheckScanner.obj
 0001:00001efd       ?Skip@?$CComEnumImpl@UIEnumConnectionPoints@@$1?_GUID_b196b285_bab4_101a_b69c_00aa00341d07@@3U__s_GUID@@BPAUIConnectionPoint@@V?$_CopyInterface@UIConnectionPoint@@@ATL@@@ATL@@UAGJK@Z 10002efd f i CheckScanner.obj
 0001:00001f2a       ?Reset@?$CComEnumImpl@UIEnumConnections@@$1?_GUID_b196b287_bab4_101a_b69c_00aa00341d07@@3U__s_GUID@@BUtagCONNECTDATA@@V?$_Copy@UtagCONNECTDATA@@@ATL@@@ATL@@UAGJXZ 10002f2a f i CheckScanner.obj
 0001:00001f2a       ?Reset@?$CComEnumImpl@UIEnumConnectionPoints@@$1?_GUID_b196b285_bab4_101a_b69c_00aa00341d07@@3U__s_GUID@@BPAUIConnectionPoint@@V?$_CopyInterface@UIConnectionPoint@@@ATL@@@ATL@@UAGJXZ 10002f2a f i CheckScanner.obj
 0001:00001f3c       ?Clone@?$CComEnumImpl@UIEnumConnectionPoints@@$1?_GUID_b196b285_bab4_101a_b69c_00aa00341d07@@3U__s_GUID@@BPAUIConnectionPoint@@V?$_CopyInterface@UIConnectionPoint@@@ATL@@@ATL@@UAGJPAPAUIEnumConnectionPoints@@@Z 10002f3c f i CheckScanner.obj
 0001:0000201d       ?AddRef@?$CComObject@V?$CComEnum@UIEnumConnections@@$1?_GUID_b196b287_bab4_101a_b69c_00aa00341d07@@3U__s_GUID@@BUtagCONNECTDATA@@V?$_Copy@UtagCONNECTDATA@@@ATL@@VCComSingleThreadModel@6@@ATL@@@ATL@@UAGKXZ 1000301d f i CheckScanner.obj
 0001:0000201d       ?AddRef@?$CComObject@V?$CComEnum@UIEnumConnectionPoints@@$1?_GUID_b196b285_bab4_101a_b69c_00aa00341d07@@3U__s_GUID@@BPAUIConnectionPoint@@V?$_CopyInterface@UIConnectionPoint@@@ATL@@VCComSingleThreadModel@6@@ATL@@@ATL@@UAGKXZ 1000301d f i CheckScanner.obj
 0001:0000202e       ?Release@?$CComObject@V?$CComEnum@UIEnumConnections@@$1?_GUID_b196b287_bab4_101a_b69c_00aa00341d07@@3U__s_GUID@@BUtagCONNECTDATA@@V?$_Copy@UtagCONNECTDATA@@@ATL@@VCComSingleThreadModel@6@@ATL@@@ATL@@UAGKXZ 1000302e f i CheckScanner.obj
 0001:0000202e       ?Release@?$CComObject@V?$CComEnum@UIEnumConnectionPoints@@$1?_GUID_b196b285_bab4_101a_b69c_00aa00341d07@@3U__s_GUID@@BPAUIConnectionPoint@@V?$_CopyInterface@UIConnectionPoint@@@ATL@@VCComSingleThreadModel@6@@ATL@@@ATL@@UAGKXZ 1000302e f i CheckScanner.obj
 0001:0000206a       ?QueryInterface@?$CComObject@V?$CComEnum@UIEnumConnectionPoints@@$1?_GUID_b196b285_bab4_101a_b69c_00aa00341d07@@3U__s_GUID@@BPAUIConnectionPoint@@V?$_CopyInterface@UIConnectionPoint@@@ATL@@VCComSingleThreadModel@6@@ATL@@@ATL@@UAGJABU_GUID@@PAPAX@Z 1000306a f i CheckScanner.obj
 0001:00002084       ??_E?$CComObject@V?$CComEnum@UIEnumConnectionPoints@@$1?_GUID_b196b285_bab4_101a_b69c_00aa00341d07@@3U__s_GUID@@BPAUIConnectionPoint@@V?$_CopyInterface@UIConnectionPoint@@@ATL@@VCComSingleThreadModel@6@@ATL@@@ATL@@UAEPAXI@Z 10003084 f i CheckScanner.obj
 0001:00002084       ??_G?$CComObject@V?$CComEnum@UIEnumConnectionPoints@@$1?_GUID_b196b285_bab4_101a_b69c_00aa00341d07@@3U__s_GUID@@BPAUIConnectionPoint@@V?$_CopyInterface@UIConnectionPoint@@@ATL@@VCComSingleThreadModel@6@@ATL@@@ATL@@UAEPAXI@Z 10003084 f i CheckScanner.obj
 0001:000020a6       ?AddRef@CRegObject@ATL@@UAGKXZ 100030a6 f i CheckScanner.obj
 0001:000020ac       ?AddReplacement@CRegObject@ATL@@UAGJPB_W0@Z 100030ac f i CheckScanner.obj
 0001:000020e5       ?ClearReplacements@CRegObject@ATL@@UAGJXZ 100030e5 f i CheckScanner.obj
 0001:000020f7       ??_GCRegObject@ATL@@UAEPAXI@Z 100030f7 f i CheckScanner.obj
 0001:000020f7       ??_ECRegObject@ATL@@UAEPAXI@Z 100030f7 f i CheckScanner.obj
 0001:00002119       ?AddRef@?$CComAggObject@VCOPOSCheckScanner@@@ATL@@UAGKXZ 10003119 f i CheckScanner.obj
 0001:0000212a       ?Release@?$CComAggObject@VCOPOSCheckScanner@@@ATL@@UAGKXZ 1000312a f i CheckScanner.obj
 0001:00002166       ?QueryInterface@?$CComAggObject@VCOPOSCheckScanner@@@ATL@@UAGJABU_GUID@@PAPAX@Z 10003166 f i CheckScanner.obj
 0001:000021b5       ?AddRef@?$CComContainedObject@VCOPOSCheckScanner@@@ATL@@UAGKXZ 100031b5 f i CheckScanner.obj
 0001:000021cb       ?Release@?$CComContainedObject@VCOPOSCheckScanner@@@ATL@@UAGKXZ 100031cb f i CheckScanner.obj
 0001:000021e1       ?QueryInterface@?$CComContainedObject@VCOPOSCheckScanner@@@ATL@@UAGJABU_GUID@@PAPAX@Z 100031e1 f i CheckScanner.obj
 0001:000021fc       ??_G?$CComAggObject@VCOPOSCheckScanner@@@ATL@@UAEPAXI@Z 100031fc f i CheckScanner.obj
 0001:000021fc       ??_E?$CComAggObject@VCOPOSCheckScanner@@@ATL@@UAEPAXI@Z 100031fc f i CheckScanner.obj
 0001:00002221       ?AddRef@?$CComObject@VCOPOSCheckScanner@@@ATL@@UAGKXZ 10003221 f i CheckScanner.obj
 0001:00002238       ?Release@?$CComObject@VCOPOSCheckScanner@@@ATL@@UAGKXZ 10003238 f i CheckScanner.obj
 0001:0000227a       ?QueryInterface@?$CComObject@VCOPOSCheckScanner@@@ATL@@UAGJABU_GUID@@PAPAX@Z 1000327a f i CheckScanner.obj
 0001:00002294       ?OnDrawAdvanced@CComControlBase@ATL@@UAEJAAUATL_DRAWINFO@@@Z 10003294 f i CheckScanner.obj
 0001:00002387       ?Next@?$CComEnumImpl@UIEnumConnections@@$1?_GUID_b196b287_bab4_101a_b69c_00aa00341d07@@3U__s_GUID@@BUtagCONNECTDATA@@V?$_Copy@UtagCONNECTDATA@@@ATL@@@ATL@@UAGJKPAUtagCONNECTDATA@@PAK@Z 10003387 f i CheckScanner.obj
 0001:0000245e       ?Skip@?$CComEnumImpl@UIEnumConnections@@$1?_GUID_b196b287_bab4_101a_b69c_00aa00341d07@@3U__s_GUID@@BUtagCONNECTDATA@@V?$_Copy@UtagCONNECTDATA@@@ATL@@@ATL@@UAGJK@Z 1000345e f i CheckScanner.obj
 0001:0000248b       ?Clone@?$CComEnumImpl@UIEnumConnections@@$1?_GUID_b196b287_bab4_101a_b69c_00aa00341d07@@3U__s_GUID@@BUtagCONNECTDATA@@V?$_Copy@UtagCONNECTDATA@@@ATL@@@ATL@@UAGJPAPAUIEnumConnections@@@Z 1000348b f i CheckScanner.obj
 0001:0000256c       ?QueryInterface@?$CComObject@V?$CComEnum@UIEnumConnections@@$1?_GUID_b196b287_bab4_101a_b69c_00aa00341d07@@3U__s_GUID@@BUtagCONNECTDATA@@V?$_Copy@UtagCONNECTDATA@@@ATL@@VCComSingleThreadModel@6@@ATL@@@ATL@@UAGJABU_GUID@@PAPAX@Z 1000356c f i CheckScanner.obj
 0001:00002586       ??_G?$CComObject@V?$CComEnum@UIEnumConnections@@$1?_GUID_b196b287_bab4_101a_b69c_00aa00341d07@@3U__s_GUID@@BUtagCONNECTDATA@@V?$_Copy@UtagCONNECTDATA@@@ATL@@VCComSingleThreadModel@6@@ATL@@@ATL@@UAEPAXI@Z 10003586 f i CheckScanner.obj
 0001:00002586       ??_E?$CComObject@V?$CComEnum@UIEnumConnections@@$1?_GUID_b196b287_bab4_101a_b69c_00aa00341d07@@3U__s_GUID@@BUtagCONNECTDATA@@V?$_Copy@UtagCONNECTDATA@@@ATL@@VCComSingleThreadModel@6@@ATL@@@ATL@@UAEPAXI@Z 10003586 f i CheckScanner.obj
 0001:000025a8       ??_E?$CComObject@VCOPOSCheckScanner@@@ATL@@W3AEPAXI@Z 100035a8 f i CheckScanner.obj
 0001:000025b0       ??_E?$CComObject@VCOPOSCheckScanner@@@ATL@@WEM@AEPAXI@Z 100035b0 f i CheckScanner.obj
 0001:000025b8       ?QueryInterface@?$CComObject@VCOPOSCheckScanner@@@ATL@@WHA@AGJABU_GUID@@PAPAX@Z 100035b8 f i CheckScanner.obj
 0001:000025c2       ?AddRef@?$CComObject@VCOPOSCheckScanner@@@ATL@@WHA@AGKXZ 100035c2 f i CheckScanner.obj
 0001:000025cc       ?Release@?$CComObject@VCOPOSCheckScanner@@@ATL@@WHA@AGKXZ 100035cc f i CheckScanner.obj
 0001:000025d6       ?QueryInterface@?$CComObject@VCOPOSCheckScanner@@@ATL@@WHE@AGJABU_GUID@@PAPAX@Z 100035d6 f i CheckScanner.obj
 0001:000025e0       ?AddRef@?$CComObject@VCOPOSCheckScanner@@@ATL@@WHE@AGKXZ 100035e0 f i CheckScanner.obj
 0001:000025ea       ?Release@?$CComObject@VCOPOSCheckScanner@@@ATL@@WHE@AGKXZ 100035ea f i CheckScanner.obj
 0001:000025f4       ?QueryInterface@?$CComObject@VCOPOSCheckScanner@@@ATL@@WHI@AGJABU_GUID@@PAPAX@Z 100035f4 f i CheckScanner.obj
 0001:000025fe       ?AddRef@?$CComObject@VCOPOSCheckScanner@@@ATL@@WHI@AGKXZ 100035fe f i CheckScanner.obj
 0001:00002608       ?Release@?$CComObject@VCOPOSCheckScanner@@@ATL@@WHI@AGKXZ 10003608 f i CheckScanner.obj
 0001:00002612       ?QueryInterface@?$CComObject@VCOPOSCheckScanner@@@ATL@@WHM@AGJABU_GUID@@PAPAX@Z 10003612 f i CheckScanner.obj
 0001:0000261c       ?AddRef@?$CComObject@VCOPOSCheckScanner@@@ATL@@WHM@AGKXZ 1000361c f i CheckScanner.obj
 0001:00002626       ?Release@?$CComObject@VCOPOSCheckScanner@@@ATL@@WHM@AGKXZ 10003626 f i CheckScanner.obj
 0001:00002630       ?QueryInterface@?$CComObject@VCOPOSCheckScanner@@@ATL@@WIA@AGJABU_GUID@@PAPAX@Z 10003630 f i CheckScanner.obj
 0001:0000263d       ?AddRef@?$CComObject@VCOPOSCheckScanner@@@ATL@@WIA@AGKXZ 1000363d f i CheckScanner.obj
 0001:0000264a       ?Release@?$CComObject@VCOPOSCheckScanner@@@ATL@@WIA@AGKXZ 1000364a f i CheckScanner.obj
 0001:00002657       ?QueryInterface@?$CComObject@VCOPOSCheckScanner@@@ATL@@WIE@AGJABU_GUID@@PAPAX@Z 10003657 f i CheckScanner.obj
 0001:00002664       ?AddRef@?$CComObject@VCOPOSCheckScanner@@@ATL@@WIE@AGKXZ 10003664 f i CheckScanner.obj
 0001:00002671       ?Release@?$CComObject@VCOPOSCheckScanner@@@ATL@@WIE@AGKXZ 10003671 f i CheckScanner.obj
 0001:0000267e       ?QueryInterface@?$CComObject@VCOPOSCheckScanner@@@ATL@@WII@AGJABU_GUID@@PAPAX@Z 1000367e f i CheckScanner.obj
 0001:0000268b       ?AddRef@?$CComObject@VCOPOSCheckScanner@@@ATL@@WII@AGKXZ 1000368b f i CheckScanner.obj
 0001:00002698       ?Release@?$CComObject@VCOPOSCheckScanner@@@ATL@@WII@AGKXZ 10003698 f i CheckScanner.obj
 0001:000026a5       ?QueryInterface@?$CComObject@VCOPOSCheckScanner@@@ATL@@WIM@AGJABU_GUID@@PAPAX@Z 100036a5 f i CheckScanner.obj
 0001:000026b2       ?AddRef@?$CComObject@VCOPOSCheckScanner@@@ATL@@WIM@AGKXZ 100036b2 f i CheckScanner.obj
 0001:000026bf       ?Release@?$CComObject@VCOPOSCheckScanner@@@ATL@@WIM@AGKXZ 100036bf f i CheckScanner.obj
 0001:000026cc       ?QueryInterface@?$CComObject@VCOPOSCheckScanner@@@ATL@@WJA@AGJABU_GUID@@PAPAX@Z 100036cc f i CheckScanner.obj
 0001:000026d9       ?AddRef@?$CComObject@VCOPOSCheckScanner@@@ATL@@WJA@AGKXZ 100036d9 f i CheckScanner.obj
 0001:000026e6       ?Release@?$CComObject@VCOPOSCheckScanner@@@ATL@@WJA@AGKXZ 100036e6 f i CheckScanner.obj
 0001:000026f3       ?QueryInterface@?$CComObject@VCOPOSCheckScanner@@@ATL@@WJE@AGJABU_GUID@@PAPAX@Z 100036f3 f i CheckScanner.obj
 0001:00002700       ?AddRef@?$CComObject@VCOPOSCheckScanner@@@ATL@@WJE@AGKXZ 10003700 f i CheckScanner.obj
 0001:0000270d       ?Release@?$CComObject@VCOPOSCheckScanner@@@ATL@@WJE@AGKXZ 1000370d f i CheckScanner.obj
 0001:0000271a       ?QueryInterface@?$CComObject@VCOPOSCheckScanner@@@ATL@@WJI@AGJABU_GUID@@PAPAX@Z 1000371a f i CheckScanner.obj
 0001:00002727       ?AddRef@?$CComObject@VCOPOSCheckScanner@@@ATL@@WJI@AGKXZ 10003727 f i CheckScanner.obj
 0001:00002734       ?Release@?$CComObject@VCOPOSCheckScanner@@@ATL@@WJI@AGKXZ 10003734 f i CheckScanner.obj
 0001:00002741       ?QueryInterface@?$CComObject@VCOPOSCheckScanner@@@ATL@@WJM@AGJABU_GUID@@PAPAX@Z 10003741 f i CheckScanner.obj
 0001:0000274e       ?AddRef@?$CComObject@VCOPOSCheckScanner@@@ATL@@WJM@AGKXZ 1000374e f i CheckScanner.obj
 0001:0000275b       ?Release@?$CComObject@VCOPOSCheckScanner@@@ATL@@WJM@AGKXZ 1000375b f i CheckScanner.obj
 0001:00002768       ?QueryInterface@?$CComObject@VCOPOSCheckScanner@@@ATL@@WKA@AGJABU_GUID@@PAPAX@Z 10003768 f i CheckScanner.obj
 0001:00002775       ?AddRef@?$CComObject@VCOPOSCheckScanner@@@ATL@@WKA@AGKXZ 10003775 f i CheckScanner.obj
 0001:00002782       ?Release@?$CComObject@VCOPOSCheckScanner@@@ATL@@WKA@AGKXZ 10003782 f i CheckScanner.obj
 0001:0000278f       ?AddRef@?$CComObject@VCOPOSCheckScanner@@@ATL@@WKI@AGKXZ 1000378f f i CheckScanner.obj
 0001:0000279c       ?Release@?$CComObject@VCOPOSCheckScanner@@@ATL@@WKI@AGKXZ 1000379c f i CheckScanner.obj
 0001:000027a9       ?AddRef@?$CComObject@VCOPOSCheckScanner@@@ATL@@WLE@AGKXZ 100037a9 f i CheckScanner.obj
 0001:000027b6       ?Release@?$CComObject@VCOPOSCheckScanner@@@ATL@@WLE@AGKXZ 100037b6 f i CheckScanner.obj
 0001:000027c3       ??_E?$CComContainedObject@VCOPOSCheckScanner@@@ATL@@W3AEPAXI@Z 100037c3 f i CheckScanner.obj
 0001:000027cb       ??_E?$CComContainedObject@VCOPOSCheckScanner@@@ATL@@WEM@AEPAXI@Z 100037cb f i CheckScanner.obj
 0001:000027d3       ?QueryInterface@?$CComContainedObject@VCOPOSCheckScanner@@@ATL@@WHA@AGJABU_GUID@@PAPAX@Z 100037d3 f i CheckScanner.obj
 0001:000027dd       ?AddRef@?$CComContainedObject@VCOPOSCheckScanner@@@ATL@@WHA@AGKXZ 100037dd f i CheckScanner.obj
 0001:000027e7       ?Release@?$CComContainedObject@VCOPOSCheckScanner@@@ATL@@WHA@AGKXZ 100037e7 f i CheckScanner.obj
 0001:000027f1       ?QueryInterface@?$CComContainedObject@VCOPOSCheckScanner@@@ATL@@WHE@AGJABU_GUID@@PAPAX@Z 100037f1 f i CheckScanner.obj
 0001:000027fb       ?AddRef@?$CComContainedObject@VCOPOSCheckScanner@@@ATL@@WHE@AGKXZ 100037fb f i CheckScanner.obj
 0001:00002805       ?Release@?$CComContainedObject@VCOPOSCheckScanner@@@ATL@@WHE@AGKXZ 10003805 f i CheckScanner.obj
 0001:0000280f       ?QueryInterface@?$CComContainedObject@VCOPOSCheckScanner@@@ATL@@WHI@AGJABU_GUID@@PAPAX@Z 1000380f f i CheckScanner.obj
 0001:00002819       ?AddRef@?$CComContainedObject@VCOPOSCheckScanner@@@ATL@@WHI@AGKXZ 10003819 f i CheckScanner.obj
 0001:00002823       ?Release@?$CComContainedObject@VCOPOSCheckScanner@@@ATL@@WHI@AGKXZ 10003823 f i CheckScanner.obj
 0001:0000282d       ?QueryInterface@?$CComContainedObject@VCOPOSCheckScanner@@@ATL@@WHM@AGJABU_GUID@@PAPAX@Z 1000382d f i CheckScanner.obj
 0001:00002837       ?AddRef@?$CComContainedObject@VCOPOSCheckScanner@@@ATL@@WHM@AGKXZ 10003837 f i CheckScanner.obj
 0001:00002841       ?Release@?$CComContainedObject@VCOPOSCheckScanner@@@ATL@@WHM@AGKXZ 10003841 f i CheckScanner.obj
 0001:0000284b       ?QueryInterface@?$CComContainedObject@VCOPOSCheckScanner@@@ATL@@WIA@AGJABU_GUID@@PAPAX@Z 1000384b f i CheckScanner.obj
 0001:00002858       ?AddRef@?$CComContainedObject@VCOPOSCheckScanner@@@ATL@@WIA@AGKXZ 10003858 f i CheckScanner.obj
 0001:00002865       ?Release@?$CComContainedObject@VCOPOSCheckScanner@@@ATL@@WIA@AGKXZ 10003865 f i CheckScanner.obj
 0001:00002872       ?QueryInterface@?$CComContainedObject@VCOPOSCheckScanner@@@ATL@@WIE@AGJABU_GUID@@PAPAX@Z 10003872 f i CheckScanner.obj
 0001:0000287f       ?AddRef@?$CComContainedObject@VCOPOSCheckScanner@@@ATL@@WIE@AGKXZ 1000387f f i CheckScanner.obj
 0001:0000288c       ?Release@?$CComContainedObject@VCOPOSCheckScanner@@@ATL@@WIE@AGKXZ 1000388c f i CheckScanner.obj
 0001:00002899       ?QueryInterface@?$CComContainedObject@VCOPOSCheckScanner@@@ATL@@WII@AGJABU_GUID@@PAPAX@Z 10003899 f i CheckScanner.obj
 0001:000028a6       ?AddRef@?$CComContainedObject@VCOPOSCheckScanner@@@ATL@@WII@AGKXZ 100038a6 f i CheckScanner.obj
 0001:000028b3       ?Release@?$CComContainedObject@VCOPOSCheckScanner@@@ATL@@WII@AGKXZ 100038b3 f i CheckScanner.obj
 0001:000028c0       ?QueryInterface@?$CComContainedObject@VCOPOSCheckScanner@@@ATL@@WIM@AGJABU_GUID@@PAPAX@Z 100038c0 f i CheckScanner.obj
 0001:000028cd       ?AddRef@?$CComContainedObject@VCOPOSCheckScanner@@@ATL@@WIM@AGKXZ 100038cd f i CheckScanner.obj
 0001:000028da       ?Release@?$CComContainedObject@VCOPOSCheckScanner@@@ATL@@WIM@AGKXZ 100038da f i CheckScanner.obj
 0001:000028e7       ?QueryInterface@?$CComContainedObject@VCOPOSCheckScanner@@@ATL@@WJA@AGJABU_GUID@@PAPAX@Z 100038e7 f i CheckScanner.obj
 0001:000028f4       ?AddRef@?$CComContainedObject@VCOPOSCheckScanner@@@ATL@@WJA@AGKXZ 100038f4 f i CheckScanner.obj
 0001:00002901       ?Release@?$CComContainedObject@VCOPOSCheckScanner@@@ATL@@WJA@AGKXZ 10003901 f i CheckScanner.obj
 0001:0000290e       ?QueryInterface@?$CComContainedObject@VCOPOSCheckScanner@@@ATL@@WJE@AGJABU_GUID@@PAPAX@Z 1000390e f i CheckScanner.obj
 0001:0000291b       ?AddRef@?$CComContainedObject@VCOPOSCheckScanner@@@ATL@@WJE@AGKXZ 1000391b f i CheckScanner.obj
 0001:00002928       ?Release@?$CComContainedObject@VCOPOSCheckScanner@@@ATL@@WJE@AGKXZ 10003928 f i CheckScanner.obj
 0001:00002935       ?QueryInterface@?$CComContainedObject@VCOPOSCheckScanner@@@ATL@@WJI@AGJABU_GUID@@PAPAX@Z 10003935 f i CheckScanner.obj
 0001:00002942       ?AddRef@?$CComContainedObject@VCOPOSCheckScanner@@@ATL@@WJI@AGKXZ 10003942 f i CheckScanner.obj
 0001:0000294f       ?Release@?$CComContainedObject@VCOPOSCheckScanner@@@ATL@@WJI@AGKXZ 1000394f f i CheckScanner.obj
 0001:0000295c       ?QueryInterface@?$CComContainedObject@VCOPOSCheckScanner@@@ATL@@WJM@AGJABU_GUID@@PAPAX@Z 1000395c f i CheckScanner.obj
 0001:00002969       ?AddRef@?$CComContainedObject@VCOPOSCheckScanner@@@ATL@@WJM@AGKXZ 10003969 f i CheckScanner.obj
 0001:00002976       ?Release@?$CComContainedObject@VCOPOSCheckScanner@@@ATL@@WJM@AGKXZ 10003976 f i CheckScanner.obj
 0001:00002983       ?QueryInterface@?$CComContainedObject@VCOPOSCheckScanner@@@ATL@@WKA@AGJABU_GUID@@PAPAX@Z 10003983 f i CheckScanner.obj
 0001:00002990       ??$?4UITypeInfo2@@@?$CComPtr@UITypeInfo@@@ATL@@QAEPAUITypeInfo@@ABV?$CComPtr@UITypeInfo2@@@1@@Z 10003990 f i CheckScanner.obj
 0001:000029bd       ??$AtlAdd@K@ATL@@YAJPAKKK@Z 100039bd f i CheckScanner.obj
 0001:000029e0       ??$AtlAdd@_K@ATL@@YAJPA_K_K1@Z 100039e0 f i CheckScanner.obj
 0001:00002a18       ??$AtlAddThrow@K@ATL@@YAKKK@Z 10003a18 f i CheckScanner.obj
 0001:00002a3e       ??$AtlModuleRegisterWndClassInfoT@VAtlModuleRegisterWndClassInfoParamW@ATL@@@ATL@@YAGPAU_ATL_BASE_MODULE70@0@PAU_ATL_WIN_MODULE70@0@PAU_ATL_WNDCLASSINFOW@0@PAP6GJPAUHWND__@@IIJ@ZVAtlModuleRegisterWndClassInfoParamW@0@@Z 10003a3e f i CheckScanner.obj
 0001:00002b8c       ??$AtlMultiply@H@ATL@@YAJPAHHH@Z 10003b8c f i CheckScanner.obj
 0001:00002bc4       ??$AtlMultiply@I@ATL@@YAJPAIII@Z 10003bc4 f i CheckScanner.obj
 0001:00002bc4       ??$AtlMultiply@K@ATL@@YAJPAKKK@Z 10003bc4 f i CheckScanner.obj
 0001:00002be6       ??$AtlMultiplyThrow@I@ATL@@YAIII@Z 10003be6 f i CheckScanner.obj
 0001:00002c0c       ??0?$CComAggObject@VCOPOSCheckScanner@@@ATL@@QAE@PAX@Z 10003c0c f i CheckScanner.obj
 0001:00002c39       ??0?$CComContainedObject@VCOPOSCheckScanner@@@ATL@@QAE@PAX@Z 10003c39 f i CheckScanner.obj
 0001:00002cf2       ??0?$CComObject@V?$CComEnum@UIEnumConnectionPoints@@$1?_GUID_b196b285_bab4_101a_b69c_00aa00341d07@@3U__s_GUID@@BPAUIConnectionPoint@@V?$_CopyInterface@UIConnectionPoint@@@ATL@@VCComSingleThreadModel@6@@ATL@@@ATL@@QAE@PAX@Z 10003cf2 f i CheckScanner.obj
 0001:00002d20       ??0?$CComObject@V?$CComEnum@UIEnumConnections@@$1?_GUID_b196b287_bab4_101a_b69c_00aa00341d07@@3U__s_GUID@@BUtagCONNECTDATA@@V?$_Copy@UtagCONNECTDATA@@@ATL@@VCComSingleThreadModel@6@@ATL@@@ATL@@QAE@PAX@Z 10003d20 f i CheckScanner.obj
 0001:00002d4e       ??0?$CComObject@VCOPOSCheckScanner@@@ATL@@QAE@PAX@Z 10003d4e f i CheckScanner.obj
 0001:00002e05       ??0?$CComQIPtr@UIOleControlSite@@$1?_GUID_b196b289_bab4_101a_b69c_00aa00341d07@@3U__s_GUID@@B@ATL@@QAE@PAUIUnknown@@@Z 10003e05 f i CheckScanner.obj
 0001:00002e2e       ??0CAtlModule@ATL@@QAE@XZ  10003e2e f i CheckScanner.obj
 0001:00002e6f       ??0CParseBuffer@CRegParser@ATL@@QAE@H@Z 10003e6f f i CheckScanner.obj
 0001:00002ea5       ??0_ATL_MSG@ATL@@QAE@PAUHWND__@@IIJH@Z 10003ea5 f i CheckScanner.obj
 0001:00002edd       ??1?$CComAggObject@VCOPOSCheckScanner@@@ATL@@UAE@XZ 10003edd f i CheckScanner.obj
 0001:00002f01       ??1?$CComEnumImpl@UIEnumConnectionPoints@@$1?_GUID_b196b285_bab4_101a_b69c_00aa00341d07@@3U__s_GUID@@BPAUIConnectionPoint@@V?$_CopyInterface@UIConnectionPoint@@@ATL@@@ATL@@UAE@XZ 10003f01 f i CheckScanner.obj
 0001:00002f41       ??1?$CComEnumImpl@UIEnumConnections@@$1?_GUID_b196b287_bab4_101a_b69c_00aa00341d07@@3U__s_GUID@@BUtagCONNECTDATA@@V?$_Copy@UtagCONNECTDATA@@@ATL@@@ATL@@UAE@XZ 10003f41 f i CheckScanner.obj
 0001:00002f81       ??1?$CComObject@V?$CComEnum@UIEnumConnectionPoints@@$1?_GUID_b196b285_bab4_101a_b69c_00aa00341d07@@3U__s_GUID@@BPAUIConnectionPoint@@V?$_CopyInterface@UIConnectionPoint@@@ATL@@VCComSingleThreadModel@6@@ATL@@@ATL@@UAE@XZ 10003f81 f i CheckScanner.obj
 0001:00002fa4       ??1?$CComObject@V?$CComEnum@UIEnumConnections@@$1?_GUID_b196b287_bab4_101a_b69c_00aa00341d07@@3U__s_GUID@@BUtagCONNECTDATA@@V?$_Copy@UtagCONNECTDATA@@@ATL@@VCComSingleThreadModel@6@@ATL@@@ATL@@UAE@XZ 10003fa4 f i CheckScanner.obj
 0001:00002fc7       ??1?$CComObject@VCOPOSCheckScanner@@@ATL@@UAE@XZ 10003fc7 f i CheckScanner.obj
 0001:00003085       ??1?$CComObjectCached@VCComClassFactory@ATL@@@ATL@@UAE@XZ 10004085 f i CheckScanner.obj
 0001:0000309b       ??1?$CComObjectRootEx@VCComMultiThreadModel@ATL@@@ATL@@QAE@XZ 1000409b f i CheckScanner.obj
 0001:000030b0       ??1CRegObject@ATL@@UAE@XZ  100040b0 f i CheckScanner.obj
 0001:000030d0       ??4?$CComPtr@UIOleClientSite@@@ATL@@QAEPAUIOleClientSite@@PAU2@@Z 100040d0 f i CheckScanner.obj
 0001:000030d0       ??4?$CComPtr@UIAdviseSink@@@ATL@@QAEPAUIAdviseSink@@PAU2@@Z 100040d0 f i CheckScanner.obj
 0001:000030d0       ??4?$CComPtr@UIUnknown@@@ATL@@QAEPAUIUnknown@@PAU2@@Z 100040d0 f i CheckScanner.obj
 0001:00003104       ??_G?$CComContainedObject@VCOPOSCheckScanner@@@ATL@@UAEPAXI@Z 10004104 f i CheckScanner.obj
 0001:00003104       ??_E?$CComContainedObject@VCOPOSCheckScanner@@@ATL@@UAEPAXI@Z 10004104 f i CheckScanner.obj
 0001:00003129       ??_G?$CComObject@VCOPOSCheckScanner@@@ATL@@UAEPAXI@Z 10004129 f i CheckScanner.obj
 0001:00003129       ??_E?$CComObject@VCOPOSCheckScanner@@@ATL@@UAEPAXI@Z 10004129 f i CheckScanner.obj
 0001:0000314e       ?Add@?$CSimpleArray@GV?$CSimpleArrayEqualHelper@G@ATL@@@ATL@@QAEHABG@Z 1000414e f i CheckScanner.obj
 0001:000031d2       ?Add@?$CSimpleMap@PA_WPA_WVCExpansionVectorEqualHelper@ATL@@@ATL@@QAEHABQA_W0@Z 100041d2 f i CheckScanner.obj
 0001:00003227       ?Add@CComDynamicUnkArray@ATL@@QAEKPAUIUnknown@@@Z 10004227 f i CheckScanner.obj
 0001:000032dd       ?Add@CExpansionVector@ATL@@QAEHPB_W0@Z 100042dd f i CheckScanner.obj
 0001:000033e6       ?AddString@CParseBuffer@CRegParser@ATL@@QAEHPB_W@Z 100043e6 f i CheckScanner.obj
 0001:0000341b       ?AddTermFunc@CAtlModule@ATL@@QAEJP6GXK@ZK@Z 1000441b f i CheckScanner.obj
 0001:0000347e       ?AddValue@CRegParser@ATL@@IAEJAAVCRegKey@2@PB_WPA_W@Z 1000447e f i CheckScanner.obj
 0001:00003798       ?Allocate@?$CAtlSafeAllocBufferManager@VCCRTAllocator@ATL@@@_ATL_SAFE_ALLOCA_IMPL@ATL@@QAEPAXK@Z 10004798 f i CheckScanner.obj
 0001:000037c5       ?Allocate@?$CTempBuffer@E$0BAA@VCCRTAllocator@ATL@@@ATL@@QAEPAEI@Z 100047c5 f i CheckScanner.obj
 0001:000037f4       ?Allocate@?$CTempBuffer@_W$0BAA@VCCRTAllocator@ATL@@@ATL@@QAEPA_WI@Z 100047f4 f i CheckScanner.obj
 0001:00003823       ?Allocate@?$CTempBuffer@_W$0EAA@VCCRTAllocator@ATL@@@ATL@@QAEPA_WI@Z 10004823 f i CheckScanner.obj
 0001:00003852       ?AllocateHeap@?$CTempBuffer@_W$0EAA@VCCRTAllocator@ATL@@@ATL@@AAEXI@Z 10004852 f i CheckScanner.obj
 0001:00003852       ?AllocateHeap@?$CTempBuffer@_W$0BAA@VCCRTAllocator@ATL@@@ATL@@AAEXI@Z 10004852 f i CheckScanner.obj
 0001:00003852       ?AllocateHeap@?$CTempBuffer@E$0BAA@VCCRTAllocator@ATL@@@ATL@@AAEXI@Z 10004852 f i CheckScanner.obj
 0001:00003877       ?Append@CParseBuffer@CRegParser@ATL@@QAEHPB_WH@Z 10004877 f i CheckScanner.obj
 0001:00003905       ?AtlCoTaskMemCAlloc@ATL@@YAPAXKK@Z 10004905 f i CheckScanner.obj
 0001:00003932       ?AtlCoTaskMemRecalloc@ATL@@YAPAXPAXKK@Z 10004932 f i CheckScanner.obj
 0001:00003962       ?AtlComModuleGetClassObject@ATL@@YGJPAU_ATL_COM_MODULE70@1@ABU_GUID@@1PAPAX@Z 10004962 f i CheckScanner.obj
 0001:00003a55       ?AtlComModuleRegisterServer@ATL@@YGJPAU_ATL_COM_MODULE70@1@HPBU_GUID@@@Z 10004a55 f i CheckScanner.obj
 0001:00003add       ?AtlComModuleUnregisterServer@ATL@@YGJPAU_ATL_COM_MODULE70@1@HPBU_GUID@@@Z 10004add f i CheckScanner.obj
 0001:00003b65       ?AtlComQIPtrAssign2@ATL@@YAXPAPAUIUnknown@@PAU2@ABU_GUID@@@Z 10004b65 f i CheckScanner.obj
 0001:00003b94       ?AtlCreateTargetDC@ATL@@YGPAUHDC__@@PAU2@PAUtagDVTARGETDEVICE@@@Z 10004b94 f i CheckScanner.obj
 0001:00003bfd       ?AtlCrtErrorCheck@ATL@@YAHH@Z 10004bfd f i CheckScanner.obj
 0001:00003c38       ?AtlHiMetricToPixel@ATL@@YGXPBUtagSIZE@@PAU2@@Z 10004c38 f i CheckScanner.obj
 0001:00003cad       ?AtlHresultFromLastError@ATL@@YAJXZ 10004cad f i CheckScanner.obj
 0001:00003cc4       ?AtlHresultFromWin32@ATL@@YAJK@Z 10004cc4 f i CheckScanner.obj
 0001:00003cd9       ?AtlInternalOleLoadFromStream@ATL@@YAJPAUIStream@@ABU_GUID@@PAPAXTClassesAllowedInStream@1@K@Z 10004cd9 f i CheckScanner.obj
 0001:00003dff       ?AtlInternalQueryInterface@ATL@@YGJPAXPBU_ATL_INTMAP_ENTRY@1@ABU_GUID@@PAPAX@Z 10004dff f i CheckScanner.obj
 0001:00003ea2       ?AtlLoadTypeLib@ATL@@YGJPAUHINSTANCE__@@PB_WPAPA_WPAPAUITypeLib@@@Z 10004ea2 f i CheckScanner.obj
 0001:00004080       ?AtlRegisterClassCategoriesHelper@ATL@@YGJABU_GUID@@PBU_ATL_CATMAP_ENTRY@1@H@Z 10005080 f i CheckScanner.obj
 0001:0000437c       ?AtlRegisterTypeLib@ATL@@YGJPAUHINSTANCE__@@PB_W@Z 1000537c f i CheckScanner.obj
 0001:00004504       ?AtlThrowImpl@ATL@@YGXJ@Z  10005504 f i CheckScanner.obj
 0001:00004522       ?AtlUnRegisterTypeLib@ATL@@YGJPAUHINSTANCE__@@PB_W@Z 10005522 f i CheckScanner.obj
 0001:000045cd       ?AtlWinModuleAddCreateWndData@ATL@@YGXPAU_ATL_WIN_MODULE70@1@PAU_AtlCreateWndData@1@PAX@Z 100055cd f i CheckScanner.obj
 0001:00004621       ?AtlWinModuleExtractCreateWndData@ATL@@YGPAXPAU_ATL_WIN_MODULE70@1@@Z 10005621 f i CheckScanner.obj
 0001:00004684       ?AtlWinModuleRegisterClassExW@ATL@@YGGPAU_ATL_WIN_MODULE70@1@PBUtagWNDCLASSEXW@@@Z 10005684 f i CheckScanner.obj
 0001:000046c3       ?CanForceRemoveKey@CRegParser@ATL@@IAEHPB_W@Z 100056c3 f i CheckScanner.obj
 0001:000046f2       ?ChToByte@CRegParser@ATL@@KAE_W@Z 100056f2 f i CheckScanner.obj
 0001:00004725       ?Cleanup@CComTypeInfoHolder@ATL@@SGXK@Z 10005725 f i CheckScanner.obj
 0001:00004758       ?ClearReplacements@CExpansionVector@ATL@@QAEJXZ 10005758 f i CheckScanner.obj
 0001:00004795       ?Close@CRegKey@ATL@@QAEJXZ 10005795 f i CheckScanner.obj
 0001:000047af       ?CreateInstance@?$CComCreator@V?$CComAggObject@VCOPOSCheckScanner@@@ATL@@@ATL@@SGJPAXABU_GUID@@PAPAX@Z 100057af f i CheckScanner.obj
 0001:00004825       ?CreateInstance@?$CComCreator@V?$CComObject@VCOPOSCheckScanner@@@ATL@@@ATL@@SGJPAXABU_GUID@@PAPAX@Z 10005825 f i CheckScanner.obj
 0001:000048a6       ?CreateInstance@?$CComObject@V?$CComEnum@UIEnumConnectionPoints@@$1?_GUID_b196b285_bab4_101a_b69c_00aa00341d07@@3U__s_GUID@@BPAUIConnectionPoint@@V?$_CopyInterface@UIConnectionPoint@@@ATL@@VCComSingleThreadModel@6@@ATL@@@ATL@@SGJPAPAV12@@Z 100058a6 f i CheckScanner.obj
 0001:000048ed       ?CreateInstance@?$CComObject@V?$CComEnum@UIEnumConnections@@$1?_GUID_b196b287_bab4_101a_b69c_00aa00341d07@@3U__s_GUID@@BUtagCONNECTDATA@@V?$_Copy@UtagCONNECTDATA@@@ATL@@VCComSingleThreadModel@6@@ATL@@@ATL@@SGJPAPAV12@@Z 100058ed f i CheckScanner.obj
 0001:00004934       ?DefaultReflectionHandler@?$CWindowImplRoot@VCWindow@ATL@@@ATL@@SAHPAUHWND__@@IIJAAJ@Z 10005934 f i CheckScanner.obj
 0001:000049a7       ?DeleteSubKey@CRegKey@ATL@@QAEJPB_W@Z 100059a7 f i CheckScanner.obj
 0001:00004a20       ?DoEvent@COPOSCheckScanner@@IAEXIIJ@Z 10005a20 f i CheckScanner.obj
 0001:00004aa0       ?DoVerbHide@?$IOleObjectImpl@VCOPOSCheckScanner@@@ATL@@QAEJPBUtagRECT@@PAUHWND__@@@Z 10005aa0 f i CheckScanner.obj
 0001:00004ad6       ?DoVerbInPlaceActivate@?$IOleObjectImpl@VCOPOSCheckScanner@@@ATL@@QAEJPBUtagRECT@@PAUHWND__@@@Z 10005ad6 f i CheckScanner.obj
 0001:00004b09       ?DoVerbPrimary@?$IOleObjectImpl@VCOPOSCheckScanner@@@ATL@@QAEJPBUtagRECT@@PAUHWND__@@@Z 10005b09 f i CheckScanner.obj
 0001:00004b95       ?DoVerbProperties@CComControlBase@ATL@@QAEJPBUtagRECT@@PAUHWND__@@@Z 10005b95 f i CheckScanner.obj
 0001:00004d14       ?DoVerbUIActivate@?$IOleObjectImpl@VCOPOSCheckScanner@@@ATL@@QAEJPBUtagRECT@@PAUHWND__@@@Z 10005d14 f i CheckScanner.obj
 0001:00004d51       ?DoesVerbActivate@CComControlBase@ATL@@QAEHJ@Z 10005d51 f i CheckScanner.obj
 0001:00004d72       ?DoesVerbUIActivate@CComControlBase@ATL@@QAEHJ@Z 10005d72 f i CheckScanner.obj
 0001:00004da7       ?EndOfVar@CRegParser@ATL@@IAEHXZ 10005da7 f i CheckScanner.obj
 0001:00004dc7       ?EscapeSingleQuote@CAtlModule@ATL@@SAXPA_WIPB_W@Z 10005dc7 f i CheckScanner.obj
 0001:00004e16       ?FindKey@?$CSimpleMap@PA_WPA_WVCExpansionVectorEqualHelper@ATL@@@ATL@@QBEHABQA_W@Z 10005e16 f i CheckScanner.obj
 0001:00004e4d       ?FireTheEvent@?$CProxy_IOPOSEvents@VCOPOSCheckScanner@@@@IAEXPAVOposVariant@@IAAJPB_WJ@Z 10005e4d f i CheckScanner.obj
 0001:00004edf       ?FireViewChange@CComControlBase@ATL@@QAEJXZ 10005edf f i CheckScanner.obj
 0001:00004f28       ?Fire_DataEvent@?$CProxy_IOPOSEvents@VCOPOSCheckScanner@@@@QAEXJ@Z 10005f28 f i CheckScanner.obj
 0001:00004fbb       ?Fire_DirectIOEvent@?$CProxy_IOPOSEvents@VCOPOSCheckScanner@@@@QAEXJPAJPAPA_W@Z 10005fbb f i CheckScanner.obj
 0001:000050a4       ?Fire_ErrorEvent@?$CProxy_IOPOSEvents@VCOPOSCheckScanner@@@@QAEXJJJPAJ@Z 100060a4 f i CheckScanner.obj
 0001:0000518e       ?Fire_StatusUpdateEvent@?$CProxy_IOPOSEvents@VCOPOSCheckScanner@@@@QAEXJ@Z 1000618e f i CheckScanner.obj
 0001:00005221       ?FreeHeap@?$CTempBuffer@E$0BAA@VCCRTAllocator@ATL@@@ATL@@AAEXXZ 10006221 f i CheckScanner.obj
 0001:00005221       ?FreeHeap@?$CTempBuffer@_W$0BAA@VCCRTAllocator@ATL@@@ATL@@AAEXXZ 10006221 f i CheckScanner.obj
 0001:00005221       ?FreeHeap@?$CTempBuffer@_W$0EAA@VCCRTAllocator@ATL@@@ATL@@AAEXXZ 10006221 f i CheckScanner.obj
 0001:0000522a       ?GetAmbientLocaleID@CComControlBase@ATL@@QAEJAAK@Z 1000622a f i CheckScanner.obj
 0001:00005286       ?GetAmbientUserMode@CComControlBase@ATL@@QAEJAAH@Z 10006286 f i CheckScanner.obj
 0001:000052f6       ?GetAt@CComDynamicUnkArray@ATL@@QAEPAUIUnknown@@H@Z 100062f6 f i CheckScanner.obj
 0001:00005312       ?GetClassObject@CComModule@ATL@@QAEJABU_GUID@@0PAPAX@Z 10006312 f i CheckScanner.obj
 0001:000053b4       ?GetConnMap@COPOSCheckScanner@@SAPBU_ATL_CONNMAP_ENTRY@ATL@@PAH@Z 100063b4 f i CheckScanner.obj
 0001:00005424       ?GetCookie@CComDynamicUnkArray@ATL@@QAGKPAPAUIUnknown@@@Z 10006424 f i CheckScanner.obj
 0001:0000545c       ?GetIDsOfNames@CComTypeInfoHolder@ATL@@QAEJABU_GUID@@PAPA_WIKPAJ@Z 1000645c f i CheckScanner.obj
 0001:00005583       ?GetKeyAt@?$CSimpleMap@PA_WPA_WVCExpansionVectorEqualHelper@ATL@@@ATL@@QBEAAPA_WH@Z 10006583 f i CheckScanner.obj
 0001:000055a8       ?GetPagesHelper@?$ISpecifyPropertyPagesImpl@VCOPOSCheckScanner@@@ATL@@IAEJPAUtagCAUUID@@PBUATL_PROPMAP_ENTRY@2@@Z 100065a8 f i CheckScanner.obj
 0001:000056cf       ?GetProperty@?$CComPtr@UIDispatch@@@ATL@@SAJPAUIDispatch@@JPAUtagVARIANT@@@Z 100066cf f i CheckScanner.obj
 0001:0000571e       ?GetSizeMax@CComVariant@ATL@@QBEJPAT_ULARGE_INTEGER@@@Z 1000671e f i CheckScanner.obj
 0001:000058e4       ?GetTI@CComTypeInfoHolder@ATL@@QAEJK@Z 100068e4 f i CheckScanner.obj
 0001:00005ac3       ?GetTI@CComTypeInfoHolder@ATL@@QAEJKPAPAUITypeInfo@@@Z 10006ac3 f i CheckScanner.obj
 0001:00005b05       ?GetUnknown@CComDynamicUnkArray@ATL@@QAGPAUIUnknown@@K@Z 10006b05 f i CheckScanner.obj
 0001:00005b26       ?GetValueAt@?$CSimpleMap@PA_WPA_WVCExpansionVectorEqualHelper@ATL@@@ATL@@QBEAAPA_WH@Z 10006b26 f i CheckScanner.obj
 0001:00005b4c       ?GetZoomInfo@CComControlBase@ATL@@QAEXAAUATL_DRAWINFO@@@Z 10006b4c f i CheckScanner.obj
 0001:00005bdf       ?HKeyFromString@CRegParser@ATL@@KAPAUHKEY__@@PA_W@Z 10006bdf f i CheckScanner.obj
 0001:00005c0d       ?HasSubKeys@CRegParser@ATL@@IAEHPAUHKEY__@@@Z 10006c0d f i CheckScanner.obj
 0001:00005c42       ?IDataObject_GetData@CComControlBase@ATL@@QAEJPAUtagFORMATETC@@PAUtagSTGMEDIUM@@@Z 10006c42 f i CheckScanner.obj
 0001:00005de8       ?IOleInPlaceObject_InPlaceDeactivate@CComControlBase@ATL@@QAEJXZ 10006de8 f i CheckScanner.obj
 0001:00005e6f       ?IOleInPlaceObject_SetObjectRects@CComControlBase@ATL@@QAEJPBUtagRECT@@0@Z 10006e6f f i CheckScanner.obj
 0001:00005f3c       ?IOleInPlaceObject_UIDeactivate@CComControlBase@ATL@@QAEJXZ 10006f3c f i CheckScanner.obj
 0001:00005ffe       ?IOleObject_Advise@CComControlBase@ATL@@QAEJPAUIAdviseSink@@PAK@Z 10006ffe f i CheckScanner.obj
 0001:00006028       ?IOleObject_Close@CComControlBase@ATL@@QAEJK@Z 10007028 f i CheckScanner.obj
 0001:0000610c       ?IOleObject_GetClientSite@CComControlBase@ATL@@QAEJPAPAUIOleClientSite@@@Z 1000710c f i CheckScanner.obj
 0001:00006135       ?IOleObject_SetClientSite@CComControlBase@ATL@@QAEJPAUIOleClientSite@@@Z 10007135 f i CheckScanner.obj
 0001:00006174       ?IOleObject_SetExtent@CComControlBase@ATL@@QAEJKPAUtagSIZE@@@Z 10007174 f i CheckScanner.obj
 0001:00006228       ?IPSI_GetIPersistStreamInit@?$IPersistStorageImpl@VCOPOSCheckScanner@@@ATL@@AAEPAUIPersistStreamInit@@XZ 10007228 f i CheckScanner.obj
 0001:000062d0       ?IPersistStreamInit_Load@?$IPersistStreamInitImpl@VCOPOSCheckScanner@@@ATL@@QAEJPAUIStream@@PBUATL_PROPMAP_ENTRY@2@@Z 100072d0 f i CheckScanner.obj
 0001:0000654c       ?IPersistStreamInit_Save@?$IPersistStreamInitImpl@VCOPOSCheckScanner@@@ATL@@QAEJPAUIStream@@HPBUATL_PROPMAP_ENTRY@2@@Z 1000754c f i CheckScanner.obj
 0001:0000673a       ?IQuickActivate_QuickActivate@CComControlBase@ATL@@QAEJPAUtagQACONTAINER@@PAUtagQACONTROL@@@Z 1000773a f i CheckScanner.obj
 0001:0000697c       ?IViewObject_Draw@CComControlBase@ATL@@QAEJKJPAXPAUtagDVTARGETDEVICE@@PAUHDC__@@2PBU_RECTL@@3@Z 1000797c f i CheckScanner.obj
 0001:00006a24       ?InPlaceActivate@CComControlBase@ATL@@QAEJJPBUtagRECT@@@Z 10007a24 f i CheckScanner.obj
 0001:00006c95       ?Init@?$CComEnumImpl@UIEnumConnectionPoints@@$1?_GUID_b196b285_bab4_101a_b69c_00aa00341d07@@3U__s_GUID@@BPAUIConnectionPoint@@V?$_CopyInterface@UIConnectionPoint@@@ATL@@@ATL@@QAEJPAPAUIConnectionPoint@@0PAUIUnknown@@W4CComEnumFlags@2@@Z 10007c95 f i CheckScanner.obj
 0001:00006d74       ?Init@?$CComEnumImpl@UIEnumConnections@@$1?_GUID_b196b287_bab4_101a_b69c_00aa00341d07@@3U__s_GUID@@BUtagCONNECTDATA@@V?$_Copy@UtagCONNECTDATA@@@ATL@@@ATL@@QAEJPAUtagCONNECTDATA@@0PAUIUnknown@@W4CComEnumFlags@2@@Z 10007d74 f i CheckScanner.obj
 0001:00006e53       ?Init@CComModule@ATL@@QAEJPAU_ATL_OBJMAP_ENTRY30@2@PAUHINSTANCE__@@PBU_GUID@@@Z 10007e53 f i CheckScanner.obj
 0001:00006eb2       ?Init@CDynamicStdCallThunk2@ATL@@QAEHKPAX@Z 10007eb2 f i CheckScanner.obj
 0001:00006edd       ?InlineIsEqualUnknown@ATL@@YGHABU_GUID@@@Z 10007edd f i CheckScanner.obj
 0001:00006f05       ?InternalSetAtIndex@?$CSimpleMap@PA_WPA_WVCExpansionVectorEqualHelper@ATL@@@ATL@@QAEXHABQA_W0@Z 10007f05 f i CheckScanner.obj
 0001:00006f2f       ?Invoke@CComTypeInfoHolder@ATL@@QAEJPAUIDispatch@@JABU_GUID@@KGPAUtagDISPPARAMS@@PAUtagVARIANT@@PAUtagEXCEPINFO@@PAI@Z 10007f2f f i CheckScanner.obj
 0001:00006f72       ?IsEqualObject@?$CComPtrBase@UITypeInfo@@@ATL@@QAE_NPAUIUnknown@@@Z 10007f72 f i CheckScanner.obj
 0001:00006f72       ?IsEqualObject@?$CComPtrBase@UIOleClientSite@@@ATL@@QAE_NPAUIUnknown@@@Z 10007f72 f i CheckScanner.obj
 0001:00006fdf       ?IsSpace@CRegParser@ATL@@IAEH_W@Z 10007fdf f i CheckScanner.obj
 0001:00007009       ?LoadNameCache@CComTypeInfoHolder@ATL@@QAEJPAUITypeInfo@@@Z 10008009 f i CheckScanner.obj
 0001:00007155       ?Lookup@?$CSimpleMap@PA_WPA_WVCExpansionVectorEqualHelper@ATL@@@ATL@@QBEPA_WABQA_W@Z 10008155 f i CheckScanner.obj
 0001:0000717b       ?NextToken@CRegParser@ATL@@IAEJPA_W@Z 1000817b f i CheckScanner.obj
 0001:000072b3       ?OnKillFocus@CComControlBase@ATL@@QAEJIIJAAH@Z 100082b3 f i CheckScanner.obj
 0001:0000730e       ?OnMouseActivate@CComControlBase@ATL@@QAEJIIJAAH@Z 1000830e f i CheckScanner.obj
 0001:0000737c       ?OnPaint@CComControlBase@ATL@@QAEJIIJAAH@Z 1000837c f i CheckScanner.obj
 0001:0000742e       ?OnSetFocus@CComControlBase@ATL@@QAEJIIJAAH@Z 1000842e f i CheckScanner.obj
 0001:000074b7       ?Open@CRegKey@ATL@@QAEJPAUHKEY__@@PB_WK@Z 100084b7 f i CheckScanner.obj
 0001:0000750c       ?PreProcessBuffer@CRegParser@ATL@@QAEJPA_WPAPA_W@Z 1000850c f i CheckScanner.obj
 0001:00007776       ?ProcessWindowMessage@?$CComControl@VCOPOSCheckScanner@@V?$CWindowImpl@VCOPOSCheckScanner@@VCWindow@ATL@@V?$CWinTraits@$0FGAAAAAA@$0A@@3@@ATL@@@ATL@@UAEHPAUHWND__@@IIJAAJK@Z 10008776 f i CheckScanner.obj
 0001:00007815       ?ReadFromStream@CComBSTR@ATL@@QAEJPAUIStream@@@Z 10008815 f i CheckScanner.obj
 0001:00007943       ?ReadFromStream@CComVariant@ATL@@QAEJPAUIStream@@GTClassesAllowedInStream@2@K@Z 10008943 f i CheckScanner.obj
 0001:00007ac9       ?RecurseDeleteKey@CRegKey@ATL@@QAEJPB_W@Z 10008ac9 f i CheckScanner.obj
 0001:00007bb7       ?RegCreateKeyExW@CAtlTransactionManager@ATL@@QAEJPAUHKEY__@@PB_WKPA_WKKQAU_SECURITY_ATTRIBUTES@@PAPAU3@PAK@Z 10008bb7 f i CheckScanner.obj
 0001:00007c1a       ?RegDeleteKeyW@CAtlTransactionManager@ATL@@QAEJPAUHKEY__@@PB_W@Z 10008c1a f i CheckScanner.obj
 0001:00007c6c       ?RegOpenKeyExW@CAtlTransactionManager@ATL@@QAEJPAUHKEY__@@PB_WKKPAPAU3@@Z 10008c6c f i CheckScanner.obj
 0001:00007cc3       ?Register@_ATL_WNDCLASSINFOW@ATL@@QAEGPAP6GJPAUHWND__@@IIJ@Z@Z 10008cc3 f i CheckScanner.obj
 0001:00007ce3       ?RegisterBuffer@CRegParser@ATL@@QAEJPA_WH@Z 10008ce3 f i CheckScanner.obj
 0001:00007e1c       ?RegisterFromResource@CRegObject@ATL@@IAEJPB_W00H@Z 10008e1c f i CheckScanner.obj
 0001:00007f52       ?RegisterServer@?$CAtlModuleT@VCComModule@ATL@@@ATL@@QAEJHPBU_GUID@@@Z 10008f52 f i CheckScanner.obj
 0001:00007f80       ?RegisterServer@CComModule@ATL@@QAEJHPBU_GUID@@@Z 10008f80 f i CheckScanner.obj
 0001:00007ff6       ?RegisterSubkeys@CRegParser@ATL@@IAEJPA_WPAUHKEY__@@HH@Z 10008ff6 f i CheckScanner.obj
 0001:0000869d       ?Remove@CComDynamicUnkArray@ATL@@QAEHK@Z 1000969d f i CheckScanner.obj
 0001:000086c6       ?RemoveAll@?$CSimpleMap@PA_WPA_WVCExpansionVectorEqualHelper@ATL@@@ATL@@QAEXXZ 100096c6 f i CheckScanner.obj
 0001:000086f2       ?ResourceRegisterSz@CRegObject@ATL@@QAGJPB_W00@Z 100096f2 f i CheckScanner.obj
 0001:0000871f       ?ResourceUnregisterSz@CRegObject@ATL@@QAGJPB_W00@Z 1000971f f i CheckScanner.obj
 0001:0000874c       ?SendOnDataChange@CComControlBase@ATL@@QAEJK@Z 1000974c f i CheckScanner.obj
 0001:00008799       ?SetControlFocus@CComControlBase@ATL@@QAEHH@Z 10009799 f i CheckScanner.obj
 0001:00008836       ?SetMultiStringValue@CRegKey@ATL@@QAEJPB_W0@Z 10009836 f i CheckScanner.obj
 0001:00008892       ?SetStringValue@CRegKey@ATL@@QAEJPB_W0K@Z 10009892 f i CheckScanner.obj
 0001:000088db       ?SkipAssignment@CRegParser@ATL@@IAEJPA_W@Z 100098db f i CheckScanner.obj
 0001:00008940       ?SkipWhiteSpace@CRegParser@ATL@@IAEXXZ 10009940 f i CheckScanner.obj
 0001:00008962       ?StrChrW@CRegParser@ATL@@KAPA_WPA_W_W@Z 10009962 f i CheckScanner.obj
 0001:0000899f       ?Term@CAtlModule@ATL@@QAEXXZ 1000999f f i CheckScanner.obj
 0001:000089f2       ?Term@CComModule@ATL@@QAEXXZ 100099f2 f i CheckScanner.obj
 0001:00008a4a       ?UnregisterServer@?$CAtlModuleT@VCComModule@ATL@@@ATL@@QAEJHPBU_GUID@@@Z 10009a4a f i CheckScanner.obj
 0001:00008a70       ?UnregisterServer@CComModule@ATL@@QAEJHPBU_GUID@@@Z 10009a70 f i CheckScanner.obj
 0001:00008ae6       ?UpdateRegistryFromResource@CAtlModule@ATL@@QAGJIHPAU_ATL_REGMAP_ENTRY@2@@Z 10009ae6 f i CheckScanner.obj
 0001:00008cb1       ?UpdateRegistryFromResource@CAtlModule@ATL@@QAGJPB_WHPAU_ATL_REGMAP_ENTRY@2@@Z 10009cb1 f i CheckScanner.obj
 0001:00008e82       ?VTFromRegType@CRegParser@ATL@@KAHPB_WAAG@Z 10009e82 f i CheckScanner.obj
 0001:00008eef       ?WindowProc@?$CWindowImplBaseT@VCWindow@ATL@@V?$CWinTraits@$0FGAAAAAA@$0A@@2@@ATL@@SGJPAUHWND__@@IIJ@Z 10009eef f i CheckScanner.obj
 0001:00008fe1       ?WriteToStream@CComBSTR@ATL@@QAEJPAUIStream@@@Z 10009fe1 f i CheckScanner.obj
 0001:00009043       ?WriteToStream@CComVariant@ATL@@QAEJPAUIStream@@@Z 1000a043 f i CheckScanner.obj
 0001:000091bd       ?WriteToStream@CComVariant@ATL@@QAEJPAUIStream@@G@Z 1000a1bd f i CheckScanner.obj
 0001:00009226       ?_AtlInitialConstruct@?$CComObjectRootEx@VCComMultiThreadModel@ATL@@@ATL@@QAEJXZ 1000a226 f i CheckScanner.obj
 0001:0000923b       ?_AtlVerifyStackAvailable@_ATL_SAFE_ALLOCA_IMPL@ATL@@YA_NK@Z 1000a23b f i CheckScanner.obj
 0001:000092b9       ?atlCreate@?$CWindowImpl@VCOPOSCheckScanner@@VCWindow@ATL@@V?$CWinTraits@$0FGAAAAAA@$0A@@3@@ATL@@QAEPAUHWND__@@PAU3@V_U_RECT@2@PB_WKKV_U_MENUorID@2@PAX@Z 1000a2b9 f i CheckScanner.obj
 0001:000092fd       ?atlCreate@?$CWindowImplBaseT@VCWindow@ATL@@V?$CWinTraits@$0FGAAAAAA@$0A@@2@@ATL@@QAEPAUHWND__@@PAU3@V_U_RECT@2@PB_WKKV_U_MENUorID@2@GPAX@Z 1000a2fd f i CheckScanner.obj
 0001:00009399       ?copy@?$_Copy@UtagCONNECTDATA@@@ATL@@SAJPAUtagCONNECTDATA@@PBU3@@Z 1000a399 f i CheckScanner.obj
 0001:000093cf       ?copy@?$_CopyInterface@UIConnectionPoint@@@ATL@@SAJPAPAUIConnectionPoint@@PBQAU3@@Z 1000a3cf f i CheckScanner.obj
 0001:000093fd       ?memcpy_s@Checked@ATL@@YAXPAXIPBXI@Z 1000a3fd f i CheckScanner.obj
 0001:0000941c       ?ocscpy_s@@YA_NPA_WIPB_W@Z 1000a41c f i CheckScanner.obj
 0001:00009466       ?wcscpy_s@Checked@ATL@@YAXPA_WIPB_W@Z 1000a466 f i CheckScanner.obj
 0001:00009482       _DllCanUnloadNow@0         1000a482 f   CheckScanner.obj
 0001:0000948e       _DllGetClassObject@12      1000a48e f   CheckScanner.obj
 0001:0000949c       _DllMain@12                1000a49c f   CheckScanner.obj
 0001:000094de       _DllRegisterServer@0       1000a4de f   CheckScanner.obj
 0001:000094ed       _DllUnregisterServer@0     1000a4ed f   CheckScanner.obj
 0001:000094fc       _InlineIsEqualGUID         1000a4fc f i CheckScanner.obj
 0001:0000952c       ___local_stdio_printf_options 1000a52c f i CheckScanner.obj
 0001:00009532       __vswprintf_s_l            1000a532 f i CheckScanner.obj
 0001:000095df       _swprintf_s                1000a5df f i CheckScanner.obj
 0001:000095fb       ??0?$CComControl@VCOPOSCheckScanner@@V?$CWindowImpl@VCOPOSCheckScanner@@VCWindow@ATL@@V?$CWinTraits@$0FGAAAAAA@$0A@@3@@ATL@@@ATL@@QAE@XZ 1000a5fb f i CheckScannerImpl.obj
 0001:00009622       ??0?$CProxy_IOPOSEvents@VCOPOSCheckScanner@@@@QAE@XZ 1000a622 f i CheckScannerImpl.obj
 0001:00009642       ??0CComControlBase@ATL@@QAE@AAPAUHWND__@@@Z 1000a642 f i CheckScannerImpl.obj
 0001:0000968c       ??0COPOSCheckScanner@@QAE@XZ 1000a68c f   CheckScannerImpl.obj
 0001:000096c2       ??1?$CComControl@VCOPOSCheckScanner@@V?$CWindowImpl@VCOPOSCheckScanner@@VCWindow@ATL@@V?$CWinTraits@$0FGAAAAAA@$0A@@3@@ATL@@@ATL@@UAE@XZ 1000a6c2 f i CheckScannerImpl.obj
 0001:000096db       ??1?$IConnectionPointImpl@VCOPOSCheckScanner@@$1?IID_IPropertyNotifySink@@3U_GUID@@BVCComDynamicUnkArray@ATL@@@ATL@@QAE@XZ 1000a6db f i CheckScannerImpl.obj
 0001:000096db       ??1?$IConnectionPointImpl@VCOPOSCheckScanner@@$1?DIID__IOPOSCheckScannerEvents@@3U_GUID@@BVCComDynamicUnkArray@ATL@@@ATL@@QAE@XZ 1000a6db f i CheckScannerImpl.obj
 0001:00009718       ??1CComControlBase@ATL@@UAE@XZ 1000a718 f i CheckScannerImpl.obj
 0001:0000977b       ??1COPOSCheckScanner@@UAE@XZ 1000a77b f   CheckScannerImpl.obj
 0001:000097c3       ?BeginInsertion@COPOSCheckScanner@@UAGJJPAJ@Z 1000a7c3 f   CheckScannerImpl.obj
 0001:00009812       ?BeginRemoval@COPOSCheckScanner@@UAGJJPAJ@Z 1000a812 f   CheckScannerImpl.obj
 0001:00009861       ?CheckHealth@COPOSCheckScanner@@UAGJJPAJ@Z 1000a861 f   CheckScannerImpl.obj
 0001:000098b0       ?ClaimDevice@COPOSCheckScanner@@UAGJJPAJ@Z 1000a8b0 f   CheckScannerImpl.obj
 0001:00009925       ?ClearImage@COPOSCheckScanner@@UAGJJPAJ@Z 1000a925 f   CheckScannerImpl.obj
 0001:00009974       ?ClearInput@COPOSCheckScanner@@UAGJPAJ@Z 1000a974 f   CheckScannerImpl.obj
 0001:0000998f       ?ClearInputProperties@COPOSCheckScanner@@UAGJPAJ@Z 1000a98f f   CheckScannerImpl.obj
 0001:000099aa       ?Close@COPOSCheckScanner@@UAGJPAJ@Z 1000a9aa f   CheckScannerImpl.obj
 0001:00009a18       ?CompareFirmwareVersion@COPOSCheckScanner@@UAGJPA_WPAJ1@Z 1000aa18 f   CheckScannerImpl.obj
 0001:00009a98       ?DefineCropArea@COPOSCheckScanner@@UAGJJJJJJPAJ@Z 1000aa98 f   CheckScannerImpl.obj
 0001:00009b44       ?DirectIO@COPOSCheckScanner@@UAGJJPAJPAPA_W0@Z 1000ab44 f   CheckScannerImpl.obj
 0001:00009bf2       ?DoInvoke@COPOSCheckScanner@@IAEJJPAVOposVariant@@IHPAJ_N@Z 1000abf2 f   CheckScannerImpl.obj
 0001:00009cce       ?EndInsertion@COPOSCheckScanner@@UAGJPAJ@Z 1000acce f   CheckScannerImpl.obj
 0001:00009ce9       ?EndRemoval@COPOSCheckScanner@@UAGJPAJ@Z 1000ace9 f   CheckScannerImpl.obj
 0001:00009d04       ?EventClose@COPOSCheckScanner@@IAEXXZ 1000ad04 f i CheckScannerImpl.obj
 0001:00009d37       ?EventInit@COPOSCheckScanner@@IAEJXZ 1000ad37 f i CheckScannerImpl.obj
 0001:00009e03       ?EventUninit@COPOSCheckScanner@@IAEXXZ 1000ae03 f i CheckScannerImpl.obj
 0001:00009e55       ?EventWindowProc@COPOSCheckScanner@@IAGJIIJ@Z 1000ae55 f i CheckScannerImpl.obj
 0001:00009f29       ?FinalConstruct@COPOSCheckScanner@@QAEJXZ 1000af29 f   CheckScannerImpl.obj
 0001:00009f62       ?FireEventCleanup@COPOSCheckScanner@@IAEXXZ 1000af62 f i CheckScannerImpl.obj
 0001:00009f78       ?FireEventSetup@COPOSCheckScanner@@IAE_NXZ 1000af78 f i CheckScannerImpl.obj
 0001:00009fac       ?FreezeEvents@COPOSCheckScanner@@MAGJH@Z 1000afac f   CheckScannerImpl.obj
 0001:0000a00c       ?GetOposProp@COPOSCheckScanner@@IAEJJPAFJ@Z 1000b00c f   CheckScannerImpl.obj
 0001:0000a02f       ?GetOposProp@COPOSCheckScanner@@IAEJJPAJJ@Z 1000b02f f   CheckScannerImpl.obj
 0001:0000a0fe       ?GetOposProp@COPOSCheckScanner@@IAEJJPAPA_WJ@Z 1000b0fe f   CheckScannerImpl.obj
 0001:0000a1da       ?OnDraw@COPOSCheckScanner@@MAEJAAUATL_DRAWINFO@@@Z 1000b1da f   CheckScannerImpl.obj
 0001:0000a27a       ?Open@COPOSCheckScanner@@UAGJPA_WPAJ@Z 1000b27a f   CheckScannerImpl.obj
 0001:0000aac0       ?ReleaseDevice@COPOSCheckScanner@@UAGJPAJ@Z 1000bac0 f   CheckScannerImpl.obj
 0001:0000ab0f       ?ResetStatistics@COPOSCheckScanner@@UAGJPA_WPAJ@Z 1000bb0f f   CheckScannerImpl.obj
 0001:0000ab66       ?RetrieveImage@COPOSCheckScanner@@UAGJJPAJ@Z 1000bb66 f   CheckScannerImpl.obj
 0001:0000abb5       ?RetrieveMemory@COPOSCheckScanner@@UAGJJPAJ@Z 1000bbb5 f   CheckScannerImpl.obj
 0001:0000ac04       ?RetrieveStatistics@COPOSCheckScanner@@UAGJPAPA_WPAJ@Z 1000bc04 f   CheckScannerImpl.obj
 0001:0000ac5b       ?SOProcessID@COPOSCheckScanner@@UAGJPAJ@Z 1000bc5b f   CheckScannerImpl.obj
 0001:0000ac6f       ?SetCOFreezeEvents@COPOSCheckScanner@@IAEXF@Z 1000bc6f f   CheckScannerImpl.obj
 0001:0000ad0f       ?SetOposProp@COPOSCheckScanner@@IAEJJJJ@Z 1000bd0f f   CheckScannerImpl.obj
 0001:0000ae06       ?SetOposProp@COPOSCheckScanner@@IAEJJPA_WJ@Z 1000be06 f   CheckScannerImpl.obj
 0001:0000af07       ?StoreImage@COPOSCheckScanner@@UAGJJPAJ@Z 1000bf07 f   CheckScannerImpl.obj
 0001:0000af56       ?UpdateFirmware@COPOSCheckScanner@@UAGJPA_WPAJ@Z 1000bf56 f   CheckScannerImpl.obj
 0001:0000afad       ?UpdateStatistics@COPOSCheckScanner@@UAGJPA_WPAJ@Z 1000bfad f   CheckScannerImpl.obj
 0001:0000b004       ?get_AutoDisable@COPOSCheckScanner@@UAGJPAF@Z 1000c004 f   CheckScannerImpl.obj
 0001:0000b01a       ?get_BinaryConversion@COPOSCheckScanner@@UAGJPAJ@Z 1000c01a f   CheckScannerImpl.obj
 0001:0000b030       ?get_CapAutoContrast@COPOSCheckScanner@@UAGJPAF@Z 1000c030 f   CheckScannerImpl.obj
 0001:0000b049       ?get_CapAutoGenerateFileID@COPOSCheckScanner@@UAGJPAF@Z 1000c049 f   CheckScannerImpl.obj
 0001:0000b062       ?get_CapAutoGenerateImageTagData@COPOSCheckScanner@@UAGJPAF@Z 1000c062 f   CheckScannerImpl.obj
 0001:0000b07b       ?get_CapAutoSize@COPOSCheckScanner@@UAGJPAF@Z 1000c07b f   CheckScannerImpl.obj
 0001:0000b094       ?get_CapColor@COPOSCheckScanner@@UAGJPAJ@Z 1000c094 f   CheckScannerImpl.obj
 0001:0000b0ad       ?get_CapCompareFirmwareVersion@COPOSCheckScanner@@UAGJPAF@Z 1000c0ad f   CheckScannerImpl.obj
 0001:0000b0c6       ?get_CapConcurrentMICR@COPOSCheckScanner@@UAGJPAF@Z 1000c0c6 f   CheckScannerImpl.obj
 0001:0000b0df       ?get_CapContrast@COPOSCheckScanner@@UAGJPAF@Z 1000c0df f   CheckScannerImpl.obj
 0001:0000b0f8       ?get_CapDefineCropArea@COPOSCheckScanner@@UAGJPAF@Z 1000c0f8 f   CheckScannerImpl.obj
 0001:0000b111       ?get_CapImageFormat@COPOSCheckScanner@@UAGJPAJ@Z 1000c111 f   CheckScannerImpl.obj
 0001:0000b12a       ?get_CapImageTagData@COPOSCheckScanner@@UAGJPAF@Z 1000c12a f   CheckScannerImpl.obj
 0001:0000b143       ?get_CapMICRDevice@COPOSCheckScanner@@UAGJPAF@Z 1000c143 f   CheckScannerImpl.obj
 0001:0000b15c       ?get_CapPowerReporting@COPOSCheckScanner@@UAGJPAJ@Z 1000c15c f   CheckScannerImpl.obj
 0001:0000b175       ?get_CapStatisticsReporting@COPOSCheckScanner@@UAGJPAF@Z 1000c175 f   CheckScannerImpl.obj
 0001:0000b18e       ?get_CapStoreImageFiles@COPOSCheckScanner@@UAGJPAF@Z 1000c18e f   CheckScannerImpl.obj
 0001:0000b1a7       ?get_CapUpdateFirmware@COPOSCheckScanner@@UAGJPAF@Z 1000c1a7 f   CheckScannerImpl.obj
 0001:0000b1c0       ?get_CapUpdateStatistics@COPOSCheckScanner@@UAGJPAF@Z 1000c1c0 f   CheckScannerImpl.obj
 0001:0000b1d9       ?get_CapValidationDevice@COPOSCheckScanner@@UAGJPAF@Z 1000c1d9 f   CheckScannerImpl.obj
 0001:0000b1f2       ?get_CheckHealthText@COPOSCheckScanner@@UAGJPAPA_W@Z 1000c1f2 f   CheckScannerImpl.obj
 0001:0000b20b       ?get_Claimed@COPOSCheckScanner@@UAGJPAF@Z 1000c20b f   CheckScannerImpl.obj
 0001:0000b221       ?get_Color@COPOSCheckScanner@@UAGJPAJ@Z 1000c221 f   CheckScannerImpl.obj
 0001:0000b23a       ?get_ConcurrentMICR@COPOSCheckScanner@@UAGJPAF@Z 1000c23a f   CheckScannerImpl.obj
 0001:0000b253       ?get_Contrast@COPOSCheckScanner@@UAGJPAJ@Z 1000c253 f   CheckScannerImpl.obj
 0001:0000b26c       ?get_ControlObjectDescription@COPOSCheckScanner@@UAGJPAPA_W@Z 1000c26c f   CheckScannerImpl.obj
 0001:0000b2ba       ?get_ControlObjectVersion@COPOSCheckScanner@@UAGJPAJ@Z 1000c2ba f   CheckScannerImpl.obj
 0001:0000b2cd       ?get_CropAreaCount@COPOSCheckScanner@@UAGJPAJ@Z 1000c2cd f   CheckScannerImpl.obj
 0001:0000b2e6       ?get_DataCount@COPOSCheckScanner@@UAGJPAJ@Z 1000c2e6 f   CheckScannerImpl.obj
 0001:0000b2fc       ?get_DataEventEnabled@COPOSCheckScanner@@UAGJPAF@Z 1000c2fc f   CheckScannerImpl.obj
 0001:0000b312       ?get_DeviceDescription@COPOSCheckScanner@@UAGJPAPA_W@Z 1000c312 f   CheckScannerImpl.obj
 0001:0000b32b       ?get_DeviceEnabled@COPOSCheckScanner@@UAGJPAF@Z 1000c32b f   CheckScannerImpl.obj
 0001:0000b341       ?get_DeviceName@COPOSCheckScanner@@UAGJPAPA_W@Z 1000c341 f   CheckScannerImpl.obj
 0001:0000b35a       ?get_DocumentHeight@COPOSCheckScanner@@UAGJPAJ@Z 1000c35a f   CheckScannerImpl.obj
 0001:0000b373       ?get_DocumentWidth@COPOSCheckScanner@@UAGJPAJ@Z 1000c373 f   CheckScannerImpl.obj
 0001:0000b38c       ?get_FileID@COPOSCheckScanner@@UAGJPAPA_W@Z 1000c38c f   CheckScannerImpl.obj
 0001:0000b3a5       ?get_FileIndex@COPOSCheckScanner@@UAGJPAJ@Z 1000c3a5 f   CheckScannerImpl.obj
 0001:0000b3be       ?get_FreezeEvents@COPOSCheckScanner@@UAGJPAF@Z 1000c3be f   CheckScannerImpl.obj
 0001:0000b3d4       ?get_ImageData@COPOSCheckScanner@@UAGJPAPA_W@Z 1000c3d4 f   CheckScannerImpl.obj
 0001:0000b3ed       ?get_ImageFormat@COPOSCheckScanner@@UAGJPAJ@Z 1000c3ed f   CheckScannerImpl.obj
 0001:0000b406       ?get_ImageMemoryStatus@COPOSCheckScanner@@UAGJPAJ@Z 1000c406 f   CheckScannerImpl.obj
 0001:0000b41f       ?get_ImageTagData@COPOSCheckScanner@@UAGJPAPA_W@Z 1000c41f f   CheckScannerImpl.obj
 0001:0000b438       ?get_MapMode@COPOSCheckScanner@@UAGJPAJ@Z 1000c438 f   CheckScannerImpl.obj
 0001:0000b451       ?get_MaxCropAreas@COPOSCheckScanner@@UAGJPAJ@Z 1000c451 f   CheckScannerImpl.obj
 0001:0000b46a       ?get_OpenResult@COPOSCheckScanner@@UAGJPAJ@Z 1000c46a f   CheckScannerImpl.obj
 0001:0000b481       ?get_PowerNotify@COPOSCheckScanner@@UAGJPAJ@Z 1000c481 f   CheckScannerImpl.obj
 0001:0000b497       ?get_PowerState@COPOSCheckScanner@@UAGJPAJ@Z 1000c497 f   CheckScannerImpl.obj
 0001:0000b4ad       ?get_Quality@COPOSCheckScanner@@UAGJPAJ@Z 1000c4ad f   CheckScannerImpl.obj
 0001:0000b4c6       ?get_QualityList@COPOSCheckScanner@@UAGJPAPA_W@Z 1000c4c6 f   CheckScannerImpl.obj
 0001:0000b4df       ?get_RemainingImagesEstimate@COPOSCheckScanner@@UAGJPAJ@Z 1000c4df f   CheckScannerImpl.obj
 0001:0000b4f8       ?get_ResultCode@COPOSCheckScanner@@UAGJPAJ@Z 1000c4f8 f   CheckScannerImpl.obj
 0001:0000b536       ?get_ResultCodeExtended@COPOSCheckScanner@@UAGJPAJ@Z 1000c536 f   CheckScannerImpl.obj
 0001:0000b54c       ?get_ServiceObjectDescription@COPOSCheckScanner@@UAGJPAPA_W@Z 1000c54c f   CheckScannerImpl.obj
 0001:0000b565       ?get_ServiceObjectVersion@COPOSCheckScanner@@UAGJPAJ@Z 1000c565 f   CheckScannerImpl.obj
 0001:0000b57b       ?get_State@COPOSCheckScanner@@UAGJPAJ@Z 1000c57b f   CheckScannerImpl.obj
 0001:0000b5a7       ?put_AutoDisable@COPOSCheckScanner@@UAGJF@Z 1000c5a7 f   CheckScannerImpl.obj
 0001:0000b5c4       ?put_BinaryConversion@COPOSCheckScanner@@UAGJJ@Z 1000c5c4 f   CheckScannerImpl.obj
 0001:0000b5da       ?put_Color@COPOSCheckScanner@@UAGJJ@Z 1000c5da f   CheckScannerImpl.obj
 0001:0000b5f3       ?put_ConcurrentMICR@COPOSCheckScanner@@UAGJF@Z 1000c5f3 f   CheckScannerImpl.obj
 0001:0000b613       ?put_Contrast@COPOSCheckScanner@@UAGJJ@Z 1000c613 f   CheckScannerImpl.obj
 0001:0000b62c       ?put_DataEventEnabled@COPOSCheckScanner@@UAGJF@Z 1000c62c f   CheckScannerImpl.obj
 0001:0000b649       ?put_DeviceEnabled@COPOSCheckScanner@@UAGJF@Z 1000c649 f   CheckScannerImpl.obj
 0001:0000b666       ?put_DocumentHeight@COPOSCheckScanner@@UAGJJ@Z 1000c666 f   CheckScannerImpl.obj
 0001:0000b67f       ?put_DocumentWidth@COPOSCheckScanner@@UAGJJ@Z 1000c67f f   CheckScannerImpl.obj
 0001:0000b698       ?put_FileID@COPOSCheckScanner@@UAGJPA_W@Z 1000c698 f   CheckScannerImpl.obj
 0001:0000b6b1       ?put_FileIndex@COPOSCheckScanner@@UAGJJ@Z 1000c6b1 f   CheckScannerImpl.obj
 0001:0000b6ca       ?put_FreezeEvents@COPOSCheckScanner@@UAGJF@Z 1000c6ca f   CheckScannerImpl.obj
 0001:0000b716       ?put_ImageFormat@COPOSCheckScanner@@UAGJJ@Z 1000c716 f   CheckScannerImpl.obj
 0001:0000b72f       ?put_ImageTagData@COPOSCheckScanner@@UAGJPA_W@Z 1000c72f f   CheckScannerImpl.obj
 0001:0000b748       ?put_MapMode@COPOSCheckScanner@@UAGJJ@Z 1000c748 f   CheckScannerImpl.obj
 0001:0000b761       ?put_PowerNotify@COPOSCheckScanner@@UAGJJ@Z 1000c761 f   CheckScannerImpl.obj
 0001:0000b777       ?put_Quality@COPOSCheckScanner@@UAGJJ@Z 1000c777 f   CheckScannerImpl.obj
 0001:0000b790       ?s_EventWindowProc@COPOSCheckScanner@@KGJPAUHWND__@@IIJ@Z 1000c790 f i CheckScannerImpl.obj
 0001:0000b7e2       ??_U@YAPAXI@Z              1000c7e2 f   LIBCMT:new_array.obj
 0001:0000b7eb       ??3@YAXPAXI@Z              1000c7eb f   LIBCMT:delete_scalar_size.obj
 0001:0000b7f9       ??_V@YAXPAX@Z              1000c7f9 f   LIBCMT:delete_array.obj
 0001:0000b7fe       ??_V@YAXPAXI@Z             1000c7fe f   LIBCMT:delete_array_size.obj
 0001:0000b850       ___scrt_acquire_startup_lock 1000c850 f   LIBCMT:utility.obj
 0001:0000b882       ___scrt_dllmain_after_initialize_c 1000c882 f   LIBCMT:utility.obj
 0001:0000b8ad       ___scrt_dllmain_before_initialize_c 1000c8ad f   LIBCMT:utility.obj
 0001:0000b8bb       ___scrt_dllmain_crt_thread_attach 1000c8bb f   LIBCMT:utility.obj
 0001:0000b8da       ___scrt_dllmain_crt_thread_detach 1000c8da f   LIBCMT:utility.obj
 0001:0000b8e7       ___scrt_dllmain_exception_filter 1000c8e7 f   LIBCMT:utility.obj
 0001:0000b91b       ___scrt_dllmain_uninitialize_c 1000c91b f   LIBCMT:utility.obj
 0001:0000b93e       ___scrt_dllmain_uninitialize_critical 1000c93e f   LIBCMT:utility.obj
 0001:0000b94b       ___scrt_initialize_crt     1000c94b f   LIBCMT:utility.obj
 0001:0000b984       ___scrt_initialize_onexit_tables 1000c984 f   LIBCMT:utility.obj
 0001:0000ba0b       ___scrt_is_nonwritable_in_current_image 1000ca0b f   LIBCMT:utility.obj
 0001:0000ba9f       ___scrt_release_startup_lock 1000ca9f f   LIBCMT:utility.obj
 0001:0000babc       ___scrt_uninitialize_crt   1000cabc f   LIBCMT:utility.obj
 0001:0000bae4       __onexit                   1000cae4 f   LIBCMT:utility.obj
 0001:0000bb11       _atexit                    1000cb11 f   LIBCMT:utility.obj
 0001:0000bb26       ??3@YAXPAX@Z               1000cb26 f   LIBCMT:delete_scalar.obj
 0001:0000bbf0       __Init_thread_footer       1000cbf0 f   LIBCMT:thread_safe_statics.obj
 0001:0000bc3a       __Init_thread_header       1000cc3a f   LIBCMT:thread_safe_statics.obj
 0001:0000bc8c       __Init_thread_notify       1000cc8c f   LIBCMT:thread_safe_statics.obj
 0001:0000bcc2       __Init_thread_wait         1000ccc2 f   LIBCMT:thread_safe_statics.obj
 0001:0000bd10       ___raise_securityfailure   1000cd10 f   LIBCMT:gs_report.obj
 0001:0000bd38       ___report_gsfailure        1000cd38 f   LIBCMT:gs_report.obj
 0001:0000be31       ___report_rangecheckfailure 1000ce31 f   LIBCMT:gs_report.obj
 0001:0000be3d       ___report_securityfailure  1000ce3d f   LIBCMT:gs_report.obj
 0001:0000bf0b       ??2@YAPAXIABUnothrow_t@std@@@Z 1000cf0b f   LIBCMT:new_scalar_nothrow.obj
 0001:0000bf5b       ??_U@YAPAXIABUnothrow_t@std@@@Z 1000cf5b f   LIBCMT:new_array_nothrow.obj
 0001:0000bf64       @__security_check_cookie@4 1000cf64 f   LIBCMT:secchk.obj
 0001:0000bf80       __SEH_prolog4_GS           1000cf80 f   LIBCMT:sehprolg4gs.obj
 0001:0000bfc9       __SEH_epilog4_GS           1000cfc9 f   LIBCMT:sehprolg4gs.obj
 0001:0000bfe0       __alloca_probe_16          1000cfe0 f   LIBCMT:alloca16.obj
 0001:0000bff6       __alloca_probe_8           1000cff6     LIBCMT:alloca16.obj
 0001:0000c010       __alloca_probe             1000d010 f   LIBCMT:chkstk.obj
 0001:0000c010       __chkstk                   1000d010 f   LIBCMT:chkstk.obj
 0001:0000c378       __DllMainCRTStartup@12     1000d378 f   LIBCMT:dll_dllmain.obj
 0001:0000c39b       ??2@YAPAXI@Z               1000d39b f   LIBCMT:new_scalar.obj
 0001:0000c3cb       ___isa_available_init      1000d3cb f   LIBCMT:cpu_disp.obj
 0001:0000c59b       ___scrt_is_ucrt_dll_in_use 1000d59b f   LIBCMT:ucrt_detection.obj
 0001:0000c5a7       ___scrt_fastfail           1000d5a7 f   LIBCMT:utility_desktop.obj
 0001:0000c6c1       __crt_debugger_hook        1000d6c1 f   LIBCMT:utility_desktop.obj
 0001:0000c6d0       __SEH_prolog4              1000d6d0 f   LIBCMT:sehprolg4.obj
 0001:0000c716       __SEH_epilog4              1000d716 f   LIBCMT:sehprolg4.obj
 0001:0000c72b       @_guard_check_icall_nop@4  1000d72b f i LIBCMT:guard_support.obj
 0001:0000c779       ___security_init_cookie    1000d779 f   LIBCMT:gs_support.obj
 0001:0000c7c4       ?__scrt_initialize_type_info@@YAXXZ 1000d7c4 f   LIBCMT:tncleanup.obj
 0001:0000c7d0       ?__scrt_uninitialize_type_info@@YAXXZ 1000d7d0 f   LIBCMT:tncleanup.obj
 0001:0000c7dc       ___local_stdio_scanf_options 1000d7dc f i LIBCMT:default_local_stdio_options.obj
 0001:0000c7e2       ___scrt_initialize_default_local_stdio_options 1000d7e2 f   LIBCMT:default_local_stdio_options.obj
 0001:0000c7ff       ___scrt_get_dyn_tls_init_callback 1000d7ff f   LIBCMT:dyn_tls_init.obj
 0001:0000c805       __RTC_Initialize           1000d805 f   LIBCMT:initsect.obj
 0001:0000c831       __RTC_Terminate            1000d831 f   LIBCMT:initsect.obj
 0001:0000c85d       ??0bad_alloc@std@@QAE@ABV01@@Z 1000d85d f i LIBCMT:throw_bad_alloc.obj
 0001:0000c878       ??0bad_alloc@std@@QAE@XZ   1000d878 f i LIBCMT:throw_bad_alloc.obj
 0001:0000c890       ??0bad_array_new_length@std@@QAE@ABV01@@Z 1000d890 f i LIBCMT:throw_bad_alloc.obj
 0001:0000c8ab       ??0bad_array_new_length@std@@QAE@XZ 1000d8ab f i LIBCMT:throw_bad_alloc.obj
 0001:0000c8c3       ??0exception@std@@QAE@ABV01@@Z 1000d8c3 f i LIBCMT:throw_bad_alloc.obj
 0001:0000c8ef       ??1bad_alloc@std@@UAE@XZ   1000d8ef f i LIBCMT:throw_bad_alloc.obj
 0001:0000c8ef       ??1bad_exception@std@@UAE@XZ 1000d8ef f i libvcruntime:frame.obj
 0001:0000c8ef       ??1bad_array_new_length@std@@UAE@XZ 1000d8ef f i LIBCMT:throw_bad_alloc.obj
 0001:0000c900       ??_Ebad_array_new_length@std@@UAEPAXI@Z 1000d900 f i LIBCMT:throw_bad_alloc.obj
 0001:0000c900       ??_Gbad_alloc@std@@UAEPAXI@Z 1000d900 f i LIBCMT:throw_bad_alloc.obj
 0001:0000c900       ??_Ebad_exception@std@@UAEPAXI@Z 1000d900 f i libvcruntime:frame.obj
 0001:0000c900       ??_Eexception@std@@UAEPAXI@Z 1000d900 f i LIBCMT:throw_bad_alloc.obj
 0001:0000c900       ??_Gexception@std@@UAEPAXI@Z 1000d900 f i LIBCMT:throw_bad_alloc.obj
 0001:0000c900       ??_Gbad_array_new_length@std@@UAEPAXI@Z 1000d900 f i LIBCMT:throw_bad_alloc.obj
 0001:0000c900       ??_Ebad_alloc@std@@UAEPAXI@Z 1000d900 f i LIBCMT:throw_bad_alloc.obj
 0001:0000c900       ??_Gbad_exception@std@@UAEPAXI@Z 1000d900 f i libvcruntime:frame.obj
 0001:0000c92d       ?__scrt_throw_std_bad_alloc@@YAXXZ 1000d92d f   LIBCMT:throw_bad_alloc.obj
 0001:0000c94a       ?__scrt_throw_std_bad_array_new_length@@YAXXZ 1000d94a f   LIBCMT:throw_bad_alloc.obj
 0001:0000c967       ?what@exception@std@@UBEPBDXZ 1000d967 f i LIBCMT:throw_bad_alloc.obj
 0001:0000c974       ??_Etype_info@@UAEPAXI@Z   1000d974 f i LIBCMT:std_type_info_static.obj
 0001:0000c974       ??_Gtype_info@@UAEPAXI@Z   1000d974 f i LIBCMT:std_type_info_static.obj
 0001:0000c997       ??0CAtlBaseModule@ATL@@QAE@XZ 1000d997 f   atls:atlbase.obj
 0001:0000c9ea       ??0_ATL_BASE_MODULE70@ATL@@QAE@XZ 1000d9ea f i atls:atlbase.obj
 0001:0000ca0d       ??1CAtlBaseModule@ATL@@QAE@XZ 1000da0d f   atls:atlbase.obj
 0001:0000cafa       ?Init@_stdcallthunk@ATL@@QAEHKPAX@Z 1000dafa f i atls:atlthunk.obj
 0001:0000cb2f       ?__AllocStdCallThunk_cmn@@YAPAXXZ 1000db2f f   atls:atlthunk.obj
 0001:0000cbf5       ?__FreeStdCallThunk_cmn@@YAXPAX@Z 1000dbf5 f   atls:atlthunk.obj
 0001:0000cc90       _AtlThunk_AllocateData@0   1000dc90 f   atls:atlthunk.obj
 0001:0000ccf5       _AtlThunk_DataToCode@4     1000dcf5 f   atls:atlthunk.obj
 0001:0000cd3c       _AtlThunk_FreeData@4       1000dd3c f   atls:atlthunk.obj
 0001:0000cd92       _AtlThunk_InitData@12      1000dd92 f   atls:atlthunk.obj
 0001:0000cde1       __get_purecall_handler     1000dde1 f   libvcruntime:purevirt.obj
 0001:0000cde7       __purecall                 1000dde7 f   libvcruntime:purevirt.obj
 0001:0000ce03       _wcsstr                    1000de03 f   libvcruntime:wcsstr.obj
 0001:0000d0c0       __except_handler4          1000e0c0 f   libvcruntime:chandler4.obj
 0001:0000d21e       _memcmp                    1000e21e f   libvcruntime:memcmp.obj
 0001:0000e1d0       _memcpy                    1000f1d0 f   libvcruntime:memcpy.obj
 0001:0000e750       _memset                    1000f750 f   libvcruntime:memset.obj
 0001:0000e8aa       ___vcrt_initialize         1000f8aa f   libvcruntime:initialization.obj
 0001:0000e8c9       ___vcrt_thread_attach      1000f8c9 f   libvcruntime:initialization.obj
 0001:0000e8d4       ___vcrt_thread_detach      1000f8d4 f   libvcruntime:initialization.obj
 0001:0000e8df       ___vcrt_uninitialize       1000f8df f   libvcruntime:initialization.obj
 0001:0000e8f6       ___vcrt_uninitialize_critical 1000f8f6 f   libvcruntime:initialization.obj
 0001:0000e8fe       ?GetRangeOfTrysToCheck@__FrameHandler3@@SA?AU?$pair@Viterator@TryBlockMap@__FrameHandler3@@V123@@std@@AAVTryBlockMap@1@HPAXPBU_s_FuncInfo@@H@Z 1000f8fe f   libvcruntime:trnsctrl.obj
 0001:0000e96e       ?_CallCatchBlock2@@YAPAXPAUEHRegistrationNode@@PBU_s_FuncInfo@@PAXHK@Z 1000f96e f   libvcruntime:trnsctrl.obj
 0001:0000e9cc       ?_CallSETranslator@@YAHPAUEHExceptionRecord@@PAUEHRegistrationNode@@PAX2PBU_s_FuncInfo@@H1@Z 1000f9cc f   libvcruntime:trnsctrl.obj
 0001:0000eab2       ?_JumpToContinuation@@YGXPAXPAUEHRegistrationNode@@@Z 1000fab2 f   libvcruntime:trnsctrl.obj
 0001:0000eae2       ?_UnwindNestedFrames@@YGXPAUEHRegistrationNode@@PAUEHExceptionRecord@@@Z 1000fae2 f   libvcruntime:trnsctrl.obj
 0001:0000eb35       __CatchGuardHandler        1000fb35 f   libvcruntime:trnsctrl.obj
 0001:0000eb66       __CreateFrameInfo          1000fb66 f   libvcruntime:trnsctrl.obj
 0001:0000eb8a       __FindAndUnlinkFrame       1000fb8a f   libvcruntime:trnsctrl.obj
 0001:0000ebd2       __TranslatorGuardHandler   1000fbd2 f   libvcruntime:trnsctrl.obj
 0001:0000ec6f       ___CxxFrameHandler3        1000fc6f f   libvcruntime:trnsctrl.obj
 0001:0000eca5       ___DestructExceptionObject 1000fca5 f   libvcruntime:ehhelpers.obj
 0001:0000ed46       ?_CallMemberFunction0@@YGXQAX0@Z 1000fd46 f i libvcruntime:ehhelpers.obj
 0001:0000edab       __IsExceptionObjectToBeDestroyed 1000fdab f   libvcruntime:ehhelpers.obj
 0001:0000edd1       ___AdjustPointer           1000fdd1 f   libvcruntime:ehhelpers.obj
 0001:0000edf6       ___FrameUnwindFilter       1000fdf6 f   libvcruntime:ehhelpers.obj
 0001:0000ee4c       ___std_type_info_compare   1000fe4c f   libvcruntime:std_type_info.obj
 0001:0000ee88       ___std_type_info_destroy_list 1000fe88 f   libvcruntime:std_type_info.obj
 0001:0000eeab       ___std_exception_copy      1000feab f   libvcruntime:std_exception.obj
 0001:0000ef0e       ___std_exception_destroy   1000ff0e f   libvcruntime:std_exception.obj
 0001:0000ef2d       __CxxThrowException@8      1000ff2d f   libvcruntime:throw.obj
 0001:0000efa0       _memmove                   1000ffa0 f   libvcruntime:memmove.obj
 0001:0000f520       __local_unwind4            10010520 f   libvcruntime:exsup4.obj
 0001:0000f5f8       __seh_longjmp_unwind4@4    100105f8 f   libvcruntime:exsup4.obj
 0001:0000f620       @_EH4_CallFilterFunc@8     10010620 f   libvcruntime:exsup4.obj
 0001:0000f638       @_EH4_TransferToHandler@8  10010638 f   libvcruntime:exsup4.obj
 0001:0000f654       @_EH4_GlobalUnwind2@8      10010654 f   libvcruntime:exsup4.obj
 0001:0000f670       @_EH4_LocalUnwind@16       10010670 f   libvcruntime:exsup4.obj
 0001:0000f687       ___except_validate_context_record 10010687 f   libvcruntime:jbcxrval.obj
 0001:0000f6b7       ___except_validate_jump_buffer 100106b7 f   libvcruntime:jbcxrval.obj
 0001:0000f6e4       ___vcrt_freefls@4          100106e4 f   libvcruntime:per_thread_data.obj
 0001:0000f700       ___vcrt_freeptd            10010700 f   libvcruntime:per_thread_data.obj
 0001:0000f736       ___vcrt_getptd             10010736 f   libvcruntime:per_thread_data.obj
 0001:0000f744       ___vcrt_getptd_noexit      10010744 f   libvcruntime:per_thread_data.obj
 0001:0000f7d6       ___vcrt_initialize_ptd     100107d6 f   libvcruntime:per_thread_data.obj
 0001:0000f809       ___vcrt_uninitialize_ptd   10010809 f   libvcruntime:per_thread_data.obj
 0001:0000f824       ___vcrt_initialize_locks   10010824 f   libvcruntime:locks.obj
 0001:0000f860       ___vcrt_uninitialize_locks 10010860 f   libvcruntime:locks.obj
 0001:0000ffd2       ??$TypeMatchHelper@V__FrameHandler3@@@@YAHPBU_s_HandlerType@@PBU_s_CatchableType@@PBU_s_ThrowInfo@@@Z 10010fd2 f i libvcruntime:frame.obj
 0001:00010060       ??$__InternalCxxFrameHandler@V__FrameHandler3@@@@YA?AW4_EXCEPTION_DISPOSITION@@PAUEHExceptionRecord@@PAUEHRegistrationNode@@PAU_CONTEXT@@PAXPBU_s_FuncInfo@@H1E@Z 10011060 f i libvcruntime:frame.obj
 0001:00010162       ??0bad_exception@std@@QAE@ABV01@@Z 10011162 f i libvcruntime:frame.obj
 0001:0001017d       ??0bad_exception@std@@QAE@XZ 1001117d f i libvcruntime:frame.obj
 0001:00010195       ??8type_info@@QBE_NABV0@@Z 10011195 f i libvcruntime:frame.obj
 0001:000103fc       ?FrameUnwindToEmptyState@__FrameHandler3@@SAXPAUEHRegistrationNode@@PAXPBU_s_FuncInfo@@@Z 100113fc f   libvcruntime:frame.obj
 0001:00010414       ?FrameUnwindToState@__FrameHandler3@@SAXPAUEHRegistrationNode@@PAXPBU_s_FuncInfo@@H@Z 10011414 f   libvcruntime:frame.obj
 0001:00010596       ?_CallMemberFunction1@@YGXQAX00@Z 10011596 f i libvcruntime:frame.obj
 0001:000105a6       ?_CallMemberFunction2@@YGXQAX00H@Z 100115a6 f i libvcruntime:frame.obj
 0001:000105b9       ?getESTypes@__FrameHandler3@@SAPBU_s_ESTypeList@@PBU_s_FuncInfo@@@Z 100115b9 f i libvcruntime:frame.obj
 0001:000105d0       __CallSettingFrame@12      100115d0 f   libvcruntime:lowhelpr.obj
 0001:000105f7       __NLG_Return               100115f7     libvcruntime:lowhelpr.obj
 0001:00010620       __global_unwind2           10011620 f   libvcruntime:exsup.obj
 0001:00010686       __local_unwind2            10011686 f   libvcruntime:exsup.obj
 0001:0001070a       __abnormal_termination     1001170a f   libvcruntime:exsup.obj
 0001:00010730       __NLG_Notify1              10011730 f   libvcruntime:exsup.obj
 0001:0001073c       __NLG_Notify               1001173c f   libvcruntime:exsup.obj
 0001:00010753       __NLG_Dispatch             10011753     libvcruntime:exsup.obj
 0001:00010753       __NLG_Dispatch2            10011753     libvcruntime:exsup.obj
 0001:0001075b       __NLG_Call                 1001175b f   libvcruntime:exsup.obj
 0001:0001075d       __NLG_Return2              1001175d     libvcruntime:exsup.obj
 0001:00010853       ___vcrt_FlsAlloc           10011853 f   libvcruntime:winapi_downlevel.obj
 0001:0001088e       ___vcrt_FlsFree            1001188e f   libvcruntime:winapi_downlevel.obj
 0001:000108c9       ___vcrt_FlsGetValue        100118c9 f   libvcruntime:winapi_downlevel.obj
 0001:00010904       ___vcrt_FlsSetValue        10011904 f   libvcruntime:winapi_downlevel.obj
 0001:00010942       ___vcrt_InitializeCriticalSectionEx 10011942 f   libvcruntime:winapi_downlevel.obj
 0001:00010989       _unexpected                10011989 f   libvcruntime:unexpected.obj
 0001:000109a6       ?GetCurrentState@__FrameHandler3@@SAHPAUEHRegistrationNode@@PAXPBU_s_FuncInfo@@@Z 100119a6 f   libvcruntime:ehstate.obj
 0001:000109c3       ?SetState@__FrameHandler3@@SAXPAUEHRegistrationNode@@PBU_s_FuncInfo@@H@Z 100119c3 f   libvcruntime:ehstate.obj
 0001:000109d1       _free                      100119d1 f   libucrt:free.obj
 0001:000109ec       ___acrt_call_reportfault   100119ec f   libucrt:invalid_parameter.obj
 0001:00010b25       ___acrt_initialize_invalid_parameter_handler 10011b25 f   libucrt:invalid_parameter.obj
 0001:00010b34       __invalid_parameter        10011b34 f   libucrt:invalid_parameter.obj
 0001:00010b98       __invalid_parameter_noinfo 10011b98 f   libucrt:invalid_parameter.obj
 0001:00010ba8       __invoke_watson            10011ba8 f   libucrt:invalid_parameter.obj
 0001:00010bdc       ___acrt_errno_from_os_error 10011bdc f   libucrt:errno.obj
 0001:00010c1f       ___acrt_errno_map_os_error 10011c1f f   libucrt:errno.obj
 0001:00010c42       ___doserrno                10011c42 f   libucrt:errno.obj
 0001:00010c55       __errno                    10011c55 f   libucrt:errno.obj
 0001:00010c68       _calloc                    10011c68 f   libucrt:calloc.obj
 0001:00010c73       _malloc                    10011c73 f   libucrt:malloc.obj
 0001:00010c7e       __recalloc                 10011c7e f   libucrt:recalloc.obj
 0001:00010c89       __recalloc_base            10011c89 f   libucrt:recalloc.obj
 0001:00010cf6       __resetstkoflw             10011cf6 f   libucrt:resetstk.obj
 0001:00010dbb       _wcscat_s                  10011dbb f   libucrt:wcscat_s.obj
 0001:00010e30       _wcscpy_s                  10011e30 f   libucrt:wcscpy_s.obj
 0001:00010f5f       _wcsncpy_s                 10011f5f f   libucrt:wcsncpy_s.obj
 0001:0001116b       ??$count@D@formatting_buffer@__crt_stdio_output@@QBEIXZ 1001216b f i libucrt:output.obj
 0001:00011183       ??$count@_W@formatting_buffer@__crt_stdio_output@@QBEIXZ 10012183 f i libucrt:output.obj
 0001:0001119c       ??$ensure_buffer_is_big_enough@D@formatting_buffer@__crt_stdio_output@@QAE_NI@Z 1001219c f i libucrt:output.obj
 0001:00011219       ??$ensure_buffer_is_big_enough@_W@formatting_buffer@__crt_stdio_output@@QAE_NI@Z 10012219 f i libucrt:output.obj
 0001:00011297       ??$is_wide_character_specifier@_W@__crt_stdio_output@@YA_N_K_WW4length_modifier@0@@Z 10012297 f i libucrt:output.obj
 0001:000112e5       ??$scratch_data@D@formatting_buffer@__crt_stdio_output@@QAEPADXZ 100122e5 f i libucrt:output.obj
 0001:00011303       ??$type_case_integer_parse_into_buffer@I@?$output_processor@_WV?$string_output_adapter@_W@__crt_stdio_output@@V?$format_validation_base@_WV?$string_output_adapter@_W@__crt_stdio_output@@@2@@__crt_stdio_output@@AAEXII_N@Z 10012303 f i libucrt:output.obj
 0001:0001138a       ??$type_case_integer_parse_into_buffer@_K@?$output_processor@_WV?$string_output_adapter@_W@__crt_stdio_output@@V?$format_validation_base@_WV?$string_output_adapter@_W@__crt_stdio_output@@@2@@__crt_stdio_output@@AAEX_KI_N@Z 1001238a f i libucrt:output.obj
 0001:0001142c       ??$write_multiple_characters@V?$string_output_adapter@_W@__crt_stdio_output@@D@__crt_stdio_output@@YAXABV?$string_output_adapter@_W@0@DHQAH@Z 1001242c f i libucrt:output.obj
 0001:0001145d       ??0?$common_data@_W@__crt_stdio_output@@IAE@XZ 1001245d f i libucrt:output.obj
 0001:000114a7       ??0?$output_adapter_data@_WV?$string_output_adapter@_W@__crt_stdio_output@@@__crt_stdio_output@@IAE@ABV?$string_output_adapter@_W@1@_KQB_WQAU__crt_locale_pointers@@QAD@Z 100124a7 f i libucrt:output.obj
 0001:000114e3       ??0_LocaleUpdate@@QAE@QAU__crt_locale_pointers@@@Z 100124e3 f i libucrt:output.obj
 0001:00011566       ??1formatting_buffer@__crt_stdio_output@@QAE@XZ 10012566 f i libucrt:output.obj
 0001:00011580       ??4?$__crt_unique_heap_ptr@DU__crt_internal_free_policy@@@@QAEAAV0@$$QAV0@@Z 10012580 f i libucrt:output.obj
 0001:000115a4       ?crop_zeroes@__crt_stdio_output@@YAXPADQAU__crt_locale_pointers@@@Z 100125a4 f i libucrt:output.obj
 0001:00011604       ?find_next_state@?$output_processor@_WV?$string_output_adapter@_W@__crt_stdio_output@@V?$format_validation_base@_WV?$string_output_adapter@_W@__crt_stdio_output@@@2@@__crt_stdio_output@@ABE?AW4state@2@_WW432@@Z 10012604 f i libucrt:output.obj
 0001:00011646       ?force_decimal_point@__crt_stdio_output@@YAXPADQAU__crt_locale_pointers@@@Z 10012646 f i libucrt:output.obj
 0001:000116a2       ?parse_int_from_format_string@?$output_processor@_WV?$string_output_adapter@_W@__crt_stdio_output@@V?$format_validation_base@_WV?$string_output_adapter@_W@__crt_stdio_output@@@2@@__crt_stdio_output@@AAE_NQAH@Z 100126a2 f i libucrt:output.obj
 0001:00011718       ?process@?$output_processor@_WV?$string_output_adapter@_W@__crt_stdio_output@@V?$format_validation_base@_WV?$string_output_adapter@_W@__crt_stdio_output@@@2@@__crt_stdio_output@@QAEHXZ 10012718 f i libucrt:output.obj
 0001:00011840       ?state_case_flag@?$output_processor@_WV?$string_output_adapter@_W@__crt_stdio_output@@V?$format_validation_base@_WV?$string_output_adapter@_W@__crt_stdio_output@@@2@@__crt_stdio_output@@AAE_NXZ 10012840 f i libucrt:output.obj
 0001:0001187d       ?state_case_normal@?$output_processor@_WV?$string_output_adapter@_W@__crt_stdio_output@@V?$format_validation_base@_WV?$string_output_adapter@_W@__crt_stdio_output@@@2@@__crt_stdio_output@@AAE_NXZ 1001287d f i libucrt:output.obj
 0001:0001189c       ?state_case_normal_common@?$output_processor@_WV?$string_output_adapter@_W@__crt_stdio_output@@V?$format_validation_base@_WV?$string_output_adapter@_W@__crt_stdio_output@@@2@@__crt_stdio_output@@AAE_NXZ 1001289c f i libucrt:output.obj
 0001:000118b7       ?state_case_precision@?$output_processor@_WV?$string_output_adapter@_W@__crt_stdio_output@@V?$format_validation_base@_WV?$string_output_adapter@_W@__crt_stdio_output@@@2@@__crt_stdio_output@@AAE_NXZ 100128b7 f i libucrt:output.obj
 0001:000118de       ?state_case_size@?$output_processor@_WV?$string_output_adapter@_W@__crt_stdio_output@@V?$format_validation_base@_WV?$string_output_adapter@_W@__crt_stdio_output@@@2@@__crt_stdio_output@@AAE_NXZ 100128de f i libucrt:output.obj
 0001:00011a56       ?state_case_type@?$output_processor@_WV?$string_output_adapter@_W@__crt_stdio_output@@V?$format_validation_base@_WV?$string_output_adapter@_W@__crt_stdio_output@@@2@@__crt_stdio_output@@AAE_NXZ 10012a56 f i libucrt:output.obj
 0001:00011cbb       ?state_case_width@?$output_processor@_WV?$string_output_adapter@_W@__crt_stdio_output@@V?$format_validation_base@_WV?$string_output_adapter@_W@__crt_stdio_output@@@2@@__crt_stdio_output@@AAE_NXZ 10012cbb f i libucrt:output.obj
 0001:00011ce7       ?to_integer_size@__crt_stdio_output@@YAIW4length_modifier@1@@Z 10012ce7 f i libucrt:output.obj
 0001:00011d3b       ?type_case_Z@?$output_processor@_WV?$string_output_adapter@_W@__crt_stdio_output@@V?$format_validation_base@_WV?$string_output_adapter@_W@__crt_stdio_output@@@2@@__crt_stdio_output@@AAE_NXZ 10012d3b f i libucrt:output.obj
 0001:00011d95       ?type_case_a@?$output_processor@_WV?$string_output_adapter@_W@__crt_stdio_output@@V?$format_validation_base@_WV?$string_output_adapter@_W@__crt_stdio_output@@@2@@__crt_stdio_output@@AAE_NXZ 10012d95 f i libucrt:output.obj
 0001:00011efa       ?type_case_c_tchar@?$output_processor@_WV?$string_output_adapter@_W@__crt_stdio_output@@V?$format_validation_base@_WV?$string_output_adapter@_W@__crt_stdio_output@@@2@@__crt_stdio_output@@AAE_N_W@Z 10012efa f i libucrt:output.obj
 0001:00011f90       ?type_case_integer@?$output_processor@_WV?$string_output_adapter@_W@__crt_stdio_output@@V?$format_validation_base@_WV?$string_output_adapter@_W@__crt_stdio_output@@@2@@__crt_stdio_output@@AAE_NI_N@Z 10012f90 f i libucrt:output.obj
 0001:000120e5       ?type_case_n@?$output_processor@_WV?$string_output_adapter@_W@__crt_stdio_output@@V?$format_validation_base@_WV?$string_output_adapter@_W@__crt_stdio_output@@@2@@__crt_stdio_output@@AAE_NXZ 100130e5 f i libucrt:output.obj
 0001:00012159       ?type_case_o@?$output_processor@_WV?$string_output_adapter@_W@__crt_stdio_output@@V?$format_validation_base@_WV?$string_output_adapter@_W@__crt_stdio_output@@@2@@__crt_stdio_output@@AAE_NXZ 10013159 f i libucrt:output.obj
 0001:00012178       ?type_case_p@?$output_processor@_WV?$string_output_adapter@_W@__crt_stdio_output@@V?$format_validation_base@_WV?$string_output_adapter@_W@__crt_stdio_output@@@2@@__crt_stdio_output@@AAE_NXZ 10013178 f i libucrt:output.obj
 0001:00012190       ?type_case_s@?$output_processor@_WV?$string_output_adapter@_W@__crt_stdio_output@@V?$format_validation_base@_WV?$string_output_adapter@_W@__crt_stdio_output@@@2@@__crt_stdio_output@@AAE_NXZ 10013190 f i libucrt:output.obj
 0001:00012203       ?type_case_s_compute_narrow_string_length@?$output_processor@_WV?$string_output_adapter@_W@__crt_stdio_output@@V?$format_validation_base@_WV?$string_output_adapter@_W@__crt_stdio_output@@@2@@__crt_stdio_output@@ABEHH_W@Z 10013203 f i libucrt:output.obj
 0001:0001224a       ?validate@?$string_output_adapter@_W@__crt_stdio_output@@QBE_NXZ 1001324a f i libucrt:output.obj
 0001:0001224a       ?validate@?$c_string_character_source@_W@__crt_strtox@@QBE_NXZ 1001324a f i libucrt:atox.obj
 0001:00012265       ?validate_and_update_state_at_end_of_format_string@?$format_validation_base@_WV?$string_output_adapter@_W@__crt_stdio_output@@@__crt_stdio_output@@IBE_NXZ 10013265 f i libucrt:output.obj
 0001:00012287       ?write_character@?$string_output_adapter@_W@__crt_stdio_output@@QBE_N_WQAH@Z 10013287 f i libucrt:output.obj
 0001:000122cc       ?write_stored_string_tchar@?$output_processor@_WV?$string_output_adapter@_W@__crt_stdio_output@@V?$format_validation_base@_WV?$string_output_adapter@_W@__crt_stdio_output@@@2@@__crt_stdio_output@@AAE_N_W@Z 100132cc f i libucrt:output.obj
 0001:0001235f       ?write_string@?$string_output_adapter@_W@__crt_stdio_output@@QBEXQB_WHQAHAAV__crt_deferred_errno_cache@@@Z 1001335f f i libucrt:output.obj
 0001:000123d0       ___acrt_locale_get_ctype_array_value 100133d0 f i libucrt:output.obj
 0001:000123f2       ___stdio_common_vswprintf_s 100133f2 f   libucrt:output.obj
 0001:00012416       __seh_filter_dll           10013416 f   libucrt:exception_filter.obj
 0001:00012436       __seh_filter_exe           10013436 f   libucrt:exception_filter.obj
 0001:00012804       ___acrt_initialize_thread_local_exit_callback 10013804 f   libucrt:exit.obj
 0001:00012813       __cexit                    10013813 f   libucrt:exit.obj
 0001:00012822       __exit                     10013822 f   libucrt:exit.obj
 0001:00012838       __is_c_termination_complete 10013838 f   libucrt:exit.obj
 0001:00012aec       ___acrt_allocate_buffer_for_argv 10013aec f   libucrt:argv_parsing.obj
 0001:00012b3b       __configure_narrow_argv    10013b3b f   libucrt:argv_parsing.obj
 0001:00012c98       ??$uninitialize@A6AXAAPAPA_W@Z@?$dual_state_global@PAPA_W@__crt_state_management@@QAEXA6AXAAPAPA_W@Z@Z 10013c98 f i libucrt:environment_initialization.obj
 0001:00012c98       ??$uninitialize@A6AXAAPAPAD@Z@?$dual_state_global@PAPAD@__crt_state_management@@QAEXA6AXAAPAPAD@Z@Z 10013c98 f i libucrt:environment_initialization.obj
 0001:00012cf7       ___dcrt_uninitialize_environments_nolock 10013cf7 f   libucrt:environment_initialization.obj
 0001:00012d2e       __initialize_narrow_environment 10013d2e f   libucrt:environment_initialization.obj
 0001:00012de9       ??$__crt_fast_encode_pointer@P6AHXZ@@YAP6AHXZQ6AHXZ@Z 10013de9 f i libucrt:onexit.obj
 0001:00012de9       ??$__crt_fast_encode_pointer@PAP6AXXZ@@YAPAP6AXXZQAP6AXXZ@Z 10013de9 f i libucrt:onexit.obj
 0001:00012de9       ??$__crt_fast_encode_pointer@PAX@@YAPAXQAX@Z 10013de9 f i libucrt:initialization.obj
 0001:0001300b       __crt_atexit               1001400b f   libucrt:onexit.obj
 0001:00013021       __execute_onexit_table     10014021 f   libucrt:onexit.obj
 0001:0001304e       __initialize_onexit_table  1001404e f   libucrt:onexit.obj
 0001:00013077       __register_onexit_function 10014077 f   libucrt:onexit.obj
 0001:000130aa       ___acrt_uninitialize_command_line 100140aa f   libucrt:argv_data.obj
 0001:000131a8       ___acrt_initialize         100141a8 f   libucrt:initialization.obj
 0001:000131ba       ___acrt_thread_attach      100141ba f   libucrt:initialization.obj
 0001:000131c5       ___acrt_thread_detach      100141c5 f   libucrt:initialization.obj
 0001:000131cd       ___acrt_uninitialize       100141cd f   libucrt:initialization.obj
 0001:000131fd       ___acrt_uninitialize_critical 100141fd f   libucrt:initialization.obj
 0001:0001320f       __initterm                 1001420f f   libucrt:initterm.obj
 0001:00013254       __initterm_e               10014254 f   libucrt:initterm.obj
 0001:00013282       ___acrt_initialize_new_handler 10014282 f   libucrt:new_handler.obj
 0001:00013291       __callnewh                 10014291 f   libucrt:new_handler.obj
 0001:000132be       __query_new_handler        100142be f   libucrt:new_handler.obj
 0001:0001331a       _terminate                 1001431a f   libucrt:terminate.obj
 0001:00013356       _abort                     10014356 f   libucrt:abort.obj
 0001:0001339a       _strcpy_s                  1001439a f   libucrt:strcpy_s.obj
 0001:000133f4       ??$is_overflow_condition@K@__crt_strtox@@YA_NIK@Z 100143f4 f i libucrt:atox.obj
 0001:00013425       ??$parse_integer@KV?$c_string_character_source@_W@__crt_strtox@@@__crt_strtox@@YAKQAU__crt_locale_pointers@@V?$c_string_character_source@_W@0@H_N@Z 10014425 f i libucrt:atox.obj
 0001:00013a2d       ?unget@?$c_string_character_source@_W@__crt_strtox@@QAEX_W@Z 10014a2d f i libucrt:atox.obj
 0001:00013a60       _strncmp                   10014a60 f   libucrt:strncmp.obj
 0001:00013ad8       _wcsncmp                   10014ad8 f   libucrt:wcsncmp.obj
 0001:00013b12       __free_base                10014b12 f   libucrt:free_base.obj
 0001:00013e8a       ___acrt_freeptd            10014e8a f   libucrt:per_thread_data.obj
 0001:00013eb6       ___acrt_getptd             10014eb6 f   libucrt:per_thread_data.obj
 0001:00013f73       ___acrt_getptd_head        10014f73 f   libucrt:per_thread_data.obj
 0001:0001400d       ___acrt_getptd_noexit      1001500d f   libucrt:per_thread_data.obj
 0001:000140c2       ___acrt_initialize_ptd     100150c2 f   libucrt:per_thread_data.obj
 0001:000140ee       ___acrt_uninitialize_ptd   100150ee f   libucrt:per_thread_data.obj
 0001:00014108       __calloc_base              10015108 f   libucrt:calloc_base.obj
 0001:00014165       __malloc_base              10015165 f   libucrt:malloc_base.obj
 0001:000141b3       __msize_base               100151b3 f   libucrt:msize.obj
 0001:000141e6       __realloc_base             100151e6 f   libucrt:realloc_base.obj
 0001:000143e7       ___acrt_AppPolicyGetProcessTerminationMethodInternal@4 100153e7 f   libucrt:winapi_thunks.obj
 0001:00014427       ___acrt_AreFileApisANSI@0  10015427 f   libucrt:winapi_thunks.obj
 0001:00014446       ___acrt_FlsAlloc@4         10015446 f   libucrt:winapi_thunks.obj
 0001:00014485       ___acrt_FlsFree@4          10015485 f   libucrt:winapi_thunks.obj
 0001:000144c4       ___acrt_FlsGetValue@4      100154c4 f   libucrt:winapi_thunks.obj
 0001:00014503       ___acrt_FlsSetValue@8      10015503 f   libucrt:winapi_thunks.obj
 0001:00014545       ___acrt_InitializeCriticalSectionEx@12 10015545 f   libucrt:winapi_thunks.obj
 0001:00014590       ___acrt_LCMapStringEx@36   10015590 f   libucrt:winapi_thunks.obj
 0001:000145ed       ___acrt_LocaleNameToLCID@8 100155ed f   libucrt:winapi_thunks.obj
 0001:0001461e       ___acrt_SetThreadStackGuarantee@4 1001561e f   libucrt:winapi_thunks.obj
 0001:00014659       ___acrt_initialize_winapi_thunks 10015659 f   libucrt:winapi_thunks.obj
 0001:00014684       ___acrt_uninitialize_winapi_thunks 10015684 f   libucrt:winapi_thunks.obj
 0001:000146ba       ??$make_c_string_character_source@_WPAPA_W@__crt_strtox@@YA?AV?$c_string_character_source@_W@0@QB_WQAPA_W@Z 100156ba f i libucrt:strtox.obj
 0001:000146d5       _wcstol                    100156d5 f   libucrt:strtox.obj
 0001:000146ff       __mbtowc_l                 100156ff f   libucrt:mbtowc.obj
 0001:00014841       _mbtowc                    10015841 f   libucrt:mbtowc.obj
 0001:0001485b       _wcsnlen                   1001585b f   libucrt:strnlen.obj
 0001:00014a0b       ___acrt_update_locale_info 10015a0b f   libucrt:locale_update.obj
 0001:00014a38       ___acrt_update_multibyte_info 10015a38 f   libucrt:locale_update.obj
 0001:00014a65       ?__acrt_fp_classify@@YA?AW4__acrt_fp_class@@ABN@Z 10015a65 f i libucrt:cvt.obj
 0001:000152b0       ___acrt_fp_format          100162b0 f   libucrt:cvt.obj
 0001:000153eb       __fileno                   100163eb f   libucrt:fileno.obj
 0001:00015412       ___acrt_initialize_stdio   10016412 f   libucrt:_file.obj
 0001:000154da       ___acrt_uninitialize_stdio 100164da f   libucrt:_file.obj
 0001:00015526       __lock_file                10016526 f   libucrt:_file.obj
 0001:0001553a       __unlock_file              1001653a f   libucrt:_file.obj
 0001:0001554e       __get_printf_count_output  1001654e f   libucrt:printf_count_output.obj
 0001:000155d1       ___acrt_set_locale_changed 100165d1 f   libucrt:wsetlocale.obj
 0001:000155dc       ___acrt_uninitialize_locale 100165dc f   libucrt:wsetlocale.obj
 0001:0001576d       ___acrt_initialize_lowio   1001676d f   libucrt:ioinit.obj
 0001:000157cd       ___acrt_uninitialize_lowio 100167cd f   libucrt:ioinit.obj
 0001:000157f9       ___acrt_initialize_locks   100167f9 f   libucrt:locks.obj
 0001:0001583a       ___acrt_lock               1001683a f   libucrt:locks.obj
 0001:00015851       ___acrt_uninitialize_locks 10016851 f   libucrt:locks.obj
 0001:00015882       ___acrt_unlock             10016882 f   libucrt:locks.obj
 0001:00015899       ___acrt_get_process_end_policy 10016899 f   libucrt:win_policies.obj
 0001:00015a63       ??$__acrt_mbs_to_wcs_cp@U__crt_win32_buffer_internal_dynamic_resizing@@@@YAHQBDAAV?$__crt_win32_buffer@_WU__crt_win32_buffer_internal_dynamic_resizing@@@@I@Z 10016a63 f i libucrt:argv_wildcards.obj
 0001:00015f77       ?__acrt_get_utf8_acp_compatibility_codepage@@YAIXZ 10016f77 f i libucrt:argv_wildcards.obj
 0001:00015fb6       ?_deallocate@?$__crt_win32_buffer@DU__crt_win32_buffer_internal_dynamic_resizing@@@@AAEXXZ 10016fb6 f i libucrt:argv_wildcards.obj
 0001:00015fb6       ?_deallocate@?$__crt_win32_buffer@_WU__crt_win32_buffer_internal_dynamic_resizing@@@@AAEXXZ 10016fb6 f i libucrt:argv_wildcards.obj
 0001:00015fd0       ?allocate@?$__crt_win32_buffer@DU__crt_win32_buffer_internal_dynamic_resizing@@@@QAEHI@Z 10016fd0 f i libucrt:argv_wildcards.obj
 0001:0001600c       ?allocate@?$__crt_win32_buffer@_WU__crt_win32_buffer_internal_dynamic_resizing@@@@QAEHI@Z 1001700c f i libucrt:argv_wildcards.obj
 0001:0001604b       ?allocate@__crt_win32_buffer_internal_dynamic_resizing@@SAHQAPAXIABV__crt_win32_buffer_empty_debug_info@@@Z 1001704b f i libucrt:argv_wildcards.obj
 0001:000160f1       ___acrt_expand_narrow_argv_wildcards 100170f1 f   libucrt:argv_wildcards.obj
 0001:000161c3       ?allocate@?$__crt_win32_buffer@DU__crt_win32_buffer_no_resizing@@@@QAEHI@Z 100171c3 f i libucrt:getmodulefilenamea.obj
 0001:000161ea       ?set_to_nullptr@?$__crt_win32_buffer@DU__crt_win32_buffer_no_resizing@@@@QAEXXZ 100171ea f i libucrt:getmodulefilenamea.obj
 0001:000161fe       ___acrt_GetModuleFileNameA 100171fe f   libucrt:getmodulefilenamea.obj
 0001:000167bd       ___acrt_initialize_multibyte 100177bd f   libucrt:mbctype.obj
 0001:00016805       ___acrt_update_thread_multibyte_data 10017805 f   libucrt:mbctype.obj
 0001:00016818       __setmbcp_nolock           10017818 f   libucrt:mbctype.obj
 0001:00016ae3       __ismbblead                10017ae3 f   libucrt:ismbbyte.obj
 0001:00016afb       ___acrt_initialize_command_line 10017afb f   libucrt:argv_data.obj
 0001:00016b14       ___acrt_MultiByteToWideChar 10017b14 f   libucrt:multibytetowidechar.obj
 0001:00016b90       ___acrt_WideCharToMultiByte 10017b90 f   libucrt:widechartomultibyte.obj
 0001:00016c74       ___dcrt_get_narrow_environment_from_os 10017c74 f   libucrt:get_environment_from_os.obj
 0001:00016cf8       ___acrt_initialize_heap    10017cf8 f   libucrt:heap_handle.obj
 0001:00016d09       ___acrt_uninitialize_heap  10017d09 f   libucrt:heap_handle.obj
 0001:00016d13       ___acrt_execute_initializers 10017d13 f   libucrt:shared_initialization.obj
 0001:00016d7b       ___acrt_execute_uninitializers 10017d7b f   libucrt:shared_initialization.obj
 0001:00016e7a       ___acrt_get_sigabrt_handler 10017e7a f   libucrt:signal.obj
 0001:00016ea1       ___acrt_initialize_signal_handlers 10017ea1 f   libucrt:signal.obj
 0001:00016ebf       ___fpecode                 10017ebf f   libucrt:signal.obj
 0001:00016ec8       _raise                     10017ec8 f   libucrt:signal.obj
 0001:000170c3       ___acrt_has_user_matherr   100180c3 f   libucrt:matherr.obj
 0001:000170db       ___acrt_initialize_user_matherr 100180db f   libucrt:matherr.obj
 0001:000170ea       ___acrt_invoke_user_matherr 100180ea f   libucrt:matherr.obj
 0001:000172f9       ___acrt_stdio_flush_nolock 100182f9 f   libucrt:fflush.obj
 0001:0001735e       __fflush_nolock            1001835e f   libucrt:fflush.obj
 0001:000173a6       __flushall                 100183a6 f   libucrt:fflush.obj
 0001:000173af       ___pctype_func             100183af f   libucrt:ctype.obj
 0001:000173d3       _iswctype                  100183d3 f   libucrt:iswctype.obj
 0001:0001743c       ___acrt_add_locale_ref     1001843c f   libucrt:locale_refcounting.obj
 0001:000174b9       ___acrt_free_locale        100184b9 f   libucrt:locale_refcounting.obj
 0001:00017601       ___acrt_locale_add_lc_time_reference 10018601 f   libucrt:locale_refcounting.obj
 0001:0001762a       ___acrt_locale_free_lc_time_if_unreferenced 1001862a f   libucrt:locale_refcounting.obj
 0001:0001765b       ___acrt_locale_release_lc_time_reference 1001865b f   libucrt:locale_refcounting.obj
 0001:00017684       ___acrt_release_locale_ref 10018684 f   libucrt:locale_refcounting.obj
 0001:00017705       ___acrt_update_thread_locale_data 10018705 f   libucrt:locale_refcounting.obj
 0001:00017786       __updatetlocinfoEx_nolock  10018786 f   libucrt:locale_refcounting.obj
 0001:000177d6       __query_new_mode           100187d6 f   libucrt:new_mode.obj
 0001:0001782d       ___acrt_DownlevelLocaleNameToLCID 1001882d f   libucrt:lcidtoname_downlevel.obj
 0001:00017859       __isleadbyte_l             10018859 f i libucrt:_wctype.obj
 0001:000178bf       ?__mbrtowc_utf8@__crt_mbstring@@YAIPA_WPBDIPAU_Mbstatet@@@Z 100188bf f   libucrt:mbrtowc.obj
 0001:000178ff       ?__mbsrtowcs_utf8@__crt_mbstring@@YAIPA_WPAPBDIPAU_Mbstatet@@@Z 100188ff f   libucrt:mbrtowc.obj
 0001:000179fa       ?return_illegal_sequence@__crt_mbstring@@YAIPAU_Mbstatet@@@Z 100189fa f i libucrt:c32rtomb.obj
 0001:00017a19       ___acrt_fp_strflt_to_string 10018a19 f   libucrt:_fptostr.obj
 0001:00017ae0       ?divide@__crt_strtox@@YA_KAAUbig_integer@1@ABU21@@Z 10018ae0 f i libucrt:cfout.obj
 0001:00017f78       ___acrt_fltout             10018f78 f   libucrt:cfout.obj
 0001:000192c2       __fcloseall                1001a2c2 f   libucrt:closeall.obj
 0001:0001936d       ___acrt_stdio_free_buffer_nolock 1001a36d f   libucrt:_freebuf.obj
 0001:000193ad       __isatty                   1001a3ad f   libucrt:isatty.obj
 0001:00019403       ___acrt_locale_free_monetary 1001a403 f   libucrt:initmon.obj
 0001:00019501       ___acrt_locale_free_numeric 1001a501 f   libucrt:initnum.obj
 0001:000195a2       ___acrt_locale_free_time   1001a5a2 f   libucrt:inittime.obj
 0001:00019686       ___acrt_GetStringTypeA     1001a686 f   libucrt:getstringtypea.obj
 0001:00019789       __freea_crt                1001a789 f i libucrt:getstringtypea.obj
 0001:000197a9       ___acrt_lowio_create_handle_array 1001a7a9 f   libucrt:osfinfo.obj
 0001:00019824       ___acrt_lowio_destroy_handle_array 1001a824 f   libucrt:osfinfo.obj
 0001:00019859       ___acrt_lowio_ensure_fh_exists 1001a859 f   libucrt:osfinfo.obj
 0001:000198f7       ___acrt_lowio_lock_fh      1001a8f7 f   libucrt:osfinfo.obj
 0001:0001991a       ___acrt_lowio_unlock_fh    1001a91a f   libucrt:osfinfo.obj
 0001:0001993d       __free_osfhnd              1001a93d f   libucrt:osfinfo.obj
 0001:000199ce       __get_osfhandle            1001a9ce f   libucrt:osfinfo.obj
 0001:00019a80       _qsort                     1001aa80 f   libucrt:qsort.obj
 0001:00019f77       _strncpy_s                 1001af77 f   libucrt:strncpy_s.obj
 0001:00019f90       _strpbrk                   1001af90 f   libucrt:strpbrk.obj
 0001:00019fd0       __mbsdec                   1001afd0 f   libucrt:mbsdec.obj
 0001:00019fe7       __mbsdec_l                 1001afe7 f   libucrt:mbsdec.obj
 0001:0001a25e       ___acrt_LCMapStringA       1001b25e f   libucrt:lcmapstringa.obj
 0001:0001a358       __commit                   1001b358 f   libucrt:commit.obj
 0001:0001ab4e       __write                    1001bb4e f   libucrt:write.obj
 0001:0001ac40       __write_nolock             1001bc40 f   libucrt:write.obj
 0001:0001ae22       ___acrt_GetStringTypeW     1001be22 f   libucrt:getstringtypew.obj
 0001:0001ae3b       ___ascii_wcsnicmp          1001be3b f   libucrt:wcsnicmp.obj
 0001:0001ae8a       ?__mbrtoc32_utf8@__crt_mbstring@@YAIPA_UPBDIPAU_Mbstatet@@@Z 1001be8a f   libucrt:mbrtoc32.obj
 0001:0001b031       _fegetenv                  1001c031 f   libucrt:fegetenv.obj
 0001:0001b04e       _fesetenv                  1001c04e f   libucrt:fesetenv.obj
 0001:0001b099       _feholdexcept              1001c099 f   libucrt:feholdexcept.obj
 0001:0001b0f0       __CIlog10                  1001c0f0 f   libucrt:log10_impl.obj
 0001:0001b12b       __CIlog10_default          1001c12b f   libucrt:log10_impl.obj
 0001:0001b13f       __log10_default            1001c13f     libucrt:log10_impl.obj
 0001:0001b200       _ceil                      1001c200 f   libucrt:ceil_pentium4.obj
 0001:0001b240       __ceil_pentium4            1001c240 f   libucrt:ceil_pentium4.obj
 0001:0001b399       __lseeki64_nolock          1001c399 f   libucrt:lseek.obj
 0001:0001b3b4       __fclose_nolock            1001c3b4 f   libucrt:fclose.obj
 0001:0001b42b       _fclose                    1001c42b f   libucrt:fclose.obj
 0001:0001b4af       __query_app_type           1001c4af f   libucrt:report_runtime_error.obj
 0001:0001b4b5       ___strncnt                 1001c4b5 f   libucrt:strncnt.obj
 0001:0001b4d1       __putwch_nolock            1001c4d1 f   libucrt:putwch.obj
 0001:0001b810       ___acrt_fenv_get_control   1001c810 f   libucrt:_fenvutils.obj
 0001:0001b890       ___acrt_fenv_get_status    1001c890 f   libucrt:_fenvutils.obj
 0001:0001b948       ___acrt_fenv_set_control   1001c948 f   libucrt:_fenvutils.obj
 0001:0001b9b0       ___acrt_fenv_set_status    1001c9b0 f   libucrt:_fenvutils.obj
 0001:0001baa7       __clearfp                  1001caa7 f   libucrt:ieee87.obj
 0001:0001bb85       ___acrt_initialize_sse2    1001cb85 f   libucrt:mathfcns.obj
 0001:0001bba0       __CIlog10_pentium4         1001cba0 f   libucrt:log10_pentium4.obj
 0001:0001bbb8       __log10_pentium4           1001cbb8     libucrt:log10_pentium4.obj
 0001:0001be50       __fFEXP                    1001ce50 f   libucrt:87tran.obj
 0001:0001bea7       __rtinfpopse               1001cea7     libucrt:87tran.obj
 0001:0001bea9       __rtinfnpopse              1001cea9     libucrt:87tran.obj
 0001:0001beb9       __fFLN                     1001ceb9     libucrt:87tran.obj
 0001:0001bf6e       __rtinfpop                 1001cf6e     libucrt:87tran.obj
 0001:0001bf70       __rtinfnpop                1001cf70     libucrt:87tran.obj
 0001:0001bf80       __rtforexpinf              1001cf80 f   libucrt:87tran.obj
 0001:0001bf8d       __ffexpm1                  1001cf8d     libucrt:87tran.obj
 0001:0001c040       __trandisp1                1001d040 f   libucrt:87disp.obj
 0001:0001c0b5       __trandisp2                1001d0b5 f   libucrt:87disp.obj
 0001:0001c14f       __rttospopde               1001d14f     libucrt:87disp.obj
 0001:0001c154       __rttospop                 1001d154     libucrt:87disp.obj
 0001:0001c160       __rtnospop                 1001d160 f   libucrt:87disp.obj
 0001:0001c170       __rttosnpop                1001d170 f   libucrt:87disp.obj
 0001:0001c171       __rtnospopde               1001d171     libucrt:87disp.obj
 0001:0001c178       __rtzeropop                1001d178     libucrt:87disp.obj
 0001:0001c17a       __rtzeronpop               1001d17a     libucrt:87disp.obj
 0001:0001c180       __rtzerospop               1001d180 f   libucrt:87disp.obj
 0001:0001c18d       __rtonepop                 1001d18d     libucrt:87disp.obj
 0001:0001c190       __rtonenpop                1001d190 f   libucrt:87disp.obj
 0001:0001c1a0       __tosnan1                  1001d1a0 f   libucrt:87disp.obj
 0001:0001c1d0       __nosnan2                  1001d1d0 f   libucrt:87disp.obj
 0001:0001c1e0       __tosnan2                  1001d1e0 f   libucrt:87disp.obj
 0001:0001c210       __nan2                     1001d210 f   libucrt:87disp.obj
 0001:0001c250       __rtindfpop                1001d250 f   libucrt:87disp.obj
 0001:0001c252       __rtindfnpop               1001d252     libucrt:87disp.obj
 0001:0001c263       __rttosnpopde              1001d263     libucrt:87disp.obj
 0001:0001c270       __rtatan2inf               1001d270 f   libucrt:87disp.obj
 0001:0001c28d       __rtchsifneg               1001d28d     libucrt:87disp.obj
 0001:0001c2a0       __twoToTOS                 1001d2a0 f   libucrt:common.obj
 0001:0001c2b5       __load_CW                  1001d2b5 f   libucrt:common.obj
 0001:0001c2cc       __convertTOStoQNaN         1001d2cc f   libucrt:common.obj
 0001:0001c2e5       __fload_withFB             1001d2e5 f   libucrt:common.obj
 0001:0001c328       __checkTOS_withFB          1001d328 f   libucrt:common.obj
 0001:0001c33e       __fast_exit                1001d33e f   libucrt:common.obj
 0001:0001c34b       __math_exit                1001d34b f   libucrt:common.obj
 0001:0001c375       __check_overflow_exit      1001d375 f   libucrt:common.obj
 0001:0001c389       __check_range_exit         1001d389 f   libucrt:common.obj
 0001:0001c430       __startTwoArgErrorHandling 1001d430 f   libucrt:genexcep.obj
 0001:0001c447       __startOneArgErrorHandling 1001d447 f   libucrt:genexcep.obj
 0001:0001c483       ___libm_error_support      1001d483 f   libucrt:libm_error.obj
 0001:0001c677       __ceil_default             1001d677 f   libucrt:ceil.obj
 0001:0001c7b8       __close                    1001d7b8 f   libucrt:close.obj
 0001:0001c845       __close_nolock             1001d845 f   libucrt:close.obj
 0001:0001c8e1       ?__acrt_stdio_free_stream@@YAXV__crt_stdio_stream@@@Z 1001d8e1 f   libucrt:stream.obj
 0001:0001c920       ___ascii_strnicmp          1001d920 f   libucrt:_strnicm.obj
 0001:0001c9a0       ___dcrt_lowio_ensure_console_output_initialized 1001d9a0 f   libucrt:initcon.obj
 0001:0001c9bf       ___dcrt_terminate_console_output 1001d9bf f   libucrt:initcon.obj
 0001:0001c9d6       ___dcrt_write_console      1001d9d6 f   libucrt:initcon.obj
 0001:0001ca2b       __clrfp                    1001da2b f   libucrt:fpctrl.obj
 0001:0001ca3c       __ctrlfp                   1001da3c f   libucrt:fpctrl.obj
 0001:0001ca66       __set_statfp               1001da66 f   libucrt:fpctrl.obj
 0001:0001cabf       __statfp                   1001dabf f   libucrt:fpctrl.obj
 0001:0001cacf       __d_inttype                1001dacf f   libucrt:powhlp.obj
 0001:0001cb37       __powhlp                   1001db37 f   libucrt:powhlp.obj
 0001:0001cc62       __87except                 1001dc62 f   libucrt:87except.obj
 0001:0001cd6c       __frnd                     1001dd6c f   libucrt:frnd.obj
 0001:0001cd80       __errcode                  1001dd80 f   libucrt:fpexcept.obj
 0001:0001cdb4       __except1                  1001ddb4 f   libucrt:fpexcept.obj
 0001:0001ce82       __handle_exc               1001de82 f   libucrt:fpexcept.obj
 0001:0001d06d       __raise_exc                1001e06d f   libucrt:fpexcept.obj
 0001:0001d090       __raise_exc_ex             1001e090 f   libucrt:fpexcept.obj
 0001:0001d386       __set_errno_from_matherr   1001e386 f   libucrt:fpexcept.obj
 0001:0001d3b5       __umatherr                 1001e3b5 f   libucrt:fpexcept.obj
 0001:0001d455       __decomp                   1001e455 f   libucrt:util.obj
 0001:0001d527       __set_exp                  1001e527 f   libucrt:util.obj
 0001:0001d554       __sptype                   1001e554 f   libucrt:util.obj
 0001:0001d5b2       __fpclass                  1001e5b2 f   libucrt:ieeemisc.obj
 0001:0001d656       _IsProcessorFeaturePresent@4 1001e656 f   kernel32:KERNEL32.dll
 0001:0001d660       __FindPESection            1001e660 f   LIBCMT:pesect.obj
 0001:0001d6b0       __IsNonwritableInCurrentImage 1001e6b0 f   LIBCMT:pesect.obj
 0001:0001d770       __ValidateImageBase        1001e770 f   LIBCMT:pesect.obj
 0001:0001d7a3       __EH_prolog3_catch         1001e7a3 f   LIBCMT:ehprolg3.obj
 0001:0001d7e0       __aulldvrm                 1001e7e0 f   LIBCMT:ulldvrm.obj
 0001:0001d880       __allmul                   1001e880 f   LIBCMT:llmul.obj
 0001:0001d8c0       __alldvrm                  1001e8c0 f   LIBCMT:lldvrm.obj
 0001:0001d9a0       __aullshr                  1001e9a0 f   LIBCMT:ullshr.obj
 0001:0001d9c0       __allshl                   1001e9c0 f   LIBCMT:llshl.obj
 0001:0001d9e0       __ftol2_sse                1001e9e0     LIBCMT:ftol2.obj
 0001:0001d9e0       __ftoi2                    1001e9e0 f   LIBCMT:ftol2.obj
 0001:0001d9e0       __ftol2_sse_excpt          1001e9e0     LIBCMT:ftol2.obj
 0001:0001da60       __ftoui2                   1001ea60 f   LIBCMT:ftol2.obj
 0001:0001db10       __ftol2                    1001eb10 f   LIBCMT:ftol2.obj
 0001:0001dbc0       __ftoul2                   1001ebc0 f   LIBCMT:ftol2.obj
 0001:0001dc80       _strrchr                   1001ec80 f   libvcruntime:strrchr.obj
 0001:0001ddc0       _strchr                    1001edc0 f   libvcruntime:strchr.obj
 0001:0001de2e       ___from_strstr_to_strchr   1001ee2e     libvcruntime:strchr.obj
 0001:0001deeb       __filter_x86_sse2_floating_point_exception_default 1001eeeb f   LIBCMT:x86_exception_filter.obj
 0001:0001deeb       __filter_x86_sse2_floating_point_exception 1001eeeb f   LIBCMT:x86_exception_filter.obj
 0002:00000000       __imp__RegQueryValueExW@24 1001f000     advapi32:ADVAPI32.dll
 0002:00000004       __imp__RegSetValueExW@24   1001f004     advapi32:ADVAPI32.dll
 0002:00000008       __imp__RegQueryInfoKeyW@48 1001f008     advapi32:ADVAPI32.dll
 0002:0000000c       __imp__RegOpenKeyExW@20    1001f00c     advapi32:ADVAPI32.dll
 0002:00000010       __imp__RegEnumKeyExW@32    1001f010     advapi32:ADVAPI32.dll
 0002:00000014       __imp__RegDeleteValueW@8   1001f014     advapi32:ADVAPI32.dll
 0002:00000018       __imp__RegDeleteKeyW@8     1001f018     advapi32:ADVAPI32.dll
 0002:0000001c       __imp__RegCreateKeyExW@36  1001f01c     advapi32:ADVAPI32.dll
 0002:00000020       __imp__RegCloseKey@4       1001f020     advapi32:ADVAPI32.dll
 0002:00000024       \177ADVAPI32_NULL_THUNK_DATA 1001f024     advapi32:ADVAPI32.dll
 0002:00000028       __imp__GetObjectW@12       1001f028     gdi32:GDI32.dll
 0002:0000002c       __imp__SelectObject@8      1001f02c     gdi32:GDI32.dll
 0002:00000030       __imp__DeleteObject@4      1001f030     gdi32:GDI32.dll
 0002:00000034       __imp__CreateCompatibleDC@4 1001f034     gdi32:GDI32.dll
 0002:00000038       __imp__BitBlt@36           1001f038     gdi32:GDI32.dll
 0002:0000003c       __imp__SetWindowOrgEx@16   1001f03c     gdi32:GDI32.dll
 0002:00000040       __imp__SetWindowExtEx@16   1001f040     gdi32:GDI32.dll
 0002:00000044       __imp__SetViewportOrgEx@16 1001f044     gdi32:GDI32.dll
 0002:00000048       __imp__LPtoDP@12           1001f048     gdi32:GDI32.dll
 0002:0000004c       __imp__SetMapMode@8        1001f04c     gdi32:GDI32.dll
 0002:00000050       __imp__SaveDC@4            1001f050     gdi32:GDI32.dll
 0002:00000054       __imp__RestoreDC@8         1001f054     gdi32:GDI32.dll
 0002:00000058       __imp__GetDeviceCaps@8     1001f058     gdi32:GDI32.dll
 0002:0000005c       __imp__DeleteMetaFile@4    1001f05c     gdi32:GDI32.dll
 0002:00000060       __imp__DeleteDC@4          1001f060     gdi32:GDI32.dll
 0002:00000064       __imp__CreateRectRgnIndirect@4 1001f064     gdi32:GDI32.dll
 0002:00000068       __imp__CreateMetaFileW@4   1001f068     gdi32:GDI32.dll
 0002:0000006c       __imp__CreateDCW@16        1001f06c     gdi32:GDI32.dll
 0002:00000070       __imp__CloseMetaFile@4     1001f070     gdi32:GDI32.dll
 0002:00000074       \177GDI32_NULL_THUNK_DATA  1001f074     gdi32:GDI32.dll
 0002:00000078       __imp__CloseHandle@4       1001f078     kernel32:KERNEL32.dll
 0002:0000007c       __imp__SetEvent@4          1001f07c     kernel32:KERNEL32.dll
 0002:00000080       __imp__CreateMutexW@12     1001f080     kernel32:KERNEL32.dll
 0002:00000084       __imp__CreateEventW@16     1001f084     kernel32:KERNEL32.dll
 0002:00000088       __imp__GetCurrentProcessId@0 1001f088     kernel32:KERNEL32.dll
 0002:0000008c       __imp__CreateFileW@28      1001f08c     kernel32:KERNEL32.dll
 0002:00000090       __imp__GetConsoleMode@8    1001f090     kernel32:KERNEL32.dll
 0002:00000094       __imp__GetConsoleCP@0      1001f094     kernel32:KERNEL32.dll
 0002:00000098       __imp__WriteFile@20        1001f098     kernel32:KERNEL32.dll
 0002:0000009c       __imp__FlushFileBuffers@4  1001f09c     kernel32:KERNEL32.dll
 0002:000000a0       __imp__SetStdHandle@8      1001f0a0     kernel32:KERNEL32.dll
 0002:000000a4       __imp__GetStringTypeW@16   1001f0a4     kernel32:KERNEL32.dll
 0002:000000a8       __imp__SetFilePointerEx@20 1001f0a8     kernel32:KERNEL32.dll
 0002:000000ac       __imp__FreeEnvironmentStringsW@4 1001f0ac     kernel32:KERNEL32.dll
 0002:000000b0       __imp__GetEnvironmentStringsW@0 1001f0b0     kernel32:KERNEL32.dll
 0002:000000b4       __imp__lstrcmpiW@8         1001f0b4     kernel32:KERNEL32.dll
 0002:000000b8       __imp__GetCommandLineA@0   1001f0b8     kernel32:KERNEL32.dll
 0002:000000bc       __imp__GetCPInfo@8         1001f0bc     kernel32:KERNEL32.dll
 0002:000000c0       __imp__GetOEMCP@0          1001f0c0     kernel32:KERNEL32.dll
 0002:000000c4       __imp__GetACP@0            1001f0c4     kernel32:KERNEL32.dll
 0002:000000c8       __imp__IsValidCodePage@4   1001f0c8     kernel32:KERNEL32.dll
 0002:000000cc       __imp__FindNextFileW@8     1001f0cc     kernel32:KERNEL32.dll
 0002:000000d0       __imp__FindFirstFileExW@24 1001f0d0     kernel32:KERNEL32.dll
 0002:000000d4       __imp__FindClose@4         1001f0d4     kernel32:KERNEL32.dll
 0002:000000d8       __imp__GetFileType@4       1001f0d8     kernel32:KERNEL32.dll
 0002:000000dc       __imp__GetStdHandle@4      1001f0dc     kernel32:KERNEL32.dll
 0002:000000e0       __imp__LCMapStringW@24     1001f0e0     kernel32:KERNEL32.dll
 0002:000000e4       __imp__HeapReAlloc@16      1001f0e4     kernel32:KERNEL32.dll
 0002:000000e8       __imp__HeapSize@12         1001f0e8     kernel32:KERNEL32.dll
 0002:000000ec       __imp__MulDiv@12           1001f0ec     kernel32:KERNEL32.dll
 0002:000000f0       __imp__GlobalLock@4        1001f0f0     kernel32:KERNEL32.dll
 0002:000000f4       __imp__GlobalUnlock@4      1001f0f4     kernel32:KERNEL32.dll
 0002:000000f8       __imp__GlobalAlloc@8       1001f0f8     kernel32:KERNEL32.dll
 0002:000000fc       __imp__FindResourceW@12    1001f0fc     kernel32:KERNEL32.dll
 0002:00000100       __imp__SizeofResource@8    1001f100     kernel32:KERNEL32.dll
 0002:00000104       __imp__LoadResource@8      1001f104     kernel32:KERNEL32.dll
 0002:00000108       __imp__LoadLibraryExW@12   1001f108     kernel32:KERNEL32.dll
 0002:0000010c       __imp__GetProcAddress@8    1001f10c     kernel32:KERNEL32.dll
 0002:00000110       __imp__GetModuleHandleW@4  1001f110     kernel32:KERNEL32.dll
 0002:00000114       __imp__GetModuleFileNameW@12 1001f114     kernel32:KERNEL32.dll
 0002:00000118       __imp__FreeLibrary@4       1001f118     kernel32:KERNEL32.dll
 0002:0000011c       __imp__DisableThreadLibraryCalls@4 1001f11c     kernel32:KERNEL32.dll
 0002:00000120       __imp__GetCurrentThreadId@0 1001f120     kernel32:KERNEL32.dll
 0002:00000124       __imp__Sleep@4             1001f124     kernel32:KERNEL32.dll
 0002:00000128       __imp__WaitForSingleObject@8 1001f128     kernel32:KERNEL32.dll
 0002:0000012c       __imp__ReleaseMutex@4      1001f12c     kernel32:KERNEL32.dll
 0002:00000130       __imp__ResetEvent@4        1001f130     kernel32:KERNEL32.dll
 0002:00000134       __imp__EnterCriticalSection@4 1001f134     kernel32:KERNEL32.dll
 0002:00000138       __imp__LeaveCriticalSection@4 1001f138     kernel32:KERNEL32.dll
 0002:0000013c       __imp__SetLastError@4      1001f13c     kernel32:KERNEL32.dll
 0002:00000140       __imp__EncodePointer@4     1001f140     kernel32:KERNEL32.dll
 0002:00000144       __imp__DeleteCriticalSection@4 1001f144     kernel32:KERNEL32.dll
 0002:00000148       __imp__InitializeCriticalSectionEx@12 1001f148     kernel32:KERNEL32.dll
 0002:0000014c       __imp__GetLastError@0      1001f14c     kernel32:KERNEL32.dll
 0002:00000150       __imp__RaiseException@16   1001f150     kernel32:KERNEL32.dll
 0002:00000154       __imp__DecodePointer@4     1001f154     kernel32:KERNEL32.dll
 0002:00000158       __imp__WideCharToMultiByte@32 1001f158     kernel32:KERNEL32.dll
 0002:0000015c       __imp__GetCommandLineW@0   1001f15c     kernel32:KERNEL32.dll
 0002:00000160       __imp__MultiByteToWideChar@24 1001f160     kernel32:KERNEL32.dll
 0002:00000164       __imp__WriteConsoleW@20    1001f164     kernel32:KERNEL32.dll
 0002:00000168       __imp__GetModuleHandleExW@12 1001f168     kernel32:KERNEL32.dll
 0002:0000016c       __imp__ExitProcess@4       1001f16c     kernel32:KERNEL32.dll
 0002:00000170       __imp__VirtualQuery@12     1001f170     kernel32:KERNEL32.dll
 0002:00000174       __imp__VirtualProtect@16   1001f174     kernel32:KERNEL32.dll
 0002:00000178       __imp__GetSystemInfo@4     1001f178     kernel32:KERNEL32.dll
 0002:0000017c       __imp__TlsFree@4           1001f17c     kernel32:KERNEL32.dll
 0002:00000180       __imp__TlsSetValue@8       1001f180     kernel32:KERNEL32.dll
 0002:00000184       __imp__TlsGetValue@4       1001f184     kernel32:KERNEL32.dll
 0002:00000188       __imp__TlsAlloc@0          1001f188     kernel32:KERNEL32.dll
 0002:0000018c       __imp__InterlockedFlushSList@4 1001f18c     kernel32:KERNEL32.dll
 0002:00000190       __imp__RtlUnwind@16        1001f190     kernel32:KERNEL32.dll
 0002:00000194       __imp__LoadLibraryExA@12   1001f194     kernel32:KERNEL32.dll
 0002:00000198       __imp__VirtualFree@12      1001f198     kernel32:KERNEL32.dll
 0002:0000019c       __imp__VirtualAlloc@16     1001f19c     kernel32:KERNEL32.dll
 0002:000001a0       __imp__FlushInstructionCache@12 1001f1a0     kernel32:KERNEL32.dll
 0002:000001a4       __imp__InterlockedPushEntrySList@8 1001f1a4     kernel32:KERNEL32.dll
 0002:000001a8       __imp__InterlockedPopEntrySList@4 1001f1a8     kernel32:KERNEL32.dll
 0002:000001ac       __imp__GetProcessHeap@0    1001f1ac     kernel32:KERNEL32.dll
 0002:000001b0       __imp__HeapFree@12         1001f1b0     kernel32:KERNEL32.dll
 0002:000001b4       __imp__HeapAlloc@12        1001f1b4     kernel32:KERNEL32.dll
 0002:000001b8       __imp__OutputDebugStringW@4 1001f1b8     kernel32:KERNEL32.dll
 0002:000001bc       __imp__InitializeSListHead@4 1001f1bc     kernel32:KERNEL32.dll
 0002:000001c0       __imp__GetSystemTimeAsFileTime@4 1001f1c0     kernel32:KERNEL32.dll
 0002:000001c4       __imp__QueryPerformanceCounter@4 1001f1c4     kernel32:KERNEL32.dll
 0002:000001c8       __imp__GetStartupInfoW@4   1001f1c8     kernel32:KERNEL32.dll
 0002:000001cc       __imp__IsDebuggerPresent@0 1001f1cc     kernel32:KERNEL32.dll
 0002:000001d0       __imp__IsProcessorFeaturePresent@4 1001f1d0     kernel32:KERNEL32.dll
 0002:000001d4       __imp__TerminateProcess@8  1001f1d4     kernel32:KERNEL32.dll
 0002:000001d8       __imp__GetCurrentProcess@0 1001f1d8     kernel32:KERNEL32.dll
 0002:000001dc       __imp__SetUnhandledExceptionFilter@4 1001f1dc     kernel32:KERNEL32.dll
 0002:000001e0       __imp__UnhandledExceptionFilter@4 1001f1e0     kernel32:KERNEL32.dll
 0002:000001e4       __imp__InitializeCriticalSectionAndSpinCount@8 1001f1e4     kernel32:KERNEL32.dll
 0002:000001e8       __imp__WaitForSingleObjectEx@12 1001f1e8     kernel32:KERNEL32.dll
 0002:000001ec       \177KERNEL32_NULL_THUNK_DATA 1001f1ec     kernel32:KERNEL32.dll
 0002:000001f0       __imp__OleCreatePropertyFrame@44 1001f1f0     oleaut32:OLEAUT32.dll
 0002:000001f4       __imp__UnRegisterTypeLib@20 1001f1f4     oleaut32:OLEAUT32.dll
 0002:000001f8       __imp__RegisterTypeLib@12  1001f1f8     oleaut32:OLEAUT32.dll
 0002:000001fc       __imp__LoadRegTypeLib@20   1001f1fc     oleaut32:OLEAUT32.dll
 0002:00000200       __imp__LoadTypeLib@8       1001f200     oleaut32:OLEAUT32.dll
 0002:00000204       __imp__VarUI4FromStr@16    1001f204     oleaut32:OLEAUT32.dll
 0002:00000208       __imp__VariantInit@4       1001f208     oleaut32:OLEAUT32.dll
 0002:0000020c       __imp__SysAllocStringByteLen@8 1001f20c     oleaut32:OLEAUT32.dll
 0002:00000210       __imp__SysStringByteLen@4  1001f210     oleaut32:OLEAUT32.dll
 0002:00000214       __imp__VariantChangeType@16 1001f214     oleaut32:OLEAUT32.dll
 0002:00000218       __imp__VariantClear@4      1001f218     oleaut32:OLEAUT32.dll
 0002:0000021c       __imp__SysStringLen@4      1001f21c     oleaut32:OLEAUT32.dll
 0002:00000220       __imp__SysFreeString@4     1001f220     oleaut32:OLEAUT32.dll
 0002:00000224       __imp__SysAllocStringLen@8 1001f224     oleaut32:OLEAUT32.dll
 0002:00000228       __imp__SysAllocString@4    1001f228     oleaut32:OLEAUT32.dll
 0002:0000022c       \177OLEAUT32_NULL_THUNK_DATA 1001f22c     oleaut32:OLEAUT32.dll
 0002:00000230       __imp__UnregisterClassW@8  1001f230     user32:USER32.dll
 0002:00000234       __imp__PostMessageW@16     1001f234     user32:USER32.dll
 0002:00000238       __imp__DefWindowProcW@16   1001f238     user32:USER32.dll
 0002:0000023c       __imp__CallWindowProcW@20  1001f23c     user32:USER32.dll
 0002:00000240       __imp__RegisterClassExW@4  1001f240     user32:USER32.dll
 0002:00000244       __imp__GetClassInfoExW@12  1001f244     user32:USER32.dll
 0002:00000248       __imp__CreateWindowExW@48  1001f248     user32:USER32.dll
 0002:0000024c       __imp__IsWindow@4          1001f24c     user32:USER32.dll
 0002:00000250       __imp__IsChild@8           1001f250     user32:USER32.dll
 0002:00000254       __imp__DestroyWindow@4     1001f254     user32:USER32.dll
 0002:00000258       __imp__ShowWindow@8        1001f258     user32:USER32.dll
 0002:0000025c       __imp__SetWindowPos@28     1001f25c     user32:USER32.dll
 0002:00000260       __imp__CharNextW@4         1001f260     user32:USER32.dll
 0002:00000264       __imp__SetFocus@4          1001f264     user32:USER32.dll
 0002:00000268       __imp__LoadBitmapW@8       1001f268     user32:USER32.dll
 0002:0000026c       __imp__RegisterClassW@4    1001f26c     user32:USER32.dll
 0002:00000270       __imp__PeekMessageW@20     1001f270     user32:USER32.dll
 0002:00000274       __imp__LoadCursorW@8       1001f274     user32:USER32.dll
 0002:00000278       __imp__GetParent@4         1001f278     user32:USER32.dll
 0002:0000027c       __imp__SetWindowLongW@12   1001f27c     user32:USER32.dll
 0002:00000280       __imp__GetWindowLongW@8    1001f280     user32:USER32.dll
 0002:00000284       __imp__PtInRect@12         1001f284     user32:USER32.dll
 0002:00000288       __imp__EqualRect@8         1001f288     user32:USER32.dll
 0002:0000028c       __imp__OffsetRect@12       1001f28c     user32:USER32.dll
 0002:00000290       __imp__UnionRect@12        1001f290     user32:USER32.dll
 0002:00000294       __imp__IntersectRect@12    1001f294     user32:USER32.dll
 0002:00000298       __imp__GetClientRect@8     1001f298     user32:USER32.dll
 0002:0000029c       __imp__InvalidateRect@12   1001f29c     user32:USER32.dll
 0002:000002a0       __imp__SetWindowRgn@12     1001f2a0     user32:USER32.dll
 0002:000002a4       __imp__EndPaint@8          1001f2a4     user32:USER32.dll
 0002:000002a8       __imp__BeginPaint@8        1001f2a8     user32:USER32.dll
 0002:000002ac       __imp__ReleaseDC@8         1001f2ac     user32:USER32.dll
 0002:000002b0       __imp__GetDC@4             1001f2b0     user32:USER32.dll
 0002:000002b4       __imp__GetKeyState@4       1001f2b4     user32:USER32.dll
 0002:000002b8       __imp__GetFocus@0          1001f2b8     user32:USER32.dll
 0002:000002bc       \177USER32_NULL_THUNK_DATA 1001f2bc     user32:USER32.dll
 0002:000002c0       __imp__StringFromGUID2@12  1001f2c0     ole32:ole32.dll
 0002:000002c4       __imp__CoTaskMemAlloc@4    1001f2c4     ole32:ole32.dll
 0002:000002c8       __imp__CoTaskMemRealloc@8  1001f2c8     ole32:ole32.dll
 0002:000002cc       __imp__CoTaskMemFree@4     1001f2cc     ole32:ole32.dll
 0002:000002d0       __imp__ReadClassStm@8      1001f2d0     ole32:ole32.dll
 0002:000002d4       __imp__WriteClassStm@8     1001f2d4     ole32:ole32.dll
 0002:000002d8       __imp__CreateDataAdviseHolder@4 1001f2d8     ole32:ole32.dll
 0002:000002dc       __imp__OleSaveToStream@8   1001f2dc     ole32:ole32.dll
 0002:000002e0       __imp__CreateOleAdviseHolder@4 1001f2e0     ole32:ole32.dll
 0002:000002e4       __imp__OleRegGetUserType@12 1001f2e4     ole32:ole32.dll
 0002:000002e8       __imp__OleRegGetMiscStatus@12 1001f2e8     ole32:ole32.dll
 0002:000002ec       __imp__OleRegEnumVerbs@8   1001f2ec     ole32:ole32.dll
 0002:000002f0       __imp__CLSIDFromProgID@8   1001f2f0     ole32:ole32.dll
 0002:000002f4       __imp__CoCreateInstance@20 1001f2f4     ole32:ole32.dll
 0002:000002f8       \177ole32_NULL_THUNK_DATA  1001f2f8     ole32:ole32.dll
 0002:000002fc       ___guard_check_icall_fptr  1001f2fc     LIBCMT:guard_support.obj
 0002:00000300       ___xc_a                    1001f300     LIBCMT:initializers.obj
 0002:00000318       ___xc_z                    1001f318     LIBCMT:initializers.obj
 0002:0000031c       ___xi_a                    1001f31c     LIBCMT:initializers.obj
 0002:00000324       ___acrt_stdio_initializer  1001f324     libucrt:stdio_initializer.obj
 0002:00000328       ___acrt_multibyte_initializer 1001f328     libucrt:multibyte_initializer.obj
 0002:0000032c       ___acrt_tran_sse2_initializer 1001f32c     libucrt:sse2_initializer.obj
 0002:00000330       ___xi_z                    1001f330     LIBCMT:initializers.obj
 0002:00000334       ___xl_a                    1001f334     LIBCMT:tlssup.obj
 0002:00000338       ___xl_z                    1001f338     LIBCMT:tlssup.obj
 0002:0000033c       ___xp_a                    1001f33c     LIBCMT:initializers.obj
 0002:00000340       ___acrt_locale_terminator  1001f340     libucrt:locale_initializer.obj
 0002:00000344       ___dcrt_console_output_terminator 1001f344     libucrt:console_output_initializer.obj
 0002:00000348       ___acrt_stdio_terminator   1001f348     libucrt:stdio_initializer.obj
 0002:0000034c       ___xp_z                    1001f34c     LIBCMT:initializers.obj
 0002:00000350       ___xt_a                    1001f350     LIBCMT:initializers.obj
 0002:00000354       ___xt_z                    1001f354     LIBCMT:initializers.obj
 0002:00000360       ??_C@_13HADIAKP@?$AAS@     1001f360     OposVariant.obj
 0002:00000364       ??_C@_13LHMFKAAD@?$AAM@    1001f364     OposVariant.obj
 0002:00000368       ??_C@_13MKMNOPIJ@?$AAD@    1001f368     OposVariant.obj
 0002:0000036c       ??_C@_13OPKGLAFF@?$AAB@    1001f36c     OposVariant.obj
 0002:00000370       ??_C@_17LLMMEOJD@?$AAV?$AAa?$AAl@ 1001f370     OposVariant.obj
 0002:00000378       ??_C@_1BI@JFAIJMHL@?$AAF?$AAo?$AAr?$AAc?$AAe?$AAR?$AAe?$AAm?$AAo?$AAv?$AAe@ 1001f378     OposVariant.obj
 0002:00000390       ??_C@_1BC@GCKHIPE@?$AAN?$AAo?$AAR?$AAe?$AAm?$AAo?$AAv?$AAe@ 1001f390     OposVariant.obj
 0002:000003a4       ??_C@_1O@JDLOHAN@?$AAD?$AAe?$AAl?$AAe?$AAt?$AAe@ 1001f3a4     OposVariant.obj
 0002:000003b4       ??_C@_11LOCGONAA@@         1001f3b4     OposVariant.obj
 0002:000003b8       ??_7CComClassFactory@ATL@@6B@ 1001f3b8     CheckScanner.obj
 0002:000003d0       ?_entries@?1??_GetEntries@CComClassFactory@ATL@@SGPBU_ATL_INTMAP_ENTRY@3@XZ@4QBU43@B 1001f3d0     CheckScanner.obj
 0002:000003e8       __GUID_00000001_0000_0000_c000_000000000046 1001f3e8     CheckScanner.obj
 0002:000003f8       _IID_IOPOSCheckScanner_1_7 1001f3f8     CheckScanner.obj
 0002:00000408       _IID_IOPOSCheckScanner_1_8 1001f408     CheckScanner.obj
 0002:00000418       _IID_IOPOSCheckScanner_1_9 1001f418     CheckScanner.obj
 0002:00000428       _IID_IOPOSCheckScanner_1_10 1001f428     CheckScanner.obj
 0002:00000438       _IID_IOPOSCheckScanner     1001f438     CheckScanner.obj
 0002:00000448       _LIBID_OposCheckScanner_CCO 1001f448     CheckScanner.obj
 0002:00000458       _DIID__IOPOSCheckScannerEvents 1001f458     CheckScanner.obj
 0002:00000468       _CLSID_OPOSCheckScanner    1001f468     CheckScanner.obj
 0002:00000478       __GUID_00000114_0000_0000_c000_000000000046 1001f478     CheckScanner.obj
 0002:00000488       ??_C@_1BK@BIGILECK@?$AAA?$AAd?$AAv?$AAa?$AAp?$AAi?$AA3?$AA2?$AA?4?$AAd?$AAl?$AAl@ 1001f488     CheckScanner.obj
 0002:000004a4       ??_C@_0BI@MNCFCPFK@RegCreateKeyTransactedW@ 1001f4a4     CheckScanner.obj
 0002:000004bc       __GUID_b196b287_bab4_101a_b69c_00aa00341d07 1001f4bc     CheckScanner.obj
 0002:000004cc       __GUID_b196b285_bab4_101a_b69c_00aa00341d07 1001f4cc     CheckScanner.obj
 0002:000004dc       __GUID_a6bc3ac0_dbaa_11ce_9de3_00aa004bb851 1001f4dc     CheckScanner.obj
 0002:000004ec       __GUID_0000010c_0000_0000_c000_000000000046 1001f4ec     CheckScanner.obj
 0002:000004fc       __GUID_00000146_0000_0000_c000_000000000046 1001f4fc     CheckScanner.obj
 0002:00000510       ?_entries@?1??_GetEntries@COPOSCheckScanner@@SGPBU_ATL_INTMAP_ENTRY@ATL@@XZ@4QBU34@B 1001f510     CheckScanner.obj
 0002:00000654       __GUID_cf51ed10_62fe_11cf_bf86_00a0c9034836 1001f654     CheckScanner.obj
 0002:00000664       __GUID_0000010a_0000_0000_c000_000000000046 1001f664     CheckScanner.obj
 0002:00000674       __GUID_b196b283_bab4_101a_b69c_00aa00341d07 1001f674     CheckScanner.obj
 0002:00000684       __GUID_cb5bdc81_93c1_11cf_8f20_00805f2cd064 1001f684     CheckScanner.obj
 0002:00000694       ??_7CComModule@ATL@@6B@    1001f694     CheckScanner.obj
 0002:000006c0       ?pPropMap@?1??GetPropertyMap@COPOSCheckScanner@@SAPBUATL_PROPMAP_ENTRY@ATL@@XZ@4QBU34@B 1001f6c0     CheckScanner.obj
 0002:0000072c       ??_C@_17DGDADEHL@?$AA_?$AAc?$AAx@ 1001f72c     CheckScanner.obj
 0002:00000734       ??_C@_17IOIMFDBO@?$AA_?$AAc?$AAy@ 1001f734     CheckScanner.obj
 0002:0000073c       __GUID_922eada0_3424_11cf_b670_00aa004cd6d8 1001f73c     CheckScanner.obj
 0002:0000074c       __GUID_9c2cad80_3424_11cf_b670_00aa004cd6d8 1001f74c     CheckScanner.obj
 0002:0000075c       __GUID_00000119_0000_0000_c000_000000000046 1001f75c     CheckScanner.obj
 0002:0000076c       __GUID_b196b289_bab4_101a_b69c_00aa00341d07 1001f76c     CheckScanner.obj
 0002:0000077c       __GUID_00000000_0000_0000_c000_000000000046 1001f77c     CheckScanner.obj
 0002:0000078c       __GUID_00020400_0000_0000_c000_000000000046 1001f78c     CheckScanner.obj
 0002:0000079c       __GUID_00000117_0000_0000_c000_000000000046 1001f79c     CheckScanner.obj
 0002:000007ac       ??_7?$CComObjectCached@VCComClassFactory@ATL@@@ATL@@6B@ 1001f7ac     CheckScanner.obj
 0002:000007c4       ??_C@_1CE@PGFMOFKI@?$AAS?$AAt?$AAa?$AAt?$AAu?$AAs?$AAU?$AAp?$AAd?$AAa?$AAt?$AAe?$AAE?$AAv?$AAe@ 1001f7c4     CheckScanner.obj
 0002:000007e8       ??_C@_1BG@LODEBHDD@?$AAE?$AAr?$AAr?$AAo?$AAr?$AAE?$AAv?$AAe?$AAn?$AAt@ 1001f7e8     CheckScanner.obj
 0002:00000800       ??_C@_1BM@CBGEBBBJ@?$AAD?$AAi?$AAr?$AAe?$AAc?$AAt?$AAI?$AAO?$AAE?$AAv?$AAe?$AAn?$AAt@ 1001f800     CheckScanner.obj
 0002:0000081c       ??_C@_1BE@IEBMACEM@?$AAD?$AAa?$AAt?$AAa?$AAE?$AAv?$AAe?$AAn?$AAt@ 1001f81c     CheckScanner.obj
 0002:00000830       __GUID_b196b286_bab4_101a_b69c_00aa00341d07 1001f830     CheckScanner.obj
 0002:00000840       ??_C@_1BC@ENICKDH@?$AAC?$AAo?$AAn?$AAt?$AAe?$AAn?$AAt?$AAs@ 1001f840     CheckScanner.obj
 0002:00000854       ??_7?$CComObject@V?$CComEnum@UIEnumConnectionPoints@@$1?_GUID_b196b285_bab4_101a_b69c_00aa00341d07@@3U__s_GUID@@BPAUIConnectionPoint@@V?$_CopyInterface@UIConnectionPoint@@@ATL@@VCComSingleThreadModel@6@@ATL@@@ATL@@6B@ 1001f854     CheckScanner.obj
 0002:00000874       ??_C@_1M@KANJNLFF@?$AAC?$AAL?$AAS?$AAI?$AAD@ 1001f874     CheckScanner.obj
 0002:00000880       ??_C@_1M@EJNEECMJ@?$AAA?$AAp?$AAp?$AAI?$AAD@ 1001f880     CheckScanner.obj
 0002:0000088c       __GUID_0000010e_0000_0000_c000_000000000046 1001f88c     CheckScanner.obj
 0002:0000089c       __GUID_b196b288_bab4_101a_b69c_00aa00341d07 1001f89c     CheckScanner.obj
 0002:000008ac       ?rgszNeverDelete@CRegParser@ATL@@1QBQB_WB 1001f8ac     CheckScanner.obj
 0002:000008dc       ??_7CRegObject@ATL@@6B@    1001f8dc     CheckScanner.obj
 0002:000008f4       __GUID_00000113_0000_0000_c000_000000000046 1001f8f4     CheckScanner.obj
 0002:00000904       __GUID_1c2056cc_5ef4_101b_8bc8_00aa003e3b29 1001f904     CheckScanner.obj
 0002:00000914       ??_C@_1CK@OEKPKBNA@?$AAC?$AAo?$AAm?$AAp?$AAo?$AAn?$AAe?$AAn?$AAt?$AA?5?$AAC?$AAa?$AAt?$AAe?$AAg@ 1001f914     CheckScanner.obj
 0002:00000940       ??_C@_1BC@NKMMNMGL@?$AAF?$AAi?$AAl?$AAe?$AAT?$AAy?$AAp?$AAe@ 1001f940     CheckScanner.obj
 0002:00000954       ??_C@_1BE@EKPAFMCP@?$AAI?$AAn?$AAt?$AAe?$AAr?$AAf?$AAa?$AAc?$AAe@ 1001f954     CheckScanner.obj
 0002:00000968       ??_C@_1BC@MAICEHGI@?$AAH?$AAa?$AAr?$AAd?$AAw?$AAa?$AAr?$AAe@ 1001f968     CheckScanner.obj
 0002:0000097c       ??_C@_19HLLLM@?$AAM?$AAi?$AAm?$AAe@ 1001f97c     CheckScanner.obj
 0002:00000988       ??_C@_17OMAOINJK@?$AAS?$AAA?$AAM@ 1001f988     CheckScanner.obj
 0002:00000990       ??_C@_1BC@IBECJAAI@?$AAS?$AAE?$AAC?$AAU?$AAR?$AAI?$AAT?$AAY@ 1001f990     CheckScanner.obj
 0002:000009a4       ??_C@_1O@GBFINDKL@?$AAS?$AAY?$AAS?$AAT?$AAE?$AAM@ 1001f9a4     CheckScanner.obj
 0002:000009b4       ??_C@_1BC@EAHCMADO@?$AAS?$AAo?$AAf?$AAt?$AAw?$AAa?$AAr?$AAe@ 1001f9b4     CheckScanner.obj
 0002:000009c8       ??_C@_1BA@JIHHIEDE@?$AAT?$AAy?$AAp?$AAe?$AAL?$AAi?$AAb@ 1001f9c8     CheckScanner.obj
 0002:000009d8       ?map@?1??HKeyFromString@CRegParser@ATL@@KAPAUHKEY__@@PA_W@Z@4QBUkeymap@?1??123@KAPAU4@0@Z@B 1001f9d8     CheckScanner.obj
 0002:00000a48       ??_C@_19NCHLBIN@?$AAH?$AAK?$AAC?$AAR@ 1001fa48     CheckScanner.obj
 0002:00000a54       ??_C@_19JAPAIJDE@?$AAH?$AAK?$AAC?$AAU@ 1001fa54     CheckScanner.obj
 0002:00000a60       ??_C@_19PEALEEJB@?$AAH?$AAK?$AAL?$AAM@ 1001fa60     CheckScanner.obj
 0002:00000a6c       ??_C@_17PJOJPMPB@?$AAH?$AAK?$AAU@ 1001fa6c     CheckScanner.obj
 0002:00000a74       ??_C@_19PNBHMJPL@?$AAH?$AAK?$AAP?$AAD@ 1001fa74     CheckScanner.obj
 0002:00000a80       ??_C@_19GFFAIJHG@?$AAH?$AAK?$AAD?$AAD@ 1001fa80     CheckScanner.obj
 0002:00000a8c       ??_C@_19OFICIBHH@?$AAH?$AAK?$AAC?$AAC@ 1001fa8c     CheckScanner.obj
 0002:00000a98       ??_C@_1CE@PACHPJFI@?$AAH?$AAK?$AAE?$AAY?$AA_?$AAC?$AAL?$AAA?$AAS?$AAS?$AAE?$AAS?$AA_?$AAR?$AAO@ 1001fa98     CheckScanner.obj
 0002:00000abc       ??_C@_1CE@HLHNCBPM@?$AAH?$AAK?$AAE?$AAY?$AA_?$AAC?$AAU?$AAR?$AAR?$AAE?$AAN?$AAT?$AA_?$AAU?$AAS@ 1001fabc     CheckScanner.obj
 0002:00000ae0       ??_C@_1CG@GFBEANJL@?$AAH?$AAK?$AAE?$AAY?$AA_?$AAL?$AAO?$AAC?$AAA?$AAL?$AA_?$AAM?$AAA?$AAC?$AAH@ 1001fae0     CheckScanner.obj
 0002:00000b08       ??_C@_1BG@BGODANIO@?$AAH?$AAK?$AAE?$AAY?$AA_?$AAU?$AAS?$AAE?$AAR?$AAS@ 1001fb08     CheckScanner.obj
 0002:00000b20       ??_C@_1CM@KHNNAOIC@?$AAH?$AAK?$AAE?$AAY?$AA_?$AAP?$AAE?$AAR?$AAF?$AAO?$AAR?$AAM?$AAA?$AAN?$AAC@ 1001fb20     CheckScanner.obj
 0002:00000b4c       ??_C@_1BM@HAGMMHIA@?$AAH?$AAK?$AAE?$AAY?$AA_?$AAD?$AAY?$AAN?$AA_?$AAD?$AAA?$AAT?$AAA@ 1001fb4c     CheckScanner.obj
 0002:00000b68       ??_C@_1CI@BBJOACGG@?$AAH?$AAK?$AAE?$AAY?$AA_?$AAC?$AAU?$AAR?$AAR?$AAE?$AAN?$AAT?$AA_?$AAC?$AAO@ 1001fb68     CheckScanner.obj
 0002:00000b90       __GUID_00000112_0000_0000_c000_000000000046 1001fb90     CheckScanner.obj
 0002:00000ba0       __GUID_00000109_0000_0000_c000_000000000046 1001fba0     CheckScanner.obj
 0002:00000bb0       __GUID_7fd52380_4e07_101b_ae2d_08002b2ec713 1001fbb0     CheckScanner.obj
 0002:00000bc0       __GUID_3af24292_0c96_11ce_a0cf_00aa00600ab8 1001fbc0     CheckScanner.obj
 0002:00000bd0       __GUID_00000127_0000_0000_c000_000000000046 1001fbd0     CheckScanner.obj
 0002:00000be0       __GUID_0000010d_0000_0000_c000_000000000046 1001fbe0     CheckScanner.obj
 0002:00000bf0       ??_C@_1EA@NHKLICFA@?$AAH?$AAK?$AAC?$AAU?$AA?$AN?$AA?6?$AA?$HL?$AA?7?$AAS?$AAo?$AAf?$AAt?$AAw?$AAa?$AAr@ 1001fbf0     CheckScanner.obj
 0002:00000c30       ??_C@_1BE@LJOLIMEM@?$AA?$AN?$AA?6?$AA?7?$AA?$HN?$AA?$AN?$AA?6?$AA?$HN?$AA?$AN?$AA?6@ 1001fc30     CheckScanner.obj
 0002:00000c44       ??_C@_1M@PPPPCDEP@?$AAA?$AAP?$AAP?$AAI?$AAD@ 1001fc44     CheckScanner.obj
 0002:00000c50       ??_C@_1O@MNLDABAF@?$AAM?$AAo?$AAd?$AAu?$AAl?$AAe@ 1001fc50     CheckScanner.obj
 0002:00000c60       ??_C@_1BG@JBACFMF@?$AAM?$AAo?$AAd?$AAu?$AAl?$AAe?$AA_?$AAR?$AAa?$AAw@ 1001fc60     CheckScanner.obj
 0002:00000c78       ??_C@_1BC@KAILKFFG@?$AAR?$AAE?$AAG?$AAI?$AAS?$AAT?$AAR?$AAY@ 1001fc78     CheckScanner.obj
 0002:00000c8c       ??_7?$CComContainedObject@VCOPOSCheckScanner@@@ATL@@6B?$IDispatchImpl@UIOPOSCheckScanner@@$1?IID_IOPOSCheckScanner@@3U_GUID@@B$1?LIBID_OposCheckScanner_CCO@@3U3@B$00$0A@VCComTypeInfoHolder@ATL@@@1@@ 1001fc8c     CheckScanner.obj
 0002:00000e38       ??_7?$CComContainedObject@VCOPOSCheckScanner@@@ATL@@6BCComControlBase@1@@ 1001fe38     CheckScanner.obj
 0002:00000e4c       ??_7?$CComContainedObject@VCOPOSCheckScanner@@@ATL@@6B?$CWindowImpl@VCOPOSCheckScanner@@VCWindow@ATL@@V?$CWinTraits@$0FGAAAAAA@$0A@@3@@1@@ 1001fe4c     CheckScanner.obj
 0002:00000e5c       ??_7?$CComContainedObject@VCOPOSCheckScanner@@@ATL@@6B?$IPersistStreamInitImpl@VCOPOSCheckScanner@@@1@@ 1001fe5c     CheckScanner.obj
 0002:00000e80       ??_7?$CComContainedObject@VCOPOSCheckScanner@@@ATL@@6B?$IOleControlImpl@VCOPOSCheckScanner@@@1@@ 1001fe80     CheckScanner.obj
 0002:00000e9c       ??_7?$CComContainedObject@VCOPOSCheckScanner@@@ATL@@6B?$IOleObjectImpl@VCOPOSCheckScanner@@@1@@ 1001fe9c     CheckScanner.obj
 0002:00000efc       ??_7?$CComContainedObject@VCOPOSCheckScanner@@@ATL@@6B?$IOleInPlaceActiveObjectImpl@VCOPOSCheckScanner@@@1@@ 1001fefc     CheckScanner.obj
 0002:00000f24       ??_7?$CComContainedObject@VCOPOSCheckScanner@@@ATL@@6B?$IViewObjectExImpl@VCOPOSCheckScanner@@@1@@ 1001ff24     CheckScanner.obj
 0002:00000f60       ??_7?$CComContainedObject@VCOPOSCheckScanner@@@ATL@@6B?$IOleInPlaceObjectWindowlessImpl@VCOPOSCheckScanner@@@1@@ 1001ff60     CheckScanner.obj
 0002:00000f8c       ??_7?$CComContainedObject@VCOPOSCheckScanner@@@ATL@@6B?$IConnectionPointContainerImpl@VCOPOSCheckScanner@@@1@@ 1001ff8c     CheckScanner.obj
 0002:00000fa0       ??_7?$CComContainedObject@VCOPOSCheckScanner@@@ATL@@6B?$IPersistStorageImpl@VCOPOSCheckScanner@@@1@@ 1001ffa0     CheckScanner.obj
 0002:00000fc8       ??_7?$CComContainedObject@VCOPOSCheckScanner@@@ATL@@6B?$ISpecifyPropertyPagesImpl@VCOPOSCheckScanner@@@1@@ 1001ffc8     CheckScanner.obj
 0002:00000fd8       ??_7?$CComContainedObject@VCOPOSCheckScanner@@@ATL@@6B?$IQuickActivateImpl@VCOPOSCheckScanner@@@1@@ 1001ffd8     CheckScanner.obj
 0002:00000ff0       ??_7?$CComContainedObject@VCOPOSCheckScanner@@@ATL@@6B?$IDataObjectImpl@VCOPOSCheckScanner@@@1@@ 1001fff0     CheckScanner.obj
 0002:00001020       ??_7?$CComContainedObject@VCOPOSCheckScanner@@@ATL@@6B?$IProvideClassInfo2Impl@$1?CLSID_OPOSCheckScanner@@3U_GUID@@B$1?DIID__IOPOSCheckScannerEvents@@3U2@B$1?LIBID_OposCheckScanner_CCO@@3U2@B$00$0A@VCComTypeInfoHolder@ATL@@@1@@ 10020020     CheckScanner.obj
 0002:00001034       ??_7?$CComContainedObject@VCOPOSCheckScanner@@@ATL@@6B?$IObjectSafetyImpl@VCOPOSCheckScanner@@$02@1@@ 10020034     CheckScanner.obj
 0002:0000104c       ??_7?$CComContainedObject@VCOPOSCheckScanner@@@ATL@@6B?$IPropertyNotifySinkCP@VCOPOSCheckScanner@@VCComDynamicUnkArray@ATL@@@1@@ 1002004c     CheckScanner.obj
 0002:0000106c       ??_7?$CComContainedObject@VCOPOSCheckScanner@@@ATL@@6B?$CProxy_IOPOSEvents@VCOPOSCheckScanner@@@@@ 1002006c     CheckScanner.obj
 0002:0000108c       ??_7?$CComAggObject@VCOPOSCheckScanner@@@ATL@@6B@ 1002008c     CheckScanner.obj
 0002:0000109c       ??_7?$CComObject@VCOPOSCheckScanner@@@ATL@@6B?$IDispatchImpl@UIOPOSCheckScanner@@$1?IID_IOPOSCheckScanner@@3U_GUID@@B$1?LIBID_OposCheckScanner_CCO@@3U3@B$00$0A@VCComTypeInfoHolder@ATL@@@1@@ 1002009c     CheckScanner.obj
 0002:00001248       ??_7?$CComObject@VCOPOSCheckScanner@@@ATL@@6BCComControlBase@1@@ 10020248     CheckScanner.obj
 0002:0000125c       ??_7?$CComObject@VCOPOSCheckScanner@@@ATL@@6B?$CWindowImpl@VCOPOSCheckScanner@@VCWindow@ATL@@V?$CWinTraits@$0FGAAAAAA@$0A@@3@@1@@ 1002025c     CheckScanner.obj
 0002:0000126c       ??_7?$CComObject@VCOPOSCheckScanner@@@ATL@@6B?$IPersistStreamInitImpl@VCOPOSCheckScanner@@@1@@ 1002026c     CheckScanner.obj
 0002:00001290       ??_7?$CComObject@VCOPOSCheckScanner@@@ATL@@6B?$IOleControlImpl@VCOPOSCheckScanner@@@1@@ 10020290     CheckScanner.obj
 0002:000012ac       ??_7?$CComObject@VCOPOSCheckScanner@@@ATL@@6B?$IOleObjectImpl@VCOPOSCheckScanner@@@1@@ 100202ac     CheckScanner.obj
 0002:0000130c       ??_7?$CComObject@VCOPOSCheckScanner@@@ATL@@6B?$IOleInPlaceActiveObjectImpl@VCOPOSCheckScanner@@@1@@ 1002030c     CheckScanner.obj
 0002:00001334       ??_7?$CComObject@VCOPOSCheckScanner@@@ATL@@6B?$IViewObjectExImpl@VCOPOSCheckScanner@@@1@@ 10020334     CheckScanner.obj
 0002:00001370       ??_7?$CComObject@VCOPOSCheckScanner@@@ATL@@6B?$IOleInPlaceObjectWindowlessImpl@VCOPOSCheckScanner@@@1@@ 10020370     CheckScanner.obj
 0002:0000139c       ??_7?$CComObject@VCOPOSCheckScanner@@@ATL@@6B?$IConnectionPointContainerImpl@VCOPOSCheckScanner@@@1@@ 1002039c     CheckScanner.obj
 0002:000013b0       ??_7?$CComObject@VCOPOSCheckScanner@@@ATL@@6B?$IPersistStorageImpl@VCOPOSCheckScanner@@@1@@ 100203b0     CheckScanner.obj
 0002:000013d8       ??_7?$CComObject@VCOPOSCheckScanner@@@ATL@@6B?$ISpecifyPropertyPagesImpl@VCOPOSCheckScanner@@@1@@ 100203d8     CheckScanner.obj
 0002:000013e8       ??_7?$CComObject@VCOPOSCheckScanner@@@ATL@@6B?$IQuickActivateImpl@VCOPOSCheckScanner@@@1@@ 100203e8     CheckScanner.obj
 0002:00001400       ??_7?$CComObject@VCOPOSCheckScanner@@@ATL@@6B?$IDataObjectImpl@VCOPOSCheckScanner@@@1@@ 10020400     CheckScanner.obj
 0002:00001430       ??_7?$CComObject@VCOPOSCheckScanner@@@ATL@@6B?$IProvideClassInfo2Impl@$1?CLSID_OPOSCheckScanner@@3U_GUID@@B$1?DIID__IOPOSCheckScannerEvents@@3U2@B$1?LIBID_OposCheckScanner_CCO@@3U2@B$00$0A@VCComTypeInfoHolder@ATL@@@1@@ 10020430     CheckScanner.obj
 0002:00001444       ??_7?$CComObject@VCOPOSCheckScanner@@@ATL@@6B?$IObjectSafetyImpl@VCOPOSCheckScanner@@$02@1@@ 10020444     CheckScanner.obj
 0002:0000145c       ??_7?$CComObject@VCOPOSCheckScanner@@@ATL@@6B?$IPropertyNotifySinkCP@VCOPOSCheckScanner@@VCComDynamicUnkArray@ATL@@@1@@ 1002045c     CheckScanner.obj
 0002:0000147c       ??_7?$CComObject@VCOPOSCheckScanner@@@ATL@@6B?$CProxy_IOPOSEvents@VCOPOSCheckScanner@@@@@ 1002047c     CheckScanner.obj
 0002:0000149c       ??_C@_1O@GBFKGNEO@?$AAA?$AAT?$AAL?$AA?3?$AA?$CF?$AAp@ 1002049c     CheckScanner.obj
 0002:000014ac       ??_C@_1BA@PICGEGJB@?$AAD?$AAI?$AAS?$AAP?$AAL?$AAA?$AAY@ 100204ac     CheckScanner.obj
 0002:000014bc       __GUID_9bfbbc02_eff1_101a_84ed_00aa00341d07 100204bc     CheckScanner.obj
 0002:000014cc       __GUID_b196b284_bab4_101a_b69c_00aa00341d07 100204cc     CheckScanner.obj
 0002:000014dc       ?_entries@?1??_GetEntries@?$CComEnum@UIEnumConnectionPoints@@$1?_GUID_b196b285_bab4_101a_b69c_00aa00341d07@@3U__s_GUID@@BPAUIConnectionPoint@@V?$_CopyInterface@UIConnectionPoint@@@ATL@@VCComSingleThreadModel@6@@ATL@@SGPBU_ATL_INTMAP_ENTRY@3@XZ@4QBU43@B 100204dc     CheckScanner.obj
 0002:000014f4       __GUID_00020412_0000_0000_c000_000000000046 100204f4     CheckScanner.obj
 0002:00001504       __GUID_00020401_0000_0000_c000_000000000046 10020504     CheckScanner.obj
 0002:00001514       __GUID_55980ba0_35aa_11cf_b671_00aa004cd6d8 10020514     CheckScanner.obj
 0002:00001524       __GUID_b196b28b_bab4_101a_b69c_00aa00341d07 10020524     CheckScanner.obj
 0002:00001534       ??_7?$CComObject@V?$CComEnum@UIEnumConnections@@$1?_GUID_b196b287_bab4_101a_b69c_00aa00341d07@@3U__s_GUID@@BUtagCONNECTDATA@@V?$_Copy@UtagCONNECTDATA@@@ATL@@VCComSingleThreadModel@6@@ATL@@@ATL@@6B@ 10020534     CheckScanner.obj
 0002:00001554       ?_entries@?1??_GetEntries@?$CComEnum@UIEnumConnections@@$1?_GUID_b196b287_bab4_101a_b69c_00aa00341d07@@3U__s_GUID@@BUtagCONNECTDATA@@V?$_Copy@UtagCONNECTDATA@@@ATL@@VCComSingleThreadModel@6@@ATL@@SGPBU_ATL_INTMAP_ENTRY@3@XZ@4QBU43@B 10020554     CheckScanner.obj
 0002:0000156c       ??_C@_0BG@EKFFMJIO@RegOpenKeyTransactedW@ 1002056c     CheckScanner.obj
 0002:00001584       ??_C@_0BI@HAKLOOGP@RegDeleteKeyTransactedW@ 10020584     CheckScanner.obj
 0002:0000159c       ??_C@_0BA@LILAPHGE@RegDeleteKeyExW@ 1002059c     CheckScanner.obj
 0002:000015ac       ??_C@_19ILOCMLCJ@?$AA?4?$AAt?$AAl?$AAb@ 100205ac     CheckScanner.obj
 0002:000015b8       __GUID_0002e012_0000_0000_c000_000000000046 100205b8     CheckScanner.obj
 0002:000015c8       ??_C@_1O@FHBGLCIO@?$AAC?$AAL?$AAS?$AAI?$AAD?$AA?2@ 100205c8     CheckScanner.obj
 0002:000015d8       ??_C@_1CK@IFBKBFAA@?$AA?2?$AAR?$AAe?$AAq?$AAu?$AAi?$AAr?$AAe?$AAd?$AA?5?$AAC?$AAa?$AAt?$AAe?$AAg@ 100205d8     CheckScanner.obj
 0002:00001604       ??_C@_1DA@BIHALFED@?$AA?2?$AAI?$AAm?$AAp?$AAl?$AAe?$AAm?$AAe?$AAn?$AAt?$AAe?$AAd?$AA?5?$AAC?$AAa@ 10020604     CheckScanner.obj
 0002:00001634       ??_C@_1BK@EDKOLFBJ@?$AAO?$AAL?$AAE?$AAA?$AAU?$AAT?$AA3?$AA2?$AA?4?$AAD?$AAL?$AAL@ 10020634     CheckScanner.obj
 0002:00001650       ??_C@_0BJ@CNLFOMHB@UnRegisterTypeLibForUser@ 10020650     CheckScanner.obj
 0002:0000166c       ??_C@_0BH@LBOMMKPJ@RegisterTypeLibForUser@ 1002066c     CheckScanner.obj
 0002:00001684       ??_C@_0P@MMNMMLGK@COFreezeEvents@ 10020684     CheckScannerImpl.obj
 0002:00001694       ??_C@_0BC@OGCGGIMP@GetPropertyNumber@ 10020694     CheckScannerImpl.obj
 0002:000016a8       ??_C@_0BC@MDCNODNB@SetPropertyNumber@ 100206a8     CheckScannerImpl.obj
 0002:000016bc       ??_C@_0BC@CFCCMIMD@GetPropertyString@ 100206bc     CheckScannerImpl.obj
 0002:000016d0       ??_C@_0BC@CJEDNN@SetPropertyString@ 100206d0     CheckScannerImpl.obj
 0002:000016e4       ??_C@_0M@LNPKKKDA@OpenService@ 100206e4     CheckScannerImpl.obj
 0002:000016f0       ??_C@_0M@PCMCHHMH@CheckHealth@ 100206f0     CheckScannerImpl.obj
 0002:000016fc       ??_C@_0M@JGMIDNEK@ClaimDevice@ 100206fc     CheckScannerImpl.obj
 0002:00001708       ??_C@_0L@BNEIFEJC@ClearInput@ 10020708     CheckScannerImpl.obj
 0002:00001714       ??_C@_0N@DDFIIBMP@CloseService@ 10020714     CheckScannerImpl.obj
 0002:00001724       ??_C@_08EEIHICPC@DirectIO@ 10020724     CheckScannerImpl.obj
 0002:00001730       ??_C@_0O@BCPMENMJ@ReleaseDevice@ 10020730     CheckScannerImpl.obj
 0002:00001740       ??_C@_0P@DPMKPLAE@BeginInsertion@ 10020740     CheckScannerImpl.obj
 0002:00001750       ??_C@_0N@PCJLGBKP@BeginRemoval@ 10020750     CheckScannerImpl.obj
 0002:00001760       ??_C@_0L@PODGEKLG@ClearImage@ 10020760     CheckScannerImpl.obj
 0002:0000176c       ??_C@_0P@KHLNPAHD@DefineCropArea@ 1002076c     CheckScannerImpl.obj
 0002:0000177c       ??_C@_0N@MIHLNKHM@EndInsertion@ 1002077c     CheckScannerImpl.obj
 0002:0000178c       ??_C@_0L@FCEKAOMI@EndRemoval@ 1002078c     CheckScannerImpl.obj
 0002:00001798       ??_C@_0O@GNDFJLIB@RetrieveImage@ 10020798     CheckScannerImpl.obj
 0002:000017a8       ??_C@_0P@GFBOJCPH@RetrieveMemory@ 100207a8     CheckScannerImpl.obj
 0002:000017b8       ??_C@_0L@KBNKFBHH@StoreImage@ 100207b8     CheckScannerImpl.obj
 0002:000017c4       ??_C@_0BA@GFABKEEE@ResetStatistics@ 100207c4     CheckScannerImpl.obj
 0002:000017d4       ??_C@_0BD@DPALHJGC@RetrieveStatistics@ 100207d4     CheckScannerImpl.obj
 0002:000017e8       ??_C@_0BB@KOHIKNFC@UpdateStatistics@ 100207e8     CheckScannerImpl.obj
 0002:000017fc       ??_C@_0BH@PBKBNMGB@CompareFirmwareVersion@ 100207fc     CheckScannerImpl.obj
 0002:00001814       ??_C@_0P@FBPDPIPA@UpdateFirmware@ 10020814     CheckScannerImpl.obj
 0002:00001824       ??_C@_0BF@CMAPCJGM@ClearInputProperties@ 10020824     CheckScannerImpl.obj
 0002:0000183c       ??_7?$CProxy_IOPOSEvents@VCOPOSCheckScanner@@@@6B@ 1002083c     CheckScannerImpl.obj
 0002:0000185c       ??_C@_1BA@IFHENID@?$AA?$FL?$AAE?$AAr?$AAr?$AAo?$AAr?$AA?$FN@ 1002085c     CheckScannerImpl.obj
 0002:0000186c       ??_C@_0CP@KDCAACFE@SOFTWARE?2OLEforRetail?2ServiceOP@ 1002086c     CheckScannerImpl.obj
 0002:0000189c       ??_C@_1M@IAIJHCCH@?$AAC?$AAl?$AAo?$AAs?$AAe@ 1002089c     CheckScannerImpl.obj
 0002:000018a8       ??_C@_1M@PCPKGJAH@?$AAC?$AAl?$AAa?$AAi?$AAm@ 100208a8     CheckScannerImpl.obj
 0002:000018b4       ??_C@_1BA@NDFKIOCP@?$AAR?$AAe?$AAl?$AAe?$AAa?$AAs?$AAe@ 100208b4     CheckScannerImpl.obj
 0002:000018c4       ??_C@_0N@BHEGOBJP@CheckScanner@ 100208c4     CheckScannerImpl.obj
 0002:000018d4       ??_C@_1BM@IJMNMBPK@?$AAG?$AAe?$AAt?$AAO?$AAp?$AAe?$AAn?$AAR?$AAe?$AAs?$AAu?$AAl?$AAt@ 100208d4     CheckScannerImpl.obj
 0002:000018f0       _IID_IPropertyNotifySink   100208f0     uuid:ocidl_i.obj
 0002:00001900       _GUID_NULL                 10020900     uuid:cguid_i.obj
 0002:00001910       _CLSID_StdGlobalInterfaceTable 10020910     uuid:cguid_i.obj
 0002:00001920       _IID_IDispatch             10020920     uuid:oaidl_i.obj
 0002:00001930       _CLSID_StdComponentCategoriesMgr 10020930     uuid:ieguids.obj
 0002:00001940       _IID_IUnknown              10020940     uuid:unknwn_i.obj
 0002:00001950       ??_C@_1EC@JIJBPKFM@?$AAa?$AAp?$AAi?$AA?9?$AAm?$AAs?$AA?9?$AAw?$AAi?$AAn?$AA?9?$AAc?$AAo?$AAr?$AAe@ 10020950     LIBCMT:thread_safe_statics.obj
 0002:00001994       ??_C@_1BK@MGMFAEKH@?$AAk?$AAe?$AAr?$AAn?$AAe?$AAl?$AA3?$AA2?$AA?4?$AAd?$AAl?$AAl@ 10020994     LIBCMT:thread_safe_statics.obj
 0002:000019b0       ??_C@_0BJ@JEBJOJFJ@SleepConditionVariableCS@ 100209b0     LIBCMT:thread_safe_statics.obj
 0002:000019cc       ??_C@_0BJ@PGPPEPCC@WakeAllConditionVariable@ 100209cc     LIBCMT:thread_safe_statics.obj
 0002:000019e5       ?nothrow@std@@3Unothrow_t@1@B 100209e5     LIBCMT:std_nothrow.obj
 0002:000019f0       __pRawDllMain              100209f0     LIBCMT:dll_dllmain.obj
 0002:000019f0       __pDefaultRawDllMain       100209f0     LIBCMT:dll_dllmain.obj
 0002:000019f8       ??_7exception@std@@6B@     100209f8     LIBCMT:throw_bad_alloc.obj
 0002:00001a00       ??_C@_0BC@EOODALEL@Unknown?5exception@ 10020a00     LIBCMT:throw_bad_alloc.obj
 0002:00001a18       ??_7bad_alloc@std@@6B@     10020a18     LIBCMT:throw_bad_alloc.obj
 0002:00001a20       ??_C@_0P@GHFPNOJB@bad?5allocation@ 10020a20     LIBCMT:throw_bad_alloc.obj
 0002:00001a34       ??_7bad_array_new_length@std@@6B@ 10020a34     LIBCMT:throw_bad_alloc.obj
 0002:00001a3c       ??_C@_0BF@KINCDENJ@bad?5array?5new?5length@ 10020a3c     LIBCMT:throw_bad_alloc.obj
 0002:00001a58       ??_7type_info@@6B@         10020a58     LIBCMT:std_type_info_static.obj
 0002:00001a5c       _GUID_ATLVer110            10020a5c     atls:atlbase.obj
 0002:00001a70       ??_C@_1IC@ONKHOIDK@?$AAE?$AAR?$AAR?$AAO?$AAR?$AA?5?$AA?3?$AA?5?$AAU?$AAn?$AAa?$AAb?$AAl?$AAe?$AA?5@ 10020a70     atls:atlbase.obj
 0002:00001af4       ??_C@_0N@FJEPLCIH@atlthunk?4dll@ 10020af4     atls:atlthunk.obj
 0002:00001b04       ??_C@_0BG@GAKFHCBM@AtlThunk_AllocateData@ 10020b04     atls:atlthunk.obj
 0002:00001b1c       ??_C@_0BC@JKONFIAH@AtlThunk_InitData@ 10020b1c     atls:atlthunk.obj
 0002:00001b30       ??_C@_0BE@IAOEELAK@AtlThunk_DataToCode@ 10020b30     atls:atlthunk.obj
 0002:00001b44       ??_C@_0BC@GBGKAIPI@AtlThunk_FreeData@ 10020b44     atls:atlthunk.obj
 0002:00001b58       __pDestructExceptionObject 10020b58     libvcruntime:ehhelpers.obj
 0002:00001b60       ??_7bad_exception@std@@6B@ 10020b60     libvcruntime:frame.obj
 0002:00001b68       ??_C@_0O@DPKOEFFH@bad?5exception@ 10020b68     libvcruntime:frame.obj
 0002:00001ef8       ??_C@_08EHJDFFNH@__based?$CI@ 10020ef8     libvcruntime:undname.obj
 0002:00001f04       ??_C@_07KOLFKCDI@__cdecl@  10020f04     libvcruntime:undname.obj
 0002:00001f0c       ??_C@_08GHMPAG@__pascal@   10020f0c     libvcruntime:undname.obj
 0002:00001f18       ??_C@_09IFJBGAPI@__stdcall@ 10020f18     libvcruntime:undname.obj
 0002:00001f24       ??_C@_0L@NPHFGOKO@__thiscall@ 10020f24     libvcruntime:undname.obj
 0002:00001f30       ??_C@_0L@JMKHOMEK@__fastcall@ 10020f30     libvcruntime:undname.obj
 0002:00001f3c       ??_C@_0N@BCKKPABJ@__vectorcall@ 10020f3c     libvcruntime:undname.obj
 0002:00001f4c       ??_C@_09HIJEGCPM@__clrcall@ 10020f4c     libvcruntime:undname.obj
 0002:00001f58       ??_C@_06GHPCKEAG@__eabi@   10020f58     libvcruntime:undname.obj
 0002:00001f60       ??_C@_09IOPIDJLG@__swift_1@ 10020f60     libvcruntime:undname.obj
 0002:00001f6c       ??_C@_09KFNFGKHF@__swift_2@ 10020f6c     libvcruntime:undname.obj
 0002:00001f78       ??_C@_07JOMMBBKO@__ptr64@  10020f78     libvcruntime:undname.obj
 0002:00001f80       ??_C@_0L@PILCLIHE@__restrict@ 10020f80     libvcruntime:undname.obj
 0002:00001f8c       ??_C@_0M@GFIIJFMG@__unaligned@ 10020f8c     libvcruntime:undname.obj
 0002:00001f98       ??_C@_09DHDLOLLB@restrict?$CI@ 10020f98     libvcruntime:undname.obj
 0002:00001fa2       ??_C@_00CNPNBAHC@@         10020fa2     libvcruntime:undname.obj
 0002:00001fa4       ??_C@_04NIHEBCM@?5new@     10020fa4     libvcruntime:undname.obj
 0002:00001fac       ??_C@_07FPCDHGMM@?5delete@ 10020fac     libvcruntime:undname.obj
 0002:00001fb4       ??_C@_01NEMOKFLO@?$DN@     10020fb4     libvcruntime:undname.obj
 0002:00001fb8       ??_C@_02GPIOPFAK@?$DO?$DO@ 10020fb8     libvcruntime:undname.obj
 0002:00001fbc       ??_C@_02FODMEDOG@?$DM?$DM@ 10020fbc     libvcruntime:undname.obj
 0002:00001fc0       ??_C@_01DCLJPIOD@?$CB@     10020fc0     libvcruntime:undname.obj
 0002:00001fc4       ??_C@_02EGOFBIJA@?$DN?$DN@ 10020fc4     libvcruntime:undname.obj
 0002:00001fc8       ??_C@_02FDNJECIE@?$CB?$DN@ 10020fc8     libvcruntime:undname.obj
 0002:00001fcc       ??_C@_02GPECMEKF@?$FL?$FN@ 10020fcc     libvcruntime:undname.obj
 0002:00001fd0       ??_C@_08LHJFAFGD@operator@ 10020fd0     libvcruntime:undname.obj
 0002:00001fdc       ??_C@_02HBOOOICD@?9?$DO@   10020fdc     libvcruntime:undname.obj
 0002:00001fe0       ??_C@_01NBENCBCI@?$CK@     10020fe0     libvcruntime:undname.obj
 0002:00001fe4       ??_C@_02ECNGHCIF@?$CL?$CL@ 10020fe4     libvcruntime:undname.obj
 0002:00001fe8       ??_C@_02BAABKJLB@?9?9@     10020fe8     libvcruntime:undname.obj
 0002:00001fec       ??_C@_01JOAMLHOP@?9@       10020fec     libvcruntime:undname.obj
 0002:00001ff0       ??_C@_01MIFGBAGJ@?$CL@     10020ff0     libvcruntime:undname.obj
 0002:00001ff4       ??_C@_01HNPIGOCE@?$CG@     10020ff4     libvcruntime:undname.obj
 0002:00001ff8       ??_C@_03MNHNFDLC@?9?$DO?$CK@ 10020ff8     libvcruntime:undname.obj
 0002:00001ffc       ??_C@_01KMDKNFGN@?1@       10020ffc     libvcruntime:undname.obj
 0002:00002000       ??_C@_01FGNFDNOH@?$CF@     10021000     libvcruntime:undname.obj
 0002:00002004       ??_C@_01MNNFJEPP@?$DM@     10021004     libvcruntime:undname.obj
 0002:00002008       ??_C@_02EHCHHCKH@?$DM?$DN@ 10021008     libvcruntime:undname.obj
 0002:0000200c       ??_C@_01PPODPGHN@?$DO@     1002100c     libvcruntime:undname.obj
 0002:00002010       ??_C@_02EEKDKGMJ@?$DO?$DN@ 10021010     libvcruntime:undname.obj
 0002:00002014       ??_C@_01IHBHIGKO@?0@       10021014     libvcruntime:undname.obj
 0002:00002018       ??_C@_02HCKGKOFO@?$CI?$CJ@ 10021018     libvcruntime:undname.obj
 0002:0000201c       ??_C@_01PJKLJHI@?$HO@      1002101c     libvcruntime:undname.obj
 0002:00002020       ??_C@_01JKBOJNNK@?$FO@     10021020     libvcruntime:undname.obj
 0002:00002024       ??_C@_01DNKMNLPK@?$HM@     10021024     libvcruntime:undname.obj
 0002:00002028       ??_C@_02PPKAJPJL@?$CG?$CG@ 10021028     libvcruntime:undname.obj
 0002:0000202c       ??_C@_02NONPIBCD@?$HM?$HM@ 1002102c     libvcruntime:undname.obj
 0002:00002030       ??_C@_02FPIMKNGF@?$CK?$DN@ 10021030     libvcruntime:undname.obj
 0002:00002034       ??_C@_02FOEOMHFC@?$CL?$DN@ 10021034     libvcruntime:undname.obj
 0002:00002038       ??_C@_02FKMDLLOA@?9?$DN@   10021038     libvcruntime:undname.obj
 0002:0000203c       ??_C@_02FJEHGPIO@?1?$DN@   1002103c     libvcruntime:undname.obj
 0002:00002040       ??_C@_02FENAOKFI@?$CF?$DN@ 10021040     libvcruntime:undname.obj
 0002:00002044       ??_C@_03IKFCCPFF@?$DO?$DO?$DN@ 10021044     libvcruntime:undname.obj
 0002:00002048       ??_C@_03CDNPDDLA@?$DM?$DM?$DN@ 10021048     libvcruntime:undname.obj
 0002:0000204c       ??_C@_02FGJGFEAB@?$CG?$DN@ 1002104c     libvcruntime:undname.obj
 0002:00002050       ??_C@_02DHLNPPGH@?$HM?$DN@ 10021050     libvcruntime:undname.obj
 0002:00002054       ??_C@_02MHEGNOJ@?$FO?$DN@  10021054     libvcruntime:undname.obj
 0002:00002058       ??_C@_09IFPLHPGF@?$GAvftable?8@ 10021058     libvcruntime:undname.obj
 0002:00002064       ??_C@_09BLBHBJP@?$GAvbtable?8@ 10021064     libvcruntime:undname.obj
 0002:00002070       ??_C@_07FEEIOKP@?$GAvcall?8@ 10021070     libvcruntime:undname.obj
 0002:00002078       ??_C@_08LLFFHHDJ@?$GAtypeof?8@ 10021078     libvcruntime:undname.obj
 0002:00002084       ??_C@_0BF@KDPPACIK@?$GAlocal?5static?5guard?8@ 10021084     libvcruntime:undname.obj
 0002:0000209c       ??_C@_08OBABFOLI@?$GAstring?8@ 1002109c     libvcruntime:undname.obj
 0002:000020a8       ??_C@_0BD@JDLKDPAB@?$GAvbase?5destructor?8@ 100210a8     libvcruntime:undname.obj
 0002:000020bc       ??_C@_0BN@DEGPLNFK@?$GAvector?5deleting?5destructor?8@ 100210bc     libvcruntime:undname.obj
 0002:000020dc       ??_C@_0BO@OBMKPJIG@?$GAdefault?5constructor?5closure?8@ 100210dc     libvcruntime:undname.obj
 0002:000020fc       ??_C@_0BN@IMDCHIKM@?$GAscalar?5deleting?5destructor?8@ 100210fc     libvcruntime:undname.obj
 0002:0000211c       ??_C@_0BO@PFGOCPJJ@?$GAvector?5constructor?5iterator?8@ 1002111c     libvcruntime:undname.obj
 0002:0000213c       ??_C@_0BN@LFPFMEDL@?$GAvector?5destructor?5iterator?8@ 1002113c     libvcruntime:undname.obj
 0002:0000215c       ??_C@_0CE@IKBNEHA@?$GAvector?5vbase?5constructor?5itera@ 1002115c     libvcruntime:undname.obj
 0002:00002180       ??_C@_0BL@NILFHHPC@?$GAvirtual?5displacement?5map?8@ 10021180     libvcruntime:undname.obj
 0002:0000219c       ??_C@_0CB@JONCMFFK@?$GAeh?5vector?5constructor?5iterator@ 1002119c     libvcruntime:undname.obj
 0002:000021c0       ??_C@_0CA@GCEOPDGL@?$GAeh?5vector?5destructor?5iterator?8@ 100211c0     libvcruntime:undname.obj
 0002:000021e0       ??_C@_0CH@OOJPLCPH@?$GAeh?5vector?5vbase?5constructor?5it@ 100211e0     libvcruntime:undname.obj
 0002:00002208       ??_C@_0BL@LLKPOHJI@?$GAcopy?5constructor?5closure?8@ 10021208     libvcruntime:undname.obj
 0002:00002224       ??_C@_0BA@KBCDOMBN@?$GAudt?5returning?8@ 10021224     libvcruntime:undname.obj
 0002:00002234       ??_C@_03KLGMFNMG@?$GAEH@   10021234     libvcruntime:undname.obj
 0002:00002238       ??_C@_05KHLCHHI@?$GARTTI@  10021238     libvcruntime:undname.obj
 0002:00002240       ??_C@_0BA@KKLDJDLB@?$GAlocal?5vftable?8@ 10021240     libvcruntime:undname.obj
 0002:00002250       ??_C@_0CE@IIHCMGGL@?$GAlocal?5vftable?5constructor?5clos@ 10021250     libvcruntime:undname.obj
 0002:00002274       ??_C@_06FHBGPFGH@?5new?$FL?$FN@ 10021274     libvcruntime:undname.obj
 0002:0000227c       ??_C@_09LBNFPBCA@?5delete?$FL?$FN@ 1002127c     libvcruntime:undname.obj
 0002:00002288       ??_C@_0P@HJKNJFNN@?$GAomni?5callsig?8@ 10021288     libvcruntime:undname.obj
 0002:00002298       ??_C@_0BL@CNOONJFP@?$GAplacement?5delete?5closure?8@ 10021298     libvcruntime:undname.obj
 0002:000022b4       ??_C@_0BN@CKNJLHMB@?$GAplacement?5delete?$FL?$FN?5closure?8@ 100212b4     libvcruntime:undname.obj
 0002:000022d4       ??_C@_0CG@CFDHKGGD@?$GAmanaged?5vector?5constructor?5ite@ 100212d4     libvcruntime:undname.obj
 0002:000022fc       ??_C@_0CF@IMGKMJNO@?$GAmanaged?5vector?5destructor?5iter@ 100212fc     libvcruntime:undname.obj
 0002:00002324       ??_C@_0CG@HLDDJMAG@?$GAeh?5vector?5copy?5constructor?5ite@ 10021324     libvcruntime:undname.obj
 0002:0000234c       ??_C@_0CM@FCBBDIGB@?$GAeh?5vector?5vbase?5copy?5construct@ 1002134c     libvcruntime:undname.obj
 0002:00002378       ??_C@_0BL@CLIPGLGB@?$GAdynamic?5initializer?5for?5?8@ 10021378     libvcruntime:undname.obj
 0002:00002394       ??_C@_0CB@PDBIFEP@?$GAdynamic?5atexit?5destructor?5for?5@ 10021394     libvcruntime:undname.obj
 0002:000023b8       ??_C@_0CD@CGAJBKEJ@?$GAvector?5copy?5constructor?5iterat@ 100213b8     libvcruntime:undname.obj
 0002:000023dc       ??_C@_0CJ@GJELGAMM@?$GAvector?5vbase?5copy?5constructor?5@ 100213dc     libvcruntime:undname.obj
 0002:00002408       ??_C@_0CL@FGIJHLCE@?$GAmanaged?5vector?5copy?5constructo@ 10021408     libvcruntime:undname.obj
 0002:00002434       ??_C@_0BM@PMGGMLDN@?$GAlocal?5static?5thread?5guard?8@ 10021434     libvcruntime:undname.obj
 0002:00002450       ??_C@_0N@BDNMDMOL@operator?5?$CC?$CC?5@ 10021450     libvcruntime:undname.obj
 0002:00002460       ??_C@_0BC@GGEBGALA@operator?5co_await@ 10021460     libvcruntime:undname.obj
 0002:00002474       ??_C@_0M@GAAIMMOH@operator?$DM?$DN?$DO@ 10021474     libvcruntime:undname.obj
 0002:00002480       ??_C@_0BC@DAFEJGAK@?5Type?5Descriptor?8@ 10021480     libvcruntime:undname.obj
 0002:00002494       ??_C@_0BM@LDKODKLH@?5Base?5Class?5Descriptor?5at?5?$CI@ 10021494     libvcruntime:undname.obj
 0002:000024b0       ??_C@_0BD@LGICGFMM@?5Base?5Class?5Array?8@ 100214b0     libvcruntime:undname.obj
 0002:000024c4       ??_C@_0BN@MECKDCOJ@?5Class?5Hierarchy?5Descriptor?8@ 100214c4     libvcruntime:undname.obj
 0002:000024e4       ??_C@_0BK@CFCOFLF@?5Complete?5Object?5Locator?8@ 100214e4     libvcruntime:undname.obj
 0002:00002500       ??_C@_0BG@JNJLAMPM@?$GAanonymous?5namespace?8@ 10021500     libvcruntime:undname.obj
 0002:00002524       ??_C@_1DM@KHCHBNEB@?$AAa?$AAp?$AAi?$AA?9?$AAm?$AAs?$AA?9?$AAw?$AAi?$AAn?$AA?9?$AAc?$AAo?$AAr?$AAe@ 10021524     libvcruntime:winapi_downlevel.obj
 0002:00002560       ??_C@_1DK@LPPGFMPP@?$AAa?$AAp?$AAi?$AA?9?$AAm?$AAs?$AA?9?$AAw?$AAi?$AAn?$AA?9?$AAc?$AAo?$AAr?$AAe@ 10021560     libvcruntime:winapi_downlevel.obj
 0002:0000259c       ??_C@_1BC@GDMECMAK@?$AAk?$AAe?$AAr?$AAn?$AAe?$AAl?$AA3?$AA2@ 1002159c     libvcruntime:winapi_downlevel.obj
 0002:000025b0       ??_C@_1BA@PFFKHIOG@?$AAa?$AAp?$AAi?$AA?9?$AAm?$AAs?$AA?9@ 100215b0     libvcruntime:winapi_downlevel.obj
 0002:000025c8       ??_C@_08KNHFBNJ@FlsAlloc@  100215c8     libvcruntime:winapi_downlevel.obj
 0002:000025dc       ??_C@_07PEJMOBNF@FlsFree@  100215dc     libvcruntime:winapi_downlevel.obj
 0002:000025ec       ??_C@_0M@GDNOONDI@FlsGetValue@ 100215ec     libvcruntime:winapi_downlevel.obj
 0002:00002600       ??_C@_0M@JCPCPOEF@FlsSetValue@ 10021600     libvcruntime:winapi_downlevel.obj
 0002:00002614       ??_C@_0BM@HCFOFFN@InitializeCriticalSectionEx@ 10021614     libvcruntime:winapi_downlevel.obj
 0002:00002798       _format_validation_lookup_table 10021798     libucrt:output.obj
 0002:000027f4       ??_C@_1O@CEDCILHN@?$AA?$CI?$AAn?$AAu?$AAl?$AAl?$AA?$CJ@ 100217f4     libucrt:output.obj
 0002:00002804       ??_C@_06OJHGLDPL@?$CInull?$CJ@ 10021804     libucrt:output.obj
 0002:00002810       ___acrt_exception_action_table 10021810     libucrt:exception_filter.obj
 0002:000028a0       ___acrt_signal_action_table_count 100218a0     libucrt:exception_filter.obj
 0002:000028a4       ___acrt_signal_action_first_fpe_index 100218a4     libucrt:exception_filter.obj
 0002:000028a8       ___acrt_signal_action_fpe_count 100218a8     libucrt:exception_filter.obj
 0002:000028ac       ??_C@_1BI@BGOHAHKC@?$AAm?$AAs?$AAc?$AAo?$AAr?$AAe?$AAe?$AA?4?$AAd?$AAl?$AAl@ 100218ac     libucrt:exit.obj
 0002:000028c4       ??_C@_0P@MIGLKIOC@CorExitProcess@ 100218c4     libucrt:exit.obj
 0002:000029a8       ??_C@_1EA@JGEFHKEI@?$AAa?$AAp?$AAi?$AA?9?$AAm?$AAs?$AA?9?$AAw?$AAi?$AAn?$AA?9?$AAc?$AAo?$AAr?$AAe@ 100219a8     libucrt:winapi_thunks.obj
 0002:000029e8       ??_C@_1DI@IJCEHOCB@?$AAa?$AAp?$AAi?$AA?9?$AAm?$AAs?$AA?9?$AAw?$AAi?$AAn?$AA?9?$AAc?$AAo?$AAr?$AAe@ 100219e8     libucrt:winapi_thunks.obj
 0002:00002a20       ??_C@_1EI@MPIAOHOC@?$AAa?$AAp?$AAi?$AA?9?$AAm?$AAs?$AA?9?$AAw?$AAi?$AAn?$AA?9?$AAc?$AAo?$AAr?$AAe@ 10021a20     libucrt:winapi_thunks.obj
 0002:00002a68       ??_C@_1FK@FPHCKFIE@?$AAa?$AAp?$AAi?$AA?9?$AAm?$AAs?$AA?9?$AAw?$AAi?$AAn?$AA?9?$AAc?$AAo?$AAr?$AAe@ 10021a68     libucrt:winapi_thunks.obj
 0002:00002ac8       ??_C@_1EM@DILCGIIO@?$AAa?$AAp?$AAi?$AA?9?$AAm?$AAs?$AA?9?$AAw?$AAi?$AAn?$AA?9?$AAc?$AAo?$AAr?$AAe@ 10021ac8     libucrt:winapi_thunks.obj
 0002:00002b14       ??_C@_1DM@LNCGDDPN@?$AAa?$AAp?$AAi?$AA?9?$AAm?$AAs?$AA?9?$AAw?$AAi?$AAn?$AA?9?$AAc?$AAo?$AAr?$AAe@ 10021b14     libucrt:winapi_thunks.obj
 0002:00002b50       ??_C@_1DO@FPAPJEMD@?$AAa?$AAp?$AAi?$AA?9?$AAm?$AAs?$AA?9?$AAw?$AAi?$AAn?$AA?9?$AAc?$AAo?$AAr?$AAe@ 10021b50     libucrt:winapi_thunks.obj
 0002:00002b90       ??_C@_1DK@NDHNAHIO@?$AAa?$AAp?$AAi?$AA?9?$AAm?$AAs?$AA?9?$AAw?$AAi?$AAn?$AA?9?$AAc?$AAo?$AAr?$AAe@ 10021b90     libucrt:winapi_thunks.obj
 0002:00002bcc       ??_C@_1DM@KGHDGBCM@?$AAa?$AAp?$AAi?$AA?9?$AAm?$AAs?$AA?9?$AAw?$AAi?$AAn?$AA?9?$AAc?$AAo?$AAr?$AAe@ 10021bcc     libucrt:winapi_thunks.obj
 0002:00002c08       ??_C@_1EO@IJIOEFOH@?$AAa?$AAp?$AAi?$AA?9?$AAm?$AAs?$AA?9?$AAw?$AAi?$AAn?$AA?9?$AAr?$AAt?$AAc?$AAo@ 10021c08     libucrt:winapi_thunks.obj
 0002:00002c58       ??_C@_1FG@HHGEKANL@?$AAa?$AAp?$AAi?$AA?9?$AAm?$AAs?$AA?9?$AAw?$AAi?$AAn?$AA?9?$AAs?$AAe?$AAc?$AAu@ 10021c58     libucrt:winapi_thunks.obj
 0002:00002cb0       ??_C@_1EG@DBIOJECG@?$AAe?$AAx?$AAt?$AA?9?$AAm?$AAs?$AA?9?$AAw?$AAi?$AAn?$AA?9?$AAn?$AAt?$AAu?$AAs@ 10021cb0     libucrt:winapi_thunks.obj
 0002:00002cf8       ??_C@_1EO@FIHMJCLF@?$AAe?$AAx?$AAt?$AA?9?$AAm?$AAs?$AA?9?$AAw?$AAi?$AAn?$AA?9?$AAn?$AAt?$AAu?$AAs@ 10021cf8     libucrt:winapi_thunks.obj
 0002:00002d48       ??_C@_1BC@DNHGCMLG@?$AAa?$AAd?$AAv?$AAa?$AAp?$AAi?$AA3?$AA2@ 10021d48     libucrt:winapi_thunks.obj
 0002:00002d5c       ??_C@_1M@OAIMIKLP@?$AAn?$AAt?$AAd?$AAl?$AAl@ 10021d5c     libucrt:winapi_thunks.obj
 0002:00002d68       ??_C@_1EG@DPGNFKGC@?$AAa?$AAp?$AAi?$AA?9?$AAm?$AAs?$AA?9?$AAw?$AAi?$AAn?$AA?9?$AAa?$AAp?$AAp?$AAm@ 10021d68     libucrt:winapi_thunks.obj
 0002:00002db0       ??_C@_1O@BCCLBEOE@?$AAu?$AAs?$AAe?$AAr?$AA3?$AA2@ 10021db0     libucrt:winapi_thunks.obj
 0002:00002dc0       ??_C@_1BA@IAIFMGEF@?$AAe?$AAx?$AAt?$AA?9?$AAm?$AAs?$AA?9@ 10021dc0     libucrt:winapi_thunks.obj
 0002:00002dd4       ??_C@_0BA@FHFNEAED@AreFileApisANSI@ 10021dd4     libucrt:winapi_thunks.obj
 0002:00002e14       ??_C@_0O@KKBNKAPF@LCMapStringEx@ 10021e14     libucrt:winapi_thunks.obj
 0002:00002e2c       ??_C@_0BB@HBDEELFH@LocaleNameToLCID@ 10021e2c     libucrt:winapi_thunks.obj
 0002:00002e44       ??_C@_0CF@OJOFEIGO@AppPolicyGetProcessTerminationM@ 10021e44     libucrt:winapi_thunks.obj
 0002:00002e74       ??_C@_0BI@BKLFFAPO@SetThreadStackGuarantee@ 10021e74     libucrt:winapi_thunks.obj
 0002:00002ed0       ??_C@_03OEIAHPBN@INF@      10021ed0     libucrt:cvt.obj
 0002:00002ed4       ??_C@_03OJHLLCGB@inf@      10021ed4     libucrt:cvt.obj
 0002:00002ed8       ??_C@_03LKNCIKJB@NAN@      10021ed8     libucrt:cvt.obj
 0002:00002edc       ??_C@_03LHCJEHON@nan@      10021edc     libucrt:cvt.obj
 0002:00002ee0       ??_C@_09OFJJIMPC@NAN?$CISNAN?$CJ@ 10021ee0     libucrt:cvt.obj
 0002:00002eec       ??_C@_09IPFBKMDL@nan?$CIsnan?$CJ@ 10021eec     libucrt:cvt.obj
 0002:00002ef8       ??_C@_08IKHNHAJ@NAN?$CIIND?$CJ@ 10021ef8     libucrt:cvt.obj
 0002:00002f04       ??_C@_08OFCDMILK@nan?$CIind?$CJ@ 10021f04     libucrt:cvt.obj
 0002:00002f10       ??_C@_05KLBDPFGC@e?$CL000@ 10021f10     libucrt:cvt.obj
 0002:00002f18       ___lc_time_c               10021f18     libucrt:nlsdata.obj
 0002:0000307c       ??_C@_03KOEHGMDN@Sun@      1002207c     libucrt:nlsdata.obj
 0002:00003080       ??_C@_03PDAGKDH@Mon@       10022080     libucrt:nlsdata.obj
 0002:00003084       ??_C@_03NAGEINEP@Tue@      10022084     libucrt:nlsdata.obj
 0002:00003088       ??_C@_03MHOMLAJA@Wed@      10022088     libucrt:nlsdata.obj
 0002:0000308c       ??_C@_03IOFIKPDN@Thu@      1002208c     libucrt:nlsdata.obj
 0002:00003090       ??_C@_03IDIOELNC@Fri@      10022090     libucrt:nlsdata.obj
 0002:00003094       ??_C@_03FEFJNEK@Sat@       10022094     libucrt:nlsdata.obj
 0002:00003098       ??_C@_06OOPIFAJ@Sunday@    10022098     libucrt:nlsdata.obj
 0002:000030a0       ??_C@_06JLEDEDGH@Monday@   100220a0     libucrt:nlsdata.obj
 0002:000030a8       ??_C@_07BAAGCFCM@Tuesday@  100220a8     libucrt:nlsdata.obj
 0002:000030b0       ??_C@_09DLIGFAKA@Wednesday@ 100220b0     libucrt:nlsdata.obj
 0002:000030bc       ??_C@_08HACCIKIA@Thursday@ 100220bc     libucrt:nlsdata.obj
 0002:000030c8       ??_C@_06JECMNKMI@Friday@   100220c8     libucrt:nlsdata.obj
 0002:000030d0       ??_C@_08INBOOONO@Saturday@ 100220d0     libucrt:nlsdata.obj
 0002:000030dc       ??_C@_03JIHJHPIE@Jan@      100220dc     libucrt:nlsdata.obj
 0002:000030e0       ??_C@_03HJBDCHOM@Feb@      100220e0     libucrt:nlsdata.obj
 0002:000030e4       ??_C@_03ODNJBKGA@Mar@      100220e4     libucrt:nlsdata.obj
 0002:000030e8       ??_C@_03LEOLGMJP@Apr@      100220e8     libucrt:nlsdata.obj
 0002:000030ec       ??_C@_03CNMDKL@May@        100220ec     libucrt:nlsdata.obj
 0002:000030f0       ??_C@_03IDFGHECI@Jun@      100220f0     libucrt:nlsdata.obj
 0002:000030f4       ??_C@_03LBGABGKK@Jul@      100220f4     libucrt:nlsdata.obj
 0002:000030f8       ??_C@_03IFJFEIGA@Aug@      100220f8     libucrt:nlsdata.obj
 0002:000030fc       ??_C@_03GGCAPAJC@Sep@      100220fc     libucrt:nlsdata.obj
 0002:00003100       ??_C@_03BMAOKBAD@Oct@      10022100     libucrt:nlsdata.obj
 0002:00003104       ??_C@_03JPJOFNIA@Nov@      10022104     libucrt:nlsdata.obj
 0002:00003108       ??_C@_03MKABNOCG@Dec@      10022108     libucrt:nlsdata.obj
 0002:0000310c       ??_C@_07CGJPFGJA@January@  1002210c     libucrt:nlsdata.obj
 0002:00003114       ??_C@_08GNJGEPFN@February@ 10022114     libucrt:nlsdata.obj
 0002:00003120       ??_C@_05HPCKOFNC@March@    10022120     libucrt:nlsdata.obj
 0002:00003128       ??_C@_05DMJDNLEJ@April@    10022128     libucrt:nlsdata.obj
 0002:00003130       ??_C@_04CNLMGBGM@June@     10022130     libucrt:nlsdata.obj
 0002:00003138       ??_C@_04MIEPOIFP@July@     10022138     libucrt:nlsdata.obj
 0002:00003140       ??_C@_06LBBHFDDG@August@   10022140     libucrt:nlsdata.obj
 0002:00003148       ??_C@_09BHHEALKD@September@ 10022148     libucrt:nlsdata.obj
 0002:00003154       ??_C@_07JJNFCEND@October@  10022154     libucrt:nlsdata.obj
 0002:0000315c       ??_C@_08HCHEGEOA@November@ 1002215c     libucrt:nlsdata.obj
 0002:00003168       ??_C@_08EDHMEBNP@December@ 10022168     libucrt:nlsdata.obj
 0002:00003174       ??_C@_02DEDBPAFC@AM@       10022174     libucrt:nlsdata.obj
 0002:00003178       ??_C@_02CJNFDJBF@PM@       10022178     libucrt:nlsdata.obj
 0002:0000317c       ??_C@_08BPBNCDIB@MM?1dd?1yy@ 1002217c     libucrt:nlsdata.obj
 0002:00003188       ??_C@_0BE@CKGJFCPC@dddd?0?5MMMM?5dd?0?5yyyy@ 10022188     libucrt:nlsdata.obj
 0002:0000319c       ??_C@_08JCCMCCIL@HH?3mm?3ss@ 1002219c     libucrt:nlsdata.obj
 0002:000031a8       ??_C@_17MBGCMIPB@?$AAS?$AAu?$AAn@ 100221a8     libucrt:nlsdata.obj
 0002:000031b0       ??_C@_17KBOMKBF@?$AAM?$AAo?$AAn@ 100221b0     libucrt:nlsdata.obj
 0002:000031b8       ??_C@_17BMKGEGOJ@?$AAT?$AAu?$AAe@ 100221b8     libucrt:nlsdata.obj
 0002:000031c0       ??_C@_17CJEDCEPE@?$AAW?$AAe?$AAd@ 100221c0     libucrt:nlsdata.obj
 0002:000031c8       ??_C@_17PDPHAADD@?$AAT?$AAh?$AAu@ 100221c8     libucrt:nlsdata.obj
 0002:000031d0       ??_C@_17HFOLPPLP@?$AAF?$AAr?$AAi@ 100221d0     libucrt:nlsdata.obj
 0002:000031d8       ??_C@_17GGIBDPIH@?$AAS?$AAa?$AAt@ 100221d8     libucrt:nlsdata.obj
 0002:000031e0       ??_C@_1O@IHNHDHPB@?$AAS?$AAu?$AAn?$AAd?$AAa?$AAy@ 100221e0     libucrt:nlsdata.obj
 0002:000031f0       ??_C@_1O@MMNBFLIA@?$AAM?$AAo?$AAn?$AAd?$AAa?$AAy@ 100221f0     libucrt:nlsdata.obj
 0002:00003200       ??_C@_1BA@ENFBFFEK@?$AAT?$AAu?$AAe?$AAs?$AAd?$AAa?$AAy@ 10022200     libucrt:nlsdata.obj
 0002:00003210       ??_C@_1BE@EBOGMDOH@?$AAW?$AAe?$AAd?$AAn?$AAe?$AAs?$AAd?$AAa?$AAy@ 10022210     libucrt:nlsdata.obj
 0002:00003224       ??_C@_1BC@HHMNLIHE@?$AAT?$AAh?$AAu?$AAr?$AAs?$AAd?$AAa?$AAy@ 10022224     libucrt:nlsdata.obj
 0002:00003238       ??_C@_1O@PDICJHAG@?$AAF?$AAr?$AAi?$AAd?$AAa?$AAy@ 10022238     libucrt:nlsdata.obj
 0002:00003248       ??_C@_1BC@ENMNNPAJ@?$AAS?$AAa?$AAt?$AAu?$AAr?$AAd?$AAa?$AAy@ 10022248     libucrt:nlsdata.obj
 0002:0000325c       ??_C@_17DKNBKCHM@?$AAJ?$AAa?$AAn@ 1002225c     libucrt:nlsdata.obj
 0002:00003264       ??_C@_17LMDJEKJN@?$AAF?$AAe?$AAb@ 10022264     libucrt:nlsdata.obj
 0002:0000326c       ??_C@_17CKNLEDEC@?$AAM?$AAa?$AAr@ 1002226c     libucrt:nlsdata.obj
 0002:00003274       ??_C@_17LFPOIHDD@?$AAA?$AAp?$AAr@ 10022274     libucrt:nlsdata.obj
 0002:0000327c       ??_C@_17PNNKMEED@?$AAM?$AAa?$AAy@ 1002227c     libucrt:nlsdata.obj
 0002:00003284       ??_C@_17KCJGOCPB@?$AAJ?$AAu?$AAn@ 10022284     libucrt:nlsdata.obj
 0002:0000328c       ??_C@_17IJPCKHK@?$AAJ?$AAu?$AAl@ 1002228c     libucrt:nlsdata.obj
 0002:00003294       ??_C@_17ICPELBCN@?$AAA?$AAu?$AAg@ 10022294     libucrt:nlsdata.obj
 0002:0000329c       ??_C@_17HCHCOKMG@?$AAS?$AAe?$AAp@ 1002229c     libucrt:nlsdata.obj
 0002:000032a4       ??_C@_17FNLKOI@?$AAO?$AAc?$AAt@ 100222a4     libucrt:nlsdata.obj
 0002:000032ac       ??_C@_17BBDMLCIG@?$AAN?$AAo?$AAv@ 100222ac     libucrt:nlsdata.obj
 0002:000032b4       ??_C@_17EGKACKIF@?$AAD?$AAe?$AAc@ 100222b4     libucrt:nlsdata.obj
 0002:000032bc       ??_C@_1BA@EFMEIEBA@?$AAJ?$AAa?$AAn?$AAu?$AAa?$AAr?$AAy@ 100222bc     libucrt:nlsdata.obj
 0002:000032cc       ??_C@_1BC@JGDDFFAM@?$AAF?$AAe?$AAb?$AAr?$AAu?$AAa?$AAr?$AAy@ 100222cc     libucrt:nlsdata.obj
 0002:000032e0       ??_C@_1M@IKEENEDF@?$AAM?$AAa?$AAr?$AAc?$AAh@ 100222e0     libucrt:nlsdata.obj
 0002:000032ec       ??_C@_1M@GJNLMHFD@?$AAA?$AAp?$AAr?$AAi?$AAl@ 100222ec     libucrt:nlsdata.obj
 0002:000032f8       ??_C@_19EPFLPGAP@?$AAJ?$AAu?$AAn?$AAe@ 100222f8     libucrt:nlsdata.obj
 0002:00003304       ??_C@_19BIFMLPCD@?$AAJ?$AAu?$AAl?$AAy@ 10022304     libucrt:nlsdata.obj
 0002:00003310       ??_C@_1O@PAHLKOAC@?$AAA?$AAu?$AAg?$AAu?$AAs?$AAt@ 10022310     libucrt:nlsdata.obj
 0002:00003320       ??_C@_1BE@DKAAMBJL@?$AAS?$AAe?$AAp?$AAt?$AAe?$AAm?$AAb?$AAe?$AAr@ 10022320     libucrt:nlsdata.obj
 0002:00003334       ??_C@_1BA@EPANDLNG@?$AAO?$AAc?$AAt?$AAo?$AAb?$AAe?$AAr@ 10022334     libucrt:nlsdata.obj
 0002:00003344       ??_C@_1BC@BGLIFPF@?$AAN?$AAo?$AAv?$AAe?$AAm?$AAb?$AAe?$AAr@ 10022344     libucrt:nlsdata.obj
 0002:00003358       ??_C@_1BC@FEMKIFH@?$AAD?$AAe?$AAc?$AAe?$AAm?$AAb?$AAe?$AAr@ 10022358     libucrt:nlsdata.obj
 0002:0000336c       ??_C@_15ODEHAHHF@?$AAA?$AAM@ 1002236c     libucrt:nlsdata.obj
 0002:00003374       ??_C@_15CLMNNGEL@?$AAP?$AAM@ 10022374     libucrt:nlsdata.obj
 0002:0000337c       ??_C@_1BC@IEBCMHCM@?$AAM?$AAM?$AA?1?$AAd?$AAd?$AA?1?$AAy?$AAy@ 1002237c     libucrt:nlsdata.obj
 0002:00003390       ??_C@_1CI@KNAKOEBC@?$AAd?$AAd?$AAd?$AAd?$AA?0?$AA?5?$AAM?$AAM?$AAM?$AAM?$AA?5?$AAd?$AAd?$AA?0?$AA?5@ 10022390     libucrt:nlsdata.obj
 0002:000033b8       ??_C@_1BC@GDGBMEMK@?$AAH?$AAH?$AA?3?$AAm?$AAm?$AA?3?$AAs?$AAs@ 100223b8     libucrt:nlsdata.obj
 0002:000033cc       ??_C@_1M@BMHNFIME@?$AAe?$AAn?$AA?9?$AAU?$AAS@ 100223cc     libucrt:nlsdata.obj
 0002:000033e8       ??_C@_1M@HPNHIDJI@?$AAj?$AAa?$AA?9?$AAJ?$AAP@ 100223e8     libucrt:mbctype.obj
 0002:000033f4       ??_C@_1M@BIBDDEMK@?$AAz?$AAh?$AA?9?$AAC?$AAN@ 100223f4     libucrt:mbctype.obj
 0002:00003400       ??_C@_1M@JLOOOEGK@?$AAk?$AAo?$AA?9?$AAK?$AAR@ 10022400     libucrt:mbctype.obj
 0002:0000340c       ??_C@_1M@CLNBBOPM@?$AAz?$AAh?$AA?9?$AAT?$AAW@ 1002240c     libucrt:mbctype.obj
 0002:00003418       ___newctype                10022418     libucrt:ctype.obj
 0002:00003718       ___newclmap                10022718     libucrt:ctype.obj
 0002:00003898       ___newcumap                10022898     libucrt:ctype.obj
 0002:00003a18       __wctype                   10022a18     libucrt:ctype.obj
 0002:00004340       ??_C@_15EMKDOKLE@?$AAa?$AAr@ 10023340     libucrt:lcidtoname_downlevel.obj
 0002:00004348       ??_C@_15KNPADPLH@?$AAb?$AAg@ 10023348     libucrt:lcidtoname_downlevel.obj
 0002:00004350       ??_C@_15EDMHLDMO@?$AAc?$AAa@ 10023350     libucrt:lcidtoname_downlevel.obj
 0002:00004358       ??_C@_1O@BPEAJADD@?$AAz?$AAh?$AA?9?$AAC?$AAH?$AAS@ 10023358     libucrt:lcidtoname_downlevel.obj
 0002:00004368       ??_C@_15LJNHCMNK@?$AAc?$AAs@ 10023368     libucrt:lcidtoname_downlevel.obj
 0002:00004370       ??_C@_15FOMCIDHG@?$AAd?$AAa@ 10023370     libucrt:lcidtoname_downlevel.obj
 0002:00004378       ??_C@_15NBKABECB@?$AAd?$AAe@ 10023378     libucrt:lcidtoname_downlevel.obj
 0002:00004380       ??_C@_15GHPEIIAO@?$AAe?$AAl@ 10023380     libucrt:lcidtoname_downlevel.obj
 0002:00004388       ??_C@_15MNPNEAIF@?$AAe?$AAn@ 10023388     libucrt:lcidtoname_downlevel.obj
 0002:00004390       ??_C@_15GPIOMPMH@?$AAe?$AAs@ 10023390     libucrt:lcidtoname_downlevel.obj
 0002:00004398       ??_C@_15NGLOAKJC@?$AAf?$AAi@ 10023398     libucrt:lcidtoname_downlevel.obj
 0002:000043a0       ??_C@_15FBKGNKAM@?$AAf?$AAr@ 100233a0     libucrt:lcidtoname_downlevel.obj
 0002:000043a8       ??_C@_15KGGCNEFK@?$AAh?$AAe@ 100233a8     libucrt:lcidtoname_downlevel.obj
 0002:000043b0       ??_C@_15PGHLIDMF@?$AAh?$AAu@ 100233b0     libucrt:lcidtoname_downlevel.obj
 0002:000043b8       ??_C@_15BIEMAPLM@?$AAi?$AAs@ 100233b8     libucrt:lcidtoname_downlevel.obj
 0002:000043c0       ??_C@_15IFJLDHAF@?$AAi?$AAt@ 100233c0     libucrt:lcidtoname_downlevel.obj
 0002:000043c8       ??_C@_15GEMIOCAG@?$AAj?$AAa@ 100233c8     libucrt:lcidtoname_downlevel.obj
 0002:000043d0       ??_C@_15EPELEGJA@?$AAk?$AAo@ 100233d0     libucrt:lcidtoname_downlevel.obj
 0002:000043d8       ??_C@_15NDDHIMN@?$AAn?$AAl@ 100233d8     libucrt:lcidtoname_downlevel.obj
 0002:000043e0       ??_C@_15BPIGNHCD@?$AAn?$AAo@ 100233e0     libucrt:lcidtoname_downlevel.obj
 0002:000043e8       ??_C@_15DEOPBLCG@?$AAp?$AAl@ 100233e8     libucrt:lcidtoname_downlevel.obj
 0002:000043f0       ??_C@_15KBECGEFG@?$AAp?$AAt@ 100233f0     libucrt:lcidtoname_downlevel.obj
 0002:000043f8       ??_C@_15GLJCBFMD@?$AAr?$AAo@ 100233f8     libucrt:lcidtoname_downlevel.obj
 0002:00004400       ??_C@_15FEDGKCDI@?$AAr?$AAu@ 10023400     libucrt:lcidtoname_downlevel.obj
 0002:00004408       ??_C@_15GLKMLLHM@?$AAh?$AAr@ 10023408     libucrt:lcidtoname_downlevel.obj
 0002:00004410       ??_C@_15CPKMFBDB@?$AAs?$AAk@ 10023410     libucrt:lcidtoname_downlevel.obj
 0002:00004418       ??_C@_15BAAIOGMK@?$AAs?$AAq@ 10023418     libucrt:lcidtoname_downlevel.obj
 0002:00004420       ??_C@_15INNPNOHD@?$AAs?$AAv@ 10023420     libucrt:lcidtoname_downlevel.obj
 0002:00004428       ??_C@_15CABMMOGH@?$AAt?$AAh@ 10023428     libucrt:lcidtoname_downlevel.obj
 0002:00004430       ??_C@_15BPLIHJJM@?$AAt?$AAr@ 10023430     libucrt:lcidtoname_downlevel.obj
 0002:00004438       ??_C@_15NEOEKKDJ@?$AAu?$AAr@ 10023438     libucrt:lcidtoname_downlevel.obj
 0002:00004440       ??_C@_15NFICGAJK@?$AAi?$AAd@ 10023440     libucrt:lcidtoname_downlevel.obj
 0002:00004448       ??_C@_15PJPFLCCM@?$AAu?$AAk@ 10023448     libucrt:lcidtoname_downlevel.obj
 0002:00004450       ??_C@_15HPJPHDM@?$AAb?$AAe@ 10023450     libucrt:lcidtoname_downlevel.obj
 0002:00004458       ??_C@_15LCHLGJII@?$AAs?$AAl@ 10023458     libucrt:lcidtoname_downlevel.obj
 0002:00004460       ??_C@_15PCFJPHHO@?$AAe?$AAt@ 10023460     libucrt:lcidtoname_downlevel.obj
 0002:00004468       ??_C@_15HPFPGODN@?$AAl?$AAv@ 10023468     libucrt:lcidtoname_downlevel.obj
 0002:00004470       ??_C@_15NFFGKGLG@?$AAl?$AAt@ 10023470     libucrt:lcidtoname_downlevel.obj
 0002:00004478       ??_C@_15BDAKCCHN@?$AAf?$AAa@ 10023478     libucrt:lcidtoname_downlevel.obj
 0002:00004480       ??_C@_15NFGIAIAJ@?$AAv?$AAi@ 10023480     libucrt:lcidtoname_downlevel.obj
 0002:00004488       ??_C@_15LMKNDMHN@?$AAh?$AAy@ 10023488     libucrt:lcidtoname_downlevel.obj
 0002:00004490       ??_C@_15IJBHMCFL@?$AAa?$AAz@ 10023490     libucrt:lcidtoname_downlevel.obj
 0002:00004498       ??_C@_15EKOFJABL@?$AAe?$AAu@ 10023498     libucrt:lcidtoname_downlevel.obj
 0002:000044a0       ??_C@_15BGHADCNK@?$AAm?$AAk@ 100234a0     libucrt:lcidtoname_downlevel.obj
 0002:000044a8       ??_C@_15JDNICKHM@?$AAa?$AAf@ 100234a8     libucrt:lcidtoname_downlevel.obj
 0002:000044b0       ??_C@_15KPJEDBKD@?$AAk?$AAa@ 100234b0     libucrt:lcidtoname_downlevel.obj
 0002:000044b8       ??_C@_15PDNFFFEO@?$AAf?$AAo@ 100234b8     libucrt:lcidtoname_downlevel.obj
 0002:000044c0       ??_C@_15OMLEGLOC@?$AAh?$AAi@ 100234c0     libucrt:lcidtoname_downlevel.obj
 0002:000044c8       ??_C@_15IDNNENKK@?$AAm?$AAs@ 100234c8     libucrt:lcidtoname_downlevel.obj
 0002:000044d0       ??_C@_15MACJNBMH@?$AAk?$AAk@ 100234d0     libucrt:lcidtoname_downlevel.obj
 0002:000044d8       ??_C@_15DKDJEOND@?$AAk?$AAy@ 100234d8     libucrt:lcidtoname_downlevel.obj
 0002:000044e0       ??_C@_15DFGDLJBG@?$AAs?$AAw@ 100234e0     libucrt:lcidtoname_downlevel.obj
 0002:000044e8       ??_C@_15BBFAICNG@?$AAu?$AAz@ 100234e8     libucrt:lcidtoname_downlevel.obj
 0002:000044f0       ??_C@_15DKNDCGEA@?$AAt?$AAt@ 100234f0     libucrt:lcidtoname_downlevel.obj
 0002:000044f8       ??_C@_15MGIFMDPL@?$AAp?$AAa@ 100234f8     libucrt:lcidtoname_downlevel.obj
 0002:00004500       ??_C@_15HCNDBBA@?$AAg?$AAu@ 10023500     libucrt:lcidtoname_downlevel.obj
 0002:00004508       ??_C@_15FNBEIBON@?$AAt?$AAa@ 10023508     libucrt:lcidtoname_downlevel.obj
 0002:00004510       ??_C@_15NCHGBGLK@?$AAt?$AAe@ 10023510     libucrt:lcidtoname_downlevel.obj
 0002:00004518       ??_C@_15PHPHCBPF@?$AAk?$AAn@ 10023518     libucrt:lcidtoname_downlevel.obj
 0002:00004520       ??_C@_15DLGBCKMP@?$AAm?$AAr@ 10023520     libucrt:lcidtoname_downlevel.obj
 0002:00004528       ??_C@_15EABBLBFF@?$AAs?$AAa@ 10023528     libucrt:lcidtoname_downlevel.obj
 0002:00004530       ??_C@_15CBKOMCOI@?$AAm?$AAn@ 10023530     libucrt:lcidtoname_downlevel.obj
 0002:00004538       ??_C@_15CKDMCJAF@?$AAg?$AAl@ 10023538     libucrt:lcidtoname_downlevel.obj
 0002:00004540       ??_C@_17CNJFBPG@?$AAk?$AAo?$AAk@ 10023540     libucrt:lcidtoname_downlevel.obj
 0002:00004548       ??_C@_17FFBJICPL@?$AAs?$AAy?$AAr@ 10023548     libucrt:lcidtoname_downlevel.obj
 0002:00004550       ??_C@_17KPNDCPAF@?$AAd?$AAi?$AAv@ 10023550     libucrt:lcidtoname_downlevel.obj
 0002:00004558       ??_C@_1M@OKAHONE@?$AAa?$AAr?$AA?9?$AAS?$AAA@ 10023558     libucrt:lcidtoname_downlevel.obj
 0002:00004564       ??_C@_1M@FFFIGIGK@?$AAb?$AAg?$AA?9?$AAB?$AAG@ 10023564     libucrt:lcidtoname_downlevel.obj
 0002:00004570       ??_C@_1M@BJNKEDC@?$AAc?$AAa?$AA?9?$AAE?$AAS@ 10023570     libucrt:lcidtoname_downlevel.obj
 0002:0000457c       ??_C@_1M@IJJHFJHA@?$AAc?$AAs?$AA?9?$AAC?$AAZ@ 1002357c     libucrt:lcidtoname_downlevel.obj
 0002:00004588       ??_C@_1M@CLPEOBGI@?$AAd?$AAa?$AA?9?$AAD?$AAK@ 10023588     libucrt:lcidtoname_downlevel.obj
 0002:00004594       ??_C@_1M@MCMADGCB@?$AAd?$AAe?$AA?9?$AAD?$AAE@ 10023594     libucrt:lcidtoname_downlevel.obj
 0002:000045a0       ??_C@_1M@OOCKEMAM@?$AAe?$AAl?$AA?9?$AAG?$AAR@ 100235a0     libucrt:lcidtoname_downlevel.obj
 0002:000045ac       ??_C@_1M@DDNJFGID@?$AAf?$AAi?$AA?9?$AAF?$AAI@ 100235ac     libucrt:lcidtoname_downlevel.obj
 0002:000045b8       ??_C@_1M@GLIPPMAC@?$AAf?$AAr?$AA?9?$AAF?$AAR@ 100235b8     libucrt:lcidtoname_downlevel.obj
 0002:000045c4       ??_C@_1M@GFMCHPE@?$AAh?$AAe?$AA?9?$AAI?$AAL@ 100235c4     libucrt:lcidtoname_downlevel.obj
 0002:000045d0       ??_C@_1M@MHLPGNKM@?$AAh?$AAu?$AA?9?$AAH?$AAU@ 100235d0     libucrt:lcidtoname_downlevel.obj
 0002:000045dc       ??_C@_1M@LPDDNNPN@?$AAi?$AAs?$AA?9?$AAI?$AAS@ 100235dc     libucrt:lcidtoname_downlevel.obj
 0002:000045e8       ??_C@_1M@MADIPODN@?$AAi?$AAt?$AA?9?$AAI?$AAT@ 100235e8     libucrt:lcidtoname_downlevel.obj
 0002:000045f4       ??_C@_1M@IHBJJGG@?$AAn?$AAl?$AA?9?$AAN?$AAL@ 100235f4     libucrt:lcidtoname_downlevel.obj
 0002:00004600       ??_C@_1M@EANAGDL@?$AAn?$AAb?$AA?9?$AAN?$AAO@ 10023600     libucrt:lcidtoname_downlevel.obj
 0002:0000460c       ??_C@_1M@NEIEMEGP@?$AAp?$AAl?$AA?9?$AAP?$AAL@ 1002360c     libucrt:lcidtoname_downlevel.obj
 0002:00004618       ??_C@_1M@BOCFIGEP@?$AAp?$AAt?$AA?9?$AAB?$AAR@ 10023618     libucrt:lcidtoname_downlevel.obj
 0002:00004624       ??_C@_1M@IMPFOPBG@?$AAr?$AAo?$AA?9?$AAR?$AAO@ 10023624     libucrt:lcidtoname_downlevel.obj
 0002:00004630       ??_C@_1M@IDNNEJMM@?$AAr?$AAu?$AA?9?$AAR?$AAU@ 10023630     libucrt:lcidtoname_downlevel.obj
 0002:0000463c       ??_C@_1M@LILEEOGM@?$AAh?$AAr?$AA?9?$AAH?$AAR@ 1002363c     libucrt:lcidtoname_downlevel.obj
 0002:00004648       ??_C@_1M@FKIFEHPB@?$AAs?$AAk?$AA?9?$AAS?$AAK@ 10023648     libucrt:lcidtoname_downlevel.obj
 0002:00004654       ??_C@_1M@LJMAMNPJ@?$AAs?$AAq?$AA?9?$AAA?$AAL@ 10023654     libucrt:lcidtoname_downlevel.obj
 0002:00004660       ??_C@_1M@GIAKDKJK@?$AAs?$AAv?$AA?9?$AAS?$AAE@ 10023660     libucrt:lcidtoname_downlevel.obj
 0002:0000466c       ??_C@_1M@MKJKIKCL@?$AAt?$AAh?$AA?9?$AAT?$AAH@ 1002366c     libucrt:lcidtoname_downlevel.obj
 0002:00004678       ??_C@_1M@MFLCCMPB@?$AAt?$AAr?$AA?9?$AAT?$AAR@ 10023678     libucrt:lcidtoname_downlevel.obj
 0002:00004684       ??_C@_1M@OIJHDKJN@?$AAu?$AAr?$AA?9?$AAP?$AAK@ 10023684     libucrt:lcidtoname_downlevel.obj
 0002:00004690       ??_C@_1M@LHIPCIEK@?$AAi?$AAd?$AA?9?$AAI?$AAD@ 10023690     libucrt:lcidtoname_downlevel.obj
 0002:0000469c       ??_C@_1M@MFMOBGI@?$AAu?$AAk?$AA?9?$AAU?$AAA@ 1002369c     libucrt:lcidtoname_downlevel.obj
 0002:000046a8       ??_C@_1M@OBGLJIPL@?$AAb?$AAe?$AA?9?$AAB?$AAY@ 100236a8     libucrt:lcidtoname_downlevel.obj
 0002:000046b4       ??_C@_1M@BCFAJEAD@?$AAs?$AAl?$AA?9?$AAS?$AAI@ 100236b4     libucrt:lcidtoname_downlevel.obj
 0002:000046c0       ??_C@_1M@FKFFEDDN@?$AAe?$AAt?$AA?9?$AAE?$AAE@ 100236c0     libucrt:lcidtoname_downlevel.obj
 0002:000046cc       ??_C@_1M@KGKKAACI@?$AAl?$AAv?$AA?9?$AAL?$AAV@ 100236cc     libucrt:lcidtoname_downlevel.obj
 0002:000046d8       ??_C@_1M@IFGBIJO@?$AAl?$AAt?$AA?9?$AAL?$AAT@ 100236d8     libucrt:lcidtoname_downlevel.obj
 0002:000046e4       ??_C@_1M@FGEAHEDM@?$AAf?$AAa?$AA?9?$AAI?$AAR@ 100236e4     libucrt:lcidtoname_downlevel.obj
 0002:000046f0       ??_C@_1M@KBMAIBFN@?$AAv?$AAi?$AA?9?$AAV?$AAN@ 100236f0     libucrt:lcidtoname_downlevel.obj
 0002:000046fc       ??_C@_1M@GPCBKDJK@?$AAh?$AAy?$AA?9?$AAA?$AAM@ 100236fc     libucrt:lcidtoname_downlevel.obj
 0002:00004708       ??_C@_1BG@BECMDDJB@?$AAa?$AAz?$AA?9?$AAA?$AAZ?$AA?9?$AAL?$AAa?$AAt?$AAn@ 10023708     libucrt:lcidtoname_downlevel.obj
 0002:00004720       ??_C@_1M@MAOFCAEA@?$AAe?$AAu?$AA?9?$AAE?$AAS@ 10023720     libucrt:lcidtoname_downlevel.obj
 0002:0000472c       ??_C@_1M@IGHABKPI@?$AAm?$AAk?$AA?9?$AAM?$AAK@ 1002372c     libucrt:lcidtoname_downlevel.obj
 0002:00004738       ??_C@_1M@IAIGNEJG@?$AAt?$AAn?$AA?9?$AAZ?$AAA@ 10023738     libucrt:lcidtoname_downlevel.obj
 0002:00004744       ??_C@_1M@IIJCOJFA@?$AAx?$AAh?$AA?9?$AAZ?$AAA@ 10023744     libucrt:lcidtoname_downlevel.obj
 0002:00004750       ??_C@_1M@LGPJHNJH@?$AAz?$AAu?$AA?9?$AAZ?$AAA@ 10023750     libucrt:lcidtoname_downlevel.obj
 0002:0000475c       ??_C@_1M@HOKAOIO@?$AAa?$AAf?$AA?9?$AAZ?$AAA@ 1002375c     libucrt:lcidtoname_downlevel.obj
 0002:00004768       ??_C@_1M@DPCLHLIE@?$AAk?$AAa?$AA?9?$AAG?$AAE@ 10023768     libucrt:lcidtoname_downlevel.obj
 0002:00004774       ??_C@_1M@BLKMHJBI@?$AAf?$AAo?$AA?9?$AAF?$AAO@ 10023774     libucrt:lcidtoname_downlevel.obj
 0002:00004780       ??_C@_1M@LGGJAPPB@?$AAh?$AAi?$AA?9?$AAI?$AAN@ 10023780     libucrt:lcidtoname_downlevel.obj
 0002:0000478c       ??_C@_1M@FIKPIHFE@?$AAm?$AAt?$AA?9?$AAM?$AAT@ 1002378c     libucrt:lcidtoname_downlevel.obj
 0002:00004798       ??_C@_1M@HEGGPBFA@?$AAs?$AAe?$AA?9?$AAN?$AAO@ 10023798     libucrt:lcidtoname_downlevel.obj
 0002:000047a4       ??_C@_1M@EIBJEEPA@?$AAm?$AAs?$AA?9?$AAM?$AAY@ 100237a4     libucrt:lcidtoname_downlevel.obj
 0002:000047b0       ??_C@_1M@FHLBGMPP@?$AAk?$AAk?$AA?9?$AAK?$AAZ@ 100237b0     libucrt:lcidtoname_downlevel.obj
 0002:000047bc       ??_C@_1M@NGJJLCGI@?$AAk?$AAy?$AA?9?$AAK?$AAG@ 100237bc     libucrt:lcidtoname_downlevel.obj
 0002:000047c8       ??_C@_1M@GIENNBFC@?$AAs?$AAw?$AA?9?$AAK?$AAE@ 100237c8     libucrt:lcidtoname_downlevel.obj
 0002:000047d4       ??_C@_1BG@NDGMJIMJ@?$AAu?$AAz?$AA?9?$AAU?$AAZ?$AA?9?$AAL?$AAa?$AAt?$AAn@ 100237d4     libucrt:lcidtoname_downlevel.obj
 0002:000047ec       ??_C@_1M@IDCCIHBC@?$AAt?$AAt?$AA?9?$AAR?$AAU@ 100237ec     libucrt:lcidtoname_downlevel.obj
 0002:000047f8       ??_C@_1M@LOICPMOJ@?$AAb?$AAn?$AA?9?$AAI?$AAN@ 100237f8     libucrt:lcidtoname_downlevel.obj
 0002:00004804       ??_C@_1M@KPKKNEAH@?$AAp?$AAa?$AA?9?$AAI?$AAN@ 10023804     libucrt:lcidtoname_downlevel.obj
 0002:00004810       ??_C@_1M@PJGPPBOG@?$AAg?$AAu?$AA?9?$AAI?$AAN@ 10023810     libucrt:lcidtoname_downlevel.obj
 0002:0000481c       ??_C@_1M@KMKMOPHI@?$AAt?$AAa?$AA?9?$AAI?$AAN@ 1002381c     libucrt:lcidtoname_downlevel.obj
 0002:00004828       ??_C@_1M@KFEHEPAC@?$AAt?$AAe?$AA?9?$AAI?$AAN@ 10023828     libucrt:lcidtoname_downlevel.obj
 0002:00004834       ??_C@_1M@CDCLMGHI@?$AAk?$AAn?$AA?9?$AAI?$AAN@ 10023834     libucrt:lcidtoname_downlevel.obj
 0002:00004840       ??_C@_1M@MIODLDKF@?$AAm?$AAl?$AA?9?$AAI?$AAN@ 10023840     libucrt:lcidtoname_downlevel.obj
 0002:0000484c       ??_C@_1M@PBIEACPO@?$AAm?$AAr?$AA?9?$AAI?$AAN@ 1002384c     libucrt:lcidtoname_downlevel.obj
 0002:00004858       ??_C@_1M@NIDEAGPH@?$AAs?$AAa?$AA?9?$AAI?$AAN@ 10023858     libucrt:lcidtoname_downlevel.obj
 0002:00004864       ??_C@_1M@FHIHCBIO@?$AAm?$AAn?$AA?9?$AAM?$AAN@ 10023864     libucrt:lcidtoname_downlevel.obj
 0002:00004870       ??_C@_1M@JAIJPENP@?$AAc?$AAy?$AA?9?$AAG?$AAB@ 10023870     libucrt:lcidtoname_downlevel.obj
 0002:0000487c       ??_C@_1M@PHGFBEPN@?$AAg?$AAl?$AA?9?$AAE?$AAS@ 1002387c     libucrt:lcidtoname_downlevel.obj
 0002:00004888       ??_C@_1O@KPIPDNCP@?$AAk?$AAo?$AAk?$AA?9?$AAI?$AAN@ 10023888     libucrt:lcidtoname_downlevel.obj
 0002:00004898       ??_C@_1O@KNHJLDJA@?$AAs?$AAy?$AAr?$AA?9?$AAS?$AAY@ 10023898     libucrt:lcidtoname_downlevel.obj
 0002:000048a8       ??_C@_1O@MKEKBLAH@?$AAd?$AAi?$AAv?$AA?9?$AAM?$AAV@ 100238a8     libucrt:lcidtoname_downlevel.obj
 0002:000048b8       ??_C@_1O@OHDCKDDF@?$AAq?$AAu?$AAz?$AA?9?$AAB?$AAO@ 100238b8     libucrt:lcidtoname_downlevel.obj
 0002:000048c8       ??_C@_1M@LEPJNLFD@?$AAn?$AAs?$AA?9?$AAZ?$AAA@ 100238c8     libucrt:lcidtoname_downlevel.obj
 0002:000048d4       ??_C@_1M@OMLEIIJB@?$AAm?$AAi?$AA?9?$AAN?$AAZ@ 100238d4     libucrt:lcidtoname_downlevel.obj
 0002:000048e0       ??_C@_1M@PMPEAILG@?$AAa?$AAr?$AA?9?$AAI?$AAQ@ 100238e0     libucrt:lcidtoname_downlevel.obj
 0002:000048ec       ??_C@_1M@CNKPNOEE@?$AAd?$AAe?$AA?9?$AAC?$AAH@ 100238ec     libucrt:lcidtoname_downlevel.obj
 0002:000048f8       ??_C@_1M@LKMGMLKO@?$AAe?$AAn?$AA?9?$AAG?$AAB@ 100238f8     libucrt:lcidtoname_downlevel.obj
 0002:00004904       ??_C@_1M@PGKJFFGL@?$AAe?$AAs?$AA?9?$AAM?$AAX@ 10023904     libucrt:lcidtoname_downlevel.obj
 0002:00004910       ??_C@_1M@DNNANBDC@?$AAf?$AAr?$AA?9?$AAB?$AAE@ 10023910     libucrt:lcidtoname_downlevel.obj
 0002:0000491c       ??_C@_1M@HLGMDFHM@?$AAi?$AAt?$AA?9?$AAC?$AAH@ 1002391c     libucrt:lcidtoname_downlevel.obj
 0002:00004928       ??_C@_1M@CLLBGJH@?$AAn?$AAl?$AA?9?$AAB?$AAE@ 10023928     libucrt:lcidtoname_downlevel.obj
 0002:00004934       ??_C@_1M@BODBOGLF@?$AAn?$AAn?$AA?9?$AAN?$AAO@ 10023934     libucrt:lcidtoname_downlevel.obj
 0002:00004940       ??_C@_1M@HFFAHKAD@?$AAp?$AAt?$AA?9?$AAP?$AAT@ 10023940     libucrt:lcidtoname_downlevel.obj
 0002:0000494c       ??_C@_1BG@LNOAKHIE@?$AAs?$AAr?$AA?9?$AAS?$AAP?$AA?9?$AAL?$AAa?$AAt?$AAn@ 1002394c     libucrt:lcidtoname_downlevel.obj
 0002:00004964       ??_C@_1M@HBMHBGAK@?$AAs?$AAv?$AA?9?$AAF?$AAI@ 10023964     libucrt:lcidtoname_downlevel.obj
 0002:00004970       ??_C@_1BG@DGCJGJBE@?$AAa?$AAz?$AA?9?$AAA?$AAZ?$AA?9?$AAC?$AAy?$AAr?$AAl@ 10023970     libucrt:lcidtoname_downlevel.obj
 0002:00004988       ??_C@_1M@KEJDAAHB@?$AAs?$AAe?$AA?9?$AAS?$AAE@ 10023988     libucrt:lcidtoname_downlevel.obj
 0002:00004994       ??_C@_1M@HEIBJJAD@?$AAm?$AAs?$AA?9?$AAB?$AAN@ 10023994     libucrt:lcidtoname_downlevel.obj
 0002:000049a0       ??_C@_1BG@PBGJMCEM@?$AAu?$AAz?$AA?9?$AAU?$AAZ?$AA?9?$AAC?$AAy?$AAr?$AAl@ 100239a0     libucrt:lcidtoname_downlevel.obj
 0002:000049b8       ??_C@_1O@LAOBCMDF@?$AAq?$AAu?$AAz?$AA?9?$AAE?$AAC@ 100239b8     libucrt:lcidtoname_downlevel.obj
 0002:000049c8       ??_C@_1M@POEEMAIO@?$AAa?$AAr?$AA?9?$AAE?$AAG@ 100239c8     libucrt:lcidtoname_downlevel.obj
 0002:000049d4       ??_C@_1M@EFAKDEDL@?$AAz?$AAh?$AA?9?$AAH?$AAK@ 100239d4     libucrt:lcidtoname_downlevel.obj
 0002:000049e0       ??_C@_1M@HKKIJHGI@?$AAd?$AAe?$AA?9?$AAA?$AAT@ 100239e0     libucrt:lcidtoname_downlevel.obj
 0002:000049ec       ??_C@_1M@KBFBEHJF@?$AAe?$AAn?$AA?9?$AAA?$AAU@ 100239ec     libucrt:lcidtoname_downlevel.obj
 0002:000049f8       ??_C@_1M@MNPLFAAH@?$AAe?$AAs?$AA?9?$AAE?$AAS@ 100239f8     libucrt:lcidtoname_downlevel.obj
 0002:00004a04       ??_C@_1M@HJOOJFMA@?$AAf?$AAr?$AA?9?$AAC?$AAA@ 10023a04     libucrt:lcidtoname_downlevel.obj
 0002:00004a10       ??_C@_1BG@JPOFPNAB@?$AAs?$AAr?$AA?9?$AAS?$AAP?$AA?9?$AAC?$AAy?$AAr?$AAl@ 10023a10     libucrt:lcidtoname_downlevel.obj
 0002:00004a28       ??_C@_1M@LNFOCMOB@?$AAs?$AAe?$AA?9?$AAF?$AAI@ 10023a28     libucrt:lcidtoname_downlevel.obj
 0002:00004a34       ??_C@_1O@MGJBOAMB@?$AAq?$AAu?$AAz?$AA?9?$AAP?$AAE@ 10023a34     libucrt:lcidtoname_downlevel.obj
 0002:00004a44       ??_C@_1M@GJINLBOK@?$AAa?$AAr?$AA?9?$AAL?$AAY@ 10023a44     libucrt:lcidtoname_downlevel.obj
 0002:00004a50       ??_C@_1M@GGMNHJNL@?$AAz?$AAh?$AA?9?$AAS?$AAG@ 10023a50     libucrt:lcidtoname_downlevel.obj
 0002:00004a5c       ??_C@_1M@HOIKODND@?$AAd?$AAe?$AA?9?$AAL?$AAU@ 10023a5c     libucrt:lcidtoname_downlevel.obj
 0002:00004a68       ??_C@_1M@DDOCCGFG@?$AAe?$AAn?$AA?9?$AAC?$AAA@ 10023a68     libucrt:lcidtoname_downlevel.obj
 0002:00004a74       ??_C@_1M@BNOEMJLF@?$AAe?$AAs?$AA?9?$AAG?$AAT@ 10023a74     libucrt:lcidtoname_downlevel.obj
 0002:00004a80       ??_C@_1M@EOGNKEK@?$AAf?$AAr?$AA?9?$AAC?$AAH@ 10023a80     libucrt:lcidtoname_downlevel.obj
 0002:00004a8c       ??_C@_1M@FLIDJFHL@?$AAh?$AAr?$AA?9?$AAB?$AAA@ 10023a8c     libucrt:lcidtoname_downlevel.obj
 0002:00004a98       ??_C@_1O@FMCELNAJ@?$AAs?$AAm?$AAj?$AA?9?$AAN?$AAO@ 10023a98     libucrt:lcidtoname_downlevel.obj
 0002:00004aa8       ??_C@_1M@JHGLJMGJ@?$AAa?$AAr?$AA?9?$AAD?$AAZ@ 10023aa8     libucrt:lcidtoname_downlevel.obj
 0002:00004ab4       ??_C@_1M@JKKFDCNP@?$AAz?$AAh?$AA?9?$AAM?$AAO@ 10023ab4     libucrt:lcidtoname_downlevel.obj
 0002:00004ac0       ??_C@_1M@GEEFALPE@?$AAd?$AAe?$AA?9?$AAL?$AAI@ 10023ac0     libucrt:lcidtoname_downlevel.obj
 0002:00004acc       ??_C@_1M@IGEOFBG@?$AAe?$AAn?$AA?9?$AAN?$AAZ@ 10023acc     libucrt:lcidtoname_downlevel.obj
 0002:00004ad8       ??_C@_1M@KDBONEHP@?$AAe?$AAs?$AA?9?$AAC?$AAR@ 10023ad8     libucrt:lcidtoname_downlevel.obj
 0002:00004ae4       ??_C@_1M@FHMDOHNN@?$AAf?$AAr?$AA?9?$AAL?$AAU@ 10023ae4     libucrt:lcidtoname_downlevel.obj
 0002:00004af0       ??_C@_1BG@NFKKMAFG@?$AAb?$AAs?$AA?9?$AAB?$AAA?$AA?9?$AAL?$AAa?$AAt?$AAn@ 10023af0     libucrt:lcidtoname_downlevel.obj
 0002:00004b08       ??_C@_1O@IMNBEMCI@?$AAs?$AAm?$AAj?$AA?9?$AAS?$AAE@ 10023b08     libucrt:lcidtoname_downlevel.obj
 0002:00004b18       ??_C@_1M@DHHMBNDP@?$AAa?$AAr?$AA?9?$AAM?$AAA@ 10023b18     libucrt:lcidtoname_downlevel.obj
 0002:00004b24       ??_C@_1M@BNBLJCGH@?$AAe?$AAn?$AA?9?$AAI?$AAE@ 10023b24     libucrt:lcidtoname_downlevel.obj
 0002:00004b30       ??_C@_1M@GEPAFMDL@?$AAe?$AAs?$AA?9?$AAP?$AAA@ 10023b30     libucrt:lcidtoname_downlevel.obj
 0002:00004b3c       ??_C@_1M@OJONDMDL@?$AAf?$AAr?$AA?9?$AAM?$AAC@ 10023b3c     libucrt:lcidtoname_downlevel.obj
 0002:00004b48       ??_C@_1BG@OBCNFJB@?$AAs?$AAr?$AA?9?$AAB?$AAA?$AA?9?$AAL?$AAa?$AAt?$AAn@ 10023b48     libucrt:lcidtoname_downlevel.obj
 0002:00004b60       ??_C@_1O@KEMEEGPO@?$AAs?$AAm?$AAa?$AA?9?$AAN?$AAO@ 10023b60     libucrt:lcidtoname_downlevel.obj
 0002:00004b70       ??_C@_1M@ELMGFODK@?$AAa?$AAr?$AA?9?$AAT?$AAN@ 10023b70     libucrt:lcidtoname_downlevel.obj
 0002:00004b7c       ??_C@_1M@BHDLHFAF@?$AAe?$AAn?$AA?9?$AAZ?$AAA@ 10023b7c     libucrt:lcidtoname_downlevel.obj
 0002:00004b88       ??_C@_1M@BMGIGLIF@?$AAe?$AAs?$AA?9?$AAD?$AAO@ 10023b88     libucrt:lcidtoname_downlevel.obj
 0002:00004b94       ??_C@_1BG@CMBHIPBE@?$AAs?$AAr?$AA?9?$AAB?$AAA?$AA?9?$AAC?$AAy?$AAr?$AAl@ 10023b94     libucrt:lcidtoname_downlevel.obj
 0002:00004bac       ??_C@_1O@HEDBLHNP@?$AAs?$AAm?$AAa?$AA?9?$AAS?$AAE@ 10023bac     libucrt:lcidtoname_downlevel.obj
 0002:00004bbc       ??_C@_1M@DAGCADIM@?$AAa?$AAr?$AA?9?$AAO?$AAM@ 10023bbc     libucrt:lcidtoname_downlevel.obj
 0002:00004bc8       ??_C@_1M@FODLMICG@?$AAe?$AAn?$AA?9?$AAJ?$AAM@ 10023bc8     libucrt:lcidtoname_downlevel.obj
 0002:00004bd4       ??_C@_1M@DNMLCIHB@?$AAe?$AAs?$AA?9?$AAV?$AAE@ 10023bd4     libucrt:lcidtoname_downlevel.obj
 0002:00004be0       ??_C@_1O@EOKHMKJK@?$AAs?$AAm?$AAs?$AA?9?$AAF?$AAI@ 10023be0     libucrt:lcidtoname_downlevel.obj
 0002:00004bf0       ??_C@_1M@CAFJMKOF@?$AAa?$AAr?$AA?9?$AAY?$AAE@ 10023bf0     libucrt:lcidtoname_downlevel.obj
 0002:00004bfc       ??_C@_1M@CBFHIJLI@?$AAe?$AAn?$AA?9?$AAC?$AAB@ 10023bfc     libucrt:lcidtoname_downlevel.obj
 0002:00004c08       ??_C@_1M@BGNFLDN@?$AAe?$AAs?$AA?9?$AAC?$AAO@ 10023c08     libucrt:lcidtoname_downlevel.obj
 0002:00004c14       ??_C@_1O@JMPHMAMC@?$AAs?$AAm?$AAn?$AA?9?$AAF?$AAI@ 10023c14     libucrt:lcidtoname_downlevel.obj
 0002:00004c24       ??_C@_1M@JLANABKE@?$AAa?$AAr?$AA?9?$AAS?$AAY@ 10023c24     libucrt:lcidtoname_downlevel.obj
 0002:00004c30       ??_C@_1M@HPKGCFGN@?$AAe?$AAn?$AA?9?$AAB?$AAZ@ 10023c30     libucrt:lcidtoname_downlevel.obj
 0002:00004c3c       ??_C@_1M@OLJCMLGM@?$AAe?$AAs?$AA?9?$AAP?$AAE@ 10023c3c     libucrt:lcidtoname_downlevel.obj
 0002:00004c48       ??_C@_1M@MKKGFKLE@?$AAa?$AAr?$AA?9?$AAJ?$AAO@ 10023c48     libucrt:lcidtoname_downlevel.obj
 0002:00004c54       ??_C@_1M@EKPGLDNI@?$AAe?$AAn?$AA?9?$AAT?$AAT@ 10023c54     libucrt:lcidtoname_downlevel.obj
 0002:00004c60       ??_C@_1M@OONGHFHE@?$AAe?$AAs?$AA?9?$AAA?$AAR@ 10023c60     libucrt:lcidtoname_downlevel.obj
 0002:00004c6c       ??_C@_1M@OOJFGBHE@?$AAa?$AAr?$AA?9?$AAL?$AAB@ 10023c6c     libucrt:lcidtoname_downlevel.obj
 0002:00004c78       ??_C@_1M@GCEJHNEG@?$AAe?$AAn?$AA?9?$AAZ?$AAW@ 10023c78     libucrt:lcidtoname_downlevel.obj
 0002:00004c84       ??_C@_1M@JNOCAHJI@?$AAe?$AAs?$AA?9?$AAE?$AAC@ 10023c84     libucrt:lcidtoname_downlevel.obj
 0002:00004c90       ??_C@_1M@JEFHPGGB@?$AAa?$AAr?$AA?9?$AAK?$AAW@ 10023c90     libucrt:lcidtoname_downlevel.obj
 0002:00004c9c       ??_C@_1M@MLKIBJOJ@?$AAe?$AAn?$AA?9?$AAP?$AAH@ 10023c9c     libucrt:lcidtoname_downlevel.obj
 0002:00004ca8       ??_C@_1M@BDNIPEND@?$AAe?$AAs?$AA?9?$AAC?$AAL@ 10023ca8     libucrt:lcidtoname_downlevel.obj
 0002:00004cb4       ??_C@_1M@MPNMEKBD@?$AAa?$AAr?$AA?9?$AAA?$AAE@ 10023cb4     libucrt:lcidtoname_downlevel.obj
 0002:00004cc0       ??_C@_1M@KBJALCPI@?$AAe?$AAs?$AA?9?$AAU?$AAY@ 10023cc0     libucrt:lcidtoname_downlevel.obj
 0002:00004ccc       ??_C@_1M@LLCCOAGA@?$AAa?$AAr?$AA?9?$AAB?$AAH@ 10023ccc     libucrt:lcidtoname_downlevel.obj
 0002:00004cd8       ??_C@_1M@PBFNCDEL@?$AAe?$AAs?$AA?9?$AAP?$AAY@ 10023cd8     libucrt:lcidtoname_downlevel.obj
 0002:00004ce4       ??_C@_1M@EDGINPNP@?$AAa?$AAr?$AA?9?$AAQ?$AAA@ 10023ce4     libucrt:lcidtoname_downlevel.obj
 0002:00004cf0       ??_C@_1M@MKDBIIJI@?$AAe?$AAs?$AA?9?$AAB?$AAO@ 10023cf0     libucrt:lcidtoname_downlevel.obj
 0002:00004cfc       ??_C@_1M@CPKKEBLD@?$AAe?$AAs?$AA?9?$AAS?$AAV@ 10023cfc     libucrt:lcidtoname_downlevel.obj
 0002:00004d08       ??_C@_1M@NDBGMMJL@?$AAe?$AAs?$AA?9?$AAH?$AAN@ 10023d08     libucrt:lcidtoname_downlevel.obj
 0002:00004d14       ??_C@_1M@JIJIBHDP@?$AAe?$AAs?$AA?9?$AAN?$AAI@ 10023d14     libucrt:lcidtoname_downlevel.obj
 0002:00004d20       ??_C@_1M@CGFMKEEK@?$AAe?$AAs?$AA?9?$AAP?$AAR@ 10023d20     libucrt:lcidtoname_downlevel.obj
 0002:00004d2c       ??_C@_1O@ICJHKIIK@?$AAz?$AAh?$AA?9?$AAC?$AAH?$AAT@ 10023d2c     libucrt:lcidtoname_downlevel.obj
 0002:00004d3c       ??_C@_15CLNEJCE@?$AAs?$AAr@ 10023d3c     libucrt:lcidtoname_downlevel.obj
 0002:00005468       ??_C@_1M@KAHEKEIG@?$AAa?$AAf?$AA?9?$AAz?$AAa@ 10024468     libucrt:lcidtoname_downlevel.obj
 0002:00005474       ??_C@_1M@GIECOABL@?$AAa?$AAr?$AA?9?$AAa?$AAe@ 10024474     libucrt:lcidtoname_downlevel.obj
 0002:00005480       ??_C@_1M@BMLMEKGI@?$AAa?$AAr?$AA?9?$AAb?$AAh@ 10024480     libucrt:lcidtoname_downlevel.obj
 0002:0000548c       ??_C@_1M@DAPFDGGB@?$AAa?$AAr?$AA?9?$AAd?$AAz@ 1002448c     libucrt:lcidtoname_downlevel.obj
 0002:00005498       ??_C@_1M@FJNKGKIG@?$AAa?$AAr?$AA?9?$AAe?$AAg@ 10024498     libucrt:lcidtoname_downlevel.obj
 0002:000054a4       ??_C@_1M@FLGKKCLO@?$AAa?$AAr?$AA?9?$AAi?$AAq@ 100244a4     libucrt:lcidtoname_downlevel.obj
 0002:000054b0       ??_C@_1M@GNDIPALM@?$AAa?$AAr?$AA?9?$AAj?$AAo@ 100244b0     libucrt:lcidtoname_downlevel.obj
 0002:000054bc       ??_C@_1M@DDMJFMGJ@?$AAa?$AAr?$AA?9?$AAk?$AAw@ 100244bc     libucrt:lcidtoname_downlevel.obj
 0002:000054c8       ??_C@_1M@EJALMLHM@?$AAa?$AAr?$AA?9?$AAl?$AAb@ 100244c8     libucrt:lcidtoname_downlevel.obj
 0002:000054d4       ??_C@_1M@MOBDBLOC@?$AAa?$AAr?$AA?9?$AAl?$AAy@ 100244d4     libucrt:lcidtoname_downlevel.obj
 0002:000054e0       ??_C@_1M@JAOCLHDH@?$AAa?$AAr?$AA?9?$AAm?$AAa@ 100244e0     libucrt:lcidtoname_downlevel.obj
 0002:000054ec       ??_C@_1M@JHPMKJIE@?$AAa?$AAr?$AA?9?$AAo?$AAm@ 100244ec     libucrt:lcidtoname_downlevel.obj
 0002:000054f8       ??_C@_1M@OEPGHFNH@?$AAa?$AAr?$AA?9?$AAq?$AAa@ 100244f8     libucrt:lcidtoname_downlevel.obj
 0002:00005504       ??_C@_1M@KJDONENM@?$AAa?$AAr?$AA?9?$AAs?$AAa@ 10024504     libucrt:lcidtoname_downlevel.obj
 0002:00005510       ??_C@_1M@DMJDKLKM@?$AAa?$AAr?$AA?9?$AAs?$AAy@ 10024510     libucrt:lcidtoname_downlevel.obj
 0002:0000551c       ??_C@_1M@OMFIPEDC@?$AAa?$AAr?$AA?9?$AAt?$AAn@ 1002451c     libucrt:lcidtoname_downlevel.obj
 0002:00005528       ??_C@_1M@IHMHGAON@?$AAa?$AAr?$AA?9?$AAy?$AAe@ 10024528     libucrt:lcidtoname_downlevel.obj
 0002:00005534       ??_C@_1BG@KDCPGJGB@?$AAa?$AAz?$AA?9?$AAa?$AAz?$AA?9?$AAc?$AAy?$AAr?$AAl@ 10024534     libucrt:lcidtoname_downlevel.obj
 0002:0000554c       ??_C@_1BG@IBCKDDOE@?$AAa?$AAz?$AA?9?$AAa?$AAz?$AA?9?$AAl?$AAa?$AAt?$AAn@ 1002454c     libucrt:lcidtoname_downlevel.obj
 0002:00005564       ??_C@_1M@EGPFDCPD@?$AAb?$AAe?$AA?9?$AAb?$AAy@ 10024564     libucrt:lcidtoname_downlevel.obj
 0002:00005570       ??_C@_1M@PCMGMCGC@?$AAb?$AAg?$AA?9?$AAb?$AAg@ 10024570     libucrt:lcidtoname_downlevel.obj
 0002:0000557c       ??_C@_1M@BJBMFGOB@?$AAb?$AAn?$AA?9?$AAi?$AAn@ 1002457c     libucrt:lcidtoname_downlevel.obj
 0002:00005588       ??_C@_1BG@EAKMMACD@?$AAb?$AAs?$AA?9?$AAb?$AAa?$AA?9?$AAl?$AAa?$AAt?$AAn@ 10024588     libucrt:lcidtoname_downlevel.obj
 0002:000055a0       ??_C@_1M@KGADAODK@?$AAc?$AAa?$AA?9?$AAe?$AAs@ 100245a0     libucrt:lcidtoname_downlevel.obj
 0002:000055ac       ??_C@_1M@COAJPDHI@?$AAc?$AAs?$AA?9?$AAc?$AAz@ 100245ac     libucrt:lcidtoname_downlevel.obj
 0002:000055b8       ??_C@_1M@DHBHFONH@?$AAc?$AAy?$AA?9?$AAg?$AAb@ 100245b8     libucrt:lcidtoname_downlevel.obj
 0002:000055c4       ??_C@_1M@IMGKELGA@?$AAd?$AAa?$AA?9?$AAd?$AAk@ 100245c4     libucrt:lcidtoname_downlevel.obj
 0002:000055d0       ??_C@_1M@NNDGDNGA@?$AAd?$AAe?$AA?9?$AAa?$AAt@ 100245d0     libucrt:lcidtoname_downlevel.obj
 0002:000055dc       ??_C@_1M@IKDBHEEM@?$AAd?$AAe?$AA?9?$AAc?$AAh@ 100245dc     libucrt:lcidtoname_downlevel.obj
 0002:000055e8       ??_C@_1M@GFFOJMCJ@?$AAd?$AAe?$AA?9?$AAd?$AAe@ 100245e8     libucrt:lcidtoname_downlevel.obj
 0002:000055f4       ??_C@_1M@MDNLKBPM@?$AAd?$AAe?$AA?9?$AAl?$AAi@ 100245f4     libucrt:lcidtoname_downlevel.obj
 0002:00005600       ??_C@_1M@NJBEEJNL@?$AAd?$AAe?$AA?9?$AAl?$AAu@ 10024600     libucrt:lcidtoname_downlevel.obj
 0002:0000560c       ??_C@_1O@GNNELBAP@?$AAd?$AAi?$AAv?$AA?9?$AAm?$AAv@ 1002460c     libucrt:lcidtoname_downlevel.obj
 0002:0000561c       ??_C@_1M@EJLEOGAE@?$AAe?$AAl?$AA?9?$AAg?$AAr@ 1002461c     libucrt:lcidtoname_downlevel.obj
 0002:00005628       ??_C@_1M@GMPONJN@?$AAe?$AAn?$AA?9?$AAa?$AAu@ 10024628     libucrt:lcidtoname_downlevel.obj
 0002:00005634       ??_C@_1M@NIDIIPGF@?$AAe?$AAn?$AA?9?$AAb?$AAz@ 10024634     libucrt:lcidtoname_downlevel.obj
 0002:00005640       ??_C@_1M@JEHMIMFO@?$AAe?$AAn?$AA?9?$AAc?$AAa@ 10024640     libucrt:lcidtoname_downlevel.obj
 0002:0000564c       ??_C@_1M@IGMJCDLA@?$AAe?$AAn?$AA?9?$AAc?$AAb@ 1002464c     libucrt:lcidtoname_downlevel.obj
 0002:00005658       ??_C@_1M@BNFIGBKG@?$AAe?$AAn?$AA?9?$AAg?$AAb@ 10024658     libucrt:lcidtoname_downlevel.obj
 0002:00005664       ??_C@_1M@LKIFDIGP@?$AAe?$AAn?$AA?9?$AAi?$AAe@ 10024664     libucrt:lcidtoname_downlevel.obj
 0002:00005670       ??_C@_1M@PJKFGCCO@?$AAe?$AAn?$AA?9?$AAj?$AAm@ 10024670     libucrt:lcidtoname_downlevel.obj
 0002:0000567c       ??_C@_1M@KPPKEPBO@?$AAe?$AAn?$AA?9?$AAn?$AAz@ 1002467c     libucrt:lcidtoname_downlevel.obj
 0002:00005688       ??_C@_1M@GMDGLDOB@?$AAe?$AAn?$AA?9?$AAp?$AAh@ 10024688     libucrt:lcidtoname_downlevel.obj
 0002:00005694       ??_C@_1M@ONGIBJNA@?$AAe?$AAn?$AA?9?$AAt?$AAt@ 10024694     libucrt:lcidtoname_downlevel.obj
 0002:000056a0       ??_C@_1M@LLODPCMM@?$AAe?$AAn?$AA?9?$AAu?$AAs@ 100246a0     libucrt:lcidtoname_downlevel.obj
 0002:000056ac       ??_C@_1M@LAKFNPAN@?$AAe?$AAn?$AA?9?$AAz?$AAa@ 100246ac     libucrt:lcidtoname_downlevel.obj
 0002:000056b8       ??_C@_1M@MFNHNHEO@?$AAe?$AAn?$AA?9?$AAz?$AAw@ 100246b8     libucrt:lcidtoname_downlevel.obj
 0002:000056c4       ??_C@_1M@EJEINPHM@?$AAe?$AAs?$AA?9?$AAa?$AAr@ 100246c4     libucrt:lcidtoname_downlevel.obj
 0002:000056d0       ??_C@_1M@GNKPCCJA@?$AAe?$AAs?$AA?9?$AAb?$AAo@ 100246d0     libucrt:lcidtoname_downlevel.obj
 0002:000056dc       ??_C@_1M@LEEGFONL@?$AAe?$AAs?$AA?9?$AAc?$AAl@ 100246dc     libucrt:lcidtoname_downlevel.obj
 0002:000056e8       ??_C@_1M@KGPDPBDF@?$AAe?$AAs?$AA?9?$AAc?$AAo@ 100246e8     libucrt:lcidtoname_downlevel.obj
 0002:000056f4       ??_C@_1M@EIAHOHH@?$AAe?$AAs?$AA?9?$AAc?$AAr@ 100246f4     libucrt:lcidtoname_downlevel.obj
 0002:00005700       ??_C@_1M@LLPGMBIN@?$AAe?$AAs?$AA?9?$AAd?$AAo@ 10024700     libucrt:lcidtoname_downlevel.obj
 0002:0000570c       ??_C@_1M@DKHMKNJA@?$AAe?$AAs?$AA?9?$AAe?$AAc@ 1002470c     libucrt:lcidtoname_downlevel.obj
 0002:00005718       ??_C@_1M@GKGFPKAP@?$AAe?$AAs?$AA?9?$AAe?$AAs@ 10024718     libucrt:lcidtoname_downlevel.obj
 0002:00005724       ??_C@_1M@LKHKGDLN@?$AAe?$AAs?$AA?9?$AAg?$AAt@ 10024724     libucrt:lcidtoname_downlevel.obj
 0002:00005730       ??_C@_1M@HEIIGGJD@?$AAe?$AAs?$AA?9?$AAh?$AAn@ 10024730     libucrt:lcidtoname_downlevel.obj
 0002:0000573c       ??_C@_1M@FBDHPPGD@?$AAe?$AAs?$AA?9?$AAm?$AAx@ 1002473c     libucrt:lcidtoname_downlevel.obj
 0002:00005748       ??_C@_1M@DPAGLNDH@?$AAe?$AAs?$AA?9?$AAn?$AAi@ 10024748     libucrt:lcidtoname_downlevel.obj
 0002:00005754       ??_C@_1M@MDGOPGDD@?$AAe?$AAs?$AA?9?$AAp?$AAa@ 10024754     libucrt:lcidtoname_downlevel.obj
 0002:00005760       ??_C@_1M@EMAMGBGE@?$AAe?$AAs?$AA?9?$AAp?$AAe@ 10024760     libucrt:lcidtoname_downlevel.obj
 0002:0000576c       ??_C@_1M@IBMCAOEC@?$AAe?$AAs?$AA?9?$AAp?$AAr@ 1002476c     libucrt:lcidtoname_downlevel.obj
 0002:00005778       ??_C@_1M@FGMDIJED@?$AAe?$AAs?$AA?9?$AAp?$AAy@ 10024778     libucrt:lcidtoname_downlevel.obj
 0002:00005784       ??_C@_1M@IIDEOLLL@?$AAe?$AAs?$AA?9?$AAs?$AAv@ 10024784     libucrt:lcidtoname_downlevel.obj
 0002:00005790       ??_C@_1M@GAOBIPA@?$AAe?$AAs?$AA?9?$AAu?$AAy@ 10024790     libucrt:lcidtoname_downlevel.obj
 0002:0000579c       ??_C@_1M@JKFFICHJ@?$AAe?$AAs?$AA?9?$AAv?$AAe@ 1002479c     libucrt:lcidtoname_downlevel.obj
 0002:000057a8       ??_C@_1M@PNMLOJDF@?$AAe?$AAt?$AA?9?$AAe?$AAe@ 100247a8     libucrt:lcidtoname_downlevel.obj
 0002:000057b4       ??_C@_1M@GHHLIKEI@?$AAe?$AAu?$AA?9?$AAe?$AAs@ 100247b4     libucrt:lcidtoname_downlevel.obj
 0002:000057c0       ??_C@_1M@PBNONODE@?$AAf?$AAa?$AA?9?$AAi?$AAr@ 100247c0     libucrt:lcidtoname_downlevel.obj
 0002:000057cc       ??_C@_1M@JEEHPMIL@?$AAf?$AAi?$AA?9?$AAf?$AAi@ 100247cc     libucrt:lcidtoname_downlevel.obj
 0002:000057d8       ??_C@_1M@LMDCNDBA@?$AAf?$AAo?$AA?9?$AAf?$AAo@ 100247d8     libucrt:lcidtoname_downlevel.obj
 0002:000057e4       ??_C@_1M@JKEOHLDK@?$AAf?$AAr?$AA?9?$AAb?$AAe@ 100247e4     libucrt:lcidtoname_downlevel.obj
 0002:000057f0       ??_C@_1M@NOHADPMI@?$AAf?$AAr?$AA?9?$AAc?$AAa@ 100247f0     libucrt:lcidtoname_downlevel.obj
 0002:000057fc       ??_C@_1M@KDHIHAEC@?$AAf?$AAr?$AA?9?$AAc?$AAh@ 100247fc     libucrt:lcidtoname_downlevel.obj
 0002:00005808       ??_C@_1M@MMBBFGAK@?$AAf?$AAr?$AA?9?$AAf?$AAr@ 10024808     libucrt:lcidtoname_downlevel.obj
 0002:00005814       ??_C@_1M@PAFNENNF@?$AAf?$AAr?$AA?9?$AAl?$AAu@ 10024814     libucrt:lcidtoname_downlevel.obj
 0002:00005820       ??_C@_1M@EOHDJGDD@?$AAf?$AAr?$AA?9?$AAm?$AAc@ 10024820     libucrt:lcidtoname_downlevel.obj
 0002:0000582c       ??_C@_1M@FAPLLOPF@?$AAg?$AAl?$AA?9?$AAe?$AAs@ 1002482c     libucrt:lcidtoname_downlevel.obj
 0002:00005838       ??_C@_1M@FOPBFLOO@?$AAg?$AAu?$AA?9?$AAi?$AAn@ 10024838     libucrt:lcidtoname_downlevel.obj
 0002:00005844       ??_C@_1M@KBMCINPM@?$AAh?$AAe?$AA?9?$AAi?$AAl@ 10024844     libucrt:lcidtoname_downlevel.obj
 0002:00005850       ??_C@_1M@BBPHKFPJ@?$AAh?$AAi?$AA?9?$AAi?$AAn@ 10024850     libucrt:lcidtoname_downlevel.obj
 0002:0000585c       ??_C@_1M@PMBNDPHD@?$AAh?$AAr?$AA?9?$AAb?$AAa@ 1002485c     libucrt:lcidtoname_downlevel.obj
 0002:00005868       ??_C@_1M@BPCKOEGE@?$AAh?$AAr?$AA?9?$AAh?$AAr@ 10024868     libucrt:lcidtoname_downlevel.obj
 0002:00005874       ??_C@_1M@GACBMHKE@?$AAh?$AAu?$AA?9?$AAh?$AAu@ 10024874     libucrt:lcidtoname_downlevel.obj
 0002:00005880       ??_C@_1M@MILPAJJC@?$AAh?$AAy?$AA?9?$AAa?$AAm@ 10024880     libucrt:lcidtoname_downlevel.obj
 0002:0000588c       ??_C@_1M@BABBICEC@?$AAi?$AAd?$AA?9?$AAi?$AAd@ 1002488c     libucrt:lcidtoname_downlevel.obj
 0002:00005898       ??_C@_1M@BIKNHHPF@?$AAi?$AAs?$AA?9?$AAi?$AAs@ 10024898     libucrt:lcidtoname_downlevel.obj
 0002:000058a4       ??_C@_1M@NMPCJPHE@?$AAi?$AAt?$AA?9?$AAc?$AAh@ 100248a4     libucrt:lcidtoname_downlevel.obj
 0002:000058b0       ??_C@_1M@GHKGFEDF@?$AAi?$AAt?$AA?9?$AAi?$AAt@ 100248b0     libucrt:lcidtoname_downlevel.obj
 0002:000058bc       ??_C@_1M@NIEJCJJA@?$AAj?$AAa?$AA?9?$AAj?$AAp@ 100248bc     libucrt:lcidtoname_downlevel.obj
 0002:000058c8       ??_C@_1M@JILFNBIM@?$AAk?$AAa?$AA?9?$AAg?$AAe@ 100248c8     libucrt:lcidtoname_downlevel.obj
 0002:000058d4       ??_C@_1M@PACPMGPH@?$AAk?$AAk?$AA?9?$AAk?$AAz@ 100248d4     libucrt:lcidtoname_downlevel.obj
 0002:000058e0       ??_C@_1M@IELFGMHA@?$AAk?$AAn?$AA?9?$AAi?$AAn@ 100248e0     libucrt:lcidtoname_downlevel.obj
 0002:000058ec       ??_C@_1O@IBBJHCH@?$AAk?$AAo?$AAk?$AA?9?$AAi?$AAn@ 100248ec     libucrt:lcidtoname_downlevel.obj
 0002:000058fc       ??_C@_1M@DMHAEOGC@?$AAk?$AAo?$AA?9?$AAk?$AAr@ 100248fc     libucrt:lcidtoname_downlevel.obj
 0002:00005908       ??_C@_1M@HBAHBIGA@?$AAk?$AAy?$AA?9?$AAk?$AAg@ 10024908     libucrt:lcidtoname_downlevel.obj
 0002:00005914       ??_C@_1M@KPMILCJG@?$AAl?$AAt?$AA?9?$AAl?$AAt@ 10024914     libucrt:lcidtoname_downlevel.obj
 0002:00005920       ??_C@_1M@BDEKKCA@?$AAl?$AAv?$AA?9?$AAl?$AAv@ 10024920     libucrt:lcidtoname_downlevel.obj
 0002:0000592c       ??_C@_1M@ELCKCCJJ@?$AAm?$AAi?$AA?9?$AAn?$AAz@ 1002492c     libucrt:lcidtoname_downlevel.obj
 0002:00005938       ??_C@_1M@CBOOLAPA@?$AAm?$AAk?$AA?9?$AAm?$AAk@ 10024938     libucrt:lcidtoname_downlevel.obj
 0002:00005944       ??_C@_1M@GPHNBJKN@?$AAm?$AAl?$AA?9?$AAi?$AAn@ 10024944     libucrt:lcidtoname_downlevel.obj
 0002:00005950       ??_C@_1M@PABJILIG@?$AAm?$AAn?$AA?9?$AAm?$AAn@ 10024950     libucrt:lcidtoname_downlevel.obj
 0002:0000595c       ??_C@_1M@FGBKKIPG@?$AAm?$AAr?$AA?9?$AAi?$AAn@ 1002495c     libucrt:lcidtoname_downlevel.obj
 0002:00005968       ??_C@_1M@NDBPDDAL@?$AAm?$AAs?$AA?9?$AAb?$AAn@ 10024968     libucrt:lcidtoname_downlevel.obj
 0002:00005974       ??_C@_1M@OPIHOOPI@?$AAm?$AAs?$AA?9?$AAm?$AAy@ 10024974     libucrt:lcidtoname_downlevel.obj
 0002:00005980       ??_C@_1M@PPDBCNFM@?$AAm?$AAt?$AA?9?$AAm?$AAt@ 10024980     libucrt:lcidtoname_downlevel.obj
 0002:0000598c       ??_C@_1M@KDJDKMDD@?$AAn?$AAb?$AA?9?$AAn?$AAo@ 1002498c     libucrt:lcidtoname_downlevel.obj
 0002:00005998       ??_C@_1M@KFCFLMJP@?$AAn?$AAl?$AA?9?$AAb?$AAe@ 10024998     libucrt:lcidtoname_downlevel.obj
 0002:000059a4       ??_C@_1M@KPOPDDGO@?$AAn?$AAl?$AA?9?$AAn?$AAl@ 100249a4     libucrt:lcidtoname_downlevel.obj
 0002:000059b0       ??_C@_1M@LJKPEMLN@?$AAn?$AAn?$AA?9?$AAn?$AAo@ 100249b0     libucrt:lcidtoname_downlevel.obj
 0002:000059bc       ??_C@_1M@BDGHHBFL@?$AAn?$AAs?$AA?9?$AAz?$AAa@ 100249bc     libucrt:lcidtoname_downlevel.obj
 0002:000059c8       ??_C@_1M@IDEHOAP@?$AAp?$AAa?$AA?9?$AAi?$AAn@ 100249c8     libucrt:lcidtoname_downlevel.obj
 0002:000059d4       ??_C@_1M@HDBKGOGH@?$AAp?$AAl?$AA?9?$AAp?$AAl@ 100249d4     libucrt:lcidtoname_downlevel.obj
 0002:000059e0       ??_C@_1M@LJLLCMEH@?$AAp?$AAt?$AA?9?$AAb?$AAr@ 100249e0     libucrt:lcidtoname_downlevel.obj
 0002:000059ec       ??_C@_1M@NCMONAAL@?$AAp?$AAt?$AA?9?$AAp?$AAt@ 100249ec     libucrt:lcidtoname_downlevel.obj
 0002:000059f8       ??_C@_1O@EAKMAJDN@?$AAq?$AAu?$AAz?$AA?9?$AAb?$AAo@ 100249f8     libucrt:lcidtoname_downlevel.obj
 0002:00005a08       ??_C@_1O@BHHPIGDN@?$AAq?$AAu?$AAz?$AA?9?$AAe?$AAc@ 10024a08     libucrt:lcidtoname_downlevel.obj
 0002:00005a18       ??_C@_1O@GBAPEKMJ@?$AAq?$AAu?$AAz?$AA?9?$AAp?$AAe@ 10024a18     libucrt:lcidtoname_downlevel.obj
 0002:00005a28       ??_C@_1M@CLGLEFBO@?$AAr?$AAo?$AA?9?$AAr?$AAo@ 10024a28     libucrt:lcidtoname_downlevel.obj
 0002:00005a34       ??_C@_1M@CEEDODME@?$AAr?$AAu?$AA?9?$AAr?$AAu@ 10024a34     libucrt:lcidtoname_downlevel.obj
 0002:00005a40       ??_C@_1M@HPKKKMPP@?$AAs?$AAa?$AA?9?$AAi?$AAn@ 10024a40     libucrt:lcidtoname_downlevel.obj
 0002:00005a4c       ??_C@_1M@BKMAIGOJ@?$AAs?$AAe?$AA?9?$AAf?$AAi@ 10024a4c     libucrt:lcidtoname_downlevel.obj
 0002:00005a58       ??_C@_1M@NDPIFLFI@?$AAs?$AAe?$AA?9?$AAn?$AAo@ 10024a58     libucrt:lcidtoname_downlevel.obj
 0002:00005a64       ??_C@_1M@DANKKHJ@?$AAs?$AAe?$AA?9?$AAs?$AAe@ 10024a64     libucrt:lcidtoname_downlevel.obj
 0002:00005a70       ??_C@_1M@PNBLONPJ@?$AAs?$AAk?$AA?9?$AAs?$AAk@ 10024a70     libucrt:lcidtoname_downlevel.obj
 0002:00005a7c       ??_C@_1M@LFMODOAL@?$AAs?$AAl?$AA?9?$AAs?$AAi@ 10024a7c     libucrt:lcidtoname_downlevel.obj
 0002:00005a88       ??_C@_1O@DFKOMPG@?$AAs?$AAm?$AAa?$AA?9?$AAn?$AAo@ 10024a88     libucrt:lcidtoname_downlevel.obj
 0002:00005a98       ??_C@_1O@NDKPBNNH@?$AAs?$AAm?$AAa?$AA?9?$AAs?$AAe@ 10024a98     libucrt:lcidtoname_downlevel.obj
 0002:00005aa8       ??_C@_1O@PLLKBHAB@?$AAs?$AAm?$AAj?$AA?9?$AAn?$AAo@ 10024aa8     libucrt:lcidtoname_downlevel.obj
 0002:00005ab8       ??_C@_1O@CLEPOGCA@?$AAs?$AAm?$AAj?$AA?9?$AAs?$AAe@ 10024ab8     libucrt:lcidtoname_downlevel.obj
 0002:00005ac8       ??_C@_1O@DLGJGKMK@?$AAs?$AAm?$AAn?$AA?9?$AAf?$AAi@ 10024ac8     libucrt:lcidtoname_downlevel.obj
 0002:00005ad8       ??_C@_1O@OJDJGAJC@?$AAs?$AAm?$AAs?$AA?9?$AAf?$AAi@ 10024ad8     libucrt:lcidtoname_downlevel.obj
 0002:00005ae8       ??_C@_1M@BOFOGHPB@?$AAs?$AAq?$AA?9?$AAa?$AAl@ 10024ae8     libucrt:lcidtoname_downlevel.obj
 0002:00005af4       ??_C@_1BG@LJBBIPGB@?$AAs?$AAr?$AA?9?$AAb?$AAa?$AA?9?$AAc?$AAy?$AAr?$AAl@ 10024af4     libucrt:lcidtoname_downlevel.obj
 0002:00005b0c       ??_C@_1BG@JLBENFOE@?$AAs?$AAr?$AA?9?$AAb?$AAa?$AA?9?$AAl?$AAa?$AAt?$AAn@ 10024b0c     libucrt:lcidtoname_downlevel.obj
 0002:00005b24       ??_C@_1BG@KODPNHE@?$AAs?$AAr?$AA?9?$AAs?$AAp?$AA?9?$AAc?$AAy?$AAr?$AAl@ 10024b24     libucrt:lcidtoname_downlevel.obj
 0002:00005b3c       ??_C@_1BG@CIOGKHPB@?$AAs?$AAr?$AA?9?$AAs?$AAp?$AA?9?$AAl?$AAa?$AAt?$AAn@ 10024b3c     libucrt:lcidtoname_downlevel.obj
 0002:00005b54       ??_C@_1M@NGFJLMAC@?$AAs?$AAv?$AA?9?$AAf?$AAi@ 10024b54     libucrt:lcidtoname_downlevel.obj
 0002:00005b60       ??_C@_1M@MPJEJAJC@?$AAs?$AAv?$AA?9?$AAs?$AAe@ 10024b60     libucrt:lcidtoname_downlevel.obj
 0002:00005b6c       ??_C@_1M@MPNDHLFK@?$AAs?$AAw?$AA?9?$AAk?$AAe@ 10024b6c     libucrt:lcidtoname_downlevel.obj
 0002:00005b78       ??_C@_1O@KOHBJJI@?$AAs?$AAy?$AAr?$AA?9?$AAs?$AAy@ 10024b78     libucrt:lcidtoname_downlevel.obj
 0002:00005b88       ??_C@_1M@LDCEFHA@?$AAt?$AAa?$AA?9?$AAi?$AAn@ 10024b88     libucrt:lcidtoname_downlevel.obj
 0002:00005b94       ??_C@_1M@CNJOFAK@?$AAt?$AAe?$AA?9?$AAi?$AAn@ 10024b94     libucrt:lcidtoname_downlevel.obj
 0002:00005ba0       ??_C@_1M@GNAECACD@?$AAt?$AAh?$AA?9?$AAt?$AAh@ 10024ba0     libucrt:lcidtoname_downlevel.obj
 0002:00005bac       ??_C@_1M@CHBIHOJO@?$AAt?$AAn?$AA?9?$AAz?$AAa@ 10024bac     libucrt:lcidtoname_downlevel.obj
 0002:00005bb8       ??_C@_1M@GCCMIGPJ@?$AAt?$AAr?$AA?9?$AAt?$AAr@ 10024bb8     libucrt:lcidtoname_downlevel.obj
 0002:00005bc4       ??_C@_1M@CELMCNBK@?$AAt?$AAt?$AA?9?$AAr?$AAu@ 10024bc4     libucrt:lcidtoname_downlevel.obj
 0002:00005bd0       ??_C@_1M@KLMCELGA@?$AAu?$AAk?$AA?9?$AAu?$AAa@ 10024bd0     libucrt:lcidtoname_downlevel.obj
 0002:00005bdc       ??_C@_1M@EPAJJAJF@?$AAu?$AAr?$AA?9?$AAp?$AAk@ 10024bdc     libucrt:lcidtoname_downlevel.obj
 0002:00005be8       ??_C@_1BG@GEGPMCDJ@?$AAu?$AAz?$AA?9?$AAu?$AAz?$AA?9?$AAc?$AAy?$AAr?$AAl@ 10024be8     libucrt:lcidtoname_downlevel.obj
 0002:00005c00       ??_C@_1BG@EGGKJILM@?$AAu?$AAz?$AA?9?$AAu?$AAz?$AA?9?$AAl?$AAa?$AAt?$AAn@ 10024c00     libucrt:lcidtoname_downlevel.obj
 0002:00005c18       ??_C@_1M@GFOCLFF@?$AAv?$AAi?$AA?9?$AAv?$AAn@ 10024c18     libucrt:lcidtoname_downlevel.obj
 0002:00005c24       ??_C@_1M@CPAMEDFI@?$AAx?$AAh?$AA?9?$AAz?$AAa@ 10024c24     libucrt:lcidtoname_downlevel.obj
 0002:00005c30       ??_C@_1O@EBKIFIGN@?$AAz?$AAh?$AA?9?$AAc?$AAh?$AAs@ 10024c30     libucrt:lcidtoname_downlevel.obj
 0002:00005c40       ??_C@_1O@NMHPGANE@?$AAz?$AAh?$AA?9?$AAc?$AAh?$AAt@ 10024c40     libucrt:lcidtoname_downlevel.obj
 0002:00005c50       ??_C@_1M@LPINJOMC@?$AAz?$AAh?$AA?9?$AAc?$AAn@ 10024c50     libucrt:lcidtoname_downlevel.obj
 0002:00005c5c       ??_C@_1M@OCJEJODD@?$AAz?$AAh?$AA?9?$AAh?$AAk@ 10024c5c     libucrt:lcidtoname_downlevel.obj
 0002:00005c68       ??_C@_1M@DNDLJINH@?$AAz?$AAh?$AA?9?$AAm?$AAo@ 10024c68     libucrt:lcidtoname_downlevel.obj
 0002:00005c74       ??_C@_1M@MBFDNDND@?$AAz?$AAh?$AA?9?$AAs?$AAg@ 10024c74     libucrt:lcidtoname_downlevel.obj
 0002:00005c80       ??_C@_1M@IMEPLEPE@?$AAz?$AAh?$AA?9?$AAt?$AAw@ 10024c80     libucrt:lcidtoname_downlevel.obj
 0002:00005c8c       ??_C@_1M@BBGHNHJP@?$AAz?$AAu?$AA?9?$AAz?$AAa@ 10024c8c     libucrt:lcidtoname_downlevel.obj
 0002:00005c98       ?large_power_data@?1??multiply_by_power_of_ten@__crt_strtox@@YA_NAAUbig_integer@2@I@Z@4QBIB 10024c98     libucrt:cfout.obj
 0002:00006638       ?small_powers_of_ten@?1??multiply_by_power_of_ten@__crt_strtox@@YA_NAAUbig_integer@2@I@Z@4QBIB 10025638     libucrt:cfout.obj
 0002:0000665c       ??_C@_01GBGANLPD@0@        1002565c     libucrt:cfout.obj
 0002:00006660       ??_C@_05DNEBIAHO@1?$CDINF@ 10025660     libucrt:cfout.obj
 0002:00006668       ??_C@_06IMKFLFPG@1?$CDQNAN@ 10025668     libucrt:cfout.obj
 0002:00006670       ??_C@_06PGGFOGJG@1?$CDSNAN@ 10025670     libucrt:cfout.obj
 0002:00006678       ??_C@_05PHHOCPM@1?$CDIND@  10025678     libucrt:cfout.obj
 0002:000067e0       __infinity                 100257e0     libucrt:87tran.obj
 0002:000067ea       __minfinity                100257ea     libucrt:87tran.obj
 0002:000067f4       __logemax                  100257f4     libucrt:87tran.obj
 0002:0000681a       __OP_EXPjmptab             1002581a     libucrt:87tran.obj
 0002:00006840       __indefinite               10025840     libucrt:87disp.obj
 0002:0000684a       __piby2                    1002584a     libucrt:87disp.obj
 0002:00006854       __piby4                    10025854     libucrt:87disp.obj
 0002:00006888       __DEFAULT_CW_in_mem        10025888     libucrt:common.obj
 0002:0000688a       __pi_by_2_to_61            1002588a     libucrt:common.obj
 0002:000068c4       ??_C@_03MGHMBJCF@log@      100258c4     libucrt:libm_error.obj
 0002:000068c8       ??_C@_05HGHHAHAP@log10@    100258c8     libucrt:libm_error.obj
 0002:000068d0       ??_C@_03KHJOGHMM@exp@      100258d0     libucrt:libm_error.obj
 0002:000068d4       ??_C@_03JGHBODFD@pow@      100258d4     libucrt:libm_error.obj
 0002:000068d8       ??_C@_04FIHNOPOL@asin@     100258d8     libucrt:libm_error.obj
 0002:000068e0       ??_C@_04PDIFKINK@acos@     100258e0     libucrt:libm_error.obj
 0002:000068e8       ??_C@_04EIAKFFMI@sqrt@     100258e8     libucrt:libm_error.obj
 0002:000068f0       __real@3ff0000000000000    100258f0     libucrt:libm_error.obj
 0002:000068f8       ??_C@_1BA@BALFACEM@?$AAC?$AAO?$AAN?$AAO?$AAU?$AAT?$AA$@ 100258f8     libucrt:initcon.obj
 0002:00006920       ___acrt_log10_table_t      10025920     libucrt:log10_tables.obj
 0002:00006d30       ___acrt_log10_table_cb     10025d30     libucrt:log10_tables.obj
 0002:00007140       __real@3fe0000000000000    10026140     libucrt:powhlp.obj
 0002:00007230       ??_C@_04COOMCNPB@sinh@     10026230     libucrt:fpexcept.obj
 0002:00007238       ??_C@_04HPJJNFIM@cosh@     10026238     libucrt:fpexcept.obj
 0002:00007240       ??_C@_04FJHINJAO@tanh@     10026240     libucrt:fpexcept.obj
 0002:00007248       ??_C@_04MLLJIGOK@atan@     10026248     libucrt:fpexcept.obj
 0002:00007250       ??_C@_05KNGEOGJB@atan2@    10026250     libucrt:fpexcept.obj
 0002:00007258       ??_C@_03BLEJJJBH@sin@      10026258     libucrt:fpexcept.obj
 0002:0000725c       ??_C@_03LALBNOCG@cos@      1002625c     libucrt:fpexcept.obj
 0002:00007260       ??_C@_03IIINPABG@tan@      10026260     libucrt:fpexcept.obj
 0002:00007264       ??_C@_04GFPJNGEK@ceil@     10026264     libucrt:fpexcept.obj
 0002:0000726c       ??_C@_05PBJFFIGL@floor@    1002626c     libucrt:fpexcept.obj
 0002:00007274       ??_C@_04ODHECPBC@fabs@     10026274     libucrt:fpexcept.obj
 0002:0000727c       ??_C@_04EHEDPDJG@modf@     1002627c     libucrt:fpexcept.obj
 0002:00007284       ??_C@_05CEJMAHNP@ldexp@    10026284     libucrt:fpexcept.obj
 0002:0000728c       ??_C@_05KBKMEMPO@_cabs@    1002628c     libucrt:fpexcept.obj
 0002:00007294       ??_C@_06MEIMCGCF@_hypot@   10026294     libucrt:fpexcept.obj
 0002:0000729c       ??_C@_04KEPJIHGP@fmod@     1002629c     libucrt:fpexcept.obj
 0002:000072a4       ??_C@_05GKKHEGJL@frexp@    100262a4     libucrt:fpexcept.obj
 0002:000072ac       ??_C@_03MJLDFKDL@_y0@      100262ac     libucrt:fpexcept.obj
 0002:000072b0       ??_C@_03NAKIGLHK@_y1@      100262b0     libucrt:fpexcept.obj
 0002:000072b4       ??_C@_03ONILCKOB@_yn@      100262b4     libucrt:fpexcept.obj
 0002:000072b8       ??_C@_05JGDBENOH@_logb@    100262b8     libucrt:fpexcept.obj
 0002:000072c0       ??_C@_0L@KDOEJCKC@_nextafter@ 100262c0     libucrt:fpexcept.obj
 0002:000072d0       __d_inf                    100262d0     libucrt:util.obj
 0002:000072d8       __d_max                    100262d8     libucrt:util.obj
 0002:000072e0       __d_mzero                  100262e0     libucrt:util.obj
 0002:00007358       __load_config_used         10026358     LIBCMT:loadcfg.obj
 0002:000073fc       __tls_used                 100263fc     LIBCMT:tlssup.obj
 0002:00007414       ??_R4exception@std@@6B@    10026414     LIBCMT:throw_bad_alloc.obj
 0002:00007428       ??_R3exception@std@@8      10026428     LIBCMT:throw_bad_alloc.obj
 0002:00007438       ??_R2exception@std@@8      10026438     LIBCMT:throw_bad_alloc.obj
 0002:00007440       ??_R1A@?0A@EA@exception@std@@8 10026440     LIBCMT:throw_bad_alloc.obj
 0002:0000745c       ??_R4bad_alloc@std@@6B@    1002645c     LIBCMT:throw_bad_alloc.obj
 0002:00007470       ??_R3bad_alloc@std@@8      10026470     LIBCMT:throw_bad_alloc.obj
 0002:00007480       ??_R2bad_alloc@std@@8      10026480     LIBCMT:throw_bad_alloc.obj
 0002:0000748c       ??_R1A@?0A@EA@bad_alloc@std@@8 1002648c     LIBCMT:throw_bad_alloc.obj
 0002:000074a8       ??_R4bad_array_new_length@std@@6B@ 100264a8     LIBCMT:throw_bad_alloc.obj
 0002:000074bc       ??_R3bad_array_new_length@std@@8 100264bc     LIBCMT:throw_bad_alloc.obj
 0002:000074cc       ??_R2bad_array_new_length@std@@8 100264cc     LIBCMT:throw_bad_alloc.obj
 0002:000074dc       ??_R1A@?0A@EA@bad_array_new_length@std@@8 100264dc     LIBCMT:throw_bad_alloc.obj
 0002:000074f8       ??_R4type_info@@6B@        100264f8     LIBCMT:std_type_info_static.obj
 0002:0000750c       ??_R3type_info@@8          1002650c     LIBCMT:std_type_info_static.obj
 0002:0000751c       ??_R2type_info@@8          1002651c     LIBCMT:std_type_info_static.obj
 0002:00007524       ??_R1A@?0A@EA@type_info@@8 10026524     LIBCMT:std_type_info_static.obj
 0002:00007540       ??_R4bad_exception@std@@6B@ 10026540     libvcruntime:frame.obj
 0002:00007554       ??_R3bad_exception@std@@8  10026554     libvcruntime:frame.obj
 0002:00007564       ??_R2bad_exception@std@@8  10026564     libvcruntime:frame.obj
 0002:00007570       ??_R1A@?0A@EA@bad_exception@std@@8 10026570     libvcruntime:frame.obj
 0002:00007590       ___safe_se_handler_table   10026590     <linker-defined>
 0002:0000798c       ___rtc_iaa                 1002698c     LIBCMT:initsect.obj
 0002:00007990       ___rtc_izz                 10026990     LIBCMT:initsect.obj
 0002:00007994       ___rtc_taa                 10026994     LIBCMT:initsect.obj
 0002:00007998       ___rtc_tzz                 10026998     LIBCMT:initsect.obj
 0002:0000799c       __tls_start                1002699c     LIBCMT:tlssup.obj
 0002:000079a0       __Init_thread_epoch        100269a0     LIBCMT:thread_safe_statics.obj
 0002:000079a4       __tls_end                  100269a4     LIBCMT:tlssup.obj
 0002:00007aa4       __TI2?AVbad_alloc@std@@    10026aa4     LIBCMT:throw_bad_alloc.obj
 0002:00007ab4       __CTA2?AVbad_alloc@std@@   10026ab4     LIBCMT:throw_bad_alloc.obj
 0002:00007ac0       __CT??_R0?AVbad_alloc@std@@@8??0bad_alloc@std@@QAE@ABV01@@Z12 10026ac0     LIBCMT:throw_bad_alloc.obj
 0002:00007adc       __CT??_R0?AVexception@std@@@8??0exception@std@@QAE@ABV01@@Z12 10026adc     LIBCMT:throw_bad_alloc.obj
 0002:00007af8       __TI3?AVbad_array_new_length@std@@ 10026af8     LIBCMT:throw_bad_alloc.obj
 0002:00007b08       __CTA3?AVbad_array_new_length@std@@ 10026b08     LIBCMT:throw_bad_alloc.obj
 0002:00007b18       __CT??_R0?AVbad_array_new_length@std@@@8??0bad_array_new_length@std@@QAE@ABV01@@Z12 10026b18     LIBCMT:throw_bad_alloc.obj
 0002:00007c3c       __TI2?AVbad_exception@std@@ 10026c3c     libvcruntime:frame.obj
 0002:00007c4c       __CTA2?AVbad_exception@std@@ 10026c4c     libvcruntime:frame.obj
 0002:00007c58       __CT??_R0?AVbad_exception@std@@@8??0bad_exception@std@@QAE@ABV01@@Z12 10026c58     libvcruntime:frame.obj
 0002:00007fb4       ___pobjMapEntryFirst       10026fb4     OposVariant.obj
 0002:00007fb8       ___pobjMapEntryLast        10026fb8     OposVariant.obj
 0002:00008070       __IMPORT_DESCRIPTOR_KERNEL32 10027070     kernel32:KERNEL32.dll
 0002:00008084       __IMPORT_DESCRIPTOR_USER32 10027084     user32:USER32.dll
 0002:00008098       __IMPORT_DESCRIPTOR_GDI32  10027098     gdi32:GDI32.dll
 0002:000080ac       __IMPORT_DESCRIPTOR_ADVAPI32 100270ac     advapi32:ADVAPI32.dll
 0002:000080c0       __IMPORT_DESCRIPTOR_ole32  100270c0     ole32:ole32.dll
 0002:000080d4       __IMPORT_DESCRIPTOR_OLEAUT32 100270d4     oleaut32:OLEAUT32.dll
 0002:000080e8       __NULL_IMPORT_DESCRIPTOR   100270e8     kernel32:KERNEL32.dll
 0003:00000000       ?s_Claim@?7??GetIDsOfNames@CComTypeInfoHolder@ATL@@QAEJABU_GUID@@PAPA_WIKPAJ@Z@4PA_WA 10028000     CheckScanner.obj
 0003:00000018       ?s_Release@?7??GetIDsOfNames@CComTypeInfoHolder@ATL@@QAEJABU_GUID@@PAPA_WIKPAJ@Z@4PA_WA 10028018     CheckScanner.obj
 0003:00000034       ?_tih@?$IDispatchImpl@UIOPOSCheckScanner@@$1?IID_IOPOSCheckScanner@@3U_GUID@@B$1?LIBID_OposCheckScanner_CCO@@3U3@B$00$0A@VCComTypeInfoHolder@ATL@@@ATL@@1VCComTypeInfoHolder@2@A 10028034     CheckScanner.obj
 0003:00000050       ?_tih@?$IProvideClassInfo2Impl@$1?CLSID_OPOSCheckScanner@@3U_GUID@@B$1?DIID__IOPOSCheckScannerEvents@@3U2@B$1?LIBID_OposCheckScanner_CCO@@3U2@B$00$0A@VCComTypeInfoHolder@ATL@@@ATL@@1VCComTypeInfoHolder@2@A 10028050     CheckScanner.obj
 0003:0000006c       ?vszContents@?6??Save@?$IPersistStorageImpl@VCOPOSCheckScanner@@@ATL@@UAGJPAUIStorage@@H@Z@4PB_WB 1002806c     CheckScanner.obj
 0003:00000070       ?wc@?1??GetWndClassInfo@?$CWindowImpl@VCOPOSCheckScanner@@VCWindow@ATL@@V?$CWinTraits@$0FGAAAAAA@$0A@@3@@ATL@@SAAAU_ATL_WNDCLASSINFOW@3@XZ@4U43@A 10028070     CheckScanner.obj
 0003:000000fc       ?rcDefault@CWindow@ATL@@2UtagRECT@@A 100280fc     CheckScanner.obj
 0003:00000158       ?g_WindowName@@3PA_WA      10028158     CheckScannerImpl.obj
 0003:00000180       ?g_ControlDescription@@3PADA 10028180     CheckScannerImpl.obj
 0003:000001cc       ?g_ControlVersion@@3JA     100281cc     CheckScannerImpl.obj
 0003:00000250       ___scrt_native_dllmain_reason 10028250     LIBCMT:utility.obj
 0003:00000254       __Init_global_epoch        10028254     LIBCMT:thread_safe_statics.obj
 0003:00000260       ___security_cookie_complement 10028260     LIBCMT:gs_cookie.obj
 0003:00000264       ___security_cookie         10028264     LIBCMT:gs_cookie.obj
 0003:00000268       ___isa_enabled             10028268     LIBCMT:cpu_disp.obj
 0003:00000280       __NLG_Destination          10028280     libvcruntime:exsup.obj
 0003:00000298       ___abort_behavior          10028298     libucrt:abort.obj
 0003:000002a8       __iob                      100282a8     libucrt:_file.obj
 0003:00000350       ___acrt_initial_locale_data 10028350     libucrt:nlsdata.obj
 0003:00000408       ___acrt_initial_locale_pointers 10028408     libucrt:nlsdata.obj
 0003:00000410       ___acrt_wide_c_locale_string 10028410     libucrt:nlsdata.obj
 0003:00000418       ___acrt_initial_multibyte_data 10028418     libucrt:mbctype.obj
 0003:00000938       __pwctype                  10028938     libucrt:ctype.obj
 0003:0000093c       ___globallocalestatus      1002893c     libucrt:glstatus.obj
 0003:00000940       ___acrt_lconv_c            10028940     libucrt:localeconv.obj
 0003:00000990       ___acrt_lconv_static_decimal 10028990     libucrt:localeconv.obj
 0003:00000994       ___acrt_lconv_static_W_decimal 10028994     libucrt:localeconv.obj
 0003:000009a0       __lookuptrailbytes         100289a0     libucrt:read.obj
 0003:00000ab0       __fltused                  10028ab0     LIBCMT:fltused.obj
 0003:00000ac0       ??_R0?AVbad_alloc@std@@@8  10028ac0     LIBCMT:throw_bad_alloc.obj
 0003:00000adc       ??_R0?AVexception@std@@@8  10028adc     LIBCMT:throw_bad_alloc.obj
 0003:00000af8       ??_R0?AVbad_array_new_length@std@@@8 10028af8     LIBCMT:throw_bad_alloc.obj
 0003:00000b20       ??_R0?AVtype_info@@@8      10028b20     LIBCMT:std_type_info_static.obj
 0003:00000b38       ??_R0?AVbad_exception@std@@@8 10028b38     libvcruntime:frame.obj
 0003:00000b58       ?_pPerfRegFunc@ATL@@3P6AJPAUHINSTANCE__@@@ZA 10028b58     OposVariant.obj
 0003:00000b5c       ?_pPerfUnRegFunc@ATL@@3P6AJXZA 10028b5c     OposVariant.obj
 0003:00000b60       ?_AtlRegisterPerUser@ATL@@3_NA 10028b60     OposVariant.obj
 0003:00000b64       ?_pAtlModule@ATL@@3PAVCAtlModule@1@A 10028b64     OposVariant.obj
 0003:00000b68       ?_pModule@ATL@@3PAVCComModule@1@A 10028b68     OposVariant.obj
 0003:00000b6c       ?m_bInitFailed@CAtlBaseModule@ATL@@2_NA 10028b6c     OposVariant.obj
 0003:00000b70       ?_AtlComModule@ATL@@3VCAtlComModule@1@A 10028b70     OposVariant.obj
 0003:00000b98       ?_AtlWinModule@ATL@@3VCAtlWinModule@1@A 10028b98     OposVariant.obj
 0003:00000bc4       ?m_libid@CAtlModule@ATL@@2U_GUID@@A 10028bc4     CheckScanner.obj
 0003:00000bd4       ?_entries@?1??GetConnMap@COPOSCheckScanner@@SAPBU_ATL_CONNMAP_ENTRY@ATL@@PAH@Z@4QBU34@B 10028bd4     CheckScanner.obj
 0003:00000be0       ?$TSS0@?1??GetConnMap@COPOSCheckScanner@@SAPBU_ATL_CONNMAP_ENTRY@ATL@@PAH@Z@4HA 10028be0     CheckScanner.obj
 0003:00000be8       ?_OptionsStorage@?1??__local_stdio_printf_options@@9@4_KA 10028be8     CheckScanner.obj
 0003:00000bf0       ?pfnRegDeleteKeyEx@?1??DeleteSubKey@CRegKey@ATL@@QAEJPB_W@Z@4P6GJPAUHKEY__@@0KK@ZA 10028bf0     CheckScanner.obj
 0003:00000bf4       ?bInitialized@?1??DeleteSubKey@CRegKey@ATL@@QAEJPB_W@Z@4_NA 10028bf4     CheckScanner.obj
 0003:00000bf8       ?_Module@@3VCComModule@ATL@@A 10028bf8     CheckScanner.obj
 0003:00000c28       ?pConnMap@?$IConnectionPointContainerImpl@VCOPOSCheckScanner@@@ATL@@0PBU_ATL_CONNMAP_ENTRY@2@B 10028c28     CheckScanner.obj
 0003:00000c2c       ?s_nInstances@COPOSCheckScanner@@1HA 10028c2c     CheckScannerImpl.obj
 0003:00000c30       ___scrt_current_native_startup_state 10028c30     LIBCMT:utility.obj
 0003:00000c34       ___scrt_native_startup_lock 10028c34     LIBCMT:utility.obj
 0003:00000f9c       __tls_index                10028f9c     LIBCMT:tlssup.obj
 0003:00000fa4       ___isa_available           10028fa4     LIBCMT:cpu_disp.obj
 0003:00000fa8       ___favor                   10028fa8     LIBCMT:cpu_disp.obj
 0003:00000fac       ___scrt_debugger_hook_flag 10028fac     LIBCMT:utility_desktop.obj
 0003:00000fb0       ?__type_info_root_node@@3U__type_info_node@@A 10028fb0     LIBCMT:tncleanup.obj
 0003:00000fb8       ?_OptionsStorage@?1??__local_stdio_scanf_options@@9@4_KA 10028fb8     LIBCMT:default_local_stdio_options.obj
 0003:00000fc0       ?_AtlBaseModule@ATL@@3VCAtlBaseModule@1@A 10028fc0     atls:atlbase.obj
 0003:00000ff8       ?__AtlThunkPool@@3PAT_SLIST_HEADER@@A 10028ff8     atls:atlthunk.obj
 0003:00001010       ___@@_PchSym_@00@UztvmgUPdlipUGUhUrmgvinvwrzgvUexgllohUzgohOmzgrevkilqPBACIAJCBDBUlyqiUcIGUhgwzucOlyq@4B2008FD98C1DD4 10029010     atls:stdafx.obj
 0003:00001014       ?__WinRTOutOfMemoryExceptionCallback@@3P6GPAXXZA 10029014     libvcruntime:ehhelpers.obj
 0003:00001018       ___pPurecall               10029018     libvcruntime:purevirt_data.obj
 0003:00001060       ?pArgList@UnDecorator@@0PAVReplicator@@A 10029060     libvcruntime:undname.obj
 0003:00001064       ?pZNameList@UnDecorator@@0PAVReplicator@@A 10029064     libvcruntime:undname.obj
 0003:00001068       ?pTemplateArgList@UnDecorator@@0PAVReplicator@@A 10029068     libvcruntime:undname.obj
 0003:0000106c       ?gName@UnDecorator@@0PBDB  1002906c     libvcruntime:undname.obj
 0003:00001070       ?name@UnDecorator@@0PBDB   10029070     libvcruntime:undname.obj
 0003:00001074       ?disableFlags@UnDecorator@@0KA 10029074     libvcruntime:undname.obj
 0003:00001078       ?fExplicitTemplateParams@UnDecorator@@0_NA 10029078     libvcruntime:undname.obj
 0003:00001079       ?fGetTemplateArgumentList@UnDecorator@@0_NA 10029079     libvcruntime:undname.obj
 0003:0000107c       ?m_pGetParameter@UnDecorator@@0P6APADJ@ZA 1002907c     libvcruntime:undname.obj
 0003:00001080       ?m_CHPENameOffset@UnDecorator@@0KA 10029080     libvcruntime:undname.obj
 0003:00001084       ?m_recursionLevel@UnDecorator@@0KA 10029084     libvcruntime:undname.obj
 0003:000010c8       ?c_exit_complete@?1???R<lambda_6e4b09c48022b2350581041d5f6b0c4c>@@QBE@XZ@4_NA 100290c8     libucrt:exit.obj
 0003:000011d8       __environ_table            100291d8     libucrt:environment_initialization.obj
 0003:000011dc       __wenviron_table           100291dc     libucrt:environment_initialization.obj
 0003:000011e0       ___dcrt_initial_wide_environment 100291e0     libucrt:environment_initialization.obj
 0003:000011e4       ___dcrt_initial_narrow_environment 100291e4     libucrt:environment_initialization.obj
 0003:000011e8       ___acrt_atexit_table       100291e8     libucrt:onexit.obj
 0003:000011f4       ___acrt_at_quick_exit_table 100291f4     libucrt:onexit.obj
 0003:000012e8       __nstream                  100292e8     libucrt:_file.obj
 0003:000012ec       ___piob                    100292ec     libucrt:_file.obj
 0003:000012f4       ___acrt_stdout_buffer      100292f4     libucrt:_sftbuf.obj
 0003:000012f8       ___acrt_stderr_buffer      100292f8     libucrt:_sftbuf.obj
 0003:000012fc       ___acrt_locale_changed_data 100292fc     libucrt:wsetlocale.obj
 0003:00001300       ___acrt_current_locale_data 10029300     libucrt:nlsdata.obj
 0003:00001308       ___pioinfo                 10029308     libucrt:ioinit.obj
 0003:00001508       __nhandle                  10029508     libucrt:ioinit.obj
 0003:00001664       __mbctype                  10029664     libucrt:mbctype.obj
 0003:00001668       __mbcasemap                10029668     libucrt:mbctype.obj
 0003:0000166c       ___acrt_current_multibyte_data 1002966c     libucrt:mbctype.obj
 0003:00001678       __pgmptr                   10029678     libucrt:argv_data.obj
 0003:0000167c       ___argc                    1002967c     libucrt:argv_data.obj
 0003:00001680       ___argv                    10029680     libucrt:argv_data.obj
 0003:00001684       ___wargv                   10029684     libucrt:argv_data.obj
 0003:00001688       __acmdln                   10029688     libucrt:argv_data.obj
 0003:0000168c       __wcmdln                   1002968c     libucrt:argv_data.obj
 0003:00001690       ___acrt_heap               10029690     libucrt:heap_handle.obj
 0003:000016ac       ___acrt_lconv_static_null  100296ac     libucrt:localeconv.obj
 0003:000016b0       ___acrt_lconv_static_W_null 100296b0     libucrt:localeconv.obj
 0003:000016c0       ___fastflag                100296c0     libucrt:fp_flags.obj
 0003:000016c8       ___dyn_tls_init_callback   100296c8     <common>
 0003:000016cc       ___scrt_ucrt_dll_is_in_use 100296cc     <common>
 0003:000016d0       __pmatherr                 100296d0     <common>
 0003:000016d4       ___use_sse2_mathfcns       100296d4     <common>

 entry point at        0001:0000c378

 Static symbols

 0000:fffce000       .debug$S                   10000000     OPOSCheckScanner.exp
 0000:fffce000       .debug$S                   10000000     advapi32:ADVAPI32.dll
 0000:fffce000       .debug$S                   10000000     advapi32:ADVAPI32.dll
 0000:fffce000       .debug$S                   10000000     advapi32:ADVAPI32.dll
 0000:fffce000       .debug$S                   10000000     advapi32:ADVAPI32.dll
 0000:fffce000       .debug$S                   10000000     advapi32:ADVAPI32.dll
 0000:fffce000       .debug$S                   10000000     advapi32:ADVAPI32.dll
 0000:fffce000       .debug$S                   10000000     advapi32:ADVAPI32.dll
 0000:fffce000       .debug$S                   10000000     advapi32:ADVAPI32.dll
 0000:fffce000       .debug$S                   10000000     advapi32:ADVAPI32.dll
 0000:fffce000       .debug$S                   10000000     gdi32:GDI32.dll
 0000:fffce000       .debug$S                   10000000     gdi32:GDI32.dll
 0000:fffce000       .debug$S                   10000000     gdi32:GDI32.dll
 0000:fffce000       .debug$S                   10000000     gdi32:GDI32.dll
 0000:fffce000       .debug$S                   10000000     gdi32:GDI32.dll
 0000:fffce000       .debug$S                   10000000     gdi32:GDI32.dll
 0000:fffce000       .debug$S                   10000000     gdi32:GDI32.dll
 0000:fffce000       .debug$S                   10000000     gdi32:GDI32.dll
 0000:fffce000       .debug$S                   10000000     gdi32:GDI32.dll
 0000:fffce000       .debug$S                   10000000     gdi32:GDI32.dll
 0000:fffce000       .debug$S                   10000000     gdi32:GDI32.dll
 0000:fffce000       .debug$S                   10000000     gdi32:GDI32.dll
 0000:fffce000       .debug$S                   10000000     gdi32:GDI32.dll
 0000:fffce000       .debug$S                   10000000     gdi32:GDI32.dll
 0000:fffce000       .debug$S                   10000000     gdi32:GDI32.dll
 0000:fffce000       .debug$S                   10000000     gdi32:GDI32.dll
 0000:fffce000       .debug$S                   10000000     gdi32:GDI32.dll
 0000:fffce000       .debug$S                   10000000     gdi32:GDI32.dll
 0000:fffce000       .debug$S                   10000000     gdi32:GDI32.dll
 0000:fffce000       .debug$S                   10000000     kernel32:KERNEL32.dll
 0000:fffce000       .debug$S                   10000000     kernel32:KERNEL32.dll
 0000:fffce000       .debug$S                   10000000     kernel32:KERNEL32.dll
 0000:fffce000       .debug$S                   10000000     kernel32:KERNEL32.dll
 0000:fffce000       .debug$S                   10000000     kernel32:KERNEL32.dll
 0000:fffce000       .debug$S                   10000000     kernel32:KERNEL32.dll
 0000:fffce000       .debug$S                   10000000     kernel32:KERNEL32.dll
 0000:fffce000       .debug$S                   10000000     kernel32:KERNEL32.dll
 0000:fffce000       .debug$S                   10000000     kernel32:KERNEL32.dll
 0000:fffce000       .debug$S                   10000000     kernel32:KERNEL32.dll
 0000:fffce000       .debug$S                   10000000     kernel32:KERNEL32.dll
 0000:fffce000       .debug$S                   10000000     kernel32:KERNEL32.dll
 0000:fffce000       .debug$S                   10000000     kernel32:KERNEL32.dll
 0000:fffce000       .debug$S                   10000000     kernel32:KERNEL32.dll
 0000:fffce000       .debug$S                   10000000     kernel32:KERNEL32.dll
 0000:fffce000       .debug$S                   10000000     kernel32:KERNEL32.dll
 0000:fffce000       .debug$S                   10000000     kernel32:KERNEL32.dll
 0000:fffce000       .debug$S                   10000000     kernel32:KERNEL32.dll
 0000:fffce000       .debug$S                   10000000     kernel32:KERNEL32.dll
 0000:fffce000       .debug$S                   10000000     kernel32:KERNEL32.dll
 0000:fffce000       .debug$S                   10000000     kernel32:KERNEL32.dll
 0000:fffce000       .debug$S                   10000000     kernel32:KERNEL32.dll
 0000:fffce000       .debug$S                   10000000     kernel32:KERNEL32.dll
 0000:fffce000       .debug$S                   10000000     kernel32:KERNEL32.dll
 0000:fffce000       .debug$S                   10000000     kernel32:KERNEL32.dll
 0000:fffce000       .debug$S                   10000000     kernel32:KERNEL32.dll
 0000:fffce000       .debug$S                   10000000     kernel32:KERNEL32.dll
 0000:fffce000       .debug$S                   10000000     kernel32:KERNEL32.dll
 0000:fffce000       .debug$S                   10000000     kernel32:KERNEL32.dll
 0000:fffce000       .debug$S                   10000000     kernel32:KERNEL32.dll
 0000:fffce000       .debug$S                   10000000     kernel32:KERNEL32.dll
 0000:fffce000       .debug$S                   10000000     kernel32:KERNEL32.dll
 0000:fffce000       .debug$S                   10000000     kernel32:KERNEL32.dll
 0000:fffce000       .debug$S                   10000000     kernel32:KERNEL32.dll
 0000:fffce000       .debug$S                   10000000     kernel32:KERNEL32.dll
 0000:fffce000       .debug$S                   10000000     kernel32:KERNEL32.dll
 0000:fffce000       .debug$S                   10000000     kernel32:KERNEL32.dll
 0000:fffce000       .debug$S                   10000000     kernel32:KERNEL32.dll
 0000:fffce000       .debug$S                   10000000     kernel32:KERNEL32.dll
 0000:fffce000       .debug$S                   10000000     kernel32:KERNEL32.dll
 0000:fffce000       .debug$S                   10000000     kernel32:KERNEL32.dll
 0000:fffce000       .debug$S                   10000000     kernel32:KERNEL32.dll
 0000:fffce000       .debug$S                   10000000     kernel32:KERNEL32.dll
 0000:fffce000       .debug$S                   10000000     kernel32:KERNEL32.dll
 0000:fffce000       .debug$S                   10000000     kernel32:KERNEL32.dll
 0000:fffce000       .debug$S                   10000000     kernel32:KERNEL32.dll
 0000:fffce000       .debug$S                   10000000     kernel32:KERNEL32.dll
 0000:fffce000       .debug$S                   10000000     kernel32:KERNEL32.dll
 0000:fffce000       .debug$S                   10000000     kernel32:KERNEL32.dll
 0000:fffce000       .debug$S                   10000000     kernel32:KERNEL32.dll
 0000:fffce000       .debug$S                   10000000     kernel32:KERNEL32.dll
 0000:fffce000       .debug$S                   10000000     kernel32:KERNEL32.dll
 0000:fffce000       .debug$S                   10000000     kernel32:KERNEL32.dll
 0000:fffce000       .debug$S                   10000000     kernel32:KERNEL32.dll
 0000:fffce000       .debug$S                   10000000     kernel32:KERNEL32.dll
 0000:fffce000       .debug$S                   10000000     kernel32:KERNEL32.dll
 0000:fffce000       .debug$S                   10000000     kernel32:KERNEL32.dll
 0000:fffce000       .debug$S                   10000000     kernel32:KERNEL32.dll
 0000:fffce000       .debug$S                   10000000     kernel32:KERNEL32.dll
 0000:fffce000       .debug$S                   10000000     kernel32:KERNEL32.dll
 0000:fffce000       .debug$S                   10000000     kernel32:KERNEL32.dll
 0000:fffce000       .debug$S                   10000000     kernel32:KERNEL32.dll
 0000:fffce000       .debug$S                   10000000     kernel32:KERNEL32.dll
 0000:fffce000       .debug$S                   10000000     kernel32:KERNEL32.dll
 0000:fffce000       .debug$S                   10000000     kernel32:KERNEL32.dll
 0000:fffce000       .debug$S                   10000000     kernel32:KERNEL32.dll
 0000:fffce000       .debug$S                   10000000     kernel32:KERNEL32.dll
 0000:fffce000       .debug$S                   10000000     kernel32:KERNEL32.dll
 0000:fffce000       .debug$S                   10000000     kernel32:KERNEL32.dll
 0000:fffce000       .debug$S                   10000000     kernel32:KERNEL32.dll
 0000:fffce000       .debug$S                   10000000     kernel32:KERNEL32.dll
 0000:fffce000       .debug$S                   10000000     kernel32:KERNEL32.dll
 0000:fffce000       .debug$S                   10000000     kernel32:KERNEL32.dll
 0000:fffce000       .debug$S                   10000000     kernel32:KERNEL32.dll
 0000:fffce000       .debug$S                   10000000     kernel32:KERNEL32.dll
 0000:fffce000       .debug$S                   10000000     kernel32:KERNEL32.dll
 0000:fffce000       .debug$S                   10000000     kernel32:KERNEL32.dll
 0000:fffce000       .debug$S                   10000000     kernel32:KERNEL32.dll
 0000:fffce000       .debug$S                   10000000     kernel32:KERNEL32.dll
 0000:fffce000       .debug$S                   10000000     kernel32:KERNEL32.dll
 0000:fffce000       .debug$S                   10000000     kernel32:KERNEL32.dll
 0000:fffce000       .debug$S                   10000000     kernel32:KERNEL32.dll
 0000:fffce000       .debug$S                   10000000     kernel32:KERNEL32.dll
 0000:fffce000       .debug$S                   10000000     kernel32:KERNEL32.dll
 0000:fffce000       .debug$S                   10000000     kernel32:KERNEL32.dll
 0000:fffce000       .debug$S                   10000000     kernel32:KERNEL32.dll
 0000:fffce000       .debug$S                   10000000     kernel32:KERNEL32.dll
 0000:fffce000       .debug$S                   10000000     kernel32:KERNEL32.dll
 0000:fffce000       .debug$S                   10000000     kernel32:KERNEL32.dll
 0000:fffce000       .debug$S                   10000000     kernel32:KERNEL32.dll
 0000:fffce000       .debug$S                   10000000     kernel32:KERNEL32.dll
 0000:fffce000       .debug$S                   10000000     kernel32:KERNEL32.dll
 0000:fffce000       .debug$S                   10000000     kernel32:KERNEL32.dll
 0000:fffce000       .debug$S                   10000000     kernel32:KERNEL32.dll
 0000:fffce000       .debug$S                   10000000     kernel32:KERNEL32.dll
 0000:fffce000       .debug$S                   10000000     kernel32:KERNEL32.dll
 0000:fffce000       .debug$S                   10000000     kernel32:KERNEL32.dll
 0000:fffce000       .debug$S                   10000000     kernel32:KERNEL32.dll
 0000:fffce000       .debug$S                   10000000     kernel32:KERNEL32.dll
 0000:fffce000       .debug$S                   10000000     kernel32:KERNEL32.dll
 0000:fffce000       .debug$S                   10000000     kernel32:KERNEL32.dll
 0000:fffce000       .debug$S                   10000000     kernel32:KERNEL32.dll
 0000:fffce000       .debug$S                   10000000     kernel32:KERNEL32.dll
 0000:fffce000       .debug$S                   10000000     kernel32:KERNEL32.dll
 0000:fffce000       .debug$S                   10000000     kernel32:KERNEL32.dll
 0000:fffce000       .debug$S                   10000000     kernel32:KERNEL32.dll
 0000:fffce000       .debug$S                   10000000     ole32:ole32.dll
 0000:fffce000       .debug$S                   10000000     ole32:ole32.dll
 0000:fffce000       .debug$S                   10000000     ole32:ole32.dll
 0000:fffce000       .debug$S                   10000000     ole32:ole32.dll
 0000:fffce000       .debug$S                   10000000     ole32:ole32.dll
 0000:fffce000       .debug$S                   10000000     ole32:ole32.dll
 0000:fffce000       .debug$S                   10000000     ole32:ole32.dll
 0000:fffce000       .debug$S                   10000000     ole32:ole32.dll
 0000:fffce000       .debug$S                   10000000     ole32:ole32.dll
 0000:fffce000       .debug$S                   10000000     ole32:ole32.dll
 0000:fffce000       .debug$S                   10000000     ole32:ole32.dll
 0000:fffce000       .debug$S                   10000000     ole32:ole32.dll
 0000:fffce000       .debug$S                   10000000     ole32:ole32.dll
 0000:fffce000       .debug$S                   10000000     ole32:ole32.dll
 0000:fffce000       .debug$S                   10000000     oleaut32:OLEAUT32.dll
 0000:fffce000       .debug$S                   10000000     oleaut32:OLEAUT32.dll
 0000:fffce000       .debug$S                   10000000     oleaut32:OLEAUT32.dll
 0000:fffce000       .debug$S                   10000000     oleaut32:OLEAUT32.dll
 0000:fffce000       .debug$S                   10000000     oleaut32:OLEAUT32.dll
 0000:fffce000       .debug$S                   10000000     oleaut32:OLEAUT32.dll
 0000:fffce000       .debug$S                   10000000     oleaut32:OLEAUT32.dll
 0000:fffce000       .debug$S                   10000000     oleaut32:OLEAUT32.dll
 0000:fffce000       .debug$S                   10000000     oleaut32:OLEAUT32.dll
 0000:fffce000       .debug$S                   10000000     oleaut32:OLEAUT32.dll
 0000:fffce000       .debug$S                   10000000     oleaut32:OLEAUT32.dll
 0000:fffce000       .debug$S                   10000000     oleaut32:OLEAUT32.dll
 0000:fffce000       .debug$S                   10000000     oleaut32:OLEAUT32.dll
 0000:fffce000       .debug$S                   10000000     oleaut32:OLEAUT32.dll
 0000:fffce000       .debug$S                   10000000     oleaut32:OLEAUT32.dll
 0000:fffce000       .debug$S                   10000000     oleaut32:OLEAUT32.dll
 0000:fffce000       .debug$S                   10000000     user32:USER32.dll
 0000:fffce000       .debug$S                   10000000     user32:USER32.dll
 0000:fffce000       .debug$S                   10000000     user32:USER32.dll
 0000:fffce000       .debug$S                   10000000     user32:USER32.dll
 0000:fffce000       .debug$S                   10000000     user32:USER32.dll
 0000:fffce000       .debug$S                   10000000     user32:USER32.dll
 0000:fffce000       .debug$S                   10000000     user32:USER32.dll
 0000:fffce000       .debug$S                   10000000     user32:USER32.dll
 0000:fffce000       .debug$S                   10000000     user32:USER32.dll
 0000:fffce000       .debug$S                   10000000     user32:USER32.dll
 0000:fffce000       .debug$S                   10000000     user32:USER32.dll
 0000:fffce000       .debug$S                   10000000     user32:USER32.dll
 0000:fffce000       .debug$S                   10000000     user32:USER32.dll
 0000:fffce000       .debug$S                   10000000     user32:USER32.dll
 0000:fffce000       .debug$S                   10000000     user32:USER32.dll
 0000:fffce000       .debug$S                   10000000     user32:USER32.dll
 0000:fffce000       .debug$S                   10000000     user32:USER32.dll
 0000:fffce000       .debug$S                   10000000     user32:USER32.dll
 0000:fffce000       .debug$S                   10000000     user32:USER32.dll
 0000:fffce000       .debug$S                   10000000     user32:USER32.dll
 0000:fffce000       .debug$S                   10000000     user32:USER32.dll
 0000:fffce000       .debug$S                   10000000     user32:USER32.dll
 0000:fffce000       .debug$S                   10000000     user32:USER32.dll
 0000:fffce000       .debug$S                   10000000     user32:USER32.dll
 0000:fffce000       .debug$S                   10000000     user32:USER32.dll
 0000:fffce000       .debug$S                   10000000     user32:USER32.dll
 0000:fffce000       .debug$S                   10000000     user32:USER32.dll
 0000:fffce000       .debug$S                   10000000     user32:USER32.dll
 0000:fffce000       .debug$S                   10000000     user32:USER32.dll
 0000:fffce000       .debug$S                   10000000     user32:USER32.dll
 0000:fffce000       .debug$S                   10000000     user32:USER32.dll
 0000:fffce000       .debug$S                   10000000     user32:USER32.dll
 0000:fffce000       .debug$S                   10000000     user32:USER32.dll
 0000:fffce000       .debug$S                   10000000     user32:USER32.dll
 0000:fffce000       .debug$S                   10000000     user32:USER32.dll
 0001:00000000       ??__E_AtlComModule@ATL@@YAXXZ 10001000 f   OposVariant.obj
 0001:00000016       ??__E_AtlWinModule@ATL@@YAXXZ 10001016 f   OposVariant.obj
 0001:0000002c       ??__E?pConnMap@?$IConnectionPointContainerImpl@VCOPOSCheckScanner@@@ATL@@0PBU_ATL_CONNMAP_ENTRY@2@B@@YAXXZ 1000102c f   CheckScanner.obj
 0001:0000003a       ??__E_Module@@YAXXZ        1000103a f   CheckScanner.obj
 0001:00000064       ??__E_AtlBaseModule@ATL@@YAXXZ 10001064 f   atls:atlbase.obj
 0001:00000c46       $LN24                      10001c46     CheckScanner.obj
 0001:000058b6       $LN47                      100068b6     CheckScanner.obj
 0001:000058ce       $LN46                      100068ce     CheckScanner.obj
 0001:00007a9b       $LN37                      10008a9b     CheckScanner.obj
 0001:00007ab3       $LN36                      10008ab3     CheckScanner.obj
 0001:0000918f       $LN76                      1000a18f     CheckScanner.obj
 0001:000091a7       $LN75                      1000a1a7     CheckScanner.obj
 0001:00009560       _memcpy_s                  1000a560 f   CheckScanner.obj
 0001:0000b80c       ?find_pe_section@@YAPAU_IMAGE_SECTION_HEADER@@QAEI@Z 1000c80c f   LIBCMT:utility.obj
 0001:0000bb2b       ?__scrt_initialize_thread_safe_statics@@YAHXZ 1000cb2b f   LIBCMT:thread_safe_statics.obj
 0001:0000bb52       ?__scrt_initialize_thread_safe_statics_platform_specific@@YAXXZ 1000cb52 f   LIBCMT:thread_safe_statics.obj
 0001:0000bbd4       ?__scrt_uninitialize_thread_safe_statics@@YAXXZ 1000cbd4 f   LIBCMT:thread_safe_statics.obj
 0001:0000bf43       __catch$??2@YAPAXIABUnothrow_t@std@@@Z$0 1000cf43 f   LIBCMT:new_scalar_nothrow.obj
 0001:0000bf80       $$000000                   1000cf80     LIBCMT:sehprolg4gs.obj
 0001:0000bfe0       $$000000                   1000cfe0     LIBCMT:alloca16.obj
 0001:0000c010       $$000000                   1000d010     LIBCMT:chkstk.obj
 0001:0000c03d       ?dllmain_crt_dispatch@@YGHQAUHINSTANCE__@@KQAX@Z 1000d03d f   LIBCMT:dll_dllmain.obj
 0001:0000c090       ?dllmain_crt_process_attach@@YAHQAUHINSTANCE__@@QAX@Z 1000d090 f   LIBCMT:dll_dllmain.obj
 0001:0000c197       ?dllmain_crt_process_detach@@YAH_N@Z 1000d197 f   LIBCMT:dll_dllmain.obj
 0001:0000c247       ?dllmain_dispatch@@YAHQAUHINSTANCE__@@KQAX@Z 1000d247 f   LIBCMT:dll_dllmain.obj
 0001:0000c34d       ?dllmain_raw@@YGHQAUHINSTANCE__@@KQAX@Z 1000d34d f   LIBCMT:dll_dllmain.obj
 0001:0000c6d0       $$000000                   1000d6d0     LIBCMT:sehprolg4.obj
 0001:0000c72c       ___get_entropy             1000d72c f   LIBCMT:gs_support.obj
 0001:0000ca23       ??$GetProcAddressAll@P6GP6GJPAUHWND__@@IIJ@ZPAUAtlThunkData_t@@@Z@@YAP6GP6GJPAUHWND__@@IIJ@ZPAUAtlThunkData_t@@@ZPAP6GP6GJ0IIJ@Z1@Z@Z 1000da23 f   atls:atlthunk.obj
 0001:0000ca23       ??$GetProcAddressAll@P6GPAUAtlThunkData_t@@XZ@@YAP6GPAUAtlThunkData_t@@XZPAP6GPAU0@XZ@Z 1000da23 f   atls:atlthunk.obj
 0001:0000ca23       ??$GetProcAddressAll@P6GXPAUAtlThunkData_t@@@Z@@YAP6GXPAUAtlThunkData_t@@@ZPAP6GX0@Z@Z 1000da23 f   atls:atlthunk.obj
 0001:0000ca23       ??$GetProcAddressAll@P6GXPAUAtlThunkData_t@@PAXI@Z@@YAP6GXPAUAtlThunkData_t@@PAXI@ZPAP6GX01I@Z@Z 1000da23 f   atls:atlthunk.obj
 0001:0000cad3       ?GetProcAddressSingle@@YA_NPAUHINSTANCE__@@PBDPAPAX@Z 1000dad3 f   atls:atlthunk.obj
 0001:0000cc25       ?__InitializeThunkPool@@YAHXZ 1000dc25 f   atls:atlthunk.obj
 0001:0000d080       _ValidateLocalCookies      1000e080 f   libvcruntime:chandler4.obj
 0001:0000e142       $LN1241                    1000f142     libvcruntime:memcmp.obj
 0001:0000e1d0       $$000000                   1000f1d0     libvcruntime:memcpy.obj
 0001:0000e434       TrailingUpVec              1000f434     libvcruntime:memcpy.obj
 0001:0000e4e0       TrailingDownVec            1000f4e0     libvcruntime:memcpy.obj
 0001:0000e750       $$000000                   1000f750     libvcruntime:memset.obj
 0001:0000ed53       ?_FilterSetCurrentException@@YAKPAU_EXCEPTION_POINTERS@@E@Z 1000fd53 f   libvcruntime:ehhelpers.obj
 0001:0000efa0       $$000000                   1000ffa0     libvcruntime:memmove.obj
 0001:0000f204       TrailingUpVec              10010204     libvcruntime:memmove.obj
 0001:0000f2b0       TrailingDownVec            100102b0     libvcruntime:memmove.obj
 0001:0000f520       $$000000                   10010520     libvcruntime:exsup4.obj
 0001:0000f5b0       __unwind_handler4          100105b0 f   libvcruntime:exsup4.obj
 0001:0000f88f       ??$BuildCatchObjectHelperInternal@V__FrameHandler3@@@@YAHPAUEHExceptionRecord@@PAXPBU_s_HandlerType@@PBU_s_CatchableType@@@Z 1001088f f   libvcruntime:frame.obj
 0001:0000f9cd       ??$BuildCatchObjectInternal@V__FrameHandler3@@@@YAXPAUEHExceptionRecord@@PAXPBU_s_HandlerType@@PBU_s_CatchableType@@@Z 100109cd f   libvcruntime:frame.obj
 0001:0000fa66       ??$CatchIt@V__FrameHandler3@@@@YAXPAUEHExceptionRecord@@PAUEHRegistrationNode@@PAU_CONTEXT@@PAXPBU_s_FuncInfo@@PBU_s_HandlerType@@PBU_s_CatchableType@@PBU_s_TryBlockMapEntry@@H1EE@Z 10010a66 f   libvcruntime:frame.obj
 0001:0000fae6       ??$FindHandler@V__FrameHandler3@@@@YAXPAUEHExceptionRecord@@PAUEHRegistrationNode@@PAU_CONTEXT@@PAXPBU_s_FuncInfo@@EH1@Z 10010ae6 f   libvcruntime:frame.obj
 0001:0000fe9c       ??$FindHandlerForForeignException@V__FrameHandler3@@@@YAXPAUEHExceptionRecord@@PAUEHRegistrationNode@@PAU_CONTEXT@@PAXPBU_s_FuncInfo@@HH1@Z 10010e9c f   libvcruntime:frame.obj
 0001:000101b4       ?CallCatchBlock@@YAPAXPAUEHExceptionRecord@@PAUEHRegistrationNode@@PAU_CONTEXT@@PBU_s_FuncInfo@@PAXHK@Z 100111b4 f   libvcruntime:frame.obj
 0001:00010378       ?CallUnexpected@@YAXPBU_s_ESTypeList@@@Z 10011378 f   libvcruntime:frame.obj
 0001:00010398       __catch$?CallUnexpected@@YAXPBU_s_ESTypeList@@@Z$0 10011398 f   libvcruntime:frame.obj
 0001:000103b2       ?ExFilterRethrow@@YAHPAU_EXCEPTION_POINTERS@@@Z 100113b2 f   libvcruntime:frame.obj
 0001:000104fc       ?IsInExceptionSpec@@YAEPAUEHExceptionRecord@@PBU_s_ESTypeList@@@Z 100114fc f   libvcruntime:frame.obj
 0001:000105d0       $$000000                   100115d0     libvcruntime:lowhelpr.obj
 0001:00010620       $$000000                   10011620     libvcruntime:exsup.obj
 0001:00010641       __unwind_handler           10011641 f   libvcruntime:exsup.obj
 0001:0001075e       ?try_get_first_available_module@@YAPAUHINSTANCE__@@QBW4module_id@?A0x1172487b@@0@Z 1001175e f   libvcruntime:winapi_downlevel.obj
 0001:0001080a       ?try_get_function@@YAPAXW4function_id@?A0x1172487b@@QBDQBW4module_id@2@2@Z 1001180a f   libvcruntime:winapi_downlevel.obj
 0001:00010e94       ??$common_tcsncpy_s@_W@@YAHQA_WIQB_WI@Z 10011e94 f   libucrt:wcsncpy_s.obj
 0001:00010f6a       ??$common_vsprintf@Vformat_validation_base@__crt_stdio_output@@_W@@YAH_KQA_WIQB_WQAU__crt_locale_pointers@@QAD@Z 10011f6a f   libucrt:output.obj
 0001:000110f1       ??$common_vsprintf_s@_W@@YAH_KQA_WIQB_WQAU__crt_locale_pointers@@QAD@Z 100120f1 f   libucrt:output.obj
 0001:00011820       $LN51                      10012820     libucrt:output.obj
 0001:00011d1b       $LN20                      10012d1b     libucrt:output.obj
 0001:00011d2f       $LN17                      10012d2f     libucrt:output.obj
 0001:0001258e       ??$?RV<lambda_03b1d95aef87969028cfba75ccab2455>@@AAV<lambda_6e4b09c48022b2350581041d5f6b0c4c>@@V<lambda_22bdf7517842c4b3e53723af5aa32b9e>@@@?$__crt_seh_guarded_call@X@@QAEX$$QAV<lambda_03b1d95aef87969028cfba75ccab2455>@@AAV<lambda_6e4b09c48022b2350581041d5f6b0c4c>@@$$QAV<lambda_22bdf7517842c4b3e53723af5aa32b9e>@@@Z 1001358e f   libucrt:exit.obj
 0001:000125db       ??R<lambda_6e4b09c48022b2350581041d5f6b0c4c>@@QBE@XZ 100135db f   libucrt:exit.obj
 0001:000126b5       ?atexit_exception_filter@@YAHK@Z 100136b5 f   libucrt:exit.obj
 0001:000126c8       ?common_exit@@YAXHW4_crt_exit_cleanup_mode@@W4_crt_exit_return_mode@@@Z 100136c8 f   libucrt:exit.obj
 0001:0001272c       ?exit_or_terminate_process@@YAXI@Z 1001372c f   libucrt:exit.obj
 0001:0001276e       ?is_managed_app@@YA_NXZ    1001376e f   libucrt:exit.obj
 0001:000127b1       ?try_cor_exit_process@@YAXI@Z 100137b1 f   libucrt:exit.obj
 0001:0001283f       ??$common_configure_argv@D@@YAHW4_crt_argv_mode@@@Z 1001383f f   libucrt:argv_parsing.obj
 0001:00012975       ??$parse_command_line@D@@YAXPADPAPAD0PAI2@Z 10013975 f   libucrt:argv_parsing.obj
 0001:00012b46       ??$common_initialize_environment_nolock@D@@YAHXZ 10013b46 f   libucrt:environment_initialization.obj
 0001:00012b99       ??$create_environment@D@@YAQAPADQAD@Z 10013b99 f   libucrt:environment_initialization.obj
 0001:00012c69       ??$free_environment@D@@YAXQAPAD@Z 10013c69 f   libucrt:environment_initialization.obj
 0001:00012c69       ??$free_environment@_W@@YAXQAPA_W@Z 10013c69 f   libucrt:environment_initialization.obj
 0001:00012cc1       ??$uninitialize_environment_internal@D@@YAXAAPAPAD@Z 10013cc1 f   libucrt:environment_initialization.obj
 0001:00012cdc       ??$uninitialize_environment_internal@_W@@YAXAAPAPA_W@Z 10013cdc f   libucrt:environment_initialization.obj
 0001:00012d33       ??$?RV<lambda_69a2805e680e0e292e8ba93315fe43a8>@@AAV<lambda_f03950bc5685219e0bcd2087efbe011e>@@V<lambda_03fcd07e894ec930e3f35da366ca99d6>@@@?$__crt_seh_guarded_call@H@@QAEH$$QAV<lambda_69a2805e680e0e292e8ba93315fe43a8>@@AAV<lambda_f03950bc5685219e0bcd2087efbe011e>@@$$QAV<lambda_03fcd07e894ec930e3f35da366ca99d6>@@@Z 10013d33 f   libucrt:onexit.obj
 0001:00012d8e       ??$?RV<lambda_8e746cf0007f6ed984d6f78af1fec997>@@AAV<lambda_22ebabd17bc4fa466a2aca6d8deb888d>@@V<lambda_18ed0c0b38a6dc0daf1e7ac6d6adf05e>@@@?$__crt_seh_guarded_call@H@@QAEH$$QAV<lambda_8e746cf0007f6ed984d6f78af1fec997>@@AAV<lambda_22ebabd17bc4fa466a2aca6d8deb888d>@@$$QAV<lambda_18ed0c0b38a6dc0daf1e7ac6d6adf05e>@@@Z 10013d8e f   libucrt:onexit.obj
 0001:00012e08       ??R<lambda_22ebabd17bc4fa466a2aca6d8deb888d>@@QBEHXZ 10013e08 f   libucrt:onexit.obj
 0001:00012f31       ??R<lambda_f03950bc5685219e0bcd2087efbe011e>@@QBEHXZ 10013f31 f   libucrt:onexit.obj
 0001:000130aa       _initialize_environment    100140aa f   libucrt:initialization.obj
 0001:000130aa       _initialize_global_state_isolation 100140aa f   libucrt:initialization.obj
 0001:000130aa       _report_memory_leaks       100140aa f   libucrt:initialization.obj
 0001:000130aa       _uninitialize_c            100140aa f   libucrt:initialization.obj
 0001:000130aa       _uninitialize_global_state_isolation 100140aa f   libucrt:initialization.obj
 0001:000130ad       _initialize_global_variables 100140ad f   libucrt:initialization.obj
 0001:000130ba       _initialize_c              100140ba f   libucrt:initialization.obj
 0001:000130d4       _uninitialize_environment  100140d4 f   libucrt:initialization.obj
 0001:000130dc       _initialize_pointers       100140dc f   libucrt:initialization.obj
 0001:0001310a       _uninitialize_vcruntime    1001410a f   libucrt:initialization.obj
 0001:00013113       _uninitialize_allocated_memory 10014113 f   libucrt:initialization.obj
 0001:0001312a       _uninitialize_allocated_io_buffers 1001412a f   libucrt:initialization.obj
 0001:0001317a       ??R<lambda_af42a3ee9806e9a7305d451646e05244>@@QBEXAAPAU__crt_multibyte_data@@@Z 1001417a f   libucrt:initialization.obj
 0001:00013a60       $$000000                   10014a60     libucrt:strncmp.obj
 0001:00013b4c       ??$?RV<lambda_15ade71b0218206bbe3333a0c9b79046>@@AAV<lambda_da44e0f8b0f19ba52fefafb335991732>@@V<lambda_207f2d024fc103971653565357d6cd41>@@@?$__crt_seh_guarded_call@X@@QAEX$$QAV<lambda_15ade71b0218206bbe3333a0c9b79046>@@AAV<lambda_da44e0f8b0f19ba52fefafb335991732>@@$$QAV<lambda_207f2d024fc103971653565357d6cd41>@@@Z 10014b4c f   libucrt:per_thread_data.obj
 0001:00013b9e       ??$?RV<lambda_38edbb1296d33220d7e4dd0ed76b244a>@@AAV<lambda_5ce1d447e08cb34b2473517608e21441>@@V<lambda_fb385d3da700c9147fc39e65dd577a8c>@@@?$__crt_seh_guarded_call@X@@QAEX$$QAV<lambda_38edbb1296d33220d7e4dd0ed76b244a>@@AAV<lambda_5ce1d447e08cb34b2473517608e21441>@@$$QAV<lambda_fb385d3da700c9147fc39e65dd577a8c>@@@Z 10014b9e f   libucrt:per_thread_data.obj
 0001:00013c09       ??$?RV<lambda_6affb1475c98b40b75cdec977db92e3c>@@AAV<lambda_b8d4b9c228a6ecc3f80208dbb4b4a104>@@V<lambda_608742c3c92a14382c1684fc64f96c88>@@@?$__crt_seh_guarded_call@X@@QAEX$$QAV<lambda_6affb1475c98b40b75cdec977db92e3c>@@AAV<lambda_b8d4b9c228a6ecc3f80208dbb4b4a104>@@$$QAV<lambda_608742c3c92a14382c1684fc64f96c88>@@@Z 10014c09 f   libucrt:per_thread_data.obj
 0001:00013c5e       ??$?RV<lambda_a7e850c220f1c8d1e6efeecdedd162c6>@@AAV<lambda_46720907175c18b6c9d2717bc0d2d362>@@V<lambda_9048902d66e8d99359bc9897bbb930a8>@@@?$__crt_seh_guarded_call@X@@QAEX$$QAV<lambda_a7e850c220f1c8d1e6efeecdedd162c6>@@AAV<lambda_46720907175c18b6c9d2717bc0d2d362>@@$$QAV<lambda_9048902d66e8d99359bc9897bbb930a8>@@@Z 10014c5e f   libucrt:per_thread_data.obj
 0001:00013cb8       ?construct_ptd@@YAXQAU__acrt_ptd@@QAPAU__crt_locale_data@@@Z 10014cb8 f   libucrt:per_thread_data.obj
 0001:00013d51       ?destroy_fls@@YGXPAX@Z     10014d51 f   libucrt:per_thread_data.obj
 0001:00013d72       ?destroy_ptd@@YAXQAU__acrt_ptd@@@Z 10014d72 f   libucrt:per_thread_data.obj
 0001:00013e3f       ?replace_current_thread_locale_nolock@@YAXQAU__acrt_ptd@@QAU__crt_locale_data@@@Z 10014e3f f   libucrt:per_thread_data.obj
 0001:0001424f       ?try_get_AreFileApisANSI@@YAP6GHXZXZ 1001524f f   libucrt:winapi_thunks.obj
 0001:00014269       ?try_get_LCMapStringEx@@YAP6GHPB_WK0HPA_WHPAU_nlsversioninfo@@PAXJ@ZXZ 10015269 f   libucrt:winapi_thunks.obj
 0001:00014283       ?try_get_LocaleNameToLCID@@YAP6GKPB_WK@ZXZ 10015283 f   libucrt:winapi_thunks.obj
 0001:0001429d       ?try_get_first_available_module@@YAPAUHINSTANCE__@@QBW4module_id@?A0x391cf84c@@0@Z 1001529d f   libucrt:winapi_thunks.obj
 0001:00014364       ?try_get_function@@YAPAXW4function_id@?A0x391cf84c@@QBDQBW4module_id@2@2@Z 10015364 f   libucrt:winapi_thunks.obj
 0001:00014ac7       ?fp_format_a@@YAHQBNPADIQADIH_NIQAU__crt_locale_pointers@@@Z 10015ac7 f   libucrt:cvt.obj
 0001:00014de0       ?fp_format_e@@YAHQBNQADI1IH_NIQAU__crt_locale_pointers@@@Z 10015de0 f   libucrt:cvt.obj
 0001:00014e82       ?fp_format_e_internal@@YAHQADIH_NIQAU_strflt@@1QAU__crt_locale_pointers@@@Z 10015e82 f   libucrt:cvt.obj
 0001:00014fca       ?fp_format_f@@YAHQBNQADI1IHQAU__crt_locale_pointers@@@Z 10015fca f   libucrt:cvt.obj
 0001:00015055       ?fp_format_f_internal@@YAHQADIHQAU_strflt@@_NQAU__crt_locale_pointers@@@Z 10016055 f   libucrt:cvt.obj
 0001:00015126       ?fp_format_g@@YAHQBNQADI1IH_NIQAU__crt_locale_pointers@@@Z 10016126 f   libucrt:cvt.obj
 0001:000151e7       ?fp_format_nan_or_infinity@@YAHW4__acrt_fp_class@@_NPADI1@Z 100161e7 f   libucrt:cvt.obj
 0001:0001527c       ?shift_bytes@@YAXQADI0H@Z  1001627c f   libucrt:cvt.obj
 0001:00015563       ??$?RV<lambda_e5124f882df8998aaf41531e079ba474>@@AAV<lambda_3e16ef9562a7dcce91392c22ab16ea36>@@V<lambda_e25ca0880e6ef98be67edffd8c599615>@@@?$__crt_seh_guarded_call@X@@QAEX$$QAV<lambda_e5124f882df8998aaf41531e079ba474>@@AAV<lambda_3e16ef9562a7dcce91392c22ab16ea36>@@$$QAV<lambda_e25ca0880e6ef98be67edffd8c599615>@@@Z 10016563 f   libucrt:wsetlocale.obj
 0001:00015603       ?initialize_inherited_file_handles_nolock@@YAXXZ 10016603 f   libucrt:ioinit.obj
 0001:000156b9       ?initialize_stdio_handles_nolock@@YAXXZ 100166b9 f   libucrt:ioinit.obj
 0001:000158ca       ?<lambda_invoker_cdecl>@<lambda_838c7f62c73c983481e27c09e84b0b5d>@@CAHPBX0@Z 100168ca f   libucrt:argv_wildcards.obj
 0001:000158e2       ??$__acrt_convert_wcs_mbs_cp@D_WV<lambda_62f6974d9771e494a5ea317cc32e971c>@@U__crt_win32_buffer_internal_dynamic_resizing@@@@YAHQBDAAV?$__crt_win32_buffer@_WU__crt_win32_buffer_internal_dynamic_resizing@@@@ABV<lambda_62f6974d9771e494a5ea317cc32e971c>@@I@Z 100168e2 f   libucrt:argv_wildcards.obj
 0001:00015994       ??$__acrt_convert_wcs_mbs_cp@_WDV<lambda_28bda7af82a03b66c1cb3803a755f95d>@@U__crt_win32_buffer_internal_dynamic_resizing@@@@YAHQB_WAAV?$__crt_win32_buffer@DU__crt_win32_buffer_internal_dynamic_resizing@@@@ABV<lambda_28bda7af82a03b66c1cb3803a755f95d>@@I@Z 10016994 f   libucrt:argv_wildcards.obj
 0001:00015a80       ??$common_expand_argv_wildcards@D@@YAHQAPADQAPAPAD@Z 10016a80 f   libucrt:argv_wildcards.obj
 0001:00015c6f       ??$copy_and_add_argument_to_buffer@D@@YAHQBD0IAAV?$argument_list@D@?A0x5f5c8891@@@Z 10016c6f f   libucrt:argv_wildcards.obj
 0001:00015d20       ??$expand_argument_wildcards@D@@YAHQAD0AAV?$argument_list@D@?A0x5f5c8891@@@Z 10016d20 f   libucrt:argv_wildcards.obj
 0001:0001606a       ?expand_if_necessary@?$argument_list@D@?A0x5f5c8891@@AAEHXZ 1001706a f   libucrt:argv_wildcards.obj
 0001:000160fc       ??$__acrt_convert_wcs_mbs_cp@_WDV<lambda_0fec1a7b3f42a53036604e18c2d5e07e>@@U__crt_win32_buffer_no_resizing@@@@YAHQB_WAAV?$__crt_win32_buffer@DU__crt_win32_buffer_no_resizing@@@@ABV<lambda_0fec1a7b3f42a53036604e18c2d5e07e>@@I@Z 100170fc f   libucrt:getmodulefilenamea.obj
 0001:0001629f       ??$?RV<lambda_ceb1ee4838e85a9d631eb091e2fbe199>@@AAV<lambda_ae742caa10f662c28703da3d2ea5e57e>@@V<lambda_cd08b5d6af4937fe54fc07d0c9bf6b37>@@@?$__crt_seh_guarded_call@X@@QAEX$$QAV<lambda_ceb1ee4838e85a9d631eb091e2fbe199>@@AAV<lambda_ae742caa10f662c28703da3d2ea5e57e>@@$$QAV<lambda_cd08b5d6af4937fe54fc07d0c9bf6b37>@@@Z 1001729f f   libucrt:mbctype.obj
 0001:000162ec       ??R<lambda_ae742caa10f662c28703da3d2ea5e57e>@@QBEXXZ 100172ec f   libucrt:mbctype.obj
 0001:0001636f       ?CPtoLocaleName@@YAPB_WH@Z 1001736f f   libucrt:mbctype.obj
 0001:000163ad       ?getSystemCP@@YAHH@Z       100173ad f   libucrt:mbctype.obj
 0001:0001641e       ?setSBCS@@YAXPAU__crt_multibyte_data@@@Z 1001741e f   libucrt:mbctype.obj
 0001:00016483       ?setSBUpLow@@YAXPAU__crt_multibyte_data@@@Z 10017483 f   libucrt:mbctype.obj
 0001:00016604       ?setmbcp_internal@@YAHH_NQAU__acrt_ptd@@QAPAU__crt_multibyte_data@@@Z 10017604 f   libucrt:mbctype.obj
 0001:0001671d       ?update_thread_multibyte_data_internal@@YAPAU__crt_multibyte_data@@QAU__acrt_ptd@@QAPAU1@@Z 1001771d f   libucrt:mbctype.obj
 0001:00016a0b       _memcpy_s                  10017a0b f   libucrt:cfout.obj
 0001:00016a0b       _memcpy_s                  10017a0b f   libucrt:mbctype.obj
 0001:00016a8c       ?x_ismbbtype_l@@YAHPAU__crt_locale_pointers@@IHH@Z 10017a8c f   libucrt:ismbbyte.obj
 0001:00016c3d       ?find_end_of_double_null_terminated_sequence@@YAPB_WQB_W@Z 10017c3d f   libucrt:get_environment_from_os.obj
 0001:00016dac       ??$?RV<lambda_cbab9ec6f41b0180b23cc171c22676b0>@@AAV<lambda_44731a7d0e6d81c3e6aa82d741081786>@@V<lambda_4b292cb8dd18144e164572427af410ab>@@@?$__crt_seh_guarded_call@P6AXH@Z@@QAEP6AXH@Z$$QAV<lambda_cbab9ec6f41b0180b23cc171c22676b0>@@AAV<lambda_44731a7d0e6d81c3e6aa82d741081786>@@$$QAV<lambda_4b292cb8dd18144e164572427af410ab>@@@Z 10017dac f   libucrt:signal.obj
 0001:00016e10       ?get_global_action_nolock@@YAPAP6AXH@ZH@Z 10017e10 f   libucrt:signal.obj
 0001:00016e52       ?siglookup@@YAPAU__crt_signal_action_t@@HQAU1@@Z 10017e52 f   libucrt:signal.obj
 0001:0001711c       ??$?RV<lambda_2866be3712abc81a800a822484c830d8>@@AAV<lambda_39ca0ed439415581b5b15c265174cece>@@V<lambda_2b24c74d71094a6cd0cb82e44167d71b>@@@?$__crt_seh_guarded_call@X@@QAEX$$QAV<lambda_2866be3712abc81a800a822484c830d8>@@AAV<lambda_39ca0ed439415581b5b15c265174cece>@@$$QAV<lambda_2b24c74d71094a6cd0cb82e44167d71b>@@@Z 1001811c f   libucrt:fflush.obj
 0001:000171a8       ??$?RV<lambda_2cc53f568c5a2bb6f192f930a45d44ea>@@AAV<lambda_ab61a845afdef5b7c387490eaf3616ee>@@V<lambda_c2ffc0b7726aa6be21d5f0026187e748>@@@?$__crt_seh_guarded_call@X@@QAEX$$QAV<lambda_2cc53f568c5a2bb6f192f930a45d44ea>@@AAV<lambda_ab61a845afdef5b7c387490eaf3616ee>@@$$QAV<lambda_c2ffc0b7726aa6be21d5f0026187e748>@@@Z 100181a8 f   libucrt:fflush.obj
 0001:00017254       ?common_flush_all@@YAH_N@Z 10018254 f   libucrt:fflush.obj
 0001:000172a1       ?common_flush_all_should_try_to_flush_stream@@YA_NV__crt_stdio_stream@@QAH@Z 100182a1 f   libucrt:fflush.obj
 0001:000172d4       ?is_stream_flushable_or_commitable@@YA_NJ@Z 100182d4 f   libucrt:fflush.obj
 0001:000177dd       ?GetTableIndexFromLocaleName@@YAHPB_W@Z 100187dd f   libucrt:lcidtoname_downlevel.obj
 0001:00017893       ??R<lambda_3d301b9e52f5099be73030e1f0bf487e>@@QBEIPBD@Z 10018893 f   libucrt:mbrtowc.obj
 0001:0001956a       ?free_crt_array_internal@@YAXQAPBXI@Z 1001a56a f   libucrt:inittime.obj
 0001:00019a40       ?swap@@YAXPAD0I@Z          1001aa40 f   libucrt:qsort.obj
 0001:00019ec4       ??$common_tcsncpy_s@D@@YAHQADIQBDI@Z 1001aec4 f   libucrt:strncpy_s.obj
 0001:00019f90       $$000000                   1001af90     libucrt:strpbrk.obj
 0001:0001a074       ?__acrt_LCMapStringA_stat@@YAHPAU__crt_locale_pointers@@PB_WKPBDHPADHHH@Z 1001b074 f   libucrt:lcmapstringa.obj
 0001:0001a2a7       ?initialize_multibyte@@YAHXZ 1001b2a7 f   libucrt:multibyte_initializer.obj
 0001:0001a2b6       ??$?RV<lambda_9e9de3de5fa147e2223d7db92bc10aa6>@@AAV<lambda_38ce7e780aa69e748d6df282ebc68efe>@@V<lambda_8ca6da459f0f6780f1cff60fdc3d00e5>@@@?$__crt_seh_guarded_call@H@@QAEH$$QAV<lambda_9e9de3de5fa147e2223d7db92bc10aa6>@@AAV<lambda_38ce7e780aa69e748d6df282ebc68efe>@@$$QAV<lambda_8ca6da459f0f6780f1cff60fdc3d00e5>@@@Z 1001b2b6 f   libucrt:commit.obj
 0001:0001a3d5       ?write_double_translated_ansi_nolock@@YA?AUwrite_result@?A0x17268360@@HQBDI@Z 1001b3d5 f   libucrt:write.obj
 0001:0001a77f       ?write_double_translated_unicode_nolock@@YA?AUwrite_result@?A0x17268360@@QBDI@Z 1001b77f f   libucrt:write.obj
 0001:0001a7e7       ?write_requires_double_translation_nolock@@YA_NH@Z 1001b7e7 f   libucrt:write.obj
 0001:0001a858       ?write_text_ansi_nolock@@YA?AUwrite_result@?A0x17268360@@HQBDI@Z 1001b858 f   libucrt:write.obj
 0001:0001a933       ?write_text_utf16le_nolock@@YA?AUwrite_result@?A0x17268360@@HQBDI@Z 1001b933 f   libucrt:write.obj
 0001:0001aa1c       ?write_text_utf8_nolock@@YA?AUwrite_result@?A0x17268360@@HQBDI@Z 1001ba1c f   libucrt:write.obj
 0001:0001b0f0       $$000000                   1001c0f0     libucrt:log10_impl.obj
 0001:0001b200       $$000000                   1001c200     libucrt:ceil_pentium4.obj
 0001:0001b31d       ??$common_lseek_nolock@_J@@YA_JH_JH@Z 1001c31d f   libucrt:lseek.obj
 0001:0001b503       ?to_abstract_control@@YA?AW4__acrt_fenv_abstract_control@@W4__acrt_fenv_machine_sse_control@@@Z 1001c503 f   libucrt:_fenvutils.obj
 0001:0001b5bf       ?to_abstract_control@@YA?AW4__acrt_fenv_abstract_control@@W4__acrt_fenv_machine_x87_control@@@Z 1001c5bf f   libucrt:_fenvutils.obj
 0001:0001b678       ?to_machine_sse_control@@YA?AW4__acrt_fenv_machine_sse_control@@W4__acrt_fenv_abstract_control@@@Z 1001c678 f   libucrt:_fenvutils.obj
 0001:0001b745       ?to_machine_x87_control@@YA?AW4__acrt_fenv_machine_x87_control@@W4__acrt_fenv_abstract_control@@@Z 1001c745 f   libucrt:_fenvutils.obj
 0001:0001bba0       $$000000                   1001cba0     libucrt:log10_pentium4.obj
 0001:0001be30       $$000000                   1001ce30     libucrt:87tran.obj
 0001:0001c040       $$000000                   1001d040     libucrt:87disp.obj
 0001:0001c2a0       $$000000                   1001d2a0     libucrt:common.obj
 0001:0001c430       $$000000                   1001d430     libucrt:genexcep.obj
 0001:0001c72c       ??$?RV<lambda_218ce3db14220d0be481dae8ef3383b6>@@AAV<lambda_628dfdc04ba53c8bfc02c9951375f3f5>@@V<lambda_57dc472bd5c9d5f3b2cbca59b8a843ae>@@@?$__crt_seh_guarded_call@H@@QAEH$$QAV<lambda_218ce3db14220d0be481dae8ef3383b6>@@AAV<lambda_628dfdc04ba53c8bfc02c9951375f3f5>@@$$QAV<lambda_57dc472bd5c9d5f3b2cbca59b8a843ae>@@@Z 1001d72c f   libucrt:close.obj
 0001:0001c920       $$000000                   1001d920     libucrt:_strnicm.obj
 0001:0001c981       ?__dcrt_lowio_initialize_console_output@@YAXXZ 1001d981 f   libucrt:initcon.obj
 0001:0001d7e0       $$000000                   1001e7e0     LIBCMT:ulldvrm.obj
 0001:0001d880       $$000000                   1001e880     LIBCMT:llmul.obj
 0001:0001d8c0       $$000000                   1001e8c0     LIBCMT:lldvrm.obj
 0001:0001d9a0       $$000000                   1001e9a0     LIBCMT:ullshr.obj
 0001:0001d9c0       $$000000                   1001e9c0     LIBCMT:llshl.obj
 0001:0001d9e0       $$000000                   1001e9e0     LIBCMT:ftol2.obj
 0001:0001dc80       $$000000                   1001ec80     libvcruntime:strrchr.obj
 0001:0001ddc0       $$000000                   1001edc0     libvcruntime:strchr.obj
 0001:0001df63       __ehhandler$??2@YAPAXIABUnothrow_t@std@@@Z 1001ef63 f   LIBCMT:new_scalar_nothrow.obj
 0001:0001df7e       __ehhandler$?CallUnexpected@@YAXPBU_s_ESTypeList@@@Z 1001ef7e f   libvcruntime:frame.obj
 0001:0001df99       ??__F_AtlComModule@ATL@@YAXXZ 1001ef99 f   OposVariant.obj
 0001:0001dfa3       ??__F_AtlWinModule@ATL@@YAXXZ 1001efa3 f   OposVariant.obj
 0001:0001dfbd       ??__F_Module@@YAXXZ        1001efbd f   CheckScanner.obj
 0001:0001dfd1       ??__F_AtlBaseModule@ATL@@YAXXZ 1001efd1 f   atls:atlbase.obj
 0002:00000304       ?_AtlBaseModule$initializer$@ATL@@3P6AXXZA 1001f304     atls:atlbase.obj
 0002:00000308       ?_AtlComModule$initializer$@ATL@@3P6AXXZA 1001f308     OposVariant.obj
 0002:0000030c       ?_AtlWinModule$initializer$@ATL@@3P6AXXZA 1001f30c     OposVariant.obj
 0002:00000310       ?_Module$initializer$@@3P6AXXZA 1001f310     CheckScanner.obj
 0002:00000314       ??pConnMap$initializer$@?$IConnectionPointContainerImpl@VCOPOSCheckScanner@@@ATL@@0P6AXXZA@@3P6AXXZA 1001f314     CheckScanner.obj
 0002:00000320       ?__scrt_initialize_tss_var@@3P6AHXZA 1001f320     LIBCMT:thread_safe_statics.obj
 0002:000019e8       _GS_ExceptionPointers      100209e8     LIBCMT:gs_report.obj
 0002:00001b78       ?tokenTable@@3QBUStringLiteral@@B 10020b78     libvcruntime:undname.obj
 0002:00001bf8       ?nameTable@@3QBUStringLiteral@@B 10020bf8     libvcruntime:undname.obj
 0002:00001e90       ?rttiTable@@3QBUStringLiteral@@B 10020e90     libvcruntime:undname.obj
 0002:00001eb8       ?IndirectionName@@3QBUStringLiteral@@B 10020eb8     libvcruntime:undname.obj
 0002:00001ee8       ?PrefixName@@3QBUStringLiteral@@B 10020ee8     libvcruntime:undname.obj
 0002:00002518       ?module_names@?A0x1172487b@@3QBQB_WB 10021518     libvcruntime:winapi_downlevel.obj
 0002:000025c0       ?candidate_modules@?1??try_get_FlsAlloc@@YAP6GKP6GXPAX@Z@ZXZ@4QBW4module_id@?A0x1172487b@@B 100215c0     libvcruntime:winapi_downlevel.obj
 0002:000025d4       ?candidate_modules@?1??try_get_FlsFree@@YAP6GHK@ZXZ@4QBW4module_id@?A0x1172487b@@B 100215d4     libvcruntime:winapi_downlevel.obj
 0002:000025e4       ?candidate_modules@?1??try_get_FlsGetValue@@YAP6GPAXK@ZXZ@4QBW4module_id@?A0x1172487b@@B 100215e4     libvcruntime:winapi_downlevel.obj
 0002:000025f8       ?candidate_modules@?1??try_get_FlsSetValue@@YAP6GHKPAX@ZXZ@4QBW4module_id@?A0x1172487b@@B 100215f8     libvcruntime:winapi_downlevel.obj
 0002:0000260c       ?candidate_modules@?1??try_get_InitializeCriticalSectionEx@@YAP6GHPAU_RTL_CRITICAL_SECTION@@KK@ZXZ@4QBW4module_id@?A0x1172487b@@B 1002160c     libvcruntime:winapi_downlevel.obj
 0002:00002630       ?errtable@@3QBUerrentry@?A0x31fdb9ec@@B 10021630     libucrt:errno.obj
 0002:000028d8       ___acrt_initializers       100218d8     libucrt:initialization.obj
 0002:00002958       ?module_names@?A0x391cf84c@@3QBQB_WB 10021958     libucrt:winapi_thunks.obj
 0002:00002dd0       ?candidate_modules@?1??try_get_AreFileApisANSI@@YAP6GHXZXZ@4QBW4module_id@?A0x391cf84c@@B 10021dd0     libucrt:winapi_thunks.obj
 0002:00002de4       ?candidate_modules@?1??try_get_FlsAlloc@@YAP6GKP6GXPAX@Z@ZXZ@4QBW4module_id@?A0x391cf84c@@B 10021de4     libucrt:winapi_thunks.obj
 0002:00002dec       ?candidate_modules@?1??try_get_FlsFree@@YAP6GHK@ZXZ@4QBW4module_id@?A0x391cf84c@@B 10021dec     libucrt:winapi_thunks.obj
 0002:00002df4       ?candidate_modules@?1??try_get_FlsGetValue@@YAP6GPAXK@ZXZ@4QBW4module_id@?A0x391cf84c@@B 10021df4     libucrt:winapi_thunks.obj
 0002:00002dfc       ?candidate_modules@?1??try_get_FlsSetValue@@YAP6GHKPAX@ZXZ@4QBW4module_id@?A0x391cf84c@@B 10021dfc     libucrt:winapi_thunks.obj
 0002:00002e04       ?candidate_modules@?1??try_get_InitializeCriticalSectionEx@@YAP6GHPAU_RTL_CRITICAL_SECTION@@KK@ZXZ@4QBW4module_id@?A0x391cf84c@@B 10021e04     libucrt:winapi_thunks.obj
 0002:00002e0c       ?candidate_modules@?1??try_get_LCMapStringEx@@YAP6GHPB_WK0HPA_WHPAU_nlsversioninfo@@PAXJ@ZXZ@4QBW4module_id@?A0x391cf84c@@B 10021e0c     libucrt:winapi_thunks.obj
 0002:00002e24       ?candidate_modules@?1??try_get_LocaleNameToLCID@@YAP6GKPB_WK@ZXZ@4QBW4module_id@?A0x391cf84c@@B 10021e24     libucrt:winapi_thunks.obj
 0002:00002e40       ?candidate_modules@?1??try_get_AppPolicyGetProcessTerminationMethod@@YAP6GJPAXPAW4AppPolicyProcessTerminationMethod@@@ZXZ@4QBW4module_id@?A0x391cf84c@@B 10021e40     libucrt:winapi_thunks.obj
 0002:00002e6c       ?candidate_modules@?1??try_get_SetThreadStackGuarantee@@YAP6GHPAK@ZXZ@4QBW4module_id@?A0x391cf84c@@B 10021e6c     libucrt:winapi_thunks.obj
 0002:00002e90       ?strings@?1??fp_format_nan_or_infinity@@YAHW4__acrt_fp_class@@_NPADI1@Z@4QAY03QBDA 10021e90     libucrt:cvt.obj
 0002:000033d8       ?_mb_locale_names@@3QBQB_WB 100223d8     libucrt:mbctype.obj
 0002:00003c20       ?LcidToLocaleNameTable@?A0x881e4c05@@3QBULcidToLocaleName@1@B 10022c20     libucrt:lcidtoname_downlevel.obj
 0002:00004d48       ?LocaleNameToIndexTable@?A0x881e4c05@@3QBULocaleNameIndex@1@B 10023d48     libucrt:lcidtoname_downlevel.obj
 0002:000065a0       ?large_power_indices@?1??multiply_by_power_of_ten@__crt_strtox@@YA_NAAUbig_integer@2@I@Z@4QBUunpack_index@?1??12@YA_N0I@Z@B 100255a0     libucrt:cfout.obj
 0002:00006680       LOG_name                   10025680     libucrt:log10_impl.obj
 0002:00006690       _One                       10025690     libucrt:ceil_pentium4.obj
 0002:000066a0       _Bns                       100256a0     libucrt:ceil_pentium4.obj
 0002:000066b0       _Zero                      100256b0     libucrt:ceil_pentium4.obj
 0002:000066c0       _S                         100256c0     libucrt:ceil_pentium4.obj
 0002:000066d0       _NegZero                   100256d0     libucrt:ceil_pentium4.obj
 0002:000066e0       emask                      100256e0     libucrt:log10_pentium4.obj
 0002:000066f0       CC                         100256f0     libucrt:log10_pentium4.obj
 0002:00006700       Magic                      10025700     libucrt:log10_pentium4.obj
 0002:00006710       hi_mask                    10025710     libucrt:log10_pentium4.obj
 0002:00006720       LOG10_2                    10025720     libucrt:log10_pentium4.obj
 0002:00006730       place_L                    10025730     libucrt:log10_pentium4.obj
 0002:00006750       One                        10025750     libucrt:log10_pentium4.obj
 0002:00006760       Zero                       10025760     libucrt:log10_pentium4.obj
 0002:00006770       Two52                      10025770     libucrt:log10_pentium4.obj
 0002:00006780       Infs                       10025780     libucrt:log10_pentium4.obj
 0002:00006790       NaN                        10025790     libucrt:log10_pentium4.obj
 0002:000067a0       coeff                      100257a0     libucrt:log10_pentium4.obj
 0002:000067fe       _log2max                   100257fe     libucrt:87tran.obj
 0002:00006808       _smallarg                  10025808     libucrt:87tran.obj
 0002:00006812       _half                      10025812     libucrt:87tran.obj
 0002:0000685e       One                        1002585e     libucrt:87disp.obj
 0002:00006866       Three                      10025866     libucrt:87disp.obj
 0002:0000686e       XAMtoTagTab                1002586e     libucrt:87disp.obj
 0002:00006880       One                        10025880     libucrt:common.obj
 0002:00006894       DblMax                     10025894     libucrt:common.obj
 0002:0000689c       DblMin                     1002589c     libucrt:common.obj
 0002:000068a4       IeeeAdjO                   100258a4     libucrt:common.obj
 0002:000068ac       IeeeAdjU                   100258ac     libucrt:common.obj
 0002:000068b4       _infinity                  100258b4     libucrt:common.obj
 0002:000068bc       _zero                      100258bc     libucrt:common.obj
 0002:00006908       _over                      10025908     libucrt:fpctrl.obj
 0002:00006914       _under                     10025914     libucrt:fpctrl.obj
 0002:00007148       ?_names@?1??_get_fname@@9@9 10026148     libucrt:fpexcept.obj
 0002:000072f0       two32                      100262f0     LIBCMT:ftol2.obj
 0002:000072f4       two63                      100262f4     LIBCMT:ftol2.obj
 0002:000072f8       _NaN                       100262f8     LIBCMT:ftol2.obj
 0002:000079a8       __sehtable$?_AtlVerifyStackAvailable@_ATL_SAFE_ALLOCA_IMPL@ATL@@YA_NK@Z 100269a8     CheckScanner.obj
 0002:000079c8       __sehtable$___scrt_is_nonwritable_in_current_image 100269c8     LIBCMT:utility.obj
 0002:000079e4       __catchsym$??2@YAPAXIABUnothrow_t@std@@@Z$2 100269e4     LIBCMT:new_scalar_nothrow.obj
 0002:000079f4       __unwindtable$??2@YAPAXIABUnothrow_t@std@@@Z 100269f4     LIBCMT:new_scalar_nothrow.obj
 0002:00007a04       __tryblocktable$??2@YAPAXIABUnothrow_t@std@@@Z 10026a04     LIBCMT:new_scalar_nothrow.obj
 0002:00007a18       __ehfuncinfo$??2@YAPAXIABUnothrow_t@std@@@Z 10026a18     LIBCMT:new_scalar_nothrow.obj
 0002:00007a40       __sehtable$?dllmain_crt_process_attach@@YAHQAUHINSTANCE__@@QAX@Z 10026a40     LIBCMT:dll_dllmain.obj
 0002:00007a60       __sehtable$?dllmain_crt_process_detach@@YAH_N@Z 10026a60     LIBCMT:dll_dllmain.obj
 0002:00007a88       __sehtable$?dllmain_dispatch@@YAHQAUHINSTANCE__@@KQAX@Z 10026a88     LIBCMT:dll_dllmain.obj
 0002:00007b38       __sehtable$___DestructExceptionObject 10026b38     libvcruntime:ehhelpers.obj
 0002:00007b58       __sehtable$?FrameUnwindToState@__FrameHandler3@@SAXPAUEHRegistrationNode@@PAXPBU_s_FuncInfo@@H@Z 10026b58     libvcruntime:frame.obj
 0002:00007b80       __sehtable$?CallCatchBlock@@YAPAXPAUEHExceptionRecord@@PAUEHRegistrationNode@@PAU_CONTEXT@@PBU_s_FuncInfo@@PAXHK@Z 10026b80     libvcruntime:frame.obj
 0002:00007ba8       __catchsym$?CallUnexpected@@YAXPBU_s_ESTypeList@@@Z$2 10026ba8     libvcruntime:frame.obj
 0002:00007bb8       __unwindtable$?CallUnexpected@@YAXPBU_s_ESTypeList@@@Z 10026bb8     libvcruntime:frame.obj
 0002:00007bc8       __tryblocktable$?CallUnexpected@@YAXPBU_s_ESTypeList@@@Z 10026bc8     libvcruntime:frame.obj
 0002:00007bdc       __ehfuncinfo$?CallUnexpected@@YAXPBU_s_ESTypeList@@@Z 10026bdc     libvcruntime:frame.obj
 0002:00007c00       __sehtable$??$BuildCatchObjectHelperInternal@V__FrameHandler3@@@@YAHPAUEHExceptionRecord@@PAXPBU_s_HandlerType@@PBU_s_CatchableType@@@Z 10026c00     libvcruntime:frame.obj
 0002:00007c20       __sehtable$??$BuildCatchObjectInternal@V__FrameHandler3@@@@YAXPAUEHExceptionRecord@@PAXPBU_s_HandlerType@@PBU_s_CatchableType@@@Z 10026c20     libvcruntime:frame.obj
 0002:00007c78       __sehtable$??R<lambda_6e4b09c48022b2350581041d5f6b0c4c>@@QBE@XZ 10026c78     libucrt:exit.obj
 0002:00007c98       __sehtable$??$?RV<lambda_03b1d95aef87969028cfba75ccab2455>@@AAV<lambda_6e4b09c48022b2350581041d5f6b0c4c>@@V<lambda_22bdf7517842c4b3e53723af5aa32b9e>@@@?$__crt_seh_guarded_call@X@@QAEX$$QAV<lambda_03b1d95aef87969028cfba75ccab2455>@@AAV<lambda_6e4b09c48022b2350581041d5f6b0c4c>@@$$QAV<lambda_22bdf7517842c4b3e53723af5aa32b9e>@@@Z 10026c98     libucrt:exit.obj
 0002:00007cb8       __sehtable$??$?RV<lambda_8e746cf0007f6ed984d6f78af1fec997>@@AAV<lambda_22ebabd17bc4fa466a2aca6d8deb888d>@@V<lambda_18ed0c0b38a6dc0daf1e7ac6d6adf05e>@@@?$__crt_seh_guarded_call@H@@QAEH$$QAV<lambda_8e746cf0007f6ed984d6f78af1fec997>@@AAV<lambda_22ebabd17bc4fa466a2aca6d8deb888d>@@$$QAV<lambda_18ed0c0b38a6dc0daf1e7ac6d6adf05e>@@@Z 10026cb8     libucrt:onexit.obj
 0002:00007cd8       __sehtable$??$?RV<lambda_69a2805e680e0e292e8ba93315fe43a8>@@AAV<lambda_f03950bc5685219e0bcd2087efbe011e>@@V<lambda_03fcd07e894ec930e3f35da366ca99d6>@@@?$__crt_seh_guarded_call@H@@QAEH$$QAV<lambda_69a2805e680e0e292e8ba93315fe43a8>@@AAV<lambda_f03950bc5685219e0bcd2087efbe011e>@@$$QAV<lambda_03fcd07e894ec930e3f35da366ca99d6>@@@Z 10026cd8     libucrt:onexit.obj
 0002:00007cf8       __sehtable$__query_new_handler 10026cf8     libucrt:new_handler.obj
 0002:00007d18       __sehtable$_terminate      10026d18     libucrt:terminate.obj
 0002:00007d38       __sehtable$??$?RV<lambda_15ade71b0218206bbe3333a0c9b79046>@@AAV<lambda_da44e0f8b0f19ba52fefafb335991732>@@V<lambda_207f2d024fc103971653565357d6cd41>@@@?$__crt_seh_guarded_call@X@@QAEX$$QAV<lambda_15ade71b0218206bbe3333a0c9b79046>@@AAV<lambda_da44e0f8b0f19ba52fefafb335991732>@@$$QAV<lambda_207f2d024fc103971653565357d6cd41>@@@Z 10026d38     libucrt:per_thread_data.obj
 0002:00007d58       __sehtable$??$?RV<lambda_a7e850c220f1c8d1e6efeecdedd162c6>@@AAV<lambda_46720907175c18b6c9d2717bc0d2d362>@@V<lambda_9048902d66e8d99359bc9897bbb930a8>@@@?$__crt_seh_guarded_call@X@@QAEX$$QAV<lambda_a7e850c220f1c8d1e6efeecdedd162c6>@@AAV<lambda_46720907175c18b6c9d2717bc0d2d362>@@$$QAV<lambda_9048902d66e8d99359bc9897bbb930a8>@@@Z 10026d58     libucrt:per_thread_data.obj
 0002:00007d78       __sehtable$??$?RV<lambda_38edbb1296d33220d7e4dd0ed76b244a>@@AAV<lambda_5ce1d447e08cb34b2473517608e21441>@@V<lambda_fb385d3da700c9147fc39e65dd577a8c>@@@?$__crt_seh_guarded_call@X@@QAEX$$QAV<lambda_38edbb1296d33220d7e4dd0ed76b244a>@@AAV<lambda_5ce1d447e08cb34b2473517608e21441>@@$$QAV<lambda_fb385d3da700c9147fc39e65dd577a8c>@@@Z 10026d78     libucrt:per_thread_data.obj
 0002:00007d98       __sehtable$??$?RV<lambda_6affb1475c98b40b75cdec977db92e3c>@@AAV<lambda_b8d4b9c228a6ecc3f80208dbb4b4a104>@@V<lambda_608742c3c92a14382c1684fc64f96c88>@@@?$__crt_seh_guarded_call@X@@QAEX$$QAV<lambda_6affb1475c98b40b75cdec977db92e3c>@@AAV<lambda_b8d4b9c228a6ecc3f80208dbb4b4a104>@@$$QAV<lambda_608742c3c92a14382c1684fc64f96c88>@@@Z 10026d98     libucrt:per_thread_data.obj
 0002:00007db8       __sehtable$??$?RV<lambda_e5124f882df8998aaf41531e079ba474>@@AAV<lambda_3e16ef9562a7dcce91392c22ab16ea36>@@V<lambda_e25ca0880e6ef98be67edffd8c599615>@@@?$__crt_seh_guarded_call@X@@QAEX$$QAV<lambda_e5124f882df8998aaf41531e079ba474>@@AAV<lambda_3e16ef9562a7dcce91392c22ab16ea36>@@$$QAV<lambda_e25ca0880e6ef98be67edffd8c599615>@@@Z 10026db8     libucrt:wsetlocale.obj
 0002:00007dd8       __sehtable$___acrt_initialize_lowio 10026dd8     libucrt:ioinit.obj
 0002:00007df8       __sehtable$?update_thread_multibyte_data_internal@@YAPAU__crt_multibyte_data@@QAU__acrt_ptd@@QAPAU1@@Z 10026df8     libucrt:mbctype.obj
 0002:00007e18       __sehtable$??$?RV<lambda_ceb1ee4838e85a9d631eb091e2fbe199>@@AAV<lambda_ae742caa10f662c28703da3d2ea5e57e>@@V<lambda_cd08b5d6af4937fe54fc07d0c9bf6b37>@@@?$__crt_seh_guarded_call@X@@QAEX$$QAV<lambda_ceb1ee4838e85a9d631eb091e2fbe199>@@AAV<lambda_ae742caa10f662c28703da3d2ea5e57e>@@$$QAV<lambda_cd08b5d6af4937fe54fc07d0c9bf6b37>@@@Z 10026e18     libucrt:mbctype.obj
 0002:00007e38       __sehtable$_raise          10026e38     libucrt:signal.obj
 0002:00007e58       __sehtable$??$?RV<lambda_cbab9ec6f41b0180b23cc171c22676b0>@@AAV<lambda_44731a7d0e6d81c3e6aa82d741081786>@@V<lambda_4b292cb8dd18144e164572427af410ab>@@@?$__crt_seh_guarded_call@P6AXH@Z@@QAEP6AXH@Z$$QAV<lambda_cbab9ec6f41b0180b23cc171c22676b0>@@AAV<lambda_44731a7d0e6d81c3e6aa82d741081786>@@$$QAV<lambda_4b292cb8dd18144e164572427af410ab>@@@Z 10026e58     libucrt:signal.obj
 0002:00007e78       __sehtable$??$?RV<lambda_2866be3712abc81a800a822484c830d8>@@AAV<lambda_39ca0ed439415581b5b15c265174cece>@@V<lambda_2b24c74d71094a6cd0cb82e44167d71b>@@@?$__crt_seh_guarded_call@X@@QAEX$$QAV<lambda_2866be3712abc81a800a822484c830d8>@@AAV<lambda_39ca0ed439415581b5b15c265174cece>@@$$QAV<lambda_2b24c74d71094a6cd0cb82e44167d71b>@@@Z 10026e78     libucrt:fflush.obj
 0002:00007e98       __sehtable$??$?RV<lambda_2cc53f568c5a2bb6f192f930a45d44ea>@@AAV<lambda_ab61a845afdef5b7c387490eaf3616ee>@@V<lambda_c2ffc0b7726aa6be21d5f0026187e748>@@@?$__crt_seh_guarded_call@X@@QAEX$$QAV<lambda_2cc53f568c5a2bb6f192f930a45d44ea>@@AAV<lambda_ab61a845afdef5b7c387490eaf3616ee>@@$$QAV<lambda_c2ffc0b7726aa6be21d5f0026187e748>@@@Z 10026e98     libucrt:fflush.obj
 0002:00007eb8       __sehtable$___acrt_update_thread_locale_data 10026eb8     libucrt:locale_refcounting.obj
 0002:00007ed8       __sehtable$__fcloseall     10026ed8     libucrt:closeall.obj
 0002:00007ef8       __sehtable$___acrt_lowio_ensure_fh_exists 10026ef8     libucrt:osfinfo.obj
 0002:00007f18       __sehtable$??$?RV<lambda_9e9de3de5fa147e2223d7db92bc10aa6>@@AAV<lambda_38ce7e780aa69e748d6df282ebc68efe>@@V<lambda_8ca6da459f0f6780f1cff60fdc3d00e5>@@@?$__crt_seh_guarded_call@H@@QAEH$$QAV<lambda_9e9de3de5fa147e2223d7db92bc10aa6>@@AAV<lambda_38ce7e780aa69e748d6df282ebc68efe>@@$$QAV<lambda_8ca6da459f0f6780f1cff60fdc3d00e5>@@@Z 10026f18     libucrt:commit.obj
 0002:00007f38       __sehtable$__write         10026f38     libucrt:write.obj
 0002:00007f58       __sehtable$_fclose         10026f58     libucrt:fclose.obj
 0002:00007f78       __sehtable$??$?RV<lambda_218ce3db14220d0be481dae8ef3383b6>@@AAV<lambda_628dfdc04ba53c8bfc02c9951375f3f5>@@V<lambda_57dc472bd5c9d5f3b2cbca59b8a843ae>@@@?$__crt_seh_guarded_call@H@@QAEH$$QAV<lambda_218ce3db14220d0be481dae8ef3383b6>@@AAV<lambda_628dfdc04ba53c8bfc02c9951375f3f5>@@$$QAV<lambda_57dc472bd5c9d5f3b2cbca59b8a843ae>@@@Z 10026f78     libucrt:close.obj
 0002:00007f98       __sehtable$__IsNonwritableInCurrentImage 10026f98     LIBCMT:pesect.obj
 0002:00007fc0       .edata                     10026fc0     OPOSCheckScanner.exp
 0002:00007fe8       rgpv                       10026fe8     OPOSCheckScanner.exp
 0002:00007ff8       rgszName                   10026ff8     OPOSCheckScanner.exp
 0002:00008008       rgwOrd                     10027008     OPOSCheckScanner.exp
 0002:00008010       szName                     10027010     OPOSCheckScanner.exp
 0002:00008025       $N00001                    10027025     OPOSCheckScanner.exp
 0002:00008035       $N00002                    10027035     OPOSCheckScanner.exp
 0002:00008047       $N00003                    10027047     OPOSCheckScanner.exp
 0002:00008059       $N00004                    10027059     OPOSCheckScanner.exp
 0002:0000866a       .idata$6                   1002766a     kernel32:KERNEL32.dll
 0002:0000887e       .idata$6                   1002787e     user32:USER32.dll
 0002:000089b2       .idata$6                   100279b2     gdi32:GDI32.dll
 0002:00008a58       .idata$6                   10027a58     advapi32:ADVAPI32.dll
 0002:00008b74       .idata$6                   10027b74     ole32:ole32.dll
 0002:00008b7e       .idata$6                   10027b7e     oleaut32:OLEAUT32.dll
 0003:00000110       ?ObjectMap@@3PAU_ATL_OBJMAP_ENTRY30@ATL@@A 10028110     CheckScanner.obj
 0003:000001d0       ?s_SOMethodNames@@3PAPADA  100281d0     CheckScannerImpl.obj
 0003:00000240       ?s_RequiredMethodsPerRelease@@3PAHA 10028240     CheckScannerImpl.obj
 0003:00000270       ?__vcrt_flsindex@@3KA      10028270     libvcruntime:per_thread_data.obj
 0003:00000290       ?errno_no_memory@@3HA      10028290     libucrt:errno.obj
 0003:00000294       ?doserrno_no_memory@@3KA   10028294     libucrt:errno.obj
 0003:000002a0       ?__acrt_flsindex@@3KA      100282a0     libucrt:per_thread_data.obj
 0003:00000638       __mbctypes                 10028638     libucrt:mbctype.obj
 0003:00000740       __mbcasemaps               10028740     libucrt:mbctype.obj
 0003:00000840       ?__rgctypeflag@@3PADA      10028840     libucrt:mbctype.obj
 0003:00000848       ?__rgcode_page_info@@3PAUcode_page_info@@A 10028848     libucrt:mbctype.obj
 0003:00000aa0       ?__dcrt_lowio_console_output_handle@@3PAXA 10028aa0     libucrt:initcon.obj
 0003:00000c38       ?is_initialized_as_dll@@3_NA 10028c38     LIBCMT:utility.obj
 0003:00000c39       ?module_local_atexit_table_initialized@@3_NA 10028c39     LIBCMT:utility.obj
 0003:00000c3c       ?module_local_atexit_table@@3U_onexit_table_t@@A 10028c3c     LIBCMT:utility.obj
 0003:00000c48       ?module_local_at_quick_exit_table@@3U_onexit_table_t@@A 10028c48     LIBCMT:utility.obj
 0003:00000c54       ?g_tss_cv@@3U_RTL_CONDITION_VARIABLE@@A 10028c54     LIBCMT:thread_safe_statics.obj
 0003:00000c58       ?g_tss_event@@3PAXA        10028c58     LIBCMT:thread_safe_statics.obj
 0003:00000c5c       ?g_tss_mutex@@3U_RTL_CRITICAL_SECTION@@A 10028c5c     LIBCMT:thread_safe_statics.obj
 0003:00000c74       ?g_sleep_condition_variable_cs@@3P6GHPAU_RTL_CONDITION_VARIABLE@@PAU_RTL_CRITICAL_SECTION@@K@ZA 10028c74     LIBCMT:thread_safe_statics.obj
 0003:00000c78       ?g_wake_all_condition_variable@@3P6GXPAU_RTL_CONDITION_VARIABLE@@@ZA 10028c78     LIBCMT:thread_safe_statics.obj
 0003:00000c80       _GS_ExceptionRecord        10028c80     LIBCMT:gs_report.obj
 0003:00000cd0       _GS_ContextRecord          10028cd0     LIBCMT:gs_report.obj
 0003:00000fa0       ?__proc_attached@@3HA      10028fa0     LIBCMT:dll_dllmain.obj
 0003:00000ffc       ?AllocateData@@3P6GPAUAtlThunkData_t@@XZA 10028ffc     atls:atlthunk.obj
 0003:00001000       ?InitData@@3P6GXPAUAtlThunkData_t@@PAXI@ZA 10029000     atls:atlthunk.obj
 0003:00001004       ?DataToCode@@3P6GP6GJPAUHWND__@@IIJ@ZPAUAtlThunkData_t@@@ZA 10029004     atls:atlthunk.obj
 0003:00001008       ?FreeData@@3P6GXPAUAtlThunkData_t@@@ZA 10029008     atls:atlthunk.obj
 0003:0000100c       ?Initialized@@3_NA         1002900c     atls:atlthunk.obj
 0003:0000101c       ?__vcrt_startup_thread_ptd@@3U__vcrt_ptd@@A 1002901c     libvcruntime:per_thread_data.obj
 0003:00001044       ___vcrt_lock_table         10029044     libvcruntime:locks.obj
 0003:0000105c       ___vcrt_locks_initialized  1002905c     libvcruntime:locks.obj
 0003:00001088       ?heap@@3V_HeapManager@@A   10029088     libvcruntime:undname.obj
 0003:0000109c       ?module_handles@@3PAPAUHINSTANCE__@@A 1002909c     libvcruntime:winapi_downlevel.obj
 0003:000010a8       ?function_pointers@@3PAPAXA 100290a8     libvcruntime:winapi_downlevel.obj
 0003:000010bc       ?__acrt_invalid_parameter_handler@@3V?$dual_state_global@P6AXPB_W00II@Z@__crt_state_management@@A 100290bc     libucrt:invalid_parameter.obj
 0003:000010c0       ?c_termination_complete@@3JA 100290c0     libucrt:exit.obj
 0003:000010c4       ?thread_local_exit_callback_func@@3P6GXPAXK0@ZA 100290c4     libucrt:exit.obj
 0003:000010d0       ?program_name@?1???$common_configure_argv@D@@YAHW4_crt_argv_mode@@@Z@4PADA 100290d0     libucrt:argv_parsing.obj
 0003:00001200       ?__acrt_new_handler@@3V?$dual_state_global@P6AHI@Z@__crt_state_management@@A 10029200     libucrt:new_handler.obj
 0003:00001208       ?module_handles@@3PAPAUHINSTANCE__@@A 10029208     libucrt:winapi_thunks.obj
 0003:00001258       ?encoded_function_pointers@@3PAPAXA 10029258     libucrt:winapi_thunks.obj
 0003:000012e0       ?internal_state@?1??_mbtowc_l@@9@4U_Mbstatet@@A 100292e0     libucrt:mbtowc.obj
 0003:000012f0       ?enable_percent_n@@3IA     100292f0     libucrt:printf_count_output.obj
 0003:00001510       ?__acrt_lock_table@@3PAU_RTL_CRITICAL_SECTION@@A 10029510     libucrt:locks.obj
 0003:00001660       ?__acrt_locks_initialized@@3IA 10029660     libucrt:locks.obj
 0003:00001670       ?fSystemSet@@3HA           10029670     libucrt:mbctype.obj
 0003:00001674       ?initialized@?1??__acrt_initialize_multibyte@@9@4_NA 10029674     libucrt:mbctype.obj
 0003:00001694       ?ctrlc_action@@3V?$dual_state_global@P6AXH@Z@__crt_state_management@@A 10029694     libucrt:signal.obj
 0003:00001698       ?ctrlbreak_action@@3V?$dual_state_global@P6AXH@Z@__crt_state_management@@A 10029698     libucrt:signal.obj
 0003:0000169c       ?abort_action@@3V?$dual_state_global@P6AXH@Z@__crt_state_management@@A 1002969c     libucrt:signal.obj
 0003:000016a0       ?term_action@@3V?$dual_state_global@P6AXH@Z@__crt_state_management@@A 100296a0     libucrt:signal.obj
 0003:000016a4       ?user_matherr@@3V?$dual_state_global@P6AHPAU_exception@@@Z@__crt_state_management@@A 100296a4     libucrt:matherr.obj
 0003:000016a8       ?__acrt_global_new_mode@@3V?$dual_state_global@J@__crt_state_management@@A 100296a8     libucrt:new_mode.obj
 0003:000016b4       ?internal_pst@?1??__mbrtoc32_utf8@__crt_mbstring@@YAIPA_UPBDIPAU_Mbstatet@@@Z@4U3@A 100296b4     libucrt:mbrtoc32.obj
 0003:000016bc       ?__acrt_app_type@@3W4_crt_app_type@@A 100296bc     libucrt:report_runtime_error.obj
 0003:000016c4       __pmatherr_set             100296c4     libucrt:libm_error.obj
 0004:00000220       $R000000                   1002a220     CheckScanner.res
 0004:00000bc8       $R0009A8                   1002abc8     CheckScanner.res
 0004:00000cb0       $R000A90                   1002acb0     CheckScanner.res
 0004:00000f18       $R000CF8                   1002af18     CheckScanner.res
 0004:00001430       $R001210                   1002b430     CheckScanner.res
 0004:00005178       $R004F58                   1002f178     CheckScanner.res
 0004:000051b0       $R004F90                   1002f1b0     CheckScanner.res
