 OPOSGraphicDisplay

 Timestamp is 600f7b77 (Tue Jan 26 11:16:23 2021)

 Preferred load address is 10000000

 Start         Length     Name                   Class
 0001:00000000 00000080H .text$di                CODE
 0001:00000080 0001e483H .text$mn                CODE
 0001:0001e503 0000003aH .text$x                 CODE
 0001:0001e53d 00000042H .text$yd                CODE
 0002:00000000 000002fcH .idata$5                DATA
 0002:000002fc 00000004H .00cfg                  DATA
 0002:00000300 00000004H .CRT$XCA                DATA
 0002:00000304 00000004H .CRT$XCL                DATA
 0002:00000308 00000010H .CRT$XCU                DATA
 0002:00000318 00000004H .CRT$XCZ                DATA
 0002:0000031c 00000004H .CRT$XIA                DATA
 0002:00000320 00000010H .CRT$XIC                DATA
 0002:00000330 00000004H .CRT$XIZ                DATA
 0002:00000334 00000004H .CRT$XLA                DATA
 0002:00000338 00000004H .CRT$XLZ                DATA
 0002:0000033c 00000004H .CRT$XPA                DATA
 0002:00000340 00000008H .CRT$XPX                DATA
 0002:00000348 00000004H .CRT$XPXA               DATA
 0002:0000034c 00000004H .CRT$XPZ                DATA
 0002:00000350 00000004H .CRT$XTA                DATA
 0002:00000354 0000000cH .CRT$XTZ                DATA
 0002:00000358 00000000H .gfids$y                DATA
 0002:00000360 00007360H .rdata                  DATA
 0002:000076c0 00000000H .rdata$CastGuardVftablesA DATA
 0002:000076c0 00000000H .rdata$CastGuardVftablesC DATA
 0002:000076c0 00000018H .rdata$T                DATA
 0002:000076d8 00000178H .rdata$r                DATA
 0002:00007850 0000001cH .rdata$sxdata           DATA
 0002:0000786c 000003e4H .rdata$zzzdbg           DATA
 0002:00007c50 00000004H .rtc$IAA                DATA
 0002:00007c54 00000004H .rtc$IZZ                DATA
 0002:00007c58 00000004H .rtc$TAA                DATA
 0002:00007c5c 00000004H .rtc$TZZ                DATA
 0002:00007c60 00000004H .tls                    DATA
 0002:00007c64 00000004H .tls$                   DATA
 0002:00007c68 00000008H .tls$ZZZ                DATA
 0002:00007c70 0000062cH .xdata$x                DATA
 0002:0000829c 00000004H ATL$__a                 DATA
 0002:000082a0 00000010H ATL$__z                 DATA
 0002:000082b0 000000b0H .edata                  DATA
 0002:00008360 00000078H .idata$2                DATA
 0002:000083d8 00000014H .idata$3                DATA
 0002:000083ec 000002fcH .idata$4                DATA
 0002:000086e8 00000bceH .idata$6                DATA
 0003:00000000 00000aa0H .data                   DATA
 0003:00000aa0 00000098H .data$r                 DATA
 0003:00000b38 00000b88H .bss                    DATA
 0004:00000000 00000220H .rsrc$01                DATA
 0004:00000220 00004340H .rsrc$02                DATA

  Address         Publics by Value              Rva+Base       Lib:Object

 0000:00000000       ___guard_fids_count        00000000     <absolute>
 0000:00000000       ___guard_longjmp_table     00000000     <absolute>
 0000:00000000       ___volatile_metadata       00000000     <absolute>
 0000:00000000       ___arm64x_extra_rfe_table  00000000     <absolute>
 0000:00000000       ___arm64x_redirection_metadata 00000000     <absolute>
 0000:00000000       ___guard_eh_cont_table     00000000     <absolute>
 0000:00000000       ___guard_eh_cont_count     00000000     <absolute>
 0000:00000000       ___guard_iat_count         00000000     <absolute>
 0000:00000000       __except_list              00000000     <absolute>
 0000:00000000       ___hybrid_code_map_count   00000000     <absolute>
 0000:00000000       ___x64_code_ranges_to_entry_points_count 00000000     <absolute>
 0000:00000000       ___x64_code_ranges_to_entry_points 00000000     <absolute>
 0000:00000000       ___guard_iat_table         00000000     <absolute>
 0000:00000000       ___arm64x_native_entrypoint 00000000     <absolute>
 0000:00000000       ___hybrid_code_map         00000000     <absolute>
 0000:00000000       ___arm64x_extra_rfe_table_size 00000000     <absolute>
 0000:00000000       ___guard_longjmp_count     00000000     <absolute>
 0000:00000000       ___arm64x_redirection_metadata_count 00000000     <absolute>
 0000:00000000       ___hybrid_auxiliary_iat    00000000     <absolute>
 0000:00000000       ___dynamic_value_reloc_table 00000000     <absolute>
 0000:00000000       ___AbsoluteZero            00000000     <absolute>
 0000:00000000       ___enclave_config          00000000     <absolute>
 0000:00000000       ___guard_fids_table        00000000     <absolute>
 0000:00000007       ___safe_se_handler_count   00000007     <absolute>
 0000:0000002c       __tls_array                0000002c     <absolute>
 0000:00000100       ___guard_flags             00000100     <absolute>
 0000:00000000       ___ImageBase               10000000     <linker-defined>
 0001:00000080       ?DupWide@_CW@@AAEXXZ       10001080 f   CWString.obj
 0001:0000009c       ?cw_dup@@YGXPBDAAHAAPA_W1@Z 1000109c f   CWString.obj
 0001:00000124       ?cw_memcpy@@YGHPA_WPBDH@Z  10001124 f   CWString.obj
 0001:00000150       ?cw_strcpy@@YAHPA_WPBD@Z   10001150 f   CWString.obj
 0001:00000163       ?cw_strlen@@YAHPBD@Z       10001163 f   CWString.obj
 0001:0000017c       ??0CAtlComModule@ATL@@QAE@XZ 1000117c f i OposVariant.obj
 0001:000001c1       ??0CAtlWinModule@ATL@@QAE@XZ 100011c1 f i OposVariant.obj
 0001:000001f8       ??0OposDispParms@@QAE@PAVOposVariant@@H@Z 100011f8 f   OposVariant.obj
 0001:00000269       ??1OposDispParms@@QAE@XZ   10001269 f   OposVariant.obj
 0001:00000277       ??A?$CSimpleArray@GV?$CSimpleArrayEqualHelper@G@ATL@@@ATL@@QAEAAGH@Z 10001277 f i OposVariant.obj
 0001:0000029c       ??_Estringdispid@CComTypeInfoHolder@ATL@@QAEPAXI@Z 1000129c f i OposVariant.obj
 0001:00000308       ?AtlWinModuleInit@ATL@@YGJPAU_ATL_WIN_MODULE70@1@@Z 10001308 f i OposVariant.obj
 0001:0000032e       ?AtlWinModuleTerm@ATL@@YGJPAU_ATL_WIN_MODULE70@1@PAUHINSTANCE__@@@Z 1000132e f i OposVariant.obj
 0001:00000391       ?ChangeBSTR@OposVariant@@QAEXPAPA_WAAJ@Z 10001391 f   OposVariant.obj
 0001:000003d2       ?ChangeLONG@OposVariant@@QAEXPAJAAJ@Z 100013d2 f   OposVariant.obj
 0001:00000413       ?GetLONG@OposVariant@@QAEJXZ 10001413 f   OposVariant.obj
 0001:0000042e       ?Init@CComCriticalSection@ATL@@QAEJXZ 1000142e f i OposVariant.obj
 0001:00000456       ?RemoveAll@?$CSimpleArray@PAUHINSTANCE__@@V?$CSimpleArrayEqualHelper@PAUHINSTANCE__@@@ATL@@@ATL@@QAEXXZ 10001456 f i atls:atlbase.obj
 0001:00000456       ?RemoveAll@?$CSimpleArray@GV?$CSimpleArrayEqualHelper@G@ATL@@@ATL@@QAEXXZ 10001456 f i OposVariant.obj
 0001:00000473       ?SetBSTR@OposVariant@@QAEXPA_WAAJ@Z 10001473 f   OposVariant.obj
 0001:000004a7       ?SetBSTR_Copy@OposVariant@@QAEXPA_WAAJ@Z 100014a7 f   OposVariant.obj
 0001:000004f7       ?SetBSTR_InOutPtr@OposVariant@@QAE_NPAPA_WAAJ@Z 100014f7 f   OposVariant.obj
 0001:0000052e       ?SetDispatch_Ptr@OposVariant@@QAEXPAUIDispatch@@AAJ@Z 1000152e f   OposVariant.obj
 0001:00000569       ?SetLONG@OposVariant@@QAEXJ@Z 10001569 f   OposVariant.obj
 0001:0000058b       ?SetLONG_Ptr@OposVariant@@QAEXPAJAAJ@Z 1000158b f   OposVariant.obj
 0001:000005be       ?SetString@OposVariant@@QAEXPB_WAAJ@Z 100015be f   OposVariant.obj
 0001:00000604       ?SetVARIANT_BOOL@OposVariant@@QAEXF@Z 10001604 f   OposVariant.obj
 0001:0000062e       ?Term@CAtlComModule@ATL@@QAEXXZ 1000162e f i OposVariant.obj
 0001:00000678       ?_AtlRaiseException@ATL@@YAXKK@Z 10001678 f i OposVariant.obj
 0001:0000068d       ??_E?$CComObject@VCOPOSGraphicDisplay@@@ATL@@W3AEPAXI@Z 1000168d f i GraphicDisplay.obj
 0001:00000695       ??_E?$CComObject@VCOPOSGraphicDisplay@@@ATL@@WEM@AEPAXI@Z 10001695 f i GraphicDisplay.obj
 0001:0000069d       ?QueryInterface@?$CComObject@VCOPOSGraphicDisplay@@@ATL@@WHA@AGJABU_GUID@@PAPAX@Z 1000169d f i GraphicDisplay.obj
 0001:000006a7       ?AddRef@?$CComObject@VCOPOSGraphicDisplay@@@ATL@@WHA@AGKXZ 100016a7 f i GraphicDisplay.obj
 0001:000006b1       ?Release@?$CComObject@VCOPOSGraphicDisplay@@@ATL@@WHA@AGKXZ 100016b1 f i GraphicDisplay.obj
 0001:000006bb       ?QueryInterface@?$CComObject@VCOPOSGraphicDisplay@@@ATL@@WHE@AGJABU_GUID@@PAPAX@Z 100016bb f i GraphicDisplay.obj
 0001:000006c5       ?AddRef@?$CComObject@VCOPOSGraphicDisplay@@@ATL@@WHE@AGKXZ 100016c5 f i GraphicDisplay.obj
 0001:000006cf       ?Release@?$CComObject@VCOPOSGraphicDisplay@@@ATL@@WHE@AGKXZ 100016cf f i GraphicDisplay.obj
 0001:000006d9       ?QueryInterface@?$CComObject@VCOPOSGraphicDisplay@@@ATL@@WHI@AGJABU_GUID@@PAPAX@Z 100016d9 f i GraphicDisplay.obj
 0001:000006e3       ?AddRef@?$CComObject@VCOPOSGraphicDisplay@@@ATL@@WHI@AGKXZ 100016e3 f i GraphicDisplay.obj
 0001:000006ed       ?Release@?$CComObject@VCOPOSGraphicDisplay@@@ATL@@WHI@AGKXZ 100016ed f i GraphicDisplay.obj
 0001:000006f7       ?QueryInterface@?$CComObject@VCOPOSGraphicDisplay@@@ATL@@WHM@AGJABU_GUID@@PAPAX@Z 100016f7 f i GraphicDisplay.obj
 0001:00000701       ?AddRef@?$CComObject@VCOPOSGraphicDisplay@@@ATL@@WHM@AGKXZ 10001701 f i GraphicDisplay.obj
 0001:0000070b       ?Release@?$CComObject@VCOPOSGraphicDisplay@@@ATL@@WHM@AGKXZ 1000170b f i GraphicDisplay.obj
 0001:00000715       ?QueryInterface@?$CComObject@VCOPOSGraphicDisplay@@@ATL@@WIA@AGJABU_GUID@@PAPAX@Z 10001715 f i GraphicDisplay.obj
 0001:00000722       ?AddRef@?$CComObject@VCOPOSGraphicDisplay@@@ATL@@WIA@AGKXZ 10001722 f i GraphicDisplay.obj
 0001:0000072f       ?Release@?$CComObject@VCOPOSGraphicDisplay@@@ATL@@WIA@AGKXZ 1000172f f i GraphicDisplay.obj
 0001:0000073c       ?QueryInterface@?$CComObject@VCOPOSGraphicDisplay@@@ATL@@WIE@AGJABU_GUID@@PAPAX@Z 1000173c f i GraphicDisplay.obj
 0001:00000749       ?AddRef@?$CComObject@VCOPOSGraphicDisplay@@@ATL@@WIE@AGKXZ 10001749 f i GraphicDisplay.obj
 0001:00000756       ?Release@?$CComObject@VCOPOSGraphicDisplay@@@ATL@@WIE@AGKXZ 10001756 f i GraphicDisplay.obj
 0001:00000763       ?QueryInterface@?$CComObject@VCOPOSGraphicDisplay@@@ATL@@WII@AGJABU_GUID@@PAPAX@Z 10001763 f i GraphicDisplay.obj
 0001:00000770       ?AddRef@?$CComObject@VCOPOSGraphicDisplay@@@ATL@@WII@AGKXZ 10001770 f i GraphicDisplay.obj
 0001:0000077d       ?Release@?$CComObject@VCOPOSGraphicDisplay@@@ATL@@WII@AGKXZ 1000177d f i GraphicDisplay.obj
 0001:0000078a       ?QueryInterface@?$CComObject@VCOPOSGraphicDisplay@@@ATL@@WIM@AGJABU_GUID@@PAPAX@Z 1000178a f i GraphicDisplay.obj
 0001:00000797       ?AddRef@?$CComObject@VCOPOSGraphicDisplay@@@ATL@@WIM@AGKXZ 10001797 f i GraphicDisplay.obj
 0001:000007a4       ?Release@?$CComObject@VCOPOSGraphicDisplay@@@ATL@@WIM@AGKXZ 100017a4 f i GraphicDisplay.obj
 0001:000007b1       ?QueryInterface@?$CComObject@VCOPOSGraphicDisplay@@@ATL@@WJA@AGJABU_GUID@@PAPAX@Z 100017b1 f i GraphicDisplay.obj
 0001:000007be       ?AddRef@?$CComObject@VCOPOSGraphicDisplay@@@ATL@@WJA@AGKXZ 100017be f i GraphicDisplay.obj
 0001:000007cb       ?Release@?$CComObject@VCOPOSGraphicDisplay@@@ATL@@WJA@AGKXZ 100017cb f i GraphicDisplay.obj
 0001:000007d8       ?QueryInterface@?$CComObject@VCOPOSGraphicDisplay@@@ATL@@WJE@AGJABU_GUID@@PAPAX@Z 100017d8 f i GraphicDisplay.obj
 0001:000007e5       ?AddRef@?$CComObject@VCOPOSGraphicDisplay@@@ATL@@WJE@AGKXZ 100017e5 f i GraphicDisplay.obj
 0001:000007f2       ?Release@?$CComObject@VCOPOSGraphicDisplay@@@ATL@@WJE@AGKXZ 100017f2 f i GraphicDisplay.obj
 0001:000007ff       ?QueryInterface@?$CComObject@VCOPOSGraphicDisplay@@@ATL@@WJI@AGJABU_GUID@@PAPAX@Z 100017ff f i GraphicDisplay.obj
 0001:0000080c       ?AddRef@?$CComObject@VCOPOSGraphicDisplay@@@ATL@@WJI@AGKXZ 1000180c f i GraphicDisplay.obj
 0001:00000819       ?Release@?$CComObject@VCOPOSGraphicDisplay@@@ATL@@WJI@AGKXZ 10001819 f i GraphicDisplay.obj
 0001:00000826       ?QueryInterface@?$CComObject@VCOPOSGraphicDisplay@@@ATL@@WJM@AGJABU_GUID@@PAPAX@Z 10001826 f i GraphicDisplay.obj
 0001:00000833       ?AddRef@?$CComObject@VCOPOSGraphicDisplay@@@ATL@@WJM@AGKXZ 10001833 f i GraphicDisplay.obj
 0001:00000840       ?Release@?$CComObject@VCOPOSGraphicDisplay@@@ATL@@WJM@AGKXZ 10001840 f i GraphicDisplay.obj
 0001:0000084d       ?QueryInterface@?$CComObject@VCOPOSGraphicDisplay@@@ATL@@WKA@AGJABU_GUID@@PAPAX@Z 1000184d f i GraphicDisplay.obj
 0001:0000085a       ?AddRef@?$CComObject@VCOPOSGraphicDisplay@@@ATL@@WKA@AGKXZ 1000185a f i GraphicDisplay.obj
 0001:00000867       ?Release@?$CComObject@VCOPOSGraphicDisplay@@@ATL@@WKA@AGKXZ 10001867 f i GraphicDisplay.obj
 0001:00000874       ?AddRef@?$CComObject@VCOPOSGraphicDisplay@@@ATL@@WKI@AGKXZ 10001874 f i GraphicDisplay.obj
 0001:00000881       ?Release@?$CComObject@VCOPOSGraphicDisplay@@@ATL@@WKI@AGKXZ 10001881 f i GraphicDisplay.obj
 0001:0000088e       ?AddRef@?$CComObject@VCOPOSGraphicDisplay@@@ATL@@WLE@AGKXZ 1000188e f i GraphicDisplay.obj
 0001:0000089b       ?Release@?$CComObject@VCOPOSGraphicDisplay@@@ATL@@WLE@AGKXZ 1000189b f i GraphicDisplay.obj
 0001:000008a8       ??_E?$CComContainedObject@VCOPOSGraphicDisplay@@@ATL@@W3AEPAXI@Z 100018a8 f i GraphicDisplay.obj
 0001:000008b0       ??_E?$CComContainedObject@VCOPOSGraphicDisplay@@@ATL@@WEM@AEPAXI@Z 100018b0 f i GraphicDisplay.obj
 0001:000008b8       ?QueryInterface@?$CComContainedObject@VCOPOSGraphicDisplay@@@ATL@@WHA@AGJABU_GUID@@PAPAX@Z 100018b8 f i GraphicDisplay.obj
 0001:000008c2       ?AddRef@?$CComContainedObject@VCOPOSGraphicDisplay@@@ATL@@WHA@AGKXZ 100018c2 f i GraphicDisplay.obj
 0001:000008cc       ?Release@?$CComContainedObject@VCOPOSGraphicDisplay@@@ATL@@WHA@AGKXZ 100018cc f i GraphicDisplay.obj
 0001:000008d6       ?QueryInterface@?$CComContainedObject@VCOPOSGraphicDisplay@@@ATL@@WHE@AGJABU_GUID@@PAPAX@Z 100018d6 f i GraphicDisplay.obj
 0001:000008e0       ?AddRef@?$CComContainedObject@VCOPOSGraphicDisplay@@@ATL@@WHE@AGKXZ 100018e0 f i GraphicDisplay.obj
 0001:000008ea       ?Release@?$CComContainedObject@VCOPOSGraphicDisplay@@@ATL@@WHE@AGKXZ 100018ea f i GraphicDisplay.obj
 0001:000008f4       ?QueryInterface@?$CComContainedObject@VCOPOSGraphicDisplay@@@ATL@@WHI@AGJABU_GUID@@PAPAX@Z 100018f4 f i GraphicDisplay.obj
 0001:000008fe       ?AddRef@?$CComContainedObject@VCOPOSGraphicDisplay@@@ATL@@WHI@AGKXZ 100018fe f i GraphicDisplay.obj
 0001:00000908       ?Release@?$CComContainedObject@VCOPOSGraphicDisplay@@@ATL@@WHI@AGKXZ 10001908 f i GraphicDisplay.obj
 0001:00000912       ?QueryInterface@?$CComContainedObject@VCOPOSGraphicDisplay@@@ATL@@WHM@AGJABU_GUID@@PAPAX@Z 10001912 f i GraphicDisplay.obj
 0001:0000091c       ?AddRef@?$CComContainedObject@VCOPOSGraphicDisplay@@@ATL@@WHM@AGKXZ 1000191c f i GraphicDisplay.obj
 0001:00000926       ?Release@?$CComContainedObject@VCOPOSGraphicDisplay@@@ATL@@WHM@AGKXZ 10001926 f i GraphicDisplay.obj
 0001:00000930       ?QueryInterface@?$CComContainedObject@VCOPOSGraphicDisplay@@@ATL@@WIA@AGJABU_GUID@@PAPAX@Z 10001930 f i GraphicDisplay.obj
 0001:0000093d       ?AddRef@?$CComContainedObject@VCOPOSGraphicDisplay@@@ATL@@WIA@AGKXZ 1000193d f i GraphicDisplay.obj
 0001:0000094a       ?Release@?$CComContainedObject@VCOPOSGraphicDisplay@@@ATL@@WIA@AGKXZ 1000194a f i GraphicDisplay.obj
 0001:00000957       ?QueryInterface@?$CComContainedObject@VCOPOSGraphicDisplay@@@ATL@@WIE@AGJABU_GUID@@PAPAX@Z 10001957 f i GraphicDisplay.obj
 0001:00000964       ?AddRef@?$CComContainedObject@VCOPOSGraphicDisplay@@@ATL@@WIE@AGKXZ 10001964 f i GraphicDisplay.obj
 0001:00000971       ?Release@?$CComContainedObject@VCOPOSGraphicDisplay@@@ATL@@WIE@AGKXZ 10001971 f i GraphicDisplay.obj
 0001:0000097e       ?QueryInterface@?$CComContainedObject@VCOPOSGraphicDisplay@@@ATL@@WII@AGJABU_GUID@@PAPAX@Z 1000197e f i GraphicDisplay.obj
 0001:0000098b       ?AddRef@?$CComContainedObject@VCOPOSGraphicDisplay@@@ATL@@WII@AGKXZ 1000198b f i GraphicDisplay.obj
 0001:00000998       ?Release@?$CComContainedObject@VCOPOSGraphicDisplay@@@ATL@@WII@AGKXZ 10001998 f i GraphicDisplay.obj
 0001:000009a5       ?QueryInterface@?$CComContainedObject@VCOPOSGraphicDisplay@@@ATL@@WIM@AGJABU_GUID@@PAPAX@Z 100019a5 f i GraphicDisplay.obj
 0001:000009b2       ?AddRef@?$CComContainedObject@VCOPOSGraphicDisplay@@@ATL@@WIM@AGKXZ 100019b2 f i GraphicDisplay.obj
 0001:000009bf       ?Release@?$CComContainedObject@VCOPOSGraphicDisplay@@@ATL@@WIM@AGKXZ 100019bf f i GraphicDisplay.obj
 0001:000009cc       ?QueryInterface@?$CComContainedObject@VCOPOSGraphicDisplay@@@ATL@@WJA@AGJABU_GUID@@PAPAX@Z 100019cc f i GraphicDisplay.obj
 0001:000009d9       ?AddRef@?$CComContainedObject@VCOPOSGraphicDisplay@@@ATL@@WJA@AGKXZ 100019d9 f i GraphicDisplay.obj
 0001:000009e6       ?Release@?$CComContainedObject@VCOPOSGraphicDisplay@@@ATL@@WJA@AGKXZ 100019e6 f i GraphicDisplay.obj
 0001:000009f3       ?QueryInterface@?$CComContainedObject@VCOPOSGraphicDisplay@@@ATL@@WJE@AGJABU_GUID@@PAPAX@Z 100019f3 f i GraphicDisplay.obj
 0001:00000a00       ?AddRef@?$CComContainedObject@VCOPOSGraphicDisplay@@@ATL@@WJE@AGKXZ 10001a00 f i GraphicDisplay.obj
 0001:00000a0d       ?Release@?$CComContainedObject@VCOPOSGraphicDisplay@@@ATL@@WJE@AGKXZ 10001a0d f i GraphicDisplay.obj
 0001:00000a1a       ?QueryInterface@?$CComContainedObject@VCOPOSGraphicDisplay@@@ATL@@WJI@AGJABU_GUID@@PAPAX@Z 10001a1a f i GraphicDisplay.obj
 0001:00000a27       ?AddRef@?$CComContainedObject@VCOPOSGraphicDisplay@@@ATL@@WJI@AGKXZ 10001a27 f i GraphicDisplay.obj
 0001:00000a34       ?Release@?$CComContainedObject@VCOPOSGraphicDisplay@@@ATL@@WJI@AGKXZ 10001a34 f i GraphicDisplay.obj
 0001:00000a41       ?QueryInterface@?$CComContainedObject@VCOPOSGraphicDisplay@@@ATL@@WJM@AGJABU_GUID@@PAPAX@Z 10001a41 f i GraphicDisplay.obj
 0001:00000a4e       ?AddRef@?$CComContainedObject@VCOPOSGraphicDisplay@@@ATL@@WJM@AGKXZ 10001a4e f i GraphicDisplay.obj
 0001:00000a5b       ?Release@?$CComContainedObject@VCOPOSGraphicDisplay@@@ATL@@WJM@AGKXZ 10001a5b f i GraphicDisplay.obj
 0001:00000a68       ?QueryInterface@?$CComContainedObject@VCOPOSGraphicDisplay@@@ATL@@WKA@AGJABU_GUID@@PAPAX@Z 10001a68 f i GraphicDisplay.obj
 0001:00000a75       ?AddRef@?$CComContainedObject@VCOPOSGraphicDisplay@@@ATL@@WKA@AGKXZ 10001a75 f i GraphicDisplay.obj
 0001:00000a82       ?Release@?$CComContainedObject@VCOPOSGraphicDisplay@@@ATL@@WKA@AGKXZ 10001a82 f i GraphicDisplay.obj
 0001:00000a8f       ?AddRef@?$CComContainedObject@VCOPOSGraphicDisplay@@@ATL@@WKI@AGKXZ 10001a8f f i GraphicDisplay.obj
 0001:00000a9c       ?Release@?$CComContainedObject@VCOPOSGraphicDisplay@@@ATL@@WKI@AGKXZ 10001a9c f i GraphicDisplay.obj
 0001:00000aa9       ?AddRef@?$CComContainedObject@VCOPOSGraphicDisplay@@@ATL@@WLE@AGKXZ 10001aa9 f i GraphicDisplay.obj
 0001:00000ab6       ?Release@?$CComContainedObject@VCOPOSGraphicDisplay@@@ATL@@WLE@AGKXZ 10001ab6 f i GraphicDisplay.obj
 0001:00000ac3       ?CreateInstance@CComClassFactory@ATL@@UAGJPAUIUnknown@@ABU_GUID@@PAPAX@Z 10001ac3 f i GraphicDisplay.obj
 0001:00000b01       ?LockServer@CComClassFactory@ATL@@UAGJH@Z 10001b01 f i GraphicDisplay.obj
 0001:00000b20       ??_ECComClassFactory@ATL@@UAEPAXI@Z 10001b20 f i GraphicDisplay.obj
 0001:00000b20       ??_GCComClassFactory@ATL@@UAEPAXI@Z 10001b20 f i GraphicDisplay.obj
 0001:00000b4b       ?GetWindowProc@?$CWindowImplBaseT@VCWindow@ATL@@V?$CWinTraits@$0FGAAAAAA@$0A@@2@@ATL@@UAEP6GJPAUHWND__@@IIJ@ZXZ 10001b4b f i GraphicDisplay.obj
 0001:00000b51       ?StartWindowProc@?$CWindowImplBaseT@VCWindow@ATL@@V?$CWinTraits@$0FGAAAAAA@$0A@@2@@ATL@@SGJPAUHWND__@@IIJ@Z 10001b51 f i GraphicDisplay.obj
 0001:00000ba5       ?ObjectMain@CComObjectRootBase@ATL@@SGX_N@Z 10001ba5 f i GraphicDisplay.obj
 0001:00000ba5       ?OnFinalMessage@?$CWindowImplBaseT@VCWindow@ATL@@V?$CWinTraits@$0FGAAAAAA@$0A@@2@@ATL@@UAEXPAUHWND__@@@Z 10001ba5 f i GraphicDisplay.obj
 0001:00000ba8       ?GetTypeInfoCount@?$IDispatchImpl@UIOPOSGraphicDisplay@@$1?IID_IOPOSGraphicDisplay@@3U_GUID@@B$1?LIBID_OposGraphicDisplay_CCO@@3U3@B$00$0A@VCComTypeInfoHolder@ATL@@@ATL@@UAGJPAI@Z 10001ba8 f i GraphicDisplay.obj
 0001:00000bc5       ?GetTypeInfo@?$IDispatchImpl@UIOPOSGraphicDisplay@@$1?IID_IOPOSGraphicDisplay@@3U_GUID@@B$1?LIBID_OposGraphicDisplay_CCO@@3U3@B$00$0A@VCComTypeInfoHolder@ATL@@@ATL@@UAGJIKPAPAUITypeInfo@@@Z 10001bc5 f i GraphicDisplay.obj
 0001:00000be9       ?GetIDsOfNames@?$IDispatchImpl@UIOPOSGraphicDisplay@@$1?IID_IOPOSGraphicDisplay@@3U_GUID@@B$1?LIBID_OposGraphicDisplay_CCO@@3U3@B$00$0A@VCComTypeInfoHolder@ATL@@@ATL@@UAGJABU_GUID@@PAPA_WIKPAJ@Z 10001be9 f i GraphicDisplay.obj
 0001:00000c09       ?Invoke@?$IDispatchImpl@UIOPOSGraphicDisplay@@$1?IID_IOPOSGraphicDisplay@@3U_GUID@@B$1?LIBID_OposGraphicDisplay_CCO@@3U3@B$00$0A@VCComTypeInfoHolder@ATL@@@ATL@@UAGJJABU_GUID@@KGPAUtagDISPPARAMS@@PAUtagVARIANT@@PAUtagEXCEPINFO@@PAI@Z 10001c09 f i GraphicDisplay.obj
 0001:00000c17       ?CreateControlWindow@?$CComControl@VCOPOSGraphicDisplay@@V?$CWindowImpl@VCOPOSGraphicDisplay@@VCWindow@ATL@@V?$CWinTraits@$0FGAAAAAA@$0A@@3@@ATL@@@ATL@@UAEPAUHWND__@@PAU3@AAUtagRECT@@@Z 10001c17 f i GraphicDisplay.obj
 0001:00000c46       ?ControlQueryInterface@?$CComControl@VCOPOSGraphicDisplay@@V?$CWindowImpl@VCOPOSGraphicDisplay@@VCWindow@ATL@@V?$CWinTraits@$0FGAAAAAA@$0A@@3@@ATL@@@ATL@@UAEJABU_GUID@@PAPAX@Z 10001c46 f i GraphicDisplay.obj
 0001:00000c61       ?GetClassID@?$IPersistStreamInitImpl@VCOPOSGraphicDisplay@@@ATL@@UAGJPAU_GUID@@@Z 10001c61 f i GraphicDisplay.obj
 0001:00000c61       ?GetUserClassID@?$IOleObjectImpl@VCOPOSGraphicDisplay@@@ATL@@UAGJPAU_GUID@@@Z 10001c61 f i GraphicDisplay.obj
 0001:00000c61       ?GetClassID@?$IPersistStorageImpl@VCOPOSGraphicDisplay@@@ATL@@UAGJPAU_GUID@@@Z 10001c61 f i GraphicDisplay.obj
 0001:00000c85       ?IsDirty@?$IPersistStreamInitImpl@VCOPOSGraphicDisplay@@@ATL@@UAGJXZ 10001c85 f i GraphicDisplay.obj
 0001:00000ca4       ?Load@?$IPersistStreamInitImpl@VCOPOSGraphicDisplay@@@ATL@@UAGJPAUIStream@@@Z 10001ca4 f i GraphicDisplay.obj
 0001:00000cc3       ?Save@?$IPersistStreamInitImpl@VCOPOSGraphicDisplay@@@ATL@@UAGJPAUIStream@@H@Z 10001cc3 f i GraphicDisplay.obj
 0001:00000ce5       ?GetSizeMax@?$IPersistStreamInitImpl@VCOPOSGraphicDisplay@@@ATL@@UAGJPAT_ULARGE_INTEGER@@@Z 10001ce5 f i GraphicDisplay.obj
 0001:00000ec4       ?InitNew@?$IPersistStreamInitImpl@VCOPOSGraphicDisplay@@@ATL@@UAGJXZ 10001ec4 f i GraphicDisplay.obj
 0001:00000ee1       ?GetDropTarget@?$IOleInPlaceObjectWindowlessImpl@VCOPOSGraphicDisplay@@@ATL@@UAGJPAPAUIDropTarget@@@Z 10001ee1 f i GraphicDisplay.obj
 0001:00000ee1       ?ContextSensitiveHelp@?$IOleInPlaceObjectWindowlessImpl@VCOPOSGraphicDisplay@@@ATL@@UAGJH@Z 10001ee1 f i GraphicDisplay.obj
 0001:00000ee1       ?SODataDummy@COPOSGraphicDisplay@@MAGJJ@Z 10001ee1 f i GraphicDisplay.obj
 0001:00000ee1       ?SetColorScheme@?$IOleObjectImpl@VCOPOSGraphicDisplay@@@ATL@@UAGJPAUtagLOGPALETTE@@@Z 10001ee1 f i GraphicDisplay.obj
 0001:00000ee1       ?ContextSensitiveHelp@?$IOleInPlaceActiveObjectImpl@VCOPOSGraphicDisplay@@@ATL@@UAGJH@Z 10001ee1 f i GraphicDisplay.obj
 0001:00000ee1       ?GetControlInfo@?$IOleControlImpl@VCOPOSGraphicDisplay@@@ATL@@UAGJPAUtagCONTROLINFO@@@Z 10001ee1 f i GraphicDisplay.obj
 0001:00000ee1       ?Unfreeze@?$IViewObjectExImpl@VCOPOSGraphicDisplay@@@ATL@@UAGJK@Z 10001ee1 f i GraphicDisplay.obj
 0001:00000ee1       ?OnMnemonic@?$IOleControlImpl@VCOPOSGraphicDisplay@@@ATL@@UAGJPAUtagMSG@@@Z 10001ee1 f i GraphicDisplay.obj
 0001:00000ee1       ?QueryGetData@?$IDataObjectImpl@VCOPOSGraphicDisplay@@@ATL@@UAGJPAUtagFORMATETC@@@Z 10001ee1 f i GraphicDisplay.obj
 0001:00000ee9       ?EnableModeless@?$IOleInPlaceActiveObjectImpl@VCOPOSGraphicDisplay@@@ATL@@UAGJH@Z 10001ee9 f i GraphicDisplay.obj
 0001:00000ee9       ?OnFrameWindowActivate@?$IOleInPlaceActiveObjectImpl@VCOPOSGraphicDisplay@@@ATL@@UAGJH@Z 10001ee9 f i GraphicDisplay.obj
 0001:00000ee9       ?OnAmbientPropertyChange@?$IOleControlImpl@VCOPOSGraphicDisplay@@@ATL@@UAGJJ@Z 10001ee9 f i GraphicDisplay.obj
 0001:00000ee9       ?SaveCompleted@?$IPersistStorageImpl@VCOPOSGraphicDisplay@@@ATL@@UAGJPAUIStorage@@@Z 10001ee9 f i GraphicDisplay.obj
 0001:00000eee       ?SetClientSite@?$IOleObjectImpl@VCOPOSGraphicDisplay@@@ATL@@UAGJPAUIOleClientSite@@@Z 10001eee f i GraphicDisplay.obj
 0001:00000f0b       ?GetClientSite@?$IOleObjectImpl@VCOPOSGraphicDisplay@@@ATL@@UAGJPAPAUIOleClientSite@@@Z 10001f0b f i GraphicDisplay.obj
 0001:00000f28       ?SetHostNames@?$IOleObjectImpl@VCOPOSGraphicDisplay@@@ATL@@UAGJPB_W0@Z 10001f28 f i GraphicDisplay.obj
 0001:00000f2d       ?Close@?$IOleObjectImpl@VCOPOSGraphicDisplay@@@ATL@@UAGJK@Z 10001f2d f i GraphicDisplay.obj
 0001:00000f4a       ?GetClipboardData@?$IOleObjectImpl@VCOPOSGraphicDisplay@@@ATL@@UAGJKPAPAUIDataObject@@@Z 10001f4a f i GraphicDisplay.obj
 0001:00000f4a       ?GetDataHere@?$IDataObjectImpl@VCOPOSGraphicDisplay@@@ATL@@UAGJPAUtagFORMATETC@@PAUtagSTGMEDIUM@@@Z 10001f4a f i GraphicDisplay.obj
 0001:00000f4a       ?GetCanonicalFormatEtc@?$IDataObjectImpl@VCOPOSGraphicDisplay@@@ATL@@UAGJPAUtagFORMATETC@@0@Z 10001f4a f i GraphicDisplay.obj
 0001:00000f4a       ?QueryInterface@CRegObject@ATL@@UAGJABU_GUID@@PAPAX@Z 10001f4a f i GraphicDisplay.obj
 0001:00000f4a       ?EnumFormatEtc@?$IDataObjectImpl@VCOPOSGraphicDisplay@@@ATL@@UAGJKPAPAUIEnumFORMATETC@@@Z 10001f4a f i GraphicDisplay.obj
 0001:00000f4a       ?GetRect@?$IViewObjectExImpl@VCOPOSGraphicDisplay@@@ATL@@UAGJKPAU_RECTL@@@Z 10001f4a f i GraphicDisplay.obj
 0001:00000f4a       ?SetMoniker@?$IOleObjectImpl@VCOPOSGraphicDisplay@@@ATL@@UAGJKPAUIMoniker@@@Z 10001f4a f i GraphicDisplay.obj
 0001:00000f52       ?SetData@?$IDataObjectImpl@VCOPOSGraphicDisplay@@@ATL@@UAGJPAUtagFORMATETC@@PAUtagSTGMEDIUM@@H@Z 10001f52 f i GraphicDisplay.obj
 0001:00000f52       ?GetMoniker@?$IOleObjectImpl@VCOPOSGraphicDisplay@@@ATL@@UAGJKKPAPAUIMoniker@@@Z 10001f52 f i GraphicDisplay.obj
 0001:00000f52       ?InitFromData@?$IOleObjectImpl@VCOPOSGraphicDisplay@@@ATL@@UAGJPAUIDataObject@@HK@Z 10001f52 f i GraphicDisplay.obj
 0001:00000f5a       ?DoVerb@?$IOleObjectImpl@VCOPOSGraphicDisplay@@@ATL@@UAGJJPAUtagMSG@@PAUIOleClientSite@@JPAUHWND__@@PBUtagRECT@@@Z 10001f5a f i GraphicDisplay.obj
 0001:0000104e       ?EnumVerbs@?$IOleObjectImpl@VCOPOSGraphicDisplay@@@ATL@@UAGJPAPAUIEnumOLEVERB@@@Z 1000204e f i GraphicDisplay.obj
 0001:00001070       ?HandsOffStorage@?$IPersistStorageImpl@VCOPOSGraphicDisplay@@@ATL@@UAGJXZ 10002070 f i GraphicDisplay.obj
 0001:00001070       ?Release@CRegObject@ATL@@UAGKXZ 10002070 f i GraphicDisplay.obj
 0001:00001070       ?Update@?$IOleObjectImpl@VCOPOSGraphicDisplay@@@ATL@@UAGJXZ 10002070 f i GraphicDisplay.obj
 0001:00001070       ?IsUpToDate@?$IOleObjectImpl@VCOPOSGraphicDisplay@@@ATL@@UAGJXZ 10002070 f i GraphicDisplay.obj
 0001:00001075       ?GetUserType@?$IOleObjectImpl@VCOPOSGraphicDisplay@@@ATL@@UAGJKPAPA_W@Z 10002075 f i GraphicDisplay.obj
 0001:0000108d       ?SetExtent@?$IOleObjectImpl@VCOPOSGraphicDisplay@@@ATL@@UAGJKPAUtagSIZE@@@Z 1000208d f i GraphicDisplay.obj
 0001:000010ad       ?GetExtent@?$IOleObjectImpl@VCOPOSGraphicDisplay@@@ATL@@UAGJKPAUtagSIZE@@@Z 100020ad f i GraphicDisplay.obj
 0001:000010eb       ?Advise@?$IOleObjectImpl@VCOPOSGraphicDisplay@@@ATL@@UAGJPAUIAdviseSink@@PAK@Z 100020eb f i GraphicDisplay.obj
 0001:0000110b       ?Unadvise@?$IOleObjectImpl@VCOPOSGraphicDisplay@@@ATL@@UAGJK@Z 1000210b f i GraphicDisplay.obj
 0001:0000113a       ?EnumAdvise@?$IOleObjectImpl@VCOPOSGraphicDisplay@@@ATL@@UAGJPAPAUIEnumSTATDATA@@@Z 1000213a f i GraphicDisplay.obj
 0001:0000117a       ?GetMiscStatus@?$IOleObjectImpl@VCOPOSGraphicDisplay@@@ATL@@UAGJKPAK@Z 1000217a f i GraphicDisplay.obj
 0001:00001192       ?GetWindow@?$IOleInPlaceActiveObjectImpl@VCOPOSGraphicDisplay@@@ATL@@UAGJPAPAUHWND__@@@Z 10002192 f i GraphicDisplay.obj
 0001:000011df       ?TranslateAcceleratorW@?$IOleInPlaceActiveObjectImpl@VCOPOSGraphicDisplay@@@ATL@@UAGJPAUtagMSG@@@Z 100021df f i GraphicDisplay.obj
 0001:0000128d       ?OnDocWindowActivate@?$IOleInPlaceActiveObjectImpl@VCOPOSGraphicDisplay@@@ATL@@UAGJH@Z 1000228d f i GraphicDisplay.obj
 0001:000012af       ?ResizeBorder@?$IOleInPlaceActiveObjectImpl@VCOPOSGraphicDisplay@@@ATL@@UAGJPBUtagRECT@@PAUIOleInPlaceUIWindow@@H@Z 100022af f i GraphicDisplay.obj
 0001:000012b4       ?Draw@?$IViewObjectExImpl@VCOPOSGraphicDisplay@@@ATL@@UAGJKJPAXPAUtagDVTARGETDEVICE@@PAUHDC__@@2PBU_RECTL@@3P6GHK@ZK@Z 100022b4 f i GraphicDisplay.obj
 0001:000012e6       ?GetColorSet@?$IViewObjectExImpl@VCOPOSGraphicDisplay@@@ATL@@UAGJKJPAXPAUtagDVTARGETDEVICE@@PAUHDC__@@PAPAUtagLOGPALETTE@@@Z 100022e6 f i GraphicDisplay.obj
 0001:000012ee       ?Freeze@?$IViewObjectExImpl@VCOPOSGraphicDisplay@@@ATL@@UAGJKJPAXPAK@Z 100022ee f i GraphicDisplay.obj
 0001:000012f6       ?SetAdvise@?$IViewObjectExImpl@VCOPOSGraphicDisplay@@@ATL@@UAGJKKPAUIAdviseSink@@@Z 100022f6 f i GraphicDisplay.obj
 0001:00001315       ?GetAdvise@?$IViewObjectExImpl@VCOPOSGraphicDisplay@@@ATL@@UAGJPAK0PAPAUIAdviseSink@@@Z 10002315 f i GraphicDisplay.obj
 0001:0000134a       ?GetExtent@?$IViewObjectExImpl@VCOPOSGraphicDisplay@@@ATL@@UAGJKJPAUtagDVTARGETDEVICE@@PAUtagSIZE@@@Z 1000234a f i GraphicDisplay.obj
 0001:0000137b       ?GetViewStatus@?$IViewObjectExImpl@VCOPOSGraphicDisplay@@@ATL@@UAGJPAK@Z 1000237b f i GraphicDisplay.obj
 0001:00001398       ?QueryHitPoint@?$IViewObjectExImpl@VCOPOSGraphicDisplay@@@ATL@@UAGJKPBUtagRECT@@UtagPOINT@@JPAK@Z 10002398 f i GraphicDisplay.obj
 0001:000013d9       ?QueryHitRect@?$IViewObjectExImpl@VCOPOSGraphicDisplay@@@ATL@@UAGJKPBUtagRECT@@0JPAK@Z 100023d9 f i GraphicDisplay.obj
 0001:00001434       ?GetNaturalExtent@?$IViewObjectExImpl@VCOPOSGraphicDisplay@@@ATL@@UAGJKJPAUtagDVTARGETDEVICE@@PAUHDC__@@PAUtagExtentInfo@@PAUtagSIZE@@@Z 10002434 f i GraphicDisplay.obj
 0001:0000147f       ?GetWindow@?$IOleInPlaceObjectWindowlessImpl@VCOPOSGraphicDisplay@@@ATL@@UAGJPAPAUHWND__@@@Z 1000247f f i GraphicDisplay.obj
 0001:000014cc       ?InPlaceDeactivate@?$IOleInPlaceObjectWindowlessImpl@VCOPOSGraphicDisplay@@@ATL@@UAGJXZ 100024cc f i GraphicDisplay.obj
 0001:000014e6       ?UIDeactivate@?$IOleInPlaceObjectWindowlessImpl@VCOPOSGraphicDisplay@@@ATL@@UAGJXZ 100024e6 f i GraphicDisplay.obj
 0001:00001500       ?SetObjectRects@?$IOleInPlaceObjectWindowlessImpl@VCOPOSGraphicDisplay@@@ATL@@UAGJPBUtagRECT@@0@Z 10002500 f i GraphicDisplay.obj
 0001:00001520       ?ReactivateAndUndo@?$IOleInPlaceObjectWindowlessImpl@VCOPOSGraphicDisplay@@@ATL@@UAGJXZ 10002520 f i GraphicDisplay.obj
 0001:00001528       ?OnWindowMessage@?$IOleInPlaceObjectWindowlessImpl@VCOPOSGraphicDisplay@@@ATL@@UAGJIIJPAJ@Z 10002528 f i GraphicDisplay.obj
 0001:00001598       ?EnumConnectionPoints@?$IConnectionPointContainerImpl@VCOPOSGraphicDisplay@@@ATL@@UAGJPAPAUIEnumConnectionPoints@@@Z 10002598 f i GraphicDisplay.obj
 0001:00001724       ?FindConnectionPoint@?$IConnectionPointContainerImpl@VCOPOSGraphicDisplay@@@ATL@@UAGJABU_GUID@@PAPAUIConnectionPoint@@@Z 10002724 f i GraphicDisplay.obj
 0001:000017c7       ?IsDirty@?$IPersistStorageImpl@VCOPOSGraphicDisplay@@@ATL@@UAGJXZ 100027c7 f i GraphicDisplay.obj
 0001:000017f7       ?InitNew@?$IPersistStorageImpl@VCOPOSGraphicDisplay@@@ATL@@UAGJPAUIStorage@@@Z 100027f7 f i GraphicDisplay.obj
 0001:00001827       ?Load@?$IPersistStorageImpl@VCOPOSGraphicDisplay@@@ATL@@UAGJPAUIStorage@@@Z 10002827 f i GraphicDisplay.obj
 0001:00001893       ?Save@?$IPersistStorageImpl@VCOPOSGraphicDisplay@@@ATL@@UAGJPAUIStorage@@H@Z 10002893 f i GraphicDisplay.obj
 0001:00001906       ?GetPages@?$ISpecifyPropertyPagesImpl@VCOPOSGraphicDisplay@@@ATL@@UAGJPAUtagCAUUID@@@Z 10002906 f i GraphicDisplay.obj
 0001:0000191d       ?QuickActivate@?$IQuickActivateImpl@VCOPOSGraphicDisplay@@@ATL@@UAGJPAUtagQACONTAINER@@PAUtagQACONTROL@@@Z 1000291d f i GraphicDisplay.obj
 0001:00001940       ?SetContentExtent@?$IQuickActivateImpl@VCOPOSGraphicDisplay@@@ATL@@UAGJPAUtagSIZE@@@Z 10002940 f i GraphicDisplay.obj
 0001:0000196c       ?GetContentExtent@?$IQuickActivateImpl@VCOPOSGraphicDisplay@@@ATL@@UAGJPAUtagSIZE@@@Z 1000296c f i GraphicDisplay.obj
 0001:000019a8       ?GetData@?$IDataObjectImpl@VCOPOSGraphicDisplay@@@ATL@@UAGJPAUtagFORMATETC@@PAUtagSTGMEDIUM@@@Z 100029a8 f i GraphicDisplay.obj
 0001:000019cb       ?DAdvise@?$IDataObjectImpl@VCOPOSGraphicDisplay@@@ATL@@UAGJPAUtagFORMATETC@@KPAUIAdviseSink@@PAK@Z 100029cb f i GraphicDisplay.obj
 0001:00001a0c       ?DUnadvise@?$IDataObjectImpl@VCOPOSGraphicDisplay@@@ATL@@UAGJK@Z 10002a0c f i GraphicDisplay.obj
 0001:00001a3a       ?EnumDAdvise@?$IDataObjectImpl@VCOPOSGraphicDisplay@@@ATL@@UAGJPAPAUIEnumSTATDATA@@@Z 10002a3a f i GraphicDisplay.obj
 0001:00001a79       ?GetClassInfoW@?$IProvideClassInfo2Impl@$1?CLSID_OPOSGraphicDisplay@@3U_GUID@@B$1?DIID__IOPOSGraphicDisplayEvents@@3U2@B$1?LIBID_OposGraphicDisplay_CCO@@3U2@B$00$0A@VCComTypeInfoHolder@ATL@@@ATL@@UAGJPAPAUITypeInfo@@@Z 10002a79 f i GraphicDisplay.obj
 0001:00001a8f       ?GetGUID@?$IProvideClassInfo2Impl@$1?CLSID_OPOSGraphicDisplay@@3U_GUID@@B$1?DIID__IOPOSGraphicDisplayEvents@@3U2@B$1?LIBID_OposGraphicDisplay_CCO@@3U2@B$00$0A@VCComTypeInfoHolder@ATL@@@ATL@@UAGJKPAU_GUID@@@Z 10002a8f f i GraphicDisplay.obj
 0001:00001acd       __get_startup_argv_mode    10002acd f i LIBCMT:argv_mode.obj
 0001:00001acd       ?FAccessAllowed@?$IObjectSafetyImpl@VCOPOSGraphicDisplay@@$02@ATL@@MAEHXZ 10002acd f i GraphicDisplay.obj
 0001:00001ad1       ?GetInterfaceSafetyOptions@?$IObjectSafetyImpl@VCOPOSGraphicDisplay@@$02@ATL@@UAGJABU_GUID@@PAK1@Z 10002ad1 f i GraphicDisplay.obj
 0001:00001b45       ?SetInterfaceSafetyOptions@?$IObjectSafetyImpl@VCOPOSGraphicDisplay@@$02@ATL@@UAGJABU_GUID@@KK@Z 10002b45 f i GraphicDisplay.obj
 0001:00001bbf       ?_LocCPQueryInterface@?$IConnectionPointImpl@VCOPOSGraphicDisplay@@$1?DIID__IOPOSGraphicDisplayEvents@@3U_GUID@@BVCComDynamicUnkArray@ATL@@@ATL@@UAGJABU_GUID@@PAPAX@Z 10002bbf f i GraphicDisplay.obj
 0001:00001bbf       ?_LocCPQueryInterface@?$IConnectionPointImpl@VCOPOSGraphicDisplay@@$1?IID_IPropertyNotifySink@@3U_GUID@@BVCComDynamicUnkArray@ATL@@@ATL@@UAGJABU_GUID@@PAPAX@Z 10002bbf f i GraphicDisplay.obj
 0001:00001c0c       ?GetConnectionInterface@?$IConnectionPointImpl@VCOPOSGraphicDisplay@@$1?IID_IPropertyNotifySink@@3U_GUID@@BVCComDynamicUnkArray@ATL@@@ATL@@UAGJPAU_GUID@@@Z 10002c0c f i GraphicDisplay.obj
 0001:00001c30       ?GetConnectionPointContainer@?$IConnectionPointImpl@VCOPOSGraphicDisplay@@$1?IID_IPropertyNotifySink@@3U_GUID@@BVCComDynamicUnkArray@ATL@@@ATL@@UAGJPAPAUIConnectionPointContainer@@@Z 10002c30 f i GraphicDisplay.obj
 0001:00001c53       ?Advise@?$IConnectionPointImpl@VCOPOSGraphicDisplay@@$1?IID_IPropertyNotifySink@@3U_GUID@@BVCComDynamicUnkArray@ATL@@@ATL@@UAGJPAUIUnknown@@PAK@Z 10002c53 f i GraphicDisplay.obj
 0001:00001c53       ?Advise@?$IConnectionPointImpl@VCOPOSGraphicDisplay@@$1?DIID__IOPOSGraphicDisplayEvents@@3U_GUID@@BVCComDynamicUnkArray@ATL@@@ATL@@UAGJPAUIUnknown@@PAK@Z 10002c53 f i GraphicDisplay.obj
 0001:00001cf3       ?Unadvise@?$IConnectionPointImpl@VCOPOSGraphicDisplay@@$1?DIID__IOPOSGraphicDisplayEvents@@3U_GUID@@BVCComDynamicUnkArray@ATL@@@ATL@@UAGJK@Z 10002cf3 f i GraphicDisplay.obj
 0001:00001cf3       ?Unadvise@?$IConnectionPointImpl@VCOPOSGraphicDisplay@@$1?IID_IPropertyNotifySink@@3U_GUID@@BVCComDynamicUnkArray@ATL@@@ATL@@UAGJK@Z 10002cf3 f i GraphicDisplay.obj
 0001:00001d33       ?EnumConnections@?$IConnectionPointImpl@VCOPOSGraphicDisplay@@$1?DIID__IOPOSGraphicDisplayEvents@@3U_GUID@@BVCComDynamicUnkArray@ATL@@@ATL@@UAGJPAPAUIEnumConnections@@@Z 10002d33 f i GraphicDisplay.obj
 0001:00001d33       ?EnumConnections@?$IConnectionPointImpl@VCOPOSGraphicDisplay@@$1?IID_IPropertyNotifySink@@3U_GUID@@BVCComDynamicUnkArray@ATL@@@ATL@@UAGJPAPAUIEnumConnections@@@Z 10002d33 f i GraphicDisplay.obj
 0001:00001e2e       ?GetCategoryMap@CComObjectRootBase@ATL@@SAPBU_ATL_CATMAP_ENTRY@2@XZ 10002e2e f i GraphicDisplay.obj
 0001:00001e2e       ?GetObjectDescription@?$CComCoClass@VCOPOSGraphicDisplay@@$1?CLSID_OPOSGraphicDisplay@@3U_GUID@@B@ATL@@SGPB_WXZ 10002e2e f i GraphicDisplay.obj
 0001:00001e31       ?GetConnectionInterface@?$IConnectionPointImpl@VCOPOSGraphicDisplay@@$1?DIID__IOPOSGraphicDisplayEvents@@3U_GUID@@BVCComDynamicUnkArray@ATL@@@ATL@@UAGJPAU_GUID@@@Z 10002e31 f i GraphicDisplay.obj
 0001:00001e55       ?GetConnectionPointContainer@?$IConnectionPointImpl@VCOPOSGraphicDisplay@@$1?DIID__IOPOSGraphicDisplayEvents@@3U_GUID@@BVCComDynamicUnkArray@ATL@@@ATL@@UAGJPAPAUIConnectionPointContainer@@@Z 10002e55 f i GraphicDisplay.obj
 0001:00001e78       ?UpdateRegistry@COPOSGraphicDisplay@@SGJH@Z 10002e78 f i GraphicDisplay.obj
 0001:00001e90       ?ProcessWindowMessage@COPOSGraphicDisplay@@UAEHPAUHWND__@@IIJAAJK@Z 10002e90 f i GraphicDisplay.obj
 0001:00001ed9       ?Lock@CAtlModule@ATL@@UAEJXZ 10002ed9 f i GraphicDisplay.obj
 0001:00001ee3       ?Unlock@CAtlModule@ATL@@UAEJXZ 10002ee3 f i GraphicDisplay.obj
 0001:00001eed       ?GetLockCount@CAtlModule@ATL@@UAEJXZ 10002eed f i GraphicDisplay.obj
 0001:00001ef1       ?GetGITPtr@CAtlModule@ATL@@UAEJPAPAUIGlobalInterfaceTable@@@Z 10002ef1 f i GraphicDisplay.obj
 0001:00001f3d       ?SODirectIO@COPOSGraphicDisplay@@MAGJJPAJPAPA_W@Z 10002f3d f i GraphicDisplay.obj
 0001:00001f86       ?SOError@COPOSGraphicDisplay@@MAGJJJJPAJ@Z 10002f86 f i GraphicDisplay.obj
 0001:00001fdb       ?SOOutputComplete@COPOSGraphicDisplay@@MAGJJ@Z 10002fdb f i GraphicDisplay.obj
 0001:00002014       ?SOStatusUpdate@COPOSGraphicDisplay@@MAGJJ@Z 10003014 f i GraphicDisplay.obj
 0001:0000204d       ?AddCommonRGSReplacements@?$CAtlModuleT@VCComModule@ATL@@@ATL@@UAEJPAUIRegistrarBase@@@Z 1000304d f i GraphicDisplay.obj
 0001:00002067       ?UpdateRegistryFromResourceD@CComModule@ATL@@UAGJPB_WHPAU_ATL_REGMAP_ENTRY@2@@Z 10003067 f i GraphicDisplay.obj
 0001:00002067       ?UpdateRegistryFromResourceD@CComModule@ATL@@UAGJIHPAU_ATL_REGMAP_ENTRY@2@@Z 10003067 f i GraphicDisplay.obj
 0001:0000206f       ?UpdateRegistryFromResource@CComModule@ATL@@UAGJPB_WHPAU_ATL_REGMAP_ENTRY@2@@Z 1000306f f i GraphicDisplay.obj
 0001:00002078       ?UpdateRegistryFromResource@CComModule@ATL@@UAGJIHPAU_ATL_REGMAP_ENTRY@2@@Z 10003078 f i GraphicDisplay.obj
 0001:00002081       ??_ECComModule@ATL@@UAEPAXI@Z 10003081 f i GraphicDisplay.obj
 0001:00002081       ??_GCComModule@ATL@@UAEPAXI@Z 10003081 f i GraphicDisplay.obj
 0001:000020a9       ?CreateInstance@?$CComCreator@V?$CComObjectCached@VCComClassFactory@ATL@@@ATL@@@ATL@@SGJPAXABU_GUID@@PAPAX@Z 100030a9 f i GraphicDisplay.obj
 0001:00002149       ?CreateInstance@?$CComCreator2@V?$CComCreator@V?$CComObject@VCOPOSGraphicDisplay@@@ATL@@@ATL@@V?$CComCreator@V?$CComAggObject@VCOPOSGraphicDisplay@@@ATL@@@2@@ATL@@SGJPAXABU_GUID@@PAPAX@Z 10003149 f i GraphicDisplay.obj
 0001:00002169       ?AddRef@?$CComObjectCached@VCComClassFactory@ATL@@@ATL@@UAGKXZ 10003169 f i GraphicDisplay.obj
 0001:00002190       ?Release@?$CComObjectCached@VCComClassFactory@ATL@@@ATL@@UAGKXZ 10003190 f i GraphicDisplay.obj
 0001:000021c6       ?QueryInterface@?$CComObjectCached@VCComClassFactory@ATL@@@ATL@@UAGJABU_GUID@@PAPAX@Z 100031c6 f i GraphicDisplay.obj
 0001:000021e0       ??_G?$CComObjectCached@VCComClassFactory@ATL@@@ATL@@UAEPAXI@Z 100031e0 f i GraphicDisplay.obj
 0001:000021e0       ??_E?$CComObjectCached@VCComClassFactory@ATL@@@ATL@@UAEPAXI@Z 100031e0 f i GraphicDisplay.obj
 0001:00002202       ?Next@?$CComEnumImpl@UIEnumConnectionPoints@@$1?_GUID_b196b285_bab4_101a_b69c_00aa00341d07@@3U__s_GUID@@BPAUIConnectionPoint@@V?$_CopyInterface@UIConnectionPoint@@@ATL@@@ATL@@UAGJKPAPAUIConnectionPoint@@PAK@Z 10003202 f i GraphicDisplay.obj
 0001:000022d9       ?Skip@?$CComEnumImpl@UIEnumConnectionPoints@@$1?_GUID_b196b285_bab4_101a_b69c_00aa00341d07@@3U__s_GUID@@BPAUIConnectionPoint@@V?$_CopyInterface@UIConnectionPoint@@@ATL@@@ATL@@UAGJK@Z 100032d9 f i GraphicDisplay.obj
 0001:00002306       ?Reset@?$CComEnumImpl@UIEnumConnections@@$1?_GUID_b196b287_bab4_101a_b69c_00aa00341d07@@3U__s_GUID@@BUtagCONNECTDATA@@V?$_Copy@UtagCONNECTDATA@@@ATL@@@ATL@@UAGJXZ 10003306 f i GraphicDisplay.obj
 0001:00002306       ?Reset@?$CComEnumImpl@UIEnumConnectionPoints@@$1?_GUID_b196b285_bab4_101a_b69c_00aa00341d07@@3U__s_GUID@@BPAUIConnectionPoint@@V?$_CopyInterface@UIConnectionPoint@@@ATL@@@ATL@@UAGJXZ 10003306 f i GraphicDisplay.obj
 0001:00002318       ?Clone@?$CComEnumImpl@UIEnumConnectionPoints@@$1?_GUID_b196b285_bab4_101a_b69c_00aa00341d07@@3U__s_GUID@@BPAUIConnectionPoint@@V?$_CopyInterface@UIConnectionPoint@@@ATL@@@ATL@@UAGJPAPAUIEnumConnectionPoints@@@Z 10003318 f i GraphicDisplay.obj
 0001:000023f9       ?AddRef@?$CComObject@V?$CComEnum@UIEnumConnections@@$1?_GUID_b196b287_bab4_101a_b69c_00aa00341d07@@3U__s_GUID@@BUtagCONNECTDATA@@V?$_Copy@UtagCONNECTDATA@@@ATL@@VCComSingleThreadModel@6@@ATL@@@ATL@@UAGKXZ 100033f9 f i GraphicDisplay.obj
 0001:000023f9       ?AddRef@?$CComObject@V?$CComEnum@UIEnumConnectionPoints@@$1?_GUID_b196b285_bab4_101a_b69c_00aa00341d07@@3U__s_GUID@@BPAUIConnectionPoint@@V?$_CopyInterface@UIConnectionPoint@@@ATL@@VCComSingleThreadModel@6@@ATL@@@ATL@@UAGKXZ 100033f9 f i GraphicDisplay.obj
 0001:0000240a       ?Release@?$CComObject@V?$CComEnum@UIEnumConnections@@$1?_GUID_b196b287_bab4_101a_b69c_00aa00341d07@@3U__s_GUID@@BUtagCONNECTDATA@@V?$_Copy@UtagCONNECTDATA@@@ATL@@VCComSingleThreadModel@6@@ATL@@@ATL@@UAGKXZ 1000340a f i GraphicDisplay.obj
 0001:0000240a       ?Release@?$CComObject@V?$CComEnum@UIEnumConnectionPoints@@$1?_GUID_b196b285_bab4_101a_b69c_00aa00341d07@@3U__s_GUID@@BPAUIConnectionPoint@@V?$_CopyInterface@UIConnectionPoint@@@ATL@@VCComSingleThreadModel@6@@ATL@@@ATL@@UAGKXZ 1000340a f i GraphicDisplay.obj
 0001:00002446       ?QueryInterface@?$CComObject@V?$CComEnum@UIEnumConnectionPoints@@$1?_GUID_b196b285_bab4_101a_b69c_00aa00341d07@@3U__s_GUID@@BPAUIConnectionPoint@@V?$_CopyInterface@UIConnectionPoint@@@ATL@@VCComSingleThreadModel@6@@ATL@@@ATL@@UAGJABU_GUID@@PAPAX@Z 10003446 f i GraphicDisplay.obj
 0001:00002460       ??_G?$CComObject@V?$CComEnum@UIEnumConnectionPoints@@$1?_GUID_b196b285_bab4_101a_b69c_00aa00341d07@@3U__s_GUID@@BPAUIConnectionPoint@@V?$_CopyInterface@UIConnectionPoint@@@ATL@@VCComSingleThreadModel@6@@ATL@@@ATL@@UAEPAXI@Z 10003460 f i GraphicDisplay.obj
 0001:00002460       ??_E?$CComObject@V?$CComEnum@UIEnumConnectionPoints@@$1?_GUID_b196b285_bab4_101a_b69c_00aa00341d07@@3U__s_GUID@@BPAUIConnectionPoint@@V?$_CopyInterface@UIConnectionPoint@@@ATL@@VCComSingleThreadModel@6@@ATL@@@ATL@@UAEPAXI@Z 10003460 f i GraphicDisplay.obj
 0001:00002482       ?AddRef@CRegObject@ATL@@UAGKXZ 10003482 f i GraphicDisplay.obj
 0001:00002488       ?AddReplacement@CRegObject@ATL@@UAGJPB_W0@Z 10003488 f i GraphicDisplay.obj
 0001:000024c1       ?ClearReplacements@CRegObject@ATL@@UAGJXZ 100034c1 f i GraphicDisplay.obj
 0001:000024d3       ??_ECRegObject@ATL@@UAEPAXI@Z 100034d3 f i GraphicDisplay.obj
 0001:000024d3       ??_GCRegObject@ATL@@UAEPAXI@Z 100034d3 f i GraphicDisplay.obj
 0001:000024f5       ?AddRef@?$CComAggObject@VCOPOSGraphicDisplay@@@ATL@@UAGKXZ 100034f5 f i GraphicDisplay.obj
 0001:00002506       ?Release@?$CComAggObject@VCOPOSGraphicDisplay@@@ATL@@UAGKXZ 10003506 f i GraphicDisplay.obj
 0001:00002542       ?QueryInterface@?$CComAggObject@VCOPOSGraphicDisplay@@@ATL@@UAGJABU_GUID@@PAPAX@Z 10003542 f i GraphicDisplay.obj
 0001:00002591       ?AddRef@?$CComContainedObject@VCOPOSGraphicDisplay@@@ATL@@UAGKXZ 10003591 f i GraphicDisplay.obj
 0001:000025a7       ?Release@?$CComContainedObject@VCOPOSGraphicDisplay@@@ATL@@UAGKXZ 100035a7 f i GraphicDisplay.obj
 0001:000025bd       ?QueryInterface@?$CComContainedObject@VCOPOSGraphicDisplay@@@ATL@@UAGJABU_GUID@@PAPAX@Z 100035bd f i GraphicDisplay.obj
 0001:000025d8       ??_G?$CComAggObject@VCOPOSGraphicDisplay@@@ATL@@UAEPAXI@Z 100035d8 f i GraphicDisplay.obj
 0001:000025d8       ??_E?$CComAggObject@VCOPOSGraphicDisplay@@@ATL@@UAEPAXI@Z 100035d8 f i GraphicDisplay.obj
 0001:000025fd       ?AddRef@?$CComObject@VCOPOSGraphicDisplay@@@ATL@@UAGKXZ 100035fd f i GraphicDisplay.obj
 0001:00002614       ?Release@?$CComObject@VCOPOSGraphicDisplay@@@ATL@@UAGKXZ 10003614 f i GraphicDisplay.obj
 0001:00002656       ?QueryInterface@?$CComObject@VCOPOSGraphicDisplay@@@ATL@@UAGJABU_GUID@@PAPAX@Z 10003656 f i GraphicDisplay.obj
 0001:00002670       ?OnDrawAdvanced@CComControlBase@ATL@@UAEJAAUATL_DRAWINFO@@@Z 10003670 f i GraphicDisplay.obj
 0001:00002763       ?Next@?$CComEnumImpl@UIEnumConnections@@$1?_GUID_b196b287_bab4_101a_b69c_00aa00341d07@@3U__s_GUID@@BUtagCONNECTDATA@@V?$_Copy@UtagCONNECTDATA@@@ATL@@@ATL@@UAGJKPAUtagCONNECTDATA@@PAK@Z 10003763 f i GraphicDisplay.obj
 0001:0000283a       ?Skip@?$CComEnumImpl@UIEnumConnections@@$1?_GUID_b196b287_bab4_101a_b69c_00aa00341d07@@3U__s_GUID@@BUtagCONNECTDATA@@V?$_Copy@UtagCONNECTDATA@@@ATL@@@ATL@@UAGJK@Z 1000383a f i GraphicDisplay.obj
 0001:00002867       ?Clone@?$CComEnumImpl@UIEnumConnections@@$1?_GUID_b196b287_bab4_101a_b69c_00aa00341d07@@3U__s_GUID@@BUtagCONNECTDATA@@V?$_Copy@UtagCONNECTDATA@@@ATL@@@ATL@@UAGJPAPAUIEnumConnections@@@Z 10003867 f i GraphicDisplay.obj
 0001:00002948       ?QueryInterface@?$CComObject@V?$CComEnum@UIEnumConnections@@$1?_GUID_b196b287_bab4_101a_b69c_00aa00341d07@@3U__s_GUID@@BUtagCONNECTDATA@@V?$_Copy@UtagCONNECTDATA@@@ATL@@VCComSingleThreadModel@6@@ATL@@@ATL@@UAGJABU_GUID@@PAPAX@Z 10003948 f i GraphicDisplay.obj
 0001:00002962       ??_G?$CComObject@V?$CComEnum@UIEnumConnections@@$1?_GUID_b196b287_bab4_101a_b69c_00aa00341d07@@3U__s_GUID@@BUtagCONNECTDATA@@V?$_Copy@UtagCONNECTDATA@@@ATL@@VCComSingleThreadModel@6@@ATL@@@ATL@@UAEPAXI@Z 10003962 f i GraphicDisplay.obj
 0001:00002962       ??_E?$CComObject@V?$CComEnum@UIEnumConnections@@$1?_GUID_b196b287_bab4_101a_b69c_00aa00341d07@@3U__s_GUID@@BUtagCONNECTDATA@@V?$_Copy@UtagCONNECTDATA@@@ATL@@VCComSingleThreadModel@6@@ATL@@@ATL@@UAEPAXI@Z 10003962 f i GraphicDisplay.obj
 0001:00002984       ??$?4UITypeInfo2@@@?$CComPtr@UITypeInfo@@@ATL@@QAEPAUITypeInfo@@ABV?$CComPtr@UITypeInfo2@@@1@@Z 10003984 f i GraphicDisplay.obj
 0001:000029b1       ??$AtlAdd@K@ATL@@YAJPAKKK@Z 100039b1 f i GraphicDisplay.obj
 0001:000029d4       ??$AtlAdd@_K@ATL@@YAJPA_K_K1@Z 100039d4 f i GraphicDisplay.obj
 0001:00002a0c       ??$AtlAddThrow@K@ATL@@YAKKK@Z 10003a0c f i GraphicDisplay.obj
 0001:00002a32       ??$AtlModuleRegisterWndClassInfoT@VAtlModuleRegisterWndClassInfoParamW@ATL@@@ATL@@YAGPAU_ATL_BASE_MODULE70@0@PAU_ATL_WIN_MODULE70@0@PAU_ATL_WNDCLASSINFOW@0@PAP6GJPAUHWND__@@IIJ@ZVAtlModuleRegisterWndClassInfoParamW@0@@Z 10003a32 f i GraphicDisplay.obj
 0001:00002b80       ??$AtlMultiply@H@ATL@@YAJPAHHH@Z 10003b80 f i GraphicDisplay.obj
 0001:00002bb8       ??$AtlMultiply@I@ATL@@YAJPAIII@Z 10003bb8 f i GraphicDisplay.obj
 0001:00002bb8       ??$AtlMultiply@K@ATL@@YAJPAKKK@Z 10003bb8 f i GraphicDisplay.obj
 0001:00002bda       ??$AtlMultiplyThrow@I@ATL@@YAIII@Z 10003bda f i GraphicDisplay.obj
 0001:00002c00       ??0?$CComAggObject@VCOPOSGraphicDisplay@@@ATL@@QAE@PAX@Z 10003c00 f i GraphicDisplay.obj
 0001:00002c2d       ??0?$CComContainedObject@VCOPOSGraphicDisplay@@@ATL@@QAE@PAX@Z 10003c2d f i GraphicDisplay.obj
 0001:00002ce6       ??0?$CComObject@V?$CComEnum@UIEnumConnectionPoints@@$1?_GUID_b196b285_bab4_101a_b69c_00aa00341d07@@3U__s_GUID@@BPAUIConnectionPoint@@V?$_CopyInterface@UIConnectionPoint@@@ATL@@VCComSingleThreadModel@6@@ATL@@@ATL@@QAE@PAX@Z 10003ce6 f i GraphicDisplay.obj
 0001:00002d14       ??0?$CComObject@V?$CComEnum@UIEnumConnections@@$1?_GUID_b196b287_bab4_101a_b69c_00aa00341d07@@3U__s_GUID@@BUtagCONNECTDATA@@V?$_Copy@UtagCONNECTDATA@@@ATL@@VCComSingleThreadModel@6@@ATL@@@ATL@@QAE@PAX@Z 10003d14 f i GraphicDisplay.obj
 0001:00002d42       ??0?$CComObject@VCOPOSGraphicDisplay@@@ATL@@QAE@PAX@Z 10003d42 f i GraphicDisplay.obj
 0001:00002df9       ??0?$CComQIPtr@UIOleControlSite@@$1?_GUID_b196b289_bab4_101a_b69c_00aa00341d07@@3U__s_GUID@@B@ATL@@QAE@PAUIUnknown@@@Z 10003df9 f i GraphicDisplay.obj
 0001:00002e22       ??0CAtlModule@ATL@@QAE@XZ  10003e22 f i GraphicDisplay.obj
 0001:00002e63       ??0CParseBuffer@CRegParser@ATL@@QAE@H@Z 10003e63 f i GraphicDisplay.obj
 0001:00002e99       ??0_ATL_MSG@ATL@@QAE@PAUHWND__@@IIJH@Z 10003e99 f i GraphicDisplay.obj
 0001:00002ed1       ??1?$CComAggObject@VCOPOSGraphicDisplay@@@ATL@@UAE@XZ 10003ed1 f i GraphicDisplay.obj
 0001:00002ef5       ??1?$CComEnumImpl@UIEnumConnectionPoints@@$1?_GUID_b196b285_bab4_101a_b69c_00aa00341d07@@3U__s_GUID@@BPAUIConnectionPoint@@V?$_CopyInterface@UIConnectionPoint@@@ATL@@@ATL@@UAE@XZ 10003ef5 f i GraphicDisplay.obj
 0001:00002f35       ??1?$CComEnumImpl@UIEnumConnections@@$1?_GUID_b196b287_bab4_101a_b69c_00aa00341d07@@3U__s_GUID@@BUtagCONNECTDATA@@V?$_Copy@UtagCONNECTDATA@@@ATL@@@ATL@@UAE@XZ 10003f35 f i GraphicDisplay.obj
 0001:00002f75       ??1?$CComObject@V?$CComEnum@UIEnumConnectionPoints@@$1?_GUID_b196b285_bab4_101a_b69c_00aa00341d07@@3U__s_GUID@@BPAUIConnectionPoint@@V?$_CopyInterface@UIConnectionPoint@@@ATL@@VCComSingleThreadModel@6@@ATL@@@ATL@@UAE@XZ 10003f75 f i GraphicDisplay.obj
 0001:00002f98       ??1?$CComObject@V?$CComEnum@UIEnumConnections@@$1?_GUID_b196b287_bab4_101a_b69c_00aa00341d07@@3U__s_GUID@@BUtagCONNECTDATA@@V?$_Copy@UtagCONNECTDATA@@@ATL@@VCComSingleThreadModel@6@@ATL@@@ATL@@UAE@XZ 10003f98 f i GraphicDisplay.obj
 0001:00002fbb       ??1?$CComObject@VCOPOSGraphicDisplay@@@ATL@@UAE@XZ 10003fbb f i GraphicDisplay.obj
 0001:00003079       ??1?$CComObjectCached@VCComClassFactory@ATL@@@ATL@@UAE@XZ 10004079 f i GraphicDisplay.obj
 0001:0000308f       ??1?$CComObjectRootEx@VCComMultiThreadModel@ATL@@@ATL@@QAE@XZ 1000408f f i GraphicDisplay.obj
 0001:000030a4       ??1CRegObject@ATL@@UAE@XZ  100040a4 f i GraphicDisplay.obj
 0001:000030c4       ??4?$CComPtr@UIAdviseSink@@@ATL@@QAEPAUIAdviseSink@@PAU2@@Z 100040c4 f i GraphicDisplay.obj
 0001:000030c4       ??4?$CComPtr@UIOleClientSite@@@ATL@@QAEPAUIOleClientSite@@PAU2@@Z 100040c4 f i GraphicDisplay.obj
 0001:000030c4       ??4?$CComPtr@UIUnknown@@@ATL@@QAEPAUIUnknown@@PAU2@@Z 100040c4 f i GraphicDisplay.obj
 0001:000030f8       ??_G?$CComContainedObject@VCOPOSGraphicDisplay@@@ATL@@UAEPAXI@Z 100040f8 f i GraphicDisplay.obj
 0001:000030f8       ??_E?$CComContainedObject@VCOPOSGraphicDisplay@@@ATL@@UAEPAXI@Z 100040f8 f i GraphicDisplay.obj
 0001:0000311d       ??_G?$CComObject@VCOPOSGraphicDisplay@@@ATL@@UAEPAXI@Z 1000411d f i GraphicDisplay.obj
 0001:0000311d       ??_E?$CComObject@VCOPOSGraphicDisplay@@@ATL@@UAEPAXI@Z 1000411d f i GraphicDisplay.obj
 0001:00003142       ?Add@?$CSimpleArray@GV?$CSimpleArrayEqualHelper@G@ATL@@@ATL@@QAEHABG@Z 10004142 f i GraphicDisplay.obj
 0001:000031c6       ?Add@?$CSimpleMap@PA_WPA_WVCExpansionVectorEqualHelper@ATL@@@ATL@@QAEHABQA_W0@Z 100041c6 f i GraphicDisplay.obj
 0001:0000321b       ?Add@CComDynamicUnkArray@ATL@@QAEKPAUIUnknown@@@Z 1000421b f i GraphicDisplay.obj
 0001:000032d1       ?Add@CExpansionVector@ATL@@QAEHPB_W0@Z 100042d1 f i GraphicDisplay.obj
 0001:000033da       ?AddString@CParseBuffer@CRegParser@ATL@@QAEHPB_W@Z 100043da f i GraphicDisplay.obj
 0001:0000340f       ?AddTermFunc@CAtlModule@ATL@@QAEJP6GXK@ZK@Z 1000440f f i GraphicDisplay.obj
 0001:00003472       ?AddValue@CRegParser@ATL@@IAEJAAVCRegKey@2@PB_WPA_W@Z 10004472 f i GraphicDisplay.obj
 0001:0000378c       ?Allocate@?$CAtlSafeAllocBufferManager@VCCRTAllocator@ATL@@@_ATL_SAFE_ALLOCA_IMPL@ATL@@QAEPAXK@Z 1000478c f i GraphicDisplay.obj
 0001:000037b9       ?Allocate@?$CTempBuffer@E$0BAA@VCCRTAllocator@ATL@@@ATL@@QAEPAEI@Z 100047b9 f i GraphicDisplay.obj
 0001:000037e8       ?Allocate@?$CTempBuffer@_W$0BAA@VCCRTAllocator@ATL@@@ATL@@QAEPA_WI@Z 100047e8 f i GraphicDisplay.obj
 0001:00003817       ?Allocate@?$CTempBuffer@_W$0EAA@VCCRTAllocator@ATL@@@ATL@@QAEPA_WI@Z 10004817 f i GraphicDisplay.obj
 0001:00003846       ?AllocateHeap@?$CTempBuffer@E$0BAA@VCCRTAllocator@ATL@@@ATL@@AAEXI@Z 10004846 f i GraphicDisplay.obj
 0001:00003846       ?AllocateHeap@?$CTempBuffer@_W$0BAA@VCCRTAllocator@ATL@@@ATL@@AAEXI@Z 10004846 f i GraphicDisplay.obj
 0001:00003846       ?AllocateHeap@?$CTempBuffer@_W$0EAA@VCCRTAllocator@ATL@@@ATL@@AAEXI@Z 10004846 f i GraphicDisplay.obj
 0001:0000386b       ?Append@CParseBuffer@CRegParser@ATL@@QAEHPB_WH@Z 1000486b f i GraphicDisplay.obj
 0001:000038f9       ?AtlCoTaskMemCAlloc@ATL@@YAPAXKK@Z 100048f9 f i GraphicDisplay.obj
 0001:00003926       ?AtlCoTaskMemRecalloc@ATL@@YAPAXPAXKK@Z 10004926 f i GraphicDisplay.obj
 0001:00003956       ?AtlComModuleGetClassObject@ATL@@YGJPAU_ATL_COM_MODULE70@1@ABU_GUID@@1PAPAX@Z 10004956 f i GraphicDisplay.obj
 0001:00003a49       ?AtlComModuleRegisterServer@ATL@@YGJPAU_ATL_COM_MODULE70@1@HPBU_GUID@@@Z 10004a49 f i GraphicDisplay.obj
 0001:00003ad1       ?AtlComModuleUnregisterServer@ATL@@YGJPAU_ATL_COM_MODULE70@1@HPBU_GUID@@@Z 10004ad1 f i GraphicDisplay.obj
 0001:00003b59       ?AtlComQIPtrAssign2@ATL@@YAXPAPAUIUnknown@@PAU2@ABU_GUID@@@Z 10004b59 f i GraphicDisplay.obj
 0001:00003b88       ?AtlCreateTargetDC@ATL@@YGPAUHDC__@@PAU2@PAUtagDVTARGETDEVICE@@@Z 10004b88 f i GraphicDisplay.obj
 0001:00003bf1       ?AtlCrtErrorCheck@ATL@@YAHH@Z 10004bf1 f i GraphicDisplay.obj
 0001:00003c2c       ?AtlHiMetricToPixel@ATL@@YGXPBUtagSIZE@@PAU2@@Z 10004c2c f i GraphicDisplay.obj
 0001:00003ca1       ?AtlHresultFromLastError@ATL@@YAJXZ 10004ca1 f i GraphicDisplay.obj
 0001:00003cb8       ?AtlHresultFromWin32@ATL@@YAJK@Z 10004cb8 f i GraphicDisplay.obj
 0001:00003ccd       ?AtlInternalOleLoadFromStream@ATL@@YAJPAUIStream@@ABU_GUID@@PAPAXTClassesAllowedInStream@1@K@Z 10004ccd f i GraphicDisplay.obj
 0001:00003deb       ?AtlInternalQueryInterface@ATL@@YGJPAXPBU_ATL_INTMAP_ENTRY@1@ABU_GUID@@PAPAX@Z 10004deb f i GraphicDisplay.obj
 0001:00003e8e       ?AtlLoadTypeLib@ATL@@YGJPAUHINSTANCE__@@PB_WPAPA_WPAPAUITypeLib@@@Z 10004e8e f i GraphicDisplay.obj
 0001:0000406c       ?AtlRegisterClassCategoriesHelper@ATL@@YGJABU_GUID@@PBU_ATL_CATMAP_ENTRY@1@H@Z 1000506c f i GraphicDisplay.obj
 0001:00004368       ?AtlRegisterTypeLib@ATL@@YGJPAUHINSTANCE__@@PB_W@Z 10005368 f i GraphicDisplay.obj
 0001:000044f0       ?AtlThrowImpl@ATL@@YGXJ@Z  100054f0 f i GraphicDisplay.obj
 0001:0000450e       ?AtlUnRegisterTypeLib@ATL@@YGJPAUHINSTANCE__@@PB_W@Z 1000550e f i GraphicDisplay.obj
 0001:000045b9       ?AtlWinModuleAddCreateWndData@ATL@@YGXPAU_ATL_WIN_MODULE70@1@PAU_AtlCreateWndData@1@PAX@Z 100055b9 f i GraphicDisplay.obj
 0001:0000460d       ?AtlWinModuleExtractCreateWndData@ATL@@YGPAXPAU_ATL_WIN_MODULE70@1@@Z 1000560d f i GraphicDisplay.obj
 0001:00004670       ?AtlWinModuleRegisterClassExW@ATL@@YGGPAU_ATL_WIN_MODULE70@1@PBUtagWNDCLASSEXW@@@Z 10005670 f i GraphicDisplay.obj
 0001:000046af       ?CanForceRemoveKey@CRegParser@ATL@@IAEHPB_W@Z 100056af f i GraphicDisplay.obj
 0001:000046de       ?ChToByte@CRegParser@ATL@@KAE_W@Z 100056de f i GraphicDisplay.obj
 0001:00004711       ?Cleanup@CComTypeInfoHolder@ATL@@SGXK@Z 10005711 f i GraphicDisplay.obj
 0001:00004744       ?ClearReplacements@CExpansionVector@ATL@@QAEJXZ 10005744 f i GraphicDisplay.obj
 0001:00004781       ?Close@CRegKey@ATL@@QAEJXZ 10005781 f i GraphicDisplay.obj
 0001:0000479b       ?CreateInstance@?$CComCreator@V?$CComAggObject@VCOPOSGraphicDisplay@@@ATL@@@ATL@@SGJPAXABU_GUID@@PAPAX@Z 1000579b f i GraphicDisplay.obj
 0001:00004810       ?CreateInstance@?$CComCreator@V?$CComObject@VCOPOSGraphicDisplay@@@ATL@@@ATL@@SGJPAXABU_GUID@@PAPAX@Z 10005810 f i GraphicDisplay.obj
 0001:00004890       ?CreateInstance@?$CComObject@V?$CComEnum@UIEnumConnectionPoints@@$1?_GUID_b196b285_bab4_101a_b69c_00aa00341d07@@3U__s_GUID@@BPAUIConnectionPoint@@V?$_CopyInterface@UIConnectionPoint@@@ATL@@VCComSingleThreadModel@6@@ATL@@@ATL@@SGJPAPAV12@@Z 10005890 f i GraphicDisplay.obj
 0001:000048da       ?CreateInstance@?$CComObject@V?$CComEnum@UIEnumConnections@@$1?_GUID_b196b287_bab4_101a_b69c_00aa00341d07@@3U__s_GUID@@BUtagCONNECTDATA@@V?$_Copy@UtagCONNECTDATA@@@ATL@@VCComSingleThreadModel@6@@ATL@@@ATL@@SGJPAPAV12@@Z 100058da f i GraphicDisplay.obj
 0001:00004924       ?DefaultReflectionHandler@?$CWindowImplRoot@VCWindow@ATL@@@ATL@@SAHPAUHWND__@@IIJAAJ@Z 10005924 f i GraphicDisplay.obj
 0001:00004997       ?DeleteSubKey@CRegKey@ATL@@QAEJPB_W@Z 10005997 f i GraphicDisplay.obj
 0001:00004a10       ?DoEvent@COPOSGraphicDisplay@@IAEXIIJ@Z 10005a10 f i GraphicDisplay.obj
 0001:00004a90       ?DoVerbHide@?$IOleObjectImpl@VCOPOSGraphicDisplay@@@ATL@@QAEJPBUtagRECT@@PAUHWND__@@@Z 10005a90 f i GraphicDisplay.obj
 0001:00004ac6       ?DoVerbInPlaceActivate@?$IOleObjectImpl@VCOPOSGraphicDisplay@@@ATL@@QAEJPBUtagRECT@@PAUHWND__@@@Z 10005ac6 f i GraphicDisplay.obj
 0001:00004af9       ?DoVerbPrimary@?$IOleObjectImpl@VCOPOSGraphicDisplay@@@ATL@@QAEJPBUtagRECT@@PAUHWND__@@@Z 10005af9 f i GraphicDisplay.obj
 0001:00004b85       ?DoVerbProperties@CComControlBase@ATL@@QAEJPBUtagRECT@@PAUHWND__@@@Z 10005b85 f i GraphicDisplay.obj
 0001:00004d04       ?DoVerbUIActivate@?$IOleObjectImpl@VCOPOSGraphicDisplay@@@ATL@@QAEJPBUtagRECT@@PAUHWND__@@@Z 10005d04 f i GraphicDisplay.obj
 0001:00004d41       ?DoesVerbActivate@CComControlBase@ATL@@QAEHJ@Z 10005d41 f i GraphicDisplay.obj
 0001:00004d62       ?DoesVerbUIActivate@CComControlBase@ATL@@QAEHJ@Z 10005d62 f i GraphicDisplay.obj
 0001:00004d97       ?EndOfVar@CRegParser@ATL@@IAEHXZ 10005d97 f i GraphicDisplay.obj
 0001:00004db7       ?EscapeSingleQuote@CAtlModule@ATL@@SAXPA_WIPB_W@Z 10005db7 f i GraphicDisplay.obj
 0001:00004e06       ?FindKey@?$CSimpleMap@PA_WPA_WVCExpansionVectorEqualHelper@ATL@@@ATL@@QBEHABQA_W@Z 10005e06 f i GraphicDisplay.obj
 0001:00004e3d       ?FireTheEvent@?$CProxy_IOPOSEvents@VCOPOSGraphicDisplay@@@@IAEXPAVOposVariant@@IAAJPB_WJ@Z 10005e3d f i GraphicDisplay.obj
 0001:00004ecf       ?FireViewChange@CComControlBase@ATL@@QAEJXZ 10005ecf f i GraphicDisplay.obj
 0001:00004f18       ?Fire_DirectIOEvent@?$CProxy_IOPOSEvents@VCOPOSGraphicDisplay@@@@QAEXJPAJPAPA_W@Z 10005f18 f i GraphicDisplay.obj
 0001:00005004       ?Fire_ErrorEvent@?$CProxy_IOPOSEvents@VCOPOSGraphicDisplay@@@@QAEXJJJPAJ@Z 10006004 f i GraphicDisplay.obj
 0001:000050f5       ?Fire_OutputCompleteEvent@?$CProxy_IOPOSEvents@VCOPOSGraphicDisplay@@@@QAEXJ@Z 100060f5 f i GraphicDisplay.obj
 0001:0000518b       ?Fire_StatusUpdateEvent@?$CProxy_IOPOSEvents@VCOPOSGraphicDisplay@@@@QAEXJ@Z 1000618b f i GraphicDisplay.obj
 0001:00005221       ?FreeHeap@?$CTempBuffer@_W$0EAA@VCCRTAllocator@ATL@@@ATL@@AAEXXZ 10006221 f i GraphicDisplay.obj
 0001:00005221       ?FreeHeap@?$CTempBuffer@E$0BAA@VCCRTAllocator@ATL@@@ATL@@AAEXXZ 10006221 f i GraphicDisplay.obj
 0001:00005221       ?FreeHeap@?$CTempBuffer@_W$0BAA@VCCRTAllocator@ATL@@@ATL@@AAEXXZ 10006221 f i GraphicDisplay.obj
 0001:0000522a       ?GetAmbientLocaleID@CComControlBase@ATL@@QAEJAAK@Z 1000622a f i GraphicDisplay.obj
 0001:00005286       ?GetAmbientUserMode@CComControlBase@ATL@@QAEJAAH@Z 10006286 f i GraphicDisplay.obj
 0001:000052f6       ?GetAt@CComDynamicUnkArray@ATL@@QAEPAUIUnknown@@H@Z 100062f6 f i GraphicDisplay.obj
 0001:00005312       ?GetClassObject@CComModule@ATL@@QAEJABU_GUID@@0PAPAX@Z 10006312 f i GraphicDisplay.obj
 0001:000053b4       ?GetConnMap@COPOSGraphicDisplay@@SAPBU_ATL_CONNMAP_ENTRY@ATL@@PAH@Z 100063b4 f i GraphicDisplay.obj
 0001:00005424       ?GetCookie@CComDynamicUnkArray@ATL@@QAGKPAPAUIUnknown@@@Z 10006424 f i GraphicDisplay.obj
 0001:0000545c       ?GetIDsOfNames@CComTypeInfoHolder@ATL@@QAEJABU_GUID@@PAPA_WIKPAJ@Z 1000645c f i GraphicDisplay.obj
 0001:00005583       ?GetKeyAt@?$CSimpleMap@PA_WPA_WVCExpansionVectorEqualHelper@ATL@@@ATL@@QBEAAPA_WH@Z 10006583 f i GraphicDisplay.obj
 0001:000055a8       ?GetPagesHelper@?$ISpecifyPropertyPagesImpl@VCOPOSGraphicDisplay@@@ATL@@IAEJPAUtagCAUUID@@PBUATL_PROPMAP_ENTRY@2@@Z 100065a8 f i GraphicDisplay.obj
 0001:000056cf       ?GetProperty@?$CComPtr@UIDispatch@@@ATL@@SAJPAUIDispatch@@JPAUtagVARIANT@@@Z 100066cf f i GraphicDisplay.obj
 0001:0000571e       ?GetSizeMax@CComVariant@ATL@@QBEJPAT_ULARGE_INTEGER@@@Z 1000671e f i GraphicDisplay.obj
 0001:000058e0       ?GetTI@CComTypeInfoHolder@ATL@@QAEJK@Z 100068e0 f i GraphicDisplay.obj
 0001:00005abf       ?GetTI@CComTypeInfoHolder@ATL@@QAEJKPAPAUITypeInfo@@@Z 10006abf f i GraphicDisplay.obj
 0001:00005b01       ?GetUnknown@CComDynamicUnkArray@ATL@@QAGPAUIUnknown@@K@Z 10006b01 f i GraphicDisplay.obj
 0001:00005b22       ?GetValueAt@?$CSimpleMap@PA_WPA_WVCExpansionVectorEqualHelper@ATL@@@ATL@@QBEAAPA_WH@Z 10006b22 f i GraphicDisplay.obj
 0001:00005b48       ?GetZoomInfo@CComControlBase@ATL@@QAEXAAUATL_DRAWINFO@@@Z 10006b48 f i GraphicDisplay.obj
 0001:00005bdb       ?HKeyFromString@CRegParser@ATL@@KAPAUHKEY__@@PA_W@Z 10006bdb f i GraphicDisplay.obj
 0001:00005c09       ?HasSubKeys@CRegParser@ATL@@IAEHPAUHKEY__@@@Z 10006c09 f i GraphicDisplay.obj
 0001:00005c3e       ?IDataObject_GetData@CComControlBase@ATL@@QAEJPAUtagFORMATETC@@PAUtagSTGMEDIUM@@@Z 10006c3e f i GraphicDisplay.obj
 0001:00005de4       ?IOleInPlaceObject_InPlaceDeactivate@CComControlBase@ATL@@QAEJXZ 10006de4 f i GraphicDisplay.obj
 0001:00005e6b       ?IOleInPlaceObject_SetObjectRects@CComControlBase@ATL@@QAEJPBUtagRECT@@0@Z 10006e6b f i GraphicDisplay.obj
 0001:00005f38       ?IOleInPlaceObject_UIDeactivate@CComControlBase@ATL@@QAEJXZ 10006f38 f i GraphicDisplay.obj
 0001:00005ffa       ?IOleObject_Advise@CComControlBase@ATL@@QAEJPAUIAdviseSink@@PAK@Z 10006ffa f i GraphicDisplay.obj
 0001:00006024       ?IOleObject_Close@CComControlBase@ATL@@QAEJK@Z 10007024 f i GraphicDisplay.obj
 0001:00006108       ?IOleObject_GetClientSite@CComControlBase@ATL@@QAEJPAPAUIOleClientSite@@@Z 10007108 f i GraphicDisplay.obj
 0001:00006131       ?IOleObject_SetClientSite@CComControlBase@ATL@@QAEJPAUIOleClientSite@@@Z 10007131 f i GraphicDisplay.obj
 0001:00006170       ?IOleObject_SetExtent@CComControlBase@ATL@@QAEJKPAUtagSIZE@@@Z 10007170 f i GraphicDisplay.obj
 0001:00006222       ?IPSI_GetIPersistStreamInit@?$IPersistStorageImpl@VCOPOSGraphicDisplay@@@ATL@@AAEPAUIPersistStreamInit@@XZ 10007222 f i GraphicDisplay.obj
 0001:000062ca       ?IPersistStreamInit_Load@?$IPersistStreamInitImpl@VCOPOSGraphicDisplay@@@ATL@@QAEJPAUIStream@@PBUATL_PROPMAP_ENTRY@2@@Z 100072ca f i GraphicDisplay.obj
 0001:0000653f       ?IPersistStreamInit_Save@?$IPersistStreamInitImpl@VCOPOSGraphicDisplay@@@ATL@@QAEJPAUIStream@@HPBUATL_PROPMAP_ENTRY@2@@Z 1000753f f i GraphicDisplay.obj
 0001:0000672d       ?IQuickActivate_QuickActivate@CComControlBase@ATL@@QAEJPAUtagQACONTAINER@@PAUtagQACONTROL@@@Z 1000772d f i GraphicDisplay.obj
 0001:0000696f       ?IViewObject_Draw@CComControlBase@ATL@@QAEJKJPAXPAUtagDVTARGETDEVICE@@PAUHDC__@@2PBU_RECTL@@3@Z 1000796f f i GraphicDisplay.obj
 0001:00006a17       ?InPlaceActivate@CComControlBase@ATL@@QAEJJPBUtagRECT@@@Z 10007a17 f i GraphicDisplay.obj
 0001:00006c88       ?Init@?$CComEnumImpl@UIEnumConnectionPoints@@$1?_GUID_b196b285_bab4_101a_b69c_00aa00341d07@@3U__s_GUID@@BPAUIConnectionPoint@@V?$_CopyInterface@UIConnectionPoint@@@ATL@@@ATL@@QAEJPAPAUIConnectionPoint@@0PAUIUnknown@@W4CComEnumFlags@2@@Z 10007c88 f i GraphicDisplay.obj
 0001:00006d67       ?Init@?$CComEnumImpl@UIEnumConnections@@$1?_GUID_b196b287_bab4_101a_b69c_00aa00341d07@@3U__s_GUID@@BUtagCONNECTDATA@@V?$_Copy@UtagCONNECTDATA@@@ATL@@@ATL@@QAEJPAUtagCONNECTDATA@@0PAUIUnknown@@W4CComEnumFlags@2@@Z 10007d67 f i GraphicDisplay.obj
 0001:00006e46       ?Init@CComModule@ATL@@QAEJPAU_ATL_OBJMAP_ENTRY30@2@PAUHINSTANCE__@@PBU_GUID@@@Z 10007e46 f i GraphicDisplay.obj
 0001:00006ea5       ?Init@CDynamicStdCallThunk2@ATL@@QAEHKPAX@Z 10007ea5 f i GraphicDisplay.obj
 0001:00006ed0       ?InlineIsEqualUnknown@ATL@@YGHABU_GUID@@@Z 10007ed0 f i GraphicDisplay.obj
 0001:00006ef8       ?InternalSetAtIndex@?$CSimpleMap@PA_WPA_WVCExpansionVectorEqualHelper@ATL@@@ATL@@QAEXHABQA_W0@Z 10007ef8 f i GraphicDisplay.obj
 0001:00006f22       ?Invoke@CComTypeInfoHolder@ATL@@QAEJPAUIDispatch@@JABU_GUID@@KGPAUtagDISPPARAMS@@PAUtagVARIANT@@PAUtagEXCEPINFO@@PAI@Z 10007f22 f i GraphicDisplay.obj
 0001:00006f65       ?IsEqualObject@?$CComPtrBase@UITypeInfo@@@ATL@@QAE_NPAUIUnknown@@@Z 10007f65 f i GraphicDisplay.obj
 0001:00006f65       ?IsEqualObject@?$CComPtrBase@UIOleClientSite@@@ATL@@QAE_NPAUIUnknown@@@Z 10007f65 f i GraphicDisplay.obj
 0001:00006fd2       ?IsSpace@CRegParser@ATL@@IAEH_W@Z 10007fd2 f i GraphicDisplay.obj
 0001:00006ffc       ?LoadNameCache@CComTypeInfoHolder@ATL@@QAEJPAUITypeInfo@@@Z 10007ffc f i GraphicDisplay.obj
 0001:00007131       ?Lookup@?$CSimpleMap@PA_WPA_WVCExpansionVectorEqualHelper@ATL@@@ATL@@QBEPA_WABQA_W@Z 10008131 f i GraphicDisplay.obj
 0001:00007157       ?NextToken@CRegParser@ATL@@IAEJPA_W@Z 10008157 f i GraphicDisplay.obj
 0001:0000728f       ?OnKillFocus@CComControlBase@ATL@@QAEJIIJAAH@Z 1000828f f i GraphicDisplay.obj
 0001:000072ea       ?OnMouseActivate@CComControlBase@ATL@@QAEJIIJAAH@Z 100082ea f i GraphicDisplay.obj
 0001:00007358       ?OnPaint@CComControlBase@ATL@@QAEJIIJAAH@Z 10008358 f i GraphicDisplay.obj
 0001:0000740a       ?OnSetFocus@CComControlBase@ATL@@QAEJIIJAAH@Z 1000840a f i GraphicDisplay.obj
 0001:00007493       ?Open@CRegKey@ATL@@QAEJPAUHKEY__@@PB_WK@Z 10008493 f i GraphicDisplay.obj
 0001:000074e8       ?PreProcessBuffer@CRegParser@ATL@@QAEJPA_WPAPA_W@Z 100084e8 f i GraphicDisplay.obj
 0001:00007757       ?ProcessWindowMessage@?$CComControl@VCOPOSGraphicDisplay@@V?$CWindowImpl@VCOPOSGraphicDisplay@@VCWindow@ATL@@V?$CWinTraits@$0FGAAAAAA@$0A@@3@@ATL@@@ATL@@UAEHPAUHWND__@@IIJAAJK@Z 10008757 f i GraphicDisplay.obj
 0001:000077f6       ?ReadFromStream@CComBSTR@ATL@@QAEJPAUIStream@@@Z 100087f6 f i GraphicDisplay.obj
 0001:00007919       ?ReadFromStream@CComVariant@ATL@@QAEJPAUIStream@@GTClassesAllowedInStream@2@K@Z 10008919 f i GraphicDisplay.obj
 0001:00007aa3       ?RecurseDeleteKey@CRegKey@ATL@@QAEJPB_W@Z 10008aa3 f i GraphicDisplay.obj
 0001:00007b91       ?RegCreateKeyExW@CAtlTransactionManager@ATL@@QAEJPAUHKEY__@@PB_WKPA_WKKQAU_SECURITY_ATTRIBUTES@@PAPAU3@PAK@Z 10008b91 f i GraphicDisplay.obj
 0001:00007bf4       ?RegDeleteKeyW@CAtlTransactionManager@ATL@@QAEJPAUHKEY__@@PB_W@Z 10008bf4 f i GraphicDisplay.obj
 0001:00007c46       ?RegOpenKeyExW@CAtlTransactionManager@ATL@@QAEJPAUHKEY__@@PB_WKKPAPAU3@@Z 10008c46 f i GraphicDisplay.obj
 0001:00007c9d       ?Register@_ATL_WNDCLASSINFOW@ATL@@QAEGPAP6GJPAUHWND__@@IIJ@Z@Z 10008c9d f i GraphicDisplay.obj
 0001:00007cbd       ?RegisterBuffer@CRegParser@ATL@@QAEJPA_WH@Z 10008cbd f i GraphicDisplay.obj
 0001:00007e04       ?RegisterFromResource@CRegObject@ATL@@IAEJPB_W00H@Z 10008e04 f i GraphicDisplay.obj
 0001:00007f3a       ?RegisterServer@?$CAtlModuleT@VCComModule@ATL@@@ATL@@QAEJHPBU_GUID@@@Z 10008f3a f i GraphicDisplay.obj
 0001:00007f68       ?RegisterServer@CComModule@ATL@@QAEJHPBU_GUID@@@Z 10008f68 f i GraphicDisplay.obj
 0001:00007fde       ?RegisterSubkeys@CRegParser@ATL@@IAEJPA_WPAUHKEY__@@HH@Z 10008fde f i GraphicDisplay.obj
 0001:0000868b       ?Remove@CComDynamicUnkArray@ATL@@QAEHK@Z 1000968b f i GraphicDisplay.obj
 0001:000086b4       ?RemoveAll@?$CSimpleMap@PA_WPA_WVCExpansionVectorEqualHelper@ATL@@@ATL@@QAEXXZ 100096b4 f i GraphicDisplay.obj
 0001:000086e0       ?ResourceRegisterSz@CRegObject@ATL@@QAGJPB_W00@Z 100096e0 f i GraphicDisplay.obj
 0001:0000870d       ?ResourceUnregisterSz@CRegObject@ATL@@QAGJPB_W00@Z 1000970d f i GraphicDisplay.obj
 0001:0000873a       ?SendOnDataChange@CComControlBase@ATL@@QAEJK@Z 1000973a f i GraphicDisplay.obj
 0001:00008787       ?SetControlFocus@CComControlBase@ATL@@QAEHH@Z 10009787 f i GraphicDisplay.obj
 0001:00008824       ?SetMultiStringValue@CRegKey@ATL@@QAEJPB_W0@Z 10009824 f i GraphicDisplay.obj
 0001:00008880       ?SetStringValue@CRegKey@ATL@@QAEJPB_W0K@Z 10009880 f i GraphicDisplay.obj
 0001:000088c9       ?SkipAssignment@CRegParser@ATL@@IAEJPA_W@Z 100098c9 f i GraphicDisplay.obj
 0001:0000892e       ?SkipWhiteSpace@CRegParser@ATL@@IAEXXZ 1000992e f i GraphicDisplay.obj
 0001:00008950       ?StrChrW@CRegParser@ATL@@KAPA_WPA_W_W@Z 10009950 f i GraphicDisplay.obj
 0001:0000898d       ?Term@CAtlModule@ATL@@QAEXXZ 1000998d f i GraphicDisplay.obj
 0001:000089e0       ?Term@CComModule@ATL@@QAEXXZ 100099e0 f i GraphicDisplay.obj
 0001:00008a38       ?UnregisterServer@?$CAtlModuleT@VCComModule@ATL@@@ATL@@QAEJHPBU_GUID@@@Z 10009a38 f i GraphicDisplay.obj
 0001:00008a5e       ?UnregisterServer@CComModule@ATL@@QAEJHPBU_GUID@@@Z 10009a5e f i GraphicDisplay.obj
 0001:00008ad4       ?UpdateRegistryFromResource@CAtlModule@ATL@@QAGJIHPAU_ATL_REGMAP_ENTRY@2@@Z 10009ad4 f i GraphicDisplay.obj
 0001:00008c9f       ?UpdateRegistryFromResource@CAtlModule@ATL@@QAGJPB_WHPAU_ATL_REGMAP_ENTRY@2@@Z 10009c9f f i GraphicDisplay.obj
 0001:00008e70       ?VTFromRegType@CRegParser@ATL@@KAHPB_WAAG@Z 10009e70 f i GraphicDisplay.obj
 0001:00008edd       ?WindowProc@?$CWindowImplBaseT@VCWindow@ATL@@V?$CWinTraits@$0FGAAAAAA@$0A@@2@@ATL@@SGJPAUHWND__@@IIJ@Z 10009edd f i GraphicDisplay.obj
 0001:00008fcf       ?WriteToStream@CComBSTR@ATL@@QAEJPAUIStream@@@Z 10009fcf f i GraphicDisplay.obj
 0001:00009031       ?WriteToStream@CComVariant@ATL@@QAEJPAUIStream@@@Z 1000a031 f i GraphicDisplay.obj
 0001:000091ab       ?WriteToStream@CComVariant@ATL@@QAEJPAUIStream@@G@Z 1000a1ab f i GraphicDisplay.obj
 0001:00009214       ?_AtlInitialConstruct@?$CComObjectRootEx@VCComMultiThreadModel@ATL@@@ATL@@QAEJXZ 1000a214 f i GraphicDisplay.obj
 0001:00009229       ?_AtlVerifyStackAvailable@_ATL_SAFE_ALLOCA_IMPL@ATL@@YA_NK@Z 1000a229 f i GraphicDisplay.obj
 0001:000092a7       ?atlCreate@?$CWindowImpl@VCOPOSGraphicDisplay@@VCWindow@ATL@@V?$CWinTraits@$0FGAAAAAA@$0A@@3@@ATL@@QAEPAUHWND__@@PAU3@V_U_RECT@2@PB_WKKV_U_MENUorID@2@PAX@Z 1000a2a7 f i GraphicDisplay.obj
 0001:000092eb       ?atlCreate@?$CWindowImplBaseT@VCWindow@ATL@@V?$CWinTraits@$0FGAAAAAA@$0A@@2@@ATL@@QAEPAUHWND__@@PAU3@V_U_RECT@2@PB_WKKV_U_MENUorID@2@GPAX@Z 1000a2eb f i GraphicDisplay.obj
 0001:00009387       ?copy@?$_Copy@UtagCONNECTDATA@@@ATL@@SAJPAUtagCONNECTDATA@@PBU3@@Z 1000a387 f i GraphicDisplay.obj
 0001:000093bd       ?copy@?$_CopyInterface@UIConnectionPoint@@@ATL@@SAJPAPAUIConnectionPoint@@PBQAU3@@Z 1000a3bd f i GraphicDisplay.obj
 0001:000093eb       ?memcpy_s@Checked@ATL@@YAXPAXIPBXI@Z 1000a3eb f i GraphicDisplay.obj
 0001:0000940a       ?ocscpy_s@@YA_NPA_WIPB_W@Z 1000a40a f i GraphicDisplay.obj
 0001:00009454       ?wcscpy_s@Checked@ATL@@YAXPA_WIPB_W@Z 1000a454 f i GraphicDisplay.obj
 0001:00009470       _DllCanUnloadNow@0         1000a470 f   GraphicDisplay.obj
 0001:0000947c       _DllGetClassObject@12      1000a47c f   GraphicDisplay.obj
 0001:0000948a       _DllMain@12                1000a48a f   GraphicDisplay.obj
 0001:000094cc       _DllRegisterServer@0       1000a4cc f   GraphicDisplay.obj
 0001:000094db       _DllUnregisterServer@0     1000a4db f   GraphicDisplay.obj
 0001:000094ea       _InlineIsEqualGUID         1000a4ea f i GraphicDisplay.obj
 0001:0000951a       ___local_stdio_printf_options 1000a51a f i GraphicDisplay.obj
 0001:00009520       __vswprintf_s_l            1000a520 f i GraphicDisplay.obj
 0001:000095cd       _swprintf_s                1000a5cd f i GraphicDisplay.obj
 0001:000095e9       ??0?$CComControl@VCOPOSGraphicDisplay@@V?$CWindowImpl@VCOPOSGraphicDisplay@@VCWindow@ATL@@V?$CWinTraits@$0FGAAAAAA@$0A@@3@@ATL@@@ATL@@QAE@XZ 1000a5e9 f i GraphicDisplayImpl.obj
 0001:00009610       ??0?$CProxy_IOPOSEvents@VCOPOSGraphicDisplay@@@@QAE@XZ 1000a610 f i GraphicDisplayImpl.obj
 0001:00009633       ??0CComControlBase@ATL@@QAE@AAPAUHWND__@@@Z 1000a633 f i GraphicDisplayImpl.obj
 0001:00009683       ??0COPOSGraphicDisplay@@QAE@XZ 1000a683 f   GraphicDisplayImpl.obj
 0001:000096b9       ??1?$CComControl@VCOPOSGraphicDisplay@@V?$CWindowImpl@VCOPOSGraphicDisplay@@VCWindow@ATL@@V?$CWinTraits@$0FGAAAAAA@$0A@@3@@ATL@@@ATL@@UAE@XZ 1000a6b9 f i GraphicDisplayImpl.obj
 0001:000096d2       ??1?$IConnectionPointImpl@VCOPOSGraphicDisplay@@$1?DIID__IOPOSGraphicDisplayEvents@@3U_GUID@@BVCComDynamicUnkArray@ATL@@@ATL@@QAE@XZ 1000a6d2 f i GraphicDisplayImpl.obj
 0001:000096d2       ??1?$IConnectionPointImpl@VCOPOSGraphicDisplay@@$1?IID_IPropertyNotifySink@@3U_GUID@@BVCComDynamicUnkArray@ATL@@@ATL@@QAE@XZ 1000a6d2 f i GraphicDisplayImpl.obj
 0001:0000970f       ??1CComControlBase@ATL@@UAE@XZ 1000a70f f i GraphicDisplayImpl.obj
 0001:00009772       ??1COPOSGraphicDisplay@@UAE@XZ 1000a772 f   GraphicDisplayImpl.obj
 0001:000097ba       ?CancelLoading@COPOSGraphicDisplay@@UAGJPAJ@Z 1000a7ba f   GraphicDisplayImpl.obj
 0001:000097d5       ?CheckHealth@COPOSGraphicDisplay@@UAGJJPAJ@Z 1000a7d5 f   GraphicDisplayImpl.obj
 0001:00009824       ?ClaimDevice@COPOSGraphicDisplay@@UAGJJPAJ@Z 1000a824 f   GraphicDisplayImpl.obj
 0001:00009899       ?ClearOutput@COPOSGraphicDisplay@@UAGJPAJ@Z 1000a899 f   GraphicDisplayImpl.obj
 0001:000098b4       ?Close@COPOSGraphicDisplay@@UAGJPAJ@Z 1000a8b4 f   GraphicDisplayImpl.obj
 0001:00009922       ?CompareFirmwareVersion@COPOSGraphicDisplay@@UAGJPA_WPAJ1@Z 1000a922 f   GraphicDisplayImpl.obj
 0001:000099a2       ?DirectIO@COPOSGraphicDisplay@@UAGJJPAJPAPA_W0@Z 1000a9a2 f   GraphicDisplayImpl.obj
 0001:00009a50       ?DoInvoke@COPOSGraphicDisplay@@IAEJJPAVOposVariant@@IHPAJ_N@Z 1000aa50 f   GraphicDisplayImpl.obj
 0001:00009b2c       ?EventClose@COPOSGraphicDisplay@@IAEXXZ 1000ab2c f i GraphicDisplayImpl.obj
 0001:00009b5f       ?EventInit@COPOSGraphicDisplay@@IAEJXZ 1000ab5f f i GraphicDisplayImpl.obj
 0001:00009c2b       ?EventUninit@COPOSGraphicDisplay@@IAEXXZ 1000ac2b f i GraphicDisplayImpl.obj
 0001:00009c7d       ?EventWindowProc@COPOSGraphicDisplay@@IAGJIIJ@Z 1000ac7d f i GraphicDisplayImpl.obj
 0001:00009d50       ?FinalConstruct@COPOSGraphicDisplay@@QAEJXZ 1000ad50 f   GraphicDisplayImpl.obj
 0001:00009d89       ?FireEventCleanup@COPOSGraphicDisplay@@IAEXXZ 1000ad89 f i GraphicDisplayImpl.obj
 0001:00009d9f       ?FireEventSetup@COPOSGraphicDisplay@@IAE_NXZ 1000ad9f f i GraphicDisplayImpl.obj
 0001:00009dd3       ?FreezeEvents@COPOSGraphicDisplay@@MAGJH@Z 1000add3 f   GraphicDisplayImpl.obj
 0001:00009e33       ?GetOposProp@COPOSGraphicDisplay@@IAEJJPAFJ@Z 1000ae33 f   GraphicDisplayImpl.obj
 0001:00009e56       ?GetOposProp@COPOSGraphicDisplay@@IAEJJPAJJ@Z 1000ae56 f   GraphicDisplayImpl.obj
 0001:00009f25       ?GetOposProp@COPOSGraphicDisplay@@IAEJJPAPA_WJ@Z 1000af25 f   GraphicDisplayImpl.obj
 0001:0000a001       ?GoURLBack@COPOSGraphicDisplay@@UAGJPAJ@Z 1000b001 f   GraphicDisplayImpl.obj
 0001:0000a01c       ?GoURLForward@COPOSGraphicDisplay@@UAGJPAJ@Z 1000b01c f   GraphicDisplayImpl.obj
 0001:0000a037       ?LoadImageW@COPOSGraphicDisplay@@UAGJPA_WPAJ@Z 1000b037 f   GraphicDisplayImpl.obj
 0001:0000a08e       ?LoadURL@COPOSGraphicDisplay@@UAGJPA_WPAJ@Z 1000b08e f   GraphicDisplayImpl.obj
 0001:0000a0e5       ?OnDraw@COPOSGraphicDisplay@@MAEJAAUATL_DRAWINFO@@@Z 1000b0e5 f   GraphicDisplayImpl.obj
 0001:0000a185       ?Open@COPOSGraphicDisplay@@UAGJPA_WPAJ@Z 1000b185 f   GraphicDisplayImpl.obj
 0001:0000a9c7       ?PlayVideo@COPOSGraphicDisplay@@UAGJPA_WFPAJ@Z 1000b9c7 f   GraphicDisplayImpl.obj
 0001:0000aa43       ?ReleaseDevice@COPOSGraphicDisplay@@UAGJPAJ@Z 1000ba43 f   GraphicDisplayImpl.obj
 0001:0000aa92       ?ResetStatistics@COPOSGraphicDisplay@@UAGJPA_WPAJ@Z 1000ba92 f   GraphicDisplayImpl.obj
 0001:0000aae9       ?RetrieveStatistics@COPOSGraphicDisplay@@UAGJPAPA_WPAJ@Z 1000bae9 f   GraphicDisplayImpl.obj
 0001:0000ab40       ?SOProcessID@COPOSGraphicDisplay@@UAGJPAJ@Z 1000bb40 f   GraphicDisplayImpl.obj
 0001:0000ab54       ?SetCOFreezeEvents@COPOSGraphicDisplay@@IAEXF@Z 1000bb54 f   GraphicDisplayImpl.obj
 0001:0000abf4       ?SetOposProp@COPOSGraphicDisplay@@IAEJJJJ@Z 1000bbf4 f   GraphicDisplayImpl.obj
 0001:0000aceb       ?SetOposProp@COPOSGraphicDisplay@@IAEJJPA_WJ@Z 1000bceb f   GraphicDisplayImpl.obj
 0001:0000adec       ?StopVideo@COPOSGraphicDisplay@@UAGJPAJ@Z 1000bdec f   GraphicDisplayImpl.obj
 0001:0000ae07       ?UpdateFirmware@COPOSGraphicDisplay@@UAGJPA_WPAJ@Z 1000be07 f   GraphicDisplayImpl.obj
 0001:0000ae5e       ?UpdatePage@COPOSGraphicDisplay@@UAGJPAJ@Z 1000be5e f   GraphicDisplayImpl.obj
 0001:0000ae79       ?UpdateStatistics@COPOSGraphicDisplay@@UAGJPA_WPAJ@Z 1000be79 f   GraphicDisplayImpl.obj
 0001:0000aed0       ?get_BinaryConversion@COPOSGraphicDisplay@@UAGJPAJ@Z 1000bed0 f   GraphicDisplayImpl.obj
 0001:0000aee6       ?get_Brightness@COPOSGraphicDisplay@@UAGJPAJ@Z 1000bee6 f   GraphicDisplayImpl.obj
 0001:0000aeff       ?get_CapAssociatedHardTotalsDevice@COPOSGraphicDisplay@@UAGJPAPA_W@Z 1000beff f   GraphicDisplayImpl.obj
 0001:0000af18       ?get_CapBrightness@COPOSGraphicDisplay@@UAGJPAF@Z 1000bf18 f   GraphicDisplayImpl.obj
 0001:0000af31       ?get_CapCompareFirmwareVersion@COPOSGraphicDisplay@@UAGJPAF@Z 1000bf31 f   GraphicDisplayImpl.obj
 0001:0000af4a       ?get_CapImageType@COPOSGraphicDisplay@@UAGJPAF@Z 1000bf4a f   GraphicDisplayImpl.obj
 0001:0000af63       ?get_CapPowerReporting@COPOSGraphicDisplay@@UAGJPAJ@Z 1000bf63 f   GraphicDisplayImpl.obj
 0001:0000af7c       ?get_CapStatisticsReporting@COPOSGraphicDisplay@@UAGJPAF@Z 1000bf7c f   GraphicDisplayImpl.obj
 0001:0000af95       ?get_CapStorage@COPOSGraphicDisplay@@UAGJPAJ@Z 1000bf95 f   GraphicDisplayImpl.obj
 0001:0000afae       ?get_CapURLBack@COPOSGraphicDisplay@@UAGJPAF@Z 1000bfae f   GraphicDisplayImpl.obj
 0001:0000afc7       ?get_CapURLForward@COPOSGraphicDisplay@@UAGJPAF@Z 1000bfc7 f   GraphicDisplayImpl.obj
 0001:0000afe0       ?get_CapUpdateFirmware@COPOSGraphicDisplay@@UAGJPAF@Z 1000bfe0 f   GraphicDisplayImpl.obj
 0001:0000aff9       ?get_CapUpdateStatistics@COPOSGraphicDisplay@@UAGJPAF@Z 1000bff9 f   GraphicDisplayImpl.obj
 0001:0000b012       ?get_CapVideoType@COPOSGraphicDisplay@@UAGJPAF@Z 1000c012 f   GraphicDisplayImpl.obj
 0001:0000b02b       ?get_CapVolume@COPOSGraphicDisplay@@UAGJPAF@Z 1000c02b f   GraphicDisplayImpl.obj
 0001:0000b044       ?get_CheckHealthText@COPOSGraphicDisplay@@UAGJPAPA_W@Z 1000c044 f   GraphicDisplayImpl.obj
 0001:0000b05d       ?get_Claimed@COPOSGraphicDisplay@@UAGJPAF@Z 1000c05d f   GraphicDisplayImpl.obj
 0001:0000b073       ?get_ControlObjectDescription@COPOSGraphicDisplay@@UAGJPAPA_W@Z 1000c073 f   GraphicDisplayImpl.obj
 0001:0000b0c1       ?get_ControlObjectVersion@COPOSGraphicDisplay@@UAGJPAJ@Z 1000c0c1 f   GraphicDisplayImpl.obj
 0001:0000b0d4       ?get_DeviceDescription@COPOSGraphicDisplay@@UAGJPAPA_W@Z 1000c0d4 f   GraphicDisplayImpl.obj
 0001:0000b0ed       ?get_DeviceEnabled@COPOSGraphicDisplay@@UAGJPAF@Z 1000c0ed f   GraphicDisplayImpl.obj
 0001:0000b103       ?get_DeviceName@COPOSGraphicDisplay@@UAGJPAPA_W@Z 1000c103 f   GraphicDisplayImpl.obj
 0001:0000b11c       ?get_DisplayMode@COPOSGraphicDisplay@@UAGJPAJ@Z 1000c11c f   GraphicDisplayImpl.obj
 0001:0000b135       ?get_FreezeEvents@COPOSGraphicDisplay@@UAGJPAF@Z 1000c135 f   GraphicDisplayImpl.obj
 0001:0000b14b       ?get_ImageType@COPOSGraphicDisplay@@UAGJPAPA_W@Z 1000c14b f   GraphicDisplayImpl.obj
 0001:0000b164       ?get_ImageTypeList@COPOSGraphicDisplay@@UAGJPAPA_W@Z 1000c164 f   GraphicDisplayImpl.obj
 0001:0000b17d       ?get_LoadStatus@COPOSGraphicDisplay@@UAGJPAJ@Z 1000c17d f   GraphicDisplayImpl.obj
 0001:0000b196       ?get_OpenResult@COPOSGraphicDisplay@@UAGJPAJ@Z 1000c196 f   GraphicDisplayImpl.obj
 0001:0000b1ad       ?get_OutputID@COPOSGraphicDisplay@@UAGJPAJ@Z 1000c1ad f   GraphicDisplayImpl.obj
 0001:0000b1c3       ?get_PowerNotify@COPOSGraphicDisplay@@UAGJPAJ@Z 1000c1c3 f   GraphicDisplayImpl.obj
 0001:0000b1d9       ?get_PowerState@COPOSGraphicDisplay@@UAGJPAJ@Z 1000c1d9 f   GraphicDisplayImpl.obj
 0001:0000b1ef       ?get_ResultCode@COPOSGraphicDisplay@@UAGJPAJ@Z 1000c1ef f   GraphicDisplayImpl.obj
 0001:0000b22d       ?get_ResultCodeExtended@COPOSGraphicDisplay@@UAGJPAJ@Z 1000c22d f   GraphicDisplayImpl.obj
 0001:0000b243       ?get_ServiceObjectDescription@COPOSGraphicDisplay@@UAGJPAPA_W@Z 1000c243 f   GraphicDisplayImpl.obj
 0001:0000b25c       ?get_ServiceObjectVersion@COPOSGraphicDisplay@@UAGJPAJ@Z 1000c25c f   GraphicDisplayImpl.obj
 0001:0000b272       ?get_State@COPOSGraphicDisplay@@UAGJPAJ@Z 1000c272 f   GraphicDisplayImpl.obj
 0001:0000b29e       ?get_Storage@COPOSGraphicDisplay@@UAGJPAJ@Z 1000c29e f   GraphicDisplayImpl.obj
 0001:0000b2b7       ?get_URL@COPOSGraphicDisplay@@UAGJPAPA_W@Z 1000c2b7 f   GraphicDisplayImpl.obj
 0001:0000b2d0       ?get_VideoType@COPOSGraphicDisplay@@UAGJPAPA_W@Z 1000c2d0 f   GraphicDisplayImpl.obj
 0001:0000b2e9       ?get_VideoTypeList@COPOSGraphicDisplay@@UAGJPAPA_W@Z 1000c2e9 f   GraphicDisplayImpl.obj
 0001:0000b302       ?get_Volume@COPOSGraphicDisplay@@UAGJPAJ@Z 1000c302 f   GraphicDisplayImpl.obj
 0001:0000b31b       ?put_BinaryConversion@COPOSGraphicDisplay@@UAGJJ@Z 1000c31b f   GraphicDisplayImpl.obj
 0001:0000b331       ?put_Brightness@COPOSGraphicDisplay@@UAGJJ@Z 1000c331 f   GraphicDisplayImpl.obj
 0001:0000b34a       ?put_DeviceEnabled@COPOSGraphicDisplay@@UAGJF@Z 1000c34a f   GraphicDisplayImpl.obj
 0001:0000b367       ?put_DisplayMode@COPOSGraphicDisplay@@UAGJJ@Z 1000c367 f   GraphicDisplayImpl.obj
 0001:0000b380       ?put_FreezeEvents@COPOSGraphicDisplay@@UAGJF@Z 1000c380 f   GraphicDisplayImpl.obj
 0001:0000b3cc       ?put_ImageType@COPOSGraphicDisplay@@UAGJPA_W@Z 1000c3cc f   GraphicDisplayImpl.obj
 0001:0000b3e5       ?put_PowerNotify@COPOSGraphicDisplay@@UAGJJ@Z 1000c3e5 f   GraphicDisplayImpl.obj
 0001:0000b3fb       ?put_Storage@COPOSGraphicDisplay@@UAGJJ@Z 1000c3fb f   GraphicDisplayImpl.obj
 0001:0000b414       ?put_VideoType@COPOSGraphicDisplay@@UAGJPA_W@Z 1000c414 f   GraphicDisplayImpl.obj
 0001:0000b42d       ?put_Volume@COPOSGraphicDisplay@@UAGJJ@Z 1000c42d f   GraphicDisplayImpl.obj
 0001:0000b446       ?s_EventWindowProc@COPOSGraphicDisplay@@KGJPAUHWND__@@IIJ@Z 1000c446 f i GraphicDisplayImpl.obj
 0001:0000b498       ??_U@YAPAXI@Z              1000c498 f   LIBCMT:new_array.obj
 0001:0000b4a1       ??3@YAXPAXI@Z              1000c4a1 f   LIBCMT:delete_scalar_size.obj
 0001:0000b4af       ??_V@YAXPAX@Z              1000c4af f   LIBCMT:delete_array.obj
 0001:0000b4b4       ??_V@YAXPAXI@Z             1000c4b4 f   LIBCMT:delete_array_size.obj
 0001:0000b506       ___scrt_acquire_startup_lock 1000c506 f   LIBCMT:utility.obj
 0001:0000b538       ___scrt_dllmain_after_initialize_c 1000c538 f   LIBCMT:utility.obj
 0001:0000b563       ___scrt_dllmain_before_initialize_c 1000c563 f   LIBCMT:utility.obj
 0001:0000b571       ___scrt_dllmain_crt_thread_attach 1000c571 f   LIBCMT:utility.obj
 0001:0000b590       ___scrt_dllmain_crt_thread_detach 1000c590 f   LIBCMT:utility.obj
 0001:0000b59d       ___scrt_dllmain_exception_filter 1000c59d f   LIBCMT:utility.obj
 0001:0000b5d1       ___scrt_dllmain_uninitialize_c 1000c5d1 f   LIBCMT:utility.obj
 0001:0000b5f4       ___scrt_dllmain_uninitialize_critical 1000c5f4 f   LIBCMT:utility.obj
 0001:0000b601       ___scrt_initialize_crt     1000c601 f   LIBCMT:utility.obj
 0001:0000b63a       ___scrt_initialize_onexit_tables 1000c63a f   LIBCMT:utility.obj
 0001:0000b6c1       ___scrt_is_nonwritable_in_current_image 1000c6c1 f   LIBCMT:utility.obj
 0001:0000b755       ___scrt_release_startup_lock 1000c755 f   LIBCMT:utility.obj
 0001:0000b772       ___scrt_uninitialize_crt   1000c772 f   LIBCMT:utility.obj
 0001:0000b79a       __onexit                   1000c79a f   LIBCMT:utility.obj
 0001:0000b7c7       _atexit                    1000c7c7 f   LIBCMT:utility.obj
 0001:0000b7dc       ??3@YAXPAX@Z               1000c7dc f   LIBCMT:delete_scalar.obj
 0001:0000b8a6       __Init_thread_footer       1000c8a6 f   LIBCMT:thread_safe_statics.obj
 0001:0000b8f0       __Init_thread_header       1000c8f0 f   LIBCMT:thread_safe_statics.obj
 0001:0000b942       __Init_thread_notify       1000c942 f   LIBCMT:thread_safe_statics.obj
 0001:0000b978       __Init_thread_wait         1000c978 f   LIBCMT:thread_safe_statics.obj
 0001:0000b9c6       ___raise_securityfailure   1000c9c6 f   LIBCMT:gs_report.obj
 0001:0000b9ee       ___report_gsfailure        1000c9ee f   LIBCMT:gs_report.obj
 0001:0000bae7       ___report_rangecheckfailure 1000cae7 f   LIBCMT:gs_report.obj
 0001:0000baf3       ___report_securityfailure  1000caf3 f   LIBCMT:gs_report.obj
 0001:0000bbc1       ??2@YAPAXIABUnothrow_t@std@@@Z 1000cbc1 f   LIBCMT:new_scalar_nothrow.obj
 0001:0000bc16       ??_U@YAPAXIABUnothrow_t@std@@@Z 1000cc16 f   LIBCMT:new_array_nothrow.obj
 0001:0000bc1f       @__security_check_cookie@4 1000cc1f f   LIBCMT:secchk.obj
 0001:0000bc30       __SEH_prolog4_GS           1000cc30 f   LIBCMT:sehprolg4gs.obj
 0001:0000bc77       __SEH_epilog4_GS           1000cc77 f   LIBCMT:sehprolg4gs.obj
 0001:0000bc90       __alloca_probe_16          1000cc90 f   LIBCMT:alloca16.obj
 0001:0000bca6       __alloca_probe_8           1000cca6     LIBCMT:alloca16.obj
 0001:0000bcc0       __chkstk                   1000ccc0 f   LIBCMT:chkstk.obj
 0001:0000bcc0       __alloca_probe             1000ccc0 f   LIBCMT:chkstk.obj
 0001:0000c02d       __DllMainCRTStartup@12     1000d02d f   LIBCMT:dll_dllmain.obj
 0001:0000c050       ??2@YAPAXI@Z               1000d050 f   LIBCMT:new_scalar.obj
 0001:0000c080       ___isa_available_init      1000d080 f   LIBCMT:cpu_disp.obj
 0001:0000c250       ___scrt_is_ucrt_dll_in_use 1000d250 f   LIBCMT:ucrt_detection.obj
 0001:0000c25c       ___scrt_fastfail           1000d25c f   LIBCMT:utility_desktop.obj
 0001:0000c376       __crt_debugger_hook        1000d376 f   LIBCMT:utility_desktop.obj
 0001:0000c380       __SEH_prolog4              1000d380 f   LIBCMT:sehprolg4.obj
 0001:0000c3c4       __SEH_epilog4              1000d3c4 f   LIBCMT:sehprolg4.obj
 0001:0000c3d8       @_guard_check_icall_nop@4  1000d3d8 f i LIBCMT:guard_support.obj
 0001:0000c428       ___security_init_cookie    1000d428 f   LIBCMT:gs_support.obj
 0001:0000c473       ?__scrt_initialize_type_info@@YAXXZ 1000d473 f   LIBCMT:tncleanup.obj
 0001:0000c47f       ?__scrt_uninitialize_type_info@@YAXXZ 1000d47f f   LIBCMT:tncleanup.obj
 0001:0000c48b       ___local_stdio_scanf_options 1000d48b f i LIBCMT:default_local_stdio_options.obj
 0001:0000c491       ___scrt_initialize_default_local_stdio_options 1000d491 f   LIBCMT:default_local_stdio_options.obj
 0001:0000c4ae       ___scrt_get_dyn_tls_init_callback 1000d4ae f   LIBCMT:dyn_tls_init.obj
 0001:0000c4b4       __RTC_Initialize           1000d4b4 f   LIBCMT:initsect.obj
 0001:0000c4e0       __RTC_Terminate            1000d4e0 f   LIBCMT:initsect.obj
 0001:0000c50c       ??0bad_alloc@std@@QAE@ABV01@@Z 1000d50c f i LIBCMT:throw_bad_alloc.obj
 0001:0000c527       ??0bad_alloc@std@@QAE@XZ   1000d527 f i LIBCMT:throw_bad_alloc.obj
 0001:0000c53f       ??0bad_array_new_length@std@@QAE@ABV01@@Z 1000d53f f i LIBCMT:throw_bad_alloc.obj
 0001:0000c55a       ??0bad_array_new_length@std@@QAE@XZ 1000d55a f i LIBCMT:throw_bad_alloc.obj
 0001:0000c572       ??0exception@std@@QAE@ABV01@@Z 1000d572 f i LIBCMT:throw_bad_alloc.obj
 0001:0000c59e       ??1bad_exception@std@@UAE@XZ 1000d59e f i libvcruntime:frame.obj
 0001:0000c59e       ??1bad_array_new_length@std@@UAE@XZ 1000d59e f i LIBCMT:throw_bad_alloc.obj
 0001:0000c59e       ??1bad_alloc@std@@UAE@XZ   1000d59e f i LIBCMT:throw_bad_alloc.obj
 0001:0000c5af       ??_Gbad_alloc@std@@UAEPAXI@Z 1000d5af f i LIBCMT:throw_bad_alloc.obj
 0001:0000c5af       ??_Ebad_array_new_length@std@@UAEPAXI@Z 1000d5af f i LIBCMT:throw_bad_alloc.obj
 0001:0000c5af       ??_Gexception@std@@UAEPAXI@Z 1000d5af f i LIBCMT:throw_bad_alloc.obj
 0001:0000c5af       ??_Ebad_exception@std@@UAEPAXI@Z 1000d5af f i libvcruntime:frame.obj
 0001:0000c5af       ??_Ebad_alloc@std@@UAEPAXI@Z 1000d5af f i LIBCMT:throw_bad_alloc.obj
 0001:0000c5af       ??_Gbad_array_new_length@std@@UAEPAXI@Z 1000d5af f i LIBCMT:throw_bad_alloc.obj
 0001:0000c5af       ??_Eexception@std@@UAEPAXI@Z 1000d5af f i LIBCMT:throw_bad_alloc.obj
 0001:0000c5af       ??_Gbad_exception@std@@UAEPAXI@Z 1000d5af f i libvcruntime:frame.obj
 0001:0000c5dc       ?__scrt_throw_std_bad_alloc@@YAXXZ 1000d5dc f   LIBCMT:throw_bad_alloc.obj
 0001:0000c5f9       ?__scrt_throw_std_bad_array_new_length@@YAXXZ 1000d5f9 f   LIBCMT:throw_bad_alloc.obj
 0001:0000c616       ?what@exception@std@@UBEPBDXZ 1000d616 f i LIBCMT:throw_bad_alloc.obj
 0001:0000c623       ??_Gtype_info@@UAEPAXI@Z   1000d623 f i LIBCMT:std_type_info_static.obj
 0001:0000c623       ??_Etype_info@@UAEPAXI@Z   1000d623 f i LIBCMT:std_type_info_static.obj
 0001:0000c646       ??0CAtlBaseModule@ATL@@QAE@XZ 1000d646 f   atls:atlbase.obj
 0001:0000c699       ??0_ATL_BASE_MODULE70@ATL@@QAE@XZ 1000d699 f i atls:atlbase.obj
 0001:0000c6bc       ??1CAtlBaseModule@ATL@@QAE@XZ 1000d6bc f   atls:atlbase.obj
 0001:0000c7a9       ?Init@_stdcallthunk@ATL@@QAEHKPAX@Z 1000d7a9 f i atls:atlthunk.obj
 0001:0000c7de       ?__AllocStdCallThunk_cmn@@YAPAXXZ 1000d7de f   atls:atlthunk.obj
 0001:0000c8a4       ?__FreeStdCallThunk_cmn@@YAXPAX@Z 1000d8a4 f   atls:atlthunk.obj
 0001:0000c93f       _AtlThunk_AllocateData@0   1000d93f f   atls:atlthunk.obj
 0001:0000c9a4       _AtlThunk_DataToCode@4     1000d9a4 f   atls:atlthunk.obj
 0001:0000c9eb       _AtlThunk_FreeData@4       1000d9eb f   atls:atlthunk.obj
 0001:0000ca41       _AtlThunk_InitData@12      1000da41 f   atls:atlthunk.obj
 0001:0000ca90       __get_purecall_handler     1000da90 f   libvcruntime:purevirt.obj
 0001:0000ca96       __purecall                 1000da96 f   libvcruntime:purevirt.obj
 0001:0000cab2       _wcsstr                    1000dab2 f   libvcruntime:wcsstr.obj
 0001:0000cd60       __except_handler4          1000dd60 f   libvcruntime:chandler4.obj
 0001:0000cebe       _memcmp                    1000debe f   libvcruntime:memcmp.obj
 0001:0000ddd0       _memcpy                    1000edd0 f   libvcruntime:memcpy.obj
 0001:0000e350       _memset                    1000f350 f   libvcruntime:memset.obj
 0001:0000e4aa       ___vcrt_initialize         1000f4aa f   libvcruntime:initialization.obj
 0001:0000e4c9       ___vcrt_thread_attach      1000f4c9 f   libvcruntime:initialization.obj
 0001:0000e4d4       ___vcrt_thread_detach      1000f4d4 f   libvcruntime:initialization.obj
 0001:0000e4df       ___vcrt_uninitialize       1000f4df f   libvcruntime:initialization.obj
 0001:0000e4f6       ___vcrt_uninitialize_critical 1000f4f6 f   libvcruntime:initialization.obj
 0001:0000e4fe       ?GetRangeOfTrysToCheck@__FrameHandler3@@SA?AU?$pair@Viterator@TryBlockMap@__FrameHandler3@@V123@@std@@AAVTryBlockMap@1@HPAXPBU_s_FuncInfo@@H@Z 1000f4fe f   libvcruntime:trnsctrl.obj
 0001:0000e56e       ?_CallCatchBlock2@@YAPAXPAUEHRegistrationNode@@PBU_s_FuncInfo@@PAXHK@Z 1000f56e f   libvcruntime:trnsctrl.obj
 0001:0000e5cc       ?_CallSETranslator@@YAHPAUEHExceptionRecord@@PAUEHRegistrationNode@@PAX2PBU_s_FuncInfo@@H1@Z 1000f5cc f   libvcruntime:trnsctrl.obj
 0001:0000e6b2       ?_JumpToContinuation@@YGXPAXPAUEHRegistrationNode@@@Z 1000f6b2 f   libvcruntime:trnsctrl.obj
 0001:0000e6e2       ?_UnwindNestedFrames@@YGXPAUEHRegistrationNode@@PAUEHExceptionRecord@@@Z 1000f6e2 f   libvcruntime:trnsctrl.obj
 0001:0000e735       __CatchGuardHandler        1000f735 f   libvcruntime:trnsctrl.obj
 0001:0000e766       __CreateFrameInfo          1000f766 f   libvcruntime:trnsctrl.obj
 0001:0000e78a       __FindAndUnlinkFrame       1000f78a f   libvcruntime:trnsctrl.obj
 0001:0000e7d2       __TranslatorGuardHandler   1000f7d2 f   libvcruntime:trnsctrl.obj
 0001:0000e86f       ___CxxFrameHandler3        1000f86f f   libvcruntime:trnsctrl.obj
 0001:0000e8a5       ___DestructExceptionObject 1000f8a5 f   libvcruntime:ehhelpers.obj
 0001:0000e946       ?_CallMemberFunction0@@YGXQAX0@Z 1000f946 f i libvcruntime:ehhelpers.obj
 0001:0000e9ab       __IsExceptionObjectToBeDestroyed 1000f9ab f   libvcruntime:ehhelpers.obj
 0001:0000e9d1       ___AdjustPointer           1000f9d1 f   libvcruntime:ehhelpers.obj
 0001:0000e9f6       ___FrameUnwindFilter       1000f9f6 f   libvcruntime:ehhelpers.obj
 0001:0000ea4c       ___std_type_info_compare   1000fa4c f   libvcruntime:std_type_info.obj
 0001:0000ea88       ___std_type_info_destroy_list 1000fa88 f   libvcruntime:std_type_info.obj
 0001:0000eaab       ___std_exception_copy      1000faab f   libvcruntime:std_exception.obj
 0001:0000eb0e       ___std_exception_destroy   1000fb0e f   libvcruntime:std_exception.obj
 0001:0000eb2d       __CxxThrowException@8      1000fb2d f   libvcruntime:throw.obj
 0001:0000eba0       _memmove                   1000fba0 f   libvcruntime:memmove.obj
 0001:0000f120       __local_unwind4            10010120 f   libvcruntime:exsup4.obj
 0001:0000f1f4       __seh_longjmp_unwind4@4    100101f4 f   libvcruntime:exsup4.obj
 0001:0000f21c       @_EH4_CallFilterFunc@8     1001021c f   libvcruntime:exsup4.obj
 0001:0000f234       @_EH4_TransferToHandler@8  10010234 f   libvcruntime:exsup4.obj
 0001:0000f250       @_EH4_GlobalUnwind2@8      10010250 f   libvcruntime:exsup4.obj
 0001:0000f26c       @_EH4_LocalUnwind@16       1001026c f   libvcruntime:exsup4.obj
 0001:0000f283       ___except_validate_context_record 10010283 f   libvcruntime:jbcxrval.obj
 0001:0000f2b3       ___except_validate_jump_buffer 100102b3 f   libvcruntime:jbcxrval.obj
 0001:0000f2e0       ___vcrt_freefls@4          100102e0 f   libvcruntime:per_thread_data.obj
 0001:0000f2fc       ___vcrt_freeptd            100102fc f   libvcruntime:per_thread_data.obj
 0001:0000f332       ___vcrt_getptd             10010332 f   libvcruntime:per_thread_data.obj
 0001:0000f340       ___vcrt_getptd_noexit      10010340 f   libvcruntime:per_thread_data.obj
 0001:0000f3d2       ___vcrt_initialize_ptd     100103d2 f   libvcruntime:per_thread_data.obj
 0001:0000f405       ___vcrt_uninitialize_ptd   10010405 f   libvcruntime:per_thread_data.obj
 0001:0000f420       ___vcrt_initialize_locks   10010420 f   libvcruntime:locks.obj
 0001:0000f45c       ___vcrt_uninitialize_locks 1001045c f   libvcruntime:locks.obj
 0001:0000fbce       ??$TypeMatchHelper@V__FrameHandler3@@@@YAHPBU_s_HandlerType@@PBU_s_CatchableType@@PBU_s_ThrowInfo@@@Z 10010bce f i libvcruntime:frame.obj
 0001:0000fc5c       ??$__InternalCxxFrameHandler@V__FrameHandler3@@@@YA?AW4_EXCEPTION_DISPOSITION@@PAUEHExceptionRecord@@PAUEHRegistrationNode@@PAU_CONTEXT@@PAXPBU_s_FuncInfo@@H1E@Z 10010c5c f i libvcruntime:frame.obj
 0001:0000fd5e       ??0bad_exception@std@@QAE@ABV01@@Z 10010d5e f i libvcruntime:frame.obj
 0001:0000fd79       ??0bad_exception@std@@QAE@XZ 10010d79 f i libvcruntime:frame.obj
 0001:0000fd91       ??8type_info@@QBE_NABV0@@Z 10010d91 f i libvcruntime:frame.obj
 0001:0000fffd       ?FrameUnwindToEmptyState@__FrameHandler3@@SAXPAUEHRegistrationNode@@PAXPBU_s_FuncInfo@@@Z 10010ffd f   libvcruntime:frame.obj
 0001:00010015       ?FrameUnwindToState@__FrameHandler3@@SAXPAUEHRegistrationNode@@PAXPBU_s_FuncInfo@@H@Z 10011015 f   libvcruntime:frame.obj
 0001:00010197       ?_CallMemberFunction1@@YGXQAX00@Z 10011197 f i libvcruntime:frame.obj
 0001:000101a7       ?_CallMemberFunction2@@YGXQAX00H@Z 100111a7 f i libvcruntime:frame.obj
 0001:000101ba       ?getESTypes@__FrameHandler3@@SAPBU_s_ESTypeList@@PBU_s_FuncInfo@@@Z 100111ba f i libvcruntime:frame.obj
 0001:000101d0       __CallSettingFrame@12      100111d0 f   libvcruntime:lowhelpr.obj
 0001:000101f7       __NLG_Return               100111f7     libvcruntime:lowhelpr.obj
 0001:00010220       __global_unwind2           10011220 f   libvcruntime:exsup.obj
 0001:00010286       __local_unwind2            10011286 f   libvcruntime:exsup.obj
 0001:0001030a       __abnormal_termination     1001130a f   libvcruntime:exsup.obj
 0001:00010330       __NLG_Notify1              10011330 f   libvcruntime:exsup.obj
 0001:0001033c       __NLG_Notify               1001133c f   libvcruntime:exsup.obj
 0001:00010353       __NLG_Dispatch             10011353     libvcruntime:exsup.obj
 0001:00010353       __NLG_Dispatch2            10011353     libvcruntime:exsup.obj
 0001:0001035b       __NLG_Call                 1001135b f   libvcruntime:exsup.obj
 0001:0001035d       __NLG_Return2              1001135d     libvcruntime:exsup.obj
 0001:00010441       ___vcrt_FlsAlloc           10011441 f   libvcruntime:winapi_downlevel.obj
 0001:0001047c       ___vcrt_FlsFree            1001147c f   libvcruntime:winapi_downlevel.obj
 0001:000104b7       ___vcrt_FlsGetValue        100114b7 f   libvcruntime:winapi_downlevel.obj
 0001:000104f2       ___vcrt_FlsSetValue        100114f2 f   libvcruntime:winapi_downlevel.obj
 0001:00010530       ___vcrt_InitializeCriticalSectionEx 10011530 f   libvcruntime:winapi_downlevel.obj
 0001:00010577       _unexpected                10011577 f   libvcruntime:unexpected.obj
 0001:00010594       ?GetCurrentState@__FrameHandler3@@SAHPAUEHRegistrationNode@@PAXPBU_s_FuncInfo@@@Z 10011594 f   libvcruntime:ehstate.obj
 0001:000105b1       ?SetState@__FrameHandler3@@SAXPAUEHRegistrationNode@@PBU_s_FuncInfo@@H@Z 100115b1 f   libvcruntime:ehstate.obj
 0001:000105bf       _free                      100115bf f   libucrt:free.obj
 0001:000105da       ___acrt_call_reportfault   100115da f   libucrt:invalid_parameter.obj
 0001:00010713       ___acrt_initialize_invalid_parameter_handler 10011713 f   libucrt:invalid_parameter.obj
 0001:00010722       __invalid_parameter        10011722 f   libucrt:invalid_parameter.obj
 0001:00010786       __invalid_parameter_noinfo 10011786 f   libucrt:invalid_parameter.obj
 0001:00010796       __invoke_watson            10011796 f   libucrt:invalid_parameter.obj
 0001:000107ca       ___acrt_errno_from_os_error 100117ca f   libucrt:errno.obj
 0001:0001080d       ___acrt_errno_map_os_error 1001180d f   libucrt:errno.obj
 0001:00010830       ___doserrno                10011830 f   libucrt:errno.obj
 0001:00010843       __errno                    10011843 f   libucrt:errno.obj
 0001:00010856       _calloc                    10011856 f   libucrt:calloc.obj
 0001:00010861       _malloc                    10011861 f   libucrt:malloc.obj
 0001:0001086c       __recalloc                 1001186c f   libucrt:recalloc.obj
 0001:00010877       __recalloc_base            10011877 f   libucrt:recalloc.obj
 0001:000108e4       __resetstkoflw             100118e4 f   libucrt:resetstk.obj
 0001:000109a9       _wcscat_s                  100119a9 f   libucrt:wcscat_s.obj
 0001:00010a1e       _wcscpy_s                  10011a1e f   libucrt:wcscpy_s.obj
 0001:00010b4d       _wcsncpy_s                 10011b4d f   libucrt:wcsncpy_s.obj
 0001:00010d59       ??$count@D@formatting_buffer@__crt_stdio_output@@QBEIXZ 10011d59 f i libucrt:output.obj
 0001:00010d71       ??$count@_W@formatting_buffer@__crt_stdio_output@@QBEIXZ 10011d71 f i libucrt:output.obj
 0001:00010d8a       ??$ensure_buffer_is_big_enough@D@formatting_buffer@__crt_stdio_output@@QAE_NI@Z 10011d8a f i libucrt:output.obj
 0001:00010e07       ??$ensure_buffer_is_big_enough@_W@formatting_buffer@__crt_stdio_output@@QAE_NI@Z 10011e07 f i libucrt:output.obj
 0001:00010e85       ??$is_wide_character_specifier@_W@__crt_stdio_output@@YA_N_K_WW4length_modifier@0@@Z 10011e85 f i libucrt:output.obj
 0001:00010ed3       ??$scratch_data@D@formatting_buffer@__crt_stdio_output@@QAEPADXZ 10011ed3 f i libucrt:output.obj
 0001:00010ef1       ??$type_case_integer_parse_into_buffer@I@?$output_processor@_WV?$string_output_adapter@_W@__crt_stdio_output@@V?$format_validation_base@_WV?$string_output_adapter@_W@__crt_stdio_output@@@2@@__crt_stdio_output@@AAEXII_N@Z 10011ef1 f i libucrt:output.obj
 0001:00010f78       ??$type_case_integer_parse_into_buffer@_K@?$output_processor@_WV?$string_output_adapter@_W@__crt_stdio_output@@V?$format_validation_base@_WV?$string_output_adapter@_W@__crt_stdio_output@@@2@@__crt_stdio_output@@AAEX_KI_N@Z 10011f78 f i libucrt:output.obj
 0001:0001101a       ??$write_multiple_characters@V?$string_output_adapter@_W@__crt_stdio_output@@D@__crt_stdio_output@@YAXABV?$string_output_adapter@_W@0@DHQAH@Z 1001201a f i libucrt:output.obj
 0001:0001104b       ??0?$common_data@_W@__crt_stdio_output@@IAE@XZ 1001204b f i libucrt:output.obj
 0001:00011095       ??0?$output_adapter_data@_WV?$string_output_adapter@_W@__crt_stdio_output@@@__crt_stdio_output@@IAE@ABV?$string_output_adapter@_W@1@_KQB_WQAU__crt_locale_pointers@@QAD@Z 10012095 f i libucrt:output.obj
 0001:000110d1       ??0_LocaleUpdate@@QAE@QAU__crt_locale_pointers@@@Z 100120d1 f i libucrt:output.obj
 0001:00011154       ??1formatting_buffer@__crt_stdio_output@@QAE@XZ 10012154 f i libucrt:output.obj
 0001:0001116e       ??4?$__crt_unique_heap_ptr@DU__crt_internal_free_policy@@@@QAEAAV0@$$QAV0@@Z 1001216e f i libucrt:output.obj
 0001:000111a0       ?crop_zeroes@__crt_stdio_output@@YAXPADQAU__crt_locale_pointers@@@Z 100121a0 f i libucrt:output.obj
 0001:00011221       ?find_next_state@?$output_processor@_WV?$string_output_adapter@_W@__crt_stdio_output@@V?$format_validation_base@_WV?$string_output_adapter@_W@__crt_stdio_output@@@2@@__crt_stdio_output@@ABE?AW4state@2@_WW432@@Z 10012221 f i libucrt:output.obj
 0001:00011260       ?force_decimal_point@__crt_stdio_output@@YAXPADQAU__crt_locale_pointers@@@Z 10012260 f i libucrt:output.obj
 0001:000112c5       ?parse_int_from_format_string@?$output_processor@_WV?$string_output_adapter@_W@__crt_stdio_output@@V?$format_validation_base@_WV?$string_output_adapter@_W@__crt_stdio_output@@@2@@__crt_stdio_output@@AAE_NQAH@Z 100122c5 f i libucrt:output.obj
 0001:0001133b       ?process@?$output_processor@_WV?$string_output_adapter@_W@__crt_stdio_output@@V?$format_validation_base@_WV?$string_output_adapter@_W@__crt_stdio_output@@@2@@__crt_stdio_output@@QAEHXZ 1001233b f i libucrt:output.obj
 0001:00011463       ?state_case_flag@?$output_processor@_WV?$string_output_adapter@_W@__crt_stdio_output@@V?$format_validation_base@_WV?$string_output_adapter@_W@__crt_stdio_output@@@2@@__crt_stdio_output@@AAE_NXZ 10012463 f i libucrt:output.obj
 0001:000114a0       ?state_case_normal@?$output_processor@_WV?$string_output_adapter@_W@__crt_stdio_output@@V?$format_validation_base@_WV?$string_output_adapter@_W@__crt_stdio_output@@@2@@__crt_stdio_output@@AAE_NXZ 100124a0 f i libucrt:output.obj
 0001:000114bf       ?state_case_normal_common@?$output_processor@_WV?$string_output_adapter@_W@__crt_stdio_output@@V?$format_validation_base@_WV?$string_output_adapter@_W@__crt_stdio_output@@@2@@__crt_stdio_output@@AAE_NXZ 100124bf f i libucrt:output.obj
 0001:000114da       ?state_case_precision@?$output_processor@_WV?$string_output_adapter@_W@__crt_stdio_output@@V?$format_validation_base@_WV?$string_output_adapter@_W@__crt_stdio_output@@@2@@__crt_stdio_output@@AAE_NXZ 100124da f i libucrt:output.obj
 0001:00011501       ?state_case_size@?$output_processor@_WV?$string_output_adapter@_W@__crt_stdio_output@@V?$format_validation_base@_WV?$string_output_adapter@_W@__crt_stdio_output@@@2@@__crt_stdio_output@@AAE_NXZ 10012501 f i libucrt:output.obj
 0001:00011679       ?state_case_type@?$output_processor@_WV?$string_output_adapter@_W@__crt_stdio_output@@V?$format_validation_base@_WV?$string_output_adapter@_W@__crt_stdio_output@@@2@@__crt_stdio_output@@AAE_NXZ 10012679 f i libucrt:output.obj
 0001:000118d6       ?state_case_width@?$output_processor@_WV?$string_output_adapter@_W@__crt_stdio_output@@V?$format_validation_base@_WV?$string_output_adapter@_W@__crt_stdio_output@@@2@@__crt_stdio_output@@AAE_NXZ 100128d6 f i libucrt:output.obj
 0001:00011910       ?to_integer_size@__crt_stdio_output@@YAIW4length_modifier@1@@Z 10012910 f i libucrt:output.obj
 0001:0001196c       ?type_case_Z@?$output_processor@_WV?$string_output_adapter@_W@__crt_stdio_output@@V?$format_validation_base@_WV?$string_output_adapter@_W@__crt_stdio_output@@@2@@__crt_stdio_output@@AAE_NXZ 1001296c f i libucrt:output.obj
 0001:000119c6       ?type_case_a@?$output_processor@_WV?$string_output_adapter@_W@__crt_stdio_output@@V?$format_validation_base@_WV?$string_output_adapter@_W@__crt_stdio_output@@@2@@__crt_stdio_output@@AAE_NXZ 100129c6 f i libucrt:output.obj
 0001:00011b2d       ?type_case_c_tchar@?$output_processor@_WV?$string_output_adapter@_W@__crt_stdio_output@@V?$format_validation_base@_WV?$string_output_adapter@_W@__crt_stdio_output@@@2@@__crt_stdio_output@@AAE_N_W@Z 10012b2d f i libucrt:output.obj
 0001:00011bc3       ?type_case_integer@?$output_processor@_WV?$string_output_adapter@_W@__crt_stdio_output@@V?$format_validation_base@_WV?$string_output_adapter@_W@__crt_stdio_output@@@2@@__crt_stdio_output@@AAE_NI_N@Z 10012bc3 f i libucrt:output.obj
 0001:00011d18       ?type_case_n@?$output_processor@_WV?$string_output_adapter@_W@__crt_stdio_output@@V?$format_validation_base@_WV?$string_output_adapter@_W@__crt_stdio_output@@@2@@__crt_stdio_output@@AAE_NXZ 10012d18 f i libucrt:output.obj
 0001:00011d8c       ?type_case_o@?$output_processor@_WV?$string_output_adapter@_W@__crt_stdio_output@@V?$format_validation_base@_WV?$string_output_adapter@_W@__crt_stdio_output@@@2@@__crt_stdio_output@@AAE_NXZ 10012d8c f i libucrt:output.obj
 0001:00011dab       ?type_case_p@?$output_processor@_WV?$string_output_adapter@_W@__crt_stdio_output@@V?$format_validation_base@_WV?$string_output_adapter@_W@__crt_stdio_output@@@2@@__crt_stdio_output@@AAE_NXZ 10012dab f i libucrt:output.obj
 0001:00011dc3       ?type_case_s@?$output_processor@_WV?$string_output_adapter@_W@__crt_stdio_output@@V?$format_validation_base@_WV?$string_output_adapter@_W@__crt_stdio_output@@@2@@__crt_stdio_output@@AAE_NXZ 10012dc3 f i libucrt:output.obj
 0001:00011e36       ?type_case_s_compute_narrow_string_length@?$output_processor@_WV?$string_output_adapter@_W@__crt_stdio_output@@V?$format_validation_base@_WV?$string_output_adapter@_W@__crt_stdio_output@@@2@@__crt_stdio_output@@ABEHH_W@Z 10012e36 f i libucrt:output.obj
 0001:00011e7d       ?validate@?$c_string_character_source@_W@__crt_strtox@@QBE_NXZ 10012e7d f i libucrt:atox.obj
 0001:00011e7d       ?validate@?$string_output_adapter@_W@__crt_stdio_output@@QBE_NXZ 10012e7d f i libucrt:output.obj
 0001:00011e98       ?validate_and_update_state_at_end_of_format_string@?$format_validation_base@_WV?$string_output_adapter@_W@__crt_stdio_output@@@__crt_stdio_output@@IBE_NXZ 10012e98 f i libucrt:output.obj
 0001:00011eba       ?write_character@?$string_output_adapter@_W@__crt_stdio_output@@QBE_N_WQAH@Z 10012eba f i libucrt:output.obj
 0001:00011eff       ?write_stored_string_tchar@?$output_processor@_WV?$string_output_adapter@_W@__crt_stdio_output@@V?$format_validation_base@_WV?$string_output_adapter@_W@__crt_stdio_output@@@2@@__crt_stdio_output@@AAE_N_W@Z 10012eff f i libucrt:output.obj
 0001:00011f8c       ?write_string@?$string_output_adapter@_W@__crt_stdio_output@@QBEXQB_WHQAHAAV__crt_deferred_errno_cache@@@Z 10012f8c f i libucrt:output.obj
 0001:00011ffd       ___acrt_locale_get_ctype_array_value 10012ffd f i libucrt:output.obj
 0001:0001201f       ___stdio_common_vswprintf_s 1001301f f   libucrt:output.obj
 0001:00012043       __seh_filter_dll           10013043 f   libucrt:exception_filter.obj
 0001:00012063       __seh_filter_exe           10013063 f   libucrt:exception_filter.obj
 0001:00012431       ___acrt_initialize_thread_local_exit_callback 10013431 f   libucrt:exit.obj
 0001:00012440       __cexit                    10013440 f   libucrt:exit.obj
 0001:0001244f       __exit                     1001344f f   libucrt:exit.obj
 0001:00012465       __is_c_termination_complete 10013465 f   libucrt:exit.obj
 0001:00012716       ___acrt_allocate_buffer_for_argv 10013716 f   libucrt:argv_parsing.obj
 0001:00012765       __configure_narrow_argv    10013765 f   libucrt:argv_parsing.obj
 0001:000128c2       ??$uninitialize@A6AXAAPAPA_W@Z@?$dual_state_global@PAPA_W@__crt_state_management@@QAEXA6AXAAPAPA_W@Z@Z 100138c2 f i libucrt:environment_initialization.obj
 0001:000128c2       ??$uninitialize@A6AXAAPAPAD@Z@?$dual_state_global@PAPAD@__crt_state_management@@QAEXA6AXAAPAPAD@Z@Z 100138c2 f i libucrt:environment_initialization.obj
 0001:00012921       ___dcrt_uninitialize_environments_nolock 10013921 f   libucrt:environment_initialization.obj
 0001:00012958       __initialize_narrow_environment 10013958 f   libucrt:environment_initialization.obj
 0001:00012a13       ??$__crt_fast_encode_pointer@PAP6AXXZ@@YAPAP6AXXZQAP6AXXZ@Z 10013a13 f i libucrt:onexit.obj
 0001:00012a13       ??$__crt_fast_encode_pointer@P6AHXZ@@YAP6AHXZQ6AHXZ@Z 10013a13 f i libucrt:onexit.obj
 0001:00012a13       ??$__crt_fast_encode_pointer@PAX@@YAPAXQAX@Z 10013a13 f i libucrt:initialization.obj
 0001:00012c35       __crt_atexit               10013c35 f   libucrt:onexit.obj
 0001:00012c4b       __execute_onexit_table     10013c4b f   libucrt:onexit.obj
 0001:00012c78       __initialize_onexit_table  10013c78 f   libucrt:onexit.obj
 0001:00012ca1       __register_onexit_function 10013ca1 f   libucrt:onexit.obj
 0001:00012cfb       ___acrt_uninitialize_command_line 10013cfb f   libucrt:argv_data.obj
 0001:00012dd2       ___acrt_initialize         10013dd2 f   libucrt:initialization.obj
 0001:00012de4       ___acrt_thread_attach      10013de4 f   libucrt:initialization.obj
 0001:00012def       ___acrt_thread_detach      10013def f   libucrt:initialization.obj
 0001:00012df7       ___acrt_uninitialize       10013df7 f   libucrt:initialization.obj
 0001:00012e27       ___acrt_uninitialize_critical 10013e27 f   libucrt:initialization.obj
 0001:00012e39       __initterm                 10013e39 f   libucrt:initterm.obj
 0001:00012e7e       __initterm_e               10013e7e f   libucrt:initterm.obj
 0001:00012eac       ___acrt_initialize_new_handler 10013eac f   libucrt:new_handler.obj
 0001:00012ebb       __callnewh                 10013ebb f   libucrt:new_handler.obj
 0001:00012ee8       __query_new_handler        10013ee8 f   libucrt:new_handler.obj
 0001:00012f44       _terminate                 10013f44 f   libucrt:terminate.obj
 0001:00012f80       _abort                     10013f80 f   libucrt:abort.obj
 0001:00012fc4       _strcpy_s                  10013fc4 f   libucrt:strcpy_s.obj
 0001:0001301e       ??$is_overflow_condition@K@__crt_strtox@@YA_NIK@Z 1001401e f i libucrt:atox.obj
 0001:0001304f       ??$parse_integer@KV?$c_string_character_source@_W@__crt_strtox@@@__crt_strtox@@YAKQAU__crt_locale_pointers@@V?$c_string_character_source@_W@0@H_N@Z 1001404f f i libucrt:atox.obj
 0001:00013657       ?unget@?$c_string_character_source@_W@__crt_strtox@@QAEX_W@Z 10014657 f i libucrt:atox.obj
 0001:00013690       _strncmp                   10014690 f   libucrt:strncmp.obj
 0001:00013708       _wcsncmp                   10014708 f   libucrt:wcsncmp.obj
 0001:00013742       __free_base                10014742 f   libucrt:free_base.obj
 0001:00013aba       ___acrt_freeptd            10014aba f   libucrt:per_thread_data.obj
 0001:00013ae6       ___acrt_getptd             10014ae6 f   libucrt:per_thread_data.obj
 0001:00013ba3       ___acrt_getptd_head        10014ba3 f   libucrt:per_thread_data.obj
 0001:00013c3d       ___acrt_getptd_noexit      10014c3d f   libucrt:per_thread_data.obj
 0001:00013cf2       ___acrt_initialize_ptd     10014cf2 f   libucrt:per_thread_data.obj
 0001:00013d1e       ___acrt_uninitialize_ptd   10014d1e f   libucrt:per_thread_data.obj
 0001:00013d38       __calloc_base              10014d38 f   libucrt:calloc_base.obj
 0001:00013d95       __malloc_base              10014d95 f   libucrt:malloc_base.obj
 0001:00013de3       __msize_base               10014de3 f   libucrt:msize.obj
 0001:00013e16       __realloc_base             10014e16 f   libucrt:realloc_base.obj
 0001:00014017       ___acrt_AppPolicyGetProcessTerminationMethodInternal@4 10015017 f   libucrt:winapi_thunks.obj
 0001:00014057       ___acrt_AreFileApisANSI@0  10015057 f   libucrt:winapi_thunks.obj
 0001:00014076       ___acrt_FlsAlloc@4         10015076 f   libucrt:winapi_thunks.obj
 0001:000140b5       ___acrt_FlsFree@4          100150b5 f   libucrt:winapi_thunks.obj
 0001:000140f4       ___acrt_FlsGetValue@4      100150f4 f   libucrt:winapi_thunks.obj
 0001:00014133       ___acrt_FlsSetValue@8      10015133 f   libucrt:winapi_thunks.obj
 0001:00014175       ___acrt_InitializeCriticalSectionEx@12 10015175 f   libucrt:winapi_thunks.obj
 0001:000141c0       ___acrt_LCMapStringEx@36   100151c0 f   libucrt:winapi_thunks.obj
 0001:0001421d       ___acrt_LocaleNameToLCID@8 1001521d f   libucrt:winapi_thunks.obj
 0001:0001424e       ___acrt_SetThreadStackGuarantee@4 1001524e f   libucrt:winapi_thunks.obj
 0001:00014289       ___acrt_initialize_winapi_thunks 10015289 f   libucrt:winapi_thunks.obj
 0001:000142b4       ___acrt_uninitialize_winapi_thunks 100152b4 f   libucrt:winapi_thunks.obj
 0001:000142ea       ??$make_c_string_character_source@_WPAPA_W@__crt_strtox@@YA?AV?$c_string_character_source@_W@0@QB_WQAPA_W@Z 100152ea f i libucrt:strtox.obj
 0001:00014305       _wcstol                    10015305 f   libucrt:strtox.obj
 0001:0001432f       __mbtowc_l                 1001532f f   libucrt:mbtowc.obj
 0001:00014471       _mbtowc                    10015471 f   libucrt:mbtowc.obj
 0001:0001448b       _wcsnlen                   1001548b f   libucrt:strnlen.obj
 0001:0001463b       ___acrt_update_locale_info 1001563b f   libucrt:locale_update.obj
 0001:00014668       ___acrt_update_multibyte_info 10015668 f   libucrt:locale_update.obj
 0001:00014695       ?__acrt_fp_classify@@YA?AW4__acrt_fp_class@@ABN@Z 10015695 f i libucrt:cvt.obj
 0001:00015047       ___acrt_fp_format          10016047 f   libucrt:cvt.obj
 0001:000151a5       __fileno                   100161a5 f   libucrt:fileno.obj
 0001:000151cc       ___acrt_initialize_stdio   100161cc f   libucrt:_file.obj
 0001:00015294       ___acrt_uninitialize_stdio 10016294 f   libucrt:_file.obj
 0001:000152e0       __lock_file                100162e0 f   libucrt:_file.obj
 0001:000152f4       __unlock_file              100162f4 f   libucrt:_file.obj
 0001:00015308       __get_printf_count_output  10016308 f   libucrt:printf_count_output.obj
 0001:0001538b       ___acrt_set_locale_changed 1001638b f   libucrt:wsetlocale.obj
 0001:00015396       ___acrt_uninitialize_locale 10016396 f   libucrt:wsetlocale.obj
 0001:00015527       ___acrt_initialize_lowio   10016527 f   libucrt:ioinit.obj
 0001:00015587       ___acrt_uninitialize_lowio 10016587 f   libucrt:ioinit.obj
 0001:000155b3       ___acrt_initialize_locks   100165b3 f   libucrt:locks.obj
 0001:000155f4       ___acrt_lock               100165f4 f   libucrt:locks.obj
 0001:0001560b       ___acrt_uninitialize_locks 1001660b f   libucrt:locks.obj
 0001:0001563c       ___acrt_unlock             1001663c f   libucrt:locks.obj
 0001:00015653       ___acrt_get_process_end_policy 10016653 f   libucrt:win_policies.obj
 0001:0001581d       ??$__acrt_mbs_to_wcs_cp@U__crt_win32_buffer_internal_dynamic_resizing@@@@YAHQBDAAV?$__crt_win32_buffer@_WU__crt_win32_buffer_internal_dynamic_resizing@@@@I@Z 1001681d f i libucrt:argv_wildcards.obj
 0001:00015d31       ?__acrt_get_utf8_acp_compatibility_codepage@@YAIXZ 10016d31 f i libucrt:argv_wildcards.obj
 0001:00015d70       ?_deallocate@?$__crt_win32_buffer@DU__crt_win32_buffer_internal_dynamic_resizing@@@@AAEXXZ 10016d70 f i libucrt:argv_wildcards.obj
 0001:00015d70       ?_deallocate@?$__crt_win32_buffer@_WU__crt_win32_buffer_internal_dynamic_resizing@@@@AAEXXZ 10016d70 f i libucrt:argv_wildcards.obj
 0001:00015d8a       ?allocate@?$__crt_win32_buffer@DU__crt_win32_buffer_internal_dynamic_resizing@@@@QAEHI@Z 10016d8a f i libucrt:argv_wildcards.obj
 0001:00015dc6       ?allocate@?$__crt_win32_buffer@_WU__crt_win32_buffer_internal_dynamic_resizing@@@@QAEHI@Z 10016dc6 f i libucrt:argv_wildcards.obj
 0001:00015e05       ?allocate@__crt_win32_buffer_internal_dynamic_resizing@@SAHQAPAXIABV__crt_win32_buffer_empty_debug_info@@@Z 10016e05 f i libucrt:argv_wildcards.obj
 0001:00015eab       ___acrt_expand_narrow_argv_wildcards 10016eab f   libucrt:argv_wildcards.obj
 0001:00015f7d       ?allocate@?$__crt_win32_buffer@DU__crt_win32_buffer_no_resizing@@@@QAEHI@Z 10016f7d f i libucrt:getmodulefilenamea.obj
 0001:00015fa4       ?set_to_nullptr@?$__crt_win32_buffer@DU__crt_win32_buffer_no_resizing@@@@QAEXXZ 10016fa4 f i libucrt:getmodulefilenamea.obj
 0001:00015fb8       ___acrt_GetModuleFileNameA 10016fb8 f   libucrt:getmodulefilenamea.obj
 0001:00016571       ___acrt_initialize_multibyte 10017571 f   libucrt:mbctype.obj
 0001:000165b9       ___acrt_update_thread_multibyte_data 100175b9 f   libucrt:mbctype.obj
 0001:000165cc       __setmbcp_nolock           100175cc f   libucrt:mbctype.obj
 0001:00016897       __ismbblead                10017897 f   libucrt:ismbbyte.obj
 0001:000168af       ___acrt_initialize_command_line 100178af f   libucrt:argv_data.obj
 0001:000168c8       ___acrt_MultiByteToWideChar 100178c8 f   libucrt:multibytetowidechar.obj
 0001:00016944       ___acrt_WideCharToMultiByte 10017944 f   libucrt:widechartomultibyte.obj
 0001:00016a32       ___dcrt_get_narrow_environment_from_os 10017a32 f   libucrt:get_environment_from_os.obj
 0001:00016ab6       ___acrt_initialize_heap    10017ab6 f   libucrt:heap_handle.obj
 0001:00016ac7       ___acrt_uninitialize_heap  10017ac7 f   libucrt:heap_handle.obj
 0001:00016ad1       ___acrt_execute_initializers 10017ad1 f   libucrt:shared_initialization.obj
 0001:00016b39       ___acrt_execute_uninitializers 10017b39 f   libucrt:shared_initialization.obj
 0001:00016c38       ___acrt_get_sigabrt_handler 10017c38 f   libucrt:signal.obj
 0001:00016c5f       ___acrt_initialize_signal_handlers 10017c5f f   libucrt:signal.obj
 0001:00016c7d       _raise                     10017c7d f   libucrt:signal.obj
 0001:00016e70       ___acrt_has_user_matherr   10017e70 f   libucrt:matherr.obj
 0001:00016e88       ___acrt_initialize_user_matherr 10017e88 f   libucrt:matherr.obj
 0001:00016e97       ___acrt_invoke_user_matherr 10017e97 f   libucrt:matherr.obj
 0001:000170a6       ___acrt_stdio_flush_nolock 100180a6 f   libucrt:fflush.obj
 0001:0001710b       __fflush_nolock            1001810b f   libucrt:fflush.obj
 0001:00017153       __flushall                 10018153 f   libucrt:fflush.obj
 0001:0001715c       ___pctype_func             1001815c f   libucrt:ctype.obj
 0001:00017180       _iswctype                  10018180 f   libucrt:iswctype.obj
 0001:000171e9       ___acrt_add_locale_ref     100181e9 f   libucrt:locale_refcounting.obj
 0001:00017266       ___acrt_free_locale        10018266 f   libucrt:locale_refcounting.obj
 0001:000173ae       ___acrt_locale_add_lc_time_reference 100183ae f   libucrt:locale_refcounting.obj
 0001:000173d7       ___acrt_locale_free_lc_time_if_unreferenced 100183d7 f   libucrt:locale_refcounting.obj
 0001:00017408       ___acrt_locale_release_lc_time_reference 10018408 f   libucrt:locale_refcounting.obj
 0001:00017431       ___acrt_release_locale_ref 10018431 f   libucrt:locale_refcounting.obj
 0001:000174b2       ___acrt_update_thread_locale_data 100184b2 f   libucrt:locale_refcounting.obj
 0001:00017533       __updatetlocinfoEx_nolock  10018533 f   libucrt:locale_refcounting.obj
 0001:00017583       __query_new_mode           10018583 f   libucrt:new_mode.obj
 0001:000175da       ___acrt_DownlevelLocaleNameToLCID 100185da f   libucrt:lcidtoname_downlevel.obj
 0001:00017606       __isleadbyte_l             10018606 f i libucrt:_wctype.obj
 0001:0001766c       ?__mbrtowc_utf8@__crt_mbstring@@YAIPA_WPBDIPAU_Mbstatet@@@Z 1001866c f   libucrt:mbrtowc.obj
 0001:000176ac       ?__mbsrtowcs_utf8@__crt_mbstring@@YAIPA_WPAPBDIPAU_Mbstatet@@@Z 100186ac f   libucrt:mbrtowc.obj
 0001:000177a7       ?return_illegal_sequence@__crt_mbstring@@YAIPAU_Mbstatet@@@Z 100187a7 f i libucrt:c32rtomb.obj
 0001:00017831       ___acrt_fp_strflt_to_string 10018831 f   libucrt:_fptostr.obj
 0001:00017910       ?divide@__crt_strtox@@YA_KAAUbig_integer@1@ABU21@@Z 10018910 f i libucrt:cfout.obj
 0001:00017da8       ___acrt_fltout             10018da8 f   libucrt:cfout.obj
 0001:000192af       _fegetround                1001a2af f   libucrt:fegetround.obj
 0001:000192bc       __fcloseall                1001a2bc f   libucrt:closeall.obj
 0001:00019367       ___acrt_stdio_free_buffer_nolock 1001a367 f   libucrt:_freebuf.obj
 0001:000193a7       __isatty                   1001a3a7 f   libucrt:isatty.obj
 0001:000193fd       ___acrt_locale_free_monetary 1001a3fd f   libucrt:initmon.obj
 0001:000194fb       ___acrt_locale_free_numeric 1001a4fb f   libucrt:initnum.obj
 0001:0001959c       ___acrt_locale_free_time   1001a59c f   libucrt:inittime.obj
 0001:00019680       ___acrt_GetStringTypeA     1001a680 f   libucrt:getstringtypea.obj
 0001:00019783       __freea_crt                1001a783 f i libucrt:getstringtypea.obj
 0001:000197a3       ___acrt_lowio_create_handle_array 1001a7a3 f   libucrt:osfinfo.obj
 0001:0001981e       ___acrt_lowio_destroy_handle_array 1001a81e f   libucrt:osfinfo.obj
 0001:00019853       ___acrt_lowio_ensure_fh_exists 1001a853 f   libucrt:osfinfo.obj
 0001:000198f1       ___acrt_lowio_lock_fh      1001a8f1 f   libucrt:osfinfo.obj
 0001:00019914       ___acrt_lowio_unlock_fh    1001a914 f   libucrt:osfinfo.obj
 0001:00019937       __free_osfhnd              1001a937 f   libucrt:osfinfo.obj
 0001:000199c8       __get_osfhandle            1001a9c8 f   libucrt:osfinfo.obj
 0001:00019a40       _qsort                     1001aa40 f   libucrt:qsort.obj
 0001:00019fe1       _strncpy_s                 1001afe1 f   libucrt:strncpy_s.obj
 0001:00019ff0       _strpbrk                   1001aff0 f   libucrt:strpbrk.obj
 0001:0001a030       __mbsdec                   1001b030 f   libucrt:mbsdec.obj
 0001:0001a047       __mbsdec_l                 1001b047 f   libucrt:mbsdec.obj
 0001:0001a2be       ___acrt_LCMapStringA       1001b2be f   libucrt:lcmapstringa.obj
 0001:0001a3b8       __commit                   1001b3b8 f   libucrt:commit.obj
 0001:0001abb0       __write                    1001bbb0 f   libucrt:write.obj
 0001:0001aca2       __write_nolock             1001bca2 f   libucrt:write.obj
 0001:0001ae7c       ___acrt_GetStringTypeW     1001be7c f   libucrt:getstringtypew.obj
 0001:0001ae95       ___ascii_wcsnicmp          1001be95 f   libucrt:wcsnicmp.obj
 0001:0001aee4       ?__mbrtoc32_utf8@__crt_mbstring@@YAIPA_UPBDIPAU_Mbstatet@@@Z 1001bee4 f   libucrt:mbrtoc32.obj
 0001:0001b08b       __controlfp_s              1001c08b f   libucrt:contrlfp.obj
 0001:0001b0ea       _fegetenv                  1001c0ea f   libucrt:fegetenv.obj
 0001:0001b107       _fesetenv                  1001c107 f   libucrt:fesetenv.obj
 0001:0001b152       _feholdexcept              1001c152 f   libucrt:feholdexcept.obj
 0001:0001b1a0       __CIlog10                  1001c1a0 f   libucrt:log10_impl.obj
 0001:0001b1db       __CIlog10_default          1001c1db f   libucrt:log10_impl.obj
 0001:0001b1ef       __log10_default            1001c1ef     libucrt:log10_impl.obj
 0001:0001b2b0       _ceil                      1001c2b0 f   libucrt:ceil_pentium4.obj
 0001:0001b2f0       __ceil_pentium4            1001c2f0 f   libucrt:ceil_pentium4.obj
 0001:0001b6ea       ___acrt_fenv_get_common_round_control 1001c6ea f   libucrt:_fenvutils.obj
 0001:0001b70c       ___acrt_fenv_get_control   1001c70c f   libucrt:_fenvutils.obj
 0001:0001b78c       ___acrt_fenv_get_status    1001c78c f   libucrt:_fenvutils.obj
 0001:0001b844       ___acrt_fenv_set_control   1001c844 f   libucrt:_fenvutils.obj
 0001:0001b8ac       ___acrt_fenv_set_status    1001c8ac f   libucrt:_fenvutils.obj
 0001:0001ba1f       __lseeki64_nolock          1001ca1f f   libucrt:lseek.obj
 0001:0001ba3a       __fclose_nolock            1001ca3a f   libucrt:fclose.obj
 0001:0001bab1       _fclose                    1001cab1 f   libucrt:fclose.obj
 0001:0001bb35       __query_app_type           1001cb35 f   libucrt:report_runtime_error.obj
 0001:0001bb3b       ___strncnt                 1001cb3b f   libucrt:strncnt.obj
 0001:0001bb57       __putwch_nolock            1001cb57 f   libucrt:putwch.obj
 0001:0001bc30       __clearfp                  1001cc30 f   libucrt:ieee87.obj
 0001:0001bd0e       __control87                1001cd0e f   libucrt:ieee87.obj
 0001:0001c0ad       ___acrt_initialize_sse2    1001d0ad f   libucrt:mathfcns.obj
 0001:0001c0c0       __CIlog10_pentium4         1001d0c0 f   libucrt:log10_pentium4.obj
 0001:0001c0d8       __log10_pentium4           1001d0d8     libucrt:log10_pentium4.obj
 0001:0001c370       __fFEXP                    1001d370 f   libucrt:87tran.obj
 0001:0001c3c7       __rtinfpopse               1001d3c7     libucrt:87tran.obj
 0001:0001c3c9       __rtinfnpopse              1001d3c9     libucrt:87tran.obj
 0001:0001c3d9       __fFLN                     1001d3d9     libucrt:87tran.obj
 0001:0001c48e       __rtinfpop                 1001d48e     libucrt:87tran.obj
 0001:0001c490       __rtinfnpop                1001d490     libucrt:87tran.obj
 0001:0001c4a0       __rtforexpinf              1001d4a0 f   libucrt:87tran.obj
 0001:0001c4ad       __ffexpm1                  1001d4ad     libucrt:87tran.obj
 0001:0001c560       __trandisp1                1001d560 f   libucrt:87disp.obj
 0001:0001c5d5       __trandisp2                1001d5d5 f   libucrt:87disp.obj
 0001:0001c66f       __rttospopde               1001d66f     libucrt:87disp.obj
 0001:0001c674       __rttospop                 1001d674     libucrt:87disp.obj
 0001:0001c680       __rtnospop                 1001d680 f   libucrt:87disp.obj
 0001:0001c690       __rttosnpop                1001d690 f   libucrt:87disp.obj
 0001:0001c691       __rtnospopde               1001d691     libucrt:87disp.obj
 0001:0001c698       __rtzeropop                1001d698     libucrt:87disp.obj
 0001:0001c69a       __rtzeronpop               1001d69a     libucrt:87disp.obj
 0001:0001c6a0       __rtzerospop               1001d6a0 f   libucrt:87disp.obj
 0001:0001c6ad       __rtonepop                 1001d6ad     libucrt:87disp.obj
 0001:0001c6b0       __rtonenpop                1001d6b0 f   libucrt:87disp.obj
 0001:0001c6c0       __tosnan1                  1001d6c0 f   libucrt:87disp.obj
 0001:0001c6f0       __nosnan2                  1001d6f0 f   libucrt:87disp.obj
 0001:0001c700       __tosnan2                  1001d700 f   libucrt:87disp.obj
 0001:0001c730       __nan2                     1001d730 f   libucrt:87disp.obj
 0001:0001c770       __rtindfpop                1001d770 f   libucrt:87disp.obj
 0001:0001c772       __rtindfnpop               1001d772     libucrt:87disp.obj
 0001:0001c783       __rttosnpopde              1001d783     libucrt:87disp.obj
 0001:0001c790       __rtatan2inf               1001d790 f   libucrt:87disp.obj
 0001:0001c7ad       __rtchsifneg               1001d7ad     libucrt:87disp.obj
 0001:0001c7c0       __twoToTOS                 1001d7c0 f   libucrt:common.obj
 0001:0001c7d5       __load_CW                  1001d7d5 f   libucrt:common.obj
 0001:0001c7ec       __convertTOStoQNaN         1001d7ec f   libucrt:common.obj
 0001:0001c805       __fload_withFB             1001d805 f   libucrt:common.obj
 0001:0001c848       __checkTOS_withFB          1001d848 f   libucrt:common.obj
 0001:0001c85e       __fast_exit                1001d85e f   libucrt:common.obj
 0001:0001c86b       __math_exit                1001d86b f   libucrt:common.obj
 0001:0001c895       __check_overflow_exit      1001d895 f   libucrt:common.obj
 0001:0001c8a9       __check_range_exit         1001d8a9 f   libucrt:common.obj
 0001:0001c950       __startTwoArgErrorHandling 1001d950 f   libucrt:genexcep.obj
 0001:0001c967       __startOneArgErrorHandling 1001d967 f   libucrt:genexcep.obj
 0001:0001c9a3       ___libm_error_support      1001d9a3 f   libucrt:libm_error.obj
 0001:0001cb97       __ceil_default             1001db97 f   libucrt:ceil.obj
 0001:0001ccd8       __close                    1001dcd8 f   libucrt:close.obj
 0001:0001cd65       __close_nolock             1001dd65 f   libucrt:close.obj
 0001:0001ce01       ?__acrt_stdio_free_stream@@YAXV__crt_stdio_stream@@@Z 1001de01 f   libucrt:stream.obj
 0001:0001ce40       ___ascii_strnicmp          1001de40 f   libucrt:_strnicm.obj
 0001:0001cec0       ___dcrt_lowio_ensure_console_output_initialized 1001dec0 f   libucrt:initcon.obj
 0001:0001cedf       ___dcrt_terminate_console_output 1001dedf f   libucrt:initcon.obj
 0001:0001cef6       ___dcrt_write_console      1001def6 f   libucrt:initcon.obj
 0001:0001cf4b       ___set_fpsr_sse2           1001df4b f   libucrt:fpctrl.obj
 0001:0001cfcb       __clrfp                    1001dfcb f   libucrt:fpctrl.obj
 0001:0001cfdc       __ctrlfp                   1001dfdc f   libucrt:fpctrl.obj
 0001:0001d006       __set_statfp               1001e006 f   libucrt:fpctrl.obj
 0001:0001d05f       __statfp                   1001e05f f   libucrt:fpctrl.obj
 0001:0001d06f       __d_inttype                1001e06f f   libucrt:powhlp.obj
 0001:0001d0d7       __powhlp                   1001e0d7 f   libucrt:powhlp.obj
 0001:0001d202       __87except                 1001e202 f   libucrt:87except.obj
 0001:0001d30c       __frnd                     1001e30c f   libucrt:frnd.obj
 0001:0001d320       __errcode                  1001e320 f   libucrt:fpexcept.obj
 0001:0001d354       __except1                  1001e354 f   libucrt:fpexcept.obj
 0001:0001d422       __handle_exc               1001e422 f   libucrt:fpexcept.obj
 0001:0001d60d       __raise_exc                1001e60d f   libucrt:fpexcept.obj
 0001:0001d630       __raise_exc_ex             1001e630 f   libucrt:fpexcept.obj
 0001:0001d926       __set_errno_from_matherr   1001e926 f   libucrt:fpexcept.obj
 0001:0001d955       __umatherr                 1001e955 f   libucrt:fpexcept.obj
 0001:0001d9f5       __decomp                   1001e9f5 f   libucrt:util.obj
 0001:0001dac7       __set_exp                  1001eac7 f   libucrt:util.obj
 0001:0001daf4       __sptype                   1001eaf4 f   libucrt:util.obj
 0001:0001db52       __fpclass                  1001eb52 f   libucrt:ieeemisc.obj
 0001:0001dbf6       _IsProcessorFeaturePresent@4 1001ebf6 f   kernel32:KERNEL32.dll
 0001:0001dc00       __FindPESection            1001ec00 f   LIBCMT:pesect.obj
 0001:0001dc50       __IsNonwritableInCurrentImage 1001ec50 f   LIBCMT:pesect.obj
 0001:0001dd10       __ValidateImageBase        1001ed10 f   LIBCMT:pesect.obj
 0001:0001dd43       __EH_prolog3_catch         1001ed43 f   LIBCMT:ehprolg3.obj
 0001:0001dd80       __aulldvrm                 1001ed80 f   LIBCMT:ulldvrm.obj
 0001:0001de20       __allmul                   1001ee20 f   LIBCMT:llmul.obj
 0001:0001de60       __alldvrm                  1001ee60 f   LIBCMT:lldvrm.obj
 0001:0001df40       __allshl                   1001ef40 f   LIBCMT:llshl.obj
 0001:0001df60       __aullshr                  1001ef60 f   LIBCMT:ullshr.obj
 0001:0001df80       __ftoi2                    1001ef80 f   LIBCMT:ftol2.obj
 0001:0001df80       __ftol2_sse                1001ef80     LIBCMT:ftol2.obj
 0001:0001df80       __ftol2_sse_excpt          1001ef80     LIBCMT:ftol2.obj
 0001:0001e000       __ftoui2                   1001f000 f   LIBCMT:ftol2.obj
 0001:0001e0b0       __ftol2                    1001f0b0 f   LIBCMT:ftol2.obj
 0001:0001e160       __ftoul2                   1001f160 f   LIBCMT:ftol2.obj
 0001:0001e220       _strrchr                   1001f220 f   libvcruntime:strrchr.obj
 0001:0001e360       _strchr                    1001f360 f   libvcruntime:strchr.obj
 0001:0001e3ce       ___from_strstr_to_strchr   1001f3ce     libvcruntime:strchr.obj
 0001:0001e48b       __filter_x86_sse2_floating_point_exception 1001f48b f   LIBCMT:x86_exception_filter.obj
 0001:0001e48b       __filter_x86_sse2_floating_point_exception_default 1001f48b f   LIBCMT:x86_exception_filter.obj
 0002:00000000       __imp__RegQueryValueExW@24 10020000     advapi32:ADVAPI32.dll
 0002:00000004       __imp__RegSetValueExW@24   10020004     advapi32:ADVAPI32.dll
 0002:00000008       __imp__RegQueryInfoKeyW@48 10020008     advapi32:ADVAPI32.dll
 0002:0000000c       __imp__RegOpenKeyExW@20    1002000c     advapi32:ADVAPI32.dll
 0002:00000010       __imp__RegEnumKeyExW@32    10020010     advapi32:ADVAPI32.dll
 0002:00000014       __imp__RegDeleteValueW@8   10020014     advapi32:ADVAPI32.dll
 0002:00000018       __imp__RegDeleteKeyW@8     10020018     advapi32:ADVAPI32.dll
 0002:0000001c       __imp__RegCreateKeyExW@36  1002001c     advapi32:ADVAPI32.dll
 0002:00000020       __imp__RegCloseKey@4       10020020     advapi32:ADVAPI32.dll
 0002:00000024       \177ADVAPI32_NULL_THUNK_DATA 10020024     advapi32:ADVAPI32.dll
 0002:00000028       __imp__GetObjectW@12       10020028     gdi32:GDI32.dll
 0002:0000002c       __imp__SelectObject@8      1002002c     gdi32:GDI32.dll
 0002:00000030       __imp__DeleteObject@4      10020030     gdi32:GDI32.dll
 0002:00000034       __imp__CreateCompatibleDC@4 10020034     gdi32:GDI32.dll
 0002:00000038       __imp__BitBlt@36           10020038     gdi32:GDI32.dll
 0002:0000003c       __imp__SetWindowOrgEx@16   1002003c     gdi32:GDI32.dll
 0002:00000040       __imp__SetWindowExtEx@16   10020040     gdi32:GDI32.dll
 0002:00000044       __imp__SetViewportOrgEx@16 10020044     gdi32:GDI32.dll
 0002:00000048       __imp__LPtoDP@12           10020048     gdi32:GDI32.dll
 0002:0000004c       __imp__SetMapMode@8        1002004c     gdi32:GDI32.dll
 0002:00000050       __imp__SaveDC@4            10020050     gdi32:GDI32.dll
 0002:00000054       __imp__RestoreDC@8         10020054     gdi32:GDI32.dll
 0002:00000058       __imp__GetDeviceCaps@8     10020058     gdi32:GDI32.dll
 0002:0000005c       __imp__DeleteMetaFile@4    1002005c     gdi32:GDI32.dll
 0002:00000060       __imp__DeleteDC@4          10020060     gdi32:GDI32.dll
 0002:00000064       __imp__CreateRectRgnIndirect@4 10020064     gdi32:GDI32.dll
 0002:00000068       __imp__CreateMetaFileW@4   10020068     gdi32:GDI32.dll
 0002:0000006c       __imp__CreateDCW@16        1002006c     gdi32:GDI32.dll
 0002:00000070       __imp__CloseMetaFile@4     10020070     gdi32:GDI32.dll
 0002:00000074       \177GDI32_NULL_THUNK_DATA  10020074     gdi32:GDI32.dll
 0002:00000078       __imp__CloseHandle@4       10020078     kernel32:KERNEL32.dll
 0002:0000007c       __imp__SetEvent@4          1002007c     kernel32:KERNEL32.dll
 0002:00000080       __imp__CreateMutexW@12     10020080     kernel32:KERNEL32.dll
 0002:00000084       __imp__CreateEventW@16     10020084     kernel32:KERNEL32.dll
 0002:00000088       __imp__GetCurrentProcessId@0 10020088     kernel32:KERNEL32.dll
 0002:0000008c       __imp__CreateFileW@28      1002008c     kernel32:KERNEL32.dll
 0002:00000090       __imp__GetConsoleMode@8    10020090     kernel32:KERNEL32.dll
 0002:00000094       __imp__GetConsoleOutputCP@0 10020094     kernel32:KERNEL32.dll
 0002:00000098       __imp__WriteFile@20        10020098     kernel32:KERNEL32.dll
 0002:0000009c       __imp__FlushFileBuffers@4  1002009c     kernel32:KERNEL32.dll
 0002:000000a0       __imp__SetStdHandle@8      100200a0     kernel32:KERNEL32.dll
 0002:000000a4       __imp__GetStringTypeW@16   100200a4     kernel32:KERNEL32.dll
 0002:000000a8       __imp__SetFilePointerEx@20 100200a8     kernel32:KERNEL32.dll
 0002:000000ac       __imp__FreeEnvironmentStringsW@4 100200ac     kernel32:KERNEL32.dll
 0002:000000b0       __imp__GetEnvironmentStringsW@0 100200b0     kernel32:KERNEL32.dll
 0002:000000b4       __imp__lstrcmpiW@8         100200b4     kernel32:KERNEL32.dll
 0002:000000b8       __imp__GetCommandLineA@0   100200b8     kernel32:KERNEL32.dll
 0002:000000bc       __imp__GetCPInfo@8         100200bc     kernel32:KERNEL32.dll
 0002:000000c0       __imp__GetOEMCP@0          100200c0     kernel32:KERNEL32.dll
 0002:000000c4       __imp__GetACP@0            100200c4     kernel32:KERNEL32.dll
 0002:000000c8       __imp__IsValidCodePage@4   100200c8     kernel32:KERNEL32.dll
 0002:000000cc       __imp__FindNextFileW@8     100200cc     kernel32:KERNEL32.dll
 0002:000000d0       __imp__FindFirstFileExW@24 100200d0     kernel32:KERNEL32.dll
 0002:000000d4       __imp__FindClose@4         100200d4     kernel32:KERNEL32.dll
 0002:000000d8       __imp__GetFileType@4       100200d8     kernel32:KERNEL32.dll
 0002:000000dc       __imp__GetStdHandle@4      100200dc     kernel32:KERNEL32.dll
 0002:000000e0       __imp__LCMapStringW@24     100200e0     kernel32:KERNEL32.dll
 0002:000000e4       __imp__HeapReAlloc@16      100200e4     kernel32:KERNEL32.dll
 0002:000000e8       __imp__HeapSize@12         100200e8     kernel32:KERNEL32.dll
 0002:000000ec       __imp__MulDiv@12           100200ec     kernel32:KERNEL32.dll
 0002:000000f0       __imp__GlobalLock@4        100200f0     kernel32:KERNEL32.dll
 0002:000000f4       __imp__GlobalUnlock@4      100200f4     kernel32:KERNEL32.dll
 0002:000000f8       __imp__GlobalAlloc@8       100200f8     kernel32:KERNEL32.dll
 0002:000000fc       __imp__FindResourceW@12    100200fc     kernel32:KERNEL32.dll
 0002:00000100       __imp__SizeofResource@8    10020100     kernel32:KERNEL32.dll
 0002:00000104       __imp__LoadResource@8      10020104     kernel32:KERNEL32.dll
 0002:00000108       __imp__LoadLibraryExW@12   10020108     kernel32:KERNEL32.dll
 0002:0000010c       __imp__GetProcAddress@8    1002010c     kernel32:KERNEL32.dll
 0002:00000110       __imp__GetModuleHandleW@4  10020110     kernel32:KERNEL32.dll
 0002:00000114       __imp__GetModuleFileNameW@12 10020114     kernel32:KERNEL32.dll
 0002:00000118       __imp__FreeLibrary@4       10020118     kernel32:KERNEL32.dll
 0002:0000011c       __imp__DisableThreadLibraryCalls@4 1002011c     kernel32:KERNEL32.dll
 0002:00000120       __imp__GetCurrentThreadId@0 10020120     kernel32:KERNEL32.dll
 0002:00000124       __imp__Sleep@4             10020124     kernel32:KERNEL32.dll
 0002:00000128       __imp__WaitForSingleObject@8 10020128     kernel32:KERNEL32.dll
 0002:0000012c       __imp__ReleaseMutex@4      1002012c     kernel32:KERNEL32.dll
 0002:00000130       __imp__ResetEvent@4        10020130     kernel32:KERNEL32.dll
 0002:00000134       __imp__EnterCriticalSection@4 10020134     kernel32:KERNEL32.dll
 0002:00000138       __imp__LeaveCriticalSection@4 10020138     kernel32:KERNEL32.dll
 0002:0000013c       __imp__SetLastError@4      1002013c     kernel32:KERNEL32.dll
 0002:00000140       __imp__EncodePointer@4     10020140     kernel32:KERNEL32.dll
 0002:00000144       __imp__DeleteCriticalSection@4 10020144     kernel32:KERNEL32.dll
 0002:00000148       __imp__InitializeCriticalSectionEx@12 10020148     kernel32:KERNEL32.dll
 0002:0000014c       __imp__GetLastError@0      1002014c     kernel32:KERNEL32.dll
 0002:00000150       __imp__RaiseException@16   10020150     kernel32:KERNEL32.dll
 0002:00000154       __imp__DecodePointer@4     10020154     kernel32:KERNEL32.dll
 0002:00000158       __imp__WideCharToMultiByte@32 10020158     kernel32:KERNEL32.dll
 0002:0000015c       __imp__GetCommandLineW@0   1002015c     kernel32:KERNEL32.dll
 0002:00000160       __imp__MultiByteToWideChar@24 10020160     kernel32:KERNEL32.dll
 0002:00000164       __imp__WriteConsoleW@20    10020164     kernel32:KERNEL32.dll
 0002:00000168       __imp__GetModuleHandleExW@12 10020168     kernel32:KERNEL32.dll
 0002:0000016c       __imp__ExitProcess@4       1002016c     kernel32:KERNEL32.dll
 0002:00000170       __imp__VirtualQuery@12     10020170     kernel32:KERNEL32.dll
 0002:00000174       __imp__VirtualProtect@16   10020174     kernel32:KERNEL32.dll
 0002:00000178       __imp__GetSystemInfo@4     10020178     kernel32:KERNEL32.dll
 0002:0000017c       __imp__TlsFree@4           1002017c     kernel32:KERNEL32.dll
 0002:00000180       __imp__TlsSetValue@8       10020180     kernel32:KERNEL32.dll
 0002:00000184       __imp__TlsGetValue@4       10020184     kernel32:KERNEL32.dll
 0002:00000188       __imp__TlsAlloc@0          10020188     kernel32:KERNEL32.dll
 0002:0000018c       __imp__InterlockedFlushSList@4 1002018c     kernel32:KERNEL32.dll
 0002:00000190       __imp__RtlUnwind@16        10020190     kernel32:KERNEL32.dll
 0002:00000194       __imp__LoadLibraryExA@12   10020194     kernel32:KERNEL32.dll
 0002:00000198       __imp__VirtualFree@12      10020198     kernel32:KERNEL32.dll
 0002:0000019c       __imp__VirtualAlloc@16     1002019c     kernel32:KERNEL32.dll
 0002:000001a0       __imp__FlushInstructionCache@12 100201a0     kernel32:KERNEL32.dll
 0002:000001a4       __imp__InterlockedPushEntrySList@8 100201a4     kernel32:KERNEL32.dll
 0002:000001a8       __imp__InterlockedPopEntrySList@4 100201a8     kernel32:KERNEL32.dll
 0002:000001ac       __imp__GetProcessHeap@0    100201ac     kernel32:KERNEL32.dll
 0002:000001b0       __imp__HeapFree@12         100201b0     kernel32:KERNEL32.dll
 0002:000001b4       __imp__HeapAlloc@12        100201b4     kernel32:KERNEL32.dll
 0002:000001b8       __imp__OutputDebugStringW@4 100201b8     kernel32:KERNEL32.dll
 0002:000001bc       __imp__InitializeSListHead@4 100201bc     kernel32:KERNEL32.dll
 0002:000001c0       __imp__GetSystemTimeAsFileTime@4 100201c0     kernel32:KERNEL32.dll
 0002:000001c4       __imp__QueryPerformanceCounter@4 100201c4     kernel32:KERNEL32.dll
 0002:000001c8       __imp__GetStartupInfoW@4   100201c8     kernel32:KERNEL32.dll
 0002:000001cc       __imp__IsDebuggerPresent@0 100201cc     kernel32:KERNEL32.dll
 0002:000001d0       __imp__IsProcessorFeaturePresent@4 100201d0     kernel32:KERNEL32.dll
 0002:000001d4       __imp__TerminateProcess@8  100201d4     kernel32:KERNEL32.dll
 0002:000001d8       __imp__GetCurrentProcess@0 100201d8     kernel32:KERNEL32.dll
 0002:000001dc       __imp__SetUnhandledExceptionFilter@4 100201dc     kernel32:KERNEL32.dll
 0002:000001e0       __imp__UnhandledExceptionFilter@4 100201e0     kernel32:KERNEL32.dll
 0002:000001e4       __imp__InitializeCriticalSectionAndSpinCount@8 100201e4     kernel32:KERNEL32.dll
 0002:000001e8       __imp__WaitForSingleObjectEx@12 100201e8     kernel32:KERNEL32.dll
 0002:000001ec       \177KERNEL32_NULL_THUNK_DATA 100201ec     kernel32:KERNEL32.dll
 0002:000001f0       __imp__OleCreatePropertyFrame@44 100201f0     oleaut32:OLEAUT32.dll
 0002:000001f4       __imp__UnRegisterTypeLib@20 100201f4     oleaut32:OLEAUT32.dll
 0002:000001f8       __imp__RegisterTypeLib@12  100201f8     oleaut32:OLEAUT32.dll
 0002:000001fc       __imp__LoadRegTypeLib@20   100201fc     oleaut32:OLEAUT32.dll
 0002:00000200       __imp__LoadTypeLib@8       10020200     oleaut32:OLEAUT32.dll
 0002:00000204       __imp__VarUI4FromStr@16    10020204     oleaut32:OLEAUT32.dll
 0002:00000208       __imp__VariantInit@4       10020208     oleaut32:OLEAUT32.dll
 0002:0000020c       __imp__SysAllocStringByteLen@8 1002020c     oleaut32:OLEAUT32.dll
 0002:00000210       __imp__SysStringByteLen@4  10020210     oleaut32:OLEAUT32.dll
 0002:00000214       __imp__VariantChangeType@16 10020214     oleaut32:OLEAUT32.dll
 0002:00000218       __imp__VariantClear@4      10020218     oleaut32:OLEAUT32.dll
 0002:0000021c       __imp__SysStringLen@4      1002021c     oleaut32:OLEAUT32.dll
 0002:00000220       __imp__SysFreeString@4     10020220     oleaut32:OLEAUT32.dll
 0002:00000224       __imp__SysAllocStringLen@8 10020224     oleaut32:OLEAUT32.dll
 0002:00000228       __imp__SysAllocString@4    10020228     oleaut32:OLEAUT32.dll
 0002:0000022c       \177OLEAUT32_NULL_THUNK_DATA 1002022c     oleaut32:OLEAUT32.dll
 0002:00000230       __imp__UnregisterClassW@8  10020230     user32:USER32.dll
 0002:00000234       __imp__PostMessageW@16     10020234     user32:USER32.dll
 0002:00000238       __imp__DefWindowProcW@16   10020238     user32:USER32.dll
 0002:0000023c       __imp__CallWindowProcW@20  1002023c     user32:USER32.dll
 0002:00000240       __imp__RegisterClassExW@4  10020240     user32:USER32.dll
 0002:00000244       __imp__GetClassInfoExW@12  10020244     user32:USER32.dll
 0002:00000248       __imp__CreateWindowExW@48  10020248     user32:USER32.dll
 0002:0000024c       __imp__IsWindow@4          1002024c     user32:USER32.dll
 0002:00000250       __imp__IsChild@8           10020250     user32:USER32.dll
 0002:00000254       __imp__DestroyWindow@4     10020254     user32:USER32.dll
 0002:00000258       __imp__ShowWindow@8        10020258     user32:USER32.dll
 0002:0000025c       __imp__SetWindowPos@28     1002025c     user32:USER32.dll
 0002:00000260       __imp__CharNextW@4         10020260     user32:USER32.dll
 0002:00000264       __imp__SetFocus@4          10020264     user32:USER32.dll
 0002:00000268       __imp__LoadBitmapW@8       10020268     user32:USER32.dll
 0002:0000026c       __imp__RegisterClassW@4    1002026c     user32:USER32.dll
 0002:00000270       __imp__PeekMessageW@20     10020270     user32:USER32.dll
 0002:00000274       __imp__LoadCursorW@8       10020274     user32:USER32.dll
 0002:00000278       __imp__GetParent@4         10020278     user32:USER32.dll
 0002:0000027c       __imp__SetWindowLongW@12   1002027c     user32:USER32.dll
 0002:00000280       __imp__GetWindowLongW@8    10020280     user32:USER32.dll
 0002:00000284       __imp__PtInRect@12         10020284     user32:USER32.dll
 0002:00000288       __imp__EqualRect@8         10020288     user32:USER32.dll
 0002:0000028c       __imp__OffsetRect@12       1002028c     user32:USER32.dll
 0002:00000290       __imp__UnionRect@12        10020290     user32:USER32.dll
 0002:00000294       __imp__IntersectRect@12    10020294     user32:USER32.dll
 0002:00000298       __imp__GetClientRect@8     10020298     user32:USER32.dll
 0002:0000029c       __imp__InvalidateRect@12   1002029c     user32:USER32.dll
 0002:000002a0       __imp__SetWindowRgn@12     100202a0     user32:USER32.dll
 0002:000002a4       __imp__EndPaint@8          100202a4     user32:USER32.dll
 0002:000002a8       __imp__BeginPaint@8        100202a8     user32:USER32.dll
 0002:000002ac       __imp__ReleaseDC@8         100202ac     user32:USER32.dll
 0002:000002b0       __imp__GetDC@4             100202b0     user32:USER32.dll
 0002:000002b4       __imp__GetKeyState@4       100202b4     user32:USER32.dll
 0002:000002b8       __imp__GetFocus@0          100202b8     user32:USER32.dll
 0002:000002bc       \177USER32_NULL_THUNK_DATA 100202bc     user32:USER32.dll
 0002:000002c0       __imp__StringFromGUID2@12  100202c0     ole32:ole32.dll
 0002:000002c4       __imp__CoTaskMemAlloc@4    100202c4     ole32:ole32.dll
 0002:000002c8       __imp__CoTaskMemRealloc@8  100202c8     ole32:ole32.dll
 0002:000002cc       __imp__CoTaskMemFree@4     100202cc     ole32:ole32.dll
 0002:000002d0       __imp__ReadClassStm@8      100202d0     ole32:ole32.dll
 0002:000002d4       __imp__WriteClassStm@8     100202d4     ole32:ole32.dll
 0002:000002d8       __imp__CreateDataAdviseHolder@4 100202d8     ole32:ole32.dll
 0002:000002dc       __imp__OleSaveToStream@8   100202dc     ole32:ole32.dll
 0002:000002e0       __imp__CreateOleAdviseHolder@4 100202e0     ole32:ole32.dll
 0002:000002e4       __imp__OleRegGetUserType@12 100202e4     ole32:ole32.dll
 0002:000002e8       __imp__OleRegGetMiscStatus@12 100202e8     ole32:ole32.dll
 0002:000002ec       __imp__OleRegEnumVerbs@8   100202ec     ole32:ole32.dll
 0002:000002f0       __imp__CLSIDFromProgID@8   100202f0     ole32:ole32.dll
 0002:000002f4       __imp__CoCreateInstance@20 100202f4     ole32:ole32.dll
 0002:000002f8       \177ole32_NULL_THUNK_DATA  100202f8     ole32:ole32.dll
 0002:000002fc       ___guard_check_icall_fptr  100202fc     LIBCMT:guard_support.obj
 0002:00000300       ___xc_a                    10020300     LIBCMT:initializers.obj
 0002:00000318       ___xc_z                    10020318     LIBCMT:initializers.obj
 0002:0000031c       ___xi_a                    1002031c     LIBCMT:initializers.obj
 0002:00000324       ___acrt_stdio_initializer  10020324     libucrt:stdio_initializer.obj
 0002:00000328       ___acrt_multibyte_initializer 10020328     libucrt:multibyte_initializer.obj
 0002:0000032c       ___acrt_tran_sse2_initializer 1002032c     libucrt:sse2_initializer.obj
 0002:00000330       ___xi_z                    10020330     LIBCMT:initializers.obj
 0002:00000334       ___xl_a                    10020334     LIBCMT:tlssup.obj
 0002:00000338       ___xl_z                    10020338     LIBCMT:tlssup.obj
 0002:0000033c       ___xp_a                    1002033c     LIBCMT:initializers.obj
 0002:00000340       ___acrt_locale_terminator  10020340     libucrt:locale_initializer.obj
 0002:00000344       ___dcrt_console_output_terminator 10020344     libucrt:console_output_initializer.obj
 0002:00000348       ___acrt_stdio_terminator   10020348     libucrt:stdio_initializer.obj
 0002:0000034c       ___xp_z                    1002034c     LIBCMT:initializers.obj
 0002:00000350       ___xt_a                    10020350     LIBCMT:initializers.obj
 0002:00000354       ___xt_z                    10020354     LIBCMT:initializers.obj
 0002:00000360       ??_C@_13HADIAKP@?$AAS@     10020360     OposVariant.obj
 0002:00000364       ??_C@_13LHMFKAAD@?$AAM@    10020364     OposVariant.obj
 0002:00000368       ??_C@_13MKMNOPIJ@?$AAD@    10020368     OposVariant.obj
 0002:0000036c       ??_C@_13OPKGLAFF@?$AAB@    1002036c     OposVariant.obj
 0002:00000370       ??_C@_17LLMMEOJD@?$AAV?$AAa?$AAl@ 10020370     OposVariant.obj
 0002:00000378       ??_C@_1BI@JFAIJMHL@?$AAF?$AAo?$AAr?$AAc?$AAe?$AAR?$AAe?$AAm?$AAo?$AAv?$AAe@ 10020378     OposVariant.obj
 0002:00000390       ??_C@_1BC@GCKHIPE@?$AAN?$AAo?$AAR?$AAe?$AAm?$AAo?$AAv?$AAe@ 10020390     OposVariant.obj
 0002:000003a4       ??_C@_1O@JDLOHAN@?$AAD?$AAe?$AAl?$AAe?$AAt?$AAe@ 100203a4     OposVariant.obj
 0002:000003b4       ??_C@_11LOCGONAA@@         100203b4     OposVariant.obj
 0002:000003b8       ??_7CComClassFactory@ATL@@6B@ 100203b8     GraphicDisplay.obj
 0002:000003d0       ?_entries@?1??_GetEntries@CComClassFactory@ATL@@SGPBU_ATL_INTMAP_ENTRY@3@XZ@4QBU43@B 100203d0     GraphicDisplay.obj
 0002:000003e8       __GUID_00000001_0000_0000_c000_000000000046 100203e8     GraphicDisplay.obj
 0002:000003f8       _IID_IOPOSGraphicDisplay_1_16 100203f8     GraphicDisplay.obj
 0002:00000408       _IID_IOPOSGraphicDisplay   10020408     GraphicDisplay.obj
 0002:00000418       _LIBID_OposGraphicDisplay_CCO 10020418     GraphicDisplay.obj
 0002:00000428       _DIID__IOPOSGraphicDisplayEvents 10020428     GraphicDisplay.obj
 0002:00000438       _CLSID_OPOSGraphicDisplay  10020438     GraphicDisplay.obj
 0002:00000448       ??_C@_1BK@BIGILECK@?$AAA?$AAd?$AAv?$AAa?$AAp?$AAi?$AA3?$AA2?$AA?4?$AAd?$AAl?$AAl@ 10020448     GraphicDisplay.obj
 0002:00000464       __GUID_00000114_0000_0000_c000_000000000046 10020464     GraphicDisplay.obj
 0002:00000474       ??_C@_0BI@MNCFCPFK@RegCreateKeyTransactedW@ 10020474     GraphicDisplay.obj
 0002:0000048c       __GUID_b196b287_bab4_101a_b69c_00aa00341d07 1002048c     GraphicDisplay.obj
 0002:0000049c       __GUID_b196b285_bab4_101a_b69c_00aa00341d07 1002049c     GraphicDisplay.obj
 0002:000004ac       __GUID_a6bc3ac0_dbaa_11ce_9de3_00aa004bb851 100204ac     GraphicDisplay.obj
 0002:000004bc       __GUID_0000010c_0000_0000_c000_000000000046 100204bc     GraphicDisplay.obj
 0002:000004cc       __GUID_00000146_0000_0000_c000_000000000046 100204cc     GraphicDisplay.obj
 0002:000004e0       ?_entries@?1??_GetEntries@COPOSGraphicDisplay@@SGPBU_ATL_INTMAP_ENTRY@ATL@@XZ@4QBU34@B 100204e0     GraphicDisplay.obj
 0002:00000600       __GUID_cf51ed10_62fe_11cf_bf86_00a0c9034836 10020600     GraphicDisplay.obj
 0002:00000610       __GUID_0000010a_0000_0000_c000_000000000046 10020610     GraphicDisplay.obj
 0002:00000620       __GUID_b196b283_bab4_101a_b69c_00aa00341d07 10020620     GraphicDisplay.obj
 0002:00000630       __GUID_cb5bdc81_93c1_11cf_8f20_00805f2cd064 10020630     GraphicDisplay.obj
 0002:00000640       ?pPropMap@?1??GetPropertyMap@COPOSGraphicDisplay@@SAPBUATL_PROPMAP_ENTRY@ATL@@XZ@4QBU34@B 10020640     GraphicDisplay.obj
 0002:000006ac       ??_C@_17DGDADEHL@?$AA_?$AAc?$AAx@ 100206ac     GraphicDisplay.obj
 0002:000006b4       ??_C@_17IOIMFDBO@?$AA_?$AAc?$AAy@ 100206b4     GraphicDisplay.obj
 0002:000006bc       ??_7CComModule@ATL@@6B@    100206bc     GraphicDisplay.obj
 0002:000006e4       __GUID_922eada0_3424_11cf_b670_00aa004cd6d8 100206e4     GraphicDisplay.obj
 0002:000006f4       __GUID_9c2cad80_3424_11cf_b670_00aa004cd6d8 100206f4     GraphicDisplay.obj
 0002:00000704       __GUID_00000119_0000_0000_c000_000000000046 10020704     GraphicDisplay.obj
 0002:00000714       __GUID_b196b289_bab4_101a_b69c_00aa00341d07 10020714     GraphicDisplay.obj
 0002:00000724       __GUID_00000000_0000_0000_c000_000000000046 10020724     GraphicDisplay.obj
 0002:00000734       __GUID_00020400_0000_0000_c000_000000000046 10020734     GraphicDisplay.obj
 0002:00000744       ??_7?$CComObjectCached@VCComClassFactory@ATL@@@ATL@@6B@ 10020744     GraphicDisplay.obj
 0002:0000075c       ??_C@_1CE@PGFMOFKI@?$AAS?$AAt?$AAa?$AAt?$AAu?$AAs?$AAU?$AAp?$AAd?$AAa?$AAt?$AAe?$AAE?$AAv?$AAe@ 1002075c     GraphicDisplay.obj
 0002:00000780       ??_C@_1CI@HLBJDONE@?$AAO?$AAu?$AAt?$AAp?$AAu?$AAt?$AAC?$AAo?$AAm?$AAp?$AAl?$AAe?$AAt?$AAe?$AAE@ 10020780     GraphicDisplay.obj
 0002:000007a8       ??_C@_1BG@LODEBHDD@?$AAE?$AAr?$AAr?$AAo?$AAr?$AAE?$AAv?$AAe?$AAn?$AAt@ 100207a8     GraphicDisplay.obj
 0002:000007c0       ??_C@_1BM@CBGEBBBJ@?$AAD?$AAi?$AAr?$AAe?$AAc?$AAt?$AAI?$AAO?$AAE?$AAv?$AAe?$AAn?$AAt@ 100207c0     GraphicDisplay.obj
 0002:000007dc       __GUID_00000117_0000_0000_c000_000000000046 100207dc     GraphicDisplay.obj
 0002:000007ec       __GUID_b196b286_bab4_101a_b69c_00aa00341d07 100207ec     GraphicDisplay.obj
 0002:000007fc       ??_C@_1BC@ENICKDH@?$AAC?$AAo?$AAn?$AAt?$AAe?$AAn?$AAt?$AAs@ 100207fc     GraphicDisplay.obj
 0002:00000810       ??_7?$CComObject@V?$CComEnum@UIEnumConnectionPoints@@$1?_GUID_b196b285_bab4_101a_b69c_00aa00341d07@@3U__s_GUID@@BPAUIConnectionPoint@@V?$_CopyInterface@UIConnectionPoint@@@ATL@@VCComSingleThreadModel@6@@ATL@@@ATL@@6B@ 10020810     GraphicDisplay.obj
 0002:00000830       ??_C@_1M@KANJNLFF@?$AAC?$AAL?$AAS?$AAI?$AAD@ 10020830     GraphicDisplay.obj
 0002:0000083c       ??_C@_1M@EJNEECMJ@?$AAA?$AAp?$AAp?$AAI?$AAD@ 1002083c     GraphicDisplay.obj
 0002:00000848       __GUID_0000010e_0000_0000_c000_000000000046 10020848     GraphicDisplay.obj
 0002:00000858       __GUID_b196b288_bab4_101a_b69c_00aa00341d07 10020858     GraphicDisplay.obj
 0002:00000868       ?rgszNeverDelete@CRegParser@ATL@@1QBQB_WB 10020868     GraphicDisplay.obj
 0002:00000898       ??_7CRegObject@ATL@@6B@    10020898     GraphicDisplay.obj
 0002:000008b0       __GUID_00000113_0000_0000_c000_000000000046 100208b0     GraphicDisplay.obj
 0002:000008c0       __GUID_1c2056cc_5ef4_101b_8bc8_00aa003e3b29 100208c0     GraphicDisplay.obj
 0002:000008d0       ??_C@_1CK@OEKPKBNA@?$AAC?$AAo?$AAm?$AAp?$AAo?$AAn?$AAe?$AAn?$AAt?$AA?5?$AAC?$AAa?$AAt?$AAe?$AAg@ 100208d0     GraphicDisplay.obj
 0002:000008fc       ??_C@_1BC@NKMMNMGL@?$AAF?$AAi?$AAl?$AAe?$AAT?$AAy?$AAp?$AAe@ 100208fc     GraphicDisplay.obj
 0002:00000910       ??_C@_1BE@EKPAFMCP@?$AAI?$AAn?$AAt?$AAe?$AAr?$AAf?$AAa?$AAc?$AAe@ 10020910     GraphicDisplay.obj
 0002:00000924       ??_C@_1BC@MAICEHGI@?$AAH?$AAa?$AAr?$AAd?$AAw?$AAa?$AAr?$AAe@ 10020924     GraphicDisplay.obj
 0002:00000938       ??_C@_19HLLLM@?$AAM?$AAi?$AAm?$AAe@ 10020938     GraphicDisplay.obj
 0002:00000944       ??_C@_17OMAOINJK@?$AAS?$AAA?$AAM@ 10020944     GraphicDisplay.obj
 0002:0000094c       ??_C@_1BC@IBECJAAI@?$AAS?$AAE?$AAC?$AAU?$AAR?$AAI?$AAT?$AAY@ 1002094c     GraphicDisplay.obj
 0002:00000960       ??_C@_1O@GBFINDKL@?$AAS?$AAY?$AAS?$AAT?$AAE?$AAM@ 10020960     GraphicDisplay.obj
 0002:00000970       ??_C@_1BC@EAHCMADO@?$AAS?$AAo?$AAf?$AAt?$AAw?$AAa?$AAr?$AAe@ 10020970     GraphicDisplay.obj
 0002:00000984       ??_C@_1BA@JIHHIEDE@?$AAT?$AAy?$AAp?$AAe?$AAL?$AAi?$AAb@ 10020984     GraphicDisplay.obj
 0002:00000998       ?map@?1??HKeyFromString@CRegParser@ATL@@KAPAUHKEY__@@PA_W@Z@4QBUkeymap@?1??123@KAPAU4@0@Z@B 10020998     GraphicDisplay.obj
 0002:00000a08       ??_C@_19NCHLBIN@?$AAH?$AAK?$AAC?$AAR@ 10020a08     GraphicDisplay.obj
 0002:00000a14       ??_C@_19JAPAIJDE@?$AAH?$AAK?$AAC?$AAU@ 10020a14     GraphicDisplay.obj
 0002:00000a20       ??_C@_19PEALEEJB@?$AAH?$AAK?$AAL?$AAM@ 10020a20     GraphicDisplay.obj
 0002:00000a2c       ??_C@_17PJOJPMPB@?$AAH?$AAK?$AAU@ 10020a2c     GraphicDisplay.obj
 0002:00000a34       ??_C@_19PNBHMJPL@?$AAH?$AAK?$AAP?$AAD@ 10020a34     GraphicDisplay.obj
 0002:00000a40       ??_C@_19GFFAIJHG@?$AAH?$AAK?$AAD?$AAD@ 10020a40     GraphicDisplay.obj
 0002:00000a4c       ??_C@_19OFICIBHH@?$AAH?$AAK?$AAC?$AAC@ 10020a4c     GraphicDisplay.obj
 0002:00000a58       ??_C@_1CE@PACHPJFI@?$AAH?$AAK?$AAE?$AAY?$AA_?$AAC?$AAL?$AAA?$AAS?$AAS?$AAE?$AAS?$AA_?$AAR?$AAO@ 10020a58     GraphicDisplay.obj
 0002:00000a7c       ??_C@_1CE@HLHNCBPM@?$AAH?$AAK?$AAE?$AAY?$AA_?$AAC?$AAU?$AAR?$AAR?$AAE?$AAN?$AAT?$AA_?$AAU?$AAS@ 10020a7c     GraphicDisplay.obj
 0002:00000aa0       ??_C@_1CG@GFBEANJL@?$AAH?$AAK?$AAE?$AAY?$AA_?$AAL?$AAO?$AAC?$AAA?$AAL?$AA_?$AAM?$AAA?$AAC?$AAH@ 10020aa0     GraphicDisplay.obj
 0002:00000ac8       ??_C@_1BG@BGODANIO@?$AAH?$AAK?$AAE?$AAY?$AA_?$AAU?$AAS?$AAE?$AAR?$AAS@ 10020ac8     GraphicDisplay.obj
 0002:00000ae0       ??_C@_1CM@KHNNAOIC@?$AAH?$AAK?$AAE?$AAY?$AA_?$AAP?$AAE?$AAR?$AAF?$AAO?$AAR?$AAM?$AAA?$AAN?$AAC@ 10020ae0     GraphicDisplay.obj
 0002:00000b0c       ??_C@_1BM@HAGMMHIA@?$AAH?$AAK?$AAE?$AAY?$AA_?$AAD?$AAY?$AAN?$AA_?$AAD?$AAA?$AAT?$AAA@ 10020b0c     GraphicDisplay.obj
 0002:00000b28       ??_C@_1CI@BBJOACGG@?$AAH?$AAK?$AAE?$AAY?$AA_?$AAC?$AAU?$AAR?$AAR?$AAE?$AAN?$AAT?$AA_?$AAC?$AAO@ 10020b28     GraphicDisplay.obj
 0002:00000b50       __GUID_00000109_0000_0000_c000_000000000046 10020b50     GraphicDisplay.obj
 0002:00000b60       __GUID_7fd52380_4e07_101b_ae2d_08002b2ec713 10020b60     GraphicDisplay.obj
 0002:00000b70       __GUID_00000112_0000_0000_c000_000000000046 10020b70     GraphicDisplay.obj
 0002:00000b80       __GUID_3af24292_0c96_11ce_a0cf_00aa00600ab8 10020b80     GraphicDisplay.obj
 0002:00000b90       __GUID_00000127_0000_0000_c000_000000000046 10020b90     GraphicDisplay.obj
 0002:00000ba0       __GUID_0000010d_0000_0000_c000_000000000046 10020ba0     GraphicDisplay.obj
 0002:00000bb0       ??_C@_1EA@NHKLICFA@?$AAH?$AAK?$AAC?$AAU?$AA?$AN?$AA?6?$AA?$HL?$AA?7?$AAS?$AAo?$AAf?$AAt?$AAw?$AAa?$AAr@ 10020bb0     GraphicDisplay.obj
 0002:00000bf0       ??_C@_1BE@LJOLIMEM@?$AA?$AN?$AA?6?$AA?7?$AA?$HN?$AA?$AN?$AA?6?$AA?$HN?$AA?$AN?$AA?6@ 10020bf0     GraphicDisplay.obj
 0002:00000c04       ??_C@_1M@PPPPCDEP@?$AAA?$AAP?$AAP?$AAI?$AAD@ 10020c04     GraphicDisplay.obj
 0002:00000c10       ??_C@_1O@MNLDABAF@?$AAM?$AAo?$AAd?$AAu?$AAl?$AAe@ 10020c10     GraphicDisplay.obj
 0002:00000c20       ??_C@_1BG@JBACFMF@?$AAM?$AAo?$AAd?$AAu?$AAl?$AAe?$AA_?$AAR?$AAa?$AAw@ 10020c20     GraphicDisplay.obj
 0002:00000c38       ??_C@_1BC@KAILKFFG@?$AAR?$AAE?$AAG?$AAI?$AAS?$AAT?$AAR?$AAY@ 10020c38     GraphicDisplay.obj
 0002:00000c4c       ??_7?$CComContainedObject@VCOPOSGraphicDisplay@@@ATL@@6B?$IDispatchImpl@UIOPOSGraphicDisplay@@$1?IID_IOPOSGraphicDisplay@@3U_GUID@@B$1?LIBID_OposGraphicDisplay_CCO@@3U3@B$00$0A@VCComTypeInfoHolder@ATL@@@1@@ 10020c4c     GraphicDisplay.obj
 0002:00000d9c       ??_7?$CComContainedObject@VCOPOSGraphicDisplay@@@ATL@@6BCComControlBase@1@@ 10020d9c     GraphicDisplay.obj
 0002:00000db0       ??_7?$CComContainedObject@VCOPOSGraphicDisplay@@@ATL@@6B?$CWindowImpl@VCOPOSGraphicDisplay@@VCWindow@ATL@@V?$CWinTraits@$0FGAAAAAA@$0A@@3@@1@@ 10020db0     GraphicDisplay.obj
 0002:00000dc0       ??_7?$CComContainedObject@VCOPOSGraphicDisplay@@@ATL@@6B?$IPersistStreamInitImpl@VCOPOSGraphicDisplay@@@1@@ 10020dc0     GraphicDisplay.obj
 0002:00000de4       ??_7?$CComContainedObject@VCOPOSGraphicDisplay@@@ATL@@6B?$IOleControlImpl@VCOPOSGraphicDisplay@@@1@@ 10020de4     GraphicDisplay.obj
 0002:00000e00       ??_7?$CComContainedObject@VCOPOSGraphicDisplay@@@ATL@@6B?$IOleObjectImpl@VCOPOSGraphicDisplay@@@1@@ 10020e00     GraphicDisplay.obj
 0002:00000e60       ??_7?$CComContainedObject@VCOPOSGraphicDisplay@@@ATL@@6B?$IOleInPlaceActiveObjectImpl@VCOPOSGraphicDisplay@@@1@@ 10020e60     GraphicDisplay.obj
 0002:00000e88       ??_7?$CComContainedObject@VCOPOSGraphicDisplay@@@ATL@@6B?$IViewObjectExImpl@VCOPOSGraphicDisplay@@@1@@ 10020e88     GraphicDisplay.obj
 0002:00000ec4       ??_7?$CComContainedObject@VCOPOSGraphicDisplay@@@ATL@@6B?$IOleInPlaceObjectWindowlessImpl@VCOPOSGraphicDisplay@@@1@@ 10020ec4     GraphicDisplay.obj
 0002:00000ef0       ??_7?$CComContainedObject@VCOPOSGraphicDisplay@@@ATL@@6B?$IConnectionPointContainerImpl@VCOPOSGraphicDisplay@@@1@@ 10020ef0     GraphicDisplay.obj
 0002:00000f04       ??_7?$CComContainedObject@VCOPOSGraphicDisplay@@@ATL@@6B?$IPersistStorageImpl@VCOPOSGraphicDisplay@@@1@@ 10020f04     GraphicDisplay.obj
 0002:00000f2c       ??_7?$CComContainedObject@VCOPOSGraphicDisplay@@@ATL@@6B?$ISpecifyPropertyPagesImpl@VCOPOSGraphicDisplay@@@1@@ 10020f2c     GraphicDisplay.obj
 0002:00000f3c       ??_7?$CComContainedObject@VCOPOSGraphicDisplay@@@ATL@@6B?$IQuickActivateImpl@VCOPOSGraphicDisplay@@@1@@ 10020f3c     GraphicDisplay.obj
 0002:00000f54       ??_7?$CComContainedObject@VCOPOSGraphicDisplay@@@ATL@@6B?$IDataObjectImpl@VCOPOSGraphicDisplay@@@1@@ 10020f54     GraphicDisplay.obj
 0002:00000f84       ??_7?$CComContainedObject@VCOPOSGraphicDisplay@@@ATL@@6B?$IProvideClassInfo2Impl@$1?CLSID_OPOSGraphicDisplay@@3U_GUID@@B$1?DIID__IOPOSGraphicDisplayEvents@@3U2@B$1?LIBID_OposGraphicDisplay_CCO@@3U2@B$00$0A@VCComTypeInfoHolder@ATL@@@1@@ 10020f84     GraphicDisplay.obj
 0002:00000f98       ??_7?$CComContainedObject@VCOPOSGraphicDisplay@@@ATL@@6B?$IObjectSafetyImpl@VCOPOSGraphicDisplay@@$02@1@@ 10020f98     GraphicDisplay.obj
 0002:00000fb0       ??_7?$CComContainedObject@VCOPOSGraphicDisplay@@@ATL@@6B?$IPropertyNotifySinkCP@VCOPOSGraphicDisplay@@VCComDynamicUnkArray@ATL@@@1@@ 10020fb0     GraphicDisplay.obj
 0002:00000fd0       ??_7?$CComContainedObject@VCOPOSGraphicDisplay@@@ATL@@6B?$CProxy_IOPOSEvents@VCOPOSGraphicDisplay@@@@@ 10020fd0     GraphicDisplay.obj
 0002:00000ff0       ??_7?$CComAggObject@VCOPOSGraphicDisplay@@@ATL@@6B@ 10020ff0     GraphicDisplay.obj
 0002:00001000       ??_7?$CComObject@VCOPOSGraphicDisplay@@@ATL@@6B?$IDispatchImpl@UIOPOSGraphicDisplay@@$1?IID_IOPOSGraphicDisplay@@3U_GUID@@B$1?LIBID_OposGraphicDisplay_CCO@@3U3@B$00$0A@VCComTypeInfoHolder@ATL@@@1@@ 10021000     GraphicDisplay.obj
 0002:00001150       ??_7?$CComObject@VCOPOSGraphicDisplay@@@ATL@@6BCComControlBase@1@@ 10021150     GraphicDisplay.obj
 0002:00001164       ??_7?$CComObject@VCOPOSGraphicDisplay@@@ATL@@6B?$CWindowImpl@VCOPOSGraphicDisplay@@VCWindow@ATL@@V?$CWinTraits@$0FGAAAAAA@$0A@@3@@1@@ 10021164     GraphicDisplay.obj
 0002:00001174       ??_7?$CComObject@VCOPOSGraphicDisplay@@@ATL@@6B?$IPersistStreamInitImpl@VCOPOSGraphicDisplay@@@1@@ 10021174     GraphicDisplay.obj
 0002:00001198       ??_7?$CComObject@VCOPOSGraphicDisplay@@@ATL@@6B?$IOleControlImpl@VCOPOSGraphicDisplay@@@1@@ 10021198     GraphicDisplay.obj
 0002:000011b4       ??_7?$CComObject@VCOPOSGraphicDisplay@@@ATL@@6B?$IOleObjectImpl@VCOPOSGraphicDisplay@@@1@@ 100211b4     GraphicDisplay.obj
 0002:00001214       ??_7?$CComObject@VCOPOSGraphicDisplay@@@ATL@@6B?$IOleInPlaceActiveObjectImpl@VCOPOSGraphicDisplay@@@1@@ 10021214     GraphicDisplay.obj
 0002:0000123c       ??_7?$CComObject@VCOPOSGraphicDisplay@@@ATL@@6B?$IViewObjectExImpl@VCOPOSGraphicDisplay@@@1@@ 1002123c     GraphicDisplay.obj
 0002:00001278       ??_7?$CComObject@VCOPOSGraphicDisplay@@@ATL@@6B?$IOleInPlaceObjectWindowlessImpl@VCOPOSGraphicDisplay@@@1@@ 10021278     GraphicDisplay.obj
 0002:000012a4       ??_7?$CComObject@VCOPOSGraphicDisplay@@@ATL@@6B?$IConnectionPointContainerImpl@VCOPOSGraphicDisplay@@@1@@ 100212a4     GraphicDisplay.obj
 0002:000012b8       ??_7?$CComObject@VCOPOSGraphicDisplay@@@ATL@@6B?$IPersistStorageImpl@VCOPOSGraphicDisplay@@@1@@ 100212b8     GraphicDisplay.obj
 0002:000012e0       ??_7?$CComObject@VCOPOSGraphicDisplay@@@ATL@@6B?$ISpecifyPropertyPagesImpl@VCOPOSGraphicDisplay@@@1@@ 100212e0     GraphicDisplay.obj
 0002:000012f0       ??_7?$CComObject@VCOPOSGraphicDisplay@@@ATL@@6B?$IQuickActivateImpl@VCOPOSGraphicDisplay@@@1@@ 100212f0     GraphicDisplay.obj
 0002:00001308       ??_7?$CComObject@VCOPOSGraphicDisplay@@@ATL@@6B?$IDataObjectImpl@VCOPOSGraphicDisplay@@@1@@ 10021308     GraphicDisplay.obj
 0002:00001338       ??_7?$CComObject@VCOPOSGraphicDisplay@@@ATL@@6B?$IProvideClassInfo2Impl@$1?CLSID_OPOSGraphicDisplay@@3U_GUID@@B$1?DIID__IOPOSGraphicDisplayEvents@@3U2@B$1?LIBID_OposGraphicDisplay_CCO@@3U2@B$00$0A@VCComTypeInfoHolder@ATL@@@1@@ 10021338     GraphicDisplay.obj
 0002:0000134c       ??_7?$CComObject@VCOPOSGraphicDisplay@@@ATL@@6B?$IObjectSafetyImpl@VCOPOSGraphicDisplay@@$02@1@@ 1002134c     GraphicDisplay.obj
 0002:00001364       ??_7?$CComObject@VCOPOSGraphicDisplay@@@ATL@@6B?$IPropertyNotifySinkCP@VCOPOSGraphicDisplay@@VCComDynamicUnkArray@ATL@@@1@@ 10021364     GraphicDisplay.obj
 0002:00001384       ??_7?$CComObject@VCOPOSGraphicDisplay@@@ATL@@6B?$CProxy_IOPOSEvents@VCOPOSGraphicDisplay@@@@@ 10021384     GraphicDisplay.obj
 0002:000013a4       ??_C@_1O@GBFKGNEO@?$AAA?$AAT?$AAL?$AA?3?$AA?$CF?$AAp@ 100213a4     GraphicDisplay.obj
 0002:000013b4       ??_C@_1BA@PICGEGJB@?$AAD?$AAI?$AAS?$AAP?$AAL?$AAA?$AAY@ 100213b4     GraphicDisplay.obj
 0002:000013c4       __GUID_9bfbbc02_eff1_101a_84ed_00aa00341d07 100213c4     GraphicDisplay.obj
 0002:000013d4       __GUID_b196b284_bab4_101a_b69c_00aa00341d07 100213d4     GraphicDisplay.obj
 0002:000013e4       ?_entries@?1??_GetEntries@?$CComEnum@UIEnumConnectionPoints@@$1?_GUID_b196b285_bab4_101a_b69c_00aa00341d07@@3U__s_GUID@@BPAUIConnectionPoint@@V?$_CopyInterface@UIConnectionPoint@@@ATL@@VCComSingleThreadModel@6@@ATL@@SGPBU_ATL_INTMAP_ENTRY@3@XZ@4QBU43@B 100213e4     GraphicDisplay.obj
 0002:000013fc       __GUID_00020412_0000_0000_c000_000000000046 100213fc     GraphicDisplay.obj
 0002:0000140c       __GUID_00020401_0000_0000_c000_000000000046 1002140c     GraphicDisplay.obj
 0002:0000141c       ??_7?$CComObject@V?$CComEnum@UIEnumConnections@@$1?_GUID_b196b287_bab4_101a_b69c_00aa00341d07@@3U__s_GUID@@BUtagCONNECTDATA@@V?$_Copy@UtagCONNECTDATA@@@ATL@@VCComSingleThreadModel@6@@ATL@@@ATL@@6B@ 1002141c     GraphicDisplay.obj
 0002:0000143c       __GUID_55980ba0_35aa_11cf_b671_00aa004cd6d8 1002143c     GraphicDisplay.obj
 0002:0000144c       __GUID_b196b28b_bab4_101a_b69c_00aa00341d07 1002144c     GraphicDisplay.obj
 0002:0000145c       ?_entries@?1??_GetEntries@?$CComEnum@UIEnumConnections@@$1?_GUID_b196b287_bab4_101a_b69c_00aa00341d07@@3U__s_GUID@@BUtagCONNECTDATA@@V?$_Copy@UtagCONNECTDATA@@@ATL@@VCComSingleThreadModel@6@@ATL@@SGPBU_ATL_INTMAP_ENTRY@3@XZ@4QBU43@B 1002145c     GraphicDisplay.obj
 0002:00001474       ??_C@_0BG@EKFFMJIO@RegOpenKeyTransactedW@ 10021474     GraphicDisplay.obj
 0002:0000148c       ??_C@_0BI@HAKLOOGP@RegDeleteKeyTransactedW@ 1002148c     GraphicDisplay.obj
 0002:000014a4       ??_C@_0BA@LILAPHGE@RegDeleteKeyExW@ 100214a4     GraphicDisplay.obj
 0002:000014b4       ??_C@_19ILOCMLCJ@?$AA?4?$AAt?$AAl?$AAb@ 100214b4     GraphicDisplay.obj
 0002:000014c0       __GUID_0002e012_0000_0000_c000_000000000046 100214c0     GraphicDisplay.obj
 0002:000014d0       ??_C@_1O@FHBGLCIO@?$AAC?$AAL?$AAS?$AAI?$AAD?$AA?2@ 100214d0     GraphicDisplay.obj
 0002:000014e0       ??_C@_1CK@IFBKBFAA@?$AA?2?$AAR?$AAe?$AAq?$AAu?$AAi?$AAr?$AAe?$AAd?$AA?5?$AAC?$AAa?$AAt?$AAe?$AAg@ 100214e0     GraphicDisplay.obj
 0002:0000150c       ??_C@_1DA@BIHALFED@?$AA?2?$AAI?$AAm?$AAp?$AAl?$AAe?$AAm?$AAe?$AAn?$AAt?$AAe?$AAd?$AA?5?$AAC?$AAa@ 1002150c     GraphicDisplay.obj
 0002:0000153c       ??_C@_1BK@EDKOLFBJ@?$AAO?$AAL?$AAE?$AAA?$AAU?$AAT?$AA3?$AA2?$AA?4?$AAD?$AAL?$AAL@ 1002153c     GraphicDisplay.obj
 0002:00001558       ??_C@_0BJ@CNLFOMHB@UnRegisterTypeLibForUser@ 10021558     GraphicDisplay.obj
 0002:00001574       ??_C@_0BH@LBOMMKPJ@RegisterTypeLibForUser@ 10021574     GraphicDisplay.obj
 0002:0000158c       ??_C@_0P@MMNMMLGK@COFreezeEvents@ 1002158c     GraphicDisplayImpl.obj
 0002:0000159c       ??_C@_0BC@OGCGGIMP@GetPropertyNumber@ 1002159c     GraphicDisplayImpl.obj
 0002:000015b0       ??_C@_0BC@MDCNODNB@SetPropertyNumber@ 100215b0     GraphicDisplayImpl.obj
 0002:000015c4       ??_C@_0BC@CFCCMIMD@GetPropertyString@ 100215c4     GraphicDisplayImpl.obj
 0002:000015d8       ??_C@_0BC@CJEDNN@SetPropertyString@ 100215d8     GraphicDisplayImpl.obj
 0002:000015ec       ??_C@_0M@LNPKKKDA@OpenService@ 100215ec     GraphicDisplayImpl.obj
 0002:000015f8       ??_C@_0M@PCMCHHMH@CheckHealth@ 100215f8     GraphicDisplayImpl.obj
 0002:00001604       ??_C@_0M@JGMIDNEK@ClaimDevice@ 10021604     GraphicDisplayImpl.obj
 0002:00001610       ??_C@_0M@JMBCPNGJ@ClearOutput@ 10021610     GraphicDisplayImpl.obj
 0002:0000161c       ??_C@_0N@DDFIIBMP@CloseService@ 1002161c     GraphicDisplayImpl.obj
 0002:0000162c       ??_C@_08EEIHICPC@DirectIO@ 1002162c     GraphicDisplayImpl.obj
 0002:00001638       ??_C@_0O@BCPMENMJ@ReleaseDevice@ 10021638     GraphicDisplayImpl.obj
 0002:00001648       ??_C@_0BA@GFABKEEE@ResetStatistics@ 10021648     GraphicDisplayImpl.obj
 0002:00001658       ??_C@_0BD@DPALHJGC@RetrieveStatistics@ 10021658     GraphicDisplayImpl.obj
 0002:0000166c       ??_C@_0BB@KOHIKNFC@UpdateStatistics@ 1002166c     GraphicDisplayImpl.obj
 0002:00001680       ??_C@_0BH@PBKBNMGB@CompareFirmwareVersion@ 10021680     GraphicDisplayImpl.obj
 0002:00001698       ??_C@_0P@FBPDPIPA@UpdateFirmware@ 10021698     GraphicDisplayImpl.obj
 0002:000016a8       ??_C@_0O@MHDIOAHN@CancelLoading@ 100216a8     GraphicDisplayImpl.obj
 0002:000016b8       ??_C@_09FPOOFGFE@GoURLBack@ 100216b8     GraphicDisplayImpl.obj
 0002:000016c4       ??_C@_0N@KMHHOPHP@GoURLForward@ 100216c4     GraphicDisplayImpl.obj
 0002:000016d4       ??_C@_09OHOMMMHI@LoadImage@ 100216d4     GraphicDisplayImpl.obj
 0002:000016e0       ??_C@_07PJCMMDAN@LoadURL@  100216e0     GraphicDisplayImpl.obj
 0002:000016e8       ??_C@_09CMEPLGIN@PlayVideo@ 100216e8     GraphicDisplayImpl.obj
 0002:000016f4       ??_C@_09FAHCLKAG@StopVideo@ 100216f4     GraphicDisplayImpl.obj
 0002:00001700       ??_C@_0L@NIJDLNFL@UpdatePage@ 10021700     GraphicDisplayImpl.obj
 0002:0000170c       ??_7?$CProxy_IOPOSEvents@VCOPOSGraphicDisplay@@@@6B@ 1002170c     GraphicDisplayImpl.obj
 0002:0000172c       ??_C@_1BA@IFHENID@?$AA?$FL?$AAE?$AAr?$AAr?$AAo?$AAr?$AA?$FN@ 1002172c     GraphicDisplayImpl.obj
 0002:0000173c       ??_C@_0DB@DHHLOAKN@SOFTWARE?2OLEforRetail?2ServiceOP@ 1002173c     GraphicDisplayImpl.obj
 0002:00001770       ??_C@_1M@IAIJHCCH@?$AAC?$AAl?$AAo?$AAs?$AAe@ 10021770     GraphicDisplayImpl.obj
 0002:0000177c       ??_C@_1M@PCPKGJAH@?$AAC?$AAl?$AAa?$AAi?$AAm@ 1002177c     GraphicDisplayImpl.obj
 0002:00001788       ??_C@_1BA@NDFKIOCP@?$AAR?$AAe?$AAl?$AAe?$AAa?$AAs?$AAe@ 10021788     GraphicDisplayImpl.obj
 0002:00001798       ??_C@_0P@CGHGOJIM@GraphicDisplay@ 10021798     GraphicDisplayImpl.obj
 0002:000017a8       ??_C@_1BM@IJMNMBPK@?$AAG?$AAe?$AAt?$AAO?$AAp?$AAe?$AAn?$AAR?$AAe?$AAs?$AAu?$AAl?$AAt@ 100217a8     GraphicDisplayImpl.obj
 0002:000017c4       _IID_IPropertyNotifySink   100217c4     uuid:ocidl_i.obj
 0002:000017d4       _GUID_NULL                 100217d4     uuid:cguid_i.obj
 0002:000017e4       _CLSID_StdGlobalInterfaceTable 100217e4     uuid:cguid_i.obj
 0002:000017f4       _IID_IDispatch             100217f4     uuid:oaidl_i.obj
 0002:00001804       _CLSID_StdComponentCategoriesMgr 10021804     uuid:ieguids.obj
 0002:00001814       _IID_IUnknown              10021814     uuid:unknwn_i.obj
 0002:00001828       ??_C@_1EC@JIJBPKFM@?$AAa?$AAp?$AAi?$AA?9?$AAm?$AAs?$AA?9?$AAw?$AAi?$AAn?$AA?9?$AAc?$AAo?$AAr?$AAe@ 10021828     LIBCMT:thread_safe_statics.obj
 0002:0000186c       ??_C@_1BK@MGMFAEKH@?$AAk?$AAe?$AAr?$AAn?$AAe?$AAl?$AA3?$AA2?$AA?4?$AAd?$AAl?$AAl@ 1002186c     LIBCMT:thread_safe_statics.obj
 0002:00001888       ??_C@_0BJ@JEBJOJFJ@SleepConditionVariableCS@ 10021888     LIBCMT:thread_safe_statics.obj
 0002:000018a4       ??_C@_0BJ@PGPPEPCC@WakeAllConditionVariable@ 100218a4     LIBCMT:thread_safe_statics.obj
 0002:000018bd       ?nothrow@std@@3Unothrow_t@1@B 100218bd     LIBCMT:std_nothrow.obj
 0002:000018c8       __pRawDllMain              100218c8     LIBCMT:dll_dllmain.obj
 0002:000018c8       __pDefaultRawDllMain       100218c8     LIBCMT:dll_dllmain.obj
 0002:000018d0       ??_7exception@std@@6B@     100218d0     LIBCMT:throw_bad_alloc.obj
 0002:000018d8       ??_C@_0BC@EOODALEL@Unknown?5exception@ 100218d8     LIBCMT:throw_bad_alloc.obj
 0002:000018f0       ??_7bad_alloc@std@@6B@     100218f0     LIBCMT:throw_bad_alloc.obj
 0002:000018f8       ??_C@_0P@GHFPNOJB@bad?5allocation@ 100218f8     LIBCMT:throw_bad_alloc.obj
 0002:0000190c       ??_7bad_array_new_length@std@@6B@ 1002190c     LIBCMT:throw_bad_alloc.obj
 0002:00001914       ??_C@_0BF@KINCDENJ@bad?5array?5new?5length@ 10021914     LIBCMT:throw_bad_alloc.obj
 0002:00001930       ??_7type_info@@6B@         10021930     LIBCMT:std_type_info_static.obj
 0002:00001934       _GUID_ATLVer110            10021934     atls:atlbase.obj
 0002:00001948       ??_C@_1IC@ONKHOIDK@?$AAE?$AAR?$AAR?$AAO?$AAR?$AA?5?$AA?3?$AA?5?$AAU?$AAn?$AAa?$AAb?$AAl?$AAe?$AA?5@ 10021948     atls:atlbase.obj
 0002:000019cc       ??_C@_0N@FJEPLCIH@atlthunk?4dll@ 100219cc     atls:atlthunk.obj
 0002:000019dc       ??_C@_0BG@GAKFHCBM@AtlThunk_AllocateData@ 100219dc     atls:atlthunk.obj
 0002:000019f4       ??_C@_0BC@JKONFIAH@AtlThunk_InitData@ 100219f4     atls:atlthunk.obj
 0002:00001a08       ??_C@_0BE@IAOEELAK@AtlThunk_DataToCode@ 10021a08     atls:atlthunk.obj
 0002:00001a1c       ??_C@_0BC@GBGKAIPI@AtlThunk_FreeData@ 10021a1c     atls:atlthunk.obj
 0002:00001a30       __pDestructExceptionObject 10021a30     libvcruntime:ehhelpers.obj
 0002:00001a38       ??_7bad_exception@std@@6B@ 10021a38     libvcruntime:frame.obj
 0002:00001a40       ??_C@_0O@DPKOEFFH@bad?5exception@ 10021a40     libvcruntime:frame.obj
 0002:00001dd0       ??_C@_08EHJDFFNH@__based?$CI@ 10021dd0     libvcruntime:undname.obj
 0002:00001ddc       ??_C@_07KOLFKCDI@__cdecl@  10021ddc     libvcruntime:undname.obj
 0002:00001de4       ??_C@_08GHMPAG@__pascal@   10021de4     libvcruntime:undname.obj
 0002:00001df0       ??_C@_09IFJBGAPI@__stdcall@ 10021df0     libvcruntime:undname.obj
 0002:00001dfc       ??_C@_0L@NPHFGOKO@__thiscall@ 10021dfc     libvcruntime:undname.obj
 0002:00001e08       ??_C@_0L@JMKHOMEK@__fastcall@ 10021e08     libvcruntime:undname.obj
 0002:00001e14       ??_C@_0N@BCKKPABJ@__vectorcall@ 10021e14     libvcruntime:undname.obj
 0002:00001e24       ??_C@_09HIJEGCPM@__clrcall@ 10021e24     libvcruntime:undname.obj
 0002:00001e30       ??_C@_06GHPCKEAG@__eabi@   10021e30     libvcruntime:undname.obj
 0002:00001e38       ??_C@_09IOPIDJLG@__swift_1@ 10021e38     libvcruntime:undname.obj
 0002:00001e44       ??_C@_09KFNFGKHF@__swift_2@ 10021e44     libvcruntime:undname.obj
 0002:00001e50       ??_C@_07JOMMBBKO@__ptr64@  10021e50     libvcruntime:undname.obj
 0002:00001e58       ??_C@_0L@PILCLIHE@__restrict@ 10021e58     libvcruntime:undname.obj
 0002:00001e64       ??_C@_0M@GFIIJFMG@__unaligned@ 10021e64     libvcruntime:undname.obj
 0002:00001e70       ??_C@_09DHDLOLLB@restrict?$CI@ 10021e70     libvcruntime:undname.obj
 0002:00001e7a       ??_C@_00CNPNBAHC@@         10021e7a     libvcruntime:undname.obj
 0002:00001e7c       ??_C@_04NIHEBCM@?5new@     10021e7c     libvcruntime:undname.obj
 0002:00001e84       ??_C@_07FPCDHGMM@?5delete@ 10021e84     libvcruntime:undname.obj
 0002:00001e8c       ??_C@_01NEMOKFLO@?$DN@     10021e8c     libvcruntime:undname.obj
 0002:00001e90       ??_C@_02GPIOPFAK@?$DO?$DO@ 10021e90     libvcruntime:undname.obj
 0002:00001e94       ??_C@_02FODMEDOG@?$DM?$DM@ 10021e94     libvcruntime:undname.obj
 0002:00001e98       ??_C@_01DCLJPIOD@?$CB@     10021e98     libvcruntime:undname.obj
 0002:00001e9c       ??_C@_02EGOFBIJA@?$DN?$DN@ 10021e9c     libvcruntime:undname.obj
 0002:00001ea0       ??_C@_02FDNJECIE@?$CB?$DN@ 10021ea0     libvcruntime:undname.obj
 0002:00001ea4       ??_C@_02GPECMEKF@?$FL?$FN@ 10021ea4     libvcruntime:undname.obj
 0002:00001ea8       ??_C@_08LHJFAFGD@operator@ 10021ea8     libvcruntime:undname.obj
 0002:00001eb4       ??_C@_02HBOOOICD@?9?$DO@   10021eb4     libvcruntime:undname.obj
 0002:00001eb8       ??_C@_01NBENCBCI@?$CK@     10021eb8     libvcruntime:undname.obj
 0002:00001ebc       ??_C@_02ECNGHCIF@?$CL?$CL@ 10021ebc     libvcruntime:undname.obj
 0002:00001ec0       ??_C@_02BAABKJLB@?9?9@     10021ec0     libvcruntime:undname.obj
 0002:00001ec4       ??_C@_01JOAMLHOP@?9@       10021ec4     libvcruntime:undname.obj
 0002:00001ec8       ??_C@_01MIFGBAGJ@?$CL@     10021ec8     libvcruntime:undname.obj
 0002:00001ecc       ??_C@_01HNPIGOCE@?$CG@     10021ecc     libvcruntime:undname.obj
 0002:00001ed0       ??_C@_03MNHNFDLC@?9?$DO?$CK@ 10021ed0     libvcruntime:undname.obj
 0002:00001ed4       ??_C@_01KMDKNFGN@?1@       10021ed4     libvcruntime:undname.obj
 0002:00001ed8       ??_C@_01FGNFDNOH@?$CF@     10021ed8     libvcruntime:undname.obj
 0002:00001edc       ??_C@_01MNNFJEPP@?$DM@     10021edc     libvcruntime:undname.obj
 0002:00001ee0       ??_C@_02EHCHHCKH@?$DM?$DN@ 10021ee0     libvcruntime:undname.obj
 0002:00001ee4       ??_C@_01PPODPGHN@?$DO@     10021ee4     libvcruntime:undname.obj
 0002:00001ee8       ??_C@_02EEKDKGMJ@?$DO?$DN@ 10021ee8     libvcruntime:undname.obj
 0002:00001eec       ??_C@_01IHBHIGKO@?0@       10021eec     libvcruntime:undname.obj
 0002:00001ef0       ??_C@_02HCKGKOFO@?$CI?$CJ@ 10021ef0     libvcruntime:undname.obj
 0002:00001ef4       ??_C@_01PJKLJHI@?$HO@      10021ef4     libvcruntime:undname.obj
 0002:00001ef8       ??_C@_01JKBOJNNK@?$FO@     10021ef8     libvcruntime:undname.obj
 0002:00001efc       ??_C@_01DNKMNLPK@?$HM@     10021efc     libvcruntime:undname.obj
 0002:00001f00       ??_C@_02PPKAJPJL@?$CG?$CG@ 10021f00     libvcruntime:undname.obj
 0002:00001f04       ??_C@_02NONPIBCD@?$HM?$HM@ 10021f04     libvcruntime:undname.obj
 0002:00001f08       ??_C@_02FPIMKNGF@?$CK?$DN@ 10021f08     libvcruntime:undname.obj
 0002:00001f0c       ??_C@_02FOEOMHFC@?$CL?$DN@ 10021f0c     libvcruntime:undname.obj
 0002:00001f10       ??_C@_02FKMDLLOA@?9?$DN@   10021f10     libvcruntime:undname.obj
 0002:00001f14       ??_C@_02FJEHGPIO@?1?$DN@   10021f14     libvcruntime:undname.obj
 0002:00001f18       ??_C@_02FENAOKFI@?$CF?$DN@ 10021f18     libvcruntime:undname.obj
 0002:00001f1c       ??_C@_03IKFCCPFF@?$DO?$DO?$DN@ 10021f1c     libvcruntime:undname.obj
 0002:00001f20       ??_C@_03CDNPDDLA@?$DM?$DM?$DN@ 10021f20     libvcruntime:undname.obj
 0002:00001f24       ??_C@_02FGJGFEAB@?$CG?$DN@ 10021f24     libvcruntime:undname.obj
 0002:00001f28       ??_C@_02DHLNPPGH@?$HM?$DN@ 10021f28     libvcruntime:undname.obj
 0002:00001f2c       ??_C@_02MHEGNOJ@?$FO?$DN@  10021f2c     libvcruntime:undname.obj
 0002:00001f30       ??_C@_09IFPLHPGF@?$GAvftable?8@ 10021f30     libvcruntime:undname.obj
 0002:00001f3c       ??_C@_09BLBHBJP@?$GAvbtable?8@ 10021f3c     libvcruntime:undname.obj
 0002:00001f48       ??_C@_07FEEIOKP@?$GAvcall?8@ 10021f48     libvcruntime:undname.obj
 0002:00001f50       ??_C@_08LLFFHHDJ@?$GAtypeof?8@ 10021f50     libvcruntime:undname.obj
 0002:00001f5c       ??_C@_0BF@KDPPACIK@?$GAlocal?5static?5guard?8@ 10021f5c     libvcruntime:undname.obj
 0002:00001f74       ??_C@_08OBABFOLI@?$GAstring?8@ 10021f74     libvcruntime:undname.obj
 0002:00001f80       ??_C@_0BD@JDLKDPAB@?$GAvbase?5destructor?8@ 10021f80     libvcruntime:undname.obj
 0002:00001f94       ??_C@_0BN@DEGPLNFK@?$GAvector?5deleting?5destructor?8@ 10021f94     libvcruntime:undname.obj
 0002:00001fb4       ??_C@_0BO@OBMKPJIG@?$GAdefault?5constructor?5closure?8@ 10021fb4     libvcruntime:undname.obj
 0002:00001fd4       ??_C@_0BN@IMDCHIKM@?$GAscalar?5deleting?5destructor?8@ 10021fd4     libvcruntime:undname.obj
 0002:00001ff4       ??_C@_0BO@PFGOCPJJ@?$GAvector?5constructor?5iterator?8@ 10021ff4     libvcruntime:undname.obj
 0002:00002014       ??_C@_0BN@LFPFMEDL@?$GAvector?5destructor?5iterator?8@ 10022014     libvcruntime:undname.obj
 0002:00002034       ??_C@_0CE@IKBNEHA@?$GAvector?5vbase?5constructor?5itera@ 10022034     libvcruntime:undname.obj
 0002:00002058       ??_C@_0BL@NILFHHPC@?$GAvirtual?5displacement?5map?8@ 10022058     libvcruntime:undname.obj
 0002:00002074       ??_C@_0CB@JONCMFFK@?$GAeh?5vector?5constructor?5iterator@ 10022074     libvcruntime:undname.obj
 0002:00002098       ??_C@_0CA@GCEOPDGL@?$GAeh?5vector?5destructor?5iterator?8@ 10022098     libvcruntime:undname.obj
 0002:000020b8       ??_C@_0CH@OOJPLCPH@?$GAeh?5vector?5vbase?5constructor?5it@ 100220b8     libvcruntime:undname.obj
 0002:000020e0       ??_C@_0BL@LLKPOHJI@?$GAcopy?5constructor?5closure?8@ 100220e0     libvcruntime:undname.obj
 0002:000020fc       ??_C@_0BA@KBCDOMBN@?$GAudt?5returning?8@ 100220fc     libvcruntime:undname.obj
 0002:0000210c       ??_C@_03KLGMFNMG@?$GAEH@   1002210c     libvcruntime:undname.obj
 0002:00002110       ??_C@_05KHLCHHI@?$GARTTI@  10022110     libvcruntime:undname.obj
 0002:00002118       ??_C@_0BA@KKLDJDLB@?$GAlocal?5vftable?8@ 10022118     libvcruntime:undname.obj
 0002:00002128       ??_C@_0CE@IIHCMGGL@?$GAlocal?5vftable?5constructor?5clos@ 10022128     libvcruntime:undname.obj
 0002:0000214c       ??_C@_06FHBGPFGH@?5new?$FL?$FN@ 1002214c     libvcruntime:undname.obj
 0002:00002154       ??_C@_09LBNFPBCA@?5delete?$FL?$FN@ 10022154     libvcruntime:undname.obj
 0002:00002160       ??_C@_0P@HJKNJFNN@?$GAomni?5callsig?8@ 10022160     libvcruntime:undname.obj
 0002:00002170       ??_C@_0BL@CNOONJFP@?$GAplacement?5delete?5closure?8@ 10022170     libvcruntime:undname.obj
 0002:0000218c       ??_C@_0BN@CKNJLHMB@?$GAplacement?5delete?$FL?$FN?5closure?8@ 1002218c     libvcruntime:undname.obj
 0002:000021ac       ??_C@_0CG@CFDHKGGD@?$GAmanaged?5vector?5constructor?5ite@ 100221ac     libvcruntime:undname.obj
 0002:000021d4       ??_C@_0CF@IMGKMJNO@?$GAmanaged?5vector?5destructor?5iter@ 100221d4     libvcruntime:undname.obj
 0002:000021fc       ??_C@_0CG@HLDDJMAG@?$GAeh?5vector?5copy?5constructor?5ite@ 100221fc     libvcruntime:undname.obj
 0002:00002224       ??_C@_0CM@FCBBDIGB@?$GAeh?5vector?5vbase?5copy?5construct@ 10022224     libvcruntime:undname.obj
 0002:00002250       ??_C@_0BL@CLIPGLGB@?$GAdynamic?5initializer?5for?5?8@ 10022250     libvcruntime:undname.obj
 0002:0000226c       ??_C@_0CB@PDBIFEP@?$GAdynamic?5atexit?5destructor?5for?5@ 1002226c     libvcruntime:undname.obj
 0002:00002290       ??_C@_0CD@CGAJBKEJ@?$GAvector?5copy?5constructor?5iterat@ 10022290     libvcruntime:undname.obj
 0002:000022b4       ??_C@_0CJ@GJELGAMM@?$GAvector?5vbase?5copy?5constructor?5@ 100222b4     libvcruntime:undname.obj
 0002:000022e0       ??_C@_0CL@FGIJHLCE@?$GAmanaged?5vector?5copy?5constructo@ 100222e0     libvcruntime:undname.obj
 0002:0000230c       ??_C@_0BM@PMGGMLDN@?$GAlocal?5static?5thread?5guard?8@ 1002230c     libvcruntime:undname.obj
 0002:00002328       ??_C@_0N@BDNMDMOL@operator?5?$CC?$CC?5@ 10022328     libvcruntime:undname.obj
 0002:00002338       ??_C@_0BC@GGEBGALA@operator?5co_await@ 10022338     libvcruntime:undname.obj
 0002:0000234c       ??_C@_0M@GAAIMMOH@operator?$DM?$DN?$DO@ 1002234c     libvcruntime:undname.obj
 0002:00002358       ??_C@_0BC@DAFEJGAK@?5Type?5Descriptor?8@ 10022358     libvcruntime:undname.obj
 0002:0000236c       ??_C@_0BM@LDKODKLH@?5Base?5Class?5Descriptor?5at?5?$CI@ 1002236c     libvcruntime:undname.obj
 0002:00002388       ??_C@_0BD@LGICGFMM@?5Base?5Class?5Array?8@ 10022388     libvcruntime:undname.obj
 0002:0000239c       ??_C@_0BN@MECKDCOJ@?5Class?5Hierarchy?5Descriptor?8@ 1002239c     libvcruntime:undname.obj
 0002:000023bc       ??_C@_0BK@CFCOFLF@?5Complete?5Object?5Locator?8@ 100223bc     libvcruntime:undname.obj
 0002:000023d8       ??_C@_0BG@JNJLAMPM@?$GAanonymous?5namespace?8@ 100223d8     libvcruntime:undname.obj
 0002:000023fc       ??_C@_1DM@KHCHBNEB@?$AAa?$AAp?$AAi?$AA?9?$AAm?$AAs?$AA?9?$AAw?$AAi?$AAn?$AA?9?$AAc?$AAo?$AAr?$AAe@ 100223fc     libvcruntime:winapi_downlevel.obj
 0002:00002438       ??_C@_1DK@LPPGFMPP@?$AAa?$AAp?$AAi?$AA?9?$AAm?$AAs?$AA?9?$AAw?$AAi?$AAn?$AA?9?$AAc?$AAo?$AAr?$AAe@ 10022438     libvcruntime:winapi_downlevel.obj
 0002:00002474       ??_C@_1BC@GDMECMAK@?$AAk?$AAe?$AAr?$AAn?$AAe?$AAl?$AA3?$AA2@ 10022474     libvcruntime:winapi_downlevel.obj
 0002:00002488       ??_C@_1BA@PFFKHIOG@?$AAa?$AAp?$AAi?$AA?9?$AAm?$AAs?$AA?9@ 10022488     libvcruntime:winapi_downlevel.obj
 0002:000024a0       ??_C@_08KNHFBNJ@FlsAlloc@  100224a0     libvcruntime:winapi_downlevel.obj
 0002:000024b4       ??_C@_07PEJMOBNF@FlsFree@  100224b4     libvcruntime:winapi_downlevel.obj
 0002:000024c4       ??_C@_0M@GDNOONDI@FlsGetValue@ 100224c4     libvcruntime:winapi_downlevel.obj
 0002:000024d8       ??_C@_0M@JCPCPOEF@FlsSetValue@ 100224d8     libvcruntime:winapi_downlevel.obj
 0002:000024ec       ??_C@_0BM@HCFOFFN@InitializeCriticalSectionEx@ 100224ec     libvcruntime:winapi_downlevel.obj
 0002:00002670       ?format_validation_lookup_table_spectre@__crt_stdio_output@@3V?$spectre_mitigated_lookup_table@Ustate_transition_pair@__crt_stdio_output@@$0IA@@1@B 10022670     libucrt:output.obj
 0002:00002a70       ??_C@_1O@CEDCILHN@?$AA?$CI?$AAn?$AAu?$AAl?$AAl?$AA?$CJ@ 10022a70     libucrt:output.obj
 0002:00002a80       ??_C@_06OJHGLDPL@?$CInull?$CJ@ 10022a80     libucrt:output.obj
 0002:00002a88       ___acrt_exception_action_table 10022a88     libucrt:exception_filter.obj
 0002:00002b18       ___acrt_signal_action_table_count 10022b18     libucrt:exception_filter.obj
 0002:00002b1c       ___acrt_signal_action_first_fpe_index 10022b1c     libucrt:exception_filter.obj
 0002:00002b20       ___acrt_signal_action_fpe_count 10022b20     libucrt:exception_filter.obj
 0002:00002b24       ??_C@_1BI@BGOHAHKC@?$AAm?$AAs?$AAc?$AAo?$AAr?$AAe?$AAe?$AA?4?$AAd?$AAl?$AAl@ 10022b24     libucrt:exit.obj
 0002:00002b3c       ??_C@_0P@MIGLKIOC@CorExitProcess@ 10022b3c     libucrt:exit.obj
 0002:00002c20       ??_C@_1EA@JGEFHKEI@?$AAa?$AAp?$AAi?$AA?9?$AAm?$AAs?$AA?9?$AAw?$AAi?$AAn?$AA?9?$AAc?$AAo?$AAr?$AAe@ 10022c20     libucrt:winapi_thunks.obj
 0002:00002c60       ??_C@_1DI@IJCEHOCB@?$AAa?$AAp?$AAi?$AA?9?$AAm?$AAs?$AA?9?$AAw?$AAi?$AAn?$AA?9?$AAc?$AAo?$AAr?$AAe@ 10022c60     libucrt:winapi_thunks.obj
 0002:00002c98       ??_C@_1EI@MPIAOHOC@?$AAa?$AAp?$AAi?$AA?9?$AAm?$AAs?$AA?9?$AAw?$AAi?$AAn?$AA?9?$AAc?$AAo?$AAr?$AAe@ 10022c98     libucrt:winapi_thunks.obj
 0002:00002ce0       ??_C@_1FK@FPHCKFIE@?$AAa?$AAp?$AAi?$AA?9?$AAm?$AAs?$AA?9?$AAw?$AAi?$AAn?$AA?9?$AAc?$AAo?$AAr?$AAe@ 10022ce0     libucrt:winapi_thunks.obj
 0002:00002d40       ??_C@_1EM@DILCGIIO@?$AAa?$AAp?$AAi?$AA?9?$AAm?$AAs?$AA?9?$AAw?$AAi?$AAn?$AA?9?$AAc?$AAo?$AAr?$AAe@ 10022d40     libucrt:winapi_thunks.obj
 0002:00002d8c       ??_C@_1DM@LNCGDDPN@?$AAa?$AAp?$AAi?$AA?9?$AAm?$AAs?$AA?9?$AAw?$AAi?$AAn?$AA?9?$AAc?$AAo?$AAr?$AAe@ 10022d8c     libucrt:winapi_thunks.obj
 0002:00002dc8       ??_C@_1DO@FPAPJEMD@?$AAa?$AAp?$AAi?$AA?9?$AAm?$AAs?$AA?9?$AAw?$AAi?$AAn?$AA?9?$AAc?$AAo?$AAr?$AAe@ 10022dc8     libucrt:winapi_thunks.obj
 0002:00002e08       ??_C@_1DK@NDHNAHIO@?$AAa?$AAp?$AAi?$AA?9?$AAm?$AAs?$AA?9?$AAw?$AAi?$AAn?$AA?9?$AAc?$AAo?$AAr?$AAe@ 10022e08     libucrt:winapi_thunks.obj
 0002:00002e44       ??_C@_1DM@KGHDGBCM@?$AAa?$AAp?$AAi?$AA?9?$AAm?$AAs?$AA?9?$AAw?$AAi?$AAn?$AA?9?$AAc?$AAo?$AAr?$AAe@ 10022e44     libucrt:winapi_thunks.obj
 0002:00002e80       ??_C@_1EO@IJIOEFOH@?$AAa?$AAp?$AAi?$AA?9?$AAm?$AAs?$AA?9?$AAw?$AAi?$AAn?$AA?9?$AAr?$AAt?$AAc?$AAo@ 10022e80     libucrt:winapi_thunks.obj
 0002:00002ed0       ??_C@_1FG@HHGEKANL@?$AAa?$AAp?$AAi?$AA?9?$AAm?$AAs?$AA?9?$AAw?$AAi?$AAn?$AA?9?$AAs?$AAe?$AAc?$AAu@ 10022ed0     libucrt:winapi_thunks.obj
 0002:00002f28       ??_C@_1EG@DBIOJECG@?$AAe?$AAx?$AAt?$AA?9?$AAm?$AAs?$AA?9?$AAw?$AAi?$AAn?$AA?9?$AAn?$AAt?$AAu?$AAs@ 10022f28     libucrt:winapi_thunks.obj
 0002:00002f70       ??_C@_1EO@FIHMJCLF@?$AAe?$AAx?$AAt?$AA?9?$AAm?$AAs?$AA?9?$AAw?$AAi?$AAn?$AA?9?$AAn?$AAt?$AAu?$AAs@ 10022f70     libucrt:winapi_thunks.obj
 0002:00002fc0       ??_C@_1BC@DNHGCMLG@?$AAa?$AAd?$AAv?$AAa?$AAp?$AAi?$AA3?$AA2@ 10022fc0     libucrt:winapi_thunks.obj
 0002:00002fd4       ??_C@_1M@OAIMIKLP@?$AAn?$AAt?$AAd?$AAl?$AAl@ 10022fd4     libucrt:winapi_thunks.obj
 0002:00002fe0       ??_C@_1EG@DPGNFKGC@?$AAa?$AAp?$AAi?$AA?9?$AAm?$AAs?$AA?9?$AAw?$AAi?$AAn?$AA?9?$AAa?$AAp?$AAp?$AAm@ 10022fe0     libucrt:winapi_thunks.obj
 0002:00003028       ??_C@_1O@BCCLBEOE@?$AAu?$AAs?$AAe?$AAr?$AA3?$AA2@ 10023028     libucrt:winapi_thunks.obj
 0002:00003038       ??_C@_1BA@IAIFMGEF@?$AAe?$AAx?$AAt?$AA?9?$AAm?$AAs?$AA?9@ 10023038     libucrt:winapi_thunks.obj
 0002:0000304c       ??_C@_0BA@FHFNEAED@AreFileApisANSI@ 1002304c     libucrt:winapi_thunks.obj
 0002:0000308c       ??_C@_0O@KKBNKAPF@LCMapStringEx@ 1002308c     libucrt:winapi_thunks.obj
 0002:000030a4       ??_C@_0BB@HBDEELFH@LocaleNameToLCID@ 100230a4     libucrt:winapi_thunks.obj
 0002:000030bc       ??_C@_0CF@OJOFEIGO@AppPolicyGetProcessTerminationM@ 100230bc     libucrt:winapi_thunks.obj
 0002:000030ec       ??_C@_0BI@BKLFFAPO@SetThreadStackGuarantee@ 100230ec     libucrt:winapi_thunks.obj
 0002:00003148       ??_C@_03OEIAHPBN@INF@      10023148     libucrt:cvt.obj
 0002:0000314c       ??_C@_03OJHLLCGB@inf@      1002314c     libucrt:cvt.obj
 0002:00003150       ??_C@_03LKNCIKJB@NAN@      10023150     libucrt:cvt.obj
 0002:00003154       ??_C@_03LHCJEHON@nan@      10023154     libucrt:cvt.obj
 0002:00003158       ??_C@_09OFJJIMPC@NAN?$CISNAN?$CJ@ 10023158     libucrt:cvt.obj
 0002:00003164       ??_C@_09IPFBKMDL@nan?$CIsnan?$CJ@ 10023164     libucrt:cvt.obj
 0002:00003170       ??_C@_08IKHNHAJ@NAN?$CIIND?$CJ@ 10023170     libucrt:cvt.obj
 0002:0000317c       ??_C@_08OFCDMILK@nan?$CIind?$CJ@ 1002317c     libucrt:cvt.obj
 0002:00003188       ??_C@_05KLBDPFGC@e?$CL000@ 10023188     libucrt:cvt.obj
 0002:00003190       ___lc_time_c               10023190     libucrt:nlsdata.obj
 0002:000032f4       ??_C@_03KOEHGMDN@Sun@      100232f4     libucrt:nlsdata.obj
 0002:000032f8       ??_C@_03PDAGKDH@Mon@       100232f8     libucrt:nlsdata.obj
 0002:000032fc       ??_C@_03NAGEINEP@Tue@      100232fc     libucrt:nlsdata.obj
 0002:00003300       ??_C@_03MHOMLAJA@Wed@      10023300     libucrt:nlsdata.obj
 0002:00003304       ??_C@_03IOFIKPDN@Thu@      10023304     libucrt:nlsdata.obj
 0002:00003308       ??_C@_03IDIOELNC@Fri@      10023308     libucrt:nlsdata.obj
 0002:0000330c       ??_C@_03FEFJNEK@Sat@       1002330c     libucrt:nlsdata.obj
 0002:00003310       ??_C@_06OOPIFAJ@Sunday@    10023310     libucrt:nlsdata.obj
 0002:00003318       ??_C@_06JLEDEDGH@Monday@   10023318     libucrt:nlsdata.obj
 0002:00003320       ??_C@_07BAAGCFCM@Tuesday@  10023320     libucrt:nlsdata.obj
 0002:00003328       ??_C@_09DLIGFAKA@Wednesday@ 10023328     libucrt:nlsdata.obj
 0002:00003334       ??_C@_08HACCIKIA@Thursday@ 10023334     libucrt:nlsdata.obj
 0002:00003340       ??_C@_06JECMNKMI@Friday@   10023340     libucrt:nlsdata.obj
 0002:00003348       ??_C@_08INBOOONO@Saturday@ 10023348     libucrt:nlsdata.obj
 0002:00003354       ??_C@_03JIHJHPIE@Jan@      10023354     libucrt:nlsdata.obj
 0002:00003358       ??_C@_03HJBDCHOM@Feb@      10023358     libucrt:nlsdata.obj
 0002:0000335c       ??_C@_03ODNJBKGA@Mar@      1002335c     libucrt:nlsdata.obj
 0002:00003360       ??_C@_03LEOLGMJP@Apr@      10023360     libucrt:nlsdata.obj
 0002:00003364       ??_C@_03CNMDKL@May@        10023364     libucrt:nlsdata.obj
 0002:00003368       ??_C@_03IDFGHECI@Jun@      10023368     libucrt:nlsdata.obj
 0002:0000336c       ??_C@_03LBGABGKK@Jul@      1002336c     libucrt:nlsdata.obj
 0002:00003370       ??_C@_03IFJFEIGA@Aug@      10023370     libucrt:nlsdata.obj
 0002:00003374       ??_C@_03GGCAPAJC@Sep@      10023374     libucrt:nlsdata.obj
 0002:00003378       ??_C@_03BMAOKBAD@Oct@      10023378     libucrt:nlsdata.obj
 0002:0000337c       ??_C@_03JPJOFNIA@Nov@      1002337c     libucrt:nlsdata.obj
 0002:00003380       ??_C@_03MKABNOCG@Dec@      10023380     libucrt:nlsdata.obj
 0002:00003384       ??_C@_07CGJPFGJA@January@  10023384     libucrt:nlsdata.obj
 0002:0000338c       ??_C@_08GNJGEPFN@February@ 1002338c     libucrt:nlsdata.obj
 0002:00003398       ??_C@_05HPCKOFNC@March@    10023398     libucrt:nlsdata.obj
 0002:000033a0       ??_C@_05DMJDNLEJ@April@    100233a0     libucrt:nlsdata.obj
 0002:000033a8       ??_C@_04CNLMGBGM@June@     100233a8     libucrt:nlsdata.obj
 0002:000033b0       ??_C@_04MIEPOIFP@July@     100233b0     libucrt:nlsdata.obj
 0002:000033b8       ??_C@_06LBBHFDDG@August@   100233b8     libucrt:nlsdata.obj
 0002:000033c0       ??_C@_09BHHEALKD@September@ 100233c0     libucrt:nlsdata.obj
 0002:000033cc       ??_C@_07JJNFCEND@October@  100233cc     libucrt:nlsdata.obj
 0002:000033d4       ??_C@_08HCHEGEOA@November@ 100233d4     libucrt:nlsdata.obj
 0002:000033e0       ??_C@_08EDHMEBNP@December@ 100233e0     libucrt:nlsdata.obj
 0002:000033ec       ??_C@_02DEDBPAFC@AM@       100233ec     libucrt:nlsdata.obj
 0002:000033f0       ??_C@_02CJNFDJBF@PM@       100233f0     libucrt:nlsdata.obj
 0002:000033f4       ??_C@_08BPBNCDIB@MM?1dd?1yy@ 100233f4     libucrt:nlsdata.obj
 0002:00003400       ??_C@_0BE@CKGJFCPC@dddd?0?5MMMM?5dd?0?5yyyy@ 10023400     libucrt:nlsdata.obj
 0002:00003414       ??_C@_08JCCMCCIL@HH?3mm?3ss@ 10023414     libucrt:nlsdata.obj
 0002:00003420       ??_C@_17MBGCMIPB@?$AAS?$AAu?$AAn@ 10023420     libucrt:nlsdata.obj
 0002:00003428       ??_C@_17KBOMKBF@?$AAM?$AAo?$AAn@ 10023428     libucrt:nlsdata.obj
 0002:00003430       ??_C@_17BMKGEGOJ@?$AAT?$AAu?$AAe@ 10023430     libucrt:nlsdata.obj
 0002:00003438       ??_C@_17CJEDCEPE@?$AAW?$AAe?$AAd@ 10023438     libucrt:nlsdata.obj
 0002:00003440       ??_C@_17PDPHAADD@?$AAT?$AAh?$AAu@ 10023440     libucrt:nlsdata.obj
 0002:00003448       ??_C@_17HFOLPPLP@?$AAF?$AAr?$AAi@ 10023448     libucrt:nlsdata.obj
 0002:00003450       ??_C@_17GGIBDPIH@?$AAS?$AAa?$AAt@ 10023450     libucrt:nlsdata.obj
 0002:00003458       ??_C@_1O@IHNHDHPB@?$AAS?$AAu?$AAn?$AAd?$AAa?$AAy@ 10023458     libucrt:nlsdata.obj
 0002:00003468       ??_C@_1O@MMNBFLIA@?$AAM?$AAo?$AAn?$AAd?$AAa?$AAy@ 10023468     libucrt:nlsdata.obj
 0002:00003478       ??_C@_1BA@ENFBFFEK@?$AAT?$AAu?$AAe?$AAs?$AAd?$AAa?$AAy@ 10023478     libucrt:nlsdata.obj
 0002:00003488       ??_C@_1BE@EBOGMDOH@?$AAW?$AAe?$AAd?$AAn?$AAe?$AAs?$AAd?$AAa?$AAy@ 10023488     libucrt:nlsdata.obj
 0002:0000349c       ??_C@_1BC@HHMNLIHE@?$AAT?$AAh?$AAu?$AAr?$AAs?$AAd?$AAa?$AAy@ 1002349c     libucrt:nlsdata.obj
 0002:000034b0       ??_C@_1O@PDICJHAG@?$AAF?$AAr?$AAi?$AAd?$AAa?$AAy@ 100234b0     libucrt:nlsdata.obj
 0002:000034c0       ??_C@_1BC@ENMNNPAJ@?$AAS?$AAa?$AAt?$AAu?$AAr?$AAd?$AAa?$AAy@ 100234c0     libucrt:nlsdata.obj
 0002:000034d4       ??_C@_17DKNBKCHM@?$AAJ?$AAa?$AAn@ 100234d4     libucrt:nlsdata.obj
 0002:000034dc       ??_C@_17LMDJEKJN@?$AAF?$AAe?$AAb@ 100234dc     libucrt:nlsdata.obj
 0002:000034e4       ??_C@_17CKNLEDEC@?$AAM?$AAa?$AAr@ 100234e4     libucrt:nlsdata.obj
 0002:000034ec       ??_C@_17LFPOIHDD@?$AAA?$AAp?$AAr@ 100234ec     libucrt:nlsdata.obj
 0002:000034f4       ??_C@_17PNNKMEED@?$AAM?$AAa?$AAy@ 100234f4     libucrt:nlsdata.obj
 0002:000034fc       ??_C@_17KCJGOCPB@?$AAJ?$AAu?$AAn@ 100234fc     libucrt:nlsdata.obj
 0002:00003504       ??_C@_17IJPCKHK@?$AAJ?$AAu?$AAl@ 10023504     libucrt:nlsdata.obj
 0002:0000350c       ??_C@_17ICPELBCN@?$AAA?$AAu?$AAg@ 1002350c     libucrt:nlsdata.obj
 0002:00003514       ??_C@_17HCHCOKMG@?$AAS?$AAe?$AAp@ 10023514     libucrt:nlsdata.obj
 0002:0000351c       ??_C@_17FNLKOI@?$AAO?$AAc?$AAt@ 1002351c     libucrt:nlsdata.obj
 0002:00003524       ??_C@_17BBDMLCIG@?$AAN?$AAo?$AAv@ 10023524     libucrt:nlsdata.obj
 0002:0000352c       ??_C@_17EGKACKIF@?$AAD?$AAe?$AAc@ 1002352c     libucrt:nlsdata.obj
 0002:00003534       ??_C@_1BA@EFMEIEBA@?$AAJ?$AAa?$AAn?$AAu?$AAa?$AAr?$AAy@ 10023534     libucrt:nlsdata.obj
 0002:00003544       ??_C@_1BC@JGDDFFAM@?$AAF?$AAe?$AAb?$AAr?$AAu?$AAa?$AAr?$AAy@ 10023544     libucrt:nlsdata.obj
 0002:00003558       ??_C@_1M@IKEENEDF@?$AAM?$AAa?$AAr?$AAc?$AAh@ 10023558     libucrt:nlsdata.obj
 0002:00003564       ??_C@_1M@GJNLMHFD@?$AAA?$AAp?$AAr?$AAi?$AAl@ 10023564     libucrt:nlsdata.obj
 0002:00003570       ??_C@_19EPFLPGAP@?$AAJ?$AAu?$AAn?$AAe@ 10023570     libucrt:nlsdata.obj
 0002:0000357c       ??_C@_19BIFMLPCD@?$AAJ?$AAu?$AAl?$AAy@ 1002357c     libucrt:nlsdata.obj
 0002:00003588       ??_C@_1O@PAHLKOAC@?$AAA?$AAu?$AAg?$AAu?$AAs?$AAt@ 10023588     libucrt:nlsdata.obj
 0002:00003598       ??_C@_1BE@DKAAMBJL@?$AAS?$AAe?$AAp?$AAt?$AAe?$AAm?$AAb?$AAe?$AAr@ 10023598     libucrt:nlsdata.obj
 0002:000035ac       ??_C@_1BA@EPANDLNG@?$AAO?$AAc?$AAt?$AAo?$AAb?$AAe?$AAr@ 100235ac     libucrt:nlsdata.obj
 0002:000035bc       ??_C@_1BC@BGLIFPF@?$AAN?$AAo?$AAv?$AAe?$AAm?$AAb?$AAe?$AAr@ 100235bc     libucrt:nlsdata.obj
 0002:000035d0       ??_C@_1BC@FEMKIFH@?$AAD?$AAe?$AAc?$AAe?$AAm?$AAb?$AAe?$AAr@ 100235d0     libucrt:nlsdata.obj
 0002:000035e4       ??_C@_15ODEHAHHF@?$AAA?$AAM@ 100235e4     libucrt:nlsdata.obj
 0002:000035ec       ??_C@_15CLMNNGEL@?$AAP?$AAM@ 100235ec     libucrt:nlsdata.obj
 0002:000035f4       ??_C@_1BC@IEBCMHCM@?$AAM?$AAM?$AA?1?$AAd?$AAd?$AA?1?$AAy?$AAy@ 100235f4     libucrt:nlsdata.obj
 0002:00003608       ??_C@_1CI@KNAKOEBC@?$AAd?$AAd?$AAd?$AAd?$AA?0?$AA?5?$AAM?$AAM?$AAM?$AAM?$AA?5?$AAd?$AAd?$AA?0?$AA?5@ 10023608     libucrt:nlsdata.obj
 0002:00003630       ??_C@_1BC@GDGBMEMK@?$AAH?$AAH?$AA?3?$AAm?$AAm?$AA?3?$AAs?$AAs@ 10023630     libucrt:nlsdata.obj
 0002:00003644       ??_C@_1M@BMHNFIME@?$AAe?$AAn?$AA?9?$AAU?$AAS@ 10023644     libucrt:nlsdata.obj
 0002:00003660       ??_C@_1M@HPNHIDJI@?$AAj?$AAa?$AA?9?$AAJ?$AAP@ 10023660     libucrt:mbctype.obj
 0002:0000366c       ??_C@_1M@BIBDDEMK@?$AAz?$AAh?$AA?9?$AAC?$AAN@ 1002366c     libucrt:mbctype.obj
 0002:00003678       ??_C@_1M@JLOOOEGK@?$AAk?$AAo?$AA?9?$AAK?$AAR@ 10023678     libucrt:mbctype.obj
 0002:00003684       ??_C@_1M@CLNBBOPM@?$AAz?$AAh?$AA?9?$AAT?$AAW@ 10023684     libucrt:mbctype.obj
 0002:00003690       ___newctype                10023690     libucrt:ctype.obj
 0002:00003990       ___newclmap                10023990     libucrt:ctype.obj
 0002:00003b10       ___newcumap                10023b10     libucrt:ctype.obj
 0002:00003c90       __wctype                   10023c90     libucrt:ctype.obj
 0002:000045b8       ??_C@_15EMKDOKLE@?$AAa?$AAr@ 100245b8     libucrt:lcidtoname_downlevel.obj
 0002:000045c0       ??_C@_15KNPADPLH@?$AAb?$AAg@ 100245c0     libucrt:lcidtoname_downlevel.obj
 0002:000045c8       ??_C@_15EDMHLDMO@?$AAc?$AAa@ 100245c8     libucrt:lcidtoname_downlevel.obj
 0002:000045d0       ??_C@_1O@BPEAJADD@?$AAz?$AAh?$AA?9?$AAC?$AAH?$AAS@ 100245d0     libucrt:lcidtoname_downlevel.obj
 0002:000045e0       ??_C@_15LJNHCMNK@?$AAc?$AAs@ 100245e0     libucrt:lcidtoname_downlevel.obj
 0002:000045e8       ??_C@_15FOMCIDHG@?$AAd?$AAa@ 100245e8     libucrt:lcidtoname_downlevel.obj
 0002:000045f0       ??_C@_15NBKABECB@?$AAd?$AAe@ 100245f0     libucrt:lcidtoname_downlevel.obj
 0002:000045f8       ??_C@_15GHPEIIAO@?$AAe?$AAl@ 100245f8     libucrt:lcidtoname_downlevel.obj
 0002:00004600       ??_C@_15MNPNEAIF@?$AAe?$AAn@ 10024600     libucrt:lcidtoname_downlevel.obj
 0002:00004608       ??_C@_15GPIOMPMH@?$AAe?$AAs@ 10024608     libucrt:lcidtoname_downlevel.obj
 0002:00004610       ??_C@_15NGLOAKJC@?$AAf?$AAi@ 10024610     libucrt:lcidtoname_downlevel.obj
 0002:00004618       ??_C@_15FBKGNKAM@?$AAf?$AAr@ 10024618     libucrt:lcidtoname_downlevel.obj
 0002:00004620       ??_C@_15KGGCNEFK@?$AAh?$AAe@ 10024620     libucrt:lcidtoname_downlevel.obj
 0002:00004628       ??_C@_15PGHLIDMF@?$AAh?$AAu@ 10024628     libucrt:lcidtoname_downlevel.obj
 0002:00004630       ??_C@_15BIEMAPLM@?$AAi?$AAs@ 10024630     libucrt:lcidtoname_downlevel.obj
 0002:00004638       ??_C@_15IFJLDHAF@?$AAi?$AAt@ 10024638     libucrt:lcidtoname_downlevel.obj
 0002:00004640       ??_C@_15GEMIOCAG@?$AAj?$AAa@ 10024640     libucrt:lcidtoname_downlevel.obj
 0002:00004648       ??_C@_15EPELEGJA@?$AAk?$AAo@ 10024648     libucrt:lcidtoname_downlevel.obj
 0002:00004650       ??_C@_15NDDHIMN@?$AAn?$AAl@ 10024650     libucrt:lcidtoname_downlevel.obj
 0002:00004658       ??_C@_15BPIGNHCD@?$AAn?$AAo@ 10024658     libucrt:lcidtoname_downlevel.obj
 0002:00004660       ??_C@_15DEOPBLCG@?$AAp?$AAl@ 10024660     libucrt:lcidtoname_downlevel.obj
 0002:00004668       ??_C@_15KBECGEFG@?$AAp?$AAt@ 10024668     libucrt:lcidtoname_downlevel.obj
 0002:00004670       ??_C@_15GLJCBFMD@?$AAr?$AAo@ 10024670     libucrt:lcidtoname_downlevel.obj
 0002:00004678       ??_C@_15FEDGKCDI@?$AAr?$AAu@ 10024678     libucrt:lcidtoname_downlevel.obj
 0002:00004680       ??_C@_15GLKMLLHM@?$AAh?$AAr@ 10024680     libucrt:lcidtoname_downlevel.obj
 0002:00004688       ??_C@_15CPKMFBDB@?$AAs?$AAk@ 10024688     libucrt:lcidtoname_downlevel.obj
 0002:00004690       ??_C@_15BAAIOGMK@?$AAs?$AAq@ 10024690     libucrt:lcidtoname_downlevel.obj
 0002:00004698       ??_C@_15INNPNOHD@?$AAs?$AAv@ 10024698     libucrt:lcidtoname_downlevel.obj
 0002:000046a0       ??_C@_15CABMMOGH@?$AAt?$AAh@ 100246a0     libucrt:lcidtoname_downlevel.obj
 0002:000046a8       ??_C@_15BPLIHJJM@?$AAt?$AAr@ 100246a8     libucrt:lcidtoname_downlevel.obj
 0002:000046b0       ??_C@_15NEOEKKDJ@?$AAu?$AAr@ 100246b0     libucrt:lcidtoname_downlevel.obj
 0002:000046b8       ??_C@_15NFICGAJK@?$AAi?$AAd@ 100246b8     libucrt:lcidtoname_downlevel.obj
 0002:000046c0       ??_C@_15PJPFLCCM@?$AAu?$AAk@ 100246c0     libucrt:lcidtoname_downlevel.obj
 0002:000046c8       ??_C@_15HPJPHDM@?$AAb?$AAe@ 100246c8     libucrt:lcidtoname_downlevel.obj
 0002:000046d0       ??_C@_15LCHLGJII@?$AAs?$AAl@ 100246d0     libucrt:lcidtoname_downlevel.obj
 0002:000046d8       ??_C@_15PCFJPHHO@?$AAe?$AAt@ 100246d8     libucrt:lcidtoname_downlevel.obj
 0002:000046e0       ??_C@_15HPFPGODN@?$AAl?$AAv@ 100246e0     libucrt:lcidtoname_downlevel.obj
 0002:000046e8       ??_C@_15NFFGKGLG@?$AAl?$AAt@ 100246e8     libucrt:lcidtoname_downlevel.obj
 0002:000046f0       ??_C@_15BDAKCCHN@?$AAf?$AAa@ 100246f0     libucrt:lcidtoname_downlevel.obj
 0002:000046f8       ??_C@_15NFGIAIAJ@?$AAv?$AAi@ 100246f8     libucrt:lcidtoname_downlevel.obj
 0002:00004700       ??_C@_15LMKNDMHN@?$AAh?$AAy@ 10024700     libucrt:lcidtoname_downlevel.obj
 0002:00004708       ??_C@_15IJBHMCFL@?$AAa?$AAz@ 10024708     libucrt:lcidtoname_downlevel.obj
 0002:00004710       ??_C@_15EKOFJABL@?$AAe?$AAu@ 10024710     libucrt:lcidtoname_downlevel.obj
 0002:00004718       ??_C@_15BGHADCNK@?$AAm?$AAk@ 10024718     libucrt:lcidtoname_downlevel.obj
 0002:00004720       ??_C@_15JDNICKHM@?$AAa?$AAf@ 10024720     libucrt:lcidtoname_downlevel.obj
 0002:00004728       ??_C@_15KPJEDBKD@?$AAk?$AAa@ 10024728     libucrt:lcidtoname_downlevel.obj
 0002:00004730       ??_C@_15PDNFFFEO@?$AAf?$AAo@ 10024730     libucrt:lcidtoname_downlevel.obj
 0002:00004738       ??_C@_15OMLEGLOC@?$AAh?$AAi@ 10024738     libucrt:lcidtoname_downlevel.obj
 0002:00004740       ??_C@_15IDNNENKK@?$AAm?$AAs@ 10024740     libucrt:lcidtoname_downlevel.obj
 0002:00004748       ??_C@_15MACJNBMH@?$AAk?$AAk@ 10024748     libucrt:lcidtoname_downlevel.obj
 0002:00004750       ??_C@_15DKDJEOND@?$AAk?$AAy@ 10024750     libucrt:lcidtoname_downlevel.obj
 0002:00004758       ??_C@_15DFGDLJBG@?$AAs?$AAw@ 10024758     libucrt:lcidtoname_downlevel.obj
 0002:00004760       ??_C@_15BBFAICNG@?$AAu?$AAz@ 10024760     libucrt:lcidtoname_downlevel.obj
 0002:00004768       ??_C@_15DKNDCGEA@?$AAt?$AAt@ 10024768     libucrt:lcidtoname_downlevel.obj
 0002:00004770       ??_C@_15MGIFMDPL@?$AAp?$AAa@ 10024770     libucrt:lcidtoname_downlevel.obj
 0002:00004778       ??_C@_15HCNDBBA@?$AAg?$AAu@ 10024778     libucrt:lcidtoname_downlevel.obj
 0002:00004780       ??_C@_15FNBEIBON@?$AAt?$AAa@ 10024780     libucrt:lcidtoname_downlevel.obj
 0002:00004788       ??_C@_15NCHGBGLK@?$AAt?$AAe@ 10024788     libucrt:lcidtoname_downlevel.obj
 0002:00004790       ??_C@_15PHPHCBPF@?$AAk?$AAn@ 10024790     libucrt:lcidtoname_downlevel.obj
 0002:00004798       ??_C@_15DLGBCKMP@?$AAm?$AAr@ 10024798     libucrt:lcidtoname_downlevel.obj
 0002:000047a0       ??_C@_15EABBLBFF@?$AAs?$AAa@ 100247a0     libucrt:lcidtoname_downlevel.obj
 0002:000047a8       ??_C@_15CBKOMCOI@?$AAm?$AAn@ 100247a8     libucrt:lcidtoname_downlevel.obj
 0002:000047b0       ??_C@_15CKDMCJAF@?$AAg?$AAl@ 100247b0     libucrt:lcidtoname_downlevel.obj
 0002:000047b8       ??_C@_17CNJFBPG@?$AAk?$AAo?$AAk@ 100247b8     libucrt:lcidtoname_downlevel.obj
 0002:000047c0       ??_C@_17FFBJICPL@?$AAs?$AAy?$AAr@ 100247c0     libucrt:lcidtoname_downlevel.obj
 0002:000047c8       ??_C@_17KPNDCPAF@?$AAd?$AAi?$AAv@ 100247c8     libucrt:lcidtoname_downlevel.obj
 0002:000047d0       ??_C@_1M@OKAHONE@?$AAa?$AAr?$AA?9?$AAS?$AAA@ 100247d0     libucrt:lcidtoname_downlevel.obj
 0002:000047dc       ??_C@_1M@FFFIGIGK@?$AAb?$AAg?$AA?9?$AAB?$AAG@ 100247dc     libucrt:lcidtoname_downlevel.obj
 0002:000047e8       ??_C@_1M@BJNKEDC@?$AAc?$AAa?$AA?9?$AAE?$AAS@ 100247e8     libucrt:lcidtoname_downlevel.obj
 0002:000047f4       ??_C@_1M@IJJHFJHA@?$AAc?$AAs?$AA?9?$AAC?$AAZ@ 100247f4     libucrt:lcidtoname_downlevel.obj
 0002:00004800       ??_C@_1M@CLPEOBGI@?$AAd?$AAa?$AA?9?$AAD?$AAK@ 10024800     libucrt:lcidtoname_downlevel.obj
 0002:0000480c       ??_C@_1M@MCMADGCB@?$AAd?$AAe?$AA?9?$AAD?$AAE@ 1002480c     libucrt:lcidtoname_downlevel.obj
 0002:00004818       ??_C@_1M@OOCKEMAM@?$AAe?$AAl?$AA?9?$AAG?$AAR@ 10024818     libucrt:lcidtoname_downlevel.obj
 0002:00004824       ??_C@_1M@DDNJFGID@?$AAf?$AAi?$AA?9?$AAF?$AAI@ 10024824     libucrt:lcidtoname_downlevel.obj
 0002:00004830       ??_C@_1M@GLIPPMAC@?$AAf?$AAr?$AA?9?$AAF?$AAR@ 10024830     libucrt:lcidtoname_downlevel.obj
 0002:0000483c       ??_C@_1M@GFMCHPE@?$AAh?$AAe?$AA?9?$AAI?$AAL@ 1002483c     libucrt:lcidtoname_downlevel.obj
 0002:00004848       ??_C@_1M@MHLPGNKM@?$AAh?$AAu?$AA?9?$AAH?$AAU@ 10024848     libucrt:lcidtoname_downlevel.obj
 0002:00004854       ??_C@_1M@LPDDNNPN@?$AAi?$AAs?$AA?9?$AAI?$AAS@ 10024854     libucrt:lcidtoname_downlevel.obj
 0002:00004860       ??_C@_1M@MADIPODN@?$AAi?$AAt?$AA?9?$AAI?$AAT@ 10024860     libucrt:lcidtoname_downlevel.obj
 0002:0000486c       ??_C@_1M@IHBJJGG@?$AAn?$AAl?$AA?9?$AAN?$AAL@ 1002486c     libucrt:lcidtoname_downlevel.obj
 0002:00004878       ??_C@_1M@EANAGDL@?$AAn?$AAb?$AA?9?$AAN?$AAO@ 10024878     libucrt:lcidtoname_downlevel.obj
 0002:00004884       ??_C@_1M@NEIEMEGP@?$AAp?$AAl?$AA?9?$AAP?$AAL@ 10024884     libucrt:lcidtoname_downlevel.obj
 0002:00004890       ??_C@_1M@BOCFIGEP@?$AAp?$AAt?$AA?9?$AAB?$AAR@ 10024890     libucrt:lcidtoname_downlevel.obj
 0002:0000489c       ??_C@_1M@IMPFOPBG@?$AAr?$AAo?$AA?9?$AAR?$AAO@ 1002489c     libucrt:lcidtoname_downlevel.obj
 0002:000048a8       ??_C@_1M@IDNNEJMM@?$AAr?$AAu?$AA?9?$AAR?$AAU@ 100248a8     libucrt:lcidtoname_downlevel.obj
 0002:000048b4       ??_C@_1M@LILEEOGM@?$AAh?$AAr?$AA?9?$AAH?$AAR@ 100248b4     libucrt:lcidtoname_downlevel.obj
 0002:000048c0       ??_C@_1M@FKIFEHPB@?$AAs?$AAk?$AA?9?$AAS?$AAK@ 100248c0     libucrt:lcidtoname_downlevel.obj
 0002:000048cc       ??_C@_1M@LJMAMNPJ@?$AAs?$AAq?$AA?9?$AAA?$AAL@ 100248cc     libucrt:lcidtoname_downlevel.obj
 0002:000048d8       ??_C@_1M@GIAKDKJK@?$AAs?$AAv?$AA?9?$AAS?$AAE@ 100248d8     libucrt:lcidtoname_downlevel.obj
 0002:000048e4       ??_C@_1M@MKJKIKCL@?$AAt?$AAh?$AA?9?$AAT?$AAH@ 100248e4     libucrt:lcidtoname_downlevel.obj
 0002:000048f0       ??_C@_1M@MFLCCMPB@?$AAt?$AAr?$AA?9?$AAT?$AAR@ 100248f0     libucrt:lcidtoname_downlevel.obj
 0002:000048fc       ??_C@_1M@OIJHDKJN@?$AAu?$AAr?$AA?9?$AAP?$AAK@ 100248fc     libucrt:lcidtoname_downlevel.obj
 0002:00004908       ??_C@_1M@LHIPCIEK@?$AAi?$AAd?$AA?9?$AAI?$AAD@ 10024908     libucrt:lcidtoname_downlevel.obj
 0002:00004914       ??_C@_1M@MFMOBGI@?$AAu?$AAk?$AA?9?$AAU?$AAA@ 10024914     libucrt:lcidtoname_downlevel.obj
 0002:00004920       ??_C@_1M@OBGLJIPL@?$AAb?$AAe?$AA?9?$AAB?$AAY@ 10024920     libucrt:lcidtoname_downlevel.obj
 0002:0000492c       ??_C@_1M@BCFAJEAD@?$AAs?$AAl?$AA?9?$AAS?$AAI@ 1002492c     libucrt:lcidtoname_downlevel.obj
 0002:00004938       ??_C@_1M@FKFFEDDN@?$AAe?$AAt?$AA?9?$AAE?$AAE@ 10024938     libucrt:lcidtoname_downlevel.obj
 0002:00004944       ??_C@_1M@KGKKAACI@?$AAl?$AAv?$AA?9?$AAL?$AAV@ 10024944     libucrt:lcidtoname_downlevel.obj
 0002:00004950       ??_C@_1M@IFGBIJO@?$AAl?$AAt?$AA?9?$AAL?$AAT@ 10024950     libucrt:lcidtoname_downlevel.obj
 0002:0000495c       ??_C@_1M@FGEAHEDM@?$AAf?$AAa?$AA?9?$AAI?$AAR@ 1002495c     libucrt:lcidtoname_downlevel.obj
 0002:00004968       ??_C@_1M@KBMAIBFN@?$AAv?$AAi?$AA?9?$AAV?$AAN@ 10024968     libucrt:lcidtoname_downlevel.obj
 0002:00004974       ??_C@_1M@GPCBKDJK@?$AAh?$AAy?$AA?9?$AAA?$AAM@ 10024974     libucrt:lcidtoname_downlevel.obj
 0002:00004980       ??_C@_1BG@BECMDDJB@?$AAa?$AAz?$AA?9?$AAA?$AAZ?$AA?9?$AAL?$AAa?$AAt?$AAn@ 10024980     libucrt:lcidtoname_downlevel.obj
 0002:00004998       ??_C@_1M@MAOFCAEA@?$AAe?$AAu?$AA?9?$AAE?$AAS@ 10024998     libucrt:lcidtoname_downlevel.obj
 0002:000049a4       ??_C@_1M@IGHABKPI@?$AAm?$AAk?$AA?9?$AAM?$AAK@ 100249a4     libucrt:lcidtoname_downlevel.obj
 0002:000049b0       ??_C@_1M@IAIGNEJG@?$AAt?$AAn?$AA?9?$AAZ?$AAA@ 100249b0     libucrt:lcidtoname_downlevel.obj
 0002:000049bc       ??_C@_1M@IIJCOJFA@?$AAx?$AAh?$AA?9?$AAZ?$AAA@ 100249bc     libucrt:lcidtoname_downlevel.obj
 0002:000049c8       ??_C@_1M@LGPJHNJH@?$AAz?$AAu?$AA?9?$AAZ?$AAA@ 100249c8     libucrt:lcidtoname_downlevel.obj
 0002:000049d4       ??_C@_1M@HOKAOIO@?$AAa?$AAf?$AA?9?$AAZ?$AAA@ 100249d4     libucrt:lcidtoname_downlevel.obj
 0002:000049e0       ??_C@_1M@DPCLHLIE@?$AAk?$AAa?$AA?9?$AAG?$AAE@ 100249e0     libucrt:lcidtoname_downlevel.obj
 0002:000049ec       ??_C@_1M@BLKMHJBI@?$AAf?$AAo?$AA?9?$AAF?$AAO@ 100249ec     libucrt:lcidtoname_downlevel.obj
 0002:000049f8       ??_C@_1M@LGGJAPPB@?$AAh?$AAi?$AA?9?$AAI?$AAN@ 100249f8     libucrt:lcidtoname_downlevel.obj
 0002:00004a04       ??_C@_1M@FIKPIHFE@?$AAm?$AAt?$AA?9?$AAM?$AAT@ 10024a04     libucrt:lcidtoname_downlevel.obj
 0002:00004a10       ??_C@_1M@HEGGPBFA@?$AAs?$AAe?$AA?9?$AAN?$AAO@ 10024a10     libucrt:lcidtoname_downlevel.obj
 0002:00004a1c       ??_C@_1M@EIBJEEPA@?$AAm?$AAs?$AA?9?$AAM?$AAY@ 10024a1c     libucrt:lcidtoname_downlevel.obj
 0002:00004a28       ??_C@_1M@FHLBGMPP@?$AAk?$AAk?$AA?9?$AAK?$AAZ@ 10024a28     libucrt:lcidtoname_downlevel.obj
 0002:00004a34       ??_C@_1M@NGJJLCGI@?$AAk?$AAy?$AA?9?$AAK?$AAG@ 10024a34     libucrt:lcidtoname_downlevel.obj
 0002:00004a40       ??_C@_1M@GIENNBFC@?$AAs?$AAw?$AA?9?$AAK?$AAE@ 10024a40     libucrt:lcidtoname_downlevel.obj
 0002:00004a4c       ??_C@_1BG@NDGMJIMJ@?$AAu?$AAz?$AA?9?$AAU?$AAZ?$AA?9?$AAL?$AAa?$AAt?$AAn@ 10024a4c     libucrt:lcidtoname_downlevel.obj
 0002:00004a64       ??_C@_1M@IDCCIHBC@?$AAt?$AAt?$AA?9?$AAR?$AAU@ 10024a64     libucrt:lcidtoname_downlevel.obj
 0002:00004a70       ??_C@_1M@LOICPMOJ@?$AAb?$AAn?$AA?9?$AAI?$AAN@ 10024a70     libucrt:lcidtoname_downlevel.obj
 0002:00004a7c       ??_C@_1M@KPKKNEAH@?$AAp?$AAa?$AA?9?$AAI?$AAN@ 10024a7c     libucrt:lcidtoname_downlevel.obj
 0002:00004a88       ??_C@_1M@PJGPPBOG@?$AAg?$AAu?$AA?9?$AAI?$AAN@ 10024a88     libucrt:lcidtoname_downlevel.obj
 0002:00004a94       ??_C@_1M@KMKMOPHI@?$AAt?$AAa?$AA?9?$AAI?$AAN@ 10024a94     libucrt:lcidtoname_downlevel.obj
 0002:00004aa0       ??_C@_1M@KFEHEPAC@?$AAt?$AAe?$AA?9?$AAI?$AAN@ 10024aa0     libucrt:lcidtoname_downlevel.obj
 0002:00004aac       ??_C@_1M@CDCLMGHI@?$AAk?$AAn?$AA?9?$AAI?$AAN@ 10024aac     libucrt:lcidtoname_downlevel.obj
 0002:00004ab8       ??_C@_1M@MIODLDKF@?$AAm?$AAl?$AA?9?$AAI?$AAN@ 10024ab8     libucrt:lcidtoname_downlevel.obj
 0002:00004ac4       ??_C@_1M@PBIEACPO@?$AAm?$AAr?$AA?9?$AAI?$AAN@ 10024ac4     libucrt:lcidtoname_downlevel.obj
 0002:00004ad0       ??_C@_1M@NIDEAGPH@?$AAs?$AAa?$AA?9?$AAI?$AAN@ 10024ad0     libucrt:lcidtoname_downlevel.obj
 0002:00004adc       ??_C@_1M@FHIHCBIO@?$AAm?$AAn?$AA?9?$AAM?$AAN@ 10024adc     libucrt:lcidtoname_downlevel.obj
 0002:00004ae8       ??_C@_1M@JAIJPENP@?$AAc?$AAy?$AA?9?$AAG?$AAB@ 10024ae8     libucrt:lcidtoname_downlevel.obj
 0002:00004af4       ??_C@_1M@PHGFBEPN@?$AAg?$AAl?$AA?9?$AAE?$AAS@ 10024af4     libucrt:lcidtoname_downlevel.obj
 0002:00004b00       ??_C@_1O@KPIPDNCP@?$AAk?$AAo?$AAk?$AA?9?$AAI?$AAN@ 10024b00     libucrt:lcidtoname_downlevel.obj
 0002:00004b10       ??_C@_1O@KNHJLDJA@?$AAs?$AAy?$AAr?$AA?9?$AAS?$AAY@ 10024b10     libucrt:lcidtoname_downlevel.obj
 0002:00004b20       ??_C@_1O@MKEKBLAH@?$AAd?$AAi?$AAv?$AA?9?$AAM?$AAV@ 10024b20     libucrt:lcidtoname_downlevel.obj
 0002:00004b30       ??_C@_1O@OHDCKDDF@?$AAq?$AAu?$AAz?$AA?9?$AAB?$AAO@ 10024b30     libucrt:lcidtoname_downlevel.obj
 0002:00004b40       ??_C@_1M@LEPJNLFD@?$AAn?$AAs?$AA?9?$AAZ?$AAA@ 10024b40     libucrt:lcidtoname_downlevel.obj
 0002:00004b4c       ??_C@_1M@OMLEIIJB@?$AAm?$AAi?$AA?9?$AAN?$AAZ@ 10024b4c     libucrt:lcidtoname_downlevel.obj
 0002:00004b58       ??_C@_1M@PMPEAILG@?$AAa?$AAr?$AA?9?$AAI?$AAQ@ 10024b58     libucrt:lcidtoname_downlevel.obj
 0002:00004b64       ??_C@_1M@CNKPNOEE@?$AAd?$AAe?$AA?9?$AAC?$AAH@ 10024b64     libucrt:lcidtoname_downlevel.obj
 0002:00004b70       ??_C@_1M@LKMGMLKO@?$AAe?$AAn?$AA?9?$AAG?$AAB@ 10024b70     libucrt:lcidtoname_downlevel.obj
 0002:00004b7c       ??_C@_1M@PGKJFFGL@?$AAe?$AAs?$AA?9?$AAM?$AAX@ 10024b7c     libucrt:lcidtoname_downlevel.obj
 0002:00004b88       ??_C@_1M@DNNANBDC@?$AAf?$AAr?$AA?9?$AAB?$AAE@ 10024b88     libucrt:lcidtoname_downlevel.obj
 0002:00004b94       ??_C@_1M@HLGMDFHM@?$AAi?$AAt?$AA?9?$AAC?$AAH@ 10024b94     libucrt:lcidtoname_downlevel.obj
 0002:00004ba0       ??_C@_1M@CLLBGJH@?$AAn?$AAl?$AA?9?$AAB?$AAE@ 10024ba0     libucrt:lcidtoname_downlevel.obj
 0002:00004bac       ??_C@_1M@BODBOGLF@?$AAn?$AAn?$AA?9?$AAN?$AAO@ 10024bac     libucrt:lcidtoname_downlevel.obj
 0002:00004bb8       ??_C@_1M@HFFAHKAD@?$AAp?$AAt?$AA?9?$AAP?$AAT@ 10024bb8     libucrt:lcidtoname_downlevel.obj
 0002:00004bc4       ??_C@_1BG@LNOAKHIE@?$AAs?$AAr?$AA?9?$AAS?$AAP?$AA?9?$AAL?$AAa?$AAt?$AAn@ 10024bc4     libucrt:lcidtoname_downlevel.obj
 0002:00004bdc       ??_C@_1M@HBMHBGAK@?$AAs?$AAv?$AA?9?$AAF?$AAI@ 10024bdc     libucrt:lcidtoname_downlevel.obj
 0002:00004be8       ??_C@_1BG@DGCJGJBE@?$AAa?$AAz?$AA?9?$AAA?$AAZ?$AA?9?$AAC?$AAy?$AAr?$AAl@ 10024be8     libucrt:lcidtoname_downlevel.obj
 0002:00004c00       ??_C@_1M@KEJDAAHB@?$AAs?$AAe?$AA?9?$AAS?$AAE@ 10024c00     libucrt:lcidtoname_downlevel.obj
 0002:00004c0c       ??_C@_1M@HEIBJJAD@?$AAm?$AAs?$AA?9?$AAB?$AAN@ 10024c0c     libucrt:lcidtoname_downlevel.obj
 0002:00004c18       ??_C@_1BG@PBGJMCEM@?$AAu?$AAz?$AA?9?$AAU?$AAZ?$AA?9?$AAC?$AAy?$AAr?$AAl@ 10024c18     libucrt:lcidtoname_downlevel.obj
 0002:00004c30       ??_C@_1O@LAOBCMDF@?$AAq?$AAu?$AAz?$AA?9?$AAE?$AAC@ 10024c30     libucrt:lcidtoname_downlevel.obj
 0002:00004c40       ??_C@_1M@POEEMAIO@?$AAa?$AAr?$AA?9?$AAE?$AAG@ 10024c40     libucrt:lcidtoname_downlevel.obj
 0002:00004c4c       ??_C@_1M@EFAKDEDL@?$AAz?$AAh?$AA?9?$AAH?$AAK@ 10024c4c     libucrt:lcidtoname_downlevel.obj
 0002:00004c58       ??_C@_1M@HKKIJHGI@?$AAd?$AAe?$AA?9?$AAA?$AAT@ 10024c58     libucrt:lcidtoname_downlevel.obj
 0002:00004c64       ??_C@_1M@KBFBEHJF@?$AAe?$AAn?$AA?9?$AAA?$AAU@ 10024c64     libucrt:lcidtoname_downlevel.obj
 0002:00004c70       ??_C@_1M@MNPLFAAH@?$AAe?$AAs?$AA?9?$AAE?$AAS@ 10024c70     libucrt:lcidtoname_downlevel.obj
 0002:00004c7c       ??_C@_1M@HJOOJFMA@?$AAf?$AAr?$AA?9?$AAC?$AAA@ 10024c7c     libucrt:lcidtoname_downlevel.obj
 0002:00004c88       ??_C@_1BG@JPOFPNAB@?$AAs?$AAr?$AA?9?$AAS?$AAP?$AA?9?$AAC?$AAy?$AAr?$AAl@ 10024c88     libucrt:lcidtoname_downlevel.obj
 0002:00004ca0       ??_C@_1M@LNFOCMOB@?$AAs?$AAe?$AA?9?$AAF?$AAI@ 10024ca0     libucrt:lcidtoname_downlevel.obj
 0002:00004cac       ??_C@_1O@MGJBOAMB@?$AAq?$AAu?$AAz?$AA?9?$AAP?$AAE@ 10024cac     libucrt:lcidtoname_downlevel.obj
 0002:00004cbc       ??_C@_1M@GJINLBOK@?$AAa?$AAr?$AA?9?$AAL?$AAY@ 10024cbc     libucrt:lcidtoname_downlevel.obj
 0002:00004cc8       ??_C@_1M@GGMNHJNL@?$AAz?$AAh?$AA?9?$AAS?$AAG@ 10024cc8     libucrt:lcidtoname_downlevel.obj
 0002:00004cd4       ??_C@_1M@HOIKODND@?$AAd?$AAe?$AA?9?$AAL?$AAU@ 10024cd4     libucrt:lcidtoname_downlevel.obj
 0002:00004ce0       ??_C@_1M@DDOCCGFG@?$AAe?$AAn?$AA?9?$AAC?$AAA@ 10024ce0     libucrt:lcidtoname_downlevel.obj
 0002:00004cec       ??_C@_1M@BNOEMJLF@?$AAe?$AAs?$AA?9?$AAG?$AAT@ 10024cec     libucrt:lcidtoname_downlevel.obj
 0002:00004cf8       ??_C@_1M@EOGNKEK@?$AAf?$AAr?$AA?9?$AAC?$AAH@ 10024cf8     libucrt:lcidtoname_downlevel.obj
 0002:00004d04       ??_C@_1M@FLIDJFHL@?$AAh?$AAr?$AA?9?$AAB?$AAA@ 10024d04     libucrt:lcidtoname_downlevel.obj
 0002:00004d10       ??_C@_1O@FMCELNAJ@?$AAs?$AAm?$AAj?$AA?9?$AAN?$AAO@ 10024d10     libucrt:lcidtoname_downlevel.obj
 0002:00004d20       ??_C@_1M@JHGLJMGJ@?$AAa?$AAr?$AA?9?$AAD?$AAZ@ 10024d20     libucrt:lcidtoname_downlevel.obj
 0002:00004d2c       ??_C@_1M@JKKFDCNP@?$AAz?$AAh?$AA?9?$AAM?$AAO@ 10024d2c     libucrt:lcidtoname_downlevel.obj
 0002:00004d38       ??_C@_1M@GEEFALPE@?$AAd?$AAe?$AA?9?$AAL?$AAI@ 10024d38     libucrt:lcidtoname_downlevel.obj
 0002:00004d44       ??_C@_1M@IGEOFBG@?$AAe?$AAn?$AA?9?$AAN?$AAZ@ 10024d44     libucrt:lcidtoname_downlevel.obj
 0002:00004d50       ??_C@_1M@KDBONEHP@?$AAe?$AAs?$AA?9?$AAC?$AAR@ 10024d50     libucrt:lcidtoname_downlevel.obj
 0002:00004d5c       ??_C@_1M@FHMDOHNN@?$AAf?$AAr?$AA?9?$AAL?$AAU@ 10024d5c     libucrt:lcidtoname_downlevel.obj
 0002:00004d68       ??_C@_1BG@NFKKMAFG@?$AAb?$AAs?$AA?9?$AAB?$AAA?$AA?9?$AAL?$AAa?$AAt?$AAn@ 10024d68     libucrt:lcidtoname_downlevel.obj
 0002:00004d80       ??_C@_1O@IMNBEMCI@?$AAs?$AAm?$AAj?$AA?9?$AAS?$AAE@ 10024d80     libucrt:lcidtoname_downlevel.obj
 0002:00004d90       ??_C@_1M@DHHMBNDP@?$AAa?$AAr?$AA?9?$AAM?$AAA@ 10024d90     libucrt:lcidtoname_downlevel.obj
 0002:00004d9c       ??_C@_1M@BNBLJCGH@?$AAe?$AAn?$AA?9?$AAI?$AAE@ 10024d9c     libucrt:lcidtoname_downlevel.obj
 0002:00004da8       ??_C@_1M@GEPAFMDL@?$AAe?$AAs?$AA?9?$AAP?$AAA@ 10024da8     libucrt:lcidtoname_downlevel.obj
 0002:00004db4       ??_C@_1M@OJONDMDL@?$AAf?$AAr?$AA?9?$AAM?$AAC@ 10024db4     libucrt:lcidtoname_downlevel.obj
 0002:00004dc0       ??_C@_1BG@OBCNFJB@?$AAs?$AAr?$AA?9?$AAB?$AAA?$AA?9?$AAL?$AAa?$AAt?$AAn@ 10024dc0     libucrt:lcidtoname_downlevel.obj
 0002:00004dd8       ??_C@_1O@KEMEEGPO@?$AAs?$AAm?$AAa?$AA?9?$AAN?$AAO@ 10024dd8     libucrt:lcidtoname_downlevel.obj
 0002:00004de8       ??_C@_1M@ELMGFODK@?$AAa?$AAr?$AA?9?$AAT?$AAN@ 10024de8     libucrt:lcidtoname_downlevel.obj
 0002:00004df4       ??_C@_1M@BHDLHFAF@?$AAe?$AAn?$AA?9?$AAZ?$AAA@ 10024df4     libucrt:lcidtoname_downlevel.obj
 0002:00004e00       ??_C@_1M@BMGIGLIF@?$AAe?$AAs?$AA?9?$AAD?$AAO@ 10024e00     libucrt:lcidtoname_downlevel.obj
 0002:00004e0c       ??_C@_1BG@CMBHIPBE@?$AAs?$AAr?$AA?9?$AAB?$AAA?$AA?9?$AAC?$AAy?$AAr?$AAl@ 10024e0c     libucrt:lcidtoname_downlevel.obj
 0002:00004e24       ??_C@_1O@HEDBLHNP@?$AAs?$AAm?$AAa?$AA?9?$AAS?$AAE@ 10024e24     libucrt:lcidtoname_downlevel.obj
 0002:00004e34       ??_C@_1M@DAGCADIM@?$AAa?$AAr?$AA?9?$AAO?$AAM@ 10024e34     libucrt:lcidtoname_downlevel.obj
 0002:00004e40       ??_C@_1M@FODLMICG@?$AAe?$AAn?$AA?9?$AAJ?$AAM@ 10024e40     libucrt:lcidtoname_downlevel.obj
 0002:00004e4c       ??_C@_1M@DNMLCIHB@?$AAe?$AAs?$AA?9?$AAV?$AAE@ 10024e4c     libucrt:lcidtoname_downlevel.obj
 0002:00004e58       ??_C@_1O@EOKHMKJK@?$AAs?$AAm?$AAs?$AA?9?$AAF?$AAI@ 10024e58     libucrt:lcidtoname_downlevel.obj
 0002:00004e68       ??_C@_1M@CAFJMKOF@?$AAa?$AAr?$AA?9?$AAY?$AAE@ 10024e68     libucrt:lcidtoname_downlevel.obj
 0002:00004e74       ??_C@_1M@CBFHIJLI@?$AAe?$AAn?$AA?9?$AAC?$AAB@ 10024e74     libucrt:lcidtoname_downlevel.obj
 0002:00004e80       ??_C@_1M@BGNFLDN@?$AAe?$AAs?$AA?9?$AAC?$AAO@ 10024e80     libucrt:lcidtoname_downlevel.obj
 0002:00004e8c       ??_C@_1O@JMPHMAMC@?$AAs?$AAm?$AAn?$AA?9?$AAF?$AAI@ 10024e8c     libucrt:lcidtoname_downlevel.obj
 0002:00004e9c       ??_C@_1M@JLANABKE@?$AAa?$AAr?$AA?9?$AAS?$AAY@ 10024e9c     libucrt:lcidtoname_downlevel.obj
 0002:00004ea8       ??_C@_1M@HPKGCFGN@?$AAe?$AAn?$AA?9?$AAB?$AAZ@ 10024ea8     libucrt:lcidtoname_downlevel.obj
 0002:00004eb4       ??_C@_1M@OLJCMLGM@?$AAe?$AAs?$AA?9?$AAP?$AAE@ 10024eb4     libucrt:lcidtoname_downlevel.obj
 0002:00004ec0       ??_C@_1M@MKKGFKLE@?$AAa?$AAr?$AA?9?$AAJ?$AAO@ 10024ec0     libucrt:lcidtoname_downlevel.obj
 0002:00004ecc       ??_C@_1M@EKPGLDNI@?$AAe?$AAn?$AA?9?$AAT?$AAT@ 10024ecc     libucrt:lcidtoname_downlevel.obj
 0002:00004ed8       ??_C@_1M@OONGHFHE@?$AAe?$AAs?$AA?9?$AAA?$AAR@ 10024ed8     libucrt:lcidtoname_downlevel.obj
 0002:00004ee4       ??_C@_1M@OOJFGBHE@?$AAa?$AAr?$AA?9?$AAL?$AAB@ 10024ee4     libucrt:lcidtoname_downlevel.obj
 0002:00004ef0       ??_C@_1M@GCEJHNEG@?$AAe?$AAn?$AA?9?$AAZ?$AAW@ 10024ef0     libucrt:lcidtoname_downlevel.obj
 0002:00004efc       ??_C@_1M@JNOCAHJI@?$AAe?$AAs?$AA?9?$AAE?$AAC@ 10024efc     libucrt:lcidtoname_downlevel.obj
 0002:00004f08       ??_C@_1M@JEFHPGGB@?$AAa?$AAr?$AA?9?$AAK?$AAW@ 10024f08     libucrt:lcidtoname_downlevel.obj
 0002:00004f14       ??_C@_1M@MLKIBJOJ@?$AAe?$AAn?$AA?9?$AAP?$AAH@ 10024f14     libucrt:lcidtoname_downlevel.obj
 0002:00004f20       ??_C@_1M@BDNIPEND@?$AAe?$AAs?$AA?9?$AAC?$AAL@ 10024f20     libucrt:lcidtoname_downlevel.obj
 0002:00004f2c       ??_C@_1M@MPNMEKBD@?$AAa?$AAr?$AA?9?$AAA?$AAE@ 10024f2c     libucrt:lcidtoname_downlevel.obj
 0002:00004f38       ??_C@_1M@KBJALCPI@?$AAe?$AAs?$AA?9?$AAU?$AAY@ 10024f38     libucrt:lcidtoname_downlevel.obj
 0002:00004f44       ??_C@_1M@LLCCOAGA@?$AAa?$AAr?$AA?9?$AAB?$AAH@ 10024f44     libucrt:lcidtoname_downlevel.obj
 0002:00004f50       ??_C@_1M@PBFNCDEL@?$AAe?$AAs?$AA?9?$AAP?$AAY@ 10024f50     libucrt:lcidtoname_downlevel.obj
 0002:00004f5c       ??_C@_1M@EDGINPNP@?$AAa?$AAr?$AA?9?$AAQ?$AAA@ 10024f5c     libucrt:lcidtoname_downlevel.obj
 0002:00004f68       ??_C@_1M@MKDBIIJI@?$AAe?$AAs?$AA?9?$AAB?$AAO@ 10024f68     libucrt:lcidtoname_downlevel.obj
 0002:00004f74       ??_C@_1M@CPKKEBLD@?$AAe?$AAs?$AA?9?$AAS?$AAV@ 10024f74     libucrt:lcidtoname_downlevel.obj
 0002:00004f80       ??_C@_1M@NDBGMMJL@?$AAe?$AAs?$AA?9?$AAH?$AAN@ 10024f80     libucrt:lcidtoname_downlevel.obj
 0002:00004f8c       ??_C@_1M@JIJIBHDP@?$AAe?$AAs?$AA?9?$AAN?$AAI@ 10024f8c     libucrt:lcidtoname_downlevel.obj
 0002:00004f98       ??_C@_1M@CGFMKEEK@?$AAe?$AAs?$AA?9?$AAP?$AAR@ 10024f98     libucrt:lcidtoname_downlevel.obj
 0002:00004fa4       ??_C@_1O@ICJHKIIK@?$AAz?$AAh?$AA?9?$AAC?$AAH?$AAT@ 10024fa4     libucrt:lcidtoname_downlevel.obj
 0002:00004fb4       ??_C@_15CLNEJCE@?$AAs?$AAr@ 10024fb4     libucrt:lcidtoname_downlevel.obj
 0002:000056e0       ??_C@_1M@KAHEKEIG@?$AAa?$AAf?$AA?9?$AAz?$AAa@ 100256e0     libucrt:lcidtoname_downlevel.obj
 0002:000056ec       ??_C@_1M@GIECOABL@?$AAa?$AAr?$AA?9?$AAa?$AAe@ 100256ec     libucrt:lcidtoname_downlevel.obj
 0002:000056f8       ??_C@_1M@BMLMEKGI@?$AAa?$AAr?$AA?9?$AAb?$AAh@ 100256f8     libucrt:lcidtoname_downlevel.obj
 0002:00005704       ??_C@_1M@DAPFDGGB@?$AAa?$AAr?$AA?9?$AAd?$AAz@ 10025704     libucrt:lcidtoname_downlevel.obj
 0002:00005710       ??_C@_1M@FJNKGKIG@?$AAa?$AAr?$AA?9?$AAe?$AAg@ 10025710     libucrt:lcidtoname_downlevel.obj
 0002:0000571c       ??_C@_1M@FLGKKCLO@?$AAa?$AAr?$AA?9?$AAi?$AAq@ 1002571c     libucrt:lcidtoname_downlevel.obj
 0002:00005728       ??_C@_1M@GNDIPALM@?$AAa?$AAr?$AA?9?$AAj?$AAo@ 10025728     libucrt:lcidtoname_downlevel.obj
 0002:00005734       ??_C@_1M@DDMJFMGJ@?$AAa?$AAr?$AA?9?$AAk?$AAw@ 10025734     libucrt:lcidtoname_downlevel.obj
 0002:00005740       ??_C@_1M@EJALMLHM@?$AAa?$AAr?$AA?9?$AAl?$AAb@ 10025740     libucrt:lcidtoname_downlevel.obj
 0002:0000574c       ??_C@_1M@MOBDBLOC@?$AAa?$AAr?$AA?9?$AAl?$AAy@ 1002574c     libucrt:lcidtoname_downlevel.obj
 0002:00005758       ??_C@_1M@JAOCLHDH@?$AAa?$AAr?$AA?9?$AAm?$AAa@ 10025758     libucrt:lcidtoname_downlevel.obj
 0002:00005764       ??_C@_1M@JHPMKJIE@?$AAa?$AAr?$AA?9?$AAo?$AAm@ 10025764     libucrt:lcidtoname_downlevel.obj
 0002:00005770       ??_C@_1M@OEPGHFNH@?$AAa?$AAr?$AA?9?$AAq?$AAa@ 10025770     libucrt:lcidtoname_downlevel.obj
 0002:0000577c       ??_C@_1M@KJDONENM@?$AAa?$AAr?$AA?9?$AAs?$AAa@ 1002577c     libucrt:lcidtoname_downlevel.obj
 0002:00005788       ??_C@_1M@DMJDKLKM@?$AAa?$AAr?$AA?9?$AAs?$AAy@ 10025788     libucrt:lcidtoname_downlevel.obj
 0002:00005794       ??_C@_1M@OMFIPEDC@?$AAa?$AAr?$AA?9?$AAt?$AAn@ 10025794     libucrt:lcidtoname_downlevel.obj
 0002:000057a0       ??_C@_1M@IHMHGAON@?$AAa?$AAr?$AA?9?$AAy?$AAe@ 100257a0     libucrt:lcidtoname_downlevel.obj
 0002:000057ac       ??_C@_1BG@KDCPGJGB@?$AAa?$AAz?$AA?9?$AAa?$AAz?$AA?9?$AAc?$AAy?$AAr?$AAl@ 100257ac     libucrt:lcidtoname_downlevel.obj
 0002:000057c4       ??_C@_1BG@IBCKDDOE@?$AAa?$AAz?$AA?9?$AAa?$AAz?$AA?9?$AAl?$AAa?$AAt?$AAn@ 100257c4     libucrt:lcidtoname_downlevel.obj
 0002:000057dc       ??_C@_1M@EGPFDCPD@?$AAb?$AAe?$AA?9?$AAb?$AAy@ 100257dc     libucrt:lcidtoname_downlevel.obj
 0002:000057e8       ??_C@_1M@PCMGMCGC@?$AAb?$AAg?$AA?9?$AAb?$AAg@ 100257e8     libucrt:lcidtoname_downlevel.obj
 0002:000057f4       ??_C@_1M@BJBMFGOB@?$AAb?$AAn?$AA?9?$AAi?$AAn@ 100257f4     libucrt:lcidtoname_downlevel.obj
 0002:00005800       ??_C@_1BG@EAKMMACD@?$AAb?$AAs?$AA?9?$AAb?$AAa?$AA?9?$AAl?$AAa?$AAt?$AAn@ 10025800     libucrt:lcidtoname_downlevel.obj
 0002:00005818       ??_C@_1M@KGADAODK@?$AAc?$AAa?$AA?9?$AAe?$AAs@ 10025818     libucrt:lcidtoname_downlevel.obj
 0002:00005824       ??_C@_1M@COAJPDHI@?$AAc?$AAs?$AA?9?$AAc?$AAz@ 10025824     libucrt:lcidtoname_downlevel.obj
 0002:00005830       ??_C@_1M@DHBHFONH@?$AAc?$AAy?$AA?9?$AAg?$AAb@ 10025830     libucrt:lcidtoname_downlevel.obj
 0002:0000583c       ??_C@_1M@IMGKELGA@?$AAd?$AAa?$AA?9?$AAd?$AAk@ 1002583c     libucrt:lcidtoname_downlevel.obj
 0002:00005848       ??_C@_1M@NNDGDNGA@?$AAd?$AAe?$AA?9?$AAa?$AAt@ 10025848     libucrt:lcidtoname_downlevel.obj
 0002:00005854       ??_C@_1M@IKDBHEEM@?$AAd?$AAe?$AA?9?$AAc?$AAh@ 10025854     libucrt:lcidtoname_downlevel.obj
 0002:00005860       ??_C@_1M@GFFOJMCJ@?$AAd?$AAe?$AA?9?$AAd?$AAe@ 10025860     libucrt:lcidtoname_downlevel.obj
 0002:0000586c       ??_C@_1M@MDNLKBPM@?$AAd?$AAe?$AA?9?$AAl?$AAi@ 1002586c     libucrt:lcidtoname_downlevel.obj
 0002:00005878       ??_C@_1M@NJBEEJNL@?$AAd?$AAe?$AA?9?$AAl?$AAu@ 10025878     libucrt:lcidtoname_downlevel.obj
 0002:00005884       ??_C@_1O@GNNELBAP@?$AAd?$AAi?$AAv?$AA?9?$AAm?$AAv@ 10025884     libucrt:lcidtoname_downlevel.obj
 0002:00005894       ??_C@_1M@EJLEOGAE@?$AAe?$AAl?$AA?9?$AAg?$AAr@ 10025894     libucrt:lcidtoname_downlevel.obj
 0002:000058a0       ??_C@_1M@GMPONJN@?$AAe?$AAn?$AA?9?$AAa?$AAu@ 100258a0     libucrt:lcidtoname_downlevel.obj
 0002:000058ac       ??_C@_1M@NIDIIPGF@?$AAe?$AAn?$AA?9?$AAb?$AAz@ 100258ac     libucrt:lcidtoname_downlevel.obj
 0002:000058b8       ??_C@_1M@JEHMIMFO@?$AAe?$AAn?$AA?9?$AAc?$AAa@ 100258b8     libucrt:lcidtoname_downlevel.obj
 0002:000058c4       ??_C@_1M@IGMJCDLA@?$AAe?$AAn?$AA?9?$AAc?$AAb@ 100258c4     libucrt:lcidtoname_downlevel.obj
 0002:000058d0       ??_C@_1M@BNFIGBKG@?$AAe?$AAn?$AA?9?$AAg?$AAb@ 100258d0     libucrt:lcidtoname_downlevel.obj
 0002:000058dc       ??_C@_1M@LKIFDIGP@?$AAe?$AAn?$AA?9?$AAi?$AAe@ 100258dc     libucrt:lcidtoname_downlevel.obj
 0002:000058e8       ??_C@_1M@PJKFGCCO@?$AAe?$AAn?$AA?9?$AAj?$AAm@ 100258e8     libucrt:lcidtoname_downlevel.obj
 0002:000058f4       ??_C@_1M@KPPKEPBO@?$AAe?$AAn?$AA?9?$AAn?$AAz@ 100258f4     libucrt:lcidtoname_downlevel.obj
 0002:00005900       ??_C@_1M@GMDGLDOB@?$AAe?$AAn?$AA?9?$AAp?$AAh@ 10025900     libucrt:lcidtoname_downlevel.obj
 0002:0000590c       ??_C@_1M@ONGIBJNA@?$AAe?$AAn?$AA?9?$AAt?$AAt@ 1002590c     libucrt:lcidtoname_downlevel.obj
 0002:00005918       ??_C@_1M@LLODPCMM@?$AAe?$AAn?$AA?9?$AAu?$AAs@ 10025918     libucrt:lcidtoname_downlevel.obj
 0002:00005924       ??_C@_1M@LAKFNPAN@?$AAe?$AAn?$AA?9?$AAz?$AAa@ 10025924     libucrt:lcidtoname_downlevel.obj
 0002:00005930       ??_C@_1M@MFNHNHEO@?$AAe?$AAn?$AA?9?$AAz?$AAw@ 10025930     libucrt:lcidtoname_downlevel.obj
 0002:0000593c       ??_C@_1M@EJEINPHM@?$AAe?$AAs?$AA?9?$AAa?$AAr@ 1002593c     libucrt:lcidtoname_downlevel.obj
 0002:00005948       ??_C@_1M@GNKPCCJA@?$AAe?$AAs?$AA?9?$AAb?$AAo@ 10025948     libucrt:lcidtoname_downlevel.obj
 0002:00005954       ??_C@_1M@LEEGFONL@?$AAe?$AAs?$AA?9?$AAc?$AAl@ 10025954     libucrt:lcidtoname_downlevel.obj
 0002:00005960       ??_C@_1M@KGPDPBDF@?$AAe?$AAs?$AA?9?$AAc?$AAo@ 10025960     libucrt:lcidtoname_downlevel.obj
 0002:0000596c       ??_C@_1M@EIAHOHH@?$AAe?$AAs?$AA?9?$AAc?$AAr@ 1002596c     libucrt:lcidtoname_downlevel.obj
 0002:00005978       ??_C@_1M@LLPGMBIN@?$AAe?$AAs?$AA?9?$AAd?$AAo@ 10025978     libucrt:lcidtoname_downlevel.obj
 0002:00005984       ??_C@_1M@DKHMKNJA@?$AAe?$AAs?$AA?9?$AAe?$AAc@ 10025984     libucrt:lcidtoname_downlevel.obj
 0002:00005990       ??_C@_1M@GKGFPKAP@?$AAe?$AAs?$AA?9?$AAe?$AAs@ 10025990     libucrt:lcidtoname_downlevel.obj
 0002:0000599c       ??_C@_1M@LKHKGDLN@?$AAe?$AAs?$AA?9?$AAg?$AAt@ 1002599c     libucrt:lcidtoname_downlevel.obj
 0002:000059a8       ??_C@_1M@HEIIGGJD@?$AAe?$AAs?$AA?9?$AAh?$AAn@ 100259a8     libucrt:lcidtoname_downlevel.obj
 0002:000059b4       ??_C@_1M@FBDHPPGD@?$AAe?$AAs?$AA?9?$AAm?$AAx@ 100259b4     libucrt:lcidtoname_downlevel.obj
 0002:000059c0       ??_C@_1M@DPAGLNDH@?$AAe?$AAs?$AA?9?$AAn?$AAi@ 100259c0     libucrt:lcidtoname_downlevel.obj
 0002:000059cc       ??_C@_1M@MDGOPGDD@?$AAe?$AAs?$AA?9?$AAp?$AAa@ 100259cc     libucrt:lcidtoname_downlevel.obj
 0002:000059d8       ??_C@_1M@EMAMGBGE@?$AAe?$AAs?$AA?9?$AAp?$AAe@ 100259d8     libucrt:lcidtoname_downlevel.obj
 0002:000059e4       ??_C@_1M@IBMCAOEC@?$AAe?$AAs?$AA?9?$AAp?$AAr@ 100259e4     libucrt:lcidtoname_downlevel.obj
 0002:000059f0       ??_C@_1M@FGMDIJED@?$AAe?$AAs?$AA?9?$AAp?$AAy@ 100259f0     libucrt:lcidtoname_downlevel.obj
 0002:000059fc       ??_C@_1M@IIDEOLLL@?$AAe?$AAs?$AA?9?$AAs?$AAv@ 100259fc     libucrt:lcidtoname_downlevel.obj
 0002:00005a08       ??_C@_1M@GAOBIPA@?$AAe?$AAs?$AA?9?$AAu?$AAy@ 10025a08     libucrt:lcidtoname_downlevel.obj
 0002:00005a14       ??_C@_1M@JKFFICHJ@?$AAe?$AAs?$AA?9?$AAv?$AAe@ 10025a14     libucrt:lcidtoname_downlevel.obj
 0002:00005a20       ??_C@_1M@PNMLOJDF@?$AAe?$AAt?$AA?9?$AAe?$AAe@ 10025a20     libucrt:lcidtoname_downlevel.obj
 0002:00005a2c       ??_C@_1M@GHHLIKEI@?$AAe?$AAu?$AA?9?$AAe?$AAs@ 10025a2c     libucrt:lcidtoname_downlevel.obj
 0002:00005a38       ??_C@_1M@PBNONODE@?$AAf?$AAa?$AA?9?$AAi?$AAr@ 10025a38     libucrt:lcidtoname_downlevel.obj
 0002:00005a44       ??_C@_1M@JEEHPMIL@?$AAf?$AAi?$AA?9?$AAf?$AAi@ 10025a44     libucrt:lcidtoname_downlevel.obj
 0002:00005a50       ??_C@_1M@LMDCNDBA@?$AAf?$AAo?$AA?9?$AAf?$AAo@ 10025a50     libucrt:lcidtoname_downlevel.obj
 0002:00005a5c       ??_C@_1M@JKEOHLDK@?$AAf?$AAr?$AA?9?$AAb?$AAe@ 10025a5c     libucrt:lcidtoname_downlevel.obj
 0002:00005a68       ??_C@_1M@NOHADPMI@?$AAf?$AAr?$AA?9?$AAc?$AAa@ 10025a68     libucrt:lcidtoname_downlevel.obj
 0002:00005a74       ??_C@_1M@KDHIHAEC@?$AAf?$AAr?$AA?9?$AAc?$AAh@ 10025a74     libucrt:lcidtoname_downlevel.obj
 0002:00005a80       ??_C@_1M@MMBBFGAK@?$AAf?$AAr?$AA?9?$AAf?$AAr@ 10025a80     libucrt:lcidtoname_downlevel.obj
 0002:00005a8c       ??_C@_1M@PAFNENNF@?$AAf?$AAr?$AA?9?$AAl?$AAu@ 10025a8c     libucrt:lcidtoname_downlevel.obj
 0002:00005a98       ??_C@_1M@EOHDJGDD@?$AAf?$AAr?$AA?9?$AAm?$AAc@ 10025a98     libucrt:lcidtoname_downlevel.obj
 0002:00005aa4       ??_C@_1M@FAPLLOPF@?$AAg?$AAl?$AA?9?$AAe?$AAs@ 10025aa4     libucrt:lcidtoname_downlevel.obj
 0002:00005ab0       ??_C@_1M@FOPBFLOO@?$AAg?$AAu?$AA?9?$AAi?$AAn@ 10025ab0     libucrt:lcidtoname_downlevel.obj
 0002:00005abc       ??_C@_1M@KBMCINPM@?$AAh?$AAe?$AA?9?$AAi?$AAl@ 10025abc     libucrt:lcidtoname_downlevel.obj
 0002:00005ac8       ??_C@_1M@BBPHKFPJ@?$AAh?$AAi?$AA?9?$AAi?$AAn@ 10025ac8     libucrt:lcidtoname_downlevel.obj
 0002:00005ad4       ??_C@_1M@PMBNDPHD@?$AAh?$AAr?$AA?9?$AAb?$AAa@ 10025ad4     libucrt:lcidtoname_downlevel.obj
 0002:00005ae0       ??_C@_1M@BPCKOEGE@?$AAh?$AAr?$AA?9?$AAh?$AAr@ 10025ae0     libucrt:lcidtoname_downlevel.obj
 0002:00005aec       ??_C@_1M@GACBMHKE@?$AAh?$AAu?$AA?9?$AAh?$AAu@ 10025aec     libucrt:lcidtoname_downlevel.obj
 0002:00005af8       ??_C@_1M@MILPAJJC@?$AAh?$AAy?$AA?9?$AAa?$AAm@ 10025af8     libucrt:lcidtoname_downlevel.obj
 0002:00005b04       ??_C@_1M@BABBICEC@?$AAi?$AAd?$AA?9?$AAi?$AAd@ 10025b04     libucrt:lcidtoname_downlevel.obj
 0002:00005b10       ??_C@_1M@BIKNHHPF@?$AAi?$AAs?$AA?9?$AAi?$AAs@ 10025b10     libucrt:lcidtoname_downlevel.obj
 0002:00005b1c       ??_C@_1M@NMPCJPHE@?$AAi?$AAt?$AA?9?$AAc?$AAh@ 10025b1c     libucrt:lcidtoname_downlevel.obj
 0002:00005b28       ??_C@_1M@GHKGFEDF@?$AAi?$AAt?$AA?9?$AAi?$AAt@ 10025b28     libucrt:lcidtoname_downlevel.obj
 0002:00005b34       ??_C@_1M@NIEJCJJA@?$AAj?$AAa?$AA?9?$AAj?$AAp@ 10025b34     libucrt:lcidtoname_downlevel.obj
 0002:00005b40       ??_C@_1M@JILFNBIM@?$AAk?$AAa?$AA?9?$AAg?$AAe@ 10025b40     libucrt:lcidtoname_downlevel.obj
 0002:00005b4c       ??_C@_1M@PACPMGPH@?$AAk?$AAk?$AA?9?$AAk?$AAz@ 10025b4c     libucrt:lcidtoname_downlevel.obj
 0002:00005b58       ??_C@_1M@IELFGMHA@?$AAk?$AAn?$AA?9?$AAi?$AAn@ 10025b58     libucrt:lcidtoname_downlevel.obj
 0002:00005b64       ??_C@_1O@IBBJHCH@?$AAk?$AAo?$AAk?$AA?9?$AAi?$AAn@ 10025b64     libucrt:lcidtoname_downlevel.obj
 0002:00005b74       ??_C@_1M@DMHAEOGC@?$AAk?$AAo?$AA?9?$AAk?$AAr@ 10025b74     libucrt:lcidtoname_downlevel.obj
 0002:00005b80       ??_C@_1M@HBAHBIGA@?$AAk?$AAy?$AA?9?$AAk?$AAg@ 10025b80     libucrt:lcidtoname_downlevel.obj
 0002:00005b8c       ??_C@_1M@KPMILCJG@?$AAl?$AAt?$AA?9?$AAl?$AAt@ 10025b8c     libucrt:lcidtoname_downlevel.obj
 0002:00005b98       ??_C@_1M@BDEKKCA@?$AAl?$AAv?$AA?9?$AAl?$AAv@ 10025b98     libucrt:lcidtoname_downlevel.obj
 0002:00005ba4       ??_C@_1M@ELCKCCJJ@?$AAm?$AAi?$AA?9?$AAn?$AAz@ 10025ba4     libucrt:lcidtoname_downlevel.obj
 0002:00005bb0       ??_C@_1M@CBOOLAPA@?$AAm?$AAk?$AA?9?$AAm?$AAk@ 10025bb0     libucrt:lcidtoname_downlevel.obj
 0002:00005bbc       ??_C@_1M@GPHNBJKN@?$AAm?$AAl?$AA?9?$AAi?$AAn@ 10025bbc     libucrt:lcidtoname_downlevel.obj
 0002:00005bc8       ??_C@_1M@PABJILIG@?$AAm?$AAn?$AA?9?$AAm?$AAn@ 10025bc8     libucrt:lcidtoname_downlevel.obj
 0002:00005bd4       ??_C@_1M@FGBKKIPG@?$AAm?$AAr?$AA?9?$AAi?$AAn@ 10025bd4     libucrt:lcidtoname_downlevel.obj
 0002:00005be0       ??_C@_1M@NDBPDDAL@?$AAm?$AAs?$AA?9?$AAb?$AAn@ 10025be0     libucrt:lcidtoname_downlevel.obj
 0002:00005bec       ??_C@_1M@OPIHOOPI@?$AAm?$AAs?$AA?9?$AAm?$AAy@ 10025bec     libucrt:lcidtoname_downlevel.obj
 0002:00005bf8       ??_C@_1M@PPDBCNFM@?$AAm?$AAt?$AA?9?$AAm?$AAt@ 10025bf8     libucrt:lcidtoname_downlevel.obj
 0002:00005c04       ??_C@_1M@KDJDKMDD@?$AAn?$AAb?$AA?9?$AAn?$AAo@ 10025c04     libucrt:lcidtoname_downlevel.obj
 0002:00005c10       ??_C@_1M@KFCFLMJP@?$AAn?$AAl?$AA?9?$AAb?$AAe@ 10025c10     libucrt:lcidtoname_downlevel.obj
 0002:00005c1c       ??_C@_1M@KPOPDDGO@?$AAn?$AAl?$AA?9?$AAn?$AAl@ 10025c1c     libucrt:lcidtoname_downlevel.obj
 0002:00005c28       ??_C@_1M@LJKPEMLN@?$AAn?$AAn?$AA?9?$AAn?$AAo@ 10025c28     libucrt:lcidtoname_downlevel.obj
 0002:00005c34       ??_C@_1M@BDGHHBFL@?$AAn?$AAs?$AA?9?$AAz?$AAa@ 10025c34     libucrt:lcidtoname_downlevel.obj
 0002:00005c40       ??_C@_1M@IDEHOAP@?$AAp?$AAa?$AA?9?$AAi?$AAn@ 10025c40     libucrt:lcidtoname_downlevel.obj
 0002:00005c4c       ??_C@_1M@HDBKGOGH@?$AAp?$AAl?$AA?9?$AAp?$AAl@ 10025c4c     libucrt:lcidtoname_downlevel.obj
 0002:00005c58       ??_C@_1M@LJLLCMEH@?$AAp?$AAt?$AA?9?$AAb?$AAr@ 10025c58     libucrt:lcidtoname_downlevel.obj
 0002:00005c64       ??_C@_1M@NCMONAAL@?$AAp?$AAt?$AA?9?$AAp?$AAt@ 10025c64     libucrt:lcidtoname_downlevel.obj
 0002:00005c70       ??_C@_1O@EAKMAJDN@?$AAq?$AAu?$AAz?$AA?9?$AAb?$AAo@ 10025c70     libucrt:lcidtoname_downlevel.obj
 0002:00005c80       ??_C@_1O@BHHPIGDN@?$AAq?$AAu?$AAz?$AA?9?$AAe?$AAc@ 10025c80     libucrt:lcidtoname_downlevel.obj
 0002:00005c90       ??_C@_1O@GBAPEKMJ@?$AAq?$AAu?$AAz?$AA?9?$AAp?$AAe@ 10025c90     libucrt:lcidtoname_downlevel.obj
 0002:00005ca0       ??_C@_1M@CLGLEFBO@?$AAr?$AAo?$AA?9?$AAr?$AAo@ 10025ca0     libucrt:lcidtoname_downlevel.obj
 0002:00005cac       ??_C@_1M@CEEDODME@?$AAr?$AAu?$AA?9?$AAr?$AAu@ 10025cac     libucrt:lcidtoname_downlevel.obj
 0002:00005cb8       ??_C@_1M@HPKKKMPP@?$AAs?$AAa?$AA?9?$AAi?$AAn@ 10025cb8     libucrt:lcidtoname_downlevel.obj
 0002:00005cc4       ??_C@_1M@BKMAIGOJ@?$AAs?$AAe?$AA?9?$AAf?$AAi@ 10025cc4     libucrt:lcidtoname_downlevel.obj
 0002:00005cd0       ??_C@_1M@NDPIFLFI@?$AAs?$AAe?$AA?9?$AAn?$AAo@ 10025cd0     libucrt:lcidtoname_downlevel.obj
 0002:00005cdc       ??_C@_1M@DANKKHJ@?$AAs?$AAe?$AA?9?$AAs?$AAe@ 10025cdc     libucrt:lcidtoname_downlevel.obj
 0002:00005ce8       ??_C@_1M@PNBLONPJ@?$AAs?$AAk?$AA?9?$AAs?$AAk@ 10025ce8     libucrt:lcidtoname_downlevel.obj
 0002:00005cf4       ??_C@_1M@LFMODOAL@?$AAs?$AAl?$AA?9?$AAs?$AAi@ 10025cf4     libucrt:lcidtoname_downlevel.obj
 0002:00005d00       ??_C@_1O@DFKOMPG@?$AAs?$AAm?$AAa?$AA?9?$AAn?$AAo@ 10025d00     libucrt:lcidtoname_downlevel.obj
 0002:00005d10       ??_C@_1O@NDKPBNNH@?$AAs?$AAm?$AAa?$AA?9?$AAs?$AAe@ 10025d10     libucrt:lcidtoname_downlevel.obj
 0002:00005d20       ??_C@_1O@PLLKBHAB@?$AAs?$AAm?$AAj?$AA?9?$AAn?$AAo@ 10025d20     libucrt:lcidtoname_downlevel.obj
 0002:00005d30       ??_C@_1O@CLEPOGCA@?$AAs?$AAm?$AAj?$AA?9?$AAs?$AAe@ 10025d30     libucrt:lcidtoname_downlevel.obj
 0002:00005d40       ??_C@_1O@DLGJGKMK@?$AAs?$AAm?$AAn?$AA?9?$AAf?$AAi@ 10025d40     libucrt:lcidtoname_downlevel.obj
 0002:00005d50       ??_C@_1O@OJDJGAJC@?$AAs?$AAm?$AAs?$AA?9?$AAf?$AAi@ 10025d50     libucrt:lcidtoname_downlevel.obj
 0002:00005d60       ??_C@_1M@BOFOGHPB@?$AAs?$AAq?$AA?9?$AAa?$AAl@ 10025d60     libucrt:lcidtoname_downlevel.obj
 0002:00005d6c       ??_C@_1BG@LJBBIPGB@?$AAs?$AAr?$AA?9?$AAb?$AAa?$AA?9?$AAc?$AAy?$AAr?$AAl@ 10025d6c     libucrt:lcidtoname_downlevel.obj
 0002:00005d84       ??_C@_1BG@JLBENFOE@?$AAs?$AAr?$AA?9?$AAb?$AAa?$AA?9?$AAl?$AAa?$AAt?$AAn@ 10025d84     libucrt:lcidtoname_downlevel.obj
 0002:00005d9c       ??_C@_1BG@KODPNHE@?$AAs?$AAr?$AA?9?$AAs?$AAp?$AA?9?$AAc?$AAy?$AAr?$AAl@ 10025d9c     libucrt:lcidtoname_downlevel.obj
 0002:00005db4       ??_C@_1BG@CIOGKHPB@?$AAs?$AAr?$AA?9?$AAs?$AAp?$AA?9?$AAl?$AAa?$AAt?$AAn@ 10025db4     libucrt:lcidtoname_downlevel.obj
 0002:00005dcc       ??_C@_1M@NGFJLMAC@?$AAs?$AAv?$AA?9?$AAf?$AAi@ 10025dcc     libucrt:lcidtoname_downlevel.obj
 0002:00005dd8       ??_C@_1M@MPJEJAJC@?$AAs?$AAv?$AA?9?$AAs?$AAe@ 10025dd8     libucrt:lcidtoname_downlevel.obj
 0002:00005de4       ??_C@_1M@MPNDHLFK@?$AAs?$AAw?$AA?9?$AAk?$AAe@ 10025de4     libucrt:lcidtoname_downlevel.obj
 0002:00005df0       ??_C@_1O@KOHBJJI@?$AAs?$AAy?$AAr?$AA?9?$AAs?$AAy@ 10025df0     libucrt:lcidtoname_downlevel.obj
 0002:00005e00       ??_C@_1M@LDCEFHA@?$AAt?$AAa?$AA?9?$AAi?$AAn@ 10025e00     libucrt:lcidtoname_downlevel.obj
 0002:00005e0c       ??_C@_1M@CNJOFAK@?$AAt?$AAe?$AA?9?$AAi?$AAn@ 10025e0c     libucrt:lcidtoname_downlevel.obj
 0002:00005e18       ??_C@_1M@GNAECACD@?$AAt?$AAh?$AA?9?$AAt?$AAh@ 10025e18     libucrt:lcidtoname_downlevel.obj
 0002:00005e24       ??_C@_1M@CHBIHOJO@?$AAt?$AAn?$AA?9?$AAz?$AAa@ 10025e24     libucrt:lcidtoname_downlevel.obj
 0002:00005e30       ??_C@_1M@GCCMIGPJ@?$AAt?$AAr?$AA?9?$AAt?$AAr@ 10025e30     libucrt:lcidtoname_downlevel.obj
 0002:00005e3c       ??_C@_1M@CELMCNBK@?$AAt?$AAt?$AA?9?$AAr?$AAu@ 10025e3c     libucrt:lcidtoname_downlevel.obj
 0002:00005e48       ??_C@_1M@KLMCELGA@?$AAu?$AAk?$AA?9?$AAu?$AAa@ 10025e48     libucrt:lcidtoname_downlevel.obj
 0002:00005e54       ??_C@_1M@EPAJJAJF@?$AAu?$AAr?$AA?9?$AAp?$AAk@ 10025e54     libucrt:lcidtoname_downlevel.obj
 0002:00005e60       ??_C@_1BG@GEGPMCDJ@?$AAu?$AAz?$AA?9?$AAu?$AAz?$AA?9?$AAc?$AAy?$AAr?$AAl@ 10025e60     libucrt:lcidtoname_downlevel.obj
 0002:00005e78       ??_C@_1BG@EGGKJILM@?$AAu?$AAz?$AA?9?$AAu?$AAz?$AA?9?$AAl?$AAa?$AAt?$AAn@ 10025e78     libucrt:lcidtoname_downlevel.obj
 0002:00005e90       ??_C@_1M@GFOCLFF@?$AAv?$AAi?$AA?9?$AAv?$AAn@ 10025e90     libucrt:lcidtoname_downlevel.obj
 0002:00005e9c       ??_C@_1M@CPAMEDFI@?$AAx?$AAh?$AA?9?$AAz?$AAa@ 10025e9c     libucrt:lcidtoname_downlevel.obj
 0002:00005ea8       ??_C@_1O@EBKIFIGN@?$AAz?$AAh?$AA?9?$AAc?$AAh?$AAs@ 10025ea8     libucrt:lcidtoname_downlevel.obj
 0002:00005eb8       ??_C@_1O@NMHPGANE@?$AAz?$AAh?$AA?9?$AAc?$AAh?$AAt@ 10025eb8     libucrt:lcidtoname_downlevel.obj
 0002:00005ec8       ??_C@_1M@LPINJOMC@?$AAz?$AAh?$AA?9?$AAc?$AAn@ 10025ec8     libucrt:lcidtoname_downlevel.obj
 0002:00005ed4       ??_C@_1M@OCJEJODD@?$AAz?$AAh?$AA?9?$AAh?$AAk@ 10025ed4     libucrt:lcidtoname_downlevel.obj
 0002:00005ee0       ??_C@_1M@DNDLJINH@?$AAz?$AAh?$AA?9?$AAm?$AAo@ 10025ee0     libucrt:lcidtoname_downlevel.obj
 0002:00005eec       ??_C@_1M@MBFDNDND@?$AAz?$AAh?$AA?9?$AAs?$AAg@ 10025eec     libucrt:lcidtoname_downlevel.obj
 0002:00005ef8       ??_C@_1M@IMEPLEPE@?$AAz?$AAh?$AA?9?$AAt?$AAw@ 10025ef8     libucrt:lcidtoname_downlevel.obj
 0002:00005f04       ??_C@_1M@BBGHNHJP@?$AAz?$AAu?$AA?9?$AAz?$AAa@ 10025f04     libucrt:lcidtoname_downlevel.obj
 0002:00005f10       ?large_power_data@?1??multiply_by_power_of_ten@__crt_strtox@@YA_NAAUbig_integer@2@I@Z@4QBIB 10025f10     libucrt:cfout.obj
 0002:00006818       ?large_power_indices@?1??multiply_by_power_of_ten@__crt_strtox@@YA_NAAUbig_integer@2@I@Z@4QBUunpack_index@?1??12@YA_N0I@Z@B 10026818     libucrt:cfout.obj
 0002:000068b0       ?small_powers_of_ten@?1??multiply_by_power_of_ten@__crt_strtox@@YA_NAAUbig_integer@2@I@Z@4QBIB 100268b0     libucrt:cfout.obj
 0002:000068d4       ??_C@_01GBGANLPD@0@        100268d4     libucrt:cfout.obj
 0002:000068d8       ??_C@_05DNEBIAHO@1?$CDINF@ 100268d8     libucrt:cfout.obj
 0002:000068e0       ??_C@_06IMKFLFPG@1?$CDQNAN@ 100268e0     libucrt:cfout.obj
 0002:000068e8       ??_C@_06PGGFOGJG@1?$CDSNAN@ 100268e8     libucrt:cfout.obj
 0002:000068f0       ??_C@_05PHHOCPM@1?$CDIND@  100268f0     libucrt:cfout.obj
 0002:00006a60       __infinity                 10026a60     libucrt:87tran.obj
 0002:00006a6a       __minfinity                10026a6a     libucrt:87tran.obj
 0002:00006a74       __logemax                  10026a74     libucrt:87tran.obj
 0002:00006a9a       __OP_EXPjmptab             10026a9a     libucrt:87tran.obj
 0002:00006ac0       __indefinite               10026ac0     libucrt:87disp.obj
 0002:00006aca       __piby2                    10026aca     libucrt:87disp.obj
 0002:00006ad4       __piby4                    10026ad4     libucrt:87disp.obj
 0002:00006b08       __DEFAULT_CW_in_mem        10026b08     libucrt:common.obj
 0002:00006b0a       __pi_by_2_to_61            10026b0a     libucrt:common.obj
 0002:00006b44       ??_C@_03MGHMBJCF@log@      10026b44     libucrt:libm_error.obj
 0002:00006b48       ??_C@_05HGHHAHAP@log10@    10026b48     libucrt:libm_error.obj
 0002:00006b50       ??_C@_03KHJOGHMM@exp@      10026b50     libucrt:libm_error.obj
 0002:00006b54       ??_C@_03JGHBODFD@pow@      10026b54     libucrt:libm_error.obj
 0002:00006b58       ??_C@_04FIHNOPOL@asin@     10026b58     libucrt:libm_error.obj
 0002:00006b60       ??_C@_04PDIFKINK@acos@     10026b60     libucrt:libm_error.obj
 0002:00006b68       ??_C@_04EIAKFFMI@sqrt@     10026b68     libucrt:libm_error.obj
 0002:00006b70       __real@3ff0000000000000    10026b70     libucrt:libm_error.obj
 0002:00006b78       ??_C@_1BA@BALFACEM@?$AAC?$AAO?$AAN?$AAO?$AAU?$AAT?$AA$@ 10026b78     libucrt:initcon.obj
 0002:00006ba0       ___acrt_log10_table_t      10026ba0     libucrt:log10_tables.obj
 0002:00006fb0       ___acrt_log10_table_cb     10026fb0     libucrt:log10_tables.obj
 0002:000073c0       __real@3fe0000000000000    100273c0     libucrt:powhlp.obj
 0002:000074b0       ??_C@_04COOMCNPB@sinh@     100274b0     libucrt:fpexcept.obj
 0002:000074b8       ??_C@_04HPJJNFIM@cosh@     100274b8     libucrt:fpexcept.obj
 0002:000074c0       ??_C@_04FJHINJAO@tanh@     100274c0     libucrt:fpexcept.obj
 0002:000074c8       ??_C@_04MLLJIGOK@atan@     100274c8     libucrt:fpexcept.obj
 0002:000074d0       ??_C@_05KNGEOGJB@atan2@    100274d0     libucrt:fpexcept.obj
 0002:000074d8       ??_C@_03BLEJJJBH@sin@      100274d8     libucrt:fpexcept.obj
 0002:000074dc       ??_C@_03LALBNOCG@cos@      100274dc     libucrt:fpexcept.obj
 0002:000074e0       ??_C@_03IIINPABG@tan@      100274e0     libucrt:fpexcept.obj
 0002:000074e4       ??_C@_04GFPJNGEK@ceil@     100274e4     libucrt:fpexcept.obj
 0002:000074ec       ??_C@_05PBJFFIGL@floor@    100274ec     libucrt:fpexcept.obj
 0002:000074f4       ??_C@_04ODHECPBC@fabs@     100274f4     libucrt:fpexcept.obj
 0002:000074fc       ??_C@_04EHEDPDJG@modf@     100274fc     libucrt:fpexcept.obj
 0002:00007504       ??_C@_05CEJMAHNP@ldexp@    10027504     libucrt:fpexcept.obj
 0002:0000750c       ??_C@_05KBKMEMPO@_cabs@    1002750c     libucrt:fpexcept.obj
 0002:00007514       ??_C@_06MEIMCGCF@_hypot@   10027514     libucrt:fpexcept.obj
 0002:0000751c       ??_C@_04KEPJIHGP@fmod@     1002751c     libucrt:fpexcept.obj
 0002:00007524       ??_C@_05GKKHEGJL@frexp@    10027524     libucrt:fpexcept.obj
 0002:0000752c       ??_C@_03MJLDFKDL@_y0@      1002752c     libucrt:fpexcept.obj
 0002:00007530       ??_C@_03NAKIGLHK@_y1@      10027530     libucrt:fpexcept.obj
 0002:00007534       ??_C@_03ONILCKOB@_yn@      10027534     libucrt:fpexcept.obj
 0002:00007538       ??_C@_05JGDBENOH@_logb@    10027538     libucrt:fpexcept.obj
 0002:00007540       ??_C@_0L@KDOEJCKC@_nextafter@ 10027540     libucrt:fpexcept.obj
 0002:00007550       __d_inf                    10027550     libucrt:util.obj
 0002:00007558       __d_max                    10027558     libucrt:util.obj
 0002:00007560       __d_mzero                  10027560     libucrt:util.obj
 0002:000075d0       __load_config_used         100275d0     LIBCMT:loadcfg.obj
 0002:000076c0       __tls_used                 100276c0     LIBCMT:tlssup.obj
 0002:000076d8       ??_R4exception@std@@6B@    100276d8     LIBCMT:throw_bad_alloc.obj
 0002:000076ec       ??_R3exception@std@@8      100276ec     LIBCMT:throw_bad_alloc.obj
 0002:000076fc       ??_R2exception@std@@8      100276fc     LIBCMT:throw_bad_alloc.obj
 0002:00007704       ??_R1A@?0A@EA@exception@std@@8 10027704     LIBCMT:throw_bad_alloc.obj
 0002:00007720       ??_R4bad_alloc@std@@6B@    10027720     LIBCMT:throw_bad_alloc.obj
 0002:00007734       ??_R3bad_alloc@std@@8      10027734     LIBCMT:throw_bad_alloc.obj
 0002:00007744       ??_R2bad_alloc@std@@8      10027744     LIBCMT:throw_bad_alloc.obj
 0002:00007750       ??_R1A@?0A@EA@bad_alloc@std@@8 10027750     LIBCMT:throw_bad_alloc.obj
 0002:0000776c       ??_R4bad_array_new_length@std@@6B@ 1002776c     LIBCMT:throw_bad_alloc.obj
 0002:00007780       ??_R3bad_array_new_length@std@@8 10027780     LIBCMT:throw_bad_alloc.obj
 0002:00007790       ??_R2bad_array_new_length@std@@8 10027790     LIBCMT:throw_bad_alloc.obj
 0002:000077a0       ??_R1A@?0A@EA@bad_array_new_length@std@@8 100277a0     LIBCMT:throw_bad_alloc.obj
 0002:000077bc       ??_R4type_info@@6B@        100277bc     LIBCMT:std_type_info_static.obj
 0002:000077d0       ??_R3type_info@@8          100277d0     LIBCMT:std_type_info_static.obj
 0002:000077e0       ??_R2type_info@@8          100277e0     LIBCMT:std_type_info_static.obj
 0002:000077e8       ??_R1A@?0A@EA@type_info@@8 100277e8     LIBCMT:std_type_info_static.obj
 0002:00007804       ??_R4bad_exception@std@@6B@ 10027804     libvcruntime:frame.obj
 0002:00007818       ??_R3bad_exception@std@@8  10027818     libvcruntime:frame.obj
 0002:00007828       ??_R2bad_exception@std@@8  10027828     libvcruntime:frame.obj
 0002:00007834       ??_R1A@?0A@EA@bad_exception@std@@8 10027834     libvcruntime:frame.obj
 0002:00007850       ___safe_se_handler_table   10027850     <linker-defined>
 0002:00007c50       ___rtc_iaa                 10027c50     LIBCMT:initsect.obj
 0002:00007c54       ___rtc_izz                 10027c54     LIBCMT:initsect.obj
 0002:00007c58       ___rtc_taa                 10027c58     LIBCMT:initsect.obj
 0002:00007c5c       ___rtc_tzz                 10027c5c     LIBCMT:initsect.obj
 0002:00007c60       __tls_start                10027c60     LIBCMT:tlssup.obj
 0002:00007c64       __Init_thread_epoch        10027c64     LIBCMT:thread_safe_statics.obj
 0002:00007c68       __tls_end                  10027c68     LIBCMT:tlssup.obj
 0002:00007d6c       __TI2?AVbad_alloc@std@@    10027d6c     LIBCMT:throw_bad_alloc.obj
 0002:00007d7c       __CTA2?AVbad_alloc@std@@   10027d7c     LIBCMT:throw_bad_alloc.obj
 0002:00007d88       __CT??_R0?AVbad_alloc@std@@@8??0bad_alloc@std@@QAE@ABV01@@Z12 10027d88     LIBCMT:throw_bad_alloc.obj
 0002:00007da4       __CT??_R0?AVexception@std@@@8??0exception@std@@QAE@ABV01@@Z12 10027da4     LIBCMT:throw_bad_alloc.obj
 0002:00007dc0       __TI3?AVbad_array_new_length@std@@ 10027dc0     LIBCMT:throw_bad_alloc.obj
 0002:00007dd0       __CTA3?AVbad_array_new_length@std@@ 10027dd0     LIBCMT:throw_bad_alloc.obj
 0002:00007de0       __CT??_R0?AVbad_array_new_length@std@@@8??0bad_array_new_length@std@@QAE@ABV01@@Z12 10027de0     LIBCMT:throw_bad_alloc.obj
 0002:00007f04       __TI2?AVbad_exception@std@@ 10027f04     libvcruntime:frame.obj
 0002:00007f14       __CTA2?AVbad_exception@std@@ 10027f14     libvcruntime:frame.obj
 0002:00007f20       __CT??_R0?AVbad_exception@std@@@8??0bad_exception@std@@QAE@ABV01@@Z12 10027f20     libvcruntime:frame.obj
 0002:0000829c       ___pobjMapEntryFirst       1002829c     OposVariant.obj
 0002:000082a0       ___pobjMapEntryLast        100282a0     OposVariant.obj
 0002:00008360       __IMPORT_DESCRIPTOR_KERNEL32 10028360     kernel32:KERNEL32.dll
 0002:00008374       __IMPORT_DESCRIPTOR_USER32 10028374     user32:USER32.dll
 0002:00008388       __IMPORT_DESCRIPTOR_GDI32  10028388     gdi32:GDI32.dll
 0002:0000839c       __IMPORT_DESCRIPTOR_ADVAPI32 1002839c     advapi32:ADVAPI32.dll
 0002:000083b0       __IMPORT_DESCRIPTOR_ole32  100283b0     ole32:ole32.dll
 0002:000083c4       __IMPORT_DESCRIPTOR_OLEAUT32 100283c4     oleaut32:OLEAUT32.dll
 0002:000083d8       __NULL_IMPORT_DESCRIPTOR   100283d8     kernel32:KERNEL32.dll
 0003:00000000       ?s_Claim@?7??GetIDsOfNames@CComTypeInfoHolder@ATL@@QAEJABU_GUID@@PAPA_WIKPAJ@Z@4PA_WA 1002a000     GraphicDisplay.obj
 0003:00000018       ?s_Release@?7??GetIDsOfNames@CComTypeInfoHolder@ATL@@QAEJABU_GUID@@PAPA_WIKPAJ@Z@4PA_WA 1002a018     GraphicDisplay.obj
 0003:00000034       ?_tih@?$IDispatchImpl@UIOPOSGraphicDisplay@@$1?IID_IOPOSGraphicDisplay@@3U_GUID@@B$1?LIBID_OposGraphicDisplay_CCO@@3U3@B$00$0A@VCComTypeInfoHolder@ATL@@@ATL@@1VCComTypeInfoHolder@2@A 1002a034     GraphicDisplay.obj
 0003:00000050       ?_tih@?$IProvideClassInfo2Impl@$1?CLSID_OPOSGraphicDisplay@@3U_GUID@@B$1?DIID__IOPOSGraphicDisplayEvents@@3U2@B$1?LIBID_OposGraphicDisplay_CCO@@3U2@B$00$0A@VCComTypeInfoHolder@ATL@@@ATL@@1VCComTypeInfoHolder@2@A 1002a050     GraphicDisplay.obj
 0003:0000006c       ?vszContents@?6??Save@?$IPersistStorageImpl@VCOPOSGraphicDisplay@@@ATL@@UAGJPAUIStorage@@H@Z@4PB_WB 1002a06c     GraphicDisplay.obj
 0003:00000070       ?wc@?1??GetWndClassInfo@?$CWindowImpl@VCOPOSGraphicDisplay@@VCWindow@ATL@@V?$CWinTraits@$0FGAAAAAA@$0A@@3@@ATL@@SAAAU_ATL_WNDCLASSINFOW@3@XZ@4U43@A 1002a070     GraphicDisplay.obj
 0003:000000fc       ?rcDefault@CWindow@ATL@@2UtagRECT@@A 1002a0fc     GraphicDisplay.obj
 0003:00000158       ?g_WindowName@@3PA_WA      1002a158     GraphicDisplayImpl.obj
 0003:00000184       ?g_ControlDescription@@3PADA 1002a184     GraphicDisplayImpl.obj
 0003:000001bc       ?g_ControlVersion@@3JA     1002a1bc     GraphicDisplayImpl.obj
 0003:0000022c       ___scrt_native_dllmain_reason 1002a22c     LIBCMT:utility.obj
 0003:00000230       __Init_global_epoch        1002a230     LIBCMT:thread_safe_statics.obj
 0003:00000240       ___security_cookie_complement 1002a240     LIBCMT:gs_cookie.obj
 0003:00000244       ___security_cookie         1002a244     LIBCMT:gs_cookie.obj
 0003:00000248       ___isa_enabled             1002a248     LIBCMT:cpu_disp.obj
 0003:00000260       __NLG_Destination          1002a260     libvcruntime:exsup.obj
 0003:00000278       ___abort_behavior          1002a278     libucrt:abort.obj
 0003:00000288       __iob                      1002a288     libucrt:_file.obj
 0003:00000330       ___acrt_initial_locale_data 1002a330     libucrt:nlsdata.obj
 0003:000003e8       ___acrt_initial_locale_pointers 1002a3e8     libucrt:nlsdata.obj
 0003:000003f0       ___acrt_wide_c_locale_string 1002a3f0     libucrt:nlsdata.obj
 0003:000003f8       ___acrt_initial_multibyte_data 1002a3f8     libucrt:mbctype.obj
 0003:00000918       __pwctype                  1002a918     libucrt:ctype.obj
 0003:0000091c       ___globallocalestatus      1002a91c     libucrt:glstatus.obj
 0003:00000920       ___acrt_lconv_c            1002a920     libucrt:localeconv.obj
 0003:00000970       ___acrt_lconv_static_decimal 1002a970     libucrt:localeconv.obj
 0003:00000974       ___acrt_lconv_static_W_decimal 1002a974     libucrt:localeconv.obj
 0003:00000980       __lookuptrailbytes         1002a980     libucrt:read.obj
 0003:00000a90       __fltused                  1002aa90     LIBCMT:fltused.obj
 0003:00000aa0       ??_R0?AVbad_alloc@std@@@8  1002aaa0     LIBCMT:throw_bad_alloc.obj
 0003:00000abc       ??_R0?AVexception@std@@@8  1002aabc     LIBCMT:throw_bad_alloc.obj
 0003:00000ad8       ??_R0?AVbad_array_new_length@std@@@8 1002aad8     LIBCMT:throw_bad_alloc.obj
 0003:00000b00       ??_R0?AVtype_info@@@8      1002ab00     LIBCMT:std_type_info_static.obj
 0003:00000b18       ??_R0?AVbad_exception@std@@@8 1002ab18     libvcruntime:frame.obj
 0003:00000b38       ?m_bInitFailed@CAtlBaseModule@ATL@@2_NA 1002ab38     OposVariant.obj
 0003:00000b3c       ?_pPerfRegFunc@ATL@@3P6AJPAUHINSTANCE__@@@ZA 1002ab3c     OposVariant.obj
 0003:00000b40       ?_pPerfUnRegFunc@ATL@@3P6AJXZA 1002ab40     OposVariant.obj
 0003:00000b44       ?_AtlRegisterPerUser@ATL@@3_NA 1002ab44     OposVariant.obj
 0003:00000b48       ?_pAtlModule@ATL@@3PAVCAtlModule@1@A 1002ab48     OposVariant.obj
 0003:00000b4c       ?_pModule@ATL@@3PAVCComModule@1@A 1002ab4c     OposVariant.obj
 0003:00000b50       ?_AtlComModule@ATL@@3VCAtlComModule@1@A 1002ab50     OposVariant.obj
 0003:00000b78       ?_AtlWinModule@ATL@@3VCAtlWinModule@1@A 1002ab78     OposVariant.obj
 0003:00000ba4       ?m_libid@CAtlModule@ATL@@2U_GUID@@A 1002aba4     GraphicDisplay.obj
 0003:00000bb4       ?_entries@?1??GetConnMap@COPOSGraphicDisplay@@SAPBU_ATL_CONNMAP_ENTRY@ATL@@PAH@Z@4QBU34@B 1002abb4     GraphicDisplay.obj
 0003:00000bc0       ?$TSS0@?1??GetConnMap@COPOSGraphicDisplay@@SAPBU_ATL_CONNMAP_ENTRY@ATL@@PAH@Z@4HA 1002abc0     GraphicDisplay.obj
 0003:00000bc8       ?_OptionsStorage@?1??__local_stdio_printf_options@@9@4_KA 1002abc8     GraphicDisplay.obj
 0003:00000bd0       ?pfnRegDeleteKeyEx@?1??DeleteSubKey@CRegKey@ATL@@QAEJPB_W@Z@4P6GJPAUHKEY__@@0KK@ZA 1002abd0     GraphicDisplay.obj
 0003:00000bd4       ?bInitialized@?1??DeleteSubKey@CRegKey@ATL@@QAEJPB_W@Z@4_NA 1002abd4     GraphicDisplay.obj
 0003:00000bd8       ?_Module@@3VCComModule@ATL@@A 1002abd8     GraphicDisplay.obj
 0003:00000c08       ?pConnMap@?$IConnectionPointContainerImpl@VCOPOSGraphicDisplay@@@ATL@@0PBU_ATL_CONNMAP_ENTRY@2@B 1002ac08     GraphicDisplay.obj
 0003:00000c0c       ?s_nInstances@COPOSGraphicDisplay@@1HA 1002ac0c     GraphicDisplayImpl.obj
 0003:00000c10       ___scrt_current_native_startup_state 1002ac10     LIBCMT:utility.obj
 0003:00000c14       ___scrt_native_startup_lock 1002ac14     LIBCMT:utility.obj
 0003:00000f7c       __tls_index                1002af7c     LIBCMT:tlssup.obj
 0003:00000f84       ___isa_available           1002af84     LIBCMT:cpu_disp.obj
 0003:00000f88       ___favor                   1002af88     LIBCMT:cpu_disp.obj
 0003:00000f8c       ___scrt_debugger_hook_flag 1002af8c     LIBCMT:utility_desktop.obj
 0003:00000f90       ___castguard_check_failure_os_handled_fptr 1002af90     LIBCMT:guard_support.obj
 0003:00000f98       ?__type_info_root_node@@3U__type_info_node@@A 1002af98     LIBCMT:tncleanup.obj
 0003:00000fa0       ?_OptionsStorage@?1??__local_stdio_scanf_options@@9@4_KA 1002afa0     LIBCMT:default_local_stdio_options.obj
 0003:00000fa8       ?_AtlBaseModule@ATL@@3VCAtlBaseModule@1@A 1002afa8     atls:atlbase.obj
 0003:00000fe0       ?__AtlThunkPool@@3PAT_SLIST_HEADER@@A 1002afe0     atls:atlthunk.obj
 0003:00000ff8       ___@@_PchSym_@00@UztvmgUPdlipUFHUhUrmgvinvwrzgvUexgllohUzgohOmzgrevkilqPBACIAJCBDBUlyqiUcIGUhgwzucOlyq@4B2008FD98C1DD4 1002aff8     atls:stdafx.obj
 0003:00000ffc       ?__WinRTOutOfMemoryExceptionCallback@@3P6GPAXXZA 1002affc     libvcruntime:ehhelpers.obj
 0003:00001000       ___pPurecall               1002b000     libvcruntime:purevirt_data.obj
 0003:00001048       ?pArgList@UnDecorator@@0PAVReplicator@@A 1002b048     libvcruntime:undname.obj
 0003:0000104c       ?pZNameList@UnDecorator@@0PAVReplicator@@A 1002b04c     libvcruntime:undname.obj
 0003:00001050       ?pTemplateArgList@UnDecorator@@0PAVReplicator@@A 1002b050     libvcruntime:undname.obj
 0003:00001054       ?gName@UnDecorator@@0PBDB  1002b054     libvcruntime:undname.obj
 0003:00001058       ?name@UnDecorator@@0PBDB   1002b058     libvcruntime:undname.obj
 0003:0000105c       ?disableFlags@UnDecorator@@0KA 1002b05c     libvcruntime:undname.obj
 0003:00001060       ?fExplicitTemplateParams@UnDecorator@@0_NA 1002b060     libvcruntime:undname.obj
 0003:00001061       ?fGetTemplateArgumentList@UnDecorator@@0_NA 1002b061     libvcruntime:undname.obj
 0003:00001064       ?m_pGetParameter@UnDecorator@@0P6APADJ@ZA 1002b064     libvcruntime:undname.obj
 0003:00001068       ?m_CHPENameOffset@UnDecorator@@0KA 1002b068     libvcruntime:undname.obj
 0003:0000106c       ?m_recursionLevel@UnDecorator@@0KA 1002b06c     libvcruntime:undname.obj
 0003:000010b0       ?c_exit_complete@?1???R<lambda_6e4b09c48022b2350581041d5f6b0c4c>@@QBE@XZ@4_NA 1002b0b0     libucrt:exit.obj
 0003:000011c0       __environ_table            1002b1c0     libucrt:environment_initialization.obj
 0003:000011c4       __wenviron_table           1002b1c4     libucrt:environment_initialization.obj
 0003:000011c8       ___dcrt_initial_wide_environment 1002b1c8     libucrt:environment_initialization.obj
 0003:000011cc       ___dcrt_initial_narrow_environment 1002b1cc     libucrt:environment_initialization.obj
 0003:000011d0       ___acrt_atexit_table       1002b1d0     libucrt:onexit.obj
 0003:000011dc       ___acrt_at_quick_exit_table 1002b1dc     libucrt:onexit.obj
 0003:000012d0       __nstream                  1002b2d0     libucrt:_file.obj
 0003:000012d4       ___piob                    1002b2d4     libucrt:_file.obj
 0003:000012dc       ___acrt_stdout_buffer      1002b2dc     libucrt:_sftbuf.obj
 0003:000012e0       ___acrt_stderr_buffer      1002b2e0     libucrt:_sftbuf.obj
 0003:000012e4       ___acrt_locale_changed_data 1002b2e4     libucrt:wsetlocale.obj
 0003:000012e8       ___acrt_current_locale_data 1002b2e8     libucrt:nlsdata.obj
 0003:000012f0       ___pioinfo                 1002b2f0     libucrt:ioinit.obj
 0003:000014f0       __nhandle                  1002b4f0     libucrt:ioinit.obj
 0003:0000164c       __mbctype                  1002b64c     libucrt:mbctype.obj
 0003:00001650       __mbcasemap                1002b650     libucrt:mbctype.obj
 0003:00001654       ___acrt_current_multibyte_data 1002b654     libucrt:mbctype.obj
 0003:00001660       __pgmptr                   1002b660     libucrt:argv_data.obj
 0003:00001664       ___argc                    1002b664     libucrt:argv_data.obj
 0003:00001668       ___argv                    1002b668     libucrt:argv_data.obj
 0003:0000166c       ___wargv                   1002b66c     libucrt:argv_data.obj
 0003:00001670       __acmdln                   1002b670     libucrt:argv_data.obj
 0003:00001674       __wcmdln                   1002b674     libucrt:argv_data.obj
 0003:00001678       ___acrt_heap               1002b678     libucrt:heap_handle.obj
 0003:00001694       ___acrt_lconv_static_null  1002b694     libucrt:localeconv.obj
 0003:00001698       ___acrt_lconv_static_W_null 1002b698     libucrt:localeconv.obj
 0003:000016a8       ___fastflag                1002b6a8     libucrt:fp_flags.obj
 0003:000016b0       ___dyn_tls_init_callback   1002b6b0     <common>
 0003:000016b4       ___scrt_ucrt_dll_is_in_use 1002b6b4     <common>
 0003:000016b8       __pmatherr                 1002b6b8     <common>
 0003:000016bc       ___use_sse2_mathfcns       1002b6bc     <common>

 entry point at        0001:0000c02d

 Static symbols

 0000:fffcd000       .debug$S                   10000000     OPOSGraphicDisplay.exp
 0000:fffcd000       .debug$S                   10000000     advapi32:ADVAPI32.dll
 0000:fffcd000       .debug$S                   10000000     advapi32:ADVAPI32.dll
 0000:fffcd000       .debug$S                   10000000     advapi32:ADVAPI32.dll
 0000:fffcd000       .debug$S                   10000000     advapi32:ADVAPI32.dll
 0000:fffcd000       .debug$S                   10000000     advapi32:ADVAPI32.dll
 0000:fffcd000       .debug$S                   10000000     advapi32:ADVAPI32.dll
 0000:fffcd000       .debug$S                   10000000     advapi32:ADVAPI32.dll
 0000:fffcd000       .debug$S                   10000000     advapi32:ADVAPI32.dll
 0000:fffcd000       .debug$S                   10000000     advapi32:ADVAPI32.dll
 0000:fffcd000       .debug$S                   10000000     gdi32:GDI32.dll
 0000:fffcd000       .debug$S                   10000000     gdi32:GDI32.dll
 0000:fffcd000       .debug$S                   10000000     gdi32:GDI32.dll
 0000:fffcd000       .debug$S                   10000000     gdi32:GDI32.dll
 0000:fffcd000       .debug$S                   10000000     gdi32:GDI32.dll
 0000:fffcd000       .debug$S                   10000000     gdi32:GDI32.dll
 0000:fffcd000       .debug$S                   10000000     gdi32:GDI32.dll
 0000:fffcd000       .debug$S                   10000000     gdi32:GDI32.dll
 0000:fffcd000       .debug$S                   10000000     gdi32:GDI32.dll
 0000:fffcd000       .debug$S                   10000000     gdi32:GDI32.dll
 0000:fffcd000       .debug$S                   10000000     gdi32:GDI32.dll
 0000:fffcd000       .debug$S                   10000000     gdi32:GDI32.dll
 0000:fffcd000       .debug$S                   10000000     gdi32:GDI32.dll
 0000:fffcd000       .debug$S                   10000000     gdi32:GDI32.dll
 0000:fffcd000       .debug$S                   10000000     gdi32:GDI32.dll
 0000:fffcd000       .debug$S                   10000000     gdi32:GDI32.dll
 0000:fffcd000       .debug$S                   10000000     gdi32:GDI32.dll
 0000:fffcd000       .debug$S                   10000000     gdi32:GDI32.dll
 0000:fffcd000       .debug$S                   10000000     gdi32:GDI32.dll
 0000:fffcd000       .debug$S                   10000000     kernel32:KERNEL32.dll
 0000:fffcd000       .debug$S                   10000000     kernel32:KERNEL32.dll
 0000:fffcd000       .debug$S                   10000000     kernel32:KERNEL32.dll
 0000:fffcd000       .debug$S                   10000000     kernel32:KERNEL32.dll
 0000:fffcd000       .debug$S                   10000000     kernel32:KERNEL32.dll
 0000:fffcd000       .debug$S                   10000000     kernel32:KERNEL32.dll
 0000:fffcd000       .debug$S                   10000000     kernel32:KERNEL32.dll
 0000:fffcd000       .debug$S                   10000000     kernel32:KERNEL32.dll
 0000:fffcd000       .debug$S                   10000000     kernel32:KERNEL32.dll
 0000:fffcd000       .debug$S                   10000000     kernel32:KERNEL32.dll
 0000:fffcd000       .debug$S                   10000000     kernel32:KERNEL32.dll
 0000:fffcd000       .debug$S                   10000000     kernel32:KERNEL32.dll
 0000:fffcd000       .debug$S                   10000000     kernel32:KERNEL32.dll
 0000:fffcd000       .debug$S                   10000000     kernel32:KERNEL32.dll
 0000:fffcd000       .debug$S                   10000000     kernel32:KERNEL32.dll
 0000:fffcd000       .debug$S                   10000000     kernel32:KERNEL32.dll
 0000:fffcd000       .debug$S                   10000000     kernel32:KERNEL32.dll
 0000:fffcd000       .debug$S                   10000000     kernel32:KERNEL32.dll
 0000:fffcd000       .debug$S                   10000000     kernel32:KERNEL32.dll
 0000:fffcd000       .debug$S                   10000000     kernel32:KERNEL32.dll
 0000:fffcd000       .debug$S                   10000000     kernel32:KERNEL32.dll
 0000:fffcd000       .debug$S                   10000000     kernel32:KERNEL32.dll
 0000:fffcd000       .debug$S                   10000000     kernel32:KERNEL32.dll
 0000:fffcd000       .debug$S                   10000000     kernel32:KERNEL32.dll
 0000:fffcd000       .debug$S                   10000000     kernel32:KERNEL32.dll
 0000:fffcd000       .debug$S                   10000000     kernel32:KERNEL32.dll
 0000:fffcd000       .debug$S                   10000000     kernel32:KERNEL32.dll
 0000:fffcd000       .debug$S                   10000000     kernel32:KERNEL32.dll
 0000:fffcd000       .debug$S                   10000000     kernel32:KERNEL32.dll
 0000:fffcd000       .debug$S                   10000000     kernel32:KERNEL32.dll
 0000:fffcd000       .debug$S                   10000000     kernel32:KERNEL32.dll
 0000:fffcd000       .debug$S                   10000000     kernel32:KERNEL32.dll
 0000:fffcd000       .debug$S                   10000000     kernel32:KERNEL32.dll
 0000:fffcd000       .debug$S                   10000000     kernel32:KERNEL32.dll
 0000:fffcd000       .debug$S                   10000000     kernel32:KERNEL32.dll
 0000:fffcd000       .debug$S                   10000000     kernel32:KERNEL32.dll
 0000:fffcd000       .debug$S                   10000000     kernel32:KERNEL32.dll
 0000:fffcd000       .debug$S                   10000000     kernel32:KERNEL32.dll
 0000:fffcd000       .debug$S                   10000000     kernel32:KERNEL32.dll
 0000:fffcd000       .debug$S                   10000000     kernel32:KERNEL32.dll
 0000:fffcd000       .debug$S                   10000000     kernel32:KERNEL32.dll
 0000:fffcd000       .debug$S                   10000000     kernel32:KERNEL32.dll
 0000:fffcd000       .debug$S                   10000000     kernel32:KERNEL32.dll
 0000:fffcd000       .debug$S                   10000000     kernel32:KERNEL32.dll
 0000:fffcd000       .debug$S                   10000000     kernel32:KERNEL32.dll
 0000:fffcd000       .debug$S                   10000000     kernel32:KERNEL32.dll
 0000:fffcd000       .debug$S                   10000000     kernel32:KERNEL32.dll
 0000:fffcd000       .debug$S                   10000000     kernel32:KERNEL32.dll
 0000:fffcd000       .debug$S                   10000000     kernel32:KERNEL32.dll
 0000:fffcd000       .debug$S                   10000000     kernel32:KERNEL32.dll
 0000:fffcd000       .debug$S                   10000000     kernel32:KERNEL32.dll
 0000:fffcd000       .debug$S                   10000000     kernel32:KERNEL32.dll
 0000:fffcd000       .debug$S                   10000000     kernel32:KERNEL32.dll
 0000:fffcd000       .debug$S                   10000000     kernel32:KERNEL32.dll
 0000:fffcd000       .debug$S                   10000000     kernel32:KERNEL32.dll
 0000:fffcd000       .debug$S                   10000000     kernel32:KERNEL32.dll
 0000:fffcd000       .debug$S                   10000000     kernel32:KERNEL32.dll
 0000:fffcd000       .debug$S                   10000000     kernel32:KERNEL32.dll
 0000:fffcd000       .debug$S                   10000000     kernel32:KERNEL32.dll
 0000:fffcd000       .debug$S                   10000000     kernel32:KERNEL32.dll
 0000:fffcd000       .debug$S                   10000000     kernel32:KERNEL32.dll
 0000:fffcd000       .debug$S                   10000000     kernel32:KERNEL32.dll
 0000:fffcd000       .debug$S                   10000000     kernel32:KERNEL32.dll
 0000:fffcd000       .debug$S                   10000000     kernel32:KERNEL32.dll
 0000:fffcd000       .debug$S                   10000000     kernel32:KERNEL32.dll
 0000:fffcd000       .debug$S                   10000000     kernel32:KERNEL32.dll
 0000:fffcd000       .debug$S                   10000000     kernel32:KERNEL32.dll
 0000:fffcd000       .debug$S                   10000000     kernel32:KERNEL32.dll
 0000:fffcd000       .debug$S                   10000000     kernel32:KERNEL32.dll
 0000:fffcd000       .debug$S                   10000000     kernel32:KERNEL32.dll
 0000:fffcd000       .debug$S                   10000000     kernel32:KERNEL32.dll
 0000:fffcd000       .debug$S                   10000000     kernel32:KERNEL32.dll
 0000:fffcd000       .debug$S                   10000000     kernel32:KERNEL32.dll
 0000:fffcd000       .debug$S                   10000000     kernel32:KERNEL32.dll
 0000:fffcd000       .debug$S                   10000000     kernel32:KERNEL32.dll
 0000:fffcd000       .debug$S                   10000000     kernel32:KERNEL32.dll
 0000:fffcd000       .debug$S                   10000000     kernel32:KERNEL32.dll
 0000:fffcd000       .debug$S                   10000000     kernel32:KERNEL32.dll
 0000:fffcd000       .debug$S                   10000000     kernel32:KERNEL32.dll
 0000:fffcd000       .debug$S                   10000000     kernel32:KERNEL32.dll
 0000:fffcd000       .debug$S                   10000000     kernel32:KERNEL32.dll
 0000:fffcd000       .debug$S                   10000000     kernel32:KERNEL32.dll
 0000:fffcd000       .debug$S                   10000000     kernel32:KERNEL32.dll
 0000:fffcd000       .debug$S                   10000000     kernel32:KERNEL32.dll
 0000:fffcd000       .debug$S                   10000000     kernel32:KERNEL32.dll
 0000:fffcd000       .debug$S                   10000000     kernel32:KERNEL32.dll
 0000:fffcd000       .debug$S                   10000000     kernel32:KERNEL32.dll
 0000:fffcd000       .debug$S                   10000000     kernel32:KERNEL32.dll
 0000:fffcd000       .debug$S                   10000000     kernel32:KERNEL32.dll
 0000:fffcd000       .debug$S                   10000000     kernel32:KERNEL32.dll
 0000:fffcd000       .debug$S                   10000000     kernel32:KERNEL32.dll
 0000:fffcd000       .debug$S                   10000000     kernel32:KERNEL32.dll
 0000:fffcd000       .debug$S                   10000000     kernel32:KERNEL32.dll
 0000:fffcd000       .debug$S                   10000000     kernel32:KERNEL32.dll
 0000:fffcd000       .debug$S                   10000000     kernel32:KERNEL32.dll
 0000:fffcd000       .debug$S                   10000000     kernel32:KERNEL32.dll
 0000:fffcd000       .debug$S                   10000000     kernel32:KERNEL32.dll
 0000:fffcd000       .debug$S                   10000000     kernel32:KERNEL32.dll
 0000:fffcd000       .debug$S                   10000000     kernel32:KERNEL32.dll
 0000:fffcd000       .debug$S                   10000000     kernel32:KERNEL32.dll
 0000:fffcd000       .debug$S                   10000000     kernel32:KERNEL32.dll
 0000:fffcd000       .debug$S                   10000000     kernel32:KERNEL32.dll
 0000:fffcd000       .debug$S                   10000000     kernel32:KERNEL32.dll
 0000:fffcd000       .debug$S                   10000000     kernel32:KERNEL32.dll
 0000:fffcd000       .debug$S                   10000000     kernel32:KERNEL32.dll
 0000:fffcd000       .debug$S                   10000000     kernel32:KERNEL32.dll
 0000:fffcd000       .debug$S                   10000000     ole32:ole32.dll
 0000:fffcd000       .debug$S                   10000000     ole32:ole32.dll
 0000:fffcd000       .debug$S                   10000000     ole32:ole32.dll
 0000:fffcd000       .debug$S                   10000000     ole32:ole32.dll
 0000:fffcd000       .debug$S                   10000000     ole32:ole32.dll
 0000:fffcd000       .debug$S                   10000000     ole32:ole32.dll
 0000:fffcd000       .debug$S                   10000000     ole32:ole32.dll
 0000:fffcd000       .debug$S                   10000000     ole32:ole32.dll
 0000:fffcd000       .debug$S                   10000000     ole32:ole32.dll
 0000:fffcd000       .debug$S                   10000000     ole32:ole32.dll
 0000:fffcd000       .debug$S                   10000000     ole32:ole32.dll
 0000:fffcd000       .debug$S                   10000000     ole32:ole32.dll
 0000:fffcd000       .debug$S                   10000000     ole32:ole32.dll
 0000:fffcd000       .debug$S                   10000000     ole32:ole32.dll
 0000:fffcd000       .debug$S                   10000000     oleaut32:OLEAUT32.dll
 0000:fffcd000       .debug$S                   10000000     oleaut32:OLEAUT32.dll
 0000:fffcd000       .debug$S                   10000000     oleaut32:OLEAUT32.dll
 0000:fffcd000       .debug$S                   10000000     oleaut32:OLEAUT32.dll
 0000:fffcd000       .debug$S                   10000000     oleaut32:OLEAUT32.dll
 0000:fffcd000       .debug$S                   10000000     oleaut32:OLEAUT32.dll
 0000:fffcd000       .debug$S                   10000000     oleaut32:OLEAUT32.dll
 0000:fffcd000       .debug$S                   10000000     oleaut32:OLEAUT32.dll
 0000:fffcd000       .debug$S                   10000000     oleaut32:OLEAUT32.dll
 0000:fffcd000       .debug$S                   10000000     oleaut32:OLEAUT32.dll
 0000:fffcd000       .debug$S                   10000000     oleaut32:OLEAUT32.dll
 0000:fffcd000       .debug$S                   10000000     oleaut32:OLEAUT32.dll
 0000:fffcd000       .debug$S                   10000000     oleaut32:OLEAUT32.dll
 0000:fffcd000       .debug$S                   10000000     oleaut32:OLEAUT32.dll
 0000:fffcd000       .debug$S                   10000000     oleaut32:OLEAUT32.dll
 0000:fffcd000       .debug$S                   10000000     oleaut32:OLEAUT32.dll
 0000:fffcd000       .debug$S                   10000000     user32:USER32.dll
 0000:fffcd000       .debug$S                   10000000     user32:USER32.dll
 0000:fffcd000       .debug$S                   10000000     user32:USER32.dll
 0000:fffcd000       .debug$S                   10000000     user32:USER32.dll
 0000:fffcd000       .debug$S                   10000000     user32:USER32.dll
 0000:fffcd000       .debug$S                   10000000     user32:USER32.dll
 0000:fffcd000       .debug$S                   10000000     user32:USER32.dll
 0000:fffcd000       .debug$S                   10000000     user32:USER32.dll
 0000:fffcd000       .debug$S                   10000000     user32:USER32.dll
 0000:fffcd000       .debug$S                   10000000     user32:USER32.dll
 0000:fffcd000       .debug$S                   10000000     user32:USER32.dll
 0000:fffcd000       .debug$S                   10000000     user32:USER32.dll
 0000:fffcd000       .debug$S                   10000000     user32:USER32.dll
 0000:fffcd000       .debug$S                   10000000     user32:USER32.dll
 0000:fffcd000       .debug$S                   10000000     user32:USER32.dll
 0000:fffcd000       .debug$S                   10000000     user32:USER32.dll
 0000:fffcd000       .debug$S                   10000000     user32:USER32.dll
 0000:fffcd000       .debug$S                   10000000     user32:USER32.dll
 0000:fffcd000       .debug$S                   10000000     user32:USER32.dll
 0000:fffcd000       .debug$S                   10000000     user32:USER32.dll
 0000:fffcd000       .debug$S                   10000000     user32:USER32.dll
 0000:fffcd000       .debug$S                   10000000     user32:USER32.dll
 0000:fffcd000       .debug$S                   10000000     user32:USER32.dll
 0000:fffcd000       .debug$S                   10000000     user32:USER32.dll
 0000:fffcd000       .debug$S                   10000000     user32:USER32.dll
 0000:fffcd000       .debug$S                   10000000     user32:USER32.dll
 0000:fffcd000       .debug$S                   10000000     user32:USER32.dll
 0000:fffcd000       .debug$S                   10000000     user32:USER32.dll
 0000:fffcd000       .debug$S                   10000000     user32:USER32.dll
 0000:fffcd000       .debug$S                   10000000     user32:USER32.dll
 0000:fffcd000       .debug$S                   10000000     user32:USER32.dll
 0000:fffcd000       .debug$S                   10000000     user32:USER32.dll
 0000:fffcd000       .debug$S                   10000000     user32:USER32.dll
 0000:fffcd000       .debug$S                   10000000     user32:USER32.dll
 0000:fffcd000       .debug$S                   10000000     user32:USER32.dll
 0001:00000000       ??__E_AtlComModule@ATL@@YAXXZ 10001000 f   OposVariant.obj
 0001:00000016       ??__E_AtlWinModule@ATL@@YAXXZ 10001016 f   OposVariant.obj
 0001:0000002c       ??__E?pConnMap@?$IConnectionPointContainerImpl@VCOPOSGraphicDisplay@@@ATL@@0PBU_ATL_CONNMAP_ENTRY@2@B@@YAXXZ 1000102c f   GraphicDisplay.obj
 0001:0000003a       ??__E_Module@@YAXXZ        1000103a f   GraphicDisplay.obj
 0001:00000064       ??__E_AtlBaseModule@ATL@@YAXXZ 10001064 f   atls:atlbase.obj
 0001:0000102e       $LN24                      1000202e     GraphicDisplay.obj
 0001:000058b2       $LN48                      100068b2     GraphicDisplay.obj
 0001:000058ca       $LN47                      100068ca     GraphicDisplay.obj
 0001:00007a75       $LN38                      10008a75     GraphicDisplay.obj
 0001:00007a8d       $LN37                      10008a8d     GraphicDisplay.obj
 0001:0000917d       $LN76                      1000a17d     GraphicDisplay.obj
 0001:00009195       $LN75                      1000a195     GraphicDisplay.obj
 0001:0000954e       _memcpy_s                  1000a54e f   GraphicDisplay.obj
 0001:0000b4c2       ?find_pe_section@@YAPAU_IMAGE_SECTION_HEADER@@QAEI@Z 1000c4c2 f   LIBCMT:utility.obj
 0001:0000b7e1       ?__scrt_initialize_thread_safe_statics@@YAHXZ 1000c7e1 f   LIBCMT:thread_safe_statics.obj
 0001:0000b808       ?__scrt_initialize_thread_safe_statics_platform_specific@@YAXXZ 1000c808 f   LIBCMT:thread_safe_statics.obj
 0001:0000b88a       ?__scrt_uninitialize_thread_safe_statics@@YAXXZ 1000c88a f   LIBCMT:thread_safe_statics.obj
 0001:0000bbf9       __catch$??2@YAPAXIABUnothrow_t@std@@@Z$0 1000cbf9 f   LIBCMT:new_scalar_nothrow.obj
 0001:0000bc30       $$000000                   1000cc30     LIBCMT:sehprolg4gs.obj
 0001:0000bc90       $$000000                   1000cc90     LIBCMT:alloca16.obj
 0001:0000bcc0       $$000000                   1000ccc0     LIBCMT:chkstk.obj
 0001:0000bced       ?dllmain_crt_dispatch@@YGHQAUHINSTANCE__@@KQAX@Z 1000cced f   LIBCMT:dll_dllmain.obj
 0001:0000bd40       ?dllmain_crt_process_attach@@YAHQAUHINSTANCE__@@QAX@Z 1000cd40 f   LIBCMT:dll_dllmain.obj
 0001:0000be47       ?dllmain_crt_process_detach@@YAH_N@Z 1000ce47 f   LIBCMT:dll_dllmain.obj
 0001:0000bef7       ?dllmain_dispatch@@YAHQAUHINSTANCE__@@KQAX@Z 1000cef7 f   LIBCMT:dll_dllmain.obj
 0001:0000c002       ?dllmain_raw@@YGHQAUHINSTANCE__@@KQAX@Z 1000d002 f   LIBCMT:dll_dllmain.obj
 0001:0000c380       $$000000                   1000d380     LIBCMT:sehprolg4.obj
 0001:0000c3db       ___get_entropy             1000d3db f   LIBCMT:gs_support.obj
 0001:0000c6d2       ??$GetProcAddressAll@P6GP6GJPAUHWND__@@IIJ@ZPAUAtlThunkData_t@@@Z@@YAP6GP6GJPAUHWND__@@IIJ@ZPAUAtlThunkData_t@@@ZPAP6GP6GJ0IIJ@Z1@Z@Z 1000d6d2 f   atls:atlthunk.obj
 0001:0000c6d2       ??$GetProcAddressAll@P6GPAUAtlThunkData_t@@XZ@@YAP6GPAUAtlThunkData_t@@XZPAP6GPAU0@XZ@Z 1000d6d2 f   atls:atlthunk.obj
 0001:0000c6d2       ??$GetProcAddressAll@P6GXPAUAtlThunkData_t@@@Z@@YAP6GXPAUAtlThunkData_t@@@ZPAP6GX0@Z@Z 1000d6d2 f   atls:atlthunk.obj
 0001:0000c6d2       ??$GetProcAddressAll@P6GXPAUAtlThunkData_t@@PAXI@Z@@YAP6GXPAUAtlThunkData_t@@PAXI@ZPAP6GX01I@Z@Z 1000d6d2 f   atls:atlthunk.obj
 0001:0000c782       ?GetProcAddressSingle@@YA_NPAUHINSTANCE__@@PBDPAPAX@Z 1000d782 f   atls:atlthunk.obj
 0001:0000c8d4       ?__InitializeThunkPool@@YAHXZ 1000d8d4 f   atls:atlthunk.obj
 0001:0000cd20       _ValidateLocalCookies      1000dd20 f   libvcruntime:chandler4.obj
 0001:0000dd4a       $LN1250                    1000ed4a     libvcruntime:memcmp.obj
 0001:0000ddd0       $$000000                   1000edd0     libvcruntime:memcpy.obj
 0001:0000e034       TrailingUpVec              1000f034     libvcruntime:memcpy.obj
 0001:0000e0e0       TrailingDownVec            1000f0e0     libvcruntime:memcpy.obj
 0001:0000e350       $$000000                   1000f350     libvcruntime:memset.obj
 0001:0000e953       ?_FilterSetCurrentException@@YAKPAU_EXCEPTION_POINTERS@@E@Z 1000f953 f   libvcruntime:ehhelpers.obj
 0001:0000eba0       $$000000                   1000fba0     libvcruntime:memmove.obj
 0001:0000ee04       TrailingUpVec              1000fe04     libvcruntime:memmove.obj
 0001:0000eeb0       TrailingDownVec            1000feb0     libvcruntime:memmove.obj
 0001:0000f120       $$000000                   10010120     libvcruntime:exsup4.obj
 0001:0000f1ad       __unwind_handler4          100101ad f   libvcruntime:exsup4.obj
 0001:0000f48b       ??$BuildCatchObjectHelperInternal@V__FrameHandler3@@@@YAHPAUEHExceptionRecord@@PAXPBU_s_HandlerType@@PBU_s_CatchableType@@@Z 1001048b f   libvcruntime:frame.obj
 0001:0000f5c9       ??$BuildCatchObjectInternal@V__FrameHandler3@@@@YAXPAUEHExceptionRecord@@PAXPBU_s_HandlerType@@PBU_s_CatchableType@@@Z 100105c9 f   libvcruntime:frame.obj
 0001:0000f662       ??$CatchIt@V__FrameHandler3@@@@YAXPAUEHExceptionRecord@@PAUEHRegistrationNode@@PAU_CONTEXT@@PAXPBU_s_FuncInfo@@PBU_s_HandlerType@@PBU_s_CatchableType@@PBU_s_TryBlockMapEntry@@H1EE@Z 10010662 f   libvcruntime:frame.obj
 0001:0000f6e2       ??$FindHandler@V__FrameHandler3@@@@YAXPAUEHExceptionRecord@@PAUEHRegistrationNode@@PAU_CONTEXT@@PAXPBU_s_FuncInfo@@EH1@Z 100106e2 f   libvcruntime:frame.obj
 0001:0000fa98       ??$FindHandlerForForeignException@V__FrameHandler3@@@@YAXPAUEHExceptionRecord@@PAUEHRegistrationNode@@PAU_CONTEXT@@PAXPBU_s_FuncInfo@@HH1@Z 10010a98 f   libvcruntime:frame.obj
 0001:0000fdb0       ?CallCatchBlock@@YAPAXPAUEHExceptionRecord@@PAUEHRegistrationNode@@PAU_CONTEXT@@PBU_s_FuncInfo@@PAXHK@Z 10010db0 f   libvcruntime:frame.obj
 0001:0000ff74       ?CallUnexpected@@YAXPBU_s_ESTypeList@@@Z 10010f74 f   libvcruntime:frame.obj
 0001:0000ff94       __catch$?CallUnexpected@@YAXPBU_s_ESTypeList@@@Z$0 10010f94 f   libvcruntime:frame.obj
 0001:0000ffb3       ?ExFilterRethrow@@YAHPAU_EXCEPTION_POINTERS@@@Z 10010fb3 f   libvcruntime:frame.obj
 0001:000100fd       ?IsInExceptionSpec@@YAEPAUEHExceptionRecord@@PBU_s_ESTypeList@@@Z 100110fd f   libvcruntime:frame.obj
 0001:000101d0       $$000000                   100111d0     libvcruntime:lowhelpr.obj
 0001:00010220       $$000000                   10011220     libvcruntime:exsup.obj
 0001:00010241       __unwind_handler           10011241 f   libvcruntime:exsup.obj
 0001:0001035e       ?try_get_first_available_module@@YAPAUHINSTANCE__@@QBW4module_id@?A0xb97aeec8@@0@Z 1001135e f   libvcruntime:winapi_downlevel.obj
 0001:000103f8       ?try_get_function@@YAPAXW4function_id@?A0xb97aeec8@@QBDQBW4module_id@2@2@Z 100113f8 f   libvcruntime:winapi_downlevel.obj
 0001:00010a82       ??$common_tcsncpy_s@_W@@YAHQA_WIQB_WI@Z 10011a82 f   libucrt:wcsncpy_s.obj
 0001:00010b58       ??$common_vsprintf@Vformat_validation_base@__crt_stdio_output@@_W@@YAH_KQA_WIQB_WQAU__crt_locale_pointers@@QAD@Z 10011b58 f   libucrt:output.obj
 0001:00010cdf       ??$common_vsprintf_s@_W@@YAH_KQA_WIQB_WQAU__crt_locale_pointers@@QAD@Z 10011cdf f   libucrt:output.obj
 0001:00011443       $LN48                      10012443     libucrt:output.obj
 0001:0001194c       $LN18                      1001294c     libucrt:output.obj
 0001:00011960       $LN17                      10012960     libucrt:output.obj
 0001:000121bb       ??$?RV<lambda_03b1d95aef87969028cfba75ccab2455>@@AAV<lambda_6e4b09c48022b2350581041d5f6b0c4c>@@V<lambda_22bdf7517842c4b3e53723af5aa32b9e>@@@?$__crt_seh_guarded_call@X@@QAEX$$QAV<lambda_03b1d95aef87969028cfba75ccab2455>@@AAV<lambda_6e4b09c48022b2350581041d5f6b0c4c>@@$$QAV<lambda_22bdf7517842c4b3e53723af5aa32b9e>@@@Z 100131bb f   libucrt:exit.obj
 0001:00012208       ??R<lambda_6e4b09c48022b2350581041d5f6b0c4c>@@QBE@XZ 10013208 f   libucrt:exit.obj
 0001:000122e2       ?atexit_exception_filter@@YAHK@Z 100132e2 f   libucrt:exit.obj
 0001:000122f5       ?common_exit@@YAXHW4_crt_exit_cleanup_mode@@W4_crt_exit_return_mode@@@Z 100132f5 f   libucrt:exit.obj
 0001:00012359       ?exit_or_terminate_process@@YAXI@Z 10013359 f   libucrt:exit.obj
 0001:0001239b       ?is_managed_app@@YA_NXZ    1001339b f   libucrt:exit.obj
 0001:000123de       ?try_cor_exit_process@@YAXI@Z 100133de f   libucrt:exit.obj
 0001:0001246c       ??$common_configure_argv@D@@YAHW4_crt_argv_mode@@@Z 1001346c f   libucrt:argv_parsing.obj
 0001:000125a2       ??$parse_command_line@D@@YAXPADPAPAD0PAI2@Z 100135a2 f   libucrt:argv_parsing.obj
 0001:00012770       ??$common_initialize_environment_nolock@D@@YAHXZ 10013770 f   libucrt:environment_initialization.obj
 0001:000127c3       ??$create_environment@D@@YAQAPADQAD@Z 100137c3 f   libucrt:environment_initialization.obj
 0001:00012893       ??$free_environment@D@@YAXQAPAD@Z 10013893 f   libucrt:environment_initialization.obj
 0001:00012893       ??$free_environment@_W@@YAXQAPA_W@Z 10013893 f   libucrt:environment_initialization.obj
 0001:000128eb       ??$uninitialize_environment_internal@D@@YAXAAPAPAD@Z 100138eb f   libucrt:environment_initialization.obj
 0001:00012906       ??$uninitialize_environment_internal@_W@@YAXAAPAPA_W@Z 10013906 f   libucrt:environment_initialization.obj
 0001:0001295d       ??$?RV<lambda_69a2805e680e0e292e8ba93315fe43a8>@@AAV<lambda_f03950bc5685219e0bcd2087efbe011e>@@V<lambda_03fcd07e894ec930e3f35da366ca99d6>@@@?$__crt_seh_guarded_call@H@@QAEH$$QAV<lambda_69a2805e680e0e292e8ba93315fe43a8>@@AAV<lambda_f03950bc5685219e0bcd2087efbe011e>@@$$QAV<lambda_03fcd07e894ec930e3f35da366ca99d6>@@@Z 1001395d f   libucrt:onexit.obj
 0001:000129b8       ??$?RV<lambda_8e746cf0007f6ed984d6f78af1fec997>@@AAV<lambda_22ebabd17bc4fa466a2aca6d8deb888d>@@V<lambda_18ed0c0b38a6dc0daf1e7ac6d6adf05e>@@@?$__crt_seh_guarded_call@H@@QAEH$$QAV<lambda_8e746cf0007f6ed984d6f78af1fec997>@@AAV<lambda_22ebabd17bc4fa466a2aca6d8deb888d>@@$$QAV<lambda_18ed0c0b38a6dc0daf1e7ac6d6adf05e>@@@Z 100139b8 f   libucrt:onexit.obj
 0001:00012a32       ??R<lambda_22ebabd17bc4fa466a2aca6d8deb888d>@@QBEHXZ 10013a32 f   libucrt:onexit.obj
 0001:00012b5b       ??R<lambda_f03950bc5685219e0bcd2087efbe011e>@@QBEHXZ 10013b5b f   libucrt:onexit.obj
 0001:00012cd4       _initialize_global_variables 10013cd4 f   libucrt:initialization.obj
 0001:00012ce1       _initialize_c              10013ce1 f   libucrt:initialization.obj
 0001:00012cfb       _initialize_environment    10013cfb f   libucrt:initialization.obj
 0001:00012cfb       _initialize_global_state_isolation 10013cfb f   libucrt:initialization.obj
 0001:00012cfb       _report_memory_leaks       10013cfb f   libucrt:initialization.obj
 0001:00012cfb       _uninitialize_c            10013cfb f   libucrt:initialization.obj
 0001:00012cfb       _uninitialize_global_state_isolation 10013cfb f   libucrt:initialization.obj
 0001:00012cfe       _uninitialize_environment  10013cfe f   libucrt:initialization.obj
 0001:00012d06       _initialize_pointers       10013d06 f   libucrt:initialization.obj
 0001:00012d34       _uninitialize_vcruntime    10013d34 f   libucrt:initialization.obj
 0001:00012d3d       _uninitialize_allocated_memory 10013d3d f   libucrt:initialization.obj
 0001:00012d54       _uninitialize_allocated_io_buffers 10013d54 f   libucrt:initialization.obj
 0001:00012da4       ??R<lambda_af42a3ee9806e9a7305d451646e05244>@@QBEXAAPAU__crt_multibyte_data@@@Z 10013da4 f   libucrt:initialization.obj
 0001:00013690       $$000000                   10014690     libucrt:strncmp.obj
 0001:0001377c       ??$?RV<lambda_15ade71b0218206bbe3333a0c9b79046>@@AAV<lambda_da44e0f8b0f19ba52fefafb335991732>@@V<lambda_207f2d024fc103971653565357d6cd41>@@@?$__crt_seh_guarded_call@X@@QAEX$$QAV<lambda_15ade71b0218206bbe3333a0c9b79046>@@AAV<lambda_da44e0f8b0f19ba52fefafb335991732>@@$$QAV<lambda_207f2d024fc103971653565357d6cd41>@@@Z 1001477c f   libucrt:per_thread_data.obj
 0001:000137ce       ??$?RV<lambda_38edbb1296d33220d7e4dd0ed76b244a>@@AAV<lambda_5ce1d447e08cb34b2473517608e21441>@@V<lambda_fb385d3da700c9147fc39e65dd577a8c>@@@?$__crt_seh_guarded_call@X@@QAEX$$QAV<lambda_38edbb1296d33220d7e4dd0ed76b244a>@@AAV<lambda_5ce1d447e08cb34b2473517608e21441>@@$$QAV<lambda_fb385d3da700c9147fc39e65dd577a8c>@@@Z 100147ce f   libucrt:per_thread_data.obj
 0001:00013839       ??$?RV<lambda_6affb1475c98b40b75cdec977db92e3c>@@AAV<lambda_b8d4b9c228a6ecc3f80208dbb4b4a104>@@V<lambda_608742c3c92a14382c1684fc64f96c88>@@@?$__crt_seh_guarded_call@X@@QAEX$$QAV<lambda_6affb1475c98b40b75cdec977db92e3c>@@AAV<lambda_b8d4b9c228a6ecc3f80208dbb4b4a104>@@$$QAV<lambda_608742c3c92a14382c1684fc64f96c88>@@@Z 10014839 f   libucrt:per_thread_data.obj
 0001:0001388e       ??$?RV<lambda_a7e850c220f1c8d1e6efeecdedd162c6>@@AAV<lambda_46720907175c18b6c9d2717bc0d2d362>@@V<lambda_9048902d66e8d99359bc9897bbb930a8>@@@?$__crt_seh_guarded_call@X@@QAEX$$QAV<lambda_a7e850c220f1c8d1e6efeecdedd162c6>@@AAV<lambda_46720907175c18b6c9d2717bc0d2d362>@@$$QAV<lambda_9048902d66e8d99359bc9897bbb930a8>@@@Z 1001488e f   libucrt:per_thread_data.obj
 0001:000138e8       ?construct_ptd@@YAXQAU__acrt_ptd@@QAPAU__crt_locale_data@@@Z 100148e8 f   libucrt:per_thread_data.obj
 0001:00013981       ?destroy_fls@@YGXPAX@Z     10014981 f   libucrt:per_thread_data.obj
 0001:000139a2       ?destroy_ptd@@YAXQAU__acrt_ptd@@@Z 100149a2 f   libucrt:per_thread_data.obj
 0001:00013a6f       ?replace_current_thread_locale_nolock@@YAXQAU__acrt_ptd@@QAU__crt_locale_data@@@Z 10014a6f f   libucrt:per_thread_data.obj
 0001:00013e7f       ?try_get_AreFileApisANSI@@YAP6GHXZXZ 10014e7f f   libucrt:winapi_thunks.obj
 0001:00013e99       ?try_get_LCMapStringEx@@YAP6GHPB_WK0HPA_WHPAU_nlsversioninfo@@PAXJ@ZXZ 10014e99 f   libucrt:winapi_thunks.obj
 0001:00013eb3       ?try_get_LocaleNameToLCID@@YAP6GKPB_WK@ZXZ 10014eb3 f   libucrt:winapi_thunks.obj
 0001:00013ecd       ?try_get_first_available_module@@YAPAUHINSTANCE__@@QBW4module_id@?A0x391cf84c@@0@Z 10014ecd f   libucrt:winapi_thunks.obj
 0001:00013f94       ?try_get_function@@YAPAXW4function_id@?A0x391cf84c@@QBDQBW4module_id@2@2@Z 10014f94 f   libucrt:winapi_thunks.obj
 0001:000146f7       ?fe_to_nearest@@YA_NQBN_KF@Z 100156f7 f   libucrt:cvt.obj
 0001:0001479a       ?fp_format_a@@YAHQBNPADIQADIH_NIQAU__crt_locale_pointers@@W4__acrt_rounding_mode@@@Z 1001579a f   libucrt:cvt.obj
 0001:00014aa9       ?fp_format_e@@YAHQBNQADI1IH_NIQAU__crt_locale_pointers@@W4__acrt_rounding_mode@@@Z 10015aa9 f   libucrt:cvt.obj
 0001:00014b51       ?fp_format_e_internal@@YAHQADIH_NIQAU_strflt@@1QAU__crt_locale_pointers@@@Z 10015b51 f   libucrt:cvt.obj
 0001:00014c99       ?fp_format_f@@YAHQBNQADI1IHQAU__crt_locale_pointers@@W4__acrt_rounding_mode@@@Z 10015c99 f   libucrt:cvt.obj
 0001:00014d2a       ?fp_format_f_internal@@YAHQADIHQAU_strflt@@_NQAU__crt_locale_pointers@@@Z 10015d2a f   libucrt:cvt.obj
 0001:00014e22       ?fp_format_g@@YAHQBNQADI1IH_NIQAU__crt_locale_pointers@@@Z 10015e22 f   libucrt:cvt.obj
 0001:00014eeb       ?fp_format_nan_or_infinity@@YAHW4__acrt_fp_class@@_NPADI1@Z 10015eeb f   libucrt:cvt.obj
 0001:00014f80       ?shift_bytes@@YAXQADI0H@Z  10015f80 f   libucrt:cvt.obj
 0001:00014fb4       ?should_round_up@@YA_NQBN_KFW4__acrt_rounding_mode@@@Z 10015fb4 f   libucrt:cvt.obj
 0001:0001531d       ??$?RV<lambda_e5124f882df8998aaf41531e079ba474>@@AAV<lambda_3e16ef9562a7dcce91392c22ab16ea36>@@V<lambda_e25ca0880e6ef98be67edffd8c599615>@@@?$__crt_seh_guarded_call@X@@QAEX$$QAV<lambda_e5124f882df8998aaf41531e079ba474>@@AAV<lambda_3e16ef9562a7dcce91392c22ab16ea36>@@$$QAV<lambda_e25ca0880e6ef98be67edffd8c599615>@@@Z 1001631d f   libucrt:wsetlocale.obj
 0001:000153bd       ?initialize_inherited_file_handles_nolock@@YAXXZ 100163bd f   libucrt:ioinit.obj
 0001:00015473       ?initialize_stdio_handles_nolock@@YAXXZ 10016473 f   libucrt:ioinit.obj
 0001:00015684       ?<lambda_invoker_cdecl>@<lambda_838c7f62c73c983481e27c09e84b0b5d>@@CAHPBX0@Z 10016684 f   libucrt:argv_wildcards.obj
 0001:0001569c       ??$__acrt_convert_wcs_mbs_cp@D_WV<lambda_62f6974d9771e494a5ea317cc32e971c>@@U__crt_win32_buffer_internal_dynamic_resizing@@@@YAHQBDAAV?$__crt_win32_buffer@_WU__crt_win32_buffer_internal_dynamic_resizing@@@@ABV<lambda_62f6974d9771e494a5ea317cc32e971c>@@I@Z 1001669c f   libucrt:argv_wildcards.obj
 0001:0001574e       ??$__acrt_convert_wcs_mbs_cp@_WDV<lambda_28bda7af82a03b66c1cb3803a755f95d>@@U__crt_win32_buffer_internal_dynamic_resizing@@@@YAHQB_WAAV?$__crt_win32_buffer@DU__crt_win32_buffer_internal_dynamic_resizing@@@@ABV<lambda_28bda7af82a03b66c1cb3803a755f95d>@@I@Z 1001674e f   libucrt:argv_wildcards.obj
 0001:0001583a       ??$common_expand_argv_wildcards@D@@YAHQAPADQAPAPAD@Z 1001683a f   libucrt:argv_wildcards.obj
 0001:00015a29       ??$copy_and_add_argument_to_buffer@D@@YAHQBD0IAAV?$argument_list@D@?A0x5f5c8891@@@Z 10016a29 f   libucrt:argv_wildcards.obj
 0001:00015ada       ??$expand_argument_wildcards@D@@YAHQAD0AAV?$argument_list@D@?A0x5f5c8891@@@Z 10016ada f   libucrt:argv_wildcards.obj
 0001:00015e24       ?expand_if_necessary@?$argument_list@D@?A0x5f5c8891@@AAEHXZ 10016e24 f   libucrt:argv_wildcards.obj
 0001:00015eb6       ??$__acrt_convert_wcs_mbs_cp@_WDV<lambda_0fec1a7b3f42a53036604e18c2d5e07e>@@U__crt_win32_buffer_no_resizing@@@@YAHQB_WAAV?$__crt_win32_buffer@DU__crt_win32_buffer_no_resizing@@@@ABV<lambda_0fec1a7b3f42a53036604e18c2d5e07e>@@I@Z 10016eb6 f   libucrt:getmodulefilenamea.obj
 0001:00016059       ??$?RV<lambda_ceb1ee4838e85a9d631eb091e2fbe199>@@AAV<lambda_ae742caa10f662c28703da3d2ea5e57e>@@V<lambda_cd08b5d6af4937fe54fc07d0c9bf6b37>@@@?$__crt_seh_guarded_call@X@@QAEX$$QAV<lambda_ceb1ee4838e85a9d631eb091e2fbe199>@@AAV<lambda_ae742caa10f662c28703da3d2ea5e57e>@@$$QAV<lambda_cd08b5d6af4937fe54fc07d0c9bf6b37>@@@Z 10017059 f   libucrt:mbctype.obj
 0001:000160a6       ??R<lambda_ae742caa10f662c28703da3d2ea5e57e>@@QBEXXZ 100170a6 f   libucrt:mbctype.obj
 0001:00016129       ?CPtoLocaleName@@YAPB_WH@Z 10017129 f   libucrt:mbctype.obj
 0001:00016167       ?getSystemCP@@YAHH@Z       10017167 f   libucrt:mbctype.obj
 0001:000161d8       ?setSBCS@@YAXPAU__crt_multibyte_data@@@Z 100171d8 f   libucrt:mbctype.obj
 0001:0001623d       ?setSBUpLow@@YAXPAU__crt_multibyte_data@@@Z 1001723d f   libucrt:mbctype.obj
 0001:000163bd       ?setmbcp_internal@@YAHH_NQAU__acrt_ptd@@QAPAU__crt_multibyte_data@@@Z 100173bd f   libucrt:mbctype.obj
 0001:000164d1       ?update_thread_multibyte_data_internal@@YAPAU__crt_multibyte_data@@QAU__acrt_ptd@@QAPAU1@@Z 100174d1 f   libucrt:mbctype.obj
 0001:000167bf       _memcpy_s                  100177bf f   libucrt:cfout.obj
 0001:000167bf       _memcpy_s                  100177bf f   libucrt:mbctype.obj
 0001:00016840       ?x_ismbbtype_l@@YAHPAU__crt_locale_pointers@@IHH@Z 10017840 f   libucrt:ismbbyte.obj
 0001:000169fb       ?find_end_of_double_null_terminated_sequence@@YAPB_WQB_W@Z 100179fb f   libucrt:get_environment_from_os.obj
 0001:00016b6a       ??$?RV<lambda_cbab9ec6f41b0180b23cc171c22676b0>@@AAV<lambda_44731a7d0e6d81c3e6aa82d741081786>@@V<lambda_4b292cb8dd18144e164572427af410ab>@@@?$__crt_seh_guarded_call@P6AXH@Z@@QAEP6AXH@Z$$QAV<lambda_cbab9ec6f41b0180b23cc171c22676b0>@@AAV<lambda_44731a7d0e6d81c3e6aa82d741081786>@@$$QAV<lambda_4b292cb8dd18144e164572427af410ab>@@@Z 10017b6a f   libucrt:signal.obj
 0001:00016bce       ?get_global_action_nolock@@YAPAP6AXH@ZH@Z 10017bce f   libucrt:signal.obj
 0001:00016c10       ?siglookup@@YAPAU__crt_signal_action_t@@HQAU1@@Z 10017c10 f   libucrt:signal.obj
 0001:00016ec9       ??$?RV<lambda_2866be3712abc81a800a822484c830d8>@@AAV<lambda_39ca0ed439415581b5b15c265174cece>@@V<lambda_2b24c74d71094a6cd0cb82e44167d71b>@@@?$__crt_seh_guarded_call@X@@QAEX$$QAV<lambda_2866be3712abc81a800a822484c830d8>@@AAV<lambda_39ca0ed439415581b5b15c265174cece>@@$$QAV<lambda_2b24c74d71094a6cd0cb82e44167d71b>@@@Z 10017ec9 f   libucrt:fflush.obj
 0001:00016f55       ??$?RV<lambda_2cc53f568c5a2bb6f192f930a45d44ea>@@AAV<lambda_ab61a845afdef5b7c387490eaf3616ee>@@V<lambda_c2ffc0b7726aa6be21d5f0026187e748>@@@?$__crt_seh_guarded_call@X@@QAEX$$QAV<lambda_2cc53f568c5a2bb6f192f930a45d44ea>@@AAV<lambda_ab61a845afdef5b7c387490eaf3616ee>@@$$QAV<lambda_c2ffc0b7726aa6be21d5f0026187e748>@@@Z 10017f55 f   libucrt:fflush.obj
 0001:00017001       ?common_flush_all@@YAH_N@Z 10018001 f   libucrt:fflush.obj
 0001:0001704e       ?common_flush_all_should_try_to_flush_stream@@YA_NV__crt_stdio_stream@@QAH@Z 1001804e f   libucrt:fflush.obj
 0001:00017081       ?is_stream_flushable_or_commitable@@YA_NJ@Z 10018081 f   libucrt:fflush.obj
 0001:0001758a       ?GetTableIndexFromLocaleName@@YAHPB_W@Z 1001858a f   libucrt:lcidtoname_downlevel.obj
 0001:00017640       ??R<lambda_3d301b9e52f5099be73030e1f0bf487e>@@QBEIPBD@Z 10018640 f   libucrt:mbrtowc.obj
 0001:000177c6       ?should_round_up@@YA_NQBDHW4__acrt_has_trailing_digits@@W4__acrt_rounding_mode@@@Z 100187c6 f   libucrt:_fptostr.obj
 0001:00019564       ?free_crt_array_internal@@YAXQAPBXI@Z 1001a564 f   libucrt:inittime.obj
 0001:00019f2e       ??$common_tcsncpy_s@D@@YAHQADIQBDI@Z 1001af2e f   libucrt:strncpy_s.obj
 0001:00019ff0       $$000000                   1001aff0     libucrt:strpbrk.obj
 0001:0001a0d4       ?__acrt_LCMapStringA_stat@@YAHPAU__crt_locale_pointers@@PB_WKPBDHPADHHH@Z 1001b0d4 f   libucrt:lcmapstringa.obj
 0001:0001a307       ?initialize_multibyte@@YAHXZ 1001b307 f   libucrt:multibyte_initializer.obj
 0001:0001a316       ??$?RV<lambda_9e9de3de5fa147e2223d7db92bc10aa6>@@AAV<lambda_38ce7e780aa69e748d6df282ebc68efe>@@V<lambda_8ca6da459f0f6780f1cff60fdc3d00e5>@@@?$__crt_seh_guarded_call@H@@QAEH$$QAV<lambda_9e9de3de5fa147e2223d7db92bc10aa6>@@AAV<lambda_38ce7e780aa69e748d6df282ebc68efe>@@$$QAV<lambda_8ca6da459f0f6780f1cff60fdc3d00e5>@@@Z 1001b316 f   libucrt:commit.obj
 0001:0001a435       ?write_double_translated_ansi_nolock@@YA?AUwrite_result@?A0x17268360@@HQBDI@Z 1001b435 f   libucrt:write.obj
 0001:0001a7e1       ?write_double_translated_unicode_nolock@@YA?AUwrite_result@?A0x17268360@@QBDI@Z 1001b7e1 f   libucrt:write.obj
 0001:0001a849       ?write_requires_double_translation_nolock@@YA_NH@Z 1001b849 f   libucrt:write.obj
 0001:0001a8ba       ?write_text_ansi_nolock@@YA?AUwrite_result@?A0x17268360@@HQBDI@Z 1001b8ba f   libucrt:write.obj
 0001:0001a995       ?write_text_utf16le_nolock@@YA?AUwrite_result@?A0x17268360@@HQBDI@Z 1001b995 f   libucrt:write.obj
 0001:0001aa7e       ?write_text_utf8_nolock@@YA?AUwrite_result@?A0x17268360@@HQBDI@Z 1001ba7e f   libucrt:write.obj
 0001:0001b1a0       $$000000                   1001c1a0     libucrt:log10_impl.obj
 0001:0001b2b0       $$000000                   1001c2b0     libucrt:ceil_pentium4.obj
 0001:0001b3cd       ?to_abstract_control@@YA?AW4__acrt_fenv_abstract_control@@W4__acrt_fenv_machine_sse_control@@@Z 1001c3cd f   libucrt:_fenvutils.obj
 0001:0001b489       ?to_abstract_control@@YA?AW4__acrt_fenv_abstract_control@@W4__acrt_fenv_machine_x87_control@@@Z 1001c489 f   libucrt:_fenvutils.obj
 0001:0001b542       ?to_machine_sse_control@@YA?AW4__acrt_fenv_machine_sse_control@@W4__acrt_fenv_abstract_control@@@Z 1001c542 f   libucrt:_fenvutils.obj
 0001:0001b60f       ?to_machine_x87_control@@YA?AW4__acrt_fenv_machine_x87_control@@W4__acrt_fenv_abstract_control@@@Z 1001c60f f   libucrt:_fenvutils.obj
 0001:0001b9a3       ??$common_lseek_nolock@_J@@YA_JH_JH@Z 1001c9a3 f   libucrt:lseek.obj
 0001:0001bb89       ___hw_cw_sse2              1001cb89 f   libucrt:ieee87.obj
 0001:0001c00f       __hw_cw                    1001d00f f   libucrt:ieee87.obj
 0001:0001c0c0       $$000000                   1001d0c0     libucrt:log10_pentium4.obj
 0001:0001c350       $$000000                   1001d350     libucrt:87tran.obj
 0001:0001c560       $$000000                   1001d560     libucrt:87disp.obj
 0001:0001c7c0       $$000000                   1001d7c0     libucrt:common.obj
 0001:0001c950       $$000000                   1001d950     libucrt:genexcep.obj
 0001:0001cc4c       ??$?RV<lambda_218ce3db14220d0be481dae8ef3383b6>@@AAV<lambda_628dfdc04ba53c8bfc02c9951375f3f5>@@V<lambda_57dc472bd5c9d5f3b2cbca59b8a843ae>@@@?$__crt_seh_guarded_call@H@@QAEH$$QAV<lambda_218ce3db14220d0be481dae8ef3383b6>@@AAV<lambda_628dfdc04ba53c8bfc02c9951375f3f5>@@$$QAV<lambda_57dc472bd5c9d5f3b2cbca59b8a843ae>@@@Z 1001dc4c f   libucrt:close.obj
 0001:0001ce40       $$000000                   1001de40     libucrt:_strnicm.obj
 0001:0001cea1       ?__dcrt_lowio_initialize_console_output@@YAXXZ 1001dea1 f   libucrt:initcon.obj
 0001:0001dd80       $$000000                   1001ed80     LIBCMT:ulldvrm.obj
 0001:0001de20       $$000000                   1001ee20     LIBCMT:llmul.obj
 0001:0001de60       $$000000                   1001ee60     LIBCMT:lldvrm.obj
 0001:0001df40       $$000000                   1001ef40     LIBCMT:llshl.obj
 0001:0001df60       $$000000                   1001ef60     LIBCMT:ullshr.obj
 0001:0001df80       $$000000                   1001ef80     LIBCMT:ftol2.obj
 0001:0001e220       $$000000                   1001f220     libvcruntime:strrchr.obj
 0001:0001e360       $$000000                   1001f360     libvcruntime:strchr.obj
 0001:0001e503       __ehhandler$??2@YAPAXIABUnothrow_t@std@@@Z 1001f503 f   LIBCMT:new_scalar_nothrow.obj
 0001:0001e520       __ehhandler$?CallUnexpected@@YAXPBU_s_ESTypeList@@@Z 1001f520 f   libvcruntime:frame.obj
 0001:0001e53d       ??__F_AtlComModule@ATL@@YAXXZ 1001f53d f   OposVariant.obj
 0001:0001e547       ??__F_AtlWinModule@ATL@@YAXXZ 1001f547 f   OposVariant.obj
 0001:0001e561       ??__F_Module@@YAXXZ        1001f561 f   GraphicDisplay.obj
 0001:0001e575       ??__F_AtlBaseModule@ATL@@YAXXZ 1001f575 f   atls:atlbase.obj
 0002:00000304       ?_AtlBaseModule$initializer$@ATL@@3P6AXXZA 10020304     atls:atlbase.obj
 0002:00000308       ?_AtlComModule$initializer$@ATL@@3P6AXXZA 10020308     OposVariant.obj
 0002:0000030c       ?_AtlWinModule$initializer$@ATL@@3P6AXXZA 1002030c     OposVariant.obj
 0002:00000310       ?_Module$initializer$@@3P6AXXZA 10020310     GraphicDisplay.obj
 0002:00000314       ??pConnMap$initializer$@?$IConnectionPointContainerImpl@VCOPOSGraphicDisplay@@@ATL@@0P6AXXZA@@3P6AXXZA 10020314     GraphicDisplay.obj
 0002:00000320       ?__scrt_initialize_tss_var@@3P6AHXZA 10020320     LIBCMT:thread_safe_statics.obj
 0002:000018c0       _GS_ExceptionPointers      100218c0     LIBCMT:gs_report.obj
 0002:00001a50       ?tokenTable@@3QBUStringLiteral@@B 10021a50     libvcruntime:undname.obj
 0002:00001ad0       ?nameTable@@3QBUStringLiteral@@B 10021ad0     libvcruntime:undname.obj
 0002:00001d68       ?rttiTable@@3QBUStringLiteral@@B 10021d68     libvcruntime:undname.obj
 0002:00001d90       ?IndirectionName@@3QBUStringLiteral@@B 10021d90     libvcruntime:undname.obj
 0002:00001dc0       ?PrefixName@@3QBUStringLiteral@@B 10021dc0     libvcruntime:undname.obj
 0002:000023f0       ?module_names@?A0xb97aeec8@@3QBQB_WB 100223f0     libvcruntime:winapi_downlevel.obj
 0002:00002498       ?candidate_modules@?1??try_get_FlsAlloc@@YAP6GKP6GXPAX@Z@ZXZ@4QBW4module_id@?A0xb97aeec8@@B 10022498     libvcruntime:winapi_downlevel.obj
 0002:000024ac       ?candidate_modules@?1??try_get_FlsFree@@YAP6GHK@ZXZ@4QBW4module_id@?A0xb97aeec8@@B 100224ac     libvcruntime:winapi_downlevel.obj
 0002:000024bc       ?candidate_modules@?1??try_get_FlsGetValue@@YAP6GPAXK@ZXZ@4QBW4module_id@?A0xb97aeec8@@B 100224bc     libvcruntime:winapi_downlevel.obj
 0002:000024d0       ?candidate_modules@?1??try_get_FlsSetValue@@YAP6GHKPAX@ZXZ@4QBW4module_id@?A0xb97aeec8@@B 100224d0     libvcruntime:winapi_downlevel.obj
 0002:000024e4       ?candidate_modules@?1??try_get_InitializeCriticalSectionEx@@YAP6GHPAU_RTL_CRITICAL_SECTION@@KK@ZXZ@4QBW4module_id@?A0xb97aeec8@@B 100224e4     libvcruntime:winapi_downlevel.obj
 0002:00002508       ?errtable@@3QBUerrentry@?A0x31fdb9ec@@B 10022508     libucrt:errno.obj
 0002:00002b50       ___acrt_initializers       10022b50     libucrt:initialization.obj
 0002:00002bd0       ?module_names@?A0x391cf84c@@3QBQB_WB 10022bd0     libucrt:winapi_thunks.obj
 0002:00003048       ?candidate_modules@?1??try_get_AreFileApisANSI@@YAP6GHXZXZ@4QBW4module_id@?A0x391cf84c@@B 10023048     libucrt:winapi_thunks.obj
 0002:0000305c       ?candidate_modules@?1??try_get_FlsAlloc@@YAP6GKP6GXPAX@Z@ZXZ@4QBW4module_id@?A0x391cf84c@@B 1002305c     libucrt:winapi_thunks.obj
 0002:00003064       ?candidate_modules@?1??try_get_FlsFree@@YAP6GHK@ZXZ@4QBW4module_id@?A0x391cf84c@@B 10023064     libucrt:winapi_thunks.obj
 0002:0000306c       ?candidate_modules@?1??try_get_FlsGetValue@@YAP6GPAXK@ZXZ@4QBW4module_id@?A0x391cf84c@@B 1002306c     libucrt:winapi_thunks.obj
 0002:00003074       ?candidate_modules@?1??try_get_FlsSetValue@@YAP6GHKPAX@ZXZ@4QBW4module_id@?A0x391cf84c@@B 10023074     libucrt:winapi_thunks.obj
 0002:0000307c       ?candidate_modules@?1??try_get_InitializeCriticalSectionEx@@YAP6GHPAU_RTL_CRITICAL_SECTION@@KK@ZXZ@4QBW4module_id@?A0x391cf84c@@B 1002307c     libucrt:winapi_thunks.obj
 0002:00003084       ?candidate_modules@?1??try_get_LCMapStringEx@@YAP6GHPB_WK0HPA_WHPAU_nlsversioninfo@@PAXJ@ZXZ@4QBW4module_id@?A0x391cf84c@@B 10023084     libucrt:winapi_thunks.obj
 0002:0000309c       ?candidate_modules@?1??try_get_LocaleNameToLCID@@YAP6GKPB_WK@ZXZ@4QBW4module_id@?A0x391cf84c@@B 1002309c     libucrt:winapi_thunks.obj
 0002:000030b8       ?candidate_modules@?1??try_get_AppPolicyGetProcessTerminationMethod@@YAP6GJPAXPAW4AppPolicyProcessTerminationMethod@@@ZXZ@4QBW4module_id@?A0x391cf84c@@B 100230b8     libucrt:winapi_thunks.obj
 0002:000030e4       ?candidate_modules@?1??try_get_SetThreadStackGuarantee@@YAP6GHPAK@ZXZ@4QBW4module_id@?A0x391cf84c@@B 100230e4     libucrt:winapi_thunks.obj
 0002:00003108       ?strings@?1??fp_format_nan_or_infinity@@YAHW4__acrt_fp_class@@_NPADI1@Z@4QAY03QBDA 10023108     libucrt:cvt.obj
 0002:00003650       ?_mb_locale_names@@3QBQB_WB 10023650     libucrt:mbctype.obj
 0002:00003e98       ?LcidToLocaleNameTable@?A0x881e4c05@@3QBULcidToLocaleName@1@B 10023e98     libucrt:lcidtoname_downlevel.obj
 0002:00004fc0       ?LocaleNameToIndexTable@?A0x881e4c05@@3QBULocaleNameIndex@1@B 10024fc0     libucrt:lcidtoname_downlevel.obj
 0002:00006900       LOG_name                   10026900     libucrt:log10_impl.obj
 0002:00006910       _One                       10026910     libucrt:ceil_pentium4.obj
 0002:00006920       _Bns                       10026920     libucrt:ceil_pentium4.obj
 0002:00006930       _Zero                      10026930     libucrt:ceil_pentium4.obj
 0002:00006940       _S                         10026940     libucrt:ceil_pentium4.obj
 0002:00006950       _NegZero                   10026950     libucrt:ceil_pentium4.obj
 0002:00006960       emask                      10026960     libucrt:log10_pentium4.obj
 0002:00006970       CC                         10026970     libucrt:log10_pentium4.obj
 0002:00006980       Magic                      10026980     libucrt:log10_pentium4.obj
 0002:00006990       hi_mask                    10026990     libucrt:log10_pentium4.obj
 0002:000069a0       LOG10_2                    100269a0     libucrt:log10_pentium4.obj
 0002:000069b0       place_L                    100269b0     libucrt:log10_pentium4.obj
 0002:000069d0       One                        100269d0     libucrt:log10_pentium4.obj
 0002:000069e0       Zero                       100269e0     libucrt:log10_pentium4.obj
 0002:000069f0       Two52                      100269f0     libucrt:log10_pentium4.obj
 0002:00006a00       Infs                       10026a00     libucrt:log10_pentium4.obj
 0002:00006a10       NaN                        10026a10     libucrt:log10_pentium4.obj
 0002:00006a20       coeff                      10026a20     libucrt:log10_pentium4.obj
 0002:00006a7e       _log2max                   10026a7e     libucrt:87tran.obj
 0002:00006a88       _smallarg                  10026a88     libucrt:87tran.obj
 0002:00006a92       _half                      10026a92     libucrt:87tran.obj
 0002:00006ade       One                        10026ade     libucrt:87disp.obj
 0002:00006ae6       Three                      10026ae6     libucrt:87disp.obj
 0002:00006aee       XAMtoTagTab                10026aee     libucrt:87disp.obj
 0002:00006b00       One                        10026b00     libucrt:common.obj
 0002:00006b14       DblMax                     10026b14     libucrt:common.obj
 0002:00006b1c       DblMin                     10026b1c     libucrt:common.obj
 0002:00006b24       IeeeAdjO                   10026b24     libucrt:common.obj
 0002:00006b2c       IeeeAdjU                   10026b2c     libucrt:common.obj
 0002:00006b34       _infinity                  10026b34     libucrt:common.obj
 0002:00006b3c       _zero                      10026b3c     libucrt:common.obj
 0002:00006b88       _over                      10026b88     libucrt:fpctrl.obj
 0002:00006b94       _under                     10026b94     libucrt:fpctrl.obj
 0002:000073c8       ?_names@?1??_get_fname@@9@9 100273c8     libucrt:fpexcept.obj
 0002:00007570       two32                      10027570     LIBCMT:ftol2.obj
 0002:00007574       two63                      10027574     LIBCMT:ftol2.obj
 0002:00007578       _NaN                       10027578     LIBCMT:ftol2.obj
 0002:00007c70       __sehtable$?_AtlVerifyStackAvailable@_ATL_SAFE_ALLOCA_IMPL@ATL@@YA_NK@Z 10027c70     GraphicDisplay.obj
 0002:00007c90       __sehtable$___scrt_is_nonwritable_in_current_image 10027c90     LIBCMT:utility.obj
 0002:00007cac       __catchsym$??2@YAPAXIABUnothrow_t@std@@@Z$2 10027cac     LIBCMT:new_scalar_nothrow.obj
 0002:00007cbc       __unwindtable$??2@YAPAXIABUnothrow_t@std@@@Z 10027cbc     LIBCMT:new_scalar_nothrow.obj
 0002:00007ccc       __tryblocktable$??2@YAPAXIABUnothrow_t@std@@@Z 10027ccc     LIBCMT:new_scalar_nothrow.obj
 0002:00007ce0       __ehfuncinfo$??2@YAPAXIABUnothrow_t@std@@@Z 10027ce0     LIBCMT:new_scalar_nothrow.obj
 0002:00007d08       __sehtable$?dllmain_crt_process_attach@@YAHQAUHINSTANCE__@@QAX@Z 10027d08     LIBCMT:dll_dllmain.obj
 0002:00007d28       __sehtable$?dllmain_crt_process_detach@@YAH_N@Z 10027d28     LIBCMT:dll_dllmain.obj
 0002:00007d50       __sehtable$?dllmain_dispatch@@YAHQAUHINSTANCE__@@KQAX@Z 10027d50     LIBCMT:dll_dllmain.obj
 0002:00007e00       __sehtable$___DestructExceptionObject 10027e00     libvcruntime:ehhelpers.obj
 0002:00007e20       __sehtable$?FrameUnwindToState@__FrameHandler3@@SAXPAUEHRegistrationNode@@PAXPBU_s_FuncInfo@@H@Z 10027e20     libvcruntime:frame.obj
 0002:00007e48       __sehtable$?CallCatchBlock@@YAPAXPAUEHExceptionRecord@@PAUEHRegistrationNode@@PAU_CONTEXT@@PBU_s_FuncInfo@@PAXHK@Z 10027e48     libvcruntime:frame.obj
 0002:00007e70       __catchsym$?CallUnexpected@@YAXPBU_s_ESTypeList@@@Z$2 10027e70     libvcruntime:frame.obj
 0002:00007e80       __unwindtable$?CallUnexpected@@YAXPBU_s_ESTypeList@@@Z 10027e80     libvcruntime:frame.obj
 0002:00007e90       __tryblocktable$?CallUnexpected@@YAXPBU_s_ESTypeList@@@Z 10027e90     libvcruntime:frame.obj
 0002:00007ea4       __ehfuncinfo$?CallUnexpected@@YAXPBU_s_ESTypeList@@@Z 10027ea4     libvcruntime:frame.obj
 0002:00007ec8       __sehtable$??$BuildCatchObjectHelperInternal@V__FrameHandler3@@@@YAHPAUEHExceptionRecord@@PAXPBU_s_HandlerType@@PBU_s_CatchableType@@@Z 10027ec8     libvcruntime:frame.obj
 0002:00007ee8       __sehtable$??$BuildCatchObjectInternal@V__FrameHandler3@@@@YAXPAUEHExceptionRecord@@PAXPBU_s_HandlerType@@PBU_s_CatchableType@@@Z 10027ee8     libvcruntime:frame.obj
 0002:00007f40       __sehtable$??R<lambda_6e4b09c48022b2350581041d5f6b0c4c>@@QBE@XZ 10027f40     libucrt:exit.obj
 0002:00007f60       __sehtable$??$?RV<lambda_03b1d95aef87969028cfba75ccab2455>@@AAV<lambda_6e4b09c48022b2350581041d5f6b0c4c>@@V<lambda_22bdf7517842c4b3e53723af5aa32b9e>@@@?$__crt_seh_guarded_call@X@@QAEX$$QAV<lambda_03b1d95aef87969028cfba75ccab2455>@@AAV<lambda_6e4b09c48022b2350581041d5f6b0c4c>@@$$QAV<lambda_22bdf7517842c4b3e53723af5aa32b9e>@@@Z 10027f60     libucrt:exit.obj
 0002:00007f80       __sehtable$??$?RV<lambda_8e746cf0007f6ed984d6f78af1fec997>@@AAV<lambda_22ebabd17bc4fa466a2aca6d8deb888d>@@V<lambda_18ed0c0b38a6dc0daf1e7ac6d6adf05e>@@@?$__crt_seh_guarded_call@H@@QAEH$$QAV<lambda_8e746cf0007f6ed984d6f78af1fec997>@@AAV<lambda_22ebabd17bc4fa466a2aca6d8deb888d>@@$$QAV<lambda_18ed0c0b38a6dc0daf1e7ac6d6adf05e>@@@Z 10027f80     libucrt:onexit.obj
 0002:00007fa0       __sehtable$??$?RV<lambda_69a2805e680e0e292e8ba93315fe43a8>@@AAV<lambda_f03950bc5685219e0bcd2087efbe011e>@@V<lambda_03fcd07e894ec930e3f35da366ca99d6>@@@?$__crt_seh_guarded_call@H@@QAEH$$QAV<lambda_69a2805e680e0e292e8ba93315fe43a8>@@AAV<lambda_f03950bc5685219e0bcd2087efbe011e>@@$$QAV<lambda_03fcd07e894ec930e3f35da366ca99d6>@@@Z 10027fa0     libucrt:onexit.obj
 0002:00007fc0       __sehtable$__query_new_handler 10027fc0     libucrt:new_handler.obj
 0002:00007fe0       __sehtable$_terminate      10027fe0     libucrt:terminate.obj
 0002:00008000       __sehtable$??$?RV<lambda_15ade71b0218206bbe3333a0c9b79046>@@AAV<lambda_da44e0f8b0f19ba52fefafb335991732>@@V<lambda_207f2d024fc103971653565357d6cd41>@@@?$__crt_seh_guarded_call@X@@QAEX$$QAV<lambda_15ade71b0218206bbe3333a0c9b79046>@@AAV<lambda_da44e0f8b0f19ba52fefafb335991732>@@$$QAV<lambda_207f2d024fc103971653565357d6cd41>@@@Z 10028000     libucrt:per_thread_data.obj
 0002:00008020       __sehtable$??$?RV<lambda_a7e850c220f1c8d1e6efeecdedd162c6>@@AAV<lambda_46720907175c18b6c9d2717bc0d2d362>@@V<lambda_9048902d66e8d99359bc9897bbb930a8>@@@?$__crt_seh_guarded_call@X@@QAEX$$QAV<lambda_a7e850c220f1c8d1e6efeecdedd162c6>@@AAV<lambda_46720907175c18b6c9d2717bc0d2d362>@@$$QAV<lambda_9048902d66e8d99359bc9897bbb930a8>@@@Z 10028020     libucrt:per_thread_data.obj
 0002:00008040       __sehtable$??$?RV<lambda_38edbb1296d33220d7e4dd0ed76b244a>@@AAV<lambda_5ce1d447e08cb34b2473517608e21441>@@V<lambda_fb385d3da700c9147fc39e65dd577a8c>@@@?$__crt_seh_guarded_call@X@@QAEX$$QAV<lambda_38edbb1296d33220d7e4dd0ed76b244a>@@AAV<lambda_5ce1d447e08cb34b2473517608e21441>@@$$QAV<lambda_fb385d3da700c9147fc39e65dd577a8c>@@@Z 10028040     libucrt:per_thread_data.obj
 0002:00008060       __sehtable$??$?RV<lambda_6affb1475c98b40b75cdec977db92e3c>@@AAV<lambda_b8d4b9c228a6ecc3f80208dbb4b4a104>@@V<lambda_608742c3c92a14382c1684fc64f96c88>@@@?$__crt_seh_guarded_call@X@@QAEX$$QAV<lambda_6affb1475c98b40b75cdec977db92e3c>@@AAV<lambda_b8d4b9c228a6ecc3f80208dbb4b4a104>@@$$QAV<lambda_608742c3c92a14382c1684fc64f96c88>@@@Z 10028060     libucrt:per_thread_data.obj
 0002:00008080       __sehtable$??$?RV<lambda_e5124f882df8998aaf41531e079ba474>@@AAV<lambda_3e16ef9562a7dcce91392c22ab16ea36>@@V<lambda_e25ca0880e6ef98be67edffd8c599615>@@@?$__crt_seh_guarded_call@X@@QAEX$$QAV<lambda_e5124f882df8998aaf41531e079ba474>@@AAV<lambda_3e16ef9562a7dcce91392c22ab16ea36>@@$$QAV<lambda_e25ca0880e6ef98be67edffd8c599615>@@@Z 10028080     libucrt:wsetlocale.obj
 0002:000080a0       __sehtable$___acrt_initialize_lowio 100280a0     libucrt:ioinit.obj
 0002:000080c0       __sehtable$?update_thread_multibyte_data_internal@@YAPAU__crt_multibyte_data@@QAU__acrt_ptd@@QAPAU1@@Z 100280c0     libucrt:mbctype.obj
 0002:000080e0       __sehtable$??$?RV<lambda_ceb1ee4838e85a9d631eb091e2fbe199>@@AAV<lambda_ae742caa10f662c28703da3d2ea5e57e>@@V<lambda_cd08b5d6af4937fe54fc07d0c9bf6b37>@@@?$__crt_seh_guarded_call@X@@QAEX$$QAV<lambda_ceb1ee4838e85a9d631eb091e2fbe199>@@AAV<lambda_ae742caa10f662c28703da3d2ea5e57e>@@$$QAV<lambda_cd08b5d6af4937fe54fc07d0c9bf6b37>@@@Z 100280e0     libucrt:mbctype.obj
 0002:00008100       __sehtable$_raise          10028100     libucrt:signal.obj
 0002:00008120       __sehtable$??$?RV<lambda_cbab9ec6f41b0180b23cc171c22676b0>@@AAV<lambda_44731a7d0e6d81c3e6aa82d741081786>@@V<lambda_4b292cb8dd18144e164572427af410ab>@@@?$__crt_seh_guarded_call@P6AXH@Z@@QAEP6AXH@Z$$QAV<lambda_cbab9ec6f41b0180b23cc171c22676b0>@@AAV<lambda_44731a7d0e6d81c3e6aa82d741081786>@@$$QAV<lambda_4b292cb8dd18144e164572427af410ab>@@@Z 10028120     libucrt:signal.obj
 0002:00008140       __sehtable$??$?RV<lambda_2866be3712abc81a800a822484c830d8>@@AAV<lambda_39ca0ed439415581b5b15c265174cece>@@V<lambda_2b24c74d71094a6cd0cb82e44167d71b>@@@?$__crt_seh_guarded_call@X@@QAEX$$QAV<lambda_2866be3712abc81a800a822484c830d8>@@AAV<lambda_39ca0ed439415581b5b15c265174cece>@@$$QAV<lambda_2b24c74d71094a6cd0cb82e44167d71b>@@@Z 10028140     libucrt:fflush.obj
 0002:00008160       __sehtable$??$?RV<lambda_2cc53f568c5a2bb6f192f930a45d44ea>@@AAV<lambda_ab61a845afdef5b7c387490eaf3616ee>@@V<lambda_c2ffc0b7726aa6be21d5f0026187e748>@@@?$__crt_seh_guarded_call@X@@QAEX$$QAV<lambda_2cc53f568c5a2bb6f192f930a45d44ea>@@AAV<lambda_ab61a845afdef5b7c387490eaf3616ee>@@$$QAV<lambda_c2ffc0b7726aa6be21d5f0026187e748>@@@Z 10028160     libucrt:fflush.obj
 0002:00008180       __sehtable$___acrt_update_thread_locale_data 10028180     libucrt:locale_refcounting.obj
 0002:000081a0       __sehtable$__fcloseall     100281a0     libucrt:closeall.obj
 0002:000081c0       __sehtable$___acrt_lowio_ensure_fh_exists 100281c0     libucrt:osfinfo.obj
 0002:000081e0       __sehtable$??$?RV<lambda_9e9de3de5fa147e2223d7db92bc10aa6>@@AAV<lambda_38ce7e780aa69e748d6df282ebc68efe>@@V<lambda_8ca6da459f0f6780f1cff60fdc3d00e5>@@@?$__crt_seh_guarded_call@H@@QAEH$$QAV<lambda_9e9de3de5fa147e2223d7db92bc10aa6>@@AAV<lambda_38ce7e780aa69e748d6df282ebc68efe>@@$$QAV<lambda_8ca6da459f0f6780f1cff60fdc3d00e5>@@@Z 100281e0     libucrt:commit.obj
 0002:00008200       __sehtable$__write         10028200     libucrt:write.obj
 0002:00008220       __sehtable$_fclose         10028220     libucrt:fclose.obj
 0002:00008240       __sehtable$??$?RV<lambda_218ce3db14220d0be481dae8ef3383b6>@@AAV<lambda_628dfdc04ba53c8bfc02c9951375f3f5>@@V<lambda_57dc472bd5c9d5f3b2cbca59b8a843ae>@@@?$__crt_seh_guarded_call@H@@QAEH$$QAV<lambda_218ce3db14220d0be481dae8ef3383b6>@@AAV<lambda_628dfdc04ba53c8bfc02c9951375f3f5>@@$$QAV<lambda_57dc472bd5c9d5f3b2cbca59b8a843ae>@@@Z 10028240     libucrt:close.obj
 0002:00008260       __sehtable$___set_fpsr_sse2 10028260     libucrt:fpctrl.obj
 0002:00008280       __sehtable$__IsNonwritableInCurrentImage 10028280     LIBCMT:pesect.obj
 0002:000082b0       .edata                     100282b0     OPOSGraphicDisplay.exp
 0002:000082d8       rgpv                       100282d8     OPOSGraphicDisplay.exp
 0002:000082e8       rgszName                   100282e8     OPOSGraphicDisplay.exp
 0002:000082f8       rgwOrd                     100282f8     OPOSGraphicDisplay.exp
 0002:00008300       szName                     10028300     OPOSGraphicDisplay.exp
 0002:00008317       $N00001                    10028317     OPOSGraphicDisplay.exp
 0002:00008327       $N00002                    10028327     OPOSGraphicDisplay.exp
 0002:00008339       $N00003                    10028339     OPOSGraphicDisplay.exp
 0002:0000834b       $N00004                    1002834b     OPOSGraphicDisplay.exp
 0002:0000895a       .idata$6                   1002895a     kernel32:KERNEL32.dll
 0002:00008b6e       .idata$6                   10028b6e     user32:USER32.dll
 0002:00008ca2       .idata$6                   10028ca2     gdi32:GDI32.dll
 0002:00008d48       .idata$6                   10028d48     advapi32:ADVAPI32.dll
 0002:00008e64       .idata$6                   10028e64     ole32:ole32.dll
 0002:00008e6e       .idata$6                   10028e6e     oleaut32:OLEAUT32.dll
 0003:00000110       ?ObjectMap@@3PAU_ATL_OBJMAP_ENTRY30@ATL@@A 1002a110     GraphicDisplay.obj
 0003:000001c0       ?s_SOMethodNames@@3PAPADA  1002a1c0     GraphicDisplayImpl.obj
 0003:00000228       ?s_RequiredMethodsPerRelease@@3PAHA 1002a228     GraphicDisplayImpl.obj
 0003:00000250       ?__vcrt_flsindex@@3KA      1002a250     libvcruntime:per_thread_data.obj
 0003:00000270       ?errno_no_memory@@3HA      1002a270     libucrt:errno.obj
 0003:00000274       ?doserrno_no_memory@@3KA   1002a274     libucrt:errno.obj
 0003:00000280       ?__acrt_flsindex@@3KA      1002a280     libucrt:per_thread_data.obj
 0003:00000618       __mbctypes                 1002a618     libucrt:mbctype.obj
 0003:00000720       __mbcasemaps               1002a720     libucrt:mbctype.obj
 0003:00000820       ?__rgctypeflag@@3PADA      1002a820     libucrt:mbctype.obj
 0003:00000828       ?__rgcode_page_info@@3PAUcode_page_info@@A 1002a828     libucrt:mbctype.obj
 0003:00000a80       ?__dcrt_lowio_console_output_handle@@3PAXA 1002aa80     libucrt:initcon.obj
 0003:00000a84       ?__DAZ_ENABLED@?1??__set_fpsr_sse2@@9@9 1002aa84     libucrt:fpctrl.obj
 0003:00000c18       ?is_initialized_as_dll@@3_NA 1002ac18     LIBCMT:utility.obj
 0003:00000c19       ?module_local_atexit_table_initialized@@3_NA 1002ac19     LIBCMT:utility.obj
 0003:00000c1c       ?module_local_atexit_table@@3U_onexit_table_t@@A 1002ac1c     LIBCMT:utility.obj
 0003:00000c28       ?module_local_at_quick_exit_table@@3U_onexit_table_t@@A 1002ac28     LIBCMT:utility.obj
 0003:00000c34       ?g_tss_cv@@3U_RTL_CONDITION_VARIABLE@@A 1002ac34     LIBCMT:thread_safe_statics.obj
 0003:00000c38       ?g_tss_event@@3PAXA        1002ac38     LIBCMT:thread_safe_statics.obj
 0003:00000c3c       ?g_tss_mutex@@3U_RTL_CRITICAL_SECTION@@A 1002ac3c     LIBCMT:thread_safe_statics.obj
 0003:00000c54       ?g_sleep_condition_variable_cs@@3P6GHPAU_RTL_CONDITION_VARIABLE@@PAU_RTL_CRITICAL_SECTION@@K@ZA 1002ac54     LIBCMT:thread_safe_statics.obj
 0003:00000c58       ?g_wake_all_condition_variable@@3P6GXPAU_RTL_CONDITION_VARIABLE@@@ZA 1002ac58     LIBCMT:thread_safe_statics.obj
 0003:00000c60       _GS_ExceptionRecord        1002ac60     LIBCMT:gs_report.obj
 0003:00000cb0       _GS_ContextRecord          1002acb0     LIBCMT:gs_report.obj
 0003:00000f80       ?__proc_attached@@3HA      1002af80     LIBCMT:dll_dllmain.obj
 0003:00000fe4       ?AllocateData@@3P6GPAUAtlThunkData_t@@XZA 1002afe4     atls:atlthunk.obj
 0003:00000fe8       ?InitData@@3P6GXPAUAtlThunkData_t@@PAXI@ZA 1002afe8     atls:atlthunk.obj
 0003:00000fec       ?DataToCode@@3P6GP6GJPAUHWND__@@IIJ@ZPAUAtlThunkData_t@@@ZA 1002afec     atls:atlthunk.obj
 0003:00000ff0       ?FreeData@@3P6GXPAUAtlThunkData_t@@@ZA 1002aff0     atls:atlthunk.obj
 0003:00000ff4       ?Initialized@@3_NA         1002aff4     atls:atlthunk.obj
 0003:00001004       ?__vcrt_startup_thread_ptd@@3U__vcrt_ptd@@A 1002b004     libvcruntime:per_thread_data.obj
 0003:0000102c       ___vcrt_lock_table         1002b02c     libvcruntime:locks.obj
 0003:00001044       ___vcrt_locks_initialized  1002b044     libvcruntime:locks.obj
 0003:00001070       ?heap@@3V_HeapManager@@A   1002b070     libvcruntime:undname.obj
 0003:00001084       ?module_handles@@3PAPAUHINSTANCE__@@A 1002b084     libvcruntime:winapi_downlevel.obj
 0003:00001090       ?function_pointers@@3PAPAXA 1002b090     libvcruntime:winapi_downlevel.obj
 0003:000010a4       ?__acrt_invalid_parameter_handler@@3V?$dual_state_global@P6AXPB_W00II@Z@__crt_state_management@@A 1002b0a4     libucrt:invalid_parameter.obj
 0003:000010a8       ?c_termination_complete@@3JA 1002b0a8     libucrt:exit.obj
 0003:000010ac       ?thread_local_exit_callback_func@@3P6GXPAXK0@ZA 1002b0ac     libucrt:exit.obj
 0003:000010b8       ?program_name@?1???$common_configure_argv@D@@YAHW4_crt_argv_mode@@@Z@4PADA 1002b0b8     libucrt:argv_parsing.obj
 0003:000011e8       ?__acrt_new_handler@@3V?$dual_state_global@P6AHI@Z@__crt_state_management@@A 1002b1e8     libucrt:new_handler.obj
 0003:000011f0       ?module_handles@@3PAPAUHINSTANCE__@@A 1002b1f0     libucrt:winapi_thunks.obj
 0003:00001240       ?encoded_function_pointers@@3PAPAXA 1002b240     libucrt:winapi_thunks.obj
 0003:000012c8       ?internal_state@?1??_mbtowc_l@@9@4U_Mbstatet@@A 1002b2c8     libucrt:mbtowc.obj
 0003:000012d8       ?enable_percent_n@@3IA     1002b2d8     libucrt:printf_count_output.obj
 0003:000014f8       ?__acrt_lock_table@@3PAU_RTL_CRITICAL_SECTION@@A 1002b4f8     libucrt:locks.obj
 0003:00001648       ?__acrt_locks_initialized@@3IA 1002b648     libucrt:locks.obj
 0003:00001658       ?fSystemSet@@3HA           1002b658     libucrt:mbctype.obj
 0003:0000165c       ?initialized@?1??__acrt_initialize_multibyte@@9@4_NA 1002b65c     libucrt:mbctype.obj
 0003:0000167c       ?ctrlc_action@@3V?$dual_state_global@P6AXH@Z@__crt_state_management@@A 1002b67c     libucrt:signal.obj
 0003:00001680       ?ctrlbreak_action@@3V?$dual_state_global@P6AXH@Z@__crt_state_management@@A 1002b680     libucrt:signal.obj
 0003:00001684       ?abort_action@@3V?$dual_state_global@P6AXH@Z@__crt_state_management@@A 1002b684     libucrt:signal.obj
 0003:00001688       ?term_action@@3V?$dual_state_global@P6AXH@Z@__crt_state_management@@A 1002b688     libucrt:signal.obj
 0003:0000168c       ?user_matherr@@3V?$dual_state_global@P6AHPAU_exception@@@Z@__crt_state_management@@A 1002b68c     libucrt:matherr.obj
 0003:00001690       ?__acrt_global_new_mode@@3V?$dual_state_global@J@__crt_state_management@@A 1002b690     libucrt:new_mode.obj
 0003:0000169c       ?internal_pst@?1??__mbrtoc32_utf8@__crt_mbstring@@YAIPA_UPBDIPAU_Mbstatet@@@Z@4U3@A 1002b69c     libucrt:mbrtoc32.obj
 0003:000016a4       ?__acrt_app_type@@3W4_crt_app_type@@A 1002b6a4     libucrt:report_runtime_error.obj
 0003:000016ac       __pmatherr_set             1002b6ac     libucrt:libm_error.obj
 0004:00000220       $R000000                   1002c220     GraphicDisplay.res
 0004:00000b70       $R000950                   1002cb70     GraphicDisplay.res
 0004:00000c58       $R000A38                   1002cc58     GraphicDisplay.res
 0004:00000ec0       $R000CA0                   1002cec0     GraphicDisplay.res
 0004:000013a0       $R001180                   1002d3a0     GraphicDisplay.res
 0004:000043a0       $R004180                   100303a0     GraphicDisplay.res
 0004:000043e0       $R0041C0                   100303e0     GraphicDisplay.res
