 OPOSRemoteOrderDisplay

 Timestamp is 5b863ec8 (Wed Aug 29 15:35:52 2018)

 Preferred load address is 10000000

 Start         Length     Name                   Class
 0001:00000000 00000080H .text$di                CODE
 0001:00000080 0001dc9bH .text$mn                CODE
 0001:0001dd1b 00000051H .text$x                 CODE
 0001:0001dd6c 00000042H .text$yd                CODE
 0002:00000000 000002fcH .idata$5                DATA
 0002:000002fc 00000004H .00cfg                  DATA
 0002:00000300 00000004H .CRT$XCA                DATA
 0002:00000304 00000004H .CRT$XCL                DATA
 0002:00000308 00000010H .CRT$XCU                DATA
 0002:00000318 00000004H .CRT$XCZ                DATA
 0002:0000031c 00000004H .CRT$XIA                DATA
 0002:00000320 00000010H .CRT$XIC                DATA
 0002:00000330 00000004H .CRT$XIZ                DATA
 0002:00000334 00000004H .CRT$XLA                DATA
 0002:00000338 00000004H .CRT$XLZ                DATA
 0002:0000033c 00000004H .CRT$XPA                DATA
 0002:00000340 00000008H .CRT$XPX                DATA
 0002:00000348 00000004H .CRT$XPXA               DATA
 0002:0000034c 00000004H .CRT$XPZ                DATA
 0002:00000350 00000004H .CRT$XTA                DATA
 0002:00000354 0000000cH .CRT$XTZ                DATA
 0002:00000358 00000000H .gfids$y                DATA
 0002:00000360 00006fb8H .rdata                  DATA
 0002:00007318 00000018H .rdata$T                DATA
 0002:00007330 00000180H .rdata$r                DATA
 0002:000074b0 00000020H .rdata$sxdata           DATA
 0002:000074d0 000003e8H .rdata$zzzdbg           DATA
 0002:000078b8 00000004H .rtc$IAA                DATA
 0002:000078bc 00000004H .rtc$IZZ                DATA
 0002:000078c0 00000004H .rtc$TAA                DATA
 0002:000078c4 00000004H .rtc$TZZ                DATA
 0002:000078c8 00000004H .tls                    DATA
 0002:000078cc 00000004H .tls$                   DATA
 0002:000078d0 00000008H .tls$ZZZ                DATA
 0002:000078d8 00000624H .xdata$x                DATA
 0002:00007efc 00000004H ATL$__a                 DATA
 0002:00007f00 00000010H ATL$__z                 DATA
 0002:00007f10 000000b4H .edata                  DATA
 0002:00007fc4 00000078H .idata$2                DATA
 0002:0000803c 00000014H .idata$3                DATA
 0002:00008050 000002fcH .idata$4                DATA
 0002:0000834c 00000bc0H .idata$6                DATA
 0003:00000000 000009e0H .data                   DATA
 0003:000009e0 00000098H .data$r                 DATA
 0003:00000a78 00000b68H .bss                    DATA
 0004:00000000 00000220H .rsrc$01                DATA
 0004:00000220 00005630H .rsrc$02                DATA

  Address         Publics by Value              Rva+Base       Lib:Object

 0000:00000000       ___guard_iat_count         00000000     <absolute>
 0000:00000000       ___guard_longjmp_count     00000000     <absolute>
 0000:00000000       ___guard_fids_count        00000000     <absolute>
 0000:00000000       ___guard_longjmp_table     00000000     <absolute>
 0000:00000000       ___hybrid_code_map_count   00000000     <absolute>
 0000:00000000       __except_list              00000000     <absolute>
 0000:00000000       ___guard_fids_table        00000000     <absolute>
 0000:00000000       ___hybrid_auxiliary_iat    00000000     <absolute>
 0000:00000000       ___dynamic_value_reloc_table 00000000     <absolute>
 0000:00000000       ___guard_iat_table         00000000     <absolute>
 0000:00000000       ___volatile_metadata       00000000     <absolute>
 0000:00000000       ___enclave_config          00000000     <absolute>
 0000:00000000       ___hybrid_code_map         00000000     <absolute>
 0000:00000008       ___safe_se_handler_count   00000008     <absolute>
 0000:0000002c       __tls_array                0000002c     <absolute>
 0000:00000100       ___guard_flags             00000100     <absolute>
 0000:00000000       ___ImageBase               10000000     <linker-defined>
 0001:00000080       ?DupWide@_CW@@AAEXXZ       10001080 f   CWString.obj
 0001:0000009c       ?cw_dup@@YGXPBDAAHAAPA_W1@Z 1000109c f   CWString.obj
 0001:0000010b       ?cw_memcpy@@YGHPA_WPBDH@Z  1000110b f   CWString.obj
 0001:00000137       ?cw_strcpy@@YAHPA_WPBD@Z   10001137 f   CWString.obj
 0001:0000014a       ?cw_strlen@@YAHPBD@Z       1000114a f   CWString.obj
 0001:00000163       ??0CAtlComModule@ATL@@QAE@XZ 10001163 f i OposVariant.obj
 0001:000001a8       ??0CAtlWinModule@ATL@@QAE@XZ 100011a8 f i OposVariant.obj
 0001:000001df       ??0OposDispParms@@QAE@PAVOposVariant@@H@Z 100011df f   OposVariant.obj
 0001:00000250       ??1OposDispParms@@QAE@XZ   10001250 f   OposVariant.obj
 0001:0000025e       ??A?$CSimpleArray@GV?$CSimpleArrayEqualHelper@G@ATL@@@ATL@@QAEAAGH@Z 1000125e f i OposVariant.obj
 0001:00000283       ??_Estringdispid@CComTypeInfoHolder@ATL@@QAEPAXI@Z 10001283 f i OposVariant.obj
 0001:000002ef       ?AtlWinModuleInit@ATL@@YGJPAU_ATL_WIN_MODULE70@1@@Z 100012ef f i OposVariant.obj
 0001:00000315       ?AtlWinModuleTerm@ATL@@YGJPAU_ATL_WIN_MODULE70@1@PAUHINSTANCE__@@@Z 10001315 f i OposVariant.obj
 0001:00000378       ?ChangeBSTR@OposVariant@@QAEXPAPA_WAAJ@Z 10001378 f   OposVariant.obj
 0001:000003b9       ?ChangeLONG@OposVariant@@QAEXPAJAAJ@Z 100013b9 f   OposVariant.obj
 0001:000003fa       ?GetLONG@OposVariant@@QAEJXZ 100013fa f   OposVariant.obj
 0001:00000415       ?Init@CComCriticalSection@ATL@@QAEJXZ 10001415 f i OposVariant.obj
 0001:0000043c       ?RemoveAll@?$CSimpleArray@PAUHINSTANCE__@@V?$CSimpleArrayEqualHelper@PAUHINSTANCE__@@@ATL@@@ATL@@QAEXXZ 1000143c f i atls:atlbase.obj
 0001:0000043c       ?RemoveAll@?$CSimpleArray@GV?$CSimpleArrayEqualHelper@G@ATL@@@ATL@@QAEXXZ 1000143c f i OposVariant.obj
 0001:00000459       ?SetBSTR@OposVariant@@QAEXPA_WAAJ@Z 10001459 f   OposVariant.obj
 0001:0000048d       ?SetBSTR_Copy@OposVariant@@QAEXPA_WAAJ@Z 1000148d f   OposVariant.obj
 0001:000004dd       ?SetBSTR_InOutPtr@OposVariant@@QAE_NPAPA_WAAJ@Z 100014dd f   OposVariant.obj
 0001:00000514       ?SetDispatch_Ptr@OposVariant@@QAEXPAUIDispatch@@AAJ@Z 10001514 f   OposVariant.obj
 0001:0000054f       ?SetLONG@OposVariant@@QAEXJ@Z 1000154f f   OposVariant.obj
 0001:00000571       ?SetLONG_Ptr@OposVariant@@QAEXPAJAAJ@Z 10001571 f   OposVariant.obj
 0001:000005a4       ?SetString@OposVariant@@QAEXPB_WAAJ@Z 100015a4 f   OposVariant.obj
 0001:000005ea       ?SetVARIANT_BOOL@OposVariant@@QAEXF@Z 100015ea f   OposVariant.obj
 0001:00000614       ?Term@CAtlComModule@ATL@@QAEXXZ 10001614 f i OposVariant.obj
 0001:0000065e       ?_AtlRaiseException@ATL@@YAXKK@Z 1000165e f i OposVariant.obj
 0001:00000673       ?Close@?$IOleObjectImpl@VCOPOSRemoteOrderDisplay@@@ATL@@UAGJK@Z 10001673 f i RemoteOrderDisplay.obj
 0001:00000690       ?SetMoniker@?$IOleObjectImpl@VCOPOSRemoteOrderDisplay@@@ATL@@UAGJKPAUIMoniker@@@Z 10001690 f i RemoteOrderDisplay.obj
 0001:00000690       ?GetCanonicalFormatEtc@?$IDataObjectImpl@VCOPOSRemoteOrderDisplay@@@ATL@@UAGJPAUtagFORMATETC@@0@Z 10001690 f i RemoteOrderDisplay.obj
 0001:00000690       ?GetDataHere@?$IDataObjectImpl@VCOPOSRemoteOrderDisplay@@@ATL@@UAGJPAUtagFORMATETC@@PAUtagSTGMEDIUM@@@Z 10001690 f i RemoteOrderDisplay.obj
 0001:00000690       ?GetRect@?$IViewObjectExImpl@VCOPOSRemoteOrderDisplay@@@ATL@@UAGJKPAU_RECTL@@@Z 10001690 f i RemoteOrderDisplay.obj
 0001:00000690       ?GetClipboardData@?$IOleObjectImpl@VCOPOSRemoteOrderDisplay@@@ATL@@UAGJKPAPAUIDataObject@@@Z 10001690 f i RemoteOrderDisplay.obj
 0001:00000690       ?EnumFormatEtc@?$IDataObjectImpl@VCOPOSRemoteOrderDisplay@@@ATL@@UAGJKPAPAUIEnumFORMATETC@@@Z 10001690 f i RemoteOrderDisplay.obj
 0001:00000690       ?QueryInterface@CRegObject@ATL@@UAGJABU_GUID@@PAPAX@Z 10001690 f i RemoteOrderDisplay.obj
 0001:00000698       ?InitFromData@?$IOleObjectImpl@VCOPOSRemoteOrderDisplay@@@ATL@@UAGJPAUIDataObject@@HK@Z 10001698 f i RemoteOrderDisplay.obj
 0001:00000698       ?GetMoniker@?$IOleObjectImpl@VCOPOSRemoteOrderDisplay@@@ATL@@UAGJKKPAPAUIMoniker@@@Z 10001698 f i RemoteOrderDisplay.obj
 0001:00000698       ?SetData@?$IDataObjectImpl@VCOPOSRemoteOrderDisplay@@@ATL@@UAGJPAUtagFORMATETC@@PAUtagSTGMEDIUM@@H@Z 10001698 f i RemoteOrderDisplay.obj
 0001:000006a0       ?DoVerb@?$IOleObjectImpl@VCOPOSRemoteOrderDisplay@@@ATL@@UAGJJPAUtagMSG@@PAUIOleClientSite@@JPAUHWND__@@PBUtagRECT@@@Z 100016a0 f i RemoteOrderDisplay.obj
 0001:000007b8       ?EnumVerbs@?$IOleObjectImpl@VCOPOSRemoteOrderDisplay@@@ATL@@UAGJPAPAUIEnumOLEVERB@@@Z 100017b8 f i RemoteOrderDisplay.obj
 0001:000007da       ?HandsOffStorage@?$IPersistStorageImpl@VCOPOSRemoteOrderDisplay@@@ATL@@UAGJXZ 100017da f i RemoteOrderDisplay.obj
 0001:000007da       ?Release@CRegObject@ATL@@UAGKXZ 100017da f i RemoteOrderDisplay.obj
 0001:000007da       ?Update@?$IOleObjectImpl@VCOPOSRemoteOrderDisplay@@@ATL@@UAGJXZ 100017da f i RemoteOrderDisplay.obj
 0001:000007da       ?IsUpToDate@?$IOleObjectImpl@VCOPOSRemoteOrderDisplay@@@ATL@@UAGJXZ 100017da f i RemoteOrderDisplay.obj
 0001:000007df       ?GetClassID@?$IPersistStreamInitImpl@VCOPOSRemoteOrderDisplay@@@ATL@@UAGJPAU_GUID@@@Z 100017df f i RemoteOrderDisplay.obj
 0001:000007df       ?GetClassID@?$IPersistStorageImpl@VCOPOSRemoteOrderDisplay@@@ATL@@UAGJPAU_GUID@@@Z 100017df f i RemoteOrderDisplay.obj
 0001:000007df       ?GetUserClassID@?$IOleObjectImpl@VCOPOSRemoteOrderDisplay@@@ATL@@UAGJPAU_GUID@@@Z 100017df f i RemoteOrderDisplay.obj
 0001:00000803       ?GetUserType@?$IOleObjectImpl@VCOPOSRemoteOrderDisplay@@@ATL@@UAGJKPAPA_W@Z 10001803 f i RemoteOrderDisplay.obj
 0001:0000081b       ?SetExtent@?$IOleObjectImpl@VCOPOSRemoteOrderDisplay@@@ATL@@UAGJKPAUtagSIZE@@@Z 1000181b f i RemoteOrderDisplay.obj
 0001:0000083b       ?GetExtent@?$IOleObjectImpl@VCOPOSRemoteOrderDisplay@@@ATL@@UAGJKPAUtagSIZE@@@Z 1000183b f i RemoteOrderDisplay.obj
 0001:00000879       ?Advise@?$IOleObjectImpl@VCOPOSRemoteOrderDisplay@@@ATL@@UAGJPAUIAdviseSink@@PAK@Z 10001879 f i RemoteOrderDisplay.obj
 0001:00000899       ?Unadvise@?$IOleObjectImpl@VCOPOSRemoteOrderDisplay@@@ATL@@UAGJK@Z 10001899 f i RemoteOrderDisplay.obj
 0001:000008c8       ?EnumAdvise@?$IOleObjectImpl@VCOPOSRemoteOrderDisplay@@@ATL@@UAGJPAPAUIEnumSTATDATA@@@Z 100018c8 f i RemoteOrderDisplay.obj
 0001:00000908       ?GetMiscStatus@?$IOleObjectImpl@VCOPOSRemoteOrderDisplay@@@ATL@@UAGJKPAK@Z 10001908 f i RemoteOrderDisplay.obj
 0001:00000920       ?GetControlInfo@?$IOleControlImpl@VCOPOSRemoteOrderDisplay@@@ATL@@UAGJPAUtagCONTROLINFO@@@Z 10001920 f i RemoteOrderDisplay.obj
 0001:00000920       ?QueryGetData@?$IDataObjectImpl@VCOPOSRemoteOrderDisplay@@@ATL@@UAGJPAUtagFORMATETC@@@Z 10001920 f i RemoteOrderDisplay.obj
 0001:00000920       ?Unfreeze@?$IViewObjectExImpl@VCOPOSRemoteOrderDisplay@@@ATL@@UAGJK@Z 10001920 f i RemoteOrderDisplay.obj
 0001:00000920       ?GetDropTarget@?$IOleInPlaceObjectWindowlessImpl@VCOPOSRemoteOrderDisplay@@@ATL@@UAGJPAPAUIDropTarget@@@Z 10001920 f i RemoteOrderDisplay.obj
 0001:00000920       ?ContextSensitiveHelp@?$IOleInPlaceActiveObjectImpl@VCOPOSRemoteOrderDisplay@@@ATL@@UAGJH@Z 10001920 f i RemoteOrderDisplay.obj
 0001:00000920       ?SetColorScheme@?$IOleObjectImpl@VCOPOSRemoteOrderDisplay@@@ATL@@UAGJPAUtagLOGPALETTE@@@Z 10001920 f i RemoteOrderDisplay.obj
 0001:00000920       ?OnMnemonic@?$IOleControlImpl@VCOPOSRemoteOrderDisplay@@@ATL@@UAGJPAUtagMSG@@@Z 10001920 f i RemoteOrderDisplay.obj
 0001:00000920       ?ContextSensitiveHelp@?$IOleInPlaceObjectWindowlessImpl@VCOPOSRemoteOrderDisplay@@@ATL@@UAGJH@Z 10001920 f i RemoteOrderDisplay.obj
 0001:00000928       ?GetWindow@?$IOleInPlaceActiveObjectImpl@VCOPOSRemoteOrderDisplay@@@ATL@@UAGJPAPAUHWND__@@@Z 10001928 f i RemoteOrderDisplay.obj
 0001:00000975       ?TranslateAcceleratorW@?$IOleInPlaceActiveObjectImpl@VCOPOSRemoteOrderDisplay@@@ATL@@UAGJPAUtagMSG@@@Z 10001975 f i RemoteOrderDisplay.obj
 0001:00000a13       ?OnFrameWindowActivate@?$IOleInPlaceActiveObjectImpl@VCOPOSRemoteOrderDisplay@@@ATL@@UAGJH@Z 10001a13 f i RemoteOrderDisplay.obj
 0001:00000a13       ?SaveCompleted@?$IPersistStorageImpl@VCOPOSRemoteOrderDisplay@@@ATL@@UAGJPAUIStorage@@@Z 10001a13 f i RemoteOrderDisplay.obj
 0001:00000a13       ?OnAmbientPropertyChange@?$IOleControlImpl@VCOPOSRemoteOrderDisplay@@@ATL@@UAGJJ@Z 10001a13 f i RemoteOrderDisplay.obj
 0001:00000a13       ?EnableModeless@?$IOleInPlaceActiveObjectImpl@VCOPOSRemoteOrderDisplay@@@ATL@@UAGJH@Z 10001a13 f i RemoteOrderDisplay.obj
 0001:00000a18       ?OnDocWindowActivate@?$IOleInPlaceActiveObjectImpl@VCOPOSRemoteOrderDisplay@@@ATL@@UAGJH@Z 10001a18 f i RemoteOrderDisplay.obj
 0001:00000a3a       ?ResizeBorder@?$IOleInPlaceActiveObjectImpl@VCOPOSRemoteOrderDisplay@@@ATL@@UAGJPBUtagRECT@@PAUIOleInPlaceUIWindow@@H@Z 10001a3a f i RemoteOrderDisplay.obj
 0001:00000a3f       ?Draw@?$IViewObjectExImpl@VCOPOSRemoteOrderDisplay@@@ATL@@UAGJKJPAXPAUtagDVTARGETDEVICE@@PAUHDC__@@2PBU_RECTL@@3P6GHK@ZK@Z 10001a3f f i RemoteOrderDisplay.obj
 0001:00000a71       ?GetColorSet@?$IViewObjectExImpl@VCOPOSRemoteOrderDisplay@@@ATL@@UAGJKJPAXPAUtagDVTARGETDEVICE@@PAUHDC__@@PAPAUtagLOGPALETTE@@@Z 10001a71 f i RemoteOrderDisplay.obj
 0001:00000a79       ?Freeze@?$IViewObjectExImpl@VCOPOSRemoteOrderDisplay@@@ATL@@UAGJKJPAXPAK@Z 10001a79 f i RemoteOrderDisplay.obj
 0001:00000a81       ?SetAdvise@?$IViewObjectExImpl@VCOPOSRemoteOrderDisplay@@@ATL@@UAGJKKPAUIAdviseSink@@@Z 10001a81 f i RemoteOrderDisplay.obj
 0001:00000aa0       ?GetAdvise@?$IViewObjectExImpl@VCOPOSRemoteOrderDisplay@@@ATL@@UAGJPAK0PAPAUIAdviseSink@@@Z 10001aa0 f i RemoteOrderDisplay.obj
 0001:00000ad5       ?GetExtent@?$IViewObjectExImpl@VCOPOSRemoteOrderDisplay@@@ATL@@UAGJKJPAUtagDVTARGETDEVICE@@PAUtagSIZE@@@Z 10001ad5 f i RemoteOrderDisplay.obj
 0001:00000b06       ?GetViewStatus@?$IViewObjectExImpl@VCOPOSRemoteOrderDisplay@@@ATL@@UAGJPAK@Z 10001b06 f i RemoteOrderDisplay.obj
 0001:00000b23       ?QueryHitPoint@?$IViewObjectExImpl@VCOPOSRemoteOrderDisplay@@@ATL@@UAGJKPBUtagRECT@@UtagPOINT@@JPAK@Z 10001b23 f i RemoteOrderDisplay.obj
 0001:00000b64       ?QueryHitRect@?$IViewObjectExImpl@VCOPOSRemoteOrderDisplay@@@ATL@@UAGJKPBUtagRECT@@0JPAK@Z 10001b64 f i RemoteOrderDisplay.obj
 0001:00000bbf       ?GetNaturalExtent@?$IViewObjectExImpl@VCOPOSRemoteOrderDisplay@@@ATL@@UAGJKJPAUtagDVTARGETDEVICE@@PAUHDC__@@PAUtagExtentInfo@@PAUtagSIZE@@@Z 10001bbf f i RemoteOrderDisplay.obj
 0001:00000c0a       ?GetWindow@?$IOleInPlaceObjectWindowlessImpl@VCOPOSRemoteOrderDisplay@@@ATL@@UAGJPAPAUHWND__@@@Z 10001c0a f i RemoteOrderDisplay.obj
 0001:00000c57       ?InPlaceDeactivate@?$IOleInPlaceObjectWindowlessImpl@VCOPOSRemoteOrderDisplay@@@ATL@@UAGJXZ 10001c57 f i RemoteOrderDisplay.obj
 0001:00000c71       ?UIDeactivate@?$IOleInPlaceObjectWindowlessImpl@VCOPOSRemoteOrderDisplay@@@ATL@@UAGJXZ 10001c71 f i RemoteOrderDisplay.obj
 0001:00000c8b       ?SetObjectRects@?$IOleInPlaceObjectWindowlessImpl@VCOPOSRemoteOrderDisplay@@@ATL@@UAGJPBUtagRECT@@0@Z 10001c8b f i RemoteOrderDisplay.obj
 0001:00000cab       ?ReactivateAndUndo@?$IOleInPlaceObjectWindowlessImpl@VCOPOSRemoteOrderDisplay@@@ATL@@UAGJXZ 10001cab f i RemoteOrderDisplay.obj
 0001:00000cb3       ?OnWindowMessage@?$IOleInPlaceObjectWindowlessImpl@VCOPOSRemoteOrderDisplay@@@ATL@@UAGJIIJPAJ@Z 10001cb3 f i RemoteOrderDisplay.obj
 0001:00000d23       ?EnumConnectionPoints@?$IConnectionPointContainerImpl@VCOPOSRemoteOrderDisplay@@@ATL@@UAGJPAPAUIEnumConnectionPoints@@@Z 10001d23 f i RemoteOrderDisplay.obj
 0001:00000e9d       ?FindConnectionPoint@?$IConnectionPointContainerImpl@VCOPOSRemoteOrderDisplay@@@ATL@@UAGJABU_GUID@@PAPAUIConnectionPoint@@@Z 10001e9d f i RemoteOrderDisplay.obj
 0001:00000f40       ?IsDirty@?$IPersistStorageImpl@VCOPOSRemoteOrderDisplay@@@ATL@@UAGJXZ 10001f40 f i RemoteOrderDisplay.obj
 0001:00000f74       ?InitNew@?$IPersistStorageImpl@VCOPOSRemoteOrderDisplay@@@ATL@@UAGJPAUIStorage@@@Z 10001f74 f i RemoteOrderDisplay.obj
 0001:00000fa8       ?Load@?$IPersistStorageImpl@VCOPOSRemoteOrderDisplay@@@ATL@@UAGJPAUIStorage@@@Z 10001fa8 f i RemoteOrderDisplay.obj
 0001:00001014       ?Save@?$IPersistStorageImpl@VCOPOSRemoteOrderDisplay@@@ATL@@UAGJPAUIStorage@@H@Z 10002014 f i RemoteOrderDisplay.obj
 0001:00001087       ?GetPages@?$ISpecifyPropertyPagesImpl@VCOPOSRemoteOrderDisplay@@@ATL@@UAGJPAUtagCAUUID@@@Z 10002087 f i RemoteOrderDisplay.obj
 0001:0000109e       ?QuickActivate@?$IQuickActivateImpl@VCOPOSRemoteOrderDisplay@@@ATL@@UAGJPAUtagQACONTAINER@@PAUtagQACONTROL@@@Z 1000209e f i RemoteOrderDisplay.obj
 0001:000010c1       ?SetContentExtent@?$IQuickActivateImpl@VCOPOSRemoteOrderDisplay@@@ATL@@UAGJPAUtagSIZE@@@Z 100020c1 f i RemoteOrderDisplay.obj
 0001:000010ed       ?GetContentExtent@?$IQuickActivateImpl@VCOPOSRemoteOrderDisplay@@@ATL@@UAGJPAUtagSIZE@@@Z 100020ed f i RemoteOrderDisplay.obj
 0001:0000110d       ?GetData@?$IDataObjectImpl@VCOPOSRemoteOrderDisplay@@@ATL@@UAGJPAUtagFORMATETC@@PAUtagSTGMEDIUM@@@Z 1000210d f i RemoteOrderDisplay.obj
 0001:00001130       ?DAdvise@?$IDataObjectImpl@VCOPOSRemoteOrderDisplay@@@ATL@@UAGJPAUtagFORMATETC@@KPAUIAdviseSink@@PAK@Z 10002130 f i RemoteOrderDisplay.obj
 0001:00001171       ?DUnadvise@?$IDataObjectImpl@VCOPOSRemoteOrderDisplay@@@ATL@@UAGJK@Z 10002171 f i RemoteOrderDisplay.obj
 0001:0000119f       ?EnumDAdvise@?$IDataObjectImpl@VCOPOSRemoteOrderDisplay@@@ATL@@UAGJPAPAUIEnumSTATDATA@@@Z 1000219f f i RemoteOrderDisplay.obj
 0001:000011de       ?GetClassInfoW@?$IProvideClassInfo2Impl@$1?CLSID_OPOSRemoteOrderDisplay@@3U_GUID@@B$1?DIID__IOPOSRemoteOrderDisplayEvents@@3U2@B$1?LIBID_OposRemoteOrderDisplay_CCO@@3U2@B$00$0A@VCComTypeInfoHolder@ATL@@@ATL@@UAGJPAPAUITypeInfo@@@Z 100021de f i RemoteOrderDisplay.obj
 0001:000011f4       ?GetGUID@?$IProvideClassInfo2Impl@$1?CLSID_OPOSRemoteOrderDisplay@@3U_GUID@@B$1?DIID__IOPOSRemoteOrderDisplayEvents@@3U2@B$1?LIBID_OposRemoteOrderDisplay_CCO@@3U2@B$00$0A@VCComTypeInfoHolder@ATL@@@ATL@@UAGJKPAU_GUID@@@Z 100021f4 f i RemoteOrderDisplay.obj
 0001:00001232       __get_startup_argv_mode    10002232 f i LIBCMT:argv_mode.obj
 0001:00001232       ?FAccessAllowed@?$IObjectSafetyImpl@VCOPOSRemoteOrderDisplay@@$02@ATL@@MAEHXZ 10002232 f i RemoteOrderDisplay.obj
 0001:00001236       ?GetInterfaceSafetyOptions@?$IObjectSafetyImpl@VCOPOSRemoteOrderDisplay@@$02@ATL@@UAGJABU_GUID@@PAK1@Z 10002236 f i RemoteOrderDisplay.obj
 0001:000012aa       ?SetInterfaceSafetyOptions@?$IObjectSafetyImpl@VCOPOSRemoteOrderDisplay@@$02@ATL@@UAGJABU_GUID@@KK@Z 100022aa f i RemoteOrderDisplay.obj
 0001:00001324       ?_LocCPQueryInterface@?$IConnectionPointImpl@VCOPOSRemoteOrderDisplay@@$1?IID_IPropertyNotifySink@@3U_GUID@@BVCComDynamicUnkArray@ATL@@@ATL@@UAGJABU_GUID@@PAPAX@Z 10002324 f i RemoteOrderDisplay.obj
 0001:00001324       ?_LocCPQueryInterface@?$IConnectionPointImpl@VCOPOSRemoteOrderDisplay@@$1?DIID__IOPOSRemoteOrderDisplayEvents@@3U_GUID@@BVCComDynamicUnkArray@ATL@@@ATL@@UAGJABU_GUID@@PAPAX@Z 10002324 f i RemoteOrderDisplay.obj
 0001:00001371       ?GetConnectionInterface@?$IConnectionPointImpl@VCOPOSRemoteOrderDisplay@@$1?IID_IPropertyNotifySink@@3U_GUID@@BVCComDynamicUnkArray@ATL@@@ATL@@UAGJPAU_GUID@@@Z 10002371 f i RemoteOrderDisplay.obj
 0001:00001395       ?GetConnectionPointContainer@?$IConnectionPointImpl@VCOPOSRemoteOrderDisplay@@$1?IID_IPropertyNotifySink@@3U_GUID@@BVCComDynamicUnkArray@ATL@@@ATL@@UAGJPAPAUIConnectionPointContainer@@@Z 10002395 f i RemoteOrderDisplay.obj
 0001:000013b8       ?Advise@?$IConnectionPointImpl@VCOPOSRemoteOrderDisplay@@$1?IID_IPropertyNotifySink@@3U_GUID@@BVCComDynamicUnkArray@ATL@@@ATL@@UAGJPAUIUnknown@@PAK@Z 100023b8 f i RemoteOrderDisplay.obj
 0001:000013b8       ?Advise@?$IConnectionPointImpl@VCOPOSRemoteOrderDisplay@@$1?DIID__IOPOSRemoteOrderDisplayEvents@@3U_GUID@@BVCComDynamicUnkArray@ATL@@@ATL@@UAGJPAUIUnknown@@PAK@Z 100023b8 f i RemoteOrderDisplay.obj
 0001:00001459       ?Unadvise@?$IConnectionPointImpl@VCOPOSRemoteOrderDisplay@@$1?DIID__IOPOSRemoteOrderDisplayEvents@@3U_GUID@@BVCComDynamicUnkArray@ATL@@@ATL@@UAGJK@Z 10002459 f i RemoteOrderDisplay.obj
 0001:00001459       ?Unadvise@?$IConnectionPointImpl@VCOPOSRemoteOrderDisplay@@$1?IID_IPropertyNotifySink@@3U_GUID@@BVCComDynamicUnkArray@ATL@@@ATL@@UAGJK@Z 10002459 f i RemoteOrderDisplay.obj
 0001:00001499       ?EnumConnections@?$IConnectionPointImpl@VCOPOSRemoteOrderDisplay@@$1?IID_IPropertyNotifySink@@3U_GUID@@BVCComDynamicUnkArray@ATL@@@ATL@@UAGJPAPAUIEnumConnections@@@Z 10002499 f i RemoteOrderDisplay.obj
 0001:00001499       ?EnumConnections@?$IConnectionPointImpl@VCOPOSRemoteOrderDisplay@@$1?DIID__IOPOSRemoteOrderDisplayEvents@@3U_GUID@@BVCComDynamicUnkArray@ATL@@@ATL@@UAGJPAPAUIEnumConnections@@@Z 10002499 f i RemoteOrderDisplay.obj
 0001:0000159f       ?GetCategoryMap@CComObjectRootBase@ATL@@SAPBU_ATL_CATMAP_ENTRY@2@XZ 1000259f f i RemoteOrderDisplay.obj
 0001:0000159f       ?GetObjectDescription@?$CComCoClass@VCOPOSRemoteOrderDisplay@@$1?CLSID_OPOSRemoteOrderDisplay@@3U_GUID@@B@ATL@@SGPB_WXZ 1000259f f i RemoteOrderDisplay.obj
 0001:000015a2       ?GetConnectionInterface@?$IConnectionPointImpl@VCOPOSRemoteOrderDisplay@@$1?DIID__IOPOSRemoteOrderDisplayEvents@@3U_GUID@@BVCComDynamicUnkArray@ATL@@@ATL@@UAGJPAU_GUID@@@Z 100025a2 f i RemoteOrderDisplay.obj
 0001:000015c6       ?GetConnectionPointContainer@?$IConnectionPointImpl@VCOPOSRemoteOrderDisplay@@$1?DIID__IOPOSRemoteOrderDisplayEvents@@3U_GUID@@BVCComDynamicUnkArray@ATL@@@ATL@@UAGJPAPAUIConnectionPointContainer@@@Z 100025c6 f i RemoteOrderDisplay.obj
 0001:000015e9       ?UpdateRegistry@COPOSRemoteOrderDisplay@@SGJH@Z 100025e9 f i RemoteOrderDisplay.obj
 0001:00001601       ?ProcessWindowMessage@COPOSRemoteOrderDisplay@@UAEHPAUHWND__@@IIJAAJK@Z 10002601 f i RemoteOrderDisplay.obj
 0001:0000164a       ?SOData@COPOSRemoteOrderDisplay@@MAGJJ@Z 1000264a f i RemoteOrderDisplay.obj
 0001:00001683       ?SODirectIO@COPOSRemoteOrderDisplay@@MAGJJPAJPAPA_W@Z 10002683 f i RemoteOrderDisplay.obj
 0001:000016cc       ?SOError@COPOSRemoteOrderDisplay@@MAGJJJJPAJ@Z 100026cc f i RemoteOrderDisplay.obj
 0001:00001721       ?SOOutputComplete@COPOSRemoteOrderDisplay@@MAGJJ@Z 10002721 f i RemoteOrderDisplay.obj
 0001:0000175a       ?SOStatusUpdate@COPOSRemoteOrderDisplay@@MAGJJ@Z 1000275a f i RemoteOrderDisplay.obj
 0001:00001793       ?AddRef@CRegObject@ATL@@UAGKXZ 10002793 f i RemoteOrderDisplay.obj
 0001:00001799       ?AddReplacement@CRegObject@ATL@@UAGJPB_W0@Z 10002799 f i RemoteOrderDisplay.obj
 0001:000017d2       ?ClearReplacements@CRegObject@ATL@@UAGJXZ 100027d2 f i RemoteOrderDisplay.obj
 0001:000017e4       ??_GCRegObject@ATL@@UAEPAXI@Z 100027e4 f i RemoteOrderDisplay.obj
 0001:000017e4       ??_ECRegObject@ATL@@UAEPAXI@Z 100027e4 f i RemoteOrderDisplay.obj
 0001:00001806       ?CreateInstance@?$CComCreator@V?$CComObjectCached@VCComClassFactory@ATL@@@ATL@@@ATL@@SGJPAXABU_GUID@@PAPAX@Z 10002806 f i RemoteOrderDisplay.obj
 0001:00001899       ?CreateInstance@?$CComCreator2@V?$CComCreator@V?$CComObject@VCOPOSRemoteOrderDisplay@@@ATL@@@ATL@@V?$CComCreator@V?$CComAggObject@VCOPOSRemoteOrderDisplay@@@ATL@@@2@@ATL@@SGJPAXABU_GUID@@PAPAX@Z 10002899 f i RemoteOrderDisplay.obj
 0001:000018b9       ?Next@?$CComEnumImpl@UIEnumConnectionPoints@@$1?_GUID_b196b285_bab4_101a_b69c_00aa00341d07@@3U__s_GUID@@BPAUIConnectionPoint@@V?$_CopyInterface@UIConnectionPoint@@@ATL@@@ATL@@UAGJKPAPAUIConnectionPoint@@PAK@Z 100028b9 f i RemoteOrderDisplay.obj
 0001:00001990       ?Skip@?$CComEnumImpl@UIEnumConnectionPoints@@$1?_GUID_b196b285_bab4_101a_b69c_00aa00341d07@@3U__s_GUID@@BPAUIConnectionPoint@@V?$_CopyInterface@UIConnectionPoint@@@ATL@@@ATL@@UAGJK@Z 10002990 f i RemoteOrderDisplay.obj
 0001:000019bd       ?Reset@?$CComEnumImpl@UIEnumConnectionPoints@@$1?_GUID_b196b285_bab4_101a_b69c_00aa00341d07@@3U__s_GUID@@BPAUIConnectionPoint@@V?$_CopyInterface@UIConnectionPoint@@@ATL@@@ATL@@UAGJXZ 100029bd f i RemoteOrderDisplay.obj
 0001:000019bd       ?Reset@?$CComEnumImpl@UIEnumConnections@@$1?_GUID_b196b287_bab4_101a_b69c_00aa00341d07@@3U__s_GUID@@BUtagCONNECTDATA@@V?$_Copy@UtagCONNECTDATA@@@ATL@@@ATL@@UAGJXZ 100029bd f i RemoteOrderDisplay.obj
 0001:000019cf       ?Clone@?$CComEnumImpl@UIEnumConnectionPoints@@$1?_GUID_b196b285_bab4_101a_b69c_00aa00341d07@@3U__s_GUID@@BPAUIConnectionPoint@@V?$_CopyInterface@UIConnectionPoint@@@ATL@@@ATL@@UAGJPAPAUIEnumConnectionPoints@@@Z 100029cf f i RemoteOrderDisplay.obj
 0001:00001aae       ?AddRef@?$CComObject@V?$CComEnum@UIEnumConnectionPoints@@$1?_GUID_b196b285_bab4_101a_b69c_00aa00341d07@@3U__s_GUID@@BPAUIConnectionPoint@@V?$_CopyInterface@UIConnectionPoint@@@ATL@@VCComSingleThreadModel@6@@ATL@@@ATL@@UAGKXZ 10002aae f i RemoteOrderDisplay.obj
 0001:00001aae       ?AddRef@?$CComObject@V?$CComEnum@UIEnumConnections@@$1?_GUID_b196b287_bab4_101a_b69c_00aa00341d07@@3U__s_GUID@@BUtagCONNECTDATA@@V?$_Copy@UtagCONNECTDATA@@@ATL@@VCComSingleThreadModel@6@@ATL@@@ATL@@UAGKXZ 10002aae f i RemoteOrderDisplay.obj
 0001:00001abf       ?Release@?$CComObject@V?$CComEnum@UIEnumConnectionPoints@@$1?_GUID_b196b285_bab4_101a_b69c_00aa00341d07@@3U__s_GUID@@BPAUIConnectionPoint@@V?$_CopyInterface@UIConnectionPoint@@@ATL@@VCComSingleThreadModel@6@@ATL@@@ATL@@UAGKXZ 10002abf f i RemoteOrderDisplay.obj
 0001:00001abf       ?Release@?$CComObject@V?$CComEnum@UIEnumConnections@@$1?_GUID_b196b287_bab4_101a_b69c_00aa00341d07@@3U__s_GUID@@BUtagCONNECTDATA@@V?$_Copy@UtagCONNECTDATA@@@ATL@@VCComSingleThreadModel@6@@ATL@@@ATL@@UAGKXZ 10002abf f i RemoteOrderDisplay.obj
 0001:00001afb       ?QueryInterface@?$CComObject@V?$CComEnum@UIEnumConnectionPoints@@$1?_GUID_b196b285_bab4_101a_b69c_00aa00341d07@@3U__s_GUID@@BPAUIConnectionPoint@@V?$_CopyInterface@UIConnectionPoint@@@ATL@@VCComSingleThreadModel@6@@ATL@@@ATL@@UAGJABU_GUID@@PAPAX@Z 10002afb f i RemoteOrderDisplay.obj
 0001:00001b15       ??_G?$CComObject@V?$CComEnum@UIEnumConnectionPoints@@$1?_GUID_b196b285_bab4_101a_b69c_00aa00341d07@@3U__s_GUID@@BPAUIConnectionPoint@@V?$_CopyInterface@UIConnectionPoint@@@ATL@@VCComSingleThreadModel@6@@ATL@@@ATL@@UAEPAXI@Z 10002b15 f i RemoteOrderDisplay.obj
 0001:00001b15       ??_E?$CComObject@V?$CComEnum@UIEnumConnectionPoints@@$1?_GUID_b196b285_bab4_101a_b69c_00aa00341d07@@3U__s_GUID@@BPAUIConnectionPoint@@V?$_CopyInterface@UIConnectionPoint@@@ATL@@VCComSingleThreadModel@6@@ATL@@@ATL@@UAEPAXI@Z 10002b15 f i RemoteOrderDisplay.obj
 0001:00001b37       ?AddRef@?$CComObjectCached@VCComClassFactory@ATL@@@ATL@@UAGKXZ 10002b37 f i RemoteOrderDisplay.obj
 0001:00001b5e       ?Release@?$CComObjectCached@VCComClassFactory@ATL@@@ATL@@UAGKXZ 10002b5e f i RemoteOrderDisplay.obj
 0001:00001b94       ?QueryInterface@?$CComObjectCached@VCComClassFactory@ATL@@@ATL@@UAGJABU_GUID@@PAPAX@Z 10002b94 f i RemoteOrderDisplay.obj
 0001:00001bae       ??_E?$CComObjectCached@VCComClassFactory@ATL@@@ATL@@UAEPAXI@Z 10002bae f i RemoteOrderDisplay.obj
 0001:00001bae       ??_G?$CComObjectCached@VCComClassFactory@ATL@@@ATL@@UAEPAXI@Z 10002bae f i RemoteOrderDisplay.obj
 0001:00001bd0       ?AddRef@?$CComAggObject@VCOPOSRemoteOrderDisplay@@@ATL@@UAGKXZ 10002bd0 f i RemoteOrderDisplay.obj
 0001:00001be1       ?Release@?$CComAggObject@VCOPOSRemoteOrderDisplay@@@ATL@@UAGKXZ 10002be1 f i RemoteOrderDisplay.obj
 0001:00001c1d       ?QueryInterface@?$CComAggObject@VCOPOSRemoteOrderDisplay@@@ATL@@UAGJABU_GUID@@PAPAX@Z 10002c1d f i RemoteOrderDisplay.obj
 0001:00001c6c       ?AddRef@?$CComContainedObject@VCOPOSRemoteOrderDisplay@@@ATL@@UAGKXZ 10002c6c f i RemoteOrderDisplay.obj
 0001:00001c82       ?Release@?$CComContainedObject@VCOPOSRemoteOrderDisplay@@@ATL@@UAGKXZ 10002c82 f i RemoteOrderDisplay.obj
 0001:00001c98       ?QueryInterface@?$CComContainedObject@VCOPOSRemoteOrderDisplay@@@ATL@@UAGJABU_GUID@@PAPAX@Z 10002c98 f i RemoteOrderDisplay.obj
 0001:00001cb3       ??_G?$CComAggObject@VCOPOSRemoteOrderDisplay@@@ATL@@UAEPAXI@Z 10002cb3 f i RemoteOrderDisplay.obj
 0001:00001cb3       ??_E?$CComAggObject@VCOPOSRemoteOrderDisplay@@@ATL@@UAEPAXI@Z 10002cb3 f i RemoteOrderDisplay.obj
 0001:00001cd8       ?AddRef@?$CComObject@VCOPOSRemoteOrderDisplay@@@ATL@@UAGKXZ 10002cd8 f i RemoteOrderDisplay.obj
 0001:00001cef       ?Release@?$CComObject@VCOPOSRemoteOrderDisplay@@@ATL@@UAGKXZ 10002cef f i RemoteOrderDisplay.obj
 0001:00001d31       ?QueryInterface@?$CComObject@VCOPOSRemoteOrderDisplay@@@ATL@@UAGJABU_GUID@@PAPAX@Z 10002d31 f i RemoteOrderDisplay.obj
 0001:00001d4b       ?OnFinalMessage@?$CWindowImplBaseT@VCWindow@ATL@@V?$CWinTraits@$0FGAAAAAA@$0A@@2@@ATL@@UAEXPAUHWND__@@@Z 10002d4b f i RemoteOrderDisplay.obj
 0001:00001d4b       ?ObjectMain@CComObjectRootBase@ATL@@SGX_N@Z 10002d4b f i RemoteOrderDisplay.obj
 0001:00001d4e       ?OnDrawAdvanced@CComControlBase@ATL@@UAEJAAUATL_DRAWINFO@@@Z 10002d4e f i RemoteOrderDisplay.obj
 0001:00001e3d       ?CreateInstance@CComClassFactory@ATL@@UAGJPAUIUnknown@@ABU_GUID@@PAPAX@Z 10002e3d f i RemoteOrderDisplay.obj
 0001:00001e7b       ?LockServer@CComClassFactory@ATL@@UAGJH@Z 10002e7b f i RemoteOrderDisplay.obj
 0001:00001e9a       ??_ECComClassFactory@ATL@@UAEPAXI@Z 10002e9a f i RemoteOrderDisplay.obj
 0001:00001e9a       ??_GCComClassFactory@ATL@@UAEPAXI@Z 10002e9a f i RemoteOrderDisplay.obj
 0001:00001ec5       ?Next@?$CComEnumImpl@UIEnumConnections@@$1?_GUID_b196b287_bab4_101a_b69c_00aa00341d07@@3U__s_GUID@@BUtagCONNECTDATA@@V?$_Copy@UtagCONNECTDATA@@@ATL@@@ATL@@UAGJKPAUtagCONNECTDATA@@PAK@Z 10002ec5 f i RemoteOrderDisplay.obj
 0001:00001f9c       ?Skip@?$CComEnumImpl@UIEnumConnections@@$1?_GUID_b196b287_bab4_101a_b69c_00aa00341d07@@3U__s_GUID@@BUtagCONNECTDATA@@V?$_Copy@UtagCONNECTDATA@@@ATL@@@ATL@@UAGJK@Z 10002f9c f i RemoteOrderDisplay.obj
 0001:00001fc9       ?Clone@?$CComEnumImpl@UIEnumConnections@@$1?_GUID_b196b287_bab4_101a_b69c_00aa00341d07@@3U__s_GUID@@BUtagCONNECTDATA@@V?$_Copy@UtagCONNECTDATA@@@ATL@@@ATL@@UAGJPAPAUIEnumConnections@@@Z 10002fc9 f i RemoteOrderDisplay.obj
 0001:000020a8       ?QueryInterface@?$CComObject@V?$CComEnum@UIEnumConnections@@$1?_GUID_b196b287_bab4_101a_b69c_00aa00341d07@@3U__s_GUID@@BUtagCONNECTDATA@@V?$_Copy@UtagCONNECTDATA@@@ATL@@VCComSingleThreadModel@6@@ATL@@@ATL@@UAGJABU_GUID@@PAPAX@Z 100030a8 f i RemoteOrderDisplay.obj
 0001:000020c2       ??_E?$CComObject@V?$CComEnum@UIEnumConnections@@$1?_GUID_b196b287_bab4_101a_b69c_00aa00341d07@@3U__s_GUID@@BUtagCONNECTDATA@@V?$_Copy@UtagCONNECTDATA@@@ATL@@VCComSingleThreadModel@6@@ATL@@@ATL@@UAEPAXI@Z 100030c2 f i RemoteOrderDisplay.obj
 0001:000020c2       ??_G?$CComObject@V?$CComEnum@UIEnumConnections@@$1?_GUID_b196b287_bab4_101a_b69c_00aa00341d07@@3U__s_GUID@@BUtagCONNECTDATA@@V?$_Copy@UtagCONNECTDATA@@@ATL@@VCComSingleThreadModel@6@@ATL@@@ATL@@UAEPAXI@Z 100030c2 f i RemoteOrderDisplay.obj
 0001:000020e4       ??_E?$CComObject@VCOPOSRemoteOrderDisplay@@@ATL@@W3AEPAXI@Z 100030e4 f i RemoteOrderDisplay.obj
 0001:000020ec       ??_E?$CComObject@VCOPOSRemoteOrderDisplay@@@ATL@@WEM@AEPAXI@Z 100030ec f i RemoteOrderDisplay.obj
 0001:000020f4       ?QueryInterface@?$CComObject@VCOPOSRemoteOrderDisplay@@@ATL@@WHA@AGJABU_GUID@@PAPAX@Z 100030f4 f i RemoteOrderDisplay.obj
 0001:000020fe       ?AddRef@?$CComObject@VCOPOSRemoteOrderDisplay@@@ATL@@WHA@AGKXZ 100030fe f i RemoteOrderDisplay.obj
 0001:00002108       ?Release@?$CComObject@VCOPOSRemoteOrderDisplay@@@ATL@@WHA@AGKXZ 10003108 f i RemoteOrderDisplay.obj
 0001:00002112       ?QueryInterface@?$CComObject@VCOPOSRemoteOrderDisplay@@@ATL@@WHE@AGJABU_GUID@@PAPAX@Z 10003112 f i RemoteOrderDisplay.obj
 0001:0000211c       ?AddRef@?$CComObject@VCOPOSRemoteOrderDisplay@@@ATL@@WHE@AGKXZ 1000311c f i RemoteOrderDisplay.obj
 0001:00002126       ?Release@?$CComObject@VCOPOSRemoteOrderDisplay@@@ATL@@WHE@AGKXZ 10003126 f i RemoteOrderDisplay.obj
 0001:00002130       ?QueryInterface@?$CComObject@VCOPOSRemoteOrderDisplay@@@ATL@@WHI@AGJABU_GUID@@PAPAX@Z 10003130 f i RemoteOrderDisplay.obj
 0001:0000213a       ?AddRef@?$CComObject@VCOPOSRemoteOrderDisplay@@@ATL@@WHI@AGKXZ 1000313a f i RemoteOrderDisplay.obj
 0001:00002144       ?Release@?$CComObject@VCOPOSRemoteOrderDisplay@@@ATL@@WHI@AGKXZ 10003144 f i RemoteOrderDisplay.obj
 0001:0000214e       ?QueryInterface@?$CComObject@VCOPOSRemoteOrderDisplay@@@ATL@@WHM@AGJABU_GUID@@PAPAX@Z 1000314e f i RemoteOrderDisplay.obj
 0001:00002158       ?AddRef@?$CComObject@VCOPOSRemoteOrderDisplay@@@ATL@@WHM@AGKXZ 10003158 f i RemoteOrderDisplay.obj
 0001:00002162       ?Release@?$CComObject@VCOPOSRemoteOrderDisplay@@@ATL@@WHM@AGKXZ 10003162 f i RemoteOrderDisplay.obj
 0001:0000216c       ?QueryInterface@?$CComObject@VCOPOSRemoteOrderDisplay@@@ATL@@WIA@AGJABU_GUID@@PAPAX@Z 1000316c f i RemoteOrderDisplay.obj
 0001:00002179       ?AddRef@?$CComObject@VCOPOSRemoteOrderDisplay@@@ATL@@WIA@AGKXZ 10003179 f i RemoteOrderDisplay.obj
 0001:00002186       ?Release@?$CComObject@VCOPOSRemoteOrderDisplay@@@ATL@@WIA@AGKXZ 10003186 f i RemoteOrderDisplay.obj
 0001:00002193       ?QueryInterface@?$CComObject@VCOPOSRemoteOrderDisplay@@@ATL@@WIE@AGJABU_GUID@@PAPAX@Z 10003193 f i RemoteOrderDisplay.obj
 0001:000021a0       ?AddRef@?$CComObject@VCOPOSRemoteOrderDisplay@@@ATL@@WIE@AGKXZ 100031a0 f i RemoteOrderDisplay.obj
 0001:000021ad       ?Release@?$CComObject@VCOPOSRemoteOrderDisplay@@@ATL@@WIE@AGKXZ 100031ad f i RemoteOrderDisplay.obj
 0001:000021ba       ?QueryInterface@?$CComObject@VCOPOSRemoteOrderDisplay@@@ATL@@WII@AGJABU_GUID@@PAPAX@Z 100031ba f i RemoteOrderDisplay.obj
 0001:000021c7       ?AddRef@?$CComObject@VCOPOSRemoteOrderDisplay@@@ATL@@WII@AGKXZ 100031c7 f i RemoteOrderDisplay.obj
 0001:000021d4       ?Release@?$CComObject@VCOPOSRemoteOrderDisplay@@@ATL@@WII@AGKXZ 100031d4 f i RemoteOrderDisplay.obj
 0001:000021e1       ?QueryInterface@?$CComObject@VCOPOSRemoteOrderDisplay@@@ATL@@WIM@AGJABU_GUID@@PAPAX@Z 100031e1 f i RemoteOrderDisplay.obj
 0001:000021ee       ?AddRef@?$CComObject@VCOPOSRemoteOrderDisplay@@@ATL@@WIM@AGKXZ 100031ee f i RemoteOrderDisplay.obj
 0001:000021fb       ?Release@?$CComObject@VCOPOSRemoteOrderDisplay@@@ATL@@WIM@AGKXZ 100031fb f i RemoteOrderDisplay.obj
 0001:00002208       ?QueryInterface@?$CComObject@VCOPOSRemoteOrderDisplay@@@ATL@@WJA@AGJABU_GUID@@PAPAX@Z 10003208 f i RemoteOrderDisplay.obj
 0001:00002215       ?AddRef@?$CComObject@VCOPOSRemoteOrderDisplay@@@ATL@@WJA@AGKXZ 10003215 f i RemoteOrderDisplay.obj
 0001:00002222       ?Release@?$CComObject@VCOPOSRemoteOrderDisplay@@@ATL@@WJA@AGKXZ 10003222 f i RemoteOrderDisplay.obj
 0001:0000222f       ?QueryInterface@?$CComObject@VCOPOSRemoteOrderDisplay@@@ATL@@WJE@AGJABU_GUID@@PAPAX@Z 1000322f f i RemoteOrderDisplay.obj
 0001:0000223c       ?AddRef@?$CComObject@VCOPOSRemoteOrderDisplay@@@ATL@@WJE@AGKXZ 1000323c f i RemoteOrderDisplay.obj
 0001:00002249       ?Release@?$CComObject@VCOPOSRemoteOrderDisplay@@@ATL@@WJE@AGKXZ 10003249 f i RemoteOrderDisplay.obj
 0001:00002256       ?QueryInterface@?$CComObject@VCOPOSRemoteOrderDisplay@@@ATL@@WJI@AGJABU_GUID@@PAPAX@Z 10003256 f i RemoteOrderDisplay.obj
 0001:00002263       ?AddRef@?$CComObject@VCOPOSRemoteOrderDisplay@@@ATL@@WJI@AGKXZ 10003263 f i RemoteOrderDisplay.obj
 0001:00002270       ?Release@?$CComObject@VCOPOSRemoteOrderDisplay@@@ATL@@WJI@AGKXZ 10003270 f i RemoteOrderDisplay.obj
 0001:0000227d       ?QueryInterface@?$CComObject@VCOPOSRemoteOrderDisplay@@@ATL@@WJM@AGJABU_GUID@@PAPAX@Z 1000327d f i RemoteOrderDisplay.obj
 0001:0000228a       ?AddRef@?$CComObject@VCOPOSRemoteOrderDisplay@@@ATL@@WJM@AGKXZ 1000328a f i RemoteOrderDisplay.obj
 0001:00002297       ?Release@?$CComObject@VCOPOSRemoteOrderDisplay@@@ATL@@WJM@AGKXZ 10003297 f i RemoteOrderDisplay.obj
 0001:000022a4       ?QueryInterface@?$CComObject@VCOPOSRemoteOrderDisplay@@@ATL@@WKA@AGJABU_GUID@@PAPAX@Z 100032a4 f i RemoteOrderDisplay.obj
 0001:000022b1       ?AddRef@?$CComObject@VCOPOSRemoteOrderDisplay@@@ATL@@WKA@AGKXZ 100032b1 f i RemoteOrderDisplay.obj
 0001:000022be       ?Release@?$CComObject@VCOPOSRemoteOrderDisplay@@@ATL@@WKA@AGKXZ 100032be f i RemoteOrderDisplay.obj
 0001:000022cb       ?AddRef@?$CComObject@VCOPOSRemoteOrderDisplay@@@ATL@@WKI@AGKXZ 100032cb f i RemoteOrderDisplay.obj
 0001:000022d8       ?Release@?$CComObject@VCOPOSRemoteOrderDisplay@@@ATL@@WKI@AGKXZ 100032d8 f i RemoteOrderDisplay.obj
 0001:000022e5       ?AddRef@?$CComObject@VCOPOSRemoteOrderDisplay@@@ATL@@WLE@AGKXZ 100032e5 f i RemoteOrderDisplay.obj
 0001:000022f2       ?Release@?$CComObject@VCOPOSRemoteOrderDisplay@@@ATL@@WLE@AGKXZ 100032f2 f i RemoteOrderDisplay.obj
 0001:000022ff       ??_E?$CComContainedObject@VCOPOSRemoteOrderDisplay@@@ATL@@W3AEPAXI@Z 100032ff f i RemoteOrderDisplay.obj
 0001:00002307       ??_E?$CComContainedObject@VCOPOSRemoteOrderDisplay@@@ATL@@WEM@AEPAXI@Z 10003307 f i RemoteOrderDisplay.obj
 0001:0000230f       ?QueryInterface@?$CComContainedObject@VCOPOSRemoteOrderDisplay@@@ATL@@WHA@AGJABU_GUID@@PAPAX@Z 1000330f f i RemoteOrderDisplay.obj
 0001:00002319       ?AddRef@?$CComContainedObject@VCOPOSRemoteOrderDisplay@@@ATL@@WHA@AGKXZ 10003319 f i RemoteOrderDisplay.obj
 0001:00002323       ?Release@?$CComContainedObject@VCOPOSRemoteOrderDisplay@@@ATL@@WHA@AGKXZ 10003323 f i RemoteOrderDisplay.obj
 0001:0000232d       ?QueryInterface@?$CComContainedObject@VCOPOSRemoteOrderDisplay@@@ATL@@WHE@AGJABU_GUID@@PAPAX@Z 1000332d f i RemoteOrderDisplay.obj
 0001:00002337       ?AddRef@?$CComContainedObject@VCOPOSRemoteOrderDisplay@@@ATL@@WHE@AGKXZ 10003337 f i RemoteOrderDisplay.obj
 0001:00002341       ?Release@?$CComContainedObject@VCOPOSRemoteOrderDisplay@@@ATL@@WHE@AGKXZ 10003341 f i RemoteOrderDisplay.obj
 0001:0000234b       ?QueryInterface@?$CComContainedObject@VCOPOSRemoteOrderDisplay@@@ATL@@WHI@AGJABU_GUID@@PAPAX@Z 1000334b f i RemoteOrderDisplay.obj
 0001:00002355       ?AddRef@?$CComContainedObject@VCOPOSRemoteOrderDisplay@@@ATL@@WHI@AGKXZ 10003355 f i RemoteOrderDisplay.obj
 0001:0000235f       ?Release@?$CComContainedObject@VCOPOSRemoteOrderDisplay@@@ATL@@WHI@AGKXZ 1000335f f i RemoteOrderDisplay.obj
 0001:00002369       ?QueryInterface@?$CComContainedObject@VCOPOSRemoteOrderDisplay@@@ATL@@WHM@AGJABU_GUID@@PAPAX@Z 10003369 f i RemoteOrderDisplay.obj
 0001:00002373       ?AddRef@?$CComContainedObject@VCOPOSRemoteOrderDisplay@@@ATL@@WHM@AGKXZ 10003373 f i RemoteOrderDisplay.obj
 0001:0000237d       ?Release@?$CComContainedObject@VCOPOSRemoteOrderDisplay@@@ATL@@WHM@AGKXZ 1000337d f i RemoteOrderDisplay.obj
 0001:00002387       ?QueryInterface@?$CComContainedObject@VCOPOSRemoteOrderDisplay@@@ATL@@WIA@AGJABU_GUID@@PAPAX@Z 10003387 f i RemoteOrderDisplay.obj
 0001:00002394       ?AddRef@?$CComContainedObject@VCOPOSRemoteOrderDisplay@@@ATL@@WIA@AGKXZ 10003394 f i RemoteOrderDisplay.obj
 0001:000023a1       ?Release@?$CComContainedObject@VCOPOSRemoteOrderDisplay@@@ATL@@WIA@AGKXZ 100033a1 f i RemoteOrderDisplay.obj
 0001:000023ae       ?QueryInterface@?$CComContainedObject@VCOPOSRemoteOrderDisplay@@@ATL@@WIE@AGJABU_GUID@@PAPAX@Z 100033ae f i RemoteOrderDisplay.obj
 0001:000023bb       ?AddRef@?$CComContainedObject@VCOPOSRemoteOrderDisplay@@@ATL@@WIE@AGKXZ 100033bb f i RemoteOrderDisplay.obj
 0001:000023c8       ?Release@?$CComContainedObject@VCOPOSRemoteOrderDisplay@@@ATL@@WIE@AGKXZ 100033c8 f i RemoteOrderDisplay.obj
 0001:000023d5       ?QueryInterface@?$CComContainedObject@VCOPOSRemoteOrderDisplay@@@ATL@@WII@AGJABU_GUID@@PAPAX@Z 100033d5 f i RemoteOrderDisplay.obj
 0001:000023e2       ?AddRef@?$CComContainedObject@VCOPOSRemoteOrderDisplay@@@ATL@@WII@AGKXZ 100033e2 f i RemoteOrderDisplay.obj
 0001:000023ef       ?Release@?$CComContainedObject@VCOPOSRemoteOrderDisplay@@@ATL@@WII@AGKXZ 100033ef f i RemoteOrderDisplay.obj
 0001:000023fc       ?QueryInterface@?$CComContainedObject@VCOPOSRemoteOrderDisplay@@@ATL@@WIM@AGJABU_GUID@@PAPAX@Z 100033fc f i RemoteOrderDisplay.obj
 0001:00002409       ?AddRef@?$CComContainedObject@VCOPOSRemoteOrderDisplay@@@ATL@@WIM@AGKXZ 10003409 f i RemoteOrderDisplay.obj
 0001:00002416       ?Release@?$CComContainedObject@VCOPOSRemoteOrderDisplay@@@ATL@@WIM@AGKXZ 10003416 f i RemoteOrderDisplay.obj
 0001:00002423       ?QueryInterface@?$CComContainedObject@VCOPOSRemoteOrderDisplay@@@ATL@@WJA@AGJABU_GUID@@PAPAX@Z 10003423 f i RemoteOrderDisplay.obj
 0001:00002430       ?AddRef@?$CComContainedObject@VCOPOSRemoteOrderDisplay@@@ATL@@WJA@AGKXZ 10003430 f i RemoteOrderDisplay.obj
 0001:0000243d       ?Release@?$CComContainedObject@VCOPOSRemoteOrderDisplay@@@ATL@@WJA@AGKXZ 1000343d f i RemoteOrderDisplay.obj
 0001:0000244a       ?QueryInterface@?$CComContainedObject@VCOPOSRemoteOrderDisplay@@@ATL@@WJE@AGJABU_GUID@@PAPAX@Z 1000344a f i RemoteOrderDisplay.obj
 0001:00002457       ?AddRef@?$CComContainedObject@VCOPOSRemoteOrderDisplay@@@ATL@@WJE@AGKXZ 10003457 f i RemoteOrderDisplay.obj
 0001:00002464       ?Release@?$CComContainedObject@VCOPOSRemoteOrderDisplay@@@ATL@@WJE@AGKXZ 10003464 f i RemoteOrderDisplay.obj
 0001:00002471       ?QueryInterface@?$CComContainedObject@VCOPOSRemoteOrderDisplay@@@ATL@@WJI@AGJABU_GUID@@PAPAX@Z 10003471 f i RemoteOrderDisplay.obj
 0001:0000247e       ?AddRef@?$CComContainedObject@VCOPOSRemoteOrderDisplay@@@ATL@@WJI@AGKXZ 1000347e f i RemoteOrderDisplay.obj
 0001:0000248b       ?Release@?$CComContainedObject@VCOPOSRemoteOrderDisplay@@@ATL@@WJI@AGKXZ 1000348b f i RemoteOrderDisplay.obj
 0001:00002498       ?QueryInterface@?$CComContainedObject@VCOPOSRemoteOrderDisplay@@@ATL@@WJM@AGJABU_GUID@@PAPAX@Z 10003498 f i RemoteOrderDisplay.obj
 0001:000024a5       ?AddRef@?$CComContainedObject@VCOPOSRemoteOrderDisplay@@@ATL@@WJM@AGKXZ 100034a5 f i RemoteOrderDisplay.obj
 0001:000024b2       ?Release@?$CComContainedObject@VCOPOSRemoteOrderDisplay@@@ATL@@WJM@AGKXZ 100034b2 f i RemoteOrderDisplay.obj
 0001:000024bf       ?QueryInterface@?$CComContainedObject@VCOPOSRemoteOrderDisplay@@@ATL@@WKA@AGJABU_GUID@@PAPAX@Z 100034bf f i RemoteOrderDisplay.obj
 0001:000024cc       ?AddRef@?$CComContainedObject@VCOPOSRemoteOrderDisplay@@@ATL@@WKA@AGKXZ 100034cc f i RemoteOrderDisplay.obj
 0001:000024d9       ?Release@?$CComContainedObject@VCOPOSRemoteOrderDisplay@@@ATL@@WKA@AGKXZ 100034d9 f i RemoteOrderDisplay.obj
 0001:000024e6       ?AddRef@?$CComContainedObject@VCOPOSRemoteOrderDisplay@@@ATL@@WKI@AGKXZ 100034e6 f i RemoteOrderDisplay.obj
 0001:000024f3       ?Release@?$CComContainedObject@VCOPOSRemoteOrderDisplay@@@ATL@@WKI@AGKXZ 100034f3 f i RemoteOrderDisplay.obj
 0001:00002500       ?AddRef@?$CComContainedObject@VCOPOSRemoteOrderDisplay@@@ATL@@WLE@AGKXZ 10003500 f i RemoteOrderDisplay.obj
 0001:0000250d       ?Release@?$CComContainedObject@VCOPOSRemoteOrderDisplay@@@ATL@@WLE@AGKXZ 1000350d f i RemoteOrderDisplay.obj
 0001:0000251a       ?Lock@CAtlModule@ATL@@UAEJXZ 1000351a f i RemoteOrderDisplay.obj
 0001:00002524       ?Unlock@CAtlModule@ATL@@UAEJXZ 10003524 f i RemoteOrderDisplay.obj
 0001:0000252e       ?GetLockCount@CAtlModule@ATL@@UAEJXZ 1000352e f i RemoteOrderDisplay.obj
 0001:00002532       ?GetGITPtr@CAtlModule@ATL@@UAEJPAPAUIGlobalInterfaceTable@@@Z 10003532 f i RemoteOrderDisplay.obj
 0001:0000257e       ?GetWindowProc@?$CWindowImplBaseT@VCWindow@ATL@@V?$CWinTraits@$0FGAAAAAA@$0A@@2@@ATL@@UAEP6GJPAUHWND__@@IIJ@ZXZ 1000357e f i RemoteOrderDisplay.obj
 0001:00002584       ?StartWindowProc@?$CWindowImplBaseT@VCWindow@ATL@@V?$CWinTraits@$0FGAAAAAA@$0A@@2@@ATL@@SGJPAUHWND__@@IIJ@Z 10003584 f i RemoteOrderDisplay.obj
 0001:000025d8       ?AddCommonRGSReplacements@?$CAtlModuleT@VCComModule@ATL@@@ATL@@UAEJPAUIRegistrarBase@@@Z 100035d8 f i RemoteOrderDisplay.obj
 0001:000025f2       ?UpdateRegistryFromResourceD@CComModule@ATL@@UAGJPB_WHPAU_ATL_REGMAP_ENTRY@2@@Z 100035f2 f i RemoteOrderDisplay.obj
 0001:000025f2       ?UpdateRegistryFromResourceD@CComModule@ATL@@UAGJIHPAU_ATL_REGMAP_ENTRY@2@@Z 100035f2 f i RemoteOrderDisplay.obj
 0001:000025fa       ?UpdateRegistryFromResource@CComModule@ATL@@UAGJPB_WHPAU_ATL_REGMAP_ENTRY@2@@Z 100035fa f i RemoteOrderDisplay.obj
 0001:00002603       ?UpdateRegistryFromResource@CComModule@ATL@@UAGJIHPAU_ATL_REGMAP_ENTRY@2@@Z 10003603 f i RemoteOrderDisplay.obj
 0001:0000260c       ??_GCComModule@ATL@@UAEPAXI@Z 1000360c f i RemoteOrderDisplay.obj
 0001:0000260c       ??_ECComModule@ATL@@UAEPAXI@Z 1000360c f i RemoteOrderDisplay.obj
 0001:00002634       ?GetTypeInfoCount@?$IDispatchImpl@UIOPOSRemoteOrderDisplay@@$1?IID_IOPOSRemoteOrderDisplay@@3U_GUID@@B$1?LIBID_OposRemoteOrderDisplay_CCO@@3U3@B$00$0A@VCComTypeInfoHolder@ATL@@@ATL@@UAGJPAI@Z 10003634 f i RemoteOrderDisplay.obj
 0001:00002651       ?GetTypeInfo@?$IDispatchImpl@UIOPOSRemoteOrderDisplay@@$1?IID_IOPOSRemoteOrderDisplay@@3U_GUID@@B$1?LIBID_OposRemoteOrderDisplay_CCO@@3U3@B$00$0A@VCComTypeInfoHolder@ATL@@@ATL@@UAGJIKPAPAUITypeInfo@@@Z 10003651 f i RemoteOrderDisplay.obj
 0001:00002675       ?GetIDsOfNames@?$IDispatchImpl@UIOPOSRemoteOrderDisplay@@$1?IID_IOPOSRemoteOrderDisplay@@3U_GUID@@B$1?LIBID_OposRemoteOrderDisplay_CCO@@3U3@B$00$0A@VCComTypeInfoHolder@ATL@@@ATL@@UAGJABU_GUID@@PAPA_WIKPAJ@Z 10003675 f i RemoteOrderDisplay.obj
 0001:00002695       ?Invoke@?$IDispatchImpl@UIOPOSRemoteOrderDisplay@@$1?IID_IOPOSRemoteOrderDisplay@@3U_GUID@@B$1?LIBID_OposRemoteOrderDisplay_CCO@@3U3@B$00$0A@VCComTypeInfoHolder@ATL@@@ATL@@UAGJJABU_GUID@@KGPAUtagDISPPARAMS@@PAUtagVARIANT@@PAUtagEXCEPINFO@@PAI@Z 10003695 f i RemoteOrderDisplay.obj
 0001:000026a3       ?CreateControlWindow@?$CComControl@VCOPOSRemoteOrderDisplay@@V?$CWindowImpl@VCOPOSRemoteOrderDisplay@@VCWindow@ATL@@V?$CWinTraits@$0FGAAAAAA@$0A@@3@@ATL@@@ATL@@UAEPAUHWND__@@PAU3@AAUtagRECT@@@Z 100036a3 f i RemoteOrderDisplay.obj
 0001:000026d2       ?ControlQueryInterface@?$CComControl@VCOPOSRemoteOrderDisplay@@V?$CWindowImpl@VCOPOSRemoteOrderDisplay@@VCWindow@ATL@@V?$CWinTraits@$0FGAAAAAA@$0A@@3@@ATL@@@ATL@@UAEJABU_GUID@@PAPAX@Z 100036d2 f i RemoteOrderDisplay.obj
 0001:000026ed       ?IsDirty@?$IPersistStreamInitImpl@VCOPOSRemoteOrderDisplay@@@ATL@@UAGJXZ 100036ed f i RemoteOrderDisplay.obj
 0001:0000270c       ?Load@?$IPersistStreamInitImpl@VCOPOSRemoteOrderDisplay@@@ATL@@UAGJPAUIStream@@@Z 1000370c f i RemoteOrderDisplay.obj
 0001:0000272b       ?Save@?$IPersistStreamInitImpl@VCOPOSRemoteOrderDisplay@@@ATL@@UAGJPAUIStream@@H@Z 1000372b f i RemoteOrderDisplay.obj
 0001:0000274d       ?GetSizeMax@?$IPersistStreamInitImpl@VCOPOSRemoteOrderDisplay@@@ATL@@UAGJPAT_ULARGE_INTEGER@@@Z 1000374d f i RemoteOrderDisplay.obj
 0001:00002902       ?InitNew@?$IPersistStreamInitImpl@VCOPOSRemoteOrderDisplay@@@ATL@@UAGJXZ 10003902 f i RemoteOrderDisplay.obj
 0001:0000291f       ?SetClientSite@?$IOleObjectImpl@VCOPOSRemoteOrderDisplay@@@ATL@@UAGJPAUIOleClientSite@@@Z 1000391f f i RemoteOrderDisplay.obj
 0001:0000293c       ?GetClientSite@?$IOleObjectImpl@VCOPOSRemoteOrderDisplay@@@ATL@@UAGJPAPAUIOleClientSite@@@Z 1000393c f i RemoteOrderDisplay.obj
 0001:00002959       ?SetHostNames@?$IOleObjectImpl@VCOPOSRemoteOrderDisplay@@@ATL@@UAGJPB_W0@Z 10003959 f i RemoteOrderDisplay.obj
 0001:0000295e       ??$?4UITypeInfo2@@@?$CComPtr@UITypeInfo@@@ATL@@QAEPAUITypeInfo@@ABV?$CComPtr@UITypeInfo2@@@1@@Z 1000395e f i RemoteOrderDisplay.obj
 0001:0000298b       ??$AtlAdd@K@ATL@@YAJPAKKK@Z 1000398b f i RemoteOrderDisplay.obj
 0001:000029ae       ??$AtlAdd@_K@ATL@@YAJPA_K_K1@Z 100039ae f i RemoteOrderDisplay.obj
 0001:000029e6       ??$AtlAddThrow@K@ATL@@YAKKK@Z 100039e6 f i RemoteOrderDisplay.obj
 0001:00002a0c       ??$AtlModuleRegisterWndClassInfoT@VAtlModuleRegisterWndClassInfoParamW@ATL@@@ATL@@YAGPAU_ATL_BASE_MODULE70@0@PAU_ATL_WIN_MODULE70@0@PAU_ATL_WNDCLASSINFOW@0@PAP6GJPAUHWND__@@IIJ@ZVAtlModuleRegisterWndClassInfoParamW@0@@Z 10003a0c f i RemoteOrderDisplay.obj
 0001:00002b5a       ??$AtlMultiply@H@ATL@@YAJPAHHH@Z 10003b5a f i RemoteOrderDisplay.obj
 0001:00002b92       ??$AtlMultiply@I@ATL@@YAJPAIII@Z 10003b92 f i RemoteOrderDisplay.obj
 0001:00002b92       ??$AtlMultiply@K@ATL@@YAJPAKKK@Z 10003b92 f i RemoteOrderDisplay.obj
 0001:00002bb4       ??$AtlMultiplyThrow@I@ATL@@YAIII@Z 10003bb4 f i RemoteOrderDisplay.obj
 0001:00002bda       ??0?$CComAggObject@VCOPOSRemoteOrderDisplay@@@ATL@@QAE@PAX@Z 10003bda f i RemoteOrderDisplay.obj
 0001:00002c07       ??0?$CComContainedObject@VCOPOSRemoteOrderDisplay@@@ATL@@QAE@PAX@Z 10003c07 f i RemoteOrderDisplay.obj
 0001:00002cc0       ??0?$CComObject@V?$CComEnum@UIEnumConnectionPoints@@$1?_GUID_b196b285_bab4_101a_b69c_00aa00341d07@@3U__s_GUID@@BPAUIConnectionPoint@@V?$_CopyInterface@UIConnectionPoint@@@ATL@@VCComSingleThreadModel@6@@ATL@@@ATL@@QAE@PAX@Z 10003cc0 f i RemoteOrderDisplay.obj
 0001:00002cee       ??0?$CComObject@V?$CComEnum@UIEnumConnections@@$1?_GUID_b196b287_bab4_101a_b69c_00aa00341d07@@3U__s_GUID@@BUtagCONNECTDATA@@V?$_Copy@UtagCONNECTDATA@@@ATL@@VCComSingleThreadModel@6@@ATL@@@ATL@@QAE@PAX@Z 10003cee f i RemoteOrderDisplay.obj
 0001:00002d1c       ??0?$CComObject@VCOPOSRemoteOrderDisplay@@@ATL@@QAE@PAX@Z 10003d1c f i RemoteOrderDisplay.obj
 0001:00002dd3       ??0?$CComQIPtr@UIOleControlSite@@$1?_GUID_b196b289_bab4_101a_b69c_00aa00341d07@@3U__s_GUID@@B@ATL@@QAE@PAUIUnknown@@@Z 10003dd3 f i RemoteOrderDisplay.obj
 0001:00002dfc       ??0CAtlModule@ATL@@QAE@XZ  10003dfc f i RemoteOrderDisplay.obj
 0001:00002e3d       ??0CParseBuffer@CRegParser@ATL@@QAE@H@Z 10003e3d f i RemoteOrderDisplay.obj
 0001:00002e73       ??0_ATL_MSG@ATL@@QAE@PAUHWND__@@IIJH@Z 10003e73 f i RemoteOrderDisplay.obj
 0001:00002eab       ??1?$CComAggObject@VCOPOSRemoteOrderDisplay@@@ATL@@UAE@XZ 10003eab f i RemoteOrderDisplay.obj
 0001:00002ecf       ??1?$CComEnumImpl@UIEnumConnectionPoints@@$1?_GUID_b196b285_bab4_101a_b69c_00aa00341d07@@3U__s_GUID@@BPAUIConnectionPoint@@V?$_CopyInterface@UIConnectionPoint@@@ATL@@@ATL@@UAE@XZ 10003ecf f i RemoteOrderDisplay.obj
 0001:00002f0f       ??1?$CComEnumImpl@UIEnumConnections@@$1?_GUID_b196b287_bab4_101a_b69c_00aa00341d07@@3U__s_GUID@@BUtagCONNECTDATA@@V?$_Copy@UtagCONNECTDATA@@@ATL@@@ATL@@UAE@XZ 10003f0f f i RemoteOrderDisplay.obj
 0001:00002f4f       ??1?$CComObject@V?$CComEnum@UIEnumConnectionPoints@@$1?_GUID_b196b285_bab4_101a_b69c_00aa00341d07@@3U__s_GUID@@BPAUIConnectionPoint@@V?$_CopyInterface@UIConnectionPoint@@@ATL@@VCComSingleThreadModel@6@@ATL@@@ATL@@UAE@XZ 10003f4f f i RemoteOrderDisplay.obj
 0001:00002f72       ??1?$CComObject@V?$CComEnum@UIEnumConnections@@$1?_GUID_b196b287_bab4_101a_b69c_00aa00341d07@@3U__s_GUID@@BUtagCONNECTDATA@@V?$_Copy@UtagCONNECTDATA@@@ATL@@VCComSingleThreadModel@6@@ATL@@@ATL@@UAE@XZ 10003f72 f i RemoteOrderDisplay.obj
 0001:00002f95       ??1?$CComObject@VCOPOSRemoteOrderDisplay@@@ATL@@UAE@XZ 10003f95 f i RemoteOrderDisplay.obj
 0001:00003053       ??1?$CComObjectCached@VCComClassFactory@ATL@@@ATL@@UAE@XZ 10004053 f i RemoteOrderDisplay.obj
 0001:00003069       ??1?$CComObjectRootEx@VCComMultiThreadModel@ATL@@@ATL@@QAE@XZ 10004069 f i RemoteOrderDisplay.obj
 0001:0000307e       ??1CRegObject@ATL@@UAE@XZ  1000407e f i RemoteOrderDisplay.obj
 0001:0000309e       ??4?$CComPtr@UIAdviseSink@@@ATL@@QAEPAUIAdviseSink@@PAU2@@Z 1000409e f i RemoteOrderDisplay.obj
 0001:0000309e       ??4?$CComPtr@UIOleClientSite@@@ATL@@QAEPAUIOleClientSite@@PAU2@@Z 1000409e f i RemoteOrderDisplay.obj
 0001:0000309e       ??4?$CComPtr@UIUnknown@@@ATL@@QAEPAUIUnknown@@PAU2@@Z 1000409e f i RemoteOrderDisplay.obj
 0001:000030d2       ??4?$CComQIPtr@UIOleObject@@$1?_GUID_00000112_0000_0000_c000_000000000046@@3U__s_GUID@@B@ATL@@QAEPAUIOleObject@@PAUIUnknown@@@Z 100040d2 f i RemoteOrderDisplay.obj
 0001:000030f7       ??4?$CComQIPtr@UISpecifyPropertyPages@@$1?_GUID_b196b28b_bab4_101a_b69c_00aa00341d07@@3U__s_GUID@@B@ATL@@QAEPAUISpecifyPropertyPages@@PAUIUnknown@@@Z 100040f7 f i RemoteOrderDisplay.obj
 0001:0000311c       ??_E?$CComContainedObject@VCOPOSRemoteOrderDisplay@@@ATL@@UAEPAXI@Z 1000411c f i RemoteOrderDisplay.obj
 0001:0000311c       ??_G?$CComContainedObject@VCOPOSRemoteOrderDisplay@@@ATL@@UAEPAXI@Z 1000411c f i RemoteOrderDisplay.obj
 0001:00003141       ??_G?$CComObject@VCOPOSRemoteOrderDisplay@@@ATL@@UAEPAXI@Z 10004141 f i RemoteOrderDisplay.obj
 0001:00003141       ??_E?$CComObject@VCOPOSRemoteOrderDisplay@@@ATL@@UAEPAXI@Z 10004141 f i RemoteOrderDisplay.obj
 0001:00003166       ?Add@?$CSimpleArray@GV?$CSimpleArrayEqualHelper@G@ATL@@@ATL@@QAEHABG@Z 10004166 f i RemoteOrderDisplay.obj
 0001:000031ea       ?Add@?$CSimpleMap@PA_WPA_WVCExpansionVectorEqualHelper@ATL@@@ATL@@QAEHABQA_W0@Z 100041ea f i RemoteOrderDisplay.obj
 0001:0000323f       ?Add@CComDynamicUnkArray@ATL@@QAEKPAUIUnknown@@@Z 1000423f f i RemoteOrderDisplay.obj
 0001:000032fa       ?Add@CExpansionVector@ATL@@QAEHPB_W0@Z 100042fa f i RemoteOrderDisplay.obj
 0001:000033fe       ?AddString@CParseBuffer@CRegParser@ATL@@QAEHPB_W@Z 100043fe f i RemoteOrderDisplay.obj
 0001:00003433       ?AddValue@CRegParser@ATL@@IAEJAAVCRegKey@2@PB_WPA_W@Z 10004433 f i RemoteOrderDisplay.obj
 0001:00003754       ?Allocate@?$CAtlSafeAllocBufferManager@VCCRTAllocator@ATL@@@_ATL_SAFE_ALLOCA_IMPL@ATL@@QAEPAXK@Z 10004754 f i RemoteOrderDisplay.obj
 0001:00003781       ?Allocate@?$CTempBuffer@E$0BAA@VCCRTAllocator@ATL@@@ATL@@QAEPAEI@Z 10004781 f i RemoteOrderDisplay.obj
 0001:000037b0       ?Allocate@?$CTempBuffer@_W$0BAA@VCCRTAllocator@ATL@@@ATL@@QAEPA_WI@Z 100047b0 f i RemoteOrderDisplay.obj
 0001:000037df       ?Allocate@?$CTempBuffer@_W$0EAA@VCCRTAllocator@ATL@@@ATL@@QAEPA_WI@Z 100047df f i RemoteOrderDisplay.obj
 0001:0000380e       ?AllocateHeap@?$CTempBuffer@_W$0EAA@VCCRTAllocator@ATL@@@ATL@@AAEXI@Z 1000480e f i RemoteOrderDisplay.obj
 0001:0000380e       ?AllocateHeap@?$CTempBuffer@_W$0BAA@VCCRTAllocator@ATL@@@ATL@@AAEXI@Z 1000480e f i RemoteOrderDisplay.obj
 0001:0000380e       ?AllocateHeap@?$CTempBuffer@E$0BAA@VCCRTAllocator@ATL@@@ATL@@AAEXI@Z 1000480e f i RemoteOrderDisplay.obj
 0001:00003833       ?Append@CParseBuffer@CRegParser@ATL@@QAEHPB_WH@Z 10004833 f i RemoteOrderDisplay.obj
 0001:000038c1       ?AtlCallTermFunc@ATL@@YGXPAU_ATL_MODULE70@1@@Z 100048c1 f i RemoteOrderDisplay.obj
 0001:00003905       ?AtlCoTaskMemCAlloc@ATL@@YAPAXKK@Z 10004905 f i RemoteOrderDisplay.obj
 0001:00003932       ?AtlCoTaskMemRecalloc@ATL@@YAPAXPAXKK@Z 10004932 f i RemoteOrderDisplay.obj
 0001:00003962       ?AtlComModuleGetClassObject@ATL@@YGJPAU_ATL_COM_MODULE70@1@ABU_GUID@@1PAPAX@Z 10004962 f i RemoteOrderDisplay.obj
 0001:00003a55       ?AtlComModuleRegisterServer@ATL@@YGJPAU_ATL_COM_MODULE70@1@HPBU_GUID@@@Z 10004a55 f i RemoteOrderDisplay.obj
 0001:00003add       ?AtlComModuleUnregisterServer@ATL@@YGJPAU_ATL_COM_MODULE70@1@HPBU_GUID@@@Z 10004add f i RemoteOrderDisplay.obj
 0001:00003b65       ?AtlComQIPtrAssign2@ATL@@YAXPAPAUIUnknown@@PAU2@ABU_GUID@@@Z 10004b65 f i RemoteOrderDisplay.obj
 0001:00003b94       ?AtlCreateTargetDC@ATL@@YGPAUHDC__@@PAU2@PAUtagDVTARGETDEVICE@@@Z 10004b94 f i RemoteOrderDisplay.obj
 0001:00003bfd       ?AtlCrtErrorCheck@ATL@@YAHH@Z 10004bfd f i RemoteOrderDisplay.obj
 0001:00003c38       ?AtlHiMetricToPixel@ATL@@YGXPBUtagSIZE@@PAU2@@Z 10004c38 f i RemoteOrderDisplay.obj
 0001:00003cad       ?AtlHresultFromLastError@ATL@@YAJXZ 10004cad f i RemoteOrderDisplay.obj
 0001:00003cc4       ?AtlHresultFromWin32@ATL@@YAJK@Z 10004cc4 f i RemoteOrderDisplay.obj
 0001:00003cd9       ?AtlIPersistStreamInit_Load@ATL@@YGJPAUIStream@@PBUATL_PROPMAP_ENTRY@1@PAXPAUIUnknown@@@Z 10004cd9 f i RemoteOrderDisplay.obj
 0001:00003eb9       ?AtlIPersistStreamInit_Save@ATL@@YGJPAUIStream@@HPBUATL_PROPMAP_ENTRY@1@PAXPAUIUnknown@@@Z 10004eb9 f i RemoteOrderDisplay.obj
 0001:00004051       ?AtlInternalOleLoadFromStream@ATL@@YAJPAUIStream@@ABU_GUID@@PAPAXTClassesAllowedInStream@1@K@Z 10005051 f i RemoteOrderDisplay.obj
 0001:00004177       ?AtlInternalQueryInterface@ATL@@YGJPAXPBU_ATL_INTMAP_ENTRY@1@ABU_GUID@@PAPAX@Z 10005177 f i RemoteOrderDisplay.obj
 0001:0000421a       ?AtlLoadTypeLib@ATL@@YGJPAUHINSTANCE__@@PB_WPAPA_WPAPAUITypeLib@@@Z 1000521a f i RemoteOrderDisplay.obj
 0001:000043f8       ?AtlModuleAddTermFunc@ATL@@YGJPAU_ATL_MODULE70@1@P6GXK@ZK@Z 100053f8 f i RemoteOrderDisplay.obj
 0001:00004455       ?AtlRegisterClassCategoriesHelper@ATL@@YGJABU_GUID@@PBU_ATL_CATMAP_ENTRY@1@H@Z 10005455 f i RemoteOrderDisplay.obj
 0001:00004735       ?AtlRegisterTypeLib@ATL@@YGJPAUHINSTANCE__@@PB_W@Z 10005735 f i RemoteOrderDisplay.obj
 0001:000048bd       ?AtlThrowImpl@ATL@@YGXJ@Z  100058bd f i RemoteOrderDisplay.obj
 0001:000048db       ?AtlUnRegisterTypeLib@ATL@@YGJPAUHINSTANCE__@@PB_W@Z 100058db f i RemoteOrderDisplay.obj
 0001:00004986       ?AtlWinModuleAddCreateWndData@ATL@@YGXPAU_ATL_WIN_MODULE70@1@PAU_AtlCreateWndData@1@PAX@Z 10005986 f i RemoteOrderDisplay.obj
 0001:000049da       ?AtlWinModuleExtractCreateWndData@ATL@@YGPAXPAU_ATL_WIN_MODULE70@1@@Z 100059da f i RemoteOrderDisplay.obj
 0001:00004a3d       ?AtlWinModuleRegisterClassExW@ATL@@YGGPAU_ATL_WIN_MODULE70@1@PBUtagWNDCLASSEXW@@@Z 10005a3d f i RemoteOrderDisplay.obj
 0001:00004a7c       ?CanForceRemoveKey@CRegParser@ATL@@IAEHPB_W@Z 10005a7c f i RemoteOrderDisplay.obj
 0001:00004aab       ?ChToByte@CRegParser@ATL@@KAE_W@Z 10005aab f i RemoteOrderDisplay.obj
 0001:00004ade       ?Cleanup@CComTypeInfoHolder@ATL@@SGXK@Z 10005ade f i RemoteOrderDisplay.obj
 0001:00004b11       ?ClearReplacements@CExpansionVector@ATL@@QAEJXZ 10005b11 f i RemoteOrderDisplay.obj
 0001:00004b4e       ?Close@CRegKey@ATL@@QAEJXZ 10005b4e f i RemoteOrderDisplay.obj
 0001:00004b68       ?Create@?$CWindowImpl@VCOPOSRemoteOrderDisplay@@VCWindow@ATL@@V?$CWinTraits@$0FGAAAAAA@$0A@@3@@ATL@@QAEPAUHWND__@@PAU3@V_U_RECT@2@PB_WKKV_U_MENUorID@2@PAX@Z 10005b68 f i RemoteOrderDisplay.obj
 0001:00004bac       ?Create@?$CWindowImplBaseT@VCWindow@ATL@@V?$CWinTraits@$0FGAAAAAA@$0A@@2@@ATL@@QAEPAUHWND__@@PAU3@V_U_RECT@2@PB_WKKV_U_MENUorID@2@GPAX@Z 10005bac f i RemoteOrderDisplay.obj
 0001:00004c48       ?Create@CRegKey@ATL@@QAEJPAUHKEY__@@PB_WPA_WKKPAU_SECURITY_ATTRIBUTES@@PAK@Z 10005c48 f i RemoteOrderDisplay.obj
 0001:00004cab       ?CreateInstance@?$CComCreator@V?$CComAggObject@VCOPOSRemoteOrderDisplay@@@ATL@@@ATL@@SGJPAXABU_GUID@@PAPAX@Z 10005cab f i RemoteOrderDisplay.obj
 0001:00004d21       ?CreateInstance@?$CComCreator@V?$CComObject@VCOPOSRemoteOrderDisplay@@@ATL@@@ATL@@SGJPAXABU_GUID@@PAPAX@Z 10005d21 f i RemoteOrderDisplay.obj
 0001:00004da2       ?CreateInstance@?$CComObject@V?$CComEnum@UIEnumConnectionPoints@@$1?_GUID_b196b285_bab4_101a_b69c_00aa00341d07@@3U__s_GUID@@BPAUIConnectionPoint@@V?$_CopyInterface@UIConnectionPoint@@@ATL@@VCComSingleThreadModel@6@@ATL@@@ATL@@SGJPAPAV12@@Z 10005da2 f i RemoteOrderDisplay.obj
 0001:00004de9       ?CreateInstance@?$CComObject@V?$CComEnum@UIEnumConnections@@$1?_GUID_b196b287_bab4_101a_b69c_00aa00341d07@@3U__s_GUID@@BUtagCONNECTDATA@@V?$_Copy@UtagCONNECTDATA@@@ATL@@VCComSingleThreadModel@6@@ATL@@@ATL@@SGJPAPAV12@@Z 10005de9 f i RemoteOrderDisplay.obj
 0001:00004e30       ?DefaultReflectionHandler@?$CWindowImplRoot@VCWindow@ATL@@@ATL@@SAHPAUHWND__@@IIJAAJ@Z 10005e30 f i RemoteOrderDisplay.obj
 0001:00004ea3       ?DeleteSubKey@CRegKey@ATL@@QAEJPB_W@Z 10005ea3 f i RemoteOrderDisplay.obj
 0001:00004ec6       ?DoEvent@COPOSRemoteOrderDisplay@@IAEXIIJ@Z 10005ec6 f i RemoteOrderDisplay.obj
 0001:00004f46       ?DoVerbHide@?$IOleObjectImpl@VCOPOSRemoteOrderDisplay@@@ATL@@QAEJPBUtagRECT@@PAUHWND__@@@Z 10005f46 f i RemoteOrderDisplay.obj
 0001:00004f7c       ?DoVerbInPlaceActivate@?$IOleObjectImpl@VCOPOSRemoteOrderDisplay@@@ATL@@QAEJPBUtagRECT@@PAUHWND__@@@Z 10005f7c f i RemoteOrderDisplay.obj
 0001:00004faf       ?DoVerbPrimary@?$IOleObjectImpl@VCOPOSRemoteOrderDisplay@@@ATL@@QAEJPBUtagRECT@@PAUHWND__@@@Z 10005faf f i RemoteOrderDisplay.obj
 0001:0000503b       ?DoVerbProperties@CComControlBase@ATL@@QAEJPBUtagRECT@@PAUHWND__@@@Z 1000603b f i RemoteOrderDisplay.obj
 0001:00005162       ?DoVerbShow@?$IOleObjectImpl@VCOPOSRemoteOrderDisplay@@@ATL@@QAEJPBUtagRECT@@PAUHWND__@@@Z 10006162 f i RemoteOrderDisplay.obj
 0001:00005187       ?DoVerbUIActivate@?$IOleObjectImpl@VCOPOSRemoteOrderDisplay@@@ATL@@QAEJPBUtagRECT@@PAUHWND__@@@Z 10006187 f i RemoteOrderDisplay.obj
 0001:000051c4       ?DoesVerbActivate@CComControlBase@ATL@@QAEHJ@Z 100061c4 f i RemoteOrderDisplay.obj
 0001:000051e5       ?DoesVerbUIActivate@CComControlBase@ATL@@QAEHJ@Z 100061e5 f i RemoteOrderDisplay.obj
 0001:0000521a       ?EndOfVar@CRegParser@ATL@@IAEHXZ 1000621a f i RemoteOrderDisplay.obj
 0001:0000523a       ?EscapeSingleQuote@CAtlModule@ATL@@SAXPA_WIPB_W@Z 1000623a f i RemoteOrderDisplay.obj
 0001:00005289       ?FindKey@?$CSimpleMap@PA_WPA_WVCExpansionVectorEqualHelper@ATL@@@ATL@@QBEHABQA_W@Z 10006289 f i RemoteOrderDisplay.obj
 0001:000052c0       ?FireTheEvent@?$CProxy_IOPOSEvents@VCOPOSRemoteOrderDisplay@@@@IAEXPAVOposVariant@@IAAJPB_WJ@Z 100062c0 f i RemoteOrderDisplay.obj
 0001:00005352       ?FireViewChange@CComControlBase@ATL@@QAEJXZ 10006352 f i RemoteOrderDisplay.obj
 0001:0000539b       ?Fire_DataEvent@?$CProxy_IOPOSEvents@VCOPOSRemoteOrderDisplay@@@@QAEXJ@Z 1000639b f i RemoteOrderDisplay.obj
 0001:00005427       ?Fire_DirectIOEvent@?$CProxy_IOPOSEvents@VCOPOSRemoteOrderDisplay@@@@QAEXJPAJPAPA_W@Z 10006427 f i RemoteOrderDisplay.obj
 0001:0000550d       ?Fire_ErrorEvent@?$CProxy_IOPOSEvents@VCOPOSRemoteOrderDisplay@@@@QAEXJJJPAJ@Z 1000650d f i RemoteOrderDisplay.obj
 0001:000055f4       ?Fire_OutputCompleteEvent@?$CProxy_IOPOSEvents@VCOPOSRemoteOrderDisplay@@@@QAEXJ@Z 100065f4 f i RemoteOrderDisplay.obj
 0001:00005680       ?Fire_StatusUpdateEvent@?$CProxy_IOPOSEvents@VCOPOSRemoteOrderDisplay@@@@QAEXJ@Z 10006680 f i RemoteOrderDisplay.obj
 0001:0000570c       ?FreeHeap@?$CTempBuffer@_W$0EAA@VCCRTAllocator@ATL@@@ATL@@AAEXXZ 1000670c f i RemoteOrderDisplay.obj
 0001:0000570c       ?FreeHeap@?$CTempBuffer@_W$0BAA@VCCRTAllocator@ATL@@@ATL@@AAEXXZ 1000670c f i RemoteOrderDisplay.obj
 0001:0000570c       ?FreeHeap@?$CTempBuffer@E$0BAA@VCCRTAllocator@ATL@@@ATL@@AAEXXZ 1000670c f i RemoteOrderDisplay.obj
 0001:00005715       ?GetAmbientLocaleID@CComControlBase@ATL@@QAEJAAK@Z 10006715 f i RemoteOrderDisplay.obj
 0001:00005771       ?GetAmbientUserMode@CComControlBase@ATL@@QAEJAAH@Z 10006771 f i RemoteOrderDisplay.obj
 0001:000057e1       ?GetAt@CComDynamicUnkArray@ATL@@QAEPAUIUnknown@@H@Z 100067e1 f i RemoteOrderDisplay.obj
 0001:000057fd       ?GetClassObject@CComModule@ATL@@QAEJABU_GUID@@0PAPAX@Z 100067fd f i RemoteOrderDisplay.obj
 0001:0000589f       ?GetConnMap@COPOSRemoteOrderDisplay@@SAPBU_ATL_CONNMAP_ENTRY@ATL@@PAH@Z 1000689f f i RemoteOrderDisplay.obj
 0001:0000590f       ?GetCookie@CComDynamicUnkArray@ATL@@QAGKPAPAUIUnknown@@@Z 1000690f f i RemoteOrderDisplay.obj
 0001:00005947       ?GetIDsOfNames@CComTypeInfoHolder@ATL@@QAEJABU_GUID@@PAPA_WIKPAJ@Z 10006947 f i RemoteOrderDisplay.obj
 0001:00005a55       ?GetKeyAt@?$CSimpleMap@PA_WPA_WVCExpansionVectorEqualHelper@ATL@@@ATL@@QBEAAPA_WH@Z 10006a55 f i RemoteOrderDisplay.obj
 0001:00005a7a       ?GetPagesHelper@?$ISpecifyPropertyPagesImpl@VCOPOSRemoteOrderDisplay@@@ATL@@IAEJPAUtagCAUUID@@PBUATL_PROPMAP_ENTRY@2@@Z 10006a7a f i RemoteOrderDisplay.obj
 0001:00005ba1       ?GetProperty@?$CComPtr@UIDispatch@@@ATL@@SAJPAUIDispatch@@JPAUtagVARIANT@@@Z 10006ba1 f i RemoteOrderDisplay.obj
 0001:00005bf0       ?GetSizeMax@CComVariant@ATL@@QBEJPAT_ULARGE_INTEGER@@@Z 10006bf0 f i RemoteOrderDisplay.obj
 0001:00005daa       ?GetStreamSize@CComBSTR@ATL@@SAKPA_W@Z 10006daa f i RemoteOrderDisplay.obj
 0001:00005dc4       ?GetTI@CComTypeInfoHolder@ATL@@QAEJK@Z 10006dc4 f i RemoteOrderDisplay.obj
 0001:00005fad       ?GetTI@CComTypeInfoHolder@ATL@@QAEJKPAPAUITypeInfo@@@Z 10006fad f i RemoteOrderDisplay.obj
 0001:00005fef       ?GetUnknown@CComDynamicUnkArray@ATL@@QAGPAUIUnknown@@K@Z 10006fef f i RemoteOrderDisplay.obj
 0001:00006010       ?GetValueAt@?$CSimpleMap@PA_WPA_WVCExpansionVectorEqualHelper@ATL@@@ATL@@QBEAAPA_WH@Z 10007010 f i RemoteOrderDisplay.obj
 0001:00006036       ?GetZoomInfo@CComControlBase@ATL@@QAEXAAUATL_DRAWINFO@@@Z 10007036 f i RemoteOrderDisplay.obj
 0001:000060c9       ?HKeyFromString@CRegParser@ATL@@KAPAUHKEY__@@PA_W@Z 100070c9 f i RemoteOrderDisplay.obj
 0001:000060f7       ?HasSubKeys@CRegParser@ATL@@IAEHPAUHKEY__@@@Z 100070f7 f i RemoteOrderDisplay.obj
 0001:0000612c       ?IDataObject_GetData@CComControlBase@ATL@@QAEJPAUtagFORMATETC@@PAUtagSTGMEDIUM@@@Z 1000712c f i RemoteOrderDisplay.obj
 0001:000062d2       ?IOleInPlaceObject_InPlaceDeactivate@CComControlBase@ATL@@QAEJXZ 100072d2 f i RemoteOrderDisplay.obj
 0001:00006359       ?IOleInPlaceObject_SetObjectRects@CComControlBase@ATL@@QAEJPBUtagRECT@@0@Z 10007359 f i RemoteOrderDisplay.obj
 0001:00006426       ?IOleInPlaceObject_UIDeactivate@CComControlBase@ATL@@QAEJXZ 10007426 f i RemoteOrderDisplay.obj
 0001:000064e8       ?IOleObject_Advise@CComControlBase@ATL@@QAEJPAUIAdviseSink@@PAK@Z 100074e8 f i RemoteOrderDisplay.obj
 0001:00006512       ?IOleObject_Close@CComControlBase@ATL@@QAEJK@Z 10007512 f i RemoteOrderDisplay.obj
 0001:000065f6       ?IOleObject_GetClientSite@CComControlBase@ATL@@QAEJPAPAUIOleClientSite@@@Z 100075f6 f i RemoteOrderDisplay.obj
 0001:0000661f       ?IOleObject_SetClientSite@CComControlBase@ATL@@QAEJPAUIOleClientSite@@@Z 1000761f f i RemoteOrderDisplay.obj
 0001:0000665e       ?IOleObject_SetExtent@CComControlBase@ATL@@QAEJKPAUtagSIZE@@@Z 1000765e f i RemoteOrderDisplay.obj
 0001:00006712       ?IPSI_GetIPersistStreamInit@?$IPersistStorageImpl@VCOPOSRemoteOrderDisplay@@@ATL@@AAEPAUIPersistStreamInit@@XZ 10007712 f i RemoteOrderDisplay.obj
 0001:00006754       ?IPersistStreamInit_Load@?$IPersistStreamInitImpl@VCOPOSRemoteOrderDisplay@@@ATL@@QAEJPAUIStream@@PBUATL_PROPMAP_ENTRY@2@@Z 10007754 f i RemoteOrderDisplay.obj
 0001:00006780       ?IPersistStreamInit_Save@?$IPersistStreamInitImpl@VCOPOSRemoteOrderDisplay@@@ATL@@QAEJPAUIStream@@HPBUATL_PROPMAP_ENTRY@2@@Z 10007780 f i RemoteOrderDisplay.obj
 0001:000067b5       ?IQuickActivate_QuickActivate@CComControlBase@ATL@@QAEJPAUtagQACONTAINER@@PAUtagQACONTROL@@@Z 100077b5 f i RemoteOrderDisplay.obj
 0001:000069f7       ?IViewObject_Draw@CComControlBase@ATL@@QAEJKJPAXPAUtagDVTARGETDEVICE@@PAUHDC__@@2PBU_RECTL@@3@Z 100079f7 f i RemoteOrderDisplay.obj
 0001:00006a9f       ?InPlaceActivate@CComControlBase@ATL@@QAEJJPBUtagRECT@@@Z 10007a9f f i RemoteOrderDisplay.obj
 0001:00006d10       ?Init@?$CComEnumImpl@UIEnumConnectionPoints@@$1?_GUID_b196b285_bab4_101a_b69c_00aa00341d07@@3U__s_GUID@@BPAUIConnectionPoint@@V?$_CopyInterface@UIConnectionPoint@@@ATL@@@ATL@@QAEJPAPAUIConnectionPoint@@0PAUIUnknown@@W4CComEnumFlags@2@@Z 10007d10 f i RemoteOrderDisplay.obj
 0001:00006def       ?Init@?$CComEnumImpl@UIEnumConnections@@$1?_GUID_b196b287_bab4_101a_b69c_00aa00341d07@@3U__s_GUID@@BUtagCONNECTDATA@@V?$_Copy@UtagCONNECTDATA@@@ATL@@@ATL@@QAEJPAUtagCONNECTDATA@@0PAUIUnknown@@W4CComEnumFlags@2@@Z 10007def f i RemoteOrderDisplay.obj
 0001:00006ece       ?Init@CComModule@ATL@@QAEJPAU_ATL_OBJMAP_ENTRY30@2@PAUHINSTANCE__@@PBU_GUID@@@Z 10007ece f i RemoteOrderDisplay.obj
 0001:00006f2d       ?Init@CDynamicStdCallThunk2@ATL@@QAEHKPAX@Z 10007f2d f i RemoteOrderDisplay.obj
 0001:00006f58       ?InlineIsEqualUnknown@ATL@@YGHABU_GUID@@@Z 10007f58 f i RemoteOrderDisplay.obj
 0001:00006f80       ?InternalGetSite@CComControlBase@ATL@@QAEJABU_GUID@@PAPAX@Z 10007f80 f i RemoteOrderDisplay.obj
 0001:00006fae       ?InternalSetAtIndex@?$CSimpleMap@PA_WPA_WVCExpansionVectorEqualHelper@ATL@@@ATL@@QAEXHABQA_W0@Z 10007fae f i RemoteOrderDisplay.obj
 0001:00006fd8       ?Invoke@CComTypeInfoHolder@ATL@@QAEJPAUIDispatch@@JABU_GUID@@KGPAUtagDISPPARAMS@@PAUtagVARIANT@@PAUtagEXCEPINFO@@PAI@Z 10007fd8 f i RemoteOrderDisplay.obj
 0001:0000701b       ?IsEqualObject@?$CComPtrBase@UITypeInfo@@@ATL@@QAE_NPAUIUnknown@@@Z 1000801b f i RemoteOrderDisplay.obj
 0001:0000701b       ?IsEqualObject@?$CComPtrBase@UIOleClientSite@@@ATL@@QAE_NPAUIUnknown@@@Z 1000801b f i RemoteOrderDisplay.obj
 0001:00007088       ?IsSpace@CRegParser@ATL@@IAEH_W@Z 10008088 f i RemoteOrderDisplay.obj
 0001:000070b2       ?LoadNameCache@CComTypeInfoHolder@ATL@@QAEJPAUITypeInfo@@@Z 100080b2 f i RemoteOrderDisplay.obj
 0001:00007200       ?Lookup@?$CSimpleMap@PA_WPA_WVCExpansionVectorEqualHelper@ATL@@@ATL@@QBEPA_WABQA_W@Z 10008200 f i RemoteOrderDisplay.obj
 0001:00007226       ?NextToken@CRegParser@ATL@@IAEJPA_W@Z 10008226 f i RemoteOrderDisplay.obj
 0001:0000735e       ?OnKillFocus@CComControlBase@ATL@@QAEJIIJAAH@Z 1000835e f i RemoteOrderDisplay.obj
 0001:000073b9       ?OnMouseActivate@CComControlBase@ATL@@QAEJIIJAAH@Z 100083b9 f i RemoteOrderDisplay.obj
 0001:00007427       ?OnPaint@CComControlBase@ATL@@QAEJIIJAAH@Z 10008427 f i RemoteOrderDisplay.obj
 0001:000074d9       ?OnSetFocus@CComControlBase@ATL@@QAEJIIJAAH@Z 100084d9 f i RemoteOrderDisplay.obj
 0001:00007562       ?Open@CRegKey@ATL@@QAEJPAUHKEY__@@PB_WK@Z 10008562 f i RemoteOrderDisplay.obj
 0001:000075ab       ?PreProcessBuffer@CRegParser@ATL@@QAEJPA_WPAPA_W@Z 100085ab f i RemoteOrderDisplay.obj
 0001:00007815       ?ProcessWindowMessage@?$CComControl@VCOPOSRemoteOrderDisplay@@V?$CWindowImpl@VCOPOSRemoteOrderDisplay@@VCWindow@ATL@@V?$CWinTraits@$0FGAAAAAA@$0A@@3@@ATL@@@ATL@@UAEHPAUHWND__@@IIJAAJK@Z 10008815 f i RemoteOrderDisplay.obj
 0001:000078b4       ?PutProperty@?$CComPtr@UIDispatch@@@ATL@@SAJPAUIDispatch@@JPAUtagVARIANT@@@Z 100088b4 f i RemoteOrderDisplay.obj
 0001:00007946       ?ReadFromStream@CComBSTR@ATL@@QAEJPAUIStream@@@Z 10008946 f i RemoteOrderDisplay.obj
 0001:00007a74       ?ReadFromStream@CComVariant@ATL@@QAEJPAUIStream@@GTClassesAllowedInStream@2@K@Z 10008a74 f i RemoteOrderDisplay.obj
 0001:00007bfa       ?RecurseDeleteKey@CRegKey@ATL@@QAEJPB_W@Z 10008bfa f i RemoteOrderDisplay.obj
 0001:00007cbc       ?RegCreateKeyExW@CAtlTransactionManager@ATL@@QAEJPAUHKEY__@@PB_WKPA_WKKQAU_SECURITY_ATTRIBUTES@@PAPAU3@PAK@Z 10008cbc f i RemoteOrderDisplay.obj
 0001:00007d1f       ?RegDeleteKeyW@CAtlTransactionManager@ATL@@QAEJPAUHKEY__@@PB_W@Z 10008d1f f i RemoteOrderDisplay.obj
 0001:00007d71       ?RegOpenKeyExW@CAtlTransactionManager@ATL@@QAEJPAUHKEY__@@PB_WKKPAPAU3@@Z 10008d71 f i RemoteOrderDisplay.obj
 0001:00007dc8       ?Register@_ATL_WNDCLASSINFOW@ATL@@QAEGPAP6GJPAUHWND__@@IIJ@Z@Z 10008dc8 f i RemoteOrderDisplay.obj
 0001:00007de8       ?RegisterBuffer@CRegParser@ATL@@QAEJPA_WH@Z 10008de8 f i RemoteOrderDisplay.obj
 0001:00007f21       ?RegisterFromResource@CRegObject@ATL@@IAEJPB_W00H@Z 10008f21 f i RemoteOrderDisplay.obj
 0001:00008057       ?RegisterServer@?$CAtlModuleT@VCComModule@ATL@@@ATL@@QAEJHPBU_GUID@@@Z 10009057 f i RemoteOrderDisplay.obj
 0001:00008085       ?RegisterServer@CComModule@ATL@@QAEJHPBU_GUID@@@Z 10009085 f i RemoteOrderDisplay.obj
 0001:000080fb       ?RegisterSubkeys@CRegParser@ATL@@IAEJPA_WPAUHKEY__@@HH@Z 100090fb f i RemoteOrderDisplay.obj
 0001:000086ca       ?Remove@CComDynamicUnkArray@ATL@@QAEHK@Z 100096ca f i RemoteOrderDisplay.obj
 0001:000086f3       ?RemoveAll@?$CSimpleMap@PA_WPA_WVCExpansionVectorEqualHelper@ATL@@@ATL@@QAEXXZ 100096f3 f i RemoteOrderDisplay.obj
 0001:0000871f       ?ResourceRegisterSz@CRegObject@ATL@@QAGJPB_W00@Z 1000971f f i RemoteOrderDisplay.obj
 0001:0000874c       ?ResourceUnregisterSz@CRegObject@ATL@@QAGJPB_W00@Z 1000974c f i RemoteOrderDisplay.obj
 0001:00008779       ?SendOnDataChange@CComControlBase@ATL@@QAEJK@Z 10009779 f i RemoteOrderDisplay.obj
 0001:000087c6       ?SetControlFocus@CComControlBase@ATL@@QAEHH@Z 100097c6 f i RemoteOrderDisplay.obj
 0001:00008863       ?SetMultiStringValue@CRegKey@ATL@@QAEJPB_W0@Z 10009863 f i RemoteOrderDisplay.obj
 0001:000088bf       ?SetStringValue@CRegKey@ATL@@QAEJPB_W0K@Z 100098bf f i RemoteOrderDisplay.obj
 0001:00008908       ?SkipAssignment@CRegParser@ATL@@IAEJPA_W@Z 10009908 f i RemoteOrderDisplay.obj
 0001:0000896d       ?SkipWhiteSpace@CRegParser@ATL@@IAEXXZ 1000996d f i RemoteOrderDisplay.obj
 0001:0000898f       ?StrChrW@CRegParser@ATL@@KAPA_WPA_W_W@Z 1000998f f i RemoteOrderDisplay.obj
 0001:000089cc       ?Term@CAtlModule@ATL@@QAEXXZ 100099cc f i RemoteOrderDisplay.obj
 0001:00008a05       ?Term@CComModule@ATL@@QAEXXZ 10009a05 f i RemoteOrderDisplay.obj
 0001:00008a5d       ?UnregisterServer@?$CAtlModuleT@VCComModule@ATL@@@ATL@@QAEJHPBU_GUID@@@Z 10009a5d f i RemoteOrderDisplay.obj
 0001:00008a83       ?UnregisterServer@CComModule@ATL@@QAEJHPBU_GUID@@@Z 10009a83 f i RemoteOrderDisplay.obj
 0001:00008af9       ?UpdateRegistryFromResource@CAtlModule@ATL@@QAGJIHPAU_ATL_REGMAP_ENTRY@2@@Z 10009af9 f i RemoteOrderDisplay.obj
 0001:00008cc4       ?UpdateRegistryFromResource@CAtlModule@ATL@@QAGJPB_WHPAU_ATL_REGMAP_ENTRY@2@@Z 10009cc4 f i RemoteOrderDisplay.obj
 0001:00008e95       ?VTFromRegType@CRegParser@ATL@@KAHPB_WAAG@Z 10009e95 f i RemoteOrderDisplay.obj
 0001:00008f02       ?WindowProc@?$CWindowImplBaseT@VCWindow@ATL@@V?$CWinTraits@$0FGAAAAAA@$0A@@2@@ATL@@SGJPAUHWND__@@IIJ@Z 10009f02 f i RemoteOrderDisplay.obj
 0001:00008ff4       ?WriteToStream@CComBSTR@ATL@@QAEJPAUIStream@@@Z 10009ff4 f i RemoteOrderDisplay.obj
 0001:0000904b       ?WriteToStream@CComVariant@ATL@@QAEJPAUIStream@@@Z 1000a04b f i RemoteOrderDisplay.obj
 0001:000091c5       ?WriteToStream@CComVariant@ATL@@QAEJPAUIStream@@G@Z 1000a1c5 f i RemoteOrderDisplay.obj
 0001:0000922e       ?_AtlInitialConstruct@?$CComObjectRootEx@VCComMultiThreadModel@ATL@@@ATL@@QAEJXZ 1000a22e f i RemoteOrderDisplay.obj
 0001:00009243       ?_AtlVerifyStackAvailable@_ATL_SAFE_ALLOCA_IMPL@ATL@@YA_NK@Z 1000a243 f i RemoteOrderDisplay.obj
 0001:000092c1       ?copy@?$_Copy@UtagCONNECTDATA@@@ATL@@SAJPAUtagCONNECTDATA@@PBU3@@Z 1000a2c1 f i RemoteOrderDisplay.obj
 0001:000092f7       ?copy@?$_CopyInterface@UIConnectionPoint@@@ATL@@SAJPAPAUIConnectionPoint@@PBQAU3@@Z 1000a2f7 f i RemoteOrderDisplay.obj
 0001:00009325       ?memcpy_s@Checked@ATL@@YAXPAXIPBXI@Z 1000a325 f i RemoteOrderDisplay.obj
 0001:00009344       ?ocscpy_s@@YA_NPA_WIPB_W@Z 1000a344 f i RemoteOrderDisplay.obj
 0001:00009373       ?ocslen@@YAHPB_W@Z         1000a373 f i RemoteOrderDisplay.obj
 0001:00009393       ?wcscpy_s@Checked@ATL@@YAXPA_WIPB_W@Z 1000a393 f i RemoteOrderDisplay.obj
 0001:000093af       _DllCanUnloadNow@0         1000a3af f   RemoteOrderDisplay.obj
 0001:000093bb       _DllGetClassObject@12      1000a3bb f   RemoteOrderDisplay.obj
 0001:000093c9       _DllMain@12                1000a3c9 f   RemoteOrderDisplay.obj
 0001:0000940b       _DllRegisterServer@0       1000a40b f   RemoteOrderDisplay.obj
 0001:0000941a       _DllUnregisterServer@0     1000a41a f   RemoteOrderDisplay.obj
 0001:00009429       _InlineIsEqualGUID         1000a429 f i RemoteOrderDisplay.obj
 0001:00009459       ___local_stdio_printf_options 1000a459 f i RemoteOrderDisplay.obj
 0001:0000945f       __vswprintf_s_l            1000a45f f i RemoteOrderDisplay.obj
 0001:0000950c       _swprintf_s                1000a50c f i RemoteOrderDisplay.obj
 0001:00009528       ??0?$CComControl@VCOPOSRemoteOrderDisplay@@V?$CWindowImpl@VCOPOSRemoteOrderDisplay@@VCWindow@ATL@@V?$CWinTraits@$0FGAAAAAA@$0A@@3@@ATL@@@ATL@@QAE@XZ 1000a528 f i RemoteOrderDisplayImpl.obj
 0001:0000954f       ??0?$CProxy_IOPOSEvents@VCOPOSRemoteOrderDisplay@@@@QAE@XZ 1000a54f f i RemoteOrderDisplayImpl.obj
 0001:00009572       ??0CComControlBase@ATL@@QAE@AAPAUHWND__@@@Z 1000a572 f i RemoteOrderDisplayImpl.obj
 0001:000095bc       ??0COPOSRemoteOrderDisplay@@QAE@XZ 1000a5bc f   RemoteOrderDisplayImpl.obj
 0001:000095f2       ??1?$CComControl@VCOPOSRemoteOrderDisplay@@V?$CWindowImpl@VCOPOSRemoteOrderDisplay@@VCWindow@ATL@@V?$CWinTraits@$0FGAAAAAA@$0A@@3@@ATL@@@ATL@@UAE@XZ 1000a5f2 f i RemoteOrderDisplayImpl.obj
 0001:0000960b       ??1?$IConnectionPointImpl@VCOPOSRemoteOrderDisplay@@$1?DIID__IOPOSRemoteOrderDisplayEvents@@3U_GUID@@BVCComDynamicUnkArray@ATL@@@ATL@@QAE@XZ 1000a60b f i RemoteOrderDisplayImpl.obj
 0001:0000960b       ??1?$IConnectionPointImpl@VCOPOSRemoteOrderDisplay@@$1?IID_IPropertyNotifySink@@3U_GUID@@BVCComDynamicUnkArray@ATL@@@ATL@@QAE@XZ 1000a60b f i RemoteOrderDisplayImpl.obj
 0001:00009648       ??1CComControlBase@ATL@@UAE@XZ 1000a648 f i RemoteOrderDisplayImpl.obj
 0001:000096ab       ??1COPOSRemoteOrderDisplay@@UAE@XZ 1000a6ab f   RemoteOrderDisplayImpl.obj
 0001:000096f3       ??1OposVariantResult@@QAE@XZ 1000a6f3 f i RemoteOrderDisplayImpl.obj
 0001:00009714       ??1_CW@@QAE@XZ             1000a714 f i RemoteOrderDisplayImpl.obj
 0001:0000972d       ?CheckHealth@COPOSRemoteOrderDisplay@@UAGJJPAJ@Z 1000a72d f   RemoteOrderDisplayImpl.obj
 0001:0000977c       ?ClaimDevice@COPOSRemoteOrderDisplay@@UAGJJPAJ@Z 1000a77c f   RemoteOrderDisplayImpl.obj
 0001:000097f1       ?ClearInput@COPOSRemoteOrderDisplay@@UAGJPAJ@Z 1000a7f1 f   RemoteOrderDisplayImpl.obj
 0001:0000980c       ?ClearOutput@COPOSRemoteOrderDisplay@@UAGJPAJ@Z 1000a80c f   RemoteOrderDisplayImpl.obj
 0001:00009827       ?ClearVideo@COPOSRemoteOrderDisplay@@UAGJJJPAJ@Z 1000a827 f   RemoteOrderDisplayImpl.obj
 0001:0000989b       ?ClearVideoRegion@COPOSRemoteOrderDisplay@@UAGJJJJJJJPAJ@Z 1000a89b f   RemoteOrderDisplayImpl.obj
 0001:0000995e       ?Close@COPOSRemoteOrderDisplay@@UAGJPAJ@Z 1000a95e f   RemoteOrderDisplayImpl.obj
 0001:000099cc       ?CompareFirmwareVersion@COPOSRemoteOrderDisplay@@UAGJPA_WPAJ1@Z 1000a9cc f   RemoteOrderDisplayImpl.obj
 0001:00009a4c       ?ControlClock@COPOSRemoteOrderDisplay@@UAGJJJJJJJJJJJPAJ@Z 1000aa4c f   RemoteOrderDisplayImpl.obj
 0001:00009b47       ?ControlCursor@COPOSRemoteOrderDisplay@@UAGJJJPAJ@Z 1000ab47 f   RemoteOrderDisplayImpl.obj
 0001:00009bbb       ?CopyVideoRegion@COPOSRemoteOrderDisplay@@UAGJJJJJJJJPAJ@Z 1000abbb f   RemoteOrderDisplayImpl.obj
 0001:00009c8c       ?DirectIO@COPOSRemoteOrderDisplay@@UAGJJPAJPAPA_W0@Z 1000ac8c f   RemoteOrderDisplayImpl.obj
 0001:00009d3a       ?DisplayData@COPOSRemoteOrderDisplay@@UAGJJJJJPA_WPAJ@Z 1000ad3a f   RemoteOrderDisplayImpl.obj
 0001:00009dfd       ?DoInvoke@COPOSRemoteOrderDisplay@@IAEJJPAVOposVariant@@IHPAJ_N@Z 1000adfd f   RemoteOrderDisplayImpl.obj
 0001:00009ebf       ?DrawBox@COPOSRemoteOrderDisplay@@UAGJJJJJJJJPAJ@Z 1000aebf f   RemoteOrderDisplayImpl.obj
 0001:00009f90       ?EventClose@COPOSRemoteOrderDisplay@@IAEXXZ 1000af90 f i RemoteOrderDisplayImpl.obj
 0001:00009fc3       ?EventInit@COPOSRemoteOrderDisplay@@IAEJXZ 1000afc3 f i RemoteOrderDisplayImpl.obj
 0001:0000a08f       ?EventUninit@COPOSRemoteOrderDisplay@@IAEXXZ 1000b08f f i RemoteOrderDisplayImpl.obj
 0001:0000a0e1       ?EventWindowProc@COPOSRemoteOrderDisplay@@IAGJIIJ@Z 1000b0e1 f i RemoteOrderDisplayImpl.obj
 0001:0000a1df       ?FinalConstruct@COPOSRemoteOrderDisplay@@QAEJXZ 1000b1df f   RemoteOrderDisplayImpl.obj
 0001:0000a218       ?FireEventCleanup@COPOSRemoteOrderDisplay@@IAEXXZ 1000b218 f i RemoteOrderDisplayImpl.obj
 0001:0000a22e       ?FireEventSetup@COPOSRemoteOrderDisplay@@IAE_NXZ 1000b22e f i RemoteOrderDisplayImpl.obj
 0001:0000a262       ?FreeVideoRegion@COPOSRemoteOrderDisplay@@UAGJJJPAJ@Z 1000b262 f   RemoteOrderDisplayImpl.obj
 0001:0000a2d6       ?FreezeEvents@COPOSRemoteOrderDisplay@@MAGJH@Z 1000b2d6 f   RemoteOrderDisplayImpl.obj
 0001:0000a336       ?GetOposProp@COPOSRemoteOrderDisplay@@IAEJJPAFJ@Z 1000b336 f   RemoteOrderDisplayImpl.obj
 0001:0000a359       ?GetOposProp@COPOSRemoteOrderDisplay@@IAEJJPAJJ@Z 1000b359 f   RemoteOrderDisplayImpl.obj
 0001:0000a417       ?GetOposProp@COPOSRemoteOrderDisplay@@IAEJJPAPA_WJ@Z 1000b417 f   RemoteOrderDisplayImpl.obj
 0001:0000a4e2       ?OnDraw@COPOSRemoteOrderDisplay@@MAEJAAUATL_DRAWINFO@@@Z 1000b4e2 f   RemoteOrderDisplayImpl.obj
 0001:0000a582       ?Open@COPOSRemoteOrderDisplay@@UAGJPA_WPAJ@Z 1000b582 f   RemoteOrderDisplayImpl.obj
 0001:0000ad1f       ?ReleaseDevice@COPOSRemoteOrderDisplay@@UAGJPAJ@Z 1000bd1f f   RemoteOrderDisplayImpl.obj
 0001:0000ad6e       ?ResetStatistics@COPOSRemoteOrderDisplay@@UAGJPA_WPAJ@Z 1000bd6e f   RemoteOrderDisplayImpl.obj
 0001:0000adc5       ?ResetVideo@COPOSRemoteOrderDisplay@@UAGJJPAJ@Z 1000bdc5 f   RemoteOrderDisplayImpl.obj
 0001:0000ae14       ?RestoreVideoRegion@COPOSRemoteOrderDisplay@@UAGJJJJJPAJ@Z 1000be14 f   RemoteOrderDisplayImpl.obj
 0001:0000aeb5       ?RetrieveStatistics@COPOSRemoteOrderDisplay@@UAGJPAPA_WPAJ@Z 1000beb5 f   RemoteOrderDisplayImpl.obj
 0001:0000af0c       ?SOProcessID@COPOSRemoteOrderDisplay@@UAGJPAJ@Z 1000bf0c f   RemoteOrderDisplayImpl.obj
 0001:0000af20       ?SaveVideoRegion@COPOSRemoteOrderDisplay@@UAGJJJJJJJPAJ@Z 1000bf20 f   RemoteOrderDisplayImpl.obj
 0001:0000afe3       ?SelectCharacterSet@COPOSRemoteOrderDisplay@@UAGJJJPAJ@Z 1000bfe3 f   RemoteOrderDisplayImpl.obj
 0001:0000b057       ?SetCOFreezeEvents@COPOSRemoteOrderDisplay@@IAEXF@Z 1000c057 f   RemoteOrderDisplayImpl.obj
 0001:0000b0e2       ?SetCursor@COPOSRemoteOrderDisplay@@UAGJJJJPAJ@Z 1000c0e2 f   RemoteOrderDisplayImpl.obj
 0001:0000b178       ?SetOposProp@COPOSRemoteOrderDisplay@@IAEJJJJ@Z 1000c178 f   RemoteOrderDisplayImpl.obj
 0001:0000b256       ?TransactionDisplay@COPOSRemoteOrderDisplay@@UAGJJJPAJ@Z 1000c256 f   RemoteOrderDisplayImpl.obj
 0001:0000b2ca       ?UpdateFirmware@COPOSRemoteOrderDisplay@@UAGJPA_WPAJ@Z 1000c2ca f   RemoteOrderDisplayImpl.obj
 0001:0000b321       ?UpdateStatistics@COPOSRemoteOrderDisplay@@UAGJPA_WPAJ@Z 1000c321 f   RemoteOrderDisplayImpl.obj
 0001:0000b378       ?UpdateVideoRegionAttribute@COPOSRemoteOrderDisplay@@UAGJJJJJJJJPAJ@Z 1000c378 f   RemoteOrderDisplayImpl.obj
 0001:0000b449       ?VideoSound@COPOSRemoteOrderDisplay@@UAGJJJJJJPAJ@Z 1000c449 f   RemoteOrderDisplayImpl.obj
 0001:0000b4f5       ?get_AsyncMode@COPOSRemoteOrderDisplay@@UAGJPAF@Z 1000c4f5 f   RemoteOrderDisplayImpl.obj
 0001:0000b50e       ?get_AutoToneDuration@COPOSRemoteOrderDisplay@@UAGJPAJ@Z 1000c50e f   RemoteOrderDisplayImpl.obj
 0001:0000b527       ?get_AutoToneFrequency@COPOSRemoteOrderDisplay@@UAGJPAJ@Z 1000c527 f   RemoteOrderDisplayImpl.obj
 0001:0000b540       ?get_BinaryConversion@COPOSRemoteOrderDisplay@@UAGJPAJ@Z 1000c540 f   RemoteOrderDisplayImpl.obj
 0001:0000b556       ?get_CapCompareFirmwareVersion@COPOSRemoteOrderDisplay@@UAGJPAF@Z 1000c556 f   RemoteOrderDisplayImpl.obj
 0001:0000b56f       ?get_CapMapCharacterSet@COPOSRemoteOrderDisplay@@UAGJPAF@Z 1000c56f f   RemoteOrderDisplayImpl.obj
 0001:0000b588       ?get_CapPowerReporting@COPOSRemoteOrderDisplay@@UAGJPAJ@Z 1000c588 f   RemoteOrderDisplayImpl.obj
 0001:0000b5a1       ?get_CapSelectCharacterSet@COPOSRemoteOrderDisplay@@UAGJPAF@Z 1000c5a1 f   RemoteOrderDisplayImpl.obj
 0001:0000b5ba       ?get_CapStatisticsReporting@COPOSRemoteOrderDisplay@@UAGJPAF@Z 1000c5ba f   RemoteOrderDisplayImpl.obj
 0001:0000b5d3       ?get_CapTone@COPOSRemoteOrderDisplay@@UAGJPAF@Z 1000c5d3 f   RemoteOrderDisplayImpl.obj
 0001:0000b5ec       ?get_CapTouch@COPOSRemoteOrderDisplay@@UAGJPAF@Z 1000c5ec f   RemoteOrderDisplayImpl.obj
 0001:0000b605       ?get_CapTransaction@COPOSRemoteOrderDisplay@@UAGJPAF@Z 1000c605 f   RemoteOrderDisplayImpl.obj
 0001:0000b61e       ?get_CapUpdateFirmware@COPOSRemoteOrderDisplay@@UAGJPAF@Z 1000c61e f   RemoteOrderDisplayImpl.obj
 0001:0000b637       ?get_CapUpdateStatistics@COPOSRemoteOrderDisplay@@UAGJPAF@Z 1000c637 f   RemoteOrderDisplayImpl.obj
 0001:0000b650       ?get_CharacterSet@COPOSRemoteOrderDisplay@@UAGJPAJ@Z 1000c650 f   RemoteOrderDisplayImpl.obj
 0001:0000b669       ?get_CharacterSetList@COPOSRemoteOrderDisplay@@UAGJPAPA_W@Z 1000c669 f   RemoteOrderDisplayImpl.obj
 0001:0000b682       ?get_CheckHealthText@COPOSRemoteOrderDisplay@@UAGJPAPA_W@Z 1000c682 f   RemoteOrderDisplayImpl.obj
 0001:0000b69b       ?get_Claimed@COPOSRemoteOrderDisplay@@UAGJPAF@Z 1000c69b f   RemoteOrderDisplayImpl.obj
 0001:0000b6b1       ?get_Clocks@COPOSRemoteOrderDisplay@@UAGJPAJ@Z 1000c6b1 f   RemoteOrderDisplayImpl.obj
 0001:0000b6ca       ?get_ControlObjectDescription@COPOSRemoteOrderDisplay@@UAGJPAPA_W@Z 1000c6ca f   RemoteOrderDisplayImpl.obj
 0001:0000b707       ?get_ControlObjectVersion@COPOSRemoteOrderDisplay@@UAGJPAJ@Z 1000c707 f   RemoteOrderDisplayImpl.obj
 0001:0000b71a       ?get_CurrentUnitID@COPOSRemoteOrderDisplay@@UAGJPAJ@Z 1000c71a f   RemoteOrderDisplayImpl.obj
 0001:0000b733       ?get_DataCount@COPOSRemoteOrderDisplay@@UAGJPAJ@Z 1000c733 f   RemoteOrderDisplayImpl.obj
 0001:0000b749       ?get_DataEventEnabled@COPOSRemoteOrderDisplay@@UAGJPAF@Z 1000c749 f   RemoteOrderDisplayImpl.obj
 0001:0000b75f       ?get_DeviceDescription@COPOSRemoteOrderDisplay@@UAGJPAPA_W@Z 1000c75f f   RemoteOrderDisplayImpl.obj
 0001:0000b778       ?get_DeviceEnabled@COPOSRemoteOrderDisplay@@UAGJPAF@Z 1000c778 f   RemoteOrderDisplayImpl.obj
 0001:0000b78e       ?get_DeviceName@COPOSRemoteOrderDisplay@@UAGJPAPA_W@Z 1000c78e f   RemoteOrderDisplayImpl.obj
 0001:0000b7a7       ?get_ErrorString@COPOSRemoteOrderDisplay@@UAGJPAPA_W@Z 1000c7a7 f   RemoteOrderDisplayImpl.obj
 0001:0000b7c0       ?get_ErrorUnits@COPOSRemoteOrderDisplay@@UAGJPAJ@Z 1000c7c0 f   RemoteOrderDisplayImpl.obj
 0001:0000b7d9       ?get_EventString@COPOSRemoteOrderDisplay@@UAGJPAPA_W@Z 1000c7d9 f   RemoteOrderDisplayImpl.obj
 0001:0000b7f2       ?get_EventType@COPOSRemoteOrderDisplay@@UAGJPAJ@Z 1000c7f2 f   RemoteOrderDisplayImpl.obj
 0001:0000b80b       ?get_EventUnitID@COPOSRemoteOrderDisplay@@UAGJPAJ@Z 1000c80b f   RemoteOrderDisplayImpl.obj
 0001:0000b824       ?get_EventUnits@COPOSRemoteOrderDisplay@@UAGJPAJ@Z 1000c824 f   RemoteOrderDisplayImpl.obj
 0001:0000b83d       ?get_FreezeEvents@COPOSRemoteOrderDisplay@@UAGJPAF@Z 1000c83d f   RemoteOrderDisplayImpl.obj
 0001:0000b853       ?get_MapCharacterSet@COPOSRemoteOrderDisplay@@UAGJPAF@Z 1000c853 f   RemoteOrderDisplayImpl.obj
 0001:0000b86c       ?get_OpenResult@COPOSRemoteOrderDisplay@@UAGJPAJ@Z 1000c86c f   RemoteOrderDisplayImpl.obj
 0001:0000b883       ?get_OutputID@COPOSRemoteOrderDisplay@@UAGJPAJ@Z 1000c883 f   RemoteOrderDisplayImpl.obj
 0001:0000b899       ?get_PowerNotify@COPOSRemoteOrderDisplay@@UAGJPAJ@Z 1000c899 f   RemoteOrderDisplayImpl.obj
 0001:0000b8af       ?get_PowerState@COPOSRemoteOrderDisplay@@UAGJPAJ@Z 1000c8af f   RemoteOrderDisplayImpl.obj
 0001:0000b8c5       ?get_ResultCode@COPOSRemoteOrderDisplay@@UAGJPAJ@Z 1000c8c5 f   RemoteOrderDisplayImpl.obj
 0001:0000b903       ?get_ResultCodeExtended@COPOSRemoteOrderDisplay@@UAGJPAJ@Z 1000c903 f   RemoteOrderDisplayImpl.obj
 0001:0000b919       ?get_ServiceObjectDescription@COPOSRemoteOrderDisplay@@UAGJPAPA_W@Z 1000c919 f   RemoteOrderDisplayImpl.obj
 0001:0000b932       ?get_ServiceObjectVersion@COPOSRemoteOrderDisplay@@UAGJPAJ@Z 1000c932 f   RemoteOrderDisplayImpl.obj
 0001:0000b948       ?get_State@COPOSRemoteOrderDisplay@@UAGJPAJ@Z 1000c948 f   RemoteOrderDisplayImpl.obj
 0001:0000b974       ?get_SystemClocks@COPOSRemoteOrderDisplay@@UAGJPAJ@Z 1000c974 f   RemoteOrderDisplayImpl.obj
 0001:0000b98d       ?get_SystemVideoSaveBuffers@COPOSRemoteOrderDisplay@@UAGJPAJ@Z 1000c98d f   RemoteOrderDisplayImpl.obj
 0001:0000b9a6       ?get_Timeout@COPOSRemoteOrderDisplay@@UAGJPAJ@Z 1000c9a6 f   RemoteOrderDisplayImpl.obj
 0001:0000b9bf       ?get_UnitsOnline@COPOSRemoteOrderDisplay@@UAGJPAJ@Z 1000c9bf f   RemoteOrderDisplayImpl.obj
 0001:0000b9d8       ?get_VideoDataCount@COPOSRemoteOrderDisplay@@UAGJPAJ@Z 1000c9d8 f   RemoteOrderDisplayImpl.obj
 0001:0000b9f1       ?get_VideoMode@COPOSRemoteOrderDisplay@@UAGJPAJ@Z 1000c9f1 f   RemoteOrderDisplayImpl.obj
 0001:0000ba0a       ?get_VideoModesList@COPOSRemoteOrderDisplay@@UAGJPAPA_W@Z 1000ca0a f   RemoteOrderDisplayImpl.obj
 0001:0000ba23       ?get_VideoSaveBuffers@COPOSRemoteOrderDisplay@@UAGJPAJ@Z 1000ca23 f   RemoteOrderDisplayImpl.obj
 0001:0000ba3c       ?put_AsyncMode@COPOSRemoteOrderDisplay@@UAGJF@Z 1000ca3c f   RemoteOrderDisplayImpl.obj
 0001:0000ba5c       ?put_AutoToneDuration@COPOSRemoteOrderDisplay@@UAGJJ@Z 1000ca5c f   RemoteOrderDisplayImpl.obj
 0001:0000ba75       ?put_AutoToneFrequency@COPOSRemoteOrderDisplay@@UAGJJ@Z 1000ca75 f   RemoteOrderDisplayImpl.obj
 0001:0000ba8e       ?put_BinaryConversion@COPOSRemoteOrderDisplay@@UAGJJ@Z 1000ca8e f   RemoteOrderDisplayImpl.obj
 0001:0000baa4       ?put_CurrentUnitID@COPOSRemoteOrderDisplay@@UAGJJ@Z 1000caa4 f   RemoteOrderDisplayImpl.obj
 0001:0000babd       ?put_DataEventEnabled@COPOSRemoteOrderDisplay@@UAGJF@Z 1000cabd f   RemoteOrderDisplayImpl.obj
 0001:0000bada       ?put_DeviceEnabled@COPOSRemoteOrderDisplay@@UAGJF@Z 1000cada f   RemoteOrderDisplayImpl.obj
 0001:0000baf7       ?put_EventType@COPOSRemoteOrderDisplay@@UAGJJ@Z 1000caf7 f   RemoteOrderDisplayImpl.obj
 0001:0000bb10       ?put_FreezeEvents@COPOSRemoteOrderDisplay@@UAGJF@Z 1000cb10 f   RemoteOrderDisplayImpl.obj
 0001:0000bb5c       ?put_MapCharacterSet@COPOSRemoteOrderDisplay@@UAGJF@Z 1000cb5c f   RemoteOrderDisplayImpl.obj
 0001:0000bb7c       ?put_PowerNotify@COPOSRemoteOrderDisplay@@UAGJJ@Z 1000cb7c f   RemoteOrderDisplayImpl.obj
 0001:0000bb92       ?put_Timeout@COPOSRemoteOrderDisplay@@UAGJJ@Z 1000cb92 f   RemoteOrderDisplayImpl.obj
 0001:0000bbab       ?put_VideoMode@COPOSRemoteOrderDisplay@@UAGJJ@Z 1000cbab f   RemoteOrderDisplayImpl.obj
 0001:0000bbc4       ?s_EventWindowProc@COPOSRemoteOrderDisplay@@KGJPAUHWND__@@IIJ@Z 1000cbc4 f i RemoteOrderDisplayImpl.obj
 0001:0000bc16       ??_U@YAPAXI@Z              1000cc16 f   LIBCMT:new_array.obj
 0001:0000bc1f       ??3@YAXPAXI@Z              1000cc1f f   LIBCMT:delete_scalar_size.obj
 0001:0000bc2d       ??_V@YAXPAX@Z              1000cc2d f   LIBCMT:delete_array.obj
 0001:0000bc32       ??_V@YAXPAXI@Z             1000cc32 f   LIBCMT:delete_array_size.obj
 0001:0000bc40       ??$__crt_fast_encode_pointer@P6GHPAU_RTL_CONDITION_VARIABLE@@PAU_RTL_CRITICAL_SECTION@@K@Z@@YAP6GHPAU_RTL_CONDITION_VARIABLE@@PAU_RTL_CRITICAL_SECTION@@K@ZQ6GH01K@Z@Z 1000cc40 f i LIBCMT:thread_safe_statics.obj
 0001:0000bc40       ??$__crt_fast_encode_pointer@PAP6AXXZ@@YAPAP6AXXZQAP6AXXZ@Z 1000cc40 f i LIBCMT:utility.obj
 0001:0000bc40       ??$__crt_fast_encode_pointer@PAX@@YAPAXQAX@Z 1000cc40 f i libvcruntime:winapi_downlevel.obj
 0001:0000bc40       ??$__crt_fast_encode_pointer@P6GXPAU_RTL_CONDITION_VARIABLE@@@Z@@YAP6GXPAU_RTL_CONDITION_VARIABLE@@@ZQ6GX0@Z@Z 1000cc40 f i LIBCMT:thread_safe_statics.obj
 0001:0000bca1       ___scrt_acquire_startup_lock 1000cca1 f   LIBCMT:utility.obj
 0001:0000bcd3       ___scrt_dllmain_after_initialize_c 1000ccd3 f   LIBCMT:utility.obj
 0001:0000bcfe       ___scrt_dllmain_before_initialize_c 1000ccfe f   LIBCMT:utility.obj
 0001:0000bd0c       ___scrt_dllmain_crt_thread_attach 1000cd0c f   LIBCMT:utility.obj
 0001:0000bd2b       ___scrt_dllmain_crt_thread_detach 1000cd2b f   LIBCMT:utility.obj
 0001:0000bd38       ___scrt_dllmain_exception_filter 1000cd38 f   LIBCMT:utility.obj
 0001:0000bd6c       ___scrt_dllmain_uninitialize_c 1000cd6c f   LIBCMT:utility.obj
 0001:0000bd8f       ___scrt_dllmain_uninitialize_critical 1000cd8f f   LIBCMT:utility.obj
 0001:0000bd9c       ___scrt_initialize_crt     1000cd9c f   LIBCMT:utility.obj
 0001:0000bdd5       ___scrt_initialize_onexit_tables 1000cdd5 f   LIBCMT:utility.obj
 0001:0000be7a       ___scrt_is_nonwritable_in_current_image 1000ce7a f   LIBCMT:utility.obj
 0001:0000bf0e       ___scrt_release_startup_lock 1000cf0e f   LIBCMT:utility.obj
 0001:0000bf2b       ___scrt_uninitialize_crt   1000cf2b f   LIBCMT:utility.obj
 0001:0000bf53       __onexit                   1000cf53 f   LIBCMT:utility.obj
 0001:0000bf8e       _atexit                    1000cf8e f   LIBCMT:utility.obj
 0001:0000bfa3       ??3@YAXPAX@Z               1000cfa3 f   LIBCMT:delete_scalar.obj
 0001:0000c0da       __Init_thread_footer       1000d0da f   LIBCMT:thread_safe_statics.obj
 0001:0000c124       __Init_thread_header       1000d124 f   LIBCMT:thread_safe_statics.obj
 0001:0000c176       __Init_thread_notify       1000d176 f   LIBCMT:thread_safe_statics.obj
 0001:0000c1b8       __Init_thread_wait         1000d1b8 f   LIBCMT:thread_safe_statics.obj
 0001:0000c218       ___raise_securityfailure   1000d218 f   LIBCMT:gs_report.obj
 0001:0000c240       ___report_gsfailure        1000d240 f   LIBCMT:gs_report.obj
 0001:0000c339       ___report_rangecheckfailure 1000d339 f   LIBCMT:gs_report.obj
 0001:0000c345       ___report_securityfailure  1000d345 f   LIBCMT:gs_report.obj
 0001:0000c413       ??2@YAPAXIABUnothrow_t@std@@@Z 1000d413 f   LIBCMT:new_scalar_nothrow.obj
 0001:0000c463       ??_U@YAPAXIABUnothrow_t@std@@@Z 1000d463 f   LIBCMT:new_array_nothrow.obj
 0001:0000c46c       @__security_check_cookie@4 1000d46c f   LIBCMT:_secchk_.obj
 0001:0000c480       __SEH_prolog4_GS           1000d480 f   LIBCMT:_sehprolg4gs_.obj
 0001:0000c4c9       __SEH_epilog4_GS           1000d4c9 f   LIBCMT:_sehprolg4gs_.obj
 0001:0000c4e0       __alloca_probe_16          1000d4e0 f   LIBCMT:alloca16.obj
 0001:0000c4f6       __alloca_probe_8           1000d4f6     LIBCMT:alloca16.obj
 0001:0000c510       __chkstk                   1000d510 f   LIBCMT:chkstk.obj
 0001:0000c510       __alloca_probe             1000d510 f   LIBCMT:chkstk.obj
 0001:0000c85d       __DllMainCRTStartup@12     1000d85d f   LIBCMT:dll_dllmain.obj
 0001:0000c880       ??2@YAPAXI@Z               1000d880 f   LIBCMT:new_scalar.obj
 0001:0000c8b0       ___isa_available_init      1000d8b0 f   LIBCMT:_cpu_disp_.obj
 0001:0000ca47       ___scrt_is_ucrt_dll_in_use 1000da47 f   LIBCMT:ucrt_detection.obj
 0001:0000ca53       ___scrt_fastfail           1000da53 f   LIBCMT:utility_desktop.obj
 0001:0000cb6d       __crt_debugger_hook        1000db6d f   LIBCMT:utility_desktop.obj
 0001:0000cb80       __SEH_prolog4              1000db80 f   LIBCMT:_sehprolg4_.obj
 0001:0000cbc6       __SEH_epilog4              1000dbc6 f   LIBCMT:_sehprolg4_.obj
 0001:0000cbdb       @_guard_check_icall_nop@4  1000dbdb f i LIBCMT:guard_support.obj
 0001:0000cc29       ___security_init_cookie    1000dc29 f   LIBCMT:gs_support.obj
 0001:0000cc74       ?__scrt_initialize_type_info@@YAXXZ 1000dc74 f   LIBCMT:tncleanup.obj
 0001:0000cc80       ?__scrt_uninitialize_type_info@@YAXXZ 1000dc80 f   LIBCMT:tncleanup.obj
 0001:0000cc8c       ___local_stdio_scanf_options 1000dc8c f i LIBCMT:default_local_stdio_options.obj
 0001:0000cc92       ___scrt_initialize_default_local_stdio_options 1000dc92 f   LIBCMT:default_local_stdio_options.obj
 0001:0000ccaf       ___scrt_get_dyn_tls_init_callback 1000dcaf f   LIBCMT:dyn_tls_init.obj
 0001:0000ccb5       __RTC_Initialize           1000dcb5 f   LIBCMT:_initsect_.obj
 0001:0000cce1       __RTC_Terminate            1000dce1 f   LIBCMT:_initsect_.obj
 0001:0000cd0d       ??0bad_alloc@std@@QAE@ABV01@@Z 1000dd0d f i LIBCMT:throw_bad_alloc.obj
 0001:0000cd28       ??0bad_alloc@std@@QAE@XZ   1000dd28 f i LIBCMT:throw_bad_alloc.obj
 0001:0000cd40       ??0bad_array_new_length@std@@QAE@ABV01@@Z 1000dd40 f i LIBCMT:throw_bad_alloc.obj
 0001:0000cd5b       ??0bad_array_new_length@std@@QAE@XZ 1000dd5b f i LIBCMT:throw_bad_alloc.obj
 0001:0000cd73       ??0exception@std@@QAE@ABV01@@Z 1000dd73 f i LIBCMT:throw_bad_alloc.obj
 0001:0000cd9f       ??1bad_array_new_length@std@@UAE@XZ 1000dd9f f i LIBCMT:throw_bad_alloc.obj
 0001:0000cd9f       ??1bad_alloc@std@@UAE@XZ   1000dd9f f i LIBCMT:throw_bad_alloc.obj
 0001:0000cd9f       ??1bad_exception@std@@UAE@XZ 1000dd9f f i libvcruntime:frame.obj
 0001:0000cdb0       ??_Ebad_exception@std@@UAEPAXI@Z 1000ddb0 f i libvcruntime:frame.obj
 0001:0000cdb0       ??_Ebad_alloc@std@@UAEPAXI@Z 1000ddb0 f i LIBCMT:throw_bad_alloc.obj
 0001:0000cdb0       ??_Gbad_exception@std@@UAEPAXI@Z 1000ddb0 f i libvcruntime:frame.obj
 0001:0000cdb0       ??_Eexception@std@@UAEPAXI@Z 1000ddb0 f i LIBCMT:throw_bad_alloc.obj
 0001:0000cdb0       ??_Ebad_array_new_length@std@@UAEPAXI@Z 1000ddb0 f i LIBCMT:throw_bad_alloc.obj
 0001:0000cdb0       ??_Gbad_array_new_length@std@@UAEPAXI@Z 1000ddb0 f i LIBCMT:throw_bad_alloc.obj
 0001:0000cdb0       ??_Gbad_alloc@std@@UAEPAXI@Z 1000ddb0 f i LIBCMT:throw_bad_alloc.obj
 0001:0000cdb0       ??_Gexception@std@@UAEPAXI@Z 1000ddb0 f i LIBCMT:throw_bad_alloc.obj
 0001:0000cddd       ?__scrt_throw_std_bad_alloc@@YAXXZ 1000dddd f   LIBCMT:throw_bad_alloc.obj
 0001:0000cdfa       ?__scrt_throw_std_bad_array_new_length@@YAXXZ 1000ddfa f   LIBCMT:throw_bad_alloc.obj
 0001:0000ce17       ?what@exception@std@@UBEPBDXZ 1000de17 f i LIBCMT:throw_bad_alloc.obj
 0001:0000ce24       ??_Gtype_info@@UAEPAXI@Z   1000de24 f i LIBCMT:std_type_info_static.obj
 0001:0000ce24       ??_Etype_info@@UAEPAXI@Z   1000de24 f i LIBCMT:std_type_info_static.obj
 0001:0000ce47       ??0CAtlBaseModule@ATL@@QAE@XZ 1000de47 f   atls:atlbase.obj
 0001:0000ce9a       ??0_ATL_BASE_MODULE70@ATL@@QAE@XZ 1000de9a f i atls:atlbase.obj
 0001:0000cebd       ??1CAtlBaseModule@ATL@@QAE@XZ 1000debd f   atls:atlbase.obj
 0001:0000cfaa       ?Init@_stdcallthunk@ATL@@QAEHKPAX@Z 1000dfaa f i atls:atlthunk.obj
 0001:0000cfdf       ?__AllocStdCallThunk_cmn@@YAPAXXZ 1000dfdf f   atls:atlthunk.obj
 0001:0000d0a5       ?__FreeStdCallThunk_cmn@@YAXPAX@Z 1000e0a5 f   atls:atlthunk.obj
 0001:0000d140       _AtlThunk_AllocateData@0   1000e140 f   atls:atlthunk.obj
 0001:0000d1a5       _AtlThunk_DataToCode@4     1000e1a5 f   atls:atlthunk.obj
 0001:0000d1ec       _AtlThunk_FreeData@4       1000e1ec f   atls:atlthunk.obj
 0001:0000d242       _AtlThunk_InitData@12      1000e242 f   atls:atlthunk.obj
 0001:0000d291       __get_purecall_handler     1000e291 f   libvcruntime:purevirt.obj
 0001:0000d2a6       __purecall                 1000e2a6 f   libvcruntime:purevirt.obj
 0001:0000d2c2       _wcsstr                    1000e2c2 f   libvcruntime:wcsstr.obj
 0001:0000d580       __except_handler4          1000e580 f   libvcruntime:_chandler4_.obj
 0001:0000d6d7       _memcmp                    1000e6d7 f   libvcruntime:_memcmp_.obj
 0001:0000e680       _memcpy                    1000f680 f   libvcruntime:memcpy.obj
 0001:0000ec00       _memset                    1000fc00 f   libvcruntime:memset.obj
 0001:0000ed5a       ___vcrt_initialize         1000fd5a f   libvcruntime:initialization.obj
 0001:0000ed83       ___vcrt_thread_attach      1000fd83 f   libvcruntime:initialization.obj
 0001:0000ed8e       ___vcrt_thread_detach      1000fd8e f   libvcruntime:initialization.obj
 0001:0000ed99       ___vcrt_uninitialize       1000fd99 f   libvcruntime:initialization.obj
 0001:0000edb8       ___vcrt_uninitialize_critical 1000fdb8 f   libvcruntime:initialization.obj
 0001:0000edc0       ?GetRangeOfTrysToCheck@__FrameHandler3@@SA?AU?$pair@Viterator@TryBlockMap@__FrameHandler3@@V123@@std@@AAVTryBlockMap@1@HH@Z 1000fdc0 f   libvcruntime:trnsctrl.obj
 0001:0000ee42       ?_CallCatchBlock2@@YAPAXPAUEHRegistrationNode@@PBU_s_FuncInfo@@PAXHK@Z 1000fe42 f   libvcruntime:trnsctrl.obj
 0001:0000eea0       ?_CallSETranslator@@YAHPAUEHExceptionRecord@@PAUEHRegistrationNode@@PAX2PBU_s_FuncInfo@@H1@Z 1000fea0 f   libvcruntime:trnsctrl.obj
 0001:0000ef7b       ?_JumpToContinuation@@YGXPAXPAUEHRegistrationNode@@@Z 1000ff7b f   libvcruntime:trnsctrl.obj
 0001:0000efab       ?_UnwindNestedFrames@@YGXPAUEHRegistrationNode@@PAUEHExceptionRecord@@@Z 1000ffab f   libvcruntime:trnsctrl.obj
 0001:0000effe       __CatchGuardHandler        1000fffe f   libvcruntime:trnsctrl.obj
 0001:0000f02f       __CreateFrameInfo          1001002f f   libvcruntime:trnsctrl.obj
 0001:0000f053       __FindAndUnlinkFrame       10010053 f   libvcruntime:trnsctrl.obj
 0001:0000f098       __TranslatorGuardHandler   10010098 f   libvcruntime:trnsctrl.obj
 0001:0000f135       ___CxxFrameHandler3        10010135 f   libvcruntime:trnsctrl.obj
 0001:0000f16b       ___std_type_info_compare   1001016b f   libvcruntime:std_type_info.obj
 0001:0000f1a7       ___std_type_info_destroy_list 100101a7 f   libvcruntime:std_type_info.obj
 0001:0000f1ca       ___std_exception_copy      100101ca f   libvcruntime:std_exception.obj
 0001:0000f22d       ___std_exception_destroy   1001022d f   libvcruntime:std_exception.obj
 0001:0000f24c       __CxxThrowException@8      1001024c f   libvcruntime:throw.obj
 0001:0000f2c0       _memmove                   100102c0 f   libvcruntime:memmove.obj
 0001:0000f834       ___vcrt_initialize_pure_virtual_call_handler 10010834 f   libvcruntime:purevirt_data.obj
 0001:0000f840       __local_unwind4            10010840 f   libvcruntime:_exsup4_.obj
 0001:0000f918       __seh_longjmp_unwind4@4    10010918 f   libvcruntime:_exsup4_.obj
 0001:0000f940       @_EH4_CallFilterFunc@8     10010940 f   libvcruntime:_exsup4_.obj
 0001:0000f958       @_EH4_TransferToHandler@8  10010958 f   libvcruntime:_exsup4_.obj
 0001:0000f974       @_EH4_GlobalUnwind2@8      10010974 f   libvcruntime:_exsup4_.obj
 0001:0000f990       @_EH4_LocalUnwind@16       10010990 f   libvcruntime:_exsup4_.obj
 0001:0000f9a7       ___except_validate_context_record 100109a7 f   libvcruntime:jbcxrval.obj
 0001:0000f9d7       ___except_validate_jump_buffer 100109d7 f   libvcruntime:jbcxrval.obj
 0001:0000fa04       ___vcrt_freefls@4          10010a04 f   libvcruntime:per_thread_data.obj
 0001:0000fa20       ___vcrt_freeptd            10010a20 f   libvcruntime:per_thread_data.obj
 0001:0000fa56       ___vcrt_getptd             10010a56 f   libvcruntime:per_thread_data.obj
 0001:0000fa64       ___vcrt_getptd_noexit      10010a64 f   libvcruntime:per_thread_data.obj
 0001:0000faf6       ___vcrt_initialize_ptd     10010af6 f   libvcruntime:per_thread_data.obj
 0001:0000fb29       ___vcrt_uninitialize_ptd   10010b29 f   libvcruntime:per_thread_data.obj
 0001:0000fb44       ___vcrt_initialize_locks   10010b44 f   libvcruntime:locks.obj
 0001:0000fb80       ___vcrt_uninitialize_locks 10010b80 f   libvcruntime:locks.obj
 0001:0000fce2       ___vcrt_FlsAlloc           10010ce2 f   libvcruntime:winapi_downlevel.obj
 0001:0000fd1d       ___vcrt_FlsFree            10010d1d f   libvcruntime:winapi_downlevel.obj
 0001:0000fd58       ___vcrt_FlsGetValue        10010d58 f   libvcruntime:winapi_downlevel.obj
 0001:0000fd93       ___vcrt_FlsSetValue        10010d93 f   libvcruntime:winapi_downlevel.obj
 0001:0000fdd1       ___vcrt_InitializeCriticalSectionEx 10010dd1 f   libvcruntime:winapi_downlevel.obj
 0001:0000fe18       ___vcrt_initialize_winapi_thunks 10010e18 f   libvcruntime:winapi_downlevel.obj
 0001:0000fe41       ___vcrt_uninitialize_winapi_thunks 10010e41 f   libvcruntime:winapi_downlevel.obj
 0001:0001056a       ??$TypeMatchHelper@$$CBU_s_HandlerType@@@@YAHPBU_s_HandlerType@@PBU_s_CatchableType@@PBU_s_ThrowInfo@@@Z 1001156a f i libvcruntime:frame.obj
 0001:000105f8       ??$__InternalCxxFrameHandler@V__FrameHandler3@@@@YA?AW4_EXCEPTION_DISPOSITION@@PAUEHExceptionRecord@@PAUEHRegistrationNode@@PAU_CONTEXT@@PAXPBU_s_FuncInfo@@H1E@Z 100115f8 f i libvcruntime:frame.obj
 0001:000106fa       ??0bad_exception@std@@QAE@ABV01@@Z 100116fa f i libvcruntime:frame.obj
 0001:00010715       ??0bad_exception@std@@QAE@XZ 10011715 f i libvcruntime:frame.obj
 0001:0001072d       ??8type_info@@QBE_NABV0@@Z 1001172d f i libvcruntime:frame.obj
 0001:00010994       ?FrameUnwindToEmptyState@__FrameHandler3@@SAXPAUEHRegistrationNode@@PAXPBU_s_FuncInfo@@@Z 10011994 f   libvcruntime:frame.obj
 0001:000109ac       ?FrameUnwindToState@__FrameHandler3@@SAXPAUEHRegistrationNode@@PAXPBU_s_FuncInfo@@H@Z 100119ac f   libvcruntime:frame.obj
 0001:00010b2e       ?_CallMemberFunction1@@YGXQAX00@Z 10011b2e f i libvcruntime:frame.obj
 0001:00010b3e       ?_CallMemberFunction2@@YGXQAX00H@Z 10011b3e f i libvcruntime:frame.obj
 0001:00010b51       ?getESTypes@__FrameHandler3@@SAPBU_s_ESTypeList@@PBU_s_FuncInfo@@@Z 10011b51 f i libvcruntime:frame.obj
 0001:00010b60       __CallSettingFrame@12      10011b60 f   libvcruntime:lowhelpr.obj
 0001:00010b87       __NLG_Return               10011b87     libvcruntime:lowhelpr.obj
 0001:00010bb0       __global_unwind2           10011bb0 f   libvcruntime:_exsup_.obj
 0001:00010c16       __local_unwind2            10011c16 f   libvcruntime:_exsup_.obj
 0001:00010c9a       __abnormal_termination     10011c9a f   libvcruntime:_exsup_.obj
 0001:00010cc0       __NLG_Notify1              10011cc0 f   libvcruntime:_exsup_.obj
 0001:00010ccc       __NLG_Notify               10011ccc f   libvcruntime:_exsup_.obj
 0001:00010ce3       __NLG_Dispatch             10011ce3     libvcruntime:_exsup_.obj
 0001:00010ce3       __NLG_Dispatch2            10011ce3     libvcruntime:_exsup_.obj
 0001:00010ceb       __NLG_Call                 10011ceb f   libvcruntime:_exsup_.obj
 0001:00010ced       __NLG_Return2              10011ced     libvcruntime:_exsup_.obj
 0001:00010cee       _unexpected                10011cee f   libvcruntime:unexpected.obj
 0001:00010d0b       ?GetCurrentState@__FrameHandler3@@SAHPAUEHRegistrationNode@@PAXPBU_s_FuncInfo@@@Z 10011d0b f   libvcruntime:ehstate.obj
 0001:00010d28       ?SetState@__FrameHandler3@@SAXPAUEHRegistrationNode@@PBU_s_FuncInfo@@H@Z 10011d28 f   libvcruntime:ehstate.obj
 0001:00010d36       ___DestructExceptionObject 10011d36 f   libvcruntime:ehhelpers.obj
 0001:00010dd6       ?_CallMemberFunction0@@YGXQAX0@Z 10011dd6 f i libvcruntime:ehhelpers.obj
 0001:00010de3       __IsExceptionObjectToBeDestroyed 10011de3 f   libvcruntime:ehhelpers.obj
 0001:00010e09       ___AdjustPointer           10011e09 f   libvcruntime:ehhelpers.obj
 0001:00010e2e       ___FrameUnwindFilter       10011e2e f   libvcruntime:ehhelpers.obj
 0001:00010e73       _free                      10011e73 f   libucrt:free.obj
 0001:00010e90       ___acrt_call_reportfault   10011e90 f   libucrt:invalid_parameter.obj
 0001:00010fcb       ___acrt_initialize_invalid_parameter_handler 10011fcb f   libucrt:invalid_parameter.obj
 0001:00010fda       __invalid_parameter        10011fda f   libucrt:invalid_parameter.obj
 0001:00011055       __invalid_parameter_noinfo 10012055 f   libucrt:invalid_parameter.obj
 0001:00011065       __invoke_watson            10012065 f   libucrt:invalid_parameter.obj
 0001:00011098       ___acrt_errno_from_os_error 10012098 f   libucrt:errno.obj
 0001:000110db       ___acrt_errno_map_os_error 100120db f   libucrt:errno.obj
 0001:000110fe       ___doserrno                100120fe f   libucrt:errno.obj
 0001:00011111       __errno                    10012111 f   libucrt:errno.obj
 0001:00011124       _calloc                    10012124 f   libucrt:calloc.obj
 0001:0001112f       _malloc                    1001212f f   libucrt:malloc.obj
 0001:0001113a       __recalloc                 1001213a f   libucrt:recalloc.obj
 0001:00011145       __recalloc_base            10012145 f   libucrt:recalloc.obj
 0001:000111b2       __resetstkoflw             100121b2 f   libucrt:resetstk.obj
 0001:00011283       _wcscat_s                  10012283 f   libucrt:wcscat_s.obj
 0001:000112f8       _wcscpy_s                  100122f8 f   libucrt:wcscpy_s.obj
 0001:00011429       _wcsncpy_s                 10012429 f   libucrt:wcsncpy_s.obj
 0001:00011637       ??$count@D@formatting_buffer@__crt_stdio_output@@QBEIXZ 10012637 f i libucrt:output.obj
 0001:0001164f       ??$count@_W@formatting_buffer@__crt_stdio_output@@QBEIXZ 1001264f f i libucrt:output.obj
 0001:00011668       ??$ensure_buffer_is_big_enough@D@formatting_buffer@__crt_stdio_output@@QAE_NI@Z 10012668 f i libucrt:output.obj
 0001:000116ee       ??$is_wide_character_specifier@_W@__crt_stdio_output@@YA_N_K_WW4length_modifier@0@@Z 100126ee f i libucrt:output.obj
 0001:0001173d       ??$scratch_data@D@formatting_buffer@__crt_stdio_output@@QAEPADXZ 1001273d f i libucrt:output.obj
 0001:0001175b       ??$type_case_integer_parse_into_buffer@I@?$output_processor@_WV?$string_output_adapter@_W@__crt_stdio_output@@V?$format_validation_base@_WV?$string_output_adapter@_W@__crt_stdio_output@@@2@@__crt_stdio_output@@AAEXII_N@Z 1001275b f i libucrt:output.obj
 0001:000117e1       ??$type_case_integer_parse_into_buffer@_K@?$output_processor@_WV?$string_output_adapter@_W@__crt_stdio_output@@V?$format_validation_base@_WV?$string_output_adapter@_W@__crt_stdio_output@@@2@@__crt_stdio_output@@AAEX_KI_N@Z 100127e1 f i libucrt:output.obj
 0001:0001187c       ??$write_multiple_characters@V?$string_output_adapter@_W@__crt_stdio_output@@D@__crt_stdio_output@@YAXABV?$string_output_adapter@_W@0@DHQAH@Z 1001287c f i libucrt:output.obj
 0001:000118ad       ??0?$common_data@_W@__crt_stdio_output@@IAE@XZ 100128ad f i libucrt:output.obj
 0001:000118f9       ??0?$output_adapter_data@_WV?$string_output_adapter@_W@__crt_stdio_output@@@__crt_stdio_output@@IAE@ABV?$string_output_adapter@_W@1@_KQB_WQAU__crt_locale_pointers@@QAD@Z 100128f9 f i libucrt:output.obj
 0001:00011935       ??0_LocaleUpdate@@QAE@QAU__crt_locale_pointers@@@Z 10012935 f i libucrt:output.obj
 0001:000119b8       ??1formatting_buffer@__crt_stdio_output@@QAE@XZ 100129b8 f i libucrt:output.obj
 0001:000119d2       ??4?$__crt_unique_heap_ptr@DU__crt_internal_free_policy@@@@QAEAAV0@$$QAV0@@Z 100129d2 f i libucrt:output.obj
 0001:000119f6       ?crop_zeroes@__crt_stdio_output@@YAXPADQAU__crt_locale_pointers@@@Z 100129f6 f i libucrt:output.obj
 0001:00011a4d       ?find_next_state@?$output_processor@_WV?$string_output_adapter@_W@__crt_stdio_output@@V?$format_validation_base@_WV?$string_output_adapter@_W@__crt_stdio_output@@@2@@__crt_stdio_output@@ABE?AW4state@2@_WW432@@Z 10012a4d f i libucrt:output.obj
 0001:00011a84       ?force_decimal_point@__crt_stdio_output@@YAXPADQAU__crt_locale_pointers@@@Z 10012a84 f i libucrt:output.obj
 0001:00011ae0       ?parse_int_from_format_string@?$output_processor@_WV?$string_output_adapter@_W@__crt_stdio_output@@V?$format_validation_base@_WV?$string_output_adapter@_W@__crt_stdio_output@@@2@@__crt_stdio_output@@AAE_NQAH@Z 10012ae0 f i libucrt:output.obj
 0001:00011b5a       ?process@?$output_processor@_WV?$string_output_adapter@_W@__crt_stdio_output@@V?$format_validation_base@_WV?$string_output_adapter@_W@__crt_stdio_output@@@2@@__crt_stdio_output@@QAEHXZ 10012b5a f i libucrt:output.obj
 0001:00011c8a       ?state_case_flag@?$output_processor@_WV?$string_output_adapter@_W@__crt_stdio_output@@V?$format_validation_base@_WV?$string_output_adapter@_W@__crt_stdio_output@@@2@@__crt_stdio_output@@AAE_NXZ 10012c8a f i libucrt:output.obj
 0001:00011cc7       ?state_case_normal@?$output_processor@_WV?$string_output_adapter@_W@__crt_stdio_output@@V?$format_validation_base@_WV?$string_output_adapter@_W@__crt_stdio_output@@@2@@__crt_stdio_output@@AAE_NXZ 10012cc7 f i libucrt:output.obj
 0001:00011ce6       ?state_case_normal_common@?$output_processor@_WV?$string_output_adapter@_W@__crt_stdio_output@@V?$format_validation_base@_WV?$string_output_adapter@_W@__crt_stdio_output@@@2@@__crt_stdio_output@@AAE_NXZ 10012ce6 f i libucrt:output.obj
 0001:00011d01       ?state_case_precision@?$output_processor@_WV?$string_output_adapter@_W@__crt_stdio_output@@V?$format_validation_base@_WV?$string_output_adapter@_W@__crt_stdio_output@@@2@@__crt_stdio_output@@AAE_NXZ 10012d01 f i libucrt:output.obj
 0001:00011d2a       ?state_case_size@?$output_processor@_WV?$string_output_adapter@_W@__crt_stdio_output@@V?$format_validation_base@_WV?$string_output_adapter@_W@__crt_stdio_output@@@2@@__crt_stdio_output@@AAE_NXZ 10012d2a f i libucrt:output.obj
 0001:00011ea6       ?state_case_type@?$output_processor@_WV?$string_output_adapter@_W@__crt_stdio_output@@V?$format_validation_base@_WV?$string_output_adapter@_W@__crt_stdio_output@@@2@@__crt_stdio_output@@AAE_NXZ 10012ea6 f i libucrt:output.obj
 0001:00012104       ?state_case_width@?$output_processor@_WV?$string_output_adapter@_W@__crt_stdio_output@@V?$format_validation_base@_WV?$string_output_adapter@_W@__crt_stdio_output@@@2@@__crt_stdio_output@@AAE_NXZ 10013104 f i libucrt:output.obj
 0001:00012130       ?to_integer_size@__crt_stdio_output@@YAIW4length_modifier@1@@Z 10013130 f i libucrt:output.obj
 0001:0001218c       ?type_case_Z@?$output_processor@_WV?$string_output_adapter@_W@__crt_stdio_output@@V?$format_validation_base@_WV?$string_output_adapter@_W@__crt_stdio_output@@@2@@__crt_stdio_output@@AAE_NXZ 1001318c f i libucrt:output.obj
 0001:000121ef       ?type_case_a@?$output_processor@_WV?$string_output_adapter@_W@__crt_stdio_output@@V?$format_validation_base@_WV?$string_output_adapter@_W@__crt_stdio_output@@@2@@__crt_stdio_output@@AAE_NXZ 100131ef f i libucrt:output.obj
 0001:00012361       ?type_case_c_tchar@?$output_processor@_WV?$string_output_adapter@_W@__crt_stdio_output@@V?$format_validation_base@_WV?$string_output_adapter@_W@__crt_stdio_output@@@2@@__crt_stdio_output@@AAE_N_W@Z 10013361 f i libucrt:output.obj
 0001:000123f9       ?type_case_integer@?$output_processor@_WV?$string_output_adapter@_W@__crt_stdio_output@@V?$format_validation_base@_WV?$string_output_adapter@_W@__crt_stdio_output@@@2@@__crt_stdio_output@@AAE_NI_N@Z 100133f9 f i libucrt:output.obj
 0001:0001254b       ?type_case_n@?$output_processor@_WV?$string_output_adapter@_W@__crt_stdio_output@@V?$format_validation_base@_WV?$string_output_adapter@_W@__crt_stdio_output@@@2@@__crt_stdio_output@@AAE_NXZ 1001354b f i libucrt:output.obj
 0001:000125bf       ?type_case_o@?$output_processor@_WV?$string_output_adapter@_W@__crt_stdio_output@@V?$format_validation_base@_WV?$string_output_adapter@_W@__crt_stdio_output@@@2@@__crt_stdio_output@@AAE_NXZ 100135bf f i libucrt:output.obj
 0001:000125de       ?type_case_p@?$output_processor@_WV?$string_output_adapter@_W@__crt_stdio_output@@V?$format_validation_base@_WV?$string_output_adapter@_W@__crt_stdio_output@@@2@@__crt_stdio_output@@AAE_NXZ 100135de f i libucrt:output.obj
 0001:000125f6       ?type_case_s@?$output_processor@_WV?$string_output_adapter@_W@__crt_stdio_output@@V?$format_validation_base@_WV?$string_output_adapter@_W@__crt_stdio_output@@@2@@__crt_stdio_output@@AAE_NXZ 100135f6 f i libucrt:output.obj
 0001:0001266a       ?type_case_s_compute_narrow_string_length@?$output_processor@_WV?$string_output_adapter@_W@__crt_stdio_output@@V?$format_validation_base@_WV?$string_output_adapter@_W@__crt_stdio_output@@@2@@__crt_stdio_output@@ABEHH_W@Z 1001366a f i libucrt:output.obj
 0001:000126aa       ?validate@?$string_output_adapter@_W@__crt_stdio_output@@QBE_NXZ 100136aa f i libucrt:output.obj
 0001:000126aa       ?validate@?$c_string_character_source@_W@__crt_strtox@@QBE_NXZ 100136aa f i libucrt:atox.obj
 0001:000126c5       ?validate_and_update_state_at_end_of_format_string@?$format_validation_base@_WV?$string_output_adapter@_W@__crt_stdio_output@@@__crt_stdio_output@@IBE_NXZ 100136c5 f i libucrt:output.obj
 0001:000126e7       ?write_character@?$string_output_adapter@_W@__crt_stdio_output@@QBE_N_WQAH@Z 100136e7 f i libucrt:output.obj
 0001:0001272c       ?write_stored_string_tchar@?$output_processor@_WV?$string_output_adapter@_W@__crt_stdio_output@@V?$format_validation_base@_WV?$string_output_adapter@_W@__crt_stdio_output@@@2@@__crt_stdio_output@@AAE_N_W@Z 1001372c f i libucrt:output.obj
 0001:000127b8       ?write_string@?$string_output_adapter@_W@__crt_stdio_output@@QBEXQB_WHQAHAAV__crt_deferred_errno_cache@@@Z 100137b8 f i libucrt:output.obj
 0001:0001282b       ___stdio_common_vswprintf_s 1001382b f   libucrt:output.obj
 0001:0001284f       __seh_filter_dll           1001384f f   libucrt:exception_filter.obj
 0001:0001286f       __seh_filter_exe           1001386f f   libucrt:exception_filter.obj
 0001:000129e2       ??$?RV<lambda_03b1d95aef87969028cfba75ccab2455>@@AAV<lambda_6e4b09c48022b2350581041d5f6b0c4c>@@V<lambda_22bdf7517842c4b3e53723af5aa32b9e>@@@?$__crt_seh_guarded_call@X@@QAEX$$QAV<lambda_03b1d95aef87969028cfba75ccab2455>@@AAV<lambda_6e4b09c48022b2350581041d5f6b0c4c>@@$$QAV<lambda_22bdf7517842c4b3e53723af5aa32b9e>@@@Z 100139e2 f i libucrt:exit.obj
 0001:00012a25       ??$__acrt_lock_and_call@V<lambda_6e4b09c48022b2350581041d5f6b0c4c>@@@@YAXW4__acrt_lock_id@@$$QAV<lambda_6e4b09c48022b2350581041d5f6b0c4c>@@@Z 10013a25 f i libucrt:exit.obj
 0001:00012c82       ___acrt_initialize_thread_local_exit_callback 10013c82 f   libucrt:exit.obj
 0001:00012c91       __cexit                    10013c91 f   libucrt:exit.obj
 0001:00012ca0       __exit                     10013ca0 f   libucrt:exit.obj
 0001:00012cb6       __is_c_termination_complete 10013cb6 f   libucrt:exit.obj
 0001:00012f67       ___acrt_allocate_buffer_for_argv 10013f67 f   libucrt:argv_parsing.obj
 0001:00012fbc       __configure_narrow_argv    10013fbc f   libucrt:argv_parsing.obj
 0001:00013120       ??$uninitialize@A6AXAAPAPA_W@Z@?$dual_state_global@PAPA_W@__crt_state_management@@QAEXA6AXAAPAPA_W@Z@Z 10014120 f i libucrt:environment_initialization.obj
 0001:00013120       ??$uninitialize@A6AXAAPAPAD@Z@?$dual_state_global@PAPAD@__crt_state_management@@QAEXA6AXAAPAPAD@Z@Z 10014120 f i libucrt:environment_initialization.obj
 0001:00013196       ?initialize@?$dual_state_global@PAPAD@__crt_state_management@@QAEXQAPAD@Z 10014196 f i libucrt:environment_initialization.obj
 0001:00013196       ?initialize@?$dual_state_global@PAU__crt_locale_data@@@__crt_state_management@@QAEXQAU__crt_locale_data@@@Z 10014196 f i libucrt:initialization.obj
 0001:00013196       ?initialize@?$dual_state_global@P6AXH@Z@__crt_state_management@@QAEXQ6AXH@Z@Z 10014196 f i libucrt:signal.obj
 0001:00013196       ?initialize@?$dual_state_global@P6AHPAU_exception@@@Z@__crt_state_management@@QAEXQ6AHPAU_exception@@@Z@Z 10014196 f i libucrt:matherr.obj
 0001:00013196       ?initialize@?$dual_state_global@PAU__crt_multibyte_data@@@__crt_state_management@@QAEXQAU__crt_multibyte_data@@@Z 10014196 f i libucrt:mbctype.obj
 0001:00013196       ?initialize@?$dual_state_global@P6AHI@Z@__crt_state_management@@QAEXQ6AHI@Z@Z 10014196 f i libucrt:new_handler.obj
 0001:000131c7       ___dcrt_uninitialize_environments_nolock 100141c7 f   libucrt:environment_initialization.obj
 0001:000131fe       __initialize_narrow_environment 100141fe f   libucrt:environment_initialization.obj
 0001:00013203       ??$?RV<lambda_69a2805e680e0e292e8ba93315fe43a8>@@AAV<lambda_f03950bc5685219e0bcd2087efbe011e>@@V<lambda_03fcd07e894ec930e3f35da366ca99d6>@@@?$__crt_seh_guarded_call@H@@QAEH$$QAV<lambda_69a2805e680e0e292e8ba93315fe43a8>@@AAV<lambda_f03950bc5685219e0bcd2087efbe011e>@@$$QAV<lambda_03fcd07e894ec930e3f35da366ca99d6>@@@Z 10014203 f i libucrt:onexit.obj
 0001:00013254       ??$?RV<lambda_8e746cf0007f6ed984d6f78af1fec997>@@AAV<lambda_22ebabd17bc4fa466a2aca6d8deb888d>@@V<lambda_18ed0c0b38a6dc0daf1e7ac6d6adf05e>@@@?$__crt_seh_guarded_call@H@@QAEH$$QAV<lambda_8e746cf0007f6ed984d6f78af1fec997>@@AAV<lambda_22ebabd17bc4fa466a2aca6d8deb888d>@@$$QAV<lambda_18ed0c0b38a6dc0daf1e7ac6d6adf05e>@@@Z 10014254 f i libucrt:onexit.obj
 0001:000132a5       ??$__acrt_lock_and_call@V<lambda_22ebabd17bc4fa466a2aca6d8deb888d>@@@@YAHW4__acrt_lock_id@@$$QAV<lambda_22ebabd17bc4fa466a2aca6d8deb888d>@@@Z 100142a5 f i libucrt:onexit.obj
 0001:000132cd       ??$__acrt_lock_and_call@V<lambda_f03950bc5685219e0bcd2087efbe011e>@@@@YAHW4__acrt_lock_id@@$$QAV<lambda_f03950bc5685219e0bcd2087efbe011e>@@@Z 100142cd f i libucrt:onexit.obj
 0001:000132f5       ??$__crt_fast_encode_pointer@P6AHXZ@@YAP6AHXZQ6AHXZ@Z 100142f5 f i libucrt:onexit.obj
 0001:00013573       __crt_atexit               10014573 f   libucrt:onexit.obj
 0001:00013589       __execute_onexit_table     10014589 f   libucrt:onexit.obj
 0001:000135a6       __initialize_onexit_table  100145a6 f   libucrt:onexit.obj
 0001:000135e3       __register_onexit_function 100145e3 f   libucrt:onexit.obj
 0001:00013633       ___acrt_uninitialize_command_line 10014633 f   libucrt:argv_data.obj
 0001:00013716       ___acrt_initialize         10014716 f   libucrt:initialization.obj
 0001:00013728       ___acrt_thread_attach      10014728 f   libucrt:initialization.obj
 0001:00013733       ___acrt_thread_detach      10014733 f   libucrt:initialization.obj
 0001:0001373b       ___acrt_uninitialize       1001473b f   libucrt:initialization.obj
 0001:0001374d       ___acrt_uninitialize_critical 1001474d f   libucrt:initialization.obj
 0001:0001375f       __initterm                 1001475f f   libucrt:initterm.obj
 0001:000137bb       __initterm_e               100147bb f   libucrt:initterm.obj
 0001:00013800       ___acrt_initialize_new_handler 10014800 f   libucrt:new_handler.obj
 0001:00013814       __callnewh                 10014814 f   libucrt:new_handler.obj
 0001:00013858       __query_new_handler        10014858 f   libucrt:new_handler.obj
 0001:000138aa       _terminate                 100148aa f   libucrt:terminate.obj
 0001:000138e6       _abort                     100148e6 f   libucrt:abort.obj
 0001:00013929       _strcpy_s                  10014929 f   libucrt:strcpy_s.obj
 0001:00013983       _wcsncmp                   10014983 f   libucrt:wcsncmp.obj
 0001:000139bd       ??$is_overflow_condition@K@__crt_strtox@@YA_NIK@Z 100149bd f i libucrt:atox.obj
 0001:000139f0       ??$parse_integer@KV?$c_string_character_source@_W@__crt_strtox@@@__crt_strtox@@YAKQAU__crt_locale_pointers@@V?$c_string_character_source@_W@0@H_N@Z 100149f0 f i libucrt:atox.obj
 0001:000140d5       ?unget@?$c_string_character_source@_W@__crt_strtox@@QAEX_W@Z 100150d5 f i libucrt:atox.obj
 0001:00014101       __chvalidchk_l             10015101 f i libucrt:atox.obj
 0001:0001412b       __ischartype_l             1001512b f i libucrt:atox.obj
 0001:00014160       _strncmp                   10015160 f   libucrt:strncmp.obj
 0001:000141d8       __free_base                100151d8 f   libucrt:free_base.obj
 0001:00014212       ??$?RV<lambda_15ade71b0218206bbe3333a0c9b79046>@@AAV<lambda_da44e0f8b0f19ba52fefafb335991732>@@V<lambda_207f2d024fc103971653565357d6cd41>@@@?$__crt_seh_guarded_call@X@@QAEX$$QAV<lambda_15ade71b0218206bbe3333a0c9b79046>@@AAV<lambda_da44e0f8b0f19ba52fefafb335991732>@@$$QAV<lambda_207f2d024fc103971653565357d6cd41>@@@Z 10015212 f i libucrt:per_thread_data.obj
 0001:0001425a       ??$?RV<lambda_38edbb1296d33220d7e4dd0ed76b244a>@@AAV<lambda_5ce1d447e08cb34b2473517608e21441>@@V<lambda_fb385d3da700c9147fc39e65dd577a8c>@@@?$__crt_seh_guarded_call@X@@QAEX$$QAV<lambda_38edbb1296d33220d7e4dd0ed76b244a>@@AAV<lambda_5ce1d447e08cb34b2473517608e21441>@@$$QAV<lambda_fb385d3da700c9147fc39e65dd577a8c>@@@Z 1001525a f i libucrt:per_thread_data.obj
 0001:000142bb       ??$?RV<lambda_6affb1475c98b40b75cdec977db92e3c>@@AAV<lambda_b8d4b9c228a6ecc3f80208dbb4b4a104>@@V<lambda_608742c3c92a14382c1684fc64f96c88>@@@?$__crt_seh_guarded_call@X@@QAEX$$QAV<lambda_6affb1475c98b40b75cdec977db92e3c>@@AAV<lambda_b8d4b9c228a6ecc3f80208dbb4b4a104>@@$$QAV<lambda_608742c3c92a14382c1684fc64f96c88>@@@Z 100152bb f i libucrt:per_thread_data.obj
 0001:00014306       ??$?RV<lambda_a7e850c220f1c8d1e6efeecdedd162c6>@@AAV<lambda_46720907175c18b6c9d2717bc0d2d362>@@V<lambda_9048902d66e8d99359bc9897bbb930a8>@@@?$__crt_seh_guarded_call@X@@QAEX$$QAV<lambda_a7e850c220f1c8d1e6efeecdedd162c6>@@AAV<lambda_46720907175c18b6c9d2717bc0d2d362>@@$$QAV<lambda_9048902d66e8d99359bc9897bbb930a8>@@@Z 10015306 f i libucrt:per_thread_data.obj
 0001:00014356       ??$__acrt_lock_and_call@V<lambda_46720907175c18b6c9d2717bc0d2d362>@@@@YAXW4__acrt_lock_id@@$$QAV<lambda_46720907175c18b6c9d2717bc0d2d362>@@@Z 10015356 f i libucrt:per_thread_data.obj
 0001:0001437e       ??$__acrt_lock_and_call@V<lambda_5ce1d447e08cb34b2473517608e21441>@@@@YAXW4__acrt_lock_id@@$$QAV<lambda_5ce1d447e08cb34b2473517608e21441>@@@Z 1001537e f i libucrt:per_thread_data.obj
 0001:000143a6       ??$__acrt_lock_and_call@V<lambda_b8d4b9c228a6ecc3f80208dbb4b4a104>@@@@YAXW4__acrt_lock_id@@$$QAV<lambda_b8d4b9c228a6ecc3f80208dbb4b4a104>@@@Z 100153a6 f i libucrt:per_thread_data.obj
 0001:000143ce       ??$__acrt_lock_and_call@V<lambda_da44e0f8b0f19ba52fefafb335991732>@@@@YAXW4__acrt_lock_id@@$$QAV<lambda_da44e0f8b0f19ba52fefafb335991732>@@@Z 100153ce f i libucrt:per_thread_data.obj
 0001:00014584       ___acrt_freeptd            10015584 f   libucrt:per_thread_data.obj
 0001:000145b0       ___acrt_getptd             100155b0 f   libucrt:per_thread_data.obj
 0001:00014664       ___acrt_getptd_head        10015664 f   libucrt:per_thread_data.obj
 0001:000146fe       ___acrt_getptd_noexit      100156fe f   libucrt:per_thread_data.obj
 0001:000147b1       ___acrt_initialize_ptd     100157b1 f   libucrt:per_thread_data.obj
 0001:000147dd       ___acrt_uninitialize_ptd   100157dd f   libucrt:per_thread_data.obj
 0001:000147f7       __calloc_base              100157f7 f   libucrt:calloc_base.obj
 0001:00014854       __malloc_base              10015854 f   libucrt:malloc_base.obj
 0001:000148a2       __msize                    100158a2 f   libucrt:msize.obj
 0001:000148ad       __msize_base               100158ad f   libucrt:msize.obj
 0001:000148e0       __realloc_base             100158e0 f   libucrt:realloc_base.obj
 0001:00014ac7       ___acrt_AppPolicyGetProcessTerminationMethodInternal@4 10015ac7 f   libucrt:winapi_thunks.obj
 0001:00014b1e       ___acrt_FlsAlloc@4         10015b1e f   libucrt:winapi_thunks.obj
 0001:00014b74       ___acrt_FlsFree@4          10015b74 f   libucrt:winapi_thunks.obj
 0001:00014bca       ___acrt_FlsGetValue@4      10015bca f   libucrt:winapi_thunks.obj
 0001:00014c20       ___acrt_FlsSetValue@8      10015c20 f   libucrt:winapi_thunks.obj
 0001:00014c79       ___acrt_InitializeCriticalSectionEx@12 10015c79 f   libucrt:winapi_thunks.obj
 0001:00014cdb       ___acrt_LCMapStringEx@36   10015cdb f   libucrt:winapi_thunks.obj
 0001:00014d4f       ___acrt_LocaleNameToLCID@8 10015d4f f   libucrt:winapi_thunks.obj
 0001:00014d97       ___acrt_SetThreadStackGuarantee@4 10015d97 f   libucrt:winapi_thunks.obj
 0001:00014de9       ___acrt_initialize_winapi_thunks 10015de9 f   libucrt:winapi_thunks.obj
 0001:00014e0f       ___acrt_uninitialize_winapi_thunks 10015e0f f   libucrt:winapi_thunks.obj
 0001:00014e45       __isdigit_l                10015e45 f i libucrt:_ctype.obj
 0001:00014e7d       _isdigit                   10015e7d f i libucrt:_ctype.obj
 0001:00015011       __tolower_l                10016011 f   libucrt:tolower_toupper.obj
 0001:0001502b       _tolower                   1001602b f   libucrt:tolower_toupper.obj
 0001:0001505b       ??$make_c_string_character_source@_WPAPA_W@__crt_strtox@@YA?AV?$c_string_character_source@_W@0@QB_WQAPA_W@Z 1001605b f i libucrt:strtox.obj
 0001:00015076       _wcstol                    10016076 f   libucrt:strtox.obj
 0001:000150a2       __mbtowc_l                 100160a2 f   libucrt:mbtowc.obj
 0001:0001519c       _mbtowc                    1001619c f   libucrt:mbtowc.obj
 0001:000151b6       _wcsnlen                   100161b6 f   libucrt:strnlen.obj
 0001:0001536d       ___acrt_update_locale_info 1001636d f   libucrt:locale_update.obj
 0001:0001539a       ___acrt_update_multibyte_info 1001639a f   libucrt:locale_update.obj
 0001:000153c7       ?__acrt_fp_classify@@YA?AW4__acrt_fp_class@@ABN@Z 100163c7 f i libucrt:cvt.obj
 0001:0001542f       ?__acrt_fp_is_negative@@YA_NABN@Z 1001642f f i libucrt:cvt.obj
 0001:00015c9f       ___acrt_fp_format          10016c9f f   libucrt:cvt.obj
 0001:00015de9       __fileno                   10016de9 f   libucrt:fileno.obj
 0001:00015e0f       ___acrt_initialize_stdio   10016e0f f   libucrt:_file.obj
 0001:00015ed7       ___acrt_uninitialize_stdio 10016ed7 f   libucrt:_file.obj
 0001:00015f23       __lock_file                10016f23 f   libucrt:_file.obj
 0001:00015f37       __unlock_file              10016f37 f   libucrt:_file.obj
 0001:00015f4b       __get_printf_count_output  10016f4b f   libucrt:printf_count_output.obj
 0001:00015f60       ??$?RV<lambda_e5124f882df8998aaf41531e079ba474>@@AAV<lambda_3e16ef9562a7dcce91392c22ab16ea36>@@V<lambda_e25ca0880e6ef98be67edffd8c599615>@@@?$__crt_seh_guarded_call@X@@QAEX$$QAV<lambda_e5124f882df8998aaf41531e079ba474>@@AAV<lambda_3e16ef9562a7dcce91392c22ab16ea36>@@$$QAV<lambda_e25ca0880e6ef98be67edffd8c599615>@@@Z 10016f60 f i libucrt:wsetlocale.obj
 0001:00015fa9       ??$__acrt_lock_and_call@V<lambda_3e16ef9562a7dcce91392c22ab16ea36>@@@@YAXW4__acrt_lock_id@@$$QAV<lambda_3e16ef9562a7dcce91392c22ab16ea36>@@@Z 10016fa9 f i libucrt:wsetlocale.obj
 0001:00015fd1       ??$uninitialize@V<lambda_88ce03f932007f29bf8b8056cbaba4f3>@@@?$dual_state_global@PAU__crt_locale_data@@@__crt_state_management@@QAEX$$QAV<lambda_88ce03f932007f29bf8b8056cbaba4f3>@@@Z 10016fd1 f i libucrt:wsetlocale.obj
 0001:00016000       ___acrt_set_locale_changed 10017000 f   libucrt:wsetlocale.obj
 0001:0001600b       ___acrt_uninitialize_locale 1001700b f   libucrt:wsetlocale.obj
 0001:0001618c       ___acrt_initialize_lowio   1001718c f   libucrt:ioinit.obj
 0001:000161e2       ___acrt_uninitialize_lowio 100171e2 f   libucrt:ioinit.obj
 0001:0001620e       ___acrt_initialize_locks   1001720e f   libucrt:locks.obj
 0001:0001624f       ___acrt_lock               1001724f f   libucrt:locks.obj
 0001:00016266       ___acrt_uninitialize_locks 10017266 f   libucrt:locks.obj
 0001:00016297       ___acrt_unlock             10017297 f   libucrt:locks.obj
 0001:000162ae       ___acrt_get_process_end_policy 100172ae f   libucrt:win_policies.obj
 0001:00016785       ___acrt_expand_narrow_argv_wildcards 10017785 f   libucrt:argv_wildcards.obj
 0001:00016790       ??$?RV<lambda_ceb1ee4838e85a9d631eb091e2fbe199>@@AAV<lambda_ae742caa10f662c28703da3d2ea5e57e>@@V<lambda_cd08b5d6af4937fe54fc07d0c9bf6b37>@@@?$__crt_seh_guarded_call@X@@QAEX$$QAV<lambda_ceb1ee4838e85a9d631eb091e2fbe199>@@AAV<lambda_ae742caa10f662c28703da3d2ea5e57e>@@$$QAV<lambda_cd08b5d6af4937fe54fc07d0c9bf6b37>@@@Z 10017790 f i libucrt:mbctype.obj
 0001:000167d3       ??$__acrt_lock_and_call@V<lambda_ae742caa10f662c28703da3d2ea5e57e>@@@@YAXW4__acrt_lock_id@@$$QAV<lambda_ae742caa10f662c28703da3d2ea5e57e>@@@Z 100177d3 f i libucrt:mbctype.obj
 0001:00016cc8       ___acrt_initialize_multibyte 10017cc8 f   libucrt:mbctype.obj
 0001:00016d15       ___acrt_update_thread_multibyte_data 10017d15 f   libucrt:mbctype.obj
 0001:00016d29       __setmbcp_nolock           10017d29 f   libucrt:mbctype.obj
 0001:00016ff4       __ismbblead                10017ff4 f   libucrt:ismbbyte.obj
 0001:0001700c       ___acrt_initialize_command_line 1001800c f   libucrt:argv_data.obj
 0001:0001705c       ___dcrt_get_narrow_environment_from_os 1001805c f   libucrt:get_environment_from_os.obj
 0001:000170df       ___acrt_initialize_heap    100180df f   libucrt:heap_handle.obj
 0001:000170f0       ___acrt_uninitialize_heap  100180f0 f   libucrt:heap_handle.obj
 0001:000170fa       ___acrt_execute_initializers 100180fa f   libucrt:shared_initialization.obj
 0001:0001717d       ___acrt_execute_uninitializers 1001817d f   libucrt:shared_initialization.obj
 0001:000171ca       ??$?RV<lambda_cbab9ec6f41b0180b23cc171c22676b0>@@AAV<lambda_44731a7d0e6d81c3e6aa82d741081786>@@V<lambda_4b292cb8dd18144e164572427af410ab>@@@?$__crt_seh_guarded_call@P6AXH@Z@@QAEP6AXH@Z$$QAV<lambda_cbab9ec6f41b0180b23cc171c22676b0>@@AAV<lambda_44731a7d0e6d81c3e6aa82d741081786>@@$$QAV<lambda_4b292cb8dd18144e164572427af410ab>@@@Z 100181ca f i libucrt:signal.obj
 0001:00017224       ??$__acrt_lock_and_call@V<lambda_44731a7d0e6d81c3e6aa82d741081786>@@@@YAP6AXH@ZW4__acrt_lock_id@@$$QAV<lambda_44731a7d0e6d81c3e6aa82d741081786>@@@Z 10018224 f i libucrt:signal.obj
 0001:000172b6       ___acrt_get_sigabrt_handler 100182b6 f   libucrt:signal.obj
 0001:000172cd       ___acrt_initialize_signal_handlers 100182cd f   libucrt:signal.obj
 0001:00017308       ___fpecode                 10018308 f   libucrt:signal.obj
 0001:00017311       _raise                     10018311 f   libucrt:signal.obj
 0001:00017519       ___acrt_has_user_matherr   10018519 f   libucrt:matherr.obj
 0001:00017532       ___acrt_initialize_user_matherr 10018532 f   libucrt:matherr.obj
 0001:00017546       ___acrt_invoke_user_matherr 10018546 f   libucrt:matherr.obj
 0001:0001758f       ___pctype_func             1001858f f   libucrt:ctype.obj
 0001:000175b5       _iswctype                  100185b5 f   libucrt:iswctype.obj
 0001:00017614       __isctype_l                10018614 f   libucrt:isctype.obj
 0001:000176e6       ___acrt_add_locale_ref     100186e6 f   libucrt:locale_refcounting.obj
 0001:00017763       ___acrt_free_locale        10018763 f   libucrt:locale_refcounting.obj
 0001:000178ad       ___acrt_locale_add_lc_time_reference 100188ad f   libucrt:locale_refcounting.obj
 0001:000178d6       ___acrt_locale_free_lc_time_if_unreferenced 100188d6 f   libucrt:locale_refcounting.obj
 0001:00017906       ___acrt_locale_release_lc_time_reference 10018906 f   libucrt:locale_refcounting.obj
 0001:0001792f       ___acrt_release_locale_ref 1001892f f   libucrt:locale_refcounting.obj
 0001:000179b0       ___acrt_update_thread_locale_data 100189b0 f   libucrt:locale_refcounting.obj
 0001:00017a27       __updatetlocinfoEx_nolock  10018a27 f   libucrt:locale_refcounting.obj
 0001:00017a77       __query_new_mode           10018a77 f   libucrt:new_mode.obj
 0001:00017b39       ___acrt_DownlevelLocaleNameToLCID 10018b39 f   libucrt:lcidtoname_downlevel.obj
 0001:00017b65       __isleadbyte_l             10018b65 f i libucrt:_wctype.obj
 0001:00017dbb       ___acrt_LCMapStringA       10018dbb f   libucrt:lcmapstringa.obj
 0001:00017e06       __freea_crt                10018e06 f i libucrt:lcmapstringa.obj
 0001:00017e26       ___acrt_fp_strflt_to_string 10018e26 f   libucrt:_fptostr.obj
 0001:00017ef0       ?divide@__crt_strtox@@YA_KAAUbig_integer@1@ABU21@@Z 10018ef0 f i libucrt:cfout.obj
 0001:0001839e       ___acrt_fltout             1001939e f   libucrt:cfout.obj
 0001:00019792       __fcloseall                1001a792 f   libucrt:closeall.obj
 0001:00019832       ??$?RV<lambda_2866be3712abc81a800a822484c830d8>@@AAV<lambda_39ca0ed439415581b5b15c265174cece>@@V<lambda_2b24c74d71094a6cd0cb82e44167d71b>@@@?$__crt_seh_guarded_call@X@@QAEX$$QAV<lambda_2866be3712abc81a800a822484c830d8>@@AAV<lambda_39ca0ed439415581b5b15c265174cece>@@$$QAV<lambda_2b24c74d71094a6cd0cb82e44167d71b>@@@Z 1001a832 f i libucrt:fflush.obj
 0001:000198b3       ??$?RV<lambda_2cc53f568c5a2bb6f192f930a45d44ea>@@AAV<lambda_ab61a845afdef5b7c387490eaf3616ee>@@V<lambda_c2ffc0b7726aa6be21d5f0026187e748>@@@?$__crt_seh_guarded_call@X@@QAEX$$QAV<lambda_2cc53f568c5a2bb6f192f930a45d44ea>@@AAV<lambda_ab61a845afdef5b7c387490eaf3616ee>@@$$QAV<lambda_c2ffc0b7726aa6be21d5f0026187e748>@@@Z 1001a8b3 f i libucrt:fflush.obj
 0001:00019946       ??$__acrt_lock_and_call@V<lambda_ab61a845afdef5b7c387490eaf3616ee>@@@@YAXW4__acrt_lock_id@@$$QAV<lambda_ab61a845afdef5b7c387490eaf3616ee>@@@Z 1001a946 f i libucrt:fflush.obj
 0001:0001996e       ??$__acrt_lock_stream_and_call@V<lambda_39ca0ed439415581b5b15c265174cece>@@@@YAXQAU_iobuf@@$$QAV<lambda_39ca0ed439415581b5b15c265174cece>@@@Z 1001a96e f i libucrt:fflush.obj
 0001:00019a2a       ___acrt_stdio_flush_nolock 1001aa2a f   libucrt:fflush.obj
 0001:00019a8d       __fflush_nolock            1001aa8d f   libucrt:fflush.obj
 0001:00019ad4       __flushall                 1001aad4 f   libucrt:fflush.obj
 0001:00019add       ___acrt_stdio_free_buffer_nolock 1001aadd f   libucrt:_freebuf.obj
 0001:00019b1b       __isatty                   1001ab1b f   libucrt:isatty.obj
 0001:00019b71       ___acrt_locale_free_monetary 1001ab71 f   libucrt:initmon.obj
 0001:00019c6f       ___acrt_locale_free_numeric 1001ac6f f   libucrt:initnum.obj
 0001:00019d14       ___acrt_locale_free_time   1001ad14 f   libucrt:inittime.obj
 0001:00019df8       ___acrt_GetStringTypeA     1001adf8 f   libucrt:getstringtypea.obj
 0001:00019f15       ___acrt_lowio_create_handle_array 1001af15 f   libucrt:osfinfo.obj
 0001:00019f8f       ___acrt_lowio_destroy_handle_array 1001af8f f   libucrt:osfinfo.obj
 0001:00019fc4       ___acrt_lowio_ensure_fh_exists 1001afc4 f   libucrt:osfinfo.obj
 0001:0001a05c       ___acrt_lowio_lock_fh      1001b05c f   libucrt:osfinfo.obj
 0001:0001a07f       ___acrt_lowio_unlock_fh    1001b07f f   libucrt:osfinfo.obj
 0001:0001a0a2       __free_osfhnd              1001b0a2 f   libucrt:osfinfo.obj
 0001:0001a133       __get_osfhandle            1001b133 f   libucrt:osfinfo.obj
 0001:0001a280       _qsort                     1001b280 f   libucrt:qsort.obj
 0001:0001a6cb       _strncpy_s                 1001b6cb f   libucrt:strncpy_s.obj
 0001:0001a6e0       _strpbrk                   1001b6e0 f   libucrt:strpbrk.obj
 0001:0001a720       __mbsdec                   1001b720 f   libucrt:mbsdec.obj
 0001:0001a737       __mbsdec_l                 1001b737 f   libucrt:mbsdec.obj
 0001:0001a7d3       ___strncnt                 1001b7d3 f   libucrt:strncnt.obj
 0001:0001a7ef       _fegetenv                  1001b7ef f   libucrt:fegetenv.obj
 0001:0001a80c       _fesetenv                  1001b80c f   libucrt:fesetenv.obj
 0001:0001a855       _feholdexcept              1001b855 f   libucrt:feholdexcept.obj
 0001:0001a8b0       _log10                     1001b8b0 f   libucrt:log10.obj
 0001:0001a8f0       __CIlog10                  1001b8f0 f   libucrt:log10.obj
 0001:0001a92b       __CIlog10_default          1001b92b f   libucrt:log10.obj
 0001:0001a93f       __log10_default            1001b93f     libucrt:log10.obj
 0001:0001aa00       _ceil                      1001ba00 f   libucrt:ceil_pentium4.obj
 0001:0001aa40       __ceil_pentium4            1001ba40 f   libucrt:ceil_pentium4.obj
 0001:0001b0bf       __write                    1001c0bf f   libucrt:write.obj
 0001:0001b1aa       __write_nolock             1001c1aa f   libucrt:write.obj
 0001:0001b441       __lseeki64_nolock          1001c441 f   libucrt:lseek.obj
 0001:0001b45c       __fclose_nolock            1001c45c f   libucrt:fclose.obj
 0001:0001b4d2       _fclose                    1001c4d2 f   libucrt:fclose.obj
 0001:0001b552       ??$?RV<lambda_9e9de3de5fa147e2223d7db92bc10aa6>@@AAV<lambda_38ce7e780aa69e748d6df282ebc68efe>@@V<lambda_8ca6da459f0f6780f1cff60fdc3d00e5>@@@?$__crt_seh_guarded_call@H@@QAEH$$QAV<lambda_9e9de3de5fa147e2223d7db92bc10aa6>@@AAV<lambda_38ce7e780aa69e748d6df282ebc68efe>@@$$QAV<lambda_8ca6da459f0f6780f1cff60fdc3d00e5>@@@Z 1001c552 f i libucrt:commit.obj
 0001:0001b5ea       ??$__acrt_lowio_lock_fh_and_call@V<lambda_38ce7e780aa69e748d6df282ebc68efe>@@@@YAHH$$QAV<lambda_38ce7e780aa69e748d6df282ebc68efe>@@@Z 1001c5ea f i libucrt:commit.obj
 0001:0001b612       __commit                   1001c612 f   libucrt:commit.obj
 0001:0001b681       __query_app_type           1001c681 f   libucrt:report_runtime_error.obj
 0001:0001b92a       __getfpcontrolword         1001c92a f   libucrt:_fenvutils.obj
 0001:0001b96d       __getfpstatusword          1001c96d f   libucrt:_fenvutils.obj
 0001:0001ba15       __setfpcontrolword         1001ca15 f   libucrt:_fenvutils.obj
 0001:0001ba95       __setfpstatusword          1001ca95 f   libucrt:_fenvutils.obj
 0001:0001bb15       __clearfp                  1001cb15 f   libucrt:ieee87.obj
 0001:0001bbf3       ___acrt_initialize_sse2    1001cbf3 f   libucrt:mathfcns.obj
 0001:0001bc10       __CIlog10_pentium4         1001cc10 f   libucrt:log10_pentium4.obj
 0001:0001bc28       __log10_pentium4           1001cc28     libucrt:log10_pentium4.obj
 0001:0001beb1       __fFEXP                    1001ceb1     libucrt:87tran.obj
 0001:0001bf08       __rtinfpopse               1001cf08     libucrt:87tran.obj
 0001:0001bf0a       __rtinfnpopse              1001cf0a     libucrt:87tran.obj
 0001:0001bf1a       __fFLN                     1001cf1a     libucrt:87tran.obj
 0001:0001bfcf       __rtinfpop                 1001cfcf     libucrt:87tran.obj
 0001:0001bfd1       __rtinfnpop                1001cfd1     libucrt:87tran.obj
 0001:0001bfee       __ffexpm1                  1001cfee     libucrt:87tran.obj
 0001:0001c0a0       __trandisp1                1001d0a0 f   libucrt:87disp.obj
 0001:0001c107       __trandisp2                1001d107 f   libucrt:87disp.obj
 0001:0001c193       __rttospopde               1001d193     libucrt:87disp.obj
 0001:0001c198       __rttospop                 1001d198     libucrt:87disp.obj
 0001:0001c19a       __rtnospop                 1001d19a     libucrt:87disp.obj
 0001:0001c19c       __rttosnpop                1001d19c     libucrt:87disp.obj
 0001:0001c19d       __rtnospopde               1001d19d     libucrt:87disp.obj
 0001:0001c1a4       __rtzeropop                1001d1a4     libucrt:87disp.obj
 0001:0001c1a6       __rtzeronpop               1001d1a6     libucrt:87disp.obj
 0001:0001c1ab       __rtzerospop               1001d1ab     libucrt:87disp.obj
 0001:0001c1b8       __rtonepop                 1001d1b8     libucrt:87disp.obj
 0001:0001c1ba       __rtonenpop                1001d1ba     libucrt:87disp.obj
 0001:0001c1bf       __tosnan1                  1001d1bf     libucrt:87disp.obj
 0001:0001c1ea       __nosnan2                  1001d1ea     libucrt:87disp.obj
 0001:0001c1ec       __tosnan2                  1001d1ec     libucrt:87disp.obj
 0001:0001c214       __nan2                     1001d214     libucrt:87disp.obj
 0001:0001c253       __rtindfpop                1001d253     libucrt:87disp.obj
 0001:0001c255       __rtindfnpop               1001d255     libucrt:87disp.obj
 0001:0001c266       __rttosnpopde              1001d266     libucrt:87disp.obj
 0001:0001c270       __rtatan2inf               1001d270     libucrt:87disp.obj
 0001:0001c28d       __rtchsifneg               1001d28d     libucrt:87disp.obj
 0001:0001c2a0       __twoToTOS                 1001d2a0 f   libucrt:common.obj
 0001:0001c2b5       __load_CW                  1001d2b5 f   libucrt:common.obj
 0001:0001c2cc       __convertTOStoQNaN         1001d2cc f   libucrt:common.obj
 0001:0001c2e5       __fload_withFB             1001d2e5 f   libucrt:common.obj
 0001:0001c328       __checkTOS_withFB          1001d328 f   libucrt:common.obj
 0001:0001c33e       __fast_exit                1001d33e f   libucrt:common.obj
 0001:0001c34b       __math_exit                1001d34b f   libucrt:common.obj
 0001:0001c375       __check_overflow_exit      1001d375 f   libucrt:common.obj
 0001:0001c389       __check_range_exit         1001d389 f   libucrt:common.obj
 0001:0001c430       __startTwoArgErrorHandling 1001d430 f   libucrt:genexcep.obj
 0001:0001c447       __startOneArgErrorHandling 1001d447 f   libucrt:genexcep.obj
 0001:0001c483       ___libm_error_support      1001d483 f   libucrt:libm_error.obj
 0001:0001c69b       __ceil_default             1001d69b f   libucrt:ceil.obj
 0001:0001c754       __putwch_nolock            1001d754 f   libucrt:putwch.obj
 0001:0001c799       ??$?RV<lambda_218ce3db14220d0be481dae8ef3383b6>@@AAV<lambda_628dfdc04ba53c8bfc02c9951375f3f5>@@V<lambda_57dc472bd5c9d5f3b2cbca59b8a843ae>@@@?$__crt_seh_guarded_call@H@@QAEH$$QAV<lambda_218ce3db14220d0be481dae8ef3383b6>@@AAV<lambda_628dfdc04ba53c8bfc02c9951375f3f5>@@$$QAV<lambda_57dc472bd5c9d5f3b2cbca59b8a843ae>@@@Z 1001d799 f i libucrt:close.obj
 0001:0001c81b       ??$__acrt_lowio_lock_fh_and_call@V<lambda_628dfdc04ba53c8bfc02c9951375f3f5>@@@@YAHH$$QAV<lambda_628dfdc04ba53c8bfc02c9951375f3f5>@@@Z 1001d81b f i libucrt:close.obj
 0001:0001c843       __close                    1001d843 f   libucrt:close.obj
 0001:0001c8c2       __close_nolock             1001d8c2 f   libucrt:close.obj
 0001:0001c95e       ?__acrt_stdio_free_stream@@YAXV__crt_stdio_stream@@@Z 1001d95e f   libucrt:stream.obj
 0001:0001c9a0       ___ascii_strnicmp          1001d9a0 f   libucrt:_strnicm.obj
 0001:0001ca01       __clrfp                    1001da01 f   libucrt:fpctrl.obj
 0001:0001ca14       __ctrlfp                   1001da14 f   libucrt:fpctrl.obj
 0001:0001ca40       __set_statfp               1001da40 f   libucrt:fpctrl.obj
 0001:0001ca9b       __statfp                   1001da9b f   libucrt:fpctrl.obj
 0001:0001caad       __d_inttype                1001daad f   libucrt:powhlp.obj
 0001:0001cb17       __powhlp                   1001db17 f   libucrt:powhlp.obj
 0001:0001cc42       __87except                 1001dc42 f   libucrt:87except.obj
 0001:0001cd4d       __frnd                     1001dd4d f   libucrt:frnd.obj
 0001:0001cd63       __errcode                  1001dd63 f   libucrt:fpexcept.obj
 0001:0001cd97       __except1                  1001dd97 f   libucrt:fpexcept.obj
 0001:0001ce65       __handle_exc               1001de65 f   libucrt:fpexcept.obj
 0001:0001d045       __raise_exc                1001e045 f   libucrt:fpexcept.obj
 0001:0001d068       __raise_exc_ex             1001e068 f   libucrt:fpexcept.obj
 0001:0001d359       __set_errno_from_matherr   1001e359 f   libucrt:fpexcept.obj
 0001:0001d388       __umatherr                 1001e388 f   libucrt:fpexcept.obj
 0001:0001d42a       __decomp                   1001e42a f   libucrt:util.obj
 0001:0001d4fe       __set_exp                  1001e4fe f   libucrt:util.obj
 0001:0001d52d       __sptype                   1001e52d f   libucrt:util.obj
 0001:0001d58b       ___dcrt_lowio_initialize_console_output 1001e58b f   libucrt:initcon.obj
 0001:0001d5aa       ___dcrt_terminate_console_output 1001e5aa f   libucrt:initcon.obj
 0001:0001d5c1       __fpclass                  1001e5c1 f   libucrt:ieeemisc.obj
 0001:0001d665       _IsProcessorFeaturePresent@4 1001e665 f   kernel32:KERNEL32.dll
 0001:0001d670       __FindPESection            1001e670 f   LIBCMT:pesect.obj
 0001:0001d6c0       __IsNonwritableInCurrentImage 1001e6c0 f   LIBCMT:pesect.obj
 0001:0001d780       __ValidateImageBase        1001e780 f   LIBCMT:pesect.obj
 0001:0001d7b3       __EH_prolog3_catch         1001e7b3 f   LIBCMT:ehprolg3.obj
 0001:0001d7f0       __aulldvrm                 1001e7f0 f   LIBCMT:ulldvrm.obj
 0001:0001d890       __allmul                   1001e890 f   LIBCMT:llmul.obj
 0001:0001d8d0       __alldvrm                  1001e8d0 f   LIBCMT:lldvrm.obj
 0001:0001d9b0       __aullshr                  1001e9b0 f   LIBCMT:ullshr.obj
 0001:0001d9d0       __allshl                   1001e9d0 f   LIBCMT:llshl.obj
 0001:0001d9f0       __ftol2_sse                1001e9f0 f   LIBCMT:_ftol2_.obj
 0001:0001d9f9       __ftol2_pentium4           1001e9f9 f   LIBCMT:_ftol2_.obj
 0001:0001da0c       __ftol2_sse_excpt          1001ea0c f   LIBCMT:_ftol2_.obj
 0001:0001da30       __ftol2                    1001ea30 f   LIBCMT:_ftol2_.obj
 0001:0001dab0       _strrchr                   1001eab0 f   libvcruntime:strrchr.obj
 0001:0001dbf0       _strchr                    1001ebf0 f   libvcruntime:strchr.obj
 0001:0001dc5e       ___from_strstr_to_strchr   1001ec5e     libvcruntime:strchr.obj
 0002:00000000       __imp__RegQueryValueExW@24 1001f000     advapi32:ADVAPI32.dll
 0002:00000004       __imp__RegSetValueExW@24   1001f004     advapi32:ADVAPI32.dll
 0002:00000008       __imp__RegQueryInfoKeyW@48 1001f008     advapi32:ADVAPI32.dll
 0002:0000000c       __imp__RegOpenKeyExW@20    1001f00c     advapi32:ADVAPI32.dll
 0002:00000010       __imp__RegEnumKeyExW@32    1001f010     advapi32:ADVAPI32.dll
 0002:00000014       __imp__RegDeleteValueW@8   1001f014     advapi32:ADVAPI32.dll
 0002:00000018       __imp__RegDeleteKeyW@8     1001f018     advapi32:ADVAPI32.dll
 0002:0000001c       __imp__RegCreateKeyExW@36  1001f01c     advapi32:ADVAPI32.dll
 0002:00000020       __imp__RegCloseKey@4       1001f020     advapi32:ADVAPI32.dll
 0002:00000024       \177ADVAPI32_NULL_THUNK_DATA 1001f024     advapi32:ADVAPI32.dll
 0002:00000028       __imp__GetObjectW@12       1001f028     gdi32:GDI32.dll
 0002:0000002c       __imp__SelectObject@8      1001f02c     gdi32:GDI32.dll
 0002:00000030       __imp__DeleteObject@4      1001f030     gdi32:GDI32.dll
 0002:00000034       __imp__CreateCompatibleDC@4 1001f034     gdi32:GDI32.dll
 0002:00000038       __imp__BitBlt@36           1001f038     gdi32:GDI32.dll
 0002:0000003c       __imp__SetWindowOrgEx@16   1001f03c     gdi32:GDI32.dll
 0002:00000040       __imp__SetWindowExtEx@16   1001f040     gdi32:GDI32.dll
 0002:00000044       __imp__SetViewportOrgEx@16 1001f044     gdi32:GDI32.dll
 0002:00000048       __imp__LPtoDP@12           1001f048     gdi32:GDI32.dll
 0002:0000004c       __imp__SetMapMode@8        1001f04c     gdi32:GDI32.dll
 0002:00000050       __imp__SaveDC@4            1001f050     gdi32:GDI32.dll
 0002:00000054       __imp__RestoreDC@8         1001f054     gdi32:GDI32.dll
 0002:00000058       __imp__GetDeviceCaps@8     1001f058     gdi32:GDI32.dll
 0002:0000005c       __imp__DeleteMetaFile@4    1001f05c     gdi32:GDI32.dll
 0002:00000060       __imp__DeleteDC@4          1001f060     gdi32:GDI32.dll
 0002:00000064       __imp__CreateRectRgnIndirect@4 1001f064     gdi32:GDI32.dll
 0002:00000068       __imp__CreateMetaFileW@4   1001f068     gdi32:GDI32.dll
 0002:0000006c       __imp__CreateDCW@16        1001f06c     gdi32:GDI32.dll
 0002:00000070       __imp__CloseMetaFile@4     1001f070     gdi32:GDI32.dll
 0002:00000074       \177GDI32_NULL_THUNK_DATA  1001f074     gdi32:GDI32.dll
 0002:00000078       __imp__CloseHandle@4       1001f078     kernel32:KERNEL32.dll
 0002:0000007c       __imp__SetEvent@4          1001f07c     kernel32:KERNEL32.dll
 0002:00000080       __imp__CreateMutexW@12     1001f080     kernel32:KERNEL32.dll
 0002:00000084       __imp__CreateEventW@16     1001f084     kernel32:KERNEL32.dll
 0002:00000088       __imp__GetCurrentProcessId@0 1001f088     kernel32:KERNEL32.dll
 0002:0000008c       __imp__WriteConsoleW@20    1001f08c     kernel32:KERNEL32.dll
 0002:00000090       __imp__FlushFileBuffers@4  1001f090     kernel32:KERNEL32.dll
 0002:00000094       __imp__SetFilePointerEx@20 1001f094     kernel32:KERNEL32.dll
 0002:00000098       __imp__GetConsoleMode@8    1001f098     kernel32:KERNEL32.dll
 0002:0000009c       __imp__GetConsoleCP@0      1001f09c     kernel32:KERNEL32.dll
 0002:000000a0       __imp__WriteFile@20        1001f0a0     kernel32:KERNEL32.dll
 0002:000000a4       __imp__SetStdHandle@8      1001f0a4     kernel32:KERNEL32.dll
 0002:000000a8       __imp__GetStringTypeW@16   1001f0a8     kernel32:KERNEL32.dll
 0002:000000ac       __imp__FreeEnvironmentStringsW@4 1001f0ac     kernel32:KERNEL32.dll
 0002:000000b0       __imp__GetEnvironmentStringsW@0 1001f0b0     kernel32:KERNEL32.dll
 0002:000000b4       __imp__GetCommandLineW@0   1001f0b4     kernel32:KERNEL32.dll
 0002:000000b8       __imp__lstrcmpiW@8         1001f0b8     kernel32:KERNEL32.dll
 0002:000000bc       __imp__GetCPInfo@8         1001f0bc     kernel32:KERNEL32.dll
 0002:000000c0       __imp__GetOEMCP@0          1001f0c0     kernel32:KERNEL32.dll
 0002:000000c4       __imp__IsValidCodePage@4   1001f0c4     kernel32:KERNEL32.dll
 0002:000000c8       __imp__FindNextFileA@8     1001f0c8     kernel32:KERNEL32.dll
 0002:000000cc       __imp__FindFirstFileExA@24 1001f0cc     kernel32:KERNEL32.dll
 0002:000000d0       __imp__FindClose@4         1001f0d0     kernel32:KERNEL32.dll
 0002:000000d4       __imp__GetFileType@4       1001f0d4     kernel32:KERNEL32.dll
 0002:000000d8       __imp__GetStdHandle@4      1001f0d8     kernel32:KERNEL32.dll
 0002:000000dc       __imp__GetACP@0            1001f0dc     kernel32:KERNEL32.dll
 0002:000000e0       __imp__LCMapStringW@24     1001f0e0     kernel32:KERNEL32.dll
 0002:000000e4       __imp__HeapReAlloc@16      1001f0e4     kernel32:KERNEL32.dll
 0002:000000e8       __imp__HeapSize@12         1001f0e8     kernel32:KERNEL32.dll
 0002:000000ec       __imp__MulDiv@12           1001f0ec     kernel32:KERNEL32.dll
 0002:000000f0       __imp__GlobalUnlock@4      1001f0f0     kernel32:KERNEL32.dll
 0002:000000f4       __imp__GlobalLock@4        1001f0f4     kernel32:KERNEL32.dll
 0002:000000f8       __imp__GlobalAlloc@8       1001f0f8     kernel32:KERNEL32.dll
 0002:000000fc       __imp__FindResourceW@12    1001f0fc     kernel32:KERNEL32.dll
 0002:00000100       __imp__SizeofResource@8    1001f100     kernel32:KERNEL32.dll
 0002:00000104       __imp__LoadResource@8      1001f104     kernel32:KERNEL32.dll
 0002:00000108       __imp__LoadLibraryExW@12   1001f108     kernel32:KERNEL32.dll
 0002:0000010c       __imp__GetProcAddress@8    1001f10c     kernel32:KERNEL32.dll
 0002:00000110       __imp__GetModuleHandleW@4  1001f110     kernel32:KERNEL32.dll
 0002:00000114       __imp__GetModuleFileNameW@12 1001f114     kernel32:KERNEL32.dll
 0002:00000118       __imp__FreeLibrary@4       1001f118     kernel32:KERNEL32.dll
 0002:0000011c       __imp__DisableThreadLibraryCalls@4 1001f11c     kernel32:KERNEL32.dll
 0002:00000120       __imp__GetCurrentThreadId@0 1001f120     kernel32:KERNEL32.dll
 0002:00000124       __imp__Sleep@4             1001f124     kernel32:KERNEL32.dll
 0002:00000128       __imp__WaitForSingleObject@8 1001f128     kernel32:KERNEL32.dll
 0002:0000012c       __imp__ReleaseMutex@4      1001f12c     kernel32:KERNEL32.dll
 0002:00000130       __imp__ResetEvent@4        1001f130     kernel32:KERNEL32.dll
 0002:00000134       __imp__EnterCriticalSection@4 1001f134     kernel32:KERNEL32.dll
 0002:00000138       __imp__LeaveCriticalSection@4 1001f138     kernel32:KERNEL32.dll
 0002:0000013c       __imp__SetLastError@4      1001f13c     kernel32:KERNEL32.dll
 0002:00000140       __imp__EncodePointer@4     1001f140     kernel32:KERNEL32.dll
 0002:00000144       __imp__DeleteCriticalSection@4 1001f144     kernel32:KERNEL32.dll
 0002:00000148       __imp__InitializeCriticalSectionAndSpinCount@8 1001f148     kernel32:KERNEL32.dll
 0002:0000014c       __imp__GetLastError@0      1001f14c     kernel32:KERNEL32.dll
 0002:00000150       __imp__RaiseException@16   1001f150     kernel32:KERNEL32.dll
 0002:00000154       __imp__DecodePointer@4     1001f154     kernel32:KERNEL32.dll
 0002:00000158       __imp__WideCharToMultiByte@32 1001f158     kernel32:KERNEL32.dll
 0002:0000015c       __imp__GetCommandLineA@0   1001f15c     kernel32:KERNEL32.dll
 0002:00000160       __imp__MultiByteToWideChar@24 1001f160     kernel32:KERNEL32.dll
 0002:00000164       __imp__CreateFileW@28      1001f164     kernel32:KERNEL32.dll
 0002:00000168       __imp__GetModuleFileNameA@12 1001f168     kernel32:KERNEL32.dll
 0002:0000016c       __imp__GetModuleHandleExW@12 1001f16c     kernel32:KERNEL32.dll
 0002:00000170       __imp__ExitProcess@4       1001f170     kernel32:KERNEL32.dll
 0002:00000174       __imp__VirtualQuery@12     1001f174     kernel32:KERNEL32.dll
 0002:00000178       __imp__VirtualProtect@16   1001f178     kernel32:KERNEL32.dll
 0002:0000017c       __imp__GetSystemInfo@4     1001f17c     kernel32:KERNEL32.dll
 0002:00000180       __imp__TlsFree@4           1001f180     kernel32:KERNEL32.dll
 0002:00000184       __imp__TlsSetValue@8       1001f184     kernel32:KERNEL32.dll
 0002:00000188       __imp__TlsGetValue@4       1001f188     kernel32:KERNEL32.dll
 0002:0000018c       __imp__TlsAlloc@0          1001f18c     kernel32:KERNEL32.dll
 0002:00000190       __imp__InterlockedFlushSList@4 1001f190     kernel32:KERNEL32.dll
 0002:00000194       __imp__RtlUnwind@16        1001f194     kernel32:KERNEL32.dll
 0002:00000198       __imp__LoadLibraryExA@12   1001f198     kernel32:KERNEL32.dll
 0002:0000019c       __imp__VirtualFree@12      1001f19c     kernel32:KERNEL32.dll
 0002:000001a0       __imp__VirtualAlloc@16     1001f1a0     kernel32:KERNEL32.dll
 0002:000001a4       __imp__FlushInstructionCache@12 1001f1a4     kernel32:KERNEL32.dll
 0002:000001a8       __imp__InterlockedPushEntrySList@8 1001f1a8     kernel32:KERNEL32.dll
 0002:000001ac       __imp__InterlockedPopEntrySList@4 1001f1ac     kernel32:KERNEL32.dll
 0002:000001b0       __imp__GetProcessHeap@0    1001f1b0     kernel32:KERNEL32.dll
 0002:000001b4       __imp__HeapFree@12         1001f1b4     kernel32:KERNEL32.dll
 0002:000001b8       __imp__HeapAlloc@12        1001f1b8     kernel32:KERNEL32.dll
 0002:000001bc       __imp__OutputDebugStringW@4 1001f1bc     kernel32:KERNEL32.dll
 0002:000001c0       __imp__InitializeSListHead@4 1001f1c0     kernel32:KERNEL32.dll
 0002:000001c4       __imp__GetSystemTimeAsFileTime@4 1001f1c4     kernel32:KERNEL32.dll
 0002:000001c8       __imp__QueryPerformanceCounter@4 1001f1c8     kernel32:KERNEL32.dll
 0002:000001cc       __imp__GetStartupInfoW@4   1001f1cc     kernel32:KERNEL32.dll
 0002:000001d0       __imp__IsDebuggerPresent@0 1001f1d0     kernel32:KERNEL32.dll
 0002:000001d4       __imp__IsProcessorFeaturePresent@4 1001f1d4     kernel32:KERNEL32.dll
 0002:000001d8       __imp__TerminateProcess@8  1001f1d8     kernel32:KERNEL32.dll
 0002:000001dc       __imp__GetCurrentProcess@0 1001f1dc     kernel32:KERNEL32.dll
 0002:000001e0       __imp__WaitForSingleObjectEx@12 1001f1e0     kernel32:KERNEL32.dll
 0002:000001e4       __imp__UnhandledExceptionFilter@4 1001f1e4     kernel32:KERNEL32.dll
 0002:000001e8       __imp__SetUnhandledExceptionFilter@4 1001f1e8     kernel32:KERNEL32.dll
 0002:000001ec       \177KERNEL32_NULL_THUNK_DATA 1001f1ec     kernel32:KERNEL32.dll
 0002:000001f0       __imp__OleCreatePropertyFrame@44 1001f1f0     oleaut32:OLEAUT32.dll
 0002:000001f4       __imp__UnRegisterTypeLib@20 1001f1f4     oleaut32:OLEAUT32.dll
 0002:000001f8       __imp__RegisterTypeLib@12  1001f1f8     oleaut32:OLEAUT32.dll
 0002:000001fc       __imp__LoadRegTypeLib@20   1001f1fc     oleaut32:OLEAUT32.dll
 0002:00000200       __imp__LoadTypeLib@8       1001f200     oleaut32:OLEAUT32.dll
 0002:00000204       __imp__VarUI4FromStr@16    1001f204     oleaut32:OLEAUT32.dll
 0002:00000208       __imp__VariantInit@4       1001f208     oleaut32:OLEAUT32.dll
 0002:0000020c       __imp__SysAllocStringByteLen@8 1001f20c     oleaut32:OLEAUT32.dll
 0002:00000210       __imp__SysStringByteLen@4  1001f210     oleaut32:OLEAUT32.dll
 0002:00000214       __imp__VariantChangeType@16 1001f214     oleaut32:OLEAUT32.dll
 0002:00000218       __imp__VariantClear@4      1001f218     oleaut32:OLEAUT32.dll
 0002:0000021c       __imp__SysStringLen@4      1001f21c     oleaut32:OLEAUT32.dll
 0002:00000220       __imp__SysFreeString@4     1001f220     oleaut32:OLEAUT32.dll
 0002:00000224       __imp__SysAllocStringLen@8 1001f224     oleaut32:OLEAUT32.dll
 0002:00000228       __imp__SysAllocString@4    1001f228     oleaut32:OLEAUT32.dll
 0002:0000022c       \177OLEAUT32_NULL_THUNK_DATA 1001f22c     oleaut32:OLEAUT32.dll
 0002:00000230       __imp__UnregisterClassW@8  1001f230     user32:USER32.dll
 0002:00000234       __imp__PostMessageW@16     1001f234     user32:USER32.dll
 0002:00000238       __imp__DefWindowProcW@16   1001f238     user32:USER32.dll
 0002:0000023c       __imp__CallWindowProcW@20  1001f23c     user32:USER32.dll
 0002:00000240       __imp__RegisterClassExW@4  1001f240     user32:USER32.dll
 0002:00000244       __imp__GetClassInfoExW@12  1001f244     user32:USER32.dll
 0002:00000248       __imp__CreateWindowExW@48  1001f248     user32:USER32.dll
 0002:0000024c       __imp__IsWindow@4          1001f24c     user32:USER32.dll
 0002:00000250       __imp__IsChild@8           1001f250     user32:USER32.dll
 0002:00000254       __imp__DestroyWindow@4     1001f254     user32:USER32.dll
 0002:00000258       __imp__ShowWindow@8        1001f258     user32:USER32.dll
 0002:0000025c       __imp__SetWindowPos@28     1001f25c     user32:USER32.dll
 0002:00000260       __imp__CharNextW@4         1001f260     user32:USER32.dll
 0002:00000264       __imp__SetFocus@4          1001f264     user32:USER32.dll
 0002:00000268       __imp__LoadBitmapW@8       1001f268     user32:USER32.dll
 0002:0000026c       __imp__RegisterClassW@4    1001f26c     user32:USER32.dll
 0002:00000270       __imp__PeekMessageW@20     1001f270     user32:USER32.dll
 0002:00000274       __imp__LoadCursorW@8       1001f274     user32:USER32.dll
 0002:00000278       __imp__GetParent@4         1001f278     user32:USER32.dll
 0002:0000027c       __imp__SetWindowLongW@12   1001f27c     user32:USER32.dll
 0002:00000280       __imp__GetWindowLongW@8    1001f280     user32:USER32.dll
 0002:00000284       __imp__PtInRect@12         1001f284     user32:USER32.dll
 0002:00000288       __imp__EqualRect@8         1001f288     user32:USER32.dll
 0002:0000028c       __imp__OffsetRect@12       1001f28c     user32:USER32.dll
 0002:00000290       __imp__UnionRect@12        1001f290     user32:USER32.dll
 0002:00000294       __imp__IntersectRect@12    1001f294     user32:USER32.dll
 0002:00000298       __imp__GetClientRect@8     1001f298     user32:USER32.dll
 0002:0000029c       __imp__InvalidateRect@12   1001f29c     user32:USER32.dll
 0002:000002a0       __imp__SetWindowRgn@12     1001f2a0     user32:USER32.dll
 0002:000002a4       __imp__EndPaint@8          1001f2a4     user32:USER32.dll
 0002:000002a8       __imp__BeginPaint@8        1001f2a8     user32:USER32.dll
 0002:000002ac       __imp__ReleaseDC@8         1001f2ac     user32:USER32.dll
 0002:000002b0       __imp__GetDC@4             1001f2b0     user32:USER32.dll
 0002:000002b4       __imp__GetKeyState@4       1001f2b4     user32:USER32.dll
 0002:000002b8       __imp__GetFocus@0          1001f2b8     user32:USER32.dll
 0002:000002bc       \177USER32_NULL_THUNK_DATA 1001f2bc     user32:USER32.dll
 0002:000002c0       __imp__CoCreateInstance@20 1001f2c0     ole32:ole32.dll
 0002:000002c4       __imp__CoTaskMemAlloc@4    1001f2c4     ole32:ole32.dll
 0002:000002c8       __imp__CoTaskMemRealloc@8  1001f2c8     ole32:ole32.dll
 0002:000002cc       __imp__CoTaskMemFree@4     1001f2cc     ole32:ole32.dll
 0002:000002d0       __imp__ReadClassStm@8      1001f2d0     ole32:ole32.dll
 0002:000002d4       __imp__WriteClassStm@8     1001f2d4     ole32:ole32.dll
 0002:000002d8       __imp__CreateDataAdviseHolder@4 1001f2d8     ole32:ole32.dll
 0002:000002dc       __imp__OleSaveToStream@8   1001f2dc     ole32:ole32.dll
 0002:000002e0       __imp__CreateOleAdviseHolder@4 1001f2e0     ole32:ole32.dll
 0002:000002e4       __imp__OleRegGetUserType@12 1001f2e4     ole32:ole32.dll
 0002:000002e8       __imp__OleRegGetMiscStatus@12 1001f2e8     ole32:ole32.dll
 0002:000002ec       __imp__OleRegEnumVerbs@8   1001f2ec     ole32:ole32.dll
 0002:000002f0       __imp__CLSIDFromProgID@8   1001f2f0     ole32:ole32.dll
 0002:000002f4       __imp__StringFromGUID2@12  1001f2f4     ole32:ole32.dll
 0002:000002f8       \177ole32_NULL_THUNK_DATA  1001f2f8     ole32:ole32.dll
 0002:000002fc       ___guard_check_icall_fptr  1001f2fc     LIBCMT:guard_support.obj
 0002:00000300       ___xc_a                    1001f300     LIBCMT:initializers.obj
 0002:00000318       ___xc_z                    1001f318     LIBCMT:initializers.obj
 0002:0000031c       ___xi_a                    1001f31c     LIBCMT:initializers.obj
 0002:00000324       ___acrt_stdio_initializer  1001f324     libucrt:stdio_initializer.obj
 0002:00000328       ___acrt_multibyte_initializer 1001f328     libucrt:multibyte_initializer.obj
 0002:0000032c       ___acrt_tran_sse2_initializer 1001f32c     libucrt:sse2_initializer.obj
 0002:00000330       ___xi_z                    1001f330     LIBCMT:initializers.obj
 0002:00000334       ___xl_a                    1001f334     LIBCMT:tlssup.obj
 0002:00000338       ___xl_z                    1001f338     LIBCMT:tlssup.obj
 0002:0000033c       ___xp_a                    1001f33c     LIBCMT:initializers.obj
 0002:00000340       ___acrt_locale_terminator  1001f340     libucrt:locale_initializer.obj
 0002:00000344       ___dcrt_console_output_terminator 1001f344     libucrt:console_output_initializer.obj
 0002:00000348       ___acrt_stdio_terminator   1001f348     libucrt:stdio_initializer.obj
 0002:0000034c       ___xp_z                    1001f34c     LIBCMT:initializers.obj
 0002:00000350       ___xt_a                    1001f350     LIBCMT:initializers.obj
 0002:00000354       ___xt_z                    1001f354     LIBCMT:initializers.obj
 0002:00000360       ??_C@_11LOCGONAA@@         1001f360     OposVariant.obj
 0002:00000364       ??_C@_13HADIAKP@?$AAS@     1001f364     OposVariant.obj
 0002:00000368       ??_C@_13LHMFKAAD@?$AAM@    1001f368     OposVariant.obj
 0002:0000036c       ??_C@_13MKMNOPIJ@?$AAD@    1001f36c     OposVariant.obj
 0002:00000370       ??_C@_13OPKGLAFF@?$AAB@    1001f370     OposVariant.obj
 0002:00000374       ??_C@_17LLMMEOJD@?$AAV?$AAa?$AAl@ 1001f374     OposVariant.obj
 0002:0000037c       ??_C@_1BI@JFAIJMHL@?$AAF?$AAo?$AAr?$AAc?$AAe?$AAR?$AAe?$AAm?$AAo?$AAv?$AAe@ 1001f37c     OposVariant.obj
 0002:00000394       ??_C@_1BC@GCKHIPE@?$AAN?$AAo?$AAR?$AAe?$AAm?$AAo?$AAv?$AAe@ 1001f394     OposVariant.obj
 0002:000003a8       ??_C@_1O@JDLOHAN@?$AAD?$AAe?$AAl?$AAe?$AAt?$AAe@ 1001f3a8     OposVariant.obj
 0002:000003b8       __GUID_00000000_0000_0000_c000_000000000046 1001f3b8     RemoteOrderDisplay.obj
 0002:000003c8       __GUID_00020400_0000_0000_c000_000000000046 1001f3c8     RemoteOrderDisplay.obj
 0002:000003d8       ??_C@_1M@KANJNLFF@?$AAC?$AAL?$AAS?$AAI?$AAD@ 1001f3d8     RemoteOrderDisplay.obj
 0002:000003e4       ??_C@_1M@EJNEECMJ@?$AAA?$AAp?$AAp?$AAI?$AAD@ 1001f3e4     RemoteOrderDisplay.obj
 0002:000003f0       ?rgszNeverDelete@CRegParser@ATL@@1QBQB_WB 1001f3f0     RemoteOrderDisplay.obj
 0002:00000420       ?_entries@?1??_GetEntries@COPOSRemoteOrderDisplay@@SGPBU_ATL_INTMAP_ENTRY@ATL@@XZ@4QBU34@B 1001f420     RemoteOrderDisplay.obj
 0002:00000564       ??_7CRegObject@ATL@@6B@    1001f564     RemoteOrderDisplay.obj
 0002:0000057c       __GUID_922eada0_3424_11cf_b670_00aa004cd6d8 1001f57c     RemoteOrderDisplay.obj
 0002:0000058c       __GUID_9c2cad80_3424_11cf_b670_00aa004cd6d8 1001f58c     RemoteOrderDisplay.obj
 0002:0000059c       __GUID_00000119_0000_0000_c000_000000000046 1001f59c     RemoteOrderDisplay.obj
 0002:000005ac       __GUID_b196b289_bab4_101a_b69c_00aa00341d07 1001f5ac     RemoteOrderDisplay.obj
 0002:000005bc       __GUID_cf51ed10_62fe_11cf_bf86_00a0c9034836 1001f5bc     RemoteOrderDisplay.obj
 0002:000005cc       __GUID_0000010a_0000_0000_c000_000000000046 1001f5cc     RemoteOrderDisplay.obj
 0002:000005dc       __GUID_b196b283_bab4_101a_b69c_00aa00341d07 1001f5dc     RemoteOrderDisplay.obj
 0002:000005ec       __GUID_cb5bdc81_93c1_11cf_8f20_00805f2cd064 1001f5ec     RemoteOrderDisplay.obj
 0002:00000600       ?pPropMap@?1??GetPropertyMap@COPOSRemoteOrderDisplay@@SAPBUATL_PROPMAP_ENTRY@ATL@@XZ@4QBU34@B 1001f600     RemoteOrderDisplay.obj
 0002:0000066c       ??_C@_17DGDADEHL@?$AA_?$AAc?$AAx@ 1001f66c     RemoteOrderDisplay.obj
 0002:00000674       ??_C@_17IOIMFDBO@?$AA_?$AAc?$AAy@ 1001f674     RemoteOrderDisplay.obj
 0002:0000067c       __GUID_00000117_0000_0000_c000_000000000046 1001f67c     RemoteOrderDisplay.obj
 0002:0000068c       ??_C@_1CK@OEKPKBNA@?$AAC?$AAo?$AAm?$AAp?$AAo?$AAn?$AAe?$AAn?$AAt?$AA?5?$AAC?$AAa?$AAt?$AAe?$AAg@ 1001f68c     RemoteOrderDisplay.obj
 0002:000006b8       ??_C@_1BC@NKMMNMGL@?$AAF?$AAi?$AAl?$AAe?$AAT?$AAy?$AAp?$AAe@ 1001f6b8     RemoteOrderDisplay.obj
 0002:000006cc       ??_C@_1BE@EKPAFMCP@?$AAI?$AAn?$AAt?$AAe?$AAr?$AAf?$AAa?$AAc?$AAe@ 1001f6cc     RemoteOrderDisplay.obj
 0002:000006e0       ??_C@_1BC@MAICEHGI@?$AAH?$AAa?$AAr?$AAd?$AAw?$AAa?$AAr?$AAe@ 1001f6e0     RemoteOrderDisplay.obj
 0002:000006f4       ??_C@_19HLLLM@?$AAM?$AAi?$AAm?$AAe@ 1001f6f4     RemoteOrderDisplay.obj
 0002:00000700       ??_C@_17OMAOINJK@?$AAS?$AAA?$AAM@ 1001f700     RemoteOrderDisplay.obj
 0002:00000708       ??_C@_1BC@IBECJAAI@?$AAS?$AAE?$AAC?$AAU?$AAR?$AAI?$AAT?$AAY@ 1001f708     RemoteOrderDisplay.obj
 0002:0000071c       ??_C@_1O@GBFINDKL@?$AAS?$AAY?$AAS?$AAT?$AAE?$AAM@ 1001f71c     RemoteOrderDisplay.obj
 0002:0000072c       ??_C@_1BC@EAHCMADO@?$AAS?$AAo?$AAf?$AAt?$AAw?$AAa?$AAr?$AAe@ 1001f72c     RemoteOrderDisplay.obj
 0002:00000740       ??_C@_1BA@JIHHIEDE@?$AAT?$AAy?$AAp?$AAe?$AAL?$AAi?$AAb@ 1001f740     RemoteOrderDisplay.obj
 0002:00000750       __GUID_b196b286_bab4_101a_b69c_00aa00341d07 1001f750     RemoteOrderDisplay.obj
 0002:000007d0       ??_C@_1CE@PGFMOFKI@?$AAS?$AAt?$AAa?$AAt?$AAu?$AAs?$AAU?$AAp?$AAd?$AAa?$AAt?$AAe?$AAE?$AAv?$AAe@ 1001f7d0     RemoteOrderDisplay.obj
 0002:000007f4       ??_C@_1CI@HLBJDONE@?$AAO?$AAu?$AAt?$AAp?$AAu?$AAt?$AAC?$AAo?$AAm?$AAp?$AAl?$AAe?$AAt?$AAe?$AAE@ 1001f7f4     RemoteOrderDisplay.obj
 0002:0000081c       ??_C@_1BG@LODEBHDD@?$AAE?$AAr?$AAr?$AAo?$AAr?$AAE?$AAv?$AAe?$AAn?$AAt@ 1001f81c     RemoteOrderDisplay.obj
 0002:00000834       ??_C@_19NCHLBIN@?$AAH?$AAK?$AAC?$AAR@ 1001f834     RemoteOrderDisplay.obj
 0002:00000840       ??_C@_19JAPAIJDE@?$AAH?$AAK?$AAC?$AAU@ 1001f840     RemoteOrderDisplay.obj
 0002:0000084c       ??_C@_19PEALEEJB@?$AAH?$AAK?$AAL?$AAM@ 1001f84c     RemoteOrderDisplay.obj
 0002:00000858       ??_C@_17PJOJPMPB@?$AAH?$AAK?$AAU@ 1001f858     RemoteOrderDisplay.obj
 0002:00000860       ??_C@_19PNBHMJPL@?$AAH?$AAK?$AAP?$AAD@ 1001f860     RemoteOrderDisplay.obj
 0002:0000086c       ??_C@_19GFFAIJHG@?$AAH?$AAK?$AAD?$AAD@ 1001f86c     RemoteOrderDisplay.obj
 0002:00000878       ??_C@_19OFICIBHH@?$AAH?$AAK?$AAC?$AAC@ 1001f878     RemoteOrderDisplay.obj
 0002:00000884       ??_C@_1CE@PACHPJFI@?$AAH?$AAK?$AAE?$AAY?$AA_?$AAC?$AAL?$AAA?$AAS?$AAS?$AAE?$AAS?$AA_?$AAR?$AAO@ 1001f884     RemoteOrderDisplay.obj
 0002:000008a8       ??_C@_1BM@CBGEBBBJ@?$AAD?$AAi?$AAr?$AAe?$AAc?$AAt?$AAI?$AAO?$AAE?$AAv?$AAe?$AAn?$AAt@ 1001f8a8     RemoteOrderDisplay.obj
 0002:000008c4       ??_C@_1CE@HLHNCBPM@?$AAH?$AAK?$AAE?$AAY?$AA_?$AAC?$AAU?$AAR?$AAR?$AAE?$AAN?$AAT?$AA_?$AAU?$AAS@ 1001f8c4     RemoteOrderDisplay.obj
 0002:000008e8       ??_C@_1CG@GFBEANJL@?$AAH?$AAK?$AAE?$AAY?$AA_?$AAL?$AAO?$AAC?$AAA?$AAL?$AA_?$AAM?$AAA?$AAC?$AAH@ 1001f8e8     RemoteOrderDisplay.obj
 0002:00000910       ??_C@_1BG@BGODANIO@?$AAH?$AAK?$AAE?$AAY?$AA_?$AAU?$AAS?$AAE?$AAR?$AAS@ 1001f910     RemoteOrderDisplay.obj
 0002:00000928       ??_C@_1CM@KHNNAOIC@?$AAH?$AAK?$AAE?$AAY?$AA_?$AAP?$AAE?$AAR?$AAF?$AAO?$AAR?$AAM?$AAA?$AAN?$AAC@ 1001f928     RemoteOrderDisplay.obj
 0002:00000954       ??_C@_1BM@HAGMMHIA@?$AAH?$AAK?$AAE?$AAY?$AA_?$AAD?$AAY?$AAN?$AA_?$AAD?$AAA?$AAT?$AAA@ 1001f954     RemoteOrderDisplay.obj
 0002:00000970       ??_C@_1CI@BBJOACGG@?$AAH?$AAK?$AAE?$AAY?$AA_?$AAC?$AAU?$AAR?$AAR?$AAE?$AAN?$AAT?$AA_?$AAC?$AAO@ 1001f970     RemoteOrderDisplay.obj
 0002:00000998       ??_C@_1BE@IEBMACEM@?$AAD?$AAa?$AAt?$AAa?$AAE?$AAv?$AAe?$AAn?$AAt@ 1001f998     RemoteOrderDisplay.obj
 0002:000009ac       ??_C@_1BC@ENICKDH@?$AAC?$AAo?$AAn?$AAt?$AAe?$AAn?$AAt?$AAs@ 1001f9ac     RemoteOrderDisplay.obj
 0002:000009c0       ??_C@_1EA@NHKLICFA@?$AAH?$AAK?$AAC?$AAU?$AA?$AN?$AA?6?$AA?$HL?$AA?7?$AAS?$AAo?$AAf?$AAt?$AAw?$AAa?$AAr@ 1001f9c0     RemoteOrderDisplay.obj
 0002:00000a00       ??_C@_1BE@LJOLIMEM@?$AA?$AN?$AA?6?$AA?7?$AA?$HN?$AA?$AN?$AA?6?$AA?$HN?$AA?$AN?$AA?6@ 1001fa00     RemoteOrderDisplay.obj
 0002:00000a14       __GUID_00000109_0000_0000_c000_000000000046 1001fa14     RemoteOrderDisplay.obj
 0002:00000a24       __GUID_7fd52380_4e07_101b_ae2d_08002b2ec713 1001fa24     RemoteOrderDisplay.obj
 0002:00000a34       ??_7?$CComObject@V?$CComEnum@UIEnumConnectionPoints@@$1?_GUID_b196b285_bab4_101a_b69c_00aa00341d07@@3U__s_GUID@@BPAUIConnectionPoint@@V?$_CopyInterface@UIConnectionPoint@@@ATL@@VCComSingleThreadModel@6@@ATL@@@ATL@@6B@ 1001fa34     RemoteOrderDisplay.obj
 0002:00000a54       ??_C@_1O@MNLDABAF@?$AAM?$AAo?$AAd?$AAu?$AAl?$AAe@ 1001fa54     RemoteOrderDisplay.obj
 0002:00000a64       ??_C@_1BG@JBACFMF@?$AAM?$AAo?$AAd?$AAu?$AAl?$AAe?$AA_?$AAR?$AAa?$AAw@ 1001fa64     RemoteOrderDisplay.obj
 0002:00000a7c       ??_C@_1BC@KAILKFFG@?$AAR?$AAE?$AAG?$AAI?$AAS?$AAT?$AAR?$AAY@ 1001fa7c     RemoteOrderDisplay.obj
 0002:00000a90       __GUID_0000010e_0000_0000_c000_000000000046 1001fa90     RemoteOrderDisplay.obj
 0002:00000aa0       __GUID_b196b288_bab4_101a_b69c_00aa00341d07 1001faa0     RemoteOrderDisplay.obj
 0002:00000ab0       __GUID_00000113_0000_0000_c000_000000000046 1001fab0     RemoteOrderDisplay.obj
 0002:00000ac0       __GUID_1c2056cc_5ef4_101b_8bc8_00aa003e3b29 1001fac0     RemoteOrderDisplay.obj
 0002:00000ad0       __GUID_00000112_0000_0000_c000_000000000046 1001fad0     RemoteOrderDisplay.obj
 0002:00000ae0       __GUID_3af24292_0c96_11ce_a0cf_00aa00600ab8 1001fae0     RemoteOrderDisplay.obj
 0002:00000af0       __GUID_00000127_0000_0000_c000_000000000046 1001faf0     RemoteOrderDisplay.obj
 0002:00000b00       __GUID_0000010d_0000_0000_c000_000000000046 1001fb00     RemoteOrderDisplay.obj
 0002:00000b10       __GUID_b196b284_bab4_101a_b69c_00aa00341d07 1001fb10     RemoteOrderDisplay.obj
 0002:00000b20       ??_7?$CComObjectCached@VCComClassFactory@ATL@@@ATL@@6B@ 1001fb20     RemoteOrderDisplay.obj
 0002:00000b38       ??_C@_1M@PPPPCDEP@?$AAA?$AAP?$AAP?$AAI?$AAD@ 1001fb38     RemoteOrderDisplay.obj
 0002:00000b44       ??_7?$CComContainedObject@VCOPOSRemoteOrderDisplay@@@ATL@@6B?$IDispatchImpl@UIOPOSRemoteOrderDisplay@@$1?IID_IOPOSRemoteOrderDisplay@@3U_GUID@@B$1?LIBID_OposRemoteOrderDisplay_CCO@@3U3@B$00$0A@VCComTypeInfoHolder@ATL@@@1@@ 1001fb44     RemoteOrderDisplay.obj
 0002:00000cf0       ??_7?$CComContainedObject@VCOPOSRemoteOrderDisplay@@@ATL@@6BCComControlBase@1@@ 1001fcf0     RemoteOrderDisplay.obj
 0002:00000d04       ??_7?$CComContainedObject@VCOPOSRemoteOrderDisplay@@@ATL@@6B?$CWindowImpl@VCOPOSRemoteOrderDisplay@@VCWindow@ATL@@V?$CWinTraits@$0FGAAAAAA@$0A@@3@@1@@ 1001fd04     RemoteOrderDisplay.obj
 0002:00000d14       ??_7?$CComContainedObject@VCOPOSRemoteOrderDisplay@@@ATL@@6B?$IPersistStreamInitImpl@VCOPOSRemoteOrderDisplay@@@1@@ 1001fd14     RemoteOrderDisplay.obj
 0002:00000d38       ??_7?$CComContainedObject@VCOPOSRemoteOrderDisplay@@@ATL@@6B?$IOleControlImpl@VCOPOSRemoteOrderDisplay@@@1@@ 1001fd38     RemoteOrderDisplay.obj
 0002:00000d54       ??_7?$CComContainedObject@VCOPOSRemoteOrderDisplay@@@ATL@@6B?$IOleObjectImpl@VCOPOSRemoteOrderDisplay@@@1@@ 1001fd54     RemoteOrderDisplay.obj
 0002:00000db4       ??_7?$CComContainedObject@VCOPOSRemoteOrderDisplay@@@ATL@@6B?$IOleInPlaceActiveObjectImpl@VCOPOSRemoteOrderDisplay@@@1@@ 1001fdb4     RemoteOrderDisplay.obj
 0002:00000ddc       ??_7?$CComContainedObject@VCOPOSRemoteOrderDisplay@@@ATL@@6B?$IViewObjectExImpl@VCOPOSRemoteOrderDisplay@@@1@@ 1001fddc     RemoteOrderDisplay.obj
 0002:00000e18       ??_7?$CComContainedObject@VCOPOSRemoteOrderDisplay@@@ATL@@6B?$IOleInPlaceObjectWindowlessImpl@VCOPOSRemoteOrderDisplay@@@1@@ 1001fe18     RemoteOrderDisplay.obj
 0002:00000e44       ??_7?$CComContainedObject@VCOPOSRemoteOrderDisplay@@@ATL@@6B?$IConnectionPointContainerImpl@VCOPOSRemoteOrderDisplay@@@1@@ 1001fe44     RemoteOrderDisplay.obj
 0002:00000e58       ??_7?$CComContainedObject@VCOPOSRemoteOrderDisplay@@@ATL@@6B?$IPersistStorageImpl@VCOPOSRemoteOrderDisplay@@@1@@ 1001fe58     RemoteOrderDisplay.obj
 0002:00000e80       ??_7?$CComContainedObject@VCOPOSRemoteOrderDisplay@@@ATL@@6B?$ISpecifyPropertyPagesImpl@VCOPOSRemoteOrderDisplay@@@1@@ 1001fe80     RemoteOrderDisplay.obj
 0002:00000e90       ??_7?$CComContainedObject@VCOPOSRemoteOrderDisplay@@@ATL@@6B?$IQuickActivateImpl@VCOPOSRemoteOrderDisplay@@@1@@ 1001fe90     RemoteOrderDisplay.obj
 0002:00000ea8       ??_7?$CComContainedObject@VCOPOSRemoteOrderDisplay@@@ATL@@6B?$IDataObjectImpl@VCOPOSRemoteOrderDisplay@@@1@@ 1001fea8     RemoteOrderDisplay.obj
 0002:00000ed8       ??_7?$CComContainedObject@VCOPOSRemoteOrderDisplay@@@ATL@@6B?$IProvideClassInfo2Impl@$1?CLSID_OPOSRemoteOrderDisplay@@3U_GUID@@B$1?DIID__IOPOSRemoteOrderDisplayEvents@@3U2@B$1?LIBID_OposRemoteOrderDisplay_CCO@@3U2@B$00$0A@VCComTypeInfoHolder@ATL@@@1@@ 1001fed8     RemoteOrderDisplay.obj
 0002:00000eec       ??_7?$CComContainedObject@VCOPOSRemoteOrderDisplay@@@ATL@@6B?$IObjectSafetyImpl@VCOPOSRemoteOrderDisplay@@$02@1@@ 1001feec     RemoteOrderDisplay.obj
 0002:00000f04       ??_7?$CComContainedObject@VCOPOSRemoteOrderDisplay@@@ATL@@6B?$IPropertyNotifySinkCP@VCOPOSRemoteOrderDisplay@@VCComDynamicUnkArray@ATL@@@1@@ 1001ff04     RemoteOrderDisplay.obj
 0002:00000f24       ??_7?$CComContainedObject@VCOPOSRemoteOrderDisplay@@@ATL@@6B?$CProxy_IOPOSEvents@VCOPOSRemoteOrderDisplay@@@@@ 1001ff24     RemoteOrderDisplay.obj
 0002:00000f44       ??_7?$CComAggObject@VCOPOSRemoteOrderDisplay@@@ATL@@6B@ 1001ff44     RemoteOrderDisplay.obj
 0002:00000f54       ??_7?$CComObject@VCOPOSRemoteOrderDisplay@@@ATL@@6B?$IDispatchImpl@UIOPOSRemoteOrderDisplay@@$1?IID_IOPOSRemoteOrderDisplay@@3U_GUID@@B$1?LIBID_OposRemoteOrderDisplay_CCO@@3U3@B$00$0A@VCComTypeInfoHolder@ATL@@@1@@ 1001ff54     RemoteOrderDisplay.obj
 0002:00001100       ??_7?$CComObject@VCOPOSRemoteOrderDisplay@@@ATL@@6BCComControlBase@1@@ 10020100     RemoteOrderDisplay.obj
 0002:00001114       ??_7?$CComObject@VCOPOSRemoteOrderDisplay@@@ATL@@6B?$CWindowImpl@VCOPOSRemoteOrderDisplay@@VCWindow@ATL@@V?$CWinTraits@$0FGAAAAAA@$0A@@3@@1@@ 10020114     RemoteOrderDisplay.obj
 0002:00001124       ??_7?$CComObject@VCOPOSRemoteOrderDisplay@@@ATL@@6B?$IPersistStreamInitImpl@VCOPOSRemoteOrderDisplay@@@1@@ 10020124     RemoteOrderDisplay.obj
 0002:00001148       ??_7?$CComObject@VCOPOSRemoteOrderDisplay@@@ATL@@6B?$IOleControlImpl@VCOPOSRemoteOrderDisplay@@@1@@ 10020148     RemoteOrderDisplay.obj
 0002:00001164       ??_7?$CComObject@VCOPOSRemoteOrderDisplay@@@ATL@@6B?$IOleObjectImpl@VCOPOSRemoteOrderDisplay@@@1@@ 10020164     RemoteOrderDisplay.obj
 0002:000011c4       ??_7?$CComObject@VCOPOSRemoteOrderDisplay@@@ATL@@6B?$IOleInPlaceActiveObjectImpl@VCOPOSRemoteOrderDisplay@@@1@@ 100201c4     RemoteOrderDisplay.obj
 0002:000011ec       ??_7?$CComObject@VCOPOSRemoteOrderDisplay@@@ATL@@6B?$IViewObjectExImpl@VCOPOSRemoteOrderDisplay@@@1@@ 100201ec     RemoteOrderDisplay.obj
 0002:00001228       ??_7?$CComObject@VCOPOSRemoteOrderDisplay@@@ATL@@6B?$IOleInPlaceObjectWindowlessImpl@VCOPOSRemoteOrderDisplay@@@1@@ 10020228     RemoteOrderDisplay.obj
 0002:00001254       ??_7?$CComObject@VCOPOSRemoteOrderDisplay@@@ATL@@6B?$IConnectionPointContainerImpl@VCOPOSRemoteOrderDisplay@@@1@@ 10020254     RemoteOrderDisplay.obj
 0002:00001268       ??_7?$CComObject@VCOPOSRemoteOrderDisplay@@@ATL@@6B?$IPersistStorageImpl@VCOPOSRemoteOrderDisplay@@@1@@ 10020268     RemoteOrderDisplay.obj
 0002:00001290       ??_7?$CComObject@VCOPOSRemoteOrderDisplay@@@ATL@@6B?$ISpecifyPropertyPagesImpl@VCOPOSRemoteOrderDisplay@@@1@@ 10020290     RemoteOrderDisplay.obj
 0002:000012a0       ??_7?$CComObject@VCOPOSRemoteOrderDisplay@@@ATL@@6B?$IQuickActivateImpl@VCOPOSRemoteOrderDisplay@@@1@@ 100202a0     RemoteOrderDisplay.obj
 0002:000012b8       ??_7?$CComObject@VCOPOSRemoteOrderDisplay@@@ATL@@6B?$IDataObjectImpl@VCOPOSRemoteOrderDisplay@@@1@@ 100202b8     RemoteOrderDisplay.obj
 0002:000012e8       ??_7?$CComObject@VCOPOSRemoteOrderDisplay@@@ATL@@6B?$IProvideClassInfo2Impl@$1?CLSID_OPOSRemoteOrderDisplay@@3U_GUID@@B$1?DIID__IOPOSRemoteOrderDisplayEvents@@3U2@B$1?LIBID_OposRemoteOrderDisplay_CCO@@3U2@B$00$0A@VCComTypeInfoHolder@ATL@@@1@@ 100202e8     RemoteOrderDisplay.obj
 0002:000012fc       ??_7?$CComObject@VCOPOSRemoteOrderDisplay@@@ATL@@6B?$IObjectSafetyImpl@VCOPOSRemoteOrderDisplay@@$02@1@@ 100202fc     RemoteOrderDisplay.obj
 0002:00001314       ??_7?$CComObject@VCOPOSRemoteOrderDisplay@@@ATL@@6B?$IPropertyNotifySinkCP@VCOPOSRemoteOrderDisplay@@VCComDynamicUnkArray@ATL@@@1@@ 10020314     RemoteOrderDisplay.obj
 0002:00001334       ??_7?$CComObject@VCOPOSRemoteOrderDisplay@@@ATL@@6B?$CProxy_IOPOSEvents@VCOPOSRemoteOrderDisplay@@@@@ 10020334     RemoteOrderDisplay.obj
 0002:00001354       ??_C@_1O@GBFKGNEO@?$AAA?$AAT?$AAL?$AA?3?$AA?$CF?$AAp@ 10020354     RemoteOrderDisplay.obj
 0002:00001364       ??_C@_1BA@PICGEGJB@?$AAD?$AAI?$AAS?$AAP?$AAL?$AAA?$AAY@ 10020364     RemoteOrderDisplay.obj
 0002:00001374       __GUID_9bfbbc02_eff1_101a_84ed_00aa00341d07 10020374     RemoteOrderDisplay.obj
 0002:00001384       ?_entries@?1??_GetEntries@?$CComEnum@UIEnumConnectionPoints@@$1?_GUID_b196b285_bab4_101a_b69c_00aa00341d07@@3U__s_GUID@@BPAUIConnectionPoint@@V?$_CopyInterface@UIConnectionPoint@@@ATL@@VCComSingleThreadModel@6@@ATL@@SGPBU_ATL_INTMAP_ENTRY@3@XZ@4QBU43@B 10020384     RemoteOrderDisplay.obj
 0002:0000139c       __GUID_00020412_0000_0000_c000_000000000046 1002039c     RemoteOrderDisplay.obj
 0002:000013ac       __GUID_00020401_0000_0000_c000_000000000046 100203ac     RemoteOrderDisplay.obj
 0002:000013bc       ??_7CComClassFactory@ATL@@6B@ 100203bc     RemoteOrderDisplay.obj
 0002:000013d4       ?_entries@?1??_GetEntries@CComClassFactory@ATL@@SGPBU_ATL_INTMAP_ENTRY@3@XZ@4QBU43@B 100203d4     RemoteOrderDisplay.obj
 0002:000013ec       __GUID_00000001_0000_0000_c000_000000000046 100203ec     RemoteOrderDisplay.obj
 0002:000013fc       __GUID_55980ba0_35aa_11cf_b671_00aa004cd6d8 100203fc     RemoteOrderDisplay.obj
 0002:0000140c       __GUID_b196b28b_bab4_101a_b69c_00aa00341d07 1002040c     RemoteOrderDisplay.obj
 0002:0000141c       ??_7?$CComObject@V?$CComEnum@UIEnumConnections@@$1?_GUID_b196b287_bab4_101a_b69c_00aa00341d07@@3U__s_GUID@@BUtagCONNECTDATA@@V?$_Copy@UtagCONNECTDATA@@@ATL@@VCComSingleThreadModel@6@@ATL@@@ATL@@6B@ 1002041c     RemoteOrderDisplay.obj
 0002:0000143c       ?_entries@?1??_GetEntries@?$CComEnum@UIEnumConnections@@$1?_GUID_b196b287_bab4_101a_b69c_00aa00341d07@@3U__s_GUID@@BUtagCONNECTDATA@@V?$_Copy@UtagCONNECTDATA@@@ATL@@VCComSingleThreadModel@6@@ATL@@SGPBU_ATL_INTMAP_ENTRY@3@XZ@4QBU43@B 1002043c     RemoteOrderDisplay.obj
 0002:00001454       ??_C@_1BK@BIGILECK@?$AAA?$AAd?$AAv?$AAa?$AAp?$AAi?$AA3?$AA2?$AA?4?$AAd?$AAl?$AAl@ 10020454     RemoteOrderDisplay.obj
 0002:00001470       ??_C@_0BI@MNCFCPFK@RegCreateKeyTransactedW@ 10020470     RemoteOrderDisplay.obj
 0002:00001488       __GUID_b196b287_bab4_101a_b69c_00aa00341d07 10020488     RemoteOrderDisplay.obj
 0002:00001498       __GUID_b196b285_bab4_101a_b69c_00aa00341d07 10020498     RemoteOrderDisplay.obj
 0002:000014a8       __GUID_a6bc3ac0_dbaa_11ce_9de3_00aa004bb851 100204a8     RemoteOrderDisplay.obj
 0002:000014b8       _IID_IOPOSRemoteOrderDisplay_1_5 100204b8     RemoteOrderDisplay.obj
 0002:000014c8       __GUID_0000010c_0000_0000_c000_000000000046 100204c8     RemoteOrderDisplay.obj
 0002:000014d8       __GUID_00000146_0000_0000_c000_000000000046 100204d8     RemoteOrderDisplay.obj
 0002:000014e8       _IID_IOPOSRemoteOrderDisplay_1_7 100204e8     RemoteOrderDisplay.obj
 0002:000014f8       _IID_IOPOSRemoteOrderDisplay_1_8 100204f8     RemoteOrderDisplay.obj
 0002:00001508       _IID_IOPOSRemoteOrderDisplay_1_9 10020508     RemoteOrderDisplay.obj
 0002:00001518       _IID_IOPOSRemoteOrderDisplay 10020518     RemoteOrderDisplay.obj
 0002:00001528       _LIBID_OposRemoteOrderDisplay_CCO 10020528     RemoteOrderDisplay.obj
 0002:00001538       _DIID__IOPOSRemoteOrderDisplayEvents 10020538     RemoteOrderDisplay.obj
 0002:00001548       _CLSID_OPOSRemoteOrderDisplay 10020548     RemoteOrderDisplay.obj
 0002:00001558       __GUID_00000114_0000_0000_c000_000000000046 10020558     RemoteOrderDisplay.obj
 0002:00001568       ??_7CComModule@ATL@@6B@    10020568     RemoteOrderDisplay.obj
 0002:00001590       ??_C@_0BG@EKFFMJIO@RegOpenKeyTransactedW@ 10020590     RemoteOrderDisplay.obj
 0002:000015a8       ??_C@_0BI@HAKLOOGP@RegDeleteKeyTransactedW@ 100205a8     RemoteOrderDisplay.obj
 0002:000015c0       ??_C@_19ILOCMLCJ@?$AA?4?$AAt?$AAl?$AAb@ 100205c0     RemoteOrderDisplay.obj
 0002:000015cc       __GUID_0002e012_0000_0000_c000_000000000046 100205cc     RemoteOrderDisplay.obj
 0002:000015dc       ??_C@_1O@FHBGLCIO@?$AAC?$AAL?$AAS?$AAI?$AAD?$AA?2@ 100205dc     RemoteOrderDisplay.obj
 0002:000015ec       ??_C@_1CK@IFBKBFAA@?$AA?2?$AAR?$AAe?$AAq?$AAu?$AAi?$AAr?$AAe?$AAd?$AA?5?$AAC?$AAa?$AAt?$AAe?$AAg@ 100205ec     RemoteOrderDisplay.obj
 0002:00001618       ??_C@_1DA@BIHALFED@?$AA?2?$AAI?$AAm?$AAp?$AAl?$AAe?$AAm?$AAe?$AAn?$AAt?$AAe?$AAd?$AA?5?$AAC?$AAa@ 10020618     RemoteOrderDisplay.obj
 0002:00001648       ??_C@_1BK@EDKOLFBJ@?$AAO?$AAL?$AAE?$AAA?$AAU?$AAT?$AA3?$AA2?$AA?4?$AAD?$AAL?$AAL@ 10020648     RemoteOrderDisplay.obj
 0002:00001664       ??_C@_0BJ@CNLFOMHB@UnRegisterTypeLibForUser@ 10020664     RemoteOrderDisplay.obj
 0002:00001680       ??_C@_0BH@LBOMMKPJ@RegisterTypeLibForUser@ 10020680     RemoteOrderDisplay.obj
 0002:00001698       ??_C@_0P@MMNMMLGK@COFreezeEvents@ 10020698     RemoteOrderDisplayImpl.obj
 0002:000016a8       ??_C@_0BC@OGCGGIMP@GetPropertyNumber@ 100206a8     RemoteOrderDisplayImpl.obj
 0002:000016bc       ??_C@_0BC@MDCNODNB@SetPropertyNumber@ 100206bc     RemoteOrderDisplayImpl.obj
 0002:000016d0       ??_C@_0BC@CFCCMIMD@GetPropertyString@ 100206d0     RemoteOrderDisplayImpl.obj
 0002:000016e4       ??_C@_0BC@CJEDNN@SetPropertyString@ 100206e4     RemoteOrderDisplayImpl.obj
 0002:000016f8       ??_C@_0M@LNPKKKDA@OpenService@ 100206f8     RemoteOrderDisplayImpl.obj
 0002:00001704       ??_C@_0M@PCMCHHMH@CheckHealth@ 10020704     RemoteOrderDisplayImpl.obj
 0002:00001710       ??_C@_0M@JGMIDNEK@ClaimDevice@ 10020710     RemoteOrderDisplayImpl.obj
 0002:0000171c       ??_C@_0L@BNEIFEJC@ClearInput@ 1002071c     RemoteOrderDisplayImpl.obj
 0002:00001728       ??_C@_0M@JMBCPNGJ@ClearOutput@ 10020728     RemoteOrderDisplayImpl.obj
 0002:00001734       ??_C@_0N@DDFIIBMP@CloseService@ 10020734     RemoteOrderDisplayImpl.obj
 0002:00001744       ??_C@_08EEIHICPC@DirectIO@ 10020744     RemoteOrderDisplayImpl.obj
 0002:00001750       ??_C@_0O@BCPMENMJ@ReleaseDevice@ 10020750     RemoteOrderDisplayImpl.obj
 0002:00001760       ??_C@_0L@DHIDJAOO@ClearVideo@ 10020760     RemoteOrderDisplayImpl.obj
 0002:0000176c       ??_C@_0BB@BKDKAILF@ClearVideoRegion@ 1002076c     RemoteOrderDisplayImpl.obj
 0002:00001780       ??_C@_0N@LGFBJCKG@ControlClock@ 10020780     RemoteOrderDisplayImpl.obj
 0002:00001790       ??_C@_0O@MJLDLDBI@ControlCursor@ 10020790     RemoteOrderDisplayImpl.obj
 0002:000017a0       ??_C@_0BA@NDBMIPMF@CopyVideoRegion@ 100207a0     RemoteOrderDisplayImpl.obj
 0002:000017b0       ??_C@_0M@PGFELKMF@DisplayData@ 100207b0     RemoteOrderDisplayImpl.obj
 0002:000017bc       ??_C@_07FBNHCCPG@DrawBox@  100207bc     RemoteOrderDisplayImpl.obj
 0002:000017c4       ??_C@_0BA@NNIFPCLA@FreeVideoRegion@ 100207c4     RemoteOrderDisplayImpl.obj
 0002:000017d4       ??_C@_0L@JMKOKABE@ResetVideo@ 100207d4     RemoteOrderDisplayImpl.obj
 0002:000017e0       ??_C@_0BD@DIHMIGHG@RestoreVideoRegion@ 100207e0     RemoteOrderDisplayImpl.obj
 0002:000017f4       ??_C@_0BA@ODHPNLJ@SaveVideoRegion@ 100207f4     RemoteOrderDisplayImpl.obj
 0002:00001804       ??_C@_0BD@JJMHLHNM@SelectCharacterSet@ 10020804     RemoteOrderDisplayImpl.obj
 0002:00001818       ??_C@_09PKKOCJGB@SetCursor@ 10020818     RemoteOrderDisplayImpl.obj
 0002:00001824       ??_C@_0BD@LPDOPKIP@TransactionDisplay@ 10020824     RemoteOrderDisplayImpl.obj
 0002:00001838       ??_C@_0BL@KJCKLOMA@UpdateVideoRegionAttribute@ 10020838     RemoteOrderDisplayImpl.obj
 0002:00001854       ??_C@_0L@EDLKLGFH@VideoSound@ 10020854     RemoteOrderDisplayImpl.obj
 0002:00001860       ??_C@_0BA@GFABKEEE@ResetStatistics@ 10020860     RemoteOrderDisplayImpl.obj
 0002:00001870       ??_C@_0BD@DPALHJGC@RetrieveStatistics@ 10020870     RemoteOrderDisplayImpl.obj
 0002:00001884       ??_C@_0BB@KOHIKNFC@UpdateStatistics@ 10020884     RemoteOrderDisplayImpl.obj
 0002:00001898       ??_C@_0BH@PBKBNMGB@CompareFirmwareVersion@ 10020898     RemoteOrderDisplayImpl.obj
 0002:000018b0       ??_C@_0P@FBPDPIPA@UpdateFirmware@ 100208b0     RemoteOrderDisplayImpl.obj
 0002:000018c0       ??_7?$CProxy_IOPOSEvents@VCOPOSRemoteOrderDisplay@@@@6B@ 100208c0     RemoteOrderDisplayImpl.obj
 0002:000018e0       ??_C@_1BA@IFHENID@?$AA?$FL?$AAE?$AAr?$AAr?$AAo?$AAr?$AA?$FN@ 100208e0     RemoteOrderDisplayImpl.obj
 0002:000018f0       ??_C@_0DF@MMEIEIAP@SOFTWARE?2OLEforRetail?2ServiceOP@ 100208f0     RemoteOrderDisplayImpl.obj
 0002:00001928       ??_C@_1M@IAIJHCCH@?$AAC?$AAl?$AAo?$AAs?$AAe@ 10020928     RemoteOrderDisplayImpl.obj
 0002:00001934       ??_C@_1M@PCPKGJAH@?$AAC?$AAl?$AAa?$AAi?$AAm@ 10020934     RemoteOrderDisplayImpl.obj
 0002:00001940       ??_C@_1BA@NDFKIOCP@?$AAR?$AAe?$AAl?$AAe?$AAa?$AAs?$AAe@ 10020940     RemoteOrderDisplayImpl.obj
 0002:00001950       ??_C@_0BD@EAJOFGE@RemoteOrderDisplay@ 10020950     RemoteOrderDisplayImpl.obj
 0002:00001964       ??_C@_1BM@IJMNMBPK@?$AAG?$AAe?$AAt?$AAO?$AAp?$AAe?$AAn?$AAR?$AAe?$AAs?$AAu?$AAl?$AAt@ 10020964     RemoteOrderDisplayImpl.obj
 0002:00001980       _GUID_NULL                 10020980     uuid:cguid_i.obj
 0002:00001990       _CLSID_StdGlobalInterfaceTable 10020990     uuid:cguid_i.obj
 0002:000019a0       _IID_IDispatch             100209a0     uuid:oaidl_i.obj
 0002:000019b0       _IID_IPropertyNotifySink   100209b0     uuid:ocidl_i.obj
 0002:000019c0       _CLSID_StdComponentCategoriesMgr 100209c0     uuid:ieguids.obj
 0002:000019d0       _IID_IUnknown              100209d0     uuid:unknwn_i.obj
 0002:000019e0       ??_C@_1EC@JIJBPKFM@?$AAa?$AAp?$AAi?$AA?9?$AAm?$AAs?$AA?9?$AAw?$AAi?$AAn?$AA?9?$AAc?$AAo?$AAr?$AAe@ 100209e0     LIBCMT:thread_safe_statics.obj
 0002:00001a24       ??_C@_1BK@MGMFAEKH@?$AAk?$AAe?$AAr?$AAn?$AAe?$AAl?$AA3?$AA2?$AA?4?$AAd?$AAl?$AAl@ 10020a24     LIBCMT:thread_safe_statics.obj
 0002:00001a40       ??_C@_0BM@HLJJNPAH@InitializeConditionVariable@ 10020a40     LIBCMT:thread_safe_statics.obj
 0002:00001a5c       ??_C@_0BJ@JEBJOJFJ@SleepConditionVariableCS@ 10020a5c     LIBCMT:thread_safe_statics.obj
 0002:00001a78       ??_C@_0BJ@PGPPEPCC@WakeAllConditionVariable@ 10020a78     LIBCMT:thread_safe_statics.obj
 0002:00001a91       ?nothrow@std@@3Unothrow_t@1@B 10020a91     LIBCMT:std_nothrow.obj
 0002:00001a9c       __pRawDllMain              10020a9c     LIBCMT:dll_dllmain.obj
 0002:00001a9c       __pDefaultRawDllMain       10020a9c     LIBCMT:dll_dllmain.obj
 0002:00001aa4       ??_7exception@std@@6B@     10020aa4     LIBCMT:throw_bad_alloc.obj
 0002:00001aac       ??_C@_0BC@EOODALEL@Unknown?5exception@ 10020aac     LIBCMT:throw_bad_alloc.obj
 0002:00001ac4       ??_7bad_alloc@std@@6B@     10020ac4     LIBCMT:throw_bad_alloc.obj
 0002:00001acc       ??_C@_0P@GHFPNOJB@bad?5allocation@ 10020acc     LIBCMT:throw_bad_alloc.obj
 0002:00001ae0       ??_7bad_array_new_length@std@@6B@ 10020ae0     LIBCMT:throw_bad_alloc.obj
 0002:00001ae8       ??_C@_0BF@KINCDENJ@bad?5array?5new?5length@ 10020ae8     LIBCMT:throw_bad_alloc.obj
 0002:00001b04       ??_7type_info@@6B@         10020b04     LIBCMT:std_type_info_static.obj
 0002:00001b08       _GUID_ATLVer110            10020b08     atls:atlbase.obj
 0002:00001b18       ??_C@_1IC@ONKHOIDK@?$AAE?$AAR?$AAR?$AAO?$AAR?$AA?5?$AA?3?$AA?5?$AAU?$AAn?$AAa?$AAb?$AAl?$AAe?$AA?5@ 10020b18     atls:atlbase.obj
 0002:00001b9c       ??_C@_0N@FJEPLCIH@atlthunk?4dll@ 10020b9c     atls:atlthunk.obj
 0002:00001bac       ??_C@_0BG@GAKFHCBM@AtlThunk_AllocateData@ 10020bac     atls:atlthunk.obj
 0002:00001bc4       ??_C@_0BC@JKONFIAH@AtlThunk_InitData@ 10020bc4     atls:atlthunk.obj
 0002:00001bd8       ??_C@_0BE@IAOEELAK@AtlThunk_DataToCode@ 10020bd8     atls:atlthunk.obj
 0002:00001bec       ??_C@_0BC@GBGKAIPI@AtlThunk_FreeData@ 10020bec     atls:atlthunk.obj
 0002:00001c2c       ??_C@_1DM@KHCHBNEB@?$AAa?$AAp?$AAi?$AA?9?$AAm?$AAs?$AA?9?$AAw?$AAi?$AAn?$AA?9?$AAc?$AAo?$AAr?$AAe@ 10020c2c     libvcruntime:winapi_downlevel.obj
 0002:00001c68       ??_C@_1DK@LPPGFMPP@?$AAa?$AAp?$AAi?$AA?9?$AAm?$AAs?$AA?9?$AAw?$AAi?$AAn?$AA?9?$AAc?$AAo?$AAr?$AAe@ 10020c68     libvcruntime:winapi_downlevel.obj
 0002:00001ca4       ??_C@_1BC@GDMECMAK@?$AAk?$AAe?$AAr?$AAn?$AAe?$AAl?$AA3?$AA2@ 10020ca4     libvcruntime:winapi_downlevel.obj
 0002:00001cb8       ??_C@_1BA@PFFKHIOG@?$AAa?$AAp?$AAi?$AA?9?$AAm?$AAs?$AA?9@ 10020cb8     libvcruntime:winapi_downlevel.obj
 0002:00001cc8       ??_C@_1BA@IAIFMGEF@?$AAe?$AAx?$AAt?$AA?9?$AAm?$AAs?$AA?9@ 10020cc8     libvcruntime:winapi_downlevel.obj
 0002:00001ce0       ??_C@_08KNHFBNJ@FlsAlloc@  10020ce0     libvcruntime:winapi_downlevel.obj
 0002:00001cf4       ??_C@_07PEJMOBNF@FlsFree@  10020cf4     libvcruntime:winapi_downlevel.obj
 0002:00001d04       ??_C@_0M@GDNOONDI@FlsGetValue@ 10020d04     libvcruntime:winapi_downlevel.obj
 0002:00001d18       ??_C@_0M@JCPCPOEF@FlsSetValue@ 10020d18     libvcruntime:winapi_downlevel.obj
 0002:00001d2c       ??_C@_0BM@HCFOFFN@InitializeCriticalSectionEx@ 10020d2c     libvcruntime:winapi_downlevel.obj
 0002:00001d4c       ??_7bad_exception@std@@6B@ 10020d4c     libvcruntime:frame.obj
 0002:00001d54       ??_C@_0O@DPKOEFFH@bad?5exception@ 10020d54     libvcruntime:frame.obj
 0002:00001f04       ??_C@_08EHJDFFNH@__based?$CI@ 10020f04     libvcruntime:undname.obj
 0002:00001f10       ??_C@_07KOLFKCDI@__cdecl@  10020f10     libvcruntime:undname.obj
 0002:00001f18       ??_C@_08GHMPAG@__pascal@   10020f18     libvcruntime:undname.obj
 0002:00001f24       ??_C@_09IFJBGAPI@__stdcall@ 10020f24     libvcruntime:undname.obj
 0002:00001f30       ??_C@_0L@NPHFGOKO@__thiscall@ 10020f30     libvcruntime:undname.obj
 0002:00001f3c       ??_C@_0L@JMKHOMEK@__fastcall@ 10020f3c     libvcruntime:undname.obj
 0002:00001f48       ??_C@_0N@BCKKPABJ@__vectorcall@ 10020f48     libvcruntime:undname.obj
 0002:00001f58       ??_C@_09HIJEGCPM@__clrcall@ 10020f58     libvcruntime:undname.obj
 0002:00001f64       ??_C@_06GHPCKEAG@__eabi@   10020f64     libvcruntime:undname.obj
 0002:00001f6c       ??_C@_09IOPIDJLG@__swift_1@ 10020f6c     libvcruntime:undname.obj
 0002:00001f78       ??_C@_09KFNFGKHF@__swift_2@ 10020f78     libvcruntime:undname.obj
 0002:00001f84       ??_C@_07JOMMBBKO@__ptr64@  10020f84     libvcruntime:undname.obj
 0002:00001f8c       ??_C@_0L@PILCLIHE@__restrict@ 10020f8c     libvcruntime:undname.obj
 0002:00001f98       ??_C@_0M@GFIIJFMG@__unaligned@ 10020f98     libvcruntime:undname.obj
 0002:00001fa4       ??_C@_09DHDLOLLB@restrict?$CI@ 10020fa4     libvcruntime:undname.obj
 0002:00001fae       ??_C@_00CNPNBAHC@@         10020fae     libvcruntime:undname.obj
 0002:00001fb0       ??_C@_04NIHEBCM@?5new@     10020fb0     libvcruntime:undname.obj
 0002:00001fb8       ??_C@_07FPCDHGMM@?5delete@ 10020fb8     libvcruntime:undname.obj
 0002:00001fc0       ??_C@_01NEMOKFLO@?$DN@     10020fc0     libvcruntime:undname.obj
 0002:00001fc4       ??_C@_02GPIOPFAK@?$DO?$DO@ 10020fc4     libvcruntime:undname.obj
 0002:00001fc8       ??_C@_02FODMEDOG@?$DM?$DM@ 10020fc8     libvcruntime:undname.obj
 0002:00001fcc       ??_C@_01DCLJPIOD@?$CB@     10020fcc     libvcruntime:undname.obj
 0002:00001fd0       ??_C@_02EGOFBIJA@?$DN?$DN@ 10020fd0     libvcruntime:undname.obj
 0002:00001fd4       ??_C@_02FDNJECIE@?$CB?$DN@ 10020fd4     libvcruntime:undname.obj
 0002:00001fd8       ??_C@_02GPECMEKF@?$FL?$FN@ 10020fd8     libvcruntime:undname.obj
 0002:00001fdc       ??_C@_08LHJFAFGD@operator@ 10020fdc     libvcruntime:undname.obj
 0002:00001fe8       ??_C@_02HBOOOICD@?9?$DO@   10020fe8     libvcruntime:undname.obj
 0002:00001fec       ??_C@_01NBENCBCI@?$CK@     10020fec     libvcruntime:undname.obj
 0002:00001ff0       ??_C@_02ECNGHCIF@?$CL?$CL@ 10020ff0     libvcruntime:undname.obj
 0002:00001ff4       ??_C@_02BAABKJLB@?9?9@     10020ff4     libvcruntime:undname.obj
 0002:00001ff8       ??_C@_01JOAMLHOP@?9@       10020ff8     libvcruntime:undname.obj
 0002:00001ffc       ??_C@_01MIFGBAGJ@?$CL@     10020ffc     libvcruntime:undname.obj
 0002:00002000       ??_C@_01HNPIGOCE@?$CG@     10021000     libvcruntime:undname.obj
 0002:00002004       ??_C@_03MNHNFDLC@?9?$DO?$CK@ 10021004     libvcruntime:undname.obj
 0002:00002008       ??_C@_01KMDKNFGN@?1@       10021008     libvcruntime:undname.obj
 0002:0000200c       ??_C@_01FGNFDNOH@?$CF@     1002100c     libvcruntime:undname.obj
 0002:00002010       ??_C@_01MNNFJEPP@?$DM@     10021010     libvcruntime:undname.obj
 0002:00002014       ??_C@_02EHCHHCKH@?$DM?$DN@ 10021014     libvcruntime:undname.obj
 0002:00002018       ??_C@_01PPODPGHN@?$DO@     10021018     libvcruntime:undname.obj
 0002:0000201c       ??_C@_02EEKDKGMJ@?$DO?$DN@ 1002101c     libvcruntime:undname.obj
 0002:00002020       ??_C@_01IHBHIGKO@?0@       10021020     libvcruntime:undname.obj
 0002:00002024       ??_C@_02HCKGKOFO@?$CI?$CJ@ 10021024     libvcruntime:undname.obj
 0002:00002028       ??_C@_01PJKLJHI@?$HO@      10021028     libvcruntime:undname.obj
 0002:0000202c       ??_C@_01JKBOJNNK@?$FO@     1002102c     libvcruntime:undname.obj
 0002:00002030       ??_C@_01DNKMNLPK@?$HM@     10021030     libvcruntime:undname.obj
 0002:00002034       ??_C@_02PPKAJPJL@?$CG?$CG@ 10021034     libvcruntime:undname.obj
 0002:00002038       ??_C@_02NONPIBCD@?$HM?$HM@ 10021038     libvcruntime:undname.obj
 0002:0000203c       ??_C@_02FPIMKNGF@?$CK?$DN@ 1002103c     libvcruntime:undname.obj
 0002:00002040       ??_C@_02FOEOMHFC@?$CL?$DN@ 10021040     libvcruntime:undname.obj
 0002:00002044       ??_C@_02FKMDLLOA@?9?$DN@   10021044     libvcruntime:undname.obj
 0002:00002048       ??_C@_02FJEHGPIO@?1?$DN@   10021048     libvcruntime:undname.obj
 0002:0000204c       ??_C@_02FENAOKFI@?$CF?$DN@ 1002104c     libvcruntime:undname.obj
 0002:00002050       ??_C@_03IKFCCPFF@?$DO?$DO?$DN@ 10021050     libvcruntime:undname.obj
 0002:00002054       ??_C@_03CDNPDDLA@?$DM?$DM?$DN@ 10021054     libvcruntime:undname.obj
 0002:00002058       ??_C@_02FGJGFEAB@?$CG?$DN@ 10021058     libvcruntime:undname.obj
 0002:0000205c       ??_C@_02DHLNPPGH@?$HM?$DN@ 1002105c     libvcruntime:undname.obj
 0002:00002060       ??_C@_02MHEGNOJ@?$FO?$DN@  10021060     libvcruntime:undname.obj
 0002:00002064       ??_C@_09IFPLHPGF@?$GAvftable?8@ 10021064     libvcruntime:undname.obj
 0002:00002070       ??_C@_09BLBHBJP@?$GAvbtable?8@ 10021070     libvcruntime:undname.obj
 0002:0000207c       ??_C@_07FEEIOKP@?$GAvcall?8@ 1002107c     libvcruntime:undname.obj
 0002:00002084       ??_C@_08LLFFHHDJ@?$GAtypeof?8@ 10021084     libvcruntime:undname.obj
 0002:00002090       ??_C@_0BF@KDPPACIK@?$GAlocal?5static?5guard?8@ 10021090     libvcruntime:undname.obj
 0002:000020a8       ??_C@_08OBABFOLI@?$GAstring?8@ 100210a8     libvcruntime:undname.obj
 0002:000020b4       ??_C@_0BD@JDLKDPAB@?$GAvbase?5destructor?8@ 100210b4     libvcruntime:undname.obj
 0002:000020c8       ??_C@_0BN@DEGPLNFK@?$GAvector?5deleting?5destructor?8@ 100210c8     libvcruntime:undname.obj
 0002:000020e8       ??_C@_0BO@OBMKPJIG@?$GAdefault?5constructor?5closure?8@ 100210e8     libvcruntime:undname.obj
 0002:00002108       ??_C@_0BN@IMDCHIKM@?$GAscalar?5deleting?5destructor?8@ 10021108     libvcruntime:undname.obj
 0002:00002128       ??_C@_0BO@PFGOCPJJ@?$GAvector?5constructor?5iterator?8@ 10021128     libvcruntime:undname.obj
 0002:00002148       ??_C@_0BN@LFPFMEDL@?$GAvector?5destructor?5iterator?8@ 10021148     libvcruntime:undname.obj
 0002:00002168       ??_C@_0CE@IKBNEHA@?$GAvector?5vbase?5constructor?5itera@ 10021168     libvcruntime:undname.obj
 0002:0000218c       ??_C@_0BL@NILFHHPC@?$GAvirtual?5displacement?5map?8@ 1002118c     libvcruntime:undname.obj
 0002:000021a8       ??_C@_0CB@JONCMFFK@?$GAeh?5vector?5constructor?5iterator@ 100211a8     libvcruntime:undname.obj
 0002:000021cc       ??_C@_0CA@GCEOPDGL@?$GAeh?5vector?5destructor?5iterator?8@ 100211cc     libvcruntime:undname.obj
 0002:000021ec       ??_C@_0CH@OOJPLCPH@?$GAeh?5vector?5vbase?5constructor?5it@ 100211ec     libvcruntime:undname.obj
 0002:00002214       ??_C@_0BL@LLKPOHJI@?$GAcopy?5constructor?5closure?8@ 10021214     libvcruntime:undname.obj
 0002:00002230       ??_C@_0BA@KBCDOMBN@?$GAudt?5returning?8@ 10021230     libvcruntime:undname.obj
 0002:00002240       ??_C@_03KLGMFNMG@?$GAEH@   10021240     libvcruntime:undname.obj
 0002:00002244       ??_C@_05KHLCHHI@?$GARTTI@  10021244     libvcruntime:undname.obj
 0002:0000224c       ??_C@_0BA@KKLDJDLB@?$GAlocal?5vftable?8@ 1002124c     libvcruntime:undname.obj
 0002:0000225c       ??_C@_0CE@IIHCMGGL@?$GAlocal?5vftable?5constructor?5clos@ 1002125c     libvcruntime:undname.obj
 0002:00002280       ??_C@_06FHBGPFGH@?5new?$FL?$FN@ 10021280     libvcruntime:undname.obj
 0002:00002288       ??_C@_09LBNFPBCA@?5delete?$FL?$FN@ 10021288     libvcruntime:undname.obj
 0002:00002294       ??_C@_0P@HJKNJFNN@?$GAomni?5callsig?8@ 10021294     libvcruntime:undname.obj
 0002:000022a4       ??_C@_0BL@CNOONJFP@?$GAplacement?5delete?5closure?8@ 100212a4     libvcruntime:undname.obj
 0002:000022c0       ??_C@_0BN@CKNJLHMB@?$GAplacement?5delete?$FL?$FN?5closure?8@ 100212c0     libvcruntime:undname.obj
 0002:000022e0       ??_C@_0CG@CFDHKGGD@?$GAmanaged?5vector?5constructor?5ite@ 100212e0     libvcruntime:undname.obj
 0002:00002308       ??_C@_0CF@IMGKMJNO@?$GAmanaged?5vector?5destructor?5iter@ 10021308     libvcruntime:undname.obj
 0002:00002330       ??_C@_0CG@HLDDJMAG@?$GAeh?5vector?5copy?5constructor?5ite@ 10021330     libvcruntime:undname.obj
 0002:00002358       ??_C@_0CM@FCBBDIGB@?$GAeh?5vector?5vbase?5copy?5construct@ 10021358     libvcruntime:undname.obj
 0002:00002384       ??_C@_0BL@CLIPGLGB@?$GAdynamic?5initializer?5for?5?8@ 10021384     libvcruntime:undname.obj
 0002:000023a0       ??_C@_0CB@PDBIFEP@?$GAdynamic?5atexit?5destructor?5for?5@ 100213a0     libvcruntime:undname.obj
 0002:000023c4       ??_C@_0CD@CGAJBKEJ@?$GAvector?5copy?5constructor?5iterat@ 100213c4     libvcruntime:undname.obj
 0002:000023e8       ??_C@_0CJ@GJELGAMM@?$GAvector?5vbase?5copy?5constructor?5@ 100213e8     libvcruntime:undname.obj
 0002:00002414       ??_C@_0CL@FGIJHLCE@?$GAmanaged?5vector?5copy?5constructo@ 10021414     libvcruntime:undname.obj
 0002:00002440       ??_C@_0BM@PMGGMLDN@?$GAlocal?5static?5thread?5guard?8@ 10021440     libvcruntime:undname.obj
 0002:0000245c       ??_C@_0N@BDNMDMOL@operator?5?$CC?$CC?5@ 1002145c     libvcruntime:undname.obj
 0002:0000246c       ??_C@_0BC@GGEBGALA@operator?5co_await@ 1002146c     libvcruntime:undname.obj
 0002:00002480       ??_C@_0BC@DAFEJGAK@?5Type?5Descriptor?8@ 10021480     libvcruntime:undname.obj
 0002:00002494       ??_C@_0BM@LDKODKLH@?5Base?5Class?5Descriptor?5at?5?$CI@ 10021494     libvcruntime:undname.obj
 0002:000024b0       ??_C@_0BD@LGICGFMM@?5Base?5Class?5Array?8@ 100214b0     libvcruntime:undname.obj
 0002:000024c4       ??_C@_0BN@MECKDCOJ@?5Class?5Hierarchy?5Descriptor?8@ 100214c4     libvcruntime:undname.obj
 0002:000024e4       ??_C@_0BK@CFCOFLF@?5Complete?5Object?5Locator?8@ 100214e4     libvcruntime:undname.obj
 0002:00002500       __pDestructExceptionObject 10021500     libvcruntime:ehhelpers.obj
 0002:00002668       _format_validation_lookup_table 10021668     libucrt:output.obj
 0002:000026c4       ??_C@_1O@CEDCILHN@?$AA?$CI?$AAn?$AAu?$AAl?$AAl?$AA?$CJ?$AA?$AA@ 100216c4     libucrt:output.obj
 0002:000026d4       ??_C@_06OJHGLDPL@?$CInull?$CJ?$AA@ 100216d4     libucrt:output.obj
 0002:000026e0       ___acrt_exception_action_table 100216e0     libucrt:exception_filter.obj
 0002:00002770       ___acrt_signal_action_table_count 10021770     libucrt:exception_filter.obj
 0002:00002774       ___acrt_signal_action_first_fpe_index 10021774     libucrt:exception_filter.obj
 0002:00002778       ___acrt_signal_action_fpe_count 10021778     libucrt:exception_filter.obj
 0002:0000277c       ??_C@_1BI@BGOHAHKC@?$AAm?$AAs?$AAc?$AAo?$AAr?$AAe?$AAe?$AA?4?$AAd?$AAl?$AAl?$AA?$AA@ 1002177c     libucrt:exit.obj
 0002:00002794       ??_C@_0P@MIGLKIOC@CorExitProcess?$AA@ 10021794     libucrt:exit.obj
 0002:00002870       ??_C@_1EA@JGEFHKEI@?$AAa?$AAp?$AAi?$AA?9?$AAm?$AAs?$AA?9?$AAw?$AAi?$AAn?$AA?9?$AAc?$AAo?$AAr?$AAe?$AA?9?$AAd?$AAa?$AAt?$AAe?$AAt?$AAi?$AAm?$AAe?$AA?9?$AAl?$AA1?$AA?9?$AA1?$AA?9?$AA1?$AA?$AA@ 10021870     libucrt:winapi_thunks.obj
 0002:000028b0       ??_C@_1DM@KHCHBNEB@?$AAa?$AAp?$AAi?$AA?9?$AAm?$AAs?$AA?9?$AAw?$AAi?$AAn?$AA?9?$AAc?$AAo?$AAr?$AAe?$AA?9?$AAf?$AAi?$AAb?$AAe?$AAr?$AAs?$AA?9?$AAl?$AA1?$AA?9?$AA1?$AA?9?$AA1?$AA?$AA@ 100218b0     libucrt:winapi_thunks.obj
 0002:000028f0       ??_C@_1EI@MPIAOHOC@?$AAa?$AAp?$AAi?$AA?9?$AAm?$AAs?$AA?9?$AAw?$AAi?$AAn?$AA?9?$AAc?$AAo?$AAr?$AAe?$AA?9?$AAl?$AAo?$AAc?$AAa?$AAl?$AAi?$AAz?$AAa?$AAt?$AAi?$AAo?$AAn?$AA?9?$AAl?$AA1?$AA?9@ 100218f0     libucrt:winapi_thunks.obj
 0002:00002938       ??_C@_1FK@FPHCKFIE@?$AAa?$AAp?$AAi?$AA?9?$AAm?$AAs?$AA?9?$AAw?$AAi?$AAn?$AA?9?$AAc?$AAo?$AAr?$AAe?$AA?9?$AAl?$AAo?$AAc?$AAa?$AAl?$AAi?$AAz?$AAa?$AAt?$AAi?$AAo?$AAn?$AA?9?$AAo?$AAb?$AAs@ 10021938     libucrt:winapi_thunks.obj
 0002:00002998       ??_C@_1EM@DILCGIIO@?$AAa?$AAp?$AAi?$AA?9?$AAm?$AAs?$AA?9?$AAw?$AAi?$AAn?$AA?9?$AAc?$AAo?$AAr?$AAe?$AA?9?$AAp?$AAr?$AAo?$AAc?$AAe?$AAs?$AAs?$AAt?$AAh?$AAr?$AAe?$AAa?$AAd?$AAs?$AA?9?$AAl@ 10021998     libucrt:winapi_thunks.obj
 0002:000029e4       ??_C@_1DM@LNCGDDPN@?$AAa?$AAp?$AAi?$AA?9?$AAm?$AAs?$AA?9?$AAw?$AAi?$AAn?$AA?9?$AAc?$AAo?$AAr?$AAe?$AA?9?$AAs?$AAt?$AAr?$AAi?$AAn?$AAg?$AA?9?$AAl?$AA1?$AA?9?$AA1?$AA?9?$AA0?$AA?$AA@ 100219e4     libucrt:winapi_thunks.obj
 0002:00002a20       ??_C@_1DK@LPPGFMPP@?$AAa?$AAp?$AAi?$AA?9?$AAm?$AAs?$AA?9?$AAw?$AAi?$AAn?$AA?9?$AAc?$AAo?$AAr?$AAe?$AA?9?$AAs?$AAy?$AAn?$AAc?$AAh?$AA?9?$AAl?$AA1?$AA?9?$AA2?$AA?9?$AA0?$AA?$AA@ 10021a20     libucrt:winapi_thunks.obj
 0002:00002a5c       ??_C@_1DO@FPAPJEMD@?$AAa?$AAp?$AAi?$AA?9?$AAm?$AAs?$AA?9?$AAw?$AAi?$AAn?$AA?9?$AAc?$AAo?$AAr?$AAe?$AA?9?$AAs?$AAy?$AAs?$AAi?$AAn?$AAf?$AAo?$AA?9?$AAl?$AA1?$AA?9?$AA2?$AA?9?$AA1?$AA?$AA@ 10021a5c     libucrt:winapi_thunks.obj
 0002:00002a9c       ??_C@_1DK@NDHNAHIO@?$AAa?$AAp?$AAi?$AA?9?$AAm?$AAs?$AA?9?$AAw?$AAi?$AAn?$AA?9?$AAc?$AAo?$AAr?$AAe?$AA?9?$AAw?$AAi?$AAn?$AAr?$AAt?$AA?9?$AAl?$AA1?$AA?9?$AA1?$AA?9?$AA0?$AA?$AA@ 10021a9c     libucrt:winapi_thunks.obj
 0002:00002ad8       ??_C@_1DM@KGHDGBCM@?$AAa?$AAp?$AAi?$AA?9?$AAm?$AAs?$AA?9?$AAw?$AAi?$AAn?$AA?9?$AAc?$AAo?$AAr?$AAe?$AA?9?$AAx?$AAs?$AAt?$AAa?$AAt?$AAe?$AA?9?$AAl?$AA2?$AA?9?$AA1?$AA?9?$AA0?$AA?$AA@ 10021ad8     libucrt:winapi_thunks.obj
 0002:00002b18       ??_C@_1EO@IJIOEFOH@?$AAa?$AAp?$AAi?$AA?9?$AAm?$AAs?$AA?9?$AAw?$AAi?$AAn?$AA?9?$AAr?$AAt?$AAc?$AAo?$AAr?$AAe?$AA?9?$AAn?$AAt?$AAu?$AAs?$AAe?$AAr?$AA?9?$AAw?$AAi?$AAn?$AAd?$AAo?$AAw?$AA?9@ 10021b18     libucrt:winapi_thunks.obj
 0002:00002b68       ??_C@_1FG@HHGEKANL@?$AAa?$AAp?$AAi?$AA?9?$AAm?$AAs?$AA?9?$AAw?$AAi?$AAn?$AA?9?$AAs?$AAe?$AAc?$AAu?$AAr?$AAi?$AAt?$AAy?$AA?9?$AAs?$AAy?$AAs?$AAt?$AAe?$AAm?$AAf?$AAu?$AAn?$AAc?$AAt?$AAi@ 10021b68     libucrt:winapi_thunks.obj
 0002:00002bc0       ??_C@_1EG@DBIOJECG@?$AAe?$AAx?$AAt?$AA?9?$AAm?$AAs?$AA?9?$AAw?$AAi?$AAn?$AA?9?$AAn?$AAt?$AAu?$AAs?$AAe?$AAr?$AA?9?$AAd?$AAi?$AAa?$AAl?$AAo?$AAg?$AAb?$AAo?$AAx?$AA?9?$AAl?$AA1?$AA?9?$AA1@ 10021bc0     libucrt:winapi_thunks.obj
 0002:00002c08       ??_C@_1EO@FIHMJCLF@?$AAe?$AAx?$AAt?$AA?9?$AAm?$AAs?$AA?9?$AAw?$AAi?$AAn?$AA?9?$AAn?$AAt?$AAu?$AAs?$AAe?$AAr?$AA?9?$AAw?$AAi?$AAn?$AAd?$AAo?$AAw?$AAs?$AAt?$AAa?$AAt?$AAi?$AAo?$AAn?$AA?9@ 10021c08     libucrt:winapi_thunks.obj
 0002:00002c58       ??_C@_1BC@DNHGCMLG@?$AAa?$AAd?$AAv?$AAa?$AAp?$AAi?$AA3?$AA2?$AA?$AA@ 10021c58     libucrt:winapi_thunks.obj
 0002:00002c6c       ??_C@_1BC@GDMECMAK@?$AAk?$AAe?$AAr?$AAn?$AAe?$AAl?$AA3?$AA2?$AA?$AA@ 10021c6c     libucrt:winapi_thunks.obj
 0002:00002c80       ??_C@_1M@OAIMIKLP@?$AAn?$AAt?$AAd?$AAl?$AAl?$AA?$AA@ 10021c80     libucrt:winapi_thunks.obj
 0002:00002c90       ??_C@_1EG@DPGNFKGC@?$AAa?$AAp?$AAi?$AA?9?$AAm?$AAs?$AA?9?$AAw?$AAi?$AAn?$AA?9?$AAa?$AAp?$AAp?$AAm?$AAo?$AAd?$AAe?$AAl?$AA?9?$AAr?$AAu?$AAn?$AAt?$AAi?$AAm?$AAe?$AA?9?$AAl?$AA1?$AA?9?$AA1@ 10021c90     libucrt:winapi_thunks.obj
 0002:00002cd8       ??_C@_1O@BCCLBEOE@?$AAu?$AAs?$AAe?$AAr?$AA3?$AA2?$AA?$AA@ 10021cd8     libucrt:winapi_thunks.obj
 0002:00002ce8       ??_C@_1BA@PFFKHIOG@?$AAa?$AAp?$AAi?$AA?9?$AAm?$AAs?$AA?9?$AA?$AA@ 10021ce8     libucrt:winapi_thunks.obj
 0002:00002cf8       ??_C@_1BA@IAIFMGEF@?$AAe?$AAx?$AAt?$AA?9?$AAm?$AAs?$AA?9?$AA?$AA@ 10021cf8     libucrt:winapi_thunks.obj
 0002:00002d10       ??_C@_08KNHFBNJ@FlsAlloc?$AA@ 10021d10     libucrt:winapi_thunks.obj
 0002:00002d24       ??_C@_07PEJMOBNF@FlsFree?$AA@ 10021d24     libucrt:winapi_thunks.obj
 0002:00002d34       ??_C@_0M@GDNOONDI@FlsGetValue?$AA@ 10021d34     libucrt:winapi_thunks.obj
 0002:00002d48       ??_C@_0M@JCPCPOEF@FlsSetValue?$AA@ 10021d48     libucrt:winapi_thunks.obj
 0002:00002d5c       ??_C@_0BM@HCFOFFN@InitializeCriticalSectionEx?$AA@ 10021d5c     libucrt:winapi_thunks.obj
 0002:00002d80       ??_C@_0O@KKBNKAPF@LCMapStringEx?$AA@ 10021d80     libucrt:winapi_thunks.obj
 0002:00002d98       ??_C@_0BB@HBDEELFH@LocaleNameToLCID?$AA@ 10021d98     libucrt:winapi_thunks.obj
 0002:00002db0       ??_C@_0CF@OJOFEIGO@AppPolicyGetProcessTerminationMe@ 10021db0     libucrt:winapi_thunks.obj
 0002:00002de0       ??_C@_0BI@BKLFFAPO@SetThreadStackGuarantee?$AA@ 10021de0     libucrt:winapi_thunks.obj
 0002:00002df8       ??_C@_03OEIAHPBN@INF?$AA@  10021df8     libucrt:cvt.obj
 0002:00002dfc       ??_C@_03OJHLLCGB@inf?$AA@  10021dfc     libucrt:cvt.obj
 0002:00002e00       ??_C@_03LKNCIKJB@NAN?$AA@  10021e00     libucrt:cvt.obj
 0002:00002e04       ??_C@_03LHCJEHON@nan?$AA@  10021e04     libucrt:cvt.obj
 0002:00002e08       ??_C@_09OFJJIMPC@NAN?$CISNAN?$CJ?$AA@ 10021e08     libucrt:cvt.obj
 0002:00002e14       ??_C@_09IPFBKMDL@nan?$CIsnan?$CJ?$AA@ 10021e14     libucrt:cvt.obj
 0002:00002e20       ??_C@_08IKHNHAJ@NAN?$CIIND?$CJ?$AA@ 10021e20     libucrt:cvt.obj
 0002:00002e2c       ??_C@_08OFCDMILK@nan?$CIind?$CJ?$AA@ 10021e2c     libucrt:cvt.obj
 0002:00002e38       ??_C@_05KLBDPFGC@e?$CL000?$AA@ 10021e38     libucrt:cvt.obj
 0002:00002e40       ??_C@_03KOEHGMDN@Sun?$AA@  10021e40     libucrt:nlsdata.obj
 0002:00002e44       ??_C@_03PDAGKDH@Mon?$AA@   10021e44     libucrt:nlsdata.obj
 0002:00002e48       ??_C@_03NAGEINEP@Tue?$AA@  10021e48     libucrt:nlsdata.obj
 0002:00002e4c       ??_C@_03MHOMLAJA@Wed?$AA@  10021e4c     libucrt:nlsdata.obj
 0002:00002e50       ??_C@_03IOFIKPDN@Thu?$AA@  10021e50     libucrt:nlsdata.obj
 0002:00002e54       ??_C@_03IDIOELNC@Fri?$AA@  10021e54     libucrt:nlsdata.obj
 0002:00002e58       ??_C@_03FEFJNEK@Sat?$AA@   10021e58     libucrt:nlsdata.obj
 0002:00002e5c       ??_C@_06OOPIFAJ@Sunday?$AA@ 10021e5c     libucrt:nlsdata.obj
 0002:00002e64       ??_C@_06JLEDEDGH@Monday?$AA@ 10021e64     libucrt:nlsdata.obj
 0002:00002e6c       ??_C@_07BAAGCFCM@Tuesday?$AA@ 10021e6c     libucrt:nlsdata.obj
 0002:00002e74       ??_C@_09DLIGFAKA@Wednesday?$AA@ 10021e74     libucrt:nlsdata.obj
 0002:00002e80       ??_C@_08HACCIKIA@Thursday?$AA@ 10021e80     libucrt:nlsdata.obj
 0002:00002e8c       ??_C@_06JECMNKMI@Friday?$AA@ 10021e8c     libucrt:nlsdata.obj
 0002:00002e94       ??_C@_08INBOOONO@Saturday?$AA@ 10021e94     libucrt:nlsdata.obj
 0002:00002ea0       ??_C@_03JIHJHPIE@Jan?$AA@  10021ea0     libucrt:nlsdata.obj
 0002:00002ea4       ??_C@_03HJBDCHOM@Feb?$AA@  10021ea4     libucrt:nlsdata.obj
 0002:00002ea8       ??_C@_03ODNJBKGA@Mar?$AA@  10021ea8     libucrt:nlsdata.obj
 0002:00002eac       ??_C@_03LEOLGMJP@Apr?$AA@  10021eac     libucrt:nlsdata.obj
 0002:00002eb0       ??_C@_03CNMDKL@May?$AA@    10021eb0     libucrt:nlsdata.obj
 0002:00002eb4       ??_C@_03IDFGHECI@Jun?$AA@  10021eb4     libucrt:nlsdata.obj
 0002:00002eb8       ??_C@_03LBGABGKK@Jul?$AA@  10021eb8     libucrt:nlsdata.obj
 0002:00002ebc       ??_C@_03IFJFEIGA@Aug?$AA@  10021ebc     libucrt:nlsdata.obj
 0002:00002ec0       ??_C@_03GGCAPAJC@Sep?$AA@  10021ec0     libucrt:nlsdata.obj
 0002:00002ec4       ??_C@_03BMAOKBAD@Oct?$AA@  10021ec4     libucrt:nlsdata.obj
 0002:00002ec8       ??_C@_03JPJOFNIA@Nov?$AA@  10021ec8     libucrt:nlsdata.obj
 0002:00002ecc       ??_C@_03MKABNOCG@Dec?$AA@  10021ecc     libucrt:nlsdata.obj
 0002:00002ed0       ??_C@_07CGJPFGJA@January?$AA@ 10021ed0     libucrt:nlsdata.obj
 0002:00002ed8       ??_C@_08GNJGEPFN@February?$AA@ 10021ed8     libucrt:nlsdata.obj
 0002:00002ee4       ??_C@_05HPCKOFNC@March?$AA@ 10021ee4     libucrt:nlsdata.obj
 0002:00002eec       ??_C@_05DMJDNLEJ@April?$AA@ 10021eec     libucrt:nlsdata.obj
 0002:00002ef4       ??_C@_04CNLMGBGM@June?$AA@ 10021ef4     libucrt:nlsdata.obj
 0002:00002efc       ??_C@_04MIEPOIFP@July?$AA@ 10021efc     libucrt:nlsdata.obj
 0002:00002f04       ??_C@_06LBBHFDDG@August?$AA@ 10021f04     libucrt:nlsdata.obj
 0002:00002f0c       ??_C@_09BHHEALKD@September?$AA@ 10021f0c     libucrt:nlsdata.obj
 0002:00002f18       ??_C@_07JJNFCEND@October?$AA@ 10021f18     libucrt:nlsdata.obj
 0002:00002f20       ??_C@_08HCHEGEOA@November?$AA@ 10021f20     libucrt:nlsdata.obj
 0002:00002f2c       ??_C@_08EDHMEBNP@December?$AA@ 10021f2c     libucrt:nlsdata.obj
 0002:00002f38       ??_C@_02DEDBPAFC@AM?$AA@   10021f38     libucrt:nlsdata.obj
 0002:00002f3c       ??_C@_02CJNFDJBF@PM?$AA@   10021f3c     libucrt:nlsdata.obj
 0002:00002f40       ??_C@_08BPBNCDIB@MM?1dd?1yy?$AA@ 10021f40     libucrt:nlsdata.obj
 0002:00002f4c       ??_C@_0BE@CKGJFCPC@dddd?0?5MMMM?5dd?0?5yyyy?$AA@ 10021f4c     libucrt:nlsdata.obj
 0002:00002f60       ??_C@_08JCCMCCIL@HH?3mm?3ss?$AA@ 10021f60     libucrt:nlsdata.obj
 0002:00002f6c       ??_C@_17MBGCMIPB@?$AAS?$AAu?$AAn?$AA?$AA@ 10021f6c     libucrt:nlsdata.obj
 0002:00002f74       ??_C@_17KBOMKBF@?$AAM?$AAo?$AAn?$AA?$AA@ 10021f74     libucrt:nlsdata.obj
 0002:00002f7c       ??_C@_17BMKGEGOJ@?$AAT?$AAu?$AAe?$AA?$AA@ 10021f7c     libucrt:nlsdata.obj
 0002:00002f84       ??_C@_17CJEDCEPE@?$AAW?$AAe?$AAd?$AA?$AA@ 10021f84     libucrt:nlsdata.obj
 0002:00002f8c       ??_C@_17PDPHAADD@?$AAT?$AAh?$AAu?$AA?$AA@ 10021f8c     libucrt:nlsdata.obj
 0002:00002f94       ??_C@_17HFOLPPLP@?$AAF?$AAr?$AAi?$AA?$AA@ 10021f94     libucrt:nlsdata.obj
 0002:00002f9c       ??_C@_17GGIBDPIH@?$AAS?$AAa?$AAt?$AA?$AA@ 10021f9c     libucrt:nlsdata.obj
 0002:00002fa4       ??_C@_1O@IHNHDHPB@?$AAS?$AAu?$AAn?$AAd?$AAa?$AAy?$AA?$AA@ 10021fa4     libucrt:nlsdata.obj
 0002:00002fb4       ??_C@_1O@MMNBFLIA@?$AAM?$AAo?$AAn?$AAd?$AAa?$AAy?$AA?$AA@ 10021fb4     libucrt:nlsdata.obj
 0002:00002fc4       ??_C@_1BA@ENFBFFEK@?$AAT?$AAu?$AAe?$AAs?$AAd?$AAa?$AAy?$AA?$AA@ 10021fc4     libucrt:nlsdata.obj
 0002:00002fd4       ??_C@_1BE@EBOGMDOH@?$AAW?$AAe?$AAd?$AAn?$AAe?$AAs?$AAd?$AAa?$AAy?$AA?$AA@ 10021fd4     libucrt:nlsdata.obj
 0002:00002fe8       ??_C@_1BC@HHMNLIHE@?$AAT?$AAh?$AAu?$AAr?$AAs?$AAd?$AAa?$AAy?$AA?$AA@ 10021fe8     libucrt:nlsdata.obj
 0002:00002ffc       ??_C@_1O@PDICJHAG@?$AAF?$AAr?$AAi?$AAd?$AAa?$AAy?$AA?$AA@ 10021ffc     libucrt:nlsdata.obj
 0002:0000300c       ??_C@_1BC@ENMNNPAJ@?$AAS?$AAa?$AAt?$AAu?$AAr?$AAd?$AAa?$AAy?$AA?$AA@ 1002200c     libucrt:nlsdata.obj
 0002:00003020       ??_C@_17DKNBKCHM@?$AAJ?$AAa?$AAn?$AA?$AA@ 10022020     libucrt:nlsdata.obj
 0002:00003028       ??_C@_17LMDJEKJN@?$AAF?$AAe?$AAb?$AA?$AA@ 10022028     libucrt:nlsdata.obj
 0002:00003030       ??_C@_17CKNLEDEC@?$AAM?$AAa?$AAr?$AA?$AA@ 10022030     libucrt:nlsdata.obj
 0002:00003038       ??_C@_17LFPOIHDD@?$AAA?$AAp?$AAr?$AA?$AA@ 10022038     libucrt:nlsdata.obj
 0002:00003040       ??_C@_17PNNKMEED@?$AAM?$AAa?$AAy?$AA?$AA@ 10022040     libucrt:nlsdata.obj
 0002:00003048       ??_C@_17KCJGOCPB@?$AAJ?$AAu?$AAn?$AA?$AA@ 10022048     libucrt:nlsdata.obj
 0002:00003050       ??_C@_17IJPCKHK@?$AAJ?$AAu?$AAl?$AA?$AA@ 10022050     libucrt:nlsdata.obj
 0002:00003058       ??_C@_17ICPELBCN@?$AAA?$AAu?$AAg?$AA?$AA@ 10022058     libucrt:nlsdata.obj
 0002:00003060       ??_C@_17HCHCOKMG@?$AAS?$AAe?$AAp?$AA?$AA@ 10022060     libucrt:nlsdata.obj
 0002:00003068       ??_C@_17FNLKOI@?$AAO?$AAc?$AAt?$AA?$AA@ 10022068     libucrt:nlsdata.obj
 0002:00003070       ??_C@_17BBDMLCIG@?$AAN?$AAo?$AAv?$AA?$AA@ 10022070     libucrt:nlsdata.obj
 0002:00003078       ??_C@_17EGKACKIF@?$AAD?$AAe?$AAc?$AA?$AA@ 10022078     libucrt:nlsdata.obj
 0002:00003080       ??_C@_1BA@EFMEIEBA@?$AAJ?$AAa?$AAn?$AAu?$AAa?$AAr?$AAy?$AA?$AA@ 10022080     libucrt:nlsdata.obj
 0002:00003090       ??_C@_1BC@JGDDFFAM@?$AAF?$AAe?$AAb?$AAr?$AAu?$AAa?$AAr?$AAy?$AA?$AA@ 10022090     libucrt:nlsdata.obj
 0002:000030a4       ??_C@_1M@IKEENEDF@?$AAM?$AAa?$AAr?$AAc?$AAh?$AA?$AA@ 100220a4     libucrt:nlsdata.obj
 0002:000030b0       ??_C@_1M@GJNLMHFD@?$AAA?$AAp?$AAr?$AAi?$AAl?$AA?$AA@ 100220b0     libucrt:nlsdata.obj
 0002:000030bc       ??_C@_19EPFLPGAP@?$AAJ?$AAu?$AAn?$AAe?$AA?$AA@ 100220bc     libucrt:nlsdata.obj
 0002:000030c8       ??_C@_19BIFMLPCD@?$AAJ?$AAu?$AAl?$AAy?$AA?$AA@ 100220c8     libucrt:nlsdata.obj
 0002:000030d4       ??_C@_1O@PAHLKOAC@?$AAA?$AAu?$AAg?$AAu?$AAs?$AAt?$AA?$AA@ 100220d4     libucrt:nlsdata.obj
 0002:000030e4       ??_C@_1BE@DKAAMBJL@?$AAS?$AAe?$AAp?$AAt?$AAe?$AAm?$AAb?$AAe?$AAr?$AA?$AA@ 100220e4     libucrt:nlsdata.obj
 0002:000030f8       ??_C@_1BA@EPANDLNG@?$AAO?$AAc?$AAt?$AAo?$AAb?$AAe?$AAr?$AA?$AA@ 100220f8     libucrt:nlsdata.obj
 0002:00003108       ??_C@_1BC@BGLIFPF@?$AAN?$AAo?$AAv?$AAe?$AAm?$AAb?$AAe?$AAr?$AA?$AA@ 10022108     libucrt:nlsdata.obj
 0002:0000311c       ??_C@_1BC@FEMKIFH@?$AAD?$AAe?$AAc?$AAe?$AAm?$AAb?$AAe?$AAr?$AA?$AA@ 1002211c     libucrt:nlsdata.obj
 0002:00003130       ??_C@_15ODEHAHHF@?$AAA?$AAM?$AA?$AA@ 10022130     libucrt:nlsdata.obj
 0002:00003138       ??_C@_15CLMNNGEL@?$AAP?$AAM?$AA?$AA@ 10022138     libucrt:nlsdata.obj
 0002:00003140       ??_C@_1BC@IEBCMHCM@?$AAM?$AAM?$AA?1?$AAd?$AAd?$AA?1?$AAy?$AAy?$AA?$AA@ 10022140     libucrt:nlsdata.obj
 0002:00003154       ??_C@_1CI@KNAKOEBC@?$AAd?$AAd?$AAd?$AAd?$AA?0?$AA?5?$AAM?$AAM?$AAM?$AAM?$AA?5?$AAd?$AAd?$AA?0?$AA?5?$AAy?$AAy?$AAy?$AAy?$AA?$AA@ 10022154     libucrt:nlsdata.obj
 0002:0000317c       ??_C@_1BC@GDGBMEMK@?$AAH?$AAH?$AA?3?$AAm?$AAm?$AA?3?$AAs?$AAs?$AA?$AA@ 1002217c     libucrt:nlsdata.obj
 0002:00003190       ??_C@_1M@BMHNFIME@?$AAe?$AAn?$AA?9?$AAU?$AAS?$AA?$AA@ 10022190     libucrt:nlsdata.obj
 0002:000031a0       ___lc_time_c               100221a0     libucrt:nlsdata.obj
 0002:00003314       ??_C@_1M@HPNHIDJI@?$AAj?$AAa?$AA?9?$AAJ?$AAP?$AA?$AA@ 10022314     libucrt:mbctype.obj
 0002:00003320       ??_C@_1M@BIBDDEMK@?$AAz?$AAh?$AA?9?$AAC?$AAN?$AA?$AA@ 10022320     libucrt:mbctype.obj
 0002:0000332c       ??_C@_1M@JLOOOEGK@?$AAk?$AAo?$AA?9?$AAK?$AAR?$AA?$AA@ 1002232c     libucrt:mbctype.obj
 0002:00003338       ??_C@_1M@CLNBBOPM@?$AAz?$AAh?$AA?9?$AAT?$AAW?$AA?$AA@ 10022338     libucrt:mbctype.obj
 0002:00003348       __wctype                   10022348     libucrt:ctype.obj
 0002:00003550       ___newctype                10022550     libucrt:ctype.obj
 0002:00003850       ___newclmap                10022850     libucrt:ctype.obj
 0002:000039d0       ___newcumap                100229d0     libucrt:ctype.obj
 0002:00004270       ??_C@_15EMKDOKLE@?$AAa?$AAr?$AA?$AA@ 10023270     libucrt:lcidtoname_downlevel.obj
 0002:00004278       ??_C@_15KNPADPLH@?$AAb?$AAg?$AA?$AA@ 10023278     libucrt:lcidtoname_downlevel.obj
 0002:00004280       ??_C@_15EDMHLDMO@?$AAc?$AAa?$AA?$AA@ 10023280     libucrt:lcidtoname_downlevel.obj
 0002:00004288       ??_C@_1O@BPEAJADD@?$AAz?$AAh?$AA?9?$AAC?$AAH?$AAS?$AA?$AA@ 10023288     libucrt:lcidtoname_downlevel.obj
 0002:00004298       ??_C@_15LJNHCMNK@?$AAc?$AAs?$AA?$AA@ 10023298     libucrt:lcidtoname_downlevel.obj
 0002:000042a0       ??_C@_15FOMCIDHG@?$AAd?$AAa?$AA?$AA@ 100232a0     libucrt:lcidtoname_downlevel.obj
 0002:000042a8       ??_C@_15NBKABECB@?$AAd?$AAe?$AA?$AA@ 100232a8     libucrt:lcidtoname_downlevel.obj
 0002:000042b0       ??_C@_15GHPEIIAO@?$AAe?$AAl?$AA?$AA@ 100232b0     libucrt:lcidtoname_downlevel.obj
 0002:000042b8       ??_C@_15MNPNEAIF@?$AAe?$AAn?$AA?$AA@ 100232b8     libucrt:lcidtoname_downlevel.obj
 0002:000042c0       ??_C@_15GPIOMPMH@?$AAe?$AAs?$AA?$AA@ 100232c0     libucrt:lcidtoname_downlevel.obj
 0002:000042c8       ??_C@_15NGLOAKJC@?$AAf?$AAi?$AA?$AA@ 100232c8     libucrt:lcidtoname_downlevel.obj
 0002:000042d0       ??_C@_15FBKGNKAM@?$AAf?$AAr?$AA?$AA@ 100232d0     libucrt:lcidtoname_downlevel.obj
 0002:000042d8       ??_C@_15KGGCNEFK@?$AAh?$AAe?$AA?$AA@ 100232d8     libucrt:lcidtoname_downlevel.obj
 0002:000042e0       ??_C@_15PGHLIDMF@?$AAh?$AAu?$AA?$AA@ 100232e0     libucrt:lcidtoname_downlevel.obj
 0002:000042e8       ??_C@_15BIEMAPLM@?$AAi?$AAs?$AA?$AA@ 100232e8     libucrt:lcidtoname_downlevel.obj
 0002:000042f0       ??_C@_15IFJLDHAF@?$AAi?$AAt?$AA?$AA@ 100232f0     libucrt:lcidtoname_downlevel.obj
 0002:000042f8       ??_C@_15GEMIOCAG@?$AAj?$AAa?$AA?$AA@ 100232f8     libucrt:lcidtoname_downlevel.obj
 0002:00004300       ??_C@_15EPELEGJA@?$AAk?$AAo?$AA?$AA@ 10023300     libucrt:lcidtoname_downlevel.obj
 0002:00004308       ??_C@_15NDDHIMN@?$AAn?$AAl?$AA?$AA@ 10023308     libucrt:lcidtoname_downlevel.obj
 0002:00004310       ??_C@_15BPIGNHCD@?$AAn?$AAo?$AA?$AA@ 10023310     libucrt:lcidtoname_downlevel.obj
 0002:00004318       ??_C@_15DEOPBLCG@?$AAp?$AAl?$AA?$AA@ 10023318     libucrt:lcidtoname_downlevel.obj
 0002:00004320       ??_C@_15KBECGEFG@?$AAp?$AAt?$AA?$AA@ 10023320     libucrt:lcidtoname_downlevel.obj
 0002:00004328       ??_C@_15GLJCBFMD@?$AAr?$AAo?$AA?$AA@ 10023328     libucrt:lcidtoname_downlevel.obj
 0002:00004330       ??_C@_15FEDGKCDI@?$AAr?$AAu?$AA?$AA@ 10023330     libucrt:lcidtoname_downlevel.obj
 0002:00004338       ??_C@_15GLKMLLHM@?$AAh?$AAr?$AA?$AA@ 10023338     libucrt:lcidtoname_downlevel.obj
 0002:00004340       ??_C@_15CPKMFBDB@?$AAs?$AAk?$AA?$AA@ 10023340     libucrt:lcidtoname_downlevel.obj
 0002:00004348       ??_C@_15BAAIOGMK@?$AAs?$AAq?$AA?$AA@ 10023348     libucrt:lcidtoname_downlevel.obj
 0002:00004350       ??_C@_15INNPNOHD@?$AAs?$AAv?$AA?$AA@ 10023350     libucrt:lcidtoname_downlevel.obj
 0002:00004358       ??_C@_15CABMMOGH@?$AAt?$AAh?$AA?$AA@ 10023358     libucrt:lcidtoname_downlevel.obj
 0002:00004360       ??_C@_15BPLIHJJM@?$AAt?$AAr?$AA?$AA@ 10023360     libucrt:lcidtoname_downlevel.obj
 0002:00004368       ??_C@_15NEOEKKDJ@?$AAu?$AAr?$AA?$AA@ 10023368     libucrt:lcidtoname_downlevel.obj
 0002:00004370       ??_C@_15NFICGAJK@?$AAi?$AAd?$AA?$AA@ 10023370     libucrt:lcidtoname_downlevel.obj
 0002:00004378       ??_C@_15PJPFLCCM@?$AAu?$AAk?$AA?$AA@ 10023378     libucrt:lcidtoname_downlevel.obj
 0002:00004380       ??_C@_15HPJPHDM@?$AAb?$AAe?$AA?$AA@ 10023380     libucrt:lcidtoname_downlevel.obj
 0002:00004388       ??_C@_15LCHLGJII@?$AAs?$AAl?$AA?$AA@ 10023388     libucrt:lcidtoname_downlevel.obj
 0002:00004390       ??_C@_15PCFJPHHO@?$AAe?$AAt?$AA?$AA@ 10023390     libucrt:lcidtoname_downlevel.obj
 0002:00004398       ??_C@_15HPFPGODN@?$AAl?$AAv?$AA?$AA@ 10023398     libucrt:lcidtoname_downlevel.obj
 0002:000043a0       ??_C@_15NFFGKGLG@?$AAl?$AAt?$AA?$AA@ 100233a0     libucrt:lcidtoname_downlevel.obj
 0002:000043a8       ??_C@_15BDAKCCHN@?$AAf?$AAa?$AA?$AA@ 100233a8     libucrt:lcidtoname_downlevel.obj
 0002:000043b0       ??_C@_15NFGIAIAJ@?$AAv?$AAi?$AA?$AA@ 100233b0     libucrt:lcidtoname_downlevel.obj
 0002:000043b8       ??_C@_15LMKNDMHN@?$AAh?$AAy?$AA?$AA@ 100233b8     libucrt:lcidtoname_downlevel.obj
 0002:000043c0       ??_C@_15IJBHMCFL@?$AAa?$AAz?$AA?$AA@ 100233c0     libucrt:lcidtoname_downlevel.obj
 0002:000043c8       ??_C@_15EKOFJABL@?$AAe?$AAu?$AA?$AA@ 100233c8     libucrt:lcidtoname_downlevel.obj
 0002:000043d0       ??_C@_15BGHADCNK@?$AAm?$AAk?$AA?$AA@ 100233d0     libucrt:lcidtoname_downlevel.obj
 0002:000043d8       ??_C@_15JDNICKHM@?$AAa?$AAf?$AA?$AA@ 100233d8     libucrt:lcidtoname_downlevel.obj
 0002:000043e0       ??_C@_15KPJEDBKD@?$AAk?$AAa?$AA?$AA@ 100233e0     libucrt:lcidtoname_downlevel.obj
 0002:000043e8       ??_C@_15PDNFFFEO@?$AAf?$AAo?$AA?$AA@ 100233e8     libucrt:lcidtoname_downlevel.obj
 0002:000043f0       ??_C@_15OMLEGLOC@?$AAh?$AAi?$AA?$AA@ 100233f0     libucrt:lcidtoname_downlevel.obj
 0002:000043f8       ??_C@_15IDNNENKK@?$AAm?$AAs?$AA?$AA@ 100233f8     libucrt:lcidtoname_downlevel.obj
 0002:00004400       ??_C@_15MACJNBMH@?$AAk?$AAk?$AA?$AA@ 10023400     libucrt:lcidtoname_downlevel.obj
 0002:00004408       ??_C@_15DKDJEOND@?$AAk?$AAy?$AA?$AA@ 10023408     libucrt:lcidtoname_downlevel.obj
 0002:00004410       ??_C@_15DFGDLJBG@?$AAs?$AAw?$AA?$AA@ 10023410     libucrt:lcidtoname_downlevel.obj
 0002:00004418       ??_C@_15BBFAICNG@?$AAu?$AAz?$AA?$AA@ 10023418     libucrt:lcidtoname_downlevel.obj
 0002:00004420       ??_C@_15DKNDCGEA@?$AAt?$AAt?$AA?$AA@ 10023420     libucrt:lcidtoname_downlevel.obj
 0002:00004428       ??_C@_15MGIFMDPL@?$AAp?$AAa?$AA?$AA@ 10023428     libucrt:lcidtoname_downlevel.obj
 0002:00004430       ??_C@_15HCNDBBA@?$AAg?$AAu?$AA?$AA@ 10023430     libucrt:lcidtoname_downlevel.obj
 0002:00004438       ??_C@_15FNBEIBON@?$AAt?$AAa?$AA?$AA@ 10023438     libucrt:lcidtoname_downlevel.obj
 0002:00004440       ??_C@_15NCHGBGLK@?$AAt?$AAe?$AA?$AA@ 10023440     libucrt:lcidtoname_downlevel.obj
 0002:00004448       ??_C@_15PHPHCBPF@?$AAk?$AAn?$AA?$AA@ 10023448     libucrt:lcidtoname_downlevel.obj
 0002:00004450       ??_C@_15DLGBCKMP@?$AAm?$AAr?$AA?$AA@ 10023450     libucrt:lcidtoname_downlevel.obj
 0002:00004458       ??_C@_15EABBLBFF@?$AAs?$AAa?$AA?$AA@ 10023458     libucrt:lcidtoname_downlevel.obj
 0002:00004460       ??_C@_15CBKOMCOI@?$AAm?$AAn?$AA?$AA@ 10023460     libucrt:lcidtoname_downlevel.obj
 0002:00004468       ??_C@_15CKDMCJAF@?$AAg?$AAl?$AA?$AA@ 10023468     libucrt:lcidtoname_downlevel.obj
 0002:00004470       ??_C@_17CNJFBPG@?$AAk?$AAo?$AAk?$AA?$AA@ 10023470     libucrt:lcidtoname_downlevel.obj
 0002:00004478       ??_C@_17FFBJICPL@?$AAs?$AAy?$AAr?$AA?$AA@ 10023478     libucrt:lcidtoname_downlevel.obj
 0002:00004480       ??_C@_17KPNDCPAF@?$AAd?$AAi?$AAv?$AA?$AA@ 10023480     libucrt:lcidtoname_downlevel.obj
 0002:00004488       ??_C@_11LOCGONAA@?$AA?$AA@ 10023488     libucrt:lcidtoname_downlevel.obj
 0002:0000448c       ??_C@_1M@OKAHONE@?$AAa?$AAr?$AA?9?$AAS?$AAA?$AA?$AA@ 1002348c     libucrt:lcidtoname_downlevel.obj
 0002:00004498       ??_C@_1M@FFFIGIGK@?$AAb?$AAg?$AA?9?$AAB?$AAG?$AA?$AA@ 10023498     libucrt:lcidtoname_downlevel.obj
 0002:000044a4       ??_C@_1M@BJNKEDC@?$AAc?$AAa?$AA?9?$AAE?$AAS?$AA?$AA@ 100234a4     libucrt:lcidtoname_downlevel.obj
 0002:000044b0       ??_C@_1M@IJJHFJHA@?$AAc?$AAs?$AA?9?$AAC?$AAZ?$AA?$AA@ 100234b0     libucrt:lcidtoname_downlevel.obj
 0002:000044bc       ??_C@_1M@CLPEOBGI@?$AAd?$AAa?$AA?9?$AAD?$AAK?$AA?$AA@ 100234bc     libucrt:lcidtoname_downlevel.obj
 0002:000044c8       ??_C@_1M@MCMADGCB@?$AAd?$AAe?$AA?9?$AAD?$AAE?$AA?$AA@ 100234c8     libucrt:lcidtoname_downlevel.obj
 0002:000044d4       ??_C@_1M@OOCKEMAM@?$AAe?$AAl?$AA?9?$AAG?$AAR?$AA?$AA@ 100234d4     libucrt:lcidtoname_downlevel.obj
 0002:000044e0       ??_C@_1M@DDNJFGID@?$AAf?$AAi?$AA?9?$AAF?$AAI?$AA?$AA@ 100234e0     libucrt:lcidtoname_downlevel.obj
 0002:000044ec       ??_C@_1M@GLIPPMAC@?$AAf?$AAr?$AA?9?$AAF?$AAR?$AA?$AA@ 100234ec     libucrt:lcidtoname_downlevel.obj
 0002:000044f8       ??_C@_1M@GFMCHPE@?$AAh?$AAe?$AA?9?$AAI?$AAL?$AA?$AA@ 100234f8     libucrt:lcidtoname_downlevel.obj
 0002:00004504       ??_C@_1M@MHLPGNKM@?$AAh?$AAu?$AA?9?$AAH?$AAU?$AA?$AA@ 10023504     libucrt:lcidtoname_downlevel.obj
 0002:00004510       ??_C@_1M@LPDDNNPN@?$AAi?$AAs?$AA?9?$AAI?$AAS?$AA?$AA@ 10023510     libucrt:lcidtoname_downlevel.obj
 0002:0000451c       ??_C@_1M@MADIPODN@?$AAi?$AAt?$AA?9?$AAI?$AAT?$AA?$AA@ 1002351c     libucrt:lcidtoname_downlevel.obj
 0002:00004528       ??_C@_1M@IHBJJGG@?$AAn?$AAl?$AA?9?$AAN?$AAL?$AA?$AA@ 10023528     libucrt:lcidtoname_downlevel.obj
 0002:00004534       ??_C@_1M@EANAGDL@?$AAn?$AAb?$AA?9?$AAN?$AAO?$AA?$AA@ 10023534     libucrt:lcidtoname_downlevel.obj
 0002:00004540       ??_C@_1M@NEIEMEGP@?$AAp?$AAl?$AA?9?$AAP?$AAL?$AA?$AA@ 10023540     libucrt:lcidtoname_downlevel.obj
 0002:0000454c       ??_C@_1M@BOCFIGEP@?$AAp?$AAt?$AA?9?$AAB?$AAR?$AA?$AA@ 1002354c     libucrt:lcidtoname_downlevel.obj
 0002:00004558       ??_C@_1M@IMPFOPBG@?$AAr?$AAo?$AA?9?$AAR?$AAO?$AA?$AA@ 10023558     libucrt:lcidtoname_downlevel.obj
 0002:00004564       ??_C@_1M@IDNNEJMM@?$AAr?$AAu?$AA?9?$AAR?$AAU?$AA?$AA@ 10023564     libucrt:lcidtoname_downlevel.obj
 0002:00004570       ??_C@_1M@LILEEOGM@?$AAh?$AAr?$AA?9?$AAH?$AAR?$AA?$AA@ 10023570     libucrt:lcidtoname_downlevel.obj
 0002:0000457c       ??_C@_1M@FKIFEHPB@?$AAs?$AAk?$AA?9?$AAS?$AAK?$AA?$AA@ 1002357c     libucrt:lcidtoname_downlevel.obj
 0002:00004588       ??_C@_1M@LJMAMNPJ@?$AAs?$AAq?$AA?9?$AAA?$AAL?$AA?$AA@ 10023588     libucrt:lcidtoname_downlevel.obj
 0002:00004594       ??_C@_1M@GIAKDKJK@?$AAs?$AAv?$AA?9?$AAS?$AAE?$AA?$AA@ 10023594     libucrt:lcidtoname_downlevel.obj
 0002:000045a0       ??_C@_1M@MKJKIKCL@?$AAt?$AAh?$AA?9?$AAT?$AAH?$AA?$AA@ 100235a0     libucrt:lcidtoname_downlevel.obj
 0002:000045ac       ??_C@_1M@MFLCCMPB@?$AAt?$AAr?$AA?9?$AAT?$AAR?$AA?$AA@ 100235ac     libucrt:lcidtoname_downlevel.obj
 0002:000045b8       ??_C@_1M@OIJHDKJN@?$AAu?$AAr?$AA?9?$AAP?$AAK?$AA?$AA@ 100235b8     libucrt:lcidtoname_downlevel.obj
 0002:000045c4       ??_C@_1M@LHIPCIEK@?$AAi?$AAd?$AA?9?$AAI?$AAD?$AA?$AA@ 100235c4     libucrt:lcidtoname_downlevel.obj
 0002:000045d0       ??_C@_1M@MFMOBGI@?$AAu?$AAk?$AA?9?$AAU?$AAA?$AA?$AA@ 100235d0     libucrt:lcidtoname_downlevel.obj
 0002:000045dc       ??_C@_1M@OBGLJIPL@?$AAb?$AAe?$AA?9?$AAB?$AAY?$AA?$AA@ 100235dc     libucrt:lcidtoname_downlevel.obj
 0002:000045e8       ??_C@_1M@BCFAJEAD@?$AAs?$AAl?$AA?9?$AAS?$AAI?$AA?$AA@ 100235e8     libucrt:lcidtoname_downlevel.obj
 0002:000045f4       ??_C@_1M@FKFFEDDN@?$AAe?$AAt?$AA?9?$AAE?$AAE?$AA?$AA@ 100235f4     libucrt:lcidtoname_downlevel.obj
 0002:00004600       ??_C@_1M@KGKKAACI@?$AAl?$AAv?$AA?9?$AAL?$AAV?$AA?$AA@ 10023600     libucrt:lcidtoname_downlevel.obj
 0002:0000460c       ??_C@_1M@IFGBIJO@?$AAl?$AAt?$AA?9?$AAL?$AAT?$AA?$AA@ 1002360c     libucrt:lcidtoname_downlevel.obj
 0002:00004618       ??_C@_1M@FGEAHEDM@?$AAf?$AAa?$AA?9?$AAI?$AAR?$AA?$AA@ 10023618     libucrt:lcidtoname_downlevel.obj
 0002:00004624       ??_C@_1M@KBMAIBFN@?$AAv?$AAi?$AA?9?$AAV?$AAN?$AA?$AA@ 10023624     libucrt:lcidtoname_downlevel.obj
 0002:00004630       ??_C@_1M@GPCBKDJK@?$AAh?$AAy?$AA?9?$AAA?$AAM?$AA?$AA@ 10023630     libucrt:lcidtoname_downlevel.obj
 0002:0000463c       ??_C@_1BG@BECMDDJB@?$AAa?$AAz?$AA?9?$AAA?$AAZ?$AA?9?$AAL?$AAa?$AAt?$AAn?$AA?$AA@ 1002363c     libucrt:lcidtoname_downlevel.obj
 0002:00004654       ??_C@_1M@MAOFCAEA@?$AAe?$AAu?$AA?9?$AAE?$AAS?$AA?$AA@ 10023654     libucrt:lcidtoname_downlevel.obj
 0002:00004660       ??_C@_1M@IGHABKPI@?$AAm?$AAk?$AA?9?$AAM?$AAK?$AA?$AA@ 10023660     libucrt:lcidtoname_downlevel.obj
 0002:0000466c       ??_C@_1M@IAIGNEJG@?$AAt?$AAn?$AA?9?$AAZ?$AAA?$AA?$AA@ 1002366c     libucrt:lcidtoname_downlevel.obj
 0002:00004678       ??_C@_1M@IIJCOJFA@?$AAx?$AAh?$AA?9?$AAZ?$AAA?$AA?$AA@ 10023678     libucrt:lcidtoname_downlevel.obj
 0002:00004684       ??_C@_1M@LGPJHNJH@?$AAz?$AAu?$AA?9?$AAZ?$AAA?$AA?$AA@ 10023684     libucrt:lcidtoname_downlevel.obj
 0002:00004690       ??_C@_1M@HOKAOIO@?$AAa?$AAf?$AA?9?$AAZ?$AAA?$AA?$AA@ 10023690     libucrt:lcidtoname_downlevel.obj
 0002:0000469c       ??_C@_1M@DPCLHLIE@?$AAk?$AAa?$AA?9?$AAG?$AAE?$AA?$AA@ 1002369c     libucrt:lcidtoname_downlevel.obj
 0002:000046a8       ??_C@_1M@BLKMHJBI@?$AAf?$AAo?$AA?9?$AAF?$AAO?$AA?$AA@ 100236a8     libucrt:lcidtoname_downlevel.obj
 0002:000046b4       ??_C@_1M@LGGJAPPB@?$AAh?$AAi?$AA?9?$AAI?$AAN?$AA?$AA@ 100236b4     libucrt:lcidtoname_downlevel.obj
 0002:000046c0       ??_C@_1M@FIKPIHFE@?$AAm?$AAt?$AA?9?$AAM?$AAT?$AA?$AA@ 100236c0     libucrt:lcidtoname_downlevel.obj
 0002:000046cc       ??_C@_1M@HEGGPBFA@?$AAs?$AAe?$AA?9?$AAN?$AAO?$AA?$AA@ 100236cc     libucrt:lcidtoname_downlevel.obj
 0002:000046d8       ??_C@_1M@EIBJEEPA@?$AAm?$AAs?$AA?9?$AAM?$AAY?$AA?$AA@ 100236d8     libucrt:lcidtoname_downlevel.obj
 0002:000046e4       ??_C@_1M@FHLBGMPP@?$AAk?$AAk?$AA?9?$AAK?$AAZ?$AA?$AA@ 100236e4     libucrt:lcidtoname_downlevel.obj
 0002:000046f0       ??_C@_1M@NGJJLCGI@?$AAk?$AAy?$AA?9?$AAK?$AAG?$AA?$AA@ 100236f0     libucrt:lcidtoname_downlevel.obj
 0002:000046fc       ??_C@_1M@GIENNBFC@?$AAs?$AAw?$AA?9?$AAK?$AAE?$AA?$AA@ 100236fc     libucrt:lcidtoname_downlevel.obj
 0002:00004708       ??_C@_1BG@NDGMJIMJ@?$AAu?$AAz?$AA?9?$AAU?$AAZ?$AA?9?$AAL?$AAa?$AAt?$AAn?$AA?$AA@ 10023708     libucrt:lcidtoname_downlevel.obj
 0002:00004720       ??_C@_1M@IDCCIHBC@?$AAt?$AAt?$AA?9?$AAR?$AAU?$AA?$AA@ 10023720     libucrt:lcidtoname_downlevel.obj
 0002:0000472c       ??_C@_1M@LOICPMOJ@?$AAb?$AAn?$AA?9?$AAI?$AAN?$AA?$AA@ 1002372c     libucrt:lcidtoname_downlevel.obj
 0002:00004738       ??_C@_1M@KPKKNEAH@?$AAp?$AAa?$AA?9?$AAI?$AAN?$AA?$AA@ 10023738     libucrt:lcidtoname_downlevel.obj
 0002:00004744       ??_C@_1M@PJGPPBOG@?$AAg?$AAu?$AA?9?$AAI?$AAN?$AA?$AA@ 10023744     libucrt:lcidtoname_downlevel.obj
 0002:00004750       ??_C@_1M@KMKMOPHI@?$AAt?$AAa?$AA?9?$AAI?$AAN?$AA?$AA@ 10023750     libucrt:lcidtoname_downlevel.obj
 0002:0000475c       ??_C@_1M@KFEHEPAC@?$AAt?$AAe?$AA?9?$AAI?$AAN?$AA?$AA@ 1002375c     libucrt:lcidtoname_downlevel.obj
 0002:00004768       ??_C@_1M@CDCLMGHI@?$AAk?$AAn?$AA?9?$AAI?$AAN?$AA?$AA@ 10023768     libucrt:lcidtoname_downlevel.obj
 0002:00004774       ??_C@_1M@MIODLDKF@?$AAm?$AAl?$AA?9?$AAI?$AAN?$AA?$AA@ 10023774     libucrt:lcidtoname_downlevel.obj
 0002:00004780       ??_C@_1M@PBIEACPO@?$AAm?$AAr?$AA?9?$AAI?$AAN?$AA?$AA@ 10023780     libucrt:lcidtoname_downlevel.obj
 0002:0000478c       ??_C@_1M@NIDEAGPH@?$AAs?$AAa?$AA?9?$AAI?$AAN?$AA?$AA@ 1002378c     libucrt:lcidtoname_downlevel.obj
 0002:00004798       ??_C@_1M@FHIHCBIO@?$AAm?$AAn?$AA?9?$AAM?$AAN?$AA?$AA@ 10023798     libucrt:lcidtoname_downlevel.obj
 0002:000047a4       ??_C@_1M@JAIJPENP@?$AAc?$AAy?$AA?9?$AAG?$AAB?$AA?$AA@ 100237a4     libucrt:lcidtoname_downlevel.obj
 0002:000047b0       ??_C@_1M@PHGFBEPN@?$AAg?$AAl?$AA?9?$AAE?$AAS?$AA?$AA@ 100237b0     libucrt:lcidtoname_downlevel.obj
 0002:000047bc       ??_C@_1O@KPIPDNCP@?$AAk?$AAo?$AAk?$AA?9?$AAI?$AAN?$AA?$AA@ 100237bc     libucrt:lcidtoname_downlevel.obj
 0002:000047cc       ??_C@_1O@KNHJLDJA@?$AAs?$AAy?$AAr?$AA?9?$AAS?$AAY?$AA?$AA@ 100237cc     libucrt:lcidtoname_downlevel.obj
 0002:000047dc       ??_C@_1O@MKEKBLAH@?$AAd?$AAi?$AAv?$AA?9?$AAM?$AAV?$AA?$AA@ 100237dc     libucrt:lcidtoname_downlevel.obj
 0002:000047ec       ??_C@_1O@OHDCKDDF@?$AAq?$AAu?$AAz?$AA?9?$AAB?$AAO?$AA?$AA@ 100237ec     libucrt:lcidtoname_downlevel.obj
 0002:000047fc       ??_C@_1M@LEPJNLFD@?$AAn?$AAs?$AA?9?$AAZ?$AAA?$AA?$AA@ 100237fc     libucrt:lcidtoname_downlevel.obj
 0002:00004808       ??_C@_1M@OMLEIIJB@?$AAm?$AAi?$AA?9?$AAN?$AAZ?$AA?$AA@ 10023808     libucrt:lcidtoname_downlevel.obj
 0002:00004814       ??_C@_1M@PMPEAILG@?$AAa?$AAr?$AA?9?$AAI?$AAQ?$AA?$AA@ 10023814     libucrt:lcidtoname_downlevel.obj
 0002:00004820       ??_C@_1M@CNKPNOEE@?$AAd?$AAe?$AA?9?$AAC?$AAH?$AA?$AA@ 10023820     libucrt:lcidtoname_downlevel.obj
 0002:0000482c       ??_C@_1M@LKMGMLKO@?$AAe?$AAn?$AA?9?$AAG?$AAB?$AA?$AA@ 1002382c     libucrt:lcidtoname_downlevel.obj
 0002:00004838       ??_C@_1M@PGKJFFGL@?$AAe?$AAs?$AA?9?$AAM?$AAX?$AA?$AA@ 10023838     libucrt:lcidtoname_downlevel.obj
 0002:00004844       ??_C@_1M@DNNANBDC@?$AAf?$AAr?$AA?9?$AAB?$AAE?$AA?$AA@ 10023844     libucrt:lcidtoname_downlevel.obj
 0002:00004850       ??_C@_1M@HLGMDFHM@?$AAi?$AAt?$AA?9?$AAC?$AAH?$AA?$AA@ 10023850     libucrt:lcidtoname_downlevel.obj
 0002:0000485c       ??_C@_1M@CLLBGJH@?$AAn?$AAl?$AA?9?$AAB?$AAE?$AA?$AA@ 1002385c     libucrt:lcidtoname_downlevel.obj
 0002:00004868       ??_C@_1M@BODBOGLF@?$AAn?$AAn?$AA?9?$AAN?$AAO?$AA?$AA@ 10023868     libucrt:lcidtoname_downlevel.obj
 0002:00004874       ??_C@_1M@HFFAHKAD@?$AAp?$AAt?$AA?9?$AAP?$AAT?$AA?$AA@ 10023874     libucrt:lcidtoname_downlevel.obj
 0002:00004880       ??_C@_1BG@LNOAKHIE@?$AAs?$AAr?$AA?9?$AAS?$AAP?$AA?9?$AAL?$AAa?$AAt?$AAn?$AA?$AA@ 10023880     libucrt:lcidtoname_downlevel.obj
 0002:00004898       ??_C@_1M@HBMHBGAK@?$AAs?$AAv?$AA?9?$AAF?$AAI?$AA?$AA@ 10023898     libucrt:lcidtoname_downlevel.obj
 0002:000048a4       ??_C@_1BG@DGCJGJBE@?$AAa?$AAz?$AA?9?$AAA?$AAZ?$AA?9?$AAC?$AAy?$AAr?$AAl?$AA?$AA@ 100238a4     libucrt:lcidtoname_downlevel.obj
 0002:000048bc       ??_C@_1M@KEJDAAHB@?$AAs?$AAe?$AA?9?$AAS?$AAE?$AA?$AA@ 100238bc     libucrt:lcidtoname_downlevel.obj
 0002:000048c8       ??_C@_1M@HEIBJJAD@?$AAm?$AAs?$AA?9?$AAB?$AAN?$AA?$AA@ 100238c8     libucrt:lcidtoname_downlevel.obj
 0002:000048d4       ??_C@_1BG@PBGJMCEM@?$AAu?$AAz?$AA?9?$AAU?$AAZ?$AA?9?$AAC?$AAy?$AAr?$AAl?$AA?$AA@ 100238d4     libucrt:lcidtoname_downlevel.obj
 0002:000048ec       ??_C@_1O@LAOBCMDF@?$AAq?$AAu?$AAz?$AA?9?$AAE?$AAC?$AA?$AA@ 100238ec     libucrt:lcidtoname_downlevel.obj
 0002:000048fc       ??_C@_1M@POEEMAIO@?$AAa?$AAr?$AA?9?$AAE?$AAG?$AA?$AA@ 100238fc     libucrt:lcidtoname_downlevel.obj
 0002:00004908       ??_C@_1M@EFAKDEDL@?$AAz?$AAh?$AA?9?$AAH?$AAK?$AA?$AA@ 10023908     libucrt:lcidtoname_downlevel.obj
 0002:00004914       ??_C@_1M@HKKIJHGI@?$AAd?$AAe?$AA?9?$AAA?$AAT?$AA?$AA@ 10023914     libucrt:lcidtoname_downlevel.obj
 0002:00004920       ??_C@_1M@KBFBEHJF@?$AAe?$AAn?$AA?9?$AAA?$AAU?$AA?$AA@ 10023920     libucrt:lcidtoname_downlevel.obj
 0002:0000492c       ??_C@_1M@MNPLFAAH@?$AAe?$AAs?$AA?9?$AAE?$AAS?$AA?$AA@ 1002392c     libucrt:lcidtoname_downlevel.obj
 0002:00004938       ??_C@_1M@HJOOJFMA@?$AAf?$AAr?$AA?9?$AAC?$AAA?$AA?$AA@ 10023938     libucrt:lcidtoname_downlevel.obj
 0002:00004944       ??_C@_1BG@JPOFPNAB@?$AAs?$AAr?$AA?9?$AAS?$AAP?$AA?9?$AAC?$AAy?$AAr?$AAl?$AA?$AA@ 10023944     libucrt:lcidtoname_downlevel.obj
 0002:0000495c       ??_C@_1M@LNFOCMOB@?$AAs?$AAe?$AA?9?$AAF?$AAI?$AA?$AA@ 1002395c     libucrt:lcidtoname_downlevel.obj
 0002:00004968       ??_C@_1O@MGJBOAMB@?$AAq?$AAu?$AAz?$AA?9?$AAP?$AAE?$AA?$AA@ 10023968     libucrt:lcidtoname_downlevel.obj
 0002:00004978       ??_C@_1M@GJINLBOK@?$AAa?$AAr?$AA?9?$AAL?$AAY?$AA?$AA@ 10023978     libucrt:lcidtoname_downlevel.obj
 0002:00004984       ??_C@_1M@GGMNHJNL@?$AAz?$AAh?$AA?9?$AAS?$AAG?$AA?$AA@ 10023984     libucrt:lcidtoname_downlevel.obj
 0002:00004990       ??_C@_1M@HOIKODND@?$AAd?$AAe?$AA?9?$AAL?$AAU?$AA?$AA@ 10023990     libucrt:lcidtoname_downlevel.obj
 0002:0000499c       ??_C@_1M@DDOCCGFG@?$AAe?$AAn?$AA?9?$AAC?$AAA?$AA?$AA@ 1002399c     libucrt:lcidtoname_downlevel.obj
 0002:000049a8       ??_C@_1M@BNOEMJLF@?$AAe?$AAs?$AA?9?$AAG?$AAT?$AA?$AA@ 100239a8     libucrt:lcidtoname_downlevel.obj
 0002:000049b4       ??_C@_1M@EOGNKEK@?$AAf?$AAr?$AA?9?$AAC?$AAH?$AA?$AA@ 100239b4     libucrt:lcidtoname_downlevel.obj
 0002:000049c0       ??_C@_1M@FLIDJFHL@?$AAh?$AAr?$AA?9?$AAB?$AAA?$AA?$AA@ 100239c0     libucrt:lcidtoname_downlevel.obj
 0002:000049cc       ??_C@_1O@FMCELNAJ@?$AAs?$AAm?$AAj?$AA?9?$AAN?$AAO?$AA?$AA@ 100239cc     libucrt:lcidtoname_downlevel.obj
 0002:000049dc       ??_C@_1M@JHGLJMGJ@?$AAa?$AAr?$AA?9?$AAD?$AAZ?$AA?$AA@ 100239dc     libucrt:lcidtoname_downlevel.obj
 0002:000049e8       ??_C@_1M@JKKFDCNP@?$AAz?$AAh?$AA?9?$AAM?$AAO?$AA?$AA@ 100239e8     libucrt:lcidtoname_downlevel.obj
 0002:000049f4       ??_C@_1M@GEEFALPE@?$AAd?$AAe?$AA?9?$AAL?$AAI?$AA?$AA@ 100239f4     libucrt:lcidtoname_downlevel.obj
 0002:00004a00       ??_C@_1M@IGEOFBG@?$AAe?$AAn?$AA?9?$AAN?$AAZ?$AA?$AA@ 10023a00     libucrt:lcidtoname_downlevel.obj
 0002:00004a0c       ??_C@_1M@KDBONEHP@?$AAe?$AAs?$AA?9?$AAC?$AAR?$AA?$AA@ 10023a0c     libucrt:lcidtoname_downlevel.obj
 0002:00004a18       ??_C@_1M@FHMDOHNN@?$AAf?$AAr?$AA?9?$AAL?$AAU?$AA?$AA@ 10023a18     libucrt:lcidtoname_downlevel.obj
 0002:00004a24       ??_C@_1BG@NFKKMAFG@?$AAb?$AAs?$AA?9?$AAB?$AAA?$AA?9?$AAL?$AAa?$AAt?$AAn?$AA?$AA@ 10023a24     libucrt:lcidtoname_downlevel.obj
 0002:00004a3c       ??_C@_1O@IMNBEMCI@?$AAs?$AAm?$AAj?$AA?9?$AAS?$AAE?$AA?$AA@ 10023a3c     libucrt:lcidtoname_downlevel.obj
 0002:00004a4c       ??_C@_1M@DHHMBNDP@?$AAa?$AAr?$AA?9?$AAM?$AAA?$AA?$AA@ 10023a4c     libucrt:lcidtoname_downlevel.obj
 0002:00004a58       ??_C@_1M@BNBLJCGH@?$AAe?$AAn?$AA?9?$AAI?$AAE?$AA?$AA@ 10023a58     libucrt:lcidtoname_downlevel.obj
 0002:00004a64       ??_C@_1M@GEPAFMDL@?$AAe?$AAs?$AA?9?$AAP?$AAA?$AA?$AA@ 10023a64     libucrt:lcidtoname_downlevel.obj
 0002:00004a70       ??_C@_1M@OJONDMDL@?$AAf?$AAr?$AA?9?$AAM?$AAC?$AA?$AA@ 10023a70     libucrt:lcidtoname_downlevel.obj
 0002:00004a7c       ??_C@_1BG@OBCNFJB@?$AAs?$AAr?$AA?9?$AAB?$AAA?$AA?9?$AAL?$AAa?$AAt?$AAn?$AA?$AA@ 10023a7c     libucrt:lcidtoname_downlevel.obj
 0002:00004a94       ??_C@_1O@KEMEEGPO@?$AAs?$AAm?$AAa?$AA?9?$AAN?$AAO?$AA?$AA@ 10023a94     libucrt:lcidtoname_downlevel.obj
 0002:00004aa4       ??_C@_1M@ELMGFODK@?$AAa?$AAr?$AA?9?$AAT?$AAN?$AA?$AA@ 10023aa4     libucrt:lcidtoname_downlevel.obj
 0002:00004ab0       ??_C@_1M@BHDLHFAF@?$AAe?$AAn?$AA?9?$AAZ?$AAA?$AA?$AA@ 10023ab0     libucrt:lcidtoname_downlevel.obj
 0002:00004abc       ??_C@_1M@BMGIGLIF@?$AAe?$AAs?$AA?9?$AAD?$AAO?$AA?$AA@ 10023abc     libucrt:lcidtoname_downlevel.obj
 0002:00004ac8       ??_C@_1BG@CMBHIPBE@?$AAs?$AAr?$AA?9?$AAB?$AAA?$AA?9?$AAC?$AAy?$AAr?$AAl?$AA?$AA@ 10023ac8     libucrt:lcidtoname_downlevel.obj
 0002:00004ae0       ??_C@_1O@HEDBLHNP@?$AAs?$AAm?$AAa?$AA?9?$AAS?$AAE?$AA?$AA@ 10023ae0     libucrt:lcidtoname_downlevel.obj
 0002:00004af0       ??_C@_1M@DAGCADIM@?$AAa?$AAr?$AA?9?$AAO?$AAM?$AA?$AA@ 10023af0     libucrt:lcidtoname_downlevel.obj
 0002:00004afc       ??_C@_1M@FODLMICG@?$AAe?$AAn?$AA?9?$AAJ?$AAM?$AA?$AA@ 10023afc     libucrt:lcidtoname_downlevel.obj
 0002:00004b08       ??_C@_1M@DNMLCIHB@?$AAe?$AAs?$AA?9?$AAV?$AAE?$AA?$AA@ 10023b08     libucrt:lcidtoname_downlevel.obj
 0002:00004b14       ??_C@_1O@EOKHMKJK@?$AAs?$AAm?$AAs?$AA?9?$AAF?$AAI?$AA?$AA@ 10023b14     libucrt:lcidtoname_downlevel.obj
 0002:00004b24       ??_C@_1M@CAFJMKOF@?$AAa?$AAr?$AA?9?$AAY?$AAE?$AA?$AA@ 10023b24     libucrt:lcidtoname_downlevel.obj
 0002:00004b30       ??_C@_1M@CBFHIJLI@?$AAe?$AAn?$AA?9?$AAC?$AAB?$AA?$AA@ 10023b30     libucrt:lcidtoname_downlevel.obj
 0002:00004b3c       ??_C@_1M@BGNFLDN@?$AAe?$AAs?$AA?9?$AAC?$AAO?$AA?$AA@ 10023b3c     libucrt:lcidtoname_downlevel.obj
 0002:00004b48       ??_C@_1O@JMPHMAMC@?$AAs?$AAm?$AAn?$AA?9?$AAF?$AAI?$AA?$AA@ 10023b48     libucrt:lcidtoname_downlevel.obj
 0002:00004b58       ??_C@_1M@JLANABKE@?$AAa?$AAr?$AA?9?$AAS?$AAY?$AA?$AA@ 10023b58     libucrt:lcidtoname_downlevel.obj
 0002:00004b64       ??_C@_1M@HPKGCFGN@?$AAe?$AAn?$AA?9?$AAB?$AAZ?$AA?$AA@ 10023b64     libucrt:lcidtoname_downlevel.obj
 0002:00004b70       ??_C@_1M@OLJCMLGM@?$AAe?$AAs?$AA?9?$AAP?$AAE?$AA?$AA@ 10023b70     libucrt:lcidtoname_downlevel.obj
 0002:00004b7c       ??_C@_1M@MKKGFKLE@?$AAa?$AAr?$AA?9?$AAJ?$AAO?$AA?$AA@ 10023b7c     libucrt:lcidtoname_downlevel.obj
 0002:00004b88       ??_C@_1M@EKPGLDNI@?$AAe?$AAn?$AA?9?$AAT?$AAT?$AA?$AA@ 10023b88     libucrt:lcidtoname_downlevel.obj
 0002:00004b94       ??_C@_1M@OONGHFHE@?$AAe?$AAs?$AA?9?$AAA?$AAR?$AA?$AA@ 10023b94     libucrt:lcidtoname_downlevel.obj
 0002:00004ba0       ??_C@_1M@OOJFGBHE@?$AAa?$AAr?$AA?9?$AAL?$AAB?$AA?$AA@ 10023ba0     libucrt:lcidtoname_downlevel.obj
 0002:00004bac       ??_C@_1M@GCEJHNEG@?$AAe?$AAn?$AA?9?$AAZ?$AAW?$AA?$AA@ 10023bac     libucrt:lcidtoname_downlevel.obj
 0002:00004bb8       ??_C@_1M@JNOCAHJI@?$AAe?$AAs?$AA?9?$AAE?$AAC?$AA?$AA@ 10023bb8     libucrt:lcidtoname_downlevel.obj
 0002:00004bc4       ??_C@_1M@JEFHPGGB@?$AAa?$AAr?$AA?9?$AAK?$AAW?$AA?$AA@ 10023bc4     libucrt:lcidtoname_downlevel.obj
 0002:00004bd0       ??_C@_1M@MLKIBJOJ@?$AAe?$AAn?$AA?9?$AAP?$AAH?$AA?$AA@ 10023bd0     libucrt:lcidtoname_downlevel.obj
 0002:00004bdc       ??_C@_1M@BDNIPEND@?$AAe?$AAs?$AA?9?$AAC?$AAL?$AA?$AA@ 10023bdc     libucrt:lcidtoname_downlevel.obj
 0002:00004be8       ??_C@_1M@MPNMEKBD@?$AAa?$AAr?$AA?9?$AAA?$AAE?$AA?$AA@ 10023be8     libucrt:lcidtoname_downlevel.obj
 0002:00004bf4       ??_C@_1M@KBJALCPI@?$AAe?$AAs?$AA?9?$AAU?$AAY?$AA?$AA@ 10023bf4     libucrt:lcidtoname_downlevel.obj
 0002:00004c00       ??_C@_1M@LLCCOAGA@?$AAa?$AAr?$AA?9?$AAB?$AAH?$AA?$AA@ 10023c00     libucrt:lcidtoname_downlevel.obj
 0002:00004c0c       ??_C@_1M@PBFNCDEL@?$AAe?$AAs?$AA?9?$AAP?$AAY?$AA?$AA@ 10023c0c     libucrt:lcidtoname_downlevel.obj
 0002:00004c18       ??_C@_1M@EDGINPNP@?$AAa?$AAr?$AA?9?$AAQ?$AAA?$AA?$AA@ 10023c18     libucrt:lcidtoname_downlevel.obj
 0002:00004c24       ??_C@_1M@MKDBIIJI@?$AAe?$AAs?$AA?9?$AAB?$AAO?$AA?$AA@ 10023c24     libucrt:lcidtoname_downlevel.obj
 0002:00004c30       ??_C@_1M@CPKKEBLD@?$AAe?$AAs?$AA?9?$AAS?$AAV?$AA?$AA@ 10023c30     libucrt:lcidtoname_downlevel.obj
 0002:00004c3c       ??_C@_1M@NDBGMMJL@?$AAe?$AAs?$AA?9?$AAH?$AAN?$AA?$AA@ 10023c3c     libucrt:lcidtoname_downlevel.obj
 0002:00004c48       ??_C@_1M@JIJIBHDP@?$AAe?$AAs?$AA?9?$AAN?$AAI?$AA?$AA@ 10023c48     libucrt:lcidtoname_downlevel.obj
 0002:00004c54       ??_C@_1M@CGFMKEEK@?$AAe?$AAs?$AA?9?$AAP?$AAR?$AA?$AA@ 10023c54     libucrt:lcidtoname_downlevel.obj
 0002:00004c60       ??_C@_1O@ICJHKIIK@?$AAz?$AAh?$AA?9?$AAC?$AAH?$AAT?$AA?$AA@ 10023c60     libucrt:lcidtoname_downlevel.obj
 0002:00004c70       ??_C@_15CLNEJCE@?$AAs?$AAr?$AA?$AA@ 10023c70     libucrt:lcidtoname_downlevel.obj
 0002:00005398       ??_C@_1M@KAHEKEIG@?$AAa?$AAf?$AA?9?$AAz?$AAa?$AA?$AA@ 10024398     libucrt:lcidtoname_downlevel.obj
 0002:000053a4       ??_C@_1M@GIECOABL@?$AAa?$AAr?$AA?9?$AAa?$AAe?$AA?$AA@ 100243a4     libucrt:lcidtoname_downlevel.obj
 0002:000053b0       ??_C@_1M@BMLMEKGI@?$AAa?$AAr?$AA?9?$AAb?$AAh?$AA?$AA@ 100243b0     libucrt:lcidtoname_downlevel.obj
 0002:000053bc       ??_C@_1M@DAPFDGGB@?$AAa?$AAr?$AA?9?$AAd?$AAz?$AA?$AA@ 100243bc     libucrt:lcidtoname_downlevel.obj
 0002:000053c8       ??_C@_1M@FJNKGKIG@?$AAa?$AAr?$AA?9?$AAe?$AAg?$AA?$AA@ 100243c8     libucrt:lcidtoname_downlevel.obj
 0002:000053d4       ??_C@_1M@FLGKKCLO@?$AAa?$AAr?$AA?9?$AAi?$AAq?$AA?$AA@ 100243d4     libucrt:lcidtoname_downlevel.obj
 0002:000053e0       ??_C@_1M@GNDIPALM@?$AAa?$AAr?$AA?9?$AAj?$AAo?$AA?$AA@ 100243e0     libucrt:lcidtoname_downlevel.obj
 0002:000053ec       ??_C@_1M@DDMJFMGJ@?$AAa?$AAr?$AA?9?$AAk?$AAw?$AA?$AA@ 100243ec     libucrt:lcidtoname_downlevel.obj
 0002:000053f8       ??_C@_1M@EJALMLHM@?$AAa?$AAr?$AA?9?$AAl?$AAb?$AA?$AA@ 100243f8     libucrt:lcidtoname_downlevel.obj
 0002:00005404       ??_C@_1M@MOBDBLOC@?$AAa?$AAr?$AA?9?$AAl?$AAy?$AA?$AA@ 10024404     libucrt:lcidtoname_downlevel.obj
 0002:00005410       ??_C@_1M@JAOCLHDH@?$AAa?$AAr?$AA?9?$AAm?$AAa?$AA?$AA@ 10024410     libucrt:lcidtoname_downlevel.obj
 0002:0000541c       ??_C@_1M@JHPMKJIE@?$AAa?$AAr?$AA?9?$AAo?$AAm?$AA?$AA@ 1002441c     libucrt:lcidtoname_downlevel.obj
 0002:00005428       ??_C@_1M@OEPGHFNH@?$AAa?$AAr?$AA?9?$AAq?$AAa?$AA?$AA@ 10024428     libucrt:lcidtoname_downlevel.obj
 0002:00005434       ??_C@_1M@KJDONENM@?$AAa?$AAr?$AA?9?$AAs?$AAa?$AA?$AA@ 10024434     libucrt:lcidtoname_downlevel.obj
 0002:00005440       ??_C@_1M@DMJDKLKM@?$AAa?$AAr?$AA?9?$AAs?$AAy?$AA?$AA@ 10024440     libucrt:lcidtoname_downlevel.obj
 0002:0000544c       ??_C@_1M@OMFIPEDC@?$AAa?$AAr?$AA?9?$AAt?$AAn?$AA?$AA@ 1002444c     libucrt:lcidtoname_downlevel.obj
 0002:00005458       ??_C@_1M@IHMHGAON@?$AAa?$AAr?$AA?9?$AAy?$AAe?$AA?$AA@ 10024458     libucrt:lcidtoname_downlevel.obj
 0002:00005464       ??_C@_1BG@KDCPGJGB@?$AAa?$AAz?$AA?9?$AAa?$AAz?$AA?9?$AAc?$AAy?$AAr?$AAl?$AA?$AA@ 10024464     libucrt:lcidtoname_downlevel.obj
 0002:0000547c       ??_C@_1BG@IBCKDDOE@?$AAa?$AAz?$AA?9?$AAa?$AAz?$AA?9?$AAl?$AAa?$AAt?$AAn?$AA?$AA@ 1002447c     libucrt:lcidtoname_downlevel.obj
 0002:00005494       ??_C@_1M@EGPFDCPD@?$AAb?$AAe?$AA?9?$AAb?$AAy?$AA?$AA@ 10024494     libucrt:lcidtoname_downlevel.obj
 0002:000054a0       ??_C@_1M@PCMGMCGC@?$AAb?$AAg?$AA?9?$AAb?$AAg?$AA?$AA@ 100244a0     libucrt:lcidtoname_downlevel.obj
 0002:000054ac       ??_C@_1M@BJBMFGOB@?$AAb?$AAn?$AA?9?$AAi?$AAn?$AA?$AA@ 100244ac     libucrt:lcidtoname_downlevel.obj
 0002:000054b8       ??_C@_1BG@EAKMMACD@?$AAb?$AAs?$AA?9?$AAb?$AAa?$AA?9?$AAl?$AAa?$AAt?$AAn?$AA?$AA@ 100244b8     libucrt:lcidtoname_downlevel.obj
 0002:000054d0       ??_C@_1M@KGADAODK@?$AAc?$AAa?$AA?9?$AAe?$AAs?$AA?$AA@ 100244d0     libucrt:lcidtoname_downlevel.obj
 0002:000054dc       ??_C@_1M@COAJPDHI@?$AAc?$AAs?$AA?9?$AAc?$AAz?$AA?$AA@ 100244dc     libucrt:lcidtoname_downlevel.obj
 0002:000054e8       ??_C@_1M@DHBHFONH@?$AAc?$AAy?$AA?9?$AAg?$AAb?$AA?$AA@ 100244e8     libucrt:lcidtoname_downlevel.obj
 0002:000054f4       ??_C@_1M@IMGKELGA@?$AAd?$AAa?$AA?9?$AAd?$AAk?$AA?$AA@ 100244f4     libucrt:lcidtoname_downlevel.obj
 0002:00005500       ??_C@_1M@NNDGDNGA@?$AAd?$AAe?$AA?9?$AAa?$AAt?$AA?$AA@ 10024500     libucrt:lcidtoname_downlevel.obj
 0002:0000550c       ??_C@_1M@IKDBHEEM@?$AAd?$AAe?$AA?9?$AAc?$AAh?$AA?$AA@ 1002450c     libucrt:lcidtoname_downlevel.obj
 0002:00005518       ??_C@_1M@GFFOJMCJ@?$AAd?$AAe?$AA?9?$AAd?$AAe?$AA?$AA@ 10024518     libucrt:lcidtoname_downlevel.obj
 0002:00005524       ??_C@_1M@MDNLKBPM@?$AAd?$AAe?$AA?9?$AAl?$AAi?$AA?$AA@ 10024524     libucrt:lcidtoname_downlevel.obj
 0002:00005530       ??_C@_1M@NJBEEJNL@?$AAd?$AAe?$AA?9?$AAl?$AAu?$AA?$AA@ 10024530     libucrt:lcidtoname_downlevel.obj
 0002:0000553c       ??_C@_1O@GNNELBAP@?$AAd?$AAi?$AAv?$AA?9?$AAm?$AAv?$AA?$AA@ 1002453c     libucrt:lcidtoname_downlevel.obj
 0002:0000554c       ??_C@_1M@EJLEOGAE@?$AAe?$AAl?$AA?9?$AAg?$AAr?$AA?$AA@ 1002454c     libucrt:lcidtoname_downlevel.obj
 0002:00005558       ??_C@_1M@GMPONJN@?$AAe?$AAn?$AA?9?$AAa?$AAu?$AA?$AA@ 10024558     libucrt:lcidtoname_downlevel.obj
 0002:00005564       ??_C@_1M@NIDIIPGF@?$AAe?$AAn?$AA?9?$AAb?$AAz?$AA?$AA@ 10024564     libucrt:lcidtoname_downlevel.obj
 0002:00005570       ??_C@_1M@JEHMIMFO@?$AAe?$AAn?$AA?9?$AAc?$AAa?$AA?$AA@ 10024570     libucrt:lcidtoname_downlevel.obj
 0002:0000557c       ??_C@_1M@IGMJCDLA@?$AAe?$AAn?$AA?9?$AAc?$AAb?$AA?$AA@ 1002457c     libucrt:lcidtoname_downlevel.obj
 0002:00005588       ??_C@_1M@BNFIGBKG@?$AAe?$AAn?$AA?9?$AAg?$AAb?$AA?$AA@ 10024588     libucrt:lcidtoname_downlevel.obj
 0002:00005594       ??_C@_1M@LKIFDIGP@?$AAe?$AAn?$AA?9?$AAi?$AAe?$AA?$AA@ 10024594     libucrt:lcidtoname_downlevel.obj
 0002:000055a0       ??_C@_1M@PJKFGCCO@?$AAe?$AAn?$AA?9?$AAj?$AAm?$AA?$AA@ 100245a0     libucrt:lcidtoname_downlevel.obj
 0002:000055ac       ??_C@_1M@KPPKEPBO@?$AAe?$AAn?$AA?9?$AAn?$AAz?$AA?$AA@ 100245ac     libucrt:lcidtoname_downlevel.obj
 0002:000055b8       ??_C@_1M@GMDGLDOB@?$AAe?$AAn?$AA?9?$AAp?$AAh?$AA?$AA@ 100245b8     libucrt:lcidtoname_downlevel.obj
 0002:000055c4       ??_C@_1M@ONGIBJNA@?$AAe?$AAn?$AA?9?$AAt?$AAt?$AA?$AA@ 100245c4     libucrt:lcidtoname_downlevel.obj
 0002:000055d0       ??_C@_1M@LLODPCMM@?$AAe?$AAn?$AA?9?$AAu?$AAs?$AA?$AA@ 100245d0     libucrt:lcidtoname_downlevel.obj
 0002:000055dc       ??_C@_1M@LAKFNPAN@?$AAe?$AAn?$AA?9?$AAz?$AAa?$AA?$AA@ 100245dc     libucrt:lcidtoname_downlevel.obj
 0002:000055e8       ??_C@_1M@MFNHNHEO@?$AAe?$AAn?$AA?9?$AAz?$AAw?$AA?$AA@ 100245e8     libucrt:lcidtoname_downlevel.obj
 0002:000055f4       ??_C@_1M@EJEINPHM@?$AAe?$AAs?$AA?9?$AAa?$AAr?$AA?$AA@ 100245f4     libucrt:lcidtoname_downlevel.obj
 0002:00005600       ??_C@_1M@GNKPCCJA@?$AAe?$AAs?$AA?9?$AAb?$AAo?$AA?$AA@ 10024600     libucrt:lcidtoname_downlevel.obj
 0002:0000560c       ??_C@_1M@LEEGFONL@?$AAe?$AAs?$AA?9?$AAc?$AAl?$AA?$AA@ 1002460c     libucrt:lcidtoname_downlevel.obj
 0002:00005618       ??_C@_1M@KGPDPBDF@?$AAe?$AAs?$AA?9?$AAc?$AAo?$AA?$AA@ 10024618     libucrt:lcidtoname_downlevel.obj
 0002:00005624       ??_C@_1M@EIAHOHH@?$AAe?$AAs?$AA?9?$AAc?$AAr?$AA?$AA@ 10024624     libucrt:lcidtoname_downlevel.obj
 0002:00005630       ??_C@_1M@LLPGMBIN@?$AAe?$AAs?$AA?9?$AAd?$AAo?$AA?$AA@ 10024630     libucrt:lcidtoname_downlevel.obj
 0002:0000563c       ??_C@_1M@DKHMKNJA@?$AAe?$AAs?$AA?9?$AAe?$AAc?$AA?$AA@ 1002463c     libucrt:lcidtoname_downlevel.obj
 0002:00005648       ??_C@_1M@GKGFPKAP@?$AAe?$AAs?$AA?9?$AAe?$AAs?$AA?$AA@ 10024648     libucrt:lcidtoname_downlevel.obj
 0002:00005654       ??_C@_1M@LKHKGDLN@?$AAe?$AAs?$AA?9?$AAg?$AAt?$AA?$AA@ 10024654     libucrt:lcidtoname_downlevel.obj
 0002:00005660       ??_C@_1M@HEIIGGJD@?$AAe?$AAs?$AA?9?$AAh?$AAn?$AA?$AA@ 10024660     libucrt:lcidtoname_downlevel.obj
 0002:0000566c       ??_C@_1M@FBDHPPGD@?$AAe?$AAs?$AA?9?$AAm?$AAx?$AA?$AA@ 1002466c     libucrt:lcidtoname_downlevel.obj
 0002:00005678       ??_C@_1M@DPAGLNDH@?$AAe?$AAs?$AA?9?$AAn?$AAi?$AA?$AA@ 10024678     libucrt:lcidtoname_downlevel.obj
 0002:00005684       ??_C@_1M@MDGOPGDD@?$AAe?$AAs?$AA?9?$AAp?$AAa?$AA?$AA@ 10024684     libucrt:lcidtoname_downlevel.obj
 0002:00005690       ??_C@_1M@EMAMGBGE@?$AAe?$AAs?$AA?9?$AAp?$AAe?$AA?$AA@ 10024690     libucrt:lcidtoname_downlevel.obj
 0002:0000569c       ??_C@_1M@IBMCAOEC@?$AAe?$AAs?$AA?9?$AAp?$AAr?$AA?$AA@ 1002469c     libucrt:lcidtoname_downlevel.obj
 0002:000056a8       ??_C@_1M@FGMDIJED@?$AAe?$AAs?$AA?9?$AAp?$AAy?$AA?$AA@ 100246a8     libucrt:lcidtoname_downlevel.obj
 0002:000056b4       ??_C@_1M@IIDEOLLL@?$AAe?$AAs?$AA?9?$AAs?$AAv?$AA?$AA@ 100246b4     libucrt:lcidtoname_downlevel.obj
 0002:000056c0       ??_C@_1M@GAOBIPA@?$AAe?$AAs?$AA?9?$AAu?$AAy?$AA?$AA@ 100246c0     libucrt:lcidtoname_downlevel.obj
 0002:000056cc       ??_C@_1M@JKFFICHJ@?$AAe?$AAs?$AA?9?$AAv?$AAe?$AA?$AA@ 100246cc     libucrt:lcidtoname_downlevel.obj
 0002:000056d8       ??_C@_1M@PNMLOJDF@?$AAe?$AAt?$AA?9?$AAe?$AAe?$AA?$AA@ 100246d8     libucrt:lcidtoname_downlevel.obj
 0002:000056e4       ??_C@_1M@GHHLIKEI@?$AAe?$AAu?$AA?9?$AAe?$AAs?$AA?$AA@ 100246e4     libucrt:lcidtoname_downlevel.obj
 0002:000056f0       ??_C@_1M@PBNONODE@?$AAf?$AAa?$AA?9?$AAi?$AAr?$AA?$AA@ 100246f0     libucrt:lcidtoname_downlevel.obj
 0002:000056fc       ??_C@_1M@JEEHPMIL@?$AAf?$AAi?$AA?9?$AAf?$AAi?$AA?$AA@ 100246fc     libucrt:lcidtoname_downlevel.obj
 0002:00005708       ??_C@_1M@LMDCNDBA@?$AAf?$AAo?$AA?9?$AAf?$AAo?$AA?$AA@ 10024708     libucrt:lcidtoname_downlevel.obj
 0002:00005714       ??_C@_1M@JKEOHLDK@?$AAf?$AAr?$AA?9?$AAb?$AAe?$AA?$AA@ 10024714     libucrt:lcidtoname_downlevel.obj
 0002:00005720       ??_C@_1M@NOHADPMI@?$AAf?$AAr?$AA?9?$AAc?$AAa?$AA?$AA@ 10024720     libucrt:lcidtoname_downlevel.obj
 0002:0000572c       ??_C@_1M@KDHIHAEC@?$AAf?$AAr?$AA?9?$AAc?$AAh?$AA?$AA@ 1002472c     libucrt:lcidtoname_downlevel.obj
 0002:00005738       ??_C@_1M@MMBBFGAK@?$AAf?$AAr?$AA?9?$AAf?$AAr?$AA?$AA@ 10024738     libucrt:lcidtoname_downlevel.obj
 0002:00005744       ??_C@_1M@PAFNENNF@?$AAf?$AAr?$AA?9?$AAl?$AAu?$AA?$AA@ 10024744     libucrt:lcidtoname_downlevel.obj
 0002:00005750       ??_C@_1M@EOHDJGDD@?$AAf?$AAr?$AA?9?$AAm?$AAc?$AA?$AA@ 10024750     libucrt:lcidtoname_downlevel.obj
 0002:0000575c       ??_C@_1M@FAPLLOPF@?$AAg?$AAl?$AA?9?$AAe?$AAs?$AA?$AA@ 1002475c     libucrt:lcidtoname_downlevel.obj
 0002:00005768       ??_C@_1M@FOPBFLOO@?$AAg?$AAu?$AA?9?$AAi?$AAn?$AA?$AA@ 10024768     libucrt:lcidtoname_downlevel.obj
 0002:00005774       ??_C@_1M@KBMCINPM@?$AAh?$AAe?$AA?9?$AAi?$AAl?$AA?$AA@ 10024774     libucrt:lcidtoname_downlevel.obj
 0002:00005780       ??_C@_1M@BBPHKFPJ@?$AAh?$AAi?$AA?9?$AAi?$AAn?$AA?$AA@ 10024780     libucrt:lcidtoname_downlevel.obj
 0002:0000578c       ??_C@_1M@PMBNDPHD@?$AAh?$AAr?$AA?9?$AAb?$AAa?$AA?$AA@ 1002478c     libucrt:lcidtoname_downlevel.obj
 0002:00005798       ??_C@_1M@BPCKOEGE@?$AAh?$AAr?$AA?9?$AAh?$AAr?$AA?$AA@ 10024798     libucrt:lcidtoname_downlevel.obj
 0002:000057a4       ??_C@_1M@GACBMHKE@?$AAh?$AAu?$AA?9?$AAh?$AAu?$AA?$AA@ 100247a4     libucrt:lcidtoname_downlevel.obj
 0002:000057b0       ??_C@_1M@MILPAJJC@?$AAh?$AAy?$AA?9?$AAa?$AAm?$AA?$AA@ 100247b0     libucrt:lcidtoname_downlevel.obj
 0002:000057bc       ??_C@_1M@BABBICEC@?$AAi?$AAd?$AA?9?$AAi?$AAd?$AA?$AA@ 100247bc     libucrt:lcidtoname_downlevel.obj
 0002:000057c8       ??_C@_1M@BIKNHHPF@?$AAi?$AAs?$AA?9?$AAi?$AAs?$AA?$AA@ 100247c8     libucrt:lcidtoname_downlevel.obj
 0002:000057d4       ??_C@_1M@NMPCJPHE@?$AAi?$AAt?$AA?9?$AAc?$AAh?$AA?$AA@ 100247d4     libucrt:lcidtoname_downlevel.obj
 0002:000057e0       ??_C@_1M@GHKGFEDF@?$AAi?$AAt?$AA?9?$AAi?$AAt?$AA?$AA@ 100247e0     libucrt:lcidtoname_downlevel.obj
 0002:000057ec       ??_C@_1M@NIEJCJJA@?$AAj?$AAa?$AA?9?$AAj?$AAp?$AA?$AA@ 100247ec     libucrt:lcidtoname_downlevel.obj
 0002:000057f8       ??_C@_1M@JILFNBIM@?$AAk?$AAa?$AA?9?$AAg?$AAe?$AA?$AA@ 100247f8     libucrt:lcidtoname_downlevel.obj
 0002:00005804       ??_C@_1M@PACPMGPH@?$AAk?$AAk?$AA?9?$AAk?$AAz?$AA?$AA@ 10024804     libucrt:lcidtoname_downlevel.obj
 0002:00005810       ??_C@_1M@IELFGMHA@?$AAk?$AAn?$AA?9?$AAi?$AAn?$AA?$AA@ 10024810     libucrt:lcidtoname_downlevel.obj
 0002:0000581c       ??_C@_1O@IBBJHCH@?$AAk?$AAo?$AAk?$AA?9?$AAi?$AAn?$AA?$AA@ 1002481c     libucrt:lcidtoname_downlevel.obj
 0002:0000582c       ??_C@_1M@DMHAEOGC@?$AAk?$AAo?$AA?9?$AAk?$AAr?$AA?$AA@ 1002482c     libucrt:lcidtoname_downlevel.obj
 0002:00005838       ??_C@_1M@HBAHBIGA@?$AAk?$AAy?$AA?9?$AAk?$AAg?$AA?$AA@ 10024838     libucrt:lcidtoname_downlevel.obj
 0002:00005844       ??_C@_1M@KPMILCJG@?$AAl?$AAt?$AA?9?$AAl?$AAt?$AA?$AA@ 10024844     libucrt:lcidtoname_downlevel.obj
 0002:00005850       ??_C@_1M@BDEKKCA@?$AAl?$AAv?$AA?9?$AAl?$AAv?$AA?$AA@ 10024850     libucrt:lcidtoname_downlevel.obj
 0002:0000585c       ??_C@_1M@ELCKCCJJ@?$AAm?$AAi?$AA?9?$AAn?$AAz?$AA?$AA@ 1002485c     libucrt:lcidtoname_downlevel.obj
 0002:00005868       ??_C@_1M@CBOOLAPA@?$AAm?$AAk?$AA?9?$AAm?$AAk?$AA?$AA@ 10024868     libucrt:lcidtoname_downlevel.obj
 0002:00005874       ??_C@_1M@GPHNBJKN@?$AAm?$AAl?$AA?9?$AAi?$AAn?$AA?$AA@ 10024874     libucrt:lcidtoname_downlevel.obj
 0002:00005880       ??_C@_1M@PABJILIG@?$AAm?$AAn?$AA?9?$AAm?$AAn?$AA?$AA@ 10024880     libucrt:lcidtoname_downlevel.obj
 0002:0000588c       ??_C@_1M@FGBKKIPG@?$AAm?$AAr?$AA?9?$AAi?$AAn?$AA?$AA@ 1002488c     libucrt:lcidtoname_downlevel.obj
 0002:00005898       ??_C@_1M@NDBPDDAL@?$AAm?$AAs?$AA?9?$AAb?$AAn?$AA?$AA@ 10024898     libucrt:lcidtoname_downlevel.obj
 0002:000058a4       ??_C@_1M@OPIHOOPI@?$AAm?$AAs?$AA?9?$AAm?$AAy?$AA?$AA@ 100248a4     libucrt:lcidtoname_downlevel.obj
 0002:000058b0       ??_C@_1M@PPDBCNFM@?$AAm?$AAt?$AA?9?$AAm?$AAt?$AA?$AA@ 100248b0     libucrt:lcidtoname_downlevel.obj
 0002:000058bc       ??_C@_1M@KDJDKMDD@?$AAn?$AAb?$AA?9?$AAn?$AAo?$AA?$AA@ 100248bc     libucrt:lcidtoname_downlevel.obj
 0002:000058c8       ??_C@_1M@KFCFLMJP@?$AAn?$AAl?$AA?9?$AAb?$AAe?$AA?$AA@ 100248c8     libucrt:lcidtoname_downlevel.obj
 0002:000058d4       ??_C@_1M@KPOPDDGO@?$AAn?$AAl?$AA?9?$AAn?$AAl?$AA?$AA@ 100248d4     libucrt:lcidtoname_downlevel.obj
 0002:000058e0       ??_C@_1M@LJKPEMLN@?$AAn?$AAn?$AA?9?$AAn?$AAo?$AA?$AA@ 100248e0     libucrt:lcidtoname_downlevel.obj
 0002:000058ec       ??_C@_1M@BDGHHBFL@?$AAn?$AAs?$AA?9?$AAz?$AAa?$AA?$AA@ 100248ec     libucrt:lcidtoname_downlevel.obj
 0002:000058f8       ??_C@_1M@IDEHOAP@?$AAp?$AAa?$AA?9?$AAi?$AAn?$AA?$AA@ 100248f8     libucrt:lcidtoname_downlevel.obj
 0002:00005904       ??_C@_1M@HDBKGOGH@?$AAp?$AAl?$AA?9?$AAp?$AAl?$AA?$AA@ 10024904     libucrt:lcidtoname_downlevel.obj
 0002:00005910       ??_C@_1M@LJLLCMEH@?$AAp?$AAt?$AA?9?$AAb?$AAr?$AA?$AA@ 10024910     libucrt:lcidtoname_downlevel.obj
 0002:0000591c       ??_C@_1M@NCMONAAL@?$AAp?$AAt?$AA?9?$AAp?$AAt?$AA?$AA@ 1002491c     libucrt:lcidtoname_downlevel.obj
 0002:00005928       ??_C@_1O@EAKMAJDN@?$AAq?$AAu?$AAz?$AA?9?$AAb?$AAo?$AA?$AA@ 10024928     libucrt:lcidtoname_downlevel.obj
 0002:00005938       ??_C@_1O@BHHPIGDN@?$AAq?$AAu?$AAz?$AA?9?$AAe?$AAc?$AA?$AA@ 10024938     libucrt:lcidtoname_downlevel.obj
 0002:00005948       ??_C@_1O@GBAPEKMJ@?$AAq?$AAu?$AAz?$AA?9?$AAp?$AAe?$AA?$AA@ 10024948     libucrt:lcidtoname_downlevel.obj
 0002:00005958       ??_C@_1M@CLGLEFBO@?$AAr?$AAo?$AA?9?$AAr?$AAo?$AA?$AA@ 10024958     libucrt:lcidtoname_downlevel.obj
 0002:00005964       ??_C@_1M@CEEDODME@?$AAr?$AAu?$AA?9?$AAr?$AAu?$AA?$AA@ 10024964     libucrt:lcidtoname_downlevel.obj
 0002:00005970       ??_C@_1M@HPKKKMPP@?$AAs?$AAa?$AA?9?$AAi?$AAn?$AA?$AA@ 10024970     libucrt:lcidtoname_downlevel.obj
 0002:0000597c       ??_C@_1M@BKMAIGOJ@?$AAs?$AAe?$AA?9?$AAf?$AAi?$AA?$AA@ 1002497c     libucrt:lcidtoname_downlevel.obj
 0002:00005988       ??_C@_1M@NDPIFLFI@?$AAs?$AAe?$AA?9?$AAn?$AAo?$AA?$AA@ 10024988     libucrt:lcidtoname_downlevel.obj
 0002:00005994       ??_C@_1M@DANKKHJ@?$AAs?$AAe?$AA?9?$AAs?$AAe?$AA?$AA@ 10024994     libucrt:lcidtoname_downlevel.obj
 0002:000059a0       ??_C@_1M@PNBLONPJ@?$AAs?$AAk?$AA?9?$AAs?$AAk?$AA?$AA@ 100249a0     libucrt:lcidtoname_downlevel.obj
 0002:000059ac       ??_C@_1M@LFMODOAL@?$AAs?$AAl?$AA?9?$AAs?$AAi?$AA?$AA@ 100249ac     libucrt:lcidtoname_downlevel.obj
 0002:000059b8       ??_C@_1O@DFKOMPG@?$AAs?$AAm?$AAa?$AA?9?$AAn?$AAo?$AA?$AA@ 100249b8     libucrt:lcidtoname_downlevel.obj
 0002:000059c8       ??_C@_1O@NDKPBNNH@?$AAs?$AAm?$AAa?$AA?9?$AAs?$AAe?$AA?$AA@ 100249c8     libucrt:lcidtoname_downlevel.obj
 0002:000059d8       ??_C@_1O@PLLKBHAB@?$AAs?$AAm?$AAj?$AA?9?$AAn?$AAo?$AA?$AA@ 100249d8     libucrt:lcidtoname_downlevel.obj
 0002:000059e8       ??_C@_1O@CLEPOGCA@?$AAs?$AAm?$AAj?$AA?9?$AAs?$AAe?$AA?$AA@ 100249e8     libucrt:lcidtoname_downlevel.obj
 0002:000059f8       ??_C@_1O@DLGJGKMK@?$AAs?$AAm?$AAn?$AA?9?$AAf?$AAi?$AA?$AA@ 100249f8     libucrt:lcidtoname_downlevel.obj
 0002:00005a08       ??_C@_1O@OJDJGAJC@?$AAs?$AAm?$AAs?$AA?9?$AAf?$AAi?$AA?$AA@ 10024a08     libucrt:lcidtoname_downlevel.obj
 0002:00005a18       ??_C@_1M@BOFOGHPB@?$AAs?$AAq?$AA?9?$AAa?$AAl?$AA?$AA@ 10024a18     libucrt:lcidtoname_downlevel.obj
 0002:00005a24       ??_C@_1BG@LJBBIPGB@?$AAs?$AAr?$AA?9?$AAb?$AAa?$AA?9?$AAc?$AAy?$AAr?$AAl?$AA?$AA@ 10024a24     libucrt:lcidtoname_downlevel.obj
 0002:00005a3c       ??_C@_1BG@JLBENFOE@?$AAs?$AAr?$AA?9?$AAb?$AAa?$AA?9?$AAl?$AAa?$AAt?$AAn?$AA?$AA@ 10024a3c     libucrt:lcidtoname_downlevel.obj
 0002:00005a54       ??_C@_1BG@KODPNHE@?$AAs?$AAr?$AA?9?$AAs?$AAp?$AA?9?$AAc?$AAy?$AAr?$AAl?$AA?$AA@ 10024a54     libucrt:lcidtoname_downlevel.obj
 0002:00005a6c       ??_C@_1BG@CIOGKHPB@?$AAs?$AAr?$AA?9?$AAs?$AAp?$AA?9?$AAl?$AAa?$AAt?$AAn?$AA?$AA@ 10024a6c     libucrt:lcidtoname_downlevel.obj
 0002:00005a84       ??_C@_1M@NGFJLMAC@?$AAs?$AAv?$AA?9?$AAf?$AAi?$AA?$AA@ 10024a84     libucrt:lcidtoname_downlevel.obj
 0002:00005a90       ??_C@_1M@MPJEJAJC@?$AAs?$AAv?$AA?9?$AAs?$AAe?$AA?$AA@ 10024a90     libucrt:lcidtoname_downlevel.obj
 0002:00005a9c       ??_C@_1M@MPNDHLFK@?$AAs?$AAw?$AA?9?$AAk?$AAe?$AA?$AA@ 10024a9c     libucrt:lcidtoname_downlevel.obj
 0002:00005aa8       ??_C@_1O@KOHBJJI@?$AAs?$AAy?$AAr?$AA?9?$AAs?$AAy?$AA?$AA@ 10024aa8     libucrt:lcidtoname_downlevel.obj
 0002:00005ab8       ??_C@_1M@LDCEFHA@?$AAt?$AAa?$AA?9?$AAi?$AAn?$AA?$AA@ 10024ab8     libucrt:lcidtoname_downlevel.obj
 0002:00005ac4       ??_C@_1M@CNJOFAK@?$AAt?$AAe?$AA?9?$AAi?$AAn?$AA?$AA@ 10024ac4     libucrt:lcidtoname_downlevel.obj
 0002:00005ad0       ??_C@_1M@GNAECACD@?$AAt?$AAh?$AA?9?$AAt?$AAh?$AA?$AA@ 10024ad0     libucrt:lcidtoname_downlevel.obj
 0002:00005adc       ??_C@_1M@CHBIHOJO@?$AAt?$AAn?$AA?9?$AAz?$AAa?$AA?$AA@ 10024adc     libucrt:lcidtoname_downlevel.obj
 0002:00005ae8       ??_C@_1M@GCCMIGPJ@?$AAt?$AAr?$AA?9?$AAt?$AAr?$AA?$AA@ 10024ae8     libucrt:lcidtoname_downlevel.obj
 0002:00005af4       ??_C@_1M@CELMCNBK@?$AAt?$AAt?$AA?9?$AAr?$AAu?$AA?$AA@ 10024af4     libucrt:lcidtoname_downlevel.obj
 0002:00005b00       ??_C@_1M@KLMCELGA@?$AAu?$AAk?$AA?9?$AAu?$AAa?$AA?$AA@ 10024b00     libucrt:lcidtoname_downlevel.obj
 0002:00005b0c       ??_C@_1M@EPAJJAJF@?$AAu?$AAr?$AA?9?$AAp?$AAk?$AA?$AA@ 10024b0c     libucrt:lcidtoname_downlevel.obj
 0002:00005b18       ??_C@_1BG@GEGPMCDJ@?$AAu?$AAz?$AA?9?$AAu?$AAz?$AA?9?$AAc?$AAy?$AAr?$AAl?$AA?$AA@ 10024b18     libucrt:lcidtoname_downlevel.obj
 0002:00005b30       ??_C@_1BG@EGGKJILM@?$AAu?$AAz?$AA?9?$AAu?$AAz?$AA?9?$AAl?$AAa?$AAt?$AAn?$AA?$AA@ 10024b30     libucrt:lcidtoname_downlevel.obj
 0002:00005b48       ??_C@_1M@GFOCLFF@?$AAv?$AAi?$AA?9?$AAv?$AAn?$AA?$AA@ 10024b48     libucrt:lcidtoname_downlevel.obj
 0002:00005b54       ??_C@_1M@CPAMEDFI@?$AAx?$AAh?$AA?9?$AAz?$AAa?$AA?$AA@ 10024b54     libucrt:lcidtoname_downlevel.obj
 0002:00005b60       ??_C@_1O@EBKIFIGN@?$AAz?$AAh?$AA?9?$AAc?$AAh?$AAs?$AA?$AA@ 10024b60     libucrt:lcidtoname_downlevel.obj
 0002:00005b70       ??_C@_1O@NMHPGANE@?$AAz?$AAh?$AA?9?$AAc?$AAh?$AAt?$AA?$AA@ 10024b70     libucrt:lcidtoname_downlevel.obj
 0002:00005b80       ??_C@_1M@LPINJOMC@?$AAz?$AAh?$AA?9?$AAc?$AAn?$AA?$AA@ 10024b80     libucrt:lcidtoname_downlevel.obj
 0002:00005b8c       ??_C@_1M@OCJEJODD@?$AAz?$AAh?$AA?9?$AAh?$AAk?$AA?$AA@ 10024b8c     libucrt:lcidtoname_downlevel.obj
 0002:00005b98       ??_C@_1M@DNDLJINH@?$AAz?$AAh?$AA?9?$AAm?$AAo?$AA?$AA@ 10024b98     libucrt:lcidtoname_downlevel.obj
 0002:00005ba4       ??_C@_1M@MBFDNDND@?$AAz?$AAh?$AA?9?$AAs?$AAg?$AA?$AA@ 10024ba4     libucrt:lcidtoname_downlevel.obj
 0002:00005bb0       ??_C@_1M@IMEPLEPE@?$AAz?$AAh?$AA?9?$AAt?$AAw?$AA?$AA@ 10024bb0     libucrt:lcidtoname_downlevel.obj
 0002:00005bbc       ??_C@_1M@BBGHNHJP@?$AAz?$AAu?$AA?9?$AAz?$AAa?$AA?$AA@ 10024bbc     libucrt:lcidtoname_downlevel.obj
 0002:00005bc8       ?large_power_data@?1??multiply_by_power_of_ten@__crt_strtox@@YA_NAAUbig_integer@2@I@Z@4QBIB 10024bc8     libucrt:cfout.obj
 0002:000064d0       ?large_power_indices@?1??multiply_by_power_of_ten@__crt_strtox@@YA_NAAUbig_integer@2@I@Z@4QBUunpack_index@?1??12@YA_N0I@Z@B 100254d0     libucrt:cfout.obj
 0002:00006568       ?small_powers_of_ten@?1??multiply_by_power_of_ten@__crt_strtox@@YA_NAAUbig_integer@2@I@Z@4QBIB 10025568     libucrt:cfout.obj
 0002:0000658c       ??_C@_01GBGANLPD@0?$AA@    1002558c     libucrt:cfout.obj
 0002:00006590       ??_C@_05DNEBIAHO@1?$CDINF?$AA@ 10025590     libucrt:cfout.obj
 0002:00006598       ??_C@_06IMKFLFPG@1?$CDQNAN?$AA@ 10025598     libucrt:cfout.obj
 0002:000065a0       ??_C@_06PGGFOGJG@1?$CDSNAN?$AA@ 100255a0     libucrt:cfout.obj
 0002:000065a8       ??_C@_05PHHOCPM@1?$CDIND?$AA@ 100255a8     libucrt:cfout.obj
 0002:00006710       __infinity                 10025710     libucrt:87tran.obj
 0002:0000671a       __minfinity                1002571a     libucrt:87tran.obj
 0002:00006724       __logemax                  10025724     libucrt:87tran.obj
 0002:0000674a       __OP_EXPjmptab             1002574a     libucrt:87tran.obj
 0002:00006770       __indefinite               10025770     libucrt:87disp.obj
 0002:0000677a       __piby2                    1002577a     libucrt:87disp.obj
 0002:00006784       __piby4                    10025784     libucrt:87disp.obj
 0002:000067b8       __DEFAULT_CW_in_mem        100257b8     libucrt:common.obj
 0002:000067ba       __pi_by_2_to_61            100257ba     libucrt:common.obj
 0002:000067f4       ??_C@_03MGHMBJCF@log?$AA@  100257f4     libucrt:libm_error.obj
 0002:000067f8       ??_C@_05HGHHAHAP@log10?$AA@ 100257f8     libucrt:libm_error.obj
 0002:00006800       ??_C@_03KHJOGHMM@exp?$AA@  10025800     libucrt:libm_error.obj
 0002:00006804       ??_C@_03JGHBODFD@pow?$AA@  10025804     libucrt:libm_error.obj
 0002:00006808       ??_C@_04FIHNOPOL@asin?$AA@ 10025808     libucrt:libm_error.obj
 0002:00006810       ??_C@_04PDIFKINK@acos?$AA@ 10025810     libucrt:libm_error.obj
 0002:00006818       ??_C@_04EIAKFFMI@sqrt?$AA@ 10025818     libucrt:libm_error.obj
 0002:00006820       __real@3ff0000000000000    10025820     libucrt:libm_error.obj
 0002:00006840       ___acrt_log10_table_t      10025840     libucrt:log10_tables.obj
 0002:00006c50       ___acrt_log10_table_cb     10025c50     libucrt:log10_tables.obj
 0002:00007060       __real@3fe0000000000000    10026060     libucrt:powhlp.obj
 0002:00007150       ??_C@_04COOMCNPB@sinh?$AA@ 10026150     libucrt:fpexcept.obj
 0002:00007158       ??_C@_04HPJJNFIM@cosh?$AA@ 10026158     libucrt:fpexcept.obj
 0002:00007160       ??_C@_04FJHINJAO@tanh?$AA@ 10026160     libucrt:fpexcept.obj
 0002:00007168       ??_C@_04MLLJIGOK@atan?$AA@ 10026168     libucrt:fpexcept.obj
 0002:00007170       ??_C@_05KNGEOGJB@atan2?$AA@ 10026170     libucrt:fpexcept.obj
 0002:00007178       ??_C@_03BLEJJJBH@sin?$AA@  10026178     libucrt:fpexcept.obj
 0002:0000717c       ??_C@_03LALBNOCG@cos?$AA@  1002617c     libucrt:fpexcept.obj
 0002:00007180       ??_C@_03IIINPABG@tan?$AA@  10026180     libucrt:fpexcept.obj
 0002:00007184       ??_C@_04GFPJNGEK@ceil?$AA@ 10026184     libucrt:fpexcept.obj
 0002:0000718c       ??_C@_05PBJFFIGL@floor?$AA@ 1002618c     libucrt:fpexcept.obj
 0002:00007194       ??_C@_04ODHECPBC@fabs?$AA@ 10026194     libucrt:fpexcept.obj
 0002:0000719c       ??_C@_04EHEDPDJG@modf?$AA@ 1002619c     libucrt:fpexcept.obj
 0002:000071a4       ??_C@_05CEJMAHNP@ldexp?$AA@ 100261a4     libucrt:fpexcept.obj
 0002:000071ac       ??_C@_05KBKMEMPO@_cabs?$AA@ 100261ac     libucrt:fpexcept.obj
 0002:000071b4       ??_C@_06MEIMCGCF@_hypot?$AA@ 100261b4     libucrt:fpexcept.obj
 0002:000071bc       ??_C@_04KEPJIHGP@fmod?$AA@ 100261bc     libucrt:fpexcept.obj
 0002:000071c4       ??_C@_05GKKHEGJL@frexp?$AA@ 100261c4     libucrt:fpexcept.obj
 0002:000071cc       ??_C@_03MJLDFKDL@_y0?$AA@  100261cc     libucrt:fpexcept.obj
 0002:000071d0       ??_C@_03NAKIGLHK@_y1?$AA@  100261d0     libucrt:fpexcept.obj
 0002:000071d4       ??_C@_03ONILCKOB@_yn?$AA@  100261d4     libucrt:fpexcept.obj
 0002:000071d8       ??_C@_05JGDBENOH@_logb?$AA@ 100261d8     libucrt:fpexcept.obj
 0002:000071e0       ??_C@_0L@KDOEJCKC@_nextafter?$AA@ 100261e0     libucrt:fpexcept.obj
 0002:000071f0       __d_inf                    100261f0     libucrt:util.obj
 0002:000071f8       __d_max                    100261f8     libucrt:util.obj
 0002:00007200       __d_mzero                  10026200     libucrt:util.obj
 0002:00007208       ??_C@_1BA@BALFACEM@?$AAC?$AAO?$AAN?$AAO?$AAU?$AAT?$AA$?$AA?$AA@ 10026208     libucrt:initcon.obj
 0002:00007278       __load_config_used         10026278     LIBCMT:loadcfg.obj
 0002:00007318       __tls_used                 10026318     LIBCMT:tlssup.obj
 0002:00007330       ??_R4exception@std@@6B@    10026330     LIBCMT:throw_bad_alloc.obj
 0002:00007344       ??_R3exception@std@@8      10026344     LIBCMT:throw_bad_alloc.obj
 0002:00007354       ??_R2exception@std@@8      10026354     LIBCMT:throw_bad_alloc.obj
 0002:0000735c       ??_R1A@?0A@EA@exception@std@@8 1002635c     LIBCMT:throw_bad_alloc.obj
 0002:00007378       ??_R4bad_alloc@std@@6B@    10026378     LIBCMT:throw_bad_alloc.obj
 0002:0000738c       ??_R3bad_alloc@std@@8      1002638c     LIBCMT:throw_bad_alloc.obj
 0002:0000739c       ??_R2bad_alloc@std@@8      1002639c     LIBCMT:throw_bad_alloc.obj
 0002:000073a8       ??_R1A@?0A@EA@bad_alloc@std@@8 100263a8     LIBCMT:throw_bad_alloc.obj
 0002:000073c4       ??_R4bad_array_new_length@std@@6B@ 100263c4     LIBCMT:throw_bad_alloc.obj
 0002:000073d8       ??_R3bad_array_new_length@std@@8 100263d8     LIBCMT:throw_bad_alloc.obj
 0002:000073e8       ??_R2bad_array_new_length@std@@8 100263e8     LIBCMT:throw_bad_alloc.obj
 0002:000073f8       ??_R1A@?0A@EA@bad_array_new_length@std@@8 100263f8     LIBCMT:throw_bad_alloc.obj
 0002:00007414       ??_R4type_info@@6B@        10026414     LIBCMT:std_type_info_static.obj
 0002:00007428       ??_R3type_info@@8          10026428     LIBCMT:std_type_info_static.obj
 0002:00007438       ??_R2type_info@@8          10026438     LIBCMT:std_type_info_static.obj
 0002:00007440       ??_R1A@?0A@EA@type_info@@8 10026440     LIBCMT:std_type_info_static.obj
 0002:0000745c       ??_R4bad_exception@std@@6B@ 1002645c     libvcruntime:frame.obj
 0002:00007470       ??_R3bad_exception@std@@8  10026470     libvcruntime:frame.obj
 0002:00007480       ??_R2bad_exception@std@@8  10026480     libvcruntime:frame.obj
 0002:0000748c       ??_R1A@?0A@EA@bad_exception@std@@8 1002648c     libvcruntime:frame.obj
 0002:000074b0       ___safe_se_handler_table   100264b0     <linker-defined>
 0002:000078b8       ___rtc_iaa                 100268b8     LIBCMT:_initsect_.obj
 0002:000078bc       ___rtc_izz                 100268bc     LIBCMT:_initsect_.obj
 0002:000078c0       ___rtc_taa                 100268c0     LIBCMT:_initsect_.obj
 0002:000078c4       ___rtc_tzz                 100268c4     LIBCMT:_initsect_.obj
 0002:000078c8       __tls_start                100268c8     LIBCMT:tlssup.obj
 0002:000078cc       __Init_thread_epoch        100268cc     LIBCMT:thread_safe_statics.obj
 0002:000078d0       __tls_end                  100268d0     LIBCMT:tlssup.obj
 0002:000079ec       __TI2?AVbad_alloc@std@@    100269ec     LIBCMT:throw_bad_alloc.obj
 0002:000079fc       __CTA2?AVbad_alloc@std@@   100269fc     LIBCMT:throw_bad_alloc.obj
 0002:00007a08       __CT??_R0?AVbad_alloc@std@@@8??0bad_alloc@std@@QAE@ABV01@@Z12 10026a08     LIBCMT:throw_bad_alloc.obj
 0002:00007a24       __CT??_R0?AVexception@std@@@8??0exception@std@@QAE@ABV01@@Z12 10026a24     LIBCMT:throw_bad_alloc.obj
 0002:00007a40       __TI3?AVbad_array_new_length@std@@ 10026a40     LIBCMT:throw_bad_alloc.obj
 0002:00007a50       __CTA3?AVbad_array_new_length@std@@ 10026a50     LIBCMT:throw_bad_alloc.obj
 0002:00007a60       __CT??_R0?AVbad_array_new_length@std@@@8??0bad_array_new_length@std@@QAE@ABV01@@Z12 10026a60     LIBCMT:throw_bad_alloc.obj
 0002:00007b64       __TI2?AVbad_exception@std@@ 10026b64     libvcruntime:frame.obj
 0002:00007b74       __CTA2?AVbad_exception@std@@ 10026b74     libvcruntime:frame.obj
 0002:00007b80       __CT??_R0?AVbad_exception@std@@@8??0bad_exception@std@@QAE@ABV01@@Z12 10026b80     libvcruntime:frame.obj
 0002:00007efc       ___pobjMapEntryFirst       10026efc     OposVariant.obj
 0002:00007f00       ___pobjMapEntryLast        10026f00     OposVariant.obj
 0002:00007fc4       __IMPORT_DESCRIPTOR_KERNEL32 10026fc4     kernel32:KERNEL32.dll
 0002:00007fd8       __IMPORT_DESCRIPTOR_USER32 10026fd8     user32:USER32.dll
 0002:00007fec       __IMPORT_DESCRIPTOR_GDI32  10026fec     gdi32:GDI32.dll
 0002:00008000       __IMPORT_DESCRIPTOR_ADVAPI32 10027000     advapi32:ADVAPI32.dll
 0002:00008014       __IMPORT_DESCRIPTOR_ole32  10027014     ole32:ole32.dll
 0002:00008028       __IMPORT_DESCRIPTOR_OLEAUT32 10027028     oleaut32:OLEAUT32.dll
 0002:0000803c       __NULL_IMPORT_DESCRIPTOR   1002703c     kernel32:KERNEL32.dll
 0003:00000000       ?_tih@?$IProvideClassInfo2Impl@$1?CLSID_OPOSRemoteOrderDisplay@@3U_GUID@@B$1?DIID__IOPOSRemoteOrderDisplayEvents@@3U2@B$1?LIBID_OposRemoteOrderDisplay_CCO@@3U2@B$00$0A@VCComTypeInfoHolder@ATL@@@ATL@@1VCComTypeInfoHolder@2@A 10028000     RemoteOrderDisplay.obj
 0003:0000001c       ?vszContents@?6??Save@?$IPersistStorageImpl@VCOPOSRemoteOrderDisplay@@@ATL@@UAGJPAUIStorage@@H@Z@4PB_WB 1002801c     RemoteOrderDisplay.obj
 0003:00000020       ?wc@?1??GetWndClassInfo@?$CWindowImpl@VCOPOSRemoteOrderDisplay@@VCWindow@ATL@@V?$CWinTraits@$0FGAAAAAA@$0A@@3@@ATL@@SAAAU_ATL_WNDCLASSINFOW@3@XZ@4U43@A 10028020     RemoteOrderDisplay.obj
 0003:000000ac       ?s_Claim@?7??GetIDsOfNames@CComTypeInfoHolder@ATL@@QAEJABU_GUID@@PAPA_WIKPAJ@Z@4PA_WA 100280ac     RemoteOrderDisplay.obj
 0003:000000c4       ?s_Release@?7??GetIDsOfNames@CComTypeInfoHolder@ATL@@QAEJABU_GUID@@PAPA_WIKPAJ@Z@4PA_WA 100280c4     RemoteOrderDisplay.obj
 0003:000000e0       ?rcDefault@CWindow@ATL@@2UtagRECT@@A 100280e0     RemoteOrderDisplay.obj
 0003:000000f0       ?_tih@?$IDispatchImpl@UIOPOSRemoteOrderDisplay@@$1?IID_IOPOSRemoteOrderDisplay@@3U_GUID@@B$1?LIBID_OposRemoteOrderDisplay_CCO@@3U3@B$00$0A@VCComTypeInfoHolder@ATL@@@ATL@@1VCComTypeInfoHolder@2@A 100280f0     RemoteOrderDisplay.obj
 0003:00000158       ?g_ControlVersion@@3JA     10028158     RemoteOrderDisplayImpl.obj
 0003:0000015c       ?g_WindowName@@3PA_WA      1002815c     RemoteOrderDisplayImpl.obj
 0003:00000190       ?g_ControlDescription@@3PADA 10028190     RemoteOrderDisplayImpl.obj
 0003:00000278       ___scrt_native_dllmain_reason 10028278     LIBCMT:utility.obj
 0003:0000027c       __Init_global_epoch        1002827c     LIBCMT:thread_safe_statics.obj
 0003:00000280       ___security_cookie_complement 10028280     LIBCMT:gs_cookie.obj
 0003:00000284       ___security_cookie         10028284     LIBCMT:gs_cookie.obj
 0003:00000288       ___isa_enabled             10028288     LIBCMT:_cpu_disp_.obj
 0003:000002a0       __NLG_Destination          100282a0     libvcruntime:_exsup_.obj
 0003:000002b8       ___abort_behavior          100282b8     libucrt:abort.obj
 0003:000002c8       __iob                      100282c8     libucrt:_file.obj
 0003:00000370       ___acrt_initial_locale_data 10028370     libucrt:nlsdata.obj
 0003:00000428       ___acrt_initial_locale_pointers 10028428     libucrt:nlsdata.obj
 0003:00000430       ___acrt_wide_c_locale_string 10028430     libucrt:nlsdata.obj
 0003:00000738       ___acrt_initial_multibyte_data 10028738     libucrt:mbctype.obj
 0003:00000958       __pwctype                  10028958     libucrt:ctype.obj
 0003:0000095c       ___globallocalestatus      1002895c     libucrt:glstatus.obj
 0003:00000960       ___acrt_lconv_static_decimal 10028960     libucrt:localeconv.obj
 0003:00000964       ___acrt_lconv_static_W_decimal 10028964     libucrt:localeconv.obj
 0003:00000968       ___acrt_lconv_c            10028968     libucrt:localeconv.obj
 0003:000009c0       ___dcrt_lowio_console_output_handle 100289c0     libucrt:initcon.obj
 0003:000009d0       __fltused                  100289d0     LIBCMT:fltused.obj
 0003:000009e0       ??_R0?AVbad_alloc@std@@@8  100289e0     LIBCMT:throw_bad_alloc.obj
 0003:000009fc       ??_R0?AVexception@std@@@8  100289fc     LIBCMT:throw_bad_alloc.obj
 0003:00000a18       ??_R0?AVbad_array_new_length@std@@@8 10028a18     LIBCMT:throw_bad_alloc.obj
 0003:00000a40       ??_R0?AVtype_info@@@8      10028a40     LIBCMT:std_type_info_static.obj
 0003:00000a58       ??_R0?AVbad_exception@std@@@8 10028a58     libvcruntime:frame.obj
 0003:00000a78       ?m_bInitFailed@CAtlBaseModule@ATL@@2_NA 10028a78     OposVariant.obj
 0003:00000a7c       ?_pPerfRegFunc@ATL@@3P6AJPAUHINSTANCE__@@@ZA 10028a7c     OposVariant.obj
 0003:00000a80       ?_pPerfUnRegFunc@ATL@@3P6AJXZA 10028a80     OposVariant.obj
 0003:00000a84       ?_AtlRegisterPerUser@ATL@@3_NA 10028a84     OposVariant.obj
 0003:00000a88       ?_pAtlModule@ATL@@3PAVCAtlModule@1@A 10028a88     OposVariant.obj
 0003:00000a8c       ?_pModule@ATL@@3PAVCComModule@1@A 10028a8c     OposVariant.obj
 0003:00000a90       ?_AtlComModule@ATL@@3VCAtlComModule@1@A 10028a90     OposVariant.obj
 0003:00000ab8       ?_AtlWinModule@ATL@@3VCAtlWinModule@1@A 10028ab8     OposVariant.obj
 0003:00000ae4       ?_entries@?1??GetConnMap@COPOSRemoteOrderDisplay@@SAPBU_ATL_CONNMAP_ENTRY@ATL@@PAH@Z@4QBU34@B 10028ae4     RemoteOrderDisplay.obj
 0003:00000af0       ?$TSS0@?1??GetConnMap@COPOSRemoteOrderDisplay@@SAPBU_ATL_CONNMAP_ENTRY@ATL@@PAH@Z@4HA 10028af0     RemoteOrderDisplay.obj
 0003:00000af8       ?_OptionsStorage@?1??__local_stdio_printf_options@@9@4_KA 10028af8     RemoteOrderDisplay.obj
 0003:00000b00       ?m_libid@CAtlModule@ATL@@2U_GUID@@A 10028b00     RemoteOrderDisplay.obj
 0003:00000b10       ?_Module@@3VCComModule@ATL@@A 10028b10     RemoteOrderDisplay.obj
 0003:00000b40       ?pConnMap@?$IConnectionPointContainerImpl@VCOPOSRemoteOrderDisplay@@@ATL@@0PBU_ATL_CONNMAP_ENTRY@2@B 10028b40     RemoteOrderDisplay.obj
 0003:00000b44       ?s_nInstances@COPOSRemoteOrderDisplay@@1HA 10028b44     RemoteOrderDisplayImpl.obj
 0003:00000b48       ___scrt_current_native_startup_state 10028b48     LIBCMT:utility.obj
 0003:00000b4c       ___scrt_native_startup_lock 10028b4c     LIBCMT:utility.obj
 0003:00000eb4       __tls_index                10028eb4     LIBCMT:tlssup.obj
 0003:00000ebc       ___isa_available           10028ebc     LIBCMT:_cpu_disp_.obj
 0003:00000ec0       ___favor                   10028ec0     LIBCMT:_cpu_disp_.obj
 0003:00000ec4       ___scrt_debugger_hook_flag 10028ec4     LIBCMT:utility_desktop.obj
 0003:00000ec8       ?__type_info_root_node@@3U__type_info_node@@A 10028ec8     LIBCMT:tncleanup.obj
 0003:00000ed0       ?_OptionsStorage@?1??__local_stdio_scanf_options@@9@4_KA 10028ed0     LIBCMT:default_local_stdio_options.obj
 0003:00000ed8       ?_AtlBaseModule@ATL@@3VCAtlBaseModule@1@A 10028ed8     atls:atlbase.obj
 0003:00000f10       ?__AtlThunkPool@@3PAT_SLIST_HEADER@@A 10028f10     atls:atlthunk.obj
 0003:00000f28       ___@@_PchSym_@00@UyrmzirvhUrmgvinvwrzgvUexgllohUzgohOmzgrevkilqPBACIAJCBDBUlyqiUcIGUhgwzucOlyq@4B2008FD98C1DD4 10028f28     atls:stdafx.obj
 0003:00000f2c       ___pPurecall               10028f2c     libvcruntime:purevirt_data.obj
 0003:00000f94       ?pArgList@UnDecorator@@0PAVReplicator@@A 10028f94     libvcruntime:undname.obj
 0003:00000f98       ?pZNameList@UnDecorator@@0PAVReplicator@@A 10028f98     libvcruntime:undname.obj
 0003:00000f9c       ?pTemplateArgList@UnDecorator@@0PAVReplicator@@A 10028f9c     libvcruntime:undname.obj
 0003:00000fa0       ?gName@UnDecorator@@0PBDB  10028fa0     libvcruntime:undname.obj
 0003:00000fa4       ?name@UnDecorator@@0PBDB   10028fa4     libvcruntime:undname.obj
 0003:00000fa8       ?disableFlags@UnDecorator@@0KA 10028fa8     libvcruntime:undname.obj
 0003:00000fac       ?fExplicitTemplateParams@UnDecorator@@0_NA 10028fac     libvcruntime:undname.obj
 0003:00000fad       ?fGetTemplateArgumentList@UnDecorator@@0_NA 10028fad     libvcruntime:undname.obj
 0003:00000fb0       ?m_pGetParameter@UnDecorator@@0P6APADJ@ZA 10028fb0     libvcruntime:undname.obj
 0003:00000fb4       ?m_CHPENameOffset@UnDecorator@@0KA 10028fb4     libvcruntime:undname.obj
 0003:00000fb8       ?m_recursionLevel@UnDecorator@@0KA 10028fb8     libvcruntime:undname.obj
 0003:00000fd0       ?__WinRTOutOfMemoryExceptionCallback@@3P6GPAXXZA 10028fd0     libvcruntime:ehhelpers.obj
 0003:00000fe0       ?c_exit_complete@?1???R<lambda_6e4b09c48022b2350581041d5f6b0c4c>@@QBE@XZ@4_NA 10028fe0     libucrt:exit.obj
 0003:000010f0       __environ_table            100290f0     libucrt:environment_initialization.obj
 0003:000010f4       __wenviron_table           100290f4     libucrt:environment_initialization.obj
 0003:000010f8       ___dcrt_initial_wide_environment 100290f8     libucrt:environment_initialization.obj
 0003:000010fc       ___dcrt_initial_narrow_environment 100290fc     libucrt:environment_initialization.obj
 0003:00001100       ___acrt_atexit_table       10029100     libucrt:onexit.obj
 0003:0000110c       ___acrt_at_quick_exit_table 1002910c     libucrt:onexit.obj
 0003:000011f8       __nstream                  100291f8     libucrt:_file.obj
 0003:000011fc       ___piob                    100291fc     libucrt:_file.obj
 0003:00001204       ___acrt_stdout_buffer      10029204     libucrt:_sftbuf.obj
 0003:00001208       ___acrt_stderr_buffer      10029208     libucrt:_sftbuf.obj
 0003:0000120c       ___acrt_locale_changed_data 1002920c     libucrt:wsetlocale.obj
 0003:00001210       ___acrt_current_locale_data 10029210     libucrt:nlsdata.obj
 0003:00001218       ___pioinfo                 10029218     libucrt:ioinit.obj
 0003:00001418       __nhandle                  10029418     libucrt:ioinit.obj
 0003:00001574       __mbctype                  10029574     libucrt:mbctype.obj
 0003:00001578       __mbcasemap                10029578     libucrt:mbctype.obj
 0003:0000157c       ___acrt_current_multibyte_data 1002957c     libucrt:mbctype.obj
 0003:00001588       ___argc                    10029588     libucrt:argv_data.obj
 0003:0000158c       ___argv                    1002958c     libucrt:argv_data.obj
 0003:00001590       ___wargv                   10029590     libucrt:argv_data.obj
 0003:00001594       __acmdln                   10029594     libucrt:argv_data.obj
 0003:00001598       __wcmdln                   10029598     libucrt:argv_data.obj
 0003:0000159c       __pgmptr                   1002959c     libucrt:argv_data.obj
 0003:000015a0       ___acrt_heap               100295a0     libucrt:heap_handle.obj
 0003:000015bc       ___acrt_lconv_static_null  100295bc     libucrt:localeconv.obj
 0003:000015c0       ___acrt_lconv_static_W_null 100295c0     libucrt:localeconv.obj
 0003:000015c8       ___fastflag                100295c8     libucrt:fp_flags.obj
 0003:000015d0       ___dyn_tls_init_callback   100295d0     <common>
 0003:000015d4       ___scrt_ucrt_dll_is_in_use 100295d4     <common>
 0003:000015d8       __pmatherr                 100295d8     <common>
 0003:000015dc       ___use_sse2_mathfcns       100295dc     <common>

 entry point at        0001:0000c85d

 Static symbols

 0000:fffce000       .debug$S                   10000000     kernel32:KERNEL32.dll
 0000:fffce000       .debug$S                   10000000     kernel32:KERNEL32.dll
 0000:fffce000       .debug$S                   10000000     kernel32:KERNEL32.dll
 0000:fffce000       .debug$S                   10000000     kernel32:KERNEL32.dll
 0000:fffce000       .debug$S                   10000000     kernel32:KERNEL32.dll
 0000:fffce000       .debug$S                   10000000     kernel32:KERNEL32.dll
 0000:fffce000       .debug$S                   10000000     kernel32:KERNEL32.dll
 0000:fffce000       .debug$S                   10000000     kernel32:KERNEL32.dll
 0000:fffce000       .debug$S                   10000000     kernel32:KERNEL32.dll
 0000:fffce000       .debug$S                   10000000     kernel32:KERNEL32.dll
 0000:fffce000       .debug$S                   10000000     kernel32:KERNEL32.dll
 0000:fffce000       .debug$S                   10000000     kernel32:KERNEL32.dll
 0000:fffce000       .debug$S                   10000000     kernel32:KERNEL32.dll
 0000:fffce000       .debug$S                   10000000     kernel32:KERNEL32.dll
 0000:fffce000       .debug$S                   10000000     kernel32:KERNEL32.dll
 0000:fffce000       .debug$S                   10000000     OPOSRemoteOrderDisplay.exp
 0000:fffce000       .debug$S                   10000000     kernel32:KERNEL32.dll
 0000:fffce000       .debug$S                   10000000     kernel32:KERNEL32.dll
 0000:fffce000       .debug$S                   10000000     kernel32:KERNEL32.dll
 0000:fffce000       .debug$S                   10000000     kernel32:KERNEL32.dll
 0000:fffce000       .debug$S                   10000000     kernel32:KERNEL32.dll
 0000:fffce000       .debug$S                   10000000     kernel32:KERNEL32.dll
 0000:fffce000       .debug$S                   10000000     kernel32:KERNEL32.dll
 0000:fffce000       .debug$S                   10000000     kernel32:KERNEL32.dll
 0000:fffce000       .debug$S                   10000000     kernel32:KERNEL32.dll
 0000:fffce000       .debug$S                   10000000     kernel32:KERNEL32.dll
 0000:fffce000       .debug$S                   10000000     kernel32:KERNEL32.dll
 0000:fffce000       .debug$S                   10000000     kernel32:KERNEL32.dll
 0000:fffce000       .debug$S                   10000000     kernel32:KERNEL32.dll
 0000:fffce000       .debug$S                   10000000     kernel32:KERNEL32.dll
 0000:fffce000       .debug$S                   10000000     kernel32:KERNEL32.dll
 0000:fffce000       .debug$S                   10000000     kernel32:KERNEL32.dll
 0000:fffce000       .debug$S                   10000000     kernel32:KERNEL32.dll
 0000:fffce000       .debug$S                   10000000     kernel32:KERNEL32.dll
 0000:fffce000       .debug$S                   10000000     kernel32:KERNEL32.dll
 0000:fffce000       .debug$S                   10000000     kernel32:KERNEL32.dll
 0000:fffce000       .debug$S                   10000000     kernel32:KERNEL32.dll
 0000:fffce000       .debug$S                   10000000     kernel32:KERNEL32.dll
 0000:fffce000       .debug$S                   10000000     kernel32:KERNEL32.dll
 0000:fffce000       .debug$S                   10000000     kernel32:KERNEL32.dll
 0000:fffce000       .debug$S                   10000000     kernel32:KERNEL32.dll
 0000:fffce000       .debug$S                   10000000     kernel32:KERNEL32.dll
 0000:fffce000       .debug$S                   10000000     kernel32:KERNEL32.dll
 0000:fffce000       .debug$S                   10000000     kernel32:KERNEL32.dll
 0000:fffce000       .debug$S                   10000000     kernel32:KERNEL32.dll
 0000:fffce000       .debug$S                   10000000     kernel32:KERNEL32.dll
 0000:fffce000       .debug$S                   10000000     kernel32:KERNEL32.dll
 0000:fffce000       .debug$S                   10000000     kernel32:KERNEL32.dll
 0000:fffce000       .debug$S                   10000000     kernel32:KERNEL32.dll
 0000:fffce000       .debug$S                   10000000     kernel32:KERNEL32.dll
 0000:fffce000       .debug$S                   10000000     kernel32:KERNEL32.dll
 0000:fffce000       .debug$S                   10000000     kernel32:KERNEL32.dll
 0000:fffce000       .debug$S                   10000000     kernel32:KERNEL32.dll
 0000:fffce000       .debug$S                   10000000     kernel32:KERNEL32.dll
 0000:fffce000       .debug$S                   10000000     kernel32:KERNEL32.dll
 0000:fffce000       .debug$S                   10000000     kernel32:KERNEL32.dll
 0000:fffce000       .debug$S                   10000000     kernel32:KERNEL32.dll
 0000:fffce000       .debug$S                   10000000     kernel32:KERNEL32.dll
 0000:fffce000       .debug$S                   10000000     kernel32:KERNEL32.dll
 0000:fffce000       .debug$S                   10000000     kernel32:KERNEL32.dll
 0000:fffce000       .debug$S                   10000000     kernel32:KERNEL32.dll
 0000:fffce000       .debug$S                   10000000     kernel32:KERNEL32.dll
 0000:fffce000       .debug$S                   10000000     kernel32:KERNEL32.dll
 0000:fffce000       .debug$S                   10000000     kernel32:KERNEL32.dll
 0000:fffce000       .debug$S                   10000000     kernel32:KERNEL32.dll
 0000:fffce000       .debug$S                   10000000     kernel32:KERNEL32.dll
 0000:fffce000       .debug$S                   10000000     kernel32:KERNEL32.dll
 0000:fffce000       .debug$S                   10000000     kernel32:KERNEL32.dll
 0000:fffce000       .debug$S                   10000000     kernel32:KERNEL32.dll
 0000:fffce000       .debug$S                   10000000     kernel32:KERNEL32.dll
 0000:fffce000       .debug$S                   10000000     kernel32:KERNEL32.dll
 0000:fffce000       .debug$S                   10000000     kernel32:KERNEL32.dll
 0000:fffce000       .debug$S                   10000000     kernel32:KERNEL32.dll
 0000:fffce000       .debug$S                   10000000     kernel32:KERNEL32.dll
 0000:fffce000       .debug$S                   10000000     kernel32:KERNEL32.dll
 0000:fffce000       .debug$S                   10000000     kernel32:KERNEL32.dll
 0000:fffce000       .debug$S                   10000000     kernel32:KERNEL32.dll
 0000:fffce000       .debug$S                   10000000     kernel32:KERNEL32.dll
 0000:fffce000       .debug$S                   10000000     kernel32:KERNEL32.dll
 0000:fffce000       .debug$S                   10000000     kernel32:KERNEL32.dll
 0000:fffce000       .debug$S                   10000000     kernel32:KERNEL32.dll
 0000:fffce000       .debug$S                   10000000     kernel32:KERNEL32.dll
 0000:fffce000       .debug$S                   10000000     kernel32:KERNEL32.dll
 0000:fffce000       .debug$S                   10000000     kernel32:KERNEL32.dll
 0000:fffce000       .debug$S                   10000000     kernel32:KERNEL32.dll
 0000:fffce000       .debug$S                   10000000     kernel32:KERNEL32.dll
 0000:fffce000       .debug$S                   10000000     kernel32:KERNEL32.dll
 0000:fffce000       .debug$S                   10000000     kernel32:KERNEL32.dll
 0000:fffce000       .debug$S                   10000000     kernel32:KERNEL32.dll
 0000:fffce000       .debug$S                   10000000     kernel32:KERNEL32.dll
 0000:fffce000       .debug$S                   10000000     kernel32:KERNEL32.dll
 0000:fffce000       .debug$S                   10000000     kernel32:KERNEL32.dll
 0000:fffce000       .debug$S                   10000000     kernel32:KERNEL32.dll
 0000:fffce000       .debug$S                   10000000     kernel32:KERNEL32.dll
 0000:fffce000       .debug$S                   10000000     kernel32:KERNEL32.dll
 0000:fffce000       .debug$S                   10000000     kernel32:KERNEL32.dll
 0000:fffce000       .debug$S                   10000000     kernel32:KERNEL32.dll
 0000:fffce000       .debug$S                   10000000     kernel32:KERNEL32.dll
 0000:fffce000       .debug$S                   10000000     kernel32:KERNEL32.dll
 0000:fffce000       .debug$S                   10000000     kernel32:KERNEL32.dll
 0000:fffce000       .debug$S                   10000000     kernel32:KERNEL32.dll
 0000:fffce000       .debug$S                   10000000     kernel32:KERNEL32.dll
 0000:fffce000       .debug$S                   10000000     kernel32:KERNEL32.dll
 0000:fffce000       .debug$S                   10000000     kernel32:KERNEL32.dll
 0000:fffce000       .debug$S                   10000000     kernel32:KERNEL32.dll
 0000:fffce000       .debug$S                   10000000     kernel32:KERNEL32.dll
 0000:fffce000       .debug$S                   10000000     kernel32:KERNEL32.dll
 0000:fffce000       .debug$S                   10000000     kernel32:KERNEL32.dll
 0000:fffce000       .debug$S                   10000000     user32:USER32.dll
 0000:fffce000       .debug$S                   10000000     user32:USER32.dll
 0000:fffce000       .debug$S                   10000000     user32:USER32.dll
 0000:fffce000       .debug$S                   10000000     user32:USER32.dll
 0000:fffce000       .debug$S                   10000000     user32:USER32.dll
 0000:fffce000       .debug$S                   10000000     user32:USER32.dll
 0000:fffce000       .debug$S                   10000000     user32:USER32.dll
 0000:fffce000       .debug$S                   10000000     user32:USER32.dll
 0000:fffce000       .debug$S                   10000000     user32:USER32.dll
 0000:fffce000       .debug$S                   10000000     user32:USER32.dll
 0000:fffce000       .debug$S                   10000000     user32:USER32.dll
 0000:fffce000       .debug$S                   10000000     user32:USER32.dll
 0000:fffce000       .debug$S                   10000000     user32:USER32.dll
 0000:fffce000       .debug$S                   10000000     user32:USER32.dll
 0000:fffce000       .debug$S                   10000000     user32:USER32.dll
 0000:fffce000       .debug$S                   10000000     user32:USER32.dll
 0000:fffce000       .debug$S                   10000000     user32:USER32.dll
 0000:fffce000       .debug$S                   10000000     user32:USER32.dll
 0000:fffce000       .debug$S                   10000000     user32:USER32.dll
 0000:fffce000       .debug$S                   10000000     user32:USER32.dll
 0000:fffce000       .debug$S                   10000000     user32:USER32.dll
 0000:fffce000       .debug$S                   10000000     user32:USER32.dll
 0000:fffce000       .debug$S                   10000000     user32:USER32.dll
 0000:fffce000       .debug$S                   10000000     user32:USER32.dll
 0000:fffce000       .debug$S                   10000000     user32:USER32.dll
 0000:fffce000       .debug$S                   10000000     user32:USER32.dll
 0000:fffce000       .debug$S                   10000000     user32:USER32.dll
 0000:fffce000       .debug$S                   10000000     user32:USER32.dll
 0000:fffce000       .debug$S                   10000000     user32:USER32.dll
 0000:fffce000       .debug$S                   10000000     user32:USER32.dll
 0000:fffce000       .debug$S                   10000000     user32:USER32.dll
 0000:fffce000       .debug$S                   10000000     user32:USER32.dll
 0000:fffce000       .debug$S                   10000000     user32:USER32.dll
 0000:fffce000       .debug$S                   10000000     user32:USER32.dll
 0000:fffce000       .debug$S                   10000000     user32:USER32.dll
 0000:fffce000       .debug$S                   10000000     gdi32:GDI32.dll
 0000:fffce000       .debug$S                   10000000     gdi32:GDI32.dll
 0000:fffce000       .debug$S                   10000000     gdi32:GDI32.dll
 0000:fffce000       .debug$S                   10000000     gdi32:GDI32.dll
 0000:fffce000       .debug$S                   10000000     gdi32:GDI32.dll
 0000:fffce000       .debug$S                   10000000     gdi32:GDI32.dll
 0000:fffce000       .debug$S                   10000000     gdi32:GDI32.dll
 0000:fffce000       .debug$S                   10000000     gdi32:GDI32.dll
 0000:fffce000       .debug$S                   10000000     gdi32:GDI32.dll
 0000:fffce000       .debug$S                   10000000     gdi32:GDI32.dll
 0000:fffce000       .debug$S                   10000000     gdi32:GDI32.dll
 0000:fffce000       .debug$S                   10000000     gdi32:GDI32.dll
 0000:fffce000       .debug$S                   10000000     gdi32:GDI32.dll
 0000:fffce000       .debug$S                   10000000     gdi32:GDI32.dll
 0000:fffce000       .debug$S                   10000000     gdi32:GDI32.dll
 0000:fffce000       .debug$S                   10000000     gdi32:GDI32.dll
 0000:fffce000       .debug$S                   10000000     gdi32:GDI32.dll
 0000:fffce000       .debug$S                   10000000     gdi32:GDI32.dll
 0000:fffce000       .debug$S                   10000000     gdi32:GDI32.dll
 0000:fffce000       .debug$S                   10000000     advapi32:ADVAPI32.dll
 0000:fffce000       .debug$S                   10000000     advapi32:ADVAPI32.dll
 0000:fffce000       .debug$S                   10000000     advapi32:ADVAPI32.dll
 0000:fffce000       .debug$S                   10000000     advapi32:ADVAPI32.dll
 0000:fffce000       .debug$S                   10000000     advapi32:ADVAPI32.dll
 0000:fffce000       .debug$S                   10000000     advapi32:ADVAPI32.dll
 0000:fffce000       .debug$S                   10000000     advapi32:ADVAPI32.dll
 0000:fffce000       .debug$S                   10000000     advapi32:ADVAPI32.dll
 0000:fffce000       .debug$S                   10000000     advapi32:ADVAPI32.dll
 0000:fffce000       .debug$S                   10000000     ole32:ole32.dll
 0000:fffce000       .debug$S                   10000000     ole32:ole32.dll
 0000:fffce000       .debug$S                   10000000     ole32:ole32.dll
 0000:fffce000       .debug$S                   10000000     ole32:ole32.dll
 0000:fffce000       .debug$S                   10000000     ole32:ole32.dll
 0000:fffce000       .debug$S                   10000000     ole32:ole32.dll
 0000:fffce000       .debug$S                   10000000     ole32:ole32.dll
 0000:fffce000       .debug$S                   10000000     ole32:ole32.dll
 0000:fffce000       .debug$S                   10000000     ole32:ole32.dll
 0000:fffce000       .debug$S                   10000000     ole32:ole32.dll
 0000:fffce000       .debug$S                   10000000     ole32:ole32.dll
 0000:fffce000       .debug$S                   10000000     ole32:ole32.dll
 0000:fffce000       .debug$S                   10000000     ole32:ole32.dll
 0000:fffce000       .debug$S                   10000000     ole32:ole32.dll
 0000:fffce000       .debug$S                   10000000     oleaut32:OLEAUT32.dll
 0000:fffce000       .debug$S                   10000000     oleaut32:OLEAUT32.dll
 0000:fffce000       .debug$S                   10000000     oleaut32:OLEAUT32.dll
 0000:fffce000       .debug$S                   10000000     oleaut32:OLEAUT32.dll
 0000:fffce000       .debug$S                   10000000     oleaut32:OLEAUT32.dll
 0000:fffce000       .debug$S                   10000000     oleaut32:OLEAUT32.dll
 0000:fffce000       .debug$S                   10000000     oleaut32:OLEAUT32.dll
 0000:fffce000       .debug$S                   10000000     oleaut32:OLEAUT32.dll
 0000:fffce000       .debug$S                   10000000     oleaut32:OLEAUT32.dll
 0000:fffce000       .debug$S                   10000000     oleaut32:OLEAUT32.dll
 0000:fffce000       .debug$S                   10000000     oleaut32:OLEAUT32.dll
 0000:fffce000       .debug$S                   10000000     oleaut32:OLEAUT32.dll
 0000:fffce000       .debug$S                   10000000     oleaut32:OLEAUT32.dll
 0000:fffce000       .debug$S                   10000000     oleaut32:OLEAUT32.dll
 0000:fffce000       .debug$S                   10000000     oleaut32:OLEAUT32.dll
 0000:fffce000       .debug$S                   10000000     oleaut32:OLEAUT32.dll
 0001:00000000       ??__E_AtlComModule@ATL@@YAXXZ 10001000 f   OposVariant.obj
 0001:00000016       ??__E_AtlWinModule@ATL@@YAXXZ 10001016 f   OposVariant.obj
 0001:0000002c       ??__E?pConnMap@?$IConnectionPointContainerImpl@VCOPOSRemoteOrderDisplay@@@ATL@@0PBU_ATL_CONNMAP_ENTRY@2@B@@YAXXZ 1000102c f   RemoteOrderDisplay.obj
 0001:0000003a       ??__E_Module@@YAXXZ        1000103a f   RemoteOrderDisplay.obj
 0001:00000064       ??__E_AtlBaseModule@ATL@@YAXXZ 10001064 f   atls:atlbase.obj
 0001:00000798       $LN37                      10001798     RemoteOrderDisplay.obj
 0001:00005d7c       $LN53                      10006d7c     RemoteOrderDisplay.obj
 0001:00005d94       $LN49                      10006d94     RemoteOrderDisplay.obj
 0001:00007bcc       $LN45                      10008bcc     RemoteOrderDisplay.obj
 0001:00007be4       $LN36                      10008be4     RemoteOrderDisplay.obj
 0001:00009197       $LN87                      1000a197     RemoteOrderDisplay.obj
 0001:000091af       $LN81                      1000a1af     RemoteOrderDisplay.obj
 0001:0000948d       _memcpy_s                  1000a48d f   RemoteOrderDisplay.obj
 0001:0000bc5d       ?find_pe_section@@YAPAU_IMAGE_SECTION_HEADER@@QAEI@Z 1000cc5d f   LIBCMT:utility.obj
 0001:0000bfa8       ?__scrt_initialize_thread_safe_statics@@YAHXZ 1000cfa8 f   LIBCMT:thread_safe_statics.obj
 0001:0000bfcf       ?__scrt_initialize_thread_safe_statics_platform_specific@@YAXXZ 1000cfcf f   LIBCMT:thread_safe_statics.obj
 0001:0000c0be       ?__scrt_uninitialize_thread_safe_statics@@YAXXZ 1000d0be f   LIBCMT:thread_safe_statics.obj
 0001:0000c44b       __catch$??2@YAPAXIABUnothrow_t@std@@@Z$0 1000d44b f   LIBCMT:new_scalar_nothrow.obj
 0001:0000c480       $$000000                   1000d480     LIBCMT:_sehprolg4gs_.obj
 0001:0000c4e0       $$000000                   1000d4e0     LIBCMT:alloca16.obj
 0001:0000c510       $$000000                   1000d510     LIBCMT:chkstk.obj
 0001:0000c53d       ?dllmain_crt_dispatch@@YGHQAUHINSTANCE__@@KQAX@Z 1000d53d f   LIBCMT:dll_dllmain.obj
 0001:0000c590       ?dllmain_crt_process_attach@@YAHQAUHINSTANCE__@@QAX@Z 1000d590 f   LIBCMT:dll_dllmain.obj
 0001:0000c69a       ?dllmain_crt_process_detach@@YAH_N@Z 1000d69a f   LIBCMT:dll_dllmain.obj
 0001:0000c72c       ?dllmain_dispatch@@YAHQAUHINSTANCE__@@KQAX@Z 1000d72c f   LIBCMT:dll_dllmain.obj
 0001:0000c832       ?dllmain_raw@@YGHQAUHINSTANCE__@@KQAX@Z 1000d832 f   LIBCMT:dll_dllmain.obj
 0001:0000cb80       $$000000                   1000db80     LIBCMT:_sehprolg4_.obj
 0001:0000cbdc       ___get_entropy             1000dbdc f   LIBCMT:gs_support.obj
 0001:0000ced3       ??$GetProcAddressAll@P6GXPAUAtlThunkData_t@@@Z@@YAP6GXPAUAtlThunkData_t@@@ZPAP6GX0@Z@Z 1000ded3 f   atls:atlthunk.obj
 0001:0000ced3       ??$GetProcAddressAll@P6GP6GJPAUHWND__@@IIJ@ZPAUAtlThunkData_t@@@Z@@YAP6GP6GJPAUHWND__@@IIJ@ZPAUAtlThunkData_t@@@ZPAP6GP6GJ0IIJ@Z1@Z@Z 1000ded3 f   atls:atlthunk.obj
 0001:0000ced3       ??$GetProcAddressAll@P6GXPAUAtlThunkData_t@@PAXI@Z@@YAP6GXPAUAtlThunkData_t@@PAXI@ZPAP6GX01I@Z@Z 1000ded3 f   atls:atlthunk.obj
 0001:0000ced3       ??$GetProcAddressAll@P6GPAUAtlThunkData_t@@XZ@@YAP6GPAUAtlThunkData_t@@XZPAP6GPAU0@XZ@Z 1000ded3 f   atls:atlthunk.obj
 0001:0000cf83       ?GetProcAddressSingle@@YA_NPAUHINSTANCE__@@PBDPAPAX@Z 1000df83 f   atls:atlthunk.obj
 0001:0000d0d5       ?__InitializeThunkPool@@YAHXZ 1000e0d5 f   atls:atlthunk.obj
 0001:0000d540       _ValidateLocalCookies      1000e540 f   libvcruntime:_chandler4_.obj
 0001:0000e5fb       $LN1285                    1000f5fb     libvcruntime:_memcmp_.obj
 0001:0000e680       $$000000                   1000f680     libvcruntime:memcpy.obj
 0001:0000e8e4       TrailingUpVec              1000f8e4     libvcruntime:memcpy.obj
 0001:0000e990       TrailingDownVec            1000f990     libvcruntime:memcpy.obj
 0001:0000ec00       $$000000                   1000fc00     libvcruntime:memset.obj
 0001:0000f2c0       $$000000                   100102c0     libvcruntime:memmove.obj
 0001:0000f524       TrailingUpVec              10010524     libvcruntime:memmove.obj
 0001:0000f5d0       TrailingDownVec            100105d0     libvcruntime:memmove.obj
 0001:0000f840       $$000000                   10010840     libvcruntime:_exsup4_.obj
 0001:0000f8d0       __unwind_handler4          100108d0 f   libvcruntime:_exsup4_.obj
 0001:0000fbaf       ?try_get_first_available_module@@YAPAUHINSTANCE__@@QBW4module_id@?A0x03f7da57@@0@Z 10010baf f   libvcruntime:winapi_downlevel.obj
 0001:0000fc73       ?try_get_function@@YAPAXW4function_id@?A0x03f7da57@@QBDQBW4module_id@2@2@Z 10010c73 f   libvcruntime:winapi_downlevel.obj
 0001:0000fe73       ??$BuildCatchObjectHelperInternal@$$CBU_s_HandlerType@@@@YAHPAUEHExceptionRecord@@PAXPBU_s_HandlerType@@PBU_s_CatchableType@@@Z 10010e73 f   libvcruntime:frame.obj
 0001:0000ffb2       ??$BuildCatchObjectInternal@$$CBU_s_HandlerType@@@@YAXPAUEHExceptionRecord@@PAXPBU_s_HandlerType@@PBU_s_CatchableType@@@Z 10010fb2 f   libvcruntime:frame.obj
 0001:0001004b       ??$CatchIt@V__FrameHandler3@@@@YAXPAUEHExceptionRecord@@PAUEHRegistrationNode@@PAU_CONTEXT@@PAXPBU_s_FuncInfo@@PBU_s_HandlerType@@PBU_s_CatchableType@@PBU_s_TryBlockMapEntry@@H1E@Z 1001104b f   libvcruntime:frame.obj
 0001:000100cb       ??$FindHandler@V__FrameHandler3@@@@YAXPAUEHExceptionRecord@@PAUEHRegistrationNode@@PAU_CONTEXT@@PAXPBU_s_FuncInfo@@EH1@Z 100110cb f   libvcruntime:frame.obj
 0001:00010459       ??$FindHandlerForForeignException@V__FrameHandler3@@@@YAXPAUEHExceptionRecord@@PAUEHRegistrationNode@@PAU_CONTEXT@@PAXPBU_s_FuncInfo@@HH1@Z 10011459 f   libvcruntime:frame.obj
 0001:0001074c       ?CallCatchBlock@@YAPAXPAUEHExceptionRecord@@PAUEHRegistrationNode@@PAU_CONTEXT@@PBU_s_FuncInfo@@PAXHK@Z 1001174c f   libvcruntime:frame.obj
 0001:00010910       ?CallUnexpected@@YAXPBU_s_ESTypeList@@@Z 10011910 f   libvcruntime:frame.obj
 0001:00010930       __catch$?CallUnexpected@@YAXPBU_s_ESTypeList@@@Z$0 10011930 f   libvcruntime:frame.obj
 0001:0001094a       ?ExFilterRethrow@@YAHPAU_EXCEPTION_POINTERS@@@Z 1001194a f   libvcruntime:frame.obj
 0001:00010a94       ?IsInExceptionSpec@@YAEPAUEHExceptionRecord@@PBU_s_ESTypeList@@@Z 10011a94 f   libvcruntime:frame.obj
 0001:00010b60       $$000000                   10011b60     libvcruntime:lowhelpr.obj
 0001:00010bb0       $$000000                   10011bb0     libvcruntime:_exsup_.obj
 0001:00010bd1       __unwind_handler           10011bd1 f   libvcruntime:_exsup_.obj
 0001:0001135c       ??$common_tcsncpy_s@_W@@YAHQA_WIQB_WI@Z 1001235c f   libucrt:wcsncpy_s.obj
 0001:00011434       ??$common_vsprintf@Vformat_validation_base@__crt_stdio_output@@_W@@YAH_KQA_WIQB_WQAU__crt_locale_pointers@@QAD@Z 10012434 f   libucrt:output.obj
 0001:000115bd       ??$common_vsprintf_s@_W@@YAH_KQA_WIQB_WQAU__crt_locale_pointers@@QAD@Z 100125bd f   libucrt:output.obj
 0001:00011c6a       $LN52                      10012c6a     libucrt:output.obj
 0001:0001215c       $LN19                      1001315c     libucrt:output.obj
 0001:00012a4d       ??R<lambda_6e4b09c48022b2350581041d5f6b0c4c>@@QBE@XZ 10013a4d f   libucrt:exit.obj
 0001:00012b29       ?atexit_exception_filter@@YAHK@Z 10013b29 f   libucrt:exit.obj
 0001:00012b3c       ?common_exit@@YAXHW4_crt_exit_cleanup_mode@@W4_crt_exit_return_mode@@@Z 10013b3c f   libucrt:exit.obj
 0001:00012b92       ?exit_or_terminate_process@@YAXI@Z 10013b92 f   libucrt:exit.obj
 0001:00012bd4       ?is_managed_app@@YA_NXZ    10013bd4 f   libucrt:exit.obj
 0001:00012c18       ?try_cor_exit_process@@YAXI@Z 10013c18 f   libucrt:exit.obj
 0001:00012cbc       ??$common_configure_argv@D@@YAHW4_crt_argv_mode@@@Z 10013cbc f   libucrt:argv_parsing.obj
 0001:00012df2       ??$parse_command_line@D@@YAXPADPAPAD0PAI2@Z 10013df2 f   libucrt:argv_parsing.obj
 0001:00012fc7       ??$common_initialize_environment_nolock@D@@YAHXZ 10013fc7 f   libucrt:environment_initialization.obj
 0001:00013020       ??$create_environment@D@@YAQAPADQAD@Z 10014020 f   libucrt:environment_initialization.obj
 0001:000130f1       ??$free_environment@_W@@YAXQAPA_W@Z 100140f1 f   libucrt:environment_initialization.obj
 0001:000130f1       ??$free_environment@D@@YAXQAPAD@Z 100140f1 f   libucrt:environment_initialization.obj
 0001:00013160       ??$uninitialize_environment_internal@D@@YAXAAPAPAD@Z 10014160 f   libucrt:environment_initialization.obj
 0001:0001317b       ??$uninitialize_environment_internal@_W@@YAXAAPAPA_W@Z 1001417b f   libucrt:environment_initialization.obj
 0001:00013314       ??R<lambda_22ebabd17bc4fa466a2aca6d8deb888d>@@QBEHXZ 10014314 f   libucrt:onexit.obj
 0001:00013455       ??R<lambda_f03950bc5685219e0bcd2087efbe011e>@@QBEHXZ 10014455 f   libucrt:onexit.obj
 0001:00013607       _initialize_global_variables 10014607 f   libucrt:initialization.obj
 0001:00013619       _initialize_c              10014619 f   libucrt:initialization.obj
 0001:00013633       _initialize_environment    10014633 f   libucrt:initialization.obj
 0001:00013633       _uninitialize_global_state_isolation 10014633 f   libucrt:initialization.obj
 0001:00013633       _initialize_global_state_isolation 10014633 f   libucrt:initialization.obj
 0001:00013633       _report_memory_leaks       10014633 f   libucrt:initialization.obj
 0001:00013633       _uninitialize_c            10014633 f   libucrt:initialization.obj
 0001:00013636       _uninitialize_environment  10014636 f   libucrt:initialization.obj
 0001:0001363e       _initialize_pointers       1001463e f   libucrt:initialization.obj
 0001:0001367b       _uninitialize_vcruntime    1001467b f   libucrt:initialization.obj
 0001:00013684       _uninitialize_allocated_memory 10014684 f   libucrt:initialization.obj
 0001:000136e8       ??R<lambda_af42a3ee9806e9a7305d451646e05244>@@QBEXAAPAU__crt_multibyte_data@@@Z 100146e8 f   libucrt:initialization.obj
 0001:00014160       $$000000                   10015160     libucrt:strncmp.obj
 0001:000143f6       ?construct_ptd@@YAXQAU__acrt_ptd@@QAPAU__crt_locale_data@@@Z 100153f6 f   libucrt:per_thread_data.obj
 0001:0001446f       ?destroy_fls@@YGXPAX@Z     1001546f f   libucrt:per_thread_data.obj
 0001:00014490       ?destroy_ptd@@YAXQAU__acrt_ptd@@@Z 10015490 f   libucrt:per_thread_data.obj
 0001:00014539       ?replace_current_thread_locale_nolock@@YAXQAU__acrt_ptd@@QAU__crt_locale_data@@@Z 10015539 f   libucrt:per_thread_data.obj
 0001:00014949       ?try_get_LCMapStringEx@@YAP6GHPB_WK0HPA_WHPAU_nlsversioninfo@@PAXJ@ZXZ 10015949 f   libucrt:winapi_thunks.obj
 0001:00014963       ?try_get_LocaleNameToLCID@@YAP6GKPB_WK@ZXZ 10015963 f   libucrt:winapi_thunks.obj
 0001:0001497d       ?try_get_first_available_module@@YAPAUHINSTANCE__@@QBW4module_id@?A0x391cf84c@@0@Z 1001597d f   libucrt:winapi_thunks.obj
 0001:00014a45       ?try_get_function@@YAPAXW4function_id@?A0x391cf84c@@QBDQBW4module_id@2@2@Z 10015a45 f   libucrt:winapi_thunks.obj
 0001:00014eaa       ??$common_tox_l@$1?internal_isupper_l@@YA_NHQAU__crt_locale_pointers@@@Z$1?internal_map_lower@@YAHH0@Z@@YAHHKQAU__crt_locale_pointers@@@Z 10015eaa f   libucrt:tolower_toupper.obj
 0001:00014ff4       ?internal_isupper_l@@YA_NHQAU__crt_locale_pointers@@@Z 10015ff4 f   libucrt:tolower_toupper.obj
 0001:0001544d       ?fp_format_a@@YAHQBNPADIQADIH_NIQAU__crt_locale_pointers@@@Z 1001644d f   libucrt:cvt.obj
 0001:00015761       ?fp_format_e@@YAHQBNQADI1IH_NIQAU__crt_locale_pointers@@@Z 10016761 f   libucrt:cvt.obj
 0001:000157fc       ?fp_format_e_internal@@YAHQADIH_NIQAU_strflt@@1QAU__crt_locale_pointers@@@Z 100167fc f   libucrt:cvt.obj
 0001:00015947       ?fp_format_f@@YAHQBNQADI1IHQAU__crt_locale_pointers@@@Z 10016947 f   libucrt:cvt.obj
 0001:000159d4       ?fp_format_f_internal@@YAHQADIHQAU_strflt@@_NQAU__crt_locale_pointers@@@Z 100169d4 f   libucrt:cvt.obj
 0001:00015aab       ?fp_format_g@@YAHQBNQADI1IH_NIQAU__crt_locale_pointers@@@Z 10016aab f   libucrt:cvt.obj
 0001:00015b73       ?fp_format_nan_or_infinity@@YAHW4__acrt_fp_class@@_NPADI1@Z 10016b73 f   libucrt:cvt.obj
 0001:00015c6b       ?shift_bytes@@YAXQADI0H@Z  10016c6b f   libucrt:cvt.obj
 0001:00016022       ?initialize_inherited_file_handles_nolock@@YAXXZ 10017022 f   libucrt:ioinit.obj
 0001:000160d8       ?initialize_stdio_handles_nolock@@YAXXZ 100170d8 f   libucrt:ioinit.obj
 0001:000162ce       ?<lambda_invoker_cdecl>@<lambda_86056e3c024bff449830248dc1621ed2>@@CAHPBX0@Z 100172ce f   libucrt:argv_wildcards.obj
 0001:000162e6       ??$common_expand_argv_wildcards@D@@YAHQAPADQAPAPAD@Z 100172e6 f   libucrt:argv_wildcards.obj
 0001:000164c6       ??$copy_and_add_argument_to_buffer@D@@YAHQBD0IAAV?$argument_list@D@?A0x5f5c8891@@@Z 100174c6 f   libucrt:argv_wildcards.obj
 0001:0001657a       ??$expand_argument_wildcards@D@@YAHQAD0AAV?$argument_list@D@?A0x5f5c8891@@@Z 1001757a f   libucrt:argv_wildcards.obj
 0001:000166fe       ?expand_if_necessary@?$argument_list@D@?A0x5f5c8891@@AAEHXZ 100176fe f   libucrt:argv_wildcards.obj
 0001:000167fb       ??R<lambda_ae742caa10f662c28703da3d2ea5e57e>@@QBEXXZ 100177fb f   libucrt:mbctype.obj
 0001:0001687e       ?CPtoLocaleName@@YAPB_WH@Z 1001787e f   libucrt:mbctype.obj
 0001:000168bc       ?getSystemCP@@YAHH@Z       100178bc f   libucrt:mbctype.obj
 0001:0001692f       ?setSBCS@@YAXPAU__crt_multibyte_data@@@Z 1001792f f   libucrt:mbctype.obj
 0001:00016994       ?setSBUpLow@@YAXPAU__crt_multibyte_data@@@Z 10017994 f   libucrt:mbctype.obj
 0001:00016b28       ?setmbcp_internal@@YAHH_NQAU__acrt_ptd@@QAPAU__crt_multibyte_data@@@Z 10017b28 f   libucrt:mbctype.obj
 0001:00016c35       ?update_thread_multibyte_data_internal@@YAPAU__crt_multibyte_data@@QAU__acrt_ptd@@QAU1@@Z 10017c35 f   libucrt:mbctype.obj
 0001:00016f1a       _memcpy_s                  10017f1a f   libucrt:mbctype.obj
 0001:00016f1a       _memcpy_s                  10017f1a f   libucrt:cfout.obj
 0001:00016f9b       ?x_ismbbtype_l@@YAHPAU__crt_locale_pointers@@IHH@Z 10017f9b f   libucrt:ismbbyte.obj
 0001:00017025       ?find_end_of_double_null_terminated_sequence@@YAPB_WQB_W@Z 10018025 f   libucrt:get_environment_from_os.obj
 0001:0001724c       ?get_global_action_nolock@@YAPAP6AXH@ZH@Z 1001824c f   libucrt:signal.obj
 0001:0001728e       ?siglookup@@YAPAU__crt_signal_action_t@@HQAU1@@Z 1001828e f   libucrt:signal.obj
 0001:00017a7d       ?GetTableIndexFromLocaleName@@YAHPB_W@Z 10018a7d f   libucrt:lcidtoname_downlevel.obj
 0001:00017b9e       ?__acrt_LCMapStringA_stat@@YAHPAU__crt_locale_pointers@@PB_WKPBDHPADHHH@Z 10018b9e f   libucrt:lcmapstringa.obj
 0001:00019996       ?common_flush_all@@YAH_N@Z 1001a996 f   libucrt:fflush.obj
 0001:000199d5       ?common_flush_all_should_try_to_flush_stream@@YA_NV__crt_stdio_stream@@QAH@Z 1001a9d5 f   libucrt:fflush.obj
 0001:00019a07       ?is_stream_flushable_or_commitable@@YA_NJ@Z 1001aa07 f   libucrt:fflush.obj
 0001:00019cd8       ?free_crt_array_internal@@YAXQAPBXI@Z 1001acd8 f   libucrt:inittime.obj
 0001:0001a1a0       ?shortsort@@YAXPAD0IP6AHPBX1@Z@Z 1001b1a0 f   libucrt:qsort.obj
 0001:0001a240       ?swap@@YAXPAD0I@Z          1001b240 f   libucrt:qsort.obj
 0001:0001a61a       ??$common_tcsncpy_s@D@@YAHQADIQBDI@Z 1001b61a f   libucrt:strncpy_s.obj
 0001:0001a6e0       $$000000                   1001b6e0     libucrt:strpbrk.obj
 0001:0001a7c4       ?initialize_multibyte@@YAHXZ 1001b7c4 f   libucrt:multibyte_initializer.obj
 0001:0001a8b0       $$000000                   1001b8b0     libucrt:log10.obj
 0001:0001aa00       $$000000                   1001ba00     libucrt:ceil_pentium4.obj
 0001:0001ab1d       ?write_double_translated_ansi_nolock@@YA?AUwrite_result@?A0x17268360@@HQBDI@Z 1001bb1d f   libucrt:write.obj
 0001:0001ace2       ?write_double_translated_unicode_nolock@@YA?AUwrite_result@?A0x17268360@@QBDI@Z 1001bce2 f   libucrt:write.obj
 0001:0001ad4f       ?write_requires_double_translation_nolock@@YA_NH@Z 1001bd4f f   libucrt:write.obj
 0001:0001adc5       ?write_text_ansi_nolock@@YA?AUwrite_result@?A0x17268360@@HQBDI@Z 1001bdc5 f   libucrt:write.obj
 0001:0001aea4       ?write_text_utf16le_nolock@@YA?AUwrite_result@?A0x17268360@@HQBDI@Z 1001bea4 f   libucrt:write.obj
 0001:0001af92       ?write_text_utf8_nolock@@YA?AUwrite_result@?A0x17268360@@HQBDI@Z 1001bf92 f   libucrt:write.obj
 0001:0001b3c3       ??$common_lseek_nolock@_J@@YA_JH_JH@Z 1001c3c3 f   libucrt:lseek.obj
 0001:0001b687       ___get_abstract_control_sse2 1001c687 f   libucrt:_fenvutils.obj
 0001:0001b704       ___get_abstract_control_x87 1001c704 f   libucrt:_fenvutils.obj
 0001:0001b777       ___get_machine_control     1001c777 f   libucrt:_fenvutils.obj
 0001:0001b7e8       ___get_machine_control_sse2 1001c7e8 f   libucrt:_fenvutils.obj
 0001:0001b868       ___get_machine_status_sse2 1001c868 f   libucrt:_fenvutils.obj
 0001:0001b8c9       ___get_machine_status_x87  1001c8c9 f   libucrt:_fenvutils.obj
 0001:0001bc10       $$000000                   1001cc10     libucrt:log10_pentium4.obj
 0001:0001bea0       $$000000                   1001cea0     libucrt:87tran.obj
 0001:0001c0a0       $$000000                   1001d0a0     libucrt:87disp.obj
 0001:0001c2a0       $$000000                   1001d2a0     libucrt:common.obj
 0001:0001c430       $$000000                   1001d430     libucrt:genexcep.obj
 0001:0001c9a0       $$000000                   1001d9a0     libucrt:_strnicm.obj
 0001:0001d7f0       $$000000                   1001e7f0     LIBCMT:ulldvrm.obj
 0001:0001d890       $$000000                   1001e890     LIBCMT:llmul.obj
 0001:0001d8d0       $$000000                   1001e8d0     LIBCMT:lldvrm.obj
 0001:0001d9b0       $$000000                   1001e9b0     LIBCMT:ullshr.obj
 0001:0001d9d0       $$000000                   1001e9d0     LIBCMT:llshl.obj
 0001:0001d9f0       $$000000                   1001e9f0     LIBCMT:_ftol2_.obj
 0001:0001dab0       $$000000                   1001eab0     libvcruntime:strrchr.obj
 0001:0001dbf0       $$000000                   1001ebf0     libvcruntime:strchr.obj
 0001:0001dd1b       __ehhandler$?__scrt_initialize_thread_safe_statics_platform_specific@@YAXXZ 1001ed1b f   LIBCMT:thread_safe_statics.obj
 0001:0001dd36       __ehhandler$??2@YAPAXIABUnothrow_t@std@@@Z 1001ed36 f   LIBCMT:new_scalar_nothrow.obj
 0001:0001dd51       __ehhandler$?CallUnexpected@@YAXPBU_s_ESTypeList@@@Z 1001ed51 f   libvcruntime:frame.obj
 0001:0001dd6c       ??__F_AtlComModule@ATL@@YAXXZ 1001ed6c f   OposVariant.obj
 0001:0001dd76       ??__F_AtlWinModule@ATL@@YAXXZ 1001ed76 f   OposVariant.obj
 0001:0001dd90       ??__F_Module@@YAXXZ        1001ed90 f   RemoteOrderDisplay.obj
 0001:0001dda4       ??__F_AtlBaseModule@ATL@@YAXXZ 1001eda4 f   atls:atlbase.obj
 0002:00000304       ?_AtlBaseModule$initializer$@ATL@@3P6AXXZA 1001f304     atls:atlbase.obj
 0002:00000308       ?_AtlComModule$initializer$@ATL@@3P6AXXZA 1001f308     OposVariant.obj
 0002:0000030c       ?_AtlWinModule$initializer$@ATL@@3P6AXXZA 1001f30c     OposVariant.obj
 0002:00000310       ?_Module$initializer$@@3P6AXXZA 1001f310     RemoteOrderDisplay.obj
 0002:00000314       ??pConnMap$initializer$@?$IConnectionPointContainerImpl@VCOPOSRemoteOrderDisplay@@@ATL@@0P6AXXZA@@3P6AXXZA 1001f314     RemoteOrderDisplay.obj
 0002:00000320       ?__scrt_initialize_tss_var@@3P6AHXZA 1001f320     LIBCMT:thread_safe_statics.obj
 0002:00000760       ?map@?1??HKeyFromString@CRegParser@ATL@@KAPAUHKEY__@@PA_W@Z@4QBUkeymap@?1??123@KAPAU4@0@Z@B 1001f760     RemoteOrderDisplay.obj
 0002:00001a94       _GS_ExceptionPointers      10020a94     LIBCMT:gs_report.obj
 0002:00001c00       ?ExceptionTemplate@?1??_CxxThrowException@@9@8@4UEHExceptionRecord@@B 10020c00     libvcruntime:throw.obj
 0002:00001c20       ?module_names@?A0x03f7da57@@3QBQB_WB 10020c20     libvcruntime:winapi_downlevel.obj
 0002:00001cd8       ?candidate_modules@?1??try_get_FlsAlloc@@YAP6GKP6GXPAX@Z@ZXZ@4QBW4module_id@?A0x03f7da57@@B 10020cd8     libvcruntime:winapi_downlevel.obj
 0002:00001cec       ?candidate_modules@?1??try_get_FlsFree@@YAP6GHK@ZXZ@4QBW4module_id@?A0x03f7da57@@B 10020cec     libvcruntime:winapi_downlevel.obj
 0002:00001cfc       ?candidate_modules@?1??try_get_FlsGetValue@@YAP6GPAXK@ZXZ@4QBW4module_id@?A0x03f7da57@@B 10020cfc     libvcruntime:winapi_downlevel.obj
 0002:00001d10       ?candidate_modules@?1??try_get_FlsSetValue@@YAP6GHKPAX@ZXZ@4QBW4module_id@?A0x03f7da57@@B 10020d10     libvcruntime:winapi_downlevel.obj
 0002:00001d24       ?candidate_modules@?1??try_get_InitializeCriticalSectionEx@@YAP6GHPAU_RTL_CRITICAL_SECTION@@KK@ZXZ@4QBW4module_id@?A0x03f7da57@@B 10020d24     libvcruntime:winapi_downlevel.obj
 0002:00001d68       ?tokenTable@@3QBQBDB       10020d68     libvcruntime:undname.obj
 0002:00001da8       ?nameTable@@3QBQBDB        10020da8     libvcruntime:undname.obj
 0002:00001ef0       ?rttiTable@@3QBQBDB        10020ef0     libvcruntime:undname.obj
 0002:00002508       ?errtable@@3QBUerrentry@?A0x31fdb9ec@@B 10021508     libucrt:errno.obj
 0002:000027a8       ___acrt_initializers       100217a8     libucrt:initialization.obj
 0002:00002820       ?module_names@?A0x391cf84c@@3QBQB_WB 10021820     libucrt:winapi_thunks.obj
 0002:00002d08       ?candidate_modules@?1??try_get_FlsAlloc@@YAP6GKP6GXPAX@Z@ZXZ@4QBW4module_id@?A0x391cf84c@@B 10021d08     libucrt:winapi_thunks.obj
 0002:00002d1c       ?candidate_modules@?1??try_get_FlsFree@@YAP6GHK@ZXZ@4QBW4module_id@?A0x391cf84c@@B 10021d1c     libucrt:winapi_thunks.obj
 0002:00002d2c       ?candidate_modules@?1??try_get_FlsGetValue@@YAP6GPAXK@ZXZ@4QBW4module_id@?A0x391cf84c@@B 10021d2c     libucrt:winapi_thunks.obj
 0002:00002d40       ?candidate_modules@?1??try_get_FlsSetValue@@YAP6GHKPAX@ZXZ@4QBW4module_id@?A0x391cf84c@@B 10021d40     libucrt:winapi_thunks.obj
 0002:00002d54       ?candidate_modules@?1??try_get_InitializeCriticalSectionEx@@YAP6GHPAU_RTL_CRITICAL_SECTION@@KK@ZXZ@4QBW4module_id@?A0x391cf84c@@B 10021d54     libucrt:winapi_thunks.obj
 0002:00002d78       ?candidate_modules@?1??try_get_LCMapStringEx@@YAP6GHPB_WK0HPA_WHPAU_nlsversioninfo@@PAXJ@ZXZ@4QBW4module_id@?A0x391cf84c@@B 10021d78     libucrt:winapi_thunks.obj
 0002:00002d90       ?candidate_modules@?1??try_get_LocaleNameToLCID@@YAP6GKPB_WK@ZXZ@4QBW4module_id@?A0x391cf84c@@B 10021d90     libucrt:winapi_thunks.obj
 0002:00002dac       ?candidate_modules@?1??try_get_AppPolicyGetProcessTerminationMethod@@YAP6GJPAXPAW4AppPolicyProcessTerminationMethod@@@ZXZ@4QBW4module_id@?A0x391cf84c@@B 10021dac     libucrt:winapi_thunks.obj
 0002:00002dd8       ?candidate_modules@?1??try_get_SetThreadStackGuarantee@@YAP6GHPAK@ZXZ@4QBW4module_id@?A0x391cf84c@@B 10021dd8     libucrt:winapi_thunks.obj
 0002:00003304       ?_mb_locale_names@@3QBQB_WB 10022304     libucrt:mbctype.obj
 0002:00003b50       ?LcidToLocaleNameTable@?A0x881e4c05@@3QBULcidToLocaleName@1@B 10022b50     libucrt:lcidtoname_downlevel.obj
 0002:00004c78       ?LocaleNameToIndexTable@?A0x881e4c05@@3QBULocaleNameIndex@1@B 10023c78     libucrt:lcidtoname_downlevel.obj
 0002:000065b0       LOG_name                   100255b0     libucrt:log10.obj
 0002:000065c0       _One                       100255c0     libucrt:ceil_pentium4.obj
 0002:000065d0       _Bns                       100255d0     libucrt:ceil_pentium4.obj
 0002:000065e0       _Zero                      100255e0     libucrt:ceil_pentium4.obj
 0002:000065f0       _S                         100255f0     libucrt:ceil_pentium4.obj
 0002:00006600       _NegZero                   10025600     libucrt:ceil_pentium4.obj
 0002:00006610       emask                      10025610     libucrt:log10_pentium4.obj
 0002:00006620       CC                         10025620     libucrt:log10_pentium4.obj
 0002:00006630       Magic                      10025630     libucrt:log10_pentium4.obj
 0002:00006640       hi_mask                    10025640     libucrt:log10_pentium4.obj
 0002:00006650       LOG10_2                    10025650     libucrt:log10_pentium4.obj
 0002:00006660       place_L                    10025660     libucrt:log10_pentium4.obj
 0002:00006680       One                        10025680     libucrt:log10_pentium4.obj
 0002:00006690       Zero                       10025690     libucrt:log10_pentium4.obj
 0002:000066a0       Two52                      100256a0     libucrt:log10_pentium4.obj
 0002:000066b0       Infs                       100256b0     libucrt:log10_pentium4.obj
 0002:000066c0       NaN                        100256c0     libucrt:log10_pentium4.obj
 0002:000066d0       coeff                      100256d0     libucrt:log10_pentium4.obj
 0002:0000672e       _log2max                   1002572e     libucrt:87tran.obj
 0002:00006738       _smallarg                  10025738     libucrt:87tran.obj
 0002:00006742       _half                      10025742     libucrt:87tran.obj
 0002:0000678e       One                        1002578e     libucrt:87disp.obj
 0002:00006796       Three                      10025796     libucrt:87disp.obj
 0002:0000679e       XAMtoTagTab                1002579e     libucrt:87disp.obj
 0002:000067b0       One                        100257b0     libucrt:common.obj
 0002:000067c4       DblMax                     100257c4     libucrt:common.obj
 0002:000067cc       DblMin                     100257cc     libucrt:common.obj
 0002:000067d4       IeeeAdjO                   100257d4     libucrt:common.obj
 0002:000067dc       IeeeAdjU                   100257dc     libucrt:common.obj
 0002:000067e4       _infinity                  100257e4     libucrt:common.obj
 0002:000067ec       _zero                      100257ec     libucrt:common.obj
 0002:00006828       _over                      10025828     libucrt:fpctrl.obj
 0002:00006834       _under                     10025834     libucrt:fpctrl.obj
 0002:00007068       ?_names@?1??_get_fname@@9@9 10026068     libucrt:fpexcept.obj
 0002:000078d8       __sehtable$?_AtlVerifyStackAvailable@_ATL_SAFE_ALLOCA_IMPL@ATL@@YA_NK@Z 100268d8     RemoteOrderDisplay.obj
 0002:000078f8       __sehtable$___scrt_is_nonwritable_in_current_image 100268f8     LIBCMT:utility.obj
 0002:00007914       __ehfuncinfo$?__scrt_initialize_thread_safe_statics_platform_specific@@YAXXZ 10026914     LIBCMT:thread_safe_statics.obj
 0002:00007938       __catchsym$??2@YAPAXIABUnothrow_t@std@@@Z$2 10026938     LIBCMT:new_scalar_nothrow.obj
 0002:00007948       __unwindtable$??2@YAPAXIABUnothrow_t@std@@@Z 10026948     LIBCMT:new_scalar_nothrow.obj
 0002:00007958       __tryblocktable$??2@YAPAXIABUnothrow_t@std@@@Z 10026958     LIBCMT:new_scalar_nothrow.obj
 0002:0000796c       __ehfuncinfo$??2@YAPAXIABUnothrow_t@std@@@Z 1002696c     LIBCMT:new_scalar_nothrow.obj
 0002:00007990       __sehtable$?dllmain_crt_process_attach@@YAHQAUHINSTANCE__@@QAX@Z 10026990     LIBCMT:dll_dllmain.obj
 0002:000079b0       __sehtable$?dllmain_crt_process_detach@@YAH_N@Z 100269b0     LIBCMT:dll_dllmain.obj
 0002:000079d0       __sehtable$?dllmain_dispatch@@YAHQAUHINSTANCE__@@KQAX@Z 100269d0     LIBCMT:dll_dllmain.obj
 0002:00007a80       __sehtable$?FrameUnwindToState@__FrameHandler3@@SAXPAUEHRegistrationNode@@PAXPBU_s_FuncInfo@@H@Z 10026a80     libvcruntime:frame.obj
 0002:00007aa8       __sehtable$?CallCatchBlock@@YAPAXPAUEHExceptionRecord@@PAUEHRegistrationNode@@PAU_CONTEXT@@PBU_s_FuncInfo@@PAXHK@Z 10026aa8     libvcruntime:frame.obj
 0002:00007ad0       __catchsym$?CallUnexpected@@YAXPBU_s_ESTypeList@@@Z$2 10026ad0     libvcruntime:frame.obj
 0002:00007ae0       __unwindtable$?CallUnexpected@@YAXPBU_s_ESTypeList@@@Z 10026ae0     libvcruntime:frame.obj
 0002:00007af0       __tryblocktable$?CallUnexpected@@YAXPBU_s_ESTypeList@@@Z 10026af0     libvcruntime:frame.obj
 0002:00007b04       __ehfuncinfo$?CallUnexpected@@YAXPBU_s_ESTypeList@@@Z 10026b04     libvcruntime:frame.obj
 0002:00007b28       __sehtable$??$BuildCatchObjectHelperInternal@$$CBU_s_HandlerType@@@@YAHPAUEHExceptionRecord@@PAXPBU_s_HandlerType@@PBU_s_CatchableType@@@Z 10026b28     libvcruntime:frame.obj
 0002:00007b48       __sehtable$??$BuildCatchObjectInternal@$$CBU_s_HandlerType@@@@YAXPAUEHExceptionRecord@@PAXPBU_s_HandlerType@@PBU_s_CatchableType@@@Z 10026b48     libvcruntime:frame.obj
 0002:00007ba0       __sehtable$___DestructExceptionObject 10026ba0     libvcruntime:ehhelpers.obj
 0002:00007bc0       __sehtable$??R<lambda_6e4b09c48022b2350581041d5f6b0c4c>@@QBE@XZ 10026bc0     libucrt:exit.obj
 0002:00007be0       __sehtable$??$?RV<lambda_03b1d95aef87969028cfba75ccab2455>@@AAV<lambda_6e4b09c48022b2350581041d5f6b0c4c>@@V<lambda_22bdf7517842c4b3e53723af5aa32b9e>@@@?$__crt_seh_guarded_call@X@@QAEX$$QAV<lambda_03b1d95aef87969028cfba75ccab2455>@@AAV<lambda_6e4b09c48022b2350581041d5f6b0c4c>@@$$QAV<lambda_22bdf7517842c4b3e53723af5aa32b9e>@@@Z 10026be0     libucrt:exit.obj
 0002:00007c00       __sehtable$??$?RV<lambda_8e746cf0007f6ed984d6f78af1fec997>@@AAV<lambda_22ebabd17bc4fa466a2aca6d8deb888d>@@V<lambda_18ed0c0b38a6dc0daf1e7ac6d6adf05e>@@@?$__crt_seh_guarded_call@H@@QAEH$$QAV<lambda_8e746cf0007f6ed984d6f78af1fec997>@@AAV<lambda_22ebabd17bc4fa466a2aca6d8deb888d>@@$$QAV<lambda_18ed0c0b38a6dc0daf1e7ac6d6adf05e>@@@Z 10026c00     libucrt:onexit.obj
 0002:00007c20       __sehtable$??$?RV<lambda_69a2805e680e0e292e8ba93315fe43a8>@@AAV<lambda_f03950bc5685219e0bcd2087efbe011e>@@V<lambda_03fcd07e894ec930e3f35da366ca99d6>@@@?$__crt_seh_guarded_call@H@@QAEH$$QAV<lambda_69a2805e680e0e292e8ba93315fe43a8>@@AAV<lambda_f03950bc5685219e0bcd2087efbe011e>@@$$QAV<lambda_03fcd07e894ec930e3f35da366ca99d6>@@@Z 10026c20     libucrt:onexit.obj
 0002:00007c40       __sehtable$__query_new_handler 10026c40     libucrt:new_handler.obj
 0002:00007c60       __sehtable$_terminate      10026c60     libucrt:terminate.obj
 0002:00007c80       __sehtable$??$?RV<lambda_15ade71b0218206bbe3333a0c9b79046>@@AAV<lambda_da44e0f8b0f19ba52fefafb335991732>@@V<lambda_207f2d024fc103971653565357d6cd41>@@@?$__crt_seh_guarded_call@X@@QAEX$$QAV<lambda_15ade71b0218206bbe3333a0c9b79046>@@AAV<lambda_da44e0f8b0f19ba52fefafb335991732>@@$$QAV<lambda_207f2d024fc103971653565357d6cd41>@@@Z 10026c80     libucrt:per_thread_data.obj
 0002:00007ca0       __sehtable$??$?RV<lambda_a7e850c220f1c8d1e6efeecdedd162c6>@@AAV<lambda_46720907175c18b6c9d2717bc0d2d362>@@V<lambda_9048902d66e8d99359bc9897bbb930a8>@@@?$__crt_seh_guarded_call@X@@QAEX$$QAV<lambda_a7e850c220f1c8d1e6efeecdedd162c6>@@AAV<lambda_46720907175c18b6c9d2717bc0d2d362>@@$$QAV<lambda_9048902d66e8d99359bc9897bbb930a8>@@@Z 10026ca0     libucrt:per_thread_data.obj
 0002:00007cc0       __sehtable$??$?RV<lambda_38edbb1296d33220d7e4dd0ed76b244a>@@AAV<lambda_5ce1d447e08cb34b2473517608e21441>@@V<lambda_fb385d3da700c9147fc39e65dd577a8c>@@@?$__crt_seh_guarded_call@X@@QAEX$$QAV<lambda_38edbb1296d33220d7e4dd0ed76b244a>@@AAV<lambda_5ce1d447e08cb34b2473517608e21441>@@$$QAV<lambda_fb385d3da700c9147fc39e65dd577a8c>@@@Z 10026cc0     libucrt:per_thread_data.obj
 0002:00007ce0       __sehtable$??$?RV<lambda_6affb1475c98b40b75cdec977db92e3c>@@AAV<lambda_b8d4b9c228a6ecc3f80208dbb4b4a104>@@V<lambda_608742c3c92a14382c1684fc64f96c88>@@@?$__crt_seh_guarded_call@X@@QAEX$$QAV<lambda_6affb1475c98b40b75cdec977db92e3c>@@AAV<lambda_b8d4b9c228a6ecc3f80208dbb4b4a104>@@$$QAV<lambda_608742c3c92a14382c1684fc64f96c88>@@@Z 10026ce0     libucrt:per_thread_data.obj
 0002:00007d00       __sehtable$??$?RV<lambda_e5124f882df8998aaf41531e079ba474>@@AAV<lambda_3e16ef9562a7dcce91392c22ab16ea36>@@V<lambda_e25ca0880e6ef98be67edffd8c599615>@@@?$__crt_seh_guarded_call@X@@QAEX$$QAV<lambda_e5124f882df8998aaf41531e079ba474>@@AAV<lambda_3e16ef9562a7dcce91392c22ab16ea36>@@$$QAV<lambda_e25ca0880e6ef98be67edffd8c599615>@@@Z 10026d00     libucrt:wsetlocale.obj
 0002:00007d20       __sehtable$___acrt_initialize_lowio 10026d20     libucrt:ioinit.obj
 0002:00007d40       __sehtable$?update_thread_multibyte_data_internal@@YAPAU__crt_multibyte_data@@QAU__acrt_ptd@@QAU1@@Z 10026d40     libucrt:mbctype.obj
 0002:00007d60       __sehtable$??$?RV<lambda_ceb1ee4838e85a9d631eb091e2fbe199>@@AAV<lambda_ae742caa10f662c28703da3d2ea5e57e>@@V<lambda_cd08b5d6af4937fe54fc07d0c9bf6b37>@@@?$__crt_seh_guarded_call@X@@QAEX$$QAV<lambda_ceb1ee4838e85a9d631eb091e2fbe199>@@AAV<lambda_ae742caa10f662c28703da3d2ea5e57e>@@$$QAV<lambda_cd08b5d6af4937fe54fc07d0c9bf6b37>@@@Z 10026d60     libucrt:mbctype.obj
 0002:00007d80       __sehtable$_raise          10026d80     libucrt:signal.obj
 0002:00007da0       __sehtable$??$?RV<lambda_cbab9ec6f41b0180b23cc171c22676b0>@@AAV<lambda_44731a7d0e6d81c3e6aa82d741081786>@@V<lambda_4b292cb8dd18144e164572427af410ab>@@@?$__crt_seh_guarded_call@P6AXH@Z@@QAEP6AXH@Z$$QAV<lambda_cbab9ec6f41b0180b23cc171c22676b0>@@AAV<lambda_44731a7d0e6d81c3e6aa82d741081786>@@$$QAV<lambda_4b292cb8dd18144e164572427af410ab>@@@Z 10026da0     libucrt:signal.obj
 0002:00007dc0       __sehtable$___acrt_update_thread_locale_data 10026dc0     libucrt:locale_refcounting.obj
 0002:00007de0       __sehtable$__fcloseall     10026de0     libucrt:closeall.obj
 0002:00007e00       __sehtable$??$?RV<lambda_2866be3712abc81a800a822484c830d8>@@AAV<lambda_39ca0ed439415581b5b15c265174cece>@@V<lambda_2b24c74d71094a6cd0cb82e44167d71b>@@@?$__crt_seh_guarded_call@X@@QAEX$$QAV<lambda_2866be3712abc81a800a822484c830d8>@@AAV<lambda_39ca0ed439415581b5b15c265174cece>@@$$QAV<lambda_2b24c74d71094a6cd0cb82e44167d71b>@@@Z 10026e00     libucrt:fflush.obj
 0002:00007e20       __sehtable$??$?RV<lambda_2cc53f568c5a2bb6f192f930a45d44ea>@@AAV<lambda_ab61a845afdef5b7c387490eaf3616ee>@@V<lambda_c2ffc0b7726aa6be21d5f0026187e748>@@@?$__crt_seh_guarded_call@X@@QAEX$$QAV<lambda_2cc53f568c5a2bb6f192f930a45d44ea>@@AAV<lambda_ab61a845afdef5b7c387490eaf3616ee>@@$$QAV<lambda_c2ffc0b7726aa6be21d5f0026187e748>@@@Z 10026e20     libucrt:fflush.obj
 0002:00007e40       __sehtable$___acrt_lowio_ensure_fh_exists 10026e40     libucrt:osfinfo.obj
 0002:00007e60       __sehtable$__write         10026e60     libucrt:write.obj
 0002:00007e80       __sehtable$_fclose         10026e80     libucrt:fclose.obj
 0002:00007ea0       __sehtable$??$?RV<lambda_9e9de3de5fa147e2223d7db92bc10aa6>@@AAV<lambda_38ce7e780aa69e748d6df282ebc68efe>@@V<lambda_8ca6da459f0f6780f1cff60fdc3d00e5>@@@?$__crt_seh_guarded_call@H@@QAEH$$QAV<lambda_9e9de3de5fa147e2223d7db92bc10aa6>@@AAV<lambda_38ce7e780aa69e748d6df282ebc68efe>@@$$QAV<lambda_8ca6da459f0f6780f1cff60fdc3d00e5>@@@Z 10026ea0     libucrt:commit.obj
 0002:00007ec0       __sehtable$??$?RV<lambda_218ce3db14220d0be481dae8ef3383b6>@@AAV<lambda_628dfdc04ba53c8bfc02c9951375f3f5>@@V<lambda_57dc472bd5c9d5f3b2cbca59b8a843ae>@@@?$__crt_seh_guarded_call@H@@QAEH$$QAV<lambda_218ce3db14220d0be481dae8ef3383b6>@@AAV<lambda_628dfdc04ba53c8bfc02c9951375f3f5>@@$$QAV<lambda_57dc472bd5c9d5f3b2cbca59b8a843ae>@@@Z 10026ec0     libucrt:close.obj
 0002:00007ee0       __sehtable$__IsNonwritableInCurrentImage 10026ee0     LIBCMT:pesect.obj
 0002:00007f10       .edata                     10026f10     OPOSRemoteOrderDisplay.exp
 0002:00007f38       rgpv                       10026f38     OPOSRemoteOrderDisplay.exp
 0002:00007f48       rgszName                   10026f48     OPOSRemoteOrderDisplay.exp
 0002:00007f58       rgwOrd                     10026f58     OPOSRemoteOrderDisplay.exp
 0002:00007f60       szName                     10026f60     OPOSRemoteOrderDisplay.exp
 0002:00007f7b       $N00001                    10026f7b     OPOSRemoteOrderDisplay.exp
 0002:00007f8b       $N00002                    10026f8b     OPOSRemoteOrderDisplay.exp
 0002:00007f9d       $N00003                    10026f9d     OPOSRemoteOrderDisplay.exp
 0002:00007faf       $N00004                    10026faf     OPOSRemoteOrderDisplay.exp
 0002:000085c8       .idata$6                   100275c8     kernel32:KERNEL32.dll
 0002:000087dc       .idata$6                   100277dc     user32:USER32.dll
 0002:00008910       .idata$6                   10027910     gdi32:GDI32.dll
 0002:000089b6       .idata$6                   100279b6     advapi32:ADVAPI32.dll
 0002:00008ad2       .idata$6                   10027ad2     ole32:ole32.dll
 0002:00008adc       .idata$6                   10027adc     oleaut32:OLEAUT32.dll
 0003:00000110       ?ObjectMap@@3PAU_ATL_OBJMAP_ENTRY30@ATL@@A 10028110     RemoteOrderDisplay.obj
 0003:000001d0       ?s_SOMethodNames@@3PAPADA  100281d0     RemoteOrderDisplayImpl.obj
 0003:0000025c       ?s_RequiredMethodsPerRelease@@3PAHA 1002825c     RemoteOrderDisplayImpl.obj
 0003:00000290       ?__vcrt_flsindex@@3KA      10028290     libvcruntime:per_thread_data.obj
 0003:000002b0       ?errno_no_memory@@3HA      100282b0     libucrt:errno.obj
 0003:000002b4       ?doserrno_no_memory@@3KA   100282b4     libucrt:errno.obj
 0003:000002c0       ?__acrt_flsindex@@3KA      100282c0     libucrt:per_thread_data.obj
 0003:00000438       __mbctypes                 10028438     libucrt:mbctype.obj
 0003:00000540       __mbcasemaps               10028540     libucrt:mbctype.obj
 0003:00000640       ?__rgctypeflag@@3PADA      10028640     libucrt:mbctype.obj
 0003:00000648       ?__rgcode_page_info@@3PAUcode_page_info@@A 10028648     libucrt:mbctype.obj
 0003:00000b50       ?is_initialized_as_dll@@3_NA 10028b50     LIBCMT:utility.obj
 0003:00000b51       ?module_local_atexit_table_initialized@@3_NA 10028b51     LIBCMT:utility.obj
 0003:00000b54       ?module_local_atexit_table@@3U_onexit_table_t@@A 10028b54     LIBCMT:utility.obj
 0003:00000b60       ?module_local_at_quick_exit_table@@3U_onexit_table_t@@A 10028b60     LIBCMT:utility.obj
 0003:00000b6c       ?_Tss_mutex@@3U_RTL_CRITICAL_SECTION@@A 10028b6c     LIBCMT:thread_safe_statics.obj
 0003:00000b84       ?_Tss_cv@@3U_RTL_CONDITION_VARIABLE@@A 10028b84     LIBCMT:thread_safe_statics.obj
 0003:00000b88       ?_Tss_event@@3PAXA         10028b88     LIBCMT:thread_safe_statics.obj
 0003:00000b8c       ?encoded_sleep_condition_variable_cs@@3P6GHPAU_RTL_CONDITION_VARIABLE@@PAU_RTL_CRITICAL_SECTION@@K@ZA 10028b8c     LIBCMT:thread_safe_statics.obj
 0003:00000b90       ?encoded_wake_all_condition_variable@@3P6GXPAU_RTL_CONDITION_VARIABLE@@@ZA 10028b90     LIBCMT:thread_safe_statics.obj
 0003:00000b98       _GS_ExceptionRecord        10028b98     LIBCMT:gs_report.obj
 0003:00000be8       _GS_ContextRecord          10028be8     LIBCMT:gs_report.obj
 0003:00000eb8       ?__proc_attached@@3HA      10028eb8     LIBCMT:dll_dllmain.obj
 0003:00000f14       ?AllocateData@@3P6GPAUAtlThunkData_t@@XZA 10028f14     atls:atlthunk.obj
 0003:00000f18       ?InitData@@3P6GXPAUAtlThunkData_t@@PAXI@ZA 10028f18     atls:atlthunk.obj
 0003:00000f1c       ?DataToCode@@3P6GP6GJPAUHWND__@@IIJ@ZPAUAtlThunkData_t@@@ZA 10028f1c     atls:atlthunk.obj
 0003:00000f20       ?FreeData@@3P6GXPAUAtlThunkData_t@@@ZA 10028f20     atls:atlthunk.obj
 0003:00000f24       ?Initialized@@3_NA         10028f24     atls:atlthunk.obj
 0003:00000f30       ?__vcrt_startup_thread_ptd@@3U__vcrt_ptd@@A 10028f30     libvcruntime:per_thread_data.obj
 0003:00000f58       ___vcrt_lock_table         10028f58     libvcruntime:locks.obj
 0003:00000f70       ___vcrt_locks_initialized  10028f70     libvcruntime:locks.obj
 0003:00000f74       ?module_handles@@3PAPAUHINSTANCE__@@A 10028f74     libvcruntime:winapi_downlevel.obj
 0003:00000f80       ?encoded_function_pointers@@3PAPAXA 10028f80     libvcruntime:winapi_downlevel.obj
 0003:00000fbc       ?heap@@3V_HeapManager@@A   10028fbc     libvcruntime:undname.obj
 0003:00000fd4       ?__acrt_invalid_parameter_handler@@3V?$dual_state_global@P6AXPB_W00II@Z@__crt_state_management@@A 10028fd4     libucrt:invalid_parameter.obj
 0003:00000fd8       ?c_termination_complete@@3JA 10028fd8     libucrt:exit.obj
 0003:00000fdc       ?thread_local_exit_callback_func@@3P6GXPAXK0@ZA 10028fdc     libucrt:exit.obj
 0003:00000fe8       ?program_name@?1???$common_configure_argv@D@@YAHW4_crt_argv_mode@@@Z@4PADA 10028fe8     libucrt:argv_parsing.obj
 0003:00001118       ?__acrt_new_handler@@3V?$dual_state_global@P6AHI@Z@__crt_state_management@@A 10029118     libucrt:new_handler.obj
 0003:00001120       ?module_handles@@3PAPAUHINSTANCE__@@A 10029120     libucrt:winapi_thunks.obj
 0003:00001170       ?encoded_function_pointers@@3PAPAXA 10029170     libucrt:winapi_thunks.obj
 0003:00001200       ?enable_percent_n@@3IA     10029200     libucrt:printf_count_output.obj
 0003:00001420       ?__acrt_lock_table@@3PAU_RTL_CRITICAL_SECTION@@A 10029420     libucrt:locks.obj
 0003:00001570       ?__acrt_locks_initialized@@3IA 10029570     libucrt:locks.obj
 0003:00001580       ?fSystemSet@@3HA           10029580     libucrt:mbctype.obj
 0003:00001584       ?initialized@?1??__acrt_initialize_multibyte@@9@4_NA 10029584     libucrt:mbctype.obj
 0003:000015a4       ?ctrlc_action@@3V?$dual_state_global@P6AXH@Z@__crt_state_management@@A 100295a4     libucrt:signal.obj
 0003:000015a8       ?ctrlbreak_action@@3V?$dual_state_global@P6AXH@Z@__crt_state_management@@A 100295a8     libucrt:signal.obj
 0003:000015ac       ?abort_action@@3V?$dual_state_global@P6AXH@Z@__crt_state_management@@A 100295ac     libucrt:signal.obj
 0003:000015b0       ?term_action@@3V?$dual_state_global@P6AXH@Z@__crt_state_management@@A 100295b0     libucrt:signal.obj
 0003:000015b4       ?user_matherr@@3V?$dual_state_global@P6AHPAU_exception@@@Z@__crt_state_management@@A 100295b4     libucrt:matherr.obj
 0003:000015b8       ?__acrt_global_new_mode@@3V?$dual_state_global@J@__crt_state_management@@A 100295b8     libucrt:new_mode.obj
 0003:000015c4       ?__acrt_app_type@@3W4_crt_app_type@@A 100295c4     libucrt:report_runtime_error.obj
 0003:000015cc       __pmatherr_set             100295cc     libucrt:libm_error.obj
 0004:00000220       $R000000                   1002a220     RemoteOrderDisplay.res
 0004:00000bc0       $R0009A0                   1002abc0     RemoteOrderDisplay.res
 0004:00000ca8       $R000A88                   1002aca8     RemoteOrderDisplay.res
 0004:00000f10       $R000CF0                   1002af10     RemoteOrderDisplay.res
 0004:00001478       $R001258                   1002b478     RemoteOrderDisplay.res
 0004:00005688       $R005468                   1002f688     RemoteOrderDisplay.res
 0004:000056d0       $R0054B0                   1002f6d0     RemoteOrderDisplay.res
