 OPOSPOSPower

 Timestamp is 5defaa72 (Tue Dec 10 23:23:46 2019)

 Preferred load address is 10000000

 Start         Length     Name                   Class
 0001:00000000 00000080H .text$di                CODE
 0001:00000080 0001d6e3H .text$mn                CODE
 0001:0001d763 00000036H .text$x                 CODE
 0001:0001d799 00000042H .text$yd                CODE
 0002:00000000 000002fcH .idata$5                DATA
 0002:000002fc 00000004H .00cfg                  DATA
 0002:00000300 00000004H .CRT$XCA                DATA
 0002:00000304 00000004H .CRT$XCL                DATA
 0002:00000308 00000010H .CRT$XCU                DATA
 0002:00000318 00000004H .CRT$XCZ                DATA
 0002:0000031c 00000004H .CRT$XIA                DATA
 0002:00000320 00000010H .CRT$XIC                DATA
 0002:00000330 00000004H .CRT$XIZ                DATA
 0002:00000334 00000004H .CRT$XLA                DATA
 0002:00000338 00000004H .CRT$XLZ                DATA
 0002:0000033c 00000004H .CRT$XPA                DATA
 0002:00000340 00000008H .CRT$XPX                DATA
 0002:00000348 00000004H .CRT$XPXA               DATA
 0002:0000034c 00000004H .CRT$XPZ                DATA
 0002:00000350 00000004H .CRT$XTA                DATA
 0002:00000354 0000000cH .CRT$XTZ                DATA
 0002:00000358 00000000H .gfids$y                DATA
 0002:00000360 00006eecH .rdata                  DATA
 0002:0000724c 00000018H .rdata$T                DATA
 0002:00007264 0000017cH .rdata$r                DATA
 0002:000073e0 0000001cH .rdata$sxdata           DATA
 0002:000073fc 000003dcH .rdata$zzzdbg           DATA
 0002:000077d8 00000004H .rtc$IAA                DATA
 0002:000077dc 00000004H .rtc$IZZ                DATA
 0002:000077e0 00000004H .rtc$TAA                DATA
 0002:000077e4 00000004H .rtc$TZZ                DATA
 0002:000077e8 00000004H .tls                    DATA
 0002:000077ec 00000004H .tls$                   DATA
 0002:000077f0 00000008H .tls$ZZZ                DATA
 0002:000077f8 0000060cH .xdata$x                DATA
 0002:00007e04 00000004H ATL$__a                 DATA
 0002:00007e08 00000008H ATL$__z                 DATA
 0002:00007e10 000000acH .edata                  DATA
 0002:00007ebc 00000078H .idata$2                DATA
 0002:00007f34 00000014H .idata$3                DATA
 0002:00007f48 000002fcH .idata$4                DATA
 0002:00008244 00000bc8H .idata$6                DATA
 0003:00000000 00000aa0H .data                   DATA
 0003:00000aa0 00000098H .data$r                 DATA
 0003:00000b38 00000b80H .bss                    DATA
 0004:00000000 00000220H .rsrc$01                DATA
 0004:00000220 000043d0H .rsrc$02                DATA

  Address         Publics by Value              Rva+Base       Lib:Object

 0000:00000000       ___guard_iat_count         00000000     <absolute>
 0000:00000000       ___guard_longjmp_table     00000000     <absolute>
 0000:00000000       ___hybrid_code_map_count   00000000     <absolute>
 0000:00000000       ___dynamic_value_reloc_table 00000000     <absolute>
 0000:00000000       ___guard_longjmp_count     00000000     <absolute>
 0000:00000000       __except_list              00000000     <absolute>
 0000:00000000       ___guard_fids_table        00000000     <absolute>
 0000:00000000       ___guard_fids_count        00000000     <absolute>
 0000:00000000       ___hybrid_auxiliary_iat    00000000     <absolute>
 0000:00000000       ___guard_iat_table         00000000     <absolute>
 0000:00000000       ___volatile_metadata       00000000     <absolute>
 0000:00000000       ___enclave_config          00000000     <absolute>
 0000:00000000       ___AbsoluteZero            00000000     <absolute>
 0000:00000000       ___hybrid_code_map         00000000     <absolute>
 0000:00000007       ___safe_se_handler_count   00000007     <absolute>
 0000:0000002c       __tls_array                0000002c     <absolute>
 0000:00000100       ___guard_flags             00000100     <absolute>
 0000:00000000       ___ImageBase               10000000     <linker-defined>
 0001:00000080       ?DupWide@_CW@@AAEXXZ       10001080 f   CWString.obj
 0001:0000009c       ?cw_dup@@YGXPBDAAHAAPA_W1@Z 1000109c f   CWString.obj
 0001:00000124       ?cw_memcpy@@YGHPA_WPBDH@Z  10001124 f   CWString.obj
 0001:00000150       ?cw_strcpy@@YAHPA_WPBD@Z   10001150 f   CWString.obj
 0001:00000163       ?cw_strlen@@YAHPBD@Z       10001163 f   CWString.obj
 0001:0000017c       ??0CAtlComModule@ATL@@QAE@XZ 1000117c f i OposVariant.obj
 0001:000001c1       ??0CAtlWinModule@ATL@@QAE@XZ 100011c1 f i OposVariant.obj
 0001:000001f8       ??0OposDispParms@@QAE@PAVOposVariant@@H@Z 100011f8 f   OposVariant.obj
 0001:00000269       ??1OposDispParms@@QAE@XZ   10001269 f   OposVariant.obj
 0001:00000277       ??A?$CSimpleArray@GV?$CSimpleArrayEqualHelper@G@ATL@@@ATL@@QAEAAGH@Z 10001277 f i OposVariant.obj
 0001:0000029c       ??_Estringdispid@CComTypeInfoHolder@ATL@@QAEPAXI@Z 1000129c f i OposVariant.obj
 0001:00000308       ?AtlWinModuleInit@ATL@@YGJPAU_ATL_WIN_MODULE70@1@@Z 10001308 f i OposVariant.obj
 0001:0000032e       ?AtlWinModuleTerm@ATL@@YGJPAU_ATL_WIN_MODULE70@1@PAUHINSTANCE__@@@Z 1000132e f i OposVariant.obj
 0001:00000391       ?ChangeBSTR@OposVariant@@QAEXPAPA_WAAJ@Z 10001391 f   OposVariant.obj
 0001:000003d2       ?ChangeLONG@OposVariant@@QAEXPAJAAJ@Z 100013d2 f   OposVariant.obj
 0001:00000413       ?GetLONG@OposVariant@@QAEJXZ 10001413 f   OposVariant.obj
 0001:0000042e       ?Init@CComCriticalSection@ATL@@QAEJXZ 1000142e f i OposVariant.obj
 0001:00000456       ?RemoveAll@?$CSimpleArray@GV?$CSimpleArrayEqualHelper@G@ATL@@@ATL@@QAEXXZ 10001456 f i OposVariant.obj
 0001:00000456       ?RemoveAll@?$CSimpleArray@PAUHINSTANCE__@@V?$CSimpleArrayEqualHelper@PAUHINSTANCE__@@@ATL@@@ATL@@QAEXXZ 10001456 f i atls:atlbase.obj
 0001:00000473       ?SetBSTR@OposVariant@@QAEXPA_WAAJ@Z 10001473 f   OposVariant.obj
 0001:000004a7       ?SetBSTR_Copy@OposVariant@@QAEXPA_WAAJ@Z 100014a7 f   OposVariant.obj
 0001:000004f7       ?SetBSTR_InOutPtr@OposVariant@@QAE_NPAPA_WAAJ@Z 100014f7 f   OposVariant.obj
 0001:0000052e       ?SetDispatch_Ptr@OposVariant@@QAEXPAUIDispatch@@AAJ@Z 1000152e f   OposVariant.obj
 0001:00000569       ?SetLONG@OposVariant@@QAEXJ@Z 10001569 f   OposVariant.obj
 0001:0000058b       ?SetLONG_Ptr@OposVariant@@QAEXPAJAAJ@Z 1000158b f   OposVariant.obj
 0001:000005be       ?SetString@OposVariant@@QAEXPB_WAAJ@Z 100015be f   OposVariant.obj
 0001:00000604       ?SetVARIANT_BOOL@OposVariant@@QAEXF@Z 10001604 f   OposVariant.obj
 0001:0000062e       ?Term@CAtlComModule@ATL@@QAEXXZ 1000162e f i OposVariant.obj
 0001:00000678       ?_AtlRaiseException@ATL@@YAXKK@Z 10001678 f i OposVariant.obj
 0001:0000068d       ?CreateInstance@CComClassFactory@ATL@@UAGJPAUIUnknown@@ABU_GUID@@PAPAX@Z 1000168d f i POSPower.obj
 0001:000006cb       ?LockServer@CComClassFactory@ATL@@UAGJH@Z 100016cb f i POSPower.obj
 0001:000006ea       ??_ECComClassFactory@ATL@@UAEPAXI@Z 100016ea f i POSPower.obj
 0001:000006ea       ??_GCComClassFactory@ATL@@UAEPAXI@Z 100016ea f i POSPower.obj
 0001:00000715       ?GetWindowProc@?$CWindowImplBaseT@VCWindow@ATL@@V?$CWinTraits@$0FGAAAAAA@$0A@@2@@ATL@@UAEP6GJPAUHWND__@@IIJ@ZXZ 10001715 f i POSPower.obj
 0001:0000071b       ?StartWindowProc@?$CWindowImplBaseT@VCWindow@ATL@@V?$CWinTraits@$0FGAAAAAA@$0A@@2@@ATL@@SGJPAUHWND__@@IIJ@Z 1000171b f i POSPower.obj
 0001:0000076f       ?ObjectMain@CComObjectRootBase@ATL@@SGX_N@Z 1000176f f i POSPower.obj
 0001:0000076f       ?OnFinalMessage@?$CWindowImplBaseT@VCWindow@ATL@@V?$CWinTraits@$0FGAAAAAA@$0A@@2@@ATL@@UAEXPAUHWND__@@@Z 1000176f f i POSPower.obj
 0001:00000772       ?GetTypeInfoCount@?$IDispatchImpl@UIOPOSPOSPower@@$1?IID_IOPOSPOSPower@@3U_GUID@@B$1?LIBID_OposPOSPower_CCO@@3U3@B$00$0A@VCComTypeInfoHolder@ATL@@@ATL@@UAGJPAI@Z 10001772 f i POSPower.obj
 0001:0000078f       ?GetTypeInfo@?$IDispatchImpl@UIOPOSPOSPower@@$1?IID_IOPOSPOSPower@@3U_GUID@@B$1?LIBID_OposPOSPower_CCO@@3U3@B$00$0A@VCComTypeInfoHolder@ATL@@@ATL@@UAGJIKPAPAUITypeInfo@@@Z 1000178f f i POSPower.obj
 0001:000007b3       ?GetIDsOfNames@?$IDispatchImpl@UIOPOSPOSPower@@$1?IID_IOPOSPOSPower@@3U_GUID@@B$1?LIBID_OposPOSPower_CCO@@3U3@B$00$0A@VCComTypeInfoHolder@ATL@@@ATL@@UAGJABU_GUID@@PAPA_WIKPAJ@Z 100017b3 f i POSPower.obj
 0001:000007d3       ?Invoke@?$IDispatchImpl@UIOPOSPOSPower@@$1?IID_IOPOSPOSPower@@3U_GUID@@B$1?LIBID_OposPOSPower_CCO@@3U3@B$00$0A@VCComTypeInfoHolder@ATL@@@ATL@@UAGJJABU_GUID@@KGPAUtagDISPPARAMS@@PAUtagVARIANT@@PAUtagEXCEPINFO@@PAI@Z 100017d3 f i POSPower.obj
 0001:000007e1       ?CreateControlWindow@?$CComControl@VCOPOSPOSPower@@V?$CWindowImpl@VCOPOSPOSPower@@VCWindow@ATL@@V?$CWinTraits@$0FGAAAAAA@$0A@@3@@ATL@@@ATL@@UAEPAUHWND__@@PAU3@AAUtagRECT@@@Z 100017e1 f i POSPower.obj
 0001:00000810       ?ControlQueryInterface@?$CComControl@VCOPOSPOSPower@@V?$CWindowImpl@VCOPOSPOSPower@@VCWindow@ATL@@V?$CWinTraits@$0FGAAAAAA@$0A@@3@@ATL@@@ATL@@UAEJABU_GUID@@PAPAX@Z 10001810 f i POSPower.obj
 0001:0000082b       ?GetClassID@?$IPersistStorageImpl@VCOPOSPOSPower@@@ATL@@UAGJPAU_GUID@@@Z 1000182b f i POSPower.obj
 0001:0000082b       ?GetUserClassID@?$IOleObjectImpl@VCOPOSPOSPower@@@ATL@@UAGJPAU_GUID@@@Z 1000182b f i POSPower.obj
 0001:0000082b       ?GetClassID@?$IPersistStreamInitImpl@VCOPOSPOSPower@@@ATL@@UAGJPAU_GUID@@@Z 1000182b f i POSPower.obj
 0001:0000084f       ?IsDirty@?$IPersistStreamInitImpl@VCOPOSPOSPower@@@ATL@@UAGJXZ 1000184f f i POSPower.obj
 0001:0000086e       ?Load@?$IPersistStreamInitImpl@VCOPOSPOSPower@@@ATL@@UAGJPAUIStream@@@Z 1000186e f i POSPower.obj
 0001:0000088d       ?Save@?$IPersistStreamInitImpl@VCOPOSPOSPower@@@ATL@@UAGJPAUIStream@@H@Z 1000188d f i POSPower.obj
 0001:000008af       ?GetSizeMax@?$IPersistStreamInitImpl@VCOPOSPOSPower@@@ATL@@UAGJPAT_ULARGE_INTEGER@@@Z 100018af f i POSPower.obj
 0001:00000a8e       ?InitNew@?$IPersistStreamInitImpl@VCOPOSPOSPower@@@ATL@@UAGJXZ 10001a8e f i POSPower.obj
 0001:00000aab       ?ContextSensitiveHelp@?$IOleInPlaceActiveObjectImpl@VCOPOSPOSPower@@@ATL@@UAGJH@Z 10001aab f i POSPower.obj
 0001:00000aab       ?QueryGetData@?$IDataObjectImpl@VCOPOSPOSPower@@@ATL@@UAGJPAUtagFORMATETC@@@Z 10001aab f i POSPower.obj
 0001:00000aab       ?GetControlInfo@?$IOleControlImpl@VCOPOSPOSPower@@@ATL@@UAGJPAUtagCONTROLINFO@@@Z 10001aab f i POSPower.obj
 0001:00000aab       ?ContextSensitiveHelp@?$IOleInPlaceObjectWindowlessImpl@VCOPOSPOSPower@@@ATL@@UAGJH@Z 10001aab f i POSPower.obj
 0001:00000aab       ?OnMnemonic@?$IOleControlImpl@VCOPOSPOSPower@@@ATL@@UAGJPAUtagMSG@@@Z 10001aab f i POSPower.obj
 0001:00000aab       ?SODataDummy@COPOSPOSPower@@MAGJJ@Z 10001aab f i POSPower.obj
 0001:00000aab       ?Unfreeze@?$IViewObjectExImpl@VCOPOSPOSPower@@@ATL@@UAGJK@Z 10001aab f i POSPower.obj
 0001:00000aab       ?SOOutputCompleteDummy@COPOSPOSPower@@MAGJJ@Z 10001aab f i POSPower.obj
 0001:00000aab       ?SetColorScheme@?$IOleObjectImpl@VCOPOSPOSPower@@@ATL@@UAGJPAUtagLOGPALETTE@@@Z 10001aab f i POSPower.obj
 0001:00000aab       ?GetDropTarget@?$IOleInPlaceObjectWindowlessImpl@VCOPOSPOSPower@@@ATL@@UAGJPAPAUIDropTarget@@@Z 10001aab f i POSPower.obj
 0001:00000ab3       ?OnFrameWindowActivate@?$IOleInPlaceActiveObjectImpl@VCOPOSPOSPower@@@ATL@@UAGJH@Z 10001ab3 f i POSPower.obj
 0001:00000ab3       ?SaveCompleted@?$IPersistStorageImpl@VCOPOSPOSPower@@@ATL@@UAGJPAUIStorage@@@Z 10001ab3 f i POSPower.obj
 0001:00000ab3       ?OnAmbientPropertyChange@?$IOleControlImpl@VCOPOSPOSPower@@@ATL@@UAGJJ@Z 10001ab3 f i POSPower.obj
 0001:00000ab3       ?EnableModeless@?$IOleInPlaceActiveObjectImpl@VCOPOSPOSPower@@@ATL@@UAGJH@Z 10001ab3 f i POSPower.obj
 0001:00000ab8       ?SetClientSite@?$IOleObjectImpl@VCOPOSPOSPower@@@ATL@@UAGJPAUIOleClientSite@@@Z 10001ab8 f i POSPower.obj
 0001:00000ad5       ?GetClientSite@?$IOleObjectImpl@VCOPOSPOSPower@@@ATL@@UAGJPAPAUIOleClientSite@@@Z 10001ad5 f i POSPower.obj
 0001:00000af2       ?SetHostNames@?$IOleObjectImpl@VCOPOSPOSPower@@@ATL@@UAGJPB_W0@Z 10001af2 f i POSPower.obj
 0001:00000af7       ?Close@?$IOleObjectImpl@VCOPOSPOSPower@@@ATL@@UAGJK@Z 10001af7 f i POSPower.obj
 0001:00000b14       ?GetCanonicalFormatEtc@?$IDataObjectImpl@VCOPOSPOSPower@@@ATL@@UAGJPAUtagFORMATETC@@0@Z 10001b14 f i POSPower.obj
 0001:00000b14       ?GetRect@?$IViewObjectExImpl@VCOPOSPOSPower@@@ATL@@UAGJKPAU_RECTL@@@Z 10001b14 f i POSPower.obj
 0001:00000b14       ?GetDataHere@?$IDataObjectImpl@VCOPOSPOSPower@@@ATL@@UAGJPAUtagFORMATETC@@PAUtagSTGMEDIUM@@@Z 10001b14 f i POSPower.obj
 0001:00000b14       ?SetMoniker@?$IOleObjectImpl@VCOPOSPOSPower@@@ATL@@UAGJKPAUIMoniker@@@Z 10001b14 f i POSPower.obj
 0001:00000b14       ?EnumFormatEtc@?$IDataObjectImpl@VCOPOSPOSPower@@@ATL@@UAGJKPAPAUIEnumFORMATETC@@@Z 10001b14 f i POSPower.obj
 0001:00000b14       ?QueryInterface@CRegObject@ATL@@UAGJABU_GUID@@PAPAX@Z 10001b14 f i POSPower.obj
 0001:00000b14       ?GetClipboardData@?$IOleObjectImpl@VCOPOSPOSPower@@@ATL@@UAGJKPAPAUIDataObject@@@Z 10001b14 f i POSPower.obj
 0001:00000b1c       ?SetData@?$IDataObjectImpl@VCOPOSPOSPower@@@ATL@@UAGJPAUtagFORMATETC@@PAUtagSTGMEDIUM@@H@Z 10001b1c f i POSPower.obj
 0001:00000b1c       ?InitFromData@?$IOleObjectImpl@VCOPOSPOSPower@@@ATL@@UAGJPAUIDataObject@@HK@Z 10001b1c f i POSPower.obj
 0001:00000b1c       ?GetMoniker@?$IOleObjectImpl@VCOPOSPOSPower@@@ATL@@UAGJKKPAPAUIMoniker@@@Z 10001b1c f i POSPower.obj
 0001:00000b24       ?DoVerb@?$IOleObjectImpl@VCOPOSPOSPower@@@ATL@@UAGJJPAUtagMSG@@PAUIOleClientSite@@JPAUHWND__@@PBUtagRECT@@@Z 10001b24 f i POSPower.obj
 0001:00000c18       ?EnumVerbs@?$IOleObjectImpl@VCOPOSPOSPower@@@ATL@@UAGJPAPAUIEnumOLEVERB@@@Z 10001c18 f i POSPower.obj
 0001:00000c3a       ?Update@?$IOleObjectImpl@VCOPOSPOSPower@@@ATL@@UAGJXZ 10001c3a f i POSPower.obj
 0001:00000c3a       ?IsUpToDate@?$IOleObjectImpl@VCOPOSPOSPower@@@ATL@@UAGJXZ 10001c3a f i POSPower.obj
 0001:00000c3a       ?Release@CRegObject@ATL@@UAGKXZ 10001c3a f i POSPower.obj
 0001:00000c3a       ?HandsOffStorage@?$IPersistStorageImpl@VCOPOSPOSPower@@@ATL@@UAGJXZ 10001c3a f i POSPower.obj
 0001:00000c3f       ?GetUserType@?$IOleObjectImpl@VCOPOSPOSPower@@@ATL@@UAGJKPAPA_W@Z 10001c3f f i POSPower.obj
 0001:00000c57       ?SetExtent@?$IOleObjectImpl@VCOPOSPOSPower@@@ATL@@UAGJKPAUtagSIZE@@@Z 10001c57 f i POSPower.obj
 0001:00000c77       ?GetExtent@?$IOleObjectImpl@VCOPOSPOSPower@@@ATL@@UAGJKPAUtagSIZE@@@Z 10001c77 f i POSPower.obj
 0001:00000cb5       ?Advise@?$IOleObjectImpl@VCOPOSPOSPower@@@ATL@@UAGJPAUIAdviseSink@@PAK@Z 10001cb5 f i POSPower.obj
 0001:00000cd5       ?Unadvise@?$IOleObjectImpl@VCOPOSPOSPower@@@ATL@@UAGJK@Z 10001cd5 f i POSPower.obj
 0001:00000d04       ?EnumAdvise@?$IOleObjectImpl@VCOPOSPOSPower@@@ATL@@UAGJPAPAUIEnumSTATDATA@@@Z 10001d04 f i POSPower.obj
 0001:00000d44       ?GetMiscStatus@?$IOleObjectImpl@VCOPOSPOSPower@@@ATL@@UAGJKPAK@Z 10001d44 f i POSPower.obj
 0001:00000d5c       ?GetWindow@?$IOleInPlaceActiveObjectImpl@VCOPOSPOSPower@@@ATL@@UAGJPAPAUHWND__@@@Z 10001d5c f i POSPower.obj
 0001:00000da9       ?TranslateAcceleratorW@?$IOleInPlaceActiveObjectImpl@VCOPOSPOSPower@@@ATL@@UAGJPAUtagMSG@@@Z 10001da9 f i POSPower.obj
 0001:00000e57       ?OnDocWindowActivate@?$IOleInPlaceActiveObjectImpl@VCOPOSPOSPower@@@ATL@@UAGJH@Z 10001e57 f i POSPower.obj
 0001:00000e79       ?ResizeBorder@?$IOleInPlaceActiveObjectImpl@VCOPOSPOSPower@@@ATL@@UAGJPBUtagRECT@@PAUIOleInPlaceUIWindow@@H@Z 10001e79 f i POSPower.obj
 0001:00000e7e       ?Draw@?$IViewObjectExImpl@VCOPOSPOSPower@@@ATL@@UAGJKJPAXPAUtagDVTARGETDEVICE@@PAUHDC__@@2PBU_RECTL@@3P6GHK@ZK@Z 10001e7e f i POSPower.obj
 0001:00000eb0       ?GetColorSet@?$IViewObjectExImpl@VCOPOSPOSPower@@@ATL@@UAGJKJPAXPAUtagDVTARGETDEVICE@@PAUHDC__@@PAPAUtagLOGPALETTE@@@Z 10001eb0 f i POSPower.obj
 0001:00000eb8       ?Freeze@?$IViewObjectExImpl@VCOPOSPOSPower@@@ATL@@UAGJKJPAXPAK@Z 10001eb8 f i POSPower.obj
 0001:00000eb8       ?SOErrorDummy@COPOSPOSPower@@MAGJJJJPAJ@Z 10001eb8 f i POSPower.obj
 0001:00000ec0       ?SetAdvise@?$IViewObjectExImpl@VCOPOSPOSPower@@@ATL@@UAGJKKPAUIAdviseSink@@@Z 10001ec0 f i POSPower.obj
 0001:00000edf       ?GetAdvise@?$IViewObjectExImpl@VCOPOSPOSPower@@@ATL@@UAGJPAK0PAPAUIAdviseSink@@@Z 10001edf f i POSPower.obj
 0001:00000f14       ?GetExtent@?$IViewObjectExImpl@VCOPOSPOSPower@@@ATL@@UAGJKJPAUtagDVTARGETDEVICE@@PAUtagSIZE@@@Z 10001f14 f i POSPower.obj
 0001:00000f45       ?GetViewStatus@?$IViewObjectExImpl@VCOPOSPOSPower@@@ATL@@UAGJPAK@Z 10001f45 f i POSPower.obj
 0001:00000f62       ?QueryHitPoint@?$IViewObjectExImpl@VCOPOSPOSPower@@@ATL@@UAGJKPBUtagRECT@@UtagPOINT@@JPAK@Z 10001f62 f i POSPower.obj
 0001:00000fa3       ?QueryHitRect@?$IViewObjectExImpl@VCOPOSPOSPower@@@ATL@@UAGJKPBUtagRECT@@0JPAK@Z 10001fa3 f i POSPower.obj
 0001:00000ffe       ?GetNaturalExtent@?$IViewObjectExImpl@VCOPOSPOSPower@@@ATL@@UAGJKJPAUtagDVTARGETDEVICE@@PAUHDC__@@PAUtagExtentInfo@@PAUtagSIZE@@@Z 10001ffe f i POSPower.obj
 0001:00001049       ?GetWindow@?$IOleInPlaceObjectWindowlessImpl@VCOPOSPOSPower@@@ATL@@UAGJPAPAUHWND__@@@Z 10002049 f i POSPower.obj
 0001:00001096       ?InPlaceDeactivate@?$IOleInPlaceObjectWindowlessImpl@VCOPOSPOSPower@@@ATL@@UAGJXZ 10002096 f i POSPower.obj
 0001:000010b0       ?UIDeactivate@?$IOleInPlaceObjectWindowlessImpl@VCOPOSPOSPower@@@ATL@@UAGJXZ 100020b0 f i POSPower.obj
 0001:000010ca       ?SetObjectRects@?$IOleInPlaceObjectWindowlessImpl@VCOPOSPOSPower@@@ATL@@UAGJPBUtagRECT@@0@Z 100020ca f i POSPower.obj
 0001:000010ea       ?ReactivateAndUndo@?$IOleInPlaceObjectWindowlessImpl@VCOPOSPOSPower@@@ATL@@UAGJXZ 100020ea f i POSPower.obj
 0001:000010f2       ?OnWindowMessage@?$IOleInPlaceObjectWindowlessImpl@VCOPOSPOSPower@@@ATL@@UAGJIIJPAJ@Z 100020f2 f i POSPower.obj
 0001:00001162       ?EnumConnectionPoints@?$IConnectionPointContainerImpl@VCOPOSPOSPower@@@ATL@@UAGJPAPAUIEnumConnectionPoints@@@Z 10002162 f i POSPower.obj
 0001:000012dc       ?FindConnectionPoint@?$IConnectionPointContainerImpl@VCOPOSPOSPower@@@ATL@@UAGJABU_GUID@@PAPAUIConnectionPoint@@@Z 100022dc f i POSPower.obj
 0001:0000137f       ?IsDirty@?$IPersistStorageImpl@VCOPOSPOSPower@@@ATL@@UAGJXZ 1000237f f i POSPower.obj
 0001:000013b3       ?InitNew@?$IPersistStorageImpl@VCOPOSPOSPower@@@ATL@@UAGJPAUIStorage@@@Z 100023b3 f i POSPower.obj
 0001:000013e7       ?Load@?$IPersistStorageImpl@VCOPOSPOSPower@@@ATL@@UAGJPAUIStorage@@@Z 100023e7 f i POSPower.obj
 0001:00001453       ?Save@?$IPersistStorageImpl@VCOPOSPOSPower@@@ATL@@UAGJPAUIStorage@@H@Z 10002453 f i POSPower.obj
 0001:000014c6       ?GetPages@?$ISpecifyPropertyPagesImpl@VCOPOSPOSPower@@@ATL@@UAGJPAUtagCAUUID@@@Z 100024c6 f i POSPower.obj
 0001:000014dd       ?QuickActivate@?$IQuickActivateImpl@VCOPOSPOSPower@@@ATL@@UAGJPAUtagQACONTAINER@@PAUtagQACONTROL@@@Z 100024dd f i POSPower.obj
 0001:00001500       ?SetContentExtent@?$IQuickActivateImpl@VCOPOSPOSPower@@@ATL@@UAGJPAUtagSIZE@@@Z 10002500 f i POSPower.obj
 0001:0000152c       ?GetContentExtent@?$IQuickActivateImpl@VCOPOSPOSPower@@@ATL@@UAGJPAUtagSIZE@@@Z 1000252c f i POSPower.obj
 0001:00001566       ?GetData@?$IDataObjectImpl@VCOPOSPOSPower@@@ATL@@UAGJPAUtagFORMATETC@@PAUtagSTGMEDIUM@@@Z 10002566 f i POSPower.obj
 0001:00001589       ?DAdvise@?$IDataObjectImpl@VCOPOSPOSPower@@@ATL@@UAGJPAUtagFORMATETC@@KPAUIAdviseSink@@PAK@Z 10002589 f i POSPower.obj
 0001:000015ca       ?DUnadvise@?$IDataObjectImpl@VCOPOSPOSPower@@@ATL@@UAGJK@Z 100025ca f i POSPower.obj
 0001:000015f8       ?EnumDAdvise@?$IDataObjectImpl@VCOPOSPOSPower@@@ATL@@UAGJPAPAUIEnumSTATDATA@@@Z 100025f8 f i POSPower.obj
 0001:00001637       ?GetClassInfoW@?$IProvideClassInfo2Impl@$1?CLSID_OPOSPOSPower@@3U_GUID@@B$1?DIID__IOPOSPOSPowerEvents@@3U2@B$1?LIBID_OposPOSPower_CCO@@3U2@B$00$0A@VCComTypeInfoHolder@ATL@@@ATL@@UAGJPAPAUITypeInfo@@@Z 10002637 f i POSPower.obj
 0001:0000164d       ?GetGUID@?$IProvideClassInfo2Impl@$1?CLSID_OPOSPOSPower@@3U_GUID@@B$1?DIID__IOPOSPOSPowerEvents@@3U2@B$1?LIBID_OposPOSPower_CCO@@3U2@B$00$0A@VCComTypeInfoHolder@ATL@@@ATL@@UAGJKPAU_GUID@@@Z 1000264d f i POSPower.obj
 0001:0000168b       __get_startup_argv_mode    1000268b f i LIBCMT:argv_mode.obj
 0001:0000168b       ?FAccessAllowed@?$IObjectSafetyImpl@VCOPOSPOSPower@@$02@ATL@@MAEHXZ 1000268b f i POSPower.obj
 0001:0000168f       ?GetInterfaceSafetyOptions@?$IObjectSafetyImpl@VCOPOSPOSPower@@$02@ATL@@UAGJABU_GUID@@PAK1@Z 1000268f f i POSPower.obj
 0001:00001703       ?SetInterfaceSafetyOptions@?$IObjectSafetyImpl@VCOPOSPOSPower@@$02@ATL@@UAGJABU_GUID@@KK@Z 10002703 f i POSPower.obj
 0001:0000177d       ?_LocCPQueryInterface@?$IConnectionPointImpl@VCOPOSPOSPower@@$1?DIID__IOPOSPOSPowerEvents@@3U_GUID@@BVCComDynamicUnkArray@ATL@@@ATL@@UAGJABU_GUID@@PAPAX@Z 1000277d f i POSPower.obj
 0001:0000177d       ?_LocCPQueryInterface@?$IConnectionPointImpl@VCOPOSPOSPower@@$1?IID_IPropertyNotifySink@@3U_GUID@@BVCComDynamicUnkArray@ATL@@@ATL@@UAGJABU_GUID@@PAPAX@Z 1000277d f i POSPower.obj
 0001:000017ca       ?GetConnectionInterface@?$IConnectionPointImpl@VCOPOSPOSPower@@$1?IID_IPropertyNotifySink@@3U_GUID@@BVCComDynamicUnkArray@ATL@@@ATL@@UAGJPAU_GUID@@@Z 100027ca f i POSPower.obj
 0001:000017ee       ?GetConnectionPointContainer@?$IConnectionPointImpl@VCOPOSPOSPower@@$1?IID_IPropertyNotifySink@@3U_GUID@@BVCComDynamicUnkArray@ATL@@@ATL@@UAGJPAPAUIConnectionPointContainer@@@Z 100027ee f i POSPower.obj
 0001:00001811       ?Advise@?$IConnectionPointImpl@VCOPOSPOSPower@@$1?DIID__IOPOSPOSPowerEvents@@3U_GUID@@BVCComDynamicUnkArray@ATL@@@ATL@@UAGJPAUIUnknown@@PAK@Z 10002811 f i POSPower.obj
 0001:00001811       ?Advise@?$IConnectionPointImpl@VCOPOSPOSPower@@$1?IID_IPropertyNotifySink@@3U_GUID@@BVCComDynamicUnkArray@ATL@@@ATL@@UAGJPAUIUnknown@@PAK@Z 10002811 f i POSPower.obj
 0001:000018b2       ?Unadvise@?$IConnectionPointImpl@VCOPOSPOSPower@@$1?IID_IPropertyNotifySink@@3U_GUID@@BVCComDynamicUnkArray@ATL@@@ATL@@UAGJK@Z 100028b2 f i POSPower.obj
 0001:000018b2       ?Unadvise@?$IConnectionPointImpl@VCOPOSPOSPower@@$1?DIID__IOPOSPOSPowerEvents@@3U_GUID@@BVCComDynamicUnkArray@ATL@@@ATL@@UAGJK@Z 100028b2 f i POSPower.obj
 0001:000018f2       ?EnumConnections@?$IConnectionPointImpl@VCOPOSPOSPower@@$1?IID_IPropertyNotifySink@@3U_GUID@@BVCComDynamicUnkArray@ATL@@@ATL@@UAGJPAPAUIEnumConnections@@@Z 100028f2 f i POSPower.obj
 0001:000018f2       ?EnumConnections@?$IConnectionPointImpl@VCOPOSPOSPower@@$1?DIID__IOPOSPOSPowerEvents@@3U_GUID@@BVCComDynamicUnkArray@ATL@@@ATL@@UAGJPAPAUIEnumConnections@@@Z 100028f2 f i POSPower.obj
 0001:000019f8       ?GetObjectDescription@?$CComCoClass@VCOPOSPOSPower@@$1?CLSID_OPOSPOSPower@@3U_GUID@@B@ATL@@SGPB_WXZ 100029f8 f i POSPower.obj
 0001:000019f8       ?GetCategoryMap@CComObjectRootBase@ATL@@SAPBU_ATL_CATMAP_ENTRY@2@XZ 100029f8 f i POSPower.obj
 0001:000019fb       ?GetConnectionInterface@?$IConnectionPointImpl@VCOPOSPOSPower@@$1?DIID__IOPOSPOSPowerEvents@@3U_GUID@@BVCComDynamicUnkArray@ATL@@@ATL@@UAGJPAU_GUID@@@Z 100029fb f i POSPower.obj
 0001:00001a1f       ?GetConnectionPointContainer@?$IConnectionPointImpl@VCOPOSPOSPower@@$1?DIID__IOPOSPOSPowerEvents@@3U_GUID@@BVCComDynamicUnkArray@ATL@@@ATL@@UAGJPAPAUIConnectionPointContainer@@@Z 10002a1f f i POSPower.obj
 0001:00001a42       ?UpdateRegistry@COPOSPOSPower@@SGJH@Z 10002a42 f i POSPower.obj
 0001:00001a5a       ?ProcessWindowMessage@COPOSPOSPower@@UAEHPAUHWND__@@IIJAAJK@Z 10002a5a f i POSPower.obj
 0001:00001aa3       ?SODirectIO@COPOSPOSPower@@MAGJJPAJPAPA_W@Z 10002aa3 f i POSPower.obj
 0001:00001aec       ?SOStatusUpdate@COPOSPOSPower@@MAGJJ@Z 10002aec f i POSPower.obj
 0001:00001b25       ?Lock@CAtlModule@ATL@@UAEJXZ 10002b25 f i POSPower.obj
 0001:00001b2f       ?Unlock@CAtlModule@ATL@@UAEJXZ 10002b2f f i POSPower.obj
 0001:00001b39       ?GetLockCount@CAtlModule@ATL@@UAEJXZ 10002b39 f i POSPower.obj
 0001:00001b3d       ?GetGITPtr@CAtlModule@ATL@@UAEJPAPAUIGlobalInterfaceTable@@@Z 10002b3d f i POSPower.obj
 0001:00001b89       ?AddCommonRGSReplacements@?$CAtlModuleT@VCComModule@ATL@@@ATL@@UAEJPAUIRegistrarBase@@@Z 10002b89 f i POSPower.obj
 0001:00001ba3       ?UpdateRegistryFromResourceD@CComModule@ATL@@UAGJPB_WHPAU_ATL_REGMAP_ENTRY@2@@Z 10002ba3 f i POSPower.obj
 0001:00001ba3       ?UpdateRegistryFromResourceD@CComModule@ATL@@UAGJIHPAU_ATL_REGMAP_ENTRY@2@@Z 10002ba3 f i POSPower.obj
 0001:00001bab       ?UpdateRegistryFromResource@CComModule@ATL@@UAGJPB_WHPAU_ATL_REGMAP_ENTRY@2@@Z 10002bab f i POSPower.obj
 0001:00001bb4       ?UpdateRegistryFromResource@CComModule@ATL@@UAGJIHPAU_ATL_REGMAP_ENTRY@2@@Z 10002bb4 f i POSPower.obj
 0001:00001bbd       ?CreateInstance@?$CComCreator@V?$CComObjectCached@VCComClassFactory@ATL@@@ATL@@@ATL@@SGJPAXABU_GUID@@PAPAX@Z 10002bbd f i POSPower.obj
 0001:00001c69       ?CreateInstance@?$CComCreator2@V?$CComCreator@V?$CComObject@VCOPOSPOSPower@@@ATL@@@ATL@@V?$CComCreator@V?$CComAggObject@VCOPOSPOSPower@@@ATL@@@2@@ATL@@SGJPAXABU_GUID@@PAPAX@Z 10002c69 f i POSPower.obj
 0001:00001c89       ??_GCComModule@ATL@@UAEPAXI@Z 10002c89 f i POSPower.obj
 0001:00001c89       ??_ECComModule@ATL@@UAEPAXI@Z 10002c89 f i POSPower.obj
 0001:00001cb1       ?AddRef@?$CComObjectCached@VCComClassFactory@ATL@@@ATL@@UAGKXZ 10002cb1 f i POSPower.obj
 0001:00001cd8       ?Release@?$CComObjectCached@VCComClassFactory@ATL@@@ATL@@UAGKXZ 10002cd8 f i POSPower.obj
 0001:00001d0e       ?QueryInterface@?$CComObjectCached@VCComClassFactory@ATL@@@ATL@@UAGJABU_GUID@@PAPAX@Z 10002d0e f i POSPower.obj
 0001:00001d28       ??_G?$CComObjectCached@VCComClassFactory@ATL@@@ATL@@UAEPAXI@Z 10002d28 f i POSPower.obj
 0001:00001d28       ??_E?$CComObjectCached@VCComClassFactory@ATL@@@ATL@@UAEPAXI@Z 10002d28 f i POSPower.obj
 0001:00001d4a       ?Next@?$CComEnumImpl@UIEnumConnectionPoints@@$1?_GUID_b196b285_bab4_101a_b69c_00aa00341d07@@3U__s_GUID@@BPAUIConnectionPoint@@V?$_CopyInterface@UIConnectionPoint@@@ATL@@@ATL@@UAGJKPAPAUIConnectionPoint@@PAK@Z 10002d4a f i POSPower.obj
 0001:00001e21       ?Skip@?$CComEnumImpl@UIEnumConnectionPoints@@$1?_GUID_b196b285_bab4_101a_b69c_00aa00341d07@@3U__s_GUID@@BPAUIConnectionPoint@@V?$_CopyInterface@UIConnectionPoint@@@ATL@@@ATL@@UAGJK@Z 10002e21 f i POSPower.obj
 0001:00001e4e       ?Reset@?$CComEnumImpl@UIEnumConnectionPoints@@$1?_GUID_b196b285_bab4_101a_b69c_00aa00341d07@@3U__s_GUID@@BPAUIConnectionPoint@@V?$_CopyInterface@UIConnectionPoint@@@ATL@@@ATL@@UAGJXZ 10002e4e f i POSPower.obj
 0001:00001e4e       ?Reset@?$CComEnumImpl@UIEnumConnections@@$1?_GUID_b196b287_bab4_101a_b69c_00aa00341d07@@3U__s_GUID@@BUtagCONNECTDATA@@V?$_Copy@UtagCONNECTDATA@@@ATL@@@ATL@@UAGJXZ 10002e4e f i POSPower.obj
 0001:00001e60       ?Clone@?$CComEnumImpl@UIEnumConnectionPoints@@$1?_GUID_b196b285_bab4_101a_b69c_00aa00341d07@@3U__s_GUID@@BPAUIConnectionPoint@@V?$_CopyInterface@UIConnectionPoint@@@ATL@@@ATL@@UAGJPAPAUIEnumConnectionPoints@@@Z 10002e60 f i POSPower.obj
 0001:00001f41       ?AddRef@?$CComObject@V?$CComEnum@UIEnumConnections@@$1?_GUID_b196b287_bab4_101a_b69c_00aa00341d07@@3U__s_GUID@@BUtagCONNECTDATA@@V?$_Copy@UtagCONNECTDATA@@@ATL@@VCComSingleThreadModel@6@@ATL@@@ATL@@UAGKXZ 10002f41 f i POSPower.obj
 0001:00001f41       ?AddRef@?$CComObject@V?$CComEnum@UIEnumConnectionPoints@@$1?_GUID_b196b285_bab4_101a_b69c_00aa00341d07@@3U__s_GUID@@BPAUIConnectionPoint@@V?$_CopyInterface@UIConnectionPoint@@@ATL@@VCComSingleThreadModel@6@@ATL@@@ATL@@UAGKXZ 10002f41 f i POSPower.obj
 0001:00001f52       ?Release@?$CComObject@V?$CComEnum@UIEnumConnections@@$1?_GUID_b196b287_bab4_101a_b69c_00aa00341d07@@3U__s_GUID@@BUtagCONNECTDATA@@V?$_Copy@UtagCONNECTDATA@@@ATL@@VCComSingleThreadModel@6@@ATL@@@ATL@@UAGKXZ 10002f52 f i POSPower.obj
 0001:00001f52       ?Release@?$CComObject@V?$CComEnum@UIEnumConnectionPoints@@$1?_GUID_b196b285_bab4_101a_b69c_00aa00341d07@@3U__s_GUID@@BPAUIConnectionPoint@@V?$_CopyInterface@UIConnectionPoint@@@ATL@@VCComSingleThreadModel@6@@ATL@@@ATL@@UAGKXZ 10002f52 f i POSPower.obj
 0001:00001f8e       ?QueryInterface@?$CComObject@V?$CComEnum@UIEnumConnectionPoints@@$1?_GUID_b196b285_bab4_101a_b69c_00aa00341d07@@3U__s_GUID@@BPAUIConnectionPoint@@V?$_CopyInterface@UIConnectionPoint@@@ATL@@VCComSingleThreadModel@6@@ATL@@@ATL@@UAGJABU_GUID@@PAPAX@Z 10002f8e f i POSPower.obj
 0001:00001fa8       ??_G?$CComObject@V?$CComEnum@UIEnumConnectionPoints@@$1?_GUID_b196b285_bab4_101a_b69c_00aa00341d07@@3U__s_GUID@@BPAUIConnectionPoint@@V?$_CopyInterface@UIConnectionPoint@@@ATL@@VCComSingleThreadModel@6@@ATL@@@ATL@@UAEPAXI@Z 10002fa8 f i POSPower.obj
 0001:00001fa8       ??_E?$CComObject@V?$CComEnum@UIEnumConnectionPoints@@$1?_GUID_b196b285_bab4_101a_b69c_00aa00341d07@@3U__s_GUID@@BPAUIConnectionPoint@@V?$_CopyInterface@UIConnectionPoint@@@ATL@@VCComSingleThreadModel@6@@ATL@@@ATL@@UAEPAXI@Z 10002fa8 f i POSPower.obj
 0001:00001fca       ?AddRef@CRegObject@ATL@@UAGKXZ 10002fca f i POSPower.obj
 0001:00001fd0       ?AddReplacement@CRegObject@ATL@@UAGJPB_W0@Z 10002fd0 f i POSPower.obj
 0001:00002009       ?ClearReplacements@CRegObject@ATL@@UAGJXZ 10003009 f i POSPower.obj
 0001:0000201b       ??_GCRegObject@ATL@@UAEPAXI@Z 1000301b f i POSPower.obj
 0001:0000201b       ??_ECRegObject@ATL@@UAEPAXI@Z 1000301b f i POSPower.obj
 0001:0000203d       ?AddRef@?$CComAggObject@VCOPOSPOSPower@@@ATL@@UAGKXZ 1000303d f i POSPower.obj
 0001:0000204e       ?Release@?$CComAggObject@VCOPOSPOSPower@@@ATL@@UAGKXZ 1000304e f i POSPower.obj
 0001:0000208a       ?QueryInterface@?$CComAggObject@VCOPOSPOSPower@@@ATL@@UAGJABU_GUID@@PAPAX@Z 1000308a f i POSPower.obj
 0001:000020d9       ?AddRef@?$CComContainedObject@VCOPOSPOSPower@@@ATL@@UAGKXZ 100030d9 f i POSPower.obj
 0001:000020ef       ?Release@?$CComContainedObject@VCOPOSPOSPower@@@ATL@@UAGKXZ 100030ef f i POSPower.obj
 0001:00002105       ?QueryInterface@?$CComContainedObject@VCOPOSPOSPower@@@ATL@@UAGJABU_GUID@@PAPAX@Z 10003105 f i POSPower.obj
 0001:00002120       ??_E?$CComAggObject@VCOPOSPOSPower@@@ATL@@UAEPAXI@Z 10003120 f i POSPower.obj
 0001:00002120       ??_G?$CComAggObject@VCOPOSPOSPower@@@ATL@@UAEPAXI@Z 10003120 f i POSPower.obj
 0001:00002145       ?AddRef@?$CComObject@VCOPOSPOSPower@@@ATL@@UAGKXZ 10003145 f i POSPower.obj
 0001:0000215c       ?Release@?$CComObject@VCOPOSPOSPower@@@ATL@@UAGKXZ 1000315c f i POSPower.obj
 0001:0000219e       ?QueryInterface@?$CComObject@VCOPOSPOSPower@@@ATL@@UAGJABU_GUID@@PAPAX@Z 1000319e f i POSPower.obj
 0001:000021b8       ?OnDrawAdvanced@CComControlBase@ATL@@UAEJAAUATL_DRAWINFO@@@Z 100031b8 f i POSPower.obj
 0001:000022ab       ?Next@?$CComEnumImpl@UIEnumConnections@@$1?_GUID_b196b287_bab4_101a_b69c_00aa00341d07@@3U__s_GUID@@BUtagCONNECTDATA@@V?$_Copy@UtagCONNECTDATA@@@ATL@@@ATL@@UAGJKPAUtagCONNECTDATA@@PAK@Z 100032ab f i POSPower.obj
 0001:00002382       ?Skip@?$CComEnumImpl@UIEnumConnections@@$1?_GUID_b196b287_bab4_101a_b69c_00aa00341d07@@3U__s_GUID@@BUtagCONNECTDATA@@V?$_Copy@UtagCONNECTDATA@@@ATL@@@ATL@@UAGJK@Z 10003382 f i POSPower.obj
 0001:000023af       ?Clone@?$CComEnumImpl@UIEnumConnections@@$1?_GUID_b196b287_bab4_101a_b69c_00aa00341d07@@3U__s_GUID@@BUtagCONNECTDATA@@V?$_Copy@UtagCONNECTDATA@@@ATL@@@ATL@@UAGJPAPAUIEnumConnections@@@Z 100033af f i POSPower.obj
 0001:00002490       ?QueryInterface@?$CComObject@V?$CComEnum@UIEnumConnections@@$1?_GUID_b196b287_bab4_101a_b69c_00aa00341d07@@3U__s_GUID@@BUtagCONNECTDATA@@V?$_Copy@UtagCONNECTDATA@@@ATL@@VCComSingleThreadModel@6@@ATL@@@ATL@@UAGJABU_GUID@@PAPAX@Z 10003490 f i POSPower.obj
 0001:000024aa       ??_G?$CComObject@V?$CComEnum@UIEnumConnections@@$1?_GUID_b196b287_bab4_101a_b69c_00aa00341d07@@3U__s_GUID@@BUtagCONNECTDATA@@V?$_Copy@UtagCONNECTDATA@@@ATL@@VCComSingleThreadModel@6@@ATL@@@ATL@@UAEPAXI@Z 100034aa f i POSPower.obj
 0001:000024aa       ??_E?$CComObject@V?$CComEnum@UIEnumConnections@@$1?_GUID_b196b287_bab4_101a_b69c_00aa00341d07@@3U__s_GUID@@BUtagCONNECTDATA@@V?$_Copy@UtagCONNECTDATA@@@ATL@@VCComSingleThreadModel@6@@ATL@@@ATL@@UAEPAXI@Z 100034aa f i POSPower.obj
 0001:000024cc       ??_E?$CComObject@VCOPOSPOSPower@@@ATL@@W3AEPAXI@Z 100034cc f i POSPower.obj
 0001:000024d4       ??_E?$CComObject@VCOPOSPOSPower@@@ATL@@WEM@AEPAXI@Z 100034d4 f i POSPower.obj
 0001:000024dc       ?QueryInterface@?$CComObject@VCOPOSPOSPower@@@ATL@@WHA@AGJABU_GUID@@PAPAX@Z 100034dc f i POSPower.obj
 0001:000024e6       ?AddRef@?$CComObject@VCOPOSPOSPower@@@ATL@@WHA@AGKXZ 100034e6 f i POSPower.obj
 0001:000024f0       ?Release@?$CComObject@VCOPOSPOSPower@@@ATL@@WHA@AGKXZ 100034f0 f i POSPower.obj
 0001:000024fa       ?QueryInterface@?$CComObject@VCOPOSPOSPower@@@ATL@@WHE@AGJABU_GUID@@PAPAX@Z 100034fa f i POSPower.obj
 0001:00002504       ?AddRef@?$CComObject@VCOPOSPOSPower@@@ATL@@WHE@AGKXZ 10003504 f i POSPower.obj
 0001:0000250e       ?Release@?$CComObject@VCOPOSPOSPower@@@ATL@@WHE@AGKXZ 1000350e f i POSPower.obj
 0001:00002518       ?QueryInterface@?$CComObject@VCOPOSPOSPower@@@ATL@@WHI@AGJABU_GUID@@PAPAX@Z 10003518 f i POSPower.obj
 0001:00002522       ?AddRef@?$CComObject@VCOPOSPOSPower@@@ATL@@WHI@AGKXZ 10003522 f i POSPower.obj
 0001:0000252c       ?Release@?$CComObject@VCOPOSPOSPower@@@ATL@@WHI@AGKXZ 1000352c f i POSPower.obj
 0001:00002536       ?QueryInterface@?$CComObject@VCOPOSPOSPower@@@ATL@@WHM@AGJABU_GUID@@PAPAX@Z 10003536 f i POSPower.obj
 0001:00002540       ?AddRef@?$CComObject@VCOPOSPOSPower@@@ATL@@WHM@AGKXZ 10003540 f i POSPower.obj
 0001:0000254a       ?Release@?$CComObject@VCOPOSPOSPower@@@ATL@@WHM@AGKXZ 1000354a f i POSPower.obj
 0001:00002554       ?QueryInterface@?$CComObject@VCOPOSPOSPower@@@ATL@@WIA@AGJABU_GUID@@PAPAX@Z 10003554 f i POSPower.obj
 0001:00002561       ?AddRef@?$CComObject@VCOPOSPOSPower@@@ATL@@WIA@AGKXZ 10003561 f i POSPower.obj
 0001:0000256e       ?Release@?$CComObject@VCOPOSPOSPower@@@ATL@@WIA@AGKXZ 1000356e f i POSPower.obj
 0001:0000257b       ?QueryInterface@?$CComObject@VCOPOSPOSPower@@@ATL@@WIE@AGJABU_GUID@@PAPAX@Z 1000357b f i POSPower.obj
 0001:00002588       ?AddRef@?$CComObject@VCOPOSPOSPower@@@ATL@@WIE@AGKXZ 10003588 f i POSPower.obj
 0001:00002595       ?Release@?$CComObject@VCOPOSPOSPower@@@ATL@@WIE@AGKXZ 10003595 f i POSPower.obj
 0001:000025a2       ?QueryInterface@?$CComObject@VCOPOSPOSPower@@@ATL@@WII@AGJABU_GUID@@PAPAX@Z 100035a2 f i POSPower.obj
 0001:000025af       ?AddRef@?$CComObject@VCOPOSPOSPower@@@ATL@@WII@AGKXZ 100035af f i POSPower.obj
 0001:000025bc       ?Release@?$CComObject@VCOPOSPOSPower@@@ATL@@WII@AGKXZ 100035bc f i POSPower.obj
 0001:000025c9       ?QueryInterface@?$CComObject@VCOPOSPOSPower@@@ATL@@WIM@AGJABU_GUID@@PAPAX@Z 100035c9 f i POSPower.obj
 0001:000025d6       ?AddRef@?$CComObject@VCOPOSPOSPower@@@ATL@@WIM@AGKXZ 100035d6 f i POSPower.obj
 0001:000025e3       ?Release@?$CComObject@VCOPOSPOSPower@@@ATL@@WIM@AGKXZ 100035e3 f i POSPower.obj
 0001:000025f0       ?QueryInterface@?$CComObject@VCOPOSPOSPower@@@ATL@@WJA@AGJABU_GUID@@PAPAX@Z 100035f0 f i POSPower.obj
 0001:000025fd       ?AddRef@?$CComObject@VCOPOSPOSPower@@@ATL@@WJA@AGKXZ 100035fd f i POSPower.obj
 0001:0000260a       ?Release@?$CComObject@VCOPOSPOSPower@@@ATL@@WJA@AGKXZ 1000360a f i POSPower.obj
 0001:00002617       ?QueryInterface@?$CComObject@VCOPOSPOSPower@@@ATL@@WJE@AGJABU_GUID@@PAPAX@Z 10003617 f i POSPower.obj
 0001:00002624       ?AddRef@?$CComObject@VCOPOSPOSPower@@@ATL@@WJE@AGKXZ 10003624 f i POSPower.obj
 0001:00002631       ?Release@?$CComObject@VCOPOSPOSPower@@@ATL@@WJE@AGKXZ 10003631 f i POSPower.obj
 0001:0000263e       ?QueryInterface@?$CComObject@VCOPOSPOSPower@@@ATL@@WJI@AGJABU_GUID@@PAPAX@Z 1000363e f i POSPower.obj
 0001:0000264b       ?AddRef@?$CComObject@VCOPOSPOSPower@@@ATL@@WJI@AGKXZ 1000364b f i POSPower.obj
 0001:00002658       ?Release@?$CComObject@VCOPOSPOSPower@@@ATL@@WJI@AGKXZ 10003658 f i POSPower.obj
 0001:00002665       ?QueryInterface@?$CComObject@VCOPOSPOSPower@@@ATL@@WJM@AGJABU_GUID@@PAPAX@Z 10003665 f i POSPower.obj
 0001:00002672       ?AddRef@?$CComObject@VCOPOSPOSPower@@@ATL@@WJM@AGKXZ 10003672 f i POSPower.obj
 0001:0000267f       ?Release@?$CComObject@VCOPOSPOSPower@@@ATL@@WJM@AGKXZ 1000367f f i POSPower.obj
 0001:0000268c       ?QueryInterface@?$CComObject@VCOPOSPOSPower@@@ATL@@WKA@AGJABU_GUID@@PAPAX@Z 1000368c f i POSPower.obj
 0001:00002699       ?AddRef@?$CComObject@VCOPOSPOSPower@@@ATL@@WKA@AGKXZ 10003699 f i POSPower.obj
 0001:000026a6       ?Release@?$CComObject@VCOPOSPOSPower@@@ATL@@WKA@AGKXZ 100036a6 f i POSPower.obj
 0001:000026b3       ?AddRef@?$CComObject@VCOPOSPOSPower@@@ATL@@WKI@AGKXZ 100036b3 f i POSPower.obj
 0001:000026c0       ?Release@?$CComObject@VCOPOSPOSPower@@@ATL@@WKI@AGKXZ 100036c0 f i POSPower.obj
 0001:000026cd       ?AddRef@?$CComObject@VCOPOSPOSPower@@@ATL@@WLE@AGKXZ 100036cd f i POSPower.obj
 0001:000026da       ?Release@?$CComObject@VCOPOSPOSPower@@@ATL@@WLE@AGKXZ 100036da f i POSPower.obj
 0001:000026e7       ??_E?$CComContainedObject@VCOPOSPOSPower@@@ATL@@W3AEPAXI@Z 100036e7 f i POSPower.obj
 0001:000026ef       ??_E?$CComContainedObject@VCOPOSPOSPower@@@ATL@@WEM@AEPAXI@Z 100036ef f i POSPower.obj
 0001:000026f7       ?QueryInterface@?$CComContainedObject@VCOPOSPOSPower@@@ATL@@WHA@AGJABU_GUID@@PAPAX@Z 100036f7 f i POSPower.obj
 0001:00002701       ?AddRef@?$CComContainedObject@VCOPOSPOSPower@@@ATL@@WHA@AGKXZ 10003701 f i POSPower.obj
 0001:0000270b       ?Release@?$CComContainedObject@VCOPOSPOSPower@@@ATL@@WHA@AGKXZ 1000370b f i POSPower.obj
 0001:00002715       ?QueryInterface@?$CComContainedObject@VCOPOSPOSPower@@@ATL@@WHE@AGJABU_GUID@@PAPAX@Z 10003715 f i POSPower.obj
 0001:0000271f       ?AddRef@?$CComContainedObject@VCOPOSPOSPower@@@ATL@@WHE@AGKXZ 1000371f f i POSPower.obj
 0001:00002729       ?Release@?$CComContainedObject@VCOPOSPOSPower@@@ATL@@WHE@AGKXZ 10003729 f i POSPower.obj
 0001:00002733       ?QueryInterface@?$CComContainedObject@VCOPOSPOSPower@@@ATL@@WHI@AGJABU_GUID@@PAPAX@Z 10003733 f i POSPower.obj
 0001:0000273d       ?AddRef@?$CComContainedObject@VCOPOSPOSPower@@@ATL@@WHI@AGKXZ 1000373d f i POSPower.obj
 0001:00002747       ?Release@?$CComContainedObject@VCOPOSPOSPower@@@ATL@@WHI@AGKXZ 10003747 f i POSPower.obj
 0001:00002751       ?QueryInterface@?$CComContainedObject@VCOPOSPOSPower@@@ATL@@WHM@AGJABU_GUID@@PAPAX@Z 10003751 f i POSPower.obj
 0001:0000275b       ?AddRef@?$CComContainedObject@VCOPOSPOSPower@@@ATL@@WHM@AGKXZ 1000375b f i POSPower.obj
 0001:00002765       ?Release@?$CComContainedObject@VCOPOSPOSPower@@@ATL@@WHM@AGKXZ 10003765 f i POSPower.obj
 0001:0000276f       ?QueryInterface@?$CComContainedObject@VCOPOSPOSPower@@@ATL@@WIA@AGJABU_GUID@@PAPAX@Z 1000376f f i POSPower.obj
 0001:0000277c       ?AddRef@?$CComContainedObject@VCOPOSPOSPower@@@ATL@@WIA@AGKXZ 1000377c f i POSPower.obj
 0001:00002789       ?Release@?$CComContainedObject@VCOPOSPOSPower@@@ATL@@WIA@AGKXZ 10003789 f i POSPower.obj
 0001:00002796       ?QueryInterface@?$CComContainedObject@VCOPOSPOSPower@@@ATL@@WIE@AGJABU_GUID@@PAPAX@Z 10003796 f i POSPower.obj
 0001:000027a3       ?AddRef@?$CComContainedObject@VCOPOSPOSPower@@@ATL@@WIE@AGKXZ 100037a3 f i POSPower.obj
 0001:000027b0       ?Release@?$CComContainedObject@VCOPOSPOSPower@@@ATL@@WIE@AGKXZ 100037b0 f i POSPower.obj
 0001:000027bd       ?QueryInterface@?$CComContainedObject@VCOPOSPOSPower@@@ATL@@WII@AGJABU_GUID@@PAPAX@Z 100037bd f i POSPower.obj
 0001:000027ca       ?AddRef@?$CComContainedObject@VCOPOSPOSPower@@@ATL@@WII@AGKXZ 100037ca f i POSPower.obj
 0001:000027d7       ?Release@?$CComContainedObject@VCOPOSPOSPower@@@ATL@@WII@AGKXZ 100037d7 f i POSPower.obj
 0001:000027e4       ?QueryInterface@?$CComContainedObject@VCOPOSPOSPower@@@ATL@@WIM@AGJABU_GUID@@PAPAX@Z 100037e4 f i POSPower.obj
 0001:000027f1       ?AddRef@?$CComContainedObject@VCOPOSPOSPower@@@ATL@@WIM@AGKXZ 100037f1 f i POSPower.obj
 0001:000027fe       ?Release@?$CComContainedObject@VCOPOSPOSPower@@@ATL@@WIM@AGKXZ 100037fe f i POSPower.obj
 0001:0000280b       ?QueryInterface@?$CComContainedObject@VCOPOSPOSPower@@@ATL@@WJA@AGJABU_GUID@@PAPAX@Z 1000380b f i POSPower.obj
 0001:00002818       ?AddRef@?$CComContainedObject@VCOPOSPOSPower@@@ATL@@WJA@AGKXZ 10003818 f i POSPower.obj
 0001:00002825       ?Release@?$CComContainedObject@VCOPOSPOSPower@@@ATL@@WJA@AGKXZ 10003825 f i POSPower.obj
 0001:00002832       ?QueryInterface@?$CComContainedObject@VCOPOSPOSPower@@@ATL@@WJE@AGJABU_GUID@@PAPAX@Z 10003832 f i POSPower.obj
 0001:0000283f       ?AddRef@?$CComContainedObject@VCOPOSPOSPower@@@ATL@@WJE@AGKXZ 1000383f f i POSPower.obj
 0001:0000284c       ?Release@?$CComContainedObject@VCOPOSPOSPower@@@ATL@@WJE@AGKXZ 1000384c f i POSPower.obj
 0001:00002859       ?QueryInterface@?$CComContainedObject@VCOPOSPOSPower@@@ATL@@WJI@AGJABU_GUID@@PAPAX@Z 10003859 f i POSPower.obj
 0001:00002866       ?AddRef@?$CComContainedObject@VCOPOSPOSPower@@@ATL@@WJI@AGKXZ 10003866 f i POSPower.obj
 0001:00002873       ?Release@?$CComContainedObject@VCOPOSPOSPower@@@ATL@@WJI@AGKXZ 10003873 f i POSPower.obj
 0001:00002880       ?QueryInterface@?$CComContainedObject@VCOPOSPOSPower@@@ATL@@WJM@AGJABU_GUID@@PAPAX@Z 10003880 f i POSPower.obj
 0001:0000288d       ?AddRef@?$CComContainedObject@VCOPOSPOSPower@@@ATL@@WJM@AGKXZ 1000388d f i POSPower.obj
 0001:0000289a       ?Release@?$CComContainedObject@VCOPOSPOSPower@@@ATL@@WJM@AGKXZ 1000389a f i POSPower.obj
 0001:000028a7       ?QueryInterface@?$CComContainedObject@VCOPOSPOSPower@@@ATL@@WKA@AGJABU_GUID@@PAPAX@Z 100038a7 f i POSPower.obj
 0001:000028b4       ?AddRef@?$CComContainedObject@VCOPOSPOSPower@@@ATL@@WKA@AGKXZ 100038b4 f i POSPower.obj
 0001:000028c1       ?Release@?$CComContainedObject@VCOPOSPOSPower@@@ATL@@WKA@AGKXZ 100038c1 f i POSPower.obj
 0001:000028ce       ?AddRef@?$CComContainedObject@VCOPOSPOSPower@@@ATL@@WKI@AGKXZ 100038ce f i POSPower.obj
 0001:000028db       ?Release@?$CComContainedObject@VCOPOSPOSPower@@@ATL@@WKI@AGKXZ 100038db f i POSPower.obj
 0001:000028e8       ?AddRef@?$CComContainedObject@VCOPOSPOSPower@@@ATL@@WLE@AGKXZ 100038e8 f i POSPower.obj
 0001:000028f5       ?Release@?$CComContainedObject@VCOPOSPOSPower@@@ATL@@WLE@AGKXZ 100038f5 f i POSPower.obj
 0001:00002902       ??$?4UITypeInfo2@@@?$CComPtr@UITypeInfo@@@ATL@@QAEPAUITypeInfo@@ABV?$CComPtr@UITypeInfo2@@@1@@Z 10003902 f i POSPower.obj
 0001:0000292f       ??$AtlAdd@K@ATL@@YAJPAKKK@Z 1000392f f i POSPower.obj
 0001:00002952       ??$AtlAdd@_K@ATL@@YAJPA_K_K1@Z 10003952 f i POSPower.obj
 0001:0000298a       ??$AtlAddThrow@K@ATL@@YAKKK@Z 1000398a f i POSPower.obj
 0001:000029b0       ??$AtlModuleRegisterWndClassInfoT@VAtlModuleRegisterWndClassInfoParamW@ATL@@@ATL@@YAGPAU_ATL_BASE_MODULE70@0@PAU_ATL_WIN_MODULE70@0@PAU_ATL_WNDCLASSINFOW@0@PAP6GJPAUHWND__@@IIJ@ZVAtlModuleRegisterWndClassInfoParamW@0@@Z 100039b0 f i POSPower.obj
 0001:00002afe       ??$AtlMultiply@H@ATL@@YAJPAHHH@Z 10003afe f i POSPower.obj
 0001:00002b36       ??$AtlMultiply@K@ATL@@YAJPAKKK@Z 10003b36 f i POSPower.obj
 0001:00002b36       ??$AtlMultiply@I@ATL@@YAJPAIII@Z 10003b36 f i POSPower.obj
 0001:00002b58       ??$AtlMultiplyThrow@I@ATL@@YAIII@Z 10003b58 f i POSPower.obj
 0001:00002b7e       ??0?$CComAggObject@VCOPOSPOSPower@@@ATL@@QAE@PAX@Z 10003b7e f i POSPower.obj
 0001:00002bab       ??0?$CComContainedObject@VCOPOSPOSPower@@@ATL@@QAE@PAX@Z 10003bab f i POSPower.obj
 0001:00002c64       ??0?$CComObject@V?$CComEnum@UIEnumConnectionPoints@@$1?_GUID_b196b285_bab4_101a_b69c_00aa00341d07@@3U__s_GUID@@BPAUIConnectionPoint@@V?$_CopyInterface@UIConnectionPoint@@@ATL@@VCComSingleThreadModel@6@@ATL@@@ATL@@QAE@PAX@Z 10003c64 f i POSPower.obj
 0001:00002c92       ??0?$CComObject@V?$CComEnum@UIEnumConnections@@$1?_GUID_b196b287_bab4_101a_b69c_00aa00341d07@@3U__s_GUID@@BUtagCONNECTDATA@@V?$_Copy@UtagCONNECTDATA@@@ATL@@VCComSingleThreadModel@6@@ATL@@@ATL@@QAE@PAX@Z 10003c92 f i POSPower.obj
 0001:00002cc0       ??0?$CComObject@VCOPOSPOSPower@@@ATL@@QAE@PAX@Z 10003cc0 f i POSPower.obj
 0001:00002d77       ??0?$CComQIPtr@UIOleControlSite@@$1?_GUID_b196b289_bab4_101a_b69c_00aa00341d07@@3U__s_GUID@@B@ATL@@QAE@PAUIUnknown@@@Z 10003d77 f i POSPower.obj
 0001:00002da0       ??0CAtlModule@ATL@@QAE@XZ  10003da0 f i POSPower.obj
 0001:00002de1       ??0CParseBuffer@CRegParser@ATL@@QAE@H@Z 10003de1 f i POSPower.obj
 0001:00002e17       ??0_ATL_MSG@ATL@@QAE@PAUHWND__@@IIJH@Z 10003e17 f i POSPower.obj
 0001:00002e4f       ??1?$CComAggObject@VCOPOSPOSPower@@@ATL@@UAE@XZ 10003e4f f i POSPower.obj
 0001:00002e73       ??1?$CComEnumImpl@UIEnumConnectionPoints@@$1?_GUID_b196b285_bab4_101a_b69c_00aa00341d07@@3U__s_GUID@@BPAUIConnectionPoint@@V?$_CopyInterface@UIConnectionPoint@@@ATL@@@ATL@@UAE@XZ 10003e73 f i POSPower.obj
 0001:00002eb3       ??1?$CComEnumImpl@UIEnumConnections@@$1?_GUID_b196b287_bab4_101a_b69c_00aa00341d07@@3U__s_GUID@@BUtagCONNECTDATA@@V?$_Copy@UtagCONNECTDATA@@@ATL@@@ATL@@UAE@XZ 10003eb3 f i POSPower.obj
 0001:00002ef3       ??1?$CComObject@V?$CComEnum@UIEnumConnectionPoints@@$1?_GUID_b196b285_bab4_101a_b69c_00aa00341d07@@3U__s_GUID@@BPAUIConnectionPoint@@V?$_CopyInterface@UIConnectionPoint@@@ATL@@VCComSingleThreadModel@6@@ATL@@@ATL@@UAE@XZ 10003ef3 f i POSPower.obj
 0001:00002f16       ??1?$CComObject@V?$CComEnum@UIEnumConnections@@$1?_GUID_b196b287_bab4_101a_b69c_00aa00341d07@@3U__s_GUID@@BUtagCONNECTDATA@@V?$_Copy@UtagCONNECTDATA@@@ATL@@VCComSingleThreadModel@6@@ATL@@@ATL@@UAE@XZ 10003f16 f i POSPower.obj
 0001:00002f39       ??1?$CComObject@VCOPOSPOSPower@@@ATL@@UAE@XZ 10003f39 f i POSPower.obj
 0001:00002ff7       ??1?$CComObjectCached@VCComClassFactory@ATL@@@ATL@@UAE@XZ 10003ff7 f i POSPower.obj
 0001:0000300d       ??1?$CComObjectRootEx@VCComMultiThreadModel@ATL@@@ATL@@QAE@XZ 1000400d f i POSPower.obj
 0001:00003022       ??1CRegObject@ATL@@UAE@XZ  10004022 f i POSPower.obj
 0001:00003042       ??4?$CComPtr@UIAdviseSink@@@ATL@@QAEPAUIAdviseSink@@PAU2@@Z 10004042 f i POSPower.obj
 0001:00003042       ??4?$CComPtr@UIUnknown@@@ATL@@QAEPAUIUnknown@@PAU2@@Z 10004042 f i POSPower.obj
 0001:00003042       ??4?$CComPtr@UIOleClientSite@@@ATL@@QAEPAUIOleClientSite@@PAU2@@Z 10004042 f i POSPower.obj
 0001:00003076       ??_E?$CComContainedObject@VCOPOSPOSPower@@@ATL@@UAEPAXI@Z 10004076 f i POSPower.obj
 0001:00003076       ??_G?$CComContainedObject@VCOPOSPOSPower@@@ATL@@UAEPAXI@Z 10004076 f i POSPower.obj
 0001:0000309b       ??_G?$CComObject@VCOPOSPOSPower@@@ATL@@UAEPAXI@Z 1000409b f i POSPower.obj
 0001:0000309b       ??_E?$CComObject@VCOPOSPOSPower@@@ATL@@UAEPAXI@Z 1000409b f i POSPower.obj
 0001:000030c0       ?Add@?$CSimpleArray@GV?$CSimpleArrayEqualHelper@G@ATL@@@ATL@@QAEHABG@Z 100040c0 f i POSPower.obj
 0001:00003144       ?Add@?$CSimpleMap@PA_WPA_WVCExpansionVectorEqualHelper@ATL@@@ATL@@QAEHABQA_W0@Z 10004144 f i POSPower.obj
 0001:00003199       ?Add@CComDynamicUnkArray@ATL@@QAEKPAUIUnknown@@@Z 10004199 f i POSPower.obj
 0001:0000324f       ?Add@CExpansionVector@ATL@@QAEHPB_W0@Z 1000424f f i POSPower.obj
 0001:00003358       ?AddString@CParseBuffer@CRegParser@ATL@@QAEHPB_W@Z 10004358 f i POSPower.obj
 0001:0000338d       ?AddTermFunc@CAtlModule@ATL@@QAEJP6GXK@ZK@Z 1000438d f i POSPower.obj
 0001:000033f0       ?AddValue@CRegParser@ATL@@IAEJAAVCRegKey@2@PB_WPA_W@Z 100043f0 f i POSPower.obj
 0001:0000370a       ?Allocate@?$CAtlSafeAllocBufferManager@VCCRTAllocator@ATL@@@_ATL_SAFE_ALLOCA_IMPL@ATL@@QAEPAXK@Z 1000470a f i POSPower.obj
 0001:00003737       ?Allocate@?$CTempBuffer@E$0BAA@VCCRTAllocator@ATL@@@ATL@@QAEPAEI@Z 10004737 f i POSPower.obj
 0001:00003766       ?Allocate@?$CTempBuffer@_W$0BAA@VCCRTAllocator@ATL@@@ATL@@QAEPA_WI@Z 10004766 f i POSPower.obj
 0001:00003795       ?Allocate@?$CTempBuffer@_W$0EAA@VCCRTAllocator@ATL@@@ATL@@QAEPA_WI@Z 10004795 f i POSPower.obj
 0001:000037c4       ?AllocateHeap@?$CTempBuffer@_W$0EAA@VCCRTAllocator@ATL@@@ATL@@AAEXI@Z 100047c4 f i POSPower.obj
 0001:000037c4       ?AllocateHeap@?$CTempBuffer@_W$0BAA@VCCRTAllocator@ATL@@@ATL@@AAEXI@Z 100047c4 f i POSPower.obj
 0001:000037c4       ?AllocateHeap@?$CTempBuffer@E$0BAA@VCCRTAllocator@ATL@@@ATL@@AAEXI@Z 100047c4 f i POSPower.obj
 0001:000037e9       ?Append@CParseBuffer@CRegParser@ATL@@QAEHPB_WH@Z 100047e9 f i POSPower.obj
 0001:00003877       ?AtlCoTaskMemCAlloc@ATL@@YAPAXKK@Z 10004877 f i POSPower.obj
 0001:000038a4       ?AtlCoTaskMemRecalloc@ATL@@YAPAXPAXKK@Z 100048a4 f i POSPower.obj
 0001:000038d4       ?AtlComModuleGetClassObject@ATL@@YGJPAU_ATL_COM_MODULE70@1@ABU_GUID@@1PAPAX@Z 100048d4 f i POSPower.obj
 0001:000039c7       ?AtlComModuleRegisterServer@ATL@@YGJPAU_ATL_COM_MODULE70@1@HPBU_GUID@@@Z 100049c7 f i POSPower.obj
 0001:00003a4f       ?AtlComModuleUnregisterServer@ATL@@YGJPAU_ATL_COM_MODULE70@1@HPBU_GUID@@@Z 10004a4f f i POSPower.obj
 0001:00003ad7       ?AtlComQIPtrAssign2@ATL@@YAXPAPAUIUnknown@@PAU2@ABU_GUID@@@Z 10004ad7 f i POSPower.obj
 0001:00003b06       ?AtlCreateTargetDC@ATL@@YGPAUHDC__@@PAU2@PAUtagDVTARGETDEVICE@@@Z 10004b06 f i POSPower.obj
 0001:00003b6f       ?AtlCrtErrorCheck@ATL@@YAHH@Z 10004b6f f i POSPower.obj
 0001:00003baa       ?AtlHiMetricToPixel@ATL@@YGXPBUtagSIZE@@PAU2@@Z 10004baa f i POSPower.obj
 0001:00003c1f       ?AtlHresultFromLastError@ATL@@YAJXZ 10004c1f f i POSPower.obj
 0001:00003c36       ?AtlHresultFromWin32@ATL@@YAJK@Z 10004c36 f i POSPower.obj
 0001:00003c4b       ?AtlInternalOleLoadFromStream@ATL@@YAJPAUIStream@@ABU_GUID@@PAPAXTClassesAllowedInStream@1@K@Z 10004c4b f i POSPower.obj
 0001:00003d71       ?AtlInternalQueryInterface@ATL@@YGJPAXPBU_ATL_INTMAP_ENTRY@1@ABU_GUID@@PAPAX@Z 10004d71 f i POSPower.obj
 0001:00003e14       ?AtlLoadTypeLib@ATL@@YGJPAUHINSTANCE__@@PB_WPAPA_WPAPAUITypeLib@@@Z 10004e14 f i POSPower.obj
 0001:00003ff2       ?AtlRegisterClassCategoriesHelper@ATL@@YGJABU_GUID@@PBU_ATL_CATMAP_ENTRY@1@H@Z 10004ff2 f i POSPower.obj
 0001:000042ee       ?AtlRegisterTypeLib@ATL@@YGJPAUHINSTANCE__@@PB_W@Z 100052ee f i POSPower.obj
 0001:00004476       ?AtlThrowImpl@ATL@@YGXJ@Z  10005476 f i POSPower.obj
 0001:00004494       ?AtlUnRegisterTypeLib@ATL@@YGJPAUHINSTANCE__@@PB_W@Z 10005494 f i POSPower.obj
 0001:0000453f       ?AtlWinModuleAddCreateWndData@ATL@@YGXPAU_ATL_WIN_MODULE70@1@PAU_AtlCreateWndData@1@PAX@Z 1000553f f i POSPower.obj
 0001:00004593       ?AtlWinModuleExtractCreateWndData@ATL@@YGPAXPAU_ATL_WIN_MODULE70@1@@Z 10005593 f i POSPower.obj
 0001:000045f6       ?AtlWinModuleRegisterClassExW@ATL@@YGGPAU_ATL_WIN_MODULE70@1@PBUtagWNDCLASSEXW@@@Z 100055f6 f i POSPower.obj
 0001:00004635       ?CanForceRemoveKey@CRegParser@ATL@@IAEHPB_W@Z 10005635 f i POSPower.obj
 0001:00004664       ?ChToByte@CRegParser@ATL@@KAE_W@Z 10005664 f i POSPower.obj
 0001:00004697       ?Cleanup@CComTypeInfoHolder@ATL@@SGXK@Z 10005697 f i POSPower.obj
 0001:000046ca       ?ClearReplacements@CExpansionVector@ATL@@QAEJXZ 100056ca f i POSPower.obj
 0001:00004707       ?Close@CRegKey@ATL@@QAEJXZ 10005707 f i POSPower.obj
 0001:00004721       ?CreateInstance@?$CComCreator@V?$CComAggObject@VCOPOSPOSPower@@@ATL@@@ATL@@SGJPAXABU_GUID@@PAPAX@Z 10005721 f i POSPower.obj
 0001:00004797       ?CreateInstance@?$CComCreator@V?$CComObject@VCOPOSPOSPower@@@ATL@@@ATL@@SGJPAXABU_GUID@@PAPAX@Z 10005797 f i POSPower.obj
 0001:00004818       ?CreateInstance@?$CComObject@V?$CComEnum@UIEnumConnectionPoints@@$1?_GUID_b196b285_bab4_101a_b69c_00aa00341d07@@3U__s_GUID@@BPAUIConnectionPoint@@V?$_CopyInterface@UIConnectionPoint@@@ATL@@VCComSingleThreadModel@6@@ATL@@@ATL@@SGJPAPAV12@@Z 10005818 f i POSPower.obj
 0001:0000485f       ?CreateInstance@?$CComObject@V?$CComEnum@UIEnumConnections@@$1?_GUID_b196b287_bab4_101a_b69c_00aa00341d07@@3U__s_GUID@@BUtagCONNECTDATA@@V?$_Copy@UtagCONNECTDATA@@@ATL@@VCComSingleThreadModel@6@@ATL@@@ATL@@SGJPAPAV12@@Z 1000585f f i POSPower.obj
 0001:000048a6       ?DefaultReflectionHandler@?$CWindowImplRoot@VCWindow@ATL@@@ATL@@SAHPAUHWND__@@IIJAAJ@Z 100058a6 f i POSPower.obj
 0001:00004919       ?DeleteSubKey@CRegKey@ATL@@QAEJPB_W@Z 10005919 f i POSPower.obj
 0001:00004992       ?DoEvent@COPOSPOSPower@@IAEXIIJ@Z 10005992 f i POSPower.obj
 0001:00004a12       ?DoVerbHide@?$IOleObjectImpl@VCOPOSPOSPower@@@ATL@@QAEJPBUtagRECT@@PAUHWND__@@@Z 10005a12 f i POSPower.obj
 0001:00004a48       ?DoVerbInPlaceActivate@?$IOleObjectImpl@VCOPOSPOSPower@@@ATL@@QAEJPBUtagRECT@@PAUHWND__@@@Z 10005a48 f i POSPower.obj
 0001:00004a7b       ?DoVerbPrimary@?$IOleObjectImpl@VCOPOSPOSPower@@@ATL@@QAEJPBUtagRECT@@PAUHWND__@@@Z 10005a7b f i POSPower.obj
 0001:00004b07       ?DoVerbProperties@CComControlBase@ATL@@QAEJPBUtagRECT@@PAUHWND__@@@Z 10005b07 f i POSPower.obj
 0001:00004c86       ?DoVerbUIActivate@?$IOleObjectImpl@VCOPOSPOSPower@@@ATL@@QAEJPBUtagRECT@@PAUHWND__@@@Z 10005c86 f i POSPower.obj
 0001:00004cc3       ?DoesVerbActivate@CComControlBase@ATL@@QAEHJ@Z 10005cc3 f i POSPower.obj
 0001:00004ce4       ?DoesVerbUIActivate@CComControlBase@ATL@@QAEHJ@Z 10005ce4 f i POSPower.obj
 0001:00004d19       ?EndOfVar@CRegParser@ATL@@IAEHXZ 10005d19 f i POSPower.obj
 0001:00004d39       ?EscapeSingleQuote@CAtlModule@ATL@@SAXPA_WIPB_W@Z 10005d39 f i POSPower.obj
 0001:00004d88       ?FindKey@?$CSimpleMap@PA_WPA_WVCExpansionVectorEqualHelper@ATL@@@ATL@@QBEHABQA_W@Z 10005d88 f i POSPower.obj
 0001:00004dbf       ?FireTheEvent@?$CProxy_IOPOSEvents@VCOPOSPOSPower@@@@IAEXPAVOposVariant@@IAAJPB_WJ@Z 10005dbf f i POSPower.obj
 0001:00004e51       ?FireViewChange@CComControlBase@ATL@@QAEJXZ 10005e51 f i POSPower.obj
 0001:00004e9a       ?Fire_DirectIOEvent@?$CProxy_IOPOSEvents@VCOPOSPOSPower@@@@QAEXJPAJPAPA_W@Z 10005e9a f i POSPower.obj
 0001:00004f83       ?Fire_StatusUpdateEvent@?$CProxy_IOPOSEvents@VCOPOSPOSPower@@@@QAEXJ@Z 10005f83 f i POSPower.obj
 0001:00005016       ?FreeHeap@?$CTempBuffer@E$0BAA@VCCRTAllocator@ATL@@@ATL@@AAEXXZ 10006016 f i POSPower.obj
 0001:00005016       ?FreeHeap@?$CTempBuffer@_W$0BAA@VCCRTAllocator@ATL@@@ATL@@AAEXXZ 10006016 f i POSPower.obj
 0001:00005016       ?FreeHeap@?$CTempBuffer@_W$0EAA@VCCRTAllocator@ATL@@@ATL@@AAEXXZ 10006016 f i POSPower.obj
 0001:0000501f       ?GetAmbientLocaleID@CComControlBase@ATL@@QAEJAAK@Z 1000601f f i POSPower.obj
 0001:0000507b       ?GetAmbientUserMode@CComControlBase@ATL@@QAEJAAH@Z 1000607b f i POSPower.obj
 0001:000050eb       ?GetAt@CComDynamicUnkArray@ATL@@QAEPAUIUnknown@@H@Z 100060eb f i POSPower.obj
 0001:00005107       ?GetClassObject@CComModule@ATL@@QAEJABU_GUID@@0PAPAX@Z 10006107 f i POSPower.obj
 0001:000051a9       ?GetConnMap@COPOSPOSPower@@SAPBU_ATL_CONNMAP_ENTRY@ATL@@PAH@Z 100061a9 f i POSPower.obj
 0001:00005219       ?GetCookie@CComDynamicUnkArray@ATL@@QAGKPAPAUIUnknown@@@Z 10006219 f i POSPower.obj
 0001:00005251       ?GetIDsOfNames@CComTypeInfoHolder@ATL@@QAEJABU_GUID@@PAPA_WIKPAJ@Z 10006251 f i POSPower.obj
 0001:00005378       ?GetKeyAt@?$CSimpleMap@PA_WPA_WVCExpansionVectorEqualHelper@ATL@@@ATL@@QBEAAPA_WH@Z 10006378 f i POSPower.obj
 0001:0000539d       ?GetPagesHelper@?$ISpecifyPropertyPagesImpl@VCOPOSPOSPower@@@ATL@@IAEJPAUtagCAUUID@@PBUATL_PROPMAP_ENTRY@2@@Z 1000639d f i POSPower.obj
 0001:000054c4       ?GetProperty@?$CComPtr@UIDispatch@@@ATL@@SAJPAUIDispatch@@JPAUtagVARIANT@@@Z 100064c4 f i POSPower.obj
 0001:00005513       ?GetSizeMax@CComVariant@ATL@@QBEJPAT_ULARGE_INTEGER@@@Z 10006513 f i POSPower.obj
 0001:000056d9       ?GetTI@CComTypeInfoHolder@ATL@@QAEJK@Z 100066d9 f i POSPower.obj
 0001:000058b8       ?GetTI@CComTypeInfoHolder@ATL@@QAEJKPAPAUITypeInfo@@@Z 100068b8 f i POSPower.obj
 0001:000058fa       ?GetUnknown@CComDynamicUnkArray@ATL@@QAGPAUIUnknown@@K@Z 100068fa f i POSPower.obj
 0001:0000591b       ?GetValueAt@?$CSimpleMap@PA_WPA_WVCExpansionVectorEqualHelper@ATL@@@ATL@@QBEAAPA_WH@Z 1000691b f i POSPower.obj
 0001:00005941       ?GetZoomInfo@CComControlBase@ATL@@QAEXAAUATL_DRAWINFO@@@Z 10006941 f i POSPower.obj
 0001:000059d4       ?HKeyFromString@CRegParser@ATL@@KAPAUHKEY__@@PA_W@Z 100069d4 f i POSPower.obj
 0001:00005a02       ?HasSubKeys@CRegParser@ATL@@IAEHPAUHKEY__@@@Z 10006a02 f i POSPower.obj
 0001:00005a37       ?IDataObject_GetData@CComControlBase@ATL@@QAEJPAUtagFORMATETC@@PAUtagSTGMEDIUM@@@Z 10006a37 f i POSPower.obj
 0001:00005bdd       ?IOleInPlaceObject_InPlaceDeactivate@CComControlBase@ATL@@QAEJXZ 10006bdd f i POSPower.obj
 0001:00005c64       ?IOleInPlaceObject_SetObjectRects@CComControlBase@ATL@@QAEJPBUtagRECT@@0@Z 10006c64 f i POSPower.obj
 0001:00005d31       ?IOleInPlaceObject_UIDeactivate@CComControlBase@ATL@@QAEJXZ 10006d31 f i POSPower.obj
 0001:00005df3       ?IOleObject_Advise@CComControlBase@ATL@@QAEJPAUIAdviseSink@@PAK@Z 10006df3 f i POSPower.obj
 0001:00005e1d       ?IOleObject_Close@CComControlBase@ATL@@QAEJK@Z 10006e1d f i POSPower.obj
 0001:00005f01       ?IOleObject_GetClientSite@CComControlBase@ATL@@QAEJPAPAUIOleClientSite@@@Z 10006f01 f i POSPower.obj
 0001:00005f2a       ?IOleObject_SetClientSite@CComControlBase@ATL@@QAEJPAUIOleClientSite@@@Z 10006f2a f i POSPower.obj
 0001:00005f69       ?IOleObject_SetExtent@CComControlBase@ATL@@QAEJKPAUtagSIZE@@@Z 10006f69 f i POSPower.obj
 0001:0000601d       ?IPSI_GetIPersistStreamInit@?$IPersistStorageImpl@VCOPOSPOSPower@@@ATL@@AAEPAUIPersistStreamInit@@XZ 1000701d f i POSPower.obj
 0001:000060c5       ?IPersistStreamInit_Load@?$IPersistStreamInitImpl@VCOPOSPOSPower@@@ATL@@QAEJPAUIStream@@PBUATL_PROPMAP_ENTRY@2@@Z 100070c5 f i POSPower.obj
 0001:00006341       ?IPersistStreamInit_Save@?$IPersistStreamInitImpl@VCOPOSPOSPower@@@ATL@@QAEJPAUIStream@@HPBUATL_PROPMAP_ENTRY@2@@Z 10007341 f i POSPower.obj
 0001:0000652f       ?IQuickActivate_QuickActivate@CComControlBase@ATL@@QAEJPAUtagQACONTAINER@@PAUtagQACONTROL@@@Z 1000752f f i POSPower.obj
 0001:00006771       ?IViewObject_Draw@CComControlBase@ATL@@QAEJKJPAXPAUtagDVTARGETDEVICE@@PAUHDC__@@2PBU_RECTL@@3@Z 10007771 f i POSPower.obj
 0001:00006819       ?InPlaceActivate@CComControlBase@ATL@@QAEJJPBUtagRECT@@@Z 10007819 f i POSPower.obj
 0001:00006a8a       ?Init@?$CComEnumImpl@UIEnumConnectionPoints@@$1?_GUID_b196b285_bab4_101a_b69c_00aa00341d07@@3U__s_GUID@@BPAUIConnectionPoint@@V?$_CopyInterface@UIConnectionPoint@@@ATL@@@ATL@@QAEJPAPAUIConnectionPoint@@0PAUIUnknown@@W4CComEnumFlags@2@@Z 10007a8a f i POSPower.obj
 0001:00006b69       ?Init@?$CComEnumImpl@UIEnumConnections@@$1?_GUID_b196b287_bab4_101a_b69c_00aa00341d07@@3U__s_GUID@@BUtagCONNECTDATA@@V?$_Copy@UtagCONNECTDATA@@@ATL@@@ATL@@QAEJPAUtagCONNECTDATA@@0PAUIUnknown@@W4CComEnumFlags@2@@Z 10007b69 f i POSPower.obj
 0001:00006c48       ?Init@CComModule@ATL@@QAEJPAU_ATL_OBJMAP_ENTRY30@2@PAUHINSTANCE__@@PBU_GUID@@@Z 10007c48 f i POSPower.obj
 0001:00006ca7       ?Init@CDynamicStdCallThunk2@ATL@@QAEHKPAX@Z 10007ca7 f i POSPower.obj
 0001:00006cd2       ?InlineIsEqualUnknown@ATL@@YGHABU_GUID@@@Z 10007cd2 f i POSPower.obj
 0001:00006cfa       ?InternalSetAtIndex@?$CSimpleMap@PA_WPA_WVCExpansionVectorEqualHelper@ATL@@@ATL@@QAEXHABQA_W0@Z 10007cfa f i POSPower.obj
 0001:00006d24       ?Invoke@CComTypeInfoHolder@ATL@@QAEJPAUIDispatch@@JABU_GUID@@KGPAUtagDISPPARAMS@@PAUtagVARIANT@@PAUtagEXCEPINFO@@PAI@Z 10007d24 f i POSPower.obj
 0001:00006d67       ?IsEqualObject@?$CComPtrBase@UITypeInfo@@@ATL@@QAE_NPAUIUnknown@@@Z 10007d67 f i POSPower.obj
 0001:00006d67       ?IsEqualObject@?$CComPtrBase@UIOleClientSite@@@ATL@@QAE_NPAUIUnknown@@@Z 10007d67 f i POSPower.obj
 0001:00006dd4       ?IsSpace@CRegParser@ATL@@IAEH_W@Z 10007dd4 f i POSPower.obj
 0001:00006dfe       ?LoadNameCache@CComTypeInfoHolder@ATL@@QAEJPAUITypeInfo@@@Z 10007dfe f i POSPower.obj
 0001:00006f4a       ?Lookup@?$CSimpleMap@PA_WPA_WVCExpansionVectorEqualHelper@ATL@@@ATL@@QBEPA_WABQA_W@Z 10007f4a f i POSPower.obj
 0001:00006f70       ?NextToken@CRegParser@ATL@@IAEJPA_W@Z 10007f70 f i POSPower.obj
 0001:000070a8       ?OnKillFocus@CComControlBase@ATL@@QAEJIIJAAH@Z 100080a8 f i POSPower.obj
 0001:00007103       ?OnMouseActivate@CComControlBase@ATL@@QAEJIIJAAH@Z 10008103 f i POSPower.obj
 0001:00007171       ?OnPaint@CComControlBase@ATL@@QAEJIIJAAH@Z 10008171 f i POSPower.obj
 0001:00007223       ?OnSetFocus@CComControlBase@ATL@@QAEJIIJAAH@Z 10008223 f i POSPower.obj
 0001:000072ac       ?Open@CRegKey@ATL@@QAEJPAUHKEY__@@PB_WK@Z 100082ac f i POSPower.obj
 0001:00007301       ?PreProcessBuffer@CRegParser@ATL@@QAEJPA_WPAPA_W@Z 10008301 f i POSPower.obj
 0001:0000756b       ?ProcessWindowMessage@?$CComControl@VCOPOSPOSPower@@V?$CWindowImpl@VCOPOSPOSPower@@VCWindow@ATL@@V?$CWinTraits@$0FGAAAAAA@$0A@@3@@ATL@@@ATL@@UAEHPAUHWND__@@IIJAAJK@Z 1000856b f i POSPower.obj
 0001:0000760a       ?ReadFromStream@CComBSTR@ATL@@QAEJPAUIStream@@@Z 1000860a f i POSPower.obj
 0001:00007738       ?ReadFromStream@CComVariant@ATL@@QAEJPAUIStream@@GTClassesAllowedInStream@2@K@Z 10008738 f i POSPower.obj
 0001:000078be       ?RecurseDeleteKey@CRegKey@ATL@@QAEJPB_W@Z 100088be f i POSPower.obj
 0001:000079ac       ?RegCreateKeyExW@CAtlTransactionManager@ATL@@QAEJPAUHKEY__@@PB_WKPA_WKKQAU_SECURITY_ATTRIBUTES@@PAPAU3@PAK@Z 100089ac f i POSPower.obj
 0001:00007a0f       ?RegDeleteKeyW@CAtlTransactionManager@ATL@@QAEJPAUHKEY__@@PB_W@Z 10008a0f f i POSPower.obj
 0001:00007a61       ?RegOpenKeyExW@CAtlTransactionManager@ATL@@QAEJPAUHKEY__@@PB_WKKPAPAU3@@Z 10008a61 f i POSPower.obj
 0001:00007ab8       ?Register@_ATL_WNDCLASSINFOW@ATL@@QAEGPAP6GJPAUHWND__@@IIJ@Z@Z 10008ab8 f i POSPower.obj
 0001:00007ad8       ?RegisterBuffer@CRegParser@ATL@@QAEJPA_WH@Z 10008ad8 f i POSPower.obj
 0001:00007c11       ?RegisterFromResource@CRegObject@ATL@@IAEJPB_W00H@Z 10008c11 f i POSPower.obj
 0001:00007d47       ?RegisterServer@?$CAtlModuleT@VCComModule@ATL@@@ATL@@QAEJHPBU_GUID@@@Z 10008d47 f i POSPower.obj
 0001:00007d75       ?RegisterServer@CComModule@ATL@@QAEJHPBU_GUID@@@Z 10008d75 f i POSPower.obj
 0001:00007deb       ?RegisterSubkeys@CRegParser@ATL@@IAEJPA_WPAUHKEY__@@HH@Z 10008deb f i POSPower.obj
 0001:00008492       ?Remove@CComDynamicUnkArray@ATL@@QAEHK@Z 10009492 f i POSPower.obj
 0001:000084bb       ?RemoveAll@?$CSimpleMap@PA_WPA_WVCExpansionVectorEqualHelper@ATL@@@ATL@@QAEXXZ 100094bb f i POSPower.obj
 0001:000084e7       ?ResourceRegisterSz@CRegObject@ATL@@QAGJPB_W00@Z 100094e7 f i POSPower.obj
 0001:00008514       ?ResourceUnregisterSz@CRegObject@ATL@@QAGJPB_W00@Z 10009514 f i POSPower.obj
 0001:00008541       ?SendOnDataChange@CComControlBase@ATL@@QAEJK@Z 10009541 f i POSPower.obj
 0001:0000858e       ?SetControlFocus@CComControlBase@ATL@@QAEHH@Z 1000958e f i POSPower.obj
 0001:0000862b       ?SetMultiStringValue@CRegKey@ATL@@QAEJPB_W0@Z 1000962b f i POSPower.obj
 0001:00008687       ?SetStringValue@CRegKey@ATL@@QAEJPB_W0K@Z 10009687 f i POSPower.obj
 0001:000086d0       ?SkipAssignment@CRegParser@ATL@@IAEJPA_W@Z 100096d0 f i POSPower.obj
 0001:00008735       ?SkipWhiteSpace@CRegParser@ATL@@IAEXXZ 10009735 f i POSPower.obj
 0001:00008757       ?StrChrW@CRegParser@ATL@@KAPA_WPA_W_W@Z 10009757 f i POSPower.obj
 0001:00008794       ?Term@CAtlModule@ATL@@QAEXXZ 10009794 f i POSPower.obj
 0001:000087e7       ?Term@CComModule@ATL@@QAEXXZ 100097e7 f i POSPower.obj
 0001:0000883f       ?UnregisterServer@?$CAtlModuleT@VCComModule@ATL@@@ATL@@QAEJHPBU_GUID@@@Z 1000983f f i POSPower.obj
 0001:00008865       ?UnregisterServer@CComModule@ATL@@QAEJHPBU_GUID@@@Z 10009865 f i POSPower.obj
 0001:000088db       ?UpdateRegistryFromResource@CAtlModule@ATL@@QAGJIHPAU_ATL_REGMAP_ENTRY@2@@Z 100098db f i POSPower.obj
 0001:00008aa6       ?UpdateRegistryFromResource@CAtlModule@ATL@@QAGJPB_WHPAU_ATL_REGMAP_ENTRY@2@@Z 10009aa6 f i POSPower.obj
 0001:00008c77       ?VTFromRegType@CRegParser@ATL@@KAHPB_WAAG@Z 10009c77 f i POSPower.obj
 0001:00008ce4       ?WindowProc@?$CWindowImplBaseT@VCWindow@ATL@@V?$CWinTraits@$0FGAAAAAA@$0A@@2@@ATL@@SGJPAUHWND__@@IIJ@Z 10009ce4 f i POSPower.obj
 0001:00008dd6       ?WriteToStream@CComBSTR@ATL@@QAEJPAUIStream@@@Z 10009dd6 f i POSPower.obj
 0001:00008e38       ?WriteToStream@CComVariant@ATL@@QAEJPAUIStream@@@Z 10009e38 f i POSPower.obj
 0001:00008fb2       ?WriteToStream@CComVariant@ATL@@QAEJPAUIStream@@G@Z 10009fb2 f i POSPower.obj
 0001:0000901b       ?_AtlInitialConstruct@?$CComObjectRootEx@VCComMultiThreadModel@ATL@@@ATL@@QAEJXZ 1000a01b f i POSPower.obj
 0001:00009030       ?_AtlVerifyStackAvailable@_ATL_SAFE_ALLOCA_IMPL@ATL@@YA_NK@Z 1000a030 f i POSPower.obj
 0001:000090ae       ?atlCreate@?$CWindowImpl@VCOPOSPOSPower@@VCWindow@ATL@@V?$CWinTraits@$0FGAAAAAA@$0A@@3@@ATL@@QAEPAUHWND__@@PAU3@V_U_RECT@2@PB_WKKV_U_MENUorID@2@PAX@Z 1000a0ae f i POSPower.obj
 0001:000090f2       ?atlCreate@?$CWindowImplBaseT@VCWindow@ATL@@V?$CWinTraits@$0FGAAAAAA@$0A@@2@@ATL@@QAEPAUHWND__@@PAU3@V_U_RECT@2@PB_WKKV_U_MENUorID@2@GPAX@Z 1000a0f2 f i POSPower.obj
 0001:0000918e       ?copy@?$_Copy@UtagCONNECTDATA@@@ATL@@SAJPAUtagCONNECTDATA@@PBU3@@Z 1000a18e f i POSPower.obj
 0001:000091c4       ?copy@?$_CopyInterface@UIConnectionPoint@@@ATL@@SAJPAPAUIConnectionPoint@@PBQAU3@@Z 1000a1c4 f i POSPower.obj
 0001:000091f2       ?memcpy_s@Checked@ATL@@YAXPAXIPBXI@Z 1000a1f2 f i POSPower.obj
 0001:00009211       ?ocscpy_s@@YA_NPA_WIPB_W@Z 1000a211 f i POSPower.obj
 0001:0000925b       ?wcscpy_s@Checked@ATL@@YAXPA_WIPB_W@Z 1000a25b f i POSPower.obj
 0001:00009277       _DllCanUnloadNow@0         1000a277 f   POSPower.obj
 0001:00009283       _DllGetClassObject@12      1000a283 f   POSPower.obj
 0001:00009291       _DllMain@12                1000a291 f   POSPower.obj
 0001:000092d3       _DllRegisterServer@0       1000a2d3 f   POSPower.obj
 0001:000092e2       _DllUnregisterServer@0     1000a2e2 f   POSPower.obj
 0001:000092f1       _InlineIsEqualGUID         1000a2f1 f i POSPower.obj
 0001:00009321       ___local_stdio_printf_options 1000a321 f i POSPower.obj
 0001:00009327       __vswprintf_s_l            1000a327 f i POSPower.obj
 0001:000093d4       _swprintf_s                1000a3d4 f i POSPower.obj
 0001:000093f0       ??0?$CComControl@VCOPOSPOSPower@@V?$CWindowImpl@VCOPOSPOSPower@@VCWindow@ATL@@V?$CWinTraits@$0FGAAAAAA@$0A@@3@@ATL@@@ATL@@QAE@XZ 1000a3f0 f i POSPowerImpl.obj
 0001:00009417       ??0CComControlBase@ATL@@QAE@AAPAUHWND__@@@Z 1000a417 f i POSPowerImpl.obj
 0001:00009461       ??0COPOSPOSPower@@QAE@XZ   1000a461 f   POSPowerImpl.obj
 0001:000094b0       ??1?$CComControl@VCOPOSPOSPower@@V?$CWindowImpl@VCOPOSPOSPower@@VCWindow@ATL@@V?$CWinTraits@$0FGAAAAAA@$0A@@3@@ATL@@@ATL@@UAE@XZ 1000a4b0 f i POSPowerImpl.obj
 0001:000094c9       ??1?$IConnectionPointImpl@VCOPOSPOSPower@@$1?DIID__IOPOSPOSPowerEvents@@3U_GUID@@BVCComDynamicUnkArray@ATL@@@ATL@@QAE@XZ 1000a4c9 f i POSPowerImpl.obj
 0001:000094c9       ??1?$IConnectionPointImpl@VCOPOSPOSPower@@$1?IID_IPropertyNotifySink@@3U_GUID@@BVCComDynamicUnkArray@ATL@@@ATL@@QAE@XZ 1000a4c9 f i POSPowerImpl.obj
 0001:00009506       ??1CComControlBase@ATL@@UAE@XZ 1000a506 f i POSPowerImpl.obj
 0001:00009569       ??1COPOSPOSPower@@UAE@XZ   1000a569 f   POSPowerImpl.obj
 0001:000095b1       ?CheckHealth@COPOSPOSPower@@UAGJJPAJ@Z 1000a5b1 f   POSPowerImpl.obj
 0001:00009600       ?ClaimDevice@COPOSPOSPower@@UAGJJPAJ@Z 1000a600 f   POSPowerImpl.obj
 0001:0000966e       ?Close@COPOSPOSPower@@UAGJPAJ@Z 1000a66e f   POSPowerImpl.obj
 0001:000096dc       ?CompareFirmwareVersion@COPOSPOSPower@@UAGJPA_WPAJ1@Z 1000a6dc f   POSPowerImpl.obj
 0001:0000975c       ?DirectIO@COPOSPOSPower@@UAGJJPAJPAPA_W0@Z 1000a75c f   POSPowerImpl.obj
 0001:0000980a       ?DoInvoke@COPOSPOSPower@@IAEJJPAVOposVariant@@IHPAJ_N@Z 1000a80a f   POSPowerImpl.obj
 0001:000098e6       ?EventClose@COPOSPOSPower@@IAEXXZ 1000a8e6 f i POSPowerImpl.obj
 0001:00009919       ?EventInit@COPOSPOSPower@@IAEJXZ 1000a919 f i POSPowerImpl.obj
 0001:000099e5       ?EventUninit@COPOSPOSPower@@IAEXXZ 1000a9e5 f i POSPowerImpl.obj
 0001:00009a37       ?EventWindowProc@COPOSPOSPower@@IAGJIIJ@Z 1000aa37 f i POSPowerImpl.obj
 0001:00009aae       ?FinalConstruct@COPOSPOSPower@@QAEJXZ 1000aaae f   POSPowerImpl.obj
 0001:00009ae7       ?FireEventCleanup@COPOSPOSPower@@IAEXXZ 1000aae7 f i POSPowerImpl.obj
 0001:00009afd       ?FireEventSetup@COPOSPOSPower@@IAE_NXZ 1000aafd f i POSPowerImpl.obj
 0001:00009b31       ?FreezeEvents@COPOSPOSPower@@MAGJH@Z 1000ab31 f   POSPowerImpl.obj
 0001:00009b82       ?GetOposProp@COPOSPOSPower@@IAEJJPAFJ@Z 1000ab82 f   POSPowerImpl.obj
 0001:00009ba5       ?GetOposProp@COPOSPOSPower@@IAEJJPAJJ@Z 1000aba5 f   POSPowerImpl.obj
 0001:00009c74       ?GetOposProp@COPOSPOSPower@@IAEJJPAPA_WJ@Z 1000ac74 f   POSPowerImpl.obj
 0001:00009d50       ?OnDraw@COPOSPOSPower@@MAEJAAUATL_DRAWINFO@@@Z 1000ad50 f   POSPowerImpl.obj
 0001:00009df0       ?Open@COPOSPOSPower@@UAGJPA_WPAJ@Z 1000adf0 f   POSPowerImpl.obj
 0001:0000a637       ?ReleaseDevice@COPOSPOSPower@@UAGJPAJ@Z 1000b637 f   POSPowerImpl.obj
 0001:0000a66e       ?ResetStatistics@COPOSPOSPower@@UAGJPA_WPAJ@Z 1000b66e f   POSPowerImpl.obj
 0001:0000a6c5       ?RestartPOS@COPOSPOSPower@@UAGJPAJ@Z 1000b6c5 f   POSPowerImpl.obj
 0001:0000a6e0       ?RetrieveStatistics@COPOSPOSPower@@UAGJPAPA_WPAJ@Z 1000b6e0 f   POSPowerImpl.obj
 0001:0000a737       ?SOProcessID@COPOSPOSPower@@UAGJPAJ@Z 1000b737 f   POSPowerImpl.obj
 0001:0000a74b       ?SetCOFreezeEvents@COPOSPOSPower@@IAEXF@Z 1000b74b f   POSPowerImpl.obj
 0001:0000a7eb       ?SetOposProp@COPOSPOSPower@@IAEJJJJ@Z 1000b7eb f   POSPowerImpl.obj
 0001:0000a8e2       ?ShutdownPOS@COPOSPOSPower@@UAGJPAJ@Z 1000b8e2 f   POSPowerImpl.obj
 0001:0000a8fd       ?StandbyPOS@COPOSPOSPower@@UAGJJPAJ@Z 1000b8fd f   POSPowerImpl.obj
 0001:0000a94c       ?SuspendPOS@COPOSPOSPower@@UAGJJPAJ@Z 1000b94c f   POSPowerImpl.obj
 0001:0000a99b       ?UpdateFirmware@COPOSPOSPower@@UAGJPA_WPAJ@Z 1000b99b f   POSPowerImpl.obj
 0001:0000a9f2       ?UpdateStatistics@COPOSPOSPower@@UAGJPA_WPAJ@Z 1000b9f2 f   POSPowerImpl.obj
 0001:0000aa49       ?get_BatteryCapacityRemaining@COPOSPOSPower@@UAGJPAJ@Z 1000ba49 f   POSPowerImpl.obj
 0001:0000aa62       ?get_BatteryCriticallyLowThreshold@COPOSPOSPower@@UAGJPAJ@Z 1000ba62 f   POSPowerImpl.obj
 0001:0000aa7b       ?get_BatteryLowThreshold@COPOSPOSPower@@UAGJPAJ@Z 1000ba7b f   POSPowerImpl.obj
 0001:0000aa94       ?get_BinaryConversion@COPOSPOSPower@@UAGJPAJ@Z 1000ba94 f   POSPowerImpl.obj
 0001:0000aaaa       ?get_CapBatteryCapacityRemaining@COPOSPOSPower@@UAGJPAF@Z 1000baaa f   POSPowerImpl.obj
 0001:0000aac3       ?get_CapCompareFirmwareVersion@COPOSPOSPower@@UAGJPAF@Z 1000bac3 f   POSPowerImpl.obj
 0001:0000aadc       ?get_CapFanAlarm@COPOSPOSPower@@UAGJPAF@Z 1000badc f   POSPowerImpl.obj
 0001:0000aaf5       ?get_CapHeatAlarm@COPOSPOSPower@@UAGJPAF@Z 1000baf5 f   POSPowerImpl.obj
 0001:0000ab0e       ?get_CapPowerReporting@COPOSPOSPower@@UAGJPAJ@Z 1000bb0e f   POSPowerImpl.obj
 0001:0000ab27       ?get_CapQuickCharge@COPOSPOSPower@@UAGJPAF@Z 1000bb27 f   POSPowerImpl.obj
 0001:0000ab40       ?get_CapRestartPOS@COPOSPOSPower@@UAGJPAF@Z 1000bb40 f   POSPowerImpl.obj
 0001:0000ab59       ?get_CapShutdownPOS@COPOSPOSPower@@UAGJPAF@Z 1000bb59 f   POSPowerImpl.obj
 0001:0000ab72       ?get_CapStandbyPOS@COPOSPOSPower@@UAGJPAF@Z 1000bb72 f   POSPowerImpl.obj
 0001:0000ab8b       ?get_CapStatisticsReporting@COPOSPOSPower@@UAGJPAF@Z 1000bb8b f   POSPowerImpl.obj
 0001:0000aba4       ?get_CapSuspendPOS@COPOSPOSPower@@UAGJPAF@Z 1000bba4 f   POSPowerImpl.obj
 0001:0000abbd       ?get_CapUPSChargeState@COPOSPOSPower@@UAGJPAJ@Z 1000bbbd f   POSPowerImpl.obj
 0001:0000abd6       ?get_CapUpdateFirmware@COPOSPOSPower@@UAGJPAF@Z 1000bbd6 f   POSPowerImpl.obj
 0001:0000abef       ?get_CapUpdateStatistics@COPOSPOSPower@@UAGJPAF@Z 1000bbef f   POSPowerImpl.obj
 0001:0000ac08       ?get_CapVariableBatteryCriticallyLowThreshold@COPOSPOSPower@@UAGJPAF@Z 1000bc08 f   POSPowerImpl.obj
 0001:0000ac21       ?get_CapVariableBatteryLowThreshold@COPOSPOSPower@@UAGJPAF@Z 1000bc21 f   POSPowerImpl.obj
 0001:0000ac3a       ?get_CheckHealthText@COPOSPOSPower@@UAGJPAPA_W@Z 1000bc3a f   POSPowerImpl.obj
 0001:0000ac53       ?get_Claimed@COPOSPOSPower@@UAGJPAF@Z 1000bc53 f   POSPowerImpl.obj
 0001:0000ac69       ?get_ControlObjectDescription@COPOSPOSPower@@UAGJPAPA_W@Z 1000bc69 f   POSPowerImpl.obj
 0001:0000acb7       ?get_ControlObjectVersion@COPOSPOSPower@@UAGJPAJ@Z 1000bcb7 f   POSPowerImpl.obj
 0001:0000acca       ?get_DeviceDescription@COPOSPOSPower@@UAGJPAPA_W@Z 1000bcca f   POSPowerImpl.obj
 0001:0000ace3       ?get_DeviceEnabled@COPOSPOSPower@@UAGJPAF@Z 1000bce3 f   POSPowerImpl.obj
 0001:0000acf9       ?get_DeviceName@COPOSPOSPower@@UAGJPAPA_W@Z 1000bcf9 f   POSPowerImpl.obj
 0001:0000ad12       ?get_EnforcedShutdownDelayTime@COPOSPOSPower@@UAGJPAJ@Z 1000bd12 f   POSPowerImpl.obj
 0001:0000ad2b       ?get_FreezeEvents@COPOSPOSPower@@UAGJPAF@Z 1000bd2b f   POSPowerImpl.obj
 0001:0000ad41       ?get_OpenResult@COPOSPOSPower@@UAGJPAJ@Z 1000bd41 f   POSPowerImpl.obj
 0001:0000ad58       ?get_PowerFailDelayTime@COPOSPOSPower@@UAGJPAJ@Z 1000bd58 f   POSPowerImpl.obj
 0001:0000ad71       ?get_PowerNotify@COPOSPOSPower@@UAGJPAJ@Z 1000bd71 f   POSPowerImpl.obj
 0001:0000ad87       ?get_PowerSource@COPOSPOSPower@@UAGJPAJ@Z 1000bd87 f   POSPowerImpl.obj
 0001:0000ada0       ?get_PowerState@COPOSPOSPower@@UAGJPAJ@Z 1000bda0 f   POSPowerImpl.obj
 0001:0000adb6       ?get_QuickChargeMode@COPOSPOSPower@@UAGJPAF@Z 1000bdb6 f   POSPowerImpl.obj
 0001:0000adcf       ?get_QuickChargeTime@COPOSPOSPower@@UAGJPAJ@Z 1000bdcf f   POSPowerImpl.obj
 0001:0000ade8       ?get_ResultCode@COPOSPOSPower@@UAGJPAJ@Z 1000bde8 f   POSPowerImpl.obj
 0001:0000ae26       ?get_ResultCodeExtended@COPOSPOSPower@@UAGJPAJ@Z 1000be26 f   POSPowerImpl.obj
 0001:0000ae3c       ?get_ServiceObjectDescription@COPOSPOSPower@@UAGJPAPA_W@Z 1000be3c f   POSPowerImpl.obj
 0001:0000ae55       ?get_ServiceObjectVersion@COPOSPOSPower@@UAGJPAJ@Z 1000be55 f   POSPowerImpl.obj
 0001:0000ae6b       ?get_State@COPOSPOSPower@@UAGJPAJ@Z 1000be6b f   POSPowerImpl.obj
 0001:0000ae97       ?get_UPSChargeState@COPOSPOSPower@@UAGJPAJ@Z 1000be97 f   POSPowerImpl.obj
 0001:0000aeb0       ?put_BatteryCriticallyLowThreshold@COPOSPOSPower@@UAGJJ@Z 1000beb0 f   POSPowerImpl.obj
 0001:0000aec9       ?put_BatteryLowThreshold@COPOSPOSPower@@UAGJJ@Z 1000bec9 f   POSPowerImpl.obj
 0001:0000aee2       ?put_BinaryConversion@COPOSPOSPower@@UAGJJ@Z 1000bee2 f   POSPowerImpl.obj
 0001:0000aef8       ?put_DeviceEnabled@COPOSPOSPower@@UAGJF@Z 1000bef8 f   POSPowerImpl.obj
 0001:0000af15       ?put_EnforcedShutdownDelayTime@COPOSPOSPower@@UAGJJ@Z 1000bf15 f   POSPowerImpl.obj
 0001:0000af2e       ?put_FreezeEvents@COPOSPOSPower@@UAGJF@Z 1000bf2e f   POSPowerImpl.obj
 0001:0000af7a       ?put_PowerNotify@COPOSPOSPower@@UAGJJ@Z 1000bf7a f   POSPowerImpl.obj
 0001:0000af90       ?s_EventWindowProc@COPOSPOSPower@@KGJPAUHWND__@@IIJ@Z 1000bf90 f i POSPowerImpl.obj
 0001:0000afe2       ??_U@YAPAXI@Z              1000bfe2 f   LIBCMT:new_array.obj
 0001:0000afeb       ??3@YAXPAXI@Z              1000bfeb f   LIBCMT:delete_scalar_size.obj
 0001:0000aff9       ??_V@YAXPAX@Z              1000bff9 f   LIBCMT:delete_array.obj
 0001:0000affe       ??_V@YAXPAXI@Z             1000bffe f   LIBCMT:delete_array_size.obj
 0001:0000b050       ___scrt_acquire_startup_lock 1000c050 f   LIBCMT:utility.obj
 0001:0000b082       ___scrt_dllmain_after_initialize_c 1000c082 f   LIBCMT:utility.obj
 0001:0000b0ad       ___scrt_dllmain_before_initialize_c 1000c0ad f   LIBCMT:utility.obj
 0001:0000b0bb       ___scrt_dllmain_crt_thread_attach 1000c0bb f   LIBCMT:utility.obj
 0001:0000b0da       ___scrt_dllmain_crt_thread_detach 1000c0da f   LIBCMT:utility.obj
 0001:0000b0e7       ___scrt_dllmain_exception_filter 1000c0e7 f   LIBCMT:utility.obj
 0001:0000b11b       ___scrt_dllmain_uninitialize_c 1000c11b f   LIBCMT:utility.obj
 0001:0000b13e       ___scrt_dllmain_uninitialize_critical 1000c13e f   LIBCMT:utility.obj
 0001:0000b14b       ___scrt_initialize_crt     1000c14b f   LIBCMT:utility.obj
 0001:0000b184       ___scrt_initialize_onexit_tables 1000c184 f   LIBCMT:utility.obj
 0001:0000b20b       ___scrt_is_nonwritable_in_current_image 1000c20b f   LIBCMT:utility.obj
 0001:0000b29f       ___scrt_release_startup_lock 1000c29f f   LIBCMT:utility.obj
 0001:0000b2bc       ___scrt_uninitialize_crt   1000c2bc f   LIBCMT:utility.obj
 0001:0000b2e4       __onexit                   1000c2e4 f   LIBCMT:utility.obj
 0001:0000b311       _atexit                    1000c311 f   LIBCMT:utility.obj
 0001:0000b326       ??3@YAXPAX@Z               1000c326 f   LIBCMT:delete_scalar.obj
 0001:0000b3f0       __Init_thread_footer       1000c3f0 f   LIBCMT:thread_safe_statics.obj
 0001:0000b43a       __Init_thread_header       1000c43a f   LIBCMT:thread_safe_statics.obj
 0001:0000b48c       __Init_thread_notify       1000c48c f   LIBCMT:thread_safe_statics.obj
 0001:0000b4c2       __Init_thread_wait         1000c4c2 f   LIBCMT:thread_safe_statics.obj
 0001:0000b510       ___raise_securityfailure   1000c510 f   LIBCMT:gs_report.obj
 0001:0000b538       ___report_gsfailure        1000c538 f   LIBCMT:gs_report.obj
 0001:0000b631       ___report_rangecheckfailure 1000c631 f   LIBCMT:gs_report.obj
 0001:0000b63d       ___report_securityfailure  1000c63d f   LIBCMT:gs_report.obj
 0001:0000b70b       ??2@YAPAXIABUnothrow_t@std@@@Z 1000c70b f   LIBCMT:new_scalar_nothrow.obj
 0001:0000b75b       ??_U@YAPAXIABUnothrow_t@std@@@Z 1000c75b f   LIBCMT:new_array_nothrow.obj
 0001:0000b764       @__security_check_cookie@4 1000c764 f   LIBCMT:secchk.obj
 0001:0000b780       __SEH_prolog4_GS           1000c780 f   LIBCMT:sehprolg4gs.obj
 0001:0000b7c9       __SEH_epilog4_GS           1000c7c9 f   LIBCMT:sehprolg4gs.obj
 0001:0000b7e0       __alloca_probe_16          1000c7e0 f   LIBCMT:alloca16.obj
 0001:0000b7f6       __alloca_probe_8           1000c7f6     LIBCMT:alloca16.obj
 0001:0000b810       __alloca_probe             1000c810 f   LIBCMT:chkstk.obj
 0001:0000b810       __chkstk                   1000c810 f   LIBCMT:chkstk.obj
 0001:0000bb78       __DllMainCRTStartup@12     1000cb78 f   LIBCMT:dll_dllmain.obj
 0001:0000bb9b       ??2@YAPAXI@Z               1000cb9b f   LIBCMT:new_scalar.obj
 0001:0000bbcb       ___isa_available_init      1000cbcb f   LIBCMT:cpu_disp.obj
 0001:0000bd9b       ___scrt_is_ucrt_dll_in_use 1000cd9b f   LIBCMT:ucrt_detection.obj
 0001:0000bda7       ___scrt_fastfail           1000cda7 f   LIBCMT:utility_desktop.obj
 0001:0000bec1       __crt_debugger_hook        1000cec1 f   LIBCMT:utility_desktop.obj
 0001:0000bed0       __SEH_prolog4              1000ced0 f   LIBCMT:sehprolg4.obj
 0001:0000bf16       __SEH_epilog4              1000cf16 f   LIBCMT:sehprolg4.obj
 0001:0000bf2b       @_guard_check_icall_nop@4  1000cf2b f i LIBCMT:guard_support.obj
 0001:0000bf79       ___security_init_cookie    1000cf79 f   LIBCMT:gs_support.obj
 0001:0000bfc4       ?__scrt_initialize_type_info@@YAXXZ 1000cfc4 f   LIBCMT:tncleanup.obj
 0001:0000bfd0       ?__scrt_uninitialize_type_info@@YAXXZ 1000cfd0 f   LIBCMT:tncleanup.obj
 0001:0000bfdc       ___local_stdio_scanf_options 1000cfdc f i LIBCMT:default_local_stdio_options.obj
 0001:0000bfe2       ___scrt_initialize_default_local_stdio_options 1000cfe2 f   LIBCMT:default_local_stdio_options.obj
 0001:0000bfff       ___scrt_get_dyn_tls_init_callback 1000cfff f   LIBCMT:dyn_tls_init.obj
 0001:0000c005       __RTC_Initialize           1000d005 f   LIBCMT:initsect.obj
 0001:0000c031       __RTC_Terminate            1000d031 f   LIBCMT:initsect.obj
 0001:0000c05d       ??0bad_alloc@std@@QAE@ABV01@@Z 1000d05d f i LIBCMT:throw_bad_alloc.obj
 0001:0000c078       ??0bad_alloc@std@@QAE@XZ   1000d078 f i LIBCMT:throw_bad_alloc.obj
 0001:0000c090       ??0bad_array_new_length@std@@QAE@ABV01@@Z 1000d090 f i LIBCMT:throw_bad_alloc.obj
 0001:0000c0ab       ??0bad_array_new_length@std@@QAE@XZ 1000d0ab f i LIBCMT:throw_bad_alloc.obj
 0001:0000c0c3       ??0exception@std@@QAE@ABV01@@Z 1000d0c3 f i LIBCMT:throw_bad_alloc.obj
 0001:0000c0ef       ??1bad_array_new_length@std@@UAE@XZ 1000d0ef f i LIBCMT:throw_bad_alloc.obj
 0001:0000c0ef       ??1bad_exception@std@@UAE@XZ 1000d0ef f i libvcruntime:frame.obj
 0001:0000c0ef       ??1bad_alloc@std@@UAE@XZ   1000d0ef f i LIBCMT:throw_bad_alloc.obj
 0001:0000c100       ??_Gbad_alloc@std@@UAEPAXI@Z 1000d100 f i LIBCMT:throw_bad_alloc.obj
 0001:0000c100       ??_Gbad_array_new_length@std@@UAEPAXI@Z 1000d100 f i LIBCMT:throw_bad_alloc.obj
 0001:0000c100       ??_Gexception@std@@UAEPAXI@Z 1000d100 f i LIBCMT:throw_bad_alloc.obj
 0001:0000c100       ??_Eexception@std@@UAEPAXI@Z 1000d100 f i LIBCMT:throw_bad_alloc.obj
 0001:0000c100       ??_Ebad_array_new_length@std@@UAEPAXI@Z 1000d100 f i LIBCMT:throw_bad_alloc.obj
 0001:0000c100       ??_Ebad_exception@std@@UAEPAXI@Z 1000d100 f i libvcruntime:frame.obj
 0001:0000c100       ??_Gbad_exception@std@@UAEPAXI@Z 1000d100 f i libvcruntime:frame.obj
 0001:0000c100       ??_Ebad_alloc@std@@UAEPAXI@Z 1000d100 f i LIBCMT:throw_bad_alloc.obj
 0001:0000c12d       ?__scrt_throw_std_bad_alloc@@YAXXZ 1000d12d f   LIBCMT:throw_bad_alloc.obj
 0001:0000c14a       ?__scrt_throw_std_bad_array_new_length@@YAXXZ 1000d14a f   LIBCMT:throw_bad_alloc.obj
 0001:0000c167       ?what@exception@std@@UBEPBDXZ 1000d167 f i LIBCMT:throw_bad_alloc.obj
 0001:0000c174       ??_Gtype_info@@UAEPAXI@Z   1000d174 f i LIBCMT:std_type_info_static.obj
 0001:0000c174       ??_Etype_info@@UAEPAXI@Z   1000d174 f i LIBCMT:std_type_info_static.obj
 0001:0000c197       ??0CAtlBaseModule@ATL@@QAE@XZ 1000d197 f   atls:atlbase.obj
 0001:0000c1ea       ??0_ATL_BASE_MODULE70@ATL@@QAE@XZ 1000d1ea f i atls:atlbase.obj
 0001:0000c20d       ??1CAtlBaseModule@ATL@@QAE@XZ 1000d20d f   atls:atlbase.obj
 0001:0000c2fa       ?Init@_stdcallthunk@ATL@@QAEHKPAX@Z 1000d2fa f i atls:atlthunk.obj
 0001:0000c32f       ?__AllocStdCallThunk_cmn@@YAPAXXZ 1000d32f f   atls:atlthunk.obj
 0001:0000c3f5       ?__FreeStdCallThunk_cmn@@YAXPAX@Z 1000d3f5 f   atls:atlthunk.obj
 0001:0000c490       _AtlThunk_AllocateData@0   1000d490 f   atls:atlthunk.obj
 0001:0000c4f5       _AtlThunk_DataToCode@4     1000d4f5 f   atls:atlthunk.obj
 0001:0000c53c       _AtlThunk_FreeData@4       1000d53c f   atls:atlthunk.obj
 0001:0000c592       _AtlThunk_InitData@12      1000d592 f   atls:atlthunk.obj
 0001:0000c5e1       __get_purecall_handler     1000d5e1 f   libvcruntime:purevirt.obj
 0001:0000c5e7       __purecall                 1000d5e7 f   libvcruntime:purevirt.obj
 0001:0000c603       _wcsstr                    1000d603 f   libvcruntime:wcsstr.obj
 0001:0000c8c0       __except_handler4          1000d8c0 f   libvcruntime:chandler4.obj
 0001:0000ca1e       _memcmp                    1000da1e f   libvcruntime:memcmp.obj
 0001:0000d9d0       _memcpy                    1000e9d0 f   libvcruntime:memcpy.obj
 0001:0000df50       _memset                    1000ef50 f   libvcruntime:memset.obj
 0001:0000e0aa       ___vcrt_initialize         1000f0aa f   libvcruntime:initialization.obj
 0001:0000e0c9       ___vcrt_thread_attach      1000f0c9 f   libvcruntime:initialization.obj
 0001:0000e0d4       ___vcrt_thread_detach      1000f0d4 f   libvcruntime:initialization.obj
 0001:0000e0df       ___vcrt_uninitialize       1000f0df f   libvcruntime:initialization.obj
 0001:0000e0f6       ___vcrt_uninitialize_critical 1000f0f6 f   libvcruntime:initialization.obj
 0001:0000e0fe       ?GetRangeOfTrysToCheck@__FrameHandler3@@SA?AU?$pair@Viterator@TryBlockMap@__FrameHandler3@@V123@@std@@AAVTryBlockMap@1@HPAXPBU_s_FuncInfo@@H@Z 1000f0fe f   libvcruntime:trnsctrl.obj
 0001:0000e16e       ?_CallCatchBlock2@@YAPAXPAUEHRegistrationNode@@PBU_s_FuncInfo@@PAXHK@Z 1000f16e f   libvcruntime:trnsctrl.obj
 0001:0000e1cc       ?_CallSETranslator@@YAHPAUEHExceptionRecord@@PAUEHRegistrationNode@@PAX2PBU_s_FuncInfo@@H1@Z 1000f1cc f   libvcruntime:trnsctrl.obj
 0001:0000e2b2       ?_JumpToContinuation@@YGXPAXPAUEHRegistrationNode@@@Z 1000f2b2 f   libvcruntime:trnsctrl.obj
 0001:0000e2e2       ?_UnwindNestedFrames@@YGXPAUEHRegistrationNode@@PAUEHExceptionRecord@@@Z 1000f2e2 f   libvcruntime:trnsctrl.obj
 0001:0000e335       __CatchGuardHandler        1000f335 f   libvcruntime:trnsctrl.obj
 0001:0000e366       __CreateFrameInfo          1000f366 f   libvcruntime:trnsctrl.obj
 0001:0000e38a       __FindAndUnlinkFrame       1000f38a f   libvcruntime:trnsctrl.obj
 0001:0000e3d2       __TranslatorGuardHandler   1000f3d2 f   libvcruntime:trnsctrl.obj
 0001:0000e46f       ___CxxFrameHandler3        1000f46f f   libvcruntime:trnsctrl.obj
 0001:0000e4a5       ___DestructExceptionObject 1000f4a5 f   libvcruntime:ehhelpers.obj
 0001:0000e546       ?_CallMemberFunction0@@YGXQAX0@Z 1000f546 f i libvcruntime:ehhelpers.obj
 0001:0000e5ab       __IsExceptionObjectToBeDestroyed 1000f5ab f   libvcruntime:ehhelpers.obj
 0001:0000e5d1       ___AdjustPointer           1000f5d1 f   libvcruntime:ehhelpers.obj
 0001:0000e5f6       ___FrameUnwindFilter       1000f5f6 f   libvcruntime:ehhelpers.obj
 0001:0000e64c       ___std_type_info_compare   1000f64c f   libvcruntime:std_type_info.obj
 0001:0000e688       ___std_type_info_destroy_list 1000f688 f   libvcruntime:std_type_info.obj
 0001:0000e6ab       ___std_exception_copy      1000f6ab f   libvcruntime:std_exception.obj
 0001:0000e70e       ___std_exception_destroy   1000f70e f   libvcruntime:std_exception.obj
 0001:0000e72d       __CxxThrowException@8      1000f72d f   libvcruntime:throw.obj
 0001:0000e7a0       _memmove                   1000f7a0 f   libvcruntime:memmove.obj
 0001:0000ed20       __local_unwind4            1000fd20 f   libvcruntime:exsup4.obj
 0001:0000edf8       __seh_longjmp_unwind4@4    1000fdf8 f   libvcruntime:exsup4.obj
 0001:0000ee20       @_EH4_CallFilterFunc@8     1000fe20 f   libvcruntime:exsup4.obj
 0001:0000ee38       @_EH4_TransferToHandler@8  1000fe38 f   libvcruntime:exsup4.obj
 0001:0000ee54       @_EH4_GlobalUnwind2@8      1000fe54 f   libvcruntime:exsup4.obj
 0001:0000ee70       @_EH4_LocalUnwind@16       1000fe70 f   libvcruntime:exsup4.obj
 0001:0000ee87       ___except_validate_context_record 1000fe87 f   libvcruntime:jbcxrval.obj
 0001:0000eeb7       ___except_validate_jump_buffer 1000feb7 f   libvcruntime:jbcxrval.obj
 0001:0000eee4       ___vcrt_freefls@4          1000fee4 f   libvcruntime:per_thread_data.obj
 0001:0000ef00       ___vcrt_freeptd            1000ff00 f   libvcruntime:per_thread_data.obj
 0001:0000ef36       ___vcrt_getptd             1000ff36 f   libvcruntime:per_thread_data.obj
 0001:0000ef44       ___vcrt_getptd_noexit      1000ff44 f   libvcruntime:per_thread_data.obj
 0001:0000efd6       ___vcrt_initialize_ptd     1000ffd6 f   libvcruntime:per_thread_data.obj
 0001:0000f009       ___vcrt_uninitialize_ptd   10010009 f   libvcruntime:per_thread_data.obj
 0001:0000f024       ___vcrt_initialize_locks   10010024 f   libvcruntime:locks.obj
 0001:0000f060       ___vcrt_uninitialize_locks 10010060 f   libvcruntime:locks.obj
 0001:0000f7d2       ??$TypeMatchHelper@V__FrameHandler3@@@@YAHPBU_s_HandlerType@@PBU_s_CatchableType@@PBU_s_ThrowInfo@@@Z 100107d2 f i libvcruntime:frame.obj
 0001:0000f860       ??$__InternalCxxFrameHandler@V__FrameHandler3@@@@YA?AW4_EXCEPTION_DISPOSITION@@PAUEHExceptionRecord@@PAUEHRegistrationNode@@PAU_CONTEXT@@PAXPBU_s_FuncInfo@@H1E@Z 10010860 f i libvcruntime:frame.obj
 0001:0000f962       ??0bad_exception@std@@QAE@ABV01@@Z 10010962 f i libvcruntime:frame.obj
 0001:0000f97d       ??0bad_exception@std@@QAE@XZ 1001097d f i libvcruntime:frame.obj
 0001:0000f995       ??8type_info@@QBE_NABV0@@Z 10010995 f i libvcruntime:frame.obj
 0001:0000fbfc       ?FrameUnwindToEmptyState@__FrameHandler3@@SAXPAUEHRegistrationNode@@PAXPBU_s_FuncInfo@@@Z 10010bfc f   libvcruntime:frame.obj
 0001:0000fc14       ?FrameUnwindToState@__FrameHandler3@@SAXPAUEHRegistrationNode@@PAXPBU_s_FuncInfo@@H@Z 10010c14 f   libvcruntime:frame.obj
 0001:0000fd96       ?_CallMemberFunction1@@YGXQAX00@Z 10010d96 f i libvcruntime:frame.obj
 0001:0000fda6       ?_CallMemberFunction2@@YGXQAX00H@Z 10010da6 f i libvcruntime:frame.obj
 0001:0000fdb9       ?getESTypes@__FrameHandler3@@SAPBU_s_ESTypeList@@PBU_s_FuncInfo@@@Z 10010db9 f i libvcruntime:frame.obj
 0001:0000fdd0       __CallSettingFrame@12      10010dd0 f   libvcruntime:lowhelpr.obj
 0001:0000fdf7       __NLG_Return               10010df7     libvcruntime:lowhelpr.obj
 0001:0000fe20       __global_unwind2           10010e20 f   libvcruntime:exsup.obj
 0001:0000fe86       __local_unwind2            10010e86 f   libvcruntime:exsup.obj
 0001:0000ff0a       __abnormal_termination     10010f0a f   libvcruntime:exsup.obj
 0001:0000ff30       __NLG_Notify1              10010f30 f   libvcruntime:exsup.obj
 0001:0000ff3c       __NLG_Notify               10010f3c f   libvcruntime:exsup.obj
 0001:0000ff53       __NLG_Dispatch2            10010f53     libvcruntime:exsup.obj
 0001:0000ff53       __NLG_Dispatch             10010f53     libvcruntime:exsup.obj
 0001:0000ff5b       __NLG_Call                 10010f5b f   libvcruntime:exsup.obj
 0001:0000ff5d       __NLG_Return2              10010f5d     libvcruntime:exsup.obj
 0001:00010053       ___vcrt_FlsAlloc           10011053 f   libvcruntime:winapi_downlevel.obj
 0001:0001008e       ___vcrt_FlsFree            1001108e f   libvcruntime:winapi_downlevel.obj
 0001:000100c9       ___vcrt_FlsGetValue        100110c9 f   libvcruntime:winapi_downlevel.obj
 0001:00010104       ___vcrt_FlsSetValue        10011104 f   libvcruntime:winapi_downlevel.obj
 0001:00010142       ___vcrt_InitializeCriticalSectionEx 10011142 f   libvcruntime:winapi_downlevel.obj
 0001:00010189       _unexpected                10011189 f   libvcruntime:unexpected.obj
 0001:000101a6       ?GetCurrentState@__FrameHandler3@@SAHPAUEHRegistrationNode@@PAXPBU_s_FuncInfo@@@Z 100111a6 f   libvcruntime:ehstate.obj
 0001:000101c3       ?SetState@__FrameHandler3@@SAXPAUEHRegistrationNode@@PBU_s_FuncInfo@@H@Z 100111c3 f   libvcruntime:ehstate.obj
 0001:000101d1       _free                      100111d1 f   libucrt:free.obj
 0001:000101ec       ___acrt_call_reportfault   100111ec f   libucrt:invalid_parameter.obj
 0001:00010325       ___acrt_initialize_invalid_parameter_handler 10011325 f   libucrt:invalid_parameter.obj
 0001:00010334       __invalid_parameter        10011334 f   libucrt:invalid_parameter.obj
 0001:00010398       __invalid_parameter_noinfo 10011398 f   libucrt:invalid_parameter.obj
 0001:000103a8       __invoke_watson            100113a8 f   libucrt:invalid_parameter.obj
 0001:000103dc       ___acrt_errno_from_os_error 100113dc f   libucrt:errno.obj
 0001:0001041f       ___acrt_errno_map_os_error 1001141f f   libucrt:errno.obj
 0001:00010442       ___doserrno                10011442 f   libucrt:errno.obj
 0001:00010455       __errno                    10011455 f   libucrt:errno.obj
 0001:00010468       _calloc                    10011468 f   libucrt:calloc.obj
 0001:00010473       _malloc                    10011473 f   libucrt:malloc.obj
 0001:0001047e       __recalloc                 1001147e f   libucrt:recalloc.obj
 0001:00010489       __recalloc_base            10011489 f   libucrt:recalloc.obj
 0001:000104f6       __resetstkoflw             100114f6 f   libucrt:resetstk.obj
 0001:000105bb       _wcscat_s                  100115bb f   libucrt:wcscat_s.obj
 0001:00010630       _wcscpy_s                  10011630 f   libucrt:wcscpy_s.obj
 0001:0001075f       _wcsncpy_s                 1001175f f   libucrt:wcsncpy_s.obj
 0001:0001096b       ??$count@D@formatting_buffer@__crt_stdio_output@@QBEIXZ 1001196b f i libucrt:output.obj
 0001:00010983       ??$count@_W@formatting_buffer@__crt_stdio_output@@QBEIXZ 10011983 f i libucrt:output.obj
 0001:0001099c       ??$ensure_buffer_is_big_enough@D@formatting_buffer@__crt_stdio_output@@QAE_NI@Z 1001199c f i libucrt:output.obj
 0001:00010a19       ??$ensure_buffer_is_big_enough@_W@formatting_buffer@__crt_stdio_output@@QAE_NI@Z 10011a19 f i libucrt:output.obj
 0001:00010a97       ??$is_wide_character_specifier@_W@__crt_stdio_output@@YA_N_K_WW4length_modifier@0@@Z 10011a97 f i libucrt:output.obj
 0001:00010ae5       ??$scratch_data@D@formatting_buffer@__crt_stdio_output@@QAEPADXZ 10011ae5 f i libucrt:output.obj
 0001:00010b03       ??$type_case_integer_parse_into_buffer@I@?$output_processor@_WV?$string_output_adapter@_W@__crt_stdio_output@@V?$format_validation_base@_WV?$string_output_adapter@_W@__crt_stdio_output@@@2@@__crt_stdio_output@@AAEXII_N@Z 10011b03 f i libucrt:output.obj
 0001:00010b8a       ??$type_case_integer_parse_into_buffer@_K@?$output_processor@_WV?$string_output_adapter@_W@__crt_stdio_output@@V?$format_validation_base@_WV?$string_output_adapter@_W@__crt_stdio_output@@@2@@__crt_stdio_output@@AAEX_KI_N@Z 10011b8a f i libucrt:output.obj
 0001:00010c2c       ??$write_multiple_characters@V?$string_output_adapter@_W@__crt_stdio_output@@D@__crt_stdio_output@@YAXABV?$string_output_adapter@_W@0@DHQAH@Z 10011c2c f i libucrt:output.obj
 0001:00010c5d       ??0?$common_data@_W@__crt_stdio_output@@IAE@XZ 10011c5d f i libucrt:output.obj
 0001:00010ca7       ??0?$output_adapter_data@_WV?$string_output_adapter@_W@__crt_stdio_output@@@__crt_stdio_output@@IAE@ABV?$string_output_adapter@_W@1@_KQB_WQAU__crt_locale_pointers@@QAD@Z 10011ca7 f i libucrt:output.obj
 0001:00010ce3       ??0_LocaleUpdate@@QAE@QAU__crt_locale_pointers@@@Z 10011ce3 f i libucrt:output.obj
 0001:00010d66       ??1formatting_buffer@__crt_stdio_output@@QAE@XZ 10011d66 f i libucrt:output.obj
 0001:00010d80       ??4?$__crt_unique_heap_ptr@DU__crt_internal_free_policy@@@@QAEAAV0@$$QAV0@@Z 10011d80 f i libucrt:output.obj
 0001:00010da4       ?crop_zeroes@__crt_stdio_output@@YAXPADQAU__crt_locale_pointers@@@Z 10011da4 f i libucrt:output.obj
 0001:00010e04       ?find_next_state@?$output_processor@_WV?$string_output_adapter@_W@__crt_stdio_output@@V?$format_validation_base@_WV?$string_output_adapter@_W@__crt_stdio_output@@@2@@__crt_stdio_output@@ABE?AW4state@2@_WW432@@Z 10011e04 f i libucrt:output.obj
 0001:00010e46       ?force_decimal_point@__crt_stdio_output@@YAXPADQAU__crt_locale_pointers@@@Z 10011e46 f i libucrt:output.obj
 0001:00010ea2       ?parse_int_from_format_string@?$output_processor@_WV?$string_output_adapter@_W@__crt_stdio_output@@V?$format_validation_base@_WV?$string_output_adapter@_W@__crt_stdio_output@@@2@@__crt_stdio_output@@AAE_NQAH@Z 10011ea2 f i libucrt:output.obj
 0001:00010f18       ?process@?$output_processor@_WV?$string_output_adapter@_W@__crt_stdio_output@@V?$format_validation_base@_WV?$string_output_adapter@_W@__crt_stdio_output@@@2@@__crt_stdio_output@@QAEHXZ 10011f18 f i libucrt:output.obj
 0001:00011040       ?state_case_flag@?$output_processor@_WV?$string_output_adapter@_W@__crt_stdio_output@@V?$format_validation_base@_WV?$string_output_adapter@_W@__crt_stdio_output@@@2@@__crt_stdio_output@@AAE_NXZ 10012040 f i libucrt:output.obj
 0001:0001107d       ?state_case_normal@?$output_processor@_WV?$string_output_adapter@_W@__crt_stdio_output@@V?$format_validation_base@_WV?$string_output_adapter@_W@__crt_stdio_output@@@2@@__crt_stdio_output@@AAE_NXZ 1001207d f i libucrt:output.obj
 0001:0001109c       ?state_case_normal_common@?$output_processor@_WV?$string_output_adapter@_W@__crt_stdio_output@@V?$format_validation_base@_WV?$string_output_adapter@_W@__crt_stdio_output@@@2@@__crt_stdio_output@@AAE_NXZ 1001209c f i libucrt:output.obj
 0001:000110b7       ?state_case_precision@?$output_processor@_WV?$string_output_adapter@_W@__crt_stdio_output@@V?$format_validation_base@_WV?$string_output_adapter@_W@__crt_stdio_output@@@2@@__crt_stdio_output@@AAE_NXZ 100120b7 f i libucrt:output.obj
 0001:000110de       ?state_case_size@?$output_processor@_WV?$string_output_adapter@_W@__crt_stdio_output@@V?$format_validation_base@_WV?$string_output_adapter@_W@__crt_stdio_output@@@2@@__crt_stdio_output@@AAE_NXZ 100120de f i libucrt:output.obj
 0001:00011256       ?state_case_type@?$output_processor@_WV?$string_output_adapter@_W@__crt_stdio_output@@V?$format_validation_base@_WV?$string_output_adapter@_W@__crt_stdio_output@@@2@@__crt_stdio_output@@AAE_NXZ 10012256 f i libucrt:output.obj
 0001:000114bb       ?state_case_width@?$output_processor@_WV?$string_output_adapter@_W@__crt_stdio_output@@V?$format_validation_base@_WV?$string_output_adapter@_W@__crt_stdio_output@@@2@@__crt_stdio_output@@AAE_NXZ 100124bb f i libucrt:output.obj
 0001:000114e7       ?to_integer_size@__crt_stdio_output@@YAIW4length_modifier@1@@Z 100124e7 f i libucrt:output.obj
 0001:0001153b       ?type_case_Z@?$output_processor@_WV?$string_output_adapter@_W@__crt_stdio_output@@V?$format_validation_base@_WV?$string_output_adapter@_W@__crt_stdio_output@@@2@@__crt_stdio_output@@AAE_NXZ 1001253b f i libucrt:output.obj
 0001:00011595       ?type_case_a@?$output_processor@_WV?$string_output_adapter@_W@__crt_stdio_output@@V?$format_validation_base@_WV?$string_output_adapter@_W@__crt_stdio_output@@@2@@__crt_stdio_output@@AAE_NXZ 10012595 f i libucrt:output.obj
 0001:000116fa       ?type_case_c_tchar@?$output_processor@_WV?$string_output_adapter@_W@__crt_stdio_output@@V?$format_validation_base@_WV?$string_output_adapter@_W@__crt_stdio_output@@@2@@__crt_stdio_output@@AAE_N_W@Z 100126fa f i libucrt:output.obj
 0001:00011790       ?type_case_integer@?$output_processor@_WV?$string_output_adapter@_W@__crt_stdio_output@@V?$format_validation_base@_WV?$string_output_adapter@_W@__crt_stdio_output@@@2@@__crt_stdio_output@@AAE_NI_N@Z 10012790 f i libucrt:output.obj
 0001:000118e5       ?type_case_n@?$output_processor@_WV?$string_output_adapter@_W@__crt_stdio_output@@V?$format_validation_base@_WV?$string_output_adapter@_W@__crt_stdio_output@@@2@@__crt_stdio_output@@AAE_NXZ 100128e5 f i libucrt:output.obj
 0001:00011959       ?type_case_o@?$output_processor@_WV?$string_output_adapter@_W@__crt_stdio_output@@V?$format_validation_base@_WV?$string_output_adapter@_W@__crt_stdio_output@@@2@@__crt_stdio_output@@AAE_NXZ 10012959 f i libucrt:output.obj
 0001:00011978       ?type_case_p@?$output_processor@_WV?$string_output_adapter@_W@__crt_stdio_output@@V?$format_validation_base@_WV?$string_output_adapter@_W@__crt_stdio_output@@@2@@__crt_stdio_output@@AAE_NXZ 10012978 f i libucrt:output.obj
 0001:00011990       ?type_case_s@?$output_processor@_WV?$string_output_adapter@_W@__crt_stdio_output@@V?$format_validation_base@_WV?$string_output_adapter@_W@__crt_stdio_output@@@2@@__crt_stdio_output@@AAE_NXZ 10012990 f i libucrt:output.obj
 0001:00011a03       ?type_case_s_compute_narrow_string_length@?$output_processor@_WV?$string_output_adapter@_W@__crt_stdio_output@@V?$format_validation_base@_WV?$string_output_adapter@_W@__crt_stdio_output@@@2@@__crt_stdio_output@@ABEHH_W@Z 10012a03 f i libucrt:output.obj
 0001:00011a4a       ?validate@?$string_output_adapter@_W@__crt_stdio_output@@QBE_NXZ 10012a4a f i libucrt:output.obj
 0001:00011a4a       ?validate@?$c_string_character_source@_W@__crt_strtox@@QBE_NXZ 10012a4a f i libucrt:atox.obj
 0001:00011a65       ?validate_and_update_state_at_end_of_format_string@?$format_validation_base@_WV?$string_output_adapter@_W@__crt_stdio_output@@@__crt_stdio_output@@IBE_NXZ 10012a65 f i libucrt:output.obj
 0001:00011a87       ?write_character@?$string_output_adapter@_W@__crt_stdio_output@@QBE_N_WQAH@Z 10012a87 f i libucrt:output.obj
 0001:00011acc       ?write_stored_string_tchar@?$output_processor@_WV?$string_output_adapter@_W@__crt_stdio_output@@V?$format_validation_base@_WV?$string_output_adapter@_W@__crt_stdio_output@@@2@@__crt_stdio_output@@AAE_N_W@Z 10012acc f i libucrt:output.obj
 0001:00011b5f       ?write_string@?$string_output_adapter@_W@__crt_stdio_output@@QBEXQB_WHQAHAAV__crt_deferred_errno_cache@@@Z 10012b5f f i libucrt:output.obj
 0001:00011bd0       ___acrt_locale_get_ctype_array_value 10012bd0 f i libucrt:output.obj
 0001:00011bf2       ___stdio_common_vswprintf_s 10012bf2 f   libucrt:output.obj
 0001:00011c16       __seh_filter_dll           10012c16 f   libucrt:exception_filter.obj
 0001:00011c36       __seh_filter_exe           10012c36 f   libucrt:exception_filter.obj
 0001:00012004       ___acrt_initialize_thread_local_exit_callback 10013004 f   libucrt:exit.obj
 0001:00012013       __cexit                    10013013 f   libucrt:exit.obj
 0001:00012022       __exit                     10013022 f   libucrt:exit.obj
 0001:00012038       __is_c_termination_complete 10013038 f   libucrt:exit.obj
 0001:000122ec       ___acrt_allocate_buffer_for_argv 100132ec f   libucrt:argv_parsing.obj
 0001:0001233b       __configure_narrow_argv    1001333b f   libucrt:argv_parsing.obj
 0001:00012498       ??$uninitialize@A6AXAAPAPAD@Z@?$dual_state_global@PAPAD@__crt_state_management@@QAEXA6AXAAPAPAD@Z@Z 10013498 f i libucrt:environment_initialization.obj
 0001:00012498       ??$uninitialize@A6AXAAPAPA_W@Z@?$dual_state_global@PAPA_W@__crt_state_management@@QAEXA6AXAAPAPA_W@Z@Z 10013498 f i libucrt:environment_initialization.obj
 0001:000124f7       ___dcrt_uninitialize_environments_nolock 100134f7 f   libucrt:environment_initialization.obj
 0001:0001252e       __initialize_narrow_environment 1001352e f   libucrt:environment_initialization.obj
 0001:000125e9       ??$__crt_fast_encode_pointer@P6AHXZ@@YAP6AHXZQ6AHXZ@Z 100135e9 f i libucrt:onexit.obj
 0001:000125e9       ??$__crt_fast_encode_pointer@PAX@@YAPAXQAX@Z 100135e9 f i libucrt:initialization.obj
 0001:000125e9       ??$__crt_fast_encode_pointer@PAP6AXXZ@@YAPAP6AXXZQAP6AXXZ@Z 100135e9 f i libucrt:onexit.obj
 0001:0001280b       __crt_atexit               1001380b f   libucrt:onexit.obj
 0001:00012821       __execute_onexit_table     10013821 f   libucrt:onexit.obj
 0001:0001284e       __initialize_onexit_table  1001384e f   libucrt:onexit.obj
 0001:00012877       __register_onexit_function 10013877 f   libucrt:onexit.obj
 0001:000128aa       ___acrt_uninitialize_command_line 100138aa f   libucrt:argv_data.obj
 0001:000129a8       ___acrt_initialize         100139a8 f   libucrt:initialization.obj
 0001:000129ba       ___acrt_thread_attach      100139ba f   libucrt:initialization.obj
 0001:000129c5       ___acrt_thread_detach      100139c5 f   libucrt:initialization.obj
 0001:000129cd       ___acrt_uninitialize       100139cd f   libucrt:initialization.obj
 0001:000129fd       ___acrt_uninitialize_critical 100139fd f   libucrt:initialization.obj
 0001:00012a0f       __initterm                 10013a0f f   libucrt:initterm.obj
 0001:00012a54       __initterm_e               10013a54 f   libucrt:initterm.obj
 0001:00012a82       ___acrt_initialize_new_handler 10013a82 f   libucrt:new_handler.obj
 0001:00012a91       __callnewh                 10013a91 f   libucrt:new_handler.obj
 0001:00012abe       __query_new_handler        10013abe f   libucrt:new_handler.obj
 0001:00012b1a       _terminate                 10013b1a f   libucrt:terminate.obj
 0001:00012b56       _abort                     10013b56 f   libucrt:abort.obj
 0001:00012b9a       _strcpy_s                  10013b9a f   libucrt:strcpy_s.obj
 0001:00012bf4       ??$is_overflow_condition@K@__crt_strtox@@YA_NIK@Z 10013bf4 f i libucrt:atox.obj
 0001:00012c25       ??$parse_integer@KV?$c_string_character_source@_W@__crt_strtox@@@__crt_strtox@@YAKQAU__crt_locale_pointers@@V?$c_string_character_source@_W@0@H_N@Z 10013c25 f i libucrt:atox.obj
 0001:0001322d       ?unget@?$c_string_character_source@_W@__crt_strtox@@QAEX_W@Z 1001422d f i libucrt:atox.obj
 0001:00013260       _strncmp                   10014260 f   libucrt:strncmp.obj
 0001:000132d8       _wcsncmp                   100142d8 f   libucrt:wcsncmp.obj
 0001:00013312       __free_base                10014312 f   libucrt:free_base.obj
 0001:0001368a       ___acrt_freeptd            1001468a f   libucrt:per_thread_data.obj
 0001:000136b6       ___acrt_getptd             100146b6 f   libucrt:per_thread_data.obj
 0001:00013773       ___acrt_getptd_head        10014773 f   libucrt:per_thread_data.obj
 0001:0001380d       ___acrt_getptd_noexit      1001480d f   libucrt:per_thread_data.obj
 0001:000138c2       ___acrt_initialize_ptd     100148c2 f   libucrt:per_thread_data.obj
 0001:000138ee       ___acrt_uninitialize_ptd   100148ee f   libucrt:per_thread_data.obj
 0001:00013908       __calloc_base              10014908 f   libucrt:calloc_base.obj
 0001:00013965       __malloc_base              10014965 f   libucrt:malloc_base.obj
 0001:000139b3       __msize_base               100149b3 f   libucrt:msize.obj
 0001:000139e6       __realloc_base             100149e6 f   libucrt:realloc_base.obj
 0001:00013be7       ___acrt_AppPolicyGetProcessTerminationMethodInternal@4 10014be7 f   libucrt:winapi_thunks.obj
 0001:00013c27       ___acrt_AreFileApisANSI@0  10014c27 f   libucrt:winapi_thunks.obj
 0001:00013c46       ___acrt_FlsAlloc@4         10014c46 f   libucrt:winapi_thunks.obj
 0001:00013c85       ___acrt_FlsFree@4          10014c85 f   libucrt:winapi_thunks.obj
 0001:00013cc4       ___acrt_FlsGetValue@4      10014cc4 f   libucrt:winapi_thunks.obj
 0001:00013d03       ___acrt_FlsSetValue@8      10014d03 f   libucrt:winapi_thunks.obj
 0001:00013d45       ___acrt_InitializeCriticalSectionEx@12 10014d45 f   libucrt:winapi_thunks.obj
 0001:00013d90       ___acrt_LCMapStringEx@36   10014d90 f   libucrt:winapi_thunks.obj
 0001:00013ded       ___acrt_LocaleNameToLCID@8 10014ded f   libucrt:winapi_thunks.obj
 0001:00013e1e       ___acrt_SetThreadStackGuarantee@4 10014e1e f   libucrt:winapi_thunks.obj
 0001:00013e59       ___acrt_initialize_winapi_thunks 10014e59 f   libucrt:winapi_thunks.obj
 0001:00013e84       ___acrt_uninitialize_winapi_thunks 10014e84 f   libucrt:winapi_thunks.obj
 0001:00013eba       ??$make_c_string_character_source@_WPAPA_W@__crt_strtox@@YA?AV?$c_string_character_source@_W@0@QB_WQAPA_W@Z 10014eba f i libucrt:strtox.obj
 0001:00013ed5       _wcstol                    10014ed5 f   libucrt:strtox.obj
 0001:00013eff       __mbtowc_l                 10014eff f   libucrt:mbtowc.obj
 0001:00014041       _mbtowc                    10015041 f   libucrt:mbtowc.obj
 0001:0001405b       _wcsnlen                   1001505b f   libucrt:strnlen.obj
 0001:0001420b       ___acrt_update_locale_info 1001520b f   libucrt:locale_update.obj
 0001:00014238       ___acrt_update_multibyte_info 10015238 f   libucrt:locale_update.obj
 0001:00014265       ?__acrt_fp_classify@@YA?AW4__acrt_fp_class@@ABN@Z 10015265 f i libucrt:cvt.obj
 0001:00014ab0       ___acrt_fp_format          10015ab0 f   libucrt:cvt.obj
 0001:00014beb       __fileno                   10015beb f   libucrt:fileno.obj
 0001:00014c12       ___acrt_initialize_stdio   10015c12 f   libucrt:_file.obj
 0001:00014cda       ___acrt_uninitialize_stdio 10015cda f   libucrt:_file.obj
 0001:00014d26       __lock_file                10015d26 f   libucrt:_file.obj
 0001:00014d3a       __unlock_file              10015d3a f   libucrt:_file.obj
 0001:00014d4e       __get_printf_count_output  10015d4e f   libucrt:printf_count_output.obj
 0001:00014dd1       ___acrt_set_locale_changed 10015dd1 f   libucrt:wsetlocale.obj
 0001:00014ddc       ___acrt_uninitialize_locale 10015ddc f   libucrt:wsetlocale.obj
 0001:00014f6d       ___acrt_initialize_lowio   10015f6d f   libucrt:ioinit.obj
 0001:00014fcd       ___acrt_uninitialize_lowio 10015fcd f   libucrt:ioinit.obj
 0001:00014ff9       ___acrt_initialize_locks   10015ff9 f   libucrt:locks.obj
 0001:0001503a       ___acrt_lock               1001603a f   libucrt:locks.obj
 0001:00015051       ___acrt_uninitialize_locks 10016051 f   libucrt:locks.obj
 0001:00015082       ___acrt_unlock             10016082 f   libucrt:locks.obj
 0001:00015099       ___acrt_get_process_end_policy 10016099 f   libucrt:win_policies.obj
 0001:00015263       ??$__acrt_mbs_to_wcs_cp@U__crt_win32_buffer_internal_dynamic_resizing@@@@YAHQBDAAV?$__crt_win32_buffer@_WU__crt_win32_buffer_internal_dynamic_resizing@@@@I@Z 10016263 f i libucrt:argv_wildcards.obj
 0001:00015777       ?__acrt_get_utf8_acp_compatibility_codepage@@YAIXZ 10016777 f i libucrt:argv_wildcards.obj
 0001:000157b6       ?_deallocate@?$__crt_win32_buffer@DU__crt_win32_buffer_internal_dynamic_resizing@@@@AAEXXZ 100167b6 f i libucrt:argv_wildcards.obj
 0001:000157b6       ?_deallocate@?$__crt_win32_buffer@_WU__crt_win32_buffer_internal_dynamic_resizing@@@@AAEXXZ 100167b6 f i libucrt:argv_wildcards.obj
 0001:000157d0       ?allocate@?$__crt_win32_buffer@DU__crt_win32_buffer_internal_dynamic_resizing@@@@QAEHI@Z 100167d0 f i libucrt:argv_wildcards.obj
 0001:0001580c       ?allocate@?$__crt_win32_buffer@_WU__crt_win32_buffer_internal_dynamic_resizing@@@@QAEHI@Z 1001680c f i libucrt:argv_wildcards.obj
 0001:0001584b       ?allocate@__crt_win32_buffer_internal_dynamic_resizing@@SAHQAPAXIABV__crt_win32_buffer_empty_debug_info@@@Z 1001684b f i libucrt:argv_wildcards.obj
 0001:000158f1       ___acrt_expand_narrow_argv_wildcards 100168f1 f   libucrt:argv_wildcards.obj
 0001:000159c3       ?allocate@?$__crt_win32_buffer@DU__crt_win32_buffer_no_resizing@@@@QAEHI@Z 100169c3 f i libucrt:getmodulefilenamea.obj
 0001:000159ea       ?set_to_nullptr@?$__crt_win32_buffer@DU__crt_win32_buffer_no_resizing@@@@QAEXXZ 100169ea f i libucrt:getmodulefilenamea.obj
 0001:000159fe       ___acrt_GetModuleFileNameA 100169fe f   libucrt:getmodulefilenamea.obj
 0001:00015fbd       ___acrt_initialize_multibyte 10016fbd f   libucrt:mbctype.obj
 0001:00016005       ___acrt_update_thread_multibyte_data 10017005 f   libucrt:mbctype.obj
 0001:00016018       __setmbcp_nolock           10017018 f   libucrt:mbctype.obj
 0001:000162e3       __ismbblead                100172e3 f   libucrt:ismbbyte.obj
 0001:000162fb       ___acrt_initialize_command_line 100172fb f   libucrt:argv_data.obj
 0001:00016314       ___acrt_MultiByteToWideChar 10017314 f   libucrt:multibytetowidechar.obj
 0001:00016390       ___acrt_WideCharToMultiByte 10017390 f   libucrt:widechartomultibyte.obj
 0001:00016474       ___dcrt_get_narrow_environment_from_os 10017474 f   libucrt:get_environment_from_os.obj
 0001:000164f8       ___acrt_initialize_heap    100174f8 f   libucrt:heap_handle.obj
 0001:00016509       ___acrt_uninitialize_heap  10017509 f   libucrt:heap_handle.obj
 0001:00016513       ___acrt_execute_initializers 10017513 f   libucrt:shared_initialization.obj
 0001:0001657b       ___acrt_execute_uninitializers 1001757b f   libucrt:shared_initialization.obj
 0001:0001667a       ___acrt_get_sigabrt_handler 1001767a f   libucrt:signal.obj
 0001:000166a1       ___acrt_initialize_signal_handlers 100176a1 f   libucrt:signal.obj
 0001:000166bf       ___fpecode                 100176bf f   libucrt:signal.obj
 0001:000166c8       _raise                     100176c8 f   libucrt:signal.obj
 0001:000168c3       ___acrt_has_user_matherr   100178c3 f   libucrt:matherr.obj
 0001:000168db       ___acrt_initialize_user_matherr 100178db f   libucrt:matherr.obj
 0001:000168ea       ___acrt_invoke_user_matherr 100178ea f   libucrt:matherr.obj
 0001:00016af9       ___acrt_stdio_flush_nolock 10017af9 f   libucrt:fflush.obj
 0001:00016b5e       __fflush_nolock            10017b5e f   libucrt:fflush.obj
 0001:00016ba6       __flushall                 10017ba6 f   libucrt:fflush.obj
 0001:00016baf       ___pctype_func             10017baf f   libucrt:ctype.obj
 0001:00016bd3       _iswctype                  10017bd3 f   libucrt:iswctype.obj
 0001:00016c3c       ___acrt_add_locale_ref     10017c3c f   libucrt:locale_refcounting.obj
 0001:00016cb9       ___acrt_free_locale        10017cb9 f   libucrt:locale_refcounting.obj
 0001:00016e01       ___acrt_locale_add_lc_time_reference 10017e01 f   libucrt:locale_refcounting.obj
 0001:00016e2a       ___acrt_locale_free_lc_time_if_unreferenced 10017e2a f   libucrt:locale_refcounting.obj
 0001:00016e5b       ___acrt_locale_release_lc_time_reference 10017e5b f   libucrt:locale_refcounting.obj
 0001:00016e84       ___acrt_release_locale_ref 10017e84 f   libucrt:locale_refcounting.obj
 0001:00016f05       ___acrt_update_thread_locale_data 10017f05 f   libucrt:locale_refcounting.obj
 0001:00016f86       __updatetlocinfoEx_nolock  10017f86 f   libucrt:locale_refcounting.obj
 0001:00016fd6       __query_new_mode           10017fd6 f   libucrt:new_mode.obj
 0001:0001702d       ___acrt_DownlevelLocaleNameToLCID 1001802d f   libucrt:lcidtoname_downlevel.obj
 0001:00017059       __isleadbyte_l             10018059 f i libucrt:_wctype.obj
 0001:000170bf       ?__mbrtowc_utf8@__crt_mbstring@@YAIPA_WPBDIPAU_Mbstatet@@@Z 100180bf f   libucrt:mbrtowc.obj
 0001:000170ff       ?__mbsrtowcs_utf8@__crt_mbstring@@YAIPA_WPAPBDIPAU_Mbstatet@@@Z 100180ff f   libucrt:mbrtowc.obj
 0001:000171fa       ?return_illegal_sequence@__crt_mbstring@@YAIPAU_Mbstatet@@@Z 100181fa f i libucrt:c32rtomb.obj
 0001:00017219       ___acrt_fp_strflt_to_string 10018219 f   libucrt:_fptostr.obj
 0001:000172e0       ?divide@__crt_strtox@@YA_KAAUbig_integer@1@ABU21@@Z 100182e0 f i libucrt:cfout.obj
 0001:00017778       ___acrt_fltout             10018778 f   libucrt:cfout.obj
 0001:00018ac2       __fcloseall                10019ac2 f   libucrt:closeall.obj
 0001:00018b6d       ___acrt_stdio_free_buffer_nolock 10019b6d f   libucrt:_freebuf.obj
 0001:00018bad       __isatty                   10019bad f   libucrt:isatty.obj
 0001:00018c03       ___acrt_locale_free_monetary 10019c03 f   libucrt:initmon.obj
 0001:00018d01       ___acrt_locale_free_numeric 10019d01 f   libucrt:initnum.obj
 0001:00018da2       ___acrt_locale_free_time   10019da2 f   libucrt:inittime.obj
 0001:00018e86       ___acrt_GetStringTypeA     10019e86 f   libucrt:getstringtypea.obj
 0001:00018f89       __freea_crt                10019f89 f i libucrt:getstringtypea.obj
 0001:00018fa9       ___acrt_lowio_create_handle_array 10019fa9 f   libucrt:osfinfo.obj
 0001:00019024       ___acrt_lowio_destroy_handle_array 1001a024 f   libucrt:osfinfo.obj
 0001:00019059       ___acrt_lowio_ensure_fh_exists 1001a059 f   libucrt:osfinfo.obj
 0001:000190f7       ___acrt_lowio_lock_fh      1001a0f7 f   libucrt:osfinfo.obj
 0001:0001911a       ___acrt_lowio_unlock_fh    1001a11a f   libucrt:osfinfo.obj
 0001:0001913d       __free_osfhnd              1001a13d f   libucrt:osfinfo.obj
 0001:000191ce       __get_osfhandle            1001a1ce f   libucrt:osfinfo.obj
 0001:00019280       _qsort                     1001a280 f   libucrt:qsort.obj
 0001:00019777       _strncpy_s                 1001a777 f   libucrt:strncpy_s.obj
 0001:00019790       _strpbrk                   1001a790 f   libucrt:strpbrk.obj
 0001:000197d0       __mbsdec                   1001a7d0 f   libucrt:mbsdec.obj
 0001:000197e7       __mbsdec_l                 1001a7e7 f   libucrt:mbsdec.obj
 0001:00019a5e       ___acrt_LCMapStringA       1001aa5e f   libucrt:lcmapstringa.obj
 0001:00019b58       __commit                   1001ab58 f   libucrt:commit.obj
 0001:0001a34e       __write                    1001b34e f   libucrt:write.obj
 0001:0001a440       __write_nolock             1001b440 f   libucrt:write.obj
 0001:0001a622       ___acrt_GetStringTypeW     1001b622 f   libucrt:getstringtypew.obj
 0001:0001a63b       ___ascii_wcsnicmp          1001b63b f   libucrt:wcsnicmp.obj
 0001:0001a68a       ?__mbrtoc32_utf8@__crt_mbstring@@YAIPA_UPBDIPAU_Mbstatet@@@Z 1001b68a f   libucrt:mbrtoc32.obj
 0001:0001a831       _fegetenv                  1001b831 f   libucrt:fegetenv.obj
 0001:0001a84e       _fesetenv                  1001b84e f   libucrt:fesetenv.obj
 0001:0001a899       _feholdexcept              1001b899 f   libucrt:feholdexcept.obj
 0001:0001a8f0       __CIlog10                  1001b8f0 f   libucrt:log10_impl.obj
 0001:0001a92b       __CIlog10_default          1001b92b f   libucrt:log10_impl.obj
 0001:0001a93f       __log10_default            1001b93f     libucrt:log10_impl.obj
 0001:0001aa00       _ceil                      1001ba00 f   libucrt:ceil_pentium4.obj
 0001:0001aa40       __ceil_pentium4            1001ba40 f   libucrt:ceil_pentium4.obj
 0001:0001ab99       __lseeki64_nolock          1001bb99 f   libucrt:lseek.obj
 0001:0001abb4       __fclose_nolock            1001bbb4 f   libucrt:fclose.obj
 0001:0001ac2b       _fclose                    1001bc2b f   libucrt:fclose.obj
 0001:0001acaf       __query_app_type           1001bcaf f   libucrt:report_runtime_error.obj
 0001:0001acb5       ___strncnt                 1001bcb5 f   libucrt:strncnt.obj
 0001:0001acd1       __putwch_nolock            1001bcd1 f   libucrt:putwch.obj
 0001:0001b010       ___acrt_fenv_get_control   1001c010 f   libucrt:_fenvutils.obj
 0001:0001b090       ___acrt_fenv_get_status    1001c090 f   libucrt:_fenvutils.obj
 0001:0001b148       ___acrt_fenv_set_control   1001c148 f   libucrt:_fenvutils.obj
 0001:0001b1b0       ___acrt_fenv_set_status    1001c1b0 f   libucrt:_fenvutils.obj
 0001:0001b2a7       __clearfp                  1001c2a7 f   libucrt:ieee87.obj
 0001:0001b385       ___acrt_initialize_sse2    1001c385 f   libucrt:mathfcns.obj
 0001:0001b3a0       __CIlog10_pentium4         1001c3a0 f   libucrt:log10_pentium4.obj
 0001:0001b3b8       __log10_pentium4           1001c3b8     libucrt:log10_pentium4.obj
 0001:0001b650       __fFEXP                    1001c650 f   libucrt:87tran.obj
 0001:0001b6a7       __rtinfpopse               1001c6a7     libucrt:87tran.obj
 0001:0001b6a9       __rtinfnpopse              1001c6a9     libucrt:87tran.obj
 0001:0001b6b9       __fFLN                     1001c6b9     libucrt:87tran.obj
 0001:0001b76e       __rtinfpop                 1001c76e     libucrt:87tran.obj
 0001:0001b770       __rtinfnpop                1001c770     libucrt:87tran.obj
 0001:0001b780       __rtforexpinf              1001c780 f   libucrt:87tran.obj
 0001:0001b78d       __ffexpm1                  1001c78d     libucrt:87tran.obj
 0001:0001b840       __trandisp1                1001c840 f   libucrt:87disp.obj
 0001:0001b8b5       __trandisp2                1001c8b5 f   libucrt:87disp.obj
 0001:0001b94f       __rttospopde               1001c94f     libucrt:87disp.obj
 0001:0001b954       __rttospop                 1001c954     libucrt:87disp.obj
 0001:0001b960       __rtnospop                 1001c960 f   libucrt:87disp.obj
 0001:0001b970       __rttosnpop                1001c970 f   libucrt:87disp.obj
 0001:0001b971       __rtnospopde               1001c971     libucrt:87disp.obj
 0001:0001b978       __rtzeropop                1001c978     libucrt:87disp.obj
 0001:0001b97a       __rtzeronpop               1001c97a     libucrt:87disp.obj
 0001:0001b980       __rtzerospop               1001c980 f   libucrt:87disp.obj
 0001:0001b98d       __rtonepop                 1001c98d     libucrt:87disp.obj
 0001:0001b990       __rtonenpop                1001c990 f   libucrt:87disp.obj
 0001:0001b9a0       __tosnan1                  1001c9a0 f   libucrt:87disp.obj
 0001:0001b9d0       __nosnan2                  1001c9d0 f   libucrt:87disp.obj
 0001:0001b9e0       __tosnan2                  1001c9e0 f   libucrt:87disp.obj
 0001:0001ba10       __nan2                     1001ca10 f   libucrt:87disp.obj
 0001:0001ba50       __rtindfpop                1001ca50 f   libucrt:87disp.obj
 0001:0001ba52       __rtindfnpop               1001ca52     libucrt:87disp.obj
 0001:0001ba63       __rttosnpopde              1001ca63     libucrt:87disp.obj
 0001:0001ba70       __rtatan2inf               1001ca70 f   libucrt:87disp.obj
 0001:0001ba8d       __rtchsifneg               1001ca8d     libucrt:87disp.obj
 0001:0001baa0       __twoToTOS                 1001caa0 f   libucrt:common.obj
 0001:0001bab5       __load_CW                  1001cab5 f   libucrt:common.obj
 0001:0001bacc       __convertTOStoQNaN         1001cacc f   libucrt:common.obj
 0001:0001bae5       __fload_withFB             1001cae5 f   libucrt:common.obj
 0001:0001bb28       __checkTOS_withFB          1001cb28 f   libucrt:common.obj
 0001:0001bb3e       __fast_exit                1001cb3e f   libucrt:common.obj
 0001:0001bb4b       __math_exit                1001cb4b f   libucrt:common.obj
 0001:0001bb75       __check_overflow_exit      1001cb75 f   libucrt:common.obj
 0001:0001bb89       __check_range_exit         1001cb89 f   libucrt:common.obj
 0001:0001bc30       __startTwoArgErrorHandling 1001cc30 f   libucrt:genexcep.obj
 0001:0001bc47       __startOneArgErrorHandling 1001cc47 f   libucrt:genexcep.obj
 0001:0001bc83       ___libm_error_support      1001cc83 f   libucrt:libm_error.obj
 0001:0001be77       __ceil_default             1001ce77 f   libucrt:ceil.obj
 0001:0001bfb8       __close                    1001cfb8 f   libucrt:close.obj
 0001:0001c045       __close_nolock             1001d045 f   libucrt:close.obj
 0001:0001c0e1       ?__acrt_stdio_free_stream@@YAXV__crt_stdio_stream@@@Z 1001d0e1 f   libucrt:stream.obj
 0001:0001c120       ___ascii_strnicmp          1001d120 f   libucrt:_strnicm.obj
 0001:0001c1a0       ___dcrt_lowio_ensure_console_output_initialized 1001d1a0 f   libucrt:initcon.obj
 0001:0001c1bf       ___dcrt_terminate_console_output 1001d1bf f   libucrt:initcon.obj
 0001:0001c1d6       ___dcrt_write_console      1001d1d6 f   libucrt:initcon.obj
 0001:0001c22b       __clrfp                    1001d22b f   libucrt:fpctrl.obj
 0001:0001c23c       __ctrlfp                   1001d23c f   libucrt:fpctrl.obj
 0001:0001c266       __set_statfp               1001d266 f   libucrt:fpctrl.obj
 0001:0001c2bf       __statfp                   1001d2bf f   libucrt:fpctrl.obj
 0001:0001c2cf       __d_inttype                1001d2cf f   libucrt:powhlp.obj
 0001:0001c337       __powhlp                   1001d337 f   libucrt:powhlp.obj
 0001:0001c462       __87except                 1001d462 f   libucrt:87except.obj
 0001:0001c56c       __frnd                     1001d56c f   libucrt:frnd.obj
 0001:0001c580       __errcode                  1001d580 f   libucrt:fpexcept.obj
 0001:0001c5b4       __except1                  1001d5b4 f   libucrt:fpexcept.obj
 0001:0001c682       __handle_exc               1001d682 f   libucrt:fpexcept.obj
 0001:0001c86d       __raise_exc                1001d86d f   libucrt:fpexcept.obj
 0001:0001c890       __raise_exc_ex             1001d890 f   libucrt:fpexcept.obj
 0001:0001cb86       __set_errno_from_matherr   1001db86 f   libucrt:fpexcept.obj
 0001:0001cbb5       __umatherr                 1001dbb5 f   libucrt:fpexcept.obj
 0001:0001cc55       __decomp                   1001dc55 f   libucrt:util.obj
 0001:0001cd27       __set_exp                  1001dd27 f   libucrt:util.obj
 0001:0001cd54       __sptype                   1001dd54 f   libucrt:util.obj
 0001:0001cdb2       __fpclass                  1001ddb2 f   libucrt:ieeemisc.obj
 0001:0001ce56       _IsProcessorFeaturePresent@4 1001de56 f   kernel32:KERNEL32.dll
 0001:0001ce60       __FindPESection            1001de60 f   LIBCMT:pesect.obj
 0001:0001ceb0       __IsNonwritableInCurrentImage 1001deb0 f   LIBCMT:pesect.obj
 0001:0001cf70       __ValidateImageBase        1001df70 f   LIBCMT:pesect.obj
 0001:0001cfa3       __EH_prolog3_catch         1001dfa3 f   LIBCMT:ehprolg3.obj
 0001:0001cfe0       __aulldvrm                 1001dfe0 f   LIBCMT:ulldvrm.obj
 0001:0001d080       __allmul                   1001e080 f   LIBCMT:llmul.obj
 0001:0001d0c0       __alldvrm                  1001e0c0 f   LIBCMT:lldvrm.obj
 0001:0001d1a0       __aullshr                  1001e1a0 f   LIBCMT:ullshr.obj
 0001:0001d1c0       __allshl                   1001e1c0 f   LIBCMT:llshl.obj
 0001:0001d1e0       __ftol2_sse                1001e1e0     LIBCMT:ftol2.obj
 0001:0001d1e0       __ftol2_sse_excpt          1001e1e0     LIBCMT:ftol2.obj
 0001:0001d1e0       __ftoi2                    1001e1e0 f   LIBCMT:ftol2.obj
 0001:0001d260       __ftoui2                   1001e260 f   LIBCMT:ftol2.obj
 0001:0001d310       __ftol2                    1001e310 f   LIBCMT:ftol2.obj
 0001:0001d3c0       __ftoul2                   1001e3c0 f   LIBCMT:ftol2.obj
 0001:0001d480       _strrchr                   1001e480 f   libvcruntime:strrchr.obj
 0001:0001d5c0       _strchr                    1001e5c0 f   libvcruntime:strchr.obj
 0001:0001d62e       ___from_strstr_to_strchr   1001e62e     libvcruntime:strchr.obj
 0001:0001d6eb       __filter_x86_sse2_floating_point_exception 1001e6eb f   LIBCMT:x86_exception_filter.obj
 0001:0001d6eb       __filter_x86_sse2_floating_point_exception_default 1001e6eb f   LIBCMT:x86_exception_filter.obj
 0002:00000000       __imp__RegQueryValueExW@24 1001f000     advapi32:ADVAPI32.dll
 0002:00000004       __imp__RegSetValueExW@24   1001f004     advapi32:ADVAPI32.dll
 0002:00000008       __imp__RegQueryInfoKeyW@48 1001f008     advapi32:ADVAPI32.dll
 0002:0000000c       __imp__RegOpenKeyExW@20    1001f00c     advapi32:ADVAPI32.dll
 0002:00000010       __imp__RegEnumKeyExW@32    1001f010     advapi32:ADVAPI32.dll
 0002:00000014       __imp__RegDeleteValueW@8   1001f014     advapi32:ADVAPI32.dll
 0002:00000018       __imp__RegDeleteKeyW@8     1001f018     advapi32:ADVAPI32.dll
 0002:0000001c       __imp__RegCreateKeyExW@36  1001f01c     advapi32:ADVAPI32.dll
 0002:00000020       __imp__RegCloseKey@4       1001f020     advapi32:ADVAPI32.dll
 0002:00000024       \177ADVAPI32_NULL_THUNK_DATA 1001f024     advapi32:ADVAPI32.dll
 0002:00000028       __imp__GetObjectW@12       1001f028     gdi32:GDI32.dll
 0002:0000002c       __imp__SelectObject@8      1001f02c     gdi32:GDI32.dll
 0002:00000030       __imp__DeleteObject@4      1001f030     gdi32:GDI32.dll
 0002:00000034       __imp__CreateCompatibleDC@4 1001f034     gdi32:GDI32.dll
 0002:00000038       __imp__BitBlt@36           1001f038     gdi32:GDI32.dll
 0002:0000003c       __imp__SetWindowOrgEx@16   1001f03c     gdi32:GDI32.dll
 0002:00000040       __imp__SetWindowExtEx@16   1001f040     gdi32:GDI32.dll
 0002:00000044       __imp__SetViewportOrgEx@16 1001f044     gdi32:GDI32.dll
 0002:00000048       __imp__LPtoDP@12           1001f048     gdi32:GDI32.dll
 0002:0000004c       __imp__SetMapMode@8        1001f04c     gdi32:GDI32.dll
 0002:00000050       __imp__SaveDC@4            1001f050     gdi32:GDI32.dll
 0002:00000054       __imp__RestoreDC@8         1001f054     gdi32:GDI32.dll
 0002:00000058       __imp__GetDeviceCaps@8     1001f058     gdi32:GDI32.dll
 0002:0000005c       __imp__DeleteMetaFile@4    1001f05c     gdi32:GDI32.dll
 0002:00000060       __imp__DeleteDC@4          1001f060     gdi32:GDI32.dll
 0002:00000064       __imp__CreateRectRgnIndirect@4 1001f064     gdi32:GDI32.dll
 0002:00000068       __imp__CreateMetaFileW@4   1001f068     gdi32:GDI32.dll
 0002:0000006c       __imp__CreateDCW@16        1001f06c     gdi32:GDI32.dll
 0002:00000070       __imp__CloseMetaFile@4     1001f070     gdi32:GDI32.dll
 0002:00000074       \177GDI32_NULL_THUNK_DATA  1001f074     gdi32:GDI32.dll
 0002:00000078       __imp__CloseHandle@4       1001f078     kernel32:KERNEL32.dll
 0002:0000007c       __imp__SetEvent@4          1001f07c     kernel32:KERNEL32.dll
 0002:00000080       __imp__CreateMutexW@12     1001f080     kernel32:KERNEL32.dll
 0002:00000084       __imp__CreateEventW@16     1001f084     kernel32:KERNEL32.dll
 0002:00000088       __imp__GetCurrentProcessId@0 1001f088     kernel32:KERNEL32.dll
 0002:0000008c       __imp__CreateFileW@28      1001f08c     kernel32:KERNEL32.dll
 0002:00000090       __imp__GetConsoleMode@8    1001f090     kernel32:KERNEL32.dll
 0002:00000094       __imp__GetConsoleCP@0      1001f094     kernel32:KERNEL32.dll
 0002:00000098       __imp__WriteFile@20        1001f098     kernel32:KERNEL32.dll
 0002:0000009c       __imp__FlushFileBuffers@4  1001f09c     kernel32:KERNEL32.dll
 0002:000000a0       __imp__SetStdHandle@8      1001f0a0     kernel32:KERNEL32.dll
 0002:000000a4       __imp__GetStringTypeW@16   1001f0a4     kernel32:KERNEL32.dll
 0002:000000a8       __imp__SetFilePointerEx@20 1001f0a8     kernel32:KERNEL32.dll
 0002:000000ac       __imp__FreeEnvironmentStringsW@4 1001f0ac     kernel32:KERNEL32.dll
 0002:000000b0       __imp__GetEnvironmentStringsW@0 1001f0b0     kernel32:KERNEL32.dll
 0002:000000b4       __imp__lstrcmpiW@8         1001f0b4     kernel32:KERNEL32.dll
 0002:000000b8       __imp__GetCommandLineA@0   1001f0b8     kernel32:KERNEL32.dll
 0002:000000bc       __imp__GetCPInfo@8         1001f0bc     kernel32:KERNEL32.dll
 0002:000000c0       __imp__GetOEMCP@0          1001f0c0     kernel32:KERNEL32.dll
 0002:000000c4       __imp__GetACP@0            1001f0c4     kernel32:KERNEL32.dll
 0002:000000c8       __imp__IsValidCodePage@4   1001f0c8     kernel32:KERNEL32.dll
 0002:000000cc       __imp__FindNextFileW@8     1001f0cc     kernel32:KERNEL32.dll
 0002:000000d0       __imp__FindFirstFileExW@24 1001f0d0     kernel32:KERNEL32.dll
 0002:000000d4       __imp__FindClose@4         1001f0d4     kernel32:KERNEL32.dll
 0002:000000d8       __imp__GetFileType@4       1001f0d8     kernel32:KERNEL32.dll
 0002:000000dc       __imp__GetStdHandle@4      1001f0dc     kernel32:KERNEL32.dll
 0002:000000e0       __imp__LCMapStringW@24     1001f0e0     kernel32:KERNEL32.dll
 0002:000000e4       __imp__HeapReAlloc@16      1001f0e4     kernel32:KERNEL32.dll
 0002:000000e8       __imp__HeapSize@12         1001f0e8     kernel32:KERNEL32.dll
 0002:000000ec       __imp__MulDiv@12           1001f0ec     kernel32:KERNEL32.dll
 0002:000000f0       __imp__GlobalLock@4        1001f0f0     kernel32:KERNEL32.dll
 0002:000000f4       __imp__GlobalUnlock@4      1001f0f4     kernel32:KERNEL32.dll
 0002:000000f8       __imp__GlobalAlloc@8       1001f0f8     kernel32:KERNEL32.dll
 0002:000000fc       __imp__FindResourceW@12    1001f0fc     kernel32:KERNEL32.dll
 0002:00000100       __imp__SizeofResource@8    1001f100     kernel32:KERNEL32.dll
 0002:00000104       __imp__LoadResource@8      1001f104     kernel32:KERNEL32.dll
 0002:00000108       __imp__LoadLibraryExW@12   1001f108     kernel32:KERNEL32.dll
 0002:0000010c       __imp__GetProcAddress@8    1001f10c     kernel32:KERNEL32.dll
 0002:00000110       __imp__GetModuleHandleW@4  1001f110     kernel32:KERNEL32.dll
 0002:00000114       __imp__GetModuleFileNameW@12 1001f114     kernel32:KERNEL32.dll
 0002:00000118       __imp__FreeLibrary@4       1001f118     kernel32:KERNEL32.dll
 0002:0000011c       __imp__DisableThreadLibraryCalls@4 1001f11c     kernel32:KERNEL32.dll
 0002:00000120       __imp__GetCurrentThreadId@0 1001f120     kernel32:KERNEL32.dll
 0002:00000124       __imp__Sleep@4             1001f124     kernel32:KERNEL32.dll
 0002:00000128       __imp__WaitForSingleObject@8 1001f128     kernel32:KERNEL32.dll
 0002:0000012c       __imp__ReleaseMutex@4      1001f12c     kernel32:KERNEL32.dll
 0002:00000130       __imp__ResetEvent@4        1001f130     kernel32:KERNEL32.dll
 0002:00000134       __imp__EnterCriticalSection@4 1001f134     kernel32:KERNEL32.dll
 0002:00000138       __imp__LeaveCriticalSection@4 1001f138     kernel32:KERNEL32.dll
 0002:0000013c       __imp__SetLastError@4      1001f13c     kernel32:KERNEL32.dll
 0002:00000140       __imp__EncodePointer@4     1001f140     kernel32:KERNEL32.dll
 0002:00000144       __imp__DeleteCriticalSection@4 1001f144     kernel32:KERNEL32.dll
 0002:00000148       __imp__InitializeCriticalSectionEx@12 1001f148     kernel32:KERNEL32.dll
 0002:0000014c       __imp__GetLastError@0      1001f14c     kernel32:KERNEL32.dll
 0002:00000150       __imp__RaiseException@16   1001f150     kernel32:KERNEL32.dll
 0002:00000154       __imp__DecodePointer@4     1001f154     kernel32:KERNEL32.dll
 0002:00000158       __imp__WideCharToMultiByte@32 1001f158     kernel32:KERNEL32.dll
 0002:0000015c       __imp__GetCommandLineW@0   1001f15c     kernel32:KERNEL32.dll
 0002:00000160       __imp__MultiByteToWideChar@24 1001f160     kernel32:KERNEL32.dll
 0002:00000164       __imp__WriteConsoleW@20    1001f164     kernel32:KERNEL32.dll
 0002:00000168       __imp__GetModuleHandleExW@12 1001f168     kernel32:KERNEL32.dll
 0002:0000016c       __imp__ExitProcess@4       1001f16c     kernel32:KERNEL32.dll
 0002:00000170       __imp__VirtualQuery@12     1001f170     kernel32:KERNEL32.dll
 0002:00000174       __imp__VirtualProtect@16   1001f174     kernel32:KERNEL32.dll
 0002:00000178       __imp__GetSystemInfo@4     1001f178     kernel32:KERNEL32.dll
 0002:0000017c       __imp__TlsFree@4           1001f17c     kernel32:KERNEL32.dll
 0002:00000180       __imp__TlsSetValue@8       1001f180     kernel32:KERNEL32.dll
 0002:00000184       __imp__TlsGetValue@4       1001f184     kernel32:KERNEL32.dll
 0002:00000188       __imp__TlsAlloc@0          1001f188     kernel32:KERNEL32.dll
 0002:0000018c       __imp__InterlockedFlushSList@4 1001f18c     kernel32:KERNEL32.dll
 0002:00000190       __imp__RtlUnwind@16        1001f190     kernel32:KERNEL32.dll
 0002:00000194       __imp__LoadLibraryExA@12   1001f194     kernel32:KERNEL32.dll
 0002:00000198       __imp__VirtualFree@12      1001f198     kernel32:KERNEL32.dll
 0002:0000019c       __imp__VirtualAlloc@16     1001f19c     kernel32:KERNEL32.dll
 0002:000001a0       __imp__FlushInstructionCache@12 1001f1a0     kernel32:KERNEL32.dll
 0002:000001a4       __imp__InterlockedPushEntrySList@8 1001f1a4     kernel32:KERNEL32.dll
 0002:000001a8       __imp__InterlockedPopEntrySList@4 1001f1a8     kernel32:KERNEL32.dll
 0002:000001ac       __imp__GetProcessHeap@0    1001f1ac     kernel32:KERNEL32.dll
 0002:000001b0       __imp__HeapFree@12         1001f1b0     kernel32:KERNEL32.dll
 0002:000001b4       __imp__HeapAlloc@12        1001f1b4     kernel32:KERNEL32.dll
 0002:000001b8       __imp__OutputDebugStringW@4 1001f1b8     kernel32:KERNEL32.dll
 0002:000001bc       __imp__InitializeSListHead@4 1001f1bc     kernel32:KERNEL32.dll
 0002:000001c0       __imp__GetSystemTimeAsFileTime@4 1001f1c0     kernel32:KERNEL32.dll
 0002:000001c4       __imp__QueryPerformanceCounter@4 1001f1c4     kernel32:KERNEL32.dll
 0002:000001c8       __imp__GetStartupInfoW@4   1001f1c8     kernel32:KERNEL32.dll
 0002:000001cc       __imp__IsDebuggerPresent@0 1001f1cc     kernel32:KERNEL32.dll
 0002:000001d0       __imp__IsProcessorFeaturePresent@4 1001f1d0     kernel32:KERNEL32.dll
 0002:000001d4       __imp__TerminateProcess@8  1001f1d4     kernel32:KERNEL32.dll
 0002:000001d8       __imp__GetCurrentProcess@0 1001f1d8     kernel32:KERNEL32.dll
 0002:000001dc       __imp__SetUnhandledExceptionFilter@4 1001f1dc     kernel32:KERNEL32.dll
 0002:000001e0       __imp__UnhandledExceptionFilter@4 1001f1e0     kernel32:KERNEL32.dll
 0002:000001e4       __imp__InitializeCriticalSectionAndSpinCount@8 1001f1e4     kernel32:KERNEL32.dll
 0002:000001e8       __imp__WaitForSingleObjectEx@12 1001f1e8     kernel32:KERNEL32.dll
 0002:000001ec       \177KERNEL32_NULL_THUNK_DATA 1001f1ec     kernel32:KERNEL32.dll
 0002:000001f0       __imp__OleCreatePropertyFrame@44 1001f1f0     oleaut32:OLEAUT32.dll
 0002:000001f4       __imp__UnRegisterTypeLib@20 1001f1f4     oleaut32:OLEAUT32.dll
 0002:000001f8       __imp__RegisterTypeLib@12  1001f1f8     oleaut32:OLEAUT32.dll
 0002:000001fc       __imp__LoadRegTypeLib@20   1001f1fc     oleaut32:OLEAUT32.dll
 0002:00000200       __imp__LoadTypeLib@8       1001f200     oleaut32:OLEAUT32.dll
 0002:00000204       __imp__VarUI4FromStr@16    1001f204     oleaut32:OLEAUT32.dll
 0002:00000208       __imp__VariantInit@4       1001f208     oleaut32:OLEAUT32.dll
 0002:0000020c       __imp__SysAllocStringByteLen@8 1001f20c     oleaut32:OLEAUT32.dll
 0002:00000210       __imp__SysStringByteLen@4  1001f210     oleaut32:OLEAUT32.dll
 0002:00000214       __imp__VariantChangeType@16 1001f214     oleaut32:OLEAUT32.dll
 0002:00000218       __imp__VariantClear@4      1001f218     oleaut32:OLEAUT32.dll
 0002:0000021c       __imp__SysStringLen@4      1001f21c     oleaut32:OLEAUT32.dll
 0002:00000220       __imp__SysFreeString@4     1001f220     oleaut32:OLEAUT32.dll
 0002:00000224       __imp__SysAllocStringLen@8 1001f224     oleaut32:OLEAUT32.dll
 0002:00000228       __imp__SysAllocString@4    1001f228     oleaut32:OLEAUT32.dll
 0002:0000022c       \177OLEAUT32_NULL_THUNK_DATA 1001f22c     oleaut32:OLEAUT32.dll
 0002:00000230       __imp__UnregisterClassW@8  1001f230     user32:USER32.dll
 0002:00000234       __imp__PostMessageW@16     1001f234     user32:USER32.dll
 0002:00000238       __imp__DefWindowProcW@16   1001f238     user32:USER32.dll
 0002:0000023c       __imp__CallWindowProcW@20  1001f23c     user32:USER32.dll
 0002:00000240       __imp__RegisterClassExW@4  1001f240     user32:USER32.dll
 0002:00000244       __imp__GetClassInfoExW@12  1001f244     user32:USER32.dll
 0002:00000248       __imp__CreateWindowExW@48  1001f248     user32:USER32.dll
 0002:0000024c       __imp__IsWindow@4          1001f24c     user32:USER32.dll
 0002:00000250       __imp__IsChild@8           1001f250     user32:USER32.dll
 0002:00000254       __imp__DestroyWindow@4     1001f254     user32:USER32.dll
 0002:00000258       __imp__ShowWindow@8        1001f258     user32:USER32.dll
 0002:0000025c       __imp__SetWindowPos@28     1001f25c     user32:USER32.dll
 0002:00000260       __imp__CharNextW@4         1001f260     user32:USER32.dll
 0002:00000264       __imp__SetFocus@4          1001f264     user32:USER32.dll
 0002:00000268       __imp__LoadBitmapW@8       1001f268     user32:USER32.dll
 0002:0000026c       __imp__RegisterClassW@4    1001f26c     user32:USER32.dll
 0002:00000270       __imp__PeekMessageW@20     1001f270     user32:USER32.dll
 0002:00000274       __imp__LoadCursorW@8       1001f274     user32:USER32.dll
 0002:00000278       __imp__GetParent@4         1001f278     user32:USER32.dll
 0002:0000027c       __imp__SetWindowLongW@12   1001f27c     user32:USER32.dll
 0002:00000280       __imp__GetWindowLongW@8    1001f280     user32:USER32.dll
 0002:00000284       __imp__PtInRect@12         1001f284     user32:USER32.dll
 0002:00000288       __imp__EqualRect@8         1001f288     user32:USER32.dll
 0002:0000028c       __imp__OffsetRect@12       1001f28c     user32:USER32.dll
 0002:00000290       __imp__UnionRect@12        1001f290     user32:USER32.dll
 0002:00000294       __imp__IntersectRect@12    1001f294     user32:USER32.dll
 0002:00000298       __imp__GetClientRect@8     1001f298     user32:USER32.dll
 0002:0000029c       __imp__InvalidateRect@12   1001f29c     user32:USER32.dll
 0002:000002a0       __imp__SetWindowRgn@12     1001f2a0     user32:USER32.dll
 0002:000002a4       __imp__EndPaint@8          1001f2a4     user32:USER32.dll
 0002:000002a8       __imp__BeginPaint@8        1001f2a8     user32:USER32.dll
 0002:000002ac       __imp__ReleaseDC@8         1001f2ac     user32:USER32.dll
 0002:000002b0       __imp__GetDC@4             1001f2b0     user32:USER32.dll
 0002:000002b4       __imp__GetKeyState@4       1001f2b4     user32:USER32.dll
 0002:000002b8       __imp__GetFocus@0          1001f2b8     user32:USER32.dll
 0002:000002bc       \177USER32_NULL_THUNK_DATA 1001f2bc     user32:USER32.dll
 0002:000002c0       __imp__StringFromGUID2@12  1001f2c0     ole32:ole32.dll
 0002:000002c4       __imp__CoTaskMemAlloc@4    1001f2c4     ole32:ole32.dll
 0002:000002c8       __imp__CoTaskMemRealloc@8  1001f2c8     ole32:ole32.dll
 0002:000002cc       __imp__CoTaskMemFree@4     1001f2cc     ole32:ole32.dll
 0002:000002d0       __imp__ReadClassStm@8      1001f2d0     ole32:ole32.dll
 0002:000002d4       __imp__WriteClassStm@8     1001f2d4     ole32:ole32.dll
 0002:000002d8       __imp__CreateDataAdviseHolder@4 1001f2d8     ole32:ole32.dll
 0002:000002dc       __imp__OleSaveToStream@8   1001f2dc     ole32:ole32.dll
 0002:000002e0       __imp__CreateOleAdviseHolder@4 1001f2e0     ole32:ole32.dll
 0002:000002e4       __imp__OleRegGetUserType@12 1001f2e4     ole32:ole32.dll
 0002:000002e8       __imp__OleRegGetMiscStatus@12 1001f2e8     ole32:ole32.dll
 0002:000002ec       __imp__OleRegEnumVerbs@8   1001f2ec     ole32:ole32.dll
 0002:000002f0       __imp__CLSIDFromProgID@8   1001f2f0     ole32:ole32.dll
 0002:000002f4       __imp__CoCreateInstance@20 1001f2f4     ole32:ole32.dll
 0002:000002f8       \177ole32_NULL_THUNK_DATA  1001f2f8     ole32:ole32.dll
 0002:000002fc       ___guard_check_icall_fptr  1001f2fc     LIBCMT:guard_support.obj
 0002:00000300       ___xc_a                    1001f300     LIBCMT:initializers.obj
 0002:00000318       ___xc_z                    1001f318     LIBCMT:initializers.obj
 0002:0000031c       ___xi_a                    1001f31c     LIBCMT:initializers.obj
 0002:00000324       ___acrt_stdio_initializer  1001f324     libucrt:stdio_initializer.obj
 0002:00000328       ___acrt_multibyte_initializer 1001f328     libucrt:multibyte_initializer.obj
 0002:0000032c       ___acrt_tran_sse2_initializer 1001f32c     libucrt:sse2_initializer.obj
 0002:00000330       ___xi_z                    1001f330     LIBCMT:initializers.obj
 0002:00000334       ___xl_a                    1001f334     LIBCMT:tlssup.obj
 0002:00000338       ___xl_z                    1001f338     LIBCMT:tlssup.obj
 0002:0000033c       ___xp_a                    1001f33c     LIBCMT:initializers.obj
 0002:00000340       ___acrt_locale_terminator  1001f340     libucrt:locale_initializer.obj
 0002:00000344       ___dcrt_console_output_terminator 1001f344     libucrt:console_output_initializer.obj
 0002:00000348       ___acrt_stdio_terminator   1001f348     libucrt:stdio_initializer.obj
 0002:0000034c       ___xp_z                    1001f34c     LIBCMT:initializers.obj
 0002:00000350       ___xt_a                    1001f350     LIBCMT:initializers.obj
 0002:00000354       ___xt_z                    1001f354     LIBCMT:initializers.obj
 0002:00000360       ??_C@_13HADIAKP@?$AAS@     1001f360     OposVariant.obj
 0002:00000364       ??_C@_13LHMFKAAD@?$AAM@    1001f364     OposVariant.obj
 0002:00000368       ??_C@_13MKMNOPIJ@?$AAD@    1001f368     OposVariant.obj
 0002:0000036c       ??_C@_13OPKGLAFF@?$AAB@    1001f36c     OposVariant.obj
 0002:00000370       ??_C@_17LLMMEOJD@?$AAV?$AAa?$AAl@ 1001f370     OposVariant.obj
 0002:00000378       ??_C@_1BI@JFAIJMHL@?$AAF?$AAo?$AAr?$AAc?$AAe?$AAR?$AAe?$AAm?$AAo?$AAv?$AAe@ 1001f378     OposVariant.obj
 0002:00000390       ??_C@_1BC@GCKHIPE@?$AAN?$AAo?$AAR?$AAe?$AAm?$AAo?$AAv?$AAe@ 1001f390     OposVariant.obj
 0002:000003a4       ??_C@_1O@JDLOHAN@?$AAD?$AAe?$AAl?$AAe?$AAt?$AAe@ 1001f3a4     OposVariant.obj
 0002:000003b4       ??_C@_11LOCGONAA@@         1001f3b4     OposVariant.obj
 0002:000003b8       ??_7CComClassFactory@ATL@@6B@ 1001f3b8     POSPower.obj
 0002:000003d0       ?_entries@?1??_GetEntries@CComClassFactory@ATL@@SGPBU_ATL_INTMAP_ENTRY@3@XZ@4QBU43@B 1001f3d0     POSPower.obj
 0002:000003e8       __GUID_00000001_0000_0000_c000_000000000046 1001f3e8     POSPower.obj
 0002:000003f8       _IID_IOPOSPOSPower_1_5     1001f3f8     POSPower.obj
 0002:00000408       _IID_IOPOSPOSPower_1_8     1001f408     POSPower.obj
 0002:00000418       _IID_IOPOSPOSPower_1_9     1001f418     POSPower.obj
 0002:00000428       _IID_IOPOSPOSPower         1001f428     POSPower.obj
 0002:00000438       _LIBID_OposPOSPower_CCO    1001f438     POSPower.obj
 0002:00000448       _DIID__IOPOSPOSPowerEvents 1001f448     POSPower.obj
 0002:00000458       _CLSID_OPOSPOSPower        1001f458     POSPower.obj
 0002:00000468       __GUID_00000114_0000_0000_c000_000000000046 1001f468     POSPower.obj
 0002:00000478       ??_C@_1BK@BIGILECK@?$AAA?$AAd?$AAv?$AAa?$AAp?$AAi?$AA3?$AA2?$AA?4?$AAd?$AAl?$AAl@ 1001f478     POSPower.obj
 0002:00000494       ??_C@_0BI@MNCFCPFK@RegCreateKeyTransactedW@ 1001f494     POSPower.obj
 0002:000004ac       __GUID_b196b287_bab4_101a_b69c_00aa00341d07 1001f4ac     POSPower.obj
 0002:000004bc       __GUID_b196b285_bab4_101a_b69c_00aa00341d07 1001f4bc     POSPower.obj
 0002:000004cc       __GUID_a6bc3ac0_dbaa_11ce_9de3_00aa004bb851 1001f4cc     POSPower.obj
 0002:000004dc       __GUID_0000010c_0000_0000_c000_000000000046 1001f4dc     POSPower.obj
 0002:000004ec       __GUID_00000146_0000_0000_c000_000000000046 1001f4ec     POSPower.obj
 0002:00000500       ?_entries@?1??_GetEntries@COPOSPOSPower@@SGPBU_ATL_INTMAP_ENTRY@ATL@@XZ@4QBU34@B 1001f500     POSPower.obj
 0002:00000638       __GUID_cf51ed10_62fe_11cf_bf86_00a0c9034836 1001f638     POSPower.obj
 0002:00000648       __GUID_0000010a_0000_0000_c000_000000000046 1001f648     POSPower.obj
 0002:00000658       __GUID_b196b283_bab4_101a_b69c_00aa00341d07 1001f658     POSPower.obj
 0002:00000668       __GUID_cb5bdc81_93c1_11cf_8f20_00805f2cd064 1001f668     POSPower.obj
 0002:00000678       ?pPropMap@?1??GetPropertyMap@COPOSPOSPower@@SAPBUATL_PROPMAP_ENTRY@ATL@@XZ@4QBU34@B 1001f678     POSPower.obj
 0002:000006e4       ??_C@_17DGDADEHL@?$AA_?$AAc?$AAx@ 1001f6e4     POSPower.obj
 0002:000006ec       ??_C@_17IOIMFDBO@?$AA_?$AAc?$AAy@ 1001f6ec     POSPower.obj
 0002:000006f4       ??_7CComModule@ATL@@6B@    1001f6f4     POSPower.obj
 0002:0000071c       __GUID_922eada0_3424_11cf_b670_00aa004cd6d8 1001f71c     POSPower.obj
 0002:0000072c       __GUID_9c2cad80_3424_11cf_b670_00aa004cd6d8 1001f72c     POSPower.obj
 0002:0000073c       __GUID_00000119_0000_0000_c000_000000000046 1001f73c     POSPower.obj
 0002:0000074c       __GUID_b196b289_bab4_101a_b69c_00aa00341d07 1001f74c     POSPower.obj
 0002:0000075c       ??_7?$CComObjectCached@VCComClassFactory@ATL@@@ATL@@6B@ 1001f75c     POSPower.obj
 0002:00000774       ??_C@_1CE@PGFMOFKI@?$AAS?$AAt?$AAa?$AAt?$AAu?$AAs?$AAU?$AAp?$AAd?$AAa?$AAt?$AAe?$AAE?$AAv?$AAe@ 1001f774     POSPower.obj
 0002:00000798       ??_C@_1BM@CBGEBBBJ@?$AAD?$AAi?$AAr?$AAe?$AAc?$AAt?$AAI?$AAO?$AAE?$AAv?$AAe?$AAn?$AAt@ 1001f798     POSPower.obj
 0002:000007b4       __GUID_00000000_0000_0000_c000_000000000046 1001f7b4     POSPower.obj
 0002:000007c4       __GUID_b196b286_bab4_101a_b69c_00aa00341d07 1001f7c4     POSPower.obj
 0002:000007d4       __GUID_00020400_0000_0000_c000_000000000046 1001f7d4     POSPower.obj
 0002:000007e4       __GUID_00000117_0000_0000_c000_000000000046 1001f7e4     POSPower.obj
 0002:000007f4       ??_C@_1BC@ENICKDH@?$AAC?$AAo?$AAn?$AAt?$AAe?$AAn?$AAt?$AAs@ 1001f7f4     POSPower.obj
 0002:00000808       ??_7?$CComObject@V?$CComEnum@UIEnumConnectionPoints@@$1?_GUID_b196b285_bab4_101a_b69c_00aa00341d07@@3U__s_GUID@@BPAUIConnectionPoint@@V?$_CopyInterface@UIConnectionPoint@@@ATL@@VCComSingleThreadModel@6@@ATL@@@ATL@@6B@ 1001f808     POSPower.obj
 0002:00000828       ??_C@_1M@KANJNLFF@?$AAC?$AAL?$AAS?$AAI?$AAD@ 1001f828     POSPower.obj
 0002:00000834       ??_C@_1M@EJNEECMJ@?$AAA?$AAp?$AAp?$AAI?$AAD@ 1001f834     POSPower.obj
 0002:00000840       __GUID_0000010e_0000_0000_c000_000000000046 1001f840     POSPower.obj
 0002:00000850       __GUID_b196b288_bab4_101a_b69c_00aa00341d07 1001f850     POSPower.obj
 0002:00000860       ?rgszNeverDelete@CRegParser@ATL@@1QBQB_WB 1001f860     POSPower.obj
 0002:00000890       ??_7CRegObject@ATL@@6B@    1001f890     POSPower.obj
 0002:000008a8       __GUID_00000113_0000_0000_c000_000000000046 1001f8a8     POSPower.obj
 0002:000008b8       __GUID_1c2056cc_5ef4_101b_8bc8_00aa003e3b29 1001f8b8     POSPower.obj
 0002:000008c8       ??_C@_1CK@OEKPKBNA@?$AAC?$AAo?$AAm?$AAp?$AAo?$AAn?$AAe?$AAn?$AAt?$AA?5?$AAC?$AAa?$AAt?$AAe?$AAg@ 1001f8c8     POSPower.obj
 0002:000008f4       ??_C@_1BC@NKMMNMGL@?$AAF?$AAi?$AAl?$AAe?$AAT?$AAy?$AAp?$AAe@ 1001f8f4     POSPower.obj
 0002:00000908       ??_C@_1BE@EKPAFMCP@?$AAI?$AAn?$AAt?$AAe?$AAr?$AAf?$AAa?$AAc?$AAe@ 1001f908     POSPower.obj
 0002:0000091c       ??_C@_1BC@MAICEHGI@?$AAH?$AAa?$AAr?$AAd?$AAw?$AAa?$AAr?$AAe@ 1001f91c     POSPower.obj
 0002:00000930       ??_C@_19HLLLM@?$AAM?$AAi?$AAm?$AAe@ 1001f930     POSPower.obj
 0002:0000093c       ??_C@_17OMAOINJK@?$AAS?$AAA?$AAM@ 1001f93c     POSPower.obj
 0002:00000944       ??_C@_1BC@IBECJAAI@?$AAS?$AAE?$AAC?$AAU?$AAR?$AAI?$AAT?$AAY@ 1001f944     POSPower.obj
 0002:00000958       ??_C@_1O@GBFINDKL@?$AAS?$AAY?$AAS?$AAT?$AAE?$AAM@ 1001f958     POSPower.obj
 0002:00000968       ??_C@_1BC@EAHCMADO@?$AAS?$AAo?$AAf?$AAt?$AAw?$AAa?$AAr?$AAe@ 1001f968     POSPower.obj
 0002:0000097c       ??_C@_1BA@JIHHIEDE@?$AAT?$AAy?$AAp?$AAe?$AAL?$AAi?$AAb@ 1001f97c     POSPower.obj
 0002:00000990       ?map@?1??HKeyFromString@CRegParser@ATL@@KAPAUHKEY__@@PA_W@Z@4QBUkeymap@?1??123@KAPAU4@0@Z@B 1001f990     POSPower.obj
 0002:00000a00       ??_C@_19NCHLBIN@?$AAH?$AAK?$AAC?$AAR@ 1001fa00     POSPower.obj
 0002:00000a0c       ??_C@_19JAPAIJDE@?$AAH?$AAK?$AAC?$AAU@ 1001fa0c     POSPower.obj
 0002:00000a18       ??_C@_19PEALEEJB@?$AAH?$AAK?$AAL?$AAM@ 1001fa18     POSPower.obj
 0002:00000a24       ??_C@_17PJOJPMPB@?$AAH?$AAK?$AAU@ 1001fa24     POSPower.obj
 0002:00000a2c       ??_C@_19PNBHMJPL@?$AAH?$AAK?$AAP?$AAD@ 1001fa2c     POSPower.obj
 0002:00000a38       ??_C@_19GFFAIJHG@?$AAH?$AAK?$AAD?$AAD@ 1001fa38     POSPower.obj
 0002:00000a44       ??_C@_19OFICIBHH@?$AAH?$AAK?$AAC?$AAC@ 1001fa44     POSPower.obj
 0002:00000a50       ??_C@_1CE@PACHPJFI@?$AAH?$AAK?$AAE?$AAY?$AA_?$AAC?$AAL?$AAA?$AAS?$AAS?$AAE?$AAS?$AA_?$AAR?$AAO@ 1001fa50     POSPower.obj
 0002:00000a74       ??_C@_1CE@HLHNCBPM@?$AAH?$AAK?$AAE?$AAY?$AA_?$AAC?$AAU?$AAR?$AAR?$AAE?$AAN?$AAT?$AA_?$AAU?$AAS@ 1001fa74     POSPower.obj
 0002:00000a98       ??_C@_1CG@GFBEANJL@?$AAH?$AAK?$AAE?$AAY?$AA_?$AAL?$AAO?$AAC?$AAA?$AAL?$AA_?$AAM?$AAA?$AAC?$AAH@ 1001fa98     POSPower.obj
 0002:00000ac0       ??_C@_1BG@BGODANIO@?$AAH?$AAK?$AAE?$AAY?$AA_?$AAU?$AAS?$AAE?$AAR?$AAS@ 1001fac0     POSPower.obj
 0002:00000ad8       ??_C@_1CM@KHNNAOIC@?$AAH?$AAK?$AAE?$AAY?$AA_?$AAP?$AAE?$AAR?$AAF?$AAO?$AAR?$AAM?$AAA?$AAN?$AAC@ 1001fad8     POSPower.obj
 0002:00000b04       ??_C@_1BM@HAGMMHIA@?$AAH?$AAK?$AAE?$AAY?$AA_?$AAD?$AAY?$AAN?$AA_?$AAD?$AAA?$AAT?$AAA@ 1001fb04     POSPower.obj
 0002:00000b20       ??_C@_1CI@BBJOACGG@?$AAH?$AAK?$AAE?$AAY?$AA_?$AAC?$AAU?$AAR?$AAR?$AAE?$AAN?$AAT?$AA_?$AAC?$AAO@ 1001fb20     POSPower.obj
 0002:00000b48       __GUID_00000112_0000_0000_c000_000000000046 1001fb48     POSPower.obj
 0002:00000b58       __GUID_00000109_0000_0000_c000_000000000046 1001fb58     POSPower.obj
 0002:00000b68       __GUID_7fd52380_4e07_101b_ae2d_08002b2ec713 1001fb68     POSPower.obj
 0002:00000b78       __GUID_3af24292_0c96_11ce_a0cf_00aa00600ab8 1001fb78     POSPower.obj
 0002:00000b88       __GUID_00000127_0000_0000_c000_000000000046 1001fb88     POSPower.obj
 0002:00000b98       __GUID_0000010d_0000_0000_c000_000000000046 1001fb98     POSPower.obj
 0002:00000ba8       ??_C@_1M@PPPPCDEP@?$AAA?$AAP?$AAP?$AAI?$AAD@ 1001fba8     POSPower.obj
 0002:00000bb8       ??_C@_1EA@NHKLICFA@?$AAH?$AAK?$AAC?$AAU?$AA?$AN?$AA?6?$AA?$HL?$AA?7?$AAS?$AAo?$AAf?$AAt?$AAw?$AAa?$AAr@ 1001fbb8     POSPower.obj
 0002:00000bf8       ??_C@_1BE@LJOLIMEM@?$AA?$AN?$AA?6?$AA?7?$AA?$HN?$AA?$AN?$AA?6?$AA?$HN?$AA?$AN?$AA?6@ 1001fbf8     POSPower.obj
 0002:00000c0c       ??_C@_1O@MNLDABAF@?$AAM?$AAo?$AAd?$AAu?$AAl?$AAe@ 1001fc0c     POSPower.obj
 0002:00000c1c       ??_C@_1BG@JBACFMF@?$AAM?$AAo?$AAd?$AAu?$AAl?$AAe?$AA_?$AAR?$AAa?$AAw@ 1001fc1c     POSPower.obj
 0002:00000c34       ??_C@_1BC@KAILKFFG@?$AAR?$AAE?$AAG?$AAI?$AAS?$AAT?$AAR?$AAY@ 1001fc34     POSPower.obj
 0002:00000c48       ??_7?$CComContainedObject@VCOPOSPOSPower@@@ATL@@6B?$IDispatchImpl@UIOPOSPOSPower@@$1?IID_IOPOSPOSPower@@3U_GUID@@B$1?LIBID_OposPOSPower_CCO@@3U3@B$00$0A@VCComTypeInfoHolder@ATL@@@1@@ 1001fc48     POSPower.obj
 0002:00000d7c       ??_7?$CComContainedObject@VCOPOSPOSPower@@@ATL@@6BCComControlBase@1@@ 1001fd7c     POSPower.obj
 0002:00000d90       ??_7?$CComContainedObject@VCOPOSPOSPower@@@ATL@@6B?$CWindowImpl@VCOPOSPOSPower@@VCWindow@ATL@@V?$CWinTraits@$0FGAAAAAA@$0A@@3@@1@@ 1001fd90     POSPower.obj
 0002:00000da0       ??_7?$CComContainedObject@VCOPOSPOSPower@@@ATL@@6B?$IPersistStreamInitImpl@VCOPOSPOSPower@@@1@@ 1001fda0     POSPower.obj
 0002:00000dc4       ??_7?$CComContainedObject@VCOPOSPOSPower@@@ATL@@6B?$IOleControlImpl@VCOPOSPOSPower@@@1@@ 1001fdc4     POSPower.obj
 0002:00000de0       ??_7?$CComContainedObject@VCOPOSPOSPower@@@ATL@@6B?$IOleObjectImpl@VCOPOSPOSPower@@@1@@ 1001fde0     POSPower.obj
 0002:00000e40       ??_7?$CComContainedObject@VCOPOSPOSPower@@@ATL@@6B?$IOleInPlaceActiveObjectImpl@VCOPOSPOSPower@@@1@@ 1001fe40     POSPower.obj
 0002:00000e68       ??_7?$CComContainedObject@VCOPOSPOSPower@@@ATL@@6B?$IViewObjectExImpl@VCOPOSPOSPower@@@1@@ 1001fe68     POSPower.obj
 0002:00000ea4       ??_7?$CComContainedObject@VCOPOSPOSPower@@@ATL@@6B?$IOleInPlaceObjectWindowlessImpl@VCOPOSPOSPower@@@1@@ 1001fea4     POSPower.obj
 0002:00000ed0       ??_7?$CComContainedObject@VCOPOSPOSPower@@@ATL@@6B?$IConnectionPointContainerImpl@VCOPOSPOSPower@@@1@@ 1001fed0     POSPower.obj
 0002:00000ee4       ??_7?$CComContainedObject@VCOPOSPOSPower@@@ATL@@6B?$IPersistStorageImpl@VCOPOSPOSPower@@@1@@ 1001fee4     POSPower.obj
 0002:00000f0c       ??_7?$CComContainedObject@VCOPOSPOSPower@@@ATL@@6B?$ISpecifyPropertyPagesImpl@VCOPOSPOSPower@@@1@@ 1001ff0c     POSPower.obj
 0002:00000f1c       ??_7?$CComContainedObject@VCOPOSPOSPower@@@ATL@@6B?$IQuickActivateImpl@VCOPOSPOSPower@@@1@@ 1001ff1c     POSPower.obj
 0002:00000f34       ??_7?$CComContainedObject@VCOPOSPOSPower@@@ATL@@6B?$IDataObjectImpl@VCOPOSPOSPower@@@1@@ 1001ff34     POSPower.obj
 0002:00000f64       ??_7?$CComContainedObject@VCOPOSPOSPower@@@ATL@@6B?$IProvideClassInfo2Impl@$1?CLSID_OPOSPOSPower@@3U_GUID@@B$1?DIID__IOPOSPOSPowerEvents@@3U2@B$1?LIBID_OposPOSPower_CCO@@3U2@B$00$0A@VCComTypeInfoHolder@ATL@@@1@@ 1001ff64     POSPower.obj
 0002:00000f78       ??_7?$CComContainedObject@VCOPOSPOSPower@@@ATL@@6B?$IObjectSafetyImpl@VCOPOSPOSPower@@$02@1@@ 1001ff78     POSPower.obj
 0002:00000f90       ??_7?$CComContainedObject@VCOPOSPOSPower@@@ATL@@6B?$IPropertyNotifySinkCP@VCOPOSPOSPower@@VCComDynamicUnkArray@ATL@@@1@@ 1001ff90     POSPower.obj
 0002:00000fb0       ??_7?$CComContainedObject@VCOPOSPOSPower@@@ATL@@6B?$CProxy_IOPOSEvents@VCOPOSPOSPower@@@@@ 1001ffb0     POSPower.obj
 0002:00000fd0       ??_7?$CComAggObject@VCOPOSPOSPower@@@ATL@@6B@ 1001ffd0     POSPower.obj
 0002:00000fe0       ??_7?$CComObject@VCOPOSPOSPower@@@ATL@@6B?$IDispatchImpl@UIOPOSPOSPower@@$1?IID_IOPOSPOSPower@@3U_GUID@@B$1?LIBID_OposPOSPower_CCO@@3U3@B$00$0A@VCComTypeInfoHolder@ATL@@@1@@ 1001ffe0     POSPower.obj
 0002:00001114       ??_7?$CComObject@VCOPOSPOSPower@@@ATL@@6BCComControlBase@1@@ 10020114     POSPower.obj
 0002:00001128       ??_7?$CComObject@VCOPOSPOSPower@@@ATL@@6B?$CWindowImpl@VCOPOSPOSPower@@VCWindow@ATL@@V?$CWinTraits@$0FGAAAAAA@$0A@@3@@1@@ 10020128     POSPower.obj
 0002:00001138       ??_7?$CComObject@VCOPOSPOSPower@@@ATL@@6B?$IPersistStreamInitImpl@VCOPOSPOSPower@@@1@@ 10020138     POSPower.obj
 0002:0000115c       ??_7?$CComObject@VCOPOSPOSPower@@@ATL@@6B?$IOleControlImpl@VCOPOSPOSPower@@@1@@ 1002015c     POSPower.obj
 0002:00001178       ??_7?$CComObject@VCOPOSPOSPower@@@ATL@@6B?$IOleObjectImpl@VCOPOSPOSPower@@@1@@ 10020178     POSPower.obj
 0002:000011d8       ??_7?$CComObject@VCOPOSPOSPower@@@ATL@@6B?$IOleInPlaceActiveObjectImpl@VCOPOSPOSPower@@@1@@ 100201d8     POSPower.obj
 0002:00001200       ??_7?$CComObject@VCOPOSPOSPower@@@ATL@@6B?$IViewObjectExImpl@VCOPOSPOSPower@@@1@@ 10020200     POSPower.obj
 0002:0000123c       ??_7?$CComObject@VCOPOSPOSPower@@@ATL@@6B?$IOleInPlaceObjectWindowlessImpl@VCOPOSPOSPower@@@1@@ 1002023c     POSPower.obj
 0002:00001268       ??_7?$CComObject@VCOPOSPOSPower@@@ATL@@6B?$IConnectionPointContainerImpl@VCOPOSPOSPower@@@1@@ 10020268     POSPower.obj
 0002:0000127c       ??_7?$CComObject@VCOPOSPOSPower@@@ATL@@6B?$IPersistStorageImpl@VCOPOSPOSPower@@@1@@ 1002027c     POSPower.obj
 0002:000012a4       ??_7?$CComObject@VCOPOSPOSPower@@@ATL@@6B?$ISpecifyPropertyPagesImpl@VCOPOSPOSPower@@@1@@ 100202a4     POSPower.obj
 0002:000012b4       ??_7?$CComObject@VCOPOSPOSPower@@@ATL@@6B?$IQuickActivateImpl@VCOPOSPOSPower@@@1@@ 100202b4     POSPower.obj
 0002:000012cc       ??_7?$CComObject@VCOPOSPOSPower@@@ATL@@6B?$IDataObjectImpl@VCOPOSPOSPower@@@1@@ 100202cc     POSPower.obj
 0002:000012fc       ??_7?$CComObject@VCOPOSPOSPower@@@ATL@@6B?$IProvideClassInfo2Impl@$1?CLSID_OPOSPOSPower@@3U_GUID@@B$1?DIID__IOPOSPOSPowerEvents@@3U2@B$1?LIBID_OposPOSPower_CCO@@3U2@B$00$0A@VCComTypeInfoHolder@ATL@@@1@@ 100202fc     POSPower.obj
 0002:00001310       ??_7?$CComObject@VCOPOSPOSPower@@@ATL@@6B?$IObjectSafetyImpl@VCOPOSPOSPower@@$02@1@@ 10020310     POSPower.obj
 0002:00001328       ??_7?$CComObject@VCOPOSPOSPower@@@ATL@@6B?$IPropertyNotifySinkCP@VCOPOSPOSPower@@VCComDynamicUnkArray@ATL@@@1@@ 10020328     POSPower.obj
 0002:00001348       ??_7?$CComObject@VCOPOSPOSPower@@@ATL@@6B?$CProxy_IOPOSEvents@VCOPOSPOSPower@@@@@ 10020348     POSPower.obj
 0002:00001368       ??_C@_1O@GBFKGNEO@?$AAA?$AAT?$AAL?$AA?3?$AA?$CF?$AAp@ 10020368     POSPower.obj
 0002:00001378       ??_C@_1BA@PICGEGJB@?$AAD?$AAI?$AAS?$AAP?$AAL?$AAA?$AAY@ 10020378     POSPower.obj
 0002:00001388       __GUID_9bfbbc02_eff1_101a_84ed_00aa00341d07 10020388     POSPower.obj
 0002:00001398       ?_entries@?1??_GetEntries@?$CComEnum@UIEnumConnectionPoints@@$1?_GUID_b196b285_bab4_101a_b69c_00aa00341d07@@3U__s_GUID@@BPAUIConnectionPoint@@V?$_CopyInterface@UIConnectionPoint@@@ATL@@VCComSingleThreadModel@6@@ATL@@SGPBU_ATL_INTMAP_ENTRY@3@XZ@4QBU43@B 10020398     POSPower.obj
 0002:000013b0       __GUID_b196b284_bab4_101a_b69c_00aa00341d07 100203b0     POSPower.obj
 0002:000013c0       __GUID_00020412_0000_0000_c000_000000000046 100203c0     POSPower.obj
 0002:000013d0       __GUID_00020401_0000_0000_c000_000000000046 100203d0     POSPower.obj
 0002:000013e0       ??_7?$CComObject@V?$CComEnum@UIEnumConnections@@$1?_GUID_b196b287_bab4_101a_b69c_00aa00341d07@@3U__s_GUID@@BUtagCONNECTDATA@@V?$_Copy@UtagCONNECTDATA@@@ATL@@VCComSingleThreadModel@6@@ATL@@@ATL@@6B@ 100203e0     POSPower.obj
 0002:00001400       __GUID_55980ba0_35aa_11cf_b671_00aa004cd6d8 10020400     POSPower.obj
 0002:00001410       __GUID_b196b28b_bab4_101a_b69c_00aa00341d07 10020410     POSPower.obj
 0002:00001420       ?_entries@?1??_GetEntries@?$CComEnum@UIEnumConnections@@$1?_GUID_b196b287_bab4_101a_b69c_00aa00341d07@@3U__s_GUID@@BUtagCONNECTDATA@@V?$_Copy@UtagCONNECTDATA@@@ATL@@VCComSingleThreadModel@6@@ATL@@SGPBU_ATL_INTMAP_ENTRY@3@XZ@4QBU43@B 10020420     POSPower.obj
 0002:00001438       ??_C@_0BG@EKFFMJIO@RegOpenKeyTransactedW@ 10020438     POSPower.obj
 0002:00001450       ??_C@_0BI@HAKLOOGP@RegDeleteKeyTransactedW@ 10020450     POSPower.obj
 0002:00001468       ??_C@_0BA@LILAPHGE@RegDeleteKeyExW@ 10020468     POSPower.obj
 0002:00001478       ??_C@_19ILOCMLCJ@?$AA?4?$AAt?$AAl?$AAb@ 10020478     POSPower.obj
 0002:00001484       __GUID_0002e012_0000_0000_c000_000000000046 10020484     POSPower.obj
 0002:00001494       ??_C@_1O@FHBGLCIO@?$AAC?$AAL?$AAS?$AAI?$AAD?$AA?2@ 10020494     POSPower.obj
 0002:000014a4       ??_C@_1CK@IFBKBFAA@?$AA?2?$AAR?$AAe?$AAq?$AAu?$AAi?$AAr?$AAe?$AAd?$AA?5?$AAC?$AAa?$AAt?$AAe?$AAg@ 100204a4     POSPower.obj
 0002:000014d0       ??_C@_1DA@BIHALFED@?$AA?2?$AAI?$AAm?$AAp?$AAl?$AAe?$AAm?$AAe?$AAn?$AAt?$AAe?$AAd?$AA?5?$AAC?$AAa@ 100204d0     POSPower.obj
 0002:00001500       ??_C@_1BK@EDKOLFBJ@?$AAO?$AAL?$AAE?$AAA?$AAU?$AAT?$AA3?$AA2?$AA?4?$AAD?$AAL?$AAL@ 10020500     POSPower.obj
 0002:0000151c       ??_C@_0BJ@CNLFOMHB@UnRegisterTypeLibForUser@ 1002051c     POSPower.obj
 0002:00001538       ??_C@_0BH@LBOMMKPJ@RegisterTypeLibForUser@ 10020538     POSPower.obj
 0002:00001550       ??_C@_0P@MMNMMLGK@COFreezeEvents@ 10020550     POSPowerImpl.obj
 0002:00001560       ??_C@_0BC@OGCGGIMP@GetPropertyNumber@ 10020560     POSPowerImpl.obj
 0002:00001574       ??_C@_0BC@MDCNODNB@SetPropertyNumber@ 10020574     POSPowerImpl.obj
 0002:00001588       ??_C@_0BC@CFCCMIMD@GetPropertyString@ 10020588     POSPowerImpl.obj
 0002:0000159c       ??_C@_0BC@CJEDNN@SetPropertyString@ 1002059c     POSPowerImpl.obj
 0002:000015b0       ??_C@_0M@LNPKKKDA@OpenService@ 100205b0     POSPowerImpl.obj
 0002:000015bc       ??_C@_0M@PCMCHHMH@CheckHealth@ 100205bc     POSPowerImpl.obj
 0002:000015c8       ??_C@_0M@JGMIDNEK@ClaimDevice@ 100205c8     POSPowerImpl.obj
 0002:000015d4       ??_C@_0N@DDFIIBMP@CloseService@ 100205d4     POSPowerImpl.obj
 0002:000015e4       ??_C@_08EEIHICPC@DirectIO@ 100205e4     POSPowerImpl.obj
 0002:000015f0       ??_C@_0O@BCPMENMJ@ReleaseDevice@ 100205f0     POSPowerImpl.obj
 0002:00001600       ??_C@_0M@KANALHME@ShutdownPOS@ 10020600     POSPowerImpl.obj
 0002:0000160c       ??_C@_0BA@GFABKEEE@ResetStatistics@ 1002060c     POSPowerImpl.obj
 0002:0000161c       ??_C@_0BD@DPALHJGC@RetrieveStatistics@ 1002061c     POSPowerImpl.obj
 0002:00001630       ??_C@_0BB@KOHIKNFC@UpdateStatistics@ 10020630     POSPowerImpl.obj
 0002:00001644       ??_C@_0BH@PBKBNMGB@CompareFirmwareVersion@ 10020644     POSPowerImpl.obj
 0002:0000165c       ??_C@_0P@FBPDPIPA@UpdateFirmware@ 1002065c     POSPowerImpl.obj
 0002:0000166c       ??_C@_0L@CEHEODOE@RestartPOS@ 1002066c     POSPowerImpl.obj
 0002:00001678       ??_C@_0L@OLKFHIGL@StandbyPOS@ 10020678     POSPowerImpl.obj
 0002:00001684       ??_C@_0L@KGKFMCEH@SuspendPOS@ 10020684     POSPowerImpl.obj
 0002:00001690       ??_7?$CProxy_IOPOSEvents@VCOPOSPOSPower@@@@6B@ 10020690     POSPowerImpl.obj
 0002:000016b0       ??_C@_1BA@IFHENID@?$AA?$FL?$AAE?$AAr?$AAr?$AAo?$AAr?$AA?$FN@ 100206b0     POSPowerImpl.obj
 0002:000016c0       ??_C@_0CL@EMHFMPDC@SOFTWARE?2OLEforRetail?2ServiceOP@ 100206c0     POSPowerImpl.obj
 0002:000016ec       ??_C@_1M@IAIJHCCH@?$AAC?$AAl?$AAo?$AAs?$AAe@ 100206ec     POSPowerImpl.obj
 0002:000016f8       ??_C@_1M@PCPKGJAH@?$AAC?$AAl?$AAa?$AAi?$AAm@ 100206f8     POSPowerImpl.obj
 0002:00001704       ??_C@_1BA@NDFKIOCP@?$AAR?$AAe?$AAl?$AAe?$AAa?$AAs?$AAe@ 10020704     POSPowerImpl.obj
 0002:00001714       ??_C@_08DLDFOLLN@POSPower@ 10020714     POSPowerImpl.obj
 0002:00001720       ??_C@_1BM@IJMNMBPK@?$AAG?$AAe?$AAt?$AAO?$AAp?$AAe?$AAn?$AAR?$AAe?$AAs?$AAu?$AAl?$AAt@ 10020720     POSPowerImpl.obj
 0002:0000173c       _IID_IPropertyNotifySink   1002073c     uuid:ocidl_i.obj
 0002:0000174c       _GUID_NULL                 1002074c     uuid:cguid_i.obj
 0002:0000175c       _CLSID_StdGlobalInterfaceTable 1002075c     uuid:cguid_i.obj
 0002:0000176c       _IID_IDispatch             1002076c     uuid:oaidl_i.obj
 0002:0000177c       _CLSID_StdComponentCategoriesMgr 1002077c     uuid:ieguids.obj
 0002:0000178c       _IID_IUnknown              1002078c     uuid:unknwn_i.obj
 0002:000017a0       ??_C@_1EC@JIJBPKFM@?$AAa?$AAp?$AAi?$AA?9?$AAm?$AAs?$AA?9?$AAw?$AAi?$AAn?$AA?9?$AAc?$AAo?$AAr?$AAe@ 100207a0     LIBCMT:thread_safe_statics.obj
 0002:000017e4       ??_C@_1BK@MGMFAEKH@?$AAk?$AAe?$AAr?$AAn?$AAe?$AAl?$AA3?$AA2?$AA?4?$AAd?$AAl?$AAl@ 100207e4     LIBCMT:thread_safe_statics.obj
 0002:00001800       ??_C@_0BJ@JEBJOJFJ@SleepConditionVariableCS@ 10020800     LIBCMT:thread_safe_statics.obj
 0002:0000181c       ??_C@_0BJ@PGPPEPCC@WakeAllConditionVariable@ 1002081c     LIBCMT:thread_safe_statics.obj
 0002:00001835       ?nothrow@std@@3Unothrow_t@1@B 10020835     LIBCMT:std_nothrow.obj
 0002:00001840       __pRawDllMain              10020840     LIBCMT:dll_dllmain.obj
 0002:00001840       __pDefaultRawDllMain       10020840     LIBCMT:dll_dllmain.obj
 0002:00001848       ??_7exception@std@@6B@     10020848     LIBCMT:throw_bad_alloc.obj
 0002:00001850       ??_C@_0BC@EOODALEL@Unknown?5exception@ 10020850     LIBCMT:throw_bad_alloc.obj
 0002:00001868       ??_7bad_alloc@std@@6B@     10020868     LIBCMT:throw_bad_alloc.obj
 0002:00001870       ??_C@_0P@GHFPNOJB@bad?5allocation@ 10020870     LIBCMT:throw_bad_alloc.obj
 0002:00001884       ??_7bad_array_new_length@std@@6B@ 10020884     LIBCMT:throw_bad_alloc.obj
 0002:0000188c       ??_C@_0BF@KINCDENJ@bad?5array?5new?5length@ 1002088c     LIBCMT:throw_bad_alloc.obj
 0002:000018a8       ??_7type_info@@6B@         100208a8     LIBCMT:std_type_info_static.obj
 0002:000018ac       _GUID_ATLVer110            100208ac     atls:atlbase.obj
 0002:000018c0       ??_C@_1IC@ONKHOIDK@?$AAE?$AAR?$AAR?$AAO?$AAR?$AA?5?$AA?3?$AA?5?$AAU?$AAn?$AAa?$AAb?$AAl?$AAe?$AA?5@ 100208c0     atls:atlbase.obj
 0002:00001944       ??_C@_0N@FJEPLCIH@atlthunk?4dll@ 10020944     atls:atlthunk.obj
 0002:00001954       ??_C@_0BG@GAKFHCBM@AtlThunk_AllocateData@ 10020954     atls:atlthunk.obj
 0002:0000196c       ??_C@_0BC@JKONFIAH@AtlThunk_InitData@ 1002096c     atls:atlthunk.obj
 0002:00001980       ??_C@_0BE@IAOEELAK@AtlThunk_DataToCode@ 10020980     atls:atlthunk.obj
 0002:00001994       ??_C@_0BC@GBGKAIPI@AtlThunk_FreeData@ 10020994     atls:atlthunk.obj
 0002:000019a8       __pDestructExceptionObject 100209a8     libvcruntime:ehhelpers.obj
 0002:000019b0       ??_7bad_exception@std@@6B@ 100209b0     libvcruntime:frame.obj
 0002:000019b8       ??_C@_0O@DPKOEFFH@bad?5exception@ 100209b8     libvcruntime:frame.obj
 0002:00001d48       ??_C@_08EHJDFFNH@__based?$CI@ 10020d48     libvcruntime:undname.obj
 0002:00001d54       ??_C@_07KOLFKCDI@__cdecl@  10020d54     libvcruntime:undname.obj
 0002:00001d5c       ??_C@_08GHMPAG@__pascal@   10020d5c     libvcruntime:undname.obj
 0002:00001d68       ??_C@_09IFJBGAPI@__stdcall@ 10020d68     libvcruntime:undname.obj
 0002:00001d74       ??_C@_0L@NPHFGOKO@__thiscall@ 10020d74     libvcruntime:undname.obj
 0002:00001d80       ??_C@_0L@JMKHOMEK@__fastcall@ 10020d80     libvcruntime:undname.obj
 0002:00001d8c       ??_C@_0N@BCKKPABJ@__vectorcall@ 10020d8c     libvcruntime:undname.obj
 0002:00001d9c       ??_C@_09HIJEGCPM@__clrcall@ 10020d9c     libvcruntime:undname.obj
 0002:00001da8       ??_C@_06GHPCKEAG@__eabi@   10020da8     libvcruntime:undname.obj
 0002:00001db0       ??_C@_09IOPIDJLG@__swift_1@ 10020db0     libvcruntime:undname.obj
 0002:00001dbc       ??_C@_09KFNFGKHF@__swift_2@ 10020dbc     libvcruntime:undname.obj
 0002:00001dc8       ??_C@_07JOMMBBKO@__ptr64@  10020dc8     libvcruntime:undname.obj
 0002:00001dd0       ??_C@_0L@PILCLIHE@__restrict@ 10020dd0     libvcruntime:undname.obj
 0002:00001ddc       ??_C@_0M@GFIIJFMG@__unaligned@ 10020ddc     libvcruntime:undname.obj
 0002:00001de8       ??_C@_09DHDLOLLB@restrict?$CI@ 10020de8     libvcruntime:undname.obj
 0002:00001df2       ??_C@_00CNPNBAHC@@         10020df2     libvcruntime:undname.obj
 0002:00001df4       ??_C@_04NIHEBCM@?5new@     10020df4     libvcruntime:undname.obj
 0002:00001dfc       ??_C@_07FPCDHGMM@?5delete@ 10020dfc     libvcruntime:undname.obj
 0002:00001e04       ??_C@_01NEMOKFLO@?$DN@     10020e04     libvcruntime:undname.obj
 0002:00001e08       ??_C@_02GPIOPFAK@?$DO?$DO@ 10020e08     libvcruntime:undname.obj
 0002:00001e0c       ??_C@_02FODMEDOG@?$DM?$DM@ 10020e0c     libvcruntime:undname.obj
 0002:00001e10       ??_C@_01DCLJPIOD@?$CB@     10020e10     libvcruntime:undname.obj
 0002:00001e14       ??_C@_02EGOFBIJA@?$DN?$DN@ 10020e14     libvcruntime:undname.obj
 0002:00001e18       ??_C@_02FDNJECIE@?$CB?$DN@ 10020e18     libvcruntime:undname.obj
 0002:00001e1c       ??_C@_02GPECMEKF@?$FL?$FN@ 10020e1c     libvcruntime:undname.obj
 0002:00001e20       ??_C@_08LHJFAFGD@operator@ 10020e20     libvcruntime:undname.obj
 0002:00001e2c       ??_C@_02HBOOOICD@?9?$DO@   10020e2c     libvcruntime:undname.obj
 0002:00001e30       ??_C@_01NBENCBCI@?$CK@     10020e30     libvcruntime:undname.obj
 0002:00001e34       ??_C@_02ECNGHCIF@?$CL?$CL@ 10020e34     libvcruntime:undname.obj
 0002:00001e38       ??_C@_02BAABKJLB@?9?9@     10020e38     libvcruntime:undname.obj
 0002:00001e3c       ??_C@_01JOAMLHOP@?9@       10020e3c     libvcruntime:undname.obj
 0002:00001e40       ??_C@_01MIFGBAGJ@?$CL@     10020e40     libvcruntime:undname.obj
 0002:00001e44       ??_C@_01HNPIGOCE@?$CG@     10020e44     libvcruntime:undname.obj
 0002:00001e48       ??_C@_03MNHNFDLC@?9?$DO?$CK@ 10020e48     libvcruntime:undname.obj
 0002:00001e4c       ??_C@_01KMDKNFGN@?1@       10020e4c     libvcruntime:undname.obj
 0002:00001e50       ??_C@_01FGNFDNOH@?$CF@     10020e50     libvcruntime:undname.obj
 0002:00001e54       ??_C@_01MNNFJEPP@?$DM@     10020e54     libvcruntime:undname.obj
 0002:00001e58       ??_C@_02EHCHHCKH@?$DM?$DN@ 10020e58     libvcruntime:undname.obj
 0002:00001e5c       ??_C@_01PPODPGHN@?$DO@     10020e5c     libvcruntime:undname.obj
 0002:00001e60       ??_C@_02EEKDKGMJ@?$DO?$DN@ 10020e60     libvcruntime:undname.obj
 0002:00001e64       ??_C@_01IHBHIGKO@?0@       10020e64     libvcruntime:undname.obj
 0002:00001e68       ??_C@_02HCKGKOFO@?$CI?$CJ@ 10020e68     libvcruntime:undname.obj
 0002:00001e6c       ??_C@_01PJKLJHI@?$HO@      10020e6c     libvcruntime:undname.obj
 0002:00001e70       ??_C@_01JKBOJNNK@?$FO@     10020e70     libvcruntime:undname.obj
 0002:00001e74       ??_C@_01DNKMNLPK@?$HM@     10020e74     libvcruntime:undname.obj
 0002:00001e78       ??_C@_02PPKAJPJL@?$CG?$CG@ 10020e78     libvcruntime:undname.obj
 0002:00001e7c       ??_C@_02NONPIBCD@?$HM?$HM@ 10020e7c     libvcruntime:undname.obj
 0002:00001e80       ??_C@_02FPIMKNGF@?$CK?$DN@ 10020e80     libvcruntime:undname.obj
 0002:00001e84       ??_C@_02FOEOMHFC@?$CL?$DN@ 10020e84     libvcruntime:undname.obj
 0002:00001e88       ??_C@_02FKMDLLOA@?9?$DN@   10020e88     libvcruntime:undname.obj
 0002:00001e8c       ??_C@_02FJEHGPIO@?1?$DN@   10020e8c     libvcruntime:undname.obj
 0002:00001e90       ??_C@_02FENAOKFI@?$CF?$DN@ 10020e90     libvcruntime:undname.obj
 0002:00001e94       ??_C@_03IKFCCPFF@?$DO?$DO?$DN@ 10020e94     libvcruntime:undname.obj
 0002:00001e98       ??_C@_03CDNPDDLA@?$DM?$DM?$DN@ 10020e98     libvcruntime:undname.obj
 0002:00001e9c       ??_C@_02FGJGFEAB@?$CG?$DN@ 10020e9c     libvcruntime:undname.obj
 0002:00001ea0       ??_C@_02DHLNPPGH@?$HM?$DN@ 10020ea0     libvcruntime:undname.obj
 0002:00001ea4       ??_C@_02MHEGNOJ@?$FO?$DN@  10020ea4     libvcruntime:undname.obj
 0002:00001ea8       ??_C@_09IFPLHPGF@?$GAvftable?8@ 10020ea8     libvcruntime:undname.obj
 0002:00001eb4       ??_C@_09BLBHBJP@?$GAvbtable?8@ 10020eb4     libvcruntime:undname.obj
 0002:00001ec0       ??_C@_07FEEIOKP@?$GAvcall?8@ 10020ec0     libvcruntime:undname.obj
 0002:00001ec8       ??_C@_08LLFFHHDJ@?$GAtypeof?8@ 10020ec8     libvcruntime:undname.obj
 0002:00001ed4       ??_C@_0BF@KDPPACIK@?$GAlocal?5static?5guard?8@ 10020ed4     libvcruntime:undname.obj
 0002:00001eec       ??_C@_08OBABFOLI@?$GAstring?8@ 10020eec     libvcruntime:undname.obj
 0002:00001ef8       ??_C@_0BD@JDLKDPAB@?$GAvbase?5destructor?8@ 10020ef8     libvcruntime:undname.obj
 0002:00001f0c       ??_C@_0BN@DEGPLNFK@?$GAvector?5deleting?5destructor?8@ 10020f0c     libvcruntime:undname.obj
 0002:00001f2c       ??_C@_0BO@OBMKPJIG@?$GAdefault?5constructor?5closure?8@ 10020f2c     libvcruntime:undname.obj
 0002:00001f4c       ??_C@_0BN@IMDCHIKM@?$GAscalar?5deleting?5destructor?8@ 10020f4c     libvcruntime:undname.obj
 0002:00001f6c       ??_C@_0BO@PFGOCPJJ@?$GAvector?5constructor?5iterator?8@ 10020f6c     libvcruntime:undname.obj
 0002:00001f8c       ??_C@_0BN@LFPFMEDL@?$GAvector?5destructor?5iterator?8@ 10020f8c     libvcruntime:undname.obj
 0002:00001fac       ??_C@_0CE@IKBNEHA@?$GAvector?5vbase?5constructor?5itera@ 10020fac     libvcruntime:undname.obj
 0002:00001fd0       ??_C@_0BL@NILFHHPC@?$GAvirtual?5displacement?5map?8@ 10020fd0     libvcruntime:undname.obj
 0002:00001fec       ??_C@_0CB@JONCMFFK@?$GAeh?5vector?5constructor?5iterator@ 10020fec     libvcruntime:undname.obj
 0002:00002010       ??_C@_0CA@GCEOPDGL@?$GAeh?5vector?5destructor?5iterator?8@ 10021010     libvcruntime:undname.obj
 0002:00002030       ??_C@_0CH@OOJPLCPH@?$GAeh?5vector?5vbase?5constructor?5it@ 10021030     libvcruntime:undname.obj
 0002:00002058       ??_C@_0BL@LLKPOHJI@?$GAcopy?5constructor?5closure?8@ 10021058     libvcruntime:undname.obj
 0002:00002074       ??_C@_0BA@KBCDOMBN@?$GAudt?5returning?8@ 10021074     libvcruntime:undname.obj
 0002:00002084       ??_C@_03KLGMFNMG@?$GAEH@   10021084     libvcruntime:undname.obj
 0002:00002088       ??_C@_05KHLCHHI@?$GARTTI@  10021088     libvcruntime:undname.obj
 0002:00002090       ??_C@_0BA@KKLDJDLB@?$GAlocal?5vftable?8@ 10021090     libvcruntime:undname.obj
 0002:000020a0       ??_C@_0CE@IIHCMGGL@?$GAlocal?5vftable?5constructor?5clos@ 100210a0     libvcruntime:undname.obj
 0002:000020c4       ??_C@_06FHBGPFGH@?5new?$FL?$FN@ 100210c4     libvcruntime:undname.obj
 0002:000020cc       ??_C@_09LBNFPBCA@?5delete?$FL?$FN@ 100210cc     libvcruntime:undname.obj
 0002:000020d8       ??_C@_0P@HJKNJFNN@?$GAomni?5callsig?8@ 100210d8     libvcruntime:undname.obj
 0002:000020e8       ??_C@_0BL@CNOONJFP@?$GAplacement?5delete?5closure?8@ 100210e8     libvcruntime:undname.obj
 0002:00002104       ??_C@_0BN@CKNJLHMB@?$GAplacement?5delete?$FL?$FN?5closure?8@ 10021104     libvcruntime:undname.obj
 0002:00002124       ??_C@_0CG@CFDHKGGD@?$GAmanaged?5vector?5constructor?5ite@ 10021124     libvcruntime:undname.obj
 0002:0000214c       ??_C@_0CF@IMGKMJNO@?$GAmanaged?5vector?5destructor?5iter@ 1002114c     libvcruntime:undname.obj
 0002:00002174       ??_C@_0CG@HLDDJMAG@?$GAeh?5vector?5copy?5constructor?5ite@ 10021174     libvcruntime:undname.obj
 0002:0000219c       ??_C@_0CM@FCBBDIGB@?$GAeh?5vector?5vbase?5copy?5construct@ 1002119c     libvcruntime:undname.obj
 0002:000021c8       ??_C@_0BL@CLIPGLGB@?$GAdynamic?5initializer?5for?5?8@ 100211c8     libvcruntime:undname.obj
 0002:000021e4       ??_C@_0CB@PDBIFEP@?$GAdynamic?5atexit?5destructor?5for?5@ 100211e4     libvcruntime:undname.obj
 0002:00002208       ??_C@_0CD@CGAJBKEJ@?$GAvector?5copy?5constructor?5iterat@ 10021208     libvcruntime:undname.obj
 0002:0000222c       ??_C@_0CJ@GJELGAMM@?$GAvector?5vbase?5copy?5constructor?5@ 1002122c     libvcruntime:undname.obj
 0002:00002258       ??_C@_0CL@FGIJHLCE@?$GAmanaged?5vector?5copy?5constructo@ 10021258     libvcruntime:undname.obj
 0002:00002284       ??_C@_0BM@PMGGMLDN@?$GAlocal?5static?5thread?5guard?8@ 10021284     libvcruntime:undname.obj
 0002:000022a0       ??_C@_0N@BDNMDMOL@operator?5?$CC?$CC?5@ 100212a0     libvcruntime:undname.obj
 0002:000022b0       ??_C@_0BC@GGEBGALA@operator?5co_await@ 100212b0     libvcruntime:undname.obj
 0002:000022c4       ??_C@_0M@GAAIMMOH@operator?$DM?$DN?$DO@ 100212c4     libvcruntime:undname.obj
 0002:000022d0       ??_C@_0BC@DAFEJGAK@?5Type?5Descriptor?8@ 100212d0     libvcruntime:undname.obj
 0002:000022e4       ??_C@_0BM@LDKODKLH@?5Base?5Class?5Descriptor?5at?5?$CI@ 100212e4     libvcruntime:undname.obj
 0002:00002300       ??_C@_0BD@LGICGFMM@?5Base?5Class?5Array?8@ 10021300     libvcruntime:undname.obj
 0002:00002314       ??_C@_0BN@MECKDCOJ@?5Class?5Hierarchy?5Descriptor?8@ 10021314     libvcruntime:undname.obj
 0002:00002334       ??_C@_0BK@CFCOFLF@?5Complete?5Object?5Locator?8@ 10021334     libvcruntime:undname.obj
 0002:00002350       ??_C@_0BG@JNJLAMPM@?$GAanonymous?5namespace?8@ 10021350     libvcruntime:undname.obj
 0002:00002374       ??_C@_1DM@KHCHBNEB@?$AAa?$AAp?$AAi?$AA?9?$AAm?$AAs?$AA?9?$AAw?$AAi?$AAn?$AA?9?$AAc?$AAo?$AAr?$AAe@ 10021374     libvcruntime:winapi_downlevel.obj
 0002:000023b0       ??_C@_1DK@LPPGFMPP@?$AAa?$AAp?$AAi?$AA?9?$AAm?$AAs?$AA?9?$AAw?$AAi?$AAn?$AA?9?$AAc?$AAo?$AAr?$AAe@ 100213b0     libvcruntime:winapi_downlevel.obj
 0002:000023ec       ??_C@_1BC@GDMECMAK@?$AAk?$AAe?$AAr?$AAn?$AAe?$AAl?$AA3?$AA2@ 100213ec     libvcruntime:winapi_downlevel.obj
 0002:00002400       ??_C@_1BA@PFFKHIOG@?$AAa?$AAp?$AAi?$AA?9?$AAm?$AAs?$AA?9@ 10021400     libvcruntime:winapi_downlevel.obj
 0002:00002418       ??_C@_08KNHFBNJ@FlsAlloc@  10021418     libvcruntime:winapi_downlevel.obj
 0002:0000242c       ??_C@_07PEJMOBNF@FlsFree@  1002142c     libvcruntime:winapi_downlevel.obj
 0002:0000243c       ??_C@_0M@GDNOONDI@FlsGetValue@ 1002143c     libvcruntime:winapi_downlevel.obj
 0002:00002450       ??_C@_0M@JCPCPOEF@FlsSetValue@ 10021450     libvcruntime:winapi_downlevel.obj
 0002:00002464       ??_C@_0BM@HCFOFFN@InitializeCriticalSectionEx@ 10021464     libvcruntime:winapi_downlevel.obj
 0002:000025e8       _format_validation_lookup_table 100215e8     libucrt:output.obj
 0002:00002644       ??_C@_1O@CEDCILHN@?$AA?$CI?$AAn?$AAu?$AAl?$AAl?$AA?$CJ@ 10021644     libucrt:output.obj
 0002:00002654       ??_C@_06OJHGLDPL@?$CInull?$CJ@ 10021654     libucrt:output.obj
 0002:00002660       ___acrt_exception_action_table 10021660     libucrt:exception_filter.obj
 0002:000026f0       ___acrt_signal_action_table_count 100216f0     libucrt:exception_filter.obj
 0002:000026f4       ___acrt_signal_action_first_fpe_index 100216f4     libucrt:exception_filter.obj
 0002:000026f8       ___acrt_signal_action_fpe_count 100216f8     libucrt:exception_filter.obj
 0002:000026fc       ??_C@_1BI@BGOHAHKC@?$AAm?$AAs?$AAc?$AAo?$AAr?$AAe?$AAe?$AA?4?$AAd?$AAl?$AAl@ 100216fc     libucrt:exit.obj
 0002:00002714       ??_C@_0P@MIGLKIOC@CorExitProcess@ 10021714     libucrt:exit.obj
 0002:000027f8       ??_C@_1EA@JGEFHKEI@?$AAa?$AAp?$AAi?$AA?9?$AAm?$AAs?$AA?9?$AAw?$AAi?$AAn?$AA?9?$AAc?$AAo?$AAr?$AAe@ 100217f8     libucrt:winapi_thunks.obj
 0002:00002838       ??_C@_1DI@IJCEHOCB@?$AAa?$AAp?$AAi?$AA?9?$AAm?$AAs?$AA?9?$AAw?$AAi?$AAn?$AA?9?$AAc?$AAo?$AAr?$AAe@ 10021838     libucrt:winapi_thunks.obj
 0002:00002870       ??_C@_1EI@MPIAOHOC@?$AAa?$AAp?$AAi?$AA?9?$AAm?$AAs?$AA?9?$AAw?$AAi?$AAn?$AA?9?$AAc?$AAo?$AAr?$AAe@ 10021870     libucrt:winapi_thunks.obj
 0002:000028b8       ??_C@_1FK@FPHCKFIE@?$AAa?$AAp?$AAi?$AA?9?$AAm?$AAs?$AA?9?$AAw?$AAi?$AAn?$AA?9?$AAc?$AAo?$AAr?$AAe@ 100218b8     libucrt:winapi_thunks.obj
 0002:00002918       ??_C@_1EM@DILCGIIO@?$AAa?$AAp?$AAi?$AA?9?$AAm?$AAs?$AA?9?$AAw?$AAi?$AAn?$AA?9?$AAc?$AAo?$AAr?$AAe@ 10021918     libucrt:winapi_thunks.obj
 0002:00002964       ??_C@_1DM@LNCGDDPN@?$AAa?$AAp?$AAi?$AA?9?$AAm?$AAs?$AA?9?$AAw?$AAi?$AAn?$AA?9?$AAc?$AAo?$AAr?$AAe@ 10021964     libucrt:winapi_thunks.obj
 0002:000029a0       ??_C@_1DO@FPAPJEMD@?$AAa?$AAp?$AAi?$AA?9?$AAm?$AAs?$AA?9?$AAw?$AAi?$AAn?$AA?9?$AAc?$AAo?$AAr?$AAe@ 100219a0     libucrt:winapi_thunks.obj
 0002:000029e0       ??_C@_1DK@NDHNAHIO@?$AAa?$AAp?$AAi?$AA?9?$AAm?$AAs?$AA?9?$AAw?$AAi?$AAn?$AA?9?$AAc?$AAo?$AAr?$AAe@ 100219e0     libucrt:winapi_thunks.obj
 0002:00002a1c       ??_C@_1DM@KGHDGBCM@?$AAa?$AAp?$AAi?$AA?9?$AAm?$AAs?$AA?9?$AAw?$AAi?$AAn?$AA?9?$AAc?$AAo?$AAr?$AAe@ 10021a1c     libucrt:winapi_thunks.obj
 0002:00002a58       ??_C@_1EO@IJIOEFOH@?$AAa?$AAp?$AAi?$AA?9?$AAm?$AAs?$AA?9?$AAw?$AAi?$AAn?$AA?9?$AAr?$AAt?$AAc?$AAo@ 10021a58     libucrt:winapi_thunks.obj
 0002:00002aa8       ??_C@_1FG@HHGEKANL@?$AAa?$AAp?$AAi?$AA?9?$AAm?$AAs?$AA?9?$AAw?$AAi?$AAn?$AA?9?$AAs?$AAe?$AAc?$AAu@ 10021aa8     libucrt:winapi_thunks.obj
 0002:00002b00       ??_C@_1EG@DBIOJECG@?$AAe?$AAx?$AAt?$AA?9?$AAm?$AAs?$AA?9?$AAw?$AAi?$AAn?$AA?9?$AAn?$AAt?$AAu?$AAs@ 10021b00     libucrt:winapi_thunks.obj
 0002:00002b48       ??_C@_1EO@FIHMJCLF@?$AAe?$AAx?$AAt?$AA?9?$AAm?$AAs?$AA?9?$AAw?$AAi?$AAn?$AA?9?$AAn?$AAt?$AAu?$AAs@ 10021b48     libucrt:winapi_thunks.obj
 0002:00002b98       ??_C@_1BC@DNHGCMLG@?$AAa?$AAd?$AAv?$AAa?$AAp?$AAi?$AA3?$AA2@ 10021b98     libucrt:winapi_thunks.obj
 0002:00002bac       ??_C@_1M@OAIMIKLP@?$AAn?$AAt?$AAd?$AAl?$AAl@ 10021bac     libucrt:winapi_thunks.obj
 0002:00002bb8       ??_C@_1EG@DPGNFKGC@?$AAa?$AAp?$AAi?$AA?9?$AAm?$AAs?$AA?9?$AAw?$AAi?$AAn?$AA?9?$AAa?$AAp?$AAp?$AAm@ 10021bb8     libucrt:winapi_thunks.obj
 0002:00002c00       ??_C@_1O@BCCLBEOE@?$AAu?$AAs?$AAe?$AAr?$AA3?$AA2@ 10021c00     libucrt:winapi_thunks.obj
 0002:00002c10       ??_C@_1BA@IAIFMGEF@?$AAe?$AAx?$AAt?$AA?9?$AAm?$AAs?$AA?9@ 10021c10     libucrt:winapi_thunks.obj
 0002:00002c24       ??_C@_0BA@FHFNEAED@AreFileApisANSI@ 10021c24     libucrt:winapi_thunks.obj
 0002:00002c64       ??_C@_0O@KKBNKAPF@LCMapStringEx@ 10021c64     libucrt:winapi_thunks.obj
 0002:00002c7c       ??_C@_0BB@HBDEELFH@LocaleNameToLCID@ 10021c7c     libucrt:winapi_thunks.obj
 0002:00002c94       ??_C@_0CF@OJOFEIGO@AppPolicyGetProcessTerminationM@ 10021c94     libucrt:winapi_thunks.obj
 0002:00002cc4       ??_C@_0BI@BKLFFAPO@SetThreadStackGuarantee@ 10021cc4     libucrt:winapi_thunks.obj
 0002:00002d20       ??_C@_03OEIAHPBN@INF@      10021d20     libucrt:cvt.obj
 0002:00002d24       ??_C@_03OJHLLCGB@inf@      10021d24     libucrt:cvt.obj
 0002:00002d28       ??_C@_03LKNCIKJB@NAN@      10021d28     libucrt:cvt.obj
 0002:00002d2c       ??_C@_03LHCJEHON@nan@      10021d2c     libucrt:cvt.obj
 0002:00002d30       ??_C@_09OFJJIMPC@NAN?$CISNAN?$CJ@ 10021d30     libucrt:cvt.obj
 0002:00002d3c       ??_C@_09IPFBKMDL@nan?$CIsnan?$CJ@ 10021d3c     libucrt:cvt.obj
 0002:00002d48       ??_C@_08IKHNHAJ@NAN?$CIIND?$CJ@ 10021d48     libucrt:cvt.obj
 0002:00002d54       ??_C@_08OFCDMILK@nan?$CIind?$CJ@ 10021d54     libucrt:cvt.obj
 0002:00002d60       ??_C@_05KLBDPFGC@e?$CL000@ 10021d60     libucrt:cvt.obj
 0002:00002d68       ___lc_time_c               10021d68     libucrt:nlsdata.obj
 0002:00002ecc       ??_C@_03KOEHGMDN@Sun@      10021ecc     libucrt:nlsdata.obj
 0002:00002ed0       ??_C@_03PDAGKDH@Mon@       10021ed0     libucrt:nlsdata.obj
 0002:00002ed4       ??_C@_03NAGEINEP@Tue@      10021ed4     libucrt:nlsdata.obj
 0002:00002ed8       ??_C@_03MHOMLAJA@Wed@      10021ed8     libucrt:nlsdata.obj
 0002:00002edc       ??_C@_03IOFIKPDN@Thu@      10021edc     libucrt:nlsdata.obj
 0002:00002ee0       ??_C@_03IDIOELNC@Fri@      10021ee0     libucrt:nlsdata.obj
 0002:00002ee4       ??_C@_03FEFJNEK@Sat@       10021ee4     libucrt:nlsdata.obj
 0002:00002ee8       ??_C@_06OOPIFAJ@Sunday@    10021ee8     libucrt:nlsdata.obj
 0002:00002ef0       ??_C@_06JLEDEDGH@Monday@   10021ef0     libucrt:nlsdata.obj
 0002:00002ef8       ??_C@_07BAAGCFCM@Tuesday@  10021ef8     libucrt:nlsdata.obj
 0002:00002f00       ??_C@_09DLIGFAKA@Wednesday@ 10021f00     libucrt:nlsdata.obj
 0002:00002f0c       ??_C@_08HACCIKIA@Thursday@ 10021f0c     libucrt:nlsdata.obj
 0002:00002f18       ??_C@_06JECMNKMI@Friday@   10021f18     libucrt:nlsdata.obj
 0002:00002f20       ??_C@_08INBOOONO@Saturday@ 10021f20     libucrt:nlsdata.obj
 0002:00002f2c       ??_C@_03JIHJHPIE@Jan@      10021f2c     libucrt:nlsdata.obj
 0002:00002f30       ??_C@_03HJBDCHOM@Feb@      10021f30     libucrt:nlsdata.obj
 0002:00002f34       ??_C@_03ODNJBKGA@Mar@      10021f34     libucrt:nlsdata.obj
 0002:00002f38       ??_C@_03LEOLGMJP@Apr@      10021f38     libucrt:nlsdata.obj
 0002:00002f3c       ??_C@_03CNMDKL@May@        10021f3c     libucrt:nlsdata.obj
 0002:00002f40       ??_C@_03IDFGHECI@Jun@      10021f40     libucrt:nlsdata.obj
 0002:00002f44       ??_C@_03LBGABGKK@Jul@      10021f44     libucrt:nlsdata.obj
 0002:00002f48       ??_C@_03IFJFEIGA@Aug@      10021f48     libucrt:nlsdata.obj
 0002:00002f4c       ??_C@_03GGCAPAJC@Sep@      10021f4c     libucrt:nlsdata.obj
 0002:00002f50       ??_C@_03BMAOKBAD@Oct@      10021f50     libucrt:nlsdata.obj
 0002:00002f54       ??_C@_03JPJOFNIA@Nov@      10021f54     libucrt:nlsdata.obj
 0002:00002f58       ??_C@_03MKABNOCG@Dec@      10021f58     libucrt:nlsdata.obj
 0002:00002f5c       ??_C@_07CGJPFGJA@January@  10021f5c     libucrt:nlsdata.obj
 0002:00002f64       ??_C@_08GNJGEPFN@February@ 10021f64     libucrt:nlsdata.obj
 0002:00002f70       ??_C@_05HPCKOFNC@March@    10021f70     libucrt:nlsdata.obj
 0002:00002f78       ??_C@_05DMJDNLEJ@April@    10021f78     libucrt:nlsdata.obj
 0002:00002f80       ??_C@_04CNLMGBGM@June@     10021f80     libucrt:nlsdata.obj
 0002:00002f88       ??_C@_04MIEPOIFP@July@     10021f88     libucrt:nlsdata.obj
 0002:00002f90       ??_C@_06LBBHFDDG@August@   10021f90     libucrt:nlsdata.obj
 0002:00002f98       ??_C@_09BHHEALKD@September@ 10021f98     libucrt:nlsdata.obj
 0002:00002fa4       ??_C@_07JJNFCEND@October@  10021fa4     libucrt:nlsdata.obj
 0002:00002fac       ??_C@_08HCHEGEOA@November@ 10021fac     libucrt:nlsdata.obj
 0002:00002fb8       ??_C@_08EDHMEBNP@December@ 10021fb8     libucrt:nlsdata.obj
 0002:00002fc4       ??_C@_02DEDBPAFC@AM@       10021fc4     libucrt:nlsdata.obj
 0002:00002fc8       ??_C@_02CJNFDJBF@PM@       10021fc8     libucrt:nlsdata.obj
 0002:00002fcc       ??_C@_08BPBNCDIB@MM?1dd?1yy@ 10021fcc     libucrt:nlsdata.obj
 0002:00002fd8       ??_C@_0BE@CKGJFCPC@dddd?0?5MMMM?5dd?0?5yyyy@ 10021fd8     libucrt:nlsdata.obj
 0002:00002fec       ??_C@_08JCCMCCIL@HH?3mm?3ss@ 10021fec     libucrt:nlsdata.obj
 0002:00002ff8       ??_C@_17MBGCMIPB@?$AAS?$AAu?$AAn@ 10021ff8     libucrt:nlsdata.obj
 0002:00003000       ??_C@_17KBOMKBF@?$AAM?$AAo?$AAn@ 10022000     libucrt:nlsdata.obj
 0002:00003008       ??_C@_17BMKGEGOJ@?$AAT?$AAu?$AAe@ 10022008     libucrt:nlsdata.obj
 0002:00003010       ??_C@_17CJEDCEPE@?$AAW?$AAe?$AAd@ 10022010     libucrt:nlsdata.obj
 0002:00003018       ??_C@_17PDPHAADD@?$AAT?$AAh?$AAu@ 10022018     libucrt:nlsdata.obj
 0002:00003020       ??_C@_17HFOLPPLP@?$AAF?$AAr?$AAi@ 10022020     libucrt:nlsdata.obj
 0002:00003028       ??_C@_17GGIBDPIH@?$AAS?$AAa?$AAt@ 10022028     libucrt:nlsdata.obj
 0002:00003030       ??_C@_1O@IHNHDHPB@?$AAS?$AAu?$AAn?$AAd?$AAa?$AAy@ 10022030     libucrt:nlsdata.obj
 0002:00003040       ??_C@_1O@MMNBFLIA@?$AAM?$AAo?$AAn?$AAd?$AAa?$AAy@ 10022040     libucrt:nlsdata.obj
 0002:00003050       ??_C@_1BA@ENFBFFEK@?$AAT?$AAu?$AAe?$AAs?$AAd?$AAa?$AAy@ 10022050     libucrt:nlsdata.obj
 0002:00003060       ??_C@_1BE@EBOGMDOH@?$AAW?$AAe?$AAd?$AAn?$AAe?$AAs?$AAd?$AAa?$AAy@ 10022060     libucrt:nlsdata.obj
 0002:00003074       ??_C@_1BC@HHMNLIHE@?$AAT?$AAh?$AAu?$AAr?$AAs?$AAd?$AAa?$AAy@ 10022074     libucrt:nlsdata.obj
 0002:00003088       ??_C@_1O@PDICJHAG@?$AAF?$AAr?$AAi?$AAd?$AAa?$AAy@ 10022088     libucrt:nlsdata.obj
 0002:00003098       ??_C@_1BC@ENMNNPAJ@?$AAS?$AAa?$AAt?$AAu?$AAr?$AAd?$AAa?$AAy@ 10022098     libucrt:nlsdata.obj
 0002:000030ac       ??_C@_17DKNBKCHM@?$AAJ?$AAa?$AAn@ 100220ac     libucrt:nlsdata.obj
 0002:000030b4       ??_C@_17LMDJEKJN@?$AAF?$AAe?$AAb@ 100220b4     libucrt:nlsdata.obj
 0002:000030bc       ??_C@_17CKNLEDEC@?$AAM?$AAa?$AAr@ 100220bc     libucrt:nlsdata.obj
 0002:000030c4       ??_C@_17LFPOIHDD@?$AAA?$AAp?$AAr@ 100220c4     libucrt:nlsdata.obj
 0002:000030cc       ??_C@_17PNNKMEED@?$AAM?$AAa?$AAy@ 100220cc     libucrt:nlsdata.obj
 0002:000030d4       ??_C@_17KCJGOCPB@?$AAJ?$AAu?$AAn@ 100220d4     libucrt:nlsdata.obj
 0002:000030dc       ??_C@_17IJPCKHK@?$AAJ?$AAu?$AAl@ 100220dc     libucrt:nlsdata.obj
 0002:000030e4       ??_C@_17ICPELBCN@?$AAA?$AAu?$AAg@ 100220e4     libucrt:nlsdata.obj
 0002:000030ec       ??_C@_17HCHCOKMG@?$AAS?$AAe?$AAp@ 100220ec     libucrt:nlsdata.obj
 0002:000030f4       ??_C@_17FNLKOI@?$AAO?$AAc?$AAt@ 100220f4     libucrt:nlsdata.obj
 0002:000030fc       ??_C@_17BBDMLCIG@?$AAN?$AAo?$AAv@ 100220fc     libucrt:nlsdata.obj
 0002:00003104       ??_C@_17EGKACKIF@?$AAD?$AAe?$AAc@ 10022104     libucrt:nlsdata.obj
 0002:0000310c       ??_C@_1BA@EFMEIEBA@?$AAJ?$AAa?$AAn?$AAu?$AAa?$AAr?$AAy@ 1002210c     libucrt:nlsdata.obj
 0002:0000311c       ??_C@_1BC@JGDDFFAM@?$AAF?$AAe?$AAb?$AAr?$AAu?$AAa?$AAr?$AAy@ 1002211c     libucrt:nlsdata.obj
 0002:00003130       ??_C@_1M@IKEENEDF@?$AAM?$AAa?$AAr?$AAc?$AAh@ 10022130     libucrt:nlsdata.obj
 0002:0000313c       ??_C@_1M@GJNLMHFD@?$AAA?$AAp?$AAr?$AAi?$AAl@ 1002213c     libucrt:nlsdata.obj
 0002:00003148       ??_C@_19EPFLPGAP@?$AAJ?$AAu?$AAn?$AAe@ 10022148     libucrt:nlsdata.obj
 0002:00003154       ??_C@_19BIFMLPCD@?$AAJ?$AAu?$AAl?$AAy@ 10022154     libucrt:nlsdata.obj
 0002:00003160       ??_C@_1O@PAHLKOAC@?$AAA?$AAu?$AAg?$AAu?$AAs?$AAt@ 10022160     libucrt:nlsdata.obj
 0002:00003170       ??_C@_1BE@DKAAMBJL@?$AAS?$AAe?$AAp?$AAt?$AAe?$AAm?$AAb?$AAe?$AAr@ 10022170     libucrt:nlsdata.obj
 0002:00003184       ??_C@_1BA@EPANDLNG@?$AAO?$AAc?$AAt?$AAo?$AAb?$AAe?$AAr@ 10022184     libucrt:nlsdata.obj
 0002:00003194       ??_C@_1BC@BGLIFPF@?$AAN?$AAo?$AAv?$AAe?$AAm?$AAb?$AAe?$AAr@ 10022194     libucrt:nlsdata.obj
 0002:000031a8       ??_C@_1BC@FEMKIFH@?$AAD?$AAe?$AAc?$AAe?$AAm?$AAb?$AAe?$AAr@ 100221a8     libucrt:nlsdata.obj
 0002:000031bc       ??_C@_15ODEHAHHF@?$AAA?$AAM@ 100221bc     libucrt:nlsdata.obj
 0002:000031c4       ??_C@_15CLMNNGEL@?$AAP?$AAM@ 100221c4     libucrt:nlsdata.obj
 0002:000031cc       ??_C@_1BC@IEBCMHCM@?$AAM?$AAM?$AA?1?$AAd?$AAd?$AA?1?$AAy?$AAy@ 100221cc     libucrt:nlsdata.obj
 0002:000031e0       ??_C@_1CI@KNAKOEBC@?$AAd?$AAd?$AAd?$AAd?$AA?0?$AA?5?$AAM?$AAM?$AAM?$AAM?$AA?5?$AAd?$AAd?$AA?0?$AA?5@ 100221e0     libucrt:nlsdata.obj
 0002:00003208       ??_C@_1BC@GDGBMEMK@?$AAH?$AAH?$AA?3?$AAm?$AAm?$AA?3?$AAs?$AAs@ 10022208     libucrt:nlsdata.obj
 0002:0000321c       ??_C@_1M@BMHNFIME@?$AAe?$AAn?$AA?9?$AAU?$AAS@ 1002221c     libucrt:nlsdata.obj
 0002:00003238       ??_C@_1M@HPNHIDJI@?$AAj?$AAa?$AA?9?$AAJ?$AAP@ 10022238     libucrt:mbctype.obj
 0002:00003244       ??_C@_1M@BIBDDEMK@?$AAz?$AAh?$AA?9?$AAC?$AAN@ 10022244     libucrt:mbctype.obj
 0002:00003250       ??_C@_1M@JLOOOEGK@?$AAk?$AAo?$AA?9?$AAK?$AAR@ 10022250     libucrt:mbctype.obj
 0002:0000325c       ??_C@_1M@CLNBBOPM@?$AAz?$AAh?$AA?9?$AAT?$AAW@ 1002225c     libucrt:mbctype.obj
 0002:00003268       ___newctype                10022268     libucrt:ctype.obj
 0002:00003568       ___newclmap                10022568     libucrt:ctype.obj
 0002:000036e8       ___newcumap                100226e8     libucrt:ctype.obj
 0002:00003868       __wctype                   10022868     libucrt:ctype.obj
 0002:00004190       ??_C@_15EMKDOKLE@?$AAa?$AAr@ 10023190     libucrt:lcidtoname_downlevel.obj
 0002:00004198       ??_C@_15KNPADPLH@?$AAb?$AAg@ 10023198     libucrt:lcidtoname_downlevel.obj
 0002:000041a0       ??_C@_15EDMHLDMO@?$AAc?$AAa@ 100231a0     libucrt:lcidtoname_downlevel.obj
 0002:000041a8       ??_C@_1O@BPEAJADD@?$AAz?$AAh?$AA?9?$AAC?$AAH?$AAS@ 100231a8     libucrt:lcidtoname_downlevel.obj
 0002:000041b8       ??_C@_15LJNHCMNK@?$AAc?$AAs@ 100231b8     libucrt:lcidtoname_downlevel.obj
 0002:000041c0       ??_C@_15FOMCIDHG@?$AAd?$AAa@ 100231c0     libucrt:lcidtoname_downlevel.obj
 0002:000041c8       ??_C@_15NBKABECB@?$AAd?$AAe@ 100231c8     libucrt:lcidtoname_downlevel.obj
 0002:000041d0       ??_C@_15GHPEIIAO@?$AAe?$AAl@ 100231d0     libucrt:lcidtoname_downlevel.obj
 0002:000041d8       ??_C@_15MNPNEAIF@?$AAe?$AAn@ 100231d8     libucrt:lcidtoname_downlevel.obj
 0002:000041e0       ??_C@_15GPIOMPMH@?$AAe?$AAs@ 100231e0     libucrt:lcidtoname_downlevel.obj
 0002:000041e8       ??_C@_15NGLOAKJC@?$AAf?$AAi@ 100231e8     libucrt:lcidtoname_downlevel.obj
 0002:000041f0       ??_C@_15FBKGNKAM@?$AAf?$AAr@ 100231f0     libucrt:lcidtoname_downlevel.obj
 0002:000041f8       ??_C@_15KGGCNEFK@?$AAh?$AAe@ 100231f8     libucrt:lcidtoname_downlevel.obj
 0002:00004200       ??_C@_15PGHLIDMF@?$AAh?$AAu@ 10023200     libucrt:lcidtoname_downlevel.obj
 0002:00004208       ??_C@_15BIEMAPLM@?$AAi?$AAs@ 10023208     libucrt:lcidtoname_downlevel.obj
 0002:00004210       ??_C@_15IFJLDHAF@?$AAi?$AAt@ 10023210     libucrt:lcidtoname_downlevel.obj
 0002:00004218       ??_C@_15GEMIOCAG@?$AAj?$AAa@ 10023218     libucrt:lcidtoname_downlevel.obj
 0002:00004220       ??_C@_15EPELEGJA@?$AAk?$AAo@ 10023220     libucrt:lcidtoname_downlevel.obj
 0002:00004228       ??_C@_15NDDHIMN@?$AAn?$AAl@ 10023228     libucrt:lcidtoname_downlevel.obj
 0002:00004230       ??_C@_15BPIGNHCD@?$AAn?$AAo@ 10023230     libucrt:lcidtoname_downlevel.obj
 0002:00004238       ??_C@_15DEOPBLCG@?$AAp?$AAl@ 10023238     libucrt:lcidtoname_downlevel.obj
 0002:00004240       ??_C@_15KBECGEFG@?$AAp?$AAt@ 10023240     libucrt:lcidtoname_downlevel.obj
 0002:00004248       ??_C@_15GLJCBFMD@?$AAr?$AAo@ 10023248     libucrt:lcidtoname_downlevel.obj
 0002:00004250       ??_C@_15FEDGKCDI@?$AAr?$AAu@ 10023250     libucrt:lcidtoname_downlevel.obj
 0002:00004258       ??_C@_15GLKMLLHM@?$AAh?$AAr@ 10023258     libucrt:lcidtoname_downlevel.obj
 0002:00004260       ??_C@_15CPKMFBDB@?$AAs?$AAk@ 10023260     libucrt:lcidtoname_downlevel.obj
 0002:00004268       ??_C@_15BAAIOGMK@?$AAs?$AAq@ 10023268     libucrt:lcidtoname_downlevel.obj
 0002:00004270       ??_C@_15INNPNOHD@?$AAs?$AAv@ 10023270     libucrt:lcidtoname_downlevel.obj
 0002:00004278       ??_C@_15CABMMOGH@?$AAt?$AAh@ 10023278     libucrt:lcidtoname_downlevel.obj
 0002:00004280       ??_C@_15BPLIHJJM@?$AAt?$AAr@ 10023280     libucrt:lcidtoname_downlevel.obj
 0002:00004288       ??_C@_15NEOEKKDJ@?$AAu?$AAr@ 10023288     libucrt:lcidtoname_downlevel.obj
 0002:00004290       ??_C@_15NFICGAJK@?$AAi?$AAd@ 10023290     libucrt:lcidtoname_downlevel.obj
 0002:00004298       ??_C@_15PJPFLCCM@?$AAu?$AAk@ 10023298     libucrt:lcidtoname_downlevel.obj
 0002:000042a0       ??_C@_15HPJPHDM@?$AAb?$AAe@ 100232a0     libucrt:lcidtoname_downlevel.obj
 0002:000042a8       ??_C@_15LCHLGJII@?$AAs?$AAl@ 100232a8     libucrt:lcidtoname_downlevel.obj
 0002:000042b0       ??_C@_15PCFJPHHO@?$AAe?$AAt@ 100232b0     libucrt:lcidtoname_downlevel.obj
 0002:000042b8       ??_C@_15HPFPGODN@?$AAl?$AAv@ 100232b8     libucrt:lcidtoname_downlevel.obj
 0002:000042c0       ??_C@_15NFFGKGLG@?$AAl?$AAt@ 100232c0     libucrt:lcidtoname_downlevel.obj
 0002:000042c8       ??_C@_15BDAKCCHN@?$AAf?$AAa@ 100232c8     libucrt:lcidtoname_downlevel.obj
 0002:000042d0       ??_C@_15NFGIAIAJ@?$AAv?$AAi@ 100232d0     libucrt:lcidtoname_downlevel.obj
 0002:000042d8       ??_C@_15LMKNDMHN@?$AAh?$AAy@ 100232d8     libucrt:lcidtoname_downlevel.obj
 0002:000042e0       ??_C@_15IJBHMCFL@?$AAa?$AAz@ 100232e0     libucrt:lcidtoname_downlevel.obj
 0002:000042e8       ??_C@_15EKOFJABL@?$AAe?$AAu@ 100232e8     libucrt:lcidtoname_downlevel.obj
 0002:000042f0       ??_C@_15BGHADCNK@?$AAm?$AAk@ 100232f0     libucrt:lcidtoname_downlevel.obj
 0002:000042f8       ??_C@_15JDNICKHM@?$AAa?$AAf@ 100232f8     libucrt:lcidtoname_downlevel.obj
 0002:00004300       ??_C@_15KPJEDBKD@?$AAk?$AAa@ 10023300     libucrt:lcidtoname_downlevel.obj
 0002:00004308       ??_C@_15PDNFFFEO@?$AAf?$AAo@ 10023308     libucrt:lcidtoname_downlevel.obj
 0002:00004310       ??_C@_15OMLEGLOC@?$AAh?$AAi@ 10023310     libucrt:lcidtoname_downlevel.obj
 0002:00004318       ??_C@_15IDNNENKK@?$AAm?$AAs@ 10023318     libucrt:lcidtoname_downlevel.obj
 0002:00004320       ??_C@_15MACJNBMH@?$AAk?$AAk@ 10023320     libucrt:lcidtoname_downlevel.obj
 0002:00004328       ??_C@_15DKDJEOND@?$AAk?$AAy@ 10023328     libucrt:lcidtoname_downlevel.obj
 0002:00004330       ??_C@_15DFGDLJBG@?$AAs?$AAw@ 10023330     libucrt:lcidtoname_downlevel.obj
 0002:00004338       ??_C@_15BBFAICNG@?$AAu?$AAz@ 10023338     libucrt:lcidtoname_downlevel.obj
 0002:00004340       ??_C@_15DKNDCGEA@?$AAt?$AAt@ 10023340     libucrt:lcidtoname_downlevel.obj
 0002:00004348       ??_C@_15MGIFMDPL@?$AAp?$AAa@ 10023348     libucrt:lcidtoname_downlevel.obj
 0002:00004350       ??_C@_15HCNDBBA@?$AAg?$AAu@ 10023350     libucrt:lcidtoname_downlevel.obj
 0002:00004358       ??_C@_15FNBEIBON@?$AAt?$AAa@ 10023358     libucrt:lcidtoname_downlevel.obj
 0002:00004360       ??_C@_15NCHGBGLK@?$AAt?$AAe@ 10023360     libucrt:lcidtoname_downlevel.obj
 0002:00004368       ??_C@_15PHPHCBPF@?$AAk?$AAn@ 10023368     libucrt:lcidtoname_downlevel.obj
 0002:00004370       ??_C@_15DLGBCKMP@?$AAm?$AAr@ 10023370     libucrt:lcidtoname_downlevel.obj
 0002:00004378       ??_C@_15EABBLBFF@?$AAs?$AAa@ 10023378     libucrt:lcidtoname_downlevel.obj
 0002:00004380       ??_C@_15CBKOMCOI@?$AAm?$AAn@ 10023380     libucrt:lcidtoname_downlevel.obj
 0002:00004388       ??_C@_15CKDMCJAF@?$AAg?$AAl@ 10023388     libucrt:lcidtoname_downlevel.obj
 0002:00004390       ??_C@_17CNJFBPG@?$AAk?$AAo?$AAk@ 10023390     libucrt:lcidtoname_downlevel.obj
 0002:00004398       ??_C@_17FFBJICPL@?$AAs?$AAy?$AAr@ 10023398     libucrt:lcidtoname_downlevel.obj
 0002:000043a0       ??_C@_17KPNDCPAF@?$AAd?$AAi?$AAv@ 100233a0     libucrt:lcidtoname_downlevel.obj
 0002:000043a8       ??_C@_1M@OKAHONE@?$AAa?$AAr?$AA?9?$AAS?$AAA@ 100233a8     libucrt:lcidtoname_downlevel.obj
 0002:000043b4       ??_C@_1M@FFFIGIGK@?$AAb?$AAg?$AA?9?$AAB?$AAG@ 100233b4     libucrt:lcidtoname_downlevel.obj
 0002:000043c0       ??_C@_1M@BJNKEDC@?$AAc?$AAa?$AA?9?$AAE?$AAS@ 100233c0     libucrt:lcidtoname_downlevel.obj
 0002:000043cc       ??_C@_1M@IJJHFJHA@?$AAc?$AAs?$AA?9?$AAC?$AAZ@ 100233cc     libucrt:lcidtoname_downlevel.obj
 0002:000043d8       ??_C@_1M@CLPEOBGI@?$AAd?$AAa?$AA?9?$AAD?$AAK@ 100233d8     libucrt:lcidtoname_downlevel.obj
 0002:000043e4       ??_C@_1M@MCMADGCB@?$AAd?$AAe?$AA?9?$AAD?$AAE@ 100233e4     libucrt:lcidtoname_downlevel.obj
 0002:000043f0       ??_C@_1M@OOCKEMAM@?$AAe?$AAl?$AA?9?$AAG?$AAR@ 100233f0     libucrt:lcidtoname_downlevel.obj
 0002:000043fc       ??_C@_1M@DDNJFGID@?$AAf?$AAi?$AA?9?$AAF?$AAI@ 100233fc     libucrt:lcidtoname_downlevel.obj
 0002:00004408       ??_C@_1M@GLIPPMAC@?$AAf?$AAr?$AA?9?$AAF?$AAR@ 10023408     libucrt:lcidtoname_downlevel.obj
 0002:00004414       ??_C@_1M@GFMCHPE@?$AAh?$AAe?$AA?9?$AAI?$AAL@ 10023414     libucrt:lcidtoname_downlevel.obj
 0002:00004420       ??_C@_1M@MHLPGNKM@?$AAh?$AAu?$AA?9?$AAH?$AAU@ 10023420     libucrt:lcidtoname_downlevel.obj
 0002:0000442c       ??_C@_1M@LPDDNNPN@?$AAi?$AAs?$AA?9?$AAI?$AAS@ 1002342c     libucrt:lcidtoname_downlevel.obj
 0002:00004438       ??_C@_1M@MADIPODN@?$AAi?$AAt?$AA?9?$AAI?$AAT@ 10023438     libucrt:lcidtoname_downlevel.obj
 0002:00004444       ??_C@_1M@IHBJJGG@?$AAn?$AAl?$AA?9?$AAN?$AAL@ 10023444     libucrt:lcidtoname_downlevel.obj
 0002:00004450       ??_C@_1M@EANAGDL@?$AAn?$AAb?$AA?9?$AAN?$AAO@ 10023450     libucrt:lcidtoname_downlevel.obj
 0002:0000445c       ??_C@_1M@NEIEMEGP@?$AAp?$AAl?$AA?9?$AAP?$AAL@ 1002345c     libucrt:lcidtoname_downlevel.obj
 0002:00004468       ??_C@_1M@BOCFIGEP@?$AAp?$AAt?$AA?9?$AAB?$AAR@ 10023468     libucrt:lcidtoname_downlevel.obj
 0002:00004474       ??_C@_1M@IMPFOPBG@?$AAr?$AAo?$AA?9?$AAR?$AAO@ 10023474     libucrt:lcidtoname_downlevel.obj
 0002:00004480       ??_C@_1M@IDNNEJMM@?$AAr?$AAu?$AA?9?$AAR?$AAU@ 10023480     libucrt:lcidtoname_downlevel.obj
 0002:0000448c       ??_C@_1M@LILEEOGM@?$AAh?$AAr?$AA?9?$AAH?$AAR@ 1002348c     libucrt:lcidtoname_downlevel.obj
 0002:00004498       ??_C@_1M@FKIFEHPB@?$AAs?$AAk?$AA?9?$AAS?$AAK@ 10023498     libucrt:lcidtoname_downlevel.obj
 0002:000044a4       ??_C@_1M@LJMAMNPJ@?$AAs?$AAq?$AA?9?$AAA?$AAL@ 100234a4     libucrt:lcidtoname_downlevel.obj
 0002:000044b0       ??_C@_1M@GIAKDKJK@?$AAs?$AAv?$AA?9?$AAS?$AAE@ 100234b0     libucrt:lcidtoname_downlevel.obj
 0002:000044bc       ??_C@_1M@MKJKIKCL@?$AAt?$AAh?$AA?9?$AAT?$AAH@ 100234bc     libucrt:lcidtoname_downlevel.obj
 0002:000044c8       ??_C@_1M@MFLCCMPB@?$AAt?$AAr?$AA?9?$AAT?$AAR@ 100234c8     libucrt:lcidtoname_downlevel.obj
 0002:000044d4       ??_C@_1M@OIJHDKJN@?$AAu?$AAr?$AA?9?$AAP?$AAK@ 100234d4     libucrt:lcidtoname_downlevel.obj
 0002:000044e0       ??_C@_1M@LHIPCIEK@?$AAi?$AAd?$AA?9?$AAI?$AAD@ 100234e0     libucrt:lcidtoname_downlevel.obj
 0002:000044ec       ??_C@_1M@MFMOBGI@?$AAu?$AAk?$AA?9?$AAU?$AAA@ 100234ec     libucrt:lcidtoname_downlevel.obj
 0002:000044f8       ??_C@_1M@OBGLJIPL@?$AAb?$AAe?$AA?9?$AAB?$AAY@ 100234f8     libucrt:lcidtoname_downlevel.obj
 0002:00004504       ??_C@_1M@BCFAJEAD@?$AAs?$AAl?$AA?9?$AAS?$AAI@ 10023504     libucrt:lcidtoname_downlevel.obj
 0002:00004510       ??_C@_1M@FKFFEDDN@?$AAe?$AAt?$AA?9?$AAE?$AAE@ 10023510     libucrt:lcidtoname_downlevel.obj
 0002:0000451c       ??_C@_1M@KGKKAACI@?$AAl?$AAv?$AA?9?$AAL?$AAV@ 1002351c     libucrt:lcidtoname_downlevel.obj
 0002:00004528       ??_C@_1M@IFGBIJO@?$AAl?$AAt?$AA?9?$AAL?$AAT@ 10023528     libucrt:lcidtoname_downlevel.obj
 0002:00004534       ??_C@_1M@FGEAHEDM@?$AAf?$AAa?$AA?9?$AAI?$AAR@ 10023534     libucrt:lcidtoname_downlevel.obj
 0002:00004540       ??_C@_1M@KBMAIBFN@?$AAv?$AAi?$AA?9?$AAV?$AAN@ 10023540     libucrt:lcidtoname_downlevel.obj
 0002:0000454c       ??_C@_1M@GPCBKDJK@?$AAh?$AAy?$AA?9?$AAA?$AAM@ 1002354c     libucrt:lcidtoname_downlevel.obj
 0002:00004558       ??_C@_1BG@BECMDDJB@?$AAa?$AAz?$AA?9?$AAA?$AAZ?$AA?9?$AAL?$AAa?$AAt?$AAn@ 10023558     libucrt:lcidtoname_downlevel.obj
 0002:00004570       ??_C@_1M@MAOFCAEA@?$AAe?$AAu?$AA?9?$AAE?$AAS@ 10023570     libucrt:lcidtoname_downlevel.obj
 0002:0000457c       ??_C@_1M@IGHABKPI@?$AAm?$AAk?$AA?9?$AAM?$AAK@ 1002357c     libucrt:lcidtoname_downlevel.obj
 0002:00004588       ??_C@_1M@IAIGNEJG@?$AAt?$AAn?$AA?9?$AAZ?$AAA@ 10023588     libucrt:lcidtoname_downlevel.obj
 0002:00004594       ??_C@_1M@IIJCOJFA@?$AAx?$AAh?$AA?9?$AAZ?$AAA@ 10023594     libucrt:lcidtoname_downlevel.obj
 0002:000045a0       ??_C@_1M@LGPJHNJH@?$AAz?$AAu?$AA?9?$AAZ?$AAA@ 100235a0     libucrt:lcidtoname_downlevel.obj
 0002:000045ac       ??_C@_1M@HOKAOIO@?$AAa?$AAf?$AA?9?$AAZ?$AAA@ 100235ac     libucrt:lcidtoname_downlevel.obj
 0002:000045b8       ??_C@_1M@DPCLHLIE@?$AAk?$AAa?$AA?9?$AAG?$AAE@ 100235b8     libucrt:lcidtoname_downlevel.obj
 0002:000045c4       ??_C@_1M@BLKMHJBI@?$AAf?$AAo?$AA?9?$AAF?$AAO@ 100235c4     libucrt:lcidtoname_downlevel.obj
 0002:000045d0       ??_C@_1M@LGGJAPPB@?$AAh?$AAi?$AA?9?$AAI?$AAN@ 100235d0     libucrt:lcidtoname_downlevel.obj
 0002:000045dc       ??_C@_1M@FIKPIHFE@?$AAm?$AAt?$AA?9?$AAM?$AAT@ 100235dc     libucrt:lcidtoname_downlevel.obj
 0002:000045e8       ??_C@_1M@HEGGPBFA@?$AAs?$AAe?$AA?9?$AAN?$AAO@ 100235e8     libucrt:lcidtoname_downlevel.obj
 0002:000045f4       ??_C@_1M@EIBJEEPA@?$AAm?$AAs?$AA?9?$AAM?$AAY@ 100235f4     libucrt:lcidtoname_downlevel.obj
 0002:00004600       ??_C@_1M@FHLBGMPP@?$AAk?$AAk?$AA?9?$AAK?$AAZ@ 10023600     libucrt:lcidtoname_downlevel.obj
 0002:0000460c       ??_C@_1M@NGJJLCGI@?$AAk?$AAy?$AA?9?$AAK?$AAG@ 1002360c     libucrt:lcidtoname_downlevel.obj
 0002:00004618       ??_C@_1M@GIENNBFC@?$AAs?$AAw?$AA?9?$AAK?$AAE@ 10023618     libucrt:lcidtoname_downlevel.obj
 0002:00004624       ??_C@_1BG@NDGMJIMJ@?$AAu?$AAz?$AA?9?$AAU?$AAZ?$AA?9?$AAL?$AAa?$AAt?$AAn@ 10023624     libucrt:lcidtoname_downlevel.obj
 0002:0000463c       ??_C@_1M@IDCCIHBC@?$AAt?$AAt?$AA?9?$AAR?$AAU@ 1002363c     libucrt:lcidtoname_downlevel.obj
 0002:00004648       ??_C@_1M@LOICPMOJ@?$AAb?$AAn?$AA?9?$AAI?$AAN@ 10023648     libucrt:lcidtoname_downlevel.obj
 0002:00004654       ??_C@_1M@KPKKNEAH@?$AAp?$AAa?$AA?9?$AAI?$AAN@ 10023654     libucrt:lcidtoname_downlevel.obj
 0002:00004660       ??_C@_1M@PJGPPBOG@?$AAg?$AAu?$AA?9?$AAI?$AAN@ 10023660     libucrt:lcidtoname_downlevel.obj
 0002:0000466c       ??_C@_1M@KMKMOPHI@?$AAt?$AAa?$AA?9?$AAI?$AAN@ 1002366c     libucrt:lcidtoname_downlevel.obj
 0002:00004678       ??_C@_1M@KFEHEPAC@?$AAt?$AAe?$AA?9?$AAI?$AAN@ 10023678     libucrt:lcidtoname_downlevel.obj
 0002:00004684       ??_C@_1M@CDCLMGHI@?$AAk?$AAn?$AA?9?$AAI?$AAN@ 10023684     libucrt:lcidtoname_downlevel.obj
 0002:00004690       ??_C@_1M@MIODLDKF@?$AAm?$AAl?$AA?9?$AAI?$AAN@ 10023690     libucrt:lcidtoname_downlevel.obj
 0002:0000469c       ??_C@_1M@PBIEACPO@?$AAm?$AAr?$AA?9?$AAI?$AAN@ 1002369c     libucrt:lcidtoname_downlevel.obj
 0002:000046a8       ??_C@_1M@NIDEAGPH@?$AAs?$AAa?$AA?9?$AAI?$AAN@ 100236a8     libucrt:lcidtoname_downlevel.obj
 0002:000046b4       ??_C@_1M@FHIHCBIO@?$AAm?$AAn?$AA?9?$AAM?$AAN@ 100236b4     libucrt:lcidtoname_downlevel.obj
 0002:000046c0       ??_C@_1M@JAIJPENP@?$AAc?$AAy?$AA?9?$AAG?$AAB@ 100236c0     libucrt:lcidtoname_downlevel.obj
 0002:000046cc       ??_C@_1M@PHGFBEPN@?$AAg?$AAl?$AA?9?$AAE?$AAS@ 100236cc     libucrt:lcidtoname_downlevel.obj
 0002:000046d8       ??_C@_1O@KPIPDNCP@?$AAk?$AAo?$AAk?$AA?9?$AAI?$AAN@ 100236d8     libucrt:lcidtoname_downlevel.obj
 0002:000046e8       ??_C@_1O@KNHJLDJA@?$AAs?$AAy?$AAr?$AA?9?$AAS?$AAY@ 100236e8     libucrt:lcidtoname_downlevel.obj
 0002:000046f8       ??_C@_1O@MKEKBLAH@?$AAd?$AAi?$AAv?$AA?9?$AAM?$AAV@ 100236f8     libucrt:lcidtoname_downlevel.obj
 0002:00004708       ??_C@_1O@OHDCKDDF@?$AAq?$AAu?$AAz?$AA?9?$AAB?$AAO@ 10023708     libucrt:lcidtoname_downlevel.obj
 0002:00004718       ??_C@_1M@LEPJNLFD@?$AAn?$AAs?$AA?9?$AAZ?$AAA@ 10023718     libucrt:lcidtoname_downlevel.obj
 0002:00004724       ??_C@_1M@OMLEIIJB@?$AAm?$AAi?$AA?9?$AAN?$AAZ@ 10023724     libucrt:lcidtoname_downlevel.obj
 0002:00004730       ??_C@_1M@PMPEAILG@?$AAa?$AAr?$AA?9?$AAI?$AAQ@ 10023730     libucrt:lcidtoname_downlevel.obj
 0002:0000473c       ??_C@_1M@CNKPNOEE@?$AAd?$AAe?$AA?9?$AAC?$AAH@ 1002373c     libucrt:lcidtoname_downlevel.obj
 0002:00004748       ??_C@_1M@LKMGMLKO@?$AAe?$AAn?$AA?9?$AAG?$AAB@ 10023748     libucrt:lcidtoname_downlevel.obj
 0002:00004754       ??_C@_1M@PGKJFFGL@?$AAe?$AAs?$AA?9?$AAM?$AAX@ 10023754     libucrt:lcidtoname_downlevel.obj
 0002:00004760       ??_C@_1M@DNNANBDC@?$AAf?$AAr?$AA?9?$AAB?$AAE@ 10023760     libucrt:lcidtoname_downlevel.obj
 0002:0000476c       ??_C@_1M@HLGMDFHM@?$AAi?$AAt?$AA?9?$AAC?$AAH@ 1002376c     libucrt:lcidtoname_downlevel.obj
 0002:00004778       ??_C@_1M@CLLBGJH@?$AAn?$AAl?$AA?9?$AAB?$AAE@ 10023778     libucrt:lcidtoname_downlevel.obj
 0002:00004784       ??_C@_1M@BODBOGLF@?$AAn?$AAn?$AA?9?$AAN?$AAO@ 10023784     libucrt:lcidtoname_downlevel.obj
 0002:00004790       ??_C@_1M@HFFAHKAD@?$AAp?$AAt?$AA?9?$AAP?$AAT@ 10023790     libucrt:lcidtoname_downlevel.obj
 0002:0000479c       ??_C@_1BG@LNOAKHIE@?$AAs?$AAr?$AA?9?$AAS?$AAP?$AA?9?$AAL?$AAa?$AAt?$AAn@ 1002379c     libucrt:lcidtoname_downlevel.obj
 0002:000047b4       ??_C@_1M@HBMHBGAK@?$AAs?$AAv?$AA?9?$AAF?$AAI@ 100237b4     libucrt:lcidtoname_downlevel.obj
 0002:000047c0       ??_C@_1BG@DGCJGJBE@?$AAa?$AAz?$AA?9?$AAA?$AAZ?$AA?9?$AAC?$AAy?$AAr?$AAl@ 100237c0     libucrt:lcidtoname_downlevel.obj
 0002:000047d8       ??_C@_1M@KEJDAAHB@?$AAs?$AAe?$AA?9?$AAS?$AAE@ 100237d8     libucrt:lcidtoname_downlevel.obj
 0002:000047e4       ??_C@_1M@HEIBJJAD@?$AAm?$AAs?$AA?9?$AAB?$AAN@ 100237e4     libucrt:lcidtoname_downlevel.obj
 0002:000047f0       ??_C@_1BG@PBGJMCEM@?$AAu?$AAz?$AA?9?$AAU?$AAZ?$AA?9?$AAC?$AAy?$AAr?$AAl@ 100237f0     libucrt:lcidtoname_downlevel.obj
 0002:00004808       ??_C@_1O@LAOBCMDF@?$AAq?$AAu?$AAz?$AA?9?$AAE?$AAC@ 10023808     libucrt:lcidtoname_downlevel.obj
 0002:00004818       ??_C@_1M@POEEMAIO@?$AAa?$AAr?$AA?9?$AAE?$AAG@ 10023818     libucrt:lcidtoname_downlevel.obj
 0002:00004824       ??_C@_1M@EFAKDEDL@?$AAz?$AAh?$AA?9?$AAH?$AAK@ 10023824     libucrt:lcidtoname_downlevel.obj
 0002:00004830       ??_C@_1M@HKKIJHGI@?$AAd?$AAe?$AA?9?$AAA?$AAT@ 10023830     libucrt:lcidtoname_downlevel.obj
 0002:0000483c       ??_C@_1M@KBFBEHJF@?$AAe?$AAn?$AA?9?$AAA?$AAU@ 1002383c     libucrt:lcidtoname_downlevel.obj
 0002:00004848       ??_C@_1M@MNPLFAAH@?$AAe?$AAs?$AA?9?$AAE?$AAS@ 10023848     libucrt:lcidtoname_downlevel.obj
 0002:00004854       ??_C@_1M@HJOOJFMA@?$AAf?$AAr?$AA?9?$AAC?$AAA@ 10023854     libucrt:lcidtoname_downlevel.obj
 0002:00004860       ??_C@_1BG@JPOFPNAB@?$AAs?$AAr?$AA?9?$AAS?$AAP?$AA?9?$AAC?$AAy?$AAr?$AAl@ 10023860     libucrt:lcidtoname_downlevel.obj
 0002:00004878       ??_C@_1M@LNFOCMOB@?$AAs?$AAe?$AA?9?$AAF?$AAI@ 10023878     libucrt:lcidtoname_downlevel.obj
 0002:00004884       ??_C@_1O@MGJBOAMB@?$AAq?$AAu?$AAz?$AA?9?$AAP?$AAE@ 10023884     libucrt:lcidtoname_downlevel.obj
 0002:00004894       ??_C@_1M@GJINLBOK@?$AAa?$AAr?$AA?9?$AAL?$AAY@ 10023894     libucrt:lcidtoname_downlevel.obj
 0002:000048a0       ??_C@_1M@GGMNHJNL@?$AAz?$AAh?$AA?9?$AAS?$AAG@ 100238a0     libucrt:lcidtoname_downlevel.obj
 0002:000048ac       ??_C@_1M@HOIKODND@?$AAd?$AAe?$AA?9?$AAL?$AAU@ 100238ac     libucrt:lcidtoname_downlevel.obj
 0002:000048b8       ??_C@_1M@DDOCCGFG@?$AAe?$AAn?$AA?9?$AAC?$AAA@ 100238b8     libucrt:lcidtoname_downlevel.obj
 0002:000048c4       ??_C@_1M@BNOEMJLF@?$AAe?$AAs?$AA?9?$AAG?$AAT@ 100238c4     libucrt:lcidtoname_downlevel.obj
 0002:000048d0       ??_C@_1M@EOGNKEK@?$AAf?$AAr?$AA?9?$AAC?$AAH@ 100238d0     libucrt:lcidtoname_downlevel.obj
 0002:000048dc       ??_C@_1M@FLIDJFHL@?$AAh?$AAr?$AA?9?$AAB?$AAA@ 100238dc     libucrt:lcidtoname_downlevel.obj
 0002:000048e8       ??_C@_1O@FMCELNAJ@?$AAs?$AAm?$AAj?$AA?9?$AAN?$AAO@ 100238e8     libucrt:lcidtoname_downlevel.obj
 0002:000048f8       ??_C@_1M@JHGLJMGJ@?$AAa?$AAr?$AA?9?$AAD?$AAZ@ 100238f8     libucrt:lcidtoname_downlevel.obj
 0002:00004904       ??_C@_1M@JKKFDCNP@?$AAz?$AAh?$AA?9?$AAM?$AAO@ 10023904     libucrt:lcidtoname_downlevel.obj
 0002:00004910       ??_C@_1M@GEEFALPE@?$AAd?$AAe?$AA?9?$AAL?$AAI@ 10023910     libucrt:lcidtoname_downlevel.obj
 0002:0000491c       ??_C@_1M@IGEOFBG@?$AAe?$AAn?$AA?9?$AAN?$AAZ@ 1002391c     libucrt:lcidtoname_downlevel.obj
 0002:00004928       ??_C@_1M@KDBONEHP@?$AAe?$AAs?$AA?9?$AAC?$AAR@ 10023928     libucrt:lcidtoname_downlevel.obj
 0002:00004934       ??_C@_1M@FHMDOHNN@?$AAf?$AAr?$AA?9?$AAL?$AAU@ 10023934     libucrt:lcidtoname_downlevel.obj
 0002:00004940       ??_C@_1BG@NFKKMAFG@?$AAb?$AAs?$AA?9?$AAB?$AAA?$AA?9?$AAL?$AAa?$AAt?$AAn@ 10023940     libucrt:lcidtoname_downlevel.obj
 0002:00004958       ??_C@_1O@IMNBEMCI@?$AAs?$AAm?$AAj?$AA?9?$AAS?$AAE@ 10023958     libucrt:lcidtoname_downlevel.obj
 0002:00004968       ??_C@_1M@DHHMBNDP@?$AAa?$AAr?$AA?9?$AAM?$AAA@ 10023968     libucrt:lcidtoname_downlevel.obj
 0002:00004974       ??_C@_1M@BNBLJCGH@?$AAe?$AAn?$AA?9?$AAI?$AAE@ 10023974     libucrt:lcidtoname_downlevel.obj
 0002:00004980       ??_C@_1M@GEPAFMDL@?$AAe?$AAs?$AA?9?$AAP?$AAA@ 10023980     libucrt:lcidtoname_downlevel.obj
 0002:0000498c       ??_C@_1M@OJONDMDL@?$AAf?$AAr?$AA?9?$AAM?$AAC@ 1002398c     libucrt:lcidtoname_downlevel.obj
 0002:00004998       ??_C@_1BG@OBCNFJB@?$AAs?$AAr?$AA?9?$AAB?$AAA?$AA?9?$AAL?$AAa?$AAt?$AAn@ 10023998     libucrt:lcidtoname_downlevel.obj
 0002:000049b0       ??_C@_1O@KEMEEGPO@?$AAs?$AAm?$AAa?$AA?9?$AAN?$AAO@ 100239b0     libucrt:lcidtoname_downlevel.obj
 0002:000049c0       ??_C@_1M@ELMGFODK@?$AAa?$AAr?$AA?9?$AAT?$AAN@ 100239c0     libucrt:lcidtoname_downlevel.obj
 0002:000049cc       ??_C@_1M@BHDLHFAF@?$AAe?$AAn?$AA?9?$AAZ?$AAA@ 100239cc     libucrt:lcidtoname_downlevel.obj
 0002:000049d8       ??_C@_1M@BMGIGLIF@?$AAe?$AAs?$AA?9?$AAD?$AAO@ 100239d8     libucrt:lcidtoname_downlevel.obj
 0002:000049e4       ??_C@_1BG@CMBHIPBE@?$AAs?$AAr?$AA?9?$AAB?$AAA?$AA?9?$AAC?$AAy?$AAr?$AAl@ 100239e4     libucrt:lcidtoname_downlevel.obj
 0002:000049fc       ??_C@_1O@HEDBLHNP@?$AAs?$AAm?$AAa?$AA?9?$AAS?$AAE@ 100239fc     libucrt:lcidtoname_downlevel.obj
 0002:00004a0c       ??_C@_1M@DAGCADIM@?$AAa?$AAr?$AA?9?$AAO?$AAM@ 10023a0c     libucrt:lcidtoname_downlevel.obj
 0002:00004a18       ??_C@_1M@FODLMICG@?$AAe?$AAn?$AA?9?$AAJ?$AAM@ 10023a18     libucrt:lcidtoname_downlevel.obj
 0002:00004a24       ??_C@_1M@DNMLCIHB@?$AAe?$AAs?$AA?9?$AAV?$AAE@ 10023a24     libucrt:lcidtoname_downlevel.obj
 0002:00004a30       ??_C@_1O@EOKHMKJK@?$AAs?$AAm?$AAs?$AA?9?$AAF?$AAI@ 10023a30     libucrt:lcidtoname_downlevel.obj
 0002:00004a40       ??_C@_1M@CAFJMKOF@?$AAa?$AAr?$AA?9?$AAY?$AAE@ 10023a40     libucrt:lcidtoname_downlevel.obj
 0002:00004a4c       ??_C@_1M@CBFHIJLI@?$AAe?$AAn?$AA?9?$AAC?$AAB@ 10023a4c     libucrt:lcidtoname_downlevel.obj
 0002:00004a58       ??_C@_1M@BGNFLDN@?$AAe?$AAs?$AA?9?$AAC?$AAO@ 10023a58     libucrt:lcidtoname_downlevel.obj
 0002:00004a64       ??_C@_1O@JMPHMAMC@?$AAs?$AAm?$AAn?$AA?9?$AAF?$AAI@ 10023a64     libucrt:lcidtoname_downlevel.obj
 0002:00004a74       ??_C@_1M@JLANABKE@?$AAa?$AAr?$AA?9?$AAS?$AAY@ 10023a74     libucrt:lcidtoname_downlevel.obj
 0002:00004a80       ??_C@_1M@HPKGCFGN@?$AAe?$AAn?$AA?9?$AAB?$AAZ@ 10023a80     libucrt:lcidtoname_downlevel.obj
 0002:00004a8c       ??_C@_1M@OLJCMLGM@?$AAe?$AAs?$AA?9?$AAP?$AAE@ 10023a8c     libucrt:lcidtoname_downlevel.obj
 0002:00004a98       ??_C@_1M@MKKGFKLE@?$AAa?$AAr?$AA?9?$AAJ?$AAO@ 10023a98     libucrt:lcidtoname_downlevel.obj
 0002:00004aa4       ??_C@_1M@EKPGLDNI@?$AAe?$AAn?$AA?9?$AAT?$AAT@ 10023aa4     libucrt:lcidtoname_downlevel.obj
 0002:00004ab0       ??_C@_1M@OONGHFHE@?$AAe?$AAs?$AA?9?$AAA?$AAR@ 10023ab0     libucrt:lcidtoname_downlevel.obj
 0002:00004abc       ??_C@_1M@OOJFGBHE@?$AAa?$AAr?$AA?9?$AAL?$AAB@ 10023abc     libucrt:lcidtoname_downlevel.obj
 0002:00004ac8       ??_C@_1M@GCEJHNEG@?$AAe?$AAn?$AA?9?$AAZ?$AAW@ 10023ac8     libucrt:lcidtoname_downlevel.obj
 0002:00004ad4       ??_C@_1M@JNOCAHJI@?$AAe?$AAs?$AA?9?$AAE?$AAC@ 10023ad4     libucrt:lcidtoname_downlevel.obj
 0002:00004ae0       ??_C@_1M@JEFHPGGB@?$AAa?$AAr?$AA?9?$AAK?$AAW@ 10023ae0     libucrt:lcidtoname_downlevel.obj
 0002:00004aec       ??_C@_1M@MLKIBJOJ@?$AAe?$AAn?$AA?9?$AAP?$AAH@ 10023aec     libucrt:lcidtoname_downlevel.obj
 0002:00004af8       ??_C@_1M@BDNIPEND@?$AAe?$AAs?$AA?9?$AAC?$AAL@ 10023af8     libucrt:lcidtoname_downlevel.obj
 0002:00004b04       ??_C@_1M@MPNMEKBD@?$AAa?$AAr?$AA?9?$AAA?$AAE@ 10023b04     libucrt:lcidtoname_downlevel.obj
 0002:00004b10       ??_C@_1M@KBJALCPI@?$AAe?$AAs?$AA?9?$AAU?$AAY@ 10023b10     libucrt:lcidtoname_downlevel.obj
 0002:00004b1c       ??_C@_1M@LLCCOAGA@?$AAa?$AAr?$AA?9?$AAB?$AAH@ 10023b1c     libucrt:lcidtoname_downlevel.obj
 0002:00004b28       ??_C@_1M@PBFNCDEL@?$AAe?$AAs?$AA?9?$AAP?$AAY@ 10023b28     libucrt:lcidtoname_downlevel.obj
 0002:00004b34       ??_C@_1M@EDGINPNP@?$AAa?$AAr?$AA?9?$AAQ?$AAA@ 10023b34     libucrt:lcidtoname_downlevel.obj
 0002:00004b40       ??_C@_1M@MKDBIIJI@?$AAe?$AAs?$AA?9?$AAB?$AAO@ 10023b40     libucrt:lcidtoname_downlevel.obj
 0002:00004b4c       ??_C@_1M@CPKKEBLD@?$AAe?$AAs?$AA?9?$AAS?$AAV@ 10023b4c     libucrt:lcidtoname_downlevel.obj
 0002:00004b58       ??_C@_1M@NDBGMMJL@?$AAe?$AAs?$AA?9?$AAH?$AAN@ 10023b58     libucrt:lcidtoname_downlevel.obj
 0002:00004b64       ??_C@_1M@JIJIBHDP@?$AAe?$AAs?$AA?9?$AAN?$AAI@ 10023b64     libucrt:lcidtoname_downlevel.obj
 0002:00004b70       ??_C@_1M@CGFMKEEK@?$AAe?$AAs?$AA?9?$AAP?$AAR@ 10023b70     libucrt:lcidtoname_downlevel.obj
 0002:00004b7c       ??_C@_1O@ICJHKIIK@?$AAz?$AAh?$AA?9?$AAC?$AAH?$AAT@ 10023b7c     libucrt:lcidtoname_downlevel.obj
 0002:00004b8c       ??_C@_15CLNEJCE@?$AAs?$AAr@ 10023b8c     libucrt:lcidtoname_downlevel.obj
 0002:000052b8       ??_C@_1M@KAHEKEIG@?$AAa?$AAf?$AA?9?$AAz?$AAa@ 100242b8     libucrt:lcidtoname_downlevel.obj
 0002:000052c4       ??_C@_1M@GIECOABL@?$AAa?$AAr?$AA?9?$AAa?$AAe@ 100242c4     libucrt:lcidtoname_downlevel.obj
 0002:000052d0       ??_C@_1M@BMLMEKGI@?$AAa?$AAr?$AA?9?$AAb?$AAh@ 100242d0     libucrt:lcidtoname_downlevel.obj
 0002:000052dc       ??_C@_1M@DAPFDGGB@?$AAa?$AAr?$AA?9?$AAd?$AAz@ 100242dc     libucrt:lcidtoname_downlevel.obj
 0002:000052e8       ??_C@_1M@FJNKGKIG@?$AAa?$AAr?$AA?9?$AAe?$AAg@ 100242e8     libucrt:lcidtoname_downlevel.obj
 0002:000052f4       ??_C@_1M@FLGKKCLO@?$AAa?$AAr?$AA?9?$AAi?$AAq@ 100242f4     libucrt:lcidtoname_downlevel.obj
 0002:00005300       ??_C@_1M@GNDIPALM@?$AAa?$AAr?$AA?9?$AAj?$AAo@ 10024300     libucrt:lcidtoname_downlevel.obj
 0002:0000530c       ??_C@_1M@DDMJFMGJ@?$AAa?$AAr?$AA?9?$AAk?$AAw@ 1002430c     libucrt:lcidtoname_downlevel.obj
 0002:00005318       ??_C@_1M@EJALMLHM@?$AAa?$AAr?$AA?9?$AAl?$AAb@ 10024318     libucrt:lcidtoname_downlevel.obj
 0002:00005324       ??_C@_1M@MOBDBLOC@?$AAa?$AAr?$AA?9?$AAl?$AAy@ 10024324     libucrt:lcidtoname_downlevel.obj
 0002:00005330       ??_C@_1M@JAOCLHDH@?$AAa?$AAr?$AA?9?$AAm?$AAa@ 10024330     libucrt:lcidtoname_downlevel.obj
 0002:0000533c       ??_C@_1M@JHPMKJIE@?$AAa?$AAr?$AA?9?$AAo?$AAm@ 1002433c     libucrt:lcidtoname_downlevel.obj
 0002:00005348       ??_C@_1M@OEPGHFNH@?$AAa?$AAr?$AA?9?$AAq?$AAa@ 10024348     libucrt:lcidtoname_downlevel.obj
 0002:00005354       ??_C@_1M@KJDONENM@?$AAa?$AAr?$AA?9?$AAs?$AAa@ 10024354     libucrt:lcidtoname_downlevel.obj
 0002:00005360       ??_C@_1M@DMJDKLKM@?$AAa?$AAr?$AA?9?$AAs?$AAy@ 10024360     libucrt:lcidtoname_downlevel.obj
 0002:0000536c       ??_C@_1M@OMFIPEDC@?$AAa?$AAr?$AA?9?$AAt?$AAn@ 1002436c     libucrt:lcidtoname_downlevel.obj
 0002:00005378       ??_C@_1M@IHMHGAON@?$AAa?$AAr?$AA?9?$AAy?$AAe@ 10024378     libucrt:lcidtoname_downlevel.obj
 0002:00005384       ??_C@_1BG@KDCPGJGB@?$AAa?$AAz?$AA?9?$AAa?$AAz?$AA?9?$AAc?$AAy?$AAr?$AAl@ 10024384     libucrt:lcidtoname_downlevel.obj
 0002:0000539c       ??_C@_1BG@IBCKDDOE@?$AAa?$AAz?$AA?9?$AAa?$AAz?$AA?9?$AAl?$AAa?$AAt?$AAn@ 1002439c     libucrt:lcidtoname_downlevel.obj
 0002:000053b4       ??_C@_1M@EGPFDCPD@?$AAb?$AAe?$AA?9?$AAb?$AAy@ 100243b4     libucrt:lcidtoname_downlevel.obj
 0002:000053c0       ??_C@_1M@PCMGMCGC@?$AAb?$AAg?$AA?9?$AAb?$AAg@ 100243c0     libucrt:lcidtoname_downlevel.obj
 0002:000053cc       ??_C@_1M@BJBMFGOB@?$AAb?$AAn?$AA?9?$AAi?$AAn@ 100243cc     libucrt:lcidtoname_downlevel.obj
 0002:000053d8       ??_C@_1BG@EAKMMACD@?$AAb?$AAs?$AA?9?$AAb?$AAa?$AA?9?$AAl?$AAa?$AAt?$AAn@ 100243d8     libucrt:lcidtoname_downlevel.obj
 0002:000053f0       ??_C@_1M@KGADAODK@?$AAc?$AAa?$AA?9?$AAe?$AAs@ 100243f0     libucrt:lcidtoname_downlevel.obj
 0002:000053fc       ??_C@_1M@COAJPDHI@?$AAc?$AAs?$AA?9?$AAc?$AAz@ 100243fc     libucrt:lcidtoname_downlevel.obj
 0002:00005408       ??_C@_1M@DHBHFONH@?$AAc?$AAy?$AA?9?$AAg?$AAb@ 10024408     libucrt:lcidtoname_downlevel.obj
 0002:00005414       ??_C@_1M@IMGKELGA@?$AAd?$AAa?$AA?9?$AAd?$AAk@ 10024414     libucrt:lcidtoname_downlevel.obj
 0002:00005420       ??_C@_1M@NNDGDNGA@?$AAd?$AAe?$AA?9?$AAa?$AAt@ 10024420     libucrt:lcidtoname_downlevel.obj
 0002:0000542c       ??_C@_1M@IKDBHEEM@?$AAd?$AAe?$AA?9?$AAc?$AAh@ 1002442c     libucrt:lcidtoname_downlevel.obj
 0002:00005438       ??_C@_1M@GFFOJMCJ@?$AAd?$AAe?$AA?9?$AAd?$AAe@ 10024438     libucrt:lcidtoname_downlevel.obj
 0002:00005444       ??_C@_1M@MDNLKBPM@?$AAd?$AAe?$AA?9?$AAl?$AAi@ 10024444     libucrt:lcidtoname_downlevel.obj
 0002:00005450       ??_C@_1M@NJBEEJNL@?$AAd?$AAe?$AA?9?$AAl?$AAu@ 10024450     libucrt:lcidtoname_downlevel.obj
 0002:0000545c       ??_C@_1O@GNNELBAP@?$AAd?$AAi?$AAv?$AA?9?$AAm?$AAv@ 1002445c     libucrt:lcidtoname_downlevel.obj
 0002:0000546c       ??_C@_1M@EJLEOGAE@?$AAe?$AAl?$AA?9?$AAg?$AAr@ 1002446c     libucrt:lcidtoname_downlevel.obj
 0002:00005478       ??_C@_1M@GMPONJN@?$AAe?$AAn?$AA?9?$AAa?$AAu@ 10024478     libucrt:lcidtoname_downlevel.obj
 0002:00005484       ??_C@_1M@NIDIIPGF@?$AAe?$AAn?$AA?9?$AAb?$AAz@ 10024484     libucrt:lcidtoname_downlevel.obj
 0002:00005490       ??_C@_1M@JEHMIMFO@?$AAe?$AAn?$AA?9?$AAc?$AAa@ 10024490     libucrt:lcidtoname_downlevel.obj
 0002:0000549c       ??_C@_1M@IGMJCDLA@?$AAe?$AAn?$AA?9?$AAc?$AAb@ 1002449c     libucrt:lcidtoname_downlevel.obj
 0002:000054a8       ??_C@_1M@BNFIGBKG@?$AAe?$AAn?$AA?9?$AAg?$AAb@ 100244a8     libucrt:lcidtoname_downlevel.obj
 0002:000054b4       ??_C@_1M@LKIFDIGP@?$AAe?$AAn?$AA?9?$AAi?$AAe@ 100244b4     libucrt:lcidtoname_downlevel.obj
 0002:000054c0       ??_C@_1M@PJKFGCCO@?$AAe?$AAn?$AA?9?$AAj?$AAm@ 100244c0     libucrt:lcidtoname_downlevel.obj
 0002:000054cc       ??_C@_1M@KPPKEPBO@?$AAe?$AAn?$AA?9?$AAn?$AAz@ 100244cc     libucrt:lcidtoname_downlevel.obj
 0002:000054d8       ??_C@_1M@GMDGLDOB@?$AAe?$AAn?$AA?9?$AAp?$AAh@ 100244d8     libucrt:lcidtoname_downlevel.obj
 0002:000054e4       ??_C@_1M@ONGIBJNA@?$AAe?$AAn?$AA?9?$AAt?$AAt@ 100244e4     libucrt:lcidtoname_downlevel.obj
 0002:000054f0       ??_C@_1M@LLODPCMM@?$AAe?$AAn?$AA?9?$AAu?$AAs@ 100244f0     libucrt:lcidtoname_downlevel.obj
 0002:000054fc       ??_C@_1M@LAKFNPAN@?$AAe?$AAn?$AA?9?$AAz?$AAa@ 100244fc     libucrt:lcidtoname_downlevel.obj
 0002:00005508       ??_C@_1M@MFNHNHEO@?$AAe?$AAn?$AA?9?$AAz?$AAw@ 10024508     libucrt:lcidtoname_downlevel.obj
 0002:00005514       ??_C@_1M@EJEINPHM@?$AAe?$AAs?$AA?9?$AAa?$AAr@ 10024514     libucrt:lcidtoname_downlevel.obj
 0002:00005520       ??_C@_1M@GNKPCCJA@?$AAe?$AAs?$AA?9?$AAb?$AAo@ 10024520     libucrt:lcidtoname_downlevel.obj
 0002:0000552c       ??_C@_1M@LEEGFONL@?$AAe?$AAs?$AA?9?$AAc?$AAl@ 1002452c     libucrt:lcidtoname_downlevel.obj
 0002:00005538       ??_C@_1M@KGPDPBDF@?$AAe?$AAs?$AA?9?$AAc?$AAo@ 10024538     libucrt:lcidtoname_downlevel.obj
 0002:00005544       ??_C@_1M@EIAHOHH@?$AAe?$AAs?$AA?9?$AAc?$AAr@ 10024544     libucrt:lcidtoname_downlevel.obj
 0002:00005550       ??_C@_1M@LLPGMBIN@?$AAe?$AAs?$AA?9?$AAd?$AAo@ 10024550     libucrt:lcidtoname_downlevel.obj
 0002:0000555c       ??_C@_1M@DKHMKNJA@?$AAe?$AAs?$AA?9?$AAe?$AAc@ 1002455c     libucrt:lcidtoname_downlevel.obj
 0002:00005568       ??_C@_1M@GKGFPKAP@?$AAe?$AAs?$AA?9?$AAe?$AAs@ 10024568     libucrt:lcidtoname_downlevel.obj
 0002:00005574       ??_C@_1M@LKHKGDLN@?$AAe?$AAs?$AA?9?$AAg?$AAt@ 10024574     libucrt:lcidtoname_downlevel.obj
 0002:00005580       ??_C@_1M@HEIIGGJD@?$AAe?$AAs?$AA?9?$AAh?$AAn@ 10024580     libucrt:lcidtoname_downlevel.obj
 0002:0000558c       ??_C@_1M@FBDHPPGD@?$AAe?$AAs?$AA?9?$AAm?$AAx@ 1002458c     libucrt:lcidtoname_downlevel.obj
 0002:00005598       ??_C@_1M@DPAGLNDH@?$AAe?$AAs?$AA?9?$AAn?$AAi@ 10024598     libucrt:lcidtoname_downlevel.obj
 0002:000055a4       ??_C@_1M@MDGOPGDD@?$AAe?$AAs?$AA?9?$AAp?$AAa@ 100245a4     libucrt:lcidtoname_downlevel.obj
 0002:000055b0       ??_C@_1M@EMAMGBGE@?$AAe?$AAs?$AA?9?$AAp?$AAe@ 100245b0     libucrt:lcidtoname_downlevel.obj
 0002:000055bc       ??_C@_1M@IBMCAOEC@?$AAe?$AAs?$AA?9?$AAp?$AAr@ 100245bc     libucrt:lcidtoname_downlevel.obj
 0002:000055c8       ??_C@_1M@FGMDIJED@?$AAe?$AAs?$AA?9?$AAp?$AAy@ 100245c8     libucrt:lcidtoname_downlevel.obj
 0002:000055d4       ??_C@_1M@IIDEOLLL@?$AAe?$AAs?$AA?9?$AAs?$AAv@ 100245d4     libucrt:lcidtoname_downlevel.obj
 0002:000055e0       ??_C@_1M@GAOBIPA@?$AAe?$AAs?$AA?9?$AAu?$AAy@ 100245e0     libucrt:lcidtoname_downlevel.obj
 0002:000055ec       ??_C@_1M@JKFFICHJ@?$AAe?$AAs?$AA?9?$AAv?$AAe@ 100245ec     libucrt:lcidtoname_downlevel.obj
 0002:000055f8       ??_C@_1M@PNMLOJDF@?$AAe?$AAt?$AA?9?$AAe?$AAe@ 100245f8     libucrt:lcidtoname_downlevel.obj
 0002:00005604       ??_C@_1M@GHHLIKEI@?$AAe?$AAu?$AA?9?$AAe?$AAs@ 10024604     libucrt:lcidtoname_downlevel.obj
 0002:00005610       ??_C@_1M@PBNONODE@?$AAf?$AAa?$AA?9?$AAi?$AAr@ 10024610     libucrt:lcidtoname_downlevel.obj
 0002:0000561c       ??_C@_1M@JEEHPMIL@?$AAf?$AAi?$AA?9?$AAf?$AAi@ 1002461c     libucrt:lcidtoname_downlevel.obj
 0002:00005628       ??_C@_1M@LMDCNDBA@?$AAf?$AAo?$AA?9?$AAf?$AAo@ 10024628     libucrt:lcidtoname_downlevel.obj
 0002:00005634       ??_C@_1M@JKEOHLDK@?$AAf?$AAr?$AA?9?$AAb?$AAe@ 10024634     libucrt:lcidtoname_downlevel.obj
 0002:00005640       ??_C@_1M@NOHADPMI@?$AAf?$AAr?$AA?9?$AAc?$AAa@ 10024640     libucrt:lcidtoname_downlevel.obj
 0002:0000564c       ??_C@_1M@KDHIHAEC@?$AAf?$AAr?$AA?9?$AAc?$AAh@ 1002464c     libucrt:lcidtoname_downlevel.obj
 0002:00005658       ??_C@_1M@MMBBFGAK@?$AAf?$AAr?$AA?9?$AAf?$AAr@ 10024658     libucrt:lcidtoname_downlevel.obj
 0002:00005664       ??_C@_1M@PAFNENNF@?$AAf?$AAr?$AA?9?$AAl?$AAu@ 10024664     libucrt:lcidtoname_downlevel.obj
 0002:00005670       ??_C@_1M@EOHDJGDD@?$AAf?$AAr?$AA?9?$AAm?$AAc@ 10024670     libucrt:lcidtoname_downlevel.obj
 0002:0000567c       ??_C@_1M@FAPLLOPF@?$AAg?$AAl?$AA?9?$AAe?$AAs@ 1002467c     libucrt:lcidtoname_downlevel.obj
 0002:00005688       ??_C@_1M@FOPBFLOO@?$AAg?$AAu?$AA?9?$AAi?$AAn@ 10024688     libucrt:lcidtoname_downlevel.obj
 0002:00005694       ??_C@_1M@KBMCINPM@?$AAh?$AAe?$AA?9?$AAi?$AAl@ 10024694     libucrt:lcidtoname_downlevel.obj
 0002:000056a0       ??_C@_1M@BBPHKFPJ@?$AAh?$AAi?$AA?9?$AAi?$AAn@ 100246a0     libucrt:lcidtoname_downlevel.obj
 0002:000056ac       ??_C@_1M@PMBNDPHD@?$AAh?$AAr?$AA?9?$AAb?$AAa@ 100246ac     libucrt:lcidtoname_downlevel.obj
 0002:000056b8       ??_C@_1M@BPCKOEGE@?$AAh?$AAr?$AA?9?$AAh?$AAr@ 100246b8     libucrt:lcidtoname_downlevel.obj
 0002:000056c4       ??_C@_1M@GACBMHKE@?$AAh?$AAu?$AA?9?$AAh?$AAu@ 100246c4     libucrt:lcidtoname_downlevel.obj
 0002:000056d0       ??_C@_1M@MILPAJJC@?$AAh?$AAy?$AA?9?$AAa?$AAm@ 100246d0     libucrt:lcidtoname_downlevel.obj
 0002:000056dc       ??_C@_1M@BABBICEC@?$AAi?$AAd?$AA?9?$AAi?$AAd@ 100246dc     libucrt:lcidtoname_downlevel.obj
 0002:000056e8       ??_C@_1M@BIKNHHPF@?$AAi?$AAs?$AA?9?$AAi?$AAs@ 100246e8     libucrt:lcidtoname_downlevel.obj
 0002:000056f4       ??_C@_1M@NMPCJPHE@?$AAi?$AAt?$AA?9?$AAc?$AAh@ 100246f4     libucrt:lcidtoname_downlevel.obj
 0002:00005700       ??_C@_1M@GHKGFEDF@?$AAi?$AAt?$AA?9?$AAi?$AAt@ 10024700     libucrt:lcidtoname_downlevel.obj
 0002:0000570c       ??_C@_1M@NIEJCJJA@?$AAj?$AAa?$AA?9?$AAj?$AAp@ 1002470c     libucrt:lcidtoname_downlevel.obj
 0002:00005718       ??_C@_1M@JILFNBIM@?$AAk?$AAa?$AA?9?$AAg?$AAe@ 10024718     libucrt:lcidtoname_downlevel.obj
 0002:00005724       ??_C@_1M@PACPMGPH@?$AAk?$AAk?$AA?9?$AAk?$AAz@ 10024724     libucrt:lcidtoname_downlevel.obj
 0002:00005730       ??_C@_1M@IELFGMHA@?$AAk?$AAn?$AA?9?$AAi?$AAn@ 10024730     libucrt:lcidtoname_downlevel.obj
 0002:0000573c       ??_C@_1O@IBBJHCH@?$AAk?$AAo?$AAk?$AA?9?$AAi?$AAn@ 1002473c     libucrt:lcidtoname_downlevel.obj
 0002:0000574c       ??_C@_1M@DMHAEOGC@?$AAk?$AAo?$AA?9?$AAk?$AAr@ 1002474c     libucrt:lcidtoname_downlevel.obj
 0002:00005758       ??_C@_1M@HBAHBIGA@?$AAk?$AAy?$AA?9?$AAk?$AAg@ 10024758     libucrt:lcidtoname_downlevel.obj
 0002:00005764       ??_C@_1M@KPMILCJG@?$AAl?$AAt?$AA?9?$AAl?$AAt@ 10024764     libucrt:lcidtoname_downlevel.obj
 0002:00005770       ??_C@_1M@BDEKKCA@?$AAl?$AAv?$AA?9?$AAl?$AAv@ 10024770     libucrt:lcidtoname_downlevel.obj
 0002:0000577c       ??_C@_1M@ELCKCCJJ@?$AAm?$AAi?$AA?9?$AAn?$AAz@ 1002477c     libucrt:lcidtoname_downlevel.obj
 0002:00005788       ??_C@_1M@CBOOLAPA@?$AAm?$AAk?$AA?9?$AAm?$AAk@ 10024788     libucrt:lcidtoname_downlevel.obj
 0002:00005794       ??_C@_1M@GPHNBJKN@?$AAm?$AAl?$AA?9?$AAi?$AAn@ 10024794     libucrt:lcidtoname_downlevel.obj
 0002:000057a0       ??_C@_1M@PABJILIG@?$AAm?$AAn?$AA?9?$AAm?$AAn@ 100247a0     libucrt:lcidtoname_downlevel.obj
 0002:000057ac       ??_C@_1M@FGBKKIPG@?$AAm?$AAr?$AA?9?$AAi?$AAn@ 100247ac     libucrt:lcidtoname_downlevel.obj
 0002:000057b8       ??_C@_1M@NDBPDDAL@?$AAm?$AAs?$AA?9?$AAb?$AAn@ 100247b8     libucrt:lcidtoname_downlevel.obj
 0002:000057c4       ??_C@_1M@OPIHOOPI@?$AAm?$AAs?$AA?9?$AAm?$AAy@ 100247c4     libucrt:lcidtoname_downlevel.obj
 0002:000057d0       ??_C@_1M@PPDBCNFM@?$AAm?$AAt?$AA?9?$AAm?$AAt@ 100247d0     libucrt:lcidtoname_downlevel.obj
 0002:000057dc       ??_C@_1M@KDJDKMDD@?$AAn?$AAb?$AA?9?$AAn?$AAo@ 100247dc     libucrt:lcidtoname_downlevel.obj
 0002:000057e8       ??_C@_1M@KFCFLMJP@?$AAn?$AAl?$AA?9?$AAb?$AAe@ 100247e8     libucrt:lcidtoname_downlevel.obj
 0002:000057f4       ??_C@_1M@KPOPDDGO@?$AAn?$AAl?$AA?9?$AAn?$AAl@ 100247f4     libucrt:lcidtoname_downlevel.obj
 0002:00005800       ??_C@_1M@LJKPEMLN@?$AAn?$AAn?$AA?9?$AAn?$AAo@ 10024800     libucrt:lcidtoname_downlevel.obj
 0002:0000580c       ??_C@_1M@BDGHHBFL@?$AAn?$AAs?$AA?9?$AAz?$AAa@ 1002480c     libucrt:lcidtoname_downlevel.obj
 0002:00005818       ??_C@_1M@IDEHOAP@?$AAp?$AAa?$AA?9?$AAi?$AAn@ 10024818     libucrt:lcidtoname_downlevel.obj
 0002:00005824       ??_C@_1M@HDBKGOGH@?$AAp?$AAl?$AA?9?$AAp?$AAl@ 10024824     libucrt:lcidtoname_downlevel.obj
 0002:00005830       ??_C@_1M@LJLLCMEH@?$AAp?$AAt?$AA?9?$AAb?$AAr@ 10024830     libucrt:lcidtoname_downlevel.obj
 0002:0000583c       ??_C@_1M@NCMONAAL@?$AAp?$AAt?$AA?9?$AAp?$AAt@ 1002483c     libucrt:lcidtoname_downlevel.obj
 0002:00005848       ??_C@_1O@EAKMAJDN@?$AAq?$AAu?$AAz?$AA?9?$AAb?$AAo@ 10024848     libucrt:lcidtoname_downlevel.obj
 0002:00005858       ??_C@_1O@BHHPIGDN@?$AAq?$AAu?$AAz?$AA?9?$AAe?$AAc@ 10024858     libucrt:lcidtoname_downlevel.obj
 0002:00005868       ??_C@_1O@GBAPEKMJ@?$AAq?$AAu?$AAz?$AA?9?$AAp?$AAe@ 10024868     libucrt:lcidtoname_downlevel.obj
 0002:00005878       ??_C@_1M@CLGLEFBO@?$AAr?$AAo?$AA?9?$AAr?$AAo@ 10024878     libucrt:lcidtoname_downlevel.obj
 0002:00005884       ??_C@_1M@CEEDODME@?$AAr?$AAu?$AA?9?$AAr?$AAu@ 10024884     libucrt:lcidtoname_downlevel.obj
 0002:00005890       ??_C@_1M@HPKKKMPP@?$AAs?$AAa?$AA?9?$AAi?$AAn@ 10024890     libucrt:lcidtoname_downlevel.obj
 0002:0000589c       ??_C@_1M@BKMAIGOJ@?$AAs?$AAe?$AA?9?$AAf?$AAi@ 1002489c     libucrt:lcidtoname_downlevel.obj
 0002:000058a8       ??_C@_1M@NDPIFLFI@?$AAs?$AAe?$AA?9?$AAn?$AAo@ 100248a8     libucrt:lcidtoname_downlevel.obj
 0002:000058b4       ??_C@_1M@DANKKHJ@?$AAs?$AAe?$AA?9?$AAs?$AAe@ 100248b4     libucrt:lcidtoname_downlevel.obj
 0002:000058c0       ??_C@_1M@PNBLONPJ@?$AAs?$AAk?$AA?9?$AAs?$AAk@ 100248c0     libucrt:lcidtoname_downlevel.obj
 0002:000058cc       ??_C@_1M@LFMODOAL@?$AAs?$AAl?$AA?9?$AAs?$AAi@ 100248cc     libucrt:lcidtoname_downlevel.obj
 0002:000058d8       ??_C@_1O@DFKOMPG@?$AAs?$AAm?$AAa?$AA?9?$AAn?$AAo@ 100248d8     libucrt:lcidtoname_downlevel.obj
 0002:000058e8       ??_C@_1O@NDKPBNNH@?$AAs?$AAm?$AAa?$AA?9?$AAs?$AAe@ 100248e8     libucrt:lcidtoname_downlevel.obj
 0002:000058f8       ??_C@_1O@PLLKBHAB@?$AAs?$AAm?$AAj?$AA?9?$AAn?$AAo@ 100248f8     libucrt:lcidtoname_downlevel.obj
 0002:00005908       ??_C@_1O@CLEPOGCA@?$AAs?$AAm?$AAj?$AA?9?$AAs?$AAe@ 10024908     libucrt:lcidtoname_downlevel.obj
 0002:00005918       ??_C@_1O@DLGJGKMK@?$AAs?$AAm?$AAn?$AA?9?$AAf?$AAi@ 10024918     libucrt:lcidtoname_downlevel.obj
 0002:00005928       ??_C@_1O@OJDJGAJC@?$AAs?$AAm?$AAs?$AA?9?$AAf?$AAi@ 10024928     libucrt:lcidtoname_downlevel.obj
 0002:00005938       ??_C@_1M@BOFOGHPB@?$AAs?$AAq?$AA?9?$AAa?$AAl@ 10024938     libucrt:lcidtoname_downlevel.obj
 0002:00005944       ??_C@_1BG@LJBBIPGB@?$AAs?$AAr?$AA?9?$AAb?$AAa?$AA?9?$AAc?$AAy?$AAr?$AAl@ 10024944     libucrt:lcidtoname_downlevel.obj
 0002:0000595c       ??_C@_1BG@JLBENFOE@?$AAs?$AAr?$AA?9?$AAb?$AAa?$AA?9?$AAl?$AAa?$AAt?$AAn@ 1002495c     libucrt:lcidtoname_downlevel.obj
 0002:00005974       ??_C@_1BG@KODPNHE@?$AAs?$AAr?$AA?9?$AAs?$AAp?$AA?9?$AAc?$AAy?$AAr?$AAl@ 10024974     libucrt:lcidtoname_downlevel.obj
 0002:0000598c       ??_C@_1BG@CIOGKHPB@?$AAs?$AAr?$AA?9?$AAs?$AAp?$AA?9?$AAl?$AAa?$AAt?$AAn@ 1002498c     libucrt:lcidtoname_downlevel.obj
 0002:000059a4       ??_C@_1M@NGFJLMAC@?$AAs?$AAv?$AA?9?$AAf?$AAi@ 100249a4     libucrt:lcidtoname_downlevel.obj
 0002:000059b0       ??_C@_1M@MPJEJAJC@?$AAs?$AAv?$AA?9?$AAs?$AAe@ 100249b0     libucrt:lcidtoname_downlevel.obj
 0002:000059bc       ??_C@_1M@MPNDHLFK@?$AAs?$AAw?$AA?9?$AAk?$AAe@ 100249bc     libucrt:lcidtoname_downlevel.obj
 0002:000059c8       ??_C@_1O@KOHBJJI@?$AAs?$AAy?$AAr?$AA?9?$AAs?$AAy@ 100249c8     libucrt:lcidtoname_downlevel.obj
 0002:000059d8       ??_C@_1M@LDCEFHA@?$AAt?$AAa?$AA?9?$AAi?$AAn@ 100249d8     libucrt:lcidtoname_downlevel.obj
 0002:000059e4       ??_C@_1M@CNJOFAK@?$AAt?$AAe?$AA?9?$AAi?$AAn@ 100249e4     libucrt:lcidtoname_downlevel.obj
 0002:000059f0       ??_C@_1M@GNAECACD@?$AAt?$AAh?$AA?9?$AAt?$AAh@ 100249f0     libucrt:lcidtoname_downlevel.obj
 0002:000059fc       ??_C@_1M@CHBIHOJO@?$AAt?$AAn?$AA?9?$AAz?$AAa@ 100249fc     libucrt:lcidtoname_downlevel.obj
 0002:00005a08       ??_C@_1M@GCCMIGPJ@?$AAt?$AAr?$AA?9?$AAt?$AAr@ 10024a08     libucrt:lcidtoname_downlevel.obj
 0002:00005a14       ??_C@_1M@CELMCNBK@?$AAt?$AAt?$AA?9?$AAr?$AAu@ 10024a14     libucrt:lcidtoname_downlevel.obj
 0002:00005a20       ??_C@_1M@KLMCELGA@?$AAu?$AAk?$AA?9?$AAu?$AAa@ 10024a20     libucrt:lcidtoname_downlevel.obj
 0002:00005a2c       ??_C@_1M@EPAJJAJF@?$AAu?$AAr?$AA?9?$AAp?$AAk@ 10024a2c     libucrt:lcidtoname_downlevel.obj
 0002:00005a38       ??_C@_1BG@GEGPMCDJ@?$AAu?$AAz?$AA?9?$AAu?$AAz?$AA?9?$AAc?$AAy?$AAr?$AAl@ 10024a38     libucrt:lcidtoname_downlevel.obj
 0002:00005a50       ??_C@_1BG@EGGKJILM@?$AAu?$AAz?$AA?9?$AAu?$AAz?$AA?9?$AAl?$AAa?$AAt?$AAn@ 10024a50     libucrt:lcidtoname_downlevel.obj
 0002:00005a68       ??_C@_1M@GFOCLFF@?$AAv?$AAi?$AA?9?$AAv?$AAn@ 10024a68     libucrt:lcidtoname_downlevel.obj
 0002:00005a74       ??_C@_1M@CPAMEDFI@?$AAx?$AAh?$AA?9?$AAz?$AAa@ 10024a74     libucrt:lcidtoname_downlevel.obj
 0002:00005a80       ??_C@_1O@EBKIFIGN@?$AAz?$AAh?$AA?9?$AAc?$AAh?$AAs@ 10024a80     libucrt:lcidtoname_downlevel.obj
 0002:00005a90       ??_C@_1O@NMHPGANE@?$AAz?$AAh?$AA?9?$AAc?$AAh?$AAt@ 10024a90     libucrt:lcidtoname_downlevel.obj
 0002:00005aa0       ??_C@_1M@LPINJOMC@?$AAz?$AAh?$AA?9?$AAc?$AAn@ 10024aa0     libucrt:lcidtoname_downlevel.obj
 0002:00005aac       ??_C@_1M@OCJEJODD@?$AAz?$AAh?$AA?9?$AAh?$AAk@ 10024aac     libucrt:lcidtoname_downlevel.obj
 0002:00005ab8       ??_C@_1M@DNDLJINH@?$AAz?$AAh?$AA?9?$AAm?$AAo@ 10024ab8     libucrt:lcidtoname_downlevel.obj
 0002:00005ac4       ??_C@_1M@MBFDNDND@?$AAz?$AAh?$AA?9?$AAs?$AAg@ 10024ac4     libucrt:lcidtoname_downlevel.obj
 0002:00005ad0       ??_C@_1M@IMEPLEPE@?$AAz?$AAh?$AA?9?$AAt?$AAw@ 10024ad0     libucrt:lcidtoname_downlevel.obj
 0002:00005adc       ??_C@_1M@BBGHNHJP@?$AAz?$AAu?$AA?9?$AAz?$AAa@ 10024adc     libucrt:lcidtoname_downlevel.obj
 0002:00005ae8       ?large_power_data@?1??multiply_by_power_of_ten@__crt_strtox@@YA_NAAUbig_integer@2@I@Z@4QBIB 10024ae8     libucrt:cfout.obj
 0002:00006488       ?small_powers_of_ten@?1??multiply_by_power_of_ten@__crt_strtox@@YA_NAAUbig_integer@2@I@Z@4QBIB 10025488     libucrt:cfout.obj
 0002:000064ac       ??_C@_01GBGANLPD@0@        100254ac     libucrt:cfout.obj
 0002:000064b0       ??_C@_05DNEBIAHO@1?$CDINF@ 100254b0     libucrt:cfout.obj
 0002:000064b8       ??_C@_06IMKFLFPG@1?$CDQNAN@ 100254b8     libucrt:cfout.obj
 0002:000064c0       ??_C@_06PGGFOGJG@1?$CDSNAN@ 100254c0     libucrt:cfout.obj
 0002:000064c8       ??_C@_05PHHOCPM@1?$CDIND@  100254c8     libucrt:cfout.obj
 0002:00006630       __infinity                 10025630     libucrt:87tran.obj
 0002:0000663a       __minfinity                1002563a     libucrt:87tran.obj
 0002:00006644       __logemax                  10025644     libucrt:87tran.obj
 0002:0000666a       __OP_EXPjmptab             1002566a     libucrt:87tran.obj
 0002:00006690       __indefinite               10025690     libucrt:87disp.obj
 0002:0000669a       __piby2                    1002569a     libucrt:87disp.obj
 0002:000066a4       __piby4                    100256a4     libucrt:87disp.obj
 0002:000066d8       __DEFAULT_CW_in_mem        100256d8     libucrt:common.obj
 0002:000066da       __pi_by_2_to_61            100256da     libucrt:common.obj
 0002:00006714       ??_C@_03MGHMBJCF@log@      10025714     libucrt:libm_error.obj
 0002:00006718       ??_C@_05HGHHAHAP@log10@    10025718     libucrt:libm_error.obj
 0002:00006720       ??_C@_03KHJOGHMM@exp@      10025720     libucrt:libm_error.obj
 0002:00006724       ??_C@_03JGHBODFD@pow@      10025724     libucrt:libm_error.obj
 0002:00006728       ??_C@_04FIHNOPOL@asin@     10025728     libucrt:libm_error.obj
 0002:00006730       ??_C@_04PDIFKINK@acos@     10025730     libucrt:libm_error.obj
 0002:00006738       ??_C@_04EIAKFFMI@sqrt@     10025738     libucrt:libm_error.obj
 0002:00006740       __real@3ff0000000000000    10025740     libucrt:libm_error.obj
 0002:00006748       ??_C@_1BA@BALFACEM@?$AAC?$AAO?$AAN?$AAO?$AAU?$AAT?$AA$@ 10025748     libucrt:initcon.obj
 0002:00006770       ___acrt_log10_table_t      10025770     libucrt:log10_tables.obj
 0002:00006b80       ___acrt_log10_table_cb     10025b80     libucrt:log10_tables.obj
 0002:00006f90       __real@3fe0000000000000    10025f90     libucrt:powhlp.obj
 0002:00007080       ??_C@_04COOMCNPB@sinh@     10026080     libucrt:fpexcept.obj
 0002:00007088       ??_C@_04HPJJNFIM@cosh@     10026088     libucrt:fpexcept.obj
 0002:00007090       ??_C@_04FJHINJAO@tanh@     10026090     libucrt:fpexcept.obj
 0002:00007098       ??_C@_04MLLJIGOK@atan@     10026098     libucrt:fpexcept.obj
 0002:000070a0       ??_C@_05KNGEOGJB@atan2@    100260a0     libucrt:fpexcept.obj
 0002:000070a8       ??_C@_03BLEJJJBH@sin@      100260a8     libucrt:fpexcept.obj
 0002:000070ac       ??_C@_03LALBNOCG@cos@      100260ac     libucrt:fpexcept.obj
 0002:000070b0       ??_C@_03IIINPABG@tan@      100260b0     libucrt:fpexcept.obj
 0002:000070b4       ??_C@_04GFPJNGEK@ceil@     100260b4     libucrt:fpexcept.obj
 0002:000070bc       ??_C@_05PBJFFIGL@floor@    100260bc     libucrt:fpexcept.obj
 0002:000070c4       ??_C@_04ODHECPBC@fabs@     100260c4     libucrt:fpexcept.obj
 0002:000070cc       ??_C@_04EHEDPDJG@modf@     100260cc     libucrt:fpexcept.obj
 0002:000070d4       ??_C@_05CEJMAHNP@ldexp@    100260d4     libucrt:fpexcept.obj
 0002:000070dc       ??_C@_05KBKMEMPO@_cabs@    100260dc     libucrt:fpexcept.obj
 0002:000070e4       ??_C@_06MEIMCGCF@_hypot@   100260e4     libucrt:fpexcept.obj
 0002:000070ec       ??_C@_04KEPJIHGP@fmod@     100260ec     libucrt:fpexcept.obj
 0002:000070f4       ??_C@_05GKKHEGJL@frexp@    100260f4     libucrt:fpexcept.obj
 0002:000070fc       ??_C@_03MJLDFKDL@_y0@      100260fc     libucrt:fpexcept.obj
 0002:00007100       ??_C@_03NAKIGLHK@_y1@      10026100     libucrt:fpexcept.obj
 0002:00007104       ??_C@_03ONILCKOB@_yn@      10026104     libucrt:fpexcept.obj
 0002:00007108       ??_C@_05JGDBENOH@_logb@    10026108     libucrt:fpexcept.obj
 0002:00007110       ??_C@_0L@KDOEJCKC@_nextafter@ 10026110     libucrt:fpexcept.obj
 0002:00007120       __d_inf                    10026120     libucrt:util.obj
 0002:00007128       __d_max                    10026128     libucrt:util.obj
 0002:00007130       __d_mzero                  10026130     libucrt:util.obj
 0002:000071a8       __load_config_used         100261a8     LIBCMT:loadcfg.obj
 0002:0000724c       __tls_used                 1002624c     LIBCMT:tlssup.obj
 0002:00007264       ??_R4exception@std@@6B@    10026264     LIBCMT:throw_bad_alloc.obj
 0002:00007278       ??_R3exception@std@@8      10026278     LIBCMT:throw_bad_alloc.obj
 0002:00007288       ??_R2exception@std@@8      10026288     LIBCMT:throw_bad_alloc.obj
 0002:00007290       ??_R1A@?0A@EA@exception@std@@8 10026290     LIBCMT:throw_bad_alloc.obj
 0002:000072ac       ??_R4bad_alloc@std@@6B@    100262ac     LIBCMT:throw_bad_alloc.obj
 0002:000072c0       ??_R3bad_alloc@std@@8      100262c0     LIBCMT:throw_bad_alloc.obj
 0002:000072d0       ??_R2bad_alloc@std@@8      100262d0     LIBCMT:throw_bad_alloc.obj
 0002:000072dc       ??_R1A@?0A@EA@bad_alloc@std@@8 100262dc     LIBCMT:throw_bad_alloc.obj
 0002:000072f8       ??_R4bad_array_new_length@std@@6B@ 100262f8     LIBCMT:throw_bad_alloc.obj
 0002:0000730c       ??_R3bad_array_new_length@std@@8 1002630c     LIBCMT:throw_bad_alloc.obj
 0002:0000731c       ??_R2bad_array_new_length@std@@8 1002631c     LIBCMT:throw_bad_alloc.obj
 0002:0000732c       ??_R1A@?0A@EA@bad_array_new_length@std@@8 1002632c     LIBCMT:throw_bad_alloc.obj
 0002:00007348       ??_R4type_info@@6B@        10026348     LIBCMT:std_type_info_static.obj
 0002:0000735c       ??_R3type_info@@8          1002635c     LIBCMT:std_type_info_static.obj
 0002:0000736c       ??_R2type_info@@8          1002636c     LIBCMT:std_type_info_static.obj
 0002:00007374       ??_R1A@?0A@EA@type_info@@8 10026374     LIBCMT:std_type_info_static.obj
 0002:00007390       ??_R4bad_exception@std@@6B@ 10026390     libvcruntime:frame.obj
 0002:000073a4       ??_R3bad_exception@std@@8  100263a4     libvcruntime:frame.obj
 0002:000073b4       ??_R2bad_exception@std@@8  100263b4     libvcruntime:frame.obj
 0002:000073c0       ??_R1A@?0A@EA@bad_exception@std@@8 100263c0     libvcruntime:frame.obj
 0002:000073e0       ___safe_se_handler_table   100263e0     <linker-defined>
 0002:000077d8       ___rtc_iaa                 100267d8     LIBCMT:initsect.obj
 0002:000077dc       ___rtc_izz                 100267dc     LIBCMT:initsect.obj
 0002:000077e0       ___rtc_taa                 100267e0     LIBCMT:initsect.obj
 0002:000077e4       ___rtc_tzz                 100267e4     LIBCMT:initsect.obj
 0002:000077e8       __tls_start                100267e8     LIBCMT:tlssup.obj
 0002:000077ec       __Init_thread_epoch        100267ec     LIBCMT:thread_safe_statics.obj
 0002:000077f0       __tls_end                  100267f0     LIBCMT:tlssup.obj
 0002:000078f4       __TI2?AVbad_alloc@std@@    100268f4     LIBCMT:throw_bad_alloc.obj
 0002:00007904       __CTA2?AVbad_alloc@std@@   10026904     LIBCMT:throw_bad_alloc.obj
 0002:00007910       __CT??_R0?AVbad_alloc@std@@@8??0bad_alloc@std@@QAE@ABV01@@Z12 10026910     LIBCMT:throw_bad_alloc.obj
 0002:0000792c       __CT??_R0?AVexception@std@@@8??0exception@std@@QAE@ABV01@@Z12 1002692c     LIBCMT:throw_bad_alloc.obj
 0002:00007948       __TI3?AVbad_array_new_length@std@@ 10026948     LIBCMT:throw_bad_alloc.obj
 0002:00007958       __CTA3?AVbad_array_new_length@std@@ 10026958     LIBCMT:throw_bad_alloc.obj
 0002:00007968       __CT??_R0?AVbad_array_new_length@std@@@8??0bad_array_new_length@std@@QAE@ABV01@@Z12 10026968     LIBCMT:throw_bad_alloc.obj
 0002:00007a8c       __TI2?AVbad_exception@std@@ 10026a8c     libvcruntime:frame.obj
 0002:00007a9c       __CTA2?AVbad_exception@std@@ 10026a9c     libvcruntime:frame.obj
 0002:00007aa8       __CT??_R0?AVbad_exception@std@@@8??0bad_exception@std@@QAE@ABV01@@Z12 10026aa8     libvcruntime:frame.obj
 0002:00007e04       ___pobjMapEntryFirst       10026e04     OposVariant.obj
 0002:00007e08       ___pobjMapEntryLast        10026e08     OposVariant.obj
 0002:00007ebc       __IMPORT_DESCRIPTOR_KERNEL32 10026ebc     kernel32:KERNEL32.dll
 0002:00007ed0       __IMPORT_DESCRIPTOR_USER32 10026ed0     user32:USER32.dll
 0002:00007ee4       __IMPORT_DESCRIPTOR_GDI32  10026ee4     gdi32:GDI32.dll
 0002:00007ef8       __IMPORT_DESCRIPTOR_ADVAPI32 10026ef8     advapi32:ADVAPI32.dll
 0002:00007f0c       __IMPORT_DESCRIPTOR_ole32  10026f0c     ole32:ole32.dll
 0002:00007f20       __IMPORT_DESCRIPTOR_OLEAUT32 10026f20     oleaut32:OLEAUT32.dll
 0002:00007f34       __NULL_IMPORT_DESCRIPTOR   10026f34     kernel32:KERNEL32.dll
 0003:00000000       ?s_Claim@?7??GetIDsOfNames@CComTypeInfoHolder@ATL@@QAEJABU_GUID@@PAPA_WIKPAJ@Z@4PA_WA 10028000     POSPower.obj
 0003:00000018       ?s_Release@?7??GetIDsOfNames@CComTypeInfoHolder@ATL@@QAEJABU_GUID@@PAPA_WIKPAJ@Z@4PA_WA 10028018     POSPower.obj
 0003:00000034       ?_tih@?$IDispatchImpl@UIOPOSPOSPower@@$1?IID_IOPOSPOSPower@@3U_GUID@@B$1?LIBID_OposPOSPower_CCO@@3U3@B$00$0A@VCComTypeInfoHolder@ATL@@@ATL@@1VCComTypeInfoHolder@2@A 10028034     POSPower.obj
 0003:00000050       ?_tih@?$IProvideClassInfo2Impl@$1?CLSID_OPOSPOSPower@@3U_GUID@@B$1?DIID__IOPOSPOSPowerEvents@@3U2@B$1?LIBID_OposPOSPower_CCO@@3U2@B$00$0A@VCComTypeInfoHolder@ATL@@@ATL@@1VCComTypeInfoHolder@2@A 10028050     POSPower.obj
 0003:0000006c       ?vszContents@?6??Save@?$IPersistStorageImpl@VCOPOSPOSPower@@@ATL@@UAGJPAUIStorage@@H@Z@4PB_WB 1002806c     POSPower.obj
 0003:00000070       ?wc@?1??GetWndClassInfo@?$CWindowImpl@VCOPOSPOSPower@@VCWindow@ATL@@V?$CWinTraits@$0FGAAAAAA@$0A@@3@@ATL@@SAAAU_ATL_WNDCLASSINFOW@3@XZ@4U43@A 10028070     POSPower.obj
 0003:000000fc       ?rcDefault@CWindow@ATL@@2UtagRECT@@A 100280fc     POSPower.obj
 0003:00000158       ?g_WindowName@@3PA_WA      10028158     POSPowerImpl.obj
 0003:00000178       ?g_ControlDescription@@3PADA 10028178     POSPowerImpl.obj
 0003:000001c0       ?g_ControlVersion@@3JA     100281c0     POSPowerImpl.obj
 0003:0000022c       ___scrt_native_dllmain_reason 1002822c     LIBCMT:utility.obj
 0003:00000230       __Init_global_epoch        10028230     LIBCMT:thread_safe_statics.obj
 0003:00000240       ___security_cookie_complement 10028240     LIBCMT:gs_cookie.obj
 0003:00000244       ___security_cookie         10028244     LIBCMT:gs_cookie.obj
 0003:00000248       ___isa_enabled             10028248     LIBCMT:cpu_disp.obj
 0003:00000260       __NLG_Destination          10028260     libvcruntime:exsup.obj
 0003:00000278       ___abort_behavior          10028278     libucrt:abort.obj
 0003:00000288       __iob                      10028288     libucrt:_file.obj
 0003:00000330       ___acrt_initial_locale_data 10028330     libucrt:nlsdata.obj
 0003:000003e8       ___acrt_initial_locale_pointers 100283e8     libucrt:nlsdata.obj
 0003:000003f0       ___acrt_wide_c_locale_string 100283f0     libucrt:nlsdata.obj
 0003:000003f8       ___acrt_initial_multibyte_data 100283f8     libucrt:mbctype.obj
 0003:00000918       __pwctype                  10028918     libucrt:ctype.obj
 0003:0000091c       ___globallocalestatus      1002891c     libucrt:glstatus.obj
 0003:00000920       ___acrt_lconv_c            10028920     libucrt:localeconv.obj
 0003:00000970       ___acrt_lconv_static_decimal 10028970     libucrt:localeconv.obj
 0003:00000974       ___acrt_lconv_static_W_decimal 10028974     libucrt:localeconv.obj
 0003:00000980       __lookuptrailbytes         10028980     libucrt:read.obj
 0003:00000a90       __fltused                  10028a90     LIBCMT:fltused.obj
 0003:00000aa0       ??_R0?AVbad_alloc@std@@@8  10028aa0     LIBCMT:throw_bad_alloc.obj
 0003:00000abc       ??_R0?AVexception@std@@@8  10028abc     LIBCMT:throw_bad_alloc.obj
 0003:00000ad8       ??_R0?AVbad_array_new_length@std@@@8 10028ad8     LIBCMT:throw_bad_alloc.obj
 0003:00000b00       ??_R0?AVtype_info@@@8      10028b00     LIBCMT:std_type_info_static.obj
 0003:00000b18       ??_R0?AVbad_exception@std@@@8 10028b18     libvcruntime:frame.obj
 0003:00000b38       ?_pPerfRegFunc@ATL@@3P6AJPAUHINSTANCE__@@@ZA 10028b38     OposVariant.obj
 0003:00000b3c       ?_pPerfUnRegFunc@ATL@@3P6AJXZA 10028b3c     OposVariant.obj
 0003:00000b40       ?_AtlRegisterPerUser@ATL@@3_NA 10028b40     OposVariant.obj
 0003:00000b44       ?_pAtlModule@ATL@@3PAVCAtlModule@1@A 10028b44     OposVariant.obj
 0003:00000b48       ?_pModule@ATL@@3PAVCComModule@1@A 10028b48     OposVariant.obj
 0003:00000b4c       ?m_bInitFailed@CAtlBaseModule@ATL@@2_NA 10028b4c     OposVariant.obj
 0003:00000b50       ?_AtlComModule@ATL@@3VCAtlComModule@1@A 10028b50     OposVariant.obj
 0003:00000b78       ?_AtlWinModule@ATL@@3VCAtlWinModule@1@A 10028b78     OposVariant.obj
 0003:00000ba4       ?m_libid@CAtlModule@ATL@@2U_GUID@@A 10028ba4     POSPower.obj
 0003:00000bb4       ?_entries@?1??GetConnMap@COPOSPOSPower@@SAPBU_ATL_CONNMAP_ENTRY@ATL@@PAH@Z@4QBU34@B 10028bb4     POSPower.obj
 0003:00000bc0       ?$TSS0@?1??GetConnMap@COPOSPOSPower@@SAPBU_ATL_CONNMAP_ENTRY@ATL@@PAH@Z@4HA 10028bc0     POSPower.obj
 0003:00000bc8       ?_OptionsStorage@?1??__local_stdio_printf_options@@9@4_KA 10028bc8     POSPower.obj
 0003:00000bd0       ?pfnRegDeleteKeyEx@?1??DeleteSubKey@CRegKey@ATL@@QAEJPB_W@Z@4P6GJPAUHKEY__@@0KK@ZA 10028bd0     POSPower.obj
 0003:00000bd4       ?bInitialized@?1??DeleteSubKey@CRegKey@ATL@@QAEJPB_W@Z@4_NA 10028bd4     POSPower.obj
 0003:00000bd8       ?_Module@@3VCComModule@ATL@@A 10028bd8     POSPower.obj
 0003:00000c08       ?pConnMap@?$IConnectionPointContainerImpl@VCOPOSPOSPower@@@ATL@@0PBU_ATL_CONNMAP_ENTRY@2@B 10028c08     POSPower.obj
 0003:00000c0c       ?s_nInstances@COPOSPOSPower@@1HA 10028c0c     POSPowerImpl.obj
 0003:00000c10       ___scrt_current_native_startup_state 10028c10     LIBCMT:utility.obj
 0003:00000c14       ___scrt_native_startup_lock 10028c14     LIBCMT:utility.obj
 0003:00000f7c       __tls_index                10028f7c     LIBCMT:tlssup.obj
 0003:00000f84       ___isa_available           10028f84     LIBCMT:cpu_disp.obj
 0003:00000f88       ___favor                   10028f88     LIBCMT:cpu_disp.obj
 0003:00000f8c       ___scrt_debugger_hook_flag 10028f8c     LIBCMT:utility_desktop.obj
 0003:00000f90       ?__type_info_root_node@@3U__type_info_node@@A 10028f90     LIBCMT:tncleanup.obj
 0003:00000f98       ?_OptionsStorage@?1??__local_stdio_scanf_options@@9@4_KA 10028f98     LIBCMT:default_local_stdio_options.obj
 0003:00000fa0       ?_AtlBaseModule@ATL@@3VCAtlBaseModule@1@A 10028fa0     atls:atlbase.obj
 0003:00000fd8       ?__AtlThunkPool@@3PAT_SLIST_HEADER@@A 10028fd8     atls:atlthunk.obj
 0003:00000ff0       ___@@_PchSym_@00@UztvmgUPdlipUGUhUrmgvinvwrzgvUexgllohUzgohOmzgrevkilqPBACIAJCBDBUlyqiUcIGUhgwzucOlyq@4B2008FD98C1DD4 10028ff0     atls:stdafx.obj
 0003:00000ff4       ?__WinRTOutOfMemoryExceptionCallback@@3P6GPAXXZA 10028ff4     libvcruntime:ehhelpers.obj
 0003:00000ff8       ___pPurecall               10028ff8     libvcruntime:purevirt_data.obj
 0003:00001040       ?pArgList@UnDecorator@@0PAVReplicator@@A 10029040     libvcruntime:undname.obj
 0003:00001044       ?pZNameList@UnDecorator@@0PAVReplicator@@A 10029044     libvcruntime:undname.obj
 0003:00001048       ?pTemplateArgList@UnDecorator@@0PAVReplicator@@A 10029048     libvcruntime:undname.obj
 0003:0000104c       ?gName@UnDecorator@@0PBDB  1002904c     libvcruntime:undname.obj
 0003:00001050       ?name@UnDecorator@@0PBDB   10029050     libvcruntime:undname.obj
 0003:00001054       ?disableFlags@UnDecorator@@0KA 10029054     libvcruntime:undname.obj
 0003:00001058       ?fExplicitTemplateParams@UnDecorator@@0_NA 10029058     libvcruntime:undname.obj
 0003:00001059       ?fGetTemplateArgumentList@UnDecorator@@0_NA 10029059     libvcruntime:undname.obj
 0003:0000105c       ?m_pGetParameter@UnDecorator@@0P6APADJ@ZA 1002905c     libvcruntime:undname.obj
 0003:00001060       ?m_CHPENameOffset@UnDecorator@@0KA 10029060     libvcruntime:undname.obj
 0003:00001064       ?m_recursionLevel@UnDecorator@@0KA 10029064     libvcruntime:undname.obj
 0003:000010a8       ?c_exit_complete@?1???R<lambda_6e4b09c48022b2350581041d5f6b0c4c>@@QBE@XZ@4_NA 100290a8     libucrt:exit.obj
 0003:000011b8       __environ_table            100291b8     libucrt:environment_initialization.obj
 0003:000011bc       __wenviron_table           100291bc     libucrt:environment_initialization.obj
 0003:000011c0       ___dcrt_initial_wide_environment 100291c0     libucrt:environment_initialization.obj
 0003:000011c4       ___dcrt_initial_narrow_environment 100291c4     libucrt:environment_initialization.obj
 0003:000011c8       ___acrt_atexit_table       100291c8     libucrt:onexit.obj
 0003:000011d4       ___acrt_at_quick_exit_table 100291d4     libucrt:onexit.obj
 0003:000012c8       __nstream                  100292c8     libucrt:_file.obj
 0003:000012cc       ___piob                    100292cc     libucrt:_file.obj
 0003:000012d4       ___acrt_stdout_buffer      100292d4     libucrt:_sftbuf.obj
 0003:000012d8       ___acrt_stderr_buffer      100292d8     libucrt:_sftbuf.obj
 0003:000012dc       ___acrt_locale_changed_data 100292dc     libucrt:wsetlocale.obj
 0003:000012e0       ___acrt_current_locale_data 100292e0     libucrt:nlsdata.obj
 0003:000012e8       ___pioinfo                 100292e8     libucrt:ioinit.obj
 0003:000014e8       __nhandle                  100294e8     libucrt:ioinit.obj
 0003:00001644       __mbctype                  10029644     libucrt:mbctype.obj
 0003:00001648       __mbcasemap                10029648     libucrt:mbctype.obj
 0003:0000164c       ___acrt_current_multibyte_data 1002964c     libucrt:mbctype.obj
 0003:00001658       __pgmptr                   10029658     libucrt:argv_data.obj
 0003:0000165c       ___argc                    1002965c     libucrt:argv_data.obj
 0003:00001660       ___argv                    10029660     libucrt:argv_data.obj
 0003:00001664       ___wargv                   10029664     libucrt:argv_data.obj
 0003:00001668       __acmdln                   10029668     libucrt:argv_data.obj
 0003:0000166c       __wcmdln                   1002966c     libucrt:argv_data.obj
 0003:00001670       ___acrt_heap               10029670     libucrt:heap_handle.obj
 0003:0000168c       ___acrt_lconv_static_null  1002968c     libucrt:localeconv.obj
 0003:00001690       ___acrt_lconv_static_W_null 10029690     libucrt:localeconv.obj
 0003:000016a0       ___fastflag                100296a0     libucrt:fp_flags.obj
 0003:000016a8       ___dyn_tls_init_callback   100296a8     <common>
 0003:000016ac       ___scrt_ucrt_dll_is_in_use 100296ac     <common>
 0003:000016b0       __pmatherr                 100296b0     <common>
 0003:000016b4       ___use_sse2_mathfcns       100296b4     <common>

 entry point at        0001:0000bb78

 Static symbols

 0000:fffcf000       .debug$S                   10000000     OPOSPOSPower.exp
 0000:fffcf000       .debug$S                   10000000     advapi32:ADVAPI32.dll
 0000:fffcf000       .debug$S                   10000000     advapi32:ADVAPI32.dll
 0000:fffcf000       .debug$S                   10000000     advapi32:ADVAPI32.dll
 0000:fffcf000       .debug$S                   10000000     advapi32:ADVAPI32.dll
 0000:fffcf000       .debug$S                   10000000     advapi32:ADVAPI32.dll
 0000:fffcf000       .debug$S                   10000000     advapi32:ADVAPI32.dll
 0000:fffcf000       .debug$S                   10000000     advapi32:ADVAPI32.dll
 0000:fffcf000       .debug$S                   10000000     advapi32:ADVAPI32.dll
 0000:fffcf000       .debug$S                   10000000     advapi32:ADVAPI32.dll
 0000:fffcf000       .debug$S                   10000000     gdi32:GDI32.dll
 0000:fffcf000       .debug$S                   10000000     gdi32:GDI32.dll
 0000:fffcf000       .debug$S                   10000000     gdi32:GDI32.dll
 0000:fffcf000       .debug$S                   10000000     gdi32:GDI32.dll
 0000:fffcf000       .debug$S                   10000000     gdi32:GDI32.dll
 0000:fffcf000       .debug$S                   10000000     gdi32:GDI32.dll
 0000:fffcf000       .debug$S                   10000000     gdi32:GDI32.dll
 0000:fffcf000       .debug$S                   10000000     gdi32:GDI32.dll
 0000:fffcf000       .debug$S                   10000000     gdi32:GDI32.dll
 0000:fffcf000       .debug$S                   10000000     gdi32:GDI32.dll
 0000:fffcf000       .debug$S                   10000000     gdi32:GDI32.dll
 0000:fffcf000       .debug$S                   10000000     gdi32:GDI32.dll
 0000:fffcf000       .debug$S                   10000000     gdi32:GDI32.dll
 0000:fffcf000       .debug$S                   10000000     gdi32:GDI32.dll
 0000:fffcf000       .debug$S                   10000000     gdi32:GDI32.dll
 0000:fffcf000       .debug$S                   10000000     gdi32:GDI32.dll
 0000:fffcf000       .debug$S                   10000000     gdi32:GDI32.dll
 0000:fffcf000       .debug$S                   10000000     gdi32:GDI32.dll
 0000:fffcf000       .debug$S                   10000000     gdi32:GDI32.dll
 0000:fffcf000       .debug$S                   10000000     kernel32:KERNEL32.dll
 0000:fffcf000       .debug$S                   10000000     kernel32:KERNEL32.dll
 0000:fffcf000       .debug$S                   10000000     kernel32:KERNEL32.dll
 0000:fffcf000       .debug$S                   10000000     kernel32:KERNEL32.dll
 0000:fffcf000       .debug$S                   10000000     kernel32:KERNEL32.dll
 0000:fffcf000       .debug$S                   10000000     kernel32:KERNEL32.dll
 0000:fffcf000       .debug$S                   10000000     kernel32:KERNEL32.dll
 0000:fffcf000       .debug$S                   10000000     kernel32:KERNEL32.dll
 0000:fffcf000       .debug$S                   10000000     kernel32:KERNEL32.dll
 0000:fffcf000       .debug$S                   10000000     kernel32:KERNEL32.dll
 0000:fffcf000       .debug$S                   10000000     kernel32:KERNEL32.dll
 0000:fffcf000       .debug$S                   10000000     kernel32:KERNEL32.dll
 0000:fffcf000       .debug$S                   10000000     kernel32:KERNEL32.dll
 0000:fffcf000       .debug$S                   10000000     kernel32:KERNEL32.dll
 0000:fffcf000       .debug$S                   10000000     kernel32:KERNEL32.dll
 0000:fffcf000       .debug$S                   10000000     kernel32:KERNEL32.dll
 0000:fffcf000       .debug$S                   10000000     kernel32:KERNEL32.dll
 0000:fffcf000       .debug$S                   10000000     kernel32:KERNEL32.dll
 0000:fffcf000       .debug$S                   10000000     kernel32:KERNEL32.dll
 0000:fffcf000       .debug$S                   10000000     kernel32:KERNEL32.dll
 0000:fffcf000       .debug$S                   10000000     kernel32:KERNEL32.dll
 0000:fffcf000       .debug$S                   10000000     kernel32:KERNEL32.dll
 0000:fffcf000       .debug$S                   10000000     kernel32:KERNEL32.dll
 0000:fffcf000       .debug$S                   10000000     kernel32:KERNEL32.dll
 0000:fffcf000       .debug$S                   10000000     kernel32:KERNEL32.dll
 0000:fffcf000       .debug$S                   10000000     kernel32:KERNEL32.dll
 0000:fffcf000       .debug$S                   10000000     kernel32:KERNEL32.dll
 0000:fffcf000       .debug$S                   10000000     kernel32:KERNEL32.dll
 0000:fffcf000       .debug$S                   10000000     kernel32:KERNEL32.dll
 0000:fffcf000       .debug$S                   10000000     kernel32:KERNEL32.dll
 0000:fffcf000       .debug$S                   10000000     kernel32:KERNEL32.dll
 0000:fffcf000       .debug$S                   10000000     kernel32:KERNEL32.dll
 0000:fffcf000       .debug$S                   10000000     kernel32:KERNEL32.dll
 0000:fffcf000       .debug$S                   10000000     kernel32:KERNEL32.dll
 0000:fffcf000       .debug$S                   10000000     kernel32:KERNEL32.dll
 0000:fffcf000       .debug$S                   10000000     kernel32:KERNEL32.dll
 0000:fffcf000       .debug$S                   10000000     kernel32:KERNEL32.dll
 0000:fffcf000       .debug$S                   10000000     kernel32:KERNEL32.dll
 0000:fffcf000       .debug$S                   10000000     kernel32:KERNEL32.dll
 0000:fffcf000       .debug$S                   10000000     kernel32:KERNEL32.dll
 0000:fffcf000       .debug$S                   10000000     kernel32:KERNEL32.dll
 0000:fffcf000       .debug$S                   10000000     kernel32:KERNEL32.dll
 0000:fffcf000       .debug$S                   10000000     kernel32:KERNEL32.dll
 0000:fffcf000       .debug$S                   10000000     kernel32:KERNEL32.dll
 0000:fffcf000       .debug$S                   10000000     kernel32:KERNEL32.dll
 0000:fffcf000       .debug$S                   10000000     kernel32:KERNEL32.dll
 0000:fffcf000       .debug$S                   10000000     kernel32:KERNEL32.dll
 0000:fffcf000       .debug$S                   10000000     kernel32:KERNEL32.dll
 0000:fffcf000       .debug$S                   10000000     kernel32:KERNEL32.dll
 0000:fffcf000       .debug$S                   10000000     kernel32:KERNEL32.dll
 0000:fffcf000       .debug$S                   10000000     kernel32:KERNEL32.dll
 0000:fffcf000       .debug$S                   10000000     kernel32:KERNEL32.dll
 0000:fffcf000       .debug$S                   10000000     kernel32:KERNEL32.dll
 0000:fffcf000       .debug$S                   10000000     kernel32:KERNEL32.dll
 0000:fffcf000       .debug$S                   10000000     kernel32:KERNEL32.dll
 0000:fffcf000       .debug$S                   10000000     kernel32:KERNEL32.dll
 0000:fffcf000       .debug$S                   10000000     kernel32:KERNEL32.dll
 0000:fffcf000       .debug$S                   10000000     kernel32:KERNEL32.dll
 0000:fffcf000       .debug$S                   10000000     kernel32:KERNEL32.dll
 0000:fffcf000       .debug$S                   10000000     kernel32:KERNEL32.dll
 0000:fffcf000       .debug$S                   10000000     kernel32:KERNEL32.dll
 0000:fffcf000       .debug$S                   10000000     kernel32:KERNEL32.dll
 0000:fffcf000       .debug$S                   10000000     kernel32:KERNEL32.dll
 0000:fffcf000       .debug$S                   10000000     kernel32:KERNEL32.dll
 0000:fffcf000       .debug$S                   10000000     kernel32:KERNEL32.dll
 0000:fffcf000       .debug$S                   10000000     kernel32:KERNEL32.dll
 0000:fffcf000       .debug$S                   10000000     kernel32:KERNEL32.dll
 0000:fffcf000       .debug$S                   10000000     kernel32:KERNEL32.dll
 0000:fffcf000       .debug$S                   10000000     kernel32:KERNEL32.dll
 0000:fffcf000       .debug$S                   10000000     kernel32:KERNEL32.dll
 0000:fffcf000       .debug$S                   10000000     kernel32:KERNEL32.dll
 0000:fffcf000       .debug$S                   10000000     kernel32:KERNEL32.dll
 0000:fffcf000       .debug$S                   10000000     kernel32:KERNEL32.dll
 0000:fffcf000       .debug$S                   10000000     kernel32:KERNEL32.dll
 0000:fffcf000       .debug$S                   10000000     kernel32:KERNEL32.dll
 0000:fffcf000       .debug$S                   10000000     kernel32:KERNEL32.dll
 0000:fffcf000       .debug$S                   10000000     kernel32:KERNEL32.dll
 0000:fffcf000       .debug$S                   10000000     kernel32:KERNEL32.dll
 0000:fffcf000       .debug$S                   10000000     kernel32:KERNEL32.dll
 0000:fffcf000       .debug$S                   10000000     kernel32:KERNEL32.dll
 0000:fffcf000       .debug$S                   10000000     kernel32:KERNEL32.dll
 0000:fffcf000       .debug$S                   10000000     kernel32:KERNEL32.dll
 0000:fffcf000       .debug$S                   10000000     kernel32:KERNEL32.dll
 0000:fffcf000       .debug$S                   10000000     kernel32:KERNEL32.dll
 0000:fffcf000       .debug$S                   10000000     kernel32:KERNEL32.dll
 0000:fffcf000       .debug$S                   10000000     kernel32:KERNEL32.dll
 0000:fffcf000       .debug$S                   10000000     kernel32:KERNEL32.dll
 0000:fffcf000       .debug$S                   10000000     kernel32:KERNEL32.dll
 0000:fffcf000       .debug$S                   10000000     kernel32:KERNEL32.dll
 0000:fffcf000       .debug$S                   10000000     kernel32:KERNEL32.dll
 0000:fffcf000       .debug$S                   10000000     kernel32:KERNEL32.dll
 0000:fffcf000       .debug$S                   10000000     kernel32:KERNEL32.dll
 0000:fffcf000       .debug$S                   10000000     kernel32:KERNEL32.dll
 0000:fffcf000       .debug$S                   10000000     kernel32:KERNEL32.dll
 0000:fffcf000       .debug$S                   10000000     kernel32:KERNEL32.dll
 0000:fffcf000       .debug$S                   10000000     kernel32:KERNEL32.dll
 0000:fffcf000       .debug$S                   10000000     kernel32:KERNEL32.dll
 0000:fffcf000       .debug$S                   10000000     kernel32:KERNEL32.dll
 0000:fffcf000       .debug$S                   10000000     kernel32:KERNEL32.dll
 0000:fffcf000       .debug$S                   10000000     kernel32:KERNEL32.dll
 0000:fffcf000       .debug$S                   10000000     kernel32:KERNEL32.dll
 0000:fffcf000       .debug$S                   10000000     kernel32:KERNEL32.dll
 0000:fffcf000       .debug$S                   10000000     kernel32:KERNEL32.dll
 0000:fffcf000       .debug$S                   10000000     kernel32:KERNEL32.dll
 0000:fffcf000       .debug$S                   10000000     kernel32:KERNEL32.dll
 0000:fffcf000       .debug$S                   10000000     kernel32:KERNEL32.dll
 0000:fffcf000       .debug$S                   10000000     ole32:ole32.dll
 0000:fffcf000       .debug$S                   10000000     ole32:ole32.dll
 0000:fffcf000       .debug$S                   10000000     ole32:ole32.dll
 0000:fffcf000       .debug$S                   10000000     ole32:ole32.dll
 0000:fffcf000       .debug$S                   10000000     ole32:ole32.dll
 0000:fffcf000       .debug$S                   10000000     ole32:ole32.dll
 0000:fffcf000       .debug$S                   10000000     ole32:ole32.dll
 0000:fffcf000       .debug$S                   10000000     ole32:ole32.dll
 0000:fffcf000       .debug$S                   10000000     ole32:ole32.dll
 0000:fffcf000       .debug$S                   10000000     ole32:ole32.dll
 0000:fffcf000       .debug$S                   10000000     ole32:ole32.dll
 0000:fffcf000       .debug$S                   10000000     ole32:ole32.dll
 0000:fffcf000       .debug$S                   10000000     ole32:ole32.dll
 0000:fffcf000       .debug$S                   10000000     ole32:ole32.dll
 0000:fffcf000       .debug$S                   10000000     oleaut32:OLEAUT32.dll
 0000:fffcf000       .debug$S                   10000000     oleaut32:OLEAUT32.dll
 0000:fffcf000       .debug$S                   10000000     oleaut32:OLEAUT32.dll
 0000:fffcf000       .debug$S                   10000000     oleaut32:OLEAUT32.dll
 0000:fffcf000       .debug$S                   10000000     oleaut32:OLEAUT32.dll
 0000:fffcf000       .debug$S                   10000000     oleaut32:OLEAUT32.dll
 0000:fffcf000       .debug$S                   10000000     oleaut32:OLEAUT32.dll
 0000:fffcf000       .debug$S                   10000000     oleaut32:OLEAUT32.dll
 0000:fffcf000       .debug$S                   10000000     oleaut32:OLEAUT32.dll
 0000:fffcf000       .debug$S                   10000000     oleaut32:OLEAUT32.dll
 0000:fffcf000       .debug$S                   10000000     oleaut32:OLEAUT32.dll
 0000:fffcf000       .debug$S                   10000000     oleaut32:OLEAUT32.dll
 0000:fffcf000       .debug$S                   10000000     oleaut32:OLEAUT32.dll
 0000:fffcf000       .debug$S                   10000000     oleaut32:OLEAUT32.dll
 0000:fffcf000       .debug$S                   10000000     oleaut32:OLEAUT32.dll
 0000:fffcf000       .debug$S                   10000000     oleaut32:OLEAUT32.dll
 0000:fffcf000       .debug$S                   10000000     user32:USER32.dll
 0000:fffcf000       .debug$S                   10000000     user32:USER32.dll
 0000:fffcf000       .debug$S                   10000000     user32:USER32.dll
 0000:fffcf000       .debug$S                   10000000     user32:USER32.dll
 0000:fffcf000       .debug$S                   10000000     user32:USER32.dll
 0000:fffcf000       .debug$S                   10000000     user32:USER32.dll
 0000:fffcf000       .debug$S                   10000000     user32:USER32.dll
 0000:fffcf000       .debug$S                   10000000     user32:USER32.dll
 0000:fffcf000       .debug$S                   10000000     user32:USER32.dll
 0000:fffcf000       .debug$S                   10000000     user32:USER32.dll
 0000:fffcf000       .debug$S                   10000000     user32:USER32.dll
 0000:fffcf000       .debug$S                   10000000     user32:USER32.dll
 0000:fffcf000       .debug$S                   10000000     user32:USER32.dll
 0000:fffcf000       .debug$S                   10000000     user32:USER32.dll
 0000:fffcf000       .debug$S                   10000000     user32:USER32.dll
 0000:fffcf000       .debug$S                   10000000     user32:USER32.dll
 0000:fffcf000       .debug$S                   10000000     user32:USER32.dll
 0000:fffcf000       .debug$S                   10000000     user32:USER32.dll
 0000:fffcf000       .debug$S                   10000000     user32:USER32.dll
 0000:fffcf000       .debug$S                   10000000     user32:USER32.dll
 0000:fffcf000       .debug$S                   10000000     user32:USER32.dll
 0000:fffcf000       .debug$S                   10000000     user32:USER32.dll
 0000:fffcf000       .debug$S                   10000000     user32:USER32.dll
 0000:fffcf000       .debug$S                   10000000     user32:USER32.dll
 0000:fffcf000       .debug$S                   10000000     user32:USER32.dll
 0000:fffcf000       .debug$S                   10000000     user32:USER32.dll
 0000:fffcf000       .debug$S                   10000000     user32:USER32.dll
 0000:fffcf000       .debug$S                   10000000     user32:USER32.dll
 0000:fffcf000       .debug$S                   10000000     user32:USER32.dll
 0000:fffcf000       .debug$S                   10000000     user32:USER32.dll
 0000:fffcf000       .debug$S                   10000000     user32:USER32.dll
 0000:fffcf000       .debug$S                   10000000     user32:USER32.dll
 0000:fffcf000       .debug$S                   10000000     user32:USER32.dll
 0000:fffcf000       .debug$S                   10000000     user32:USER32.dll
 0000:fffcf000       .debug$S                   10000000     user32:USER32.dll
 0001:00000000       ??__E_AtlComModule@ATL@@YAXXZ 10001000 f   OposVariant.obj
 0001:00000016       ??__E_AtlWinModule@ATL@@YAXXZ 10001016 f   OposVariant.obj
 0001:0000002c       ??__E?pConnMap@?$IConnectionPointContainerImpl@VCOPOSPOSPower@@@ATL@@0PBU_ATL_CONNMAP_ENTRY@2@B@@YAXXZ 1000102c f   POSPower.obj
 0001:0000003a       ??__E_Module@@YAXXZ        1000103a f   POSPower.obj
 0001:00000064       ??__E_AtlBaseModule@ATL@@YAXXZ 10001064 f   atls:atlbase.obj
 0001:00000bf8       $LN24                      10001bf8     POSPower.obj
 0001:000056ab       $LN47                      100066ab     POSPower.obj
 0001:000056c3       $LN46                      100066c3     POSPower.obj
 0001:00007890       $LN37                      10008890     POSPower.obj
 0001:000078a8       $LN36                      100088a8     POSPower.obj
 0001:00008f84       $LN76                      10009f84     POSPower.obj
 0001:00008f9c       $LN75                      10009f9c     POSPower.obj
 0001:00009355       _memcpy_s                  1000a355 f   POSPower.obj
 0001:0000b00c       ?find_pe_section@@YAPAU_IMAGE_SECTION_HEADER@@QAEI@Z 1000c00c f   LIBCMT:utility.obj
 0001:0000b32b       ?__scrt_initialize_thread_safe_statics@@YAHXZ 1000c32b f   LIBCMT:thread_safe_statics.obj
 0001:0000b352       ?__scrt_initialize_thread_safe_statics_platform_specific@@YAXXZ 1000c352 f   LIBCMT:thread_safe_statics.obj
 0001:0000b3d4       ?__scrt_uninitialize_thread_safe_statics@@YAXXZ 1000c3d4 f   LIBCMT:thread_safe_statics.obj
 0001:0000b743       __catch$??2@YAPAXIABUnothrow_t@std@@@Z$0 1000c743 f   LIBCMT:new_scalar_nothrow.obj
 0001:0000b780       $$000000                   1000c780     LIBCMT:sehprolg4gs.obj
 0001:0000b7e0       $$000000                   1000c7e0     LIBCMT:alloca16.obj
 0001:0000b810       $$000000                   1000c810     LIBCMT:chkstk.obj
 0001:0000b83d       ?dllmain_crt_dispatch@@YGHQAUHINSTANCE__@@KQAX@Z 1000c83d f   LIBCMT:dll_dllmain.obj
 0001:0000b890       ?dllmain_crt_process_attach@@YAHQAUHINSTANCE__@@QAX@Z 1000c890 f   LIBCMT:dll_dllmain.obj
 0001:0000b997       ?dllmain_crt_process_detach@@YAH_N@Z 1000c997 f   LIBCMT:dll_dllmain.obj
 0001:0000ba47       ?dllmain_dispatch@@YAHQAUHINSTANCE__@@KQAX@Z 1000ca47 f   LIBCMT:dll_dllmain.obj
 0001:0000bb4d       ?dllmain_raw@@YGHQAUHINSTANCE__@@KQAX@Z 1000cb4d f   LIBCMT:dll_dllmain.obj
 0001:0000bed0       $$000000                   1000ced0     LIBCMT:sehprolg4.obj
 0001:0000bf2c       ___get_entropy             1000cf2c f   LIBCMT:gs_support.obj
 0001:0000c223       ??$GetProcAddressAll@P6GP6GJPAUHWND__@@IIJ@ZPAUAtlThunkData_t@@@Z@@YAP6GP6GJPAUHWND__@@IIJ@ZPAUAtlThunkData_t@@@ZPAP6GP6GJ0IIJ@Z1@Z@Z 1000d223 f   atls:atlthunk.obj
 0001:0000c223       ??$GetProcAddressAll@P6GPAUAtlThunkData_t@@XZ@@YAP6GPAUAtlThunkData_t@@XZPAP6GPAU0@XZ@Z 1000d223 f   atls:atlthunk.obj
 0001:0000c223       ??$GetProcAddressAll@P6GXPAUAtlThunkData_t@@@Z@@YAP6GXPAUAtlThunkData_t@@@ZPAP6GX0@Z@Z 1000d223 f   atls:atlthunk.obj
 0001:0000c223       ??$GetProcAddressAll@P6GXPAUAtlThunkData_t@@PAXI@Z@@YAP6GXPAUAtlThunkData_t@@PAXI@ZPAP6GX01I@Z@Z 1000d223 f   atls:atlthunk.obj
 0001:0000c2d3       ?GetProcAddressSingle@@YA_NPAUHINSTANCE__@@PBDPAPAX@Z 1000d2d3 f   atls:atlthunk.obj
 0001:0000c425       ?__InitializeThunkPool@@YAHXZ 1000d425 f   atls:atlthunk.obj
 0001:0000c880       _ValidateLocalCookies      1000d880 f   libvcruntime:chandler4.obj
 0001:0000d942       $LN1241                    1000e942     libvcruntime:memcmp.obj
 0001:0000d9d0       $$000000                   1000e9d0     libvcruntime:memcpy.obj
 0001:0000dc34       TrailingUpVec              1000ec34     libvcruntime:memcpy.obj
 0001:0000dce0       TrailingDownVec            1000ece0     libvcruntime:memcpy.obj
 0001:0000df50       $$000000                   1000ef50     libvcruntime:memset.obj
 0001:0000e553       ?_FilterSetCurrentException@@YAKPAU_EXCEPTION_POINTERS@@E@Z 1000f553 f   libvcruntime:ehhelpers.obj
 0001:0000e7a0       $$000000                   1000f7a0     libvcruntime:memmove.obj
 0001:0000ea04       TrailingUpVec              1000fa04     libvcruntime:memmove.obj
 0001:0000eab0       TrailingDownVec            1000fab0     libvcruntime:memmove.obj
 0001:0000ed20       $$000000                   1000fd20     libvcruntime:exsup4.obj
 0001:0000edb0       __unwind_handler4          1000fdb0 f   libvcruntime:exsup4.obj
 0001:0000f08f       ??$BuildCatchObjectHelperInternal@V__FrameHandler3@@@@YAHPAUEHExceptionRecord@@PAXPBU_s_HandlerType@@PBU_s_CatchableType@@@Z 1001008f f   libvcruntime:frame.obj
 0001:0000f1cd       ??$BuildCatchObjectInternal@V__FrameHandler3@@@@YAXPAUEHExceptionRecord@@PAXPBU_s_HandlerType@@PBU_s_CatchableType@@@Z 100101cd f   libvcruntime:frame.obj
 0001:0000f266       ??$CatchIt@V__FrameHandler3@@@@YAXPAUEHExceptionRecord@@PAUEHRegistrationNode@@PAU_CONTEXT@@PAXPBU_s_FuncInfo@@PBU_s_HandlerType@@PBU_s_CatchableType@@PBU_s_TryBlockMapEntry@@H1EE@Z 10010266 f   libvcruntime:frame.obj
 0001:0000f2e6       ??$FindHandler@V__FrameHandler3@@@@YAXPAUEHExceptionRecord@@PAUEHRegistrationNode@@PAU_CONTEXT@@PAXPBU_s_FuncInfo@@EH1@Z 100102e6 f   libvcruntime:frame.obj
 0001:0000f69c       ??$FindHandlerForForeignException@V__FrameHandler3@@@@YAXPAUEHExceptionRecord@@PAUEHRegistrationNode@@PAU_CONTEXT@@PAXPBU_s_FuncInfo@@HH1@Z 1001069c f   libvcruntime:frame.obj
 0001:0000f9b4       ?CallCatchBlock@@YAPAXPAUEHExceptionRecord@@PAUEHRegistrationNode@@PAU_CONTEXT@@PBU_s_FuncInfo@@PAXHK@Z 100109b4 f   libvcruntime:frame.obj
 0001:0000fb78       ?CallUnexpected@@YAXPBU_s_ESTypeList@@@Z 10010b78 f   libvcruntime:frame.obj
 0001:0000fb98       __catch$?CallUnexpected@@YAXPBU_s_ESTypeList@@@Z$0 10010b98 f   libvcruntime:frame.obj
 0001:0000fbb2       ?ExFilterRethrow@@YAHPAU_EXCEPTION_POINTERS@@@Z 10010bb2 f   libvcruntime:frame.obj
 0001:0000fcfc       ?IsInExceptionSpec@@YAEPAUEHExceptionRecord@@PBU_s_ESTypeList@@@Z 10010cfc f   libvcruntime:frame.obj
 0001:0000fdd0       $$000000                   10010dd0     libvcruntime:lowhelpr.obj
 0001:0000fe20       $$000000                   10010e20     libvcruntime:exsup.obj
 0001:0000fe41       __unwind_handler           10010e41 f   libvcruntime:exsup.obj
 0001:0000ff5e       ?try_get_first_available_module@@YAPAUHINSTANCE__@@QBW4module_id@?A0x1172487b@@0@Z 10010f5e f   libvcruntime:winapi_downlevel.obj
 0001:0001000a       ?try_get_function@@YAPAXW4function_id@?A0x1172487b@@QBDQBW4module_id@2@2@Z 1001100a f   libvcruntime:winapi_downlevel.obj
 0001:00010694       ??$common_tcsncpy_s@_W@@YAHQA_WIQB_WI@Z 10011694 f   libucrt:wcsncpy_s.obj
 0001:0001076a       ??$common_vsprintf@Vformat_validation_base@__crt_stdio_output@@_W@@YAH_KQA_WIQB_WQAU__crt_locale_pointers@@QAD@Z 1001176a f   libucrt:output.obj
 0001:000108f1       ??$common_vsprintf_s@_W@@YAH_KQA_WIQB_WQAU__crt_locale_pointers@@QAD@Z 100118f1 f   libucrt:output.obj
 0001:00011020       $LN51                      10012020     libucrt:output.obj
 0001:0001151b       $LN20                      1001251b     libucrt:output.obj
 0001:0001152f       $LN17                      1001252f     libucrt:output.obj
 0001:00011d8e       ??$?RV<lambda_03b1d95aef87969028cfba75ccab2455>@@AAV<lambda_6e4b09c48022b2350581041d5f6b0c4c>@@V<lambda_22bdf7517842c4b3e53723af5aa32b9e>@@@?$__crt_seh_guarded_call@X@@QAEX$$QAV<lambda_03b1d95aef87969028cfba75ccab2455>@@AAV<lambda_6e4b09c48022b2350581041d5f6b0c4c>@@$$QAV<lambda_22bdf7517842c4b3e53723af5aa32b9e>@@@Z 10012d8e f   libucrt:exit.obj
 0001:00011ddb       ??R<lambda_6e4b09c48022b2350581041d5f6b0c4c>@@QBE@XZ 10012ddb f   libucrt:exit.obj
 0001:00011eb5       ?atexit_exception_filter@@YAHK@Z 10012eb5 f   libucrt:exit.obj
 0001:00011ec8       ?common_exit@@YAXHW4_crt_exit_cleanup_mode@@W4_crt_exit_return_mode@@@Z 10012ec8 f   libucrt:exit.obj
 0001:00011f2c       ?exit_or_terminate_process@@YAXI@Z 10012f2c f   libucrt:exit.obj
 0001:00011f6e       ?is_managed_app@@YA_NXZ    10012f6e f   libucrt:exit.obj
 0001:00011fb1       ?try_cor_exit_process@@YAXI@Z 10012fb1 f   libucrt:exit.obj
 0001:0001203f       ??$common_configure_argv@D@@YAHW4_crt_argv_mode@@@Z 1001303f f   libucrt:argv_parsing.obj
 0001:00012175       ??$parse_command_line@D@@YAXPADPAPAD0PAI2@Z 10013175 f   libucrt:argv_parsing.obj
 0001:00012346       ??$common_initialize_environment_nolock@D@@YAHXZ 10013346 f   libucrt:environment_initialization.obj
 0001:00012399       ??$create_environment@D@@YAQAPADQAD@Z 10013399 f   libucrt:environment_initialization.obj
 0001:00012469       ??$free_environment@D@@YAXQAPAD@Z 10013469 f   libucrt:environment_initialization.obj
 0001:00012469       ??$free_environment@_W@@YAXQAPA_W@Z 10013469 f   libucrt:environment_initialization.obj
 0001:000124c1       ??$uninitialize_environment_internal@D@@YAXAAPAPAD@Z 100134c1 f   libucrt:environment_initialization.obj
 0001:000124dc       ??$uninitialize_environment_internal@_W@@YAXAAPAPA_W@Z 100134dc f   libucrt:environment_initialization.obj
 0001:00012533       ??$?RV<lambda_69a2805e680e0e292e8ba93315fe43a8>@@AAV<lambda_f03950bc5685219e0bcd2087efbe011e>@@V<lambda_03fcd07e894ec930e3f35da366ca99d6>@@@?$__crt_seh_guarded_call@H@@QAEH$$QAV<lambda_69a2805e680e0e292e8ba93315fe43a8>@@AAV<lambda_f03950bc5685219e0bcd2087efbe011e>@@$$QAV<lambda_03fcd07e894ec930e3f35da366ca99d6>@@@Z 10013533 f   libucrt:onexit.obj
 0001:0001258e       ??$?RV<lambda_8e746cf0007f6ed984d6f78af1fec997>@@AAV<lambda_22ebabd17bc4fa466a2aca6d8deb888d>@@V<lambda_18ed0c0b38a6dc0daf1e7ac6d6adf05e>@@@?$__crt_seh_guarded_call@H@@QAEH$$QAV<lambda_8e746cf0007f6ed984d6f78af1fec997>@@AAV<lambda_22ebabd17bc4fa466a2aca6d8deb888d>@@$$QAV<lambda_18ed0c0b38a6dc0daf1e7ac6d6adf05e>@@@Z 1001358e f   libucrt:onexit.obj
 0001:00012608       ??R<lambda_22ebabd17bc4fa466a2aca6d8deb888d>@@QBEHXZ 10013608 f   libucrt:onexit.obj
 0001:00012731       ??R<lambda_f03950bc5685219e0bcd2087efbe011e>@@QBEHXZ 10013731 f   libucrt:onexit.obj
 0001:000128aa       _initialize_environment    100138aa f   libucrt:initialization.obj
 0001:000128aa       _initialize_global_state_isolation 100138aa f   libucrt:initialization.obj
 0001:000128aa       _report_memory_leaks       100138aa f   libucrt:initialization.obj
 0001:000128aa       _uninitialize_c            100138aa f   libucrt:initialization.obj
 0001:000128aa       _uninitialize_global_state_isolation 100138aa f   libucrt:initialization.obj
 0001:000128ad       _initialize_global_variables 100138ad f   libucrt:initialization.obj
 0001:000128ba       _initialize_c              100138ba f   libucrt:initialization.obj
 0001:000128d4       _uninitialize_environment  100138d4 f   libucrt:initialization.obj
 0001:000128dc       _initialize_pointers       100138dc f   libucrt:initialization.obj
 0001:0001290a       _uninitialize_vcruntime    1001390a f   libucrt:initialization.obj
 0001:00012913       _uninitialize_allocated_memory 10013913 f   libucrt:initialization.obj
 0001:0001292a       _uninitialize_allocated_io_buffers 1001392a f   libucrt:initialization.obj
 0001:0001297a       ??R<lambda_af42a3ee9806e9a7305d451646e05244>@@QBEXAAPAU__crt_multibyte_data@@@Z 1001397a f   libucrt:initialization.obj
 0001:00013260       $$000000                   10014260     libucrt:strncmp.obj
 0001:0001334c       ??$?RV<lambda_15ade71b0218206bbe3333a0c9b79046>@@AAV<lambda_da44e0f8b0f19ba52fefafb335991732>@@V<lambda_207f2d024fc103971653565357d6cd41>@@@?$__crt_seh_guarded_call@X@@QAEX$$QAV<lambda_15ade71b0218206bbe3333a0c9b79046>@@AAV<lambda_da44e0f8b0f19ba52fefafb335991732>@@$$QAV<lambda_207f2d024fc103971653565357d6cd41>@@@Z 1001434c f   libucrt:per_thread_data.obj
 0001:0001339e       ??$?RV<lambda_38edbb1296d33220d7e4dd0ed76b244a>@@AAV<lambda_5ce1d447e08cb34b2473517608e21441>@@V<lambda_fb385d3da700c9147fc39e65dd577a8c>@@@?$__crt_seh_guarded_call@X@@QAEX$$QAV<lambda_38edbb1296d33220d7e4dd0ed76b244a>@@AAV<lambda_5ce1d447e08cb34b2473517608e21441>@@$$QAV<lambda_fb385d3da700c9147fc39e65dd577a8c>@@@Z 1001439e f   libucrt:per_thread_data.obj
 0001:00013409       ??$?RV<lambda_6affb1475c98b40b75cdec977db92e3c>@@AAV<lambda_b8d4b9c228a6ecc3f80208dbb4b4a104>@@V<lambda_608742c3c92a14382c1684fc64f96c88>@@@?$__crt_seh_guarded_call@X@@QAEX$$QAV<lambda_6affb1475c98b40b75cdec977db92e3c>@@AAV<lambda_b8d4b9c228a6ecc3f80208dbb4b4a104>@@$$QAV<lambda_608742c3c92a14382c1684fc64f96c88>@@@Z 10014409 f   libucrt:per_thread_data.obj
 0001:0001345e       ??$?RV<lambda_a7e850c220f1c8d1e6efeecdedd162c6>@@AAV<lambda_46720907175c18b6c9d2717bc0d2d362>@@V<lambda_9048902d66e8d99359bc9897bbb930a8>@@@?$__crt_seh_guarded_call@X@@QAEX$$QAV<lambda_a7e850c220f1c8d1e6efeecdedd162c6>@@AAV<lambda_46720907175c18b6c9d2717bc0d2d362>@@$$QAV<lambda_9048902d66e8d99359bc9897bbb930a8>@@@Z 1001445e f   libucrt:per_thread_data.obj
 0001:000134b8       ?construct_ptd@@YAXQAU__acrt_ptd@@QAPAU__crt_locale_data@@@Z 100144b8 f   libucrt:per_thread_data.obj
 0001:00013551       ?destroy_fls@@YGXPAX@Z     10014551 f   libucrt:per_thread_data.obj
 0001:00013572       ?destroy_ptd@@YAXQAU__acrt_ptd@@@Z 10014572 f   libucrt:per_thread_data.obj
 0001:0001363f       ?replace_current_thread_locale_nolock@@YAXQAU__acrt_ptd@@QAU__crt_locale_data@@@Z 1001463f f   libucrt:per_thread_data.obj
 0001:00013a4f       ?try_get_AreFileApisANSI@@YAP6GHXZXZ 10014a4f f   libucrt:winapi_thunks.obj
 0001:00013a69       ?try_get_LCMapStringEx@@YAP6GHPB_WK0HPA_WHPAU_nlsversioninfo@@PAXJ@ZXZ 10014a69 f   libucrt:winapi_thunks.obj
 0001:00013a83       ?try_get_LocaleNameToLCID@@YAP6GKPB_WK@ZXZ 10014a83 f   libucrt:winapi_thunks.obj
 0001:00013a9d       ?try_get_first_available_module@@YAPAUHINSTANCE__@@QBW4module_id@?A0x391cf84c@@0@Z 10014a9d f   libucrt:winapi_thunks.obj
 0001:00013b64       ?try_get_function@@YAPAXW4function_id@?A0x391cf84c@@QBDQBW4module_id@2@2@Z 10014b64 f   libucrt:winapi_thunks.obj
 0001:000142c7       ?fp_format_a@@YAHQBNPADIQADIH_NIQAU__crt_locale_pointers@@@Z 100152c7 f   libucrt:cvt.obj
 0001:000145e0       ?fp_format_e@@YAHQBNQADI1IH_NIQAU__crt_locale_pointers@@@Z 100155e0 f   libucrt:cvt.obj
 0001:00014682       ?fp_format_e_internal@@YAHQADIH_NIQAU_strflt@@1QAU__crt_locale_pointers@@@Z 10015682 f   libucrt:cvt.obj
 0001:000147ca       ?fp_format_f@@YAHQBNQADI1IHQAU__crt_locale_pointers@@@Z 100157ca f   libucrt:cvt.obj
 0001:00014855       ?fp_format_f_internal@@YAHQADIHQAU_strflt@@_NQAU__crt_locale_pointers@@@Z 10015855 f   libucrt:cvt.obj
 0001:00014926       ?fp_format_g@@YAHQBNQADI1IH_NIQAU__crt_locale_pointers@@@Z 10015926 f   libucrt:cvt.obj
 0001:000149e7       ?fp_format_nan_or_infinity@@YAHW4__acrt_fp_class@@_NPADI1@Z 100159e7 f   libucrt:cvt.obj
 0001:00014a7c       ?shift_bytes@@YAXQADI0H@Z  10015a7c f   libucrt:cvt.obj
 0001:00014d63       ??$?RV<lambda_e5124f882df8998aaf41531e079ba474>@@AAV<lambda_3e16ef9562a7dcce91392c22ab16ea36>@@V<lambda_e25ca0880e6ef98be67edffd8c599615>@@@?$__crt_seh_guarded_call@X@@QAEX$$QAV<lambda_e5124f882df8998aaf41531e079ba474>@@AAV<lambda_3e16ef9562a7dcce91392c22ab16ea36>@@$$QAV<lambda_e25ca0880e6ef98be67edffd8c599615>@@@Z 10015d63 f   libucrt:wsetlocale.obj
 0001:00014e03       ?initialize_inherited_file_handles_nolock@@YAXXZ 10015e03 f   libucrt:ioinit.obj
 0001:00014eb9       ?initialize_stdio_handles_nolock@@YAXXZ 10015eb9 f   libucrt:ioinit.obj
 0001:000150ca       ?<lambda_invoker_cdecl>@<lambda_838c7f62c73c983481e27c09e84b0b5d>@@CAHPBX0@Z 100160ca f   libucrt:argv_wildcards.obj
 0001:000150e2       ??$__acrt_convert_wcs_mbs_cp@D_WV<lambda_62f6974d9771e494a5ea317cc32e971c>@@U__crt_win32_buffer_internal_dynamic_resizing@@@@YAHQBDAAV?$__crt_win32_buffer@_WU__crt_win32_buffer_internal_dynamic_resizing@@@@ABV<lambda_62f6974d9771e494a5ea317cc32e971c>@@I@Z 100160e2 f   libucrt:argv_wildcards.obj
 0001:00015194       ??$__acrt_convert_wcs_mbs_cp@_WDV<lambda_28bda7af82a03b66c1cb3803a755f95d>@@U__crt_win32_buffer_internal_dynamic_resizing@@@@YAHQB_WAAV?$__crt_win32_buffer@DU__crt_win32_buffer_internal_dynamic_resizing@@@@ABV<lambda_28bda7af82a03b66c1cb3803a755f95d>@@I@Z 10016194 f   libucrt:argv_wildcards.obj
 0001:00015280       ??$common_expand_argv_wildcards@D@@YAHQAPADQAPAPAD@Z 10016280 f   libucrt:argv_wildcards.obj
 0001:0001546f       ??$copy_and_add_argument_to_buffer@D@@YAHQBD0IAAV?$argument_list@D@?A0x5f5c8891@@@Z 1001646f f   libucrt:argv_wildcards.obj
 0001:00015520       ??$expand_argument_wildcards@D@@YAHQAD0AAV?$argument_list@D@?A0x5f5c8891@@@Z 10016520 f   libucrt:argv_wildcards.obj
 0001:0001586a       ?expand_if_necessary@?$argument_list@D@?A0x5f5c8891@@AAEHXZ 1001686a f   libucrt:argv_wildcards.obj
 0001:000158fc       ??$__acrt_convert_wcs_mbs_cp@_WDV<lambda_0fec1a7b3f42a53036604e18c2d5e07e>@@U__crt_win32_buffer_no_resizing@@@@YAHQB_WAAV?$__crt_win32_buffer@DU__crt_win32_buffer_no_resizing@@@@ABV<lambda_0fec1a7b3f42a53036604e18c2d5e07e>@@I@Z 100168fc f   libucrt:getmodulefilenamea.obj
 0001:00015a9f       ??$?RV<lambda_ceb1ee4838e85a9d631eb091e2fbe199>@@AAV<lambda_ae742caa10f662c28703da3d2ea5e57e>@@V<lambda_cd08b5d6af4937fe54fc07d0c9bf6b37>@@@?$__crt_seh_guarded_call@X@@QAEX$$QAV<lambda_ceb1ee4838e85a9d631eb091e2fbe199>@@AAV<lambda_ae742caa10f662c28703da3d2ea5e57e>@@$$QAV<lambda_cd08b5d6af4937fe54fc07d0c9bf6b37>@@@Z 10016a9f f   libucrt:mbctype.obj
 0001:00015aec       ??R<lambda_ae742caa10f662c28703da3d2ea5e57e>@@QBEXXZ 10016aec f   libucrt:mbctype.obj
 0001:00015b6f       ?CPtoLocaleName@@YAPB_WH@Z 10016b6f f   libucrt:mbctype.obj
 0001:00015bad       ?getSystemCP@@YAHH@Z       10016bad f   libucrt:mbctype.obj
 0001:00015c1e       ?setSBCS@@YAXPAU__crt_multibyte_data@@@Z 10016c1e f   libucrt:mbctype.obj
 0001:00015c83       ?setSBUpLow@@YAXPAU__crt_multibyte_data@@@Z 10016c83 f   libucrt:mbctype.obj
 0001:00015e04       ?setmbcp_internal@@YAHH_NQAU__acrt_ptd@@QAPAU__crt_multibyte_data@@@Z 10016e04 f   libucrt:mbctype.obj
 0001:00015f1d       ?update_thread_multibyte_data_internal@@YAPAU__crt_multibyte_data@@QAU__acrt_ptd@@QAPAU1@@Z 10016f1d f   libucrt:mbctype.obj
 0001:0001620b       _memcpy_s                  1001720b f   libucrt:cfout.obj
 0001:0001620b       _memcpy_s                  1001720b f   libucrt:mbctype.obj
 0001:0001628c       ?x_ismbbtype_l@@YAHPAU__crt_locale_pointers@@IHH@Z 1001728c f   libucrt:ismbbyte.obj
 0001:0001643d       ?find_end_of_double_null_terminated_sequence@@YAPB_WQB_W@Z 1001743d f   libucrt:get_environment_from_os.obj
 0001:000165ac       ??$?RV<lambda_cbab9ec6f41b0180b23cc171c22676b0>@@AAV<lambda_44731a7d0e6d81c3e6aa82d741081786>@@V<lambda_4b292cb8dd18144e164572427af410ab>@@@?$__crt_seh_guarded_call@P6AXH@Z@@QAEP6AXH@Z$$QAV<lambda_cbab9ec6f41b0180b23cc171c22676b0>@@AAV<lambda_44731a7d0e6d81c3e6aa82d741081786>@@$$QAV<lambda_4b292cb8dd18144e164572427af410ab>@@@Z 100175ac f   libucrt:signal.obj
 0001:00016610       ?get_global_action_nolock@@YAPAP6AXH@ZH@Z 10017610 f   libucrt:signal.obj
 0001:00016652       ?siglookup@@YAPAU__crt_signal_action_t@@HQAU1@@Z 10017652 f   libucrt:signal.obj
 0001:0001691c       ??$?RV<lambda_2866be3712abc81a800a822484c830d8>@@AAV<lambda_39ca0ed439415581b5b15c265174cece>@@V<lambda_2b24c74d71094a6cd0cb82e44167d71b>@@@?$__crt_seh_guarded_call@X@@QAEX$$QAV<lambda_2866be3712abc81a800a822484c830d8>@@AAV<lambda_39ca0ed439415581b5b15c265174cece>@@$$QAV<lambda_2b24c74d71094a6cd0cb82e44167d71b>@@@Z 1001791c f   libucrt:fflush.obj
 0001:000169a8       ??$?RV<lambda_2cc53f568c5a2bb6f192f930a45d44ea>@@AAV<lambda_ab61a845afdef5b7c387490eaf3616ee>@@V<lambda_c2ffc0b7726aa6be21d5f0026187e748>@@@?$__crt_seh_guarded_call@X@@QAEX$$QAV<lambda_2cc53f568c5a2bb6f192f930a45d44ea>@@AAV<lambda_ab61a845afdef5b7c387490eaf3616ee>@@$$QAV<lambda_c2ffc0b7726aa6be21d5f0026187e748>@@@Z 100179a8 f   libucrt:fflush.obj
 0001:00016a54       ?common_flush_all@@YAH_N@Z 10017a54 f   libucrt:fflush.obj
 0001:00016aa1       ?common_flush_all_should_try_to_flush_stream@@YA_NV__crt_stdio_stream@@QAH@Z 10017aa1 f   libucrt:fflush.obj
 0001:00016ad4       ?is_stream_flushable_or_commitable@@YA_NJ@Z 10017ad4 f   libucrt:fflush.obj
 0001:00016fdd       ?GetTableIndexFromLocaleName@@YAHPB_W@Z 10017fdd f   libucrt:lcidtoname_downlevel.obj
 0001:00017093       ??R<lambda_3d301b9e52f5099be73030e1f0bf487e>@@QBEIPBD@Z 10018093 f   libucrt:mbrtowc.obj
 0001:00018d6a       ?free_crt_array_internal@@YAXQAPBXI@Z 10019d6a f   libucrt:inittime.obj
 0001:00019240       ?swap@@YAXPAD0I@Z          1001a240 f   libucrt:qsort.obj
 0001:000196c4       ??$common_tcsncpy_s@D@@YAHQADIQBDI@Z 1001a6c4 f   libucrt:strncpy_s.obj
 0001:00019790       $$000000                   1001a790     libucrt:strpbrk.obj
 0001:00019874       ?__acrt_LCMapStringA_stat@@YAHPAU__crt_locale_pointers@@PB_WKPBDHPADHHH@Z 1001a874 f   libucrt:lcmapstringa.obj
 0001:00019aa7       ?initialize_multibyte@@YAHXZ 1001aaa7 f   libucrt:multibyte_initializer.obj
 0001:00019ab6       ??$?RV<lambda_9e9de3de5fa147e2223d7db92bc10aa6>@@AAV<lambda_38ce7e780aa69e748d6df282ebc68efe>@@V<lambda_8ca6da459f0f6780f1cff60fdc3d00e5>@@@?$__crt_seh_guarded_call@H@@QAEH$$QAV<lambda_9e9de3de5fa147e2223d7db92bc10aa6>@@AAV<lambda_38ce7e780aa69e748d6df282ebc68efe>@@$$QAV<lambda_8ca6da459f0f6780f1cff60fdc3d00e5>@@@Z 1001aab6 f   libucrt:commit.obj
 0001:00019bd5       ?write_double_translated_ansi_nolock@@YA?AUwrite_result@?A0x17268360@@HQBDI@Z 1001abd5 f   libucrt:write.obj
 0001:00019f7f       ?write_double_translated_unicode_nolock@@YA?AUwrite_result@?A0x17268360@@QBDI@Z 1001af7f f   libucrt:write.obj
 0001:00019fe7       ?write_requires_double_translation_nolock@@YA_NH@Z 1001afe7 f   libucrt:write.obj
 0001:0001a058       ?write_text_ansi_nolock@@YA?AUwrite_result@?A0x17268360@@HQBDI@Z 1001b058 f   libucrt:write.obj
 0001:0001a133       ?write_text_utf16le_nolock@@YA?AUwrite_result@?A0x17268360@@HQBDI@Z 1001b133 f   libucrt:write.obj
 0001:0001a21c       ?write_text_utf8_nolock@@YA?AUwrite_result@?A0x17268360@@HQBDI@Z 1001b21c f   libucrt:write.obj
 0001:0001a8f0       $$000000                   1001b8f0     libucrt:log10_impl.obj
 0001:0001aa00       $$000000                   1001ba00     libucrt:ceil_pentium4.obj
 0001:0001ab1d       ??$common_lseek_nolock@_J@@YA_JH_JH@Z 1001bb1d f   libucrt:lseek.obj
 0001:0001ad03       ?to_abstract_control@@YA?AW4__acrt_fenv_abstract_control@@W4__acrt_fenv_machine_sse_control@@@Z 1001bd03 f   libucrt:_fenvutils.obj
 0001:0001adbf       ?to_abstract_control@@YA?AW4__acrt_fenv_abstract_control@@W4__acrt_fenv_machine_x87_control@@@Z 1001bdbf f   libucrt:_fenvutils.obj
 0001:0001ae78       ?to_machine_sse_control@@YA?AW4__acrt_fenv_machine_sse_control@@W4__acrt_fenv_abstract_control@@@Z 1001be78 f   libucrt:_fenvutils.obj
 0001:0001af45       ?to_machine_x87_control@@YA?AW4__acrt_fenv_machine_x87_control@@W4__acrt_fenv_abstract_control@@@Z 1001bf45 f   libucrt:_fenvutils.obj
 0001:0001b3a0       $$000000                   1001c3a0     libucrt:log10_pentium4.obj
 0001:0001b630       $$000000                   1001c630     libucrt:87tran.obj
 0001:0001b840       $$000000                   1001c840     libucrt:87disp.obj
 0001:0001baa0       $$000000                   1001caa0     libucrt:common.obj
 0001:0001bc30       $$000000                   1001cc30     libucrt:genexcep.obj
 0001:0001bf2c       ??$?RV<lambda_218ce3db14220d0be481dae8ef3383b6>@@AAV<lambda_628dfdc04ba53c8bfc02c9951375f3f5>@@V<lambda_57dc472bd5c9d5f3b2cbca59b8a843ae>@@@?$__crt_seh_guarded_call@H@@QAEH$$QAV<lambda_218ce3db14220d0be481dae8ef3383b6>@@AAV<lambda_628dfdc04ba53c8bfc02c9951375f3f5>@@$$QAV<lambda_57dc472bd5c9d5f3b2cbca59b8a843ae>@@@Z 1001cf2c f   libucrt:close.obj
 0001:0001c120       $$000000                   1001d120     libucrt:_strnicm.obj
 0001:0001c181       ?__dcrt_lowio_initialize_console_output@@YAXXZ 1001d181 f   libucrt:initcon.obj
 0001:0001cfe0       $$000000                   1001dfe0     LIBCMT:ulldvrm.obj
 0001:0001d080       $$000000                   1001e080     LIBCMT:llmul.obj
 0001:0001d0c0       $$000000                   1001e0c0     LIBCMT:lldvrm.obj
 0001:0001d1a0       $$000000                   1001e1a0     LIBCMT:ullshr.obj
 0001:0001d1c0       $$000000                   1001e1c0     LIBCMT:llshl.obj
 0001:0001d1e0       $$000000                   1001e1e0     LIBCMT:ftol2.obj
 0001:0001d480       $$000000                   1001e480     libvcruntime:strrchr.obj
 0001:0001d5c0       $$000000                   1001e5c0     libvcruntime:strchr.obj
 0001:0001d763       __ehhandler$??2@YAPAXIABUnothrow_t@std@@@Z 1001e763 f   LIBCMT:new_scalar_nothrow.obj
 0001:0001d77e       __ehhandler$?CallUnexpected@@YAXPBU_s_ESTypeList@@@Z 1001e77e f   libvcruntime:frame.obj
 0001:0001d799       ??__F_AtlComModule@ATL@@YAXXZ 1001e799 f   OposVariant.obj
 0001:0001d7a3       ??__F_AtlWinModule@ATL@@YAXXZ 1001e7a3 f   OposVariant.obj
 0001:0001d7bd       ??__F_Module@@YAXXZ        1001e7bd f   POSPower.obj
 0001:0001d7d1       ??__F_AtlBaseModule@ATL@@YAXXZ 1001e7d1 f   atls:atlbase.obj
 0002:00000304       ?_AtlBaseModule$initializer$@ATL@@3P6AXXZA 1001f304     atls:atlbase.obj
 0002:00000308       ?_AtlComModule$initializer$@ATL@@3P6AXXZA 1001f308     OposVariant.obj
 0002:0000030c       ?_AtlWinModule$initializer$@ATL@@3P6AXXZA 1001f30c     OposVariant.obj
 0002:00000310       ?_Module$initializer$@@3P6AXXZA 1001f310     POSPower.obj
 0002:00000314       ??pConnMap$initializer$@?$IConnectionPointContainerImpl@VCOPOSPOSPower@@@ATL@@0P6AXXZA@@3P6AXXZA 1001f314     POSPower.obj
 0002:00000320       ?__scrt_initialize_tss_var@@3P6AHXZA 1001f320     LIBCMT:thread_safe_statics.obj
 0002:00001838       _GS_ExceptionPointers      10020838     LIBCMT:gs_report.obj
 0002:000019c8       ?tokenTable@@3QBUStringLiteral@@B 100209c8     libvcruntime:undname.obj
 0002:00001a48       ?nameTable@@3QBUStringLiteral@@B 10020a48     libvcruntime:undname.obj
 0002:00001ce0       ?rttiTable@@3QBUStringLiteral@@B 10020ce0     libvcruntime:undname.obj
 0002:00001d08       ?IndirectionName@@3QBUStringLiteral@@B 10020d08     libvcruntime:undname.obj
 0002:00001d38       ?PrefixName@@3QBUStringLiteral@@B 10020d38     libvcruntime:undname.obj
 0002:00002368       ?module_names@?A0x1172487b@@3QBQB_WB 10021368     libvcruntime:winapi_downlevel.obj
 0002:00002410       ?candidate_modules@?1??try_get_FlsAlloc@@YAP6GKP6GXPAX@Z@ZXZ@4QBW4module_id@?A0x1172487b@@B 10021410     libvcruntime:winapi_downlevel.obj
 0002:00002424       ?candidate_modules@?1??try_get_FlsFree@@YAP6GHK@ZXZ@4QBW4module_id@?A0x1172487b@@B 10021424     libvcruntime:winapi_downlevel.obj
 0002:00002434       ?candidate_modules@?1??try_get_FlsGetValue@@YAP6GPAXK@ZXZ@4QBW4module_id@?A0x1172487b@@B 10021434     libvcruntime:winapi_downlevel.obj
 0002:00002448       ?candidate_modules@?1??try_get_FlsSetValue@@YAP6GHKPAX@ZXZ@4QBW4module_id@?A0x1172487b@@B 10021448     libvcruntime:winapi_downlevel.obj
 0002:0000245c       ?candidate_modules@?1??try_get_InitializeCriticalSectionEx@@YAP6GHPAU_RTL_CRITICAL_SECTION@@KK@ZXZ@4QBW4module_id@?A0x1172487b@@B 1002145c     libvcruntime:winapi_downlevel.obj
 0002:00002480       ?errtable@@3QBUerrentry@?A0x31fdb9ec@@B 10021480     libucrt:errno.obj
 0002:00002728       ___acrt_initializers       10021728     libucrt:initialization.obj
 0002:000027a8       ?module_names@?A0x391cf84c@@3QBQB_WB 100217a8     libucrt:winapi_thunks.obj
 0002:00002c20       ?candidate_modules@?1??try_get_AreFileApisANSI@@YAP6GHXZXZ@4QBW4module_id@?A0x391cf84c@@B 10021c20     libucrt:winapi_thunks.obj
 0002:00002c34       ?candidate_modules@?1??try_get_FlsAlloc@@YAP6GKP6GXPAX@Z@ZXZ@4QBW4module_id@?A0x391cf84c@@B 10021c34     libucrt:winapi_thunks.obj
 0002:00002c3c       ?candidate_modules@?1??try_get_FlsFree@@YAP6GHK@ZXZ@4QBW4module_id@?A0x391cf84c@@B 10021c3c     libucrt:winapi_thunks.obj
 0002:00002c44       ?candidate_modules@?1??try_get_FlsGetValue@@YAP6GPAXK@ZXZ@4QBW4module_id@?A0x391cf84c@@B 10021c44     libucrt:winapi_thunks.obj
 0002:00002c4c       ?candidate_modules@?1??try_get_FlsSetValue@@YAP6GHKPAX@ZXZ@4QBW4module_id@?A0x391cf84c@@B 10021c4c     libucrt:winapi_thunks.obj
 0002:00002c54       ?candidate_modules@?1??try_get_InitializeCriticalSectionEx@@YAP6GHPAU_RTL_CRITICAL_SECTION@@KK@ZXZ@4QBW4module_id@?A0x391cf84c@@B 10021c54     libucrt:winapi_thunks.obj
 0002:00002c5c       ?candidate_modules@?1??try_get_LCMapStringEx@@YAP6GHPB_WK0HPA_WHPAU_nlsversioninfo@@PAXJ@ZXZ@4QBW4module_id@?A0x391cf84c@@B 10021c5c     libucrt:winapi_thunks.obj
 0002:00002c74       ?candidate_modules@?1??try_get_LocaleNameToLCID@@YAP6GKPB_WK@ZXZ@4QBW4module_id@?A0x391cf84c@@B 10021c74     libucrt:winapi_thunks.obj
 0002:00002c90       ?candidate_modules@?1??try_get_AppPolicyGetProcessTerminationMethod@@YAP6GJPAXPAW4AppPolicyProcessTerminationMethod@@@ZXZ@4QBW4module_id@?A0x391cf84c@@B 10021c90     libucrt:winapi_thunks.obj
 0002:00002cbc       ?candidate_modules@?1??try_get_SetThreadStackGuarantee@@YAP6GHPAK@ZXZ@4QBW4module_id@?A0x391cf84c@@B 10021cbc     libucrt:winapi_thunks.obj
 0002:00002ce0       ?strings@?1??fp_format_nan_or_infinity@@YAHW4__acrt_fp_class@@_NPADI1@Z@4QAY03QBDA 10021ce0     libucrt:cvt.obj
 0002:00003228       ?_mb_locale_names@@3QBQB_WB 10022228     libucrt:mbctype.obj
 0002:00003a70       ?LcidToLocaleNameTable@?A0x881e4c05@@3QBULcidToLocaleName@1@B 10022a70     libucrt:lcidtoname_downlevel.obj
 0002:00004b98       ?LocaleNameToIndexTable@?A0x881e4c05@@3QBULocaleNameIndex@1@B 10023b98     libucrt:lcidtoname_downlevel.obj
 0002:000063f0       ?large_power_indices@?1??multiply_by_power_of_ten@__crt_strtox@@YA_NAAUbig_integer@2@I@Z@4QBUunpack_index@?1??12@YA_N0I@Z@B 100253f0     libucrt:cfout.obj
 0002:000064d0       LOG_name                   100254d0     libucrt:log10_impl.obj
 0002:000064e0       _One                       100254e0     libucrt:ceil_pentium4.obj
 0002:000064f0       _Bns                       100254f0     libucrt:ceil_pentium4.obj
 0002:00006500       _Zero                      10025500     libucrt:ceil_pentium4.obj
 0002:00006510       _S                         10025510     libucrt:ceil_pentium4.obj
 0002:00006520       _NegZero                   10025520     libucrt:ceil_pentium4.obj
 0002:00006530       emask                      10025530     libucrt:log10_pentium4.obj
 0002:00006540       CC                         10025540     libucrt:log10_pentium4.obj
 0002:00006550       Magic                      10025550     libucrt:log10_pentium4.obj
 0002:00006560       hi_mask                    10025560     libucrt:log10_pentium4.obj
 0002:00006570       LOG10_2                    10025570     libucrt:log10_pentium4.obj
 0002:00006580       place_L                    10025580     libucrt:log10_pentium4.obj
 0002:000065a0       One                        100255a0     libucrt:log10_pentium4.obj
 0002:000065b0       Zero                       100255b0     libucrt:log10_pentium4.obj
 0002:000065c0       Two52                      100255c0     libucrt:log10_pentium4.obj
 0002:000065d0       Infs                       100255d0     libucrt:log10_pentium4.obj
 0002:000065e0       NaN                        100255e0     libucrt:log10_pentium4.obj
 0002:000065f0       coeff                      100255f0     libucrt:log10_pentium4.obj
 0002:0000664e       _log2max                   1002564e     libucrt:87tran.obj
 0002:00006658       _smallarg                  10025658     libucrt:87tran.obj
 0002:00006662       _half                      10025662     libucrt:87tran.obj
 0002:000066ae       One                        100256ae     libucrt:87disp.obj
 0002:000066b6       Three                      100256b6     libucrt:87disp.obj
 0002:000066be       XAMtoTagTab                100256be     libucrt:87disp.obj
 0002:000066d0       One                        100256d0     libucrt:common.obj
 0002:000066e4       DblMax                     100256e4     libucrt:common.obj
 0002:000066ec       DblMin                     100256ec     libucrt:common.obj
 0002:000066f4       IeeeAdjO                   100256f4     libucrt:common.obj
 0002:000066fc       IeeeAdjU                   100256fc     libucrt:common.obj
 0002:00006704       _infinity                  10025704     libucrt:common.obj
 0002:0000670c       _zero                      1002570c     libucrt:common.obj
 0002:00006758       _over                      10025758     libucrt:fpctrl.obj
 0002:00006764       _under                     10025764     libucrt:fpctrl.obj
 0002:00006f98       ?_names@?1??_get_fname@@9@9 10025f98     libucrt:fpexcept.obj
 0002:00007140       two32                      10026140     LIBCMT:ftol2.obj
 0002:00007144       two63                      10026144     LIBCMT:ftol2.obj
 0002:00007148       _NaN                       10026148     LIBCMT:ftol2.obj
 0002:000077f8       __sehtable$?_AtlVerifyStackAvailable@_ATL_SAFE_ALLOCA_IMPL@ATL@@YA_NK@Z 100267f8     POSPower.obj
 0002:00007818       __sehtable$___scrt_is_nonwritable_in_current_image 10026818     LIBCMT:utility.obj
 0002:00007834       __catchsym$??2@YAPAXIABUnothrow_t@std@@@Z$2 10026834     LIBCMT:new_scalar_nothrow.obj
 0002:00007844       __unwindtable$??2@YAPAXIABUnothrow_t@std@@@Z 10026844     LIBCMT:new_scalar_nothrow.obj
 0002:00007854       __tryblocktable$??2@YAPAXIABUnothrow_t@std@@@Z 10026854     LIBCMT:new_scalar_nothrow.obj
 0002:00007868       __ehfuncinfo$??2@YAPAXIABUnothrow_t@std@@@Z 10026868     LIBCMT:new_scalar_nothrow.obj
 0002:00007890       __sehtable$?dllmain_crt_process_attach@@YAHQAUHINSTANCE__@@QAX@Z 10026890     LIBCMT:dll_dllmain.obj
 0002:000078b0       __sehtable$?dllmain_crt_process_detach@@YAH_N@Z 100268b0     LIBCMT:dll_dllmain.obj
 0002:000078d8       __sehtable$?dllmain_dispatch@@YAHQAUHINSTANCE__@@KQAX@Z 100268d8     LIBCMT:dll_dllmain.obj
 0002:00007988       __sehtable$___DestructExceptionObject 10026988     libvcruntime:ehhelpers.obj
 0002:000079a8       __sehtable$?FrameUnwindToState@__FrameHandler3@@SAXPAUEHRegistrationNode@@PAXPBU_s_FuncInfo@@H@Z 100269a8     libvcruntime:frame.obj
 0002:000079d0       __sehtable$?CallCatchBlock@@YAPAXPAUEHExceptionRecord@@PAUEHRegistrationNode@@PAU_CONTEXT@@PBU_s_FuncInfo@@PAXHK@Z 100269d0     libvcruntime:frame.obj
 0002:000079f8       __catchsym$?CallUnexpected@@YAXPBU_s_ESTypeList@@@Z$2 100269f8     libvcruntime:frame.obj
 0002:00007a08       __unwindtable$?CallUnexpected@@YAXPBU_s_ESTypeList@@@Z 10026a08     libvcruntime:frame.obj
 0002:00007a18       __tryblocktable$?CallUnexpected@@YAXPBU_s_ESTypeList@@@Z 10026a18     libvcruntime:frame.obj
 0002:00007a2c       __ehfuncinfo$?CallUnexpected@@YAXPBU_s_ESTypeList@@@Z 10026a2c     libvcruntime:frame.obj
 0002:00007a50       __sehtable$??$BuildCatchObjectHelperInternal@V__FrameHandler3@@@@YAHPAUEHExceptionRecord@@PAXPBU_s_HandlerType@@PBU_s_CatchableType@@@Z 10026a50     libvcruntime:frame.obj
 0002:00007a70       __sehtable$??$BuildCatchObjectInternal@V__FrameHandler3@@@@YAXPAUEHExceptionRecord@@PAXPBU_s_HandlerType@@PBU_s_CatchableType@@@Z 10026a70     libvcruntime:frame.obj
 0002:00007ac8       __sehtable$??R<lambda_6e4b09c48022b2350581041d5f6b0c4c>@@QBE@XZ 10026ac8     libucrt:exit.obj
 0002:00007ae8       __sehtable$??$?RV<lambda_03b1d95aef87969028cfba75ccab2455>@@AAV<lambda_6e4b09c48022b2350581041d5f6b0c4c>@@V<lambda_22bdf7517842c4b3e53723af5aa32b9e>@@@?$__crt_seh_guarded_call@X@@QAEX$$QAV<lambda_03b1d95aef87969028cfba75ccab2455>@@AAV<lambda_6e4b09c48022b2350581041d5f6b0c4c>@@$$QAV<lambda_22bdf7517842c4b3e53723af5aa32b9e>@@@Z 10026ae8     libucrt:exit.obj
 0002:00007b08       __sehtable$??$?RV<lambda_8e746cf0007f6ed984d6f78af1fec997>@@AAV<lambda_22ebabd17bc4fa466a2aca6d8deb888d>@@V<lambda_18ed0c0b38a6dc0daf1e7ac6d6adf05e>@@@?$__crt_seh_guarded_call@H@@QAEH$$QAV<lambda_8e746cf0007f6ed984d6f78af1fec997>@@AAV<lambda_22ebabd17bc4fa466a2aca6d8deb888d>@@$$QAV<lambda_18ed0c0b38a6dc0daf1e7ac6d6adf05e>@@@Z 10026b08     libucrt:onexit.obj
 0002:00007b28       __sehtable$??$?RV<lambda_69a2805e680e0e292e8ba93315fe43a8>@@AAV<lambda_f03950bc5685219e0bcd2087efbe011e>@@V<lambda_03fcd07e894ec930e3f35da366ca99d6>@@@?$__crt_seh_guarded_call@H@@QAEH$$QAV<lambda_69a2805e680e0e292e8ba93315fe43a8>@@AAV<lambda_f03950bc5685219e0bcd2087efbe011e>@@$$QAV<lambda_03fcd07e894ec930e3f35da366ca99d6>@@@Z 10026b28     libucrt:onexit.obj
 0002:00007b48       __sehtable$__query_new_handler 10026b48     libucrt:new_handler.obj
 0002:00007b68       __sehtable$_terminate      10026b68     libucrt:terminate.obj
 0002:00007b88       __sehtable$??$?RV<lambda_15ade71b0218206bbe3333a0c9b79046>@@AAV<lambda_da44e0f8b0f19ba52fefafb335991732>@@V<lambda_207f2d024fc103971653565357d6cd41>@@@?$__crt_seh_guarded_call@X@@QAEX$$QAV<lambda_15ade71b0218206bbe3333a0c9b79046>@@AAV<lambda_da44e0f8b0f19ba52fefafb335991732>@@$$QAV<lambda_207f2d024fc103971653565357d6cd41>@@@Z 10026b88     libucrt:per_thread_data.obj
 0002:00007ba8       __sehtable$??$?RV<lambda_a7e850c220f1c8d1e6efeecdedd162c6>@@AAV<lambda_46720907175c18b6c9d2717bc0d2d362>@@V<lambda_9048902d66e8d99359bc9897bbb930a8>@@@?$__crt_seh_guarded_call@X@@QAEX$$QAV<lambda_a7e850c220f1c8d1e6efeecdedd162c6>@@AAV<lambda_46720907175c18b6c9d2717bc0d2d362>@@$$QAV<lambda_9048902d66e8d99359bc9897bbb930a8>@@@Z 10026ba8     libucrt:per_thread_data.obj
 0002:00007bc8       __sehtable$??$?RV<lambda_38edbb1296d33220d7e4dd0ed76b244a>@@AAV<lambda_5ce1d447e08cb34b2473517608e21441>@@V<lambda_fb385d3da700c9147fc39e65dd577a8c>@@@?$__crt_seh_guarded_call@X@@QAEX$$QAV<lambda_38edbb1296d33220d7e4dd0ed76b244a>@@AAV<lambda_5ce1d447e08cb34b2473517608e21441>@@$$QAV<lambda_fb385d3da700c9147fc39e65dd577a8c>@@@Z 10026bc8     libucrt:per_thread_data.obj
 0002:00007be8       __sehtable$??$?RV<lambda_6affb1475c98b40b75cdec977db92e3c>@@AAV<lambda_b8d4b9c228a6ecc3f80208dbb4b4a104>@@V<lambda_608742c3c92a14382c1684fc64f96c88>@@@?$__crt_seh_guarded_call@X@@QAEX$$QAV<lambda_6affb1475c98b40b75cdec977db92e3c>@@AAV<lambda_b8d4b9c228a6ecc3f80208dbb4b4a104>@@$$QAV<lambda_608742c3c92a14382c1684fc64f96c88>@@@Z 10026be8     libucrt:per_thread_data.obj
 0002:00007c08       __sehtable$??$?RV<lambda_e5124f882df8998aaf41531e079ba474>@@AAV<lambda_3e16ef9562a7dcce91392c22ab16ea36>@@V<lambda_e25ca0880e6ef98be67edffd8c599615>@@@?$__crt_seh_guarded_call@X@@QAEX$$QAV<lambda_e5124f882df8998aaf41531e079ba474>@@AAV<lambda_3e16ef9562a7dcce91392c22ab16ea36>@@$$QAV<lambda_e25ca0880e6ef98be67edffd8c599615>@@@Z 10026c08     libucrt:wsetlocale.obj
 0002:00007c28       __sehtable$___acrt_initialize_lowio 10026c28     libucrt:ioinit.obj
 0002:00007c48       __sehtable$?update_thread_multibyte_data_internal@@YAPAU__crt_multibyte_data@@QAU__acrt_ptd@@QAPAU1@@Z 10026c48     libucrt:mbctype.obj
 0002:00007c68       __sehtable$??$?RV<lambda_ceb1ee4838e85a9d631eb091e2fbe199>@@AAV<lambda_ae742caa10f662c28703da3d2ea5e57e>@@V<lambda_cd08b5d6af4937fe54fc07d0c9bf6b37>@@@?$__crt_seh_guarded_call@X@@QAEX$$QAV<lambda_ceb1ee4838e85a9d631eb091e2fbe199>@@AAV<lambda_ae742caa10f662c28703da3d2ea5e57e>@@$$QAV<lambda_cd08b5d6af4937fe54fc07d0c9bf6b37>@@@Z 10026c68     libucrt:mbctype.obj
 0002:00007c88       __sehtable$_raise          10026c88     libucrt:signal.obj
 0002:00007ca8       __sehtable$??$?RV<lambda_cbab9ec6f41b0180b23cc171c22676b0>@@AAV<lambda_44731a7d0e6d81c3e6aa82d741081786>@@V<lambda_4b292cb8dd18144e164572427af410ab>@@@?$__crt_seh_guarded_call@P6AXH@Z@@QAEP6AXH@Z$$QAV<lambda_cbab9ec6f41b0180b23cc171c22676b0>@@AAV<lambda_44731a7d0e6d81c3e6aa82d741081786>@@$$QAV<lambda_4b292cb8dd18144e164572427af410ab>@@@Z 10026ca8     libucrt:signal.obj
 0002:00007cc8       __sehtable$??$?RV<lambda_2866be3712abc81a800a822484c830d8>@@AAV<lambda_39ca0ed439415581b5b15c265174cece>@@V<lambda_2b24c74d71094a6cd0cb82e44167d71b>@@@?$__crt_seh_guarded_call@X@@QAEX$$QAV<lambda_2866be3712abc81a800a822484c830d8>@@AAV<lambda_39ca0ed439415581b5b15c265174cece>@@$$QAV<lambda_2b24c74d71094a6cd0cb82e44167d71b>@@@Z 10026cc8     libucrt:fflush.obj
 0002:00007ce8       __sehtable$??$?RV<lambda_2cc53f568c5a2bb6f192f930a45d44ea>@@AAV<lambda_ab61a845afdef5b7c387490eaf3616ee>@@V<lambda_c2ffc0b7726aa6be21d5f0026187e748>@@@?$__crt_seh_guarded_call@X@@QAEX$$QAV<lambda_2cc53f568c5a2bb6f192f930a45d44ea>@@AAV<lambda_ab61a845afdef5b7c387490eaf3616ee>@@$$QAV<lambda_c2ffc0b7726aa6be21d5f0026187e748>@@@Z 10026ce8     libucrt:fflush.obj
 0002:00007d08       __sehtable$___acrt_update_thread_locale_data 10026d08     libucrt:locale_refcounting.obj
 0002:00007d28       __sehtable$__fcloseall     10026d28     libucrt:closeall.obj
 0002:00007d48       __sehtable$___acrt_lowio_ensure_fh_exists 10026d48     libucrt:osfinfo.obj
 0002:00007d68       __sehtable$??$?RV<lambda_9e9de3de5fa147e2223d7db92bc10aa6>@@AAV<lambda_38ce7e780aa69e748d6df282ebc68efe>@@V<lambda_8ca6da459f0f6780f1cff60fdc3d00e5>@@@?$__crt_seh_guarded_call@H@@QAEH$$QAV<lambda_9e9de3de5fa147e2223d7db92bc10aa6>@@AAV<lambda_38ce7e780aa69e748d6df282ebc68efe>@@$$QAV<lambda_8ca6da459f0f6780f1cff60fdc3d00e5>@@@Z 10026d68     libucrt:commit.obj
 0002:00007d88       __sehtable$__write         10026d88     libucrt:write.obj
 0002:00007da8       __sehtable$_fclose         10026da8     libucrt:fclose.obj
 0002:00007dc8       __sehtable$??$?RV<lambda_218ce3db14220d0be481dae8ef3383b6>@@AAV<lambda_628dfdc04ba53c8bfc02c9951375f3f5>@@V<lambda_57dc472bd5c9d5f3b2cbca59b8a843ae>@@@?$__crt_seh_guarded_call@H@@QAEH$$QAV<lambda_218ce3db14220d0be481dae8ef3383b6>@@AAV<lambda_628dfdc04ba53c8bfc02c9951375f3f5>@@$$QAV<lambda_57dc472bd5c9d5f3b2cbca59b8a843ae>@@@Z 10026dc8     libucrt:close.obj
 0002:00007de8       __sehtable$__IsNonwritableInCurrentImage 10026de8     LIBCMT:pesect.obj
 0002:00007e10       .edata                     10026e10     OPOSPOSPower.exp
 0002:00007e38       rgpv                       10026e38     OPOSPOSPower.exp
 0002:00007e48       rgszName                   10026e48     OPOSPOSPower.exp
 0002:00007e58       rgwOrd                     10026e58     OPOSPOSPower.exp
 0002:00007e60       szName                     10026e60     OPOSPOSPower.exp
 0002:00007e71       $N00001                    10026e71     OPOSPOSPower.exp
 0002:00007e81       $N00002                    10026e81     OPOSPOSPower.exp
 0002:00007e93       $N00003                    10026e93     OPOSPOSPower.exp
 0002:00007ea5       $N00004                    10026ea5     OPOSPOSPower.exp
 0002:000084b6       .idata$6                   100274b6     kernel32:KERNEL32.dll
 0002:000086ca       .idata$6                   100276ca     user32:USER32.dll
 0002:000087fe       .idata$6                   100277fe     gdi32:GDI32.dll
 0002:000088a4       .idata$6                   100278a4     advapi32:ADVAPI32.dll
 0002:000089c0       .idata$6                   100279c0     ole32:ole32.dll
 0002:000089ca       .idata$6                   100279ca     oleaut32:OLEAUT32.dll
 0003:00000110       ?ObjectMap@@3PAU_ATL_OBJMAP_ENTRY30@ATL@@A 10028110     POSPower.obj
 0003:000001c4       ?s_RequiredMethodsPerRelease@@3PAHA 100281c4     POSPowerImpl.obj
 0003:000001d8       ?s_SOMethodNames@@3PAPADA  100281d8     POSPowerImpl.obj
 0003:00000250       ?__vcrt_flsindex@@3KA      10028250     libvcruntime:per_thread_data.obj
 0003:00000270       ?errno_no_memory@@3HA      10028270     libucrt:errno.obj
 0003:00000274       ?doserrno_no_memory@@3KA   10028274     libucrt:errno.obj
 0003:00000280       ?__acrt_flsindex@@3KA      10028280     libucrt:per_thread_data.obj
 0003:00000618       __mbctypes                 10028618     libucrt:mbctype.obj
 0003:00000720       __mbcasemaps               10028720     libucrt:mbctype.obj
 0003:00000820       ?__rgctypeflag@@3PADA      10028820     libucrt:mbctype.obj
 0003:00000828       ?__rgcode_page_info@@3PAUcode_page_info@@A 10028828     libucrt:mbctype.obj
 0003:00000a80       ?__dcrt_lowio_console_output_handle@@3PAXA 10028a80     libucrt:initcon.obj
 0003:00000c18       ?is_initialized_as_dll@@3_NA 10028c18     LIBCMT:utility.obj
 0003:00000c19       ?module_local_atexit_table_initialized@@3_NA 10028c19     LIBCMT:utility.obj
 0003:00000c1c       ?module_local_atexit_table@@3U_onexit_table_t@@A 10028c1c     LIBCMT:utility.obj
 0003:00000c28       ?module_local_at_quick_exit_table@@3U_onexit_table_t@@A 10028c28     LIBCMT:utility.obj
 0003:00000c34       ?g_tss_cv@@3U_RTL_CONDITION_VARIABLE@@A 10028c34     LIBCMT:thread_safe_statics.obj
 0003:00000c38       ?g_tss_event@@3PAXA        10028c38     LIBCMT:thread_safe_statics.obj
 0003:00000c3c       ?g_tss_mutex@@3U_RTL_CRITICAL_SECTION@@A 10028c3c     LIBCMT:thread_safe_statics.obj
 0003:00000c54       ?g_sleep_condition_variable_cs@@3P6GHPAU_RTL_CONDITION_VARIABLE@@PAU_RTL_CRITICAL_SECTION@@K@ZA 10028c54     LIBCMT:thread_safe_statics.obj
 0003:00000c58       ?g_wake_all_condition_variable@@3P6GXPAU_RTL_CONDITION_VARIABLE@@@ZA 10028c58     LIBCMT:thread_safe_statics.obj
 0003:00000c60       _GS_ExceptionRecord        10028c60     LIBCMT:gs_report.obj
 0003:00000cb0       _GS_ContextRecord          10028cb0     LIBCMT:gs_report.obj
 0003:00000f80       ?__proc_attached@@3HA      10028f80     LIBCMT:dll_dllmain.obj
 0003:00000fdc       ?AllocateData@@3P6GPAUAtlThunkData_t@@XZA 10028fdc     atls:atlthunk.obj
 0003:00000fe0       ?InitData@@3P6GXPAUAtlThunkData_t@@PAXI@ZA 10028fe0     atls:atlthunk.obj
 0003:00000fe4       ?DataToCode@@3P6GP6GJPAUHWND__@@IIJ@ZPAUAtlThunkData_t@@@ZA 10028fe4     atls:atlthunk.obj
 0003:00000fe8       ?FreeData@@3P6GXPAUAtlThunkData_t@@@ZA 10028fe8     atls:atlthunk.obj
 0003:00000fec       ?Initialized@@3_NA         10028fec     atls:atlthunk.obj
 0003:00000ffc       ?__vcrt_startup_thread_ptd@@3U__vcrt_ptd@@A 10028ffc     libvcruntime:per_thread_data.obj
 0003:00001024       ___vcrt_lock_table         10029024     libvcruntime:locks.obj
 0003:0000103c       ___vcrt_locks_initialized  1002903c     libvcruntime:locks.obj
 0003:00001068       ?heap@@3V_HeapManager@@A   10029068     libvcruntime:undname.obj
 0003:0000107c       ?module_handles@@3PAPAUHINSTANCE__@@A 1002907c     libvcruntime:winapi_downlevel.obj
 0003:00001088       ?function_pointers@@3PAPAXA 10029088     libvcruntime:winapi_downlevel.obj
 0003:0000109c       ?__acrt_invalid_parameter_handler@@3V?$dual_state_global@P6AXPB_W00II@Z@__crt_state_management@@A 1002909c     libucrt:invalid_parameter.obj
 0003:000010a0       ?c_termination_complete@@3JA 100290a0     libucrt:exit.obj
 0003:000010a4       ?thread_local_exit_callback_func@@3P6GXPAXK0@ZA 100290a4     libucrt:exit.obj
 0003:000010b0       ?program_name@?1???$common_configure_argv@D@@YAHW4_crt_argv_mode@@@Z@4PADA 100290b0     libucrt:argv_parsing.obj
 0003:000011e0       ?__acrt_new_handler@@3V?$dual_state_global@P6AHI@Z@__crt_state_management@@A 100291e0     libucrt:new_handler.obj
 0003:000011e8       ?module_handles@@3PAPAUHINSTANCE__@@A 100291e8     libucrt:winapi_thunks.obj
 0003:00001238       ?encoded_function_pointers@@3PAPAXA 10029238     libucrt:winapi_thunks.obj
 0003:000012c0       ?internal_state@?1??_mbtowc_l@@9@4U_Mbstatet@@A 100292c0     libucrt:mbtowc.obj
 0003:000012d0       ?enable_percent_n@@3IA     100292d0     libucrt:printf_count_output.obj
 0003:000014f0       ?__acrt_lock_table@@3PAU_RTL_CRITICAL_SECTION@@A 100294f0     libucrt:locks.obj
 0003:00001640       ?__acrt_locks_initialized@@3IA 10029640     libucrt:locks.obj
 0003:00001650       ?fSystemSet@@3HA           10029650     libucrt:mbctype.obj
 0003:00001654       ?initialized@?1??__acrt_initialize_multibyte@@9@4_NA 10029654     libucrt:mbctype.obj
 0003:00001674       ?ctrlc_action@@3V?$dual_state_global@P6AXH@Z@__crt_state_management@@A 10029674     libucrt:signal.obj
 0003:00001678       ?ctrlbreak_action@@3V?$dual_state_global@P6AXH@Z@__crt_state_management@@A 10029678     libucrt:signal.obj
 0003:0000167c       ?abort_action@@3V?$dual_state_global@P6AXH@Z@__crt_state_management@@A 1002967c     libucrt:signal.obj
 0003:00001680       ?term_action@@3V?$dual_state_global@P6AXH@Z@__crt_state_management@@A 10029680     libucrt:signal.obj
 0003:00001684       ?user_matherr@@3V?$dual_state_global@P6AHPAU_exception@@@Z@__crt_state_management@@A 10029684     libucrt:matherr.obj
 0003:00001688       ?__acrt_global_new_mode@@3V?$dual_state_global@J@__crt_state_management@@A 10029688     libucrt:new_mode.obj
 0003:00001694       ?internal_pst@?1??__mbrtoc32_utf8@__crt_mbstring@@YAIPA_UPBDIPAU_Mbstatet@@@Z@4U3@A 10029694     libucrt:mbrtoc32.obj
 0003:0000169c       ?__acrt_app_type@@3W4_crt_app_type@@A 1002969c     libucrt:report_runtime_error.obj
 0003:000016a4       __pmatherr_set             100296a4     libucrt:libm_error.obj
 0004:00000220       $R000000                   1002a220     POSPower.res
 0004:00000bb0       $R000990                   1002abb0     POSPower.res
 0004:00000c98       $R000A78                   1002ac98     POSPower.res
 0004:00000f00       $R000CE0                   1002af00     POSPower.res
 0004:00001458       $R001238                   1002b458     POSPower.res
 0004:00004440       $R004220                   1002e440     POSPower.res
 0004:00004470       $R004250                   1002e470     POSPower.res
