 OPOSBumpBar

 Timestamp is 61a75b7e (Wed Dec  1 20:24:46 2021)

 Preferred load address is 10000000

 Start         Length     Name                   Class
 0001:00000000 00000080H .text$di                CODE
 0001:00000080 0001ed48H .text$mn                CODE
 0001:0001edc8 000000d8H .text$x                 CODE
 0001:0001eea0 00000042H .text$yd                CODE
 0002:00000000 000002fcH .idata$5                DATA
 0002:000002fc 00000008H .00cfg                  DATA
 0002:00000304 00000004H .CRT$XCA                DATA
 0002:00000308 00000004H .CRT$XCL                DATA
 0002:0000030c 00000010H .CRT$XCU                DATA
 0002:0000031c 00000004H .CRT$XCZ                DATA
 0002:00000320 00000004H .CRT$XIA                DATA
 0002:00000324 00000010H .CRT$XIC                DATA
 0002:00000334 00000004H .CRT$XIZ                DATA
 0002:00000338 00000004H .CRT$XLA                DATA
 0002:0000033c 00000004H .CRT$XLZ                DATA
 0002:00000340 00000004H .CRT$XPA                DATA
 0002:00000344 00000008H .CRT$XPX                DATA
 0002:0000034c 00000004H .CRT$XPXA               DATA
 0002:00000350 00000004H .CRT$XPZ                DATA
 0002:00000354 00000004H .CRT$XTA                DATA
 0002:00000358 00000008H .CRT$XTZ                DATA
 0002:0000035c 00000000H .gfids$y                DATA
 0002:00000360 00006e60H .rdata                  DATA
 0002:000071c0 00000000H .rdata$CastGuardVftablesA DATA
 0002:000071c0 00000000H .rdata$CastGuardVftablesC DATA
 0002:000071c0 00000018H .rdata$T                DATA
 0002:000071d8 00000178H .rdata$r                DATA
 0002:00007350 0000002cH .rdata$sxdata           DATA
 0002:0000737c 00000030H .rdata$voltmd           DATA
 0002:000073ac 00000408H .rdata$zzzdbg           DATA
 0002:000077b4 00000004H .rtc$IAA                DATA
 0002:000077b8 00000004H .rtc$IZZ                DATA
 0002:000077bc 00000004H .rtc$TAA                DATA
 0002:000077c0 00000004H .rtc$TZZ                DATA
 0002:000077c4 00000004H .tls                    DATA
 0002:000077c8 00000004H .tls$                   DATA
 0002:000077cc 00000004H .tls$ZZZ                DATA
 0002:000077d0 000006dcH .xdata$x                DATA
 0002:00007eac 00000004H ATL$__a                 DATA
 0002:00007eb0 00000010H ATL$__z                 DATA
 0002:00007ec0 000000a8H .edata                  DATA
 0002:00007f68 00000078H .idata$2                DATA
 0002:00007fe0 00000014H .idata$3                DATA
 0002:00007ff4 000002fcH .idata$4                DATA
 0002:000082f0 00000bceH .idata$6                DATA
 0003:00000000 00000aa0H .data                   DATA
 0003:00000aa0 00000080H .data$r                 DATA
 0003:00000b20 00000018H .data$rs                DATA
 0003:00000b38 00000b80H .bss                    DATA
 0004:00000000 00000220H .rsrc$01                DATA
 0004:00000220 000042f0H .rsrc$02                DATA

  Address         Publics by Value              Rva+Base       Lib:Object

 0000:00000000       ___guard_fids_count        00000000     <absolute>
 0000:00000000       ___guard_eh_cont_table     00000000     <absolute>
 0000:00000000       ___guard_longjmp_table     00000000     <absolute>
 0000:00000000       ___arm64x_extra_rfe_table  00000000     <absolute>
 0000:00000000       ___arm64x_redirection_metadata 00000000     <absolute>
 0000:00000000       ___guard_iat_count         00000000     <absolute>
 0000:00000000       ___guard_eh_cont_count     00000000     <absolute>
 0000:00000000       __except_list              00000000     <absolute>
 0000:00000000       ___x64_code_ranges_to_entry_points_count 00000000     <absolute>
 0000:00000000       ___hybrid_code_map_count   00000000     <absolute>
 0000:00000000       ___x64_code_ranges_to_entry_points 00000000     <absolute>
 0000:00000000       ___guard_iat_table         00000000     <absolute>
 0000:00000000       ___arm64x_native_entrypoint 00000000     <absolute>
 0000:00000000       ___hybrid_code_map         00000000     <absolute>
 0000:00000000       ___arm64x_extra_rfe_table_size 00000000     <absolute>
 0000:00000000       ___guard_longjmp_count     00000000     <absolute>
 0000:00000000       ___guard_check_icall_a64n_fptr 00000000     <absolute>
 0000:00000000       ___arm64x_redirection_metadata_count 00000000     <absolute>
 0000:00000000       ___hybrid_auxiliary_iat    00000000     <absolute>
 0000:00000000       ___dynamic_value_reloc_table 00000000     <absolute>
 0000:00000000       ___AbsoluteZero            00000000     <absolute>
 0000:00000000       ___enclave_config          00000000     <absolute>
 0000:00000000       ___guard_fids_table        00000000     <absolute>
 0000:00000000       ___hybrid_auxiliary_iat_copy 00000000     <absolute>
 0000:0000000b       ___safe_se_handler_count   0000000b     <absolute>
 0000:0000002c       __tls_array                0000002c     <absolute>
 0000:00000100       ___guard_flags             00000100     <absolute>
 0000:00000000       ___ImageBase               10000000     <linker-defined>
 0001:00000080       ?DupWide@_CW@@AAEXXZ       10001080 f   CWString.obj
 0001:0000009c       ?cw_dup@@YGXPBDAAHAAPA_W1@Z 1000109c f   CWString.obj
 0001:00000124       ?cw_memcpy@@YGHPA_WPBDH@Z  10001124 f   CWString.obj
 0001:00000150       ?cw_strcpy@@YAHPA_WPBD@Z   10001150 f   CWString.obj
 0001:00000163       ?cw_strlen@@YAHPBD@Z       10001163 f   CWString.obj
 0001:0000017c       ??0CAtlComModule@ATL@@QAE@XZ 1000117c f i OposVariant.obj
 0001:000001c1       ??0CAtlWinModule@ATL@@QAE@XZ 100011c1 f i OposVariant.obj
 0001:000001f8       ??0OposDispParms@@QAE@PAVOposVariant@@H@Z 100011f8 f   OposVariant.obj
 0001:00000269       ??1OposDispParms@@QAE@XZ   10001269 f   OposVariant.obj
 0001:00000277       ??A?$CSimpleArray@GV?$CSimpleArrayEqualHelper@G@ATL@@@ATL@@QAEAAGH@Z 10001277 f i OposVariant.obj
 0001:0000029c       ??_Estringdispid@CComTypeInfoHolder@ATL@@QAEPAXI@Z 1000129c f i OposVariant.obj
 0001:00000308       ?AtlWinModuleInit@ATL@@YGJPAU_ATL_WIN_MODULE70@1@@Z 10001308 f i OposVariant.obj
 0001:0000032e       ?AtlWinModuleTerm@ATL@@YGJPAU_ATL_WIN_MODULE70@1@PAUHINSTANCE__@@@Z 1000132e f i OposVariant.obj
 0001:00000391       ?ChangeBSTR@OposVariant@@QAEXPAPA_WAAJ@Z 10001391 f   OposVariant.obj
 0001:000003d2       ?ChangeLONG@OposVariant@@QAEXPAJAAJ@Z 100013d2 f   OposVariant.obj
 0001:00000413       ?GetLONG@OposVariant@@QAEJXZ 10001413 f   OposVariant.obj
 0001:0000042e       ?Init@CComCriticalSection@ATL@@QAEJXZ 1000142e f i OposVariant.obj
 0001:00000456       ?RemoveAll@?$CSimpleArray@GV?$CSimpleArrayEqualHelper@G@ATL@@@ATL@@QAEXXZ 10001456 f i OposVariant.obj
 0001:00000456       ?RemoveAll@?$CSimpleArray@PAUHINSTANCE__@@V?$CSimpleArrayEqualHelper@PAUHINSTANCE__@@@ATL@@@ATL@@QAEXXZ 10001456 f i atls:atlbase.obj
 0001:00000473       ?SetBSTR@OposVariant@@QAEXPA_WAAJ@Z 10001473 f   OposVariant.obj
 0001:000004a7       ?SetBSTR_Copy@OposVariant@@QAEXPA_WAAJ@Z 100014a7 f   OposVariant.obj
 0001:000004f7       ?SetBSTR_InOutPtr@OposVariant@@QAE_NPAPA_WAAJ@Z 100014f7 f   OposVariant.obj
 0001:0000052e       ?SetDispatch_Ptr@OposVariant@@QAEXPAUIDispatch@@AAJ@Z 1000152e f   OposVariant.obj
 0001:00000569       ?SetLONG@OposVariant@@QAEXJ@Z 10001569 f   OposVariant.obj
 0001:0000058b       ?SetLONG_Ptr@OposVariant@@QAEXPAJAAJ@Z 1000158b f   OposVariant.obj
 0001:000005be       ?SetString@OposVariant@@QAEXPB_WAAJ@Z 100015be f   OposVariant.obj
 0001:00000604       ?SetVARIANT_BOOL@OposVariant@@QAEXF@Z 10001604 f   OposVariant.obj
 0001:0000062e       ?Term@CAtlComModule@ATL@@QAEXXZ 1000162e f i OposVariant.obj
 0001:00000678       ?_AtlRaiseException@ATL@@YAXKK@Z 10001678 f i OposVariant.obj
 0001:0000068d       ?OnDrawAdvanced@CComControlBase@ATL@@UAEJAAUATL_DRAWINFO@@@Z 1000168d f i BumpBar.obj
 0001:00000780       ?Next@?$CComEnumImpl@UIEnumConnections@@$1?_GUID_b196b287_bab4_101a_b69c_00aa00341d07@@3U__s_GUID@@BUtagCONNECTDATA@@V?$_Copy@UtagCONNECTDATA@@@ATL@@@ATL@@UAGJKPAUtagCONNECTDATA@@PAK@Z 10001780 f i BumpBar.obj
 0001:0000084f       ?Skip@?$CComEnumImpl@UIEnumConnections@@$1?_GUID_b196b287_bab4_101a_b69c_00aa00341d07@@3U__s_GUID@@BUtagCONNECTDATA@@V?$_Copy@UtagCONNECTDATA@@@ATL@@@ATL@@UAGJK@Z 1000184f f i BumpBar.obj
 0001:0000087c       ?Reset@?$CComEnumImpl@UIEnumConnections@@$1?_GUID_b196b287_bab4_101a_b69c_00aa00341d07@@3U__s_GUID@@BUtagCONNECTDATA@@V?$_Copy@UtagCONNECTDATA@@@ATL@@@ATL@@UAGJXZ 1000187c f i BumpBar.obj
 0001:0000087c       ?Reset@?$CComEnumImpl@UIEnumConnectionPoints@@$1?_GUID_b196b285_bab4_101a_b69c_00aa00341d07@@3U__s_GUID@@BPAUIConnectionPoint@@V?$_CopyInterface@UIConnectionPoint@@@ATL@@@ATL@@UAGJXZ 1000187c f i BumpBar.obj
 0001:0000088e       ?Clone@?$CComEnumImpl@UIEnumConnections@@$1?_GUID_b196b287_bab4_101a_b69c_00aa00341d07@@3U__s_GUID@@BUtagCONNECTDATA@@V?$_Copy@UtagCONNECTDATA@@@ATL@@@ATL@@UAGJPAPAUIEnumConnections@@@Z 1000188e f i BumpBar.obj
 0001:0000096f       ?AddRef@?$CComObject@V?$CComEnum@UIEnumConnections@@$1?_GUID_b196b287_bab4_101a_b69c_00aa00341d07@@3U__s_GUID@@BUtagCONNECTDATA@@V?$_Copy@UtagCONNECTDATA@@@ATL@@VCComSingleThreadModel@6@@ATL@@@ATL@@UAGKXZ 1000196f f i BumpBar.obj
 0001:0000096f       ?AddRef@?$CComObject@V?$CComEnum@UIEnumConnectionPoints@@$1?_GUID_b196b285_bab4_101a_b69c_00aa00341d07@@3U__s_GUID@@BPAUIConnectionPoint@@V?$_CopyInterface@UIConnectionPoint@@@ATL@@VCComSingleThreadModel@6@@ATL@@@ATL@@UAGKXZ 1000196f f i BumpBar.obj
 0001:00000980       ?Release@?$CComObject@V?$CComEnum@UIEnumConnections@@$1?_GUID_b196b287_bab4_101a_b69c_00aa00341d07@@3U__s_GUID@@BUtagCONNECTDATA@@V?$_Copy@UtagCONNECTDATA@@@ATL@@VCComSingleThreadModel@6@@ATL@@@ATL@@UAGKXZ 10001980 f i BumpBar.obj
 0001:00000980       ?Release@?$CComObject@V?$CComEnum@UIEnumConnectionPoints@@$1?_GUID_b196b285_bab4_101a_b69c_00aa00341d07@@3U__s_GUID@@BPAUIConnectionPoint@@V?$_CopyInterface@UIConnectionPoint@@@ATL@@VCComSingleThreadModel@6@@ATL@@@ATL@@UAGKXZ 10001980 f i BumpBar.obj
 0001:000009bc       ?QueryInterface@?$CComObject@V?$CComEnum@UIEnumConnections@@$1?_GUID_b196b287_bab4_101a_b69c_00aa00341d07@@3U__s_GUID@@BUtagCONNECTDATA@@V?$_Copy@UtagCONNECTDATA@@@ATL@@VCComSingleThreadModel@6@@ATL@@@ATL@@UAGJABU_GUID@@PAPAX@Z 100019bc f i BumpBar.obj
 0001:000009d6       ??_E?$CComObject@V?$CComEnum@UIEnumConnections@@$1?_GUID_b196b287_bab4_101a_b69c_00aa00341d07@@3U__s_GUID@@BUtagCONNECTDATA@@V?$_Copy@UtagCONNECTDATA@@@ATL@@VCComSingleThreadModel@6@@ATL@@@ATL@@UAEPAXI@Z 100019d6 f i BumpBar.obj
 0001:000009d6       ??_G?$CComObject@V?$CComEnum@UIEnumConnections@@$1?_GUID_b196b287_bab4_101a_b69c_00aa00341d07@@3U__s_GUID@@BUtagCONNECTDATA@@V?$_Copy@UtagCONNECTDATA@@@ATL@@VCComSingleThreadModel@6@@ATL@@@ATL@@UAEPAXI@Z 100019d6 f i BumpBar.obj
 0001:000009f8       ?ObjectMain@CComObjectRootBase@ATL@@SGX_N@Z 100019f8 f i BumpBar.obj
 0001:000009f8       ?OnFinalMessage@?$CWindowImplBaseT@VCWindow@ATL@@V?$CWinTraits@$0FGAAAAAA@$0A@@2@@ATL@@UAEXPAUHWND__@@@Z 100019f8 f i BumpBar.obj
 0001:000009fb       ?GetCategoryMap@CComObjectRootBase@ATL@@SAPBU_ATL_CATMAP_ENTRY@2@XZ 100019fb f i BumpBar.obj
 0001:000009fb       ?GetObjectDescription@?$CComCoClass@VCOPOSBumpBar@@$1?CLSID_OPOSBumpBar@@3U_GUID@@B@ATL@@SGPB_WXZ 100019fb f i BumpBar.obj
 0001:000009fe       ?CreateInstance@CComClassFactory@ATL@@UAGJPAUIUnknown@@ABU_GUID@@PAPAX@Z 100019fe f i BumpBar.obj
 0001:00000a3c       ?LockServer@CComClassFactory@ATL@@UAGJH@Z 10001a3c f i BumpBar.obj
 0001:00000a5b       ??_ECComClassFactory@ATL@@UAEPAXI@Z 10001a5b f i BumpBar.obj
 0001:00000a5b       ??_GCComClassFactory@ATL@@UAEPAXI@Z 10001a5b f i BumpBar.obj
 0001:00000a86       ??_E?$CComObject@VCOPOSBumpBar@@@ATL@@W3AEPAXI@Z 10001a86 f i BumpBar.obj
 0001:00000a8e       ??_E?$CComObject@VCOPOSBumpBar@@@ATL@@WEM@AEPAXI@Z 10001a8e f i BumpBar.obj
 0001:00000a96       ?QueryInterface@?$CComObject@VCOPOSBumpBar@@@ATL@@WHA@AGJABU_GUID@@PAPAX@Z 10001a96 f i BumpBar.obj
 0001:00000aa0       ?AddRef@?$CComObject@VCOPOSBumpBar@@@ATL@@WHA@AGKXZ 10001aa0 f i BumpBar.obj
 0001:00000aaa       ?Release@?$CComObject@VCOPOSBumpBar@@@ATL@@WHA@AGKXZ 10001aaa f i BumpBar.obj
 0001:00000ab4       ?QueryInterface@?$CComObject@VCOPOSBumpBar@@@ATL@@WHE@AGJABU_GUID@@PAPAX@Z 10001ab4 f i BumpBar.obj
 0001:00000abe       ?AddRef@?$CComObject@VCOPOSBumpBar@@@ATL@@WHE@AGKXZ 10001abe f i BumpBar.obj
 0001:00000ac8       ?Release@?$CComObject@VCOPOSBumpBar@@@ATL@@WHE@AGKXZ 10001ac8 f i BumpBar.obj
 0001:00000ad2       ?QueryInterface@?$CComObject@VCOPOSBumpBar@@@ATL@@WHI@AGJABU_GUID@@PAPAX@Z 10001ad2 f i BumpBar.obj
 0001:00000adc       ?AddRef@?$CComObject@VCOPOSBumpBar@@@ATL@@WHI@AGKXZ 10001adc f i BumpBar.obj
 0001:00000ae6       ?Release@?$CComObject@VCOPOSBumpBar@@@ATL@@WHI@AGKXZ 10001ae6 f i BumpBar.obj
 0001:00000af0       ?QueryInterface@?$CComObject@VCOPOSBumpBar@@@ATL@@WHM@AGJABU_GUID@@PAPAX@Z 10001af0 f i BumpBar.obj
 0001:00000afa       ?AddRef@?$CComObject@VCOPOSBumpBar@@@ATL@@WHM@AGKXZ 10001afa f i BumpBar.obj
 0001:00000b04       ?Release@?$CComObject@VCOPOSBumpBar@@@ATL@@WHM@AGKXZ 10001b04 f i BumpBar.obj
 0001:00000b0e       ?QueryInterface@?$CComObject@VCOPOSBumpBar@@@ATL@@WIA@AGJABU_GUID@@PAPAX@Z 10001b0e f i BumpBar.obj
 0001:00000b1b       ?AddRef@?$CComObject@VCOPOSBumpBar@@@ATL@@WIA@AGKXZ 10001b1b f i BumpBar.obj
 0001:00000b28       ?Release@?$CComObject@VCOPOSBumpBar@@@ATL@@WIA@AGKXZ 10001b28 f i BumpBar.obj
 0001:00000b35       ?QueryInterface@?$CComObject@VCOPOSBumpBar@@@ATL@@WIE@AGJABU_GUID@@PAPAX@Z 10001b35 f i BumpBar.obj
 0001:00000b42       ?AddRef@?$CComObject@VCOPOSBumpBar@@@ATL@@WIE@AGKXZ 10001b42 f i BumpBar.obj
 0001:00000b4f       ?Release@?$CComObject@VCOPOSBumpBar@@@ATL@@WIE@AGKXZ 10001b4f f i BumpBar.obj
 0001:00000b5c       ?QueryInterface@?$CComObject@VCOPOSBumpBar@@@ATL@@WII@AGJABU_GUID@@PAPAX@Z 10001b5c f i BumpBar.obj
 0001:00000b69       ?AddRef@?$CComObject@VCOPOSBumpBar@@@ATL@@WII@AGKXZ 10001b69 f i BumpBar.obj
 0001:00000b76       ?Release@?$CComObject@VCOPOSBumpBar@@@ATL@@WII@AGKXZ 10001b76 f i BumpBar.obj
 0001:00000b83       ?QueryInterface@?$CComObject@VCOPOSBumpBar@@@ATL@@WIM@AGJABU_GUID@@PAPAX@Z 10001b83 f i BumpBar.obj
 0001:00000b90       ?AddRef@?$CComObject@VCOPOSBumpBar@@@ATL@@WIM@AGKXZ 10001b90 f i BumpBar.obj
 0001:00000b9d       ?Release@?$CComObject@VCOPOSBumpBar@@@ATL@@WIM@AGKXZ 10001b9d f i BumpBar.obj
 0001:00000baa       ?QueryInterface@?$CComObject@VCOPOSBumpBar@@@ATL@@WJA@AGJABU_GUID@@PAPAX@Z 10001baa f i BumpBar.obj
 0001:00000bb7       ?AddRef@?$CComObject@VCOPOSBumpBar@@@ATL@@WJA@AGKXZ 10001bb7 f i BumpBar.obj
 0001:00000bc4       ?Release@?$CComObject@VCOPOSBumpBar@@@ATL@@WJA@AGKXZ 10001bc4 f i BumpBar.obj
 0001:00000bd1       ?QueryInterface@?$CComObject@VCOPOSBumpBar@@@ATL@@WJE@AGJABU_GUID@@PAPAX@Z 10001bd1 f i BumpBar.obj
 0001:00000bde       ?AddRef@?$CComObject@VCOPOSBumpBar@@@ATL@@WJE@AGKXZ 10001bde f i BumpBar.obj
 0001:00000beb       ?Release@?$CComObject@VCOPOSBumpBar@@@ATL@@WJE@AGKXZ 10001beb f i BumpBar.obj
 0001:00000bf8       ?QueryInterface@?$CComObject@VCOPOSBumpBar@@@ATL@@WJI@AGJABU_GUID@@PAPAX@Z 10001bf8 f i BumpBar.obj
 0001:00000c05       ?AddRef@?$CComObject@VCOPOSBumpBar@@@ATL@@WJI@AGKXZ 10001c05 f i BumpBar.obj
 0001:00000c12       ?Release@?$CComObject@VCOPOSBumpBar@@@ATL@@WJI@AGKXZ 10001c12 f i BumpBar.obj
 0001:00000c1f       ?QueryInterface@?$CComObject@VCOPOSBumpBar@@@ATL@@WJM@AGJABU_GUID@@PAPAX@Z 10001c1f f i BumpBar.obj
 0001:00000c2c       ?AddRef@?$CComObject@VCOPOSBumpBar@@@ATL@@WJM@AGKXZ 10001c2c f i BumpBar.obj
 0001:00000c39       ?Release@?$CComObject@VCOPOSBumpBar@@@ATL@@WJM@AGKXZ 10001c39 f i BumpBar.obj
 0001:00000c46       ?QueryInterface@?$CComObject@VCOPOSBumpBar@@@ATL@@WKA@AGJABU_GUID@@PAPAX@Z 10001c46 f i BumpBar.obj
 0001:00000c53       ?AddRef@?$CComObject@VCOPOSBumpBar@@@ATL@@WKA@AGKXZ 10001c53 f i BumpBar.obj
 0001:00000c60       ?Release@?$CComObject@VCOPOSBumpBar@@@ATL@@WKA@AGKXZ 10001c60 f i BumpBar.obj
 0001:00000c6d       ?AddRef@?$CComObject@VCOPOSBumpBar@@@ATL@@WKI@AGKXZ 10001c6d f i BumpBar.obj
 0001:00000c7a       ?Release@?$CComObject@VCOPOSBumpBar@@@ATL@@WKI@AGKXZ 10001c7a f i BumpBar.obj
 0001:00000c87       ?AddRef@?$CComObject@VCOPOSBumpBar@@@ATL@@WLE@AGKXZ 10001c87 f i BumpBar.obj
 0001:00000c94       ?Release@?$CComObject@VCOPOSBumpBar@@@ATL@@WLE@AGKXZ 10001c94 f i BumpBar.obj
 0001:00000ca1       ??_E?$CComContainedObject@VCOPOSBumpBar@@@ATL@@W3AEPAXI@Z 10001ca1 f i BumpBar.obj
 0001:00000ca9       ??_E?$CComContainedObject@VCOPOSBumpBar@@@ATL@@WEM@AEPAXI@Z 10001ca9 f i BumpBar.obj
 0001:00000cb1       ?QueryInterface@?$CComContainedObject@VCOPOSBumpBar@@@ATL@@WHA@AGJABU_GUID@@PAPAX@Z 10001cb1 f i BumpBar.obj
 0001:00000cbb       ?AddRef@?$CComContainedObject@VCOPOSBumpBar@@@ATL@@WHA@AGKXZ 10001cbb f i BumpBar.obj
 0001:00000cc5       ?Release@?$CComContainedObject@VCOPOSBumpBar@@@ATL@@WHA@AGKXZ 10001cc5 f i BumpBar.obj
 0001:00000ccf       ?QueryInterface@?$CComContainedObject@VCOPOSBumpBar@@@ATL@@WHE@AGJABU_GUID@@PAPAX@Z 10001ccf f i BumpBar.obj
 0001:00000cd9       ?AddRef@?$CComContainedObject@VCOPOSBumpBar@@@ATL@@WHE@AGKXZ 10001cd9 f i BumpBar.obj
 0001:00000ce3       ?Release@?$CComContainedObject@VCOPOSBumpBar@@@ATL@@WHE@AGKXZ 10001ce3 f i BumpBar.obj
 0001:00000ced       ?QueryInterface@?$CComContainedObject@VCOPOSBumpBar@@@ATL@@WHI@AGJABU_GUID@@PAPAX@Z 10001ced f i BumpBar.obj
 0001:00000cf7       ?AddRef@?$CComContainedObject@VCOPOSBumpBar@@@ATL@@WHI@AGKXZ 10001cf7 f i BumpBar.obj
 0001:00000d01       ?Release@?$CComContainedObject@VCOPOSBumpBar@@@ATL@@WHI@AGKXZ 10001d01 f i BumpBar.obj
 0001:00000d0b       ?QueryInterface@?$CComContainedObject@VCOPOSBumpBar@@@ATL@@WHM@AGJABU_GUID@@PAPAX@Z 10001d0b f i BumpBar.obj
 0001:00000d15       ?AddRef@?$CComContainedObject@VCOPOSBumpBar@@@ATL@@WHM@AGKXZ 10001d15 f i BumpBar.obj
 0001:00000d1f       ?Release@?$CComContainedObject@VCOPOSBumpBar@@@ATL@@WHM@AGKXZ 10001d1f f i BumpBar.obj
 0001:00000d29       ?QueryInterface@?$CComContainedObject@VCOPOSBumpBar@@@ATL@@WIA@AGJABU_GUID@@PAPAX@Z 10001d29 f i BumpBar.obj
 0001:00000d36       ?AddRef@?$CComContainedObject@VCOPOSBumpBar@@@ATL@@WIA@AGKXZ 10001d36 f i BumpBar.obj
 0001:00000d43       ?Release@?$CComContainedObject@VCOPOSBumpBar@@@ATL@@WIA@AGKXZ 10001d43 f i BumpBar.obj
 0001:00000d50       ?QueryInterface@?$CComContainedObject@VCOPOSBumpBar@@@ATL@@WIE@AGJABU_GUID@@PAPAX@Z 10001d50 f i BumpBar.obj
 0001:00000d5d       ?AddRef@?$CComContainedObject@VCOPOSBumpBar@@@ATL@@WIE@AGKXZ 10001d5d f i BumpBar.obj
 0001:00000d6a       ?Release@?$CComContainedObject@VCOPOSBumpBar@@@ATL@@WIE@AGKXZ 10001d6a f i BumpBar.obj
 0001:00000d77       ?QueryInterface@?$CComContainedObject@VCOPOSBumpBar@@@ATL@@WII@AGJABU_GUID@@PAPAX@Z 10001d77 f i BumpBar.obj
 0001:00000d84       ?AddRef@?$CComContainedObject@VCOPOSBumpBar@@@ATL@@WII@AGKXZ 10001d84 f i BumpBar.obj
 0001:00000d91       ?Release@?$CComContainedObject@VCOPOSBumpBar@@@ATL@@WII@AGKXZ 10001d91 f i BumpBar.obj
 0001:00000d9e       ?QueryInterface@?$CComContainedObject@VCOPOSBumpBar@@@ATL@@WIM@AGJABU_GUID@@PAPAX@Z 10001d9e f i BumpBar.obj
 0001:00000dab       ?AddRef@?$CComContainedObject@VCOPOSBumpBar@@@ATL@@WIM@AGKXZ 10001dab f i BumpBar.obj
 0001:00000db8       ?Release@?$CComContainedObject@VCOPOSBumpBar@@@ATL@@WIM@AGKXZ 10001db8 f i BumpBar.obj
 0001:00000dc5       ?QueryInterface@?$CComContainedObject@VCOPOSBumpBar@@@ATL@@WJA@AGJABU_GUID@@PAPAX@Z 10001dc5 f i BumpBar.obj
 0001:00000dd2       ?AddRef@?$CComContainedObject@VCOPOSBumpBar@@@ATL@@WJA@AGKXZ 10001dd2 f i BumpBar.obj
 0001:00000ddf       ?Release@?$CComContainedObject@VCOPOSBumpBar@@@ATL@@WJA@AGKXZ 10001ddf f i BumpBar.obj
 0001:00000dec       ?QueryInterface@?$CComContainedObject@VCOPOSBumpBar@@@ATL@@WJE@AGJABU_GUID@@PAPAX@Z 10001dec f i BumpBar.obj
 0001:00000df9       ?AddRef@?$CComContainedObject@VCOPOSBumpBar@@@ATL@@WJE@AGKXZ 10001df9 f i BumpBar.obj
 0001:00000e06       ?Release@?$CComContainedObject@VCOPOSBumpBar@@@ATL@@WJE@AGKXZ 10001e06 f i BumpBar.obj
 0001:00000e13       ?QueryInterface@?$CComContainedObject@VCOPOSBumpBar@@@ATL@@WJI@AGJABU_GUID@@PAPAX@Z 10001e13 f i BumpBar.obj
 0001:00000e20       ?AddRef@?$CComContainedObject@VCOPOSBumpBar@@@ATL@@WJI@AGKXZ 10001e20 f i BumpBar.obj
 0001:00000e2d       ?Release@?$CComContainedObject@VCOPOSBumpBar@@@ATL@@WJI@AGKXZ 10001e2d f i BumpBar.obj
 0001:00000e3a       ?QueryInterface@?$CComContainedObject@VCOPOSBumpBar@@@ATL@@WJM@AGJABU_GUID@@PAPAX@Z 10001e3a f i BumpBar.obj
 0001:00000e47       ?AddRef@?$CComContainedObject@VCOPOSBumpBar@@@ATL@@WJM@AGKXZ 10001e47 f i BumpBar.obj
 0001:00000e54       ?Release@?$CComContainedObject@VCOPOSBumpBar@@@ATL@@WJM@AGKXZ 10001e54 f i BumpBar.obj
 0001:00000e61       ?QueryInterface@?$CComContainedObject@VCOPOSBumpBar@@@ATL@@WKA@AGJABU_GUID@@PAPAX@Z 10001e61 f i BumpBar.obj
 0001:00000e6e       ?AddRef@?$CComContainedObject@VCOPOSBumpBar@@@ATL@@WKA@AGKXZ 10001e6e f i BumpBar.obj
 0001:00000e7b       ?Release@?$CComContainedObject@VCOPOSBumpBar@@@ATL@@WKA@AGKXZ 10001e7b f i BumpBar.obj
 0001:00000e88       ?AddRef@?$CComContainedObject@VCOPOSBumpBar@@@ATL@@WKI@AGKXZ 10001e88 f i BumpBar.obj
 0001:00000e95       ?Release@?$CComContainedObject@VCOPOSBumpBar@@@ATL@@WKI@AGKXZ 10001e95 f i BumpBar.obj
 0001:00000ea2       ?AddRef@?$CComContainedObject@VCOPOSBumpBar@@@ATL@@WLE@AGKXZ 10001ea2 f i BumpBar.obj
 0001:00000eaf       ?Release@?$CComContainedObject@VCOPOSBumpBar@@@ATL@@WLE@AGKXZ 10001eaf f i BumpBar.obj
 0001:00000ebc       ?GetWindowProc@?$CWindowImplBaseT@VCWindow@ATL@@V?$CWinTraits@$0FGAAAAAA@$0A@@2@@ATL@@UAEP6GJPAUHWND__@@IIJ@ZXZ 10001ebc f i BumpBar.obj
 0001:00000ec2       ?StartWindowProc@?$CWindowImplBaseT@VCWindow@ATL@@V?$CWinTraits@$0FGAAAAAA@$0A@@2@@ATL@@SGJPAUHWND__@@IIJ@Z 10001ec2 f i BumpBar.obj
 0001:00000f16       ?GetTypeInfoCount@?$IDispatchImpl@UIOPOSBumpBar@@$1?IID_IOPOSBumpBar@@3U_GUID@@B$1?LIBID_OposBumpBar_CCO@@3U3@B$00$0A@VCComTypeInfoHolder@ATL@@@ATL@@UAGJPAI@Z 10001f16 f i BumpBar.obj
 0001:00000f33       ?GetTypeInfo@?$IDispatchImpl@UIOPOSBumpBar@@$1?IID_IOPOSBumpBar@@3U_GUID@@B$1?LIBID_OposBumpBar_CCO@@3U3@B$00$0A@VCComTypeInfoHolder@ATL@@@ATL@@UAGJIKPAPAUITypeInfo@@@Z 10001f33 f i BumpBar.obj
 0001:00000f57       ?GetIDsOfNames@?$IDispatchImpl@UIOPOSBumpBar@@$1?IID_IOPOSBumpBar@@3U_GUID@@B$1?LIBID_OposBumpBar_CCO@@3U3@B$00$0A@VCComTypeInfoHolder@ATL@@@ATL@@UAGJABU_GUID@@PAPA_WIKPAJ@Z 10001f57 f i BumpBar.obj
 0001:00000f77       ?Invoke@?$IDispatchImpl@UIOPOSBumpBar@@$1?IID_IOPOSBumpBar@@3U_GUID@@B$1?LIBID_OposBumpBar_CCO@@3U3@B$00$0A@VCComTypeInfoHolder@ATL@@@ATL@@UAGJJABU_GUID@@KGPAUtagDISPPARAMS@@PAUtagVARIANT@@PAUtagEXCEPINFO@@PAI@Z 10001f77 f i BumpBar.obj
 0001:00000f85       ?CreateControlWindow@?$CComControl@VCOPOSBumpBar@@V?$CWindowImpl@VCOPOSBumpBar@@VCWindow@ATL@@V?$CWinTraits@$0FGAAAAAA@$0A@@3@@ATL@@@ATL@@UAEPAUHWND__@@PAU3@AAUtagRECT@@@Z 10001f85 f i BumpBar.obj
 0001:00000fb4       ?ControlQueryInterface@?$CComControl@VCOPOSBumpBar@@V?$CWindowImpl@VCOPOSBumpBar@@VCWindow@ATL@@V?$CWinTraits@$0FGAAAAAA@$0A@@3@@ATL@@@ATL@@UAEJABU_GUID@@PAPAX@Z 10001fb4 f i BumpBar.obj
 0001:00000fcf       ?GetClassID@?$IPersistStreamInitImpl@VCOPOSBumpBar@@@ATL@@UAGJPAU_GUID@@@Z 10001fcf f i BumpBar.obj
 0001:00000fcf       ?GetUserClassID@?$IOleObjectImpl@VCOPOSBumpBar@@@ATL@@UAGJPAU_GUID@@@Z 10001fcf f i BumpBar.obj
 0001:00000fcf       ?GetClassID@?$IPersistStorageImpl@VCOPOSBumpBar@@@ATL@@UAGJPAU_GUID@@@Z 10001fcf f i BumpBar.obj
 0001:00000ff3       ?IsDirty@?$IPersistStreamInitImpl@VCOPOSBumpBar@@@ATL@@UAGJXZ 10001ff3 f i BumpBar.obj
 0001:00001012       ?Load@?$IPersistStreamInitImpl@VCOPOSBumpBar@@@ATL@@UAGJPAUIStream@@@Z 10002012 f i BumpBar.obj
 0001:00001031       ?Save@?$IPersistStreamInitImpl@VCOPOSBumpBar@@@ATL@@UAGJPAUIStream@@H@Z 10002031 f i BumpBar.obj
 0001:00001053       ?GetSizeMax@?$IPersistStreamInitImpl@VCOPOSBumpBar@@@ATL@@UAGJPAT_ULARGE_INTEGER@@@Z 10002053 f i BumpBar.obj
 0001:00001232       ?InitNew@?$IPersistStreamInitImpl@VCOPOSBumpBar@@@ATL@@UAGJXZ 10002232 f i BumpBar.obj
 0001:0000124f       ?OnMnemonic@?$IOleControlImpl@VCOPOSBumpBar@@@ATL@@UAGJPAUtagMSG@@@Z 1000224f f i BumpBar.obj
 0001:0000124f       ?QueryGetData@?$IDataObjectImpl@VCOPOSBumpBar@@@ATL@@UAGJPAUtagFORMATETC@@@Z 1000224f f i BumpBar.obj
 0001:0000124f       ?ContextSensitiveHelp@?$IOleInPlaceActiveObjectImpl@VCOPOSBumpBar@@@ATL@@UAGJH@Z 1000224f f i BumpBar.obj
 0001:0000124f       ?GetControlInfo@?$IOleControlImpl@VCOPOSBumpBar@@@ATL@@UAGJPAUtagCONTROLINFO@@@Z 1000224f f i BumpBar.obj
 0001:0000124f       ?GetDropTarget@?$IOleInPlaceObjectWindowlessImpl@VCOPOSBumpBar@@@ATL@@UAGJPAPAUIDropTarget@@@Z 1000224f f i BumpBar.obj
 0001:0000124f       ?ContextSensitiveHelp@?$IOleInPlaceObjectWindowlessImpl@VCOPOSBumpBar@@@ATL@@UAGJH@Z 1000224f f i BumpBar.obj
 0001:0000124f       ?Unfreeze@?$IViewObjectExImpl@VCOPOSBumpBar@@@ATL@@UAGJK@Z 1000224f f i BumpBar.obj
 0001:0000124f       ?SetColorScheme@?$IOleObjectImpl@VCOPOSBumpBar@@@ATL@@UAGJPAUtagLOGPALETTE@@@Z 1000224f f i BumpBar.obj
 0001:00001257       ?SaveCompleted@?$IPersistStorageImpl@VCOPOSBumpBar@@@ATL@@UAGJPAUIStorage@@@Z 10002257 f i BumpBar.obj
 0001:00001257       ?OnAmbientPropertyChange@?$IOleControlImpl@VCOPOSBumpBar@@@ATL@@UAGJJ@Z 10002257 f i BumpBar.obj
 0001:00001257       ?OnFrameWindowActivate@?$IOleInPlaceActiveObjectImpl@VCOPOSBumpBar@@@ATL@@UAGJH@Z 10002257 f i BumpBar.obj
 0001:00001257       ?EnableModeless@?$IOleInPlaceActiveObjectImpl@VCOPOSBumpBar@@@ATL@@UAGJH@Z 10002257 f i BumpBar.obj
 0001:0000125c       ?SetClientSite@?$IOleObjectImpl@VCOPOSBumpBar@@@ATL@@UAGJPAUIOleClientSite@@@Z 1000225c f i BumpBar.obj
 0001:00001279       ?GetClientSite@?$IOleObjectImpl@VCOPOSBumpBar@@@ATL@@UAGJPAPAUIOleClientSite@@@Z 10002279 f i BumpBar.obj
 0001:00001296       ?SetHostNames@?$IOleObjectImpl@VCOPOSBumpBar@@@ATL@@UAGJPB_W0@Z 10002296 f i BumpBar.obj
 0001:0000129b       ?Close@?$IOleObjectImpl@VCOPOSBumpBar@@@ATL@@UAGJK@Z 1000229b f i BumpBar.obj
 0001:000012b8       ?EnumFormatEtc@?$IDataObjectImpl@VCOPOSBumpBar@@@ATL@@UAGJKPAPAUIEnumFORMATETC@@@Z 100022b8 f i BumpBar.obj
 0001:000012b8       ?GetRect@?$IViewObjectExImpl@VCOPOSBumpBar@@@ATL@@UAGJKPAU_RECTL@@@Z 100022b8 f i BumpBar.obj
 0001:000012b8       ?GetDataHere@?$IDataObjectImpl@VCOPOSBumpBar@@@ATL@@UAGJPAUtagFORMATETC@@PAUtagSTGMEDIUM@@@Z 100022b8 f i BumpBar.obj
 0001:000012b8       ?SetMoniker@?$IOleObjectImpl@VCOPOSBumpBar@@@ATL@@UAGJKPAUIMoniker@@@Z 100022b8 f i BumpBar.obj
 0001:000012b8       ?GetCanonicalFormatEtc@?$IDataObjectImpl@VCOPOSBumpBar@@@ATL@@UAGJPAUtagFORMATETC@@0@Z 100022b8 f i BumpBar.obj
 0001:000012b8       ?GetClipboardData@?$IOleObjectImpl@VCOPOSBumpBar@@@ATL@@UAGJKPAPAUIDataObject@@@Z 100022b8 f i BumpBar.obj
 0001:000012b8       ?QueryInterface@CRegObject@ATL@@UAGJABU_GUID@@PAPAX@Z 100022b8 f i BumpBar.obj
 0001:000012c0       ?GetMoniker@?$IOleObjectImpl@VCOPOSBumpBar@@@ATL@@UAGJKKPAPAUIMoniker@@@Z 100022c0 f i BumpBar.obj
 0001:000012c0       ?InitFromData@?$IOleObjectImpl@VCOPOSBumpBar@@@ATL@@UAGJPAUIDataObject@@HK@Z 100022c0 f i BumpBar.obj
 0001:000012c0       ?SetData@?$IDataObjectImpl@VCOPOSBumpBar@@@ATL@@UAGJPAUtagFORMATETC@@PAUtagSTGMEDIUM@@H@Z 100022c0 f i BumpBar.obj
 0001:000012c8       ?DoVerb@?$IOleObjectImpl@VCOPOSBumpBar@@@ATL@@UAGJJPAUtagMSG@@PAUIOleClientSite@@JPAUHWND__@@PBUtagRECT@@@Z 100022c8 f i BumpBar.obj
 0001:000013bc       ?EnumVerbs@?$IOleObjectImpl@VCOPOSBumpBar@@@ATL@@UAGJPAPAUIEnumOLEVERB@@@Z 100023bc f i BumpBar.obj
 0001:000013de       ?HandsOffStorage@?$IPersistStorageImpl@VCOPOSBumpBar@@@ATL@@UAGJXZ 100023de f i BumpBar.obj
 0001:000013de       ?Update@?$IOleObjectImpl@VCOPOSBumpBar@@@ATL@@UAGJXZ 100023de f i BumpBar.obj
 0001:000013de       ?IsUpToDate@?$IOleObjectImpl@VCOPOSBumpBar@@@ATL@@UAGJXZ 100023de f i BumpBar.obj
 0001:000013de       ?Release@CRegObject@ATL@@UAGKXZ 100023de f i BumpBar.obj
 0001:000013e3       ?GetUserType@?$IOleObjectImpl@VCOPOSBumpBar@@@ATL@@UAGJKPAPA_W@Z 100023e3 f i BumpBar.obj
 0001:000013fb       ?SetExtent@?$IOleObjectImpl@VCOPOSBumpBar@@@ATL@@UAGJKPAUtagSIZE@@@Z 100023fb f i BumpBar.obj
 0001:0000141b       ?GetExtent@?$IOleObjectImpl@VCOPOSBumpBar@@@ATL@@UAGJKPAUtagSIZE@@@Z 1000241b f i BumpBar.obj
 0001:00001459       ?Advise@?$IOleObjectImpl@VCOPOSBumpBar@@@ATL@@UAGJPAUIAdviseSink@@PAK@Z 10002459 f i BumpBar.obj
 0001:00001479       ?Unadvise@?$IOleObjectImpl@VCOPOSBumpBar@@@ATL@@UAGJK@Z 10002479 f i BumpBar.obj
 0001:000014a8       ?EnumAdvise@?$IOleObjectImpl@VCOPOSBumpBar@@@ATL@@UAGJPAPAUIEnumSTATDATA@@@Z 100024a8 f i BumpBar.obj
 0001:000014e8       ?GetMiscStatus@?$IOleObjectImpl@VCOPOSBumpBar@@@ATL@@UAGJKPAK@Z 100024e8 f i BumpBar.obj
 0001:00001500       ?GetWindow@?$IOleInPlaceActiveObjectImpl@VCOPOSBumpBar@@@ATL@@UAGJPAPAUHWND__@@@Z 10002500 f i BumpBar.obj
 0001:0000154d       ?TranslateAcceleratorW@?$IOleInPlaceActiveObjectImpl@VCOPOSBumpBar@@@ATL@@UAGJPAUtagMSG@@@Z 1000254d f i BumpBar.obj
 0001:000015fb       ?OnDocWindowActivate@?$IOleInPlaceActiveObjectImpl@VCOPOSBumpBar@@@ATL@@UAGJH@Z 100025fb f i BumpBar.obj
 0001:0000161d       ?ResizeBorder@?$IOleInPlaceActiveObjectImpl@VCOPOSBumpBar@@@ATL@@UAGJPBUtagRECT@@PAUIOleInPlaceUIWindow@@H@Z 1000261d f i BumpBar.obj
 0001:00001622       ?Draw@?$IViewObjectExImpl@VCOPOSBumpBar@@@ATL@@UAGJKJPAXPAUtagDVTARGETDEVICE@@PAUHDC__@@2PBU_RECTL@@3P6GHK@ZK@Z 10002622 f i BumpBar.obj
 0001:00001654       ?GetColorSet@?$IViewObjectExImpl@VCOPOSBumpBar@@@ATL@@UAGJKJPAXPAUtagDVTARGETDEVICE@@PAUHDC__@@PAPAUtagLOGPALETTE@@@Z 10002654 f i BumpBar.obj
 0001:0000165c       ?Freeze@?$IViewObjectExImpl@VCOPOSBumpBar@@@ATL@@UAGJKJPAXPAK@Z 1000265c f i BumpBar.obj
 0001:00001664       ?SetAdvise@?$IViewObjectExImpl@VCOPOSBumpBar@@@ATL@@UAGJKKPAUIAdviseSink@@@Z 10002664 f i BumpBar.obj
 0001:00001683       ?GetAdvise@?$IViewObjectExImpl@VCOPOSBumpBar@@@ATL@@UAGJPAK0PAPAUIAdviseSink@@@Z 10002683 f i BumpBar.obj
 0001:000016b8       ?GetExtent@?$IViewObjectExImpl@VCOPOSBumpBar@@@ATL@@UAGJKJPAUtagDVTARGETDEVICE@@PAUtagSIZE@@@Z 100026b8 f i BumpBar.obj
 0001:000016e9       ?GetViewStatus@?$IViewObjectExImpl@VCOPOSBumpBar@@@ATL@@UAGJPAK@Z 100026e9 f i BumpBar.obj
 0001:00001706       ?QueryHitPoint@?$IViewObjectExImpl@VCOPOSBumpBar@@@ATL@@UAGJKPBUtagRECT@@UtagPOINT@@JPAK@Z 10002706 f i BumpBar.obj
 0001:00001747       ?QueryHitRect@?$IViewObjectExImpl@VCOPOSBumpBar@@@ATL@@UAGJKPBUtagRECT@@0JPAK@Z 10002747 f i BumpBar.obj
 0001:000017a2       ?GetNaturalExtent@?$IViewObjectExImpl@VCOPOSBumpBar@@@ATL@@UAGJKJPAUtagDVTARGETDEVICE@@PAUHDC__@@PAUtagExtentInfo@@PAUtagSIZE@@@Z 100027a2 f i BumpBar.obj
 0001:000017ed       ?GetWindow@?$IOleInPlaceObjectWindowlessImpl@VCOPOSBumpBar@@@ATL@@UAGJPAPAUHWND__@@@Z 100027ed f i BumpBar.obj
 0001:0000183a       ?InPlaceDeactivate@?$IOleInPlaceObjectWindowlessImpl@VCOPOSBumpBar@@@ATL@@UAGJXZ 1000283a f i BumpBar.obj
 0001:00001854       ?UIDeactivate@?$IOleInPlaceObjectWindowlessImpl@VCOPOSBumpBar@@@ATL@@UAGJXZ 10002854 f i BumpBar.obj
 0001:0000186e       ?SetObjectRects@?$IOleInPlaceObjectWindowlessImpl@VCOPOSBumpBar@@@ATL@@UAGJPBUtagRECT@@0@Z 1000286e f i BumpBar.obj
 0001:0000188e       ?ReactivateAndUndo@?$IOleInPlaceObjectWindowlessImpl@VCOPOSBumpBar@@@ATL@@UAGJXZ 1000288e f i BumpBar.obj
 0001:00001896       ?OnWindowMessage@?$IOleInPlaceObjectWindowlessImpl@VCOPOSBumpBar@@@ATL@@UAGJIIJPAJ@Z 10002896 f i BumpBar.obj
 0001:00001906       ?EnumConnectionPoints@?$IConnectionPointContainerImpl@VCOPOSBumpBar@@@ATL@@UAGJPAPAUIEnumConnectionPoints@@@Z 10002906 f i BumpBar.obj
 0001:00001a96       ?FindConnectionPoint@?$IConnectionPointContainerImpl@VCOPOSBumpBar@@@ATL@@UAGJABU_GUID@@PAPAUIConnectionPoint@@@Z 10002a96 f i BumpBar.obj
 0001:00001b39       ?IsDirty@?$IPersistStorageImpl@VCOPOSBumpBar@@@ATL@@UAGJXZ 10002b39 f i BumpBar.obj
 0001:00001b69       ?InitNew@?$IPersistStorageImpl@VCOPOSBumpBar@@@ATL@@UAGJPAUIStorage@@@Z 10002b69 f i BumpBar.obj
 0001:00001b99       ?Load@?$IPersistStorageImpl@VCOPOSBumpBar@@@ATL@@UAGJPAUIStorage@@@Z 10002b99 f i BumpBar.obj
 0001:00001c05       ?Save@?$IPersistStorageImpl@VCOPOSBumpBar@@@ATL@@UAGJPAUIStorage@@H@Z 10002c05 f i BumpBar.obj
 0001:00001c78       ?GetPages@?$ISpecifyPropertyPagesImpl@VCOPOSBumpBar@@@ATL@@UAGJPAUtagCAUUID@@@Z 10002c78 f i BumpBar.obj
 0001:00001c8f       ?QuickActivate@?$IQuickActivateImpl@VCOPOSBumpBar@@@ATL@@UAGJPAUtagQACONTAINER@@PAUtagQACONTROL@@@Z 10002c8f f i BumpBar.obj
 0001:00001cb2       ?SetContentExtent@?$IQuickActivateImpl@VCOPOSBumpBar@@@ATL@@UAGJPAUtagSIZE@@@Z 10002cb2 f i BumpBar.obj
 0001:00001cde       ?GetContentExtent@?$IQuickActivateImpl@VCOPOSBumpBar@@@ATL@@UAGJPAUtagSIZE@@@Z 10002cde f i BumpBar.obj
 0001:00001d1a       ?GetData@?$IDataObjectImpl@VCOPOSBumpBar@@@ATL@@UAGJPAUtagFORMATETC@@PAUtagSTGMEDIUM@@@Z 10002d1a f i BumpBar.obj
 0001:00001d3d       ?DAdvise@?$IDataObjectImpl@VCOPOSBumpBar@@@ATL@@UAGJPAUtagFORMATETC@@KPAUIAdviseSink@@PAK@Z 10002d3d f i BumpBar.obj
 0001:00001d7e       ?DUnadvise@?$IDataObjectImpl@VCOPOSBumpBar@@@ATL@@UAGJK@Z 10002d7e f i BumpBar.obj
 0001:00001dac       ?EnumDAdvise@?$IDataObjectImpl@VCOPOSBumpBar@@@ATL@@UAGJPAPAUIEnumSTATDATA@@@Z 10002dac f i BumpBar.obj
 0001:00001deb       ?GetClassInfoW@?$IProvideClassInfo2Impl@$1?CLSID_OPOSBumpBar@@3U_GUID@@B$1?DIID__IOPOSBumpBarEvents@@3U2@B$1?LIBID_OposBumpBar_CCO@@3U2@B$00$0A@VCComTypeInfoHolder@ATL@@@ATL@@UAGJPAPAUITypeInfo@@@Z 10002deb f i BumpBar.obj
 0001:00001e01       ?GetGUID@?$IProvideClassInfo2Impl@$1?CLSID_OPOSBumpBar@@3U_GUID@@B$1?DIID__IOPOSBumpBarEvents@@3U2@B$1?LIBID_OposBumpBar_CCO@@3U2@B$00$0A@VCComTypeInfoHolder@ATL@@@ATL@@UAGJKPAU_GUID@@@Z 10002e01 f i BumpBar.obj
 0001:00001e3f       ?FAccessAllowed@?$IObjectSafetyImpl@VCOPOSBumpBar@@$02@ATL@@MAEHXZ 10002e3f f i BumpBar.obj
 0001:00001e3f       __get_startup_argv_mode    10002e3f f i LIBCMT:argv_mode.obj
 0001:00001e43       ?GetInterfaceSafetyOptions@?$IObjectSafetyImpl@VCOPOSBumpBar@@$02@ATL@@UAGJABU_GUID@@PAK1@Z 10002e43 f i BumpBar.obj
 0001:00001eb6       ?SetInterfaceSafetyOptions@?$IObjectSafetyImpl@VCOPOSBumpBar@@$02@ATL@@UAGJABU_GUID@@KK@Z 10002eb6 f i BumpBar.obj
 0001:00001f30       ?Lock@CAtlModule@ATL@@UAEJXZ 10002f30 f i BumpBar.obj
 0001:00001f3a       ?Unlock@CAtlModule@ATL@@UAEJXZ 10002f3a f i BumpBar.obj
 0001:00001f44       ?GetLockCount@CAtlModule@ATL@@UAEJXZ 10002f44 f i BumpBar.obj
 0001:00001f48       ?GetGITPtr@CAtlModule@ATL@@UAEJPAPAUIGlobalInterfaceTable@@@Z 10002f48 f i BumpBar.obj
 0001:00001f94       ?_LocCPQueryInterface@?$IConnectionPointImpl@VCOPOSBumpBar@@$1?DIID__IOPOSBumpBarEvents@@3U_GUID@@BVCComDynamicUnkArray@ATL@@@ATL@@UAGJABU_GUID@@PAPAX@Z 10002f94 f i BumpBar.obj
 0001:00001f94       ?_LocCPQueryInterface@?$IConnectionPointImpl@VCOPOSBumpBar@@$1?IID_IPropertyNotifySink@@3U_GUID@@BVCComDynamicUnkArray@ATL@@@ATL@@UAGJABU_GUID@@PAPAX@Z 10002f94 f i BumpBar.obj
 0001:00001fe1       ?GetConnectionInterface@?$IConnectionPointImpl@VCOPOSBumpBar@@$1?IID_IPropertyNotifySink@@3U_GUID@@BVCComDynamicUnkArray@ATL@@@ATL@@UAGJPAU_GUID@@@Z 10002fe1 f i BumpBar.obj
 0001:00002005       ?GetConnectionPointContainer@?$IConnectionPointImpl@VCOPOSBumpBar@@$1?IID_IPropertyNotifySink@@3U_GUID@@BVCComDynamicUnkArray@ATL@@@ATL@@UAGJPAPAUIConnectionPointContainer@@@Z 10003005 f i BumpBar.obj
 0001:00002028       ?Advise@?$IConnectionPointImpl@VCOPOSBumpBar@@$1?DIID__IOPOSBumpBarEvents@@3U_GUID@@BVCComDynamicUnkArray@ATL@@@ATL@@UAGJPAUIUnknown@@PAK@Z 10003028 f i BumpBar.obj
 0001:00002028       ?Advise@?$IConnectionPointImpl@VCOPOSBumpBar@@$1?IID_IPropertyNotifySink@@3U_GUID@@BVCComDynamicUnkArray@ATL@@@ATL@@UAGJPAUIUnknown@@PAK@Z 10003028 f i BumpBar.obj
 0001:000020c8       ?Unadvise@?$IConnectionPointImpl@VCOPOSBumpBar@@$1?IID_IPropertyNotifySink@@3U_GUID@@BVCComDynamicUnkArray@ATL@@@ATL@@UAGJK@Z 100030c8 f i BumpBar.obj
 0001:000020c8       ?Unadvise@?$IConnectionPointImpl@VCOPOSBumpBar@@$1?DIID__IOPOSBumpBarEvents@@3U_GUID@@BVCComDynamicUnkArray@ATL@@@ATL@@UAGJK@Z 100030c8 f i BumpBar.obj
 0001:00002108       ?EnumConnections@?$IConnectionPointImpl@VCOPOSBumpBar@@$1?IID_IPropertyNotifySink@@3U_GUID@@BVCComDynamicUnkArray@ATL@@@ATL@@UAGJPAPAUIEnumConnections@@@Z 10003108 f i BumpBar.obj
 0001:00002108       ?EnumConnections@?$IConnectionPointImpl@VCOPOSBumpBar@@$1?DIID__IOPOSBumpBarEvents@@3U_GUID@@BVCComDynamicUnkArray@ATL@@@ATL@@UAGJPAPAUIEnumConnections@@@Z 10003108 f i BumpBar.obj
 0001:0000220b       ?GetConnectionInterface@?$IConnectionPointImpl@VCOPOSBumpBar@@$1?DIID__IOPOSBumpBarEvents@@3U_GUID@@BVCComDynamicUnkArray@ATL@@@ATL@@UAGJPAU_GUID@@@Z 1000320b f i BumpBar.obj
 0001:0000222f       ?GetConnectionPointContainer@?$IConnectionPointImpl@VCOPOSBumpBar@@$1?DIID__IOPOSBumpBarEvents@@3U_GUID@@BVCComDynamicUnkArray@ATL@@@ATL@@UAGJPAPAUIConnectionPointContainer@@@Z 1000322f f i BumpBar.obj
 0001:00002252       ?AddCommonRGSReplacements@?$CAtlModuleT@VCComModule@ATL@@@ATL@@UAEJPAUIRegistrarBase@@@Z 10003252 f i BumpBar.obj
 0001:0000226c       ?UpdateRegistry@COPOSBumpBar@@SGJH@Z 1000326c f i BumpBar.obj
 0001:00002284       ?ProcessWindowMessage@COPOSBumpBar@@UAEHPAUHWND__@@IIJAAJK@Z 10003284 f i BumpBar.obj
 0001:000022d1       ?SOData@COPOSBumpBar@@MAGJJ@Z 100032d1 f i BumpBar.obj
 0001:0000230a       ?SODirectIO@COPOSBumpBar@@MAGJJPAJPAPA_W@Z 1000330a f i BumpBar.obj
 0001:00002353       ?SOError@COPOSBumpBar@@MAGJJJJPAJ@Z 10003353 f i BumpBar.obj
 0001:000023a8       ?SOOutputComplete@COPOSBumpBar@@MAGJJ@Z 100033a8 f i BumpBar.obj
 0001:000023e1       ?SOStatusUpdate@COPOSBumpBar@@MAGJJ@Z 100033e1 f i BumpBar.obj
 0001:0000241a       ?UpdateRegistryFromResourceD@CComModule@ATL@@UAGJPB_WHPAU_ATL_REGMAP_ENTRY@2@@Z 1000341a f i BumpBar.obj
 0001:0000241a       ?UpdateRegistryFromResourceD@CComModule@ATL@@UAGJIHPAU_ATL_REGMAP_ENTRY@2@@Z 1000341a f i BumpBar.obj
 0001:00002422       ?UpdateRegistryFromResource@CComModule@ATL@@UAGJPB_WHPAU_ATL_REGMAP_ENTRY@2@@Z 10003422 f i BumpBar.obj
 0001:0000242b       ?UpdateRegistryFromResource@CComModule@ATL@@UAGJIHPAU_ATL_REGMAP_ENTRY@2@@Z 1000342b f i BumpBar.obj
 0001:00002434       ??_ECComModule@ATL@@UAEPAXI@Z 10003434 f i BumpBar.obj
 0001:00002434       ??_GCComModule@ATL@@UAEPAXI@Z 10003434 f i BumpBar.obj
 0001:0000245c       ?CreateInstance@?$CComCreator@V?$CComObjectCached@VCComClassFactory@ATL@@@ATL@@@ATL@@SGJPAXABU_GUID@@PAPAX@Z 1000345c f i BumpBar.obj
 0001:000024fd       ?CreateInstance@?$CComCreator2@V?$CComCreator@V?$CComObject@VCOPOSBumpBar@@@ATL@@@ATL@@V?$CComCreator@V?$CComAggObject@VCOPOSBumpBar@@@ATL@@@2@@ATL@@SGJPAXABU_GUID@@PAPAX@Z 100034fd f i BumpBar.obj
 0001:0000251d       ?AddRef@?$CComObjectCached@VCComClassFactory@ATL@@@ATL@@UAGKXZ 1000351d f i BumpBar.obj
 0001:00002544       ?Release@?$CComObjectCached@VCComClassFactory@ATL@@@ATL@@UAGKXZ 10003544 f i BumpBar.obj
 0001:0000257a       ?QueryInterface@?$CComObjectCached@VCComClassFactory@ATL@@@ATL@@UAGJABU_GUID@@PAPAX@Z 1000357a f i BumpBar.obj
 0001:00002594       ??_G?$CComObjectCached@VCComClassFactory@ATL@@@ATL@@UAEPAXI@Z 10003594 f i BumpBar.obj
 0001:00002594       ??_E?$CComObjectCached@VCComClassFactory@ATL@@@ATL@@UAEPAXI@Z 10003594 f i BumpBar.obj
 0001:000025b6       ?Next@?$CComEnumImpl@UIEnumConnectionPoints@@$1?_GUID_b196b285_bab4_101a_b69c_00aa00341d07@@3U__s_GUID@@BPAUIConnectionPoint@@V?$_CopyInterface@UIConnectionPoint@@@ATL@@@ATL@@UAGJKPAPAUIConnectionPoint@@PAK@Z 100035b6 f i BumpBar.obj
 0001:00002685       ?Skip@?$CComEnumImpl@UIEnumConnectionPoints@@$1?_GUID_b196b285_bab4_101a_b69c_00aa00341d07@@3U__s_GUID@@BPAUIConnectionPoint@@V?$_CopyInterface@UIConnectionPoint@@@ATL@@@ATL@@UAGJK@Z 10003685 f i BumpBar.obj
 0001:000026b2       ?Clone@?$CComEnumImpl@UIEnumConnectionPoints@@$1?_GUID_b196b285_bab4_101a_b69c_00aa00341d07@@3U__s_GUID@@BPAUIConnectionPoint@@V?$_CopyInterface@UIConnectionPoint@@@ATL@@@ATL@@UAGJPAPAUIEnumConnectionPoints@@@Z 100036b2 f i BumpBar.obj
 0001:00002793       ?QueryInterface@?$CComObject@V?$CComEnum@UIEnumConnectionPoints@@$1?_GUID_b196b285_bab4_101a_b69c_00aa00341d07@@3U__s_GUID@@BPAUIConnectionPoint@@V?$_CopyInterface@UIConnectionPoint@@@ATL@@VCComSingleThreadModel@6@@ATL@@@ATL@@UAGJABU_GUID@@PAPAX@Z 10003793 f i BumpBar.obj
 0001:000027ad       ??_G?$CComObject@V?$CComEnum@UIEnumConnectionPoints@@$1?_GUID_b196b285_bab4_101a_b69c_00aa00341d07@@3U__s_GUID@@BPAUIConnectionPoint@@V?$_CopyInterface@UIConnectionPoint@@@ATL@@VCComSingleThreadModel@6@@ATL@@@ATL@@UAEPAXI@Z 100037ad f i BumpBar.obj
 0001:000027ad       ??_E?$CComObject@V?$CComEnum@UIEnumConnectionPoints@@$1?_GUID_b196b285_bab4_101a_b69c_00aa00341d07@@3U__s_GUID@@BPAUIConnectionPoint@@V?$_CopyInterface@UIConnectionPoint@@@ATL@@VCComSingleThreadModel@6@@ATL@@@ATL@@UAEPAXI@Z 100037ad f i BumpBar.obj
 0001:000027cf       ?AddRef@CRegObject@ATL@@UAGKXZ 100037cf f i BumpBar.obj
 0001:000027d5       ?AddReplacement@CRegObject@ATL@@UAGJPB_W0@Z 100037d5 f i BumpBar.obj
 0001:0000280e       ?ClearReplacements@CRegObject@ATL@@UAGJXZ 1000380e f i BumpBar.obj
 0001:00002820       ??_GCRegObject@ATL@@UAEPAXI@Z 10003820 f i BumpBar.obj
 0001:00002820       ??_ECRegObject@ATL@@UAEPAXI@Z 10003820 f i BumpBar.obj
 0001:00002842       ?AddRef@?$CComAggObject@VCOPOSBumpBar@@@ATL@@UAGKXZ 10003842 f i BumpBar.obj
 0001:00002853       ?Release@?$CComAggObject@VCOPOSBumpBar@@@ATL@@UAGKXZ 10003853 f i BumpBar.obj
 0001:0000288f       ?QueryInterface@?$CComAggObject@VCOPOSBumpBar@@@ATL@@UAGJABU_GUID@@PAPAX@Z 1000388f f i BumpBar.obj
 0001:000028de       ?AddRef@?$CComContainedObject@VCOPOSBumpBar@@@ATL@@UAGKXZ 100038de f i BumpBar.obj
 0001:000028f4       ?Release@?$CComContainedObject@VCOPOSBumpBar@@@ATL@@UAGKXZ 100038f4 f i BumpBar.obj
 0001:0000290a       ?QueryInterface@?$CComContainedObject@VCOPOSBumpBar@@@ATL@@UAGJABU_GUID@@PAPAX@Z 1000390a f i BumpBar.obj
 0001:00002925       ??_G?$CComAggObject@VCOPOSBumpBar@@@ATL@@UAEPAXI@Z 10003925 f i BumpBar.obj
 0001:00002925       ??_E?$CComAggObject@VCOPOSBumpBar@@@ATL@@UAEPAXI@Z 10003925 f i BumpBar.obj
 0001:0000294a       ?AddRef@?$CComObject@VCOPOSBumpBar@@@ATL@@UAGKXZ 1000394a f i BumpBar.obj
 0001:00002961       ?Release@?$CComObject@VCOPOSBumpBar@@@ATL@@UAGKXZ 10003961 f i BumpBar.obj
 0001:000029a3       ?QueryInterface@?$CComObject@VCOPOSBumpBar@@@ATL@@UAGJABU_GUID@@PAPAX@Z 100039a3 f i BumpBar.obj
 0001:000029bd       ??$?4UITypeInfo2@@@?$CComPtr@UITypeInfo@@@ATL@@QAEPAUITypeInfo@@ABV?$CComPtr@UITypeInfo2@@@1@@Z 100039bd f i BumpBar.obj
 0001:000029ea       ??$AtlAdd@K@ATL@@YAJPAKKK@Z 100039ea f i BumpBar.obj
 0001:00002a0d       ??$AtlAdd@_K@ATL@@YAJPA_K_K1@Z 10003a0d f i BumpBar.obj
 0001:00002a45       ??$AtlAddThrow@K@ATL@@YAKKK@Z 10003a45 f i BumpBar.obj
 0001:00002a6b       ??$AtlModuleRegisterWndClassInfoT@VAtlModuleRegisterWndClassInfoParamW@ATL@@@ATL@@YAGPAU_ATL_BASE_MODULE70@0@PAU_ATL_WIN_MODULE70@0@PAU_ATL_WNDCLASSINFOW@0@PAP6GJPAUHWND__@@IIJ@ZVAtlModuleRegisterWndClassInfoParamW@0@@Z 10003a6b f i BumpBar.obj
 0001:00002bb8       ??$AtlMultiply@H@ATL@@YAJPAHHH@Z 10003bb8 f i BumpBar.obj
 0001:00002bf0       ??$AtlMultiply@I@ATL@@YAJPAIII@Z 10003bf0 f i BumpBar.obj
 0001:00002bf0       ??$AtlMultiply@K@ATL@@YAJPAKKK@Z 10003bf0 f i BumpBar.obj
 0001:00002c12       ??$AtlMultiplyThrow@I@ATL@@YAIII@Z 10003c12 f i BumpBar.obj
 0001:00002c38       ??0?$CComAggObject@VCOPOSBumpBar@@@ATL@@QAE@PAX@Z 10003c38 f i BumpBar.obj
 0001:00002c65       ??0?$CComContainedObject@VCOPOSBumpBar@@@ATL@@QAE@PAX@Z 10003c65 f i BumpBar.obj
 0001:00002d1e       ??0?$CComObject@V?$CComEnum@UIEnumConnectionPoints@@$1?_GUID_b196b285_bab4_101a_b69c_00aa00341d07@@3U__s_GUID@@BPAUIConnectionPoint@@V?$_CopyInterface@UIConnectionPoint@@@ATL@@VCComSingleThreadModel@6@@ATL@@@ATL@@QAE@PAX@Z 10003d1e f i BumpBar.obj
 0001:00002d4c       ??0?$CComObject@V?$CComEnum@UIEnumConnections@@$1?_GUID_b196b287_bab4_101a_b69c_00aa00341d07@@3U__s_GUID@@BUtagCONNECTDATA@@V?$_Copy@UtagCONNECTDATA@@@ATL@@VCComSingleThreadModel@6@@ATL@@@ATL@@QAE@PAX@Z 10003d4c f i BumpBar.obj
 0001:00002d7a       ??0?$CComObject@VCOPOSBumpBar@@@ATL@@QAE@PAX@Z 10003d7a f i BumpBar.obj
 0001:00002e31       ??0?$CComQIPtr@UIOleControlSite@@$1?_GUID_b196b289_bab4_101a_b69c_00aa00341d07@@3U__s_GUID@@B@ATL@@QAE@PAUIUnknown@@@Z 10003e31 f i BumpBar.obj
 0001:00002e5a       ??0CAtlModule@ATL@@QAE@XZ  10003e5a f i BumpBar.obj
 0001:00002e9b       ??0CParseBuffer@CRegParser@ATL@@QAE@H@Z 10003e9b f i BumpBar.obj
 0001:00002ed1       ??0_ATL_MSG@ATL@@QAE@PAUHWND__@@IIJH@Z 10003ed1 f i BumpBar.obj
 0001:00002f09       ??1?$CComAggObject@VCOPOSBumpBar@@@ATL@@UAE@XZ 10003f09 f i BumpBar.obj
 0001:00002f2d       ??1?$CComEnumImpl@UIEnumConnectionPoints@@$1?_GUID_b196b285_bab4_101a_b69c_00aa00341d07@@3U__s_GUID@@BPAUIConnectionPoint@@V?$_CopyInterface@UIConnectionPoint@@@ATL@@@ATL@@UAE@XZ 10003f2d f i BumpBar.obj
 0001:00002f69       ??1?$CComEnumImpl@UIEnumConnections@@$1?_GUID_b196b287_bab4_101a_b69c_00aa00341d07@@3U__s_GUID@@BUtagCONNECTDATA@@V?$_Copy@UtagCONNECTDATA@@@ATL@@@ATL@@UAE@XZ 10003f69 f i BumpBar.obj
 0001:00002fa5       ??1?$CComObject@V?$CComEnum@UIEnumConnectionPoints@@$1?_GUID_b196b285_bab4_101a_b69c_00aa00341d07@@3U__s_GUID@@BPAUIConnectionPoint@@V?$_CopyInterface@UIConnectionPoint@@@ATL@@VCComSingleThreadModel@6@@ATL@@@ATL@@UAE@XZ 10003fa5 f i BumpBar.obj
 0001:00002fc8       ??1?$CComObject@V?$CComEnum@UIEnumConnections@@$1?_GUID_b196b287_bab4_101a_b69c_00aa00341d07@@3U__s_GUID@@BUtagCONNECTDATA@@V?$_Copy@UtagCONNECTDATA@@@ATL@@VCComSingleThreadModel@6@@ATL@@@ATL@@UAE@XZ 10003fc8 f i BumpBar.obj
 0001:00002feb       ??1?$CComObject@VCOPOSBumpBar@@@ATL@@UAE@XZ 10003feb f i BumpBar.obj
 0001:000030a9       ??1?$CComObjectCached@VCComClassFactory@ATL@@@ATL@@UAE@XZ 100040a9 f i BumpBar.obj
 0001:000030bf       ??1?$CComObjectRootEx@VCComMultiThreadModel@ATL@@@ATL@@QAE@XZ 100040bf f i BumpBar.obj
 0001:000030d4       ??1CRegObject@ATL@@UAE@XZ  100040d4 f i BumpBar.obj
 0001:000030f4       ??4?$CComPtr@UIUnknown@@@ATL@@QAEPAUIUnknown@@PAU2@@Z 100040f4 f i BumpBar.obj
 0001:000030f4       ??4?$CComPtr@UIAdviseSink@@@ATL@@QAEPAUIAdviseSink@@PAU2@@Z 100040f4 f i BumpBar.obj
 0001:000030f4       ??4?$CComPtr@UIOleClientSite@@@ATL@@QAEPAUIOleClientSite@@PAU2@@Z 100040f4 f i BumpBar.obj
 0001:00003122       ??_E?$CComContainedObject@VCOPOSBumpBar@@@ATL@@UAEPAXI@Z 10004122 f i BumpBar.obj
 0001:00003122       ??_G?$CComContainedObject@VCOPOSBumpBar@@@ATL@@UAEPAXI@Z 10004122 f i BumpBar.obj
 0001:00003147       ??_G?$CComObject@VCOPOSBumpBar@@@ATL@@UAEPAXI@Z 10004147 f i BumpBar.obj
 0001:00003147       ??_E?$CComObject@VCOPOSBumpBar@@@ATL@@UAEPAXI@Z 10004147 f i BumpBar.obj
 0001:0000316c       ?Add@?$CSimpleArray@GV?$CSimpleArrayEqualHelper@G@ATL@@@ATL@@QAEHABG@Z 1000416c f i BumpBar.obj
 0001:000031e6       ?Add@?$CSimpleMap@PA_WPA_WVCExpansionVectorEqualHelper@ATL@@@ATL@@QAEHABQA_W0@Z 100041e6 f i BumpBar.obj
 0001:0000323b       ?Add@CComDynamicUnkArray@ATL@@QAEKPAUIUnknown@@@Z 1000423b f i BumpBar.obj
 0001:000032ec       ?Add@CExpansionVector@ATL@@QAEHPB_W0@Z 100042ec f i BumpBar.obj
 0001:000033f5       ?AddString@CParseBuffer@CRegParser@ATL@@QAEHPB_W@Z 100043f5 f i BumpBar.obj
 0001:0000342a       ?AddTermFunc@CAtlModule@ATL@@QAEJP6GXK@ZK@Z 1000442a f i BumpBar.obj
 0001:00003496       ?AddValue@CRegParser@ATL@@IAEJAAVCRegKey@2@PB_WPA_W@Z 10004496 f i BumpBar.obj
 0001:000037b0       ?Allocate@?$CAtlSafeAllocBufferManager@VCCRTAllocator@ATL@@@_ATL_SAFE_ALLOCA_IMPL@ATL@@QAEPAXK@Z 100047b0 f i BumpBar.obj
 0001:000037dd       ?Allocate@?$CTempBuffer@E$0BAA@VCCRTAllocator@ATL@@@ATL@@QAEPAEI@Z 100047dd f i BumpBar.obj
 0001:0000380c       ?Allocate@?$CTempBuffer@_W$0BAA@VCCRTAllocator@ATL@@@ATL@@QAEPA_WI@Z 1000480c f i BumpBar.obj
 0001:0000383b       ?Allocate@?$CTempBuffer@_W$0EAA@VCCRTAllocator@ATL@@@ATL@@QAEPA_WI@Z 1000483b f i BumpBar.obj
 0001:0000386a       ?AllocateHeap@?$CTempBuffer@_W$0BAA@VCCRTAllocator@ATL@@@ATL@@AAEXI@Z 1000486a f i BumpBar.obj
 0001:0000386a       ?AllocateHeap@?$CTempBuffer@E$0BAA@VCCRTAllocator@ATL@@@ATL@@AAEXI@Z 1000486a f i BumpBar.obj
 0001:0000386a       ?AllocateHeap@?$CTempBuffer@_W$0EAA@VCCRTAllocator@ATL@@@ATL@@AAEXI@Z 1000486a f i BumpBar.obj
 0001:0000388f       ?Append@CParseBuffer@CRegParser@ATL@@QAEHPB_WH@Z 1000488f f i BumpBar.obj
 0001:0000391b       ?AtlCoTaskMemCAlloc@ATL@@YAPAXKK@Z 1000491b f i BumpBar.obj
 0001:00003948       ?AtlCoTaskMemRecalloc@ATL@@YAPAXPAXKK@Z 10004948 f i BumpBar.obj
 0001:00003978       ?AtlComModuleGetClassObject@ATL@@YGJPAU_ATL_COM_MODULE70@1@ABU_GUID@@1PAPAX@Z 10004978 f i BumpBar.obj
 0001:00003a6d       ?AtlComModuleRegisterServer@ATL@@YGJPAU_ATL_COM_MODULE70@1@HPBU_GUID@@@Z 10004a6d f i BumpBar.obj
 0001:00003af5       ?AtlComModuleUnregisterServer@ATL@@YGJPAU_ATL_COM_MODULE70@1@HPBU_GUID@@@Z 10004af5 f i BumpBar.obj
 0001:00003b7d       ?AtlComQIPtrAssign2@ATL@@YAXPAPAUIUnknown@@PAU2@ABU_GUID@@@Z 10004b7d f i BumpBar.obj
 0001:00003bac       ?AtlCreateTargetDC@ATL@@YGPAUHDC__@@PAU2@PAUtagDVTARGETDEVICE@@@Z 10004bac f i BumpBar.obj
 0001:00003c15       ?AtlCrtErrorCheck@ATL@@YAHH@Z 10004c15 f i BumpBar.obj
 0001:00003c50       ?AtlHiMetricToPixel@ATL@@YGXPBUtagSIZE@@PAU2@@Z 10004c50 f i BumpBar.obj
 0001:00003cc5       ?AtlHresultFromLastError@ATL@@YAJXZ 10004cc5 f i BumpBar.obj
 0001:00003cdc       ?AtlHresultFromWin32@ATL@@YAJK@Z 10004cdc f i BumpBar.obj
 0001:00003cf1       ?AtlInternalOleLoadFromStream@ATL@@YAJPAUIStream@@ABU_GUID@@PAPAXTClassesAllowedInStream@1@K@Z 10004cf1 f i BumpBar.obj
 0001:00003e1a       ?AtlInternalQueryInterface@ATL@@YGJPAXPBU_ATL_INTMAP_ENTRY@1@ABU_GUID@@PAPAX@Z 10004e1a f i BumpBar.obj
 0001:00003ebd       ?AtlLoadTypeLib@ATL@@YGJPAUHINSTANCE__@@PB_WPAPA_WPAPAUITypeLib@@@Z 10004ebd f i BumpBar.obj
 0001:0000409b       ?AtlRegisterClassCategoriesHelper@ATL@@YGJABU_GUID@@PBU_ATL_CATMAP_ENTRY@1@H@Z 1000509b f i BumpBar.obj
 0001:00004397       ?AtlRegisterTypeLib@ATL@@YGJPAUHINSTANCE__@@PB_W@Z 10005397 f i BumpBar.obj
 0001:0000451f       ?AtlThrowImpl@ATL@@YGXJ@Z  1000551f f i BumpBar.obj
 0001:0000453d       ?AtlUnRegisterTypeLib@ATL@@YGJPAUHINSTANCE__@@PB_W@Z 1000553d f i BumpBar.obj
 0001:000045e8       ?AtlWinModuleAddCreateWndData@ATL@@YGXPAU_ATL_WIN_MODULE70@1@PAU_AtlCreateWndData@1@PAX@Z 100055e8 f i BumpBar.obj
 0001:0000463c       ?AtlWinModuleExtractCreateWndData@ATL@@YGPAXPAU_ATL_WIN_MODULE70@1@@Z 1000563c f i BumpBar.obj
 0001:000046a0       ?AtlWinModuleRegisterClassExW@ATL@@YGGPAU_ATL_WIN_MODULE70@1@PBUtagWNDCLASSEXW@@@Z 100056a0 f i BumpBar.obj
 0001:000046df       ?CanForceRemoveKey@CRegParser@ATL@@IAEHPB_W@Z 100056df f i BumpBar.obj
 0001:0000470e       ?ChToByte@CRegParser@ATL@@KAE_W@Z 1000570e f i BumpBar.obj
 0001:00004796       ?Cleanup@CComTypeInfoHolder@ATL@@SGXK@Z 10005796 f i BumpBar.obj
 0001:000047c9       ?ClearReplacements@CExpansionVector@ATL@@QAEJXZ 100057c9 f i BumpBar.obj
 0001:00004806       ?Close@CRegKey@ATL@@QAEJXZ 10005806 f i BumpBar.obj
 0001:00004820       ?CreateInstance@?$CComCreator@V?$CComAggObject@VCOPOSBumpBar@@@ATL@@@ATL@@SGJPAXABU_GUID@@PAPAX@Z 10005820 f i BumpBar.obj
 0001:00004895       ?CreateInstance@?$CComCreator@V?$CComObject@VCOPOSBumpBar@@@ATL@@@ATL@@SGJPAXABU_GUID@@PAPAX@Z 10005895 f i BumpBar.obj
 0001:0000491e       ?CreateInstance@?$CComObject@V?$CComEnum@UIEnumConnectionPoints@@$1?_GUID_b196b285_bab4_101a_b69c_00aa00341d07@@3U__s_GUID@@BPAUIConnectionPoint@@V?$_CopyInterface@UIConnectionPoint@@@ATL@@VCComSingleThreadModel@6@@ATL@@@ATL@@SGJPAPAV12@@Z 1000591e f i BumpBar.obj
 0001:00004968       ?CreateInstance@?$CComObject@V?$CComEnum@UIEnumConnections@@$1?_GUID_b196b287_bab4_101a_b69c_00aa00341d07@@3U__s_GUID@@BUtagCONNECTDATA@@V?$_Copy@UtagCONNECTDATA@@@ATL@@VCComSingleThreadModel@6@@ATL@@@ATL@@SGJPAPAV12@@Z 10005968 f i BumpBar.obj
 0001:000049b2       ?DefaultReflectionHandler@?$CWindowImplRoot@VCWindow@ATL@@@ATL@@SAHPAUHWND__@@IIJAAJ@Z 100059b2 f i BumpBar.obj
 0001:00004a52       ?DeleteSubKey@CRegKey@ATL@@QAEJPB_W@Z 10005a52 f i BumpBar.obj
 0001:00004acb       ?DoEvent@COPOSBumpBar@@IAEXIIJ@Z 10005acb f i BumpBar.obj
 0001:00004b4b       ?DoVerbHide@?$IOleObjectImpl@VCOPOSBumpBar@@@ATL@@QAEJPBUtagRECT@@PAUHWND__@@@Z 10005b4b f i BumpBar.obj
 0001:00004b81       ?DoVerbInPlaceActivate@?$IOleObjectImpl@VCOPOSBumpBar@@@ATL@@QAEJPBUtagRECT@@PAUHWND__@@@Z 10005b81 f i BumpBar.obj
 0001:00004bb4       ?DoVerbPrimary@?$IOleObjectImpl@VCOPOSBumpBar@@@ATL@@QAEJPBUtagRECT@@PAUHWND__@@@Z 10005bb4 f i BumpBar.obj
 0001:00004c40       ?DoVerbProperties@CComControlBase@ATL@@QAEJPBUtagRECT@@PAUHWND__@@@Z 10005c40 f i BumpBar.obj
 0001:00004dbf       ?DoVerbUIActivate@?$IOleObjectImpl@VCOPOSBumpBar@@@ATL@@QAEJPBUtagRECT@@PAUHWND__@@@Z 10005dbf f i BumpBar.obj
 0001:00004dfc       ?DoesVerbActivate@CComControlBase@ATL@@QAEHJ@Z 10005dfc f i BumpBar.obj
 0001:00004e20       ?DoesVerbUIActivate@CComControlBase@ATL@@QAEHJ@Z 10005e20 f i BumpBar.obj
 0001:00004e55       ?EndOfVar@CRegParser@ATL@@IAEHXZ 10005e55 f i BumpBar.obj
 0001:00004e75       ?EscapeSingleQuote@CAtlModule@ATL@@SAXPA_WIPB_W@Z 10005e75 f i BumpBar.obj
 0001:00004ec4       ?FindKey@?$CSimpleMap@PA_WPA_WVCExpansionVectorEqualHelper@ATL@@@ATL@@QBEHABQA_W@Z 10005ec4 f i BumpBar.obj
 0001:00004efb       ?FireTheEvent@?$CProxy_IOPOSEvents@VCOPOSBumpBar@@@@IAEXPAVOposVariant@@IAAJPB_WJ@Z 10005efb f i BumpBar.obj
 0001:00004f8d       ?FireViewChange@CComControlBase@ATL@@QAEJXZ 10005f8d f i BumpBar.obj
 0001:00004fd6       ?Fire_DataEvent@?$CProxy_IOPOSEvents@VCOPOSBumpBar@@@@QAEXJ@Z 10005fd6 f i BumpBar.obj
 0001:0000506c       ?Fire_DirectIOEvent@?$CProxy_IOPOSEvents@VCOPOSBumpBar@@@@QAEXJPAJPAPA_W@Z 1000606c f i BumpBar.obj
 0001:00005158       ?Fire_ErrorEvent@?$CProxy_IOPOSEvents@VCOPOSBumpBar@@@@QAEXJJJPAJ@Z 10006158 f i BumpBar.obj
 0001:00005249       ?Fire_OutputCompleteEvent@?$CProxy_IOPOSEvents@VCOPOSBumpBar@@@@QAEXJ@Z 10006249 f i BumpBar.obj
 0001:000052df       ?Fire_StatusUpdateEvent@?$CProxy_IOPOSEvents@VCOPOSBumpBar@@@@QAEXJ@Z 100062df f i BumpBar.obj
 0001:00005375       ?FreeHeap@?$CTempBuffer@_W$0EAA@VCCRTAllocator@ATL@@@ATL@@AAEXXZ 10006375 f i BumpBar.obj
 0001:00005375       ?FreeHeap@?$CTempBuffer@_W$0BAA@VCCRTAllocator@ATL@@@ATL@@AAEXXZ 10006375 f i BumpBar.obj
 0001:00005375       ?FreeHeap@?$CTempBuffer@E$0BAA@VCCRTAllocator@ATL@@@ATL@@AAEXXZ 10006375 f i BumpBar.obj
 0001:0000537e       ?GetAmbientLocaleID@CComControlBase@ATL@@QAEJAAK@Z 1000637e f i BumpBar.obj
 0001:000053da       ?GetAmbientUserMode@CComControlBase@ATL@@QAEJAAH@Z 100063da f i BumpBar.obj
 0001:0000544a       ?GetAt@CComDynamicUnkArray@ATL@@QAEPAUIUnknown@@H@Z 1000644a f i BumpBar.obj
 0001:00005466       ?GetClassObject@CComModule@ATL@@QAEJABU_GUID@@0PAPAX@Z 10006466 f i BumpBar.obj
 0001:00005508       ?GetConnMap@COPOSBumpBar@@SAPBU_ATL_CONNMAP_ENTRY@ATL@@PAH@Z 10006508 f i BumpBar.obj
 0001:00005578       ?GetCookie@CComDynamicUnkArray@ATL@@QAGKPAPAUIUnknown@@@Z 10006578 f i BumpBar.obj
 0001:000055b0       ?GetIDsOfNames@CComTypeInfoHolder@ATL@@QAEJABU_GUID@@PAPA_WIKPAJ@Z 100065b0 f i BumpBar.obj
 0001:000056d0       ?GetKeyAt@?$CSimpleMap@PA_WPA_WVCExpansionVectorEqualHelper@ATL@@@ATL@@QBEAAPA_WH@Z 100066d0 f i BumpBar.obj
 0001:000056f5       ?GetPagesHelper@?$ISpecifyPropertyPagesImpl@VCOPOSBumpBar@@@ATL@@IAEJPAUtagCAUUID@@PBUATL_PROPMAP_ENTRY@2@@Z 100066f5 f i BumpBar.obj
 0001:0000581c       ?GetProperty@?$CComPtr@UIDispatch@@@ATL@@SAJPAUIDispatch@@JPAUtagVARIANT@@@Z 1000681c f i BumpBar.obj
 0001:0000586b       ?GetSizeMax@CComVariant@ATL@@QBEJPAT_ULARGE_INTEGER@@@Z 1000686b f i BumpBar.obj
 0001:00005a2d       ?GetTI@CComTypeInfoHolder@ATL@@QAEJK@Z 10006a2d f i BumpBar.obj
 0001:00005c0d       ?GetTI@CComTypeInfoHolder@ATL@@QAEJKPAPAUITypeInfo@@@Z 10006c0d f i BumpBar.obj
 0001:00005c4b       ?GetUnknown@CComDynamicUnkArray@ATL@@QAGPAUIUnknown@@K@Z 10006c4b f i BumpBar.obj
 0001:00005c6c       ?GetValueAt@?$CSimpleMap@PA_WPA_WVCExpansionVectorEqualHelper@ATL@@@ATL@@QBEAAPA_WH@Z 10006c6c f i BumpBar.obj
 0001:00005c92       ?GetZoomInfo@CComControlBase@ATL@@QAEXAAUATL_DRAWINFO@@@Z 10006c92 f i BumpBar.obj
 0001:00005d25       ?HKeyFromString@CRegParser@ATL@@KAPAUHKEY__@@PA_W@Z 10006d25 f i BumpBar.obj
 0001:00005d53       ?HasSubKeys@CRegParser@ATL@@IAEHPAUHKEY__@@@Z 10006d53 f i BumpBar.obj
 0001:00005d88       ?IDataObject_GetData@CComControlBase@ATL@@QAEJPAUtagFORMATETC@@PAUtagSTGMEDIUM@@@Z 10006d88 f i BumpBar.obj
 0001:00005f2a       ?IOleInPlaceObject_InPlaceDeactivate@CComControlBase@ATL@@QAEJXZ 10006f2a f i BumpBar.obj
 0001:00005fb1       ?IOleInPlaceObject_SetObjectRects@CComControlBase@ATL@@QAEJPBUtagRECT@@0@Z 10006fb1 f i BumpBar.obj
 0001:0000607e       ?IOleInPlaceObject_UIDeactivate@CComControlBase@ATL@@QAEJXZ 1000707e f i BumpBar.obj
 0001:00006140       ?IOleObject_Advise@CComControlBase@ATL@@QAEJPAUIAdviseSink@@PAK@Z 10007140 f i BumpBar.obj
 0001:0000616a       ?IOleObject_Close@CComControlBase@ATL@@QAEJK@Z 1000716a f i BumpBar.obj
 0001:0000624e       ?IOleObject_GetClientSite@CComControlBase@ATL@@QAEJPAPAUIOleClientSite@@@Z 1000724e f i BumpBar.obj
 0001:00006277       ?IOleObject_SetClientSite@CComControlBase@ATL@@QAEJPAUIOleClientSite@@@Z 10007277 f i BumpBar.obj
 0001:000062b6       ?IOleObject_SetExtent@CComControlBase@ATL@@QAEJKPAUtagSIZE@@@Z 100072b6 f i BumpBar.obj
 0001:00006368       ?IPSI_GetIPersistStreamInit@?$IPersistStorageImpl@VCOPOSBumpBar@@@ATL@@AAEPAUIPersistStreamInit@@XZ 10007368 f i BumpBar.obj
 0001:00006410       ?IPersistStreamInit_Load@?$IPersistStreamInitImpl@VCOPOSBumpBar@@@ATL@@QAEJPAUIStream@@PBUATL_PROPMAP_ENTRY@2@@Z 10007410 f i BumpBar.obj
 0001:00006686       ?IPersistStreamInit_Save@?$IPersistStreamInitImpl@VCOPOSBumpBar@@@ATL@@QAEJPAUIStream@@HPBUATL_PROPMAP_ENTRY@2@@Z 10007686 f i BumpBar.obj
 0001:00006875       ?IQuickActivate_QuickActivate@CComControlBase@ATL@@QAEJPAUtagQACONTAINER@@PAUtagQACONTROL@@@Z 10007875 f i BumpBar.obj
 0001:00006ab7       ?IViewObject_Draw@CComControlBase@ATL@@QAEJKJPAXPAUtagDVTARGETDEVICE@@PAUHDC__@@2PBU_RECTL@@3@Z 10007ab7 f i BumpBar.obj
 0001:00006b5f       ?InPlaceActivate@CComControlBase@ATL@@QAEJJPBUtagRECT@@@Z 10007b5f f i BumpBar.obj
 0001:00006dd1       ?Init@?$CComEnumImpl@UIEnumConnectionPoints@@$1?_GUID_b196b285_bab4_101a_b69c_00aa00341d07@@3U__s_GUID@@BPAUIConnectionPoint@@V?$_CopyInterface@UIConnectionPoint@@@ATL@@@ATL@@QAEJPAPAUIConnectionPoint@@0PAUIUnknown@@W4CComEnumFlags@2@@Z 10007dd1 f i BumpBar.obj
 0001:00006ead       ?Init@?$CComEnumImpl@UIEnumConnections@@$1?_GUID_b196b287_bab4_101a_b69c_00aa00341d07@@3U__s_GUID@@BUtagCONNECTDATA@@V?$_Copy@UtagCONNECTDATA@@@ATL@@@ATL@@QAEJPAUtagCONNECTDATA@@0PAUIUnknown@@W4CComEnumFlags@2@@Z 10007ead f i BumpBar.obj
 0001:00006f89       ?Init@CComModule@ATL@@QAEJPAU_ATL_OBJMAP_ENTRY30@2@PAUHINSTANCE__@@PBU_GUID@@@Z 10007f89 f i BumpBar.obj
 0001:00006fe8       ?Init@CDynamicStdCallThunk2@ATL@@QAEHKPAX@Z 10007fe8 f i BumpBar.obj
 0001:00007013       ?InlineIsEqualUnknown@ATL@@YGHABU_GUID@@@Z 10008013 f i BumpBar.obj
 0001:0000703b       ?InternalSetAtIndex@?$CSimpleMap@PA_WPA_WVCExpansionVectorEqualHelper@ATL@@@ATL@@QAEXHABQA_W0@Z 1000803b f i BumpBar.obj
 0001:00007065       ?Invoke@CComTypeInfoHolder@ATL@@QAEJPAUIDispatch@@JABU_GUID@@KGPAUtagDISPPARAMS@@PAUtagVARIANT@@PAUtagEXCEPINFO@@PAI@Z 10008065 f i BumpBar.obj
 0001:000070a6       ?IsEqualObject@?$CComPtrBase@UIOleClientSite@@@ATL@@QAE_NPAUIUnknown@@@Z 100080a6 f i BumpBar.obj
 0001:000070a6       ?IsEqualObject@?$CComPtrBase@UITypeInfo@@@ATL@@QAE_NPAUIUnknown@@@Z 100080a6 f i BumpBar.obj
 0001:00007112       ?IsSpace@CRegParser@ATL@@IAEH_W@Z 10008112 f i BumpBar.obj
 0001:00007138       ?LoadNameCache@CComTypeInfoHolder@ATL@@QAEJPAUITypeInfo@@@Z 10008138 f i BumpBar.obj
 0001:0000726d       ?Lookup@?$CSimpleMap@PA_WPA_WVCExpansionVectorEqualHelper@ATL@@@ATL@@QBEPA_WABQA_W@Z 1000826d f i BumpBar.obj
 0001:00007293       ?NextToken@CRegParser@ATL@@IAEJPA_W@Z 10008293 f i BumpBar.obj
 0001:000073c2       ?OnKillFocus@CComControlBase@ATL@@QAEJIIJAAH@Z 100083c2 f i BumpBar.obj
 0001:0000741d       ?OnMouseActivate@CComControlBase@ATL@@QAEJIIJAAH@Z 1000841d f i BumpBar.obj
 0001:0000748b       ?OnPaint@CComControlBase@ATL@@QAEJIIJAAH@Z 1000848b f i BumpBar.obj
 0001:00007542       ?OnSetFocus@CComControlBase@ATL@@QAEJIIJAAH@Z 10008542 f i BumpBar.obj
 0001:000075cd       ?Open@CRegKey@ATL@@QAEJPAUHKEY__@@PB_WK@Z 100085cd f i BumpBar.obj
 0001:00007622       ?PreProcessBuffer@CRegParser@ATL@@QAEJPA_WPAPA_W@Z 10008622 f i BumpBar.obj
 0001:00007892       ?ProcessWindowMessage@?$CComControl@VCOPOSBumpBar@@V?$CWindowImpl@VCOPOSBumpBar@@VCWindow@ATL@@V?$CWinTraits@$0FGAAAAAA@$0A@@3@@ATL@@@ATL@@UAEHPAUHWND__@@IIJAAJK@Z 10008892 f i BumpBar.obj
 0001:0000793a       ?ReadFromStream@CComBSTR@ATL@@QAEJPAUIStream@@@Z 1000893a f i BumpBar.obj
 0001:00007a5d       ?ReadFromStream@CComVariant@ATL@@QAEJPAUIStream@@GTClassesAllowedInStream@2@K@Z 10008a5d f i BumpBar.obj
 0001:00007be7       ?RecurseDeleteKey@CRegKey@ATL@@QAEJPB_W@Z 10008be7 f i BumpBar.obj
 0001:00007cd5       ?RegCreateKeyExW@CAtlTransactionManager@ATL@@QAEJPAUHKEY__@@PB_WKPA_WKKQAU_SECURITY_ATTRIBUTES@@PAPAU3@PAK@Z 10008cd5 f i BumpBar.obj
 0001:00007d38       ?RegDeleteKeyW@CAtlTransactionManager@ATL@@QAEJPAUHKEY__@@PB_W@Z 10008d38 f i BumpBar.obj
 0001:00007d8a       ?RegOpenKeyExW@CAtlTransactionManager@ATL@@QAEJPAUHKEY__@@PB_WKKPAPAU3@@Z 10008d8a f i BumpBar.obj
 0001:00007de1       ?Register@_ATL_WNDCLASSINFOW@ATL@@QAEGPAP6GJPAUHWND__@@IIJ@Z@Z 10008de1 f i BumpBar.obj
 0001:00007e01       ?RegisterBuffer@CRegParser@ATL@@QAEJPA_WH@Z 10008e01 f i BumpBar.obj
 0001:00007f48       ?RegisterFromResource@CRegObject@ATL@@IAEJPB_W00H@Z 10008f48 f i BumpBar.obj
 0001:0000807e       ?RegisterServer@?$CAtlModuleT@VCComModule@ATL@@@ATL@@QAEJHPBU_GUID@@@Z 1000907e f i BumpBar.obj
 0001:000080ac       ?RegisterServer@CComModule@ATL@@QAEJHPBU_GUID@@@Z 100090ac f i BumpBar.obj
 0001:0000811d       ?RegisterSubkeys@CRegParser@ATL@@IAEJPA_WPAUHKEY__@@HH@Z 1000911d f i BumpBar.obj
 0001:00008779       ?Remove@CComDynamicUnkArray@ATL@@QAEHK@Z 10009779 f i BumpBar.obj
 0001:000087a2       ?RemoveAll@?$CSimpleMap@PA_WPA_WVCExpansionVectorEqualHelper@ATL@@@ATL@@QAEXXZ 100097a2 f i BumpBar.obj
 0001:000087ce       ?ResourceRegisterSz@CRegObject@ATL@@QAGJPB_W00@Z 100097ce f i BumpBar.obj
 0001:000087fb       ?ResourceUnregisterSz@CRegObject@ATL@@QAGJPB_W00@Z 100097fb f i BumpBar.obj
 0001:00008828       ?SendOnDataChange@CComControlBase@ATL@@QAEJK@Z 10009828 f i BumpBar.obj
 0001:00008875       ?SetControlFocus@CComControlBase@ATL@@QAEHH@Z 10009875 f i BumpBar.obj
 0001:00008910       ?SetMultiStringValue@CRegKey@ATL@@QAEJPB_W0@Z 10009910 f i BumpBar.obj
 0001:0000896c       ?SetStringValue@CRegKey@ATL@@QAEJPB_W0K@Z 1000996c f i BumpBar.obj
 0001:000089b5       ?SkipAssignment@CRegParser@ATL@@IAEJPA_W@Z 100099b5 f i BumpBar.obj
 0001:00008a21       ?SkipWhiteSpace@CRegParser@ATL@@IAEXXZ 10009a21 f i BumpBar.obj
 0001:00008a4a       ?StrChrW@CRegParser@ATL@@KAPA_WPA_W_W@Z 10009a4a f i BumpBar.obj
 0001:00008a87       ?Term@CAtlModule@ATL@@QAEXXZ 10009a87 f i BumpBar.obj
 0001:00008b04       ?Term@CComModule@ATL@@QAEXXZ 10009b04 f i BumpBar.obj
 0001:00008b5c       ?UnregisterServer@?$CAtlModuleT@VCComModule@ATL@@@ATL@@QAEJHPBU_GUID@@@Z 10009b5c f i BumpBar.obj
 0001:00008b82       ?UnregisterServer@CComModule@ATL@@QAEJHPBU_GUID@@@Z 10009b82 f i BumpBar.obj
 0001:00008bf3       ?UpdateRegistryFromResource@CAtlModule@ATL@@QAGJIHPAU_ATL_REGMAP_ENTRY@2@@Z 10009bf3 f i BumpBar.obj
 0001:00008dbe       ?UpdateRegistryFromResource@CAtlModule@ATL@@QAGJPB_WHPAU_ATL_REGMAP_ENTRY@2@@Z 10009dbe f i BumpBar.obj
 0001:00008f8f       ?VTFromRegType@CRegParser@ATL@@KAHPB_WAAG@Z 10009f8f f i BumpBar.obj
 0001:00008ffc       ?WindowProc@?$CWindowImplBaseT@VCWindow@ATL@@V?$CWinTraits@$0FGAAAAAA@$0A@@2@@ATL@@SGJPAUHWND__@@IIJ@Z 10009ffc f i BumpBar.obj
 0001:000090ea       ?WriteToStream@CComBSTR@ATL@@QAEJPAUIStream@@@Z 1000a0ea f i BumpBar.obj
 0001:0000914c       ?WriteToStream@CComVariant@ATL@@QAEJPAUIStream@@@Z 1000a14c f i BumpBar.obj
 0001:000092c6       ?WriteToStream@CComVariant@ATL@@QAEJPAUIStream@@G@Z 1000a2c6 f i BumpBar.obj
 0001:0000932f       ?_AtlInitialConstruct@?$CComObjectRootEx@VCComMultiThreadModel@ATL@@@ATL@@QAEJXZ 1000a32f f i BumpBar.obj
 0001:00009344       ?_AtlVerifyStackAvailable@_ATL_SAFE_ALLOCA_IMPL@ATL@@YA_NK@Z 1000a344 f i BumpBar.obj
 0001:000093c2       ?atlCreate@?$CWindowImpl@VCOPOSBumpBar@@VCWindow@ATL@@V?$CWinTraits@$0FGAAAAAA@$0A@@3@@ATL@@QAEPAUHWND__@@PAU3@V_U_RECT@2@PB_WKKV_U_MENUorID@2@PAX@Z 1000a3c2 f i BumpBar.obj
 0001:0000940d       ?atlCreate@?$CWindowImplBaseT@VCWindow@ATL@@V?$CWinTraits@$0FGAAAAAA@$0A@@2@@ATL@@QAEPAUHWND__@@PAU3@V_U_RECT@2@PB_WKKV_U_MENUorID@2@GPAX@Z 1000a40d f i BumpBar.obj
 0001:000094a9       ?copy@?$_Copy@UtagCONNECTDATA@@@ATL@@SAJPAUtagCONNECTDATA@@PBU3@@Z 1000a4a9 f i BumpBar.obj
 0001:000094df       ?copy@?$_CopyInterface@UIConnectionPoint@@@ATL@@SAJPAPAUIConnectionPoint@@PBQAU3@@Z 1000a4df f i BumpBar.obj
 0001:0000950d       ?memcpy_s@Checked@ATL@@YAXPAXIPBXI@Z 1000a50d f i BumpBar.obj
 0001:0000952c       ?ocscpy_s@@YA_NPA_WIPB_W@Z 1000a52c f i BumpBar.obj
 0001:00009576       ?wcscpy_s@Checked@ATL@@YAXPA_WIPB_W@Z 1000a576 f i BumpBar.obj
 0001:00009592       _DllCanUnloadNow@0         1000a592 f   BumpBar.obj
 0001:0000959e       _DllGetClassObject@12      1000a59e f   BumpBar.obj
 0001:000095ac       _DllMain@12                1000a5ac f   BumpBar.obj
 0001:000095ee       _DllRegisterServer@0       1000a5ee f   BumpBar.obj
 0001:000095fd       _DllUnregisterServer@0     1000a5fd f   BumpBar.obj
 0001:0000960c       _InlineIsEqualGUID         1000a60c f i BumpBar.obj
 0001:0000963c       ___local_stdio_printf_options 1000a63c f i BumpBar.obj
 0001:00009642       __vswprintf_s_l            1000a642 f i BumpBar.obj
 0001:000096ef       _swprintf_s                1000a6ef f i BumpBar.obj
 0001:0000970b       ??0?$CComControl@VCOPOSBumpBar@@V?$CWindowImpl@VCOPOSBumpBar@@VCWindow@ATL@@V?$CWinTraits@$0FGAAAAAA@$0A@@3@@ATL@@@ATL@@QAE@XZ 1000a70b f i BumpBarImpl.obj
 0001:00009732       ??0?$CProxy_IOPOSEvents@VCOPOSBumpBar@@@@QAE@XZ 1000a732 f i BumpBarImpl.obj
 0001:00009755       ??0CComControlBase@ATL@@QAE@AAPAUHWND__@@@Z 1000a755 f i BumpBarImpl.obj
 0001:000097a5       ??0COPOSBumpBar@@QAE@XZ    1000a7a5 f   BumpBarImpl.obj
 0001:000097db       ??1?$CComControl@VCOPOSBumpBar@@V?$CWindowImpl@VCOPOSBumpBar@@VCWindow@ATL@@V?$CWinTraits@$0FGAAAAAA@$0A@@3@@ATL@@@ATL@@UAE@XZ 1000a7db f i BumpBarImpl.obj
 0001:000097f4       ??1?$IConnectionPointImpl@VCOPOSBumpBar@@$1?IID_IPropertyNotifySink@@3U_GUID@@BVCComDynamicUnkArray@ATL@@@ATL@@QAE@XZ 1000a7f4 f i BumpBarImpl.obj
 0001:000097f4       ??1?$IConnectionPointImpl@VCOPOSBumpBar@@$1?DIID__IOPOSBumpBarEvents@@3U_GUID@@BVCComDynamicUnkArray@ATL@@@ATL@@QAE@XZ 1000a7f4 f i BumpBarImpl.obj
 0001:00009831       ??1CComControlBase@ATL@@UAE@XZ 1000a831 f i BumpBarImpl.obj
 0001:00009894       ??1COPOSBumpBar@@UAE@XZ    1000a894 f   BumpBarImpl.obj
 0001:000098dc       ?BumpBarSound@COPOSBumpBar@@UAGJJJJJJPAJ@Z 1000a8dc f   BumpBarImpl.obj
 0001:00009988       ?CheckHealth@COPOSBumpBar@@UAGJJPAJ@Z 1000a988 f   BumpBarImpl.obj
 0001:000099d7       ?ClaimDevice@COPOSBumpBar@@UAGJJPAJ@Z 1000a9d7 f   BumpBarImpl.obj
 0001:00009a4c       ?ClearInput@COPOSBumpBar@@UAGJPAJ@Z 1000aa4c f   BumpBarImpl.obj
 0001:00009a67       ?ClearOutput@COPOSBumpBar@@UAGJPAJ@Z 1000aa67 f   BumpBarImpl.obj
 0001:00009a82       ?Close@COPOSBumpBar@@UAGJPAJ@Z 1000aa82 f   BumpBarImpl.obj
 0001:00009af0       ?CompareFirmwareVersion@COPOSBumpBar@@UAGJPA_WPAJ1@Z 1000aaf0 f   BumpBarImpl.obj
 0001:00009b70       ?DirectIO@COPOSBumpBar@@UAGJJPAJPAPA_W0@Z 1000ab70 f   BumpBarImpl.obj
 0001:00009c1e       ?DoInvoke@COPOSBumpBar@@IAEJJPAVOposVariant@@IHPAJ_N@Z 1000ac1e f   BumpBarImpl.obj
 0001:00009cfa       ?EventClose@COPOSBumpBar@@IAEXXZ 1000acfa f i BumpBarImpl.obj
 0001:00009d2d       ?EventInit@COPOSBumpBar@@IAEJXZ 1000ad2d f i BumpBarImpl.obj
 0001:00009e01       ?EventUninit@COPOSBumpBar@@IAEXXZ 1000ae01 f i BumpBarImpl.obj
 0001:00009e53       ?EventWindowProc@COPOSBumpBar@@IAGJIIJ@Z 1000ae53 f i BumpBarImpl.obj
 0001:00009f51       ?FinalConstruct@COPOSBumpBar@@QAEJXZ 1000af51 f   BumpBarImpl.obj
 0001:00009f8a       ?FireEventCleanup@COPOSBumpBar@@IAEXXZ 1000af8a f i BumpBarImpl.obj
 0001:00009fa0       ?FireEventSetup@COPOSBumpBar@@IAE_NXZ 1000afa0 f i BumpBarImpl.obj
 0001:00009fd4       ?FreezeEvents@COPOSBumpBar@@MAGJH@Z 1000afd4 f   BumpBarImpl.obj
 0001:0000a02d       ?GetOposProp@COPOSBumpBar@@IAEJJPAFJ@Z 1000b02d f   BumpBarImpl.obj
 0001:0000a050       ?GetOposProp@COPOSBumpBar@@IAEJJPAJJ@Z 1000b050 f   BumpBarImpl.obj
 0001:0000a11f       ?GetOposProp@COPOSBumpBar@@IAEJJPAPA_WJ@Z 1000b11f f   BumpBarImpl.obj
 0001:0000a1fb       ?OnDraw@COPOSBumpBar@@MAEJAAUATL_DRAWINFO@@@Z 1000b1fb f   BumpBarImpl.obj
 0001:0000a29b       ?Open@COPOSBumpBar@@UAGJPA_WPAJ@Z 1000b29b f   BumpBarImpl.obj
 0001:0000aada       ?ReleaseDevice@COPOSBumpBar@@UAGJPAJ@Z 1000bada f   BumpBarImpl.obj
 0001:0000ab29       ?ResetStatistics@COPOSBumpBar@@UAGJPA_WPAJ@Z 1000bb29 f   BumpBarImpl.obj
 0001:0000ab80       ?RetrieveStatistics@COPOSBumpBar@@UAGJPAPA_WPAJ@Z 1000bb80 f   BumpBarImpl.obj
 0001:0000abd7       ?SOProcessID@COPOSBumpBar@@UAGJPAJ@Z 1000bbd7 f   BumpBarImpl.obj
 0001:0000abeb       ?SetCOFreezeEvents@COPOSBumpBar@@IAEXF@Z 1000bbeb f   BumpBarImpl.obj
 0001:0000ac8b       ?SetKeyTranslation@COPOSBumpBar@@UAGJJJJPAJ@Z 1000bc8b f   BumpBarImpl.obj
 0001:0000ad21       ?SetOposProp@COPOSBumpBar@@IAEJJJJ@Z 1000bd21 f   BumpBarImpl.obj
 0001:0000ae18       ?UpdateFirmware@COPOSBumpBar@@UAGJPA_WPAJ@Z 1000be18 f   BumpBarImpl.obj
 0001:0000ae6f       ?UpdateStatistics@COPOSBumpBar@@UAGJPA_WPAJ@Z 1000be6f f   BumpBarImpl.obj
 0001:0000aec6       ?get_AsyncMode@COPOSBumpBar@@UAGJPAF@Z 1000bec6 f   BumpBarImpl.obj
 0001:0000aedf       ?get_AutoToneDuration@COPOSBumpBar@@UAGJPAJ@Z 1000bedf f   BumpBarImpl.obj
 0001:0000aef8       ?get_AutoToneFrequency@COPOSBumpBar@@UAGJPAJ@Z 1000bef8 f   BumpBarImpl.obj
 0001:0000af11       ?get_BinaryConversion@COPOSBumpBar@@UAGJPAJ@Z 1000bf11 f   BumpBarImpl.obj
 0001:0000af27       ?get_BumpBarDataCount@COPOSBumpBar@@UAGJPAJ@Z 1000bf27 f   BumpBarImpl.obj
 0001:0000af40       ?get_CapCompareFirmwareVersion@COPOSBumpBar@@UAGJPAF@Z 1000bf40 f   BumpBarImpl.obj
 0001:0000af59       ?get_CapPowerReporting@COPOSBumpBar@@UAGJPAJ@Z 1000bf59 f   BumpBarImpl.obj
 0001:0000af72       ?get_CapStatisticsReporting@COPOSBumpBar@@UAGJPAF@Z 1000bf72 f   BumpBarImpl.obj
 0001:0000af8b       ?get_CapTone@COPOSBumpBar@@UAGJPAF@Z 1000bf8b f   BumpBarImpl.obj
 0001:0000afa4       ?get_CapUpdateFirmware@COPOSBumpBar@@UAGJPAF@Z 1000bfa4 f   BumpBarImpl.obj
 0001:0000afbd       ?get_CapUpdateStatistics@COPOSBumpBar@@UAGJPAF@Z 1000bfbd f   BumpBarImpl.obj
 0001:0000afd6       ?get_CheckHealthText@COPOSBumpBar@@UAGJPAPA_W@Z 1000bfd6 f   BumpBarImpl.obj
 0001:0000afef       ?get_Claimed@COPOSBumpBar@@UAGJPAF@Z 1000bfef f   BumpBarImpl.obj
 0001:0000b005       ?get_ControlObjectDescription@COPOSBumpBar@@UAGJPAPA_W@Z 1000c005 f   BumpBarImpl.obj
 0001:0000b053       ?get_ControlObjectVersion@COPOSBumpBar@@UAGJPAJ@Z 1000c053 f   BumpBarImpl.obj
 0001:0000b066       ?get_CurrentUnitID@COPOSBumpBar@@UAGJPAJ@Z 1000c066 f   BumpBarImpl.obj
 0001:0000b07f       ?get_DataCount@COPOSBumpBar@@UAGJPAJ@Z 1000c07f f   BumpBarImpl.obj
 0001:0000b095       ?get_DataEventEnabled@COPOSBumpBar@@UAGJPAF@Z 1000c095 f   BumpBarImpl.obj
 0001:0000b0ab       ?get_DeviceDescription@COPOSBumpBar@@UAGJPAPA_W@Z 1000c0ab f   BumpBarImpl.obj
 0001:0000b0c4       ?get_DeviceEnabled@COPOSBumpBar@@UAGJPAF@Z 1000c0c4 f   BumpBarImpl.obj
 0001:0000b0da       ?get_DeviceName@COPOSBumpBar@@UAGJPAPA_W@Z 1000c0da f   BumpBarImpl.obj
 0001:0000b0f3       ?get_ErrorString@COPOSBumpBar@@UAGJPAPA_W@Z 1000c0f3 f   BumpBarImpl.obj
 0001:0000b10c       ?get_ErrorUnits@COPOSBumpBar@@UAGJPAJ@Z 1000c10c f   BumpBarImpl.obj
 0001:0000b125       ?get_EventString@COPOSBumpBar@@UAGJPAPA_W@Z 1000c125 f   BumpBarImpl.obj
 0001:0000b13e       ?get_EventUnitID@COPOSBumpBar@@UAGJPAJ@Z 1000c13e f   BumpBarImpl.obj
 0001:0000b157       ?get_EventUnits@COPOSBumpBar@@UAGJPAJ@Z 1000c157 f   BumpBarImpl.obj
 0001:0000b170       ?get_FreezeEvents@COPOSBumpBar@@UAGJPAF@Z 1000c170 f   BumpBarImpl.obj
 0001:0000b186       ?get_Keys@COPOSBumpBar@@UAGJPAJ@Z 1000c186 f   BumpBarImpl.obj
 0001:0000b19f       ?get_OpenResult@COPOSBumpBar@@UAGJPAJ@Z 1000c19f f   BumpBarImpl.obj
 0001:0000b1b6       ?get_OutputID@COPOSBumpBar@@UAGJPAJ@Z 1000c1b6 f   BumpBarImpl.obj
 0001:0000b1cc       ?get_PowerNotify@COPOSBumpBar@@UAGJPAJ@Z 1000c1cc f   BumpBarImpl.obj
 0001:0000b1e2       ?get_PowerState@COPOSBumpBar@@UAGJPAJ@Z 1000c1e2 f   BumpBarImpl.obj
 0001:0000b1f8       ?get_ResultCode@COPOSBumpBar@@UAGJPAJ@Z 1000c1f8 f   BumpBarImpl.obj
 0001:0000b236       ?get_ResultCodeExtended@COPOSBumpBar@@UAGJPAJ@Z 1000c236 f   BumpBarImpl.obj
 0001:0000b24c       ?get_ServiceObjectDescription@COPOSBumpBar@@UAGJPAPA_W@Z 1000c24c f   BumpBarImpl.obj
 0001:0000b265       ?get_ServiceObjectVersion@COPOSBumpBar@@UAGJPAJ@Z 1000c265 f   BumpBarImpl.obj
 0001:0000b27b       ?get_State@COPOSBumpBar@@UAGJPAJ@Z 1000c27b f   BumpBarImpl.obj
 0001:0000b2a7       ?get_Timeout@COPOSBumpBar@@UAGJPAJ@Z 1000c2a7 f   BumpBarImpl.obj
 0001:0000b2c0       ?get_UnitsOnline@COPOSBumpBar@@UAGJPAJ@Z 1000c2c0 f   BumpBarImpl.obj
 0001:0000b2d9       ?put_AsyncMode@COPOSBumpBar@@UAGJF@Z 1000c2d9 f   BumpBarImpl.obj
 0001:0000b2f9       ?put_AutoToneDuration@COPOSBumpBar@@UAGJJ@Z 1000c2f9 f   BumpBarImpl.obj
 0001:0000b312       ?put_AutoToneFrequency@COPOSBumpBar@@UAGJJ@Z 1000c312 f   BumpBarImpl.obj
 0001:0000b32b       ?put_BinaryConversion@COPOSBumpBar@@UAGJJ@Z 1000c32b f   BumpBarImpl.obj
 0001:0000b341       ?put_CurrentUnitID@COPOSBumpBar@@UAGJJ@Z 1000c341 f   BumpBarImpl.obj
 0001:0000b35a       ?put_DataEventEnabled@COPOSBumpBar@@UAGJF@Z 1000c35a f   BumpBarImpl.obj
 0001:0000b377       ?put_DeviceEnabled@COPOSBumpBar@@UAGJF@Z 1000c377 f   BumpBarImpl.obj
 0001:0000b394       ?put_FreezeEvents@COPOSBumpBar@@UAGJF@Z 1000c394 f   BumpBarImpl.obj
 0001:0000b3e0       ?put_PowerNotify@COPOSBumpBar@@UAGJJ@Z 1000c3e0 f   BumpBarImpl.obj
 0001:0000b3f6       ?put_Timeout@COPOSBumpBar@@UAGJJ@Z 1000c3f6 f   BumpBarImpl.obj
 0001:0000b40f       ?s_EventWindowProc@COPOSBumpBar@@KGJPAUHWND__@@IIJ@Z 1000c40f f i BumpBarImpl.obj
 0001:0000b461       ??_U@YAPAXI@Z              1000c461 f   LIBCMT:new_array.obj
 0001:0000b46a       ??3@YAXPAXI@Z              1000c46a f   LIBCMT:delete_scalar_size.obj
 0001:0000b478       ??_V@YAXPAX@Z              1000c478 f   LIBCMT:delete_array.obj
 0001:0000b47d       ??_V@YAXPAXI@Z             1000c47d f   LIBCMT:delete_array_size.obj
 0001:0000b4cf       ___scrt_acquire_startup_lock 1000c4cf f   LIBCMT:utility.obj
 0001:0000b501       ___scrt_dllmain_after_initialize_c 1000c501 f   LIBCMT:utility.obj
 0001:0000b52c       ___scrt_dllmain_before_initialize_c 1000c52c f   LIBCMT:utility.obj
 0001:0000b53a       ___scrt_dllmain_crt_thread_attach 1000c53a f   LIBCMT:utility.obj
 0001:0000b559       ___scrt_dllmain_crt_thread_detach 1000c559 f   LIBCMT:utility.obj
 0001:0000b566       ___scrt_dllmain_exception_filter 1000c566 f   LIBCMT:utility.obj
 0001:0000b59a       ___scrt_dllmain_uninitialize_c 1000c59a f   LIBCMT:utility.obj
 0001:0000b5bd       ___scrt_dllmain_uninitialize_critical 1000c5bd f   LIBCMT:utility.obj
 0001:0000b5ca       ___scrt_initialize_crt     1000c5ca f   LIBCMT:utility.obj
 0001:0000b603       ___scrt_initialize_onexit_tables 1000c603 f   LIBCMT:utility.obj
 0001:0000b68a       ___scrt_is_nonwritable_in_current_image 1000c68a f   LIBCMT:utility.obj
 0001:0000b71e       ___scrt_release_startup_lock 1000c71e f   LIBCMT:utility.obj
 0001:0000b73b       ___scrt_uninitialize_crt   1000c73b f   LIBCMT:utility.obj
 0001:0000b763       __onexit                   1000c763 f   LIBCMT:utility.obj
 0001:0000b790       _atexit                    1000c790 f   LIBCMT:utility.obj
 0001:0000b7a5       ??3@YAXPAX@Z               1000c7a5 f   LIBCMT:delete_scalar.obj
 0001:0000b86f       __Init_thread_footer       1000c86f f   LIBCMT:thread_safe_statics.obj
 0001:0000b8b9       __Init_thread_header       1000c8b9 f   LIBCMT:thread_safe_statics.obj
 0001:0000b90b       __Init_thread_notify       1000c90b f   LIBCMT:thread_safe_statics.obj
 0001:0000b941       __Init_thread_wait         1000c941 f   LIBCMT:thread_safe_statics.obj
 0001:0000b98f       ___raise_securityfailure   1000c98f f   LIBCMT:gs_report.obj
 0001:0000b9b7       ___report_gsfailure        1000c9b7 f   LIBCMT:gs_report.obj
 0001:0000bab1       ___report_rangecheckfailure 1000cab1 f   LIBCMT:gs_report.obj
 0001:0000babd       ___report_securityfailure  1000cabd f   LIBCMT:gs_report.obj
 0001:0000bb8c       ??2@YAPAXIABUnothrow_t@std@@@Z 1000cb8c f   LIBCMT:new_scalar_nothrow.obj
 0001:0000bbe1       ??_U@YAPAXIABUnothrow_t@std@@@Z 1000cbe1 f   LIBCMT:new_array_nothrow.obj
 0001:0000bbea       @__security_check_cookie@4 1000cbea f   LIBCMT:secchk.obj
 0001:0000bc00       __SEH_prolog4_GS           1000cc00 f   LIBCMT:sehprolg4gs.obj
 0001:0000bc50       __alloca_probe_16          1000cc50 f   LIBCMT:alloca16.obj
 0001:0000bc66       __alloca_probe_8           1000cc66     LIBCMT:alloca16.obj
 0001:0000bc80       __chkstk                   1000cc80 f   LIBCMT:chkstk.obj
 0001:0000bc80       __alloca_probe             1000cc80 f   LIBCMT:chkstk.obj
 0001:0000bfeb       __DllMainCRTStartup@12     1000cfeb f   LIBCMT:dll_dllmain.obj
 0001:0000c00e       ??2@YAPAXI@Z               1000d00e f   LIBCMT:new_scalar.obj
 0001:0000c03e       ___isa_available_init      1000d03e f   LIBCMT:cpu_disp.obj
 0001:0000c212       ___scrt_is_ucrt_dll_in_use 1000d212 f   LIBCMT:ucrt_detection.obj
 0001:0000c21e       ___scrt_fastfail           1000d21e f   LIBCMT:utility_desktop.obj
 0001:0000c339       __crt_debugger_hook        1000d339 f   LIBCMT:utility_desktop.obj
 0001:0000c350       __SEH_prolog4              1000d350 f   LIBCMT:sehprolg4.obj
 0001:0000c395       @_guard_check_icall_nop@4  1000d395 f i LIBCMT:guard_support.obj
 0001:0000c3e5       ___security_init_cookie    1000d3e5 f   LIBCMT:gs_support.obj
 0001:0000c430       ?__scrt_initialize_type_info@@YAXXZ 1000d430 f   LIBCMT:tncleanup.obj
 0001:0000c43c       ?__scrt_uninitialize_type_info@@YAXXZ 1000d43c f   LIBCMT:tncleanup.obj
 0001:0000c448       ___local_stdio_scanf_options 1000d448 f i LIBCMT:default_local_stdio_options.obj
 0001:0000c44e       ___scrt_initialize_default_local_stdio_options 1000d44e f   LIBCMT:default_local_stdio_options.obj
 0001:0000c46b       ___scrt_get_dyn_tls_init_callback 1000d46b f   LIBCMT:dyn_tls_init.obj
 0001:0000c471       __RTC_Initialize           1000d471 f   LIBCMT:initsect.obj
 0001:0000c49d       __RTC_Terminate            1000d49d f   LIBCMT:initsect.obj
 0001:0000c4c9       ??0bad_alloc@std@@QAE@ABV01@@Z 1000d4c9 f i LIBCMT:throw_bad_alloc.obj
 0001:0000c4e4       ??0bad_alloc@std@@QAE@XZ   1000d4e4 f i LIBCMT:throw_bad_alloc.obj
 0001:0000c4fc       ??0bad_array_new_length@std@@QAE@ABV01@@Z 1000d4fc f i LIBCMT:throw_bad_alloc.obj
 0001:0000c517       ??0bad_array_new_length@std@@QAE@XZ 1000d517 f i LIBCMT:throw_bad_alloc.obj
 0001:0000c52f       ??0exception@std@@QAE@ABV01@@Z 1000d52f f i LIBCMT:throw_bad_alloc.obj
 0001:0000c55b       ??1bad_alloc@std@@UAE@XZ   1000d55b f i LIBCMT:throw_bad_alloc.obj
 0001:0000c55b       ??1bad_array_new_length@std@@UAE@XZ 1000d55b f i LIBCMT:throw_bad_alloc.obj
 0001:0000c55b       ??1bad_exception@std@@UAE@XZ 1000d55b f i libvcruntime:frame.obj
 0001:0000c56c       ??_Ebad_exception@std@@UAEPAXI@Z 1000d56c f i libvcruntime:frame.obj
 0001:0000c56c       ??_Gexception@std@@UAEPAXI@Z 1000d56c f i LIBCMT:throw_bad_alloc.obj
 0001:0000c56c       ??_Gbad_exception@std@@UAEPAXI@Z 1000d56c f i libvcruntime:frame.obj
 0001:0000c56c       ??_Ebad_array_new_length@std@@UAEPAXI@Z 1000d56c f i LIBCMT:throw_bad_alloc.obj
 0001:0000c56c       ??_Gbad_alloc@std@@UAEPAXI@Z 1000d56c f i LIBCMT:throw_bad_alloc.obj
 0001:0000c56c       ??_Ebad_alloc@std@@UAEPAXI@Z 1000d56c f i LIBCMT:throw_bad_alloc.obj
 0001:0000c56c       ??_Eexception@std@@UAEPAXI@Z 1000d56c f i LIBCMT:throw_bad_alloc.obj
 0001:0000c56c       ??_Gbad_array_new_length@std@@UAEPAXI@Z 1000d56c f i LIBCMT:throw_bad_alloc.obj
 0001:0000c599       ?__scrt_throw_std_bad_alloc@@YAXXZ 1000d599 f   LIBCMT:throw_bad_alloc.obj
 0001:0000c5b6       ?__scrt_throw_std_bad_array_new_length@@YAXXZ 1000d5b6 f   LIBCMT:throw_bad_alloc.obj
 0001:0000c5d3       ?what@exception@std@@UBEPBDXZ 1000d5d3 f i LIBCMT:throw_bad_alloc.obj
 0001:0000c5e0       ??_Etype_info@@UAEPAXI@Z   1000d5e0 f i LIBCMT:std_type_info_static.obj
 0001:0000c5e0       ??_Gtype_info@@UAEPAXI@Z   1000d5e0 f i LIBCMT:std_type_info_static.obj
 0001:0000c603       ??0CAtlBaseModule@ATL@@QAE@XZ 1000d603 f   atls:atlbase.obj
 0001:0000c656       ??0_ATL_BASE_MODULE70@ATL@@QAE@XZ 1000d656 f i atls:atlbase.obj
 0001:0000c679       ??1CAtlBaseModule@ATL@@QAE@XZ 1000d679 f   atls:atlbase.obj
 0001:0000c766       ?Init@_stdcallthunk@ATL@@QAEHKPAX@Z 1000d766 f i atls:atlthunk.obj
 0001:0000c79b       ?__AllocStdCallThunk_cmn@@YAPAXXZ 1000d79b f   atls:atlthunk.obj
 0001:0000c861       ?__FreeStdCallThunk_cmn@@YAXPAX@Z 1000d861 f   atls:atlthunk.obj
 0001:0000c8fd       _AtlThunk_AllocateData@0   1000d8fd f   atls:atlthunk.obj
 0001:0000c962       _AtlThunk_DataToCode@4     1000d962 f   atls:atlthunk.obj
 0001:0000c9a9       _AtlThunk_FreeData@4       1000d9a9 f   atls:atlthunk.obj
 0001:0000c9ff       _AtlThunk_InitData@12      1000d9ff f   atls:atlthunk.obj
 0001:0000ca4e       __get_purecall_handler     1000da4e f   libvcruntime:purevirt.obj
 0001:0000ca55       __purecall                 1000da55 f   libvcruntime:purevirt.obj
 0001:0000ca71       _wcsstr                    1000da71 f   libvcruntime:wcsstr.obj
 0001:0000cd30       __except_handler4          1000dd30 f   libvcruntime:chandler4.obj
 0001:0000ce8e       _memcmp                    1000de8e f   libvcruntime:memcmp.obj
 0001:0000e510       _memmove                   1000f510 f   libvcruntime:memmove.obj
 0001:0000e510       _memcpy                    1000f510 f   libvcruntime:memcpy.obj
 0001:0000ea90       _memset                    1000fa90 f   libvcruntime:memset.obj
 0001:0000ebea       ___vcrt_initialize         1000fbea f   libvcruntime:initialization.obj
 0001:0000ec09       ___vcrt_thread_attach      1000fc09 f   libvcruntime:initialization.obj
 0001:0000ec14       ___vcrt_thread_detach      1000fc14 f   libvcruntime:initialization.obj
 0001:0000ec1f       ___vcrt_uninitialize       1000fc1f f   libvcruntime:initialization.obj
 0001:0000ec36       ___vcrt_uninitialize_critical 1000fc36 f   libvcruntime:initialization.obj
 0001:0000ec3e       ?GetRangeOfTrysToCheck@__FrameHandler3@@SA?AU?$pair@Viterator@TryBlockMap@__FrameHandler3@@V123@@std@@AAVTryBlockMap@1@HPAXPBU_s_FuncInfo@@H@Z 1000fc3e f   libvcruntime:trnsctrl.obj
 0001:0000ecae       ?_CallCatchBlock2@@YAPAXPAUEHRegistrationNode@@PBU_s_FuncInfo@@PAXHK@Z 1000fcae f   libvcruntime:trnsctrl.obj
 0001:0000ed0b       ?_CallSETranslator@@YAHPAUEHExceptionRecord@@PAUEHRegistrationNode@@PAX2PBU_s_FuncInfo@@H1@Z 1000fd0b f   libvcruntime:trnsctrl.obj
 0001:0000ee01       ?_JumpToContinuation@@YGXPAXPAUEHRegistrationNode@@@Z 1000fe01 f   libvcruntime:trnsctrl.obj
 0001:0000ee31       ?_UnwindNestedFrames@@YGXPAUEHRegistrationNode@@PAUEHExceptionRecord@@@Z 1000fe31 f   libvcruntime:trnsctrl.obj
 0001:0000ee84       __CatchGuardHandler        1000fe84 f   libvcruntime:trnsctrl.obj
 0001:0000eeb5       __CreateFrameInfo          1000feb5 f   libvcruntime:trnsctrl.obj
 0001:0000eed9       __FindAndUnlinkFrame       1000fed9 f   libvcruntime:trnsctrl.obj
 0001:0000ef21       __TranslatorGuardHandler   1000ff21 f   libvcruntime:trnsctrl.obj
 0001:0000efbe       ___CxxFrameHandler3        1000ffbe f   libvcruntime:trnsctrl.obj
 0001:0000eff4       ___DestructExceptionObject 1000fff4 f   libvcruntime:ehhelpers.obj
 0001:0000f095       ?_CallMemberFunction0@@YGXQAX0@Z 10010095 f i libvcruntime:ehhelpers.obj
 0001:0000f0fa       __IsExceptionObjectToBeDestroyed 100100fa f   libvcruntime:ehhelpers.obj
 0001:0000f120       ___AdjustPointer           10010120 f   libvcruntime:ehhelpers.obj
 0001:0000f145       ___FrameUnwindFilter       10010145 f   libvcruntime:ehhelpers.obj
 0001:0000f19b       ___std_terminate           1001019b f   libvcruntime:ehhelpers.obj
 0001:0000f1a0       ___std_type_info_compare   100101a0 f   libvcruntime:std_type_info.obj
 0001:0000f1dc       ___std_type_info_destroy_list 100101dc f   libvcruntime:std_type_info.obj
 0001:0000f1ff       ___std_exception_copy      100101ff f   libvcruntime:std_exception.obj
 0001:0000f262       ___std_exception_destroy   10010262 f   libvcruntime:std_exception.obj
 0001:0000f281       __CxxThrowException@8      10010281 f   libvcruntime:throw.obj
 0001:0000f2f0       __local_unwind4            100102f0 f   libvcruntime:exsup4.obj
 0001:0000f3e0       @_EH4_CallFilterFunc@8     100103e0 f   libvcruntime:exsup4.obj
 0001:0000f400       @_EH4_TransferToHandler@8  10010400 f   libvcruntime:exsup4.obj
 0001:0000f420       @_EH4_GlobalUnwind2@8      10010420 f   libvcruntime:exsup4.obj
 0001:0000f440       @_EH4_LocalUnwind@16       10010440 f   libvcruntime:exsup4.obj
 0001:0000f457       ___except_validate_context_record 10010457 f   libvcruntime:jbcxrval.obj
 0001:0000f487       ___vcrt_freefls@4          10010487 f   libvcruntime:per_thread_data.obj
 0001:0000f4a3       ___vcrt_freeptd            100104a3 f   libvcruntime:per_thread_data.obj
 0001:0000f4d9       ___vcrt_getptd             100104d9 f   libvcruntime:per_thread_data.obj
 0001:0000f4e7       ___vcrt_getptd_noexit      100104e7 f   libvcruntime:per_thread_data.obj
 0001:0000f579       ___vcrt_initialize_ptd     10010579 f   libvcruntime:per_thread_data.obj
 0001:0000f5ac       ___vcrt_uninitialize_ptd   100105ac f   libvcruntime:per_thread_data.obj
 0001:0000f5c7       ___vcrt_initialize_locks   100105c7 f   libvcruntime:locks.obj
 0001:0000f603       ___vcrt_uninitialize_locks 10010603 f   libvcruntime:locks.obj
 0001:0000fd64       ??$TypeMatchHelper@V__FrameHandler3@@@@YAHPBU_s_HandlerType@@PBU_s_CatchableType@@PBU_s_ThrowInfo@@@Z 10010d64 f i libvcruntime:frame.obj
 0001:0000fdf2       ??$__InternalCxxFrameHandler@V__FrameHandler3@@@@YA?AW4_EXCEPTION_DISPOSITION@@PAUEHExceptionRecord@@PAUEHRegistrationNode@@PAU_CONTEXT@@PAXPBU_s_FuncInfo@@H1E@Z 10010df2 f i libvcruntime:frame.obj
 0001:0000fef4       ??0bad_exception@std@@QAE@ABV01@@Z 10010ef4 f i libvcruntime:frame.obj
 0001:0000ff0f       ??0bad_exception@std@@QAE@XZ 10010f0f f i libvcruntime:frame.obj
 0001:0000ff27       ??8type_info@@QBE_NABV0@@Z 10010f27 f i libvcruntime:frame.obj
 0001:0001019e       ?FrameUnwindToEmptyState@__FrameHandler3@@SAXPAUEHRegistrationNode@@PAXPBU_s_FuncInfo@@@Z 1001119e f   libvcruntime:frame.obj
 0001:000101b6       ?FrameUnwindToState@__FrameHandler3@@SAXPAUEHRegistrationNode@@PAXPBU_s_FuncInfo@@H@Z 100111b6 f   libvcruntime:frame.obj
 0001:00010338       ?_CallMemberFunction1@@YGXQAX00@Z 10011338 f i libvcruntime:frame.obj
 0001:00010348       ?_CallMemberFunction2@@YGXQAX00H@Z 10011348 f i libvcruntime:frame.obj
 0001:0001035b       ?getESTypes@__FrameHandler3@@SAPBU_s_ESTypeList@@PBU_s_FuncInfo@@@Z 1001135b f i libvcruntime:frame.obj
 0001:00010370       __CallSettingFrame@12      10011370 f   libvcruntime:lowhelpr.obj
 0001:00010397       __NLG_Return               10011397     libvcruntime:lowhelpr.obj
 0001:000103c0       __NLG_Notify1              100113c0 f   libvcruntime:exsup.obj
 0001:000103d0       __NLG_Notify               100113d0 f   libvcruntime:exsup.obj
 0001:000103e7       __NLG_Dispatch             100113e7     libvcruntime:exsup.obj
 0001:000103e7       __NLG_Dispatch2            100113e7     libvcruntime:exsup.obj
 0001:000103f0       __NLG_Call                 100113f0 f   libvcruntime:exsup.obj
 0001:000103f2       __NLG_Return2              100113f2     libvcruntime:exsup.obj
 0001:000104d8       ___vcrt_FlsAlloc           100114d8 f   libvcruntime:winapi_downlevel.obj
 0001:00010513       ___vcrt_FlsFree            10011513 f   libvcruntime:winapi_downlevel.obj
 0001:0001054e       ___vcrt_FlsGetValue        1001154e f   libvcruntime:winapi_downlevel.obj
 0001:00010589       ___vcrt_FlsSetValue        10011589 f   libvcruntime:winapi_downlevel.obj
 0001:000105c7       ___vcrt_InitializeCriticalSectionEx 100115c7 f   libvcruntime:winapi_downlevel.obj
 0001:0001060e       _unexpected                1001160e f   libvcruntime:unexpected.obj
 0001:0001062b       ?GetCurrentState@__FrameHandler3@@SAHPAUEHRegistrationNode@@PAXPBU_s_FuncInfo@@@Z 1001162b f   libvcruntime:ehstate.obj
 0001:00010648       ?SetState@__FrameHandler3@@SAXPAUEHRegistrationNode@@PBU_s_FuncInfo@@H@Z 10011648 f   libvcruntime:ehstate.obj
 0001:00010656       _free                      10011656 f   libucrt:free.obj
 0001:00010671       ??0__crt_cached_ptd_host@@QAE@QAU__crt_locale_pointers@@@Z 10011671 f i libucrt:invalid_parameter.obj
 0001:000106b9       ??1__crt_cached_ptd_host@@QAE@XZ 100116b9 f i libucrt:invalid_parameter.obj
 0001:000106f5       ?check_synchronize_global_state_index@__crt_cached_ptd_host@@AAEIXZ 100116f5 f i libucrt:invalid_parameter.obj
 0001:0001071e       ?force_synchronize_per_thread_data@__crt_cached_ptd_host@@AAEPAU__acrt_ptd@@XZ 1001171e f i libucrt:invalid_parameter.obj
 0001:00010764       ?get_raw_ptd@__crt_cached_ptd_host@@QAEPAU__acrt_ptd@@XZ 10011764 f i libucrt:invalid_parameter.obj
 0001:00010781       ___acrt_call_reportfault   10011781 f   libucrt:invalid_parameter.obj
 0001:000108ba       ___acrt_initialize_invalid_parameter_handler 100118ba f   libucrt:invalid_parameter.obj
 0001:000108c9       __invalid_parameter        100118c9 f   libucrt:invalid_parameter.obj
 0001:00010900       __invalid_parameter_internal 10011900 f   libucrt:invalid_parameter.obj
 0001:0001097d       __invalid_parameter_noinfo 1001197d f   libucrt:invalid_parameter.obj
 0001:0001098d       __invoke_watson            1001198d f   libucrt:invalid_parameter.obj
 0001:000109c1       ___acrt_errno_from_os_error 100119c1 f   libucrt:errno.obj
 0001:00010a04       ___acrt_errno_map_os_error 10011a04 f   libucrt:errno.obj
 0001:00010a27       ___acrt_errno_map_os_error_ptd 10011a27 f   libucrt:errno.obj
 0001:00010a4b       ___doserrno                10011a4b f   libucrt:errno.obj
 0001:00010a5e       __errno                    10011a5e f   libucrt:errno.obj
 0001:00010a71       _calloc                    10011a71 f   libucrt:calloc.obj
 0001:00010a7c       _malloc                    10011a7c f   libucrt:malloc.obj
 0001:00010a87       __recalloc                 10011a87 f   libucrt:recalloc.obj
 0001:00010a92       __recalloc_base            10011a92 f   libucrt:recalloc.obj
 0001:00010aff       __resetstkoflw             10011aff f   libucrt:resetstk.obj
 0001:00010c3c       _wcscat_s                  10011c3c f   libucrt:wcscat_s.obj
 0001:00010c47       _wcscpy_s                  10011c47 f   libucrt:wcscpy_s.obj
 0001:00010d79       _wcsncpy_s                 10011d79 f   libucrt:wcsncpy_s.obj
 0001:00010fa1       ??$count@D@formatting_buffer@__crt_stdio_output@@QBEIXZ 10011fa1 f i libucrt:output.obj
 0001:00010fb9       ??$count@_W@formatting_buffer@__crt_stdio_output@@QBEIXZ 10011fb9 f i libucrt:output.obj
 0001:00010fd2       ??$ensure_buffer_is_big_enough@D@formatting_buffer@__crt_stdio_output@@QAE_NIAAV__crt_cached_ptd_host@@@Z 10011fd2 f i libucrt:output.obj
 0001:00011053       ??$ensure_buffer_is_big_enough@_W@formatting_buffer@__crt_stdio_output@@QAE_NIAAV__crt_cached_ptd_host@@@Z 10012053 f i libucrt:output.obj
 0001:000110d5       ??$is_overflow_condition@K@__crt_strtox@@YA_NIK@Z 100120d5 f i libucrt:output.obj
 0001:00011106       ??$is_wide_character_specifier@_W@__crt_stdio_output@@YA_N_K_WW4length_modifier@0@@Z 10012106 f i libucrt:output.obj
 0001:00011154       ??$parse_integer@KV?$c_string_character_source@_W@__crt_strtox@@$0A@@__crt_strtox@@YAKAAV__crt_cached_ptd_host@@V?$c_string_character_source@_W@0@H_N@Z 10012154 f i libucrt:output.obj
 0001:00011723       ??$scratch_data@D@formatting_buffer@__crt_stdio_output@@QAEPADXZ 10012723 f i libucrt:output.obj
 0001:00011741       ??$type_case_integer@$07@?$output_processor@_WV?$string_output_adapter@_W@__crt_stdio_output@@V?$format_validation_base@_WV?$string_output_adapter@_W@__crt_stdio_output@@@2@@__crt_stdio_output@@AAE_N_N@Z 10012741 f i libucrt:output.obj
 0001:000118c3       ??$type_case_integer@$09@?$output_processor@_WV?$string_output_adapter@_W@__crt_stdio_output@@V?$format_validation_base@_WV?$string_output_adapter@_W@__crt_stdio_output@@@2@@__crt_stdio_output@@AAE_N_N@Z 100128c3 f i libucrt:output.obj
 0001:00011a45       ??$type_case_integer@$0BA@@?$output_processor@_WV?$string_output_adapter@_W@__crt_stdio_output@@V?$format_validation_base@_WV?$string_output_adapter@_W@__crt_stdio_output@@@2@@__crt_stdio_output@@AAE_N_N@Z 10012a45 f i libucrt:output.obj
 0001:00011bc7       ??$type_case_integer_parse_into_buffer@I$07@?$output_processor@_WV?$string_output_adapter@_W@__crt_stdio_output@@V?$format_validation_base@_WV?$string_output_adapter@_W@__crt_stdio_output@@@2@@__crt_stdio_output@@AAEXI_N@Z 10012bc7 f i libucrt:output.obj
 0001:00011c34       ??$type_case_integer_parse_into_buffer@I$09@?$output_processor@_WV?$string_output_adapter@_W@__crt_stdio_output@@V?$format_validation_base@_WV?$string_output_adapter@_W@__crt_stdio_output@@@2@@__crt_stdio_output@@AAEXI_N@Z 10012c34 f i libucrt:output.obj
 0001:00011cc3       ??$type_case_integer_parse_into_buffer@I$0BA@@?$output_processor@_WV?$string_output_adapter@_W@__crt_stdio_output@@V?$format_validation_base@_WV?$string_output_adapter@_W@__crt_stdio_output@@@2@@__crt_stdio_output@@AAEXI_N@Z 10012cc3 f i libucrt:output.obj
 0001:00011d50       ??$type_case_integer_parse_into_buffer@_K$07@?$output_processor@_WV?$string_output_adapter@_W@__crt_stdio_output@@V?$format_validation_base@_WV?$string_output_adapter@_W@__crt_stdio_output@@@2@@__crt_stdio_output@@AAEX_K_N@Z 10012d50 f i libucrt:output.obj
 0001:00011dd9       ??$type_case_integer_parse_into_buffer@_K$09@?$output_processor@_WV?$string_output_adapter@_W@__crt_stdio_output@@V?$format_validation_base@_WV?$string_output_adapter@_W@__crt_stdio_output@@@2@@__crt_stdio_output@@AAEX_K_N@Z 10012dd9 f i libucrt:output.obj
 0001:00011e88       ??$type_case_integer_parse_into_buffer@_K$0BA@@?$output_processor@_WV?$string_output_adapter@_W@__crt_stdio_output@@V?$format_validation_base@_WV?$string_output_adapter@_W@__crt_stdio_output@@@2@@__crt_stdio_output@@AAEX_K_N@Z 10012e88 f i libucrt:output.obj
 0001:00011f23       ??0?$output_adapter_data@_WV?$string_output_adapter@_W@__crt_stdio_output@@@__crt_stdio_output@@IAE@ABV?$string_output_adapter@_W@1@_KQB_WAAV__crt_cached_ptd_host@@QAD@Z 10012f23 f i libucrt:output.obj
 0001:00011f8f       ??1formatting_buffer@__crt_stdio_output@@QAE@XZ 10012f8f f i libucrt:output.obj
 0001:00011fa9       ??4?$__crt_unique_heap_ptr@DU__crt_internal_free_policy@@@@QAEAAV0@$$QAV0@@Z 10012fa9 f i libucrt:output.obj
 0001:00011fcd       ?crop_zeroes@__crt_stdio_output@@YAXPADQAU__crt_locale_pointers@@@Z 10012fcd f i libucrt:output.obj
 0001:0001202d       ?find_next_state@?$output_processor@_WV?$string_output_adapter@_W@__crt_stdio_output@@V?$format_validation_base@_WV?$string_output_adapter@_W@__crt_stdio_output@@@2@@__crt_stdio_output@@ABE?AW4state@2@_WW432@@Z 1001302d f i libucrt:output.obj
 0001:00012069       ?force_decimal_point@__crt_stdio_output@@YAXPADQAU__crt_locale_pointers@@@Z 10013069 f i libucrt:output.obj
 0001:000120c5       ?parse_int_from_format_string@?$output_processor@_WV?$string_output_adapter@_W@__crt_stdio_output@@V?$format_validation_base@_WV?$string_output_adapter@_W@__crt_stdio_output@@@2@@__crt_stdio_output@@AAE_NQAH@Z 100130c5 f i libucrt:output.obj
 0001:0001213f       ?process@?$output_processor@_WV?$string_output_adapter@_W@__crt_stdio_output@@V?$format_validation_base@_WV?$string_output_adapter@_W@__crt_stdio_output@@@2@@__crt_stdio_output@@QAEHXZ 1001313f f i libucrt:output.obj
 0001:0001238f       ?state_case_size@?$output_processor@_WV?$string_output_adapter@_W@__crt_stdio_output@@V?$format_validation_base@_WV?$string_output_adapter@_W@__crt_stdio_output@@@2@@__crt_stdio_output@@AAE_NXZ 1001338f f i libucrt:output.obj
 0001:0001251d       ?state_case_type@?$output_processor@_WV?$string_output_adapter@_W@__crt_stdio_output@@V?$format_validation_base@_WV?$string_output_adapter@_W@__crt_stdio_output@@@2@@__crt_stdio_output@@AAE_NXZ 1001351d f i libucrt:output.obj
 0001:0001293e       ?to_integer_size@__crt_stdio_output@@YAIW4length_modifier@1@@Z 1001393e f i libucrt:output.obj
 0001:00012992       ?type_case_Z@?$output_processor@_WV?$string_output_adapter@_W@__crt_stdio_output@@V?$format_validation_base@_WV?$string_output_adapter@_W@__crt_stdio_output@@@2@@__crt_stdio_output@@AAE_NXZ 10013992 f i libucrt:output.obj
 0001:000129ec       ?type_case_a@?$output_processor@_WV?$string_output_adapter@_W@__crt_stdio_output@@V?$format_validation_base@_WV?$string_output_adapter@_W@__crt_stdio_output@@@2@@__crt_stdio_output@@AAE_NXZ 100139ec f i libucrt:output.obj
 0001:00012b8c       ?type_case_c_tchar@?$output_processor@_WV?$string_output_adapter@_W@__crt_stdio_output@@V?$format_validation_base@_WV?$string_output_adapter@_W@__crt_stdio_output@@@2@@__crt_stdio_output@@AAE_N_W@Z 10013b8c f i libucrt:output.obj
 0001:00012c33       ?type_case_n@?$output_processor@_WV?$string_output_adapter@_W@__crt_stdio_output@@V?$format_validation_base@_WV?$string_output_adapter@_W@__crt_stdio_output@@@2@@__crt_stdio_output@@AAE_NXZ 10013c33 f i libucrt:output.obj
 0001:00012cb7       ?type_case_o@?$output_processor@_WV?$string_output_adapter@_W@__crt_stdio_output@@V?$format_validation_base@_WV?$string_output_adapter@_W@__crt_stdio_output@@@2@@__crt_stdio_output@@AAE_NXZ 10013cb7 f i libucrt:output.obj
 0001:00012cd4       ?type_case_p@?$output_processor@_WV?$string_output_adapter@_W@__crt_stdio_output@@V?$format_validation_base@_WV?$string_output_adapter@_W@__crt_stdio_output@@@2@@__crt_stdio_output@@AAE_NXZ 10013cd4 f i libucrt:output.obj
 0001:00012cea       ?type_case_s@?$output_processor@_WV?$string_output_adapter@_W@__crt_stdio_output@@V?$format_validation_base@_WV?$string_output_adapter@_W@__crt_stdio_output@@@2@@__crt_stdio_output@@AAE_NXZ 10013cea f i libucrt:output.obj
 0001:00012d5d       ?type_case_s_compute_narrow_string_length@?$output_processor@_WV?$string_output_adapter@_W@__crt_stdio_output@@V?$format_validation_base@_WV?$string_output_adapter@_W@__crt_stdio_output@@@2@@__crt_stdio_output@@AAEHH_W@Z 10013d5d f i libucrt:output.obj
 0001:00012db2       ?unget@?$c_string_character_source@_W@__crt_strtox@@QAEX_W@Z 10013db2 f i libucrt:output.obj
 0001:00012de0       ?update_locale_slow@__crt_cached_ptd_host@@AAEXXZ 10013de0 f i libucrt:output.obj
 0001:00012e3b       ?validate@?$c_string_character_source@_W@__crt_strtox@@QBE_NXZ 10013e3b f i libucrt:output.obj
 0001:00012e56       ?validate@?$string_output_adapter@_W@__crt_stdio_output@@QBE_NAAV__crt_cached_ptd_host@@@Z 10013e56 f i libucrt:output.obj
 0001:00012e87       ?write_string@?$string_output_adapter@_W@__crt_stdio_output@@QBEXQB_WHQAHAAV__crt_cached_ptd_host@@@Z 10013e87 f i libucrt:output.obj
 0001:00012ef8       ___acrt_locale_get_ctype_array_value 10013ef8 f i libucrt:output.obj
 0001:00012f1a       ___stdio_common_vswprintf_s 10013f1a f   libucrt:output.obj
 0001:00012f5b       __seh_filter_dll           10013f5b f   libucrt:exception_filter.obj
 0001:00012f7b       __seh_filter_exe           10013f7b f   libucrt:exception_filter.obj
 0001:000133a8       ___acrt_initialize_thread_local_exit_callback 100143a8 f   libucrt:exit.obj
 0001:000133b7       __cexit                    100143b7 f   libucrt:exit.obj
 0001:000133c6       __exit                     100143c6 f   libucrt:exit.obj
 0001:000133dc       __is_c_termination_complete 100143dc f   libucrt:exit.obj
 0001:00013694       ___acrt_allocate_buffer_for_argv 10014694 f   libucrt:argv_parsing.obj
 0001:000136e3       __configure_narrow_argv    100146e3 f   libucrt:argv_parsing.obj
 0001:0001388f       ___dcrt_uninitialize_environments_nolock 1001488f f   libucrt:environment_initialization.obj
 0001:000138e0       __initialize_narrow_environment 100148e0 f   libucrt:environment_initialization.obj
 0001:0001399b       ??$__crt_fast_encode_pointer@PAX@@YAPAXQAX@Z 1001499b f i libucrt:initialization.obj
 0001:0001399b       ??$__crt_fast_encode_pointer@P6AHXZ@@YAP6AHXZQ6AHXZ@Z 1001499b f i libucrt:onexit.obj
 0001:0001399b       ??$__crt_fast_encode_pointer@PAP6AXXZ@@YAPAP6AXXZQAP6AXXZ@Z 1001499b f i libucrt:onexit.obj
 0001:00013b96       __crt_atexit               10014b96 f   libucrt:onexit.obj
 0001:00013bac       __execute_onexit_table     10014bac f   libucrt:onexit.obj
 0001:00013bea       __initialize_onexit_table  10014bea f   libucrt:onexit.obj
 0001:00013c13       __register_onexit_function 10014c13 f   libucrt:onexit.obj
 0001:00013c96       ___acrt_uninitialize_command_line 10014c96 f   libucrt:argv_data.obj
 0001:00013d44       ___acrt_initialize         10014d44 f   libucrt:initialization.obj
 0001:00013d56       ___acrt_thread_attach      10014d56 f   libucrt:initialization.obj
 0001:00013d61       ___acrt_thread_detach      10014d61 f   libucrt:initialization.obj
 0001:00013d69       ___acrt_uninitialize       10014d69 f   libucrt:initialization.obj
 0001:00013d99       ___acrt_uninitialize_critical 10014d99 f   libucrt:initialization.obj
 0001:00013dab       __initterm                 10014dab f   libucrt:initterm.obj
 0001:00013dd6       __initterm_e               10014dd6 f   libucrt:initterm.obj
 0001:00013e04       ___acrt_initialize_new_handler 10014e04 f   libucrt:new_handler.obj
 0001:00013e13       __callnewh                 10014e13 f   libucrt:new_handler.obj
 0001:00013e40       __query_new_handler        10014e40 f   libucrt:new_handler.obj
 0001:00013e9c       _terminate                 10014e9c f   libucrt:terminate.obj
 0001:00013ed8       _abort                     10014ed8 f   libucrt:abort.obj
 0001:00013f1c       _strcpy_s                  10014f1c f   libucrt:strcpy_s.obj
 0001:00013f80       _strncmp                   10014f80 f   libucrt:strncmp.obj
 0001:00013ff8       _wcsncmp                   10014ff8 f   libucrt:wcsncmp.obj
 0001:00014032       __free_base                10015032 f   libucrt:free_base.obj
 0001:000143aa       ___acrt_freeptd            100153aa f   libucrt:per_thread_data.obj
 0001:000143d6       ___acrt_getptd             100153d6 f   libucrt:per_thread_data.obj
 0001:00014491       ___acrt_getptd_head        10015491 f   libucrt:per_thread_data.obj
 0001:00014527       ___acrt_getptd_noexit      10015527 f   libucrt:per_thread_data.obj
 0001:000145d8       ___acrt_getptd_noexit_explicit 100155d8 f   libucrt:per_thread_data.obj
 0001:0001467b       ___acrt_initialize_ptd     1001567b f   libucrt:per_thread_data.obj
 0001:000146a7       ___acrt_uninitialize_ptd   100156a7 f   libucrt:per_thread_data.obj
 0001:0001472f       ___acrt_set_locale_changed 1001572f f   libucrt:wsetlocale.obj
 0001:0001473a       ___acrt_uninitialize_locale 1001573a f   libucrt:wsetlocale.obj
 0001:00014761       __calloc_base              10015761 f   libucrt:calloc_base.obj
 0001:000147be       __malloc_base              100157be f   libucrt:malloc_base.obj
 0001:0001480c       __msize_base               1001580c f   libucrt:msize.obj
 0001:0001483f       __realloc_base             1001583f f   libucrt:realloc_base.obj
 0001:00014a44       ___acrt_AppPolicyGetProcessTerminationMethodInternal@4 10015a44 f   libucrt:winapi_thunks.obj
 0001:00014a84       ___acrt_AreFileApisANSI@0  10015a84 f   libucrt:winapi_thunks.obj
 0001:00014aa3       ___acrt_FlsAlloc@4         10015aa3 f   libucrt:winapi_thunks.obj
 0001:00014ae2       ___acrt_FlsFree@4          10015ae2 f   libucrt:winapi_thunks.obj
 0001:00014b21       ___acrt_FlsGetValue@4      10015b21 f   libucrt:winapi_thunks.obj
 0001:00014b60       ___acrt_FlsSetValue@8      10015b60 f   libucrt:winapi_thunks.obj
 0001:00014ba2       ___acrt_InitializeCriticalSectionEx@12 10015ba2 f   libucrt:winapi_thunks.obj
 0001:00014bed       ___acrt_LCMapStringEx@36   10015bed f   libucrt:winapi_thunks.obj
 0001:00014c4a       ___acrt_LocaleNameToLCID@8 10015c4a f   libucrt:winapi_thunks.obj
 0001:00014c7b       ___acrt_SetThreadStackGuarantee@4 10015c7b f   libucrt:winapi_thunks.obj
 0001:00014cb6       ___acrt_initialize_winapi_thunks 10015cb6 f   libucrt:winapi_thunks.obj
 0001:00014cca       ___acrt_uninitialize_winapi_thunks 10015cca f   libucrt:winapi_thunks.obj
 0001:00014d00       _wcsnlen                   10015d00 f   libucrt:strnlen.obj
 0001:00014eb0       ___acrt_update_locale_info 10015eb0 f   libucrt:locale_update.obj
 0001:00014edd       ___acrt_update_locale_info_explicit 10015edd f   libucrt:locale_update.obj
 0001:00014f0e       ___acrt_update_multibyte_info 10015f0e f   libucrt:locale_update.obj
 0001:00014f3b       ___acrt_update_multibyte_info_explicit 10015f3b f   libucrt:locale_update.obj
 0001:00014f6c       ?__acrt_fp_classify@@YA?AW4__acrt_fp_class@@ABN@Z 10015f6c f i libucrt:cvt.obj
 0001:00015935       ___acrt_fp_format          10016935 f   libucrt:cvt.obj
 0001:00015ab6       __mbtowc_internal          10016ab6 f   libucrt:mbtowc.obj
 0001:00015be9       __fileno                   10016be9 f   libucrt:fileno.obj
 0001:00015c10       ___acrt_initialize_stdio   10016c10 f   libucrt:_file.obj
 0001:00015cd8       ___acrt_uninitialize_stdio 10016cd8 f   libucrt:_file.obj
 0001:00015d24       __lock_file                10016d24 f   libucrt:_file.obj
 0001:00015d38       __unlock_file              10016d38 f   libucrt:_file.obj
 0001:00015d4c       __get_printf_count_output  10016d4c f   libucrt:printf_count_output.obj
 0001:00015ec7       ___acrt_initialize_lowio   10016ec7 f   libucrt:ioinit.obj
 0001:00015f27       ___acrt_uninitialize_lowio 10016f27 f   libucrt:ioinit.obj
 0001:00015f53       ___acrt_initialize_locks   10016f53 f   libucrt:locks.obj
 0001:00015f94       ___acrt_lock               10016f94 f   libucrt:locks.obj
 0001:00015fab       ___acrt_uninitialize_locks 10016fab f   libucrt:locks.obj
 0001:00015fdc       ___acrt_unlock             10016fdc f   libucrt:locks.obj
 0001:00015ff3       ___acrt_get_process_end_policy 10016ff3 f   libucrt:win_policies.obj
 0001:0001603c       ??$__acrt_convert_wcs_mbs_cp@D_WV<lambda_62f6974d9771e494a5ea317cc32e971c>@@U__crt_win32_buffer_internal_dynamic_resizing@@@@YAHQBDAAV?$__crt_win32_buffer@_WU__crt_win32_buffer_internal_dynamic_resizing@@@@ABV<lambda_62f6974d9771e494a5ea317cc32e971c>@@I@Z 1001703c f i libucrt:argv_wildcards.obj
 0001:000160ee       ??$__acrt_convert_wcs_mbs_cp@_WDV<lambda_28bda7af82a03b66c1cb3803a755f95d>@@U__crt_win32_buffer_internal_dynamic_resizing@@@@YAHQB_WAAV?$__crt_win32_buffer@DU__crt_win32_buffer_internal_dynamic_resizing@@@@ABV<lambda_28bda7af82a03b66c1cb3803a755f95d>@@I@Z 100170ee f i libucrt:argv_wildcards.obj
 0001:000161b4       ??$__acrt_mbs_to_wcs_cp@U__crt_win32_buffer_internal_dynamic_resizing@@@@YAHQBDAAV?$__crt_win32_buffer@_WU__crt_win32_buffer_internal_dynamic_resizing@@@@I@Z 100171b4 f i libucrt:argv_wildcards.obj
 0001:00016684       ??0_LocaleUpdate@@QAE@QAU__crt_locale_pointers@@@Z 10017684 f i libucrt:argv_wildcards.obj
 0001:0001672f       ??R<lambda_0fec1a7b3f42a53036604e18c2d5e07e>@@QBEHIQB_WQADI@Z 1001772f f i libucrt:getmodulefilenamea.obj
 0001:0001672f       ??R<lambda_28bda7af82a03b66c1cb3803a755f95d>@@QBEHIQB_WQADI@Z 1001772f f i libucrt:argv_wildcards.obj
 0001:00016753       ?__acrt_get_utf8_acp_compatibility_codepage@@YAIXZ 10017753 f i libucrt:argv_wildcards.obj
 0001:00016792       ?_deallocate@?$__crt_win32_buffer@_WU__crt_win32_buffer_internal_dynamic_resizing@@@@AAEXXZ 10017792 f i libucrt:argv_wildcards.obj
 0001:00016792       ?_deallocate@?$__crt_win32_buffer@DU__crt_win32_buffer_internal_dynamic_resizing@@@@AAEXXZ 10017792 f i libucrt:argv_wildcards.obj
 0001:000167ac       ?allocate@?$__crt_win32_buffer@DU__crt_win32_buffer_internal_dynamic_resizing@@@@QAEHI@Z 100177ac f i libucrt:argv_wildcards.obj
 0001:000167e8       ?allocate@?$__crt_win32_buffer@_WU__crt_win32_buffer_internal_dynamic_resizing@@@@QAEHI@Z 100177e8 f i libucrt:argv_wildcards.obj
 0001:00016827       ?allocate@__crt_win32_buffer_internal_dynamic_resizing@@SAHQAPAXIABV__crt_win32_buffer_empty_debug_info@@@Z 10017827 f i libucrt:argv_wildcards.obj
 0001:000168cd       ___acrt_expand_narrow_argv_wildcards 100178cd f   libucrt:argv_wildcards.obj
 0001:000168d8       ??$__acrt_convert_wcs_mbs_cp@_WDV<lambda_0fec1a7b3f42a53036604e18c2d5e07e>@@U__crt_win32_buffer_no_resizing@@@@YAHQB_WAAV?$__crt_win32_buffer@DU__crt_win32_buffer_no_resizing@@@@ABV<lambda_0fec1a7b3f42a53036604e18c2d5e07e>@@I@Z 100178d8 f i libucrt:getmodulefilenamea.obj
 0001:0001699a       ?allocate@?$__crt_win32_buffer@DU__crt_win32_buffer_no_resizing@@@@QAEHI@Z 1001799a f i libucrt:getmodulefilenamea.obj
 0001:000169c1       ?set_to_nullptr@?$__crt_win32_buffer@DU__crt_win32_buffer_no_resizing@@@@QAEXXZ 100179c1 f i libucrt:getmodulefilenamea.obj
 0001:000169d5       ___acrt_GetModuleFileNameA 100179d5 f   libucrt:getmodulefilenamea.obj
 0001:00016ff9       ___acrt_initialize_multibyte 10017ff9 f   libucrt:mbctype.obj
 0001:00017041       ___acrt_update_thread_multibyte_data 10018041 f   libucrt:mbctype.obj
 0001:00017054       __setmbcp_nolock           10018054 f   libucrt:mbctype.obj
 0001:0001732d       __ismbblead                1001832d f   libucrt:ismbbyte.obj
 0001:00017345       ___acrt_initialize_command_line 10018345 f   libucrt:argv_data.obj
 0001:0001735e       ___acrt_MultiByteToWideChar 1001835e f   libucrt:multibytetowidechar.obj
 0001:000173da       ___acrt_WideCharToMultiByte 100183da f   libucrt:widechartomultibyte.obj
 0001:000174c8       ___dcrt_get_narrow_environment_from_os 100184c8 f   libucrt:get_environment_from_os.obj
 0001:00017568       ___acrt_initialize_heap    10018568 f   libucrt:heap_handle.obj
 0001:00017579       ___acrt_uninitialize_heap  10018579 f   libucrt:heap_handle.obj
 0001:00017583       ___acrt_execute_initializers 10018583 f   libucrt:shared_initialization.obj
 0001:000175eb       ___acrt_execute_uninitializers 100185eb f   libucrt:shared_initialization.obj
 0001:000176ea       ___acrt_get_sigabrt_handler 100186ea f   libucrt:signal.obj
 0001:00017711       ___acrt_initialize_signal_handlers 10018711 f   libucrt:signal.obj
 0001:0001772f       _raise                     1001872f f   libucrt:signal.obj
 0001:00017922       ___acrt_has_user_matherr   10018922 f   libucrt:matherr.obj
 0001:0001793a       ___acrt_initialize_user_matherr 1001893a f   libucrt:matherr.obj
 0001:00017949       ___acrt_invoke_user_matherr 10018949 f   libucrt:matherr.obj
 0001:00017b58       ___acrt_stdio_flush_nolock 10018b58 f   libucrt:fflush.obj
 0001:00017bc1       __fflush_nolock            10018bc1 f   libucrt:fflush.obj
 0001:00017c26       __flushall                 10018c26 f   libucrt:fflush.obj
 0001:00017c2f       ___acrt_add_locale_ref     10018c2f f   libucrt:locale_refcounting.obj
 0001:00017cac       ___acrt_free_locale        10018cac f   libucrt:locale_refcounting.obj
 0001:00017df4       ___acrt_locale_add_lc_time_reference 10018df4 f   libucrt:locale_refcounting.obj
 0001:00017e1d       ___acrt_locale_free_lc_time_if_unreferenced 10018e1d f   libucrt:locale_refcounting.obj
 0001:00017e4e       ___acrt_locale_release_lc_time_reference 10018e4e f   libucrt:locale_refcounting.obj
 0001:00017e77       ___acrt_release_locale_ref 10018e77 f   libucrt:locale_refcounting.obj
 0001:00017ef8       ___acrt_update_thread_locale_data 10018ef8 f   libucrt:locale_refcounting.obj
 0001:00017f79       __updatetlocinfoEx_nolock  10018f79 f   libucrt:locale_refcounting.obj
 0001:00017fc9       ___acrt_locale_free_monetary 10018fc9 f   libucrt:initmon.obj
 0001:000180c7       ___acrt_locale_free_numeric 100190c7 f   libucrt:initnum.obj
 0001:00018155       ___acrt_locale_free_time   10019155 f   libucrt:inittime.obj
 0001:00018239       ___acrt_GetStringTypeA     10019239 f   libucrt:getstringtypea.obj
 0001:00018342       __freea_crt                10019342 f i libucrt:getstringtypea.obj
 0001:00018362       __query_new_mode           10019362 f   libucrt:new_mode.obj
 0001:000183b9       ___acrt_DownlevelLocaleNameToLCID 100193b9 f   libucrt:lcidtoname_downlevel.obj
 0001:00018463       ___acrt_fp_strflt_to_string 10019463 f   libucrt:_fptostr.obj
 0001:00018560       ?divide@__crt_strtox@@YA_KAAUbig_integer@1@ABU21@@Z 10019560 f i libucrt:cfout.obj
 0001:000189e8       ___acrt_fltout             100199e8 f   libucrt:cfout.obj
 0001:00019f21       _fegetround                1001af21 f   libucrt:fegetround.obj
 0001:00019f5a       ?__mbrtowc_utf8@__crt_mbstring@@YAIPA_WPBDIPAU_Mbstatet@@AAV__crt_cached_ptd_host@@@Z 1001af5a f   libucrt:mbrtowc.obj
 0001:00019f9d       ?__mbsrtowcs_utf8@__crt_mbstring@@YAIPA_WPAPBDIPAU_Mbstatet@@AAV__crt_cached_ptd_host@@@Z 1001af9d f   libucrt:mbrtowc.obj
 0001:0001a0a5       __fcloseall                1001b0a5 f   libucrt:closeall.obj
 0001:0001a150       ___acrt_stdio_free_buffer_nolock 1001b150 f   libucrt:_freebuf.obj
 0001:0001a190       __isatty                   1001b190 f   libucrt:isatty.obj
 0001:0001a1e6       ___acrt_lowio_create_handle_array 1001b1e6 f   libucrt:osfinfo.obj
 0001:0001a261       ___acrt_lowio_destroy_handle_array 1001b261 f   libucrt:osfinfo.obj
 0001:0001a296       ___acrt_lowio_ensure_fh_exists 1001b296 f   libucrt:osfinfo.obj
 0001:0001a334       ___acrt_lowio_lock_fh      1001b334 f   libucrt:osfinfo.obj
 0001:0001a357       ___acrt_lowio_unlock_fh    1001b357 f   libucrt:osfinfo.obj
 0001:0001a37a       __free_osfhnd              1001b37a f   libucrt:osfinfo.obj
 0001:0001a40b       __get_osfhandle            1001b40b f   libucrt:osfinfo.obj
 0001:0001a480       _qsort                     1001b480 f   libucrt:qsort.obj
 0001:0001aa25       _strncpy_s                 1001ba25 f   libucrt:strncpy_s.obj
 0001:0001aa30       _strpbrk                   1001ba30 f   libucrt:strpbrk.obj
 0001:0001aa70       __mbsdec                   1001ba70 f   libucrt:mbsdec.obj
 0001:0001aa87       __mbsdec_l                 1001ba87 f   libucrt:mbsdec.obj
 0001:0001ad02       ___acrt_LCMapStringA       1001bd02 f   libucrt:lcmapstringa.obj
 0001:0001adfc       __commit                   1001bdfc f   libucrt:commit.obj
 0001:0001b627       __write_internal           1001c627 f   libucrt:write.obj
 0001:0001b72f       __write_nolock             1001c72f f   libucrt:write.obj
 0001:0001b92f       ___ascii_wcsnicmp          1001c92f f   libucrt:wcsnicmp.obj
 0001:0001b97e       __controlfp_s              1001c97e f   libucrt:contrlfp.obj
 0001:0001b9dd       _fegetenv                  1001c9dd f   libucrt:fegetenv.obj
 0001:0001b9fa       _fesetenv                  1001c9fa f   libucrt:fesetenv.obj
 0001:0001ba45       _feholdexcept              1001ca45 f   libucrt:feholdexcept.obj
 0001:0001baa0       __CIlog10                  1001caa0 f   libucrt:log10_impl.obj
 0001:0001badb       __CIlog10_default          1001cadb f   libucrt:log10_impl.obj
 0001:0001baef       __log10_default            1001caef     libucrt:log10_impl.obj
 0001:0001bbb0       _ceil                      1001cbb0 f   libucrt:ceil_pentium4.obj
 0001:0001bbf0       __ceil_pentium4            1001cbf0 f   libucrt:ceil_pentium4.obj
 0001:0001bf96       ___acrt_fenv_get_common_round_control 1001cf96 f   libucrt:_fenvutils.obj
 0001:0001bfb8       ___acrt_fenv_get_control   1001cfb8 f   libucrt:_fenvutils.obj
 0001:0001c038       ___acrt_fenv_get_status    1001d038 f   libucrt:_fenvutils.obj
 0001:0001c0e2       ___acrt_fenv_set_control   1001d0e2 f   libucrt:_fenvutils.obj
 0001:0001c15d       ___acrt_fenv_set_status    1001d15d f   libucrt:_fenvutils.obj
 0001:0001c257       ?reset_and_return@__crt_mbstring@@YAIIPAU_Mbstatet@@@Z 1001d257 f   libucrt:common_utf8.obj
 0001:0001c26b       ?return_illegal_sequence@__crt_mbstring@@YAIPAU_Mbstatet@@AAV__crt_cached_ptd_host@@@Z 1001d26b f   libucrt:common_utf8.obj
 0001:0001c28d       ?__mbrtoc32_utf8@__crt_mbstring@@YAIPA_UPBDIPAU_Mbstatet@@AAV__crt_cached_ptd_host@@@Z 1001d28d f   libucrt:mbrtoc32.obj
 0001:0001c570       _fclose                    1001d570 f   libucrt:fclose.obj
 0001:0001c623       __lseeki64_nolock_internal 1001d623 f   libucrt:lseek.obj
 0001:0001c641       __query_app_type           1001d641 f   libucrt:report_runtime_error.obj
 0001:0001c647       ___strncnt                 1001d647 f   libucrt:strncnt.obj
 0001:0001c663       __putwch_nolock            1001d663 f   libucrt:putwch.obj
 0001:0001c73c       __clearfp                  1001d73c f   libucrt:ieee87.obj
 0001:0001c81a       __control87                1001d81a f   libucrt:ieee87.obj
 0001:0001cbb9       ___acrt_initialize_sse2    1001dbb9 f   libucrt:mathfcns.obj
 0001:0001cbd0       __CIlog10_pentium4         1001dbd0 f   libucrt:log10_pentium4.obj
 0001:0001cbe8       __log10_pentium4           1001dbe8     libucrt:log10_pentium4.obj
 0001:0001ce80       __fFEXP                    1001de80 f   libucrt:87tran.obj
 0001:0001ced7       __rtinfpopse               1001ded7     libucrt:87tran.obj
 0001:0001ced9       __rtinfnpopse              1001ded9     libucrt:87tran.obj
 0001:0001cee9       __fFLN                     1001dee9     libucrt:87tran.obj
 0001:0001cf9e       __rtinfpop                 1001df9e     libucrt:87tran.obj
 0001:0001cfa0       __rtinfnpop                1001dfa0     libucrt:87tran.obj
 0001:0001cfb0       __rtforexpinf              1001dfb0 f   libucrt:87tran.obj
 0001:0001cfbd       __ffexpm1                  1001dfbd     libucrt:87tran.obj
 0001:0001d070       __trandisp1                1001e070 f   libucrt:87disp.obj
 0001:0001d0e5       __trandisp2                1001e0e5 f   libucrt:87disp.obj
 0001:0001d17f       __rttospopde               1001e17f     libucrt:87disp.obj
 0001:0001d184       __rttospop                 1001e184     libucrt:87disp.obj
 0001:0001d190       __rtnospop                 1001e190 f   libucrt:87disp.obj
 0001:0001d1a0       __rttosnpop                1001e1a0 f   libucrt:87disp.obj
 0001:0001d1a1       __rtnospopde               1001e1a1     libucrt:87disp.obj
 0001:0001d1a8       __rtzeropop                1001e1a8     libucrt:87disp.obj
 0001:0001d1aa       __rtzeronpop               1001e1aa     libucrt:87disp.obj
 0001:0001d1b0       __rtzerospop               1001e1b0 f   libucrt:87disp.obj
 0001:0001d1bd       __rtonepop                 1001e1bd     libucrt:87disp.obj
 0001:0001d1c0       __rtonenpop                1001e1c0 f   libucrt:87disp.obj
 0001:0001d1d0       __tosnan1                  1001e1d0 f   libucrt:87disp.obj
 0001:0001d200       __nosnan2                  1001e200 f   libucrt:87disp.obj
 0001:0001d210       __tosnan2                  1001e210 f   libucrt:87disp.obj
 0001:0001d240       __nan2                     1001e240 f   libucrt:87disp.obj
 0001:0001d280       __rtindfpop                1001e280 f   libucrt:87disp.obj
 0001:0001d282       __rtindfnpop               1001e282     libucrt:87disp.obj
 0001:0001d293       __rttosnpopde              1001e293     libucrt:87disp.obj
 0001:0001d2a0       __rtatan2inf               1001e2a0 f   libucrt:87disp.obj
 0001:0001d2bd       __rtchsifneg               1001e2bd     libucrt:87disp.obj
 0001:0001d2d0       __twoToTOS                 1001e2d0 f   libucrt:common.obj
 0001:0001d2e5       __load_CW                  1001e2e5 f   libucrt:common.obj
 0001:0001d2fc       __convertTOStoQNaN         1001e2fc f   libucrt:common.obj
 0001:0001d315       __fload_withFB             1001e315 f   libucrt:common.obj
 0001:0001d358       __checkTOS_withFB          1001e358 f   libucrt:common.obj
 0001:0001d36e       __fast_exit                1001e36e f   libucrt:common.obj
 0001:0001d37b       __math_exit                1001e37b f   libucrt:common.obj
 0001:0001d3a5       __check_overflow_exit      1001e3a5 f   libucrt:common.obj
 0001:0001d3b9       __check_range_exit         1001e3b9 f   libucrt:common.obj
 0001:0001d460       __startTwoArgErrorHandling 1001e460 f   libucrt:genexcep.obj
 0001:0001d477       __startOneArgErrorHandling 1001e477 f   libucrt:genexcep.obj
 0001:0001d4b3       ___libm_error_support      1001e4b3 f   libucrt:libm_error.obj
 0001:0001d6a7       __ceil_default             1001e6a7 f   libucrt:ceil.obj
 0001:0001d7ed       __close_internal           1001e7ed f   libucrt:close.obj
 0001:0001d890       __close_nolock_internal    1001e890 f   libucrt:close.obj
 0001:0001d930       ?__acrt_stdio_free_stream@@YAXV__crt_stdio_stream@@@Z 1001e930 f   libucrt:stream.obj
 0001:0001d970       ___ascii_strnicmp          1001e970 f   libucrt:_strnicm.obj
 0001:0001d9f0       ___dcrt_lowio_ensure_console_output_initialized 1001e9f0 f   libucrt:initcon.obj
 0001:0001da0f       ___dcrt_terminate_console_output 1001ea0f f   libucrt:initcon.obj
 0001:0001da26       ___dcrt_write_console      1001ea26 f   libucrt:initcon.obj
 0001:0001da7b       ___set_fpsr_sse2           1001ea7b f   libucrt:fpctrl.obj
 0001:0001dafb       __clrfp                    1001eafb f   libucrt:fpctrl.obj
 0001:0001db0c       __ctrlfp                   1001eb0c f   libucrt:fpctrl.obj
 0001:0001db36       __set_statfp               1001eb36 f   libucrt:fpctrl.obj
 0001:0001db8f       __statfp                   1001eb8f f   libucrt:fpctrl.obj
 0001:0001db9f       __d_inttype                1001eb9f f   libucrt:powhlp.obj
 0001:0001dc07       __powhlp                   1001ec07 f   libucrt:powhlp.obj
 0001:0001dd32       __87except                 1001ed32 f   libucrt:87except.obj
 0001:0001de3c       __frnd                     1001ee3c f   libucrt:frnd.obj
 0001:0001de50       __errcode                  1001ee50 f   libucrt:fpexcept.obj
 0001:0001de84       __except1                  1001ee84 f   libucrt:fpexcept.obj
 0001:0001df52       __handle_exc               1001ef52 f   libucrt:fpexcept.obj
 0001:0001e1cb       __raise_exc                1001f1cb f   libucrt:fpexcept.obj
 0001:0001e1ee       __raise_exc_ex             1001f1ee f   libucrt:fpexcept.obj
 0001:0001e4e4       __set_errno_from_matherr   1001f4e4 f   libucrt:fpexcept.obj
 0001:0001e513       __umatherr                 1001f513 f   libucrt:fpexcept.obj
 0001:0001e5b3       __decomp                   1001f5b3 f   libucrt:util.obj
 0001:0001e685       __set_exp                  1001f685 f   libucrt:util.obj
 0001:0001e6b2       __sptype                   1001f6b2 f   libucrt:util.obj
 0001:0001e710       __fpclass                  1001f710 f   libucrt:ieeemisc.obj
 0001:0001e7c0       __FindPESection            1001f7c0 f   LIBCMT:pesect.obj
 0001:0001e810       __IsNonwritableInCurrentImage 1001f810 f   LIBCMT:pesect.obj
 0001:0001e8d0       __ValidateImageBase        1001f8d0 f   LIBCMT:pesect.obj
 0001:0001e901       __EH_epilog3               1001f901 f   LIBCMT:ehprolg3.obj
 0001:0001e915       __EH_prolog3               1001f915 f   LIBCMT:ehprolg3.obj
 0001:0001e948       __EH_prolog3_catch         1001f948 f   LIBCMT:ehprolg3.obj
 0001:0001e980       __aulldvrm                 1001f980 f   LIBCMT:ulldvrm.obj
 0001:0001ea20       __allmul                   1001fa20 f   LIBCMT:llmul.obj
 0001:0001ea60       __alldvrm                  1001fa60 f   LIBCMT:lldvrm.obj
 0001:0001eb40       __allshl                   1001fb40 f   LIBCMT:llshl.obj
 0001:0001eb60       __aullshr                  1001fb60 f   LIBCMT:ullshr.obj
 0001:0001eb80       __ftol2_sse                1001fb80 f   LIBCMT:ftol2.obj
 0001:0001eb90       __ftoi2                    1001fb90 f   LIBCMT:ftol2.obj
 0001:0001ec10       _strrchr                   1001fc10 f   libvcruntime:strrchr.obj
 0001:0001ed50       __filter_x86_sse2_floating_point_exception_default 1001fd50 f   LIBCMT:x86_exception_filter.obj
 0001:0001ed50       __filter_x86_sse2_floating_point_exception 1001fd50 f   LIBCMT:x86_exception_filter.obj
 0002:00000000       __imp__RegQueryValueExW@24 10020000     advapi32:ADVAPI32.dll
 0002:00000004       __imp__RegSetValueExW@24   10020004     advapi32:ADVAPI32.dll
 0002:00000008       __imp__RegQueryInfoKeyW@48 10020008     advapi32:ADVAPI32.dll
 0002:0000000c       __imp__RegOpenKeyExW@20    1002000c     advapi32:ADVAPI32.dll
 0002:00000010       __imp__RegEnumKeyExW@32    10020010     advapi32:ADVAPI32.dll
 0002:00000014       __imp__RegDeleteValueW@8   10020014     advapi32:ADVAPI32.dll
 0002:00000018       __imp__RegDeleteKeyW@8     10020018     advapi32:ADVAPI32.dll
 0002:0000001c       __imp__RegCreateKeyExW@36  1002001c     advapi32:ADVAPI32.dll
 0002:00000020       __imp__RegCloseKey@4       10020020     advapi32:ADVAPI32.dll
 0002:00000024       \177ADVAPI32_NULL_THUNK_DATA 10020024     advapi32:ADVAPI32.dll
 0002:00000028       __imp__GetObjectW@12       10020028     gdi32:GDI32.dll
 0002:0000002c       __imp__SelectObject@8      1002002c     gdi32:GDI32.dll
 0002:00000030       __imp__DeleteObject@4      10020030     gdi32:GDI32.dll
 0002:00000034       __imp__CreateCompatibleDC@4 10020034     gdi32:GDI32.dll
 0002:00000038       __imp__BitBlt@36           10020038     gdi32:GDI32.dll
 0002:0000003c       __imp__SetWindowOrgEx@16   1002003c     gdi32:GDI32.dll
 0002:00000040       __imp__SetWindowExtEx@16   10020040     gdi32:GDI32.dll
 0002:00000044       __imp__SetViewportOrgEx@16 10020044     gdi32:GDI32.dll
 0002:00000048       __imp__LPtoDP@12           10020048     gdi32:GDI32.dll
 0002:0000004c       __imp__SetMapMode@8        1002004c     gdi32:GDI32.dll
 0002:00000050       __imp__SaveDC@4            10020050     gdi32:GDI32.dll
 0002:00000054       __imp__RestoreDC@8         10020054     gdi32:GDI32.dll
 0002:00000058       __imp__GetDeviceCaps@8     10020058     gdi32:GDI32.dll
 0002:0000005c       __imp__DeleteMetaFile@4    1002005c     gdi32:GDI32.dll
 0002:00000060       __imp__DeleteDC@4          10020060     gdi32:GDI32.dll
 0002:00000064       __imp__CreateRectRgnIndirect@4 10020064     gdi32:GDI32.dll
 0002:00000068       __imp__CreateMetaFileW@4   10020068     gdi32:GDI32.dll
 0002:0000006c       __imp__CreateDCW@16        1002006c     gdi32:GDI32.dll
 0002:00000070       __imp__CloseMetaFile@4     10020070     gdi32:GDI32.dll
 0002:00000074       \177GDI32_NULL_THUNK_DATA  10020074     gdi32:GDI32.dll
 0002:00000078       __imp__CloseHandle@4       10020078     kernel32:KERNEL32.dll
 0002:0000007c       __imp__SetEvent@4          1002007c     kernel32:KERNEL32.dll
 0002:00000080       __imp__CreateMutexW@12     10020080     kernel32:KERNEL32.dll
 0002:00000084       __imp__CreateEventW@16     10020084     kernel32:KERNEL32.dll
 0002:00000088       __imp__GetCurrentProcessId@0 10020088     kernel32:KERNEL32.dll
 0002:0000008c       __imp__CreateFileW@28      1002008c     kernel32:KERNEL32.dll
 0002:00000090       __imp__GetConsoleMode@8    10020090     kernel32:KERNEL32.dll
 0002:00000094       __imp__GetConsoleOutputCP@0 10020094     kernel32:KERNEL32.dll
 0002:00000098       __imp__WriteFile@20        10020098     kernel32:KERNEL32.dll
 0002:0000009c       __imp__FlushFileBuffers@4  1002009c     kernel32:KERNEL32.dll
 0002:000000a0       __imp__SetStdHandle@8      100200a0     kernel32:KERNEL32.dll
 0002:000000a4       __imp__SetFilePointerEx@20 100200a4     kernel32:KERNEL32.dll
 0002:000000a8       __imp__GetStringTypeW@16   100200a8     kernel32:KERNEL32.dll
 0002:000000ac       __imp__FreeEnvironmentStringsW@4 100200ac     kernel32:KERNEL32.dll
 0002:000000b0       __imp__GetEnvironmentStringsW@0 100200b0     kernel32:KERNEL32.dll
 0002:000000b4       __imp__lstrcmpiW@8         100200b4     kernel32:KERNEL32.dll
 0002:000000b8       __imp__GetCommandLineA@0   100200b8     kernel32:KERNEL32.dll
 0002:000000bc       __imp__GetCPInfo@8         100200bc     kernel32:KERNEL32.dll
 0002:000000c0       __imp__GetOEMCP@0          100200c0     kernel32:KERNEL32.dll
 0002:000000c4       __imp__GetACP@0            100200c4     kernel32:KERNEL32.dll
 0002:000000c8       __imp__IsValidCodePage@4   100200c8     kernel32:KERNEL32.dll
 0002:000000cc       __imp__FindNextFileW@8     100200cc     kernel32:KERNEL32.dll
 0002:000000d0       __imp__FindFirstFileExW@24 100200d0     kernel32:KERNEL32.dll
 0002:000000d4       __imp__FindClose@4         100200d4     kernel32:KERNEL32.dll
 0002:000000d8       __imp__GetFileType@4       100200d8     kernel32:KERNEL32.dll
 0002:000000dc       __imp__GetStdHandle@4      100200dc     kernel32:KERNEL32.dll
 0002:000000e0       __imp__LCMapStringW@24     100200e0     kernel32:KERNEL32.dll
 0002:000000e4       __imp__HeapReAlloc@16      100200e4     kernel32:KERNEL32.dll
 0002:000000e8       __imp__HeapSize@12         100200e8     kernel32:KERNEL32.dll
 0002:000000ec       __imp__MulDiv@12           100200ec     kernel32:KERNEL32.dll
 0002:000000f0       __imp__GlobalLock@4        100200f0     kernel32:KERNEL32.dll
 0002:000000f4       __imp__GlobalUnlock@4      100200f4     kernel32:KERNEL32.dll
 0002:000000f8       __imp__GlobalAlloc@8       100200f8     kernel32:KERNEL32.dll
 0002:000000fc       __imp__FindResourceW@12    100200fc     kernel32:KERNEL32.dll
 0002:00000100       __imp__SizeofResource@8    10020100     kernel32:KERNEL32.dll
 0002:00000104       __imp__LoadResource@8      10020104     kernel32:KERNEL32.dll
 0002:00000108       __imp__LoadLibraryExW@12   10020108     kernel32:KERNEL32.dll
 0002:0000010c       __imp__GetProcAddress@8    1002010c     kernel32:KERNEL32.dll
 0002:00000110       __imp__GetModuleHandleW@4  10020110     kernel32:KERNEL32.dll
 0002:00000114       __imp__GetModuleFileNameW@12 10020114     kernel32:KERNEL32.dll
 0002:00000118       __imp__FreeLibrary@4       10020118     kernel32:KERNEL32.dll
 0002:0000011c       __imp__DisableThreadLibraryCalls@4 1002011c     kernel32:KERNEL32.dll
 0002:00000120       __imp__GetCurrentThreadId@0 10020120     kernel32:KERNEL32.dll
 0002:00000124       __imp__Sleep@4             10020124     kernel32:KERNEL32.dll
 0002:00000128       __imp__WaitForSingleObject@8 10020128     kernel32:KERNEL32.dll
 0002:0000012c       __imp__ReleaseMutex@4      1002012c     kernel32:KERNEL32.dll
 0002:00000130       __imp__ResetEvent@4        10020130     kernel32:KERNEL32.dll
 0002:00000134       __imp__EnterCriticalSection@4 10020134     kernel32:KERNEL32.dll
 0002:00000138       __imp__LeaveCriticalSection@4 10020138     kernel32:KERNEL32.dll
 0002:0000013c       __imp__SetLastError@4      1002013c     kernel32:KERNEL32.dll
 0002:00000140       __imp__EncodePointer@4     10020140     kernel32:KERNEL32.dll
 0002:00000144       __imp__DeleteCriticalSection@4 10020144     kernel32:KERNEL32.dll
 0002:00000148       __imp__InitializeCriticalSectionEx@12 10020148     kernel32:KERNEL32.dll
 0002:0000014c       __imp__GetLastError@0      1002014c     kernel32:KERNEL32.dll
 0002:00000150       __imp__RaiseException@16   10020150     kernel32:KERNEL32.dll
 0002:00000154       __imp__DecodePointer@4     10020154     kernel32:KERNEL32.dll
 0002:00000158       __imp__WideCharToMultiByte@32 10020158     kernel32:KERNEL32.dll
 0002:0000015c       __imp__GetCommandLineW@0   1002015c     kernel32:KERNEL32.dll
 0002:00000160       __imp__MultiByteToWideChar@24 10020160     kernel32:KERNEL32.dll
 0002:00000164       __imp__WriteConsoleW@20    10020164     kernel32:KERNEL32.dll
 0002:00000168       __imp__GetModuleHandleExW@12 10020168     kernel32:KERNEL32.dll
 0002:0000016c       __imp__ExitProcess@4       1002016c     kernel32:KERNEL32.dll
 0002:00000170       __imp__VirtualQuery@12     10020170     kernel32:KERNEL32.dll
 0002:00000174       __imp__VirtualProtect@16   10020174     kernel32:KERNEL32.dll
 0002:00000178       __imp__GetSystemInfo@4     10020178     kernel32:KERNEL32.dll
 0002:0000017c       __imp__TlsFree@4           1002017c     kernel32:KERNEL32.dll
 0002:00000180       __imp__TlsSetValue@8       10020180     kernel32:KERNEL32.dll
 0002:00000184       __imp__TlsGetValue@4       10020184     kernel32:KERNEL32.dll
 0002:00000188       __imp__TlsAlloc@0          10020188     kernel32:KERNEL32.dll
 0002:0000018c       __imp__InterlockedFlushSList@4 1002018c     kernel32:KERNEL32.dll
 0002:00000190       __imp__RtlUnwind@16        10020190     kernel32:KERNEL32.dll
 0002:00000194       __imp__LoadLibraryExA@12   10020194     kernel32:KERNEL32.dll
 0002:00000198       __imp__VirtualFree@12      10020198     kernel32:KERNEL32.dll
 0002:0000019c       __imp__VirtualAlloc@16     1002019c     kernel32:KERNEL32.dll
 0002:000001a0       __imp__FlushInstructionCache@12 100201a0     kernel32:KERNEL32.dll
 0002:000001a4       __imp__InterlockedPushEntrySList@8 100201a4     kernel32:KERNEL32.dll
 0002:000001a8       __imp__InterlockedPopEntrySList@4 100201a8     kernel32:KERNEL32.dll
 0002:000001ac       __imp__GetProcessHeap@0    100201ac     kernel32:KERNEL32.dll
 0002:000001b0       __imp__HeapFree@12         100201b0     kernel32:KERNEL32.dll
 0002:000001b4       __imp__HeapAlloc@12        100201b4     kernel32:KERNEL32.dll
 0002:000001b8       __imp__OutputDebugStringW@4 100201b8     kernel32:KERNEL32.dll
 0002:000001bc       __imp__InitializeSListHead@4 100201bc     kernel32:KERNEL32.dll
 0002:000001c0       __imp__GetSystemTimeAsFileTime@4 100201c0     kernel32:KERNEL32.dll
 0002:000001c4       __imp__QueryPerformanceCounter@4 100201c4     kernel32:KERNEL32.dll
 0002:000001c8       __imp__GetStartupInfoW@4   100201c8     kernel32:KERNEL32.dll
 0002:000001cc       __imp__IsDebuggerPresent@0 100201cc     kernel32:KERNEL32.dll
 0002:000001d0       __imp__IsProcessorFeaturePresent@4 100201d0     kernel32:KERNEL32.dll
 0002:000001d4       __imp__TerminateProcess@8  100201d4     kernel32:KERNEL32.dll
 0002:000001d8       __imp__GetCurrentProcess@0 100201d8     kernel32:KERNEL32.dll
 0002:000001dc       __imp__SetUnhandledExceptionFilter@4 100201dc     kernel32:KERNEL32.dll
 0002:000001e0       __imp__UnhandledExceptionFilter@4 100201e0     kernel32:KERNEL32.dll
 0002:000001e4       __imp__InitializeCriticalSectionAndSpinCount@8 100201e4     kernel32:KERNEL32.dll
 0002:000001e8       __imp__WaitForSingleObjectEx@12 100201e8     kernel32:KERNEL32.dll
 0002:000001ec       \177KERNEL32_NULL_THUNK_DATA 100201ec     kernel32:KERNEL32.dll
 0002:000001f0       __imp__OleCreatePropertyFrame@44 100201f0     oleaut32:OLEAUT32.dll
 0002:000001f4       __imp__UnRegisterTypeLib@20 100201f4     oleaut32:OLEAUT32.dll
 0002:000001f8       __imp__RegisterTypeLib@12  100201f8     oleaut32:OLEAUT32.dll
 0002:000001fc       __imp__LoadRegTypeLib@20   100201fc     oleaut32:OLEAUT32.dll
 0002:00000200       __imp__LoadTypeLib@8       10020200     oleaut32:OLEAUT32.dll
 0002:00000204       __imp__VarUI4FromStr@16    10020204     oleaut32:OLEAUT32.dll
 0002:00000208       __imp__VariantInit@4       10020208     oleaut32:OLEAUT32.dll
 0002:0000020c       __imp__SysAllocStringByteLen@8 1002020c     oleaut32:OLEAUT32.dll
 0002:00000210       __imp__SysStringByteLen@4  10020210     oleaut32:OLEAUT32.dll
 0002:00000214       __imp__VariantChangeType@16 10020214     oleaut32:OLEAUT32.dll
 0002:00000218       __imp__VariantClear@4      10020218     oleaut32:OLEAUT32.dll
 0002:0000021c       __imp__SysStringLen@4      1002021c     oleaut32:OLEAUT32.dll
 0002:00000220       __imp__SysFreeString@4     10020220     oleaut32:OLEAUT32.dll
 0002:00000224       __imp__SysAllocStringLen@8 10020224     oleaut32:OLEAUT32.dll
 0002:00000228       __imp__SysAllocString@4    10020228     oleaut32:OLEAUT32.dll
 0002:0000022c       \177OLEAUT32_NULL_THUNK_DATA 1002022c     oleaut32:OLEAUT32.dll
 0002:00000230       __imp__UnregisterClassW@8  10020230     user32:USER32.dll
 0002:00000234       __imp__PostMessageW@16     10020234     user32:USER32.dll
 0002:00000238       __imp__DefWindowProcW@16   10020238     user32:USER32.dll
 0002:0000023c       __imp__CallWindowProcW@20  1002023c     user32:USER32.dll
 0002:00000240       __imp__RegisterClassExW@4  10020240     user32:USER32.dll
 0002:00000244       __imp__GetClassInfoExW@12  10020244     user32:USER32.dll
 0002:00000248       __imp__CreateWindowExW@48  10020248     user32:USER32.dll
 0002:0000024c       __imp__IsWindow@4          1002024c     user32:USER32.dll
 0002:00000250       __imp__IsChild@8           10020250     user32:USER32.dll
 0002:00000254       __imp__DestroyWindow@4     10020254     user32:USER32.dll
 0002:00000258       __imp__ShowWindow@8        10020258     user32:USER32.dll
 0002:0000025c       __imp__SetWindowPos@28     1002025c     user32:USER32.dll
 0002:00000260       __imp__CharNextW@4         10020260     user32:USER32.dll
 0002:00000264       __imp__SetFocus@4          10020264     user32:USER32.dll
 0002:00000268       __imp__LoadBitmapW@8       10020268     user32:USER32.dll
 0002:0000026c       __imp__RegisterClassW@4    1002026c     user32:USER32.dll
 0002:00000270       __imp__PeekMessageW@20     10020270     user32:USER32.dll
 0002:00000274       __imp__LoadCursorW@8       10020274     user32:USER32.dll
 0002:00000278       __imp__GetParent@4         10020278     user32:USER32.dll
 0002:0000027c       __imp__SetWindowLongW@12   1002027c     user32:USER32.dll
 0002:00000280       __imp__GetWindowLongW@8    10020280     user32:USER32.dll
 0002:00000284       __imp__PtInRect@12         10020284     user32:USER32.dll
 0002:00000288       __imp__EqualRect@8         10020288     user32:USER32.dll
 0002:0000028c       __imp__OffsetRect@12       1002028c     user32:USER32.dll
 0002:00000290       __imp__UnionRect@12        10020290     user32:USER32.dll
 0002:00000294       __imp__IntersectRect@12    10020294     user32:USER32.dll
 0002:00000298       __imp__GetClientRect@8     10020298     user32:USER32.dll
 0002:0000029c       __imp__InvalidateRect@12   1002029c     user32:USER32.dll
 0002:000002a0       __imp__SetWindowRgn@12     100202a0     user32:USER32.dll
 0002:000002a4       __imp__EndPaint@8          100202a4     user32:USER32.dll
 0002:000002a8       __imp__BeginPaint@8        100202a8     user32:USER32.dll
 0002:000002ac       __imp__ReleaseDC@8         100202ac     user32:USER32.dll
 0002:000002b0       __imp__GetDC@4             100202b0     user32:USER32.dll
 0002:000002b4       __imp__GetKeyState@4       100202b4     user32:USER32.dll
 0002:000002b8       __imp__GetFocus@0          100202b8     user32:USER32.dll
 0002:000002bc       \177USER32_NULL_THUNK_DATA 100202bc     user32:USER32.dll
 0002:000002c0       __imp__StringFromGUID2@12  100202c0     ole32:ole32.dll
 0002:000002c4       __imp__CoTaskMemAlloc@4    100202c4     ole32:ole32.dll
 0002:000002c8       __imp__CoTaskMemRealloc@8  100202c8     ole32:ole32.dll
 0002:000002cc       __imp__CoTaskMemFree@4     100202cc     ole32:ole32.dll
 0002:000002d0       __imp__ReadClassStm@8      100202d0     ole32:ole32.dll
 0002:000002d4       __imp__WriteClassStm@8     100202d4     ole32:ole32.dll
 0002:000002d8       __imp__CreateDataAdviseHolder@4 100202d8     ole32:ole32.dll
 0002:000002dc       __imp__OleSaveToStream@8   100202dc     ole32:ole32.dll
 0002:000002e0       __imp__CreateOleAdviseHolder@4 100202e0     ole32:ole32.dll
 0002:000002e4       __imp__OleRegGetUserType@12 100202e4     ole32:ole32.dll
 0002:000002e8       __imp__OleRegGetMiscStatus@12 100202e8     ole32:ole32.dll
 0002:000002ec       __imp__OleRegEnumVerbs@8   100202ec     ole32:ole32.dll
 0002:000002f0       __imp__CLSIDFromProgID@8   100202f0     ole32:ole32.dll
 0002:000002f4       __imp__CoCreateInstance@20 100202f4     ole32:ole32.dll
 0002:000002f8       \177ole32_NULL_THUNK_DATA  100202f8     ole32:ole32.dll
 0002:000002fc       ___guard_check_icall_fptr  100202fc     LIBCMT:guard_support.obj
 0002:00000300       ___castguard_check_failure_os_handled_fptr 10020300     LIBCMT:guard_support.obj
 0002:00000304       ___xc_a                    10020304     LIBCMT:initializers.obj
 0002:0000031c       ___xc_z                    1002031c     LIBCMT:initializers.obj
 0002:00000320       ___xi_a                    10020320     LIBCMT:initializers.obj
 0002:00000328       ___acrt_stdio_initializer  10020328     libucrt:stdio_initializer.obj
 0002:0000032c       ___acrt_multibyte_initializer 1002032c     libucrt:multibyte_initializer.obj
 0002:00000330       ___acrt_tran_sse2_initializer 10020330     libucrt:sse2_initializer.obj
 0002:00000334       ___xi_z                    10020334     LIBCMT:initializers.obj
 0002:00000338       ___xl_a                    10020338     LIBCMT:tlssup.obj
 0002:0000033c       ___xl_z                    1002033c     LIBCMT:tlssup.obj
 0002:00000340       ___xp_a                    10020340     LIBCMT:initializers.obj
 0002:00000344       ___acrt_locale_terminator  10020344     libucrt:locale_initializer.obj
 0002:00000348       ___dcrt_console_output_terminator 10020348     libucrt:console_output_initializer.obj
 0002:0000034c       ___acrt_stdio_terminator   1002034c     libucrt:stdio_initializer.obj
 0002:00000350       ___xp_z                    10020350     LIBCMT:initializers.obj
 0002:00000354       ___xt_a                    10020354     LIBCMT:initializers.obj
 0002:00000358       ___xt_z                    10020358     LIBCMT:initializers.obj
 0002:00000360       ??_C@_13HADIAKP@?$AAS@     10020360     OposVariant.obj
 0002:00000364       ??_C@_13LHMFKAAD@?$AAM@    10020364     OposVariant.obj
 0002:00000368       ??_C@_13MKMNOPIJ@?$AAD@    10020368     OposVariant.obj
 0002:0000036c       ??_C@_13OPKGLAFF@?$AAB@    1002036c     OposVariant.obj
 0002:00000370       ??_C@_17LLMMEOJD@?$AAV?$AAa?$AAl@ 10020370     OposVariant.obj
 0002:00000378       ??_C@_1BI@JFAIJMHL@?$AAF?$AAo?$AAr?$AAc?$AAe?$AAR?$AAe?$AAm?$AAo?$AAv?$AAe@ 10020378     OposVariant.obj
 0002:00000390       ??_C@_1BC@GCKHIPE@?$AAN?$AAo?$AAR?$AAe?$AAm?$AAo?$AAv?$AAe@ 10020390     OposVariant.obj
 0002:000003a4       ??_C@_1O@JDLOHAN@?$AAD?$AAe?$AAl?$AAe?$AAt?$AAe@ 100203a4     OposVariant.obj
 0002:000003b4       ??_C@_11LOCGONAA@@         100203b4     OposVariant.obj
 0002:000003b8       __GUID_00020412_0000_0000_c000_000000000046 100203b8     BumpBar.obj
 0002:000003c8       __GUID_00020401_0000_0000_c000_000000000046 100203c8     BumpBar.obj
 0002:000003d8       __GUID_55980ba0_35aa_11cf_b671_00aa004cd6d8 100203d8     BumpBar.obj
 0002:000003e8       ??_7?$CComObject@V?$CComEnum@UIEnumConnections@@$1?_GUID_b196b287_bab4_101a_b69c_00aa00341d07@@3U__s_GUID@@BUtagCONNECTDATA@@V?$_Copy@UtagCONNECTDATA@@@ATL@@VCComSingleThreadModel@6@@ATL@@@ATL@@6B@ 100203e8     BumpBar.obj
 0002:00000408       __GUID_b196b28b_bab4_101a_b69c_00aa00341d07 10020408     BumpBar.obj
 0002:00000418       ?_entries@?1??_GetEntries@?$CComEnum@UIEnumConnections@@$1?_GUID_b196b287_bab4_101a_b69c_00aa00341d07@@3U__s_GUID@@BUtagCONNECTDATA@@V?$_Copy@UtagCONNECTDATA@@@ATL@@VCComSingleThreadModel@6@@ATL@@SGPBU_ATL_INTMAP_ENTRY@3@XZ@4QBU43@B 10020418     BumpBar.obj
 0002:00000430       ??_7CComClassFactory@ATL@@6B@ 10020430     BumpBar.obj
 0002:00000448       ?_entries@?1??_GetEntries@CComClassFactory@ATL@@SGPBU_ATL_INTMAP_ENTRY@3@XZ@4QBU43@B 10020448     BumpBar.obj
 0002:00000460       __GUID_00000001_0000_0000_c000_000000000046 10020460     BumpBar.obj
 0002:00000470       _IID_IOPOSBumpBar_1_5      10020470     BumpBar.obj
 0002:00000480       ??_C@_1BK@BIGILECK@?$AAA?$AAd?$AAv?$AAa?$AAp?$AAi?$AA3?$AA2?$AA?4?$AAd?$AAl?$AAl@ 10020480     BumpBar.obj
 0002:0000049c       ??_C@_0BI@MNCFCPFK@RegCreateKeyTransactedW@ 1002049c     BumpBar.obj
 0002:000004b4       _IID_IOPOSBumpBar_1_8      100204b4     BumpBar.obj
 0002:000004c4       _IID_IOPOSBumpBar_1_9      100204c4     BumpBar.obj
 0002:000004d4       _IID_IOPOSBumpBar          100204d4     BumpBar.obj
 0002:000004e4       _LIBID_OposBumpBar_CCO     100204e4     BumpBar.obj
 0002:000004f4       _DIID__IOPOSBumpBarEvents  100204f4     BumpBar.obj
 0002:00000504       _CLSID_OPOSBumpBar         10020504     BumpBar.obj
 0002:00000514       __GUID_b196b287_bab4_101a_b69c_00aa00341d07 10020514     BumpBar.obj
 0002:00000524       __GUID_b196b285_bab4_101a_b69c_00aa00341d07 10020524     BumpBar.obj
 0002:00000534       __GUID_00000114_0000_0000_c000_000000000046 10020534     BumpBar.obj
 0002:00000544       __GUID_a6bc3ac0_dbaa_11ce_9de3_00aa004bb851 10020544     BumpBar.obj
 0002:00000554       __GUID_0000010c_0000_0000_c000_000000000046 10020554     BumpBar.obj
 0002:00000564       __GUID_00000146_0000_0000_c000_000000000046 10020564     BumpBar.obj
 0002:00000574       ??_7CComModule@ATL@@6B@    10020574     BumpBar.obj
 0002:0000059c       __GUID_00000000_0000_0000_c000_000000000046 1002059c     BumpBar.obj
 0002:000005ac       __GUID_00020400_0000_0000_c000_000000000046 100205ac     BumpBar.obj
 0002:000005c0       ?_entries@?1??_GetEntries@COPOSBumpBar@@SGPBU_ATL_INTMAP_ENTRY@ATL@@XZ@4QBU34@B 100205c0     BumpBar.obj
 0002:000006f8       __GUID_cf51ed10_62fe_11cf_bf86_00a0c9034836 100206f8     BumpBar.obj
 0002:00000708       __GUID_0000010a_0000_0000_c000_000000000046 10020708     BumpBar.obj
 0002:00000718       __GUID_b196b283_bab4_101a_b69c_00aa00341d07 10020718     BumpBar.obj
 0002:00000728       __GUID_cb5bdc81_93c1_11cf_8f20_00805f2cd064 10020728     BumpBar.obj
 0002:00000738       ?pPropMap@?1??GetPropertyMap@COPOSBumpBar@@SAPBUATL_PROPMAP_ENTRY@ATL@@XZ@4QBU34@B 10020738     BumpBar.obj
 0002:000007a4       ??_C@_17DGDADEHL@?$AA_?$AAc?$AAx@ 100207a4     BumpBar.obj
 0002:000007ac       ??_C@_17IOIMFDBO@?$AA_?$AAc?$AAy@ 100207ac     BumpBar.obj
 0002:000007b4       __GUID_922eada0_3424_11cf_b670_00aa004cd6d8 100207b4     BumpBar.obj
 0002:000007c4       __GUID_9c2cad80_3424_11cf_b670_00aa004cd6d8 100207c4     BumpBar.obj
 0002:000007d4       __GUID_00000119_0000_0000_c000_000000000046 100207d4     BumpBar.obj
 0002:000007e4       __GUID_b196b289_bab4_101a_b69c_00aa00341d07 100207e4     BumpBar.obj
 0002:000007f4       ??_7?$CComObjectCached@VCComClassFactory@ATL@@@ATL@@6B@ 100207f4     BumpBar.obj
 0002:0000080c       ??_C@_1CE@PGFMOFKI@?$AAS?$AAt?$AAa?$AAt?$AAu?$AAs?$AAU?$AAp?$AAd?$AAa?$AAt?$AAe?$AAE?$AAv?$AAe@ 1002080c     BumpBar.obj
 0002:00000830       ??_C@_1CI@HLBJDONE@?$AAO?$AAu?$AAt?$AAp?$AAu?$AAt?$AAC?$AAo?$AAm?$AAp?$AAl?$AAe?$AAt?$AAe?$AAE@ 10020830     BumpBar.obj
 0002:00000858       __GUID_00000117_0000_0000_c000_000000000046 10020858     BumpBar.obj
 0002:00000868       ??_C@_1BG@LODEBHDD@?$AAE?$AAr?$AAr?$AAo?$AAr?$AAE?$AAv?$AAe?$AAn?$AAt@ 10020868     BumpBar.obj
 0002:00000880       ??_C@_1BM@CBGEBBBJ@?$AAD?$AAi?$AAr?$AAe?$AAc?$AAt?$AAI?$AAO?$AAE?$AAv?$AAe?$AAn?$AAt@ 10020880     BumpBar.obj
 0002:0000089c       ??_C@_1BE@IEBMACEM@?$AAD?$AAa?$AAt?$AAa?$AAE?$AAv?$AAe?$AAn?$AAt@ 1002089c     BumpBar.obj
 0002:000008b0       __GUID_b196b286_bab4_101a_b69c_00aa00341d07 100208b0     BumpBar.obj
 0002:000008c0       ??_C@_1BC@ENICKDH@?$AAC?$AAo?$AAn?$AAt?$AAe?$AAn?$AAt?$AAs@ 100208c0     BumpBar.obj
 0002:000008d4       ??_C@_1M@KANJNLFF@?$AAC?$AAL?$AAS?$AAI?$AAD@ 100208d4     BumpBar.obj
 0002:000008e0       ??_C@_1M@EJNEECMJ@?$AAA?$AAp?$AAp?$AAI?$AAD@ 100208e0     BumpBar.obj
 0002:000008ec       ??_7?$CComObject@V?$CComEnum@UIEnumConnectionPoints@@$1?_GUID_b196b285_bab4_101a_b69c_00aa00341d07@@3U__s_GUID@@BPAUIConnectionPoint@@V?$_CopyInterface@UIConnectionPoint@@@ATL@@VCComSingleThreadModel@6@@ATL@@@ATL@@6B@ 100208ec     BumpBar.obj
 0002:0000090c       ?rgszNeverDelete@CRegParser@ATL@@1QBQB_WB 1002090c     BumpBar.obj
 0002:0000093c       ??_7CRegObject@ATL@@6B@    1002093c     BumpBar.obj
 0002:00000954       __GUID_0000010e_0000_0000_c000_000000000046 10020954     BumpBar.obj
 0002:00000964       __GUID_b196b288_bab4_101a_b69c_00aa00341d07 10020964     BumpBar.obj
 0002:00000974       ??_C@_1CK@OEKPKBNA@?$AAC?$AAo?$AAm?$AAp?$AAo?$AAn?$AAe?$AAn?$AAt?$AA?5?$AAC?$AAa?$AAt?$AAe?$AAg@ 10020974     BumpBar.obj
 0002:000009a0       ??_C@_1BC@NKMMNMGL@?$AAF?$AAi?$AAl?$AAe?$AAT?$AAy?$AAp?$AAe@ 100209a0     BumpBar.obj
 0002:000009b4       ??_C@_1BE@EKPAFMCP@?$AAI?$AAn?$AAt?$AAe?$AAr?$AAf?$AAa?$AAc?$AAe@ 100209b4     BumpBar.obj
 0002:000009c8       ??_C@_1BC@MAICEHGI@?$AAH?$AAa?$AAr?$AAd?$AAw?$AAa?$AAr?$AAe@ 100209c8     BumpBar.obj
 0002:000009dc       ??_C@_19HLLLM@?$AAM?$AAi?$AAm?$AAe@ 100209dc     BumpBar.obj
 0002:000009e8       ??_C@_17OMAOINJK@?$AAS?$AAA?$AAM@ 100209e8     BumpBar.obj
 0002:000009f0       ??_C@_1BC@IBECJAAI@?$AAS?$AAE?$AAC?$AAU?$AAR?$AAI?$AAT?$AAY@ 100209f0     BumpBar.obj
 0002:00000a04       ??_C@_1O@GBFINDKL@?$AAS?$AAY?$AAS?$AAT?$AAE?$AAM@ 10020a04     BumpBar.obj
 0002:00000a14       ??_C@_1BC@EAHCMADO@?$AAS?$AAo?$AAf?$AAt?$AAw?$AAa?$AAr?$AAe@ 10020a14     BumpBar.obj
 0002:00000a28       ??_C@_1BA@JIHHIEDE@?$AAT?$AAy?$AAp?$AAe?$AAL?$AAi?$AAb@ 10020a28     BumpBar.obj
 0002:00000a38       ?map@?1??HKeyFromString@CRegParser@ATL@@KAPAUHKEY__@@PA_W@Z@4QBUkeymap@?1??123@KAPAU4@0@Z@B 10020a38     BumpBar.obj
 0002:00000aa8       ??_C@_19NCHLBIN@?$AAH?$AAK?$AAC?$AAR@ 10020aa8     BumpBar.obj
 0002:00000ab4       ??_C@_19JAPAIJDE@?$AAH?$AAK?$AAC?$AAU@ 10020ab4     BumpBar.obj
 0002:00000ac0       ??_C@_19PEALEEJB@?$AAH?$AAK?$AAL?$AAM@ 10020ac0     BumpBar.obj
 0002:00000acc       ??_C@_17PJOJPMPB@?$AAH?$AAK?$AAU@ 10020acc     BumpBar.obj
 0002:00000ad4       ??_C@_19PNBHMJPL@?$AAH?$AAK?$AAP?$AAD@ 10020ad4     BumpBar.obj
 0002:00000ae0       ??_C@_19GFFAIJHG@?$AAH?$AAK?$AAD?$AAD@ 10020ae0     BumpBar.obj
 0002:00000aec       ??_C@_19OFICIBHH@?$AAH?$AAK?$AAC?$AAC@ 10020aec     BumpBar.obj
 0002:00000af8       ??_C@_1CE@PACHPJFI@?$AAH?$AAK?$AAE?$AAY?$AA_?$AAC?$AAL?$AAA?$AAS?$AAS?$AAE?$AAS?$AA_?$AAR?$AAO@ 10020af8     BumpBar.obj
 0002:00000b1c       ??_C@_1CE@HLHNCBPM@?$AAH?$AAK?$AAE?$AAY?$AA_?$AAC?$AAU?$AAR?$AAR?$AAE?$AAN?$AAT?$AA_?$AAU?$AAS@ 10020b1c     BumpBar.obj
 0002:00000b40       ??_C@_1CG@GFBEANJL@?$AAH?$AAK?$AAE?$AAY?$AA_?$AAL?$AAO?$AAC?$AAA?$AAL?$AA_?$AAM?$AAA?$AAC?$AAH@ 10020b40     BumpBar.obj
 0002:00000b68       ??_C@_1BG@BGODANIO@?$AAH?$AAK?$AAE?$AAY?$AA_?$AAU?$AAS?$AAE?$AAR?$AAS@ 10020b68     BumpBar.obj
 0002:00000b80       ??_C@_1CM@KHNNAOIC@?$AAH?$AAK?$AAE?$AAY?$AA_?$AAP?$AAE?$AAR?$AAF?$AAO?$AAR?$AAM?$AAA?$AAN?$AAC@ 10020b80     BumpBar.obj
 0002:00000bac       ??_C@_1BM@HAGMMHIA@?$AAH?$AAK?$AAE?$AAY?$AA_?$AAD?$AAY?$AAN?$AA_?$AAD?$AAA?$AAT?$AAA@ 10020bac     BumpBar.obj
 0002:00000bc8       ??_C@_1CI@BBJOACGG@?$AAH?$AAK?$AAE?$AAY?$AA_?$AAC?$AAU?$AAR?$AAR?$AAE?$AAN?$AAT?$AA_?$AAC?$AAO@ 10020bc8     BumpBar.obj
 0002:00000bf0       __GUID_00000113_0000_0000_c000_000000000046 10020bf0     BumpBar.obj
 0002:00000c00       __GUID_00000109_0000_0000_c000_000000000046 10020c00     BumpBar.obj
 0002:00000c10       __GUID_7fd52380_4e07_101b_ae2d_08002b2ec713 10020c10     BumpBar.obj
 0002:00000c20       __GUID_1c2056cc_5ef4_101b_8bc8_00aa003e3b29 10020c20     BumpBar.obj
 0002:00000c30       ??_C@_1EA@NHKLICFA@?$AAH?$AAK?$AAC?$AAU?$AA?$AN?$AA?6?$AA?$HL?$AA?7?$AAS?$AAo?$AAf?$AAt?$AAw?$AAa?$AAr@ 10020c30     BumpBar.obj
 0002:00000c70       ??_C@_1BE@LJOLIMEM@?$AA?$AN?$AA?6?$AA?7?$AA?$HN?$AA?$AN?$AA?6?$AA?$HN?$AA?$AN?$AA?6@ 10020c70     BumpBar.obj
 0002:00000c84       __GUID_00000112_0000_0000_c000_000000000046 10020c84     BumpBar.obj
 0002:00000c94       ??_C@_1O@MNLDABAF@?$AAM?$AAo?$AAd?$AAu?$AAl?$AAe@ 10020c94     BumpBar.obj
 0002:00000ca4       ??_C@_1BG@JBACFMF@?$AAM?$AAo?$AAd?$AAu?$AAl?$AAe?$AA_?$AAR?$AAa?$AAw@ 10020ca4     BumpBar.obj
 0002:00000cbc       ??_C@_1BC@KAILKFFG@?$AAR?$AAE?$AAG?$AAI?$AAS?$AAT?$AAR?$AAY@ 10020cbc     BumpBar.obj
 0002:00000cd0       __GUID_3af24292_0c96_11ce_a0cf_00aa00600ab8 10020cd0     BumpBar.obj
 0002:00000ce0       __GUID_00000127_0000_0000_c000_000000000046 10020ce0     BumpBar.obj
 0002:00000cf0       __GUID_0000010d_0000_0000_c000_000000000046 10020cf0     BumpBar.obj
 0002:00000d00       ??_C@_1M@PPPPCDEP@?$AAA?$AAP?$AAP?$AAI?$AAD@ 10020d00     BumpBar.obj
 0002:00000d0c       ??_7?$CComContainedObject@VCOPOSBumpBar@@@ATL@@6B?$IDispatchImpl@UIOPOSBumpBar@@$1?IID_IOPOSBumpBar@@3U_GUID@@B$1?LIBID_OposBumpBar_CCO@@3U3@B$00$0A@VCComTypeInfoHolder@ATL@@@1@@ 10020d0c     BumpBar.obj
 0002:00000e40       ??_7?$CComContainedObject@VCOPOSBumpBar@@@ATL@@6BCComControlBase@1@@ 10020e40     BumpBar.obj
 0002:00000e54       ??_7?$CComContainedObject@VCOPOSBumpBar@@@ATL@@6B?$CWindowImpl@VCOPOSBumpBar@@VCWindow@ATL@@V?$CWinTraits@$0FGAAAAAA@$0A@@3@@1@@ 10020e54     BumpBar.obj
 0002:00000e64       ??_7?$CComContainedObject@VCOPOSBumpBar@@@ATL@@6B?$IPersistStreamInitImpl@VCOPOSBumpBar@@@1@@ 10020e64     BumpBar.obj
 0002:00000e88       ??_7?$CComContainedObject@VCOPOSBumpBar@@@ATL@@6B?$IOleControlImpl@VCOPOSBumpBar@@@1@@ 10020e88     BumpBar.obj
 0002:00000ea4       ??_7?$CComContainedObject@VCOPOSBumpBar@@@ATL@@6B?$IOleObjectImpl@VCOPOSBumpBar@@@1@@ 10020ea4     BumpBar.obj
 0002:00000f04       ??_7?$CComContainedObject@VCOPOSBumpBar@@@ATL@@6B?$IOleInPlaceActiveObjectImpl@VCOPOSBumpBar@@@1@@ 10020f04     BumpBar.obj
 0002:00000f2c       ??_7?$CComContainedObject@VCOPOSBumpBar@@@ATL@@6B?$IViewObjectExImpl@VCOPOSBumpBar@@@1@@ 10020f2c     BumpBar.obj
 0002:00000f68       ??_7?$CComContainedObject@VCOPOSBumpBar@@@ATL@@6B?$IOleInPlaceObjectWindowlessImpl@VCOPOSBumpBar@@@1@@ 10020f68     BumpBar.obj
 0002:00000f94       ??_7?$CComContainedObject@VCOPOSBumpBar@@@ATL@@6B?$IConnectionPointContainerImpl@VCOPOSBumpBar@@@1@@ 10020f94     BumpBar.obj
 0002:00000fa8       ??_7?$CComContainedObject@VCOPOSBumpBar@@@ATL@@6B?$IPersistStorageImpl@VCOPOSBumpBar@@@1@@ 10020fa8     BumpBar.obj
 0002:00000fd0       ??_7?$CComContainedObject@VCOPOSBumpBar@@@ATL@@6B?$ISpecifyPropertyPagesImpl@VCOPOSBumpBar@@@1@@ 10020fd0     BumpBar.obj
 0002:00000fe0       ??_7?$CComContainedObject@VCOPOSBumpBar@@@ATL@@6B?$IQuickActivateImpl@VCOPOSBumpBar@@@1@@ 10020fe0     BumpBar.obj
 0002:00000ff8       ??_7?$CComContainedObject@VCOPOSBumpBar@@@ATL@@6B?$IDataObjectImpl@VCOPOSBumpBar@@@1@@ 10020ff8     BumpBar.obj
 0002:00001028       ??_7?$CComContainedObject@VCOPOSBumpBar@@@ATL@@6B?$IProvideClassInfo2Impl@$1?CLSID_OPOSBumpBar@@3U_GUID@@B$1?DIID__IOPOSBumpBarEvents@@3U2@B$1?LIBID_OposBumpBar_CCO@@3U2@B$00$0A@VCComTypeInfoHolder@ATL@@@1@@ 10021028     BumpBar.obj
 0002:0000103c       ??_7?$CComContainedObject@VCOPOSBumpBar@@@ATL@@6B?$IObjectSafetyImpl@VCOPOSBumpBar@@$02@1@@ 1002103c     BumpBar.obj
 0002:00001054       ??_7?$CComContainedObject@VCOPOSBumpBar@@@ATL@@6B?$IPropertyNotifySinkCP@VCOPOSBumpBar@@VCComDynamicUnkArray@ATL@@@1@@ 10021054     BumpBar.obj
 0002:00001074       ??_7?$CComContainedObject@VCOPOSBumpBar@@@ATL@@6B?$CProxy_IOPOSEvents@VCOPOSBumpBar@@@@@ 10021074     BumpBar.obj
 0002:00001094       ??_7?$CComAggObject@VCOPOSBumpBar@@@ATL@@6B@ 10021094     BumpBar.obj
 0002:000010a4       ??_7?$CComObject@VCOPOSBumpBar@@@ATL@@6B?$IDispatchImpl@UIOPOSBumpBar@@$1?IID_IOPOSBumpBar@@3U_GUID@@B$1?LIBID_OposBumpBar_CCO@@3U3@B$00$0A@VCComTypeInfoHolder@ATL@@@1@@ 100210a4     BumpBar.obj
 0002:000011d8       ??_7?$CComObject@VCOPOSBumpBar@@@ATL@@6BCComControlBase@1@@ 100211d8     BumpBar.obj
 0002:000011ec       ??_7?$CComObject@VCOPOSBumpBar@@@ATL@@6B?$CWindowImpl@VCOPOSBumpBar@@VCWindow@ATL@@V?$CWinTraits@$0FGAAAAAA@$0A@@3@@1@@ 100211ec     BumpBar.obj
 0002:000011fc       ??_7?$CComObject@VCOPOSBumpBar@@@ATL@@6B?$IPersistStreamInitImpl@VCOPOSBumpBar@@@1@@ 100211fc     BumpBar.obj
 0002:00001220       ??_7?$CComObject@VCOPOSBumpBar@@@ATL@@6B?$IOleControlImpl@VCOPOSBumpBar@@@1@@ 10021220     BumpBar.obj
 0002:0000123c       ??_7?$CComObject@VCOPOSBumpBar@@@ATL@@6B?$IOleObjectImpl@VCOPOSBumpBar@@@1@@ 1002123c     BumpBar.obj
 0002:0000129c       ??_7?$CComObject@VCOPOSBumpBar@@@ATL@@6B?$IOleInPlaceActiveObjectImpl@VCOPOSBumpBar@@@1@@ 1002129c     BumpBar.obj
 0002:000012c4       ??_7?$CComObject@VCOPOSBumpBar@@@ATL@@6B?$IViewObjectExImpl@VCOPOSBumpBar@@@1@@ 100212c4     BumpBar.obj
 0002:00001300       ??_7?$CComObject@VCOPOSBumpBar@@@ATL@@6B?$IOleInPlaceObjectWindowlessImpl@VCOPOSBumpBar@@@1@@ 10021300     BumpBar.obj
 0002:0000132c       ??_7?$CComObject@VCOPOSBumpBar@@@ATL@@6B?$IConnectionPointContainerImpl@VCOPOSBumpBar@@@1@@ 1002132c     BumpBar.obj
 0002:00001340       ??_7?$CComObject@VCOPOSBumpBar@@@ATL@@6B?$IPersistStorageImpl@VCOPOSBumpBar@@@1@@ 10021340     BumpBar.obj
 0002:00001368       ??_7?$CComObject@VCOPOSBumpBar@@@ATL@@6B?$ISpecifyPropertyPagesImpl@VCOPOSBumpBar@@@1@@ 10021368     BumpBar.obj
 0002:00001378       ??_7?$CComObject@VCOPOSBumpBar@@@ATL@@6B?$IQuickActivateImpl@VCOPOSBumpBar@@@1@@ 10021378     BumpBar.obj
 0002:00001390       ??_7?$CComObject@VCOPOSBumpBar@@@ATL@@6B?$IDataObjectImpl@VCOPOSBumpBar@@@1@@ 10021390     BumpBar.obj
 0002:000013c0       ??_7?$CComObject@VCOPOSBumpBar@@@ATL@@6B?$IProvideClassInfo2Impl@$1?CLSID_OPOSBumpBar@@3U_GUID@@B$1?DIID__IOPOSBumpBarEvents@@3U2@B$1?LIBID_OposBumpBar_CCO@@3U2@B$00$0A@VCComTypeInfoHolder@ATL@@@1@@ 100213c0     BumpBar.obj
 0002:000013d4       ??_7?$CComObject@VCOPOSBumpBar@@@ATL@@6B?$IObjectSafetyImpl@VCOPOSBumpBar@@$02@1@@ 100213d4     BumpBar.obj
 0002:000013ec       ??_7?$CComObject@VCOPOSBumpBar@@@ATL@@6B?$IPropertyNotifySinkCP@VCOPOSBumpBar@@VCComDynamicUnkArray@ATL@@@1@@ 100213ec     BumpBar.obj
 0002:0000140c       ??_7?$CComObject@VCOPOSBumpBar@@@ATL@@6B?$CProxy_IOPOSEvents@VCOPOSBumpBar@@@@@ 1002140c     BumpBar.obj
 0002:0000142c       ??_C@_1O@GBFKGNEO@?$AAA?$AAT?$AAL?$AA?3?$AA?$CF?$AAp@ 1002142c     BumpBar.obj
 0002:0000143c       __GUID_b196b284_bab4_101a_b69c_00aa00341d07 1002143c     BumpBar.obj
 0002:0000144c       ??_C@_1BA@PICGEGJB@?$AAD?$AAI?$AAS?$AAP?$AAL?$AAA?$AAY@ 1002144c     BumpBar.obj
 0002:0000145c       __GUID_9bfbbc02_eff1_101a_84ed_00aa00341d07 1002145c     BumpBar.obj
 0002:0000146c       ?_entries@?1??_GetEntries@?$CComEnum@UIEnumConnectionPoints@@$1?_GUID_b196b285_bab4_101a_b69c_00aa00341d07@@3U__s_GUID@@BPAUIConnectionPoint@@V?$_CopyInterface@UIConnectionPoint@@@ATL@@VCComSingleThreadModel@6@@ATL@@SGPBU_ATL_INTMAP_ENTRY@3@XZ@4QBU43@B 1002146c     BumpBar.obj
 0002:00001484       ??_C@_0BG@EKFFMJIO@RegOpenKeyTransactedW@ 10021484     BumpBar.obj
 0002:0000149c       ??_C@_0BI@HAKLOOGP@RegDeleteKeyTransactedW@ 1002149c     BumpBar.obj
 0002:000014b4       ??_C@_0BA@LILAPHGE@RegDeleteKeyExW@ 100214b4     BumpBar.obj
 0002:000014c4       ??_C@_19ILOCMLCJ@?$AA?4?$AAt?$AAl?$AAb@ 100214c4     BumpBar.obj
 0002:000014d0       __GUID_0002e012_0000_0000_c000_000000000046 100214d0     BumpBar.obj
 0002:000014e0       ??_C@_1O@FHBGLCIO@?$AAC?$AAL?$AAS?$AAI?$AAD?$AA?2@ 100214e0     BumpBar.obj
 0002:000014f0       ??_C@_1CK@IFBKBFAA@?$AA?2?$AAR?$AAe?$AAq?$AAu?$AAi?$AAr?$AAe?$AAd?$AA?5?$AAC?$AAa?$AAt?$AAe?$AAg@ 100214f0     BumpBar.obj
 0002:0000151c       ??_C@_1DA@BIHALFED@?$AA?2?$AAI?$AAm?$AAp?$AAl?$AAe?$AAm?$AAe?$AAn?$AAt?$AAe?$AAd?$AA?5?$AAC?$AAa@ 1002151c     BumpBar.obj
 0002:0000154c       ??_C@_1BK@EDKOLFBJ@?$AAO?$AAL?$AAE?$AAA?$AAU?$AAT?$AA3?$AA2?$AA?4?$AAD?$AAL?$AAL@ 1002154c     BumpBar.obj
 0002:00001568       ??_C@_0BJ@CNLFOMHB@UnRegisterTypeLibForUser@ 10021568     BumpBar.obj
 0002:00001584       ??_C@_0BH@LBOMMKPJ@RegisterTypeLibForUser@ 10021584     BumpBar.obj
 0002:0000159c       ??_C@_0P@MMNMMLGK@COFreezeEvents@ 1002159c     BumpBarImpl.obj
 0002:000015ac       ??_C@_0BC@OGCGGIMP@GetPropertyNumber@ 100215ac     BumpBarImpl.obj
 0002:000015c0       ??_C@_0BC@MDCNODNB@SetPropertyNumber@ 100215c0     BumpBarImpl.obj
 0002:000015d4       ??_C@_0BC@CFCCMIMD@GetPropertyString@ 100215d4     BumpBarImpl.obj
 0002:000015e8       ??_C@_0BC@CJEDNN@SetPropertyString@ 100215e8     BumpBarImpl.obj
 0002:000015fc       ??_C@_0M@LNPKKKDA@OpenService@ 100215fc     BumpBarImpl.obj
 0002:00001608       ??_C@_0M@PCMCHHMH@CheckHealth@ 10021608     BumpBarImpl.obj
 0002:00001614       ??_C@_0M@JGMIDNEK@ClaimDevice@ 10021614     BumpBarImpl.obj
 0002:00001620       ??_C@_0L@BNEIFEJC@ClearInput@ 10021620     BumpBarImpl.obj
 0002:0000162c       ??_C@_0M@JMBCPNGJ@ClearOutput@ 1002162c     BumpBarImpl.obj
 0002:00001638       ??_C@_0N@DDFIIBMP@CloseService@ 10021638     BumpBarImpl.obj
 0002:00001648       ??_C@_08EEIHICPC@DirectIO@ 10021648     BumpBarImpl.obj
 0002:00001654       ??_C@_0O@BCPMENMJ@ReleaseDevice@ 10021654     BumpBarImpl.obj
 0002:00001664       ??_C@_0N@OFCJPNJK@BumpBarSound@ 10021664     BumpBarImpl.obj
 0002:00001674       ??_C@_0BC@CHBPCIIJ@SetKeyTranslation@ 10021674     BumpBarImpl.obj
 0002:00001688       ??_C@_0BA@GFABKEEE@ResetStatistics@ 10021688     BumpBarImpl.obj
 0002:00001698       ??_C@_0BD@DPALHJGC@RetrieveStatistics@ 10021698     BumpBarImpl.obj
 0002:000016ac       ??_C@_0BB@KOHIKNFC@UpdateStatistics@ 100216ac     BumpBarImpl.obj
 0002:000016c0       ??_C@_0BH@PBKBNMGB@CompareFirmwareVersion@ 100216c0     BumpBarImpl.obj
 0002:000016d8       ??_C@_0P@FBPDPIPA@UpdateFirmware@ 100216d8     BumpBarImpl.obj
 0002:000016e8       ??_7?$CProxy_IOPOSEvents@VCOPOSBumpBar@@@@6B@ 100216e8     BumpBarImpl.obj
 0002:00001708       ??_C@_1BA@IFHENID@?$AA?$FL?$AAE?$AAr?$AAr?$AAo?$AAr?$AA?$FN@ 10021708     BumpBarImpl.obj
 0002:00001718       ??_C@_0CK@CAJINFBF@SOFTWARE?2OLEforRetail?2ServiceOP@ 10021718     BumpBarImpl.obj
 0002:00001744       ??_C@_1M@IAIJHCCH@?$AAC?$AAl?$AAo?$AAs?$AAe@ 10021744     BumpBarImpl.obj
 0002:00001750       ??_C@_1M@PCPKGJAH@?$AAC?$AAl?$AAa?$AAi?$AAm@ 10021750     BumpBarImpl.obj
 0002:0000175c       ??_C@_1BA@NDFKIOCP@?$AAR?$AAe?$AAl?$AAe?$AAa?$AAs?$AAe@ 1002175c     BumpBarImpl.obj
 0002:0000176c       ??_C@_07GHIMMMBE@BumpBar@  1002176c     BumpBarImpl.obj
 0002:00001774       ??_C@_1BM@IJMNMBPK@?$AAG?$AAe?$AAt?$AAO?$AAp?$AAe?$AAn?$AAR?$AAe?$AAs?$AAu?$AAl?$AAt@ 10021774     BumpBarImpl.obj
 0002:00001790       _IID_IDispatch             10021790     uuid:oaidl_i.obj
 0002:000017a0       _IID_IPropertyNotifySink   100217a0     uuid:ocidl_i.obj
 0002:000017b0       _GUID_NULL                 100217b0     uuid:cguid_i.obj
 0002:000017c0       _CLSID_StdGlobalInterfaceTable 100217c0     uuid:cguid_i.obj
 0002:000017d0       _CLSID_StdComponentCategoriesMgr 100217d0     uuid:ieguids.obj
 0002:000017e0       _IID_IUnknown              100217e0     uuid:unknwn_i.obj
 0002:000017f0       ??_C@_1EC@JIJBPKFM@?$AAa?$AAp?$AAi?$AA?9?$AAm?$AAs?$AA?9?$AAw?$AAi?$AAn?$AA?9?$AAc?$AAo?$AAr?$AAe@ 100217f0     LIBCMT:thread_safe_statics.obj
 0002:00001834       ??_C@_1BK@MGMFAEKH@?$AAk?$AAe?$AAr?$AAn?$AAe?$AAl?$AA3?$AA2?$AA?4?$AAd?$AAl?$AAl@ 10021834     LIBCMT:thread_safe_statics.obj
 0002:00001850       ??_C@_0BJ@JEBJOJFJ@SleepConditionVariableCS@ 10021850     LIBCMT:thread_safe_statics.obj
 0002:0000186c       ??_C@_0BJ@PGPPEPCC@WakeAllConditionVariable@ 1002186c     LIBCMT:thread_safe_statics.obj
 0002:00001885       ?nothrow@std@@3Unothrow_t@1@B 10021885     LIBCMT:std_nothrow.obj
 0002:00001890       __pRawDllMain              10021890     LIBCMT:dll_dllmain.obj
 0002:00001890       __pDefaultRawDllMain       10021890     LIBCMT:dll_dllmain.obj
 0002:00001898       ??_7exception@std@@6B@     10021898     LIBCMT:throw_bad_alloc.obj
 0002:000018a0       ??_C@_0BC@EOODALEL@Unknown?5exception@ 100218a0     LIBCMT:throw_bad_alloc.obj
 0002:000018b8       ??_7bad_alloc@std@@6B@     100218b8     LIBCMT:throw_bad_alloc.obj
 0002:000018c0       ??_C@_0P@GHFPNOJB@bad?5allocation@ 100218c0     LIBCMT:throw_bad_alloc.obj
 0002:000018d4       ??_7bad_array_new_length@std@@6B@ 100218d4     LIBCMT:throw_bad_alloc.obj
 0002:000018dc       ??_C@_0BF@KINCDENJ@bad?5array?5new?5length@ 100218dc     LIBCMT:throw_bad_alloc.obj
 0002:000018f8       ??_7type_info@@6B@         100218f8     LIBCMT:std_type_info_static.obj
 0002:000018fc       _GUID_ATLVer110            100218fc     atls:atlbase.obj
 0002:00001910       ??_C@_1IC@ONKHOIDK@?$AAE?$AAR?$AAR?$AAO?$AAR?$AA?5?$AA?3?$AA?5?$AAU?$AAn?$AAa?$AAb?$AAl?$AAe?$AA?5@ 10021910     atls:atlbase.obj
 0002:00001994       ??_C@_0N@FJEPLCIH@atlthunk?4dll@ 10021994     atls:atlthunk.obj
 0002:000019a4       ??_C@_0BG@GAKFHCBM@AtlThunk_AllocateData@ 100219a4     atls:atlthunk.obj
 0002:000019bc       ??_C@_0BC@JKONFIAH@AtlThunk_InitData@ 100219bc     atls:atlthunk.obj
 0002:000019d0       ??_C@_0BE@IAOEELAK@AtlThunk_DataToCode@ 100219d0     atls:atlthunk.obj
 0002:000019e4       ??_C@_0BC@GBGKAIPI@AtlThunk_FreeData@ 100219e4     atls:atlthunk.obj
 0002:000019f8       __pDestructExceptionObject 100219f8     libvcruntime:ehhelpers.obj
 0002:00001a00       ??_7bad_exception@std@@6B@ 10021a00     libvcruntime:frame.obj
 0002:00001a08       ??_C@_0O@DPKOEFFH@bad?5exception@ 10021a08     libvcruntime:frame.obj
 0002:00001da0       ??_C@_08EHJDFFNH@__based?$CI@ 10021da0     libvcruntime:undname.obj
 0002:00001dac       ??_C@_07KOLFKCDI@__cdecl@  10021dac     libvcruntime:undname.obj
 0002:00001db4       ??_C@_08GHMPAG@__pascal@   10021db4     libvcruntime:undname.obj
 0002:00001dc0       ??_C@_09IFJBGAPI@__stdcall@ 10021dc0     libvcruntime:undname.obj
 0002:00001dcc       ??_C@_0L@NPHFGOKO@__thiscall@ 10021dcc     libvcruntime:undname.obj
 0002:00001dd8       ??_C@_0L@JMKHOMEK@__fastcall@ 10021dd8     libvcruntime:undname.obj
 0002:00001de4       ??_C@_0N@BCKKPABJ@__vectorcall@ 10021de4     libvcruntime:undname.obj
 0002:00001df4       ??_C@_09HIJEGCPM@__clrcall@ 10021df4     libvcruntime:undname.obj
 0002:00001e00       ??_C@_06GHPCKEAG@__eabi@   10021e00     libvcruntime:undname.obj
 0002:00001e08       ??_C@_09IOPIDJLG@__swift_1@ 10021e08     libvcruntime:undname.obj
 0002:00001e14       ??_C@_09KFNFGKHF@__swift_2@ 10021e14     libvcruntime:undname.obj
 0002:00001e20       ??_C@_09LMMOFLDE@__swift_3@ 10021e20     libvcruntime:undname.obj
 0002:00001e2c       ??_C@_07JOMMBBKO@__ptr64@  10021e2c     libvcruntime:undname.obj
 0002:00001e34       ??_C@_0L@PILCLIHE@__restrict@ 10021e34     libvcruntime:undname.obj
 0002:00001e40       ??_C@_0M@GFIIJFMG@__unaligned@ 10021e40     libvcruntime:undname.obj
 0002:00001e4c       ??_C@_09DHDLOLLB@restrict?$CI@ 10021e4c     libvcruntime:undname.obj
 0002:00001e56       ??_C@_00CNPNBAHC@@         10021e56     libvcruntime:undname.obj
 0002:00001e58       ??_C@_04NIHEBCM@?5new@     10021e58     libvcruntime:undname.obj
 0002:00001e60       ??_C@_07FPCDHGMM@?5delete@ 10021e60     libvcruntime:undname.obj
 0002:00001e68       ??_C@_01NEMOKFLO@?$DN@     10021e68     libvcruntime:undname.obj
 0002:00001e6c       ??_C@_02GPIOPFAK@?$DO?$DO@ 10021e6c     libvcruntime:undname.obj
 0002:00001e70       ??_C@_02FODMEDOG@?$DM?$DM@ 10021e70     libvcruntime:undname.obj
 0002:00001e74       ??_C@_01DCLJPIOD@?$CB@     10021e74     libvcruntime:undname.obj
 0002:00001e78       ??_C@_02EGOFBIJA@?$DN?$DN@ 10021e78     libvcruntime:undname.obj
 0002:00001e7c       ??_C@_02FDNJECIE@?$CB?$DN@ 10021e7c     libvcruntime:undname.obj
 0002:00001e80       ??_C@_02GPECMEKF@?$FL?$FN@ 10021e80     libvcruntime:undname.obj
 0002:00001e84       ??_C@_08LHJFAFGD@operator@ 10021e84     libvcruntime:undname.obj
 0002:00001e90       ??_C@_02HBOOOICD@?9?$DO@   10021e90     libvcruntime:undname.obj
 0002:00001e94       ??_C@_01NBENCBCI@?$CK@     10021e94     libvcruntime:undname.obj
 0002:00001e98       ??_C@_02ECNGHCIF@?$CL?$CL@ 10021e98     libvcruntime:undname.obj
 0002:00001e9c       ??_C@_02BAABKJLB@?9?9@     10021e9c     libvcruntime:undname.obj
 0002:00001ea0       ??_C@_01JOAMLHOP@?9@       10021ea0     libvcruntime:undname.obj
 0002:00001ea4       ??_C@_01MIFGBAGJ@?$CL@     10021ea4     libvcruntime:undname.obj
 0002:00001ea8       ??_C@_01HNPIGOCE@?$CG@     10021ea8     libvcruntime:undname.obj
 0002:00001eac       ??_C@_03MNHNFDLC@?9?$DO?$CK@ 10021eac     libvcruntime:undname.obj
 0002:00001eb0       ??_C@_01KMDKNFGN@?1@       10021eb0     libvcruntime:undname.obj
 0002:00001eb4       ??_C@_01FGNFDNOH@?$CF@     10021eb4     libvcruntime:undname.obj
 0002:00001eb8       ??_C@_01MNNFJEPP@?$DM@     10021eb8     libvcruntime:undname.obj
 0002:00001ebc       ??_C@_02EHCHHCKH@?$DM?$DN@ 10021ebc     libvcruntime:undname.obj
 0002:00001ec0       ??_C@_01PPODPGHN@?$DO@     10021ec0     libvcruntime:undname.obj
 0002:00001ec4       ??_C@_02EEKDKGMJ@?$DO?$DN@ 10021ec4     libvcruntime:undname.obj
 0002:00001ec8       ??_C@_01IHBHIGKO@?0@       10021ec8     libvcruntime:undname.obj
 0002:00001ecc       ??_C@_02HCKGKOFO@?$CI?$CJ@ 10021ecc     libvcruntime:undname.obj
 0002:00001ed0       ??_C@_01PJKLJHI@?$HO@      10021ed0     libvcruntime:undname.obj
 0002:00001ed4       ??_C@_01JKBOJNNK@?$FO@     10021ed4     libvcruntime:undname.obj
 0002:00001ed8       ??_C@_01DNKMNLPK@?$HM@     10021ed8     libvcruntime:undname.obj
 0002:00001edc       ??_C@_02PPKAJPJL@?$CG?$CG@ 10021edc     libvcruntime:undname.obj
 0002:00001ee0       ??_C@_02NONPIBCD@?$HM?$HM@ 10021ee0     libvcruntime:undname.obj
 0002:00001ee4       ??_C@_02FPIMKNGF@?$CK?$DN@ 10021ee4     libvcruntime:undname.obj
 0002:00001ee8       ??_C@_02FOEOMHFC@?$CL?$DN@ 10021ee8     libvcruntime:undname.obj
 0002:00001eec       ??_C@_02FKMDLLOA@?9?$DN@   10021eec     libvcruntime:undname.obj
 0002:00001ef0       ??_C@_02FJEHGPIO@?1?$DN@   10021ef0     libvcruntime:undname.obj
 0002:00001ef4       ??_C@_02FENAOKFI@?$CF?$DN@ 10021ef4     libvcruntime:undname.obj
 0002:00001ef8       ??_C@_03IKFCCPFF@?$DO?$DO?$DN@ 10021ef8     libvcruntime:undname.obj
 0002:00001efc       ??_C@_03CDNPDDLA@?$DM?$DM?$DN@ 10021efc     libvcruntime:undname.obj
 0002:00001f00       ??_C@_02FGJGFEAB@?$CG?$DN@ 10021f00     libvcruntime:undname.obj
 0002:00001f04       ??_C@_02DHLNPPGH@?$HM?$DN@ 10021f04     libvcruntime:undname.obj
 0002:00001f08       ??_C@_02MHEGNOJ@?$FO?$DN@  10021f08     libvcruntime:undname.obj
 0002:00001f0c       ??_C@_09IFPLHPGF@?$GAvftable?8@ 10021f0c     libvcruntime:undname.obj
 0002:00001f18       ??_C@_09BLBHBJP@?$GAvbtable?8@ 10021f18     libvcruntime:undname.obj
 0002:00001f24       ??_C@_07FEEIOKP@?$GAvcall?8@ 10021f24     libvcruntime:undname.obj
 0002:00001f2c       ??_C@_08LLFFHHDJ@?$GAtypeof?8@ 10021f2c     libvcruntime:undname.obj
 0002:00001f38       ??_C@_0BF@KDPPACIK@?$GAlocal?5static?5guard?8@ 10021f38     libvcruntime:undname.obj
 0002:00001f50       ??_C@_08OBABFOLI@?$GAstring?8@ 10021f50     libvcruntime:undname.obj
 0002:00001f5c       ??_C@_0BD@JDLKDPAB@?$GAvbase?5destructor?8@ 10021f5c     libvcruntime:undname.obj
 0002:00001f70       ??_C@_0BN@DEGPLNFK@?$GAvector?5deleting?5destructor?8@ 10021f70     libvcruntime:undname.obj
 0002:00001f90       ??_C@_0BO@OBMKPJIG@?$GAdefault?5constructor?5closure?8@ 10021f90     libvcruntime:undname.obj
 0002:00001fb0       ??_C@_0BN@IMDCHIKM@?$GAscalar?5deleting?5destructor?8@ 10021fb0     libvcruntime:undname.obj
 0002:00001fd0       ??_C@_0BO@PFGOCPJJ@?$GAvector?5constructor?5iterator?8@ 10021fd0     libvcruntime:undname.obj
 0002:00001ff0       ??_C@_0BN@LFPFMEDL@?$GAvector?5destructor?5iterator?8@ 10021ff0     libvcruntime:undname.obj
 0002:00002010       ??_C@_0CE@IKBNEHA@?$GAvector?5vbase?5constructor?5itera@ 10022010     libvcruntime:undname.obj
 0002:00002034       ??_C@_0BL@NILFHHPC@?$GAvirtual?5displacement?5map?8@ 10022034     libvcruntime:undname.obj
 0002:00002050       ??_C@_0CB@JONCMFFK@?$GAeh?5vector?5constructor?5iterator@ 10022050     libvcruntime:undname.obj
 0002:00002074       ??_C@_0CA@GCEOPDGL@?$GAeh?5vector?5destructor?5iterator?8@ 10022074     libvcruntime:undname.obj
 0002:00002094       ??_C@_0CH@OOJPLCPH@?$GAeh?5vector?5vbase?5constructor?5it@ 10022094     libvcruntime:undname.obj
 0002:000020bc       ??_C@_0BL@LLKPOHJI@?$GAcopy?5constructor?5closure?8@ 100220bc     libvcruntime:undname.obj
 0002:000020d8       ??_C@_0BA@KBCDOMBN@?$GAudt?5returning?8@ 100220d8     libvcruntime:undname.obj
 0002:000020e8       ??_C@_03KLGMFNMG@?$GAEH@   100220e8     libvcruntime:undname.obj
 0002:000020ec       ??_C@_05KHLCHHI@?$GARTTI@  100220ec     libvcruntime:undname.obj
 0002:000020f4       ??_C@_0BA@KKLDJDLB@?$GAlocal?5vftable?8@ 100220f4     libvcruntime:undname.obj
 0002:00002104       ??_C@_0CE@IIHCMGGL@?$GAlocal?5vftable?5constructor?5clos@ 10022104     libvcruntime:undname.obj
 0002:00002128       ??_C@_06FHBGPFGH@?5new?$FL?$FN@ 10022128     libvcruntime:undname.obj
 0002:00002130       ??_C@_09LBNFPBCA@?5delete?$FL?$FN@ 10022130     libvcruntime:undname.obj
 0002:0000213c       ??_C@_0P@HJKNJFNN@?$GAomni?5callsig?8@ 1002213c     libvcruntime:undname.obj
 0002:0000214c       ??_C@_0BL@CNOONJFP@?$GAplacement?5delete?5closure?8@ 1002214c     libvcruntime:undname.obj
 0002:00002168       ??_C@_0BN@CKNJLHMB@?$GAplacement?5delete?$FL?$FN?5closure?8@ 10022168     libvcruntime:undname.obj
 0002:00002188       ??_C@_0CG@CFDHKGGD@?$GAmanaged?5vector?5constructor?5ite@ 10022188     libvcruntime:undname.obj
 0002:000021b0       ??_C@_0CF@IMGKMJNO@?$GAmanaged?5vector?5destructor?5iter@ 100221b0     libvcruntime:undname.obj
 0002:000021d8       ??_C@_0CG@HLDDJMAG@?$GAeh?5vector?5copy?5constructor?5ite@ 100221d8     libvcruntime:undname.obj
 0002:00002200       ??_C@_0CM@FCBBDIGB@?$GAeh?5vector?5vbase?5copy?5construct@ 10022200     libvcruntime:undname.obj
 0002:0000222c       ??_C@_0BL@CLIPGLGB@?$GAdynamic?5initializer?5for?5?8@ 1002222c     libvcruntime:undname.obj
 0002:00002248       ??_C@_0CB@PDBIFEP@?$GAdynamic?5atexit?5destructor?5for?5@ 10022248     libvcruntime:undname.obj
 0002:0000226c       ??_C@_0CD@CGAJBKEJ@?$GAvector?5copy?5constructor?5iterat@ 1002226c     libvcruntime:undname.obj
 0002:00002290       ??_C@_0CJ@GJELGAMM@?$GAvector?5vbase?5copy?5constructor?5@ 10022290     libvcruntime:undname.obj
 0002:000022bc       ??_C@_0CL@FGIJHLCE@?$GAmanaged?5vector?5copy?5constructo@ 100222bc     libvcruntime:undname.obj
 0002:000022e8       ??_C@_0BM@PMGGMLDN@?$GAlocal?5static?5thread?5guard?8@ 100222e8     libvcruntime:undname.obj
 0002:00002304       ??_C@_0N@BDNMDMOL@operator?5?$CC?$CC?5@ 10022304     libvcruntime:undname.obj
 0002:00002314       ??_C@_0BC@GGEBGALA@operator?5co_await@ 10022314     libvcruntime:undname.obj
 0002:00002328       ??_C@_0M@GAAIMMOH@operator?$DM?$DN?$DO@ 10022328     libvcruntime:undname.obj
 0002:00002334       ??_C@_0BC@DAFEJGAK@?5Type?5Descriptor?8@ 10022334     libvcruntime:undname.obj
 0002:00002348       ??_C@_0BM@LDKODKLH@?5Base?5Class?5Descriptor?5at?5?$CI@ 10022348     libvcruntime:undname.obj
 0002:00002364       ??_C@_0BD@LGICGFMM@?5Base?5Class?5Array?8@ 10022364     libvcruntime:undname.obj
 0002:00002378       ??_C@_0BN@MECKDCOJ@?5Class?5Hierarchy?5Descriptor?8@ 10022378     libvcruntime:undname.obj
 0002:00002398       ??_C@_0BK@CFCOFLF@?5Complete?5Object?5Locator?8@ 10022398     libvcruntime:undname.obj
 0002:000023b4       ??_C@_0BG@JNJLAMPM@?$GAanonymous?5namespace?8@ 100223b4     libvcruntime:undname.obj
 0002:000023d8       ??_C@_1DM@KHCHBNEB@?$AAa?$AAp?$AAi?$AA?9?$AAm?$AAs?$AA?9?$AAw?$AAi?$AAn?$AA?9?$AAc?$AAo?$AAr?$AAe@ 100223d8     libvcruntime:winapi_downlevel.obj
 0002:00002414       ??_C@_1DK@LPPGFMPP@?$AAa?$AAp?$AAi?$AA?9?$AAm?$AAs?$AA?9?$AAw?$AAi?$AAn?$AA?9?$AAc?$AAo?$AAr?$AAe@ 10022414     libvcruntime:winapi_downlevel.obj
 0002:00002450       ??_C@_1BC@GDMECMAK@?$AAk?$AAe?$AAr?$AAn?$AAe?$AAl?$AA3?$AA2@ 10022450     libvcruntime:winapi_downlevel.obj
 0002:00002464       ??_C@_1BA@PFFKHIOG@?$AAa?$AAp?$AAi?$AA?9?$AAm?$AAs?$AA?9@ 10022464     libvcruntime:winapi_downlevel.obj
 0002:0000247c       ??_C@_08KNHFBNJ@FlsAlloc@  1002247c     libvcruntime:winapi_downlevel.obj
 0002:00002490       ??_C@_07PEJMOBNF@FlsFree@  10022490     libvcruntime:winapi_downlevel.obj
 0002:000024a0       ??_C@_0M@GDNOONDI@FlsGetValue@ 100224a0     libvcruntime:winapi_downlevel.obj
 0002:000024b4       ??_C@_0M@JCPCPOEF@FlsSetValue@ 100224b4     libvcruntime:winapi_downlevel.obj
 0002:000024c8       ??_C@_0BM@HCFOFFN@InitializeCriticalSectionEx@ 100224c8     libvcruntime:winapi_downlevel.obj
 0002:00002650       ?format_validation_lookup_table_spectre@__crt_stdio_output@@3V?$spectre_mitigated_lookup_table@Ustate_transition_pair@__crt_stdio_output@@$0IA@@1@B 10022650     libucrt:output.obj
 0002:00002750       ??_C@_1O@CEDCILHN@?$AA?$CI?$AAn?$AAu?$AAl?$AAl?$AA?$CJ@ 10022750     libucrt:output.obj
 0002:00002760       ??_C@_06OJHGLDPL@?$CInull?$CJ@ 10022760     libucrt:output.obj
 0002:00002768       ___acrt_exception_action_table 10022768     libucrt:exception_filter.obj
 0002:000027f8       ___acrt_signal_action_table_count 100227f8     libucrt:exception_filter.obj
 0002:000027fc       ___acrt_signal_action_first_fpe_index 100227fc     libucrt:exception_filter.obj
 0002:00002800       ___acrt_signal_action_fpe_count 10022800     libucrt:exception_filter.obj
 0002:00002804       ??_C@_1BI@BGOHAHKC@?$AAm?$AAs?$AAc?$AAo?$AAr?$AAe?$AAe?$AA?4?$AAd?$AAl?$AAl@ 10022804     libucrt:exit.obj
 0002:0000281c       ??_C@_0P@MIGLKIOC@CorExitProcess@ 1002281c     libucrt:exit.obj
 0002:000028b0       ___lc_time_c               100228b0     libucrt:nlsdata.obj
 0002:00002a14       ??_C@_03KOEHGMDN@Sun@      10022a14     libucrt:nlsdata.obj
 0002:00002a18       ??_C@_03PDAGKDH@Mon@       10022a18     libucrt:nlsdata.obj
 0002:00002a1c       ??_C@_03NAGEINEP@Tue@      10022a1c     libucrt:nlsdata.obj
 0002:00002a20       ??_C@_03MHOMLAJA@Wed@      10022a20     libucrt:nlsdata.obj
 0002:00002a24       ??_C@_03IOFIKPDN@Thu@      10022a24     libucrt:nlsdata.obj
 0002:00002a28       ??_C@_03IDIOELNC@Fri@      10022a28     libucrt:nlsdata.obj
 0002:00002a2c       ??_C@_03FEFJNEK@Sat@       10022a2c     libucrt:nlsdata.obj
 0002:00002a30       ??_C@_06OOPIFAJ@Sunday@    10022a30     libucrt:nlsdata.obj
 0002:00002a38       ??_C@_06JLEDEDGH@Monday@   10022a38     libucrt:nlsdata.obj
 0002:00002a40       ??_C@_07BAAGCFCM@Tuesday@  10022a40     libucrt:nlsdata.obj
 0002:00002a48       ??_C@_09DLIGFAKA@Wednesday@ 10022a48     libucrt:nlsdata.obj
 0002:00002a54       ??_C@_08HACCIKIA@Thursday@ 10022a54     libucrt:nlsdata.obj
 0002:00002a60       ??_C@_06JECMNKMI@Friday@   10022a60     libucrt:nlsdata.obj
 0002:00002a68       ??_C@_08INBOOONO@Saturday@ 10022a68     libucrt:nlsdata.obj
 0002:00002a74       ??_C@_03JIHJHPIE@Jan@      10022a74     libucrt:nlsdata.obj
 0002:00002a78       ??_C@_03HJBDCHOM@Feb@      10022a78     libucrt:nlsdata.obj
 0002:00002a7c       ??_C@_03ODNJBKGA@Mar@      10022a7c     libucrt:nlsdata.obj
 0002:00002a80       ??_C@_03LEOLGMJP@Apr@      10022a80     libucrt:nlsdata.obj
 0002:00002a84       ??_C@_03CNMDKL@May@        10022a84     libucrt:nlsdata.obj
 0002:00002a88       ??_C@_03IDFGHECI@Jun@      10022a88     libucrt:nlsdata.obj
 0002:00002a8c       ??_C@_03LBGABGKK@Jul@      10022a8c     libucrt:nlsdata.obj
 0002:00002a90       ??_C@_03IFJFEIGA@Aug@      10022a90     libucrt:nlsdata.obj
 0002:00002a94       ??_C@_03GGCAPAJC@Sep@      10022a94     libucrt:nlsdata.obj
 0002:00002a98       ??_C@_03BMAOKBAD@Oct@      10022a98     libucrt:nlsdata.obj
 0002:00002a9c       ??_C@_03JPJOFNIA@Nov@      10022a9c     libucrt:nlsdata.obj
 0002:00002aa0       ??_C@_03MKABNOCG@Dec@      10022aa0     libucrt:nlsdata.obj
 0002:00002aa4       ??_C@_07CGJPFGJA@January@  10022aa4     libucrt:nlsdata.obj
 0002:00002aac       ??_C@_08GNJGEPFN@February@ 10022aac     libucrt:nlsdata.obj
 0002:00002ab8       ??_C@_05HPCKOFNC@March@    10022ab8     libucrt:nlsdata.obj
 0002:00002ac0       ??_C@_05DMJDNLEJ@April@    10022ac0     libucrt:nlsdata.obj
 0002:00002ac8       ??_C@_04CNLMGBGM@June@     10022ac8     libucrt:nlsdata.obj
 0002:00002ad0       ??_C@_04MIEPOIFP@July@     10022ad0     libucrt:nlsdata.obj
 0002:00002ad8       ??_C@_06LBBHFDDG@August@   10022ad8     libucrt:nlsdata.obj
 0002:00002ae0       ??_C@_09BHHEALKD@September@ 10022ae0     libucrt:nlsdata.obj
 0002:00002aec       ??_C@_07JJNFCEND@October@  10022aec     libucrt:nlsdata.obj
 0002:00002af4       ??_C@_08HCHEGEOA@November@ 10022af4     libucrt:nlsdata.obj
 0002:00002b00       ??_C@_08EDHMEBNP@December@ 10022b00     libucrt:nlsdata.obj
 0002:00002b0c       ??_C@_02DEDBPAFC@AM@       10022b0c     libucrt:nlsdata.obj
 0002:00002b10       ??_C@_02CJNFDJBF@PM@       10022b10     libucrt:nlsdata.obj
 0002:00002b14       ??_C@_08BPBNCDIB@MM?1dd?1yy@ 10022b14     libucrt:nlsdata.obj
 0002:00002b20       ??_C@_0BE@CKGJFCPC@dddd?0?5MMMM?5dd?0?5yyyy@ 10022b20     libucrt:nlsdata.obj
 0002:00002b34       ??_C@_08JCCMCCIL@HH?3mm?3ss@ 10022b34     libucrt:nlsdata.obj
 0002:00002b40       ??_C@_17MBGCMIPB@?$AAS?$AAu?$AAn@ 10022b40     libucrt:nlsdata.obj
 0002:00002b48       ??_C@_17KBOMKBF@?$AAM?$AAo?$AAn@ 10022b48     libucrt:nlsdata.obj
 0002:00002b50       ??_C@_17BMKGEGOJ@?$AAT?$AAu?$AAe@ 10022b50     libucrt:nlsdata.obj
 0002:00002b58       ??_C@_17CJEDCEPE@?$AAW?$AAe?$AAd@ 10022b58     libucrt:nlsdata.obj
 0002:00002b60       ??_C@_17PDPHAADD@?$AAT?$AAh?$AAu@ 10022b60     libucrt:nlsdata.obj
 0002:00002b68       ??_C@_17HFOLPPLP@?$AAF?$AAr?$AAi@ 10022b68     libucrt:nlsdata.obj
 0002:00002b70       ??_C@_17GGIBDPIH@?$AAS?$AAa?$AAt@ 10022b70     libucrt:nlsdata.obj
 0002:00002b78       ??_C@_1O@IHNHDHPB@?$AAS?$AAu?$AAn?$AAd?$AAa?$AAy@ 10022b78     libucrt:nlsdata.obj
 0002:00002b88       ??_C@_1O@MMNBFLIA@?$AAM?$AAo?$AAn?$AAd?$AAa?$AAy@ 10022b88     libucrt:nlsdata.obj
 0002:00002b98       ??_C@_1BA@ENFBFFEK@?$AAT?$AAu?$AAe?$AAs?$AAd?$AAa?$AAy@ 10022b98     libucrt:nlsdata.obj
 0002:00002ba8       ??_C@_1BE@EBOGMDOH@?$AAW?$AAe?$AAd?$AAn?$AAe?$AAs?$AAd?$AAa?$AAy@ 10022ba8     libucrt:nlsdata.obj
 0002:00002bbc       ??_C@_1BC@HHMNLIHE@?$AAT?$AAh?$AAu?$AAr?$AAs?$AAd?$AAa?$AAy@ 10022bbc     libucrt:nlsdata.obj
 0002:00002bd0       ??_C@_1O@PDICJHAG@?$AAF?$AAr?$AAi?$AAd?$AAa?$AAy@ 10022bd0     libucrt:nlsdata.obj
 0002:00002be0       ??_C@_1BC@ENMNNPAJ@?$AAS?$AAa?$AAt?$AAu?$AAr?$AAd?$AAa?$AAy@ 10022be0     libucrt:nlsdata.obj
 0002:00002bf4       ??_C@_17DKNBKCHM@?$AAJ?$AAa?$AAn@ 10022bf4     libucrt:nlsdata.obj
 0002:00002bfc       ??_C@_17LMDJEKJN@?$AAF?$AAe?$AAb@ 10022bfc     libucrt:nlsdata.obj
 0002:00002c04       ??_C@_17CKNLEDEC@?$AAM?$AAa?$AAr@ 10022c04     libucrt:nlsdata.obj
 0002:00002c0c       ??_C@_17LFPOIHDD@?$AAA?$AAp?$AAr@ 10022c0c     libucrt:nlsdata.obj
 0002:00002c14       ??_C@_17PNNKMEED@?$AAM?$AAa?$AAy@ 10022c14     libucrt:nlsdata.obj
 0002:00002c1c       ??_C@_17KCJGOCPB@?$AAJ?$AAu?$AAn@ 10022c1c     libucrt:nlsdata.obj
 0002:00002c24       ??_C@_17IJPCKHK@?$AAJ?$AAu?$AAl@ 10022c24     libucrt:nlsdata.obj
 0002:00002c2c       ??_C@_17ICPELBCN@?$AAA?$AAu?$AAg@ 10022c2c     libucrt:nlsdata.obj
 0002:00002c34       ??_C@_17HCHCOKMG@?$AAS?$AAe?$AAp@ 10022c34     libucrt:nlsdata.obj
 0002:00002c3c       ??_C@_17FNLKOI@?$AAO?$AAc?$AAt@ 10022c3c     libucrt:nlsdata.obj
 0002:00002c44       ??_C@_17BBDMLCIG@?$AAN?$AAo?$AAv@ 10022c44     libucrt:nlsdata.obj
 0002:00002c4c       ??_C@_17EGKACKIF@?$AAD?$AAe?$AAc@ 10022c4c     libucrt:nlsdata.obj
 0002:00002c54       ??_C@_1BA@EFMEIEBA@?$AAJ?$AAa?$AAn?$AAu?$AAa?$AAr?$AAy@ 10022c54     libucrt:nlsdata.obj
 0002:00002c64       ??_C@_1BC@JGDDFFAM@?$AAF?$AAe?$AAb?$AAr?$AAu?$AAa?$AAr?$AAy@ 10022c64     libucrt:nlsdata.obj
 0002:00002c78       ??_C@_1M@IKEENEDF@?$AAM?$AAa?$AAr?$AAc?$AAh@ 10022c78     libucrt:nlsdata.obj
 0002:00002c84       ??_C@_1M@GJNLMHFD@?$AAA?$AAp?$AAr?$AAi?$AAl@ 10022c84     libucrt:nlsdata.obj
 0002:00002c90       ??_C@_19EPFLPGAP@?$AAJ?$AAu?$AAn?$AAe@ 10022c90     libucrt:nlsdata.obj
 0002:00002c9c       ??_C@_19BIFMLPCD@?$AAJ?$AAu?$AAl?$AAy@ 10022c9c     libucrt:nlsdata.obj
 0002:00002ca8       ??_C@_1O@PAHLKOAC@?$AAA?$AAu?$AAg?$AAu?$AAs?$AAt@ 10022ca8     libucrt:nlsdata.obj
 0002:00002cb8       ??_C@_1BE@DKAAMBJL@?$AAS?$AAe?$AAp?$AAt?$AAe?$AAm?$AAb?$AAe?$AAr@ 10022cb8     libucrt:nlsdata.obj
 0002:00002ccc       ??_C@_1BA@EPANDLNG@?$AAO?$AAc?$AAt?$AAo?$AAb?$AAe?$AAr@ 10022ccc     libucrt:nlsdata.obj
 0002:00002cdc       ??_C@_1BC@BGLIFPF@?$AAN?$AAo?$AAv?$AAe?$AAm?$AAb?$AAe?$AAr@ 10022cdc     libucrt:nlsdata.obj
 0002:00002cf0       ??_C@_1BC@FEMKIFH@?$AAD?$AAe?$AAc?$AAe?$AAm?$AAb?$AAe?$AAr@ 10022cf0     libucrt:nlsdata.obj
 0002:00002d04       ??_C@_15ODEHAHHF@?$AAA?$AAM@ 10022d04     libucrt:nlsdata.obj
 0002:00002d0c       ??_C@_15CLMNNGEL@?$AAP?$AAM@ 10022d0c     libucrt:nlsdata.obj
 0002:00002d14       ??_C@_1BC@IEBCMHCM@?$AAM?$AAM?$AA?1?$AAd?$AAd?$AA?1?$AAy?$AAy@ 10022d14     libucrt:nlsdata.obj
 0002:00002d28       ??_C@_1CI@KNAKOEBC@?$AAd?$AAd?$AAd?$AAd?$AA?0?$AA?5?$AAM?$AAM?$AAM?$AAM?$AA?5?$AAd?$AAd?$AA?0?$AA?5@ 10022d28     libucrt:nlsdata.obj
 0002:00002d50       ??_C@_1BC@GDGBMEMK@?$AAH?$AAH?$AA?3?$AAm?$AAm?$AA?3?$AAs?$AAs@ 10022d50     libucrt:nlsdata.obj
 0002:00002d64       ??_C@_1M@BMHNFIME@?$AAe?$AAn?$AA?9?$AAU?$AAS@ 10022d64     libucrt:nlsdata.obj
 0002:00002dc0       ??_C@_1EA@JGEFHKEI@?$AAa?$AAp?$AAi?$AA?9?$AAm?$AAs?$AA?9?$AAw?$AAi?$AAn?$AA?9?$AAc?$AAo?$AAr?$AAe@ 10022dc0     libucrt:winapi_thunks.obj
 0002:00002e00       ??_C@_1DI@IJCEHOCB@?$AAa?$AAp?$AAi?$AA?9?$AAm?$AAs?$AA?9?$AAw?$AAi?$AAn?$AA?9?$AAc?$AAo?$AAr?$AAe@ 10022e00     libucrt:winapi_thunks.obj
 0002:00002e38       ??_C@_1EI@MPIAOHOC@?$AAa?$AAp?$AAi?$AA?9?$AAm?$AAs?$AA?9?$AAw?$AAi?$AAn?$AA?9?$AAc?$AAo?$AAr?$AAe@ 10022e38     libucrt:winapi_thunks.obj
 0002:00002e80       ??_C@_1FK@FPHCKFIE@?$AAa?$AAp?$AAi?$AA?9?$AAm?$AAs?$AA?9?$AAw?$AAi?$AAn?$AA?9?$AAc?$AAo?$AAr?$AAe@ 10022e80     libucrt:winapi_thunks.obj
 0002:00002ee0       ??_C@_1EM@DILCGIIO@?$AAa?$AAp?$AAi?$AA?9?$AAm?$AAs?$AA?9?$AAw?$AAi?$AAn?$AA?9?$AAc?$AAo?$AAr?$AAe@ 10022ee0     libucrt:winapi_thunks.obj
 0002:00002f2c       ??_C@_1DM@LNCGDDPN@?$AAa?$AAp?$AAi?$AA?9?$AAm?$AAs?$AA?9?$AAw?$AAi?$AAn?$AA?9?$AAc?$AAo?$AAr?$AAe@ 10022f2c     libucrt:winapi_thunks.obj
 0002:00002f68       ??_C@_1DO@FPAPJEMD@?$AAa?$AAp?$AAi?$AA?9?$AAm?$AAs?$AA?9?$AAw?$AAi?$AAn?$AA?9?$AAc?$AAo?$AAr?$AAe@ 10022f68     libucrt:winapi_thunks.obj
 0002:00002fa8       ??_C@_1DK@NDHNAHIO@?$AAa?$AAp?$AAi?$AA?9?$AAm?$AAs?$AA?9?$AAw?$AAi?$AAn?$AA?9?$AAc?$AAo?$AAr?$AAe@ 10022fa8     libucrt:winapi_thunks.obj
 0002:00002fe4       ??_C@_1DM@KGHDGBCM@?$AAa?$AAp?$AAi?$AA?9?$AAm?$AAs?$AA?9?$AAw?$AAi?$AAn?$AA?9?$AAc?$AAo?$AAr?$AAe@ 10022fe4     libucrt:winapi_thunks.obj
 0002:00003020       ??_C@_1EO@IJIOEFOH@?$AAa?$AAp?$AAi?$AA?9?$AAm?$AAs?$AA?9?$AAw?$AAi?$AAn?$AA?9?$AAr?$AAt?$AAc?$AAo@ 10023020     libucrt:winapi_thunks.obj
 0002:00003070       ??_C@_1FG@HHGEKANL@?$AAa?$AAp?$AAi?$AA?9?$AAm?$AAs?$AA?9?$AAw?$AAi?$AAn?$AA?9?$AAs?$AAe?$AAc?$AAu@ 10023070     libucrt:winapi_thunks.obj
 0002:000030c8       ??_C@_1EG@DBIOJECG@?$AAe?$AAx?$AAt?$AA?9?$AAm?$AAs?$AA?9?$AAw?$AAi?$AAn?$AA?9?$AAn?$AAt?$AAu?$AAs@ 100230c8     libucrt:winapi_thunks.obj
 0002:00003110       ??_C@_1EO@FIHMJCLF@?$AAe?$AAx?$AAt?$AA?9?$AAm?$AAs?$AA?9?$AAw?$AAi?$AAn?$AA?9?$AAn?$AAt?$AAu?$AAs@ 10023110     libucrt:winapi_thunks.obj
 0002:00003160       ??_C@_1BC@DNHGCMLG@?$AAa?$AAd?$AAv?$AAa?$AAp?$AAi?$AA3?$AA2@ 10023160     libucrt:winapi_thunks.obj
 0002:00003174       ??_C@_1M@OAIMIKLP@?$AAn?$AAt?$AAd?$AAl?$AAl@ 10023174     libucrt:winapi_thunks.obj
 0002:00003180       ??_C@_1EG@DPGNFKGC@?$AAa?$AAp?$AAi?$AA?9?$AAm?$AAs?$AA?9?$AAw?$AAi?$AAn?$AA?9?$AAa?$AAp?$AAp?$AAm@ 10023180     libucrt:winapi_thunks.obj
 0002:000031c8       ??_C@_1O@BCCLBEOE@?$AAu?$AAs?$AAe?$AAr?$AA3?$AA2@ 100231c8     libucrt:winapi_thunks.obj
 0002:000031d8       ??_C@_1DM@BPJLHKCE@?$AAa?$AAp?$AAi?$AA?9?$AAm?$AAs?$AA?9?$AAw?$AAi?$AAn?$AA?9?$AAc?$AAo?$AAr?$AAe@ 100231d8     libucrt:winapi_thunks.obj
 0002:00003214       ??_C@_1BA@IAIFMGEF@?$AAe?$AAx?$AAt?$AA?9?$AAm?$AAs?$AA?9@ 10023214     libucrt:winapi_thunks.obj
 0002:00003228       ??_C@_0BA@FHFNEAED@AreFileApisANSI@ 10023228     libucrt:winapi_thunks.obj
 0002:00003248       ??_C@_0O@KKBNKAPF@LCMapStringEx@ 10023248     libucrt:winapi_thunks.obj
 0002:00003260       ??_C@_0BB@HBDEELFH@LocaleNameToLCID@ 10023260     libucrt:winapi_thunks.obj
 0002:00003278       ??_C@_0CF@OJOFEIGO@AppPolicyGetProcessTerminationM@ 10023278     libucrt:winapi_thunks.obj
 0002:000032a8       ??_C@_0BI@BKLFFAPO@SetThreadStackGuarantee@ 100232a8     libucrt:winapi_thunks.obj
 0002:00003320       ??_C@_03OEIAHPBN@INF@      10023320     libucrt:cvt.obj
 0002:00003324       ??_C@_03OJHLLCGB@inf@      10023324     libucrt:cvt.obj
 0002:00003328       ??_C@_03LKNCIKJB@NAN@      10023328     libucrt:cvt.obj
 0002:0000332c       ??_C@_03LHCJEHON@nan@      1002332c     libucrt:cvt.obj
 0002:00003330       ??_C@_09OFJJIMPC@NAN?$CISNAN?$CJ@ 10023330     libucrt:cvt.obj
 0002:0000333c       ??_C@_09IPFBKMDL@nan?$CIsnan?$CJ@ 1002333c     libucrt:cvt.obj
 0002:00003348       ??_C@_08IKHNHAJ@NAN?$CIIND?$CJ@ 10023348     libucrt:cvt.obj
 0002:00003354       ??_C@_08OFCDMILK@nan?$CIind?$CJ@ 10023354     libucrt:cvt.obj
 0002:00003360       ??_C@_05KLBDPFGC@e?$CL000@ 10023360     libucrt:cvt.obj
 0002:00003378       ??_C@_1M@HPNHIDJI@?$AAj?$AAa?$AA?9?$AAJ?$AAP@ 10023378     libucrt:mbctype.obj
 0002:00003384       ??_C@_1M@BIBDDEMK@?$AAz?$AAh?$AA?9?$AAC?$AAN@ 10023384     libucrt:mbctype.obj
 0002:00003390       ??_C@_1M@JLOOOEGK@?$AAk?$AAo?$AA?9?$AAK?$AAR@ 10023390     libucrt:mbctype.obj
 0002:0000339c       ??_C@_1M@CLNBBOPM@?$AAz?$AAh?$AA?9?$AAT?$AAW@ 1002339c     libucrt:mbctype.obj
 0002:000033a8       ___newctype                100233a8     libucrt:ctype.obj
 0002:000036a8       ___newclmap                100236a8     libucrt:ctype.obj
 0002:00003828       ___newcumap                10023828     libucrt:ctype.obj
 0002:000039a8       ??_C@_15PJPFLCCM@?$AAu?$AAk@ 100239a8     libucrt:get_qualified_locale.obj
 0002:000040d0       ??_C@_15EMKDOKLE@?$AAa?$AAr@ 100240d0     libucrt:lcidtoname_downlevel.obj
 0002:000040d8       ??_C@_15KNPADPLH@?$AAb?$AAg@ 100240d8     libucrt:lcidtoname_downlevel.obj
 0002:000040e0       ??_C@_15EDMHLDMO@?$AAc?$AAa@ 100240e0     libucrt:lcidtoname_downlevel.obj
 0002:000040e8       ??_C@_1O@BPEAJADD@?$AAz?$AAh?$AA?9?$AAC?$AAH?$AAS@ 100240e8     libucrt:lcidtoname_downlevel.obj
 0002:000040f8       ??_C@_15LJNHCMNK@?$AAc?$AAs@ 100240f8     libucrt:lcidtoname_downlevel.obj
 0002:00004100       ??_C@_15FOMCIDHG@?$AAd?$AAa@ 10024100     libucrt:lcidtoname_downlevel.obj
 0002:00004108       ??_C@_15NBKABECB@?$AAd?$AAe@ 10024108     libucrt:lcidtoname_downlevel.obj
 0002:00004110       ??_C@_15GHPEIIAO@?$AAe?$AAl@ 10024110     libucrt:lcidtoname_downlevel.obj
 0002:00004118       ??_C@_15MNPNEAIF@?$AAe?$AAn@ 10024118     libucrt:lcidtoname_downlevel.obj
 0002:00004120       ??_C@_15GPIOMPMH@?$AAe?$AAs@ 10024120     libucrt:lcidtoname_downlevel.obj
 0002:00004128       ??_C@_15NGLOAKJC@?$AAf?$AAi@ 10024128     libucrt:lcidtoname_downlevel.obj
 0002:00004130       ??_C@_15FBKGNKAM@?$AAf?$AAr@ 10024130     libucrt:lcidtoname_downlevel.obj
 0002:00004138       ??_C@_15KGGCNEFK@?$AAh?$AAe@ 10024138     libucrt:lcidtoname_downlevel.obj
 0002:00004140       ??_C@_15PGHLIDMF@?$AAh?$AAu@ 10024140     libucrt:lcidtoname_downlevel.obj
 0002:00004148       ??_C@_15BIEMAPLM@?$AAi?$AAs@ 10024148     libucrt:lcidtoname_downlevel.obj
 0002:00004150       ??_C@_15IFJLDHAF@?$AAi?$AAt@ 10024150     libucrt:lcidtoname_downlevel.obj
 0002:00004158       ??_C@_15GEMIOCAG@?$AAj?$AAa@ 10024158     libucrt:lcidtoname_downlevel.obj
 0002:00004160       ??_C@_15EPELEGJA@?$AAk?$AAo@ 10024160     libucrt:lcidtoname_downlevel.obj
 0002:00004168       ??_C@_15NDDHIMN@?$AAn?$AAl@ 10024168     libucrt:lcidtoname_downlevel.obj
 0002:00004170       ??_C@_15BPIGNHCD@?$AAn?$AAo@ 10024170     libucrt:lcidtoname_downlevel.obj
 0002:00004178       ??_C@_15DEOPBLCG@?$AAp?$AAl@ 10024178     libucrt:lcidtoname_downlevel.obj
 0002:00004180       ??_C@_15KBECGEFG@?$AAp?$AAt@ 10024180     libucrt:lcidtoname_downlevel.obj
 0002:00004188       ??_C@_15GLJCBFMD@?$AAr?$AAo@ 10024188     libucrt:lcidtoname_downlevel.obj
 0002:00004190       ??_C@_15FEDGKCDI@?$AAr?$AAu@ 10024190     libucrt:lcidtoname_downlevel.obj
 0002:00004198       ??_C@_15GLKMLLHM@?$AAh?$AAr@ 10024198     libucrt:lcidtoname_downlevel.obj
 0002:000041a0       ??_C@_15CPKMFBDB@?$AAs?$AAk@ 100241a0     libucrt:lcidtoname_downlevel.obj
 0002:000041a8       ??_C@_15BAAIOGMK@?$AAs?$AAq@ 100241a8     libucrt:lcidtoname_downlevel.obj
 0002:000041b0       ??_C@_15INNPNOHD@?$AAs?$AAv@ 100241b0     libucrt:lcidtoname_downlevel.obj
 0002:000041b8       ??_C@_15CABMMOGH@?$AAt?$AAh@ 100241b8     libucrt:lcidtoname_downlevel.obj
 0002:000041c0       ??_C@_15BPLIHJJM@?$AAt?$AAr@ 100241c0     libucrt:lcidtoname_downlevel.obj
 0002:000041c8       ??_C@_15NEOEKKDJ@?$AAu?$AAr@ 100241c8     libucrt:lcidtoname_downlevel.obj
 0002:000041d0       ??_C@_15NFICGAJK@?$AAi?$AAd@ 100241d0     libucrt:lcidtoname_downlevel.obj
 0002:000041d8       ??_C@_15HPJPHDM@?$AAb?$AAe@ 100241d8     libucrt:lcidtoname_downlevel.obj
 0002:000041e0       ??_C@_15LCHLGJII@?$AAs?$AAl@ 100241e0     libucrt:lcidtoname_downlevel.obj
 0002:000041e8       ??_C@_15PCFJPHHO@?$AAe?$AAt@ 100241e8     libucrt:lcidtoname_downlevel.obj
 0002:000041f0       ??_C@_15HPFPGODN@?$AAl?$AAv@ 100241f0     libucrt:lcidtoname_downlevel.obj
 0002:000041f8       ??_C@_15NFFGKGLG@?$AAl?$AAt@ 100241f8     libucrt:lcidtoname_downlevel.obj
 0002:00004200       ??_C@_15BDAKCCHN@?$AAf?$AAa@ 10024200     libucrt:lcidtoname_downlevel.obj
 0002:00004208       ??_C@_15NFGIAIAJ@?$AAv?$AAi@ 10024208     libucrt:lcidtoname_downlevel.obj
 0002:00004210       ??_C@_15LMKNDMHN@?$AAh?$AAy@ 10024210     libucrt:lcidtoname_downlevel.obj
 0002:00004218       ??_C@_15IJBHMCFL@?$AAa?$AAz@ 10024218     libucrt:lcidtoname_downlevel.obj
 0002:00004220       ??_C@_15EKOFJABL@?$AAe?$AAu@ 10024220     libucrt:lcidtoname_downlevel.obj
 0002:00004228       ??_C@_15BGHADCNK@?$AAm?$AAk@ 10024228     libucrt:lcidtoname_downlevel.obj
 0002:00004230       ??_C@_15JDNICKHM@?$AAa?$AAf@ 10024230     libucrt:lcidtoname_downlevel.obj
 0002:00004238       ??_C@_15KPJEDBKD@?$AAk?$AAa@ 10024238     libucrt:lcidtoname_downlevel.obj
 0002:00004240       ??_C@_15PDNFFFEO@?$AAf?$AAo@ 10024240     libucrt:lcidtoname_downlevel.obj
 0002:00004248       ??_C@_15OMLEGLOC@?$AAh?$AAi@ 10024248     libucrt:lcidtoname_downlevel.obj
 0002:00004250       ??_C@_15IDNNENKK@?$AAm?$AAs@ 10024250     libucrt:lcidtoname_downlevel.obj
 0002:00004258       ??_C@_15MACJNBMH@?$AAk?$AAk@ 10024258     libucrt:lcidtoname_downlevel.obj
 0002:00004260       ??_C@_15DKDJEOND@?$AAk?$AAy@ 10024260     libucrt:lcidtoname_downlevel.obj
 0002:00004268       ??_C@_15DFGDLJBG@?$AAs?$AAw@ 10024268     libucrt:lcidtoname_downlevel.obj
 0002:00004270       ??_C@_15BBFAICNG@?$AAu?$AAz@ 10024270     libucrt:lcidtoname_downlevel.obj
 0002:00004278       ??_C@_15DKNDCGEA@?$AAt?$AAt@ 10024278     libucrt:lcidtoname_downlevel.obj
 0002:00004280       ??_C@_15MGIFMDPL@?$AAp?$AAa@ 10024280     libucrt:lcidtoname_downlevel.obj
 0002:00004288       ??_C@_15HCNDBBA@?$AAg?$AAu@ 10024288     libucrt:lcidtoname_downlevel.obj
 0002:00004290       ??_C@_15FNBEIBON@?$AAt?$AAa@ 10024290     libucrt:lcidtoname_downlevel.obj
 0002:00004298       ??_C@_15NCHGBGLK@?$AAt?$AAe@ 10024298     libucrt:lcidtoname_downlevel.obj
 0002:000042a0       ??_C@_15PHPHCBPF@?$AAk?$AAn@ 100242a0     libucrt:lcidtoname_downlevel.obj
 0002:000042a8       ??_C@_15DLGBCKMP@?$AAm?$AAr@ 100242a8     libucrt:lcidtoname_downlevel.obj
 0002:000042b0       ??_C@_15EABBLBFF@?$AAs?$AAa@ 100242b0     libucrt:lcidtoname_downlevel.obj
 0002:000042b8       ??_C@_15CBKOMCOI@?$AAm?$AAn@ 100242b8     libucrt:lcidtoname_downlevel.obj
 0002:000042c0       ??_C@_15CKDMCJAF@?$AAg?$AAl@ 100242c0     libucrt:lcidtoname_downlevel.obj
 0002:000042c8       ??_C@_17CNJFBPG@?$AAk?$AAo?$AAk@ 100242c8     libucrt:lcidtoname_downlevel.obj
 0002:000042d0       ??_C@_17FFBJICPL@?$AAs?$AAy?$AAr@ 100242d0     libucrt:lcidtoname_downlevel.obj
 0002:000042d8       ??_C@_17KPNDCPAF@?$AAd?$AAi?$AAv@ 100242d8     libucrt:lcidtoname_downlevel.obj
 0002:000042e0       ??_C@_1M@OKAHONE@?$AAa?$AAr?$AA?9?$AAS?$AAA@ 100242e0     libucrt:lcidtoname_downlevel.obj
 0002:000042ec       ??_C@_1M@FFFIGIGK@?$AAb?$AAg?$AA?9?$AAB?$AAG@ 100242ec     libucrt:lcidtoname_downlevel.obj
 0002:000042f8       ??_C@_1M@BJNKEDC@?$AAc?$AAa?$AA?9?$AAE?$AAS@ 100242f8     libucrt:lcidtoname_downlevel.obj
 0002:00004304       ??_C@_1M@IJJHFJHA@?$AAc?$AAs?$AA?9?$AAC?$AAZ@ 10024304     libucrt:lcidtoname_downlevel.obj
 0002:00004310       ??_C@_1M@CLPEOBGI@?$AAd?$AAa?$AA?9?$AAD?$AAK@ 10024310     libucrt:lcidtoname_downlevel.obj
 0002:0000431c       ??_C@_1M@MCMADGCB@?$AAd?$AAe?$AA?9?$AAD?$AAE@ 1002431c     libucrt:lcidtoname_downlevel.obj
 0002:00004328       ??_C@_1M@OOCKEMAM@?$AAe?$AAl?$AA?9?$AAG?$AAR@ 10024328     libucrt:lcidtoname_downlevel.obj
 0002:00004334       ??_C@_1M@DDNJFGID@?$AAf?$AAi?$AA?9?$AAF?$AAI@ 10024334     libucrt:lcidtoname_downlevel.obj
 0002:00004340       ??_C@_1M@GLIPPMAC@?$AAf?$AAr?$AA?9?$AAF?$AAR@ 10024340     libucrt:lcidtoname_downlevel.obj
 0002:0000434c       ??_C@_1M@GFMCHPE@?$AAh?$AAe?$AA?9?$AAI?$AAL@ 1002434c     libucrt:lcidtoname_downlevel.obj
 0002:00004358       ??_C@_1M@MHLPGNKM@?$AAh?$AAu?$AA?9?$AAH?$AAU@ 10024358     libucrt:lcidtoname_downlevel.obj
 0002:00004364       ??_C@_1M@LPDDNNPN@?$AAi?$AAs?$AA?9?$AAI?$AAS@ 10024364     libucrt:lcidtoname_downlevel.obj
 0002:00004370       ??_C@_1M@MADIPODN@?$AAi?$AAt?$AA?9?$AAI?$AAT@ 10024370     libucrt:lcidtoname_downlevel.obj
 0002:0000437c       ??_C@_1M@IHBJJGG@?$AAn?$AAl?$AA?9?$AAN?$AAL@ 1002437c     libucrt:lcidtoname_downlevel.obj
 0002:00004388       ??_C@_1M@EANAGDL@?$AAn?$AAb?$AA?9?$AAN?$AAO@ 10024388     libucrt:lcidtoname_downlevel.obj
 0002:00004394       ??_C@_1M@NEIEMEGP@?$AAp?$AAl?$AA?9?$AAP?$AAL@ 10024394     libucrt:lcidtoname_downlevel.obj
 0002:000043a0       ??_C@_1M@BOCFIGEP@?$AAp?$AAt?$AA?9?$AAB?$AAR@ 100243a0     libucrt:lcidtoname_downlevel.obj
 0002:000043ac       ??_C@_1M@IMPFOPBG@?$AAr?$AAo?$AA?9?$AAR?$AAO@ 100243ac     libucrt:lcidtoname_downlevel.obj
 0002:000043b8       ??_C@_1M@IDNNEJMM@?$AAr?$AAu?$AA?9?$AAR?$AAU@ 100243b8     libucrt:lcidtoname_downlevel.obj
 0002:000043c4       ??_C@_1M@LILEEOGM@?$AAh?$AAr?$AA?9?$AAH?$AAR@ 100243c4     libucrt:lcidtoname_downlevel.obj
 0002:000043d0       ??_C@_1M@FKIFEHPB@?$AAs?$AAk?$AA?9?$AAS?$AAK@ 100243d0     libucrt:lcidtoname_downlevel.obj
 0002:000043dc       ??_C@_1M@LJMAMNPJ@?$AAs?$AAq?$AA?9?$AAA?$AAL@ 100243dc     libucrt:lcidtoname_downlevel.obj
 0002:000043e8       ??_C@_1M@GIAKDKJK@?$AAs?$AAv?$AA?9?$AAS?$AAE@ 100243e8     libucrt:lcidtoname_downlevel.obj
 0002:000043f4       ??_C@_1M@MKJKIKCL@?$AAt?$AAh?$AA?9?$AAT?$AAH@ 100243f4     libucrt:lcidtoname_downlevel.obj
 0002:00004400       ??_C@_1M@MFLCCMPB@?$AAt?$AAr?$AA?9?$AAT?$AAR@ 10024400     libucrt:lcidtoname_downlevel.obj
 0002:0000440c       ??_C@_1M@OIJHDKJN@?$AAu?$AAr?$AA?9?$AAP?$AAK@ 1002440c     libucrt:lcidtoname_downlevel.obj
 0002:00004418       ??_C@_1M@LHIPCIEK@?$AAi?$AAd?$AA?9?$AAI?$AAD@ 10024418     libucrt:lcidtoname_downlevel.obj
 0002:00004424       ??_C@_1M@MFMOBGI@?$AAu?$AAk?$AA?9?$AAU?$AAA@ 10024424     libucrt:lcidtoname_downlevel.obj
 0002:00004430       ??_C@_1M@OBGLJIPL@?$AAb?$AAe?$AA?9?$AAB?$AAY@ 10024430     libucrt:lcidtoname_downlevel.obj
 0002:0000443c       ??_C@_1M@BCFAJEAD@?$AAs?$AAl?$AA?9?$AAS?$AAI@ 1002443c     libucrt:lcidtoname_downlevel.obj
 0002:00004448       ??_C@_1M@FKFFEDDN@?$AAe?$AAt?$AA?9?$AAE?$AAE@ 10024448     libucrt:lcidtoname_downlevel.obj
 0002:00004454       ??_C@_1M@KGKKAACI@?$AAl?$AAv?$AA?9?$AAL?$AAV@ 10024454     libucrt:lcidtoname_downlevel.obj
 0002:00004460       ??_C@_1M@IFGBIJO@?$AAl?$AAt?$AA?9?$AAL?$AAT@ 10024460     libucrt:lcidtoname_downlevel.obj
 0002:0000446c       ??_C@_1M@FGEAHEDM@?$AAf?$AAa?$AA?9?$AAI?$AAR@ 1002446c     libucrt:lcidtoname_downlevel.obj
 0002:00004478       ??_C@_1M@KBMAIBFN@?$AAv?$AAi?$AA?9?$AAV?$AAN@ 10024478     libucrt:lcidtoname_downlevel.obj
 0002:00004484       ??_C@_1M@GPCBKDJK@?$AAh?$AAy?$AA?9?$AAA?$AAM@ 10024484     libucrt:lcidtoname_downlevel.obj
 0002:00004490       ??_C@_1BG@BECMDDJB@?$AAa?$AAz?$AA?9?$AAA?$AAZ?$AA?9?$AAL?$AAa?$AAt?$AAn@ 10024490     libucrt:lcidtoname_downlevel.obj
 0002:000044a8       ??_C@_1M@MAOFCAEA@?$AAe?$AAu?$AA?9?$AAE?$AAS@ 100244a8     libucrt:lcidtoname_downlevel.obj
 0002:000044b4       ??_C@_1M@IGHABKPI@?$AAm?$AAk?$AA?9?$AAM?$AAK@ 100244b4     libucrt:lcidtoname_downlevel.obj
 0002:000044c0       ??_C@_1M@IAIGNEJG@?$AAt?$AAn?$AA?9?$AAZ?$AAA@ 100244c0     libucrt:lcidtoname_downlevel.obj
 0002:000044cc       ??_C@_1M@IIJCOJFA@?$AAx?$AAh?$AA?9?$AAZ?$AAA@ 100244cc     libucrt:lcidtoname_downlevel.obj
 0002:000044d8       ??_C@_1M@LGPJHNJH@?$AAz?$AAu?$AA?9?$AAZ?$AAA@ 100244d8     libucrt:lcidtoname_downlevel.obj
 0002:000044e4       ??_C@_1M@HOKAOIO@?$AAa?$AAf?$AA?9?$AAZ?$AAA@ 100244e4     libucrt:lcidtoname_downlevel.obj
 0002:000044f0       ??_C@_1M@DPCLHLIE@?$AAk?$AAa?$AA?9?$AAG?$AAE@ 100244f0     libucrt:lcidtoname_downlevel.obj
 0002:000044fc       ??_C@_1M@BLKMHJBI@?$AAf?$AAo?$AA?9?$AAF?$AAO@ 100244fc     libucrt:lcidtoname_downlevel.obj
 0002:00004508       ??_C@_1M@LGGJAPPB@?$AAh?$AAi?$AA?9?$AAI?$AAN@ 10024508     libucrt:lcidtoname_downlevel.obj
 0002:00004514       ??_C@_1M@FIKPIHFE@?$AAm?$AAt?$AA?9?$AAM?$AAT@ 10024514     libucrt:lcidtoname_downlevel.obj
 0002:00004520       ??_C@_1M@HEGGPBFA@?$AAs?$AAe?$AA?9?$AAN?$AAO@ 10024520     libucrt:lcidtoname_downlevel.obj
 0002:0000452c       ??_C@_1M@EIBJEEPA@?$AAm?$AAs?$AA?9?$AAM?$AAY@ 1002452c     libucrt:lcidtoname_downlevel.obj
 0002:00004538       ??_C@_1M@FHLBGMPP@?$AAk?$AAk?$AA?9?$AAK?$AAZ@ 10024538     libucrt:lcidtoname_downlevel.obj
 0002:00004544       ??_C@_1M@NGJJLCGI@?$AAk?$AAy?$AA?9?$AAK?$AAG@ 10024544     libucrt:lcidtoname_downlevel.obj
 0002:00004550       ??_C@_1M@GIENNBFC@?$AAs?$AAw?$AA?9?$AAK?$AAE@ 10024550     libucrt:lcidtoname_downlevel.obj
 0002:0000455c       ??_C@_1BG@NDGMJIMJ@?$AAu?$AAz?$AA?9?$AAU?$AAZ?$AA?9?$AAL?$AAa?$AAt?$AAn@ 1002455c     libucrt:lcidtoname_downlevel.obj
 0002:00004574       ??_C@_1M@IDCCIHBC@?$AAt?$AAt?$AA?9?$AAR?$AAU@ 10024574     libucrt:lcidtoname_downlevel.obj
 0002:00004580       ??_C@_1M@LOICPMOJ@?$AAb?$AAn?$AA?9?$AAI?$AAN@ 10024580     libucrt:lcidtoname_downlevel.obj
 0002:0000458c       ??_C@_1M@KPKKNEAH@?$AAp?$AAa?$AA?9?$AAI?$AAN@ 1002458c     libucrt:lcidtoname_downlevel.obj
 0002:00004598       ??_C@_1M@PJGPPBOG@?$AAg?$AAu?$AA?9?$AAI?$AAN@ 10024598     libucrt:lcidtoname_downlevel.obj
 0002:000045a4       ??_C@_1M@KMKMOPHI@?$AAt?$AAa?$AA?9?$AAI?$AAN@ 100245a4     libucrt:lcidtoname_downlevel.obj
 0002:000045b0       ??_C@_1M@KFEHEPAC@?$AAt?$AAe?$AA?9?$AAI?$AAN@ 100245b0     libucrt:lcidtoname_downlevel.obj
 0002:000045bc       ??_C@_1M@CDCLMGHI@?$AAk?$AAn?$AA?9?$AAI?$AAN@ 100245bc     libucrt:lcidtoname_downlevel.obj
 0002:000045c8       ??_C@_1M@MIODLDKF@?$AAm?$AAl?$AA?9?$AAI?$AAN@ 100245c8     libucrt:lcidtoname_downlevel.obj
 0002:000045d4       ??_C@_1M@PBIEACPO@?$AAm?$AAr?$AA?9?$AAI?$AAN@ 100245d4     libucrt:lcidtoname_downlevel.obj
 0002:000045e0       ??_C@_1M@NIDEAGPH@?$AAs?$AAa?$AA?9?$AAI?$AAN@ 100245e0     libucrt:lcidtoname_downlevel.obj
 0002:000045ec       ??_C@_1M@FHIHCBIO@?$AAm?$AAn?$AA?9?$AAM?$AAN@ 100245ec     libucrt:lcidtoname_downlevel.obj
 0002:000045f8       ??_C@_1M@JAIJPENP@?$AAc?$AAy?$AA?9?$AAG?$AAB@ 100245f8     libucrt:lcidtoname_downlevel.obj
 0002:00004604       ??_C@_1M@PHGFBEPN@?$AAg?$AAl?$AA?9?$AAE?$AAS@ 10024604     libucrt:lcidtoname_downlevel.obj
 0002:00004610       ??_C@_1O@KPIPDNCP@?$AAk?$AAo?$AAk?$AA?9?$AAI?$AAN@ 10024610     libucrt:lcidtoname_downlevel.obj
 0002:00004620       ??_C@_1O@KNHJLDJA@?$AAs?$AAy?$AAr?$AA?9?$AAS?$AAY@ 10024620     libucrt:lcidtoname_downlevel.obj
 0002:00004630       ??_C@_1O@MKEKBLAH@?$AAd?$AAi?$AAv?$AA?9?$AAM?$AAV@ 10024630     libucrt:lcidtoname_downlevel.obj
 0002:00004640       ??_C@_1O@OHDCKDDF@?$AAq?$AAu?$AAz?$AA?9?$AAB?$AAO@ 10024640     libucrt:lcidtoname_downlevel.obj
 0002:00004650       ??_C@_1M@LEPJNLFD@?$AAn?$AAs?$AA?9?$AAZ?$AAA@ 10024650     libucrt:lcidtoname_downlevel.obj
 0002:0000465c       ??_C@_1M@OMLEIIJB@?$AAm?$AAi?$AA?9?$AAN?$AAZ@ 1002465c     libucrt:lcidtoname_downlevel.obj
 0002:00004668       ??_C@_1M@PMPEAILG@?$AAa?$AAr?$AA?9?$AAI?$AAQ@ 10024668     libucrt:lcidtoname_downlevel.obj
 0002:00004674       ??_C@_1M@CNKPNOEE@?$AAd?$AAe?$AA?9?$AAC?$AAH@ 10024674     libucrt:lcidtoname_downlevel.obj
 0002:00004680       ??_C@_1M@LKMGMLKO@?$AAe?$AAn?$AA?9?$AAG?$AAB@ 10024680     libucrt:lcidtoname_downlevel.obj
 0002:0000468c       ??_C@_1M@PGKJFFGL@?$AAe?$AAs?$AA?9?$AAM?$AAX@ 1002468c     libucrt:lcidtoname_downlevel.obj
 0002:00004698       ??_C@_1M@DNNANBDC@?$AAf?$AAr?$AA?9?$AAB?$AAE@ 10024698     libucrt:lcidtoname_downlevel.obj
 0002:000046a4       ??_C@_1M@HLGMDFHM@?$AAi?$AAt?$AA?9?$AAC?$AAH@ 100246a4     libucrt:lcidtoname_downlevel.obj
 0002:000046b0       ??_C@_1M@CLLBGJH@?$AAn?$AAl?$AA?9?$AAB?$AAE@ 100246b0     libucrt:lcidtoname_downlevel.obj
 0002:000046bc       ??_C@_1M@BODBOGLF@?$AAn?$AAn?$AA?9?$AAN?$AAO@ 100246bc     libucrt:lcidtoname_downlevel.obj
 0002:000046c8       ??_C@_1M@HFFAHKAD@?$AAp?$AAt?$AA?9?$AAP?$AAT@ 100246c8     libucrt:lcidtoname_downlevel.obj
 0002:000046d4       ??_C@_1BG@LNOAKHIE@?$AAs?$AAr?$AA?9?$AAS?$AAP?$AA?9?$AAL?$AAa?$AAt?$AAn@ 100246d4     libucrt:lcidtoname_downlevel.obj
 0002:000046ec       ??_C@_1M@HBMHBGAK@?$AAs?$AAv?$AA?9?$AAF?$AAI@ 100246ec     libucrt:lcidtoname_downlevel.obj
 0002:000046f8       ??_C@_1BG@DGCJGJBE@?$AAa?$AAz?$AA?9?$AAA?$AAZ?$AA?9?$AAC?$AAy?$AAr?$AAl@ 100246f8     libucrt:lcidtoname_downlevel.obj
 0002:00004710       ??_C@_1M@KEJDAAHB@?$AAs?$AAe?$AA?9?$AAS?$AAE@ 10024710     libucrt:lcidtoname_downlevel.obj
 0002:0000471c       ??_C@_1M@HEIBJJAD@?$AAm?$AAs?$AA?9?$AAB?$AAN@ 1002471c     libucrt:lcidtoname_downlevel.obj
 0002:00004728       ??_C@_1BG@PBGJMCEM@?$AAu?$AAz?$AA?9?$AAU?$AAZ?$AA?9?$AAC?$AAy?$AAr?$AAl@ 10024728     libucrt:lcidtoname_downlevel.obj
 0002:00004740       ??_C@_1O@LAOBCMDF@?$AAq?$AAu?$AAz?$AA?9?$AAE?$AAC@ 10024740     libucrt:lcidtoname_downlevel.obj
 0002:00004750       ??_C@_1M@POEEMAIO@?$AAa?$AAr?$AA?9?$AAE?$AAG@ 10024750     libucrt:lcidtoname_downlevel.obj
 0002:0000475c       ??_C@_1M@EFAKDEDL@?$AAz?$AAh?$AA?9?$AAH?$AAK@ 1002475c     libucrt:lcidtoname_downlevel.obj
 0002:00004768       ??_C@_1M@HKKIJHGI@?$AAd?$AAe?$AA?9?$AAA?$AAT@ 10024768     libucrt:lcidtoname_downlevel.obj
 0002:00004774       ??_C@_1M@KBFBEHJF@?$AAe?$AAn?$AA?9?$AAA?$AAU@ 10024774     libucrt:lcidtoname_downlevel.obj
 0002:00004780       ??_C@_1M@MNPLFAAH@?$AAe?$AAs?$AA?9?$AAE?$AAS@ 10024780     libucrt:lcidtoname_downlevel.obj
 0002:0000478c       ??_C@_1M@HJOOJFMA@?$AAf?$AAr?$AA?9?$AAC?$AAA@ 1002478c     libucrt:lcidtoname_downlevel.obj
 0002:00004798       ??_C@_1BG@JPOFPNAB@?$AAs?$AAr?$AA?9?$AAS?$AAP?$AA?9?$AAC?$AAy?$AAr?$AAl@ 10024798     libucrt:lcidtoname_downlevel.obj
 0002:000047b0       ??_C@_1M@LNFOCMOB@?$AAs?$AAe?$AA?9?$AAF?$AAI@ 100247b0     libucrt:lcidtoname_downlevel.obj
 0002:000047bc       ??_C@_1O@MGJBOAMB@?$AAq?$AAu?$AAz?$AA?9?$AAP?$AAE@ 100247bc     libucrt:lcidtoname_downlevel.obj
 0002:000047cc       ??_C@_1M@GJINLBOK@?$AAa?$AAr?$AA?9?$AAL?$AAY@ 100247cc     libucrt:lcidtoname_downlevel.obj
 0002:000047d8       ??_C@_1M@GGMNHJNL@?$AAz?$AAh?$AA?9?$AAS?$AAG@ 100247d8     libucrt:lcidtoname_downlevel.obj
 0002:000047e4       ??_C@_1M@HOIKODND@?$AAd?$AAe?$AA?9?$AAL?$AAU@ 100247e4     libucrt:lcidtoname_downlevel.obj
 0002:000047f0       ??_C@_1M@DDOCCGFG@?$AAe?$AAn?$AA?9?$AAC?$AAA@ 100247f0     libucrt:lcidtoname_downlevel.obj
 0002:000047fc       ??_C@_1M@BNOEMJLF@?$AAe?$AAs?$AA?9?$AAG?$AAT@ 100247fc     libucrt:lcidtoname_downlevel.obj
 0002:00004808       ??_C@_1M@EOGNKEK@?$AAf?$AAr?$AA?9?$AAC?$AAH@ 10024808     libucrt:lcidtoname_downlevel.obj
 0002:00004814       ??_C@_1M@FLIDJFHL@?$AAh?$AAr?$AA?9?$AAB?$AAA@ 10024814     libucrt:lcidtoname_downlevel.obj
 0002:00004820       ??_C@_1O@FMCELNAJ@?$AAs?$AAm?$AAj?$AA?9?$AAN?$AAO@ 10024820     libucrt:lcidtoname_downlevel.obj
 0002:00004830       ??_C@_1M@JHGLJMGJ@?$AAa?$AAr?$AA?9?$AAD?$AAZ@ 10024830     libucrt:lcidtoname_downlevel.obj
 0002:0000483c       ??_C@_1M@JKKFDCNP@?$AAz?$AAh?$AA?9?$AAM?$AAO@ 1002483c     libucrt:lcidtoname_downlevel.obj
 0002:00004848       ??_C@_1M@GEEFALPE@?$AAd?$AAe?$AA?9?$AAL?$AAI@ 10024848     libucrt:lcidtoname_downlevel.obj
 0002:00004854       ??_C@_1M@IGEOFBG@?$AAe?$AAn?$AA?9?$AAN?$AAZ@ 10024854     libucrt:lcidtoname_downlevel.obj
 0002:00004860       ??_C@_1M@KDBONEHP@?$AAe?$AAs?$AA?9?$AAC?$AAR@ 10024860     libucrt:lcidtoname_downlevel.obj
 0002:0000486c       ??_C@_1M@FHMDOHNN@?$AAf?$AAr?$AA?9?$AAL?$AAU@ 1002486c     libucrt:lcidtoname_downlevel.obj
 0002:00004878       ??_C@_1BG@NFKKMAFG@?$AAb?$AAs?$AA?9?$AAB?$AAA?$AA?9?$AAL?$AAa?$AAt?$AAn@ 10024878     libucrt:lcidtoname_downlevel.obj
 0002:00004890       ??_C@_1O@IMNBEMCI@?$AAs?$AAm?$AAj?$AA?9?$AAS?$AAE@ 10024890     libucrt:lcidtoname_downlevel.obj
 0002:000048a0       ??_C@_1M@DHHMBNDP@?$AAa?$AAr?$AA?9?$AAM?$AAA@ 100248a0     libucrt:lcidtoname_downlevel.obj
 0002:000048ac       ??_C@_1M@BNBLJCGH@?$AAe?$AAn?$AA?9?$AAI?$AAE@ 100248ac     libucrt:lcidtoname_downlevel.obj
 0002:000048b8       ??_C@_1M@GEPAFMDL@?$AAe?$AAs?$AA?9?$AAP?$AAA@ 100248b8     libucrt:lcidtoname_downlevel.obj
 0002:000048c4       ??_C@_1M@OJONDMDL@?$AAf?$AAr?$AA?9?$AAM?$AAC@ 100248c4     libucrt:lcidtoname_downlevel.obj
 0002:000048d0       ??_C@_1BG@OBCNFJB@?$AAs?$AAr?$AA?9?$AAB?$AAA?$AA?9?$AAL?$AAa?$AAt?$AAn@ 100248d0     libucrt:lcidtoname_downlevel.obj
 0002:000048e8       ??_C@_1O@KEMEEGPO@?$AAs?$AAm?$AAa?$AA?9?$AAN?$AAO@ 100248e8     libucrt:lcidtoname_downlevel.obj
 0002:000048f8       ??_C@_1M@ELMGFODK@?$AAa?$AAr?$AA?9?$AAT?$AAN@ 100248f8     libucrt:lcidtoname_downlevel.obj
 0002:00004904       ??_C@_1M@BHDLHFAF@?$AAe?$AAn?$AA?9?$AAZ?$AAA@ 10024904     libucrt:lcidtoname_downlevel.obj
 0002:00004910       ??_C@_1M@BMGIGLIF@?$AAe?$AAs?$AA?9?$AAD?$AAO@ 10024910     libucrt:lcidtoname_downlevel.obj
 0002:0000491c       ??_C@_1BG@CMBHIPBE@?$AAs?$AAr?$AA?9?$AAB?$AAA?$AA?9?$AAC?$AAy?$AAr?$AAl@ 1002491c     libucrt:lcidtoname_downlevel.obj
 0002:00004934       ??_C@_1O@HEDBLHNP@?$AAs?$AAm?$AAa?$AA?9?$AAS?$AAE@ 10024934     libucrt:lcidtoname_downlevel.obj
 0002:00004944       ??_C@_1M@DAGCADIM@?$AAa?$AAr?$AA?9?$AAO?$AAM@ 10024944     libucrt:lcidtoname_downlevel.obj
 0002:00004950       ??_C@_1M@FODLMICG@?$AAe?$AAn?$AA?9?$AAJ?$AAM@ 10024950     libucrt:lcidtoname_downlevel.obj
 0002:0000495c       ??_C@_1M@DNMLCIHB@?$AAe?$AAs?$AA?9?$AAV?$AAE@ 1002495c     libucrt:lcidtoname_downlevel.obj
 0002:00004968       ??_C@_1O@EOKHMKJK@?$AAs?$AAm?$AAs?$AA?9?$AAF?$AAI@ 10024968     libucrt:lcidtoname_downlevel.obj
 0002:00004978       ??_C@_1M@CAFJMKOF@?$AAa?$AAr?$AA?9?$AAY?$AAE@ 10024978     libucrt:lcidtoname_downlevel.obj
 0002:00004984       ??_C@_1M@CBFHIJLI@?$AAe?$AAn?$AA?9?$AAC?$AAB@ 10024984     libucrt:lcidtoname_downlevel.obj
 0002:00004990       ??_C@_1M@BGNFLDN@?$AAe?$AAs?$AA?9?$AAC?$AAO@ 10024990     libucrt:lcidtoname_downlevel.obj
 0002:0000499c       ??_C@_1O@JMPHMAMC@?$AAs?$AAm?$AAn?$AA?9?$AAF?$AAI@ 1002499c     libucrt:lcidtoname_downlevel.obj
 0002:000049ac       ??_C@_1M@JLANABKE@?$AAa?$AAr?$AA?9?$AAS?$AAY@ 100249ac     libucrt:lcidtoname_downlevel.obj
 0002:000049b8       ??_C@_1M@HPKGCFGN@?$AAe?$AAn?$AA?9?$AAB?$AAZ@ 100249b8     libucrt:lcidtoname_downlevel.obj
 0002:000049c4       ??_C@_1M@OLJCMLGM@?$AAe?$AAs?$AA?9?$AAP?$AAE@ 100249c4     libucrt:lcidtoname_downlevel.obj
 0002:000049d0       ??_C@_1M@MKKGFKLE@?$AAa?$AAr?$AA?9?$AAJ?$AAO@ 100249d0     libucrt:lcidtoname_downlevel.obj
 0002:000049dc       ??_C@_1M@EKPGLDNI@?$AAe?$AAn?$AA?9?$AAT?$AAT@ 100249dc     libucrt:lcidtoname_downlevel.obj
 0002:000049e8       ??_C@_1M@OONGHFHE@?$AAe?$AAs?$AA?9?$AAA?$AAR@ 100249e8     libucrt:lcidtoname_downlevel.obj
 0002:000049f4       ??_C@_1M@OOJFGBHE@?$AAa?$AAr?$AA?9?$AAL?$AAB@ 100249f4     libucrt:lcidtoname_downlevel.obj
 0002:00004a00       ??_C@_1M@GCEJHNEG@?$AAe?$AAn?$AA?9?$AAZ?$AAW@ 10024a00     libucrt:lcidtoname_downlevel.obj
 0002:00004a0c       ??_C@_1M@JNOCAHJI@?$AAe?$AAs?$AA?9?$AAE?$AAC@ 10024a0c     libucrt:lcidtoname_downlevel.obj
 0002:00004a18       ??_C@_1M@JEFHPGGB@?$AAa?$AAr?$AA?9?$AAK?$AAW@ 10024a18     libucrt:lcidtoname_downlevel.obj
 0002:00004a24       ??_C@_1M@MLKIBJOJ@?$AAe?$AAn?$AA?9?$AAP?$AAH@ 10024a24     libucrt:lcidtoname_downlevel.obj
 0002:00004a30       ??_C@_1M@BDNIPEND@?$AAe?$AAs?$AA?9?$AAC?$AAL@ 10024a30     libucrt:lcidtoname_downlevel.obj
 0002:00004a3c       ??_C@_1M@MPNMEKBD@?$AAa?$AAr?$AA?9?$AAA?$AAE@ 10024a3c     libucrt:lcidtoname_downlevel.obj
 0002:00004a48       ??_C@_1M@KBJALCPI@?$AAe?$AAs?$AA?9?$AAU?$AAY@ 10024a48     libucrt:lcidtoname_downlevel.obj
 0002:00004a54       ??_C@_1M@LLCCOAGA@?$AAa?$AAr?$AA?9?$AAB?$AAH@ 10024a54     libucrt:lcidtoname_downlevel.obj
 0002:00004a60       ??_C@_1M@PBFNCDEL@?$AAe?$AAs?$AA?9?$AAP?$AAY@ 10024a60     libucrt:lcidtoname_downlevel.obj
 0002:00004a6c       ??_C@_1M@EDGINPNP@?$AAa?$AAr?$AA?9?$AAQ?$AAA@ 10024a6c     libucrt:lcidtoname_downlevel.obj
 0002:00004a78       ??_C@_1M@MKDBIIJI@?$AAe?$AAs?$AA?9?$AAB?$AAO@ 10024a78     libucrt:lcidtoname_downlevel.obj
 0002:00004a84       ??_C@_1M@CPKKEBLD@?$AAe?$AAs?$AA?9?$AAS?$AAV@ 10024a84     libucrt:lcidtoname_downlevel.obj
 0002:00004a90       ??_C@_1M@NDBGMMJL@?$AAe?$AAs?$AA?9?$AAH?$AAN@ 10024a90     libucrt:lcidtoname_downlevel.obj
 0002:00004a9c       ??_C@_1M@JIJIBHDP@?$AAe?$AAs?$AA?9?$AAN?$AAI@ 10024a9c     libucrt:lcidtoname_downlevel.obj
 0002:00004aa8       ??_C@_1M@CGFMKEEK@?$AAe?$AAs?$AA?9?$AAP?$AAR@ 10024aa8     libucrt:lcidtoname_downlevel.obj
 0002:00004ab4       ??_C@_1O@ICJHKIIK@?$AAz?$AAh?$AA?9?$AAC?$AAH?$AAT@ 10024ab4     libucrt:lcidtoname_downlevel.obj
 0002:00004ac4       ??_C@_15CLNEJCE@?$AAs?$AAr@ 10024ac4     libucrt:lcidtoname_downlevel.obj
 0002:000051f0       ??_C@_1M@KAHEKEIG@?$AAa?$AAf?$AA?9?$AAz?$AAa@ 100251f0     libucrt:lcidtoname_downlevel.obj
 0002:000051fc       ??_C@_1M@GIECOABL@?$AAa?$AAr?$AA?9?$AAa?$AAe@ 100251fc     libucrt:lcidtoname_downlevel.obj
 0002:00005208       ??_C@_1M@BMLMEKGI@?$AAa?$AAr?$AA?9?$AAb?$AAh@ 10025208     libucrt:lcidtoname_downlevel.obj
 0002:00005214       ??_C@_1M@DAPFDGGB@?$AAa?$AAr?$AA?9?$AAd?$AAz@ 10025214     libucrt:lcidtoname_downlevel.obj
 0002:00005220       ??_C@_1M@FJNKGKIG@?$AAa?$AAr?$AA?9?$AAe?$AAg@ 10025220     libucrt:lcidtoname_downlevel.obj
 0002:0000522c       ??_C@_1M@FLGKKCLO@?$AAa?$AAr?$AA?9?$AAi?$AAq@ 1002522c     libucrt:lcidtoname_downlevel.obj
 0002:00005238       ??_C@_1M@GNDIPALM@?$AAa?$AAr?$AA?9?$AAj?$AAo@ 10025238     libucrt:lcidtoname_downlevel.obj
 0002:00005244       ??_C@_1M@DDMJFMGJ@?$AAa?$AAr?$AA?9?$AAk?$AAw@ 10025244     libucrt:lcidtoname_downlevel.obj
 0002:00005250       ??_C@_1M@EJALMLHM@?$AAa?$AAr?$AA?9?$AAl?$AAb@ 10025250     libucrt:lcidtoname_downlevel.obj
 0002:0000525c       ??_C@_1M@MOBDBLOC@?$AAa?$AAr?$AA?9?$AAl?$AAy@ 1002525c     libucrt:lcidtoname_downlevel.obj
 0002:00005268       ??_C@_1M@JAOCLHDH@?$AAa?$AAr?$AA?9?$AAm?$AAa@ 10025268     libucrt:lcidtoname_downlevel.obj
 0002:00005274       ??_C@_1M@JHPMKJIE@?$AAa?$AAr?$AA?9?$AAo?$AAm@ 10025274     libucrt:lcidtoname_downlevel.obj
 0002:00005280       ??_C@_1M@OEPGHFNH@?$AAa?$AAr?$AA?9?$AAq?$AAa@ 10025280     libucrt:lcidtoname_downlevel.obj
 0002:0000528c       ??_C@_1M@KJDONENM@?$AAa?$AAr?$AA?9?$AAs?$AAa@ 1002528c     libucrt:lcidtoname_downlevel.obj
 0002:00005298       ??_C@_1M@DMJDKLKM@?$AAa?$AAr?$AA?9?$AAs?$AAy@ 10025298     libucrt:lcidtoname_downlevel.obj
 0002:000052a4       ??_C@_1M@OMFIPEDC@?$AAa?$AAr?$AA?9?$AAt?$AAn@ 100252a4     libucrt:lcidtoname_downlevel.obj
 0002:000052b0       ??_C@_1M@IHMHGAON@?$AAa?$AAr?$AA?9?$AAy?$AAe@ 100252b0     libucrt:lcidtoname_downlevel.obj
 0002:000052bc       ??_C@_1BG@KDCPGJGB@?$AAa?$AAz?$AA?9?$AAa?$AAz?$AA?9?$AAc?$AAy?$AAr?$AAl@ 100252bc     libucrt:lcidtoname_downlevel.obj
 0002:000052d4       ??_C@_1BG@IBCKDDOE@?$AAa?$AAz?$AA?9?$AAa?$AAz?$AA?9?$AAl?$AAa?$AAt?$AAn@ 100252d4     libucrt:lcidtoname_downlevel.obj
 0002:000052ec       ??_C@_1M@EGPFDCPD@?$AAb?$AAe?$AA?9?$AAb?$AAy@ 100252ec     libucrt:lcidtoname_downlevel.obj
 0002:000052f8       ??_C@_1M@PCMGMCGC@?$AAb?$AAg?$AA?9?$AAb?$AAg@ 100252f8     libucrt:lcidtoname_downlevel.obj
 0002:00005304       ??_C@_1M@BJBMFGOB@?$AAb?$AAn?$AA?9?$AAi?$AAn@ 10025304     libucrt:lcidtoname_downlevel.obj
 0002:00005310       ??_C@_1BG@EAKMMACD@?$AAb?$AAs?$AA?9?$AAb?$AAa?$AA?9?$AAl?$AAa?$AAt?$AAn@ 10025310     libucrt:lcidtoname_downlevel.obj
 0002:00005328       ??_C@_1M@KGADAODK@?$AAc?$AAa?$AA?9?$AAe?$AAs@ 10025328     libucrt:lcidtoname_downlevel.obj
 0002:00005334       ??_C@_1M@COAJPDHI@?$AAc?$AAs?$AA?9?$AAc?$AAz@ 10025334     libucrt:lcidtoname_downlevel.obj
 0002:00005340       ??_C@_1M@DHBHFONH@?$AAc?$AAy?$AA?9?$AAg?$AAb@ 10025340     libucrt:lcidtoname_downlevel.obj
 0002:0000534c       ??_C@_1M@IMGKELGA@?$AAd?$AAa?$AA?9?$AAd?$AAk@ 1002534c     libucrt:lcidtoname_downlevel.obj
 0002:00005358       ??_C@_1M@NNDGDNGA@?$AAd?$AAe?$AA?9?$AAa?$AAt@ 10025358     libucrt:lcidtoname_downlevel.obj
 0002:00005364       ??_C@_1M@IKDBHEEM@?$AAd?$AAe?$AA?9?$AAc?$AAh@ 10025364     libucrt:lcidtoname_downlevel.obj
 0002:00005370       ??_C@_1M@GFFOJMCJ@?$AAd?$AAe?$AA?9?$AAd?$AAe@ 10025370     libucrt:lcidtoname_downlevel.obj
 0002:0000537c       ??_C@_1M@MDNLKBPM@?$AAd?$AAe?$AA?9?$AAl?$AAi@ 1002537c     libucrt:lcidtoname_downlevel.obj
 0002:00005388       ??_C@_1M@NJBEEJNL@?$AAd?$AAe?$AA?9?$AAl?$AAu@ 10025388     libucrt:lcidtoname_downlevel.obj
 0002:00005394       ??_C@_1O@GNNELBAP@?$AAd?$AAi?$AAv?$AA?9?$AAm?$AAv@ 10025394     libucrt:lcidtoname_downlevel.obj
 0002:000053a4       ??_C@_1M@EJLEOGAE@?$AAe?$AAl?$AA?9?$AAg?$AAr@ 100253a4     libucrt:lcidtoname_downlevel.obj
 0002:000053b0       ??_C@_1M@GMPONJN@?$AAe?$AAn?$AA?9?$AAa?$AAu@ 100253b0     libucrt:lcidtoname_downlevel.obj
 0002:000053bc       ??_C@_1M@NIDIIPGF@?$AAe?$AAn?$AA?9?$AAb?$AAz@ 100253bc     libucrt:lcidtoname_downlevel.obj
 0002:000053c8       ??_C@_1M@JEHMIMFO@?$AAe?$AAn?$AA?9?$AAc?$AAa@ 100253c8     libucrt:lcidtoname_downlevel.obj
 0002:000053d4       ??_C@_1M@IGMJCDLA@?$AAe?$AAn?$AA?9?$AAc?$AAb@ 100253d4     libucrt:lcidtoname_downlevel.obj
 0002:000053e0       ??_C@_1M@BNFIGBKG@?$AAe?$AAn?$AA?9?$AAg?$AAb@ 100253e0     libucrt:lcidtoname_downlevel.obj
 0002:000053ec       ??_C@_1M@LKIFDIGP@?$AAe?$AAn?$AA?9?$AAi?$AAe@ 100253ec     libucrt:lcidtoname_downlevel.obj
 0002:000053f8       ??_C@_1M@PJKFGCCO@?$AAe?$AAn?$AA?9?$AAj?$AAm@ 100253f8     libucrt:lcidtoname_downlevel.obj
 0002:00005404       ??_C@_1M@KPPKEPBO@?$AAe?$AAn?$AA?9?$AAn?$AAz@ 10025404     libucrt:lcidtoname_downlevel.obj
 0002:00005410       ??_C@_1M@GMDGLDOB@?$AAe?$AAn?$AA?9?$AAp?$AAh@ 10025410     libucrt:lcidtoname_downlevel.obj
 0002:0000541c       ??_C@_1M@ONGIBJNA@?$AAe?$AAn?$AA?9?$AAt?$AAt@ 1002541c     libucrt:lcidtoname_downlevel.obj
 0002:00005428       ??_C@_1M@LLODPCMM@?$AAe?$AAn?$AA?9?$AAu?$AAs@ 10025428     libucrt:lcidtoname_downlevel.obj
 0002:00005434       ??_C@_1M@LAKFNPAN@?$AAe?$AAn?$AA?9?$AAz?$AAa@ 10025434     libucrt:lcidtoname_downlevel.obj
 0002:00005440       ??_C@_1M@MFNHNHEO@?$AAe?$AAn?$AA?9?$AAz?$AAw@ 10025440     libucrt:lcidtoname_downlevel.obj
 0002:0000544c       ??_C@_1M@EJEINPHM@?$AAe?$AAs?$AA?9?$AAa?$AAr@ 1002544c     libucrt:lcidtoname_downlevel.obj
 0002:00005458       ??_C@_1M@GNKPCCJA@?$AAe?$AAs?$AA?9?$AAb?$AAo@ 10025458     libucrt:lcidtoname_downlevel.obj
 0002:00005464       ??_C@_1M@LEEGFONL@?$AAe?$AAs?$AA?9?$AAc?$AAl@ 10025464     libucrt:lcidtoname_downlevel.obj
 0002:00005470       ??_C@_1M@KGPDPBDF@?$AAe?$AAs?$AA?9?$AAc?$AAo@ 10025470     libucrt:lcidtoname_downlevel.obj
 0002:0000547c       ??_C@_1M@EIAHOHH@?$AAe?$AAs?$AA?9?$AAc?$AAr@ 1002547c     libucrt:lcidtoname_downlevel.obj
 0002:00005488       ??_C@_1M@LLPGMBIN@?$AAe?$AAs?$AA?9?$AAd?$AAo@ 10025488     libucrt:lcidtoname_downlevel.obj
 0002:00005494       ??_C@_1M@DKHMKNJA@?$AAe?$AAs?$AA?9?$AAe?$AAc@ 10025494     libucrt:lcidtoname_downlevel.obj
 0002:000054a0       ??_C@_1M@GKGFPKAP@?$AAe?$AAs?$AA?9?$AAe?$AAs@ 100254a0     libucrt:lcidtoname_downlevel.obj
 0002:000054ac       ??_C@_1M@LKHKGDLN@?$AAe?$AAs?$AA?9?$AAg?$AAt@ 100254ac     libucrt:lcidtoname_downlevel.obj
 0002:000054b8       ??_C@_1M@HEIIGGJD@?$AAe?$AAs?$AA?9?$AAh?$AAn@ 100254b8     libucrt:lcidtoname_downlevel.obj
 0002:000054c4       ??_C@_1M@FBDHPPGD@?$AAe?$AAs?$AA?9?$AAm?$AAx@ 100254c4     libucrt:lcidtoname_downlevel.obj
 0002:000054d0       ??_C@_1M@DPAGLNDH@?$AAe?$AAs?$AA?9?$AAn?$AAi@ 100254d0     libucrt:lcidtoname_downlevel.obj
 0002:000054dc       ??_C@_1M@MDGOPGDD@?$AAe?$AAs?$AA?9?$AAp?$AAa@ 100254dc     libucrt:lcidtoname_downlevel.obj
 0002:000054e8       ??_C@_1M@EMAMGBGE@?$AAe?$AAs?$AA?9?$AAp?$AAe@ 100254e8     libucrt:lcidtoname_downlevel.obj
 0002:000054f4       ??_C@_1M@IBMCAOEC@?$AAe?$AAs?$AA?9?$AAp?$AAr@ 100254f4     libucrt:lcidtoname_downlevel.obj
 0002:00005500       ??_C@_1M@FGMDIJED@?$AAe?$AAs?$AA?9?$AAp?$AAy@ 10025500     libucrt:lcidtoname_downlevel.obj
 0002:0000550c       ??_C@_1M@IIDEOLLL@?$AAe?$AAs?$AA?9?$AAs?$AAv@ 1002550c     libucrt:lcidtoname_downlevel.obj
 0002:00005518       ??_C@_1M@GAOBIPA@?$AAe?$AAs?$AA?9?$AAu?$AAy@ 10025518     libucrt:lcidtoname_downlevel.obj
 0002:00005524       ??_C@_1M@JKFFICHJ@?$AAe?$AAs?$AA?9?$AAv?$AAe@ 10025524     libucrt:lcidtoname_downlevel.obj
 0002:00005530       ??_C@_1M@PNMLOJDF@?$AAe?$AAt?$AA?9?$AAe?$AAe@ 10025530     libucrt:lcidtoname_downlevel.obj
 0002:0000553c       ??_C@_1M@GHHLIKEI@?$AAe?$AAu?$AA?9?$AAe?$AAs@ 1002553c     libucrt:lcidtoname_downlevel.obj
 0002:00005548       ??_C@_1M@PBNONODE@?$AAf?$AAa?$AA?9?$AAi?$AAr@ 10025548     libucrt:lcidtoname_downlevel.obj
 0002:00005554       ??_C@_1M@JEEHPMIL@?$AAf?$AAi?$AA?9?$AAf?$AAi@ 10025554     libucrt:lcidtoname_downlevel.obj
 0002:00005560       ??_C@_1M@LMDCNDBA@?$AAf?$AAo?$AA?9?$AAf?$AAo@ 10025560     libucrt:lcidtoname_downlevel.obj
 0002:0000556c       ??_C@_1M@JKEOHLDK@?$AAf?$AAr?$AA?9?$AAb?$AAe@ 1002556c     libucrt:lcidtoname_downlevel.obj
 0002:00005578       ??_C@_1M@NOHADPMI@?$AAf?$AAr?$AA?9?$AAc?$AAa@ 10025578     libucrt:lcidtoname_downlevel.obj
 0002:00005584       ??_C@_1M@KDHIHAEC@?$AAf?$AAr?$AA?9?$AAc?$AAh@ 10025584     libucrt:lcidtoname_downlevel.obj
 0002:00005590       ??_C@_1M@MMBBFGAK@?$AAf?$AAr?$AA?9?$AAf?$AAr@ 10025590     libucrt:lcidtoname_downlevel.obj
 0002:0000559c       ??_C@_1M@PAFNENNF@?$AAf?$AAr?$AA?9?$AAl?$AAu@ 1002559c     libucrt:lcidtoname_downlevel.obj
 0002:000055a8       ??_C@_1M@EOHDJGDD@?$AAf?$AAr?$AA?9?$AAm?$AAc@ 100255a8     libucrt:lcidtoname_downlevel.obj
 0002:000055b4       ??_C@_1M@FAPLLOPF@?$AAg?$AAl?$AA?9?$AAe?$AAs@ 100255b4     libucrt:lcidtoname_downlevel.obj
 0002:000055c0       ??_C@_1M@FOPBFLOO@?$AAg?$AAu?$AA?9?$AAi?$AAn@ 100255c0     libucrt:lcidtoname_downlevel.obj
 0002:000055cc       ??_C@_1M@KBMCINPM@?$AAh?$AAe?$AA?9?$AAi?$AAl@ 100255cc     libucrt:lcidtoname_downlevel.obj
 0002:000055d8       ??_C@_1M@BBPHKFPJ@?$AAh?$AAi?$AA?9?$AAi?$AAn@ 100255d8     libucrt:lcidtoname_downlevel.obj
 0002:000055e4       ??_C@_1M@PMBNDPHD@?$AAh?$AAr?$AA?9?$AAb?$AAa@ 100255e4     libucrt:lcidtoname_downlevel.obj
 0002:000055f0       ??_C@_1M@BPCKOEGE@?$AAh?$AAr?$AA?9?$AAh?$AAr@ 100255f0     libucrt:lcidtoname_downlevel.obj
 0002:000055fc       ??_C@_1M@GACBMHKE@?$AAh?$AAu?$AA?9?$AAh?$AAu@ 100255fc     libucrt:lcidtoname_downlevel.obj
 0002:00005608       ??_C@_1M@MILPAJJC@?$AAh?$AAy?$AA?9?$AAa?$AAm@ 10025608     libucrt:lcidtoname_downlevel.obj
 0002:00005614       ??_C@_1M@BABBICEC@?$AAi?$AAd?$AA?9?$AAi?$AAd@ 10025614     libucrt:lcidtoname_downlevel.obj
 0002:00005620       ??_C@_1M@BIKNHHPF@?$AAi?$AAs?$AA?9?$AAi?$AAs@ 10025620     libucrt:lcidtoname_downlevel.obj
 0002:0000562c       ??_C@_1M@NMPCJPHE@?$AAi?$AAt?$AA?9?$AAc?$AAh@ 1002562c     libucrt:lcidtoname_downlevel.obj
 0002:00005638       ??_C@_1M@GHKGFEDF@?$AAi?$AAt?$AA?9?$AAi?$AAt@ 10025638     libucrt:lcidtoname_downlevel.obj
 0002:00005644       ??_C@_1M@NIEJCJJA@?$AAj?$AAa?$AA?9?$AAj?$AAp@ 10025644     libucrt:lcidtoname_downlevel.obj
 0002:00005650       ??_C@_1M@JILFNBIM@?$AAk?$AAa?$AA?9?$AAg?$AAe@ 10025650     libucrt:lcidtoname_downlevel.obj
 0002:0000565c       ??_C@_1M@PACPMGPH@?$AAk?$AAk?$AA?9?$AAk?$AAz@ 1002565c     libucrt:lcidtoname_downlevel.obj
 0002:00005668       ??_C@_1M@IELFGMHA@?$AAk?$AAn?$AA?9?$AAi?$AAn@ 10025668     libucrt:lcidtoname_downlevel.obj
 0002:00005674       ??_C@_1O@IBBJHCH@?$AAk?$AAo?$AAk?$AA?9?$AAi?$AAn@ 10025674     libucrt:lcidtoname_downlevel.obj
 0002:00005684       ??_C@_1M@DMHAEOGC@?$AAk?$AAo?$AA?9?$AAk?$AAr@ 10025684     libucrt:lcidtoname_downlevel.obj
 0002:00005690       ??_C@_1M@HBAHBIGA@?$AAk?$AAy?$AA?9?$AAk?$AAg@ 10025690     libucrt:lcidtoname_downlevel.obj
 0002:0000569c       ??_C@_1M@KPMILCJG@?$AAl?$AAt?$AA?9?$AAl?$AAt@ 1002569c     libucrt:lcidtoname_downlevel.obj
 0002:000056a8       ??_C@_1M@BDEKKCA@?$AAl?$AAv?$AA?9?$AAl?$AAv@ 100256a8     libucrt:lcidtoname_downlevel.obj
 0002:000056b4       ??_C@_1M@ELCKCCJJ@?$AAm?$AAi?$AA?9?$AAn?$AAz@ 100256b4     libucrt:lcidtoname_downlevel.obj
 0002:000056c0       ??_C@_1M@CBOOLAPA@?$AAm?$AAk?$AA?9?$AAm?$AAk@ 100256c0     libucrt:lcidtoname_downlevel.obj
 0002:000056cc       ??_C@_1M@GPHNBJKN@?$AAm?$AAl?$AA?9?$AAi?$AAn@ 100256cc     libucrt:lcidtoname_downlevel.obj
 0002:000056d8       ??_C@_1M@PABJILIG@?$AAm?$AAn?$AA?9?$AAm?$AAn@ 100256d8     libucrt:lcidtoname_downlevel.obj
 0002:000056e4       ??_C@_1M@FGBKKIPG@?$AAm?$AAr?$AA?9?$AAi?$AAn@ 100256e4     libucrt:lcidtoname_downlevel.obj
 0002:000056f0       ??_C@_1M@NDBPDDAL@?$AAm?$AAs?$AA?9?$AAb?$AAn@ 100256f0     libucrt:lcidtoname_downlevel.obj
 0002:000056fc       ??_C@_1M@OPIHOOPI@?$AAm?$AAs?$AA?9?$AAm?$AAy@ 100256fc     libucrt:lcidtoname_downlevel.obj
 0002:00005708       ??_C@_1M@PPDBCNFM@?$AAm?$AAt?$AA?9?$AAm?$AAt@ 10025708     libucrt:lcidtoname_downlevel.obj
 0002:00005714       ??_C@_1M@KDJDKMDD@?$AAn?$AAb?$AA?9?$AAn?$AAo@ 10025714     libucrt:lcidtoname_downlevel.obj
 0002:00005720       ??_C@_1M@KFCFLMJP@?$AAn?$AAl?$AA?9?$AAb?$AAe@ 10025720     libucrt:lcidtoname_downlevel.obj
 0002:0000572c       ??_C@_1M@KPOPDDGO@?$AAn?$AAl?$AA?9?$AAn?$AAl@ 1002572c     libucrt:lcidtoname_downlevel.obj
 0002:00005738       ??_C@_1M@LJKPEMLN@?$AAn?$AAn?$AA?9?$AAn?$AAo@ 10025738     libucrt:lcidtoname_downlevel.obj
 0002:00005744       ??_C@_1M@BDGHHBFL@?$AAn?$AAs?$AA?9?$AAz?$AAa@ 10025744     libucrt:lcidtoname_downlevel.obj
 0002:00005750       ??_C@_1M@IDEHOAP@?$AAp?$AAa?$AA?9?$AAi?$AAn@ 10025750     libucrt:lcidtoname_downlevel.obj
 0002:0000575c       ??_C@_1M@HDBKGOGH@?$AAp?$AAl?$AA?9?$AAp?$AAl@ 1002575c     libucrt:lcidtoname_downlevel.obj
 0002:00005768       ??_C@_1M@LJLLCMEH@?$AAp?$AAt?$AA?9?$AAb?$AAr@ 10025768     libucrt:lcidtoname_downlevel.obj
 0002:00005774       ??_C@_1M@NCMONAAL@?$AAp?$AAt?$AA?9?$AAp?$AAt@ 10025774     libucrt:lcidtoname_downlevel.obj
 0002:00005780       ??_C@_1O@EAKMAJDN@?$AAq?$AAu?$AAz?$AA?9?$AAb?$AAo@ 10025780     libucrt:lcidtoname_downlevel.obj
 0002:00005790       ??_C@_1O@BHHPIGDN@?$AAq?$AAu?$AAz?$AA?9?$AAe?$AAc@ 10025790     libucrt:lcidtoname_downlevel.obj
 0002:000057a0       ??_C@_1O@GBAPEKMJ@?$AAq?$AAu?$AAz?$AA?9?$AAp?$AAe@ 100257a0     libucrt:lcidtoname_downlevel.obj
 0002:000057b0       ??_C@_1M@CLGLEFBO@?$AAr?$AAo?$AA?9?$AAr?$AAo@ 100257b0     libucrt:lcidtoname_downlevel.obj
 0002:000057bc       ??_C@_1M@CEEDODME@?$AAr?$AAu?$AA?9?$AAr?$AAu@ 100257bc     libucrt:lcidtoname_downlevel.obj
 0002:000057c8       ??_C@_1M@HPKKKMPP@?$AAs?$AAa?$AA?9?$AAi?$AAn@ 100257c8     libucrt:lcidtoname_downlevel.obj
 0002:000057d4       ??_C@_1M@BKMAIGOJ@?$AAs?$AAe?$AA?9?$AAf?$AAi@ 100257d4     libucrt:lcidtoname_downlevel.obj
 0002:000057e0       ??_C@_1M@NDPIFLFI@?$AAs?$AAe?$AA?9?$AAn?$AAo@ 100257e0     libucrt:lcidtoname_downlevel.obj
 0002:000057ec       ??_C@_1M@DANKKHJ@?$AAs?$AAe?$AA?9?$AAs?$AAe@ 100257ec     libucrt:lcidtoname_downlevel.obj
 0002:000057f8       ??_C@_1M@PNBLONPJ@?$AAs?$AAk?$AA?9?$AAs?$AAk@ 100257f8     libucrt:lcidtoname_downlevel.obj
 0002:00005804       ??_C@_1M@LFMODOAL@?$AAs?$AAl?$AA?9?$AAs?$AAi@ 10025804     libucrt:lcidtoname_downlevel.obj
 0002:00005810       ??_C@_1O@DFKOMPG@?$AAs?$AAm?$AAa?$AA?9?$AAn?$AAo@ 10025810     libucrt:lcidtoname_downlevel.obj
 0002:00005820       ??_C@_1O@NDKPBNNH@?$AAs?$AAm?$AAa?$AA?9?$AAs?$AAe@ 10025820     libucrt:lcidtoname_downlevel.obj
 0002:00005830       ??_C@_1O@PLLKBHAB@?$AAs?$AAm?$AAj?$AA?9?$AAn?$AAo@ 10025830     libucrt:lcidtoname_downlevel.obj
 0002:00005840       ??_C@_1O@CLEPOGCA@?$AAs?$AAm?$AAj?$AA?9?$AAs?$AAe@ 10025840     libucrt:lcidtoname_downlevel.obj
 0002:00005850       ??_C@_1O@DLGJGKMK@?$AAs?$AAm?$AAn?$AA?9?$AAf?$AAi@ 10025850     libucrt:lcidtoname_downlevel.obj
 0002:00005860       ??_C@_1O@OJDJGAJC@?$AAs?$AAm?$AAs?$AA?9?$AAf?$AAi@ 10025860     libucrt:lcidtoname_downlevel.obj
 0002:00005870       ??_C@_1M@BOFOGHPB@?$AAs?$AAq?$AA?9?$AAa?$AAl@ 10025870     libucrt:lcidtoname_downlevel.obj
 0002:0000587c       ??_C@_1BG@LJBBIPGB@?$AAs?$AAr?$AA?9?$AAb?$AAa?$AA?9?$AAc?$AAy?$AAr?$AAl@ 1002587c     libucrt:lcidtoname_downlevel.obj
 0002:00005894       ??_C@_1BG@JLBENFOE@?$AAs?$AAr?$AA?9?$AAb?$AAa?$AA?9?$AAl?$AAa?$AAt?$AAn@ 10025894     libucrt:lcidtoname_downlevel.obj
 0002:000058ac       ??_C@_1BG@KODPNHE@?$AAs?$AAr?$AA?9?$AAs?$AAp?$AA?9?$AAc?$AAy?$AAr?$AAl@ 100258ac     libucrt:lcidtoname_downlevel.obj
 0002:000058c4       ??_C@_1BG@CIOGKHPB@?$AAs?$AAr?$AA?9?$AAs?$AAp?$AA?9?$AAl?$AAa?$AAt?$AAn@ 100258c4     libucrt:lcidtoname_downlevel.obj
 0002:000058dc       ??_C@_1M@NGFJLMAC@?$AAs?$AAv?$AA?9?$AAf?$AAi@ 100258dc     libucrt:lcidtoname_downlevel.obj
 0002:000058e8       ??_C@_1M@MPJEJAJC@?$AAs?$AAv?$AA?9?$AAs?$AAe@ 100258e8     libucrt:lcidtoname_downlevel.obj
 0002:000058f4       ??_C@_1M@MPNDHLFK@?$AAs?$AAw?$AA?9?$AAk?$AAe@ 100258f4     libucrt:lcidtoname_downlevel.obj
 0002:00005900       ??_C@_1O@KOHBJJI@?$AAs?$AAy?$AAr?$AA?9?$AAs?$AAy@ 10025900     libucrt:lcidtoname_downlevel.obj
 0002:00005910       ??_C@_1M@LDCEFHA@?$AAt?$AAa?$AA?9?$AAi?$AAn@ 10025910     libucrt:lcidtoname_downlevel.obj
 0002:0000591c       ??_C@_1M@CNJOFAK@?$AAt?$AAe?$AA?9?$AAi?$AAn@ 1002591c     libucrt:lcidtoname_downlevel.obj
 0002:00005928       ??_C@_1M@GNAECACD@?$AAt?$AAh?$AA?9?$AAt?$AAh@ 10025928     libucrt:lcidtoname_downlevel.obj
 0002:00005934       ??_C@_1M@CHBIHOJO@?$AAt?$AAn?$AA?9?$AAz?$AAa@ 10025934     libucrt:lcidtoname_downlevel.obj
 0002:00005940       ??_C@_1M@GCCMIGPJ@?$AAt?$AAr?$AA?9?$AAt?$AAr@ 10025940     libucrt:lcidtoname_downlevel.obj
 0002:0000594c       ??_C@_1M@CELMCNBK@?$AAt?$AAt?$AA?9?$AAr?$AAu@ 1002594c     libucrt:lcidtoname_downlevel.obj
 0002:00005958       ??_C@_1M@KLMCELGA@?$AAu?$AAk?$AA?9?$AAu?$AAa@ 10025958     libucrt:lcidtoname_downlevel.obj
 0002:00005964       ??_C@_1M@EPAJJAJF@?$AAu?$AAr?$AA?9?$AAp?$AAk@ 10025964     libucrt:lcidtoname_downlevel.obj
 0002:00005970       ??_C@_1BG@GEGPMCDJ@?$AAu?$AAz?$AA?9?$AAu?$AAz?$AA?9?$AAc?$AAy?$AAr?$AAl@ 10025970     libucrt:lcidtoname_downlevel.obj
 0002:00005988       ??_C@_1BG@EGGKJILM@?$AAu?$AAz?$AA?9?$AAu?$AAz?$AA?9?$AAl?$AAa?$AAt?$AAn@ 10025988     libucrt:lcidtoname_downlevel.obj
 0002:000059a0       ??_C@_1M@GFOCLFF@?$AAv?$AAi?$AA?9?$AAv?$AAn@ 100259a0     libucrt:lcidtoname_downlevel.obj
 0002:000059ac       ??_C@_1M@CPAMEDFI@?$AAx?$AAh?$AA?9?$AAz?$AAa@ 100259ac     libucrt:lcidtoname_downlevel.obj
 0002:000059b8       ??_C@_1O@EBKIFIGN@?$AAz?$AAh?$AA?9?$AAc?$AAh?$AAs@ 100259b8     libucrt:lcidtoname_downlevel.obj
 0002:000059c8       ??_C@_1O@NMHPGANE@?$AAz?$AAh?$AA?9?$AAc?$AAh?$AAt@ 100259c8     libucrt:lcidtoname_downlevel.obj
 0002:000059d8       ??_C@_1M@LPINJOMC@?$AAz?$AAh?$AA?9?$AAc?$AAn@ 100259d8     libucrt:lcidtoname_downlevel.obj
 0002:000059e4       ??_C@_1M@OCJEJODD@?$AAz?$AAh?$AA?9?$AAh?$AAk@ 100259e4     libucrt:lcidtoname_downlevel.obj
 0002:000059f0       ??_C@_1M@DNDLJINH@?$AAz?$AAh?$AA?9?$AAm?$AAo@ 100259f0     libucrt:lcidtoname_downlevel.obj
 0002:000059fc       ??_C@_1M@MBFDNDND@?$AAz?$AAh?$AA?9?$AAs?$AAg@ 100259fc     libucrt:lcidtoname_downlevel.obj
 0002:00005a08       ??_C@_1M@IMEPLEPE@?$AAz?$AAh?$AA?9?$AAt?$AAw@ 10025a08     libucrt:lcidtoname_downlevel.obj
 0002:00005a14       ??_C@_1M@BBGHNHJP@?$AAz?$AAu?$AA?9?$AAz?$AAa@ 10025a14     libucrt:lcidtoname_downlevel.obj
 0002:00005a20       ?large_power_data@?1??multiply_by_power_of_ten@__crt_strtox@@YA_NAAUbig_integer@2@I@Z@4QBIB 10025a20     libucrt:cfout.obj
 0002:00006328       ?large_power_indices@?1??multiply_by_power_of_ten@__crt_strtox@@YA_NAAUbig_integer@2@I@Z@4QBUunpack_index@?1??12@YA_N0I@Z@B 10026328     libucrt:cfout.obj
 0002:000063c0       ?small_powers_of_ten@?1??multiply_by_power_of_ten@__crt_strtox@@YA_NAAUbig_integer@2@I@Z@4QBIB 100263c0     libucrt:cfout.obj
 0002:000063e4       ??_C@_01GBGANLPD@0@        100263e4     libucrt:cfout.obj
 0002:000063e8       ??_C@_05DNEBIAHO@1?$CDINF@ 100263e8     libucrt:cfout.obj
 0002:000063f0       ??_C@_06IMKFLFPG@1?$CDQNAN@ 100263f0     libucrt:cfout.obj
 0002:000063f8       ??_C@_06PGGFOGJG@1?$CDSNAN@ 100263f8     libucrt:cfout.obj
 0002:00006400       ??_C@_05PHHOCPM@1?$CDIND@  10026400     libucrt:cfout.obj
 0002:00006570       __infinity                 10026570     libucrt:87tran.obj
 0002:0000657a       __minfinity                1002657a     libucrt:87tran.obj
 0002:00006584       __logemax                  10026584     libucrt:87tran.obj
 0002:000065aa       __OP_EXPjmptab             100265aa     libucrt:87tran.obj
 0002:000065d0       __indefinite               100265d0     libucrt:87disp.obj
 0002:000065da       __piby2                    100265da     libucrt:87disp.obj
 0002:000065e4       __piby4                    100265e4     libucrt:87disp.obj
 0002:00006618       __DEFAULT_CW_in_mem        10026618     libucrt:common.obj
 0002:0000661a       __pi_by_2_to_61            1002661a     libucrt:common.obj
 0002:00006654       ??_C@_03MGHMBJCF@log@      10026654     libucrt:libm_error.obj
 0002:00006658       ??_C@_05HGHHAHAP@log10@    10026658     libucrt:libm_error.obj
 0002:00006660       ??_C@_03KHJOGHMM@exp@      10026660     libucrt:libm_error.obj
 0002:00006664       ??_C@_03JGHBODFD@pow@      10026664     libucrt:libm_error.obj
 0002:00006668       ??_C@_04FIHNOPOL@asin@     10026668     libucrt:libm_error.obj
 0002:00006670       ??_C@_04PDIFKINK@acos@     10026670     libucrt:libm_error.obj
 0002:00006678       ??_C@_04EIAKFFMI@sqrt@     10026678     libucrt:libm_error.obj
 0002:00006680       __real@3ff0000000000000    10026680     libucrt:libm_error.obj
 0002:00006688       ??_C@_1BA@BALFACEM@?$AAC?$AAO?$AAN?$AAO?$AAU?$AAT?$AA$@ 10026688     libucrt:initcon.obj
 0002:000066b0       ___acrt_log10_table_t      100266b0     libucrt:log10_tables.obj
 0002:00006ac0       ___acrt_log10_table_cb     10026ac0     libucrt:log10_tables.obj
 0002:00006ed0       __real@3fe0000000000000    10026ed0     libucrt:powhlp.obj
 0002:00006fc0       ??_C@_04COOMCNPB@sinh@     10026fc0     libucrt:fpexcept.obj
 0002:00006fc8       ??_C@_04HPJJNFIM@cosh@     10026fc8     libucrt:fpexcept.obj
 0002:00006fd0       ??_C@_04FJHINJAO@tanh@     10026fd0     libucrt:fpexcept.obj
 0002:00006fd8       ??_C@_04MLLJIGOK@atan@     10026fd8     libucrt:fpexcept.obj
 0002:00006fe0       ??_C@_05KNGEOGJB@atan2@    10026fe0     libucrt:fpexcept.obj
 0002:00006fe8       ??_C@_03BLEJJJBH@sin@      10026fe8     libucrt:fpexcept.obj
 0002:00006fec       ??_C@_03LALBNOCG@cos@      10026fec     libucrt:fpexcept.obj
 0002:00006ff0       ??_C@_03IIINPABG@tan@      10026ff0     libucrt:fpexcept.obj
 0002:00006ff4       ??_C@_04GFPJNGEK@ceil@     10026ff4     libucrt:fpexcept.obj
 0002:00006ffc       ??_C@_05PBJFFIGL@floor@    10026ffc     libucrt:fpexcept.obj
 0002:00007004       ??_C@_04ODHECPBC@fabs@     10027004     libucrt:fpexcept.obj
 0002:0000700c       ??_C@_04EHEDPDJG@modf@     1002700c     libucrt:fpexcept.obj
 0002:00007014       ??_C@_05CEJMAHNP@ldexp@    10027014     libucrt:fpexcept.obj
 0002:0000701c       ??_C@_05KBKMEMPO@_cabs@    1002701c     libucrt:fpexcept.obj
 0002:00007024       ??_C@_06MEIMCGCF@_hypot@   10027024     libucrt:fpexcept.obj
 0002:0000702c       ??_C@_04KEPJIHGP@fmod@     1002702c     libucrt:fpexcept.obj
 0002:00007034       ??_C@_05GKKHEGJL@frexp@    10027034     libucrt:fpexcept.obj
 0002:0000703c       ??_C@_03MJLDFKDL@_y0@      1002703c     libucrt:fpexcept.obj
 0002:00007040       ??_C@_03NAKIGLHK@_y1@      10027040     libucrt:fpexcept.obj
 0002:00007044       ??_C@_03ONILCKOB@_yn@      10027044     libucrt:fpexcept.obj
 0002:00007048       ??_C@_05JGDBENOH@_logb@    10027048     libucrt:fpexcept.obj
 0002:00007050       ??_C@_0L@KDOEJCKC@_nextafter@ 10027050     libucrt:fpexcept.obj
 0002:00007060       __d_inf                    10027060     libucrt:util.obj
 0002:00007068       __d_max                    10027068     libucrt:util.obj
 0002:00007070       __d_mzero                  10027070     libucrt:util.obj
 0002:000070e0       __load_config_used         100270e0     LIBCMT:loadcfg.obj
 0002:000071c0       __tls_used                 100271c0     LIBCMT:tlssup.obj
 0002:000071d8       ??_R4exception@std@@6B@    100271d8     LIBCMT:throw_bad_alloc.obj
 0002:000071ec       ??_R3exception@std@@8      100271ec     LIBCMT:throw_bad_alloc.obj
 0002:000071fc       ??_R2exception@std@@8      100271fc     LIBCMT:throw_bad_alloc.obj
 0002:00007204       ??_R1A@?0A@EA@exception@std@@8 10027204     LIBCMT:throw_bad_alloc.obj
 0002:00007220       ??_R4bad_alloc@std@@6B@    10027220     LIBCMT:throw_bad_alloc.obj
 0002:00007234       ??_R3bad_alloc@std@@8      10027234     LIBCMT:throw_bad_alloc.obj
 0002:00007244       ??_R2bad_alloc@std@@8      10027244     LIBCMT:throw_bad_alloc.obj
 0002:00007250       ??_R1A@?0A@EA@bad_alloc@std@@8 10027250     LIBCMT:throw_bad_alloc.obj
 0002:0000726c       ??_R4bad_array_new_length@std@@6B@ 1002726c     LIBCMT:throw_bad_alloc.obj
 0002:00007280       ??_R3bad_array_new_length@std@@8 10027280     LIBCMT:throw_bad_alloc.obj
 0002:00007290       ??_R2bad_array_new_length@std@@8 10027290     LIBCMT:throw_bad_alloc.obj
 0002:000072a0       ??_R1A@?0A@EA@bad_array_new_length@std@@8 100272a0     LIBCMT:throw_bad_alloc.obj
 0002:000072bc       ??_R4type_info@@6B@        100272bc     LIBCMT:std_type_info_static.obj
 0002:000072d0       ??_R3type_info@@8          100272d0     LIBCMT:std_type_info_static.obj
 0002:000072e0       ??_R2type_info@@8          100272e0     LIBCMT:std_type_info_static.obj
 0002:000072e8       ??_R1A@?0A@EA@type_info@@8 100272e8     LIBCMT:std_type_info_static.obj
 0002:00007304       ??_R4bad_exception@std@@6B@ 10027304     libvcruntime:frame.obj
 0002:00007318       ??_R3bad_exception@std@@8  10027318     libvcruntime:frame.obj
 0002:00007328       ??_R2bad_exception@std@@8  10027328     libvcruntime:frame.obj
 0002:00007334       ??_R1A@?0A@EA@bad_exception@std@@8 10027334     libvcruntime:frame.obj
 0002:00007350       ___safe_se_handler_table   10027350     <linker-defined>
 0002:0000737c       ___volatile_metadata       1002737c     <linker-defined>
 0002:000077b4       ___rtc_iaa                 100277b4     LIBCMT:initsect.obj
 0002:000077b8       ___rtc_izz                 100277b8     LIBCMT:initsect.obj
 0002:000077bc       ___rtc_taa                 100277bc     LIBCMT:initsect.obj
 0002:000077c0       ___rtc_tzz                 100277c0     LIBCMT:initsect.obj
 0002:000077c4       __tls_start                100277c4     LIBCMT:tlssup.obj
 0002:000077c8       __Init_thread_epoch        100277c8     LIBCMT:thread_safe_statics.obj
 0002:000077cc       __tls_end                  100277cc     LIBCMT:tlssup.obj
 0002:000078cc       __TI2?AVbad_alloc@std@@    100278cc     LIBCMT:throw_bad_alloc.obj
 0002:000078dc       __CTA2?AVbad_alloc@std@@   100278dc     LIBCMT:throw_bad_alloc.obj
 0002:000078e8       __CT??_R0?AVbad_alloc@std@@@8??0bad_alloc@std@@QAE@ABV01@@Z12 100278e8     LIBCMT:throw_bad_alloc.obj
 0002:00007904       __CT??_R0?AVexception@std@@@8??0exception@std@@QAE@ABV01@@Z12 10027904     LIBCMT:throw_bad_alloc.obj
 0002:00007920       __TI3?AVbad_array_new_length@std@@ 10027920     LIBCMT:throw_bad_alloc.obj
 0002:00007930       __CTA3?AVbad_array_new_length@std@@ 10027930     LIBCMT:throw_bad_alloc.obj
 0002:00007940       __CT??_R0?AVbad_array_new_length@std@@@8??0bad_array_new_length@std@@QAE@ABV01@@Z12 10027940     LIBCMT:throw_bad_alloc.obj
 0002:00007a64       __TI2?AVbad_exception@std@@ 10027a64     libvcruntime:frame.obj
 0002:00007a74       __CTA2?AVbad_exception@std@@ 10027a74     libvcruntime:frame.obj
 0002:00007a80       __CT??_R0?AVbad_exception@std@@@8??0bad_exception@std@@QAE@ABV01@@Z12 10027a80     libvcruntime:frame.obj
 0002:00007eac       ___pobjMapEntryFirst       10027eac     OposVariant.obj
 0002:00007eb0       ___pobjMapEntryLast        10027eb0     OposVariant.obj
 0002:00007f68       __IMPORT_DESCRIPTOR_KERNEL32 10027f68     kernel32:KERNEL32.dll
 0002:00007f7c       __IMPORT_DESCRIPTOR_USER32 10027f7c     user32:USER32.dll
 0002:00007f90       __IMPORT_DESCRIPTOR_GDI32  10027f90     gdi32:GDI32.dll
 0002:00007fa4       __IMPORT_DESCRIPTOR_ADVAPI32 10027fa4     advapi32:ADVAPI32.dll
 0002:00007fb8       __IMPORT_DESCRIPTOR_ole32  10027fb8     ole32:ole32.dll
 0002:00007fcc       __IMPORT_DESCRIPTOR_OLEAUT32 10027fcc     oleaut32:OLEAUT32.dll
 0002:00007fe0       __NULL_IMPORT_DESCRIPTOR   10027fe0     kernel32:KERNEL32.dll
 0003:00000000       ?rcDefault@CWindow@ATL@@2UtagRECT@@A 10029000     BumpBar.obj
 0003:00000010       ?s_Claim@?7??GetIDsOfNames@CComTypeInfoHolder@ATL@@QAEJABU_GUID@@PAPA_WIKPAJ@Z@4PA_WA 10029010     BumpBar.obj
 0003:00000028       ?s_Release@?7??GetIDsOfNames@CComTypeInfoHolder@ATL@@QAEJABU_GUID@@PAPA_WIKPAJ@Z@4PA_WA 10029028     BumpBar.obj
 0003:00000044       ?_tih@?$IDispatchImpl@UIOPOSBumpBar@@$1?IID_IOPOSBumpBar@@3U_GUID@@B$1?LIBID_OposBumpBar_CCO@@3U3@B$00$0A@VCComTypeInfoHolder@ATL@@@ATL@@1VCComTypeInfoHolder@2@A 10029044     BumpBar.obj
 0003:00000060       ?_tih@?$IProvideClassInfo2Impl@$1?CLSID_OPOSBumpBar@@3U_GUID@@B$1?DIID__IOPOSBumpBarEvents@@3U2@B$1?LIBID_OposBumpBar_CCO@@3U2@B$00$0A@VCComTypeInfoHolder@ATL@@@ATL@@1VCComTypeInfoHolder@2@A 10029060     BumpBar.obj
 0003:0000007c       ?vszContents@?6??Save@?$IPersistStorageImpl@VCOPOSBumpBar@@@ATL@@UAGJPAUIStorage@@H@Z@4PB_WB 1002907c     BumpBar.obj
 0003:00000080       ?wc@?1??GetWndClassInfo@?$CWindowImpl@VCOPOSBumpBar@@VCWindow@ATL@@V?$CWinTraits@$0FGAAAAAA@$0A@@3@@ATL@@SAAAU_ATL_WNDCLASSINFOW@3@XZ@4U43@A 10029080     BumpBar.obj
 0003:00000158       ?g_WindowName@@3PA_WA      10029158     BumpBarImpl.obj
 0003:00000178       ?g_ControlDescription@@3PADA 10029178     BumpBarImpl.obj
 0003:000001c0       ?g_ControlVersion@@3JA     100291c0     BumpBarImpl.obj
 0003:00000234       ___scrt_native_dllmain_reason 10029234     LIBCMT:utility.obj
 0003:00000238       __Init_global_epoch        10029238     LIBCMT:thread_safe_statics.obj
 0003:00000240       ___security_cookie_complement 10029240     LIBCMT:gs_cookie.obj
 0003:00000244       ___security_cookie         10029244     LIBCMT:gs_cookie.obj
 0003:00000248       ___isa_enabled             10029248     LIBCMT:cpu_disp.obj
 0003:00000260       __NLG_Destination          10029260     libvcruntime:exsup.obj
 0003:00000278       ___abort_behavior          10029278     libucrt:abort.obj
 0003:00000288       ___acrt_initial_locale_data 10029288     libucrt:nlsdata.obj
 0003:00000340       ___acrt_initial_locale_pointers 10029340     libucrt:nlsdata.obj
 0003:00000348       ___acrt_wide_c_locale_string 10029348     libucrt:nlsdata.obj
 0003:00000350       __iob                      10029350     libucrt:_file.obj
 0003:000003f8       ___acrt_initial_multibyte_data 100293f8     libucrt:mbctype.obj
 0003:00000918       ___acrt_lconv_c            10029918     libucrt:localeconv.obj
 0003:00000968       ___acrt_lconv_static_decimal 10029968     libucrt:localeconv.obj
 0003:0000096c       ___acrt_lconv_static_W_decimal 1002996c     libucrt:localeconv.obj
 0003:00000970       ___globallocalestatus      10029970     libucrt:glstatus.obj
 0003:00000980       __lookuptrailbytes         10029980     libucrt:read.obj
 0003:00000a90       __fltused                  10029a90     LIBCMT:fltused.obj
 0003:00000aa0       ??_R0?AVbad_alloc@std@@@8  10029aa0     LIBCMT:throw_bad_alloc.obj
 0003:00000abc       ??_R0?AVexception@std@@@8  10029abc     LIBCMT:throw_bad_alloc.obj
 0003:00000ad8       ??_R0?AVbad_array_new_length@std@@@8 10029ad8     LIBCMT:throw_bad_alloc.obj
 0003:00000b00       ??_R0?AVbad_exception@std@@@8 10029b00     libvcruntime:frame.obj
 0003:00000b20       ??_R0?AVtype_info@@@8      10029b20     LIBCMT:std_type_info_static.obj
 0003:00000b38       ?m_bInitFailed@CAtlBaseModule@ATL@@2_NA 10029b38     OposVariant.obj
 0003:00000b3c       ?_pPerfRegFunc@ATL@@3P6AJPAUHINSTANCE__@@@ZA 10029b3c     OposVariant.obj
 0003:00000b40       ?_pPerfUnRegFunc@ATL@@3P6AJXZA 10029b40     OposVariant.obj
 0003:00000b44       ?_AtlRegisterPerUser@ATL@@3_NA 10029b44     OposVariant.obj
 0003:00000b48       ?_pAtlModule@ATL@@3PAVCAtlModule@1@A 10029b48     OposVariant.obj
 0003:00000b4c       ?_pModule@ATL@@3PAVCComModule@1@A 10029b4c     OposVariant.obj
 0003:00000b50       ?_AtlComModule@ATL@@3VCAtlComModule@1@A 10029b50     OposVariant.obj
 0003:00000b78       ?_AtlWinModule@ATL@@3VCAtlWinModule@1@A 10029b78     OposVariant.obj
 0003:00000ba4       ?m_libid@CAtlModule@ATL@@2U_GUID@@A 10029ba4     BumpBar.obj
 0003:00000bb4       ?_entries@?1??GetConnMap@COPOSBumpBar@@SAPBU_ATL_CONNMAP_ENTRY@ATL@@PAH@Z@4QBU34@B 10029bb4     BumpBar.obj
 0003:00000bc0       ?$TSS0@?1??GetConnMap@COPOSBumpBar@@SAPBU_ATL_CONNMAP_ENTRY@ATL@@PAH@Z@4HA 10029bc0     BumpBar.obj
 0003:00000bc8       ?_OptionsStorage@?1??__local_stdio_printf_options@@9@4_KA 10029bc8     BumpBar.obj
 0003:00000bd0       ?pfnRegDeleteKeyEx@?1??DeleteSubKey@CRegKey@ATL@@QAEJPB_W@Z@4P6GJPAUHKEY__@@0KK@ZA 10029bd0     BumpBar.obj
 0003:00000bd4       ?bInitialized@?1??DeleteSubKey@CRegKey@ATL@@QAEJPB_W@Z@4_NA 10029bd4     BumpBar.obj
 0003:00000bd8       ?_Module@@3VCComModule@ATL@@A 10029bd8     BumpBar.obj
 0003:00000c08       ?pConnMap@?$IConnectionPointContainerImpl@VCOPOSBumpBar@@@ATL@@0PBU_ATL_CONNMAP_ENTRY@2@B 10029c08     BumpBar.obj
 0003:00000c0c       ?s_nInstances@COPOSBumpBar@@1HA 10029c0c     BumpBarImpl.obj
 0003:00000c10       ___scrt_current_native_startup_state 10029c10     LIBCMT:utility.obj
 0003:00000c14       ___scrt_native_startup_lock 10029c14     LIBCMT:utility.obj
 0003:00000f7c       __tls_index                10029f7c     LIBCMT:tlssup.obj
 0003:00000f84       ___isa_available           10029f84     LIBCMT:cpu_disp.obj
 0003:00000f88       ___favor                   10029f88     LIBCMT:cpu_disp.obj
 0003:00000f8c       ___scrt_debugger_hook_flag 10029f8c     LIBCMT:utility_desktop.obj
 0003:00000f90       ?__type_info_root_node@@3U__type_info_node@@A 10029f90     LIBCMT:tncleanup.obj
 0003:00000f98       ?_OptionsStorage@?1??__local_stdio_scanf_options@@9@4_KA 10029f98     LIBCMT:default_local_stdio_options.obj
 0003:00000fa0       ?_AtlBaseModule@ATL@@3VCAtlBaseModule@1@A 10029fa0     atls:atlbase.obj
 0003:00000fd8       ?__AtlThunkPool@@3PAT_SLIST_HEADER@@A 10029fd8     atls:atlthunk.obj
 0003:00000ff0       ___@@_PchSym_@00@UzABUPdlipUBAUhUrmgvinvwrzgvUexgllohUzgohOmzgrevkilqPBACIAJCBDBUlyqiUcIGUhgwzucOlyq@4B2008FD98C1DD4 10029ff0     atls:stdafx.obj
 0003:00000ff4       ?__WinRTOutOfMemoryExceptionCallback@@3P6GPAXXZA 10029ff4     libvcruntime:ehhelpers.obj
 0003:00000ff8       ___pPurecall               10029ff8     libvcruntime:purevirt_data.obj
 0003:00001040       ?m_pGetParameter@UnDecorator@@0P6APADJ@ZA 1002a040     libvcruntime:undname.obj
 0003:00001044       ?m_CHPENameOffset@UnDecorator@@0KA 1002a044     libvcruntime:undname.obj
 0003:00001048       ?m_recursionLevel@UnDecorator@@0KA 1002a048     libvcruntime:undname.obj
 0003:0000104c       ?pArgList@UnDecorator@@0PAVReplicator@@A 1002a04c     libvcruntime:undname.obj
 0003:00001050       ?pZNameList@UnDecorator@@0PAVReplicator@@A 1002a050     libvcruntime:undname.obj
 0003:00001054       ?pTemplateArgList@UnDecorator@@0PAVReplicator@@A 1002a054     libvcruntime:undname.obj
 0003:00001058       ?gName@UnDecorator@@0PBDB  1002a058     libvcruntime:undname.obj
 0003:0000105c       ?name@UnDecorator@@0PBDB   1002a05c     libvcruntime:undname.obj
 0003:00001060       ?disableFlags@UnDecorator@@0KA 1002a060     libvcruntime:undname.obj
 0003:00001064       ?fExplicitTemplateParams@UnDecorator@@0_NA 1002a064     libvcruntime:undname.obj
 0003:00001065       ?fGetTemplateArgumentList@UnDecorator@@0_NA 1002a065     libvcruntime:undname.obj
 0003:000010a8       ?c_exit_complete@?1???R<lambda_6e4b09c48022b2350581041d5f6b0c4c>@@QBE@XZ@4_NA 1002a0a8     libucrt:exit.obj
 0003:000011b8       __environ_table            1002a1b8     libucrt:environment_initialization.obj
 0003:000011bc       __wenviron_table           1002a1bc     libucrt:environment_initialization.obj
 0003:000011c0       ___dcrt_initial_wide_environment 1002a1c0     libucrt:environment_initialization.obj
 0003:000011c4       ___dcrt_initial_narrow_environment 1002a1c4     libucrt:environment_initialization.obj
 0003:000011c8       ___acrt_atexit_table       1002a1c8     libucrt:onexit.obj
 0003:000011d4       ___acrt_at_quick_exit_table 1002a1d4     libucrt:onexit.obj
 0003:000011e4       ___acrt_locale_changed_data 1002a1e4     libucrt:wsetlocale.obj
 0003:000011e8       ___acrt_current_locale_data 1002a1e8     libucrt:nlsdata.obj
 0003:000012d0       __nstream                  1002a2d0     libucrt:_file.obj
 0003:000012d4       ___piob                    1002a2d4     libucrt:_file.obj
 0003:000012dc       ___acrt_stdout_buffer      1002a2dc     libucrt:_sftbuf.obj
 0003:000012e0       ___acrt_stderr_buffer      1002a2e0     libucrt:_sftbuf.obj
 0003:000012e8       ___pioinfo                 1002a2e8     libucrt:ioinit.obj
 0003:000014e8       __nhandle                  1002a4e8     libucrt:ioinit.obj
 0003:00001644       __mbctype                  1002a644     libucrt:mbctype.obj
 0003:00001648       __mbcasemap                1002a648     libucrt:mbctype.obj
 0003:0000164c       ___acrt_current_multibyte_data 1002a64c     libucrt:mbctype.obj
 0003:00001658       __pgmptr                   1002a658     libucrt:argv_data.obj
 0003:0000165c       ___argc                    1002a65c     libucrt:argv_data.obj
 0003:00001660       ___argv                    1002a660     libucrt:argv_data.obj
 0003:00001664       ___wargv                   1002a664     libucrt:argv_data.obj
 0003:00001668       __acmdln                   1002a668     libucrt:argv_data.obj
 0003:0000166c       __wcmdln                   1002a66c     libucrt:argv_data.obj
 0003:00001670       ___acrt_heap               1002a670     libucrt:heap_handle.obj
 0003:00001688       ___acrt_lconv_static_null  1002a688     libucrt:localeconv.obj
 0003:0000168c       ___acrt_lconv_static_W_null 1002a68c     libucrt:localeconv.obj
 0003:000016a0       ___fastflag                1002a6a0     libucrt:fp_flags.obj
 0003:000016a8       ___dyn_tls_init_callback   1002a6a8     <common>
 0003:000016ac       ___scrt_ucrt_dll_is_in_use 1002a6ac     <common>
 0003:000016b0       __pmatherr                 1002a6b0     <common>
 0003:000016b4       ___use_sse2_mathfcns       1002a6b4     <common>

 entry point at        0001:0000bfeb

 Static symbols

 0000:fffce000       .debug$S                   10000000     OPOSBumpBar.exp
 0000:fffce000       .debug$S                   10000000     advapi32:ADVAPI32.dll
 0000:fffce000       .debug$S                   10000000     advapi32:ADVAPI32.dll
 0000:fffce000       .debug$S                   10000000     advapi32:ADVAPI32.dll
 0000:fffce000       .debug$S                   10000000     advapi32:ADVAPI32.dll
 0000:fffce000       .debug$S                   10000000     advapi32:ADVAPI32.dll
 0000:fffce000       .debug$S                   10000000     advapi32:ADVAPI32.dll
 0000:fffce000       .debug$S                   10000000     advapi32:ADVAPI32.dll
 0000:fffce000       .debug$S                   10000000     advapi32:ADVAPI32.dll
 0000:fffce000       .debug$S                   10000000     advapi32:ADVAPI32.dll
 0000:fffce000       .debug$S                   10000000     gdi32:GDI32.dll
 0000:fffce000       .debug$S                   10000000     gdi32:GDI32.dll
 0000:fffce000       .debug$S                   10000000     gdi32:GDI32.dll
 0000:fffce000       .debug$S                   10000000     gdi32:GDI32.dll
 0000:fffce000       .debug$S                   10000000     gdi32:GDI32.dll
 0000:fffce000       .debug$S                   10000000     gdi32:GDI32.dll
 0000:fffce000       .debug$S                   10000000     gdi32:GDI32.dll
 0000:fffce000       .debug$S                   10000000     gdi32:GDI32.dll
 0000:fffce000       .debug$S                   10000000     gdi32:GDI32.dll
 0000:fffce000       .debug$S                   10000000     gdi32:GDI32.dll
 0000:fffce000       .debug$S                   10000000     gdi32:GDI32.dll
 0000:fffce000       .debug$S                   10000000     gdi32:GDI32.dll
 0000:fffce000       .debug$S                   10000000     gdi32:GDI32.dll
 0000:fffce000       .debug$S                   10000000     gdi32:GDI32.dll
 0000:fffce000       .debug$S                   10000000     gdi32:GDI32.dll
 0000:fffce000       .debug$S                   10000000     gdi32:GDI32.dll
 0000:fffce000       .debug$S                   10000000     gdi32:GDI32.dll
 0000:fffce000       .debug$S                   10000000     gdi32:GDI32.dll
 0000:fffce000       .debug$S                   10000000     gdi32:GDI32.dll
 0000:fffce000       .debug$S                   10000000     kernel32:KERNEL32.dll
 0000:fffce000       .debug$S                   10000000     kernel32:KERNEL32.dll
 0000:fffce000       .debug$S                   10000000     kernel32:KERNEL32.dll
 0000:fffce000       .debug$S                   10000000     kernel32:KERNEL32.dll
 0000:fffce000       .debug$S                   10000000     kernel32:KERNEL32.dll
 0000:fffce000       .debug$S                   10000000     kernel32:KERNEL32.dll
 0000:fffce000       .debug$S                   10000000     kernel32:KERNEL32.dll
 0000:fffce000       .debug$S                   10000000     kernel32:KERNEL32.dll
 0000:fffce000       .debug$S                   10000000     kernel32:KERNEL32.dll
 0000:fffce000       .debug$S                   10000000     kernel32:KERNEL32.dll
 0000:fffce000       .debug$S                   10000000     kernel32:KERNEL32.dll
 0000:fffce000       .debug$S                   10000000     kernel32:KERNEL32.dll
 0000:fffce000       .debug$S                   10000000     kernel32:KERNEL32.dll
 0000:fffce000       .debug$S                   10000000     kernel32:KERNEL32.dll
 0000:fffce000       .debug$S                   10000000     kernel32:KERNEL32.dll
 0000:fffce000       .debug$S                   10000000     kernel32:KERNEL32.dll
 0000:fffce000       .debug$S                   10000000     kernel32:KERNEL32.dll
 0000:fffce000       .debug$S                   10000000     kernel32:KERNEL32.dll
 0000:fffce000       .debug$S                   10000000     kernel32:KERNEL32.dll
 0000:fffce000       .debug$S                   10000000     kernel32:KERNEL32.dll
 0000:fffce000       .debug$S                   10000000     kernel32:KERNEL32.dll
 0000:fffce000       .debug$S                   10000000     kernel32:KERNEL32.dll
 0000:fffce000       .debug$S                   10000000     kernel32:KERNEL32.dll
 0000:fffce000       .debug$S                   10000000     kernel32:KERNEL32.dll
 0000:fffce000       .debug$S                   10000000     kernel32:KERNEL32.dll
 0000:fffce000       .debug$S                   10000000     kernel32:KERNEL32.dll
 0000:fffce000       .debug$S                   10000000     kernel32:KERNEL32.dll
 0000:fffce000       .debug$S                   10000000     kernel32:KERNEL32.dll
 0000:fffce000       .debug$S                   10000000     kernel32:KERNEL32.dll
 0000:fffce000       .debug$S                   10000000     kernel32:KERNEL32.dll
 0000:fffce000       .debug$S                   10000000     kernel32:KERNEL32.dll
 0000:fffce000       .debug$S                   10000000     kernel32:KERNEL32.dll
 0000:fffce000       .debug$S                   10000000     kernel32:KERNEL32.dll
 0000:fffce000       .debug$S                   10000000     kernel32:KERNEL32.dll
 0000:fffce000       .debug$S                   10000000     kernel32:KERNEL32.dll
 0000:fffce000       .debug$S                   10000000     kernel32:KERNEL32.dll
 0000:fffce000       .debug$S                   10000000     kernel32:KERNEL32.dll
 0000:fffce000       .debug$S                   10000000     kernel32:KERNEL32.dll
 0000:fffce000       .debug$S                   10000000     kernel32:KERNEL32.dll
 0000:fffce000       .debug$S                   10000000     kernel32:KERNEL32.dll
 0000:fffce000       .debug$S                   10000000     kernel32:KERNEL32.dll
 0000:fffce000       .debug$S                   10000000     kernel32:KERNEL32.dll
 0000:fffce000       .debug$S                   10000000     kernel32:KERNEL32.dll
 0000:fffce000       .debug$S                   10000000     kernel32:KERNEL32.dll
 0000:fffce000       .debug$S                   10000000     kernel32:KERNEL32.dll
 0000:fffce000       .debug$S                   10000000     kernel32:KERNEL32.dll
 0000:fffce000       .debug$S                   10000000     kernel32:KERNEL32.dll
 0000:fffce000       .debug$S                   10000000     kernel32:KERNEL32.dll
 0000:fffce000       .debug$S                   10000000     kernel32:KERNEL32.dll
 0000:fffce000       .debug$S                   10000000     kernel32:KERNEL32.dll
 0000:fffce000       .debug$S                   10000000     kernel32:KERNEL32.dll
 0000:fffce000       .debug$S                   10000000     kernel32:KERNEL32.dll
 0000:fffce000       .debug$S                   10000000     kernel32:KERNEL32.dll
 0000:fffce000       .debug$S                   10000000     kernel32:KERNEL32.dll
 0000:fffce000       .debug$S                   10000000     kernel32:KERNEL32.dll
 0000:fffce000       .debug$S                   10000000     kernel32:KERNEL32.dll
 0000:fffce000       .debug$S                   10000000     kernel32:KERNEL32.dll
 0000:fffce000       .debug$S                   10000000     kernel32:KERNEL32.dll
 0000:fffce000       .debug$S                   10000000     kernel32:KERNEL32.dll
 0000:fffce000       .debug$S                   10000000     kernel32:KERNEL32.dll
 0000:fffce000       .debug$S                   10000000     kernel32:KERNEL32.dll
 0000:fffce000       .debug$S                   10000000     kernel32:KERNEL32.dll
 0000:fffce000       .debug$S                   10000000     kernel32:KERNEL32.dll
 0000:fffce000       .debug$S                   10000000     kernel32:KERNEL32.dll
 0000:fffce000       .debug$S                   10000000     kernel32:KERNEL32.dll
 0000:fffce000       .debug$S                   10000000     kernel32:KERNEL32.dll
 0000:fffce000       .debug$S                   10000000     kernel32:KERNEL32.dll
 0000:fffce000       .debug$S                   10000000     kernel32:KERNEL32.dll
 0000:fffce000       .debug$S                   10000000     kernel32:KERNEL32.dll
 0000:fffce000       .debug$S                   10000000     kernel32:KERNEL32.dll
 0000:fffce000       .debug$S                   10000000     kernel32:KERNEL32.dll
 0000:fffce000       .debug$S                   10000000     kernel32:KERNEL32.dll
 0000:fffce000       .debug$S                   10000000     kernel32:KERNEL32.dll
 0000:fffce000       .debug$S                   10000000     kernel32:KERNEL32.dll
 0000:fffce000       .debug$S                   10000000     kernel32:KERNEL32.dll
 0000:fffce000       .debug$S                   10000000     kernel32:KERNEL32.dll
 0000:fffce000       .debug$S                   10000000     kernel32:KERNEL32.dll
 0000:fffce000       .debug$S                   10000000     kernel32:KERNEL32.dll
 0000:fffce000       .debug$S                   10000000     kernel32:KERNEL32.dll
 0000:fffce000       .debug$S                   10000000     kernel32:KERNEL32.dll
 0000:fffce000       .debug$S                   10000000     kernel32:KERNEL32.dll
 0000:fffce000       .debug$S                   10000000     kernel32:KERNEL32.dll
 0000:fffce000       .debug$S                   10000000     kernel32:KERNEL32.dll
 0000:fffce000       .debug$S                   10000000     kernel32:KERNEL32.dll
 0000:fffce000       .debug$S                   10000000     kernel32:KERNEL32.dll
 0000:fffce000       .debug$S                   10000000     kernel32:KERNEL32.dll
 0000:fffce000       .debug$S                   10000000     kernel32:KERNEL32.dll
 0000:fffce000       .debug$S                   10000000     kernel32:KERNEL32.dll
 0000:fffce000       .debug$S                   10000000     kernel32:KERNEL32.dll
 0000:fffce000       .debug$S                   10000000     kernel32:KERNEL32.dll
 0000:fffce000       .debug$S                   10000000     kernel32:KERNEL32.dll
 0000:fffce000       .debug$S                   10000000     kernel32:KERNEL32.dll
 0000:fffce000       .debug$S                   10000000     kernel32:KERNEL32.dll
 0000:fffce000       .debug$S                   10000000     kernel32:KERNEL32.dll
 0000:fffce000       .debug$S                   10000000     kernel32:KERNEL32.dll
 0000:fffce000       .debug$S                   10000000     kernel32:KERNEL32.dll
 0000:fffce000       .debug$S                   10000000     kernel32:KERNEL32.dll
 0000:fffce000       .debug$S                   10000000     kernel32:KERNEL32.dll
 0000:fffce000       .debug$S                   10000000     kernel32:KERNEL32.dll
 0000:fffce000       .debug$S                   10000000     kernel32:KERNEL32.dll
 0000:fffce000       .debug$S                   10000000     kernel32:KERNEL32.dll
 0000:fffce000       .debug$S                   10000000     kernel32:KERNEL32.dll
 0000:fffce000       .debug$S                   10000000     kernel32:KERNEL32.dll
 0000:fffce000       .debug$S                   10000000     kernel32:KERNEL32.dll
 0000:fffce000       .debug$S                   10000000     kernel32:KERNEL32.dll
 0000:fffce000       .debug$S                   10000000     kernel32:KERNEL32.dll
 0000:fffce000       .debug$S                   10000000     ole32:ole32.dll
 0000:fffce000       .debug$S                   10000000     ole32:ole32.dll
 0000:fffce000       .debug$S                   10000000     ole32:ole32.dll
 0000:fffce000       .debug$S                   10000000     ole32:ole32.dll
 0000:fffce000       .debug$S                   10000000     ole32:ole32.dll
 0000:fffce000       .debug$S                   10000000     ole32:ole32.dll
 0000:fffce000       .debug$S                   10000000     ole32:ole32.dll
 0000:fffce000       .debug$S                   10000000     ole32:ole32.dll
 0000:fffce000       .debug$S                   10000000     ole32:ole32.dll
 0000:fffce000       .debug$S                   10000000     ole32:ole32.dll
 0000:fffce000       .debug$S                   10000000     ole32:ole32.dll
 0000:fffce000       .debug$S                   10000000     ole32:ole32.dll
 0000:fffce000       .debug$S                   10000000     ole32:ole32.dll
 0000:fffce000       .debug$S                   10000000     ole32:ole32.dll
 0000:fffce000       .debug$S                   10000000     oleaut32:OLEAUT32.dll
 0000:fffce000       .debug$S                   10000000     oleaut32:OLEAUT32.dll
 0000:fffce000       .debug$S                   10000000     oleaut32:OLEAUT32.dll
 0000:fffce000       .debug$S                   10000000     oleaut32:OLEAUT32.dll
 0000:fffce000       .debug$S                   10000000     oleaut32:OLEAUT32.dll
 0000:fffce000       .debug$S                   10000000     oleaut32:OLEAUT32.dll
 0000:fffce000       .debug$S                   10000000     oleaut32:OLEAUT32.dll
 0000:fffce000       .debug$S                   10000000     oleaut32:OLEAUT32.dll
 0000:fffce000       .debug$S                   10000000     oleaut32:OLEAUT32.dll
 0000:fffce000       .debug$S                   10000000     oleaut32:OLEAUT32.dll
 0000:fffce000       .debug$S                   10000000     oleaut32:OLEAUT32.dll
 0000:fffce000       .debug$S                   10000000     oleaut32:OLEAUT32.dll
 0000:fffce000       .debug$S                   10000000     oleaut32:OLEAUT32.dll
 0000:fffce000       .debug$S                   10000000     oleaut32:OLEAUT32.dll
 0000:fffce000       .debug$S                   10000000     oleaut32:OLEAUT32.dll
 0000:fffce000       .debug$S                   10000000     oleaut32:OLEAUT32.dll
 0000:fffce000       .debug$S                   10000000     user32:USER32.dll
 0000:fffce000       .debug$S                   10000000     user32:USER32.dll
 0000:fffce000       .debug$S                   10000000     user32:USER32.dll
 0000:fffce000       .debug$S                   10000000     user32:USER32.dll
 0000:fffce000       .debug$S                   10000000     user32:USER32.dll
 0000:fffce000       .debug$S                   10000000     user32:USER32.dll
 0000:fffce000       .debug$S                   10000000     user32:USER32.dll
 0000:fffce000       .debug$S                   10000000     user32:USER32.dll
 0000:fffce000       .debug$S                   10000000     user32:USER32.dll
 0000:fffce000       .debug$S                   10000000     user32:USER32.dll
 0000:fffce000       .debug$S                   10000000     user32:USER32.dll
 0000:fffce000       .debug$S                   10000000     user32:USER32.dll
 0000:fffce000       .debug$S                   10000000     user32:USER32.dll
 0000:fffce000       .debug$S                   10000000     user32:USER32.dll
 0000:fffce000       .debug$S                   10000000     user32:USER32.dll
 0000:fffce000       .debug$S                   10000000     user32:USER32.dll
 0000:fffce000       .debug$S                   10000000     user32:USER32.dll
 0000:fffce000       .debug$S                   10000000     user32:USER32.dll
 0000:fffce000       .debug$S                   10000000     user32:USER32.dll
 0000:fffce000       .debug$S                   10000000     user32:USER32.dll
 0000:fffce000       .debug$S                   10000000     user32:USER32.dll
 0000:fffce000       .debug$S                   10000000     user32:USER32.dll
 0000:fffce000       .debug$S                   10000000     user32:USER32.dll
 0000:fffce000       .debug$S                   10000000     user32:USER32.dll
 0000:fffce000       .debug$S                   10000000     user32:USER32.dll
 0000:fffce000       .debug$S                   10000000     user32:USER32.dll
 0000:fffce000       .debug$S                   10000000     user32:USER32.dll
 0000:fffce000       .debug$S                   10000000     user32:USER32.dll
 0000:fffce000       .debug$S                   10000000     user32:USER32.dll
 0000:fffce000       .debug$S                   10000000     user32:USER32.dll
 0000:fffce000       .debug$S                   10000000     user32:USER32.dll
 0000:fffce000       .debug$S                   10000000     user32:USER32.dll
 0000:fffce000       .debug$S                   10000000     user32:USER32.dll
 0000:fffce000       .debug$S                   10000000     user32:USER32.dll
 0000:fffce000       .debug$S                   10000000     user32:USER32.dll
 0001:00000000       ??__E_AtlComModule@ATL@@YAXXZ 10001000 f   OposVariant.obj
 0001:00000016       ??__E_AtlWinModule@ATL@@YAXXZ 10001016 f   OposVariant.obj
 0001:0000002c       ??__E?pConnMap@?$IConnectionPointContainerImpl@VCOPOSBumpBar@@@ATL@@0PBU_ATL_CONNMAP_ENTRY@2@B@@YAXXZ 1000102c f   BumpBar.obj
 0001:0000003a       ??__E_Module@@YAXXZ        1000103a f   BumpBar.obj
 0001:00000064       ??__E_AtlBaseModule@ATL@@YAXXZ 10001064 f   atls:atlbase.obj
 0001:0000139c       $LN24                      1000239c     BumpBar.obj
 0001:0000478a       $LN31                      1000578a     BumpBar.obj
 0001:0000478e       $LN30                      1000578e     BumpBar.obj
 0001:000059ff       $LN60                      100069ff     BumpBar.obj
 0001:00005a17       $LN59                      10006a17     BumpBar.obj
 0001:00007bb9       $LN50                      10008bb9     BumpBar.obj
 0001:00007bd1       $LN49                      10008bd1     BumpBar.obj
 0001:00009298       $LN88                      1000a298     BumpBar.obj
 0001:000092b0       $LN87                      1000a2b0     BumpBar.obj
 0001:00009670       _memcpy_s                  1000a670 f   BumpBar.obj
 0001:0000b48b       ?find_pe_section@@YAPAU_IMAGE_SECTION_HEADER@@QAEI@Z 1000c48b f   LIBCMT:utility.obj
 0001:0000b7aa       ?__scrt_initialize_thread_safe_statics@@YAHXZ 1000c7aa f   LIBCMT:thread_safe_statics.obj
 0001:0000b7d1       ?__scrt_initialize_thread_safe_statics_platform_specific@@YAXXZ 1000c7d1 f   LIBCMT:thread_safe_statics.obj
 0001:0000b853       ?__scrt_uninitialize_thread_safe_statics@@YAXXZ 1000c853 f   LIBCMT:thread_safe_statics.obj
 0001:0000bbc4       __catch$??2@YAPAXIABUnothrow_t@std@@@Z$0 1000cbc4 f   LIBCMT:new_scalar_nothrow.obj
 0001:0000bc00       $$000000                   1000cc00     LIBCMT:sehprolg4gs.obj
 0001:0000bc50       $$000000                   1000cc50     LIBCMT:alloca16.obj
 0001:0000bc66       alloca_8                   1000cc66     LIBCMT:alloca16.obj
 0001:0000bc80       $$000000                   1000cc80     LIBCMT:chkstk.obj
 0001:0000bc94       cs10                       1000cc94     LIBCMT:chkstk.obj
 0001:0000bca2       cs20                       1000cca2     LIBCMT:chkstk.obj
 0001:0000bcab       ?dllmain_crt_dispatch@@YGHQAUHINSTANCE__@@KQAX@Z 1000ccab f   LIBCMT:dll_dllmain.obj
 0001:0000bcfe       ?dllmain_crt_process_attach@@YAHQAUHINSTANCE__@@QAX@Z 1000ccfe f   LIBCMT:dll_dllmain.obj
 0001:0000be05       ?dllmain_crt_process_detach@@YAH_N@Z 1000ce05 f   LIBCMT:dll_dllmain.obj
 0001:0000beb5       ?dllmain_dispatch@@YAHQAUHINSTANCE__@@KQAX@Z 1000ceb5 f   LIBCMT:dll_dllmain.obj
 0001:0000bfc0       ?dllmain_raw@@YGHQAUHINSTANCE__@@KQAX@Z 1000cfc0 f   LIBCMT:dll_dllmain.obj
 0001:0000c350       $$000000                   1000d350     LIBCMT:sehprolg4.obj
 0001:0000c398       ___get_entropy             1000d398 f   LIBCMT:gs_support.obj
 0001:0000c68f       ??$GetProcAddressAll@P6GP6GJPAUHWND__@@IIJ@ZPAUAtlThunkData_t@@@Z@@YAP6GP6GJPAUHWND__@@IIJ@ZPAUAtlThunkData_t@@@ZPAP6GP6GJ0IIJ@Z1@Z@Z 1000d68f f   atls:atlthunk.obj
 0001:0000c68f       ??$GetProcAddressAll@P6GPAUAtlThunkData_t@@XZ@@YAP6GPAUAtlThunkData_t@@XZPAP6GPAU0@XZ@Z 1000d68f f   atls:atlthunk.obj
 0001:0000c68f       ??$GetProcAddressAll@P6GXPAUAtlThunkData_t@@@Z@@YAP6GXPAUAtlThunkData_t@@@ZPAP6GX0@Z@Z 1000d68f f   atls:atlthunk.obj
 0001:0000c68f       ??$GetProcAddressAll@P6GXPAUAtlThunkData_t@@PAXI@Z@@YAP6GXPAUAtlThunkData_t@@PAXI@ZPAP6GX01I@Z@Z 1000d68f f   atls:atlthunk.obj
 0001:0000c73f       ?GetProcAddressSingle@@YA_NPAUHINSTANCE__@@PBDPAPAX@Z 1000d73f f   atls:atlthunk.obj
 0001:0000c891       ?__InitializeThunkPool@@YAHXZ 1000d891 f   atls:atlthunk.obj
 0001:0000ccf0       _ValidateLocalCookies      1000dcf0 f   libvcruntime:chandler4.obj
 0001:0000e48a       $LN1250                    1000f48a     libvcruntime:memcmp.obj
 0001:0000e510       $$000000                   1000f510     libvcruntime:memcpy.obj
 0001:0000e510       $$000000                   1000f510     libvcruntime:memmove.obj
 0001:0000e530       CopyUp                     1000f530     libvcruntime:memcpy.obj
 0001:0000e530       CopyUp                     1000f530     libvcruntime:memmove.obj
 0001:0000e554       CopyUpLargeMov             1000f554     libvcruntime:memcpy.obj
 0001:0000e554       CopyUpLargeMov             1000f554     libvcruntime:memmove.obj
 0001:0000e567       CopyUpSSE2Check            1000f567     libvcruntime:memcpy.obj
 0001:0000e567       CopyUpSSE2Check            1000f567     libvcruntime:memmove.obj
 0001:0000e580       AtomChk                    1000f580     libvcruntime:memcpy.obj
 0001:0000e580       AtomChk                    1000f580     libvcruntime:memmove.obj
 0001:0000e5a6       PalignHead4                1000f5a6     libvcruntime:memcpy.obj
 0001:0000e5a6       PalignHead4                1000f5a6     libvcruntime:memmove.obj
 0001:0000e5b9       PalignHead8                1000f5b9     libvcruntime:memcpy.obj
 0001:0000e5b9       PalignHead8                1000f5b9     libvcruntime:memmove.obj
 0001:0000e5d0       PalignLoop                 1000f5d0     libvcruntime:memcpy.obj
 0001:0000e5d0       PalignLoop                 1000f5d0     libvcruntime:memmove.obj
 0001:0000e5e2       MovPalign12                1000f5e2     libvcruntime:memcpy.obj
 0001:0000e5e2       MovPalign12                1000f5e2     libvcruntime:memmove.obj
 0001:0000e5ec       PalignLoop12               1000f5ec     libvcruntime:memcpy.obj
 0001:0000e5ec       PalignLoop12               1000f5ec     libvcruntime:memmove.obj
 0001:0000e63d       MovPalign8                 1000f63d     libvcruntime:memcpy.obj
 0001:0000e63d       MovPalign8                 1000f63d     libvcruntime:memmove.obj
 0001:0000e648       PalignLoop8                1000f648     libvcruntime:memcpy.obj
 0001:0000e648       PalignLoop8                1000f648     libvcruntime:memmove.obj
 0001:0000e696       MovPalign4                 1000f696     libvcruntime:memcpy.obj
 0001:0000e696       MovPalign4                 1000f696     libvcruntime:memmove.obj
 0001:0000e6a0       PalignLoop4                1000f6a0     libvcruntime:memcpy.obj
 0001:0000e6a0       PalignLoop4                1000f6a0     libvcruntime:memmove.obj
 0001:0000e6ec       PalignTail                 1000f6ec     libvcruntime:memcpy.obj
 0001:0000e6ec       PalignTail                 1000f6ec     libvcruntime:memmove.obj
 0001:0000e704       PalignTail4                1000f704     libvcruntime:memcpy.obj
 0001:0000e704       PalignTail4                1000f704     libvcruntime:memmove.obj
 0001:0000e717       PalignTail8                1000f717     libvcruntime:memcpy.obj
 0001:0000e717       PalignTail8                1000f717     libvcruntime:memmove.obj
 0001:0000e72e       PalignTailLE3              1000f72e     libvcruntime:memcpy.obj
 0001:0000e72e       PalignTailLE3              1000f72e     libvcruntime:memmove.obj
 0001:0000e737       Dword_align                1000f737     libvcruntime:memcpy.obj
 0001:0000e737       Dword_align                1000f737     libvcruntime:memmove.obj
 0001:0000e73f       Dword_up_align_loop        1000f73f     libvcruntime:memcpy.obj
 0001:0000e73f       Dword_up_align_loop        1000f73f     libvcruntime:memmove.obj
 0001:0000e752       Dword_align_Ok             1000f752     libvcruntime:memcpy.obj
 0001:0000e752       Dword_align_Ok             1000f752     libvcruntime:memmove.obj
 0001:0000e76c       ByteCopyUp                 1000f76c     libvcruntime:memcpy.obj
 0001:0000e76c       ByteCopyUp                 1000f76c     libvcruntime:memmove.obj
 0001:0000e774       TrailingUpVec              1000f774     libvcruntime:memcpy.obj
 0001:0000e774       TrailingUpVec              1000f774     libvcruntime:memmove.obj
 0001:0000e784       TrailingUp0                1000f784     libvcruntime:memcpy.obj
 0001:0000e784       TrailingUp0                1000f784     libvcruntime:memmove.obj
 0001:0000e78c       TrailingUp1                1000f78c     libvcruntime:memcpy.obj
 0001:0000e78c       TrailingUp1                1000f78c     libvcruntime:memmove.obj
 0001:0000e798       TrailingUp2                1000f798     libvcruntime:memcpy.obj
 0001:0000e798       TrailingUp2                1000f798     libvcruntime:memmove.obj
 0001:0000e7ac       TrailingUp3                1000f7ac     libvcruntime:memcpy.obj
 0001:0000e7ac       TrailingUp3                1000f7ac     libvcruntime:memmove.obj
 0001:0000e7c4       CopyDown                   1000f7c4     libvcruntime:memcpy.obj
 0001:0000e7c4       CopyDown                   1000f7c4     libvcruntime:memmove.obj
 0001:0000e7e9       CopyDownNotAligned         1000f7e9     libvcruntime:memcpy.obj
 0001:0000e7e9       CopyDownNotAligned         1000f7e9     libvcruntime:memmove.obj
 0001:0000e7f0       CopyDownAlignLoop          1000f7f0     libvcruntime:memcpy.obj
 0001:0000e7f0       CopyDownAlignLoop          1000f7f0     libvcruntime:memmove.obj
 0001:0000e7fd       CopyDownAligned            1000f7fd     libvcruntime:memcpy.obj
 0001:0000e7fd       CopyDownAligned            1000f7fd     libvcruntime:memmove.obj
 0001:0000e820       TrailingDownVec            1000f820     libvcruntime:memcpy.obj
 0001:0000e820       TrailingDownVec            1000f820     libvcruntime:memmove.obj
 0001:0000e830       TrailingDown0              1000f830     libvcruntime:memcpy.obj
 0001:0000e830       TrailingDown0              1000f830     libvcruntime:memmove.obj
 0001:0000e838       TrailingDown1              1000f838     libvcruntime:memcpy.obj
 0001:0000e838       TrailingDown1              1000f838     libvcruntime:memmove.obj
 0001:0000e848       TrailingDown2              1000f848     libvcruntime:memcpy.obj
 0001:0000e848       TrailingDown2              1000f848     libvcruntime:memmove.obj
 0001:0000e85c       TrailingDown3              1000f85c     libvcruntime:memcpy.obj
 0001:0000e85c       TrailingDown3              1000f85c     libvcruntime:memmove.obj
 0001:0000e875       XmmMovLargeAlignTest       1000f875     libvcruntime:memcpy.obj
 0001:0000e875       XmmMovLargeAlignTest       1000f875     libvcruntime:memmove.obj
 0001:0000e87d       XmmMovAlignLoop            1000f87d     libvcruntime:memcpy.obj
 0001:0000e87d       XmmMovAlignLoop            1000f87d     libvcruntime:memmove.obj
 0001:0000e88c       XmmMovLargeLoop            1000f88c     libvcruntime:memcpy.obj
 0001:0000e88c       XmmMovLargeLoop            1000f88c     libvcruntime:memmove.obj
 0001:0000e8fc       XmmMovSmallTest            1000f8fc     libvcruntime:memcpy.obj
 0001:0000e8fc       XmmMovSmallTest            1000f8fc     libvcruntime:memmove.obj
 0001:0000e901       XmmMovSmallLoop            1000f901     libvcruntime:memcpy.obj
 0001:0000e901       XmmMovSmallLoop            1000f901     libvcruntime:memmove.obj
 0001:0000e924       CopyDownSmall              1000f924     libvcruntime:memcpy.obj
 0001:0000e924       CopyDownSmall              1000f924     libvcruntime:memmove.obj
 0001:0000e92c       CopyDownDwordLoop          1000f92c     libvcruntime:memcpy.obj
 0001:0000e92c       CopyDownDwordLoop          1000f92c     libvcruntime:memmove.obj
 0001:0000e941       CopyDownByteTest           1000f941     libvcruntime:memcpy.obj
 0001:0000e941       CopyDownByteTest           1000f941     libvcruntime:memmove.obj
 0001:0000e945       CopyDownByteLoop           1000f945     libvcruntime:memcpy.obj
 0001:0000e945       CopyDownByteLoop           1000f945     libvcruntime:memmove.obj
 0001:0000e954       CopyDownReturn             1000f954     libvcruntime:memcpy.obj
 0001:0000e954       CopyDownReturn             1000f954     libvcruntime:memmove.obj
 0001:0000e960       XmmCopy                    1000f960     libvcruntime:memcpy.obj
 0001:0000e960       XmmCopy                    1000f960     libvcruntime:memmove.obj
 0001:0000e96d       XmmCopyAligned             1000f96d     libvcruntime:memcpy.obj
 0001:0000e96d       XmmCopyAligned             1000f96d     libvcruntime:memmove.obj
 0001:0000e980       XmmCopyLargeLoop           1000f980     libvcruntime:memcpy.obj
 0001:0000e980       XmmCopyLargeLoop           1000f980     libvcruntime:memmove.obj
 0001:0000e9dd       XmmCopySmallTest           1000f9dd     libvcruntime:memcpy.obj
 0001:0000e9dd       XmmCopySmallTest           1000f9dd     libvcruntime:memmove.obj
 0001:0000e9f0       XmmCopySmallLoop           1000f9f0     libvcruntime:memcpy.obj
 0001:0000e9f0       XmmCopySmallLoop           1000f9f0     libvcruntime:memmove.obj
 0001:0000ea0b       CopyUpDwordMov             1000fa0b     libvcruntime:memcpy.obj
 0001:0000ea0b       CopyUpDwordMov             1000fa0b     libvcruntime:memmove.obj
 0001:0000ea10       CopyUpDwordTest            1000fa10     libvcruntime:memcpy.obj
 0001:0000ea10       CopyUpDwordTest            1000fa10     libvcruntime:memmove.obj
 0001:0000ea17       CopyUpDwordLoop            1000fa17     libvcruntime:memcpy.obj
 0001:0000ea17       CopyUpDwordLoop            1000fa17     libvcruntime:memmove.obj
 0001:0000ea26       CopyUpByteTest             1000fa26     libvcruntime:memcpy.obj
 0001:0000ea26       CopyUpByteTest             1000fa26     libvcruntime:memmove.obj
 0001:0000ea2d       CopyUpByteLoop             1000fa2d     libvcruntime:memcpy.obj
 0001:0000ea2d       CopyUpByteLoop             1000fa2d     libvcruntime:memmove.obj
 0001:0000ea40       CopyUpReturn               1000fa40     libvcruntime:memcpy.obj
 0001:0000ea40       CopyUpReturn               1000fa40     libvcruntime:memmove.obj
 0001:0000ea50       XmmCopyUnaligned           1000fa50     libvcruntime:memcpy.obj
 0001:0000ea50       XmmCopyUnaligned           1000fa50     libvcruntime:memmove.obj
 0001:0000ea63       XmmAlignByte               1000fa63     libvcruntime:memcpy.obj
 0001:0000ea63       XmmAlignByte               1000fa63     libvcruntime:memmove.obj
 0001:0000ea6c       XmmAlignDwordTest          1000fa6c     libvcruntime:memcpy.obj
 0001:0000ea6c       XmmAlignDwordTest          1000fa6c     libvcruntime:memmove.obj
 0001:0000ea71       XmmAlignDwordLoop          1000fa71     libvcruntime:memcpy.obj
 0001:0000ea71       XmmAlignDwordLoop          1000fa71     libvcruntime:memmove.obj
 0001:0000ea7e       XmmAlignAdjustCnt          1000fa7e     libvcruntime:memcpy.obj
 0001:0000ea7e       XmmAlignAdjustCnt          1000fa7e     libvcruntime:memmove.obj
 0001:0000ea90       $$000000                   1000fa90     libvcruntime:memset.obj
 0001:0000ead5       XMMMov                     1000fad5     libvcruntime:memset.obj
 0001:0000eb10       LargeRangeBytes            1000fb10     libvcruntime:memset.obj
 0001:0000eb4d       XmmMovSmall                1000fb4d     libvcruntime:memset.obj
 0001:0000eb60       XmmSmallLoop               1000fb60     libvcruntime:memset.obj
 0001:0000eb65       MidRangeBytes              1000fb65     libvcruntime:memset.obj
 0001:0000eb81       XMMTrailingBytes           1000fb81     libvcruntime:memset.obj
 0001:0000eb95       SmallMov                   1000fb95     libvcruntime:memset.obj
 0001:0000eb9d       ByteLoop                   1000fb9d     libvcruntime:memset.obj
 0001:0000ebab       DwordTest                  1000fbab     libvcruntime:memset.obj
 0001:0000ebbb       QwordTest                  1000fbbb     libvcruntime:memset.obj
 0001:0000ebd0       QwordLoop                  1000fbd0     libvcruntime:memset.obj
 0001:0000ebe3       toend                      1000fbe3     libvcruntime:memset.obj
 0001:0000f0a2       ?_FilterSetCurrentException@@YAKPAU_EXCEPTION_POINTERS@@E@Z 100100a2 f   libvcruntime:ehhelpers.obj
 0001:0000f2f0       $$000000                   100102f0     libvcruntime:exsup4.obj
 0001:0000f322       _lu_top                    10010322     libvcruntime:exsup4.obj
 0001:0000f381       _lu_done                   10010381     libvcruntime:exsup4.obj
 0001:0000f390       $$000000                   10010390     libvcruntime:exsup4.obj
 0001:0000f390       __unwind_handler4          10010390 f   libvcruntime:exsup4.obj
 0001:0000f3e0       $$000000                   100103e0     libvcruntime:exsup4.obj
 0001:0000f400       $$000000                   10010400     libvcruntime:exsup4.obj
 0001:0000f420       $$000000                   10010420     libvcruntime:exsup4.obj
 0001:0000f435       ReturnPoint                10010435     libvcruntime:exsup4.obj
 0001:0000f440       $$000000                   10010440     libvcruntime:exsup4.obj
 0001:0000f632       ??$BuildCatchObjectHelperInternal@V__FrameHandler3@@@@YAHPAUEHExceptionRecord@@PAXPBU_s_HandlerType@@PBU_s_CatchableType@@@Z 10010632 f   libvcruntime:frame.obj
 0001:0000f770       ??$BuildCatchObjectInternal@V__FrameHandler3@@@@YAXPAUEHExceptionRecord@@PAXPBU_s_HandlerType@@PBU_s_CatchableType@@@Z 10010770 f   libvcruntime:frame.obj
 0001:0000f809       ??$CatchIt@V__FrameHandler3@@@@YAXPAUEHExceptionRecord@@PAUEHRegistrationNode@@PAU_CONTEXT@@PAXPBU_s_FuncInfo@@PBU_s_HandlerType@@PBU_s_CatchableType@@PBU_s_TryBlockMapEntry@@H1EE@Z 10010809 f   libvcruntime:frame.obj
 0001:0000f889       ??$FindHandler@V__FrameHandler3@@@@YAXPAUEHExceptionRecord@@PAUEHRegistrationNode@@PAU_CONTEXT@@PAXPBU_s_FuncInfo@@EH1@Z 10010889 f   libvcruntime:frame.obj
 0001:0000fc2e       ??$FindHandlerForForeignException@V__FrameHandler3@@@@YAXPAUEHExceptionRecord@@PAUEHRegistrationNode@@PAU_CONTEXT@@PAXPBU_s_FuncInfo@@HH1@Z 10010c2e f   libvcruntime:frame.obj
 0001:0000ff46       ?CallCatchBlock@@YAPAXPAUEHExceptionRecord@@PAUEHRegistrationNode@@PAU_CONTEXT@@PBU_s_FuncInfo@@PAXHK@Z 10010f46 f   libvcruntime:frame.obj
 0001:00010115       ?CallUnexpected@@YAXPBU_s_ESTypeList@@@Z 10011115 f   libvcruntime:frame.obj
 0001:00010135       __catch$?CallUnexpected@@YAXPBU_s_ESTypeList@@@Z$0 10011135 f   libvcruntime:frame.obj
 0001:00010154       ?ExFilterRethrow@@YAHPAU_EXCEPTION_POINTERS@@@Z 10011154 f   libvcruntime:frame.obj
 0001:0001029e       ?IsInExceptionSpec@@YAEPAUEHExceptionRecord@@PBU_s_ESTypeList@@@Z 1001129e f   libvcruntime:frame.obj
 0001:00010370       $$000000                   10011370     libvcruntime:lowhelpr.obj
 0001:000103af       _NLG_Continue              100113af     libvcruntime:lowhelpr.obj
 0001:000103c0       $$000000                   100113c0     libvcruntime:exsup.obj
 0001:000103d0       $$000000                   100113d0     libvcruntime:exsup.obj
 0001:000103db       __NLG_Go                   100113db     libvcruntime:exsup.obj
 0001:000103f0       $$000000                   100113f0     libvcruntime:exsup.obj
 0001:000103f3       ?try_get_first_available_module@@YAPAUHINSTANCE__@@QBW4module_id@?A0x592e9a36@@0@Z 100113f3 f   libvcruntime:winapi_downlevel.obj
 0001:0001048e       ?try_get_function@@YAPAXW4function_id@?A0x592e9a36@@QBDQBW4module_id@2@2@Z 1001148e f   libvcruntime:winapi_downlevel.obj
 0001:00010bc4       ??$common_tcscat_s@_W@@YAHQA_WIQB_W@Z 10011bc4 f   libucrt:wcscat_s.obj
 0001:00010cab       ??$common_tcsncpy_s@_W@@YAHQA_WIQB_WI@Z 10011cab f   libucrt:wcsncpy_s.obj
 0001:00010d84       ??$common_vsprintf@Vformat_validation_base@__crt_stdio_output@@_W@@YAH_KQA_WIQB_WAAV__crt_cached_ptd_host@@QAD@Z 10011d84 f   libucrt:output.obj
 0001:00010f07       ??$common_vsprintf_s@_W@@YAH_KQA_WIQB_WAAV__crt_cached_ptd_host@@QAD@Z 10011f07 f   libucrt:output.obj
 0001:0001236f       $LN116                     1001336f     libucrt:output.obj
 0001:00012972       $LN18                      10013972     libucrt:output.obj
 0001:00012986       $LN17                      10013986     libucrt:output.obj
 0001:000130c1       ??$?RV<lambda_03b1d95aef87969028cfba75ccab2455>@@AAV<lambda_6e4b09c48022b2350581041d5f6b0c4c>@@V<lambda_22bdf7517842c4b3e53723af5aa32b9e>@@@?$__crt_seh_guarded_call@X@@QAEX$$QAV<lambda_03b1d95aef87969028cfba75ccab2455>@@AAV<lambda_6e4b09c48022b2350581041d5f6b0c4c>@@$$QAV<lambda_22bdf7517842c4b3e53723af5aa32b9e>@@@Z 100140c1 f   libucrt:exit.obj
 0001:0001310e       ??R<lambda_6e4b09c48022b2350581041d5f6b0c4c>@@QBE@XZ 1001410e f   libucrt:exit.obj
 0001:000131f9       ?common_exit@@YAXHW4_crt_exit_cleanup_mode@@W4_crt_exit_return_mode@@@Z 100141f9 f   libucrt:exit.obj
 0001:00013290       ?exit_or_terminate_process@@YAXI@Z 10014290 f   libucrt:exit.obj
 0001:000132c1       ?is_managed_app@@YA_NXZ    100142c1 f   libucrt:exit.obj
 0001:00013304       ?should_call_terminate_process@@YA_NXZ 10014304 f   libucrt:exit.obj
 0001:00013326       ?try_cor_exit_process@@YAXI@Z 10014326 f   libucrt:exit.obj
 0001:000133e3       ??$common_configure_argv@D@@YAHW4_crt_argv_mode@@@Z 100143e3 f   libucrt:argv_parsing.obj
 0001:00013520       ??$parse_command_line@D@@YAXPADPAPAD0PAI2@Z 10014520 f   libucrt:argv_parsing.obj
 0001:000136ee       ??$common_initialize_environment_nolock@D@@YAHXZ 100146ee f   libucrt:environment_initialization.obj
 0001:00013748       ??$create_environment@D@@YAQAPADQAD@Z 10014748 f   libucrt:environment_initialization.obj
 0001:0001382a       ??$free_environment@D@@YAXQAPAD@Z 1001482a f   libucrt:environment_initialization.obj
 0001:0001382a       ??$free_environment@_W@@YAXQAPA_W@Z 1001482a f   libucrt:environment_initialization.obj
 0001:00013859       ??$uninitialize_environment_internal@D@@YAXAAPAPAD@Z 10014859 f   libucrt:environment_initialization.obj
 0001:00013874       ??$uninitialize_environment_internal@_W@@YAXAAPAPA_W@Z 10014874 f   libucrt:environment_initialization.obj
 0001:000138e5       ??$?RV<lambda_69a2805e680e0e292e8ba93315fe43a8>@@AAV<lambda_f03950bc5685219e0bcd2087efbe011e>@@V<lambda_03fcd07e894ec930e3f35da366ca99d6>@@@?$__crt_seh_guarded_call@H@@QAEH$$QAV<lambda_69a2805e680e0e292e8ba93315fe43a8>@@AAV<lambda_f03950bc5685219e0bcd2087efbe011e>@@$$QAV<lambda_03fcd07e894ec930e3f35da366ca99d6>@@@Z 100148e5 f   libucrt:onexit.obj
 0001:00013940       ??$?RV<lambda_8e746cf0007f6ed984d6f78af1fec997>@@AAV<lambda_22ebabd17bc4fa466a2aca6d8deb888d>@@V<lambda_18ed0c0b38a6dc0daf1e7ac6d6adf05e>@@@?$__crt_seh_guarded_call@H@@QAEH$$QAV<lambda_8e746cf0007f6ed984d6f78af1fec997>@@AAV<lambda_22ebabd17bc4fa466a2aca6d8deb888d>@@$$QAV<lambda_18ed0c0b38a6dc0daf1e7ac6d6adf05e>@@@Z 10014940 f   libucrt:onexit.obj
 0001:000139ba       ??R<lambda_22ebabd17bc4fa466a2aca6d8deb888d>@@QBEHXZ 100149ba f   libucrt:onexit.obj
 0001:00013abc       ??R<lambda_f03950bc5685219e0bcd2087efbe011e>@@QBEHXZ 10014abc f   libucrt:onexit.obj
 0001:00013c46       _uninitialize_allocated_io_buffers 10014c46 f   libucrt:initialization.obj
 0001:00013c96       _initialize_environment    10014c96 f   libucrt:initialization.obj
 0001:00013c96       _initialize_global_state_isolation 10014c96 f   libucrt:initialization.obj
 0001:00013c96       _report_memory_leaks       10014c96 f   libucrt:initialization.obj
 0001:00013c96       _uninitialize_c            10014c96 f   libucrt:initialization.obj
 0001:00013c96       _uninitialize_global_state_isolation 10014c96 f   libucrt:initialization.obj
 0001:00013c99       _initialize_global_variables 10014c99 f   libucrt:initialization.obj
 0001:00013ca6       _initialize_c              10014ca6 f   libucrt:initialization.obj
 0001:00013cc0       _uninitialize_environment  10014cc0 f   libucrt:initialization.obj
 0001:00013cc8       _initialize_pointers       10014cc8 f   libucrt:initialization.obj
 0001:00013cf6       _uninitialize_vcruntime    10014cf6 f   libucrt:initialization.obj
 0001:00013cff       _uninitialize_allocated_memory 10014cff f   libucrt:initialization.obj
 0001:00013d16       ??R<lambda_af42a3ee9806e9a7305d451646e05244>@@QBEXAAPAU__crt_multibyte_data@@@Z 10014d16 f   libucrt:initialization.obj
 0001:00013f80       $$000000                   10014f80     libucrt:strncmp.obj
 0001:0001406c       ??$?RV<lambda_15ade71b0218206bbe3333a0c9b79046>@@AAV<lambda_da44e0f8b0f19ba52fefafb335991732>@@V<lambda_207f2d024fc103971653565357d6cd41>@@@?$__crt_seh_guarded_call@X@@QAEX$$QAV<lambda_15ade71b0218206bbe3333a0c9b79046>@@AAV<lambda_da44e0f8b0f19ba52fefafb335991732>@@$$QAV<lambda_207f2d024fc103971653565357d6cd41>@@@Z 1001506c f   libucrt:per_thread_data.obj
 0001:000140be       ??$?RV<lambda_38edbb1296d33220d7e4dd0ed76b244a>@@AAV<lambda_5ce1d447e08cb34b2473517608e21441>@@V<lambda_fb385d3da700c9147fc39e65dd577a8c>@@@?$__crt_seh_guarded_call@X@@QAEX$$QAV<lambda_38edbb1296d33220d7e4dd0ed76b244a>@@AAV<lambda_5ce1d447e08cb34b2473517608e21441>@@$$QAV<lambda_fb385d3da700c9147fc39e65dd577a8c>@@@Z 100150be f   libucrt:per_thread_data.obj
 0001:00014129       ??$?RV<lambda_6affb1475c98b40b75cdec977db92e3c>@@AAV<lambda_b8d4b9c228a6ecc3f80208dbb4b4a104>@@V<lambda_608742c3c92a14382c1684fc64f96c88>@@@?$__crt_seh_guarded_call@X@@QAEX$$QAV<lambda_6affb1475c98b40b75cdec977db92e3c>@@AAV<lambda_b8d4b9c228a6ecc3f80208dbb4b4a104>@@$$QAV<lambda_608742c3c92a14382c1684fc64f96c88>@@@Z 10015129 f   libucrt:per_thread_data.obj
 0001:0001417e       ??$?RV<lambda_a7e850c220f1c8d1e6efeecdedd162c6>@@AAV<lambda_46720907175c18b6c9d2717bc0d2d362>@@V<lambda_9048902d66e8d99359bc9897bbb930a8>@@@?$__crt_seh_guarded_call@X@@QAEX$$QAV<lambda_a7e850c220f1c8d1e6efeecdedd162c6>@@AAV<lambda_46720907175c18b6c9d2717bc0d2d362>@@$$QAV<lambda_9048902d66e8d99359bc9897bbb930a8>@@@Z 1001517e f   libucrt:per_thread_data.obj
 0001:000141d8       ?construct_ptd@@YAXQAU__acrt_ptd@@QAPAU__crt_locale_data@@@Z 100151d8 f   libucrt:per_thread_data.obj
 0001:00014271       ?destroy_fls@@YGXPAX@Z     10015271 f   libucrt:per_thread_data.obj
 0001:00014292       ?destroy_ptd@@YAXQAU__acrt_ptd@@@Z 10015292 f   libucrt:per_thread_data.obj
 0001:0001435f       ?replace_current_thread_locale_nolock@@YAXQAU__acrt_ptd@@QAU__crt_locale_data@@@Z 1001535f f   libucrt:per_thread_data.obj
 0001:000146c1       ??$?RV<lambda_e5124f882df8998aaf41531e079ba474>@@AAV<lambda_3e16ef9562a7dcce91392c22ab16ea36>@@V<lambda_e25ca0880e6ef98be67edffd8c599615>@@@?$__crt_seh_guarded_call@X@@QAEX$$QAV<lambda_e5124f882df8998aaf41531e079ba474>@@AAV<lambda_3e16ef9562a7dcce91392c22ab16ea36>@@$$QAV<lambda_e25ca0880e6ef98be67edffd8c599615>@@@Z 100156c1 f   libucrt:wsetlocale.obj
 0001:000148a8       ?try_get_AreFileApisANSI@@YAP6GHXZXZ 100158a8 f   libucrt:winapi_thunks.obj
 0001:000148c2       ?try_get_LCMapStringEx@@YAP6GHPB_WK0HPA_WHPAU_nlsversioninfo@@PAXJ@ZXZ 100158c2 f   libucrt:winapi_thunks.obj
 0001:000148dc       ?try_get_LocaleNameToLCID@@YAP6GKPB_WK@ZXZ 100158dc f   libucrt:winapi_thunks.obj
 0001:000148f6       ?try_get_first_available_module@@YAPAUHINSTANCE__@@QBW4module_id@?A0x391cf84c@@0@Z 100158f6 f   libucrt:winapi_thunks.obj
 0001:000149c1       ?try_get_function@@YAPAXW4function_id@?A0x391cf84c@@QBDQBW4module_id@2@2@Z 100159c1 f   libucrt:winapi_thunks.obj
 0001:00014fce       ?fe_to_nearest@@YA_NQBN_KF@Z 10015fce f   libucrt:cvt.obj
 0001:00015071       ?fp_format_a@@YAHQBNPADIQADIH_NIW4__acrt_rounding_mode@@AAV__crt_cached_ptd_host@@@Z 10016071 f   libucrt:cvt.obj
 0001:0001539d       ?fp_format_e@@YAHQBNQADI1IH_NIW4__acrt_rounding_mode@@AAV__crt_cached_ptd_host@@@Z 1001639d f   libucrt:cvt.obj
 0001:00015441       ?fp_format_e_internal@@YAHQADIH_NIQAU_strflt@@1AAV__crt_cached_ptd_host@@@Z 10016441 f   libucrt:cvt.obj
 0001:00015586       ?fp_format_f@@YAHQBNQADI1IHW4__acrt_rounding_mode@@AAV__crt_cached_ptd_host@@@Z 10016586 f   libucrt:cvt.obj
 0001:0001561c       ?fp_format_f_internal@@YAHQADIHQAU_strflt@@_NAAV__crt_cached_ptd_host@@@Z 1001661c f   libucrt:cvt.obj
 0001:0001570a       ?fp_format_g@@YAHQBNQADI1IH_NIW4__acrt_rounding_mode@@AAV__crt_cached_ptd_host@@@Z 1001670a f   libucrt:cvt.obj
 0001:000157d9       ?fp_format_nan_or_infinity@@YAHW4__acrt_fp_class@@_NPADI1@Z 100167d9 f   libucrt:cvt.obj
 0001:0001586e       ?shift_bytes@@YAXQADI0H@Z  1001686e f   libucrt:cvt.obj
 0001:000158a2       ?should_round_up@@YA_NQBN_KFW4__acrt_rounding_mode@@@Z 100168a2 f   libucrt:cvt.obj
 0001:00015d61       ?initialize_inherited_file_handles_nolock@@YAXXZ 10016d61 f   libucrt:ioinit.obj
 0001:00015e17       ?initialize_stdio_handles_nolock@@YAXXZ 10016e17 f   libucrt:ioinit.obj
 0001:00016024       ?<lambda_invoker_cdecl>@<lambda_838c7f62c73c983481e27c09e84b0b5d>@@CAHPBX0@Z 10017024 f   libucrt:argv_wildcards.obj
 0001:000161d1       ??$common_expand_argv_wildcards@D@@YAHQAPADQAPAPAD@Z 100171d1 f   libucrt:argv_wildcards.obj
 0001:0001634e       ??$copy_and_add_argument_to_buffer@D@@YAHQBD0IAAV?$argument_list@D@?A0x5f5c8891@@@Z 1001734e f   libucrt:argv_wildcards.obj
 0001:000163ff       ??$expand_argument_wildcards@D@@YAHQAD0AAV?$argument_list@D@?A0x5f5c8891@@@Z 100173ff f   libucrt:argv_wildcards.obj
 0001:00016706       ??1?$argument_list@D@?A0x5f5c8891@@QAE@XZ 10017706 f   libucrt:argv_wildcards.obj
 0001:00016846       ?expand_if_necessary@?$argument_list@D@?A0x5f5c8891@@AAEHXZ 10017846 f   libucrt:argv_wildcards.obj
 0001:00016a76       ??$?RV<lambda_ceb1ee4838e85a9d631eb091e2fbe199>@@AAV<lambda_ae742caa10f662c28703da3d2ea5e57e>@@V<lambda_cd08b5d6af4937fe54fc07d0c9bf6b37>@@@?$__crt_seh_guarded_call@X@@QAEX$$QAV<lambda_ceb1ee4838e85a9d631eb091e2fbe199>@@AAV<lambda_ae742caa10f662c28703da3d2ea5e57e>@@$$QAV<lambda_cd08b5d6af4937fe54fc07d0c9bf6b37>@@@Z 10017a76 f   libucrt:mbctype.obj
 0001:00016ac3       ??R<lambda_ae742caa10f662c28703da3d2ea5e57e>@@QBEXXZ 10017ac3 f   libucrt:mbctype.obj
 0001:00016b46       ?CPtoLocaleName@@YAPB_WH@Z 10017b46 f   libucrt:mbctype.obj
 0001:00016b84       ?getSystemCP@@YAHH@Z       10017b84 f   libucrt:mbctype.obj
 0001:00016bf5       ?setSBCS@@YAXPAU__crt_multibyte_data@@@Z 10017bf5 f   libucrt:mbctype.obj
 0001:00016c58       ?setSBUpLow@@YAXPAU__crt_multibyte_data@@@Z 10017c58 f   libucrt:mbctype.obj
 0001:00016e04       ?setmbcp_internal@@YAHH_NQAU__acrt_ptd@@QAPAU__crt_multibyte_data@@@Z 10017e04 f   libucrt:mbctype.obj
 0001:00016f59       ?update_thread_multibyte_data_internal@@YAPAU__crt_multibyte_data@@QAU__acrt_ptd@@QAPAU1@@Z 10017f59 f   libucrt:mbctype.obj
 0001:0001725c       _memcpy_s                  1001825c f   libucrt:cfout.obj
 0001:0001725c       _memcpy_s                  1001825c f   libucrt:mbctype.obj
 0001:000172dd       ?x_ismbbtype_l@@YAHPAU__crt_locale_pointers@@IHH@Z 100182dd f   libucrt:ismbbyte.obj
 0001:00017491       ?find_end_of_double_null_terminated_sequence@@YAPB_WQB_W@Z 10018491 f   libucrt:get_environment_from_os.obj
 0001:0001761c       ??$?RV<lambda_cbab9ec6f41b0180b23cc171c22676b0>@@AAV<lambda_44731a7d0e6d81c3e6aa82d741081786>@@V<lambda_4b292cb8dd18144e164572427af410ab>@@@?$__crt_seh_guarded_call@P6AXH@Z@@QAEP6AXH@Z$$QAV<lambda_cbab9ec6f41b0180b23cc171c22676b0>@@AAV<lambda_44731a7d0e6d81c3e6aa82d741081786>@@$$QAV<lambda_4b292cb8dd18144e164572427af410ab>@@@Z 1001861c f   libucrt:signal.obj
 0001:00017680       ?get_global_action_nolock@@YAPAP6AXH@ZH@Z 10018680 f   libucrt:signal.obj
 0001:000176c2       ?siglookup@@YAPAU__crt_signal_action_t@@HQAU1@@Z 100186c2 f   libucrt:signal.obj
 0001:0001797b       ??$?RV<lambda_2866be3712abc81a800a822484c830d8>@@AAV<lambda_39ca0ed439415581b5b15c265174cece>@@V<lambda_2b24c74d71094a6cd0cb82e44167d71b>@@@?$__crt_seh_guarded_call@X@@QAEX$$QAV<lambda_2866be3712abc81a800a822484c830d8>@@AAV<lambda_39ca0ed439415581b5b15c265174cece>@@$$QAV<lambda_2b24c74d71094a6cd0cb82e44167d71b>@@@Z 1001897b f   libucrt:fflush.obj
 0001:00017a07       ??$?RV<lambda_2cc53f568c5a2bb6f192f930a45d44ea>@@AAV<lambda_ab61a845afdef5b7c387490eaf3616ee>@@V<lambda_c2ffc0b7726aa6be21d5f0026187e748>@@@?$__crt_seh_guarded_call@X@@QAEX$$QAV<lambda_2cc53f568c5a2bb6f192f930a45d44ea>@@AAV<lambda_ab61a845afdef5b7c387490eaf3616ee>@@$$QAV<lambda_c2ffc0b7726aa6be21d5f0026187e748>@@@Z 10018a07 f   libucrt:fflush.obj
 0001:00017ab3       ?common_flush_all@@YAH_N@Z 10018ab3 f   libucrt:fflush.obj
 0001:00017b00       ?common_flush_all_should_try_to_flush_stream@@YA_NV__crt_stdio_stream@@QAH@Z 10018b00 f   libucrt:fflush.obj
 0001:00017b33       ?is_stream_flushable_or_commitable@@YA_NJ@Z 10018b33 f   libucrt:fflush.obj
 0001:00018130       ?free_crt_array_internal@@YAXQAPBXI@Z 10019130 f   libucrt:inittime.obj
 0001:00018369       ?GetTableIndexFromLocaleName@@YAHPB_W@Z 10019369 f   libucrt:lcidtoname_downlevel.obj
 0001:000183e5       ?should_round_up@@YA_NQBD0HW4__acrt_has_trailing_digits@@W4__acrt_rounding_mode@@@Z 100193e5 f   libucrt:_fptostr.obj
 0001:00019f2e       ??R<lambda_e96123212306c92459f955e8e4eac55d>@@QBEIPBD@Z 1001af2e f   libucrt:mbrtowc.obj
 0001:0001a96e       ??$common_tcsncpy_s@D@@YAHQADIQBDI@Z 1001b96e f   libucrt:strncpy_s.obj
 0001:0001aa30       $$000000                   1001ba30     libucrt:strpbrk.obj
 0001:0001ab14       ?__acrt_LCMapStringA_stat@@YAHPAU__crt_locale_pointers@@PB_WKPBDHPADHHH@Z 1001bb14 f   libucrt:lcmapstringa.obj
 0001:0001ad4b       ?initialize_multibyte@@YAHXZ 1001bd4b f   libucrt:multibyte_initializer.obj
 0001:0001ad5a       ??$?RV<lambda_9e9de3de5fa147e2223d7db92bc10aa6>@@AAV<lambda_38ce7e780aa69e748d6df282ebc68efe>@@V<lambda_8ca6da459f0f6780f1cff60fdc3d00e5>@@@?$__crt_seh_guarded_call@H@@QAEH$$QAV<lambda_9e9de3de5fa147e2223d7db92bc10aa6>@@AAV<lambda_38ce7e780aa69e748d6df282ebc68efe>@@$$QAV<lambda_8ca6da459f0f6780f1cff60fdc3d00e5>@@@Z 1001bd5a f   libucrt:commit.obj
 0001:0001ae79       ?write_double_translated_ansi_nolock@@YA?AUwrite_result@?A0x17268360@@HQBDIAAV__crt_cached_ptd_host@@@Z 1001be79 f   libucrt:write.obj
 0001:0001b24b       ?write_double_translated_unicode_nolock@@YA?AUwrite_result@?A0x17268360@@QBDI@Z 1001c24b f   libucrt:write.obj
 0001:0001b2b3       ?write_requires_double_translation_nolock@@YA_NHAAV__crt_cached_ptd_host@@@Z 1001c2b3 f   libucrt:write.obj
 0001:0001b331       ?write_text_ansi_nolock@@YA?AUwrite_result@?A0x17268360@@HQBDI@Z 1001c331 f   libucrt:write.obj
 0001:0001b40c       ?write_text_utf16le_nolock@@YA?AUwrite_result@?A0x17268360@@HQBDI@Z 1001c40c f   libucrt:write.obj
 0001:0001b4f5       ?write_text_utf8_nolock@@YA?AUwrite_result@?A0x17268360@@HQBDI@Z 1001c4f5 f   libucrt:write.obj
 0001:0001baa0       $$000000                   1001caa0     libucrt:log10_impl.obj
 0001:0001bbb0       $$000000                   1001cbb0     libucrt:ceil_pentium4.obj
 0001:0001bccd       ?to_abstract_control@@YA?AW4__acrt_fenv_abstract_control@@W4__acrt_fenv_machine_sse_control@@@Z 1001cccd f   libucrt:_fenvutils.obj
 0001:0001bd7d       ?to_abstract_control@@YA?AW4__acrt_fenv_abstract_control@@W4__acrt_fenv_machine_x87_control@@@Z 1001cd7d f   libucrt:_fenvutils.obj
 0001:0001be2a       ?to_machine_sse_control@@YA?AW4__acrt_fenv_machine_sse_control@@W4__acrt_fenv_abstract_control@@@Z 1001ce2a f   libucrt:_fenvutils.obj
 0001:0001bee0       ?to_machine_x87_control@@YA?AW4__acrt_fenv_machine_x87_control@@W4__acrt_fenv_abstract_control@@@Z 1001cee0 f   libucrt:_fenvutils.obj
 0001:0001c44b       ?_fclose_internal@@YAHQAU_iobuf@@AAV__crt_cached_ptd_host@@@Z 1001d44b f   libucrt:fclose.obj
 0001:0001c4e2       ?_fclose_nolock_internal@@YAHQAU_iobuf@@AAV__crt_cached_ptd_host@@@Z 1001d4e2 f   libucrt:fclose.obj
 0001:0001c5a0       ??$common_lseek_nolock@_J@@YA_JH_JHAAV__crt_cached_ptd_host@@@Z 1001d5a0 f   libucrt:lseek.obj
 0001:0001c695       ___hw_cw_sse2              1001d695 f   libucrt:ieee87.obj
 0001:0001cb1b       __hw_cw                    1001db1b f   libucrt:ieee87.obj
 0001:0001cbd0       $$000000                   1001dbd0     libucrt:log10_pentium4.obj
 0001:0001ce60       $$000000                   1001de60     libucrt:87tran.obj
 0001:0001d070       $$000000                   1001e070     libucrt:87disp.obj
 0001:0001d2d0       $$000000                   1001e2d0     libucrt:common.obj
 0001:0001d460       $$000000                   1001e460     libucrt:genexcep.obj
 0001:0001d75c       ??$?RV<lambda_d422a76eb4c3bf3ad751449ab71a6ea4>@@AAV<lambda_c9ba49e555ba839a7b07aa3fbecb7617>@@V<lambda_9476263c8ee91a25d21c55370bdb50de>@@@?$__crt_seh_guarded_call@H@@QAEH$$QAV<lambda_d422a76eb4c3bf3ad751449ab71a6ea4>@@AAV<lambda_c9ba49e555ba839a7b07aa3fbecb7617>@@$$QAV<lambda_9476263c8ee91a25d21c55370bdb50de>@@@Z 1001e75c f   libucrt:close.obj
 0001:0001d970       $$000000                   1001e970     libucrt:_strnicm.obj
 0001:0001d9d1       ?__dcrt_lowio_initialize_console_output@@YAXXZ 1001e9d1 f   libucrt:initcon.obj
 0001:0001e980       $$000000                   1001f980     LIBCMT:ulldvrm.obj
 0001:0001e9b1       L1                         1001f9b1     LIBCMT:ulldvrm.obj
 0001:0001e9bf       L3                         1001f9bf     LIBCMT:ulldvrm.obj
 0001:0001e9ed       L4                         1001f9ed     LIBCMT:ulldvrm.obj
 0001:0001e9f6       L5                         1001f9f6     LIBCMT:ulldvrm.obj
 0001:0001e9f8       L2                         1001f9f8     LIBCMT:ulldvrm.obj
 0001:0001ea20       $$000000                   1001fa20     LIBCMT:llmul.obj
 0001:0001ea39       hard                       1001fa39     LIBCMT:llmul.obj
 0001:0001ea60       $$000000                   1001fa60     LIBCMT:lldvrm.obj
 0001:0001ea84       L1                         1001fa84     LIBCMT:lldvrm.obj
 0001:0001eaa0       L2                         1001faa0     LIBCMT:lldvrm.obj
 0001:0001eacc       L3                         1001facc     LIBCMT:lldvrm.obj
 0001:0001eada       L5                         1001fada     LIBCMT:lldvrm.obj
 0001:0001eb08       L6                         1001fb08     LIBCMT:lldvrm.obj
 0001:0001eb11       L7                         1001fb11     LIBCMT:lldvrm.obj
 0001:0001eb13       L4                         1001fb13     LIBCMT:lldvrm.obj
 0001:0001eb25       L9                         1001fb25     LIBCMT:lldvrm.obj
 0001:0001eb39       L8                         1001fb39     LIBCMT:lldvrm.obj
 0001:0001eb40       $$000000                   1001fb40     LIBCMT:llshl.obj
 0001:0001eb50       MORE32                     1001fb50     LIBCMT:llshl.obj
 0001:0001eb5a       RETZERO                    1001fb5a     LIBCMT:llshl.obj
 0001:0001eb60       $$000000                   1001fb60     LIBCMT:ullshr.obj
 0001:0001eb70       MORE32                     1001fb70     LIBCMT:ullshr.obj
 0001:0001eb7a       RETZERO                    1001fb7a     LIBCMT:ullshr.obj
 0001:0001eb80       $$000000                   1001fb80     LIBCMT:ftol2.obj
 0001:0001eb90       $$000000                   1001fb90     LIBCMT:ftol2.obj
 0001:0001eba1       L3B                        1001fba1     LIBCMT:ftol2.obj
 0001:0001ebe4       L3F                        1001fbe4     LIBCMT:ftol2.obj
 0001:0001ebec       L40                        1001fbec     LIBCMT:ftol2.obj
 0001:0001ebff       L41                        1001fbff     LIBCMT:ftol2.obj
 0001:0001ec10       $$000000                   1001fc10     libvcruntime:strrchr.obj
 0001:0001ec4d       strrchr_sse_loop           1001fc4d     libvcruntime:strrchr.obj
 0001:0001ec7d       strrchr_sse_break          1001fc7d     libvcruntime:strrchr.obj
 0001:0001ec9d       strrchr_sttni              1001fc9d     libvcruntime:strrchr.obj
 0001:0001ecaf       strrchr_sttni_chars        1001fcaf     libvcruntime:strrchr.obj
 0001:0001ecc4       strrchr_sttni_aligned      1001fcc4     libvcruntime:strrchr.obj
 0001:0001ecc8       strrchr_sttni_xmm          1001fcc8     libvcruntime:strrchr.obj
 0001:0001ecdb       exit                       1001fcdb     libvcruntime:strrchr.obj
 0001:0001ecde       strrchr_zero               1001fcde     libvcruntime:strrchr.obj
 0001:0001ed03       strchr_zero_loop           1001fd03     libvcruntime:strrchr.obj
 0001:0001ed17       strchr_zero_result         1001fd17     libvcruntime:strrchr.obj
 0001:0001ed1e       strrchr_no_sse             1001fd1e     libvcruntime:strrchr.obj
 0001:0001ed41       returndi                   1001fd41     libvcruntime:strrchr.obj
 0001:0001ed43       toend                      1001fd43     libvcruntime:strrchr.obj
 0001:0001edc8       __ehhandler$??2@YAPAXIABUnothrow_t@std@@@Z 1001fdc8 f   LIBCMT:new_scalar_nothrow.obj
 0001:0001ede5       __ehhandler$?CallUnexpected@@YAXPBU_s_ESTypeList@@@Z 1001fde5 f   libvcruntime:frame.obj
 0001:0001ee02       __ehhandler$?common_exit@@YAXHW4_crt_exit_cleanup_mode@@W4_crt_exit_return_mode@@@Z 1001fe02 f   libucrt:exit.obj
 0001:0001ee1f       __ehhandler$?try_cor_exit_process@@YAXI@Z 1001fe1f f   libucrt:exit.obj
 0001:0001ee3c       __ehhandler$___dcrt_uninitialize_environments_nolock 1001fe3c f   libucrt:environment_initialization.obj
 0001:0001ee59       __ehhandler$__execute_onexit_table 1001fe59 f   libucrt:onexit.obj
 0001:0001ee76       __ehhandler$?write_double_translated_ansi_nolock@@YA?AUwrite_result@?A0x17268360@@HQBDIAAV__crt_cached_ptd_host@@@Z 1001fe76 f   libucrt:write.obj
 0001:0001eea0       ??__F_AtlComModule@ATL@@YAXXZ 1001fea0 f   OposVariant.obj
 0001:0001eeaa       ??__F_AtlWinModule@ATL@@YAXXZ 1001feaa f   OposVariant.obj
 0001:0001eec4       ??__F_Module@@YAXXZ        1001fec4 f   BumpBar.obj
 0001:0001eed8       ??__F_AtlBaseModule@ATL@@YAXXZ 1001fed8 f   atls:atlbase.obj
 0002:00000308       ?_AtlBaseModule$initializer$@ATL@@3P6AXXZA 10020308     atls:atlbase.obj
 0002:0000030c       ?_AtlComModule$initializer$@ATL@@3P6AXXZA 1002030c     OposVariant.obj
 0002:00000310       ?_AtlWinModule$initializer$@ATL@@3P6AXXZA 10020310     OposVariant.obj
 0002:00000314       ?_Module$initializer$@@3P6AXXZA 10020314     BumpBar.obj
 0002:00000318       ??pConnMap$initializer$@?$IConnectionPointContainerImpl@VCOPOSBumpBar@@@ATL@@0P6AXXZA@@3P6AXXZA 10020318     BumpBar.obj
 0002:00000324       ?__scrt_initialize_tss_var@@3P6AHXZA 10020324     LIBCMT:thread_safe_statics.obj
 0002:00001888       _GS_ExceptionPointers      10021888     LIBCMT:gs_report.obj
 0002:00001a18       ?tokenTable@@3QBUStringLiteral@@B 10021a18     libvcruntime:undname.obj
 0002:00001aa0       ?nameTable@@3QBUStringLiteral@@B 10021aa0     libvcruntime:undname.obj
 0002:00001d38       ?rttiTable@@3QBUStringLiteral@@B 10021d38     libvcruntime:undname.obj
 0002:00001d60       ?IndirectionName@@3QBUStringLiteral@@B 10021d60     libvcruntime:undname.obj
 0002:00001d90       ?PrefixName@@3QBUStringLiteral@@B 10021d90     libvcruntime:undname.obj
 0002:000023cc       ?module_names@?A0x592e9a36@@3QBQB_WB 100223cc     libvcruntime:winapi_downlevel.obj
 0002:00002474       ?candidate_modules@?1??try_get_FlsAlloc@@YAP6GKP6GXPAX@Z@ZXZ@4QBW4module_id@?A0x592e9a36@@B 10022474     libvcruntime:winapi_downlevel.obj
 0002:00002488       ?candidate_modules@?1??try_get_FlsFree@@YAP6GHK@ZXZ@4QBW4module_id@?A0x592e9a36@@B 10022488     libvcruntime:winapi_downlevel.obj
 0002:00002498       ?candidate_modules@?1??try_get_FlsGetValue@@YAP6GPAXK@ZXZ@4QBW4module_id@?A0x592e9a36@@B 10022498     libvcruntime:winapi_downlevel.obj
 0002:000024ac       ?candidate_modules@?1??try_get_FlsSetValue@@YAP6GHKPAX@ZXZ@4QBW4module_id@?A0x592e9a36@@B 100224ac     libvcruntime:winapi_downlevel.obj
 0002:000024c0       ?candidate_modules@?1??try_get_InitializeCriticalSectionEx@@YAP6GHPAU_RTL_CRITICAL_SECTION@@KK@ZXZ@4QBW4module_id@?A0x592e9a36@@B 100224c0     libvcruntime:winapi_downlevel.obj
 0002:000024e8       ?errtable@@3QBUerrentry@?A0x31fdb9ec@@B 100224e8     libucrt:errno.obj
 0002:00002830       ___acrt_initializers       10022830     libucrt:initialization.obj
 0002:00002d70       ?module_names@?A0x391cf84c@@3QBQB_WB 10022d70     libucrt:winapi_thunks.obj
 0002:00003224       ?candidate_modules@?1??try_get_AreFileApisANSI@@YAP6GHXZXZ@4QBW4module_id@?A0x391cf84c@@B 10023224     libucrt:winapi_thunks.obj
 0002:00003238       ?candidate_modules@?1??try_get_InitializeCriticalSectionEx@@YAP6GHPAU_RTL_CRITICAL_SECTION@@KK@ZXZ@4QBW4module_id@?A0x391cf84c@@B 10023238     libucrt:winapi_thunks.obj
 0002:00003240       ?candidate_modules@?1??try_get_LCMapStringEx@@YAP6GHPB_WK0HPA_WHPAU_nlsversioninfo@@PAXJ@ZXZ@4QBW4module_id@?A0x391cf84c@@B 10023240     libucrt:winapi_thunks.obj
 0002:00003258       ?candidate_modules@?1??try_get_LocaleNameToLCID@@YAP6GKPB_WK@ZXZ@4QBW4module_id@?A0x391cf84c@@B 10023258     libucrt:winapi_thunks.obj
 0002:00003274       ?candidate_modules@?1??try_get_AppPolicyGetProcessTerminationMethod@@YAP6GJPAXPAW4AppPolicyProcessTerminationMethod@@@ZXZ@4QBW4module_id@?A0x391cf84c@@B 10023274     libucrt:winapi_thunks.obj
 0002:000032a0       ?candidate_modules@?1??try_get_SetThreadStackGuarantee@@YAP6GHPAK@ZXZ@4QBW4module_id@?A0x391cf84c@@B 100232a0     libucrt:winapi_thunks.obj
 0002:000032c0       ?candidate_modules@?1??try_get_FlsAlloc@@YAP6GKP6GXPAX@Z@ZXZ@4QBW4module_id@?A0x391cf84c@@B 100232c0     libucrt:winapi_thunks.obj
 0002:000032c8       ?candidate_modules@?1??try_get_FlsFree@@YAP6GHK@ZXZ@4QBW4module_id@?A0x391cf84c@@B 100232c8     libucrt:winapi_thunks.obj
 0002:000032d0       ?candidate_modules@?1??try_get_FlsGetValue@@YAP6GPAXK@ZXZ@4QBW4module_id@?A0x391cf84c@@B 100232d0     libucrt:winapi_thunks.obj
 0002:000032d8       ?candidate_modules@?1??try_get_FlsSetValue@@YAP6GHKPAX@ZXZ@4QBW4module_id@?A0x391cf84c@@B 100232d8     libucrt:winapi_thunks.obj
 0002:000032e0       ?strings@?1??fp_format_nan_or_infinity@@YAHW4__acrt_fp_class@@_NPADI1@Z@4QAY03QBDA 100232e0     libucrt:cvt.obj
 0002:00003368       ?_mb_locale_names@@3QBQB_WB 10023368     libucrt:mbctype.obj
 0002:000039b0       ?LcidToLocaleNameTable@?A0x881e4c05@@3QBULcidToLocaleName@1@B 100239b0     libucrt:lcidtoname_downlevel.obj
 0002:00004ad0       ?LocaleNameToIndexTable@?A0x881e4c05@@3QBULocaleNameIndex@1@B 10024ad0     libucrt:lcidtoname_downlevel.obj
 0002:00006410       LOG_name                   10026410     libucrt:log10_impl.obj
 0002:00006420       _One                       10026420     libucrt:ceil_pentium4.obj
 0002:00006430       _Bns                       10026430     libucrt:ceil_pentium4.obj
 0002:00006440       _Zero                      10026440     libucrt:ceil_pentium4.obj
 0002:00006450       _S                         10026450     libucrt:ceil_pentium4.obj
 0002:00006460       _NegZero                   10026460     libucrt:ceil_pentium4.obj
 0002:00006470       emask                      10026470     libucrt:log10_pentium4.obj
 0002:00006480       CC                         10026480     libucrt:log10_pentium4.obj
 0002:00006490       Magic                      10026490     libucrt:log10_pentium4.obj
 0002:000064a0       hi_mask                    100264a0     libucrt:log10_pentium4.obj
 0002:000064b0       LOG10_2                    100264b0     libucrt:log10_pentium4.obj
 0002:000064c0       place_L                    100264c0     libucrt:log10_pentium4.obj
 0002:000064e0       One                        100264e0     libucrt:log10_pentium4.obj
 0002:000064f0       Zero                       100264f0     libucrt:log10_pentium4.obj
 0002:00006500       Two52                      10026500     libucrt:log10_pentium4.obj
 0002:00006510       Infs                       10026510     libucrt:log10_pentium4.obj
 0002:00006520       NaN                        10026520     libucrt:log10_pentium4.obj
 0002:00006530       coeff                      10026530     libucrt:log10_pentium4.obj
 0002:0000658e       _log2max                   1002658e     libucrt:87tran.obj
 0002:00006598       _smallarg                  10026598     libucrt:87tran.obj
 0002:000065a2       _half                      100265a2     libucrt:87tran.obj
 0002:000065ee       One                        100265ee     libucrt:87disp.obj
 0002:000065f6       Three                      100265f6     libucrt:87disp.obj
 0002:000065fe       XAMtoTagTab                100265fe     libucrt:87disp.obj
 0002:00006610       One                        10026610     libucrt:common.obj
 0002:00006624       DblMax                     10026624     libucrt:common.obj
 0002:0000662c       DblMin                     1002662c     libucrt:common.obj
 0002:00006634       IeeeAdjO                   10026634     libucrt:common.obj
 0002:0000663c       IeeeAdjU                   1002663c     libucrt:common.obj
 0002:00006644       _infinity                  10026644     libucrt:common.obj
 0002:0000664c       _zero                      1002664c     libucrt:common.obj
 0002:00006698       _over                      10026698     libucrt:fpctrl.obj
 0002:000066a4       _under                     100266a4     libucrt:fpctrl.obj
 0002:00006ed8       ?_names@?1??_get_fname@@9@4QBU<unnamed-type-_names>@?1??1@YAPADI@Z@B 10026ed8     libucrt:fpexcept.obj
 0002:00007080       two32                      10027080     LIBCMT:ftol2.obj
 0002:00007084       two63                      10027084     LIBCMT:ftol2.obj
 0002:00007088       _NaN                       10027088     LIBCMT:ftol2.obj
 0002:000077d0       __sehtable$?_AtlVerifyStackAvailable@_ATL_SAFE_ALLOCA_IMPL@ATL@@YA_NK@Z 100277d0     BumpBar.obj
 0002:000077f0       __sehtable$___scrt_is_nonwritable_in_current_image 100277f0     LIBCMT:utility.obj
 0002:0000780c       __catchsym$??2@YAPAXIABUnothrow_t@std@@@Z$2 1002780c     LIBCMT:new_scalar_nothrow.obj
 0002:0000781c       __unwindtable$??2@YAPAXIABUnothrow_t@std@@@Z 1002781c     LIBCMT:new_scalar_nothrow.obj
 0002:0000782c       __tryblocktable$??2@YAPAXIABUnothrow_t@std@@@Z 1002782c     LIBCMT:new_scalar_nothrow.obj
 0002:00007840       __ehfuncinfo$??2@YAPAXIABUnothrow_t@std@@@Z 10027840     LIBCMT:new_scalar_nothrow.obj
 0002:00007868       __sehtable$?dllmain_crt_process_attach@@YAHQAUHINSTANCE__@@QAX@Z 10027868     LIBCMT:dll_dllmain.obj
 0002:00007888       __sehtable$?dllmain_crt_process_detach@@YAH_N@Z 10027888     LIBCMT:dll_dllmain.obj
 0002:000078b0       __sehtable$?dllmain_dispatch@@YAHQAUHINSTANCE__@@KQAX@Z 100278b0     LIBCMT:dll_dllmain.obj
 0002:00007960       __sehtable$___DestructExceptionObject 10027960     libvcruntime:ehhelpers.obj
 0002:00007980       __sehtable$?FrameUnwindToState@__FrameHandler3@@SAXPAUEHRegistrationNode@@PAXPBU_s_FuncInfo@@H@Z 10027980     libvcruntime:frame.obj
 0002:000079a8       __sehtable$?CallCatchBlock@@YAPAXPAUEHExceptionRecord@@PAUEHRegistrationNode@@PAU_CONTEXT@@PBU_s_FuncInfo@@PAXHK@Z 100279a8     libvcruntime:frame.obj
 0002:000079d0       __catchsym$?CallUnexpected@@YAXPBU_s_ESTypeList@@@Z$2 100279d0     libvcruntime:frame.obj
 0002:000079e0       __unwindtable$?CallUnexpected@@YAXPBU_s_ESTypeList@@@Z 100279e0     libvcruntime:frame.obj
 0002:000079f0       __tryblocktable$?CallUnexpected@@YAXPBU_s_ESTypeList@@@Z 100279f0     libvcruntime:frame.obj
 0002:00007a04       __ehfuncinfo$?CallUnexpected@@YAXPBU_s_ESTypeList@@@Z 10027a04     libvcruntime:frame.obj
 0002:00007a28       __sehtable$??$BuildCatchObjectHelperInternal@V__FrameHandler3@@@@YAHPAUEHExceptionRecord@@PAXPBU_s_HandlerType@@PBU_s_CatchableType@@@Z 10027a28     libvcruntime:frame.obj
 0002:00007a48       __sehtable$??$BuildCatchObjectInternal@V__FrameHandler3@@@@YAXPAUEHExceptionRecord@@PAXPBU_s_HandlerType@@PBU_s_CatchableType@@@Z 10027a48     libvcruntime:frame.obj
 0002:00007a9c       __ehfuncinfo$?write_double_translated_ansi_nolock@@YA?AUwrite_result@?A0x17268360@@HQBDIAAV__crt_cached_ptd_host@@@Z 10027a9c     libucrt:write.obj
 0002:00007a9c       __ehfuncinfo$?try_cor_exit_process@@YAXI@Z 10027a9c     libucrt:exit.obj
 0002:00007ac0       __unwindtable$?common_exit@@YAXHW4_crt_exit_cleanup_mode@@W4_crt_exit_return_mode@@@Z 10027ac0     libucrt:exit.obj
 0002:00007ac8       __ehfuncinfo$?common_exit@@YAXHW4_crt_exit_cleanup_mode@@W4_crt_exit_return_mode@@@Z 10027ac8     libucrt:exit.obj
 0002:00007af0       __sehtable$??R<lambda_6e4b09c48022b2350581041d5f6b0c4c>@@QBE@XZ 10027af0     libucrt:exit.obj
 0002:00007b10       __sehtable$??$?RV<lambda_03b1d95aef87969028cfba75ccab2455>@@AAV<lambda_6e4b09c48022b2350581041d5f6b0c4c>@@V<lambda_22bdf7517842c4b3e53723af5aa32b9e>@@@?$__crt_seh_guarded_call@X@@QAEX$$QAV<lambda_03b1d95aef87969028cfba75ccab2455>@@AAV<lambda_6e4b09c48022b2350581041d5f6b0c4c>@@$$QAV<lambda_22bdf7517842c4b3e53723af5aa32b9e>@@@Z 10027b10     libucrt:exit.obj
 0002:00007b2c       __unwindtable$___dcrt_uninitialize_environments_nolock 10027b2c     libucrt:environment_initialization.obj
 0002:00007b3c       __ehfuncinfo$___dcrt_uninitialize_environments_nolock 10027b3c     libucrt:environment_initialization.obj
 0002:00007b60       __unwindtable$__execute_onexit_table 10027b60     libucrt:onexit.obj
 0002:00007b68       __ehfuncinfo$__execute_onexit_table 10027b68     libucrt:onexit.obj
 0002:00007b90       __sehtable$??$?RV<lambda_8e746cf0007f6ed984d6f78af1fec997>@@AAV<lambda_22ebabd17bc4fa466a2aca6d8deb888d>@@V<lambda_18ed0c0b38a6dc0daf1e7ac6d6adf05e>@@@?$__crt_seh_guarded_call@H@@QAEH$$QAV<lambda_8e746cf0007f6ed984d6f78af1fec997>@@AAV<lambda_22ebabd17bc4fa466a2aca6d8deb888d>@@$$QAV<lambda_18ed0c0b38a6dc0daf1e7ac6d6adf05e>@@@Z 10027b90     libucrt:onexit.obj
 0002:00007bb0       __sehtable$??$?RV<lambda_69a2805e680e0e292e8ba93315fe43a8>@@AAV<lambda_f03950bc5685219e0bcd2087efbe011e>@@V<lambda_03fcd07e894ec930e3f35da366ca99d6>@@@?$__crt_seh_guarded_call@H@@QAEH$$QAV<lambda_69a2805e680e0e292e8ba93315fe43a8>@@AAV<lambda_f03950bc5685219e0bcd2087efbe011e>@@$$QAV<lambda_03fcd07e894ec930e3f35da366ca99d6>@@@Z 10027bb0     libucrt:onexit.obj
 0002:00007bd0       __sehtable$__query_new_handler 10027bd0     libucrt:new_handler.obj
 0002:00007bf0       __sehtable$_terminate      10027bf0     libucrt:terminate.obj
 0002:00007c10       __sehtable$??$?RV<lambda_15ade71b0218206bbe3333a0c9b79046>@@AAV<lambda_da44e0f8b0f19ba52fefafb335991732>@@V<lambda_207f2d024fc103971653565357d6cd41>@@@?$__crt_seh_guarded_call@X@@QAEX$$QAV<lambda_15ade71b0218206bbe3333a0c9b79046>@@AAV<lambda_da44e0f8b0f19ba52fefafb335991732>@@$$QAV<lambda_207f2d024fc103971653565357d6cd41>@@@Z 10027c10     libucrt:per_thread_data.obj
 0002:00007c30       __sehtable$??$?RV<lambda_a7e850c220f1c8d1e6efeecdedd162c6>@@AAV<lambda_46720907175c18b6c9d2717bc0d2d362>@@V<lambda_9048902d66e8d99359bc9897bbb930a8>@@@?$__crt_seh_guarded_call@X@@QAEX$$QAV<lambda_a7e850c220f1c8d1e6efeecdedd162c6>@@AAV<lambda_46720907175c18b6c9d2717bc0d2d362>@@$$QAV<lambda_9048902d66e8d99359bc9897bbb930a8>@@@Z 10027c30     libucrt:per_thread_data.obj
 0002:00007c50       __sehtable$??$?RV<lambda_38edbb1296d33220d7e4dd0ed76b244a>@@AAV<lambda_5ce1d447e08cb34b2473517608e21441>@@V<lambda_fb385d3da700c9147fc39e65dd577a8c>@@@?$__crt_seh_guarded_call@X@@QAEX$$QAV<lambda_38edbb1296d33220d7e4dd0ed76b244a>@@AAV<lambda_5ce1d447e08cb34b2473517608e21441>@@$$QAV<lambda_fb385d3da700c9147fc39e65dd577a8c>@@@Z 10027c50     libucrt:per_thread_data.obj
 0002:00007c70       __sehtable$??$?RV<lambda_6affb1475c98b40b75cdec977db92e3c>@@AAV<lambda_b8d4b9c228a6ecc3f80208dbb4b4a104>@@V<lambda_608742c3c92a14382c1684fc64f96c88>@@@?$__crt_seh_guarded_call@X@@QAEX$$QAV<lambda_6affb1475c98b40b75cdec977db92e3c>@@AAV<lambda_b8d4b9c228a6ecc3f80208dbb4b4a104>@@$$QAV<lambda_608742c3c92a14382c1684fc64f96c88>@@@Z 10027c70     libucrt:per_thread_data.obj
 0002:00007c90       __sehtable$??$?RV<lambda_e5124f882df8998aaf41531e079ba474>@@AAV<lambda_3e16ef9562a7dcce91392c22ab16ea36>@@V<lambda_e25ca0880e6ef98be67edffd8c599615>@@@?$__crt_seh_guarded_call@X@@QAEX$$QAV<lambda_e5124f882df8998aaf41531e079ba474>@@AAV<lambda_3e16ef9562a7dcce91392c22ab16ea36>@@$$QAV<lambda_e25ca0880e6ef98be67edffd8c599615>@@@Z 10027c90     libucrt:wsetlocale.obj
 0002:00007cb0       __sehtable$___acrt_initialize_lowio 10027cb0     libucrt:ioinit.obj
 0002:00007cd0       __sehtable$?update_thread_multibyte_data_internal@@YAPAU__crt_multibyte_data@@QAU__acrt_ptd@@QAPAU1@@Z 10027cd0     libucrt:mbctype.obj
 0002:00007cf0       __sehtable$??$?RV<lambda_ceb1ee4838e85a9d631eb091e2fbe199>@@AAV<lambda_ae742caa10f662c28703da3d2ea5e57e>@@V<lambda_cd08b5d6af4937fe54fc07d0c9bf6b37>@@@?$__crt_seh_guarded_call@X@@QAEX$$QAV<lambda_ceb1ee4838e85a9d631eb091e2fbe199>@@AAV<lambda_ae742caa10f662c28703da3d2ea5e57e>@@$$QAV<lambda_cd08b5d6af4937fe54fc07d0c9bf6b37>@@@Z 10027cf0     libucrt:mbctype.obj
 0002:00007d10       __sehtable$_raise          10027d10     libucrt:signal.obj
 0002:00007d30       __sehtable$??$?RV<lambda_cbab9ec6f41b0180b23cc171c22676b0>@@AAV<lambda_44731a7d0e6d81c3e6aa82d741081786>@@V<lambda_4b292cb8dd18144e164572427af410ab>@@@?$__crt_seh_guarded_call@P6AXH@Z@@QAEP6AXH@Z$$QAV<lambda_cbab9ec6f41b0180b23cc171c22676b0>@@AAV<lambda_44731a7d0e6d81c3e6aa82d741081786>@@$$QAV<lambda_4b292cb8dd18144e164572427af410ab>@@@Z 10027d30     libucrt:signal.obj
 0002:00007d50       __sehtable$??$?RV<lambda_2866be3712abc81a800a822484c830d8>@@AAV<lambda_39ca0ed439415581b5b15c265174cece>@@V<lambda_2b24c74d71094a6cd0cb82e44167d71b>@@@?$__crt_seh_guarded_call@X@@QAEX$$QAV<lambda_2866be3712abc81a800a822484c830d8>@@AAV<lambda_39ca0ed439415581b5b15c265174cece>@@$$QAV<lambda_2b24c74d71094a6cd0cb82e44167d71b>@@@Z 10027d50     libucrt:fflush.obj
 0002:00007d70       __sehtable$??$?RV<lambda_2cc53f568c5a2bb6f192f930a45d44ea>@@AAV<lambda_ab61a845afdef5b7c387490eaf3616ee>@@V<lambda_c2ffc0b7726aa6be21d5f0026187e748>@@@?$__crt_seh_guarded_call@X@@QAEX$$QAV<lambda_2cc53f568c5a2bb6f192f930a45d44ea>@@AAV<lambda_ab61a845afdef5b7c387490eaf3616ee>@@$$QAV<lambda_c2ffc0b7726aa6be21d5f0026187e748>@@@Z 10027d70     libucrt:fflush.obj
 0002:00007d90       __sehtable$___acrt_update_thread_locale_data 10027d90     libucrt:locale_refcounting.obj
 0002:00007db0       __sehtable$__fcloseall     10027db0     libucrt:closeall.obj
 0002:00007dd0       __sehtable$___acrt_lowio_ensure_fh_exists 10027dd0     libucrt:osfinfo.obj
 0002:00007df0       __sehtable$??$?RV<lambda_9e9de3de5fa147e2223d7db92bc10aa6>@@AAV<lambda_38ce7e780aa69e748d6df282ebc68efe>@@V<lambda_8ca6da459f0f6780f1cff60fdc3d00e5>@@@?$__crt_seh_guarded_call@H@@QAEH$$QAV<lambda_9e9de3de5fa147e2223d7db92bc10aa6>@@AAV<lambda_38ce7e780aa69e748d6df282ebc68efe>@@$$QAV<lambda_8ca6da459f0f6780f1cff60fdc3d00e5>@@@Z 10027df0     libucrt:commit.obj
 0002:00007e10       __sehtable$__write_internal 10027e10     libucrt:write.obj
 0002:00007e30       __sehtable$?_fclose_internal@@YAHQAU_iobuf@@AAV__crt_cached_ptd_host@@@Z 10027e30     libucrt:fclose.obj
 0002:00007e50       __sehtable$??$?RV<lambda_d422a76eb4c3bf3ad751449ab71a6ea4>@@AAV<lambda_c9ba49e555ba839a7b07aa3fbecb7617>@@V<lambda_9476263c8ee91a25d21c55370bdb50de>@@@?$__crt_seh_guarded_call@H@@QAEH$$QAV<lambda_d422a76eb4c3bf3ad751449ab71a6ea4>@@AAV<lambda_c9ba49e555ba839a7b07aa3fbecb7617>@@$$QAV<lambda_9476263c8ee91a25d21c55370bdb50de>@@@Z 10027e50     libucrt:close.obj
 0002:00007e70       __sehtable$___set_fpsr_sse2 10027e70     libucrt:fpctrl.obj
 0002:00007e90       __sehtable$__IsNonwritableInCurrentImage 10027e90     LIBCMT:pesect.obj
 0002:00007ec0       .edata                     10027ec0     OPOSBumpBar.exp
 0002:00007ee8       rgpv                       10027ee8     OPOSBumpBar.exp
 0002:00007ef8       rgszName                   10027ef8     OPOSBumpBar.exp
 0002:00007f08       rgwOrd                     10027f08     OPOSBumpBar.exp
 0002:00007f10       szName                     10027f10     OPOSBumpBar.exp
 0002:00007f20       $N00001                    10027f20     OPOSBumpBar.exp
 0002:00007f30       $N00002                    10027f30     OPOSBumpBar.exp
 0002:00007f42       $N00003                    10027f42     OPOSBumpBar.exp
 0002:00007f54       $N00004                    10027f54     OPOSBumpBar.exp
 0002:00008562       .idata$6                   10028562     kernel32:KERNEL32.dll
 0002:00008776       .idata$6                   10028776     user32:USER32.dll
 0002:000088aa       .idata$6                   100288aa     gdi32:GDI32.dll
 0002:00008950       .idata$6                   10028950     advapi32:ADVAPI32.dll
 0002:00008a6c       .idata$6                   10028a6c     ole32:ole32.dll
 0002:00008a76       .idata$6                   10028a76     oleaut32:OLEAUT32.dll
 0003:00000110       ?ObjectMap@@3PAU_ATL_OBJMAP_ENTRY30@ATL@@A 10029110     BumpBar.obj
 0003:000001c4       ?s_RequiredMethodsPerRelease@@3PAHA 100291c4     BumpBarImpl.obj
 0003:000001e0       ?s_SOMethodNames@@3PAPADA  100291e0     BumpBarImpl.obj
 0003:00000250       ?__vcrt_flsindex@@3KA      10029250     libvcruntime:per_thread_data.obj
 0003:00000270       ?errno_no_memory@@3HA      10029270     libucrt:errno.obj
 0003:00000274       ?doserrno_no_memory@@3KA   10029274     libucrt:errno.obj
 0003:00000280       ?__acrt_flsindex@@3KA      10029280     libucrt:per_thread_data.obj
 0003:00000618       __mbctypes                 10029618     libucrt:mbctype.obj
 0003:00000720       __mbcasemaps               10029720     libucrt:mbctype.obj
 0003:00000820       ?__rgctypeflag@@3PADA      10029820     libucrt:mbctype.obj
 0003:00000828       ?__rgcode_page_info@@3PAUcode_page_info@@A 10029828     libucrt:mbctype.obj
 0003:00000a80       ?__dcrt_lowio_console_output_handle@@3PAXA 10029a80     libucrt:initcon.obj
 0003:00000a84       ?__DAZ_ENABLED@?1??__set_fpsr_sse2@@9@9 10029a84     libucrt:fpctrl.obj
 0003:00000c18       ?is_initialized_as_dll@@3_NA 10029c18     LIBCMT:utility.obj
 0003:00000c19       ?module_local_atexit_table_initialized@@3_NA 10029c19     LIBCMT:utility.obj
 0003:00000c1c       ?module_local_atexit_table@@3U_onexit_table_t@@A 10029c1c     LIBCMT:utility.obj
 0003:00000c28       ?module_local_at_quick_exit_table@@3U_onexit_table_t@@A 10029c28     LIBCMT:utility.obj
 0003:00000c34       ?g_tss_cv@@3U_RTL_CONDITION_VARIABLE@@A 10029c34     LIBCMT:thread_safe_statics.obj
 0003:00000c38       ?g_tss_event@@3PAXA        10029c38     LIBCMT:thread_safe_statics.obj
 0003:00000c3c       ?g_tss_mutex@@3U_RTL_CRITICAL_SECTION@@A 10029c3c     LIBCMT:thread_safe_statics.obj
 0003:00000c54       ?g_sleep_condition_variable_cs@@3P6GHPAU_RTL_CONDITION_VARIABLE@@PAU_RTL_CRITICAL_SECTION@@K@ZA 10029c54     LIBCMT:thread_safe_statics.obj
 0003:00000c58       ?g_wake_all_condition_variable@@3P6GXPAU_RTL_CONDITION_VARIABLE@@@ZA 10029c58     LIBCMT:thread_safe_statics.obj
 0003:00000c60       _GS_ExceptionRecord        10029c60     LIBCMT:gs_report.obj
 0003:00000cb0       _GS_ContextRecord          10029cb0     LIBCMT:gs_report.obj
 0003:00000f80       ?__proc_attached@@3HA      10029f80     LIBCMT:dll_dllmain.obj
 0003:00000fdc       ?AllocateData@@3P6GPAUAtlThunkData_t@@XZA 10029fdc     atls:atlthunk.obj
 0003:00000fe0       ?InitData@@3P6GXPAUAtlThunkData_t@@PAXI@ZA 10029fe0     atls:atlthunk.obj
 0003:00000fe4       ?DataToCode@@3P6GP6GJPAUHWND__@@IIJ@ZPAUAtlThunkData_t@@@ZA 10029fe4     atls:atlthunk.obj
 0003:00000fe8       ?FreeData@@3P6GXPAUAtlThunkData_t@@@ZA 10029fe8     atls:atlthunk.obj
 0003:00000fec       ?Initialized@@3_NA         10029fec     atls:atlthunk.obj
 0003:00000ffc       ?__vcrt_startup_thread_ptd@@3U__vcrt_ptd@@A 10029ffc     libvcruntime:per_thread_data.obj
 0003:00001024       ___vcrt_lock_table         1002a024     libvcruntime:locks.obj
 0003:0000103c       ___vcrt_locks_initialized  1002a03c     libvcruntime:locks.obj
 0003:00001068       ?heap@@3V_HeapManager@@A   1002a068     libvcruntime:undname.obj
 0003:0000107c       ?module_handles@@3PAPAUHINSTANCE__@@A 1002a07c     libvcruntime:winapi_downlevel.obj
 0003:00001088       ?function_pointers@@3PAPAXA 1002a088     libvcruntime:winapi_downlevel.obj
 0003:0000109c       ?__acrt_invalid_parameter_handler@@3V?$dual_state_global@P6AXPB_W00II@Z@__crt_state_management@@A 1002a09c     libucrt:invalid_parameter.obj
 0003:000010a0       ?c_termination_complete@@3JA 1002a0a0     libucrt:exit.obj
 0003:000010a4       ?thread_local_exit_callback_func@@3P6GXPAXK0@ZA 1002a0a4     libucrt:exit.obj
 0003:000010b0       ?program_name@?1???$common_configure_argv@D@@YAHW4_crt_argv_mode@@@Z@4PADA 1002a0b0     libucrt:argv_parsing.obj
 0003:000011e0       ?__acrt_new_handler@@3V?$dual_state_global@P6AHI@Z@__crt_state_management@@A 1002a1e0     libucrt:new_handler.obj
 0003:000011f0       ?module_handles@@3PAPAUHINSTANCE__@@A 1002a1f0     libucrt:winapi_thunks.obj
 0003:00001240       ?encoded_function_pointers@@3PAPAXA 1002a240     libucrt:winapi_thunks.obj
 0003:000012c8       ?internal_state@?1??_mbtowc_internal@@9@4U_Mbstatet@@A 1002a2c8     libucrt:mbtowc.obj
 0003:000012d8       ?enable_percent_n@@3IA     1002a2d8     libucrt:printf_count_output.obj
 0003:000014f0       ?__acrt_lock_table@@3PAU_RTL_CRITICAL_SECTION@@A 1002a4f0     libucrt:locks.obj
 0003:00001640       ?__acrt_locks_initialized@@3IA 1002a640     libucrt:locks.obj
 0003:00001650       ?fSystemSet@@3HA           1002a650     libucrt:mbctype.obj
 0003:00001654       ?initialized@?1??__acrt_initialize_multibyte@@9@4_NA 1002a654     libucrt:mbctype.obj
 0003:00001674       ?ctrlc_action@@3V?$dual_state_global@P6AXH@Z@__crt_state_management@@A 1002a674     libucrt:signal.obj
 0003:00001678       ?ctrlbreak_action@@3V?$dual_state_global@P6AXH@Z@__crt_state_management@@A 1002a678     libucrt:signal.obj
 0003:0000167c       ?abort_action@@3V?$dual_state_global@P6AXH@Z@__crt_state_management@@A 1002a67c     libucrt:signal.obj
 0003:00001680       ?term_action@@3V?$dual_state_global@P6AXH@Z@__crt_state_management@@A 1002a680     libucrt:signal.obj
 0003:00001684       ?user_matherr@@3V?$dual_state_global@P6AHPAU_exception@@@Z@__crt_state_management@@A 1002a684     libucrt:matherr.obj
 0003:00001690       ?__acrt_global_new_mode@@3V?$dual_state_global@J@__crt_state_management@@A 1002a690     libucrt:new_mode.obj
 0003:00001694       ?internal_pst@?1??__mbrtoc32_utf8@__crt_mbstring@@YAIPA_UPBDIPAU_Mbstatet@@AAV__crt_cached_ptd_host@@@Z@4U3@A 1002a694     libucrt:mbrtoc32.obj
 0003:0000169c       ?__acrt_app_type@@3W4_crt_app_type@@A 1002a69c     libucrt:report_runtime_error.obj
 0003:000016a4       __pmatherr_set             1002a6a4     libucrt:libm_error.obj
 0004:00000220       $R000000                   1002b220     BumpBar.res
 0004:00000ba8       $R000988                   1002bba8     BumpBar.res
 0004:00000c90       $R000A70                   1002bc90     BumpBar.res
 0004:00000ef8       $R000CD8                   1002bef8     BumpBar.res
 0004:00001448       $R001228                   1002c448     BumpBar.res
 0004:00004360       $R004140                   1002f360     BumpBar.res
 0004:00004390       $R004170                   1002f390     BumpBar.res
