 OPOSPOSKeyboard

 Timestamp is 600f79d8 (Tue Jan 26 11:09:28 2021)

 Preferred load address is 10000000

 Start         Length     Name                   Class
 0001:00000000 00000080H .text$di                CODE
 0001:00000080 0001e073H .text$mn                CODE
 0001:0001e0f3 0000003aH .text$x                 CODE
 0001:0001e12d 00000042H .text$yd                CODE
 0002:00000000 000002fcH .idata$5                DATA
 0002:000002fc 00000004H .00cfg                  DATA
 0002:00000300 00000004H .CRT$XCA                DATA
 0002:00000304 00000004H .CRT$XCL                DATA
 0002:00000308 00000010H .CRT$XCU                DATA
 0002:00000318 00000004H .CRT$XCZ                DATA
 0002:0000031c 00000004H .CRT$XIA                DATA
 0002:00000320 00000010H .CRT$XIC                DATA
 0002:00000330 00000004H .CRT$XIZ                DATA
 0002:00000334 00000004H .CRT$XLA                DATA
 0002:00000338 00000004H .CRT$XLZ                DATA
 0002:0000033c 00000004H .CRT$XPA                DATA
 0002:00000340 00000008H .CRT$XPX                DATA
 0002:00000348 00000004H .CRT$XPXA               DATA
 0002:0000034c 00000004H .CRT$XPZ                DATA
 0002:00000350 00000004H .CRT$XTA                DATA
 0002:00000354 0000000cH .CRT$XTZ                DATA
 0002:00000358 00000000H .gfids$y                DATA
 0002:00000360 00007220H .rdata                  DATA
 0002:00007580 00000000H .rdata$CastGuardVftablesA DATA
 0002:00007580 00000000H .rdata$CastGuardVftablesC DATA
 0002:00007580 00000018H .rdata$T                DATA
 0002:00007598 00000178H .rdata$r                DATA
 0002:00007710 0000001cH .rdata$sxdata           DATA
 0002:0000772c 000003e0H .rdata$zzzdbg           DATA
 0002:00007b0c 00000004H .rtc$IAA                DATA
 0002:00007b10 00000004H .rtc$IZZ                DATA
 0002:00007b14 00000004H .rtc$TAA                DATA
 0002:00007b18 00000004H .rtc$TZZ                DATA
 0002:00007b1c 00000004H .tls                    DATA
 0002:00007b20 00000004H .tls$                   DATA
 0002:00007b24 00000004H .tls$ZZZ                DATA
 0002:00007b28 0000062cH .xdata$x                DATA
 0002:00008154 00000004H ATL$__a                 DATA
 0002:00008158 00000008H ATL$__z                 DATA
 0002:00008160 000000acH .edata                  DATA
 0002:0000820c 00000078H .idata$2                DATA
 0002:00008284 00000014H .idata$3                DATA
 0002:00008298 000002fcH .idata$4                DATA
 0002:00008594 00000bceH .idata$6                DATA
 0003:00000000 00000ab0H .data                   DATA
 0003:00000ab0 00000098H .data$r                 DATA
 0003:00000b48 00000b88H .bss                    DATA
 0004:00000000 00000220H .rsrc$01                DATA
 0004:00000220 00003b38H .rsrc$02                DATA

  Address         Publics by Value              Rva+Base       Lib:Object

 0000:00000000       ___guard_fids_count        00000000     <absolute>
 0000:00000000       ___guard_eh_cont_table     00000000     <absolute>
 0000:00000000       ___guard_longjmp_table     00000000     <absolute>
 0000:00000000       ___volatile_metadata       00000000     <absolute>
 0000:00000000       ___arm64x_extra_rfe_table  00000000     <absolute>
 0000:00000000       ___arm64x_redirection_metadata 00000000     <absolute>
 0000:00000000       ___guard_iat_count         00000000     <absolute>
 0000:00000000       ___guard_eh_cont_count     00000000     <absolute>
 0000:00000000       __except_list              00000000     <absolute>
 0000:00000000       ___x64_code_ranges_to_entry_points_count 00000000     <absolute>
 0000:00000000       ___hybrid_code_map_count   00000000     <absolute>
 0000:00000000       ___x64_code_ranges_to_entry_points 00000000     <absolute>
 0000:00000000       ___guard_iat_table         00000000     <absolute>
 0000:00000000       ___arm64x_native_entrypoint 00000000     <absolute>
 0000:00000000       ___hybrid_code_map         00000000     <absolute>
 0000:00000000       ___arm64x_extra_rfe_table_size 00000000     <absolute>
 0000:00000000       ___guard_longjmp_count     00000000     <absolute>
 0000:00000000       ___arm64x_redirection_metadata_count 00000000     <absolute>
 0000:00000000       ___hybrid_auxiliary_iat    00000000     <absolute>
 0000:00000000       ___dynamic_value_reloc_table 00000000     <absolute>
 0000:00000000       ___AbsoluteZero            00000000     <absolute>
 0000:00000000       ___enclave_config          00000000     <absolute>
 0000:00000000       ___guard_fids_table        00000000     <absolute>
 0000:00000007       ___safe_se_handler_count   00000007     <absolute>
 0000:0000002c       __tls_array                0000002c     <absolute>
 0000:00000100       ___guard_flags             00000100     <absolute>
 0000:00000000       ___ImageBase               10000000     <linker-defined>
 0001:00000080       ?DupWide@_CW@@AAEXXZ       10001080 f   CWString.obj
 0001:0000009c       ?cw_dup@@YGXPBDAAHAAPA_W1@Z 1000109c f   CWString.obj
 0001:00000124       ?cw_memcpy@@YGHPA_WPBDH@Z  10001124 f   CWString.obj
 0001:00000150       ?cw_strcpy@@YAHPA_WPBD@Z   10001150 f   CWString.obj
 0001:00000163       ?cw_strlen@@YAHPBD@Z       10001163 f   CWString.obj
 0001:0000017c       ??0CAtlComModule@ATL@@QAE@XZ 1000117c f i OposVariant.obj
 0001:000001c1       ??0CAtlWinModule@ATL@@QAE@XZ 100011c1 f i OposVariant.obj
 0001:000001f8       ??0OposDispParms@@QAE@PAVOposVariant@@H@Z 100011f8 f   OposVariant.obj
 0001:00000269       ??1OposDispParms@@QAE@XZ   10001269 f   OposVariant.obj
 0001:00000277       ??A?$CSimpleArray@GV?$CSimpleArrayEqualHelper@G@ATL@@@ATL@@QAEAAGH@Z 10001277 f i OposVariant.obj
 0001:0000029c       ??_Estringdispid@CComTypeInfoHolder@ATL@@QAEPAXI@Z 1000129c f i OposVariant.obj
 0001:00000308       ?AtlWinModuleInit@ATL@@YGJPAU_ATL_WIN_MODULE70@1@@Z 10001308 f i OposVariant.obj
 0001:0000032e       ?AtlWinModuleTerm@ATL@@YGJPAU_ATL_WIN_MODULE70@1@PAUHINSTANCE__@@@Z 1000132e f i OposVariant.obj
 0001:00000391       ?ChangeBSTR@OposVariant@@QAEXPAPA_WAAJ@Z 10001391 f   OposVariant.obj
 0001:000003d2       ?ChangeLONG@OposVariant@@QAEXPAJAAJ@Z 100013d2 f   OposVariant.obj
 0001:00000413       ?GetLONG@OposVariant@@QAEJXZ 10001413 f   OposVariant.obj
 0001:0000042e       ?Init@CComCriticalSection@ATL@@QAEJXZ 1000142e f i OposVariant.obj
 0001:00000456       ?RemoveAll@?$CSimpleArray@GV?$CSimpleArrayEqualHelper@G@ATL@@@ATL@@QAEXXZ 10001456 f i OposVariant.obj
 0001:00000456       ?RemoveAll@?$CSimpleArray@PAUHINSTANCE__@@V?$CSimpleArrayEqualHelper@PAUHINSTANCE__@@@ATL@@@ATL@@QAEXXZ 10001456 f i atls:atlbase.obj
 0001:00000473       ?SetBSTR@OposVariant@@QAEXPA_WAAJ@Z 10001473 f   OposVariant.obj
 0001:000004a7       ?SetBSTR_Copy@OposVariant@@QAEXPA_WAAJ@Z 100014a7 f   OposVariant.obj
 0001:000004f7       ?SetBSTR_InOutPtr@OposVariant@@QAE_NPAPA_WAAJ@Z 100014f7 f   OposVariant.obj
 0001:0000052e       ?SetDispatch_Ptr@OposVariant@@QAEXPAUIDispatch@@AAJ@Z 1000152e f   OposVariant.obj
 0001:00000569       ?SetLONG@OposVariant@@QAEXJ@Z 10001569 f   OposVariant.obj
 0001:0000058b       ?SetLONG_Ptr@OposVariant@@QAEXPAJAAJ@Z 1000158b f   OposVariant.obj
 0001:000005be       ?SetString@OposVariant@@QAEXPB_WAAJ@Z 100015be f   OposVariant.obj
 0001:00000604       ?SetVARIANT_BOOL@OposVariant@@QAEXF@Z 10001604 f   OposVariant.obj
 0001:0000062e       ?Term@CAtlComModule@ATL@@QAEXXZ 1000162e f i OposVariant.obj
 0001:00000678       ?_AtlRaiseException@ATL@@YAXKK@Z 10001678 f i OposVariant.obj
 0001:0000068d       ?Release@?$CComObject@VCOPOSPOSKeyboard@@@ATL@@WIE@AGKXZ 1000168d f i POSKeyboard.obj
 0001:0000069a       ?QueryInterface@?$CComObject@VCOPOSPOSKeyboard@@@ATL@@WII@AGJABU_GUID@@PAPAX@Z 1000169a f i POSKeyboard.obj
 0001:000006a7       ?AddRef@?$CComObject@VCOPOSPOSKeyboard@@@ATL@@WII@AGKXZ 100016a7 f i POSKeyboard.obj
 0001:000006b4       ?Release@?$CComObject@VCOPOSPOSKeyboard@@@ATL@@WII@AGKXZ 100016b4 f i POSKeyboard.obj
 0001:000006c1       ?QueryInterface@?$CComObject@VCOPOSPOSKeyboard@@@ATL@@WIM@AGJABU_GUID@@PAPAX@Z 100016c1 f i POSKeyboard.obj
 0001:000006ce       ?AddRef@?$CComObject@VCOPOSPOSKeyboard@@@ATL@@WIM@AGKXZ 100016ce f i POSKeyboard.obj
 0001:000006db       ?Release@?$CComObject@VCOPOSPOSKeyboard@@@ATL@@WIM@AGKXZ 100016db f i POSKeyboard.obj
 0001:000006e8       ?QueryInterface@?$CComObject@VCOPOSPOSKeyboard@@@ATL@@WJA@AGJABU_GUID@@PAPAX@Z 100016e8 f i POSKeyboard.obj
 0001:000006f5       ?AddRef@?$CComObject@VCOPOSPOSKeyboard@@@ATL@@WJA@AGKXZ 100016f5 f i POSKeyboard.obj
 0001:00000702       ?Release@?$CComObject@VCOPOSPOSKeyboard@@@ATL@@WJA@AGKXZ 10001702 f i POSKeyboard.obj
 0001:0000070f       ?QueryInterface@?$CComObject@VCOPOSPOSKeyboard@@@ATL@@WJE@AGJABU_GUID@@PAPAX@Z 1000170f f i POSKeyboard.obj
 0001:0000071c       ?AddRef@?$CComObject@VCOPOSPOSKeyboard@@@ATL@@WJE@AGKXZ 1000171c f i POSKeyboard.obj
 0001:00000729       ?Release@?$CComObject@VCOPOSPOSKeyboard@@@ATL@@WJE@AGKXZ 10001729 f i POSKeyboard.obj
 0001:00000736       ?QueryInterface@?$CComObject@VCOPOSPOSKeyboard@@@ATL@@WJI@AGJABU_GUID@@PAPAX@Z 10001736 f i POSKeyboard.obj
 0001:00000743       ?AddRef@?$CComObject@VCOPOSPOSKeyboard@@@ATL@@WJI@AGKXZ 10001743 f i POSKeyboard.obj
 0001:00000750       ?Release@?$CComObject@VCOPOSPOSKeyboard@@@ATL@@WJI@AGKXZ 10001750 f i POSKeyboard.obj
 0001:0000075d       ?QueryInterface@?$CComObject@VCOPOSPOSKeyboard@@@ATL@@WJM@AGJABU_GUID@@PAPAX@Z 1000175d f i POSKeyboard.obj
 0001:0000076a       ?AddRef@?$CComObject@VCOPOSPOSKeyboard@@@ATL@@WJM@AGKXZ 1000176a f i POSKeyboard.obj
 0001:00000777       ?Release@?$CComObject@VCOPOSPOSKeyboard@@@ATL@@WJM@AGKXZ 10001777 f i POSKeyboard.obj
 0001:00000784       ?QueryInterface@?$CComObject@VCOPOSPOSKeyboard@@@ATL@@WKA@AGJABU_GUID@@PAPAX@Z 10001784 f i POSKeyboard.obj
 0001:00000791       ?AddRef@?$CComObject@VCOPOSPOSKeyboard@@@ATL@@WKA@AGKXZ 10001791 f i POSKeyboard.obj
 0001:0000079e       ?Release@?$CComObject@VCOPOSPOSKeyboard@@@ATL@@WKA@AGKXZ 1000179e f i POSKeyboard.obj
 0001:000007ab       ?AddRef@?$CComObject@VCOPOSPOSKeyboard@@@ATL@@WKI@AGKXZ 100017ab f i POSKeyboard.obj
 0001:000007b8       ?Release@?$CComObject@VCOPOSPOSKeyboard@@@ATL@@WKI@AGKXZ 100017b8 f i POSKeyboard.obj
 0001:000007c5       ?AddRef@?$CComObject@VCOPOSPOSKeyboard@@@ATL@@WLE@AGKXZ 100017c5 f i POSKeyboard.obj
 0001:000007d2       ?Release@?$CComObject@VCOPOSPOSKeyboard@@@ATL@@WLE@AGKXZ 100017d2 f i POSKeyboard.obj
 0001:000007df       ??_E?$CComContainedObject@VCOPOSPOSKeyboard@@@ATL@@W3AEPAXI@Z 100017df f i POSKeyboard.obj
 0001:000007e7       ??_E?$CComContainedObject@VCOPOSPOSKeyboard@@@ATL@@WEM@AEPAXI@Z 100017e7 f i POSKeyboard.obj
 0001:000007ef       ?QueryInterface@?$CComContainedObject@VCOPOSPOSKeyboard@@@ATL@@WHA@AGJABU_GUID@@PAPAX@Z 100017ef f i POSKeyboard.obj
 0001:000007f9       ?AddRef@?$CComContainedObject@VCOPOSPOSKeyboard@@@ATL@@WHA@AGKXZ 100017f9 f i POSKeyboard.obj
 0001:00000803       ?Release@?$CComContainedObject@VCOPOSPOSKeyboard@@@ATL@@WHA@AGKXZ 10001803 f i POSKeyboard.obj
 0001:0000080d       ?QueryInterface@?$CComContainedObject@VCOPOSPOSKeyboard@@@ATL@@WHE@AGJABU_GUID@@PAPAX@Z 1000180d f i POSKeyboard.obj
 0001:00000817       ?AddRef@?$CComContainedObject@VCOPOSPOSKeyboard@@@ATL@@WHE@AGKXZ 10001817 f i POSKeyboard.obj
 0001:00000821       ?Release@?$CComContainedObject@VCOPOSPOSKeyboard@@@ATL@@WHE@AGKXZ 10001821 f i POSKeyboard.obj
 0001:0000082b       ?QueryInterface@?$CComContainedObject@VCOPOSPOSKeyboard@@@ATL@@WHI@AGJABU_GUID@@PAPAX@Z 1000182b f i POSKeyboard.obj
 0001:00000835       ?AddRef@?$CComContainedObject@VCOPOSPOSKeyboard@@@ATL@@WHI@AGKXZ 10001835 f i POSKeyboard.obj
 0001:0000083f       ?Release@?$CComContainedObject@VCOPOSPOSKeyboard@@@ATL@@WHI@AGKXZ 1000183f f i POSKeyboard.obj
 0001:00000849       ?QueryInterface@?$CComContainedObject@VCOPOSPOSKeyboard@@@ATL@@WHM@AGJABU_GUID@@PAPAX@Z 10001849 f i POSKeyboard.obj
 0001:00000853       ?AddRef@?$CComContainedObject@VCOPOSPOSKeyboard@@@ATL@@WHM@AGKXZ 10001853 f i POSKeyboard.obj
 0001:0000085d       ?Release@?$CComContainedObject@VCOPOSPOSKeyboard@@@ATL@@WHM@AGKXZ 1000185d f i POSKeyboard.obj
 0001:00000867       ?QueryInterface@?$CComContainedObject@VCOPOSPOSKeyboard@@@ATL@@WIA@AGJABU_GUID@@PAPAX@Z 10001867 f i POSKeyboard.obj
 0001:00000874       ?AddRef@?$CComContainedObject@VCOPOSPOSKeyboard@@@ATL@@WIA@AGKXZ 10001874 f i POSKeyboard.obj
 0001:00000881       ?Release@?$CComContainedObject@VCOPOSPOSKeyboard@@@ATL@@WIA@AGKXZ 10001881 f i POSKeyboard.obj
 0001:0000088e       ?QueryInterface@?$CComContainedObject@VCOPOSPOSKeyboard@@@ATL@@WIE@AGJABU_GUID@@PAPAX@Z 1000188e f i POSKeyboard.obj
 0001:0000089b       ?AddRef@?$CComContainedObject@VCOPOSPOSKeyboard@@@ATL@@WIE@AGKXZ 1000189b f i POSKeyboard.obj
 0001:000008a8       ?Release@?$CComContainedObject@VCOPOSPOSKeyboard@@@ATL@@WIE@AGKXZ 100018a8 f i POSKeyboard.obj
 0001:000008b5       ?QueryInterface@?$CComContainedObject@VCOPOSPOSKeyboard@@@ATL@@WII@AGJABU_GUID@@PAPAX@Z 100018b5 f i POSKeyboard.obj
 0001:000008c2       ?AddRef@?$CComContainedObject@VCOPOSPOSKeyboard@@@ATL@@WII@AGKXZ 100018c2 f i POSKeyboard.obj
 0001:000008cf       ?Release@?$CComContainedObject@VCOPOSPOSKeyboard@@@ATL@@WII@AGKXZ 100018cf f i POSKeyboard.obj
 0001:000008dc       ?QueryInterface@?$CComContainedObject@VCOPOSPOSKeyboard@@@ATL@@WIM@AGJABU_GUID@@PAPAX@Z 100018dc f i POSKeyboard.obj
 0001:000008e9       ?AddRef@?$CComContainedObject@VCOPOSPOSKeyboard@@@ATL@@WIM@AGKXZ 100018e9 f i POSKeyboard.obj
 0001:000008f6       ?Release@?$CComContainedObject@VCOPOSPOSKeyboard@@@ATL@@WIM@AGKXZ 100018f6 f i POSKeyboard.obj
 0001:00000903       ?QueryInterface@?$CComContainedObject@VCOPOSPOSKeyboard@@@ATL@@WJA@AGJABU_GUID@@PAPAX@Z 10001903 f i POSKeyboard.obj
 0001:00000910       ?AddRef@?$CComContainedObject@VCOPOSPOSKeyboard@@@ATL@@WJA@AGKXZ 10001910 f i POSKeyboard.obj
 0001:0000091d       ?Release@?$CComContainedObject@VCOPOSPOSKeyboard@@@ATL@@WJA@AGKXZ 1000191d f i POSKeyboard.obj
 0001:0000092a       ?QueryInterface@?$CComContainedObject@VCOPOSPOSKeyboard@@@ATL@@WJE@AGJABU_GUID@@PAPAX@Z 1000192a f i POSKeyboard.obj
 0001:00000937       ?AddRef@?$CComContainedObject@VCOPOSPOSKeyboard@@@ATL@@WJE@AGKXZ 10001937 f i POSKeyboard.obj
 0001:00000944       ?Release@?$CComContainedObject@VCOPOSPOSKeyboard@@@ATL@@WJE@AGKXZ 10001944 f i POSKeyboard.obj
 0001:00000951       ?QueryInterface@?$CComContainedObject@VCOPOSPOSKeyboard@@@ATL@@WJI@AGJABU_GUID@@PAPAX@Z 10001951 f i POSKeyboard.obj
 0001:0000095e       ?AddRef@?$CComContainedObject@VCOPOSPOSKeyboard@@@ATL@@WJI@AGKXZ 1000195e f i POSKeyboard.obj
 0001:0000096b       ?Release@?$CComContainedObject@VCOPOSPOSKeyboard@@@ATL@@WJI@AGKXZ 1000196b f i POSKeyboard.obj
 0001:00000978       ?QueryInterface@?$CComContainedObject@VCOPOSPOSKeyboard@@@ATL@@WJM@AGJABU_GUID@@PAPAX@Z 10001978 f i POSKeyboard.obj
 0001:00000985       ?AddRef@?$CComContainedObject@VCOPOSPOSKeyboard@@@ATL@@WJM@AGKXZ 10001985 f i POSKeyboard.obj
 0001:00000992       ?Release@?$CComContainedObject@VCOPOSPOSKeyboard@@@ATL@@WJM@AGKXZ 10001992 f i POSKeyboard.obj
 0001:0000099f       ?QueryInterface@?$CComContainedObject@VCOPOSPOSKeyboard@@@ATL@@WKA@AGJABU_GUID@@PAPAX@Z 1000199f f i POSKeyboard.obj
 0001:000009ac       ?AddRef@?$CComContainedObject@VCOPOSPOSKeyboard@@@ATL@@WKA@AGKXZ 100019ac f i POSKeyboard.obj
 0001:000009b9       ?Release@?$CComContainedObject@VCOPOSPOSKeyboard@@@ATL@@WKA@AGKXZ 100019b9 f i POSKeyboard.obj
 0001:000009c6       ?AddRef@?$CComContainedObject@VCOPOSPOSKeyboard@@@ATL@@WKI@AGKXZ 100019c6 f i POSKeyboard.obj
 0001:000009d3       ?Release@?$CComContainedObject@VCOPOSPOSKeyboard@@@ATL@@WKI@AGKXZ 100019d3 f i POSKeyboard.obj
 0001:000009e0       ?AddRef@?$CComContainedObject@VCOPOSPOSKeyboard@@@ATL@@WLE@AGKXZ 100019e0 f i POSKeyboard.obj
 0001:000009ed       ?Release@?$CComContainedObject@VCOPOSPOSKeyboard@@@ATL@@WLE@AGKXZ 100019ed f i POSKeyboard.obj
 0001:000009fa       ?CreateInstance@CComClassFactory@ATL@@UAGJPAUIUnknown@@ABU_GUID@@PAPAX@Z 100019fa f i POSKeyboard.obj
 0001:00000a38       ?LockServer@CComClassFactory@ATL@@UAGJH@Z 10001a38 f i POSKeyboard.obj
 0001:00000a57       ??_ECComClassFactory@ATL@@UAEPAXI@Z 10001a57 f i POSKeyboard.obj
 0001:00000a57       ??_GCComClassFactory@ATL@@UAEPAXI@Z 10001a57 f i POSKeyboard.obj
 0001:00000a82       ?GetWindowProc@?$CWindowImplBaseT@VCWindow@ATL@@V?$CWinTraits@$0FGAAAAAA@$0A@@2@@ATL@@UAEP6GJPAUHWND__@@IIJ@ZXZ 10001a82 f i POSKeyboard.obj
 0001:00000a88       ?StartWindowProc@?$CWindowImplBaseT@VCWindow@ATL@@V?$CWinTraits@$0FGAAAAAA@$0A@@2@@ATL@@SGJPAUHWND__@@IIJ@Z 10001a88 f i POSKeyboard.obj
 0001:00000adc       ?ObjectMain@CComObjectRootBase@ATL@@SGX_N@Z 10001adc f i POSKeyboard.obj
 0001:00000adc       ?OnFinalMessage@?$CWindowImplBaseT@VCWindow@ATL@@V?$CWinTraits@$0FGAAAAAA@$0A@@2@@ATL@@UAEXPAUHWND__@@@Z 10001adc f i POSKeyboard.obj
 0001:00000adf       ?GetTypeInfoCount@?$IDispatchImpl@UIOPOSPOSKeyboard@@$1?IID_IOPOSPOSKeyboard@@3U_GUID@@B$1?LIBID_OposPOSKeyboard_CCO@@3U3@B$00$0A@VCComTypeInfoHolder@ATL@@@ATL@@UAGJPAI@Z 10001adf f i POSKeyboard.obj
 0001:00000afc       ?GetTypeInfo@?$IDispatchImpl@UIOPOSPOSKeyboard@@$1?IID_IOPOSPOSKeyboard@@3U_GUID@@B$1?LIBID_OposPOSKeyboard_CCO@@3U3@B$00$0A@VCComTypeInfoHolder@ATL@@@ATL@@UAGJIKPAPAUITypeInfo@@@Z 10001afc f i POSKeyboard.obj
 0001:00000b20       ?GetIDsOfNames@?$IDispatchImpl@UIOPOSPOSKeyboard@@$1?IID_IOPOSPOSKeyboard@@3U_GUID@@B$1?LIBID_OposPOSKeyboard_CCO@@3U3@B$00$0A@VCComTypeInfoHolder@ATL@@@ATL@@UAGJABU_GUID@@PAPA_WIKPAJ@Z 10001b20 f i POSKeyboard.obj
 0001:00000b40       ?Invoke@?$IDispatchImpl@UIOPOSPOSKeyboard@@$1?IID_IOPOSPOSKeyboard@@3U_GUID@@B$1?LIBID_OposPOSKeyboard_CCO@@3U3@B$00$0A@VCComTypeInfoHolder@ATL@@@ATL@@UAGJJABU_GUID@@KGPAUtagDISPPARAMS@@PAUtagVARIANT@@PAUtagEXCEPINFO@@PAI@Z 10001b40 f i POSKeyboard.obj
 0001:00000b4e       ?CreateControlWindow@?$CComControl@VCOPOSPOSKeyboard@@V?$CWindowImpl@VCOPOSPOSKeyboard@@VCWindow@ATL@@V?$CWinTraits@$0FGAAAAAA@$0A@@3@@ATL@@@ATL@@UAEPAUHWND__@@PAU3@AAUtagRECT@@@Z 10001b4e f i POSKeyboard.obj
 0001:00000b7d       ?ControlQueryInterface@?$CComControl@VCOPOSPOSKeyboard@@V?$CWindowImpl@VCOPOSPOSKeyboard@@VCWindow@ATL@@V?$CWinTraits@$0FGAAAAAA@$0A@@3@@ATL@@@ATL@@UAEJABU_GUID@@PAPAX@Z 10001b7d f i POSKeyboard.obj
 0001:00000b98       ?GetClassID@?$IPersistStorageImpl@VCOPOSPOSKeyboard@@@ATL@@UAGJPAU_GUID@@@Z 10001b98 f i POSKeyboard.obj
 0001:00000b98       ?GetUserClassID@?$IOleObjectImpl@VCOPOSPOSKeyboard@@@ATL@@UAGJPAU_GUID@@@Z 10001b98 f i POSKeyboard.obj
 0001:00000b98       ?GetClassID@?$IPersistStreamInitImpl@VCOPOSPOSKeyboard@@@ATL@@UAGJPAU_GUID@@@Z 10001b98 f i POSKeyboard.obj
 0001:00000bbc       ?IsDirty@?$IPersistStreamInitImpl@VCOPOSPOSKeyboard@@@ATL@@UAGJXZ 10001bbc f i POSKeyboard.obj
 0001:00000bdb       ?Load@?$IPersistStreamInitImpl@VCOPOSPOSKeyboard@@@ATL@@UAGJPAUIStream@@@Z 10001bdb f i POSKeyboard.obj
 0001:00000bfa       ?Save@?$IPersistStreamInitImpl@VCOPOSPOSKeyboard@@@ATL@@UAGJPAUIStream@@H@Z 10001bfa f i POSKeyboard.obj
 0001:00000c1c       ?GetSizeMax@?$IPersistStreamInitImpl@VCOPOSPOSKeyboard@@@ATL@@UAGJPAT_ULARGE_INTEGER@@@Z 10001c1c f i POSKeyboard.obj
 0001:00000dfb       ?InitNew@?$IPersistStreamInitImpl@VCOPOSPOSKeyboard@@@ATL@@UAGJXZ 10001dfb f i POSKeyboard.obj
 0001:00000e18       ?ContextSensitiveHelp@?$IOleInPlaceActiveObjectImpl@VCOPOSPOSKeyboard@@@ATL@@UAGJH@Z 10001e18 f i POSKeyboard.obj
 0001:00000e18       ?ContextSensitiveHelp@?$IOleInPlaceObjectWindowlessImpl@VCOPOSPOSKeyboard@@@ATL@@UAGJH@Z 10001e18 f i POSKeyboard.obj
 0001:00000e18       ?GetDropTarget@?$IOleInPlaceObjectWindowlessImpl@VCOPOSPOSKeyboard@@@ATL@@UAGJPAPAUIDropTarget@@@Z 10001e18 f i POSKeyboard.obj
 0001:00000e18       ?GetControlInfo@?$IOleControlImpl@VCOPOSPOSKeyboard@@@ATL@@UAGJPAUtagCONTROLINFO@@@Z 10001e18 f i POSKeyboard.obj
 0001:00000e18       ?SetColorScheme@?$IOleObjectImpl@VCOPOSPOSKeyboard@@@ATL@@UAGJPAUtagLOGPALETTE@@@Z 10001e18 f i POSKeyboard.obj
 0001:00000e18       ?Unfreeze@?$IViewObjectExImpl@VCOPOSPOSKeyboard@@@ATL@@UAGJK@Z 10001e18 f i POSKeyboard.obj
 0001:00000e18       ?OnMnemonic@?$IOleControlImpl@VCOPOSPOSKeyboard@@@ATL@@UAGJPAUtagMSG@@@Z 10001e18 f i POSKeyboard.obj
 0001:00000e18       ?QueryGetData@?$IDataObjectImpl@VCOPOSPOSKeyboard@@@ATL@@UAGJPAUtagFORMATETC@@@Z 10001e18 f i POSKeyboard.obj
 0001:00000e18       ?SOOutputCompleteDummy@COPOSPOSKeyboard@@MAGJJ@Z 10001e18 f i POSKeyboard.obj
 0001:00000e20       ?SaveCompleted@?$IPersistStorageImpl@VCOPOSPOSKeyboard@@@ATL@@UAGJPAUIStorage@@@Z 10001e20 f i POSKeyboard.obj
 0001:00000e20       ?EnableModeless@?$IOleInPlaceActiveObjectImpl@VCOPOSPOSKeyboard@@@ATL@@UAGJH@Z 10001e20 f i POSKeyboard.obj
 0001:00000e20       ?OnAmbientPropertyChange@?$IOleControlImpl@VCOPOSPOSKeyboard@@@ATL@@UAGJJ@Z 10001e20 f i POSKeyboard.obj
 0001:00000e20       ?OnFrameWindowActivate@?$IOleInPlaceActiveObjectImpl@VCOPOSPOSKeyboard@@@ATL@@UAGJH@Z 10001e20 f i POSKeyboard.obj
 0001:00000e25       ?SetClientSite@?$IOleObjectImpl@VCOPOSPOSKeyboard@@@ATL@@UAGJPAUIOleClientSite@@@Z 10001e25 f i POSKeyboard.obj
 0001:00000e42       ?GetClientSite@?$IOleObjectImpl@VCOPOSPOSKeyboard@@@ATL@@UAGJPAPAUIOleClientSite@@@Z 10001e42 f i POSKeyboard.obj
 0001:00000e5f       ?SetHostNames@?$IOleObjectImpl@VCOPOSPOSKeyboard@@@ATL@@UAGJPB_W0@Z 10001e5f f i POSKeyboard.obj
 0001:00000e64       ?Close@?$IOleObjectImpl@VCOPOSPOSKeyboard@@@ATL@@UAGJK@Z 10001e64 f i POSKeyboard.obj
 0001:00000e81       ?EnumFormatEtc@?$IDataObjectImpl@VCOPOSPOSKeyboard@@@ATL@@UAGJKPAPAUIEnumFORMATETC@@@Z 10001e81 f i POSKeyboard.obj
 0001:00000e81       ?GetDataHere@?$IDataObjectImpl@VCOPOSPOSKeyboard@@@ATL@@UAGJPAUtagFORMATETC@@PAUtagSTGMEDIUM@@@Z 10001e81 f i POSKeyboard.obj
 0001:00000e81       ?QueryInterface@CRegObject@ATL@@UAGJABU_GUID@@PAPAX@Z 10001e81 f i POSKeyboard.obj
 0001:00000e81       ?GetClipboardData@?$IOleObjectImpl@VCOPOSPOSKeyboard@@@ATL@@UAGJKPAPAUIDataObject@@@Z 10001e81 f i POSKeyboard.obj
 0001:00000e81       ?GetRect@?$IViewObjectExImpl@VCOPOSPOSKeyboard@@@ATL@@UAGJKPAU_RECTL@@@Z 10001e81 f i POSKeyboard.obj
 0001:00000e81       ?SetMoniker@?$IOleObjectImpl@VCOPOSPOSKeyboard@@@ATL@@UAGJKPAUIMoniker@@@Z 10001e81 f i POSKeyboard.obj
 0001:00000e81       ?GetCanonicalFormatEtc@?$IDataObjectImpl@VCOPOSPOSKeyboard@@@ATL@@UAGJPAUtagFORMATETC@@0@Z 10001e81 f i POSKeyboard.obj
 0001:00000e89       ?SetData@?$IDataObjectImpl@VCOPOSPOSKeyboard@@@ATL@@UAGJPAUtagFORMATETC@@PAUtagSTGMEDIUM@@H@Z 10001e89 f i POSKeyboard.obj
 0001:00000e89       ?InitFromData@?$IOleObjectImpl@VCOPOSPOSKeyboard@@@ATL@@UAGJPAUIDataObject@@HK@Z 10001e89 f i POSKeyboard.obj
 0001:00000e89       ?GetMoniker@?$IOleObjectImpl@VCOPOSPOSKeyboard@@@ATL@@UAGJKKPAPAUIMoniker@@@Z 10001e89 f i POSKeyboard.obj
 0001:00000e91       ?DoVerb@?$IOleObjectImpl@VCOPOSPOSKeyboard@@@ATL@@UAGJJPAUtagMSG@@PAUIOleClientSite@@JPAUHWND__@@PBUtagRECT@@@Z 10001e91 f i POSKeyboard.obj
 0001:00000f85       ?EnumVerbs@?$IOleObjectImpl@VCOPOSPOSKeyboard@@@ATL@@UAGJPAPAUIEnumOLEVERB@@@Z 10001f85 f i POSKeyboard.obj
 0001:00000fa7       ?IsUpToDate@?$IOleObjectImpl@VCOPOSPOSKeyboard@@@ATL@@UAGJXZ 10001fa7 f i POSKeyboard.obj
 0001:00000fa7       ?Release@CRegObject@ATL@@UAGKXZ 10001fa7 f i POSKeyboard.obj
 0001:00000fa7       ?Update@?$IOleObjectImpl@VCOPOSPOSKeyboard@@@ATL@@UAGJXZ 10001fa7 f i POSKeyboard.obj
 0001:00000fa7       ?HandsOffStorage@?$IPersistStorageImpl@VCOPOSPOSKeyboard@@@ATL@@UAGJXZ 10001fa7 f i POSKeyboard.obj
 0001:00000fac       ?GetUserType@?$IOleObjectImpl@VCOPOSPOSKeyboard@@@ATL@@UAGJKPAPA_W@Z 10001fac f i POSKeyboard.obj
 0001:00000fc4       ?SetExtent@?$IOleObjectImpl@VCOPOSPOSKeyboard@@@ATL@@UAGJKPAUtagSIZE@@@Z 10001fc4 f i POSKeyboard.obj
 0001:00000fe4       ?GetExtent@?$IOleObjectImpl@VCOPOSPOSKeyboard@@@ATL@@UAGJKPAUtagSIZE@@@Z 10001fe4 f i POSKeyboard.obj
 0001:00001022       ?Advise@?$IOleObjectImpl@VCOPOSPOSKeyboard@@@ATL@@UAGJPAUIAdviseSink@@PAK@Z 10002022 f i POSKeyboard.obj
 0001:00001042       ?Unadvise@?$IOleObjectImpl@VCOPOSPOSKeyboard@@@ATL@@UAGJK@Z 10002042 f i POSKeyboard.obj
 0001:00001071       ?EnumAdvise@?$IOleObjectImpl@VCOPOSPOSKeyboard@@@ATL@@UAGJPAPAUIEnumSTATDATA@@@Z 10002071 f i POSKeyboard.obj
 0001:000010b1       ?GetMiscStatus@?$IOleObjectImpl@VCOPOSPOSKeyboard@@@ATL@@UAGJKPAK@Z 100020b1 f i POSKeyboard.obj
 0001:000010c9       ?GetWindow@?$IOleInPlaceActiveObjectImpl@VCOPOSPOSKeyboard@@@ATL@@UAGJPAPAUHWND__@@@Z 100020c9 f i POSKeyboard.obj
 0001:00001116       ?TranslateAcceleratorW@?$IOleInPlaceActiveObjectImpl@VCOPOSPOSKeyboard@@@ATL@@UAGJPAUtagMSG@@@Z 10002116 f i POSKeyboard.obj
 0001:000011c4       ?OnDocWindowActivate@?$IOleInPlaceActiveObjectImpl@VCOPOSPOSKeyboard@@@ATL@@UAGJH@Z 100021c4 f i POSKeyboard.obj
 0001:000011e6       ?ResizeBorder@?$IOleInPlaceActiveObjectImpl@VCOPOSPOSKeyboard@@@ATL@@UAGJPBUtagRECT@@PAUIOleInPlaceUIWindow@@H@Z 100021e6 f i POSKeyboard.obj
 0001:000011eb       ?Draw@?$IViewObjectExImpl@VCOPOSPOSKeyboard@@@ATL@@UAGJKJPAXPAUtagDVTARGETDEVICE@@PAUHDC__@@2PBU_RECTL@@3P6GHK@ZK@Z 100021eb f i POSKeyboard.obj
 0001:0000121d       ?GetColorSet@?$IViewObjectExImpl@VCOPOSPOSKeyboard@@@ATL@@UAGJKJPAXPAUtagDVTARGETDEVICE@@PAUHDC__@@PAPAUtagLOGPALETTE@@@Z 1000221d f i POSKeyboard.obj
 0001:00001225       ?Freeze@?$IViewObjectExImpl@VCOPOSPOSKeyboard@@@ATL@@UAGJKJPAXPAK@Z 10002225 f i POSKeyboard.obj
 0001:0000122d       ?SetAdvise@?$IViewObjectExImpl@VCOPOSPOSKeyboard@@@ATL@@UAGJKKPAUIAdviseSink@@@Z 1000222d f i POSKeyboard.obj
 0001:0000124c       ?GetAdvise@?$IViewObjectExImpl@VCOPOSPOSKeyboard@@@ATL@@UAGJPAK0PAPAUIAdviseSink@@@Z 1000224c f i POSKeyboard.obj
 0001:00001281       ?GetExtent@?$IViewObjectExImpl@VCOPOSPOSKeyboard@@@ATL@@UAGJKJPAUtagDVTARGETDEVICE@@PAUtagSIZE@@@Z 10002281 f i POSKeyboard.obj
 0001:000012b2       ?GetViewStatus@?$IViewObjectExImpl@VCOPOSPOSKeyboard@@@ATL@@UAGJPAK@Z 100022b2 f i POSKeyboard.obj
 0001:000012cf       ?QueryHitPoint@?$IViewObjectExImpl@VCOPOSPOSKeyboard@@@ATL@@UAGJKPBUtagRECT@@UtagPOINT@@JPAK@Z 100022cf f i POSKeyboard.obj
 0001:00001310       ?QueryHitRect@?$IViewObjectExImpl@VCOPOSPOSKeyboard@@@ATL@@UAGJKPBUtagRECT@@0JPAK@Z 10002310 f i POSKeyboard.obj
 0001:0000136b       ?GetNaturalExtent@?$IViewObjectExImpl@VCOPOSPOSKeyboard@@@ATL@@UAGJKJPAUtagDVTARGETDEVICE@@PAUHDC__@@PAUtagExtentInfo@@PAUtagSIZE@@@Z 1000236b f i POSKeyboard.obj
 0001:000013b6       ?GetWindow@?$IOleInPlaceObjectWindowlessImpl@VCOPOSPOSKeyboard@@@ATL@@UAGJPAPAUHWND__@@@Z 100023b6 f i POSKeyboard.obj
 0001:00001403       ?InPlaceDeactivate@?$IOleInPlaceObjectWindowlessImpl@VCOPOSPOSKeyboard@@@ATL@@UAGJXZ 10002403 f i POSKeyboard.obj
 0001:0000141d       ?UIDeactivate@?$IOleInPlaceObjectWindowlessImpl@VCOPOSPOSKeyboard@@@ATL@@UAGJXZ 1000241d f i POSKeyboard.obj
 0001:00001437       ?SetObjectRects@?$IOleInPlaceObjectWindowlessImpl@VCOPOSPOSKeyboard@@@ATL@@UAGJPBUtagRECT@@0@Z 10002437 f i POSKeyboard.obj
 0001:00001457       ?ReactivateAndUndo@?$IOleInPlaceObjectWindowlessImpl@VCOPOSPOSKeyboard@@@ATL@@UAGJXZ 10002457 f i POSKeyboard.obj
 0001:0000145f       ?OnWindowMessage@?$IOleInPlaceObjectWindowlessImpl@VCOPOSPOSKeyboard@@@ATL@@UAGJIIJPAJ@Z 1000245f f i POSKeyboard.obj
 0001:000014cf       ?EnumConnectionPoints@?$IConnectionPointContainerImpl@VCOPOSPOSKeyboard@@@ATL@@UAGJPAPAUIEnumConnectionPoints@@@Z 100024cf f i POSKeyboard.obj
 0001:0000165b       ?FindConnectionPoint@?$IConnectionPointContainerImpl@VCOPOSPOSKeyboard@@@ATL@@UAGJABU_GUID@@PAPAUIConnectionPoint@@@Z 1000265b f i POSKeyboard.obj
 0001:000016fe       ?IsDirty@?$IPersistStorageImpl@VCOPOSPOSKeyboard@@@ATL@@UAGJXZ 100026fe f i POSKeyboard.obj
 0001:0000172e       ?InitNew@?$IPersistStorageImpl@VCOPOSPOSKeyboard@@@ATL@@UAGJPAUIStorage@@@Z 1000272e f i POSKeyboard.obj
 0001:0000175e       ?Load@?$IPersistStorageImpl@VCOPOSPOSKeyboard@@@ATL@@UAGJPAUIStorage@@@Z 1000275e f i POSKeyboard.obj
 0001:000017ca       ?Save@?$IPersistStorageImpl@VCOPOSPOSKeyboard@@@ATL@@UAGJPAUIStorage@@H@Z 100027ca f i POSKeyboard.obj
 0001:0000183d       ?GetPages@?$ISpecifyPropertyPagesImpl@VCOPOSPOSKeyboard@@@ATL@@UAGJPAUtagCAUUID@@@Z 1000283d f i POSKeyboard.obj
 0001:00001854       ?QuickActivate@?$IQuickActivateImpl@VCOPOSPOSKeyboard@@@ATL@@UAGJPAUtagQACONTAINER@@PAUtagQACONTROL@@@Z 10002854 f i POSKeyboard.obj
 0001:00001877       ?SetContentExtent@?$IQuickActivateImpl@VCOPOSPOSKeyboard@@@ATL@@UAGJPAUtagSIZE@@@Z 10002877 f i POSKeyboard.obj
 0001:000018a3       ?GetContentExtent@?$IQuickActivateImpl@VCOPOSPOSKeyboard@@@ATL@@UAGJPAUtagSIZE@@@Z 100028a3 f i POSKeyboard.obj
 0001:000018df       ?GetData@?$IDataObjectImpl@VCOPOSPOSKeyboard@@@ATL@@UAGJPAUtagFORMATETC@@PAUtagSTGMEDIUM@@@Z 100028df f i POSKeyboard.obj
 0001:00001902       ?DAdvise@?$IDataObjectImpl@VCOPOSPOSKeyboard@@@ATL@@UAGJPAUtagFORMATETC@@KPAUIAdviseSink@@PAK@Z 10002902 f i POSKeyboard.obj
 0001:00001943       ?DUnadvise@?$IDataObjectImpl@VCOPOSPOSKeyboard@@@ATL@@UAGJK@Z 10002943 f i POSKeyboard.obj
 0001:00001971       ?EnumDAdvise@?$IDataObjectImpl@VCOPOSPOSKeyboard@@@ATL@@UAGJPAPAUIEnumSTATDATA@@@Z 10002971 f i POSKeyboard.obj
 0001:000019b0       ?GetClassInfoW@?$IProvideClassInfo2Impl@$1?CLSID_OPOSPOSKeyboard@@3U_GUID@@B$1?DIID__IOPOSPOSKeyboardEvents@@3U2@B$1?LIBID_OposPOSKeyboard_CCO@@3U2@B$00$0A@VCComTypeInfoHolder@ATL@@@ATL@@UAGJPAPAUITypeInfo@@@Z 100029b0 f i POSKeyboard.obj
 0001:000019c6       ?GetGUID@?$IProvideClassInfo2Impl@$1?CLSID_OPOSPOSKeyboard@@3U_GUID@@B$1?DIID__IOPOSPOSKeyboardEvents@@3U2@B$1?LIBID_OposPOSKeyboard_CCO@@3U2@B$00$0A@VCComTypeInfoHolder@ATL@@@ATL@@UAGJKPAU_GUID@@@Z 100029c6 f i POSKeyboard.obj
 0001:00001a04       __get_startup_argv_mode    10002a04 f i LIBCMT:argv_mode.obj
 0001:00001a04       ?FAccessAllowed@?$IObjectSafetyImpl@VCOPOSPOSKeyboard@@$02@ATL@@MAEHXZ 10002a04 f i POSKeyboard.obj
 0001:00001a08       ?GetInterfaceSafetyOptions@?$IObjectSafetyImpl@VCOPOSPOSKeyboard@@$02@ATL@@UAGJABU_GUID@@PAK1@Z 10002a08 f i POSKeyboard.obj
 0001:00001a7c       ?SetInterfaceSafetyOptions@?$IObjectSafetyImpl@VCOPOSPOSKeyboard@@$02@ATL@@UAGJABU_GUID@@KK@Z 10002a7c f i POSKeyboard.obj
 0001:00001af6       ?_LocCPQueryInterface@?$IConnectionPointImpl@VCOPOSPOSKeyboard@@$1?IID_IPropertyNotifySink@@3U_GUID@@BVCComDynamicUnkArray@ATL@@@ATL@@UAGJABU_GUID@@PAPAX@Z 10002af6 f i POSKeyboard.obj
 0001:00001af6       ?_LocCPQueryInterface@?$IConnectionPointImpl@VCOPOSPOSKeyboard@@$1?DIID__IOPOSPOSKeyboardEvents@@3U_GUID@@BVCComDynamicUnkArray@ATL@@@ATL@@UAGJABU_GUID@@PAPAX@Z 10002af6 f i POSKeyboard.obj
 0001:00001b43       ?GetConnectionInterface@?$IConnectionPointImpl@VCOPOSPOSKeyboard@@$1?IID_IPropertyNotifySink@@3U_GUID@@BVCComDynamicUnkArray@ATL@@@ATL@@UAGJPAU_GUID@@@Z 10002b43 f i POSKeyboard.obj
 0001:00001b67       ?GetConnectionPointContainer@?$IConnectionPointImpl@VCOPOSPOSKeyboard@@$1?IID_IPropertyNotifySink@@3U_GUID@@BVCComDynamicUnkArray@ATL@@@ATL@@UAGJPAPAUIConnectionPointContainer@@@Z 10002b67 f i POSKeyboard.obj
 0001:00001b8a       ?Advise@?$IConnectionPointImpl@VCOPOSPOSKeyboard@@$1?DIID__IOPOSPOSKeyboardEvents@@3U_GUID@@BVCComDynamicUnkArray@ATL@@@ATL@@UAGJPAUIUnknown@@PAK@Z 10002b8a f i POSKeyboard.obj
 0001:00001b8a       ?Advise@?$IConnectionPointImpl@VCOPOSPOSKeyboard@@$1?IID_IPropertyNotifySink@@3U_GUID@@BVCComDynamicUnkArray@ATL@@@ATL@@UAGJPAUIUnknown@@PAK@Z 10002b8a f i POSKeyboard.obj
 0001:00001c2a       ?Unadvise@?$IConnectionPointImpl@VCOPOSPOSKeyboard@@$1?IID_IPropertyNotifySink@@3U_GUID@@BVCComDynamicUnkArray@ATL@@@ATL@@UAGJK@Z 10002c2a f i POSKeyboard.obj
 0001:00001c2a       ?Unadvise@?$IConnectionPointImpl@VCOPOSPOSKeyboard@@$1?DIID__IOPOSPOSKeyboardEvents@@3U_GUID@@BVCComDynamicUnkArray@ATL@@@ATL@@UAGJK@Z 10002c2a f i POSKeyboard.obj
 0001:00001c6a       ?EnumConnections@?$IConnectionPointImpl@VCOPOSPOSKeyboard@@$1?IID_IPropertyNotifySink@@3U_GUID@@BVCComDynamicUnkArray@ATL@@@ATL@@UAGJPAPAUIEnumConnections@@@Z 10002c6a f i POSKeyboard.obj
 0001:00001c6a       ?EnumConnections@?$IConnectionPointImpl@VCOPOSPOSKeyboard@@$1?DIID__IOPOSPOSKeyboardEvents@@3U_GUID@@BVCComDynamicUnkArray@ATL@@@ATL@@UAGJPAPAUIEnumConnections@@@Z 10002c6a f i POSKeyboard.obj
 0001:00001d65       ?GetObjectDescription@?$CComCoClass@VCOPOSPOSKeyboard@@$1?CLSID_OPOSPOSKeyboard@@3U_GUID@@B@ATL@@SGPB_WXZ 10002d65 f i POSKeyboard.obj
 0001:00001d65       ?GetCategoryMap@CComObjectRootBase@ATL@@SAPBU_ATL_CATMAP_ENTRY@2@XZ 10002d65 f i POSKeyboard.obj
 0001:00001d68       ?GetConnectionInterface@?$IConnectionPointImpl@VCOPOSPOSKeyboard@@$1?DIID__IOPOSPOSKeyboardEvents@@3U_GUID@@BVCComDynamicUnkArray@ATL@@@ATL@@UAGJPAU_GUID@@@Z 10002d68 f i POSKeyboard.obj
 0001:00001d8c       ?GetConnectionPointContainer@?$IConnectionPointImpl@VCOPOSPOSKeyboard@@$1?DIID__IOPOSPOSKeyboardEvents@@3U_GUID@@BVCComDynamicUnkArray@ATL@@@ATL@@UAGJPAPAUIConnectionPointContainer@@@Z 10002d8c f i POSKeyboard.obj
 0001:00001daf       ?UpdateRegistry@COPOSPOSKeyboard@@SGJH@Z 10002daf f i POSKeyboard.obj
 0001:00001dc7       ?ProcessWindowMessage@COPOSPOSKeyboard@@UAEHPAUHWND__@@IIJAAJK@Z 10002dc7 f i POSKeyboard.obj
 0001:00001e10       ?SOData@COPOSPOSKeyboard@@MAGJJ@Z 10002e10 f i POSKeyboard.obj
 0001:00001e49       ?SODirectIO@COPOSPOSKeyboard@@MAGJJPAJPAPA_W@Z 10002e49 f i POSKeyboard.obj
 0001:00001e92       ?SOError@COPOSPOSKeyboard@@MAGJJJJPAJ@Z 10002e92 f i POSKeyboard.obj
 0001:00001ee7       ?SOStatusUpdate@COPOSPOSKeyboard@@MAGJJ@Z 10002ee7 f i POSKeyboard.obj
 0001:00001f20       ?Lock@CAtlModule@ATL@@UAEJXZ 10002f20 f i POSKeyboard.obj
 0001:00001f2a       ?Unlock@CAtlModule@ATL@@UAEJXZ 10002f2a f i POSKeyboard.obj
 0001:00001f34       ?GetLockCount@CAtlModule@ATL@@UAEJXZ 10002f34 f i POSKeyboard.obj
 0001:00001f38       ?GetGITPtr@CAtlModule@ATL@@UAEJPAPAUIGlobalInterfaceTable@@@Z 10002f38 f i POSKeyboard.obj
 0001:00001f84       ?AddCommonRGSReplacements@?$CAtlModuleT@VCComModule@ATL@@@ATL@@UAEJPAUIRegistrarBase@@@Z 10002f84 f i POSKeyboard.obj
 0001:00001f9e       ?UpdateRegistryFromResourceD@CComModule@ATL@@UAGJIHPAU_ATL_REGMAP_ENTRY@2@@Z 10002f9e f i POSKeyboard.obj
 0001:00001f9e       ?UpdateRegistryFromResourceD@CComModule@ATL@@UAGJPB_WHPAU_ATL_REGMAP_ENTRY@2@@Z 10002f9e f i POSKeyboard.obj
 0001:00001fa6       ?UpdateRegistryFromResource@CComModule@ATL@@UAGJPB_WHPAU_ATL_REGMAP_ENTRY@2@@Z 10002fa6 f i POSKeyboard.obj
 0001:00001faf       ?UpdateRegistryFromResource@CComModule@ATL@@UAGJIHPAU_ATL_REGMAP_ENTRY@2@@Z 10002faf f i POSKeyboard.obj
 0001:00001fb8       ??_ECComModule@ATL@@UAEPAXI@Z 10002fb8 f i POSKeyboard.obj
 0001:00001fb8       ??_GCComModule@ATL@@UAEPAXI@Z 10002fb8 f i POSKeyboard.obj
 0001:00001fe0       ?CreateInstance@?$CComCreator@V?$CComObjectCached@VCComClassFactory@ATL@@@ATL@@@ATL@@SGJPAXABU_GUID@@PAPAX@Z 10002fe0 f i POSKeyboard.obj
 0001:00002080       ?CreateInstance@?$CComCreator2@V?$CComCreator@V?$CComObject@VCOPOSPOSKeyboard@@@ATL@@@ATL@@V?$CComCreator@V?$CComAggObject@VCOPOSPOSKeyboard@@@ATL@@@2@@ATL@@SGJPAXABU_GUID@@PAPAX@Z 10003080 f i POSKeyboard.obj
 0001:000020a0       ?AddRef@?$CComObjectCached@VCComClassFactory@ATL@@@ATL@@UAGKXZ 100030a0 f i POSKeyboard.obj
 0001:000020c7       ?Release@?$CComObjectCached@VCComClassFactory@ATL@@@ATL@@UAGKXZ 100030c7 f i POSKeyboard.obj
 0001:000020fd       ?QueryInterface@?$CComObjectCached@VCComClassFactory@ATL@@@ATL@@UAGJABU_GUID@@PAPAX@Z 100030fd f i POSKeyboard.obj
 0001:00002117       ??_G?$CComObjectCached@VCComClassFactory@ATL@@@ATL@@UAEPAXI@Z 10003117 f i POSKeyboard.obj
 0001:00002117       ??_E?$CComObjectCached@VCComClassFactory@ATL@@@ATL@@UAEPAXI@Z 10003117 f i POSKeyboard.obj
 0001:00002139       ?Next@?$CComEnumImpl@UIEnumConnectionPoints@@$1?_GUID_b196b285_bab4_101a_b69c_00aa00341d07@@3U__s_GUID@@BPAUIConnectionPoint@@V?$_CopyInterface@UIConnectionPoint@@@ATL@@@ATL@@UAGJKPAPAUIConnectionPoint@@PAK@Z 10003139 f i POSKeyboard.obj
 0001:00002210       ?Skip@?$CComEnumImpl@UIEnumConnectionPoints@@$1?_GUID_b196b285_bab4_101a_b69c_00aa00341d07@@3U__s_GUID@@BPAUIConnectionPoint@@V?$_CopyInterface@UIConnectionPoint@@@ATL@@@ATL@@UAGJK@Z 10003210 f i POSKeyboard.obj
 0001:0000223d       ?Reset@?$CComEnumImpl@UIEnumConnectionPoints@@$1?_GUID_b196b285_bab4_101a_b69c_00aa00341d07@@3U__s_GUID@@BPAUIConnectionPoint@@V?$_CopyInterface@UIConnectionPoint@@@ATL@@@ATL@@UAGJXZ 1000323d f i POSKeyboard.obj
 0001:0000223d       ?Reset@?$CComEnumImpl@UIEnumConnections@@$1?_GUID_b196b287_bab4_101a_b69c_00aa00341d07@@3U__s_GUID@@BUtagCONNECTDATA@@V?$_Copy@UtagCONNECTDATA@@@ATL@@@ATL@@UAGJXZ 1000323d f i POSKeyboard.obj
 0001:0000224f       ?Clone@?$CComEnumImpl@UIEnumConnectionPoints@@$1?_GUID_b196b285_bab4_101a_b69c_00aa00341d07@@3U__s_GUID@@BPAUIConnectionPoint@@V?$_CopyInterface@UIConnectionPoint@@@ATL@@@ATL@@UAGJPAPAUIEnumConnectionPoints@@@Z 1000324f f i POSKeyboard.obj
 0001:00002330       ?AddRef@?$CComObject@V?$CComEnum@UIEnumConnections@@$1?_GUID_b196b287_bab4_101a_b69c_00aa00341d07@@3U__s_GUID@@BUtagCONNECTDATA@@V?$_Copy@UtagCONNECTDATA@@@ATL@@VCComSingleThreadModel@6@@ATL@@@ATL@@UAGKXZ 10003330 f i POSKeyboard.obj
 0001:00002330       ?AddRef@?$CComObject@V?$CComEnum@UIEnumConnectionPoints@@$1?_GUID_b196b285_bab4_101a_b69c_00aa00341d07@@3U__s_GUID@@BPAUIConnectionPoint@@V?$_CopyInterface@UIConnectionPoint@@@ATL@@VCComSingleThreadModel@6@@ATL@@@ATL@@UAGKXZ 10003330 f i POSKeyboard.obj
 0001:00002341       ?Release@?$CComObject@V?$CComEnum@UIEnumConnectionPoints@@$1?_GUID_b196b285_bab4_101a_b69c_00aa00341d07@@3U__s_GUID@@BPAUIConnectionPoint@@V?$_CopyInterface@UIConnectionPoint@@@ATL@@VCComSingleThreadModel@6@@ATL@@@ATL@@UAGKXZ 10003341 f i POSKeyboard.obj
 0001:00002341       ?Release@?$CComObject@V?$CComEnum@UIEnumConnections@@$1?_GUID_b196b287_bab4_101a_b69c_00aa00341d07@@3U__s_GUID@@BUtagCONNECTDATA@@V?$_Copy@UtagCONNECTDATA@@@ATL@@VCComSingleThreadModel@6@@ATL@@@ATL@@UAGKXZ 10003341 f i POSKeyboard.obj
 0001:0000237d       ?QueryInterface@?$CComObject@V?$CComEnum@UIEnumConnectionPoints@@$1?_GUID_b196b285_bab4_101a_b69c_00aa00341d07@@3U__s_GUID@@BPAUIConnectionPoint@@V?$_CopyInterface@UIConnectionPoint@@@ATL@@VCComSingleThreadModel@6@@ATL@@@ATL@@UAGJABU_GUID@@PAPAX@Z 1000337d f i POSKeyboard.obj
 0001:00002397       ??_G?$CComObject@V?$CComEnum@UIEnumConnectionPoints@@$1?_GUID_b196b285_bab4_101a_b69c_00aa00341d07@@3U__s_GUID@@BPAUIConnectionPoint@@V?$_CopyInterface@UIConnectionPoint@@@ATL@@VCComSingleThreadModel@6@@ATL@@@ATL@@UAEPAXI@Z 10003397 f i POSKeyboard.obj
 0001:00002397       ??_E?$CComObject@V?$CComEnum@UIEnumConnectionPoints@@$1?_GUID_b196b285_bab4_101a_b69c_00aa00341d07@@3U__s_GUID@@BPAUIConnectionPoint@@V?$_CopyInterface@UIConnectionPoint@@@ATL@@VCComSingleThreadModel@6@@ATL@@@ATL@@UAEPAXI@Z 10003397 f i POSKeyboard.obj
 0001:000023b9       ?AddRef@CRegObject@ATL@@UAGKXZ 100033b9 f i POSKeyboard.obj
 0001:000023bf       ?AddReplacement@CRegObject@ATL@@UAGJPB_W0@Z 100033bf f i POSKeyboard.obj
 0001:000023f8       ?ClearReplacements@CRegObject@ATL@@UAGJXZ 100033f8 f i POSKeyboard.obj
 0001:0000240a       ??_GCRegObject@ATL@@UAEPAXI@Z 1000340a f i POSKeyboard.obj
 0001:0000240a       ??_ECRegObject@ATL@@UAEPAXI@Z 1000340a f i POSKeyboard.obj
 0001:0000242c       ?AddRef@?$CComAggObject@VCOPOSPOSKeyboard@@@ATL@@UAGKXZ 1000342c f i POSKeyboard.obj
 0001:0000243d       ?Release@?$CComAggObject@VCOPOSPOSKeyboard@@@ATL@@UAGKXZ 1000343d f i POSKeyboard.obj
 0001:00002479       ?QueryInterface@?$CComAggObject@VCOPOSPOSKeyboard@@@ATL@@UAGJABU_GUID@@PAPAX@Z 10003479 f i POSKeyboard.obj
 0001:000024c8       ?AddRef@?$CComContainedObject@VCOPOSPOSKeyboard@@@ATL@@UAGKXZ 100034c8 f i POSKeyboard.obj
 0001:000024de       ?Release@?$CComContainedObject@VCOPOSPOSKeyboard@@@ATL@@UAGKXZ 100034de f i POSKeyboard.obj
 0001:000024f4       ?QueryInterface@?$CComContainedObject@VCOPOSPOSKeyboard@@@ATL@@UAGJABU_GUID@@PAPAX@Z 100034f4 f i POSKeyboard.obj
 0001:0000250f       ??_G?$CComAggObject@VCOPOSPOSKeyboard@@@ATL@@UAEPAXI@Z 1000350f f i POSKeyboard.obj
 0001:0000250f       ??_E?$CComAggObject@VCOPOSPOSKeyboard@@@ATL@@UAEPAXI@Z 1000350f f i POSKeyboard.obj
 0001:00002534       ?AddRef@?$CComObject@VCOPOSPOSKeyboard@@@ATL@@UAGKXZ 10003534 f i POSKeyboard.obj
 0001:0000254b       ?Release@?$CComObject@VCOPOSPOSKeyboard@@@ATL@@UAGKXZ 1000354b f i POSKeyboard.obj
 0001:0000258d       ?QueryInterface@?$CComObject@VCOPOSPOSKeyboard@@@ATL@@UAGJABU_GUID@@PAPAX@Z 1000358d f i POSKeyboard.obj
 0001:000025a7       ?OnDrawAdvanced@CComControlBase@ATL@@UAEJAAUATL_DRAWINFO@@@Z 100035a7 f i POSKeyboard.obj
 0001:0000269a       ?Next@?$CComEnumImpl@UIEnumConnections@@$1?_GUID_b196b287_bab4_101a_b69c_00aa00341d07@@3U__s_GUID@@BUtagCONNECTDATA@@V?$_Copy@UtagCONNECTDATA@@@ATL@@@ATL@@UAGJKPAUtagCONNECTDATA@@PAK@Z 1000369a f i POSKeyboard.obj
 0001:00002771       ?Skip@?$CComEnumImpl@UIEnumConnections@@$1?_GUID_b196b287_bab4_101a_b69c_00aa00341d07@@3U__s_GUID@@BUtagCONNECTDATA@@V?$_Copy@UtagCONNECTDATA@@@ATL@@@ATL@@UAGJK@Z 10003771 f i POSKeyboard.obj
 0001:0000279e       ?Clone@?$CComEnumImpl@UIEnumConnections@@$1?_GUID_b196b287_bab4_101a_b69c_00aa00341d07@@3U__s_GUID@@BUtagCONNECTDATA@@V?$_Copy@UtagCONNECTDATA@@@ATL@@@ATL@@UAGJPAPAUIEnumConnections@@@Z 1000379e f i POSKeyboard.obj
 0001:0000287f       ?QueryInterface@?$CComObject@V?$CComEnum@UIEnumConnections@@$1?_GUID_b196b287_bab4_101a_b69c_00aa00341d07@@3U__s_GUID@@BUtagCONNECTDATA@@V?$_Copy@UtagCONNECTDATA@@@ATL@@VCComSingleThreadModel@6@@ATL@@@ATL@@UAGJABU_GUID@@PAPAX@Z 1000387f f i POSKeyboard.obj
 0001:00002899       ??_E?$CComObject@V?$CComEnum@UIEnumConnections@@$1?_GUID_b196b287_bab4_101a_b69c_00aa00341d07@@3U__s_GUID@@BUtagCONNECTDATA@@V?$_Copy@UtagCONNECTDATA@@@ATL@@VCComSingleThreadModel@6@@ATL@@@ATL@@UAEPAXI@Z 10003899 f i POSKeyboard.obj
 0001:00002899       ??_G?$CComObject@V?$CComEnum@UIEnumConnections@@$1?_GUID_b196b287_bab4_101a_b69c_00aa00341d07@@3U__s_GUID@@BUtagCONNECTDATA@@V?$_Copy@UtagCONNECTDATA@@@ATL@@VCComSingleThreadModel@6@@ATL@@@ATL@@UAEPAXI@Z 10003899 f i POSKeyboard.obj
 0001:000028bb       ??_E?$CComObject@VCOPOSPOSKeyboard@@@ATL@@W3AEPAXI@Z 100038bb f i POSKeyboard.obj
 0001:000028c3       ??_E?$CComObject@VCOPOSPOSKeyboard@@@ATL@@WEM@AEPAXI@Z 100038c3 f i POSKeyboard.obj
 0001:000028cb       ?QueryInterface@?$CComObject@VCOPOSPOSKeyboard@@@ATL@@WHA@AGJABU_GUID@@PAPAX@Z 100038cb f i POSKeyboard.obj
 0001:000028d5       ?AddRef@?$CComObject@VCOPOSPOSKeyboard@@@ATL@@WHA@AGKXZ 100038d5 f i POSKeyboard.obj
 0001:000028df       ?Release@?$CComObject@VCOPOSPOSKeyboard@@@ATL@@WHA@AGKXZ 100038df f i POSKeyboard.obj
 0001:000028e9       ?QueryInterface@?$CComObject@VCOPOSPOSKeyboard@@@ATL@@WHE@AGJABU_GUID@@PAPAX@Z 100038e9 f i POSKeyboard.obj
 0001:000028f3       ?AddRef@?$CComObject@VCOPOSPOSKeyboard@@@ATL@@WHE@AGKXZ 100038f3 f i POSKeyboard.obj
 0001:000028fd       ?Release@?$CComObject@VCOPOSPOSKeyboard@@@ATL@@WHE@AGKXZ 100038fd f i POSKeyboard.obj
 0001:00002907       ?QueryInterface@?$CComObject@VCOPOSPOSKeyboard@@@ATL@@WHI@AGJABU_GUID@@PAPAX@Z 10003907 f i POSKeyboard.obj
 0001:00002911       ?AddRef@?$CComObject@VCOPOSPOSKeyboard@@@ATL@@WHI@AGKXZ 10003911 f i POSKeyboard.obj
 0001:0000291b       ?Release@?$CComObject@VCOPOSPOSKeyboard@@@ATL@@WHI@AGKXZ 1000391b f i POSKeyboard.obj
 0001:00002925       ?QueryInterface@?$CComObject@VCOPOSPOSKeyboard@@@ATL@@WHM@AGJABU_GUID@@PAPAX@Z 10003925 f i POSKeyboard.obj
 0001:0000292f       ?AddRef@?$CComObject@VCOPOSPOSKeyboard@@@ATL@@WHM@AGKXZ 1000392f f i POSKeyboard.obj
 0001:00002939       ?Release@?$CComObject@VCOPOSPOSKeyboard@@@ATL@@WHM@AGKXZ 10003939 f i POSKeyboard.obj
 0001:00002943       ?QueryInterface@?$CComObject@VCOPOSPOSKeyboard@@@ATL@@WIA@AGJABU_GUID@@PAPAX@Z 10003943 f i POSKeyboard.obj
 0001:00002950       ?AddRef@?$CComObject@VCOPOSPOSKeyboard@@@ATL@@WIA@AGKXZ 10003950 f i POSKeyboard.obj
 0001:0000295d       ?Release@?$CComObject@VCOPOSPOSKeyboard@@@ATL@@WIA@AGKXZ 1000395d f i POSKeyboard.obj
 0001:0000296a       ?QueryInterface@?$CComObject@VCOPOSPOSKeyboard@@@ATL@@WIE@AGJABU_GUID@@PAPAX@Z 1000396a f i POSKeyboard.obj
 0001:00002977       ?AddRef@?$CComObject@VCOPOSPOSKeyboard@@@ATL@@WIE@AGKXZ 10003977 f i POSKeyboard.obj
 0001:00002984       ??$?4UITypeInfo2@@@?$CComPtr@UITypeInfo@@@ATL@@QAEPAUITypeInfo@@ABV?$CComPtr@UITypeInfo2@@@1@@Z 10003984 f i POSKeyboard.obj
 0001:000029b1       ??$AtlAdd@K@ATL@@YAJPAKKK@Z 100039b1 f i POSKeyboard.obj
 0001:000029d4       ??$AtlAdd@_K@ATL@@YAJPA_K_K1@Z 100039d4 f i POSKeyboard.obj
 0001:00002a0c       ??$AtlAddThrow@K@ATL@@YAKKK@Z 10003a0c f i POSKeyboard.obj
 0001:00002a32       ??$AtlModuleRegisterWndClassInfoT@VAtlModuleRegisterWndClassInfoParamW@ATL@@@ATL@@YAGPAU_ATL_BASE_MODULE70@0@PAU_ATL_WIN_MODULE70@0@PAU_ATL_WNDCLASSINFOW@0@PAP6GJPAUHWND__@@IIJ@ZVAtlModuleRegisterWndClassInfoParamW@0@@Z 10003a32 f i POSKeyboard.obj
 0001:00002b80       ??$AtlMultiply@H@ATL@@YAJPAHHH@Z 10003b80 f i POSKeyboard.obj
 0001:00002bb8       ??$AtlMultiply@K@ATL@@YAJPAKKK@Z 10003bb8 f i POSKeyboard.obj
 0001:00002bb8       ??$AtlMultiply@I@ATL@@YAJPAIII@Z 10003bb8 f i POSKeyboard.obj
 0001:00002bda       ??$AtlMultiplyThrow@I@ATL@@YAIII@Z 10003bda f i POSKeyboard.obj
 0001:00002c00       ??0?$CComAggObject@VCOPOSPOSKeyboard@@@ATL@@QAE@PAX@Z 10003c00 f i POSKeyboard.obj
 0001:00002c2d       ??0?$CComContainedObject@VCOPOSPOSKeyboard@@@ATL@@QAE@PAX@Z 10003c2d f i POSKeyboard.obj
 0001:00002ce6       ??0?$CComObject@V?$CComEnum@UIEnumConnectionPoints@@$1?_GUID_b196b285_bab4_101a_b69c_00aa00341d07@@3U__s_GUID@@BPAUIConnectionPoint@@V?$_CopyInterface@UIConnectionPoint@@@ATL@@VCComSingleThreadModel@6@@ATL@@@ATL@@QAE@PAX@Z 10003ce6 f i POSKeyboard.obj
 0001:00002d14       ??0?$CComObject@V?$CComEnum@UIEnumConnections@@$1?_GUID_b196b287_bab4_101a_b69c_00aa00341d07@@3U__s_GUID@@BUtagCONNECTDATA@@V?$_Copy@UtagCONNECTDATA@@@ATL@@VCComSingleThreadModel@6@@ATL@@@ATL@@QAE@PAX@Z 10003d14 f i POSKeyboard.obj
 0001:00002d42       ??0?$CComObject@VCOPOSPOSKeyboard@@@ATL@@QAE@PAX@Z 10003d42 f i POSKeyboard.obj
 0001:00002df9       ??0?$CComQIPtr@UIOleControlSite@@$1?_GUID_b196b289_bab4_101a_b69c_00aa00341d07@@3U__s_GUID@@B@ATL@@QAE@PAUIUnknown@@@Z 10003df9 f i POSKeyboard.obj
 0001:00002e22       ??0CAtlModule@ATL@@QAE@XZ  10003e22 f i POSKeyboard.obj
 0001:00002e63       ??0CParseBuffer@CRegParser@ATL@@QAE@H@Z 10003e63 f i POSKeyboard.obj
 0001:00002e99       ??0_ATL_MSG@ATL@@QAE@PAUHWND__@@IIJH@Z 10003e99 f i POSKeyboard.obj
 0001:00002ed1       ??1?$CComAggObject@VCOPOSPOSKeyboard@@@ATL@@UAE@XZ 10003ed1 f i POSKeyboard.obj
 0001:00002ef5       ??1?$CComEnumImpl@UIEnumConnectionPoints@@$1?_GUID_b196b285_bab4_101a_b69c_00aa00341d07@@3U__s_GUID@@BPAUIConnectionPoint@@V?$_CopyInterface@UIConnectionPoint@@@ATL@@@ATL@@UAE@XZ 10003ef5 f i POSKeyboard.obj
 0001:00002f35       ??1?$CComEnumImpl@UIEnumConnections@@$1?_GUID_b196b287_bab4_101a_b69c_00aa00341d07@@3U__s_GUID@@BUtagCONNECTDATA@@V?$_Copy@UtagCONNECTDATA@@@ATL@@@ATL@@UAE@XZ 10003f35 f i POSKeyboard.obj
 0001:00002f75       ??1?$CComObject@V?$CComEnum@UIEnumConnectionPoints@@$1?_GUID_b196b285_bab4_101a_b69c_00aa00341d07@@3U__s_GUID@@BPAUIConnectionPoint@@V?$_CopyInterface@UIConnectionPoint@@@ATL@@VCComSingleThreadModel@6@@ATL@@@ATL@@UAE@XZ 10003f75 f i POSKeyboard.obj
 0001:00002f98       ??1?$CComObject@V?$CComEnum@UIEnumConnections@@$1?_GUID_b196b287_bab4_101a_b69c_00aa00341d07@@3U__s_GUID@@BUtagCONNECTDATA@@V?$_Copy@UtagCONNECTDATA@@@ATL@@VCComSingleThreadModel@6@@ATL@@@ATL@@UAE@XZ 10003f98 f i POSKeyboard.obj
 0001:00002fbb       ??1?$CComObject@VCOPOSPOSKeyboard@@@ATL@@UAE@XZ 10003fbb f i POSKeyboard.obj
 0001:00003079       ??1?$CComObjectCached@VCComClassFactory@ATL@@@ATL@@UAE@XZ 10004079 f i POSKeyboard.obj
 0001:0000308f       ??1?$CComObjectRootEx@VCComMultiThreadModel@ATL@@@ATL@@QAE@XZ 1000408f f i POSKeyboard.obj
 0001:000030a4       ??1CRegObject@ATL@@UAE@XZ  100040a4 f i POSKeyboard.obj
 0001:000030c4       ??4?$CComPtr@UIUnknown@@@ATL@@QAEPAUIUnknown@@PAU2@@Z 100040c4 f i POSKeyboard.obj
 0001:000030c4       ??4?$CComPtr@UIAdviseSink@@@ATL@@QAEPAUIAdviseSink@@PAU2@@Z 100040c4 f i POSKeyboard.obj
 0001:000030c4       ??4?$CComPtr@UIOleClientSite@@@ATL@@QAEPAUIOleClientSite@@PAU2@@Z 100040c4 f i POSKeyboard.obj
 0001:000030f8       ??_G?$CComContainedObject@VCOPOSPOSKeyboard@@@ATL@@UAEPAXI@Z 100040f8 f i POSKeyboard.obj
 0001:000030f8       ??_E?$CComContainedObject@VCOPOSPOSKeyboard@@@ATL@@UAEPAXI@Z 100040f8 f i POSKeyboard.obj
 0001:0000311d       ??_G?$CComObject@VCOPOSPOSKeyboard@@@ATL@@UAEPAXI@Z 1000411d f i POSKeyboard.obj
 0001:0000311d       ??_E?$CComObject@VCOPOSPOSKeyboard@@@ATL@@UAEPAXI@Z 1000411d f i POSKeyboard.obj
 0001:00003142       ?Add@?$CSimpleArray@GV?$CSimpleArrayEqualHelper@G@ATL@@@ATL@@QAEHABG@Z 10004142 f i POSKeyboard.obj
 0001:000031c6       ?Add@?$CSimpleMap@PA_WPA_WVCExpansionVectorEqualHelper@ATL@@@ATL@@QAEHABQA_W0@Z 100041c6 f i POSKeyboard.obj
 0001:0000321b       ?Add@CComDynamicUnkArray@ATL@@QAEKPAUIUnknown@@@Z 1000421b f i POSKeyboard.obj
 0001:000032d1       ?Add@CExpansionVector@ATL@@QAEHPB_W0@Z 100042d1 f i POSKeyboard.obj
 0001:000033da       ?AddString@CParseBuffer@CRegParser@ATL@@QAEHPB_W@Z 100043da f i POSKeyboard.obj
 0001:0000340f       ?AddTermFunc@CAtlModule@ATL@@QAEJP6GXK@ZK@Z 1000440f f i POSKeyboard.obj
 0001:00003472       ?AddValue@CRegParser@ATL@@IAEJAAVCRegKey@2@PB_WPA_W@Z 10004472 f i POSKeyboard.obj
 0001:0000378c       ?Allocate@?$CAtlSafeAllocBufferManager@VCCRTAllocator@ATL@@@_ATL_SAFE_ALLOCA_IMPL@ATL@@QAEPAXK@Z 1000478c f i POSKeyboard.obj
 0001:000037b9       ?Allocate@?$CTempBuffer@E$0BAA@VCCRTAllocator@ATL@@@ATL@@QAEPAEI@Z 100047b9 f i POSKeyboard.obj
 0001:000037e8       ?Allocate@?$CTempBuffer@_W$0BAA@VCCRTAllocator@ATL@@@ATL@@QAEPA_WI@Z 100047e8 f i POSKeyboard.obj
 0001:00003817       ?Allocate@?$CTempBuffer@_W$0EAA@VCCRTAllocator@ATL@@@ATL@@QAEPA_WI@Z 10004817 f i POSKeyboard.obj
 0001:00003846       ?AllocateHeap@?$CTempBuffer@_W$0BAA@VCCRTAllocator@ATL@@@ATL@@AAEXI@Z 10004846 f i POSKeyboard.obj
 0001:00003846       ?AllocateHeap@?$CTempBuffer@E$0BAA@VCCRTAllocator@ATL@@@ATL@@AAEXI@Z 10004846 f i POSKeyboard.obj
 0001:00003846       ?AllocateHeap@?$CTempBuffer@_W$0EAA@VCCRTAllocator@ATL@@@ATL@@AAEXI@Z 10004846 f i POSKeyboard.obj
 0001:0000386b       ?Append@CParseBuffer@CRegParser@ATL@@QAEHPB_WH@Z 1000486b f i POSKeyboard.obj
 0001:000038f9       ?AtlCoTaskMemCAlloc@ATL@@YAPAXKK@Z 100048f9 f i POSKeyboard.obj
 0001:00003926       ?AtlCoTaskMemRecalloc@ATL@@YAPAXPAXKK@Z 10004926 f i POSKeyboard.obj
 0001:00003956       ?AtlComModuleGetClassObject@ATL@@YGJPAU_ATL_COM_MODULE70@1@ABU_GUID@@1PAPAX@Z 10004956 f i POSKeyboard.obj
 0001:00003a49       ?AtlComModuleRegisterServer@ATL@@YGJPAU_ATL_COM_MODULE70@1@HPBU_GUID@@@Z 10004a49 f i POSKeyboard.obj
 0001:00003ad1       ?AtlComModuleUnregisterServer@ATL@@YGJPAU_ATL_COM_MODULE70@1@HPBU_GUID@@@Z 10004ad1 f i POSKeyboard.obj
 0001:00003b59       ?AtlComQIPtrAssign2@ATL@@YAXPAPAUIUnknown@@PAU2@ABU_GUID@@@Z 10004b59 f i POSKeyboard.obj
 0001:00003b88       ?AtlCreateTargetDC@ATL@@YGPAUHDC__@@PAU2@PAUtagDVTARGETDEVICE@@@Z 10004b88 f i POSKeyboard.obj
 0001:00003bf1       ?AtlCrtErrorCheck@ATL@@YAHH@Z 10004bf1 f i POSKeyboard.obj
 0001:00003c2c       ?AtlHiMetricToPixel@ATL@@YGXPBUtagSIZE@@PAU2@@Z 10004c2c f i POSKeyboard.obj
 0001:00003ca1       ?AtlHresultFromLastError@ATL@@YAJXZ 10004ca1 f i POSKeyboard.obj
 0001:00003cb8       ?AtlHresultFromWin32@ATL@@YAJK@Z 10004cb8 f i POSKeyboard.obj
 0001:00003ccd       ?AtlInternalOleLoadFromStream@ATL@@YAJPAUIStream@@ABU_GUID@@PAPAXTClassesAllowedInStream@1@K@Z 10004ccd f i POSKeyboard.obj
 0001:00003deb       ?AtlInternalQueryInterface@ATL@@YGJPAXPBU_ATL_INTMAP_ENTRY@1@ABU_GUID@@PAPAX@Z 10004deb f i POSKeyboard.obj
 0001:00003e8e       ?AtlLoadTypeLib@ATL@@YGJPAUHINSTANCE__@@PB_WPAPA_WPAPAUITypeLib@@@Z 10004e8e f i POSKeyboard.obj
 0001:0000406c       ?AtlRegisterClassCategoriesHelper@ATL@@YGJABU_GUID@@PBU_ATL_CATMAP_ENTRY@1@H@Z 1000506c f i POSKeyboard.obj
 0001:00004368       ?AtlRegisterTypeLib@ATL@@YGJPAUHINSTANCE__@@PB_W@Z 10005368 f i POSKeyboard.obj
 0001:000044f0       ?AtlThrowImpl@ATL@@YGXJ@Z  100054f0 f i POSKeyboard.obj
 0001:0000450e       ?AtlUnRegisterTypeLib@ATL@@YGJPAUHINSTANCE__@@PB_W@Z 1000550e f i POSKeyboard.obj
 0001:000045b9       ?AtlWinModuleAddCreateWndData@ATL@@YGXPAU_ATL_WIN_MODULE70@1@PAU_AtlCreateWndData@1@PAX@Z 100055b9 f i POSKeyboard.obj
 0001:0000460d       ?AtlWinModuleExtractCreateWndData@ATL@@YGPAXPAU_ATL_WIN_MODULE70@1@@Z 1000560d f i POSKeyboard.obj
 0001:00004670       ?AtlWinModuleRegisterClassExW@ATL@@YGGPAU_ATL_WIN_MODULE70@1@PBUtagWNDCLASSEXW@@@Z 10005670 f i POSKeyboard.obj
 0001:000046af       ?CanForceRemoveKey@CRegParser@ATL@@IAEHPB_W@Z 100056af f i POSKeyboard.obj
 0001:000046de       ?ChToByte@CRegParser@ATL@@KAE_W@Z 100056de f i POSKeyboard.obj
 0001:00004711       ?Cleanup@CComTypeInfoHolder@ATL@@SGXK@Z 10005711 f i POSKeyboard.obj
 0001:00004744       ?ClearReplacements@CExpansionVector@ATL@@QAEJXZ 10005744 f i POSKeyboard.obj
 0001:00004781       ?Close@CRegKey@ATL@@QAEJXZ 10005781 f i POSKeyboard.obj
 0001:0000479b       ?CreateInstance@?$CComCreator@V?$CComAggObject@VCOPOSPOSKeyboard@@@ATL@@@ATL@@SGJPAXABU_GUID@@PAPAX@Z 1000579b f i POSKeyboard.obj
 0001:00004810       ?CreateInstance@?$CComCreator@V?$CComObject@VCOPOSPOSKeyboard@@@ATL@@@ATL@@SGJPAXABU_GUID@@PAPAX@Z 10005810 f i POSKeyboard.obj
 0001:00004890       ?CreateInstance@?$CComObject@V?$CComEnum@UIEnumConnectionPoints@@$1?_GUID_b196b285_bab4_101a_b69c_00aa00341d07@@3U__s_GUID@@BPAUIConnectionPoint@@V?$_CopyInterface@UIConnectionPoint@@@ATL@@VCComSingleThreadModel@6@@ATL@@@ATL@@SGJPAPAV12@@Z 10005890 f i POSKeyboard.obj
 0001:000048da       ?CreateInstance@?$CComObject@V?$CComEnum@UIEnumConnections@@$1?_GUID_b196b287_bab4_101a_b69c_00aa00341d07@@3U__s_GUID@@BUtagCONNECTDATA@@V?$_Copy@UtagCONNECTDATA@@@ATL@@VCComSingleThreadModel@6@@ATL@@@ATL@@SGJPAPAV12@@Z 100058da f i POSKeyboard.obj
 0001:00004924       ?DefaultReflectionHandler@?$CWindowImplRoot@VCWindow@ATL@@@ATL@@SAHPAUHWND__@@IIJAAJ@Z 10005924 f i POSKeyboard.obj
 0001:00004997       ?DeleteSubKey@CRegKey@ATL@@QAEJPB_W@Z 10005997 f i POSKeyboard.obj
 0001:00004a10       ?DoEvent@COPOSPOSKeyboard@@IAEXIIJ@Z 10005a10 f i POSKeyboard.obj
 0001:00004a90       ?DoVerbHide@?$IOleObjectImpl@VCOPOSPOSKeyboard@@@ATL@@QAEJPBUtagRECT@@PAUHWND__@@@Z 10005a90 f i POSKeyboard.obj
 0001:00004ac6       ?DoVerbInPlaceActivate@?$IOleObjectImpl@VCOPOSPOSKeyboard@@@ATL@@QAEJPBUtagRECT@@PAUHWND__@@@Z 10005ac6 f i POSKeyboard.obj
 0001:00004af9       ?DoVerbPrimary@?$IOleObjectImpl@VCOPOSPOSKeyboard@@@ATL@@QAEJPBUtagRECT@@PAUHWND__@@@Z 10005af9 f i POSKeyboard.obj
 0001:00004b85       ?DoVerbProperties@CComControlBase@ATL@@QAEJPBUtagRECT@@PAUHWND__@@@Z 10005b85 f i POSKeyboard.obj
 0001:00004d04       ?DoVerbUIActivate@?$IOleObjectImpl@VCOPOSPOSKeyboard@@@ATL@@QAEJPBUtagRECT@@PAUHWND__@@@Z 10005d04 f i POSKeyboard.obj
 0001:00004d41       ?DoesVerbActivate@CComControlBase@ATL@@QAEHJ@Z 10005d41 f i POSKeyboard.obj
 0001:00004d62       ?DoesVerbUIActivate@CComControlBase@ATL@@QAEHJ@Z 10005d62 f i POSKeyboard.obj
 0001:00004d97       ?EndOfVar@CRegParser@ATL@@IAEHXZ 10005d97 f i POSKeyboard.obj
 0001:00004db7       ?EscapeSingleQuote@CAtlModule@ATL@@SAXPA_WIPB_W@Z 10005db7 f i POSKeyboard.obj
 0001:00004e06       ?FindKey@?$CSimpleMap@PA_WPA_WVCExpansionVectorEqualHelper@ATL@@@ATL@@QBEHABQA_W@Z 10005e06 f i POSKeyboard.obj
 0001:00004e3d       ?FireTheEvent@?$CProxy_IOPOSEvents@VCOPOSPOSKeyboard@@@@IAEXPAVOposVariant@@IAAJPB_WJ@Z 10005e3d f i POSKeyboard.obj
 0001:00004ecf       ?FireViewChange@CComControlBase@ATL@@QAEJXZ 10005ecf f i POSKeyboard.obj
 0001:00004f18       ?Fire_DataEvent@?$CProxy_IOPOSEvents@VCOPOSPOSKeyboard@@@@QAEXJ@Z 10005f18 f i POSKeyboard.obj
 0001:00004fae       ?Fire_DirectIOEvent@?$CProxy_IOPOSEvents@VCOPOSPOSKeyboard@@@@QAEXJPAJPAPA_W@Z 10005fae f i POSKeyboard.obj
 0001:0000509a       ?Fire_ErrorEvent@?$CProxy_IOPOSEvents@VCOPOSPOSKeyboard@@@@QAEXJJJPAJ@Z 1000609a f i POSKeyboard.obj
 0001:0000518b       ?Fire_StatusUpdateEvent@?$CProxy_IOPOSEvents@VCOPOSPOSKeyboard@@@@QAEXJ@Z 1000618b f i POSKeyboard.obj
 0001:00005221       ?FreeHeap@?$CTempBuffer@_W$0EAA@VCCRTAllocator@ATL@@@ATL@@AAEXXZ 10006221 f i POSKeyboard.obj
 0001:00005221       ?FreeHeap@?$CTempBuffer@_W$0BAA@VCCRTAllocator@ATL@@@ATL@@AAEXXZ 10006221 f i POSKeyboard.obj
 0001:00005221       ?FreeHeap@?$CTempBuffer@E$0BAA@VCCRTAllocator@ATL@@@ATL@@AAEXXZ 10006221 f i POSKeyboard.obj
 0001:0000522a       ?GetAmbientLocaleID@CComControlBase@ATL@@QAEJAAK@Z 1000622a f i POSKeyboard.obj
 0001:00005286       ?GetAmbientUserMode@CComControlBase@ATL@@QAEJAAH@Z 10006286 f i POSKeyboard.obj
 0001:000052f6       ?GetAt@CComDynamicUnkArray@ATL@@QAEPAUIUnknown@@H@Z 100062f6 f i POSKeyboard.obj
 0001:00005312       ?GetClassObject@CComModule@ATL@@QAEJABU_GUID@@0PAPAX@Z 10006312 f i POSKeyboard.obj
 0001:000053b4       ?GetConnMap@COPOSPOSKeyboard@@SAPBU_ATL_CONNMAP_ENTRY@ATL@@PAH@Z 100063b4 f i POSKeyboard.obj
 0001:00005424       ?GetCookie@CComDynamicUnkArray@ATL@@QAGKPAPAUIUnknown@@@Z 10006424 f i POSKeyboard.obj
 0001:0000545c       ?GetIDsOfNames@CComTypeInfoHolder@ATL@@QAEJABU_GUID@@PAPA_WIKPAJ@Z 1000645c f i POSKeyboard.obj
 0001:00005583       ?GetKeyAt@?$CSimpleMap@PA_WPA_WVCExpansionVectorEqualHelper@ATL@@@ATL@@QBEAAPA_WH@Z 10006583 f i POSKeyboard.obj
 0001:000055a8       ?GetPagesHelper@?$ISpecifyPropertyPagesImpl@VCOPOSPOSKeyboard@@@ATL@@IAEJPAUtagCAUUID@@PBUATL_PROPMAP_ENTRY@2@@Z 100065a8 f i POSKeyboard.obj
 0001:000056cf       ?GetProperty@?$CComPtr@UIDispatch@@@ATL@@SAJPAUIDispatch@@JPAUtagVARIANT@@@Z 100066cf f i POSKeyboard.obj
 0001:0000571e       ?GetSizeMax@CComVariant@ATL@@QBEJPAT_ULARGE_INTEGER@@@Z 1000671e f i POSKeyboard.obj
 0001:000058e0       ?GetTI@CComTypeInfoHolder@ATL@@QAEJK@Z 100068e0 f i POSKeyboard.obj
 0001:00005abf       ?GetTI@CComTypeInfoHolder@ATL@@QAEJKPAPAUITypeInfo@@@Z 10006abf f i POSKeyboard.obj
 0001:00005b01       ?GetUnknown@CComDynamicUnkArray@ATL@@QAGPAUIUnknown@@K@Z 10006b01 f i POSKeyboard.obj
 0001:00005b22       ?GetValueAt@?$CSimpleMap@PA_WPA_WVCExpansionVectorEqualHelper@ATL@@@ATL@@QBEAAPA_WH@Z 10006b22 f i POSKeyboard.obj
 0001:00005b48       ?GetZoomInfo@CComControlBase@ATL@@QAEXAAUATL_DRAWINFO@@@Z 10006b48 f i POSKeyboard.obj
 0001:00005bdb       ?HKeyFromString@CRegParser@ATL@@KAPAUHKEY__@@PA_W@Z 10006bdb f i POSKeyboard.obj
 0001:00005c09       ?HasSubKeys@CRegParser@ATL@@IAEHPAUHKEY__@@@Z 10006c09 f i POSKeyboard.obj
 0001:00005c3e       ?IDataObject_GetData@CComControlBase@ATL@@QAEJPAUtagFORMATETC@@PAUtagSTGMEDIUM@@@Z 10006c3e f i POSKeyboard.obj
 0001:00005de4       ?IOleInPlaceObject_InPlaceDeactivate@CComControlBase@ATL@@QAEJXZ 10006de4 f i POSKeyboard.obj
 0001:00005e6b       ?IOleInPlaceObject_SetObjectRects@CComControlBase@ATL@@QAEJPBUtagRECT@@0@Z 10006e6b f i POSKeyboard.obj
 0001:00005f38       ?IOleInPlaceObject_UIDeactivate@CComControlBase@ATL@@QAEJXZ 10006f38 f i POSKeyboard.obj
 0001:00005ffa       ?IOleObject_Advise@CComControlBase@ATL@@QAEJPAUIAdviseSink@@PAK@Z 10006ffa f i POSKeyboard.obj
 0001:00006024       ?IOleObject_Close@CComControlBase@ATL@@QAEJK@Z 10007024 f i POSKeyboard.obj
 0001:00006108       ?IOleObject_GetClientSite@CComControlBase@ATL@@QAEJPAPAUIOleClientSite@@@Z 10007108 f i POSKeyboard.obj
 0001:00006131       ?IOleObject_SetClientSite@CComControlBase@ATL@@QAEJPAUIOleClientSite@@@Z 10007131 f i POSKeyboard.obj
 0001:00006170       ?IOleObject_SetExtent@CComControlBase@ATL@@QAEJKPAUtagSIZE@@@Z 10007170 f i POSKeyboard.obj
 0001:00006222       ?IPSI_GetIPersistStreamInit@?$IPersistStorageImpl@VCOPOSPOSKeyboard@@@ATL@@AAEPAUIPersistStreamInit@@XZ 10007222 f i POSKeyboard.obj
 0001:000062ca       ?IPersistStreamInit_Load@?$IPersistStreamInitImpl@VCOPOSPOSKeyboard@@@ATL@@QAEJPAUIStream@@PBUATL_PROPMAP_ENTRY@2@@Z 100072ca f i POSKeyboard.obj
 0001:0000653f       ?IPersistStreamInit_Save@?$IPersistStreamInitImpl@VCOPOSPOSKeyboard@@@ATL@@QAEJPAUIStream@@HPBUATL_PROPMAP_ENTRY@2@@Z 1000753f f i POSKeyboard.obj
 0001:0000672d       ?IQuickActivate_QuickActivate@CComControlBase@ATL@@QAEJPAUtagQACONTAINER@@PAUtagQACONTROL@@@Z 1000772d f i POSKeyboard.obj
 0001:0000696f       ?IViewObject_Draw@CComControlBase@ATL@@QAEJKJPAXPAUtagDVTARGETDEVICE@@PAUHDC__@@2PBU_RECTL@@3@Z 1000796f f i POSKeyboard.obj
 0001:00006a17       ?InPlaceActivate@CComControlBase@ATL@@QAEJJPBUtagRECT@@@Z 10007a17 f i POSKeyboard.obj
 0001:00006c88       ?Init@?$CComEnumImpl@UIEnumConnectionPoints@@$1?_GUID_b196b285_bab4_101a_b69c_00aa00341d07@@3U__s_GUID@@BPAUIConnectionPoint@@V?$_CopyInterface@UIConnectionPoint@@@ATL@@@ATL@@QAEJPAPAUIConnectionPoint@@0PAUIUnknown@@W4CComEnumFlags@2@@Z 10007c88 f i POSKeyboard.obj
 0001:00006d67       ?Init@?$CComEnumImpl@UIEnumConnections@@$1?_GUID_b196b287_bab4_101a_b69c_00aa00341d07@@3U__s_GUID@@BUtagCONNECTDATA@@V?$_Copy@UtagCONNECTDATA@@@ATL@@@ATL@@QAEJPAUtagCONNECTDATA@@0PAUIUnknown@@W4CComEnumFlags@2@@Z 10007d67 f i POSKeyboard.obj
 0001:00006e46       ?Init@CComModule@ATL@@QAEJPAU_ATL_OBJMAP_ENTRY30@2@PAUHINSTANCE__@@PBU_GUID@@@Z 10007e46 f i POSKeyboard.obj
 0001:00006ea5       ?Init@CDynamicStdCallThunk2@ATL@@QAEHKPAX@Z 10007ea5 f i POSKeyboard.obj
 0001:00006ed0       ?InlineIsEqualUnknown@ATL@@YGHABU_GUID@@@Z 10007ed0 f i POSKeyboard.obj
 0001:00006ef8       ?InternalSetAtIndex@?$CSimpleMap@PA_WPA_WVCExpansionVectorEqualHelper@ATL@@@ATL@@QAEXHABQA_W0@Z 10007ef8 f i POSKeyboard.obj
 0001:00006f22       ?Invoke@CComTypeInfoHolder@ATL@@QAEJPAUIDispatch@@JABU_GUID@@KGPAUtagDISPPARAMS@@PAUtagVARIANT@@PAUtagEXCEPINFO@@PAI@Z 10007f22 f i POSKeyboard.obj
 0001:00006f65       ?IsEqualObject@?$CComPtrBase@UITypeInfo@@@ATL@@QAE_NPAUIUnknown@@@Z 10007f65 f i POSKeyboard.obj
 0001:00006f65       ?IsEqualObject@?$CComPtrBase@UIOleClientSite@@@ATL@@QAE_NPAUIUnknown@@@Z 10007f65 f i POSKeyboard.obj
 0001:00006fd2       ?IsSpace@CRegParser@ATL@@IAEH_W@Z 10007fd2 f i POSKeyboard.obj
 0001:00006ffc       ?LoadNameCache@CComTypeInfoHolder@ATL@@QAEJPAUITypeInfo@@@Z 10007ffc f i POSKeyboard.obj
 0001:00007131       ?Lookup@?$CSimpleMap@PA_WPA_WVCExpansionVectorEqualHelper@ATL@@@ATL@@QBEPA_WABQA_W@Z 10008131 f i POSKeyboard.obj
 0001:00007157       ?NextToken@CRegParser@ATL@@IAEJPA_W@Z 10008157 f i POSKeyboard.obj
 0001:0000728f       ?OnKillFocus@CComControlBase@ATL@@QAEJIIJAAH@Z 1000828f f i POSKeyboard.obj
 0001:000072ea       ?OnMouseActivate@CComControlBase@ATL@@QAEJIIJAAH@Z 100082ea f i POSKeyboard.obj
 0001:00007358       ?OnPaint@CComControlBase@ATL@@QAEJIIJAAH@Z 10008358 f i POSKeyboard.obj
 0001:0000740a       ?OnSetFocus@CComControlBase@ATL@@QAEJIIJAAH@Z 1000840a f i POSKeyboard.obj
 0001:00007493       ?Open@CRegKey@ATL@@QAEJPAUHKEY__@@PB_WK@Z 10008493 f i POSKeyboard.obj
 0001:000074e8       ?PreProcessBuffer@CRegParser@ATL@@QAEJPA_WPAPA_W@Z 100084e8 f i POSKeyboard.obj
 0001:00007757       ?ProcessWindowMessage@?$CComControl@VCOPOSPOSKeyboard@@V?$CWindowImpl@VCOPOSPOSKeyboard@@VCWindow@ATL@@V?$CWinTraits@$0FGAAAAAA@$0A@@3@@ATL@@@ATL@@UAEHPAUHWND__@@IIJAAJK@Z 10008757 f i POSKeyboard.obj
 0001:000077f6       ?ReadFromStream@CComBSTR@ATL@@QAEJPAUIStream@@@Z 100087f6 f i POSKeyboard.obj
 0001:00007919       ?ReadFromStream@CComVariant@ATL@@QAEJPAUIStream@@GTClassesAllowedInStream@2@K@Z 10008919 f i POSKeyboard.obj
 0001:00007aa3       ?RecurseDeleteKey@CRegKey@ATL@@QAEJPB_W@Z 10008aa3 f i POSKeyboard.obj
 0001:00007b91       ?RegCreateKeyExW@CAtlTransactionManager@ATL@@QAEJPAUHKEY__@@PB_WKPA_WKKQAU_SECURITY_ATTRIBUTES@@PAPAU3@PAK@Z 10008b91 f i POSKeyboard.obj
 0001:00007bf4       ?RegDeleteKeyW@CAtlTransactionManager@ATL@@QAEJPAUHKEY__@@PB_W@Z 10008bf4 f i POSKeyboard.obj
 0001:00007c46       ?RegOpenKeyExW@CAtlTransactionManager@ATL@@QAEJPAUHKEY__@@PB_WKKPAPAU3@@Z 10008c46 f i POSKeyboard.obj
 0001:00007c9d       ?Register@_ATL_WNDCLASSINFOW@ATL@@QAEGPAP6GJPAUHWND__@@IIJ@Z@Z 10008c9d f i POSKeyboard.obj
 0001:00007cbd       ?RegisterBuffer@CRegParser@ATL@@QAEJPA_WH@Z 10008cbd f i POSKeyboard.obj
 0001:00007e04       ?RegisterFromResource@CRegObject@ATL@@IAEJPB_W00H@Z 10008e04 f i POSKeyboard.obj
 0001:00007f3a       ?RegisterServer@?$CAtlModuleT@VCComModule@ATL@@@ATL@@QAEJHPBU_GUID@@@Z 10008f3a f i POSKeyboard.obj
 0001:00007f68       ?RegisterServer@CComModule@ATL@@QAEJHPBU_GUID@@@Z 10008f68 f i POSKeyboard.obj
 0001:00007fde       ?RegisterSubkeys@CRegParser@ATL@@IAEJPA_WPAUHKEY__@@HH@Z 10008fde f i POSKeyboard.obj
 0001:0000868b       ?Remove@CComDynamicUnkArray@ATL@@QAEHK@Z 1000968b f i POSKeyboard.obj
 0001:000086b4       ?RemoveAll@?$CSimpleMap@PA_WPA_WVCExpansionVectorEqualHelper@ATL@@@ATL@@QAEXXZ 100096b4 f i POSKeyboard.obj
 0001:000086e0       ?ResourceRegisterSz@CRegObject@ATL@@QAGJPB_W00@Z 100096e0 f i POSKeyboard.obj
 0001:0000870d       ?ResourceUnregisterSz@CRegObject@ATL@@QAGJPB_W00@Z 1000970d f i POSKeyboard.obj
 0001:0000873a       ?SendOnDataChange@CComControlBase@ATL@@QAEJK@Z 1000973a f i POSKeyboard.obj
 0001:00008787       ?SetControlFocus@CComControlBase@ATL@@QAEHH@Z 10009787 f i POSKeyboard.obj
 0001:00008824       ?SetMultiStringValue@CRegKey@ATL@@QAEJPB_W0@Z 10009824 f i POSKeyboard.obj
 0001:00008880       ?SetStringValue@CRegKey@ATL@@QAEJPB_W0K@Z 10009880 f i POSKeyboard.obj
 0001:000088c9       ?SkipAssignment@CRegParser@ATL@@IAEJPA_W@Z 100098c9 f i POSKeyboard.obj
 0001:0000892e       ?SkipWhiteSpace@CRegParser@ATL@@IAEXXZ 1000992e f i POSKeyboard.obj
 0001:00008950       ?StrChrW@CRegParser@ATL@@KAPA_WPA_W_W@Z 10009950 f i POSKeyboard.obj
 0001:0000898d       ?Term@CAtlModule@ATL@@QAEXXZ 1000998d f i POSKeyboard.obj
 0001:000089e0       ?Term@CComModule@ATL@@QAEXXZ 100099e0 f i POSKeyboard.obj
 0001:00008a38       ?UnregisterServer@?$CAtlModuleT@VCComModule@ATL@@@ATL@@QAEJHPBU_GUID@@@Z 10009a38 f i POSKeyboard.obj
 0001:00008a5e       ?UnregisterServer@CComModule@ATL@@QAEJHPBU_GUID@@@Z 10009a5e f i POSKeyboard.obj
 0001:00008ad4       ?UpdateRegistryFromResource@CAtlModule@ATL@@QAGJIHPAU_ATL_REGMAP_ENTRY@2@@Z 10009ad4 f i POSKeyboard.obj
 0001:00008c9f       ?UpdateRegistryFromResource@CAtlModule@ATL@@QAGJPB_WHPAU_ATL_REGMAP_ENTRY@2@@Z 10009c9f f i POSKeyboard.obj
 0001:00008e70       ?VTFromRegType@CRegParser@ATL@@KAHPB_WAAG@Z 10009e70 f i POSKeyboard.obj
 0001:00008edd       ?WindowProc@?$CWindowImplBaseT@VCWindow@ATL@@V?$CWinTraits@$0FGAAAAAA@$0A@@2@@ATL@@SGJPAUHWND__@@IIJ@Z 10009edd f i POSKeyboard.obj
 0001:00008fcf       ?WriteToStream@CComBSTR@ATL@@QAEJPAUIStream@@@Z 10009fcf f i POSKeyboard.obj
 0001:00009031       ?WriteToStream@CComVariant@ATL@@QAEJPAUIStream@@@Z 1000a031 f i POSKeyboard.obj
 0001:000091ab       ?WriteToStream@CComVariant@ATL@@QAEJPAUIStream@@G@Z 1000a1ab f i POSKeyboard.obj
 0001:00009214       ?_AtlInitialConstruct@?$CComObjectRootEx@VCComMultiThreadModel@ATL@@@ATL@@QAEJXZ 1000a214 f i POSKeyboard.obj
 0001:00009229       ?_AtlVerifyStackAvailable@_ATL_SAFE_ALLOCA_IMPL@ATL@@YA_NK@Z 1000a229 f i POSKeyboard.obj
 0001:000092a7       ?atlCreate@?$CWindowImpl@VCOPOSPOSKeyboard@@VCWindow@ATL@@V?$CWinTraits@$0FGAAAAAA@$0A@@3@@ATL@@QAEPAUHWND__@@PAU3@V_U_RECT@2@PB_WKKV_U_MENUorID@2@PAX@Z 1000a2a7 f i POSKeyboard.obj
 0001:000092eb       ?atlCreate@?$CWindowImplBaseT@VCWindow@ATL@@V?$CWinTraits@$0FGAAAAAA@$0A@@2@@ATL@@QAEPAUHWND__@@PAU3@V_U_RECT@2@PB_WKKV_U_MENUorID@2@GPAX@Z 1000a2eb f i POSKeyboard.obj
 0001:00009387       ?copy@?$_Copy@UtagCONNECTDATA@@@ATL@@SAJPAUtagCONNECTDATA@@PBU3@@Z 1000a387 f i POSKeyboard.obj
 0001:000093bd       ?copy@?$_CopyInterface@UIConnectionPoint@@@ATL@@SAJPAPAUIConnectionPoint@@PBQAU3@@Z 1000a3bd f i POSKeyboard.obj
 0001:000093eb       ?memcpy_s@Checked@ATL@@YAXPAXIPBXI@Z 1000a3eb f i POSKeyboard.obj
 0001:0000940a       ?ocscpy_s@@YA_NPA_WIPB_W@Z 1000a40a f i POSKeyboard.obj
 0001:00009454       ?wcscpy_s@Checked@ATL@@YAXPA_WIPB_W@Z 1000a454 f i POSKeyboard.obj
 0001:00009470       _DllCanUnloadNow@0         1000a470 f   POSKeyboard.obj
 0001:0000947c       _DllGetClassObject@12      1000a47c f   POSKeyboard.obj
 0001:0000948a       _DllMain@12                1000a48a f   POSKeyboard.obj
 0001:000094cc       _DllRegisterServer@0       1000a4cc f   POSKeyboard.obj
 0001:000094db       _DllUnregisterServer@0     1000a4db f   POSKeyboard.obj
 0001:000094ea       _InlineIsEqualGUID         1000a4ea f i POSKeyboard.obj
 0001:0000951a       ___local_stdio_printf_options 1000a51a f i POSKeyboard.obj
 0001:00009520       __vswprintf_s_l            1000a520 f i POSKeyboard.obj
 0001:000095cd       _swprintf_s                1000a5cd f i POSKeyboard.obj
 0001:000095e9       ??0?$CComControl@VCOPOSPOSKeyboard@@V?$CWindowImpl@VCOPOSPOSKeyboard@@VCWindow@ATL@@V?$CWinTraits@$0FGAAAAAA@$0A@@3@@ATL@@@ATL@@QAE@XZ 1000a5e9 f i POSKeyboardImpl.obj
 0001:00009610       ??0?$CProxy_IOPOSEvents@VCOPOSPOSKeyboard@@@@QAE@XZ 1000a610 f i POSKeyboardImpl.obj
 0001:00009630       ??0CComControlBase@ATL@@QAE@AAPAUHWND__@@@Z 1000a630 f i POSKeyboardImpl.obj
 0001:00009680       ??0COPOSPOSKeyboard@@QAE@XZ 1000a680 f   POSKeyboardImpl.obj
 0001:000096b6       ??1?$CComControl@VCOPOSPOSKeyboard@@V?$CWindowImpl@VCOPOSPOSKeyboard@@VCWindow@ATL@@V?$CWinTraits@$0FGAAAAAA@$0A@@3@@ATL@@@ATL@@UAE@XZ 1000a6b6 f i POSKeyboardImpl.obj
 0001:000096cf       ??1?$IConnectionPointImpl@VCOPOSPOSKeyboard@@$1?DIID__IOPOSPOSKeyboardEvents@@3U_GUID@@BVCComDynamicUnkArray@ATL@@@ATL@@QAE@XZ 1000a6cf f i POSKeyboardImpl.obj
 0001:000096cf       ??1?$IConnectionPointImpl@VCOPOSPOSKeyboard@@$1?IID_IPropertyNotifySink@@3U_GUID@@BVCComDynamicUnkArray@ATL@@@ATL@@QAE@XZ 1000a6cf f i POSKeyboardImpl.obj
 0001:0000970c       ??1CComControlBase@ATL@@UAE@XZ 1000a70c f i POSKeyboardImpl.obj
 0001:0000976f       ??1COPOSPOSKeyboard@@UAE@XZ 1000a76f f   POSKeyboardImpl.obj
 0001:000097b7       ?CheckHealth@COPOSPOSKeyboard@@UAGJJPAJ@Z 1000a7b7 f   POSKeyboardImpl.obj
 0001:00009806       ?ClaimDevice@COPOSPOSKeyboard@@UAGJJPAJ@Z 1000a806 f   POSKeyboardImpl.obj
 0001:0000987b       ?ClearInput@COPOSPOSKeyboard@@UAGJPAJ@Z 1000a87b f   POSKeyboardImpl.obj
 0001:00009896       ?Close@COPOSPOSKeyboard@@UAGJPAJ@Z 1000a896 f   POSKeyboardImpl.obj
 0001:00009904       ?CompareFirmwareVersion@COPOSPOSKeyboard@@UAGJPA_WPAJ1@Z 1000a904 f   POSKeyboardImpl.obj
 0001:00009984       ?DirectIO@COPOSPOSKeyboard@@UAGJJPAJPAPA_W0@Z 1000a984 f   POSKeyboardImpl.obj
 0001:00009a32       ?DoInvoke@COPOSPOSKeyboard@@IAEJJPAVOposVariant@@IHPAJ_N@Z 1000aa32 f   POSKeyboardImpl.obj
 0001:00009b0e       ?EventClose@COPOSPOSKeyboard@@IAEXXZ 1000ab0e f i POSKeyboardImpl.obj
 0001:00009b41       ?EventInit@COPOSPOSKeyboard@@IAEJXZ 1000ab41 f i POSKeyboardImpl.obj
 0001:00009c0d       ?EventUninit@COPOSPOSKeyboard@@IAEXXZ 1000ac0d f i POSKeyboardImpl.obj
 0001:00009c5f       ?EventWindowProc@COPOSPOSKeyboard@@IAGJIIJ@Z 1000ac5f f i POSKeyboardImpl.obj
 0001:00009d33       ?FinalConstruct@COPOSPOSKeyboard@@QAEJXZ 1000ad33 f   POSKeyboardImpl.obj
 0001:00009d6c       ?FireEventCleanup@COPOSPOSKeyboard@@IAEXXZ 1000ad6c f i POSKeyboardImpl.obj
 0001:00009d82       ?FireEventSetup@COPOSPOSKeyboard@@IAE_NXZ 1000ad82 f i POSKeyboardImpl.obj
 0001:00009db6       ?FreezeEvents@COPOSPOSKeyboard@@MAGJH@Z 1000adb6 f   POSKeyboardImpl.obj
 0001:00009e16       ?GetOposProp@COPOSPOSKeyboard@@IAEJJPAFJ@Z 1000ae16 f   POSKeyboardImpl.obj
 0001:00009e39       ?GetOposProp@COPOSPOSKeyboard@@IAEJJPAJJ@Z 1000ae39 f   POSKeyboardImpl.obj
 0001:00009f08       ?GetOposProp@COPOSPOSKeyboard@@IAEJJPAPA_WJ@Z 1000af08 f   POSKeyboardImpl.obj
 0001:00009fe4       ?OnDraw@COPOSPOSKeyboard@@MAEJAAUATL_DRAWINFO@@@Z 1000afe4 f   POSKeyboardImpl.obj
 0001:0000a084       ?Open@COPOSPOSKeyboard@@UAGJPA_WPAJ@Z 1000b084 f   POSKeyboardImpl.obj
 0001:0000a8d3       ?ReleaseDevice@COPOSPOSKeyboard@@UAGJPAJ@Z 1000b8d3 f   POSKeyboardImpl.obj
 0001:0000a922       ?ResetStatistics@COPOSPOSKeyboard@@UAGJPA_WPAJ@Z 1000b922 f   POSKeyboardImpl.obj
 0001:0000a979       ?RetrieveStatistics@COPOSPOSKeyboard@@UAGJPAPA_WPAJ@Z 1000b979 f   POSKeyboardImpl.obj
 0001:0000a9d0       ?SOProcessID@COPOSPOSKeyboard@@UAGJPAJ@Z 1000b9d0 f   POSKeyboardImpl.obj
 0001:0000a9e4       ?SetCOFreezeEvents@COPOSPOSKeyboard@@IAEXF@Z 1000b9e4 f   POSKeyboardImpl.obj
 0001:0000aa84       ?SetOposProp@COPOSPOSKeyboard@@IAEJJJJ@Z 1000ba84 f   POSKeyboardImpl.obj
 0001:0000ab7b       ?UpdateFirmware@COPOSPOSKeyboard@@UAGJPA_WPAJ@Z 1000bb7b f   POSKeyboardImpl.obj
 0001:0000abd2       ?UpdateStatistics@COPOSPOSKeyboard@@UAGJPA_WPAJ@Z 1000bbd2 f   POSKeyboardImpl.obj
 0001:0000ac29       ?get_AutoDisable@COPOSPOSKeyboard@@UAGJPAF@Z 1000bc29 f   POSKeyboardImpl.obj
 0001:0000ac3f       ?get_BinaryConversion@COPOSPOSKeyboard@@UAGJPAJ@Z 1000bc3f f   POSKeyboardImpl.obj
 0001:0000ac55       ?get_CapCompareFirmwareVersion@COPOSPOSKeyboard@@UAGJPAF@Z 1000bc55 f   POSKeyboardImpl.obj
 0001:0000ac6e       ?get_CapKeyUp@COPOSPOSKeyboard@@UAGJPAF@Z 1000bc6e f   POSKeyboardImpl.obj
 0001:0000ac87       ?get_CapPowerReporting@COPOSPOSKeyboard@@UAGJPAJ@Z 1000bc87 f   POSKeyboardImpl.obj
 0001:0000aca0       ?get_CapStatisticsReporting@COPOSPOSKeyboard@@UAGJPAF@Z 1000bca0 f   POSKeyboardImpl.obj
 0001:0000acb9       ?get_CapUpdateFirmware@COPOSPOSKeyboard@@UAGJPAF@Z 1000bcb9 f   POSKeyboardImpl.obj
 0001:0000acd2       ?get_CapUpdateStatistics@COPOSPOSKeyboard@@UAGJPAF@Z 1000bcd2 f   POSKeyboardImpl.obj
 0001:0000aceb       ?get_CheckHealthText@COPOSPOSKeyboard@@UAGJPAPA_W@Z 1000bceb f   POSKeyboardImpl.obj
 0001:0000ad04       ?get_Claimed@COPOSPOSKeyboard@@UAGJPAF@Z 1000bd04 f   POSKeyboardImpl.obj
 0001:0000ad1a       ?get_ControlObjectDescription@COPOSPOSKeyboard@@UAGJPAPA_W@Z 1000bd1a f   POSKeyboardImpl.obj
 0001:0000ad68       ?get_ControlObjectVersion@COPOSPOSKeyboard@@UAGJPAJ@Z 1000bd68 f   POSKeyboardImpl.obj
 0001:0000ad7b       ?get_DataCount@COPOSPOSKeyboard@@UAGJPAJ@Z 1000bd7b f   POSKeyboardImpl.obj
 0001:0000ad91       ?get_DataEventEnabled@COPOSPOSKeyboard@@UAGJPAF@Z 1000bd91 f   POSKeyboardImpl.obj
 0001:0000ada7       ?get_DeviceDescription@COPOSPOSKeyboard@@UAGJPAPA_W@Z 1000bda7 f   POSKeyboardImpl.obj
 0001:0000adc0       ?get_DeviceEnabled@COPOSPOSKeyboard@@UAGJPAF@Z 1000bdc0 f   POSKeyboardImpl.obj
 0001:0000add6       ?get_DeviceName@COPOSPOSKeyboard@@UAGJPAPA_W@Z 1000bdd6 f   POSKeyboardImpl.obj
 0001:0000adef       ?get_EventTypes@COPOSPOSKeyboard@@UAGJPAJ@Z 1000bdef f   POSKeyboardImpl.obj
 0001:0000ae08       ?get_FreezeEvents@COPOSPOSKeyboard@@UAGJPAF@Z 1000be08 f   POSKeyboardImpl.obj
 0001:0000ae1e       ?get_OpenResult@COPOSPOSKeyboard@@UAGJPAJ@Z 1000be1e f   POSKeyboardImpl.obj
 0001:0000ae35       ?get_POSKeyData@COPOSPOSKeyboard@@UAGJPAJ@Z 1000be35 f   POSKeyboardImpl.obj
 0001:0000ae4e       ?get_POSKeyEventType@COPOSPOSKeyboard@@UAGJPAJ@Z 1000be4e f   POSKeyboardImpl.obj
 0001:0000ae67       ?get_PowerNotify@COPOSPOSKeyboard@@UAGJPAJ@Z 1000be67 f   POSKeyboardImpl.obj
 0001:0000ae7d       ?get_PowerState@COPOSPOSKeyboard@@UAGJPAJ@Z 1000be7d f   POSKeyboardImpl.obj
 0001:0000ae93       ?get_ResultCode@COPOSPOSKeyboard@@UAGJPAJ@Z 1000be93 f   POSKeyboardImpl.obj
 0001:0000aed1       ?get_ResultCodeExtended@COPOSPOSKeyboard@@UAGJPAJ@Z 1000bed1 f   POSKeyboardImpl.obj
 0001:0000aee7       ?get_ServiceObjectDescription@COPOSPOSKeyboard@@UAGJPAPA_W@Z 1000bee7 f   POSKeyboardImpl.obj
 0001:0000af00       ?get_ServiceObjectVersion@COPOSPOSKeyboard@@UAGJPAJ@Z 1000bf00 f   POSKeyboardImpl.obj
 0001:0000af16       ?get_State@COPOSPOSKeyboard@@UAGJPAJ@Z 1000bf16 f   POSKeyboardImpl.obj
 0001:0000af42       ?put_AutoDisable@COPOSPOSKeyboard@@UAGJF@Z 1000bf42 f   POSKeyboardImpl.obj
 0001:0000af5f       ?put_BinaryConversion@COPOSPOSKeyboard@@UAGJJ@Z 1000bf5f f   POSKeyboardImpl.obj
 0001:0000af75       ?put_DataEventEnabled@COPOSPOSKeyboard@@UAGJF@Z 1000bf75 f   POSKeyboardImpl.obj
 0001:0000af92       ?put_DeviceEnabled@COPOSPOSKeyboard@@UAGJF@Z 1000bf92 f   POSKeyboardImpl.obj
 0001:0000afaf       ?put_EventTypes@COPOSPOSKeyboard@@UAGJJ@Z 1000bfaf f   POSKeyboardImpl.obj
 0001:0000afc8       ?put_FreezeEvents@COPOSPOSKeyboard@@UAGJF@Z 1000bfc8 f   POSKeyboardImpl.obj
 0001:0000b014       ?put_PowerNotify@COPOSPOSKeyboard@@UAGJJ@Z 1000c014 f   POSKeyboardImpl.obj
 0001:0000b02a       ?s_EventWindowProc@COPOSPOSKeyboard@@KGJPAUHWND__@@IIJ@Z 1000c02a f i POSKeyboardImpl.obj
 0001:0000b07c       ??_U@YAPAXI@Z              1000c07c f   LIBCMT:new_array.obj
 0001:0000b085       ??3@YAXPAXI@Z              1000c085 f   LIBCMT:delete_scalar_size.obj
 0001:0000b093       ??_V@YAXPAX@Z              1000c093 f   LIBCMT:delete_array.obj
 0001:0000b098       ??_V@YAXPAXI@Z             1000c098 f   LIBCMT:delete_array_size.obj
 0001:0000b0ea       ___scrt_acquire_startup_lock 1000c0ea f   LIBCMT:utility.obj
 0001:0000b11c       ___scrt_dllmain_after_initialize_c 1000c11c f   LIBCMT:utility.obj
 0001:0000b147       ___scrt_dllmain_before_initialize_c 1000c147 f   LIBCMT:utility.obj
 0001:0000b155       ___scrt_dllmain_crt_thread_attach 1000c155 f   LIBCMT:utility.obj
 0001:0000b174       ___scrt_dllmain_crt_thread_detach 1000c174 f   LIBCMT:utility.obj
 0001:0000b181       ___scrt_dllmain_exception_filter 1000c181 f   LIBCMT:utility.obj
 0001:0000b1b5       ___scrt_dllmain_uninitialize_c 1000c1b5 f   LIBCMT:utility.obj
 0001:0000b1d8       ___scrt_dllmain_uninitialize_critical 1000c1d8 f   LIBCMT:utility.obj
 0001:0000b1e5       ___scrt_initialize_crt     1000c1e5 f   LIBCMT:utility.obj
 0001:0000b21e       ___scrt_initialize_onexit_tables 1000c21e f   LIBCMT:utility.obj
 0001:0000b2a5       ___scrt_is_nonwritable_in_current_image 1000c2a5 f   LIBCMT:utility.obj
 0001:0000b339       ___scrt_release_startup_lock 1000c339 f   LIBCMT:utility.obj
 0001:0000b356       ___scrt_uninitialize_crt   1000c356 f   LIBCMT:utility.obj
 0001:0000b37e       __onexit                   1000c37e f   LIBCMT:utility.obj
 0001:0000b3ab       _atexit                    1000c3ab f   LIBCMT:utility.obj
 0001:0000b3c0       ??3@YAXPAX@Z               1000c3c0 f   LIBCMT:delete_scalar.obj
 0001:0000b48a       __Init_thread_footer       1000c48a f   LIBCMT:thread_safe_statics.obj
 0001:0000b4d4       __Init_thread_header       1000c4d4 f   LIBCMT:thread_safe_statics.obj
 0001:0000b526       __Init_thread_notify       1000c526 f   LIBCMT:thread_safe_statics.obj
 0001:0000b55c       __Init_thread_wait         1000c55c f   LIBCMT:thread_safe_statics.obj
 0001:0000b5aa       ___raise_securityfailure   1000c5aa f   LIBCMT:gs_report.obj
 0001:0000b5d2       ___report_gsfailure        1000c5d2 f   LIBCMT:gs_report.obj
 0001:0000b6cb       ___report_rangecheckfailure 1000c6cb f   LIBCMT:gs_report.obj
 0001:0000b6d7       ___report_securityfailure  1000c6d7 f   LIBCMT:gs_report.obj
 0001:0000b7a5       ??2@YAPAXIABUnothrow_t@std@@@Z 1000c7a5 f   LIBCMT:new_scalar_nothrow.obj
 0001:0000b7fa       ??_U@YAPAXIABUnothrow_t@std@@@Z 1000c7fa f   LIBCMT:new_array_nothrow.obj
 0001:0000b803       @__security_check_cookie@4 1000c803 f   LIBCMT:secchk.obj
 0001:0000b820       __SEH_prolog4_GS           1000c820 f   LIBCMT:sehprolg4gs.obj
 0001:0000b867       __SEH_epilog4_GS           1000c867 f   LIBCMT:sehprolg4gs.obj
 0001:0000b880       __alloca_probe_16          1000c880 f   LIBCMT:alloca16.obj
 0001:0000b896       __alloca_probe_8           1000c896     LIBCMT:alloca16.obj
 0001:0000b8b0       __chkstk                   1000c8b0 f   LIBCMT:chkstk.obj
 0001:0000b8b0       __alloca_probe             1000c8b0 f   LIBCMT:chkstk.obj
 0001:0000bc1d       __DllMainCRTStartup@12     1000cc1d f   LIBCMT:dll_dllmain.obj
 0001:0000bc40       ??2@YAPAXI@Z               1000cc40 f   LIBCMT:new_scalar.obj
 0001:0000bc70       ___isa_available_init      1000cc70 f   LIBCMT:cpu_disp.obj
 0001:0000be40       ___scrt_is_ucrt_dll_in_use 1000ce40 f   LIBCMT:ucrt_detection.obj
 0001:0000be4c       ___scrt_fastfail           1000ce4c f   LIBCMT:utility_desktop.obj
 0001:0000bf66       __crt_debugger_hook        1000cf66 f   LIBCMT:utility_desktop.obj
 0001:0000bf70       __SEH_prolog4              1000cf70 f   LIBCMT:sehprolg4.obj
 0001:0000bfb4       __SEH_epilog4              1000cfb4 f   LIBCMT:sehprolg4.obj
 0001:0000bfc8       @_guard_check_icall_nop@4  1000cfc8 f i LIBCMT:guard_support.obj
 0001:0000c018       ___security_init_cookie    1000d018 f   LIBCMT:gs_support.obj
 0001:0000c063       ?__scrt_initialize_type_info@@YAXXZ 1000d063 f   LIBCMT:tncleanup.obj
 0001:0000c06f       ?__scrt_uninitialize_type_info@@YAXXZ 1000d06f f   LIBCMT:tncleanup.obj
 0001:0000c07b       ___local_stdio_scanf_options 1000d07b f i LIBCMT:default_local_stdio_options.obj
 0001:0000c081       ___scrt_initialize_default_local_stdio_options 1000d081 f   LIBCMT:default_local_stdio_options.obj
 0001:0000c09e       ___scrt_get_dyn_tls_init_callback 1000d09e f   LIBCMT:dyn_tls_init.obj
 0001:0000c0a4       __RTC_Initialize           1000d0a4 f   LIBCMT:initsect.obj
 0001:0000c0d0       __RTC_Terminate            1000d0d0 f   LIBCMT:initsect.obj
 0001:0000c0fc       ??0bad_alloc@std@@QAE@ABV01@@Z 1000d0fc f i LIBCMT:throw_bad_alloc.obj
 0001:0000c117       ??0bad_alloc@std@@QAE@XZ   1000d117 f i LIBCMT:throw_bad_alloc.obj
 0001:0000c12f       ??0bad_array_new_length@std@@QAE@ABV01@@Z 1000d12f f i LIBCMT:throw_bad_alloc.obj
 0001:0000c14a       ??0bad_array_new_length@std@@QAE@XZ 1000d14a f i LIBCMT:throw_bad_alloc.obj
 0001:0000c162       ??0exception@std@@QAE@ABV01@@Z 1000d162 f i LIBCMT:throw_bad_alloc.obj
 0001:0000c18e       ??1bad_alloc@std@@UAE@XZ   1000d18e f i LIBCMT:throw_bad_alloc.obj
 0001:0000c18e       ??1bad_exception@std@@UAE@XZ 1000d18e f i libvcruntime:frame.obj
 0001:0000c18e       ??1bad_array_new_length@std@@UAE@XZ 1000d18e f i LIBCMT:throw_bad_alloc.obj
 0001:0000c19f       ??_Ebad_array_new_length@std@@UAEPAXI@Z 1000d19f f i LIBCMT:throw_bad_alloc.obj
 0001:0000c19f       ??_Gbad_exception@std@@UAEPAXI@Z 1000d19f f i libvcruntime:frame.obj
 0001:0000c19f       ??_Gexception@std@@UAEPAXI@Z 1000d19f f i LIBCMT:throw_bad_alloc.obj
 0001:0000c19f       ??_Gbad_array_new_length@std@@UAEPAXI@Z 1000d19f f i LIBCMT:throw_bad_alloc.obj
 0001:0000c19f       ??_Ebad_exception@std@@UAEPAXI@Z 1000d19f f i libvcruntime:frame.obj
 0001:0000c19f       ??_Ebad_alloc@std@@UAEPAXI@Z 1000d19f f i LIBCMT:throw_bad_alloc.obj
 0001:0000c19f       ??_Gbad_alloc@std@@UAEPAXI@Z 1000d19f f i LIBCMT:throw_bad_alloc.obj
 0001:0000c19f       ??_Eexception@std@@UAEPAXI@Z 1000d19f f i LIBCMT:throw_bad_alloc.obj
 0001:0000c1cc       ?__scrt_throw_std_bad_alloc@@YAXXZ 1000d1cc f   LIBCMT:throw_bad_alloc.obj
 0001:0000c1e9       ?__scrt_throw_std_bad_array_new_length@@YAXXZ 1000d1e9 f   LIBCMT:throw_bad_alloc.obj
 0001:0000c206       ?what@exception@std@@UBEPBDXZ 1000d206 f i LIBCMT:throw_bad_alloc.obj
 0001:0000c213       ??_Etype_info@@UAEPAXI@Z   1000d213 f i LIBCMT:std_type_info_static.obj
 0001:0000c213       ??_Gtype_info@@UAEPAXI@Z   1000d213 f i LIBCMT:std_type_info_static.obj
 0001:0000c236       ??0CAtlBaseModule@ATL@@QAE@XZ 1000d236 f   atls:atlbase.obj
 0001:0000c289       ??0_ATL_BASE_MODULE70@ATL@@QAE@XZ 1000d289 f i atls:atlbase.obj
 0001:0000c2ac       ??1CAtlBaseModule@ATL@@QAE@XZ 1000d2ac f   atls:atlbase.obj
 0001:0000c399       ?Init@_stdcallthunk@ATL@@QAEHKPAX@Z 1000d399 f i atls:atlthunk.obj
 0001:0000c3ce       ?__AllocStdCallThunk_cmn@@YAPAXXZ 1000d3ce f   atls:atlthunk.obj
 0001:0000c494       ?__FreeStdCallThunk_cmn@@YAXPAX@Z 1000d494 f   atls:atlthunk.obj
 0001:0000c52f       _AtlThunk_AllocateData@0   1000d52f f   atls:atlthunk.obj
 0001:0000c594       _AtlThunk_DataToCode@4     1000d594 f   atls:atlthunk.obj
 0001:0000c5db       _AtlThunk_FreeData@4       1000d5db f   atls:atlthunk.obj
 0001:0000c631       _AtlThunk_InitData@12      1000d631 f   atls:atlthunk.obj
 0001:0000c680       __get_purecall_handler     1000d680 f   libvcruntime:purevirt.obj
 0001:0000c686       __purecall                 1000d686 f   libvcruntime:purevirt.obj
 0001:0000c6a2       _wcsstr                    1000d6a2 f   libvcruntime:wcsstr.obj
 0001:0000c950       __except_handler4          1000d950 f   libvcruntime:chandler4.obj
 0001:0000caae       _memcmp                    1000daae f   libvcruntime:memcmp.obj
 0001:0000d9c0       _memcpy                    1000e9c0 f   libvcruntime:memcpy.obj
 0001:0000df40       _memset                    1000ef40 f   libvcruntime:memset.obj
 0001:0000e09a       ___vcrt_initialize         1000f09a f   libvcruntime:initialization.obj
 0001:0000e0b9       ___vcrt_thread_attach      1000f0b9 f   libvcruntime:initialization.obj
 0001:0000e0c4       ___vcrt_thread_detach      1000f0c4 f   libvcruntime:initialization.obj
 0001:0000e0cf       ___vcrt_uninitialize       1000f0cf f   libvcruntime:initialization.obj
 0001:0000e0e6       ___vcrt_uninitialize_critical 1000f0e6 f   libvcruntime:initialization.obj
 0001:0000e0ee       ?GetRangeOfTrysToCheck@__FrameHandler3@@SA?AU?$pair@Viterator@TryBlockMap@__FrameHandler3@@V123@@std@@AAVTryBlockMap@1@HPAXPBU_s_FuncInfo@@H@Z 1000f0ee f   libvcruntime:trnsctrl.obj
 0001:0000e15e       ?_CallCatchBlock2@@YAPAXPAUEHRegistrationNode@@PBU_s_FuncInfo@@PAXHK@Z 1000f15e f   libvcruntime:trnsctrl.obj
 0001:0000e1bc       ?_CallSETranslator@@YAHPAUEHExceptionRecord@@PAUEHRegistrationNode@@PAX2PBU_s_FuncInfo@@H1@Z 1000f1bc f   libvcruntime:trnsctrl.obj
 0001:0000e2a2       ?_JumpToContinuation@@YGXPAXPAUEHRegistrationNode@@@Z 1000f2a2 f   libvcruntime:trnsctrl.obj
 0001:0000e2d2       ?_UnwindNestedFrames@@YGXPAUEHRegistrationNode@@PAUEHExceptionRecord@@@Z 1000f2d2 f   libvcruntime:trnsctrl.obj
 0001:0000e325       __CatchGuardHandler        1000f325 f   libvcruntime:trnsctrl.obj
 0001:0000e356       __CreateFrameInfo          1000f356 f   libvcruntime:trnsctrl.obj
 0001:0000e37a       __FindAndUnlinkFrame       1000f37a f   libvcruntime:trnsctrl.obj
 0001:0000e3c2       __TranslatorGuardHandler   1000f3c2 f   libvcruntime:trnsctrl.obj
 0001:0000e45f       ___CxxFrameHandler3        1000f45f f   libvcruntime:trnsctrl.obj
 0001:0000e495       ___DestructExceptionObject 1000f495 f   libvcruntime:ehhelpers.obj
 0001:0000e536       ?_CallMemberFunction0@@YGXQAX0@Z 1000f536 f i libvcruntime:ehhelpers.obj
 0001:0000e59b       __IsExceptionObjectToBeDestroyed 1000f59b f   libvcruntime:ehhelpers.obj
 0001:0000e5c1       ___AdjustPointer           1000f5c1 f   libvcruntime:ehhelpers.obj
 0001:0000e5e6       ___FrameUnwindFilter       1000f5e6 f   libvcruntime:ehhelpers.obj
 0001:0000e63c       ___std_type_info_compare   1000f63c f   libvcruntime:std_type_info.obj
 0001:0000e678       ___std_type_info_destroy_list 1000f678 f   libvcruntime:std_type_info.obj
 0001:0000e69b       ___std_exception_copy      1000f69b f   libvcruntime:std_exception.obj
 0001:0000e6fe       ___std_exception_destroy   1000f6fe f   libvcruntime:std_exception.obj
 0001:0000e71d       __CxxThrowException@8      1000f71d f   libvcruntime:throw.obj
 0001:0000e790       _memmove                   1000f790 f   libvcruntime:memmove.obj
 0001:0000ed10       __local_unwind4            1000fd10 f   libvcruntime:exsup4.obj
 0001:0000ede4       __seh_longjmp_unwind4@4    1000fde4 f   libvcruntime:exsup4.obj
 0001:0000ee0c       @_EH4_CallFilterFunc@8     1000fe0c f   libvcruntime:exsup4.obj
 0001:0000ee24       @_EH4_TransferToHandler@8  1000fe24 f   libvcruntime:exsup4.obj
 0001:0000ee40       @_EH4_GlobalUnwind2@8      1000fe40 f   libvcruntime:exsup4.obj
 0001:0000ee5c       @_EH4_LocalUnwind@16       1000fe5c f   libvcruntime:exsup4.obj
 0001:0000ee73       ___except_validate_context_record 1000fe73 f   libvcruntime:jbcxrval.obj
 0001:0000eea3       ___except_validate_jump_buffer 1000fea3 f   libvcruntime:jbcxrval.obj
 0001:0000eed0       ___vcrt_freefls@4          1000fed0 f   libvcruntime:per_thread_data.obj
 0001:0000eeec       ___vcrt_freeptd            1000feec f   libvcruntime:per_thread_data.obj
 0001:0000ef22       ___vcrt_getptd             1000ff22 f   libvcruntime:per_thread_data.obj
 0001:0000ef30       ___vcrt_getptd_noexit      1000ff30 f   libvcruntime:per_thread_data.obj
 0001:0000efc2       ___vcrt_initialize_ptd     1000ffc2 f   libvcruntime:per_thread_data.obj
 0001:0000eff5       ___vcrt_uninitialize_ptd   1000fff5 f   libvcruntime:per_thread_data.obj
 0001:0000f010       ___vcrt_initialize_locks   10010010 f   libvcruntime:locks.obj
 0001:0000f04c       ___vcrt_uninitialize_locks 1001004c f   libvcruntime:locks.obj
 0001:0000f7be       ??$TypeMatchHelper@V__FrameHandler3@@@@YAHPBU_s_HandlerType@@PBU_s_CatchableType@@PBU_s_ThrowInfo@@@Z 100107be f i libvcruntime:frame.obj
 0001:0000f84c       ??$__InternalCxxFrameHandler@V__FrameHandler3@@@@YA?AW4_EXCEPTION_DISPOSITION@@PAUEHExceptionRecord@@PAUEHRegistrationNode@@PAU_CONTEXT@@PAXPBU_s_FuncInfo@@H1E@Z 1001084c f i libvcruntime:frame.obj
 0001:0000f94e       ??0bad_exception@std@@QAE@ABV01@@Z 1001094e f i libvcruntime:frame.obj
 0001:0000f969       ??0bad_exception@std@@QAE@XZ 10010969 f i libvcruntime:frame.obj
 0001:0000f981       ??8type_info@@QBE_NABV0@@Z 10010981 f i libvcruntime:frame.obj
 0001:0000fbed       ?FrameUnwindToEmptyState@__FrameHandler3@@SAXPAUEHRegistrationNode@@PAXPBU_s_FuncInfo@@@Z 10010bed f   libvcruntime:frame.obj
 0001:0000fc05       ?FrameUnwindToState@__FrameHandler3@@SAXPAUEHRegistrationNode@@PAXPBU_s_FuncInfo@@H@Z 10010c05 f   libvcruntime:frame.obj
 0001:0000fd87       ?_CallMemberFunction1@@YGXQAX00@Z 10010d87 f i libvcruntime:frame.obj
 0001:0000fd97       ?_CallMemberFunction2@@YGXQAX00H@Z 10010d97 f i libvcruntime:frame.obj
 0001:0000fdaa       ?getESTypes@__FrameHandler3@@SAPBU_s_ESTypeList@@PBU_s_FuncInfo@@@Z 10010daa f i libvcruntime:frame.obj
 0001:0000fdc0       __CallSettingFrame@12      10010dc0 f   libvcruntime:lowhelpr.obj
 0001:0000fde7       __NLG_Return               10010de7     libvcruntime:lowhelpr.obj
 0001:0000fe10       __global_unwind2           10010e10 f   libvcruntime:exsup.obj
 0001:0000fe76       __local_unwind2            10010e76 f   libvcruntime:exsup.obj
 0001:0000fefa       __abnormal_termination     10010efa f   libvcruntime:exsup.obj
 0001:0000ff20       __NLG_Notify1              10010f20 f   libvcruntime:exsup.obj
 0001:0000ff2c       __NLG_Notify               10010f2c f   libvcruntime:exsup.obj
 0001:0000ff43       __NLG_Dispatch2            10010f43     libvcruntime:exsup.obj
 0001:0000ff43       __NLG_Dispatch             10010f43     libvcruntime:exsup.obj
 0001:0000ff4b       __NLG_Call                 10010f4b f   libvcruntime:exsup.obj
 0001:0000ff4d       __NLG_Return2              10010f4d     libvcruntime:exsup.obj
 0001:00010031       ___vcrt_FlsAlloc           10011031 f   libvcruntime:winapi_downlevel.obj
 0001:0001006c       ___vcrt_FlsFree            1001106c f   libvcruntime:winapi_downlevel.obj
 0001:000100a7       ___vcrt_FlsGetValue        100110a7 f   libvcruntime:winapi_downlevel.obj
 0001:000100e2       ___vcrt_FlsSetValue        100110e2 f   libvcruntime:winapi_downlevel.obj
 0001:00010120       ___vcrt_InitializeCriticalSectionEx 10011120 f   libvcruntime:winapi_downlevel.obj
 0001:00010167       _unexpected                10011167 f   libvcruntime:unexpected.obj
 0001:00010184       ?GetCurrentState@__FrameHandler3@@SAHPAUEHRegistrationNode@@PAXPBU_s_FuncInfo@@@Z 10011184 f   libvcruntime:ehstate.obj
 0001:000101a1       ?SetState@__FrameHandler3@@SAXPAUEHRegistrationNode@@PBU_s_FuncInfo@@H@Z 100111a1 f   libvcruntime:ehstate.obj
 0001:000101af       _free                      100111af f   libucrt:free.obj
 0001:000101ca       ___acrt_call_reportfault   100111ca f   libucrt:invalid_parameter.obj
 0001:00010303       ___acrt_initialize_invalid_parameter_handler 10011303 f   libucrt:invalid_parameter.obj
 0001:00010312       __invalid_parameter        10011312 f   libucrt:invalid_parameter.obj
 0001:00010376       __invalid_parameter_noinfo 10011376 f   libucrt:invalid_parameter.obj
 0001:00010386       __invoke_watson            10011386 f   libucrt:invalid_parameter.obj
 0001:000103ba       ___acrt_errno_from_os_error 100113ba f   libucrt:errno.obj
 0001:000103fd       ___acrt_errno_map_os_error 100113fd f   libucrt:errno.obj
 0001:00010420       ___doserrno                10011420 f   libucrt:errno.obj
 0001:00010433       __errno                    10011433 f   libucrt:errno.obj
 0001:00010446       _calloc                    10011446 f   libucrt:calloc.obj
 0001:00010451       _malloc                    10011451 f   libucrt:malloc.obj
 0001:0001045c       __recalloc                 1001145c f   libucrt:recalloc.obj
 0001:00010467       __recalloc_base            10011467 f   libucrt:recalloc.obj
 0001:000104d4       __resetstkoflw             100114d4 f   libucrt:resetstk.obj
 0001:00010599       _wcscat_s                  10011599 f   libucrt:wcscat_s.obj
 0001:0001060e       _wcscpy_s                  1001160e f   libucrt:wcscpy_s.obj
 0001:0001073d       _wcsncpy_s                 1001173d f   libucrt:wcsncpy_s.obj
 0001:00010949       ??$count@D@formatting_buffer@__crt_stdio_output@@QBEIXZ 10011949 f i libucrt:output.obj
 0001:00010961       ??$count@_W@formatting_buffer@__crt_stdio_output@@QBEIXZ 10011961 f i libucrt:output.obj
 0001:0001097a       ??$ensure_buffer_is_big_enough@D@formatting_buffer@__crt_stdio_output@@QAE_NI@Z 1001197a f i libucrt:output.obj
 0001:000109f7       ??$ensure_buffer_is_big_enough@_W@formatting_buffer@__crt_stdio_output@@QAE_NI@Z 100119f7 f i libucrt:output.obj
 0001:00010a75       ??$is_wide_character_specifier@_W@__crt_stdio_output@@YA_N_K_WW4length_modifier@0@@Z 10011a75 f i libucrt:output.obj
 0001:00010ac3       ??$scratch_data@D@formatting_buffer@__crt_stdio_output@@QAEPADXZ 10011ac3 f i libucrt:output.obj
 0001:00010ae1       ??$type_case_integer_parse_into_buffer@I@?$output_processor@_WV?$string_output_adapter@_W@__crt_stdio_output@@V?$format_validation_base@_WV?$string_output_adapter@_W@__crt_stdio_output@@@2@@__crt_stdio_output@@AAEXII_N@Z 10011ae1 f i libucrt:output.obj
 0001:00010b68       ??$type_case_integer_parse_into_buffer@_K@?$output_processor@_WV?$string_output_adapter@_W@__crt_stdio_output@@V?$format_validation_base@_WV?$string_output_adapter@_W@__crt_stdio_output@@@2@@__crt_stdio_output@@AAEX_KI_N@Z 10011b68 f i libucrt:output.obj
 0001:00010c0a       ??$write_multiple_characters@V?$string_output_adapter@_W@__crt_stdio_output@@D@__crt_stdio_output@@YAXABV?$string_output_adapter@_W@0@DHQAH@Z 10011c0a f i libucrt:output.obj
 0001:00010c3b       ??0?$common_data@_W@__crt_stdio_output@@IAE@XZ 10011c3b f i libucrt:output.obj
 0001:00010c85       ??0?$output_adapter_data@_WV?$string_output_adapter@_W@__crt_stdio_output@@@__crt_stdio_output@@IAE@ABV?$string_output_adapter@_W@1@_KQB_WQAU__crt_locale_pointers@@QAD@Z 10011c85 f i libucrt:output.obj
 0001:00010cc1       ??0_LocaleUpdate@@QAE@QAU__crt_locale_pointers@@@Z 10011cc1 f i libucrt:output.obj
 0001:00010d44       ??1formatting_buffer@__crt_stdio_output@@QAE@XZ 10011d44 f i libucrt:output.obj
 0001:00010d5e       ??4?$__crt_unique_heap_ptr@DU__crt_internal_free_policy@@@@QAEAAV0@$$QAV0@@Z 10011d5e f i libucrt:output.obj
 0001:00010d90       ?crop_zeroes@__crt_stdio_output@@YAXPADQAU__crt_locale_pointers@@@Z 10011d90 f i libucrt:output.obj
 0001:00010e11       ?find_next_state@?$output_processor@_WV?$string_output_adapter@_W@__crt_stdio_output@@V?$format_validation_base@_WV?$string_output_adapter@_W@__crt_stdio_output@@@2@@__crt_stdio_output@@ABE?AW4state@2@_WW432@@Z 10011e11 f i libucrt:output.obj
 0001:00010e50       ?force_decimal_point@__crt_stdio_output@@YAXPADQAU__crt_locale_pointers@@@Z 10011e50 f i libucrt:output.obj
 0001:00010eb5       ?parse_int_from_format_string@?$output_processor@_WV?$string_output_adapter@_W@__crt_stdio_output@@V?$format_validation_base@_WV?$string_output_adapter@_W@__crt_stdio_output@@@2@@__crt_stdio_output@@AAE_NQAH@Z 10011eb5 f i libucrt:output.obj
 0001:00010f2b       ?process@?$output_processor@_WV?$string_output_adapter@_W@__crt_stdio_output@@V?$format_validation_base@_WV?$string_output_adapter@_W@__crt_stdio_output@@@2@@__crt_stdio_output@@QAEHXZ 10011f2b f i libucrt:output.obj
 0001:00011053       ?state_case_flag@?$output_processor@_WV?$string_output_adapter@_W@__crt_stdio_output@@V?$format_validation_base@_WV?$string_output_adapter@_W@__crt_stdio_output@@@2@@__crt_stdio_output@@AAE_NXZ 10012053 f i libucrt:output.obj
 0001:00011090       ?state_case_normal@?$output_processor@_WV?$string_output_adapter@_W@__crt_stdio_output@@V?$format_validation_base@_WV?$string_output_adapter@_W@__crt_stdio_output@@@2@@__crt_stdio_output@@AAE_NXZ 10012090 f i libucrt:output.obj
 0001:000110af       ?state_case_normal_common@?$output_processor@_WV?$string_output_adapter@_W@__crt_stdio_output@@V?$format_validation_base@_WV?$string_output_adapter@_W@__crt_stdio_output@@@2@@__crt_stdio_output@@AAE_NXZ 100120af f i libucrt:output.obj
 0001:000110ca       ?state_case_precision@?$output_processor@_WV?$string_output_adapter@_W@__crt_stdio_output@@V?$format_validation_base@_WV?$string_output_adapter@_W@__crt_stdio_output@@@2@@__crt_stdio_output@@AAE_NXZ 100120ca f i libucrt:output.obj
 0001:000110f1       ?state_case_size@?$output_processor@_WV?$string_output_adapter@_W@__crt_stdio_output@@V?$format_validation_base@_WV?$string_output_adapter@_W@__crt_stdio_output@@@2@@__crt_stdio_output@@AAE_NXZ 100120f1 f i libucrt:output.obj
 0001:00011269       ?state_case_type@?$output_processor@_WV?$string_output_adapter@_W@__crt_stdio_output@@V?$format_validation_base@_WV?$string_output_adapter@_W@__crt_stdio_output@@@2@@__crt_stdio_output@@AAE_NXZ 10012269 f i libucrt:output.obj
 0001:000114c6       ?state_case_width@?$output_processor@_WV?$string_output_adapter@_W@__crt_stdio_output@@V?$format_validation_base@_WV?$string_output_adapter@_W@__crt_stdio_output@@@2@@__crt_stdio_output@@AAE_NXZ 100124c6 f i libucrt:output.obj
 0001:00011500       ?to_integer_size@__crt_stdio_output@@YAIW4length_modifier@1@@Z 10012500 f i libucrt:output.obj
 0001:0001155c       ?type_case_Z@?$output_processor@_WV?$string_output_adapter@_W@__crt_stdio_output@@V?$format_validation_base@_WV?$string_output_adapter@_W@__crt_stdio_output@@@2@@__crt_stdio_output@@AAE_NXZ 1001255c f i libucrt:output.obj
 0001:000115b6       ?type_case_a@?$output_processor@_WV?$string_output_adapter@_W@__crt_stdio_output@@V?$format_validation_base@_WV?$string_output_adapter@_W@__crt_stdio_output@@@2@@__crt_stdio_output@@AAE_NXZ 100125b6 f i libucrt:output.obj
 0001:0001171d       ?type_case_c_tchar@?$output_processor@_WV?$string_output_adapter@_W@__crt_stdio_output@@V?$format_validation_base@_WV?$string_output_adapter@_W@__crt_stdio_output@@@2@@__crt_stdio_output@@AAE_N_W@Z 1001271d f i libucrt:output.obj
 0001:000117b3       ?type_case_integer@?$output_processor@_WV?$string_output_adapter@_W@__crt_stdio_output@@V?$format_validation_base@_WV?$string_output_adapter@_W@__crt_stdio_output@@@2@@__crt_stdio_output@@AAE_NI_N@Z 100127b3 f i libucrt:output.obj
 0001:00011908       ?type_case_n@?$output_processor@_WV?$string_output_adapter@_W@__crt_stdio_output@@V?$format_validation_base@_WV?$string_output_adapter@_W@__crt_stdio_output@@@2@@__crt_stdio_output@@AAE_NXZ 10012908 f i libucrt:output.obj
 0001:0001197c       ?type_case_o@?$output_processor@_WV?$string_output_adapter@_W@__crt_stdio_output@@V?$format_validation_base@_WV?$string_output_adapter@_W@__crt_stdio_output@@@2@@__crt_stdio_output@@AAE_NXZ 1001297c f i libucrt:output.obj
 0001:0001199b       ?type_case_p@?$output_processor@_WV?$string_output_adapter@_W@__crt_stdio_output@@V?$format_validation_base@_WV?$string_output_adapter@_W@__crt_stdio_output@@@2@@__crt_stdio_output@@AAE_NXZ 1001299b f i libucrt:output.obj
 0001:000119b3       ?type_case_s@?$output_processor@_WV?$string_output_adapter@_W@__crt_stdio_output@@V?$format_validation_base@_WV?$string_output_adapter@_W@__crt_stdio_output@@@2@@__crt_stdio_output@@AAE_NXZ 100129b3 f i libucrt:output.obj
 0001:00011a26       ?type_case_s_compute_narrow_string_length@?$output_processor@_WV?$string_output_adapter@_W@__crt_stdio_output@@V?$format_validation_base@_WV?$string_output_adapter@_W@__crt_stdio_output@@@2@@__crt_stdio_output@@ABEHH_W@Z 10012a26 f i libucrt:output.obj
 0001:00011a6d       ?validate@?$string_output_adapter@_W@__crt_stdio_output@@QBE_NXZ 10012a6d f i libucrt:output.obj
 0001:00011a6d       ?validate@?$c_string_character_source@_W@__crt_strtox@@QBE_NXZ 10012a6d f i libucrt:atox.obj
 0001:00011a88       ?validate_and_update_state_at_end_of_format_string@?$format_validation_base@_WV?$string_output_adapter@_W@__crt_stdio_output@@@__crt_stdio_output@@IBE_NXZ 10012a88 f i libucrt:output.obj
 0001:00011aaa       ?write_character@?$string_output_adapter@_W@__crt_stdio_output@@QBE_N_WQAH@Z 10012aaa f i libucrt:output.obj
 0001:00011aef       ?write_stored_string_tchar@?$output_processor@_WV?$string_output_adapter@_W@__crt_stdio_output@@V?$format_validation_base@_WV?$string_output_adapter@_W@__crt_stdio_output@@@2@@__crt_stdio_output@@AAE_N_W@Z 10012aef f i libucrt:output.obj
 0001:00011b7c       ?write_string@?$string_output_adapter@_W@__crt_stdio_output@@QBEXQB_WHQAHAAV__crt_deferred_errno_cache@@@Z 10012b7c f i libucrt:output.obj
 0001:00011bed       ___acrt_locale_get_ctype_array_value 10012bed f i libucrt:output.obj
 0001:00011c0f       ___stdio_common_vswprintf_s 10012c0f f   libucrt:output.obj
 0001:00011c33       __seh_filter_dll           10012c33 f   libucrt:exception_filter.obj
 0001:00011c53       __seh_filter_exe           10012c53 f   libucrt:exception_filter.obj
 0001:00012021       ___acrt_initialize_thread_local_exit_callback 10013021 f   libucrt:exit.obj
 0001:00012030       __cexit                    10013030 f   libucrt:exit.obj
 0001:0001203f       __exit                     1001303f f   libucrt:exit.obj
 0001:00012055       __is_c_termination_complete 10013055 f   libucrt:exit.obj
 0001:00012306       ___acrt_allocate_buffer_for_argv 10013306 f   libucrt:argv_parsing.obj
 0001:00012355       __configure_narrow_argv    10013355 f   libucrt:argv_parsing.obj
 0001:000124b2       ??$uninitialize@A6AXAAPAPA_W@Z@?$dual_state_global@PAPA_W@__crt_state_management@@QAEXA6AXAAPAPA_W@Z@Z 100134b2 f i libucrt:environment_initialization.obj
 0001:000124b2       ??$uninitialize@A6AXAAPAPAD@Z@?$dual_state_global@PAPAD@__crt_state_management@@QAEXA6AXAAPAPAD@Z@Z 100134b2 f i libucrt:environment_initialization.obj
 0001:00012511       ___dcrt_uninitialize_environments_nolock 10013511 f   libucrt:environment_initialization.obj
 0001:00012548       __initialize_narrow_environment 10013548 f   libucrt:environment_initialization.obj
 0001:00012603       ??$__crt_fast_encode_pointer@PAX@@YAPAXQAX@Z 10013603 f i libucrt:initialization.obj
 0001:00012603       ??$__crt_fast_encode_pointer@P6AHXZ@@YAP6AHXZQ6AHXZ@Z 10013603 f i libucrt:onexit.obj
 0001:00012603       ??$__crt_fast_encode_pointer@PAP6AXXZ@@YAPAP6AXXZQAP6AXXZ@Z 10013603 f i libucrt:onexit.obj
 0001:00012825       __crt_atexit               10013825 f   libucrt:onexit.obj
 0001:0001283b       __execute_onexit_table     1001383b f   libucrt:onexit.obj
 0001:00012868       __initialize_onexit_table  10013868 f   libucrt:onexit.obj
 0001:00012891       __register_onexit_function 10013891 f   libucrt:onexit.obj
 0001:000128eb       ___acrt_uninitialize_command_line 100138eb f   libucrt:argv_data.obj
 0001:000129c2       ___acrt_initialize         100139c2 f   libucrt:initialization.obj
 0001:000129d4       ___acrt_thread_attach      100139d4 f   libucrt:initialization.obj
 0001:000129df       ___acrt_thread_detach      100139df f   libucrt:initialization.obj
 0001:000129e7       ___acrt_uninitialize       100139e7 f   libucrt:initialization.obj
 0001:00012a17       ___acrt_uninitialize_critical 10013a17 f   libucrt:initialization.obj
 0001:00012a29       __initterm                 10013a29 f   libucrt:initterm.obj
 0001:00012a6e       __initterm_e               10013a6e f   libucrt:initterm.obj
 0001:00012a9c       ___acrt_initialize_new_handler 10013a9c f   libucrt:new_handler.obj
 0001:00012aab       __callnewh                 10013aab f   libucrt:new_handler.obj
 0001:00012ad8       __query_new_handler        10013ad8 f   libucrt:new_handler.obj
 0001:00012b34       _terminate                 10013b34 f   libucrt:terminate.obj
 0001:00012b70       _abort                     10013b70 f   libucrt:abort.obj
 0001:00012bb4       _strcpy_s                  10013bb4 f   libucrt:strcpy_s.obj
 0001:00012c0e       ??$is_overflow_condition@K@__crt_strtox@@YA_NIK@Z 10013c0e f i libucrt:atox.obj
 0001:00012c3f       ??$parse_integer@KV?$c_string_character_source@_W@__crt_strtox@@@__crt_strtox@@YAKQAU__crt_locale_pointers@@V?$c_string_character_source@_W@0@H_N@Z 10013c3f f i libucrt:atox.obj
 0001:00013247       ?unget@?$c_string_character_source@_W@__crt_strtox@@QAEX_W@Z 10014247 f i libucrt:atox.obj
 0001:00013280       _strncmp                   10014280 f   libucrt:strncmp.obj
 0001:000132f8       _wcsncmp                   100142f8 f   libucrt:wcsncmp.obj
 0001:00013332       __free_base                10014332 f   libucrt:free_base.obj
 0001:000136aa       ___acrt_freeptd            100146aa f   libucrt:per_thread_data.obj
 0001:000136d6       ___acrt_getptd             100146d6 f   libucrt:per_thread_data.obj
 0001:00013793       ___acrt_getptd_head        10014793 f   libucrt:per_thread_data.obj
 0001:0001382d       ___acrt_getptd_noexit      1001482d f   libucrt:per_thread_data.obj
 0001:000138e2       ___acrt_initialize_ptd     100148e2 f   libucrt:per_thread_data.obj
 0001:0001390e       ___acrt_uninitialize_ptd   1001490e f   libucrt:per_thread_data.obj
 0001:00013928       __calloc_base              10014928 f   libucrt:calloc_base.obj
 0001:00013985       __malloc_base              10014985 f   libucrt:malloc_base.obj
 0001:000139d3       __msize_base               100149d3 f   libucrt:msize.obj
 0001:00013a06       __realloc_base             10014a06 f   libucrt:realloc_base.obj
 0001:00013c07       ___acrt_AppPolicyGetProcessTerminationMethodInternal@4 10014c07 f   libucrt:winapi_thunks.obj
 0001:00013c47       ___acrt_AreFileApisANSI@0  10014c47 f   libucrt:winapi_thunks.obj
 0001:00013c66       ___acrt_FlsAlloc@4         10014c66 f   libucrt:winapi_thunks.obj
 0001:00013ca5       ___acrt_FlsFree@4          10014ca5 f   libucrt:winapi_thunks.obj
 0001:00013ce4       ___acrt_FlsGetValue@4      10014ce4 f   libucrt:winapi_thunks.obj
 0001:00013d23       ___acrt_FlsSetValue@8      10014d23 f   libucrt:winapi_thunks.obj
 0001:00013d65       ___acrt_InitializeCriticalSectionEx@12 10014d65 f   libucrt:winapi_thunks.obj
 0001:00013db0       ___acrt_LCMapStringEx@36   10014db0 f   libucrt:winapi_thunks.obj
 0001:00013e0d       ___acrt_LocaleNameToLCID@8 10014e0d f   libucrt:winapi_thunks.obj
 0001:00013e3e       ___acrt_SetThreadStackGuarantee@4 10014e3e f   libucrt:winapi_thunks.obj
 0001:00013e79       ___acrt_initialize_winapi_thunks 10014e79 f   libucrt:winapi_thunks.obj
 0001:00013ea4       ___acrt_uninitialize_winapi_thunks 10014ea4 f   libucrt:winapi_thunks.obj
 0001:00013eda       ??$make_c_string_character_source@_WPAPA_W@__crt_strtox@@YA?AV?$c_string_character_source@_W@0@QB_WQAPA_W@Z 10014eda f i libucrt:strtox.obj
 0001:00013ef5       _wcstol                    10014ef5 f   libucrt:strtox.obj
 0001:00013f1f       __mbtowc_l                 10014f1f f   libucrt:mbtowc.obj
 0001:00014061       _mbtowc                    10015061 f   libucrt:mbtowc.obj
 0001:0001407b       _wcsnlen                   1001507b f   libucrt:strnlen.obj
 0001:0001422b       ___acrt_update_locale_info 1001522b f   libucrt:locale_update.obj
 0001:00014258       ___acrt_update_multibyte_info 10015258 f   libucrt:locale_update.obj
 0001:00014285       ?__acrt_fp_classify@@YA?AW4__acrt_fp_class@@ABN@Z 10015285 f i libucrt:cvt.obj
 0001:00014c37       ___acrt_fp_format          10015c37 f   libucrt:cvt.obj
 0001:00014d95       __fileno                   10015d95 f   libucrt:fileno.obj
 0001:00014dbc       ___acrt_initialize_stdio   10015dbc f   libucrt:_file.obj
 0001:00014e84       ___acrt_uninitialize_stdio 10015e84 f   libucrt:_file.obj
 0001:00014ed0       __lock_file                10015ed0 f   libucrt:_file.obj
 0001:00014ee4       __unlock_file              10015ee4 f   libucrt:_file.obj
 0001:00014ef8       __get_printf_count_output  10015ef8 f   libucrt:printf_count_output.obj
 0001:00014f7b       ___acrt_set_locale_changed 10015f7b f   libucrt:wsetlocale.obj
 0001:00014f86       ___acrt_uninitialize_locale 10015f86 f   libucrt:wsetlocale.obj
 0001:00015117       ___acrt_initialize_lowio   10016117 f   libucrt:ioinit.obj
 0001:00015177       ___acrt_uninitialize_lowio 10016177 f   libucrt:ioinit.obj
 0001:000151a3       ___acrt_initialize_locks   100161a3 f   libucrt:locks.obj
 0001:000151e4       ___acrt_lock               100161e4 f   libucrt:locks.obj
 0001:000151fb       ___acrt_uninitialize_locks 100161fb f   libucrt:locks.obj
 0001:0001522c       ___acrt_unlock             1001622c f   libucrt:locks.obj
 0001:00015243       ___acrt_get_process_end_policy 10016243 f   libucrt:win_policies.obj
 0001:0001540d       ??$__acrt_mbs_to_wcs_cp@U__crt_win32_buffer_internal_dynamic_resizing@@@@YAHQBDAAV?$__crt_win32_buffer@_WU__crt_win32_buffer_internal_dynamic_resizing@@@@I@Z 1001640d f i libucrt:argv_wildcards.obj
 0001:00015921       ?__acrt_get_utf8_acp_compatibility_codepage@@YAIXZ 10016921 f i libucrt:argv_wildcards.obj
 0001:00015960       ?_deallocate@?$__crt_win32_buffer@DU__crt_win32_buffer_internal_dynamic_resizing@@@@AAEXXZ 10016960 f i libucrt:argv_wildcards.obj
 0001:00015960       ?_deallocate@?$__crt_win32_buffer@_WU__crt_win32_buffer_internal_dynamic_resizing@@@@AAEXXZ 10016960 f i libucrt:argv_wildcards.obj
 0001:0001597a       ?allocate@?$__crt_win32_buffer@DU__crt_win32_buffer_internal_dynamic_resizing@@@@QAEHI@Z 1001697a f i libucrt:argv_wildcards.obj
 0001:000159b6       ?allocate@?$__crt_win32_buffer@_WU__crt_win32_buffer_internal_dynamic_resizing@@@@QAEHI@Z 100169b6 f i libucrt:argv_wildcards.obj
 0001:000159f5       ?allocate@__crt_win32_buffer_internal_dynamic_resizing@@SAHQAPAXIABV__crt_win32_buffer_empty_debug_info@@@Z 100169f5 f i libucrt:argv_wildcards.obj
 0001:00015a9b       ___acrt_expand_narrow_argv_wildcards 10016a9b f   libucrt:argv_wildcards.obj
 0001:00015b6d       ?allocate@?$__crt_win32_buffer@DU__crt_win32_buffer_no_resizing@@@@QAEHI@Z 10016b6d f i libucrt:getmodulefilenamea.obj
 0001:00015b94       ?set_to_nullptr@?$__crt_win32_buffer@DU__crt_win32_buffer_no_resizing@@@@QAEXXZ 10016b94 f i libucrt:getmodulefilenamea.obj
 0001:00015ba8       ___acrt_GetModuleFileNameA 10016ba8 f   libucrt:getmodulefilenamea.obj
 0001:00016161       ___acrt_initialize_multibyte 10017161 f   libucrt:mbctype.obj
 0001:000161a9       ___acrt_update_thread_multibyte_data 100171a9 f   libucrt:mbctype.obj
 0001:000161bc       __setmbcp_nolock           100171bc f   libucrt:mbctype.obj
 0001:00016487       __ismbblead                10017487 f   libucrt:ismbbyte.obj
 0001:0001649f       ___acrt_initialize_command_line 1001749f f   libucrt:argv_data.obj
 0001:000164b8       ___acrt_MultiByteToWideChar 100174b8 f   libucrt:multibytetowidechar.obj
 0001:00016534       ___acrt_WideCharToMultiByte 10017534 f   libucrt:widechartomultibyte.obj
 0001:00016622       ___dcrt_get_narrow_environment_from_os 10017622 f   libucrt:get_environment_from_os.obj
 0001:000166a6       ___acrt_initialize_heap    100176a6 f   libucrt:heap_handle.obj
 0001:000166b7       ___acrt_uninitialize_heap  100176b7 f   libucrt:heap_handle.obj
 0001:000166c1       ___acrt_execute_initializers 100176c1 f   libucrt:shared_initialization.obj
 0001:00016729       ___acrt_execute_uninitializers 10017729 f   libucrt:shared_initialization.obj
 0001:00016828       ___acrt_get_sigabrt_handler 10017828 f   libucrt:signal.obj
 0001:0001684f       ___acrt_initialize_signal_handlers 1001784f f   libucrt:signal.obj
 0001:0001686d       _raise                     1001786d f   libucrt:signal.obj
 0001:00016a60       ___acrt_has_user_matherr   10017a60 f   libucrt:matherr.obj
 0001:00016a78       ___acrt_initialize_user_matherr 10017a78 f   libucrt:matherr.obj
 0001:00016a87       ___acrt_invoke_user_matherr 10017a87 f   libucrt:matherr.obj
 0001:00016c96       ___acrt_stdio_flush_nolock 10017c96 f   libucrt:fflush.obj
 0001:00016cfb       __fflush_nolock            10017cfb f   libucrt:fflush.obj
 0001:00016d43       __flushall                 10017d43 f   libucrt:fflush.obj
 0001:00016d4c       ___pctype_func             10017d4c f   libucrt:ctype.obj
 0001:00016d70       _iswctype                  10017d70 f   libucrt:iswctype.obj
 0001:00016dd9       ___acrt_add_locale_ref     10017dd9 f   libucrt:locale_refcounting.obj
 0001:00016e56       ___acrt_free_locale        10017e56 f   libucrt:locale_refcounting.obj
 0001:00016f9e       ___acrt_locale_add_lc_time_reference 10017f9e f   libucrt:locale_refcounting.obj
 0001:00016fc7       ___acrt_locale_free_lc_time_if_unreferenced 10017fc7 f   libucrt:locale_refcounting.obj
 0001:00016ff8       ___acrt_locale_release_lc_time_reference 10017ff8 f   libucrt:locale_refcounting.obj
 0001:00017021       ___acrt_release_locale_ref 10018021 f   libucrt:locale_refcounting.obj
 0001:000170a2       ___acrt_update_thread_locale_data 100180a2 f   libucrt:locale_refcounting.obj
 0001:00017123       __updatetlocinfoEx_nolock  10018123 f   libucrt:locale_refcounting.obj
 0001:00017173       __query_new_mode           10018173 f   libucrt:new_mode.obj
 0001:000171ca       ___acrt_DownlevelLocaleNameToLCID 100181ca f   libucrt:lcidtoname_downlevel.obj
 0001:000171f6       __isleadbyte_l             100181f6 f i libucrt:_wctype.obj
 0001:0001725c       ?__mbrtowc_utf8@__crt_mbstring@@YAIPA_WPBDIPAU_Mbstatet@@@Z 1001825c f   libucrt:mbrtowc.obj
 0001:0001729c       ?__mbsrtowcs_utf8@__crt_mbstring@@YAIPA_WPAPBDIPAU_Mbstatet@@@Z 1001829c f   libucrt:mbrtowc.obj
 0001:00017397       ?return_illegal_sequence@__crt_mbstring@@YAIPAU_Mbstatet@@@Z 10018397 f i libucrt:c32rtomb.obj
 0001:00017421       ___acrt_fp_strflt_to_string 10018421 f   libucrt:_fptostr.obj
 0001:00017500       ?divide@__crt_strtox@@YA_KAAUbig_integer@1@ABU21@@Z 10018500 f i libucrt:cfout.obj
 0001:00017998       ___acrt_fltout             10018998 f   libucrt:cfout.obj
 0001:00018e9f       _fegetround                10019e9f f   libucrt:fegetround.obj
 0001:00018eac       __fcloseall                10019eac f   libucrt:closeall.obj
 0001:00018f57       ___acrt_stdio_free_buffer_nolock 10019f57 f   libucrt:_freebuf.obj
 0001:00018f97       __isatty                   10019f97 f   libucrt:isatty.obj
 0001:00018fed       ___acrt_locale_free_monetary 10019fed f   libucrt:initmon.obj
 0001:000190eb       ___acrt_locale_free_numeric 1001a0eb f   libucrt:initnum.obj
 0001:0001918c       ___acrt_locale_free_time   1001a18c f   libucrt:inittime.obj
 0001:00019270       ___acrt_GetStringTypeA     1001a270 f   libucrt:getstringtypea.obj
 0001:00019373       __freea_crt                1001a373 f i libucrt:getstringtypea.obj
 0001:00019393       ___acrt_lowio_create_handle_array 1001a393 f   libucrt:osfinfo.obj
 0001:0001940e       ___acrt_lowio_destroy_handle_array 1001a40e f   libucrt:osfinfo.obj
 0001:00019443       ___acrt_lowio_ensure_fh_exists 1001a443 f   libucrt:osfinfo.obj
 0001:000194e1       ___acrt_lowio_lock_fh      1001a4e1 f   libucrt:osfinfo.obj
 0001:00019504       ___acrt_lowio_unlock_fh    1001a504 f   libucrt:osfinfo.obj
 0001:00019527       __free_osfhnd              1001a527 f   libucrt:osfinfo.obj
 0001:000195b8       __get_osfhandle            1001a5b8 f   libucrt:osfinfo.obj
 0001:00019630       _qsort                     1001a630 f   libucrt:qsort.obj
 0001:00019bd1       _strncpy_s                 1001abd1 f   libucrt:strncpy_s.obj
 0001:00019be0       _strpbrk                   1001abe0 f   libucrt:strpbrk.obj
 0001:00019c20       __mbsdec                   1001ac20 f   libucrt:mbsdec.obj
 0001:00019c37       __mbsdec_l                 1001ac37 f   libucrt:mbsdec.obj
 0001:00019eae       ___acrt_LCMapStringA       1001aeae f   libucrt:lcmapstringa.obj
 0001:00019fa8       __commit                   1001afa8 f   libucrt:commit.obj
 0001:0001a7a0       __write                    1001b7a0 f   libucrt:write.obj
 0001:0001a892       __write_nolock             1001b892 f   libucrt:write.obj
 0001:0001aa6c       ___acrt_GetStringTypeW     1001ba6c f   libucrt:getstringtypew.obj
 0001:0001aa85       ___ascii_wcsnicmp          1001ba85 f   libucrt:wcsnicmp.obj
 0001:0001aad4       ?__mbrtoc32_utf8@__crt_mbstring@@YAIPA_UPBDIPAU_Mbstatet@@@Z 1001bad4 f   libucrt:mbrtoc32.obj
 0001:0001ac7b       __controlfp_s              1001bc7b f   libucrt:contrlfp.obj
 0001:0001acda       _fegetenv                  1001bcda f   libucrt:fegetenv.obj
 0001:0001acf7       _fesetenv                  1001bcf7 f   libucrt:fesetenv.obj
 0001:0001ad42       _feholdexcept              1001bd42 f   libucrt:feholdexcept.obj
 0001:0001ad90       __CIlog10                  1001bd90 f   libucrt:log10_impl.obj
 0001:0001adcb       __CIlog10_default          1001bdcb f   libucrt:log10_impl.obj
 0001:0001addf       __log10_default            1001bddf     libucrt:log10_impl.obj
 0001:0001aea0       _ceil                      1001bea0 f   libucrt:ceil_pentium4.obj
 0001:0001aee0       __ceil_pentium4            1001bee0 f   libucrt:ceil_pentium4.obj
 0001:0001b2da       ___acrt_fenv_get_common_round_control 1001c2da f   libucrt:_fenvutils.obj
 0001:0001b2fc       ___acrt_fenv_get_control   1001c2fc f   libucrt:_fenvutils.obj
 0001:0001b37c       ___acrt_fenv_get_status    1001c37c f   libucrt:_fenvutils.obj
 0001:0001b434       ___acrt_fenv_set_control   1001c434 f   libucrt:_fenvutils.obj
 0001:0001b49c       ___acrt_fenv_set_status    1001c49c f   libucrt:_fenvutils.obj
 0001:0001b60f       __lseeki64_nolock          1001c60f f   libucrt:lseek.obj
 0001:0001b62a       __fclose_nolock            1001c62a f   libucrt:fclose.obj
 0001:0001b6a1       _fclose                    1001c6a1 f   libucrt:fclose.obj
 0001:0001b725       __query_app_type           1001c725 f   libucrt:report_runtime_error.obj
 0001:0001b72b       ___strncnt                 1001c72b f   libucrt:strncnt.obj
 0001:0001b747       __putwch_nolock            1001c747 f   libucrt:putwch.obj
 0001:0001b820       __clearfp                  1001c820 f   libucrt:ieee87.obj
 0001:0001b8fe       __control87                1001c8fe f   libucrt:ieee87.obj
 0001:0001bc9d       ___acrt_initialize_sse2    1001cc9d f   libucrt:mathfcns.obj
 0001:0001bcb0       __CIlog10_pentium4         1001ccb0 f   libucrt:log10_pentium4.obj
 0001:0001bcc8       __log10_pentium4           1001ccc8     libucrt:log10_pentium4.obj
 0001:0001bf60       __fFEXP                    1001cf60 f   libucrt:87tran.obj
 0001:0001bfb7       __rtinfpopse               1001cfb7     libucrt:87tran.obj
 0001:0001bfb9       __rtinfnpopse              1001cfb9     libucrt:87tran.obj
 0001:0001bfc9       __fFLN                     1001cfc9     libucrt:87tran.obj
 0001:0001c07e       __rtinfpop                 1001d07e     libucrt:87tran.obj
 0001:0001c080       __rtinfnpop                1001d080     libucrt:87tran.obj
 0001:0001c090       __rtforexpinf              1001d090 f   libucrt:87tran.obj
 0001:0001c09d       __ffexpm1                  1001d09d     libucrt:87tran.obj
 0001:0001c150       __trandisp1                1001d150 f   libucrt:87disp.obj
 0001:0001c1c5       __trandisp2                1001d1c5 f   libucrt:87disp.obj
 0001:0001c25f       __rttospopde               1001d25f     libucrt:87disp.obj
 0001:0001c264       __rttospop                 1001d264     libucrt:87disp.obj
 0001:0001c270       __rtnospop                 1001d270 f   libucrt:87disp.obj
 0001:0001c280       __rttosnpop                1001d280 f   libucrt:87disp.obj
 0001:0001c281       __rtnospopde               1001d281     libucrt:87disp.obj
 0001:0001c288       __rtzeropop                1001d288     libucrt:87disp.obj
 0001:0001c28a       __rtzeronpop               1001d28a     libucrt:87disp.obj
 0001:0001c290       __rtzerospop               1001d290 f   libucrt:87disp.obj
 0001:0001c29d       __rtonepop                 1001d29d     libucrt:87disp.obj
 0001:0001c2a0       __rtonenpop                1001d2a0 f   libucrt:87disp.obj
 0001:0001c2b0       __tosnan1                  1001d2b0 f   libucrt:87disp.obj
 0001:0001c2e0       __nosnan2                  1001d2e0 f   libucrt:87disp.obj
 0001:0001c2f0       __tosnan2                  1001d2f0 f   libucrt:87disp.obj
 0001:0001c320       __nan2                     1001d320 f   libucrt:87disp.obj
 0001:0001c360       __rtindfpop                1001d360 f   libucrt:87disp.obj
 0001:0001c362       __rtindfnpop               1001d362     libucrt:87disp.obj
 0001:0001c373       __rttosnpopde              1001d373     libucrt:87disp.obj
 0001:0001c380       __rtatan2inf               1001d380 f   libucrt:87disp.obj
 0001:0001c39d       __rtchsifneg               1001d39d     libucrt:87disp.obj
 0001:0001c3b0       __twoToTOS                 1001d3b0 f   libucrt:common.obj
 0001:0001c3c5       __load_CW                  1001d3c5 f   libucrt:common.obj
 0001:0001c3dc       __convertTOStoQNaN         1001d3dc f   libucrt:common.obj
 0001:0001c3f5       __fload_withFB             1001d3f5 f   libucrt:common.obj
 0001:0001c438       __checkTOS_withFB          1001d438 f   libucrt:common.obj
 0001:0001c44e       __fast_exit                1001d44e f   libucrt:common.obj
 0001:0001c45b       __math_exit                1001d45b f   libucrt:common.obj
 0001:0001c485       __check_overflow_exit      1001d485 f   libucrt:common.obj
 0001:0001c499       __check_range_exit         1001d499 f   libucrt:common.obj
 0001:0001c540       __startTwoArgErrorHandling 1001d540 f   libucrt:genexcep.obj
 0001:0001c557       __startOneArgErrorHandling 1001d557 f   libucrt:genexcep.obj
 0001:0001c593       ___libm_error_support      1001d593 f   libucrt:libm_error.obj
 0001:0001c787       __ceil_default             1001d787 f   libucrt:ceil.obj
 0001:0001c8c8       __close                    1001d8c8 f   libucrt:close.obj
 0001:0001c955       __close_nolock             1001d955 f   libucrt:close.obj
 0001:0001c9f1       ?__acrt_stdio_free_stream@@YAXV__crt_stdio_stream@@@Z 1001d9f1 f   libucrt:stream.obj
 0001:0001ca30       ___ascii_strnicmp          1001da30 f   libucrt:_strnicm.obj
 0001:0001cab0       ___dcrt_lowio_ensure_console_output_initialized 1001dab0 f   libucrt:initcon.obj
 0001:0001cacf       ___dcrt_terminate_console_output 1001dacf f   libucrt:initcon.obj
 0001:0001cae6       ___dcrt_write_console      1001dae6 f   libucrt:initcon.obj
 0001:0001cb3b       ___set_fpsr_sse2           1001db3b f   libucrt:fpctrl.obj
 0001:0001cbbb       __clrfp                    1001dbbb f   libucrt:fpctrl.obj
 0001:0001cbcc       __ctrlfp                   1001dbcc f   libucrt:fpctrl.obj
 0001:0001cbf6       __set_statfp               1001dbf6 f   libucrt:fpctrl.obj
 0001:0001cc4f       __statfp                   1001dc4f f   libucrt:fpctrl.obj
 0001:0001cc5f       __d_inttype                1001dc5f f   libucrt:powhlp.obj
 0001:0001ccc7       __powhlp                   1001dcc7 f   libucrt:powhlp.obj
 0001:0001cdf2       __87except                 1001ddf2 f   libucrt:87except.obj
 0001:0001cefc       __frnd                     1001defc f   libucrt:frnd.obj
 0001:0001cf10       __errcode                  1001df10 f   libucrt:fpexcept.obj
 0001:0001cf44       __except1                  1001df44 f   libucrt:fpexcept.obj
 0001:0001d012       __handle_exc               1001e012 f   libucrt:fpexcept.obj
 0001:0001d1fd       __raise_exc                1001e1fd f   libucrt:fpexcept.obj
 0001:0001d220       __raise_exc_ex             1001e220 f   libucrt:fpexcept.obj
 0001:0001d516       __set_errno_from_matherr   1001e516 f   libucrt:fpexcept.obj
 0001:0001d545       __umatherr                 1001e545 f   libucrt:fpexcept.obj
 0001:0001d5e5       __decomp                   1001e5e5 f   libucrt:util.obj
 0001:0001d6b7       __set_exp                  1001e6b7 f   libucrt:util.obj
 0001:0001d6e4       __sptype                   1001e6e4 f   libucrt:util.obj
 0001:0001d742       __fpclass                  1001e742 f   libucrt:ieeemisc.obj
 0001:0001d7e6       _IsProcessorFeaturePresent@4 1001e7e6 f   kernel32:KERNEL32.dll
 0001:0001d7f0       __FindPESection            1001e7f0 f   LIBCMT:pesect.obj
 0001:0001d840       __IsNonwritableInCurrentImage 1001e840 f   LIBCMT:pesect.obj
 0001:0001d900       __ValidateImageBase        1001e900 f   LIBCMT:pesect.obj
 0001:0001d933       __EH_prolog3_catch         1001e933 f   LIBCMT:ehprolg3.obj
 0001:0001d970       __aulldvrm                 1001e970 f   LIBCMT:ulldvrm.obj
 0001:0001da10       __allmul                   1001ea10 f   LIBCMT:llmul.obj
 0001:0001da50       __alldvrm                  1001ea50 f   LIBCMT:lldvrm.obj
 0001:0001db30       __allshl                   1001eb30 f   LIBCMT:llshl.obj
 0001:0001db50       __aullshr                  1001eb50 f   LIBCMT:ullshr.obj
 0001:0001db70       __ftoi2                    1001eb70 f   LIBCMT:ftol2.obj
 0001:0001db70       __ftol2_sse_excpt          1001eb70     LIBCMT:ftol2.obj
 0001:0001db70       __ftol2_sse                1001eb70     LIBCMT:ftol2.obj
 0001:0001dbf0       __ftoui2                   1001ebf0 f   LIBCMT:ftol2.obj
 0001:0001dca0       __ftol2                    1001eca0 f   LIBCMT:ftol2.obj
 0001:0001dd50       __ftoul2                   1001ed50 f   LIBCMT:ftol2.obj
 0001:0001de10       _strrchr                   1001ee10 f   libvcruntime:strrchr.obj
 0001:0001df50       _strchr                    1001ef50 f   libvcruntime:strchr.obj
 0001:0001dfbe       ___from_strstr_to_strchr   1001efbe     libvcruntime:strchr.obj
 0001:0001e07b       __filter_x86_sse2_floating_point_exception 1001f07b f   LIBCMT:x86_exception_filter.obj
 0001:0001e07b       __filter_x86_sse2_floating_point_exception_default 1001f07b f   LIBCMT:x86_exception_filter.obj
 0002:00000000       __imp__RegQueryValueExW@24 10020000     advapi32:ADVAPI32.dll
 0002:00000004       __imp__RegSetValueExW@24   10020004     advapi32:ADVAPI32.dll
 0002:00000008       __imp__RegQueryInfoKeyW@48 10020008     advapi32:ADVAPI32.dll
 0002:0000000c       __imp__RegOpenKeyExW@20    1002000c     advapi32:ADVAPI32.dll
 0002:00000010       __imp__RegEnumKeyExW@32    10020010     advapi32:ADVAPI32.dll
 0002:00000014       __imp__RegDeleteValueW@8   10020014     advapi32:ADVAPI32.dll
 0002:00000018       __imp__RegDeleteKeyW@8     10020018     advapi32:ADVAPI32.dll
 0002:0000001c       __imp__RegCreateKeyExW@36  1002001c     advapi32:ADVAPI32.dll
 0002:00000020       __imp__RegCloseKey@4       10020020     advapi32:ADVAPI32.dll
 0002:00000024       \177ADVAPI32_NULL_THUNK_DATA 10020024     advapi32:ADVAPI32.dll
 0002:00000028       __imp__GetObjectW@12       10020028     gdi32:GDI32.dll
 0002:0000002c       __imp__SelectObject@8      1002002c     gdi32:GDI32.dll
 0002:00000030       __imp__DeleteObject@4      10020030     gdi32:GDI32.dll
 0002:00000034       __imp__CreateCompatibleDC@4 10020034     gdi32:GDI32.dll
 0002:00000038       __imp__BitBlt@36           10020038     gdi32:GDI32.dll
 0002:0000003c       __imp__SetWindowOrgEx@16   1002003c     gdi32:GDI32.dll
 0002:00000040       __imp__SetWindowExtEx@16   10020040     gdi32:GDI32.dll
 0002:00000044       __imp__SetViewportOrgEx@16 10020044     gdi32:GDI32.dll
 0002:00000048       __imp__LPtoDP@12           10020048     gdi32:GDI32.dll
 0002:0000004c       __imp__SetMapMode@8        1002004c     gdi32:GDI32.dll
 0002:00000050       __imp__SaveDC@4            10020050     gdi32:GDI32.dll
 0002:00000054       __imp__RestoreDC@8         10020054     gdi32:GDI32.dll
 0002:00000058       __imp__GetDeviceCaps@8     10020058     gdi32:GDI32.dll
 0002:0000005c       __imp__DeleteMetaFile@4    1002005c     gdi32:GDI32.dll
 0002:00000060       __imp__DeleteDC@4          10020060     gdi32:GDI32.dll
 0002:00000064       __imp__CreateRectRgnIndirect@4 10020064     gdi32:GDI32.dll
 0002:00000068       __imp__CreateMetaFileW@4   10020068     gdi32:GDI32.dll
 0002:0000006c       __imp__CreateDCW@16        1002006c     gdi32:GDI32.dll
 0002:00000070       __imp__CloseMetaFile@4     10020070     gdi32:GDI32.dll
 0002:00000074       \177GDI32_NULL_THUNK_DATA  10020074     gdi32:GDI32.dll
 0002:00000078       __imp__CloseHandle@4       10020078     kernel32:KERNEL32.dll
 0002:0000007c       __imp__SetEvent@4          1002007c     kernel32:KERNEL32.dll
 0002:00000080       __imp__CreateMutexW@12     10020080     kernel32:KERNEL32.dll
 0002:00000084       __imp__CreateEventW@16     10020084     kernel32:KERNEL32.dll
 0002:00000088       __imp__GetCurrentProcessId@0 10020088     kernel32:KERNEL32.dll
 0002:0000008c       __imp__CreateFileW@28      1002008c     kernel32:KERNEL32.dll
 0002:00000090       __imp__GetConsoleMode@8    10020090     kernel32:KERNEL32.dll
 0002:00000094       __imp__GetConsoleOutputCP@0 10020094     kernel32:KERNEL32.dll
 0002:00000098       __imp__WriteFile@20        10020098     kernel32:KERNEL32.dll
 0002:0000009c       __imp__FlushFileBuffers@4  1002009c     kernel32:KERNEL32.dll
 0002:000000a0       __imp__SetStdHandle@8      100200a0     kernel32:KERNEL32.dll
 0002:000000a4       __imp__GetStringTypeW@16   100200a4     kernel32:KERNEL32.dll
 0002:000000a8       __imp__SetFilePointerEx@20 100200a8     kernel32:KERNEL32.dll
 0002:000000ac       __imp__FreeEnvironmentStringsW@4 100200ac     kernel32:KERNEL32.dll
 0002:000000b0       __imp__GetEnvironmentStringsW@0 100200b0     kernel32:KERNEL32.dll
 0002:000000b4       __imp__lstrcmpiW@8         100200b4     kernel32:KERNEL32.dll
 0002:000000b8       __imp__GetCommandLineA@0   100200b8     kernel32:KERNEL32.dll
 0002:000000bc       __imp__GetCPInfo@8         100200bc     kernel32:KERNEL32.dll
 0002:000000c0       __imp__GetOEMCP@0          100200c0     kernel32:KERNEL32.dll
 0002:000000c4       __imp__GetACP@0            100200c4     kernel32:KERNEL32.dll
 0002:000000c8       __imp__IsValidCodePage@4   100200c8     kernel32:KERNEL32.dll
 0002:000000cc       __imp__FindNextFileW@8     100200cc     kernel32:KERNEL32.dll
 0002:000000d0       __imp__FindFirstFileExW@24 100200d0     kernel32:KERNEL32.dll
 0002:000000d4       __imp__FindClose@4         100200d4     kernel32:KERNEL32.dll
 0002:000000d8       __imp__GetFileType@4       100200d8     kernel32:KERNEL32.dll
 0002:000000dc       __imp__GetStdHandle@4      100200dc     kernel32:KERNEL32.dll
 0002:000000e0       __imp__LCMapStringW@24     100200e0     kernel32:KERNEL32.dll
 0002:000000e4       __imp__HeapReAlloc@16      100200e4     kernel32:KERNEL32.dll
 0002:000000e8       __imp__HeapSize@12         100200e8     kernel32:KERNEL32.dll
 0002:000000ec       __imp__MulDiv@12           100200ec     kernel32:KERNEL32.dll
 0002:000000f0       __imp__GlobalLock@4        100200f0     kernel32:KERNEL32.dll
 0002:000000f4       __imp__GlobalUnlock@4      100200f4     kernel32:KERNEL32.dll
 0002:000000f8       __imp__GlobalAlloc@8       100200f8     kernel32:KERNEL32.dll
 0002:000000fc       __imp__FindResourceW@12    100200fc     kernel32:KERNEL32.dll
 0002:00000100       __imp__SizeofResource@8    10020100     kernel32:KERNEL32.dll
 0002:00000104       __imp__LoadResource@8      10020104     kernel32:KERNEL32.dll
 0002:00000108       __imp__LoadLibraryExW@12   10020108     kernel32:KERNEL32.dll
 0002:0000010c       __imp__GetProcAddress@8    1002010c     kernel32:KERNEL32.dll
 0002:00000110       __imp__GetModuleHandleW@4  10020110     kernel32:KERNEL32.dll
 0002:00000114       __imp__GetModuleFileNameW@12 10020114     kernel32:KERNEL32.dll
 0002:00000118       __imp__FreeLibrary@4       10020118     kernel32:KERNEL32.dll
 0002:0000011c       __imp__DisableThreadLibraryCalls@4 1002011c     kernel32:KERNEL32.dll
 0002:00000120       __imp__GetCurrentThreadId@0 10020120     kernel32:KERNEL32.dll
 0002:00000124       __imp__Sleep@4             10020124     kernel32:KERNEL32.dll
 0002:00000128       __imp__WaitForSingleObject@8 10020128     kernel32:KERNEL32.dll
 0002:0000012c       __imp__ReleaseMutex@4      1002012c     kernel32:KERNEL32.dll
 0002:00000130       __imp__ResetEvent@4        10020130     kernel32:KERNEL32.dll
 0002:00000134       __imp__EnterCriticalSection@4 10020134     kernel32:KERNEL32.dll
 0002:00000138       __imp__LeaveCriticalSection@4 10020138     kernel32:KERNEL32.dll
 0002:0000013c       __imp__SetLastError@4      1002013c     kernel32:KERNEL32.dll
 0002:00000140       __imp__EncodePointer@4     10020140     kernel32:KERNEL32.dll
 0002:00000144       __imp__DeleteCriticalSection@4 10020144     kernel32:KERNEL32.dll
 0002:00000148       __imp__InitializeCriticalSectionEx@12 10020148     kernel32:KERNEL32.dll
 0002:0000014c       __imp__GetLastError@0      1002014c     kernel32:KERNEL32.dll
 0002:00000150       __imp__RaiseException@16   10020150     kernel32:KERNEL32.dll
 0002:00000154       __imp__DecodePointer@4     10020154     kernel32:KERNEL32.dll
 0002:00000158       __imp__WideCharToMultiByte@32 10020158     kernel32:KERNEL32.dll
 0002:0000015c       __imp__GetCommandLineW@0   1002015c     kernel32:KERNEL32.dll
 0002:00000160       __imp__MultiByteToWideChar@24 10020160     kernel32:KERNEL32.dll
 0002:00000164       __imp__WriteConsoleW@20    10020164     kernel32:KERNEL32.dll
 0002:00000168       __imp__GetModuleHandleExW@12 10020168     kernel32:KERNEL32.dll
 0002:0000016c       __imp__ExitProcess@4       1002016c     kernel32:KERNEL32.dll
 0002:00000170       __imp__VirtualQuery@12     10020170     kernel32:KERNEL32.dll
 0002:00000174       __imp__VirtualProtect@16   10020174     kernel32:KERNEL32.dll
 0002:00000178       __imp__GetSystemInfo@4     10020178     kernel32:KERNEL32.dll
 0002:0000017c       __imp__TlsFree@4           1002017c     kernel32:KERNEL32.dll
 0002:00000180       __imp__TlsSetValue@8       10020180     kernel32:KERNEL32.dll
 0002:00000184       __imp__TlsGetValue@4       10020184     kernel32:KERNEL32.dll
 0002:00000188       __imp__TlsAlloc@0          10020188     kernel32:KERNEL32.dll
 0002:0000018c       __imp__InterlockedFlushSList@4 1002018c     kernel32:KERNEL32.dll
 0002:00000190       __imp__RtlUnwind@16        10020190     kernel32:KERNEL32.dll
 0002:00000194       __imp__LoadLibraryExA@12   10020194     kernel32:KERNEL32.dll
 0002:00000198       __imp__VirtualFree@12      10020198     kernel32:KERNEL32.dll
 0002:0000019c       __imp__VirtualAlloc@16     1002019c     kernel32:KERNEL32.dll
 0002:000001a0       __imp__FlushInstructionCache@12 100201a0     kernel32:KERNEL32.dll
 0002:000001a4       __imp__InterlockedPushEntrySList@8 100201a4     kernel32:KERNEL32.dll
 0002:000001a8       __imp__InterlockedPopEntrySList@4 100201a8     kernel32:KERNEL32.dll
 0002:000001ac       __imp__GetProcessHeap@0    100201ac     kernel32:KERNEL32.dll
 0002:000001b0       __imp__HeapFree@12         100201b0     kernel32:KERNEL32.dll
 0002:000001b4       __imp__HeapAlloc@12        100201b4     kernel32:KERNEL32.dll
 0002:000001b8       __imp__OutputDebugStringW@4 100201b8     kernel32:KERNEL32.dll
 0002:000001bc       __imp__InitializeSListHead@4 100201bc     kernel32:KERNEL32.dll
 0002:000001c0       __imp__GetSystemTimeAsFileTime@4 100201c0     kernel32:KERNEL32.dll
 0002:000001c4       __imp__QueryPerformanceCounter@4 100201c4     kernel32:KERNEL32.dll
 0002:000001c8       __imp__GetStartupInfoW@4   100201c8     kernel32:KERNEL32.dll
 0002:000001cc       __imp__IsDebuggerPresent@0 100201cc     kernel32:KERNEL32.dll
 0002:000001d0       __imp__IsProcessorFeaturePresent@4 100201d0     kernel32:KERNEL32.dll
 0002:000001d4       __imp__TerminateProcess@8  100201d4     kernel32:KERNEL32.dll
 0002:000001d8       __imp__GetCurrentProcess@0 100201d8     kernel32:KERNEL32.dll
 0002:000001dc       __imp__SetUnhandledExceptionFilter@4 100201dc     kernel32:KERNEL32.dll
 0002:000001e0       __imp__UnhandledExceptionFilter@4 100201e0     kernel32:KERNEL32.dll
 0002:000001e4       __imp__InitializeCriticalSectionAndSpinCount@8 100201e4     kernel32:KERNEL32.dll
 0002:000001e8       __imp__WaitForSingleObjectEx@12 100201e8     kernel32:KERNEL32.dll
 0002:000001ec       \177KERNEL32_NULL_THUNK_DATA 100201ec     kernel32:KERNEL32.dll
 0002:000001f0       __imp__OleCreatePropertyFrame@44 100201f0     oleaut32:OLEAUT32.dll
 0002:000001f4       __imp__UnRegisterTypeLib@20 100201f4     oleaut32:OLEAUT32.dll
 0002:000001f8       __imp__RegisterTypeLib@12  100201f8     oleaut32:OLEAUT32.dll
 0002:000001fc       __imp__LoadRegTypeLib@20   100201fc     oleaut32:OLEAUT32.dll
 0002:00000200       __imp__LoadTypeLib@8       10020200     oleaut32:OLEAUT32.dll
 0002:00000204       __imp__VarUI4FromStr@16    10020204     oleaut32:OLEAUT32.dll
 0002:00000208       __imp__VariantInit@4       10020208     oleaut32:OLEAUT32.dll
 0002:0000020c       __imp__SysAllocStringByteLen@8 1002020c     oleaut32:OLEAUT32.dll
 0002:00000210       __imp__SysStringByteLen@4  10020210     oleaut32:OLEAUT32.dll
 0002:00000214       __imp__VariantChangeType@16 10020214     oleaut32:OLEAUT32.dll
 0002:00000218       __imp__VariantClear@4      10020218     oleaut32:OLEAUT32.dll
 0002:0000021c       __imp__SysStringLen@4      1002021c     oleaut32:OLEAUT32.dll
 0002:00000220       __imp__SysFreeString@4     10020220     oleaut32:OLEAUT32.dll
 0002:00000224       __imp__SysAllocStringLen@8 10020224     oleaut32:OLEAUT32.dll
 0002:00000228       __imp__SysAllocString@4    10020228     oleaut32:OLEAUT32.dll
 0002:0000022c       \177OLEAUT32_NULL_THUNK_DATA 1002022c     oleaut32:OLEAUT32.dll
 0002:00000230       __imp__UnregisterClassW@8  10020230     user32:USER32.dll
 0002:00000234       __imp__PostMessageW@16     10020234     user32:USER32.dll
 0002:00000238       __imp__DefWindowProcW@16   10020238     user32:USER32.dll
 0002:0000023c       __imp__CallWindowProcW@20  1002023c     user32:USER32.dll
 0002:00000240       __imp__RegisterClassExW@4  10020240     user32:USER32.dll
 0002:00000244       __imp__GetClassInfoExW@12  10020244     user32:USER32.dll
 0002:00000248       __imp__CreateWindowExW@48  10020248     user32:USER32.dll
 0002:0000024c       __imp__IsWindow@4          1002024c     user32:USER32.dll
 0002:00000250       __imp__IsChild@8           10020250     user32:USER32.dll
 0002:00000254       __imp__DestroyWindow@4     10020254     user32:USER32.dll
 0002:00000258       __imp__ShowWindow@8        10020258     user32:USER32.dll
 0002:0000025c       __imp__SetWindowPos@28     1002025c     user32:USER32.dll
 0002:00000260       __imp__CharNextW@4         10020260     user32:USER32.dll
 0002:00000264       __imp__SetFocus@4          10020264     user32:USER32.dll
 0002:00000268       __imp__LoadBitmapW@8       10020268     user32:USER32.dll
 0002:0000026c       __imp__RegisterClassW@4    1002026c     user32:USER32.dll
 0002:00000270       __imp__PeekMessageW@20     10020270     user32:USER32.dll
 0002:00000274       __imp__LoadCursorW@8       10020274     user32:USER32.dll
 0002:00000278       __imp__GetParent@4         10020278     user32:USER32.dll
 0002:0000027c       __imp__SetWindowLongW@12   1002027c     user32:USER32.dll
 0002:00000280       __imp__GetWindowLongW@8    10020280     user32:USER32.dll
 0002:00000284       __imp__PtInRect@12         10020284     user32:USER32.dll
 0002:00000288       __imp__EqualRect@8         10020288     user32:USER32.dll
 0002:0000028c       __imp__OffsetRect@12       1002028c     user32:USER32.dll
 0002:00000290       __imp__UnionRect@12        10020290     user32:USER32.dll
 0002:00000294       __imp__IntersectRect@12    10020294     user32:USER32.dll
 0002:00000298       __imp__GetClientRect@8     10020298     user32:USER32.dll
 0002:0000029c       __imp__InvalidateRect@12   1002029c     user32:USER32.dll
 0002:000002a0       __imp__SetWindowRgn@12     100202a0     user32:USER32.dll
 0002:000002a4       __imp__EndPaint@8          100202a4     user32:USER32.dll
 0002:000002a8       __imp__BeginPaint@8        100202a8     user32:USER32.dll
 0002:000002ac       __imp__ReleaseDC@8         100202ac     user32:USER32.dll
 0002:000002b0       __imp__GetDC@4             100202b0     user32:USER32.dll
 0002:000002b4       __imp__GetKeyState@4       100202b4     user32:USER32.dll
 0002:000002b8       __imp__GetFocus@0          100202b8     user32:USER32.dll
 0002:000002bc       \177USER32_NULL_THUNK_DATA 100202bc     user32:USER32.dll
 0002:000002c0       __imp__StringFromGUID2@12  100202c0     ole32:ole32.dll
 0002:000002c4       __imp__CoTaskMemAlloc@4    100202c4     ole32:ole32.dll
 0002:000002c8       __imp__CoTaskMemRealloc@8  100202c8     ole32:ole32.dll
 0002:000002cc       __imp__CoTaskMemFree@4     100202cc     ole32:ole32.dll
 0002:000002d0       __imp__ReadClassStm@8      100202d0     ole32:ole32.dll
 0002:000002d4       __imp__WriteClassStm@8     100202d4     ole32:ole32.dll
 0002:000002d8       __imp__CreateDataAdviseHolder@4 100202d8     ole32:ole32.dll
 0002:000002dc       __imp__OleSaveToStream@8   100202dc     ole32:ole32.dll
 0002:000002e0       __imp__CreateOleAdviseHolder@4 100202e0     ole32:ole32.dll
 0002:000002e4       __imp__OleRegGetUserType@12 100202e4     ole32:ole32.dll
 0002:000002e8       __imp__OleRegGetMiscStatus@12 100202e8     ole32:ole32.dll
 0002:000002ec       __imp__OleRegEnumVerbs@8   100202ec     ole32:ole32.dll
 0002:000002f0       __imp__CLSIDFromProgID@8   100202f0     ole32:ole32.dll
 0002:000002f4       __imp__CoCreateInstance@20 100202f4     ole32:ole32.dll
 0002:000002f8       \177ole32_NULL_THUNK_DATA  100202f8     ole32:ole32.dll
 0002:000002fc       ___guard_check_icall_fptr  100202fc     LIBCMT:guard_support.obj
 0002:00000300       ___xc_a                    10020300     LIBCMT:initializers.obj
 0002:00000318       ___xc_z                    10020318     LIBCMT:initializers.obj
 0002:0000031c       ___xi_a                    1002031c     LIBCMT:initializers.obj
 0002:00000324       ___acrt_stdio_initializer  10020324     libucrt:stdio_initializer.obj
 0002:00000328       ___acrt_multibyte_initializer 10020328     libucrt:multibyte_initializer.obj
 0002:0000032c       ___acrt_tran_sse2_initializer 1002032c     libucrt:sse2_initializer.obj
 0002:00000330       ___xi_z                    10020330     LIBCMT:initializers.obj
 0002:00000334       ___xl_a                    10020334     LIBCMT:tlssup.obj
 0002:00000338       ___xl_z                    10020338     LIBCMT:tlssup.obj
 0002:0000033c       ___xp_a                    1002033c     LIBCMT:initializers.obj
 0002:00000340       ___acrt_locale_terminator  10020340     libucrt:locale_initializer.obj
 0002:00000344       ___dcrt_console_output_terminator 10020344     libucrt:console_output_initializer.obj
 0002:00000348       ___acrt_stdio_terminator   10020348     libucrt:stdio_initializer.obj
 0002:0000034c       ___xp_z                    1002034c     LIBCMT:initializers.obj
 0002:00000350       ___xt_a                    10020350     LIBCMT:initializers.obj
 0002:00000354       ___xt_z                    10020354     LIBCMT:initializers.obj
 0002:00000360       ??_C@_13HADIAKP@?$AAS@     10020360     OposVariant.obj
 0002:00000364       ??_C@_13LHMFKAAD@?$AAM@    10020364     OposVariant.obj
 0002:00000368       ??_C@_13MKMNOPIJ@?$AAD@    10020368     OposVariant.obj
 0002:0000036c       ??_C@_13OPKGLAFF@?$AAB@    1002036c     OposVariant.obj
 0002:00000370       ??_C@_17LLMMEOJD@?$AAV?$AAa?$AAl@ 10020370     OposVariant.obj
 0002:00000378       ??_C@_1BI@JFAIJMHL@?$AAF?$AAo?$AAr?$AAc?$AAe?$AAR?$AAe?$AAm?$AAo?$AAv?$AAe@ 10020378     OposVariant.obj
 0002:00000390       ??_C@_1BC@GCKHIPE@?$AAN?$AAo?$AAR?$AAe?$AAm?$AAo?$AAv?$AAe@ 10020390     OposVariant.obj
 0002:000003a4       ??_C@_1O@JDLOHAN@?$AAD?$AAe?$AAl?$AAe?$AAt?$AAe@ 100203a4     OposVariant.obj
 0002:000003b4       ??_C@_11LOCGONAA@@         100203b4     OposVariant.obj
 0002:000003b8       ??_7CComClassFactory@ATL@@6B@ 100203b8     POSKeyboard.obj
 0002:000003d0       ?_entries@?1??_GetEntries@CComClassFactory@ATL@@SGPBU_ATL_INTMAP_ENTRY@3@XZ@4QBU43@B 100203d0     POSKeyboard.obj
 0002:000003e8       __GUID_00000001_0000_0000_c000_000000000046 100203e8     POSKeyboard.obj
 0002:000003f8       _IID_IOPOSPOSKeyboard_1_5  100203f8     POSKeyboard.obj
 0002:00000408       _IID_IOPOSPOSKeyboard_1_8  10020408     POSKeyboard.obj
 0002:00000418       _IID_IOPOSPOSKeyboard_1_9  10020418     POSKeyboard.obj
 0002:00000428       _IID_IOPOSPOSKeyboard      10020428     POSKeyboard.obj
 0002:00000438       _LIBID_OposPOSKeyboard_CCO 10020438     POSKeyboard.obj
 0002:00000448       _DIID__IOPOSPOSKeyboardEvents 10020448     POSKeyboard.obj
 0002:00000458       _CLSID_OPOSPOSKeyboard     10020458     POSKeyboard.obj
 0002:00000468       ??_C@_1BK@BIGILECK@?$AAA?$AAd?$AAv?$AAa?$AAp?$AAi?$AA3?$AA2?$AA?4?$AAd?$AAl?$AAl@ 10020468     POSKeyboard.obj
 0002:00000484       __GUID_00000114_0000_0000_c000_000000000046 10020484     POSKeyboard.obj
 0002:00000494       ??_C@_0BI@MNCFCPFK@RegCreateKeyTransactedW@ 10020494     POSKeyboard.obj
 0002:000004ac       __GUID_b196b287_bab4_101a_b69c_00aa00341d07 100204ac     POSKeyboard.obj
 0002:000004bc       __GUID_b196b285_bab4_101a_b69c_00aa00341d07 100204bc     POSKeyboard.obj
 0002:000004cc       __GUID_a6bc3ac0_dbaa_11ce_9de3_00aa004bb851 100204cc     POSKeyboard.obj
 0002:000004dc       __GUID_0000010c_0000_0000_c000_000000000046 100204dc     POSKeyboard.obj
 0002:000004ec       __GUID_00000146_0000_0000_c000_000000000046 100204ec     POSKeyboard.obj
 0002:00000500       ?_entries@?1??_GetEntries@COPOSPOSKeyboard@@SGPBU_ATL_INTMAP_ENTRY@ATL@@XZ@4QBU34@B 10020500     POSKeyboard.obj
 0002:00000638       __GUID_cf51ed10_62fe_11cf_bf86_00a0c9034836 10020638     POSKeyboard.obj
 0002:00000648       __GUID_0000010a_0000_0000_c000_000000000046 10020648     POSKeyboard.obj
 0002:00000658       __GUID_b196b283_bab4_101a_b69c_00aa00341d07 10020658     POSKeyboard.obj
 0002:00000668       __GUID_cb5bdc81_93c1_11cf_8f20_00805f2cd064 10020668     POSKeyboard.obj
 0002:00000678       ?pPropMap@?1??GetPropertyMap@COPOSPOSKeyboard@@SAPBUATL_PROPMAP_ENTRY@ATL@@XZ@4QBU34@B 10020678     POSKeyboard.obj
 0002:000006e4       ??_C@_17DGDADEHL@?$AA_?$AAc?$AAx@ 100206e4     POSKeyboard.obj
 0002:000006ec       ??_C@_17IOIMFDBO@?$AA_?$AAc?$AAy@ 100206ec     POSKeyboard.obj
 0002:000006f4       ??_7CComModule@ATL@@6B@    100206f4     POSKeyboard.obj
 0002:0000071c       __GUID_922eada0_3424_11cf_b670_00aa004cd6d8 1002071c     POSKeyboard.obj
 0002:0000072c       __GUID_9c2cad80_3424_11cf_b670_00aa004cd6d8 1002072c     POSKeyboard.obj
 0002:0000073c       __GUID_00000119_0000_0000_c000_000000000046 1002073c     POSKeyboard.obj
 0002:0000074c       __GUID_b196b289_bab4_101a_b69c_00aa00341d07 1002074c     POSKeyboard.obj
 0002:0000075c       ??_7?$CComObjectCached@VCComClassFactory@ATL@@@ATL@@6B@ 1002075c     POSKeyboard.obj
 0002:00000774       __GUID_00000000_0000_0000_c000_000000000046 10020774     POSKeyboard.obj
 0002:00000784       __GUID_00020400_0000_0000_c000_000000000046 10020784     POSKeyboard.obj
 0002:00000794       ??_C@_1CE@PGFMOFKI@?$AAS?$AAt?$AAa?$AAt?$AAu?$AAs?$AAU?$AAp?$AAd?$AAa?$AAt?$AAe?$AAE?$AAv?$AAe@ 10020794     POSKeyboard.obj
 0002:000007b8       ??_C@_1BG@LODEBHDD@?$AAE?$AAr?$AAr?$AAo?$AAr?$AAE?$AAv?$AAe?$AAn?$AAt@ 100207b8     POSKeyboard.obj
 0002:000007d0       ??_C@_1BM@CBGEBBBJ@?$AAD?$AAi?$AAr?$AAe?$AAc?$AAt?$AAI?$AAO?$AAE?$AAv?$AAe?$AAn?$AAt@ 100207d0     POSKeyboard.obj
 0002:000007ec       ??_C@_1BE@IEBMACEM@?$AAD?$AAa?$AAt?$AAa?$AAE?$AAv?$AAe?$AAn?$AAt@ 100207ec     POSKeyboard.obj
 0002:00000800       __GUID_b196b286_bab4_101a_b69c_00aa00341d07 10020800     POSKeyboard.obj
 0002:00000810       __GUID_00000117_0000_0000_c000_000000000046 10020810     POSKeyboard.obj
 0002:00000820       ??_C@_1BC@ENICKDH@?$AAC?$AAo?$AAn?$AAt?$AAe?$AAn?$AAt?$AAs@ 10020820     POSKeyboard.obj
 0002:00000834       ??_7?$CComObject@V?$CComEnum@UIEnumConnectionPoints@@$1?_GUID_b196b285_bab4_101a_b69c_00aa00341d07@@3U__s_GUID@@BPAUIConnectionPoint@@V?$_CopyInterface@UIConnectionPoint@@@ATL@@VCComSingleThreadModel@6@@ATL@@@ATL@@6B@ 10020834     POSKeyboard.obj
 0002:00000854       ??_C@_1M@KANJNLFF@?$AAC?$AAL?$AAS?$AAI?$AAD@ 10020854     POSKeyboard.obj
 0002:00000860       ??_C@_1M@EJNEECMJ@?$AAA?$AAp?$AAp?$AAI?$AAD@ 10020860     POSKeyboard.obj
 0002:0000086c       __GUID_0000010e_0000_0000_c000_000000000046 1002086c     POSKeyboard.obj
 0002:0000087c       __GUID_b196b288_bab4_101a_b69c_00aa00341d07 1002087c     POSKeyboard.obj
 0002:0000088c       ?rgszNeverDelete@CRegParser@ATL@@1QBQB_WB 1002088c     POSKeyboard.obj
 0002:000008bc       ??_7CRegObject@ATL@@6B@    100208bc     POSKeyboard.obj
 0002:000008d4       __GUID_00000113_0000_0000_c000_000000000046 100208d4     POSKeyboard.obj
 0002:000008e4       __GUID_1c2056cc_5ef4_101b_8bc8_00aa003e3b29 100208e4     POSKeyboard.obj
 0002:000008f4       ??_C@_1CK@OEKPKBNA@?$AAC?$AAo?$AAm?$AAp?$AAo?$AAn?$AAe?$AAn?$AAt?$AA?5?$AAC?$AAa?$AAt?$AAe?$AAg@ 100208f4     POSKeyboard.obj
 0002:00000920       ??_C@_1BC@NKMMNMGL@?$AAF?$AAi?$AAl?$AAe?$AAT?$AAy?$AAp?$AAe@ 10020920     POSKeyboard.obj
 0002:00000934       ??_C@_1BE@EKPAFMCP@?$AAI?$AAn?$AAt?$AAe?$AAr?$AAf?$AAa?$AAc?$AAe@ 10020934     POSKeyboard.obj
 0002:00000948       ??_C@_1BC@MAICEHGI@?$AAH?$AAa?$AAr?$AAd?$AAw?$AAa?$AAr?$AAe@ 10020948     POSKeyboard.obj
 0002:0000095c       ??_C@_19HLLLM@?$AAM?$AAi?$AAm?$AAe@ 1002095c     POSKeyboard.obj
 0002:00000968       ??_C@_17OMAOINJK@?$AAS?$AAA?$AAM@ 10020968     POSKeyboard.obj
 0002:00000970       ??_C@_1BC@IBECJAAI@?$AAS?$AAE?$AAC?$AAU?$AAR?$AAI?$AAT?$AAY@ 10020970     POSKeyboard.obj
 0002:00000984       ??_C@_1O@GBFINDKL@?$AAS?$AAY?$AAS?$AAT?$AAE?$AAM@ 10020984     POSKeyboard.obj
 0002:00000994       ??_C@_1BC@EAHCMADO@?$AAS?$AAo?$AAf?$AAt?$AAw?$AAa?$AAr?$AAe@ 10020994     POSKeyboard.obj
 0002:000009a8       ??_C@_1BA@JIHHIEDE@?$AAT?$AAy?$AAp?$AAe?$AAL?$AAi?$AAb@ 100209a8     POSKeyboard.obj
 0002:000009b8       ?map@?1??HKeyFromString@CRegParser@ATL@@KAPAUHKEY__@@PA_W@Z@4QBUkeymap@?1??123@KAPAU4@0@Z@B 100209b8     POSKeyboard.obj
 0002:00000a28       ??_C@_19NCHLBIN@?$AAH?$AAK?$AAC?$AAR@ 10020a28     POSKeyboard.obj
 0002:00000a34       ??_C@_19JAPAIJDE@?$AAH?$AAK?$AAC?$AAU@ 10020a34     POSKeyboard.obj
 0002:00000a40       ??_C@_19PEALEEJB@?$AAH?$AAK?$AAL?$AAM@ 10020a40     POSKeyboard.obj
 0002:00000a4c       ??_C@_17PJOJPMPB@?$AAH?$AAK?$AAU@ 10020a4c     POSKeyboard.obj
 0002:00000a54       ??_C@_19PNBHMJPL@?$AAH?$AAK?$AAP?$AAD@ 10020a54     POSKeyboard.obj
 0002:00000a60       ??_C@_19GFFAIJHG@?$AAH?$AAK?$AAD?$AAD@ 10020a60     POSKeyboard.obj
 0002:00000a6c       ??_C@_19OFICIBHH@?$AAH?$AAK?$AAC?$AAC@ 10020a6c     POSKeyboard.obj
 0002:00000a78       ??_C@_1CE@PACHPJFI@?$AAH?$AAK?$AAE?$AAY?$AA_?$AAC?$AAL?$AAA?$AAS?$AAS?$AAE?$AAS?$AA_?$AAR?$AAO@ 10020a78     POSKeyboard.obj
 0002:00000a9c       ??_C@_1CE@HLHNCBPM@?$AAH?$AAK?$AAE?$AAY?$AA_?$AAC?$AAU?$AAR?$AAR?$AAE?$AAN?$AAT?$AA_?$AAU?$AAS@ 10020a9c     POSKeyboard.obj
 0002:00000ac0       ??_C@_1CG@GFBEANJL@?$AAH?$AAK?$AAE?$AAY?$AA_?$AAL?$AAO?$AAC?$AAA?$AAL?$AA_?$AAM?$AAA?$AAC?$AAH@ 10020ac0     POSKeyboard.obj
 0002:00000ae8       ??_C@_1BG@BGODANIO@?$AAH?$AAK?$AAE?$AAY?$AA_?$AAU?$AAS?$AAE?$AAR?$AAS@ 10020ae8     POSKeyboard.obj
 0002:00000b00       ??_C@_1CM@KHNNAOIC@?$AAH?$AAK?$AAE?$AAY?$AA_?$AAP?$AAE?$AAR?$AAF?$AAO?$AAR?$AAM?$AAA?$AAN?$AAC@ 10020b00     POSKeyboard.obj
 0002:00000b2c       ??_C@_1BM@HAGMMHIA@?$AAH?$AAK?$AAE?$AAY?$AA_?$AAD?$AAY?$AAN?$AA_?$AAD?$AAA?$AAT?$AAA@ 10020b2c     POSKeyboard.obj
 0002:00000b48       ??_C@_1CI@BBJOACGG@?$AAH?$AAK?$AAE?$AAY?$AA_?$AAC?$AAU?$AAR?$AAR?$AAE?$AAN?$AAT?$AA_?$AAC?$AAO@ 10020b48     POSKeyboard.obj
 0002:00000b70       __GUID_00000109_0000_0000_c000_000000000046 10020b70     POSKeyboard.obj
 0002:00000b80       __GUID_7fd52380_4e07_101b_ae2d_08002b2ec713 10020b80     POSKeyboard.obj
 0002:00000b90       __GUID_00000112_0000_0000_c000_000000000046 10020b90     POSKeyboard.obj
 0002:00000ba0       __GUID_3af24292_0c96_11ce_a0cf_00aa00600ab8 10020ba0     POSKeyboard.obj
 0002:00000bb0       __GUID_00000127_0000_0000_c000_000000000046 10020bb0     POSKeyboard.obj
 0002:00000bc0       __GUID_0000010d_0000_0000_c000_000000000046 10020bc0     POSKeyboard.obj
 0002:00000bd0       ??_C@_1EA@NHKLICFA@?$AAH?$AAK?$AAC?$AAU?$AA?$AN?$AA?6?$AA?$HL?$AA?7?$AAS?$AAo?$AAf?$AAt?$AAw?$AAa?$AAr@ 10020bd0     POSKeyboard.obj
 0002:00000c10       ??_C@_1BE@LJOLIMEM@?$AA?$AN?$AA?6?$AA?7?$AA?$HN?$AA?$AN?$AA?6?$AA?$HN?$AA?$AN?$AA?6@ 10020c10     POSKeyboard.obj
 0002:00000c24       ??_C@_1M@PPPPCDEP@?$AAA?$AAP?$AAP?$AAI?$AAD@ 10020c24     POSKeyboard.obj
 0002:00000c30       ??_C@_1O@MNLDABAF@?$AAM?$AAo?$AAd?$AAu?$AAl?$AAe@ 10020c30     POSKeyboard.obj
 0002:00000c40       ??_C@_1BG@JBACFMF@?$AAM?$AAo?$AAd?$AAu?$AAl?$AAe?$AA_?$AAR?$AAa?$AAw@ 10020c40     POSKeyboard.obj
 0002:00000c58       ??_C@_1BC@KAILKFFG@?$AAR?$AAE?$AAG?$AAI?$AAS?$AAT?$AAR?$AAY@ 10020c58     POSKeyboard.obj
 0002:00000c6c       ??_7?$CComContainedObject@VCOPOSPOSKeyboard@@@ATL@@6B?$IDispatchImpl@UIOPOSPOSKeyboard@@$1?IID_IOPOSPOSKeyboard@@3U_GUID@@B$1?LIBID_OposPOSKeyboard_CCO@@3U3@B$00$0A@VCComTypeInfoHolder@ATL@@@1@@ 10020c6c     POSKeyboard.obj
 0002:00000d60       ??_7?$CComContainedObject@VCOPOSPOSKeyboard@@@ATL@@6BCComControlBase@1@@ 10020d60     POSKeyboard.obj
 0002:00000d74       ??_7?$CComContainedObject@VCOPOSPOSKeyboard@@@ATL@@6B?$CWindowImpl@VCOPOSPOSKeyboard@@VCWindow@ATL@@V?$CWinTraits@$0FGAAAAAA@$0A@@3@@1@@ 10020d74     POSKeyboard.obj
 0002:00000d84       ??_7?$CComContainedObject@VCOPOSPOSKeyboard@@@ATL@@6B?$IPersistStreamInitImpl@VCOPOSPOSKeyboard@@@1@@ 10020d84     POSKeyboard.obj
 0002:00000da8       ??_7?$CComContainedObject@VCOPOSPOSKeyboard@@@ATL@@6B?$IOleControlImpl@VCOPOSPOSKeyboard@@@1@@ 10020da8     POSKeyboard.obj
 0002:00000dc4       ??_7?$CComContainedObject@VCOPOSPOSKeyboard@@@ATL@@6B?$IOleObjectImpl@VCOPOSPOSKeyboard@@@1@@ 10020dc4     POSKeyboard.obj
 0002:00000e24       ??_7?$CComContainedObject@VCOPOSPOSKeyboard@@@ATL@@6B?$IOleInPlaceActiveObjectImpl@VCOPOSPOSKeyboard@@@1@@ 10020e24     POSKeyboard.obj
 0002:00000e4c       ??_7?$CComContainedObject@VCOPOSPOSKeyboard@@@ATL@@6B?$IViewObjectExImpl@VCOPOSPOSKeyboard@@@1@@ 10020e4c     POSKeyboard.obj
 0002:00000e88       ??_7?$CComContainedObject@VCOPOSPOSKeyboard@@@ATL@@6B?$IOleInPlaceObjectWindowlessImpl@VCOPOSPOSKeyboard@@@1@@ 10020e88     POSKeyboard.obj
 0002:00000eb4       ??_7?$CComContainedObject@VCOPOSPOSKeyboard@@@ATL@@6B?$IConnectionPointContainerImpl@VCOPOSPOSKeyboard@@@1@@ 10020eb4     POSKeyboard.obj
 0002:00000ec8       ??_7?$CComContainedObject@VCOPOSPOSKeyboard@@@ATL@@6B?$IPersistStorageImpl@VCOPOSPOSKeyboard@@@1@@ 10020ec8     POSKeyboard.obj
 0002:00000ef0       ??_7?$CComContainedObject@VCOPOSPOSKeyboard@@@ATL@@6B?$ISpecifyPropertyPagesImpl@VCOPOSPOSKeyboard@@@1@@ 10020ef0     POSKeyboard.obj
 0002:00000f00       ??_7?$CComContainedObject@VCOPOSPOSKeyboard@@@ATL@@6B?$IQuickActivateImpl@VCOPOSPOSKeyboard@@@1@@ 10020f00     POSKeyboard.obj
 0002:00000f18       ??_7?$CComContainedObject@VCOPOSPOSKeyboard@@@ATL@@6B?$IDataObjectImpl@VCOPOSPOSKeyboard@@@1@@ 10020f18     POSKeyboard.obj
 0002:00000f48       ??_7?$CComContainedObject@VCOPOSPOSKeyboard@@@ATL@@6B?$IProvideClassInfo2Impl@$1?CLSID_OPOSPOSKeyboard@@3U_GUID@@B$1?DIID__IOPOSPOSKeyboardEvents@@3U2@B$1?LIBID_OposPOSKeyboard_CCO@@3U2@B$00$0A@VCComTypeInfoHolder@ATL@@@1@@ 10020f48     POSKeyboard.obj
 0002:00000f5c       ??_7?$CComContainedObject@VCOPOSPOSKeyboard@@@ATL@@6B?$IObjectSafetyImpl@VCOPOSPOSKeyboard@@$02@1@@ 10020f5c     POSKeyboard.obj
 0002:00000f74       ??_7?$CComContainedObject@VCOPOSPOSKeyboard@@@ATL@@6B?$IPropertyNotifySinkCP@VCOPOSPOSKeyboard@@VCComDynamicUnkArray@ATL@@@1@@ 10020f74     POSKeyboard.obj
 0002:00000f94       ??_7?$CComContainedObject@VCOPOSPOSKeyboard@@@ATL@@6B?$CProxy_IOPOSEvents@VCOPOSPOSKeyboard@@@@@ 10020f94     POSKeyboard.obj
 0002:00000fb4       ??_7?$CComAggObject@VCOPOSPOSKeyboard@@@ATL@@6B@ 10020fb4     POSKeyboard.obj
 0002:00000fc4       ??_7?$CComObject@VCOPOSPOSKeyboard@@@ATL@@6B?$IDispatchImpl@UIOPOSPOSKeyboard@@$1?IID_IOPOSPOSKeyboard@@3U_GUID@@B$1?LIBID_OposPOSKeyboard_CCO@@3U3@B$00$0A@VCComTypeInfoHolder@ATL@@@1@@ 10020fc4     POSKeyboard.obj
 0002:000010b8       ??_7?$CComObject@VCOPOSPOSKeyboard@@@ATL@@6BCComControlBase@1@@ 100210b8     POSKeyboard.obj
 0002:000010cc       ??_7?$CComObject@VCOPOSPOSKeyboard@@@ATL@@6B?$CWindowImpl@VCOPOSPOSKeyboard@@VCWindow@ATL@@V?$CWinTraits@$0FGAAAAAA@$0A@@3@@1@@ 100210cc     POSKeyboard.obj
 0002:000010dc       ??_7?$CComObject@VCOPOSPOSKeyboard@@@ATL@@6B?$IPersistStreamInitImpl@VCOPOSPOSKeyboard@@@1@@ 100210dc     POSKeyboard.obj
 0002:00001100       ??_7?$CComObject@VCOPOSPOSKeyboard@@@ATL@@6B?$IOleControlImpl@VCOPOSPOSKeyboard@@@1@@ 10021100     POSKeyboard.obj
 0002:0000111c       ??_7?$CComObject@VCOPOSPOSKeyboard@@@ATL@@6B?$IOleObjectImpl@VCOPOSPOSKeyboard@@@1@@ 1002111c     POSKeyboard.obj
 0002:0000117c       ??_7?$CComObject@VCOPOSPOSKeyboard@@@ATL@@6B?$IOleInPlaceActiveObjectImpl@VCOPOSPOSKeyboard@@@1@@ 1002117c     POSKeyboard.obj
 0002:000011a4       ??_7?$CComObject@VCOPOSPOSKeyboard@@@ATL@@6B?$IViewObjectExImpl@VCOPOSPOSKeyboard@@@1@@ 100211a4     POSKeyboard.obj
 0002:000011e0       ??_7?$CComObject@VCOPOSPOSKeyboard@@@ATL@@6B?$IOleInPlaceObjectWindowlessImpl@VCOPOSPOSKeyboard@@@1@@ 100211e0     POSKeyboard.obj
 0002:0000120c       ??_7?$CComObject@VCOPOSPOSKeyboard@@@ATL@@6B?$IConnectionPointContainerImpl@VCOPOSPOSKeyboard@@@1@@ 1002120c     POSKeyboard.obj
 0002:00001220       ??_7?$CComObject@VCOPOSPOSKeyboard@@@ATL@@6B?$IPersistStorageImpl@VCOPOSPOSKeyboard@@@1@@ 10021220     POSKeyboard.obj
 0002:00001248       ??_7?$CComObject@VCOPOSPOSKeyboard@@@ATL@@6B?$ISpecifyPropertyPagesImpl@VCOPOSPOSKeyboard@@@1@@ 10021248     POSKeyboard.obj
 0002:00001258       ??_7?$CComObject@VCOPOSPOSKeyboard@@@ATL@@6B?$IQuickActivateImpl@VCOPOSPOSKeyboard@@@1@@ 10021258     POSKeyboard.obj
 0002:00001270       ??_7?$CComObject@VCOPOSPOSKeyboard@@@ATL@@6B?$IDataObjectImpl@VCOPOSPOSKeyboard@@@1@@ 10021270     POSKeyboard.obj
 0002:000012a0       ??_7?$CComObject@VCOPOSPOSKeyboard@@@ATL@@6B?$IProvideClassInfo2Impl@$1?CLSID_OPOSPOSKeyboard@@3U_GUID@@B$1?DIID__IOPOSPOSKeyboardEvents@@3U2@B$1?LIBID_OposPOSKeyboard_CCO@@3U2@B$00$0A@VCComTypeInfoHolder@ATL@@@1@@ 100212a0     POSKeyboard.obj
 0002:000012b4       ??_7?$CComObject@VCOPOSPOSKeyboard@@@ATL@@6B?$IObjectSafetyImpl@VCOPOSPOSKeyboard@@$02@1@@ 100212b4     POSKeyboard.obj
 0002:000012cc       ??_7?$CComObject@VCOPOSPOSKeyboard@@@ATL@@6B?$IPropertyNotifySinkCP@VCOPOSPOSKeyboard@@VCComDynamicUnkArray@ATL@@@1@@ 100212cc     POSKeyboard.obj
 0002:000012ec       ??_7?$CComObject@VCOPOSPOSKeyboard@@@ATL@@6B?$CProxy_IOPOSEvents@VCOPOSPOSKeyboard@@@@@ 100212ec     POSKeyboard.obj
 0002:0000130c       ??_C@_1O@GBFKGNEO@?$AAA?$AAT?$AAL?$AA?3?$AA?$CF?$AAp@ 1002130c     POSKeyboard.obj
 0002:0000131c       ??_C@_1BA@PICGEGJB@?$AAD?$AAI?$AAS?$AAP?$AAL?$AAA?$AAY@ 1002131c     POSKeyboard.obj
 0002:0000132c       __GUID_9bfbbc02_eff1_101a_84ed_00aa00341d07 1002132c     POSKeyboard.obj
 0002:0000133c       __GUID_b196b284_bab4_101a_b69c_00aa00341d07 1002133c     POSKeyboard.obj
 0002:0000134c       ?_entries@?1??_GetEntries@?$CComEnum@UIEnumConnectionPoints@@$1?_GUID_b196b285_bab4_101a_b69c_00aa00341d07@@3U__s_GUID@@BPAUIConnectionPoint@@V?$_CopyInterface@UIConnectionPoint@@@ATL@@VCComSingleThreadModel@6@@ATL@@SGPBU_ATL_INTMAP_ENTRY@3@XZ@4QBU43@B 1002134c     POSKeyboard.obj
 0002:00001364       __GUID_00020412_0000_0000_c000_000000000046 10021364     POSKeyboard.obj
 0002:00001374       __GUID_00020401_0000_0000_c000_000000000046 10021374     POSKeyboard.obj
 0002:00001384       ??_7?$CComObject@V?$CComEnum@UIEnumConnections@@$1?_GUID_b196b287_bab4_101a_b69c_00aa00341d07@@3U__s_GUID@@BUtagCONNECTDATA@@V?$_Copy@UtagCONNECTDATA@@@ATL@@VCComSingleThreadModel@6@@ATL@@@ATL@@6B@ 10021384     POSKeyboard.obj
 0002:000013a4       __GUID_55980ba0_35aa_11cf_b671_00aa004cd6d8 100213a4     POSKeyboard.obj
 0002:000013b4       __GUID_b196b28b_bab4_101a_b69c_00aa00341d07 100213b4     POSKeyboard.obj
 0002:000013c4       ?_entries@?1??_GetEntries@?$CComEnum@UIEnumConnections@@$1?_GUID_b196b287_bab4_101a_b69c_00aa00341d07@@3U__s_GUID@@BUtagCONNECTDATA@@V?$_Copy@UtagCONNECTDATA@@@ATL@@VCComSingleThreadModel@6@@ATL@@SGPBU_ATL_INTMAP_ENTRY@3@XZ@4QBU43@B 100213c4     POSKeyboard.obj
 0002:000013dc       ??_C@_0BG@EKFFMJIO@RegOpenKeyTransactedW@ 100213dc     POSKeyboard.obj
 0002:000013f4       ??_C@_0BI@HAKLOOGP@RegDeleteKeyTransactedW@ 100213f4     POSKeyboard.obj
 0002:0000140c       ??_C@_0BA@LILAPHGE@RegDeleteKeyExW@ 1002140c     POSKeyboard.obj
 0002:0000141c       ??_C@_19ILOCMLCJ@?$AA?4?$AAt?$AAl?$AAb@ 1002141c     POSKeyboard.obj
 0002:00001428       __GUID_0002e012_0000_0000_c000_000000000046 10021428     POSKeyboard.obj
 0002:00001438       ??_C@_1O@FHBGLCIO@?$AAC?$AAL?$AAS?$AAI?$AAD?$AA?2@ 10021438     POSKeyboard.obj
 0002:00001448       ??_C@_1CK@IFBKBFAA@?$AA?2?$AAR?$AAe?$AAq?$AAu?$AAi?$AAr?$AAe?$AAd?$AA?5?$AAC?$AAa?$AAt?$AAe?$AAg@ 10021448     POSKeyboard.obj
 0002:00001474       ??_C@_1DA@BIHALFED@?$AA?2?$AAI?$AAm?$AAp?$AAl?$AAe?$AAm?$AAe?$AAn?$AAt?$AAe?$AAd?$AA?5?$AAC?$AAa@ 10021474     POSKeyboard.obj
 0002:000014a4       ??_C@_1BK@EDKOLFBJ@?$AAO?$AAL?$AAE?$AAA?$AAU?$AAT?$AA3?$AA2?$AA?4?$AAD?$AAL?$AAL@ 100214a4     POSKeyboard.obj
 0002:000014c0       ??_C@_0BJ@CNLFOMHB@UnRegisterTypeLibForUser@ 100214c0     POSKeyboard.obj
 0002:000014dc       ??_C@_0BH@LBOMMKPJ@RegisterTypeLibForUser@ 100214dc     POSKeyboard.obj
 0002:000014f4       ??_C@_0P@MMNMMLGK@COFreezeEvents@ 100214f4     POSKeyboardImpl.obj
 0002:00001504       ??_C@_0BC@OGCGGIMP@GetPropertyNumber@ 10021504     POSKeyboardImpl.obj
 0002:00001518       ??_C@_0BC@MDCNODNB@SetPropertyNumber@ 10021518     POSKeyboardImpl.obj
 0002:0000152c       ??_C@_0BC@CFCCMIMD@GetPropertyString@ 1002152c     POSKeyboardImpl.obj
 0002:00001540       ??_C@_0BC@CJEDNN@SetPropertyString@ 10021540     POSKeyboardImpl.obj
 0002:00001554       ??_C@_0M@LNPKKKDA@OpenService@ 10021554     POSKeyboardImpl.obj
 0002:00001560       ??_C@_0M@PCMCHHMH@CheckHealth@ 10021560     POSKeyboardImpl.obj
 0002:0000156c       ??_C@_0M@JGMIDNEK@ClaimDevice@ 1002156c     POSKeyboardImpl.obj
 0002:00001578       ??_C@_0L@BNEIFEJC@ClearInput@ 10021578     POSKeyboardImpl.obj
 0002:00001584       ??_C@_0N@DDFIIBMP@CloseService@ 10021584     POSKeyboardImpl.obj
 0002:00001594       ??_C@_08EEIHICPC@DirectIO@ 10021594     POSKeyboardImpl.obj
 0002:000015a0       ??_C@_0O@BCPMENMJ@ReleaseDevice@ 100215a0     POSKeyboardImpl.obj
 0002:000015b0       ??_C@_0BA@GFABKEEE@ResetStatistics@ 100215b0     POSKeyboardImpl.obj
 0002:000015c0       ??_C@_0BD@DPALHJGC@RetrieveStatistics@ 100215c0     POSKeyboardImpl.obj
 0002:000015d4       ??_C@_0BB@KOHIKNFC@UpdateStatistics@ 100215d4     POSKeyboardImpl.obj
 0002:000015e8       ??_C@_0BH@PBKBNMGB@CompareFirmwareVersion@ 100215e8     POSKeyboardImpl.obj
 0002:00001600       ??_C@_0P@FBPDPIPA@UpdateFirmware@ 10021600     POSKeyboardImpl.obj
 0002:00001610       ??_7?$CProxy_IOPOSEvents@VCOPOSPOSKeyboard@@@@6B@ 10021610     POSKeyboardImpl.obj
 0002:00001630       ??_C@_1BA@IFHENID@?$AA?$FL?$AAE?$AAr?$AAr?$AAo?$AAr?$AA?$FN@ 10021630     POSKeyboardImpl.obj
 0002:00001640       ??_C@_0CO@PEIDCFMJ@SOFTWARE?2OLEforRetail?2ServiceOP@ 10021640     POSKeyboardImpl.obj
 0002:00001670       ??_C@_1M@IAIJHCCH@?$AAC?$AAl?$AAo?$AAs?$AAe@ 10021670     POSKeyboardImpl.obj
 0002:0000167c       ??_C@_1M@PCPKGJAH@?$AAC?$AAl?$AAa?$AAi?$AAm@ 1002167c     POSKeyboardImpl.obj
 0002:00001688       ??_C@_1BA@NDFKIOCP@?$AAR?$AAe?$AAl?$AAe?$AAa?$AAs?$AAe@ 10021688     POSKeyboardImpl.obj
 0002:00001698       ??_C@_0M@JJNONJDF@POSKeyboard@ 10021698     POSKeyboardImpl.obj
 0002:000016a4       ??_C@_1BM@IJMNMBPK@?$AAG?$AAe?$AAt?$AAO?$AAp?$AAe?$AAn?$AAR?$AAe?$AAs?$AAu?$AAl?$AAt@ 100216a4     POSKeyboardImpl.obj
 0002:000016c0       _IID_IPropertyNotifySink   100216c0     uuid:ocidl_i.obj
 0002:000016d0       _GUID_NULL                 100216d0     uuid:cguid_i.obj
 0002:000016e0       _CLSID_StdGlobalInterfaceTable 100216e0     uuid:cguid_i.obj
 0002:000016f0       _IID_IDispatch             100216f0     uuid:oaidl_i.obj
 0002:00001700       _CLSID_StdComponentCategoriesMgr 10021700     uuid:ieguids.obj
 0002:00001710       _IID_IUnknown              10021710     uuid:unknwn_i.obj
 0002:00001720       ??_C@_1EC@JIJBPKFM@?$AAa?$AAp?$AAi?$AA?9?$AAm?$AAs?$AA?9?$AAw?$AAi?$AAn?$AA?9?$AAc?$AAo?$AAr?$AAe@ 10021720     LIBCMT:thread_safe_statics.obj
 0002:00001764       ??_C@_1BK@MGMFAEKH@?$AAk?$AAe?$AAr?$AAn?$AAe?$AAl?$AA3?$AA2?$AA?4?$AAd?$AAl?$AAl@ 10021764     LIBCMT:thread_safe_statics.obj
 0002:00001780       ??_C@_0BJ@JEBJOJFJ@SleepConditionVariableCS@ 10021780     LIBCMT:thread_safe_statics.obj
 0002:0000179c       ??_C@_0BJ@PGPPEPCC@WakeAllConditionVariable@ 1002179c     LIBCMT:thread_safe_statics.obj
 0002:000017b5       ?nothrow@std@@3Unothrow_t@1@B 100217b5     LIBCMT:std_nothrow.obj
 0002:000017c0       __pDefaultRawDllMain       100217c0     LIBCMT:dll_dllmain.obj
 0002:000017c0       __pRawDllMain              100217c0     LIBCMT:dll_dllmain.obj
 0002:000017c8       ??_7exception@std@@6B@     100217c8     LIBCMT:throw_bad_alloc.obj
 0002:000017d0       ??_C@_0BC@EOODALEL@Unknown?5exception@ 100217d0     LIBCMT:throw_bad_alloc.obj
 0002:000017e8       ??_7bad_alloc@std@@6B@     100217e8     LIBCMT:throw_bad_alloc.obj
 0002:000017f0       ??_C@_0P@GHFPNOJB@bad?5allocation@ 100217f0     LIBCMT:throw_bad_alloc.obj
 0002:00001804       ??_7bad_array_new_length@std@@6B@ 10021804     LIBCMT:throw_bad_alloc.obj
 0002:0000180c       ??_C@_0BF@KINCDENJ@bad?5array?5new?5length@ 1002180c     LIBCMT:throw_bad_alloc.obj
 0002:00001828       ??_7type_info@@6B@         10021828     LIBCMT:std_type_info_static.obj
 0002:0000182c       _GUID_ATLVer110            1002182c     atls:atlbase.obj
 0002:00001840       ??_C@_1IC@ONKHOIDK@?$AAE?$AAR?$AAR?$AAO?$AAR?$AA?5?$AA?3?$AA?5?$AAU?$AAn?$AAa?$AAb?$AAl?$AAe?$AA?5@ 10021840     atls:atlbase.obj
 0002:000018c4       ??_C@_0N@FJEPLCIH@atlthunk?4dll@ 100218c4     atls:atlthunk.obj
 0002:000018d4       ??_C@_0BG@GAKFHCBM@AtlThunk_AllocateData@ 100218d4     atls:atlthunk.obj
 0002:000018ec       ??_C@_0BC@JKONFIAH@AtlThunk_InitData@ 100218ec     atls:atlthunk.obj
 0002:00001900       ??_C@_0BE@IAOEELAK@AtlThunk_DataToCode@ 10021900     atls:atlthunk.obj
 0002:00001914       ??_C@_0BC@GBGKAIPI@AtlThunk_FreeData@ 10021914     atls:atlthunk.obj
 0002:00001928       __pDestructExceptionObject 10021928     libvcruntime:ehhelpers.obj
 0002:00001930       ??_7bad_exception@std@@6B@ 10021930     libvcruntime:frame.obj
 0002:00001938       ??_C@_0O@DPKOEFFH@bad?5exception@ 10021938     libvcruntime:frame.obj
 0002:00001cc8       ??_C@_08EHJDFFNH@__based?$CI@ 10021cc8     libvcruntime:undname.obj
 0002:00001cd4       ??_C@_07KOLFKCDI@__cdecl@  10021cd4     libvcruntime:undname.obj
 0002:00001cdc       ??_C@_08GHMPAG@__pascal@   10021cdc     libvcruntime:undname.obj
 0002:00001ce8       ??_C@_09IFJBGAPI@__stdcall@ 10021ce8     libvcruntime:undname.obj
 0002:00001cf4       ??_C@_0L@NPHFGOKO@__thiscall@ 10021cf4     libvcruntime:undname.obj
 0002:00001d00       ??_C@_0L@JMKHOMEK@__fastcall@ 10021d00     libvcruntime:undname.obj
 0002:00001d0c       ??_C@_0N@BCKKPABJ@__vectorcall@ 10021d0c     libvcruntime:undname.obj
 0002:00001d1c       ??_C@_09HIJEGCPM@__clrcall@ 10021d1c     libvcruntime:undname.obj
 0002:00001d28       ??_C@_06GHPCKEAG@__eabi@   10021d28     libvcruntime:undname.obj
 0002:00001d30       ??_C@_09IOPIDJLG@__swift_1@ 10021d30     libvcruntime:undname.obj
 0002:00001d3c       ??_C@_09KFNFGKHF@__swift_2@ 10021d3c     libvcruntime:undname.obj
 0002:00001d48       ??_C@_07JOMMBBKO@__ptr64@  10021d48     libvcruntime:undname.obj
 0002:00001d50       ??_C@_0L@PILCLIHE@__restrict@ 10021d50     libvcruntime:undname.obj
 0002:00001d5c       ??_C@_0M@GFIIJFMG@__unaligned@ 10021d5c     libvcruntime:undname.obj
 0002:00001d68       ??_C@_09DHDLOLLB@restrict?$CI@ 10021d68     libvcruntime:undname.obj
 0002:00001d72       ??_C@_00CNPNBAHC@@         10021d72     libvcruntime:undname.obj
 0002:00001d74       ??_C@_04NIHEBCM@?5new@     10021d74     libvcruntime:undname.obj
 0002:00001d7c       ??_C@_07FPCDHGMM@?5delete@ 10021d7c     libvcruntime:undname.obj
 0002:00001d84       ??_C@_01NEMOKFLO@?$DN@     10021d84     libvcruntime:undname.obj
 0002:00001d88       ??_C@_02GPIOPFAK@?$DO?$DO@ 10021d88     libvcruntime:undname.obj
 0002:00001d8c       ??_C@_02FODMEDOG@?$DM?$DM@ 10021d8c     libvcruntime:undname.obj
 0002:00001d90       ??_C@_01DCLJPIOD@?$CB@     10021d90     libvcruntime:undname.obj
 0002:00001d94       ??_C@_02EGOFBIJA@?$DN?$DN@ 10021d94     libvcruntime:undname.obj
 0002:00001d98       ??_C@_02FDNJECIE@?$CB?$DN@ 10021d98     libvcruntime:undname.obj
 0002:00001d9c       ??_C@_02GPECMEKF@?$FL?$FN@ 10021d9c     libvcruntime:undname.obj
 0002:00001da0       ??_C@_08LHJFAFGD@operator@ 10021da0     libvcruntime:undname.obj
 0002:00001dac       ??_C@_02HBOOOICD@?9?$DO@   10021dac     libvcruntime:undname.obj
 0002:00001db0       ??_C@_01NBENCBCI@?$CK@     10021db0     libvcruntime:undname.obj
 0002:00001db4       ??_C@_02ECNGHCIF@?$CL?$CL@ 10021db4     libvcruntime:undname.obj
 0002:00001db8       ??_C@_02BAABKJLB@?9?9@     10021db8     libvcruntime:undname.obj
 0002:00001dbc       ??_C@_01JOAMLHOP@?9@       10021dbc     libvcruntime:undname.obj
 0002:00001dc0       ??_C@_01MIFGBAGJ@?$CL@     10021dc0     libvcruntime:undname.obj
 0002:00001dc4       ??_C@_01HNPIGOCE@?$CG@     10021dc4     libvcruntime:undname.obj
 0002:00001dc8       ??_C@_03MNHNFDLC@?9?$DO?$CK@ 10021dc8     libvcruntime:undname.obj
 0002:00001dcc       ??_C@_01KMDKNFGN@?1@       10021dcc     libvcruntime:undname.obj
 0002:00001dd0       ??_C@_01FGNFDNOH@?$CF@     10021dd0     libvcruntime:undname.obj
 0002:00001dd4       ??_C@_01MNNFJEPP@?$DM@     10021dd4     libvcruntime:undname.obj
 0002:00001dd8       ??_C@_02EHCHHCKH@?$DM?$DN@ 10021dd8     libvcruntime:undname.obj
 0002:00001ddc       ??_C@_01PPODPGHN@?$DO@     10021ddc     libvcruntime:undname.obj
 0002:00001de0       ??_C@_02EEKDKGMJ@?$DO?$DN@ 10021de0     libvcruntime:undname.obj
 0002:00001de4       ??_C@_01IHBHIGKO@?0@       10021de4     libvcruntime:undname.obj
 0002:00001de8       ??_C@_02HCKGKOFO@?$CI?$CJ@ 10021de8     libvcruntime:undname.obj
 0002:00001dec       ??_C@_01PJKLJHI@?$HO@      10021dec     libvcruntime:undname.obj
 0002:00001df0       ??_C@_01JKBOJNNK@?$FO@     10021df0     libvcruntime:undname.obj
 0002:00001df4       ??_C@_01DNKMNLPK@?$HM@     10021df4     libvcruntime:undname.obj
 0002:00001df8       ??_C@_02PPKAJPJL@?$CG?$CG@ 10021df8     libvcruntime:undname.obj
 0002:00001dfc       ??_C@_02NONPIBCD@?$HM?$HM@ 10021dfc     libvcruntime:undname.obj
 0002:00001e00       ??_C@_02FPIMKNGF@?$CK?$DN@ 10021e00     libvcruntime:undname.obj
 0002:00001e04       ??_C@_02FOEOMHFC@?$CL?$DN@ 10021e04     libvcruntime:undname.obj
 0002:00001e08       ??_C@_02FKMDLLOA@?9?$DN@   10021e08     libvcruntime:undname.obj
 0002:00001e0c       ??_C@_02FJEHGPIO@?1?$DN@   10021e0c     libvcruntime:undname.obj
 0002:00001e10       ??_C@_02FENAOKFI@?$CF?$DN@ 10021e10     libvcruntime:undname.obj
 0002:00001e14       ??_C@_03IKFCCPFF@?$DO?$DO?$DN@ 10021e14     libvcruntime:undname.obj
 0002:00001e18       ??_C@_03CDNPDDLA@?$DM?$DM?$DN@ 10021e18     libvcruntime:undname.obj
 0002:00001e1c       ??_C@_02FGJGFEAB@?$CG?$DN@ 10021e1c     libvcruntime:undname.obj
 0002:00001e20       ??_C@_02DHLNPPGH@?$HM?$DN@ 10021e20     libvcruntime:undname.obj
 0002:00001e24       ??_C@_02MHEGNOJ@?$FO?$DN@  10021e24     libvcruntime:undname.obj
 0002:00001e28       ??_C@_09IFPLHPGF@?$GAvftable?8@ 10021e28     libvcruntime:undname.obj
 0002:00001e34       ??_C@_09BLBHBJP@?$GAvbtable?8@ 10021e34     libvcruntime:undname.obj
 0002:00001e40       ??_C@_07FEEIOKP@?$GAvcall?8@ 10021e40     libvcruntime:undname.obj
 0002:00001e48       ??_C@_08LLFFHHDJ@?$GAtypeof?8@ 10021e48     libvcruntime:undname.obj
 0002:00001e54       ??_C@_0BF@KDPPACIK@?$GAlocal?5static?5guard?8@ 10021e54     libvcruntime:undname.obj
 0002:00001e6c       ??_C@_08OBABFOLI@?$GAstring?8@ 10021e6c     libvcruntime:undname.obj
 0002:00001e78       ??_C@_0BD@JDLKDPAB@?$GAvbase?5destructor?8@ 10021e78     libvcruntime:undname.obj
 0002:00001e8c       ??_C@_0BN@DEGPLNFK@?$GAvector?5deleting?5destructor?8@ 10021e8c     libvcruntime:undname.obj
 0002:00001eac       ??_C@_0BO@OBMKPJIG@?$GAdefault?5constructor?5closure?8@ 10021eac     libvcruntime:undname.obj
 0002:00001ecc       ??_C@_0BN@IMDCHIKM@?$GAscalar?5deleting?5destructor?8@ 10021ecc     libvcruntime:undname.obj
 0002:00001eec       ??_C@_0BO@PFGOCPJJ@?$GAvector?5constructor?5iterator?8@ 10021eec     libvcruntime:undname.obj
 0002:00001f0c       ??_C@_0BN@LFPFMEDL@?$GAvector?5destructor?5iterator?8@ 10021f0c     libvcruntime:undname.obj
 0002:00001f2c       ??_C@_0CE@IKBNEHA@?$GAvector?5vbase?5constructor?5itera@ 10021f2c     libvcruntime:undname.obj
 0002:00001f50       ??_C@_0BL@NILFHHPC@?$GAvirtual?5displacement?5map?8@ 10021f50     libvcruntime:undname.obj
 0002:00001f6c       ??_C@_0CB@JONCMFFK@?$GAeh?5vector?5constructor?5iterator@ 10021f6c     libvcruntime:undname.obj
 0002:00001f90       ??_C@_0CA@GCEOPDGL@?$GAeh?5vector?5destructor?5iterator?8@ 10021f90     libvcruntime:undname.obj
 0002:00001fb0       ??_C@_0CH@OOJPLCPH@?$GAeh?5vector?5vbase?5constructor?5it@ 10021fb0     libvcruntime:undname.obj
 0002:00001fd8       ??_C@_0BL@LLKPOHJI@?$GAcopy?5constructor?5closure?8@ 10021fd8     libvcruntime:undname.obj
 0002:00001ff4       ??_C@_0BA@KBCDOMBN@?$GAudt?5returning?8@ 10021ff4     libvcruntime:undname.obj
 0002:00002004       ??_C@_03KLGMFNMG@?$GAEH@   10022004     libvcruntime:undname.obj
 0002:00002008       ??_C@_05KHLCHHI@?$GARTTI@  10022008     libvcruntime:undname.obj
 0002:00002010       ??_C@_0BA@KKLDJDLB@?$GAlocal?5vftable?8@ 10022010     libvcruntime:undname.obj
 0002:00002020       ??_C@_0CE@IIHCMGGL@?$GAlocal?5vftable?5constructor?5clos@ 10022020     libvcruntime:undname.obj
 0002:00002044       ??_C@_06FHBGPFGH@?5new?$FL?$FN@ 10022044     libvcruntime:undname.obj
 0002:0000204c       ??_C@_09LBNFPBCA@?5delete?$FL?$FN@ 1002204c     libvcruntime:undname.obj
 0002:00002058       ??_C@_0P@HJKNJFNN@?$GAomni?5callsig?8@ 10022058     libvcruntime:undname.obj
 0002:00002068       ??_C@_0BL@CNOONJFP@?$GAplacement?5delete?5closure?8@ 10022068     libvcruntime:undname.obj
 0002:00002084       ??_C@_0BN@CKNJLHMB@?$GAplacement?5delete?$FL?$FN?5closure?8@ 10022084     libvcruntime:undname.obj
 0002:000020a4       ??_C@_0CG@CFDHKGGD@?$GAmanaged?5vector?5constructor?5ite@ 100220a4     libvcruntime:undname.obj
 0002:000020cc       ??_C@_0CF@IMGKMJNO@?$GAmanaged?5vector?5destructor?5iter@ 100220cc     libvcruntime:undname.obj
 0002:000020f4       ??_C@_0CG@HLDDJMAG@?$GAeh?5vector?5copy?5constructor?5ite@ 100220f4     libvcruntime:undname.obj
 0002:0000211c       ??_C@_0CM@FCBBDIGB@?$GAeh?5vector?5vbase?5copy?5construct@ 1002211c     libvcruntime:undname.obj
 0002:00002148       ??_C@_0BL@CLIPGLGB@?$GAdynamic?5initializer?5for?5?8@ 10022148     libvcruntime:undname.obj
 0002:00002164       ??_C@_0CB@PDBIFEP@?$GAdynamic?5atexit?5destructor?5for?5@ 10022164     libvcruntime:undname.obj
 0002:00002188       ??_C@_0CD@CGAJBKEJ@?$GAvector?5copy?5constructor?5iterat@ 10022188     libvcruntime:undname.obj
 0002:000021ac       ??_C@_0CJ@GJELGAMM@?$GAvector?5vbase?5copy?5constructor?5@ 100221ac     libvcruntime:undname.obj
 0002:000021d8       ??_C@_0CL@FGIJHLCE@?$GAmanaged?5vector?5copy?5constructo@ 100221d8     libvcruntime:undname.obj
 0002:00002204       ??_C@_0BM@PMGGMLDN@?$GAlocal?5static?5thread?5guard?8@ 10022204     libvcruntime:undname.obj
 0002:00002220       ??_C@_0N@BDNMDMOL@operator?5?$CC?$CC?5@ 10022220     libvcruntime:undname.obj
 0002:00002230       ??_C@_0BC@GGEBGALA@operator?5co_await@ 10022230     libvcruntime:undname.obj
 0002:00002244       ??_C@_0M@GAAIMMOH@operator?$DM?$DN?$DO@ 10022244     libvcruntime:undname.obj
 0002:00002250       ??_C@_0BC@DAFEJGAK@?5Type?5Descriptor?8@ 10022250     libvcruntime:undname.obj
 0002:00002264       ??_C@_0BM@LDKODKLH@?5Base?5Class?5Descriptor?5at?5?$CI@ 10022264     libvcruntime:undname.obj
 0002:00002280       ??_C@_0BD@LGICGFMM@?5Base?5Class?5Array?8@ 10022280     libvcruntime:undname.obj
 0002:00002294       ??_C@_0BN@MECKDCOJ@?5Class?5Hierarchy?5Descriptor?8@ 10022294     libvcruntime:undname.obj
 0002:000022b4       ??_C@_0BK@CFCOFLF@?5Complete?5Object?5Locator?8@ 100222b4     libvcruntime:undname.obj
 0002:000022d0       ??_C@_0BG@JNJLAMPM@?$GAanonymous?5namespace?8@ 100222d0     libvcruntime:undname.obj
 0002:000022f4       ??_C@_1DM@KHCHBNEB@?$AAa?$AAp?$AAi?$AA?9?$AAm?$AAs?$AA?9?$AAw?$AAi?$AAn?$AA?9?$AAc?$AAo?$AAr?$AAe@ 100222f4     libvcruntime:winapi_downlevel.obj
 0002:00002330       ??_C@_1DK@LPPGFMPP@?$AAa?$AAp?$AAi?$AA?9?$AAm?$AAs?$AA?9?$AAw?$AAi?$AAn?$AA?9?$AAc?$AAo?$AAr?$AAe@ 10022330     libvcruntime:winapi_downlevel.obj
 0002:0000236c       ??_C@_1BC@GDMECMAK@?$AAk?$AAe?$AAr?$AAn?$AAe?$AAl?$AA3?$AA2@ 1002236c     libvcruntime:winapi_downlevel.obj
 0002:00002380       ??_C@_1BA@PFFKHIOG@?$AAa?$AAp?$AAi?$AA?9?$AAm?$AAs?$AA?9@ 10022380     libvcruntime:winapi_downlevel.obj
 0002:00002398       ??_C@_08KNHFBNJ@FlsAlloc@  10022398     libvcruntime:winapi_downlevel.obj
 0002:000023ac       ??_C@_07PEJMOBNF@FlsFree@  100223ac     libvcruntime:winapi_downlevel.obj
 0002:000023bc       ??_C@_0M@GDNOONDI@FlsGetValue@ 100223bc     libvcruntime:winapi_downlevel.obj
 0002:000023d0       ??_C@_0M@JCPCPOEF@FlsSetValue@ 100223d0     libvcruntime:winapi_downlevel.obj
 0002:000023e4       ??_C@_0BM@HCFOFFN@InitializeCriticalSectionEx@ 100223e4     libvcruntime:winapi_downlevel.obj
 0002:00002568       ?format_validation_lookup_table_spectre@__crt_stdio_output@@3V?$spectre_mitigated_lookup_table@Ustate_transition_pair@__crt_stdio_output@@$0IA@@1@B 10022568     libucrt:output.obj
 0002:00002968       ??_C@_1O@CEDCILHN@?$AA?$CI?$AAn?$AAu?$AAl?$AAl?$AA?$CJ@ 10022968     libucrt:output.obj
 0002:00002978       ??_C@_06OJHGLDPL@?$CInull?$CJ@ 10022978     libucrt:output.obj
 0002:00002980       ___acrt_exception_action_table 10022980     libucrt:exception_filter.obj
 0002:00002a10       ___acrt_signal_action_table_count 10022a10     libucrt:exception_filter.obj
 0002:00002a14       ___acrt_signal_action_first_fpe_index 10022a14     libucrt:exception_filter.obj
 0002:00002a18       ___acrt_signal_action_fpe_count 10022a18     libucrt:exception_filter.obj
 0002:00002a1c       ??_C@_1BI@BGOHAHKC@?$AAm?$AAs?$AAc?$AAo?$AAr?$AAe?$AAe?$AA?4?$AAd?$AAl?$AAl@ 10022a1c     libucrt:exit.obj
 0002:00002a34       ??_C@_0P@MIGLKIOC@CorExitProcess@ 10022a34     libucrt:exit.obj
 0002:00002b18       ??_C@_1EA@JGEFHKEI@?$AAa?$AAp?$AAi?$AA?9?$AAm?$AAs?$AA?9?$AAw?$AAi?$AAn?$AA?9?$AAc?$AAo?$AAr?$AAe@ 10022b18     libucrt:winapi_thunks.obj
 0002:00002b58       ??_C@_1DI@IJCEHOCB@?$AAa?$AAp?$AAi?$AA?9?$AAm?$AAs?$AA?9?$AAw?$AAi?$AAn?$AA?9?$AAc?$AAo?$AAr?$AAe@ 10022b58     libucrt:winapi_thunks.obj
 0002:00002b90       ??_C@_1EI@MPIAOHOC@?$AAa?$AAp?$AAi?$AA?9?$AAm?$AAs?$AA?9?$AAw?$AAi?$AAn?$AA?9?$AAc?$AAo?$AAr?$AAe@ 10022b90     libucrt:winapi_thunks.obj
 0002:00002bd8       ??_C@_1FK@FPHCKFIE@?$AAa?$AAp?$AAi?$AA?9?$AAm?$AAs?$AA?9?$AAw?$AAi?$AAn?$AA?9?$AAc?$AAo?$AAr?$AAe@ 10022bd8     libucrt:winapi_thunks.obj
 0002:00002c38       ??_C@_1EM@DILCGIIO@?$AAa?$AAp?$AAi?$AA?9?$AAm?$AAs?$AA?9?$AAw?$AAi?$AAn?$AA?9?$AAc?$AAo?$AAr?$AAe@ 10022c38     libucrt:winapi_thunks.obj
 0002:00002c84       ??_C@_1DM@LNCGDDPN@?$AAa?$AAp?$AAi?$AA?9?$AAm?$AAs?$AA?9?$AAw?$AAi?$AAn?$AA?9?$AAc?$AAo?$AAr?$AAe@ 10022c84     libucrt:winapi_thunks.obj
 0002:00002cc0       ??_C@_1DO@FPAPJEMD@?$AAa?$AAp?$AAi?$AA?9?$AAm?$AAs?$AA?9?$AAw?$AAi?$AAn?$AA?9?$AAc?$AAo?$AAr?$AAe@ 10022cc0     libucrt:winapi_thunks.obj
 0002:00002d00       ??_C@_1DK@NDHNAHIO@?$AAa?$AAp?$AAi?$AA?9?$AAm?$AAs?$AA?9?$AAw?$AAi?$AAn?$AA?9?$AAc?$AAo?$AAr?$AAe@ 10022d00     libucrt:winapi_thunks.obj
 0002:00002d3c       ??_C@_1DM@KGHDGBCM@?$AAa?$AAp?$AAi?$AA?9?$AAm?$AAs?$AA?9?$AAw?$AAi?$AAn?$AA?9?$AAc?$AAo?$AAr?$AAe@ 10022d3c     libucrt:winapi_thunks.obj
 0002:00002d78       ??_C@_1EO@IJIOEFOH@?$AAa?$AAp?$AAi?$AA?9?$AAm?$AAs?$AA?9?$AAw?$AAi?$AAn?$AA?9?$AAr?$AAt?$AAc?$AAo@ 10022d78     libucrt:winapi_thunks.obj
 0002:00002dc8       ??_C@_1FG@HHGEKANL@?$AAa?$AAp?$AAi?$AA?9?$AAm?$AAs?$AA?9?$AAw?$AAi?$AAn?$AA?9?$AAs?$AAe?$AAc?$AAu@ 10022dc8     libucrt:winapi_thunks.obj
 0002:00002e20       ??_C@_1EG@DBIOJECG@?$AAe?$AAx?$AAt?$AA?9?$AAm?$AAs?$AA?9?$AAw?$AAi?$AAn?$AA?9?$AAn?$AAt?$AAu?$AAs@ 10022e20     libucrt:winapi_thunks.obj
 0002:00002e68       ??_C@_1EO@FIHMJCLF@?$AAe?$AAx?$AAt?$AA?9?$AAm?$AAs?$AA?9?$AAw?$AAi?$AAn?$AA?9?$AAn?$AAt?$AAu?$AAs@ 10022e68     libucrt:winapi_thunks.obj
 0002:00002eb8       ??_C@_1BC@DNHGCMLG@?$AAa?$AAd?$AAv?$AAa?$AAp?$AAi?$AA3?$AA2@ 10022eb8     libucrt:winapi_thunks.obj
 0002:00002ecc       ??_C@_1M@OAIMIKLP@?$AAn?$AAt?$AAd?$AAl?$AAl@ 10022ecc     libucrt:winapi_thunks.obj
 0002:00002ed8       ??_C@_1EG@DPGNFKGC@?$AAa?$AAp?$AAi?$AA?9?$AAm?$AAs?$AA?9?$AAw?$AAi?$AAn?$AA?9?$AAa?$AAp?$AAp?$AAm@ 10022ed8     libucrt:winapi_thunks.obj
 0002:00002f20       ??_C@_1O@BCCLBEOE@?$AAu?$AAs?$AAe?$AAr?$AA3?$AA2@ 10022f20     libucrt:winapi_thunks.obj
 0002:00002f30       ??_C@_1BA@IAIFMGEF@?$AAe?$AAx?$AAt?$AA?9?$AAm?$AAs?$AA?9@ 10022f30     libucrt:winapi_thunks.obj
 0002:00002f44       ??_C@_0BA@FHFNEAED@AreFileApisANSI@ 10022f44     libucrt:winapi_thunks.obj
 0002:00002f84       ??_C@_0O@KKBNKAPF@LCMapStringEx@ 10022f84     libucrt:winapi_thunks.obj
 0002:00002f9c       ??_C@_0BB@HBDEELFH@LocaleNameToLCID@ 10022f9c     libucrt:winapi_thunks.obj
 0002:00002fb4       ??_C@_0CF@OJOFEIGO@AppPolicyGetProcessTerminationM@ 10022fb4     libucrt:winapi_thunks.obj
 0002:00002fe4       ??_C@_0BI@BKLFFAPO@SetThreadStackGuarantee@ 10022fe4     libucrt:winapi_thunks.obj
 0002:00003040       ??_C@_03OEIAHPBN@INF@      10023040     libucrt:cvt.obj
 0002:00003044       ??_C@_03OJHLLCGB@inf@      10023044     libucrt:cvt.obj
 0002:00003048       ??_C@_03LKNCIKJB@NAN@      10023048     libucrt:cvt.obj
 0002:0000304c       ??_C@_03LHCJEHON@nan@      1002304c     libucrt:cvt.obj
 0002:00003050       ??_C@_09OFJJIMPC@NAN?$CISNAN?$CJ@ 10023050     libucrt:cvt.obj
 0002:0000305c       ??_C@_09IPFBKMDL@nan?$CIsnan?$CJ@ 1002305c     libucrt:cvt.obj
 0002:00003068       ??_C@_08IKHNHAJ@NAN?$CIIND?$CJ@ 10023068     libucrt:cvt.obj
 0002:00003074       ??_C@_08OFCDMILK@nan?$CIind?$CJ@ 10023074     libucrt:cvt.obj
 0002:00003080       ??_C@_05KLBDPFGC@e?$CL000@ 10023080     libucrt:cvt.obj
 0002:00003088       ___lc_time_c               10023088     libucrt:nlsdata.obj
 0002:000031ec       ??_C@_03KOEHGMDN@Sun@      100231ec     libucrt:nlsdata.obj
 0002:000031f0       ??_C@_03PDAGKDH@Mon@       100231f0     libucrt:nlsdata.obj
 0002:000031f4       ??_C@_03NAGEINEP@Tue@      100231f4     libucrt:nlsdata.obj
 0002:000031f8       ??_C@_03MHOMLAJA@Wed@      100231f8     libucrt:nlsdata.obj
 0002:000031fc       ??_C@_03IOFIKPDN@Thu@      100231fc     libucrt:nlsdata.obj
 0002:00003200       ??_C@_03IDIOELNC@Fri@      10023200     libucrt:nlsdata.obj
 0002:00003204       ??_C@_03FEFJNEK@Sat@       10023204     libucrt:nlsdata.obj
 0002:00003208       ??_C@_06OOPIFAJ@Sunday@    10023208     libucrt:nlsdata.obj
 0002:00003210       ??_C@_06JLEDEDGH@Monday@   10023210     libucrt:nlsdata.obj
 0002:00003218       ??_C@_07BAAGCFCM@Tuesday@  10023218     libucrt:nlsdata.obj
 0002:00003220       ??_C@_09DLIGFAKA@Wednesday@ 10023220     libucrt:nlsdata.obj
 0002:0000322c       ??_C@_08HACCIKIA@Thursday@ 1002322c     libucrt:nlsdata.obj
 0002:00003238       ??_C@_06JECMNKMI@Friday@   10023238     libucrt:nlsdata.obj
 0002:00003240       ??_C@_08INBOOONO@Saturday@ 10023240     libucrt:nlsdata.obj
 0002:0000324c       ??_C@_03JIHJHPIE@Jan@      1002324c     libucrt:nlsdata.obj
 0002:00003250       ??_C@_03HJBDCHOM@Feb@      10023250     libucrt:nlsdata.obj
 0002:00003254       ??_C@_03ODNJBKGA@Mar@      10023254     libucrt:nlsdata.obj
 0002:00003258       ??_C@_03LEOLGMJP@Apr@      10023258     libucrt:nlsdata.obj
 0002:0000325c       ??_C@_03CNMDKL@May@        1002325c     libucrt:nlsdata.obj
 0002:00003260       ??_C@_03IDFGHECI@Jun@      10023260     libucrt:nlsdata.obj
 0002:00003264       ??_C@_03LBGABGKK@Jul@      10023264     libucrt:nlsdata.obj
 0002:00003268       ??_C@_03IFJFEIGA@Aug@      10023268     libucrt:nlsdata.obj
 0002:0000326c       ??_C@_03GGCAPAJC@Sep@      1002326c     libucrt:nlsdata.obj
 0002:00003270       ??_C@_03BMAOKBAD@Oct@      10023270     libucrt:nlsdata.obj
 0002:00003274       ??_C@_03JPJOFNIA@Nov@      10023274     libucrt:nlsdata.obj
 0002:00003278       ??_C@_03MKABNOCG@Dec@      10023278     libucrt:nlsdata.obj
 0002:0000327c       ??_C@_07CGJPFGJA@January@  1002327c     libucrt:nlsdata.obj
 0002:00003284       ??_C@_08GNJGEPFN@February@ 10023284     libucrt:nlsdata.obj
 0002:00003290       ??_C@_05HPCKOFNC@March@    10023290     libucrt:nlsdata.obj
 0002:00003298       ??_C@_05DMJDNLEJ@April@    10023298     libucrt:nlsdata.obj
 0002:000032a0       ??_C@_04CNLMGBGM@June@     100232a0     libucrt:nlsdata.obj
 0002:000032a8       ??_C@_04MIEPOIFP@July@     100232a8     libucrt:nlsdata.obj
 0002:000032b0       ??_C@_06LBBHFDDG@August@   100232b0     libucrt:nlsdata.obj
 0002:000032b8       ??_C@_09BHHEALKD@September@ 100232b8     libucrt:nlsdata.obj
 0002:000032c4       ??_C@_07JJNFCEND@October@  100232c4     libucrt:nlsdata.obj
 0002:000032cc       ??_C@_08HCHEGEOA@November@ 100232cc     libucrt:nlsdata.obj
 0002:000032d8       ??_C@_08EDHMEBNP@December@ 100232d8     libucrt:nlsdata.obj
 0002:000032e4       ??_C@_02DEDBPAFC@AM@       100232e4     libucrt:nlsdata.obj
 0002:000032e8       ??_C@_02CJNFDJBF@PM@       100232e8     libucrt:nlsdata.obj
 0002:000032ec       ??_C@_08BPBNCDIB@MM?1dd?1yy@ 100232ec     libucrt:nlsdata.obj
 0002:000032f8       ??_C@_0BE@CKGJFCPC@dddd?0?5MMMM?5dd?0?5yyyy@ 100232f8     libucrt:nlsdata.obj
 0002:0000330c       ??_C@_08JCCMCCIL@HH?3mm?3ss@ 1002330c     libucrt:nlsdata.obj
 0002:00003318       ??_C@_17MBGCMIPB@?$AAS?$AAu?$AAn@ 10023318     libucrt:nlsdata.obj
 0002:00003320       ??_C@_17KBOMKBF@?$AAM?$AAo?$AAn@ 10023320     libucrt:nlsdata.obj
 0002:00003328       ??_C@_17BMKGEGOJ@?$AAT?$AAu?$AAe@ 10023328     libucrt:nlsdata.obj
 0002:00003330       ??_C@_17CJEDCEPE@?$AAW?$AAe?$AAd@ 10023330     libucrt:nlsdata.obj
 0002:00003338       ??_C@_17PDPHAADD@?$AAT?$AAh?$AAu@ 10023338     libucrt:nlsdata.obj
 0002:00003340       ??_C@_17HFOLPPLP@?$AAF?$AAr?$AAi@ 10023340     libucrt:nlsdata.obj
 0002:00003348       ??_C@_17GGIBDPIH@?$AAS?$AAa?$AAt@ 10023348     libucrt:nlsdata.obj
 0002:00003350       ??_C@_1O@IHNHDHPB@?$AAS?$AAu?$AAn?$AAd?$AAa?$AAy@ 10023350     libucrt:nlsdata.obj
 0002:00003360       ??_C@_1O@MMNBFLIA@?$AAM?$AAo?$AAn?$AAd?$AAa?$AAy@ 10023360     libucrt:nlsdata.obj
 0002:00003370       ??_C@_1BA@ENFBFFEK@?$AAT?$AAu?$AAe?$AAs?$AAd?$AAa?$AAy@ 10023370     libucrt:nlsdata.obj
 0002:00003380       ??_C@_1BE@EBOGMDOH@?$AAW?$AAe?$AAd?$AAn?$AAe?$AAs?$AAd?$AAa?$AAy@ 10023380     libucrt:nlsdata.obj
 0002:00003394       ??_C@_1BC@HHMNLIHE@?$AAT?$AAh?$AAu?$AAr?$AAs?$AAd?$AAa?$AAy@ 10023394     libucrt:nlsdata.obj
 0002:000033a8       ??_C@_1O@PDICJHAG@?$AAF?$AAr?$AAi?$AAd?$AAa?$AAy@ 100233a8     libucrt:nlsdata.obj
 0002:000033b8       ??_C@_1BC@ENMNNPAJ@?$AAS?$AAa?$AAt?$AAu?$AAr?$AAd?$AAa?$AAy@ 100233b8     libucrt:nlsdata.obj
 0002:000033cc       ??_C@_17DKNBKCHM@?$AAJ?$AAa?$AAn@ 100233cc     libucrt:nlsdata.obj
 0002:000033d4       ??_C@_17LMDJEKJN@?$AAF?$AAe?$AAb@ 100233d4     libucrt:nlsdata.obj
 0002:000033dc       ??_C@_17CKNLEDEC@?$AAM?$AAa?$AAr@ 100233dc     libucrt:nlsdata.obj
 0002:000033e4       ??_C@_17LFPOIHDD@?$AAA?$AAp?$AAr@ 100233e4     libucrt:nlsdata.obj
 0002:000033ec       ??_C@_17PNNKMEED@?$AAM?$AAa?$AAy@ 100233ec     libucrt:nlsdata.obj
 0002:000033f4       ??_C@_17KCJGOCPB@?$AAJ?$AAu?$AAn@ 100233f4     libucrt:nlsdata.obj
 0002:000033fc       ??_C@_17IJPCKHK@?$AAJ?$AAu?$AAl@ 100233fc     libucrt:nlsdata.obj
 0002:00003404       ??_C@_17ICPELBCN@?$AAA?$AAu?$AAg@ 10023404     libucrt:nlsdata.obj
 0002:0000340c       ??_C@_17HCHCOKMG@?$AAS?$AAe?$AAp@ 1002340c     libucrt:nlsdata.obj
 0002:00003414       ??_C@_17FNLKOI@?$AAO?$AAc?$AAt@ 10023414     libucrt:nlsdata.obj
 0002:0000341c       ??_C@_17BBDMLCIG@?$AAN?$AAo?$AAv@ 1002341c     libucrt:nlsdata.obj
 0002:00003424       ??_C@_17EGKACKIF@?$AAD?$AAe?$AAc@ 10023424     libucrt:nlsdata.obj
 0002:0000342c       ??_C@_1BA@EFMEIEBA@?$AAJ?$AAa?$AAn?$AAu?$AAa?$AAr?$AAy@ 1002342c     libucrt:nlsdata.obj
 0002:0000343c       ??_C@_1BC@JGDDFFAM@?$AAF?$AAe?$AAb?$AAr?$AAu?$AAa?$AAr?$AAy@ 1002343c     libucrt:nlsdata.obj
 0002:00003450       ??_C@_1M@IKEENEDF@?$AAM?$AAa?$AAr?$AAc?$AAh@ 10023450     libucrt:nlsdata.obj
 0002:0000345c       ??_C@_1M@GJNLMHFD@?$AAA?$AAp?$AAr?$AAi?$AAl@ 1002345c     libucrt:nlsdata.obj
 0002:00003468       ??_C@_19EPFLPGAP@?$AAJ?$AAu?$AAn?$AAe@ 10023468     libucrt:nlsdata.obj
 0002:00003474       ??_C@_19BIFMLPCD@?$AAJ?$AAu?$AAl?$AAy@ 10023474     libucrt:nlsdata.obj
 0002:00003480       ??_C@_1O@PAHLKOAC@?$AAA?$AAu?$AAg?$AAu?$AAs?$AAt@ 10023480     libucrt:nlsdata.obj
 0002:00003490       ??_C@_1BE@DKAAMBJL@?$AAS?$AAe?$AAp?$AAt?$AAe?$AAm?$AAb?$AAe?$AAr@ 10023490     libucrt:nlsdata.obj
 0002:000034a4       ??_C@_1BA@EPANDLNG@?$AAO?$AAc?$AAt?$AAo?$AAb?$AAe?$AAr@ 100234a4     libucrt:nlsdata.obj
 0002:000034b4       ??_C@_1BC@BGLIFPF@?$AAN?$AAo?$AAv?$AAe?$AAm?$AAb?$AAe?$AAr@ 100234b4     libucrt:nlsdata.obj
 0002:000034c8       ??_C@_1BC@FEMKIFH@?$AAD?$AAe?$AAc?$AAe?$AAm?$AAb?$AAe?$AAr@ 100234c8     libucrt:nlsdata.obj
 0002:000034dc       ??_C@_15ODEHAHHF@?$AAA?$AAM@ 100234dc     libucrt:nlsdata.obj
 0002:000034e4       ??_C@_15CLMNNGEL@?$AAP?$AAM@ 100234e4     libucrt:nlsdata.obj
 0002:000034ec       ??_C@_1BC@IEBCMHCM@?$AAM?$AAM?$AA?1?$AAd?$AAd?$AA?1?$AAy?$AAy@ 100234ec     libucrt:nlsdata.obj
 0002:00003500       ??_C@_1CI@KNAKOEBC@?$AAd?$AAd?$AAd?$AAd?$AA?0?$AA?5?$AAM?$AAM?$AAM?$AAM?$AA?5?$AAd?$AAd?$AA?0?$AA?5@ 10023500     libucrt:nlsdata.obj
 0002:00003528       ??_C@_1BC@GDGBMEMK@?$AAH?$AAH?$AA?3?$AAm?$AAm?$AA?3?$AAs?$AAs@ 10023528     libucrt:nlsdata.obj
 0002:0000353c       ??_C@_1M@BMHNFIME@?$AAe?$AAn?$AA?9?$AAU?$AAS@ 1002353c     libucrt:nlsdata.obj
 0002:00003558       ??_C@_1M@HPNHIDJI@?$AAj?$AAa?$AA?9?$AAJ?$AAP@ 10023558     libucrt:mbctype.obj
 0002:00003564       ??_C@_1M@BIBDDEMK@?$AAz?$AAh?$AA?9?$AAC?$AAN@ 10023564     libucrt:mbctype.obj
 0002:00003570       ??_C@_1M@JLOOOEGK@?$AAk?$AAo?$AA?9?$AAK?$AAR@ 10023570     libucrt:mbctype.obj
 0002:0000357c       ??_C@_1M@CLNBBOPM@?$AAz?$AAh?$AA?9?$AAT?$AAW@ 1002357c     libucrt:mbctype.obj
 0002:00003588       ___newctype                10023588     libucrt:ctype.obj
 0002:00003888       ___newclmap                10023888     libucrt:ctype.obj
 0002:00003a08       ___newcumap                10023a08     libucrt:ctype.obj
 0002:00003b88       __wctype                   10023b88     libucrt:ctype.obj
 0002:000044b0       ??_C@_15EMKDOKLE@?$AAa?$AAr@ 100244b0     libucrt:lcidtoname_downlevel.obj
 0002:000044b8       ??_C@_15KNPADPLH@?$AAb?$AAg@ 100244b8     libucrt:lcidtoname_downlevel.obj
 0002:000044c0       ??_C@_15EDMHLDMO@?$AAc?$AAa@ 100244c0     libucrt:lcidtoname_downlevel.obj
 0002:000044c8       ??_C@_1O@BPEAJADD@?$AAz?$AAh?$AA?9?$AAC?$AAH?$AAS@ 100244c8     libucrt:lcidtoname_downlevel.obj
 0002:000044d8       ??_C@_15LJNHCMNK@?$AAc?$AAs@ 100244d8     libucrt:lcidtoname_downlevel.obj
 0002:000044e0       ??_C@_15FOMCIDHG@?$AAd?$AAa@ 100244e0     libucrt:lcidtoname_downlevel.obj
 0002:000044e8       ??_C@_15NBKABECB@?$AAd?$AAe@ 100244e8     libucrt:lcidtoname_downlevel.obj
 0002:000044f0       ??_C@_15GHPEIIAO@?$AAe?$AAl@ 100244f0     libucrt:lcidtoname_downlevel.obj
 0002:000044f8       ??_C@_15MNPNEAIF@?$AAe?$AAn@ 100244f8     libucrt:lcidtoname_downlevel.obj
 0002:00004500       ??_C@_15GPIOMPMH@?$AAe?$AAs@ 10024500     libucrt:lcidtoname_downlevel.obj
 0002:00004508       ??_C@_15NGLOAKJC@?$AAf?$AAi@ 10024508     libucrt:lcidtoname_downlevel.obj
 0002:00004510       ??_C@_15FBKGNKAM@?$AAf?$AAr@ 10024510     libucrt:lcidtoname_downlevel.obj
 0002:00004518       ??_C@_15KGGCNEFK@?$AAh?$AAe@ 10024518     libucrt:lcidtoname_downlevel.obj
 0002:00004520       ??_C@_15PGHLIDMF@?$AAh?$AAu@ 10024520     libucrt:lcidtoname_downlevel.obj
 0002:00004528       ??_C@_15BIEMAPLM@?$AAi?$AAs@ 10024528     libucrt:lcidtoname_downlevel.obj
 0002:00004530       ??_C@_15IFJLDHAF@?$AAi?$AAt@ 10024530     libucrt:lcidtoname_downlevel.obj
 0002:00004538       ??_C@_15GEMIOCAG@?$AAj?$AAa@ 10024538     libucrt:lcidtoname_downlevel.obj
 0002:00004540       ??_C@_15EPELEGJA@?$AAk?$AAo@ 10024540     libucrt:lcidtoname_downlevel.obj
 0002:00004548       ??_C@_15NDDHIMN@?$AAn?$AAl@ 10024548     libucrt:lcidtoname_downlevel.obj
 0002:00004550       ??_C@_15BPIGNHCD@?$AAn?$AAo@ 10024550     libucrt:lcidtoname_downlevel.obj
 0002:00004558       ??_C@_15DEOPBLCG@?$AAp?$AAl@ 10024558     libucrt:lcidtoname_downlevel.obj
 0002:00004560       ??_C@_15KBECGEFG@?$AAp?$AAt@ 10024560     libucrt:lcidtoname_downlevel.obj
 0002:00004568       ??_C@_15GLJCBFMD@?$AAr?$AAo@ 10024568     libucrt:lcidtoname_downlevel.obj
 0002:00004570       ??_C@_15FEDGKCDI@?$AAr?$AAu@ 10024570     libucrt:lcidtoname_downlevel.obj
 0002:00004578       ??_C@_15GLKMLLHM@?$AAh?$AAr@ 10024578     libucrt:lcidtoname_downlevel.obj
 0002:00004580       ??_C@_15CPKMFBDB@?$AAs?$AAk@ 10024580     libucrt:lcidtoname_downlevel.obj
 0002:00004588       ??_C@_15BAAIOGMK@?$AAs?$AAq@ 10024588     libucrt:lcidtoname_downlevel.obj
 0002:00004590       ??_C@_15INNPNOHD@?$AAs?$AAv@ 10024590     libucrt:lcidtoname_downlevel.obj
 0002:00004598       ??_C@_15CABMMOGH@?$AAt?$AAh@ 10024598     libucrt:lcidtoname_downlevel.obj
 0002:000045a0       ??_C@_15BPLIHJJM@?$AAt?$AAr@ 100245a0     libucrt:lcidtoname_downlevel.obj
 0002:000045a8       ??_C@_15NEOEKKDJ@?$AAu?$AAr@ 100245a8     libucrt:lcidtoname_downlevel.obj
 0002:000045b0       ??_C@_15NFICGAJK@?$AAi?$AAd@ 100245b0     libucrt:lcidtoname_downlevel.obj
 0002:000045b8       ??_C@_15PJPFLCCM@?$AAu?$AAk@ 100245b8     libucrt:lcidtoname_downlevel.obj
 0002:000045c0       ??_C@_15HPJPHDM@?$AAb?$AAe@ 100245c0     libucrt:lcidtoname_downlevel.obj
 0002:000045c8       ??_C@_15LCHLGJII@?$AAs?$AAl@ 100245c8     libucrt:lcidtoname_downlevel.obj
 0002:000045d0       ??_C@_15PCFJPHHO@?$AAe?$AAt@ 100245d0     libucrt:lcidtoname_downlevel.obj
 0002:000045d8       ??_C@_15HPFPGODN@?$AAl?$AAv@ 100245d8     libucrt:lcidtoname_downlevel.obj
 0002:000045e0       ??_C@_15NFFGKGLG@?$AAl?$AAt@ 100245e0     libucrt:lcidtoname_downlevel.obj
 0002:000045e8       ??_C@_15BDAKCCHN@?$AAf?$AAa@ 100245e8     libucrt:lcidtoname_downlevel.obj
 0002:000045f0       ??_C@_15NFGIAIAJ@?$AAv?$AAi@ 100245f0     libucrt:lcidtoname_downlevel.obj
 0002:000045f8       ??_C@_15LMKNDMHN@?$AAh?$AAy@ 100245f8     libucrt:lcidtoname_downlevel.obj
 0002:00004600       ??_C@_15IJBHMCFL@?$AAa?$AAz@ 10024600     libucrt:lcidtoname_downlevel.obj
 0002:00004608       ??_C@_15EKOFJABL@?$AAe?$AAu@ 10024608     libucrt:lcidtoname_downlevel.obj
 0002:00004610       ??_C@_15BGHADCNK@?$AAm?$AAk@ 10024610     libucrt:lcidtoname_downlevel.obj
 0002:00004618       ??_C@_15JDNICKHM@?$AAa?$AAf@ 10024618     libucrt:lcidtoname_downlevel.obj
 0002:00004620       ??_C@_15KPJEDBKD@?$AAk?$AAa@ 10024620     libucrt:lcidtoname_downlevel.obj
 0002:00004628       ??_C@_15PDNFFFEO@?$AAf?$AAo@ 10024628     libucrt:lcidtoname_downlevel.obj
 0002:00004630       ??_C@_15OMLEGLOC@?$AAh?$AAi@ 10024630     libucrt:lcidtoname_downlevel.obj
 0002:00004638       ??_C@_15IDNNENKK@?$AAm?$AAs@ 10024638     libucrt:lcidtoname_downlevel.obj
 0002:00004640       ??_C@_15MACJNBMH@?$AAk?$AAk@ 10024640     libucrt:lcidtoname_downlevel.obj
 0002:00004648       ??_C@_15DKDJEOND@?$AAk?$AAy@ 10024648     libucrt:lcidtoname_downlevel.obj
 0002:00004650       ??_C@_15DFGDLJBG@?$AAs?$AAw@ 10024650     libucrt:lcidtoname_downlevel.obj
 0002:00004658       ??_C@_15BBFAICNG@?$AAu?$AAz@ 10024658     libucrt:lcidtoname_downlevel.obj
 0002:00004660       ??_C@_15DKNDCGEA@?$AAt?$AAt@ 10024660     libucrt:lcidtoname_downlevel.obj
 0002:00004668       ??_C@_15MGIFMDPL@?$AAp?$AAa@ 10024668     libucrt:lcidtoname_downlevel.obj
 0002:00004670       ??_C@_15HCNDBBA@?$AAg?$AAu@ 10024670     libucrt:lcidtoname_downlevel.obj
 0002:00004678       ??_C@_15FNBEIBON@?$AAt?$AAa@ 10024678     libucrt:lcidtoname_downlevel.obj
 0002:00004680       ??_C@_15NCHGBGLK@?$AAt?$AAe@ 10024680     libucrt:lcidtoname_downlevel.obj
 0002:00004688       ??_C@_15PHPHCBPF@?$AAk?$AAn@ 10024688     libucrt:lcidtoname_downlevel.obj
 0002:00004690       ??_C@_15DLGBCKMP@?$AAm?$AAr@ 10024690     libucrt:lcidtoname_downlevel.obj
 0002:00004698       ??_C@_15EABBLBFF@?$AAs?$AAa@ 10024698     libucrt:lcidtoname_downlevel.obj
 0002:000046a0       ??_C@_15CBKOMCOI@?$AAm?$AAn@ 100246a0     libucrt:lcidtoname_downlevel.obj
 0002:000046a8       ??_C@_15CKDMCJAF@?$AAg?$AAl@ 100246a8     libucrt:lcidtoname_downlevel.obj
 0002:000046b0       ??_C@_17CNJFBPG@?$AAk?$AAo?$AAk@ 100246b0     libucrt:lcidtoname_downlevel.obj
 0002:000046b8       ??_C@_17FFBJICPL@?$AAs?$AAy?$AAr@ 100246b8     libucrt:lcidtoname_downlevel.obj
 0002:000046c0       ??_C@_17KPNDCPAF@?$AAd?$AAi?$AAv@ 100246c0     libucrt:lcidtoname_downlevel.obj
 0002:000046c8       ??_C@_1M@OKAHONE@?$AAa?$AAr?$AA?9?$AAS?$AAA@ 100246c8     libucrt:lcidtoname_downlevel.obj
 0002:000046d4       ??_C@_1M@FFFIGIGK@?$AAb?$AAg?$AA?9?$AAB?$AAG@ 100246d4     libucrt:lcidtoname_downlevel.obj
 0002:000046e0       ??_C@_1M@BJNKEDC@?$AAc?$AAa?$AA?9?$AAE?$AAS@ 100246e0     libucrt:lcidtoname_downlevel.obj
 0002:000046ec       ??_C@_1M@IJJHFJHA@?$AAc?$AAs?$AA?9?$AAC?$AAZ@ 100246ec     libucrt:lcidtoname_downlevel.obj
 0002:000046f8       ??_C@_1M@CLPEOBGI@?$AAd?$AAa?$AA?9?$AAD?$AAK@ 100246f8     libucrt:lcidtoname_downlevel.obj
 0002:00004704       ??_C@_1M@MCMADGCB@?$AAd?$AAe?$AA?9?$AAD?$AAE@ 10024704     libucrt:lcidtoname_downlevel.obj
 0002:00004710       ??_C@_1M@OOCKEMAM@?$AAe?$AAl?$AA?9?$AAG?$AAR@ 10024710     libucrt:lcidtoname_downlevel.obj
 0002:0000471c       ??_C@_1M@DDNJFGID@?$AAf?$AAi?$AA?9?$AAF?$AAI@ 1002471c     libucrt:lcidtoname_downlevel.obj
 0002:00004728       ??_C@_1M@GLIPPMAC@?$AAf?$AAr?$AA?9?$AAF?$AAR@ 10024728     libucrt:lcidtoname_downlevel.obj
 0002:00004734       ??_C@_1M@GFMCHPE@?$AAh?$AAe?$AA?9?$AAI?$AAL@ 10024734     libucrt:lcidtoname_downlevel.obj
 0002:00004740       ??_C@_1M@MHLPGNKM@?$AAh?$AAu?$AA?9?$AAH?$AAU@ 10024740     libucrt:lcidtoname_downlevel.obj
 0002:0000474c       ??_C@_1M@LPDDNNPN@?$AAi?$AAs?$AA?9?$AAI?$AAS@ 1002474c     libucrt:lcidtoname_downlevel.obj
 0002:00004758       ??_C@_1M@MADIPODN@?$AAi?$AAt?$AA?9?$AAI?$AAT@ 10024758     libucrt:lcidtoname_downlevel.obj
 0002:00004764       ??_C@_1M@IHBJJGG@?$AAn?$AAl?$AA?9?$AAN?$AAL@ 10024764     libucrt:lcidtoname_downlevel.obj
 0002:00004770       ??_C@_1M@EANAGDL@?$AAn?$AAb?$AA?9?$AAN?$AAO@ 10024770     libucrt:lcidtoname_downlevel.obj
 0002:0000477c       ??_C@_1M@NEIEMEGP@?$AAp?$AAl?$AA?9?$AAP?$AAL@ 1002477c     libucrt:lcidtoname_downlevel.obj
 0002:00004788       ??_C@_1M@BOCFIGEP@?$AAp?$AAt?$AA?9?$AAB?$AAR@ 10024788     libucrt:lcidtoname_downlevel.obj
 0002:00004794       ??_C@_1M@IMPFOPBG@?$AAr?$AAo?$AA?9?$AAR?$AAO@ 10024794     libucrt:lcidtoname_downlevel.obj
 0002:000047a0       ??_C@_1M@IDNNEJMM@?$AAr?$AAu?$AA?9?$AAR?$AAU@ 100247a0     libucrt:lcidtoname_downlevel.obj
 0002:000047ac       ??_C@_1M@LILEEOGM@?$AAh?$AAr?$AA?9?$AAH?$AAR@ 100247ac     libucrt:lcidtoname_downlevel.obj
 0002:000047b8       ??_C@_1M@FKIFEHPB@?$AAs?$AAk?$AA?9?$AAS?$AAK@ 100247b8     libucrt:lcidtoname_downlevel.obj
 0002:000047c4       ??_C@_1M@LJMAMNPJ@?$AAs?$AAq?$AA?9?$AAA?$AAL@ 100247c4     libucrt:lcidtoname_downlevel.obj
 0002:000047d0       ??_C@_1M@GIAKDKJK@?$AAs?$AAv?$AA?9?$AAS?$AAE@ 100247d0     libucrt:lcidtoname_downlevel.obj
 0002:000047dc       ??_C@_1M@MKJKIKCL@?$AAt?$AAh?$AA?9?$AAT?$AAH@ 100247dc     libucrt:lcidtoname_downlevel.obj
 0002:000047e8       ??_C@_1M@MFLCCMPB@?$AAt?$AAr?$AA?9?$AAT?$AAR@ 100247e8     libucrt:lcidtoname_downlevel.obj
 0002:000047f4       ??_C@_1M@OIJHDKJN@?$AAu?$AAr?$AA?9?$AAP?$AAK@ 100247f4     libucrt:lcidtoname_downlevel.obj
 0002:00004800       ??_C@_1M@LHIPCIEK@?$AAi?$AAd?$AA?9?$AAI?$AAD@ 10024800     libucrt:lcidtoname_downlevel.obj
 0002:0000480c       ??_C@_1M@MFMOBGI@?$AAu?$AAk?$AA?9?$AAU?$AAA@ 1002480c     libucrt:lcidtoname_downlevel.obj
 0002:00004818       ??_C@_1M@OBGLJIPL@?$AAb?$AAe?$AA?9?$AAB?$AAY@ 10024818     libucrt:lcidtoname_downlevel.obj
 0002:00004824       ??_C@_1M@BCFAJEAD@?$AAs?$AAl?$AA?9?$AAS?$AAI@ 10024824     libucrt:lcidtoname_downlevel.obj
 0002:00004830       ??_C@_1M@FKFFEDDN@?$AAe?$AAt?$AA?9?$AAE?$AAE@ 10024830     libucrt:lcidtoname_downlevel.obj
 0002:0000483c       ??_C@_1M@KGKKAACI@?$AAl?$AAv?$AA?9?$AAL?$AAV@ 1002483c     libucrt:lcidtoname_downlevel.obj
 0002:00004848       ??_C@_1M@IFGBIJO@?$AAl?$AAt?$AA?9?$AAL?$AAT@ 10024848     libucrt:lcidtoname_downlevel.obj
 0002:00004854       ??_C@_1M@FGEAHEDM@?$AAf?$AAa?$AA?9?$AAI?$AAR@ 10024854     libucrt:lcidtoname_downlevel.obj
 0002:00004860       ??_C@_1M@KBMAIBFN@?$AAv?$AAi?$AA?9?$AAV?$AAN@ 10024860     libucrt:lcidtoname_downlevel.obj
 0002:0000486c       ??_C@_1M@GPCBKDJK@?$AAh?$AAy?$AA?9?$AAA?$AAM@ 1002486c     libucrt:lcidtoname_downlevel.obj
 0002:00004878       ??_C@_1BG@BECMDDJB@?$AAa?$AAz?$AA?9?$AAA?$AAZ?$AA?9?$AAL?$AAa?$AAt?$AAn@ 10024878     libucrt:lcidtoname_downlevel.obj
 0002:00004890       ??_C@_1M@MAOFCAEA@?$AAe?$AAu?$AA?9?$AAE?$AAS@ 10024890     libucrt:lcidtoname_downlevel.obj
 0002:0000489c       ??_C@_1M@IGHABKPI@?$AAm?$AAk?$AA?9?$AAM?$AAK@ 1002489c     libucrt:lcidtoname_downlevel.obj
 0002:000048a8       ??_C@_1M@IAIGNEJG@?$AAt?$AAn?$AA?9?$AAZ?$AAA@ 100248a8     libucrt:lcidtoname_downlevel.obj
 0002:000048b4       ??_C@_1M@IIJCOJFA@?$AAx?$AAh?$AA?9?$AAZ?$AAA@ 100248b4     libucrt:lcidtoname_downlevel.obj
 0002:000048c0       ??_C@_1M@LGPJHNJH@?$AAz?$AAu?$AA?9?$AAZ?$AAA@ 100248c0     libucrt:lcidtoname_downlevel.obj
 0002:000048cc       ??_C@_1M@HOKAOIO@?$AAa?$AAf?$AA?9?$AAZ?$AAA@ 100248cc     libucrt:lcidtoname_downlevel.obj
 0002:000048d8       ??_C@_1M@DPCLHLIE@?$AAk?$AAa?$AA?9?$AAG?$AAE@ 100248d8     libucrt:lcidtoname_downlevel.obj
 0002:000048e4       ??_C@_1M@BLKMHJBI@?$AAf?$AAo?$AA?9?$AAF?$AAO@ 100248e4     libucrt:lcidtoname_downlevel.obj
 0002:000048f0       ??_C@_1M@LGGJAPPB@?$AAh?$AAi?$AA?9?$AAI?$AAN@ 100248f0     libucrt:lcidtoname_downlevel.obj
 0002:000048fc       ??_C@_1M@FIKPIHFE@?$AAm?$AAt?$AA?9?$AAM?$AAT@ 100248fc     libucrt:lcidtoname_downlevel.obj
 0002:00004908       ??_C@_1M@HEGGPBFA@?$AAs?$AAe?$AA?9?$AAN?$AAO@ 10024908     libucrt:lcidtoname_downlevel.obj
 0002:00004914       ??_C@_1M@EIBJEEPA@?$AAm?$AAs?$AA?9?$AAM?$AAY@ 10024914     libucrt:lcidtoname_downlevel.obj
 0002:00004920       ??_C@_1M@FHLBGMPP@?$AAk?$AAk?$AA?9?$AAK?$AAZ@ 10024920     libucrt:lcidtoname_downlevel.obj
 0002:0000492c       ??_C@_1M@NGJJLCGI@?$AAk?$AAy?$AA?9?$AAK?$AAG@ 1002492c     libucrt:lcidtoname_downlevel.obj
 0002:00004938       ??_C@_1M@GIENNBFC@?$AAs?$AAw?$AA?9?$AAK?$AAE@ 10024938     libucrt:lcidtoname_downlevel.obj
 0002:00004944       ??_C@_1BG@NDGMJIMJ@?$AAu?$AAz?$AA?9?$AAU?$AAZ?$AA?9?$AAL?$AAa?$AAt?$AAn@ 10024944     libucrt:lcidtoname_downlevel.obj
 0002:0000495c       ??_C@_1M@IDCCIHBC@?$AAt?$AAt?$AA?9?$AAR?$AAU@ 1002495c     libucrt:lcidtoname_downlevel.obj
 0002:00004968       ??_C@_1M@LOICPMOJ@?$AAb?$AAn?$AA?9?$AAI?$AAN@ 10024968     libucrt:lcidtoname_downlevel.obj
 0002:00004974       ??_C@_1M@KPKKNEAH@?$AAp?$AAa?$AA?9?$AAI?$AAN@ 10024974     libucrt:lcidtoname_downlevel.obj
 0002:00004980       ??_C@_1M@PJGPPBOG@?$AAg?$AAu?$AA?9?$AAI?$AAN@ 10024980     libucrt:lcidtoname_downlevel.obj
 0002:0000498c       ??_C@_1M@KMKMOPHI@?$AAt?$AAa?$AA?9?$AAI?$AAN@ 1002498c     libucrt:lcidtoname_downlevel.obj
 0002:00004998       ??_C@_1M@KFEHEPAC@?$AAt?$AAe?$AA?9?$AAI?$AAN@ 10024998     libucrt:lcidtoname_downlevel.obj
 0002:000049a4       ??_C@_1M@CDCLMGHI@?$AAk?$AAn?$AA?9?$AAI?$AAN@ 100249a4     libucrt:lcidtoname_downlevel.obj
 0002:000049b0       ??_C@_1M@MIODLDKF@?$AAm?$AAl?$AA?9?$AAI?$AAN@ 100249b0     libucrt:lcidtoname_downlevel.obj
 0002:000049bc       ??_C@_1M@PBIEACPO@?$AAm?$AAr?$AA?9?$AAI?$AAN@ 100249bc     libucrt:lcidtoname_downlevel.obj
 0002:000049c8       ??_C@_1M@NIDEAGPH@?$AAs?$AAa?$AA?9?$AAI?$AAN@ 100249c8     libucrt:lcidtoname_downlevel.obj
 0002:000049d4       ??_C@_1M@FHIHCBIO@?$AAm?$AAn?$AA?9?$AAM?$AAN@ 100249d4     libucrt:lcidtoname_downlevel.obj
 0002:000049e0       ??_C@_1M@JAIJPENP@?$AAc?$AAy?$AA?9?$AAG?$AAB@ 100249e0     libucrt:lcidtoname_downlevel.obj
 0002:000049ec       ??_C@_1M@PHGFBEPN@?$AAg?$AAl?$AA?9?$AAE?$AAS@ 100249ec     libucrt:lcidtoname_downlevel.obj
 0002:000049f8       ??_C@_1O@KPIPDNCP@?$AAk?$AAo?$AAk?$AA?9?$AAI?$AAN@ 100249f8     libucrt:lcidtoname_downlevel.obj
 0002:00004a08       ??_C@_1O@KNHJLDJA@?$AAs?$AAy?$AAr?$AA?9?$AAS?$AAY@ 10024a08     libucrt:lcidtoname_downlevel.obj
 0002:00004a18       ??_C@_1O@MKEKBLAH@?$AAd?$AAi?$AAv?$AA?9?$AAM?$AAV@ 10024a18     libucrt:lcidtoname_downlevel.obj
 0002:00004a28       ??_C@_1O@OHDCKDDF@?$AAq?$AAu?$AAz?$AA?9?$AAB?$AAO@ 10024a28     libucrt:lcidtoname_downlevel.obj
 0002:00004a38       ??_C@_1M@LEPJNLFD@?$AAn?$AAs?$AA?9?$AAZ?$AAA@ 10024a38     libucrt:lcidtoname_downlevel.obj
 0002:00004a44       ??_C@_1M@OMLEIIJB@?$AAm?$AAi?$AA?9?$AAN?$AAZ@ 10024a44     libucrt:lcidtoname_downlevel.obj
 0002:00004a50       ??_C@_1M@PMPEAILG@?$AAa?$AAr?$AA?9?$AAI?$AAQ@ 10024a50     libucrt:lcidtoname_downlevel.obj
 0002:00004a5c       ??_C@_1M@CNKPNOEE@?$AAd?$AAe?$AA?9?$AAC?$AAH@ 10024a5c     libucrt:lcidtoname_downlevel.obj
 0002:00004a68       ??_C@_1M@LKMGMLKO@?$AAe?$AAn?$AA?9?$AAG?$AAB@ 10024a68     libucrt:lcidtoname_downlevel.obj
 0002:00004a74       ??_C@_1M@PGKJFFGL@?$AAe?$AAs?$AA?9?$AAM?$AAX@ 10024a74     libucrt:lcidtoname_downlevel.obj
 0002:00004a80       ??_C@_1M@DNNANBDC@?$AAf?$AAr?$AA?9?$AAB?$AAE@ 10024a80     libucrt:lcidtoname_downlevel.obj
 0002:00004a8c       ??_C@_1M@HLGMDFHM@?$AAi?$AAt?$AA?9?$AAC?$AAH@ 10024a8c     libucrt:lcidtoname_downlevel.obj
 0002:00004a98       ??_C@_1M@CLLBGJH@?$AAn?$AAl?$AA?9?$AAB?$AAE@ 10024a98     libucrt:lcidtoname_downlevel.obj
 0002:00004aa4       ??_C@_1M@BODBOGLF@?$AAn?$AAn?$AA?9?$AAN?$AAO@ 10024aa4     libucrt:lcidtoname_downlevel.obj
 0002:00004ab0       ??_C@_1M@HFFAHKAD@?$AAp?$AAt?$AA?9?$AAP?$AAT@ 10024ab0     libucrt:lcidtoname_downlevel.obj
 0002:00004abc       ??_C@_1BG@LNOAKHIE@?$AAs?$AAr?$AA?9?$AAS?$AAP?$AA?9?$AAL?$AAa?$AAt?$AAn@ 10024abc     libucrt:lcidtoname_downlevel.obj
 0002:00004ad4       ??_C@_1M@HBMHBGAK@?$AAs?$AAv?$AA?9?$AAF?$AAI@ 10024ad4     libucrt:lcidtoname_downlevel.obj
 0002:00004ae0       ??_C@_1BG@DGCJGJBE@?$AAa?$AAz?$AA?9?$AAA?$AAZ?$AA?9?$AAC?$AAy?$AAr?$AAl@ 10024ae0     libucrt:lcidtoname_downlevel.obj
 0002:00004af8       ??_C@_1M@KEJDAAHB@?$AAs?$AAe?$AA?9?$AAS?$AAE@ 10024af8     libucrt:lcidtoname_downlevel.obj
 0002:00004b04       ??_C@_1M@HEIBJJAD@?$AAm?$AAs?$AA?9?$AAB?$AAN@ 10024b04     libucrt:lcidtoname_downlevel.obj
 0002:00004b10       ??_C@_1BG@PBGJMCEM@?$AAu?$AAz?$AA?9?$AAU?$AAZ?$AA?9?$AAC?$AAy?$AAr?$AAl@ 10024b10     libucrt:lcidtoname_downlevel.obj
 0002:00004b28       ??_C@_1O@LAOBCMDF@?$AAq?$AAu?$AAz?$AA?9?$AAE?$AAC@ 10024b28     libucrt:lcidtoname_downlevel.obj
 0002:00004b38       ??_C@_1M@POEEMAIO@?$AAa?$AAr?$AA?9?$AAE?$AAG@ 10024b38     libucrt:lcidtoname_downlevel.obj
 0002:00004b44       ??_C@_1M@EFAKDEDL@?$AAz?$AAh?$AA?9?$AAH?$AAK@ 10024b44     libucrt:lcidtoname_downlevel.obj
 0002:00004b50       ??_C@_1M@HKKIJHGI@?$AAd?$AAe?$AA?9?$AAA?$AAT@ 10024b50     libucrt:lcidtoname_downlevel.obj
 0002:00004b5c       ??_C@_1M@KBFBEHJF@?$AAe?$AAn?$AA?9?$AAA?$AAU@ 10024b5c     libucrt:lcidtoname_downlevel.obj
 0002:00004b68       ??_C@_1M@MNPLFAAH@?$AAe?$AAs?$AA?9?$AAE?$AAS@ 10024b68     libucrt:lcidtoname_downlevel.obj
 0002:00004b74       ??_C@_1M@HJOOJFMA@?$AAf?$AAr?$AA?9?$AAC?$AAA@ 10024b74     libucrt:lcidtoname_downlevel.obj
 0002:00004b80       ??_C@_1BG@JPOFPNAB@?$AAs?$AAr?$AA?9?$AAS?$AAP?$AA?9?$AAC?$AAy?$AAr?$AAl@ 10024b80     libucrt:lcidtoname_downlevel.obj
 0002:00004b98       ??_C@_1M@LNFOCMOB@?$AAs?$AAe?$AA?9?$AAF?$AAI@ 10024b98     libucrt:lcidtoname_downlevel.obj
 0002:00004ba4       ??_C@_1O@MGJBOAMB@?$AAq?$AAu?$AAz?$AA?9?$AAP?$AAE@ 10024ba4     libucrt:lcidtoname_downlevel.obj
 0002:00004bb4       ??_C@_1M@GJINLBOK@?$AAa?$AAr?$AA?9?$AAL?$AAY@ 10024bb4     libucrt:lcidtoname_downlevel.obj
 0002:00004bc0       ??_C@_1M@GGMNHJNL@?$AAz?$AAh?$AA?9?$AAS?$AAG@ 10024bc0     libucrt:lcidtoname_downlevel.obj
 0002:00004bcc       ??_C@_1M@HOIKODND@?$AAd?$AAe?$AA?9?$AAL?$AAU@ 10024bcc     libucrt:lcidtoname_downlevel.obj
 0002:00004bd8       ??_C@_1M@DDOCCGFG@?$AAe?$AAn?$AA?9?$AAC?$AAA@ 10024bd8     libucrt:lcidtoname_downlevel.obj
 0002:00004be4       ??_C@_1M@BNOEMJLF@?$AAe?$AAs?$AA?9?$AAG?$AAT@ 10024be4     libucrt:lcidtoname_downlevel.obj
 0002:00004bf0       ??_C@_1M@EOGNKEK@?$AAf?$AAr?$AA?9?$AAC?$AAH@ 10024bf0     libucrt:lcidtoname_downlevel.obj
 0002:00004bfc       ??_C@_1M@FLIDJFHL@?$AAh?$AAr?$AA?9?$AAB?$AAA@ 10024bfc     libucrt:lcidtoname_downlevel.obj
 0002:00004c08       ??_C@_1O@FMCELNAJ@?$AAs?$AAm?$AAj?$AA?9?$AAN?$AAO@ 10024c08     libucrt:lcidtoname_downlevel.obj
 0002:00004c18       ??_C@_1M@JHGLJMGJ@?$AAa?$AAr?$AA?9?$AAD?$AAZ@ 10024c18     libucrt:lcidtoname_downlevel.obj
 0002:00004c24       ??_C@_1M@JKKFDCNP@?$AAz?$AAh?$AA?9?$AAM?$AAO@ 10024c24     libucrt:lcidtoname_downlevel.obj
 0002:00004c30       ??_C@_1M@GEEFALPE@?$AAd?$AAe?$AA?9?$AAL?$AAI@ 10024c30     libucrt:lcidtoname_downlevel.obj
 0002:00004c3c       ??_C@_1M@IGEOFBG@?$AAe?$AAn?$AA?9?$AAN?$AAZ@ 10024c3c     libucrt:lcidtoname_downlevel.obj
 0002:00004c48       ??_C@_1M@KDBONEHP@?$AAe?$AAs?$AA?9?$AAC?$AAR@ 10024c48     libucrt:lcidtoname_downlevel.obj
 0002:00004c54       ??_C@_1M@FHMDOHNN@?$AAf?$AAr?$AA?9?$AAL?$AAU@ 10024c54     libucrt:lcidtoname_downlevel.obj
 0002:00004c60       ??_C@_1BG@NFKKMAFG@?$AAb?$AAs?$AA?9?$AAB?$AAA?$AA?9?$AAL?$AAa?$AAt?$AAn@ 10024c60     libucrt:lcidtoname_downlevel.obj
 0002:00004c78       ??_C@_1O@IMNBEMCI@?$AAs?$AAm?$AAj?$AA?9?$AAS?$AAE@ 10024c78     libucrt:lcidtoname_downlevel.obj
 0002:00004c88       ??_C@_1M@DHHMBNDP@?$AAa?$AAr?$AA?9?$AAM?$AAA@ 10024c88     libucrt:lcidtoname_downlevel.obj
 0002:00004c94       ??_C@_1M@BNBLJCGH@?$AAe?$AAn?$AA?9?$AAI?$AAE@ 10024c94     libucrt:lcidtoname_downlevel.obj
 0002:00004ca0       ??_C@_1M@GEPAFMDL@?$AAe?$AAs?$AA?9?$AAP?$AAA@ 10024ca0     libucrt:lcidtoname_downlevel.obj
 0002:00004cac       ??_C@_1M@OJONDMDL@?$AAf?$AAr?$AA?9?$AAM?$AAC@ 10024cac     libucrt:lcidtoname_downlevel.obj
 0002:00004cb8       ??_C@_1BG@OBCNFJB@?$AAs?$AAr?$AA?9?$AAB?$AAA?$AA?9?$AAL?$AAa?$AAt?$AAn@ 10024cb8     libucrt:lcidtoname_downlevel.obj
 0002:00004cd0       ??_C@_1O@KEMEEGPO@?$AAs?$AAm?$AAa?$AA?9?$AAN?$AAO@ 10024cd0     libucrt:lcidtoname_downlevel.obj
 0002:00004ce0       ??_C@_1M@ELMGFODK@?$AAa?$AAr?$AA?9?$AAT?$AAN@ 10024ce0     libucrt:lcidtoname_downlevel.obj
 0002:00004cec       ??_C@_1M@BHDLHFAF@?$AAe?$AAn?$AA?9?$AAZ?$AAA@ 10024cec     libucrt:lcidtoname_downlevel.obj
 0002:00004cf8       ??_C@_1M@BMGIGLIF@?$AAe?$AAs?$AA?9?$AAD?$AAO@ 10024cf8     libucrt:lcidtoname_downlevel.obj
 0002:00004d04       ??_C@_1BG@CMBHIPBE@?$AAs?$AAr?$AA?9?$AAB?$AAA?$AA?9?$AAC?$AAy?$AAr?$AAl@ 10024d04     libucrt:lcidtoname_downlevel.obj
 0002:00004d1c       ??_C@_1O@HEDBLHNP@?$AAs?$AAm?$AAa?$AA?9?$AAS?$AAE@ 10024d1c     libucrt:lcidtoname_downlevel.obj
 0002:00004d2c       ??_C@_1M@DAGCADIM@?$AAa?$AAr?$AA?9?$AAO?$AAM@ 10024d2c     libucrt:lcidtoname_downlevel.obj
 0002:00004d38       ??_C@_1M@FODLMICG@?$AAe?$AAn?$AA?9?$AAJ?$AAM@ 10024d38     libucrt:lcidtoname_downlevel.obj
 0002:00004d44       ??_C@_1M@DNMLCIHB@?$AAe?$AAs?$AA?9?$AAV?$AAE@ 10024d44     libucrt:lcidtoname_downlevel.obj
 0002:00004d50       ??_C@_1O@EOKHMKJK@?$AAs?$AAm?$AAs?$AA?9?$AAF?$AAI@ 10024d50     libucrt:lcidtoname_downlevel.obj
 0002:00004d60       ??_C@_1M@CAFJMKOF@?$AAa?$AAr?$AA?9?$AAY?$AAE@ 10024d60     libucrt:lcidtoname_downlevel.obj
 0002:00004d6c       ??_C@_1M@CBFHIJLI@?$AAe?$AAn?$AA?9?$AAC?$AAB@ 10024d6c     libucrt:lcidtoname_downlevel.obj
 0002:00004d78       ??_C@_1M@BGNFLDN@?$AAe?$AAs?$AA?9?$AAC?$AAO@ 10024d78     libucrt:lcidtoname_downlevel.obj
 0002:00004d84       ??_C@_1O@JMPHMAMC@?$AAs?$AAm?$AAn?$AA?9?$AAF?$AAI@ 10024d84     libucrt:lcidtoname_downlevel.obj
 0002:00004d94       ??_C@_1M@JLANABKE@?$AAa?$AAr?$AA?9?$AAS?$AAY@ 10024d94     libucrt:lcidtoname_downlevel.obj
 0002:00004da0       ??_C@_1M@HPKGCFGN@?$AAe?$AAn?$AA?9?$AAB?$AAZ@ 10024da0     libucrt:lcidtoname_downlevel.obj
 0002:00004dac       ??_C@_1M@OLJCMLGM@?$AAe?$AAs?$AA?9?$AAP?$AAE@ 10024dac     libucrt:lcidtoname_downlevel.obj
 0002:00004db8       ??_C@_1M@MKKGFKLE@?$AAa?$AAr?$AA?9?$AAJ?$AAO@ 10024db8     libucrt:lcidtoname_downlevel.obj
 0002:00004dc4       ??_C@_1M@EKPGLDNI@?$AAe?$AAn?$AA?9?$AAT?$AAT@ 10024dc4     libucrt:lcidtoname_downlevel.obj
 0002:00004dd0       ??_C@_1M@OONGHFHE@?$AAe?$AAs?$AA?9?$AAA?$AAR@ 10024dd0     libucrt:lcidtoname_downlevel.obj
 0002:00004ddc       ??_C@_1M@OOJFGBHE@?$AAa?$AAr?$AA?9?$AAL?$AAB@ 10024ddc     libucrt:lcidtoname_downlevel.obj
 0002:00004de8       ??_C@_1M@GCEJHNEG@?$AAe?$AAn?$AA?9?$AAZ?$AAW@ 10024de8     libucrt:lcidtoname_downlevel.obj
 0002:00004df4       ??_C@_1M@JNOCAHJI@?$AAe?$AAs?$AA?9?$AAE?$AAC@ 10024df4     libucrt:lcidtoname_downlevel.obj
 0002:00004e00       ??_C@_1M@JEFHPGGB@?$AAa?$AAr?$AA?9?$AAK?$AAW@ 10024e00     libucrt:lcidtoname_downlevel.obj
 0002:00004e0c       ??_C@_1M@MLKIBJOJ@?$AAe?$AAn?$AA?9?$AAP?$AAH@ 10024e0c     libucrt:lcidtoname_downlevel.obj
 0002:00004e18       ??_C@_1M@BDNIPEND@?$AAe?$AAs?$AA?9?$AAC?$AAL@ 10024e18     libucrt:lcidtoname_downlevel.obj
 0002:00004e24       ??_C@_1M@MPNMEKBD@?$AAa?$AAr?$AA?9?$AAA?$AAE@ 10024e24     libucrt:lcidtoname_downlevel.obj
 0002:00004e30       ??_C@_1M@KBJALCPI@?$AAe?$AAs?$AA?9?$AAU?$AAY@ 10024e30     libucrt:lcidtoname_downlevel.obj
 0002:00004e3c       ??_C@_1M@LLCCOAGA@?$AAa?$AAr?$AA?9?$AAB?$AAH@ 10024e3c     libucrt:lcidtoname_downlevel.obj
 0002:00004e48       ??_C@_1M@PBFNCDEL@?$AAe?$AAs?$AA?9?$AAP?$AAY@ 10024e48     libucrt:lcidtoname_downlevel.obj
 0002:00004e54       ??_C@_1M@EDGINPNP@?$AAa?$AAr?$AA?9?$AAQ?$AAA@ 10024e54     libucrt:lcidtoname_downlevel.obj
 0002:00004e60       ??_C@_1M@MKDBIIJI@?$AAe?$AAs?$AA?9?$AAB?$AAO@ 10024e60     libucrt:lcidtoname_downlevel.obj
 0002:00004e6c       ??_C@_1M@CPKKEBLD@?$AAe?$AAs?$AA?9?$AAS?$AAV@ 10024e6c     libucrt:lcidtoname_downlevel.obj
 0002:00004e78       ??_C@_1M@NDBGMMJL@?$AAe?$AAs?$AA?9?$AAH?$AAN@ 10024e78     libucrt:lcidtoname_downlevel.obj
 0002:00004e84       ??_C@_1M@JIJIBHDP@?$AAe?$AAs?$AA?9?$AAN?$AAI@ 10024e84     libucrt:lcidtoname_downlevel.obj
 0002:00004e90       ??_C@_1M@CGFMKEEK@?$AAe?$AAs?$AA?9?$AAP?$AAR@ 10024e90     libucrt:lcidtoname_downlevel.obj
 0002:00004e9c       ??_C@_1O@ICJHKIIK@?$AAz?$AAh?$AA?9?$AAC?$AAH?$AAT@ 10024e9c     libucrt:lcidtoname_downlevel.obj
 0002:00004eac       ??_C@_15CLNEJCE@?$AAs?$AAr@ 10024eac     libucrt:lcidtoname_downlevel.obj
 0002:000055d8       ??_C@_1M@KAHEKEIG@?$AAa?$AAf?$AA?9?$AAz?$AAa@ 100255d8     libucrt:lcidtoname_downlevel.obj
 0002:000055e4       ??_C@_1M@GIECOABL@?$AAa?$AAr?$AA?9?$AAa?$AAe@ 100255e4     libucrt:lcidtoname_downlevel.obj
 0002:000055f0       ??_C@_1M@BMLMEKGI@?$AAa?$AAr?$AA?9?$AAb?$AAh@ 100255f0     libucrt:lcidtoname_downlevel.obj
 0002:000055fc       ??_C@_1M@DAPFDGGB@?$AAa?$AAr?$AA?9?$AAd?$AAz@ 100255fc     libucrt:lcidtoname_downlevel.obj
 0002:00005608       ??_C@_1M@FJNKGKIG@?$AAa?$AAr?$AA?9?$AAe?$AAg@ 10025608     libucrt:lcidtoname_downlevel.obj
 0002:00005614       ??_C@_1M@FLGKKCLO@?$AAa?$AAr?$AA?9?$AAi?$AAq@ 10025614     libucrt:lcidtoname_downlevel.obj
 0002:00005620       ??_C@_1M@GNDIPALM@?$AAa?$AAr?$AA?9?$AAj?$AAo@ 10025620     libucrt:lcidtoname_downlevel.obj
 0002:0000562c       ??_C@_1M@DDMJFMGJ@?$AAa?$AAr?$AA?9?$AAk?$AAw@ 1002562c     libucrt:lcidtoname_downlevel.obj
 0002:00005638       ??_C@_1M@EJALMLHM@?$AAa?$AAr?$AA?9?$AAl?$AAb@ 10025638     libucrt:lcidtoname_downlevel.obj
 0002:00005644       ??_C@_1M@MOBDBLOC@?$AAa?$AAr?$AA?9?$AAl?$AAy@ 10025644     libucrt:lcidtoname_downlevel.obj
 0002:00005650       ??_C@_1M@JAOCLHDH@?$AAa?$AAr?$AA?9?$AAm?$AAa@ 10025650     libucrt:lcidtoname_downlevel.obj
 0002:0000565c       ??_C@_1M@JHPMKJIE@?$AAa?$AAr?$AA?9?$AAo?$AAm@ 1002565c     libucrt:lcidtoname_downlevel.obj
 0002:00005668       ??_C@_1M@OEPGHFNH@?$AAa?$AAr?$AA?9?$AAq?$AAa@ 10025668     libucrt:lcidtoname_downlevel.obj
 0002:00005674       ??_C@_1M@KJDONENM@?$AAa?$AAr?$AA?9?$AAs?$AAa@ 10025674     libucrt:lcidtoname_downlevel.obj
 0002:00005680       ??_C@_1M@DMJDKLKM@?$AAa?$AAr?$AA?9?$AAs?$AAy@ 10025680     libucrt:lcidtoname_downlevel.obj
 0002:0000568c       ??_C@_1M@OMFIPEDC@?$AAa?$AAr?$AA?9?$AAt?$AAn@ 1002568c     libucrt:lcidtoname_downlevel.obj
 0002:00005698       ??_C@_1M@IHMHGAON@?$AAa?$AAr?$AA?9?$AAy?$AAe@ 10025698     libucrt:lcidtoname_downlevel.obj
 0002:000056a4       ??_C@_1BG@KDCPGJGB@?$AAa?$AAz?$AA?9?$AAa?$AAz?$AA?9?$AAc?$AAy?$AAr?$AAl@ 100256a4     libucrt:lcidtoname_downlevel.obj
 0002:000056bc       ??_C@_1BG@IBCKDDOE@?$AAa?$AAz?$AA?9?$AAa?$AAz?$AA?9?$AAl?$AAa?$AAt?$AAn@ 100256bc     libucrt:lcidtoname_downlevel.obj
 0002:000056d4       ??_C@_1M@EGPFDCPD@?$AAb?$AAe?$AA?9?$AAb?$AAy@ 100256d4     libucrt:lcidtoname_downlevel.obj
 0002:000056e0       ??_C@_1M@PCMGMCGC@?$AAb?$AAg?$AA?9?$AAb?$AAg@ 100256e0     libucrt:lcidtoname_downlevel.obj
 0002:000056ec       ??_C@_1M@BJBMFGOB@?$AAb?$AAn?$AA?9?$AAi?$AAn@ 100256ec     libucrt:lcidtoname_downlevel.obj
 0002:000056f8       ??_C@_1BG@EAKMMACD@?$AAb?$AAs?$AA?9?$AAb?$AAa?$AA?9?$AAl?$AAa?$AAt?$AAn@ 100256f8     libucrt:lcidtoname_downlevel.obj
 0002:00005710       ??_C@_1M@KGADAODK@?$AAc?$AAa?$AA?9?$AAe?$AAs@ 10025710     libucrt:lcidtoname_downlevel.obj
 0002:0000571c       ??_C@_1M@COAJPDHI@?$AAc?$AAs?$AA?9?$AAc?$AAz@ 1002571c     libucrt:lcidtoname_downlevel.obj
 0002:00005728       ??_C@_1M@DHBHFONH@?$AAc?$AAy?$AA?9?$AAg?$AAb@ 10025728     libucrt:lcidtoname_downlevel.obj
 0002:00005734       ??_C@_1M@IMGKELGA@?$AAd?$AAa?$AA?9?$AAd?$AAk@ 10025734     libucrt:lcidtoname_downlevel.obj
 0002:00005740       ??_C@_1M@NNDGDNGA@?$AAd?$AAe?$AA?9?$AAa?$AAt@ 10025740     libucrt:lcidtoname_downlevel.obj
 0002:0000574c       ??_C@_1M@IKDBHEEM@?$AAd?$AAe?$AA?9?$AAc?$AAh@ 1002574c     libucrt:lcidtoname_downlevel.obj
 0002:00005758       ??_C@_1M@GFFOJMCJ@?$AAd?$AAe?$AA?9?$AAd?$AAe@ 10025758     libucrt:lcidtoname_downlevel.obj
 0002:00005764       ??_C@_1M@MDNLKBPM@?$AAd?$AAe?$AA?9?$AAl?$AAi@ 10025764     libucrt:lcidtoname_downlevel.obj
 0002:00005770       ??_C@_1M@NJBEEJNL@?$AAd?$AAe?$AA?9?$AAl?$AAu@ 10025770     libucrt:lcidtoname_downlevel.obj
 0002:0000577c       ??_C@_1O@GNNELBAP@?$AAd?$AAi?$AAv?$AA?9?$AAm?$AAv@ 1002577c     libucrt:lcidtoname_downlevel.obj
 0002:0000578c       ??_C@_1M@EJLEOGAE@?$AAe?$AAl?$AA?9?$AAg?$AAr@ 1002578c     libucrt:lcidtoname_downlevel.obj
 0002:00005798       ??_C@_1M@GMPONJN@?$AAe?$AAn?$AA?9?$AAa?$AAu@ 10025798     libucrt:lcidtoname_downlevel.obj
 0002:000057a4       ??_C@_1M@NIDIIPGF@?$AAe?$AAn?$AA?9?$AAb?$AAz@ 100257a4     libucrt:lcidtoname_downlevel.obj
 0002:000057b0       ??_C@_1M@JEHMIMFO@?$AAe?$AAn?$AA?9?$AAc?$AAa@ 100257b0     libucrt:lcidtoname_downlevel.obj
 0002:000057bc       ??_C@_1M@IGMJCDLA@?$AAe?$AAn?$AA?9?$AAc?$AAb@ 100257bc     libucrt:lcidtoname_downlevel.obj
 0002:000057c8       ??_C@_1M@BNFIGBKG@?$AAe?$AAn?$AA?9?$AAg?$AAb@ 100257c8     libucrt:lcidtoname_downlevel.obj
 0002:000057d4       ??_C@_1M@LKIFDIGP@?$AAe?$AAn?$AA?9?$AAi?$AAe@ 100257d4     libucrt:lcidtoname_downlevel.obj
 0002:000057e0       ??_C@_1M@PJKFGCCO@?$AAe?$AAn?$AA?9?$AAj?$AAm@ 100257e0     libucrt:lcidtoname_downlevel.obj
 0002:000057ec       ??_C@_1M@KPPKEPBO@?$AAe?$AAn?$AA?9?$AAn?$AAz@ 100257ec     libucrt:lcidtoname_downlevel.obj
 0002:000057f8       ??_C@_1M@GMDGLDOB@?$AAe?$AAn?$AA?9?$AAp?$AAh@ 100257f8     libucrt:lcidtoname_downlevel.obj
 0002:00005804       ??_C@_1M@ONGIBJNA@?$AAe?$AAn?$AA?9?$AAt?$AAt@ 10025804     libucrt:lcidtoname_downlevel.obj
 0002:00005810       ??_C@_1M@LLODPCMM@?$AAe?$AAn?$AA?9?$AAu?$AAs@ 10025810     libucrt:lcidtoname_downlevel.obj
 0002:0000581c       ??_C@_1M@LAKFNPAN@?$AAe?$AAn?$AA?9?$AAz?$AAa@ 1002581c     libucrt:lcidtoname_downlevel.obj
 0002:00005828       ??_C@_1M@MFNHNHEO@?$AAe?$AAn?$AA?9?$AAz?$AAw@ 10025828     libucrt:lcidtoname_downlevel.obj
 0002:00005834       ??_C@_1M@EJEINPHM@?$AAe?$AAs?$AA?9?$AAa?$AAr@ 10025834     libucrt:lcidtoname_downlevel.obj
 0002:00005840       ??_C@_1M@GNKPCCJA@?$AAe?$AAs?$AA?9?$AAb?$AAo@ 10025840     libucrt:lcidtoname_downlevel.obj
 0002:0000584c       ??_C@_1M@LEEGFONL@?$AAe?$AAs?$AA?9?$AAc?$AAl@ 1002584c     libucrt:lcidtoname_downlevel.obj
 0002:00005858       ??_C@_1M@KGPDPBDF@?$AAe?$AAs?$AA?9?$AAc?$AAo@ 10025858     libucrt:lcidtoname_downlevel.obj
 0002:00005864       ??_C@_1M@EIAHOHH@?$AAe?$AAs?$AA?9?$AAc?$AAr@ 10025864     libucrt:lcidtoname_downlevel.obj
 0002:00005870       ??_C@_1M@LLPGMBIN@?$AAe?$AAs?$AA?9?$AAd?$AAo@ 10025870     libucrt:lcidtoname_downlevel.obj
 0002:0000587c       ??_C@_1M@DKHMKNJA@?$AAe?$AAs?$AA?9?$AAe?$AAc@ 1002587c     libucrt:lcidtoname_downlevel.obj
 0002:00005888       ??_C@_1M@GKGFPKAP@?$AAe?$AAs?$AA?9?$AAe?$AAs@ 10025888     libucrt:lcidtoname_downlevel.obj
 0002:00005894       ??_C@_1M@LKHKGDLN@?$AAe?$AAs?$AA?9?$AAg?$AAt@ 10025894     libucrt:lcidtoname_downlevel.obj
 0002:000058a0       ??_C@_1M@HEIIGGJD@?$AAe?$AAs?$AA?9?$AAh?$AAn@ 100258a0     libucrt:lcidtoname_downlevel.obj
 0002:000058ac       ??_C@_1M@FBDHPPGD@?$AAe?$AAs?$AA?9?$AAm?$AAx@ 100258ac     libucrt:lcidtoname_downlevel.obj
 0002:000058b8       ??_C@_1M@DPAGLNDH@?$AAe?$AAs?$AA?9?$AAn?$AAi@ 100258b8     libucrt:lcidtoname_downlevel.obj
 0002:000058c4       ??_C@_1M@MDGOPGDD@?$AAe?$AAs?$AA?9?$AAp?$AAa@ 100258c4     libucrt:lcidtoname_downlevel.obj
 0002:000058d0       ??_C@_1M@EMAMGBGE@?$AAe?$AAs?$AA?9?$AAp?$AAe@ 100258d0     libucrt:lcidtoname_downlevel.obj
 0002:000058dc       ??_C@_1M@IBMCAOEC@?$AAe?$AAs?$AA?9?$AAp?$AAr@ 100258dc     libucrt:lcidtoname_downlevel.obj
 0002:000058e8       ??_C@_1M@FGMDIJED@?$AAe?$AAs?$AA?9?$AAp?$AAy@ 100258e8     libucrt:lcidtoname_downlevel.obj
 0002:000058f4       ??_C@_1M@IIDEOLLL@?$AAe?$AAs?$AA?9?$AAs?$AAv@ 100258f4     libucrt:lcidtoname_downlevel.obj
 0002:00005900       ??_C@_1M@GAOBIPA@?$AAe?$AAs?$AA?9?$AAu?$AAy@ 10025900     libucrt:lcidtoname_downlevel.obj
 0002:0000590c       ??_C@_1M@JKFFICHJ@?$AAe?$AAs?$AA?9?$AAv?$AAe@ 1002590c     libucrt:lcidtoname_downlevel.obj
 0002:00005918       ??_C@_1M@PNMLOJDF@?$AAe?$AAt?$AA?9?$AAe?$AAe@ 10025918     libucrt:lcidtoname_downlevel.obj
 0002:00005924       ??_C@_1M@GHHLIKEI@?$AAe?$AAu?$AA?9?$AAe?$AAs@ 10025924     libucrt:lcidtoname_downlevel.obj
 0002:00005930       ??_C@_1M@PBNONODE@?$AAf?$AAa?$AA?9?$AAi?$AAr@ 10025930     libucrt:lcidtoname_downlevel.obj
 0002:0000593c       ??_C@_1M@JEEHPMIL@?$AAf?$AAi?$AA?9?$AAf?$AAi@ 1002593c     libucrt:lcidtoname_downlevel.obj
 0002:00005948       ??_C@_1M@LMDCNDBA@?$AAf?$AAo?$AA?9?$AAf?$AAo@ 10025948     libucrt:lcidtoname_downlevel.obj
 0002:00005954       ??_C@_1M@JKEOHLDK@?$AAf?$AAr?$AA?9?$AAb?$AAe@ 10025954     libucrt:lcidtoname_downlevel.obj
 0002:00005960       ??_C@_1M@NOHADPMI@?$AAf?$AAr?$AA?9?$AAc?$AAa@ 10025960     libucrt:lcidtoname_downlevel.obj
 0002:0000596c       ??_C@_1M@KDHIHAEC@?$AAf?$AAr?$AA?9?$AAc?$AAh@ 1002596c     libucrt:lcidtoname_downlevel.obj
 0002:00005978       ??_C@_1M@MMBBFGAK@?$AAf?$AAr?$AA?9?$AAf?$AAr@ 10025978     libucrt:lcidtoname_downlevel.obj
 0002:00005984       ??_C@_1M@PAFNENNF@?$AAf?$AAr?$AA?9?$AAl?$AAu@ 10025984     libucrt:lcidtoname_downlevel.obj
 0002:00005990       ??_C@_1M@EOHDJGDD@?$AAf?$AAr?$AA?9?$AAm?$AAc@ 10025990     libucrt:lcidtoname_downlevel.obj
 0002:0000599c       ??_C@_1M@FAPLLOPF@?$AAg?$AAl?$AA?9?$AAe?$AAs@ 1002599c     libucrt:lcidtoname_downlevel.obj
 0002:000059a8       ??_C@_1M@FOPBFLOO@?$AAg?$AAu?$AA?9?$AAi?$AAn@ 100259a8     libucrt:lcidtoname_downlevel.obj
 0002:000059b4       ??_C@_1M@KBMCINPM@?$AAh?$AAe?$AA?9?$AAi?$AAl@ 100259b4     libucrt:lcidtoname_downlevel.obj
 0002:000059c0       ??_C@_1M@BBPHKFPJ@?$AAh?$AAi?$AA?9?$AAi?$AAn@ 100259c0     libucrt:lcidtoname_downlevel.obj
 0002:000059cc       ??_C@_1M@PMBNDPHD@?$AAh?$AAr?$AA?9?$AAb?$AAa@ 100259cc     libucrt:lcidtoname_downlevel.obj
 0002:000059d8       ??_C@_1M@BPCKOEGE@?$AAh?$AAr?$AA?9?$AAh?$AAr@ 100259d8     libucrt:lcidtoname_downlevel.obj
 0002:000059e4       ??_C@_1M@GACBMHKE@?$AAh?$AAu?$AA?9?$AAh?$AAu@ 100259e4     libucrt:lcidtoname_downlevel.obj
 0002:000059f0       ??_C@_1M@MILPAJJC@?$AAh?$AAy?$AA?9?$AAa?$AAm@ 100259f0     libucrt:lcidtoname_downlevel.obj
 0002:000059fc       ??_C@_1M@BABBICEC@?$AAi?$AAd?$AA?9?$AAi?$AAd@ 100259fc     libucrt:lcidtoname_downlevel.obj
 0002:00005a08       ??_C@_1M@BIKNHHPF@?$AAi?$AAs?$AA?9?$AAi?$AAs@ 10025a08     libucrt:lcidtoname_downlevel.obj
 0002:00005a14       ??_C@_1M@NMPCJPHE@?$AAi?$AAt?$AA?9?$AAc?$AAh@ 10025a14     libucrt:lcidtoname_downlevel.obj
 0002:00005a20       ??_C@_1M@GHKGFEDF@?$AAi?$AAt?$AA?9?$AAi?$AAt@ 10025a20     libucrt:lcidtoname_downlevel.obj
 0002:00005a2c       ??_C@_1M@NIEJCJJA@?$AAj?$AAa?$AA?9?$AAj?$AAp@ 10025a2c     libucrt:lcidtoname_downlevel.obj
 0002:00005a38       ??_C@_1M@JILFNBIM@?$AAk?$AAa?$AA?9?$AAg?$AAe@ 10025a38     libucrt:lcidtoname_downlevel.obj
 0002:00005a44       ??_C@_1M@PACPMGPH@?$AAk?$AAk?$AA?9?$AAk?$AAz@ 10025a44     libucrt:lcidtoname_downlevel.obj
 0002:00005a50       ??_C@_1M@IELFGMHA@?$AAk?$AAn?$AA?9?$AAi?$AAn@ 10025a50     libucrt:lcidtoname_downlevel.obj
 0002:00005a5c       ??_C@_1O@IBBJHCH@?$AAk?$AAo?$AAk?$AA?9?$AAi?$AAn@ 10025a5c     libucrt:lcidtoname_downlevel.obj
 0002:00005a6c       ??_C@_1M@DMHAEOGC@?$AAk?$AAo?$AA?9?$AAk?$AAr@ 10025a6c     libucrt:lcidtoname_downlevel.obj
 0002:00005a78       ??_C@_1M@HBAHBIGA@?$AAk?$AAy?$AA?9?$AAk?$AAg@ 10025a78     libucrt:lcidtoname_downlevel.obj
 0002:00005a84       ??_C@_1M@KPMILCJG@?$AAl?$AAt?$AA?9?$AAl?$AAt@ 10025a84     libucrt:lcidtoname_downlevel.obj
 0002:00005a90       ??_C@_1M@BDEKKCA@?$AAl?$AAv?$AA?9?$AAl?$AAv@ 10025a90     libucrt:lcidtoname_downlevel.obj
 0002:00005a9c       ??_C@_1M@ELCKCCJJ@?$AAm?$AAi?$AA?9?$AAn?$AAz@ 10025a9c     libucrt:lcidtoname_downlevel.obj
 0002:00005aa8       ??_C@_1M@CBOOLAPA@?$AAm?$AAk?$AA?9?$AAm?$AAk@ 10025aa8     libucrt:lcidtoname_downlevel.obj
 0002:00005ab4       ??_C@_1M@GPHNBJKN@?$AAm?$AAl?$AA?9?$AAi?$AAn@ 10025ab4     libucrt:lcidtoname_downlevel.obj
 0002:00005ac0       ??_C@_1M@PABJILIG@?$AAm?$AAn?$AA?9?$AAm?$AAn@ 10025ac0     libucrt:lcidtoname_downlevel.obj
 0002:00005acc       ??_C@_1M@FGBKKIPG@?$AAm?$AAr?$AA?9?$AAi?$AAn@ 10025acc     libucrt:lcidtoname_downlevel.obj
 0002:00005ad8       ??_C@_1M@NDBPDDAL@?$AAm?$AAs?$AA?9?$AAb?$AAn@ 10025ad8     libucrt:lcidtoname_downlevel.obj
 0002:00005ae4       ??_C@_1M@OPIHOOPI@?$AAm?$AAs?$AA?9?$AAm?$AAy@ 10025ae4     libucrt:lcidtoname_downlevel.obj
 0002:00005af0       ??_C@_1M@PPDBCNFM@?$AAm?$AAt?$AA?9?$AAm?$AAt@ 10025af0     libucrt:lcidtoname_downlevel.obj
 0002:00005afc       ??_C@_1M@KDJDKMDD@?$AAn?$AAb?$AA?9?$AAn?$AAo@ 10025afc     libucrt:lcidtoname_downlevel.obj
 0002:00005b08       ??_C@_1M@KFCFLMJP@?$AAn?$AAl?$AA?9?$AAb?$AAe@ 10025b08     libucrt:lcidtoname_downlevel.obj
 0002:00005b14       ??_C@_1M@KPOPDDGO@?$AAn?$AAl?$AA?9?$AAn?$AAl@ 10025b14     libucrt:lcidtoname_downlevel.obj
 0002:00005b20       ??_C@_1M@LJKPEMLN@?$AAn?$AAn?$AA?9?$AAn?$AAo@ 10025b20     libucrt:lcidtoname_downlevel.obj
 0002:00005b2c       ??_C@_1M@BDGHHBFL@?$AAn?$AAs?$AA?9?$AAz?$AAa@ 10025b2c     libucrt:lcidtoname_downlevel.obj
 0002:00005b38       ??_C@_1M@IDEHOAP@?$AAp?$AAa?$AA?9?$AAi?$AAn@ 10025b38     libucrt:lcidtoname_downlevel.obj
 0002:00005b44       ??_C@_1M@HDBKGOGH@?$AAp?$AAl?$AA?9?$AAp?$AAl@ 10025b44     libucrt:lcidtoname_downlevel.obj
 0002:00005b50       ??_C@_1M@LJLLCMEH@?$AAp?$AAt?$AA?9?$AAb?$AAr@ 10025b50     libucrt:lcidtoname_downlevel.obj
 0002:00005b5c       ??_C@_1M@NCMONAAL@?$AAp?$AAt?$AA?9?$AAp?$AAt@ 10025b5c     libucrt:lcidtoname_downlevel.obj
 0002:00005b68       ??_C@_1O@EAKMAJDN@?$AAq?$AAu?$AAz?$AA?9?$AAb?$AAo@ 10025b68     libucrt:lcidtoname_downlevel.obj
 0002:00005b78       ??_C@_1O@BHHPIGDN@?$AAq?$AAu?$AAz?$AA?9?$AAe?$AAc@ 10025b78     libucrt:lcidtoname_downlevel.obj
 0002:00005b88       ??_C@_1O@GBAPEKMJ@?$AAq?$AAu?$AAz?$AA?9?$AAp?$AAe@ 10025b88     libucrt:lcidtoname_downlevel.obj
 0002:00005b98       ??_C@_1M@CLGLEFBO@?$AAr?$AAo?$AA?9?$AAr?$AAo@ 10025b98     libucrt:lcidtoname_downlevel.obj
 0002:00005ba4       ??_C@_1M@CEEDODME@?$AAr?$AAu?$AA?9?$AAr?$AAu@ 10025ba4     libucrt:lcidtoname_downlevel.obj
 0002:00005bb0       ??_C@_1M@HPKKKMPP@?$AAs?$AAa?$AA?9?$AAi?$AAn@ 10025bb0     libucrt:lcidtoname_downlevel.obj
 0002:00005bbc       ??_C@_1M@BKMAIGOJ@?$AAs?$AAe?$AA?9?$AAf?$AAi@ 10025bbc     libucrt:lcidtoname_downlevel.obj
 0002:00005bc8       ??_C@_1M@NDPIFLFI@?$AAs?$AAe?$AA?9?$AAn?$AAo@ 10025bc8     libucrt:lcidtoname_downlevel.obj
 0002:00005bd4       ??_C@_1M@DANKKHJ@?$AAs?$AAe?$AA?9?$AAs?$AAe@ 10025bd4     libucrt:lcidtoname_downlevel.obj
 0002:00005be0       ??_C@_1M@PNBLONPJ@?$AAs?$AAk?$AA?9?$AAs?$AAk@ 10025be0     libucrt:lcidtoname_downlevel.obj
 0002:00005bec       ??_C@_1M@LFMODOAL@?$AAs?$AAl?$AA?9?$AAs?$AAi@ 10025bec     libucrt:lcidtoname_downlevel.obj
 0002:00005bf8       ??_C@_1O@DFKOMPG@?$AAs?$AAm?$AAa?$AA?9?$AAn?$AAo@ 10025bf8     libucrt:lcidtoname_downlevel.obj
 0002:00005c08       ??_C@_1O@NDKPBNNH@?$AAs?$AAm?$AAa?$AA?9?$AAs?$AAe@ 10025c08     libucrt:lcidtoname_downlevel.obj
 0002:00005c18       ??_C@_1O@PLLKBHAB@?$AAs?$AAm?$AAj?$AA?9?$AAn?$AAo@ 10025c18     libucrt:lcidtoname_downlevel.obj
 0002:00005c28       ??_C@_1O@CLEPOGCA@?$AAs?$AAm?$AAj?$AA?9?$AAs?$AAe@ 10025c28     libucrt:lcidtoname_downlevel.obj
 0002:00005c38       ??_C@_1O@DLGJGKMK@?$AAs?$AAm?$AAn?$AA?9?$AAf?$AAi@ 10025c38     libucrt:lcidtoname_downlevel.obj
 0002:00005c48       ??_C@_1O@OJDJGAJC@?$AAs?$AAm?$AAs?$AA?9?$AAf?$AAi@ 10025c48     libucrt:lcidtoname_downlevel.obj
 0002:00005c58       ??_C@_1M@BOFOGHPB@?$AAs?$AAq?$AA?9?$AAa?$AAl@ 10025c58     libucrt:lcidtoname_downlevel.obj
 0002:00005c64       ??_C@_1BG@LJBBIPGB@?$AAs?$AAr?$AA?9?$AAb?$AAa?$AA?9?$AAc?$AAy?$AAr?$AAl@ 10025c64     libucrt:lcidtoname_downlevel.obj
 0002:00005c7c       ??_C@_1BG@JLBENFOE@?$AAs?$AAr?$AA?9?$AAb?$AAa?$AA?9?$AAl?$AAa?$AAt?$AAn@ 10025c7c     libucrt:lcidtoname_downlevel.obj
 0002:00005c94       ??_C@_1BG@KODPNHE@?$AAs?$AAr?$AA?9?$AAs?$AAp?$AA?9?$AAc?$AAy?$AAr?$AAl@ 10025c94     libucrt:lcidtoname_downlevel.obj
 0002:00005cac       ??_C@_1BG@CIOGKHPB@?$AAs?$AAr?$AA?9?$AAs?$AAp?$AA?9?$AAl?$AAa?$AAt?$AAn@ 10025cac     libucrt:lcidtoname_downlevel.obj
 0002:00005cc4       ??_C@_1M@NGFJLMAC@?$AAs?$AAv?$AA?9?$AAf?$AAi@ 10025cc4     libucrt:lcidtoname_downlevel.obj
 0002:00005cd0       ??_C@_1M@MPJEJAJC@?$AAs?$AAv?$AA?9?$AAs?$AAe@ 10025cd0     libucrt:lcidtoname_downlevel.obj
 0002:00005cdc       ??_C@_1M@MPNDHLFK@?$AAs?$AAw?$AA?9?$AAk?$AAe@ 10025cdc     libucrt:lcidtoname_downlevel.obj
 0002:00005ce8       ??_C@_1O@KOHBJJI@?$AAs?$AAy?$AAr?$AA?9?$AAs?$AAy@ 10025ce8     libucrt:lcidtoname_downlevel.obj
 0002:00005cf8       ??_C@_1M@LDCEFHA@?$AAt?$AAa?$AA?9?$AAi?$AAn@ 10025cf8     libucrt:lcidtoname_downlevel.obj
 0002:00005d04       ??_C@_1M@CNJOFAK@?$AAt?$AAe?$AA?9?$AAi?$AAn@ 10025d04     libucrt:lcidtoname_downlevel.obj
 0002:00005d10       ??_C@_1M@GNAECACD@?$AAt?$AAh?$AA?9?$AAt?$AAh@ 10025d10     libucrt:lcidtoname_downlevel.obj
 0002:00005d1c       ??_C@_1M@CHBIHOJO@?$AAt?$AAn?$AA?9?$AAz?$AAa@ 10025d1c     libucrt:lcidtoname_downlevel.obj
 0002:00005d28       ??_C@_1M@GCCMIGPJ@?$AAt?$AAr?$AA?9?$AAt?$AAr@ 10025d28     libucrt:lcidtoname_downlevel.obj
 0002:00005d34       ??_C@_1M@CELMCNBK@?$AAt?$AAt?$AA?9?$AAr?$AAu@ 10025d34     libucrt:lcidtoname_downlevel.obj
 0002:00005d40       ??_C@_1M@KLMCELGA@?$AAu?$AAk?$AA?9?$AAu?$AAa@ 10025d40     libucrt:lcidtoname_downlevel.obj
 0002:00005d4c       ??_C@_1M@EPAJJAJF@?$AAu?$AAr?$AA?9?$AAp?$AAk@ 10025d4c     libucrt:lcidtoname_downlevel.obj
 0002:00005d58       ??_C@_1BG@GEGPMCDJ@?$AAu?$AAz?$AA?9?$AAu?$AAz?$AA?9?$AAc?$AAy?$AAr?$AAl@ 10025d58     libucrt:lcidtoname_downlevel.obj
 0002:00005d70       ??_C@_1BG@EGGKJILM@?$AAu?$AAz?$AA?9?$AAu?$AAz?$AA?9?$AAl?$AAa?$AAt?$AAn@ 10025d70     libucrt:lcidtoname_downlevel.obj
 0002:00005d88       ??_C@_1M@GFOCLFF@?$AAv?$AAi?$AA?9?$AAv?$AAn@ 10025d88     libucrt:lcidtoname_downlevel.obj
 0002:00005d94       ??_C@_1M@CPAMEDFI@?$AAx?$AAh?$AA?9?$AAz?$AAa@ 10025d94     libucrt:lcidtoname_downlevel.obj
 0002:00005da0       ??_C@_1O@EBKIFIGN@?$AAz?$AAh?$AA?9?$AAc?$AAh?$AAs@ 10025da0     libucrt:lcidtoname_downlevel.obj
 0002:00005db0       ??_C@_1O@NMHPGANE@?$AAz?$AAh?$AA?9?$AAc?$AAh?$AAt@ 10025db0     libucrt:lcidtoname_downlevel.obj
 0002:00005dc0       ??_C@_1M@LPINJOMC@?$AAz?$AAh?$AA?9?$AAc?$AAn@ 10025dc0     libucrt:lcidtoname_downlevel.obj
 0002:00005dcc       ??_C@_1M@OCJEJODD@?$AAz?$AAh?$AA?9?$AAh?$AAk@ 10025dcc     libucrt:lcidtoname_downlevel.obj
 0002:00005dd8       ??_C@_1M@DNDLJINH@?$AAz?$AAh?$AA?9?$AAm?$AAo@ 10025dd8     libucrt:lcidtoname_downlevel.obj
 0002:00005de4       ??_C@_1M@MBFDNDND@?$AAz?$AAh?$AA?9?$AAs?$AAg@ 10025de4     libucrt:lcidtoname_downlevel.obj
 0002:00005df0       ??_C@_1M@IMEPLEPE@?$AAz?$AAh?$AA?9?$AAt?$AAw@ 10025df0     libucrt:lcidtoname_downlevel.obj
 0002:00005dfc       ??_C@_1M@BBGHNHJP@?$AAz?$AAu?$AA?9?$AAz?$AAa@ 10025dfc     libucrt:lcidtoname_downlevel.obj
 0002:00005e08       ?large_power_data@?1??multiply_by_power_of_ten@__crt_strtox@@YA_NAAUbig_integer@2@I@Z@4QBIB 10025e08     libucrt:cfout.obj
 0002:00006710       ?large_power_indices@?1??multiply_by_power_of_ten@__crt_strtox@@YA_NAAUbig_integer@2@I@Z@4QBUunpack_index@?1??12@YA_N0I@Z@B 10026710     libucrt:cfout.obj
 0002:000067a8       ?small_powers_of_ten@?1??multiply_by_power_of_ten@__crt_strtox@@YA_NAAUbig_integer@2@I@Z@4QBIB 100267a8     libucrt:cfout.obj
 0002:000067cc       ??_C@_01GBGANLPD@0@        100267cc     libucrt:cfout.obj
 0002:000067d0       ??_C@_05DNEBIAHO@1?$CDINF@ 100267d0     libucrt:cfout.obj
 0002:000067d8       ??_C@_06IMKFLFPG@1?$CDQNAN@ 100267d8     libucrt:cfout.obj
 0002:000067e0       ??_C@_06PGGFOGJG@1?$CDSNAN@ 100267e0     libucrt:cfout.obj
 0002:000067e8       ??_C@_05PHHOCPM@1?$CDIND@  100267e8     libucrt:cfout.obj
 0002:00006950       __infinity                 10026950     libucrt:87tran.obj
 0002:0000695a       __minfinity                1002695a     libucrt:87tran.obj
 0002:00006964       __logemax                  10026964     libucrt:87tran.obj
 0002:0000698a       __OP_EXPjmptab             1002698a     libucrt:87tran.obj
 0002:000069b0       __indefinite               100269b0     libucrt:87disp.obj
 0002:000069ba       __piby2                    100269ba     libucrt:87disp.obj
 0002:000069c4       __piby4                    100269c4     libucrt:87disp.obj
 0002:000069f8       __DEFAULT_CW_in_mem        100269f8     libucrt:common.obj
 0002:000069fa       __pi_by_2_to_61            100269fa     libucrt:common.obj
 0002:00006a34       ??_C@_03MGHMBJCF@log@      10026a34     libucrt:libm_error.obj
 0002:00006a38       ??_C@_05HGHHAHAP@log10@    10026a38     libucrt:libm_error.obj
 0002:00006a40       ??_C@_03KHJOGHMM@exp@      10026a40     libucrt:libm_error.obj
 0002:00006a44       ??_C@_03JGHBODFD@pow@      10026a44     libucrt:libm_error.obj
 0002:00006a48       ??_C@_04FIHNOPOL@asin@     10026a48     libucrt:libm_error.obj
 0002:00006a50       ??_C@_04PDIFKINK@acos@     10026a50     libucrt:libm_error.obj
 0002:00006a58       ??_C@_04EIAKFFMI@sqrt@     10026a58     libucrt:libm_error.obj
 0002:00006a60       __real@3ff0000000000000    10026a60     libucrt:libm_error.obj
 0002:00006a68       ??_C@_1BA@BALFACEM@?$AAC?$AAO?$AAN?$AAO?$AAU?$AAT?$AA$@ 10026a68     libucrt:initcon.obj
 0002:00006a90       ___acrt_log10_table_t      10026a90     libucrt:log10_tables.obj
 0002:00006ea0       ___acrt_log10_table_cb     10026ea0     libucrt:log10_tables.obj
 0002:000072b0       __real@3fe0000000000000    100272b0     libucrt:powhlp.obj
 0002:000073a0       ??_C@_04COOMCNPB@sinh@     100273a0     libucrt:fpexcept.obj
 0002:000073a8       ??_C@_04HPJJNFIM@cosh@     100273a8     libucrt:fpexcept.obj
 0002:000073b0       ??_C@_04FJHINJAO@tanh@     100273b0     libucrt:fpexcept.obj
 0002:000073b8       ??_C@_04MLLJIGOK@atan@     100273b8     libucrt:fpexcept.obj
 0002:000073c0       ??_C@_05KNGEOGJB@atan2@    100273c0     libucrt:fpexcept.obj
 0002:000073c8       ??_C@_03BLEJJJBH@sin@      100273c8     libucrt:fpexcept.obj
 0002:000073cc       ??_C@_03LALBNOCG@cos@      100273cc     libucrt:fpexcept.obj
 0002:000073d0       ??_C@_03IIINPABG@tan@      100273d0     libucrt:fpexcept.obj
 0002:000073d4       ??_C@_04GFPJNGEK@ceil@     100273d4     libucrt:fpexcept.obj
 0002:000073dc       ??_C@_05PBJFFIGL@floor@    100273dc     libucrt:fpexcept.obj
 0002:000073e4       ??_C@_04ODHECPBC@fabs@     100273e4     libucrt:fpexcept.obj
 0002:000073ec       ??_C@_04EHEDPDJG@modf@     100273ec     libucrt:fpexcept.obj
 0002:000073f4       ??_C@_05CEJMAHNP@ldexp@    100273f4     libucrt:fpexcept.obj
 0002:000073fc       ??_C@_05KBKMEMPO@_cabs@    100273fc     libucrt:fpexcept.obj
 0002:00007404       ??_C@_06MEIMCGCF@_hypot@   10027404     libucrt:fpexcept.obj
 0002:0000740c       ??_C@_04KEPJIHGP@fmod@     1002740c     libucrt:fpexcept.obj
 0002:00007414       ??_C@_05GKKHEGJL@frexp@    10027414     libucrt:fpexcept.obj
 0002:0000741c       ??_C@_03MJLDFKDL@_y0@      1002741c     libucrt:fpexcept.obj
 0002:00007420       ??_C@_03NAKIGLHK@_y1@      10027420     libucrt:fpexcept.obj
 0002:00007424       ??_C@_03ONILCKOB@_yn@      10027424     libucrt:fpexcept.obj
 0002:00007428       ??_C@_05JGDBENOH@_logb@    10027428     libucrt:fpexcept.obj
 0002:00007430       ??_C@_0L@KDOEJCKC@_nextafter@ 10027430     libucrt:fpexcept.obj
 0002:00007440       __d_inf                    10027440     libucrt:util.obj
 0002:00007448       __d_max                    10027448     libucrt:util.obj
 0002:00007450       __d_mzero                  10027450     libucrt:util.obj
 0002:000074c0       __load_config_used         100274c0     LIBCMT:loadcfg.obj
 0002:00007580       __tls_used                 10027580     LIBCMT:tlssup.obj
 0002:00007598       ??_R4exception@std@@6B@    10027598     LIBCMT:throw_bad_alloc.obj
 0002:000075ac       ??_R3exception@std@@8      100275ac     LIBCMT:throw_bad_alloc.obj
 0002:000075bc       ??_R2exception@std@@8      100275bc     LIBCMT:throw_bad_alloc.obj
 0002:000075c4       ??_R1A@?0A@EA@exception@std@@8 100275c4     LIBCMT:throw_bad_alloc.obj
 0002:000075e0       ??_R4bad_alloc@std@@6B@    100275e0     LIBCMT:throw_bad_alloc.obj
 0002:000075f4       ??_R3bad_alloc@std@@8      100275f4     LIBCMT:throw_bad_alloc.obj
 0002:00007604       ??_R2bad_alloc@std@@8      10027604     LIBCMT:throw_bad_alloc.obj
 0002:00007610       ??_R1A@?0A@EA@bad_alloc@std@@8 10027610     LIBCMT:throw_bad_alloc.obj
 0002:0000762c       ??_R4bad_array_new_length@std@@6B@ 1002762c     LIBCMT:throw_bad_alloc.obj
 0002:00007640       ??_R3bad_array_new_length@std@@8 10027640     LIBCMT:throw_bad_alloc.obj
 0002:00007650       ??_R2bad_array_new_length@std@@8 10027650     LIBCMT:throw_bad_alloc.obj
 0002:00007660       ??_R1A@?0A@EA@bad_array_new_length@std@@8 10027660     LIBCMT:throw_bad_alloc.obj
 0002:0000767c       ??_R4type_info@@6B@        1002767c     LIBCMT:std_type_info_static.obj
 0002:00007690       ??_R3type_info@@8          10027690     LIBCMT:std_type_info_static.obj
 0002:000076a0       ??_R2type_info@@8          100276a0     LIBCMT:std_type_info_static.obj
 0002:000076a8       ??_R1A@?0A@EA@type_info@@8 100276a8     LIBCMT:std_type_info_static.obj
 0002:000076c4       ??_R4bad_exception@std@@6B@ 100276c4     libvcruntime:frame.obj
 0002:000076d8       ??_R3bad_exception@std@@8  100276d8     libvcruntime:frame.obj
 0002:000076e8       ??_R2bad_exception@std@@8  100276e8     libvcruntime:frame.obj
 0002:000076f4       ??_R1A@?0A@EA@bad_exception@std@@8 100276f4     libvcruntime:frame.obj
 0002:00007710       ___safe_se_handler_table   10027710     <linker-defined>
 0002:00007b0c       ___rtc_iaa                 10027b0c     LIBCMT:initsect.obj
 0002:00007b10       ___rtc_izz                 10027b10     LIBCMT:initsect.obj
 0002:00007b14       ___rtc_taa                 10027b14     LIBCMT:initsect.obj
 0002:00007b18       ___rtc_tzz                 10027b18     LIBCMT:initsect.obj
 0002:00007b1c       __tls_start                10027b1c     LIBCMT:tlssup.obj
 0002:00007b20       __Init_thread_epoch        10027b20     LIBCMT:thread_safe_statics.obj
 0002:00007b24       __tls_end                  10027b24     LIBCMT:tlssup.obj
 0002:00007c24       __TI2?AVbad_alloc@std@@    10027c24     LIBCMT:throw_bad_alloc.obj
 0002:00007c34       __CTA2?AVbad_alloc@std@@   10027c34     LIBCMT:throw_bad_alloc.obj
 0002:00007c40       __CT??_R0?AVbad_alloc@std@@@8??0bad_alloc@std@@QAE@ABV01@@Z12 10027c40     LIBCMT:throw_bad_alloc.obj
 0002:00007c5c       __CT??_R0?AVexception@std@@@8??0exception@std@@QAE@ABV01@@Z12 10027c5c     LIBCMT:throw_bad_alloc.obj
 0002:00007c78       __TI3?AVbad_array_new_length@std@@ 10027c78     LIBCMT:throw_bad_alloc.obj
 0002:00007c88       __CTA3?AVbad_array_new_length@std@@ 10027c88     LIBCMT:throw_bad_alloc.obj
 0002:00007c98       __CT??_R0?AVbad_array_new_length@std@@@8??0bad_array_new_length@std@@QAE@ABV01@@Z12 10027c98     LIBCMT:throw_bad_alloc.obj
 0002:00007dbc       __TI2?AVbad_exception@std@@ 10027dbc     libvcruntime:frame.obj
 0002:00007dcc       __CTA2?AVbad_exception@std@@ 10027dcc     libvcruntime:frame.obj
 0002:00007dd8       __CT??_R0?AVbad_exception@std@@@8??0bad_exception@std@@QAE@ABV01@@Z12 10027dd8     libvcruntime:frame.obj
 0002:00008154       ___pobjMapEntryFirst       10028154     OposVariant.obj
 0002:00008158       ___pobjMapEntryLast        10028158     OposVariant.obj
 0002:0000820c       __IMPORT_DESCRIPTOR_KERNEL32 1002820c     kernel32:KERNEL32.dll
 0002:00008220       __IMPORT_DESCRIPTOR_USER32 10028220     user32:USER32.dll
 0002:00008234       __IMPORT_DESCRIPTOR_GDI32  10028234     gdi32:GDI32.dll
 0002:00008248       __IMPORT_DESCRIPTOR_ADVAPI32 10028248     advapi32:ADVAPI32.dll
 0002:0000825c       __IMPORT_DESCRIPTOR_ole32  1002825c     ole32:ole32.dll
 0002:00008270       __IMPORT_DESCRIPTOR_OLEAUT32 10028270     oleaut32:OLEAUT32.dll
 0002:00008284       __NULL_IMPORT_DESCRIPTOR   10028284     kernel32:KERNEL32.dll
 0003:00000000       ?s_Claim@?7??GetIDsOfNames@CComTypeInfoHolder@ATL@@QAEJABU_GUID@@PAPA_WIKPAJ@Z@4PA_WA 1002a000     POSKeyboard.obj
 0003:00000018       ?s_Release@?7??GetIDsOfNames@CComTypeInfoHolder@ATL@@QAEJABU_GUID@@PAPA_WIKPAJ@Z@4PA_WA 1002a018     POSKeyboard.obj
 0003:00000034       ?_tih@?$IDispatchImpl@UIOPOSPOSKeyboard@@$1?IID_IOPOSPOSKeyboard@@3U_GUID@@B$1?LIBID_OposPOSKeyboard_CCO@@3U3@B$00$0A@VCComTypeInfoHolder@ATL@@@ATL@@1VCComTypeInfoHolder@2@A 1002a034     POSKeyboard.obj
 0003:00000050       ?_tih@?$IProvideClassInfo2Impl@$1?CLSID_OPOSPOSKeyboard@@3U_GUID@@B$1?DIID__IOPOSPOSKeyboardEvents@@3U2@B$1?LIBID_OposPOSKeyboard_CCO@@3U2@B$00$0A@VCComTypeInfoHolder@ATL@@@ATL@@1VCComTypeInfoHolder@2@A 1002a050     POSKeyboard.obj
 0003:0000006c       ?vszContents@?6??Save@?$IPersistStorageImpl@VCOPOSPOSKeyboard@@@ATL@@UAGJPAUIStorage@@H@Z@4PB_WB 1002a06c     POSKeyboard.obj
 0003:00000070       ?wc@?1??GetWndClassInfo@?$CWindowImpl@VCOPOSPOSKeyboard@@VCWindow@ATL@@V?$CWinTraits@$0FGAAAAAA@$0A@@3@@ATL@@SAAAU_ATL_WNDCLASSINFOW@3@XZ@4U43@A 1002a070     POSKeyboard.obj
 0003:000000fc       ?rcDefault@CWindow@ATL@@2UtagRECT@@A 1002a0fc     POSKeyboard.obj
 0003:00000158       ?g_WindowName@@3PA_WA      1002a158     POSKeyboardImpl.obj
 0003:00000180       ?g_ControlDescription@@3PADA 1002a180     POSKeyboardImpl.obj
 0003:000001cc       ?g_ControlVersion@@3JA     1002a1cc     POSKeyboardImpl.obj
 0003:0000023c       ___scrt_native_dllmain_reason 1002a23c     LIBCMT:utility.obj
 0003:00000240       __Init_global_epoch        1002a240     LIBCMT:thread_safe_statics.obj
 0003:00000250       ___security_cookie_complement 1002a250     LIBCMT:gs_cookie.obj
 0003:00000254       ___security_cookie         1002a254     LIBCMT:gs_cookie.obj
 0003:00000258       ___isa_enabled             1002a258     LIBCMT:cpu_disp.obj
 0003:00000270       __NLG_Destination          1002a270     libvcruntime:exsup.obj
 0003:00000288       ___abort_behavior          1002a288     libucrt:abort.obj
 0003:00000298       __iob                      1002a298     libucrt:_file.obj
 0003:00000340       ___acrt_initial_locale_data 1002a340     libucrt:nlsdata.obj
 0003:000003f8       ___acrt_initial_locale_pointers 1002a3f8     libucrt:nlsdata.obj
 0003:00000400       ___acrt_wide_c_locale_string 1002a400     libucrt:nlsdata.obj
 0003:00000408       ___acrt_initial_multibyte_data 1002a408     libucrt:mbctype.obj
 0003:00000928       __pwctype                  1002a928     libucrt:ctype.obj
 0003:0000092c       ___globallocalestatus      1002a92c     libucrt:glstatus.obj
 0003:00000930       ___acrt_lconv_c            1002a930     libucrt:localeconv.obj
 0003:00000980       ___acrt_lconv_static_decimal 1002a980     libucrt:localeconv.obj
 0003:00000984       ___acrt_lconv_static_W_decimal 1002a984     libucrt:localeconv.obj
 0003:00000990       __lookuptrailbytes         1002a990     libucrt:read.obj
 0003:00000aa0       __fltused                  1002aaa0     LIBCMT:fltused.obj
 0003:00000ab0       ??_R0?AVbad_alloc@std@@@8  1002aab0     LIBCMT:throw_bad_alloc.obj
 0003:00000acc       ??_R0?AVexception@std@@@8  1002aacc     LIBCMT:throw_bad_alloc.obj
 0003:00000ae8       ??_R0?AVbad_array_new_length@std@@@8 1002aae8     LIBCMT:throw_bad_alloc.obj
 0003:00000b10       ??_R0?AVtype_info@@@8      1002ab10     LIBCMT:std_type_info_static.obj
 0003:00000b28       ??_R0?AVbad_exception@std@@@8 1002ab28     libvcruntime:frame.obj
 0003:00000b48       ?m_bInitFailed@CAtlBaseModule@ATL@@2_NA 1002ab48     OposVariant.obj
 0003:00000b4c       ?_pPerfRegFunc@ATL@@3P6AJPAUHINSTANCE__@@@ZA 1002ab4c     OposVariant.obj
 0003:00000b50       ?_pPerfUnRegFunc@ATL@@3P6AJXZA 1002ab50     OposVariant.obj
 0003:00000b54       ?_AtlRegisterPerUser@ATL@@3_NA 1002ab54     OposVariant.obj
 0003:00000b58       ?_pAtlModule@ATL@@3PAVCAtlModule@1@A 1002ab58     OposVariant.obj
 0003:00000b5c       ?_pModule@ATL@@3PAVCComModule@1@A 1002ab5c     OposVariant.obj
 0003:00000b60       ?_AtlComModule@ATL@@3VCAtlComModule@1@A 1002ab60     OposVariant.obj
 0003:00000b88       ?_AtlWinModule@ATL@@3VCAtlWinModule@1@A 1002ab88     OposVariant.obj
 0003:00000bb4       ?m_libid@CAtlModule@ATL@@2U_GUID@@A 1002abb4     POSKeyboard.obj
 0003:00000bc4       ?_entries@?1??GetConnMap@COPOSPOSKeyboard@@SAPBU_ATL_CONNMAP_ENTRY@ATL@@PAH@Z@4QBU34@B 1002abc4     POSKeyboard.obj
 0003:00000bd0       ?$TSS0@?1??GetConnMap@COPOSPOSKeyboard@@SAPBU_ATL_CONNMAP_ENTRY@ATL@@PAH@Z@4HA 1002abd0     POSKeyboard.obj
 0003:00000bd8       ?_OptionsStorage@?1??__local_stdio_printf_options@@9@4_KA 1002abd8     POSKeyboard.obj
 0003:00000be0       ?pfnRegDeleteKeyEx@?1??DeleteSubKey@CRegKey@ATL@@QAEJPB_W@Z@4P6GJPAUHKEY__@@0KK@ZA 1002abe0     POSKeyboard.obj
 0003:00000be4       ?bInitialized@?1??DeleteSubKey@CRegKey@ATL@@QAEJPB_W@Z@4_NA 1002abe4     POSKeyboard.obj
 0003:00000be8       ?_Module@@3VCComModule@ATL@@A 1002abe8     POSKeyboard.obj
 0003:00000c18       ?pConnMap@?$IConnectionPointContainerImpl@VCOPOSPOSKeyboard@@@ATL@@0PBU_ATL_CONNMAP_ENTRY@2@B 1002ac18     POSKeyboard.obj
 0003:00000c1c       ?s_nInstances@COPOSPOSKeyboard@@1HA 1002ac1c     POSKeyboardImpl.obj
 0003:00000c20       ___scrt_current_native_startup_state 1002ac20     LIBCMT:utility.obj
 0003:00000c24       ___scrt_native_startup_lock 1002ac24     LIBCMT:utility.obj
 0003:00000f8c       __tls_index                1002af8c     LIBCMT:tlssup.obj
 0003:00000f94       ___isa_available           1002af94     LIBCMT:cpu_disp.obj
 0003:00000f98       ___favor                   1002af98     LIBCMT:cpu_disp.obj
 0003:00000f9c       ___scrt_debugger_hook_flag 1002af9c     LIBCMT:utility_desktop.obj
 0003:00000fa0       ___castguard_check_failure_os_handled_fptr 1002afa0     LIBCMT:guard_support.obj
 0003:00000fa8       ?__type_info_root_node@@3U__type_info_node@@A 1002afa8     LIBCMT:tncleanup.obj
 0003:00000fb0       ?_OptionsStorage@?1??__local_stdio_scanf_options@@9@4_KA 1002afb0     LIBCMT:default_local_stdio_options.obj
 0003:00000fb8       ?_AtlBaseModule@ATL@@3VCAtlBaseModule@1@A 1002afb8     atls:atlbase.obj
 0003:00000ff0       ?__AtlThunkPool@@3PAT_SLIST_HEADER@@A 1002aff0     atls:atlthunk.obj
 0003:00001008       ___@@_PchSym_@00@UztvmgUPdlipUFHUhUrmgvinvwrzgvUexgllohUzgohOmzgrevkilqPBACIAJCBDBUlyqiUcIGUhgwzucOlyq@4B2008FD98C1DD4 1002b008     atls:stdafx.obj
 0003:0000100c       ?__WinRTOutOfMemoryExceptionCallback@@3P6GPAXXZA 1002b00c     libvcruntime:ehhelpers.obj
 0003:00001010       ___pPurecall               1002b010     libvcruntime:purevirt_data.obj
 0003:00001058       ?pArgList@UnDecorator@@0PAVReplicator@@A 1002b058     libvcruntime:undname.obj
 0003:0000105c       ?pZNameList@UnDecorator@@0PAVReplicator@@A 1002b05c     libvcruntime:undname.obj
 0003:00001060       ?pTemplateArgList@UnDecorator@@0PAVReplicator@@A 1002b060     libvcruntime:undname.obj
 0003:00001064       ?gName@UnDecorator@@0PBDB  1002b064     libvcruntime:undname.obj
 0003:00001068       ?name@UnDecorator@@0PBDB   1002b068     libvcruntime:undname.obj
 0003:0000106c       ?disableFlags@UnDecorator@@0KA 1002b06c     libvcruntime:undname.obj
 0003:00001070       ?fExplicitTemplateParams@UnDecorator@@0_NA 1002b070     libvcruntime:undname.obj
 0003:00001071       ?fGetTemplateArgumentList@UnDecorator@@0_NA 1002b071     libvcruntime:undname.obj
 0003:00001074       ?m_pGetParameter@UnDecorator@@0P6APADJ@ZA 1002b074     libvcruntime:undname.obj
 0003:00001078       ?m_CHPENameOffset@UnDecorator@@0KA 1002b078     libvcruntime:undname.obj
 0003:0000107c       ?m_recursionLevel@UnDecorator@@0KA 1002b07c     libvcruntime:undname.obj
 0003:000010c0       ?c_exit_complete@?1???R<lambda_6e4b09c48022b2350581041d5f6b0c4c>@@QBE@XZ@4_NA 1002b0c0     libucrt:exit.obj
 0003:000011d0       __environ_table            1002b1d0     libucrt:environment_initialization.obj
 0003:000011d4       __wenviron_table           1002b1d4     libucrt:environment_initialization.obj
 0003:000011d8       ___dcrt_initial_wide_environment 1002b1d8     libucrt:environment_initialization.obj
 0003:000011dc       ___dcrt_initial_narrow_environment 1002b1dc     libucrt:environment_initialization.obj
 0003:000011e0       ___acrt_atexit_table       1002b1e0     libucrt:onexit.obj
 0003:000011ec       ___acrt_at_quick_exit_table 1002b1ec     libucrt:onexit.obj
 0003:000012e0       __nstream                  1002b2e0     libucrt:_file.obj
 0003:000012e4       ___piob                    1002b2e4     libucrt:_file.obj
 0003:000012ec       ___acrt_stdout_buffer      1002b2ec     libucrt:_sftbuf.obj
 0003:000012f0       ___acrt_stderr_buffer      1002b2f0     libucrt:_sftbuf.obj
 0003:000012f4       ___acrt_locale_changed_data 1002b2f4     libucrt:wsetlocale.obj
 0003:000012f8       ___acrt_current_locale_data 1002b2f8     libucrt:nlsdata.obj
 0003:00001300       ___pioinfo                 1002b300     libucrt:ioinit.obj
 0003:00001500       __nhandle                  1002b500     libucrt:ioinit.obj
 0003:0000165c       __mbctype                  1002b65c     libucrt:mbctype.obj
 0003:00001660       __mbcasemap                1002b660     libucrt:mbctype.obj
 0003:00001664       ___acrt_current_multibyte_data 1002b664     libucrt:mbctype.obj
 0003:00001670       __pgmptr                   1002b670     libucrt:argv_data.obj
 0003:00001674       ___argc                    1002b674     libucrt:argv_data.obj
 0003:00001678       ___argv                    1002b678     libucrt:argv_data.obj
 0003:0000167c       ___wargv                   1002b67c     libucrt:argv_data.obj
 0003:00001680       __acmdln                   1002b680     libucrt:argv_data.obj
 0003:00001684       __wcmdln                   1002b684     libucrt:argv_data.obj
 0003:00001688       ___acrt_heap               1002b688     libucrt:heap_handle.obj
 0003:000016a4       ___acrt_lconv_static_null  1002b6a4     libucrt:localeconv.obj
 0003:000016a8       ___acrt_lconv_static_W_null 1002b6a8     libucrt:localeconv.obj
 0003:000016b8       ___fastflag                1002b6b8     libucrt:fp_flags.obj
 0003:000016c0       ___dyn_tls_init_callback   1002b6c0     <common>
 0003:000016c4       ___scrt_ucrt_dll_is_in_use 1002b6c4     <common>
 0003:000016c8       __pmatherr                 1002b6c8     <common>
 0003:000016cc       ___use_sse2_mathfcns       1002b6cc     <common>

 entry point at        0001:0000bc1d

 Static symbols

 0000:fffce000       .debug$S                   10000000     OPOSPOSKeyboard.exp
 0000:fffce000       .debug$S                   10000000     advapi32:ADVAPI32.dll
 0000:fffce000       .debug$S                   10000000     advapi32:ADVAPI32.dll
 0000:fffce000       .debug$S                   10000000     advapi32:ADVAPI32.dll
 0000:fffce000       .debug$S                   10000000     advapi32:ADVAPI32.dll
 0000:fffce000       .debug$S                   10000000     advapi32:ADVAPI32.dll
 0000:fffce000       .debug$S                   10000000     advapi32:ADVAPI32.dll
 0000:fffce000       .debug$S                   10000000     advapi32:ADVAPI32.dll
 0000:fffce000       .debug$S                   10000000     advapi32:ADVAPI32.dll
 0000:fffce000       .debug$S                   10000000     advapi32:ADVAPI32.dll
 0000:fffce000       .debug$S                   10000000     gdi32:GDI32.dll
 0000:fffce000       .debug$S                   10000000     gdi32:GDI32.dll
 0000:fffce000       .debug$S                   10000000     gdi32:GDI32.dll
 0000:fffce000       .debug$S                   10000000     gdi32:GDI32.dll
 0000:fffce000       .debug$S                   10000000     gdi32:GDI32.dll
 0000:fffce000       .debug$S                   10000000     gdi32:GDI32.dll
 0000:fffce000       .debug$S                   10000000     gdi32:GDI32.dll
 0000:fffce000       .debug$S                   10000000     gdi32:GDI32.dll
 0000:fffce000       .debug$S                   10000000     gdi32:GDI32.dll
 0000:fffce000       .debug$S                   10000000     gdi32:GDI32.dll
 0000:fffce000       .debug$S                   10000000     gdi32:GDI32.dll
 0000:fffce000       .debug$S                   10000000     gdi32:GDI32.dll
 0000:fffce000       .debug$S                   10000000     gdi32:GDI32.dll
 0000:fffce000       .debug$S                   10000000     gdi32:GDI32.dll
 0000:fffce000       .debug$S                   10000000     gdi32:GDI32.dll
 0000:fffce000       .debug$S                   10000000     gdi32:GDI32.dll
 0000:fffce000       .debug$S                   10000000     gdi32:GDI32.dll
 0000:fffce000       .debug$S                   10000000     gdi32:GDI32.dll
 0000:fffce000       .debug$S                   10000000     gdi32:GDI32.dll
 0000:fffce000       .debug$S                   10000000     kernel32:KERNEL32.dll
 0000:fffce000       .debug$S                   10000000     kernel32:KERNEL32.dll
 0000:fffce000       .debug$S                   10000000     kernel32:KERNEL32.dll
 0000:fffce000       .debug$S                   10000000     kernel32:KERNEL32.dll
 0000:fffce000       .debug$S                   10000000     kernel32:KERNEL32.dll
 0000:fffce000       .debug$S                   10000000     kernel32:KERNEL32.dll
 0000:fffce000       .debug$S                   10000000     kernel32:KERNEL32.dll
 0000:fffce000       .debug$S                   10000000     kernel32:KERNEL32.dll
 0000:fffce000       .debug$S                   10000000     kernel32:KERNEL32.dll
 0000:fffce000       .debug$S                   10000000     kernel32:KERNEL32.dll
 0000:fffce000       .debug$S                   10000000     kernel32:KERNEL32.dll
 0000:fffce000       .debug$S                   10000000     kernel32:KERNEL32.dll
 0000:fffce000       .debug$S                   10000000     kernel32:KERNEL32.dll
 0000:fffce000       .debug$S                   10000000     kernel32:KERNEL32.dll
 0000:fffce000       .debug$S                   10000000     kernel32:KERNEL32.dll
 0000:fffce000       .debug$S                   10000000     kernel32:KERNEL32.dll
 0000:fffce000       .debug$S                   10000000     kernel32:KERNEL32.dll
 0000:fffce000       .debug$S                   10000000     kernel32:KERNEL32.dll
 0000:fffce000       .debug$S                   10000000     kernel32:KERNEL32.dll
 0000:fffce000       .debug$S                   10000000     kernel32:KERNEL32.dll
 0000:fffce000       .debug$S                   10000000     kernel32:KERNEL32.dll
 0000:fffce000       .debug$S                   10000000     kernel32:KERNEL32.dll
 0000:fffce000       .debug$S                   10000000     kernel32:KERNEL32.dll
 0000:fffce000       .debug$S                   10000000     kernel32:KERNEL32.dll
 0000:fffce000       .debug$S                   10000000     kernel32:KERNEL32.dll
 0000:fffce000       .debug$S                   10000000     kernel32:KERNEL32.dll
 0000:fffce000       .debug$S                   10000000     kernel32:KERNEL32.dll
 0000:fffce000       .debug$S                   10000000     kernel32:KERNEL32.dll
 0000:fffce000       .debug$S                   10000000     kernel32:KERNEL32.dll
 0000:fffce000       .debug$S                   10000000     kernel32:KERNEL32.dll
 0000:fffce000       .debug$S                   10000000     kernel32:KERNEL32.dll
 0000:fffce000       .debug$S                   10000000     kernel32:KERNEL32.dll
 0000:fffce000       .debug$S                   10000000     kernel32:KERNEL32.dll
 0000:fffce000       .debug$S                   10000000     kernel32:KERNEL32.dll
 0000:fffce000       .debug$S                   10000000     kernel32:KERNEL32.dll
 0000:fffce000       .debug$S                   10000000     kernel32:KERNEL32.dll
 0000:fffce000       .debug$S                   10000000     kernel32:KERNEL32.dll
 0000:fffce000       .debug$S                   10000000     kernel32:KERNEL32.dll
 0000:fffce000       .debug$S                   10000000     kernel32:KERNEL32.dll
 0000:fffce000       .debug$S                   10000000     kernel32:KERNEL32.dll
 0000:fffce000       .debug$S                   10000000     kernel32:KERNEL32.dll
 0000:fffce000       .debug$S                   10000000     kernel32:KERNEL32.dll
 0000:fffce000       .debug$S                   10000000     kernel32:KERNEL32.dll
 0000:fffce000       .debug$S                   10000000     kernel32:KERNEL32.dll
 0000:fffce000       .debug$S                   10000000     kernel32:KERNEL32.dll
 0000:fffce000       .debug$S                   10000000     kernel32:KERNEL32.dll
 0000:fffce000       .debug$S                   10000000     kernel32:KERNEL32.dll
 0000:fffce000       .debug$S                   10000000     kernel32:KERNEL32.dll
 0000:fffce000       .debug$S                   10000000     kernel32:KERNEL32.dll
 0000:fffce000       .debug$S                   10000000     kernel32:KERNEL32.dll
 0000:fffce000       .debug$S                   10000000     kernel32:KERNEL32.dll
 0000:fffce000       .debug$S                   10000000     kernel32:KERNEL32.dll
 0000:fffce000       .debug$S                   10000000     kernel32:KERNEL32.dll
 0000:fffce000       .debug$S                   10000000     kernel32:KERNEL32.dll
 0000:fffce000       .debug$S                   10000000     kernel32:KERNEL32.dll
 0000:fffce000       .debug$S                   10000000     kernel32:KERNEL32.dll
 0000:fffce000       .debug$S                   10000000     kernel32:KERNEL32.dll
 0000:fffce000       .debug$S                   10000000     kernel32:KERNEL32.dll
 0000:fffce000       .debug$S                   10000000     kernel32:KERNEL32.dll
 0000:fffce000       .debug$S                   10000000     kernel32:KERNEL32.dll
 0000:fffce000       .debug$S                   10000000     kernel32:KERNEL32.dll
 0000:fffce000       .debug$S                   10000000     kernel32:KERNEL32.dll
 0000:fffce000       .debug$S                   10000000     kernel32:KERNEL32.dll
 0000:fffce000       .debug$S                   10000000     kernel32:KERNEL32.dll
 0000:fffce000       .debug$S                   10000000     kernel32:KERNEL32.dll
 0000:fffce000       .debug$S                   10000000     kernel32:KERNEL32.dll
 0000:fffce000       .debug$S                   10000000     kernel32:KERNEL32.dll
 0000:fffce000       .debug$S                   10000000     kernel32:KERNEL32.dll
 0000:fffce000       .debug$S                   10000000     kernel32:KERNEL32.dll
 0000:fffce000       .debug$S                   10000000     kernel32:KERNEL32.dll
 0000:fffce000       .debug$S                   10000000     kernel32:KERNEL32.dll
 0000:fffce000       .debug$S                   10000000     kernel32:KERNEL32.dll
 0000:fffce000       .debug$S                   10000000     kernel32:KERNEL32.dll
 0000:fffce000       .debug$S                   10000000     kernel32:KERNEL32.dll
 0000:fffce000       .debug$S                   10000000     kernel32:KERNEL32.dll
 0000:fffce000       .debug$S                   10000000     kernel32:KERNEL32.dll
 0000:fffce000       .debug$S                   10000000     kernel32:KERNEL32.dll
 0000:fffce000       .debug$S                   10000000     kernel32:KERNEL32.dll
 0000:fffce000       .debug$S                   10000000     kernel32:KERNEL32.dll
 0000:fffce000       .debug$S                   10000000     kernel32:KERNEL32.dll
 0000:fffce000       .debug$S                   10000000     kernel32:KERNEL32.dll
 0000:fffce000       .debug$S                   10000000     kernel32:KERNEL32.dll
 0000:fffce000       .debug$S                   10000000     kernel32:KERNEL32.dll
 0000:fffce000       .debug$S                   10000000     kernel32:KERNEL32.dll
 0000:fffce000       .debug$S                   10000000     kernel32:KERNEL32.dll
 0000:fffce000       .debug$S                   10000000     kernel32:KERNEL32.dll
 0000:fffce000       .debug$S                   10000000     kernel32:KERNEL32.dll
 0000:fffce000       .debug$S                   10000000     kernel32:KERNEL32.dll
 0000:fffce000       .debug$S                   10000000     kernel32:KERNEL32.dll
 0000:fffce000       .debug$S                   10000000     kernel32:KERNEL32.dll
 0000:fffce000       .debug$S                   10000000     kernel32:KERNEL32.dll
 0000:fffce000       .debug$S                   10000000     kernel32:KERNEL32.dll
 0000:fffce000       .debug$S                   10000000     kernel32:KERNEL32.dll
 0000:fffce000       .debug$S                   10000000     kernel32:KERNEL32.dll
 0000:fffce000       .debug$S                   10000000     kernel32:KERNEL32.dll
 0000:fffce000       .debug$S                   10000000     kernel32:KERNEL32.dll
 0000:fffce000       .debug$S                   10000000     kernel32:KERNEL32.dll
 0000:fffce000       .debug$S                   10000000     kernel32:KERNEL32.dll
 0000:fffce000       .debug$S                   10000000     kernel32:KERNEL32.dll
 0000:fffce000       .debug$S                   10000000     kernel32:KERNEL32.dll
 0000:fffce000       .debug$S                   10000000     kernel32:KERNEL32.dll
 0000:fffce000       .debug$S                   10000000     kernel32:KERNEL32.dll
 0000:fffce000       .debug$S                   10000000     kernel32:KERNEL32.dll
 0000:fffce000       .debug$S                   10000000     kernel32:KERNEL32.dll
 0000:fffce000       .debug$S                   10000000     kernel32:KERNEL32.dll
 0000:fffce000       .debug$S                   10000000     kernel32:KERNEL32.dll
 0000:fffce000       .debug$S                   10000000     ole32:ole32.dll
 0000:fffce000       .debug$S                   10000000     ole32:ole32.dll
 0000:fffce000       .debug$S                   10000000     ole32:ole32.dll
 0000:fffce000       .debug$S                   10000000     ole32:ole32.dll
 0000:fffce000       .debug$S                   10000000     ole32:ole32.dll
 0000:fffce000       .debug$S                   10000000     ole32:ole32.dll
 0000:fffce000       .debug$S                   10000000     ole32:ole32.dll
 0000:fffce000       .debug$S                   10000000     ole32:ole32.dll
 0000:fffce000       .debug$S                   10000000     ole32:ole32.dll
 0000:fffce000       .debug$S                   10000000     ole32:ole32.dll
 0000:fffce000       .debug$S                   10000000     ole32:ole32.dll
 0000:fffce000       .debug$S                   10000000     ole32:ole32.dll
 0000:fffce000       .debug$S                   10000000     ole32:ole32.dll
 0000:fffce000       .debug$S                   10000000     ole32:ole32.dll
 0000:fffce000       .debug$S                   10000000     oleaut32:OLEAUT32.dll
 0000:fffce000       .debug$S                   10000000     oleaut32:OLEAUT32.dll
 0000:fffce000       .debug$S                   10000000     oleaut32:OLEAUT32.dll
 0000:fffce000       .debug$S                   10000000     oleaut32:OLEAUT32.dll
 0000:fffce000       .debug$S                   10000000     oleaut32:OLEAUT32.dll
 0000:fffce000       .debug$S                   10000000     oleaut32:OLEAUT32.dll
 0000:fffce000       .debug$S                   10000000     oleaut32:OLEAUT32.dll
 0000:fffce000       .debug$S                   10000000     oleaut32:OLEAUT32.dll
 0000:fffce000       .debug$S                   10000000     oleaut32:OLEAUT32.dll
 0000:fffce000       .debug$S                   10000000     oleaut32:OLEAUT32.dll
 0000:fffce000       .debug$S                   10000000     oleaut32:OLEAUT32.dll
 0000:fffce000       .debug$S                   10000000     oleaut32:OLEAUT32.dll
 0000:fffce000       .debug$S                   10000000     oleaut32:OLEAUT32.dll
 0000:fffce000       .debug$S                   10000000     oleaut32:OLEAUT32.dll
 0000:fffce000       .debug$S                   10000000     oleaut32:OLEAUT32.dll
 0000:fffce000       .debug$S                   10000000     oleaut32:OLEAUT32.dll
 0000:fffce000       .debug$S                   10000000     user32:USER32.dll
 0000:fffce000       .debug$S                   10000000     user32:USER32.dll
 0000:fffce000       .debug$S                   10000000     user32:USER32.dll
 0000:fffce000       .debug$S                   10000000     user32:USER32.dll
 0000:fffce000       .debug$S                   10000000     user32:USER32.dll
 0000:fffce000       .debug$S                   10000000     user32:USER32.dll
 0000:fffce000       .debug$S                   10000000     user32:USER32.dll
 0000:fffce000       .debug$S                   10000000     user32:USER32.dll
 0000:fffce000       .debug$S                   10000000     user32:USER32.dll
 0000:fffce000       .debug$S                   10000000     user32:USER32.dll
 0000:fffce000       .debug$S                   10000000     user32:USER32.dll
 0000:fffce000       .debug$S                   10000000     user32:USER32.dll
 0000:fffce000       .debug$S                   10000000     user32:USER32.dll
 0000:fffce000       .debug$S                   10000000     user32:USER32.dll
 0000:fffce000       .debug$S                   10000000     user32:USER32.dll
 0000:fffce000       .debug$S                   10000000     user32:USER32.dll
 0000:fffce000       .debug$S                   10000000     user32:USER32.dll
 0000:fffce000       .debug$S                   10000000     user32:USER32.dll
 0000:fffce000       .debug$S                   10000000     user32:USER32.dll
 0000:fffce000       .debug$S                   10000000     user32:USER32.dll
 0000:fffce000       .debug$S                   10000000     user32:USER32.dll
 0000:fffce000       .debug$S                   10000000     user32:USER32.dll
 0000:fffce000       .debug$S                   10000000     user32:USER32.dll
 0000:fffce000       .debug$S                   10000000     user32:USER32.dll
 0000:fffce000       .debug$S                   10000000     user32:USER32.dll
 0000:fffce000       .debug$S                   10000000     user32:USER32.dll
 0000:fffce000       .debug$S                   10000000     user32:USER32.dll
 0000:fffce000       .debug$S                   10000000     user32:USER32.dll
 0000:fffce000       .debug$S                   10000000     user32:USER32.dll
 0000:fffce000       .debug$S                   10000000     user32:USER32.dll
 0000:fffce000       .debug$S                   10000000     user32:USER32.dll
 0000:fffce000       .debug$S                   10000000     user32:USER32.dll
 0000:fffce000       .debug$S                   10000000     user32:USER32.dll
 0000:fffce000       .debug$S                   10000000     user32:USER32.dll
 0000:fffce000       .debug$S                   10000000     user32:USER32.dll
 0001:00000000       ??__E_AtlComModule@ATL@@YAXXZ 10001000 f   OposVariant.obj
 0001:00000016       ??__E_AtlWinModule@ATL@@YAXXZ 10001016 f   OposVariant.obj
 0001:0000002c       ??__E?pConnMap@?$IConnectionPointContainerImpl@VCOPOSPOSKeyboard@@@ATL@@0PBU_ATL_CONNMAP_ENTRY@2@B@@YAXXZ 1000102c f   POSKeyboard.obj
 0001:0000003a       ??__E_Module@@YAXXZ        1000103a f   POSKeyboard.obj
 0001:00000064       ??__E_AtlBaseModule@ATL@@YAXXZ 10001064 f   atls:atlbase.obj
 0001:00000f65       $LN24                      10001f65     POSKeyboard.obj
 0001:000058b2       $LN48                      100068b2     POSKeyboard.obj
 0001:000058ca       $LN47                      100068ca     POSKeyboard.obj
 0001:00007a75       $LN38                      10008a75     POSKeyboard.obj
 0001:00007a8d       $LN37                      10008a8d     POSKeyboard.obj
 0001:0000917d       $LN76                      1000a17d     POSKeyboard.obj
 0001:00009195       $LN75                      1000a195     POSKeyboard.obj
 0001:0000954e       _memcpy_s                  1000a54e f   POSKeyboard.obj
 0001:0000b0a6       ?find_pe_section@@YAPAU_IMAGE_SECTION_HEADER@@QAEI@Z 1000c0a6 f   LIBCMT:utility.obj
 0001:0000b3c5       ?__scrt_initialize_thread_safe_statics@@YAHXZ 1000c3c5 f   LIBCMT:thread_safe_statics.obj
 0001:0000b3ec       ?__scrt_initialize_thread_safe_statics_platform_specific@@YAXXZ 1000c3ec f   LIBCMT:thread_safe_statics.obj
 0001:0000b46e       ?__scrt_uninitialize_thread_safe_statics@@YAXXZ 1000c46e f   LIBCMT:thread_safe_statics.obj
 0001:0000b7dd       __catch$??2@YAPAXIABUnothrow_t@std@@@Z$0 1000c7dd f   LIBCMT:new_scalar_nothrow.obj
 0001:0000b820       $$000000                   1000c820     LIBCMT:sehprolg4gs.obj
 0001:0000b880       $$000000                   1000c880     LIBCMT:alloca16.obj
 0001:0000b8b0       $$000000                   1000c8b0     LIBCMT:chkstk.obj
 0001:0000b8dd       ?dllmain_crt_dispatch@@YGHQAUHINSTANCE__@@KQAX@Z 1000c8dd f   LIBCMT:dll_dllmain.obj
 0001:0000b930       ?dllmain_crt_process_attach@@YAHQAUHINSTANCE__@@QAX@Z 1000c930 f   LIBCMT:dll_dllmain.obj
 0001:0000ba37       ?dllmain_crt_process_detach@@YAH_N@Z 1000ca37 f   LIBCMT:dll_dllmain.obj
 0001:0000bae7       ?dllmain_dispatch@@YAHQAUHINSTANCE__@@KQAX@Z 1000cae7 f   LIBCMT:dll_dllmain.obj
 0001:0000bbf2       ?dllmain_raw@@YGHQAUHINSTANCE__@@KQAX@Z 1000cbf2 f   LIBCMT:dll_dllmain.obj
 0001:0000bf70       $$000000                   1000cf70     LIBCMT:sehprolg4.obj
 0001:0000bfcb       ___get_entropy             1000cfcb f   LIBCMT:gs_support.obj
 0001:0000c2c2       ??$GetProcAddressAll@P6GP6GJPAUHWND__@@IIJ@ZPAUAtlThunkData_t@@@Z@@YAP6GP6GJPAUHWND__@@IIJ@ZPAUAtlThunkData_t@@@ZPAP6GP6GJ0IIJ@Z1@Z@Z 1000d2c2 f   atls:atlthunk.obj
 0001:0000c2c2       ??$GetProcAddressAll@P6GPAUAtlThunkData_t@@XZ@@YAP6GPAUAtlThunkData_t@@XZPAP6GPAU0@XZ@Z 1000d2c2 f   atls:atlthunk.obj
 0001:0000c2c2       ??$GetProcAddressAll@P6GXPAUAtlThunkData_t@@@Z@@YAP6GXPAUAtlThunkData_t@@@ZPAP6GX0@Z@Z 1000d2c2 f   atls:atlthunk.obj
 0001:0000c2c2       ??$GetProcAddressAll@P6GXPAUAtlThunkData_t@@PAXI@Z@@YAP6GXPAUAtlThunkData_t@@PAXI@ZPAP6GX01I@Z@Z 1000d2c2 f   atls:atlthunk.obj
 0001:0000c372       ?GetProcAddressSingle@@YA_NPAUHINSTANCE__@@PBDPAPAX@Z 1000d372 f   atls:atlthunk.obj
 0001:0000c4c4       ?__InitializeThunkPool@@YAHXZ 1000d4c4 f   atls:atlthunk.obj
 0001:0000c910       _ValidateLocalCookies      1000d910 f   libvcruntime:chandler4.obj
 0001:0000d93a       $LN1250                    1000e93a     libvcruntime:memcmp.obj
 0001:0000d9c0       $$000000                   1000e9c0     libvcruntime:memcpy.obj
 0001:0000dc24       TrailingUpVec              1000ec24     libvcruntime:memcpy.obj
 0001:0000dcd0       TrailingDownVec            1000ecd0     libvcruntime:memcpy.obj
 0001:0000df40       $$000000                   1000ef40     libvcruntime:memset.obj
 0001:0000e543       ?_FilterSetCurrentException@@YAKPAU_EXCEPTION_POINTERS@@E@Z 1000f543 f   libvcruntime:ehhelpers.obj
 0001:0000e790       $$000000                   1000f790     libvcruntime:memmove.obj
 0001:0000e9f4       TrailingUpVec              1000f9f4     libvcruntime:memmove.obj
 0001:0000eaa0       TrailingDownVec            1000faa0     libvcruntime:memmove.obj
 0001:0000ed10       $$000000                   1000fd10     libvcruntime:exsup4.obj
 0001:0000ed9d       __unwind_handler4          1000fd9d f   libvcruntime:exsup4.obj
 0001:0000f07b       ??$BuildCatchObjectHelperInternal@V__FrameHandler3@@@@YAHPAUEHExceptionRecord@@PAXPBU_s_HandlerType@@PBU_s_CatchableType@@@Z 1001007b f   libvcruntime:frame.obj
 0001:0000f1b9       ??$BuildCatchObjectInternal@V__FrameHandler3@@@@YAXPAUEHExceptionRecord@@PAXPBU_s_HandlerType@@PBU_s_CatchableType@@@Z 100101b9 f   libvcruntime:frame.obj
 0001:0000f252       ??$CatchIt@V__FrameHandler3@@@@YAXPAUEHExceptionRecord@@PAUEHRegistrationNode@@PAU_CONTEXT@@PAXPBU_s_FuncInfo@@PBU_s_HandlerType@@PBU_s_CatchableType@@PBU_s_TryBlockMapEntry@@H1EE@Z 10010252 f   libvcruntime:frame.obj
 0001:0000f2d2       ??$FindHandler@V__FrameHandler3@@@@YAXPAUEHExceptionRecord@@PAUEHRegistrationNode@@PAU_CONTEXT@@PAXPBU_s_FuncInfo@@EH1@Z 100102d2 f   libvcruntime:frame.obj
 0001:0000f688       ??$FindHandlerForForeignException@V__FrameHandler3@@@@YAXPAUEHExceptionRecord@@PAUEHRegistrationNode@@PAU_CONTEXT@@PAXPBU_s_FuncInfo@@HH1@Z 10010688 f   libvcruntime:frame.obj
 0001:0000f9a0       ?CallCatchBlock@@YAPAXPAUEHExceptionRecord@@PAUEHRegistrationNode@@PAU_CONTEXT@@PBU_s_FuncInfo@@PAXHK@Z 100109a0 f   libvcruntime:frame.obj
 0001:0000fb64       ?CallUnexpected@@YAXPBU_s_ESTypeList@@@Z 10010b64 f   libvcruntime:frame.obj
 0001:0000fb84       __catch$?CallUnexpected@@YAXPBU_s_ESTypeList@@@Z$0 10010b84 f   libvcruntime:frame.obj
 0001:0000fba3       ?ExFilterRethrow@@YAHPAU_EXCEPTION_POINTERS@@@Z 10010ba3 f   libvcruntime:frame.obj
 0001:0000fced       ?IsInExceptionSpec@@YAEPAUEHExceptionRecord@@PBU_s_ESTypeList@@@Z 10010ced f   libvcruntime:frame.obj
 0001:0000fdc0       $$000000                   10010dc0     libvcruntime:lowhelpr.obj
 0001:0000fe10       $$000000                   10010e10     libvcruntime:exsup.obj
 0001:0000fe31       __unwind_handler           10010e31 f   libvcruntime:exsup.obj
 0001:0000ff4e       ?try_get_first_available_module@@YAPAUHINSTANCE__@@QBW4module_id@?A0xb97aeec8@@0@Z 10010f4e f   libvcruntime:winapi_downlevel.obj
 0001:0000ffe8       ?try_get_function@@YAPAXW4function_id@?A0xb97aeec8@@QBDQBW4module_id@2@2@Z 10010fe8 f   libvcruntime:winapi_downlevel.obj
 0001:00010672       ??$common_tcsncpy_s@_W@@YAHQA_WIQB_WI@Z 10011672 f   libucrt:wcsncpy_s.obj
 0001:00010748       ??$common_vsprintf@Vformat_validation_base@__crt_stdio_output@@_W@@YAH_KQA_WIQB_WQAU__crt_locale_pointers@@QAD@Z 10011748 f   libucrt:output.obj
 0001:000108cf       ??$common_vsprintf_s@_W@@YAH_KQA_WIQB_WQAU__crt_locale_pointers@@QAD@Z 100118cf f   libucrt:output.obj
 0001:00011033       $LN48                      10012033     libucrt:output.obj
 0001:0001153c       $LN18                      1001253c     libucrt:output.obj
 0001:00011550       $LN17                      10012550     libucrt:output.obj
 0001:00011dab       ??$?RV<lambda_03b1d95aef87969028cfba75ccab2455>@@AAV<lambda_6e4b09c48022b2350581041d5f6b0c4c>@@V<lambda_22bdf7517842c4b3e53723af5aa32b9e>@@@?$__crt_seh_guarded_call@X@@QAEX$$QAV<lambda_03b1d95aef87969028cfba75ccab2455>@@AAV<lambda_6e4b09c48022b2350581041d5f6b0c4c>@@$$QAV<lambda_22bdf7517842c4b3e53723af5aa32b9e>@@@Z 10012dab f   libucrt:exit.obj
 0001:00011df8       ??R<lambda_6e4b09c48022b2350581041d5f6b0c4c>@@QBE@XZ 10012df8 f   libucrt:exit.obj
 0001:00011ed2       ?atexit_exception_filter@@YAHK@Z 10012ed2 f   libucrt:exit.obj
 0001:00011ee5       ?common_exit@@YAXHW4_crt_exit_cleanup_mode@@W4_crt_exit_return_mode@@@Z 10012ee5 f   libucrt:exit.obj
 0001:00011f49       ?exit_or_terminate_process@@YAXI@Z 10012f49 f   libucrt:exit.obj
 0001:00011f8b       ?is_managed_app@@YA_NXZ    10012f8b f   libucrt:exit.obj
 0001:00011fce       ?try_cor_exit_process@@YAXI@Z 10012fce f   libucrt:exit.obj
 0001:0001205c       ??$common_configure_argv@D@@YAHW4_crt_argv_mode@@@Z 1001305c f   libucrt:argv_parsing.obj
 0001:00012192       ??$parse_command_line@D@@YAXPADPAPAD0PAI2@Z 10013192 f   libucrt:argv_parsing.obj
 0001:00012360       ??$common_initialize_environment_nolock@D@@YAHXZ 10013360 f   libucrt:environment_initialization.obj
 0001:000123b3       ??$create_environment@D@@YAQAPADQAD@Z 100133b3 f   libucrt:environment_initialization.obj
 0001:00012483       ??$free_environment@D@@YAXQAPAD@Z 10013483 f   libucrt:environment_initialization.obj
 0001:00012483       ??$free_environment@_W@@YAXQAPA_W@Z 10013483 f   libucrt:environment_initialization.obj
 0001:000124db       ??$uninitialize_environment_internal@D@@YAXAAPAPAD@Z 100134db f   libucrt:environment_initialization.obj
 0001:000124f6       ??$uninitialize_environment_internal@_W@@YAXAAPAPA_W@Z 100134f6 f   libucrt:environment_initialization.obj
 0001:0001254d       ??$?RV<lambda_69a2805e680e0e292e8ba93315fe43a8>@@AAV<lambda_f03950bc5685219e0bcd2087efbe011e>@@V<lambda_03fcd07e894ec930e3f35da366ca99d6>@@@?$__crt_seh_guarded_call@H@@QAEH$$QAV<lambda_69a2805e680e0e292e8ba93315fe43a8>@@AAV<lambda_f03950bc5685219e0bcd2087efbe011e>@@$$QAV<lambda_03fcd07e894ec930e3f35da366ca99d6>@@@Z 1001354d f   libucrt:onexit.obj
 0001:000125a8       ??$?RV<lambda_8e746cf0007f6ed984d6f78af1fec997>@@AAV<lambda_22ebabd17bc4fa466a2aca6d8deb888d>@@V<lambda_18ed0c0b38a6dc0daf1e7ac6d6adf05e>@@@?$__crt_seh_guarded_call@H@@QAEH$$QAV<lambda_8e746cf0007f6ed984d6f78af1fec997>@@AAV<lambda_22ebabd17bc4fa466a2aca6d8deb888d>@@$$QAV<lambda_18ed0c0b38a6dc0daf1e7ac6d6adf05e>@@@Z 100135a8 f   libucrt:onexit.obj
 0001:00012622       ??R<lambda_22ebabd17bc4fa466a2aca6d8deb888d>@@QBEHXZ 10013622 f   libucrt:onexit.obj
 0001:0001274b       ??R<lambda_f03950bc5685219e0bcd2087efbe011e>@@QBEHXZ 1001374b f   libucrt:onexit.obj
 0001:000128c4       _initialize_global_variables 100138c4 f   libucrt:initialization.obj
 0001:000128d1       _initialize_c              100138d1 f   libucrt:initialization.obj
 0001:000128eb       _initialize_environment    100138eb f   libucrt:initialization.obj
 0001:000128eb       _initialize_global_state_isolation 100138eb f   libucrt:initialization.obj
 0001:000128eb       _report_memory_leaks       100138eb f   libucrt:initialization.obj
 0001:000128eb       _uninitialize_c            100138eb f   libucrt:initialization.obj
 0001:000128eb       _uninitialize_global_state_isolation 100138eb f   libucrt:initialization.obj
 0001:000128ee       _uninitialize_environment  100138ee f   libucrt:initialization.obj
 0001:000128f6       _initialize_pointers       100138f6 f   libucrt:initialization.obj
 0001:00012924       _uninitialize_vcruntime    10013924 f   libucrt:initialization.obj
 0001:0001292d       _uninitialize_allocated_memory 1001392d f   libucrt:initialization.obj
 0001:00012944       _uninitialize_allocated_io_buffers 10013944 f   libucrt:initialization.obj
 0001:00012994       ??R<lambda_af42a3ee9806e9a7305d451646e05244>@@QBEXAAPAU__crt_multibyte_data@@@Z 10013994 f   libucrt:initialization.obj
 0001:00013280       $$000000                   10014280     libucrt:strncmp.obj
 0001:0001336c       ??$?RV<lambda_15ade71b0218206bbe3333a0c9b79046>@@AAV<lambda_da44e0f8b0f19ba52fefafb335991732>@@V<lambda_207f2d024fc103971653565357d6cd41>@@@?$__crt_seh_guarded_call@X@@QAEX$$QAV<lambda_15ade71b0218206bbe3333a0c9b79046>@@AAV<lambda_da44e0f8b0f19ba52fefafb335991732>@@$$QAV<lambda_207f2d024fc103971653565357d6cd41>@@@Z 1001436c f   libucrt:per_thread_data.obj
 0001:000133be       ??$?RV<lambda_38edbb1296d33220d7e4dd0ed76b244a>@@AAV<lambda_5ce1d447e08cb34b2473517608e21441>@@V<lambda_fb385d3da700c9147fc39e65dd577a8c>@@@?$__crt_seh_guarded_call@X@@QAEX$$QAV<lambda_38edbb1296d33220d7e4dd0ed76b244a>@@AAV<lambda_5ce1d447e08cb34b2473517608e21441>@@$$QAV<lambda_fb385d3da700c9147fc39e65dd577a8c>@@@Z 100143be f   libucrt:per_thread_data.obj
 0001:00013429       ??$?RV<lambda_6affb1475c98b40b75cdec977db92e3c>@@AAV<lambda_b8d4b9c228a6ecc3f80208dbb4b4a104>@@V<lambda_608742c3c92a14382c1684fc64f96c88>@@@?$__crt_seh_guarded_call@X@@QAEX$$QAV<lambda_6affb1475c98b40b75cdec977db92e3c>@@AAV<lambda_b8d4b9c228a6ecc3f80208dbb4b4a104>@@$$QAV<lambda_608742c3c92a14382c1684fc64f96c88>@@@Z 10014429 f   libucrt:per_thread_data.obj
 0001:0001347e       ??$?RV<lambda_a7e850c220f1c8d1e6efeecdedd162c6>@@AAV<lambda_46720907175c18b6c9d2717bc0d2d362>@@V<lambda_9048902d66e8d99359bc9897bbb930a8>@@@?$__crt_seh_guarded_call@X@@QAEX$$QAV<lambda_a7e850c220f1c8d1e6efeecdedd162c6>@@AAV<lambda_46720907175c18b6c9d2717bc0d2d362>@@$$QAV<lambda_9048902d66e8d99359bc9897bbb930a8>@@@Z 1001447e f   libucrt:per_thread_data.obj
 0001:000134d8       ?construct_ptd@@YAXQAU__acrt_ptd@@QAPAU__crt_locale_data@@@Z 100144d8 f   libucrt:per_thread_data.obj
 0001:00013571       ?destroy_fls@@YGXPAX@Z     10014571 f   libucrt:per_thread_data.obj
 0001:00013592       ?destroy_ptd@@YAXQAU__acrt_ptd@@@Z 10014592 f   libucrt:per_thread_data.obj
 0001:0001365f       ?replace_current_thread_locale_nolock@@YAXQAU__acrt_ptd@@QAU__crt_locale_data@@@Z 1001465f f   libucrt:per_thread_data.obj
 0001:00013a6f       ?try_get_AreFileApisANSI@@YAP6GHXZXZ 10014a6f f   libucrt:winapi_thunks.obj
 0001:00013a89       ?try_get_LCMapStringEx@@YAP6GHPB_WK0HPA_WHPAU_nlsversioninfo@@PAXJ@ZXZ 10014a89 f   libucrt:winapi_thunks.obj
 0001:00013aa3       ?try_get_LocaleNameToLCID@@YAP6GKPB_WK@ZXZ 10014aa3 f   libucrt:winapi_thunks.obj
 0001:00013abd       ?try_get_first_available_module@@YAPAUHINSTANCE__@@QBW4module_id@?A0x391cf84c@@0@Z 10014abd f   libucrt:winapi_thunks.obj
 0001:00013b84       ?try_get_function@@YAPAXW4function_id@?A0x391cf84c@@QBDQBW4module_id@2@2@Z 10014b84 f   libucrt:winapi_thunks.obj
 0001:000142e7       ?fe_to_nearest@@YA_NQBN_KF@Z 100152e7 f   libucrt:cvt.obj
 0001:0001438a       ?fp_format_a@@YAHQBNPADIQADIH_NIQAU__crt_locale_pointers@@W4__acrt_rounding_mode@@@Z 1001538a f   libucrt:cvt.obj
 0001:00014699       ?fp_format_e@@YAHQBNQADI1IH_NIQAU__crt_locale_pointers@@W4__acrt_rounding_mode@@@Z 10015699 f   libucrt:cvt.obj
 0001:00014741       ?fp_format_e_internal@@YAHQADIH_NIQAU_strflt@@1QAU__crt_locale_pointers@@@Z 10015741 f   libucrt:cvt.obj
 0001:00014889       ?fp_format_f@@YAHQBNQADI1IHQAU__crt_locale_pointers@@W4__acrt_rounding_mode@@@Z 10015889 f   libucrt:cvt.obj
 0001:0001491a       ?fp_format_f_internal@@YAHQADIHQAU_strflt@@_NQAU__crt_locale_pointers@@@Z 1001591a f   libucrt:cvt.obj
 0001:00014a12       ?fp_format_g@@YAHQBNQADI1IH_NIQAU__crt_locale_pointers@@@Z 10015a12 f   libucrt:cvt.obj
 0001:00014adb       ?fp_format_nan_or_infinity@@YAHW4__acrt_fp_class@@_NPADI1@Z 10015adb f   libucrt:cvt.obj
 0001:00014b70       ?shift_bytes@@YAXQADI0H@Z  10015b70 f   libucrt:cvt.obj
 0001:00014ba4       ?should_round_up@@YA_NQBN_KFW4__acrt_rounding_mode@@@Z 10015ba4 f   libucrt:cvt.obj
 0001:00014f0d       ??$?RV<lambda_e5124f882df8998aaf41531e079ba474>@@AAV<lambda_3e16ef9562a7dcce91392c22ab16ea36>@@V<lambda_e25ca0880e6ef98be67edffd8c599615>@@@?$__crt_seh_guarded_call@X@@QAEX$$QAV<lambda_e5124f882df8998aaf41531e079ba474>@@AAV<lambda_3e16ef9562a7dcce91392c22ab16ea36>@@$$QAV<lambda_e25ca0880e6ef98be67edffd8c599615>@@@Z 10015f0d f   libucrt:wsetlocale.obj
 0001:00014fad       ?initialize_inherited_file_handles_nolock@@YAXXZ 10015fad f   libucrt:ioinit.obj
 0001:00015063       ?initialize_stdio_handles_nolock@@YAXXZ 10016063 f   libucrt:ioinit.obj
 0001:00015274       ?<lambda_invoker_cdecl>@<lambda_838c7f62c73c983481e27c09e84b0b5d>@@CAHPBX0@Z 10016274 f   libucrt:argv_wildcards.obj
 0001:0001528c       ??$__acrt_convert_wcs_mbs_cp@D_WV<lambda_62f6974d9771e494a5ea317cc32e971c>@@U__crt_win32_buffer_internal_dynamic_resizing@@@@YAHQBDAAV?$__crt_win32_buffer@_WU__crt_win32_buffer_internal_dynamic_resizing@@@@ABV<lambda_62f6974d9771e494a5ea317cc32e971c>@@I@Z 1001628c f   libucrt:argv_wildcards.obj
 0001:0001533e       ??$__acrt_convert_wcs_mbs_cp@_WDV<lambda_28bda7af82a03b66c1cb3803a755f95d>@@U__crt_win32_buffer_internal_dynamic_resizing@@@@YAHQB_WAAV?$__crt_win32_buffer@DU__crt_win32_buffer_internal_dynamic_resizing@@@@ABV<lambda_28bda7af82a03b66c1cb3803a755f95d>@@I@Z 1001633e f   libucrt:argv_wildcards.obj
 0001:0001542a       ??$common_expand_argv_wildcards@D@@YAHQAPADQAPAPAD@Z 1001642a f   libucrt:argv_wildcards.obj
 0001:00015619       ??$copy_and_add_argument_to_buffer@D@@YAHQBD0IAAV?$argument_list@D@?A0x5f5c8891@@@Z 10016619 f   libucrt:argv_wildcards.obj
 0001:000156ca       ??$expand_argument_wildcards@D@@YAHQAD0AAV?$argument_list@D@?A0x5f5c8891@@@Z 100166ca f   libucrt:argv_wildcards.obj
 0001:00015a14       ?expand_if_necessary@?$argument_list@D@?A0x5f5c8891@@AAEHXZ 10016a14 f   libucrt:argv_wildcards.obj
 0001:00015aa6       ??$__acrt_convert_wcs_mbs_cp@_WDV<lambda_0fec1a7b3f42a53036604e18c2d5e07e>@@U__crt_win32_buffer_no_resizing@@@@YAHQB_WAAV?$__crt_win32_buffer@DU__crt_win32_buffer_no_resizing@@@@ABV<lambda_0fec1a7b3f42a53036604e18c2d5e07e>@@I@Z 10016aa6 f   libucrt:getmodulefilenamea.obj
 0001:00015c49       ??$?RV<lambda_ceb1ee4838e85a9d631eb091e2fbe199>@@AAV<lambda_ae742caa10f662c28703da3d2ea5e57e>@@V<lambda_cd08b5d6af4937fe54fc07d0c9bf6b37>@@@?$__crt_seh_guarded_call@X@@QAEX$$QAV<lambda_ceb1ee4838e85a9d631eb091e2fbe199>@@AAV<lambda_ae742caa10f662c28703da3d2ea5e57e>@@$$QAV<lambda_cd08b5d6af4937fe54fc07d0c9bf6b37>@@@Z 10016c49 f   libucrt:mbctype.obj
 0001:00015c96       ??R<lambda_ae742caa10f662c28703da3d2ea5e57e>@@QBEXXZ 10016c96 f   libucrt:mbctype.obj
 0001:00015d19       ?CPtoLocaleName@@YAPB_WH@Z 10016d19 f   libucrt:mbctype.obj
 0001:00015d57       ?getSystemCP@@YAHH@Z       10016d57 f   libucrt:mbctype.obj
 0001:00015dc8       ?setSBCS@@YAXPAU__crt_multibyte_data@@@Z 10016dc8 f   libucrt:mbctype.obj
 0001:00015e2d       ?setSBUpLow@@YAXPAU__crt_multibyte_data@@@Z 10016e2d f   libucrt:mbctype.obj
 0001:00015fad       ?setmbcp_internal@@YAHH_NQAU__acrt_ptd@@QAPAU__crt_multibyte_data@@@Z 10016fad f   libucrt:mbctype.obj
 0001:000160c1       ?update_thread_multibyte_data_internal@@YAPAU__crt_multibyte_data@@QAU__acrt_ptd@@QAPAU1@@Z 100170c1 f   libucrt:mbctype.obj
 0001:000163af       _memcpy_s                  100173af f   libucrt:cfout.obj
 0001:000163af       _memcpy_s                  100173af f   libucrt:mbctype.obj
 0001:00016430       ?x_ismbbtype_l@@YAHPAU__crt_locale_pointers@@IHH@Z 10017430 f   libucrt:ismbbyte.obj
 0001:000165eb       ?find_end_of_double_null_terminated_sequence@@YAPB_WQB_W@Z 100175eb f   libucrt:get_environment_from_os.obj
 0001:0001675a       ??$?RV<lambda_cbab9ec6f41b0180b23cc171c22676b0>@@AAV<lambda_44731a7d0e6d81c3e6aa82d741081786>@@V<lambda_4b292cb8dd18144e164572427af410ab>@@@?$__crt_seh_guarded_call@P6AXH@Z@@QAEP6AXH@Z$$QAV<lambda_cbab9ec6f41b0180b23cc171c22676b0>@@AAV<lambda_44731a7d0e6d81c3e6aa82d741081786>@@$$QAV<lambda_4b292cb8dd18144e164572427af410ab>@@@Z 1001775a f   libucrt:signal.obj
 0001:000167be       ?get_global_action_nolock@@YAPAP6AXH@ZH@Z 100177be f   libucrt:signal.obj
 0001:00016800       ?siglookup@@YAPAU__crt_signal_action_t@@HQAU1@@Z 10017800 f   libucrt:signal.obj
 0001:00016ab9       ??$?RV<lambda_2866be3712abc81a800a822484c830d8>@@AAV<lambda_39ca0ed439415581b5b15c265174cece>@@V<lambda_2b24c74d71094a6cd0cb82e44167d71b>@@@?$__crt_seh_guarded_call@X@@QAEX$$QAV<lambda_2866be3712abc81a800a822484c830d8>@@AAV<lambda_39ca0ed439415581b5b15c265174cece>@@$$QAV<lambda_2b24c74d71094a6cd0cb82e44167d71b>@@@Z 10017ab9 f   libucrt:fflush.obj
 0001:00016b45       ??$?RV<lambda_2cc53f568c5a2bb6f192f930a45d44ea>@@AAV<lambda_ab61a845afdef5b7c387490eaf3616ee>@@V<lambda_c2ffc0b7726aa6be21d5f0026187e748>@@@?$__crt_seh_guarded_call@X@@QAEX$$QAV<lambda_2cc53f568c5a2bb6f192f930a45d44ea>@@AAV<lambda_ab61a845afdef5b7c387490eaf3616ee>@@$$QAV<lambda_c2ffc0b7726aa6be21d5f0026187e748>@@@Z 10017b45 f   libucrt:fflush.obj
 0001:00016bf1       ?common_flush_all@@YAH_N@Z 10017bf1 f   libucrt:fflush.obj
 0001:00016c3e       ?common_flush_all_should_try_to_flush_stream@@YA_NV__crt_stdio_stream@@QAH@Z 10017c3e f   libucrt:fflush.obj
 0001:00016c71       ?is_stream_flushable_or_commitable@@YA_NJ@Z 10017c71 f   libucrt:fflush.obj
 0001:0001717a       ?GetTableIndexFromLocaleName@@YAHPB_W@Z 1001817a f   libucrt:lcidtoname_downlevel.obj
 0001:00017230       ??R<lambda_3d301b9e52f5099be73030e1f0bf487e>@@QBEIPBD@Z 10018230 f   libucrt:mbrtowc.obj
 0001:000173b6       ?should_round_up@@YA_NQBDHW4__acrt_has_trailing_digits@@W4__acrt_rounding_mode@@@Z 100183b6 f   libucrt:_fptostr.obj
 0001:00019154       ?free_crt_array_internal@@YAXQAPBXI@Z 1001a154 f   libucrt:inittime.obj
 0001:00019b1e       ??$common_tcsncpy_s@D@@YAHQADIQBDI@Z 1001ab1e f   libucrt:strncpy_s.obj
 0001:00019be0       $$000000                   1001abe0     libucrt:strpbrk.obj
 0001:00019cc4       ?__acrt_LCMapStringA_stat@@YAHPAU__crt_locale_pointers@@PB_WKPBDHPADHHH@Z 1001acc4 f   libucrt:lcmapstringa.obj
 0001:00019ef7       ?initialize_multibyte@@YAHXZ 1001aef7 f   libucrt:multibyte_initializer.obj
 0001:00019f06       ??$?RV<lambda_9e9de3de5fa147e2223d7db92bc10aa6>@@AAV<lambda_38ce7e780aa69e748d6df282ebc68efe>@@V<lambda_8ca6da459f0f6780f1cff60fdc3d00e5>@@@?$__crt_seh_guarded_call@H@@QAEH$$QAV<lambda_9e9de3de5fa147e2223d7db92bc10aa6>@@AAV<lambda_38ce7e780aa69e748d6df282ebc68efe>@@$$QAV<lambda_8ca6da459f0f6780f1cff60fdc3d00e5>@@@Z 1001af06 f   libucrt:commit.obj
 0001:0001a025       ?write_double_translated_ansi_nolock@@YA?AUwrite_result@?A0x17268360@@HQBDI@Z 1001b025 f   libucrt:write.obj
 0001:0001a3d1       ?write_double_translated_unicode_nolock@@YA?AUwrite_result@?A0x17268360@@QBDI@Z 1001b3d1 f   libucrt:write.obj
 0001:0001a439       ?write_requires_double_translation_nolock@@YA_NH@Z 1001b439 f   libucrt:write.obj
 0001:0001a4aa       ?write_text_ansi_nolock@@YA?AUwrite_result@?A0x17268360@@HQBDI@Z 1001b4aa f   libucrt:write.obj
 0001:0001a585       ?write_text_utf16le_nolock@@YA?AUwrite_result@?A0x17268360@@HQBDI@Z 1001b585 f   libucrt:write.obj
 0001:0001a66e       ?write_text_utf8_nolock@@YA?AUwrite_result@?A0x17268360@@HQBDI@Z 1001b66e f   libucrt:write.obj
 0001:0001ad90       $$000000                   1001bd90     libucrt:log10_impl.obj
 0001:0001aea0       $$000000                   1001bea0     libucrt:ceil_pentium4.obj
 0001:0001afbd       ?to_abstract_control@@YA?AW4__acrt_fenv_abstract_control@@W4__acrt_fenv_machine_sse_control@@@Z 1001bfbd f   libucrt:_fenvutils.obj
 0001:0001b079       ?to_abstract_control@@YA?AW4__acrt_fenv_abstract_control@@W4__acrt_fenv_machine_x87_control@@@Z 1001c079 f   libucrt:_fenvutils.obj
 0001:0001b132       ?to_machine_sse_control@@YA?AW4__acrt_fenv_machine_sse_control@@W4__acrt_fenv_abstract_control@@@Z 1001c132 f   libucrt:_fenvutils.obj
 0001:0001b1ff       ?to_machine_x87_control@@YA?AW4__acrt_fenv_machine_x87_control@@W4__acrt_fenv_abstract_control@@@Z 1001c1ff f   libucrt:_fenvutils.obj
 0001:0001b593       ??$common_lseek_nolock@_J@@YA_JH_JH@Z 1001c593 f   libucrt:lseek.obj
 0001:0001b779       ___hw_cw_sse2              1001c779 f   libucrt:ieee87.obj
 0001:0001bbff       __hw_cw                    1001cbff f   libucrt:ieee87.obj
 0001:0001bcb0       $$000000                   1001ccb0     libucrt:log10_pentium4.obj
 0001:0001bf40       $$000000                   1001cf40     libucrt:87tran.obj
 0001:0001c150       $$000000                   1001d150     libucrt:87disp.obj
 0001:0001c3b0       $$000000                   1001d3b0     libucrt:common.obj
 0001:0001c540       $$000000                   1001d540     libucrt:genexcep.obj
 0001:0001c83c       ??$?RV<lambda_218ce3db14220d0be481dae8ef3383b6>@@AAV<lambda_628dfdc04ba53c8bfc02c9951375f3f5>@@V<lambda_57dc472bd5c9d5f3b2cbca59b8a843ae>@@@?$__crt_seh_guarded_call@H@@QAEH$$QAV<lambda_218ce3db14220d0be481dae8ef3383b6>@@AAV<lambda_628dfdc04ba53c8bfc02c9951375f3f5>@@$$QAV<lambda_57dc472bd5c9d5f3b2cbca59b8a843ae>@@@Z 1001d83c f   libucrt:close.obj
 0001:0001ca30       $$000000                   1001da30     libucrt:_strnicm.obj
 0001:0001ca91       ?__dcrt_lowio_initialize_console_output@@YAXXZ 1001da91 f   libucrt:initcon.obj
 0001:0001d970       $$000000                   1001e970     LIBCMT:ulldvrm.obj
 0001:0001da10       $$000000                   1001ea10     LIBCMT:llmul.obj
 0001:0001da50       $$000000                   1001ea50     LIBCMT:lldvrm.obj
 0001:0001db30       $$000000                   1001eb30     LIBCMT:llshl.obj
 0001:0001db50       $$000000                   1001eb50     LIBCMT:ullshr.obj
 0001:0001db70       $$000000                   1001eb70     LIBCMT:ftol2.obj
 0001:0001de10       $$000000                   1001ee10     libvcruntime:strrchr.obj
 0001:0001df50       $$000000                   1001ef50     libvcruntime:strchr.obj
 0001:0001e0f3       __ehhandler$??2@YAPAXIABUnothrow_t@std@@@Z 1001f0f3 f   LIBCMT:new_scalar_nothrow.obj
 0001:0001e110       __ehhandler$?CallUnexpected@@YAXPBU_s_ESTypeList@@@Z 1001f110 f   libvcruntime:frame.obj
 0001:0001e12d       ??__F_AtlComModule@ATL@@YAXXZ 1001f12d f   OposVariant.obj
 0001:0001e137       ??__F_AtlWinModule@ATL@@YAXXZ 1001f137 f   OposVariant.obj
 0001:0001e151       ??__F_Module@@YAXXZ        1001f151 f   POSKeyboard.obj
 0001:0001e165       ??__F_AtlBaseModule@ATL@@YAXXZ 1001f165 f   atls:atlbase.obj
 0002:00000304       ?_AtlBaseModule$initializer$@ATL@@3P6AXXZA 10020304     atls:atlbase.obj
 0002:00000308       ?_AtlComModule$initializer$@ATL@@3P6AXXZA 10020308     OposVariant.obj
 0002:0000030c       ?_AtlWinModule$initializer$@ATL@@3P6AXXZA 1002030c     OposVariant.obj
 0002:00000310       ?_Module$initializer$@@3P6AXXZA 10020310     POSKeyboard.obj
 0002:00000314       ??pConnMap$initializer$@?$IConnectionPointContainerImpl@VCOPOSPOSKeyboard@@@ATL@@0P6AXXZA@@3P6AXXZA 10020314     POSKeyboard.obj
 0002:00000320       ?__scrt_initialize_tss_var@@3P6AHXZA 10020320     LIBCMT:thread_safe_statics.obj
 0002:000017b8       _GS_ExceptionPointers      100217b8     LIBCMT:gs_report.obj
 0002:00001948       ?tokenTable@@3QBUStringLiteral@@B 10021948     libvcruntime:undname.obj
 0002:000019c8       ?nameTable@@3QBUStringLiteral@@B 100219c8     libvcruntime:undname.obj
 0002:00001c60       ?rttiTable@@3QBUStringLiteral@@B 10021c60     libvcruntime:undname.obj
 0002:00001c88       ?IndirectionName@@3QBUStringLiteral@@B 10021c88     libvcruntime:undname.obj
 0002:00001cb8       ?PrefixName@@3QBUStringLiteral@@B 10021cb8     libvcruntime:undname.obj
 0002:000022e8       ?module_names@?A0xb97aeec8@@3QBQB_WB 100222e8     libvcruntime:winapi_downlevel.obj
 0002:00002390       ?candidate_modules@?1??try_get_FlsAlloc@@YAP6GKP6GXPAX@Z@ZXZ@4QBW4module_id@?A0xb97aeec8@@B 10022390     libvcruntime:winapi_downlevel.obj
 0002:000023a4       ?candidate_modules@?1??try_get_FlsFree@@YAP6GHK@ZXZ@4QBW4module_id@?A0xb97aeec8@@B 100223a4     libvcruntime:winapi_downlevel.obj
 0002:000023b4       ?candidate_modules@?1??try_get_FlsGetValue@@YAP6GPAXK@ZXZ@4QBW4module_id@?A0xb97aeec8@@B 100223b4     libvcruntime:winapi_downlevel.obj
 0002:000023c8       ?candidate_modules@?1??try_get_FlsSetValue@@YAP6GHKPAX@ZXZ@4QBW4module_id@?A0xb97aeec8@@B 100223c8     libvcruntime:winapi_downlevel.obj
 0002:000023dc       ?candidate_modules@?1??try_get_InitializeCriticalSectionEx@@YAP6GHPAU_RTL_CRITICAL_SECTION@@KK@ZXZ@4QBW4module_id@?A0xb97aeec8@@B 100223dc     libvcruntime:winapi_downlevel.obj
 0002:00002400       ?errtable@@3QBUerrentry@?A0x31fdb9ec@@B 10022400     libucrt:errno.obj
 0002:00002a48       ___acrt_initializers       10022a48     libucrt:initialization.obj
 0002:00002ac8       ?module_names@?A0x391cf84c@@3QBQB_WB 10022ac8     libucrt:winapi_thunks.obj
 0002:00002f40       ?candidate_modules@?1??try_get_AreFileApisANSI@@YAP6GHXZXZ@4QBW4module_id@?A0x391cf84c@@B 10022f40     libucrt:winapi_thunks.obj
 0002:00002f54       ?candidate_modules@?1??try_get_FlsAlloc@@YAP6GKP6GXPAX@Z@ZXZ@4QBW4module_id@?A0x391cf84c@@B 10022f54     libucrt:winapi_thunks.obj
 0002:00002f5c       ?candidate_modules@?1??try_get_FlsFree@@YAP6GHK@ZXZ@4QBW4module_id@?A0x391cf84c@@B 10022f5c     libucrt:winapi_thunks.obj
 0002:00002f64       ?candidate_modules@?1??try_get_FlsGetValue@@YAP6GPAXK@ZXZ@4QBW4module_id@?A0x391cf84c@@B 10022f64     libucrt:winapi_thunks.obj
 0002:00002f6c       ?candidate_modules@?1??try_get_FlsSetValue@@YAP6GHKPAX@ZXZ@4QBW4module_id@?A0x391cf84c@@B 10022f6c     libucrt:winapi_thunks.obj
 0002:00002f74       ?candidate_modules@?1??try_get_InitializeCriticalSectionEx@@YAP6GHPAU_RTL_CRITICAL_SECTION@@KK@ZXZ@4QBW4module_id@?A0x391cf84c@@B 10022f74     libucrt:winapi_thunks.obj
 0002:00002f7c       ?candidate_modules@?1??try_get_LCMapStringEx@@YAP6GHPB_WK0HPA_WHPAU_nlsversioninfo@@PAXJ@ZXZ@4QBW4module_id@?A0x391cf84c@@B 10022f7c     libucrt:winapi_thunks.obj
 0002:00002f94       ?candidate_modules@?1??try_get_LocaleNameToLCID@@YAP6GKPB_WK@ZXZ@4QBW4module_id@?A0x391cf84c@@B 10022f94     libucrt:winapi_thunks.obj
 0002:00002fb0       ?candidate_modules@?1??try_get_AppPolicyGetProcessTerminationMethod@@YAP6GJPAXPAW4AppPolicyProcessTerminationMethod@@@ZXZ@4QBW4module_id@?A0x391cf84c@@B 10022fb0     libucrt:winapi_thunks.obj
 0002:00002fdc       ?candidate_modules@?1??try_get_SetThreadStackGuarantee@@YAP6GHPAK@ZXZ@4QBW4module_id@?A0x391cf84c@@B 10022fdc     libucrt:winapi_thunks.obj
 0002:00003000       ?strings@?1??fp_format_nan_or_infinity@@YAHW4__acrt_fp_class@@_NPADI1@Z@4QAY03QBDA 10023000     libucrt:cvt.obj
 0002:00003548       ?_mb_locale_names@@3QBQB_WB 10023548     libucrt:mbctype.obj
 0002:00003d90       ?LcidToLocaleNameTable@?A0x881e4c05@@3QBULcidToLocaleName@1@B 10023d90     libucrt:lcidtoname_downlevel.obj
 0002:00004eb8       ?LocaleNameToIndexTable@?A0x881e4c05@@3QBULocaleNameIndex@1@B 10024eb8     libucrt:lcidtoname_downlevel.obj
 0002:000067f0       LOG_name                   100267f0     libucrt:log10_impl.obj
 0002:00006800       _One                       10026800     libucrt:ceil_pentium4.obj
 0002:00006810       _Bns                       10026810     libucrt:ceil_pentium4.obj
 0002:00006820       _Zero                      10026820     libucrt:ceil_pentium4.obj
 0002:00006830       _S                         10026830     libucrt:ceil_pentium4.obj
 0002:00006840       _NegZero                   10026840     libucrt:ceil_pentium4.obj
 0002:00006850       emask                      10026850     libucrt:log10_pentium4.obj
 0002:00006860       CC                         10026860     libucrt:log10_pentium4.obj
 0002:00006870       Magic                      10026870     libucrt:log10_pentium4.obj
 0002:00006880       hi_mask                    10026880     libucrt:log10_pentium4.obj
 0002:00006890       LOG10_2                    10026890     libucrt:log10_pentium4.obj
 0002:000068a0       place_L                    100268a0     libucrt:log10_pentium4.obj
 0002:000068c0       One                        100268c0     libucrt:log10_pentium4.obj
 0002:000068d0       Zero                       100268d0     libucrt:log10_pentium4.obj
 0002:000068e0       Two52                      100268e0     libucrt:log10_pentium4.obj
 0002:000068f0       Infs                       100268f0     libucrt:log10_pentium4.obj
 0002:00006900       NaN                        10026900     libucrt:log10_pentium4.obj
 0002:00006910       coeff                      10026910     libucrt:log10_pentium4.obj
 0002:0000696e       _log2max                   1002696e     libucrt:87tran.obj
 0002:00006978       _smallarg                  10026978     libucrt:87tran.obj
 0002:00006982       _half                      10026982     libucrt:87tran.obj
 0002:000069ce       One                        100269ce     libucrt:87disp.obj
 0002:000069d6       Three                      100269d6     libucrt:87disp.obj
 0002:000069de       XAMtoTagTab                100269de     libucrt:87disp.obj
 0002:000069f0       One                        100269f0     libucrt:common.obj
 0002:00006a04       DblMax                     10026a04     libucrt:common.obj
 0002:00006a0c       DblMin                     10026a0c     libucrt:common.obj
 0002:00006a14       IeeeAdjO                   10026a14     libucrt:common.obj
 0002:00006a1c       IeeeAdjU                   10026a1c     libucrt:common.obj
 0002:00006a24       _infinity                  10026a24     libucrt:common.obj
 0002:00006a2c       _zero                      10026a2c     libucrt:common.obj
 0002:00006a78       _over                      10026a78     libucrt:fpctrl.obj
 0002:00006a84       _under                     10026a84     libucrt:fpctrl.obj
 0002:000072b8       ?_names@?1??_get_fname@@9@9 100272b8     libucrt:fpexcept.obj
 0002:00007460       two32                      10027460     LIBCMT:ftol2.obj
 0002:00007464       two63                      10027464     LIBCMT:ftol2.obj
 0002:00007468       _NaN                       10027468     LIBCMT:ftol2.obj
 0002:00007b28       __sehtable$?_AtlVerifyStackAvailable@_ATL_SAFE_ALLOCA_IMPL@ATL@@YA_NK@Z 10027b28     POSKeyboard.obj
 0002:00007b48       __sehtable$___scrt_is_nonwritable_in_current_image 10027b48     LIBCMT:utility.obj
 0002:00007b64       __catchsym$??2@YAPAXIABUnothrow_t@std@@@Z$2 10027b64     LIBCMT:new_scalar_nothrow.obj
 0002:00007b74       __unwindtable$??2@YAPAXIABUnothrow_t@std@@@Z 10027b74     LIBCMT:new_scalar_nothrow.obj
 0002:00007b84       __tryblocktable$??2@YAPAXIABUnothrow_t@std@@@Z 10027b84     LIBCMT:new_scalar_nothrow.obj
 0002:00007b98       __ehfuncinfo$??2@YAPAXIABUnothrow_t@std@@@Z 10027b98     LIBCMT:new_scalar_nothrow.obj
 0002:00007bc0       __sehtable$?dllmain_crt_process_attach@@YAHQAUHINSTANCE__@@QAX@Z 10027bc0     LIBCMT:dll_dllmain.obj
 0002:00007be0       __sehtable$?dllmain_crt_process_detach@@YAH_N@Z 10027be0     LIBCMT:dll_dllmain.obj
 0002:00007c08       __sehtable$?dllmain_dispatch@@YAHQAUHINSTANCE__@@KQAX@Z 10027c08     LIBCMT:dll_dllmain.obj
 0002:00007cb8       __sehtable$___DestructExceptionObject 10027cb8     libvcruntime:ehhelpers.obj
 0002:00007cd8       __sehtable$?FrameUnwindToState@__FrameHandler3@@SAXPAUEHRegistrationNode@@PAXPBU_s_FuncInfo@@H@Z 10027cd8     libvcruntime:frame.obj
 0002:00007d00       __sehtable$?CallCatchBlock@@YAPAXPAUEHExceptionRecord@@PAUEHRegistrationNode@@PAU_CONTEXT@@PBU_s_FuncInfo@@PAXHK@Z 10027d00     libvcruntime:frame.obj
 0002:00007d28       __catchsym$?CallUnexpected@@YAXPBU_s_ESTypeList@@@Z$2 10027d28     libvcruntime:frame.obj
 0002:00007d38       __unwindtable$?CallUnexpected@@YAXPBU_s_ESTypeList@@@Z 10027d38     libvcruntime:frame.obj
 0002:00007d48       __tryblocktable$?CallUnexpected@@YAXPBU_s_ESTypeList@@@Z 10027d48     libvcruntime:frame.obj
 0002:00007d5c       __ehfuncinfo$?CallUnexpected@@YAXPBU_s_ESTypeList@@@Z 10027d5c     libvcruntime:frame.obj
 0002:00007d80       __sehtable$??$BuildCatchObjectHelperInternal@V__FrameHandler3@@@@YAHPAUEHExceptionRecord@@PAXPBU_s_HandlerType@@PBU_s_CatchableType@@@Z 10027d80     libvcruntime:frame.obj
 0002:00007da0       __sehtable$??$BuildCatchObjectInternal@V__FrameHandler3@@@@YAXPAUEHExceptionRecord@@PAXPBU_s_HandlerType@@PBU_s_CatchableType@@@Z 10027da0     libvcruntime:frame.obj
 0002:00007df8       __sehtable$??R<lambda_6e4b09c48022b2350581041d5f6b0c4c>@@QBE@XZ 10027df8     libucrt:exit.obj
 0002:00007e18       __sehtable$??$?RV<lambda_03b1d95aef87969028cfba75ccab2455>@@AAV<lambda_6e4b09c48022b2350581041d5f6b0c4c>@@V<lambda_22bdf7517842c4b3e53723af5aa32b9e>@@@?$__crt_seh_guarded_call@X@@QAEX$$QAV<lambda_03b1d95aef87969028cfba75ccab2455>@@AAV<lambda_6e4b09c48022b2350581041d5f6b0c4c>@@$$QAV<lambda_22bdf7517842c4b3e53723af5aa32b9e>@@@Z 10027e18     libucrt:exit.obj
 0002:00007e38       __sehtable$??$?RV<lambda_8e746cf0007f6ed984d6f78af1fec997>@@AAV<lambda_22ebabd17bc4fa466a2aca6d8deb888d>@@V<lambda_18ed0c0b38a6dc0daf1e7ac6d6adf05e>@@@?$__crt_seh_guarded_call@H@@QAEH$$QAV<lambda_8e746cf0007f6ed984d6f78af1fec997>@@AAV<lambda_22ebabd17bc4fa466a2aca6d8deb888d>@@$$QAV<lambda_18ed0c0b38a6dc0daf1e7ac6d6adf05e>@@@Z 10027e38     libucrt:onexit.obj
 0002:00007e58       __sehtable$??$?RV<lambda_69a2805e680e0e292e8ba93315fe43a8>@@AAV<lambda_f03950bc5685219e0bcd2087efbe011e>@@V<lambda_03fcd07e894ec930e3f35da366ca99d6>@@@?$__crt_seh_guarded_call@H@@QAEH$$QAV<lambda_69a2805e680e0e292e8ba93315fe43a8>@@AAV<lambda_f03950bc5685219e0bcd2087efbe011e>@@$$QAV<lambda_03fcd07e894ec930e3f35da366ca99d6>@@@Z 10027e58     libucrt:onexit.obj
 0002:00007e78       __sehtable$__query_new_handler 10027e78     libucrt:new_handler.obj
 0002:00007e98       __sehtable$_terminate      10027e98     libucrt:terminate.obj
 0002:00007eb8       __sehtable$??$?RV<lambda_15ade71b0218206bbe3333a0c9b79046>@@AAV<lambda_da44e0f8b0f19ba52fefafb335991732>@@V<lambda_207f2d024fc103971653565357d6cd41>@@@?$__crt_seh_guarded_call@X@@QAEX$$QAV<lambda_15ade71b0218206bbe3333a0c9b79046>@@AAV<lambda_da44e0f8b0f19ba52fefafb335991732>@@$$QAV<lambda_207f2d024fc103971653565357d6cd41>@@@Z 10027eb8     libucrt:per_thread_data.obj
 0002:00007ed8       __sehtable$??$?RV<lambda_a7e850c220f1c8d1e6efeecdedd162c6>@@AAV<lambda_46720907175c18b6c9d2717bc0d2d362>@@V<lambda_9048902d66e8d99359bc9897bbb930a8>@@@?$__crt_seh_guarded_call@X@@QAEX$$QAV<lambda_a7e850c220f1c8d1e6efeecdedd162c6>@@AAV<lambda_46720907175c18b6c9d2717bc0d2d362>@@$$QAV<lambda_9048902d66e8d99359bc9897bbb930a8>@@@Z 10027ed8     libucrt:per_thread_data.obj
 0002:00007ef8       __sehtable$??$?RV<lambda_38edbb1296d33220d7e4dd0ed76b244a>@@AAV<lambda_5ce1d447e08cb34b2473517608e21441>@@V<lambda_fb385d3da700c9147fc39e65dd577a8c>@@@?$__crt_seh_guarded_call@X@@QAEX$$QAV<lambda_38edbb1296d33220d7e4dd0ed76b244a>@@AAV<lambda_5ce1d447e08cb34b2473517608e21441>@@$$QAV<lambda_fb385d3da700c9147fc39e65dd577a8c>@@@Z 10027ef8     libucrt:per_thread_data.obj
 0002:00007f18       __sehtable$??$?RV<lambda_6affb1475c98b40b75cdec977db92e3c>@@AAV<lambda_b8d4b9c228a6ecc3f80208dbb4b4a104>@@V<lambda_608742c3c92a14382c1684fc64f96c88>@@@?$__crt_seh_guarded_call@X@@QAEX$$QAV<lambda_6affb1475c98b40b75cdec977db92e3c>@@AAV<lambda_b8d4b9c228a6ecc3f80208dbb4b4a104>@@$$QAV<lambda_608742c3c92a14382c1684fc64f96c88>@@@Z 10027f18     libucrt:per_thread_data.obj
 0002:00007f38       __sehtable$??$?RV<lambda_e5124f882df8998aaf41531e079ba474>@@AAV<lambda_3e16ef9562a7dcce91392c22ab16ea36>@@V<lambda_e25ca0880e6ef98be67edffd8c599615>@@@?$__crt_seh_guarded_call@X@@QAEX$$QAV<lambda_e5124f882df8998aaf41531e079ba474>@@AAV<lambda_3e16ef9562a7dcce91392c22ab16ea36>@@$$QAV<lambda_e25ca0880e6ef98be67edffd8c599615>@@@Z 10027f38     libucrt:wsetlocale.obj
 0002:00007f58       __sehtable$___acrt_initialize_lowio 10027f58     libucrt:ioinit.obj
 0002:00007f78       __sehtable$?update_thread_multibyte_data_internal@@YAPAU__crt_multibyte_data@@QAU__acrt_ptd@@QAPAU1@@Z 10027f78     libucrt:mbctype.obj
 0002:00007f98       __sehtable$??$?RV<lambda_ceb1ee4838e85a9d631eb091e2fbe199>@@AAV<lambda_ae742caa10f662c28703da3d2ea5e57e>@@V<lambda_cd08b5d6af4937fe54fc07d0c9bf6b37>@@@?$__crt_seh_guarded_call@X@@QAEX$$QAV<lambda_ceb1ee4838e85a9d631eb091e2fbe199>@@AAV<lambda_ae742caa10f662c28703da3d2ea5e57e>@@$$QAV<lambda_cd08b5d6af4937fe54fc07d0c9bf6b37>@@@Z 10027f98     libucrt:mbctype.obj
 0002:00007fb8       __sehtable$_raise          10027fb8     libucrt:signal.obj
 0002:00007fd8       __sehtable$??$?RV<lambda_cbab9ec6f41b0180b23cc171c22676b0>@@AAV<lambda_44731a7d0e6d81c3e6aa82d741081786>@@V<lambda_4b292cb8dd18144e164572427af410ab>@@@?$__crt_seh_guarded_call@P6AXH@Z@@QAEP6AXH@Z$$QAV<lambda_cbab9ec6f41b0180b23cc171c22676b0>@@AAV<lambda_44731a7d0e6d81c3e6aa82d741081786>@@$$QAV<lambda_4b292cb8dd18144e164572427af410ab>@@@Z 10027fd8     libucrt:signal.obj
 0002:00007ff8       __sehtable$??$?RV<lambda_2866be3712abc81a800a822484c830d8>@@AAV<lambda_39ca0ed439415581b5b15c265174cece>@@V<lambda_2b24c74d71094a6cd0cb82e44167d71b>@@@?$__crt_seh_guarded_call@X@@QAEX$$QAV<lambda_2866be3712abc81a800a822484c830d8>@@AAV<lambda_39ca0ed439415581b5b15c265174cece>@@$$QAV<lambda_2b24c74d71094a6cd0cb82e44167d71b>@@@Z 10027ff8     libucrt:fflush.obj
 0002:00008018       __sehtable$??$?RV<lambda_2cc53f568c5a2bb6f192f930a45d44ea>@@AAV<lambda_ab61a845afdef5b7c387490eaf3616ee>@@V<lambda_c2ffc0b7726aa6be21d5f0026187e748>@@@?$__crt_seh_guarded_call@X@@QAEX$$QAV<lambda_2cc53f568c5a2bb6f192f930a45d44ea>@@AAV<lambda_ab61a845afdef5b7c387490eaf3616ee>@@$$QAV<lambda_c2ffc0b7726aa6be21d5f0026187e748>@@@Z 10028018     libucrt:fflush.obj
 0002:00008038       __sehtable$___acrt_update_thread_locale_data 10028038     libucrt:locale_refcounting.obj
 0002:00008058       __sehtable$__fcloseall     10028058     libucrt:closeall.obj
 0002:00008078       __sehtable$___acrt_lowio_ensure_fh_exists 10028078     libucrt:osfinfo.obj
 0002:00008098       __sehtable$??$?RV<lambda_9e9de3de5fa147e2223d7db92bc10aa6>@@AAV<lambda_38ce7e780aa69e748d6df282ebc68efe>@@V<lambda_8ca6da459f0f6780f1cff60fdc3d00e5>@@@?$__crt_seh_guarded_call@H@@QAEH$$QAV<lambda_9e9de3de5fa147e2223d7db92bc10aa6>@@AAV<lambda_38ce7e780aa69e748d6df282ebc68efe>@@$$QAV<lambda_8ca6da459f0f6780f1cff60fdc3d00e5>@@@Z 10028098     libucrt:commit.obj
 0002:000080b8       __sehtable$__write         100280b8     libucrt:write.obj
 0002:000080d8       __sehtable$_fclose         100280d8     libucrt:fclose.obj
 0002:000080f8       __sehtable$??$?RV<lambda_218ce3db14220d0be481dae8ef3383b6>@@AAV<lambda_628dfdc04ba53c8bfc02c9951375f3f5>@@V<lambda_57dc472bd5c9d5f3b2cbca59b8a843ae>@@@?$__crt_seh_guarded_call@H@@QAEH$$QAV<lambda_218ce3db14220d0be481dae8ef3383b6>@@AAV<lambda_628dfdc04ba53c8bfc02c9951375f3f5>@@$$QAV<lambda_57dc472bd5c9d5f3b2cbca59b8a843ae>@@@Z 100280f8     libucrt:close.obj
 0002:00008118       __sehtable$___set_fpsr_sse2 10028118     libucrt:fpctrl.obj
 0002:00008138       __sehtable$__IsNonwritableInCurrentImage 10028138     LIBCMT:pesect.obj
 0002:00008160       .edata                     10028160     OPOSPOSKeyboard.exp
 0002:00008188       rgpv                       10028188     OPOSPOSKeyboard.exp
 0002:00008198       rgszName                   10028198     OPOSPOSKeyboard.exp
 0002:000081a8       rgwOrd                     100281a8     OPOSPOSKeyboard.exp
 0002:000081b0       szName                     100281b0     OPOSPOSKeyboard.exp
 0002:000081c4       $N00001                    100281c4     OPOSPOSKeyboard.exp
 0002:000081d4       $N00002                    100281d4     OPOSPOSKeyboard.exp
 0002:000081e6       $N00003                    100281e6     OPOSPOSKeyboard.exp
 0002:000081f8       $N00004                    100281f8     OPOSPOSKeyboard.exp
 0002:00008806       .idata$6                   10028806     kernel32:KERNEL32.dll
 0002:00008a1a       .idata$6                   10028a1a     user32:USER32.dll
 0002:00008b4e       .idata$6                   10028b4e     gdi32:GDI32.dll
 0002:00008bf4       .idata$6                   10028bf4     advapi32:ADVAPI32.dll
 0002:00008d10       .idata$6                   10028d10     ole32:ole32.dll
 0002:00008d1a       .idata$6                   10028d1a     oleaut32:OLEAUT32.dll
 0003:00000110       ?ObjectMap@@3PAU_ATL_OBJMAP_ENTRY30@ATL@@A 1002a110     POSKeyboard.obj
 0003:000001d0       ?s_SOMethodNames@@3PAPADA  1002a1d0     POSKeyboardImpl.obj
 0003:00000218       ?s_RequiredMethodsPerRelease@@3PAHA 1002a218     POSKeyboardImpl.obj
 0003:00000260       ?__vcrt_flsindex@@3KA      1002a260     libvcruntime:per_thread_data.obj
 0003:00000280       ?errno_no_memory@@3HA      1002a280     libucrt:errno.obj
 0003:00000284       ?doserrno_no_memory@@3KA   1002a284     libucrt:errno.obj
 0003:00000290       ?__acrt_flsindex@@3KA      1002a290     libucrt:per_thread_data.obj
 0003:00000628       __mbctypes                 1002a628     libucrt:mbctype.obj
 0003:00000730       __mbcasemaps               1002a730     libucrt:mbctype.obj
 0003:00000830       ?__rgctypeflag@@3PADA      1002a830     libucrt:mbctype.obj
 0003:00000838       ?__rgcode_page_info@@3PAUcode_page_info@@A 1002a838     libucrt:mbctype.obj
 0003:00000a90       ?__dcrt_lowio_console_output_handle@@3PAXA 1002aa90     libucrt:initcon.obj
 0003:00000a94       ?__DAZ_ENABLED@?1??__set_fpsr_sse2@@9@9 1002aa94     libucrt:fpctrl.obj
 0003:00000c28       ?is_initialized_as_dll@@3_NA 1002ac28     LIBCMT:utility.obj
 0003:00000c29       ?module_local_atexit_table_initialized@@3_NA 1002ac29     LIBCMT:utility.obj
 0003:00000c2c       ?module_local_atexit_table@@3U_onexit_table_t@@A 1002ac2c     LIBCMT:utility.obj
 0003:00000c38       ?module_local_at_quick_exit_table@@3U_onexit_table_t@@A 1002ac38     LIBCMT:utility.obj
 0003:00000c44       ?g_tss_cv@@3U_RTL_CONDITION_VARIABLE@@A 1002ac44     LIBCMT:thread_safe_statics.obj
 0003:00000c48       ?g_tss_event@@3PAXA        1002ac48     LIBCMT:thread_safe_statics.obj
 0003:00000c4c       ?g_tss_mutex@@3U_RTL_CRITICAL_SECTION@@A 1002ac4c     LIBCMT:thread_safe_statics.obj
 0003:00000c64       ?g_sleep_condition_variable_cs@@3P6GHPAU_RTL_CONDITION_VARIABLE@@PAU_RTL_CRITICAL_SECTION@@K@ZA 1002ac64     LIBCMT:thread_safe_statics.obj
 0003:00000c68       ?g_wake_all_condition_variable@@3P6GXPAU_RTL_CONDITION_VARIABLE@@@ZA 1002ac68     LIBCMT:thread_safe_statics.obj
 0003:00000c70       _GS_ExceptionRecord        1002ac70     LIBCMT:gs_report.obj
 0003:00000cc0       _GS_ContextRecord          1002acc0     LIBCMT:gs_report.obj
 0003:00000f90       ?__proc_attached@@3HA      1002af90     LIBCMT:dll_dllmain.obj
 0003:00000ff4       ?AllocateData@@3P6GPAUAtlThunkData_t@@XZA 1002aff4     atls:atlthunk.obj
 0003:00000ff8       ?InitData@@3P6GXPAUAtlThunkData_t@@PAXI@ZA 1002aff8     atls:atlthunk.obj
 0003:00000ffc       ?DataToCode@@3P6GP6GJPAUHWND__@@IIJ@ZPAUAtlThunkData_t@@@ZA 1002affc     atls:atlthunk.obj
 0003:00001000       ?FreeData@@3P6GXPAUAtlThunkData_t@@@ZA 1002b000     atls:atlthunk.obj
 0003:00001004       ?Initialized@@3_NA         1002b004     atls:atlthunk.obj
 0003:00001014       ?__vcrt_startup_thread_ptd@@3U__vcrt_ptd@@A 1002b014     libvcruntime:per_thread_data.obj
 0003:0000103c       ___vcrt_lock_table         1002b03c     libvcruntime:locks.obj
 0003:00001054       ___vcrt_locks_initialized  1002b054     libvcruntime:locks.obj
 0003:00001080       ?heap@@3V_HeapManager@@A   1002b080     libvcruntime:undname.obj
 0003:00001094       ?module_handles@@3PAPAUHINSTANCE__@@A 1002b094     libvcruntime:winapi_downlevel.obj
 0003:000010a0       ?function_pointers@@3PAPAXA 1002b0a0     libvcruntime:winapi_downlevel.obj
 0003:000010b4       ?__acrt_invalid_parameter_handler@@3V?$dual_state_global@P6AXPB_W00II@Z@__crt_state_management@@A 1002b0b4     libucrt:invalid_parameter.obj
 0003:000010b8       ?c_termination_complete@@3JA 1002b0b8     libucrt:exit.obj
 0003:000010bc       ?thread_local_exit_callback_func@@3P6GXPAXK0@ZA 1002b0bc     libucrt:exit.obj
 0003:000010c8       ?program_name@?1???$common_configure_argv@D@@YAHW4_crt_argv_mode@@@Z@4PADA 1002b0c8     libucrt:argv_parsing.obj
 0003:000011f8       ?__acrt_new_handler@@3V?$dual_state_global@P6AHI@Z@__crt_state_management@@A 1002b1f8     libucrt:new_handler.obj
 0003:00001200       ?module_handles@@3PAPAUHINSTANCE__@@A 1002b200     libucrt:winapi_thunks.obj
 0003:00001250       ?encoded_function_pointers@@3PAPAXA 1002b250     libucrt:winapi_thunks.obj
 0003:000012d8       ?internal_state@?1??_mbtowc_l@@9@4U_Mbstatet@@A 1002b2d8     libucrt:mbtowc.obj
 0003:000012e8       ?enable_percent_n@@3IA     1002b2e8     libucrt:printf_count_output.obj
 0003:00001508       ?__acrt_lock_table@@3PAU_RTL_CRITICAL_SECTION@@A 1002b508     libucrt:locks.obj
 0003:00001658       ?__acrt_locks_initialized@@3IA 1002b658     libucrt:locks.obj
 0003:00001668       ?fSystemSet@@3HA           1002b668     libucrt:mbctype.obj
 0003:0000166c       ?initialized@?1??__acrt_initialize_multibyte@@9@4_NA 1002b66c     libucrt:mbctype.obj
 0003:0000168c       ?ctrlc_action@@3V?$dual_state_global@P6AXH@Z@__crt_state_management@@A 1002b68c     libucrt:signal.obj
 0003:00001690       ?ctrlbreak_action@@3V?$dual_state_global@P6AXH@Z@__crt_state_management@@A 1002b690     libucrt:signal.obj
 0003:00001694       ?abort_action@@3V?$dual_state_global@P6AXH@Z@__crt_state_management@@A 1002b694     libucrt:signal.obj
 0003:00001698       ?term_action@@3V?$dual_state_global@P6AXH@Z@__crt_state_management@@A 1002b698     libucrt:signal.obj
 0003:0000169c       ?user_matherr@@3V?$dual_state_global@P6AHPAU_exception@@@Z@__crt_state_management@@A 1002b69c     libucrt:matherr.obj
 0003:000016a0       ?__acrt_global_new_mode@@3V?$dual_state_global@J@__crt_state_management@@A 1002b6a0     libucrt:new_mode.obj
 0003:000016ac       ?internal_pst@?1??__mbrtoc32_utf8@__crt_mbstring@@YAIPA_UPBDIPAU_Mbstatet@@@Z@4U3@A 1002b6ac     libucrt:mbrtoc32.obj
 0003:000016b4       ?__acrt_app_type@@3W4_crt_app_type@@A 1002b6b4     libucrt:report_runtime_error.obj
 0003:000016bc       __pmatherr_set             1002b6bc     libucrt:libm_error.obj
 0004:00000220       $R000000                   1002c220     POSKeyboard.res
 0004:00000bc0       $R0009A0                   1002cbc0     POSKeyboard.res
 0004:00000ca8       $R000A88                   1002cca8     POSKeyboard.res
 0004:00000f10       $R000CF0                   1002cf10     POSKeyboard.res
 0004:00001480       $R001260                   1002d480     POSKeyboard.res
 0004:00003ba0       $R003980                   1002fba0     POSKeyboard.res
 0004:00003bd8       $R0039B8                   1002fbd8     POSKeyboard.res
