 OPOSRemoteOrderDisplay

 Timestamp is 600f7a31 (Tue Jan 26 11:10:57 2021)

 Preferred load address is 10000000

 Start         Length     Name                   Class
 0001:00000000 00000080H .text$di                CODE
 0001:00000080 0001ee83H .text$mn                CODE
 0001:0001ef03 0000003aH .text$x                 CODE
 0001:0001ef3d 00000042H .text$yd                CODE
 0002:00000000 000002fcH .idata$5                DATA
 0002:000002fc 00000004H .00cfg                  DATA
 0002:00000300 00000004H .CRT$XCA                DATA
 0002:00000304 00000004H .CRT$XCL                DATA
 0002:00000308 00000010H .CRT$XCU                DATA
 0002:00000318 00000004H .CRT$XCZ                DATA
 0002:0000031c 00000004H .CRT$XIA                DATA
 0002:00000320 00000010H .CRT$XIC                DATA
 0002:00000330 00000004H .CRT$XIZ                DATA
 0002:00000334 00000004H .CRT$XLA                DATA
 0002:00000338 00000004H .CRT$XLZ                DATA
 0002:0000033c 00000004H .CRT$XPA                DATA
 0002:00000340 00000008H .CRT$XPX                DATA
 0002:00000348 00000004H .CRT$XPXA               DATA
 0002:0000034c 00000004H .CRT$XPZ                DATA
 0002:00000350 00000004H .CRT$XTA                DATA
 0002:00000354 0000000cH .CRT$XTZ                DATA
 0002:00000358 00000000H .gfids$y                DATA
 0002:00000360 00007520H .rdata                  DATA
 0002:00007880 00000000H .rdata$CastGuardVftablesA DATA
 0002:00007880 00000000H .rdata$CastGuardVftablesC DATA
 0002:00007880 00000018H .rdata$T                DATA
 0002:00007898 00000178H .rdata$r                DATA
 0002:00007a10 0000001cH .rdata$sxdata           DATA
 0002:00007a2c 000003e8H .rdata$zzzdbg           DATA
 0002:00007e14 00000004H .rtc$IAA                DATA
 0002:00007e18 00000004H .rtc$IZZ                DATA
 0002:00007e1c 00000004H .rtc$TAA                DATA
 0002:00007e20 00000004H .rtc$TZZ                DATA
 0002:00007e24 00000004H .tls                    DATA
 0002:00007e28 00000004H .tls$                   DATA
 0002:00007e2c 00000004H .tls$ZZZ                DATA
 0002:00007e30 0000062cH .xdata$x                DATA
 0002:0000845c 00000004H ATL$__a                 DATA
 0002:00008460 00000010H ATL$__z                 DATA
 0002:00008470 000000b4H .edata                  DATA
 0002:00008524 00000078H .idata$2                DATA
 0002:0000859c 00000014H .idata$3                DATA
 0002:000085b0 000002fcH .idata$4                DATA
 0002:000088ac 00000bceH .idata$6                DATA
 0003:00000000 00000b00H .data                   DATA
 0003:00000b00 00000098H .data$r                 DATA
 0003:00000b98 00000b88H .bss                    DATA
 0004:00000000 00000220H .rsrc$01                DATA
 0004:00000220 000056b0H .rsrc$02                DATA

  Address         Publics by Value              Rva+Base       Lib:Object

 0000:00000000       ___guard_fids_count        00000000     <absolute>
 0000:00000000       ___guard_longjmp_table     00000000     <absolute>
 0000:00000000       ___volatile_metadata       00000000     <absolute>
 0000:00000000       ___arm64x_extra_rfe_table  00000000     <absolute>
 0000:00000000       ___arm64x_redirection_metadata 00000000     <absolute>
 0000:00000000       ___guard_eh_cont_table     00000000     <absolute>
 0000:00000000       ___guard_eh_cont_count     00000000     <absolute>
 0000:00000000       ___guard_iat_count         00000000     <absolute>
 0000:00000000       __except_list              00000000     <absolute>
 0000:00000000       ___hybrid_code_map_count   00000000     <absolute>
 0000:00000000       ___x64_code_ranges_to_entry_points_count 00000000     <absolute>
 0000:00000000       ___x64_code_ranges_to_entry_points 00000000     <absolute>
 0000:00000000       ___guard_iat_table         00000000     <absolute>
 0000:00000000       ___arm64x_native_entrypoint 00000000     <absolute>
 0000:00000000       ___hybrid_code_map         00000000     <absolute>
 0000:00000000       ___arm64x_extra_rfe_table_size 00000000     <absolute>
 0000:00000000       ___guard_longjmp_count     00000000     <absolute>
 0000:00000000       ___arm64x_redirection_metadata_count 00000000     <absolute>
 0000:00000000       ___hybrid_auxiliary_iat    00000000     <absolute>
 0000:00000000       ___dynamic_value_reloc_table 00000000     <absolute>
 0000:00000000       ___AbsoluteZero            00000000     <absolute>
 0000:00000000       ___enclave_config          00000000     <absolute>
 0000:00000000       ___guard_fids_table        00000000     <absolute>
 0000:00000007       ___safe_se_handler_count   00000007     <absolute>
 0000:0000002c       __tls_array                0000002c     <absolute>
 0000:00000100       ___guard_flags             00000100     <absolute>
 0000:00000000       ___ImageBase               10000000     <linker-defined>
 0001:00000080       ?DupWide@_CW@@AAEXXZ       10001080 f   CWString.obj
 0001:0000009c       ?cw_dup@@YGXPBDAAHAAPA_W1@Z 1000109c f   CWString.obj
 0001:00000124       ?cw_memcpy@@YGHPA_WPBDH@Z  10001124 f   CWString.obj
 0001:00000150       ?cw_strcpy@@YAHPA_WPBD@Z   10001150 f   CWString.obj
 0001:00000163       ?cw_strlen@@YAHPBD@Z       10001163 f   CWString.obj
 0001:0000017c       ??0CAtlComModule@ATL@@QAE@XZ 1000117c f i OposVariant.obj
 0001:000001c1       ??0CAtlWinModule@ATL@@QAE@XZ 100011c1 f i OposVariant.obj
 0001:000001f8       ??0OposDispParms@@QAE@PAVOposVariant@@H@Z 100011f8 f   OposVariant.obj
 0001:00000269       ??1OposDispParms@@QAE@XZ   10001269 f   OposVariant.obj
 0001:00000277       ??A?$CSimpleArray@GV?$CSimpleArrayEqualHelper@G@ATL@@@ATL@@QAEAAGH@Z 10001277 f i OposVariant.obj
 0001:0000029c       ??_Estringdispid@CComTypeInfoHolder@ATL@@QAEPAXI@Z 1000129c f i OposVariant.obj
 0001:00000308       ?AtlWinModuleInit@ATL@@YGJPAU_ATL_WIN_MODULE70@1@@Z 10001308 f i OposVariant.obj
 0001:0000032e       ?AtlWinModuleTerm@ATL@@YGJPAU_ATL_WIN_MODULE70@1@PAUHINSTANCE__@@@Z 1000132e f i OposVariant.obj
 0001:00000391       ?ChangeBSTR@OposVariant@@QAEXPAPA_WAAJ@Z 10001391 f   OposVariant.obj
 0001:000003d2       ?ChangeLONG@OposVariant@@QAEXPAJAAJ@Z 100013d2 f   OposVariant.obj
 0001:00000413       ?GetLONG@OposVariant@@QAEJXZ 10001413 f   OposVariant.obj
 0001:0000042e       ?Init@CComCriticalSection@ATL@@QAEJXZ 1000142e f i OposVariant.obj
 0001:00000456       ?RemoveAll@?$CSimpleArray@PAUHINSTANCE__@@V?$CSimpleArrayEqualHelper@PAUHINSTANCE__@@@ATL@@@ATL@@QAEXXZ 10001456 f i atls:atlbase.obj
 0001:00000456       ?RemoveAll@?$CSimpleArray@GV?$CSimpleArrayEqualHelper@G@ATL@@@ATL@@QAEXXZ 10001456 f i OposVariant.obj
 0001:00000473       ?SetBSTR@OposVariant@@QAEXPA_WAAJ@Z 10001473 f   OposVariant.obj
 0001:000004a7       ?SetBSTR_Copy@OposVariant@@QAEXPA_WAAJ@Z 100014a7 f   OposVariant.obj
 0001:000004f7       ?SetBSTR_InOutPtr@OposVariant@@QAE_NPAPA_WAAJ@Z 100014f7 f   OposVariant.obj
 0001:0000052e       ?SetDispatch_Ptr@OposVariant@@QAEXPAUIDispatch@@AAJ@Z 1000152e f   OposVariant.obj
 0001:00000569       ?SetLONG@OposVariant@@QAEXJ@Z 10001569 f   OposVariant.obj
 0001:0000058b       ?SetLONG_Ptr@OposVariant@@QAEXPAJAAJ@Z 1000158b f   OposVariant.obj
 0001:000005be       ?SetString@OposVariant@@QAEXPB_WAAJ@Z 100015be f   OposVariant.obj
 0001:00000604       ?SetVARIANT_BOOL@OposVariant@@QAEXF@Z 10001604 f   OposVariant.obj
 0001:0000062e       ?Term@CAtlComModule@ATL@@QAEXXZ 1000162e f i OposVariant.obj
 0001:00000678       ?_AtlRaiseException@ATL@@YAXKK@Z 10001678 f i OposVariant.obj
 0001:0000068d       ?CreateInstance@CComClassFactory@ATL@@UAGJPAUIUnknown@@ABU_GUID@@PAPAX@Z 1000168d f i RemoteOrderDisplay.obj
 0001:000006cb       ?LockServer@CComClassFactory@ATL@@UAGJH@Z 100016cb f i RemoteOrderDisplay.obj
 0001:000006ea       ??_ECComClassFactory@ATL@@UAEPAXI@Z 100016ea f i RemoteOrderDisplay.obj
 0001:000006ea       ??_GCComClassFactory@ATL@@UAEPAXI@Z 100016ea f i RemoteOrderDisplay.obj
 0001:00000715       ??_E?$CComObject@VCOPOSRemoteOrderDisplay@@@ATL@@W3AEPAXI@Z 10001715 f i RemoteOrderDisplay.obj
 0001:0000071d       ??_E?$CComObject@VCOPOSRemoteOrderDisplay@@@ATL@@WEM@AEPAXI@Z 1000171d f i RemoteOrderDisplay.obj
 0001:00000725       ?QueryInterface@?$CComObject@VCOPOSRemoteOrderDisplay@@@ATL@@WHA@AGJABU_GUID@@PAPAX@Z 10001725 f i RemoteOrderDisplay.obj
 0001:0000072f       ?AddRef@?$CComObject@VCOPOSRemoteOrderDisplay@@@ATL@@WHA@AGKXZ 1000172f f i RemoteOrderDisplay.obj
 0001:00000739       ?Release@?$CComObject@VCOPOSRemoteOrderDisplay@@@ATL@@WHA@AGKXZ 10001739 f i RemoteOrderDisplay.obj
 0001:00000743       ?QueryInterface@?$CComObject@VCOPOSRemoteOrderDisplay@@@ATL@@WHE@AGJABU_GUID@@PAPAX@Z 10001743 f i RemoteOrderDisplay.obj
 0001:0000074d       ?AddRef@?$CComObject@VCOPOSRemoteOrderDisplay@@@ATL@@WHE@AGKXZ 1000174d f i RemoteOrderDisplay.obj
 0001:00000757       ?Release@?$CComObject@VCOPOSRemoteOrderDisplay@@@ATL@@WHE@AGKXZ 10001757 f i RemoteOrderDisplay.obj
 0001:00000761       ?QueryInterface@?$CComObject@VCOPOSRemoteOrderDisplay@@@ATL@@WHI@AGJABU_GUID@@PAPAX@Z 10001761 f i RemoteOrderDisplay.obj
 0001:0000076b       ?AddRef@?$CComObject@VCOPOSRemoteOrderDisplay@@@ATL@@WHI@AGKXZ 1000176b f i RemoteOrderDisplay.obj
 0001:00000775       ?Release@?$CComObject@VCOPOSRemoteOrderDisplay@@@ATL@@WHI@AGKXZ 10001775 f i RemoteOrderDisplay.obj
 0001:0000077f       ?QueryInterface@?$CComObject@VCOPOSRemoteOrderDisplay@@@ATL@@WHM@AGJABU_GUID@@PAPAX@Z 1000177f f i RemoteOrderDisplay.obj
 0001:00000789       ?AddRef@?$CComObject@VCOPOSRemoteOrderDisplay@@@ATL@@WHM@AGKXZ 10001789 f i RemoteOrderDisplay.obj
 0001:00000793       ?Release@?$CComObject@VCOPOSRemoteOrderDisplay@@@ATL@@WHM@AGKXZ 10001793 f i RemoteOrderDisplay.obj
 0001:0000079d       ?QueryInterface@?$CComObject@VCOPOSRemoteOrderDisplay@@@ATL@@WIA@AGJABU_GUID@@PAPAX@Z 1000179d f i RemoteOrderDisplay.obj
 0001:000007aa       ?AddRef@?$CComObject@VCOPOSRemoteOrderDisplay@@@ATL@@WIA@AGKXZ 100017aa f i RemoteOrderDisplay.obj
 0001:000007b7       ?Release@?$CComObject@VCOPOSRemoteOrderDisplay@@@ATL@@WIA@AGKXZ 100017b7 f i RemoteOrderDisplay.obj
 0001:000007c4       ?QueryInterface@?$CComObject@VCOPOSRemoteOrderDisplay@@@ATL@@WIE@AGJABU_GUID@@PAPAX@Z 100017c4 f i RemoteOrderDisplay.obj
 0001:000007d1       ?AddRef@?$CComObject@VCOPOSRemoteOrderDisplay@@@ATL@@WIE@AGKXZ 100017d1 f i RemoteOrderDisplay.obj
 0001:000007de       ?Release@?$CComObject@VCOPOSRemoteOrderDisplay@@@ATL@@WIE@AGKXZ 100017de f i RemoteOrderDisplay.obj
 0001:000007eb       ?QueryInterface@?$CComObject@VCOPOSRemoteOrderDisplay@@@ATL@@WII@AGJABU_GUID@@PAPAX@Z 100017eb f i RemoteOrderDisplay.obj
 0001:000007f8       ?AddRef@?$CComObject@VCOPOSRemoteOrderDisplay@@@ATL@@WII@AGKXZ 100017f8 f i RemoteOrderDisplay.obj
 0001:00000805       ?Release@?$CComObject@VCOPOSRemoteOrderDisplay@@@ATL@@WII@AGKXZ 10001805 f i RemoteOrderDisplay.obj
 0001:00000812       ?QueryInterface@?$CComObject@VCOPOSRemoteOrderDisplay@@@ATL@@WIM@AGJABU_GUID@@PAPAX@Z 10001812 f i RemoteOrderDisplay.obj
 0001:0000081f       ?AddRef@?$CComObject@VCOPOSRemoteOrderDisplay@@@ATL@@WIM@AGKXZ 1000181f f i RemoteOrderDisplay.obj
 0001:0000082c       ?Release@?$CComObject@VCOPOSRemoteOrderDisplay@@@ATL@@WIM@AGKXZ 1000182c f i RemoteOrderDisplay.obj
 0001:00000839       ?QueryInterface@?$CComObject@VCOPOSRemoteOrderDisplay@@@ATL@@WJA@AGJABU_GUID@@PAPAX@Z 10001839 f i RemoteOrderDisplay.obj
 0001:00000846       ?AddRef@?$CComObject@VCOPOSRemoteOrderDisplay@@@ATL@@WJA@AGKXZ 10001846 f i RemoteOrderDisplay.obj
 0001:00000853       ?Release@?$CComObject@VCOPOSRemoteOrderDisplay@@@ATL@@WJA@AGKXZ 10001853 f i RemoteOrderDisplay.obj
 0001:00000860       ?QueryInterface@?$CComObject@VCOPOSRemoteOrderDisplay@@@ATL@@WJE@AGJABU_GUID@@PAPAX@Z 10001860 f i RemoteOrderDisplay.obj
 0001:0000086d       ?AddRef@?$CComObject@VCOPOSRemoteOrderDisplay@@@ATL@@WJE@AGKXZ 1000186d f i RemoteOrderDisplay.obj
 0001:0000087a       ?Release@?$CComObject@VCOPOSRemoteOrderDisplay@@@ATL@@WJE@AGKXZ 1000187a f i RemoteOrderDisplay.obj
 0001:00000887       ?QueryInterface@?$CComObject@VCOPOSRemoteOrderDisplay@@@ATL@@WJI@AGJABU_GUID@@PAPAX@Z 10001887 f i RemoteOrderDisplay.obj
 0001:00000894       ?AddRef@?$CComObject@VCOPOSRemoteOrderDisplay@@@ATL@@WJI@AGKXZ 10001894 f i RemoteOrderDisplay.obj
 0001:000008a1       ?Release@?$CComObject@VCOPOSRemoteOrderDisplay@@@ATL@@WJI@AGKXZ 100018a1 f i RemoteOrderDisplay.obj
 0001:000008ae       ?QueryInterface@?$CComObject@VCOPOSRemoteOrderDisplay@@@ATL@@WJM@AGJABU_GUID@@PAPAX@Z 100018ae f i RemoteOrderDisplay.obj
 0001:000008bb       ?AddRef@?$CComObject@VCOPOSRemoteOrderDisplay@@@ATL@@WJM@AGKXZ 100018bb f i RemoteOrderDisplay.obj
 0001:000008c8       ?Release@?$CComObject@VCOPOSRemoteOrderDisplay@@@ATL@@WJM@AGKXZ 100018c8 f i RemoteOrderDisplay.obj
 0001:000008d5       ?QueryInterface@?$CComObject@VCOPOSRemoteOrderDisplay@@@ATL@@WKA@AGJABU_GUID@@PAPAX@Z 100018d5 f i RemoteOrderDisplay.obj
 0001:000008e2       ?AddRef@?$CComObject@VCOPOSRemoteOrderDisplay@@@ATL@@WKA@AGKXZ 100018e2 f i RemoteOrderDisplay.obj
 0001:000008ef       ?Release@?$CComObject@VCOPOSRemoteOrderDisplay@@@ATL@@WKA@AGKXZ 100018ef f i RemoteOrderDisplay.obj
 0001:000008fc       ?AddRef@?$CComObject@VCOPOSRemoteOrderDisplay@@@ATL@@WKI@AGKXZ 100018fc f i RemoteOrderDisplay.obj
 0001:00000909       ?Release@?$CComObject@VCOPOSRemoteOrderDisplay@@@ATL@@WKI@AGKXZ 10001909 f i RemoteOrderDisplay.obj
 0001:00000916       ?AddRef@?$CComObject@VCOPOSRemoteOrderDisplay@@@ATL@@WLE@AGKXZ 10001916 f i RemoteOrderDisplay.obj
 0001:00000923       ?Release@?$CComObject@VCOPOSRemoteOrderDisplay@@@ATL@@WLE@AGKXZ 10001923 f i RemoteOrderDisplay.obj
 0001:00000930       ??_E?$CComContainedObject@VCOPOSRemoteOrderDisplay@@@ATL@@W3AEPAXI@Z 10001930 f i RemoteOrderDisplay.obj
 0001:00000938       ??_E?$CComContainedObject@VCOPOSRemoteOrderDisplay@@@ATL@@WEM@AEPAXI@Z 10001938 f i RemoteOrderDisplay.obj
 0001:00000940       ?QueryInterface@?$CComContainedObject@VCOPOSRemoteOrderDisplay@@@ATL@@WHA@AGJABU_GUID@@PAPAX@Z 10001940 f i RemoteOrderDisplay.obj
 0001:0000094a       ?AddRef@?$CComContainedObject@VCOPOSRemoteOrderDisplay@@@ATL@@WHA@AGKXZ 1000194a f i RemoteOrderDisplay.obj
 0001:00000954       ?Release@?$CComContainedObject@VCOPOSRemoteOrderDisplay@@@ATL@@WHA@AGKXZ 10001954 f i RemoteOrderDisplay.obj
 0001:0000095e       ?QueryInterface@?$CComContainedObject@VCOPOSRemoteOrderDisplay@@@ATL@@WHE@AGJABU_GUID@@PAPAX@Z 1000195e f i RemoteOrderDisplay.obj
 0001:00000968       ?AddRef@?$CComContainedObject@VCOPOSRemoteOrderDisplay@@@ATL@@WHE@AGKXZ 10001968 f i RemoteOrderDisplay.obj
 0001:00000972       ?Release@?$CComContainedObject@VCOPOSRemoteOrderDisplay@@@ATL@@WHE@AGKXZ 10001972 f i RemoteOrderDisplay.obj
 0001:0000097c       ?QueryInterface@?$CComContainedObject@VCOPOSRemoteOrderDisplay@@@ATL@@WHI@AGJABU_GUID@@PAPAX@Z 1000197c f i RemoteOrderDisplay.obj
 0001:00000986       ?AddRef@?$CComContainedObject@VCOPOSRemoteOrderDisplay@@@ATL@@WHI@AGKXZ 10001986 f i RemoteOrderDisplay.obj
 0001:00000990       ?Release@?$CComContainedObject@VCOPOSRemoteOrderDisplay@@@ATL@@WHI@AGKXZ 10001990 f i RemoteOrderDisplay.obj
 0001:0000099a       ?QueryInterface@?$CComContainedObject@VCOPOSRemoteOrderDisplay@@@ATL@@WHM@AGJABU_GUID@@PAPAX@Z 1000199a f i RemoteOrderDisplay.obj
 0001:000009a4       ?AddRef@?$CComContainedObject@VCOPOSRemoteOrderDisplay@@@ATL@@WHM@AGKXZ 100019a4 f i RemoteOrderDisplay.obj
 0001:000009ae       ?Release@?$CComContainedObject@VCOPOSRemoteOrderDisplay@@@ATL@@WHM@AGKXZ 100019ae f i RemoteOrderDisplay.obj
 0001:000009b8       ?QueryInterface@?$CComContainedObject@VCOPOSRemoteOrderDisplay@@@ATL@@WIA@AGJABU_GUID@@PAPAX@Z 100019b8 f i RemoteOrderDisplay.obj
 0001:000009c5       ?AddRef@?$CComContainedObject@VCOPOSRemoteOrderDisplay@@@ATL@@WIA@AGKXZ 100019c5 f i RemoteOrderDisplay.obj
 0001:000009d2       ?Release@?$CComContainedObject@VCOPOSRemoteOrderDisplay@@@ATL@@WIA@AGKXZ 100019d2 f i RemoteOrderDisplay.obj
 0001:000009df       ?QueryInterface@?$CComContainedObject@VCOPOSRemoteOrderDisplay@@@ATL@@WIE@AGJABU_GUID@@PAPAX@Z 100019df f i RemoteOrderDisplay.obj
 0001:000009ec       ?AddRef@?$CComContainedObject@VCOPOSRemoteOrderDisplay@@@ATL@@WIE@AGKXZ 100019ec f i RemoteOrderDisplay.obj
 0001:000009f9       ?Release@?$CComContainedObject@VCOPOSRemoteOrderDisplay@@@ATL@@WIE@AGKXZ 100019f9 f i RemoteOrderDisplay.obj
 0001:00000a06       ?QueryInterface@?$CComContainedObject@VCOPOSRemoteOrderDisplay@@@ATL@@WII@AGJABU_GUID@@PAPAX@Z 10001a06 f i RemoteOrderDisplay.obj
 0001:00000a13       ?AddRef@?$CComContainedObject@VCOPOSRemoteOrderDisplay@@@ATL@@WII@AGKXZ 10001a13 f i RemoteOrderDisplay.obj
 0001:00000a20       ?Release@?$CComContainedObject@VCOPOSRemoteOrderDisplay@@@ATL@@WII@AGKXZ 10001a20 f i RemoteOrderDisplay.obj
 0001:00000a2d       ?QueryInterface@?$CComContainedObject@VCOPOSRemoteOrderDisplay@@@ATL@@WIM@AGJABU_GUID@@PAPAX@Z 10001a2d f i RemoteOrderDisplay.obj
 0001:00000a3a       ?AddRef@?$CComContainedObject@VCOPOSRemoteOrderDisplay@@@ATL@@WIM@AGKXZ 10001a3a f i RemoteOrderDisplay.obj
 0001:00000a47       ?Release@?$CComContainedObject@VCOPOSRemoteOrderDisplay@@@ATL@@WIM@AGKXZ 10001a47 f i RemoteOrderDisplay.obj
 0001:00000a54       ?QueryInterface@?$CComContainedObject@VCOPOSRemoteOrderDisplay@@@ATL@@WJA@AGJABU_GUID@@PAPAX@Z 10001a54 f i RemoteOrderDisplay.obj
 0001:00000a61       ?AddRef@?$CComContainedObject@VCOPOSRemoteOrderDisplay@@@ATL@@WJA@AGKXZ 10001a61 f i RemoteOrderDisplay.obj
 0001:00000a6e       ?Release@?$CComContainedObject@VCOPOSRemoteOrderDisplay@@@ATL@@WJA@AGKXZ 10001a6e f i RemoteOrderDisplay.obj
 0001:00000a7b       ?QueryInterface@?$CComContainedObject@VCOPOSRemoteOrderDisplay@@@ATL@@WJE@AGJABU_GUID@@PAPAX@Z 10001a7b f i RemoteOrderDisplay.obj
 0001:00000a88       ?AddRef@?$CComContainedObject@VCOPOSRemoteOrderDisplay@@@ATL@@WJE@AGKXZ 10001a88 f i RemoteOrderDisplay.obj
 0001:00000a95       ?Release@?$CComContainedObject@VCOPOSRemoteOrderDisplay@@@ATL@@WJE@AGKXZ 10001a95 f i RemoteOrderDisplay.obj
 0001:00000aa2       ?QueryInterface@?$CComContainedObject@VCOPOSRemoteOrderDisplay@@@ATL@@WJI@AGJABU_GUID@@PAPAX@Z 10001aa2 f i RemoteOrderDisplay.obj
 0001:00000aaf       ?AddRef@?$CComContainedObject@VCOPOSRemoteOrderDisplay@@@ATL@@WJI@AGKXZ 10001aaf f i RemoteOrderDisplay.obj
 0001:00000abc       ?Release@?$CComContainedObject@VCOPOSRemoteOrderDisplay@@@ATL@@WJI@AGKXZ 10001abc f i RemoteOrderDisplay.obj
 0001:00000ac9       ?QueryInterface@?$CComContainedObject@VCOPOSRemoteOrderDisplay@@@ATL@@WJM@AGJABU_GUID@@PAPAX@Z 10001ac9 f i RemoteOrderDisplay.obj
 0001:00000ad6       ?AddRef@?$CComContainedObject@VCOPOSRemoteOrderDisplay@@@ATL@@WJM@AGKXZ 10001ad6 f i RemoteOrderDisplay.obj
 0001:00000ae3       ?Release@?$CComContainedObject@VCOPOSRemoteOrderDisplay@@@ATL@@WJM@AGKXZ 10001ae3 f i RemoteOrderDisplay.obj
 0001:00000af0       ?QueryInterface@?$CComContainedObject@VCOPOSRemoteOrderDisplay@@@ATL@@WKA@AGJABU_GUID@@PAPAX@Z 10001af0 f i RemoteOrderDisplay.obj
 0001:00000afd       ?AddRef@?$CComContainedObject@VCOPOSRemoteOrderDisplay@@@ATL@@WKA@AGKXZ 10001afd f i RemoteOrderDisplay.obj
 0001:00000b0a       ?Release@?$CComContainedObject@VCOPOSRemoteOrderDisplay@@@ATL@@WKA@AGKXZ 10001b0a f i RemoteOrderDisplay.obj
 0001:00000b17       ?AddRef@?$CComContainedObject@VCOPOSRemoteOrderDisplay@@@ATL@@WKI@AGKXZ 10001b17 f i RemoteOrderDisplay.obj
 0001:00000b24       ?Release@?$CComContainedObject@VCOPOSRemoteOrderDisplay@@@ATL@@WKI@AGKXZ 10001b24 f i RemoteOrderDisplay.obj
 0001:00000b31       ?AddRef@?$CComContainedObject@VCOPOSRemoteOrderDisplay@@@ATL@@WLE@AGKXZ 10001b31 f i RemoteOrderDisplay.obj
 0001:00000b3e       ?Release@?$CComContainedObject@VCOPOSRemoteOrderDisplay@@@ATL@@WLE@AGKXZ 10001b3e f i RemoteOrderDisplay.obj
 0001:00000b4b       ?GetWindowProc@?$CWindowImplBaseT@VCWindow@ATL@@V?$CWinTraits@$0FGAAAAAA@$0A@@2@@ATL@@UAEP6GJPAUHWND__@@IIJ@ZXZ 10001b4b f i RemoteOrderDisplay.obj
 0001:00000b51       ?StartWindowProc@?$CWindowImplBaseT@VCWindow@ATL@@V?$CWinTraits@$0FGAAAAAA@$0A@@2@@ATL@@SGJPAUHWND__@@IIJ@Z 10001b51 f i RemoteOrderDisplay.obj
 0001:00000ba5       ?ObjectMain@CComObjectRootBase@ATL@@SGX_N@Z 10001ba5 f i RemoteOrderDisplay.obj
 0001:00000ba5       ?OnFinalMessage@?$CWindowImplBaseT@VCWindow@ATL@@V?$CWinTraits@$0FGAAAAAA@$0A@@2@@ATL@@UAEXPAUHWND__@@@Z 10001ba5 f i RemoteOrderDisplay.obj
 0001:00000ba8       ?GetTypeInfoCount@?$IDispatchImpl@UIOPOSRemoteOrderDisplay@@$1?IID_IOPOSRemoteOrderDisplay@@3U_GUID@@B$1?LIBID_OposRemoteOrderDisplay_CCO@@3U3@B$00$0A@VCComTypeInfoHolder@ATL@@@ATL@@UAGJPAI@Z 10001ba8 f i RemoteOrderDisplay.obj
 0001:00000bc5       ?GetTypeInfo@?$IDispatchImpl@UIOPOSRemoteOrderDisplay@@$1?IID_IOPOSRemoteOrderDisplay@@3U_GUID@@B$1?LIBID_OposRemoteOrderDisplay_CCO@@3U3@B$00$0A@VCComTypeInfoHolder@ATL@@@ATL@@UAGJIKPAPAUITypeInfo@@@Z 10001bc5 f i RemoteOrderDisplay.obj
 0001:00000be9       ?GetIDsOfNames@?$IDispatchImpl@UIOPOSRemoteOrderDisplay@@$1?IID_IOPOSRemoteOrderDisplay@@3U_GUID@@B$1?LIBID_OposRemoteOrderDisplay_CCO@@3U3@B$00$0A@VCComTypeInfoHolder@ATL@@@ATL@@UAGJABU_GUID@@PAPA_WIKPAJ@Z 10001be9 f i RemoteOrderDisplay.obj
 0001:00000c09       ?Invoke@?$IDispatchImpl@UIOPOSRemoteOrderDisplay@@$1?IID_IOPOSRemoteOrderDisplay@@3U_GUID@@B$1?LIBID_OposRemoteOrderDisplay_CCO@@3U3@B$00$0A@VCComTypeInfoHolder@ATL@@@ATL@@UAGJJABU_GUID@@KGPAUtagDISPPARAMS@@PAUtagVARIANT@@PAUtagEXCEPINFO@@PAI@Z 10001c09 f i RemoteOrderDisplay.obj
 0001:00000c17       ?CreateControlWindow@?$CComControl@VCOPOSRemoteOrderDisplay@@V?$CWindowImpl@VCOPOSRemoteOrderDisplay@@VCWindow@ATL@@V?$CWinTraits@$0FGAAAAAA@$0A@@3@@ATL@@@ATL@@UAEPAUHWND__@@PAU3@AAUtagRECT@@@Z 10001c17 f i RemoteOrderDisplay.obj
 0001:00000c46       ?ControlQueryInterface@?$CComControl@VCOPOSRemoteOrderDisplay@@V?$CWindowImpl@VCOPOSRemoteOrderDisplay@@VCWindow@ATL@@V?$CWinTraits@$0FGAAAAAA@$0A@@3@@ATL@@@ATL@@UAEJABU_GUID@@PAPAX@Z 10001c46 f i RemoteOrderDisplay.obj
 0001:00000c61       ?GetUserClassID@?$IOleObjectImpl@VCOPOSRemoteOrderDisplay@@@ATL@@UAGJPAU_GUID@@@Z 10001c61 f i RemoteOrderDisplay.obj
 0001:00000c61       ?GetClassID@?$IPersistStreamInitImpl@VCOPOSRemoteOrderDisplay@@@ATL@@UAGJPAU_GUID@@@Z 10001c61 f i RemoteOrderDisplay.obj
 0001:00000c61       ?GetClassID@?$IPersistStorageImpl@VCOPOSRemoteOrderDisplay@@@ATL@@UAGJPAU_GUID@@@Z 10001c61 f i RemoteOrderDisplay.obj
 0001:00000c85       ?IsDirty@?$IPersistStreamInitImpl@VCOPOSRemoteOrderDisplay@@@ATL@@UAGJXZ 10001c85 f i RemoteOrderDisplay.obj
 0001:00000ca4       ?Load@?$IPersistStreamInitImpl@VCOPOSRemoteOrderDisplay@@@ATL@@UAGJPAUIStream@@@Z 10001ca4 f i RemoteOrderDisplay.obj
 0001:00000cc3       ?Save@?$IPersistStreamInitImpl@VCOPOSRemoteOrderDisplay@@@ATL@@UAGJPAUIStream@@H@Z 10001cc3 f i RemoteOrderDisplay.obj
 0001:00000ce5       ?GetSizeMax@?$IPersistStreamInitImpl@VCOPOSRemoteOrderDisplay@@@ATL@@UAGJPAT_ULARGE_INTEGER@@@Z 10001ce5 f i RemoteOrderDisplay.obj
 0001:00000ec4       ?InitNew@?$IPersistStreamInitImpl@VCOPOSRemoteOrderDisplay@@@ATL@@UAGJXZ 10001ec4 f i RemoteOrderDisplay.obj
 0001:00000ee1       ?QueryGetData@?$IDataObjectImpl@VCOPOSRemoteOrderDisplay@@@ATL@@UAGJPAUtagFORMATETC@@@Z 10001ee1 f i RemoteOrderDisplay.obj
 0001:00000ee1       ?SetColorScheme@?$IOleObjectImpl@VCOPOSRemoteOrderDisplay@@@ATL@@UAGJPAUtagLOGPALETTE@@@Z 10001ee1 f i RemoteOrderDisplay.obj
 0001:00000ee1       ?ContextSensitiveHelp@?$IOleInPlaceObjectWindowlessImpl@VCOPOSRemoteOrderDisplay@@@ATL@@UAGJH@Z 10001ee1 f i RemoteOrderDisplay.obj
 0001:00000ee1       ?OnMnemonic@?$IOleControlImpl@VCOPOSRemoteOrderDisplay@@@ATL@@UAGJPAUtagMSG@@@Z 10001ee1 f i RemoteOrderDisplay.obj
 0001:00000ee1       ?GetControlInfo@?$IOleControlImpl@VCOPOSRemoteOrderDisplay@@@ATL@@UAGJPAUtagCONTROLINFO@@@Z 10001ee1 f i RemoteOrderDisplay.obj
 0001:00000ee1       ?ContextSensitiveHelp@?$IOleInPlaceActiveObjectImpl@VCOPOSRemoteOrderDisplay@@@ATL@@UAGJH@Z 10001ee1 f i RemoteOrderDisplay.obj
 0001:00000ee1       ?GetDropTarget@?$IOleInPlaceObjectWindowlessImpl@VCOPOSRemoteOrderDisplay@@@ATL@@UAGJPAPAUIDropTarget@@@Z 10001ee1 f i RemoteOrderDisplay.obj
 0001:00000ee1       ?Unfreeze@?$IViewObjectExImpl@VCOPOSRemoteOrderDisplay@@@ATL@@UAGJK@Z 10001ee1 f i RemoteOrderDisplay.obj
 0001:00000ee9       ?OnFrameWindowActivate@?$IOleInPlaceActiveObjectImpl@VCOPOSRemoteOrderDisplay@@@ATL@@UAGJH@Z 10001ee9 f i RemoteOrderDisplay.obj
 0001:00000ee9       ?OnAmbientPropertyChange@?$IOleControlImpl@VCOPOSRemoteOrderDisplay@@@ATL@@UAGJJ@Z 10001ee9 f i RemoteOrderDisplay.obj
 0001:00000ee9       ?EnableModeless@?$IOleInPlaceActiveObjectImpl@VCOPOSRemoteOrderDisplay@@@ATL@@UAGJH@Z 10001ee9 f i RemoteOrderDisplay.obj
 0001:00000ee9       ?SaveCompleted@?$IPersistStorageImpl@VCOPOSRemoteOrderDisplay@@@ATL@@UAGJPAUIStorage@@@Z 10001ee9 f i RemoteOrderDisplay.obj
 0001:00000eee       ?SetClientSite@?$IOleObjectImpl@VCOPOSRemoteOrderDisplay@@@ATL@@UAGJPAUIOleClientSite@@@Z 10001eee f i RemoteOrderDisplay.obj
 0001:00000f0b       ?GetClientSite@?$IOleObjectImpl@VCOPOSRemoteOrderDisplay@@@ATL@@UAGJPAPAUIOleClientSite@@@Z 10001f0b f i RemoteOrderDisplay.obj
 0001:00000f28       ?SetHostNames@?$IOleObjectImpl@VCOPOSRemoteOrderDisplay@@@ATL@@UAGJPB_W0@Z 10001f28 f i RemoteOrderDisplay.obj
 0001:00000f2d       ?Close@?$IOleObjectImpl@VCOPOSRemoteOrderDisplay@@@ATL@@UAGJK@Z 10001f2d f i RemoteOrderDisplay.obj
 0001:00000f4a       ?GetRect@?$IViewObjectExImpl@VCOPOSRemoteOrderDisplay@@@ATL@@UAGJKPAU_RECTL@@@Z 10001f4a f i RemoteOrderDisplay.obj
 0001:00000f4a       ?GetClipboardData@?$IOleObjectImpl@VCOPOSRemoteOrderDisplay@@@ATL@@UAGJKPAPAUIDataObject@@@Z 10001f4a f i RemoteOrderDisplay.obj
 0001:00000f4a       ?SetMoniker@?$IOleObjectImpl@VCOPOSRemoteOrderDisplay@@@ATL@@UAGJKPAUIMoniker@@@Z 10001f4a f i RemoteOrderDisplay.obj
 0001:00000f4a       ?GetDataHere@?$IDataObjectImpl@VCOPOSRemoteOrderDisplay@@@ATL@@UAGJPAUtagFORMATETC@@PAUtagSTGMEDIUM@@@Z 10001f4a f i RemoteOrderDisplay.obj
 0001:00000f4a       ?GetCanonicalFormatEtc@?$IDataObjectImpl@VCOPOSRemoteOrderDisplay@@@ATL@@UAGJPAUtagFORMATETC@@0@Z 10001f4a f i RemoteOrderDisplay.obj
 0001:00000f4a       ?EnumFormatEtc@?$IDataObjectImpl@VCOPOSRemoteOrderDisplay@@@ATL@@UAGJKPAPAUIEnumFORMATETC@@@Z 10001f4a f i RemoteOrderDisplay.obj
 0001:00000f4a       ?QueryInterface@CRegObject@ATL@@UAGJABU_GUID@@PAPAX@Z 10001f4a f i RemoteOrderDisplay.obj
 0001:00000f52       ?SetData@?$IDataObjectImpl@VCOPOSRemoteOrderDisplay@@@ATL@@UAGJPAUtagFORMATETC@@PAUtagSTGMEDIUM@@H@Z 10001f52 f i RemoteOrderDisplay.obj
 0001:00000f52       ?GetMoniker@?$IOleObjectImpl@VCOPOSRemoteOrderDisplay@@@ATL@@UAGJKKPAPAUIMoniker@@@Z 10001f52 f i RemoteOrderDisplay.obj
 0001:00000f52       ?InitFromData@?$IOleObjectImpl@VCOPOSRemoteOrderDisplay@@@ATL@@UAGJPAUIDataObject@@HK@Z 10001f52 f i RemoteOrderDisplay.obj
 0001:00000f5a       ?DoVerb@?$IOleObjectImpl@VCOPOSRemoteOrderDisplay@@@ATL@@UAGJJPAUtagMSG@@PAUIOleClientSite@@JPAUHWND__@@PBUtagRECT@@@Z 10001f5a f i RemoteOrderDisplay.obj
 0001:0000104e       ?EnumVerbs@?$IOleObjectImpl@VCOPOSRemoteOrderDisplay@@@ATL@@UAGJPAPAUIEnumOLEVERB@@@Z 1000204e f i RemoteOrderDisplay.obj
 0001:00001070       ?HandsOffStorage@?$IPersistStorageImpl@VCOPOSRemoteOrderDisplay@@@ATL@@UAGJXZ 10002070 f i RemoteOrderDisplay.obj
 0001:00001070       ?Update@?$IOleObjectImpl@VCOPOSRemoteOrderDisplay@@@ATL@@UAGJXZ 10002070 f i RemoteOrderDisplay.obj
 0001:00001070       ?IsUpToDate@?$IOleObjectImpl@VCOPOSRemoteOrderDisplay@@@ATL@@UAGJXZ 10002070 f i RemoteOrderDisplay.obj
 0001:00001070       ?Release@CRegObject@ATL@@UAGKXZ 10002070 f i RemoteOrderDisplay.obj
 0001:00001075       ?GetUserType@?$IOleObjectImpl@VCOPOSRemoteOrderDisplay@@@ATL@@UAGJKPAPA_W@Z 10002075 f i RemoteOrderDisplay.obj
 0001:0000108d       ?SetExtent@?$IOleObjectImpl@VCOPOSRemoteOrderDisplay@@@ATL@@UAGJKPAUtagSIZE@@@Z 1000208d f i RemoteOrderDisplay.obj
 0001:000010ad       ?GetExtent@?$IOleObjectImpl@VCOPOSRemoteOrderDisplay@@@ATL@@UAGJKPAUtagSIZE@@@Z 100020ad f i RemoteOrderDisplay.obj
 0001:000010eb       ?Advise@?$IOleObjectImpl@VCOPOSRemoteOrderDisplay@@@ATL@@UAGJPAUIAdviseSink@@PAK@Z 100020eb f i RemoteOrderDisplay.obj
 0001:0000110b       ?Unadvise@?$IOleObjectImpl@VCOPOSRemoteOrderDisplay@@@ATL@@UAGJK@Z 1000210b f i RemoteOrderDisplay.obj
 0001:0000113a       ?EnumAdvise@?$IOleObjectImpl@VCOPOSRemoteOrderDisplay@@@ATL@@UAGJPAPAUIEnumSTATDATA@@@Z 1000213a f i RemoteOrderDisplay.obj
 0001:0000117a       ?GetMiscStatus@?$IOleObjectImpl@VCOPOSRemoteOrderDisplay@@@ATL@@UAGJKPAK@Z 1000217a f i RemoteOrderDisplay.obj
 0001:00001192       ?GetWindow@?$IOleInPlaceActiveObjectImpl@VCOPOSRemoteOrderDisplay@@@ATL@@UAGJPAPAUHWND__@@@Z 10002192 f i RemoteOrderDisplay.obj
 0001:000011df       ?TranslateAcceleratorW@?$IOleInPlaceActiveObjectImpl@VCOPOSRemoteOrderDisplay@@@ATL@@UAGJPAUtagMSG@@@Z 100021df f i RemoteOrderDisplay.obj
 0001:0000128d       ?OnDocWindowActivate@?$IOleInPlaceActiveObjectImpl@VCOPOSRemoteOrderDisplay@@@ATL@@UAGJH@Z 1000228d f i RemoteOrderDisplay.obj
 0001:000012af       ?ResizeBorder@?$IOleInPlaceActiveObjectImpl@VCOPOSRemoteOrderDisplay@@@ATL@@UAGJPBUtagRECT@@PAUIOleInPlaceUIWindow@@H@Z 100022af f i RemoteOrderDisplay.obj
 0001:000012b4       ?Draw@?$IViewObjectExImpl@VCOPOSRemoteOrderDisplay@@@ATL@@UAGJKJPAXPAUtagDVTARGETDEVICE@@PAUHDC__@@2PBU_RECTL@@3P6GHK@ZK@Z 100022b4 f i RemoteOrderDisplay.obj
 0001:000012e6       ?GetColorSet@?$IViewObjectExImpl@VCOPOSRemoteOrderDisplay@@@ATL@@UAGJKJPAXPAUtagDVTARGETDEVICE@@PAUHDC__@@PAPAUtagLOGPALETTE@@@Z 100022e6 f i RemoteOrderDisplay.obj
 0001:000012ee       ?Freeze@?$IViewObjectExImpl@VCOPOSRemoteOrderDisplay@@@ATL@@UAGJKJPAXPAK@Z 100022ee f i RemoteOrderDisplay.obj
 0001:000012f6       ?SetAdvise@?$IViewObjectExImpl@VCOPOSRemoteOrderDisplay@@@ATL@@UAGJKKPAUIAdviseSink@@@Z 100022f6 f i RemoteOrderDisplay.obj
 0001:00001315       ?GetAdvise@?$IViewObjectExImpl@VCOPOSRemoteOrderDisplay@@@ATL@@UAGJPAK0PAPAUIAdviseSink@@@Z 10002315 f i RemoteOrderDisplay.obj
 0001:0000134a       ?GetExtent@?$IViewObjectExImpl@VCOPOSRemoteOrderDisplay@@@ATL@@UAGJKJPAUtagDVTARGETDEVICE@@PAUtagSIZE@@@Z 1000234a f i RemoteOrderDisplay.obj
 0001:0000137b       ?GetViewStatus@?$IViewObjectExImpl@VCOPOSRemoteOrderDisplay@@@ATL@@UAGJPAK@Z 1000237b f i RemoteOrderDisplay.obj
 0001:00001398       ?QueryHitPoint@?$IViewObjectExImpl@VCOPOSRemoteOrderDisplay@@@ATL@@UAGJKPBUtagRECT@@UtagPOINT@@JPAK@Z 10002398 f i RemoteOrderDisplay.obj
 0001:000013d9       ?QueryHitRect@?$IViewObjectExImpl@VCOPOSRemoteOrderDisplay@@@ATL@@UAGJKPBUtagRECT@@0JPAK@Z 100023d9 f i RemoteOrderDisplay.obj
 0001:00001434       ?GetNaturalExtent@?$IViewObjectExImpl@VCOPOSRemoteOrderDisplay@@@ATL@@UAGJKJPAUtagDVTARGETDEVICE@@PAUHDC__@@PAUtagExtentInfo@@PAUtagSIZE@@@Z 10002434 f i RemoteOrderDisplay.obj
 0001:0000147f       ?GetWindow@?$IOleInPlaceObjectWindowlessImpl@VCOPOSRemoteOrderDisplay@@@ATL@@UAGJPAPAUHWND__@@@Z 1000247f f i RemoteOrderDisplay.obj
 0001:000014cc       ?InPlaceDeactivate@?$IOleInPlaceObjectWindowlessImpl@VCOPOSRemoteOrderDisplay@@@ATL@@UAGJXZ 100024cc f i RemoteOrderDisplay.obj
 0001:000014e6       ?UIDeactivate@?$IOleInPlaceObjectWindowlessImpl@VCOPOSRemoteOrderDisplay@@@ATL@@UAGJXZ 100024e6 f i RemoteOrderDisplay.obj
 0001:00001500       ?SetObjectRects@?$IOleInPlaceObjectWindowlessImpl@VCOPOSRemoteOrderDisplay@@@ATL@@UAGJPBUtagRECT@@0@Z 10002500 f i RemoteOrderDisplay.obj
 0001:00001520       ?ReactivateAndUndo@?$IOleInPlaceObjectWindowlessImpl@VCOPOSRemoteOrderDisplay@@@ATL@@UAGJXZ 10002520 f i RemoteOrderDisplay.obj
 0001:00001528       ?OnWindowMessage@?$IOleInPlaceObjectWindowlessImpl@VCOPOSRemoteOrderDisplay@@@ATL@@UAGJIIJPAJ@Z 10002528 f i RemoteOrderDisplay.obj
 0001:00001598       ?EnumConnectionPoints@?$IConnectionPointContainerImpl@VCOPOSRemoteOrderDisplay@@@ATL@@UAGJPAPAUIEnumConnectionPoints@@@Z 10002598 f i RemoteOrderDisplay.obj
 0001:00001724       ?FindConnectionPoint@?$IConnectionPointContainerImpl@VCOPOSRemoteOrderDisplay@@@ATL@@UAGJABU_GUID@@PAPAUIConnectionPoint@@@Z 10002724 f i RemoteOrderDisplay.obj
 0001:000017c7       ?IsDirty@?$IPersistStorageImpl@VCOPOSRemoteOrderDisplay@@@ATL@@UAGJXZ 100027c7 f i RemoteOrderDisplay.obj
 0001:000017f7       ?InitNew@?$IPersistStorageImpl@VCOPOSRemoteOrderDisplay@@@ATL@@UAGJPAUIStorage@@@Z 100027f7 f i RemoteOrderDisplay.obj
 0001:00001827       ?Load@?$IPersistStorageImpl@VCOPOSRemoteOrderDisplay@@@ATL@@UAGJPAUIStorage@@@Z 10002827 f i RemoteOrderDisplay.obj
 0001:00001893       ?Save@?$IPersistStorageImpl@VCOPOSRemoteOrderDisplay@@@ATL@@UAGJPAUIStorage@@H@Z 10002893 f i RemoteOrderDisplay.obj
 0001:00001906       ?GetPages@?$ISpecifyPropertyPagesImpl@VCOPOSRemoteOrderDisplay@@@ATL@@UAGJPAUtagCAUUID@@@Z 10002906 f i RemoteOrderDisplay.obj
 0001:0000191d       ?QuickActivate@?$IQuickActivateImpl@VCOPOSRemoteOrderDisplay@@@ATL@@UAGJPAUtagQACONTAINER@@PAUtagQACONTROL@@@Z 1000291d f i RemoteOrderDisplay.obj
 0001:00001940       ?SetContentExtent@?$IQuickActivateImpl@VCOPOSRemoteOrderDisplay@@@ATL@@UAGJPAUtagSIZE@@@Z 10002940 f i RemoteOrderDisplay.obj
 0001:0000196c       ?GetContentExtent@?$IQuickActivateImpl@VCOPOSRemoteOrderDisplay@@@ATL@@UAGJPAUtagSIZE@@@Z 1000296c f i RemoteOrderDisplay.obj
 0001:000019a8       ?GetData@?$IDataObjectImpl@VCOPOSRemoteOrderDisplay@@@ATL@@UAGJPAUtagFORMATETC@@PAUtagSTGMEDIUM@@@Z 100029a8 f i RemoteOrderDisplay.obj
 0001:000019cb       ?DAdvise@?$IDataObjectImpl@VCOPOSRemoteOrderDisplay@@@ATL@@UAGJPAUtagFORMATETC@@KPAUIAdviseSink@@PAK@Z 100029cb f i RemoteOrderDisplay.obj
 0001:00001a0c       ?DUnadvise@?$IDataObjectImpl@VCOPOSRemoteOrderDisplay@@@ATL@@UAGJK@Z 10002a0c f i RemoteOrderDisplay.obj
 0001:00001a3a       ?EnumDAdvise@?$IDataObjectImpl@VCOPOSRemoteOrderDisplay@@@ATL@@UAGJPAPAUIEnumSTATDATA@@@Z 10002a3a f i RemoteOrderDisplay.obj
 0001:00001a79       ?GetClassInfoW@?$IProvideClassInfo2Impl@$1?CLSID_OPOSRemoteOrderDisplay@@3U_GUID@@B$1?DIID__IOPOSRemoteOrderDisplayEvents@@3U2@B$1?LIBID_OposRemoteOrderDisplay_CCO@@3U2@B$00$0A@VCComTypeInfoHolder@ATL@@@ATL@@UAGJPAPAUITypeInfo@@@Z 10002a79 f i RemoteOrderDisplay.obj
 0001:00001a8f       ?GetGUID@?$IProvideClassInfo2Impl@$1?CLSID_OPOSRemoteOrderDisplay@@3U_GUID@@B$1?DIID__IOPOSRemoteOrderDisplayEvents@@3U2@B$1?LIBID_OposRemoteOrderDisplay_CCO@@3U2@B$00$0A@VCComTypeInfoHolder@ATL@@@ATL@@UAGJKPAU_GUID@@@Z 10002a8f f i RemoteOrderDisplay.obj
 0001:00001acd       __get_startup_argv_mode    10002acd f i LIBCMT:argv_mode.obj
 0001:00001acd       ?FAccessAllowed@?$IObjectSafetyImpl@VCOPOSRemoteOrderDisplay@@$02@ATL@@MAEHXZ 10002acd f i RemoteOrderDisplay.obj
 0001:00001ad1       ?GetInterfaceSafetyOptions@?$IObjectSafetyImpl@VCOPOSRemoteOrderDisplay@@$02@ATL@@UAGJABU_GUID@@PAK1@Z 10002ad1 f i RemoteOrderDisplay.obj
 0001:00001b45       ?SetInterfaceSafetyOptions@?$IObjectSafetyImpl@VCOPOSRemoteOrderDisplay@@$02@ATL@@UAGJABU_GUID@@KK@Z 10002b45 f i RemoteOrderDisplay.obj
 0001:00001bbf       ?_LocCPQueryInterface@?$IConnectionPointImpl@VCOPOSRemoteOrderDisplay@@$1?IID_IPropertyNotifySink@@3U_GUID@@BVCComDynamicUnkArray@ATL@@@ATL@@UAGJABU_GUID@@PAPAX@Z 10002bbf f i RemoteOrderDisplay.obj
 0001:00001bbf       ?_LocCPQueryInterface@?$IConnectionPointImpl@VCOPOSRemoteOrderDisplay@@$1?DIID__IOPOSRemoteOrderDisplayEvents@@3U_GUID@@BVCComDynamicUnkArray@ATL@@@ATL@@UAGJABU_GUID@@PAPAX@Z 10002bbf f i RemoteOrderDisplay.obj
 0001:00001c0c       ?GetConnectionInterface@?$IConnectionPointImpl@VCOPOSRemoteOrderDisplay@@$1?IID_IPropertyNotifySink@@3U_GUID@@BVCComDynamicUnkArray@ATL@@@ATL@@UAGJPAU_GUID@@@Z 10002c0c f i RemoteOrderDisplay.obj
 0001:00001c30       ?GetConnectionPointContainer@?$IConnectionPointImpl@VCOPOSRemoteOrderDisplay@@$1?IID_IPropertyNotifySink@@3U_GUID@@BVCComDynamicUnkArray@ATL@@@ATL@@UAGJPAPAUIConnectionPointContainer@@@Z 10002c30 f i RemoteOrderDisplay.obj
 0001:00001c53       ?Advise@?$IConnectionPointImpl@VCOPOSRemoteOrderDisplay@@$1?IID_IPropertyNotifySink@@3U_GUID@@BVCComDynamicUnkArray@ATL@@@ATL@@UAGJPAUIUnknown@@PAK@Z 10002c53 f i RemoteOrderDisplay.obj
 0001:00001c53       ?Advise@?$IConnectionPointImpl@VCOPOSRemoteOrderDisplay@@$1?DIID__IOPOSRemoteOrderDisplayEvents@@3U_GUID@@BVCComDynamicUnkArray@ATL@@@ATL@@UAGJPAUIUnknown@@PAK@Z 10002c53 f i RemoteOrderDisplay.obj
 0001:00001cf3       ?Unadvise@?$IConnectionPointImpl@VCOPOSRemoteOrderDisplay@@$1?DIID__IOPOSRemoteOrderDisplayEvents@@3U_GUID@@BVCComDynamicUnkArray@ATL@@@ATL@@UAGJK@Z 10002cf3 f i RemoteOrderDisplay.obj
 0001:00001cf3       ?Unadvise@?$IConnectionPointImpl@VCOPOSRemoteOrderDisplay@@$1?IID_IPropertyNotifySink@@3U_GUID@@BVCComDynamicUnkArray@ATL@@@ATL@@UAGJK@Z 10002cf3 f i RemoteOrderDisplay.obj
 0001:00001d33       ?EnumConnections@?$IConnectionPointImpl@VCOPOSRemoteOrderDisplay@@$1?DIID__IOPOSRemoteOrderDisplayEvents@@3U_GUID@@BVCComDynamicUnkArray@ATL@@@ATL@@UAGJPAPAUIEnumConnections@@@Z 10002d33 f i RemoteOrderDisplay.obj
 0001:00001d33       ?EnumConnections@?$IConnectionPointImpl@VCOPOSRemoteOrderDisplay@@$1?IID_IPropertyNotifySink@@3U_GUID@@BVCComDynamicUnkArray@ATL@@@ATL@@UAGJPAPAUIEnumConnections@@@Z 10002d33 f i RemoteOrderDisplay.obj
 0001:00001e2e       ?GetObjectDescription@?$CComCoClass@VCOPOSRemoteOrderDisplay@@$1?CLSID_OPOSRemoteOrderDisplay@@3U_GUID@@B@ATL@@SGPB_WXZ 10002e2e f i RemoteOrderDisplay.obj
 0001:00001e2e       ?GetCategoryMap@CComObjectRootBase@ATL@@SAPBU_ATL_CATMAP_ENTRY@2@XZ 10002e2e f i RemoteOrderDisplay.obj
 0001:00001e31       ?GetConnectionInterface@?$IConnectionPointImpl@VCOPOSRemoteOrderDisplay@@$1?DIID__IOPOSRemoteOrderDisplayEvents@@3U_GUID@@BVCComDynamicUnkArray@ATL@@@ATL@@UAGJPAU_GUID@@@Z 10002e31 f i RemoteOrderDisplay.obj
 0001:00001e55       ?GetConnectionPointContainer@?$IConnectionPointImpl@VCOPOSRemoteOrderDisplay@@$1?DIID__IOPOSRemoteOrderDisplayEvents@@3U_GUID@@BVCComDynamicUnkArray@ATL@@@ATL@@UAGJPAPAUIConnectionPointContainer@@@Z 10002e55 f i RemoteOrderDisplay.obj
 0001:00001e78       ?Lock@CAtlModule@ATL@@UAEJXZ 10002e78 f i RemoteOrderDisplay.obj
 0001:00001e82       ?Unlock@CAtlModule@ATL@@UAEJXZ 10002e82 f i RemoteOrderDisplay.obj
 0001:00001e8c       ?GetLockCount@CAtlModule@ATL@@UAEJXZ 10002e8c f i RemoteOrderDisplay.obj
 0001:00001e90       ?GetGITPtr@CAtlModule@ATL@@UAEJPAPAUIGlobalInterfaceTable@@@Z 10002e90 f i RemoteOrderDisplay.obj
 0001:00001edc       ?UpdateRegistry@COPOSRemoteOrderDisplay@@SGJH@Z 10002edc f i RemoteOrderDisplay.obj
 0001:00001ef4       ?ProcessWindowMessage@COPOSRemoteOrderDisplay@@UAEHPAUHWND__@@IIJAAJK@Z 10002ef4 f i RemoteOrderDisplay.obj
 0001:00001f3d       ?SOData@COPOSRemoteOrderDisplay@@MAGJJ@Z 10002f3d f i RemoteOrderDisplay.obj
 0001:00001f76       ?SODirectIO@COPOSRemoteOrderDisplay@@MAGJJPAJPAPA_W@Z 10002f76 f i RemoteOrderDisplay.obj
 0001:00001fbf       ?SOError@COPOSRemoteOrderDisplay@@MAGJJJJPAJ@Z 10002fbf f i RemoteOrderDisplay.obj
 0001:00002014       ?SOOutputComplete@COPOSRemoteOrderDisplay@@MAGJJ@Z 10003014 f i RemoteOrderDisplay.obj
 0001:0000204d       ?SOStatusUpdate@COPOSRemoteOrderDisplay@@MAGJJ@Z 1000304d f i RemoteOrderDisplay.obj
 0001:00002086       ?AddCommonRGSReplacements@?$CAtlModuleT@VCComModule@ATL@@@ATL@@UAEJPAUIRegistrarBase@@@Z 10003086 f i RemoteOrderDisplay.obj
 0001:000020a0       ?UpdateRegistryFromResourceD@CComModule@ATL@@UAGJPB_WHPAU_ATL_REGMAP_ENTRY@2@@Z 100030a0 f i RemoteOrderDisplay.obj
 0001:000020a0       ?UpdateRegistryFromResourceD@CComModule@ATL@@UAGJIHPAU_ATL_REGMAP_ENTRY@2@@Z 100030a0 f i RemoteOrderDisplay.obj
 0001:000020a8       ?UpdateRegistryFromResource@CComModule@ATL@@UAGJPB_WHPAU_ATL_REGMAP_ENTRY@2@@Z 100030a8 f i RemoteOrderDisplay.obj
 0001:000020b1       ?UpdateRegistryFromResource@CComModule@ATL@@UAGJIHPAU_ATL_REGMAP_ENTRY@2@@Z 100030b1 f i RemoteOrderDisplay.obj
 0001:000020ba       ??_ECComModule@ATL@@UAEPAXI@Z 100030ba f i RemoteOrderDisplay.obj
 0001:000020ba       ??_GCComModule@ATL@@UAEPAXI@Z 100030ba f i RemoteOrderDisplay.obj
 0001:000020e2       ?CreateInstance@?$CComCreator@V?$CComObjectCached@VCComClassFactory@ATL@@@ATL@@@ATL@@SGJPAXABU_GUID@@PAPAX@Z 100030e2 f i RemoteOrderDisplay.obj
 0001:00002182       ?CreateInstance@?$CComCreator2@V?$CComCreator@V?$CComObject@VCOPOSRemoteOrderDisplay@@@ATL@@@ATL@@V?$CComCreator@V?$CComAggObject@VCOPOSRemoteOrderDisplay@@@ATL@@@2@@ATL@@SGJPAXABU_GUID@@PAPAX@Z 10003182 f i RemoteOrderDisplay.obj
 0001:000021a2       ?AddRef@?$CComObjectCached@VCComClassFactory@ATL@@@ATL@@UAGKXZ 100031a2 f i RemoteOrderDisplay.obj
 0001:000021c9       ?Release@?$CComObjectCached@VCComClassFactory@ATL@@@ATL@@UAGKXZ 100031c9 f i RemoteOrderDisplay.obj
 0001:000021ff       ?QueryInterface@?$CComObjectCached@VCComClassFactory@ATL@@@ATL@@UAGJABU_GUID@@PAPAX@Z 100031ff f i RemoteOrderDisplay.obj
 0001:00002219       ??_E?$CComObjectCached@VCComClassFactory@ATL@@@ATL@@UAEPAXI@Z 10003219 f i RemoteOrderDisplay.obj
 0001:00002219       ??_G?$CComObjectCached@VCComClassFactory@ATL@@@ATL@@UAEPAXI@Z 10003219 f i RemoteOrderDisplay.obj
 0001:0000223b       ?Next@?$CComEnumImpl@UIEnumConnectionPoints@@$1?_GUID_b196b285_bab4_101a_b69c_00aa00341d07@@3U__s_GUID@@BPAUIConnectionPoint@@V?$_CopyInterface@UIConnectionPoint@@@ATL@@@ATL@@UAGJKPAPAUIConnectionPoint@@PAK@Z 1000323b f i RemoteOrderDisplay.obj
 0001:00002312       ?Skip@?$CComEnumImpl@UIEnumConnectionPoints@@$1?_GUID_b196b285_bab4_101a_b69c_00aa00341d07@@3U__s_GUID@@BPAUIConnectionPoint@@V?$_CopyInterface@UIConnectionPoint@@@ATL@@@ATL@@UAGJK@Z 10003312 f i RemoteOrderDisplay.obj
 0001:0000233f       ?Reset@?$CComEnumImpl@UIEnumConnections@@$1?_GUID_b196b287_bab4_101a_b69c_00aa00341d07@@3U__s_GUID@@BUtagCONNECTDATA@@V?$_Copy@UtagCONNECTDATA@@@ATL@@@ATL@@UAGJXZ 1000333f f i RemoteOrderDisplay.obj
 0001:0000233f       ?Reset@?$CComEnumImpl@UIEnumConnectionPoints@@$1?_GUID_b196b285_bab4_101a_b69c_00aa00341d07@@3U__s_GUID@@BPAUIConnectionPoint@@V?$_CopyInterface@UIConnectionPoint@@@ATL@@@ATL@@UAGJXZ 1000333f f i RemoteOrderDisplay.obj
 0001:00002351       ?Clone@?$CComEnumImpl@UIEnumConnectionPoints@@$1?_GUID_b196b285_bab4_101a_b69c_00aa00341d07@@3U__s_GUID@@BPAUIConnectionPoint@@V?$_CopyInterface@UIConnectionPoint@@@ATL@@@ATL@@UAGJPAPAUIEnumConnectionPoints@@@Z 10003351 f i RemoteOrderDisplay.obj
 0001:00002432       ?AddRef@?$CComObject@V?$CComEnum@UIEnumConnections@@$1?_GUID_b196b287_bab4_101a_b69c_00aa00341d07@@3U__s_GUID@@BUtagCONNECTDATA@@V?$_Copy@UtagCONNECTDATA@@@ATL@@VCComSingleThreadModel@6@@ATL@@@ATL@@UAGKXZ 10003432 f i RemoteOrderDisplay.obj
 0001:00002432       ?AddRef@?$CComObject@V?$CComEnum@UIEnumConnectionPoints@@$1?_GUID_b196b285_bab4_101a_b69c_00aa00341d07@@3U__s_GUID@@BPAUIConnectionPoint@@V?$_CopyInterface@UIConnectionPoint@@@ATL@@VCComSingleThreadModel@6@@ATL@@@ATL@@UAGKXZ 10003432 f i RemoteOrderDisplay.obj
 0001:00002443       ?Release@?$CComObject@V?$CComEnum@UIEnumConnectionPoints@@$1?_GUID_b196b285_bab4_101a_b69c_00aa00341d07@@3U__s_GUID@@BPAUIConnectionPoint@@V?$_CopyInterface@UIConnectionPoint@@@ATL@@VCComSingleThreadModel@6@@ATL@@@ATL@@UAGKXZ 10003443 f i RemoteOrderDisplay.obj
 0001:00002443       ?Release@?$CComObject@V?$CComEnum@UIEnumConnections@@$1?_GUID_b196b287_bab4_101a_b69c_00aa00341d07@@3U__s_GUID@@BUtagCONNECTDATA@@V?$_Copy@UtagCONNECTDATA@@@ATL@@VCComSingleThreadModel@6@@ATL@@@ATL@@UAGKXZ 10003443 f i RemoteOrderDisplay.obj
 0001:0000247f       ?QueryInterface@?$CComObject@V?$CComEnum@UIEnumConnectionPoints@@$1?_GUID_b196b285_bab4_101a_b69c_00aa00341d07@@3U__s_GUID@@BPAUIConnectionPoint@@V?$_CopyInterface@UIConnectionPoint@@@ATL@@VCComSingleThreadModel@6@@ATL@@@ATL@@UAGJABU_GUID@@PAPAX@Z 1000347f f i RemoteOrderDisplay.obj
 0001:00002499       ??_G?$CComObject@V?$CComEnum@UIEnumConnectionPoints@@$1?_GUID_b196b285_bab4_101a_b69c_00aa00341d07@@3U__s_GUID@@BPAUIConnectionPoint@@V?$_CopyInterface@UIConnectionPoint@@@ATL@@VCComSingleThreadModel@6@@ATL@@@ATL@@UAEPAXI@Z 10003499 f i RemoteOrderDisplay.obj
 0001:00002499       ??_E?$CComObject@V?$CComEnum@UIEnumConnectionPoints@@$1?_GUID_b196b285_bab4_101a_b69c_00aa00341d07@@3U__s_GUID@@BPAUIConnectionPoint@@V?$_CopyInterface@UIConnectionPoint@@@ATL@@VCComSingleThreadModel@6@@ATL@@@ATL@@UAEPAXI@Z 10003499 f i RemoteOrderDisplay.obj
 0001:000024bb       ?AddRef@CRegObject@ATL@@UAGKXZ 100034bb f i RemoteOrderDisplay.obj
 0001:000024c1       ?AddReplacement@CRegObject@ATL@@UAGJPB_W0@Z 100034c1 f i RemoteOrderDisplay.obj
 0001:000024fa       ?ClearReplacements@CRegObject@ATL@@UAGJXZ 100034fa f i RemoteOrderDisplay.obj
 0001:0000250c       ??_ECRegObject@ATL@@UAEPAXI@Z 1000350c f i RemoteOrderDisplay.obj
 0001:0000250c       ??_GCRegObject@ATL@@UAEPAXI@Z 1000350c f i RemoteOrderDisplay.obj
 0001:0000252e       ?AddRef@?$CComAggObject@VCOPOSRemoteOrderDisplay@@@ATL@@UAGKXZ 1000352e f i RemoteOrderDisplay.obj
 0001:0000253f       ?Release@?$CComAggObject@VCOPOSRemoteOrderDisplay@@@ATL@@UAGKXZ 1000353f f i RemoteOrderDisplay.obj
 0001:0000257b       ?QueryInterface@?$CComAggObject@VCOPOSRemoteOrderDisplay@@@ATL@@UAGJABU_GUID@@PAPAX@Z 1000357b f i RemoteOrderDisplay.obj
 0001:000025ca       ?AddRef@?$CComContainedObject@VCOPOSRemoteOrderDisplay@@@ATL@@UAGKXZ 100035ca f i RemoteOrderDisplay.obj
 0001:000025e0       ?Release@?$CComContainedObject@VCOPOSRemoteOrderDisplay@@@ATL@@UAGKXZ 100035e0 f i RemoteOrderDisplay.obj
 0001:000025f6       ?QueryInterface@?$CComContainedObject@VCOPOSRemoteOrderDisplay@@@ATL@@UAGJABU_GUID@@PAPAX@Z 100035f6 f i RemoteOrderDisplay.obj
 0001:00002611       ??_E?$CComAggObject@VCOPOSRemoteOrderDisplay@@@ATL@@UAEPAXI@Z 10003611 f i RemoteOrderDisplay.obj
 0001:00002611       ??_G?$CComAggObject@VCOPOSRemoteOrderDisplay@@@ATL@@UAEPAXI@Z 10003611 f i RemoteOrderDisplay.obj
 0001:00002636       ?AddRef@?$CComObject@VCOPOSRemoteOrderDisplay@@@ATL@@UAGKXZ 10003636 f i RemoteOrderDisplay.obj
 0001:0000264d       ?Release@?$CComObject@VCOPOSRemoteOrderDisplay@@@ATL@@UAGKXZ 1000364d f i RemoteOrderDisplay.obj
 0001:0000268f       ?QueryInterface@?$CComObject@VCOPOSRemoteOrderDisplay@@@ATL@@UAGJABU_GUID@@PAPAX@Z 1000368f f i RemoteOrderDisplay.obj
 0001:000026a9       ?OnDrawAdvanced@CComControlBase@ATL@@UAEJAAUATL_DRAWINFO@@@Z 100036a9 f i RemoteOrderDisplay.obj
 0001:0000279c       ?Next@?$CComEnumImpl@UIEnumConnections@@$1?_GUID_b196b287_bab4_101a_b69c_00aa00341d07@@3U__s_GUID@@BUtagCONNECTDATA@@V?$_Copy@UtagCONNECTDATA@@@ATL@@@ATL@@UAGJKPAUtagCONNECTDATA@@PAK@Z 1000379c f i RemoteOrderDisplay.obj
 0001:00002873       ?Skip@?$CComEnumImpl@UIEnumConnections@@$1?_GUID_b196b287_bab4_101a_b69c_00aa00341d07@@3U__s_GUID@@BUtagCONNECTDATA@@V?$_Copy@UtagCONNECTDATA@@@ATL@@@ATL@@UAGJK@Z 10003873 f i RemoteOrderDisplay.obj
 0001:000028a0       ?Clone@?$CComEnumImpl@UIEnumConnections@@$1?_GUID_b196b287_bab4_101a_b69c_00aa00341d07@@3U__s_GUID@@BUtagCONNECTDATA@@V?$_Copy@UtagCONNECTDATA@@@ATL@@@ATL@@UAGJPAPAUIEnumConnections@@@Z 100038a0 f i RemoteOrderDisplay.obj
 0001:00002981       ?QueryInterface@?$CComObject@V?$CComEnum@UIEnumConnections@@$1?_GUID_b196b287_bab4_101a_b69c_00aa00341d07@@3U__s_GUID@@BUtagCONNECTDATA@@V?$_Copy@UtagCONNECTDATA@@@ATL@@VCComSingleThreadModel@6@@ATL@@@ATL@@UAGJABU_GUID@@PAPAX@Z 10003981 f i RemoteOrderDisplay.obj
 0001:0000299b       ??_G?$CComObject@V?$CComEnum@UIEnumConnections@@$1?_GUID_b196b287_bab4_101a_b69c_00aa00341d07@@3U__s_GUID@@BUtagCONNECTDATA@@V?$_Copy@UtagCONNECTDATA@@@ATL@@VCComSingleThreadModel@6@@ATL@@@ATL@@UAEPAXI@Z 1000399b f i RemoteOrderDisplay.obj
 0001:0000299b       ??_E?$CComObject@V?$CComEnum@UIEnumConnections@@$1?_GUID_b196b287_bab4_101a_b69c_00aa00341d07@@3U__s_GUID@@BUtagCONNECTDATA@@V?$_Copy@UtagCONNECTDATA@@@ATL@@VCComSingleThreadModel@6@@ATL@@@ATL@@UAEPAXI@Z 1000399b f i RemoteOrderDisplay.obj
 0001:000029bd       ??$?4UITypeInfo2@@@?$CComPtr@UITypeInfo@@@ATL@@QAEPAUITypeInfo@@ABV?$CComPtr@UITypeInfo2@@@1@@Z 100039bd f i RemoteOrderDisplay.obj
 0001:000029ea       ??$AtlAdd@K@ATL@@YAJPAKKK@Z 100039ea f i RemoteOrderDisplay.obj
 0001:00002a0d       ??$AtlAdd@_K@ATL@@YAJPA_K_K1@Z 10003a0d f i RemoteOrderDisplay.obj
 0001:00002a45       ??$AtlAddThrow@K@ATL@@YAKKK@Z 10003a45 f i RemoteOrderDisplay.obj
 0001:00002a6b       ??$AtlModuleRegisterWndClassInfoT@VAtlModuleRegisterWndClassInfoParamW@ATL@@@ATL@@YAGPAU_ATL_BASE_MODULE70@0@PAU_ATL_WIN_MODULE70@0@PAU_ATL_WNDCLASSINFOW@0@PAP6GJPAUHWND__@@IIJ@ZVAtlModuleRegisterWndClassInfoParamW@0@@Z 10003a6b f i RemoteOrderDisplay.obj
 0001:00002bb9       ??$AtlMultiply@H@ATL@@YAJPAHHH@Z 10003bb9 f i RemoteOrderDisplay.obj
 0001:00002bf1       ??$AtlMultiply@K@ATL@@YAJPAKKK@Z 10003bf1 f i RemoteOrderDisplay.obj
 0001:00002bf1       ??$AtlMultiply@I@ATL@@YAJPAIII@Z 10003bf1 f i RemoteOrderDisplay.obj
 0001:00002c13       ??$AtlMultiplyThrow@I@ATL@@YAIII@Z 10003c13 f i RemoteOrderDisplay.obj
 0001:00002c39       ??0?$CComAggObject@VCOPOSRemoteOrderDisplay@@@ATL@@QAE@PAX@Z 10003c39 f i RemoteOrderDisplay.obj
 0001:00002c66       ??0?$CComContainedObject@VCOPOSRemoteOrderDisplay@@@ATL@@QAE@PAX@Z 10003c66 f i RemoteOrderDisplay.obj
 0001:00002d1f       ??0?$CComObject@V?$CComEnum@UIEnumConnectionPoints@@$1?_GUID_b196b285_bab4_101a_b69c_00aa00341d07@@3U__s_GUID@@BPAUIConnectionPoint@@V?$_CopyInterface@UIConnectionPoint@@@ATL@@VCComSingleThreadModel@6@@ATL@@@ATL@@QAE@PAX@Z 10003d1f f i RemoteOrderDisplay.obj
 0001:00002d4d       ??0?$CComObject@V?$CComEnum@UIEnumConnections@@$1?_GUID_b196b287_bab4_101a_b69c_00aa00341d07@@3U__s_GUID@@BUtagCONNECTDATA@@V?$_Copy@UtagCONNECTDATA@@@ATL@@VCComSingleThreadModel@6@@ATL@@@ATL@@QAE@PAX@Z 10003d4d f i RemoteOrderDisplay.obj
 0001:00002d7b       ??0?$CComObject@VCOPOSRemoteOrderDisplay@@@ATL@@QAE@PAX@Z 10003d7b f i RemoteOrderDisplay.obj
 0001:00002e32       ??0?$CComQIPtr@UIOleControlSite@@$1?_GUID_b196b289_bab4_101a_b69c_00aa00341d07@@3U__s_GUID@@B@ATL@@QAE@PAUIUnknown@@@Z 10003e32 f i RemoteOrderDisplay.obj
 0001:00002e5b       ??0CAtlModule@ATL@@QAE@XZ  10003e5b f i RemoteOrderDisplay.obj
 0001:00002e9c       ??0CParseBuffer@CRegParser@ATL@@QAE@H@Z 10003e9c f i RemoteOrderDisplay.obj
 0001:00002ed2       ??0_ATL_MSG@ATL@@QAE@PAUHWND__@@IIJH@Z 10003ed2 f i RemoteOrderDisplay.obj
 0001:00002f0a       ??1?$CComAggObject@VCOPOSRemoteOrderDisplay@@@ATL@@UAE@XZ 10003f0a f i RemoteOrderDisplay.obj
 0001:00002f2e       ??1?$CComEnumImpl@UIEnumConnectionPoints@@$1?_GUID_b196b285_bab4_101a_b69c_00aa00341d07@@3U__s_GUID@@BPAUIConnectionPoint@@V?$_CopyInterface@UIConnectionPoint@@@ATL@@@ATL@@UAE@XZ 10003f2e f i RemoteOrderDisplay.obj
 0001:00002f6e       ??1?$CComEnumImpl@UIEnumConnections@@$1?_GUID_b196b287_bab4_101a_b69c_00aa00341d07@@3U__s_GUID@@BUtagCONNECTDATA@@V?$_Copy@UtagCONNECTDATA@@@ATL@@@ATL@@UAE@XZ 10003f6e f i RemoteOrderDisplay.obj
 0001:00002fae       ??1?$CComObject@V?$CComEnum@UIEnumConnectionPoints@@$1?_GUID_b196b285_bab4_101a_b69c_00aa00341d07@@3U__s_GUID@@BPAUIConnectionPoint@@V?$_CopyInterface@UIConnectionPoint@@@ATL@@VCComSingleThreadModel@6@@ATL@@@ATL@@UAE@XZ 10003fae f i RemoteOrderDisplay.obj
 0001:00002fd1       ??1?$CComObject@V?$CComEnum@UIEnumConnections@@$1?_GUID_b196b287_bab4_101a_b69c_00aa00341d07@@3U__s_GUID@@BUtagCONNECTDATA@@V?$_Copy@UtagCONNECTDATA@@@ATL@@VCComSingleThreadModel@6@@ATL@@@ATL@@UAE@XZ 10003fd1 f i RemoteOrderDisplay.obj
 0001:00002ff4       ??1?$CComObject@VCOPOSRemoteOrderDisplay@@@ATL@@UAE@XZ 10003ff4 f i RemoteOrderDisplay.obj
 0001:000030b2       ??1?$CComObjectCached@VCComClassFactory@ATL@@@ATL@@UAE@XZ 100040b2 f i RemoteOrderDisplay.obj
 0001:000030c8       ??1?$CComObjectRootEx@VCComMultiThreadModel@ATL@@@ATL@@QAE@XZ 100040c8 f i RemoteOrderDisplay.obj
 0001:000030dd       ??1CRegObject@ATL@@UAE@XZ  100040dd f i RemoteOrderDisplay.obj
 0001:000030fd       ??4?$CComPtr@UIUnknown@@@ATL@@QAEPAUIUnknown@@PAU2@@Z 100040fd f i RemoteOrderDisplay.obj
 0001:000030fd       ??4?$CComPtr@UIAdviseSink@@@ATL@@QAEPAUIAdviseSink@@PAU2@@Z 100040fd f i RemoteOrderDisplay.obj
 0001:000030fd       ??4?$CComPtr@UIOleClientSite@@@ATL@@QAEPAUIOleClientSite@@PAU2@@Z 100040fd f i RemoteOrderDisplay.obj
 0001:00003131       ??_E?$CComContainedObject@VCOPOSRemoteOrderDisplay@@@ATL@@UAEPAXI@Z 10004131 f i RemoteOrderDisplay.obj
 0001:00003131       ??_G?$CComContainedObject@VCOPOSRemoteOrderDisplay@@@ATL@@UAEPAXI@Z 10004131 f i RemoteOrderDisplay.obj
 0001:00003156       ??_G?$CComObject@VCOPOSRemoteOrderDisplay@@@ATL@@UAEPAXI@Z 10004156 f i RemoteOrderDisplay.obj
 0001:00003156       ??_E?$CComObject@VCOPOSRemoteOrderDisplay@@@ATL@@UAEPAXI@Z 10004156 f i RemoteOrderDisplay.obj
 0001:0000317b       ?Add@?$CSimpleArray@GV?$CSimpleArrayEqualHelper@G@ATL@@@ATL@@QAEHABG@Z 1000417b f i RemoteOrderDisplay.obj
 0001:000031ff       ?Add@?$CSimpleMap@PA_WPA_WVCExpansionVectorEqualHelper@ATL@@@ATL@@QAEHABQA_W0@Z 100041ff f i RemoteOrderDisplay.obj
 0001:00003254       ?Add@CComDynamicUnkArray@ATL@@QAEKPAUIUnknown@@@Z 10004254 f i RemoteOrderDisplay.obj
 0001:0000330a       ?Add@CExpansionVector@ATL@@QAEHPB_W0@Z 1000430a f i RemoteOrderDisplay.obj
 0001:00003413       ?AddString@CParseBuffer@CRegParser@ATL@@QAEHPB_W@Z 10004413 f i RemoteOrderDisplay.obj
 0001:00003448       ?AddTermFunc@CAtlModule@ATL@@QAEJP6GXK@ZK@Z 10004448 f i RemoteOrderDisplay.obj
 0001:000034ab       ?AddValue@CRegParser@ATL@@IAEJAAVCRegKey@2@PB_WPA_W@Z 100044ab f i RemoteOrderDisplay.obj
 0001:000037c5       ?Allocate@?$CAtlSafeAllocBufferManager@VCCRTAllocator@ATL@@@_ATL_SAFE_ALLOCA_IMPL@ATL@@QAEPAXK@Z 100047c5 f i RemoteOrderDisplay.obj
 0001:000037f2       ?Allocate@?$CTempBuffer@E$0BAA@VCCRTAllocator@ATL@@@ATL@@QAEPAEI@Z 100047f2 f i RemoteOrderDisplay.obj
 0001:00003821       ?Allocate@?$CTempBuffer@_W$0BAA@VCCRTAllocator@ATL@@@ATL@@QAEPA_WI@Z 10004821 f i RemoteOrderDisplay.obj
 0001:00003850       ?Allocate@?$CTempBuffer@_W$0EAA@VCCRTAllocator@ATL@@@ATL@@QAEPA_WI@Z 10004850 f i RemoteOrderDisplay.obj
 0001:0000387f       ?AllocateHeap@?$CTempBuffer@_W$0BAA@VCCRTAllocator@ATL@@@ATL@@AAEXI@Z 1000487f f i RemoteOrderDisplay.obj
 0001:0000387f       ?AllocateHeap@?$CTempBuffer@E$0BAA@VCCRTAllocator@ATL@@@ATL@@AAEXI@Z 1000487f f i RemoteOrderDisplay.obj
 0001:0000387f       ?AllocateHeap@?$CTempBuffer@_W$0EAA@VCCRTAllocator@ATL@@@ATL@@AAEXI@Z 1000487f f i RemoteOrderDisplay.obj
 0001:000038a4       ?Append@CParseBuffer@CRegParser@ATL@@QAEHPB_WH@Z 100048a4 f i RemoteOrderDisplay.obj
 0001:00003932       ?AtlCoTaskMemCAlloc@ATL@@YAPAXKK@Z 10004932 f i RemoteOrderDisplay.obj
 0001:0000395f       ?AtlCoTaskMemRecalloc@ATL@@YAPAXPAXKK@Z 1000495f f i RemoteOrderDisplay.obj
 0001:0000398f       ?AtlComModuleGetClassObject@ATL@@YGJPAU_ATL_COM_MODULE70@1@ABU_GUID@@1PAPAX@Z 1000498f f i RemoteOrderDisplay.obj
 0001:00003a82       ?AtlComModuleRegisterServer@ATL@@YGJPAU_ATL_COM_MODULE70@1@HPBU_GUID@@@Z 10004a82 f i RemoteOrderDisplay.obj
 0001:00003b0a       ?AtlComModuleUnregisterServer@ATL@@YGJPAU_ATL_COM_MODULE70@1@HPBU_GUID@@@Z 10004b0a f i RemoteOrderDisplay.obj
 0001:00003b92       ?AtlComQIPtrAssign2@ATL@@YAXPAPAUIUnknown@@PAU2@ABU_GUID@@@Z 10004b92 f i RemoteOrderDisplay.obj
 0001:00003bc1       ?AtlCreateTargetDC@ATL@@YGPAUHDC__@@PAU2@PAUtagDVTARGETDEVICE@@@Z 10004bc1 f i RemoteOrderDisplay.obj
 0001:00003c2a       ?AtlCrtErrorCheck@ATL@@YAHH@Z 10004c2a f i RemoteOrderDisplay.obj
 0001:00003c65       ?AtlHiMetricToPixel@ATL@@YGXPBUtagSIZE@@PAU2@@Z 10004c65 f i RemoteOrderDisplay.obj
 0001:00003cda       ?AtlHresultFromLastError@ATL@@YAJXZ 10004cda f i RemoteOrderDisplay.obj
 0001:00003cf1       ?AtlHresultFromWin32@ATL@@YAJK@Z 10004cf1 f i RemoteOrderDisplay.obj
 0001:00003d06       ?AtlInternalOleLoadFromStream@ATL@@YAJPAUIStream@@ABU_GUID@@PAPAXTClassesAllowedInStream@1@K@Z 10004d06 f i RemoteOrderDisplay.obj
 0001:00003e24       ?AtlInternalQueryInterface@ATL@@YGJPAXPBU_ATL_INTMAP_ENTRY@1@ABU_GUID@@PAPAX@Z 10004e24 f i RemoteOrderDisplay.obj
 0001:00003ec7       ?AtlLoadTypeLib@ATL@@YGJPAUHINSTANCE__@@PB_WPAPA_WPAPAUITypeLib@@@Z 10004ec7 f i RemoteOrderDisplay.obj
 0001:000040a5       ?AtlRegisterClassCategoriesHelper@ATL@@YGJABU_GUID@@PBU_ATL_CATMAP_ENTRY@1@H@Z 100050a5 f i RemoteOrderDisplay.obj
 0001:000043a1       ?AtlRegisterTypeLib@ATL@@YGJPAUHINSTANCE__@@PB_W@Z 100053a1 f i RemoteOrderDisplay.obj
 0001:00004529       ?AtlThrowImpl@ATL@@YGXJ@Z  10005529 f i RemoteOrderDisplay.obj
 0001:00004547       ?AtlUnRegisterTypeLib@ATL@@YGJPAUHINSTANCE__@@PB_W@Z 10005547 f i RemoteOrderDisplay.obj
 0001:000045f2       ?AtlWinModuleAddCreateWndData@ATL@@YGXPAU_ATL_WIN_MODULE70@1@PAU_AtlCreateWndData@1@PAX@Z 100055f2 f i RemoteOrderDisplay.obj
 0001:00004646       ?AtlWinModuleExtractCreateWndData@ATL@@YGPAXPAU_ATL_WIN_MODULE70@1@@Z 10005646 f i RemoteOrderDisplay.obj
 0001:000046a9       ?AtlWinModuleRegisterClassExW@ATL@@YGGPAU_ATL_WIN_MODULE70@1@PBUtagWNDCLASSEXW@@@Z 100056a9 f i RemoteOrderDisplay.obj
 0001:000046e8       ?CanForceRemoveKey@CRegParser@ATL@@IAEHPB_W@Z 100056e8 f i RemoteOrderDisplay.obj
 0001:00004717       ?ChToByte@CRegParser@ATL@@KAE_W@Z 10005717 f i RemoteOrderDisplay.obj
 0001:0000474a       ?Cleanup@CComTypeInfoHolder@ATL@@SGXK@Z 1000574a f i RemoteOrderDisplay.obj
 0001:0000477d       ?ClearReplacements@CExpansionVector@ATL@@QAEJXZ 1000577d f i RemoteOrderDisplay.obj
 0001:000047ba       ?Close@CRegKey@ATL@@QAEJXZ 100057ba f i RemoteOrderDisplay.obj
 0001:000047d4       ?CreateInstance@?$CComCreator@V?$CComAggObject@VCOPOSRemoteOrderDisplay@@@ATL@@@ATL@@SGJPAXABU_GUID@@PAPAX@Z 100057d4 f i RemoteOrderDisplay.obj
 0001:00004849       ?CreateInstance@?$CComCreator@V?$CComObject@VCOPOSRemoteOrderDisplay@@@ATL@@@ATL@@SGJPAXABU_GUID@@PAPAX@Z 10005849 f i RemoteOrderDisplay.obj
 0001:000048c9       ?CreateInstance@?$CComObject@V?$CComEnum@UIEnumConnectionPoints@@$1?_GUID_b196b285_bab4_101a_b69c_00aa00341d07@@3U__s_GUID@@BPAUIConnectionPoint@@V?$_CopyInterface@UIConnectionPoint@@@ATL@@VCComSingleThreadModel@6@@ATL@@@ATL@@SGJPAPAV12@@Z 100058c9 f i RemoteOrderDisplay.obj
 0001:00004913       ?CreateInstance@?$CComObject@V?$CComEnum@UIEnumConnections@@$1?_GUID_b196b287_bab4_101a_b69c_00aa00341d07@@3U__s_GUID@@BUtagCONNECTDATA@@V?$_Copy@UtagCONNECTDATA@@@ATL@@VCComSingleThreadModel@6@@ATL@@@ATL@@SGJPAPAV12@@Z 10005913 f i RemoteOrderDisplay.obj
 0001:0000495d       ?DefaultReflectionHandler@?$CWindowImplRoot@VCWindow@ATL@@@ATL@@SAHPAUHWND__@@IIJAAJ@Z 1000595d f i RemoteOrderDisplay.obj
 0001:000049d0       ?DeleteSubKey@CRegKey@ATL@@QAEJPB_W@Z 100059d0 f i RemoteOrderDisplay.obj
 0001:00004a49       ?DoEvent@COPOSRemoteOrderDisplay@@IAEXIIJ@Z 10005a49 f i RemoteOrderDisplay.obj
 0001:00004ac9       ?DoVerbHide@?$IOleObjectImpl@VCOPOSRemoteOrderDisplay@@@ATL@@QAEJPBUtagRECT@@PAUHWND__@@@Z 10005ac9 f i RemoteOrderDisplay.obj
 0001:00004aff       ?DoVerbInPlaceActivate@?$IOleObjectImpl@VCOPOSRemoteOrderDisplay@@@ATL@@QAEJPBUtagRECT@@PAUHWND__@@@Z 10005aff f i RemoteOrderDisplay.obj
 0001:00004b32       ?DoVerbPrimary@?$IOleObjectImpl@VCOPOSRemoteOrderDisplay@@@ATL@@QAEJPBUtagRECT@@PAUHWND__@@@Z 10005b32 f i RemoteOrderDisplay.obj
 0001:00004bbe       ?DoVerbProperties@CComControlBase@ATL@@QAEJPBUtagRECT@@PAUHWND__@@@Z 10005bbe f i RemoteOrderDisplay.obj
 0001:00004d3d       ?DoVerbUIActivate@?$IOleObjectImpl@VCOPOSRemoteOrderDisplay@@@ATL@@QAEJPBUtagRECT@@PAUHWND__@@@Z 10005d3d f i RemoteOrderDisplay.obj
 0001:00004d7a       ?DoesVerbActivate@CComControlBase@ATL@@QAEHJ@Z 10005d7a f i RemoteOrderDisplay.obj
 0001:00004d9b       ?DoesVerbUIActivate@CComControlBase@ATL@@QAEHJ@Z 10005d9b f i RemoteOrderDisplay.obj
 0001:00004dd0       ?EndOfVar@CRegParser@ATL@@IAEHXZ 10005dd0 f i RemoteOrderDisplay.obj
 0001:00004df0       ?EscapeSingleQuote@CAtlModule@ATL@@SAXPA_WIPB_W@Z 10005df0 f i RemoteOrderDisplay.obj
 0001:00004e3f       ?FindKey@?$CSimpleMap@PA_WPA_WVCExpansionVectorEqualHelper@ATL@@@ATL@@QBEHABQA_W@Z 10005e3f f i RemoteOrderDisplay.obj
 0001:00004e76       ?FireTheEvent@?$CProxy_IOPOSEvents@VCOPOSRemoteOrderDisplay@@@@IAEXPAVOposVariant@@IAAJPB_WJ@Z 10005e76 f i RemoteOrderDisplay.obj
 0001:00004f08       ?FireViewChange@CComControlBase@ATL@@QAEJXZ 10005f08 f i RemoteOrderDisplay.obj
 0001:00004f51       ?Fire_DataEvent@?$CProxy_IOPOSEvents@VCOPOSRemoteOrderDisplay@@@@QAEXJ@Z 10005f51 f i RemoteOrderDisplay.obj
 0001:00004fe7       ?Fire_DirectIOEvent@?$CProxy_IOPOSEvents@VCOPOSRemoteOrderDisplay@@@@QAEXJPAJPAPA_W@Z 10005fe7 f i RemoteOrderDisplay.obj
 0001:000050d3       ?Fire_ErrorEvent@?$CProxy_IOPOSEvents@VCOPOSRemoteOrderDisplay@@@@QAEXJJJPAJ@Z 100060d3 f i RemoteOrderDisplay.obj
 0001:000051c4       ?Fire_OutputCompleteEvent@?$CProxy_IOPOSEvents@VCOPOSRemoteOrderDisplay@@@@QAEXJ@Z 100061c4 f i RemoteOrderDisplay.obj
 0001:0000525a       ?Fire_StatusUpdateEvent@?$CProxy_IOPOSEvents@VCOPOSRemoteOrderDisplay@@@@QAEXJ@Z 1000625a f i RemoteOrderDisplay.obj
 0001:000052f0       ?FreeHeap@?$CTempBuffer@E$0BAA@VCCRTAllocator@ATL@@@ATL@@AAEXXZ 100062f0 f i RemoteOrderDisplay.obj
 0001:000052f0       ?FreeHeap@?$CTempBuffer@_W$0EAA@VCCRTAllocator@ATL@@@ATL@@AAEXXZ 100062f0 f i RemoteOrderDisplay.obj
 0001:000052f0       ?FreeHeap@?$CTempBuffer@_W$0BAA@VCCRTAllocator@ATL@@@ATL@@AAEXXZ 100062f0 f i RemoteOrderDisplay.obj
 0001:000052f9       ?GetAmbientLocaleID@CComControlBase@ATL@@QAEJAAK@Z 100062f9 f i RemoteOrderDisplay.obj
 0001:00005355       ?GetAmbientUserMode@CComControlBase@ATL@@QAEJAAH@Z 10006355 f i RemoteOrderDisplay.obj
 0001:000053c5       ?GetAt@CComDynamicUnkArray@ATL@@QAEPAUIUnknown@@H@Z 100063c5 f i RemoteOrderDisplay.obj
 0001:000053e1       ?GetClassObject@CComModule@ATL@@QAEJABU_GUID@@0PAPAX@Z 100063e1 f i RemoteOrderDisplay.obj
 0001:00005483       ?GetConnMap@COPOSRemoteOrderDisplay@@SAPBU_ATL_CONNMAP_ENTRY@ATL@@PAH@Z 10006483 f i RemoteOrderDisplay.obj
 0001:000054f3       ?GetCookie@CComDynamicUnkArray@ATL@@QAGKPAPAUIUnknown@@@Z 100064f3 f i RemoteOrderDisplay.obj
 0001:0000552b       ?GetIDsOfNames@CComTypeInfoHolder@ATL@@QAEJABU_GUID@@PAPA_WIKPAJ@Z 1000652b f i RemoteOrderDisplay.obj
 0001:00005652       ?GetKeyAt@?$CSimpleMap@PA_WPA_WVCExpansionVectorEqualHelper@ATL@@@ATL@@QBEAAPA_WH@Z 10006652 f i RemoteOrderDisplay.obj
 0001:00005677       ?GetPagesHelper@?$ISpecifyPropertyPagesImpl@VCOPOSRemoteOrderDisplay@@@ATL@@IAEJPAUtagCAUUID@@PBUATL_PROPMAP_ENTRY@2@@Z 10006677 f i RemoteOrderDisplay.obj
 0001:0000579e       ?GetProperty@?$CComPtr@UIDispatch@@@ATL@@SAJPAUIDispatch@@JPAUtagVARIANT@@@Z 1000679e f i RemoteOrderDisplay.obj
 0001:000057ed       ?GetSizeMax@CComVariant@ATL@@QBEJPAT_ULARGE_INTEGER@@@Z 100067ed f i RemoteOrderDisplay.obj
 0001:000059af       ?GetTI@CComTypeInfoHolder@ATL@@QAEJK@Z 100069af f i RemoteOrderDisplay.obj
 0001:00005b8e       ?GetTI@CComTypeInfoHolder@ATL@@QAEJKPAPAUITypeInfo@@@Z 10006b8e f i RemoteOrderDisplay.obj
 0001:00005bd0       ?GetUnknown@CComDynamicUnkArray@ATL@@QAGPAUIUnknown@@K@Z 10006bd0 f i RemoteOrderDisplay.obj
 0001:00005bf1       ?GetValueAt@?$CSimpleMap@PA_WPA_WVCExpansionVectorEqualHelper@ATL@@@ATL@@QBEAAPA_WH@Z 10006bf1 f i RemoteOrderDisplay.obj
 0001:00005c17       ?GetZoomInfo@CComControlBase@ATL@@QAEXAAUATL_DRAWINFO@@@Z 10006c17 f i RemoteOrderDisplay.obj
 0001:00005caa       ?HKeyFromString@CRegParser@ATL@@KAPAUHKEY__@@PA_W@Z 10006caa f i RemoteOrderDisplay.obj
 0001:00005cd8       ?HasSubKeys@CRegParser@ATL@@IAEHPAUHKEY__@@@Z 10006cd8 f i RemoteOrderDisplay.obj
 0001:00005d0d       ?IDataObject_GetData@CComControlBase@ATL@@QAEJPAUtagFORMATETC@@PAUtagSTGMEDIUM@@@Z 10006d0d f i RemoteOrderDisplay.obj
 0001:00005eb3       ?IOleInPlaceObject_InPlaceDeactivate@CComControlBase@ATL@@QAEJXZ 10006eb3 f i RemoteOrderDisplay.obj
 0001:00005f3a       ?IOleInPlaceObject_SetObjectRects@CComControlBase@ATL@@QAEJPBUtagRECT@@0@Z 10006f3a f i RemoteOrderDisplay.obj
 0001:00006007       ?IOleInPlaceObject_UIDeactivate@CComControlBase@ATL@@QAEJXZ 10007007 f i RemoteOrderDisplay.obj
 0001:000060c9       ?IOleObject_Advise@CComControlBase@ATL@@QAEJPAUIAdviseSink@@PAK@Z 100070c9 f i RemoteOrderDisplay.obj
 0001:000060f3       ?IOleObject_Close@CComControlBase@ATL@@QAEJK@Z 100070f3 f i RemoteOrderDisplay.obj
 0001:000061d7       ?IOleObject_GetClientSite@CComControlBase@ATL@@QAEJPAPAUIOleClientSite@@@Z 100071d7 f i RemoteOrderDisplay.obj
 0001:00006200       ?IOleObject_SetClientSite@CComControlBase@ATL@@QAEJPAUIOleClientSite@@@Z 10007200 f i RemoteOrderDisplay.obj
 0001:0000623f       ?IOleObject_SetExtent@CComControlBase@ATL@@QAEJKPAUtagSIZE@@@Z 1000723f f i RemoteOrderDisplay.obj
 0001:000062f1       ?IPSI_GetIPersistStreamInit@?$IPersistStorageImpl@VCOPOSRemoteOrderDisplay@@@ATL@@AAEPAUIPersistStreamInit@@XZ 100072f1 f i RemoteOrderDisplay.obj
 0001:00006399       ?IPersistStreamInit_Load@?$IPersistStreamInitImpl@VCOPOSRemoteOrderDisplay@@@ATL@@QAEJPAUIStream@@PBUATL_PROPMAP_ENTRY@2@@Z 10007399 f i RemoteOrderDisplay.obj
 0001:0000660e       ?IPersistStreamInit_Save@?$IPersistStreamInitImpl@VCOPOSRemoteOrderDisplay@@@ATL@@QAEJPAUIStream@@HPBUATL_PROPMAP_ENTRY@2@@Z 1000760e f i RemoteOrderDisplay.obj
 0001:000067fc       ?IQuickActivate_QuickActivate@CComControlBase@ATL@@QAEJPAUtagQACONTAINER@@PAUtagQACONTROL@@@Z 100077fc f i RemoteOrderDisplay.obj
 0001:00006a3e       ?IViewObject_Draw@CComControlBase@ATL@@QAEJKJPAXPAUtagDVTARGETDEVICE@@PAUHDC__@@2PBU_RECTL@@3@Z 10007a3e f i RemoteOrderDisplay.obj
 0001:00006ae6       ?InPlaceActivate@CComControlBase@ATL@@QAEJJPBUtagRECT@@@Z 10007ae6 f i RemoteOrderDisplay.obj
 0001:00006d57       ?Init@?$CComEnumImpl@UIEnumConnectionPoints@@$1?_GUID_b196b285_bab4_101a_b69c_00aa00341d07@@3U__s_GUID@@BPAUIConnectionPoint@@V?$_CopyInterface@UIConnectionPoint@@@ATL@@@ATL@@QAEJPAPAUIConnectionPoint@@0PAUIUnknown@@W4CComEnumFlags@2@@Z 10007d57 f i RemoteOrderDisplay.obj
 0001:00006e36       ?Init@?$CComEnumImpl@UIEnumConnections@@$1?_GUID_b196b287_bab4_101a_b69c_00aa00341d07@@3U__s_GUID@@BUtagCONNECTDATA@@V?$_Copy@UtagCONNECTDATA@@@ATL@@@ATL@@QAEJPAUtagCONNECTDATA@@0PAUIUnknown@@W4CComEnumFlags@2@@Z 10007e36 f i RemoteOrderDisplay.obj
 0001:00006f15       ?Init@CComModule@ATL@@QAEJPAU_ATL_OBJMAP_ENTRY30@2@PAUHINSTANCE__@@PBU_GUID@@@Z 10007f15 f i RemoteOrderDisplay.obj
 0001:00006f74       ?Init@CDynamicStdCallThunk2@ATL@@QAEHKPAX@Z 10007f74 f i RemoteOrderDisplay.obj
 0001:00006f9f       ?InlineIsEqualUnknown@ATL@@YGHABU_GUID@@@Z 10007f9f f i RemoteOrderDisplay.obj
 0001:00006fc7       ?InternalSetAtIndex@?$CSimpleMap@PA_WPA_WVCExpansionVectorEqualHelper@ATL@@@ATL@@QAEXHABQA_W0@Z 10007fc7 f i RemoteOrderDisplay.obj
 0001:00006ff1       ?Invoke@CComTypeInfoHolder@ATL@@QAEJPAUIDispatch@@JABU_GUID@@KGPAUtagDISPPARAMS@@PAUtagVARIANT@@PAUtagEXCEPINFO@@PAI@Z 10007ff1 f i RemoteOrderDisplay.obj
 0001:00007034       ?IsEqualObject@?$CComPtrBase@UIOleClientSite@@@ATL@@QAE_NPAUIUnknown@@@Z 10008034 f i RemoteOrderDisplay.obj
 0001:00007034       ?IsEqualObject@?$CComPtrBase@UITypeInfo@@@ATL@@QAE_NPAUIUnknown@@@Z 10008034 f i RemoteOrderDisplay.obj
 0001:000070a1       ?IsSpace@CRegParser@ATL@@IAEH_W@Z 100080a1 f i RemoteOrderDisplay.obj
 0001:000070cb       ?LoadNameCache@CComTypeInfoHolder@ATL@@QAEJPAUITypeInfo@@@Z 100080cb f i RemoteOrderDisplay.obj
 0001:00007200       ?Lookup@?$CSimpleMap@PA_WPA_WVCExpansionVectorEqualHelper@ATL@@@ATL@@QBEPA_WABQA_W@Z 10008200 f i RemoteOrderDisplay.obj
 0001:00007226       ?NextToken@CRegParser@ATL@@IAEJPA_W@Z 10008226 f i RemoteOrderDisplay.obj
 0001:0000735e       ?OnKillFocus@CComControlBase@ATL@@QAEJIIJAAH@Z 1000835e f i RemoteOrderDisplay.obj
 0001:000073b9       ?OnMouseActivate@CComControlBase@ATL@@QAEJIIJAAH@Z 100083b9 f i RemoteOrderDisplay.obj
 0001:00007427       ?OnPaint@CComControlBase@ATL@@QAEJIIJAAH@Z 10008427 f i RemoteOrderDisplay.obj
 0001:000074d9       ?OnSetFocus@CComControlBase@ATL@@QAEJIIJAAH@Z 100084d9 f i RemoteOrderDisplay.obj
 0001:00007562       ?Open@CRegKey@ATL@@QAEJPAUHKEY__@@PB_WK@Z 10008562 f i RemoteOrderDisplay.obj
 0001:000075b7       ?PreProcessBuffer@CRegParser@ATL@@QAEJPA_WPAPA_W@Z 100085b7 f i RemoteOrderDisplay.obj
 0001:00007826       ?ProcessWindowMessage@?$CComControl@VCOPOSRemoteOrderDisplay@@V?$CWindowImpl@VCOPOSRemoteOrderDisplay@@VCWindow@ATL@@V?$CWinTraits@$0FGAAAAAA@$0A@@3@@ATL@@@ATL@@UAEHPAUHWND__@@IIJAAJK@Z 10008826 f i RemoteOrderDisplay.obj
 0001:000078c5       ?ReadFromStream@CComBSTR@ATL@@QAEJPAUIStream@@@Z 100088c5 f i RemoteOrderDisplay.obj
 0001:000079e8       ?ReadFromStream@CComVariant@ATL@@QAEJPAUIStream@@GTClassesAllowedInStream@2@K@Z 100089e8 f i RemoteOrderDisplay.obj
 0001:00007b72       ?RecurseDeleteKey@CRegKey@ATL@@QAEJPB_W@Z 10008b72 f i RemoteOrderDisplay.obj
 0001:00007c60       ?RegCreateKeyExW@CAtlTransactionManager@ATL@@QAEJPAUHKEY__@@PB_WKPA_WKKQAU_SECURITY_ATTRIBUTES@@PAPAU3@PAK@Z 10008c60 f i RemoteOrderDisplay.obj
 0001:00007cc3       ?RegDeleteKeyW@CAtlTransactionManager@ATL@@QAEJPAUHKEY__@@PB_W@Z 10008cc3 f i RemoteOrderDisplay.obj
 0001:00007d15       ?RegOpenKeyExW@CAtlTransactionManager@ATL@@QAEJPAUHKEY__@@PB_WKKPAPAU3@@Z 10008d15 f i RemoteOrderDisplay.obj
 0001:00007d6c       ?Register@_ATL_WNDCLASSINFOW@ATL@@QAEGPAP6GJPAUHWND__@@IIJ@Z@Z 10008d6c f i RemoteOrderDisplay.obj
 0001:00007d8c       ?RegisterBuffer@CRegParser@ATL@@QAEJPA_WH@Z 10008d8c f i RemoteOrderDisplay.obj
 0001:00007ed3       ?RegisterFromResource@CRegObject@ATL@@IAEJPB_W00H@Z 10008ed3 f i RemoteOrderDisplay.obj
 0001:00008009       ?RegisterServer@?$CAtlModuleT@VCComModule@ATL@@@ATL@@QAEJHPBU_GUID@@@Z 10009009 f i RemoteOrderDisplay.obj
 0001:00008037       ?RegisterServer@CComModule@ATL@@QAEJHPBU_GUID@@@Z 10009037 f i RemoteOrderDisplay.obj
 0001:000080ad       ?RegisterSubkeys@CRegParser@ATL@@IAEJPA_WPAUHKEY__@@HH@Z 100090ad f i RemoteOrderDisplay.obj
 0001:0000875a       ?Remove@CComDynamicUnkArray@ATL@@QAEHK@Z 1000975a f i RemoteOrderDisplay.obj
 0001:00008783       ?RemoveAll@?$CSimpleMap@PA_WPA_WVCExpansionVectorEqualHelper@ATL@@@ATL@@QAEXXZ 10009783 f i RemoteOrderDisplay.obj
 0001:000087af       ?ResourceRegisterSz@CRegObject@ATL@@QAGJPB_W00@Z 100097af f i RemoteOrderDisplay.obj
 0001:000087dc       ?ResourceUnregisterSz@CRegObject@ATL@@QAGJPB_W00@Z 100097dc f i RemoteOrderDisplay.obj
 0001:00008809       ?SendOnDataChange@CComControlBase@ATL@@QAEJK@Z 10009809 f i RemoteOrderDisplay.obj
 0001:00008856       ?SetControlFocus@CComControlBase@ATL@@QAEHH@Z 10009856 f i RemoteOrderDisplay.obj
 0001:000088f3       ?SetMultiStringValue@CRegKey@ATL@@QAEJPB_W0@Z 100098f3 f i RemoteOrderDisplay.obj
 0001:0000894f       ?SetStringValue@CRegKey@ATL@@QAEJPB_W0K@Z 1000994f f i RemoteOrderDisplay.obj
 0001:00008998       ?SkipAssignment@CRegParser@ATL@@IAEJPA_W@Z 10009998 f i RemoteOrderDisplay.obj
 0001:000089fd       ?SkipWhiteSpace@CRegParser@ATL@@IAEXXZ 100099fd f i RemoteOrderDisplay.obj
 0001:00008a1f       ?StrChrW@CRegParser@ATL@@KAPA_WPA_W_W@Z 10009a1f f i RemoteOrderDisplay.obj
 0001:00008a5c       ?Term@CAtlModule@ATL@@QAEXXZ 10009a5c f i RemoteOrderDisplay.obj
 0001:00008aaf       ?Term@CComModule@ATL@@QAEXXZ 10009aaf f i RemoteOrderDisplay.obj
 0001:00008b07       ?UnregisterServer@?$CAtlModuleT@VCComModule@ATL@@@ATL@@QAEJHPBU_GUID@@@Z 10009b07 f i RemoteOrderDisplay.obj
 0001:00008b2d       ?UnregisterServer@CComModule@ATL@@QAEJHPBU_GUID@@@Z 10009b2d f i RemoteOrderDisplay.obj
 0001:00008ba3       ?UpdateRegistryFromResource@CAtlModule@ATL@@QAGJIHPAU_ATL_REGMAP_ENTRY@2@@Z 10009ba3 f i RemoteOrderDisplay.obj
 0001:00008d6e       ?UpdateRegistryFromResource@CAtlModule@ATL@@QAGJPB_WHPAU_ATL_REGMAP_ENTRY@2@@Z 10009d6e f i RemoteOrderDisplay.obj
 0001:00008f3f       ?VTFromRegType@CRegParser@ATL@@KAHPB_WAAG@Z 10009f3f f i RemoteOrderDisplay.obj
 0001:00008fac       ?WindowProc@?$CWindowImplBaseT@VCWindow@ATL@@V?$CWinTraits@$0FGAAAAAA@$0A@@2@@ATL@@SGJPAUHWND__@@IIJ@Z 10009fac f i RemoteOrderDisplay.obj
 0001:0000909e       ?WriteToStream@CComBSTR@ATL@@QAEJPAUIStream@@@Z 1000a09e f i RemoteOrderDisplay.obj
 0001:00009100       ?WriteToStream@CComVariant@ATL@@QAEJPAUIStream@@@Z 1000a100 f i RemoteOrderDisplay.obj
 0001:0000927a       ?WriteToStream@CComVariant@ATL@@QAEJPAUIStream@@G@Z 1000a27a f i RemoteOrderDisplay.obj
 0001:000092e3       ?_AtlInitialConstruct@?$CComObjectRootEx@VCComMultiThreadModel@ATL@@@ATL@@QAEJXZ 1000a2e3 f i RemoteOrderDisplay.obj
 0001:000092f8       ?_AtlVerifyStackAvailable@_ATL_SAFE_ALLOCA_IMPL@ATL@@YA_NK@Z 1000a2f8 f i RemoteOrderDisplay.obj
 0001:00009376       ?atlCreate@?$CWindowImpl@VCOPOSRemoteOrderDisplay@@VCWindow@ATL@@V?$CWinTraits@$0FGAAAAAA@$0A@@3@@ATL@@QAEPAUHWND__@@PAU3@V_U_RECT@2@PB_WKKV_U_MENUorID@2@PAX@Z 1000a376 f i RemoteOrderDisplay.obj
 0001:000093ba       ?atlCreate@?$CWindowImplBaseT@VCWindow@ATL@@V?$CWinTraits@$0FGAAAAAA@$0A@@2@@ATL@@QAEPAUHWND__@@PAU3@V_U_RECT@2@PB_WKKV_U_MENUorID@2@GPAX@Z 1000a3ba f i RemoteOrderDisplay.obj
 0001:00009456       ?copy@?$_Copy@UtagCONNECTDATA@@@ATL@@SAJPAUtagCONNECTDATA@@PBU3@@Z 1000a456 f i RemoteOrderDisplay.obj
 0001:0000948c       ?copy@?$_CopyInterface@UIConnectionPoint@@@ATL@@SAJPAPAUIConnectionPoint@@PBQAU3@@Z 1000a48c f i RemoteOrderDisplay.obj
 0001:000094ba       ?memcpy_s@Checked@ATL@@YAXPAXIPBXI@Z 1000a4ba f i RemoteOrderDisplay.obj
 0001:000094d9       ?ocscpy_s@@YA_NPA_WIPB_W@Z 1000a4d9 f i RemoteOrderDisplay.obj
 0001:00009523       ?wcscpy_s@Checked@ATL@@YAXPA_WIPB_W@Z 1000a523 f i RemoteOrderDisplay.obj
 0001:0000953f       _DllCanUnloadNow@0         1000a53f f   RemoteOrderDisplay.obj
 0001:0000954b       _DllGetClassObject@12      1000a54b f   RemoteOrderDisplay.obj
 0001:00009559       _DllMain@12                1000a559 f   RemoteOrderDisplay.obj
 0001:0000959b       _DllRegisterServer@0       1000a59b f   RemoteOrderDisplay.obj
 0001:000095aa       _DllUnregisterServer@0     1000a5aa f   RemoteOrderDisplay.obj
 0001:000095b9       _InlineIsEqualGUID         1000a5b9 f i RemoteOrderDisplay.obj
 0001:000095e9       ___local_stdio_printf_options 1000a5e9 f i RemoteOrderDisplay.obj
 0001:000095ef       __vswprintf_s_l            1000a5ef f i RemoteOrderDisplay.obj
 0001:0000969c       _swprintf_s                1000a69c f i RemoteOrderDisplay.obj
 0001:000096b8       ??0?$CComControl@VCOPOSRemoteOrderDisplay@@V?$CWindowImpl@VCOPOSRemoteOrderDisplay@@VCWindow@ATL@@V?$CWinTraits@$0FGAAAAAA@$0A@@3@@ATL@@@ATL@@QAE@XZ 1000a6b8 f i RemoteOrderDisplayImpl.obj
 0001:000096df       ??0?$CProxy_IOPOSEvents@VCOPOSRemoteOrderDisplay@@@@QAE@XZ 1000a6df f i RemoteOrderDisplayImpl.obj
 0001:00009702       ??0CComControlBase@ATL@@QAE@AAPAUHWND__@@@Z 1000a702 f i RemoteOrderDisplayImpl.obj
 0001:00009752       ??0COPOSRemoteOrderDisplay@@QAE@XZ 1000a752 f   RemoteOrderDisplayImpl.obj
 0001:00009788       ??1?$CComControl@VCOPOSRemoteOrderDisplay@@V?$CWindowImpl@VCOPOSRemoteOrderDisplay@@VCWindow@ATL@@V?$CWinTraits@$0FGAAAAAA@$0A@@3@@ATL@@@ATL@@UAE@XZ 1000a788 f i RemoteOrderDisplayImpl.obj
 0001:000097a1       ??1?$IConnectionPointImpl@VCOPOSRemoteOrderDisplay@@$1?IID_IPropertyNotifySink@@3U_GUID@@BVCComDynamicUnkArray@ATL@@@ATL@@QAE@XZ 1000a7a1 f i RemoteOrderDisplayImpl.obj
 0001:000097a1       ??1?$IConnectionPointImpl@VCOPOSRemoteOrderDisplay@@$1?DIID__IOPOSRemoteOrderDisplayEvents@@3U_GUID@@BVCComDynamicUnkArray@ATL@@@ATL@@QAE@XZ 1000a7a1 f i RemoteOrderDisplayImpl.obj
 0001:000097de       ??1CComControlBase@ATL@@UAE@XZ 1000a7de f i RemoteOrderDisplayImpl.obj
 0001:00009841       ??1COPOSRemoteOrderDisplay@@UAE@XZ 1000a841 f   RemoteOrderDisplayImpl.obj
 0001:00009889       ?CheckHealth@COPOSRemoteOrderDisplay@@UAGJJPAJ@Z 1000a889 f   RemoteOrderDisplayImpl.obj
 0001:000098d8       ?ClaimDevice@COPOSRemoteOrderDisplay@@UAGJJPAJ@Z 1000a8d8 f   RemoteOrderDisplayImpl.obj
 0001:0000994d       ?ClearInput@COPOSRemoteOrderDisplay@@UAGJPAJ@Z 1000a94d f   RemoteOrderDisplayImpl.obj
 0001:00009968       ?ClearOutput@COPOSRemoteOrderDisplay@@UAGJPAJ@Z 1000a968 f   RemoteOrderDisplayImpl.obj
 0001:00009983       ?ClearVideo@COPOSRemoteOrderDisplay@@UAGJJJPAJ@Z 1000a983 f   RemoteOrderDisplayImpl.obj
 0001:000099f7       ?ClearVideoRegion@COPOSRemoteOrderDisplay@@UAGJJJJJJJPAJ@Z 1000a9f7 f   RemoteOrderDisplayImpl.obj
 0001:00009aba       ?Close@COPOSRemoteOrderDisplay@@UAGJPAJ@Z 1000aaba f   RemoteOrderDisplayImpl.obj
 0001:00009b28       ?CompareFirmwareVersion@COPOSRemoteOrderDisplay@@UAGJPA_WPAJ1@Z 1000ab28 f   RemoteOrderDisplayImpl.obj
 0001:00009ba8       ?ControlClock@COPOSRemoteOrderDisplay@@UAGJJJJJJJJJJJPAJ@Z 1000aba8 f   RemoteOrderDisplayImpl.obj
 0001:00009ca3       ?ControlCursor@COPOSRemoteOrderDisplay@@UAGJJJPAJ@Z 1000aca3 f   RemoteOrderDisplayImpl.obj
 0001:00009d17       ?CopyVideoRegion@COPOSRemoteOrderDisplay@@UAGJJJJJJJJPAJ@Z 1000ad17 f   RemoteOrderDisplayImpl.obj
 0001:00009de8       ?DirectIO@COPOSRemoteOrderDisplay@@UAGJJPAJPAPA_W0@Z 1000ade8 f   RemoteOrderDisplayImpl.obj
 0001:00009e96       ?DisplayData@COPOSRemoteOrderDisplay@@UAGJJJJJPA_WPAJ@Z 1000ae96 f   RemoteOrderDisplayImpl.obj
 0001:00009f59       ?DoInvoke@COPOSRemoteOrderDisplay@@IAEJJPAVOposVariant@@IHPAJ_N@Z 1000af59 f   RemoteOrderDisplayImpl.obj
 0001:0000a035       ?DrawBox@COPOSRemoteOrderDisplay@@UAGJJJJJJJJPAJ@Z 1000b035 f   RemoteOrderDisplayImpl.obj
 0001:0000a106       ?EventClose@COPOSRemoteOrderDisplay@@IAEXXZ 1000b106 f i RemoteOrderDisplayImpl.obj
 0001:0000a139       ?EventInit@COPOSRemoteOrderDisplay@@IAEJXZ 1000b139 f i RemoteOrderDisplayImpl.obj
 0001:0000a205       ?EventUninit@COPOSRemoteOrderDisplay@@IAEXXZ 1000b205 f i RemoteOrderDisplayImpl.obj
 0001:0000a257       ?EventWindowProc@COPOSRemoteOrderDisplay@@IAGJIIJ@Z 1000b257 f i RemoteOrderDisplayImpl.obj
 0001:0000a355       ?FinalConstruct@COPOSRemoteOrderDisplay@@QAEJXZ 1000b355 f   RemoteOrderDisplayImpl.obj
 0001:0000a38e       ?FireEventCleanup@COPOSRemoteOrderDisplay@@IAEXXZ 1000b38e f i RemoteOrderDisplayImpl.obj
 0001:0000a3a4       ?FireEventSetup@COPOSRemoteOrderDisplay@@IAE_NXZ 1000b3a4 f i RemoteOrderDisplayImpl.obj
 0001:0000a3d8       ?FreeVideoRegion@COPOSRemoteOrderDisplay@@UAGJJJPAJ@Z 1000b3d8 f   RemoteOrderDisplayImpl.obj
 0001:0000a44c       ?FreezeEvents@COPOSRemoteOrderDisplay@@MAGJH@Z 1000b44c f   RemoteOrderDisplayImpl.obj
 0001:0000a4ac       ?GetOposProp@COPOSRemoteOrderDisplay@@IAEJJPAFJ@Z 1000b4ac f   RemoteOrderDisplayImpl.obj
 0001:0000a4cf       ?GetOposProp@COPOSRemoteOrderDisplay@@IAEJJPAJJ@Z 1000b4cf f   RemoteOrderDisplayImpl.obj
 0001:0000a59e       ?GetOposProp@COPOSRemoteOrderDisplay@@IAEJJPAPA_WJ@Z 1000b59e f   RemoteOrderDisplayImpl.obj
 0001:0000a67a       ?OnDraw@COPOSRemoteOrderDisplay@@MAEJAAUATL_DRAWINFO@@@Z 1000b67a f   RemoteOrderDisplayImpl.obj
 0001:0000a71a       ?Open@COPOSRemoteOrderDisplay@@UAGJPA_WPAJ@Z 1000b71a f   RemoteOrderDisplayImpl.obj
 0001:0000af60       ?ReleaseDevice@COPOSRemoteOrderDisplay@@UAGJPAJ@Z 1000bf60 f   RemoteOrderDisplayImpl.obj
 0001:0000afaf       ?ResetStatistics@COPOSRemoteOrderDisplay@@UAGJPA_WPAJ@Z 1000bfaf f   RemoteOrderDisplayImpl.obj
 0001:0000b006       ?ResetVideo@COPOSRemoteOrderDisplay@@UAGJJPAJ@Z 1000c006 f   RemoteOrderDisplayImpl.obj
 0001:0000b055       ?RestoreVideoRegion@COPOSRemoteOrderDisplay@@UAGJJJJJPAJ@Z 1000c055 f   RemoteOrderDisplayImpl.obj
 0001:0000b0f6       ?RetrieveStatistics@COPOSRemoteOrderDisplay@@UAGJPAPA_WPAJ@Z 1000c0f6 f   RemoteOrderDisplayImpl.obj
 0001:0000b14d       ?SOProcessID@COPOSRemoteOrderDisplay@@UAGJPAJ@Z 1000c14d f   RemoteOrderDisplayImpl.obj
 0001:0000b161       ?SaveVideoRegion@COPOSRemoteOrderDisplay@@UAGJJJJJJJPAJ@Z 1000c161 f   RemoteOrderDisplayImpl.obj
 0001:0000b224       ?SelectCharacterSet@COPOSRemoteOrderDisplay@@UAGJJJPAJ@Z 1000c224 f   RemoteOrderDisplayImpl.obj
 0001:0000b298       ?SetCOFreezeEvents@COPOSRemoteOrderDisplay@@IAEXF@Z 1000c298 f   RemoteOrderDisplayImpl.obj
 0001:0000b338       ?SetCursor@COPOSRemoteOrderDisplay@@UAGJJJJPAJ@Z 1000c338 f   RemoteOrderDisplayImpl.obj
 0001:0000b3ce       ?SetOposProp@COPOSRemoteOrderDisplay@@IAEJJJJ@Z 1000c3ce f   RemoteOrderDisplayImpl.obj
 0001:0000b4c5       ?TransactionDisplay@COPOSRemoteOrderDisplay@@UAGJJJPAJ@Z 1000c4c5 f   RemoteOrderDisplayImpl.obj
 0001:0000b539       ?UpdateFirmware@COPOSRemoteOrderDisplay@@UAGJPA_WPAJ@Z 1000c539 f   RemoteOrderDisplayImpl.obj
 0001:0000b590       ?UpdateStatistics@COPOSRemoteOrderDisplay@@UAGJPA_WPAJ@Z 1000c590 f   RemoteOrderDisplayImpl.obj
 0001:0000b5e7       ?UpdateVideoRegionAttribute@COPOSRemoteOrderDisplay@@UAGJJJJJJJJPAJ@Z 1000c5e7 f   RemoteOrderDisplayImpl.obj
 0001:0000b6b8       ?VideoSound@COPOSRemoteOrderDisplay@@UAGJJJJJJPAJ@Z 1000c6b8 f   RemoteOrderDisplayImpl.obj
 0001:0000b764       ?get_AsyncMode@COPOSRemoteOrderDisplay@@UAGJPAF@Z 1000c764 f   RemoteOrderDisplayImpl.obj
 0001:0000b77d       ?get_AutoToneDuration@COPOSRemoteOrderDisplay@@UAGJPAJ@Z 1000c77d f   RemoteOrderDisplayImpl.obj
 0001:0000b796       ?get_AutoToneFrequency@COPOSRemoteOrderDisplay@@UAGJPAJ@Z 1000c796 f   RemoteOrderDisplayImpl.obj
 0001:0000b7af       ?get_BinaryConversion@COPOSRemoteOrderDisplay@@UAGJPAJ@Z 1000c7af f   RemoteOrderDisplayImpl.obj
 0001:0000b7c5       ?get_CapCompareFirmwareVersion@COPOSRemoteOrderDisplay@@UAGJPAF@Z 1000c7c5 f   RemoteOrderDisplayImpl.obj
 0001:0000b7de       ?get_CapMapCharacterSet@COPOSRemoteOrderDisplay@@UAGJPAF@Z 1000c7de f   RemoteOrderDisplayImpl.obj
 0001:0000b7f7       ?get_CapPowerReporting@COPOSRemoteOrderDisplay@@UAGJPAJ@Z 1000c7f7 f   RemoteOrderDisplayImpl.obj
 0001:0000b810       ?get_CapSelectCharacterSet@COPOSRemoteOrderDisplay@@UAGJPAF@Z 1000c810 f   RemoteOrderDisplayImpl.obj
 0001:0000b829       ?get_CapStatisticsReporting@COPOSRemoteOrderDisplay@@UAGJPAF@Z 1000c829 f   RemoteOrderDisplayImpl.obj
 0001:0000b842       ?get_CapTone@COPOSRemoteOrderDisplay@@UAGJPAF@Z 1000c842 f   RemoteOrderDisplayImpl.obj
 0001:0000b85b       ?get_CapTouch@COPOSRemoteOrderDisplay@@UAGJPAF@Z 1000c85b f   RemoteOrderDisplayImpl.obj
 0001:0000b874       ?get_CapTransaction@COPOSRemoteOrderDisplay@@UAGJPAF@Z 1000c874 f   RemoteOrderDisplayImpl.obj
 0001:0000b88d       ?get_CapUpdateFirmware@COPOSRemoteOrderDisplay@@UAGJPAF@Z 1000c88d f   RemoteOrderDisplayImpl.obj
 0001:0000b8a6       ?get_CapUpdateStatistics@COPOSRemoteOrderDisplay@@UAGJPAF@Z 1000c8a6 f   RemoteOrderDisplayImpl.obj
 0001:0000b8bf       ?get_CharacterSet@COPOSRemoteOrderDisplay@@UAGJPAJ@Z 1000c8bf f   RemoteOrderDisplayImpl.obj
 0001:0000b8d8       ?get_CharacterSetList@COPOSRemoteOrderDisplay@@UAGJPAPA_W@Z 1000c8d8 f   RemoteOrderDisplayImpl.obj
 0001:0000b8f1       ?get_CheckHealthText@COPOSRemoteOrderDisplay@@UAGJPAPA_W@Z 1000c8f1 f   RemoteOrderDisplayImpl.obj
 0001:0000b90a       ?get_Claimed@COPOSRemoteOrderDisplay@@UAGJPAF@Z 1000c90a f   RemoteOrderDisplayImpl.obj
 0001:0000b920       ?get_Clocks@COPOSRemoteOrderDisplay@@UAGJPAJ@Z 1000c920 f   RemoteOrderDisplayImpl.obj
 0001:0000b939       ?get_ControlObjectDescription@COPOSRemoteOrderDisplay@@UAGJPAPA_W@Z 1000c939 f   RemoteOrderDisplayImpl.obj
 0001:0000b987       ?get_ControlObjectVersion@COPOSRemoteOrderDisplay@@UAGJPAJ@Z 1000c987 f   RemoteOrderDisplayImpl.obj
 0001:0000b99a       ?get_CurrentUnitID@COPOSRemoteOrderDisplay@@UAGJPAJ@Z 1000c99a f   RemoteOrderDisplayImpl.obj
 0001:0000b9b3       ?get_DataCount@COPOSRemoteOrderDisplay@@UAGJPAJ@Z 1000c9b3 f   RemoteOrderDisplayImpl.obj
 0001:0000b9c9       ?get_DataEventEnabled@COPOSRemoteOrderDisplay@@UAGJPAF@Z 1000c9c9 f   RemoteOrderDisplayImpl.obj
 0001:0000b9df       ?get_DeviceDescription@COPOSRemoteOrderDisplay@@UAGJPAPA_W@Z 1000c9df f   RemoteOrderDisplayImpl.obj
 0001:0000b9f8       ?get_DeviceEnabled@COPOSRemoteOrderDisplay@@UAGJPAF@Z 1000c9f8 f   RemoteOrderDisplayImpl.obj
 0001:0000ba0e       ?get_DeviceName@COPOSRemoteOrderDisplay@@UAGJPAPA_W@Z 1000ca0e f   RemoteOrderDisplayImpl.obj
 0001:0000ba27       ?get_ErrorString@COPOSRemoteOrderDisplay@@UAGJPAPA_W@Z 1000ca27 f   RemoteOrderDisplayImpl.obj
 0001:0000ba40       ?get_ErrorUnits@COPOSRemoteOrderDisplay@@UAGJPAJ@Z 1000ca40 f   RemoteOrderDisplayImpl.obj
 0001:0000ba59       ?get_EventString@COPOSRemoteOrderDisplay@@UAGJPAPA_W@Z 1000ca59 f   RemoteOrderDisplayImpl.obj
 0001:0000ba72       ?get_EventType@COPOSRemoteOrderDisplay@@UAGJPAJ@Z 1000ca72 f   RemoteOrderDisplayImpl.obj
 0001:0000ba8b       ?get_EventUnitID@COPOSRemoteOrderDisplay@@UAGJPAJ@Z 1000ca8b f   RemoteOrderDisplayImpl.obj
 0001:0000baa4       ?get_EventUnits@COPOSRemoteOrderDisplay@@UAGJPAJ@Z 1000caa4 f   RemoteOrderDisplayImpl.obj
 0001:0000babd       ?get_FreezeEvents@COPOSRemoteOrderDisplay@@UAGJPAF@Z 1000cabd f   RemoteOrderDisplayImpl.obj
 0001:0000bad3       ?get_MapCharacterSet@COPOSRemoteOrderDisplay@@UAGJPAF@Z 1000cad3 f   RemoteOrderDisplayImpl.obj
 0001:0000baec       ?get_OpenResult@COPOSRemoteOrderDisplay@@UAGJPAJ@Z 1000caec f   RemoteOrderDisplayImpl.obj
 0001:0000bb03       ?get_OutputID@COPOSRemoteOrderDisplay@@UAGJPAJ@Z 1000cb03 f   RemoteOrderDisplayImpl.obj
 0001:0000bb19       ?get_PowerNotify@COPOSRemoteOrderDisplay@@UAGJPAJ@Z 1000cb19 f   RemoteOrderDisplayImpl.obj
 0001:0000bb2f       ?get_PowerState@COPOSRemoteOrderDisplay@@UAGJPAJ@Z 1000cb2f f   RemoteOrderDisplayImpl.obj
 0001:0000bb45       ?get_ResultCode@COPOSRemoteOrderDisplay@@UAGJPAJ@Z 1000cb45 f   RemoteOrderDisplayImpl.obj
 0001:0000bb83       ?get_ResultCodeExtended@COPOSRemoteOrderDisplay@@UAGJPAJ@Z 1000cb83 f   RemoteOrderDisplayImpl.obj
 0001:0000bb99       ?get_ServiceObjectDescription@COPOSRemoteOrderDisplay@@UAGJPAPA_W@Z 1000cb99 f   RemoteOrderDisplayImpl.obj
 0001:0000bbb2       ?get_ServiceObjectVersion@COPOSRemoteOrderDisplay@@UAGJPAJ@Z 1000cbb2 f   RemoteOrderDisplayImpl.obj
 0001:0000bbc8       ?get_State@COPOSRemoteOrderDisplay@@UAGJPAJ@Z 1000cbc8 f   RemoteOrderDisplayImpl.obj
 0001:0000bbf4       ?get_SystemClocks@COPOSRemoteOrderDisplay@@UAGJPAJ@Z 1000cbf4 f   RemoteOrderDisplayImpl.obj
 0001:0000bc0d       ?get_SystemVideoSaveBuffers@COPOSRemoteOrderDisplay@@UAGJPAJ@Z 1000cc0d f   RemoteOrderDisplayImpl.obj
 0001:0000bc26       ?get_Timeout@COPOSRemoteOrderDisplay@@UAGJPAJ@Z 1000cc26 f   RemoteOrderDisplayImpl.obj
 0001:0000bc3f       ?get_UnitsOnline@COPOSRemoteOrderDisplay@@UAGJPAJ@Z 1000cc3f f   RemoteOrderDisplayImpl.obj
 0001:0000bc58       ?get_VideoDataCount@COPOSRemoteOrderDisplay@@UAGJPAJ@Z 1000cc58 f   RemoteOrderDisplayImpl.obj
 0001:0000bc71       ?get_VideoMode@COPOSRemoteOrderDisplay@@UAGJPAJ@Z 1000cc71 f   RemoteOrderDisplayImpl.obj
 0001:0000bc8a       ?get_VideoModesList@COPOSRemoteOrderDisplay@@UAGJPAPA_W@Z 1000cc8a f   RemoteOrderDisplayImpl.obj
 0001:0000bca3       ?get_VideoSaveBuffers@COPOSRemoteOrderDisplay@@UAGJPAJ@Z 1000cca3 f   RemoteOrderDisplayImpl.obj
 0001:0000bcbc       ?put_AsyncMode@COPOSRemoteOrderDisplay@@UAGJF@Z 1000ccbc f   RemoteOrderDisplayImpl.obj
 0001:0000bcdc       ?put_AutoToneDuration@COPOSRemoteOrderDisplay@@UAGJJ@Z 1000ccdc f   RemoteOrderDisplayImpl.obj
 0001:0000bcf5       ?put_AutoToneFrequency@COPOSRemoteOrderDisplay@@UAGJJ@Z 1000ccf5 f   RemoteOrderDisplayImpl.obj
 0001:0000bd0e       ?put_BinaryConversion@COPOSRemoteOrderDisplay@@UAGJJ@Z 1000cd0e f   RemoteOrderDisplayImpl.obj
 0001:0000bd24       ?put_CurrentUnitID@COPOSRemoteOrderDisplay@@UAGJJ@Z 1000cd24 f   RemoteOrderDisplayImpl.obj
 0001:0000bd3d       ?put_DataEventEnabled@COPOSRemoteOrderDisplay@@UAGJF@Z 1000cd3d f   RemoteOrderDisplayImpl.obj
 0001:0000bd5a       ?put_DeviceEnabled@COPOSRemoteOrderDisplay@@UAGJF@Z 1000cd5a f   RemoteOrderDisplayImpl.obj
 0001:0000bd77       ?put_EventType@COPOSRemoteOrderDisplay@@UAGJJ@Z 1000cd77 f   RemoteOrderDisplayImpl.obj
 0001:0000bd90       ?put_FreezeEvents@COPOSRemoteOrderDisplay@@UAGJF@Z 1000cd90 f   RemoteOrderDisplayImpl.obj
 0001:0000bddc       ?put_MapCharacterSet@COPOSRemoteOrderDisplay@@UAGJF@Z 1000cddc f   RemoteOrderDisplayImpl.obj
 0001:0000bdfc       ?put_PowerNotify@COPOSRemoteOrderDisplay@@UAGJJ@Z 1000cdfc f   RemoteOrderDisplayImpl.obj
 0001:0000be12       ?put_Timeout@COPOSRemoteOrderDisplay@@UAGJJ@Z 1000ce12 f   RemoteOrderDisplayImpl.obj
 0001:0000be2b       ?put_VideoMode@COPOSRemoteOrderDisplay@@UAGJJ@Z 1000ce2b f   RemoteOrderDisplayImpl.obj
 0001:0000be44       ?s_EventWindowProc@COPOSRemoteOrderDisplay@@KGJPAUHWND__@@IIJ@Z 1000ce44 f i RemoteOrderDisplayImpl.obj
 0001:0000be96       ??_U@YAPAXI@Z              1000ce96 f   LIBCMT:new_array.obj
 0001:0000be9f       ??3@YAXPAXI@Z              1000ce9f f   LIBCMT:delete_scalar_size.obj
 0001:0000bead       ??_V@YAXPAX@Z              1000cead f   LIBCMT:delete_array.obj
 0001:0000beb2       ??_V@YAXPAXI@Z             1000ceb2 f   LIBCMT:delete_array_size.obj
 0001:0000bf04       ___scrt_acquire_startup_lock 1000cf04 f   LIBCMT:utility.obj
 0001:0000bf36       ___scrt_dllmain_after_initialize_c 1000cf36 f   LIBCMT:utility.obj
 0001:0000bf61       ___scrt_dllmain_before_initialize_c 1000cf61 f   LIBCMT:utility.obj
 0001:0000bf6f       ___scrt_dllmain_crt_thread_attach 1000cf6f f   LIBCMT:utility.obj
 0001:0000bf8e       ___scrt_dllmain_crt_thread_detach 1000cf8e f   LIBCMT:utility.obj
 0001:0000bf9b       ___scrt_dllmain_exception_filter 1000cf9b f   LIBCMT:utility.obj
 0001:0000bfcf       ___scrt_dllmain_uninitialize_c 1000cfcf f   LIBCMT:utility.obj
 0001:0000bff2       ___scrt_dllmain_uninitialize_critical 1000cff2 f   LIBCMT:utility.obj
 0001:0000bfff       ___scrt_initialize_crt     1000cfff f   LIBCMT:utility.obj
 0001:0000c038       ___scrt_initialize_onexit_tables 1000d038 f   LIBCMT:utility.obj
 0001:0000c0bf       ___scrt_is_nonwritable_in_current_image 1000d0bf f   LIBCMT:utility.obj
 0001:0000c153       ___scrt_release_startup_lock 1000d153 f   LIBCMT:utility.obj
 0001:0000c170       ___scrt_uninitialize_crt   1000d170 f   LIBCMT:utility.obj
 0001:0000c198       __onexit                   1000d198 f   LIBCMT:utility.obj
 0001:0000c1c5       _atexit                    1000d1c5 f   LIBCMT:utility.obj
 0001:0000c1da       ??3@YAXPAX@Z               1000d1da f   LIBCMT:delete_scalar.obj
 0001:0000c2a4       __Init_thread_footer       1000d2a4 f   LIBCMT:thread_safe_statics.obj
 0001:0000c2ee       __Init_thread_header       1000d2ee f   LIBCMT:thread_safe_statics.obj
 0001:0000c340       __Init_thread_notify       1000d340 f   LIBCMT:thread_safe_statics.obj
 0001:0000c376       __Init_thread_wait         1000d376 f   LIBCMT:thread_safe_statics.obj
 0001:0000c3c4       ___raise_securityfailure   1000d3c4 f   LIBCMT:gs_report.obj
 0001:0000c3ec       ___report_gsfailure        1000d3ec f   LIBCMT:gs_report.obj
 0001:0000c4e5       ___report_rangecheckfailure 1000d4e5 f   LIBCMT:gs_report.obj
 0001:0000c4f1       ___report_securityfailure  1000d4f1 f   LIBCMT:gs_report.obj
 0001:0000c5bf       ??2@YAPAXIABUnothrow_t@std@@@Z 1000d5bf f   LIBCMT:new_scalar_nothrow.obj
 0001:0000c614       ??_U@YAPAXIABUnothrow_t@std@@@Z 1000d614 f   LIBCMT:new_array_nothrow.obj
 0001:0000c61d       @__security_check_cookie@4 1000d61d f   LIBCMT:secchk.obj
 0001:0000c630       __SEH_prolog4_GS           1000d630 f   LIBCMT:sehprolg4gs.obj
 0001:0000c677       __SEH_epilog4_GS           1000d677 f   LIBCMT:sehprolg4gs.obj
 0001:0000c690       __alloca_probe_16          1000d690 f   LIBCMT:alloca16.obj
 0001:0000c6a6       __alloca_probe_8           1000d6a6     LIBCMT:alloca16.obj
 0001:0000c6c0       __chkstk                   1000d6c0 f   LIBCMT:chkstk.obj
 0001:0000c6c0       __alloca_probe             1000d6c0 f   LIBCMT:chkstk.obj
 0001:0000ca2d       __DllMainCRTStartup@12     1000da2d f   LIBCMT:dll_dllmain.obj
 0001:0000ca50       ??2@YAPAXI@Z               1000da50 f   LIBCMT:new_scalar.obj
 0001:0000ca80       ___isa_available_init      1000da80 f   LIBCMT:cpu_disp.obj
 0001:0000cc50       ___scrt_is_ucrt_dll_in_use 1000dc50 f   LIBCMT:ucrt_detection.obj
 0001:0000cc5c       ___scrt_fastfail           1000dc5c f   LIBCMT:utility_desktop.obj
 0001:0000cd76       __crt_debugger_hook        1000dd76 f   LIBCMT:utility_desktop.obj
 0001:0000cd80       __SEH_prolog4              1000dd80 f   LIBCMT:sehprolg4.obj
 0001:0000cdc4       __SEH_epilog4              1000ddc4 f   LIBCMT:sehprolg4.obj
 0001:0000cdd8       @_guard_check_icall_nop@4  1000ddd8 f i LIBCMT:guard_support.obj
 0001:0000ce28       ___security_init_cookie    1000de28 f   LIBCMT:gs_support.obj
 0001:0000ce73       ?__scrt_initialize_type_info@@YAXXZ 1000de73 f   LIBCMT:tncleanup.obj
 0001:0000ce7f       ?__scrt_uninitialize_type_info@@YAXXZ 1000de7f f   LIBCMT:tncleanup.obj
 0001:0000ce8b       ___local_stdio_scanf_options 1000de8b f i LIBCMT:default_local_stdio_options.obj
 0001:0000ce91       ___scrt_initialize_default_local_stdio_options 1000de91 f   LIBCMT:default_local_stdio_options.obj
 0001:0000ceae       ___scrt_get_dyn_tls_init_callback 1000deae f   LIBCMT:dyn_tls_init.obj
 0001:0000ceb4       __RTC_Initialize           1000deb4 f   LIBCMT:initsect.obj
 0001:0000cee0       __RTC_Terminate            1000dee0 f   LIBCMT:initsect.obj
 0001:0000cf0c       ??0bad_alloc@std@@QAE@ABV01@@Z 1000df0c f i LIBCMT:throw_bad_alloc.obj
 0001:0000cf27       ??0bad_alloc@std@@QAE@XZ   1000df27 f i LIBCMT:throw_bad_alloc.obj
 0001:0000cf3f       ??0bad_array_new_length@std@@QAE@ABV01@@Z 1000df3f f i LIBCMT:throw_bad_alloc.obj
 0001:0000cf5a       ??0bad_array_new_length@std@@QAE@XZ 1000df5a f i LIBCMT:throw_bad_alloc.obj
 0001:0000cf72       ??0exception@std@@QAE@ABV01@@Z 1000df72 f i LIBCMT:throw_bad_alloc.obj
 0001:0000cf9e       ??1bad_alloc@std@@UAE@XZ   1000df9e f i LIBCMT:throw_bad_alloc.obj
 0001:0000cf9e       ??1bad_array_new_length@std@@UAE@XZ 1000df9e f i LIBCMT:throw_bad_alloc.obj
 0001:0000cf9e       ??1bad_exception@std@@UAE@XZ 1000df9e f i libvcruntime:frame.obj
 0001:0000cfaf       ??_Ebad_alloc@std@@UAEPAXI@Z 1000dfaf f i LIBCMT:throw_bad_alloc.obj
 0001:0000cfaf       ??_Eexception@std@@UAEPAXI@Z 1000dfaf f i LIBCMT:throw_bad_alloc.obj
 0001:0000cfaf       ??_Ebad_array_new_length@std@@UAEPAXI@Z 1000dfaf f i LIBCMT:throw_bad_alloc.obj
 0001:0000cfaf       ??_Gbad_array_new_length@std@@UAEPAXI@Z 1000dfaf f i LIBCMT:throw_bad_alloc.obj
 0001:0000cfaf       ??_Gbad_alloc@std@@UAEPAXI@Z 1000dfaf f i LIBCMT:throw_bad_alloc.obj
 0001:0000cfaf       ??_Gbad_exception@std@@UAEPAXI@Z 1000dfaf f i libvcruntime:frame.obj
 0001:0000cfaf       ??_Gexception@std@@UAEPAXI@Z 1000dfaf f i LIBCMT:throw_bad_alloc.obj
 0001:0000cfaf       ??_Ebad_exception@std@@UAEPAXI@Z 1000dfaf f i libvcruntime:frame.obj
 0001:0000cfdc       ?__scrt_throw_std_bad_alloc@@YAXXZ 1000dfdc f   LIBCMT:throw_bad_alloc.obj
 0001:0000cff9       ?__scrt_throw_std_bad_array_new_length@@YAXXZ 1000dff9 f   LIBCMT:throw_bad_alloc.obj
 0001:0000d016       ?what@exception@std@@UBEPBDXZ 1000e016 f i LIBCMT:throw_bad_alloc.obj
 0001:0000d023       ??_Gtype_info@@UAEPAXI@Z   1000e023 f i LIBCMT:std_type_info_static.obj
 0001:0000d023       ??_Etype_info@@UAEPAXI@Z   1000e023 f i LIBCMT:std_type_info_static.obj
 0001:0000d046       ??0CAtlBaseModule@ATL@@QAE@XZ 1000e046 f   atls:atlbase.obj
 0001:0000d099       ??0_ATL_BASE_MODULE70@ATL@@QAE@XZ 1000e099 f i atls:atlbase.obj
 0001:0000d0bc       ??1CAtlBaseModule@ATL@@QAE@XZ 1000e0bc f   atls:atlbase.obj
 0001:0000d1a9       ?Init@_stdcallthunk@ATL@@QAEHKPAX@Z 1000e1a9 f i atls:atlthunk.obj
 0001:0000d1de       ?__AllocStdCallThunk_cmn@@YAPAXXZ 1000e1de f   atls:atlthunk.obj
 0001:0000d2a4       ?__FreeStdCallThunk_cmn@@YAXPAX@Z 1000e2a4 f   atls:atlthunk.obj
 0001:0000d33f       _AtlThunk_AllocateData@0   1000e33f f   atls:atlthunk.obj
 0001:0000d3a4       _AtlThunk_DataToCode@4     1000e3a4 f   atls:atlthunk.obj
 0001:0000d3eb       _AtlThunk_FreeData@4       1000e3eb f   atls:atlthunk.obj
 0001:0000d441       _AtlThunk_InitData@12      1000e441 f   atls:atlthunk.obj
 0001:0000d490       __get_purecall_handler     1000e490 f   libvcruntime:purevirt.obj
 0001:0000d496       __purecall                 1000e496 f   libvcruntime:purevirt.obj
 0001:0000d4b2       _wcsstr                    1000e4b2 f   libvcruntime:wcsstr.obj
 0001:0000d760       __except_handler4          1000e760 f   libvcruntime:chandler4.obj
 0001:0000d8be       _memcmp                    1000e8be f   libvcruntime:memcmp.obj
 0001:0000e7d0       _memcpy                    1000f7d0 f   libvcruntime:memcpy.obj
 0001:0000ed50       _memset                    1000fd50 f   libvcruntime:memset.obj
 0001:0000eeaa       ___vcrt_initialize         1000feaa f   libvcruntime:initialization.obj
 0001:0000eec9       ___vcrt_thread_attach      1000fec9 f   libvcruntime:initialization.obj
 0001:0000eed4       ___vcrt_thread_detach      1000fed4 f   libvcruntime:initialization.obj
 0001:0000eedf       ___vcrt_uninitialize       1000fedf f   libvcruntime:initialization.obj
 0001:0000eef6       ___vcrt_uninitialize_critical 1000fef6 f   libvcruntime:initialization.obj
 0001:0000eefe       ?GetRangeOfTrysToCheck@__FrameHandler3@@SA?AU?$pair@Viterator@TryBlockMap@__FrameHandler3@@V123@@std@@AAVTryBlockMap@1@HPAXPBU_s_FuncInfo@@H@Z 1000fefe f   libvcruntime:trnsctrl.obj
 0001:0000ef6e       ?_CallCatchBlock2@@YAPAXPAUEHRegistrationNode@@PBU_s_FuncInfo@@PAXHK@Z 1000ff6e f   libvcruntime:trnsctrl.obj
 0001:0000efcc       ?_CallSETranslator@@YAHPAUEHExceptionRecord@@PAUEHRegistrationNode@@PAX2PBU_s_FuncInfo@@H1@Z 1000ffcc f   libvcruntime:trnsctrl.obj
 0001:0000f0b2       ?_JumpToContinuation@@YGXPAXPAUEHRegistrationNode@@@Z 100100b2 f   libvcruntime:trnsctrl.obj
 0001:0000f0e2       ?_UnwindNestedFrames@@YGXPAUEHRegistrationNode@@PAUEHExceptionRecord@@@Z 100100e2 f   libvcruntime:trnsctrl.obj
 0001:0000f135       __CatchGuardHandler        10010135 f   libvcruntime:trnsctrl.obj
 0001:0000f166       __CreateFrameInfo          10010166 f   libvcruntime:trnsctrl.obj
 0001:0000f18a       __FindAndUnlinkFrame       1001018a f   libvcruntime:trnsctrl.obj
 0001:0000f1d2       __TranslatorGuardHandler   100101d2 f   libvcruntime:trnsctrl.obj
 0001:0000f26f       ___CxxFrameHandler3        1001026f f   libvcruntime:trnsctrl.obj
 0001:0000f2a5       ___DestructExceptionObject 100102a5 f   libvcruntime:ehhelpers.obj
 0001:0000f346       ?_CallMemberFunction0@@YGXQAX0@Z 10010346 f i libvcruntime:ehhelpers.obj
 0001:0000f3ab       __IsExceptionObjectToBeDestroyed 100103ab f   libvcruntime:ehhelpers.obj
 0001:0000f3d1       ___AdjustPointer           100103d1 f   libvcruntime:ehhelpers.obj
 0001:0000f3f6       ___FrameUnwindFilter       100103f6 f   libvcruntime:ehhelpers.obj
 0001:0000f44c       ___std_type_info_compare   1001044c f   libvcruntime:std_type_info.obj
 0001:0000f488       ___std_type_info_destroy_list 10010488 f   libvcruntime:std_type_info.obj
 0001:0000f4ab       ___std_exception_copy      100104ab f   libvcruntime:std_exception.obj
 0001:0000f50e       ___std_exception_destroy   1001050e f   libvcruntime:std_exception.obj
 0001:0000f52d       __CxxThrowException@8      1001052d f   libvcruntime:throw.obj
 0001:0000f5a0       _memmove                   100105a0 f   libvcruntime:memmove.obj
 0001:0000fb20       __local_unwind4            10010b20 f   libvcruntime:exsup4.obj
 0001:0000fbf4       __seh_longjmp_unwind4@4    10010bf4 f   libvcruntime:exsup4.obj
 0001:0000fc1c       @_EH4_CallFilterFunc@8     10010c1c f   libvcruntime:exsup4.obj
 0001:0000fc34       @_EH4_TransferToHandler@8  10010c34 f   libvcruntime:exsup4.obj
 0001:0000fc50       @_EH4_GlobalUnwind2@8      10010c50 f   libvcruntime:exsup4.obj
 0001:0000fc6c       @_EH4_LocalUnwind@16       10010c6c f   libvcruntime:exsup4.obj
 0001:0000fc83       ___except_validate_context_record 10010c83 f   libvcruntime:jbcxrval.obj
 0001:0000fcb3       ___except_validate_jump_buffer 10010cb3 f   libvcruntime:jbcxrval.obj
 0001:0000fce0       ___vcrt_freefls@4          10010ce0 f   libvcruntime:per_thread_data.obj
 0001:0000fcfc       ___vcrt_freeptd            10010cfc f   libvcruntime:per_thread_data.obj
 0001:0000fd32       ___vcrt_getptd             10010d32 f   libvcruntime:per_thread_data.obj
 0001:0000fd40       ___vcrt_getptd_noexit      10010d40 f   libvcruntime:per_thread_data.obj
 0001:0000fdd2       ___vcrt_initialize_ptd     10010dd2 f   libvcruntime:per_thread_data.obj
 0001:0000fe05       ___vcrt_uninitialize_ptd   10010e05 f   libvcruntime:per_thread_data.obj
 0001:0000fe20       ___vcrt_initialize_locks   10010e20 f   libvcruntime:locks.obj
 0001:0000fe5c       ___vcrt_uninitialize_locks 10010e5c f   libvcruntime:locks.obj
 0001:000105ce       ??$TypeMatchHelper@V__FrameHandler3@@@@YAHPBU_s_HandlerType@@PBU_s_CatchableType@@PBU_s_ThrowInfo@@@Z 100115ce f i libvcruntime:frame.obj
 0001:0001065c       ??$__InternalCxxFrameHandler@V__FrameHandler3@@@@YA?AW4_EXCEPTION_DISPOSITION@@PAUEHExceptionRecord@@PAUEHRegistrationNode@@PAU_CONTEXT@@PAXPBU_s_FuncInfo@@H1E@Z 1001165c f i libvcruntime:frame.obj
 0001:0001075e       ??0bad_exception@std@@QAE@ABV01@@Z 1001175e f i libvcruntime:frame.obj
 0001:00010779       ??0bad_exception@std@@QAE@XZ 10011779 f i libvcruntime:frame.obj
 0001:00010791       ??8type_info@@QBE_NABV0@@Z 10011791 f i libvcruntime:frame.obj
 0001:000109fd       ?FrameUnwindToEmptyState@__FrameHandler3@@SAXPAUEHRegistrationNode@@PAXPBU_s_FuncInfo@@@Z 100119fd f   libvcruntime:frame.obj
 0001:00010a15       ?FrameUnwindToState@__FrameHandler3@@SAXPAUEHRegistrationNode@@PAXPBU_s_FuncInfo@@H@Z 10011a15 f   libvcruntime:frame.obj
 0001:00010b97       ?_CallMemberFunction1@@YGXQAX00@Z 10011b97 f i libvcruntime:frame.obj
 0001:00010ba7       ?_CallMemberFunction2@@YGXQAX00H@Z 10011ba7 f i libvcruntime:frame.obj
 0001:00010bba       ?getESTypes@__FrameHandler3@@SAPBU_s_ESTypeList@@PBU_s_FuncInfo@@@Z 10011bba f i libvcruntime:frame.obj
 0001:00010bd0       __CallSettingFrame@12      10011bd0 f   libvcruntime:lowhelpr.obj
 0001:00010bf7       __NLG_Return               10011bf7     libvcruntime:lowhelpr.obj
 0001:00010c20       __global_unwind2           10011c20 f   libvcruntime:exsup.obj
 0001:00010c86       __local_unwind2            10011c86 f   libvcruntime:exsup.obj
 0001:00010d0a       __abnormal_termination     10011d0a f   libvcruntime:exsup.obj
 0001:00010d30       __NLG_Notify1              10011d30 f   libvcruntime:exsup.obj
 0001:00010d3c       __NLG_Notify               10011d3c f   libvcruntime:exsup.obj
 0001:00010d53       __NLG_Dispatch             10011d53     libvcruntime:exsup.obj
 0001:00010d53       __NLG_Dispatch2            10011d53     libvcruntime:exsup.obj
 0001:00010d5b       __NLG_Call                 10011d5b f   libvcruntime:exsup.obj
 0001:00010d5d       __NLG_Return2              10011d5d     libvcruntime:exsup.obj
 0001:00010e41       ___vcrt_FlsAlloc           10011e41 f   libvcruntime:winapi_downlevel.obj
 0001:00010e7c       ___vcrt_FlsFree            10011e7c f   libvcruntime:winapi_downlevel.obj
 0001:00010eb7       ___vcrt_FlsGetValue        10011eb7 f   libvcruntime:winapi_downlevel.obj
 0001:00010ef2       ___vcrt_FlsSetValue        10011ef2 f   libvcruntime:winapi_downlevel.obj
 0001:00010f30       ___vcrt_InitializeCriticalSectionEx 10011f30 f   libvcruntime:winapi_downlevel.obj
 0001:00010f77       _unexpected                10011f77 f   libvcruntime:unexpected.obj
 0001:00010f94       ?GetCurrentState@__FrameHandler3@@SAHPAUEHRegistrationNode@@PAXPBU_s_FuncInfo@@@Z 10011f94 f   libvcruntime:ehstate.obj
 0001:00010fb1       ?SetState@__FrameHandler3@@SAXPAUEHRegistrationNode@@PBU_s_FuncInfo@@H@Z 10011fb1 f   libvcruntime:ehstate.obj
 0001:00010fbf       _free                      10011fbf f   libucrt:free.obj
 0001:00010fda       ___acrt_call_reportfault   10011fda f   libucrt:invalid_parameter.obj
 0001:00011113       ___acrt_initialize_invalid_parameter_handler 10012113 f   libucrt:invalid_parameter.obj
 0001:00011122       __invalid_parameter        10012122 f   libucrt:invalid_parameter.obj
 0001:00011186       __invalid_parameter_noinfo 10012186 f   libucrt:invalid_parameter.obj
 0001:00011196       __invoke_watson            10012196 f   libucrt:invalid_parameter.obj
 0001:000111ca       ___acrt_errno_from_os_error 100121ca f   libucrt:errno.obj
 0001:0001120d       ___acrt_errno_map_os_error 1001220d f   libucrt:errno.obj
 0001:00011230       ___doserrno                10012230 f   libucrt:errno.obj
 0001:00011243       __errno                    10012243 f   libucrt:errno.obj
 0001:00011256       _calloc                    10012256 f   libucrt:calloc.obj
 0001:00011261       _malloc                    10012261 f   libucrt:malloc.obj
 0001:0001126c       __recalloc                 1001226c f   libucrt:recalloc.obj
 0001:00011277       __recalloc_base            10012277 f   libucrt:recalloc.obj
 0001:000112e4       __resetstkoflw             100122e4 f   libucrt:resetstk.obj
 0001:000113a9       _wcscat_s                  100123a9 f   libucrt:wcscat_s.obj
 0001:0001141e       _wcscpy_s                  1001241e f   libucrt:wcscpy_s.obj
 0001:0001154d       _wcsncpy_s                 1001254d f   libucrt:wcsncpy_s.obj
 0001:00011759       ??$count@D@formatting_buffer@__crt_stdio_output@@QBEIXZ 10012759 f i libucrt:output.obj
 0001:00011771       ??$count@_W@formatting_buffer@__crt_stdio_output@@QBEIXZ 10012771 f i libucrt:output.obj
 0001:0001178a       ??$ensure_buffer_is_big_enough@D@formatting_buffer@__crt_stdio_output@@QAE_NI@Z 1001278a f i libucrt:output.obj
 0001:00011807       ??$ensure_buffer_is_big_enough@_W@formatting_buffer@__crt_stdio_output@@QAE_NI@Z 10012807 f i libucrt:output.obj
 0001:00011885       ??$is_wide_character_specifier@_W@__crt_stdio_output@@YA_N_K_WW4length_modifier@0@@Z 10012885 f i libucrt:output.obj
 0001:000118d3       ??$scratch_data@D@formatting_buffer@__crt_stdio_output@@QAEPADXZ 100128d3 f i libucrt:output.obj
 0001:000118f1       ??$type_case_integer_parse_into_buffer@I@?$output_processor@_WV?$string_output_adapter@_W@__crt_stdio_output@@V?$format_validation_base@_WV?$string_output_adapter@_W@__crt_stdio_output@@@2@@__crt_stdio_output@@AAEXII_N@Z 100128f1 f i libucrt:output.obj
 0001:00011978       ??$type_case_integer_parse_into_buffer@_K@?$output_processor@_WV?$string_output_adapter@_W@__crt_stdio_output@@V?$format_validation_base@_WV?$string_output_adapter@_W@__crt_stdio_output@@@2@@__crt_stdio_output@@AAEX_KI_N@Z 10012978 f i libucrt:output.obj
 0001:00011a1a       ??$write_multiple_characters@V?$string_output_adapter@_W@__crt_stdio_output@@D@__crt_stdio_output@@YAXABV?$string_output_adapter@_W@0@DHQAH@Z 10012a1a f i libucrt:output.obj
 0001:00011a4b       ??0?$common_data@_W@__crt_stdio_output@@IAE@XZ 10012a4b f i libucrt:output.obj
 0001:00011a95       ??0?$output_adapter_data@_WV?$string_output_adapter@_W@__crt_stdio_output@@@__crt_stdio_output@@IAE@ABV?$string_output_adapter@_W@1@_KQB_WQAU__crt_locale_pointers@@QAD@Z 10012a95 f i libucrt:output.obj
 0001:00011ad1       ??0_LocaleUpdate@@QAE@QAU__crt_locale_pointers@@@Z 10012ad1 f i libucrt:output.obj
 0001:00011b54       ??1formatting_buffer@__crt_stdio_output@@QAE@XZ 10012b54 f i libucrt:output.obj
 0001:00011b6e       ??4?$__crt_unique_heap_ptr@DU__crt_internal_free_policy@@@@QAEAAV0@$$QAV0@@Z 10012b6e f i libucrt:output.obj
 0001:00011ba0       ?crop_zeroes@__crt_stdio_output@@YAXPADQAU__crt_locale_pointers@@@Z 10012ba0 f i libucrt:output.obj
 0001:00011c21       ?find_next_state@?$output_processor@_WV?$string_output_adapter@_W@__crt_stdio_output@@V?$format_validation_base@_WV?$string_output_adapter@_W@__crt_stdio_output@@@2@@__crt_stdio_output@@ABE?AW4state@2@_WW432@@Z 10012c21 f i libucrt:output.obj
 0001:00011c60       ?force_decimal_point@__crt_stdio_output@@YAXPADQAU__crt_locale_pointers@@@Z 10012c60 f i libucrt:output.obj
 0001:00011cc5       ?parse_int_from_format_string@?$output_processor@_WV?$string_output_adapter@_W@__crt_stdio_output@@V?$format_validation_base@_WV?$string_output_adapter@_W@__crt_stdio_output@@@2@@__crt_stdio_output@@AAE_NQAH@Z 10012cc5 f i libucrt:output.obj
 0001:00011d3b       ?process@?$output_processor@_WV?$string_output_adapter@_W@__crt_stdio_output@@V?$format_validation_base@_WV?$string_output_adapter@_W@__crt_stdio_output@@@2@@__crt_stdio_output@@QAEHXZ 10012d3b f i libucrt:output.obj
 0001:00011e63       ?state_case_flag@?$output_processor@_WV?$string_output_adapter@_W@__crt_stdio_output@@V?$format_validation_base@_WV?$string_output_adapter@_W@__crt_stdio_output@@@2@@__crt_stdio_output@@AAE_NXZ 10012e63 f i libucrt:output.obj
 0001:00011ea0       ?state_case_normal@?$output_processor@_WV?$string_output_adapter@_W@__crt_stdio_output@@V?$format_validation_base@_WV?$string_output_adapter@_W@__crt_stdio_output@@@2@@__crt_stdio_output@@AAE_NXZ 10012ea0 f i libucrt:output.obj
 0001:00011ebf       ?state_case_normal_common@?$output_processor@_WV?$string_output_adapter@_W@__crt_stdio_output@@V?$format_validation_base@_WV?$string_output_adapter@_W@__crt_stdio_output@@@2@@__crt_stdio_output@@AAE_NXZ 10012ebf f i libucrt:output.obj
 0001:00011eda       ?state_case_precision@?$output_processor@_WV?$string_output_adapter@_W@__crt_stdio_output@@V?$format_validation_base@_WV?$string_output_adapter@_W@__crt_stdio_output@@@2@@__crt_stdio_output@@AAE_NXZ 10012eda f i libucrt:output.obj
 0001:00011f01       ?state_case_size@?$output_processor@_WV?$string_output_adapter@_W@__crt_stdio_output@@V?$format_validation_base@_WV?$string_output_adapter@_W@__crt_stdio_output@@@2@@__crt_stdio_output@@AAE_NXZ 10012f01 f i libucrt:output.obj
 0001:00012079       ?state_case_type@?$output_processor@_WV?$string_output_adapter@_W@__crt_stdio_output@@V?$format_validation_base@_WV?$string_output_adapter@_W@__crt_stdio_output@@@2@@__crt_stdio_output@@AAE_NXZ 10013079 f i libucrt:output.obj
 0001:000122d6       ?state_case_width@?$output_processor@_WV?$string_output_adapter@_W@__crt_stdio_output@@V?$format_validation_base@_WV?$string_output_adapter@_W@__crt_stdio_output@@@2@@__crt_stdio_output@@AAE_NXZ 100132d6 f i libucrt:output.obj
 0001:00012310       ?to_integer_size@__crt_stdio_output@@YAIW4length_modifier@1@@Z 10013310 f i libucrt:output.obj
 0001:0001236c       ?type_case_Z@?$output_processor@_WV?$string_output_adapter@_W@__crt_stdio_output@@V?$format_validation_base@_WV?$string_output_adapter@_W@__crt_stdio_output@@@2@@__crt_stdio_output@@AAE_NXZ 1001336c f i libucrt:output.obj
 0001:000123c6       ?type_case_a@?$output_processor@_WV?$string_output_adapter@_W@__crt_stdio_output@@V?$format_validation_base@_WV?$string_output_adapter@_W@__crt_stdio_output@@@2@@__crt_stdio_output@@AAE_NXZ 100133c6 f i libucrt:output.obj
 0001:0001252d       ?type_case_c_tchar@?$output_processor@_WV?$string_output_adapter@_W@__crt_stdio_output@@V?$format_validation_base@_WV?$string_output_adapter@_W@__crt_stdio_output@@@2@@__crt_stdio_output@@AAE_N_W@Z 1001352d f i libucrt:output.obj
 0001:000125c3       ?type_case_integer@?$output_processor@_WV?$string_output_adapter@_W@__crt_stdio_output@@V?$format_validation_base@_WV?$string_output_adapter@_W@__crt_stdio_output@@@2@@__crt_stdio_output@@AAE_NI_N@Z 100135c3 f i libucrt:output.obj
 0001:00012718       ?type_case_n@?$output_processor@_WV?$string_output_adapter@_W@__crt_stdio_output@@V?$format_validation_base@_WV?$string_output_adapter@_W@__crt_stdio_output@@@2@@__crt_stdio_output@@AAE_NXZ 10013718 f i libucrt:output.obj
 0001:0001278c       ?type_case_o@?$output_processor@_WV?$string_output_adapter@_W@__crt_stdio_output@@V?$format_validation_base@_WV?$string_output_adapter@_W@__crt_stdio_output@@@2@@__crt_stdio_output@@AAE_NXZ 1001378c f i libucrt:output.obj
 0001:000127ab       ?type_case_p@?$output_processor@_WV?$string_output_adapter@_W@__crt_stdio_output@@V?$format_validation_base@_WV?$string_output_adapter@_W@__crt_stdio_output@@@2@@__crt_stdio_output@@AAE_NXZ 100137ab f i libucrt:output.obj
 0001:000127c3       ?type_case_s@?$output_processor@_WV?$string_output_adapter@_W@__crt_stdio_output@@V?$format_validation_base@_WV?$string_output_adapter@_W@__crt_stdio_output@@@2@@__crt_stdio_output@@AAE_NXZ 100137c3 f i libucrt:output.obj
 0001:00012836       ?type_case_s_compute_narrow_string_length@?$output_processor@_WV?$string_output_adapter@_W@__crt_stdio_output@@V?$format_validation_base@_WV?$string_output_adapter@_W@__crt_stdio_output@@@2@@__crt_stdio_output@@ABEHH_W@Z 10013836 f i libucrt:output.obj
 0001:0001287d       ?validate@?$string_output_adapter@_W@__crt_stdio_output@@QBE_NXZ 1001387d f i libucrt:output.obj
 0001:0001287d       ?validate@?$c_string_character_source@_W@__crt_strtox@@QBE_NXZ 1001387d f i libucrt:atox.obj
 0001:00012898       ?validate_and_update_state_at_end_of_format_string@?$format_validation_base@_WV?$string_output_adapter@_W@__crt_stdio_output@@@__crt_stdio_output@@IBE_NXZ 10013898 f i libucrt:output.obj
 0001:000128ba       ?write_character@?$string_output_adapter@_W@__crt_stdio_output@@QBE_N_WQAH@Z 100138ba f i libucrt:output.obj
 0001:000128ff       ?write_stored_string_tchar@?$output_processor@_WV?$string_output_adapter@_W@__crt_stdio_output@@V?$format_validation_base@_WV?$string_output_adapter@_W@__crt_stdio_output@@@2@@__crt_stdio_output@@AAE_N_W@Z 100138ff f i libucrt:output.obj
 0001:0001298c       ?write_string@?$string_output_adapter@_W@__crt_stdio_output@@QBEXQB_WHQAHAAV__crt_deferred_errno_cache@@@Z 1001398c f i libucrt:output.obj
 0001:000129fd       ___acrt_locale_get_ctype_array_value 100139fd f i libucrt:output.obj
 0001:00012a1f       ___stdio_common_vswprintf_s 10013a1f f   libucrt:output.obj
 0001:00012a43       __seh_filter_dll           10013a43 f   libucrt:exception_filter.obj
 0001:00012a63       __seh_filter_exe           10013a63 f   libucrt:exception_filter.obj
 0001:00012e31       ___acrt_initialize_thread_local_exit_callback 10013e31 f   libucrt:exit.obj
 0001:00012e40       __cexit                    10013e40 f   libucrt:exit.obj
 0001:00012e4f       __exit                     10013e4f f   libucrt:exit.obj
 0001:00012e65       __is_c_termination_complete 10013e65 f   libucrt:exit.obj
 0001:00013116       ___acrt_allocate_buffer_for_argv 10014116 f   libucrt:argv_parsing.obj
 0001:00013165       __configure_narrow_argv    10014165 f   libucrt:argv_parsing.obj
 0001:000132c2       ??$uninitialize@A6AXAAPAPAD@Z@?$dual_state_global@PAPAD@__crt_state_management@@QAEXA6AXAAPAPAD@Z@Z 100142c2 f i libucrt:environment_initialization.obj
 0001:000132c2       ??$uninitialize@A6AXAAPAPA_W@Z@?$dual_state_global@PAPA_W@__crt_state_management@@QAEXA6AXAAPAPA_W@Z@Z 100142c2 f i libucrt:environment_initialization.obj
 0001:00013321       ___dcrt_uninitialize_environments_nolock 10014321 f   libucrt:environment_initialization.obj
 0001:00013358       __initialize_narrow_environment 10014358 f   libucrt:environment_initialization.obj
 0001:00013413       ??$__crt_fast_encode_pointer@PAX@@YAPAXQAX@Z 10014413 f i libucrt:initialization.obj
 0001:00013413       ??$__crt_fast_encode_pointer@P6AHXZ@@YAP6AHXZQ6AHXZ@Z 10014413 f i libucrt:onexit.obj
 0001:00013413       ??$__crt_fast_encode_pointer@PAP6AXXZ@@YAPAP6AXXZQAP6AXXZ@Z 10014413 f i libucrt:onexit.obj
 0001:00013635       __crt_atexit               10014635 f   libucrt:onexit.obj
 0001:0001364b       __execute_onexit_table     1001464b f   libucrt:onexit.obj
 0001:00013678       __initialize_onexit_table  10014678 f   libucrt:onexit.obj
 0001:000136a1       __register_onexit_function 100146a1 f   libucrt:onexit.obj
 0001:000136fb       ___acrt_uninitialize_command_line 100146fb f   libucrt:argv_data.obj
 0001:000137d2       ___acrt_initialize         100147d2 f   libucrt:initialization.obj
 0001:000137e4       ___acrt_thread_attach      100147e4 f   libucrt:initialization.obj
 0001:000137ef       ___acrt_thread_detach      100147ef f   libucrt:initialization.obj
 0001:000137f7       ___acrt_uninitialize       100147f7 f   libucrt:initialization.obj
 0001:00013827       ___acrt_uninitialize_critical 10014827 f   libucrt:initialization.obj
 0001:00013839       __initterm                 10014839 f   libucrt:initterm.obj
 0001:0001387e       __initterm_e               1001487e f   libucrt:initterm.obj
 0001:000138ac       ___acrt_initialize_new_handler 100148ac f   libucrt:new_handler.obj
 0001:000138bb       __callnewh                 100148bb f   libucrt:new_handler.obj
 0001:000138e8       __query_new_handler        100148e8 f   libucrt:new_handler.obj
 0001:00013944       _terminate                 10014944 f   libucrt:terminate.obj
 0001:00013980       _abort                     10014980 f   libucrt:abort.obj
 0001:000139c4       _strcpy_s                  100149c4 f   libucrt:strcpy_s.obj
 0001:00013a1e       ??$is_overflow_condition@K@__crt_strtox@@YA_NIK@Z 10014a1e f i libucrt:atox.obj
 0001:00013a4f       ??$parse_integer@KV?$c_string_character_source@_W@__crt_strtox@@@__crt_strtox@@YAKQAU__crt_locale_pointers@@V?$c_string_character_source@_W@0@H_N@Z 10014a4f f i libucrt:atox.obj
 0001:00014057       ?unget@?$c_string_character_source@_W@__crt_strtox@@QAEX_W@Z 10015057 f i libucrt:atox.obj
 0001:00014090       _strncmp                   10015090 f   libucrt:strncmp.obj
 0001:00014108       _wcsncmp                   10015108 f   libucrt:wcsncmp.obj
 0001:00014142       __free_base                10015142 f   libucrt:free_base.obj
 0001:000144ba       ___acrt_freeptd            100154ba f   libucrt:per_thread_data.obj
 0001:000144e6       ___acrt_getptd             100154e6 f   libucrt:per_thread_data.obj
 0001:000145a3       ___acrt_getptd_head        100155a3 f   libucrt:per_thread_data.obj
 0001:0001463d       ___acrt_getptd_noexit      1001563d f   libucrt:per_thread_data.obj
 0001:000146f2       ___acrt_initialize_ptd     100156f2 f   libucrt:per_thread_data.obj
 0001:0001471e       ___acrt_uninitialize_ptd   1001571e f   libucrt:per_thread_data.obj
 0001:00014738       __calloc_base              10015738 f   libucrt:calloc_base.obj
 0001:00014795       __malloc_base              10015795 f   libucrt:malloc_base.obj
 0001:000147e3       __msize_base               100157e3 f   libucrt:msize.obj
 0001:00014816       __realloc_base             10015816 f   libucrt:realloc_base.obj
 0001:00014a17       ___acrt_AppPolicyGetProcessTerminationMethodInternal@4 10015a17 f   libucrt:winapi_thunks.obj
 0001:00014a57       ___acrt_AreFileApisANSI@0  10015a57 f   libucrt:winapi_thunks.obj
 0001:00014a76       ___acrt_FlsAlloc@4         10015a76 f   libucrt:winapi_thunks.obj
 0001:00014ab5       ___acrt_FlsFree@4          10015ab5 f   libucrt:winapi_thunks.obj
 0001:00014af4       ___acrt_FlsGetValue@4      10015af4 f   libucrt:winapi_thunks.obj
 0001:00014b33       ___acrt_FlsSetValue@8      10015b33 f   libucrt:winapi_thunks.obj
 0001:00014b75       ___acrt_InitializeCriticalSectionEx@12 10015b75 f   libucrt:winapi_thunks.obj
 0001:00014bc0       ___acrt_LCMapStringEx@36   10015bc0 f   libucrt:winapi_thunks.obj
 0001:00014c1d       ___acrt_LocaleNameToLCID@8 10015c1d f   libucrt:winapi_thunks.obj
 0001:00014c4e       ___acrt_SetThreadStackGuarantee@4 10015c4e f   libucrt:winapi_thunks.obj
 0001:00014c89       ___acrt_initialize_winapi_thunks 10015c89 f   libucrt:winapi_thunks.obj
 0001:00014cb4       ___acrt_uninitialize_winapi_thunks 10015cb4 f   libucrt:winapi_thunks.obj
 0001:00014cea       ??$make_c_string_character_source@_WPAPA_W@__crt_strtox@@YA?AV?$c_string_character_source@_W@0@QB_WQAPA_W@Z 10015cea f i libucrt:strtox.obj
 0001:00014d05       _wcstol                    10015d05 f   libucrt:strtox.obj
 0001:00014d2f       __mbtowc_l                 10015d2f f   libucrt:mbtowc.obj
 0001:00014e71       _mbtowc                    10015e71 f   libucrt:mbtowc.obj
 0001:00014e8b       _wcsnlen                   10015e8b f   libucrt:strnlen.obj
 0001:0001503b       ___acrt_update_locale_info 1001603b f   libucrt:locale_update.obj
 0001:00015068       ___acrt_update_multibyte_info 10016068 f   libucrt:locale_update.obj
 0001:00015095       ?__acrt_fp_classify@@YA?AW4__acrt_fp_class@@ABN@Z 10016095 f i libucrt:cvt.obj
 0001:00015a47       ___acrt_fp_format          10016a47 f   libucrt:cvt.obj
 0001:00015ba5       __fileno                   10016ba5 f   libucrt:fileno.obj
 0001:00015bcc       ___acrt_initialize_stdio   10016bcc f   libucrt:_file.obj
 0001:00015c94       ___acrt_uninitialize_stdio 10016c94 f   libucrt:_file.obj
 0001:00015ce0       __lock_file                10016ce0 f   libucrt:_file.obj
 0001:00015cf4       __unlock_file              10016cf4 f   libucrt:_file.obj
 0001:00015d08       __get_printf_count_output  10016d08 f   libucrt:printf_count_output.obj
 0001:00015d8b       ___acrt_set_locale_changed 10016d8b f   libucrt:wsetlocale.obj
 0001:00015d96       ___acrt_uninitialize_locale 10016d96 f   libucrt:wsetlocale.obj
 0001:00015f27       ___acrt_initialize_lowio   10016f27 f   libucrt:ioinit.obj
 0001:00015f87       ___acrt_uninitialize_lowio 10016f87 f   libucrt:ioinit.obj
 0001:00015fb3       ___acrt_initialize_locks   10016fb3 f   libucrt:locks.obj
 0001:00015ff4       ___acrt_lock               10016ff4 f   libucrt:locks.obj
 0001:0001600b       ___acrt_uninitialize_locks 1001700b f   libucrt:locks.obj
 0001:0001603c       ___acrt_unlock             1001703c f   libucrt:locks.obj
 0001:00016053       ___acrt_get_process_end_policy 10017053 f   libucrt:win_policies.obj
 0001:0001621d       ??$__acrt_mbs_to_wcs_cp@U__crt_win32_buffer_internal_dynamic_resizing@@@@YAHQBDAAV?$__crt_win32_buffer@_WU__crt_win32_buffer_internal_dynamic_resizing@@@@I@Z 1001721d f i libucrt:argv_wildcards.obj
 0001:00016731       ?__acrt_get_utf8_acp_compatibility_codepage@@YAIXZ 10017731 f i libucrt:argv_wildcards.obj
 0001:00016770       ?_deallocate@?$__crt_win32_buffer@DU__crt_win32_buffer_internal_dynamic_resizing@@@@AAEXXZ 10017770 f i libucrt:argv_wildcards.obj
 0001:00016770       ?_deallocate@?$__crt_win32_buffer@_WU__crt_win32_buffer_internal_dynamic_resizing@@@@AAEXXZ 10017770 f i libucrt:argv_wildcards.obj
 0001:0001678a       ?allocate@?$__crt_win32_buffer@DU__crt_win32_buffer_internal_dynamic_resizing@@@@QAEHI@Z 1001778a f i libucrt:argv_wildcards.obj
 0001:000167c6       ?allocate@?$__crt_win32_buffer@_WU__crt_win32_buffer_internal_dynamic_resizing@@@@QAEHI@Z 100177c6 f i libucrt:argv_wildcards.obj
 0001:00016805       ?allocate@__crt_win32_buffer_internal_dynamic_resizing@@SAHQAPAXIABV__crt_win32_buffer_empty_debug_info@@@Z 10017805 f i libucrt:argv_wildcards.obj
 0001:000168ab       ___acrt_expand_narrow_argv_wildcards 100178ab f   libucrt:argv_wildcards.obj
 0001:0001697d       ?allocate@?$__crt_win32_buffer@DU__crt_win32_buffer_no_resizing@@@@QAEHI@Z 1001797d f i libucrt:getmodulefilenamea.obj
 0001:000169a4       ?set_to_nullptr@?$__crt_win32_buffer@DU__crt_win32_buffer_no_resizing@@@@QAEXXZ 100179a4 f i libucrt:getmodulefilenamea.obj
 0001:000169b8       ___acrt_GetModuleFileNameA 100179b8 f   libucrt:getmodulefilenamea.obj
 0001:00016f71       ___acrt_initialize_multibyte 10017f71 f   libucrt:mbctype.obj
 0001:00016fb9       ___acrt_update_thread_multibyte_data 10017fb9 f   libucrt:mbctype.obj
 0001:00016fcc       __setmbcp_nolock           10017fcc f   libucrt:mbctype.obj
 0001:00017297       __ismbblead                10018297 f   libucrt:ismbbyte.obj
 0001:000172af       ___acrt_initialize_command_line 100182af f   libucrt:argv_data.obj
 0001:000172c8       ___acrt_MultiByteToWideChar 100182c8 f   libucrt:multibytetowidechar.obj
 0001:00017344       ___acrt_WideCharToMultiByte 10018344 f   libucrt:widechartomultibyte.obj
 0001:00017432       ___dcrt_get_narrow_environment_from_os 10018432 f   libucrt:get_environment_from_os.obj
 0001:000174b6       ___acrt_initialize_heap    100184b6 f   libucrt:heap_handle.obj
 0001:000174c7       ___acrt_uninitialize_heap  100184c7 f   libucrt:heap_handle.obj
 0001:000174d1       ___acrt_execute_initializers 100184d1 f   libucrt:shared_initialization.obj
 0001:00017539       ___acrt_execute_uninitializers 10018539 f   libucrt:shared_initialization.obj
 0001:00017638       ___acrt_get_sigabrt_handler 10018638 f   libucrt:signal.obj
 0001:0001765f       ___acrt_initialize_signal_handlers 1001865f f   libucrt:signal.obj
 0001:0001767d       _raise                     1001867d f   libucrt:signal.obj
 0001:00017870       ___acrt_has_user_matherr   10018870 f   libucrt:matherr.obj
 0001:00017888       ___acrt_initialize_user_matherr 10018888 f   libucrt:matherr.obj
 0001:00017897       ___acrt_invoke_user_matherr 10018897 f   libucrt:matherr.obj
 0001:00017aa6       ___acrt_stdio_flush_nolock 10018aa6 f   libucrt:fflush.obj
 0001:00017b0b       __fflush_nolock            10018b0b f   libucrt:fflush.obj
 0001:00017b53       __flushall                 10018b53 f   libucrt:fflush.obj
 0001:00017b5c       ___pctype_func             10018b5c f   libucrt:ctype.obj
 0001:00017b80       _iswctype                  10018b80 f   libucrt:iswctype.obj
 0001:00017be9       ___acrt_add_locale_ref     10018be9 f   libucrt:locale_refcounting.obj
 0001:00017c66       ___acrt_free_locale        10018c66 f   libucrt:locale_refcounting.obj
 0001:00017dae       ___acrt_locale_add_lc_time_reference 10018dae f   libucrt:locale_refcounting.obj
 0001:00017dd7       ___acrt_locale_free_lc_time_if_unreferenced 10018dd7 f   libucrt:locale_refcounting.obj
 0001:00017e08       ___acrt_locale_release_lc_time_reference 10018e08 f   libucrt:locale_refcounting.obj
 0001:00017e31       ___acrt_release_locale_ref 10018e31 f   libucrt:locale_refcounting.obj
 0001:00017eb2       ___acrt_update_thread_locale_data 10018eb2 f   libucrt:locale_refcounting.obj
 0001:00017f33       __updatetlocinfoEx_nolock  10018f33 f   libucrt:locale_refcounting.obj
 0001:00017f83       __query_new_mode           10018f83 f   libucrt:new_mode.obj
 0001:00017fda       ___acrt_DownlevelLocaleNameToLCID 10018fda f   libucrt:lcidtoname_downlevel.obj
 0001:00018006       __isleadbyte_l             10019006 f i libucrt:_wctype.obj
 0001:0001806c       ?__mbrtowc_utf8@__crt_mbstring@@YAIPA_WPBDIPAU_Mbstatet@@@Z 1001906c f   libucrt:mbrtowc.obj
 0001:000180ac       ?__mbsrtowcs_utf8@__crt_mbstring@@YAIPA_WPAPBDIPAU_Mbstatet@@@Z 100190ac f   libucrt:mbrtowc.obj
 0001:000181a7       ?return_illegal_sequence@__crt_mbstring@@YAIPAU_Mbstatet@@@Z 100191a7 f i libucrt:c32rtomb.obj
 0001:00018231       ___acrt_fp_strflt_to_string 10019231 f   libucrt:_fptostr.obj
 0001:00018310       ?divide@__crt_strtox@@YA_KAAUbig_integer@1@ABU21@@Z 10019310 f i libucrt:cfout.obj
 0001:000187a8       ___acrt_fltout             100197a8 f   libucrt:cfout.obj
 0001:00019caf       _fegetround                1001acaf f   libucrt:fegetround.obj
 0001:00019cbc       __fcloseall                1001acbc f   libucrt:closeall.obj
 0001:00019d67       ___acrt_stdio_free_buffer_nolock 1001ad67 f   libucrt:_freebuf.obj
 0001:00019da7       __isatty                   1001ada7 f   libucrt:isatty.obj
 0001:00019dfd       ___acrt_locale_free_monetary 1001adfd f   libucrt:initmon.obj
 0001:00019efb       ___acrt_locale_free_numeric 1001aefb f   libucrt:initnum.obj
 0001:00019f9c       ___acrt_locale_free_time   1001af9c f   libucrt:inittime.obj
 0001:0001a080       ___acrt_GetStringTypeA     1001b080 f   libucrt:getstringtypea.obj
 0001:0001a183       __freea_crt                1001b183 f i libucrt:getstringtypea.obj
 0001:0001a1a3       ___acrt_lowio_create_handle_array 1001b1a3 f   libucrt:osfinfo.obj
 0001:0001a21e       ___acrt_lowio_destroy_handle_array 1001b21e f   libucrt:osfinfo.obj
 0001:0001a253       ___acrt_lowio_ensure_fh_exists 1001b253 f   libucrt:osfinfo.obj
 0001:0001a2f1       ___acrt_lowio_lock_fh      1001b2f1 f   libucrt:osfinfo.obj
 0001:0001a314       ___acrt_lowio_unlock_fh    1001b314 f   libucrt:osfinfo.obj
 0001:0001a337       __free_osfhnd              1001b337 f   libucrt:osfinfo.obj
 0001:0001a3c8       __get_osfhandle            1001b3c8 f   libucrt:osfinfo.obj
 0001:0001a440       _qsort                     1001b440 f   libucrt:qsort.obj
 0001:0001a9e1       _strncpy_s                 1001b9e1 f   libucrt:strncpy_s.obj
 0001:0001a9f0       _strpbrk                   1001b9f0 f   libucrt:strpbrk.obj
 0001:0001aa30       __mbsdec                   1001ba30 f   libucrt:mbsdec.obj
 0001:0001aa47       __mbsdec_l                 1001ba47 f   libucrt:mbsdec.obj
 0001:0001acbe       ___acrt_LCMapStringA       1001bcbe f   libucrt:lcmapstringa.obj
 0001:0001adb8       __commit                   1001bdb8 f   libucrt:commit.obj
 0001:0001b5b0       __write                    1001c5b0 f   libucrt:write.obj
 0001:0001b6a2       __write_nolock             1001c6a2 f   libucrt:write.obj
 0001:0001b87c       ___acrt_GetStringTypeW     1001c87c f   libucrt:getstringtypew.obj
 0001:0001b895       ___ascii_wcsnicmp          1001c895 f   libucrt:wcsnicmp.obj
 0001:0001b8e4       ?__mbrtoc32_utf8@__crt_mbstring@@YAIPA_UPBDIPAU_Mbstatet@@@Z 1001c8e4 f   libucrt:mbrtoc32.obj
 0001:0001ba8b       __controlfp_s              1001ca8b f   libucrt:contrlfp.obj
 0001:0001baea       _fegetenv                  1001caea f   libucrt:fegetenv.obj
 0001:0001bb07       _fesetenv                  1001cb07 f   libucrt:fesetenv.obj
 0001:0001bb52       _feholdexcept              1001cb52 f   libucrt:feholdexcept.obj
 0001:0001bba0       __CIlog10                  1001cba0 f   libucrt:log10_impl.obj
 0001:0001bbdb       __CIlog10_default          1001cbdb f   libucrt:log10_impl.obj
 0001:0001bbef       __log10_default            1001cbef     libucrt:log10_impl.obj
 0001:0001bcb0       _ceil                      1001ccb0 f   libucrt:ceil_pentium4.obj
 0001:0001bcf0       __ceil_pentium4            1001ccf0 f   libucrt:ceil_pentium4.obj
 0001:0001c0ea       ___acrt_fenv_get_common_round_control 1001d0ea f   libucrt:_fenvutils.obj
 0001:0001c10c       ___acrt_fenv_get_control   1001d10c f   libucrt:_fenvutils.obj
 0001:0001c18c       ___acrt_fenv_get_status    1001d18c f   libucrt:_fenvutils.obj
 0001:0001c244       ___acrt_fenv_set_control   1001d244 f   libucrt:_fenvutils.obj
 0001:0001c2ac       ___acrt_fenv_set_status    1001d2ac f   libucrt:_fenvutils.obj
 0001:0001c41f       __lseeki64_nolock          1001d41f f   libucrt:lseek.obj
 0001:0001c43a       __fclose_nolock            1001d43a f   libucrt:fclose.obj
 0001:0001c4b1       _fclose                    1001d4b1 f   libucrt:fclose.obj
 0001:0001c535       __query_app_type           1001d535 f   libucrt:report_runtime_error.obj
 0001:0001c53b       ___strncnt                 1001d53b f   libucrt:strncnt.obj
 0001:0001c557       __putwch_nolock            1001d557 f   libucrt:putwch.obj
 0001:0001c630       __clearfp                  1001d630 f   libucrt:ieee87.obj
 0001:0001c70e       __control87                1001d70e f   libucrt:ieee87.obj
 0001:0001caad       ___acrt_initialize_sse2    1001daad f   libucrt:mathfcns.obj
 0001:0001cac0       __CIlog10_pentium4         1001dac0 f   libucrt:log10_pentium4.obj
 0001:0001cad8       __log10_pentium4           1001dad8     libucrt:log10_pentium4.obj
 0001:0001cd70       __fFEXP                    1001dd70 f   libucrt:87tran.obj
 0001:0001cdc7       __rtinfpopse               1001ddc7     libucrt:87tran.obj
 0001:0001cdc9       __rtinfnpopse              1001ddc9     libucrt:87tran.obj
 0001:0001cdd9       __fFLN                     1001ddd9     libucrt:87tran.obj
 0001:0001ce8e       __rtinfpop                 1001de8e     libucrt:87tran.obj
 0001:0001ce90       __rtinfnpop                1001de90     libucrt:87tran.obj
 0001:0001cea0       __rtforexpinf              1001dea0 f   libucrt:87tran.obj
 0001:0001cead       __ffexpm1                  1001dead     libucrt:87tran.obj
 0001:0001cf60       __trandisp1                1001df60 f   libucrt:87disp.obj
 0001:0001cfd5       __trandisp2                1001dfd5 f   libucrt:87disp.obj
 0001:0001d06f       __rttospopde               1001e06f     libucrt:87disp.obj
 0001:0001d074       __rttospop                 1001e074     libucrt:87disp.obj
 0001:0001d080       __rtnospop                 1001e080 f   libucrt:87disp.obj
 0001:0001d090       __rttosnpop                1001e090 f   libucrt:87disp.obj
 0001:0001d091       __rtnospopde               1001e091     libucrt:87disp.obj
 0001:0001d098       __rtzeropop                1001e098     libucrt:87disp.obj
 0001:0001d09a       __rtzeronpop               1001e09a     libucrt:87disp.obj
 0001:0001d0a0       __rtzerospop               1001e0a0 f   libucrt:87disp.obj
 0001:0001d0ad       __rtonepop                 1001e0ad     libucrt:87disp.obj
 0001:0001d0b0       __rtonenpop                1001e0b0 f   libucrt:87disp.obj
 0001:0001d0c0       __tosnan1                  1001e0c0 f   libucrt:87disp.obj
 0001:0001d0f0       __nosnan2                  1001e0f0 f   libucrt:87disp.obj
 0001:0001d100       __tosnan2                  1001e100 f   libucrt:87disp.obj
 0001:0001d130       __nan2                     1001e130 f   libucrt:87disp.obj
 0001:0001d170       __rtindfpop                1001e170 f   libucrt:87disp.obj
 0001:0001d172       __rtindfnpop               1001e172     libucrt:87disp.obj
 0001:0001d183       __rttosnpopde              1001e183     libucrt:87disp.obj
 0001:0001d190       __rtatan2inf               1001e190 f   libucrt:87disp.obj
 0001:0001d1ad       __rtchsifneg               1001e1ad     libucrt:87disp.obj
 0001:0001d1c0       __twoToTOS                 1001e1c0 f   libucrt:common.obj
 0001:0001d1d5       __load_CW                  1001e1d5 f   libucrt:common.obj
 0001:0001d1ec       __convertTOStoQNaN         1001e1ec f   libucrt:common.obj
 0001:0001d205       __fload_withFB             1001e205 f   libucrt:common.obj
 0001:0001d248       __checkTOS_withFB          1001e248 f   libucrt:common.obj
 0001:0001d25e       __fast_exit                1001e25e f   libucrt:common.obj
 0001:0001d26b       __math_exit                1001e26b f   libucrt:common.obj
 0001:0001d295       __check_overflow_exit      1001e295 f   libucrt:common.obj
 0001:0001d2a9       __check_range_exit         1001e2a9 f   libucrt:common.obj
 0001:0001d350       __startTwoArgErrorHandling 1001e350 f   libucrt:genexcep.obj
 0001:0001d367       __startOneArgErrorHandling 1001e367 f   libucrt:genexcep.obj
 0001:0001d3a3       ___libm_error_support      1001e3a3 f   libucrt:libm_error.obj
 0001:0001d597       __ceil_default             1001e597 f   libucrt:ceil.obj
 0001:0001d6d8       __close                    1001e6d8 f   libucrt:close.obj
 0001:0001d765       __close_nolock             1001e765 f   libucrt:close.obj
 0001:0001d801       ?__acrt_stdio_free_stream@@YAXV__crt_stdio_stream@@@Z 1001e801 f   libucrt:stream.obj
 0001:0001d840       ___ascii_strnicmp          1001e840 f   libucrt:_strnicm.obj
 0001:0001d8c0       ___dcrt_lowio_ensure_console_output_initialized 1001e8c0 f   libucrt:initcon.obj
 0001:0001d8df       ___dcrt_terminate_console_output 1001e8df f   libucrt:initcon.obj
 0001:0001d8f6       ___dcrt_write_console      1001e8f6 f   libucrt:initcon.obj
 0001:0001d94b       ___set_fpsr_sse2           1001e94b f   libucrt:fpctrl.obj
 0001:0001d9cb       __clrfp                    1001e9cb f   libucrt:fpctrl.obj
 0001:0001d9dc       __ctrlfp                   1001e9dc f   libucrt:fpctrl.obj
 0001:0001da06       __set_statfp               1001ea06 f   libucrt:fpctrl.obj
 0001:0001da5f       __statfp                   1001ea5f f   libucrt:fpctrl.obj
 0001:0001da6f       __d_inttype                1001ea6f f   libucrt:powhlp.obj
 0001:0001dad7       __powhlp                   1001ead7 f   libucrt:powhlp.obj
 0001:0001dc02       __87except                 1001ec02 f   libucrt:87except.obj
 0001:0001dd0c       __frnd                     1001ed0c f   libucrt:frnd.obj
 0001:0001dd20       __errcode                  1001ed20 f   libucrt:fpexcept.obj
 0001:0001dd54       __except1                  1001ed54 f   libucrt:fpexcept.obj
 0001:0001de22       __handle_exc               1001ee22 f   libucrt:fpexcept.obj
 0001:0001e00d       __raise_exc                1001f00d f   libucrt:fpexcept.obj
 0001:0001e030       __raise_exc_ex             1001f030 f   libucrt:fpexcept.obj
 0001:0001e326       __set_errno_from_matherr   1001f326 f   libucrt:fpexcept.obj
 0001:0001e355       __umatherr                 1001f355 f   libucrt:fpexcept.obj
 0001:0001e3f5       __decomp                   1001f3f5 f   libucrt:util.obj
 0001:0001e4c7       __set_exp                  1001f4c7 f   libucrt:util.obj
 0001:0001e4f4       __sptype                   1001f4f4 f   libucrt:util.obj
 0001:0001e552       __fpclass                  1001f552 f   libucrt:ieeemisc.obj
 0001:0001e5f6       _IsProcessorFeaturePresent@4 1001f5f6 f   kernel32:KERNEL32.dll
 0001:0001e600       __FindPESection            1001f600 f   LIBCMT:pesect.obj
 0001:0001e650       __IsNonwritableInCurrentImage 1001f650 f   LIBCMT:pesect.obj
 0001:0001e710       __ValidateImageBase        1001f710 f   LIBCMT:pesect.obj
 0001:0001e743       __EH_prolog3_catch         1001f743 f   LIBCMT:ehprolg3.obj
 0001:0001e780       __aulldvrm                 1001f780 f   LIBCMT:ulldvrm.obj
 0001:0001e820       __allmul                   1001f820 f   LIBCMT:llmul.obj
 0001:0001e860       __alldvrm                  1001f860 f   LIBCMT:lldvrm.obj
 0001:0001e940       __allshl                   1001f940 f   LIBCMT:llshl.obj
 0001:0001e960       __aullshr                  1001f960 f   LIBCMT:ullshr.obj
 0001:0001e980       __ftoi2                    1001f980 f   LIBCMT:ftol2.obj
 0001:0001e980       __ftol2_sse_excpt          1001f980     LIBCMT:ftol2.obj
 0001:0001e980       __ftol2_sse                1001f980     LIBCMT:ftol2.obj
 0001:0001ea00       __ftoui2                   1001fa00 f   LIBCMT:ftol2.obj
 0001:0001eab0       __ftol2                    1001fab0 f   LIBCMT:ftol2.obj
 0001:0001eb60       __ftoul2                   1001fb60 f   LIBCMT:ftol2.obj
 0001:0001ec20       _strrchr                   1001fc20 f   libvcruntime:strrchr.obj
 0001:0001ed60       _strchr                    1001fd60 f   libvcruntime:strchr.obj
 0001:0001edce       ___from_strstr_to_strchr   1001fdce     libvcruntime:strchr.obj
 0001:0001ee8b       __filter_x86_sse2_floating_point_exception 1001fe8b f   LIBCMT:x86_exception_filter.obj
 0001:0001ee8b       __filter_x86_sse2_floating_point_exception_default 1001fe8b f   LIBCMT:x86_exception_filter.obj
 0002:00000000       __imp__RegQueryValueExW@24 10020000     advapi32:ADVAPI32.dll
 0002:00000004       __imp__RegSetValueExW@24   10020004     advapi32:ADVAPI32.dll
 0002:00000008       __imp__RegQueryInfoKeyW@48 10020008     advapi32:ADVAPI32.dll
 0002:0000000c       __imp__RegOpenKeyExW@20    1002000c     advapi32:ADVAPI32.dll
 0002:00000010       __imp__RegEnumKeyExW@32    10020010     advapi32:ADVAPI32.dll
 0002:00000014       __imp__RegDeleteValueW@8   10020014     advapi32:ADVAPI32.dll
 0002:00000018       __imp__RegDeleteKeyW@8     10020018     advapi32:ADVAPI32.dll
 0002:0000001c       __imp__RegCreateKeyExW@36  1002001c     advapi32:ADVAPI32.dll
 0002:00000020       __imp__RegCloseKey@4       10020020     advapi32:ADVAPI32.dll
 0002:00000024       \177ADVAPI32_NULL_THUNK_DATA 10020024     advapi32:ADVAPI32.dll
 0002:00000028       __imp__GetObjectW@12       10020028     gdi32:GDI32.dll
 0002:0000002c       __imp__SelectObject@8      1002002c     gdi32:GDI32.dll
 0002:00000030       __imp__DeleteObject@4      10020030     gdi32:GDI32.dll
 0002:00000034       __imp__CreateCompatibleDC@4 10020034     gdi32:GDI32.dll
 0002:00000038       __imp__BitBlt@36           10020038     gdi32:GDI32.dll
 0002:0000003c       __imp__SetWindowOrgEx@16   1002003c     gdi32:GDI32.dll
 0002:00000040       __imp__SetWindowExtEx@16   10020040     gdi32:GDI32.dll
 0002:00000044       __imp__SetViewportOrgEx@16 10020044     gdi32:GDI32.dll
 0002:00000048       __imp__LPtoDP@12           10020048     gdi32:GDI32.dll
 0002:0000004c       __imp__SetMapMode@8        1002004c     gdi32:GDI32.dll
 0002:00000050       __imp__SaveDC@4            10020050     gdi32:GDI32.dll
 0002:00000054       __imp__RestoreDC@8         10020054     gdi32:GDI32.dll
 0002:00000058       __imp__GetDeviceCaps@8     10020058     gdi32:GDI32.dll
 0002:0000005c       __imp__DeleteMetaFile@4    1002005c     gdi32:GDI32.dll
 0002:00000060       __imp__DeleteDC@4          10020060     gdi32:GDI32.dll
 0002:00000064       __imp__CreateRectRgnIndirect@4 10020064     gdi32:GDI32.dll
 0002:00000068       __imp__CreateMetaFileW@4   10020068     gdi32:GDI32.dll
 0002:0000006c       __imp__CreateDCW@16        1002006c     gdi32:GDI32.dll
 0002:00000070       __imp__CloseMetaFile@4     10020070     gdi32:GDI32.dll
 0002:00000074       \177GDI32_NULL_THUNK_DATA  10020074     gdi32:GDI32.dll
 0002:00000078       __imp__CloseHandle@4       10020078     kernel32:KERNEL32.dll
 0002:0000007c       __imp__SetEvent@4          1002007c     kernel32:KERNEL32.dll
 0002:00000080       __imp__CreateMutexW@12     10020080     kernel32:KERNEL32.dll
 0002:00000084       __imp__CreateEventW@16     10020084     kernel32:KERNEL32.dll
 0002:00000088       __imp__GetCurrentProcessId@0 10020088     kernel32:KERNEL32.dll
 0002:0000008c       __imp__CreateFileW@28      1002008c     kernel32:KERNEL32.dll
 0002:00000090       __imp__GetConsoleMode@8    10020090     kernel32:KERNEL32.dll
 0002:00000094       __imp__GetConsoleOutputCP@0 10020094     kernel32:KERNEL32.dll
 0002:00000098       __imp__WriteFile@20        10020098     kernel32:KERNEL32.dll
 0002:0000009c       __imp__FlushFileBuffers@4  1002009c     kernel32:KERNEL32.dll
 0002:000000a0       __imp__SetStdHandle@8      100200a0     kernel32:KERNEL32.dll
 0002:000000a4       __imp__GetStringTypeW@16   100200a4     kernel32:KERNEL32.dll
 0002:000000a8       __imp__SetFilePointerEx@20 100200a8     kernel32:KERNEL32.dll
 0002:000000ac       __imp__FreeEnvironmentStringsW@4 100200ac     kernel32:KERNEL32.dll
 0002:000000b0       __imp__GetEnvironmentStringsW@0 100200b0     kernel32:KERNEL32.dll
 0002:000000b4       __imp__lstrcmpiW@8         100200b4     kernel32:KERNEL32.dll
 0002:000000b8       __imp__GetCommandLineA@0   100200b8     kernel32:KERNEL32.dll
 0002:000000bc       __imp__GetCPInfo@8         100200bc     kernel32:KERNEL32.dll
 0002:000000c0       __imp__GetOEMCP@0          100200c0     kernel32:KERNEL32.dll
 0002:000000c4       __imp__GetACP@0            100200c4     kernel32:KERNEL32.dll
 0002:000000c8       __imp__IsValidCodePage@4   100200c8     kernel32:KERNEL32.dll
 0002:000000cc       __imp__FindNextFileW@8     100200cc     kernel32:KERNEL32.dll
 0002:000000d0       __imp__FindFirstFileExW@24 100200d0     kernel32:KERNEL32.dll
 0002:000000d4       __imp__FindClose@4         100200d4     kernel32:KERNEL32.dll
 0002:000000d8       __imp__GetFileType@4       100200d8     kernel32:KERNEL32.dll
 0002:000000dc       __imp__GetStdHandle@4      100200dc     kernel32:KERNEL32.dll
 0002:000000e0       __imp__LCMapStringW@24     100200e0     kernel32:KERNEL32.dll
 0002:000000e4       __imp__HeapReAlloc@16      100200e4     kernel32:KERNEL32.dll
 0002:000000e8       __imp__HeapSize@12         100200e8     kernel32:KERNEL32.dll
 0002:000000ec       __imp__MulDiv@12           100200ec     kernel32:KERNEL32.dll
 0002:000000f0       __imp__GlobalLock@4        100200f0     kernel32:KERNEL32.dll
 0002:000000f4       __imp__GlobalUnlock@4      100200f4     kernel32:KERNEL32.dll
 0002:000000f8       __imp__GlobalAlloc@8       100200f8     kernel32:KERNEL32.dll
 0002:000000fc       __imp__FindResourceW@12    100200fc     kernel32:KERNEL32.dll
 0002:00000100       __imp__SizeofResource@8    10020100     kernel32:KERNEL32.dll
 0002:00000104       __imp__LoadResource@8      10020104     kernel32:KERNEL32.dll
 0002:00000108       __imp__LoadLibraryExW@12   10020108     kernel32:KERNEL32.dll
 0002:0000010c       __imp__GetProcAddress@8    1002010c     kernel32:KERNEL32.dll
 0002:00000110       __imp__GetModuleHandleW@4  10020110     kernel32:KERNEL32.dll
 0002:00000114       __imp__GetModuleFileNameW@12 10020114     kernel32:KERNEL32.dll
 0002:00000118       __imp__FreeLibrary@4       10020118     kernel32:KERNEL32.dll
 0002:0000011c       __imp__DisableThreadLibraryCalls@4 1002011c     kernel32:KERNEL32.dll
 0002:00000120       __imp__GetCurrentThreadId@0 10020120     kernel32:KERNEL32.dll
 0002:00000124       __imp__Sleep@4             10020124     kernel32:KERNEL32.dll
 0002:00000128       __imp__WaitForSingleObject@8 10020128     kernel32:KERNEL32.dll
 0002:0000012c       __imp__ReleaseMutex@4      1002012c     kernel32:KERNEL32.dll
 0002:00000130       __imp__ResetEvent@4        10020130     kernel32:KERNEL32.dll
 0002:00000134       __imp__EnterCriticalSection@4 10020134     kernel32:KERNEL32.dll
 0002:00000138       __imp__LeaveCriticalSection@4 10020138     kernel32:KERNEL32.dll
 0002:0000013c       __imp__SetLastError@4      1002013c     kernel32:KERNEL32.dll
 0002:00000140       __imp__EncodePointer@4     10020140     kernel32:KERNEL32.dll
 0002:00000144       __imp__DeleteCriticalSection@4 10020144     kernel32:KERNEL32.dll
 0002:00000148       __imp__InitializeCriticalSectionEx@12 10020148     kernel32:KERNEL32.dll
 0002:0000014c       __imp__GetLastError@0      1002014c     kernel32:KERNEL32.dll
 0002:00000150       __imp__RaiseException@16   10020150     kernel32:KERNEL32.dll
 0002:00000154       __imp__DecodePointer@4     10020154     kernel32:KERNEL32.dll
 0002:00000158       __imp__WideCharToMultiByte@32 10020158     kernel32:KERNEL32.dll
 0002:0000015c       __imp__GetCommandLineW@0   1002015c     kernel32:KERNEL32.dll
 0002:00000160       __imp__MultiByteToWideChar@24 10020160     kernel32:KERNEL32.dll
 0002:00000164       __imp__WriteConsoleW@20    10020164     kernel32:KERNEL32.dll
 0002:00000168       __imp__GetModuleHandleExW@12 10020168     kernel32:KERNEL32.dll
 0002:0000016c       __imp__ExitProcess@4       1002016c     kernel32:KERNEL32.dll
 0002:00000170       __imp__VirtualQuery@12     10020170     kernel32:KERNEL32.dll
 0002:00000174       __imp__VirtualProtect@16   10020174     kernel32:KERNEL32.dll
 0002:00000178       __imp__GetSystemInfo@4     10020178     kernel32:KERNEL32.dll
 0002:0000017c       __imp__TlsFree@4           1002017c     kernel32:KERNEL32.dll
 0002:00000180       __imp__TlsSetValue@8       10020180     kernel32:KERNEL32.dll
 0002:00000184       __imp__TlsGetValue@4       10020184     kernel32:KERNEL32.dll
 0002:00000188       __imp__TlsAlloc@0          10020188     kernel32:KERNEL32.dll
 0002:0000018c       __imp__InterlockedFlushSList@4 1002018c     kernel32:KERNEL32.dll
 0002:00000190       __imp__RtlUnwind@16        10020190     kernel32:KERNEL32.dll
 0002:00000194       __imp__LoadLibraryExA@12   10020194     kernel32:KERNEL32.dll
 0002:00000198       __imp__VirtualFree@12      10020198     kernel32:KERNEL32.dll
 0002:0000019c       __imp__VirtualAlloc@16     1002019c     kernel32:KERNEL32.dll
 0002:000001a0       __imp__FlushInstructionCache@12 100201a0     kernel32:KERNEL32.dll
 0002:000001a4       __imp__InterlockedPushEntrySList@8 100201a4     kernel32:KERNEL32.dll
 0002:000001a8       __imp__InterlockedPopEntrySList@4 100201a8     kernel32:KERNEL32.dll
 0002:000001ac       __imp__GetProcessHeap@0    100201ac     kernel32:KERNEL32.dll
 0002:000001b0       __imp__HeapFree@12         100201b0     kernel32:KERNEL32.dll
 0002:000001b4       __imp__HeapAlloc@12        100201b4     kernel32:KERNEL32.dll
 0002:000001b8       __imp__OutputDebugStringW@4 100201b8     kernel32:KERNEL32.dll
 0002:000001bc       __imp__InitializeSListHead@4 100201bc     kernel32:KERNEL32.dll
 0002:000001c0       __imp__GetSystemTimeAsFileTime@4 100201c0     kernel32:KERNEL32.dll
 0002:000001c4       __imp__QueryPerformanceCounter@4 100201c4     kernel32:KERNEL32.dll
 0002:000001c8       __imp__GetStartupInfoW@4   100201c8     kernel32:KERNEL32.dll
 0002:000001cc       __imp__IsDebuggerPresent@0 100201cc     kernel32:KERNEL32.dll
 0002:000001d0       __imp__IsProcessorFeaturePresent@4 100201d0     kernel32:KERNEL32.dll
 0002:000001d4       __imp__TerminateProcess@8  100201d4     kernel32:KERNEL32.dll
 0002:000001d8       __imp__GetCurrentProcess@0 100201d8     kernel32:KERNEL32.dll
 0002:000001dc       __imp__SetUnhandledExceptionFilter@4 100201dc     kernel32:KERNEL32.dll
 0002:000001e0       __imp__UnhandledExceptionFilter@4 100201e0     kernel32:KERNEL32.dll
 0002:000001e4       __imp__InitializeCriticalSectionAndSpinCount@8 100201e4     kernel32:KERNEL32.dll
 0002:000001e8       __imp__WaitForSingleObjectEx@12 100201e8     kernel32:KERNEL32.dll
 0002:000001ec       \177KERNEL32_NULL_THUNK_DATA 100201ec     kernel32:KERNEL32.dll
 0002:000001f0       __imp__OleCreatePropertyFrame@44 100201f0     oleaut32:OLEAUT32.dll
 0002:000001f4       __imp__UnRegisterTypeLib@20 100201f4     oleaut32:OLEAUT32.dll
 0002:000001f8       __imp__RegisterTypeLib@12  100201f8     oleaut32:OLEAUT32.dll
 0002:000001fc       __imp__LoadRegTypeLib@20   100201fc     oleaut32:OLEAUT32.dll
 0002:00000200       __imp__LoadTypeLib@8       10020200     oleaut32:OLEAUT32.dll
 0002:00000204       __imp__VarUI4FromStr@16    10020204     oleaut32:OLEAUT32.dll
 0002:00000208       __imp__VariantInit@4       10020208     oleaut32:OLEAUT32.dll
 0002:0000020c       __imp__SysAllocStringByteLen@8 1002020c     oleaut32:OLEAUT32.dll
 0002:00000210       __imp__SysStringByteLen@4  10020210     oleaut32:OLEAUT32.dll
 0002:00000214       __imp__VariantChangeType@16 10020214     oleaut32:OLEAUT32.dll
 0002:00000218       __imp__VariantClear@4      10020218     oleaut32:OLEAUT32.dll
 0002:0000021c       __imp__SysStringLen@4      1002021c     oleaut32:OLEAUT32.dll
 0002:00000220       __imp__SysFreeString@4     10020220     oleaut32:OLEAUT32.dll
 0002:00000224       __imp__SysAllocStringLen@8 10020224     oleaut32:OLEAUT32.dll
 0002:00000228       __imp__SysAllocString@4    10020228     oleaut32:OLEAUT32.dll
 0002:0000022c       \177OLEAUT32_NULL_THUNK_DATA 1002022c     oleaut32:OLEAUT32.dll
 0002:00000230       __imp__UnregisterClassW@8  10020230     user32:USER32.dll
 0002:00000234       __imp__PostMessageW@16     10020234     user32:USER32.dll
 0002:00000238       __imp__DefWindowProcW@16   10020238     user32:USER32.dll
 0002:0000023c       __imp__CallWindowProcW@20  1002023c     user32:USER32.dll
 0002:00000240       __imp__RegisterClassExW@4  10020240     user32:USER32.dll
 0002:00000244       __imp__GetClassInfoExW@12  10020244     user32:USER32.dll
 0002:00000248       __imp__CreateWindowExW@48  10020248     user32:USER32.dll
 0002:0000024c       __imp__IsWindow@4          1002024c     user32:USER32.dll
 0002:00000250       __imp__IsChild@8           10020250     user32:USER32.dll
 0002:00000254       __imp__DestroyWindow@4     10020254     user32:USER32.dll
 0002:00000258       __imp__ShowWindow@8        10020258     user32:USER32.dll
 0002:0000025c       __imp__SetWindowPos@28     1002025c     user32:USER32.dll
 0002:00000260       __imp__CharNextW@4         10020260     user32:USER32.dll
 0002:00000264       __imp__SetFocus@4          10020264     user32:USER32.dll
 0002:00000268       __imp__LoadBitmapW@8       10020268     user32:USER32.dll
 0002:0000026c       __imp__RegisterClassW@4    1002026c     user32:USER32.dll
 0002:00000270       __imp__PeekMessageW@20     10020270     user32:USER32.dll
 0002:00000274       __imp__LoadCursorW@8       10020274     user32:USER32.dll
 0002:00000278       __imp__GetParent@4         10020278     user32:USER32.dll
 0002:0000027c       __imp__SetWindowLongW@12   1002027c     user32:USER32.dll
 0002:00000280       __imp__GetWindowLongW@8    10020280     user32:USER32.dll
 0002:00000284       __imp__PtInRect@12         10020284     user32:USER32.dll
 0002:00000288       __imp__EqualRect@8         10020288     user32:USER32.dll
 0002:0000028c       __imp__OffsetRect@12       1002028c     user32:USER32.dll
 0002:00000290       __imp__UnionRect@12        10020290     user32:USER32.dll
 0002:00000294       __imp__IntersectRect@12    10020294     user32:USER32.dll
 0002:00000298       __imp__GetClientRect@8     10020298     user32:USER32.dll
 0002:0000029c       __imp__InvalidateRect@12   1002029c     user32:USER32.dll
 0002:000002a0       __imp__SetWindowRgn@12     100202a0     user32:USER32.dll
 0002:000002a4       __imp__EndPaint@8          100202a4     user32:USER32.dll
 0002:000002a8       __imp__BeginPaint@8        100202a8     user32:USER32.dll
 0002:000002ac       __imp__ReleaseDC@8         100202ac     user32:USER32.dll
 0002:000002b0       __imp__GetDC@4             100202b0     user32:USER32.dll
 0002:000002b4       __imp__GetKeyState@4       100202b4     user32:USER32.dll
 0002:000002b8       __imp__GetFocus@0          100202b8     user32:USER32.dll
 0002:000002bc       \177USER32_NULL_THUNK_DATA 100202bc     user32:USER32.dll
 0002:000002c0       __imp__StringFromGUID2@12  100202c0     ole32:ole32.dll
 0002:000002c4       __imp__CoTaskMemAlloc@4    100202c4     ole32:ole32.dll
 0002:000002c8       __imp__CoTaskMemRealloc@8  100202c8     ole32:ole32.dll
 0002:000002cc       __imp__CoTaskMemFree@4     100202cc     ole32:ole32.dll
 0002:000002d0       __imp__ReadClassStm@8      100202d0     ole32:ole32.dll
 0002:000002d4       __imp__WriteClassStm@8     100202d4     ole32:ole32.dll
 0002:000002d8       __imp__CreateDataAdviseHolder@4 100202d8     ole32:ole32.dll
 0002:000002dc       __imp__OleSaveToStream@8   100202dc     ole32:ole32.dll
 0002:000002e0       __imp__CreateOleAdviseHolder@4 100202e0     ole32:ole32.dll
 0002:000002e4       __imp__OleRegGetUserType@12 100202e4     ole32:ole32.dll
 0002:000002e8       __imp__OleRegGetMiscStatus@12 100202e8     ole32:ole32.dll
 0002:000002ec       __imp__OleRegEnumVerbs@8   100202ec     ole32:ole32.dll
 0002:000002f0       __imp__CLSIDFromProgID@8   100202f0     ole32:ole32.dll
 0002:000002f4       __imp__CoCreateInstance@20 100202f4     ole32:ole32.dll
 0002:000002f8       \177ole32_NULL_THUNK_DATA  100202f8     ole32:ole32.dll
 0002:000002fc       ___guard_check_icall_fptr  100202fc     LIBCMT:guard_support.obj
 0002:00000300       ___xc_a                    10020300     LIBCMT:initializers.obj
 0002:00000318       ___xc_z                    10020318     LIBCMT:initializers.obj
 0002:0000031c       ___xi_a                    1002031c     LIBCMT:initializers.obj
 0002:00000324       ___acrt_stdio_initializer  10020324     libucrt:stdio_initializer.obj
 0002:00000328       ___acrt_multibyte_initializer 10020328     libucrt:multibyte_initializer.obj
 0002:0000032c       ___acrt_tran_sse2_initializer 1002032c     libucrt:sse2_initializer.obj
 0002:00000330       ___xi_z                    10020330     LIBCMT:initializers.obj
 0002:00000334       ___xl_a                    10020334     LIBCMT:tlssup.obj
 0002:00000338       ___xl_z                    10020338     LIBCMT:tlssup.obj
 0002:0000033c       ___xp_a                    1002033c     LIBCMT:initializers.obj
 0002:00000340       ___acrt_locale_terminator  10020340     libucrt:locale_initializer.obj
 0002:00000344       ___dcrt_console_output_terminator 10020344     libucrt:console_output_initializer.obj
 0002:00000348       ___acrt_stdio_terminator   10020348     libucrt:stdio_initializer.obj
 0002:0000034c       ___xp_z                    1002034c     LIBCMT:initializers.obj
 0002:00000350       ___xt_a                    10020350     LIBCMT:initializers.obj
 0002:00000354       ___xt_z                    10020354     LIBCMT:initializers.obj
 0002:00000360       ??_C@_13HADIAKP@?$AAS@     10020360     OposVariant.obj
 0002:00000364       ??_C@_13LHMFKAAD@?$AAM@    10020364     OposVariant.obj
 0002:00000368       ??_C@_13MKMNOPIJ@?$AAD@    10020368     OposVariant.obj
 0002:0000036c       ??_C@_13OPKGLAFF@?$AAB@    1002036c     OposVariant.obj
 0002:00000370       ??_C@_17LLMMEOJD@?$AAV?$AAa?$AAl@ 10020370     OposVariant.obj
 0002:00000378       ??_C@_1BI@JFAIJMHL@?$AAF?$AAo?$AAr?$AAc?$AAe?$AAR?$AAe?$AAm?$AAo?$AAv?$AAe@ 10020378     OposVariant.obj
 0002:00000390       ??_C@_1BC@GCKHIPE@?$AAN?$AAo?$AAR?$AAe?$AAm?$AAo?$AAv?$AAe@ 10020390     OposVariant.obj
 0002:000003a4       ??_C@_1O@JDLOHAN@?$AAD?$AAe?$AAl?$AAe?$AAt?$AAe@ 100203a4     OposVariant.obj
 0002:000003b4       ??_C@_11LOCGONAA@@         100203b4     OposVariant.obj
 0002:000003b8       ?_entries@?1??_GetEntries@?$CComEnum@UIEnumConnections@@$1?_GUID_b196b287_bab4_101a_b69c_00aa00341d07@@3U__s_GUID@@BUtagCONNECTDATA@@V?$_Copy@UtagCONNECTDATA@@@ATL@@VCComSingleThreadModel@6@@ATL@@SGPBU_ATL_INTMAP_ENTRY@3@XZ@4QBU43@B 100203b8     RemoteOrderDisplay.obj
 0002:000003d0       ??_7CComClassFactory@ATL@@6B@ 100203d0     RemoteOrderDisplay.obj
 0002:000003e8       ?_entries@?1??_GetEntries@CComClassFactory@ATL@@SGPBU_ATL_INTMAP_ENTRY@3@XZ@4QBU43@B 100203e8     RemoteOrderDisplay.obj
 0002:00000400       __GUID_00000001_0000_0000_c000_000000000046 10020400     RemoteOrderDisplay.obj
 0002:00000410       _IID_IOPOSRemoteOrderDisplay_1_5 10020410     RemoteOrderDisplay.obj
 0002:00000420       _IID_IOPOSRemoteOrderDisplay_1_7 10020420     RemoteOrderDisplay.obj
 0002:00000430       _IID_IOPOSRemoteOrderDisplay_1_8 10020430     RemoteOrderDisplay.obj
 0002:00000440       _IID_IOPOSRemoteOrderDisplay_1_9 10020440     RemoteOrderDisplay.obj
 0002:00000450       ??_C@_1BK@BIGILECK@?$AAA?$AAd?$AAv?$AAa?$AAp?$AAi?$AA3?$AA2?$AA?4?$AAd?$AAl?$AAl@ 10020450     RemoteOrderDisplay.obj
 0002:0000046c       _IID_IOPOSRemoteOrderDisplay 1002046c     RemoteOrderDisplay.obj
 0002:0000047c       _LIBID_OposRemoteOrderDisplay_CCO 1002047c     RemoteOrderDisplay.obj
 0002:0000048c       _DIID__IOPOSRemoteOrderDisplayEvents 1002048c     RemoteOrderDisplay.obj
 0002:0000049c       __GUID_00000114_0000_0000_c000_000000000046 1002049c     RemoteOrderDisplay.obj
 0002:000004ac       _CLSID_OPOSRemoteOrderDisplay 100204ac     RemoteOrderDisplay.obj
 0002:000004bc       ??_C@_0BI@MNCFCPFK@RegCreateKeyTransactedW@ 100204bc     RemoteOrderDisplay.obj
 0002:000004d4       __GUID_b196b287_bab4_101a_b69c_00aa00341d07 100204d4     RemoteOrderDisplay.obj
 0002:000004e4       __GUID_b196b285_bab4_101a_b69c_00aa00341d07 100204e4     RemoteOrderDisplay.obj
 0002:000004f4       __GUID_a6bc3ac0_dbaa_11ce_9de3_00aa004bb851 100204f4     RemoteOrderDisplay.obj
 0002:00000504       __GUID_0000010c_0000_0000_c000_000000000046 10020504     RemoteOrderDisplay.obj
 0002:00000514       __GUID_00000146_0000_0000_c000_000000000046 10020514     RemoteOrderDisplay.obj
 0002:00000524       ??_7CComModule@ATL@@6B@    10020524     RemoteOrderDisplay.obj
 0002:00000550       ?_entries@?1??_GetEntries@COPOSRemoteOrderDisplay@@SGPBU_ATL_INTMAP_ENTRY@ATL@@XZ@4QBU34@B 10020550     RemoteOrderDisplay.obj
 0002:00000694       __GUID_922eada0_3424_11cf_b670_00aa004cd6d8 10020694     RemoteOrderDisplay.obj
 0002:000006a4       __GUID_9c2cad80_3424_11cf_b670_00aa004cd6d8 100206a4     RemoteOrderDisplay.obj
 0002:000006b4       __GUID_00000119_0000_0000_c000_000000000046 100206b4     RemoteOrderDisplay.obj
 0002:000006c4       __GUID_b196b289_bab4_101a_b69c_00aa00341d07 100206c4     RemoteOrderDisplay.obj
 0002:000006d4       __GUID_00000000_0000_0000_c000_000000000046 100206d4     RemoteOrderDisplay.obj
 0002:000006e4       __GUID_00020400_0000_0000_c000_000000000046 100206e4     RemoteOrderDisplay.obj
 0002:000006f4       __GUID_cf51ed10_62fe_11cf_bf86_00a0c9034836 100206f4     RemoteOrderDisplay.obj
 0002:00000704       __GUID_0000010a_0000_0000_c000_000000000046 10020704     RemoteOrderDisplay.obj
 0002:00000714       __GUID_b196b283_bab4_101a_b69c_00aa00341d07 10020714     RemoteOrderDisplay.obj
 0002:00000724       __GUID_cb5bdc81_93c1_11cf_8f20_00805f2cd064 10020724     RemoteOrderDisplay.obj
 0002:00000738       ?pPropMap@?1??GetPropertyMap@COPOSRemoteOrderDisplay@@SAPBUATL_PROPMAP_ENTRY@ATL@@XZ@4QBU34@B 10020738     RemoteOrderDisplay.obj
 0002:000007a4       ??_C@_17DGDADEHL@?$AA_?$AAc?$AAx@ 100207a4     RemoteOrderDisplay.obj
 0002:000007ac       ??_C@_17IOIMFDBO@?$AA_?$AAc?$AAy@ 100207ac     RemoteOrderDisplay.obj
 0002:000007b4       __GUID_00000117_0000_0000_c000_000000000046 100207b4     RemoteOrderDisplay.obj
 0002:000007c4       ??_7?$CComObjectCached@VCComClassFactory@ATL@@@ATL@@6B@ 100207c4     RemoteOrderDisplay.obj
 0002:000007dc       ??_C@_1CE@PGFMOFKI@?$AAS?$AAt?$AAa?$AAt?$AAu?$AAs?$AAU?$AAp?$AAd?$AAa?$AAt?$AAe?$AAE?$AAv?$AAe@ 100207dc     RemoteOrderDisplay.obj
 0002:00000800       ??_C@_1CI@HLBJDONE@?$AAO?$AAu?$AAt?$AAp?$AAu?$AAt?$AAC?$AAo?$AAm?$AAp?$AAl?$AAe?$AAt?$AAe?$AAE@ 10020800     RemoteOrderDisplay.obj
 0002:00000828       ??_C@_1BG@LODEBHDD@?$AAE?$AAr?$AAr?$AAo?$AAr?$AAE?$AAv?$AAe?$AAn?$AAt@ 10020828     RemoteOrderDisplay.obj
 0002:00000840       ??_C@_1BM@CBGEBBBJ@?$AAD?$AAi?$AAr?$AAe?$AAc?$AAt?$AAI?$AAO?$AAE?$AAv?$AAe?$AAn?$AAt@ 10020840     RemoteOrderDisplay.obj
 0002:0000085c       ??_C@_1BE@IEBMACEM@?$AAD?$AAa?$AAt?$AAa?$AAE?$AAv?$AAe?$AAn?$AAt@ 1002085c     RemoteOrderDisplay.obj
 0002:00000870       __GUID_b196b286_bab4_101a_b69c_00aa00341d07 10020870     RemoteOrderDisplay.obj
 0002:00000880       ??_C@_1BC@ENICKDH@?$AAC?$AAo?$AAn?$AAt?$AAe?$AAn?$AAt?$AAs@ 10020880     RemoteOrderDisplay.obj
 0002:00000894       ??_7?$CComObject@V?$CComEnum@UIEnumConnectionPoints@@$1?_GUID_b196b285_bab4_101a_b69c_00aa00341d07@@3U__s_GUID@@BPAUIConnectionPoint@@V?$_CopyInterface@UIConnectionPoint@@@ATL@@VCComSingleThreadModel@6@@ATL@@@ATL@@6B@ 10020894     RemoteOrderDisplay.obj
 0002:000008b4       ??_C@_1M@KANJNLFF@?$AAC?$AAL?$AAS?$AAI?$AAD@ 100208b4     RemoteOrderDisplay.obj
 0002:000008c0       ??_C@_1M@EJNEECMJ@?$AAA?$AAp?$AAp?$AAI?$AAD@ 100208c0     RemoteOrderDisplay.obj
 0002:000008cc       __GUID_0000010e_0000_0000_c000_000000000046 100208cc     RemoteOrderDisplay.obj
 0002:000008dc       __GUID_b196b288_bab4_101a_b69c_00aa00341d07 100208dc     RemoteOrderDisplay.obj
 0002:000008ec       ?rgszNeverDelete@CRegParser@ATL@@1QBQB_WB 100208ec     RemoteOrderDisplay.obj
 0002:0000091c       ??_7CRegObject@ATL@@6B@    1002091c     RemoteOrderDisplay.obj
 0002:00000934       __GUID_00000113_0000_0000_c000_000000000046 10020934     RemoteOrderDisplay.obj
 0002:00000944       __GUID_1c2056cc_5ef4_101b_8bc8_00aa003e3b29 10020944     RemoteOrderDisplay.obj
 0002:00000954       ??_C@_1CK@OEKPKBNA@?$AAC?$AAo?$AAm?$AAp?$AAo?$AAn?$AAe?$AAn?$AAt?$AA?5?$AAC?$AAa?$AAt?$AAe?$AAg@ 10020954     RemoteOrderDisplay.obj
 0002:00000980       ??_C@_1BC@NKMMNMGL@?$AAF?$AAi?$AAl?$AAe?$AAT?$AAy?$AAp?$AAe@ 10020980     RemoteOrderDisplay.obj
 0002:00000994       ??_C@_1BE@EKPAFMCP@?$AAI?$AAn?$AAt?$AAe?$AAr?$AAf?$AAa?$AAc?$AAe@ 10020994     RemoteOrderDisplay.obj
 0002:000009a8       ??_C@_1BC@MAICEHGI@?$AAH?$AAa?$AAr?$AAd?$AAw?$AAa?$AAr?$AAe@ 100209a8     RemoteOrderDisplay.obj
 0002:000009bc       ??_C@_19HLLLM@?$AAM?$AAi?$AAm?$AAe@ 100209bc     RemoteOrderDisplay.obj
 0002:000009c8       ??_C@_17OMAOINJK@?$AAS?$AAA?$AAM@ 100209c8     RemoteOrderDisplay.obj
 0002:000009d0       ??_C@_1BC@IBECJAAI@?$AAS?$AAE?$AAC?$AAU?$AAR?$AAI?$AAT?$AAY@ 100209d0     RemoteOrderDisplay.obj
 0002:000009e4       ??_C@_1O@GBFINDKL@?$AAS?$AAY?$AAS?$AAT?$AAE?$AAM@ 100209e4     RemoteOrderDisplay.obj
 0002:000009f4       ??_C@_1BC@EAHCMADO@?$AAS?$AAo?$AAf?$AAt?$AAw?$AAa?$AAr?$AAe@ 100209f4     RemoteOrderDisplay.obj
 0002:00000a08       ??_C@_1BA@JIHHIEDE@?$AAT?$AAy?$AAp?$AAe?$AAL?$AAi?$AAb@ 10020a08     RemoteOrderDisplay.obj
 0002:00000a18       ?map@?1??HKeyFromString@CRegParser@ATL@@KAPAUHKEY__@@PA_W@Z@4QBUkeymap@?1??123@KAPAU4@0@Z@B 10020a18     RemoteOrderDisplay.obj
 0002:00000a88       ??_C@_19NCHLBIN@?$AAH?$AAK?$AAC?$AAR@ 10020a88     RemoteOrderDisplay.obj
 0002:00000a94       ??_C@_19JAPAIJDE@?$AAH?$AAK?$AAC?$AAU@ 10020a94     RemoteOrderDisplay.obj
 0002:00000aa0       ??_C@_19PEALEEJB@?$AAH?$AAK?$AAL?$AAM@ 10020aa0     RemoteOrderDisplay.obj
 0002:00000aac       ??_C@_17PJOJPMPB@?$AAH?$AAK?$AAU@ 10020aac     RemoteOrderDisplay.obj
 0002:00000ab4       ??_C@_19PNBHMJPL@?$AAH?$AAK?$AAP?$AAD@ 10020ab4     RemoteOrderDisplay.obj
 0002:00000ac0       ??_C@_19GFFAIJHG@?$AAH?$AAK?$AAD?$AAD@ 10020ac0     RemoteOrderDisplay.obj
 0002:00000acc       ??_C@_19OFICIBHH@?$AAH?$AAK?$AAC?$AAC@ 10020acc     RemoteOrderDisplay.obj
 0002:00000ad8       ??_C@_1CE@PACHPJFI@?$AAH?$AAK?$AAE?$AAY?$AA_?$AAC?$AAL?$AAA?$AAS?$AAS?$AAE?$AAS?$AA_?$AAR?$AAO@ 10020ad8     RemoteOrderDisplay.obj
 0002:00000afc       ??_C@_1CE@HLHNCBPM@?$AAH?$AAK?$AAE?$AAY?$AA_?$AAC?$AAU?$AAR?$AAR?$AAE?$AAN?$AAT?$AA_?$AAU?$AAS@ 10020afc     RemoteOrderDisplay.obj
 0002:00000b20       ??_C@_1CG@GFBEANJL@?$AAH?$AAK?$AAE?$AAY?$AA_?$AAL?$AAO?$AAC?$AAA?$AAL?$AA_?$AAM?$AAA?$AAC?$AAH@ 10020b20     RemoteOrderDisplay.obj
 0002:00000b48       ??_C@_1BG@BGODANIO@?$AAH?$AAK?$AAE?$AAY?$AA_?$AAU?$AAS?$AAE?$AAR?$AAS@ 10020b48     RemoteOrderDisplay.obj
 0002:00000b60       ??_C@_1CM@KHNNAOIC@?$AAH?$AAK?$AAE?$AAY?$AA_?$AAP?$AAE?$AAR?$AAF?$AAO?$AAR?$AAM?$AAA?$AAN?$AAC@ 10020b60     RemoteOrderDisplay.obj
 0002:00000b8c       ??_C@_1BM@HAGMMHIA@?$AAH?$AAK?$AAE?$AAY?$AA_?$AAD?$AAY?$AAN?$AA_?$AAD?$AAA?$AAT?$AAA@ 10020b8c     RemoteOrderDisplay.obj
 0002:00000ba8       ??_C@_1CI@BBJOACGG@?$AAH?$AAK?$AAE?$AAY?$AA_?$AAC?$AAU?$AAR?$AAR?$AAE?$AAN?$AAT?$AA_?$AAC?$AAO@ 10020ba8     RemoteOrderDisplay.obj
 0002:00000bd0       __GUID_00000109_0000_0000_c000_000000000046 10020bd0     RemoteOrderDisplay.obj
 0002:00000be0       __GUID_7fd52380_4e07_101b_ae2d_08002b2ec713 10020be0     RemoteOrderDisplay.obj
 0002:00000bf0       __GUID_00000112_0000_0000_c000_000000000046 10020bf0     RemoteOrderDisplay.obj
 0002:00000c00       __GUID_3af24292_0c96_11ce_a0cf_00aa00600ab8 10020c00     RemoteOrderDisplay.obj
 0002:00000c10       __GUID_00000127_0000_0000_c000_000000000046 10020c10     RemoteOrderDisplay.obj
 0002:00000c20       __GUID_0000010d_0000_0000_c000_000000000046 10020c20     RemoteOrderDisplay.obj
 0002:00000c30       ??_C@_1EA@NHKLICFA@?$AAH?$AAK?$AAC?$AAU?$AA?$AN?$AA?6?$AA?$HL?$AA?7?$AAS?$AAo?$AAf?$AAt?$AAw?$AAa?$AAr@ 10020c30     RemoteOrderDisplay.obj
 0002:00000c70       ??_C@_1BE@LJOLIMEM@?$AA?$AN?$AA?6?$AA?7?$AA?$HN?$AA?$AN?$AA?6?$AA?$HN?$AA?$AN?$AA?6@ 10020c70     RemoteOrderDisplay.obj
 0002:00000c84       ??_C@_1O@MNLDABAF@?$AAM?$AAo?$AAd?$AAu?$AAl?$AAe@ 10020c84     RemoteOrderDisplay.obj
 0002:00000c94       ??_C@_1BG@JBACFMF@?$AAM?$AAo?$AAd?$AAu?$AAl?$AAe?$AA_?$AAR?$AAa?$AAw@ 10020c94     RemoteOrderDisplay.obj
 0002:00000cac       ??_C@_1BC@KAILKFFG@?$AAR?$AAE?$AAG?$AAI?$AAS?$AAT?$AAR?$AAY@ 10020cac     RemoteOrderDisplay.obj
 0002:00000cc0       ??_C@_1M@PPPPCDEP@?$AAA?$AAP?$AAP?$AAI?$AAD@ 10020cc0     RemoteOrderDisplay.obj
 0002:00000ccc       ??_7?$CComContainedObject@VCOPOSRemoteOrderDisplay@@@ATL@@6B?$IDispatchImpl@UIOPOSRemoteOrderDisplay@@$1?IID_IOPOSRemoteOrderDisplay@@3U_GUID@@B$1?LIBID_OposRemoteOrderDisplay_CCO@@3U3@B$00$0A@VCComTypeInfoHolder@ATL@@@1@@ 10020ccc     RemoteOrderDisplay.obj
 0002:00000e78       ??_7?$CComContainedObject@VCOPOSRemoteOrderDisplay@@@ATL@@6BCComControlBase@1@@ 10020e78     RemoteOrderDisplay.obj
 0002:00000e8c       ??_7?$CComContainedObject@VCOPOSRemoteOrderDisplay@@@ATL@@6B?$CWindowImpl@VCOPOSRemoteOrderDisplay@@VCWindow@ATL@@V?$CWinTraits@$0FGAAAAAA@$0A@@3@@1@@ 10020e8c     RemoteOrderDisplay.obj
 0002:00000e9c       ??_7?$CComContainedObject@VCOPOSRemoteOrderDisplay@@@ATL@@6B?$IPersistStreamInitImpl@VCOPOSRemoteOrderDisplay@@@1@@ 10020e9c     RemoteOrderDisplay.obj
 0002:00000ec0       ??_7?$CComContainedObject@VCOPOSRemoteOrderDisplay@@@ATL@@6B?$IOleControlImpl@VCOPOSRemoteOrderDisplay@@@1@@ 10020ec0     RemoteOrderDisplay.obj
 0002:00000edc       ??_7?$CComContainedObject@VCOPOSRemoteOrderDisplay@@@ATL@@6B?$IOleObjectImpl@VCOPOSRemoteOrderDisplay@@@1@@ 10020edc     RemoteOrderDisplay.obj
 0002:00000f3c       ??_7?$CComContainedObject@VCOPOSRemoteOrderDisplay@@@ATL@@6B?$IOleInPlaceActiveObjectImpl@VCOPOSRemoteOrderDisplay@@@1@@ 10020f3c     RemoteOrderDisplay.obj
 0002:00000f64       ??_7?$CComContainedObject@VCOPOSRemoteOrderDisplay@@@ATL@@6B?$IViewObjectExImpl@VCOPOSRemoteOrderDisplay@@@1@@ 10020f64     RemoteOrderDisplay.obj
 0002:00000fa0       ??_7?$CComContainedObject@VCOPOSRemoteOrderDisplay@@@ATL@@6B?$IOleInPlaceObjectWindowlessImpl@VCOPOSRemoteOrderDisplay@@@1@@ 10020fa0     RemoteOrderDisplay.obj
 0002:00000fcc       ??_7?$CComContainedObject@VCOPOSRemoteOrderDisplay@@@ATL@@6B?$IConnectionPointContainerImpl@VCOPOSRemoteOrderDisplay@@@1@@ 10020fcc     RemoteOrderDisplay.obj
 0002:00000fe0       ??_7?$CComContainedObject@VCOPOSRemoteOrderDisplay@@@ATL@@6B?$IPersistStorageImpl@VCOPOSRemoteOrderDisplay@@@1@@ 10020fe0     RemoteOrderDisplay.obj
 0002:00001008       ??_7?$CComContainedObject@VCOPOSRemoteOrderDisplay@@@ATL@@6B?$ISpecifyPropertyPagesImpl@VCOPOSRemoteOrderDisplay@@@1@@ 10021008     RemoteOrderDisplay.obj
 0002:00001018       ??_7?$CComContainedObject@VCOPOSRemoteOrderDisplay@@@ATL@@6B?$IQuickActivateImpl@VCOPOSRemoteOrderDisplay@@@1@@ 10021018     RemoteOrderDisplay.obj
 0002:00001030       ??_7?$CComContainedObject@VCOPOSRemoteOrderDisplay@@@ATL@@6B?$IDataObjectImpl@VCOPOSRemoteOrderDisplay@@@1@@ 10021030     RemoteOrderDisplay.obj
 0002:00001060       ??_7?$CComContainedObject@VCOPOSRemoteOrderDisplay@@@ATL@@6B?$IProvideClassInfo2Impl@$1?CLSID_OPOSRemoteOrderDisplay@@3U_GUID@@B$1?DIID__IOPOSRemoteOrderDisplayEvents@@3U2@B$1?LIBID_OposRemoteOrderDisplay_CCO@@3U2@B$00$0A@VCComTypeInfoHolder@ATL@@@1@@ 10021060     RemoteOrderDisplay.obj
 0002:00001074       ??_7?$CComContainedObject@VCOPOSRemoteOrderDisplay@@@ATL@@6B?$IObjectSafetyImpl@VCOPOSRemoteOrderDisplay@@$02@1@@ 10021074     RemoteOrderDisplay.obj
 0002:0000108c       ??_7?$CComContainedObject@VCOPOSRemoteOrderDisplay@@@ATL@@6B?$IPropertyNotifySinkCP@VCOPOSRemoteOrderDisplay@@VCComDynamicUnkArray@ATL@@@1@@ 1002108c     RemoteOrderDisplay.obj
 0002:000010ac       ??_7?$CComContainedObject@VCOPOSRemoteOrderDisplay@@@ATL@@6B?$CProxy_IOPOSEvents@VCOPOSRemoteOrderDisplay@@@@@ 100210ac     RemoteOrderDisplay.obj
 0002:000010cc       ??_7?$CComAggObject@VCOPOSRemoteOrderDisplay@@@ATL@@6B@ 100210cc     RemoteOrderDisplay.obj
 0002:000010dc       ??_7?$CComObject@VCOPOSRemoteOrderDisplay@@@ATL@@6B?$IDispatchImpl@UIOPOSRemoteOrderDisplay@@$1?IID_IOPOSRemoteOrderDisplay@@3U_GUID@@B$1?LIBID_OposRemoteOrderDisplay_CCO@@3U3@B$00$0A@VCComTypeInfoHolder@ATL@@@1@@ 100210dc     RemoteOrderDisplay.obj
 0002:00001288       ??_7?$CComObject@VCOPOSRemoteOrderDisplay@@@ATL@@6BCComControlBase@1@@ 10021288     RemoteOrderDisplay.obj
 0002:0000129c       ??_7?$CComObject@VCOPOSRemoteOrderDisplay@@@ATL@@6B?$CWindowImpl@VCOPOSRemoteOrderDisplay@@VCWindow@ATL@@V?$CWinTraits@$0FGAAAAAA@$0A@@3@@1@@ 1002129c     RemoteOrderDisplay.obj
 0002:000012ac       ??_7?$CComObject@VCOPOSRemoteOrderDisplay@@@ATL@@6B?$IPersistStreamInitImpl@VCOPOSRemoteOrderDisplay@@@1@@ 100212ac     RemoteOrderDisplay.obj
 0002:000012d0       ??_7?$CComObject@VCOPOSRemoteOrderDisplay@@@ATL@@6B?$IOleControlImpl@VCOPOSRemoteOrderDisplay@@@1@@ 100212d0     RemoteOrderDisplay.obj
 0002:000012ec       ??_7?$CComObject@VCOPOSRemoteOrderDisplay@@@ATL@@6B?$IOleObjectImpl@VCOPOSRemoteOrderDisplay@@@1@@ 100212ec     RemoteOrderDisplay.obj
 0002:0000134c       ??_7?$CComObject@VCOPOSRemoteOrderDisplay@@@ATL@@6B?$IOleInPlaceActiveObjectImpl@VCOPOSRemoteOrderDisplay@@@1@@ 1002134c     RemoteOrderDisplay.obj
 0002:00001374       ??_7?$CComObject@VCOPOSRemoteOrderDisplay@@@ATL@@6B?$IViewObjectExImpl@VCOPOSRemoteOrderDisplay@@@1@@ 10021374     RemoteOrderDisplay.obj
 0002:000013b0       ??_7?$CComObject@VCOPOSRemoteOrderDisplay@@@ATL@@6B?$IOleInPlaceObjectWindowlessImpl@VCOPOSRemoteOrderDisplay@@@1@@ 100213b0     RemoteOrderDisplay.obj
 0002:000013dc       ??_7?$CComObject@VCOPOSRemoteOrderDisplay@@@ATL@@6B?$IConnectionPointContainerImpl@VCOPOSRemoteOrderDisplay@@@1@@ 100213dc     RemoteOrderDisplay.obj
 0002:000013f0       ??_7?$CComObject@VCOPOSRemoteOrderDisplay@@@ATL@@6B?$IPersistStorageImpl@VCOPOSRemoteOrderDisplay@@@1@@ 100213f0     RemoteOrderDisplay.obj
 0002:00001418       ??_7?$CComObject@VCOPOSRemoteOrderDisplay@@@ATL@@6B?$ISpecifyPropertyPagesImpl@VCOPOSRemoteOrderDisplay@@@1@@ 10021418     RemoteOrderDisplay.obj
 0002:00001428       ??_7?$CComObject@VCOPOSRemoteOrderDisplay@@@ATL@@6B?$IQuickActivateImpl@VCOPOSRemoteOrderDisplay@@@1@@ 10021428     RemoteOrderDisplay.obj
 0002:00001440       ??_7?$CComObject@VCOPOSRemoteOrderDisplay@@@ATL@@6B?$IDataObjectImpl@VCOPOSRemoteOrderDisplay@@@1@@ 10021440     RemoteOrderDisplay.obj
 0002:00001470       ??_7?$CComObject@VCOPOSRemoteOrderDisplay@@@ATL@@6B?$IProvideClassInfo2Impl@$1?CLSID_OPOSRemoteOrderDisplay@@3U_GUID@@B$1?DIID__IOPOSRemoteOrderDisplayEvents@@3U2@B$1?LIBID_OposRemoteOrderDisplay_CCO@@3U2@B$00$0A@VCComTypeInfoHolder@ATL@@@1@@ 10021470     RemoteOrderDisplay.obj
 0002:00001484       ??_7?$CComObject@VCOPOSRemoteOrderDisplay@@@ATL@@6B?$IObjectSafetyImpl@VCOPOSRemoteOrderDisplay@@$02@1@@ 10021484     RemoteOrderDisplay.obj
 0002:0000149c       ??_7?$CComObject@VCOPOSRemoteOrderDisplay@@@ATL@@6B?$IPropertyNotifySinkCP@VCOPOSRemoteOrderDisplay@@VCComDynamicUnkArray@ATL@@@1@@ 1002149c     RemoteOrderDisplay.obj
 0002:000014bc       ??_7?$CComObject@VCOPOSRemoteOrderDisplay@@@ATL@@6B?$CProxy_IOPOSEvents@VCOPOSRemoteOrderDisplay@@@@@ 100214bc     RemoteOrderDisplay.obj
 0002:000014dc       ??_C@_1O@GBFKGNEO@?$AAA?$AAT?$AAL?$AA?3?$AA?$CF?$AAp@ 100214dc     RemoteOrderDisplay.obj
 0002:000014ec       ??_C@_1BA@PICGEGJB@?$AAD?$AAI?$AAS?$AAP?$AAL?$AAA?$AAY@ 100214ec     RemoteOrderDisplay.obj
 0002:000014fc       __GUID_9bfbbc02_eff1_101a_84ed_00aa00341d07 100214fc     RemoteOrderDisplay.obj
 0002:0000150c       __GUID_b196b284_bab4_101a_b69c_00aa00341d07 1002150c     RemoteOrderDisplay.obj
 0002:0000151c       ?_entries@?1??_GetEntries@?$CComEnum@UIEnumConnectionPoints@@$1?_GUID_b196b285_bab4_101a_b69c_00aa00341d07@@3U__s_GUID@@BPAUIConnectionPoint@@V?$_CopyInterface@UIConnectionPoint@@@ATL@@VCComSingleThreadModel@6@@ATL@@SGPBU_ATL_INTMAP_ENTRY@3@XZ@4QBU43@B 1002151c     RemoteOrderDisplay.obj
 0002:00001534       __GUID_00020412_0000_0000_c000_000000000046 10021534     RemoteOrderDisplay.obj
 0002:00001544       __GUID_00020401_0000_0000_c000_000000000046 10021544     RemoteOrderDisplay.obj
 0002:00001554       __GUID_55980ba0_35aa_11cf_b671_00aa004cd6d8 10021554     RemoteOrderDisplay.obj
 0002:00001564       __GUID_b196b28b_bab4_101a_b69c_00aa00341d07 10021564     RemoteOrderDisplay.obj
 0002:00001574       ??_7?$CComObject@V?$CComEnum@UIEnumConnections@@$1?_GUID_b196b287_bab4_101a_b69c_00aa00341d07@@3U__s_GUID@@BUtagCONNECTDATA@@V?$_Copy@UtagCONNECTDATA@@@ATL@@VCComSingleThreadModel@6@@ATL@@@ATL@@6B@ 10021574     RemoteOrderDisplay.obj
 0002:00001594       ??_C@_0BG@EKFFMJIO@RegOpenKeyTransactedW@ 10021594     RemoteOrderDisplay.obj
 0002:000015ac       ??_C@_0BI@HAKLOOGP@RegDeleteKeyTransactedW@ 100215ac     RemoteOrderDisplay.obj
 0002:000015c4       ??_C@_0BA@LILAPHGE@RegDeleteKeyExW@ 100215c4     RemoteOrderDisplay.obj
 0002:000015d4       ??_C@_19ILOCMLCJ@?$AA?4?$AAt?$AAl?$AAb@ 100215d4     RemoteOrderDisplay.obj
 0002:000015e0       __GUID_0002e012_0000_0000_c000_000000000046 100215e0     RemoteOrderDisplay.obj
 0002:000015f0       ??_C@_1O@FHBGLCIO@?$AAC?$AAL?$AAS?$AAI?$AAD?$AA?2@ 100215f0     RemoteOrderDisplay.obj
 0002:00001600       ??_C@_1CK@IFBKBFAA@?$AA?2?$AAR?$AAe?$AAq?$AAu?$AAi?$AAr?$AAe?$AAd?$AA?5?$AAC?$AAa?$AAt?$AAe?$AAg@ 10021600     RemoteOrderDisplay.obj
 0002:0000162c       ??_C@_1DA@BIHALFED@?$AA?2?$AAI?$AAm?$AAp?$AAl?$AAe?$AAm?$AAe?$AAn?$AAt?$AAe?$AAd?$AA?5?$AAC?$AAa@ 1002162c     RemoteOrderDisplay.obj
 0002:0000165c       ??_C@_1BK@EDKOLFBJ@?$AAO?$AAL?$AAE?$AAA?$AAU?$AAT?$AA3?$AA2?$AA?4?$AAD?$AAL?$AAL@ 1002165c     RemoteOrderDisplay.obj
 0002:00001678       ??_C@_0BJ@CNLFOMHB@UnRegisterTypeLibForUser@ 10021678     RemoteOrderDisplay.obj
 0002:00001694       ??_C@_0BH@LBOMMKPJ@RegisterTypeLibForUser@ 10021694     RemoteOrderDisplay.obj
 0002:000016ac       ??_C@_0P@MMNMMLGK@COFreezeEvents@ 100216ac     RemoteOrderDisplayImpl.obj
 0002:000016bc       ??_C@_0BC@OGCGGIMP@GetPropertyNumber@ 100216bc     RemoteOrderDisplayImpl.obj
 0002:000016d0       ??_C@_0BC@MDCNODNB@SetPropertyNumber@ 100216d0     RemoteOrderDisplayImpl.obj
 0002:000016e4       ??_C@_0BC@CFCCMIMD@GetPropertyString@ 100216e4     RemoteOrderDisplayImpl.obj
 0002:000016f8       ??_C@_0BC@CJEDNN@SetPropertyString@ 100216f8     RemoteOrderDisplayImpl.obj
 0002:0000170c       ??_C@_0M@LNPKKKDA@OpenService@ 1002170c     RemoteOrderDisplayImpl.obj
 0002:00001718       ??_C@_0M@PCMCHHMH@CheckHealth@ 10021718     RemoteOrderDisplayImpl.obj
 0002:00001724       ??_C@_0M@JGMIDNEK@ClaimDevice@ 10021724     RemoteOrderDisplayImpl.obj
 0002:00001730       ??_C@_0L@BNEIFEJC@ClearInput@ 10021730     RemoteOrderDisplayImpl.obj
 0002:0000173c       ??_C@_0M@JMBCPNGJ@ClearOutput@ 1002173c     RemoteOrderDisplayImpl.obj
 0002:00001748       ??_C@_0N@DDFIIBMP@CloseService@ 10021748     RemoteOrderDisplayImpl.obj
 0002:00001758       ??_C@_08EEIHICPC@DirectIO@ 10021758     RemoteOrderDisplayImpl.obj
 0002:00001764       ??_C@_0O@BCPMENMJ@ReleaseDevice@ 10021764     RemoteOrderDisplayImpl.obj
 0002:00001774       ??_C@_0L@DHIDJAOO@ClearVideo@ 10021774     RemoteOrderDisplayImpl.obj
 0002:00001780       ??_C@_0BB@BKDKAILF@ClearVideoRegion@ 10021780     RemoteOrderDisplayImpl.obj
 0002:00001794       ??_C@_0N@LGFBJCKG@ControlClock@ 10021794     RemoteOrderDisplayImpl.obj
 0002:000017a4       ??_C@_0O@MJLDLDBI@ControlCursor@ 100217a4     RemoteOrderDisplayImpl.obj
 0002:000017b4       ??_C@_0BA@NDBMIPMF@CopyVideoRegion@ 100217b4     RemoteOrderDisplayImpl.obj
 0002:000017c4       ??_C@_0M@PGFELKMF@DisplayData@ 100217c4     RemoteOrderDisplayImpl.obj
 0002:000017d0       ??_C@_07FBNHCCPG@DrawBox@  100217d0     RemoteOrderDisplayImpl.obj
 0002:000017d8       ??_C@_0BA@NNIFPCLA@FreeVideoRegion@ 100217d8     RemoteOrderDisplayImpl.obj
 0002:000017e8       ??_C@_0L@JMKOKABE@ResetVideo@ 100217e8     RemoteOrderDisplayImpl.obj
 0002:000017f4       ??_C@_0BD@DIHMIGHG@RestoreVideoRegion@ 100217f4     RemoteOrderDisplayImpl.obj
 0002:00001808       ??_C@_0BA@ODHPNLJ@SaveVideoRegion@ 10021808     RemoteOrderDisplayImpl.obj
 0002:00001818       ??_C@_0BD@JJMHLHNM@SelectCharacterSet@ 10021818     RemoteOrderDisplayImpl.obj
 0002:0000182c       ??_C@_09PKKOCJGB@SetCursor@ 1002182c     RemoteOrderDisplayImpl.obj
 0002:00001838       ??_C@_0BD@LPDOPKIP@TransactionDisplay@ 10021838     RemoteOrderDisplayImpl.obj
 0002:0000184c       ??_C@_0BL@KJCKLOMA@UpdateVideoRegionAttribute@ 1002184c     RemoteOrderDisplayImpl.obj
 0002:00001868       ??_C@_0L@EDLKLGFH@VideoSound@ 10021868     RemoteOrderDisplayImpl.obj
 0002:00001874       ??_C@_0BA@GFABKEEE@ResetStatistics@ 10021874     RemoteOrderDisplayImpl.obj
 0002:00001884       ??_C@_0BD@DPALHJGC@RetrieveStatistics@ 10021884     RemoteOrderDisplayImpl.obj
 0002:00001898       ??_C@_0BB@KOHIKNFC@UpdateStatistics@ 10021898     RemoteOrderDisplayImpl.obj
 0002:000018ac       ??_C@_0BH@PBKBNMGB@CompareFirmwareVersion@ 100218ac     RemoteOrderDisplayImpl.obj
 0002:000018c4       ??_C@_0P@FBPDPIPA@UpdateFirmware@ 100218c4     RemoteOrderDisplayImpl.obj
 0002:000018d4       ??_7?$CProxy_IOPOSEvents@VCOPOSRemoteOrderDisplay@@@@6B@ 100218d4     RemoteOrderDisplayImpl.obj
 0002:000018f4       ??_C@_1BA@IFHENID@?$AA?$FL?$AAE?$AAr?$AAr?$AAo?$AAr?$AA?$FN@ 100218f4     RemoteOrderDisplayImpl.obj
 0002:00001904       ??_C@_0DF@MMEIEIAP@SOFTWARE?2OLEforRetail?2ServiceOP@ 10021904     RemoteOrderDisplayImpl.obj
 0002:0000193c       ??_C@_1M@IAIJHCCH@?$AAC?$AAl?$AAo?$AAs?$AAe@ 1002193c     RemoteOrderDisplayImpl.obj
 0002:00001948       ??_C@_1M@PCPKGJAH@?$AAC?$AAl?$AAa?$AAi?$AAm@ 10021948     RemoteOrderDisplayImpl.obj
 0002:00001954       ??_C@_1BA@NDFKIOCP@?$AAR?$AAe?$AAl?$AAe?$AAa?$AAs?$AAe@ 10021954     RemoteOrderDisplayImpl.obj
 0002:00001964       ??_C@_0BD@EAJOFGE@RemoteOrderDisplay@ 10021964     RemoteOrderDisplayImpl.obj
 0002:00001978       ??_C@_1BM@IJMNMBPK@?$AAG?$AAe?$AAt?$AAO?$AAp?$AAe?$AAn?$AAR?$AAe?$AAs?$AAu?$AAl?$AAt@ 10021978     RemoteOrderDisplayImpl.obj
 0002:00001994       _IID_IPropertyNotifySink   10021994     uuid:ocidl_i.obj
 0002:000019a4       _GUID_NULL                 100219a4     uuid:cguid_i.obj
 0002:000019b4       _CLSID_StdGlobalInterfaceTable 100219b4     uuid:cguid_i.obj
 0002:000019c4       _IID_IDispatch             100219c4     uuid:oaidl_i.obj
 0002:000019d4       _CLSID_StdComponentCategoriesMgr 100219d4     uuid:ieguids.obj
 0002:000019e4       _IID_IUnknown              100219e4     uuid:unknwn_i.obj
 0002:000019f8       ??_C@_1EC@JIJBPKFM@?$AAa?$AAp?$AAi?$AA?9?$AAm?$AAs?$AA?9?$AAw?$AAi?$AAn?$AA?9?$AAc?$AAo?$AAr?$AAe@ 100219f8     LIBCMT:thread_safe_statics.obj
 0002:00001a3c       ??_C@_1BK@MGMFAEKH@?$AAk?$AAe?$AAr?$AAn?$AAe?$AAl?$AA3?$AA2?$AA?4?$AAd?$AAl?$AAl@ 10021a3c     LIBCMT:thread_safe_statics.obj
 0002:00001a58       ??_C@_0BJ@JEBJOJFJ@SleepConditionVariableCS@ 10021a58     LIBCMT:thread_safe_statics.obj
 0002:00001a74       ??_C@_0BJ@PGPPEPCC@WakeAllConditionVariable@ 10021a74     LIBCMT:thread_safe_statics.obj
 0002:00001a8d       ?nothrow@std@@3Unothrow_t@1@B 10021a8d     LIBCMT:std_nothrow.obj
 0002:00001a98       __pRawDllMain              10021a98     LIBCMT:dll_dllmain.obj
 0002:00001a98       __pDefaultRawDllMain       10021a98     LIBCMT:dll_dllmain.obj
 0002:00001aa0       ??_7exception@std@@6B@     10021aa0     LIBCMT:throw_bad_alloc.obj
 0002:00001aa8       ??_C@_0BC@EOODALEL@Unknown?5exception@ 10021aa8     LIBCMT:throw_bad_alloc.obj
 0002:00001ac0       ??_7bad_alloc@std@@6B@     10021ac0     LIBCMT:throw_bad_alloc.obj
 0002:00001ac8       ??_C@_0P@GHFPNOJB@bad?5allocation@ 10021ac8     LIBCMT:throw_bad_alloc.obj
 0002:00001adc       ??_7bad_array_new_length@std@@6B@ 10021adc     LIBCMT:throw_bad_alloc.obj
 0002:00001ae4       ??_C@_0BF@KINCDENJ@bad?5array?5new?5length@ 10021ae4     LIBCMT:throw_bad_alloc.obj
 0002:00001b00       ??_7type_info@@6B@         10021b00     LIBCMT:std_type_info_static.obj
 0002:00001b04       _GUID_ATLVer110            10021b04     atls:atlbase.obj
 0002:00001b18       ??_C@_1IC@ONKHOIDK@?$AAE?$AAR?$AAR?$AAO?$AAR?$AA?5?$AA?3?$AA?5?$AAU?$AAn?$AAa?$AAb?$AAl?$AAe?$AA?5@ 10021b18     atls:atlbase.obj
 0002:00001b9c       ??_C@_0N@FJEPLCIH@atlthunk?4dll@ 10021b9c     atls:atlthunk.obj
 0002:00001bac       ??_C@_0BG@GAKFHCBM@AtlThunk_AllocateData@ 10021bac     atls:atlthunk.obj
 0002:00001bc4       ??_C@_0BC@JKONFIAH@AtlThunk_InitData@ 10021bc4     atls:atlthunk.obj
 0002:00001bd8       ??_C@_0BE@IAOEELAK@AtlThunk_DataToCode@ 10021bd8     atls:atlthunk.obj
 0002:00001bec       ??_C@_0BC@GBGKAIPI@AtlThunk_FreeData@ 10021bec     atls:atlthunk.obj
 0002:00001c00       __pDestructExceptionObject 10021c00     libvcruntime:ehhelpers.obj
 0002:00001c08       ??_7bad_exception@std@@6B@ 10021c08     libvcruntime:frame.obj
 0002:00001c10       ??_C@_0O@DPKOEFFH@bad?5exception@ 10021c10     libvcruntime:frame.obj
 0002:00001fa0       ??_C@_08EHJDFFNH@__based?$CI@ 10021fa0     libvcruntime:undname.obj
 0002:00001fac       ??_C@_07KOLFKCDI@__cdecl@  10021fac     libvcruntime:undname.obj
 0002:00001fb4       ??_C@_08GHMPAG@__pascal@   10021fb4     libvcruntime:undname.obj
 0002:00001fc0       ??_C@_09IFJBGAPI@__stdcall@ 10021fc0     libvcruntime:undname.obj
 0002:00001fcc       ??_C@_0L@NPHFGOKO@__thiscall@ 10021fcc     libvcruntime:undname.obj
 0002:00001fd8       ??_C@_0L@JMKHOMEK@__fastcall@ 10021fd8     libvcruntime:undname.obj
 0002:00001fe4       ??_C@_0N@BCKKPABJ@__vectorcall@ 10021fe4     libvcruntime:undname.obj
 0002:00001ff4       ??_C@_09HIJEGCPM@__clrcall@ 10021ff4     libvcruntime:undname.obj
 0002:00002000       ??_C@_06GHPCKEAG@__eabi@   10022000     libvcruntime:undname.obj
 0002:00002008       ??_C@_09IOPIDJLG@__swift_1@ 10022008     libvcruntime:undname.obj
 0002:00002014       ??_C@_09KFNFGKHF@__swift_2@ 10022014     libvcruntime:undname.obj
 0002:00002020       ??_C@_07JOMMBBKO@__ptr64@  10022020     libvcruntime:undname.obj
 0002:00002028       ??_C@_0L@PILCLIHE@__restrict@ 10022028     libvcruntime:undname.obj
 0002:00002034       ??_C@_0M@GFIIJFMG@__unaligned@ 10022034     libvcruntime:undname.obj
 0002:00002040       ??_C@_09DHDLOLLB@restrict?$CI@ 10022040     libvcruntime:undname.obj
 0002:0000204a       ??_C@_00CNPNBAHC@@         1002204a     libvcruntime:undname.obj
 0002:0000204c       ??_C@_04NIHEBCM@?5new@     1002204c     libvcruntime:undname.obj
 0002:00002054       ??_C@_07FPCDHGMM@?5delete@ 10022054     libvcruntime:undname.obj
 0002:0000205c       ??_C@_01NEMOKFLO@?$DN@     1002205c     libvcruntime:undname.obj
 0002:00002060       ??_C@_02GPIOPFAK@?$DO?$DO@ 10022060     libvcruntime:undname.obj
 0002:00002064       ??_C@_02FODMEDOG@?$DM?$DM@ 10022064     libvcruntime:undname.obj
 0002:00002068       ??_C@_01DCLJPIOD@?$CB@     10022068     libvcruntime:undname.obj
 0002:0000206c       ??_C@_02EGOFBIJA@?$DN?$DN@ 1002206c     libvcruntime:undname.obj
 0002:00002070       ??_C@_02FDNJECIE@?$CB?$DN@ 10022070     libvcruntime:undname.obj
 0002:00002074       ??_C@_02GPECMEKF@?$FL?$FN@ 10022074     libvcruntime:undname.obj
 0002:00002078       ??_C@_08LHJFAFGD@operator@ 10022078     libvcruntime:undname.obj
 0002:00002084       ??_C@_02HBOOOICD@?9?$DO@   10022084     libvcruntime:undname.obj
 0002:00002088       ??_C@_01NBENCBCI@?$CK@     10022088     libvcruntime:undname.obj
 0002:0000208c       ??_C@_02ECNGHCIF@?$CL?$CL@ 1002208c     libvcruntime:undname.obj
 0002:00002090       ??_C@_02BAABKJLB@?9?9@     10022090     libvcruntime:undname.obj
 0002:00002094       ??_C@_01JOAMLHOP@?9@       10022094     libvcruntime:undname.obj
 0002:00002098       ??_C@_01MIFGBAGJ@?$CL@     10022098     libvcruntime:undname.obj
 0002:0000209c       ??_C@_01HNPIGOCE@?$CG@     1002209c     libvcruntime:undname.obj
 0002:000020a0       ??_C@_03MNHNFDLC@?9?$DO?$CK@ 100220a0     libvcruntime:undname.obj
 0002:000020a4       ??_C@_01KMDKNFGN@?1@       100220a4     libvcruntime:undname.obj
 0002:000020a8       ??_C@_01FGNFDNOH@?$CF@     100220a8     libvcruntime:undname.obj
 0002:000020ac       ??_C@_01MNNFJEPP@?$DM@     100220ac     libvcruntime:undname.obj
 0002:000020b0       ??_C@_02EHCHHCKH@?$DM?$DN@ 100220b0     libvcruntime:undname.obj
 0002:000020b4       ??_C@_01PPODPGHN@?$DO@     100220b4     libvcruntime:undname.obj
 0002:000020b8       ??_C@_02EEKDKGMJ@?$DO?$DN@ 100220b8     libvcruntime:undname.obj
 0002:000020bc       ??_C@_01IHBHIGKO@?0@       100220bc     libvcruntime:undname.obj
 0002:000020c0       ??_C@_02HCKGKOFO@?$CI?$CJ@ 100220c0     libvcruntime:undname.obj
 0002:000020c4       ??_C@_01PJKLJHI@?$HO@      100220c4     libvcruntime:undname.obj
 0002:000020c8       ??_C@_01JKBOJNNK@?$FO@     100220c8     libvcruntime:undname.obj
 0002:000020cc       ??_C@_01DNKMNLPK@?$HM@     100220cc     libvcruntime:undname.obj
 0002:000020d0       ??_C@_02PPKAJPJL@?$CG?$CG@ 100220d0     libvcruntime:undname.obj
 0002:000020d4       ??_C@_02NONPIBCD@?$HM?$HM@ 100220d4     libvcruntime:undname.obj
 0002:000020d8       ??_C@_02FPIMKNGF@?$CK?$DN@ 100220d8     libvcruntime:undname.obj
 0002:000020dc       ??_C@_02FOEOMHFC@?$CL?$DN@ 100220dc     libvcruntime:undname.obj
 0002:000020e0       ??_C@_02FKMDLLOA@?9?$DN@   100220e0     libvcruntime:undname.obj
 0002:000020e4       ??_C@_02FJEHGPIO@?1?$DN@   100220e4     libvcruntime:undname.obj
 0002:000020e8       ??_C@_02FENAOKFI@?$CF?$DN@ 100220e8     libvcruntime:undname.obj
 0002:000020ec       ??_C@_03IKFCCPFF@?$DO?$DO?$DN@ 100220ec     libvcruntime:undname.obj
 0002:000020f0       ??_C@_03CDNPDDLA@?$DM?$DM?$DN@ 100220f0     libvcruntime:undname.obj
 0002:000020f4       ??_C@_02FGJGFEAB@?$CG?$DN@ 100220f4     libvcruntime:undname.obj
 0002:000020f8       ??_C@_02DHLNPPGH@?$HM?$DN@ 100220f8     libvcruntime:undname.obj
 0002:000020fc       ??_C@_02MHEGNOJ@?$FO?$DN@  100220fc     libvcruntime:undname.obj
 0002:00002100       ??_C@_09IFPLHPGF@?$GAvftable?8@ 10022100     libvcruntime:undname.obj
 0002:0000210c       ??_C@_09BLBHBJP@?$GAvbtable?8@ 1002210c     libvcruntime:undname.obj
 0002:00002118       ??_C@_07FEEIOKP@?$GAvcall?8@ 10022118     libvcruntime:undname.obj
 0002:00002120       ??_C@_08LLFFHHDJ@?$GAtypeof?8@ 10022120     libvcruntime:undname.obj
 0002:0000212c       ??_C@_0BF@KDPPACIK@?$GAlocal?5static?5guard?8@ 1002212c     libvcruntime:undname.obj
 0002:00002144       ??_C@_08OBABFOLI@?$GAstring?8@ 10022144     libvcruntime:undname.obj
 0002:00002150       ??_C@_0BD@JDLKDPAB@?$GAvbase?5destructor?8@ 10022150     libvcruntime:undname.obj
 0002:00002164       ??_C@_0BN@DEGPLNFK@?$GAvector?5deleting?5destructor?8@ 10022164     libvcruntime:undname.obj
 0002:00002184       ??_C@_0BO@OBMKPJIG@?$GAdefault?5constructor?5closure?8@ 10022184     libvcruntime:undname.obj
 0002:000021a4       ??_C@_0BN@IMDCHIKM@?$GAscalar?5deleting?5destructor?8@ 100221a4     libvcruntime:undname.obj
 0002:000021c4       ??_C@_0BO@PFGOCPJJ@?$GAvector?5constructor?5iterator?8@ 100221c4     libvcruntime:undname.obj
 0002:000021e4       ??_C@_0BN@LFPFMEDL@?$GAvector?5destructor?5iterator?8@ 100221e4     libvcruntime:undname.obj
 0002:00002204       ??_C@_0CE@IKBNEHA@?$GAvector?5vbase?5constructor?5itera@ 10022204     libvcruntime:undname.obj
 0002:00002228       ??_C@_0BL@NILFHHPC@?$GAvirtual?5displacement?5map?8@ 10022228     libvcruntime:undname.obj
 0002:00002244       ??_C@_0CB@JONCMFFK@?$GAeh?5vector?5constructor?5iterator@ 10022244     libvcruntime:undname.obj
 0002:00002268       ??_C@_0CA@GCEOPDGL@?$GAeh?5vector?5destructor?5iterator?8@ 10022268     libvcruntime:undname.obj
 0002:00002288       ??_C@_0CH@OOJPLCPH@?$GAeh?5vector?5vbase?5constructor?5it@ 10022288     libvcruntime:undname.obj
 0002:000022b0       ??_C@_0BL@LLKPOHJI@?$GAcopy?5constructor?5closure?8@ 100222b0     libvcruntime:undname.obj
 0002:000022cc       ??_C@_0BA@KBCDOMBN@?$GAudt?5returning?8@ 100222cc     libvcruntime:undname.obj
 0002:000022dc       ??_C@_03KLGMFNMG@?$GAEH@   100222dc     libvcruntime:undname.obj
 0002:000022e0       ??_C@_05KHLCHHI@?$GARTTI@  100222e0     libvcruntime:undname.obj
 0002:000022e8       ??_C@_0BA@KKLDJDLB@?$GAlocal?5vftable?8@ 100222e8     libvcruntime:undname.obj
 0002:000022f8       ??_C@_0CE@IIHCMGGL@?$GAlocal?5vftable?5constructor?5clos@ 100222f8     libvcruntime:undname.obj
 0002:0000231c       ??_C@_06FHBGPFGH@?5new?$FL?$FN@ 1002231c     libvcruntime:undname.obj
 0002:00002324       ??_C@_09LBNFPBCA@?5delete?$FL?$FN@ 10022324     libvcruntime:undname.obj
 0002:00002330       ??_C@_0P@HJKNJFNN@?$GAomni?5callsig?8@ 10022330     libvcruntime:undname.obj
 0002:00002340       ??_C@_0BL@CNOONJFP@?$GAplacement?5delete?5closure?8@ 10022340     libvcruntime:undname.obj
 0002:0000235c       ??_C@_0BN@CKNJLHMB@?$GAplacement?5delete?$FL?$FN?5closure?8@ 1002235c     libvcruntime:undname.obj
 0002:0000237c       ??_C@_0CG@CFDHKGGD@?$GAmanaged?5vector?5constructor?5ite@ 1002237c     libvcruntime:undname.obj
 0002:000023a4       ??_C@_0CF@IMGKMJNO@?$GAmanaged?5vector?5destructor?5iter@ 100223a4     libvcruntime:undname.obj
 0002:000023cc       ??_C@_0CG@HLDDJMAG@?$GAeh?5vector?5copy?5constructor?5ite@ 100223cc     libvcruntime:undname.obj
 0002:000023f4       ??_C@_0CM@FCBBDIGB@?$GAeh?5vector?5vbase?5copy?5construct@ 100223f4     libvcruntime:undname.obj
 0002:00002420       ??_C@_0BL@CLIPGLGB@?$GAdynamic?5initializer?5for?5?8@ 10022420     libvcruntime:undname.obj
 0002:0000243c       ??_C@_0CB@PDBIFEP@?$GAdynamic?5atexit?5destructor?5for?5@ 1002243c     libvcruntime:undname.obj
 0002:00002460       ??_C@_0CD@CGAJBKEJ@?$GAvector?5copy?5constructor?5iterat@ 10022460     libvcruntime:undname.obj
 0002:00002484       ??_C@_0CJ@GJELGAMM@?$GAvector?5vbase?5copy?5constructor?5@ 10022484     libvcruntime:undname.obj
 0002:000024b0       ??_C@_0CL@FGIJHLCE@?$GAmanaged?5vector?5copy?5constructo@ 100224b0     libvcruntime:undname.obj
 0002:000024dc       ??_C@_0BM@PMGGMLDN@?$GAlocal?5static?5thread?5guard?8@ 100224dc     libvcruntime:undname.obj
 0002:000024f8       ??_C@_0N@BDNMDMOL@operator?5?$CC?$CC?5@ 100224f8     libvcruntime:undname.obj
 0002:00002508       ??_C@_0BC@GGEBGALA@operator?5co_await@ 10022508     libvcruntime:undname.obj
 0002:0000251c       ??_C@_0M@GAAIMMOH@operator?$DM?$DN?$DO@ 1002251c     libvcruntime:undname.obj
 0002:00002528       ??_C@_0BC@DAFEJGAK@?5Type?5Descriptor?8@ 10022528     libvcruntime:undname.obj
 0002:0000253c       ??_C@_0BM@LDKODKLH@?5Base?5Class?5Descriptor?5at?5?$CI@ 1002253c     libvcruntime:undname.obj
 0002:00002558       ??_C@_0BD@LGICGFMM@?5Base?5Class?5Array?8@ 10022558     libvcruntime:undname.obj
 0002:0000256c       ??_C@_0BN@MECKDCOJ@?5Class?5Hierarchy?5Descriptor?8@ 1002256c     libvcruntime:undname.obj
 0002:0000258c       ??_C@_0BK@CFCOFLF@?5Complete?5Object?5Locator?8@ 1002258c     libvcruntime:undname.obj
 0002:000025a8       ??_C@_0BG@JNJLAMPM@?$GAanonymous?5namespace?8@ 100225a8     libvcruntime:undname.obj
 0002:000025cc       ??_C@_1DM@KHCHBNEB@?$AAa?$AAp?$AAi?$AA?9?$AAm?$AAs?$AA?9?$AAw?$AAi?$AAn?$AA?9?$AAc?$AAo?$AAr?$AAe@ 100225cc     libvcruntime:winapi_downlevel.obj
 0002:00002608       ??_C@_1DK@LPPGFMPP@?$AAa?$AAp?$AAi?$AA?9?$AAm?$AAs?$AA?9?$AAw?$AAi?$AAn?$AA?9?$AAc?$AAo?$AAr?$AAe@ 10022608     libvcruntime:winapi_downlevel.obj
 0002:00002644       ??_C@_1BC@GDMECMAK@?$AAk?$AAe?$AAr?$AAn?$AAe?$AAl?$AA3?$AA2@ 10022644     libvcruntime:winapi_downlevel.obj
 0002:00002658       ??_C@_1BA@PFFKHIOG@?$AAa?$AAp?$AAi?$AA?9?$AAm?$AAs?$AA?9@ 10022658     libvcruntime:winapi_downlevel.obj
 0002:00002670       ??_C@_08KNHFBNJ@FlsAlloc@  10022670     libvcruntime:winapi_downlevel.obj
 0002:00002684       ??_C@_07PEJMOBNF@FlsFree@  10022684     libvcruntime:winapi_downlevel.obj
 0002:00002694       ??_C@_0M@GDNOONDI@FlsGetValue@ 10022694     libvcruntime:winapi_downlevel.obj
 0002:000026a8       ??_C@_0M@JCPCPOEF@FlsSetValue@ 100226a8     libvcruntime:winapi_downlevel.obj
 0002:000026bc       ??_C@_0BM@HCFOFFN@InitializeCriticalSectionEx@ 100226bc     libvcruntime:winapi_downlevel.obj
 0002:00002840       ?format_validation_lookup_table_spectre@__crt_stdio_output@@3V?$spectre_mitigated_lookup_table@Ustate_transition_pair@__crt_stdio_output@@$0IA@@1@B 10022840     libucrt:output.obj
 0002:00002c40       ??_C@_1O@CEDCILHN@?$AA?$CI?$AAn?$AAu?$AAl?$AAl?$AA?$CJ@ 10022c40     libucrt:output.obj
 0002:00002c50       ??_C@_06OJHGLDPL@?$CInull?$CJ@ 10022c50     libucrt:output.obj
 0002:00002c58       ___acrt_exception_action_table 10022c58     libucrt:exception_filter.obj
 0002:00002ce8       ___acrt_signal_action_table_count 10022ce8     libucrt:exception_filter.obj
 0002:00002cec       ___acrt_signal_action_first_fpe_index 10022cec     libucrt:exception_filter.obj
 0002:00002cf0       ___acrt_signal_action_fpe_count 10022cf0     libucrt:exception_filter.obj
 0002:00002cf4       ??_C@_1BI@BGOHAHKC@?$AAm?$AAs?$AAc?$AAo?$AAr?$AAe?$AAe?$AA?4?$AAd?$AAl?$AAl@ 10022cf4     libucrt:exit.obj
 0002:00002d0c       ??_C@_0P@MIGLKIOC@CorExitProcess@ 10022d0c     libucrt:exit.obj
 0002:00002df0       ??_C@_1EA@JGEFHKEI@?$AAa?$AAp?$AAi?$AA?9?$AAm?$AAs?$AA?9?$AAw?$AAi?$AAn?$AA?9?$AAc?$AAo?$AAr?$AAe@ 10022df0     libucrt:winapi_thunks.obj
 0002:00002e30       ??_C@_1DI@IJCEHOCB@?$AAa?$AAp?$AAi?$AA?9?$AAm?$AAs?$AA?9?$AAw?$AAi?$AAn?$AA?9?$AAc?$AAo?$AAr?$AAe@ 10022e30     libucrt:winapi_thunks.obj
 0002:00002e68       ??_C@_1EI@MPIAOHOC@?$AAa?$AAp?$AAi?$AA?9?$AAm?$AAs?$AA?9?$AAw?$AAi?$AAn?$AA?9?$AAc?$AAo?$AAr?$AAe@ 10022e68     libucrt:winapi_thunks.obj
 0002:00002eb0       ??_C@_1FK@FPHCKFIE@?$AAa?$AAp?$AAi?$AA?9?$AAm?$AAs?$AA?9?$AAw?$AAi?$AAn?$AA?9?$AAc?$AAo?$AAr?$AAe@ 10022eb0     libucrt:winapi_thunks.obj
 0002:00002f10       ??_C@_1EM@DILCGIIO@?$AAa?$AAp?$AAi?$AA?9?$AAm?$AAs?$AA?9?$AAw?$AAi?$AAn?$AA?9?$AAc?$AAo?$AAr?$AAe@ 10022f10     libucrt:winapi_thunks.obj
 0002:00002f5c       ??_C@_1DM@LNCGDDPN@?$AAa?$AAp?$AAi?$AA?9?$AAm?$AAs?$AA?9?$AAw?$AAi?$AAn?$AA?9?$AAc?$AAo?$AAr?$AAe@ 10022f5c     libucrt:winapi_thunks.obj
 0002:00002f98       ??_C@_1DO@FPAPJEMD@?$AAa?$AAp?$AAi?$AA?9?$AAm?$AAs?$AA?9?$AAw?$AAi?$AAn?$AA?9?$AAc?$AAo?$AAr?$AAe@ 10022f98     libucrt:winapi_thunks.obj
 0002:00002fd8       ??_C@_1DK@NDHNAHIO@?$AAa?$AAp?$AAi?$AA?9?$AAm?$AAs?$AA?9?$AAw?$AAi?$AAn?$AA?9?$AAc?$AAo?$AAr?$AAe@ 10022fd8     libucrt:winapi_thunks.obj
 0002:00003014       ??_C@_1DM@KGHDGBCM@?$AAa?$AAp?$AAi?$AA?9?$AAm?$AAs?$AA?9?$AAw?$AAi?$AAn?$AA?9?$AAc?$AAo?$AAr?$AAe@ 10023014     libucrt:winapi_thunks.obj
 0002:00003050       ??_C@_1EO@IJIOEFOH@?$AAa?$AAp?$AAi?$AA?9?$AAm?$AAs?$AA?9?$AAw?$AAi?$AAn?$AA?9?$AAr?$AAt?$AAc?$AAo@ 10023050     libucrt:winapi_thunks.obj
 0002:000030a0       ??_C@_1FG@HHGEKANL@?$AAa?$AAp?$AAi?$AA?9?$AAm?$AAs?$AA?9?$AAw?$AAi?$AAn?$AA?9?$AAs?$AAe?$AAc?$AAu@ 100230a0     libucrt:winapi_thunks.obj
 0002:000030f8       ??_C@_1EG@DBIOJECG@?$AAe?$AAx?$AAt?$AA?9?$AAm?$AAs?$AA?9?$AAw?$AAi?$AAn?$AA?9?$AAn?$AAt?$AAu?$AAs@ 100230f8     libucrt:winapi_thunks.obj
 0002:00003140       ??_C@_1EO@FIHMJCLF@?$AAe?$AAx?$AAt?$AA?9?$AAm?$AAs?$AA?9?$AAw?$AAi?$AAn?$AA?9?$AAn?$AAt?$AAu?$AAs@ 10023140     libucrt:winapi_thunks.obj
 0002:00003190       ??_C@_1BC@DNHGCMLG@?$AAa?$AAd?$AAv?$AAa?$AAp?$AAi?$AA3?$AA2@ 10023190     libucrt:winapi_thunks.obj
 0002:000031a4       ??_C@_1M@OAIMIKLP@?$AAn?$AAt?$AAd?$AAl?$AAl@ 100231a4     libucrt:winapi_thunks.obj
 0002:000031b0       ??_C@_1EG@DPGNFKGC@?$AAa?$AAp?$AAi?$AA?9?$AAm?$AAs?$AA?9?$AAw?$AAi?$AAn?$AA?9?$AAa?$AAp?$AAp?$AAm@ 100231b0     libucrt:winapi_thunks.obj
 0002:000031f8       ??_C@_1O@BCCLBEOE@?$AAu?$AAs?$AAe?$AAr?$AA3?$AA2@ 100231f8     libucrt:winapi_thunks.obj
 0002:00003208       ??_C@_1BA@IAIFMGEF@?$AAe?$AAx?$AAt?$AA?9?$AAm?$AAs?$AA?9@ 10023208     libucrt:winapi_thunks.obj
 0002:0000321c       ??_C@_0BA@FHFNEAED@AreFileApisANSI@ 1002321c     libucrt:winapi_thunks.obj
 0002:0000325c       ??_C@_0O@KKBNKAPF@LCMapStringEx@ 1002325c     libucrt:winapi_thunks.obj
 0002:00003274       ??_C@_0BB@HBDEELFH@LocaleNameToLCID@ 10023274     libucrt:winapi_thunks.obj
 0002:0000328c       ??_C@_0CF@OJOFEIGO@AppPolicyGetProcessTerminationM@ 1002328c     libucrt:winapi_thunks.obj
 0002:000032bc       ??_C@_0BI@BKLFFAPO@SetThreadStackGuarantee@ 100232bc     libucrt:winapi_thunks.obj
 0002:00003318       ??_C@_03OEIAHPBN@INF@      10023318     libucrt:cvt.obj
 0002:0000331c       ??_C@_03OJHLLCGB@inf@      1002331c     libucrt:cvt.obj
 0002:00003320       ??_C@_03LKNCIKJB@NAN@      10023320     libucrt:cvt.obj
 0002:00003324       ??_C@_03LHCJEHON@nan@      10023324     libucrt:cvt.obj
 0002:00003328       ??_C@_09OFJJIMPC@NAN?$CISNAN?$CJ@ 10023328     libucrt:cvt.obj
 0002:00003334       ??_C@_09IPFBKMDL@nan?$CIsnan?$CJ@ 10023334     libucrt:cvt.obj
 0002:00003340       ??_C@_08IKHNHAJ@NAN?$CIIND?$CJ@ 10023340     libucrt:cvt.obj
 0002:0000334c       ??_C@_08OFCDMILK@nan?$CIind?$CJ@ 1002334c     libucrt:cvt.obj
 0002:00003358       ??_C@_05KLBDPFGC@e?$CL000@ 10023358     libucrt:cvt.obj
 0002:00003360       ___lc_time_c               10023360     libucrt:nlsdata.obj
 0002:000034c4       ??_C@_03KOEHGMDN@Sun@      100234c4     libucrt:nlsdata.obj
 0002:000034c8       ??_C@_03PDAGKDH@Mon@       100234c8     libucrt:nlsdata.obj
 0002:000034cc       ??_C@_03NAGEINEP@Tue@      100234cc     libucrt:nlsdata.obj
 0002:000034d0       ??_C@_03MHOMLAJA@Wed@      100234d0     libucrt:nlsdata.obj
 0002:000034d4       ??_C@_03IOFIKPDN@Thu@      100234d4     libucrt:nlsdata.obj
 0002:000034d8       ??_C@_03IDIOELNC@Fri@      100234d8     libucrt:nlsdata.obj
 0002:000034dc       ??_C@_03FEFJNEK@Sat@       100234dc     libucrt:nlsdata.obj
 0002:000034e0       ??_C@_06OOPIFAJ@Sunday@    100234e0     libucrt:nlsdata.obj
 0002:000034e8       ??_C@_06JLEDEDGH@Monday@   100234e8     libucrt:nlsdata.obj
 0002:000034f0       ??_C@_07BAAGCFCM@Tuesday@  100234f0     libucrt:nlsdata.obj
 0002:000034f8       ??_C@_09DLIGFAKA@Wednesday@ 100234f8     libucrt:nlsdata.obj
 0002:00003504       ??_C@_08HACCIKIA@Thursday@ 10023504     libucrt:nlsdata.obj
 0002:00003510       ??_C@_06JECMNKMI@Friday@   10023510     libucrt:nlsdata.obj
 0002:00003518       ??_C@_08INBOOONO@Saturday@ 10023518     libucrt:nlsdata.obj
 0002:00003524       ??_C@_03JIHJHPIE@Jan@      10023524     libucrt:nlsdata.obj
 0002:00003528       ??_C@_03HJBDCHOM@Feb@      10023528     libucrt:nlsdata.obj
 0002:0000352c       ??_C@_03ODNJBKGA@Mar@      1002352c     libucrt:nlsdata.obj
 0002:00003530       ??_C@_03LEOLGMJP@Apr@      10023530     libucrt:nlsdata.obj
 0002:00003534       ??_C@_03CNMDKL@May@        10023534     libucrt:nlsdata.obj
 0002:00003538       ??_C@_03IDFGHECI@Jun@      10023538     libucrt:nlsdata.obj
 0002:0000353c       ??_C@_03LBGABGKK@Jul@      1002353c     libucrt:nlsdata.obj
 0002:00003540       ??_C@_03IFJFEIGA@Aug@      10023540     libucrt:nlsdata.obj
 0002:00003544       ??_C@_03GGCAPAJC@Sep@      10023544     libucrt:nlsdata.obj
 0002:00003548       ??_C@_03BMAOKBAD@Oct@      10023548     libucrt:nlsdata.obj
 0002:0000354c       ??_C@_03JPJOFNIA@Nov@      1002354c     libucrt:nlsdata.obj
 0002:00003550       ??_C@_03MKABNOCG@Dec@      10023550     libucrt:nlsdata.obj
 0002:00003554       ??_C@_07CGJPFGJA@January@  10023554     libucrt:nlsdata.obj
 0002:0000355c       ??_C@_08GNJGEPFN@February@ 1002355c     libucrt:nlsdata.obj
 0002:00003568       ??_C@_05HPCKOFNC@March@    10023568     libucrt:nlsdata.obj
 0002:00003570       ??_C@_05DMJDNLEJ@April@    10023570     libucrt:nlsdata.obj
 0002:00003578       ??_C@_04CNLMGBGM@June@     10023578     libucrt:nlsdata.obj
 0002:00003580       ??_C@_04MIEPOIFP@July@     10023580     libucrt:nlsdata.obj
 0002:00003588       ??_C@_06LBBHFDDG@August@   10023588     libucrt:nlsdata.obj
 0002:00003590       ??_C@_09BHHEALKD@September@ 10023590     libucrt:nlsdata.obj
 0002:0000359c       ??_C@_07JJNFCEND@October@  1002359c     libucrt:nlsdata.obj
 0002:000035a4       ??_C@_08HCHEGEOA@November@ 100235a4     libucrt:nlsdata.obj
 0002:000035b0       ??_C@_08EDHMEBNP@December@ 100235b0     libucrt:nlsdata.obj
 0002:000035bc       ??_C@_02DEDBPAFC@AM@       100235bc     libucrt:nlsdata.obj
 0002:000035c0       ??_C@_02CJNFDJBF@PM@       100235c0     libucrt:nlsdata.obj
 0002:000035c4       ??_C@_08BPBNCDIB@MM?1dd?1yy@ 100235c4     libucrt:nlsdata.obj
 0002:000035d0       ??_C@_0BE@CKGJFCPC@dddd?0?5MMMM?5dd?0?5yyyy@ 100235d0     libucrt:nlsdata.obj
 0002:000035e4       ??_C@_08JCCMCCIL@HH?3mm?3ss@ 100235e4     libucrt:nlsdata.obj
 0002:000035f0       ??_C@_17MBGCMIPB@?$AAS?$AAu?$AAn@ 100235f0     libucrt:nlsdata.obj
 0002:000035f8       ??_C@_17KBOMKBF@?$AAM?$AAo?$AAn@ 100235f8     libucrt:nlsdata.obj
 0002:00003600       ??_C@_17BMKGEGOJ@?$AAT?$AAu?$AAe@ 10023600     libucrt:nlsdata.obj
 0002:00003608       ??_C@_17CJEDCEPE@?$AAW?$AAe?$AAd@ 10023608     libucrt:nlsdata.obj
 0002:00003610       ??_C@_17PDPHAADD@?$AAT?$AAh?$AAu@ 10023610     libucrt:nlsdata.obj
 0002:00003618       ??_C@_17HFOLPPLP@?$AAF?$AAr?$AAi@ 10023618     libucrt:nlsdata.obj
 0002:00003620       ??_C@_17GGIBDPIH@?$AAS?$AAa?$AAt@ 10023620     libucrt:nlsdata.obj
 0002:00003628       ??_C@_1O@IHNHDHPB@?$AAS?$AAu?$AAn?$AAd?$AAa?$AAy@ 10023628     libucrt:nlsdata.obj
 0002:00003638       ??_C@_1O@MMNBFLIA@?$AAM?$AAo?$AAn?$AAd?$AAa?$AAy@ 10023638     libucrt:nlsdata.obj
 0002:00003648       ??_C@_1BA@ENFBFFEK@?$AAT?$AAu?$AAe?$AAs?$AAd?$AAa?$AAy@ 10023648     libucrt:nlsdata.obj
 0002:00003658       ??_C@_1BE@EBOGMDOH@?$AAW?$AAe?$AAd?$AAn?$AAe?$AAs?$AAd?$AAa?$AAy@ 10023658     libucrt:nlsdata.obj
 0002:0000366c       ??_C@_1BC@HHMNLIHE@?$AAT?$AAh?$AAu?$AAr?$AAs?$AAd?$AAa?$AAy@ 1002366c     libucrt:nlsdata.obj
 0002:00003680       ??_C@_1O@PDICJHAG@?$AAF?$AAr?$AAi?$AAd?$AAa?$AAy@ 10023680     libucrt:nlsdata.obj
 0002:00003690       ??_C@_1BC@ENMNNPAJ@?$AAS?$AAa?$AAt?$AAu?$AAr?$AAd?$AAa?$AAy@ 10023690     libucrt:nlsdata.obj
 0002:000036a4       ??_C@_17DKNBKCHM@?$AAJ?$AAa?$AAn@ 100236a4     libucrt:nlsdata.obj
 0002:000036ac       ??_C@_17LMDJEKJN@?$AAF?$AAe?$AAb@ 100236ac     libucrt:nlsdata.obj
 0002:000036b4       ??_C@_17CKNLEDEC@?$AAM?$AAa?$AAr@ 100236b4     libucrt:nlsdata.obj
 0002:000036bc       ??_C@_17LFPOIHDD@?$AAA?$AAp?$AAr@ 100236bc     libucrt:nlsdata.obj
 0002:000036c4       ??_C@_17PNNKMEED@?$AAM?$AAa?$AAy@ 100236c4     libucrt:nlsdata.obj
 0002:000036cc       ??_C@_17KCJGOCPB@?$AAJ?$AAu?$AAn@ 100236cc     libucrt:nlsdata.obj
 0002:000036d4       ??_C@_17IJPCKHK@?$AAJ?$AAu?$AAl@ 100236d4     libucrt:nlsdata.obj
 0002:000036dc       ??_C@_17ICPELBCN@?$AAA?$AAu?$AAg@ 100236dc     libucrt:nlsdata.obj
 0002:000036e4       ??_C@_17HCHCOKMG@?$AAS?$AAe?$AAp@ 100236e4     libucrt:nlsdata.obj
 0002:000036ec       ??_C@_17FNLKOI@?$AAO?$AAc?$AAt@ 100236ec     libucrt:nlsdata.obj
 0002:000036f4       ??_C@_17BBDMLCIG@?$AAN?$AAo?$AAv@ 100236f4     libucrt:nlsdata.obj
 0002:000036fc       ??_C@_17EGKACKIF@?$AAD?$AAe?$AAc@ 100236fc     libucrt:nlsdata.obj
 0002:00003704       ??_C@_1BA@EFMEIEBA@?$AAJ?$AAa?$AAn?$AAu?$AAa?$AAr?$AAy@ 10023704     libucrt:nlsdata.obj
 0002:00003714       ??_C@_1BC@JGDDFFAM@?$AAF?$AAe?$AAb?$AAr?$AAu?$AAa?$AAr?$AAy@ 10023714     libucrt:nlsdata.obj
 0002:00003728       ??_C@_1M@IKEENEDF@?$AAM?$AAa?$AAr?$AAc?$AAh@ 10023728     libucrt:nlsdata.obj
 0002:00003734       ??_C@_1M@GJNLMHFD@?$AAA?$AAp?$AAr?$AAi?$AAl@ 10023734     libucrt:nlsdata.obj
 0002:00003740       ??_C@_19EPFLPGAP@?$AAJ?$AAu?$AAn?$AAe@ 10023740     libucrt:nlsdata.obj
 0002:0000374c       ??_C@_19BIFMLPCD@?$AAJ?$AAu?$AAl?$AAy@ 1002374c     libucrt:nlsdata.obj
 0002:00003758       ??_C@_1O@PAHLKOAC@?$AAA?$AAu?$AAg?$AAu?$AAs?$AAt@ 10023758     libucrt:nlsdata.obj
 0002:00003768       ??_C@_1BE@DKAAMBJL@?$AAS?$AAe?$AAp?$AAt?$AAe?$AAm?$AAb?$AAe?$AAr@ 10023768     libucrt:nlsdata.obj
 0002:0000377c       ??_C@_1BA@EPANDLNG@?$AAO?$AAc?$AAt?$AAo?$AAb?$AAe?$AAr@ 1002377c     libucrt:nlsdata.obj
 0002:0000378c       ??_C@_1BC@BGLIFPF@?$AAN?$AAo?$AAv?$AAe?$AAm?$AAb?$AAe?$AAr@ 1002378c     libucrt:nlsdata.obj
 0002:000037a0       ??_C@_1BC@FEMKIFH@?$AAD?$AAe?$AAc?$AAe?$AAm?$AAb?$AAe?$AAr@ 100237a0     libucrt:nlsdata.obj
 0002:000037b4       ??_C@_15ODEHAHHF@?$AAA?$AAM@ 100237b4     libucrt:nlsdata.obj
 0002:000037bc       ??_C@_15CLMNNGEL@?$AAP?$AAM@ 100237bc     libucrt:nlsdata.obj
 0002:000037c4       ??_C@_1BC@IEBCMHCM@?$AAM?$AAM?$AA?1?$AAd?$AAd?$AA?1?$AAy?$AAy@ 100237c4     libucrt:nlsdata.obj
 0002:000037d8       ??_C@_1CI@KNAKOEBC@?$AAd?$AAd?$AAd?$AAd?$AA?0?$AA?5?$AAM?$AAM?$AAM?$AAM?$AA?5?$AAd?$AAd?$AA?0?$AA?5@ 100237d8     libucrt:nlsdata.obj
 0002:00003800       ??_C@_1BC@GDGBMEMK@?$AAH?$AAH?$AA?3?$AAm?$AAm?$AA?3?$AAs?$AAs@ 10023800     libucrt:nlsdata.obj
 0002:00003814       ??_C@_1M@BMHNFIME@?$AAe?$AAn?$AA?9?$AAU?$AAS@ 10023814     libucrt:nlsdata.obj
 0002:00003830       ??_C@_1M@HPNHIDJI@?$AAj?$AAa?$AA?9?$AAJ?$AAP@ 10023830     libucrt:mbctype.obj
 0002:0000383c       ??_C@_1M@BIBDDEMK@?$AAz?$AAh?$AA?9?$AAC?$AAN@ 1002383c     libucrt:mbctype.obj
 0002:00003848       ??_C@_1M@JLOOOEGK@?$AAk?$AAo?$AA?9?$AAK?$AAR@ 10023848     libucrt:mbctype.obj
 0002:00003854       ??_C@_1M@CLNBBOPM@?$AAz?$AAh?$AA?9?$AAT?$AAW@ 10023854     libucrt:mbctype.obj
 0002:00003860       ___newctype                10023860     libucrt:ctype.obj
 0002:00003b60       ___newclmap                10023b60     libucrt:ctype.obj
 0002:00003ce0       ___newcumap                10023ce0     libucrt:ctype.obj
 0002:00003e60       __wctype                   10023e60     libucrt:ctype.obj
 0002:00004788       ??_C@_15EMKDOKLE@?$AAa?$AAr@ 10024788     libucrt:lcidtoname_downlevel.obj
 0002:00004790       ??_C@_15KNPADPLH@?$AAb?$AAg@ 10024790     libucrt:lcidtoname_downlevel.obj
 0002:00004798       ??_C@_15EDMHLDMO@?$AAc?$AAa@ 10024798     libucrt:lcidtoname_downlevel.obj
 0002:000047a0       ??_C@_1O@BPEAJADD@?$AAz?$AAh?$AA?9?$AAC?$AAH?$AAS@ 100247a0     libucrt:lcidtoname_downlevel.obj
 0002:000047b0       ??_C@_15LJNHCMNK@?$AAc?$AAs@ 100247b0     libucrt:lcidtoname_downlevel.obj
 0002:000047b8       ??_C@_15FOMCIDHG@?$AAd?$AAa@ 100247b8     libucrt:lcidtoname_downlevel.obj
 0002:000047c0       ??_C@_15NBKABECB@?$AAd?$AAe@ 100247c0     libucrt:lcidtoname_downlevel.obj
 0002:000047c8       ??_C@_15GHPEIIAO@?$AAe?$AAl@ 100247c8     libucrt:lcidtoname_downlevel.obj
 0002:000047d0       ??_C@_15MNPNEAIF@?$AAe?$AAn@ 100247d0     libucrt:lcidtoname_downlevel.obj
 0002:000047d8       ??_C@_15GPIOMPMH@?$AAe?$AAs@ 100247d8     libucrt:lcidtoname_downlevel.obj
 0002:000047e0       ??_C@_15NGLOAKJC@?$AAf?$AAi@ 100247e0     libucrt:lcidtoname_downlevel.obj
 0002:000047e8       ??_C@_15FBKGNKAM@?$AAf?$AAr@ 100247e8     libucrt:lcidtoname_downlevel.obj
 0002:000047f0       ??_C@_15KGGCNEFK@?$AAh?$AAe@ 100247f0     libucrt:lcidtoname_downlevel.obj
 0002:000047f8       ??_C@_15PGHLIDMF@?$AAh?$AAu@ 100247f8     libucrt:lcidtoname_downlevel.obj
 0002:00004800       ??_C@_15BIEMAPLM@?$AAi?$AAs@ 10024800     libucrt:lcidtoname_downlevel.obj
 0002:00004808       ??_C@_15IFJLDHAF@?$AAi?$AAt@ 10024808     libucrt:lcidtoname_downlevel.obj
 0002:00004810       ??_C@_15GEMIOCAG@?$AAj?$AAa@ 10024810     libucrt:lcidtoname_downlevel.obj
 0002:00004818       ??_C@_15EPELEGJA@?$AAk?$AAo@ 10024818     libucrt:lcidtoname_downlevel.obj
 0002:00004820       ??_C@_15NDDHIMN@?$AAn?$AAl@ 10024820     libucrt:lcidtoname_downlevel.obj
 0002:00004828       ??_C@_15BPIGNHCD@?$AAn?$AAo@ 10024828     libucrt:lcidtoname_downlevel.obj
 0002:00004830       ??_C@_15DEOPBLCG@?$AAp?$AAl@ 10024830     libucrt:lcidtoname_downlevel.obj
 0002:00004838       ??_C@_15KBECGEFG@?$AAp?$AAt@ 10024838     libucrt:lcidtoname_downlevel.obj
 0002:00004840       ??_C@_15GLJCBFMD@?$AAr?$AAo@ 10024840     libucrt:lcidtoname_downlevel.obj
 0002:00004848       ??_C@_15FEDGKCDI@?$AAr?$AAu@ 10024848     libucrt:lcidtoname_downlevel.obj
 0002:00004850       ??_C@_15GLKMLLHM@?$AAh?$AAr@ 10024850     libucrt:lcidtoname_downlevel.obj
 0002:00004858       ??_C@_15CPKMFBDB@?$AAs?$AAk@ 10024858     libucrt:lcidtoname_downlevel.obj
 0002:00004860       ??_C@_15BAAIOGMK@?$AAs?$AAq@ 10024860     libucrt:lcidtoname_downlevel.obj
 0002:00004868       ??_C@_15INNPNOHD@?$AAs?$AAv@ 10024868     libucrt:lcidtoname_downlevel.obj
 0002:00004870       ??_C@_15CABMMOGH@?$AAt?$AAh@ 10024870     libucrt:lcidtoname_downlevel.obj
 0002:00004878       ??_C@_15BPLIHJJM@?$AAt?$AAr@ 10024878     libucrt:lcidtoname_downlevel.obj
 0002:00004880       ??_C@_15NEOEKKDJ@?$AAu?$AAr@ 10024880     libucrt:lcidtoname_downlevel.obj
 0002:00004888       ??_C@_15NFICGAJK@?$AAi?$AAd@ 10024888     libucrt:lcidtoname_downlevel.obj
 0002:00004890       ??_C@_15PJPFLCCM@?$AAu?$AAk@ 10024890     libucrt:lcidtoname_downlevel.obj
 0002:00004898       ??_C@_15HPJPHDM@?$AAb?$AAe@ 10024898     libucrt:lcidtoname_downlevel.obj
 0002:000048a0       ??_C@_15LCHLGJII@?$AAs?$AAl@ 100248a0     libucrt:lcidtoname_downlevel.obj
 0002:000048a8       ??_C@_15PCFJPHHO@?$AAe?$AAt@ 100248a8     libucrt:lcidtoname_downlevel.obj
 0002:000048b0       ??_C@_15HPFPGODN@?$AAl?$AAv@ 100248b0     libucrt:lcidtoname_downlevel.obj
 0002:000048b8       ??_C@_15NFFGKGLG@?$AAl?$AAt@ 100248b8     libucrt:lcidtoname_downlevel.obj
 0002:000048c0       ??_C@_15BDAKCCHN@?$AAf?$AAa@ 100248c0     libucrt:lcidtoname_downlevel.obj
 0002:000048c8       ??_C@_15NFGIAIAJ@?$AAv?$AAi@ 100248c8     libucrt:lcidtoname_downlevel.obj
 0002:000048d0       ??_C@_15LMKNDMHN@?$AAh?$AAy@ 100248d0     libucrt:lcidtoname_downlevel.obj
 0002:000048d8       ??_C@_15IJBHMCFL@?$AAa?$AAz@ 100248d8     libucrt:lcidtoname_downlevel.obj
 0002:000048e0       ??_C@_15EKOFJABL@?$AAe?$AAu@ 100248e0     libucrt:lcidtoname_downlevel.obj
 0002:000048e8       ??_C@_15BGHADCNK@?$AAm?$AAk@ 100248e8     libucrt:lcidtoname_downlevel.obj
 0002:000048f0       ??_C@_15JDNICKHM@?$AAa?$AAf@ 100248f0     libucrt:lcidtoname_downlevel.obj
 0002:000048f8       ??_C@_15KPJEDBKD@?$AAk?$AAa@ 100248f8     libucrt:lcidtoname_downlevel.obj
 0002:00004900       ??_C@_15PDNFFFEO@?$AAf?$AAo@ 10024900     libucrt:lcidtoname_downlevel.obj
 0002:00004908       ??_C@_15OMLEGLOC@?$AAh?$AAi@ 10024908     libucrt:lcidtoname_downlevel.obj
 0002:00004910       ??_C@_15IDNNENKK@?$AAm?$AAs@ 10024910     libucrt:lcidtoname_downlevel.obj
 0002:00004918       ??_C@_15MACJNBMH@?$AAk?$AAk@ 10024918     libucrt:lcidtoname_downlevel.obj
 0002:00004920       ??_C@_15DKDJEOND@?$AAk?$AAy@ 10024920     libucrt:lcidtoname_downlevel.obj
 0002:00004928       ??_C@_15DFGDLJBG@?$AAs?$AAw@ 10024928     libucrt:lcidtoname_downlevel.obj
 0002:00004930       ??_C@_15BBFAICNG@?$AAu?$AAz@ 10024930     libucrt:lcidtoname_downlevel.obj
 0002:00004938       ??_C@_15DKNDCGEA@?$AAt?$AAt@ 10024938     libucrt:lcidtoname_downlevel.obj
 0002:00004940       ??_C@_15MGIFMDPL@?$AAp?$AAa@ 10024940     libucrt:lcidtoname_downlevel.obj
 0002:00004948       ??_C@_15HCNDBBA@?$AAg?$AAu@ 10024948     libucrt:lcidtoname_downlevel.obj
 0002:00004950       ??_C@_15FNBEIBON@?$AAt?$AAa@ 10024950     libucrt:lcidtoname_downlevel.obj
 0002:00004958       ??_C@_15NCHGBGLK@?$AAt?$AAe@ 10024958     libucrt:lcidtoname_downlevel.obj
 0002:00004960       ??_C@_15PHPHCBPF@?$AAk?$AAn@ 10024960     libucrt:lcidtoname_downlevel.obj
 0002:00004968       ??_C@_15DLGBCKMP@?$AAm?$AAr@ 10024968     libucrt:lcidtoname_downlevel.obj
 0002:00004970       ??_C@_15EABBLBFF@?$AAs?$AAa@ 10024970     libucrt:lcidtoname_downlevel.obj
 0002:00004978       ??_C@_15CBKOMCOI@?$AAm?$AAn@ 10024978     libucrt:lcidtoname_downlevel.obj
 0002:00004980       ??_C@_15CKDMCJAF@?$AAg?$AAl@ 10024980     libucrt:lcidtoname_downlevel.obj
 0002:00004988       ??_C@_17CNJFBPG@?$AAk?$AAo?$AAk@ 10024988     libucrt:lcidtoname_downlevel.obj
 0002:00004990       ??_C@_17FFBJICPL@?$AAs?$AAy?$AAr@ 10024990     libucrt:lcidtoname_downlevel.obj
 0002:00004998       ??_C@_17KPNDCPAF@?$AAd?$AAi?$AAv@ 10024998     libucrt:lcidtoname_downlevel.obj
 0002:000049a0       ??_C@_1M@OKAHONE@?$AAa?$AAr?$AA?9?$AAS?$AAA@ 100249a0     libucrt:lcidtoname_downlevel.obj
 0002:000049ac       ??_C@_1M@FFFIGIGK@?$AAb?$AAg?$AA?9?$AAB?$AAG@ 100249ac     libucrt:lcidtoname_downlevel.obj
 0002:000049b8       ??_C@_1M@BJNKEDC@?$AAc?$AAa?$AA?9?$AAE?$AAS@ 100249b8     libucrt:lcidtoname_downlevel.obj
 0002:000049c4       ??_C@_1M@IJJHFJHA@?$AAc?$AAs?$AA?9?$AAC?$AAZ@ 100249c4     libucrt:lcidtoname_downlevel.obj
 0002:000049d0       ??_C@_1M@CLPEOBGI@?$AAd?$AAa?$AA?9?$AAD?$AAK@ 100249d0     libucrt:lcidtoname_downlevel.obj
 0002:000049dc       ??_C@_1M@MCMADGCB@?$AAd?$AAe?$AA?9?$AAD?$AAE@ 100249dc     libucrt:lcidtoname_downlevel.obj
 0002:000049e8       ??_C@_1M@OOCKEMAM@?$AAe?$AAl?$AA?9?$AAG?$AAR@ 100249e8     libucrt:lcidtoname_downlevel.obj
 0002:000049f4       ??_C@_1M@DDNJFGID@?$AAf?$AAi?$AA?9?$AAF?$AAI@ 100249f4     libucrt:lcidtoname_downlevel.obj
 0002:00004a00       ??_C@_1M@GLIPPMAC@?$AAf?$AAr?$AA?9?$AAF?$AAR@ 10024a00     libucrt:lcidtoname_downlevel.obj
 0002:00004a0c       ??_C@_1M@GFMCHPE@?$AAh?$AAe?$AA?9?$AAI?$AAL@ 10024a0c     libucrt:lcidtoname_downlevel.obj
 0002:00004a18       ??_C@_1M@MHLPGNKM@?$AAh?$AAu?$AA?9?$AAH?$AAU@ 10024a18     libucrt:lcidtoname_downlevel.obj
 0002:00004a24       ??_C@_1M@LPDDNNPN@?$AAi?$AAs?$AA?9?$AAI?$AAS@ 10024a24     libucrt:lcidtoname_downlevel.obj
 0002:00004a30       ??_C@_1M@MADIPODN@?$AAi?$AAt?$AA?9?$AAI?$AAT@ 10024a30     libucrt:lcidtoname_downlevel.obj
 0002:00004a3c       ??_C@_1M@IHBJJGG@?$AAn?$AAl?$AA?9?$AAN?$AAL@ 10024a3c     libucrt:lcidtoname_downlevel.obj
 0002:00004a48       ??_C@_1M@EANAGDL@?$AAn?$AAb?$AA?9?$AAN?$AAO@ 10024a48     libucrt:lcidtoname_downlevel.obj
 0002:00004a54       ??_C@_1M@NEIEMEGP@?$AAp?$AAl?$AA?9?$AAP?$AAL@ 10024a54     libucrt:lcidtoname_downlevel.obj
 0002:00004a60       ??_C@_1M@BOCFIGEP@?$AAp?$AAt?$AA?9?$AAB?$AAR@ 10024a60     libucrt:lcidtoname_downlevel.obj
 0002:00004a6c       ??_C@_1M@IMPFOPBG@?$AAr?$AAo?$AA?9?$AAR?$AAO@ 10024a6c     libucrt:lcidtoname_downlevel.obj
 0002:00004a78       ??_C@_1M@IDNNEJMM@?$AAr?$AAu?$AA?9?$AAR?$AAU@ 10024a78     libucrt:lcidtoname_downlevel.obj
 0002:00004a84       ??_C@_1M@LILEEOGM@?$AAh?$AAr?$AA?9?$AAH?$AAR@ 10024a84     libucrt:lcidtoname_downlevel.obj
 0002:00004a90       ??_C@_1M@FKIFEHPB@?$AAs?$AAk?$AA?9?$AAS?$AAK@ 10024a90     libucrt:lcidtoname_downlevel.obj
 0002:00004a9c       ??_C@_1M@LJMAMNPJ@?$AAs?$AAq?$AA?9?$AAA?$AAL@ 10024a9c     libucrt:lcidtoname_downlevel.obj
 0002:00004aa8       ??_C@_1M@GIAKDKJK@?$AAs?$AAv?$AA?9?$AAS?$AAE@ 10024aa8     libucrt:lcidtoname_downlevel.obj
 0002:00004ab4       ??_C@_1M@MKJKIKCL@?$AAt?$AAh?$AA?9?$AAT?$AAH@ 10024ab4     libucrt:lcidtoname_downlevel.obj
 0002:00004ac0       ??_C@_1M@MFLCCMPB@?$AAt?$AAr?$AA?9?$AAT?$AAR@ 10024ac0     libucrt:lcidtoname_downlevel.obj
 0002:00004acc       ??_C@_1M@OIJHDKJN@?$AAu?$AAr?$AA?9?$AAP?$AAK@ 10024acc     libucrt:lcidtoname_downlevel.obj
 0002:00004ad8       ??_C@_1M@LHIPCIEK@?$AAi?$AAd?$AA?9?$AAI?$AAD@ 10024ad8     libucrt:lcidtoname_downlevel.obj
 0002:00004ae4       ??_C@_1M@MFMOBGI@?$AAu?$AAk?$AA?9?$AAU?$AAA@ 10024ae4     libucrt:lcidtoname_downlevel.obj
 0002:00004af0       ??_C@_1M@OBGLJIPL@?$AAb?$AAe?$AA?9?$AAB?$AAY@ 10024af0     libucrt:lcidtoname_downlevel.obj
 0002:00004afc       ??_C@_1M@BCFAJEAD@?$AAs?$AAl?$AA?9?$AAS?$AAI@ 10024afc     libucrt:lcidtoname_downlevel.obj
 0002:00004b08       ??_C@_1M@FKFFEDDN@?$AAe?$AAt?$AA?9?$AAE?$AAE@ 10024b08     libucrt:lcidtoname_downlevel.obj
 0002:00004b14       ??_C@_1M@KGKKAACI@?$AAl?$AAv?$AA?9?$AAL?$AAV@ 10024b14     libucrt:lcidtoname_downlevel.obj
 0002:00004b20       ??_C@_1M@IFGBIJO@?$AAl?$AAt?$AA?9?$AAL?$AAT@ 10024b20     libucrt:lcidtoname_downlevel.obj
 0002:00004b2c       ??_C@_1M@FGEAHEDM@?$AAf?$AAa?$AA?9?$AAI?$AAR@ 10024b2c     libucrt:lcidtoname_downlevel.obj
 0002:00004b38       ??_C@_1M@KBMAIBFN@?$AAv?$AAi?$AA?9?$AAV?$AAN@ 10024b38     libucrt:lcidtoname_downlevel.obj
 0002:00004b44       ??_C@_1M@GPCBKDJK@?$AAh?$AAy?$AA?9?$AAA?$AAM@ 10024b44     libucrt:lcidtoname_downlevel.obj
 0002:00004b50       ??_C@_1BG@BECMDDJB@?$AAa?$AAz?$AA?9?$AAA?$AAZ?$AA?9?$AAL?$AAa?$AAt?$AAn@ 10024b50     libucrt:lcidtoname_downlevel.obj
 0002:00004b68       ??_C@_1M@MAOFCAEA@?$AAe?$AAu?$AA?9?$AAE?$AAS@ 10024b68     libucrt:lcidtoname_downlevel.obj
 0002:00004b74       ??_C@_1M@IGHABKPI@?$AAm?$AAk?$AA?9?$AAM?$AAK@ 10024b74     libucrt:lcidtoname_downlevel.obj
 0002:00004b80       ??_C@_1M@IAIGNEJG@?$AAt?$AAn?$AA?9?$AAZ?$AAA@ 10024b80     libucrt:lcidtoname_downlevel.obj
 0002:00004b8c       ??_C@_1M@IIJCOJFA@?$AAx?$AAh?$AA?9?$AAZ?$AAA@ 10024b8c     libucrt:lcidtoname_downlevel.obj
 0002:00004b98       ??_C@_1M@LGPJHNJH@?$AAz?$AAu?$AA?9?$AAZ?$AAA@ 10024b98     libucrt:lcidtoname_downlevel.obj
 0002:00004ba4       ??_C@_1M@HOKAOIO@?$AAa?$AAf?$AA?9?$AAZ?$AAA@ 10024ba4     libucrt:lcidtoname_downlevel.obj
 0002:00004bb0       ??_C@_1M@DPCLHLIE@?$AAk?$AAa?$AA?9?$AAG?$AAE@ 10024bb0     libucrt:lcidtoname_downlevel.obj
 0002:00004bbc       ??_C@_1M@BLKMHJBI@?$AAf?$AAo?$AA?9?$AAF?$AAO@ 10024bbc     libucrt:lcidtoname_downlevel.obj
 0002:00004bc8       ??_C@_1M@LGGJAPPB@?$AAh?$AAi?$AA?9?$AAI?$AAN@ 10024bc8     libucrt:lcidtoname_downlevel.obj
 0002:00004bd4       ??_C@_1M@FIKPIHFE@?$AAm?$AAt?$AA?9?$AAM?$AAT@ 10024bd4     libucrt:lcidtoname_downlevel.obj
 0002:00004be0       ??_C@_1M@HEGGPBFA@?$AAs?$AAe?$AA?9?$AAN?$AAO@ 10024be0     libucrt:lcidtoname_downlevel.obj
 0002:00004bec       ??_C@_1M@EIBJEEPA@?$AAm?$AAs?$AA?9?$AAM?$AAY@ 10024bec     libucrt:lcidtoname_downlevel.obj
 0002:00004bf8       ??_C@_1M@FHLBGMPP@?$AAk?$AAk?$AA?9?$AAK?$AAZ@ 10024bf8     libucrt:lcidtoname_downlevel.obj
 0002:00004c04       ??_C@_1M@NGJJLCGI@?$AAk?$AAy?$AA?9?$AAK?$AAG@ 10024c04     libucrt:lcidtoname_downlevel.obj
 0002:00004c10       ??_C@_1M@GIENNBFC@?$AAs?$AAw?$AA?9?$AAK?$AAE@ 10024c10     libucrt:lcidtoname_downlevel.obj
 0002:00004c1c       ??_C@_1BG@NDGMJIMJ@?$AAu?$AAz?$AA?9?$AAU?$AAZ?$AA?9?$AAL?$AAa?$AAt?$AAn@ 10024c1c     libucrt:lcidtoname_downlevel.obj
 0002:00004c34       ??_C@_1M@IDCCIHBC@?$AAt?$AAt?$AA?9?$AAR?$AAU@ 10024c34     libucrt:lcidtoname_downlevel.obj
 0002:00004c40       ??_C@_1M@LOICPMOJ@?$AAb?$AAn?$AA?9?$AAI?$AAN@ 10024c40     libucrt:lcidtoname_downlevel.obj
 0002:00004c4c       ??_C@_1M@KPKKNEAH@?$AAp?$AAa?$AA?9?$AAI?$AAN@ 10024c4c     libucrt:lcidtoname_downlevel.obj
 0002:00004c58       ??_C@_1M@PJGPPBOG@?$AAg?$AAu?$AA?9?$AAI?$AAN@ 10024c58     libucrt:lcidtoname_downlevel.obj
 0002:00004c64       ??_C@_1M@KMKMOPHI@?$AAt?$AAa?$AA?9?$AAI?$AAN@ 10024c64     libucrt:lcidtoname_downlevel.obj
 0002:00004c70       ??_C@_1M@KFEHEPAC@?$AAt?$AAe?$AA?9?$AAI?$AAN@ 10024c70     libucrt:lcidtoname_downlevel.obj
 0002:00004c7c       ??_C@_1M@CDCLMGHI@?$AAk?$AAn?$AA?9?$AAI?$AAN@ 10024c7c     libucrt:lcidtoname_downlevel.obj
 0002:00004c88       ??_C@_1M@MIODLDKF@?$AAm?$AAl?$AA?9?$AAI?$AAN@ 10024c88     libucrt:lcidtoname_downlevel.obj
 0002:00004c94       ??_C@_1M@PBIEACPO@?$AAm?$AAr?$AA?9?$AAI?$AAN@ 10024c94     libucrt:lcidtoname_downlevel.obj
 0002:00004ca0       ??_C@_1M@NIDEAGPH@?$AAs?$AAa?$AA?9?$AAI?$AAN@ 10024ca0     libucrt:lcidtoname_downlevel.obj
 0002:00004cac       ??_C@_1M@FHIHCBIO@?$AAm?$AAn?$AA?9?$AAM?$AAN@ 10024cac     libucrt:lcidtoname_downlevel.obj
 0002:00004cb8       ??_C@_1M@JAIJPENP@?$AAc?$AAy?$AA?9?$AAG?$AAB@ 10024cb8     libucrt:lcidtoname_downlevel.obj
 0002:00004cc4       ??_C@_1M@PHGFBEPN@?$AAg?$AAl?$AA?9?$AAE?$AAS@ 10024cc4     libucrt:lcidtoname_downlevel.obj
 0002:00004cd0       ??_C@_1O@KPIPDNCP@?$AAk?$AAo?$AAk?$AA?9?$AAI?$AAN@ 10024cd0     libucrt:lcidtoname_downlevel.obj
 0002:00004ce0       ??_C@_1O@KNHJLDJA@?$AAs?$AAy?$AAr?$AA?9?$AAS?$AAY@ 10024ce0     libucrt:lcidtoname_downlevel.obj
 0002:00004cf0       ??_C@_1O@MKEKBLAH@?$AAd?$AAi?$AAv?$AA?9?$AAM?$AAV@ 10024cf0     libucrt:lcidtoname_downlevel.obj
 0002:00004d00       ??_C@_1O@OHDCKDDF@?$AAq?$AAu?$AAz?$AA?9?$AAB?$AAO@ 10024d00     libucrt:lcidtoname_downlevel.obj
 0002:00004d10       ??_C@_1M@LEPJNLFD@?$AAn?$AAs?$AA?9?$AAZ?$AAA@ 10024d10     libucrt:lcidtoname_downlevel.obj
 0002:00004d1c       ??_C@_1M@OMLEIIJB@?$AAm?$AAi?$AA?9?$AAN?$AAZ@ 10024d1c     libucrt:lcidtoname_downlevel.obj
 0002:00004d28       ??_C@_1M@PMPEAILG@?$AAa?$AAr?$AA?9?$AAI?$AAQ@ 10024d28     libucrt:lcidtoname_downlevel.obj
 0002:00004d34       ??_C@_1M@CNKPNOEE@?$AAd?$AAe?$AA?9?$AAC?$AAH@ 10024d34     libucrt:lcidtoname_downlevel.obj
 0002:00004d40       ??_C@_1M@LKMGMLKO@?$AAe?$AAn?$AA?9?$AAG?$AAB@ 10024d40     libucrt:lcidtoname_downlevel.obj
 0002:00004d4c       ??_C@_1M@PGKJFFGL@?$AAe?$AAs?$AA?9?$AAM?$AAX@ 10024d4c     libucrt:lcidtoname_downlevel.obj
 0002:00004d58       ??_C@_1M@DNNANBDC@?$AAf?$AAr?$AA?9?$AAB?$AAE@ 10024d58     libucrt:lcidtoname_downlevel.obj
 0002:00004d64       ??_C@_1M@HLGMDFHM@?$AAi?$AAt?$AA?9?$AAC?$AAH@ 10024d64     libucrt:lcidtoname_downlevel.obj
 0002:00004d70       ??_C@_1M@CLLBGJH@?$AAn?$AAl?$AA?9?$AAB?$AAE@ 10024d70     libucrt:lcidtoname_downlevel.obj
 0002:00004d7c       ??_C@_1M@BODBOGLF@?$AAn?$AAn?$AA?9?$AAN?$AAO@ 10024d7c     libucrt:lcidtoname_downlevel.obj
 0002:00004d88       ??_C@_1M@HFFAHKAD@?$AAp?$AAt?$AA?9?$AAP?$AAT@ 10024d88     libucrt:lcidtoname_downlevel.obj
 0002:00004d94       ??_C@_1BG@LNOAKHIE@?$AAs?$AAr?$AA?9?$AAS?$AAP?$AA?9?$AAL?$AAa?$AAt?$AAn@ 10024d94     libucrt:lcidtoname_downlevel.obj
 0002:00004dac       ??_C@_1M@HBMHBGAK@?$AAs?$AAv?$AA?9?$AAF?$AAI@ 10024dac     libucrt:lcidtoname_downlevel.obj
 0002:00004db8       ??_C@_1BG@DGCJGJBE@?$AAa?$AAz?$AA?9?$AAA?$AAZ?$AA?9?$AAC?$AAy?$AAr?$AAl@ 10024db8     libucrt:lcidtoname_downlevel.obj
 0002:00004dd0       ??_C@_1M@KEJDAAHB@?$AAs?$AAe?$AA?9?$AAS?$AAE@ 10024dd0     libucrt:lcidtoname_downlevel.obj
 0002:00004ddc       ??_C@_1M@HEIBJJAD@?$AAm?$AAs?$AA?9?$AAB?$AAN@ 10024ddc     libucrt:lcidtoname_downlevel.obj
 0002:00004de8       ??_C@_1BG@PBGJMCEM@?$AAu?$AAz?$AA?9?$AAU?$AAZ?$AA?9?$AAC?$AAy?$AAr?$AAl@ 10024de8     libucrt:lcidtoname_downlevel.obj
 0002:00004e00       ??_C@_1O@LAOBCMDF@?$AAq?$AAu?$AAz?$AA?9?$AAE?$AAC@ 10024e00     libucrt:lcidtoname_downlevel.obj
 0002:00004e10       ??_C@_1M@POEEMAIO@?$AAa?$AAr?$AA?9?$AAE?$AAG@ 10024e10     libucrt:lcidtoname_downlevel.obj
 0002:00004e1c       ??_C@_1M@EFAKDEDL@?$AAz?$AAh?$AA?9?$AAH?$AAK@ 10024e1c     libucrt:lcidtoname_downlevel.obj
 0002:00004e28       ??_C@_1M@HKKIJHGI@?$AAd?$AAe?$AA?9?$AAA?$AAT@ 10024e28     libucrt:lcidtoname_downlevel.obj
 0002:00004e34       ??_C@_1M@KBFBEHJF@?$AAe?$AAn?$AA?9?$AAA?$AAU@ 10024e34     libucrt:lcidtoname_downlevel.obj
 0002:00004e40       ??_C@_1M@MNPLFAAH@?$AAe?$AAs?$AA?9?$AAE?$AAS@ 10024e40     libucrt:lcidtoname_downlevel.obj
 0002:00004e4c       ??_C@_1M@HJOOJFMA@?$AAf?$AAr?$AA?9?$AAC?$AAA@ 10024e4c     libucrt:lcidtoname_downlevel.obj
 0002:00004e58       ??_C@_1BG@JPOFPNAB@?$AAs?$AAr?$AA?9?$AAS?$AAP?$AA?9?$AAC?$AAy?$AAr?$AAl@ 10024e58     libucrt:lcidtoname_downlevel.obj
 0002:00004e70       ??_C@_1M@LNFOCMOB@?$AAs?$AAe?$AA?9?$AAF?$AAI@ 10024e70     libucrt:lcidtoname_downlevel.obj
 0002:00004e7c       ??_C@_1O@MGJBOAMB@?$AAq?$AAu?$AAz?$AA?9?$AAP?$AAE@ 10024e7c     libucrt:lcidtoname_downlevel.obj
 0002:00004e8c       ??_C@_1M@GJINLBOK@?$AAa?$AAr?$AA?9?$AAL?$AAY@ 10024e8c     libucrt:lcidtoname_downlevel.obj
 0002:00004e98       ??_C@_1M@GGMNHJNL@?$AAz?$AAh?$AA?9?$AAS?$AAG@ 10024e98     libucrt:lcidtoname_downlevel.obj
 0002:00004ea4       ??_C@_1M@HOIKODND@?$AAd?$AAe?$AA?9?$AAL?$AAU@ 10024ea4     libucrt:lcidtoname_downlevel.obj
 0002:00004eb0       ??_C@_1M@DDOCCGFG@?$AAe?$AAn?$AA?9?$AAC?$AAA@ 10024eb0     libucrt:lcidtoname_downlevel.obj
 0002:00004ebc       ??_C@_1M@BNOEMJLF@?$AAe?$AAs?$AA?9?$AAG?$AAT@ 10024ebc     libucrt:lcidtoname_downlevel.obj
 0002:00004ec8       ??_C@_1M@EOGNKEK@?$AAf?$AAr?$AA?9?$AAC?$AAH@ 10024ec8     libucrt:lcidtoname_downlevel.obj
 0002:00004ed4       ??_C@_1M@FLIDJFHL@?$AAh?$AAr?$AA?9?$AAB?$AAA@ 10024ed4     libucrt:lcidtoname_downlevel.obj
 0002:00004ee0       ??_C@_1O@FMCELNAJ@?$AAs?$AAm?$AAj?$AA?9?$AAN?$AAO@ 10024ee0     libucrt:lcidtoname_downlevel.obj
 0002:00004ef0       ??_C@_1M@JHGLJMGJ@?$AAa?$AAr?$AA?9?$AAD?$AAZ@ 10024ef0     libucrt:lcidtoname_downlevel.obj
 0002:00004efc       ??_C@_1M@JKKFDCNP@?$AAz?$AAh?$AA?9?$AAM?$AAO@ 10024efc     libucrt:lcidtoname_downlevel.obj
 0002:00004f08       ??_C@_1M@GEEFALPE@?$AAd?$AAe?$AA?9?$AAL?$AAI@ 10024f08     libucrt:lcidtoname_downlevel.obj
 0002:00004f14       ??_C@_1M@IGEOFBG@?$AAe?$AAn?$AA?9?$AAN?$AAZ@ 10024f14     libucrt:lcidtoname_downlevel.obj
 0002:00004f20       ??_C@_1M@KDBONEHP@?$AAe?$AAs?$AA?9?$AAC?$AAR@ 10024f20     libucrt:lcidtoname_downlevel.obj
 0002:00004f2c       ??_C@_1M@FHMDOHNN@?$AAf?$AAr?$AA?9?$AAL?$AAU@ 10024f2c     libucrt:lcidtoname_downlevel.obj
 0002:00004f38       ??_C@_1BG@NFKKMAFG@?$AAb?$AAs?$AA?9?$AAB?$AAA?$AA?9?$AAL?$AAa?$AAt?$AAn@ 10024f38     libucrt:lcidtoname_downlevel.obj
 0002:00004f50       ??_C@_1O@IMNBEMCI@?$AAs?$AAm?$AAj?$AA?9?$AAS?$AAE@ 10024f50     libucrt:lcidtoname_downlevel.obj
 0002:00004f60       ??_C@_1M@DHHMBNDP@?$AAa?$AAr?$AA?9?$AAM?$AAA@ 10024f60     libucrt:lcidtoname_downlevel.obj
 0002:00004f6c       ??_C@_1M@BNBLJCGH@?$AAe?$AAn?$AA?9?$AAI?$AAE@ 10024f6c     libucrt:lcidtoname_downlevel.obj
 0002:00004f78       ??_C@_1M@GEPAFMDL@?$AAe?$AAs?$AA?9?$AAP?$AAA@ 10024f78     libucrt:lcidtoname_downlevel.obj
 0002:00004f84       ??_C@_1M@OJONDMDL@?$AAf?$AAr?$AA?9?$AAM?$AAC@ 10024f84     libucrt:lcidtoname_downlevel.obj
 0002:00004f90       ??_C@_1BG@OBCNFJB@?$AAs?$AAr?$AA?9?$AAB?$AAA?$AA?9?$AAL?$AAa?$AAt?$AAn@ 10024f90     libucrt:lcidtoname_downlevel.obj
 0002:00004fa8       ??_C@_1O@KEMEEGPO@?$AAs?$AAm?$AAa?$AA?9?$AAN?$AAO@ 10024fa8     libucrt:lcidtoname_downlevel.obj
 0002:00004fb8       ??_C@_1M@ELMGFODK@?$AAa?$AAr?$AA?9?$AAT?$AAN@ 10024fb8     libucrt:lcidtoname_downlevel.obj
 0002:00004fc4       ??_C@_1M@BHDLHFAF@?$AAe?$AAn?$AA?9?$AAZ?$AAA@ 10024fc4     libucrt:lcidtoname_downlevel.obj
 0002:00004fd0       ??_C@_1M@BMGIGLIF@?$AAe?$AAs?$AA?9?$AAD?$AAO@ 10024fd0     libucrt:lcidtoname_downlevel.obj
 0002:00004fdc       ??_C@_1BG@CMBHIPBE@?$AAs?$AAr?$AA?9?$AAB?$AAA?$AA?9?$AAC?$AAy?$AAr?$AAl@ 10024fdc     libucrt:lcidtoname_downlevel.obj
 0002:00004ff4       ??_C@_1O@HEDBLHNP@?$AAs?$AAm?$AAa?$AA?9?$AAS?$AAE@ 10024ff4     libucrt:lcidtoname_downlevel.obj
 0002:00005004       ??_C@_1M@DAGCADIM@?$AAa?$AAr?$AA?9?$AAO?$AAM@ 10025004     libucrt:lcidtoname_downlevel.obj
 0002:00005010       ??_C@_1M@FODLMICG@?$AAe?$AAn?$AA?9?$AAJ?$AAM@ 10025010     libucrt:lcidtoname_downlevel.obj
 0002:0000501c       ??_C@_1M@DNMLCIHB@?$AAe?$AAs?$AA?9?$AAV?$AAE@ 1002501c     libucrt:lcidtoname_downlevel.obj
 0002:00005028       ??_C@_1O@EOKHMKJK@?$AAs?$AAm?$AAs?$AA?9?$AAF?$AAI@ 10025028     libucrt:lcidtoname_downlevel.obj
 0002:00005038       ??_C@_1M@CAFJMKOF@?$AAa?$AAr?$AA?9?$AAY?$AAE@ 10025038     libucrt:lcidtoname_downlevel.obj
 0002:00005044       ??_C@_1M@CBFHIJLI@?$AAe?$AAn?$AA?9?$AAC?$AAB@ 10025044     libucrt:lcidtoname_downlevel.obj
 0002:00005050       ??_C@_1M@BGNFLDN@?$AAe?$AAs?$AA?9?$AAC?$AAO@ 10025050     libucrt:lcidtoname_downlevel.obj
 0002:0000505c       ??_C@_1O@JMPHMAMC@?$AAs?$AAm?$AAn?$AA?9?$AAF?$AAI@ 1002505c     libucrt:lcidtoname_downlevel.obj
 0002:0000506c       ??_C@_1M@JLANABKE@?$AAa?$AAr?$AA?9?$AAS?$AAY@ 1002506c     libucrt:lcidtoname_downlevel.obj
 0002:00005078       ??_C@_1M@HPKGCFGN@?$AAe?$AAn?$AA?9?$AAB?$AAZ@ 10025078     libucrt:lcidtoname_downlevel.obj
 0002:00005084       ??_C@_1M@OLJCMLGM@?$AAe?$AAs?$AA?9?$AAP?$AAE@ 10025084     libucrt:lcidtoname_downlevel.obj
 0002:00005090       ??_C@_1M@MKKGFKLE@?$AAa?$AAr?$AA?9?$AAJ?$AAO@ 10025090     libucrt:lcidtoname_downlevel.obj
 0002:0000509c       ??_C@_1M@EKPGLDNI@?$AAe?$AAn?$AA?9?$AAT?$AAT@ 1002509c     libucrt:lcidtoname_downlevel.obj
 0002:000050a8       ??_C@_1M@OONGHFHE@?$AAe?$AAs?$AA?9?$AAA?$AAR@ 100250a8     libucrt:lcidtoname_downlevel.obj
 0002:000050b4       ??_C@_1M@OOJFGBHE@?$AAa?$AAr?$AA?9?$AAL?$AAB@ 100250b4     libucrt:lcidtoname_downlevel.obj
 0002:000050c0       ??_C@_1M@GCEJHNEG@?$AAe?$AAn?$AA?9?$AAZ?$AAW@ 100250c0     libucrt:lcidtoname_downlevel.obj
 0002:000050cc       ??_C@_1M@JNOCAHJI@?$AAe?$AAs?$AA?9?$AAE?$AAC@ 100250cc     libucrt:lcidtoname_downlevel.obj
 0002:000050d8       ??_C@_1M@JEFHPGGB@?$AAa?$AAr?$AA?9?$AAK?$AAW@ 100250d8     libucrt:lcidtoname_downlevel.obj
 0002:000050e4       ??_C@_1M@MLKIBJOJ@?$AAe?$AAn?$AA?9?$AAP?$AAH@ 100250e4     libucrt:lcidtoname_downlevel.obj
 0002:000050f0       ??_C@_1M@BDNIPEND@?$AAe?$AAs?$AA?9?$AAC?$AAL@ 100250f0     libucrt:lcidtoname_downlevel.obj
 0002:000050fc       ??_C@_1M@MPNMEKBD@?$AAa?$AAr?$AA?9?$AAA?$AAE@ 100250fc     libucrt:lcidtoname_downlevel.obj
 0002:00005108       ??_C@_1M@KBJALCPI@?$AAe?$AAs?$AA?9?$AAU?$AAY@ 10025108     libucrt:lcidtoname_downlevel.obj
 0002:00005114       ??_C@_1M@LLCCOAGA@?$AAa?$AAr?$AA?9?$AAB?$AAH@ 10025114     libucrt:lcidtoname_downlevel.obj
 0002:00005120       ??_C@_1M@PBFNCDEL@?$AAe?$AAs?$AA?9?$AAP?$AAY@ 10025120     libucrt:lcidtoname_downlevel.obj
 0002:0000512c       ??_C@_1M@EDGINPNP@?$AAa?$AAr?$AA?9?$AAQ?$AAA@ 1002512c     libucrt:lcidtoname_downlevel.obj
 0002:00005138       ??_C@_1M@MKDBIIJI@?$AAe?$AAs?$AA?9?$AAB?$AAO@ 10025138     libucrt:lcidtoname_downlevel.obj
 0002:00005144       ??_C@_1M@CPKKEBLD@?$AAe?$AAs?$AA?9?$AAS?$AAV@ 10025144     libucrt:lcidtoname_downlevel.obj
 0002:00005150       ??_C@_1M@NDBGMMJL@?$AAe?$AAs?$AA?9?$AAH?$AAN@ 10025150     libucrt:lcidtoname_downlevel.obj
 0002:0000515c       ??_C@_1M@JIJIBHDP@?$AAe?$AAs?$AA?9?$AAN?$AAI@ 1002515c     libucrt:lcidtoname_downlevel.obj
 0002:00005168       ??_C@_1M@CGFMKEEK@?$AAe?$AAs?$AA?9?$AAP?$AAR@ 10025168     libucrt:lcidtoname_downlevel.obj
 0002:00005174       ??_C@_1O@ICJHKIIK@?$AAz?$AAh?$AA?9?$AAC?$AAH?$AAT@ 10025174     libucrt:lcidtoname_downlevel.obj
 0002:00005184       ??_C@_15CLNEJCE@?$AAs?$AAr@ 10025184     libucrt:lcidtoname_downlevel.obj
 0002:000058b0       ??_C@_1M@KAHEKEIG@?$AAa?$AAf?$AA?9?$AAz?$AAa@ 100258b0     libucrt:lcidtoname_downlevel.obj
 0002:000058bc       ??_C@_1M@GIECOABL@?$AAa?$AAr?$AA?9?$AAa?$AAe@ 100258bc     libucrt:lcidtoname_downlevel.obj
 0002:000058c8       ??_C@_1M@BMLMEKGI@?$AAa?$AAr?$AA?9?$AAb?$AAh@ 100258c8     libucrt:lcidtoname_downlevel.obj
 0002:000058d4       ??_C@_1M@DAPFDGGB@?$AAa?$AAr?$AA?9?$AAd?$AAz@ 100258d4     libucrt:lcidtoname_downlevel.obj
 0002:000058e0       ??_C@_1M@FJNKGKIG@?$AAa?$AAr?$AA?9?$AAe?$AAg@ 100258e0     libucrt:lcidtoname_downlevel.obj
 0002:000058ec       ??_C@_1M@FLGKKCLO@?$AAa?$AAr?$AA?9?$AAi?$AAq@ 100258ec     libucrt:lcidtoname_downlevel.obj
 0002:000058f8       ??_C@_1M@GNDIPALM@?$AAa?$AAr?$AA?9?$AAj?$AAo@ 100258f8     libucrt:lcidtoname_downlevel.obj
 0002:00005904       ??_C@_1M@DDMJFMGJ@?$AAa?$AAr?$AA?9?$AAk?$AAw@ 10025904     libucrt:lcidtoname_downlevel.obj
 0002:00005910       ??_C@_1M@EJALMLHM@?$AAa?$AAr?$AA?9?$AAl?$AAb@ 10025910     libucrt:lcidtoname_downlevel.obj
 0002:0000591c       ??_C@_1M@MOBDBLOC@?$AAa?$AAr?$AA?9?$AAl?$AAy@ 1002591c     libucrt:lcidtoname_downlevel.obj
 0002:00005928       ??_C@_1M@JAOCLHDH@?$AAa?$AAr?$AA?9?$AAm?$AAa@ 10025928     libucrt:lcidtoname_downlevel.obj
 0002:00005934       ??_C@_1M@JHPMKJIE@?$AAa?$AAr?$AA?9?$AAo?$AAm@ 10025934     libucrt:lcidtoname_downlevel.obj
 0002:00005940       ??_C@_1M@OEPGHFNH@?$AAa?$AAr?$AA?9?$AAq?$AAa@ 10025940     libucrt:lcidtoname_downlevel.obj
 0002:0000594c       ??_C@_1M@KJDONENM@?$AAa?$AAr?$AA?9?$AAs?$AAa@ 1002594c     libucrt:lcidtoname_downlevel.obj
 0002:00005958       ??_C@_1M@DMJDKLKM@?$AAa?$AAr?$AA?9?$AAs?$AAy@ 10025958     libucrt:lcidtoname_downlevel.obj
 0002:00005964       ??_C@_1M@OMFIPEDC@?$AAa?$AAr?$AA?9?$AAt?$AAn@ 10025964     libucrt:lcidtoname_downlevel.obj
 0002:00005970       ??_C@_1M@IHMHGAON@?$AAa?$AAr?$AA?9?$AAy?$AAe@ 10025970     libucrt:lcidtoname_downlevel.obj
 0002:0000597c       ??_C@_1BG@KDCPGJGB@?$AAa?$AAz?$AA?9?$AAa?$AAz?$AA?9?$AAc?$AAy?$AAr?$AAl@ 1002597c     libucrt:lcidtoname_downlevel.obj
 0002:00005994       ??_C@_1BG@IBCKDDOE@?$AAa?$AAz?$AA?9?$AAa?$AAz?$AA?9?$AAl?$AAa?$AAt?$AAn@ 10025994     libucrt:lcidtoname_downlevel.obj
 0002:000059ac       ??_C@_1M@EGPFDCPD@?$AAb?$AAe?$AA?9?$AAb?$AAy@ 100259ac     libucrt:lcidtoname_downlevel.obj
 0002:000059b8       ??_C@_1M@PCMGMCGC@?$AAb?$AAg?$AA?9?$AAb?$AAg@ 100259b8     libucrt:lcidtoname_downlevel.obj
 0002:000059c4       ??_C@_1M@BJBMFGOB@?$AAb?$AAn?$AA?9?$AAi?$AAn@ 100259c4     libucrt:lcidtoname_downlevel.obj
 0002:000059d0       ??_C@_1BG@EAKMMACD@?$AAb?$AAs?$AA?9?$AAb?$AAa?$AA?9?$AAl?$AAa?$AAt?$AAn@ 100259d0     libucrt:lcidtoname_downlevel.obj
 0002:000059e8       ??_C@_1M@KGADAODK@?$AAc?$AAa?$AA?9?$AAe?$AAs@ 100259e8     libucrt:lcidtoname_downlevel.obj
 0002:000059f4       ??_C@_1M@COAJPDHI@?$AAc?$AAs?$AA?9?$AAc?$AAz@ 100259f4     libucrt:lcidtoname_downlevel.obj
 0002:00005a00       ??_C@_1M@DHBHFONH@?$AAc?$AAy?$AA?9?$AAg?$AAb@ 10025a00     libucrt:lcidtoname_downlevel.obj
 0002:00005a0c       ??_C@_1M@IMGKELGA@?$AAd?$AAa?$AA?9?$AAd?$AAk@ 10025a0c     libucrt:lcidtoname_downlevel.obj
 0002:00005a18       ??_C@_1M@NNDGDNGA@?$AAd?$AAe?$AA?9?$AAa?$AAt@ 10025a18     libucrt:lcidtoname_downlevel.obj
 0002:00005a24       ??_C@_1M@IKDBHEEM@?$AAd?$AAe?$AA?9?$AAc?$AAh@ 10025a24     libucrt:lcidtoname_downlevel.obj
 0002:00005a30       ??_C@_1M@GFFOJMCJ@?$AAd?$AAe?$AA?9?$AAd?$AAe@ 10025a30     libucrt:lcidtoname_downlevel.obj
 0002:00005a3c       ??_C@_1M@MDNLKBPM@?$AAd?$AAe?$AA?9?$AAl?$AAi@ 10025a3c     libucrt:lcidtoname_downlevel.obj
 0002:00005a48       ??_C@_1M@NJBEEJNL@?$AAd?$AAe?$AA?9?$AAl?$AAu@ 10025a48     libucrt:lcidtoname_downlevel.obj
 0002:00005a54       ??_C@_1O@GNNELBAP@?$AAd?$AAi?$AAv?$AA?9?$AAm?$AAv@ 10025a54     libucrt:lcidtoname_downlevel.obj
 0002:00005a64       ??_C@_1M@EJLEOGAE@?$AAe?$AAl?$AA?9?$AAg?$AAr@ 10025a64     libucrt:lcidtoname_downlevel.obj
 0002:00005a70       ??_C@_1M@GMPONJN@?$AAe?$AAn?$AA?9?$AAa?$AAu@ 10025a70     libucrt:lcidtoname_downlevel.obj
 0002:00005a7c       ??_C@_1M@NIDIIPGF@?$AAe?$AAn?$AA?9?$AAb?$AAz@ 10025a7c     libucrt:lcidtoname_downlevel.obj
 0002:00005a88       ??_C@_1M@JEHMIMFO@?$AAe?$AAn?$AA?9?$AAc?$AAa@ 10025a88     libucrt:lcidtoname_downlevel.obj
 0002:00005a94       ??_C@_1M@IGMJCDLA@?$AAe?$AAn?$AA?9?$AAc?$AAb@ 10025a94     libucrt:lcidtoname_downlevel.obj
 0002:00005aa0       ??_C@_1M@BNFIGBKG@?$AAe?$AAn?$AA?9?$AAg?$AAb@ 10025aa0     libucrt:lcidtoname_downlevel.obj
 0002:00005aac       ??_C@_1M@LKIFDIGP@?$AAe?$AAn?$AA?9?$AAi?$AAe@ 10025aac     libucrt:lcidtoname_downlevel.obj
 0002:00005ab8       ??_C@_1M@PJKFGCCO@?$AAe?$AAn?$AA?9?$AAj?$AAm@ 10025ab8     libucrt:lcidtoname_downlevel.obj
 0002:00005ac4       ??_C@_1M@KPPKEPBO@?$AAe?$AAn?$AA?9?$AAn?$AAz@ 10025ac4     libucrt:lcidtoname_downlevel.obj
 0002:00005ad0       ??_C@_1M@GMDGLDOB@?$AAe?$AAn?$AA?9?$AAp?$AAh@ 10025ad0     libucrt:lcidtoname_downlevel.obj
 0002:00005adc       ??_C@_1M@ONGIBJNA@?$AAe?$AAn?$AA?9?$AAt?$AAt@ 10025adc     libucrt:lcidtoname_downlevel.obj
 0002:00005ae8       ??_C@_1M@LLODPCMM@?$AAe?$AAn?$AA?9?$AAu?$AAs@ 10025ae8     libucrt:lcidtoname_downlevel.obj
 0002:00005af4       ??_C@_1M@LAKFNPAN@?$AAe?$AAn?$AA?9?$AAz?$AAa@ 10025af4     libucrt:lcidtoname_downlevel.obj
 0002:00005b00       ??_C@_1M@MFNHNHEO@?$AAe?$AAn?$AA?9?$AAz?$AAw@ 10025b00     libucrt:lcidtoname_downlevel.obj
 0002:00005b0c       ??_C@_1M@EJEINPHM@?$AAe?$AAs?$AA?9?$AAa?$AAr@ 10025b0c     libucrt:lcidtoname_downlevel.obj
 0002:00005b18       ??_C@_1M@GNKPCCJA@?$AAe?$AAs?$AA?9?$AAb?$AAo@ 10025b18     libucrt:lcidtoname_downlevel.obj
 0002:00005b24       ??_C@_1M@LEEGFONL@?$AAe?$AAs?$AA?9?$AAc?$AAl@ 10025b24     libucrt:lcidtoname_downlevel.obj
 0002:00005b30       ??_C@_1M@KGPDPBDF@?$AAe?$AAs?$AA?9?$AAc?$AAo@ 10025b30     libucrt:lcidtoname_downlevel.obj
 0002:00005b3c       ??_C@_1M@EIAHOHH@?$AAe?$AAs?$AA?9?$AAc?$AAr@ 10025b3c     libucrt:lcidtoname_downlevel.obj
 0002:00005b48       ??_C@_1M@LLPGMBIN@?$AAe?$AAs?$AA?9?$AAd?$AAo@ 10025b48     libucrt:lcidtoname_downlevel.obj
 0002:00005b54       ??_C@_1M@DKHMKNJA@?$AAe?$AAs?$AA?9?$AAe?$AAc@ 10025b54     libucrt:lcidtoname_downlevel.obj
 0002:00005b60       ??_C@_1M@GKGFPKAP@?$AAe?$AAs?$AA?9?$AAe?$AAs@ 10025b60     libucrt:lcidtoname_downlevel.obj
 0002:00005b6c       ??_C@_1M@LKHKGDLN@?$AAe?$AAs?$AA?9?$AAg?$AAt@ 10025b6c     libucrt:lcidtoname_downlevel.obj
 0002:00005b78       ??_C@_1M@HEIIGGJD@?$AAe?$AAs?$AA?9?$AAh?$AAn@ 10025b78     libucrt:lcidtoname_downlevel.obj
 0002:00005b84       ??_C@_1M@FBDHPPGD@?$AAe?$AAs?$AA?9?$AAm?$AAx@ 10025b84     libucrt:lcidtoname_downlevel.obj
 0002:00005b90       ??_C@_1M@DPAGLNDH@?$AAe?$AAs?$AA?9?$AAn?$AAi@ 10025b90     libucrt:lcidtoname_downlevel.obj
 0002:00005b9c       ??_C@_1M@MDGOPGDD@?$AAe?$AAs?$AA?9?$AAp?$AAa@ 10025b9c     libucrt:lcidtoname_downlevel.obj
 0002:00005ba8       ??_C@_1M@EMAMGBGE@?$AAe?$AAs?$AA?9?$AAp?$AAe@ 10025ba8     libucrt:lcidtoname_downlevel.obj
 0002:00005bb4       ??_C@_1M@IBMCAOEC@?$AAe?$AAs?$AA?9?$AAp?$AAr@ 10025bb4     libucrt:lcidtoname_downlevel.obj
 0002:00005bc0       ??_C@_1M@FGMDIJED@?$AAe?$AAs?$AA?9?$AAp?$AAy@ 10025bc0     libucrt:lcidtoname_downlevel.obj
 0002:00005bcc       ??_C@_1M@IIDEOLLL@?$AAe?$AAs?$AA?9?$AAs?$AAv@ 10025bcc     libucrt:lcidtoname_downlevel.obj
 0002:00005bd8       ??_C@_1M@GAOBIPA@?$AAe?$AAs?$AA?9?$AAu?$AAy@ 10025bd8     libucrt:lcidtoname_downlevel.obj
 0002:00005be4       ??_C@_1M@JKFFICHJ@?$AAe?$AAs?$AA?9?$AAv?$AAe@ 10025be4     libucrt:lcidtoname_downlevel.obj
 0002:00005bf0       ??_C@_1M@PNMLOJDF@?$AAe?$AAt?$AA?9?$AAe?$AAe@ 10025bf0     libucrt:lcidtoname_downlevel.obj
 0002:00005bfc       ??_C@_1M@GHHLIKEI@?$AAe?$AAu?$AA?9?$AAe?$AAs@ 10025bfc     libucrt:lcidtoname_downlevel.obj
 0002:00005c08       ??_C@_1M@PBNONODE@?$AAf?$AAa?$AA?9?$AAi?$AAr@ 10025c08     libucrt:lcidtoname_downlevel.obj
 0002:00005c14       ??_C@_1M@JEEHPMIL@?$AAf?$AAi?$AA?9?$AAf?$AAi@ 10025c14     libucrt:lcidtoname_downlevel.obj
 0002:00005c20       ??_C@_1M@LMDCNDBA@?$AAf?$AAo?$AA?9?$AAf?$AAo@ 10025c20     libucrt:lcidtoname_downlevel.obj
 0002:00005c2c       ??_C@_1M@JKEOHLDK@?$AAf?$AAr?$AA?9?$AAb?$AAe@ 10025c2c     libucrt:lcidtoname_downlevel.obj
 0002:00005c38       ??_C@_1M@NOHADPMI@?$AAf?$AAr?$AA?9?$AAc?$AAa@ 10025c38     libucrt:lcidtoname_downlevel.obj
 0002:00005c44       ??_C@_1M@KDHIHAEC@?$AAf?$AAr?$AA?9?$AAc?$AAh@ 10025c44     libucrt:lcidtoname_downlevel.obj
 0002:00005c50       ??_C@_1M@MMBBFGAK@?$AAf?$AAr?$AA?9?$AAf?$AAr@ 10025c50     libucrt:lcidtoname_downlevel.obj
 0002:00005c5c       ??_C@_1M@PAFNENNF@?$AAf?$AAr?$AA?9?$AAl?$AAu@ 10025c5c     libucrt:lcidtoname_downlevel.obj
 0002:00005c68       ??_C@_1M@EOHDJGDD@?$AAf?$AAr?$AA?9?$AAm?$AAc@ 10025c68     libucrt:lcidtoname_downlevel.obj
 0002:00005c74       ??_C@_1M@FAPLLOPF@?$AAg?$AAl?$AA?9?$AAe?$AAs@ 10025c74     libucrt:lcidtoname_downlevel.obj
 0002:00005c80       ??_C@_1M@FOPBFLOO@?$AAg?$AAu?$AA?9?$AAi?$AAn@ 10025c80     libucrt:lcidtoname_downlevel.obj
 0002:00005c8c       ??_C@_1M@KBMCINPM@?$AAh?$AAe?$AA?9?$AAi?$AAl@ 10025c8c     libucrt:lcidtoname_downlevel.obj
 0002:00005c98       ??_C@_1M@BBPHKFPJ@?$AAh?$AAi?$AA?9?$AAi?$AAn@ 10025c98     libucrt:lcidtoname_downlevel.obj
 0002:00005ca4       ??_C@_1M@PMBNDPHD@?$AAh?$AAr?$AA?9?$AAb?$AAa@ 10025ca4     libucrt:lcidtoname_downlevel.obj
 0002:00005cb0       ??_C@_1M@BPCKOEGE@?$AAh?$AAr?$AA?9?$AAh?$AAr@ 10025cb0     libucrt:lcidtoname_downlevel.obj
 0002:00005cbc       ??_C@_1M@GACBMHKE@?$AAh?$AAu?$AA?9?$AAh?$AAu@ 10025cbc     libucrt:lcidtoname_downlevel.obj
 0002:00005cc8       ??_C@_1M@MILPAJJC@?$AAh?$AAy?$AA?9?$AAa?$AAm@ 10025cc8     libucrt:lcidtoname_downlevel.obj
 0002:00005cd4       ??_C@_1M@BABBICEC@?$AAi?$AAd?$AA?9?$AAi?$AAd@ 10025cd4     libucrt:lcidtoname_downlevel.obj
 0002:00005ce0       ??_C@_1M@BIKNHHPF@?$AAi?$AAs?$AA?9?$AAi?$AAs@ 10025ce0     libucrt:lcidtoname_downlevel.obj
 0002:00005cec       ??_C@_1M@NMPCJPHE@?$AAi?$AAt?$AA?9?$AAc?$AAh@ 10025cec     libucrt:lcidtoname_downlevel.obj
 0002:00005cf8       ??_C@_1M@GHKGFEDF@?$AAi?$AAt?$AA?9?$AAi?$AAt@ 10025cf8     libucrt:lcidtoname_downlevel.obj
 0002:00005d04       ??_C@_1M@NIEJCJJA@?$AAj?$AAa?$AA?9?$AAj?$AAp@ 10025d04     libucrt:lcidtoname_downlevel.obj
 0002:00005d10       ??_C@_1M@JILFNBIM@?$AAk?$AAa?$AA?9?$AAg?$AAe@ 10025d10     libucrt:lcidtoname_downlevel.obj
 0002:00005d1c       ??_C@_1M@PACPMGPH@?$AAk?$AAk?$AA?9?$AAk?$AAz@ 10025d1c     libucrt:lcidtoname_downlevel.obj
 0002:00005d28       ??_C@_1M@IELFGMHA@?$AAk?$AAn?$AA?9?$AAi?$AAn@ 10025d28     libucrt:lcidtoname_downlevel.obj
 0002:00005d34       ??_C@_1O@IBBJHCH@?$AAk?$AAo?$AAk?$AA?9?$AAi?$AAn@ 10025d34     libucrt:lcidtoname_downlevel.obj
 0002:00005d44       ??_C@_1M@DMHAEOGC@?$AAk?$AAo?$AA?9?$AAk?$AAr@ 10025d44     libucrt:lcidtoname_downlevel.obj
 0002:00005d50       ??_C@_1M@HBAHBIGA@?$AAk?$AAy?$AA?9?$AAk?$AAg@ 10025d50     libucrt:lcidtoname_downlevel.obj
 0002:00005d5c       ??_C@_1M@KPMILCJG@?$AAl?$AAt?$AA?9?$AAl?$AAt@ 10025d5c     libucrt:lcidtoname_downlevel.obj
 0002:00005d68       ??_C@_1M@BDEKKCA@?$AAl?$AAv?$AA?9?$AAl?$AAv@ 10025d68     libucrt:lcidtoname_downlevel.obj
 0002:00005d74       ??_C@_1M@ELCKCCJJ@?$AAm?$AAi?$AA?9?$AAn?$AAz@ 10025d74     libucrt:lcidtoname_downlevel.obj
 0002:00005d80       ??_C@_1M@CBOOLAPA@?$AAm?$AAk?$AA?9?$AAm?$AAk@ 10025d80     libucrt:lcidtoname_downlevel.obj
 0002:00005d8c       ??_C@_1M@GPHNBJKN@?$AAm?$AAl?$AA?9?$AAi?$AAn@ 10025d8c     libucrt:lcidtoname_downlevel.obj
 0002:00005d98       ??_C@_1M@PABJILIG@?$AAm?$AAn?$AA?9?$AAm?$AAn@ 10025d98     libucrt:lcidtoname_downlevel.obj
 0002:00005da4       ??_C@_1M@FGBKKIPG@?$AAm?$AAr?$AA?9?$AAi?$AAn@ 10025da4     libucrt:lcidtoname_downlevel.obj
 0002:00005db0       ??_C@_1M@NDBPDDAL@?$AAm?$AAs?$AA?9?$AAb?$AAn@ 10025db0     libucrt:lcidtoname_downlevel.obj
 0002:00005dbc       ??_C@_1M@OPIHOOPI@?$AAm?$AAs?$AA?9?$AAm?$AAy@ 10025dbc     libucrt:lcidtoname_downlevel.obj
 0002:00005dc8       ??_C@_1M@PPDBCNFM@?$AAm?$AAt?$AA?9?$AAm?$AAt@ 10025dc8     libucrt:lcidtoname_downlevel.obj
 0002:00005dd4       ??_C@_1M@KDJDKMDD@?$AAn?$AAb?$AA?9?$AAn?$AAo@ 10025dd4     libucrt:lcidtoname_downlevel.obj
 0002:00005de0       ??_C@_1M@KFCFLMJP@?$AAn?$AAl?$AA?9?$AAb?$AAe@ 10025de0     libucrt:lcidtoname_downlevel.obj
 0002:00005dec       ??_C@_1M@KPOPDDGO@?$AAn?$AAl?$AA?9?$AAn?$AAl@ 10025dec     libucrt:lcidtoname_downlevel.obj
 0002:00005df8       ??_C@_1M@LJKPEMLN@?$AAn?$AAn?$AA?9?$AAn?$AAo@ 10025df8     libucrt:lcidtoname_downlevel.obj
 0002:00005e04       ??_C@_1M@BDGHHBFL@?$AAn?$AAs?$AA?9?$AAz?$AAa@ 10025e04     libucrt:lcidtoname_downlevel.obj
 0002:00005e10       ??_C@_1M@IDEHOAP@?$AAp?$AAa?$AA?9?$AAi?$AAn@ 10025e10     libucrt:lcidtoname_downlevel.obj
 0002:00005e1c       ??_C@_1M@HDBKGOGH@?$AAp?$AAl?$AA?9?$AAp?$AAl@ 10025e1c     libucrt:lcidtoname_downlevel.obj
 0002:00005e28       ??_C@_1M@LJLLCMEH@?$AAp?$AAt?$AA?9?$AAb?$AAr@ 10025e28     libucrt:lcidtoname_downlevel.obj
 0002:00005e34       ??_C@_1M@NCMONAAL@?$AAp?$AAt?$AA?9?$AAp?$AAt@ 10025e34     libucrt:lcidtoname_downlevel.obj
 0002:00005e40       ??_C@_1O@EAKMAJDN@?$AAq?$AAu?$AAz?$AA?9?$AAb?$AAo@ 10025e40     libucrt:lcidtoname_downlevel.obj
 0002:00005e50       ??_C@_1O@BHHPIGDN@?$AAq?$AAu?$AAz?$AA?9?$AAe?$AAc@ 10025e50     libucrt:lcidtoname_downlevel.obj
 0002:00005e60       ??_C@_1O@GBAPEKMJ@?$AAq?$AAu?$AAz?$AA?9?$AAp?$AAe@ 10025e60     libucrt:lcidtoname_downlevel.obj
 0002:00005e70       ??_C@_1M@CLGLEFBO@?$AAr?$AAo?$AA?9?$AAr?$AAo@ 10025e70     libucrt:lcidtoname_downlevel.obj
 0002:00005e7c       ??_C@_1M@CEEDODME@?$AAr?$AAu?$AA?9?$AAr?$AAu@ 10025e7c     libucrt:lcidtoname_downlevel.obj
 0002:00005e88       ??_C@_1M@HPKKKMPP@?$AAs?$AAa?$AA?9?$AAi?$AAn@ 10025e88     libucrt:lcidtoname_downlevel.obj
 0002:00005e94       ??_C@_1M@BKMAIGOJ@?$AAs?$AAe?$AA?9?$AAf?$AAi@ 10025e94     libucrt:lcidtoname_downlevel.obj
 0002:00005ea0       ??_C@_1M@NDPIFLFI@?$AAs?$AAe?$AA?9?$AAn?$AAo@ 10025ea0     libucrt:lcidtoname_downlevel.obj
 0002:00005eac       ??_C@_1M@DANKKHJ@?$AAs?$AAe?$AA?9?$AAs?$AAe@ 10025eac     libucrt:lcidtoname_downlevel.obj
 0002:00005eb8       ??_C@_1M@PNBLONPJ@?$AAs?$AAk?$AA?9?$AAs?$AAk@ 10025eb8     libucrt:lcidtoname_downlevel.obj
 0002:00005ec4       ??_C@_1M@LFMODOAL@?$AAs?$AAl?$AA?9?$AAs?$AAi@ 10025ec4     libucrt:lcidtoname_downlevel.obj
 0002:00005ed0       ??_C@_1O@DFKOMPG@?$AAs?$AAm?$AAa?$AA?9?$AAn?$AAo@ 10025ed0     libucrt:lcidtoname_downlevel.obj
 0002:00005ee0       ??_C@_1O@NDKPBNNH@?$AAs?$AAm?$AAa?$AA?9?$AAs?$AAe@ 10025ee0     libucrt:lcidtoname_downlevel.obj
 0002:00005ef0       ??_C@_1O@PLLKBHAB@?$AAs?$AAm?$AAj?$AA?9?$AAn?$AAo@ 10025ef0     libucrt:lcidtoname_downlevel.obj
 0002:00005f00       ??_C@_1O@CLEPOGCA@?$AAs?$AAm?$AAj?$AA?9?$AAs?$AAe@ 10025f00     libucrt:lcidtoname_downlevel.obj
 0002:00005f10       ??_C@_1O@DLGJGKMK@?$AAs?$AAm?$AAn?$AA?9?$AAf?$AAi@ 10025f10     libucrt:lcidtoname_downlevel.obj
 0002:00005f20       ??_C@_1O@OJDJGAJC@?$AAs?$AAm?$AAs?$AA?9?$AAf?$AAi@ 10025f20     libucrt:lcidtoname_downlevel.obj
 0002:00005f30       ??_C@_1M@BOFOGHPB@?$AAs?$AAq?$AA?9?$AAa?$AAl@ 10025f30     libucrt:lcidtoname_downlevel.obj
 0002:00005f3c       ??_C@_1BG@LJBBIPGB@?$AAs?$AAr?$AA?9?$AAb?$AAa?$AA?9?$AAc?$AAy?$AAr?$AAl@ 10025f3c     libucrt:lcidtoname_downlevel.obj
 0002:00005f54       ??_C@_1BG@JLBENFOE@?$AAs?$AAr?$AA?9?$AAb?$AAa?$AA?9?$AAl?$AAa?$AAt?$AAn@ 10025f54     libucrt:lcidtoname_downlevel.obj
 0002:00005f6c       ??_C@_1BG@KODPNHE@?$AAs?$AAr?$AA?9?$AAs?$AAp?$AA?9?$AAc?$AAy?$AAr?$AAl@ 10025f6c     libucrt:lcidtoname_downlevel.obj
 0002:00005f84       ??_C@_1BG@CIOGKHPB@?$AAs?$AAr?$AA?9?$AAs?$AAp?$AA?9?$AAl?$AAa?$AAt?$AAn@ 10025f84     libucrt:lcidtoname_downlevel.obj
 0002:00005f9c       ??_C@_1M@NGFJLMAC@?$AAs?$AAv?$AA?9?$AAf?$AAi@ 10025f9c     libucrt:lcidtoname_downlevel.obj
 0002:00005fa8       ??_C@_1M@MPJEJAJC@?$AAs?$AAv?$AA?9?$AAs?$AAe@ 10025fa8     libucrt:lcidtoname_downlevel.obj
 0002:00005fb4       ??_C@_1M@MPNDHLFK@?$AAs?$AAw?$AA?9?$AAk?$AAe@ 10025fb4     libucrt:lcidtoname_downlevel.obj
 0002:00005fc0       ??_C@_1O@KOHBJJI@?$AAs?$AAy?$AAr?$AA?9?$AAs?$AAy@ 10025fc0     libucrt:lcidtoname_downlevel.obj
 0002:00005fd0       ??_C@_1M@LDCEFHA@?$AAt?$AAa?$AA?9?$AAi?$AAn@ 10025fd0     libucrt:lcidtoname_downlevel.obj
 0002:00005fdc       ??_C@_1M@CNJOFAK@?$AAt?$AAe?$AA?9?$AAi?$AAn@ 10025fdc     libucrt:lcidtoname_downlevel.obj
 0002:00005fe8       ??_C@_1M@GNAECACD@?$AAt?$AAh?$AA?9?$AAt?$AAh@ 10025fe8     libucrt:lcidtoname_downlevel.obj
 0002:00005ff4       ??_C@_1M@CHBIHOJO@?$AAt?$AAn?$AA?9?$AAz?$AAa@ 10025ff4     libucrt:lcidtoname_downlevel.obj
 0002:00006000       ??_C@_1M@GCCMIGPJ@?$AAt?$AAr?$AA?9?$AAt?$AAr@ 10026000     libucrt:lcidtoname_downlevel.obj
 0002:0000600c       ??_C@_1M@CELMCNBK@?$AAt?$AAt?$AA?9?$AAr?$AAu@ 1002600c     libucrt:lcidtoname_downlevel.obj
 0002:00006018       ??_C@_1M@KLMCELGA@?$AAu?$AAk?$AA?9?$AAu?$AAa@ 10026018     libucrt:lcidtoname_downlevel.obj
 0002:00006024       ??_C@_1M@EPAJJAJF@?$AAu?$AAr?$AA?9?$AAp?$AAk@ 10026024     libucrt:lcidtoname_downlevel.obj
 0002:00006030       ??_C@_1BG@GEGPMCDJ@?$AAu?$AAz?$AA?9?$AAu?$AAz?$AA?9?$AAc?$AAy?$AAr?$AAl@ 10026030     libucrt:lcidtoname_downlevel.obj
 0002:00006048       ??_C@_1BG@EGGKJILM@?$AAu?$AAz?$AA?9?$AAu?$AAz?$AA?9?$AAl?$AAa?$AAt?$AAn@ 10026048     libucrt:lcidtoname_downlevel.obj
 0002:00006060       ??_C@_1M@GFOCLFF@?$AAv?$AAi?$AA?9?$AAv?$AAn@ 10026060     libucrt:lcidtoname_downlevel.obj
 0002:0000606c       ??_C@_1M@CPAMEDFI@?$AAx?$AAh?$AA?9?$AAz?$AAa@ 1002606c     libucrt:lcidtoname_downlevel.obj
 0002:00006078       ??_C@_1O@EBKIFIGN@?$AAz?$AAh?$AA?9?$AAc?$AAh?$AAs@ 10026078     libucrt:lcidtoname_downlevel.obj
 0002:00006088       ??_C@_1O@NMHPGANE@?$AAz?$AAh?$AA?9?$AAc?$AAh?$AAt@ 10026088     libucrt:lcidtoname_downlevel.obj
 0002:00006098       ??_C@_1M@LPINJOMC@?$AAz?$AAh?$AA?9?$AAc?$AAn@ 10026098     libucrt:lcidtoname_downlevel.obj
 0002:000060a4       ??_C@_1M@OCJEJODD@?$AAz?$AAh?$AA?9?$AAh?$AAk@ 100260a4     libucrt:lcidtoname_downlevel.obj
 0002:000060b0       ??_C@_1M@DNDLJINH@?$AAz?$AAh?$AA?9?$AAm?$AAo@ 100260b0     libucrt:lcidtoname_downlevel.obj
 0002:000060bc       ??_C@_1M@MBFDNDND@?$AAz?$AAh?$AA?9?$AAs?$AAg@ 100260bc     libucrt:lcidtoname_downlevel.obj
 0002:000060c8       ??_C@_1M@IMEPLEPE@?$AAz?$AAh?$AA?9?$AAt?$AAw@ 100260c8     libucrt:lcidtoname_downlevel.obj
 0002:000060d4       ??_C@_1M@BBGHNHJP@?$AAz?$AAu?$AA?9?$AAz?$AAa@ 100260d4     libucrt:lcidtoname_downlevel.obj
 0002:000060e0       ?large_power_data@?1??multiply_by_power_of_ten@__crt_strtox@@YA_NAAUbig_integer@2@I@Z@4QBIB 100260e0     libucrt:cfout.obj
 0002:000069e8       ?large_power_indices@?1??multiply_by_power_of_ten@__crt_strtox@@YA_NAAUbig_integer@2@I@Z@4QBUunpack_index@?1??12@YA_N0I@Z@B 100269e8     libucrt:cfout.obj
 0002:00006a80       ?small_powers_of_ten@?1??multiply_by_power_of_ten@__crt_strtox@@YA_NAAUbig_integer@2@I@Z@4QBIB 10026a80     libucrt:cfout.obj
 0002:00006aa4       ??_C@_01GBGANLPD@0@        10026aa4     libucrt:cfout.obj
 0002:00006aa8       ??_C@_05DNEBIAHO@1?$CDINF@ 10026aa8     libucrt:cfout.obj
 0002:00006ab0       ??_C@_06IMKFLFPG@1?$CDQNAN@ 10026ab0     libucrt:cfout.obj
 0002:00006ab8       ??_C@_06PGGFOGJG@1?$CDSNAN@ 10026ab8     libucrt:cfout.obj
 0002:00006ac0       ??_C@_05PHHOCPM@1?$CDIND@  10026ac0     libucrt:cfout.obj
 0002:00006c30       __infinity                 10026c30     libucrt:87tran.obj
 0002:00006c3a       __minfinity                10026c3a     libucrt:87tran.obj
 0002:00006c44       __logemax                  10026c44     libucrt:87tran.obj
 0002:00006c6a       __OP_EXPjmptab             10026c6a     libucrt:87tran.obj
 0002:00006c90       __indefinite               10026c90     libucrt:87disp.obj
 0002:00006c9a       __piby2                    10026c9a     libucrt:87disp.obj
 0002:00006ca4       __piby4                    10026ca4     libucrt:87disp.obj
 0002:00006cd8       __DEFAULT_CW_in_mem        10026cd8     libucrt:common.obj
 0002:00006cda       __pi_by_2_to_61            10026cda     libucrt:common.obj
 0002:00006d14       ??_C@_03MGHMBJCF@log@      10026d14     libucrt:libm_error.obj
 0002:00006d18       ??_C@_05HGHHAHAP@log10@    10026d18     libucrt:libm_error.obj
 0002:00006d20       ??_C@_03KHJOGHMM@exp@      10026d20     libucrt:libm_error.obj
 0002:00006d24       ??_C@_03JGHBODFD@pow@      10026d24     libucrt:libm_error.obj
 0002:00006d28       ??_C@_04FIHNOPOL@asin@     10026d28     libucrt:libm_error.obj
 0002:00006d30       ??_C@_04PDIFKINK@acos@     10026d30     libucrt:libm_error.obj
 0002:00006d38       ??_C@_04EIAKFFMI@sqrt@     10026d38     libucrt:libm_error.obj
 0002:00006d40       __real@3ff0000000000000    10026d40     libucrt:libm_error.obj
 0002:00006d48       ??_C@_1BA@BALFACEM@?$AAC?$AAO?$AAN?$AAO?$AAU?$AAT?$AA$@ 10026d48     libucrt:initcon.obj
 0002:00006d70       ___acrt_log10_table_t      10026d70     libucrt:log10_tables.obj
 0002:00007180       ___acrt_log10_table_cb     10027180     libucrt:log10_tables.obj
 0002:00007590       __real@3fe0000000000000    10027590     libucrt:powhlp.obj
 0002:00007680       ??_C@_04COOMCNPB@sinh@     10027680     libucrt:fpexcept.obj
 0002:00007688       ??_C@_04HPJJNFIM@cosh@     10027688     libucrt:fpexcept.obj
 0002:00007690       ??_C@_04FJHINJAO@tanh@     10027690     libucrt:fpexcept.obj
 0002:00007698       ??_C@_04MLLJIGOK@atan@     10027698     libucrt:fpexcept.obj
 0002:000076a0       ??_C@_05KNGEOGJB@atan2@    100276a0     libucrt:fpexcept.obj
 0002:000076a8       ??_C@_03BLEJJJBH@sin@      100276a8     libucrt:fpexcept.obj
 0002:000076ac       ??_C@_03LALBNOCG@cos@      100276ac     libucrt:fpexcept.obj
 0002:000076b0       ??_C@_03IIINPABG@tan@      100276b0     libucrt:fpexcept.obj
 0002:000076b4       ??_C@_04GFPJNGEK@ceil@     100276b4     libucrt:fpexcept.obj
 0002:000076bc       ??_C@_05PBJFFIGL@floor@    100276bc     libucrt:fpexcept.obj
 0002:000076c4       ??_C@_04ODHECPBC@fabs@     100276c4     libucrt:fpexcept.obj
 0002:000076cc       ??_C@_04EHEDPDJG@modf@     100276cc     libucrt:fpexcept.obj
 0002:000076d4       ??_C@_05CEJMAHNP@ldexp@    100276d4     libucrt:fpexcept.obj
 0002:000076dc       ??_C@_05KBKMEMPO@_cabs@    100276dc     libucrt:fpexcept.obj
 0002:000076e4       ??_C@_06MEIMCGCF@_hypot@   100276e4     libucrt:fpexcept.obj
 0002:000076ec       ??_C@_04KEPJIHGP@fmod@     100276ec     libucrt:fpexcept.obj
 0002:000076f4       ??_C@_05GKKHEGJL@frexp@    100276f4     libucrt:fpexcept.obj
 0002:000076fc       ??_C@_03MJLDFKDL@_y0@      100276fc     libucrt:fpexcept.obj
 0002:00007700       ??_C@_03NAKIGLHK@_y1@      10027700     libucrt:fpexcept.obj
 0002:00007704       ??_C@_03ONILCKOB@_yn@      10027704     libucrt:fpexcept.obj
 0002:00007708       ??_C@_05JGDBENOH@_logb@    10027708     libucrt:fpexcept.obj
 0002:00007710       ??_C@_0L@KDOEJCKC@_nextafter@ 10027710     libucrt:fpexcept.obj
 0002:00007720       __d_inf                    10027720     libucrt:util.obj
 0002:00007728       __d_max                    10027728     libucrt:util.obj
 0002:00007730       __d_mzero                  10027730     libucrt:util.obj
 0002:000077a0       __load_config_used         100277a0     LIBCMT:loadcfg.obj
 0002:00007880       __tls_used                 10027880     LIBCMT:tlssup.obj
 0002:00007898       ??_R4exception@std@@6B@    10027898     LIBCMT:throw_bad_alloc.obj
 0002:000078ac       ??_R3exception@std@@8      100278ac     LIBCMT:throw_bad_alloc.obj
 0002:000078bc       ??_R2exception@std@@8      100278bc     LIBCMT:throw_bad_alloc.obj
 0002:000078c4       ??_R1A@?0A@EA@exception@std@@8 100278c4     LIBCMT:throw_bad_alloc.obj
 0002:000078e0       ??_R4bad_alloc@std@@6B@    100278e0     LIBCMT:throw_bad_alloc.obj
 0002:000078f4       ??_R3bad_alloc@std@@8      100278f4     LIBCMT:throw_bad_alloc.obj
 0002:00007904       ??_R2bad_alloc@std@@8      10027904     LIBCMT:throw_bad_alloc.obj
 0002:00007910       ??_R1A@?0A@EA@bad_alloc@std@@8 10027910     LIBCMT:throw_bad_alloc.obj
 0002:0000792c       ??_R4bad_array_new_length@std@@6B@ 1002792c     LIBCMT:throw_bad_alloc.obj
 0002:00007940       ??_R3bad_array_new_length@std@@8 10027940     LIBCMT:throw_bad_alloc.obj
 0002:00007950       ??_R2bad_array_new_length@std@@8 10027950     LIBCMT:throw_bad_alloc.obj
 0002:00007960       ??_R1A@?0A@EA@bad_array_new_length@std@@8 10027960     LIBCMT:throw_bad_alloc.obj
 0002:0000797c       ??_R4type_info@@6B@        1002797c     LIBCMT:std_type_info_static.obj
 0002:00007990       ??_R3type_info@@8          10027990     LIBCMT:std_type_info_static.obj
 0002:000079a0       ??_R2type_info@@8          100279a0     LIBCMT:std_type_info_static.obj
 0002:000079a8       ??_R1A@?0A@EA@type_info@@8 100279a8     LIBCMT:std_type_info_static.obj
 0002:000079c4       ??_R4bad_exception@std@@6B@ 100279c4     libvcruntime:frame.obj
 0002:000079d8       ??_R3bad_exception@std@@8  100279d8     libvcruntime:frame.obj
 0002:000079e8       ??_R2bad_exception@std@@8  100279e8     libvcruntime:frame.obj
 0002:000079f4       ??_R1A@?0A@EA@bad_exception@std@@8 100279f4     libvcruntime:frame.obj
 0002:00007a10       ___safe_se_handler_table   10027a10     <linker-defined>
 0002:00007e14       ___rtc_iaa                 10027e14     LIBCMT:initsect.obj
 0002:00007e18       ___rtc_izz                 10027e18     LIBCMT:initsect.obj
 0002:00007e1c       ___rtc_taa                 10027e1c     LIBCMT:initsect.obj
 0002:00007e20       ___rtc_tzz                 10027e20     LIBCMT:initsect.obj
 0002:00007e24       __tls_start                10027e24     LIBCMT:tlssup.obj
 0002:00007e28       __Init_thread_epoch        10027e28     LIBCMT:thread_safe_statics.obj
 0002:00007e2c       __tls_end                  10027e2c     LIBCMT:tlssup.obj
 0002:00007f2c       __TI2?AVbad_alloc@std@@    10027f2c     LIBCMT:throw_bad_alloc.obj
 0002:00007f3c       __CTA2?AVbad_alloc@std@@   10027f3c     LIBCMT:throw_bad_alloc.obj
 0002:00007f48       __CT??_R0?AVbad_alloc@std@@@8??0bad_alloc@std@@QAE@ABV01@@Z12 10027f48     LIBCMT:throw_bad_alloc.obj
 0002:00007f64       __CT??_R0?AVexception@std@@@8??0exception@std@@QAE@ABV01@@Z12 10027f64     LIBCMT:throw_bad_alloc.obj
 0002:00007f80       __TI3?AVbad_array_new_length@std@@ 10027f80     LIBCMT:throw_bad_alloc.obj
 0002:00007f90       __CTA3?AVbad_array_new_length@std@@ 10027f90     LIBCMT:throw_bad_alloc.obj
 0002:00007fa0       __CT??_R0?AVbad_array_new_length@std@@@8??0bad_array_new_length@std@@QAE@ABV01@@Z12 10027fa0     LIBCMT:throw_bad_alloc.obj
 0002:000080c4       __TI2?AVbad_exception@std@@ 100280c4     libvcruntime:frame.obj
 0002:000080d4       __CTA2?AVbad_exception@std@@ 100280d4     libvcruntime:frame.obj
 0002:000080e0       __CT??_R0?AVbad_exception@std@@@8??0bad_exception@std@@QAE@ABV01@@Z12 100280e0     libvcruntime:frame.obj
 0002:0000845c       ___pobjMapEntryFirst       1002845c     OposVariant.obj
 0002:00008460       ___pobjMapEntryLast        10028460     OposVariant.obj
 0002:00008524       __IMPORT_DESCRIPTOR_KERNEL32 10028524     kernel32:KERNEL32.dll
 0002:00008538       __IMPORT_DESCRIPTOR_USER32 10028538     user32:USER32.dll
 0002:0000854c       __IMPORT_DESCRIPTOR_GDI32  1002854c     gdi32:GDI32.dll
 0002:00008560       __IMPORT_DESCRIPTOR_ADVAPI32 10028560     advapi32:ADVAPI32.dll
 0002:00008574       __IMPORT_DESCRIPTOR_ole32  10028574     ole32:ole32.dll
 0002:00008588       __IMPORT_DESCRIPTOR_OLEAUT32 10028588     oleaut32:OLEAUT32.dll
 0002:0000859c       __NULL_IMPORT_DESCRIPTOR   1002859c     kernel32:KERNEL32.dll
 0003:00000000       ?s_Claim@?7??GetIDsOfNames@CComTypeInfoHolder@ATL@@QAEJABU_GUID@@PAPA_WIKPAJ@Z@4PA_WA 1002a000     RemoteOrderDisplay.obj
 0003:00000018       ?s_Release@?7??GetIDsOfNames@CComTypeInfoHolder@ATL@@QAEJABU_GUID@@PAPA_WIKPAJ@Z@4PA_WA 1002a018     RemoteOrderDisplay.obj
 0003:00000034       ?_tih@?$IDispatchImpl@UIOPOSRemoteOrderDisplay@@$1?IID_IOPOSRemoteOrderDisplay@@3U_GUID@@B$1?LIBID_OposRemoteOrderDisplay_CCO@@3U3@B$00$0A@VCComTypeInfoHolder@ATL@@@ATL@@1VCComTypeInfoHolder@2@A 1002a034     RemoteOrderDisplay.obj
 0003:00000050       ?_tih@?$IProvideClassInfo2Impl@$1?CLSID_OPOSRemoteOrderDisplay@@3U_GUID@@B$1?DIID__IOPOSRemoteOrderDisplayEvents@@3U2@B$1?LIBID_OposRemoteOrderDisplay_CCO@@3U2@B$00$0A@VCComTypeInfoHolder@ATL@@@ATL@@1VCComTypeInfoHolder@2@A 1002a050     RemoteOrderDisplay.obj
 0003:0000006c       ?vszContents@?6??Save@?$IPersistStorageImpl@VCOPOSRemoteOrderDisplay@@@ATL@@UAGJPAUIStorage@@H@Z@4PB_WB 1002a06c     RemoteOrderDisplay.obj
 0003:00000070       ?wc@?1??GetWndClassInfo@?$CWindowImpl@VCOPOSRemoteOrderDisplay@@VCWindow@ATL@@V?$CWinTraits@$0FGAAAAAA@$0A@@3@@ATL@@SAAAU_ATL_WNDCLASSINFOW@3@XZ@4U43@A 1002a070     RemoteOrderDisplay.obj
 0003:000000fc       ?rcDefault@CWindow@ATL@@2UtagRECT@@A 1002a0fc     RemoteOrderDisplay.obj
 0003:00000158       ?g_WindowName@@3PA_WA      1002a158     RemoteOrderDisplayImpl.obj
 0003:0000018c       ?g_ControlVersion@@3JA     1002a18c     RemoteOrderDisplayImpl.obj
 0003:00000190       ?g_ControlDescription@@3PADA 1002a190     RemoteOrderDisplayImpl.obj
 0003:00000290       ___scrt_native_dllmain_reason 1002a290     LIBCMT:utility.obj
 0003:00000294       __Init_global_epoch        1002a294     LIBCMT:thread_safe_statics.obj
 0003:000002a0       ___security_cookie_complement 1002a2a0     LIBCMT:gs_cookie.obj
 0003:000002a4       ___security_cookie         1002a2a4     LIBCMT:gs_cookie.obj
 0003:000002a8       ___isa_enabled             1002a2a8     LIBCMT:cpu_disp.obj
 0003:000002c0       __NLG_Destination          1002a2c0     libvcruntime:exsup.obj
 0003:000002d8       ___abort_behavior          1002a2d8     libucrt:abort.obj
 0003:000002e8       __iob                      1002a2e8     libucrt:_file.obj
 0003:00000390       ___acrt_initial_locale_data 1002a390     libucrt:nlsdata.obj
 0003:00000448       ___acrt_initial_locale_pointers 1002a448     libucrt:nlsdata.obj
 0003:00000450       ___acrt_wide_c_locale_string 1002a450     libucrt:nlsdata.obj
 0003:00000458       ___acrt_initial_multibyte_data 1002a458     libucrt:mbctype.obj
 0003:00000978       __pwctype                  1002a978     libucrt:ctype.obj
 0003:0000097c       ___globallocalestatus      1002a97c     libucrt:glstatus.obj
 0003:00000980       ___acrt_lconv_c            1002a980     libucrt:localeconv.obj
 0003:000009d0       ___acrt_lconv_static_decimal 1002a9d0     libucrt:localeconv.obj
 0003:000009d4       ___acrt_lconv_static_W_decimal 1002a9d4     libucrt:localeconv.obj
 0003:000009e0       __lookuptrailbytes         1002a9e0     libucrt:read.obj
 0003:00000af0       __fltused                  1002aaf0     LIBCMT:fltused.obj
 0003:00000b00       ??_R0?AVbad_alloc@std@@@8  1002ab00     LIBCMT:throw_bad_alloc.obj
 0003:00000b1c       ??_R0?AVexception@std@@@8  1002ab1c     LIBCMT:throw_bad_alloc.obj
 0003:00000b38       ??_R0?AVbad_array_new_length@std@@@8 1002ab38     LIBCMT:throw_bad_alloc.obj
 0003:00000b60       ??_R0?AVtype_info@@@8      1002ab60     LIBCMT:std_type_info_static.obj
 0003:00000b78       ??_R0?AVbad_exception@std@@@8 1002ab78     libvcruntime:frame.obj
 0003:00000b98       ?m_bInitFailed@CAtlBaseModule@ATL@@2_NA 1002ab98     OposVariant.obj
 0003:00000b9c       ?_pPerfRegFunc@ATL@@3P6AJPAUHINSTANCE__@@@ZA 1002ab9c     OposVariant.obj
 0003:00000ba0       ?_pPerfUnRegFunc@ATL@@3P6AJXZA 1002aba0     OposVariant.obj
 0003:00000ba4       ?_AtlRegisterPerUser@ATL@@3_NA 1002aba4     OposVariant.obj
 0003:00000ba8       ?_pAtlModule@ATL@@3PAVCAtlModule@1@A 1002aba8     OposVariant.obj
 0003:00000bac       ?_pModule@ATL@@3PAVCComModule@1@A 1002abac     OposVariant.obj
 0003:00000bb0       ?_AtlComModule@ATL@@3VCAtlComModule@1@A 1002abb0     OposVariant.obj
 0003:00000bd8       ?_AtlWinModule@ATL@@3VCAtlWinModule@1@A 1002abd8     OposVariant.obj
 0003:00000c04       ?m_libid@CAtlModule@ATL@@2U_GUID@@A 1002ac04     RemoteOrderDisplay.obj
 0003:00000c14       ?_entries@?1??GetConnMap@COPOSRemoteOrderDisplay@@SAPBU_ATL_CONNMAP_ENTRY@ATL@@PAH@Z@4QBU34@B 1002ac14     RemoteOrderDisplay.obj
 0003:00000c20       ?$TSS0@?1??GetConnMap@COPOSRemoteOrderDisplay@@SAPBU_ATL_CONNMAP_ENTRY@ATL@@PAH@Z@4HA 1002ac20     RemoteOrderDisplay.obj
 0003:00000c28       ?_OptionsStorage@?1??__local_stdio_printf_options@@9@4_KA 1002ac28     RemoteOrderDisplay.obj
 0003:00000c30       ?pfnRegDeleteKeyEx@?1??DeleteSubKey@CRegKey@ATL@@QAEJPB_W@Z@4P6GJPAUHKEY__@@0KK@ZA 1002ac30     RemoteOrderDisplay.obj
 0003:00000c34       ?bInitialized@?1??DeleteSubKey@CRegKey@ATL@@QAEJPB_W@Z@4_NA 1002ac34     RemoteOrderDisplay.obj
 0003:00000c38       ?_Module@@3VCComModule@ATL@@A 1002ac38     RemoteOrderDisplay.obj
 0003:00000c68       ?pConnMap@?$IConnectionPointContainerImpl@VCOPOSRemoteOrderDisplay@@@ATL@@0PBU_ATL_CONNMAP_ENTRY@2@B 1002ac68     RemoteOrderDisplay.obj
 0003:00000c6c       ?s_nInstances@COPOSRemoteOrderDisplay@@1HA 1002ac6c     RemoteOrderDisplayImpl.obj
 0003:00000c70       ___scrt_current_native_startup_state 1002ac70     LIBCMT:utility.obj
 0003:00000c74       ___scrt_native_startup_lock 1002ac74     LIBCMT:utility.obj
 0003:00000fdc       __tls_index                1002afdc     LIBCMT:tlssup.obj
 0003:00000fe4       ___isa_available           1002afe4     LIBCMT:cpu_disp.obj
 0003:00000fe8       ___favor                   1002afe8     LIBCMT:cpu_disp.obj
 0003:00000fec       ___scrt_debugger_hook_flag 1002afec     LIBCMT:utility_desktop.obj
 0003:00000ff0       ___castguard_check_failure_os_handled_fptr 1002aff0     LIBCMT:guard_support.obj
 0003:00000ff8       ?__type_info_root_node@@3U__type_info_node@@A 1002aff8     LIBCMT:tncleanup.obj
 0003:00001000       ?_OptionsStorage@?1??__local_stdio_scanf_options@@9@4_KA 1002b000     LIBCMT:default_local_stdio_options.obj
 0003:00001008       ?_AtlBaseModule@ATL@@3VCAtlBaseModule@1@A 1002b008     atls:atlbase.obj
 0003:00001040       ?__AtlThunkPool@@3PAT_SLIST_HEADER@@A 1002b040     atls:atlthunk.obj
 0003:00001058       ___@@_PchSym_@00@UztvmgUPdlipUFHUhUrmgvinvwrzgvUexgllohUzgohOmzgrevkilqPBACIAJCBDBUlyqiUcIGUhgwzucOlyq@4B2008FD98C1DD4 1002b058     atls:stdafx.obj
 0003:0000105c       ?__WinRTOutOfMemoryExceptionCallback@@3P6GPAXXZA 1002b05c     libvcruntime:ehhelpers.obj
 0003:00001060       ___pPurecall               1002b060     libvcruntime:purevirt_data.obj
 0003:000010a8       ?pArgList@UnDecorator@@0PAVReplicator@@A 1002b0a8     libvcruntime:undname.obj
 0003:000010ac       ?pZNameList@UnDecorator@@0PAVReplicator@@A 1002b0ac     libvcruntime:undname.obj
 0003:000010b0       ?pTemplateArgList@UnDecorator@@0PAVReplicator@@A 1002b0b0     libvcruntime:undname.obj
 0003:000010b4       ?gName@UnDecorator@@0PBDB  1002b0b4     libvcruntime:undname.obj
 0003:000010b8       ?name@UnDecorator@@0PBDB   1002b0b8     libvcruntime:undname.obj
 0003:000010bc       ?disableFlags@UnDecorator@@0KA 1002b0bc     libvcruntime:undname.obj
 0003:000010c0       ?fExplicitTemplateParams@UnDecorator@@0_NA 1002b0c0     libvcruntime:undname.obj
 0003:000010c1       ?fGetTemplateArgumentList@UnDecorator@@0_NA 1002b0c1     libvcruntime:undname.obj
 0003:000010c4       ?m_pGetParameter@UnDecorator@@0P6APADJ@ZA 1002b0c4     libvcruntime:undname.obj
 0003:000010c8       ?m_CHPENameOffset@UnDecorator@@0KA 1002b0c8     libvcruntime:undname.obj
 0003:000010cc       ?m_recursionLevel@UnDecorator@@0KA 1002b0cc     libvcruntime:undname.obj
 0003:00001110       ?c_exit_complete@?1???R<lambda_6e4b09c48022b2350581041d5f6b0c4c>@@QBE@XZ@4_NA 1002b110     libucrt:exit.obj
 0003:00001220       __environ_table            1002b220     libucrt:environment_initialization.obj
 0003:00001224       __wenviron_table           1002b224     libucrt:environment_initialization.obj
 0003:00001228       ___dcrt_initial_wide_environment 1002b228     libucrt:environment_initialization.obj
 0003:0000122c       ___dcrt_initial_narrow_environment 1002b22c     libucrt:environment_initialization.obj
 0003:00001230       ___acrt_atexit_table       1002b230     libucrt:onexit.obj
 0003:0000123c       ___acrt_at_quick_exit_table 1002b23c     libucrt:onexit.obj
 0003:00001330       __nstream                  1002b330     libucrt:_file.obj
 0003:00001334       ___piob                    1002b334     libucrt:_file.obj
 0003:0000133c       ___acrt_stdout_buffer      1002b33c     libucrt:_sftbuf.obj
 0003:00001340       ___acrt_stderr_buffer      1002b340     libucrt:_sftbuf.obj
 0003:00001344       ___acrt_locale_changed_data 1002b344     libucrt:wsetlocale.obj
 0003:00001348       ___acrt_current_locale_data 1002b348     libucrt:nlsdata.obj
 0003:00001350       ___pioinfo                 1002b350     libucrt:ioinit.obj
 0003:00001550       __nhandle                  1002b550     libucrt:ioinit.obj
 0003:000016ac       __mbctype                  1002b6ac     libucrt:mbctype.obj
 0003:000016b0       __mbcasemap                1002b6b0     libucrt:mbctype.obj
 0003:000016b4       ___acrt_current_multibyte_data 1002b6b4     libucrt:mbctype.obj
 0003:000016c0       __pgmptr                   1002b6c0     libucrt:argv_data.obj
 0003:000016c4       ___argc                    1002b6c4     libucrt:argv_data.obj
 0003:000016c8       ___argv                    1002b6c8     libucrt:argv_data.obj
 0003:000016cc       ___wargv                   1002b6cc     libucrt:argv_data.obj
 0003:000016d0       __acmdln                   1002b6d0     libucrt:argv_data.obj
 0003:000016d4       __wcmdln                   1002b6d4     libucrt:argv_data.obj
 0003:000016d8       ___acrt_heap               1002b6d8     libucrt:heap_handle.obj
 0003:000016f4       ___acrt_lconv_static_null  1002b6f4     libucrt:localeconv.obj
 0003:000016f8       ___acrt_lconv_static_W_null 1002b6f8     libucrt:localeconv.obj
 0003:00001708       ___fastflag                1002b708     libucrt:fp_flags.obj
 0003:00001710       ___dyn_tls_init_callback   1002b710     <common>
 0003:00001714       ___scrt_ucrt_dll_is_in_use 1002b714     <common>
 0003:00001718       __pmatherr                 1002b718     <common>
 0003:0000171c       ___use_sse2_mathfcns       1002b71c     <common>

 entry point at        0001:0000ca2d

 Static symbols

 0000:fffcc000       .debug$S                   10000000     OPOSRemoteOrderDisplay.exp
 0000:fffcc000       .debug$S                   10000000     advapi32:ADVAPI32.dll
 0000:fffcc000       .debug$S                   10000000     advapi32:ADVAPI32.dll
 0000:fffcc000       .debug$S                   10000000     advapi32:ADVAPI32.dll
 0000:fffcc000       .debug$S                   10000000     advapi32:ADVAPI32.dll
 0000:fffcc000       .debug$S                   10000000     advapi32:ADVAPI32.dll
 0000:fffcc000       .debug$S                   10000000     advapi32:ADVAPI32.dll
 0000:fffcc000       .debug$S                   10000000     advapi32:ADVAPI32.dll
 0000:fffcc000       .debug$S                   10000000     advapi32:ADVAPI32.dll
 0000:fffcc000       .debug$S                   10000000     advapi32:ADVAPI32.dll
 0000:fffcc000       .debug$S                   10000000     gdi32:GDI32.dll
 0000:fffcc000       .debug$S                   10000000     gdi32:GDI32.dll
 0000:fffcc000       .debug$S                   10000000     gdi32:GDI32.dll
 0000:fffcc000       .debug$S                   10000000     gdi32:GDI32.dll
 0000:fffcc000       .debug$S                   10000000     gdi32:GDI32.dll
 0000:fffcc000       .debug$S                   10000000     gdi32:GDI32.dll
 0000:fffcc000       .debug$S                   10000000     gdi32:GDI32.dll
 0000:fffcc000       .debug$S                   10000000     gdi32:GDI32.dll
 0000:fffcc000       .debug$S                   10000000     gdi32:GDI32.dll
 0000:fffcc000       .debug$S                   10000000     gdi32:GDI32.dll
 0000:fffcc000       .debug$S                   10000000     gdi32:GDI32.dll
 0000:fffcc000       .debug$S                   10000000     gdi32:GDI32.dll
 0000:fffcc000       .debug$S                   10000000     gdi32:GDI32.dll
 0000:fffcc000       .debug$S                   10000000     gdi32:GDI32.dll
 0000:fffcc000       .debug$S                   10000000     gdi32:GDI32.dll
 0000:fffcc000       .debug$S                   10000000     gdi32:GDI32.dll
 0000:fffcc000       .debug$S                   10000000     gdi32:GDI32.dll
 0000:fffcc000       .debug$S                   10000000     gdi32:GDI32.dll
 0000:fffcc000       .debug$S                   10000000     gdi32:GDI32.dll
 0000:fffcc000       .debug$S                   10000000     kernel32:KERNEL32.dll
 0000:fffcc000       .debug$S                   10000000     kernel32:KERNEL32.dll
 0000:fffcc000       .debug$S                   10000000     kernel32:KERNEL32.dll
 0000:fffcc000       .debug$S                   10000000     kernel32:KERNEL32.dll
 0000:fffcc000       .debug$S                   10000000     kernel32:KERNEL32.dll
 0000:fffcc000       .debug$S                   10000000     kernel32:KERNEL32.dll
 0000:fffcc000       .debug$S                   10000000     kernel32:KERNEL32.dll
 0000:fffcc000       .debug$S                   10000000     kernel32:KERNEL32.dll
 0000:fffcc000       .debug$S                   10000000     kernel32:KERNEL32.dll
 0000:fffcc000       .debug$S                   10000000     kernel32:KERNEL32.dll
 0000:fffcc000       .debug$S                   10000000     kernel32:KERNEL32.dll
 0000:fffcc000       .debug$S                   10000000     kernel32:KERNEL32.dll
 0000:fffcc000       .debug$S                   10000000     kernel32:KERNEL32.dll
 0000:fffcc000       .debug$S                   10000000     kernel32:KERNEL32.dll
 0000:fffcc000       .debug$S                   10000000     kernel32:KERNEL32.dll
 0000:fffcc000       .debug$S                   10000000     kernel32:KERNEL32.dll
 0000:fffcc000       .debug$S                   10000000     kernel32:KERNEL32.dll
 0000:fffcc000       .debug$S                   10000000     kernel32:KERNEL32.dll
 0000:fffcc000       .debug$S                   10000000     kernel32:KERNEL32.dll
 0000:fffcc000       .debug$S                   10000000     kernel32:KERNEL32.dll
 0000:fffcc000       .debug$S                   10000000     kernel32:KERNEL32.dll
 0000:fffcc000       .debug$S                   10000000     kernel32:KERNEL32.dll
 0000:fffcc000       .debug$S                   10000000     kernel32:KERNEL32.dll
 0000:fffcc000       .debug$S                   10000000     kernel32:KERNEL32.dll
 0000:fffcc000       .debug$S                   10000000     kernel32:KERNEL32.dll
 0000:fffcc000       .debug$S                   10000000     kernel32:KERNEL32.dll
 0000:fffcc000       .debug$S                   10000000     kernel32:KERNEL32.dll
 0000:fffcc000       .debug$S                   10000000     kernel32:KERNEL32.dll
 0000:fffcc000       .debug$S                   10000000     kernel32:KERNEL32.dll
 0000:fffcc000       .debug$S                   10000000     kernel32:KERNEL32.dll
 0000:fffcc000       .debug$S                   10000000     kernel32:KERNEL32.dll
 0000:fffcc000       .debug$S                   10000000     kernel32:KERNEL32.dll
 0000:fffcc000       .debug$S                   10000000     kernel32:KERNEL32.dll
 0000:fffcc000       .debug$S                   10000000     kernel32:KERNEL32.dll
 0000:fffcc000       .debug$S                   10000000     kernel32:KERNEL32.dll
 0000:fffcc000       .debug$S                   10000000     kernel32:KERNEL32.dll
 0000:fffcc000       .debug$S                   10000000     kernel32:KERNEL32.dll
 0000:fffcc000       .debug$S                   10000000     kernel32:KERNEL32.dll
 0000:fffcc000       .debug$S                   10000000     kernel32:KERNEL32.dll
 0000:fffcc000       .debug$S                   10000000     kernel32:KERNEL32.dll
 0000:fffcc000       .debug$S                   10000000     kernel32:KERNEL32.dll
 0000:fffcc000       .debug$S                   10000000     kernel32:KERNEL32.dll
 0000:fffcc000       .debug$S                   10000000     kernel32:KERNEL32.dll
 0000:fffcc000       .debug$S                   10000000     kernel32:KERNEL32.dll
 0000:fffcc000       .debug$S                   10000000     kernel32:KERNEL32.dll
 0000:fffcc000       .debug$S                   10000000     kernel32:KERNEL32.dll
 0000:fffcc000       .debug$S                   10000000     kernel32:KERNEL32.dll
 0000:fffcc000       .debug$S                   10000000     kernel32:KERNEL32.dll
 0000:fffcc000       .debug$S                   10000000     kernel32:KERNEL32.dll
 0000:fffcc000       .debug$S                   10000000     kernel32:KERNEL32.dll
 0000:fffcc000       .debug$S                   10000000     kernel32:KERNEL32.dll
 0000:fffcc000       .debug$S                   10000000     kernel32:KERNEL32.dll
 0000:fffcc000       .debug$S                   10000000     kernel32:KERNEL32.dll
 0000:fffcc000       .debug$S                   10000000     kernel32:KERNEL32.dll
 0000:fffcc000       .debug$S                   10000000     kernel32:KERNEL32.dll
 0000:fffcc000       .debug$S                   10000000     kernel32:KERNEL32.dll
 0000:fffcc000       .debug$S                   10000000     kernel32:KERNEL32.dll
 0000:fffcc000       .debug$S                   10000000     kernel32:KERNEL32.dll
 0000:fffcc000       .debug$S                   10000000     kernel32:KERNEL32.dll
 0000:fffcc000       .debug$S                   10000000     kernel32:KERNEL32.dll
 0000:fffcc000       .debug$S                   10000000     kernel32:KERNEL32.dll
 0000:fffcc000       .debug$S                   10000000     kernel32:KERNEL32.dll
 0000:fffcc000       .debug$S                   10000000     kernel32:KERNEL32.dll
 0000:fffcc000       .debug$S                   10000000     kernel32:KERNEL32.dll
 0000:fffcc000       .debug$S                   10000000     kernel32:KERNEL32.dll
 0000:fffcc000       .debug$S                   10000000     kernel32:KERNEL32.dll
 0000:fffcc000       .debug$S                   10000000     kernel32:KERNEL32.dll
 0000:fffcc000       .debug$S                   10000000     kernel32:KERNEL32.dll
 0000:fffcc000       .debug$S                   10000000     kernel32:KERNEL32.dll
 0000:fffcc000       .debug$S                   10000000     kernel32:KERNEL32.dll
 0000:fffcc000       .debug$S                   10000000     kernel32:KERNEL32.dll
 0000:fffcc000       .debug$S                   10000000     kernel32:KERNEL32.dll
 0000:fffcc000       .debug$S                   10000000     kernel32:KERNEL32.dll
 0000:fffcc000       .debug$S                   10000000     kernel32:KERNEL32.dll
 0000:fffcc000       .debug$S                   10000000     kernel32:KERNEL32.dll
 0000:fffcc000       .debug$S                   10000000     kernel32:KERNEL32.dll
 0000:fffcc000       .debug$S                   10000000     kernel32:KERNEL32.dll
 0000:fffcc000       .debug$S                   10000000     kernel32:KERNEL32.dll
 0000:fffcc000       .debug$S                   10000000     kernel32:KERNEL32.dll
 0000:fffcc000       .debug$S                   10000000     kernel32:KERNEL32.dll
 0000:fffcc000       .debug$S                   10000000     kernel32:KERNEL32.dll
 0000:fffcc000       .debug$S                   10000000     kernel32:KERNEL32.dll
 0000:fffcc000       .debug$S                   10000000     kernel32:KERNEL32.dll
 0000:fffcc000       .debug$S                   10000000     kernel32:KERNEL32.dll
 0000:fffcc000       .debug$S                   10000000     kernel32:KERNEL32.dll
 0000:fffcc000       .debug$S                   10000000     kernel32:KERNEL32.dll
 0000:fffcc000       .debug$S                   10000000     kernel32:KERNEL32.dll
 0000:fffcc000       .debug$S                   10000000     kernel32:KERNEL32.dll
 0000:fffcc000       .debug$S                   10000000     kernel32:KERNEL32.dll
 0000:fffcc000       .debug$S                   10000000     kernel32:KERNEL32.dll
 0000:fffcc000       .debug$S                   10000000     kernel32:KERNEL32.dll
 0000:fffcc000       .debug$S                   10000000     kernel32:KERNEL32.dll
 0000:fffcc000       .debug$S                   10000000     kernel32:KERNEL32.dll
 0000:fffcc000       .debug$S                   10000000     kernel32:KERNEL32.dll
 0000:fffcc000       .debug$S                   10000000     kernel32:KERNEL32.dll
 0000:fffcc000       .debug$S                   10000000     kernel32:KERNEL32.dll
 0000:fffcc000       .debug$S                   10000000     kernel32:KERNEL32.dll
 0000:fffcc000       .debug$S                   10000000     kernel32:KERNEL32.dll
 0000:fffcc000       .debug$S                   10000000     kernel32:KERNEL32.dll
 0000:fffcc000       .debug$S                   10000000     kernel32:KERNEL32.dll
 0000:fffcc000       .debug$S                   10000000     kernel32:KERNEL32.dll
 0000:fffcc000       .debug$S                   10000000     kernel32:KERNEL32.dll
 0000:fffcc000       .debug$S                   10000000     kernel32:KERNEL32.dll
 0000:fffcc000       .debug$S                   10000000     kernel32:KERNEL32.dll
 0000:fffcc000       .debug$S                   10000000     kernel32:KERNEL32.dll
 0000:fffcc000       .debug$S                   10000000     kernel32:KERNEL32.dll
 0000:fffcc000       .debug$S                   10000000     ole32:ole32.dll
 0000:fffcc000       .debug$S                   10000000     ole32:ole32.dll
 0000:fffcc000       .debug$S                   10000000     ole32:ole32.dll
 0000:fffcc000       .debug$S                   10000000     ole32:ole32.dll
 0000:fffcc000       .debug$S                   10000000     ole32:ole32.dll
 0000:fffcc000       .debug$S                   10000000     ole32:ole32.dll
 0000:fffcc000       .debug$S                   10000000     ole32:ole32.dll
 0000:fffcc000       .debug$S                   10000000     ole32:ole32.dll
 0000:fffcc000       .debug$S                   10000000     ole32:ole32.dll
 0000:fffcc000       .debug$S                   10000000     ole32:ole32.dll
 0000:fffcc000       .debug$S                   10000000     ole32:ole32.dll
 0000:fffcc000       .debug$S                   10000000     ole32:ole32.dll
 0000:fffcc000       .debug$S                   10000000     ole32:ole32.dll
 0000:fffcc000       .debug$S                   10000000     ole32:ole32.dll
 0000:fffcc000       .debug$S                   10000000     oleaut32:OLEAUT32.dll
 0000:fffcc000       .debug$S                   10000000     oleaut32:OLEAUT32.dll
 0000:fffcc000       .debug$S                   10000000     oleaut32:OLEAUT32.dll
 0000:fffcc000       .debug$S                   10000000     oleaut32:OLEAUT32.dll
 0000:fffcc000       .debug$S                   10000000     oleaut32:OLEAUT32.dll
 0000:fffcc000       .debug$S                   10000000     oleaut32:OLEAUT32.dll
 0000:fffcc000       .debug$S                   10000000     oleaut32:OLEAUT32.dll
 0000:fffcc000       .debug$S                   10000000     oleaut32:OLEAUT32.dll
 0000:fffcc000       .debug$S                   10000000     oleaut32:OLEAUT32.dll
 0000:fffcc000       .debug$S                   10000000     oleaut32:OLEAUT32.dll
 0000:fffcc000       .debug$S                   10000000     oleaut32:OLEAUT32.dll
 0000:fffcc000       .debug$S                   10000000     oleaut32:OLEAUT32.dll
 0000:fffcc000       .debug$S                   10000000     oleaut32:OLEAUT32.dll
 0000:fffcc000       .debug$S                   10000000     oleaut32:OLEAUT32.dll
 0000:fffcc000       .debug$S                   10000000     oleaut32:OLEAUT32.dll
 0000:fffcc000       .debug$S                   10000000     oleaut32:OLEAUT32.dll
 0000:fffcc000       .debug$S                   10000000     user32:USER32.dll
 0000:fffcc000       .debug$S                   10000000     user32:USER32.dll
 0000:fffcc000       .debug$S                   10000000     user32:USER32.dll
 0000:fffcc000       .debug$S                   10000000     user32:USER32.dll
 0000:fffcc000       .debug$S                   10000000     user32:USER32.dll
 0000:fffcc000       .debug$S                   10000000     user32:USER32.dll
 0000:fffcc000       .debug$S                   10000000     user32:USER32.dll
 0000:fffcc000       .debug$S                   10000000     user32:USER32.dll
 0000:fffcc000       .debug$S                   10000000     user32:USER32.dll
 0000:fffcc000       .debug$S                   10000000     user32:USER32.dll
 0000:fffcc000       .debug$S                   10000000     user32:USER32.dll
 0000:fffcc000       .debug$S                   10000000     user32:USER32.dll
 0000:fffcc000       .debug$S                   10000000     user32:USER32.dll
 0000:fffcc000       .debug$S                   10000000     user32:USER32.dll
 0000:fffcc000       .debug$S                   10000000     user32:USER32.dll
 0000:fffcc000       .debug$S                   10000000     user32:USER32.dll
 0000:fffcc000       .debug$S                   10000000     user32:USER32.dll
 0000:fffcc000       .debug$S                   10000000     user32:USER32.dll
 0000:fffcc000       .debug$S                   10000000     user32:USER32.dll
 0000:fffcc000       .debug$S                   10000000     user32:USER32.dll
 0000:fffcc000       .debug$S                   10000000     user32:USER32.dll
 0000:fffcc000       .debug$S                   10000000     user32:USER32.dll
 0000:fffcc000       .debug$S                   10000000     user32:USER32.dll
 0000:fffcc000       .debug$S                   10000000     user32:USER32.dll
 0000:fffcc000       .debug$S                   10000000     user32:USER32.dll
 0000:fffcc000       .debug$S                   10000000     user32:USER32.dll
 0000:fffcc000       .debug$S                   10000000     user32:USER32.dll
 0000:fffcc000       .debug$S                   10000000     user32:USER32.dll
 0000:fffcc000       .debug$S                   10000000     user32:USER32.dll
 0000:fffcc000       .debug$S                   10000000     user32:USER32.dll
 0000:fffcc000       .debug$S                   10000000     user32:USER32.dll
 0000:fffcc000       .debug$S                   10000000     user32:USER32.dll
 0000:fffcc000       .debug$S                   10000000     user32:USER32.dll
 0000:fffcc000       .debug$S                   10000000     user32:USER32.dll
 0000:fffcc000       .debug$S                   10000000     user32:USER32.dll
 0001:00000000       ??__E_AtlComModule@ATL@@YAXXZ 10001000 f   OposVariant.obj
 0001:00000016       ??__E_AtlWinModule@ATL@@YAXXZ 10001016 f   OposVariant.obj
 0001:0000002c       ??__E?pConnMap@?$IConnectionPointContainerImpl@VCOPOSRemoteOrderDisplay@@@ATL@@0PBU_ATL_CONNMAP_ENTRY@2@B@@YAXXZ 1000102c f   RemoteOrderDisplay.obj
 0001:0000003a       ??__E_Module@@YAXXZ        1000103a f   RemoteOrderDisplay.obj
 0001:00000064       ??__E_AtlBaseModule@ATL@@YAXXZ 10001064 f   atls:atlbase.obj
 0001:0000102e       $LN24                      1000202e     RemoteOrderDisplay.obj
 0001:00005981       $LN48                      10006981     RemoteOrderDisplay.obj
 0001:00005999       $LN47                      10006999     RemoteOrderDisplay.obj
 0001:00007b44       $LN38                      10008b44     RemoteOrderDisplay.obj
 0001:00007b5c       $LN37                      10008b5c     RemoteOrderDisplay.obj
 0001:0000924c       $LN76                      1000a24c     RemoteOrderDisplay.obj
 0001:00009264       $LN75                      1000a264     RemoteOrderDisplay.obj
 0001:0000961d       _memcpy_s                  1000a61d f   RemoteOrderDisplay.obj
 0001:0000bec0       ?find_pe_section@@YAPAU_IMAGE_SECTION_HEADER@@QAEI@Z 1000cec0 f   LIBCMT:utility.obj
 0001:0000c1df       ?__scrt_initialize_thread_safe_statics@@YAHXZ 1000d1df f   LIBCMT:thread_safe_statics.obj
 0001:0000c206       ?__scrt_initialize_thread_safe_statics_platform_specific@@YAXXZ 1000d206 f   LIBCMT:thread_safe_statics.obj
 0001:0000c288       ?__scrt_uninitialize_thread_safe_statics@@YAXXZ 1000d288 f   LIBCMT:thread_safe_statics.obj
 0001:0000c5f7       __catch$??2@YAPAXIABUnothrow_t@std@@@Z$0 1000d5f7 f   LIBCMT:new_scalar_nothrow.obj
 0001:0000c630       $$000000                   1000d630     LIBCMT:sehprolg4gs.obj
 0001:0000c690       $$000000                   1000d690     LIBCMT:alloca16.obj
 0001:0000c6c0       $$000000                   1000d6c0     LIBCMT:chkstk.obj
 0001:0000c6ed       ?dllmain_crt_dispatch@@YGHQAUHINSTANCE__@@KQAX@Z 1000d6ed f   LIBCMT:dll_dllmain.obj
 0001:0000c740       ?dllmain_crt_process_attach@@YAHQAUHINSTANCE__@@QAX@Z 1000d740 f   LIBCMT:dll_dllmain.obj
 0001:0000c847       ?dllmain_crt_process_detach@@YAH_N@Z 1000d847 f   LIBCMT:dll_dllmain.obj
 0001:0000c8f7       ?dllmain_dispatch@@YAHQAUHINSTANCE__@@KQAX@Z 1000d8f7 f   LIBCMT:dll_dllmain.obj
 0001:0000ca02       ?dllmain_raw@@YGHQAUHINSTANCE__@@KQAX@Z 1000da02 f   LIBCMT:dll_dllmain.obj
 0001:0000cd80       $$000000                   1000dd80     LIBCMT:sehprolg4.obj
 0001:0000cddb       ___get_entropy             1000dddb f   LIBCMT:gs_support.obj
 0001:0000d0d2       ??$GetProcAddressAll@P6GP6GJPAUHWND__@@IIJ@ZPAUAtlThunkData_t@@@Z@@YAP6GP6GJPAUHWND__@@IIJ@ZPAUAtlThunkData_t@@@ZPAP6GP6GJ0IIJ@Z1@Z@Z 1000e0d2 f   atls:atlthunk.obj
 0001:0000d0d2       ??$GetProcAddressAll@P6GPAUAtlThunkData_t@@XZ@@YAP6GPAUAtlThunkData_t@@XZPAP6GPAU0@XZ@Z 1000e0d2 f   atls:atlthunk.obj
 0001:0000d0d2       ??$GetProcAddressAll@P6GXPAUAtlThunkData_t@@@Z@@YAP6GXPAUAtlThunkData_t@@@ZPAP6GX0@Z@Z 1000e0d2 f   atls:atlthunk.obj
 0001:0000d0d2       ??$GetProcAddressAll@P6GXPAUAtlThunkData_t@@PAXI@Z@@YAP6GXPAUAtlThunkData_t@@PAXI@ZPAP6GX01I@Z@Z 1000e0d2 f   atls:atlthunk.obj
 0001:0000d182       ?GetProcAddressSingle@@YA_NPAUHINSTANCE__@@PBDPAPAX@Z 1000e182 f   atls:atlthunk.obj
 0001:0000d2d4       ?__InitializeThunkPool@@YAHXZ 1000e2d4 f   atls:atlthunk.obj
 0001:0000d720       _ValidateLocalCookies      1000e720 f   libvcruntime:chandler4.obj
 0001:0000e74a       $LN1250                    1000f74a     libvcruntime:memcmp.obj
 0001:0000e7d0       $$000000                   1000f7d0     libvcruntime:memcpy.obj
 0001:0000ea34       TrailingUpVec              1000fa34     libvcruntime:memcpy.obj
 0001:0000eae0       TrailingDownVec            1000fae0     libvcruntime:memcpy.obj
 0001:0000ed50       $$000000                   1000fd50     libvcruntime:memset.obj
 0001:0000f353       ?_FilterSetCurrentException@@YAKPAU_EXCEPTION_POINTERS@@E@Z 10010353 f   libvcruntime:ehhelpers.obj
 0001:0000f5a0       $$000000                   100105a0     libvcruntime:memmove.obj
 0001:0000f804       TrailingUpVec              10010804     libvcruntime:memmove.obj
 0001:0000f8b0       TrailingDownVec            100108b0     libvcruntime:memmove.obj
 0001:0000fb20       $$000000                   10010b20     libvcruntime:exsup4.obj
 0001:0000fbad       __unwind_handler4          10010bad f   libvcruntime:exsup4.obj
 0001:0000fe8b       ??$BuildCatchObjectHelperInternal@V__FrameHandler3@@@@YAHPAUEHExceptionRecord@@PAXPBU_s_HandlerType@@PBU_s_CatchableType@@@Z 10010e8b f   libvcruntime:frame.obj
 0001:0000ffc9       ??$BuildCatchObjectInternal@V__FrameHandler3@@@@YAXPAUEHExceptionRecord@@PAXPBU_s_HandlerType@@PBU_s_CatchableType@@@Z 10010fc9 f   libvcruntime:frame.obj
 0001:00010062       ??$CatchIt@V__FrameHandler3@@@@YAXPAUEHExceptionRecord@@PAUEHRegistrationNode@@PAU_CONTEXT@@PAXPBU_s_FuncInfo@@PBU_s_HandlerType@@PBU_s_CatchableType@@PBU_s_TryBlockMapEntry@@H1EE@Z 10011062 f   libvcruntime:frame.obj
 0001:000100e2       ??$FindHandler@V__FrameHandler3@@@@YAXPAUEHExceptionRecord@@PAUEHRegistrationNode@@PAU_CONTEXT@@PAXPBU_s_FuncInfo@@EH1@Z 100110e2 f   libvcruntime:frame.obj
 0001:00010498       ??$FindHandlerForForeignException@V__FrameHandler3@@@@YAXPAUEHExceptionRecord@@PAUEHRegistrationNode@@PAU_CONTEXT@@PAXPBU_s_FuncInfo@@HH1@Z 10011498 f   libvcruntime:frame.obj
 0001:000107b0       ?CallCatchBlock@@YAPAXPAUEHExceptionRecord@@PAUEHRegistrationNode@@PAU_CONTEXT@@PBU_s_FuncInfo@@PAXHK@Z 100117b0 f   libvcruntime:frame.obj
 0001:00010974       ?CallUnexpected@@YAXPBU_s_ESTypeList@@@Z 10011974 f   libvcruntime:frame.obj
 0001:00010994       __catch$?CallUnexpected@@YAXPBU_s_ESTypeList@@@Z$0 10011994 f   libvcruntime:frame.obj
 0001:000109b3       ?ExFilterRethrow@@YAHPAU_EXCEPTION_POINTERS@@@Z 100119b3 f   libvcruntime:frame.obj
 0001:00010afd       ?IsInExceptionSpec@@YAEPAUEHExceptionRecord@@PBU_s_ESTypeList@@@Z 10011afd f   libvcruntime:frame.obj
 0001:00010bd0       $$000000                   10011bd0     libvcruntime:lowhelpr.obj
 0001:00010c20       $$000000                   10011c20     libvcruntime:exsup.obj
 0001:00010c41       __unwind_handler           10011c41 f   libvcruntime:exsup.obj
 0001:00010d5e       ?try_get_first_available_module@@YAPAUHINSTANCE__@@QBW4module_id@?A0xb97aeec8@@0@Z 10011d5e f   libvcruntime:winapi_downlevel.obj
 0001:00010df8       ?try_get_function@@YAPAXW4function_id@?A0xb97aeec8@@QBDQBW4module_id@2@2@Z 10011df8 f   libvcruntime:winapi_downlevel.obj
 0001:00011482       ??$common_tcsncpy_s@_W@@YAHQA_WIQB_WI@Z 10012482 f   libucrt:wcsncpy_s.obj
 0001:00011558       ??$common_vsprintf@Vformat_validation_base@__crt_stdio_output@@_W@@YAH_KQA_WIQB_WQAU__crt_locale_pointers@@QAD@Z 10012558 f   libucrt:output.obj
 0001:000116df       ??$common_vsprintf_s@_W@@YAH_KQA_WIQB_WQAU__crt_locale_pointers@@QAD@Z 100126df f   libucrt:output.obj
 0001:00011e43       $LN48                      10012e43     libucrt:output.obj
 0001:0001234c       $LN18                      1001334c     libucrt:output.obj
 0001:00012360       $LN17                      10013360     libucrt:output.obj
 0001:00012bbb       ??$?RV<lambda_03b1d95aef87969028cfba75ccab2455>@@AAV<lambda_6e4b09c48022b2350581041d5f6b0c4c>@@V<lambda_22bdf7517842c4b3e53723af5aa32b9e>@@@?$__crt_seh_guarded_call@X@@QAEX$$QAV<lambda_03b1d95aef87969028cfba75ccab2455>@@AAV<lambda_6e4b09c48022b2350581041d5f6b0c4c>@@$$QAV<lambda_22bdf7517842c4b3e53723af5aa32b9e>@@@Z 10013bbb f   libucrt:exit.obj
 0001:00012c08       ??R<lambda_6e4b09c48022b2350581041d5f6b0c4c>@@QBE@XZ 10013c08 f   libucrt:exit.obj
 0001:00012ce2       ?atexit_exception_filter@@YAHK@Z 10013ce2 f   libucrt:exit.obj
 0001:00012cf5       ?common_exit@@YAXHW4_crt_exit_cleanup_mode@@W4_crt_exit_return_mode@@@Z 10013cf5 f   libucrt:exit.obj
 0001:00012d59       ?exit_or_terminate_process@@YAXI@Z 10013d59 f   libucrt:exit.obj
 0001:00012d9b       ?is_managed_app@@YA_NXZ    10013d9b f   libucrt:exit.obj
 0001:00012dde       ?try_cor_exit_process@@YAXI@Z 10013dde f   libucrt:exit.obj
 0001:00012e6c       ??$common_configure_argv@D@@YAHW4_crt_argv_mode@@@Z 10013e6c f   libucrt:argv_parsing.obj
 0001:00012fa2       ??$parse_command_line@D@@YAXPADPAPAD0PAI2@Z 10013fa2 f   libucrt:argv_parsing.obj
 0001:00013170       ??$common_initialize_environment_nolock@D@@YAHXZ 10014170 f   libucrt:environment_initialization.obj
 0001:000131c3       ??$create_environment@D@@YAQAPADQAD@Z 100141c3 f   libucrt:environment_initialization.obj
 0001:00013293       ??$free_environment@D@@YAXQAPAD@Z 10014293 f   libucrt:environment_initialization.obj
 0001:00013293       ??$free_environment@_W@@YAXQAPA_W@Z 10014293 f   libucrt:environment_initialization.obj
 0001:000132eb       ??$uninitialize_environment_internal@D@@YAXAAPAPAD@Z 100142eb f   libucrt:environment_initialization.obj
 0001:00013306       ??$uninitialize_environment_internal@_W@@YAXAAPAPA_W@Z 10014306 f   libucrt:environment_initialization.obj
 0001:0001335d       ??$?RV<lambda_69a2805e680e0e292e8ba93315fe43a8>@@AAV<lambda_f03950bc5685219e0bcd2087efbe011e>@@V<lambda_03fcd07e894ec930e3f35da366ca99d6>@@@?$__crt_seh_guarded_call@H@@QAEH$$QAV<lambda_69a2805e680e0e292e8ba93315fe43a8>@@AAV<lambda_f03950bc5685219e0bcd2087efbe011e>@@$$QAV<lambda_03fcd07e894ec930e3f35da366ca99d6>@@@Z 1001435d f   libucrt:onexit.obj
 0001:000133b8       ??$?RV<lambda_8e746cf0007f6ed984d6f78af1fec997>@@AAV<lambda_22ebabd17bc4fa466a2aca6d8deb888d>@@V<lambda_18ed0c0b38a6dc0daf1e7ac6d6adf05e>@@@?$__crt_seh_guarded_call@H@@QAEH$$QAV<lambda_8e746cf0007f6ed984d6f78af1fec997>@@AAV<lambda_22ebabd17bc4fa466a2aca6d8deb888d>@@$$QAV<lambda_18ed0c0b38a6dc0daf1e7ac6d6adf05e>@@@Z 100143b8 f   libucrt:onexit.obj
 0001:00013432       ??R<lambda_22ebabd17bc4fa466a2aca6d8deb888d>@@QBEHXZ 10014432 f   libucrt:onexit.obj
 0001:0001355b       ??R<lambda_f03950bc5685219e0bcd2087efbe011e>@@QBEHXZ 1001455b f   libucrt:onexit.obj
 0001:000136d4       _initialize_global_variables 100146d4 f   libucrt:initialization.obj
 0001:000136e1       _initialize_c              100146e1 f   libucrt:initialization.obj
 0001:000136fb       _initialize_environment    100146fb f   libucrt:initialization.obj
 0001:000136fb       _initialize_global_state_isolation 100146fb f   libucrt:initialization.obj
 0001:000136fb       _report_memory_leaks       100146fb f   libucrt:initialization.obj
 0001:000136fb       _uninitialize_c            100146fb f   libucrt:initialization.obj
 0001:000136fb       _uninitialize_global_state_isolation 100146fb f   libucrt:initialization.obj
 0001:000136fe       _uninitialize_environment  100146fe f   libucrt:initialization.obj
 0001:00013706       _initialize_pointers       10014706 f   libucrt:initialization.obj
 0001:00013734       _uninitialize_vcruntime    10014734 f   libucrt:initialization.obj
 0001:0001373d       _uninitialize_allocated_memory 1001473d f   libucrt:initialization.obj
 0001:00013754       _uninitialize_allocated_io_buffers 10014754 f   libucrt:initialization.obj
 0001:000137a4       ??R<lambda_af42a3ee9806e9a7305d451646e05244>@@QBEXAAPAU__crt_multibyte_data@@@Z 100147a4 f   libucrt:initialization.obj
 0001:00014090       $$000000                   10015090     libucrt:strncmp.obj
 0001:0001417c       ??$?RV<lambda_15ade71b0218206bbe3333a0c9b79046>@@AAV<lambda_da44e0f8b0f19ba52fefafb335991732>@@V<lambda_207f2d024fc103971653565357d6cd41>@@@?$__crt_seh_guarded_call@X@@QAEX$$QAV<lambda_15ade71b0218206bbe3333a0c9b79046>@@AAV<lambda_da44e0f8b0f19ba52fefafb335991732>@@$$QAV<lambda_207f2d024fc103971653565357d6cd41>@@@Z 1001517c f   libucrt:per_thread_data.obj
 0001:000141ce       ??$?RV<lambda_38edbb1296d33220d7e4dd0ed76b244a>@@AAV<lambda_5ce1d447e08cb34b2473517608e21441>@@V<lambda_fb385d3da700c9147fc39e65dd577a8c>@@@?$__crt_seh_guarded_call@X@@QAEX$$QAV<lambda_38edbb1296d33220d7e4dd0ed76b244a>@@AAV<lambda_5ce1d447e08cb34b2473517608e21441>@@$$QAV<lambda_fb385d3da700c9147fc39e65dd577a8c>@@@Z 100151ce f   libucrt:per_thread_data.obj
 0001:00014239       ??$?RV<lambda_6affb1475c98b40b75cdec977db92e3c>@@AAV<lambda_b8d4b9c228a6ecc3f80208dbb4b4a104>@@V<lambda_608742c3c92a14382c1684fc64f96c88>@@@?$__crt_seh_guarded_call@X@@QAEX$$QAV<lambda_6affb1475c98b40b75cdec977db92e3c>@@AAV<lambda_b8d4b9c228a6ecc3f80208dbb4b4a104>@@$$QAV<lambda_608742c3c92a14382c1684fc64f96c88>@@@Z 10015239 f   libucrt:per_thread_data.obj
 0001:0001428e       ??$?RV<lambda_a7e850c220f1c8d1e6efeecdedd162c6>@@AAV<lambda_46720907175c18b6c9d2717bc0d2d362>@@V<lambda_9048902d66e8d99359bc9897bbb930a8>@@@?$__crt_seh_guarded_call@X@@QAEX$$QAV<lambda_a7e850c220f1c8d1e6efeecdedd162c6>@@AAV<lambda_46720907175c18b6c9d2717bc0d2d362>@@$$QAV<lambda_9048902d66e8d99359bc9897bbb930a8>@@@Z 1001528e f   libucrt:per_thread_data.obj
 0001:000142e8       ?construct_ptd@@YAXQAU__acrt_ptd@@QAPAU__crt_locale_data@@@Z 100152e8 f   libucrt:per_thread_data.obj
 0001:00014381       ?destroy_fls@@YGXPAX@Z     10015381 f   libucrt:per_thread_data.obj
 0001:000143a2       ?destroy_ptd@@YAXQAU__acrt_ptd@@@Z 100153a2 f   libucrt:per_thread_data.obj
 0001:0001446f       ?replace_current_thread_locale_nolock@@YAXQAU__acrt_ptd@@QAU__crt_locale_data@@@Z 1001546f f   libucrt:per_thread_data.obj
 0001:0001487f       ?try_get_AreFileApisANSI@@YAP6GHXZXZ 1001587f f   libucrt:winapi_thunks.obj
 0001:00014899       ?try_get_LCMapStringEx@@YAP6GHPB_WK0HPA_WHPAU_nlsversioninfo@@PAXJ@ZXZ 10015899 f   libucrt:winapi_thunks.obj
 0001:000148b3       ?try_get_LocaleNameToLCID@@YAP6GKPB_WK@ZXZ 100158b3 f   libucrt:winapi_thunks.obj
 0001:000148cd       ?try_get_first_available_module@@YAPAUHINSTANCE__@@QBW4module_id@?A0x391cf84c@@0@Z 100158cd f   libucrt:winapi_thunks.obj
 0001:00014994       ?try_get_function@@YAPAXW4function_id@?A0x391cf84c@@QBDQBW4module_id@2@2@Z 10015994 f   libucrt:winapi_thunks.obj
 0001:000150f7       ?fe_to_nearest@@YA_NQBN_KF@Z 100160f7 f   libucrt:cvt.obj
 0001:0001519a       ?fp_format_a@@YAHQBNPADIQADIH_NIQAU__crt_locale_pointers@@W4__acrt_rounding_mode@@@Z 1001619a f   libucrt:cvt.obj
 0001:000154a9       ?fp_format_e@@YAHQBNQADI1IH_NIQAU__crt_locale_pointers@@W4__acrt_rounding_mode@@@Z 100164a9 f   libucrt:cvt.obj
 0001:00015551       ?fp_format_e_internal@@YAHQADIH_NIQAU_strflt@@1QAU__crt_locale_pointers@@@Z 10016551 f   libucrt:cvt.obj
 0001:00015699       ?fp_format_f@@YAHQBNQADI1IHQAU__crt_locale_pointers@@W4__acrt_rounding_mode@@@Z 10016699 f   libucrt:cvt.obj
 0001:0001572a       ?fp_format_f_internal@@YAHQADIHQAU_strflt@@_NQAU__crt_locale_pointers@@@Z 1001672a f   libucrt:cvt.obj
 0001:00015822       ?fp_format_g@@YAHQBNQADI1IH_NIQAU__crt_locale_pointers@@@Z 10016822 f   libucrt:cvt.obj
 0001:000158eb       ?fp_format_nan_or_infinity@@YAHW4__acrt_fp_class@@_NPADI1@Z 100168eb f   libucrt:cvt.obj
 0001:00015980       ?shift_bytes@@YAXQADI0H@Z  10016980 f   libucrt:cvt.obj
 0001:000159b4       ?should_round_up@@YA_NQBN_KFW4__acrt_rounding_mode@@@Z 100169b4 f   libucrt:cvt.obj
 0001:00015d1d       ??$?RV<lambda_e5124f882df8998aaf41531e079ba474>@@AAV<lambda_3e16ef9562a7dcce91392c22ab16ea36>@@V<lambda_e25ca0880e6ef98be67edffd8c599615>@@@?$__crt_seh_guarded_call@X@@QAEX$$QAV<lambda_e5124f882df8998aaf41531e079ba474>@@AAV<lambda_3e16ef9562a7dcce91392c22ab16ea36>@@$$QAV<lambda_e25ca0880e6ef98be67edffd8c599615>@@@Z 10016d1d f   libucrt:wsetlocale.obj
 0001:00015dbd       ?initialize_inherited_file_handles_nolock@@YAXXZ 10016dbd f   libucrt:ioinit.obj
 0001:00015e73       ?initialize_stdio_handles_nolock@@YAXXZ 10016e73 f   libucrt:ioinit.obj
 0001:00016084       ?<lambda_invoker_cdecl>@<lambda_838c7f62c73c983481e27c09e84b0b5d>@@CAHPBX0@Z 10017084 f   libucrt:argv_wildcards.obj
 0001:0001609c       ??$__acrt_convert_wcs_mbs_cp@D_WV<lambda_62f6974d9771e494a5ea317cc32e971c>@@U__crt_win32_buffer_internal_dynamic_resizing@@@@YAHQBDAAV?$__crt_win32_buffer@_WU__crt_win32_buffer_internal_dynamic_resizing@@@@ABV<lambda_62f6974d9771e494a5ea317cc32e971c>@@I@Z 1001709c f   libucrt:argv_wildcards.obj
 0001:0001614e       ??$__acrt_convert_wcs_mbs_cp@_WDV<lambda_28bda7af82a03b66c1cb3803a755f95d>@@U__crt_win32_buffer_internal_dynamic_resizing@@@@YAHQB_WAAV?$__crt_win32_buffer@DU__crt_win32_buffer_internal_dynamic_resizing@@@@ABV<lambda_28bda7af82a03b66c1cb3803a755f95d>@@I@Z 1001714e f   libucrt:argv_wildcards.obj
 0001:0001623a       ??$common_expand_argv_wildcards@D@@YAHQAPADQAPAPAD@Z 1001723a f   libucrt:argv_wildcards.obj
 0001:00016429       ??$copy_and_add_argument_to_buffer@D@@YAHQBD0IAAV?$argument_list@D@?A0x5f5c8891@@@Z 10017429 f   libucrt:argv_wildcards.obj
 0001:000164da       ??$expand_argument_wildcards@D@@YAHQAD0AAV?$argument_list@D@?A0x5f5c8891@@@Z 100174da f   libucrt:argv_wildcards.obj
 0001:00016824       ?expand_if_necessary@?$argument_list@D@?A0x5f5c8891@@AAEHXZ 10017824 f   libucrt:argv_wildcards.obj
 0001:000168b6       ??$__acrt_convert_wcs_mbs_cp@_WDV<lambda_0fec1a7b3f42a53036604e18c2d5e07e>@@U__crt_win32_buffer_no_resizing@@@@YAHQB_WAAV?$__crt_win32_buffer@DU__crt_win32_buffer_no_resizing@@@@ABV<lambda_0fec1a7b3f42a53036604e18c2d5e07e>@@I@Z 100178b6 f   libucrt:getmodulefilenamea.obj
 0001:00016a59       ??$?RV<lambda_ceb1ee4838e85a9d631eb091e2fbe199>@@AAV<lambda_ae742caa10f662c28703da3d2ea5e57e>@@V<lambda_cd08b5d6af4937fe54fc07d0c9bf6b37>@@@?$__crt_seh_guarded_call@X@@QAEX$$QAV<lambda_ceb1ee4838e85a9d631eb091e2fbe199>@@AAV<lambda_ae742caa10f662c28703da3d2ea5e57e>@@$$QAV<lambda_cd08b5d6af4937fe54fc07d0c9bf6b37>@@@Z 10017a59 f   libucrt:mbctype.obj
 0001:00016aa6       ??R<lambda_ae742caa10f662c28703da3d2ea5e57e>@@QBEXXZ 10017aa6 f   libucrt:mbctype.obj
 0001:00016b29       ?CPtoLocaleName@@YAPB_WH@Z 10017b29 f   libucrt:mbctype.obj
 0001:00016b67       ?getSystemCP@@YAHH@Z       10017b67 f   libucrt:mbctype.obj
 0001:00016bd8       ?setSBCS@@YAXPAU__crt_multibyte_data@@@Z 10017bd8 f   libucrt:mbctype.obj
 0001:00016c3d       ?setSBUpLow@@YAXPAU__crt_multibyte_data@@@Z 10017c3d f   libucrt:mbctype.obj
 0001:00016dbd       ?setmbcp_internal@@YAHH_NQAU__acrt_ptd@@QAPAU__crt_multibyte_data@@@Z 10017dbd f   libucrt:mbctype.obj
 0001:00016ed1       ?update_thread_multibyte_data_internal@@YAPAU__crt_multibyte_data@@QAU__acrt_ptd@@QAPAU1@@Z 10017ed1 f   libucrt:mbctype.obj
 0001:000171bf       _memcpy_s                  100181bf f   libucrt:cfout.obj
 0001:000171bf       _memcpy_s                  100181bf f   libucrt:mbctype.obj
 0001:00017240       ?x_ismbbtype_l@@YAHPAU__crt_locale_pointers@@IHH@Z 10018240 f   libucrt:ismbbyte.obj
 0001:000173fb       ?find_end_of_double_null_terminated_sequence@@YAPB_WQB_W@Z 100183fb f   libucrt:get_environment_from_os.obj
 0001:0001756a       ??$?RV<lambda_cbab9ec6f41b0180b23cc171c22676b0>@@AAV<lambda_44731a7d0e6d81c3e6aa82d741081786>@@V<lambda_4b292cb8dd18144e164572427af410ab>@@@?$__crt_seh_guarded_call@P6AXH@Z@@QAEP6AXH@Z$$QAV<lambda_cbab9ec6f41b0180b23cc171c22676b0>@@AAV<lambda_44731a7d0e6d81c3e6aa82d741081786>@@$$QAV<lambda_4b292cb8dd18144e164572427af410ab>@@@Z 1001856a f   libucrt:signal.obj
 0001:000175ce       ?get_global_action_nolock@@YAPAP6AXH@ZH@Z 100185ce f   libucrt:signal.obj
 0001:00017610       ?siglookup@@YAPAU__crt_signal_action_t@@HQAU1@@Z 10018610 f   libucrt:signal.obj
 0001:000178c9       ??$?RV<lambda_2866be3712abc81a800a822484c830d8>@@AAV<lambda_39ca0ed439415581b5b15c265174cece>@@V<lambda_2b24c74d71094a6cd0cb82e44167d71b>@@@?$__crt_seh_guarded_call@X@@QAEX$$QAV<lambda_2866be3712abc81a800a822484c830d8>@@AAV<lambda_39ca0ed439415581b5b15c265174cece>@@$$QAV<lambda_2b24c74d71094a6cd0cb82e44167d71b>@@@Z 100188c9 f   libucrt:fflush.obj
 0001:00017955       ??$?RV<lambda_2cc53f568c5a2bb6f192f930a45d44ea>@@AAV<lambda_ab61a845afdef5b7c387490eaf3616ee>@@V<lambda_c2ffc0b7726aa6be21d5f0026187e748>@@@?$__crt_seh_guarded_call@X@@QAEX$$QAV<lambda_2cc53f568c5a2bb6f192f930a45d44ea>@@AAV<lambda_ab61a845afdef5b7c387490eaf3616ee>@@$$QAV<lambda_c2ffc0b7726aa6be21d5f0026187e748>@@@Z 10018955 f   libucrt:fflush.obj
 0001:00017a01       ?common_flush_all@@YAH_N@Z 10018a01 f   libucrt:fflush.obj
 0001:00017a4e       ?common_flush_all_should_try_to_flush_stream@@YA_NV__crt_stdio_stream@@QAH@Z 10018a4e f   libucrt:fflush.obj
 0001:00017a81       ?is_stream_flushable_or_commitable@@YA_NJ@Z 10018a81 f   libucrt:fflush.obj
 0001:00017f8a       ?GetTableIndexFromLocaleName@@YAHPB_W@Z 10018f8a f   libucrt:lcidtoname_downlevel.obj
 0001:00018040       ??R<lambda_3d301b9e52f5099be73030e1f0bf487e>@@QBEIPBD@Z 10019040 f   libucrt:mbrtowc.obj
 0001:000181c6       ?should_round_up@@YA_NQBDHW4__acrt_has_trailing_digits@@W4__acrt_rounding_mode@@@Z 100191c6 f   libucrt:_fptostr.obj
 0001:00019f64       ?free_crt_array_internal@@YAXQAPBXI@Z 1001af64 f   libucrt:inittime.obj
 0001:0001a92e       ??$common_tcsncpy_s@D@@YAHQADIQBDI@Z 1001b92e f   libucrt:strncpy_s.obj
 0001:0001a9f0       $$000000                   1001b9f0     libucrt:strpbrk.obj
 0001:0001aad4       ?__acrt_LCMapStringA_stat@@YAHPAU__crt_locale_pointers@@PB_WKPBDHPADHHH@Z 1001bad4 f   libucrt:lcmapstringa.obj
 0001:0001ad07       ?initialize_multibyte@@YAHXZ 1001bd07 f   libucrt:multibyte_initializer.obj
 0001:0001ad16       ??$?RV<lambda_9e9de3de5fa147e2223d7db92bc10aa6>@@AAV<lambda_38ce7e780aa69e748d6df282ebc68efe>@@V<lambda_8ca6da459f0f6780f1cff60fdc3d00e5>@@@?$__crt_seh_guarded_call@H@@QAEH$$QAV<lambda_9e9de3de5fa147e2223d7db92bc10aa6>@@AAV<lambda_38ce7e780aa69e748d6df282ebc68efe>@@$$QAV<lambda_8ca6da459f0f6780f1cff60fdc3d00e5>@@@Z 1001bd16 f   libucrt:commit.obj
 0001:0001ae35       ?write_double_translated_ansi_nolock@@YA?AUwrite_result@?A0x17268360@@HQBDI@Z 1001be35 f   libucrt:write.obj
 0001:0001b1e1       ?write_double_translated_unicode_nolock@@YA?AUwrite_result@?A0x17268360@@QBDI@Z 1001c1e1 f   libucrt:write.obj
 0001:0001b249       ?write_requires_double_translation_nolock@@YA_NH@Z 1001c249 f   libucrt:write.obj
 0001:0001b2ba       ?write_text_ansi_nolock@@YA?AUwrite_result@?A0x17268360@@HQBDI@Z 1001c2ba f   libucrt:write.obj
 0001:0001b395       ?write_text_utf16le_nolock@@YA?AUwrite_result@?A0x17268360@@HQBDI@Z 1001c395 f   libucrt:write.obj
 0001:0001b47e       ?write_text_utf8_nolock@@YA?AUwrite_result@?A0x17268360@@HQBDI@Z 1001c47e f   libucrt:write.obj
 0001:0001bba0       $$000000                   1001cba0     libucrt:log10_impl.obj
 0001:0001bcb0       $$000000                   1001ccb0     libucrt:ceil_pentium4.obj
 0001:0001bdcd       ?to_abstract_control@@YA?AW4__acrt_fenv_abstract_control@@W4__acrt_fenv_machine_sse_control@@@Z 1001cdcd f   libucrt:_fenvutils.obj
 0001:0001be89       ?to_abstract_control@@YA?AW4__acrt_fenv_abstract_control@@W4__acrt_fenv_machine_x87_control@@@Z 1001ce89 f   libucrt:_fenvutils.obj
 0001:0001bf42       ?to_machine_sse_control@@YA?AW4__acrt_fenv_machine_sse_control@@W4__acrt_fenv_abstract_control@@@Z 1001cf42 f   libucrt:_fenvutils.obj
 0001:0001c00f       ?to_machine_x87_control@@YA?AW4__acrt_fenv_machine_x87_control@@W4__acrt_fenv_abstract_control@@@Z 1001d00f f   libucrt:_fenvutils.obj
 0001:0001c3a3       ??$common_lseek_nolock@_J@@YA_JH_JH@Z 1001d3a3 f   libucrt:lseek.obj
 0001:0001c589       ___hw_cw_sse2              1001d589 f   libucrt:ieee87.obj
 0001:0001ca0f       __hw_cw                    1001da0f f   libucrt:ieee87.obj
 0001:0001cac0       $$000000                   1001dac0     libucrt:log10_pentium4.obj
 0001:0001cd50       $$000000                   1001dd50     libucrt:87tran.obj
 0001:0001cf60       $$000000                   1001df60     libucrt:87disp.obj
 0001:0001d1c0       $$000000                   1001e1c0     libucrt:common.obj
 0001:0001d350       $$000000                   1001e350     libucrt:genexcep.obj
 0001:0001d64c       ??$?RV<lambda_218ce3db14220d0be481dae8ef3383b6>@@AAV<lambda_628dfdc04ba53c8bfc02c9951375f3f5>@@V<lambda_57dc472bd5c9d5f3b2cbca59b8a843ae>@@@?$__crt_seh_guarded_call@H@@QAEH$$QAV<lambda_218ce3db14220d0be481dae8ef3383b6>@@AAV<lambda_628dfdc04ba53c8bfc02c9951375f3f5>@@$$QAV<lambda_57dc472bd5c9d5f3b2cbca59b8a843ae>@@@Z 1001e64c f   libucrt:close.obj
 0001:0001d840       $$000000                   1001e840     libucrt:_strnicm.obj
 0001:0001d8a1       ?__dcrt_lowio_initialize_console_output@@YAXXZ 1001e8a1 f   libucrt:initcon.obj
 0001:0001e780       $$000000                   1001f780     LIBCMT:ulldvrm.obj
 0001:0001e820       $$000000                   1001f820     LIBCMT:llmul.obj
 0001:0001e860       $$000000                   1001f860     LIBCMT:lldvrm.obj
 0001:0001e940       $$000000                   1001f940     LIBCMT:llshl.obj
 0001:0001e960       $$000000                   1001f960     LIBCMT:ullshr.obj
 0001:0001e980       $$000000                   1001f980     LIBCMT:ftol2.obj
 0001:0001ec20       $$000000                   1001fc20     libvcruntime:strrchr.obj
 0001:0001ed60       $$000000                   1001fd60     libvcruntime:strchr.obj
 0001:0001ef03       __ehhandler$??2@YAPAXIABUnothrow_t@std@@@Z 1001ff03 f   LIBCMT:new_scalar_nothrow.obj
 0001:0001ef20       __ehhandler$?CallUnexpected@@YAXPBU_s_ESTypeList@@@Z 1001ff20 f   libvcruntime:frame.obj
 0001:0001ef3d       ??__F_AtlComModule@ATL@@YAXXZ 1001ff3d f   OposVariant.obj
 0001:0001ef47       ??__F_AtlWinModule@ATL@@YAXXZ 1001ff47 f   OposVariant.obj
 0001:0001ef61       ??__F_Module@@YAXXZ        1001ff61 f   RemoteOrderDisplay.obj
 0001:0001ef75       ??__F_AtlBaseModule@ATL@@YAXXZ 1001ff75 f   atls:atlbase.obj
 0002:00000304       ?_AtlBaseModule$initializer$@ATL@@3P6AXXZA 10020304     atls:atlbase.obj
 0002:00000308       ?_AtlComModule$initializer$@ATL@@3P6AXXZA 10020308     OposVariant.obj
 0002:0000030c       ?_AtlWinModule$initializer$@ATL@@3P6AXXZA 1002030c     OposVariant.obj
 0002:00000310       ?_Module$initializer$@@3P6AXXZA 10020310     RemoteOrderDisplay.obj
 0002:00000314       ??pConnMap$initializer$@?$IConnectionPointContainerImpl@VCOPOSRemoteOrderDisplay@@@ATL@@0P6AXXZA@@3P6AXXZA 10020314     RemoteOrderDisplay.obj
 0002:00000320       ?__scrt_initialize_tss_var@@3P6AHXZA 10020320     LIBCMT:thread_safe_statics.obj
 0002:00001a90       _GS_ExceptionPointers      10021a90     LIBCMT:gs_report.obj
 0002:00001c20       ?tokenTable@@3QBUStringLiteral@@B 10021c20     libvcruntime:undname.obj
 0002:00001ca0       ?nameTable@@3QBUStringLiteral@@B 10021ca0     libvcruntime:undname.obj
 0002:00001f38       ?rttiTable@@3QBUStringLiteral@@B 10021f38     libvcruntime:undname.obj
 0002:00001f60       ?IndirectionName@@3QBUStringLiteral@@B 10021f60     libvcruntime:undname.obj
 0002:00001f90       ?PrefixName@@3QBUStringLiteral@@B 10021f90     libvcruntime:undname.obj
 0002:000025c0       ?module_names@?A0xb97aeec8@@3QBQB_WB 100225c0     libvcruntime:winapi_downlevel.obj
 0002:00002668       ?candidate_modules@?1??try_get_FlsAlloc@@YAP6GKP6GXPAX@Z@ZXZ@4QBW4module_id@?A0xb97aeec8@@B 10022668     libvcruntime:winapi_downlevel.obj
 0002:0000267c       ?candidate_modules@?1??try_get_FlsFree@@YAP6GHK@ZXZ@4QBW4module_id@?A0xb97aeec8@@B 1002267c     libvcruntime:winapi_downlevel.obj
 0002:0000268c       ?candidate_modules@?1??try_get_FlsGetValue@@YAP6GPAXK@ZXZ@4QBW4module_id@?A0xb97aeec8@@B 1002268c     libvcruntime:winapi_downlevel.obj
 0002:000026a0       ?candidate_modules@?1??try_get_FlsSetValue@@YAP6GHKPAX@ZXZ@4QBW4module_id@?A0xb97aeec8@@B 100226a0     libvcruntime:winapi_downlevel.obj
 0002:000026b4       ?candidate_modules@?1??try_get_InitializeCriticalSectionEx@@YAP6GHPAU_RTL_CRITICAL_SECTION@@KK@ZXZ@4QBW4module_id@?A0xb97aeec8@@B 100226b4     libvcruntime:winapi_downlevel.obj
 0002:000026d8       ?errtable@@3QBUerrentry@?A0x31fdb9ec@@B 100226d8     libucrt:errno.obj
 0002:00002d20       ___acrt_initializers       10022d20     libucrt:initialization.obj
 0002:00002da0       ?module_names@?A0x391cf84c@@3QBQB_WB 10022da0     libucrt:winapi_thunks.obj
 0002:00003218       ?candidate_modules@?1??try_get_AreFileApisANSI@@YAP6GHXZXZ@4QBW4module_id@?A0x391cf84c@@B 10023218     libucrt:winapi_thunks.obj
 0002:0000322c       ?candidate_modules@?1??try_get_FlsAlloc@@YAP6GKP6GXPAX@Z@ZXZ@4QBW4module_id@?A0x391cf84c@@B 1002322c     libucrt:winapi_thunks.obj
 0002:00003234       ?candidate_modules@?1??try_get_FlsFree@@YAP6GHK@ZXZ@4QBW4module_id@?A0x391cf84c@@B 10023234     libucrt:winapi_thunks.obj
 0002:0000323c       ?candidate_modules@?1??try_get_FlsGetValue@@YAP6GPAXK@ZXZ@4QBW4module_id@?A0x391cf84c@@B 1002323c     libucrt:winapi_thunks.obj
 0002:00003244       ?candidate_modules@?1??try_get_FlsSetValue@@YAP6GHKPAX@ZXZ@4QBW4module_id@?A0x391cf84c@@B 10023244     libucrt:winapi_thunks.obj
 0002:0000324c       ?candidate_modules@?1??try_get_InitializeCriticalSectionEx@@YAP6GHPAU_RTL_CRITICAL_SECTION@@KK@ZXZ@4QBW4module_id@?A0x391cf84c@@B 1002324c     libucrt:winapi_thunks.obj
 0002:00003254       ?candidate_modules@?1??try_get_LCMapStringEx@@YAP6GHPB_WK0HPA_WHPAU_nlsversioninfo@@PAXJ@ZXZ@4QBW4module_id@?A0x391cf84c@@B 10023254     libucrt:winapi_thunks.obj
 0002:0000326c       ?candidate_modules@?1??try_get_LocaleNameToLCID@@YAP6GKPB_WK@ZXZ@4QBW4module_id@?A0x391cf84c@@B 1002326c     libucrt:winapi_thunks.obj
 0002:00003288       ?candidate_modules@?1??try_get_AppPolicyGetProcessTerminationMethod@@YAP6GJPAXPAW4AppPolicyProcessTerminationMethod@@@ZXZ@4QBW4module_id@?A0x391cf84c@@B 10023288     libucrt:winapi_thunks.obj
 0002:000032b4       ?candidate_modules@?1??try_get_SetThreadStackGuarantee@@YAP6GHPAK@ZXZ@4QBW4module_id@?A0x391cf84c@@B 100232b4     libucrt:winapi_thunks.obj
 0002:000032d8       ?strings@?1??fp_format_nan_or_infinity@@YAHW4__acrt_fp_class@@_NPADI1@Z@4QAY03QBDA 100232d8     libucrt:cvt.obj
 0002:00003820       ?_mb_locale_names@@3QBQB_WB 10023820     libucrt:mbctype.obj
 0002:00004068       ?LcidToLocaleNameTable@?A0x881e4c05@@3QBULcidToLocaleName@1@B 10024068     libucrt:lcidtoname_downlevel.obj
 0002:00005190       ?LocaleNameToIndexTable@?A0x881e4c05@@3QBULocaleNameIndex@1@B 10025190     libucrt:lcidtoname_downlevel.obj
 0002:00006ad0       LOG_name                   10026ad0     libucrt:log10_impl.obj
 0002:00006ae0       _One                       10026ae0     libucrt:ceil_pentium4.obj
 0002:00006af0       _Bns                       10026af0     libucrt:ceil_pentium4.obj
 0002:00006b00       _Zero                      10026b00     libucrt:ceil_pentium4.obj
 0002:00006b10       _S                         10026b10     libucrt:ceil_pentium4.obj
 0002:00006b20       _NegZero                   10026b20     libucrt:ceil_pentium4.obj
 0002:00006b30       emask                      10026b30     libucrt:log10_pentium4.obj
 0002:00006b40       CC                         10026b40     libucrt:log10_pentium4.obj
 0002:00006b50       Magic                      10026b50     libucrt:log10_pentium4.obj
 0002:00006b60       hi_mask                    10026b60     libucrt:log10_pentium4.obj
 0002:00006b70       LOG10_2                    10026b70     libucrt:log10_pentium4.obj
 0002:00006b80       place_L                    10026b80     libucrt:log10_pentium4.obj
 0002:00006ba0       One                        10026ba0     libucrt:log10_pentium4.obj
 0002:00006bb0       Zero                       10026bb0     libucrt:log10_pentium4.obj
 0002:00006bc0       Two52                      10026bc0     libucrt:log10_pentium4.obj
 0002:00006bd0       Infs                       10026bd0     libucrt:log10_pentium4.obj
 0002:00006be0       NaN                        10026be0     libucrt:log10_pentium4.obj
 0002:00006bf0       coeff                      10026bf0     libucrt:log10_pentium4.obj
 0002:00006c4e       _log2max                   10026c4e     libucrt:87tran.obj
 0002:00006c58       _smallarg                  10026c58     libucrt:87tran.obj
 0002:00006c62       _half                      10026c62     libucrt:87tran.obj
 0002:00006cae       One                        10026cae     libucrt:87disp.obj
 0002:00006cb6       Three                      10026cb6     libucrt:87disp.obj
 0002:00006cbe       XAMtoTagTab                10026cbe     libucrt:87disp.obj
 0002:00006cd0       One                        10026cd0     libucrt:common.obj
 0002:00006ce4       DblMax                     10026ce4     libucrt:common.obj
 0002:00006cec       DblMin                     10026cec     libucrt:common.obj
 0002:00006cf4       IeeeAdjO                   10026cf4     libucrt:common.obj
 0002:00006cfc       IeeeAdjU                   10026cfc     libucrt:common.obj
 0002:00006d04       _infinity                  10026d04     libucrt:common.obj
 0002:00006d0c       _zero                      10026d0c     libucrt:common.obj
 0002:00006d58       _over                      10026d58     libucrt:fpctrl.obj
 0002:00006d64       _under                     10026d64     libucrt:fpctrl.obj
 0002:00007598       ?_names@?1??_get_fname@@9@9 10027598     libucrt:fpexcept.obj
 0002:00007740       two32                      10027740     LIBCMT:ftol2.obj
 0002:00007744       two63                      10027744     LIBCMT:ftol2.obj
 0002:00007748       _NaN                       10027748     LIBCMT:ftol2.obj
 0002:00007e30       __sehtable$?_AtlVerifyStackAvailable@_ATL_SAFE_ALLOCA_IMPL@ATL@@YA_NK@Z 10027e30     RemoteOrderDisplay.obj
 0002:00007e50       __sehtable$___scrt_is_nonwritable_in_current_image 10027e50     LIBCMT:utility.obj
 0002:00007e6c       __catchsym$??2@YAPAXIABUnothrow_t@std@@@Z$2 10027e6c     LIBCMT:new_scalar_nothrow.obj
 0002:00007e7c       __unwindtable$??2@YAPAXIABUnothrow_t@std@@@Z 10027e7c     LIBCMT:new_scalar_nothrow.obj
 0002:00007e8c       __tryblocktable$??2@YAPAXIABUnothrow_t@std@@@Z 10027e8c     LIBCMT:new_scalar_nothrow.obj
 0002:00007ea0       __ehfuncinfo$??2@YAPAXIABUnothrow_t@std@@@Z 10027ea0     LIBCMT:new_scalar_nothrow.obj
 0002:00007ec8       __sehtable$?dllmain_crt_process_attach@@YAHQAUHINSTANCE__@@QAX@Z 10027ec8     LIBCMT:dll_dllmain.obj
 0002:00007ee8       __sehtable$?dllmain_crt_process_detach@@YAH_N@Z 10027ee8     LIBCMT:dll_dllmain.obj
 0002:00007f10       __sehtable$?dllmain_dispatch@@YAHQAUHINSTANCE__@@KQAX@Z 10027f10     LIBCMT:dll_dllmain.obj
 0002:00007fc0       __sehtable$___DestructExceptionObject 10027fc0     libvcruntime:ehhelpers.obj
 0002:00007fe0       __sehtable$?FrameUnwindToState@__FrameHandler3@@SAXPAUEHRegistrationNode@@PAXPBU_s_FuncInfo@@H@Z 10027fe0     libvcruntime:frame.obj
 0002:00008008       __sehtable$?CallCatchBlock@@YAPAXPAUEHExceptionRecord@@PAUEHRegistrationNode@@PAU_CONTEXT@@PBU_s_FuncInfo@@PAXHK@Z 10028008     libvcruntime:frame.obj
 0002:00008030       __catchsym$?CallUnexpected@@YAXPBU_s_ESTypeList@@@Z$2 10028030     libvcruntime:frame.obj
 0002:00008040       __unwindtable$?CallUnexpected@@YAXPBU_s_ESTypeList@@@Z 10028040     libvcruntime:frame.obj
 0002:00008050       __tryblocktable$?CallUnexpected@@YAXPBU_s_ESTypeList@@@Z 10028050     libvcruntime:frame.obj
 0002:00008064       __ehfuncinfo$?CallUnexpected@@YAXPBU_s_ESTypeList@@@Z 10028064     libvcruntime:frame.obj
 0002:00008088       __sehtable$??$BuildCatchObjectHelperInternal@V__FrameHandler3@@@@YAHPAUEHExceptionRecord@@PAXPBU_s_HandlerType@@PBU_s_CatchableType@@@Z 10028088     libvcruntime:frame.obj
 0002:000080a8       __sehtable$??$BuildCatchObjectInternal@V__FrameHandler3@@@@YAXPAUEHExceptionRecord@@PAXPBU_s_HandlerType@@PBU_s_CatchableType@@@Z 100280a8     libvcruntime:frame.obj
 0002:00008100       __sehtable$??R<lambda_6e4b09c48022b2350581041d5f6b0c4c>@@QBE@XZ 10028100     libucrt:exit.obj
 0002:00008120       __sehtable$??$?RV<lambda_03b1d95aef87969028cfba75ccab2455>@@AAV<lambda_6e4b09c48022b2350581041d5f6b0c4c>@@V<lambda_22bdf7517842c4b3e53723af5aa32b9e>@@@?$__crt_seh_guarded_call@X@@QAEX$$QAV<lambda_03b1d95aef87969028cfba75ccab2455>@@AAV<lambda_6e4b09c48022b2350581041d5f6b0c4c>@@$$QAV<lambda_22bdf7517842c4b3e53723af5aa32b9e>@@@Z 10028120     libucrt:exit.obj
 0002:00008140       __sehtable$??$?RV<lambda_8e746cf0007f6ed984d6f78af1fec997>@@AAV<lambda_22ebabd17bc4fa466a2aca6d8deb888d>@@V<lambda_18ed0c0b38a6dc0daf1e7ac6d6adf05e>@@@?$__crt_seh_guarded_call@H@@QAEH$$QAV<lambda_8e746cf0007f6ed984d6f78af1fec997>@@AAV<lambda_22ebabd17bc4fa466a2aca6d8deb888d>@@$$QAV<lambda_18ed0c0b38a6dc0daf1e7ac6d6adf05e>@@@Z 10028140     libucrt:onexit.obj
 0002:00008160       __sehtable$??$?RV<lambda_69a2805e680e0e292e8ba93315fe43a8>@@AAV<lambda_f03950bc5685219e0bcd2087efbe011e>@@V<lambda_03fcd07e894ec930e3f35da366ca99d6>@@@?$__crt_seh_guarded_call@H@@QAEH$$QAV<lambda_69a2805e680e0e292e8ba93315fe43a8>@@AAV<lambda_f03950bc5685219e0bcd2087efbe011e>@@$$QAV<lambda_03fcd07e894ec930e3f35da366ca99d6>@@@Z 10028160     libucrt:onexit.obj
 0002:00008180       __sehtable$__query_new_handler 10028180     libucrt:new_handler.obj
 0002:000081a0       __sehtable$_terminate      100281a0     libucrt:terminate.obj
 0002:000081c0       __sehtable$??$?RV<lambda_15ade71b0218206bbe3333a0c9b79046>@@AAV<lambda_da44e0f8b0f19ba52fefafb335991732>@@V<lambda_207f2d024fc103971653565357d6cd41>@@@?$__crt_seh_guarded_call@X@@QAEX$$QAV<lambda_15ade71b0218206bbe3333a0c9b79046>@@AAV<lambda_da44e0f8b0f19ba52fefafb335991732>@@$$QAV<lambda_207f2d024fc103971653565357d6cd41>@@@Z 100281c0     libucrt:per_thread_data.obj
 0002:000081e0       __sehtable$??$?RV<lambda_a7e850c220f1c8d1e6efeecdedd162c6>@@AAV<lambda_46720907175c18b6c9d2717bc0d2d362>@@V<lambda_9048902d66e8d99359bc9897bbb930a8>@@@?$__crt_seh_guarded_call@X@@QAEX$$QAV<lambda_a7e850c220f1c8d1e6efeecdedd162c6>@@AAV<lambda_46720907175c18b6c9d2717bc0d2d362>@@$$QAV<lambda_9048902d66e8d99359bc9897bbb930a8>@@@Z 100281e0     libucrt:per_thread_data.obj
 0002:00008200       __sehtable$??$?RV<lambda_38edbb1296d33220d7e4dd0ed76b244a>@@AAV<lambda_5ce1d447e08cb34b2473517608e21441>@@V<lambda_fb385d3da700c9147fc39e65dd577a8c>@@@?$__crt_seh_guarded_call@X@@QAEX$$QAV<lambda_38edbb1296d33220d7e4dd0ed76b244a>@@AAV<lambda_5ce1d447e08cb34b2473517608e21441>@@$$QAV<lambda_fb385d3da700c9147fc39e65dd577a8c>@@@Z 10028200     libucrt:per_thread_data.obj
 0002:00008220       __sehtable$??$?RV<lambda_6affb1475c98b40b75cdec977db92e3c>@@AAV<lambda_b8d4b9c228a6ecc3f80208dbb4b4a104>@@V<lambda_608742c3c92a14382c1684fc64f96c88>@@@?$__crt_seh_guarded_call@X@@QAEX$$QAV<lambda_6affb1475c98b40b75cdec977db92e3c>@@AAV<lambda_b8d4b9c228a6ecc3f80208dbb4b4a104>@@$$QAV<lambda_608742c3c92a14382c1684fc64f96c88>@@@Z 10028220     libucrt:per_thread_data.obj
 0002:00008240       __sehtable$??$?RV<lambda_e5124f882df8998aaf41531e079ba474>@@AAV<lambda_3e16ef9562a7dcce91392c22ab16ea36>@@V<lambda_e25ca0880e6ef98be67edffd8c599615>@@@?$__crt_seh_guarded_call@X@@QAEX$$QAV<lambda_e5124f882df8998aaf41531e079ba474>@@AAV<lambda_3e16ef9562a7dcce91392c22ab16ea36>@@$$QAV<lambda_e25ca0880e6ef98be67edffd8c599615>@@@Z 10028240     libucrt:wsetlocale.obj
 0002:00008260       __sehtable$___acrt_initialize_lowio 10028260     libucrt:ioinit.obj
 0002:00008280       __sehtable$?update_thread_multibyte_data_internal@@YAPAU__crt_multibyte_data@@QAU__acrt_ptd@@QAPAU1@@Z 10028280     libucrt:mbctype.obj
 0002:000082a0       __sehtable$??$?RV<lambda_ceb1ee4838e85a9d631eb091e2fbe199>@@AAV<lambda_ae742caa10f662c28703da3d2ea5e57e>@@V<lambda_cd08b5d6af4937fe54fc07d0c9bf6b37>@@@?$__crt_seh_guarded_call@X@@QAEX$$QAV<lambda_ceb1ee4838e85a9d631eb091e2fbe199>@@AAV<lambda_ae742caa10f662c28703da3d2ea5e57e>@@$$QAV<lambda_cd08b5d6af4937fe54fc07d0c9bf6b37>@@@Z 100282a0     libucrt:mbctype.obj
 0002:000082c0       __sehtable$_raise          100282c0     libucrt:signal.obj
 0002:000082e0       __sehtable$??$?RV<lambda_cbab9ec6f41b0180b23cc171c22676b0>@@AAV<lambda_44731a7d0e6d81c3e6aa82d741081786>@@V<lambda_4b292cb8dd18144e164572427af410ab>@@@?$__crt_seh_guarded_call@P6AXH@Z@@QAEP6AXH@Z$$QAV<lambda_cbab9ec6f41b0180b23cc171c22676b0>@@AAV<lambda_44731a7d0e6d81c3e6aa82d741081786>@@$$QAV<lambda_4b292cb8dd18144e164572427af410ab>@@@Z 100282e0     libucrt:signal.obj
 0002:00008300       __sehtable$??$?RV<lambda_2866be3712abc81a800a822484c830d8>@@AAV<lambda_39ca0ed439415581b5b15c265174cece>@@V<lambda_2b24c74d71094a6cd0cb82e44167d71b>@@@?$__crt_seh_guarded_call@X@@QAEX$$QAV<lambda_2866be3712abc81a800a822484c830d8>@@AAV<lambda_39ca0ed439415581b5b15c265174cece>@@$$QAV<lambda_2b24c74d71094a6cd0cb82e44167d71b>@@@Z 10028300     libucrt:fflush.obj
 0002:00008320       __sehtable$??$?RV<lambda_2cc53f568c5a2bb6f192f930a45d44ea>@@AAV<lambda_ab61a845afdef5b7c387490eaf3616ee>@@V<lambda_c2ffc0b7726aa6be21d5f0026187e748>@@@?$__crt_seh_guarded_call@X@@QAEX$$QAV<lambda_2cc53f568c5a2bb6f192f930a45d44ea>@@AAV<lambda_ab61a845afdef5b7c387490eaf3616ee>@@$$QAV<lambda_c2ffc0b7726aa6be21d5f0026187e748>@@@Z 10028320     libucrt:fflush.obj
 0002:00008340       __sehtable$___acrt_update_thread_locale_data 10028340     libucrt:locale_refcounting.obj
 0002:00008360       __sehtable$__fcloseall     10028360     libucrt:closeall.obj
 0002:00008380       __sehtable$___acrt_lowio_ensure_fh_exists 10028380     libucrt:osfinfo.obj
 0002:000083a0       __sehtable$??$?RV<lambda_9e9de3de5fa147e2223d7db92bc10aa6>@@AAV<lambda_38ce7e780aa69e748d6df282ebc68efe>@@V<lambda_8ca6da459f0f6780f1cff60fdc3d00e5>@@@?$__crt_seh_guarded_call@H@@QAEH$$QAV<lambda_9e9de3de5fa147e2223d7db92bc10aa6>@@AAV<lambda_38ce7e780aa69e748d6df282ebc68efe>@@$$QAV<lambda_8ca6da459f0f6780f1cff60fdc3d00e5>@@@Z 100283a0     libucrt:commit.obj
 0002:000083c0       __sehtable$__write         100283c0     libucrt:write.obj
 0002:000083e0       __sehtable$_fclose         100283e0     libucrt:fclose.obj
 0002:00008400       __sehtable$??$?RV<lambda_218ce3db14220d0be481dae8ef3383b6>@@AAV<lambda_628dfdc04ba53c8bfc02c9951375f3f5>@@V<lambda_57dc472bd5c9d5f3b2cbca59b8a843ae>@@@?$__crt_seh_guarded_call@H@@QAEH$$QAV<lambda_218ce3db14220d0be481dae8ef3383b6>@@AAV<lambda_628dfdc04ba53c8bfc02c9951375f3f5>@@$$QAV<lambda_57dc472bd5c9d5f3b2cbca59b8a843ae>@@@Z 10028400     libucrt:close.obj
 0002:00008420       __sehtable$___set_fpsr_sse2 10028420     libucrt:fpctrl.obj
 0002:00008440       __sehtable$__IsNonwritableInCurrentImage 10028440     LIBCMT:pesect.obj
 0002:00008470       .edata                     10028470     OPOSRemoteOrderDisplay.exp
 0002:00008498       rgpv                       10028498     OPOSRemoteOrderDisplay.exp
 0002:000084a8       rgszName                   100284a8     OPOSRemoteOrderDisplay.exp
 0002:000084b8       rgwOrd                     100284b8     OPOSRemoteOrderDisplay.exp
 0002:000084c0       szName                     100284c0     OPOSRemoteOrderDisplay.exp
 0002:000084db       $N00001                    100284db     OPOSRemoteOrderDisplay.exp
 0002:000084eb       $N00002                    100284eb     OPOSRemoteOrderDisplay.exp
 0002:000084fd       $N00003                    100284fd     OPOSRemoteOrderDisplay.exp
 0002:0000850f       $N00004                    1002850f     OPOSRemoteOrderDisplay.exp
 0002:00008b1e       .idata$6                   10028b1e     kernel32:KERNEL32.dll
 0002:00008d32       .idata$6                   10028d32     user32:USER32.dll
 0002:00008e66       .idata$6                   10028e66     gdi32:GDI32.dll
 0002:00008f0c       .idata$6                   10028f0c     advapi32:ADVAPI32.dll
 0002:00009028       .idata$6                   10029028     ole32:ole32.dll
 0002:00009032       .idata$6                   10029032     oleaut32:OLEAUT32.dll
 0003:00000110       ?ObjectMap@@3PAU_ATL_OBJMAP_ENTRY30@ATL@@A 1002a110     RemoteOrderDisplay.obj
 0003:000001e8       ?s_SOMethodNames@@3PAPADA  1002a1e8     RemoteOrderDisplayImpl.obj
 0003:00000274       ?s_RequiredMethodsPerRelease@@3PAHA 1002a274     RemoteOrderDisplayImpl.obj
 0003:000002b0       ?__vcrt_flsindex@@3KA      1002a2b0     libvcruntime:per_thread_data.obj
 0003:000002d0       ?errno_no_memory@@3HA      1002a2d0     libucrt:errno.obj
 0003:000002d4       ?doserrno_no_memory@@3KA   1002a2d4     libucrt:errno.obj
 0003:000002e0       ?__acrt_flsindex@@3KA      1002a2e0     libucrt:per_thread_data.obj
 0003:00000678       __mbctypes                 1002a678     libucrt:mbctype.obj
 0003:00000780       __mbcasemaps               1002a780     libucrt:mbctype.obj
 0003:00000880       ?__rgctypeflag@@3PADA      1002a880     libucrt:mbctype.obj
 0003:00000888       ?__rgcode_page_info@@3PAUcode_page_info@@A 1002a888     libucrt:mbctype.obj
 0003:00000ae0       ?__dcrt_lowio_console_output_handle@@3PAXA 1002aae0     libucrt:initcon.obj
 0003:00000ae4       ?__DAZ_ENABLED@?1??__set_fpsr_sse2@@9@9 1002aae4     libucrt:fpctrl.obj
 0003:00000c78       ?is_initialized_as_dll@@3_NA 1002ac78     LIBCMT:utility.obj
 0003:00000c79       ?module_local_atexit_table_initialized@@3_NA 1002ac79     LIBCMT:utility.obj
 0003:00000c7c       ?module_local_atexit_table@@3U_onexit_table_t@@A 1002ac7c     LIBCMT:utility.obj
 0003:00000c88       ?module_local_at_quick_exit_table@@3U_onexit_table_t@@A 1002ac88     LIBCMT:utility.obj
 0003:00000c94       ?g_tss_cv@@3U_RTL_CONDITION_VARIABLE@@A 1002ac94     LIBCMT:thread_safe_statics.obj
 0003:00000c98       ?g_tss_event@@3PAXA        1002ac98     LIBCMT:thread_safe_statics.obj
 0003:00000c9c       ?g_tss_mutex@@3U_RTL_CRITICAL_SECTION@@A 1002ac9c     LIBCMT:thread_safe_statics.obj
 0003:00000cb4       ?g_sleep_condition_variable_cs@@3P6GHPAU_RTL_CONDITION_VARIABLE@@PAU_RTL_CRITICAL_SECTION@@K@ZA 1002acb4     LIBCMT:thread_safe_statics.obj
 0003:00000cb8       ?g_wake_all_condition_variable@@3P6GXPAU_RTL_CONDITION_VARIABLE@@@ZA 1002acb8     LIBCMT:thread_safe_statics.obj
 0003:00000cc0       _GS_ExceptionRecord        1002acc0     LIBCMT:gs_report.obj
 0003:00000d10       _GS_ContextRecord          1002ad10     LIBCMT:gs_report.obj
 0003:00000fe0       ?__proc_attached@@3HA      1002afe0     LIBCMT:dll_dllmain.obj
 0003:00001044       ?AllocateData@@3P6GPAUAtlThunkData_t@@XZA 1002b044     atls:atlthunk.obj
 0003:00001048       ?InitData@@3P6GXPAUAtlThunkData_t@@PAXI@ZA 1002b048     atls:atlthunk.obj
 0003:0000104c       ?DataToCode@@3P6GP6GJPAUHWND__@@IIJ@ZPAUAtlThunkData_t@@@ZA 1002b04c     atls:atlthunk.obj
 0003:00001050       ?FreeData@@3P6GXPAUAtlThunkData_t@@@ZA 1002b050     atls:atlthunk.obj
 0003:00001054       ?Initialized@@3_NA         1002b054     atls:atlthunk.obj
 0003:00001064       ?__vcrt_startup_thread_ptd@@3U__vcrt_ptd@@A 1002b064     libvcruntime:per_thread_data.obj
 0003:0000108c       ___vcrt_lock_table         1002b08c     libvcruntime:locks.obj
 0003:000010a4       ___vcrt_locks_initialized  1002b0a4     libvcruntime:locks.obj
 0003:000010d0       ?heap@@3V_HeapManager@@A   1002b0d0     libvcruntime:undname.obj
 0003:000010e4       ?module_handles@@3PAPAUHINSTANCE__@@A 1002b0e4     libvcruntime:winapi_downlevel.obj
 0003:000010f0       ?function_pointers@@3PAPAXA 1002b0f0     libvcruntime:winapi_downlevel.obj
 0003:00001104       ?__acrt_invalid_parameter_handler@@3V?$dual_state_global@P6AXPB_W00II@Z@__crt_state_management@@A 1002b104     libucrt:invalid_parameter.obj
 0003:00001108       ?c_termination_complete@@3JA 1002b108     libucrt:exit.obj
 0003:0000110c       ?thread_local_exit_callback_func@@3P6GXPAXK0@ZA 1002b10c     libucrt:exit.obj
 0003:00001118       ?program_name@?1???$common_configure_argv@D@@YAHW4_crt_argv_mode@@@Z@4PADA 1002b118     libucrt:argv_parsing.obj
 0003:00001248       ?__acrt_new_handler@@3V?$dual_state_global@P6AHI@Z@__crt_state_management@@A 1002b248     libucrt:new_handler.obj
 0003:00001250       ?module_handles@@3PAPAUHINSTANCE__@@A 1002b250     libucrt:winapi_thunks.obj
 0003:000012a0       ?encoded_function_pointers@@3PAPAXA 1002b2a0     libucrt:winapi_thunks.obj
 0003:00001328       ?internal_state@?1??_mbtowc_l@@9@4U_Mbstatet@@A 1002b328     libucrt:mbtowc.obj
 0003:00001338       ?enable_percent_n@@3IA     1002b338     libucrt:printf_count_output.obj
 0003:00001558       ?__acrt_lock_table@@3PAU_RTL_CRITICAL_SECTION@@A 1002b558     libucrt:locks.obj
 0003:000016a8       ?__acrt_locks_initialized@@3IA 1002b6a8     libucrt:locks.obj
 0003:000016b8       ?fSystemSet@@3HA           1002b6b8     libucrt:mbctype.obj
 0003:000016bc       ?initialized@?1??__acrt_initialize_multibyte@@9@4_NA 1002b6bc     libucrt:mbctype.obj
 0003:000016dc       ?ctrlc_action@@3V?$dual_state_global@P6AXH@Z@__crt_state_management@@A 1002b6dc     libucrt:signal.obj
 0003:000016e0       ?ctrlbreak_action@@3V?$dual_state_global@P6AXH@Z@__crt_state_management@@A 1002b6e0     libucrt:signal.obj
 0003:000016e4       ?abort_action@@3V?$dual_state_global@P6AXH@Z@__crt_state_management@@A 1002b6e4     libucrt:signal.obj
 0003:000016e8       ?term_action@@3V?$dual_state_global@P6AXH@Z@__crt_state_management@@A 1002b6e8     libucrt:signal.obj
 0003:000016ec       ?user_matherr@@3V?$dual_state_global@P6AHPAU_exception@@@Z@__crt_state_management@@A 1002b6ec     libucrt:matherr.obj
 0003:000016f0       ?__acrt_global_new_mode@@3V?$dual_state_global@J@__crt_state_management@@A 1002b6f0     libucrt:new_mode.obj
 0003:000016fc       ?internal_pst@?1??__mbrtoc32_utf8@__crt_mbstring@@YAIPA_UPBDIPAU_Mbstatet@@@Z@4U3@A 1002b6fc     libucrt:mbrtoc32.obj
 0003:00001704       ?__acrt_app_type@@3W4_crt_app_type@@A 1002b704     libucrt:report_runtime_error.obj
 0003:0000170c       __pmatherr_set             1002b70c     libucrt:libm_error.obj
 0004:00000220       $R000000                   1002c220     RemoteOrderDisplay.res
 0004:00000be8       $R0009C8                   1002cbe8     RemoteOrderDisplay.res
 0004:00000cd0       $R000AB0                   1002ccd0     RemoteOrderDisplay.res
 0004:00000f38       $R000D18                   1002cf38     RemoteOrderDisplay.res
 0004:000014e0       $R0012C0                   1002d4e0     RemoteOrderDisplay.res
 0004:00005708       $R0054E8                   10031708     RemoteOrderDisplay.res
 0004:00005750       $R005530                   10031750     RemoteOrderDisplay.res
