 OPOSPointCardRW

 Timestamp is 600f79bb (Tue Jan 26 11:08:59 2021)

 Preferred load address is 10000000

 Start         Length     Name                   Class
 0001:00000000 00000080H .text$di                CODE
 0001:00000080 0001eb73H .text$mn                CODE
 0001:0001ebf3 0000003aH .text$x                 CODE
 0001:0001ec2d 00000042H .text$yd                CODE
 0002:00000000 000002fcH .idata$5                DATA
 0002:000002fc 00000004H .00cfg                  DATA
 0002:00000300 00000004H .CRT$XCA                DATA
 0002:00000304 00000004H .CRT$XCL                DATA
 0002:00000308 00000010H .CRT$XCU                DATA
 0002:00000318 00000004H .CRT$XCZ                DATA
 0002:0000031c 00000004H .CRT$XIA                DATA
 0002:00000320 00000010H .CRT$XIC                DATA
 0002:00000330 00000004H .CRT$XIZ                DATA
 0002:00000334 00000004H .CRT$XLA                DATA
 0002:00000338 00000004H .CRT$XLZ                DATA
 0002:0000033c 00000004H .CRT$XPA                DATA
 0002:00000340 00000008H .CRT$XPX                DATA
 0002:00000348 00000004H .CRT$XPXA               DATA
 0002:0000034c 00000004H .CRT$XPZ                DATA
 0002:00000350 00000004H .CRT$XTA                DATA
 0002:00000354 0000000cH .CRT$XTZ                DATA
 0002:00000358 00000000H .gfids$y                DATA
 0002:00000360 00007560H .rdata                  DATA
 0002:000078c0 00000000H .rdata$CastGuardVftablesA DATA
 0002:000078c0 00000000H .rdata$CastGuardVftablesC DATA
 0002:000078c0 00000018H .rdata$T                DATA
 0002:000078d8 00000178H .rdata$r                DATA
 0002:00007a50 0000001cH .rdata$sxdata           DATA
 0002:00007a6c 000003e0H .rdata$zzzdbg           DATA
 0002:00007e4c 00000004H .rtc$IAA                DATA
 0002:00007e50 00000004H .rtc$IZZ                DATA
 0002:00007e54 00000004H .rtc$TAA                DATA
 0002:00007e58 00000004H .rtc$TZZ                DATA
 0002:00007e5c 00000004H .tls                    DATA
 0002:00007e60 00000004H .tls$                   DATA
 0002:00007e64 00000004H .tls$ZZZ                DATA
 0002:00007e68 0000062cH .xdata$x                DATA
 0002:00008494 00000004H ATL$__a                 DATA
 0002:00008498 00000008H ATL$__z                 DATA
 0002:000084a0 000000acH .edata                  DATA
 0002:0000854c 00000078H .idata$2                DATA
 0002:000085c4 00000014H .idata$3                DATA
 0002:000085d8 000002fcH .idata$4                DATA
 0002:000088d4 00000bceH .idata$6                DATA
 0003:00000000 00000ad0H .data                   DATA
 0003:00000ad0 00000098H .data$r                 DATA
 0003:00000b68 00000b88H .bss                    DATA
 0004:00000000 00000220H .rsrc$01                DATA
 0004:00000220 00005df0H .rsrc$02                DATA

  Address         Publics by Value              Rva+Base       Lib:Object

 0000:00000000       ___arm64x_native_entrypoint 00000000     <absolute>
 0000:00000000       ___guard_longjmp_table     00000000     <absolute>
 0000:00000000       ___volatile_metadata       00000000     <absolute>
 0000:00000000       ___arm64x_extra_rfe_table  00000000     <absolute>
 0000:00000000       ___arm64x_redirection_metadata 00000000     <absolute>
 0000:00000000       ___guard_eh_cont_table     00000000     <absolute>
 0000:00000000       ___guard_eh_cont_count     00000000     <absolute>
 0000:00000000       ___guard_iat_count         00000000     <absolute>
 0000:00000000       __except_list              00000000     <absolute>
 0000:00000000       ___hybrid_code_map_count   00000000     <absolute>
 0000:00000000       ___x64_code_ranges_to_entry_points_count 00000000     <absolute>
 0000:00000000       ___x64_code_ranges_to_entry_points 00000000     <absolute>
 0000:00000000       ___guard_fids_count        00000000     <absolute>
 0000:00000000       ___guard_iat_table         00000000     <absolute>
 0000:00000000       ___hybrid_code_map         00000000     <absolute>
 0000:00000000       ___arm64x_extra_rfe_table_size 00000000     <absolute>
 0000:00000000       ___guard_longjmp_count     00000000     <absolute>
 0000:00000000       ___arm64x_redirection_metadata_count 00000000     <absolute>
 0000:00000000       ___hybrid_auxiliary_iat    00000000     <absolute>
 0000:00000000       ___dynamic_value_reloc_table 00000000     <absolute>
 0000:00000000       ___AbsoluteZero            00000000     <absolute>
 0000:00000000       ___enclave_config          00000000     <absolute>
 0000:00000000       ___guard_fids_table        00000000     <absolute>
 0000:00000007       ___safe_se_handler_count   00000007     <absolute>
 0000:0000002c       __tls_array                0000002c     <absolute>
 0000:00000100       ___guard_flags             00000100     <absolute>
 0000:00000000       ___ImageBase               10000000     <linker-defined>
 0001:00000080       ?DupWide@_CW@@AAEXXZ       10001080 f   CWString.obj
 0001:0000009c       ?cw_dup@@YGXPBDAAHAAPA_W1@Z 1000109c f   CWString.obj
 0001:00000124       ?cw_memcpy@@YGHPA_WPBDH@Z  10001124 f   CWString.obj
 0001:00000150       ?cw_strcpy@@YAHPA_WPBD@Z   10001150 f   CWString.obj
 0001:00000163       ?cw_strlen@@YAHPBD@Z       10001163 f   CWString.obj
 0001:0000017c       ??0CAtlComModule@ATL@@QAE@XZ 1000117c f i OposVariant.obj
 0001:000001c1       ??0CAtlWinModule@ATL@@QAE@XZ 100011c1 f i OposVariant.obj
 0001:000001f8       ??0OposDispParms@@QAE@PAVOposVariant@@H@Z 100011f8 f   OposVariant.obj
 0001:00000269       ??1OposDispParms@@QAE@XZ   10001269 f   OposVariant.obj
 0001:00000277       ??A?$CSimpleArray@GV?$CSimpleArrayEqualHelper@G@ATL@@@ATL@@QAEAAGH@Z 10001277 f i OposVariant.obj
 0001:0000029c       ??_Estringdispid@CComTypeInfoHolder@ATL@@QAEPAXI@Z 1000129c f i OposVariant.obj
 0001:00000308       ?AtlWinModuleInit@ATL@@YGJPAU_ATL_WIN_MODULE70@1@@Z 10001308 f i OposVariant.obj
 0001:0000032e       ?AtlWinModuleTerm@ATL@@YGJPAU_ATL_WIN_MODULE70@1@PAUHINSTANCE__@@@Z 1000132e f i OposVariant.obj
 0001:00000391       ?ChangeBSTR@OposVariant@@QAEXPAPA_WAAJ@Z 10001391 f   OposVariant.obj
 0001:000003d2       ?ChangeLONG@OposVariant@@QAEXPAJAAJ@Z 100013d2 f   OposVariant.obj
 0001:00000413       ?GetLONG@OposVariant@@QAEJXZ 10001413 f   OposVariant.obj
 0001:0000042e       ?Init@CComCriticalSection@ATL@@QAEJXZ 1000142e f i OposVariant.obj
 0001:00000456       ?RemoveAll@?$CSimpleArray@GV?$CSimpleArrayEqualHelper@G@ATL@@@ATL@@QAEXXZ 10001456 f i OposVariant.obj
 0001:00000456       ?RemoveAll@?$CSimpleArray@PAUHINSTANCE__@@V?$CSimpleArrayEqualHelper@PAUHINSTANCE__@@@ATL@@@ATL@@QAEXXZ 10001456 f i atls:atlbase.obj
 0001:00000473       ?SetBSTR@OposVariant@@QAEXPA_WAAJ@Z 10001473 f   OposVariant.obj
 0001:000004a7       ?SetBSTR_Copy@OposVariant@@QAEXPA_WAAJ@Z 100014a7 f   OposVariant.obj
 0001:000004f7       ?SetBSTR_InOutPtr@OposVariant@@QAE_NPAPA_WAAJ@Z 100014f7 f   OposVariant.obj
 0001:0000052e       ?SetDispatch_Ptr@OposVariant@@QAEXPAUIDispatch@@AAJ@Z 1000152e f   OposVariant.obj
 0001:00000569       ?SetLONG@OposVariant@@QAEXJ@Z 10001569 f   OposVariant.obj
 0001:0000058b       ?SetLONG_Ptr@OposVariant@@QAEXPAJAAJ@Z 1000158b f   OposVariant.obj
 0001:000005be       ?SetString@OposVariant@@QAEXPB_WAAJ@Z 100015be f   OposVariant.obj
 0001:00000604       ?SetVARIANT_BOOL@OposVariant@@QAEXF@Z 10001604 f   OposVariant.obj
 0001:0000062e       ?Term@CAtlComModule@ATL@@QAEXXZ 1000162e f i OposVariant.obj
 0001:00000678       ?_AtlRaiseException@ATL@@YAXKK@Z 10001678 f i OposVariant.obj
 0001:0000068d       ?CreateInstance@CComClassFactory@ATL@@UAGJPAUIUnknown@@ABU_GUID@@PAPAX@Z 1000168d f i PointCardRW.obj
 0001:000006cb       ?LockServer@CComClassFactory@ATL@@UAGJH@Z 100016cb f i PointCardRW.obj
 0001:000006ea       ??_ECComClassFactory@ATL@@UAEPAXI@Z 100016ea f i PointCardRW.obj
 0001:000006ea       ??_GCComClassFactory@ATL@@UAEPAXI@Z 100016ea f i PointCardRW.obj
 0001:00000715       ??_E?$CComObject@VCOPOSPointCardRW@@@ATL@@W3AEPAXI@Z 10001715 f i PointCardRW.obj
 0001:0000071d       ??_E?$CComObject@VCOPOSPointCardRW@@@ATL@@WEM@AEPAXI@Z 1000171d f i PointCardRW.obj
 0001:00000725       ?QueryInterface@?$CComObject@VCOPOSPointCardRW@@@ATL@@WHA@AGJABU_GUID@@PAPAX@Z 10001725 f i PointCardRW.obj
 0001:0000072f       ?AddRef@?$CComObject@VCOPOSPointCardRW@@@ATL@@WHA@AGKXZ 1000172f f i PointCardRW.obj
 0001:00000739       ?Release@?$CComObject@VCOPOSPointCardRW@@@ATL@@WHA@AGKXZ 10001739 f i PointCardRW.obj
 0001:00000743       ?QueryInterface@?$CComObject@VCOPOSPointCardRW@@@ATL@@WHE@AGJABU_GUID@@PAPAX@Z 10001743 f i PointCardRW.obj
 0001:0000074d       ?AddRef@?$CComObject@VCOPOSPointCardRW@@@ATL@@WHE@AGKXZ 1000174d f i PointCardRW.obj
 0001:00000757       ?Release@?$CComObject@VCOPOSPointCardRW@@@ATL@@WHE@AGKXZ 10001757 f i PointCardRW.obj
 0001:00000761       ?QueryInterface@?$CComObject@VCOPOSPointCardRW@@@ATL@@WHI@AGJABU_GUID@@PAPAX@Z 10001761 f i PointCardRW.obj
 0001:0000076b       ?AddRef@?$CComObject@VCOPOSPointCardRW@@@ATL@@WHI@AGKXZ 1000176b f i PointCardRW.obj
 0001:00000775       ?Release@?$CComObject@VCOPOSPointCardRW@@@ATL@@WHI@AGKXZ 10001775 f i PointCardRW.obj
 0001:0000077f       ?QueryInterface@?$CComObject@VCOPOSPointCardRW@@@ATL@@WHM@AGJABU_GUID@@PAPAX@Z 1000177f f i PointCardRW.obj
 0001:00000789       ?AddRef@?$CComObject@VCOPOSPointCardRW@@@ATL@@WHM@AGKXZ 10001789 f i PointCardRW.obj
 0001:00000793       ?Release@?$CComObject@VCOPOSPointCardRW@@@ATL@@WHM@AGKXZ 10001793 f i PointCardRW.obj
 0001:0000079d       ?QueryInterface@?$CComObject@VCOPOSPointCardRW@@@ATL@@WIA@AGJABU_GUID@@PAPAX@Z 1000179d f i PointCardRW.obj
 0001:000007aa       ?AddRef@?$CComObject@VCOPOSPointCardRW@@@ATL@@WIA@AGKXZ 100017aa f i PointCardRW.obj
 0001:000007b7       ?Release@?$CComObject@VCOPOSPointCardRW@@@ATL@@WIA@AGKXZ 100017b7 f i PointCardRW.obj
 0001:000007c4       ?QueryInterface@?$CComObject@VCOPOSPointCardRW@@@ATL@@WIE@AGJABU_GUID@@PAPAX@Z 100017c4 f i PointCardRW.obj
 0001:000007d1       ?AddRef@?$CComObject@VCOPOSPointCardRW@@@ATL@@WIE@AGKXZ 100017d1 f i PointCardRW.obj
 0001:000007de       ?Release@?$CComObject@VCOPOSPointCardRW@@@ATL@@WIE@AGKXZ 100017de f i PointCardRW.obj
 0001:000007eb       ?QueryInterface@?$CComObject@VCOPOSPointCardRW@@@ATL@@WII@AGJABU_GUID@@PAPAX@Z 100017eb f i PointCardRW.obj
 0001:000007f8       ?AddRef@?$CComObject@VCOPOSPointCardRW@@@ATL@@WII@AGKXZ 100017f8 f i PointCardRW.obj
 0001:00000805       ?Release@?$CComObject@VCOPOSPointCardRW@@@ATL@@WII@AGKXZ 10001805 f i PointCardRW.obj
 0001:00000812       ?QueryInterface@?$CComObject@VCOPOSPointCardRW@@@ATL@@WIM@AGJABU_GUID@@PAPAX@Z 10001812 f i PointCardRW.obj
 0001:0000081f       ?AddRef@?$CComObject@VCOPOSPointCardRW@@@ATL@@WIM@AGKXZ 1000181f f i PointCardRW.obj
 0001:0000082c       ?Release@?$CComObject@VCOPOSPointCardRW@@@ATL@@WIM@AGKXZ 1000182c f i PointCardRW.obj
 0001:00000839       ?QueryInterface@?$CComObject@VCOPOSPointCardRW@@@ATL@@WJA@AGJABU_GUID@@PAPAX@Z 10001839 f i PointCardRW.obj
 0001:00000846       ?AddRef@?$CComObject@VCOPOSPointCardRW@@@ATL@@WJA@AGKXZ 10001846 f i PointCardRW.obj
 0001:00000853       ?Release@?$CComObject@VCOPOSPointCardRW@@@ATL@@WJA@AGKXZ 10001853 f i PointCardRW.obj
 0001:00000860       ?QueryInterface@?$CComObject@VCOPOSPointCardRW@@@ATL@@WJE@AGJABU_GUID@@PAPAX@Z 10001860 f i PointCardRW.obj
 0001:0000086d       ?AddRef@?$CComObject@VCOPOSPointCardRW@@@ATL@@WJE@AGKXZ 1000186d f i PointCardRW.obj
 0001:0000087a       ?Release@?$CComObject@VCOPOSPointCardRW@@@ATL@@WJE@AGKXZ 1000187a f i PointCardRW.obj
 0001:00000887       ?QueryInterface@?$CComObject@VCOPOSPointCardRW@@@ATL@@WJI@AGJABU_GUID@@PAPAX@Z 10001887 f i PointCardRW.obj
 0001:00000894       ?AddRef@?$CComObject@VCOPOSPointCardRW@@@ATL@@WJI@AGKXZ 10001894 f i PointCardRW.obj
 0001:000008a1       ?Release@?$CComObject@VCOPOSPointCardRW@@@ATL@@WJI@AGKXZ 100018a1 f i PointCardRW.obj
 0001:000008ae       ?QueryInterface@?$CComObject@VCOPOSPointCardRW@@@ATL@@WJM@AGJABU_GUID@@PAPAX@Z 100018ae f i PointCardRW.obj
 0001:000008bb       ?AddRef@?$CComObject@VCOPOSPointCardRW@@@ATL@@WJM@AGKXZ 100018bb f i PointCardRW.obj
 0001:000008c8       ?Release@?$CComObject@VCOPOSPointCardRW@@@ATL@@WJM@AGKXZ 100018c8 f i PointCardRW.obj
 0001:000008d5       ?QueryInterface@?$CComObject@VCOPOSPointCardRW@@@ATL@@WKA@AGJABU_GUID@@PAPAX@Z 100018d5 f i PointCardRW.obj
 0001:000008e2       ?AddRef@?$CComObject@VCOPOSPointCardRW@@@ATL@@WKA@AGKXZ 100018e2 f i PointCardRW.obj
 0001:000008ef       ?Release@?$CComObject@VCOPOSPointCardRW@@@ATL@@WKA@AGKXZ 100018ef f i PointCardRW.obj
 0001:000008fc       ?AddRef@?$CComObject@VCOPOSPointCardRW@@@ATL@@WKI@AGKXZ 100018fc f i PointCardRW.obj
 0001:00000909       ?Release@?$CComObject@VCOPOSPointCardRW@@@ATL@@WKI@AGKXZ 10001909 f i PointCardRW.obj
 0001:00000916       ?AddRef@?$CComObject@VCOPOSPointCardRW@@@ATL@@WLE@AGKXZ 10001916 f i PointCardRW.obj
 0001:00000923       ?Release@?$CComObject@VCOPOSPointCardRW@@@ATL@@WLE@AGKXZ 10001923 f i PointCardRW.obj
 0001:00000930       ??_E?$CComContainedObject@VCOPOSPointCardRW@@@ATL@@W3AEPAXI@Z 10001930 f i PointCardRW.obj
 0001:00000938       ??_E?$CComContainedObject@VCOPOSPointCardRW@@@ATL@@WEM@AEPAXI@Z 10001938 f i PointCardRW.obj
 0001:00000940       ?QueryInterface@?$CComContainedObject@VCOPOSPointCardRW@@@ATL@@WHA@AGJABU_GUID@@PAPAX@Z 10001940 f i PointCardRW.obj
 0001:0000094a       ?AddRef@?$CComContainedObject@VCOPOSPointCardRW@@@ATL@@WHA@AGKXZ 1000194a f i PointCardRW.obj
 0001:00000954       ?Release@?$CComContainedObject@VCOPOSPointCardRW@@@ATL@@WHA@AGKXZ 10001954 f i PointCardRW.obj
 0001:0000095e       ?QueryInterface@?$CComContainedObject@VCOPOSPointCardRW@@@ATL@@WHE@AGJABU_GUID@@PAPAX@Z 1000195e f i PointCardRW.obj
 0001:00000968       ?AddRef@?$CComContainedObject@VCOPOSPointCardRW@@@ATL@@WHE@AGKXZ 10001968 f i PointCardRW.obj
 0001:00000972       ?Release@?$CComContainedObject@VCOPOSPointCardRW@@@ATL@@WHE@AGKXZ 10001972 f i PointCardRW.obj
 0001:0000097c       ?QueryInterface@?$CComContainedObject@VCOPOSPointCardRW@@@ATL@@WHI@AGJABU_GUID@@PAPAX@Z 1000197c f i PointCardRW.obj
 0001:00000986       ?AddRef@?$CComContainedObject@VCOPOSPointCardRW@@@ATL@@WHI@AGKXZ 10001986 f i PointCardRW.obj
 0001:00000990       ?Release@?$CComContainedObject@VCOPOSPointCardRW@@@ATL@@WHI@AGKXZ 10001990 f i PointCardRW.obj
 0001:0000099a       ?QueryInterface@?$CComContainedObject@VCOPOSPointCardRW@@@ATL@@WHM@AGJABU_GUID@@PAPAX@Z 1000199a f i PointCardRW.obj
 0001:000009a4       ?AddRef@?$CComContainedObject@VCOPOSPointCardRW@@@ATL@@WHM@AGKXZ 100019a4 f i PointCardRW.obj
 0001:000009ae       ?Release@?$CComContainedObject@VCOPOSPointCardRW@@@ATL@@WHM@AGKXZ 100019ae f i PointCardRW.obj
 0001:000009b8       ?QueryInterface@?$CComContainedObject@VCOPOSPointCardRW@@@ATL@@WIA@AGJABU_GUID@@PAPAX@Z 100019b8 f i PointCardRW.obj
 0001:000009c5       ?AddRef@?$CComContainedObject@VCOPOSPointCardRW@@@ATL@@WIA@AGKXZ 100019c5 f i PointCardRW.obj
 0001:000009d2       ?Release@?$CComContainedObject@VCOPOSPointCardRW@@@ATL@@WIA@AGKXZ 100019d2 f i PointCardRW.obj
 0001:000009df       ?QueryInterface@?$CComContainedObject@VCOPOSPointCardRW@@@ATL@@WIE@AGJABU_GUID@@PAPAX@Z 100019df f i PointCardRW.obj
 0001:000009ec       ?AddRef@?$CComContainedObject@VCOPOSPointCardRW@@@ATL@@WIE@AGKXZ 100019ec f i PointCardRW.obj
 0001:000009f9       ?Release@?$CComContainedObject@VCOPOSPointCardRW@@@ATL@@WIE@AGKXZ 100019f9 f i PointCardRW.obj
 0001:00000a06       ?QueryInterface@?$CComContainedObject@VCOPOSPointCardRW@@@ATL@@WII@AGJABU_GUID@@PAPAX@Z 10001a06 f i PointCardRW.obj
 0001:00000a13       ?AddRef@?$CComContainedObject@VCOPOSPointCardRW@@@ATL@@WII@AGKXZ 10001a13 f i PointCardRW.obj
 0001:00000a20       ?Release@?$CComContainedObject@VCOPOSPointCardRW@@@ATL@@WII@AGKXZ 10001a20 f i PointCardRW.obj
 0001:00000a2d       ?QueryInterface@?$CComContainedObject@VCOPOSPointCardRW@@@ATL@@WIM@AGJABU_GUID@@PAPAX@Z 10001a2d f i PointCardRW.obj
 0001:00000a3a       ?AddRef@?$CComContainedObject@VCOPOSPointCardRW@@@ATL@@WIM@AGKXZ 10001a3a f i PointCardRW.obj
 0001:00000a47       ?Release@?$CComContainedObject@VCOPOSPointCardRW@@@ATL@@WIM@AGKXZ 10001a47 f i PointCardRW.obj
 0001:00000a54       ?QueryInterface@?$CComContainedObject@VCOPOSPointCardRW@@@ATL@@WJA@AGJABU_GUID@@PAPAX@Z 10001a54 f i PointCardRW.obj
 0001:00000a61       ?AddRef@?$CComContainedObject@VCOPOSPointCardRW@@@ATL@@WJA@AGKXZ 10001a61 f i PointCardRW.obj
 0001:00000a6e       ?Release@?$CComContainedObject@VCOPOSPointCardRW@@@ATL@@WJA@AGKXZ 10001a6e f i PointCardRW.obj
 0001:00000a7b       ?QueryInterface@?$CComContainedObject@VCOPOSPointCardRW@@@ATL@@WJE@AGJABU_GUID@@PAPAX@Z 10001a7b f i PointCardRW.obj
 0001:00000a88       ?AddRef@?$CComContainedObject@VCOPOSPointCardRW@@@ATL@@WJE@AGKXZ 10001a88 f i PointCardRW.obj
 0001:00000a95       ?Release@?$CComContainedObject@VCOPOSPointCardRW@@@ATL@@WJE@AGKXZ 10001a95 f i PointCardRW.obj
 0001:00000aa2       ?QueryInterface@?$CComContainedObject@VCOPOSPointCardRW@@@ATL@@WJI@AGJABU_GUID@@PAPAX@Z 10001aa2 f i PointCardRW.obj
 0001:00000aaf       ?AddRef@?$CComContainedObject@VCOPOSPointCardRW@@@ATL@@WJI@AGKXZ 10001aaf f i PointCardRW.obj
 0001:00000abc       ?Release@?$CComContainedObject@VCOPOSPointCardRW@@@ATL@@WJI@AGKXZ 10001abc f i PointCardRW.obj
 0001:00000ac9       ?QueryInterface@?$CComContainedObject@VCOPOSPointCardRW@@@ATL@@WJM@AGJABU_GUID@@PAPAX@Z 10001ac9 f i PointCardRW.obj
 0001:00000ad6       ?AddRef@?$CComContainedObject@VCOPOSPointCardRW@@@ATL@@WJM@AGKXZ 10001ad6 f i PointCardRW.obj
 0001:00000ae3       ?Release@?$CComContainedObject@VCOPOSPointCardRW@@@ATL@@WJM@AGKXZ 10001ae3 f i PointCardRW.obj
 0001:00000af0       ?QueryInterface@?$CComContainedObject@VCOPOSPointCardRW@@@ATL@@WKA@AGJABU_GUID@@PAPAX@Z 10001af0 f i PointCardRW.obj
 0001:00000afd       ?AddRef@?$CComContainedObject@VCOPOSPointCardRW@@@ATL@@WKA@AGKXZ 10001afd f i PointCardRW.obj
 0001:00000b0a       ?Release@?$CComContainedObject@VCOPOSPointCardRW@@@ATL@@WKA@AGKXZ 10001b0a f i PointCardRW.obj
 0001:00000b17       ?AddRef@?$CComContainedObject@VCOPOSPointCardRW@@@ATL@@WKI@AGKXZ 10001b17 f i PointCardRW.obj
 0001:00000b24       ?Release@?$CComContainedObject@VCOPOSPointCardRW@@@ATL@@WKI@AGKXZ 10001b24 f i PointCardRW.obj
 0001:00000b31       ?AddRef@?$CComContainedObject@VCOPOSPointCardRW@@@ATL@@WLE@AGKXZ 10001b31 f i PointCardRW.obj
 0001:00000b3e       ?Release@?$CComContainedObject@VCOPOSPointCardRW@@@ATL@@WLE@AGKXZ 10001b3e f i PointCardRW.obj
 0001:00000b4b       ?GetWindowProc@?$CWindowImplBaseT@VCWindow@ATL@@V?$CWinTraits@$0FGAAAAAA@$0A@@2@@ATL@@UAEP6GJPAUHWND__@@IIJ@ZXZ 10001b4b f i PointCardRW.obj
 0001:00000b51       ?StartWindowProc@?$CWindowImplBaseT@VCWindow@ATL@@V?$CWinTraits@$0FGAAAAAA@$0A@@2@@ATL@@SGJPAUHWND__@@IIJ@Z 10001b51 f i PointCardRW.obj
 0001:00000ba5       ?OnFinalMessage@?$CWindowImplBaseT@VCWindow@ATL@@V?$CWinTraits@$0FGAAAAAA@$0A@@2@@ATL@@UAEXPAUHWND__@@@Z 10001ba5 f i PointCardRW.obj
 0001:00000ba5       ?ObjectMain@CComObjectRootBase@ATL@@SGX_N@Z 10001ba5 f i PointCardRW.obj
 0001:00000ba8       ?GetTypeInfoCount@?$IDispatchImpl@UIOPOSPointCardRW@@$1?IID_IOPOSPointCardRW@@3U_GUID@@B$1?LIBID_OposPointCardRW_CCO@@3U3@B$00$0A@VCComTypeInfoHolder@ATL@@@ATL@@UAGJPAI@Z 10001ba8 f i PointCardRW.obj
 0001:00000bc5       ?GetTypeInfo@?$IDispatchImpl@UIOPOSPointCardRW@@$1?IID_IOPOSPointCardRW@@3U_GUID@@B$1?LIBID_OposPointCardRW_CCO@@3U3@B$00$0A@VCComTypeInfoHolder@ATL@@@ATL@@UAGJIKPAPAUITypeInfo@@@Z 10001bc5 f i PointCardRW.obj
 0001:00000be9       ?GetIDsOfNames@?$IDispatchImpl@UIOPOSPointCardRW@@$1?IID_IOPOSPointCardRW@@3U_GUID@@B$1?LIBID_OposPointCardRW_CCO@@3U3@B$00$0A@VCComTypeInfoHolder@ATL@@@ATL@@UAGJABU_GUID@@PAPA_WIKPAJ@Z 10001be9 f i PointCardRW.obj
 0001:00000c09       ?Invoke@?$IDispatchImpl@UIOPOSPointCardRW@@$1?IID_IOPOSPointCardRW@@3U_GUID@@B$1?LIBID_OposPointCardRW_CCO@@3U3@B$00$0A@VCComTypeInfoHolder@ATL@@@ATL@@UAGJJABU_GUID@@KGPAUtagDISPPARAMS@@PAUtagVARIANT@@PAUtagEXCEPINFO@@PAI@Z 10001c09 f i PointCardRW.obj
 0001:00000c17       ?CreateControlWindow@?$CComControl@VCOPOSPointCardRW@@V?$CWindowImpl@VCOPOSPointCardRW@@VCWindow@ATL@@V?$CWinTraits@$0FGAAAAAA@$0A@@3@@ATL@@@ATL@@UAEPAUHWND__@@PAU3@AAUtagRECT@@@Z 10001c17 f i PointCardRW.obj
 0001:00000c46       ?ControlQueryInterface@?$CComControl@VCOPOSPointCardRW@@V?$CWindowImpl@VCOPOSPointCardRW@@VCWindow@ATL@@V?$CWinTraits@$0FGAAAAAA@$0A@@3@@ATL@@@ATL@@UAEJABU_GUID@@PAPAX@Z 10001c46 f i PointCardRW.obj
 0001:00000c61       ?GetClassID@?$IPersistStorageImpl@VCOPOSPointCardRW@@@ATL@@UAGJPAU_GUID@@@Z 10001c61 f i PointCardRW.obj
 0001:00000c61       ?GetClassID@?$IPersistStreamInitImpl@VCOPOSPointCardRW@@@ATL@@UAGJPAU_GUID@@@Z 10001c61 f i PointCardRW.obj
 0001:00000c61       ?GetUserClassID@?$IOleObjectImpl@VCOPOSPointCardRW@@@ATL@@UAGJPAU_GUID@@@Z 10001c61 f i PointCardRW.obj
 0001:00000c85       ?IsDirty@?$IPersistStreamInitImpl@VCOPOSPointCardRW@@@ATL@@UAGJXZ 10001c85 f i PointCardRW.obj
 0001:00000ca4       ?Load@?$IPersistStreamInitImpl@VCOPOSPointCardRW@@@ATL@@UAGJPAUIStream@@@Z 10001ca4 f i PointCardRW.obj
 0001:00000cc3       ?Save@?$IPersistStreamInitImpl@VCOPOSPointCardRW@@@ATL@@UAGJPAUIStream@@H@Z 10001cc3 f i PointCardRW.obj
 0001:00000ce5       ?GetSizeMax@?$IPersistStreamInitImpl@VCOPOSPointCardRW@@@ATL@@UAGJPAT_ULARGE_INTEGER@@@Z 10001ce5 f i PointCardRW.obj
 0001:00000ec4       ?InitNew@?$IPersistStreamInitImpl@VCOPOSPointCardRW@@@ATL@@UAGJXZ 10001ec4 f i PointCardRW.obj
 0001:00000ee1       ?GetDropTarget@?$IOleInPlaceObjectWindowlessImpl@VCOPOSPointCardRW@@@ATL@@UAGJPAPAUIDropTarget@@@Z 10001ee1 f i PointCardRW.obj
 0001:00000ee1       ?SetColorScheme@?$IOleObjectImpl@VCOPOSPointCardRW@@@ATL@@UAGJPAUtagLOGPALETTE@@@Z 10001ee1 f i PointCardRW.obj
 0001:00000ee1       ?OnMnemonic@?$IOleControlImpl@VCOPOSPointCardRW@@@ATL@@UAGJPAUtagMSG@@@Z 10001ee1 f i PointCardRW.obj
 0001:00000ee1       ?Unfreeze@?$IViewObjectExImpl@VCOPOSPointCardRW@@@ATL@@UAGJK@Z 10001ee1 f i PointCardRW.obj
 0001:00000ee1       ?ContextSensitiveHelp@?$IOleInPlaceActiveObjectImpl@VCOPOSPointCardRW@@@ATL@@UAGJH@Z 10001ee1 f i PointCardRW.obj
 0001:00000ee1       ?GetControlInfo@?$IOleControlImpl@VCOPOSPointCardRW@@@ATL@@UAGJPAUtagCONTROLINFO@@@Z 10001ee1 f i PointCardRW.obj
 0001:00000ee1       ?QueryGetData@?$IDataObjectImpl@VCOPOSPointCardRW@@@ATL@@UAGJPAUtagFORMATETC@@@Z 10001ee1 f i PointCardRW.obj
 0001:00000ee1       ?ContextSensitiveHelp@?$IOleInPlaceObjectWindowlessImpl@VCOPOSPointCardRW@@@ATL@@UAGJH@Z 10001ee1 f i PointCardRW.obj
 0001:00000ee9       ?OnFrameWindowActivate@?$IOleInPlaceActiveObjectImpl@VCOPOSPointCardRW@@@ATL@@UAGJH@Z 10001ee9 f i PointCardRW.obj
 0001:00000ee9       ?EnableModeless@?$IOleInPlaceActiveObjectImpl@VCOPOSPointCardRW@@@ATL@@UAGJH@Z 10001ee9 f i PointCardRW.obj
 0001:00000ee9       ?SaveCompleted@?$IPersistStorageImpl@VCOPOSPointCardRW@@@ATL@@UAGJPAUIStorage@@@Z 10001ee9 f i PointCardRW.obj
 0001:00000ee9       ?OnAmbientPropertyChange@?$IOleControlImpl@VCOPOSPointCardRW@@@ATL@@UAGJJ@Z 10001ee9 f i PointCardRW.obj
 0001:00000eee       ?SetClientSite@?$IOleObjectImpl@VCOPOSPointCardRW@@@ATL@@UAGJPAUIOleClientSite@@@Z 10001eee f i PointCardRW.obj
 0001:00000f0b       ?GetClientSite@?$IOleObjectImpl@VCOPOSPointCardRW@@@ATL@@UAGJPAPAUIOleClientSite@@@Z 10001f0b f i PointCardRW.obj
 0001:00000f28       ?SetHostNames@?$IOleObjectImpl@VCOPOSPointCardRW@@@ATL@@UAGJPB_W0@Z 10001f28 f i PointCardRW.obj
 0001:00000f2d       ?Close@?$IOleObjectImpl@VCOPOSPointCardRW@@@ATL@@UAGJK@Z 10001f2d f i PointCardRW.obj
 0001:00000f4a       ?QueryInterface@CRegObject@ATL@@UAGJABU_GUID@@PAPAX@Z 10001f4a f i PointCardRW.obj
 0001:00000f4a       ?GetClipboardData@?$IOleObjectImpl@VCOPOSPointCardRW@@@ATL@@UAGJKPAPAUIDataObject@@@Z 10001f4a f i PointCardRW.obj
 0001:00000f4a       ?GetCanonicalFormatEtc@?$IDataObjectImpl@VCOPOSPointCardRW@@@ATL@@UAGJPAUtagFORMATETC@@0@Z 10001f4a f i PointCardRW.obj
 0001:00000f4a       ?EnumFormatEtc@?$IDataObjectImpl@VCOPOSPointCardRW@@@ATL@@UAGJKPAPAUIEnumFORMATETC@@@Z 10001f4a f i PointCardRW.obj
 0001:00000f4a       ?GetRect@?$IViewObjectExImpl@VCOPOSPointCardRW@@@ATL@@UAGJKPAU_RECTL@@@Z 10001f4a f i PointCardRW.obj
 0001:00000f4a       ?GetDataHere@?$IDataObjectImpl@VCOPOSPointCardRW@@@ATL@@UAGJPAUtagFORMATETC@@PAUtagSTGMEDIUM@@@Z 10001f4a f i PointCardRW.obj
 0001:00000f4a       ?SetMoniker@?$IOleObjectImpl@VCOPOSPointCardRW@@@ATL@@UAGJKPAUIMoniker@@@Z 10001f4a f i PointCardRW.obj
 0001:00000f52       ?InitFromData@?$IOleObjectImpl@VCOPOSPointCardRW@@@ATL@@UAGJPAUIDataObject@@HK@Z 10001f52 f i PointCardRW.obj
 0001:00000f52       ?GetMoniker@?$IOleObjectImpl@VCOPOSPointCardRW@@@ATL@@UAGJKKPAPAUIMoniker@@@Z 10001f52 f i PointCardRW.obj
 0001:00000f52       ?SetData@?$IDataObjectImpl@VCOPOSPointCardRW@@@ATL@@UAGJPAUtagFORMATETC@@PAUtagSTGMEDIUM@@H@Z 10001f52 f i PointCardRW.obj
 0001:00000f5a       ?DoVerb@?$IOleObjectImpl@VCOPOSPointCardRW@@@ATL@@UAGJJPAUtagMSG@@PAUIOleClientSite@@JPAUHWND__@@PBUtagRECT@@@Z 10001f5a f i PointCardRW.obj
 0001:0000104e       ?EnumVerbs@?$IOleObjectImpl@VCOPOSPointCardRW@@@ATL@@UAGJPAPAUIEnumOLEVERB@@@Z 1000204e f i PointCardRW.obj
 0001:00001070       ?Update@?$IOleObjectImpl@VCOPOSPointCardRW@@@ATL@@UAGJXZ 10002070 f i PointCardRW.obj
 0001:00001070       ?IsUpToDate@?$IOleObjectImpl@VCOPOSPointCardRW@@@ATL@@UAGJXZ 10002070 f i PointCardRW.obj
 0001:00001070       ?Release@CRegObject@ATL@@UAGKXZ 10002070 f i PointCardRW.obj
 0001:00001070       ?HandsOffStorage@?$IPersistStorageImpl@VCOPOSPointCardRW@@@ATL@@UAGJXZ 10002070 f i PointCardRW.obj
 0001:00001075       ?GetUserType@?$IOleObjectImpl@VCOPOSPointCardRW@@@ATL@@UAGJKPAPA_W@Z 10002075 f i PointCardRW.obj
 0001:0000108d       ?SetExtent@?$IOleObjectImpl@VCOPOSPointCardRW@@@ATL@@UAGJKPAUtagSIZE@@@Z 1000208d f i PointCardRW.obj
 0001:000010ad       ?GetExtent@?$IOleObjectImpl@VCOPOSPointCardRW@@@ATL@@UAGJKPAUtagSIZE@@@Z 100020ad f i PointCardRW.obj
 0001:000010eb       ?Advise@?$IOleObjectImpl@VCOPOSPointCardRW@@@ATL@@UAGJPAUIAdviseSink@@PAK@Z 100020eb f i PointCardRW.obj
 0001:0000110b       ?Unadvise@?$IOleObjectImpl@VCOPOSPointCardRW@@@ATL@@UAGJK@Z 1000210b f i PointCardRW.obj
 0001:0000113a       ?EnumAdvise@?$IOleObjectImpl@VCOPOSPointCardRW@@@ATL@@UAGJPAPAUIEnumSTATDATA@@@Z 1000213a f i PointCardRW.obj
 0001:0000117a       ?GetMiscStatus@?$IOleObjectImpl@VCOPOSPointCardRW@@@ATL@@UAGJKPAK@Z 1000217a f i PointCardRW.obj
 0001:00001192       ?GetWindow@?$IOleInPlaceActiveObjectImpl@VCOPOSPointCardRW@@@ATL@@UAGJPAPAUHWND__@@@Z 10002192 f i PointCardRW.obj
 0001:000011df       ?TranslateAcceleratorW@?$IOleInPlaceActiveObjectImpl@VCOPOSPointCardRW@@@ATL@@UAGJPAUtagMSG@@@Z 100021df f i PointCardRW.obj
 0001:0000128d       ?OnDocWindowActivate@?$IOleInPlaceActiveObjectImpl@VCOPOSPointCardRW@@@ATL@@UAGJH@Z 1000228d f i PointCardRW.obj
 0001:000012af       ?ResizeBorder@?$IOleInPlaceActiveObjectImpl@VCOPOSPointCardRW@@@ATL@@UAGJPBUtagRECT@@PAUIOleInPlaceUIWindow@@H@Z 100022af f i PointCardRW.obj
 0001:000012b4       ?Draw@?$IViewObjectExImpl@VCOPOSPointCardRW@@@ATL@@UAGJKJPAXPAUtagDVTARGETDEVICE@@PAUHDC__@@2PBU_RECTL@@3P6GHK@ZK@Z 100022b4 f i PointCardRW.obj
 0001:000012e6       ?GetColorSet@?$IViewObjectExImpl@VCOPOSPointCardRW@@@ATL@@UAGJKJPAXPAUtagDVTARGETDEVICE@@PAUHDC__@@PAPAUtagLOGPALETTE@@@Z 100022e6 f i PointCardRW.obj
 0001:000012ee       ?Freeze@?$IViewObjectExImpl@VCOPOSPointCardRW@@@ATL@@UAGJKJPAXPAK@Z 100022ee f i PointCardRW.obj
 0001:000012f6       ?SetAdvise@?$IViewObjectExImpl@VCOPOSPointCardRW@@@ATL@@UAGJKKPAUIAdviseSink@@@Z 100022f6 f i PointCardRW.obj
 0001:00001315       ?GetAdvise@?$IViewObjectExImpl@VCOPOSPointCardRW@@@ATL@@UAGJPAK0PAPAUIAdviseSink@@@Z 10002315 f i PointCardRW.obj
 0001:0000134a       ?GetExtent@?$IViewObjectExImpl@VCOPOSPointCardRW@@@ATL@@UAGJKJPAUtagDVTARGETDEVICE@@PAUtagSIZE@@@Z 1000234a f i PointCardRW.obj
 0001:0000137b       ?GetViewStatus@?$IViewObjectExImpl@VCOPOSPointCardRW@@@ATL@@UAGJPAK@Z 1000237b f i PointCardRW.obj
 0001:00001398       ?QueryHitPoint@?$IViewObjectExImpl@VCOPOSPointCardRW@@@ATL@@UAGJKPBUtagRECT@@UtagPOINT@@JPAK@Z 10002398 f i PointCardRW.obj
 0001:000013d9       ?QueryHitRect@?$IViewObjectExImpl@VCOPOSPointCardRW@@@ATL@@UAGJKPBUtagRECT@@0JPAK@Z 100023d9 f i PointCardRW.obj
 0001:00001434       ?GetNaturalExtent@?$IViewObjectExImpl@VCOPOSPointCardRW@@@ATL@@UAGJKJPAUtagDVTARGETDEVICE@@PAUHDC__@@PAUtagExtentInfo@@PAUtagSIZE@@@Z 10002434 f i PointCardRW.obj
 0001:0000147f       ?GetWindow@?$IOleInPlaceObjectWindowlessImpl@VCOPOSPointCardRW@@@ATL@@UAGJPAPAUHWND__@@@Z 1000247f f i PointCardRW.obj
 0001:000014cc       ?InPlaceDeactivate@?$IOleInPlaceObjectWindowlessImpl@VCOPOSPointCardRW@@@ATL@@UAGJXZ 100024cc f i PointCardRW.obj
 0001:000014e6       ?UIDeactivate@?$IOleInPlaceObjectWindowlessImpl@VCOPOSPointCardRW@@@ATL@@UAGJXZ 100024e6 f i PointCardRW.obj
 0001:00001500       ?SetObjectRects@?$IOleInPlaceObjectWindowlessImpl@VCOPOSPointCardRW@@@ATL@@UAGJPBUtagRECT@@0@Z 10002500 f i PointCardRW.obj
 0001:00001520       ?ReactivateAndUndo@?$IOleInPlaceObjectWindowlessImpl@VCOPOSPointCardRW@@@ATL@@UAGJXZ 10002520 f i PointCardRW.obj
 0001:00001528       ?OnWindowMessage@?$IOleInPlaceObjectWindowlessImpl@VCOPOSPointCardRW@@@ATL@@UAGJIIJPAJ@Z 10002528 f i PointCardRW.obj
 0001:00001598       ?EnumConnectionPoints@?$IConnectionPointContainerImpl@VCOPOSPointCardRW@@@ATL@@UAGJPAPAUIEnumConnectionPoints@@@Z 10002598 f i PointCardRW.obj
 0001:00001724       ?FindConnectionPoint@?$IConnectionPointContainerImpl@VCOPOSPointCardRW@@@ATL@@UAGJABU_GUID@@PAPAUIConnectionPoint@@@Z 10002724 f i PointCardRW.obj
 0001:000017c7       ?IsDirty@?$IPersistStorageImpl@VCOPOSPointCardRW@@@ATL@@UAGJXZ 100027c7 f i PointCardRW.obj
 0001:000017f7       ?InitNew@?$IPersistStorageImpl@VCOPOSPointCardRW@@@ATL@@UAGJPAUIStorage@@@Z 100027f7 f i PointCardRW.obj
 0001:00001827       ?Load@?$IPersistStorageImpl@VCOPOSPointCardRW@@@ATL@@UAGJPAUIStorage@@@Z 10002827 f i PointCardRW.obj
 0001:00001893       ?Save@?$IPersistStorageImpl@VCOPOSPointCardRW@@@ATL@@UAGJPAUIStorage@@H@Z 10002893 f i PointCardRW.obj
 0001:00001906       ?GetPages@?$ISpecifyPropertyPagesImpl@VCOPOSPointCardRW@@@ATL@@UAGJPAUtagCAUUID@@@Z 10002906 f i PointCardRW.obj
 0001:0000191d       ?QuickActivate@?$IQuickActivateImpl@VCOPOSPointCardRW@@@ATL@@UAGJPAUtagQACONTAINER@@PAUtagQACONTROL@@@Z 1000291d f i PointCardRW.obj
 0001:00001940       ?SetContentExtent@?$IQuickActivateImpl@VCOPOSPointCardRW@@@ATL@@UAGJPAUtagSIZE@@@Z 10002940 f i PointCardRW.obj
 0001:0000196c       ?GetContentExtent@?$IQuickActivateImpl@VCOPOSPointCardRW@@@ATL@@UAGJPAUtagSIZE@@@Z 1000296c f i PointCardRW.obj
 0001:000019a8       ?GetData@?$IDataObjectImpl@VCOPOSPointCardRW@@@ATL@@UAGJPAUtagFORMATETC@@PAUtagSTGMEDIUM@@@Z 100029a8 f i PointCardRW.obj
 0001:000019cb       ?DAdvise@?$IDataObjectImpl@VCOPOSPointCardRW@@@ATL@@UAGJPAUtagFORMATETC@@KPAUIAdviseSink@@PAK@Z 100029cb f i PointCardRW.obj
 0001:00001a0c       ?DUnadvise@?$IDataObjectImpl@VCOPOSPointCardRW@@@ATL@@UAGJK@Z 10002a0c f i PointCardRW.obj
 0001:00001a3a       ?EnumDAdvise@?$IDataObjectImpl@VCOPOSPointCardRW@@@ATL@@UAGJPAPAUIEnumSTATDATA@@@Z 10002a3a f i PointCardRW.obj
 0001:00001a79       ?GetClassInfoW@?$IProvideClassInfo2Impl@$1?CLSID_OPOSPointCardRW@@3U_GUID@@B$1?DIID__IOPOSPointCardRWEvents@@3U2@B$1?LIBID_OposPointCardRW_CCO@@3U2@B$00$0A@VCComTypeInfoHolder@ATL@@@ATL@@UAGJPAPAUITypeInfo@@@Z 10002a79 f i PointCardRW.obj
 0001:00001a8f       ?GetGUID@?$IProvideClassInfo2Impl@$1?CLSID_OPOSPointCardRW@@3U_GUID@@B$1?DIID__IOPOSPointCardRWEvents@@3U2@B$1?LIBID_OposPointCardRW_CCO@@3U2@B$00$0A@VCComTypeInfoHolder@ATL@@@ATL@@UAGJKPAU_GUID@@@Z 10002a8f f i PointCardRW.obj
 0001:00001acd       __get_startup_argv_mode    10002acd f i LIBCMT:argv_mode.obj
 0001:00001acd       ?FAccessAllowed@?$IObjectSafetyImpl@VCOPOSPointCardRW@@$02@ATL@@MAEHXZ 10002acd f i PointCardRW.obj
 0001:00001ad1       ?GetInterfaceSafetyOptions@?$IObjectSafetyImpl@VCOPOSPointCardRW@@$02@ATL@@UAGJABU_GUID@@PAK1@Z 10002ad1 f i PointCardRW.obj
 0001:00001b45       ?SetInterfaceSafetyOptions@?$IObjectSafetyImpl@VCOPOSPointCardRW@@$02@ATL@@UAGJABU_GUID@@KK@Z 10002b45 f i PointCardRW.obj
 0001:00001bbf       ?_LocCPQueryInterface@?$IConnectionPointImpl@VCOPOSPointCardRW@@$1?DIID__IOPOSPointCardRWEvents@@3U_GUID@@BVCComDynamicUnkArray@ATL@@@ATL@@UAGJABU_GUID@@PAPAX@Z 10002bbf f i PointCardRW.obj
 0001:00001bbf       ?_LocCPQueryInterface@?$IConnectionPointImpl@VCOPOSPointCardRW@@$1?IID_IPropertyNotifySink@@3U_GUID@@BVCComDynamicUnkArray@ATL@@@ATL@@UAGJABU_GUID@@PAPAX@Z 10002bbf f i PointCardRW.obj
 0001:00001c0c       ?GetConnectionInterface@?$IConnectionPointImpl@VCOPOSPointCardRW@@$1?IID_IPropertyNotifySink@@3U_GUID@@BVCComDynamicUnkArray@ATL@@@ATL@@UAGJPAU_GUID@@@Z 10002c0c f i PointCardRW.obj
 0001:00001c30       ?GetConnectionPointContainer@?$IConnectionPointImpl@VCOPOSPointCardRW@@$1?IID_IPropertyNotifySink@@3U_GUID@@BVCComDynamicUnkArray@ATL@@@ATL@@UAGJPAPAUIConnectionPointContainer@@@Z 10002c30 f i PointCardRW.obj
 0001:00001c53       ?Advise@?$IConnectionPointImpl@VCOPOSPointCardRW@@$1?DIID__IOPOSPointCardRWEvents@@3U_GUID@@BVCComDynamicUnkArray@ATL@@@ATL@@UAGJPAUIUnknown@@PAK@Z 10002c53 f i PointCardRW.obj
 0001:00001c53       ?Advise@?$IConnectionPointImpl@VCOPOSPointCardRW@@$1?IID_IPropertyNotifySink@@3U_GUID@@BVCComDynamicUnkArray@ATL@@@ATL@@UAGJPAUIUnknown@@PAK@Z 10002c53 f i PointCardRW.obj
 0001:00001cf3       ?Unadvise@?$IConnectionPointImpl@VCOPOSPointCardRW@@$1?IID_IPropertyNotifySink@@3U_GUID@@BVCComDynamicUnkArray@ATL@@@ATL@@UAGJK@Z 10002cf3 f i PointCardRW.obj
 0001:00001cf3       ?Unadvise@?$IConnectionPointImpl@VCOPOSPointCardRW@@$1?DIID__IOPOSPointCardRWEvents@@3U_GUID@@BVCComDynamicUnkArray@ATL@@@ATL@@UAGJK@Z 10002cf3 f i PointCardRW.obj
 0001:00001d33       ?EnumConnections@?$IConnectionPointImpl@VCOPOSPointCardRW@@$1?IID_IPropertyNotifySink@@3U_GUID@@BVCComDynamicUnkArray@ATL@@@ATL@@UAGJPAPAUIEnumConnections@@@Z 10002d33 f i PointCardRW.obj
 0001:00001d33       ?EnumConnections@?$IConnectionPointImpl@VCOPOSPointCardRW@@$1?DIID__IOPOSPointCardRWEvents@@3U_GUID@@BVCComDynamicUnkArray@ATL@@@ATL@@UAGJPAPAUIEnumConnections@@@Z 10002d33 f i PointCardRW.obj
 0001:00001e2e       ?GetObjectDescription@?$CComCoClass@VCOPOSPointCardRW@@$1?CLSID_OPOSPointCardRW@@3U_GUID@@B@ATL@@SGPB_WXZ 10002e2e f i PointCardRW.obj
 0001:00001e2e       ?GetCategoryMap@CComObjectRootBase@ATL@@SAPBU_ATL_CATMAP_ENTRY@2@XZ 10002e2e f i PointCardRW.obj
 0001:00001e31       ?Lock@CAtlModule@ATL@@UAEJXZ 10002e31 f i PointCardRW.obj
 0001:00001e3b       ?Unlock@CAtlModule@ATL@@UAEJXZ 10002e3b f i PointCardRW.obj
 0001:00001e45       ?GetLockCount@CAtlModule@ATL@@UAEJXZ 10002e45 f i PointCardRW.obj
 0001:00001e49       ?GetGITPtr@CAtlModule@ATL@@UAEJPAPAUIGlobalInterfaceTable@@@Z 10002e49 f i PointCardRW.obj
 0001:00001e95       ?GetConnectionInterface@?$IConnectionPointImpl@VCOPOSPointCardRW@@$1?DIID__IOPOSPointCardRWEvents@@3U_GUID@@BVCComDynamicUnkArray@ATL@@@ATL@@UAGJPAU_GUID@@@Z 10002e95 f i PointCardRW.obj
 0001:00001eb9       ?GetConnectionPointContainer@?$IConnectionPointImpl@VCOPOSPointCardRW@@$1?DIID__IOPOSPointCardRWEvents@@3U_GUID@@BVCComDynamicUnkArray@ATL@@@ATL@@UAGJPAPAUIConnectionPointContainer@@@Z 10002eb9 f i PointCardRW.obj
 0001:00001edc       ?UpdateRegistry@COPOSPointCardRW@@SGJH@Z 10002edc f i PointCardRW.obj
 0001:00001ef4       ?ProcessWindowMessage@COPOSPointCardRW@@UAEHPAUHWND__@@IIJAAJK@Z 10002ef4 f i PointCardRW.obj
 0001:00001f3d       ?SOData@COPOSPointCardRW@@MAGJJ@Z 10002f3d f i PointCardRW.obj
 0001:00001f76       ?SODirectIO@COPOSPointCardRW@@MAGJJPAJPAPA_W@Z 10002f76 f i PointCardRW.obj
 0001:00001fbf       ?SOError@COPOSPointCardRW@@MAGJJJJPAJ@Z 10002fbf f i PointCardRW.obj
 0001:00002014       ?SOOutputComplete@COPOSPointCardRW@@MAGJJ@Z 10003014 f i PointCardRW.obj
 0001:0000204d       ?SOStatusUpdate@COPOSPointCardRW@@MAGJJ@Z 1000304d f i PointCardRW.obj
 0001:00002086       ?AddCommonRGSReplacements@?$CAtlModuleT@VCComModule@ATL@@@ATL@@UAEJPAUIRegistrarBase@@@Z 10003086 f i PointCardRW.obj
 0001:000020a0       ?UpdateRegistryFromResourceD@CComModule@ATL@@UAGJPB_WHPAU_ATL_REGMAP_ENTRY@2@@Z 100030a0 f i PointCardRW.obj
 0001:000020a0       ?UpdateRegistryFromResourceD@CComModule@ATL@@UAGJIHPAU_ATL_REGMAP_ENTRY@2@@Z 100030a0 f i PointCardRW.obj
 0001:000020a8       ?UpdateRegistryFromResource@CComModule@ATL@@UAGJPB_WHPAU_ATL_REGMAP_ENTRY@2@@Z 100030a8 f i PointCardRW.obj
 0001:000020b1       ?UpdateRegistryFromResource@CComModule@ATL@@UAGJIHPAU_ATL_REGMAP_ENTRY@2@@Z 100030b1 f i PointCardRW.obj
 0001:000020ba       ??_ECComModule@ATL@@UAEPAXI@Z 100030ba f i PointCardRW.obj
 0001:000020ba       ??_GCComModule@ATL@@UAEPAXI@Z 100030ba f i PointCardRW.obj
 0001:000020e2       ?CreateInstance@?$CComCreator@V?$CComObjectCached@VCComClassFactory@ATL@@@ATL@@@ATL@@SGJPAXABU_GUID@@PAPAX@Z 100030e2 f i PointCardRW.obj
 0001:00002182       ?CreateInstance@?$CComCreator2@V?$CComCreator@V?$CComObject@VCOPOSPointCardRW@@@ATL@@@ATL@@V?$CComCreator@V?$CComAggObject@VCOPOSPointCardRW@@@ATL@@@2@@ATL@@SGJPAXABU_GUID@@PAPAX@Z 10003182 f i PointCardRW.obj
 0001:000021a2       ?AddRef@?$CComObjectCached@VCComClassFactory@ATL@@@ATL@@UAGKXZ 100031a2 f i PointCardRW.obj
 0001:000021c9       ?Release@?$CComObjectCached@VCComClassFactory@ATL@@@ATL@@UAGKXZ 100031c9 f i PointCardRW.obj
 0001:000021ff       ?QueryInterface@?$CComObjectCached@VCComClassFactory@ATL@@@ATL@@UAGJABU_GUID@@PAPAX@Z 100031ff f i PointCardRW.obj
 0001:00002219       ??_E?$CComObjectCached@VCComClassFactory@ATL@@@ATL@@UAEPAXI@Z 10003219 f i PointCardRW.obj
 0001:00002219       ??_G?$CComObjectCached@VCComClassFactory@ATL@@@ATL@@UAEPAXI@Z 10003219 f i PointCardRW.obj
 0001:0000223b       ?Next@?$CComEnumImpl@UIEnumConnectionPoints@@$1?_GUID_b196b285_bab4_101a_b69c_00aa00341d07@@3U__s_GUID@@BPAUIConnectionPoint@@V?$_CopyInterface@UIConnectionPoint@@@ATL@@@ATL@@UAGJKPAPAUIConnectionPoint@@PAK@Z 1000323b f i PointCardRW.obj
 0001:00002312       ?Skip@?$CComEnumImpl@UIEnumConnectionPoints@@$1?_GUID_b196b285_bab4_101a_b69c_00aa00341d07@@3U__s_GUID@@BPAUIConnectionPoint@@V?$_CopyInterface@UIConnectionPoint@@@ATL@@@ATL@@UAGJK@Z 10003312 f i PointCardRW.obj
 0001:0000233f       ?Reset@?$CComEnumImpl@UIEnumConnections@@$1?_GUID_b196b287_bab4_101a_b69c_00aa00341d07@@3U__s_GUID@@BUtagCONNECTDATA@@V?$_Copy@UtagCONNECTDATA@@@ATL@@@ATL@@UAGJXZ 1000333f f i PointCardRW.obj
 0001:0000233f       ?Reset@?$CComEnumImpl@UIEnumConnectionPoints@@$1?_GUID_b196b285_bab4_101a_b69c_00aa00341d07@@3U__s_GUID@@BPAUIConnectionPoint@@V?$_CopyInterface@UIConnectionPoint@@@ATL@@@ATL@@UAGJXZ 1000333f f i PointCardRW.obj
 0001:00002351       ?Clone@?$CComEnumImpl@UIEnumConnectionPoints@@$1?_GUID_b196b285_bab4_101a_b69c_00aa00341d07@@3U__s_GUID@@BPAUIConnectionPoint@@V?$_CopyInterface@UIConnectionPoint@@@ATL@@@ATL@@UAGJPAPAUIEnumConnectionPoints@@@Z 10003351 f i PointCardRW.obj
 0001:00002432       ?AddRef@?$CComObject@V?$CComEnum@UIEnumConnections@@$1?_GUID_b196b287_bab4_101a_b69c_00aa00341d07@@3U__s_GUID@@BUtagCONNECTDATA@@V?$_Copy@UtagCONNECTDATA@@@ATL@@VCComSingleThreadModel@6@@ATL@@@ATL@@UAGKXZ 10003432 f i PointCardRW.obj
 0001:00002432       ?AddRef@?$CComObject@V?$CComEnum@UIEnumConnectionPoints@@$1?_GUID_b196b285_bab4_101a_b69c_00aa00341d07@@3U__s_GUID@@BPAUIConnectionPoint@@V?$_CopyInterface@UIConnectionPoint@@@ATL@@VCComSingleThreadModel@6@@ATL@@@ATL@@UAGKXZ 10003432 f i PointCardRW.obj
 0001:00002443       ?Release@?$CComObject@V?$CComEnum@UIEnumConnectionPoints@@$1?_GUID_b196b285_bab4_101a_b69c_00aa00341d07@@3U__s_GUID@@BPAUIConnectionPoint@@V?$_CopyInterface@UIConnectionPoint@@@ATL@@VCComSingleThreadModel@6@@ATL@@@ATL@@UAGKXZ 10003443 f i PointCardRW.obj
 0001:00002443       ?Release@?$CComObject@V?$CComEnum@UIEnumConnections@@$1?_GUID_b196b287_bab4_101a_b69c_00aa00341d07@@3U__s_GUID@@BUtagCONNECTDATA@@V?$_Copy@UtagCONNECTDATA@@@ATL@@VCComSingleThreadModel@6@@ATL@@@ATL@@UAGKXZ 10003443 f i PointCardRW.obj
 0001:0000247f       ?QueryInterface@?$CComObject@V?$CComEnum@UIEnumConnectionPoints@@$1?_GUID_b196b285_bab4_101a_b69c_00aa00341d07@@3U__s_GUID@@BPAUIConnectionPoint@@V?$_CopyInterface@UIConnectionPoint@@@ATL@@VCComSingleThreadModel@6@@ATL@@@ATL@@UAGJABU_GUID@@PAPAX@Z 1000347f f i PointCardRW.obj
 0001:00002499       ??_G?$CComObject@V?$CComEnum@UIEnumConnectionPoints@@$1?_GUID_b196b285_bab4_101a_b69c_00aa00341d07@@3U__s_GUID@@BPAUIConnectionPoint@@V?$_CopyInterface@UIConnectionPoint@@@ATL@@VCComSingleThreadModel@6@@ATL@@@ATL@@UAEPAXI@Z 10003499 f i PointCardRW.obj
 0001:00002499       ??_E?$CComObject@V?$CComEnum@UIEnumConnectionPoints@@$1?_GUID_b196b285_bab4_101a_b69c_00aa00341d07@@3U__s_GUID@@BPAUIConnectionPoint@@V?$_CopyInterface@UIConnectionPoint@@@ATL@@VCComSingleThreadModel@6@@ATL@@@ATL@@UAEPAXI@Z 10003499 f i PointCardRW.obj
 0001:000024bb       ?AddRef@CRegObject@ATL@@UAGKXZ 100034bb f i PointCardRW.obj
 0001:000024c1       ?AddReplacement@CRegObject@ATL@@UAGJPB_W0@Z 100034c1 f i PointCardRW.obj
 0001:000024fa       ?ClearReplacements@CRegObject@ATL@@UAGJXZ 100034fa f i PointCardRW.obj
 0001:0000250c       ??_GCRegObject@ATL@@UAEPAXI@Z 1000350c f i PointCardRW.obj
 0001:0000250c       ??_ECRegObject@ATL@@UAEPAXI@Z 1000350c f i PointCardRW.obj
 0001:0000252e       ?AddRef@?$CComAggObject@VCOPOSPointCardRW@@@ATL@@UAGKXZ 1000352e f i PointCardRW.obj
 0001:0000253f       ?Release@?$CComAggObject@VCOPOSPointCardRW@@@ATL@@UAGKXZ 1000353f f i PointCardRW.obj
 0001:0000257b       ?QueryInterface@?$CComAggObject@VCOPOSPointCardRW@@@ATL@@UAGJABU_GUID@@PAPAX@Z 1000357b f i PointCardRW.obj
 0001:000025ca       ?AddRef@?$CComContainedObject@VCOPOSPointCardRW@@@ATL@@UAGKXZ 100035ca f i PointCardRW.obj
 0001:000025e0       ?Release@?$CComContainedObject@VCOPOSPointCardRW@@@ATL@@UAGKXZ 100035e0 f i PointCardRW.obj
 0001:000025f6       ?QueryInterface@?$CComContainedObject@VCOPOSPointCardRW@@@ATL@@UAGJABU_GUID@@PAPAX@Z 100035f6 f i PointCardRW.obj
 0001:00002611       ??_G?$CComAggObject@VCOPOSPointCardRW@@@ATL@@UAEPAXI@Z 10003611 f i PointCardRW.obj
 0001:00002611       ??_E?$CComAggObject@VCOPOSPointCardRW@@@ATL@@UAEPAXI@Z 10003611 f i PointCardRW.obj
 0001:00002636       ?AddRef@?$CComObject@VCOPOSPointCardRW@@@ATL@@UAGKXZ 10003636 f i PointCardRW.obj
 0001:0000264d       ?Release@?$CComObject@VCOPOSPointCardRW@@@ATL@@UAGKXZ 1000364d f i PointCardRW.obj
 0001:0000268f       ?QueryInterface@?$CComObject@VCOPOSPointCardRW@@@ATL@@UAGJABU_GUID@@PAPAX@Z 1000368f f i PointCardRW.obj
 0001:000026a9       ?OnDrawAdvanced@CComControlBase@ATL@@UAEJAAUATL_DRAWINFO@@@Z 100036a9 f i PointCardRW.obj
 0001:0000279c       ?Next@?$CComEnumImpl@UIEnumConnections@@$1?_GUID_b196b287_bab4_101a_b69c_00aa00341d07@@3U__s_GUID@@BUtagCONNECTDATA@@V?$_Copy@UtagCONNECTDATA@@@ATL@@@ATL@@UAGJKPAUtagCONNECTDATA@@PAK@Z 1000379c f i PointCardRW.obj
 0001:00002873       ?Skip@?$CComEnumImpl@UIEnumConnections@@$1?_GUID_b196b287_bab4_101a_b69c_00aa00341d07@@3U__s_GUID@@BUtagCONNECTDATA@@V?$_Copy@UtagCONNECTDATA@@@ATL@@@ATL@@UAGJK@Z 10003873 f i PointCardRW.obj
 0001:000028a0       ?Clone@?$CComEnumImpl@UIEnumConnections@@$1?_GUID_b196b287_bab4_101a_b69c_00aa00341d07@@3U__s_GUID@@BUtagCONNECTDATA@@V?$_Copy@UtagCONNECTDATA@@@ATL@@@ATL@@UAGJPAPAUIEnumConnections@@@Z 100038a0 f i PointCardRW.obj
 0001:00002981       ?QueryInterface@?$CComObject@V?$CComEnum@UIEnumConnections@@$1?_GUID_b196b287_bab4_101a_b69c_00aa00341d07@@3U__s_GUID@@BUtagCONNECTDATA@@V?$_Copy@UtagCONNECTDATA@@@ATL@@VCComSingleThreadModel@6@@ATL@@@ATL@@UAGJABU_GUID@@PAPAX@Z 10003981 f i PointCardRW.obj
 0001:0000299b       ??_G?$CComObject@V?$CComEnum@UIEnumConnections@@$1?_GUID_b196b287_bab4_101a_b69c_00aa00341d07@@3U__s_GUID@@BUtagCONNECTDATA@@V?$_Copy@UtagCONNECTDATA@@@ATL@@VCComSingleThreadModel@6@@ATL@@@ATL@@UAEPAXI@Z 1000399b f i PointCardRW.obj
 0001:0000299b       ??_E?$CComObject@V?$CComEnum@UIEnumConnections@@$1?_GUID_b196b287_bab4_101a_b69c_00aa00341d07@@3U__s_GUID@@BUtagCONNECTDATA@@V?$_Copy@UtagCONNECTDATA@@@ATL@@VCComSingleThreadModel@6@@ATL@@@ATL@@UAEPAXI@Z 1000399b f i PointCardRW.obj
 0001:000029bd       ??$?4UITypeInfo2@@@?$CComPtr@UITypeInfo@@@ATL@@QAEPAUITypeInfo@@ABV?$CComPtr@UITypeInfo2@@@1@@Z 100039bd f i PointCardRW.obj
 0001:000029ea       ??$AtlAdd@K@ATL@@YAJPAKKK@Z 100039ea f i PointCardRW.obj
 0001:00002a0d       ??$AtlAdd@_K@ATL@@YAJPA_K_K1@Z 10003a0d f i PointCardRW.obj
 0001:00002a45       ??$AtlAddThrow@K@ATL@@YAKKK@Z 10003a45 f i PointCardRW.obj
 0001:00002a6b       ??$AtlModuleRegisterWndClassInfoT@VAtlModuleRegisterWndClassInfoParamW@ATL@@@ATL@@YAGPAU_ATL_BASE_MODULE70@0@PAU_ATL_WIN_MODULE70@0@PAU_ATL_WNDCLASSINFOW@0@PAP6GJPAUHWND__@@IIJ@ZVAtlModuleRegisterWndClassInfoParamW@0@@Z 10003a6b f i PointCardRW.obj
 0001:00002bb9       ??$AtlMultiply@H@ATL@@YAJPAHHH@Z 10003bb9 f i PointCardRW.obj
 0001:00002bf1       ??$AtlMultiply@K@ATL@@YAJPAKKK@Z 10003bf1 f i PointCardRW.obj
 0001:00002bf1       ??$AtlMultiply@I@ATL@@YAJPAIII@Z 10003bf1 f i PointCardRW.obj
 0001:00002c13       ??$AtlMultiplyThrow@I@ATL@@YAIII@Z 10003c13 f i PointCardRW.obj
 0001:00002c39       ??0?$CComAggObject@VCOPOSPointCardRW@@@ATL@@QAE@PAX@Z 10003c39 f i PointCardRW.obj
 0001:00002c66       ??0?$CComContainedObject@VCOPOSPointCardRW@@@ATL@@QAE@PAX@Z 10003c66 f i PointCardRW.obj
 0001:00002d1f       ??0?$CComObject@V?$CComEnum@UIEnumConnectionPoints@@$1?_GUID_b196b285_bab4_101a_b69c_00aa00341d07@@3U__s_GUID@@BPAUIConnectionPoint@@V?$_CopyInterface@UIConnectionPoint@@@ATL@@VCComSingleThreadModel@6@@ATL@@@ATL@@QAE@PAX@Z 10003d1f f i PointCardRW.obj
 0001:00002d4d       ??0?$CComObject@V?$CComEnum@UIEnumConnections@@$1?_GUID_b196b287_bab4_101a_b69c_00aa00341d07@@3U__s_GUID@@BUtagCONNECTDATA@@V?$_Copy@UtagCONNECTDATA@@@ATL@@VCComSingleThreadModel@6@@ATL@@@ATL@@QAE@PAX@Z 10003d4d f i PointCardRW.obj
 0001:00002d7b       ??0?$CComObject@VCOPOSPointCardRW@@@ATL@@QAE@PAX@Z 10003d7b f i PointCardRW.obj
 0001:00002e32       ??0?$CComQIPtr@UIOleControlSite@@$1?_GUID_b196b289_bab4_101a_b69c_00aa00341d07@@3U__s_GUID@@B@ATL@@QAE@PAUIUnknown@@@Z 10003e32 f i PointCardRW.obj
 0001:00002e5b       ??0CAtlModule@ATL@@QAE@XZ  10003e5b f i PointCardRW.obj
 0001:00002e9c       ??0CParseBuffer@CRegParser@ATL@@QAE@H@Z 10003e9c f i PointCardRW.obj
 0001:00002ed2       ??0_ATL_MSG@ATL@@QAE@PAUHWND__@@IIJH@Z 10003ed2 f i PointCardRW.obj
 0001:00002f0a       ??1?$CComAggObject@VCOPOSPointCardRW@@@ATL@@UAE@XZ 10003f0a f i PointCardRW.obj
 0001:00002f2e       ??1?$CComEnumImpl@UIEnumConnectionPoints@@$1?_GUID_b196b285_bab4_101a_b69c_00aa00341d07@@3U__s_GUID@@BPAUIConnectionPoint@@V?$_CopyInterface@UIConnectionPoint@@@ATL@@@ATL@@UAE@XZ 10003f2e f i PointCardRW.obj
 0001:00002f6e       ??1?$CComEnumImpl@UIEnumConnections@@$1?_GUID_b196b287_bab4_101a_b69c_00aa00341d07@@3U__s_GUID@@BUtagCONNECTDATA@@V?$_Copy@UtagCONNECTDATA@@@ATL@@@ATL@@UAE@XZ 10003f6e f i PointCardRW.obj
 0001:00002fae       ??1?$CComObject@V?$CComEnum@UIEnumConnectionPoints@@$1?_GUID_b196b285_bab4_101a_b69c_00aa00341d07@@3U__s_GUID@@BPAUIConnectionPoint@@V?$_CopyInterface@UIConnectionPoint@@@ATL@@VCComSingleThreadModel@6@@ATL@@@ATL@@UAE@XZ 10003fae f i PointCardRW.obj
 0001:00002fd1       ??1?$CComObject@V?$CComEnum@UIEnumConnections@@$1?_GUID_b196b287_bab4_101a_b69c_00aa00341d07@@3U__s_GUID@@BUtagCONNECTDATA@@V?$_Copy@UtagCONNECTDATA@@@ATL@@VCComSingleThreadModel@6@@ATL@@@ATL@@UAE@XZ 10003fd1 f i PointCardRW.obj
 0001:00002ff4       ??1?$CComObject@VCOPOSPointCardRW@@@ATL@@UAE@XZ 10003ff4 f i PointCardRW.obj
 0001:000030b2       ??1?$CComObjectCached@VCComClassFactory@ATL@@@ATL@@UAE@XZ 100040b2 f i PointCardRW.obj
 0001:000030c8       ??1?$CComObjectRootEx@VCComMultiThreadModel@ATL@@@ATL@@QAE@XZ 100040c8 f i PointCardRW.obj
 0001:000030dd       ??1CRegObject@ATL@@UAE@XZ  100040dd f i PointCardRW.obj
 0001:000030fd       ??4?$CComPtr@UIAdviseSink@@@ATL@@QAEPAUIAdviseSink@@PAU2@@Z 100040fd f i PointCardRW.obj
 0001:000030fd       ??4?$CComPtr@UIOleClientSite@@@ATL@@QAEPAUIOleClientSite@@PAU2@@Z 100040fd f i PointCardRW.obj
 0001:000030fd       ??4?$CComPtr@UIUnknown@@@ATL@@QAEPAUIUnknown@@PAU2@@Z 100040fd f i PointCardRW.obj
 0001:00003131       ??_G?$CComContainedObject@VCOPOSPointCardRW@@@ATL@@UAEPAXI@Z 10004131 f i PointCardRW.obj
 0001:00003131       ??_E?$CComContainedObject@VCOPOSPointCardRW@@@ATL@@UAEPAXI@Z 10004131 f i PointCardRW.obj
 0001:00003156       ??_G?$CComObject@VCOPOSPointCardRW@@@ATL@@UAEPAXI@Z 10004156 f i PointCardRW.obj
 0001:00003156       ??_E?$CComObject@VCOPOSPointCardRW@@@ATL@@UAEPAXI@Z 10004156 f i PointCardRW.obj
 0001:0000317b       ?Add@?$CSimpleArray@GV?$CSimpleArrayEqualHelper@G@ATL@@@ATL@@QAEHABG@Z 1000417b f i PointCardRW.obj
 0001:000031ff       ?Add@?$CSimpleMap@PA_WPA_WVCExpansionVectorEqualHelper@ATL@@@ATL@@QAEHABQA_W0@Z 100041ff f i PointCardRW.obj
 0001:00003254       ?Add@CComDynamicUnkArray@ATL@@QAEKPAUIUnknown@@@Z 10004254 f i PointCardRW.obj
 0001:0000330a       ?Add@CExpansionVector@ATL@@QAEHPB_W0@Z 1000430a f i PointCardRW.obj
 0001:00003413       ?AddString@CParseBuffer@CRegParser@ATL@@QAEHPB_W@Z 10004413 f i PointCardRW.obj
 0001:00003448       ?AddTermFunc@CAtlModule@ATL@@QAEJP6GXK@ZK@Z 10004448 f i PointCardRW.obj
 0001:000034ab       ?AddValue@CRegParser@ATL@@IAEJAAVCRegKey@2@PB_WPA_W@Z 100044ab f i PointCardRW.obj
 0001:000037c5       ?Allocate@?$CAtlSafeAllocBufferManager@VCCRTAllocator@ATL@@@_ATL_SAFE_ALLOCA_IMPL@ATL@@QAEPAXK@Z 100047c5 f i PointCardRW.obj
 0001:000037f2       ?Allocate@?$CTempBuffer@E$0BAA@VCCRTAllocator@ATL@@@ATL@@QAEPAEI@Z 100047f2 f i PointCardRW.obj
 0001:00003821       ?Allocate@?$CTempBuffer@_W$0BAA@VCCRTAllocator@ATL@@@ATL@@QAEPA_WI@Z 10004821 f i PointCardRW.obj
 0001:00003850       ?Allocate@?$CTempBuffer@_W$0EAA@VCCRTAllocator@ATL@@@ATL@@QAEPA_WI@Z 10004850 f i PointCardRW.obj
 0001:0000387f       ?AllocateHeap@?$CTempBuffer@_W$0BAA@VCCRTAllocator@ATL@@@ATL@@AAEXI@Z 1000487f f i PointCardRW.obj
 0001:0000387f       ?AllocateHeap@?$CTempBuffer@E$0BAA@VCCRTAllocator@ATL@@@ATL@@AAEXI@Z 1000487f f i PointCardRW.obj
 0001:0000387f       ?AllocateHeap@?$CTempBuffer@_W$0EAA@VCCRTAllocator@ATL@@@ATL@@AAEXI@Z 1000487f f i PointCardRW.obj
 0001:000038a4       ?Append@CParseBuffer@CRegParser@ATL@@QAEHPB_WH@Z 100048a4 f i PointCardRW.obj
 0001:00003932       ?AtlCoTaskMemCAlloc@ATL@@YAPAXKK@Z 10004932 f i PointCardRW.obj
 0001:0000395f       ?AtlCoTaskMemRecalloc@ATL@@YAPAXPAXKK@Z 1000495f f i PointCardRW.obj
 0001:0000398f       ?AtlComModuleGetClassObject@ATL@@YGJPAU_ATL_COM_MODULE70@1@ABU_GUID@@1PAPAX@Z 1000498f f i PointCardRW.obj
 0001:00003a82       ?AtlComModuleRegisterServer@ATL@@YGJPAU_ATL_COM_MODULE70@1@HPBU_GUID@@@Z 10004a82 f i PointCardRW.obj
 0001:00003b0a       ?AtlComModuleUnregisterServer@ATL@@YGJPAU_ATL_COM_MODULE70@1@HPBU_GUID@@@Z 10004b0a f i PointCardRW.obj
 0001:00003b92       ?AtlComQIPtrAssign2@ATL@@YAXPAPAUIUnknown@@PAU2@ABU_GUID@@@Z 10004b92 f i PointCardRW.obj
 0001:00003bc1       ?AtlCreateTargetDC@ATL@@YGPAUHDC__@@PAU2@PAUtagDVTARGETDEVICE@@@Z 10004bc1 f i PointCardRW.obj
 0001:00003c2a       ?AtlCrtErrorCheck@ATL@@YAHH@Z 10004c2a f i PointCardRW.obj
 0001:00003c65       ?AtlHiMetricToPixel@ATL@@YGXPBUtagSIZE@@PAU2@@Z 10004c65 f i PointCardRW.obj
 0001:00003cda       ?AtlHresultFromLastError@ATL@@YAJXZ 10004cda f i PointCardRW.obj
 0001:00003cf1       ?AtlHresultFromWin32@ATL@@YAJK@Z 10004cf1 f i PointCardRW.obj
 0001:00003d06       ?AtlInternalOleLoadFromStream@ATL@@YAJPAUIStream@@ABU_GUID@@PAPAXTClassesAllowedInStream@1@K@Z 10004d06 f i PointCardRW.obj
 0001:00003e24       ?AtlInternalQueryInterface@ATL@@YGJPAXPBU_ATL_INTMAP_ENTRY@1@ABU_GUID@@PAPAX@Z 10004e24 f i PointCardRW.obj
 0001:00003ec7       ?AtlLoadTypeLib@ATL@@YGJPAUHINSTANCE__@@PB_WPAPA_WPAPAUITypeLib@@@Z 10004ec7 f i PointCardRW.obj
 0001:000040a5       ?AtlRegisterClassCategoriesHelper@ATL@@YGJABU_GUID@@PBU_ATL_CATMAP_ENTRY@1@H@Z 100050a5 f i PointCardRW.obj
 0001:000043a1       ?AtlRegisterTypeLib@ATL@@YGJPAUHINSTANCE__@@PB_W@Z 100053a1 f i PointCardRW.obj
 0001:00004529       ?AtlThrowImpl@ATL@@YGXJ@Z  10005529 f i PointCardRW.obj
 0001:00004547       ?AtlUnRegisterTypeLib@ATL@@YGJPAUHINSTANCE__@@PB_W@Z 10005547 f i PointCardRW.obj
 0001:000045f2       ?AtlWinModuleAddCreateWndData@ATL@@YGXPAU_ATL_WIN_MODULE70@1@PAU_AtlCreateWndData@1@PAX@Z 100055f2 f i PointCardRW.obj
 0001:00004646       ?AtlWinModuleExtractCreateWndData@ATL@@YGPAXPAU_ATL_WIN_MODULE70@1@@Z 10005646 f i PointCardRW.obj
 0001:000046a9       ?AtlWinModuleRegisterClassExW@ATL@@YGGPAU_ATL_WIN_MODULE70@1@PBUtagWNDCLASSEXW@@@Z 100056a9 f i PointCardRW.obj
 0001:000046e8       ?CanForceRemoveKey@CRegParser@ATL@@IAEHPB_W@Z 100056e8 f i PointCardRW.obj
 0001:00004717       ?ChToByte@CRegParser@ATL@@KAE_W@Z 10005717 f i PointCardRW.obj
 0001:0000474a       ?Cleanup@CComTypeInfoHolder@ATL@@SGXK@Z 1000574a f i PointCardRW.obj
 0001:0000477d       ?ClearReplacements@CExpansionVector@ATL@@QAEJXZ 1000577d f i PointCardRW.obj
 0001:000047ba       ?Close@CRegKey@ATL@@QAEJXZ 100057ba f i PointCardRW.obj
 0001:000047d4       ?CreateInstance@?$CComCreator@V?$CComAggObject@VCOPOSPointCardRW@@@ATL@@@ATL@@SGJPAXABU_GUID@@PAPAX@Z 100057d4 f i PointCardRW.obj
 0001:00004849       ?CreateInstance@?$CComCreator@V?$CComObject@VCOPOSPointCardRW@@@ATL@@@ATL@@SGJPAXABU_GUID@@PAPAX@Z 10005849 f i PointCardRW.obj
 0001:000048c9       ?CreateInstance@?$CComObject@V?$CComEnum@UIEnumConnectionPoints@@$1?_GUID_b196b285_bab4_101a_b69c_00aa00341d07@@3U__s_GUID@@BPAUIConnectionPoint@@V?$_CopyInterface@UIConnectionPoint@@@ATL@@VCComSingleThreadModel@6@@ATL@@@ATL@@SGJPAPAV12@@Z 100058c9 f i PointCardRW.obj
 0001:00004913       ?CreateInstance@?$CComObject@V?$CComEnum@UIEnumConnections@@$1?_GUID_b196b287_bab4_101a_b69c_00aa00341d07@@3U__s_GUID@@BUtagCONNECTDATA@@V?$_Copy@UtagCONNECTDATA@@@ATL@@VCComSingleThreadModel@6@@ATL@@@ATL@@SGJPAPAV12@@Z 10005913 f i PointCardRW.obj
 0001:0000495d       ?DefaultReflectionHandler@?$CWindowImplRoot@VCWindow@ATL@@@ATL@@SAHPAUHWND__@@IIJAAJ@Z 1000595d f i PointCardRW.obj
 0001:000049d0       ?DeleteSubKey@CRegKey@ATL@@QAEJPB_W@Z 100059d0 f i PointCardRW.obj
 0001:00004a49       ?DoEvent@COPOSPointCardRW@@IAEXIIJ@Z 10005a49 f i PointCardRW.obj
 0001:00004ac9       ?DoVerbHide@?$IOleObjectImpl@VCOPOSPointCardRW@@@ATL@@QAEJPBUtagRECT@@PAUHWND__@@@Z 10005ac9 f i PointCardRW.obj
 0001:00004aff       ?DoVerbInPlaceActivate@?$IOleObjectImpl@VCOPOSPointCardRW@@@ATL@@QAEJPBUtagRECT@@PAUHWND__@@@Z 10005aff f i PointCardRW.obj
 0001:00004b32       ?DoVerbPrimary@?$IOleObjectImpl@VCOPOSPointCardRW@@@ATL@@QAEJPBUtagRECT@@PAUHWND__@@@Z 10005b32 f i PointCardRW.obj
 0001:00004bbe       ?DoVerbProperties@CComControlBase@ATL@@QAEJPBUtagRECT@@PAUHWND__@@@Z 10005bbe f i PointCardRW.obj
 0001:00004d3d       ?DoVerbUIActivate@?$IOleObjectImpl@VCOPOSPointCardRW@@@ATL@@QAEJPBUtagRECT@@PAUHWND__@@@Z 10005d3d f i PointCardRW.obj
 0001:00004d7a       ?DoesVerbActivate@CComControlBase@ATL@@QAEHJ@Z 10005d7a f i PointCardRW.obj
 0001:00004d9b       ?DoesVerbUIActivate@CComControlBase@ATL@@QAEHJ@Z 10005d9b f i PointCardRW.obj
 0001:00004dd0       ?EndOfVar@CRegParser@ATL@@IAEHXZ 10005dd0 f i PointCardRW.obj
 0001:00004df0       ?EscapeSingleQuote@CAtlModule@ATL@@SAXPA_WIPB_W@Z 10005df0 f i PointCardRW.obj
 0001:00004e3f       ?FindKey@?$CSimpleMap@PA_WPA_WVCExpansionVectorEqualHelper@ATL@@@ATL@@QBEHABQA_W@Z 10005e3f f i PointCardRW.obj
 0001:00004e76       ?FireTheEvent@?$CProxy_IOPOSEvents@VCOPOSPointCardRW@@@@IAEXPAVOposVariant@@IAAJPB_WJ@Z 10005e76 f i PointCardRW.obj
 0001:00004f08       ?FireViewChange@CComControlBase@ATL@@QAEJXZ 10005f08 f i PointCardRW.obj
 0001:00004f51       ?Fire_DataEvent@?$CProxy_IOPOSEvents@VCOPOSPointCardRW@@@@QAEXJ@Z 10005f51 f i PointCardRW.obj
 0001:00004fe7       ?Fire_DirectIOEvent@?$CProxy_IOPOSEvents@VCOPOSPointCardRW@@@@QAEXJPAJPAPA_W@Z 10005fe7 f i PointCardRW.obj
 0001:000050d3       ?Fire_ErrorEvent@?$CProxy_IOPOSEvents@VCOPOSPointCardRW@@@@QAEXJJJPAJ@Z 100060d3 f i PointCardRW.obj
 0001:000051c4       ?Fire_OutputCompleteEvent@?$CProxy_IOPOSEvents@VCOPOSPointCardRW@@@@QAEXJ@Z 100061c4 f i PointCardRW.obj
 0001:0000525a       ?Fire_StatusUpdateEvent@?$CProxy_IOPOSEvents@VCOPOSPointCardRW@@@@QAEXJ@Z 1000625a f i PointCardRW.obj
 0001:000052f0       ?FreeHeap@?$CTempBuffer@E$0BAA@VCCRTAllocator@ATL@@@ATL@@AAEXXZ 100062f0 f i PointCardRW.obj
 0001:000052f0       ?FreeHeap@?$CTempBuffer@_W$0EAA@VCCRTAllocator@ATL@@@ATL@@AAEXXZ 100062f0 f i PointCardRW.obj
 0001:000052f0       ?FreeHeap@?$CTempBuffer@_W$0BAA@VCCRTAllocator@ATL@@@ATL@@AAEXXZ 100062f0 f i PointCardRW.obj
 0001:000052f9       ?GetAmbientLocaleID@CComControlBase@ATL@@QAEJAAK@Z 100062f9 f i PointCardRW.obj
 0001:00005355       ?GetAmbientUserMode@CComControlBase@ATL@@QAEJAAH@Z 10006355 f i PointCardRW.obj
 0001:000053c5       ?GetAt@CComDynamicUnkArray@ATL@@QAEPAUIUnknown@@H@Z 100063c5 f i PointCardRW.obj
 0001:000053e1       ?GetClassObject@CComModule@ATL@@QAEJABU_GUID@@0PAPAX@Z 100063e1 f i PointCardRW.obj
 0001:00005483       ?GetConnMap@COPOSPointCardRW@@SAPBU_ATL_CONNMAP_ENTRY@ATL@@PAH@Z 10006483 f i PointCardRW.obj
 0001:000054f3       ?GetCookie@CComDynamicUnkArray@ATL@@QAGKPAPAUIUnknown@@@Z 100064f3 f i PointCardRW.obj
 0001:0000552b       ?GetIDsOfNames@CComTypeInfoHolder@ATL@@QAEJABU_GUID@@PAPA_WIKPAJ@Z 1000652b f i PointCardRW.obj
 0001:00005652       ?GetKeyAt@?$CSimpleMap@PA_WPA_WVCExpansionVectorEqualHelper@ATL@@@ATL@@QBEAAPA_WH@Z 10006652 f i PointCardRW.obj
 0001:00005677       ?GetPagesHelper@?$ISpecifyPropertyPagesImpl@VCOPOSPointCardRW@@@ATL@@IAEJPAUtagCAUUID@@PBUATL_PROPMAP_ENTRY@2@@Z 10006677 f i PointCardRW.obj
 0001:0000579e       ?GetProperty@?$CComPtr@UIDispatch@@@ATL@@SAJPAUIDispatch@@JPAUtagVARIANT@@@Z 1000679e f i PointCardRW.obj
 0001:000057ed       ?GetSizeMax@CComVariant@ATL@@QBEJPAT_ULARGE_INTEGER@@@Z 100067ed f i PointCardRW.obj
 0001:000059af       ?GetTI@CComTypeInfoHolder@ATL@@QAEJK@Z 100069af f i PointCardRW.obj
 0001:00005b8e       ?GetTI@CComTypeInfoHolder@ATL@@QAEJKPAPAUITypeInfo@@@Z 10006b8e f i PointCardRW.obj
 0001:00005bd0       ?GetUnknown@CComDynamicUnkArray@ATL@@QAGPAUIUnknown@@K@Z 10006bd0 f i PointCardRW.obj
 0001:00005bf1       ?GetValueAt@?$CSimpleMap@PA_WPA_WVCExpansionVectorEqualHelper@ATL@@@ATL@@QBEAAPA_WH@Z 10006bf1 f i PointCardRW.obj
 0001:00005c17       ?GetZoomInfo@CComControlBase@ATL@@QAEXAAUATL_DRAWINFO@@@Z 10006c17 f i PointCardRW.obj
 0001:00005caa       ?HKeyFromString@CRegParser@ATL@@KAPAUHKEY__@@PA_W@Z 10006caa f i PointCardRW.obj
 0001:00005cd8       ?HasSubKeys@CRegParser@ATL@@IAEHPAUHKEY__@@@Z 10006cd8 f i PointCardRW.obj
 0001:00005d0d       ?IDataObject_GetData@CComControlBase@ATL@@QAEJPAUtagFORMATETC@@PAUtagSTGMEDIUM@@@Z 10006d0d f i PointCardRW.obj
 0001:00005eb3       ?IOleInPlaceObject_InPlaceDeactivate@CComControlBase@ATL@@QAEJXZ 10006eb3 f i PointCardRW.obj
 0001:00005f3a       ?IOleInPlaceObject_SetObjectRects@CComControlBase@ATL@@QAEJPBUtagRECT@@0@Z 10006f3a f i PointCardRW.obj
 0001:00006007       ?IOleInPlaceObject_UIDeactivate@CComControlBase@ATL@@QAEJXZ 10007007 f i PointCardRW.obj
 0001:000060c9       ?IOleObject_Advise@CComControlBase@ATL@@QAEJPAUIAdviseSink@@PAK@Z 100070c9 f i PointCardRW.obj
 0001:000060f3       ?IOleObject_Close@CComControlBase@ATL@@QAEJK@Z 100070f3 f i PointCardRW.obj
 0001:000061d7       ?IOleObject_GetClientSite@CComControlBase@ATL@@QAEJPAPAUIOleClientSite@@@Z 100071d7 f i PointCardRW.obj
 0001:00006200       ?IOleObject_SetClientSite@CComControlBase@ATL@@QAEJPAUIOleClientSite@@@Z 10007200 f i PointCardRW.obj
 0001:0000623f       ?IOleObject_SetExtent@CComControlBase@ATL@@QAEJKPAUtagSIZE@@@Z 1000723f f i PointCardRW.obj
 0001:000062f1       ?IPSI_GetIPersistStreamInit@?$IPersistStorageImpl@VCOPOSPointCardRW@@@ATL@@AAEPAUIPersistStreamInit@@XZ 100072f1 f i PointCardRW.obj
 0001:00006399       ?IPersistStreamInit_Load@?$IPersistStreamInitImpl@VCOPOSPointCardRW@@@ATL@@QAEJPAUIStream@@PBUATL_PROPMAP_ENTRY@2@@Z 10007399 f i PointCardRW.obj
 0001:0000660e       ?IPersistStreamInit_Save@?$IPersistStreamInitImpl@VCOPOSPointCardRW@@@ATL@@QAEJPAUIStream@@HPBUATL_PROPMAP_ENTRY@2@@Z 1000760e f i PointCardRW.obj
 0001:000067fc       ?IQuickActivate_QuickActivate@CComControlBase@ATL@@QAEJPAUtagQACONTAINER@@PAUtagQACONTROL@@@Z 100077fc f i PointCardRW.obj
 0001:00006a3e       ?IViewObject_Draw@CComControlBase@ATL@@QAEJKJPAXPAUtagDVTARGETDEVICE@@PAUHDC__@@2PBU_RECTL@@3@Z 10007a3e f i PointCardRW.obj
 0001:00006ae6       ?InPlaceActivate@CComControlBase@ATL@@QAEJJPBUtagRECT@@@Z 10007ae6 f i PointCardRW.obj
 0001:00006d57       ?Init@?$CComEnumImpl@UIEnumConnectionPoints@@$1?_GUID_b196b285_bab4_101a_b69c_00aa00341d07@@3U__s_GUID@@BPAUIConnectionPoint@@V?$_CopyInterface@UIConnectionPoint@@@ATL@@@ATL@@QAEJPAPAUIConnectionPoint@@0PAUIUnknown@@W4CComEnumFlags@2@@Z 10007d57 f i PointCardRW.obj
 0001:00006e36       ?Init@?$CComEnumImpl@UIEnumConnections@@$1?_GUID_b196b287_bab4_101a_b69c_00aa00341d07@@3U__s_GUID@@BUtagCONNECTDATA@@V?$_Copy@UtagCONNECTDATA@@@ATL@@@ATL@@QAEJPAUtagCONNECTDATA@@0PAUIUnknown@@W4CComEnumFlags@2@@Z 10007e36 f i PointCardRW.obj
 0001:00006f15       ?Init@CComModule@ATL@@QAEJPAU_ATL_OBJMAP_ENTRY30@2@PAUHINSTANCE__@@PBU_GUID@@@Z 10007f15 f i PointCardRW.obj
 0001:00006f74       ?Init@CDynamicStdCallThunk2@ATL@@QAEHKPAX@Z 10007f74 f i PointCardRW.obj
 0001:00006f9f       ?InlineIsEqualUnknown@ATL@@YGHABU_GUID@@@Z 10007f9f f i PointCardRW.obj
 0001:00006fc7       ?InternalSetAtIndex@?$CSimpleMap@PA_WPA_WVCExpansionVectorEqualHelper@ATL@@@ATL@@QAEXHABQA_W0@Z 10007fc7 f i PointCardRW.obj
 0001:00006ff1       ?Invoke@CComTypeInfoHolder@ATL@@QAEJPAUIDispatch@@JABU_GUID@@KGPAUtagDISPPARAMS@@PAUtagVARIANT@@PAUtagEXCEPINFO@@PAI@Z 10007ff1 f i PointCardRW.obj
 0001:00007034       ?IsEqualObject@?$CComPtrBase@UITypeInfo@@@ATL@@QAE_NPAUIUnknown@@@Z 10008034 f i PointCardRW.obj
 0001:00007034       ?IsEqualObject@?$CComPtrBase@UIOleClientSite@@@ATL@@QAE_NPAUIUnknown@@@Z 10008034 f i PointCardRW.obj
 0001:000070a1       ?IsSpace@CRegParser@ATL@@IAEH_W@Z 100080a1 f i PointCardRW.obj
 0001:000070cb       ?LoadNameCache@CComTypeInfoHolder@ATL@@QAEJPAUITypeInfo@@@Z 100080cb f i PointCardRW.obj
 0001:00007200       ?Lookup@?$CSimpleMap@PA_WPA_WVCExpansionVectorEqualHelper@ATL@@@ATL@@QBEPA_WABQA_W@Z 10008200 f i PointCardRW.obj
 0001:00007226       ?NextToken@CRegParser@ATL@@IAEJPA_W@Z 10008226 f i PointCardRW.obj
 0001:0000735e       ?OnKillFocus@CComControlBase@ATL@@QAEJIIJAAH@Z 1000835e f i PointCardRW.obj
 0001:000073b9       ?OnMouseActivate@CComControlBase@ATL@@QAEJIIJAAH@Z 100083b9 f i PointCardRW.obj
 0001:00007427       ?OnPaint@CComControlBase@ATL@@QAEJIIJAAH@Z 10008427 f i PointCardRW.obj
 0001:000074d9       ?OnSetFocus@CComControlBase@ATL@@QAEJIIJAAH@Z 100084d9 f i PointCardRW.obj
 0001:00007562       ?Open@CRegKey@ATL@@QAEJPAUHKEY__@@PB_WK@Z 10008562 f i PointCardRW.obj
 0001:000075b7       ?PreProcessBuffer@CRegParser@ATL@@QAEJPA_WPAPA_W@Z 100085b7 f i PointCardRW.obj
 0001:00007826       ?ProcessWindowMessage@?$CComControl@VCOPOSPointCardRW@@V?$CWindowImpl@VCOPOSPointCardRW@@VCWindow@ATL@@V?$CWinTraits@$0FGAAAAAA@$0A@@3@@ATL@@@ATL@@UAEHPAUHWND__@@IIJAAJK@Z 10008826 f i PointCardRW.obj
 0001:000078c5       ?ReadFromStream@CComBSTR@ATL@@QAEJPAUIStream@@@Z 100088c5 f i PointCardRW.obj
 0001:000079e8       ?ReadFromStream@CComVariant@ATL@@QAEJPAUIStream@@GTClassesAllowedInStream@2@K@Z 100089e8 f i PointCardRW.obj
 0001:00007b72       ?RecurseDeleteKey@CRegKey@ATL@@QAEJPB_W@Z 10008b72 f i PointCardRW.obj
 0001:00007c60       ?RegCreateKeyExW@CAtlTransactionManager@ATL@@QAEJPAUHKEY__@@PB_WKPA_WKKQAU_SECURITY_ATTRIBUTES@@PAPAU3@PAK@Z 10008c60 f i PointCardRW.obj
 0001:00007cc3       ?RegDeleteKeyW@CAtlTransactionManager@ATL@@QAEJPAUHKEY__@@PB_W@Z 10008cc3 f i PointCardRW.obj
 0001:00007d15       ?RegOpenKeyExW@CAtlTransactionManager@ATL@@QAEJPAUHKEY__@@PB_WKKPAPAU3@@Z 10008d15 f i PointCardRW.obj
 0001:00007d6c       ?Register@_ATL_WNDCLASSINFOW@ATL@@QAEGPAP6GJPAUHWND__@@IIJ@Z@Z 10008d6c f i PointCardRW.obj
 0001:00007d8c       ?RegisterBuffer@CRegParser@ATL@@QAEJPA_WH@Z 10008d8c f i PointCardRW.obj
 0001:00007ed3       ?RegisterFromResource@CRegObject@ATL@@IAEJPB_W00H@Z 10008ed3 f i PointCardRW.obj
 0001:00008009       ?RegisterServer@?$CAtlModuleT@VCComModule@ATL@@@ATL@@QAEJHPBU_GUID@@@Z 10009009 f i PointCardRW.obj
 0001:00008037       ?RegisterServer@CComModule@ATL@@QAEJHPBU_GUID@@@Z 10009037 f i PointCardRW.obj
 0001:000080ad       ?RegisterSubkeys@CRegParser@ATL@@IAEJPA_WPAUHKEY__@@HH@Z 100090ad f i PointCardRW.obj
 0001:0000875a       ?Remove@CComDynamicUnkArray@ATL@@QAEHK@Z 1000975a f i PointCardRW.obj
 0001:00008783       ?RemoveAll@?$CSimpleMap@PA_WPA_WVCExpansionVectorEqualHelper@ATL@@@ATL@@QAEXXZ 10009783 f i PointCardRW.obj
 0001:000087af       ?ResourceRegisterSz@CRegObject@ATL@@QAGJPB_W00@Z 100097af f i PointCardRW.obj
 0001:000087dc       ?ResourceUnregisterSz@CRegObject@ATL@@QAGJPB_W00@Z 100097dc f i PointCardRW.obj
 0001:00008809       ?SendOnDataChange@CComControlBase@ATL@@QAEJK@Z 10009809 f i PointCardRW.obj
 0001:00008856       ?SetControlFocus@CComControlBase@ATL@@QAEHH@Z 10009856 f i PointCardRW.obj
 0001:000088f3       ?SetMultiStringValue@CRegKey@ATL@@QAEJPB_W0@Z 100098f3 f i PointCardRW.obj
 0001:0000894f       ?SetStringValue@CRegKey@ATL@@QAEJPB_W0K@Z 1000994f f i PointCardRW.obj
 0001:00008998       ?SkipAssignment@CRegParser@ATL@@IAEJPA_W@Z 10009998 f i PointCardRW.obj
 0001:000089fd       ?SkipWhiteSpace@CRegParser@ATL@@IAEXXZ 100099fd f i PointCardRW.obj
 0001:00008a1f       ?StrChrW@CRegParser@ATL@@KAPA_WPA_W_W@Z 10009a1f f i PointCardRW.obj
 0001:00008a5c       ?Term@CAtlModule@ATL@@QAEXXZ 10009a5c f i PointCardRW.obj
 0001:00008aaf       ?Term@CComModule@ATL@@QAEXXZ 10009aaf f i PointCardRW.obj
 0001:00008b07       ?UnregisterServer@?$CAtlModuleT@VCComModule@ATL@@@ATL@@QAEJHPBU_GUID@@@Z 10009b07 f i PointCardRW.obj
 0001:00008b2d       ?UnregisterServer@CComModule@ATL@@QAEJHPBU_GUID@@@Z 10009b2d f i PointCardRW.obj
 0001:00008ba3       ?UpdateRegistryFromResource@CAtlModule@ATL@@QAGJIHPAU_ATL_REGMAP_ENTRY@2@@Z 10009ba3 f i PointCardRW.obj
 0001:00008d6e       ?UpdateRegistryFromResource@CAtlModule@ATL@@QAGJPB_WHPAU_ATL_REGMAP_ENTRY@2@@Z 10009d6e f i PointCardRW.obj
 0001:00008f3f       ?VTFromRegType@CRegParser@ATL@@KAHPB_WAAG@Z 10009f3f f i PointCardRW.obj
 0001:00008fac       ?WindowProc@?$CWindowImplBaseT@VCWindow@ATL@@V?$CWinTraits@$0FGAAAAAA@$0A@@2@@ATL@@SGJPAUHWND__@@IIJ@Z 10009fac f i PointCardRW.obj
 0001:0000909e       ?WriteToStream@CComBSTR@ATL@@QAEJPAUIStream@@@Z 1000a09e f i PointCardRW.obj
 0001:00009100       ?WriteToStream@CComVariant@ATL@@QAEJPAUIStream@@@Z 1000a100 f i PointCardRW.obj
 0001:0000927a       ?WriteToStream@CComVariant@ATL@@QAEJPAUIStream@@G@Z 1000a27a f i PointCardRW.obj
 0001:000092e3       ?_AtlInitialConstruct@?$CComObjectRootEx@VCComMultiThreadModel@ATL@@@ATL@@QAEJXZ 1000a2e3 f i PointCardRW.obj
 0001:000092f8       ?_AtlVerifyStackAvailable@_ATL_SAFE_ALLOCA_IMPL@ATL@@YA_NK@Z 1000a2f8 f i PointCardRW.obj
 0001:00009376       ?atlCreate@?$CWindowImpl@VCOPOSPointCardRW@@VCWindow@ATL@@V?$CWinTraits@$0FGAAAAAA@$0A@@3@@ATL@@QAEPAUHWND__@@PAU3@V_U_RECT@2@PB_WKKV_U_MENUorID@2@PAX@Z 1000a376 f i PointCardRW.obj
 0001:000093ba       ?atlCreate@?$CWindowImplBaseT@VCWindow@ATL@@V?$CWinTraits@$0FGAAAAAA@$0A@@2@@ATL@@QAEPAUHWND__@@PAU3@V_U_RECT@2@PB_WKKV_U_MENUorID@2@GPAX@Z 1000a3ba f i PointCardRW.obj
 0001:00009456       ?copy@?$_Copy@UtagCONNECTDATA@@@ATL@@SAJPAUtagCONNECTDATA@@PBU3@@Z 1000a456 f i PointCardRW.obj
 0001:0000948c       ?copy@?$_CopyInterface@UIConnectionPoint@@@ATL@@SAJPAPAUIConnectionPoint@@PBQAU3@@Z 1000a48c f i PointCardRW.obj
 0001:000094ba       ?memcpy_s@Checked@ATL@@YAXPAXIPBXI@Z 1000a4ba f i PointCardRW.obj
 0001:000094d9       ?ocscpy_s@@YA_NPA_WIPB_W@Z 1000a4d9 f i PointCardRW.obj
 0001:00009523       ?wcscpy_s@Checked@ATL@@YAXPA_WIPB_W@Z 1000a523 f i PointCardRW.obj
 0001:0000953f       _DllCanUnloadNow@0         1000a53f f   PointCardRW.obj
 0001:0000954b       _DllGetClassObject@12      1000a54b f   PointCardRW.obj
 0001:00009559       _DllMain@12                1000a559 f   PointCardRW.obj
 0001:0000959b       _DllRegisterServer@0       1000a59b f   PointCardRW.obj
 0001:000095aa       _DllUnregisterServer@0     1000a5aa f   PointCardRW.obj
 0001:000095b9       _InlineIsEqualGUID         1000a5b9 f i PointCardRW.obj
 0001:000095e9       ___local_stdio_printf_options 1000a5e9 f i PointCardRW.obj
 0001:000095ef       __vswprintf_s_l            1000a5ef f i PointCardRW.obj
 0001:0000969c       _swprintf_s                1000a69c f i PointCardRW.obj
 0001:000096b8       ??0?$CComControl@VCOPOSPointCardRW@@V?$CWindowImpl@VCOPOSPointCardRW@@VCWindow@ATL@@V?$CWinTraits@$0FGAAAAAA@$0A@@3@@ATL@@@ATL@@QAE@XZ 1000a6b8 f i PointCardRWImpl.obj
 0001:000096df       ??0?$CProxy_IOPOSEvents@VCOPOSPointCardRW@@@@QAE@XZ 1000a6df f i PointCardRWImpl.obj
 0001:00009702       ??0CComControlBase@ATL@@QAE@AAPAUHWND__@@@Z 1000a702 f i PointCardRWImpl.obj
 0001:00009752       ??0COPOSPointCardRW@@QAE@XZ 1000a752 f   PointCardRWImpl.obj
 0001:00009788       ??1?$CComControl@VCOPOSPointCardRW@@V?$CWindowImpl@VCOPOSPointCardRW@@VCWindow@ATL@@V?$CWinTraits@$0FGAAAAAA@$0A@@3@@ATL@@@ATL@@UAE@XZ 1000a788 f i PointCardRWImpl.obj
 0001:000097a1       ??1?$IConnectionPointImpl@VCOPOSPointCardRW@@$1?IID_IPropertyNotifySink@@3U_GUID@@BVCComDynamicUnkArray@ATL@@@ATL@@QAE@XZ 1000a7a1 f i PointCardRWImpl.obj
 0001:000097a1       ??1?$IConnectionPointImpl@VCOPOSPointCardRW@@$1?DIID__IOPOSPointCardRWEvents@@3U_GUID@@BVCComDynamicUnkArray@ATL@@@ATL@@QAE@XZ 1000a7a1 f i PointCardRWImpl.obj
 0001:000097de       ??1CComControlBase@ATL@@UAE@XZ 1000a7de f i PointCardRWImpl.obj
 0001:00009841       ??1COPOSPointCardRW@@UAE@XZ 1000a841 f   PointCardRWImpl.obj
 0001:00009889       ?BeginInsertion@COPOSPointCardRW@@UAGJJPAJ@Z 1000a889 f   PointCardRWImpl.obj
 0001:000098d8       ?BeginRemoval@COPOSPointCardRW@@UAGJJPAJ@Z 1000a8d8 f   PointCardRWImpl.obj
 0001:00009927       ?CheckHealth@COPOSPointCardRW@@UAGJJPAJ@Z 1000a927 f   PointCardRWImpl.obj
 0001:00009976       ?ClaimDevice@COPOSPointCardRW@@UAGJJPAJ@Z 1000a976 f   PointCardRWImpl.obj
 0001:000099eb       ?CleanCard@COPOSPointCardRW@@UAGJPAJ@Z 1000a9eb f   PointCardRWImpl.obj
 0001:00009a06       ?ClearInput@COPOSPointCardRW@@UAGJPAJ@Z 1000aa06 f   PointCardRWImpl.obj
 0001:00009a21       ?ClearInputProperties@COPOSPointCardRW@@UAGJPAJ@Z 1000aa21 f   PointCardRWImpl.obj
 0001:00009a3c       ?ClearOutput@COPOSPointCardRW@@UAGJPAJ@Z 1000aa3c f   PointCardRWImpl.obj
 0001:00009a57       ?ClearPrintWrite@COPOSPointCardRW@@UAGJJJJJJPAJ@Z 1000aa57 f   PointCardRWImpl.obj
 0001:00009b03       ?Close@COPOSPointCardRW@@UAGJPAJ@Z 1000ab03 f   PointCardRWImpl.obj
 0001:00009b71       ?CompareFirmwareVersion@COPOSPointCardRW@@UAGJPA_WPAJ1@Z 1000ab71 f   PointCardRWImpl.obj
 0001:00009bf1       ?DirectIO@COPOSPointCardRW@@UAGJJPAJPAPA_W0@Z 1000abf1 f   PointCardRWImpl.obj
 0001:00009c9f       ?DoInvoke@COPOSPointCardRW@@IAEJJPAVOposVariant@@IHPAJ_N@Z 1000ac9f f   PointCardRWImpl.obj
 0001:00009d7b       ?EndInsertion@COPOSPointCardRW@@UAGJPAJ@Z 1000ad7b f   PointCardRWImpl.obj
 0001:00009d96       ?EndRemoval@COPOSPointCardRW@@UAGJPAJ@Z 1000ad96 f   PointCardRWImpl.obj
 0001:00009db1       ?EventClose@COPOSPointCardRW@@IAEXXZ 1000adb1 f i PointCardRWImpl.obj
 0001:00009de4       ?EventInit@COPOSPointCardRW@@IAEJXZ 1000ade4 f i PointCardRWImpl.obj
 0001:00009eb0       ?EventUninit@COPOSPointCardRW@@IAEXXZ 1000aeb0 f i PointCardRWImpl.obj
 0001:00009f02       ?EventWindowProc@COPOSPointCardRW@@IAGJIIJ@Z 1000af02 f i PointCardRWImpl.obj
 0001:0000a000       ?FinalConstruct@COPOSPointCardRW@@QAEJXZ 1000b000 f   PointCardRWImpl.obj
 0001:0000a039       ?FireEventCleanup@COPOSPointCardRW@@IAEXXZ 1000b039 f i PointCardRWImpl.obj
 0001:0000a04f       ?FireEventSetup@COPOSPointCardRW@@IAE_NXZ 1000b04f f i PointCardRWImpl.obj
 0001:0000a083       ?FreezeEvents@COPOSPointCardRW@@MAGJH@Z 1000b083 f   PointCardRWImpl.obj
 0001:0000a0e3       ?GetOposProp@COPOSPointCardRW@@IAEJJPAFJ@Z 1000b0e3 f   PointCardRWImpl.obj
 0001:0000a106       ?GetOposProp@COPOSPointCardRW@@IAEJJPAJJ@Z 1000b106 f   PointCardRWImpl.obj
 0001:0000a1d5       ?GetOposProp@COPOSPointCardRW@@IAEJJPAPA_WJ@Z 1000b1d5 f   PointCardRWImpl.obj
 0001:0000a2b1       ?OnDraw@COPOSPointCardRW@@MAEJAAUATL_DRAWINFO@@@Z 1000b2b1 f   PointCardRWImpl.obj
 0001:0000a351       ?Open@COPOSPointCardRW@@UAGJPA_WPAJ@Z 1000b351 f   PointCardRWImpl.obj
 0001:0000aba4       ?PrintWrite@COPOSPointCardRW@@UAGJJJJPA_WPAJ@Z 1000bba4 f   PointCardRWImpl.obj
 0001:0000ac53       ?ReleaseDevice@COPOSPointCardRW@@UAGJPAJ@Z 1000bc53 f   PointCardRWImpl.obj
 0001:0000aca2       ?ResetStatistics@COPOSPointCardRW@@UAGJPA_WPAJ@Z 1000bca2 f   PointCardRWImpl.obj
 0001:0000acf9       ?RetrieveStatistics@COPOSPointCardRW@@UAGJPAPA_WPAJ@Z 1000bcf9 f   PointCardRWImpl.obj
 0001:0000ad50       ?RotatePrint@COPOSPointCardRW@@UAGJJPAJ@Z 1000bd50 f   PointCardRWImpl.obj
 0001:0000ad9f       ?SOProcessID@COPOSPointCardRW@@UAGJPAJ@Z 1000bd9f f   PointCardRWImpl.obj
 0001:0000adb3       ?SetCOFreezeEvents@COPOSPointCardRW@@IAEXF@Z 1000bdb3 f   PointCardRWImpl.obj
 0001:0000ae53       ?SetOposProp@COPOSPointCardRW@@IAEJJJJ@Z 1000be53 f   PointCardRWImpl.obj
 0001:0000af4a       ?SetOposProp@COPOSPointCardRW@@IAEJJPA_WJ@Z 1000bf4a f   PointCardRWImpl.obj
 0001:0000b04b       ?UpdateFirmware@COPOSPointCardRW@@UAGJPA_WPAJ@Z 1000c04b f   PointCardRWImpl.obj
 0001:0000b0a2       ?UpdateStatistics@COPOSPointCardRW@@UAGJPA_WPAJ@Z 1000c0a2 f   PointCardRWImpl.obj
 0001:0000b0f9       ?ValidateData@COPOSPointCardRW@@UAGJPA_WPAJ@Z 1000c0f9 f   PointCardRWImpl.obj
 0001:0000b150       ?get_BinaryConversion@COPOSPointCardRW@@UAGJPAJ@Z 1000c150 f   PointCardRWImpl.obj
 0001:0000b166       ?get_CapBold@COPOSPointCardRW@@UAGJPAF@Z 1000c166 f   PointCardRWImpl.obj
 0001:0000b17f       ?get_CapCardEntranceSensor@COPOSPointCardRW@@UAGJPAF@Z 1000c17f f   PointCardRWImpl.obj
 0001:0000b198       ?get_CapCharacterSet@COPOSPointCardRW@@UAGJPAJ@Z 1000c198 f   PointCardRWImpl.obj
 0001:0000b1b1       ?get_CapCleanCard@COPOSPointCardRW@@UAGJPAF@Z 1000c1b1 f   PointCardRWImpl.obj
 0001:0000b1ca       ?get_CapClearPrint@COPOSPointCardRW@@UAGJPAF@Z 1000c1ca f   PointCardRWImpl.obj
 0001:0000b1e3       ?get_CapCompareFirmwareVersion@COPOSPointCardRW@@UAGJPAF@Z 1000c1e3 f   PointCardRWImpl.obj
 0001:0000b1fc       ?get_CapDhigh@COPOSPointCardRW@@UAGJPAF@Z 1000c1fc f   PointCardRWImpl.obj
 0001:0000b215       ?get_CapDwide@COPOSPointCardRW@@UAGJPAF@Z 1000c215 f   PointCardRWImpl.obj
 0001:0000b22e       ?get_CapDwideDhigh@COPOSPointCardRW@@UAGJPAF@Z 1000c22e f   PointCardRWImpl.obj
 0001:0000b247       ?get_CapItalic@COPOSPointCardRW@@UAGJPAF@Z 1000c247 f   PointCardRWImpl.obj
 0001:0000b260       ?get_CapLeft90@COPOSPointCardRW@@UAGJPAF@Z 1000c260 f   PointCardRWImpl.obj
 0001:0000b279       ?get_CapMapCharacterSet@COPOSPointCardRW@@UAGJPAF@Z 1000c279 f   PointCardRWImpl.obj
 0001:0000b292       ?get_CapPowerReporting@COPOSPointCardRW@@UAGJPAJ@Z 1000c292 f   PointCardRWImpl.obj
 0001:0000b2ab       ?get_CapPrint@COPOSPointCardRW@@UAGJPAF@Z 1000c2ab f   PointCardRWImpl.obj
 0001:0000b2c4       ?get_CapPrintMode@COPOSPointCardRW@@UAGJPAF@Z 1000c2c4 f   PointCardRWImpl.obj
 0001:0000b2dd       ?get_CapRight90@COPOSPointCardRW@@UAGJPAF@Z 1000c2dd f   PointCardRWImpl.obj
 0001:0000b2f6       ?get_CapRotate180@COPOSPointCardRW@@UAGJPAF@Z 1000c2f6 f   PointCardRWImpl.obj
 0001:0000b30f       ?get_CapStatisticsReporting@COPOSPointCardRW@@UAGJPAF@Z 1000c30f f   PointCardRWImpl.obj
 0001:0000b328       ?get_CapTracksToRead@COPOSPointCardRW@@UAGJPAJ@Z 1000c328 f   PointCardRWImpl.obj
 0001:0000b341       ?get_CapTracksToWrite@COPOSPointCardRW@@UAGJPAJ@Z 1000c341 f   PointCardRWImpl.obj
 0001:0000b35a       ?get_CapUpdateFirmware@COPOSPointCardRW@@UAGJPAF@Z 1000c35a f   PointCardRWImpl.obj
 0001:0000b373       ?get_CapUpdateStatistics@COPOSPointCardRW@@UAGJPAF@Z 1000c373 f   PointCardRWImpl.obj
 0001:0000b38c       ?get_CardState@COPOSPointCardRW@@UAGJPAJ@Z 1000c38c f   PointCardRWImpl.obj
 0001:0000b3a5       ?get_CharacterSet@COPOSPointCardRW@@UAGJPAJ@Z 1000c3a5 f   PointCardRWImpl.obj
 0001:0000b3be       ?get_CharacterSetList@COPOSPointCardRW@@UAGJPAPA_W@Z 1000c3be f   PointCardRWImpl.obj
 0001:0000b3d7       ?get_CheckHealthText@COPOSPointCardRW@@UAGJPAPA_W@Z 1000c3d7 f   PointCardRWImpl.obj
 0001:0000b3f0       ?get_Claimed@COPOSPointCardRW@@UAGJPAF@Z 1000c3f0 f   PointCardRWImpl.obj
 0001:0000b406       ?get_ControlObjectDescription@COPOSPointCardRW@@UAGJPAPA_W@Z 1000c406 f   PointCardRWImpl.obj
 0001:0000b454       ?get_ControlObjectVersion@COPOSPointCardRW@@UAGJPAJ@Z 1000c454 f   PointCardRWImpl.obj
 0001:0000b467       ?get_DataCount@COPOSPointCardRW@@UAGJPAJ@Z 1000c467 f   PointCardRWImpl.obj
 0001:0000b47d       ?get_DataEventEnabled@COPOSPointCardRW@@UAGJPAF@Z 1000c47d f   PointCardRWImpl.obj
 0001:0000b493       ?get_DeviceDescription@COPOSPointCardRW@@UAGJPAPA_W@Z 1000c493 f   PointCardRWImpl.obj
 0001:0000b4ac       ?get_DeviceEnabled@COPOSPointCardRW@@UAGJPAF@Z 1000c4ac f   PointCardRWImpl.obj
 0001:0000b4c2       ?get_DeviceName@COPOSPointCardRW@@UAGJPAPA_W@Z 1000c4c2 f   PointCardRWImpl.obj
 0001:0000b4db       ?get_FontTypeFaceList@COPOSPointCardRW@@UAGJPAPA_W@Z 1000c4db f   PointCardRWImpl.obj
 0001:0000b4f4       ?get_FreezeEvents@COPOSPointCardRW@@UAGJPAF@Z 1000c4f4 f   PointCardRWImpl.obj
 0001:0000b50a       ?get_LineChars@COPOSPointCardRW@@UAGJPAJ@Z 1000c50a f   PointCardRWImpl.obj
 0001:0000b523       ?get_LineCharsList@COPOSPointCardRW@@UAGJPAPA_W@Z 1000c523 f   PointCardRWImpl.obj
 0001:0000b53c       ?get_LineHeight@COPOSPointCardRW@@UAGJPAJ@Z 1000c53c f   PointCardRWImpl.obj
 0001:0000b555       ?get_LineSpacing@COPOSPointCardRW@@UAGJPAJ@Z 1000c555 f   PointCardRWImpl.obj
 0001:0000b56e       ?get_LineWidth@COPOSPointCardRW@@UAGJPAJ@Z 1000c56e f   PointCardRWImpl.obj
 0001:0000b587       ?get_MapCharacterSet@COPOSPointCardRW@@UAGJPAF@Z 1000c587 f   PointCardRWImpl.obj
 0001:0000b5a0       ?get_MapMode@COPOSPointCardRW@@UAGJPAJ@Z 1000c5a0 f   PointCardRWImpl.obj
 0001:0000b5b9       ?get_MaxLine@COPOSPointCardRW@@UAGJPAJ@Z 1000c5b9 f   PointCardRWImpl.obj
 0001:0000b5d2       ?get_OpenResult@COPOSPointCardRW@@UAGJPAJ@Z 1000c5d2 f   PointCardRWImpl.obj
 0001:0000b5e9       ?get_OutputID@COPOSPointCardRW@@UAGJPAJ@Z 1000c5e9 f   PointCardRWImpl.obj
 0001:0000b5ff       ?get_PowerNotify@COPOSPointCardRW@@UAGJPAJ@Z 1000c5ff f   PointCardRWImpl.obj
 0001:0000b615       ?get_PowerState@COPOSPointCardRW@@UAGJPAJ@Z 1000c615 f   PointCardRWImpl.obj
 0001:0000b62b       ?get_PrintHeight@COPOSPointCardRW@@UAGJPAJ@Z 1000c62b f   PointCardRWImpl.obj
 0001:0000b644       ?get_ReadState1@COPOSPointCardRW@@UAGJPAJ@Z 1000c644 f   PointCardRWImpl.obj
 0001:0000b65d       ?get_ReadState2@COPOSPointCardRW@@UAGJPAJ@Z 1000c65d f   PointCardRWImpl.obj
 0001:0000b676       ?get_RecvLength1@COPOSPointCardRW@@UAGJPAJ@Z 1000c676 f   PointCardRWImpl.obj
 0001:0000b68f       ?get_RecvLength2@COPOSPointCardRW@@UAGJPAJ@Z 1000c68f f   PointCardRWImpl.obj
 0001:0000b6a8       ?get_ResultCode@COPOSPointCardRW@@UAGJPAJ@Z 1000c6a8 f   PointCardRWImpl.obj
 0001:0000b6e6       ?get_ResultCodeExtended@COPOSPointCardRW@@UAGJPAJ@Z 1000c6e6 f   PointCardRWImpl.obj
 0001:0000b6fc       ?get_ServiceObjectDescription@COPOSPointCardRW@@UAGJPAPA_W@Z 1000c6fc f   PointCardRWImpl.obj
 0001:0000b715       ?get_ServiceObjectVersion@COPOSPointCardRW@@UAGJPAJ@Z 1000c715 f   PointCardRWImpl.obj
 0001:0000b72b       ?get_SidewaysMaxChars@COPOSPointCardRW@@UAGJPAJ@Z 1000c72b f   PointCardRWImpl.obj
 0001:0000b744       ?get_SidewaysMaxLines@COPOSPointCardRW@@UAGJPAJ@Z 1000c744 f   PointCardRWImpl.obj
 0001:0000b75d       ?get_State@COPOSPointCardRW@@UAGJPAJ@Z 1000c75d f   PointCardRWImpl.obj
 0001:0000b789       ?get_Track1Data@COPOSPointCardRW@@UAGJPAPA_W@Z 1000c789 f   PointCardRWImpl.obj
 0001:0000b7a2       ?get_Track2Data@COPOSPointCardRW@@UAGJPAPA_W@Z 1000c7a2 f   PointCardRWImpl.obj
 0001:0000b7bb       ?get_Track3Data@COPOSPointCardRW@@UAGJPAPA_W@Z 1000c7bb f   PointCardRWImpl.obj
 0001:0000b7d4       ?get_Track4Data@COPOSPointCardRW@@UAGJPAPA_W@Z 1000c7d4 f   PointCardRWImpl.obj
 0001:0000b7ed       ?get_Track5Data@COPOSPointCardRW@@UAGJPAPA_W@Z 1000c7ed f   PointCardRWImpl.obj
 0001:0000b806       ?get_Track6Data@COPOSPointCardRW@@UAGJPAPA_W@Z 1000c806 f   PointCardRWImpl.obj
 0001:0000b81f       ?get_TracksToRead@COPOSPointCardRW@@UAGJPAJ@Z 1000c81f f   PointCardRWImpl.obj
 0001:0000b838       ?get_TracksToWrite@COPOSPointCardRW@@UAGJPAJ@Z 1000c838 f   PointCardRWImpl.obj
 0001:0000b851       ?get_Write1Data@COPOSPointCardRW@@UAGJPAPA_W@Z 1000c851 f   PointCardRWImpl.obj
 0001:0000b86a       ?get_Write2Data@COPOSPointCardRW@@UAGJPAPA_W@Z 1000c86a f   PointCardRWImpl.obj
 0001:0000b883       ?get_Write3Data@COPOSPointCardRW@@UAGJPAPA_W@Z 1000c883 f   PointCardRWImpl.obj
 0001:0000b89c       ?get_Write4Data@COPOSPointCardRW@@UAGJPAPA_W@Z 1000c89c f   PointCardRWImpl.obj
 0001:0000b8b5       ?get_Write5Data@COPOSPointCardRW@@UAGJPAPA_W@Z 1000c8b5 f   PointCardRWImpl.obj
 0001:0000b8ce       ?get_Write6Data@COPOSPointCardRW@@UAGJPAPA_W@Z 1000c8ce f   PointCardRWImpl.obj
 0001:0000b8e7       ?get_WriteState1@COPOSPointCardRW@@UAGJPAJ@Z 1000c8e7 f   PointCardRWImpl.obj
 0001:0000b900       ?get_WriteState2@COPOSPointCardRW@@UAGJPAJ@Z 1000c900 f   PointCardRWImpl.obj
 0001:0000b919       ?put_BinaryConversion@COPOSPointCardRW@@UAGJJ@Z 1000c919 f   PointCardRWImpl.obj
 0001:0000b92f       ?put_CharacterSet@COPOSPointCardRW@@UAGJJ@Z 1000c92f f   PointCardRWImpl.obj
 0001:0000b948       ?put_DataEventEnabled@COPOSPointCardRW@@UAGJF@Z 1000c948 f   PointCardRWImpl.obj
 0001:0000b965       ?put_DeviceEnabled@COPOSPointCardRW@@UAGJF@Z 1000c965 f   PointCardRWImpl.obj
 0001:0000b982       ?put_FreezeEvents@COPOSPointCardRW@@UAGJF@Z 1000c982 f   PointCardRWImpl.obj
 0001:0000b9ce       ?put_LineChars@COPOSPointCardRW@@UAGJJ@Z 1000c9ce f   PointCardRWImpl.obj
 0001:0000b9e7       ?put_LineHeight@COPOSPointCardRW@@UAGJJ@Z 1000c9e7 f   PointCardRWImpl.obj
 0001:0000ba00       ?put_LineSpacing@COPOSPointCardRW@@UAGJJ@Z 1000ca00 f   PointCardRWImpl.obj
 0001:0000ba19       ?put_MapCharacterSet@COPOSPointCardRW@@UAGJF@Z 1000ca19 f   PointCardRWImpl.obj
 0001:0000ba39       ?put_MapMode@COPOSPointCardRW@@UAGJJ@Z 1000ca39 f   PointCardRWImpl.obj
 0001:0000ba52       ?put_PowerNotify@COPOSPointCardRW@@UAGJJ@Z 1000ca52 f   PointCardRWImpl.obj
 0001:0000ba68       ?put_TracksToRead@COPOSPointCardRW@@UAGJJ@Z 1000ca68 f   PointCardRWImpl.obj
 0001:0000ba81       ?put_TracksToWrite@COPOSPointCardRW@@UAGJJ@Z 1000ca81 f   PointCardRWImpl.obj
 0001:0000ba9a       ?put_Write1Data@COPOSPointCardRW@@UAGJPA_W@Z 1000ca9a f   PointCardRWImpl.obj
 0001:0000bab3       ?put_Write2Data@COPOSPointCardRW@@UAGJPA_W@Z 1000cab3 f   PointCardRWImpl.obj
 0001:0000bacc       ?put_Write3Data@COPOSPointCardRW@@UAGJPA_W@Z 1000cacc f   PointCardRWImpl.obj
 0001:0000bae5       ?put_Write4Data@COPOSPointCardRW@@UAGJPA_W@Z 1000cae5 f   PointCardRWImpl.obj
 0001:0000bafe       ?put_Write5Data@COPOSPointCardRW@@UAGJPA_W@Z 1000cafe f   PointCardRWImpl.obj
 0001:0000bb17       ?put_Write6Data@COPOSPointCardRW@@UAGJPA_W@Z 1000cb17 f   PointCardRWImpl.obj
 0001:0000bb30       ?s_EventWindowProc@COPOSPointCardRW@@KGJPAUHWND__@@IIJ@Z 1000cb30 f i PointCardRWImpl.obj
 0001:0000bb82       ??_U@YAPAXI@Z              1000cb82 f   LIBCMT:new_array.obj
 0001:0000bb8b       ??3@YAXPAXI@Z              1000cb8b f   LIBCMT:delete_scalar_size.obj
 0001:0000bb99       ??_V@YAXPAX@Z              1000cb99 f   LIBCMT:delete_array.obj
 0001:0000bb9e       ??_V@YAXPAXI@Z             1000cb9e f   LIBCMT:delete_array_size.obj
 0001:0000bbf0       ___scrt_acquire_startup_lock 1000cbf0 f   LIBCMT:utility.obj
 0001:0000bc22       ___scrt_dllmain_after_initialize_c 1000cc22 f   LIBCMT:utility.obj
 0001:0000bc4d       ___scrt_dllmain_before_initialize_c 1000cc4d f   LIBCMT:utility.obj
 0001:0000bc5b       ___scrt_dllmain_crt_thread_attach 1000cc5b f   LIBCMT:utility.obj
 0001:0000bc7a       ___scrt_dllmain_crt_thread_detach 1000cc7a f   LIBCMT:utility.obj
 0001:0000bc87       ___scrt_dllmain_exception_filter 1000cc87 f   LIBCMT:utility.obj
 0001:0000bcbb       ___scrt_dllmain_uninitialize_c 1000ccbb f   LIBCMT:utility.obj
 0001:0000bcde       ___scrt_dllmain_uninitialize_critical 1000ccde f   LIBCMT:utility.obj
 0001:0000bceb       ___scrt_initialize_crt     1000cceb f   LIBCMT:utility.obj
 0001:0000bd24       ___scrt_initialize_onexit_tables 1000cd24 f   LIBCMT:utility.obj
 0001:0000bdab       ___scrt_is_nonwritable_in_current_image 1000cdab f   LIBCMT:utility.obj
 0001:0000be3f       ___scrt_release_startup_lock 1000ce3f f   LIBCMT:utility.obj
 0001:0000be5c       ___scrt_uninitialize_crt   1000ce5c f   LIBCMT:utility.obj
 0001:0000be84       __onexit                   1000ce84 f   LIBCMT:utility.obj
 0001:0000beb1       _atexit                    1000ceb1 f   LIBCMT:utility.obj
 0001:0000bec6       ??3@YAXPAX@Z               1000cec6 f   LIBCMT:delete_scalar.obj
 0001:0000bf90       __Init_thread_footer       1000cf90 f   LIBCMT:thread_safe_statics.obj
 0001:0000bfda       __Init_thread_header       1000cfda f   LIBCMT:thread_safe_statics.obj
 0001:0000c02c       __Init_thread_notify       1000d02c f   LIBCMT:thread_safe_statics.obj
 0001:0000c062       __Init_thread_wait         1000d062 f   LIBCMT:thread_safe_statics.obj
 0001:0000c0b0       ___raise_securityfailure   1000d0b0 f   LIBCMT:gs_report.obj
 0001:0000c0d8       ___report_gsfailure        1000d0d8 f   LIBCMT:gs_report.obj
 0001:0000c1d1       ___report_rangecheckfailure 1000d1d1 f   LIBCMT:gs_report.obj
 0001:0000c1dd       ___report_securityfailure  1000d1dd f   LIBCMT:gs_report.obj
 0001:0000c2ab       ??2@YAPAXIABUnothrow_t@std@@@Z 1000d2ab f   LIBCMT:new_scalar_nothrow.obj
 0001:0000c300       ??_U@YAPAXIABUnothrow_t@std@@@Z 1000d300 f   LIBCMT:new_array_nothrow.obj
 0001:0000c309       @__security_check_cookie@4 1000d309 f   LIBCMT:secchk.obj
 0001:0000c320       __SEH_prolog4_GS           1000d320 f   LIBCMT:sehprolg4gs.obj
 0001:0000c367       __SEH_epilog4_GS           1000d367 f   LIBCMT:sehprolg4gs.obj
 0001:0000c380       __alloca_probe_16          1000d380 f   LIBCMT:alloca16.obj
 0001:0000c396       __alloca_probe_8           1000d396     LIBCMT:alloca16.obj
 0001:0000c3b0       __alloca_probe             1000d3b0 f   LIBCMT:chkstk.obj
 0001:0000c3b0       __chkstk                   1000d3b0 f   LIBCMT:chkstk.obj
 0001:0000c71d       __DllMainCRTStartup@12     1000d71d f   LIBCMT:dll_dllmain.obj
 0001:0000c740       ??2@YAPAXI@Z               1000d740 f   LIBCMT:new_scalar.obj
 0001:0000c770       ___isa_available_init      1000d770 f   LIBCMT:cpu_disp.obj
 0001:0000c940       ___scrt_is_ucrt_dll_in_use 1000d940 f   LIBCMT:ucrt_detection.obj
 0001:0000c94c       ___scrt_fastfail           1000d94c f   LIBCMT:utility_desktop.obj
 0001:0000ca66       __crt_debugger_hook        1000da66 f   LIBCMT:utility_desktop.obj
 0001:0000ca70       __SEH_prolog4              1000da70 f   LIBCMT:sehprolg4.obj
 0001:0000cab4       __SEH_epilog4              1000dab4 f   LIBCMT:sehprolg4.obj
 0001:0000cac8       @_guard_check_icall_nop@4  1000dac8 f i LIBCMT:guard_support.obj
 0001:0000cb18       ___security_init_cookie    1000db18 f   LIBCMT:gs_support.obj
 0001:0000cb63       ?__scrt_initialize_type_info@@YAXXZ 1000db63 f   LIBCMT:tncleanup.obj
 0001:0000cb6f       ?__scrt_uninitialize_type_info@@YAXXZ 1000db6f f   LIBCMT:tncleanup.obj
 0001:0000cb7b       ___local_stdio_scanf_options 1000db7b f i LIBCMT:default_local_stdio_options.obj
 0001:0000cb81       ___scrt_initialize_default_local_stdio_options 1000db81 f   LIBCMT:default_local_stdio_options.obj
 0001:0000cb9e       ___scrt_get_dyn_tls_init_callback 1000db9e f   LIBCMT:dyn_tls_init.obj
 0001:0000cba4       __RTC_Initialize           1000dba4 f   LIBCMT:initsect.obj
 0001:0000cbd0       __RTC_Terminate            1000dbd0 f   LIBCMT:initsect.obj
 0001:0000cbfc       ??0bad_alloc@std@@QAE@ABV01@@Z 1000dbfc f i LIBCMT:throw_bad_alloc.obj
 0001:0000cc17       ??0bad_alloc@std@@QAE@XZ   1000dc17 f i LIBCMT:throw_bad_alloc.obj
 0001:0000cc2f       ??0bad_array_new_length@std@@QAE@ABV01@@Z 1000dc2f f i LIBCMT:throw_bad_alloc.obj
 0001:0000cc4a       ??0bad_array_new_length@std@@QAE@XZ 1000dc4a f i LIBCMT:throw_bad_alloc.obj
 0001:0000cc62       ??0exception@std@@QAE@ABV01@@Z 1000dc62 f i LIBCMT:throw_bad_alloc.obj
 0001:0000cc8e       ??1bad_array_new_length@std@@UAE@XZ 1000dc8e f i LIBCMT:throw_bad_alloc.obj
 0001:0000cc8e       ??1bad_exception@std@@UAE@XZ 1000dc8e f i libvcruntime:frame.obj
 0001:0000cc8e       ??1bad_alloc@std@@UAE@XZ   1000dc8e f i LIBCMT:throw_bad_alloc.obj
 0001:0000cc9f       ??_Gbad_exception@std@@UAEPAXI@Z 1000dc9f f i libvcruntime:frame.obj
 0001:0000cc9f       ??_Gbad_alloc@std@@UAEPAXI@Z 1000dc9f f i LIBCMT:throw_bad_alloc.obj
 0001:0000cc9f       ??_Ebad_exception@std@@UAEPAXI@Z 1000dc9f f i libvcruntime:frame.obj
 0001:0000cc9f       ??_Gexception@std@@UAEPAXI@Z 1000dc9f f i LIBCMT:throw_bad_alloc.obj
 0001:0000cc9f       ??_Ebad_alloc@std@@UAEPAXI@Z 1000dc9f f i LIBCMT:throw_bad_alloc.obj
 0001:0000cc9f       ??_Ebad_array_new_length@std@@UAEPAXI@Z 1000dc9f f i LIBCMT:throw_bad_alloc.obj
 0001:0000cc9f       ??_Eexception@std@@UAEPAXI@Z 1000dc9f f i LIBCMT:throw_bad_alloc.obj
 0001:0000cc9f       ??_Gbad_array_new_length@std@@UAEPAXI@Z 1000dc9f f i LIBCMT:throw_bad_alloc.obj
 0001:0000cccc       ?__scrt_throw_std_bad_alloc@@YAXXZ 1000dccc f   LIBCMT:throw_bad_alloc.obj
 0001:0000cce9       ?__scrt_throw_std_bad_array_new_length@@YAXXZ 1000dce9 f   LIBCMT:throw_bad_alloc.obj
 0001:0000cd06       ?what@exception@std@@UBEPBDXZ 1000dd06 f i LIBCMT:throw_bad_alloc.obj
 0001:0000cd13       ??_Gtype_info@@UAEPAXI@Z   1000dd13 f i LIBCMT:std_type_info_static.obj
 0001:0000cd13       ??_Etype_info@@UAEPAXI@Z   1000dd13 f i LIBCMT:std_type_info_static.obj
 0001:0000cd36       ??0CAtlBaseModule@ATL@@QAE@XZ 1000dd36 f   atls:atlbase.obj
 0001:0000cd89       ??0_ATL_BASE_MODULE70@ATL@@QAE@XZ 1000dd89 f i atls:atlbase.obj
 0001:0000cdac       ??1CAtlBaseModule@ATL@@QAE@XZ 1000ddac f   atls:atlbase.obj
 0001:0000ce99       ?Init@_stdcallthunk@ATL@@QAEHKPAX@Z 1000de99 f i atls:atlthunk.obj
 0001:0000cece       ?__AllocStdCallThunk_cmn@@YAPAXXZ 1000dece f   atls:atlthunk.obj
 0001:0000cf94       ?__FreeStdCallThunk_cmn@@YAXPAX@Z 1000df94 f   atls:atlthunk.obj
 0001:0000d02f       _AtlThunk_AllocateData@0   1000e02f f   atls:atlthunk.obj
 0001:0000d094       _AtlThunk_DataToCode@4     1000e094 f   atls:atlthunk.obj
 0001:0000d0db       _AtlThunk_FreeData@4       1000e0db f   atls:atlthunk.obj
 0001:0000d131       _AtlThunk_InitData@12      1000e131 f   atls:atlthunk.obj
 0001:0000d180       __get_purecall_handler     1000e180 f   libvcruntime:purevirt.obj
 0001:0000d186       __purecall                 1000e186 f   libvcruntime:purevirt.obj
 0001:0000d1a2       _wcsstr                    1000e1a2 f   libvcruntime:wcsstr.obj
 0001:0000d450       __except_handler4          1000e450 f   libvcruntime:chandler4.obj
 0001:0000d5ae       _memcmp                    1000e5ae f   libvcruntime:memcmp.obj
 0001:0000e4c0       _memcpy                    1000f4c0 f   libvcruntime:memcpy.obj
 0001:0000ea40       _memset                    1000fa40 f   libvcruntime:memset.obj
 0001:0000eb9a       ___vcrt_initialize         1000fb9a f   libvcruntime:initialization.obj
 0001:0000ebb9       ___vcrt_thread_attach      1000fbb9 f   libvcruntime:initialization.obj
 0001:0000ebc4       ___vcrt_thread_detach      1000fbc4 f   libvcruntime:initialization.obj
 0001:0000ebcf       ___vcrt_uninitialize       1000fbcf f   libvcruntime:initialization.obj
 0001:0000ebe6       ___vcrt_uninitialize_critical 1000fbe6 f   libvcruntime:initialization.obj
 0001:0000ebee       ?GetRangeOfTrysToCheck@__FrameHandler3@@SA?AU?$pair@Viterator@TryBlockMap@__FrameHandler3@@V123@@std@@AAVTryBlockMap@1@HPAXPBU_s_FuncInfo@@H@Z 1000fbee f   libvcruntime:trnsctrl.obj
 0001:0000ec5e       ?_CallCatchBlock2@@YAPAXPAUEHRegistrationNode@@PBU_s_FuncInfo@@PAXHK@Z 1000fc5e f   libvcruntime:trnsctrl.obj
 0001:0000ecbc       ?_CallSETranslator@@YAHPAUEHExceptionRecord@@PAUEHRegistrationNode@@PAX2PBU_s_FuncInfo@@H1@Z 1000fcbc f   libvcruntime:trnsctrl.obj
 0001:0000eda2       ?_JumpToContinuation@@YGXPAXPAUEHRegistrationNode@@@Z 1000fda2 f   libvcruntime:trnsctrl.obj
 0001:0000edd2       ?_UnwindNestedFrames@@YGXPAUEHRegistrationNode@@PAUEHExceptionRecord@@@Z 1000fdd2 f   libvcruntime:trnsctrl.obj
 0001:0000ee25       __CatchGuardHandler        1000fe25 f   libvcruntime:trnsctrl.obj
 0001:0000ee56       __CreateFrameInfo          1000fe56 f   libvcruntime:trnsctrl.obj
 0001:0000ee7a       __FindAndUnlinkFrame       1000fe7a f   libvcruntime:trnsctrl.obj
 0001:0000eec2       __TranslatorGuardHandler   1000fec2 f   libvcruntime:trnsctrl.obj
 0001:0000ef5f       ___CxxFrameHandler3        1000ff5f f   libvcruntime:trnsctrl.obj
 0001:0000ef95       ___DestructExceptionObject 1000ff95 f   libvcruntime:ehhelpers.obj
 0001:0000f036       ?_CallMemberFunction0@@YGXQAX0@Z 10010036 f i libvcruntime:ehhelpers.obj
 0001:0000f09b       __IsExceptionObjectToBeDestroyed 1001009b f   libvcruntime:ehhelpers.obj
 0001:0000f0c1       ___AdjustPointer           100100c1 f   libvcruntime:ehhelpers.obj
 0001:0000f0e6       ___FrameUnwindFilter       100100e6 f   libvcruntime:ehhelpers.obj
 0001:0000f13c       ___std_type_info_compare   1001013c f   libvcruntime:std_type_info.obj
 0001:0000f178       ___std_type_info_destroy_list 10010178 f   libvcruntime:std_type_info.obj
 0001:0000f19b       ___std_exception_copy      1001019b f   libvcruntime:std_exception.obj
 0001:0000f1fe       ___std_exception_destroy   100101fe f   libvcruntime:std_exception.obj
 0001:0000f21d       __CxxThrowException@8      1001021d f   libvcruntime:throw.obj
 0001:0000f290       _memmove                   10010290 f   libvcruntime:memmove.obj
 0001:0000f810       __local_unwind4            10010810 f   libvcruntime:exsup4.obj
 0001:0000f8e4       __seh_longjmp_unwind4@4    100108e4 f   libvcruntime:exsup4.obj
 0001:0000f90c       @_EH4_CallFilterFunc@8     1001090c f   libvcruntime:exsup4.obj
 0001:0000f924       @_EH4_TransferToHandler@8  10010924 f   libvcruntime:exsup4.obj
 0001:0000f940       @_EH4_GlobalUnwind2@8      10010940 f   libvcruntime:exsup4.obj
 0001:0000f95c       @_EH4_LocalUnwind@16       1001095c f   libvcruntime:exsup4.obj
 0001:0000f973       ___except_validate_context_record 10010973 f   libvcruntime:jbcxrval.obj
 0001:0000f9a3       ___except_validate_jump_buffer 100109a3 f   libvcruntime:jbcxrval.obj
 0001:0000f9d0       ___vcrt_freefls@4          100109d0 f   libvcruntime:per_thread_data.obj
 0001:0000f9ec       ___vcrt_freeptd            100109ec f   libvcruntime:per_thread_data.obj
 0001:0000fa22       ___vcrt_getptd             10010a22 f   libvcruntime:per_thread_data.obj
 0001:0000fa30       ___vcrt_getptd_noexit      10010a30 f   libvcruntime:per_thread_data.obj
 0001:0000fac2       ___vcrt_initialize_ptd     10010ac2 f   libvcruntime:per_thread_data.obj
 0001:0000faf5       ___vcrt_uninitialize_ptd   10010af5 f   libvcruntime:per_thread_data.obj
 0001:0000fb10       ___vcrt_initialize_locks   10010b10 f   libvcruntime:locks.obj
 0001:0000fb4c       ___vcrt_uninitialize_locks 10010b4c f   libvcruntime:locks.obj
 0001:000102be       ??$TypeMatchHelper@V__FrameHandler3@@@@YAHPBU_s_HandlerType@@PBU_s_CatchableType@@PBU_s_ThrowInfo@@@Z 100112be f i libvcruntime:frame.obj
 0001:0001034c       ??$__InternalCxxFrameHandler@V__FrameHandler3@@@@YA?AW4_EXCEPTION_DISPOSITION@@PAUEHExceptionRecord@@PAUEHRegistrationNode@@PAU_CONTEXT@@PAXPBU_s_FuncInfo@@H1E@Z 1001134c f i libvcruntime:frame.obj
 0001:0001044e       ??0bad_exception@std@@QAE@ABV01@@Z 1001144e f i libvcruntime:frame.obj
 0001:00010469       ??0bad_exception@std@@QAE@XZ 10011469 f i libvcruntime:frame.obj
 0001:00010481       ??8type_info@@QBE_NABV0@@Z 10011481 f i libvcruntime:frame.obj
 0001:000106ed       ?FrameUnwindToEmptyState@__FrameHandler3@@SAXPAUEHRegistrationNode@@PAXPBU_s_FuncInfo@@@Z 100116ed f   libvcruntime:frame.obj
 0001:00010705       ?FrameUnwindToState@__FrameHandler3@@SAXPAUEHRegistrationNode@@PAXPBU_s_FuncInfo@@H@Z 10011705 f   libvcruntime:frame.obj
 0001:00010887       ?_CallMemberFunction1@@YGXQAX00@Z 10011887 f i libvcruntime:frame.obj
 0001:00010897       ?_CallMemberFunction2@@YGXQAX00H@Z 10011897 f i libvcruntime:frame.obj
 0001:000108aa       ?getESTypes@__FrameHandler3@@SAPBU_s_ESTypeList@@PBU_s_FuncInfo@@@Z 100118aa f i libvcruntime:frame.obj
 0001:000108c0       __CallSettingFrame@12      100118c0 f   libvcruntime:lowhelpr.obj
 0001:000108e7       __NLG_Return               100118e7     libvcruntime:lowhelpr.obj
 0001:00010910       __global_unwind2           10011910 f   libvcruntime:exsup.obj
 0001:00010976       __local_unwind2            10011976 f   libvcruntime:exsup.obj
 0001:000109fa       __abnormal_termination     100119fa f   libvcruntime:exsup.obj
 0001:00010a20       __NLG_Notify1              10011a20 f   libvcruntime:exsup.obj
 0001:00010a2c       __NLG_Notify               10011a2c f   libvcruntime:exsup.obj
 0001:00010a43       __NLG_Dispatch2            10011a43     libvcruntime:exsup.obj
 0001:00010a43       __NLG_Dispatch             10011a43     libvcruntime:exsup.obj
 0001:00010a4b       __NLG_Call                 10011a4b f   libvcruntime:exsup.obj
 0001:00010a4d       __NLG_Return2              10011a4d     libvcruntime:exsup.obj
 0001:00010b31       ___vcrt_FlsAlloc           10011b31 f   libvcruntime:winapi_downlevel.obj
 0001:00010b6c       ___vcrt_FlsFree            10011b6c f   libvcruntime:winapi_downlevel.obj
 0001:00010ba7       ___vcrt_FlsGetValue        10011ba7 f   libvcruntime:winapi_downlevel.obj
 0001:00010be2       ___vcrt_FlsSetValue        10011be2 f   libvcruntime:winapi_downlevel.obj
 0001:00010c20       ___vcrt_InitializeCriticalSectionEx 10011c20 f   libvcruntime:winapi_downlevel.obj
 0001:00010c67       _unexpected                10011c67 f   libvcruntime:unexpected.obj
 0001:00010c84       ?GetCurrentState@__FrameHandler3@@SAHPAUEHRegistrationNode@@PAXPBU_s_FuncInfo@@@Z 10011c84 f   libvcruntime:ehstate.obj
 0001:00010ca1       ?SetState@__FrameHandler3@@SAXPAUEHRegistrationNode@@PBU_s_FuncInfo@@H@Z 10011ca1 f   libvcruntime:ehstate.obj
 0001:00010caf       _free                      10011caf f   libucrt:free.obj
 0001:00010cca       ___acrt_call_reportfault   10011cca f   libucrt:invalid_parameter.obj
 0001:00010e03       ___acrt_initialize_invalid_parameter_handler 10011e03 f   libucrt:invalid_parameter.obj
 0001:00010e12       __invalid_parameter        10011e12 f   libucrt:invalid_parameter.obj
 0001:00010e76       __invalid_parameter_noinfo 10011e76 f   libucrt:invalid_parameter.obj
 0001:00010e86       __invoke_watson            10011e86 f   libucrt:invalid_parameter.obj
 0001:00010eba       ___acrt_errno_from_os_error 10011eba f   libucrt:errno.obj
 0001:00010efd       ___acrt_errno_map_os_error 10011efd f   libucrt:errno.obj
 0001:00010f20       ___doserrno                10011f20 f   libucrt:errno.obj
 0001:00010f33       __errno                    10011f33 f   libucrt:errno.obj
 0001:00010f46       _calloc                    10011f46 f   libucrt:calloc.obj
 0001:00010f51       _malloc                    10011f51 f   libucrt:malloc.obj
 0001:00010f5c       __recalloc                 10011f5c f   libucrt:recalloc.obj
 0001:00010f67       __recalloc_base            10011f67 f   libucrt:recalloc.obj
 0001:00010fd4       __resetstkoflw             10011fd4 f   libucrt:resetstk.obj
 0001:00011099       _wcscat_s                  10012099 f   libucrt:wcscat_s.obj
 0001:0001110e       _wcscpy_s                  1001210e f   libucrt:wcscpy_s.obj
 0001:0001123d       _wcsncpy_s                 1001223d f   libucrt:wcsncpy_s.obj
 0001:00011449       ??$count@D@formatting_buffer@__crt_stdio_output@@QBEIXZ 10012449 f i libucrt:output.obj
 0001:00011461       ??$count@_W@formatting_buffer@__crt_stdio_output@@QBEIXZ 10012461 f i libucrt:output.obj
 0001:0001147a       ??$ensure_buffer_is_big_enough@D@formatting_buffer@__crt_stdio_output@@QAE_NI@Z 1001247a f i libucrt:output.obj
 0001:000114f7       ??$ensure_buffer_is_big_enough@_W@formatting_buffer@__crt_stdio_output@@QAE_NI@Z 100124f7 f i libucrt:output.obj
 0001:00011575       ??$is_wide_character_specifier@_W@__crt_stdio_output@@YA_N_K_WW4length_modifier@0@@Z 10012575 f i libucrt:output.obj
 0001:000115c3       ??$scratch_data@D@formatting_buffer@__crt_stdio_output@@QAEPADXZ 100125c3 f i libucrt:output.obj
 0001:000115e1       ??$type_case_integer_parse_into_buffer@I@?$output_processor@_WV?$string_output_adapter@_W@__crt_stdio_output@@V?$format_validation_base@_WV?$string_output_adapter@_W@__crt_stdio_output@@@2@@__crt_stdio_output@@AAEXII_N@Z 100125e1 f i libucrt:output.obj
 0001:00011668       ??$type_case_integer_parse_into_buffer@_K@?$output_processor@_WV?$string_output_adapter@_W@__crt_stdio_output@@V?$format_validation_base@_WV?$string_output_adapter@_W@__crt_stdio_output@@@2@@__crt_stdio_output@@AAEX_KI_N@Z 10012668 f i libucrt:output.obj
 0001:0001170a       ??$write_multiple_characters@V?$string_output_adapter@_W@__crt_stdio_output@@D@__crt_stdio_output@@YAXABV?$string_output_adapter@_W@0@DHQAH@Z 1001270a f i libucrt:output.obj
 0001:0001173b       ??0?$common_data@_W@__crt_stdio_output@@IAE@XZ 1001273b f i libucrt:output.obj
 0001:00011785       ??0?$output_adapter_data@_WV?$string_output_adapter@_W@__crt_stdio_output@@@__crt_stdio_output@@IAE@ABV?$string_output_adapter@_W@1@_KQB_WQAU__crt_locale_pointers@@QAD@Z 10012785 f i libucrt:output.obj
 0001:000117c1       ??0_LocaleUpdate@@QAE@QAU__crt_locale_pointers@@@Z 100127c1 f i libucrt:output.obj
 0001:00011844       ??1formatting_buffer@__crt_stdio_output@@QAE@XZ 10012844 f i libucrt:output.obj
 0001:0001185e       ??4?$__crt_unique_heap_ptr@DU__crt_internal_free_policy@@@@QAEAAV0@$$QAV0@@Z 1001285e f i libucrt:output.obj
 0001:00011890       ?crop_zeroes@__crt_stdio_output@@YAXPADQAU__crt_locale_pointers@@@Z 10012890 f i libucrt:output.obj
 0001:00011911       ?find_next_state@?$output_processor@_WV?$string_output_adapter@_W@__crt_stdio_output@@V?$format_validation_base@_WV?$string_output_adapter@_W@__crt_stdio_output@@@2@@__crt_stdio_output@@ABE?AW4state@2@_WW432@@Z 10012911 f i libucrt:output.obj
 0001:00011950       ?force_decimal_point@__crt_stdio_output@@YAXPADQAU__crt_locale_pointers@@@Z 10012950 f i libucrt:output.obj
 0001:000119b5       ?parse_int_from_format_string@?$output_processor@_WV?$string_output_adapter@_W@__crt_stdio_output@@V?$format_validation_base@_WV?$string_output_adapter@_W@__crt_stdio_output@@@2@@__crt_stdio_output@@AAE_NQAH@Z 100129b5 f i libucrt:output.obj
 0001:00011a2b       ?process@?$output_processor@_WV?$string_output_adapter@_W@__crt_stdio_output@@V?$format_validation_base@_WV?$string_output_adapter@_W@__crt_stdio_output@@@2@@__crt_stdio_output@@QAEHXZ 10012a2b f i libucrt:output.obj
 0001:00011b53       ?state_case_flag@?$output_processor@_WV?$string_output_adapter@_W@__crt_stdio_output@@V?$format_validation_base@_WV?$string_output_adapter@_W@__crt_stdio_output@@@2@@__crt_stdio_output@@AAE_NXZ 10012b53 f i libucrt:output.obj
 0001:00011b90       ?state_case_normal@?$output_processor@_WV?$string_output_adapter@_W@__crt_stdio_output@@V?$format_validation_base@_WV?$string_output_adapter@_W@__crt_stdio_output@@@2@@__crt_stdio_output@@AAE_NXZ 10012b90 f i libucrt:output.obj
 0001:00011baf       ?state_case_normal_common@?$output_processor@_WV?$string_output_adapter@_W@__crt_stdio_output@@V?$format_validation_base@_WV?$string_output_adapter@_W@__crt_stdio_output@@@2@@__crt_stdio_output@@AAE_NXZ 10012baf f i libucrt:output.obj
 0001:00011bca       ?state_case_precision@?$output_processor@_WV?$string_output_adapter@_W@__crt_stdio_output@@V?$format_validation_base@_WV?$string_output_adapter@_W@__crt_stdio_output@@@2@@__crt_stdio_output@@AAE_NXZ 10012bca f i libucrt:output.obj
 0001:00011bf1       ?state_case_size@?$output_processor@_WV?$string_output_adapter@_W@__crt_stdio_output@@V?$format_validation_base@_WV?$string_output_adapter@_W@__crt_stdio_output@@@2@@__crt_stdio_output@@AAE_NXZ 10012bf1 f i libucrt:output.obj
 0001:00011d69       ?state_case_type@?$output_processor@_WV?$string_output_adapter@_W@__crt_stdio_output@@V?$format_validation_base@_WV?$string_output_adapter@_W@__crt_stdio_output@@@2@@__crt_stdio_output@@AAE_NXZ 10012d69 f i libucrt:output.obj
 0001:00011fc6       ?state_case_width@?$output_processor@_WV?$string_output_adapter@_W@__crt_stdio_output@@V?$format_validation_base@_WV?$string_output_adapter@_W@__crt_stdio_output@@@2@@__crt_stdio_output@@AAE_NXZ 10012fc6 f i libucrt:output.obj
 0001:00012000       ?to_integer_size@__crt_stdio_output@@YAIW4length_modifier@1@@Z 10013000 f i libucrt:output.obj
 0001:0001205c       ?type_case_Z@?$output_processor@_WV?$string_output_adapter@_W@__crt_stdio_output@@V?$format_validation_base@_WV?$string_output_adapter@_W@__crt_stdio_output@@@2@@__crt_stdio_output@@AAE_NXZ 1001305c f i libucrt:output.obj
 0001:000120b6       ?type_case_a@?$output_processor@_WV?$string_output_adapter@_W@__crt_stdio_output@@V?$format_validation_base@_WV?$string_output_adapter@_W@__crt_stdio_output@@@2@@__crt_stdio_output@@AAE_NXZ 100130b6 f i libucrt:output.obj
 0001:0001221d       ?type_case_c_tchar@?$output_processor@_WV?$string_output_adapter@_W@__crt_stdio_output@@V?$format_validation_base@_WV?$string_output_adapter@_W@__crt_stdio_output@@@2@@__crt_stdio_output@@AAE_N_W@Z 1001321d f i libucrt:output.obj
 0001:000122b3       ?type_case_integer@?$output_processor@_WV?$string_output_adapter@_W@__crt_stdio_output@@V?$format_validation_base@_WV?$string_output_adapter@_W@__crt_stdio_output@@@2@@__crt_stdio_output@@AAE_NI_N@Z 100132b3 f i libucrt:output.obj
 0001:00012408       ?type_case_n@?$output_processor@_WV?$string_output_adapter@_W@__crt_stdio_output@@V?$format_validation_base@_WV?$string_output_adapter@_W@__crt_stdio_output@@@2@@__crt_stdio_output@@AAE_NXZ 10013408 f i libucrt:output.obj
 0001:0001247c       ?type_case_o@?$output_processor@_WV?$string_output_adapter@_W@__crt_stdio_output@@V?$format_validation_base@_WV?$string_output_adapter@_W@__crt_stdio_output@@@2@@__crt_stdio_output@@AAE_NXZ 1001347c f i libucrt:output.obj
 0001:0001249b       ?type_case_p@?$output_processor@_WV?$string_output_adapter@_W@__crt_stdio_output@@V?$format_validation_base@_WV?$string_output_adapter@_W@__crt_stdio_output@@@2@@__crt_stdio_output@@AAE_NXZ 1001349b f i libucrt:output.obj
 0001:000124b3       ?type_case_s@?$output_processor@_WV?$string_output_adapter@_W@__crt_stdio_output@@V?$format_validation_base@_WV?$string_output_adapter@_W@__crt_stdio_output@@@2@@__crt_stdio_output@@AAE_NXZ 100134b3 f i libucrt:output.obj
 0001:00012526       ?type_case_s_compute_narrow_string_length@?$output_processor@_WV?$string_output_adapter@_W@__crt_stdio_output@@V?$format_validation_base@_WV?$string_output_adapter@_W@__crt_stdio_output@@@2@@__crt_stdio_output@@ABEHH_W@Z 10013526 f i libucrt:output.obj
 0001:0001256d       ?validate@?$c_string_character_source@_W@__crt_strtox@@QBE_NXZ 1001356d f i libucrt:atox.obj
 0001:0001256d       ?validate@?$string_output_adapter@_W@__crt_stdio_output@@QBE_NXZ 1001356d f i libucrt:output.obj
 0001:00012588       ?validate_and_update_state_at_end_of_format_string@?$format_validation_base@_WV?$string_output_adapter@_W@__crt_stdio_output@@@__crt_stdio_output@@IBE_NXZ 10013588 f i libucrt:output.obj
 0001:000125aa       ?write_character@?$string_output_adapter@_W@__crt_stdio_output@@QBE_N_WQAH@Z 100135aa f i libucrt:output.obj
 0001:000125ef       ?write_stored_string_tchar@?$output_processor@_WV?$string_output_adapter@_W@__crt_stdio_output@@V?$format_validation_base@_WV?$string_output_adapter@_W@__crt_stdio_output@@@2@@__crt_stdio_output@@AAE_N_W@Z 100135ef f i libucrt:output.obj
 0001:0001267c       ?write_string@?$string_output_adapter@_W@__crt_stdio_output@@QBEXQB_WHQAHAAV__crt_deferred_errno_cache@@@Z 1001367c f i libucrt:output.obj
 0001:000126ed       ___acrt_locale_get_ctype_array_value 100136ed f i libucrt:output.obj
 0001:0001270f       ___stdio_common_vswprintf_s 1001370f f   libucrt:output.obj
 0001:00012733       __seh_filter_dll           10013733 f   libucrt:exception_filter.obj
 0001:00012753       __seh_filter_exe           10013753 f   libucrt:exception_filter.obj
 0001:00012b21       ___acrt_initialize_thread_local_exit_callback 10013b21 f   libucrt:exit.obj
 0001:00012b30       __cexit                    10013b30 f   libucrt:exit.obj
 0001:00012b3f       __exit                     10013b3f f   libucrt:exit.obj
 0001:00012b55       __is_c_termination_complete 10013b55 f   libucrt:exit.obj
 0001:00012e06       ___acrt_allocate_buffer_for_argv 10013e06 f   libucrt:argv_parsing.obj
 0001:00012e55       __configure_narrow_argv    10013e55 f   libucrt:argv_parsing.obj
 0001:00012fb2       ??$uninitialize@A6AXAAPAPA_W@Z@?$dual_state_global@PAPA_W@__crt_state_management@@QAEXA6AXAAPAPA_W@Z@Z 10013fb2 f i libucrt:environment_initialization.obj
 0001:00012fb2       ??$uninitialize@A6AXAAPAPAD@Z@?$dual_state_global@PAPAD@__crt_state_management@@QAEXA6AXAAPAPAD@Z@Z 10013fb2 f i libucrt:environment_initialization.obj
 0001:00013011       ___dcrt_uninitialize_environments_nolock 10014011 f   libucrt:environment_initialization.obj
 0001:00013048       __initialize_narrow_environment 10014048 f   libucrt:environment_initialization.obj
 0001:00013103       ??$__crt_fast_encode_pointer@PAX@@YAPAXQAX@Z 10014103 f i libucrt:initialization.obj
 0001:00013103       ??$__crt_fast_encode_pointer@P6AHXZ@@YAP6AHXZQ6AHXZ@Z 10014103 f i libucrt:onexit.obj
 0001:00013103       ??$__crt_fast_encode_pointer@PAP6AXXZ@@YAPAP6AXXZQAP6AXXZ@Z 10014103 f i libucrt:onexit.obj
 0001:00013325       __crt_atexit               10014325 f   libucrt:onexit.obj
 0001:0001333b       __execute_onexit_table     1001433b f   libucrt:onexit.obj
 0001:00013368       __initialize_onexit_table  10014368 f   libucrt:onexit.obj
 0001:00013391       __register_onexit_function 10014391 f   libucrt:onexit.obj
 0001:000133eb       ___acrt_uninitialize_command_line 100143eb f   libucrt:argv_data.obj
 0001:000134c2       ___acrt_initialize         100144c2 f   libucrt:initialization.obj
 0001:000134d4       ___acrt_thread_attach      100144d4 f   libucrt:initialization.obj
 0001:000134df       ___acrt_thread_detach      100144df f   libucrt:initialization.obj
 0001:000134e7       ___acrt_uninitialize       100144e7 f   libucrt:initialization.obj
 0001:00013517       ___acrt_uninitialize_critical 10014517 f   libucrt:initialization.obj
 0001:00013529       __initterm                 10014529 f   libucrt:initterm.obj
 0001:0001356e       __initterm_e               1001456e f   libucrt:initterm.obj
 0001:0001359c       ___acrt_initialize_new_handler 1001459c f   libucrt:new_handler.obj
 0001:000135ab       __callnewh                 100145ab f   libucrt:new_handler.obj
 0001:000135d8       __query_new_handler        100145d8 f   libucrt:new_handler.obj
 0001:00013634       _terminate                 10014634 f   libucrt:terminate.obj
 0001:00013670       _abort                     10014670 f   libucrt:abort.obj
 0001:000136b4       _strcpy_s                  100146b4 f   libucrt:strcpy_s.obj
 0001:0001370e       ??$is_overflow_condition@K@__crt_strtox@@YA_NIK@Z 1001470e f i libucrt:atox.obj
 0001:0001373f       ??$parse_integer@KV?$c_string_character_source@_W@__crt_strtox@@@__crt_strtox@@YAKQAU__crt_locale_pointers@@V?$c_string_character_source@_W@0@H_N@Z 1001473f f i libucrt:atox.obj
 0001:00013d47       ?unget@?$c_string_character_source@_W@__crt_strtox@@QAEX_W@Z 10014d47 f i libucrt:atox.obj
 0001:00013d80       _strncmp                   10014d80 f   libucrt:strncmp.obj
 0001:00013df8       _wcsncmp                   10014df8 f   libucrt:wcsncmp.obj
 0001:00013e32       __free_base                10014e32 f   libucrt:free_base.obj
 0001:000141aa       ___acrt_freeptd            100151aa f   libucrt:per_thread_data.obj
 0001:000141d6       ___acrt_getptd             100151d6 f   libucrt:per_thread_data.obj
 0001:00014293       ___acrt_getptd_head        10015293 f   libucrt:per_thread_data.obj
 0001:0001432d       ___acrt_getptd_noexit      1001532d f   libucrt:per_thread_data.obj
 0001:000143e2       ___acrt_initialize_ptd     100153e2 f   libucrt:per_thread_data.obj
 0001:0001440e       ___acrt_uninitialize_ptd   1001540e f   libucrt:per_thread_data.obj
 0001:00014428       __calloc_base              10015428 f   libucrt:calloc_base.obj
 0001:00014485       __malloc_base              10015485 f   libucrt:malloc_base.obj
 0001:000144d3       __msize_base               100154d3 f   libucrt:msize.obj
 0001:00014506       __realloc_base             10015506 f   libucrt:realloc_base.obj
 0001:00014707       ___acrt_AppPolicyGetProcessTerminationMethodInternal@4 10015707 f   libucrt:winapi_thunks.obj
 0001:00014747       ___acrt_AreFileApisANSI@0  10015747 f   libucrt:winapi_thunks.obj
 0001:00014766       ___acrt_FlsAlloc@4         10015766 f   libucrt:winapi_thunks.obj
 0001:000147a5       ___acrt_FlsFree@4          100157a5 f   libucrt:winapi_thunks.obj
 0001:000147e4       ___acrt_FlsGetValue@4      100157e4 f   libucrt:winapi_thunks.obj
 0001:00014823       ___acrt_FlsSetValue@8      10015823 f   libucrt:winapi_thunks.obj
 0001:00014865       ___acrt_InitializeCriticalSectionEx@12 10015865 f   libucrt:winapi_thunks.obj
 0001:000148b0       ___acrt_LCMapStringEx@36   100158b0 f   libucrt:winapi_thunks.obj
 0001:0001490d       ___acrt_LocaleNameToLCID@8 1001590d f   libucrt:winapi_thunks.obj
 0001:0001493e       ___acrt_SetThreadStackGuarantee@4 1001593e f   libucrt:winapi_thunks.obj
 0001:00014979       ___acrt_initialize_winapi_thunks 10015979 f   libucrt:winapi_thunks.obj
 0001:000149a4       ___acrt_uninitialize_winapi_thunks 100159a4 f   libucrt:winapi_thunks.obj
 0001:000149da       ??$make_c_string_character_source@_WPAPA_W@__crt_strtox@@YA?AV?$c_string_character_source@_W@0@QB_WQAPA_W@Z 100159da f i libucrt:strtox.obj
 0001:000149f5       _wcstol                    100159f5 f   libucrt:strtox.obj
 0001:00014a1f       __mbtowc_l                 10015a1f f   libucrt:mbtowc.obj
 0001:00014b61       _mbtowc                    10015b61 f   libucrt:mbtowc.obj
 0001:00014b7b       _wcsnlen                   10015b7b f   libucrt:strnlen.obj
 0001:00014d2b       ___acrt_update_locale_info 10015d2b f   libucrt:locale_update.obj
 0001:00014d58       ___acrt_update_multibyte_info 10015d58 f   libucrt:locale_update.obj
 0001:00014d85       ?__acrt_fp_classify@@YA?AW4__acrt_fp_class@@ABN@Z 10015d85 f i libucrt:cvt.obj
 0001:00015737       ___acrt_fp_format          10016737 f   libucrt:cvt.obj
 0001:00015895       __fileno                   10016895 f   libucrt:fileno.obj
 0001:000158bc       ___acrt_initialize_stdio   100168bc f   libucrt:_file.obj
 0001:00015984       ___acrt_uninitialize_stdio 10016984 f   libucrt:_file.obj
 0001:000159d0       __lock_file                100169d0 f   libucrt:_file.obj
 0001:000159e4       __unlock_file              100169e4 f   libucrt:_file.obj
 0001:000159f8       __get_printf_count_output  100169f8 f   libucrt:printf_count_output.obj
 0001:00015a7b       ___acrt_set_locale_changed 10016a7b f   libucrt:wsetlocale.obj
 0001:00015a86       ___acrt_uninitialize_locale 10016a86 f   libucrt:wsetlocale.obj
 0001:00015c17       ___acrt_initialize_lowio   10016c17 f   libucrt:ioinit.obj
 0001:00015c77       ___acrt_uninitialize_lowio 10016c77 f   libucrt:ioinit.obj
 0001:00015ca3       ___acrt_initialize_locks   10016ca3 f   libucrt:locks.obj
 0001:00015ce4       ___acrt_lock               10016ce4 f   libucrt:locks.obj
 0001:00015cfb       ___acrt_uninitialize_locks 10016cfb f   libucrt:locks.obj
 0001:00015d2c       ___acrt_unlock             10016d2c f   libucrt:locks.obj
 0001:00015d43       ___acrt_get_process_end_policy 10016d43 f   libucrt:win_policies.obj
 0001:00015f0d       ??$__acrt_mbs_to_wcs_cp@U__crt_win32_buffer_internal_dynamic_resizing@@@@YAHQBDAAV?$__crt_win32_buffer@_WU__crt_win32_buffer_internal_dynamic_resizing@@@@I@Z 10016f0d f i libucrt:argv_wildcards.obj
 0001:00016421       ?__acrt_get_utf8_acp_compatibility_codepage@@YAIXZ 10017421 f i libucrt:argv_wildcards.obj
 0001:00016460       ?_deallocate@?$__crt_win32_buffer@_WU__crt_win32_buffer_internal_dynamic_resizing@@@@AAEXXZ 10017460 f i libucrt:argv_wildcards.obj
 0001:00016460       ?_deallocate@?$__crt_win32_buffer@DU__crt_win32_buffer_internal_dynamic_resizing@@@@AAEXXZ 10017460 f i libucrt:argv_wildcards.obj
 0001:0001647a       ?allocate@?$__crt_win32_buffer@DU__crt_win32_buffer_internal_dynamic_resizing@@@@QAEHI@Z 1001747a f i libucrt:argv_wildcards.obj
 0001:000164b6       ?allocate@?$__crt_win32_buffer@_WU__crt_win32_buffer_internal_dynamic_resizing@@@@QAEHI@Z 100174b6 f i libucrt:argv_wildcards.obj
 0001:000164f5       ?allocate@__crt_win32_buffer_internal_dynamic_resizing@@SAHQAPAXIABV__crt_win32_buffer_empty_debug_info@@@Z 100174f5 f i libucrt:argv_wildcards.obj
 0001:0001659b       ___acrt_expand_narrow_argv_wildcards 1001759b f   libucrt:argv_wildcards.obj
 0001:0001666d       ?allocate@?$__crt_win32_buffer@DU__crt_win32_buffer_no_resizing@@@@QAEHI@Z 1001766d f i libucrt:getmodulefilenamea.obj
 0001:00016694       ?set_to_nullptr@?$__crt_win32_buffer@DU__crt_win32_buffer_no_resizing@@@@QAEXXZ 10017694 f i libucrt:getmodulefilenamea.obj
 0001:000166a8       ___acrt_GetModuleFileNameA 100176a8 f   libucrt:getmodulefilenamea.obj
 0001:00016c61       ___acrt_initialize_multibyte 10017c61 f   libucrt:mbctype.obj
 0001:00016ca9       ___acrt_update_thread_multibyte_data 10017ca9 f   libucrt:mbctype.obj
 0001:00016cbc       __setmbcp_nolock           10017cbc f   libucrt:mbctype.obj
 0001:00016f87       __ismbblead                10017f87 f   libucrt:ismbbyte.obj
 0001:00016f9f       ___acrt_initialize_command_line 10017f9f f   libucrt:argv_data.obj
 0001:00016fb8       ___acrt_MultiByteToWideChar 10017fb8 f   libucrt:multibytetowidechar.obj
 0001:00017034       ___acrt_WideCharToMultiByte 10018034 f   libucrt:widechartomultibyte.obj
 0001:00017122       ___dcrt_get_narrow_environment_from_os 10018122 f   libucrt:get_environment_from_os.obj
 0001:000171a6       ___acrt_initialize_heap    100181a6 f   libucrt:heap_handle.obj
 0001:000171b7       ___acrt_uninitialize_heap  100181b7 f   libucrt:heap_handle.obj
 0001:000171c1       ___acrt_execute_initializers 100181c1 f   libucrt:shared_initialization.obj
 0001:00017229       ___acrt_execute_uninitializers 10018229 f   libucrt:shared_initialization.obj
 0001:00017328       ___acrt_get_sigabrt_handler 10018328 f   libucrt:signal.obj
 0001:0001734f       ___acrt_initialize_signal_handlers 1001834f f   libucrt:signal.obj
 0001:0001736d       _raise                     1001836d f   libucrt:signal.obj
 0001:00017560       ___acrt_has_user_matherr   10018560 f   libucrt:matherr.obj
 0001:00017578       ___acrt_initialize_user_matherr 10018578 f   libucrt:matherr.obj
 0001:00017587       ___acrt_invoke_user_matherr 10018587 f   libucrt:matherr.obj
 0001:00017796       ___acrt_stdio_flush_nolock 10018796 f   libucrt:fflush.obj
 0001:000177fb       __fflush_nolock            100187fb f   libucrt:fflush.obj
 0001:00017843       __flushall                 10018843 f   libucrt:fflush.obj
 0001:0001784c       ___pctype_func             1001884c f   libucrt:ctype.obj
 0001:00017870       _iswctype                  10018870 f   libucrt:iswctype.obj
 0001:000178d9       ___acrt_add_locale_ref     100188d9 f   libucrt:locale_refcounting.obj
 0001:00017956       ___acrt_free_locale        10018956 f   libucrt:locale_refcounting.obj
 0001:00017a9e       ___acrt_locale_add_lc_time_reference 10018a9e f   libucrt:locale_refcounting.obj
 0001:00017ac7       ___acrt_locale_free_lc_time_if_unreferenced 10018ac7 f   libucrt:locale_refcounting.obj
 0001:00017af8       ___acrt_locale_release_lc_time_reference 10018af8 f   libucrt:locale_refcounting.obj
 0001:00017b21       ___acrt_release_locale_ref 10018b21 f   libucrt:locale_refcounting.obj
 0001:00017ba2       ___acrt_update_thread_locale_data 10018ba2 f   libucrt:locale_refcounting.obj
 0001:00017c23       __updatetlocinfoEx_nolock  10018c23 f   libucrt:locale_refcounting.obj
 0001:00017c73       __query_new_mode           10018c73 f   libucrt:new_mode.obj
 0001:00017cca       ___acrt_DownlevelLocaleNameToLCID 10018cca f   libucrt:lcidtoname_downlevel.obj
 0001:00017cf6       __isleadbyte_l             10018cf6 f i libucrt:_wctype.obj
 0001:00017d5c       ?__mbrtowc_utf8@__crt_mbstring@@YAIPA_WPBDIPAU_Mbstatet@@@Z 10018d5c f   libucrt:mbrtowc.obj
 0001:00017d9c       ?__mbsrtowcs_utf8@__crt_mbstring@@YAIPA_WPAPBDIPAU_Mbstatet@@@Z 10018d9c f   libucrt:mbrtowc.obj
 0001:00017e97       ?return_illegal_sequence@__crt_mbstring@@YAIPAU_Mbstatet@@@Z 10018e97 f i libucrt:c32rtomb.obj
 0001:00017f21       ___acrt_fp_strflt_to_string 10018f21 f   libucrt:_fptostr.obj
 0001:00018000       ?divide@__crt_strtox@@YA_KAAUbig_integer@1@ABU21@@Z 10019000 f i libucrt:cfout.obj
 0001:00018498       ___acrt_fltout             10019498 f   libucrt:cfout.obj
 0001:0001999f       _fegetround                1001a99f f   libucrt:fegetround.obj
 0001:000199ac       __fcloseall                1001a9ac f   libucrt:closeall.obj
 0001:00019a57       ___acrt_stdio_free_buffer_nolock 1001aa57 f   libucrt:_freebuf.obj
 0001:00019a97       __isatty                   1001aa97 f   libucrt:isatty.obj
 0001:00019aed       ___acrt_locale_free_monetary 1001aaed f   libucrt:initmon.obj
 0001:00019beb       ___acrt_locale_free_numeric 1001abeb f   libucrt:initnum.obj
 0001:00019c8c       ___acrt_locale_free_time   1001ac8c f   libucrt:inittime.obj
 0001:00019d70       ___acrt_GetStringTypeA     1001ad70 f   libucrt:getstringtypea.obj
 0001:00019e73       __freea_crt                1001ae73 f i libucrt:getstringtypea.obj
 0001:00019e93       ___acrt_lowio_create_handle_array 1001ae93 f   libucrt:osfinfo.obj
 0001:00019f0e       ___acrt_lowio_destroy_handle_array 1001af0e f   libucrt:osfinfo.obj
 0001:00019f43       ___acrt_lowio_ensure_fh_exists 1001af43 f   libucrt:osfinfo.obj
 0001:00019fe1       ___acrt_lowio_lock_fh      1001afe1 f   libucrt:osfinfo.obj
 0001:0001a004       ___acrt_lowio_unlock_fh    1001b004 f   libucrt:osfinfo.obj
 0001:0001a027       __free_osfhnd              1001b027 f   libucrt:osfinfo.obj
 0001:0001a0b8       __get_osfhandle            1001b0b8 f   libucrt:osfinfo.obj
 0001:0001a130       _qsort                     1001b130 f   libucrt:qsort.obj
 0001:0001a6d1       _strncpy_s                 1001b6d1 f   libucrt:strncpy_s.obj
 0001:0001a6e0       _strpbrk                   1001b6e0 f   libucrt:strpbrk.obj
 0001:0001a720       __mbsdec                   1001b720 f   libucrt:mbsdec.obj
 0001:0001a737       __mbsdec_l                 1001b737 f   libucrt:mbsdec.obj
 0001:0001a9ae       ___acrt_LCMapStringA       1001b9ae f   libucrt:lcmapstringa.obj
 0001:0001aaa8       __commit                   1001baa8 f   libucrt:commit.obj
 0001:0001b2a0       __write                    1001c2a0 f   libucrt:write.obj
 0001:0001b392       __write_nolock             1001c392 f   libucrt:write.obj
 0001:0001b56c       ___acrt_GetStringTypeW     1001c56c f   libucrt:getstringtypew.obj
 0001:0001b585       ___ascii_wcsnicmp          1001c585 f   libucrt:wcsnicmp.obj
 0001:0001b5d4       ?__mbrtoc32_utf8@__crt_mbstring@@YAIPA_UPBDIPAU_Mbstatet@@@Z 1001c5d4 f   libucrt:mbrtoc32.obj
 0001:0001b77b       __controlfp_s              1001c77b f   libucrt:contrlfp.obj
 0001:0001b7da       _fegetenv                  1001c7da f   libucrt:fegetenv.obj
 0001:0001b7f7       _fesetenv                  1001c7f7 f   libucrt:fesetenv.obj
 0001:0001b842       _feholdexcept              1001c842 f   libucrt:feholdexcept.obj
 0001:0001b890       __CIlog10                  1001c890 f   libucrt:log10_impl.obj
 0001:0001b8cb       __CIlog10_default          1001c8cb f   libucrt:log10_impl.obj
 0001:0001b8df       __log10_default            1001c8df     libucrt:log10_impl.obj
 0001:0001b9a0       _ceil                      1001c9a0 f   libucrt:ceil_pentium4.obj
 0001:0001b9e0       __ceil_pentium4            1001c9e0 f   libucrt:ceil_pentium4.obj
 0001:0001bdda       ___acrt_fenv_get_common_round_control 1001cdda f   libucrt:_fenvutils.obj
 0001:0001bdfc       ___acrt_fenv_get_control   1001cdfc f   libucrt:_fenvutils.obj
 0001:0001be7c       ___acrt_fenv_get_status    1001ce7c f   libucrt:_fenvutils.obj
 0001:0001bf34       ___acrt_fenv_set_control   1001cf34 f   libucrt:_fenvutils.obj
 0001:0001bf9c       ___acrt_fenv_set_status    1001cf9c f   libucrt:_fenvutils.obj
 0001:0001c10f       __lseeki64_nolock          1001d10f f   libucrt:lseek.obj
 0001:0001c12a       __fclose_nolock            1001d12a f   libucrt:fclose.obj
 0001:0001c1a1       _fclose                    1001d1a1 f   libucrt:fclose.obj
 0001:0001c225       __query_app_type           1001d225 f   libucrt:report_runtime_error.obj
 0001:0001c22b       ___strncnt                 1001d22b f   libucrt:strncnt.obj
 0001:0001c247       __putwch_nolock            1001d247 f   libucrt:putwch.obj
 0001:0001c320       __clearfp                  1001d320 f   libucrt:ieee87.obj
 0001:0001c3fe       __control87                1001d3fe f   libucrt:ieee87.obj
 0001:0001c79d       ___acrt_initialize_sse2    1001d79d f   libucrt:mathfcns.obj
 0001:0001c7b0       __CIlog10_pentium4         1001d7b0 f   libucrt:log10_pentium4.obj
 0001:0001c7c8       __log10_pentium4           1001d7c8     libucrt:log10_pentium4.obj
 0001:0001ca60       __fFEXP                    1001da60 f   libucrt:87tran.obj
 0001:0001cab7       __rtinfpopse               1001dab7     libucrt:87tran.obj
 0001:0001cab9       __rtinfnpopse              1001dab9     libucrt:87tran.obj
 0001:0001cac9       __fFLN                     1001dac9     libucrt:87tran.obj
 0001:0001cb7e       __rtinfpop                 1001db7e     libucrt:87tran.obj
 0001:0001cb80       __rtinfnpop                1001db80     libucrt:87tran.obj
 0001:0001cb90       __rtforexpinf              1001db90 f   libucrt:87tran.obj
 0001:0001cb9d       __ffexpm1                  1001db9d     libucrt:87tran.obj
 0001:0001cc50       __trandisp1                1001dc50 f   libucrt:87disp.obj
 0001:0001ccc5       __trandisp2                1001dcc5 f   libucrt:87disp.obj
 0001:0001cd5f       __rttospopde               1001dd5f     libucrt:87disp.obj
 0001:0001cd64       __rttospop                 1001dd64     libucrt:87disp.obj
 0001:0001cd70       __rtnospop                 1001dd70 f   libucrt:87disp.obj
 0001:0001cd80       __rttosnpop                1001dd80 f   libucrt:87disp.obj
 0001:0001cd81       __rtnospopde               1001dd81     libucrt:87disp.obj
 0001:0001cd88       __rtzeropop                1001dd88     libucrt:87disp.obj
 0001:0001cd8a       __rtzeronpop               1001dd8a     libucrt:87disp.obj
 0001:0001cd90       __rtzerospop               1001dd90 f   libucrt:87disp.obj
 0001:0001cd9d       __rtonepop                 1001dd9d     libucrt:87disp.obj
 0001:0001cda0       __rtonenpop                1001dda0 f   libucrt:87disp.obj
 0001:0001cdb0       __tosnan1                  1001ddb0 f   libucrt:87disp.obj
 0001:0001cde0       __nosnan2                  1001dde0 f   libucrt:87disp.obj
 0001:0001cdf0       __tosnan2                  1001ddf0 f   libucrt:87disp.obj
 0001:0001ce20       __nan2                     1001de20 f   libucrt:87disp.obj
 0001:0001ce60       __rtindfpop                1001de60 f   libucrt:87disp.obj
 0001:0001ce62       __rtindfnpop               1001de62     libucrt:87disp.obj
 0001:0001ce73       __rttosnpopde              1001de73     libucrt:87disp.obj
 0001:0001ce80       __rtatan2inf               1001de80 f   libucrt:87disp.obj
 0001:0001ce9d       __rtchsifneg               1001de9d     libucrt:87disp.obj
 0001:0001ceb0       __twoToTOS                 1001deb0 f   libucrt:common.obj
 0001:0001cec5       __load_CW                  1001dec5 f   libucrt:common.obj
 0001:0001cedc       __convertTOStoQNaN         1001dedc f   libucrt:common.obj
 0001:0001cef5       __fload_withFB             1001def5 f   libucrt:common.obj
 0001:0001cf38       __checkTOS_withFB          1001df38 f   libucrt:common.obj
 0001:0001cf4e       __fast_exit                1001df4e f   libucrt:common.obj
 0001:0001cf5b       __math_exit                1001df5b f   libucrt:common.obj
 0001:0001cf85       __check_overflow_exit      1001df85 f   libucrt:common.obj
 0001:0001cf99       __check_range_exit         1001df99 f   libucrt:common.obj
 0001:0001d040       __startTwoArgErrorHandling 1001e040 f   libucrt:genexcep.obj
 0001:0001d057       __startOneArgErrorHandling 1001e057 f   libucrt:genexcep.obj
 0001:0001d093       ___libm_error_support      1001e093 f   libucrt:libm_error.obj
 0001:0001d287       __ceil_default             1001e287 f   libucrt:ceil.obj
 0001:0001d3c8       __close                    1001e3c8 f   libucrt:close.obj
 0001:0001d455       __close_nolock             1001e455 f   libucrt:close.obj
 0001:0001d4f1       ?__acrt_stdio_free_stream@@YAXV__crt_stdio_stream@@@Z 1001e4f1 f   libucrt:stream.obj
 0001:0001d530       ___ascii_strnicmp          1001e530 f   libucrt:_strnicm.obj
 0001:0001d5b0       ___dcrt_lowio_ensure_console_output_initialized 1001e5b0 f   libucrt:initcon.obj
 0001:0001d5cf       ___dcrt_terminate_console_output 1001e5cf f   libucrt:initcon.obj
 0001:0001d5e6       ___dcrt_write_console      1001e5e6 f   libucrt:initcon.obj
 0001:0001d63b       ___set_fpsr_sse2           1001e63b f   libucrt:fpctrl.obj
 0001:0001d6bb       __clrfp                    1001e6bb f   libucrt:fpctrl.obj
 0001:0001d6cc       __ctrlfp                   1001e6cc f   libucrt:fpctrl.obj
 0001:0001d6f6       __set_statfp               1001e6f6 f   libucrt:fpctrl.obj
 0001:0001d74f       __statfp                   1001e74f f   libucrt:fpctrl.obj
 0001:0001d75f       __d_inttype                1001e75f f   libucrt:powhlp.obj
 0001:0001d7c7       __powhlp                   1001e7c7 f   libucrt:powhlp.obj
 0001:0001d8f2       __87except                 1001e8f2 f   libucrt:87except.obj
 0001:0001d9fc       __frnd                     1001e9fc f   libucrt:frnd.obj
 0001:0001da10       __errcode                  1001ea10 f   libucrt:fpexcept.obj
 0001:0001da44       __except1                  1001ea44 f   libucrt:fpexcept.obj
 0001:0001db12       __handle_exc               1001eb12 f   libucrt:fpexcept.obj
 0001:0001dcfd       __raise_exc                1001ecfd f   libucrt:fpexcept.obj
 0001:0001dd20       __raise_exc_ex             1001ed20 f   libucrt:fpexcept.obj
 0001:0001e016       __set_errno_from_matherr   1001f016 f   libucrt:fpexcept.obj
 0001:0001e045       __umatherr                 1001f045 f   libucrt:fpexcept.obj
 0001:0001e0e5       __decomp                   1001f0e5 f   libucrt:util.obj
 0001:0001e1b7       __set_exp                  1001f1b7 f   libucrt:util.obj
 0001:0001e1e4       __sptype                   1001f1e4 f   libucrt:util.obj
 0001:0001e242       __fpclass                  1001f242 f   libucrt:ieeemisc.obj
 0001:0001e2e6       _IsProcessorFeaturePresent@4 1001f2e6 f   kernel32:KERNEL32.dll
 0001:0001e2f0       __FindPESection            1001f2f0 f   LIBCMT:pesect.obj
 0001:0001e340       __IsNonwritableInCurrentImage 1001f340 f   LIBCMT:pesect.obj
 0001:0001e400       __ValidateImageBase        1001f400 f   LIBCMT:pesect.obj
 0001:0001e433       __EH_prolog3_catch         1001f433 f   LIBCMT:ehprolg3.obj
 0001:0001e470       __aulldvrm                 1001f470 f   LIBCMT:ulldvrm.obj
 0001:0001e510       __allmul                   1001f510 f   LIBCMT:llmul.obj
 0001:0001e550       __alldvrm                  1001f550 f   LIBCMT:lldvrm.obj
 0001:0001e630       __allshl                   1001f630 f   LIBCMT:llshl.obj
 0001:0001e650       __aullshr                  1001f650 f   LIBCMT:ullshr.obj
 0001:0001e670       __ftol2_sse                1001f670     LIBCMT:ftol2.obj
 0001:0001e670       __ftoi2                    1001f670 f   LIBCMT:ftol2.obj
 0001:0001e670       __ftol2_sse_excpt          1001f670     LIBCMT:ftol2.obj
 0001:0001e6f0       __ftoui2                   1001f6f0 f   LIBCMT:ftol2.obj
 0001:0001e7a0       __ftol2                    1001f7a0 f   LIBCMT:ftol2.obj
 0001:0001e850       __ftoul2                   1001f850 f   LIBCMT:ftol2.obj
 0001:0001e910       _strrchr                   1001f910 f   libvcruntime:strrchr.obj
 0001:0001ea50       _strchr                    1001fa50 f   libvcruntime:strchr.obj
 0001:0001eabe       ___from_strstr_to_strchr   1001fabe     libvcruntime:strchr.obj
 0001:0001eb7b       __filter_x86_sse2_floating_point_exception 1001fb7b f   LIBCMT:x86_exception_filter.obj
 0001:0001eb7b       __filter_x86_sse2_floating_point_exception_default 1001fb7b f   LIBCMT:x86_exception_filter.obj
 0002:00000000       __imp__RegQueryValueExW@24 10020000     advapi32:ADVAPI32.dll
 0002:00000004       __imp__RegSetValueExW@24   10020004     advapi32:ADVAPI32.dll
 0002:00000008       __imp__RegQueryInfoKeyW@48 10020008     advapi32:ADVAPI32.dll
 0002:0000000c       __imp__RegOpenKeyExW@20    1002000c     advapi32:ADVAPI32.dll
 0002:00000010       __imp__RegEnumKeyExW@32    10020010     advapi32:ADVAPI32.dll
 0002:00000014       __imp__RegDeleteValueW@8   10020014     advapi32:ADVAPI32.dll
 0002:00000018       __imp__RegDeleteKeyW@8     10020018     advapi32:ADVAPI32.dll
 0002:0000001c       __imp__RegCreateKeyExW@36  1002001c     advapi32:ADVAPI32.dll
 0002:00000020       __imp__RegCloseKey@4       10020020     advapi32:ADVAPI32.dll
 0002:00000024       \177ADVAPI32_NULL_THUNK_DATA 10020024     advapi32:ADVAPI32.dll
 0002:00000028       __imp__GetObjectW@12       10020028     gdi32:GDI32.dll
 0002:0000002c       __imp__SelectObject@8      1002002c     gdi32:GDI32.dll
 0002:00000030       __imp__DeleteObject@4      10020030     gdi32:GDI32.dll
 0002:00000034       __imp__CreateCompatibleDC@4 10020034     gdi32:GDI32.dll
 0002:00000038       __imp__BitBlt@36           10020038     gdi32:GDI32.dll
 0002:0000003c       __imp__SetWindowOrgEx@16   1002003c     gdi32:GDI32.dll
 0002:00000040       __imp__SetWindowExtEx@16   10020040     gdi32:GDI32.dll
 0002:00000044       __imp__SetViewportOrgEx@16 10020044     gdi32:GDI32.dll
 0002:00000048       __imp__LPtoDP@12           10020048     gdi32:GDI32.dll
 0002:0000004c       __imp__SetMapMode@8        1002004c     gdi32:GDI32.dll
 0002:00000050       __imp__SaveDC@4            10020050     gdi32:GDI32.dll
 0002:00000054       __imp__RestoreDC@8         10020054     gdi32:GDI32.dll
 0002:00000058       __imp__GetDeviceCaps@8     10020058     gdi32:GDI32.dll
 0002:0000005c       __imp__DeleteMetaFile@4    1002005c     gdi32:GDI32.dll
 0002:00000060       __imp__DeleteDC@4          10020060     gdi32:GDI32.dll
 0002:00000064       __imp__CreateRectRgnIndirect@4 10020064     gdi32:GDI32.dll
 0002:00000068       __imp__CreateMetaFileW@4   10020068     gdi32:GDI32.dll
 0002:0000006c       __imp__CreateDCW@16        1002006c     gdi32:GDI32.dll
 0002:00000070       __imp__CloseMetaFile@4     10020070     gdi32:GDI32.dll
 0002:00000074       \177GDI32_NULL_THUNK_DATA  10020074     gdi32:GDI32.dll
 0002:00000078       __imp__CloseHandle@4       10020078     kernel32:KERNEL32.dll
 0002:0000007c       __imp__SetEvent@4          1002007c     kernel32:KERNEL32.dll
 0002:00000080       __imp__CreateMutexW@12     10020080     kernel32:KERNEL32.dll
 0002:00000084       __imp__CreateEventW@16     10020084     kernel32:KERNEL32.dll
 0002:00000088       __imp__GetCurrentProcessId@0 10020088     kernel32:KERNEL32.dll
 0002:0000008c       __imp__CreateFileW@28      1002008c     kernel32:KERNEL32.dll
 0002:00000090       __imp__GetConsoleMode@8    10020090     kernel32:KERNEL32.dll
 0002:00000094       __imp__GetConsoleOutputCP@0 10020094     kernel32:KERNEL32.dll
 0002:00000098       __imp__WriteFile@20        10020098     kernel32:KERNEL32.dll
 0002:0000009c       __imp__FlushFileBuffers@4  1002009c     kernel32:KERNEL32.dll
 0002:000000a0       __imp__SetStdHandle@8      100200a0     kernel32:KERNEL32.dll
 0002:000000a4       __imp__GetStringTypeW@16   100200a4     kernel32:KERNEL32.dll
 0002:000000a8       __imp__SetFilePointerEx@20 100200a8     kernel32:KERNEL32.dll
 0002:000000ac       __imp__FreeEnvironmentStringsW@4 100200ac     kernel32:KERNEL32.dll
 0002:000000b0       __imp__GetEnvironmentStringsW@0 100200b0     kernel32:KERNEL32.dll
 0002:000000b4       __imp__lstrcmpiW@8         100200b4     kernel32:KERNEL32.dll
 0002:000000b8       __imp__GetCommandLineA@0   100200b8     kernel32:KERNEL32.dll
 0002:000000bc       __imp__GetCPInfo@8         100200bc     kernel32:KERNEL32.dll
 0002:000000c0       __imp__GetOEMCP@0          100200c0     kernel32:KERNEL32.dll
 0002:000000c4       __imp__GetACP@0            100200c4     kernel32:KERNEL32.dll
 0002:000000c8       __imp__IsValidCodePage@4   100200c8     kernel32:KERNEL32.dll
 0002:000000cc       __imp__FindNextFileW@8     100200cc     kernel32:KERNEL32.dll
 0002:000000d0       __imp__FindFirstFileExW@24 100200d0     kernel32:KERNEL32.dll
 0002:000000d4       __imp__FindClose@4         100200d4     kernel32:KERNEL32.dll
 0002:000000d8       __imp__GetFileType@4       100200d8     kernel32:KERNEL32.dll
 0002:000000dc       __imp__GetStdHandle@4      100200dc     kernel32:KERNEL32.dll
 0002:000000e0       __imp__LCMapStringW@24     100200e0     kernel32:KERNEL32.dll
 0002:000000e4       __imp__HeapReAlloc@16      100200e4     kernel32:KERNEL32.dll
 0002:000000e8       __imp__HeapSize@12         100200e8     kernel32:KERNEL32.dll
 0002:000000ec       __imp__MulDiv@12           100200ec     kernel32:KERNEL32.dll
 0002:000000f0       __imp__GlobalLock@4        100200f0     kernel32:KERNEL32.dll
 0002:000000f4       __imp__GlobalUnlock@4      100200f4     kernel32:KERNEL32.dll
 0002:000000f8       __imp__GlobalAlloc@8       100200f8     kernel32:KERNEL32.dll
 0002:000000fc       __imp__FindResourceW@12    100200fc     kernel32:KERNEL32.dll
 0002:00000100       __imp__SizeofResource@8    10020100     kernel32:KERNEL32.dll
 0002:00000104       __imp__LoadResource@8      10020104     kernel32:KERNEL32.dll
 0002:00000108       __imp__LoadLibraryExW@12   10020108     kernel32:KERNEL32.dll
 0002:0000010c       __imp__GetProcAddress@8    1002010c     kernel32:KERNEL32.dll
 0002:00000110       __imp__GetModuleHandleW@4  10020110     kernel32:KERNEL32.dll
 0002:00000114       __imp__GetModuleFileNameW@12 10020114     kernel32:KERNEL32.dll
 0002:00000118       __imp__FreeLibrary@4       10020118     kernel32:KERNEL32.dll
 0002:0000011c       __imp__DisableThreadLibraryCalls@4 1002011c     kernel32:KERNEL32.dll
 0002:00000120       __imp__GetCurrentThreadId@0 10020120     kernel32:KERNEL32.dll
 0002:00000124       __imp__Sleep@4             10020124     kernel32:KERNEL32.dll
 0002:00000128       __imp__WaitForSingleObject@8 10020128     kernel32:KERNEL32.dll
 0002:0000012c       __imp__ReleaseMutex@4      1002012c     kernel32:KERNEL32.dll
 0002:00000130       __imp__ResetEvent@4        10020130     kernel32:KERNEL32.dll
 0002:00000134       __imp__EnterCriticalSection@4 10020134     kernel32:KERNEL32.dll
 0002:00000138       __imp__LeaveCriticalSection@4 10020138     kernel32:KERNEL32.dll
 0002:0000013c       __imp__SetLastError@4      1002013c     kernel32:KERNEL32.dll
 0002:00000140       __imp__EncodePointer@4     10020140     kernel32:KERNEL32.dll
 0002:00000144       __imp__DeleteCriticalSection@4 10020144     kernel32:KERNEL32.dll
 0002:00000148       __imp__InitializeCriticalSectionEx@12 10020148     kernel32:KERNEL32.dll
 0002:0000014c       __imp__GetLastError@0      1002014c     kernel32:KERNEL32.dll
 0002:00000150       __imp__RaiseException@16   10020150     kernel32:KERNEL32.dll
 0002:00000154       __imp__DecodePointer@4     10020154     kernel32:KERNEL32.dll
 0002:00000158       __imp__WideCharToMultiByte@32 10020158     kernel32:KERNEL32.dll
 0002:0000015c       __imp__GetCommandLineW@0   1002015c     kernel32:KERNEL32.dll
 0002:00000160       __imp__MultiByteToWideChar@24 10020160     kernel32:KERNEL32.dll
 0002:00000164       __imp__WriteConsoleW@20    10020164     kernel32:KERNEL32.dll
 0002:00000168       __imp__GetModuleHandleExW@12 10020168     kernel32:KERNEL32.dll
 0002:0000016c       __imp__ExitProcess@4       1002016c     kernel32:KERNEL32.dll
 0002:00000170       __imp__VirtualQuery@12     10020170     kernel32:KERNEL32.dll
 0002:00000174       __imp__VirtualProtect@16   10020174     kernel32:KERNEL32.dll
 0002:00000178       __imp__GetSystemInfo@4     10020178     kernel32:KERNEL32.dll
 0002:0000017c       __imp__TlsFree@4           1002017c     kernel32:KERNEL32.dll
 0002:00000180       __imp__TlsSetValue@8       10020180     kernel32:KERNEL32.dll
 0002:00000184       __imp__TlsGetValue@4       10020184     kernel32:KERNEL32.dll
 0002:00000188       __imp__TlsAlloc@0          10020188     kernel32:KERNEL32.dll
 0002:0000018c       __imp__InterlockedFlushSList@4 1002018c     kernel32:KERNEL32.dll
 0002:00000190       __imp__RtlUnwind@16        10020190     kernel32:KERNEL32.dll
 0002:00000194       __imp__LoadLibraryExA@12   10020194     kernel32:KERNEL32.dll
 0002:00000198       __imp__VirtualFree@12      10020198     kernel32:KERNEL32.dll
 0002:0000019c       __imp__VirtualAlloc@16     1002019c     kernel32:KERNEL32.dll
 0002:000001a0       __imp__FlushInstructionCache@12 100201a0     kernel32:KERNEL32.dll
 0002:000001a4       __imp__InterlockedPushEntrySList@8 100201a4     kernel32:KERNEL32.dll
 0002:000001a8       __imp__InterlockedPopEntrySList@4 100201a8     kernel32:KERNEL32.dll
 0002:000001ac       __imp__GetProcessHeap@0    100201ac     kernel32:KERNEL32.dll
 0002:000001b0       __imp__HeapFree@12         100201b0     kernel32:KERNEL32.dll
 0002:000001b4       __imp__HeapAlloc@12        100201b4     kernel32:KERNEL32.dll
 0002:000001b8       __imp__OutputDebugStringW@4 100201b8     kernel32:KERNEL32.dll
 0002:000001bc       __imp__InitializeSListHead@4 100201bc     kernel32:KERNEL32.dll
 0002:000001c0       __imp__GetSystemTimeAsFileTime@4 100201c0     kernel32:KERNEL32.dll
 0002:000001c4       __imp__QueryPerformanceCounter@4 100201c4     kernel32:KERNEL32.dll
 0002:000001c8       __imp__GetStartupInfoW@4   100201c8     kernel32:KERNEL32.dll
 0002:000001cc       __imp__IsDebuggerPresent@0 100201cc     kernel32:KERNEL32.dll
 0002:000001d0       __imp__IsProcessorFeaturePresent@4 100201d0     kernel32:KERNEL32.dll
 0002:000001d4       __imp__TerminateProcess@8  100201d4     kernel32:KERNEL32.dll
 0002:000001d8       __imp__GetCurrentProcess@0 100201d8     kernel32:KERNEL32.dll
 0002:000001dc       __imp__SetUnhandledExceptionFilter@4 100201dc     kernel32:KERNEL32.dll
 0002:000001e0       __imp__UnhandledExceptionFilter@4 100201e0     kernel32:KERNEL32.dll
 0002:000001e4       __imp__InitializeCriticalSectionAndSpinCount@8 100201e4     kernel32:KERNEL32.dll
 0002:000001e8       __imp__WaitForSingleObjectEx@12 100201e8     kernel32:KERNEL32.dll
 0002:000001ec       \177KERNEL32_NULL_THUNK_DATA 100201ec     kernel32:KERNEL32.dll
 0002:000001f0       __imp__OleCreatePropertyFrame@44 100201f0     oleaut32:OLEAUT32.dll
 0002:000001f4       __imp__UnRegisterTypeLib@20 100201f4     oleaut32:OLEAUT32.dll
 0002:000001f8       __imp__RegisterTypeLib@12  100201f8     oleaut32:OLEAUT32.dll
 0002:000001fc       __imp__LoadRegTypeLib@20   100201fc     oleaut32:OLEAUT32.dll
 0002:00000200       __imp__LoadTypeLib@8       10020200     oleaut32:OLEAUT32.dll
 0002:00000204       __imp__VarUI4FromStr@16    10020204     oleaut32:OLEAUT32.dll
 0002:00000208       __imp__VariantInit@4       10020208     oleaut32:OLEAUT32.dll
 0002:0000020c       __imp__SysAllocStringByteLen@8 1002020c     oleaut32:OLEAUT32.dll
 0002:00000210       __imp__SysStringByteLen@4  10020210     oleaut32:OLEAUT32.dll
 0002:00000214       __imp__VariantChangeType@16 10020214     oleaut32:OLEAUT32.dll
 0002:00000218       __imp__VariantClear@4      10020218     oleaut32:OLEAUT32.dll
 0002:0000021c       __imp__SysStringLen@4      1002021c     oleaut32:OLEAUT32.dll
 0002:00000220       __imp__SysFreeString@4     10020220     oleaut32:OLEAUT32.dll
 0002:00000224       __imp__SysAllocStringLen@8 10020224     oleaut32:OLEAUT32.dll
 0002:00000228       __imp__SysAllocString@4    10020228     oleaut32:OLEAUT32.dll
 0002:0000022c       \177OLEAUT32_NULL_THUNK_DATA 1002022c     oleaut32:OLEAUT32.dll
 0002:00000230       __imp__UnregisterClassW@8  10020230     user32:USER32.dll
 0002:00000234       __imp__PostMessageW@16     10020234     user32:USER32.dll
 0002:00000238       __imp__DefWindowProcW@16   10020238     user32:USER32.dll
 0002:0000023c       __imp__CallWindowProcW@20  1002023c     user32:USER32.dll
 0002:00000240       __imp__RegisterClassExW@4  10020240     user32:USER32.dll
 0002:00000244       __imp__GetClassInfoExW@12  10020244     user32:USER32.dll
 0002:00000248       __imp__CreateWindowExW@48  10020248     user32:USER32.dll
 0002:0000024c       __imp__IsWindow@4          1002024c     user32:USER32.dll
 0002:00000250       __imp__IsChild@8           10020250     user32:USER32.dll
 0002:00000254       __imp__DestroyWindow@4     10020254     user32:USER32.dll
 0002:00000258       __imp__ShowWindow@8        10020258     user32:USER32.dll
 0002:0000025c       __imp__SetWindowPos@28     1002025c     user32:USER32.dll
 0002:00000260       __imp__CharNextW@4         10020260     user32:USER32.dll
 0002:00000264       __imp__SetFocus@4          10020264     user32:USER32.dll
 0002:00000268       __imp__LoadBitmapW@8       10020268     user32:USER32.dll
 0002:0000026c       __imp__RegisterClassW@4    1002026c     user32:USER32.dll
 0002:00000270       __imp__PeekMessageW@20     10020270     user32:USER32.dll
 0002:00000274       __imp__LoadCursorW@8       10020274     user32:USER32.dll
 0002:00000278       __imp__GetParent@4         10020278     user32:USER32.dll
 0002:0000027c       __imp__SetWindowLongW@12   1002027c     user32:USER32.dll
 0002:00000280       __imp__GetWindowLongW@8    10020280     user32:USER32.dll
 0002:00000284       __imp__PtInRect@12         10020284     user32:USER32.dll
 0002:00000288       __imp__EqualRect@8         10020288     user32:USER32.dll
 0002:0000028c       __imp__OffsetRect@12       1002028c     user32:USER32.dll
 0002:00000290       __imp__UnionRect@12        10020290     user32:USER32.dll
 0002:00000294       __imp__IntersectRect@12    10020294     user32:USER32.dll
 0002:00000298       __imp__GetClientRect@8     10020298     user32:USER32.dll
 0002:0000029c       __imp__InvalidateRect@12   1002029c     user32:USER32.dll
 0002:000002a0       __imp__SetWindowRgn@12     100202a0     user32:USER32.dll
 0002:000002a4       __imp__EndPaint@8          100202a4     user32:USER32.dll
 0002:000002a8       __imp__BeginPaint@8        100202a8     user32:USER32.dll
 0002:000002ac       __imp__ReleaseDC@8         100202ac     user32:USER32.dll
 0002:000002b0       __imp__GetDC@4             100202b0     user32:USER32.dll
 0002:000002b4       __imp__GetKeyState@4       100202b4     user32:USER32.dll
 0002:000002b8       __imp__GetFocus@0          100202b8     user32:USER32.dll
 0002:000002bc       \177USER32_NULL_THUNK_DATA 100202bc     user32:USER32.dll
 0002:000002c0       __imp__StringFromGUID2@12  100202c0     ole32:ole32.dll
 0002:000002c4       __imp__CoTaskMemAlloc@4    100202c4     ole32:ole32.dll
 0002:000002c8       __imp__CoTaskMemRealloc@8  100202c8     ole32:ole32.dll
 0002:000002cc       __imp__CoTaskMemFree@4     100202cc     ole32:ole32.dll
 0002:000002d0       __imp__ReadClassStm@8      100202d0     ole32:ole32.dll
 0002:000002d4       __imp__WriteClassStm@8     100202d4     ole32:ole32.dll
 0002:000002d8       __imp__CreateDataAdviseHolder@4 100202d8     ole32:ole32.dll
 0002:000002dc       __imp__OleSaveToStream@8   100202dc     ole32:ole32.dll
 0002:000002e0       __imp__CreateOleAdviseHolder@4 100202e0     ole32:ole32.dll
 0002:000002e4       __imp__OleRegGetUserType@12 100202e4     ole32:ole32.dll
 0002:000002e8       __imp__OleRegGetMiscStatus@12 100202e8     ole32:ole32.dll
 0002:000002ec       __imp__OleRegEnumVerbs@8   100202ec     ole32:ole32.dll
 0002:000002f0       __imp__CLSIDFromProgID@8   100202f0     ole32:ole32.dll
 0002:000002f4       __imp__CoCreateInstance@20 100202f4     ole32:ole32.dll
 0002:000002f8       \177ole32_NULL_THUNK_DATA  100202f8     ole32:ole32.dll
 0002:000002fc       ___guard_check_icall_fptr  100202fc     LIBCMT:guard_support.obj
 0002:00000300       ___xc_a                    10020300     LIBCMT:initializers.obj
 0002:00000318       ___xc_z                    10020318     LIBCMT:initializers.obj
 0002:0000031c       ___xi_a                    1002031c     LIBCMT:initializers.obj
 0002:00000324       ___acrt_stdio_initializer  10020324     libucrt:stdio_initializer.obj
 0002:00000328       ___acrt_multibyte_initializer 10020328     libucrt:multibyte_initializer.obj
 0002:0000032c       ___acrt_tran_sse2_initializer 1002032c     libucrt:sse2_initializer.obj
 0002:00000330       ___xi_z                    10020330     LIBCMT:initializers.obj
 0002:00000334       ___xl_a                    10020334     LIBCMT:tlssup.obj
 0002:00000338       ___xl_z                    10020338     LIBCMT:tlssup.obj
 0002:0000033c       ___xp_a                    1002033c     LIBCMT:initializers.obj
 0002:00000340       ___acrt_locale_terminator  10020340     libucrt:locale_initializer.obj
 0002:00000344       ___dcrt_console_output_terminator 10020344     libucrt:console_output_initializer.obj
 0002:00000348       ___acrt_stdio_terminator   10020348     libucrt:stdio_initializer.obj
 0002:0000034c       ___xp_z                    1002034c     LIBCMT:initializers.obj
 0002:00000350       ___xt_a                    10020350     LIBCMT:initializers.obj
 0002:00000354       ___xt_z                    10020354     LIBCMT:initializers.obj
 0002:00000360       ??_C@_13HADIAKP@?$AAS@     10020360     OposVariant.obj
 0002:00000364       ??_C@_13LHMFKAAD@?$AAM@    10020364     OposVariant.obj
 0002:00000368       ??_C@_13MKMNOPIJ@?$AAD@    10020368     OposVariant.obj
 0002:0000036c       ??_C@_13OPKGLAFF@?$AAB@    1002036c     OposVariant.obj
 0002:00000370       ??_C@_17LLMMEOJD@?$AAV?$AAa?$AAl@ 10020370     OposVariant.obj
 0002:00000378       ??_C@_1BI@JFAIJMHL@?$AAF?$AAo?$AAr?$AAc?$AAe?$AAR?$AAe?$AAm?$AAo?$AAv?$AAe@ 10020378     OposVariant.obj
 0002:00000390       ??_C@_1BC@GCKHIPE@?$AAN?$AAo?$AAR?$AAe?$AAm?$AAo?$AAv?$AAe@ 10020390     OposVariant.obj
 0002:000003a4       ??_C@_1O@JDLOHAN@?$AAD?$AAe?$AAl?$AAe?$AAt?$AAe@ 100203a4     OposVariant.obj
 0002:000003b4       ??_C@_11LOCGONAA@@         100203b4     OposVariant.obj
 0002:000003b8       ?_entries@?1??_GetEntries@?$CComEnum@UIEnumConnections@@$1?_GUID_b196b287_bab4_101a_b69c_00aa00341d07@@3U__s_GUID@@BUtagCONNECTDATA@@V?$_Copy@UtagCONNECTDATA@@@ATL@@VCComSingleThreadModel@6@@ATL@@SGPBU_ATL_INTMAP_ENTRY@3@XZ@4QBU43@B 100203b8     PointCardRW.obj
 0002:000003d0       ??_7CComClassFactory@ATL@@6B@ 100203d0     PointCardRW.obj
 0002:000003e8       ?_entries@?1??_GetEntries@CComClassFactory@ATL@@SGPBU_ATL_INTMAP_ENTRY@3@XZ@4QBU43@B 100203e8     PointCardRW.obj
 0002:00000400       __GUID_00000001_0000_0000_c000_000000000046 10020400     PointCardRW.obj
 0002:00000410       _IID_IOPOSPointCardRW_1_5  10020410     PointCardRW.obj
 0002:00000420       _IID_IOPOSPointCardRW_1_7  10020420     PointCardRW.obj
 0002:00000430       _IID_IOPOSPointCardRW_1_8  10020430     PointCardRW.obj
 0002:00000440       _IID_IOPOSPointCardRW_1_9  10020440     PointCardRW.obj
 0002:00000450       ??_C@_1BK@BIGILECK@?$AAA?$AAd?$AAv?$AAa?$AAp?$AAi?$AA3?$AA2?$AA?4?$AAd?$AAl?$AAl@ 10020450     PointCardRW.obj
 0002:0000046c       _IID_IOPOSPointCardRW_1_10 1002046c     PointCardRW.obj
 0002:0000047c       __GUID_00000114_0000_0000_c000_000000000046 1002047c     PointCardRW.obj
 0002:0000048c       ??_C@_0BI@MNCFCPFK@RegCreateKeyTransactedW@ 1002048c     PointCardRW.obj
 0002:000004a4       _IID_IOPOSPointCardRW      100204a4     PointCardRW.obj
 0002:000004b4       _LIBID_OposPointCardRW_CCO 100204b4     PointCardRW.obj
 0002:000004c4       _DIID__IOPOSPointCardRWEvents 100204c4     PointCardRW.obj
 0002:000004d4       _CLSID_OPOSPointCardRW     100204d4     PointCardRW.obj
 0002:000004e4       __GUID_b196b287_bab4_101a_b69c_00aa00341d07 100204e4     PointCardRW.obj
 0002:000004f4       __GUID_b196b285_bab4_101a_b69c_00aa00341d07 100204f4     PointCardRW.obj
 0002:00000504       __GUID_a6bc3ac0_dbaa_11ce_9de3_00aa004bb851 10020504     PointCardRW.obj
 0002:00000514       __GUID_0000010c_0000_0000_c000_000000000046 10020514     PointCardRW.obj
 0002:00000524       __GUID_00000146_0000_0000_c000_000000000046 10020524     PointCardRW.obj
 0002:00000534       ??_7CComModule@ATL@@6B@    10020534     PointCardRW.obj
 0002:00000560       ?_entries@?1??_GetEntries@COPOSPointCardRW@@SGPBU_ATL_INTMAP_ENTRY@ATL@@XZ@4QBU34@B 10020560     PointCardRW.obj
 0002:000006b0       __GUID_922eada0_3424_11cf_b670_00aa004cd6d8 100206b0     PointCardRW.obj
 0002:000006c0       __GUID_9c2cad80_3424_11cf_b670_00aa004cd6d8 100206c0     PointCardRW.obj
 0002:000006d0       __GUID_00000119_0000_0000_c000_000000000046 100206d0     PointCardRW.obj
 0002:000006e0       __GUID_b196b289_bab4_101a_b69c_00aa00341d07 100206e0     PointCardRW.obj
 0002:000006f0       __GUID_00000000_0000_0000_c000_000000000046 100206f0     PointCardRW.obj
 0002:00000700       __GUID_00020400_0000_0000_c000_000000000046 10020700     PointCardRW.obj
 0002:00000710       __GUID_cf51ed10_62fe_11cf_bf86_00a0c9034836 10020710     PointCardRW.obj
 0002:00000720       __GUID_0000010a_0000_0000_c000_000000000046 10020720     PointCardRW.obj
 0002:00000730       __GUID_b196b283_bab4_101a_b69c_00aa00341d07 10020730     PointCardRW.obj
 0002:00000740       __GUID_cb5bdc81_93c1_11cf_8f20_00805f2cd064 10020740     PointCardRW.obj
 0002:00000750       ?pPropMap@?1??GetPropertyMap@COPOSPointCardRW@@SAPBUATL_PROPMAP_ENTRY@ATL@@XZ@4QBU34@B 10020750     PointCardRW.obj
 0002:000007bc       ??_C@_17DGDADEHL@?$AA_?$AAc?$AAx@ 100207bc     PointCardRW.obj
 0002:000007c4       ??_C@_17IOIMFDBO@?$AA_?$AAc?$AAy@ 100207c4     PointCardRW.obj
 0002:000007cc       __GUID_00000117_0000_0000_c000_000000000046 100207cc     PointCardRW.obj
 0002:000007dc       ??_7?$CComObjectCached@VCComClassFactory@ATL@@@ATL@@6B@ 100207dc     PointCardRW.obj
 0002:000007f4       ??_C@_1CE@PGFMOFKI@?$AAS?$AAt?$AAa?$AAt?$AAu?$AAs?$AAU?$AAp?$AAd?$AAa?$AAt?$AAe?$AAE?$AAv?$AAe@ 100207f4     PointCardRW.obj
 0002:00000818       ??_C@_1CI@HLBJDONE@?$AAO?$AAu?$AAt?$AAp?$AAu?$AAt?$AAC?$AAo?$AAm?$AAp?$AAl?$AAe?$AAt?$AAe?$AAE@ 10020818     PointCardRW.obj
 0002:00000840       ??_C@_1BG@LODEBHDD@?$AAE?$AAr?$AAr?$AAo?$AAr?$AAE?$AAv?$AAe?$AAn?$AAt@ 10020840     PointCardRW.obj
 0002:00000858       ??_C@_1BM@CBGEBBBJ@?$AAD?$AAi?$AAr?$AAe?$AAc?$AAt?$AAI?$AAO?$AAE?$AAv?$AAe?$AAn?$AAt@ 10020858     PointCardRW.obj
 0002:00000874       ??_C@_1BE@IEBMACEM@?$AAD?$AAa?$AAt?$AAa?$AAE?$AAv?$AAe?$AAn?$AAt@ 10020874     PointCardRW.obj
 0002:00000888       __GUID_b196b286_bab4_101a_b69c_00aa00341d07 10020888     PointCardRW.obj
 0002:00000898       ??_C@_1BC@ENICKDH@?$AAC?$AAo?$AAn?$AAt?$AAe?$AAn?$AAt?$AAs@ 10020898     PointCardRW.obj
 0002:000008ac       ??_C@_1M@KANJNLFF@?$AAC?$AAL?$AAS?$AAI?$AAD@ 100208ac     PointCardRW.obj
 0002:000008b8       ??_7?$CComObject@V?$CComEnum@UIEnumConnectionPoints@@$1?_GUID_b196b285_bab4_101a_b69c_00aa00341d07@@3U__s_GUID@@BPAUIConnectionPoint@@V?$_CopyInterface@UIConnectionPoint@@@ATL@@VCComSingleThreadModel@6@@ATL@@@ATL@@6B@ 100208b8     PointCardRW.obj
 0002:000008d8       ??_C@_1M@EJNEECMJ@?$AAA?$AAp?$AAp?$AAI?$AAD@ 100208d8     PointCardRW.obj
 0002:000008e4       __GUID_0000010e_0000_0000_c000_000000000046 100208e4     PointCardRW.obj
 0002:000008f4       __GUID_b196b288_bab4_101a_b69c_00aa00341d07 100208f4     PointCardRW.obj
 0002:00000904       ?rgszNeverDelete@CRegParser@ATL@@1QBQB_WB 10020904     PointCardRW.obj
 0002:00000934       ??_7CRegObject@ATL@@6B@    10020934     PointCardRW.obj
 0002:0000094c       __GUID_00000113_0000_0000_c000_000000000046 1002094c     PointCardRW.obj
 0002:0000095c       __GUID_1c2056cc_5ef4_101b_8bc8_00aa003e3b29 1002095c     PointCardRW.obj
 0002:0000096c       ??_C@_1CK@OEKPKBNA@?$AAC?$AAo?$AAm?$AAp?$AAo?$AAn?$AAe?$AAn?$AAt?$AA?5?$AAC?$AAa?$AAt?$AAe?$AAg@ 1002096c     PointCardRW.obj
 0002:00000998       ??_C@_1BC@NKMMNMGL@?$AAF?$AAi?$AAl?$AAe?$AAT?$AAy?$AAp?$AAe@ 10020998     PointCardRW.obj
 0002:000009ac       ??_C@_1BE@EKPAFMCP@?$AAI?$AAn?$AAt?$AAe?$AAr?$AAf?$AAa?$AAc?$AAe@ 100209ac     PointCardRW.obj
 0002:000009c0       ??_C@_1BC@MAICEHGI@?$AAH?$AAa?$AAr?$AAd?$AAw?$AAa?$AAr?$AAe@ 100209c0     PointCardRW.obj
 0002:000009d4       ??_C@_19HLLLM@?$AAM?$AAi?$AAm?$AAe@ 100209d4     PointCardRW.obj
 0002:000009e0       ??_C@_17OMAOINJK@?$AAS?$AAA?$AAM@ 100209e0     PointCardRW.obj
 0002:000009e8       ??_C@_1BC@IBECJAAI@?$AAS?$AAE?$AAC?$AAU?$AAR?$AAI?$AAT?$AAY@ 100209e8     PointCardRW.obj
 0002:000009fc       ??_C@_1O@GBFINDKL@?$AAS?$AAY?$AAS?$AAT?$AAE?$AAM@ 100209fc     PointCardRW.obj
 0002:00000a0c       ??_C@_1BC@EAHCMADO@?$AAS?$AAo?$AAf?$AAt?$AAw?$AAa?$AAr?$AAe@ 10020a0c     PointCardRW.obj
 0002:00000a20       ??_C@_1BA@JIHHIEDE@?$AAT?$AAy?$AAp?$AAe?$AAL?$AAi?$AAb@ 10020a20     PointCardRW.obj
 0002:00000a30       ?map@?1??HKeyFromString@CRegParser@ATL@@KAPAUHKEY__@@PA_W@Z@4QBUkeymap@?1??123@KAPAU4@0@Z@B 10020a30     PointCardRW.obj
 0002:00000aa0       ??_C@_19NCHLBIN@?$AAH?$AAK?$AAC?$AAR@ 10020aa0     PointCardRW.obj
 0002:00000aac       ??_C@_19JAPAIJDE@?$AAH?$AAK?$AAC?$AAU@ 10020aac     PointCardRW.obj
 0002:00000ab8       ??_C@_19PEALEEJB@?$AAH?$AAK?$AAL?$AAM@ 10020ab8     PointCardRW.obj
 0002:00000ac4       ??_C@_17PJOJPMPB@?$AAH?$AAK?$AAU@ 10020ac4     PointCardRW.obj
 0002:00000acc       ??_C@_19PNBHMJPL@?$AAH?$AAK?$AAP?$AAD@ 10020acc     PointCardRW.obj
 0002:00000ad8       ??_C@_19GFFAIJHG@?$AAH?$AAK?$AAD?$AAD@ 10020ad8     PointCardRW.obj
 0002:00000ae4       ??_C@_19OFICIBHH@?$AAH?$AAK?$AAC?$AAC@ 10020ae4     PointCardRW.obj
 0002:00000af0       ??_C@_1CE@PACHPJFI@?$AAH?$AAK?$AAE?$AAY?$AA_?$AAC?$AAL?$AAA?$AAS?$AAS?$AAE?$AAS?$AA_?$AAR?$AAO@ 10020af0     PointCardRW.obj
 0002:00000b14       ??_C@_1CE@HLHNCBPM@?$AAH?$AAK?$AAE?$AAY?$AA_?$AAC?$AAU?$AAR?$AAR?$AAE?$AAN?$AAT?$AA_?$AAU?$AAS@ 10020b14     PointCardRW.obj
 0002:00000b38       ??_C@_1CG@GFBEANJL@?$AAH?$AAK?$AAE?$AAY?$AA_?$AAL?$AAO?$AAC?$AAA?$AAL?$AA_?$AAM?$AAA?$AAC?$AAH@ 10020b38     PointCardRW.obj
 0002:00000b60       ??_C@_1BG@BGODANIO@?$AAH?$AAK?$AAE?$AAY?$AA_?$AAU?$AAS?$AAE?$AAR?$AAS@ 10020b60     PointCardRW.obj
 0002:00000b78       ??_C@_1CM@KHNNAOIC@?$AAH?$AAK?$AAE?$AAY?$AA_?$AAP?$AAE?$AAR?$AAF?$AAO?$AAR?$AAM?$AAA?$AAN?$AAC@ 10020b78     PointCardRW.obj
 0002:00000ba4       ??_C@_1BM@HAGMMHIA@?$AAH?$AAK?$AAE?$AAY?$AA_?$AAD?$AAY?$AAN?$AA_?$AAD?$AAA?$AAT?$AAA@ 10020ba4     PointCardRW.obj
 0002:00000bc0       ??_C@_1CI@BBJOACGG@?$AAH?$AAK?$AAE?$AAY?$AA_?$AAC?$AAU?$AAR?$AAR?$AAE?$AAN?$AAT?$AA_?$AAC?$AAO@ 10020bc0     PointCardRW.obj
 0002:00000be8       __GUID_00000109_0000_0000_c000_000000000046 10020be8     PointCardRW.obj
 0002:00000bf8       __GUID_7fd52380_4e07_101b_ae2d_08002b2ec713 10020bf8     PointCardRW.obj
 0002:00000c08       __GUID_00000112_0000_0000_c000_000000000046 10020c08     PointCardRW.obj
 0002:00000c18       __GUID_3af24292_0c96_11ce_a0cf_00aa00600ab8 10020c18     PointCardRW.obj
 0002:00000c28       __GUID_00000127_0000_0000_c000_000000000046 10020c28     PointCardRW.obj
 0002:00000c38       __GUID_0000010d_0000_0000_c000_000000000046 10020c38     PointCardRW.obj
 0002:00000c48       ??_C@_1EA@NHKLICFA@?$AAH?$AAK?$AAC?$AAU?$AA?$AN?$AA?6?$AA?$HL?$AA?7?$AAS?$AAo?$AAf?$AAt?$AAw?$AAa?$AAr@ 10020c48     PointCardRW.obj
 0002:00000c88       ??_C@_1BE@LJOLIMEM@?$AA?$AN?$AA?6?$AA?7?$AA?$HN?$AA?$AN?$AA?6?$AA?$HN?$AA?$AN?$AA?6@ 10020c88     PointCardRW.obj
 0002:00000c9c       ??_C@_1O@MNLDABAF@?$AAM?$AAo?$AAd?$AAu?$AAl?$AAe@ 10020c9c     PointCardRW.obj
 0002:00000cac       ??_C@_1BG@JBACFMF@?$AAM?$AAo?$AAd?$AAu?$AAl?$AAe?$AA_?$AAR?$AAa?$AAw@ 10020cac     PointCardRW.obj
 0002:00000cc4       ??_C@_1BC@KAILKFFG@?$AAR?$AAE?$AAG?$AAI?$AAS?$AAT?$AAR?$AAY@ 10020cc4     PointCardRW.obj
 0002:00000cd8       ??_C@_1M@PPPPCDEP@?$AAA?$AAP?$AAP?$AAI?$AAD@ 10020cd8     PointCardRW.obj
 0002:00000ce4       ??_7?$CComContainedObject@VCOPOSPointCardRW@@@ATL@@6B?$IDispatchImpl@UIOPOSPointCardRW@@$1?IID_IOPOSPointCardRW@@3U_GUID@@B$1?LIBID_OposPointCardRW_CCO@@3U3@B$00$0A@VCComTypeInfoHolder@ATL@@@1@@ 10020ce4     PointCardRW.obj
 0002:00000ef4       ??_7?$CComContainedObject@VCOPOSPointCardRW@@@ATL@@6BCComControlBase@1@@ 10020ef4     PointCardRW.obj
 0002:00000f08       ??_7?$CComContainedObject@VCOPOSPointCardRW@@@ATL@@6B?$CWindowImpl@VCOPOSPointCardRW@@VCWindow@ATL@@V?$CWinTraits@$0FGAAAAAA@$0A@@3@@1@@ 10020f08     PointCardRW.obj
 0002:00000f18       ??_7?$CComContainedObject@VCOPOSPointCardRW@@@ATL@@6B?$IPersistStreamInitImpl@VCOPOSPointCardRW@@@1@@ 10020f18     PointCardRW.obj
 0002:00000f3c       ??_7?$CComContainedObject@VCOPOSPointCardRW@@@ATL@@6B?$IOleControlImpl@VCOPOSPointCardRW@@@1@@ 10020f3c     PointCardRW.obj
 0002:00000f58       ??_7?$CComContainedObject@VCOPOSPointCardRW@@@ATL@@6B?$IOleObjectImpl@VCOPOSPointCardRW@@@1@@ 10020f58     PointCardRW.obj
 0002:00000fb8       ??_7?$CComContainedObject@VCOPOSPointCardRW@@@ATL@@6B?$IOleInPlaceActiveObjectImpl@VCOPOSPointCardRW@@@1@@ 10020fb8     PointCardRW.obj
 0002:00000fe0       ??_7?$CComContainedObject@VCOPOSPointCardRW@@@ATL@@6B?$IViewObjectExImpl@VCOPOSPointCardRW@@@1@@ 10020fe0     PointCardRW.obj
 0002:0000101c       ??_7?$CComContainedObject@VCOPOSPointCardRW@@@ATL@@6B?$IOleInPlaceObjectWindowlessImpl@VCOPOSPointCardRW@@@1@@ 1002101c     PointCardRW.obj
 0002:00001048       ??_7?$CComContainedObject@VCOPOSPointCardRW@@@ATL@@6B?$IConnectionPointContainerImpl@VCOPOSPointCardRW@@@1@@ 10021048     PointCardRW.obj
 0002:0000105c       ??_7?$CComContainedObject@VCOPOSPointCardRW@@@ATL@@6B?$IPersistStorageImpl@VCOPOSPointCardRW@@@1@@ 1002105c     PointCardRW.obj
 0002:00001084       ??_7?$CComContainedObject@VCOPOSPointCardRW@@@ATL@@6B?$ISpecifyPropertyPagesImpl@VCOPOSPointCardRW@@@1@@ 10021084     PointCardRW.obj
 0002:00001094       ??_7?$CComContainedObject@VCOPOSPointCardRW@@@ATL@@6B?$IQuickActivateImpl@VCOPOSPointCardRW@@@1@@ 10021094     PointCardRW.obj
 0002:000010ac       ??_7?$CComContainedObject@VCOPOSPointCardRW@@@ATL@@6B?$IDataObjectImpl@VCOPOSPointCardRW@@@1@@ 100210ac     PointCardRW.obj
 0002:000010dc       ??_7?$CComContainedObject@VCOPOSPointCardRW@@@ATL@@6B?$IProvideClassInfo2Impl@$1?CLSID_OPOSPointCardRW@@3U_GUID@@B$1?DIID__IOPOSPointCardRWEvents@@3U2@B$1?LIBID_OposPointCardRW_CCO@@3U2@B$00$0A@VCComTypeInfoHolder@ATL@@@1@@ 100210dc     PointCardRW.obj
 0002:000010f0       ??_7?$CComContainedObject@VCOPOSPointCardRW@@@ATL@@6B?$IObjectSafetyImpl@VCOPOSPointCardRW@@$02@1@@ 100210f0     PointCardRW.obj
 0002:00001108       ??_7?$CComContainedObject@VCOPOSPointCardRW@@@ATL@@6B?$IPropertyNotifySinkCP@VCOPOSPointCardRW@@VCComDynamicUnkArray@ATL@@@1@@ 10021108     PointCardRW.obj
 0002:00001128       ??_7?$CComContainedObject@VCOPOSPointCardRW@@@ATL@@6B?$CProxy_IOPOSEvents@VCOPOSPointCardRW@@@@@ 10021128     PointCardRW.obj
 0002:00001148       ??_7?$CComAggObject@VCOPOSPointCardRW@@@ATL@@6B@ 10021148     PointCardRW.obj
 0002:00001158       ??_7?$CComObject@VCOPOSPointCardRW@@@ATL@@6B?$IDispatchImpl@UIOPOSPointCardRW@@$1?IID_IOPOSPointCardRW@@3U_GUID@@B$1?LIBID_OposPointCardRW_CCO@@3U3@B$00$0A@VCComTypeInfoHolder@ATL@@@1@@ 10021158     PointCardRW.obj
 0002:00001368       ??_7?$CComObject@VCOPOSPointCardRW@@@ATL@@6BCComControlBase@1@@ 10021368     PointCardRW.obj
 0002:0000137c       ??_7?$CComObject@VCOPOSPointCardRW@@@ATL@@6B?$CWindowImpl@VCOPOSPointCardRW@@VCWindow@ATL@@V?$CWinTraits@$0FGAAAAAA@$0A@@3@@1@@ 1002137c     PointCardRW.obj
 0002:0000138c       ??_7?$CComObject@VCOPOSPointCardRW@@@ATL@@6B?$IPersistStreamInitImpl@VCOPOSPointCardRW@@@1@@ 1002138c     PointCardRW.obj
 0002:000013b0       ??_7?$CComObject@VCOPOSPointCardRW@@@ATL@@6B?$IOleControlImpl@VCOPOSPointCardRW@@@1@@ 100213b0     PointCardRW.obj
 0002:000013cc       ??_7?$CComObject@VCOPOSPointCardRW@@@ATL@@6B?$IOleObjectImpl@VCOPOSPointCardRW@@@1@@ 100213cc     PointCardRW.obj
 0002:0000142c       ??_7?$CComObject@VCOPOSPointCardRW@@@ATL@@6B?$IOleInPlaceActiveObjectImpl@VCOPOSPointCardRW@@@1@@ 1002142c     PointCardRW.obj
 0002:00001454       ??_7?$CComObject@VCOPOSPointCardRW@@@ATL@@6B?$IViewObjectExImpl@VCOPOSPointCardRW@@@1@@ 10021454     PointCardRW.obj
 0002:00001490       ??_7?$CComObject@VCOPOSPointCardRW@@@ATL@@6B?$IOleInPlaceObjectWindowlessImpl@VCOPOSPointCardRW@@@1@@ 10021490     PointCardRW.obj
 0002:000014bc       ??_7?$CComObject@VCOPOSPointCardRW@@@ATL@@6B?$IConnectionPointContainerImpl@VCOPOSPointCardRW@@@1@@ 100214bc     PointCardRW.obj
 0002:000014d0       ??_7?$CComObject@VCOPOSPointCardRW@@@ATL@@6B?$IPersistStorageImpl@VCOPOSPointCardRW@@@1@@ 100214d0     PointCardRW.obj
 0002:000014f8       ??_7?$CComObject@VCOPOSPointCardRW@@@ATL@@6B?$ISpecifyPropertyPagesImpl@VCOPOSPointCardRW@@@1@@ 100214f8     PointCardRW.obj
 0002:00001508       ??_7?$CComObject@VCOPOSPointCardRW@@@ATL@@6B?$IQuickActivateImpl@VCOPOSPointCardRW@@@1@@ 10021508     PointCardRW.obj
 0002:00001520       ??_7?$CComObject@VCOPOSPointCardRW@@@ATL@@6B?$IDataObjectImpl@VCOPOSPointCardRW@@@1@@ 10021520     PointCardRW.obj
 0002:00001550       ??_7?$CComObject@VCOPOSPointCardRW@@@ATL@@6B?$IProvideClassInfo2Impl@$1?CLSID_OPOSPointCardRW@@3U_GUID@@B$1?DIID__IOPOSPointCardRWEvents@@3U2@B$1?LIBID_OposPointCardRW_CCO@@3U2@B$00$0A@VCComTypeInfoHolder@ATL@@@1@@ 10021550     PointCardRW.obj
 0002:00001564       ??_7?$CComObject@VCOPOSPointCardRW@@@ATL@@6B?$IObjectSafetyImpl@VCOPOSPointCardRW@@$02@1@@ 10021564     PointCardRW.obj
 0002:0000157c       ??_7?$CComObject@VCOPOSPointCardRW@@@ATL@@6B?$IPropertyNotifySinkCP@VCOPOSPointCardRW@@VCComDynamicUnkArray@ATL@@@1@@ 1002157c     PointCardRW.obj
 0002:0000159c       ??_7?$CComObject@VCOPOSPointCardRW@@@ATL@@6B?$CProxy_IOPOSEvents@VCOPOSPointCardRW@@@@@ 1002159c     PointCardRW.obj
 0002:000015bc       ??_C@_1O@GBFKGNEO@?$AAA?$AAT?$AAL?$AA?3?$AA?$CF?$AAp@ 100215bc     PointCardRW.obj
 0002:000015cc       ??_C@_1BA@PICGEGJB@?$AAD?$AAI?$AAS?$AAP?$AAL?$AAA?$AAY@ 100215cc     PointCardRW.obj
 0002:000015dc       __GUID_9bfbbc02_eff1_101a_84ed_00aa00341d07 100215dc     PointCardRW.obj
 0002:000015ec       __GUID_b196b284_bab4_101a_b69c_00aa00341d07 100215ec     PointCardRW.obj
 0002:000015fc       ?_entries@?1??_GetEntries@?$CComEnum@UIEnumConnectionPoints@@$1?_GUID_b196b285_bab4_101a_b69c_00aa00341d07@@3U__s_GUID@@BPAUIConnectionPoint@@V?$_CopyInterface@UIConnectionPoint@@@ATL@@VCComSingleThreadModel@6@@ATL@@SGPBU_ATL_INTMAP_ENTRY@3@XZ@4QBU43@B 100215fc     PointCardRW.obj
 0002:00001614       __GUID_00020412_0000_0000_c000_000000000046 10021614     PointCardRW.obj
 0002:00001624       __GUID_00020401_0000_0000_c000_000000000046 10021624     PointCardRW.obj
 0002:00001634       __GUID_55980ba0_35aa_11cf_b671_00aa004cd6d8 10021634     PointCardRW.obj
 0002:00001644       __GUID_b196b28b_bab4_101a_b69c_00aa00341d07 10021644     PointCardRW.obj
 0002:00001654       ??_7?$CComObject@V?$CComEnum@UIEnumConnections@@$1?_GUID_b196b287_bab4_101a_b69c_00aa00341d07@@3U__s_GUID@@BUtagCONNECTDATA@@V?$_Copy@UtagCONNECTDATA@@@ATL@@VCComSingleThreadModel@6@@ATL@@@ATL@@6B@ 10021654     PointCardRW.obj
 0002:00001674       ??_C@_0BG@EKFFMJIO@RegOpenKeyTransactedW@ 10021674     PointCardRW.obj
 0002:0000168c       ??_C@_0BI@HAKLOOGP@RegDeleteKeyTransactedW@ 1002168c     PointCardRW.obj
 0002:000016a4       ??_C@_0BA@LILAPHGE@RegDeleteKeyExW@ 100216a4     PointCardRW.obj
 0002:000016b4       ??_C@_19ILOCMLCJ@?$AA?4?$AAt?$AAl?$AAb@ 100216b4     PointCardRW.obj
 0002:000016c0       __GUID_0002e012_0000_0000_c000_000000000046 100216c0     PointCardRW.obj
 0002:000016d0       ??_C@_1O@FHBGLCIO@?$AAC?$AAL?$AAS?$AAI?$AAD?$AA?2@ 100216d0     PointCardRW.obj
 0002:000016e0       ??_C@_1CK@IFBKBFAA@?$AA?2?$AAR?$AAe?$AAq?$AAu?$AAi?$AAr?$AAe?$AAd?$AA?5?$AAC?$AAa?$AAt?$AAe?$AAg@ 100216e0     PointCardRW.obj
 0002:0000170c       ??_C@_1DA@BIHALFED@?$AA?2?$AAI?$AAm?$AAp?$AAl?$AAe?$AAm?$AAe?$AAn?$AAt?$AAe?$AAd?$AA?5?$AAC?$AAa@ 1002170c     PointCardRW.obj
 0002:0000173c       ??_C@_1BK@EDKOLFBJ@?$AAO?$AAL?$AAE?$AAA?$AAU?$AAT?$AA3?$AA2?$AA?4?$AAD?$AAL?$AAL@ 1002173c     PointCardRW.obj
 0002:00001758       ??_C@_0BJ@CNLFOMHB@UnRegisterTypeLibForUser@ 10021758     PointCardRW.obj
 0002:00001774       ??_C@_0BH@LBOMMKPJ@RegisterTypeLibForUser@ 10021774     PointCardRW.obj
 0002:0000178c       ??_C@_0P@MMNMMLGK@COFreezeEvents@ 1002178c     PointCardRWImpl.obj
 0002:0000179c       ??_C@_0BC@OGCGGIMP@GetPropertyNumber@ 1002179c     PointCardRWImpl.obj
 0002:000017b0       ??_C@_0BC@MDCNODNB@SetPropertyNumber@ 100217b0     PointCardRWImpl.obj
 0002:000017c4       ??_C@_0BC@CFCCMIMD@GetPropertyString@ 100217c4     PointCardRWImpl.obj
 0002:000017d8       ??_C@_0BC@CJEDNN@SetPropertyString@ 100217d8     PointCardRWImpl.obj
 0002:000017ec       ??_C@_0M@LNPKKKDA@OpenService@ 100217ec     PointCardRWImpl.obj
 0002:000017f8       ??_C@_0M@PCMCHHMH@CheckHealth@ 100217f8     PointCardRWImpl.obj
 0002:00001804       ??_C@_0M@JGMIDNEK@ClaimDevice@ 10021804     PointCardRWImpl.obj
 0002:00001810       ??_C@_0L@BNEIFEJC@ClearInput@ 10021810     PointCardRWImpl.obj
 0002:0000181c       ??_C@_0M@JMBCPNGJ@ClearOutput@ 1002181c     PointCardRWImpl.obj
 0002:00001828       ??_C@_0N@DDFIIBMP@CloseService@ 10021828     PointCardRWImpl.obj
 0002:00001838       ??_C@_08EEIHICPC@DirectIO@ 10021838     PointCardRWImpl.obj
 0002:00001844       ??_C@_0O@BCPMENMJ@ReleaseDevice@ 10021844     PointCardRWImpl.obj
 0002:00001854       ??_C@_0P@DPMKPLAE@BeginInsertion@ 10021854     PointCardRWImpl.obj
 0002:00001864       ??_C@_0N@PCJLGBKP@BeginRemoval@ 10021864     PointCardRWImpl.obj
 0002:00001874       ??_C@_09JOLGHOFM@CleanCard@ 10021874     PointCardRWImpl.obj
 0002:00001880       ??_C@_0BA@DIBCHCJJ@ClearPrintWrite@ 10021880     PointCardRWImpl.obj
 0002:00001890       ??_C@_0N@MIHLNKHM@EndInsertion@ 10021890     PointCardRWImpl.obj
 0002:000018a0       ??_C@_0L@FCEKAOMI@EndRemoval@ 100218a0     PointCardRWImpl.obj
 0002:000018ac       ??_C@_0L@KMDJNLNL@PrintWrite@ 100218ac     PointCardRWImpl.obj
 0002:000018b8       ??_C@_0M@BCMAIKNJ@RotatePrint@ 100218b8     PointCardRWImpl.obj
 0002:000018c4       ??_C@_0N@MBAILECK@ValidateData@ 100218c4     PointCardRWImpl.obj
 0002:000018d4       ??_C@_0BA@GFABKEEE@ResetStatistics@ 100218d4     PointCardRWImpl.obj
 0002:000018e4       ??_C@_0BD@DPALHJGC@RetrieveStatistics@ 100218e4     PointCardRWImpl.obj
 0002:000018f8       ??_C@_0BB@KOHIKNFC@UpdateStatistics@ 100218f8     PointCardRWImpl.obj
 0002:0000190c       ??_C@_0BH@PBKBNMGB@CompareFirmwareVersion@ 1002190c     PointCardRWImpl.obj
 0002:00001924       ??_C@_0P@FBPDPIPA@UpdateFirmware@ 10021924     PointCardRWImpl.obj
 0002:00001934       ??_C@_0BF@CMAPCJGM@ClearInputProperties@ 10021934     PointCardRWImpl.obj
 0002:0000194c       ??_7?$CProxy_IOPOSEvents@VCOPOSPointCardRW@@@@6B@ 1002194c     PointCardRWImpl.obj
 0002:0000196c       ??_C@_1BA@IFHENID@?$AA?$FL?$AAE?$AAr?$AAr?$AAo?$AAr?$AA?$FN@ 1002196c     PointCardRWImpl.obj
 0002:0000197c       ??_C@_0CO@JMLGEGNF@SOFTWARE?2OLEforRetail?2ServiceOP@ 1002197c     PointCardRWImpl.obj
 0002:000019ac       ??_C@_1M@IAIJHCCH@?$AAC?$AAl?$AAo?$AAs?$AAe@ 100219ac     PointCardRWImpl.obj
 0002:000019b8       ??_C@_1M@PCPKGJAH@?$AAC?$AAl?$AAa?$AAi?$AAm@ 100219b8     PointCardRWImpl.obj
 0002:000019c4       ??_C@_1BA@NDFKIOCP@?$AAR?$AAe?$AAl?$AAe?$AAa?$AAs?$AAe@ 100219c4     PointCardRWImpl.obj
 0002:000019d4       ??_C@_0M@PBOLLKCJ@PointCardRW@ 100219d4     PointCardRWImpl.obj
 0002:000019e0       ??_C@_1BM@IJMNMBPK@?$AAG?$AAe?$AAt?$AAO?$AAp?$AAe?$AAn?$AAR?$AAe?$AAs?$AAu?$AAl?$AAt@ 100219e0     PointCardRWImpl.obj
 0002:000019fc       _IID_IPropertyNotifySink   100219fc     uuid:ocidl_i.obj
 0002:00001a0c       _GUID_NULL                 10021a0c     uuid:cguid_i.obj
 0002:00001a1c       _CLSID_StdGlobalInterfaceTable 10021a1c     uuid:cguid_i.obj
 0002:00001a2c       _IID_IDispatch             10021a2c     uuid:oaidl_i.obj
 0002:00001a3c       _CLSID_StdComponentCategoriesMgr 10021a3c     uuid:ieguids.obj
 0002:00001a4c       _IID_IUnknown              10021a4c     uuid:unknwn_i.obj
 0002:00001a60       ??_C@_1EC@JIJBPKFM@?$AAa?$AAp?$AAi?$AA?9?$AAm?$AAs?$AA?9?$AAw?$AAi?$AAn?$AA?9?$AAc?$AAo?$AAr?$AAe@ 10021a60     LIBCMT:thread_safe_statics.obj
 0002:00001aa4       ??_C@_1BK@MGMFAEKH@?$AAk?$AAe?$AAr?$AAn?$AAe?$AAl?$AA3?$AA2?$AA?4?$AAd?$AAl?$AAl@ 10021aa4     LIBCMT:thread_safe_statics.obj
 0002:00001ac0       ??_C@_0BJ@JEBJOJFJ@SleepConditionVariableCS@ 10021ac0     LIBCMT:thread_safe_statics.obj
 0002:00001adc       ??_C@_0BJ@PGPPEPCC@WakeAllConditionVariable@ 10021adc     LIBCMT:thread_safe_statics.obj
 0002:00001af5       ?nothrow@std@@3Unothrow_t@1@B 10021af5     LIBCMT:std_nothrow.obj
 0002:00001b00       __pRawDllMain              10021b00     LIBCMT:dll_dllmain.obj
 0002:00001b00       __pDefaultRawDllMain       10021b00     LIBCMT:dll_dllmain.obj
 0002:00001b08       ??_7exception@std@@6B@     10021b08     LIBCMT:throw_bad_alloc.obj
 0002:00001b10       ??_C@_0BC@EOODALEL@Unknown?5exception@ 10021b10     LIBCMT:throw_bad_alloc.obj
 0002:00001b28       ??_7bad_alloc@std@@6B@     10021b28     LIBCMT:throw_bad_alloc.obj
 0002:00001b30       ??_C@_0P@GHFPNOJB@bad?5allocation@ 10021b30     LIBCMT:throw_bad_alloc.obj
 0002:00001b44       ??_7bad_array_new_length@std@@6B@ 10021b44     LIBCMT:throw_bad_alloc.obj
 0002:00001b4c       ??_C@_0BF@KINCDENJ@bad?5array?5new?5length@ 10021b4c     LIBCMT:throw_bad_alloc.obj
 0002:00001b68       ??_7type_info@@6B@         10021b68     LIBCMT:std_type_info_static.obj
 0002:00001b6c       _GUID_ATLVer110            10021b6c     atls:atlbase.obj
 0002:00001b80       ??_C@_1IC@ONKHOIDK@?$AAE?$AAR?$AAR?$AAO?$AAR?$AA?5?$AA?3?$AA?5?$AAU?$AAn?$AAa?$AAb?$AAl?$AAe?$AA?5@ 10021b80     atls:atlbase.obj
 0002:00001c04       ??_C@_0N@FJEPLCIH@atlthunk?4dll@ 10021c04     atls:atlthunk.obj
 0002:00001c14       ??_C@_0BG@GAKFHCBM@AtlThunk_AllocateData@ 10021c14     atls:atlthunk.obj
 0002:00001c2c       ??_C@_0BC@JKONFIAH@AtlThunk_InitData@ 10021c2c     atls:atlthunk.obj
 0002:00001c40       ??_C@_0BE@IAOEELAK@AtlThunk_DataToCode@ 10021c40     atls:atlthunk.obj
 0002:00001c54       ??_C@_0BC@GBGKAIPI@AtlThunk_FreeData@ 10021c54     atls:atlthunk.obj
 0002:00001c68       __pDestructExceptionObject 10021c68     libvcruntime:ehhelpers.obj
 0002:00001c70       ??_7bad_exception@std@@6B@ 10021c70     libvcruntime:frame.obj
 0002:00001c78       ??_C@_0O@DPKOEFFH@bad?5exception@ 10021c78     libvcruntime:frame.obj
 0002:00002008       ??_C@_08EHJDFFNH@__based?$CI@ 10022008     libvcruntime:undname.obj
 0002:00002014       ??_C@_07KOLFKCDI@__cdecl@  10022014     libvcruntime:undname.obj
 0002:0000201c       ??_C@_08GHMPAG@__pascal@   1002201c     libvcruntime:undname.obj
 0002:00002028       ??_C@_09IFJBGAPI@__stdcall@ 10022028     libvcruntime:undname.obj
 0002:00002034       ??_C@_0L@NPHFGOKO@__thiscall@ 10022034     libvcruntime:undname.obj
 0002:00002040       ??_C@_0L@JMKHOMEK@__fastcall@ 10022040     libvcruntime:undname.obj
 0002:0000204c       ??_C@_0N@BCKKPABJ@__vectorcall@ 1002204c     libvcruntime:undname.obj
 0002:0000205c       ??_C@_09HIJEGCPM@__clrcall@ 1002205c     libvcruntime:undname.obj
 0002:00002068       ??_C@_06GHPCKEAG@__eabi@   10022068     libvcruntime:undname.obj
 0002:00002070       ??_C@_09IOPIDJLG@__swift_1@ 10022070     libvcruntime:undname.obj
 0002:0000207c       ??_C@_09KFNFGKHF@__swift_2@ 1002207c     libvcruntime:undname.obj
 0002:00002088       ??_C@_07JOMMBBKO@__ptr64@  10022088     libvcruntime:undname.obj
 0002:00002090       ??_C@_0L@PILCLIHE@__restrict@ 10022090     libvcruntime:undname.obj
 0002:0000209c       ??_C@_0M@GFIIJFMG@__unaligned@ 1002209c     libvcruntime:undname.obj
 0002:000020a8       ??_C@_09DHDLOLLB@restrict?$CI@ 100220a8     libvcruntime:undname.obj
 0002:000020b2       ??_C@_00CNPNBAHC@@         100220b2     libvcruntime:undname.obj
 0002:000020b4       ??_C@_04NIHEBCM@?5new@     100220b4     libvcruntime:undname.obj
 0002:000020bc       ??_C@_07FPCDHGMM@?5delete@ 100220bc     libvcruntime:undname.obj
 0002:000020c4       ??_C@_01NEMOKFLO@?$DN@     100220c4     libvcruntime:undname.obj
 0002:000020c8       ??_C@_02GPIOPFAK@?$DO?$DO@ 100220c8     libvcruntime:undname.obj
 0002:000020cc       ??_C@_02FODMEDOG@?$DM?$DM@ 100220cc     libvcruntime:undname.obj
 0002:000020d0       ??_C@_01DCLJPIOD@?$CB@     100220d0     libvcruntime:undname.obj
 0002:000020d4       ??_C@_02EGOFBIJA@?$DN?$DN@ 100220d4     libvcruntime:undname.obj
 0002:000020d8       ??_C@_02FDNJECIE@?$CB?$DN@ 100220d8     libvcruntime:undname.obj
 0002:000020dc       ??_C@_02GPECMEKF@?$FL?$FN@ 100220dc     libvcruntime:undname.obj
 0002:000020e0       ??_C@_08LHJFAFGD@operator@ 100220e0     libvcruntime:undname.obj
 0002:000020ec       ??_C@_02HBOOOICD@?9?$DO@   100220ec     libvcruntime:undname.obj
 0002:000020f0       ??_C@_01NBENCBCI@?$CK@     100220f0     libvcruntime:undname.obj
 0002:000020f4       ??_C@_02ECNGHCIF@?$CL?$CL@ 100220f4     libvcruntime:undname.obj
 0002:000020f8       ??_C@_02BAABKJLB@?9?9@     100220f8     libvcruntime:undname.obj
 0002:000020fc       ??_C@_01JOAMLHOP@?9@       100220fc     libvcruntime:undname.obj
 0002:00002100       ??_C@_01MIFGBAGJ@?$CL@     10022100     libvcruntime:undname.obj
 0002:00002104       ??_C@_01HNPIGOCE@?$CG@     10022104     libvcruntime:undname.obj
 0002:00002108       ??_C@_03MNHNFDLC@?9?$DO?$CK@ 10022108     libvcruntime:undname.obj
 0002:0000210c       ??_C@_01KMDKNFGN@?1@       1002210c     libvcruntime:undname.obj
 0002:00002110       ??_C@_01FGNFDNOH@?$CF@     10022110     libvcruntime:undname.obj
 0002:00002114       ??_C@_01MNNFJEPP@?$DM@     10022114     libvcruntime:undname.obj
 0002:00002118       ??_C@_02EHCHHCKH@?$DM?$DN@ 10022118     libvcruntime:undname.obj
 0002:0000211c       ??_C@_01PPODPGHN@?$DO@     1002211c     libvcruntime:undname.obj
 0002:00002120       ??_C@_02EEKDKGMJ@?$DO?$DN@ 10022120     libvcruntime:undname.obj
 0002:00002124       ??_C@_01IHBHIGKO@?0@       10022124     libvcruntime:undname.obj
 0002:00002128       ??_C@_02HCKGKOFO@?$CI?$CJ@ 10022128     libvcruntime:undname.obj
 0002:0000212c       ??_C@_01PJKLJHI@?$HO@      1002212c     libvcruntime:undname.obj
 0002:00002130       ??_C@_01JKBOJNNK@?$FO@     10022130     libvcruntime:undname.obj
 0002:00002134       ??_C@_01DNKMNLPK@?$HM@     10022134     libvcruntime:undname.obj
 0002:00002138       ??_C@_02PPKAJPJL@?$CG?$CG@ 10022138     libvcruntime:undname.obj
 0002:0000213c       ??_C@_02NONPIBCD@?$HM?$HM@ 1002213c     libvcruntime:undname.obj
 0002:00002140       ??_C@_02FPIMKNGF@?$CK?$DN@ 10022140     libvcruntime:undname.obj
 0002:00002144       ??_C@_02FOEOMHFC@?$CL?$DN@ 10022144     libvcruntime:undname.obj
 0002:00002148       ??_C@_02FKMDLLOA@?9?$DN@   10022148     libvcruntime:undname.obj
 0002:0000214c       ??_C@_02FJEHGPIO@?1?$DN@   1002214c     libvcruntime:undname.obj
 0002:00002150       ??_C@_02FENAOKFI@?$CF?$DN@ 10022150     libvcruntime:undname.obj
 0002:00002154       ??_C@_03IKFCCPFF@?$DO?$DO?$DN@ 10022154     libvcruntime:undname.obj
 0002:00002158       ??_C@_03CDNPDDLA@?$DM?$DM?$DN@ 10022158     libvcruntime:undname.obj
 0002:0000215c       ??_C@_02FGJGFEAB@?$CG?$DN@ 1002215c     libvcruntime:undname.obj
 0002:00002160       ??_C@_02DHLNPPGH@?$HM?$DN@ 10022160     libvcruntime:undname.obj
 0002:00002164       ??_C@_02MHEGNOJ@?$FO?$DN@  10022164     libvcruntime:undname.obj
 0002:00002168       ??_C@_09IFPLHPGF@?$GAvftable?8@ 10022168     libvcruntime:undname.obj
 0002:00002174       ??_C@_09BLBHBJP@?$GAvbtable?8@ 10022174     libvcruntime:undname.obj
 0002:00002180       ??_C@_07FEEIOKP@?$GAvcall?8@ 10022180     libvcruntime:undname.obj
 0002:00002188       ??_C@_08LLFFHHDJ@?$GAtypeof?8@ 10022188     libvcruntime:undname.obj
 0002:00002194       ??_C@_0BF@KDPPACIK@?$GAlocal?5static?5guard?8@ 10022194     libvcruntime:undname.obj
 0002:000021ac       ??_C@_08OBABFOLI@?$GAstring?8@ 100221ac     libvcruntime:undname.obj
 0002:000021b8       ??_C@_0BD@JDLKDPAB@?$GAvbase?5destructor?8@ 100221b8     libvcruntime:undname.obj
 0002:000021cc       ??_C@_0BN@DEGPLNFK@?$GAvector?5deleting?5destructor?8@ 100221cc     libvcruntime:undname.obj
 0002:000021ec       ??_C@_0BO@OBMKPJIG@?$GAdefault?5constructor?5closure?8@ 100221ec     libvcruntime:undname.obj
 0002:0000220c       ??_C@_0BN@IMDCHIKM@?$GAscalar?5deleting?5destructor?8@ 1002220c     libvcruntime:undname.obj
 0002:0000222c       ??_C@_0BO@PFGOCPJJ@?$GAvector?5constructor?5iterator?8@ 1002222c     libvcruntime:undname.obj
 0002:0000224c       ??_C@_0BN@LFPFMEDL@?$GAvector?5destructor?5iterator?8@ 1002224c     libvcruntime:undname.obj
 0002:0000226c       ??_C@_0CE@IKBNEHA@?$GAvector?5vbase?5constructor?5itera@ 1002226c     libvcruntime:undname.obj
 0002:00002290       ??_C@_0BL@NILFHHPC@?$GAvirtual?5displacement?5map?8@ 10022290     libvcruntime:undname.obj
 0002:000022ac       ??_C@_0CB@JONCMFFK@?$GAeh?5vector?5constructor?5iterator@ 100222ac     libvcruntime:undname.obj
 0002:000022d0       ??_C@_0CA@GCEOPDGL@?$GAeh?5vector?5destructor?5iterator?8@ 100222d0     libvcruntime:undname.obj
 0002:000022f0       ??_C@_0CH@OOJPLCPH@?$GAeh?5vector?5vbase?5constructor?5it@ 100222f0     libvcruntime:undname.obj
 0002:00002318       ??_C@_0BL@LLKPOHJI@?$GAcopy?5constructor?5closure?8@ 10022318     libvcruntime:undname.obj
 0002:00002334       ??_C@_0BA@KBCDOMBN@?$GAudt?5returning?8@ 10022334     libvcruntime:undname.obj
 0002:00002344       ??_C@_03KLGMFNMG@?$GAEH@   10022344     libvcruntime:undname.obj
 0002:00002348       ??_C@_05KHLCHHI@?$GARTTI@  10022348     libvcruntime:undname.obj
 0002:00002350       ??_C@_0BA@KKLDJDLB@?$GAlocal?5vftable?8@ 10022350     libvcruntime:undname.obj
 0002:00002360       ??_C@_0CE@IIHCMGGL@?$GAlocal?5vftable?5constructor?5clos@ 10022360     libvcruntime:undname.obj
 0002:00002384       ??_C@_06FHBGPFGH@?5new?$FL?$FN@ 10022384     libvcruntime:undname.obj
 0002:0000238c       ??_C@_09LBNFPBCA@?5delete?$FL?$FN@ 1002238c     libvcruntime:undname.obj
 0002:00002398       ??_C@_0P@HJKNJFNN@?$GAomni?5callsig?8@ 10022398     libvcruntime:undname.obj
 0002:000023a8       ??_C@_0BL@CNOONJFP@?$GAplacement?5delete?5closure?8@ 100223a8     libvcruntime:undname.obj
 0002:000023c4       ??_C@_0BN@CKNJLHMB@?$GAplacement?5delete?$FL?$FN?5closure?8@ 100223c4     libvcruntime:undname.obj
 0002:000023e4       ??_C@_0CG@CFDHKGGD@?$GAmanaged?5vector?5constructor?5ite@ 100223e4     libvcruntime:undname.obj
 0002:0000240c       ??_C@_0CF@IMGKMJNO@?$GAmanaged?5vector?5destructor?5iter@ 1002240c     libvcruntime:undname.obj
 0002:00002434       ??_C@_0CG@HLDDJMAG@?$GAeh?5vector?5copy?5constructor?5ite@ 10022434     libvcruntime:undname.obj
 0002:0000245c       ??_C@_0CM@FCBBDIGB@?$GAeh?5vector?5vbase?5copy?5construct@ 1002245c     libvcruntime:undname.obj
 0002:00002488       ??_C@_0BL@CLIPGLGB@?$GAdynamic?5initializer?5for?5?8@ 10022488     libvcruntime:undname.obj
 0002:000024a4       ??_C@_0CB@PDBIFEP@?$GAdynamic?5atexit?5destructor?5for?5@ 100224a4     libvcruntime:undname.obj
 0002:000024c8       ??_C@_0CD@CGAJBKEJ@?$GAvector?5copy?5constructor?5iterat@ 100224c8     libvcruntime:undname.obj
 0002:000024ec       ??_C@_0CJ@GJELGAMM@?$GAvector?5vbase?5copy?5constructor?5@ 100224ec     libvcruntime:undname.obj
 0002:00002518       ??_C@_0CL@FGIJHLCE@?$GAmanaged?5vector?5copy?5constructo@ 10022518     libvcruntime:undname.obj
 0002:00002544       ??_C@_0BM@PMGGMLDN@?$GAlocal?5static?5thread?5guard?8@ 10022544     libvcruntime:undname.obj
 0002:00002560       ??_C@_0N@BDNMDMOL@operator?5?$CC?$CC?5@ 10022560     libvcruntime:undname.obj
 0002:00002570       ??_C@_0BC@GGEBGALA@operator?5co_await@ 10022570     libvcruntime:undname.obj
 0002:00002584       ??_C@_0M@GAAIMMOH@operator?$DM?$DN?$DO@ 10022584     libvcruntime:undname.obj
 0002:00002590       ??_C@_0BC@DAFEJGAK@?5Type?5Descriptor?8@ 10022590     libvcruntime:undname.obj
 0002:000025a4       ??_C@_0BM@LDKODKLH@?5Base?5Class?5Descriptor?5at?5?$CI@ 100225a4     libvcruntime:undname.obj
 0002:000025c0       ??_C@_0BD@LGICGFMM@?5Base?5Class?5Array?8@ 100225c0     libvcruntime:undname.obj
 0002:000025d4       ??_C@_0BN@MECKDCOJ@?5Class?5Hierarchy?5Descriptor?8@ 100225d4     libvcruntime:undname.obj
 0002:000025f4       ??_C@_0BK@CFCOFLF@?5Complete?5Object?5Locator?8@ 100225f4     libvcruntime:undname.obj
 0002:00002610       ??_C@_0BG@JNJLAMPM@?$GAanonymous?5namespace?8@ 10022610     libvcruntime:undname.obj
 0002:00002634       ??_C@_1DM@KHCHBNEB@?$AAa?$AAp?$AAi?$AA?9?$AAm?$AAs?$AA?9?$AAw?$AAi?$AAn?$AA?9?$AAc?$AAo?$AAr?$AAe@ 10022634     libvcruntime:winapi_downlevel.obj
 0002:00002670       ??_C@_1DK@LPPGFMPP@?$AAa?$AAp?$AAi?$AA?9?$AAm?$AAs?$AA?9?$AAw?$AAi?$AAn?$AA?9?$AAc?$AAo?$AAr?$AAe@ 10022670     libvcruntime:winapi_downlevel.obj
 0002:000026ac       ??_C@_1BC@GDMECMAK@?$AAk?$AAe?$AAr?$AAn?$AAe?$AAl?$AA3?$AA2@ 100226ac     libvcruntime:winapi_downlevel.obj
 0002:000026c0       ??_C@_1BA@PFFKHIOG@?$AAa?$AAp?$AAi?$AA?9?$AAm?$AAs?$AA?9@ 100226c0     libvcruntime:winapi_downlevel.obj
 0002:000026d8       ??_C@_08KNHFBNJ@FlsAlloc@  100226d8     libvcruntime:winapi_downlevel.obj
 0002:000026ec       ??_C@_07PEJMOBNF@FlsFree@  100226ec     libvcruntime:winapi_downlevel.obj
 0002:000026fc       ??_C@_0M@GDNOONDI@FlsGetValue@ 100226fc     libvcruntime:winapi_downlevel.obj
 0002:00002710       ??_C@_0M@JCPCPOEF@FlsSetValue@ 10022710     libvcruntime:winapi_downlevel.obj
 0002:00002724       ??_C@_0BM@HCFOFFN@InitializeCriticalSectionEx@ 10022724     libvcruntime:winapi_downlevel.obj
 0002:000028a8       ?format_validation_lookup_table_spectre@__crt_stdio_output@@3V?$spectre_mitigated_lookup_table@Ustate_transition_pair@__crt_stdio_output@@$0IA@@1@B 100228a8     libucrt:output.obj
 0002:00002ca8       ??_C@_1O@CEDCILHN@?$AA?$CI?$AAn?$AAu?$AAl?$AAl?$AA?$CJ@ 10022ca8     libucrt:output.obj
 0002:00002cb8       ??_C@_06OJHGLDPL@?$CInull?$CJ@ 10022cb8     libucrt:output.obj
 0002:00002cc0       ___acrt_exception_action_table 10022cc0     libucrt:exception_filter.obj
 0002:00002d50       ___acrt_signal_action_table_count 10022d50     libucrt:exception_filter.obj
 0002:00002d54       ___acrt_signal_action_first_fpe_index 10022d54     libucrt:exception_filter.obj
 0002:00002d58       ___acrt_signal_action_fpe_count 10022d58     libucrt:exception_filter.obj
 0002:00002d5c       ??_C@_1BI@BGOHAHKC@?$AAm?$AAs?$AAc?$AAo?$AAr?$AAe?$AAe?$AA?4?$AAd?$AAl?$AAl@ 10022d5c     libucrt:exit.obj
 0002:00002d74       ??_C@_0P@MIGLKIOC@CorExitProcess@ 10022d74     libucrt:exit.obj
 0002:00002e58       ??_C@_1EA@JGEFHKEI@?$AAa?$AAp?$AAi?$AA?9?$AAm?$AAs?$AA?9?$AAw?$AAi?$AAn?$AA?9?$AAc?$AAo?$AAr?$AAe@ 10022e58     libucrt:winapi_thunks.obj
 0002:00002e98       ??_C@_1DI@IJCEHOCB@?$AAa?$AAp?$AAi?$AA?9?$AAm?$AAs?$AA?9?$AAw?$AAi?$AAn?$AA?9?$AAc?$AAo?$AAr?$AAe@ 10022e98     libucrt:winapi_thunks.obj
 0002:00002ed0       ??_C@_1EI@MPIAOHOC@?$AAa?$AAp?$AAi?$AA?9?$AAm?$AAs?$AA?9?$AAw?$AAi?$AAn?$AA?9?$AAc?$AAo?$AAr?$AAe@ 10022ed0     libucrt:winapi_thunks.obj
 0002:00002f18       ??_C@_1FK@FPHCKFIE@?$AAa?$AAp?$AAi?$AA?9?$AAm?$AAs?$AA?9?$AAw?$AAi?$AAn?$AA?9?$AAc?$AAo?$AAr?$AAe@ 10022f18     libucrt:winapi_thunks.obj
 0002:00002f78       ??_C@_1EM@DILCGIIO@?$AAa?$AAp?$AAi?$AA?9?$AAm?$AAs?$AA?9?$AAw?$AAi?$AAn?$AA?9?$AAc?$AAo?$AAr?$AAe@ 10022f78     libucrt:winapi_thunks.obj
 0002:00002fc4       ??_C@_1DM@LNCGDDPN@?$AAa?$AAp?$AAi?$AA?9?$AAm?$AAs?$AA?9?$AAw?$AAi?$AAn?$AA?9?$AAc?$AAo?$AAr?$AAe@ 10022fc4     libucrt:winapi_thunks.obj
 0002:00003000       ??_C@_1DO@FPAPJEMD@?$AAa?$AAp?$AAi?$AA?9?$AAm?$AAs?$AA?9?$AAw?$AAi?$AAn?$AA?9?$AAc?$AAo?$AAr?$AAe@ 10023000     libucrt:winapi_thunks.obj
 0002:00003040       ??_C@_1DK@NDHNAHIO@?$AAa?$AAp?$AAi?$AA?9?$AAm?$AAs?$AA?9?$AAw?$AAi?$AAn?$AA?9?$AAc?$AAo?$AAr?$AAe@ 10023040     libucrt:winapi_thunks.obj
 0002:0000307c       ??_C@_1DM@KGHDGBCM@?$AAa?$AAp?$AAi?$AA?9?$AAm?$AAs?$AA?9?$AAw?$AAi?$AAn?$AA?9?$AAc?$AAo?$AAr?$AAe@ 1002307c     libucrt:winapi_thunks.obj
 0002:000030b8       ??_C@_1EO@IJIOEFOH@?$AAa?$AAp?$AAi?$AA?9?$AAm?$AAs?$AA?9?$AAw?$AAi?$AAn?$AA?9?$AAr?$AAt?$AAc?$AAo@ 100230b8     libucrt:winapi_thunks.obj
 0002:00003108       ??_C@_1FG@HHGEKANL@?$AAa?$AAp?$AAi?$AA?9?$AAm?$AAs?$AA?9?$AAw?$AAi?$AAn?$AA?9?$AAs?$AAe?$AAc?$AAu@ 10023108     libucrt:winapi_thunks.obj
 0002:00003160       ??_C@_1EG@DBIOJECG@?$AAe?$AAx?$AAt?$AA?9?$AAm?$AAs?$AA?9?$AAw?$AAi?$AAn?$AA?9?$AAn?$AAt?$AAu?$AAs@ 10023160     libucrt:winapi_thunks.obj
 0002:000031a8       ??_C@_1EO@FIHMJCLF@?$AAe?$AAx?$AAt?$AA?9?$AAm?$AAs?$AA?9?$AAw?$AAi?$AAn?$AA?9?$AAn?$AAt?$AAu?$AAs@ 100231a8     libucrt:winapi_thunks.obj
 0002:000031f8       ??_C@_1BC@DNHGCMLG@?$AAa?$AAd?$AAv?$AAa?$AAp?$AAi?$AA3?$AA2@ 100231f8     libucrt:winapi_thunks.obj
 0002:0000320c       ??_C@_1M@OAIMIKLP@?$AAn?$AAt?$AAd?$AAl?$AAl@ 1002320c     libucrt:winapi_thunks.obj
 0002:00003218       ??_C@_1EG@DPGNFKGC@?$AAa?$AAp?$AAi?$AA?9?$AAm?$AAs?$AA?9?$AAw?$AAi?$AAn?$AA?9?$AAa?$AAp?$AAp?$AAm@ 10023218     libucrt:winapi_thunks.obj
 0002:00003260       ??_C@_1O@BCCLBEOE@?$AAu?$AAs?$AAe?$AAr?$AA3?$AA2@ 10023260     libucrt:winapi_thunks.obj
 0002:00003270       ??_C@_1BA@IAIFMGEF@?$AAe?$AAx?$AAt?$AA?9?$AAm?$AAs?$AA?9@ 10023270     libucrt:winapi_thunks.obj
 0002:00003284       ??_C@_0BA@FHFNEAED@AreFileApisANSI@ 10023284     libucrt:winapi_thunks.obj
 0002:000032c4       ??_C@_0O@KKBNKAPF@LCMapStringEx@ 100232c4     libucrt:winapi_thunks.obj
 0002:000032dc       ??_C@_0BB@HBDEELFH@LocaleNameToLCID@ 100232dc     libucrt:winapi_thunks.obj
 0002:000032f4       ??_C@_0CF@OJOFEIGO@AppPolicyGetProcessTerminationM@ 100232f4     libucrt:winapi_thunks.obj
 0002:00003324       ??_C@_0BI@BKLFFAPO@SetThreadStackGuarantee@ 10023324     libucrt:winapi_thunks.obj
 0002:00003380       ??_C@_03OEIAHPBN@INF@      10023380     libucrt:cvt.obj
 0002:00003384       ??_C@_03OJHLLCGB@inf@      10023384     libucrt:cvt.obj
 0002:00003388       ??_C@_03LKNCIKJB@NAN@      10023388     libucrt:cvt.obj
 0002:0000338c       ??_C@_03LHCJEHON@nan@      1002338c     libucrt:cvt.obj
 0002:00003390       ??_C@_09OFJJIMPC@NAN?$CISNAN?$CJ@ 10023390     libucrt:cvt.obj
 0002:0000339c       ??_C@_09IPFBKMDL@nan?$CIsnan?$CJ@ 1002339c     libucrt:cvt.obj
 0002:000033a8       ??_C@_08IKHNHAJ@NAN?$CIIND?$CJ@ 100233a8     libucrt:cvt.obj
 0002:000033b4       ??_C@_08OFCDMILK@nan?$CIind?$CJ@ 100233b4     libucrt:cvt.obj
 0002:000033c0       ??_C@_05KLBDPFGC@e?$CL000@ 100233c0     libucrt:cvt.obj
 0002:000033c8       ___lc_time_c               100233c8     libucrt:nlsdata.obj
 0002:0000352c       ??_C@_03KOEHGMDN@Sun@      1002352c     libucrt:nlsdata.obj
 0002:00003530       ??_C@_03PDAGKDH@Mon@       10023530     libucrt:nlsdata.obj
 0002:00003534       ??_C@_03NAGEINEP@Tue@      10023534     libucrt:nlsdata.obj
 0002:00003538       ??_C@_03MHOMLAJA@Wed@      10023538     libucrt:nlsdata.obj
 0002:0000353c       ??_C@_03IOFIKPDN@Thu@      1002353c     libucrt:nlsdata.obj
 0002:00003540       ??_C@_03IDIOELNC@Fri@      10023540     libucrt:nlsdata.obj
 0002:00003544       ??_C@_03FEFJNEK@Sat@       10023544     libucrt:nlsdata.obj
 0002:00003548       ??_C@_06OOPIFAJ@Sunday@    10023548     libucrt:nlsdata.obj
 0002:00003550       ??_C@_06JLEDEDGH@Monday@   10023550     libucrt:nlsdata.obj
 0002:00003558       ??_C@_07BAAGCFCM@Tuesday@  10023558     libucrt:nlsdata.obj
 0002:00003560       ??_C@_09DLIGFAKA@Wednesday@ 10023560     libucrt:nlsdata.obj
 0002:0000356c       ??_C@_08HACCIKIA@Thursday@ 1002356c     libucrt:nlsdata.obj
 0002:00003578       ??_C@_06JECMNKMI@Friday@   10023578     libucrt:nlsdata.obj
 0002:00003580       ??_C@_08INBOOONO@Saturday@ 10023580     libucrt:nlsdata.obj
 0002:0000358c       ??_C@_03JIHJHPIE@Jan@      1002358c     libucrt:nlsdata.obj
 0002:00003590       ??_C@_03HJBDCHOM@Feb@      10023590     libucrt:nlsdata.obj
 0002:00003594       ??_C@_03ODNJBKGA@Mar@      10023594     libucrt:nlsdata.obj
 0002:00003598       ??_C@_03LEOLGMJP@Apr@      10023598     libucrt:nlsdata.obj
 0002:0000359c       ??_C@_03CNMDKL@May@        1002359c     libucrt:nlsdata.obj
 0002:000035a0       ??_C@_03IDFGHECI@Jun@      100235a0     libucrt:nlsdata.obj
 0002:000035a4       ??_C@_03LBGABGKK@Jul@      100235a4     libucrt:nlsdata.obj
 0002:000035a8       ??_C@_03IFJFEIGA@Aug@      100235a8     libucrt:nlsdata.obj
 0002:000035ac       ??_C@_03GGCAPAJC@Sep@      100235ac     libucrt:nlsdata.obj
 0002:000035b0       ??_C@_03BMAOKBAD@Oct@      100235b0     libucrt:nlsdata.obj
 0002:000035b4       ??_C@_03JPJOFNIA@Nov@      100235b4     libucrt:nlsdata.obj
 0002:000035b8       ??_C@_03MKABNOCG@Dec@      100235b8     libucrt:nlsdata.obj
 0002:000035bc       ??_C@_07CGJPFGJA@January@  100235bc     libucrt:nlsdata.obj
 0002:000035c4       ??_C@_08GNJGEPFN@February@ 100235c4     libucrt:nlsdata.obj
 0002:000035d0       ??_C@_05HPCKOFNC@March@    100235d0     libucrt:nlsdata.obj
 0002:000035d8       ??_C@_05DMJDNLEJ@April@    100235d8     libucrt:nlsdata.obj
 0002:000035e0       ??_C@_04CNLMGBGM@June@     100235e0     libucrt:nlsdata.obj
 0002:000035e8       ??_C@_04MIEPOIFP@July@     100235e8     libucrt:nlsdata.obj
 0002:000035f0       ??_C@_06LBBHFDDG@August@   100235f0     libucrt:nlsdata.obj
 0002:000035f8       ??_C@_09BHHEALKD@September@ 100235f8     libucrt:nlsdata.obj
 0002:00003604       ??_C@_07JJNFCEND@October@  10023604     libucrt:nlsdata.obj
 0002:0000360c       ??_C@_08HCHEGEOA@November@ 1002360c     libucrt:nlsdata.obj
 0002:00003618       ??_C@_08EDHMEBNP@December@ 10023618     libucrt:nlsdata.obj
 0002:00003624       ??_C@_02DEDBPAFC@AM@       10023624     libucrt:nlsdata.obj
 0002:00003628       ??_C@_02CJNFDJBF@PM@       10023628     libucrt:nlsdata.obj
 0002:0000362c       ??_C@_08BPBNCDIB@MM?1dd?1yy@ 1002362c     libucrt:nlsdata.obj
 0002:00003638       ??_C@_0BE@CKGJFCPC@dddd?0?5MMMM?5dd?0?5yyyy@ 10023638     libucrt:nlsdata.obj
 0002:0000364c       ??_C@_08JCCMCCIL@HH?3mm?3ss@ 1002364c     libucrt:nlsdata.obj
 0002:00003658       ??_C@_17MBGCMIPB@?$AAS?$AAu?$AAn@ 10023658     libucrt:nlsdata.obj
 0002:00003660       ??_C@_17KBOMKBF@?$AAM?$AAo?$AAn@ 10023660     libucrt:nlsdata.obj
 0002:00003668       ??_C@_17BMKGEGOJ@?$AAT?$AAu?$AAe@ 10023668     libucrt:nlsdata.obj
 0002:00003670       ??_C@_17CJEDCEPE@?$AAW?$AAe?$AAd@ 10023670     libucrt:nlsdata.obj
 0002:00003678       ??_C@_17PDPHAADD@?$AAT?$AAh?$AAu@ 10023678     libucrt:nlsdata.obj
 0002:00003680       ??_C@_17HFOLPPLP@?$AAF?$AAr?$AAi@ 10023680     libucrt:nlsdata.obj
 0002:00003688       ??_C@_17GGIBDPIH@?$AAS?$AAa?$AAt@ 10023688     libucrt:nlsdata.obj
 0002:00003690       ??_C@_1O@IHNHDHPB@?$AAS?$AAu?$AAn?$AAd?$AAa?$AAy@ 10023690     libucrt:nlsdata.obj
 0002:000036a0       ??_C@_1O@MMNBFLIA@?$AAM?$AAo?$AAn?$AAd?$AAa?$AAy@ 100236a0     libucrt:nlsdata.obj
 0002:000036b0       ??_C@_1BA@ENFBFFEK@?$AAT?$AAu?$AAe?$AAs?$AAd?$AAa?$AAy@ 100236b0     libucrt:nlsdata.obj
 0002:000036c0       ??_C@_1BE@EBOGMDOH@?$AAW?$AAe?$AAd?$AAn?$AAe?$AAs?$AAd?$AAa?$AAy@ 100236c0     libucrt:nlsdata.obj
 0002:000036d4       ??_C@_1BC@HHMNLIHE@?$AAT?$AAh?$AAu?$AAr?$AAs?$AAd?$AAa?$AAy@ 100236d4     libucrt:nlsdata.obj
 0002:000036e8       ??_C@_1O@PDICJHAG@?$AAF?$AAr?$AAi?$AAd?$AAa?$AAy@ 100236e8     libucrt:nlsdata.obj
 0002:000036f8       ??_C@_1BC@ENMNNPAJ@?$AAS?$AAa?$AAt?$AAu?$AAr?$AAd?$AAa?$AAy@ 100236f8     libucrt:nlsdata.obj
 0002:0000370c       ??_C@_17DKNBKCHM@?$AAJ?$AAa?$AAn@ 1002370c     libucrt:nlsdata.obj
 0002:00003714       ??_C@_17LMDJEKJN@?$AAF?$AAe?$AAb@ 10023714     libucrt:nlsdata.obj
 0002:0000371c       ??_C@_17CKNLEDEC@?$AAM?$AAa?$AAr@ 1002371c     libucrt:nlsdata.obj
 0002:00003724       ??_C@_17LFPOIHDD@?$AAA?$AAp?$AAr@ 10023724     libucrt:nlsdata.obj
 0002:0000372c       ??_C@_17PNNKMEED@?$AAM?$AAa?$AAy@ 1002372c     libucrt:nlsdata.obj
 0002:00003734       ??_C@_17KCJGOCPB@?$AAJ?$AAu?$AAn@ 10023734     libucrt:nlsdata.obj
 0002:0000373c       ??_C@_17IJPCKHK@?$AAJ?$AAu?$AAl@ 1002373c     libucrt:nlsdata.obj
 0002:00003744       ??_C@_17ICPELBCN@?$AAA?$AAu?$AAg@ 10023744     libucrt:nlsdata.obj
 0002:0000374c       ??_C@_17HCHCOKMG@?$AAS?$AAe?$AAp@ 1002374c     libucrt:nlsdata.obj
 0002:00003754       ??_C@_17FNLKOI@?$AAO?$AAc?$AAt@ 10023754     libucrt:nlsdata.obj
 0002:0000375c       ??_C@_17BBDMLCIG@?$AAN?$AAo?$AAv@ 1002375c     libucrt:nlsdata.obj
 0002:00003764       ??_C@_17EGKACKIF@?$AAD?$AAe?$AAc@ 10023764     libucrt:nlsdata.obj
 0002:0000376c       ??_C@_1BA@EFMEIEBA@?$AAJ?$AAa?$AAn?$AAu?$AAa?$AAr?$AAy@ 1002376c     libucrt:nlsdata.obj
 0002:0000377c       ??_C@_1BC@JGDDFFAM@?$AAF?$AAe?$AAb?$AAr?$AAu?$AAa?$AAr?$AAy@ 1002377c     libucrt:nlsdata.obj
 0002:00003790       ??_C@_1M@IKEENEDF@?$AAM?$AAa?$AAr?$AAc?$AAh@ 10023790     libucrt:nlsdata.obj
 0002:0000379c       ??_C@_1M@GJNLMHFD@?$AAA?$AAp?$AAr?$AAi?$AAl@ 1002379c     libucrt:nlsdata.obj
 0002:000037a8       ??_C@_19EPFLPGAP@?$AAJ?$AAu?$AAn?$AAe@ 100237a8     libucrt:nlsdata.obj
 0002:000037b4       ??_C@_19BIFMLPCD@?$AAJ?$AAu?$AAl?$AAy@ 100237b4     libucrt:nlsdata.obj
 0002:000037c0       ??_C@_1O@PAHLKOAC@?$AAA?$AAu?$AAg?$AAu?$AAs?$AAt@ 100237c0     libucrt:nlsdata.obj
 0002:000037d0       ??_C@_1BE@DKAAMBJL@?$AAS?$AAe?$AAp?$AAt?$AAe?$AAm?$AAb?$AAe?$AAr@ 100237d0     libucrt:nlsdata.obj
 0002:000037e4       ??_C@_1BA@EPANDLNG@?$AAO?$AAc?$AAt?$AAo?$AAb?$AAe?$AAr@ 100237e4     libucrt:nlsdata.obj
 0002:000037f4       ??_C@_1BC@BGLIFPF@?$AAN?$AAo?$AAv?$AAe?$AAm?$AAb?$AAe?$AAr@ 100237f4     libucrt:nlsdata.obj
 0002:00003808       ??_C@_1BC@FEMKIFH@?$AAD?$AAe?$AAc?$AAe?$AAm?$AAb?$AAe?$AAr@ 10023808     libucrt:nlsdata.obj
 0002:0000381c       ??_C@_15ODEHAHHF@?$AAA?$AAM@ 1002381c     libucrt:nlsdata.obj
 0002:00003824       ??_C@_15CLMNNGEL@?$AAP?$AAM@ 10023824     libucrt:nlsdata.obj
 0002:0000382c       ??_C@_1BC@IEBCMHCM@?$AAM?$AAM?$AA?1?$AAd?$AAd?$AA?1?$AAy?$AAy@ 1002382c     libucrt:nlsdata.obj
 0002:00003840       ??_C@_1CI@KNAKOEBC@?$AAd?$AAd?$AAd?$AAd?$AA?0?$AA?5?$AAM?$AAM?$AAM?$AAM?$AA?5?$AAd?$AAd?$AA?0?$AA?5@ 10023840     libucrt:nlsdata.obj
 0002:00003868       ??_C@_1BC@GDGBMEMK@?$AAH?$AAH?$AA?3?$AAm?$AAm?$AA?3?$AAs?$AAs@ 10023868     libucrt:nlsdata.obj
 0002:0000387c       ??_C@_1M@BMHNFIME@?$AAe?$AAn?$AA?9?$AAU?$AAS@ 1002387c     libucrt:nlsdata.obj
 0002:00003898       ??_C@_1M@HPNHIDJI@?$AAj?$AAa?$AA?9?$AAJ?$AAP@ 10023898     libucrt:mbctype.obj
 0002:000038a4       ??_C@_1M@BIBDDEMK@?$AAz?$AAh?$AA?9?$AAC?$AAN@ 100238a4     libucrt:mbctype.obj
 0002:000038b0       ??_C@_1M@JLOOOEGK@?$AAk?$AAo?$AA?9?$AAK?$AAR@ 100238b0     libucrt:mbctype.obj
 0002:000038bc       ??_C@_1M@CLNBBOPM@?$AAz?$AAh?$AA?9?$AAT?$AAW@ 100238bc     libucrt:mbctype.obj
 0002:000038c8       ___newctype                100238c8     libucrt:ctype.obj
 0002:00003bc8       ___newclmap                10023bc8     libucrt:ctype.obj
 0002:00003d48       ___newcumap                10023d48     libucrt:ctype.obj
 0002:00003ec8       __wctype                   10023ec8     libucrt:ctype.obj
 0002:000047f0       ??_C@_15EMKDOKLE@?$AAa?$AAr@ 100247f0     libucrt:lcidtoname_downlevel.obj
 0002:000047f8       ??_C@_15KNPADPLH@?$AAb?$AAg@ 100247f8     libucrt:lcidtoname_downlevel.obj
 0002:00004800       ??_C@_15EDMHLDMO@?$AAc?$AAa@ 10024800     libucrt:lcidtoname_downlevel.obj
 0002:00004808       ??_C@_1O@BPEAJADD@?$AAz?$AAh?$AA?9?$AAC?$AAH?$AAS@ 10024808     libucrt:lcidtoname_downlevel.obj
 0002:00004818       ??_C@_15LJNHCMNK@?$AAc?$AAs@ 10024818     libucrt:lcidtoname_downlevel.obj
 0002:00004820       ??_C@_15FOMCIDHG@?$AAd?$AAa@ 10024820     libucrt:lcidtoname_downlevel.obj
 0002:00004828       ??_C@_15NBKABECB@?$AAd?$AAe@ 10024828     libucrt:lcidtoname_downlevel.obj
 0002:00004830       ??_C@_15GHPEIIAO@?$AAe?$AAl@ 10024830     libucrt:lcidtoname_downlevel.obj
 0002:00004838       ??_C@_15MNPNEAIF@?$AAe?$AAn@ 10024838     libucrt:lcidtoname_downlevel.obj
 0002:00004840       ??_C@_15GPIOMPMH@?$AAe?$AAs@ 10024840     libucrt:lcidtoname_downlevel.obj
 0002:00004848       ??_C@_15NGLOAKJC@?$AAf?$AAi@ 10024848     libucrt:lcidtoname_downlevel.obj
 0002:00004850       ??_C@_15FBKGNKAM@?$AAf?$AAr@ 10024850     libucrt:lcidtoname_downlevel.obj
 0002:00004858       ??_C@_15KGGCNEFK@?$AAh?$AAe@ 10024858     libucrt:lcidtoname_downlevel.obj
 0002:00004860       ??_C@_15PGHLIDMF@?$AAh?$AAu@ 10024860     libucrt:lcidtoname_downlevel.obj
 0002:00004868       ??_C@_15BIEMAPLM@?$AAi?$AAs@ 10024868     libucrt:lcidtoname_downlevel.obj
 0002:00004870       ??_C@_15IFJLDHAF@?$AAi?$AAt@ 10024870     libucrt:lcidtoname_downlevel.obj
 0002:00004878       ??_C@_15GEMIOCAG@?$AAj?$AAa@ 10024878     libucrt:lcidtoname_downlevel.obj
 0002:00004880       ??_C@_15EPELEGJA@?$AAk?$AAo@ 10024880     libucrt:lcidtoname_downlevel.obj
 0002:00004888       ??_C@_15NDDHIMN@?$AAn?$AAl@ 10024888     libucrt:lcidtoname_downlevel.obj
 0002:00004890       ??_C@_15BPIGNHCD@?$AAn?$AAo@ 10024890     libucrt:lcidtoname_downlevel.obj
 0002:00004898       ??_C@_15DEOPBLCG@?$AAp?$AAl@ 10024898     libucrt:lcidtoname_downlevel.obj
 0002:000048a0       ??_C@_15KBECGEFG@?$AAp?$AAt@ 100248a0     libucrt:lcidtoname_downlevel.obj
 0002:000048a8       ??_C@_15GLJCBFMD@?$AAr?$AAo@ 100248a8     libucrt:lcidtoname_downlevel.obj
 0002:000048b0       ??_C@_15FEDGKCDI@?$AAr?$AAu@ 100248b0     libucrt:lcidtoname_downlevel.obj
 0002:000048b8       ??_C@_15GLKMLLHM@?$AAh?$AAr@ 100248b8     libucrt:lcidtoname_downlevel.obj
 0002:000048c0       ??_C@_15CPKMFBDB@?$AAs?$AAk@ 100248c0     libucrt:lcidtoname_downlevel.obj
 0002:000048c8       ??_C@_15BAAIOGMK@?$AAs?$AAq@ 100248c8     libucrt:lcidtoname_downlevel.obj
 0002:000048d0       ??_C@_15INNPNOHD@?$AAs?$AAv@ 100248d0     libucrt:lcidtoname_downlevel.obj
 0002:000048d8       ??_C@_15CABMMOGH@?$AAt?$AAh@ 100248d8     libucrt:lcidtoname_downlevel.obj
 0002:000048e0       ??_C@_15BPLIHJJM@?$AAt?$AAr@ 100248e0     libucrt:lcidtoname_downlevel.obj
 0002:000048e8       ??_C@_15NEOEKKDJ@?$AAu?$AAr@ 100248e8     libucrt:lcidtoname_downlevel.obj
 0002:000048f0       ??_C@_15NFICGAJK@?$AAi?$AAd@ 100248f0     libucrt:lcidtoname_downlevel.obj
 0002:000048f8       ??_C@_15PJPFLCCM@?$AAu?$AAk@ 100248f8     libucrt:lcidtoname_downlevel.obj
 0002:00004900       ??_C@_15HPJPHDM@?$AAb?$AAe@ 10024900     libucrt:lcidtoname_downlevel.obj
 0002:00004908       ??_C@_15LCHLGJII@?$AAs?$AAl@ 10024908     libucrt:lcidtoname_downlevel.obj
 0002:00004910       ??_C@_15PCFJPHHO@?$AAe?$AAt@ 10024910     libucrt:lcidtoname_downlevel.obj
 0002:00004918       ??_C@_15HPFPGODN@?$AAl?$AAv@ 10024918     libucrt:lcidtoname_downlevel.obj
 0002:00004920       ??_C@_15NFFGKGLG@?$AAl?$AAt@ 10024920     libucrt:lcidtoname_downlevel.obj
 0002:00004928       ??_C@_15BDAKCCHN@?$AAf?$AAa@ 10024928     libucrt:lcidtoname_downlevel.obj
 0002:00004930       ??_C@_15NFGIAIAJ@?$AAv?$AAi@ 10024930     libucrt:lcidtoname_downlevel.obj
 0002:00004938       ??_C@_15LMKNDMHN@?$AAh?$AAy@ 10024938     libucrt:lcidtoname_downlevel.obj
 0002:00004940       ??_C@_15IJBHMCFL@?$AAa?$AAz@ 10024940     libucrt:lcidtoname_downlevel.obj
 0002:00004948       ??_C@_15EKOFJABL@?$AAe?$AAu@ 10024948     libucrt:lcidtoname_downlevel.obj
 0002:00004950       ??_C@_15BGHADCNK@?$AAm?$AAk@ 10024950     libucrt:lcidtoname_downlevel.obj
 0002:00004958       ??_C@_15JDNICKHM@?$AAa?$AAf@ 10024958     libucrt:lcidtoname_downlevel.obj
 0002:00004960       ??_C@_15KPJEDBKD@?$AAk?$AAa@ 10024960     libucrt:lcidtoname_downlevel.obj
 0002:00004968       ??_C@_15PDNFFFEO@?$AAf?$AAo@ 10024968     libucrt:lcidtoname_downlevel.obj
 0002:00004970       ??_C@_15OMLEGLOC@?$AAh?$AAi@ 10024970     libucrt:lcidtoname_downlevel.obj
 0002:00004978       ??_C@_15IDNNENKK@?$AAm?$AAs@ 10024978     libucrt:lcidtoname_downlevel.obj
 0002:00004980       ??_C@_15MACJNBMH@?$AAk?$AAk@ 10024980     libucrt:lcidtoname_downlevel.obj
 0002:00004988       ??_C@_15DKDJEOND@?$AAk?$AAy@ 10024988     libucrt:lcidtoname_downlevel.obj
 0002:00004990       ??_C@_15DFGDLJBG@?$AAs?$AAw@ 10024990     libucrt:lcidtoname_downlevel.obj
 0002:00004998       ??_C@_15BBFAICNG@?$AAu?$AAz@ 10024998     libucrt:lcidtoname_downlevel.obj
 0002:000049a0       ??_C@_15DKNDCGEA@?$AAt?$AAt@ 100249a0     libucrt:lcidtoname_downlevel.obj
 0002:000049a8       ??_C@_15MGIFMDPL@?$AAp?$AAa@ 100249a8     libucrt:lcidtoname_downlevel.obj
 0002:000049b0       ??_C@_15HCNDBBA@?$AAg?$AAu@ 100249b0     libucrt:lcidtoname_downlevel.obj
 0002:000049b8       ??_C@_15FNBEIBON@?$AAt?$AAa@ 100249b8     libucrt:lcidtoname_downlevel.obj
 0002:000049c0       ??_C@_15NCHGBGLK@?$AAt?$AAe@ 100249c0     libucrt:lcidtoname_downlevel.obj
 0002:000049c8       ??_C@_15PHPHCBPF@?$AAk?$AAn@ 100249c8     libucrt:lcidtoname_downlevel.obj
 0002:000049d0       ??_C@_15DLGBCKMP@?$AAm?$AAr@ 100249d0     libucrt:lcidtoname_downlevel.obj
 0002:000049d8       ??_C@_15EABBLBFF@?$AAs?$AAa@ 100249d8     libucrt:lcidtoname_downlevel.obj
 0002:000049e0       ??_C@_15CBKOMCOI@?$AAm?$AAn@ 100249e0     libucrt:lcidtoname_downlevel.obj
 0002:000049e8       ??_C@_15CKDMCJAF@?$AAg?$AAl@ 100249e8     libucrt:lcidtoname_downlevel.obj
 0002:000049f0       ??_C@_17CNJFBPG@?$AAk?$AAo?$AAk@ 100249f0     libucrt:lcidtoname_downlevel.obj
 0002:000049f8       ??_C@_17FFBJICPL@?$AAs?$AAy?$AAr@ 100249f8     libucrt:lcidtoname_downlevel.obj
 0002:00004a00       ??_C@_17KPNDCPAF@?$AAd?$AAi?$AAv@ 10024a00     libucrt:lcidtoname_downlevel.obj
 0002:00004a08       ??_C@_1M@OKAHONE@?$AAa?$AAr?$AA?9?$AAS?$AAA@ 10024a08     libucrt:lcidtoname_downlevel.obj
 0002:00004a14       ??_C@_1M@FFFIGIGK@?$AAb?$AAg?$AA?9?$AAB?$AAG@ 10024a14     libucrt:lcidtoname_downlevel.obj
 0002:00004a20       ??_C@_1M@BJNKEDC@?$AAc?$AAa?$AA?9?$AAE?$AAS@ 10024a20     libucrt:lcidtoname_downlevel.obj
 0002:00004a2c       ??_C@_1M@IJJHFJHA@?$AAc?$AAs?$AA?9?$AAC?$AAZ@ 10024a2c     libucrt:lcidtoname_downlevel.obj
 0002:00004a38       ??_C@_1M@CLPEOBGI@?$AAd?$AAa?$AA?9?$AAD?$AAK@ 10024a38     libucrt:lcidtoname_downlevel.obj
 0002:00004a44       ??_C@_1M@MCMADGCB@?$AAd?$AAe?$AA?9?$AAD?$AAE@ 10024a44     libucrt:lcidtoname_downlevel.obj
 0002:00004a50       ??_C@_1M@OOCKEMAM@?$AAe?$AAl?$AA?9?$AAG?$AAR@ 10024a50     libucrt:lcidtoname_downlevel.obj
 0002:00004a5c       ??_C@_1M@DDNJFGID@?$AAf?$AAi?$AA?9?$AAF?$AAI@ 10024a5c     libucrt:lcidtoname_downlevel.obj
 0002:00004a68       ??_C@_1M@GLIPPMAC@?$AAf?$AAr?$AA?9?$AAF?$AAR@ 10024a68     libucrt:lcidtoname_downlevel.obj
 0002:00004a74       ??_C@_1M@GFMCHPE@?$AAh?$AAe?$AA?9?$AAI?$AAL@ 10024a74     libucrt:lcidtoname_downlevel.obj
 0002:00004a80       ??_C@_1M@MHLPGNKM@?$AAh?$AAu?$AA?9?$AAH?$AAU@ 10024a80     libucrt:lcidtoname_downlevel.obj
 0002:00004a8c       ??_C@_1M@LPDDNNPN@?$AAi?$AAs?$AA?9?$AAI?$AAS@ 10024a8c     libucrt:lcidtoname_downlevel.obj
 0002:00004a98       ??_C@_1M@MADIPODN@?$AAi?$AAt?$AA?9?$AAI?$AAT@ 10024a98     libucrt:lcidtoname_downlevel.obj
 0002:00004aa4       ??_C@_1M@IHBJJGG@?$AAn?$AAl?$AA?9?$AAN?$AAL@ 10024aa4     libucrt:lcidtoname_downlevel.obj
 0002:00004ab0       ??_C@_1M@EANAGDL@?$AAn?$AAb?$AA?9?$AAN?$AAO@ 10024ab0     libucrt:lcidtoname_downlevel.obj
 0002:00004abc       ??_C@_1M@NEIEMEGP@?$AAp?$AAl?$AA?9?$AAP?$AAL@ 10024abc     libucrt:lcidtoname_downlevel.obj
 0002:00004ac8       ??_C@_1M@BOCFIGEP@?$AAp?$AAt?$AA?9?$AAB?$AAR@ 10024ac8     libucrt:lcidtoname_downlevel.obj
 0002:00004ad4       ??_C@_1M@IMPFOPBG@?$AAr?$AAo?$AA?9?$AAR?$AAO@ 10024ad4     libucrt:lcidtoname_downlevel.obj
 0002:00004ae0       ??_C@_1M@IDNNEJMM@?$AAr?$AAu?$AA?9?$AAR?$AAU@ 10024ae0     libucrt:lcidtoname_downlevel.obj
 0002:00004aec       ??_C@_1M@LILEEOGM@?$AAh?$AAr?$AA?9?$AAH?$AAR@ 10024aec     libucrt:lcidtoname_downlevel.obj
 0002:00004af8       ??_C@_1M@FKIFEHPB@?$AAs?$AAk?$AA?9?$AAS?$AAK@ 10024af8     libucrt:lcidtoname_downlevel.obj
 0002:00004b04       ??_C@_1M@LJMAMNPJ@?$AAs?$AAq?$AA?9?$AAA?$AAL@ 10024b04     libucrt:lcidtoname_downlevel.obj
 0002:00004b10       ??_C@_1M@GIAKDKJK@?$AAs?$AAv?$AA?9?$AAS?$AAE@ 10024b10     libucrt:lcidtoname_downlevel.obj
 0002:00004b1c       ??_C@_1M@MKJKIKCL@?$AAt?$AAh?$AA?9?$AAT?$AAH@ 10024b1c     libucrt:lcidtoname_downlevel.obj
 0002:00004b28       ??_C@_1M@MFLCCMPB@?$AAt?$AAr?$AA?9?$AAT?$AAR@ 10024b28     libucrt:lcidtoname_downlevel.obj
 0002:00004b34       ??_C@_1M@OIJHDKJN@?$AAu?$AAr?$AA?9?$AAP?$AAK@ 10024b34     libucrt:lcidtoname_downlevel.obj
 0002:00004b40       ??_C@_1M@LHIPCIEK@?$AAi?$AAd?$AA?9?$AAI?$AAD@ 10024b40     libucrt:lcidtoname_downlevel.obj
 0002:00004b4c       ??_C@_1M@MFMOBGI@?$AAu?$AAk?$AA?9?$AAU?$AAA@ 10024b4c     libucrt:lcidtoname_downlevel.obj
 0002:00004b58       ??_C@_1M@OBGLJIPL@?$AAb?$AAe?$AA?9?$AAB?$AAY@ 10024b58     libucrt:lcidtoname_downlevel.obj
 0002:00004b64       ??_C@_1M@BCFAJEAD@?$AAs?$AAl?$AA?9?$AAS?$AAI@ 10024b64     libucrt:lcidtoname_downlevel.obj
 0002:00004b70       ??_C@_1M@FKFFEDDN@?$AAe?$AAt?$AA?9?$AAE?$AAE@ 10024b70     libucrt:lcidtoname_downlevel.obj
 0002:00004b7c       ??_C@_1M@KGKKAACI@?$AAl?$AAv?$AA?9?$AAL?$AAV@ 10024b7c     libucrt:lcidtoname_downlevel.obj
 0002:00004b88       ??_C@_1M@IFGBIJO@?$AAl?$AAt?$AA?9?$AAL?$AAT@ 10024b88     libucrt:lcidtoname_downlevel.obj
 0002:00004b94       ??_C@_1M@FGEAHEDM@?$AAf?$AAa?$AA?9?$AAI?$AAR@ 10024b94     libucrt:lcidtoname_downlevel.obj
 0002:00004ba0       ??_C@_1M@KBMAIBFN@?$AAv?$AAi?$AA?9?$AAV?$AAN@ 10024ba0     libucrt:lcidtoname_downlevel.obj
 0002:00004bac       ??_C@_1M@GPCBKDJK@?$AAh?$AAy?$AA?9?$AAA?$AAM@ 10024bac     libucrt:lcidtoname_downlevel.obj
 0002:00004bb8       ??_C@_1BG@BECMDDJB@?$AAa?$AAz?$AA?9?$AAA?$AAZ?$AA?9?$AAL?$AAa?$AAt?$AAn@ 10024bb8     libucrt:lcidtoname_downlevel.obj
 0002:00004bd0       ??_C@_1M@MAOFCAEA@?$AAe?$AAu?$AA?9?$AAE?$AAS@ 10024bd0     libucrt:lcidtoname_downlevel.obj
 0002:00004bdc       ??_C@_1M@IGHABKPI@?$AAm?$AAk?$AA?9?$AAM?$AAK@ 10024bdc     libucrt:lcidtoname_downlevel.obj
 0002:00004be8       ??_C@_1M@IAIGNEJG@?$AAt?$AAn?$AA?9?$AAZ?$AAA@ 10024be8     libucrt:lcidtoname_downlevel.obj
 0002:00004bf4       ??_C@_1M@IIJCOJFA@?$AAx?$AAh?$AA?9?$AAZ?$AAA@ 10024bf4     libucrt:lcidtoname_downlevel.obj
 0002:00004c00       ??_C@_1M@LGPJHNJH@?$AAz?$AAu?$AA?9?$AAZ?$AAA@ 10024c00     libucrt:lcidtoname_downlevel.obj
 0002:00004c0c       ??_C@_1M@HOKAOIO@?$AAa?$AAf?$AA?9?$AAZ?$AAA@ 10024c0c     libucrt:lcidtoname_downlevel.obj
 0002:00004c18       ??_C@_1M@DPCLHLIE@?$AAk?$AAa?$AA?9?$AAG?$AAE@ 10024c18     libucrt:lcidtoname_downlevel.obj
 0002:00004c24       ??_C@_1M@BLKMHJBI@?$AAf?$AAo?$AA?9?$AAF?$AAO@ 10024c24     libucrt:lcidtoname_downlevel.obj
 0002:00004c30       ??_C@_1M@LGGJAPPB@?$AAh?$AAi?$AA?9?$AAI?$AAN@ 10024c30     libucrt:lcidtoname_downlevel.obj
 0002:00004c3c       ??_C@_1M@FIKPIHFE@?$AAm?$AAt?$AA?9?$AAM?$AAT@ 10024c3c     libucrt:lcidtoname_downlevel.obj
 0002:00004c48       ??_C@_1M@HEGGPBFA@?$AAs?$AAe?$AA?9?$AAN?$AAO@ 10024c48     libucrt:lcidtoname_downlevel.obj
 0002:00004c54       ??_C@_1M@EIBJEEPA@?$AAm?$AAs?$AA?9?$AAM?$AAY@ 10024c54     libucrt:lcidtoname_downlevel.obj
 0002:00004c60       ??_C@_1M@FHLBGMPP@?$AAk?$AAk?$AA?9?$AAK?$AAZ@ 10024c60     libucrt:lcidtoname_downlevel.obj
 0002:00004c6c       ??_C@_1M@NGJJLCGI@?$AAk?$AAy?$AA?9?$AAK?$AAG@ 10024c6c     libucrt:lcidtoname_downlevel.obj
 0002:00004c78       ??_C@_1M@GIENNBFC@?$AAs?$AAw?$AA?9?$AAK?$AAE@ 10024c78     libucrt:lcidtoname_downlevel.obj
 0002:00004c84       ??_C@_1BG@NDGMJIMJ@?$AAu?$AAz?$AA?9?$AAU?$AAZ?$AA?9?$AAL?$AAa?$AAt?$AAn@ 10024c84     libucrt:lcidtoname_downlevel.obj
 0002:00004c9c       ??_C@_1M@IDCCIHBC@?$AAt?$AAt?$AA?9?$AAR?$AAU@ 10024c9c     libucrt:lcidtoname_downlevel.obj
 0002:00004ca8       ??_C@_1M@LOICPMOJ@?$AAb?$AAn?$AA?9?$AAI?$AAN@ 10024ca8     libucrt:lcidtoname_downlevel.obj
 0002:00004cb4       ??_C@_1M@KPKKNEAH@?$AAp?$AAa?$AA?9?$AAI?$AAN@ 10024cb4     libucrt:lcidtoname_downlevel.obj
 0002:00004cc0       ??_C@_1M@PJGPPBOG@?$AAg?$AAu?$AA?9?$AAI?$AAN@ 10024cc0     libucrt:lcidtoname_downlevel.obj
 0002:00004ccc       ??_C@_1M@KMKMOPHI@?$AAt?$AAa?$AA?9?$AAI?$AAN@ 10024ccc     libucrt:lcidtoname_downlevel.obj
 0002:00004cd8       ??_C@_1M@KFEHEPAC@?$AAt?$AAe?$AA?9?$AAI?$AAN@ 10024cd8     libucrt:lcidtoname_downlevel.obj
 0002:00004ce4       ??_C@_1M@CDCLMGHI@?$AAk?$AAn?$AA?9?$AAI?$AAN@ 10024ce4     libucrt:lcidtoname_downlevel.obj
 0002:00004cf0       ??_C@_1M@MIODLDKF@?$AAm?$AAl?$AA?9?$AAI?$AAN@ 10024cf0     libucrt:lcidtoname_downlevel.obj
 0002:00004cfc       ??_C@_1M@PBIEACPO@?$AAm?$AAr?$AA?9?$AAI?$AAN@ 10024cfc     libucrt:lcidtoname_downlevel.obj
 0002:00004d08       ??_C@_1M@NIDEAGPH@?$AAs?$AAa?$AA?9?$AAI?$AAN@ 10024d08     libucrt:lcidtoname_downlevel.obj
 0002:00004d14       ??_C@_1M@FHIHCBIO@?$AAm?$AAn?$AA?9?$AAM?$AAN@ 10024d14     libucrt:lcidtoname_downlevel.obj
 0002:00004d20       ??_C@_1M@JAIJPENP@?$AAc?$AAy?$AA?9?$AAG?$AAB@ 10024d20     libucrt:lcidtoname_downlevel.obj
 0002:00004d2c       ??_C@_1M@PHGFBEPN@?$AAg?$AAl?$AA?9?$AAE?$AAS@ 10024d2c     libucrt:lcidtoname_downlevel.obj
 0002:00004d38       ??_C@_1O@KPIPDNCP@?$AAk?$AAo?$AAk?$AA?9?$AAI?$AAN@ 10024d38     libucrt:lcidtoname_downlevel.obj
 0002:00004d48       ??_C@_1O@KNHJLDJA@?$AAs?$AAy?$AAr?$AA?9?$AAS?$AAY@ 10024d48     libucrt:lcidtoname_downlevel.obj
 0002:00004d58       ??_C@_1O@MKEKBLAH@?$AAd?$AAi?$AAv?$AA?9?$AAM?$AAV@ 10024d58     libucrt:lcidtoname_downlevel.obj
 0002:00004d68       ??_C@_1O@OHDCKDDF@?$AAq?$AAu?$AAz?$AA?9?$AAB?$AAO@ 10024d68     libucrt:lcidtoname_downlevel.obj
 0002:00004d78       ??_C@_1M@LEPJNLFD@?$AAn?$AAs?$AA?9?$AAZ?$AAA@ 10024d78     libucrt:lcidtoname_downlevel.obj
 0002:00004d84       ??_C@_1M@OMLEIIJB@?$AAm?$AAi?$AA?9?$AAN?$AAZ@ 10024d84     libucrt:lcidtoname_downlevel.obj
 0002:00004d90       ??_C@_1M@PMPEAILG@?$AAa?$AAr?$AA?9?$AAI?$AAQ@ 10024d90     libucrt:lcidtoname_downlevel.obj
 0002:00004d9c       ??_C@_1M@CNKPNOEE@?$AAd?$AAe?$AA?9?$AAC?$AAH@ 10024d9c     libucrt:lcidtoname_downlevel.obj
 0002:00004da8       ??_C@_1M@LKMGMLKO@?$AAe?$AAn?$AA?9?$AAG?$AAB@ 10024da8     libucrt:lcidtoname_downlevel.obj
 0002:00004db4       ??_C@_1M@PGKJFFGL@?$AAe?$AAs?$AA?9?$AAM?$AAX@ 10024db4     libucrt:lcidtoname_downlevel.obj
 0002:00004dc0       ??_C@_1M@DNNANBDC@?$AAf?$AAr?$AA?9?$AAB?$AAE@ 10024dc0     libucrt:lcidtoname_downlevel.obj
 0002:00004dcc       ??_C@_1M@HLGMDFHM@?$AAi?$AAt?$AA?9?$AAC?$AAH@ 10024dcc     libucrt:lcidtoname_downlevel.obj
 0002:00004dd8       ??_C@_1M@CLLBGJH@?$AAn?$AAl?$AA?9?$AAB?$AAE@ 10024dd8     libucrt:lcidtoname_downlevel.obj
 0002:00004de4       ??_C@_1M@BODBOGLF@?$AAn?$AAn?$AA?9?$AAN?$AAO@ 10024de4     libucrt:lcidtoname_downlevel.obj
 0002:00004df0       ??_C@_1M@HFFAHKAD@?$AAp?$AAt?$AA?9?$AAP?$AAT@ 10024df0     libucrt:lcidtoname_downlevel.obj
 0002:00004dfc       ??_C@_1BG@LNOAKHIE@?$AAs?$AAr?$AA?9?$AAS?$AAP?$AA?9?$AAL?$AAa?$AAt?$AAn@ 10024dfc     libucrt:lcidtoname_downlevel.obj
 0002:00004e14       ??_C@_1M@HBMHBGAK@?$AAs?$AAv?$AA?9?$AAF?$AAI@ 10024e14     libucrt:lcidtoname_downlevel.obj
 0002:00004e20       ??_C@_1BG@DGCJGJBE@?$AAa?$AAz?$AA?9?$AAA?$AAZ?$AA?9?$AAC?$AAy?$AAr?$AAl@ 10024e20     libucrt:lcidtoname_downlevel.obj
 0002:00004e38       ??_C@_1M@KEJDAAHB@?$AAs?$AAe?$AA?9?$AAS?$AAE@ 10024e38     libucrt:lcidtoname_downlevel.obj
 0002:00004e44       ??_C@_1M@HEIBJJAD@?$AAm?$AAs?$AA?9?$AAB?$AAN@ 10024e44     libucrt:lcidtoname_downlevel.obj
 0002:00004e50       ??_C@_1BG@PBGJMCEM@?$AAu?$AAz?$AA?9?$AAU?$AAZ?$AA?9?$AAC?$AAy?$AAr?$AAl@ 10024e50     libucrt:lcidtoname_downlevel.obj
 0002:00004e68       ??_C@_1O@LAOBCMDF@?$AAq?$AAu?$AAz?$AA?9?$AAE?$AAC@ 10024e68     libucrt:lcidtoname_downlevel.obj
 0002:00004e78       ??_C@_1M@POEEMAIO@?$AAa?$AAr?$AA?9?$AAE?$AAG@ 10024e78     libucrt:lcidtoname_downlevel.obj
 0002:00004e84       ??_C@_1M@EFAKDEDL@?$AAz?$AAh?$AA?9?$AAH?$AAK@ 10024e84     libucrt:lcidtoname_downlevel.obj
 0002:00004e90       ??_C@_1M@HKKIJHGI@?$AAd?$AAe?$AA?9?$AAA?$AAT@ 10024e90     libucrt:lcidtoname_downlevel.obj
 0002:00004e9c       ??_C@_1M@KBFBEHJF@?$AAe?$AAn?$AA?9?$AAA?$AAU@ 10024e9c     libucrt:lcidtoname_downlevel.obj
 0002:00004ea8       ??_C@_1M@MNPLFAAH@?$AAe?$AAs?$AA?9?$AAE?$AAS@ 10024ea8     libucrt:lcidtoname_downlevel.obj
 0002:00004eb4       ??_C@_1M@HJOOJFMA@?$AAf?$AAr?$AA?9?$AAC?$AAA@ 10024eb4     libucrt:lcidtoname_downlevel.obj
 0002:00004ec0       ??_C@_1BG@JPOFPNAB@?$AAs?$AAr?$AA?9?$AAS?$AAP?$AA?9?$AAC?$AAy?$AAr?$AAl@ 10024ec0     libucrt:lcidtoname_downlevel.obj
 0002:00004ed8       ??_C@_1M@LNFOCMOB@?$AAs?$AAe?$AA?9?$AAF?$AAI@ 10024ed8     libucrt:lcidtoname_downlevel.obj
 0002:00004ee4       ??_C@_1O@MGJBOAMB@?$AAq?$AAu?$AAz?$AA?9?$AAP?$AAE@ 10024ee4     libucrt:lcidtoname_downlevel.obj
 0002:00004ef4       ??_C@_1M@GJINLBOK@?$AAa?$AAr?$AA?9?$AAL?$AAY@ 10024ef4     libucrt:lcidtoname_downlevel.obj
 0002:00004f00       ??_C@_1M@GGMNHJNL@?$AAz?$AAh?$AA?9?$AAS?$AAG@ 10024f00     libucrt:lcidtoname_downlevel.obj
 0002:00004f0c       ??_C@_1M@HOIKODND@?$AAd?$AAe?$AA?9?$AAL?$AAU@ 10024f0c     libucrt:lcidtoname_downlevel.obj
 0002:00004f18       ??_C@_1M@DDOCCGFG@?$AAe?$AAn?$AA?9?$AAC?$AAA@ 10024f18     libucrt:lcidtoname_downlevel.obj
 0002:00004f24       ??_C@_1M@BNOEMJLF@?$AAe?$AAs?$AA?9?$AAG?$AAT@ 10024f24     libucrt:lcidtoname_downlevel.obj
 0002:00004f30       ??_C@_1M@EOGNKEK@?$AAf?$AAr?$AA?9?$AAC?$AAH@ 10024f30     libucrt:lcidtoname_downlevel.obj
 0002:00004f3c       ??_C@_1M@FLIDJFHL@?$AAh?$AAr?$AA?9?$AAB?$AAA@ 10024f3c     libucrt:lcidtoname_downlevel.obj
 0002:00004f48       ??_C@_1O@FMCELNAJ@?$AAs?$AAm?$AAj?$AA?9?$AAN?$AAO@ 10024f48     libucrt:lcidtoname_downlevel.obj
 0002:00004f58       ??_C@_1M@JHGLJMGJ@?$AAa?$AAr?$AA?9?$AAD?$AAZ@ 10024f58     libucrt:lcidtoname_downlevel.obj
 0002:00004f64       ??_C@_1M@JKKFDCNP@?$AAz?$AAh?$AA?9?$AAM?$AAO@ 10024f64     libucrt:lcidtoname_downlevel.obj
 0002:00004f70       ??_C@_1M@GEEFALPE@?$AAd?$AAe?$AA?9?$AAL?$AAI@ 10024f70     libucrt:lcidtoname_downlevel.obj
 0002:00004f7c       ??_C@_1M@IGEOFBG@?$AAe?$AAn?$AA?9?$AAN?$AAZ@ 10024f7c     libucrt:lcidtoname_downlevel.obj
 0002:00004f88       ??_C@_1M@KDBONEHP@?$AAe?$AAs?$AA?9?$AAC?$AAR@ 10024f88     libucrt:lcidtoname_downlevel.obj
 0002:00004f94       ??_C@_1M@FHMDOHNN@?$AAf?$AAr?$AA?9?$AAL?$AAU@ 10024f94     libucrt:lcidtoname_downlevel.obj
 0002:00004fa0       ??_C@_1BG@NFKKMAFG@?$AAb?$AAs?$AA?9?$AAB?$AAA?$AA?9?$AAL?$AAa?$AAt?$AAn@ 10024fa0     libucrt:lcidtoname_downlevel.obj
 0002:00004fb8       ??_C@_1O@IMNBEMCI@?$AAs?$AAm?$AAj?$AA?9?$AAS?$AAE@ 10024fb8     libucrt:lcidtoname_downlevel.obj
 0002:00004fc8       ??_C@_1M@DHHMBNDP@?$AAa?$AAr?$AA?9?$AAM?$AAA@ 10024fc8     libucrt:lcidtoname_downlevel.obj
 0002:00004fd4       ??_C@_1M@BNBLJCGH@?$AAe?$AAn?$AA?9?$AAI?$AAE@ 10024fd4     libucrt:lcidtoname_downlevel.obj
 0002:00004fe0       ??_C@_1M@GEPAFMDL@?$AAe?$AAs?$AA?9?$AAP?$AAA@ 10024fe0     libucrt:lcidtoname_downlevel.obj
 0002:00004fec       ??_C@_1M@OJONDMDL@?$AAf?$AAr?$AA?9?$AAM?$AAC@ 10024fec     libucrt:lcidtoname_downlevel.obj
 0002:00004ff8       ??_C@_1BG@OBCNFJB@?$AAs?$AAr?$AA?9?$AAB?$AAA?$AA?9?$AAL?$AAa?$AAt?$AAn@ 10024ff8     libucrt:lcidtoname_downlevel.obj
 0002:00005010       ??_C@_1O@KEMEEGPO@?$AAs?$AAm?$AAa?$AA?9?$AAN?$AAO@ 10025010     libucrt:lcidtoname_downlevel.obj
 0002:00005020       ??_C@_1M@ELMGFODK@?$AAa?$AAr?$AA?9?$AAT?$AAN@ 10025020     libucrt:lcidtoname_downlevel.obj
 0002:0000502c       ??_C@_1M@BHDLHFAF@?$AAe?$AAn?$AA?9?$AAZ?$AAA@ 1002502c     libucrt:lcidtoname_downlevel.obj
 0002:00005038       ??_C@_1M@BMGIGLIF@?$AAe?$AAs?$AA?9?$AAD?$AAO@ 10025038     libucrt:lcidtoname_downlevel.obj
 0002:00005044       ??_C@_1BG@CMBHIPBE@?$AAs?$AAr?$AA?9?$AAB?$AAA?$AA?9?$AAC?$AAy?$AAr?$AAl@ 10025044     libucrt:lcidtoname_downlevel.obj
 0002:0000505c       ??_C@_1O@HEDBLHNP@?$AAs?$AAm?$AAa?$AA?9?$AAS?$AAE@ 1002505c     libucrt:lcidtoname_downlevel.obj
 0002:0000506c       ??_C@_1M@DAGCADIM@?$AAa?$AAr?$AA?9?$AAO?$AAM@ 1002506c     libucrt:lcidtoname_downlevel.obj
 0002:00005078       ??_C@_1M@FODLMICG@?$AAe?$AAn?$AA?9?$AAJ?$AAM@ 10025078     libucrt:lcidtoname_downlevel.obj
 0002:00005084       ??_C@_1M@DNMLCIHB@?$AAe?$AAs?$AA?9?$AAV?$AAE@ 10025084     libucrt:lcidtoname_downlevel.obj
 0002:00005090       ??_C@_1O@EOKHMKJK@?$AAs?$AAm?$AAs?$AA?9?$AAF?$AAI@ 10025090     libucrt:lcidtoname_downlevel.obj
 0002:000050a0       ??_C@_1M@CAFJMKOF@?$AAa?$AAr?$AA?9?$AAY?$AAE@ 100250a0     libucrt:lcidtoname_downlevel.obj
 0002:000050ac       ??_C@_1M@CBFHIJLI@?$AAe?$AAn?$AA?9?$AAC?$AAB@ 100250ac     libucrt:lcidtoname_downlevel.obj
 0002:000050b8       ??_C@_1M@BGNFLDN@?$AAe?$AAs?$AA?9?$AAC?$AAO@ 100250b8     libucrt:lcidtoname_downlevel.obj
 0002:000050c4       ??_C@_1O@JMPHMAMC@?$AAs?$AAm?$AAn?$AA?9?$AAF?$AAI@ 100250c4     libucrt:lcidtoname_downlevel.obj
 0002:000050d4       ??_C@_1M@JLANABKE@?$AAa?$AAr?$AA?9?$AAS?$AAY@ 100250d4     libucrt:lcidtoname_downlevel.obj
 0002:000050e0       ??_C@_1M@HPKGCFGN@?$AAe?$AAn?$AA?9?$AAB?$AAZ@ 100250e0     libucrt:lcidtoname_downlevel.obj
 0002:000050ec       ??_C@_1M@OLJCMLGM@?$AAe?$AAs?$AA?9?$AAP?$AAE@ 100250ec     libucrt:lcidtoname_downlevel.obj
 0002:000050f8       ??_C@_1M@MKKGFKLE@?$AAa?$AAr?$AA?9?$AAJ?$AAO@ 100250f8     libucrt:lcidtoname_downlevel.obj
 0002:00005104       ??_C@_1M@EKPGLDNI@?$AAe?$AAn?$AA?9?$AAT?$AAT@ 10025104     libucrt:lcidtoname_downlevel.obj
 0002:00005110       ??_C@_1M@OONGHFHE@?$AAe?$AAs?$AA?9?$AAA?$AAR@ 10025110     libucrt:lcidtoname_downlevel.obj
 0002:0000511c       ??_C@_1M@OOJFGBHE@?$AAa?$AAr?$AA?9?$AAL?$AAB@ 1002511c     libucrt:lcidtoname_downlevel.obj
 0002:00005128       ??_C@_1M@GCEJHNEG@?$AAe?$AAn?$AA?9?$AAZ?$AAW@ 10025128     libucrt:lcidtoname_downlevel.obj
 0002:00005134       ??_C@_1M@JNOCAHJI@?$AAe?$AAs?$AA?9?$AAE?$AAC@ 10025134     libucrt:lcidtoname_downlevel.obj
 0002:00005140       ??_C@_1M@JEFHPGGB@?$AAa?$AAr?$AA?9?$AAK?$AAW@ 10025140     libucrt:lcidtoname_downlevel.obj
 0002:0000514c       ??_C@_1M@MLKIBJOJ@?$AAe?$AAn?$AA?9?$AAP?$AAH@ 1002514c     libucrt:lcidtoname_downlevel.obj
 0002:00005158       ??_C@_1M@BDNIPEND@?$AAe?$AAs?$AA?9?$AAC?$AAL@ 10025158     libucrt:lcidtoname_downlevel.obj
 0002:00005164       ??_C@_1M@MPNMEKBD@?$AAa?$AAr?$AA?9?$AAA?$AAE@ 10025164     libucrt:lcidtoname_downlevel.obj
 0002:00005170       ??_C@_1M@KBJALCPI@?$AAe?$AAs?$AA?9?$AAU?$AAY@ 10025170     libucrt:lcidtoname_downlevel.obj
 0002:0000517c       ??_C@_1M@LLCCOAGA@?$AAa?$AAr?$AA?9?$AAB?$AAH@ 1002517c     libucrt:lcidtoname_downlevel.obj
 0002:00005188       ??_C@_1M@PBFNCDEL@?$AAe?$AAs?$AA?9?$AAP?$AAY@ 10025188     libucrt:lcidtoname_downlevel.obj
 0002:00005194       ??_C@_1M@EDGINPNP@?$AAa?$AAr?$AA?9?$AAQ?$AAA@ 10025194     libucrt:lcidtoname_downlevel.obj
 0002:000051a0       ??_C@_1M@MKDBIIJI@?$AAe?$AAs?$AA?9?$AAB?$AAO@ 100251a0     libucrt:lcidtoname_downlevel.obj
 0002:000051ac       ??_C@_1M@CPKKEBLD@?$AAe?$AAs?$AA?9?$AAS?$AAV@ 100251ac     libucrt:lcidtoname_downlevel.obj
 0002:000051b8       ??_C@_1M@NDBGMMJL@?$AAe?$AAs?$AA?9?$AAH?$AAN@ 100251b8     libucrt:lcidtoname_downlevel.obj
 0002:000051c4       ??_C@_1M@JIJIBHDP@?$AAe?$AAs?$AA?9?$AAN?$AAI@ 100251c4     libucrt:lcidtoname_downlevel.obj
 0002:000051d0       ??_C@_1M@CGFMKEEK@?$AAe?$AAs?$AA?9?$AAP?$AAR@ 100251d0     libucrt:lcidtoname_downlevel.obj
 0002:000051dc       ??_C@_1O@ICJHKIIK@?$AAz?$AAh?$AA?9?$AAC?$AAH?$AAT@ 100251dc     libucrt:lcidtoname_downlevel.obj
 0002:000051ec       ??_C@_15CLNEJCE@?$AAs?$AAr@ 100251ec     libucrt:lcidtoname_downlevel.obj
 0002:00005918       ??_C@_1M@KAHEKEIG@?$AAa?$AAf?$AA?9?$AAz?$AAa@ 10025918     libucrt:lcidtoname_downlevel.obj
 0002:00005924       ??_C@_1M@GIECOABL@?$AAa?$AAr?$AA?9?$AAa?$AAe@ 10025924     libucrt:lcidtoname_downlevel.obj
 0002:00005930       ??_C@_1M@BMLMEKGI@?$AAa?$AAr?$AA?9?$AAb?$AAh@ 10025930     libucrt:lcidtoname_downlevel.obj
 0002:0000593c       ??_C@_1M@DAPFDGGB@?$AAa?$AAr?$AA?9?$AAd?$AAz@ 1002593c     libucrt:lcidtoname_downlevel.obj
 0002:00005948       ??_C@_1M@FJNKGKIG@?$AAa?$AAr?$AA?9?$AAe?$AAg@ 10025948     libucrt:lcidtoname_downlevel.obj
 0002:00005954       ??_C@_1M@FLGKKCLO@?$AAa?$AAr?$AA?9?$AAi?$AAq@ 10025954     libucrt:lcidtoname_downlevel.obj
 0002:00005960       ??_C@_1M@GNDIPALM@?$AAa?$AAr?$AA?9?$AAj?$AAo@ 10025960     libucrt:lcidtoname_downlevel.obj
 0002:0000596c       ??_C@_1M@DDMJFMGJ@?$AAa?$AAr?$AA?9?$AAk?$AAw@ 1002596c     libucrt:lcidtoname_downlevel.obj
 0002:00005978       ??_C@_1M@EJALMLHM@?$AAa?$AAr?$AA?9?$AAl?$AAb@ 10025978     libucrt:lcidtoname_downlevel.obj
 0002:00005984       ??_C@_1M@MOBDBLOC@?$AAa?$AAr?$AA?9?$AAl?$AAy@ 10025984     libucrt:lcidtoname_downlevel.obj
 0002:00005990       ??_C@_1M@JAOCLHDH@?$AAa?$AAr?$AA?9?$AAm?$AAa@ 10025990     libucrt:lcidtoname_downlevel.obj
 0002:0000599c       ??_C@_1M@JHPMKJIE@?$AAa?$AAr?$AA?9?$AAo?$AAm@ 1002599c     libucrt:lcidtoname_downlevel.obj
 0002:000059a8       ??_C@_1M@OEPGHFNH@?$AAa?$AAr?$AA?9?$AAq?$AAa@ 100259a8     libucrt:lcidtoname_downlevel.obj
 0002:000059b4       ??_C@_1M@KJDONENM@?$AAa?$AAr?$AA?9?$AAs?$AAa@ 100259b4     libucrt:lcidtoname_downlevel.obj
 0002:000059c0       ??_C@_1M@DMJDKLKM@?$AAa?$AAr?$AA?9?$AAs?$AAy@ 100259c0     libucrt:lcidtoname_downlevel.obj
 0002:000059cc       ??_C@_1M@OMFIPEDC@?$AAa?$AAr?$AA?9?$AAt?$AAn@ 100259cc     libucrt:lcidtoname_downlevel.obj
 0002:000059d8       ??_C@_1M@IHMHGAON@?$AAa?$AAr?$AA?9?$AAy?$AAe@ 100259d8     libucrt:lcidtoname_downlevel.obj
 0002:000059e4       ??_C@_1BG@KDCPGJGB@?$AAa?$AAz?$AA?9?$AAa?$AAz?$AA?9?$AAc?$AAy?$AAr?$AAl@ 100259e4     libucrt:lcidtoname_downlevel.obj
 0002:000059fc       ??_C@_1BG@IBCKDDOE@?$AAa?$AAz?$AA?9?$AAa?$AAz?$AA?9?$AAl?$AAa?$AAt?$AAn@ 100259fc     libucrt:lcidtoname_downlevel.obj
 0002:00005a14       ??_C@_1M@EGPFDCPD@?$AAb?$AAe?$AA?9?$AAb?$AAy@ 10025a14     libucrt:lcidtoname_downlevel.obj
 0002:00005a20       ??_C@_1M@PCMGMCGC@?$AAb?$AAg?$AA?9?$AAb?$AAg@ 10025a20     libucrt:lcidtoname_downlevel.obj
 0002:00005a2c       ??_C@_1M@BJBMFGOB@?$AAb?$AAn?$AA?9?$AAi?$AAn@ 10025a2c     libucrt:lcidtoname_downlevel.obj
 0002:00005a38       ??_C@_1BG@EAKMMACD@?$AAb?$AAs?$AA?9?$AAb?$AAa?$AA?9?$AAl?$AAa?$AAt?$AAn@ 10025a38     libucrt:lcidtoname_downlevel.obj
 0002:00005a50       ??_C@_1M@KGADAODK@?$AAc?$AAa?$AA?9?$AAe?$AAs@ 10025a50     libucrt:lcidtoname_downlevel.obj
 0002:00005a5c       ??_C@_1M@COAJPDHI@?$AAc?$AAs?$AA?9?$AAc?$AAz@ 10025a5c     libucrt:lcidtoname_downlevel.obj
 0002:00005a68       ??_C@_1M@DHBHFONH@?$AAc?$AAy?$AA?9?$AAg?$AAb@ 10025a68     libucrt:lcidtoname_downlevel.obj
 0002:00005a74       ??_C@_1M@IMGKELGA@?$AAd?$AAa?$AA?9?$AAd?$AAk@ 10025a74     libucrt:lcidtoname_downlevel.obj
 0002:00005a80       ??_C@_1M@NNDGDNGA@?$AAd?$AAe?$AA?9?$AAa?$AAt@ 10025a80     libucrt:lcidtoname_downlevel.obj
 0002:00005a8c       ??_C@_1M@IKDBHEEM@?$AAd?$AAe?$AA?9?$AAc?$AAh@ 10025a8c     libucrt:lcidtoname_downlevel.obj
 0002:00005a98       ??_C@_1M@GFFOJMCJ@?$AAd?$AAe?$AA?9?$AAd?$AAe@ 10025a98     libucrt:lcidtoname_downlevel.obj
 0002:00005aa4       ??_C@_1M@MDNLKBPM@?$AAd?$AAe?$AA?9?$AAl?$AAi@ 10025aa4     libucrt:lcidtoname_downlevel.obj
 0002:00005ab0       ??_C@_1M@NJBEEJNL@?$AAd?$AAe?$AA?9?$AAl?$AAu@ 10025ab0     libucrt:lcidtoname_downlevel.obj
 0002:00005abc       ??_C@_1O@GNNELBAP@?$AAd?$AAi?$AAv?$AA?9?$AAm?$AAv@ 10025abc     libucrt:lcidtoname_downlevel.obj
 0002:00005acc       ??_C@_1M@EJLEOGAE@?$AAe?$AAl?$AA?9?$AAg?$AAr@ 10025acc     libucrt:lcidtoname_downlevel.obj
 0002:00005ad8       ??_C@_1M@GMPONJN@?$AAe?$AAn?$AA?9?$AAa?$AAu@ 10025ad8     libucrt:lcidtoname_downlevel.obj
 0002:00005ae4       ??_C@_1M@NIDIIPGF@?$AAe?$AAn?$AA?9?$AAb?$AAz@ 10025ae4     libucrt:lcidtoname_downlevel.obj
 0002:00005af0       ??_C@_1M@JEHMIMFO@?$AAe?$AAn?$AA?9?$AAc?$AAa@ 10025af0     libucrt:lcidtoname_downlevel.obj
 0002:00005afc       ??_C@_1M@IGMJCDLA@?$AAe?$AAn?$AA?9?$AAc?$AAb@ 10025afc     libucrt:lcidtoname_downlevel.obj
 0002:00005b08       ??_C@_1M@BNFIGBKG@?$AAe?$AAn?$AA?9?$AAg?$AAb@ 10025b08     libucrt:lcidtoname_downlevel.obj
 0002:00005b14       ??_C@_1M@LKIFDIGP@?$AAe?$AAn?$AA?9?$AAi?$AAe@ 10025b14     libucrt:lcidtoname_downlevel.obj
 0002:00005b20       ??_C@_1M@PJKFGCCO@?$AAe?$AAn?$AA?9?$AAj?$AAm@ 10025b20     libucrt:lcidtoname_downlevel.obj
 0002:00005b2c       ??_C@_1M@KPPKEPBO@?$AAe?$AAn?$AA?9?$AAn?$AAz@ 10025b2c     libucrt:lcidtoname_downlevel.obj
 0002:00005b38       ??_C@_1M@GMDGLDOB@?$AAe?$AAn?$AA?9?$AAp?$AAh@ 10025b38     libucrt:lcidtoname_downlevel.obj
 0002:00005b44       ??_C@_1M@ONGIBJNA@?$AAe?$AAn?$AA?9?$AAt?$AAt@ 10025b44     libucrt:lcidtoname_downlevel.obj
 0002:00005b50       ??_C@_1M@LLODPCMM@?$AAe?$AAn?$AA?9?$AAu?$AAs@ 10025b50     libucrt:lcidtoname_downlevel.obj
 0002:00005b5c       ??_C@_1M@LAKFNPAN@?$AAe?$AAn?$AA?9?$AAz?$AAa@ 10025b5c     libucrt:lcidtoname_downlevel.obj
 0002:00005b68       ??_C@_1M@MFNHNHEO@?$AAe?$AAn?$AA?9?$AAz?$AAw@ 10025b68     libucrt:lcidtoname_downlevel.obj
 0002:00005b74       ??_C@_1M@EJEINPHM@?$AAe?$AAs?$AA?9?$AAa?$AAr@ 10025b74     libucrt:lcidtoname_downlevel.obj
 0002:00005b80       ??_C@_1M@GNKPCCJA@?$AAe?$AAs?$AA?9?$AAb?$AAo@ 10025b80     libucrt:lcidtoname_downlevel.obj
 0002:00005b8c       ??_C@_1M@LEEGFONL@?$AAe?$AAs?$AA?9?$AAc?$AAl@ 10025b8c     libucrt:lcidtoname_downlevel.obj
 0002:00005b98       ??_C@_1M@KGPDPBDF@?$AAe?$AAs?$AA?9?$AAc?$AAo@ 10025b98     libucrt:lcidtoname_downlevel.obj
 0002:00005ba4       ??_C@_1M@EIAHOHH@?$AAe?$AAs?$AA?9?$AAc?$AAr@ 10025ba4     libucrt:lcidtoname_downlevel.obj
 0002:00005bb0       ??_C@_1M@LLPGMBIN@?$AAe?$AAs?$AA?9?$AAd?$AAo@ 10025bb0     libucrt:lcidtoname_downlevel.obj
 0002:00005bbc       ??_C@_1M@DKHMKNJA@?$AAe?$AAs?$AA?9?$AAe?$AAc@ 10025bbc     libucrt:lcidtoname_downlevel.obj
 0002:00005bc8       ??_C@_1M@GKGFPKAP@?$AAe?$AAs?$AA?9?$AAe?$AAs@ 10025bc8     libucrt:lcidtoname_downlevel.obj
 0002:00005bd4       ??_C@_1M@LKHKGDLN@?$AAe?$AAs?$AA?9?$AAg?$AAt@ 10025bd4     libucrt:lcidtoname_downlevel.obj
 0002:00005be0       ??_C@_1M@HEIIGGJD@?$AAe?$AAs?$AA?9?$AAh?$AAn@ 10025be0     libucrt:lcidtoname_downlevel.obj
 0002:00005bec       ??_C@_1M@FBDHPPGD@?$AAe?$AAs?$AA?9?$AAm?$AAx@ 10025bec     libucrt:lcidtoname_downlevel.obj
 0002:00005bf8       ??_C@_1M@DPAGLNDH@?$AAe?$AAs?$AA?9?$AAn?$AAi@ 10025bf8     libucrt:lcidtoname_downlevel.obj
 0002:00005c04       ??_C@_1M@MDGOPGDD@?$AAe?$AAs?$AA?9?$AAp?$AAa@ 10025c04     libucrt:lcidtoname_downlevel.obj
 0002:00005c10       ??_C@_1M@EMAMGBGE@?$AAe?$AAs?$AA?9?$AAp?$AAe@ 10025c10     libucrt:lcidtoname_downlevel.obj
 0002:00005c1c       ??_C@_1M@IBMCAOEC@?$AAe?$AAs?$AA?9?$AAp?$AAr@ 10025c1c     libucrt:lcidtoname_downlevel.obj
 0002:00005c28       ??_C@_1M@FGMDIJED@?$AAe?$AAs?$AA?9?$AAp?$AAy@ 10025c28     libucrt:lcidtoname_downlevel.obj
 0002:00005c34       ??_C@_1M@IIDEOLLL@?$AAe?$AAs?$AA?9?$AAs?$AAv@ 10025c34     libucrt:lcidtoname_downlevel.obj
 0002:00005c40       ??_C@_1M@GAOBIPA@?$AAe?$AAs?$AA?9?$AAu?$AAy@ 10025c40     libucrt:lcidtoname_downlevel.obj
 0002:00005c4c       ??_C@_1M@JKFFICHJ@?$AAe?$AAs?$AA?9?$AAv?$AAe@ 10025c4c     libucrt:lcidtoname_downlevel.obj
 0002:00005c58       ??_C@_1M@PNMLOJDF@?$AAe?$AAt?$AA?9?$AAe?$AAe@ 10025c58     libucrt:lcidtoname_downlevel.obj
 0002:00005c64       ??_C@_1M@GHHLIKEI@?$AAe?$AAu?$AA?9?$AAe?$AAs@ 10025c64     libucrt:lcidtoname_downlevel.obj
 0002:00005c70       ??_C@_1M@PBNONODE@?$AAf?$AAa?$AA?9?$AAi?$AAr@ 10025c70     libucrt:lcidtoname_downlevel.obj
 0002:00005c7c       ??_C@_1M@JEEHPMIL@?$AAf?$AAi?$AA?9?$AAf?$AAi@ 10025c7c     libucrt:lcidtoname_downlevel.obj
 0002:00005c88       ??_C@_1M@LMDCNDBA@?$AAf?$AAo?$AA?9?$AAf?$AAo@ 10025c88     libucrt:lcidtoname_downlevel.obj
 0002:00005c94       ??_C@_1M@JKEOHLDK@?$AAf?$AAr?$AA?9?$AAb?$AAe@ 10025c94     libucrt:lcidtoname_downlevel.obj
 0002:00005ca0       ??_C@_1M@NOHADPMI@?$AAf?$AAr?$AA?9?$AAc?$AAa@ 10025ca0     libucrt:lcidtoname_downlevel.obj
 0002:00005cac       ??_C@_1M@KDHIHAEC@?$AAf?$AAr?$AA?9?$AAc?$AAh@ 10025cac     libucrt:lcidtoname_downlevel.obj
 0002:00005cb8       ??_C@_1M@MMBBFGAK@?$AAf?$AAr?$AA?9?$AAf?$AAr@ 10025cb8     libucrt:lcidtoname_downlevel.obj
 0002:00005cc4       ??_C@_1M@PAFNENNF@?$AAf?$AAr?$AA?9?$AAl?$AAu@ 10025cc4     libucrt:lcidtoname_downlevel.obj
 0002:00005cd0       ??_C@_1M@EOHDJGDD@?$AAf?$AAr?$AA?9?$AAm?$AAc@ 10025cd0     libucrt:lcidtoname_downlevel.obj
 0002:00005cdc       ??_C@_1M@FAPLLOPF@?$AAg?$AAl?$AA?9?$AAe?$AAs@ 10025cdc     libucrt:lcidtoname_downlevel.obj
 0002:00005ce8       ??_C@_1M@FOPBFLOO@?$AAg?$AAu?$AA?9?$AAi?$AAn@ 10025ce8     libucrt:lcidtoname_downlevel.obj
 0002:00005cf4       ??_C@_1M@KBMCINPM@?$AAh?$AAe?$AA?9?$AAi?$AAl@ 10025cf4     libucrt:lcidtoname_downlevel.obj
 0002:00005d00       ??_C@_1M@BBPHKFPJ@?$AAh?$AAi?$AA?9?$AAi?$AAn@ 10025d00     libucrt:lcidtoname_downlevel.obj
 0002:00005d0c       ??_C@_1M@PMBNDPHD@?$AAh?$AAr?$AA?9?$AAb?$AAa@ 10025d0c     libucrt:lcidtoname_downlevel.obj
 0002:00005d18       ??_C@_1M@BPCKOEGE@?$AAh?$AAr?$AA?9?$AAh?$AAr@ 10025d18     libucrt:lcidtoname_downlevel.obj
 0002:00005d24       ??_C@_1M@GACBMHKE@?$AAh?$AAu?$AA?9?$AAh?$AAu@ 10025d24     libucrt:lcidtoname_downlevel.obj
 0002:00005d30       ??_C@_1M@MILPAJJC@?$AAh?$AAy?$AA?9?$AAa?$AAm@ 10025d30     libucrt:lcidtoname_downlevel.obj
 0002:00005d3c       ??_C@_1M@BABBICEC@?$AAi?$AAd?$AA?9?$AAi?$AAd@ 10025d3c     libucrt:lcidtoname_downlevel.obj
 0002:00005d48       ??_C@_1M@BIKNHHPF@?$AAi?$AAs?$AA?9?$AAi?$AAs@ 10025d48     libucrt:lcidtoname_downlevel.obj
 0002:00005d54       ??_C@_1M@NMPCJPHE@?$AAi?$AAt?$AA?9?$AAc?$AAh@ 10025d54     libucrt:lcidtoname_downlevel.obj
 0002:00005d60       ??_C@_1M@GHKGFEDF@?$AAi?$AAt?$AA?9?$AAi?$AAt@ 10025d60     libucrt:lcidtoname_downlevel.obj
 0002:00005d6c       ??_C@_1M@NIEJCJJA@?$AAj?$AAa?$AA?9?$AAj?$AAp@ 10025d6c     libucrt:lcidtoname_downlevel.obj
 0002:00005d78       ??_C@_1M@JILFNBIM@?$AAk?$AAa?$AA?9?$AAg?$AAe@ 10025d78     libucrt:lcidtoname_downlevel.obj
 0002:00005d84       ??_C@_1M@PACPMGPH@?$AAk?$AAk?$AA?9?$AAk?$AAz@ 10025d84     libucrt:lcidtoname_downlevel.obj
 0002:00005d90       ??_C@_1M@IELFGMHA@?$AAk?$AAn?$AA?9?$AAi?$AAn@ 10025d90     libucrt:lcidtoname_downlevel.obj
 0002:00005d9c       ??_C@_1O@IBBJHCH@?$AAk?$AAo?$AAk?$AA?9?$AAi?$AAn@ 10025d9c     libucrt:lcidtoname_downlevel.obj
 0002:00005dac       ??_C@_1M@DMHAEOGC@?$AAk?$AAo?$AA?9?$AAk?$AAr@ 10025dac     libucrt:lcidtoname_downlevel.obj
 0002:00005db8       ??_C@_1M@HBAHBIGA@?$AAk?$AAy?$AA?9?$AAk?$AAg@ 10025db8     libucrt:lcidtoname_downlevel.obj
 0002:00005dc4       ??_C@_1M@KPMILCJG@?$AAl?$AAt?$AA?9?$AAl?$AAt@ 10025dc4     libucrt:lcidtoname_downlevel.obj
 0002:00005dd0       ??_C@_1M@BDEKKCA@?$AAl?$AAv?$AA?9?$AAl?$AAv@ 10025dd0     libucrt:lcidtoname_downlevel.obj
 0002:00005ddc       ??_C@_1M@ELCKCCJJ@?$AAm?$AAi?$AA?9?$AAn?$AAz@ 10025ddc     libucrt:lcidtoname_downlevel.obj
 0002:00005de8       ??_C@_1M@CBOOLAPA@?$AAm?$AAk?$AA?9?$AAm?$AAk@ 10025de8     libucrt:lcidtoname_downlevel.obj
 0002:00005df4       ??_C@_1M@GPHNBJKN@?$AAm?$AAl?$AA?9?$AAi?$AAn@ 10025df4     libucrt:lcidtoname_downlevel.obj
 0002:00005e00       ??_C@_1M@PABJILIG@?$AAm?$AAn?$AA?9?$AAm?$AAn@ 10025e00     libucrt:lcidtoname_downlevel.obj
 0002:00005e0c       ??_C@_1M@FGBKKIPG@?$AAm?$AAr?$AA?9?$AAi?$AAn@ 10025e0c     libucrt:lcidtoname_downlevel.obj
 0002:00005e18       ??_C@_1M@NDBPDDAL@?$AAm?$AAs?$AA?9?$AAb?$AAn@ 10025e18     libucrt:lcidtoname_downlevel.obj
 0002:00005e24       ??_C@_1M@OPIHOOPI@?$AAm?$AAs?$AA?9?$AAm?$AAy@ 10025e24     libucrt:lcidtoname_downlevel.obj
 0002:00005e30       ??_C@_1M@PPDBCNFM@?$AAm?$AAt?$AA?9?$AAm?$AAt@ 10025e30     libucrt:lcidtoname_downlevel.obj
 0002:00005e3c       ??_C@_1M@KDJDKMDD@?$AAn?$AAb?$AA?9?$AAn?$AAo@ 10025e3c     libucrt:lcidtoname_downlevel.obj
 0002:00005e48       ??_C@_1M@KFCFLMJP@?$AAn?$AAl?$AA?9?$AAb?$AAe@ 10025e48     libucrt:lcidtoname_downlevel.obj
 0002:00005e54       ??_C@_1M@KPOPDDGO@?$AAn?$AAl?$AA?9?$AAn?$AAl@ 10025e54     libucrt:lcidtoname_downlevel.obj
 0002:00005e60       ??_C@_1M@LJKPEMLN@?$AAn?$AAn?$AA?9?$AAn?$AAo@ 10025e60     libucrt:lcidtoname_downlevel.obj
 0002:00005e6c       ??_C@_1M@BDGHHBFL@?$AAn?$AAs?$AA?9?$AAz?$AAa@ 10025e6c     libucrt:lcidtoname_downlevel.obj
 0002:00005e78       ??_C@_1M@IDEHOAP@?$AAp?$AAa?$AA?9?$AAi?$AAn@ 10025e78     libucrt:lcidtoname_downlevel.obj
 0002:00005e84       ??_C@_1M@HDBKGOGH@?$AAp?$AAl?$AA?9?$AAp?$AAl@ 10025e84     libucrt:lcidtoname_downlevel.obj
 0002:00005e90       ??_C@_1M@LJLLCMEH@?$AAp?$AAt?$AA?9?$AAb?$AAr@ 10025e90     libucrt:lcidtoname_downlevel.obj
 0002:00005e9c       ??_C@_1M@NCMONAAL@?$AAp?$AAt?$AA?9?$AAp?$AAt@ 10025e9c     libucrt:lcidtoname_downlevel.obj
 0002:00005ea8       ??_C@_1O@EAKMAJDN@?$AAq?$AAu?$AAz?$AA?9?$AAb?$AAo@ 10025ea8     libucrt:lcidtoname_downlevel.obj
 0002:00005eb8       ??_C@_1O@BHHPIGDN@?$AAq?$AAu?$AAz?$AA?9?$AAe?$AAc@ 10025eb8     libucrt:lcidtoname_downlevel.obj
 0002:00005ec8       ??_C@_1O@GBAPEKMJ@?$AAq?$AAu?$AAz?$AA?9?$AAp?$AAe@ 10025ec8     libucrt:lcidtoname_downlevel.obj
 0002:00005ed8       ??_C@_1M@CLGLEFBO@?$AAr?$AAo?$AA?9?$AAr?$AAo@ 10025ed8     libucrt:lcidtoname_downlevel.obj
 0002:00005ee4       ??_C@_1M@CEEDODME@?$AAr?$AAu?$AA?9?$AAr?$AAu@ 10025ee4     libucrt:lcidtoname_downlevel.obj
 0002:00005ef0       ??_C@_1M@HPKKKMPP@?$AAs?$AAa?$AA?9?$AAi?$AAn@ 10025ef0     libucrt:lcidtoname_downlevel.obj
 0002:00005efc       ??_C@_1M@BKMAIGOJ@?$AAs?$AAe?$AA?9?$AAf?$AAi@ 10025efc     libucrt:lcidtoname_downlevel.obj
 0002:00005f08       ??_C@_1M@NDPIFLFI@?$AAs?$AAe?$AA?9?$AAn?$AAo@ 10025f08     libucrt:lcidtoname_downlevel.obj
 0002:00005f14       ??_C@_1M@DANKKHJ@?$AAs?$AAe?$AA?9?$AAs?$AAe@ 10025f14     libucrt:lcidtoname_downlevel.obj
 0002:00005f20       ??_C@_1M@PNBLONPJ@?$AAs?$AAk?$AA?9?$AAs?$AAk@ 10025f20     libucrt:lcidtoname_downlevel.obj
 0002:00005f2c       ??_C@_1M@LFMODOAL@?$AAs?$AAl?$AA?9?$AAs?$AAi@ 10025f2c     libucrt:lcidtoname_downlevel.obj
 0002:00005f38       ??_C@_1O@DFKOMPG@?$AAs?$AAm?$AAa?$AA?9?$AAn?$AAo@ 10025f38     libucrt:lcidtoname_downlevel.obj
 0002:00005f48       ??_C@_1O@NDKPBNNH@?$AAs?$AAm?$AAa?$AA?9?$AAs?$AAe@ 10025f48     libucrt:lcidtoname_downlevel.obj
 0002:00005f58       ??_C@_1O@PLLKBHAB@?$AAs?$AAm?$AAj?$AA?9?$AAn?$AAo@ 10025f58     libucrt:lcidtoname_downlevel.obj
 0002:00005f68       ??_C@_1O@CLEPOGCA@?$AAs?$AAm?$AAj?$AA?9?$AAs?$AAe@ 10025f68     libucrt:lcidtoname_downlevel.obj
 0002:00005f78       ??_C@_1O@DLGJGKMK@?$AAs?$AAm?$AAn?$AA?9?$AAf?$AAi@ 10025f78     libucrt:lcidtoname_downlevel.obj
 0002:00005f88       ??_C@_1O@OJDJGAJC@?$AAs?$AAm?$AAs?$AA?9?$AAf?$AAi@ 10025f88     libucrt:lcidtoname_downlevel.obj
 0002:00005f98       ??_C@_1M@BOFOGHPB@?$AAs?$AAq?$AA?9?$AAa?$AAl@ 10025f98     libucrt:lcidtoname_downlevel.obj
 0002:00005fa4       ??_C@_1BG@LJBBIPGB@?$AAs?$AAr?$AA?9?$AAb?$AAa?$AA?9?$AAc?$AAy?$AAr?$AAl@ 10025fa4     libucrt:lcidtoname_downlevel.obj
 0002:00005fbc       ??_C@_1BG@JLBENFOE@?$AAs?$AAr?$AA?9?$AAb?$AAa?$AA?9?$AAl?$AAa?$AAt?$AAn@ 10025fbc     libucrt:lcidtoname_downlevel.obj
 0002:00005fd4       ??_C@_1BG@KODPNHE@?$AAs?$AAr?$AA?9?$AAs?$AAp?$AA?9?$AAc?$AAy?$AAr?$AAl@ 10025fd4     libucrt:lcidtoname_downlevel.obj
 0002:00005fec       ??_C@_1BG@CIOGKHPB@?$AAs?$AAr?$AA?9?$AAs?$AAp?$AA?9?$AAl?$AAa?$AAt?$AAn@ 10025fec     libucrt:lcidtoname_downlevel.obj
 0002:00006004       ??_C@_1M@NGFJLMAC@?$AAs?$AAv?$AA?9?$AAf?$AAi@ 10026004     libucrt:lcidtoname_downlevel.obj
 0002:00006010       ??_C@_1M@MPJEJAJC@?$AAs?$AAv?$AA?9?$AAs?$AAe@ 10026010     libucrt:lcidtoname_downlevel.obj
 0002:0000601c       ??_C@_1M@MPNDHLFK@?$AAs?$AAw?$AA?9?$AAk?$AAe@ 1002601c     libucrt:lcidtoname_downlevel.obj
 0002:00006028       ??_C@_1O@KOHBJJI@?$AAs?$AAy?$AAr?$AA?9?$AAs?$AAy@ 10026028     libucrt:lcidtoname_downlevel.obj
 0002:00006038       ??_C@_1M@LDCEFHA@?$AAt?$AAa?$AA?9?$AAi?$AAn@ 10026038     libucrt:lcidtoname_downlevel.obj
 0002:00006044       ??_C@_1M@CNJOFAK@?$AAt?$AAe?$AA?9?$AAi?$AAn@ 10026044     libucrt:lcidtoname_downlevel.obj
 0002:00006050       ??_C@_1M@GNAECACD@?$AAt?$AAh?$AA?9?$AAt?$AAh@ 10026050     libucrt:lcidtoname_downlevel.obj
 0002:0000605c       ??_C@_1M@CHBIHOJO@?$AAt?$AAn?$AA?9?$AAz?$AAa@ 1002605c     libucrt:lcidtoname_downlevel.obj
 0002:00006068       ??_C@_1M@GCCMIGPJ@?$AAt?$AAr?$AA?9?$AAt?$AAr@ 10026068     libucrt:lcidtoname_downlevel.obj
 0002:00006074       ??_C@_1M@CELMCNBK@?$AAt?$AAt?$AA?9?$AAr?$AAu@ 10026074     libucrt:lcidtoname_downlevel.obj
 0002:00006080       ??_C@_1M@KLMCELGA@?$AAu?$AAk?$AA?9?$AAu?$AAa@ 10026080     libucrt:lcidtoname_downlevel.obj
 0002:0000608c       ??_C@_1M@EPAJJAJF@?$AAu?$AAr?$AA?9?$AAp?$AAk@ 1002608c     libucrt:lcidtoname_downlevel.obj
 0002:00006098       ??_C@_1BG@GEGPMCDJ@?$AAu?$AAz?$AA?9?$AAu?$AAz?$AA?9?$AAc?$AAy?$AAr?$AAl@ 10026098     libucrt:lcidtoname_downlevel.obj
 0002:000060b0       ??_C@_1BG@EGGKJILM@?$AAu?$AAz?$AA?9?$AAu?$AAz?$AA?9?$AAl?$AAa?$AAt?$AAn@ 100260b0     libucrt:lcidtoname_downlevel.obj
 0002:000060c8       ??_C@_1M@GFOCLFF@?$AAv?$AAi?$AA?9?$AAv?$AAn@ 100260c8     libucrt:lcidtoname_downlevel.obj
 0002:000060d4       ??_C@_1M@CPAMEDFI@?$AAx?$AAh?$AA?9?$AAz?$AAa@ 100260d4     libucrt:lcidtoname_downlevel.obj
 0002:000060e0       ??_C@_1O@EBKIFIGN@?$AAz?$AAh?$AA?9?$AAc?$AAh?$AAs@ 100260e0     libucrt:lcidtoname_downlevel.obj
 0002:000060f0       ??_C@_1O@NMHPGANE@?$AAz?$AAh?$AA?9?$AAc?$AAh?$AAt@ 100260f0     libucrt:lcidtoname_downlevel.obj
 0002:00006100       ??_C@_1M@LPINJOMC@?$AAz?$AAh?$AA?9?$AAc?$AAn@ 10026100     libucrt:lcidtoname_downlevel.obj
 0002:0000610c       ??_C@_1M@OCJEJODD@?$AAz?$AAh?$AA?9?$AAh?$AAk@ 1002610c     libucrt:lcidtoname_downlevel.obj
 0002:00006118       ??_C@_1M@DNDLJINH@?$AAz?$AAh?$AA?9?$AAm?$AAo@ 10026118     libucrt:lcidtoname_downlevel.obj
 0002:00006124       ??_C@_1M@MBFDNDND@?$AAz?$AAh?$AA?9?$AAs?$AAg@ 10026124     libucrt:lcidtoname_downlevel.obj
 0002:00006130       ??_C@_1M@IMEPLEPE@?$AAz?$AAh?$AA?9?$AAt?$AAw@ 10026130     libucrt:lcidtoname_downlevel.obj
 0002:0000613c       ??_C@_1M@BBGHNHJP@?$AAz?$AAu?$AA?9?$AAz?$AAa@ 1002613c     libucrt:lcidtoname_downlevel.obj
 0002:00006148       ?large_power_data@?1??multiply_by_power_of_ten@__crt_strtox@@YA_NAAUbig_integer@2@I@Z@4QBIB 10026148     libucrt:cfout.obj
 0002:00006a50       ?large_power_indices@?1??multiply_by_power_of_ten@__crt_strtox@@YA_NAAUbig_integer@2@I@Z@4QBUunpack_index@?1??12@YA_N0I@Z@B 10026a50     libucrt:cfout.obj
 0002:00006ae8       ?small_powers_of_ten@?1??multiply_by_power_of_ten@__crt_strtox@@YA_NAAUbig_integer@2@I@Z@4QBIB 10026ae8     libucrt:cfout.obj
 0002:00006b0c       ??_C@_01GBGANLPD@0@        10026b0c     libucrt:cfout.obj
 0002:00006b10       ??_C@_05DNEBIAHO@1?$CDINF@ 10026b10     libucrt:cfout.obj
 0002:00006b18       ??_C@_06IMKFLFPG@1?$CDQNAN@ 10026b18     libucrt:cfout.obj
 0002:00006b20       ??_C@_06PGGFOGJG@1?$CDSNAN@ 10026b20     libucrt:cfout.obj
 0002:00006b28       ??_C@_05PHHOCPM@1?$CDIND@  10026b28     libucrt:cfout.obj
 0002:00006c90       __infinity                 10026c90     libucrt:87tran.obj
 0002:00006c9a       __minfinity                10026c9a     libucrt:87tran.obj
 0002:00006ca4       __logemax                  10026ca4     libucrt:87tran.obj
 0002:00006cca       __OP_EXPjmptab             10026cca     libucrt:87tran.obj
 0002:00006cf0       __indefinite               10026cf0     libucrt:87disp.obj
 0002:00006cfa       __piby2                    10026cfa     libucrt:87disp.obj
 0002:00006d04       __piby4                    10026d04     libucrt:87disp.obj
 0002:00006d38       __DEFAULT_CW_in_mem        10026d38     libucrt:common.obj
 0002:00006d3a       __pi_by_2_to_61            10026d3a     libucrt:common.obj
 0002:00006d74       ??_C@_03MGHMBJCF@log@      10026d74     libucrt:libm_error.obj
 0002:00006d78       ??_C@_05HGHHAHAP@log10@    10026d78     libucrt:libm_error.obj
 0002:00006d80       ??_C@_03KHJOGHMM@exp@      10026d80     libucrt:libm_error.obj
 0002:00006d84       ??_C@_03JGHBODFD@pow@      10026d84     libucrt:libm_error.obj
 0002:00006d88       ??_C@_04FIHNOPOL@asin@     10026d88     libucrt:libm_error.obj
 0002:00006d90       ??_C@_04PDIFKINK@acos@     10026d90     libucrt:libm_error.obj
 0002:00006d98       ??_C@_04EIAKFFMI@sqrt@     10026d98     libucrt:libm_error.obj
 0002:00006da0       __real@3ff0000000000000    10026da0     libucrt:libm_error.obj
 0002:00006da8       ??_C@_1BA@BALFACEM@?$AAC?$AAO?$AAN?$AAO?$AAU?$AAT?$AA$@ 10026da8     libucrt:initcon.obj
 0002:00006dd0       ___acrt_log10_table_t      10026dd0     libucrt:log10_tables.obj
 0002:000071e0       ___acrt_log10_table_cb     100271e0     libucrt:log10_tables.obj
 0002:000075f0       __real@3fe0000000000000    100275f0     libucrt:powhlp.obj
 0002:000076e0       ??_C@_04COOMCNPB@sinh@     100276e0     libucrt:fpexcept.obj
 0002:000076e8       ??_C@_04HPJJNFIM@cosh@     100276e8     libucrt:fpexcept.obj
 0002:000076f0       ??_C@_04FJHINJAO@tanh@     100276f0     libucrt:fpexcept.obj
 0002:000076f8       ??_C@_04MLLJIGOK@atan@     100276f8     libucrt:fpexcept.obj
 0002:00007700       ??_C@_05KNGEOGJB@atan2@    10027700     libucrt:fpexcept.obj
 0002:00007708       ??_C@_03BLEJJJBH@sin@      10027708     libucrt:fpexcept.obj
 0002:0000770c       ??_C@_03LALBNOCG@cos@      1002770c     libucrt:fpexcept.obj
 0002:00007710       ??_C@_03IIINPABG@tan@      10027710     libucrt:fpexcept.obj
 0002:00007714       ??_C@_04GFPJNGEK@ceil@     10027714     libucrt:fpexcept.obj
 0002:0000771c       ??_C@_05PBJFFIGL@floor@    1002771c     libucrt:fpexcept.obj
 0002:00007724       ??_C@_04ODHECPBC@fabs@     10027724     libucrt:fpexcept.obj
 0002:0000772c       ??_C@_04EHEDPDJG@modf@     1002772c     libucrt:fpexcept.obj
 0002:00007734       ??_C@_05CEJMAHNP@ldexp@    10027734     libucrt:fpexcept.obj
 0002:0000773c       ??_C@_05KBKMEMPO@_cabs@    1002773c     libucrt:fpexcept.obj
 0002:00007744       ??_C@_06MEIMCGCF@_hypot@   10027744     libucrt:fpexcept.obj
 0002:0000774c       ??_C@_04KEPJIHGP@fmod@     1002774c     libucrt:fpexcept.obj
 0002:00007754       ??_C@_05GKKHEGJL@frexp@    10027754     libucrt:fpexcept.obj
 0002:0000775c       ??_C@_03MJLDFKDL@_y0@      1002775c     libucrt:fpexcept.obj
 0002:00007760       ??_C@_03NAKIGLHK@_y1@      10027760     libucrt:fpexcept.obj
 0002:00007764       ??_C@_03ONILCKOB@_yn@      10027764     libucrt:fpexcept.obj
 0002:00007768       ??_C@_05JGDBENOH@_logb@    10027768     libucrt:fpexcept.obj
 0002:00007770       ??_C@_0L@KDOEJCKC@_nextafter@ 10027770     libucrt:fpexcept.obj
 0002:00007780       __d_inf                    10027780     libucrt:util.obj
 0002:00007788       __d_max                    10027788     libucrt:util.obj
 0002:00007790       __d_mzero                  10027790     libucrt:util.obj
 0002:00007800       __load_config_used         10027800     LIBCMT:loadcfg.obj
 0002:000078c0       __tls_used                 100278c0     LIBCMT:tlssup.obj
 0002:000078d8       ??_R4exception@std@@6B@    100278d8     LIBCMT:throw_bad_alloc.obj
 0002:000078ec       ??_R3exception@std@@8      100278ec     LIBCMT:throw_bad_alloc.obj
 0002:000078fc       ??_R2exception@std@@8      100278fc     LIBCMT:throw_bad_alloc.obj
 0002:00007904       ??_R1A@?0A@EA@exception@std@@8 10027904     LIBCMT:throw_bad_alloc.obj
 0002:00007920       ??_R4bad_alloc@std@@6B@    10027920     LIBCMT:throw_bad_alloc.obj
 0002:00007934       ??_R3bad_alloc@std@@8      10027934     LIBCMT:throw_bad_alloc.obj
 0002:00007944       ??_R2bad_alloc@std@@8      10027944     LIBCMT:throw_bad_alloc.obj
 0002:00007950       ??_R1A@?0A@EA@bad_alloc@std@@8 10027950     LIBCMT:throw_bad_alloc.obj
 0002:0000796c       ??_R4bad_array_new_length@std@@6B@ 1002796c     LIBCMT:throw_bad_alloc.obj
 0002:00007980       ??_R3bad_array_new_length@std@@8 10027980     LIBCMT:throw_bad_alloc.obj
 0002:00007990       ??_R2bad_array_new_length@std@@8 10027990     LIBCMT:throw_bad_alloc.obj
 0002:000079a0       ??_R1A@?0A@EA@bad_array_new_length@std@@8 100279a0     LIBCMT:throw_bad_alloc.obj
 0002:000079bc       ??_R4type_info@@6B@        100279bc     LIBCMT:std_type_info_static.obj
 0002:000079d0       ??_R3type_info@@8          100279d0     LIBCMT:std_type_info_static.obj
 0002:000079e0       ??_R2type_info@@8          100279e0     LIBCMT:std_type_info_static.obj
 0002:000079e8       ??_R1A@?0A@EA@type_info@@8 100279e8     LIBCMT:std_type_info_static.obj
 0002:00007a04       ??_R4bad_exception@std@@6B@ 10027a04     libvcruntime:frame.obj
 0002:00007a18       ??_R3bad_exception@std@@8  10027a18     libvcruntime:frame.obj
 0002:00007a28       ??_R2bad_exception@std@@8  10027a28     libvcruntime:frame.obj
 0002:00007a34       ??_R1A@?0A@EA@bad_exception@std@@8 10027a34     libvcruntime:frame.obj
 0002:00007a50       ___safe_se_handler_table   10027a50     <linker-defined>
 0002:00007e4c       ___rtc_iaa                 10027e4c     LIBCMT:initsect.obj
 0002:00007e50       ___rtc_izz                 10027e50     LIBCMT:initsect.obj
 0002:00007e54       ___rtc_taa                 10027e54     LIBCMT:initsect.obj
 0002:00007e58       ___rtc_tzz                 10027e58     LIBCMT:initsect.obj
 0002:00007e5c       __tls_start                10027e5c     LIBCMT:tlssup.obj
 0002:00007e60       __Init_thread_epoch        10027e60     LIBCMT:thread_safe_statics.obj
 0002:00007e64       __tls_end                  10027e64     LIBCMT:tlssup.obj
 0002:00007f64       __TI2?AVbad_alloc@std@@    10027f64     LIBCMT:throw_bad_alloc.obj
 0002:00007f74       __CTA2?AVbad_alloc@std@@   10027f74     LIBCMT:throw_bad_alloc.obj
 0002:00007f80       __CT??_R0?AVbad_alloc@std@@@8??0bad_alloc@std@@QAE@ABV01@@Z12 10027f80     LIBCMT:throw_bad_alloc.obj
 0002:00007f9c       __CT??_R0?AVexception@std@@@8??0exception@std@@QAE@ABV01@@Z12 10027f9c     LIBCMT:throw_bad_alloc.obj
 0002:00007fb8       __TI3?AVbad_array_new_length@std@@ 10027fb8     LIBCMT:throw_bad_alloc.obj
 0002:00007fc8       __CTA3?AVbad_array_new_length@std@@ 10027fc8     LIBCMT:throw_bad_alloc.obj
 0002:00007fd8       __CT??_R0?AVbad_array_new_length@std@@@8??0bad_array_new_length@std@@QAE@ABV01@@Z12 10027fd8     LIBCMT:throw_bad_alloc.obj
 0002:000080fc       __TI2?AVbad_exception@std@@ 100280fc     libvcruntime:frame.obj
 0002:0000810c       __CTA2?AVbad_exception@std@@ 1002810c     libvcruntime:frame.obj
 0002:00008118       __CT??_R0?AVbad_exception@std@@@8??0bad_exception@std@@QAE@ABV01@@Z12 10028118     libvcruntime:frame.obj
 0002:00008494       ___pobjMapEntryFirst       10028494     OposVariant.obj
 0002:00008498       ___pobjMapEntryLast        10028498     OposVariant.obj
 0002:0000854c       __IMPORT_DESCRIPTOR_KERNEL32 1002854c     kernel32:KERNEL32.dll
 0002:00008560       __IMPORT_DESCRIPTOR_USER32 10028560     user32:USER32.dll
 0002:00008574       __IMPORT_DESCRIPTOR_GDI32  10028574     gdi32:GDI32.dll
 0002:00008588       __IMPORT_DESCRIPTOR_ADVAPI32 10028588     advapi32:ADVAPI32.dll
 0002:0000859c       __IMPORT_DESCRIPTOR_ole32  1002859c     ole32:ole32.dll
 0002:000085b0       __IMPORT_DESCRIPTOR_OLEAUT32 100285b0     oleaut32:OLEAUT32.dll
 0002:000085c4       __NULL_IMPORT_DESCRIPTOR   100285c4     kernel32:KERNEL32.dll
 0003:00000000       ?s_Claim@?7??GetIDsOfNames@CComTypeInfoHolder@ATL@@QAEJABU_GUID@@PAPA_WIKPAJ@Z@4PA_WA 1002a000     PointCardRW.obj
 0003:00000018       ?s_Release@?7??GetIDsOfNames@CComTypeInfoHolder@ATL@@QAEJABU_GUID@@PAPA_WIKPAJ@Z@4PA_WA 1002a018     PointCardRW.obj
 0003:00000034       ?_tih@?$IDispatchImpl@UIOPOSPointCardRW@@$1?IID_IOPOSPointCardRW@@3U_GUID@@B$1?LIBID_OposPointCardRW_CCO@@3U3@B$00$0A@VCComTypeInfoHolder@ATL@@@ATL@@1VCComTypeInfoHolder@2@A 1002a034     PointCardRW.obj
 0003:00000050       ?_tih@?$IProvideClassInfo2Impl@$1?CLSID_OPOSPointCardRW@@3U_GUID@@B$1?DIID__IOPOSPointCardRWEvents@@3U2@B$1?LIBID_OposPointCardRW_CCO@@3U2@B$00$0A@VCComTypeInfoHolder@ATL@@@ATL@@1VCComTypeInfoHolder@2@A 1002a050     PointCardRW.obj
 0003:0000006c       ?vszContents@?6??Save@?$IPersistStorageImpl@VCOPOSPointCardRW@@@ATL@@UAGJPAUIStorage@@H@Z@4PB_WB 1002a06c     PointCardRW.obj
 0003:00000070       ?wc@?1??GetWndClassInfo@?$CWindowImpl@VCOPOSPointCardRW@@VCWindow@ATL@@V?$CWinTraits@$0FGAAAAAA@$0A@@3@@ATL@@SAAAU_ATL_WNDCLASSINFOW@3@XZ@4U43@A 1002a070     PointCardRW.obj
 0003:000000fc       ?rcDefault@CWindow@ATL@@2UtagRECT@@A 1002a0fc     PointCardRW.obj
 0003:00000158       ?g_WindowName@@3PA_WA      1002a158     PointCardRWImpl.obj
 0003:00000180       ?g_ControlDescription@@3PADA 1002a180     PointCardRWImpl.obj
 0003:000001cc       ?g_ControlVersion@@3JA     1002a1cc     PointCardRWImpl.obj
 0003:0000025c       ___scrt_native_dllmain_reason 1002a25c     LIBCMT:utility.obj
 0003:00000260       __Init_global_epoch        1002a260     LIBCMT:thread_safe_statics.obj
 0003:00000270       ___security_cookie_complement 1002a270     LIBCMT:gs_cookie.obj
 0003:00000274       ___security_cookie         1002a274     LIBCMT:gs_cookie.obj
 0003:00000278       ___isa_enabled             1002a278     LIBCMT:cpu_disp.obj
 0003:00000290       __NLG_Destination          1002a290     libvcruntime:exsup.obj
 0003:000002a8       ___abort_behavior          1002a2a8     libucrt:abort.obj
 0003:000002b8       __iob                      1002a2b8     libucrt:_file.obj
 0003:00000360       ___acrt_initial_locale_data 1002a360     libucrt:nlsdata.obj
 0003:00000418       ___acrt_initial_locale_pointers 1002a418     libucrt:nlsdata.obj
 0003:00000420       ___acrt_wide_c_locale_string 1002a420     libucrt:nlsdata.obj
 0003:00000428       ___acrt_initial_multibyte_data 1002a428     libucrt:mbctype.obj
 0003:00000948       __pwctype                  1002a948     libucrt:ctype.obj
 0003:0000094c       ___globallocalestatus      1002a94c     libucrt:glstatus.obj
 0003:00000950       ___acrt_lconv_c            1002a950     libucrt:localeconv.obj
 0003:000009a0       ___acrt_lconv_static_decimal 1002a9a0     libucrt:localeconv.obj
 0003:000009a4       ___acrt_lconv_static_W_decimal 1002a9a4     libucrt:localeconv.obj
 0003:000009b0       __lookuptrailbytes         1002a9b0     libucrt:read.obj
 0003:00000ac0       __fltused                  1002aac0     LIBCMT:fltused.obj
 0003:00000ad0       ??_R0?AVbad_alloc@std@@@8  1002aad0     LIBCMT:throw_bad_alloc.obj
 0003:00000aec       ??_R0?AVexception@std@@@8  1002aaec     LIBCMT:throw_bad_alloc.obj
 0003:00000b08       ??_R0?AVbad_array_new_length@std@@@8 1002ab08     LIBCMT:throw_bad_alloc.obj
 0003:00000b30       ??_R0?AVtype_info@@@8      1002ab30     LIBCMT:std_type_info_static.obj
 0003:00000b48       ??_R0?AVbad_exception@std@@@8 1002ab48     libvcruntime:frame.obj
 0003:00000b68       ?m_bInitFailed@CAtlBaseModule@ATL@@2_NA 1002ab68     OposVariant.obj
 0003:00000b6c       ?_pPerfRegFunc@ATL@@3P6AJPAUHINSTANCE__@@@ZA 1002ab6c     OposVariant.obj
 0003:00000b70       ?_pPerfUnRegFunc@ATL@@3P6AJXZA 1002ab70     OposVariant.obj
 0003:00000b74       ?_AtlRegisterPerUser@ATL@@3_NA 1002ab74     OposVariant.obj
 0003:00000b78       ?_pAtlModule@ATL@@3PAVCAtlModule@1@A 1002ab78     OposVariant.obj
 0003:00000b7c       ?_pModule@ATL@@3PAVCComModule@1@A 1002ab7c     OposVariant.obj
 0003:00000b80       ?_AtlComModule@ATL@@3VCAtlComModule@1@A 1002ab80     OposVariant.obj
 0003:00000ba8       ?_AtlWinModule@ATL@@3VCAtlWinModule@1@A 1002aba8     OposVariant.obj
 0003:00000bd4       ?m_libid@CAtlModule@ATL@@2U_GUID@@A 1002abd4     PointCardRW.obj
 0003:00000be4       ?_entries@?1??GetConnMap@COPOSPointCardRW@@SAPBU_ATL_CONNMAP_ENTRY@ATL@@PAH@Z@4QBU34@B 1002abe4     PointCardRW.obj
 0003:00000bf0       ?$TSS0@?1??GetConnMap@COPOSPointCardRW@@SAPBU_ATL_CONNMAP_ENTRY@ATL@@PAH@Z@4HA 1002abf0     PointCardRW.obj
 0003:00000bf8       ?_OptionsStorage@?1??__local_stdio_printf_options@@9@4_KA 1002abf8     PointCardRW.obj
 0003:00000c00       ?pfnRegDeleteKeyEx@?1??DeleteSubKey@CRegKey@ATL@@QAEJPB_W@Z@4P6GJPAUHKEY__@@0KK@ZA 1002ac00     PointCardRW.obj
 0003:00000c04       ?bInitialized@?1??DeleteSubKey@CRegKey@ATL@@QAEJPB_W@Z@4_NA 1002ac04     PointCardRW.obj
 0003:00000c08       ?_Module@@3VCComModule@ATL@@A 1002ac08     PointCardRW.obj
 0003:00000c38       ?pConnMap@?$IConnectionPointContainerImpl@VCOPOSPointCardRW@@@ATL@@0PBU_ATL_CONNMAP_ENTRY@2@B 1002ac38     PointCardRW.obj
 0003:00000c3c       ?s_nInstances@COPOSPointCardRW@@1HA 1002ac3c     PointCardRWImpl.obj
 0003:00000c40       ___scrt_current_native_startup_state 1002ac40     LIBCMT:utility.obj
 0003:00000c44       ___scrt_native_startup_lock 1002ac44     LIBCMT:utility.obj
 0003:00000fac       __tls_index                1002afac     LIBCMT:tlssup.obj
 0003:00000fb4       ___isa_available           1002afb4     LIBCMT:cpu_disp.obj
 0003:00000fb8       ___favor                   1002afb8     LIBCMT:cpu_disp.obj
 0003:00000fbc       ___scrt_debugger_hook_flag 1002afbc     LIBCMT:utility_desktop.obj
 0003:00000fc0       ___castguard_check_failure_os_handled_fptr 1002afc0     LIBCMT:guard_support.obj
 0003:00000fc8       ?__type_info_root_node@@3U__type_info_node@@A 1002afc8     LIBCMT:tncleanup.obj
 0003:00000fd0       ?_OptionsStorage@?1??__local_stdio_scanf_options@@9@4_KA 1002afd0     LIBCMT:default_local_stdio_options.obj
 0003:00000fd8       ?_AtlBaseModule@ATL@@3VCAtlBaseModule@1@A 1002afd8     atls:atlbase.obj
 0003:00001010       ?__AtlThunkPool@@3PAT_SLIST_HEADER@@A 1002b010     atls:atlthunk.obj
 0003:00001028       ___@@_PchSym_@00@UztvmgUPdlipUFHUhUrmgvinvwrzgvUexgllohUzgohOmzgrevkilqPBACIAJCBDBUlyqiUcIGUhgwzucOlyq@4B2008FD98C1DD4 1002b028     atls:stdafx.obj
 0003:0000102c       ?__WinRTOutOfMemoryExceptionCallback@@3P6GPAXXZA 1002b02c     libvcruntime:ehhelpers.obj
 0003:00001030       ___pPurecall               1002b030     libvcruntime:purevirt_data.obj
 0003:00001078       ?pArgList@UnDecorator@@0PAVReplicator@@A 1002b078     libvcruntime:undname.obj
 0003:0000107c       ?pZNameList@UnDecorator@@0PAVReplicator@@A 1002b07c     libvcruntime:undname.obj
 0003:00001080       ?pTemplateArgList@UnDecorator@@0PAVReplicator@@A 1002b080     libvcruntime:undname.obj
 0003:00001084       ?gName@UnDecorator@@0PBDB  1002b084     libvcruntime:undname.obj
 0003:00001088       ?name@UnDecorator@@0PBDB   1002b088     libvcruntime:undname.obj
 0003:0000108c       ?disableFlags@UnDecorator@@0KA 1002b08c     libvcruntime:undname.obj
 0003:00001090       ?fExplicitTemplateParams@UnDecorator@@0_NA 1002b090     libvcruntime:undname.obj
 0003:00001091       ?fGetTemplateArgumentList@UnDecorator@@0_NA 1002b091     libvcruntime:undname.obj
 0003:00001094       ?m_pGetParameter@UnDecorator@@0P6APADJ@ZA 1002b094     libvcruntime:undname.obj
 0003:00001098       ?m_CHPENameOffset@UnDecorator@@0KA 1002b098     libvcruntime:undname.obj
 0003:0000109c       ?m_recursionLevel@UnDecorator@@0KA 1002b09c     libvcruntime:undname.obj
 0003:000010e0       ?c_exit_complete@?1???R<lambda_6e4b09c48022b2350581041d5f6b0c4c>@@QBE@XZ@4_NA 1002b0e0     libucrt:exit.obj
 0003:000011f0       __environ_table            1002b1f0     libucrt:environment_initialization.obj
 0003:000011f4       __wenviron_table           1002b1f4     libucrt:environment_initialization.obj
 0003:000011f8       ___dcrt_initial_wide_environment 1002b1f8     libucrt:environment_initialization.obj
 0003:000011fc       ___dcrt_initial_narrow_environment 1002b1fc     libucrt:environment_initialization.obj
 0003:00001200       ___acrt_atexit_table       1002b200     libucrt:onexit.obj
 0003:0000120c       ___acrt_at_quick_exit_table 1002b20c     libucrt:onexit.obj
 0003:00001300       __nstream                  1002b300     libucrt:_file.obj
 0003:00001304       ___piob                    1002b304     libucrt:_file.obj
 0003:0000130c       ___acrt_stdout_buffer      1002b30c     libucrt:_sftbuf.obj
 0003:00001310       ___acrt_stderr_buffer      1002b310     libucrt:_sftbuf.obj
 0003:00001314       ___acrt_locale_changed_data 1002b314     libucrt:wsetlocale.obj
 0003:00001318       ___acrt_current_locale_data 1002b318     libucrt:nlsdata.obj
 0003:00001320       ___pioinfo                 1002b320     libucrt:ioinit.obj
 0003:00001520       __nhandle                  1002b520     libucrt:ioinit.obj
 0003:0000167c       __mbctype                  1002b67c     libucrt:mbctype.obj
 0003:00001680       __mbcasemap                1002b680     libucrt:mbctype.obj
 0003:00001684       ___acrt_current_multibyte_data 1002b684     libucrt:mbctype.obj
 0003:00001690       __pgmptr                   1002b690     libucrt:argv_data.obj
 0003:00001694       ___argc                    1002b694     libucrt:argv_data.obj
 0003:00001698       ___argv                    1002b698     libucrt:argv_data.obj
 0003:0000169c       ___wargv                   1002b69c     libucrt:argv_data.obj
 0003:000016a0       __acmdln                   1002b6a0     libucrt:argv_data.obj
 0003:000016a4       __wcmdln                   1002b6a4     libucrt:argv_data.obj
 0003:000016a8       ___acrt_heap               1002b6a8     libucrt:heap_handle.obj
 0003:000016c4       ___acrt_lconv_static_null  1002b6c4     libucrt:localeconv.obj
 0003:000016c8       ___acrt_lconv_static_W_null 1002b6c8     libucrt:localeconv.obj
 0003:000016d8       ___fastflag                1002b6d8     libucrt:fp_flags.obj
 0003:000016e0       ___dyn_tls_init_callback   1002b6e0     <common>
 0003:000016e4       ___scrt_ucrt_dll_is_in_use 1002b6e4     <common>
 0003:000016e8       __pmatherr                 1002b6e8     <common>
 0003:000016ec       ___use_sse2_mathfcns       1002b6ec     <common>

 entry point at        0001:0000c71d

 Static symbols

 0000:fffcb000       .debug$S                   10000000     OPOSPointCardRW.exp
 0000:fffcb000       .debug$S                   10000000     advapi32:ADVAPI32.dll
 0000:fffcb000       .debug$S                   10000000     advapi32:ADVAPI32.dll
 0000:fffcb000       .debug$S                   10000000     advapi32:ADVAPI32.dll
 0000:fffcb000       .debug$S                   10000000     advapi32:ADVAPI32.dll
 0000:fffcb000       .debug$S                   10000000     advapi32:ADVAPI32.dll
 0000:fffcb000       .debug$S                   10000000     advapi32:ADVAPI32.dll
 0000:fffcb000       .debug$S                   10000000     advapi32:ADVAPI32.dll
 0000:fffcb000       .debug$S                   10000000     advapi32:ADVAPI32.dll
 0000:fffcb000       .debug$S                   10000000     advapi32:ADVAPI32.dll
 0000:fffcb000       .debug$S                   10000000     gdi32:GDI32.dll
 0000:fffcb000       .debug$S                   10000000     gdi32:GDI32.dll
 0000:fffcb000       .debug$S                   10000000     gdi32:GDI32.dll
 0000:fffcb000       .debug$S                   10000000     gdi32:GDI32.dll
 0000:fffcb000       .debug$S                   10000000     gdi32:GDI32.dll
 0000:fffcb000       .debug$S                   10000000     gdi32:GDI32.dll
 0000:fffcb000       .debug$S                   10000000     gdi32:GDI32.dll
 0000:fffcb000       .debug$S                   10000000     gdi32:GDI32.dll
 0000:fffcb000       .debug$S                   10000000     gdi32:GDI32.dll
 0000:fffcb000       .debug$S                   10000000     gdi32:GDI32.dll
 0000:fffcb000       .debug$S                   10000000     gdi32:GDI32.dll
 0000:fffcb000       .debug$S                   10000000     gdi32:GDI32.dll
 0000:fffcb000       .debug$S                   10000000     gdi32:GDI32.dll
 0000:fffcb000       .debug$S                   10000000     gdi32:GDI32.dll
 0000:fffcb000       .debug$S                   10000000     gdi32:GDI32.dll
 0000:fffcb000       .debug$S                   10000000     gdi32:GDI32.dll
 0000:fffcb000       .debug$S                   10000000     gdi32:GDI32.dll
 0000:fffcb000       .debug$S                   10000000     gdi32:GDI32.dll
 0000:fffcb000       .debug$S                   10000000     gdi32:GDI32.dll
 0000:fffcb000       .debug$S                   10000000     kernel32:KERNEL32.dll
 0000:fffcb000       .debug$S                   10000000     kernel32:KERNEL32.dll
 0000:fffcb000       .debug$S                   10000000     kernel32:KERNEL32.dll
 0000:fffcb000       .debug$S                   10000000     kernel32:KERNEL32.dll
 0000:fffcb000       .debug$S                   10000000     kernel32:KERNEL32.dll
 0000:fffcb000       .debug$S                   10000000     kernel32:KERNEL32.dll
 0000:fffcb000       .debug$S                   10000000     kernel32:KERNEL32.dll
 0000:fffcb000       .debug$S                   10000000     kernel32:KERNEL32.dll
 0000:fffcb000       .debug$S                   10000000     kernel32:KERNEL32.dll
 0000:fffcb000       .debug$S                   10000000     kernel32:KERNEL32.dll
 0000:fffcb000       .debug$S                   10000000     kernel32:KERNEL32.dll
 0000:fffcb000       .debug$S                   10000000     kernel32:KERNEL32.dll
 0000:fffcb000       .debug$S                   10000000     kernel32:KERNEL32.dll
 0000:fffcb000       .debug$S                   10000000     kernel32:KERNEL32.dll
 0000:fffcb000       .debug$S                   10000000     kernel32:KERNEL32.dll
 0000:fffcb000       .debug$S                   10000000     kernel32:KERNEL32.dll
 0000:fffcb000       .debug$S                   10000000     kernel32:KERNEL32.dll
 0000:fffcb000       .debug$S                   10000000     kernel32:KERNEL32.dll
 0000:fffcb000       .debug$S                   10000000     kernel32:KERNEL32.dll
 0000:fffcb000       .debug$S                   10000000     kernel32:KERNEL32.dll
 0000:fffcb000       .debug$S                   10000000     kernel32:KERNEL32.dll
 0000:fffcb000       .debug$S                   10000000     kernel32:KERNEL32.dll
 0000:fffcb000       .debug$S                   10000000     kernel32:KERNEL32.dll
 0000:fffcb000       .debug$S                   10000000     kernel32:KERNEL32.dll
 0000:fffcb000       .debug$S                   10000000     kernel32:KERNEL32.dll
 0000:fffcb000       .debug$S                   10000000     kernel32:KERNEL32.dll
 0000:fffcb000       .debug$S                   10000000     kernel32:KERNEL32.dll
 0000:fffcb000       .debug$S                   10000000     kernel32:KERNEL32.dll
 0000:fffcb000       .debug$S                   10000000     kernel32:KERNEL32.dll
 0000:fffcb000       .debug$S                   10000000     kernel32:KERNEL32.dll
 0000:fffcb000       .debug$S                   10000000     kernel32:KERNEL32.dll
 0000:fffcb000       .debug$S                   10000000     kernel32:KERNEL32.dll
 0000:fffcb000       .debug$S                   10000000     kernel32:KERNEL32.dll
 0000:fffcb000       .debug$S                   10000000     kernel32:KERNEL32.dll
 0000:fffcb000       .debug$S                   10000000     kernel32:KERNEL32.dll
 0000:fffcb000       .debug$S                   10000000     kernel32:KERNEL32.dll
 0000:fffcb000       .debug$S                   10000000     kernel32:KERNEL32.dll
 0000:fffcb000       .debug$S                   10000000     kernel32:KERNEL32.dll
 0000:fffcb000       .debug$S                   10000000     kernel32:KERNEL32.dll
 0000:fffcb000       .debug$S                   10000000     kernel32:KERNEL32.dll
 0000:fffcb000       .debug$S                   10000000     kernel32:KERNEL32.dll
 0000:fffcb000       .debug$S                   10000000     kernel32:KERNEL32.dll
 0000:fffcb000       .debug$S                   10000000     kernel32:KERNEL32.dll
 0000:fffcb000       .debug$S                   10000000     kernel32:KERNEL32.dll
 0000:fffcb000       .debug$S                   10000000     kernel32:KERNEL32.dll
 0000:fffcb000       .debug$S                   10000000     kernel32:KERNEL32.dll
 0000:fffcb000       .debug$S                   10000000     kernel32:KERNEL32.dll
 0000:fffcb000       .debug$S                   10000000     kernel32:KERNEL32.dll
 0000:fffcb000       .debug$S                   10000000     kernel32:KERNEL32.dll
 0000:fffcb000       .debug$S                   10000000     kernel32:KERNEL32.dll
 0000:fffcb000       .debug$S                   10000000     kernel32:KERNEL32.dll
 0000:fffcb000       .debug$S                   10000000     kernel32:KERNEL32.dll
 0000:fffcb000       .debug$S                   10000000     kernel32:KERNEL32.dll
 0000:fffcb000       .debug$S                   10000000     kernel32:KERNEL32.dll
 0000:fffcb000       .debug$S                   10000000     kernel32:KERNEL32.dll
 0000:fffcb000       .debug$S                   10000000     kernel32:KERNEL32.dll
 0000:fffcb000       .debug$S                   10000000     kernel32:KERNEL32.dll
 0000:fffcb000       .debug$S                   10000000     kernel32:KERNEL32.dll
 0000:fffcb000       .debug$S                   10000000     kernel32:KERNEL32.dll
 0000:fffcb000       .debug$S                   10000000     kernel32:KERNEL32.dll
 0000:fffcb000       .debug$S                   10000000     kernel32:KERNEL32.dll
 0000:fffcb000       .debug$S                   10000000     kernel32:KERNEL32.dll
 0000:fffcb000       .debug$S                   10000000     kernel32:KERNEL32.dll
 0000:fffcb000       .debug$S                   10000000     kernel32:KERNEL32.dll
 0000:fffcb000       .debug$S                   10000000     kernel32:KERNEL32.dll
 0000:fffcb000       .debug$S                   10000000     kernel32:KERNEL32.dll
 0000:fffcb000       .debug$S                   10000000     kernel32:KERNEL32.dll
 0000:fffcb000       .debug$S                   10000000     kernel32:KERNEL32.dll
 0000:fffcb000       .debug$S                   10000000     kernel32:KERNEL32.dll
 0000:fffcb000       .debug$S                   10000000     kernel32:KERNEL32.dll
 0000:fffcb000       .debug$S                   10000000     kernel32:KERNEL32.dll
 0000:fffcb000       .debug$S                   10000000     kernel32:KERNEL32.dll
 0000:fffcb000       .debug$S                   10000000     kernel32:KERNEL32.dll
 0000:fffcb000       .debug$S                   10000000     kernel32:KERNEL32.dll
 0000:fffcb000       .debug$S                   10000000     kernel32:KERNEL32.dll
 0000:fffcb000       .debug$S                   10000000     kernel32:KERNEL32.dll
 0000:fffcb000       .debug$S                   10000000     kernel32:KERNEL32.dll
 0000:fffcb000       .debug$S                   10000000     kernel32:KERNEL32.dll
 0000:fffcb000       .debug$S                   10000000     kernel32:KERNEL32.dll
 0000:fffcb000       .debug$S                   10000000     kernel32:KERNEL32.dll
 0000:fffcb000       .debug$S                   10000000     kernel32:KERNEL32.dll
 0000:fffcb000       .debug$S                   10000000     kernel32:KERNEL32.dll
 0000:fffcb000       .debug$S                   10000000     kernel32:KERNEL32.dll
 0000:fffcb000       .debug$S                   10000000     kernel32:KERNEL32.dll
 0000:fffcb000       .debug$S                   10000000     kernel32:KERNEL32.dll
 0000:fffcb000       .debug$S                   10000000     kernel32:KERNEL32.dll
 0000:fffcb000       .debug$S                   10000000     kernel32:KERNEL32.dll
 0000:fffcb000       .debug$S                   10000000     kernel32:KERNEL32.dll
 0000:fffcb000       .debug$S                   10000000     kernel32:KERNEL32.dll
 0000:fffcb000       .debug$S                   10000000     kernel32:KERNEL32.dll
 0000:fffcb000       .debug$S                   10000000     kernel32:KERNEL32.dll
 0000:fffcb000       .debug$S                   10000000     kernel32:KERNEL32.dll
 0000:fffcb000       .debug$S                   10000000     kernel32:KERNEL32.dll
 0000:fffcb000       .debug$S                   10000000     kernel32:KERNEL32.dll
 0000:fffcb000       .debug$S                   10000000     kernel32:KERNEL32.dll
 0000:fffcb000       .debug$S                   10000000     kernel32:KERNEL32.dll
 0000:fffcb000       .debug$S                   10000000     kernel32:KERNEL32.dll
 0000:fffcb000       .debug$S                   10000000     kernel32:KERNEL32.dll
 0000:fffcb000       .debug$S                   10000000     kernel32:KERNEL32.dll
 0000:fffcb000       .debug$S                   10000000     kernel32:KERNEL32.dll
 0000:fffcb000       .debug$S                   10000000     kernel32:KERNEL32.dll
 0000:fffcb000       .debug$S                   10000000     kernel32:KERNEL32.dll
 0000:fffcb000       .debug$S                   10000000     kernel32:KERNEL32.dll
 0000:fffcb000       .debug$S                   10000000     kernel32:KERNEL32.dll
 0000:fffcb000       .debug$S                   10000000     kernel32:KERNEL32.dll
 0000:fffcb000       .debug$S                   10000000     kernel32:KERNEL32.dll
 0000:fffcb000       .debug$S                   10000000     ole32:ole32.dll
 0000:fffcb000       .debug$S                   10000000     ole32:ole32.dll
 0000:fffcb000       .debug$S                   10000000     ole32:ole32.dll
 0000:fffcb000       .debug$S                   10000000     ole32:ole32.dll
 0000:fffcb000       .debug$S                   10000000     ole32:ole32.dll
 0000:fffcb000       .debug$S                   10000000     ole32:ole32.dll
 0000:fffcb000       .debug$S                   10000000     ole32:ole32.dll
 0000:fffcb000       .debug$S                   10000000     ole32:ole32.dll
 0000:fffcb000       .debug$S                   10000000     ole32:ole32.dll
 0000:fffcb000       .debug$S                   10000000     ole32:ole32.dll
 0000:fffcb000       .debug$S                   10000000     ole32:ole32.dll
 0000:fffcb000       .debug$S                   10000000     ole32:ole32.dll
 0000:fffcb000       .debug$S                   10000000     ole32:ole32.dll
 0000:fffcb000       .debug$S                   10000000     ole32:ole32.dll
 0000:fffcb000       .debug$S                   10000000     oleaut32:OLEAUT32.dll
 0000:fffcb000       .debug$S                   10000000     oleaut32:OLEAUT32.dll
 0000:fffcb000       .debug$S                   10000000     oleaut32:OLEAUT32.dll
 0000:fffcb000       .debug$S                   10000000     oleaut32:OLEAUT32.dll
 0000:fffcb000       .debug$S                   10000000     oleaut32:OLEAUT32.dll
 0000:fffcb000       .debug$S                   10000000     oleaut32:OLEAUT32.dll
 0000:fffcb000       .debug$S                   10000000     oleaut32:OLEAUT32.dll
 0000:fffcb000       .debug$S                   10000000     oleaut32:OLEAUT32.dll
 0000:fffcb000       .debug$S                   10000000     oleaut32:OLEAUT32.dll
 0000:fffcb000       .debug$S                   10000000     oleaut32:OLEAUT32.dll
 0000:fffcb000       .debug$S                   10000000     oleaut32:OLEAUT32.dll
 0000:fffcb000       .debug$S                   10000000     oleaut32:OLEAUT32.dll
 0000:fffcb000       .debug$S                   10000000     oleaut32:OLEAUT32.dll
 0000:fffcb000       .debug$S                   10000000     oleaut32:OLEAUT32.dll
 0000:fffcb000       .debug$S                   10000000     oleaut32:OLEAUT32.dll
 0000:fffcb000       .debug$S                   10000000     oleaut32:OLEAUT32.dll
 0000:fffcb000       .debug$S                   10000000     user32:USER32.dll
 0000:fffcb000       .debug$S                   10000000     user32:USER32.dll
 0000:fffcb000       .debug$S                   10000000     user32:USER32.dll
 0000:fffcb000       .debug$S                   10000000     user32:USER32.dll
 0000:fffcb000       .debug$S                   10000000     user32:USER32.dll
 0000:fffcb000       .debug$S                   10000000     user32:USER32.dll
 0000:fffcb000       .debug$S                   10000000     user32:USER32.dll
 0000:fffcb000       .debug$S                   10000000     user32:USER32.dll
 0000:fffcb000       .debug$S                   10000000     user32:USER32.dll
 0000:fffcb000       .debug$S                   10000000     user32:USER32.dll
 0000:fffcb000       .debug$S                   10000000     user32:USER32.dll
 0000:fffcb000       .debug$S                   10000000     user32:USER32.dll
 0000:fffcb000       .debug$S                   10000000     user32:USER32.dll
 0000:fffcb000       .debug$S                   10000000     user32:USER32.dll
 0000:fffcb000       .debug$S                   10000000     user32:USER32.dll
 0000:fffcb000       .debug$S                   10000000     user32:USER32.dll
 0000:fffcb000       .debug$S                   10000000     user32:USER32.dll
 0000:fffcb000       .debug$S                   10000000     user32:USER32.dll
 0000:fffcb000       .debug$S                   10000000     user32:USER32.dll
 0000:fffcb000       .debug$S                   10000000     user32:USER32.dll
 0000:fffcb000       .debug$S                   10000000     user32:USER32.dll
 0000:fffcb000       .debug$S                   10000000     user32:USER32.dll
 0000:fffcb000       .debug$S                   10000000     user32:USER32.dll
 0000:fffcb000       .debug$S                   10000000     user32:USER32.dll
 0000:fffcb000       .debug$S                   10000000     user32:USER32.dll
 0000:fffcb000       .debug$S                   10000000     user32:USER32.dll
 0000:fffcb000       .debug$S                   10000000     user32:USER32.dll
 0000:fffcb000       .debug$S                   10000000     user32:USER32.dll
 0000:fffcb000       .debug$S                   10000000     user32:USER32.dll
 0000:fffcb000       .debug$S                   10000000     user32:USER32.dll
 0000:fffcb000       .debug$S                   10000000     user32:USER32.dll
 0000:fffcb000       .debug$S                   10000000     user32:USER32.dll
 0000:fffcb000       .debug$S                   10000000     user32:USER32.dll
 0000:fffcb000       .debug$S                   10000000     user32:USER32.dll
 0000:fffcb000       .debug$S                   10000000     user32:USER32.dll
 0001:00000000       ??__E_AtlComModule@ATL@@YAXXZ 10001000 f   OposVariant.obj
 0001:00000016       ??__E_AtlWinModule@ATL@@YAXXZ 10001016 f   OposVariant.obj
 0001:0000002c       ??__E?pConnMap@?$IConnectionPointContainerImpl@VCOPOSPointCardRW@@@ATL@@0PBU_ATL_CONNMAP_ENTRY@2@B@@YAXXZ 1000102c f   PointCardRW.obj
 0001:0000003a       ??__E_Module@@YAXXZ        1000103a f   PointCardRW.obj
 0001:00000064       ??__E_AtlBaseModule@ATL@@YAXXZ 10001064 f   atls:atlbase.obj
 0001:0000102e       $LN24                      1000202e     PointCardRW.obj
 0001:00005981       $LN48                      10006981     PointCardRW.obj
 0001:00005999       $LN47                      10006999     PointCardRW.obj
 0001:00007b44       $LN38                      10008b44     PointCardRW.obj
 0001:00007b5c       $LN37                      10008b5c     PointCardRW.obj
 0001:0000924c       $LN76                      1000a24c     PointCardRW.obj
 0001:00009264       $LN75                      1000a264     PointCardRW.obj
 0001:0000961d       _memcpy_s                  1000a61d f   PointCardRW.obj
 0001:0000bbac       ?find_pe_section@@YAPAU_IMAGE_SECTION_HEADER@@QAEI@Z 1000cbac f   LIBCMT:utility.obj
 0001:0000becb       ?__scrt_initialize_thread_safe_statics@@YAHXZ 1000cecb f   LIBCMT:thread_safe_statics.obj
 0001:0000bef2       ?__scrt_initialize_thread_safe_statics_platform_specific@@YAXXZ 1000cef2 f   LIBCMT:thread_safe_statics.obj
 0001:0000bf74       ?__scrt_uninitialize_thread_safe_statics@@YAXXZ 1000cf74 f   LIBCMT:thread_safe_statics.obj
 0001:0000c2e3       __catch$??2@YAPAXIABUnothrow_t@std@@@Z$0 1000d2e3 f   LIBCMT:new_scalar_nothrow.obj
 0001:0000c320       $$000000                   1000d320     LIBCMT:sehprolg4gs.obj
 0001:0000c380       $$000000                   1000d380     LIBCMT:alloca16.obj
 0001:0000c3b0       $$000000                   1000d3b0     LIBCMT:chkstk.obj
 0001:0000c3dd       ?dllmain_crt_dispatch@@YGHQAUHINSTANCE__@@KQAX@Z 1000d3dd f   LIBCMT:dll_dllmain.obj
 0001:0000c430       ?dllmain_crt_process_attach@@YAHQAUHINSTANCE__@@QAX@Z 1000d430 f   LIBCMT:dll_dllmain.obj
 0001:0000c537       ?dllmain_crt_process_detach@@YAH_N@Z 1000d537 f   LIBCMT:dll_dllmain.obj
 0001:0000c5e7       ?dllmain_dispatch@@YAHQAUHINSTANCE__@@KQAX@Z 1000d5e7 f   LIBCMT:dll_dllmain.obj
 0001:0000c6f2       ?dllmain_raw@@YGHQAUHINSTANCE__@@KQAX@Z 1000d6f2 f   LIBCMT:dll_dllmain.obj
 0001:0000ca70       $$000000                   1000da70     LIBCMT:sehprolg4.obj
 0001:0000cacb       ___get_entropy             1000dacb f   LIBCMT:gs_support.obj
 0001:0000cdc2       ??$GetProcAddressAll@P6GP6GJPAUHWND__@@IIJ@ZPAUAtlThunkData_t@@@Z@@YAP6GP6GJPAUHWND__@@IIJ@ZPAUAtlThunkData_t@@@ZPAP6GP6GJ0IIJ@Z1@Z@Z 1000ddc2 f   atls:atlthunk.obj
 0001:0000cdc2       ??$GetProcAddressAll@P6GPAUAtlThunkData_t@@XZ@@YAP6GPAUAtlThunkData_t@@XZPAP6GPAU0@XZ@Z 1000ddc2 f   atls:atlthunk.obj
 0001:0000cdc2       ??$GetProcAddressAll@P6GXPAUAtlThunkData_t@@@Z@@YAP6GXPAUAtlThunkData_t@@@ZPAP6GX0@Z@Z 1000ddc2 f   atls:atlthunk.obj
 0001:0000cdc2       ??$GetProcAddressAll@P6GXPAUAtlThunkData_t@@PAXI@Z@@YAP6GXPAUAtlThunkData_t@@PAXI@ZPAP6GX01I@Z@Z 1000ddc2 f   atls:atlthunk.obj
 0001:0000ce72       ?GetProcAddressSingle@@YA_NPAUHINSTANCE__@@PBDPAPAX@Z 1000de72 f   atls:atlthunk.obj
 0001:0000cfc4       ?__InitializeThunkPool@@YAHXZ 1000dfc4 f   atls:atlthunk.obj
 0001:0000d410       _ValidateLocalCookies      1000e410 f   libvcruntime:chandler4.obj
 0001:0000e43a       $LN1250                    1000f43a     libvcruntime:memcmp.obj
 0001:0000e4c0       $$000000                   1000f4c0     libvcruntime:memcpy.obj
 0001:0000e724       TrailingUpVec              1000f724     libvcruntime:memcpy.obj
 0001:0000e7d0       TrailingDownVec            1000f7d0     libvcruntime:memcpy.obj
 0001:0000ea40       $$000000                   1000fa40     libvcruntime:memset.obj
 0001:0000f043       ?_FilterSetCurrentException@@YAKPAU_EXCEPTION_POINTERS@@E@Z 10010043 f   libvcruntime:ehhelpers.obj
 0001:0000f290       $$000000                   10010290     libvcruntime:memmove.obj
 0001:0000f4f4       TrailingUpVec              100104f4     libvcruntime:memmove.obj
 0001:0000f5a0       TrailingDownVec            100105a0     libvcruntime:memmove.obj
 0001:0000f810       $$000000                   10010810     libvcruntime:exsup4.obj
 0001:0000f89d       __unwind_handler4          1001089d f   libvcruntime:exsup4.obj
 0001:0000fb7b       ??$BuildCatchObjectHelperInternal@V__FrameHandler3@@@@YAHPAUEHExceptionRecord@@PAXPBU_s_HandlerType@@PBU_s_CatchableType@@@Z 10010b7b f   libvcruntime:frame.obj
 0001:0000fcb9       ??$BuildCatchObjectInternal@V__FrameHandler3@@@@YAXPAUEHExceptionRecord@@PAXPBU_s_HandlerType@@PBU_s_CatchableType@@@Z 10010cb9 f   libvcruntime:frame.obj
 0001:0000fd52       ??$CatchIt@V__FrameHandler3@@@@YAXPAUEHExceptionRecord@@PAUEHRegistrationNode@@PAU_CONTEXT@@PAXPBU_s_FuncInfo@@PBU_s_HandlerType@@PBU_s_CatchableType@@PBU_s_TryBlockMapEntry@@H1EE@Z 10010d52 f   libvcruntime:frame.obj
 0001:0000fdd2       ??$FindHandler@V__FrameHandler3@@@@YAXPAUEHExceptionRecord@@PAUEHRegistrationNode@@PAU_CONTEXT@@PAXPBU_s_FuncInfo@@EH1@Z 10010dd2 f   libvcruntime:frame.obj
 0001:00010188       ??$FindHandlerForForeignException@V__FrameHandler3@@@@YAXPAUEHExceptionRecord@@PAUEHRegistrationNode@@PAU_CONTEXT@@PAXPBU_s_FuncInfo@@HH1@Z 10011188 f   libvcruntime:frame.obj
 0001:000104a0       ?CallCatchBlock@@YAPAXPAUEHExceptionRecord@@PAUEHRegistrationNode@@PAU_CONTEXT@@PBU_s_FuncInfo@@PAXHK@Z 100114a0 f   libvcruntime:frame.obj
 0001:00010664       ?CallUnexpected@@YAXPBU_s_ESTypeList@@@Z 10011664 f   libvcruntime:frame.obj
 0001:00010684       __catch$?CallUnexpected@@YAXPBU_s_ESTypeList@@@Z$0 10011684 f   libvcruntime:frame.obj
 0001:000106a3       ?ExFilterRethrow@@YAHPAU_EXCEPTION_POINTERS@@@Z 100116a3 f   libvcruntime:frame.obj
 0001:000107ed       ?IsInExceptionSpec@@YAEPAUEHExceptionRecord@@PBU_s_ESTypeList@@@Z 100117ed f   libvcruntime:frame.obj
 0001:000108c0       $$000000                   100118c0     libvcruntime:lowhelpr.obj
 0001:00010910       $$000000                   10011910     libvcruntime:exsup.obj
 0001:00010931       __unwind_handler           10011931 f   libvcruntime:exsup.obj
 0001:00010a4e       ?try_get_first_available_module@@YAPAUHINSTANCE__@@QBW4module_id@?A0xb97aeec8@@0@Z 10011a4e f   libvcruntime:winapi_downlevel.obj
 0001:00010ae8       ?try_get_function@@YAPAXW4function_id@?A0xb97aeec8@@QBDQBW4module_id@2@2@Z 10011ae8 f   libvcruntime:winapi_downlevel.obj
 0001:00011172       ??$common_tcsncpy_s@_W@@YAHQA_WIQB_WI@Z 10012172 f   libucrt:wcsncpy_s.obj
 0001:00011248       ??$common_vsprintf@Vformat_validation_base@__crt_stdio_output@@_W@@YAH_KQA_WIQB_WQAU__crt_locale_pointers@@QAD@Z 10012248 f   libucrt:output.obj
 0001:000113cf       ??$common_vsprintf_s@_W@@YAH_KQA_WIQB_WQAU__crt_locale_pointers@@QAD@Z 100123cf f   libucrt:output.obj
 0001:00011b33       $LN48                      10012b33     libucrt:output.obj
 0001:0001203c       $LN18                      1001303c     libucrt:output.obj
 0001:00012050       $LN17                      10013050     libucrt:output.obj
 0001:000128ab       ??$?RV<lambda_03b1d95aef87969028cfba75ccab2455>@@AAV<lambda_6e4b09c48022b2350581041d5f6b0c4c>@@V<lambda_22bdf7517842c4b3e53723af5aa32b9e>@@@?$__crt_seh_guarded_call@X@@QAEX$$QAV<lambda_03b1d95aef87969028cfba75ccab2455>@@AAV<lambda_6e4b09c48022b2350581041d5f6b0c4c>@@$$QAV<lambda_22bdf7517842c4b3e53723af5aa32b9e>@@@Z 100138ab f   libucrt:exit.obj
 0001:000128f8       ??R<lambda_6e4b09c48022b2350581041d5f6b0c4c>@@QBE@XZ 100138f8 f   libucrt:exit.obj
 0001:000129d2       ?atexit_exception_filter@@YAHK@Z 100139d2 f   libucrt:exit.obj
 0001:000129e5       ?common_exit@@YAXHW4_crt_exit_cleanup_mode@@W4_crt_exit_return_mode@@@Z 100139e5 f   libucrt:exit.obj
 0001:00012a49       ?exit_or_terminate_process@@YAXI@Z 10013a49 f   libucrt:exit.obj
 0001:00012a8b       ?is_managed_app@@YA_NXZ    10013a8b f   libucrt:exit.obj
 0001:00012ace       ?try_cor_exit_process@@YAXI@Z 10013ace f   libucrt:exit.obj
 0001:00012b5c       ??$common_configure_argv@D@@YAHW4_crt_argv_mode@@@Z 10013b5c f   libucrt:argv_parsing.obj
 0001:00012c92       ??$parse_command_line@D@@YAXPADPAPAD0PAI2@Z 10013c92 f   libucrt:argv_parsing.obj
 0001:00012e60       ??$common_initialize_environment_nolock@D@@YAHXZ 10013e60 f   libucrt:environment_initialization.obj
 0001:00012eb3       ??$create_environment@D@@YAQAPADQAD@Z 10013eb3 f   libucrt:environment_initialization.obj
 0001:00012f83       ??$free_environment@D@@YAXQAPAD@Z 10013f83 f   libucrt:environment_initialization.obj
 0001:00012f83       ??$free_environment@_W@@YAXQAPA_W@Z 10013f83 f   libucrt:environment_initialization.obj
 0001:00012fdb       ??$uninitialize_environment_internal@D@@YAXAAPAPAD@Z 10013fdb f   libucrt:environment_initialization.obj
 0001:00012ff6       ??$uninitialize_environment_internal@_W@@YAXAAPAPA_W@Z 10013ff6 f   libucrt:environment_initialization.obj
 0001:0001304d       ??$?RV<lambda_69a2805e680e0e292e8ba93315fe43a8>@@AAV<lambda_f03950bc5685219e0bcd2087efbe011e>@@V<lambda_03fcd07e894ec930e3f35da366ca99d6>@@@?$__crt_seh_guarded_call@H@@QAEH$$QAV<lambda_69a2805e680e0e292e8ba93315fe43a8>@@AAV<lambda_f03950bc5685219e0bcd2087efbe011e>@@$$QAV<lambda_03fcd07e894ec930e3f35da366ca99d6>@@@Z 1001404d f   libucrt:onexit.obj
 0001:000130a8       ??$?RV<lambda_8e746cf0007f6ed984d6f78af1fec997>@@AAV<lambda_22ebabd17bc4fa466a2aca6d8deb888d>@@V<lambda_18ed0c0b38a6dc0daf1e7ac6d6adf05e>@@@?$__crt_seh_guarded_call@H@@QAEH$$QAV<lambda_8e746cf0007f6ed984d6f78af1fec997>@@AAV<lambda_22ebabd17bc4fa466a2aca6d8deb888d>@@$$QAV<lambda_18ed0c0b38a6dc0daf1e7ac6d6adf05e>@@@Z 100140a8 f   libucrt:onexit.obj
 0001:00013122       ??R<lambda_22ebabd17bc4fa466a2aca6d8deb888d>@@QBEHXZ 10014122 f   libucrt:onexit.obj
 0001:0001324b       ??R<lambda_f03950bc5685219e0bcd2087efbe011e>@@QBEHXZ 1001424b f   libucrt:onexit.obj
 0001:000133c4       _initialize_global_variables 100143c4 f   libucrt:initialization.obj
 0001:000133d1       _initialize_c              100143d1 f   libucrt:initialization.obj
 0001:000133eb       _initialize_environment    100143eb f   libucrt:initialization.obj
 0001:000133eb       _initialize_global_state_isolation 100143eb f   libucrt:initialization.obj
 0001:000133eb       _report_memory_leaks       100143eb f   libucrt:initialization.obj
 0001:000133eb       _uninitialize_c            100143eb f   libucrt:initialization.obj
 0001:000133eb       _uninitialize_global_state_isolation 100143eb f   libucrt:initialization.obj
 0001:000133ee       _uninitialize_environment  100143ee f   libucrt:initialization.obj
 0001:000133f6       _initialize_pointers       100143f6 f   libucrt:initialization.obj
 0001:00013424       _uninitialize_vcruntime    10014424 f   libucrt:initialization.obj
 0001:0001342d       _uninitialize_allocated_memory 1001442d f   libucrt:initialization.obj
 0001:00013444       _uninitialize_allocated_io_buffers 10014444 f   libucrt:initialization.obj
 0001:00013494       ??R<lambda_af42a3ee9806e9a7305d451646e05244>@@QBEXAAPAU__crt_multibyte_data@@@Z 10014494 f   libucrt:initialization.obj
 0001:00013d80       $$000000                   10014d80     libucrt:strncmp.obj
 0001:00013e6c       ??$?RV<lambda_15ade71b0218206bbe3333a0c9b79046>@@AAV<lambda_da44e0f8b0f19ba52fefafb335991732>@@V<lambda_207f2d024fc103971653565357d6cd41>@@@?$__crt_seh_guarded_call@X@@QAEX$$QAV<lambda_15ade71b0218206bbe3333a0c9b79046>@@AAV<lambda_da44e0f8b0f19ba52fefafb335991732>@@$$QAV<lambda_207f2d024fc103971653565357d6cd41>@@@Z 10014e6c f   libucrt:per_thread_data.obj
 0001:00013ebe       ??$?RV<lambda_38edbb1296d33220d7e4dd0ed76b244a>@@AAV<lambda_5ce1d447e08cb34b2473517608e21441>@@V<lambda_fb385d3da700c9147fc39e65dd577a8c>@@@?$__crt_seh_guarded_call@X@@QAEX$$QAV<lambda_38edbb1296d33220d7e4dd0ed76b244a>@@AAV<lambda_5ce1d447e08cb34b2473517608e21441>@@$$QAV<lambda_fb385d3da700c9147fc39e65dd577a8c>@@@Z 10014ebe f   libucrt:per_thread_data.obj
 0001:00013f29       ??$?RV<lambda_6affb1475c98b40b75cdec977db92e3c>@@AAV<lambda_b8d4b9c228a6ecc3f80208dbb4b4a104>@@V<lambda_608742c3c92a14382c1684fc64f96c88>@@@?$__crt_seh_guarded_call@X@@QAEX$$QAV<lambda_6affb1475c98b40b75cdec977db92e3c>@@AAV<lambda_b8d4b9c228a6ecc3f80208dbb4b4a104>@@$$QAV<lambda_608742c3c92a14382c1684fc64f96c88>@@@Z 10014f29 f   libucrt:per_thread_data.obj
 0001:00013f7e       ??$?RV<lambda_a7e850c220f1c8d1e6efeecdedd162c6>@@AAV<lambda_46720907175c18b6c9d2717bc0d2d362>@@V<lambda_9048902d66e8d99359bc9897bbb930a8>@@@?$__crt_seh_guarded_call@X@@QAEX$$QAV<lambda_a7e850c220f1c8d1e6efeecdedd162c6>@@AAV<lambda_46720907175c18b6c9d2717bc0d2d362>@@$$QAV<lambda_9048902d66e8d99359bc9897bbb930a8>@@@Z 10014f7e f   libucrt:per_thread_data.obj
 0001:00013fd8       ?construct_ptd@@YAXQAU__acrt_ptd@@QAPAU__crt_locale_data@@@Z 10014fd8 f   libucrt:per_thread_data.obj
 0001:00014071       ?destroy_fls@@YGXPAX@Z     10015071 f   libucrt:per_thread_data.obj
 0001:00014092       ?destroy_ptd@@YAXQAU__acrt_ptd@@@Z 10015092 f   libucrt:per_thread_data.obj
 0001:0001415f       ?replace_current_thread_locale_nolock@@YAXQAU__acrt_ptd@@QAU__crt_locale_data@@@Z 1001515f f   libucrt:per_thread_data.obj
 0001:0001456f       ?try_get_AreFileApisANSI@@YAP6GHXZXZ 1001556f f   libucrt:winapi_thunks.obj
 0001:00014589       ?try_get_LCMapStringEx@@YAP6GHPB_WK0HPA_WHPAU_nlsversioninfo@@PAXJ@ZXZ 10015589 f   libucrt:winapi_thunks.obj
 0001:000145a3       ?try_get_LocaleNameToLCID@@YAP6GKPB_WK@ZXZ 100155a3 f   libucrt:winapi_thunks.obj
 0001:000145bd       ?try_get_first_available_module@@YAPAUHINSTANCE__@@QBW4module_id@?A0x391cf84c@@0@Z 100155bd f   libucrt:winapi_thunks.obj
 0001:00014684       ?try_get_function@@YAPAXW4function_id@?A0x391cf84c@@QBDQBW4module_id@2@2@Z 10015684 f   libucrt:winapi_thunks.obj
 0001:00014de7       ?fe_to_nearest@@YA_NQBN_KF@Z 10015de7 f   libucrt:cvt.obj
 0001:00014e8a       ?fp_format_a@@YAHQBNPADIQADIH_NIQAU__crt_locale_pointers@@W4__acrt_rounding_mode@@@Z 10015e8a f   libucrt:cvt.obj
 0001:00015199       ?fp_format_e@@YAHQBNQADI1IH_NIQAU__crt_locale_pointers@@W4__acrt_rounding_mode@@@Z 10016199 f   libucrt:cvt.obj
 0001:00015241       ?fp_format_e_internal@@YAHQADIH_NIQAU_strflt@@1QAU__crt_locale_pointers@@@Z 10016241 f   libucrt:cvt.obj
 0001:00015389       ?fp_format_f@@YAHQBNQADI1IHQAU__crt_locale_pointers@@W4__acrt_rounding_mode@@@Z 10016389 f   libucrt:cvt.obj
 0001:0001541a       ?fp_format_f_internal@@YAHQADIHQAU_strflt@@_NQAU__crt_locale_pointers@@@Z 1001641a f   libucrt:cvt.obj
 0001:00015512       ?fp_format_g@@YAHQBNQADI1IH_NIQAU__crt_locale_pointers@@@Z 10016512 f   libucrt:cvt.obj
 0001:000155db       ?fp_format_nan_or_infinity@@YAHW4__acrt_fp_class@@_NPADI1@Z 100165db f   libucrt:cvt.obj
 0001:00015670       ?shift_bytes@@YAXQADI0H@Z  10016670 f   libucrt:cvt.obj
 0001:000156a4       ?should_round_up@@YA_NQBN_KFW4__acrt_rounding_mode@@@Z 100166a4 f   libucrt:cvt.obj
 0001:00015a0d       ??$?RV<lambda_e5124f882df8998aaf41531e079ba474>@@AAV<lambda_3e16ef9562a7dcce91392c22ab16ea36>@@V<lambda_e25ca0880e6ef98be67edffd8c599615>@@@?$__crt_seh_guarded_call@X@@QAEX$$QAV<lambda_e5124f882df8998aaf41531e079ba474>@@AAV<lambda_3e16ef9562a7dcce91392c22ab16ea36>@@$$QAV<lambda_e25ca0880e6ef98be67edffd8c599615>@@@Z 10016a0d f   libucrt:wsetlocale.obj
 0001:00015aad       ?initialize_inherited_file_handles_nolock@@YAXXZ 10016aad f   libucrt:ioinit.obj
 0001:00015b63       ?initialize_stdio_handles_nolock@@YAXXZ 10016b63 f   libucrt:ioinit.obj
 0001:00015d74       ?<lambda_invoker_cdecl>@<lambda_838c7f62c73c983481e27c09e84b0b5d>@@CAHPBX0@Z 10016d74 f   libucrt:argv_wildcards.obj
 0001:00015d8c       ??$__acrt_convert_wcs_mbs_cp@D_WV<lambda_62f6974d9771e494a5ea317cc32e971c>@@U__crt_win32_buffer_internal_dynamic_resizing@@@@YAHQBDAAV?$__crt_win32_buffer@_WU__crt_win32_buffer_internal_dynamic_resizing@@@@ABV<lambda_62f6974d9771e494a5ea317cc32e971c>@@I@Z 10016d8c f   libucrt:argv_wildcards.obj
 0001:00015e3e       ??$__acrt_convert_wcs_mbs_cp@_WDV<lambda_28bda7af82a03b66c1cb3803a755f95d>@@U__crt_win32_buffer_internal_dynamic_resizing@@@@YAHQB_WAAV?$__crt_win32_buffer@DU__crt_win32_buffer_internal_dynamic_resizing@@@@ABV<lambda_28bda7af82a03b66c1cb3803a755f95d>@@I@Z 10016e3e f   libucrt:argv_wildcards.obj
 0001:00015f2a       ??$common_expand_argv_wildcards@D@@YAHQAPADQAPAPAD@Z 10016f2a f   libucrt:argv_wildcards.obj
 0001:00016119       ??$copy_and_add_argument_to_buffer@D@@YAHQBD0IAAV?$argument_list@D@?A0x5f5c8891@@@Z 10017119 f   libucrt:argv_wildcards.obj
 0001:000161ca       ??$expand_argument_wildcards@D@@YAHQAD0AAV?$argument_list@D@?A0x5f5c8891@@@Z 100171ca f   libucrt:argv_wildcards.obj
 0001:00016514       ?expand_if_necessary@?$argument_list@D@?A0x5f5c8891@@AAEHXZ 10017514 f   libucrt:argv_wildcards.obj
 0001:000165a6       ??$__acrt_convert_wcs_mbs_cp@_WDV<lambda_0fec1a7b3f42a53036604e18c2d5e07e>@@U__crt_win32_buffer_no_resizing@@@@YAHQB_WAAV?$__crt_win32_buffer@DU__crt_win32_buffer_no_resizing@@@@ABV<lambda_0fec1a7b3f42a53036604e18c2d5e07e>@@I@Z 100175a6 f   libucrt:getmodulefilenamea.obj
 0001:00016749       ??$?RV<lambda_ceb1ee4838e85a9d631eb091e2fbe199>@@AAV<lambda_ae742caa10f662c28703da3d2ea5e57e>@@V<lambda_cd08b5d6af4937fe54fc07d0c9bf6b37>@@@?$__crt_seh_guarded_call@X@@QAEX$$QAV<lambda_ceb1ee4838e85a9d631eb091e2fbe199>@@AAV<lambda_ae742caa10f662c28703da3d2ea5e57e>@@$$QAV<lambda_cd08b5d6af4937fe54fc07d0c9bf6b37>@@@Z 10017749 f   libucrt:mbctype.obj
 0001:00016796       ??R<lambda_ae742caa10f662c28703da3d2ea5e57e>@@QBEXXZ 10017796 f   libucrt:mbctype.obj
 0001:00016819       ?CPtoLocaleName@@YAPB_WH@Z 10017819 f   libucrt:mbctype.obj
 0001:00016857       ?getSystemCP@@YAHH@Z       10017857 f   libucrt:mbctype.obj
 0001:000168c8       ?setSBCS@@YAXPAU__crt_multibyte_data@@@Z 100178c8 f   libucrt:mbctype.obj
 0001:0001692d       ?setSBUpLow@@YAXPAU__crt_multibyte_data@@@Z 1001792d f   libucrt:mbctype.obj
 0001:00016aad       ?setmbcp_internal@@YAHH_NQAU__acrt_ptd@@QAPAU__crt_multibyte_data@@@Z 10017aad f   libucrt:mbctype.obj
 0001:00016bc1       ?update_thread_multibyte_data_internal@@YAPAU__crt_multibyte_data@@QAU__acrt_ptd@@QAPAU1@@Z 10017bc1 f   libucrt:mbctype.obj
 0001:00016eaf       _memcpy_s                  10017eaf f   libucrt:cfout.obj
 0001:00016eaf       _memcpy_s                  10017eaf f   libucrt:mbctype.obj
 0001:00016f30       ?x_ismbbtype_l@@YAHPAU__crt_locale_pointers@@IHH@Z 10017f30 f   libucrt:ismbbyte.obj
 0001:000170eb       ?find_end_of_double_null_terminated_sequence@@YAPB_WQB_W@Z 100180eb f   libucrt:get_environment_from_os.obj
 0001:0001725a       ??$?RV<lambda_cbab9ec6f41b0180b23cc171c22676b0>@@AAV<lambda_44731a7d0e6d81c3e6aa82d741081786>@@V<lambda_4b292cb8dd18144e164572427af410ab>@@@?$__crt_seh_guarded_call@P6AXH@Z@@QAEP6AXH@Z$$QAV<lambda_cbab9ec6f41b0180b23cc171c22676b0>@@AAV<lambda_44731a7d0e6d81c3e6aa82d741081786>@@$$QAV<lambda_4b292cb8dd18144e164572427af410ab>@@@Z 1001825a f   libucrt:signal.obj
 0001:000172be       ?get_global_action_nolock@@YAPAP6AXH@ZH@Z 100182be f   libucrt:signal.obj
 0001:00017300       ?siglookup@@YAPAU__crt_signal_action_t@@HQAU1@@Z 10018300 f   libucrt:signal.obj
 0001:000175b9       ??$?RV<lambda_2866be3712abc81a800a822484c830d8>@@AAV<lambda_39ca0ed439415581b5b15c265174cece>@@V<lambda_2b24c74d71094a6cd0cb82e44167d71b>@@@?$__crt_seh_guarded_call@X@@QAEX$$QAV<lambda_2866be3712abc81a800a822484c830d8>@@AAV<lambda_39ca0ed439415581b5b15c265174cece>@@$$QAV<lambda_2b24c74d71094a6cd0cb82e44167d71b>@@@Z 100185b9 f   libucrt:fflush.obj
 0001:00017645       ??$?RV<lambda_2cc53f568c5a2bb6f192f930a45d44ea>@@AAV<lambda_ab61a845afdef5b7c387490eaf3616ee>@@V<lambda_c2ffc0b7726aa6be21d5f0026187e748>@@@?$__crt_seh_guarded_call@X@@QAEX$$QAV<lambda_2cc53f568c5a2bb6f192f930a45d44ea>@@AAV<lambda_ab61a845afdef5b7c387490eaf3616ee>@@$$QAV<lambda_c2ffc0b7726aa6be21d5f0026187e748>@@@Z 10018645 f   libucrt:fflush.obj
 0001:000176f1       ?common_flush_all@@YAH_N@Z 100186f1 f   libucrt:fflush.obj
 0001:0001773e       ?common_flush_all_should_try_to_flush_stream@@YA_NV__crt_stdio_stream@@QAH@Z 1001873e f   libucrt:fflush.obj
 0001:00017771       ?is_stream_flushable_or_commitable@@YA_NJ@Z 10018771 f   libucrt:fflush.obj
 0001:00017c7a       ?GetTableIndexFromLocaleName@@YAHPB_W@Z 10018c7a f   libucrt:lcidtoname_downlevel.obj
 0001:00017d30       ??R<lambda_3d301b9e52f5099be73030e1f0bf487e>@@QBEIPBD@Z 10018d30 f   libucrt:mbrtowc.obj
 0001:00017eb6       ?should_round_up@@YA_NQBDHW4__acrt_has_trailing_digits@@W4__acrt_rounding_mode@@@Z 10018eb6 f   libucrt:_fptostr.obj
 0001:00019c54       ?free_crt_array_internal@@YAXQAPBXI@Z 1001ac54 f   libucrt:inittime.obj
 0001:0001a61e       ??$common_tcsncpy_s@D@@YAHQADIQBDI@Z 1001b61e f   libucrt:strncpy_s.obj
 0001:0001a6e0       $$000000                   1001b6e0     libucrt:strpbrk.obj
 0001:0001a7c4       ?__acrt_LCMapStringA_stat@@YAHPAU__crt_locale_pointers@@PB_WKPBDHPADHHH@Z 1001b7c4 f   libucrt:lcmapstringa.obj
 0001:0001a9f7       ?initialize_multibyte@@YAHXZ 1001b9f7 f   libucrt:multibyte_initializer.obj
 0001:0001aa06       ??$?RV<lambda_9e9de3de5fa147e2223d7db92bc10aa6>@@AAV<lambda_38ce7e780aa69e748d6df282ebc68efe>@@V<lambda_8ca6da459f0f6780f1cff60fdc3d00e5>@@@?$__crt_seh_guarded_call@H@@QAEH$$QAV<lambda_9e9de3de5fa147e2223d7db92bc10aa6>@@AAV<lambda_38ce7e780aa69e748d6df282ebc68efe>@@$$QAV<lambda_8ca6da459f0f6780f1cff60fdc3d00e5>@@@Z 1001ba06 f   libucrt:commit.obj
 0001:0001ab25       ?write_double_translated_ansi_nolock@@YA?AUwrite_result@?A0x17268360@@HQBDI@Z 1001bb25 f   libucrt:write.obj
 0001:0001aed1       ?write_double_translated_unicode_nolock@@YA?AUwrite_result@?A0x17268360@@QBDI@Z 1001bed1 f   libucrt:write.obj
 0001:0001af39       ?write_requires_double_translation_nolock@@YA_NH@Z 1001bf39 f   libucrt:write.obj
 0001:0001afaa       ?write_text_ansi_nolock@@YA?AUwrite_result@?A0x17268360@@HQBDI@Z 1001bfaa f   libucrt:write.obj
 0001:0001b085       ?write_text_utf16le_nolock@@YA?AUwrite_result@?A0x17268360@@HQBDI@Z 1001c085 f   libucrt:write.obj
 0001:0001b16e       ?write_text_utf8_nolock@@YA?AUwrite_result@?A0x17268360@@HQBDI@Z 1001c16e f   libucrt:write.obj
 0001:0001b890       $$000000                   1001c890     libucrt:log10_impl.obj
 0001:0001b9a0       $$000000                   1001c9a0     libucrt:ceil_pentium4.obj
 0001:0001babd       ?to_abstract_control@@YA?AW4__acrt_fenv_abstract_control@@W4__acrt_fenv_machine_sse_control@@@Z 1001cabd f   libucrt:_fenvutils.obj
 0001:0001bb79       ?to_abstract_control@@YA?AW4__acrt_fenv_abstract_control@@W4__acrt_fenv_machine_x87_control@@@Z 1001cb79 f   libucrt:_fenvutils.obj
 0001:0001bc32       ?to_machine_sse_control@@YA?AW4__acrt_fenv_machine_sse_control@@W4__acrt_fenv_abstract_control@@@Z 1001cc32 f   libucrt:_fenvutils.obj
 0001:0001bcff       ?to_machine_x87_control@@YA?AW4__acrt_fenv_machine_x87_control@@W4__acrt_fenv_abstract_control@@@Z 1001ccff f   libucrt:_fenvutils.obj
 0001:0001c093       ??$common_lseek_nolock@_J@@YA_JH_JH@Z 1001d093 f   libucrt:lseek.obj
 0001:0001c279       ___hw_cw_sse2              1001d279 f   libucrt:ieee87.obj
 0001:0001c6ff       __hw_cw                    1001d6ff f   libucrt:ieee87.obj
 0001:0001c7b0       $$000000                   1001d7b0     libucrt:log10_pentium4.obj
 0001:0001ca40       $$000000                   1001da40     libucrt:87tran.obj
 0001:0001cc50       $$000000                   1001dc50     libucrt:87disp.obj
 0001:0001ceb0       $$000000                   1001deb0     libucrt:common.obj
 0001:0001d040       $$000000                   1001e040     libucrt:genexcep.obj
 0001:0001d33c       ??$?RV<lambda_218ce3db14220d0be481dae8ef3383b6>@@AAV<lambda_628dfdc04ba53c8bfc02c9951375f3f5>@@V<lambda_57dc472bd5c9d5f3b2cbca59b8a843ae>@@@?$__crt_seh_guarded_call@H@@QAEH$$QAV<lambda_218ce3db14220d0be481dae8ef3383b6>@@AAV<lambda_628dfdc04ba53c8bfc02c9951375f3f5>@@$$QAV<lambda_57dc472bd5c9d5f3b2cbca59b8a843ae>@@@Z 1001e33c f   libucrt:close.obj
 0001:0001d530       $$000000                   1001e530     libucrt:_strnicm.obj
 0001:0001d591       ?__dcrt_lowio_initialize_console_output@@YAXXZ 1001e591 f   libucrt:initcon.obj
 0001:0001e470       $$000000                   1001f470     LIBCMT:ulldvrm.obj
 0001:0001e510       $$000000                   1001f510     LIBCMT:llmul.obj
 0001:0001e550       $$000000                   1001f550     LIBCMT:lldvrm.obj
 0001:0001e630       $$000000                   1001f630     LIBCMT:llshl.obj
 0001:0001e650       $$000000                   1001f650     LIBCMT:ullshr.obj
 0001:0001e670       $$000000                   1001f670     LIBCMT:ftol2.obj
 0001:0001e910       $$000000                   1001f910     libvcruntime:strrchr.obj
 0001:0001ea50       $$000000                   1001fa50     libvcruntime:strchr.obj
 0001:0001ebf3       __ehhandler$??2@YAPAXIABUnothrow_t@std@@@Z 1001fbf3 f   LIBCMT:new_scalar_nothrow.obj
 0001:0001ec10       __ehhandler$?CallUnexpected@@YAXPBU_s_ESTypeList@@@Z 1001fc10 f   libvcruntime:frame.obj
 0001:0001ec2d       ??__F_AtlComModule@ATL@@YAXXZ 1001fc2d f   OposVariant.obj
 0001:0001ec37       ??__F_AtlWinModule@ATL@@YAXXZ 1001fc37 f   OposVariant.obj
 0001:0001ec51       ??__F_Module@@YAXXZ        1001fc51 f   PointCardRW.obj
 0001:0001ec65       ??__F_AtlBaseModule@ATL@@YAXXZ 1001fc65 f   atls:atlbase.obj
 0002:00000304       ?_AtlBaseModule$initializer$@ATL@@3P6AXXZA 10020304     atls:atlbase.obj
 0002:00000308       ?_AtlComModule$initializer$@ATL@@3P6AXXZA 10020308     OposVariant.obj
 0002:0000030c       ?_AtlWinModule$initializer$@ATL@@3P6AXXZA 1002030c     OposVariant.obj
 0002:00000310       ?_Module$initializer$@@3P6AXXZA 10020310     PointCardRW.obj
 0002:00000314       ??pConnMap$initializer$@?$IConnectionPointContainerImpl@VCOPOSPointCardRW@@@ATL@@0P6AXXZA@@3P6AXXZA 10020314     PointCardRW.obj
 0002:00000320       ?__scrt_initialize_tss_var@@3P6AHXZA 10020320     LIBCMT:thread_safe_statics.obj
 0002:00001af8       _GS_ExceptionPointers      10021af8     LIBCMT:gs_report.obj
 0002:00001c88       ?tokenTable@@3QBUStringLiteral@@B 10021c88     libvcruntime:undname.obj
 0002:00001d08       ?nameTable@@3QBUStringLiteral@@B 10021d08     libvcruntime:undname.obj
 0002:00001fa0       ?rttiTable@@3QBUStringLiteral@@B 10021fa0     libvcruntime:undname.obj
 0002:00001fc8       ?IndirectionName@@3QBUStringLiteral@@B 10021fc8     libvcruntime:undname.obj
 0002:00001ff8       ?PrefixName@@3QBUStringLiteral@@B 10021ff8     libvcruntime:undname.obj
 0002:00002628       ?module_names@?A0xb97aeec8@@3QBQB_WB 10022628     libvcruntime:winapi_downlevel.obj
 0002:000026d0       ?candidate_modules@?1??try_get_FlsAlloc@@YAP6GKP6GXPAX@Z@ZXZ@4QBW4module_id@?A0xb97aeec8@@B 100226d0     libvcruntime:winapi_downlevel.obj
 0002:000026e4       ?candidate_modules@?1??try_get_FlsFree@@YAP6GHK@ZXZ@4QBW4module_id@?A0xb97aeec8@@B 100226e4     libvcruntime:winapi_downlevel.obj
 0002:000026f4       ?candidate_modules@?1??try_get_FlsGetValue@@YAP6GPAXK@ZXZ@4QBW4module_id@?A0xb97aeec8@@B 100226f4     libvcruntime:winapi_downlevel.obj
 0002:00002708       ?candidate_modules@?1??try_get_FlsSetValue@@YAP6GHKPAX@ZXZ@4QBW4module_id@?A0xb97aeec8@@B 10022708     libvcruntime:winapi_downlevel.obj
 0002:0000271c       ?candidate_modules@?1??try_get_InitializeCriticalSectionEx@@YAP6GHPAU_RTL_CRITICAL_SECTION@@KK@ZXZ@4QBW4module_id@?A0xb97aeec8@@B 1002271c     libvcruntime:winapi_downlevel.obj
 0002:00002740       ?errtable@@3QBUerrentry@?A0x31fdb9ec@@B 10022740     libucrt:errno.obj
 0002:00002d88       ___acrt_initializers       10022d88     libucrt:initialization.obj
 0002:00002e08       ?module_names@?A0x391cf84c@@3QBQB_WB 10022e08     libucrt:winapi_thunks.obj
 0002:00003280       ?candidate_modules@?1??try_get_AreFileApisANSI@@YAP6GHXZXZ@4QBW4module_id@?A0x391cf84c@@B 10023280     libucrt:winapi_thunks.obj
 0002:00003294       ?candidate_modules@?1??try_get_FlsAlloc@@YAP6GKP6GXPAX@Z@ZXZ@4QBW4module_id@?A0x391cf84c@@B 10023294     libucrt:winapi_thunks.obj
 0002:0000329c       ?candidate_modules@?1??try_get_FlsFree@@YAP6GHK@ZXZ@4QBW4module_id@?A0x391cf84c@@B 1002329c     libucrt:winapi_thunks.obj
 0002:000032a4       ?candidate_modules@?1??try_get_FlsGetValue@@YAP6GPAXK@ZXZ@4QBW4module_id@?A0x391cf84c@@B 100232a4     libucrt:winapi_thunks.obj
 0002:000032ac       ?candidate_modules@?1??try_get_FlsSetValue@@YAP6GHKPAX@ZXZ@4QBW4module_id@?A0x391cf84c@@B 100232ac     libucrt:winapi_thunks.obj
 0002:000032b4       ?candidate_modules@?1??try_get_InitializeCriticalSectionEx@@YAP6GHPAU_RTL_CRITICAL_SECTION@@KK@ZXZ@4QBW4module_id@?A0x391cf84c@@B 100232b4     libucrt:winapi_thunks.obj
 0002:000032bc       ?candidate_modules@?1??try_get_LCMapStringEx@@YAP6GHPB_WK0HPA_WHPAU_nlsversioninfo@@PAXJ@ZXZ@4QBW4module_id@?A0x391cf84c@@B 100232bc     libucrt:winapi_thunks.obj
 0002:000032d4       ?candidate_modules@?1??try_get_LocaleNameToLCID@@YAP6GKPB_WK@ZXZ@4QBW4module_id@?A0x391cf84c@@B 100232d4     libucrt:winapi_thunks.obj
 0002:000032f0       ?candidate_modules@?1??try_get_AppPolicyGetProcessTerminationMethod@@YAP6GJPAXPAW4AppPolicyProcessTerminationMethod@@@ZXZ@4QBW4module_id@?A0x391cf84c@@B 100232f0     libucrt:winapi_thunks.obj
 0002:0000331c       ?candidate_modules@?1??try_get_SetThreadStackGuarantee@@YAP6GHPAK@ZXZ@4QBW4module_id@?A0x391cf84c@@B 1002331c     libucrt:winapi_thunks.obj
 0002:00003340       ?strings@?1??fp_format_nan_or_infinity@@YAHW4__acrt_fp_class@@_NPADI1@Z@4QAY03QBDA 10023340     libucrt:cvt.obj
 0002:00003888       ?_mb_locale_names@@3QBQB_WB 10023888     libucrt:mbctype.obj
 0002:000040d0       ?LcidToLocaleNameTable@?A0x881e4c05@@3QBULcidToLocaleName@1@B 100240d0     libucrt:lcidtoname_downlevel.obj
 0002:000051f8       ?LocaleNameToIndexTable@?A0x881e4c05@@3QBULocaleNameIndex@1@B 100251f8     libucrt:lcidtoname_downlevel.obj
 0002:00006b30       LOG_name                   10026b30     libucrt:log10_impl.obj
 0002:00006b40       _One                       10026b40     libucrt:ceil_pentium4.obj
 0002:00006b50       _Bns                       10026b50     libucrt:ceil_pentium4.obj
 0002:00006b60       _Zero                      10026b60     libucrt:ceil_pentium4.obj
 0002:00006b70       _S                         10026b70     libucrt:ceil_pentium4.obj
 0002:00006b80       _NegZero                   10026b80     libucrt:ceil_pentium4.obj
 0002:00006b90       emask                      10026b90     libucrt:log10_pentium4.obj
 0002:00006ba0       CC                         10026ba0     libucrt:log10_pentium4.obj
 0002:00006bb0       Magic                      10026bb0     libucrt:log10_pentium4.obj
 0002:00006bc0       hi_mask                    10026bc0     libucrt:log10_pentium4.obj
 0002:00006bd0       LOG10_2                    10026bd0     libucrt:log10_pentium4.obj
 0002:00006be0       place_L                    10026be0     libucrt:log10_pentium4.obj
 0002:00006c00       One                        10026c00     libucrt:log10_pentium4.obj
 0002:00006c10       Zero                       10026c10     libucrt:log10_pentium4.obj
 0002:00006c20       Two52                      10026c20     libucrt:log10_pentium4.obj
 0002:00006c30       Infs                       10026c30     libucrt:log10_pentium4.obj
 0002:00006c40       NaN                        10026c40     libucrt:log10_pentium4.obj
 0002:00006c50       coeff                      10026c50     libucrt:log10_pentium4.obj
 0002:00006cae       _log2max                   10026cae     libucrt:87tran.obj
 0002:00006cb8       _smallarg                  10026cb8     libucrt:87tran.obj
 0002:00006cc2       _half                      10026cc2     libucrt:87tran.obj
 0002:00006d0e       One                        10026d0e     libucrt:87disp.obj
 0002:00006d16       Three                      10026d16     libucrt:87disp.obj
 0002:00006d1e       XAMtoTagTab                10026d1e     libucrt:87disp.obj
 0002:00006d30       One                        10026d30     libucrt:common.obj
 0002:00006d44       DblMax                     10026d44     libucrt:common.obj
 0002:00006d4c       DblMin                     10026d4c     libucrt:common.obj
 0002:00006d54       IeeeAdjO                   10026d54     libucrt:common.obj
 0002:00006d5c       IeeeAdjU                   10026d5c     libucrt:common.obj
 0002:00006d64       _infinity                  10026d64     libucrt:common.obj
 0002:00006d6c       _zero                      10026d6c     libucrt:common.obj
 0002:00006db8       _over                      10026db8     libucrt:fpctrl.obj
 0002:00006dc4       _under                     10026dc4     libucrt:fpctrl.obj
 0002:000075f8       ?_names@?1??_get_fname@@9@9 100275f8     libucrt:fpexcept.obj
 0002:000077a0       two32                      100277a0     LIBCMT:ftol2.obj
 0002:000077a4       two63                      100277a4     LIBCMT:ftol2.obj
 0002:000077a8       _NaN                       100277a8     LIBCMT:ftol2.obj
 0002:00007e68       __sehtable$?_AtlVerifyStackAvailable@_ATL_SAFE_ALLOCA_IMPL@ATL@@YA_NK@Z 10027e68     PointCardRW.obj
 0002:00007e88       __sehtable$___scrt_is_nonwritable_in_current_image 10027e88     LIBCMT:utility.obj
 0002:00007ea4       __catchsym$??2@YAPAXIABUnothrow_t@std@@@Z$2 10027ea4     LIBCMT:new_scalar_nothrow.obj
 0002:00007eb4       __unwindtable$??2@YAPAXIABUnothrow_t@std@@@Z 10027eb4     LIBCMT:new_scalar_nothrow.obj
 0002:00007ec4       __tryblocktable$??2@YAPAXIABUnothrow_t@std@@@Z 10027ec4     LIBCMT:new_scalar_nothrow.obj
 0002:00007ed8       __ehfuncinfo$??2@YAPAXIABUnothrow_t@std@@@Z 10027ed8     LIBCMT:new_scalar_nothrow.obj
 0002:00007f00       __sehtable$?dllmain_crt_process_attach@@YAHQAUHINSTANCE__@@QAX@Z 10027f00     LIBCMT:dll_dllmain.obj
 0002:00007f20       __sehtable$?dllmain_crt_process_detach@@YAH_N@Z 10027f20     LIBCMT:dll_dllmain.obj
 0002:00007f48       __sehtable$?dllmain_dispatch@@YAHQAUHINSTANCE__@@KQAX@Z 10027f48     LIBCMT:dll_dllmain.obj
 0002:00007ff8       __sehtable$___DestructExceptionObject 10027ff8     libvcruntime:ehhelpers.obj
 0002:00008018       __sehtable$?FrameUnwindToState@__FrameHandler3@@SAXPAUEHRegistrationNode@@PAXPBU_s_FuncInfo@@H@Z 10028018     libvcruntime:frame.obj
 0002:00008040       __sehtable$?CallCatchBlock@@YAPAXPAUEHExceptionRecord@@PAUEHRegistrationNode@@PAU_CONTEXT@@PBU_s_FuncInfo@@PAXHK@Z 10028040     libvcruntime:frame.obj
 0002:00008068       __catchsym$?CallUnexpected@@YAXPBU_s_ESTypeList@@@Z$2 10028068     libvcruntime:frame.obj
 0002:00008078       __unwindtable$?CallUnexpected@@YAXPBU_s_ESTypeList@@@Z 10028078     libvcruntime:frame.obj
 0002:00008088       __tryblocktable$?CallUnexpected@@YAXPBU_s_ESTypeList@@@Z 10028088     libvcruntime:frame.obj
 0002:0000809c       __ehfuncinfo$?CallUnexpected@@YAXPBU_s_ESTypeList@@@Z 1002809c     libvcruntime:frame.obj
 0002:000080c0       __sehtable$??$BuildCatchObjectHelperInternal@V__FrameHandler3@@@@YAHPAUEHExceptionRecord@@PAXPBU_s_HandlerType@@PBU_s_CatchableType@@@Z 100280c0     libvcruntime:frame.obj
 0002:000080e0       __sehtable$??$BuildCatchObjectInternal@V__FrameHandler3@@@@YAXPAUEHExceptionRecord@@PAXPBU_s_HandlerType@@PBU_s_CatchableType@@@Z 100280e0     libvcruntime:frame.obj
 0002:00008138       __sehtable$??R<lambda_6e4b09c48022b2350581041d5f6b0c4c>@@QBE@XZ 10028138     libucrt:exit.obj
 0002:00008158       __sehtable$??$?RV<lambda_03b1d95aef87969028cfba75ccab2455>@@AAV<lambda_6e4b09c48022b2350581041d5f6b0c4c>@@V<lambda_22bdf7517842c4b3e53723af5aa32b9e>@@@?$__crt_seh_guarded_call@X@@QAEX$$QAV<lambda_03b1d95aef87969028cfba75ccab2455>@@AAV<lambda_6e4b09c48022b2350581041d5f6b0c4c>@@$$QAV<lambda_22bdf7517842c4b3e53723af5aa32b9e>@@@Z 10028158     libucrt:exit.obj
 0002:00008178       __sehtable$??$?RV<lambda_8e746cf0007f6ed984d6f78af1fec997>@@AAV<lambda_22ebabd17bc4fa466a2aca6d8deb888d>@@V<lambda_18ed0c0b38a6dc0daf1e7ac6d6adf05e>@@@?$__crt_seh_guarded_call@H@@QAEH$$QAV<lambda_8e746cf0007f6ed984d6f78af1fec997>@@AAV<lambda_22ebabd17bc4fa466a2aca6d8deb888d>@@$$QAV<lambda_18ed0c0b38a6dc0daf1e7ac6d6adf05e>@@@Z 10028178     libucrt:onexit.obj
 0002:00008198       __sehtable$??$?RV<lambda_69a2805e680e0e292e8ba93315fe43a8>@@AAV<lambda_f03950bc5685219e0bcd2087efbe011e>@@V<lambda_03fcd07e894ec930e3f35da366ca99d6>@@@?$__crt_seh_guarded_call@H@@QAEH$$QAV<lambda_69a2805e680e0e292e8ba93315fe43a8>@@AAV<lambda_f03950bc5685219e0bcd2087efbe011e>@@$$QAV<lambda_03fcd07e894ec930e3f35da366ca99d6>@@@Z 10028198     libucrt:onexit.obj
 0002:000081b8       __sehtable$__query_new_handler 100281b8     libucrt:new_handler.obj
 0002:000081d8       __sehtable$_terminate      100281d8     libucrt:terminate.obj
 0002:000081f8       __sehtable$??$?RV<lambda_15ade71b0218206bbe3333a0c9b79046>@@AAV<lambda_da44e0f8b0f19ba52fefafb335991732>@@V<lambda_207f2d024fc103971653565357d6cd41>@@@?$__crt_seh_guarded_call@X@@QAEX$$QAV<lambda_15ade71b0218206bbe3333a0c9b79046>@@AAV<lambda_da44e0f8b0f19ba52fefafb335991732>@@$$QAV<lambda_207f2d024fc103971653565357d6cd41>@@@Z 100281f8     libucrt:per_thread_data.obj
 0002:00008218       __sehtable$??$?RV<lambda_a7e850c220f1c8d1e6efeecdedd162c6>@@AAV<lambda_46720907175c18b6c9d2717bc0d2d362>@@V<lambda_9048902d66e8d99359bc9897bbb930a8>@@@?$__crt_seh_guarded_call@X@@QAEX$$QAV<lambda_a7e850c220f1c8d1e6efeecdedd162c6>@@AAV<lambda_46720907175c18b6c9d2717bc0d2d362>@@$$QAV<lambda_9048902d66e8d99359bc9897bbb930a8>@@@Z 10028218     libucrt:per_thread_data.obj
 0002:00008238       __sehtable$??$?RV<lambda_38edbb1296d33220d7e4dd0ed76b244a>@@AAV<lambda_5ce1d447e08cb34b2473517608e21441>@@V<lambda_fb385d3da700c9147fc39e65dd577a8c>@@@?$__crt_seh_guarded_call@X@@QAEX$$QAV<lambda_38edbb1296d33220d7e4dd0ed76b244a>@@AAV<lambda_5ce1d447e08cb34b2473517608e21441>@@$$QAV<lambda_fb385d3da700c9147fc39e65dd577a8c>@@@Z 10028238     libucrt:per_thread_data.obj
 0002:00008258       __sehtable$??$?RV<lambda_6affb1475c98b40b75cdec977db92e3c>@@AAV<lambda_b8d4b9c228a6ecc3f80208dbb4b4a104>@@V<lambda_608742c3c92a14382c1684fc64f96c88>@@@?$__crt_seh_guarded_call@X@@QAEX$$QAV<lambda_6affb1475c98b40b75cdec977db92e3c>@@AAV<lambda_b8d4b9c228a6ecc3f80208dbb4b4a104>@@$$QAV<lambda_608742c3c92a14382c1684fc64f96c88>@@@Z 10028258     libucrt:per_thread_data.obj
 0002:00008278       __sehtable$??$?RV<lambda_e5124f882df8998aaf41531e079ba474>@@AAV<lambda_3e16ef9562a7dcce91392c22ab16ea36>@@V<lambda_e25ca0880e6ef98be67edffd8c599615>@@@?$__crt_seh_guarded_call@X@@QAEX$$QAV<lambda_e5124f882df8998aaf41531e079ba474>@@AAV<lambda_3e16ef9562a7dcce91392c22ab16ea36>@@$$QAV<lambda_e25ca0880e6ef98be67edffd8c599615>@@@Z 10028278     libucrt:wsetlocale.obj
 0002:00008298       __sehtable$___acrt_initialize_lowio 10028298     libucrt:ioinit.obj
 0002:000082b8       __sehtable$?update_thread_multibyte_data_internal@@YAPAU__crt_multibyte_data@@QAU__acrt_ptd@@QAPAU1@@Z 100282b8     libucrt:mbctype.obj
 0002:000082d8       __sehtable$??$?RV<lambda_ceb1ee4838e85a9d631eb091e2fbe199>@@AAV<lambda_ae742caa10f662c28703da3d2ea5e57e>@@V<lambda_cd08b5d6af4937fe54fc07d0c9bf6b37>@@@?$__crt_seh_guarded_call@X@@QAEX$$QAV<lambda_ceb1ee4838e85a9d631eb091e2fbe199>@@AAV<lambda_ae742caa10f662c28703da3d2ea5e57e>@@$$QAV<lambda_cd08b5d6af4937fe54fc07d0c9bf6b37>@@@Z 100282d8     libucrt:mbctype.obj
 0002:000082f8       __sehtable$_raise          100282f8     libucrt:signal.obj
 0002:00008318       __sehtable$??$?RV<lambda_cbab9ec6f41b0180b23cc171c22676b0>@@AAV<lambda_44731a7d0e6d81c3e6aa82d741081786>@@V<lambda_4b292cb8dd18144e164572427af410ab>@@@?$__crt_seh_guarded_call@P6AXH@Z@@QAEP6AXH@Z$$QAV<lambda_cbab9ec6f41b0180b23cc171c22676b0>@@AAV<lambda_44731a7d0e6d81c3e6aa82d741081786>@@$$QAV<lambda_4b292cb8dd18144e164572427af410ab>@@@Z 10028318     libucrt:signal.obj
 0002:00008338       __sehtable$??$?RV<lambda_2866be3712abc81a800a822484c830d8>@@AAV<lambda_39ca0ed439415581b5b15c265174cece>@@V<lambda_2b24c74d71094a6cd0cb82e44167d71b>@@@?$__crt_seh_guarded_call@X@@QAEX$$QAV<lambda_2866be3712abc81a800a822484c830d8>@@AAV<lambda_39ca0ed439415581b5b15c265174cece>@@$$QAV<lambda_2b24c74d71094a6cd0cb82e44167d71b>@@@Z 10028338     libucrt:fflush.obj
 0002:00008358       __sehtable$??$?RV<lambda_2cc53f568c5a2bb6f192f930a45d44ea>@@AAV<lambda_ab61a845afdef5b7c387490eaf3616ee>@@V<lambda_c2ffc0b7726aa6be21d5f0026187e748>@@@?$__crt_seh_guarded_call@X@@QAEX$$QAV<lambda_2cc53f568c5a2bb6f192f930a45d44ea>@@AAV<lambda_ab61a845afdef5b7c387490eaf3616ee>@@$$QAV<lambda_c2ffc0b7726aa6be21d5f0026187e748>@@@Z 10028358     libucrt:fflush.obj
 0002:00008378       __sehtable$___acrt_update_thread_locale_data 10028378     libucrt:locale_refcounting.obj
 0002:00008398       __sehtable$__fcloseall     10028398     libucrt:closeall.obj
 0002:000083b8       __sehtable$___acrt_lowio_ensure_fh_exists 100283b8     libucrt:osfinfo.obj
 0002:000083d8       __sehtable$??$?RV<lambda_9e9de3de5fa147e2223d7db92bc10aa6>@@AAV<lambda_38ce7e780aa69e748d6df282ebc68efe>@@V<lambda_8ca6da459f0f6780f1cff60fdc3d00e5>@@@?$__crt_seh_guarded_call@H@@QAEH$$QAV<lambda_9e9de3de5fa147e2223d7db92bc10aa6>@@AAV<lambda_38ce7e780aa69e748d6df282ebc68efe>@@$$QAV<lambda_8ca6da459f0f6780f1cff60fdc3d00e5>@@@Z 100283d8     libucrt:commit.obj
 0002:000083f8       __sehtable$__write         100283f8     libucrt:write.obj
 0002:00008418       __sehtable$_fclose         10028418     libucrt:fclose.obj
 0002:00008438       __sehtable$??$?RV<lambda_218ce3db14220d0be481dae8ef3383b6>@@AAV<lambda_628dfdc04ba53c8bfc02c9951375f3f5>@@V<lambda_57dc472bd5c9d5f3b2cbca59b8a843ae>@@@?$__crt_seh_guarded_call@H@@QAEH$$QAV<lambda_218ce3db14220d0be481dae8ef3383b6>@@AAV<lambda_628dfdc04ba53c8bfc02c9951375f3f5>@@$$QAV<lambda_57dc472bd5c9d5f3b2cbca59b8a843ae>@@@Z 10028438     libucrt:close.obj
 0002:00008458       __sehtable$___set_fpsr_sse2 10028458     libucrt:fpctrl.obj
 0002:00008478       __sehtable$__IsNonwritableInCurrentImage 10028478     LIBCMT:pesect.obj
 0002:000084a0       .edata                     100284a0     OPOSPointCardRW.exp
 0002:000084c8       rgpv                       100284c8     OPOSPointCardRW.exp
 0002:000084d8       rgszName                   100284d8     OPOSPointCardRW.exp
 0002:000084e8       rgwOrd                     100284e8     OPOSPointCardRW.exp
 0002:000084f0       szName                     100284f0     OPOSPointCardRW.exp
 0002:00008504       $N00001                    10028504     OPOSPointCardRW.exp
 0002:00008514       $N00002                    10028514     OPOSPointCardRW.exp
 0002:00008526       $N00003                    10028526     OPOSPointCardRW.exp
 0002:00008538       $N00004                    10028538     OPOSPointCardRW.exp
 0002:00008b46       .idata$6                   10028b46     kernel32:KERNEL32.dll
 0002:00008d5a       .idata$6                   10028d5a     user32:USER32.dll
 0002:00008e8e       .idata$6                   10028e8e     gdi32:GDI32.dll
 0002:00008f34       .idata$6                   10028f34     advapi32:ADVAPI32.dll
 0002:00009050       .idata$6                   10029050     ole32:ole32.dll
 0002:0000905a       .idata$6                   1002905a     oleaut32:OLEAUT32.dll
 0003:00000110       ?ObjectMap@@3PAU_ATL_OBJMAP_ENTRY30@ATL@@A 1002a110     PointCardRW.obj
 0003:000001d0       ?s_SOMethodNames@@3PAPADA  1002a1d0     PointCardRWImpl.obj
 0003:00000244       ?s_RequiredMethodsPerRelease@@3PAHA 1002a244     PointCardRWImpl.obj
 0003:00000280       ?__vcrt_flsindex@@3KA      1002a280     libvcruntime:per_thread_data.obj
 0003:000002a0       ?errno_no_memory@@3HA      1002a2a0     libucrt:errno.obj
 0003:000002a4       ?doserrno_no_memory@@3KA   1002a2a4     libucrt:errno.obj
 0003:000002b0       ?__acrt_flsindex@@3KA      1002a2b0     libucrt:per_thread_data.obj
 0003:00000648       __mbctypes                 1002a648     libucrt:mbctype.obj
 0003:00000750       __mbcasemaps               1002a750     libucrt:mbctype.obj
 0003:00000850       ?__rgctypeflag@@3PADA      1002a850     libucrt:mbctype.obj
 0003:00000858       ?__rgcode_page_info@@3PAUcode_page_info@@A 1002a858     libucrt:mbctype.obj
 0003:00000ab0       ?__dcrt_lowio_console_output_handle@@3PAXA 1002aab0     libucrt:initcon.obj
 0003:00000ab4       ?__DAZ_ENABLED@?1??__set_fpsr_sse2@@9@9 1002aab4     libucrt:fpctrl.obj
 0003:00000c48       ?is_initialized_as_dll@@3_NA 1002ac48     LIBCMT:utility.obj
 0003:00000c49       ?module_local_atexit_table_initialized@@3_NA 1002ac49     LIBCMT:utility.obj
 0003:00000c4c       ?module_local_atexit_table@@3U_onexit_table_t@@A 1002ac4c     LIBCMT:utility.obj
 0003:00000c58       ?module_local_at_quick_exit_table@@3U_onexit_table_t@@A 1002ac58     LIBCMT:utility.obj
 0003:00000c64       ?g_tss_cv@@3U_RTL_CONDITION_VARIABLE@@A 1002ac64     LIBCMT:thread_safe_statics.obj
 0003:00000c68       ?g_tss_event@@3PAXA        1002ac68     LIBCMT:thread_safe_statics.obj
 0003:00000c6c       ?g_tss_mutex@@3U_RTL_CRITICAL_SECTION@@A 1002ac6c     LIBCMT:thread_safe_statics.obj
 0003:00000c84       ?g_sleep_condition_variable_cs@@3P6GHPAU_RTL_CONDITION_VARIABLE@@PAU_RTL_CRITICAL_SECTION@@K@ZA 1002ac84     LIBCMT:thread_safe_statics.obj
 0003:00000c88       ?g_wake_all_condition_variable@@3P6GXPAU_RTL_CONDITION_VARIABLE@@@ZA 1002ac88     LIBCMT:thread_safe_statics.obj
 0003:00000c90       _GS_ExceptionRecord        1002ac90     LIBCMT:gs_report.obj
 0003:00000ce0       _GS_ContextRecord          1002ace0     LIBCMT:gs_report.obj
 0003:00000fb0       ?__proc_attached@@3HA      1002afb0     LIBCMT:dll_dllmain.obj
 0003:00001014       ?AllocateData@@3P6GPAUAtlThunkData_t@@XZA 1002b014     atls:atlthunk.obj
 0003:00001018       ?InitData@@3P6GXPAUAtlThunkData_t@@PAXI@ZA 1002b018     atls:atlthunk.obj
 0003:0000101c       ?DataToCode@@3P6GP6GJPAUHWND__@@IIJ@ZPAUAtlThunkData_t@@@ZA 1002b01c     atls:atlthunk.obj
 0003:00001020       ?FreeData@@3P6GXPAUAtlThunkData_t@@@ZA 1002b020     atls:atlthunk.obj
 0003:00001024       ?Initialized@@3_NA         1002b024     atls:atlthunk.obj
 0003:00001034       ?__vcrt_startup_thread_ptd@@3U__vcrt_ptd@@A 1002b034     libvcruntime:per_thread_data.obj
 0003:0000105c       ___vcrt_lock_table         1002b05c     libvcruntime:locks.obj
 0003:00001074       ___vcrt_locks_initialized  1002b074     libvcruntime:locks.obj
 0003:000010a0       ?heap@@3V_HeapManager@@A   1002b0a0     libvcruntime:undname.obj
 0003:000010b4       ?module_handles@@3PAPAUHINSTANCE__@@A 1002b0b4     libvcruntime:winapi_downlevel.obj
 0003:000010c0       ?function_pointers@@3PAPAXA 1002b0c0     libvcruntime:winapi_downlevel.obj
 0003:000010d4       ?__acrt_invalid_parameter_handler@@3V?$dual_state_global@P6AXPB_W00II@Z@__crt_state_management@@A 1002b0d4     libucrt:invalid_parameter.obj
 0003:000010d8       ?c_termination_complete@@3JA 1002b0d8     libucrt:exit.obj
 0003:000010dc       ?thread_local_exit_callback_func@@3P6GXPAXK0@ZA 1002b0dc     libucrt:exit.obj
 0003:000010e8       ?program_name@?1???$common_configure_argv@D@@YAHW4_crt_argv_mode@@@Z@4PADA 1002b0e8     libucrt:argv_parsing.obj
 0003:00001218       ?__acrt_new_handler@@3V?$dual_state_global@P6AHI@Z@__crt_state_management@@A 1002b218     libucrt:new_handler.obj
 0003:00001220       ?module_handles@@3PAPAUHINSTANCE__@@A 1002b220     libucrt:winapi_thunks.obj
 0003:00001270       ?encoded_function_pointers@@3PAPAXA 1002b270     libucrt:winapi_thunks.obj
 0003:000012f8       ?internal_state@?1??_mbtowc_l@@9@4U_Mbstatet@@A 1002b2f8     libucrt:mbtowc.obj
 0003:00001308       ?enable_percent_n@@3IA     1002b308     libucrt:printf_count_output.obj
 0003:00001528       ?__acrt_lock_table@@3PAU_RTL_CRITICAL_SECTION@@A 1002b528     libucrt:locks.obj
 0003:00001678       ?__acrt_locks_initialized@@3IA 1002b678     libucrt:locks.obj
 0003:00001688       ?fSystemSet@@3HA           1002b688     libucrt:mbctype.obj
 0003:0000168c       ?initialized@?1??__acrt_initialize_multibyte@@9@4_NA 1002b68c     libucrt:mbctype.obj
 0003:000016ac       ?ctrlc_action@@3V?$dual_state_global@P6AXH@Z@__crt_state_management@@A 1002b6ac     libucrt:signal.obj
 0003:000016b0       ?ctrlbreak_action@@3V?$dual_state_global@P6AXH@Z@__crt_state_management@@A 1002b6b0     libucrt:signal.obj
 0003:000016b4       ?abort_action@@3V?$dual_state_global@P6AXH@Z@__crt_state_management@@A 1002b6b4     libucrt:signal.obj
 0003:000016b8       ?term_action@@3V?$dual_state_global@P6AXH@Z@__crt_state_management@@A 1002b6b8     libucrt:signal.obj
 0003:000016bc       ?user_matherr@@3V?$dual_state_global@P6AHPAU_exception@@@Z@__crt_state_management@@A 1002b6bc     libucrt:matherr.obj
 0003:000016c0       ?__acrt_global_new_mode@@3V?$dual_state_global@J@__crt_state_management@@A 1002b6c0     libucrt:new_mode.obj
 0003:000016cc       ?internal_pst@?1??__mbrtoc32_utf8@__crt_mbstring@@YAIPA_UPBDIPAU_Mbstatet@@@Z@4U3@A 1002b6cc     libucrt:mbrtoc32.obj
 0003:000016d4       ?__acrt_app_type@@3W4_crt_app_type@@A 1002b6d4     libucrt:report_runtime_error.obj
 0003:000016dc       __pmatherr_set             1002b6dc     libucrt:libm_error.obj
 0004:00000220       $R000000                   1002c220     PointCardRW.res
 0004:00000bc0       $R0009A0                   1002cbc0     PointCardRW.res
 0004:00000ca8       $R000A88                   1002cca8     PointCardRW.res
 0004:00000f10       $R000CF0                   1002cf10     PointCardRW.res
 0004:00001480       $R001260                   1002d480     PointCardRW.res
 0004:00005e58       $R005C38                   10031e58     PointCardRW.res
 0004:00005e90       $R005C70                   10031e90     PointCardRW.res
