 OPOSImageScanner

 Timestamp is 5ed45841 (Mon Jun  1 10:22:09 2020)

 Preferred load address is 10000000

 Start         Length     Name                   Class
 0001:00000000 00000080H .text$di                CODE
 0001:00000080 0001e2c3H .text$mn                CODE
 0001:0001e343 00000036H .text$x                 CODE
 0001:0001e379 00000042H .text$yd                CODE
 0002:00000000 000002fcH .idata$5                DATA
 0002:000002fc 00000004H .00cfg                  DATA
 0002:00000300 00000004H .CRT$XCA                DATA
 0002:00000304 00000004H .CRT$XCL                DATA
 0002:00000308 00000010H .CRT$XCU                DATA
 0002:00000318 00000004H .CRT$XCZ                DATA
 0002:0000031c 00000004H .CRT$XIA                DATA
 0002:00000320 00000010H .CRT$XIC                DATA
 0002:00000330 00000004H .CRT$XIZ                DATA
 0002:00000334 00000004H .CRT$XLA                DATA
 0002:00000338 00000004H .CRT$XLZ                DATA
 0002:0000033c 00000004H .CRT$XPA                DATA
 0002:00000340 00000008H .CRT$XPX                DATA
 0002:00000348 00000004H .CRT$XPXA               DATA
 0002:0000034c 00000004H .CRT$XPZ                DATA
 0002:00000350 00000004H .CRT$XTA                DATA
 0002:00000354 0000000cH .CRT$XTZ                DATA
 0002:00000358 00000000H .gfids$y                DATA
 0002:00000360 000072d8H .rdata                  DATA
 0002:00007638 00000018H .rdata$T                DATA
 0002:00007650 00000178H .rdata$r                DATA
 0002:000077c8 0000001cH .rdata$sxdata           DATA
 0002:000077e4 000003e0H .rdata$zzzdbg           DATA
 0002:00007bc4 00000004H .rtc$IAA                DATA
 0002:00007bc8 00000004H .rtc$IZZ                DATA
 0002:00007bcc 00000004H .rtc$TAA                DATA
 0002:00007bd0 00000004H .rtc$TZZ                DATA
 0002:00007bd4 00000004H .tls                    DATA
 0002:00007bd8 00000004H .tls$                   DATA
 0002:00007bdc 00000004H .tls$ZZZ                DATA
 0002:00007be0 0000062cH .xdata$x                DATA
 0002:0000820c 00000004H ATL$__a                 DATA
 0002:00008210 00000010H ATL$__z                 DATA
 0002:00008220 000000b0H .edata                  DATA
 0002:000082d0 00000078H .idata$2                DATA
 0002:00008348 00000014H .idata$3                DATA
 0002:0000835c 000002fcH .idata$4                DATA
 0002:00008658 00000bceH .idata$6                DATA
 0003:00000000 00000a90H .data                   DATA
 0003:00000a90 00000098H .data$r                 DATA
 0003:00000b28 00000b80H .bss                    DATA
 0004:00000000 00000220H .rsrc$01                DATA
 0004:00000220 000043c8H .rsrc$02                DATA

  Address         Publics by Value              Rva+Base       Lib:Object

 0000:00000000       ___arm64x_redirection_metadata 00000000     <absolute>
 0000:00000000       ___x64_code_ranges_to_entry_points 00000000     <absolute>
 0000:00000000       ___guard_iat_count         00000000     <absolute>
 0000:00000000       ___guard_fids_count        00000000     <absolute>
 0000:00000000       ___guard_longjmp_table     00000000     <absolute>
 0000:00000000       ___hybrid_code_map_count   00000000     <absolute>
 0000:00000000       ___dynamic_value_reloc_table 00000000     <absolute>
 0000:00000000       ___guard_longjmp_count     00000000     <absolute>
 0000:00000000       __except_list              00000000     <absolute>
 0000:00000000       ___arm64x_native_entrypoint 00000000     <absolute>
 0000:00000000       ___guard_fids_table        00000000     <absolute>
 0000:00000000       ___guard_eh_cont_count     00000000     <absolute>
 0000:00000000       ___hybrid_auxiliary_iat    00000000     <absolute>
 0000:00000000       ___guard_iat_table         00000000     <absolute>
 0000:00000000       ___volatile_metadata       00000000     <absolute>
 0000:00000000       ___enclave_config          00000000     <absolute>
 0000:00000000       ___AbsoluteZero            00000000     <absolute>
 0000:00000000       ___guard_eh_cont_table     00000000     <absolute>
 0000:00000000       ___hybrid_code_map         00000000     <absolute>
 0000:00000007       ___safe_se_handler_count   00000007     <absolute>
 0000:0000002c       __tls_array                0000002c     <absolute>
 0000:00000100       ___guard_flags             00000100     <absolute>
 0000:00000000       ___ImageBase               10000000     <linker-defined>
 0001:00000080       ?DupWide@_CW@@AAEXXZ       10001080 f   CWString.obj
 0001:0000009c       ?cw_dup@@YGXPBDAAHAAPA_W1@Z 1000109c f   CWString.obj
 0001:00000124       ?cw_memcpy@@YGHPA_WPBDH@Z  10001124 f   CWString.obj
 0001:00000150       ?cw_strcpy@@YAHPA_WPBD@Z   10001150 f   CWString.obj
 0001:00000163       ?cw_strlen@@YAHPBD@Z       10001163 f   CWString.obj
 0001:0000017c       ??0CAtlComModule@ATL@@QAE@XZ 1000117c f i OposVariant.obj
 0001:000001c1       ??0CAtlWinModule@ATL@@QAE@XZ 100011c1 f i OposVariant.obj
 0001:000001f8       ??0OposDispParms@@QAE@PAVOposVariant@@H@Z 100011f8 f   OposVariant.obj
 0001:00000269       ??1OposDispParms@@QAE@XZ   10001269 f   OposVariant.obj
 0001:00000277       ??A?$CSimpleArray@GV?$CSimpleArrayEqualHelper@G@ATL@@@ATL@@QAEAAGH@Z 10001277 f i OposVariant.obj
 0001:0000029c       ??_Estringdispid@CComTypeInfoHolder@ATL@@QAEPAXI@Z 1000129c f i OposVariant.obj
 0001:00000308       ?AtlWinModuleInit@ATL@@YGJPAU_ATL_WIN_MODULE70@1@@Z 10001308 f i OposVariant.obj
 0001:0000032e       ?AtlWinModuleTerm@ATL@@YGJPAU_ATL_WIN_MODULE70@1@PAUHINSTANCE__@@@Z 1000132e f i OposVariant.obj
 0001:00000391       ?ChangeBSTR@OposVariant@@QAEXPAPA_WAAJ@Z 10001391 f   OposVariant.obj
 0001:000003d2       ?ChangeLONG@OposVariant@@QAEXPAJAAJ@Z 100013d2 f   OposVariant.obj
 0001:00000413       ?GetLONG@OposVariant@@QAEJXZ 10001413 f   OposVariant.obj
 0001:0000042e       ?Init@CComCriticalSection@ATL@@QAEJXZ 1000142e f i OposVariant.obj
 0001:00000456       ?RemoveAll@?$CSimpleArray@PAUHINSTANCE__@@V?$CSimpleArrayEqualHelper@PAUHINSTANCE__@@@ATL@@@ATL@@QAEXXZ 10001456 f i atls:atlbase.obj
 0001:00000456       ?RemoveAll@?$CSimpleArray@GV?$CSimpleArrayEqualHelper@G@ATL@@@ATL@@QAEXXZ 10001456 f i OposVariant.obj
 0001:00000473       ?SetBSTR@OposVariant@@QAEXPA_WAAJ@Z 10001473 f   OposVariant.obj
 0001:000004a7       ?SetBSTR_Copy@OposVariant@@QAEXPA_WAAJ@Z 100014a7 f   OposVariant.obj
 0001:000004f7       ?SetBSTR_InOutPtr@OposVariant@@QAE_NPAPA_WAAJ@Z 100014f7 f   OposVariant.obj
 0001:0000052e       ?SetDispatch_Ptr@OposVariant@@QAEXPAUIDispatch@@AAJ@Z 1000152e f   OposVariant.obj
 0001:00000569       ?SetLONG@OposVariant@@QAEXJ@Z 10001569 f   OposVariant.obj
 0001:0000058b       ?SetLONG_Ptr@OposVariant@@QAEXPAJAAJ@Z 1000158b f   OposVariant.obj
 0001:000005be       ?SetString@OposVariant@@QAEXPB_WAAJ@Z 100015be f   OposVariant.obj
 0001:00000604       ?SetVARIANT_BOOL@OposVariant@@QAEXF@Z 10001604 f   OposVariant.obj
 0001:0000062e       ?Term@CAtlComModule@ATL@@QAEXXZ 1000162e f i OposVariant.obj
 0001:00000678       ?_AtlRaiseException@ATL@@YAXKK@Z 10001678 f i OposVariant.obj
 0001:0000068d       ?Release@?$CComObject@VCOPOSImageScanner@@@ATL@@WJI@AGKXZ 1000168d f i ImageScanner.obj
 0001:0000069a       ?QueryInterface@?$CComObject@VCOPOSImageScanner@@@ATL@@WJM@AGJABU_GUID@@PAPAX@Z 1000169a f i ImageScanner.obj
 0001:000006a7       ?AddRef@?$CComObject@VCOPOSImageScanner@@@ATL@@WJM@AGKXZ 100016a7 f i ImageScanner.obj
 0001:000006b4       ?Release@?$CComObject@VCOPOSImageScanner@@@ATL@@WJM@AGKXZ 100016b4 f i ImageScanner.obj
 0001:000006c1       ?QueryInterface@?$CComObject@VCOPOSImageScanner@@@ATL@@WKA@AGJABU_GUID@@PAPAX@Z 100016c1 f i ImageScanner.obj
 0001:000006ce       ?AddRef@?$CComObject@VCOPOSImageScanner@@@ATL@@WKA@AGKXZ 100016ce f i ImageScanner.obj
 0001:000006db       ?Release@?$CComObject@VCOPOSImageScanner@@@ATL@@WKA@AGKXZ 100016db f i ImageScanner.obj
 0001:000006e8       ?AddRef@?$CComObject@VCOPOSImageScanner@@@ATL@@WKI@AGKXZ 100016e8 f i ImageScanner.obj
 0001:000006f5       ?Release@?$CComObject@VCOPOSImageScanner@@@ATL@@WKI@AGKXZ 100016f5 f i ImageScanner.obj
 0001:00000702       ?AddRef@?$CComObject@VCOPOSImageScanner@@@ATL@@WLE@AGKXZ 10001702 f i ImageScanner.obj
 0001:0000070f       ?Release@?$CComObject@VCOPOSImageScanner@@@ATL@@WLE@AGKXZ 1000170f f i ImageScanner.obj
 0001:0000071c       ??_E?$CComContainedObject@VCOPOSImageScanner@@@ATL@@W3AEPAXI@Z 1000171c f i ImageScanner.obj
 0001:00000724       ??_E?$CComContainedObject@VCOPOSImageScanner@@@ATL@@WEM@AEPAXI@Z 10001724 f i ImageScanner.obj
 0001:0000072c       ?QueryInterface@?$CComContainedObject@VCOPOSImageScanner@@@ATL@@WHA@AGJABU_GUID@@PAPAX@Z 1000172c f i ImageScanner.obj
 0001:00000736       ?AddRef@?$CComContainedObject@VCOPOSImageScanner@@@ATL@@WHA@AGKXZ 10001736 f i ImageScanner.obj
 0001:00000740       ?Release@?$CComContainedObject@VCOPOSImageScanner@@@ATL@@WHA@AGKXZ 10001740 f i ImageScanner.obj
 0001:0000074a       ?QueryInterface@?$CComContainedObject@VCOPOSImageScanner@@@ATL@@WHE@AGJABU_GUID@@PAPAX@Z 1000174a f i ImageScanner.obj
 0001:00000754       ?AddRef@?$CComContainedObject@VCOPOSImageScanner@@@ATL@@WHE@AGKXZ 10001754 f i ImageScanner.obj
 0001:0000075e       ?Release@?$CComContainedObject@VCOPOSImageScanner@@@ATL@@WHE@AGKXZ 1000175e f i ImageScanner.obj
 0001:00000768       ?QueryInterface@?$CComContainedObject@VCOPOSImageScanner@@@ATL@@WHI@AGJABU_GUID@@PAPAX@Z 10001768 f i ImageScanner.obj
 0001:00000772       ?AddRef@?$CComContainedObject@VCOPOSImageScanner@@@ATL@@WHI@AGKXZ 10001772 f i ImageScanner.obj
 0001:0000077c       ?Release@?$CComContainedObject@VCOPOSImageScanner@@@ATL@@WHI@AGKXZ 1000177c f i ImageScanner.obj
 0001:00000786       ?QueryInterface@?$CComContainedObject@VCOPOSImageScanner@@@ATL@@WHM@AGJABU_GUID@@PAPAX@Z 10001786 f i ImageScanner.obj
 0001:00000790       ?AddRef@?$CComContainedObject@VCOPOSImageScanner@@@ATL@@WHM@AGKXZ 10001790 f i ImageScanner.obj
 0001:0000079a       ?Release@?$CComContainedObject@VCOPOSImageScanner@@@ATL@@WHM@AGKXZ 1000179a f i ImageScanner.obj
 0001:000007a4       ?QueryInterface@?$CComContainedObject@VCOPOSImageScanner@@@ATL@@WIA@AGJABU_GUID@@PAPAX@Z 100017a4 f i ImageScanner.obj
 0001:000007b1       ?AddRef@?$CComContainedObject@VCOPOSImageScanner@@@ATL@@WIA@AGKXZ 100017b1 f i ImageScanner.obj
 0001:000007be       ?Release@?$CComContainedObject@VCOPOSImageScanner@@@ATL@@WIA@AGKXZ 100017be f i ImageScanner.obj
 0001:000007cb       ?QueryInterface@?$CComContainedObject@VCOPOSImageScanner@@@ATL@@WIE@AGJABU_GUID@@PAPAX@Z 100017cb f i ImageScanner.obj
 0001:000007d8       ?AddRef@?$CComContainedObject@VCOPOSImageScanner@@@ATL@@WIE@AGKXZ 100017d8 f i ImageScanner.obj
 0001:000007e5       ?Release@?$CComContainedObject@VCOPOSImageScanner@@@ATL@@WIE@AGKXZ 100017e5 f i ImageScanner.obj
 0001:000007f2       ?QueryInterface@?$CComContainedObject@VCOPOSImageScanner@@@ATL@@WII@AGJABU_GUID@@PAPAX@Z 100017f2 f i ImageScanner.obj
 0001:000007ff       ?AddRef@?$CComContainedObject@VCOPOSImageScanner@@@ATL@@WII@AGKXZ 100017ff f i ImageScanner.obj
 0001:0000080c       ?Release@?$CComContainedObject@VCOPOSImageScanner@@@ATL@@WII@AGKXZ 1000180c f i ImageScanner.obj
 0001:00000819       ?QueryInterface@?$CComContainedObject@VCOPOSImageScanner@@@ATL@@WIM@AGJABU_GUID@@PAPAX@Z 10001819 f i ImageScanner.obj
 0001:00000826       ?AddRef@?$CComContainedObject@VCOPOSImageScanner@@@ATL@@WIM@AGKXZ 10001826 f i ImageScanner.obj
 0001:00000833       ?Release@?$CComContainedObject@VCOPOSImageScanner@@@ATL@@WIM@AGKXZ 10001833 f i ImageScanner.obj
 0001:00000840       ?QueryInterface@?$CComContainedObject@VCOPOSImageScanner@@@ATL@@WJA@AGJABU_GUID@@PAPAX@Z 10001840 f i ImageScanner.obj
 0001:0000084d       ?AddRef@?$CComContainedObject@VCOPOSImageScanner@@@ATL@@WJA@AGKXZ 1000184d f i ImageScanner.obj
 0001:0000085a       ?Release@?$CComContainedObject@VCOPOSImageScanner@@@ATL@@WJA@AGKXZ 1000185a f i ImageScanner.obj
 0001:00000867       ?QueryInterface@?$CComContainedObject@VCOPOSImageScanner@@@ATL@@WJE@AGJABU_GUID@@PAPAX@Z 10001867 f i ImageScanner.obj
 0001:00000874       ?AddRef@?$CComContainedObject@VCOPOSImageScanner@@@ATL@@WJE@AGKXZ 10001874 f i ImageScanner.obj
 0001:00000881       ?Release@?$CComContainedObject@VCOPOSImageScanner@@@ATL@@WJE@AGKXZ 10001881 f i ImageScanner.obj
 0001:0000088e       ?QueryInterface@?$CComContainedObject@VCOPOSImageScanner@@@ATL@@WJI@AGJABU_GUID@@PAPAX@Z 1000188e f i ImageScanner.obj
 0001:0000089b       ?AddRef@?$CComContainedObject@VCOPOSImageScanner@@@ATL@@WJI@AGKXZ 1000189b f i ImageScanner.obj
 0001:000008a8       ?Release@?$CComContainedObject@VCOPOSImageScanner@@@ATL@@WJI@AGKXZ 100018a8 f i ImageScanner.obj
 0001:000008b5       ?QueryInterface@?$CComContainedObject@VCOPOSImageScanner@@@ATL@@WJM@AGJABU_GUID@@PAPAX@Z 100018b5 f i ImageScanner.obj
 0001:000008c2       ?AddRef@?$CComContainedObject@VCOPOSImageScanner@@@ATL@@WJM@AGKXZ 100018c2 f i ImageScanner.obj
 0001:000008cf       ?Release@?$CComContainedObject@VCOPOSImageScanner@@@ATL@@WJM@AGKXZ 100018cf f i ImageScanner.obj
 0001:000008dc       ?QueryInterface@?$CComContainedObject@VCOPOSImageScanner@@@ATL@@WKA@AGJABU_GUID@@PAPAX@Z 100018dc f i ImageScanner.obj
 0001:000008e9       ?AddRef@?$CComContainedObject@VCOPOSImageScanner@@@ATL@@WKA@AGKXZ 100018e9 f i ImageScanner.obj
 0001:000008f6       ?Release@?$CComContainedObject@VCOPOSImageScanner@@@ATL@@WKA@AGKXZ 100018f6 f i ImageScanner.obj
 0001:00000903       ?AddRef@?$CComContainedObject@VCOPOSImageScanner@@@ATL@@WKI@AGKXZ 10001903 f i ImageScanner.obj
 0001:00000910       ?Release@?$CComContainedObject@VCOPOSImageScanner@@@ATL@@WKI@AGKXZ 10001910 f i ImageScanner.obj
 0001:0000091d       ?AddRef@?$CComContainedObject@VCOPOSImageScanner@@@ATL@@WLE@AGKXZ 1000191d f i ImageScanner.obj
 0001:0000092a       ?Release@?$CComContainedObject@VCOPOSImageScanner@@@ATL@@WLE@AGKXZ 1000192a f i ImageScanner.obj
 0001:00000937       ?CreateInstance@CComClassFactory@ATL@@UAGJPAUIUnknown@@ABU_GUID@@PAPAX@Z 10001937 f i ImageScanner.obj
 0001:00000975       ?LockServer@CComClassFactory@ATL@@UAGJH@Z 10001975 f i ImageScanner.obj
 0001:00000994       ??_ECComClassFactory@ATL@@UAEPAXI@Z 10001994 f i ImageScanner.obj
 0001:00000994       ??_GCComClassFactory@ATL@@UAEPAXI@Z 10001994 f i ImageScanner.obj
 0001:000009bf       ?GetWindowProc@?$CWindowImplBaseT@VCWindow@ATL@@V?$CWinTraits@$0FGAAAAAA@$0A@@2@@ATL@@UAEP6GJPAUHWND__@@IIJ@ZXZ 100019bf f i ImageScanner.obj
 0001:000009c5       ?StartWindowProc@?$CWindowImplBaseT@VCWindow@ATL@@V?$CWinTraits@$0FGAAAAAA@$0A@@2@@ATL@@SGJPAUHWND__@@IIJ@Z 100019c5 f i ImageScanner.obj
 0001:00000a19       ?ObjectMain@CComObjectRootBase@ATL@@SGX_N@Z 10001a19 f i ImageScanner.obj
 0001:00000a19       ?OnFinalMessage@?$CWindowImplBaseT@VCWindow@ATL@@V?$CWinTraits@$0FGAAAAAA@$0A@@2@@ATL@@UAEXPAUHWND__@@@Z 10001a19 f i ImageScanner.obj
 0001:00000a1c       ?GetTypeInfoCount@?$IDispatchImpl@UIOPOSImageScanner@@$1?IID_IOPOSImageScanner@@3U_GUID@@B$1?LIBID_OposImageScanner_CCO@@3U3@B$00$0A@VCComTypeInfoHolder@ATL@@@ATL@@UAGJPAI@Z 10001a1c f i ImageScanner.obj
 0001:00000a39       ?GetTypeInfo@?$IDispatchImpl@UIOPOSImageScanner@@$1?IID_IOPOSImageScanner@@3U_GUID@@B$1?LIBID_OposImageScanner_CCO@@3U3@B$00$0A@VCComTypeInfoHolder@ATL@@@ATL@@UAGJIKPAPAUITypeInfo@@@Z 10001a39 f i ImageScanner.obj
 0001:00000a5d       ?GetIDsOfNames@?$IDispatchImpl@UIOPOSImageScanner@@$1?IID_IOPOSImageScanner@@3U_GUID@@B$1?LIBID_OposImageScanner_CCO@@3U3@B$00$0A@VCComTypeInfoHolder@ATL@@@ATL@@UAGJABU_GUID@@PAPA_WIKPAJ@Z 10001a5d f i ImageScanner.obj
 0001:00000a7d       ?Invoke@?$IDispatchImpl@UIOPOSImageScanner@@$1?IID_IOPOSImageScanner@@3U_GUID@@B$1?LIBID_OposImageScanner_CCO@@3U3@B$00$0A@VCComTypeInfoHolder@ATL@@@ATL@@UAGJJABU_GUID@@KGPAUtagDISPPARAMS@@PAUtagVARIANT@@PAUtagEXCEPINFO@@PAI@Z 10001a7d f i ImageScanner.obj
 0001:00000a8b       ?CreateControlWindow@?$CComControl@VCOPOSImageScanner@@V?$CWindowImpl@VCOPOSImageScanner@@VCWindow@ATL@@V?$CWinTraits@$0FGAAAAAA@$0A@@3@@ATL@@@ATL@@UAEPAUHWND__@@PAU3@AAUtagRECT@@@Z 10001a8b f i ImageScanner.obj
 0001:00000aba       ?ControlQueryInterface@?$CComControl@VCOPOSImageScanner@@V?$CWindowImpl@VCOPOSImageScanner@@VCWindow@ATL@@V?$CWinTraits@$0FGAAAAAA@$0A@@3@@ATL@@@ATL@@UAEJABU_GUID@@PAPAX@Z 10001aba f i ImageScanner.obj
 0001:00000ad5       ?GetClassID@?$IPersistStorageImpl@VCOPOSImageScanner@@@ATL@@UAGJPAU_GUID@@@Z 10001ad5 f i ImageScanner.obj
 0001:00000ad5       ?GetClassID@?$IPersistStreamInitImpl@VCOPOSImageScanner@@@ATL@@UAGJPAU_GUID@@@Z 10001ad5 f i ImageScanner.obj
 0001:00000ad5       ?GetUserClassID@?$IOleObjectImpl@VCOPOSImageScanner@@@ATL@@UAGJPAU_GUID@@@Z 10001ad5 f i ImageScanner.obj
 0001:00000af9       ?IsDirty@?$IPersistStreamInitImpl@VCOPOSImageScanner@@@ATL@@UAGJXZ 10001af9 f i ImageScanner.obj
 0001:00000b18       ?Load@?$IPersistStreamInitImpl@VCOPOSImageScanner@@@ATL@@UAGJPAUIStream@@@Z 10001b18 f i ImageScanner.obj
 0001:00000b37       ?Save@?$IPersistStreamInitImpl@VCOPOSImageScanner@@@ATL@@UAGJPAUIStream@@H@Z 10001b37 f i ImageScanner.obj
 0001:00000b59       ?GetSizeMax@?$IPersistStreamInitImpl@VCOPOSImageScanner@@@ATL@@UAGJPAT_ULARGE_INTEGER@@@Z 10001b59 f i ImageScanner.obj
 0001:00000d38       ?InitNew@?$IPersistStreamInitImpl@VCOPOSImageScanner@@@ATL@@UAGJXZ 10001d38 f i ImageScanner.obj
 0001:00000d55       ?OnMnemonic@?$IOleControlImpl@VCOPOSImageScanner@@@ATL@@UAGJPAUtagMSG@@@Z 10001d55 f i ImageScanner.obj
 0001:00000d55       ?SetColorScheme@?$IOleObjectImpl@VCOPOSImageScanner@@@ATL@@UAGJPAUtagLOGPALETTE@@@Z 10001d55 f i ImageScanner.obj
 0001:00000d55       ?Unfreeze@?$IViewObjectExImpl@VCOPOSImageScanner@@@ATL@@UAGJK@Z 10001d55 f i ImageScanner.obj
 0001:00000d55       ?SOOutputCompleteDummy@COPOSImageScanner@@MAGJJ@Z 10001d55 f i ImageScanner.obj
 0001:00000d55       ?ContextSensitiveHelp@?$IOleInPlaceActiveObjectImpl@VCOPOSImageScanner@@@ATL@@UAGJH@Z 10001d55 f i ImageScanner.obj
 0001:00000d55       ?QueryGetData@?$IDataObjectImpl@VCOPOSImageScanner@@@ATL@@UAGJPAUtagFORMATETC@@@Z 10001d55 f i ImageScanner.obj
 0001:00000d55       ?GetDropTarget@?$IOleInPlaceObjectWindowlessImpl@VCOPOSImageScanner@@@ATL@@UAGJPAPAUIDropTarget@@@Z 10001d55 f i ImageScanner.obj
 0001:00000d55       ?GetControlInfo@?$IOleControlImpl@VCOPOSImageScanner@@@ATL@@UAGJPAUtagCONTROLINFO@@@Z 10001d55 f i ImageScanner.obj
 0001:00000d55       ?ContextSensitiveHelp@?$IOleInPlaceObjectWindowlessImpl@VCOPOSImageScanner@@@ATL@@UAGJH@Z 10001d55 f i ImageScanner.obj
 0001:00000d5d       ?EnableModeless@?$IOleInPlaceActiveObjectImpl@VCOPOSImageScanner@@@ATL@@UAGJH@Z 10001d5d f i ImageScanner.obj
 0001:00000d5d       ?SaveCompleted@?$IPersistStorageImpl@VCOPOSImageScanner@@@ATL@@UAGJPAUIStorage@@@Z 10001d5d f i ImageScanner.obj
 0001:00000d5d       ?OnAmbientPropertyChange@?$IOleControlImpl@VCOPOSImageScanner@@@ATL@@UAGJJ@Z 10001d5d f i ImageScanner.obj
 0001:00000d5d       ?OnFrameWindowActivate@?$IOleInPlaceActiveObjectImpl@VCOPOSImageScanner@@@ATL@@UAGJH@Z 10001d5d f i ImageScanner.obj
 0001:00000d62       ?SetClientSite@?$IOleObjectImpl@VCOPOSImageScanner@@@ATL@@UAGJPAUIOleClientSite@@@Z 10001d62 f i ImageScanner.obj
 0001:00000d7f       ?GetClientSite@?$IOleObjectImpl@VCOPOSImageScanner@@@ATL@@UAGJPAPAUIOleClientSite@@@Z 10001d7f f i ImageScanner.obj
 0001:00000d9c       ?SetHostNames@?$IOleObjectImpl@VCOPOSImageScanner@@@ATL@@UAGJPB_W0@Z 10001d9c f i ImageScanner.obj
 0001:00000da1       ?Close@?$IOleObjectImpl@VCOPOSImageScanner@@@ATL@@UAGJK@Z 10001da1 f i ImageScanner.obj
 0001:00000dbe       ?EnumFormatEtc@?$IDataObjectImpl@VCOPOSImageScanner@@@ATL@@UAGJKPAPAUIEnumFORMATETC@@@Z 10001dbe f i ImageScanner.obj
 0001:00000dbe       ?GetClipboardData@?$IOleObjectImpl@VCOPOSImageScanner@@@ATL@@UAGJKPAPAUIDataObject@@@Z 10001dbe f i ImageScanner.obj
 0001:00000dbe       ?GetCanonicalFormatEtc@?$IDataObjectImpl@VCOPOSImageScanner@@@ATL@@UAGJPAUtagFORMATETC@@0@Z 10001dbe f i ImageScanner.obj
 0001:00000dbe       ?QueryInterface@CRegObject@ATL@@UAGJABU_GUID@@PAPAX@Z 10001dbe f i ImageScanner.obj
 0001:00000dbe       ?GetDataHere@?$IDataObjectImpl@VCOPOSImageScanner@@@ATL@@UAGJPAUtagFORMATETC@@PAUtagSTGMEDIUM@@@Z 10001dbe f i ImageScanner.obj
 0001:00000dbe       ?GetRect@?$IViewObjectExImpl@VCOPOSImageScanner@@@ATL@@UAGJKPAU_RECTL@@@Z 10001dbe f i ImageScanner.obj
 0001:00000dbe       ?SetMoniker@?$IOleObjectImpl@VCOPOSImageScanner@@@ATL@@UAGJKPAUIMoniker@@@Z 10001dbe f i ImageScanner.obj
 0001:00000dc6       ?GetMoniker@?$IOleObjectImpl@VCOPOSImageScanner@@@ATL@@UAGJKKPAPAUIMoniker@@@Z 10001dc6 f i ImageScanner.obj
 0001:00000dc6       ?SetData@?$IDataObjectImpl@VCOPOSImageScanner@@@ATL@@UAGJPAUtagFORMATETC@@PAUtagSTGMEDIUM@@H@Z 10001dc6 f i ImageScanner.obj
 0001:00000dc6       ?InitFromData@?$IOleObjectImpl@VCOPOSImageScanner@@@ATL@@UAGJPAUIDataObject@@HK@Z 10001dc6 f i ImageScanner.obj
 0001:00000dce       ?DoVerb@?$IOleObjectImpl@VCOPOSImageScanner@@@ATL@@UAGJJPAUtagMSG@@PAUIOleClientSite@@JPAUHWND__@@PBUtagRECT@@@Z 10001dce f i ImageScanner.obj
 0001:00000ec2       ?EnumVerbs@?$IOleObjectImpl@VCOPOSImageScanner@@@ATL@@UAGJPAPAUIEnumOLEVERB@@@Z 10001ec2 f i ImageScanner.obj
 0001:00000ee4       ?IsUpToDate@?$IOleObjectImpl@VCOPOSImageScanner@@@ATL@@UAGJXZ 10001ee4 f i ImageScanner.obj
 0001:00000ee4       ?HandsOffStorage@?$IPersistStorageImpl@VCOPOSImageScanner@@@ATL@@UAGJXZ 10001ee4 f i ImageScanner.obj
 0001:00000ee4       ?Release@CRegObject@ATL@@UAGKXZ 10001ee4 f i ImageScanner.obj
 0001:00000ee4       ?Update@?$IOleObjectImpl@VCOPOSImageScanner@@@ATL@@UAGJXZ 10001ee4 f i ImageScanner.obj
 0001:00000ee9       ?GetUserType@?$IOleObjectImpl@VCOPOSImageScanner@@@ATL@@UAGJKPAPA_W@Z 10001ee9 f i ImageScanner.obj
 0001:00000f01       ?SetExtent@?$IOleObjectImpl@VCOPOSImageScanner@@@ATL@@UAGJKPAUtagSIZE@@@Z 10001f01 f i ImageScanner.obj
 0001:00000f21       ?GetExtent@?$IOleObjectImpl@VCOPOSImageScanner@@@ATL@@UAGJKPAUtagSIZE@@@Z 10001f21 f i ImageScanner.obj
 0001:00000f5f       ?Advise@?$IOleObjectImpl@VCOPOSImageScanner@@@ATL@@UAGJPAUIAdviseSink@@PAK@Z 10001f5f f i ImageScanner.obj
 0001:00000f7f       ?Unadvise@?$IOleObjectImpl@VCOPOSImageScanner@@@ATL@@UAGJK@Z 10001f7f f i ImageScanner.obj
 0001:00000fae       ?EnumAdvise@?$IOleObjectImpl@VCOPOSImageScanner@@@ATL@@UAGJPAPAUIEnumSTATDATA@@@Z 10001fae f i ImageScanner.obj
 0001:00000fee       ?GetMiscStatus@?$IOleObjectImpl@VCOPOSImageScanner@@@ATL@@UAGJKPAK@Z 10001fee f i ImageScanner.obj
 0001:00001006       ?GetWindow@?$IOleInPlaceActiveObjectImpl@VCOPOSImageScanner@@@ATL@@UAGJPAPAUHWND__@@@Z 10002006 f i ImageScanner.obj
 0001:00001053       ?TranslateAcceleratorW@?$IOleInPlaceActiveObjectImpl@VCOPOSImageScanner@@@ATL@@UAGJPAUtagMSG@@@Z 10002053 f i ImageScanner.obj
 0001:00001101       ?OnDocWindowActivate@?$IOleInPlaceActiveObjectImpl@VCOPOSImageScanner@@@ATL@@UAGJH@Z 10002101 f i ImageScanner.obj
 0001:00001123       ?ResizeBorder@?$IOleInPlaceActiveObjectImpl@VCOPOSImageScanner@@@ATL@@UAGJPBUtagRECT@@PAUIOleInPlaceUIWindow@@H@Z 10002123 f i ImageScanner.obj
 0001:00001128       ?Draw@?$IViewObjectExImpl@VCOPOSImageScanner@@@ATL@@UAGJKJPAXPAUtagDVTARGETDEVICE@@PAUHDC__@@2PBU_RECTL@@3P6GHK@ZK@Z 10002128 f i ImageScanner.obj
 0001:0000115a       ?GetColorSet@?$IViewObjectExImpl@VCOPOSImageScanner@@@ATL@@UAGJKJPAXPAUtagDVTARGETDEVICE@@PAUHDC__@@PAPAUtagLOGPALETTE@@@Z 1000215a f i ImageScanner.obj
 0001:00001162       ?Freeze@?$IViewObjectExImpl@VCOPOSImageScanner@@@ATL@@UAGJKJPAXPAK@Z 10002162 f i ImageScanner.obj
 0001:0000116a       ?SetAdvise@?$IViewObjectExImpl@VCOPOSImageScanner@@@ATL@@UAGJKKPAUIAdviseSink@@@Z 1000216a f i ImageScanner.obj
 0001:00001189       ?GetAdvise@?$IViewObjectExImpl@VCOPOSImageScanner@@@ATL@@UAGJPAK0PAPAUIAdviseSink@@@Z 10002189 f i ImageScanner.obj
 0001:000011be       ?GetExtent@?$IViewObjectExImpl@VCOPOSImageScanner@@@ATL@@UAGJKJPAUtagDVTARGETDEVICE@@PAUtagSIZE@@@Z 100021be f i ImageScanner.obj
 0001:000011ef       ?GetViewStatus@?$IViewObjectExImpl@VCOPOSImageScanner@@@ATL@@UAGJPAK@Z 100021ef f i ImageScanner.obj
 0001:0000120c       ?QueryHitPoint@?$IViewObjectExImpl@VCOPOSImageScanner@@@ATL@@UAGJKPBUtagRECT@@UtagPOINT@@JPAK@Z 1000220c f i ImageScanner.obj
 0001:0000124d       ?QueryHitRect@?$IViewObjectExImpl@VCOPOSImageScanner@@@ATL@@UAGJKPBUtagRECT@@0JPAK@Z 1000224d f i ImageScanner.obj
 0001:000012a8       ?GetNaturalExtent@?$IViewObjectExImpl@VCOPOSImageScanner@@@ATL@@UAGJKJPAUtagDVTARGETDEVICE@@PAUHDC__@@PAUtagExtentInfo@@PAUtagSIZE@@@Z 100022a8 f i ImageScanner.obj
 0001:000012f3       ?GetWindow@?$IOleInPlaceObjectWindowlessImpl@VCOPOSImageScanner@@@ATL@@UAGJPAPAUHWND__@@@Z 100022f3 f i ImageScanner.obj
 0001:00001340       ?InPlaceDeactivate@?$IOleInPlaceObjectWindowlessImpl@VCOPOSImageScanner@@@ATL@@UAGJXZ 10002340 f i ImageScanner.obj
 0001:0000135a       ?UIDeactivate@?$IOleInPlaceObjectWindowlessImpl@VCOPOSImageScanner@@@ATL@@UAGJXZ 1000235a f i ImageScanner.obj
 0001:00001374       ?SetObjectRects@?$IOleInPlaceObjectWindowlessImpl@VCOPOSImageScanner@@@ATL@@UAGJPBUtagRECT@@0@Z 10002374 f i ImageScanner.obj
 0001:00001394       ?ReactivateAndUndo@?$IOleInPlaceObjectWindowlessImpl@VCOPOSImageScanner@@@ATL@@UAGJXZ 10002394 f i ImageScanner.obj
 0001:0000139c       ?OnWindowMessage@?$IOleInPlaceObjectWindowlessImpl@VCOPOSImageScanner@@@ATL@@UAGJIIJPAJ@Z 1000239c f i ImageScanner.obj
 0001:0000140c       ?EnumConnectionPoints@?$IConnectionPointContainerImpl@VCOPOSImageScanner@@@ATL@@UAGJPAPAUIEnumConnectionPoints@@@Z 1000240c f i ImageScanner.obj
 0001:00001598       ?FindConnectionPoint@?$IConnectionPointContainerImpl@VCOPOSImageScanner@@@ATL@@UAGJABU_GUID@@PAPAUIConnectionPoint@@@Z 10002598 f i ImageScanner.obj
 0001:0000163b       ?IsDirty@?$IPersistStorageImpl@VCOPOSImageScanner@@@ATL@@UAGJXZ 1000263b f i ImageScanner.obj
 0001:0000166b       ?InitNew@?$IPersistStorageImpl@VCOPOSImageScanner@@@ATL@@UAGJPAUIStorage@@@Z 1000266b f i ImageScanner.obj
 0001:0000169b       ?Load@?$IPersistStorageImpl@VCOPOSImageScanner@@@ATL@@UAGJPAUIStorage@@@Z 1000269b f i ImageScanner.obj
 0001:00001707       ?Save@?$IPersistStorageImpl@VCOPOSImageScanner@@@ATL@@UAGJPAUIStorage@@H@Z 10002707 f i ImageScanner.obj
 0001:0000177a       ?GetPages@?$ISpecifyPropertyPagesImpl@VCOPOSImageScanner@@@ATL@@UAGJPAUtagCAUUID@@@Z 1000277a f i ImageScanner.obj
 0001:00001791       ?QuickActivate@?$IQuickActivateImpl@VCOPOSImageScanner@@@ATL@@UAGJPAUtagQACONTAINER@@PAUtagQACONTROL@@@Z 10002791 f i ImageScanner.obj
 0001:000017b4       ?SetContentExtent@?$IQuickActivateImpl@VCOPOSImageScanner@@@ATL@@UAGJPAUtagSIZE@@@Z 100027b4 f i ImageScanner.obj
 0001:000017e0       ?GetContentExtent@?$IQuickActivateImpl@VCOPOSImageScanner@@@ATL@@UAGJPAUtagSIZE@@@Z 100027e0 f i ImageScanner.obj
 0001:0000181a       ?GetData@?$IDataObjectImpl@VCOPOSImageScanner@@@ATL@@UAGJPAUtagFORMATETC@@PAUtagSTGMEDIUM@@@Z 1000281a f i ImageScanner.obj
 0001:0000183d       ?DAdvise@?$IDataObjectImpl@VCOPOSImageScanner@@@ATL@@UAGJPAUtagFORMATETC@@KPAUIAdviseSink@@PAK@Z 1000283d f i ImageScanner.obj
 0001:0000187e       ?DUnadvise@?$IDataObjectImpl@VCOPOSImageScanner@@@ATL@@UAGJK@Z 1000287e f i ImageScanner.obj
 0001:000018ac       ?EnumDAdvise@?$IDataObjectImpl@VCOPOSImageScanner@@@ATL@@UAGJPAPAUIEnumSTATDATA@@@Z 100028ac f i ImageScanner.obj
 0001:000018eb       ?GetClassInfoW@?$IProvideClassInfo2Impl@$1?CLSID_OPOSImageScanner@@3U_GUID@@B$1?DIID__IOPOSImageScannerEvents@@3U2@B$1?LIBID_OposImageScanner_CCO@@3U2@B$00$0A@VCComTypeInfoHolder@ATL@@@ATL@@UAGJPAPAUITypeInfo@@@Z 100028eb f i ImageScanner.obj
 0001:00001901       ?GetGUID@?$IProvideClassInfo2Impl@$1?CLSID_OPOSImageScanner@@3U_GUID@@B$1?DIID__IOPOSImageScannerEvents@@3U2@B$1?LIBID_OposImageScanner_CCO@@3U2@B$00$0A@VCComTypeInfoHolder@ATL@@@ATL@@UAGJKPAU_GUID@@@Z 10002901 f i ImageScanner.obj
 0001:0000193f       __get_startup_argv_mode    1000293f f i LIBCMT:argv_mode.obj
 0001:0000193f       ?FAccessAllowed@?$IObjectSafetyImpl@VCOPOSImageScanner@@$02@ATL@@MAEHXZ 1000293f f i ImageScanner.obj
 0001:00001943       ?GetInterfaceSafetyOptions@?$IObjectSafetyImpl@VCOPOSImageScanner@@$02@ATL@@UAGJABU_GUID@@PAK1@Z 10002943 f i ImageScanner.obj
 0001:000019b7       ?SetInterfaceSafetyOptions@?$IObjectSafetyImpl@VCOPOSImageScanner@@$02@ATL@@UAGJABU_GUID@@KK@Z 100029b7 f i ImageScanner.obj
 0001:00001a31       ?_LocCPQueryInterface@?$IConnectionPointImpl@VCOPOSImageScanner@@$1?DIID__IOPOSImageScannerEvents@@3U_GUID@@BVCComDynamicUnkArray@ATL@@@ATL@@UAGJABU_GUID@@PAPAX@Z 10002a31 f i ImageScanner.obj
 0001:00001a31       ?_LocCPQueryInterface@?$IConnectionPointImpl@VCOPOSImageScanner@@$1?IID_IPropertyNotifySink@@3U_GUID@@BVCComDynamicUnkArray@ATL@@@ATL@@UAGJABU_GUID@@PAPAX@Z 10002a31 f i ImageScanner.obj
 0001:00001a7e       ?GetConnectionInterface@?$IConnectionPointImpl@VCOPOSImageScanner@@$1?IID_IPropertyNotifySink@@3U_GUID@@BVCComDynamicUnkArray@ATL@@@ATL@@UAGJPAU_GUID@@@Z 10002a7e f i ImageScanner.obj
 0001:00001aa2       ?GetConnectionPointContainer@?$IConnectionPointImpl@VCOPOSImageScanner@@$1?IID_IPropertyNotifySink@@3U_GUID@@BVCComDynamicUnkArray@ATL@@@ATL@@UAGJPAPAUIConnectionPointContainer@@@Z 10002aa2 f i ImageScanner.obj
 0001:00001ac5       ?Advise@?$IConnectionPointImpl@VCOPOSImageScanner@@$1?IID_IPropertyNotifySink@@3U_GUID@@BVCComDynamicUnkArray@ATL@@@ATL@@UAGJPAUIUnknown@@PAK@Z 10002ac5 f i ImageScanner.obj
 0001:00001ac5       ?Advise@?$IConnectionPointImpl@VCOPOSImageScanner@@$1?DIID__IOPOSImageScannerEvents@@3U_GUID@@BVCComDynamicUnkArray@ATL@@@ATL@@UAGJPAUIUnknown@@PAK@Z 10002ac5 f i ImageScanner.obj
 0001:00001b65       ?Unadvise@?$IConnectionPointImpl@VCOPOSImageScanner@@$1?DIID__IOPOSImageScannerEvents@@3U_GUID@@BVCComDynamicUnkArray@ATL@@@ATL@@UAGJK@Z 10002b65 f i ImageScanner.obj
 0001:00001b65       ?Unadvise@?$IConnectionPointImpl@VCOPOSImageScanner@@$1?IID_IPropertyNotifySink@@3U_GUID@@BVCComDynamicUnkArray@ATL@@@ATL@@UAGJK@Z 10002b65 f i ImageScanner.obj
 0001:00001ba5       ?EnumConnections@?$IConnectionPointImpl@VCOPOSImageScanner@@$1?DIID__IOPOSImageScannerEvents@@3U_GUID@@BVCComDynamicUnkArray@ATL@@@ATL@@UAGJPAPAUIEnumConnections@@@Z 10002ba5 f i ImageScanner.obj
 0001:00001ba5       ?EnumConnections@?$IConnectionPointImpl@VCOPOSImageScanner@@$1?IID_IPropertyNotifySink@@3U_GUID@@BVCComDynamicUnkArray@ATL@@@ATL@@UAGJPAPAUIEnumConnections@@@Z 10002ba5 f i ImageScanner.obj
 0001:00001ca0       ?GetCategoryMap@CComObjectRootBase@ATL@@SAPBU_ATL_CATMAP_ENTRY@2@XZ 10002ca0 f i ImageScanner.obj
 0001:00001ca0       ?GetObjectDescription@?$CComCoClass@VCOPOSImageScanner@@$1?CLSID_OPOSImageScanner@@3U_GUID@@B@ATL@@SGPB_WXZ 10002ca0 f i ImageScanner.obj
 0001:00001ca3       ?GetConnectionInterface@?$IConnectionPointImpl@VCOPOSImageScanner@@$1?DIID__IOPOSImageScannerEvents@@3U_GUID@@BVCComDynamicUnkArray@ATL@@@ATL@@UAGJPAU_GUID@@@Z 10002ca3 f i ImageScanner.obj
 0001:00001cc7       ?GetConnectionPointContainer@?$IConnectionPointImpl@VCOPOSImageScanner@@$1?DIID__IOPOSImageScannerEvents@@3U_GUID@@BVCComDynamicUnkArray@ATL@@@ATL@@UAGJPAPAUIConnectionPointContainer@@@Z 10002cc7 f i ImageScanner.obj
 0001:00001cea       ?UpdateRegistry@COPOSImageScanner@@SGJH@Z 10002cea f i ImageScanner.obj
 0001:00001d02       ?ProcessWindowMessage@COPOSImageScanner@@UAEHPAUHWND__@@IIJAAJK@Z 10002d02 f i ImageScanner.obj
 0001:00001d4b       ?SOData@COPOSImageScanner@@MAGJJ@Z 10002d4b f i ImageScanner.obj
 0001:00001d84       ?SODirectIO@COPOSImageScanner@@MAGJJPAJPAPA_W@Z 10002d84 f i ImageScanner.obj
 0001:00001dcd       ?SOError@COPOSImageScanner@@MAGJJJJPAJ@Z 10002dcd f i ImageScanner.obj
 0001:00001e22       ?SOStatusUpdate@COPOSImageScanner@@MAGJJ@Z 10002e22 f i ImageScanner.obj
 0001:00001e5b       ?Lock@CAtlModule@ATL@@UAEJXZ 10002e5b f i ImageScanner.obj
 0001:00001e65       ?Unlock@CAtlModule@ATL@@UAEJXZ 10002e65 f i ImageScanner.obj
 0001:00001e6f       ?GetLockCount@CAtlModule@ATL@@UAEJXZ 10002e6f f i ImageScanner.obj
 0001:00001e73       ?GetGITPtr@CAtlModule@ATL@@UAEJPAPAUIGlobalInterfaceTable@@@Z 10002e73 f i ImageScanner.obj
 0001:00001ebf       ?AddCommonRGSReplacements@?$CAtlModuleT@VCComModule@ATL@@@ATL@@UAEJPAUIRegistrarBase@@@Z 10002ebf f i ImageScanner.obj
 0001:00001ed9       ?UpdateRegistryFromResourceD@CComModule@ATL@@UAGJIHPAU_ATL_REGMAP_ENTRY@2@@Z 10002ed9 f i ImageScanner.obj
 0001:00001ed9       ?UpdateRegistryFromResourceD@CComModule@ATL@@UAGJPB_WHPAU_ATL_REGMAP_ENTRY@2@@Z 10002ed9 f i ImageScanner.obj
 0001:00001ee1       ?UpdateRegistryFromResource@CComModule@ATL@@UAGJPB_WHPAU_ATL_REGMAP_ENTRY@2@@Z 10002ee1 f i ImageScanner.obj
 0001:00001eea       ?UpdateRegistryFromResource@CComModule@ATL@@UAGJIHPAU_ATL_REGMAP_ENTRY@2@@Z 10002eea f i ImageScanner.obj
 0001:00001ef3       ??_ECComModule@ATL@@UAEPAXI@Z 10002ef3 f i ImageScanner.obj
 0001:00001ef3       ??_GCComModule@ATL@@UAEPAXI@Z 10002ef3 f i ImageScanner.obj
 0001:00001f1b       ?CreateInstance@?$CComCreator@V?$CComObjectCached@VCComClassFactory@ATL@@@ATL@@@ATL@@SGJPAXABU_GUID@@PAPAX@Z 10002f1b f i ImageScanner.obj
 0001:00001fbb       ?CreateInstance@?$CComCreator2@V?$CComCreator@V?$CComObject@VCOPOSImageScanner@@@ATL@@@ATL@@V?$CComCreator@V?$CComAggObject@VCOPOSImageScanner@@@ATL@@@2@@ATL@@SGJPAXABU_GUID@@PAPAX@Z 10002fbb f i ImageScanner.obj
 0001:00001fdb       ?AddRef@?$CComObjectCached@VCComClassFactory@ATL@@@ATL@@UAGKXZ 10002fdb f i ImageScanner.obj
 0001:00002002       ?Release@?$CComObjectCached@VCComClassFactory@ATL@@@ATL@@UAGKXZ 10003002 f i ImageScanner.obj
 0001:00002038       ?QueryInterface@?$CComObjectCached@VCComClassFactory@ATL@@@ATL@@UAGJABU_GUID@@PAPAX@Z 10003038 f i ImageScanner.obj
 0001:00002052       ??_G?$CComObjectCached@VCComClassFactory@ATL@@@ATL@@UAEPAXI@Z 10003052 f i ImageScanner.obj
 0001:00002052       ??_E?$CComObjectCached@VCComClassFactory@ATL@@@ATL@@UAEPAXI@Z 10003052 f i ImageScanner.obj
 0001:00002074       ?Next@?$CComEnumImpl@UIEnumConnectionPoints@@$1?_GUID_b196b285_bab4_101a_b69c_00aa00341d07@@3U__s_GUID@@BPAUIConnectionPoint@@V?$_CopyInterface@UIConnectionPoint@@@ATL@@@ATL@@UAGJKPAPAUIConnectionPoint@@PAK@Z 10003074 f i ImageScanner.obj
 0001:0000214b       ?Skip@?$CComEnumImpl@UIEnumConnectionPoints@@$1?_GUID_b196b285_bab4_101a_b69c_00aa00341d07@@3U__s_GUID@@BPAUIConnectionPoint@@V?$_CopyInterface@UIConnectionPoint@@@ATL@@@ATL@@UAGJK@Z 1000314b f i ImageScanner.obj
 0001:00002178       ?Reset@?$CComEnumImpl@UIEnumConnections@@$1?_GUID_b196b287_bab4_101a_b69c_00aa00341d07@@3U__s_GUID@@BUtagCONNECTDATA@@V?$_Copy@UtagCONNECTDATA@@@ATL@@@ATL@@UAGJXZ 10003178 f i ImageScanner.obj
 0001:00002178       ?Reset@?$CComEnumImpl@UIEnumConnectionPoints@@$1?_GUID_b196b285_bab4_101a_b69c_00aa00341d07@@3U__s_GUID@@BPAUIConnectionPoint@@V?$_CopyInterface@UIConnectionPoint@@@ATL@@@ATL@@UAGJXZ 10003178 f i ImageScanner.obj
 0001:0000218a       ?Clone@?$CComEnumImpl@UIEnumConnectionPoints@@$1?_GUID_b196b285_bab4_101a_b69c_00aa00341d07@@3U__s_GUID@@BPAUIConnectionPoint@@V?$_CopyInterface@UIConnectionPoint@@@ATL@@@ATL@@UAGJPAPAUIEnumConnectionPoints@@@Z 1000318a f i ImageScanner.obj
 0001:0000226b       ?AddRef@?$CComObject@V?$CComEnum@UIEnumConnectionPoints@@$1?_GUID_b196b285_bab4_101a_b69c_00aa00341d07@@3U__s_GUID@@BPAUIConnectionPoint@@V?$_CopyInterface@UIConnectionPoint@@@ATL@@VCComSingleThreadModel@6@@ATL@@@ATL@@UAGKXZ 1000326b f i ImageScanner.obj
 0001:0000226b       ?AddRef@?$CComObject@V?$CComEnum@UIEnumConnections@@$1?_GUID_b196b287_bab4_101a_b69c_00aa00341d07@@3U__s_GUID@@BUtagCONNECTDATA@@V?$_Copy@UtagCONNECTDATA@@@ATL@@VCComSingleThreadModel@6@@ATL@@@ATL@@UAGKXZ 1000326b f i ImageScanner.obj
 0001:0000227c       ?Release@?$CComObject@V?$CComEnum@UIEnumConnectionPoints@@$1?_GUID_b196b285_bab4_101a_b69c_00aa00341d07@@3U__s_GUID@@BPAUIConnectionPoint@@V?$_CopyInterface@UIConnectionPoint@@@ATL@@VCComSingleThreadModel@6@@ATL@@@ATL@@UAGKXZ 1000327c f i ImageScanner.obj
 0001:0000227c       ?Release@?$CComObject@V?$CComEnum@UIEnumConnections@@$1?_GUID_b196b287_bab4_101a_b69c_00aa00341d07@@3U__s_GUID@@BUtagCONNECTDATA@@V?$_Copy@UtagCONNECTDATA@@@ATL@@VCComSingleThreadModel@6@@ATL@@@ATL@@UAGKXZ 1000327c f i ImageScanner.obj
 0001:000022b8       ?QueryInterface@?$CComObject@V?$CComEnum@UIEnumConnectionPoints@@$1?_GUID_b196b285_bab4_101a_b69c_00aa00341d07@@3U__s_GUID@@BPAUIConnectionPoint@@V?$_CopyInterface@UIConnectionPoint@@@ATL@@VCComSingleThreadModel@6@@ATL@@@ATL@@UAGJABU_GUID@@PAPAX@Z 100032b8 f i ImageScanner.obj
 0001:000022d2       ??_E?$CComObject@V?$CComEnum@UIEnumConnectionPoints@@$1?_GUID_b196b285_bab4_101a_b69c_00aa00341d07@@3U__s_GUID@@BPAUIConnectionPoint@@V?$_CopyInterface@UIConnectionPoint@@@ATL@@VCComSingleThreadModel@6@@ATL@@@ATL@@UAEPAXI@Z 100032d2 f i ImageScanner.obj
 0001:000022d2       ??_G?$CComObject@V?$CComEnum@UIEnumConnectionPoints@@$1?_GUID_b196b285_bab4_101a_b69c_00aa00341d07@@3U__s_GUID@@BPAUIConnectionPoint@@V?$_CopyInterface@UIConnectionPoint@@@ATL@@VCComSingleThreadModel@6@@ATL@@@ATL@@UAEPAXI@Z 100032d2 f i ImageScanner.obj
 0001:000022f4       ?AddRef@CRegObject@ATL@@UAGKXZ 100032f4 f i ImageScanner.obj
 0001:000022fa       ?AddReplacement@CRegObject@ATL@@UAGJPB_W0@Z 100032fa f i ImageScanner.obj
 0001:00002333       ?ClearReplacements@CRegObject@ATL@@UAGJXZ 10003333 f i ImageScanner.obj
 0001:00002345       ??_ECRegObject@ATL@@UAEPAXI@Z 10003345 f i ImageScanner.obj
 0001:00002345       ??_GCRegObject@ATL@@UAEPAXI@Z 10003345 f i ImageScanner.obj
 0001:00002367       ?AddRef@?$CComAggObject@VCOPOSImageScanner@@@ATL@@UAGKXZ 10003367 f i ImageScanner.obj
 0001:00002378       ?Release@?$CComAggObject@VCOPOSImageScanner@@@ATL@@UAGKXZ 10003378 f i ImageScanner.obj
 0001:000023b4       ?QueryInterface@?$CComAggObject@VCOPOSImageScanner@@@ATL@@UAGJABU_GUID@@PAPAX@Z 100033b4 f i ImageScanner.obj
 0001:00002403       ?AddRef@?$CComContainedObject@VCOPOSImageScanner@@@ATL@@UAGKXZ 10003403 f i ImageScanner.obj
 0001:00002419       ?Release@?$CComContainedObject@VCOPOSImageScanner@@@ATL@@UAGKXZ 10003419 f i ImageScanner.obj
 0001:0000242f       ?QueryInterface@?$CComContainedObject@VCOPOSImageScanner@@@ATL@@UAGJABU_GUID@@PAPAX@Z 1000342f f i ImageScanner.obj
 0001:0000244a       ??_E?$CComAggObject@VCOPOSImageScanner@@@ATL@@UAEPAXI@Z 1000344a f i ImageScanner.obj
 0001:0000244a       ??_G?$CComAggObject@VCOPOSImageScanner@@@ATL@@UAEPAXI@Z 1000344a f i ImageScanner.obj
 0001:0000246f       ?AddRef@?$CComObject@VCOPOSImageScanner@@@ATL@@UAGKXZ 1000346f f i ImageScanner.obj
 0001:00002486       ?Release@?$CComObject@VCOPOSImageScanner@@@ATL@@UAGKXZ 10003486 f i ImageScanner.obj
 0001:000024c8       ?QueryInterface@?$CComObject@VCOPOSImageScanner@@@ATL@@UAGJABU_GUID@@PAPAX@Z 100034c8 f i ImageScanner.obj
 0001:000024e2       ?OnDrawAdvanced@CComControlBase@ATL@@UAEJAAUATL_DRAWINFO@@@Z 100034e2 f i ImageScanner.obj
 0001:000025d5       ?Next@?$CComEnumImpl@UIEnumConnections@@$1?_GUID_b196b287_bab4_101a_b69c_00aa00341d07@@3U__s_GUID@@BUtagCONNECTDATA@@V?$_Copy@UtagCONNECTDATA@@@ATL@@@ATL@@UAGJKPAUtagCONNECTDATA@@PAK@Z 100035d5 f i ImageScanner.obj
 0001:000026ac       ?Skip@?$CComEnumImpl@UIEnumConnections@@$1?_GUID_b196b287_bab4_101a_b69c_00aa00341d07@@3U__s_GUID@@BUtagCONNECTDATA@@V?$_Copy@UtagCONNECTDATA@@@ATL@@@ATL@@UAGJK@Z 100036ac f i ImageScanner.obj
 0001:000026d9       ?Clone@?$CComEnumImpl@UIEnumConnections@@$1?_GUID_b196b287_bab4_101a_b69c_00aa00341d07@@3U__s_GUID@@BUtagCONNECTDATA@@V?$_Copy@UtagCONNECTDATA@@@ATL@@@ATL@@UAGJPAPAUIEnumConnections@@@Z 100036d9 f i ImageScanner.obj
 0001:000027ba       ?QueryInterface@?$CComObject@V?$CComEnum@UIEnumConnections@@$1?_GUID_b196b287_bab4_101a_b69c_00aa00341d07@@3U__s_GUID@@BUtagCONNECTDATA@@V?$_Copy@UtagCONNECTDATA@@@ATL@@VCComSingleThreadModel@6@@ATL@@@ATL@@UAGJABU_GUID@@PAPAX@Z 100037ba f i ImageScanner.obj
 0001:000027d4       ??_G?$CComObject@V?$CComEnum@UIEnumConnections@@$1?_GUID_b196b287_bab4_101a_b69c_00aa00341d07@@3U__s_GUID@@BUtagCONNECTDATA@@V?$_Copy@UtagCONNECTDATA@@@ATL@@VCComSingleThreadModel@6@@ATL@@@ATL@@UAEPAXI@Z 100037d4 f i ImageScanner.obj
 0001:000027d4       ??_E?$CComObject@V?$CComEnum@UIEnumConnections@@$1?_GUID_b196b287_bab4_101a_b69c_00aa00341d07@@3U__s_GUID@@BUtagCONNECTDATA@@V?$_Copy@UtagCONNECTDATA@@@ATL@@VCComSingleThreadModel@6@@ATL@@@ATL@@UAEPAXI@Z 100037d4 f i ImageScanner.obj
 0001:000027f6       ??_E?$CComObject@VCOPOSImageScanner@@@ATL@@W3AEPAXI@Z 100037f6 f i ImageScanner.obj
 0001:000027fe       ??_E?$CComObject@VCOPOSImageScanner@@@ATL@@WEM@AEPAXI@Z 100037fe f i ImageScanner.obj
 0001:00002806       ?QueryInterface@?$CComObject@VCOPOSImageScanner@@@ATL@@WHA@AGJABU_GUID@@PAPAX@Z 10003806 f i ImageScanner.obj
 0001:00002810       ?AddRef@?$CComObject@VCOPOSImageScanner@@@ATL@@WHA@AGKXZ 10003810 f i ImageScanner.obj
 0001:0000281a       ?Release@?$CComObject@VCOPOSImageScanner@@@ATL@@WHA@AGKXZ 1000381a f i ImageScanner.obj
 0001:00002824       ?QueryInterface@?$CComObject@VCOPOSImageScanner@@@ATL@@WHE@AGJABU_GUID@@PAPAX@Z 10003824 f i ImageScanner.obj
 0001:0000282e       ?AddRef@?$CComObject@VCOPOSImageScanner@@@ATL@@WHE@AGKXZ 1000382e f i ImageScanner.obj
 0001:00002838       ?Release@?$CComObject@VCOPOSImageScanner@@@ATL@@WHE@AGKXZ 10003838 f i ImageScanner.obj
 0001:00002842       ?QueryInterface@?$CComObject@VCOPOSImageScanner@@@ATL@@WHI@AGJABU_GUID@@PAPAX@Z 10003842 f i ImageScanner.obj
 0001:0000284c       ?AddRef@?$CComObject@VCOPOSImageScanner@@@ATL@@WHI@AGKXZ 1000384c f i ImageScanner.obj
 0001:00002856       ?Release@?$CComObject@VCOPOSImageScanner@@@ATL@@WHI@AGKXZ 10003856 f i ImageScanner.obj
 0001:00002860       ?QueryInterface@?$CComObject@VCOPOSImageScanner@@@ATL@@WHM@AGJABU_GUID@@PAPAX@Z 10003860 f i ImageScanner.obj
 0001:0000286a       ?AddRef@?$CComObject@VCOPOSImageScanner@@@ATL@@WHM@AGKXZ 1000386a f i ImageScanner.obj
 0001:00002874       ?Release@?$CComObject@VCOPOSImageScanner@@@ATL@@WHM@AGKXZ 10003874 f i ImageScanner.obj
 0001:0000287e       ?QueryInterface@?$CComObject@VCOPOSImageScanner@@@ATL@@WIA@AGJABU_GUID@@PAPAX@Z 1000387e f i ImageScanner.obj
 0001:0000288b       ?AddRef@?$CComObject@VCOPOSImageScanner@@@ATL@@WIA@AGKXZ 1000388b f i ImageScanner.obj
 0001:00002898       ?Release@?$CComObject@VCOPOSImageScanner@@@ATL@@WIA@AGKXZ 10003898 f i ImageScanner.obj
 0001:000028a5       ?QueryInterface@?$CComObject@VCOPOSImageScanner@@@ATL@@WIE@AGJABU_GUID@@PAPAX@Z 100038a5 f i ImageScanner.obj
 0001:000028b2       ?AddRef@?$CComObject@VCOPOSImageScanner@@@ATL@@WIE@AGKXZ 100038b2 f i ImageScanner.obj
 0001:000028bf       ?Release@?$CComObject@VCOPOSImageScanner@@@ATL@@WIE@AGKXZ 100038bf f i ImageScanner.obj
 0001:000028cc       ?QueryInterface@?$CComObject@VCOPOSImageScanner@@@ATL@@WII@AGJABU_GUID@@PAPAX@Z 100038cc f i ImageScanner.obj
 0001:000028d9       ?AddRef@?$CComObject@VCOPOSImageScanner@@@ATL@@WII@AGKXZ 100038d9 f i ImageScanner.obj
 0001:000028e6       ?Release@?$CComObject@VCOPOSImageScanner@@@ATL@@WII@AGKXZ 100038e6 f i ImageScanner.obj
 0001:000028f3       ?QueryInterface@?$CComObject@VCOPOSImageScanner@@@ATL@@WIM@AGJABU_GUID@@PAPAX@Z 100038f3 f i ImageScanner.obj
 0001:00002900       ?AddRef@?$CComObject@VCOPOSImageScanner@@@ATL@@WIM@AGKXZ 10003900 f i ImageScanner.obj
 0001:0000290d       ?Release@?$CComObject@VCOPOSImageScanner@@@ATL@@WIM@AGKXZ 1000390d f i ImageScanner.obj
 0001:0000291a       ?QueryInterface@?$CComObject@VCOPOSImageScanner@@@ATL@@WJA@AGJABU_GUID@@PAPAX@Z 1000391a f i ImageScanner.obj
 0001:00002927       ?AddRef@?$CComObject@VCOPOSImageScanner@@@ATL@@WJA@AGKXZ 10003927 f i ImageScanner.obj
 0001:00002934       ?Release@?$CComObject@VCOPOSImageScanner@@@ATL@@WJA@AGKXZ 10003934 f i ImageScanner.obj
 0001:00002941       ?QueryInterface@?$CComObject@VCOPOSImageScanner@@@ATL@@WJE@AGJABU_GUID@@PAPAX@Z 10003941 f i ImageScanner.obj
 0001:0000294e       ?AddRef@?$CComObject@VCOPOSImageScanner@@@ATL@@WJE@AGKXZ 1000394e f i ImageScanner.obj
 0001:0000295b       ?Release@?$CComObject@VCOPOSImageScanner@@@ATL@@WJE@AGKXZ 1000395b f i ImageScanner.obj
 0001:00002968       ?QueryInterface@?$CComObject@VCOPOSImageScanner@@@ATL@@WJI@AGJABU_GUID@@PAPAX@Z 10003968 f i ImageScanner.obj
 0001:00002975       ?AddRef@?$CComObject@VCOPOSImageScanner@@@ATL@@WJI@AGKXZ 10003975 f i ImageScanner.obj
 0001:00002982       ??$?4UITypeInfo2@@@?$CComPtr@UITypeInfo@@@ATL@@QAEPAUITypeInfo@@ABV?$CComPtr@UITypeInfo2@@@1@@Z 10003982 f i ImageScanner.obj
 0001:000029af       ??$AtlAdd@K@ATL@@YAJPAKKK@Z 100039af f i ImageScanner.obj
 0001:000029d2       ??$AtlAdd@_K@ATL@@YAJPA_K_K1@Z 100039d2 f i ImageScanner.obj
 0001:00002a0a       ??$AtlAddThrow@K@ATL@@YAKKK@Z 10003a0a f i ImageScanner.obj
 0001:00002a30       ??$AtlModuleRegisterWndClassInfoT@VAtlModuleRegisterWndClassInfoParamW@ATL@@@ATL@@YAGPAU_ATL_BASE_MODULE70@0@PAU_ATL_WIN_MODULE70@0@PAU_ATL_WNDCLASSINFOW@0@PAP6GJPAUHWND__@@IIJ@ZVAtlModuleRegisterWndClassInfoParamW@0@@Z 10003a30 f i ImageScanner.obj
 0001:00002b7e       ??$AtlMultiply@H@ATL@@YAJPAHHH@Z 10003b7e f i ImageScanner.obj
 0001:00002bb6       ??$AtlMultiply@K@ATL@@YAJPAKKK@Z 10003bb6 f i ImageScanner.obj
 0001:00002bb6       ??$AtlMultiply@I@ATL@@YAJPAIII@Z 10003bb6 f i ImageScanner.obj
 0001:00002bd8       ??$AtlMultiplyThrow@I@ATL@@YAIII@Z 10003bd8 f i ImageScanner.obj
 0001:00002bfe       ??0?$CComAggObject@VCOPOSImageScanner@@@ATL@@QAE@PAX@Z 10003bfe f i ImageScanner.obj
 0001:00002c2b       ??0?$CComContainedObject@VCOPOSImageScanner@@@ATL@@QAE@PAX@Z 10003c2b f i ImageScanner.obj
 0001:00002ce4       ??0?$CComObject@V?$CComEnum@UIEnumConnectionPoints@@$1?_GUID_b196b285_bab4_101a_b69c_00aa00341d07@@3U__s_GUID@@BPAUIConnectionPoint@@V?$_CopyInterface@UIConnectionPoint@@@ATL@@VCComSingleThreadModel@6@@ATL@@@ATL@@QAE@PAX@Z 10003ce4 f i ImageScanner.obj
 0001:00002d12       ??0?$CComObject@V?$CComEnum@UIEnumConnections@@$1?_GUID_b196b287_bab4_101a_b69c_00aa00341d07@@3U__s_GUID@@BUtagCONNECTDATA@@V?$_Copy@UtagCONNECTDATA@@@ATL@@VCComSingleThreadModel@6@@ATL@@@ATL@@QAE@PAX@Z 10003d12 f i ImageScanner.obj
 0001:00002d40       ??0?$CComObject@VCOPOSImageScanner@@@ATL@@QAE@PAX@Z 10003d40 f i ImageScanner.obj
 0001:00002df7       ??0?$CComQIPtr@UIOleControlSite@@$1?_GUID_b196b289_bab4_101a_b69c_00aa00341d07@@3U__s_GUID@@B@ATL@@QAE@PAUIUnknown@@@Z 10003df7 f i ImageScanner.obj
 0001:00002e20       ??0CAtlModule@ATL@@QAE@XZ  10003e20 f i ImageScanner.obj
 0001:00002e61       ??0CParseBuffer@CRegParser@ATL@@QAE@H@Z 10003e61 f i ImageScanner.obj
 0001:00002e97       ??0_ATL_MSG@ATL@@QAE@PAUHWND__@@IIJH@Z 10003e97 f i ImageScanner.obj
 0001:00002ecf       ??1?$CComAggObject@VCOPOSImageScanner@@@ATL@@UAE@XZ 10003ecf f i ImageScanner.obj
 0001:00002ef3       ??1?$CComEnumImpl@UIEnumConnectionPoints@@$1?_GUID_b196b285_bab4_101a_b69c_00aa00341d07@@3U__s_GUID@@BPAUIConnectionPoint@@V?$_CopyInterface@UIConnectionPoint@@@ATL@@@ATL@@UAE@XZ 10003ef3 f i ImageScanner.obj
 0001:00002f33       ??1?$CComEnumImpl@UIEnumConnections@@$1?_GUID_b196b287_bab4_101a_b69c_00aa00341d07@@3U__s_GUID@@BUtagCONNECTDATA@@V?$_Copy@UtagCONNECTDATA@@@ATL@@@ATL@@UAE@XZ 10003f33 f i ImageScanner.obj
 0001:00002f73       ??1?$CComObject@V?$CComEnum@UIEnumConnectionPoints@@$1?_GUID_b196b285_bab4_101a_b69c_00aa00341d07@@3U__s_GUID@@BPAUIConnectionPoint@@V?$_CopyInterface@UIConnectionPoint@@@ATL@@VCComSingleThreadModel@6@@ATL@@@ATL@@UAE@XZ 10003f73 f i ImageScanner.obj
 0001:00002f96       ??1?$CComObject@V?$CComEnum@UIEnumConnections@@$1?_GUID_b196b287_bab4_101a_b69c_00aa00341d07@@3U__s_GUID@@BUtagCONNECTDATA@@V?$_Copy@UtagCONNECTDATA@@@ATL@@VCComSingleThreadModel@6@@ATL@@@ATL@@UAE@XZ 10003f96 f i ImageScanner.obj
 0001:00002fb9       ??1?$CComObject@VCOPOSImageScanner@@@ATL@@UAE@XZ 10003fb9 f i ImageScanner.obj
 0001:00003077       ??1?$CComObjectCached@VCComClassFactory@ATL@@@ATL@@UAE@XZ 10004077 f i ImageScanner.obj
 0001:0000308d       ??1?$CComObjectRootEx@VCComMultiThreadModel@ATL@@@ATL@@QAE@XZ 1000408d f i ImageScanner.obj
 0001:000030a2       ??1CRegObject@ATL@@UAE@XZ  100040a2 f i ImageScanner.obj
 0001:000030c2       ??4?$CComPtr@UIOleClientSite@@@ATL@@QAEPAUIOleClientSite@@PAU2@@Z 100040c2 f i ImageScanner.obj
 0001:000030c2       ??4?$CComPtr@UIUnknown@@@ATL@@QAEPAUIUnknown@@PAU2@@Z 100040c2 f i ImageScanner.obj
 0001:000030c2       ??4?$CComPtr@UIAdviseSink@@@ATL@@QAEPAUIAdviseSink@@PAU2@@Z 100040c2 f i ImageScanner.obj
 0001:000030f6       ??_G?$CComContainedObject@VCOPOSImageScanner@@@ATL@@UAEPAXI@Z 100040f6 f i ImageScanner.obj
 0001:000030f6       ??_E?$CComContainedObject@VCOPOSImageScanner@@@ATL@@UAEPAXI@Z 100040f6 f i ImageScanner.obj
 0001:0000311b       ??_E?$CComObject@VCOPOSImageScanner@@@ATL@@UAEPAXI@Z 1000411b f i ImageScanner.obj
 0001:0000311b       ??_G?$CComObject@VCOPOSImageScanner@@@ATL@@UAEPAXI@Z 1000411b f i ImageScanner.obj
 0001:00003140       ?Add@?$CSimpleArray@GV?$CSimpleArrayEqualHelper@G@ATL@@@ATL@@QAEHABG@Z 10004140 f i ImageScanner.obj
 0001:000031c4       ?Add@?$CSimpleMap@PA_WPA_WVCExpansionVectorEqualHelper@ATL@@@ATL@@QAEHABQA_W0@Z 100041c4 f i ImageScanner.obj
 0001:00003219       ?Add@CComDynamicUnkArray@ATL@@QAEKPAUIUnknown@@@Z 10004219 f i ImageScanner.obj
 0001:000032cf       ?Add@CExpansionVector@ATL@@QAEHPB_W0@Z 100042cf f i ImageScanner.obj
 0001:000033d8       ?AddString@CParseBuffer@CRegParser@ATL@@QAEHPB_W@Z 100043d8 f i ImageScanner.obj
 0001:0000340d       ?AddTermFunc@CAtlModule@ATL@@QAEJP6GXK@ZK@Z 1000440d f i ImageScanner.obj
 0001:00003470       ?AddValue@CRegParser@ATL@@IAEJAAVCRegKey@2@PB_WPA_W@Z 10004470 f i ImageScanner.obj
 0001:0000378a       ?Allocate@?$CAtlSafeAllocBufferManager@VCCRTAllocator@ATL@@@_ATL_SAFE_ALLOCA_IMPL@ATL@@QAEPAXK@Z 1000478a f i ImageScanner.obj
 0001:000037b7       ?Allocate@?$CTempBuffer@E$0BAA@VCCRTAllocator@ATL@@@ATL@@QAEPAEI@Z 100047b7 f i ImageScanner.obj
 0001:000037e6       ?Allocate@?$CTempBuffer@_W$0BAA@VCCRTAllocator@ATL@@@ATL@@QAEPA_WI@Z 100047e6 f i ImageScanner.obj
 0001:00003815       ?Allocate@?$CTempBuffer@_W$0EAA@VCCRTAllocator@ATL@@@ATL@@QAEPA_WI@Z 10004815 f i ImageScanner.obj
 0001:00003844       ?AllocateHeap@?$CTempBuffer@_W$0BAA@VCCRTAllocator@ATL@@@ATL@@AAEXI@Z 10004844 f i ImageScanner.obj
 0001:00003844       ?AllocateHeap@?$CTempBuffer@E$0BAA@VCCRTAllocator@ATL@@@ATL@@AAEXI@Z 10004844 f i ImageScanner.obj
 0001:00003844       ?AllocateHeap@?$CTempBuffer@_W$0EAA@VCCRTAllocator@ATL@@@ATL@@AAEXI@Z 10004844 f i ImageScanner.obj
 0001:00003869       ?Append@CParseBuffer@CRegParser@ATL@@QAEHPB_WH@Z 10004869 f i ImageScanner.obj
 0001:000038f7       ?AtlCoTaskMemCAlloc@ATL@@YAPAXKK@Z 100048f7 f i ImageScanner.obj
 0001:00003924       ?AtlCoTaskMemRecalloc@ATL@@YAPAXPAXKK@Z 10004924 f i ImageScanner.obj
 0001:00003954       ?AtlComModuleGetClassObject@ATL@@YGJPAU_ATL_COM_MODULE70@1@ABU_GUID@@1PAPAX@Z 10004954 f i ImageScanner.obj
 0001:00003a47       ?AtlComModuleRegisterServer@ATL@@YGJPAU_ATL_COM_MODULE70@1@HPBU_GUID@@@Z 10004a47 f i ImageScanner.obj
 0001:00003acf       ?AtlComModuleUnregisterServer@ATL@@YGJPAU_ATL_COM_MODULE70@1@HPBU_GUID@@@Z 10004acf f i ImageScanner.obj
 0001:00003b57       ?AtlComQIPtrAssign2@ATL@@YAXPAPAUIUnknown@@PAU2@ABU_GUID@@@Z 10004b57 f i ImageScanner.obj
 0001:00003b86       ?AtlCreateTargetDC@ATL@@YGPAUHDC__@@PAU2@PAUtagDVTARGETDEVICE@@@Z 10004b86 f i ImageScanner.obj
 0001:00003bef       ?AtlCrtErrorCheck@ATL@@YAHH@Z 10004bef f i ImageScanner.obj
 0001:00003c2a       ?AtlHiMetricToPixel@ATL@@YGXPBUtagSIZE@@PAU2@@Z 10004c2a f i ImageScanner.obj
 0001:00003c9f       ?AtlHresultFromLastError@ATL@@YAJXZ 10004c9f f i ImageScanner.obj
 0001:00003cb6       ?AtlHresultFromWin32@ATL@@YAJK@Z 10004cb6 f i ImageScanner.obj
 0001:00003ccb       ?AtlInternalOleLoadFromStream@ATL@@YAJPAUIStream@@ABU_GUID@@PAPAXTClassesAllowedInStream@1@K@Z 10004ccb f i ImageScanner.obj
 0001:00003de9       ?AtlInternalQueryInterface@ATL@@YGJPAXPBU_ATL_INTMAP_ENTRY@1@ABU_GUID@@PAPAX@Z 10004de9 f i ImageScanner.obj
 0001:00003e8c       ?AtlLoadTypeLib@ATL@@YGJPAUHINSTANCE__@@PB_WPAPA_WPAPAUITypeLib@@@Z 10004e8c f i ImageScanner.obj
 0001:0000406a       ?AtlRegisterClassCategoriesHelper@ATL@@YGJABU_GUID@@PBU_ATL_CATMAP_ENTRY@1@H@Z 1000506a f i ImageScanner.obj
 0001:00004366       ?AtlRegisterTypeLib@ATL@@YGJPAUHINSTANCE__@@PB_W@Z 10005366 f i ImageScanner.obj
 0001:000044ee       ?AtlThrowImpl@ATL@@YGXJ@Z  100054ee f i ImageScanner.obj
 0001:0000450c       ?AtlUnRegisterTypeLib@ATL@@YGJPAUHINSTANCE__@@PB_W@Z 1000550c f i ImageScanner.obj
 0001:000045b7       ?AtlWinModuleAddCreateWndData@ATL@@YGXPAU_ATL_WIN_MODULE70@1@PAU_AtlCreateWndData@1@PAX@Z 100055b7 f i ImageScanner.obj
 0001:0000460b       ?AtlWinModuleExtractCreateWndData@ATL@@YGPAXPAU_ATL_WIN_MODULE70@1@@Z 1000560b f i ImageScanner.obj
 0001:0000466e       ?AtlWinModuleRegisterClassExW@ATL@@YGGPAU_ATL_WIN_MODULE70@1@PBUtagWNDCLASSEXW@@@Z 1000566e f i ImageScanner.obj
 0001:000046ad       ?CanForceRemoveKey@CRegParser@ATL@@IAEHPB_W@Z 100056ad f i ImageScanner.obj
 0001:000046dc       ?ChToByte@CRegParser@ATL@@KAE_W@Z 100056dc f i ImageScanner.obj
 0001:0000470f       ?Cleanup@CComTypeInfoHolder@ATL@@SGXK@Z 1000570f f i ImageScanner.obj
 0001:00004742       ?ClearReplacements@CExpansionVector@ATL@@QAEJXZ 10005742 f i ImageScanner.obj
 0001:0000477f       ?Close@CRegKey@ATL@@QAEJXZ 1000577f f i ImageScanner.obj
 0001:00004799       ?CreateInstance@?$CComCreator@V?$CComAggObject@VCOPOSImageScanner@@@ATL@@@ATL@@SGJPAXABU_GUID@@PAPAX@Z 10005799 f i ImageScanner.obj
 0001:0000480e       ?CreateInstance@?$CComCreator@V?$CComObject@VCOPOSImageScanner@@@ATL@@@ATL@@SGJPAXABU_GUID@@PAPAX@Z 1000580e f i ImageScanner.obj
 0001:0000488e       ?CreateInstance@?$CComObject@V?$CComEnum@UIEnumConnectionPoints@@$1?_GUID_b196b285_bab4_101a_b69c_00aa00341d07@@3U__s_GUID@@BPAUIConnectionPoint@@V?$_CopyInterface@UIConnectionPoint@@@ATL@@VCComSingleThreadModel@6@@ATL@@@ATL@@SGJPAPAV12@@Z 1000588e f i ImageScanner.obj
 0001:000048d8       ?CreateInstance@?$CComObject@V?$CComEnum@UIEnumConnections@@$1?_GUID_b196b287_bab4_101a_b69c_00aa00341d07@@3U__s_GUID@@BUtagCONNECTDATA@@V?$_Copy@UtagCONNECTDATA@@@ATL@@VCComSingleThreadModel@6@@ATL@@@ATL@@SGJPAPAV12@@Z 100058d8 f i ImageScanner.obj
 0001:00004922       ?DefaultReflectionHandler@?$CWindowImplRoot@VCWindow@ATL@@@ATL@@SAHPAUHWND__@@IIJAAJ@Z 10005922 f i ImageScanner.obj
 0001:00004995       ?DeleteSubKey@CRegKey@ATL@@QAEJPB_W@Z 10005995 f i ImageScanner.obj
 0001:00004a0e       ?DoEvent@COPOSImageScanner@@IAEXIIJ@Z 10005a0e f i ImageScanner.obj
 0001:00004a8e       ?DoVerbHide@?$IOleObjectImpl@VCOPOSImageScanner@@@ATL@@QAEJPBUtagRECT@@PAUHWND__@@@Z 10005a8e f i ImageScanner.obj
 0001:00004ac4       ?DoVerbInPlaceActivate@?$IOleObjectImpl@VCOPOSImageScanner@@@ATL@@QAEJPBUtagRECT@@PAUHWND__@@@Z 10005ac4 f i ImageScanner.obj
 0001:00004af7       ?DoVerbPrimary@?$IOleObjectImpl@VCOPOSImageScanner@@@ATL@@QAEJPBUtagRECT@@PAUHWND__@@@Z 10005af7 f i ImageScanner.obj
 0001:00004b83       ?DoVerbProperties@CComControlBase@ATL@@QAEJPBUtagRECT@@PAUHWND__@@@Z 10005b83 f i ImageScanner.obj
 0001:00004d02       ?DoVerbUIActivate@?$IOleObjectImpl@VCOPOSImageScanner@@@ATL@@QAEJPBUtagRECT@@PAUHWND__@@@Z 10005d02 f i ImageScanner.obj
 0001:00004d3f       ?DoesVerbActivate@CComControlBase@ATL@@QAEHJ@Z 10005d3f f i ImageScanner.obj
 0001:00004d60       ?DoesVerbUIActivate@CComControlBase@ATL@@QAEHJ@Z 10005d60 f i ImageScanner.obj
 0001:00004d95       ?EndOfVar@CRegParser@ATL@@IAEHXZ 10005d95 f i ImageScanner.obj
 0001:00004db5       ?EscapeSingleQuote@CAtlModule@ATL@@SAXPA_WIPB_W@Z 10005db5 f i ImageScanner.obj
 0001:00004e04       ?FindKey@?$CSimpleMap@PA_WPA_WVCExpansionVectorEqualHelper@ATL@@@ATL@@QBEHABQA_W@Z 10005e04 f i ImageScanner.obj
 0001:00004e3b       ?FireTheEvent@?$CProxy_IOPOSEvents@VCOPOSImageScanner@@@@IAEXPAVOposVariant@@IAAJPB_WJ@Z 10005e3b f i ImageScanner.obj
 0001:00004ecd       ?FireViewChange@CComControlBase@ATL@@QAEJXZ 10005ecd f i ImageScanner.obj
 0001:00004f16       ?Fire_DataEvent@?$CProxy_IOPOSEvents@VCOPOSImageScanner@@@@QAEXJ@Z 10005f16 f i ImageScanner.obj
 0001:00004fac       ?Fire_DirectIOEvent@?$CProxy_IOPOSEvents@VCOPOSImageScanner@@@@QAEXJPAJPAPA_W@Z 10005fac f i ImageScanner.obj
 0001:00005098       ?Fire_ErrorEvent@?$CProxy_IOPOSEvents@VCOPOSImageScanner@@@@QAEXJJJPAJ@Z 10006098 f i ImageScanner.obj
 0001:00005189       ?Fire_StatusUpdateEvent@?$CProxy_IOPOSEvents@VCOPOSImageScanner@@@@QAEXJ@Z 10006189 f i ImageScanner.obj
 0001:0000521f       ?FreeHeap@?$CTempBuffer@E$0BAA@VCCRTAllocator@ATL@@@ATL@@AAEXXZ 1000621f f i ImageScanner.obj
 0001:0000521f       ?FreeHeap@?$CTempBuffer@_W$0EAA@VCCRTAllocator@ATL@@@ATL@@AAEXXZ 1000621f f i ImageScanner.obj
 0001:0000521f       ?FreeHeap@?$CTempBuffer@_W$0BAA@VCCRTAllocator@ATL@@@ATL@@AAEXXZ 1000621f f i ImageScanner.obj
 0001:00005228       ?GetAmbientLocaleID@CComControlBase@ATL@@QAEJAAK@Z 10006228 f i ImageScanner.obj
 0001:00005284       ?GetAmbientUserMode@CComControlBase@ATL@@QAEJAAH@Z 10006284 f i ImageScanner.obj
 0001:000052f4       ?GetAt@CComDynamicUnkArray@ATL@@QAEPAUIUnknown@@H@Z 100062f4 f i ImageScanner.obj
 0001:00005310       ?GetClassObject@CComModule@ATL@@QAEJABU_GUID@@0PAPAX@Z 10006310 f i ImageScanner.obj
 0001:000053b2       ?GetConnMap@COPOSImageScanner@@SAPBU_ATL_CONNMAP_ENTRY@ATL@@PAH@Z 100063b2 f i ImageScanner.obj
 0001:00005422       ?GetCookie@CComDynamicUnkArray@ATL@@QAGKPAPAUIUnknown@@@Z 10006422 f i ImageScanner.obj
 0001:0000545a       ?GetIDsOfNames@CComTypeInfoHolder@ATL@@QAEJABU_GUID@@PAPA_WIKPAJ@Z 1000645a f i ImageScanner.obj
 0001:00005581       ?GetKeyAt@?$CSimpleMap@PA_WPA_WVCExpansionVectorEqualHelper@ATL@@@ATL@@QBEAAPA_WH@Z 10006581 f i ImageScanner.obj
 0001:000055a6       ?GetPagesHelper@?$ISpecifyPropertyPagesImpl@VCOPOSImageScanner@@@ATL@@IAEJPAUtagCAUUID@@PBUATL_PROPMAP_ENTRY@2@@Z 100065a6 f i ImageScanner.obj
 0001:000056cd       ?GetProperty@?$CComPtr@UIDispatch@@@ATL@@SAJPAUIDispatch@@JPAUtagVARIANT@@@Z 100066cd f i ImageScanner.obj
 0001:0000571c       ?GetSizeMax@CComVariant@ATL@@QBEJPAT_ULARGE_INTEGER@@@Z 1000671c f i ImageScanner.obj
 0001:000058de       ?GetTI@CComTypeInfoHolder@ATL@@QAEJK@Z 100068de f i ImageScanner.obj
 0001:00005abd       ?GetTI@CComTypeInfoHolder@ATL@@QAEJKPAPAUITypeInfo@@@Z 10006abd f i ImageScanner.obj
 0001:00005aff       ?GetUnknown@CComDynamicUnkArray@ATL@@QAGPAUIUnknown@@K@Z 10006aff f i ImageScanner.obj
 0001:00005b20       ?GetValueAt@?$CSimpleMap@PA_WPA_WVCExpansionVectorEqualHelper@ATL@@@ATL@@QBEAAPA_WH@Z 10006b20 f i ImageScanner.obj
 0001:00005b46       ?GetZoomInfo@CComControlBase@ATL@@QAEXAAUATL_DRAWINFO@@@Z 10006b46 f i ImageScanner.obj
 0001:00005bd9       ?HKeyFromString@CRegParser@ATL@@KAPAUHKEY__@@PA_W@Z 10006bd9 f i ImageScanner.obj
 0001:00005c07       ?HasSubKeys@CRegParser@ATL@@IAEHPAUHKEY__@@@Z 10006c07 f i ImageScanner.obj
 0001:00005c3c       ?IDataObject_GetData@CComControlBase@ATL@@QAEJPAUtagFORMATETC@@PAUtagSTGMEDIUM@@@Z 10006c3c f i ImageScanner.obj
 0001:00005de2       ?IOleInPlaceObject_InPlaceDeactivate@CComControlBase@ATL@@QAEJXZ 10006de2 f i ImageScanner.obj
 0001:00005e69       ?IOleInPlaceObject_SetObjectRects@CComControlBase@ATL@@QAEJPBUtagRECT@@0@Z 10006e69 f i ImageScanner.obj
 0001:00005f36       ?IOleInPlaceObject_UIDeactivate@CComControlBase@ATL@@QAEJXZ 10006f36 f i ImageScanner.obj
 0001:00005ff8       ?IOleObject_Advise@CComControlBase@ATL@@QAEJPAUIAdviseSink@@PAK@Z 10006ff8 f i ImageScanner.obj
 0001:00006022       ?IOleObject_Close@CComControlBase@ATL@@QAEJK@Z 10007022 f i ImageScanner.obj
 0001:00006106       ?IOleObject_GetClientSite@CComControlBase@ATL@@QAEJPAPAUIOleClientSite@@@Z 10007106 f i ImageScanner.obj
 0001:0000612f       ?IOleObject_SetClientSite@CComControlBase@ATL@@QAEJPAUIOleClientSite@@@Z 1000712f f i ImageScanner.obj
 0001:0000616e       ?IOleObject_SetExtent@CComControlBase@ATL@@QAEJKPAUtagSIZE@@@Z 1000716e f i ImageScanner.obj
 0001:00006222       ?IPSI_GetIPersistStreamInit@?$IPersistStorageImpl@VCOPOSImageScanner@@@ATL@@AAEPAUIPersistStreamInit@@XZ 10007222 f i ImageScanner.obj
 0001:000062ca       ?IPersistStreamInit_Load@?$IPersistStreamInitImpl@VCOPOSImageScanner@@@ATL@@QAEJPAUIStream@@PBUATL_PROPMAP_ENTRY@2@@Z 100072ca f i ImageScanner.obj
 0001:0000653f       ?IPersistStreamInit_Save@?$IPersistStreamInitImpl@VCOPOSImageScanner@@@ATL@@QAEJPAUIStream@@HPBUATL_PROPMAP_ENTRY@2@@Z 1000753f f i ImageScanner.obj
 0001:0000672d       ?IQuickActivate_QuickActivate@CComControlBase@ATL@@QAEJPAUtagQACONTAINER@@PAUtagQACONTROL@@@Z 1000772d f i ImageScanner.obj
 0001:0000696f       ?IViewObject_Draw@CComControlBase@ATL@@QAEJKJPAXPAUtagDVTARGETDEVICE@@PAUHDC__@@2PBU_RECTL@@3@Z 1000796f f i ImageScanner.obj
 0001:00006a17       ?InPlaceActivate@CComControlBase@ATL@@QAEJJPBUtagRECT@@@Z 10007a17 f i ImageScanner.obj
 0001:00006c88       ?Init@?$CComEnumImpl@UIEnumConnectionPoints@@$1?_GUID_b196b285_bab4_101a_b69c_00aa00341d07@@3U__s_GUID@@BPAUIConnectionPoint@@V?$_CopyInterface@UIConnectionPoint@@@ATL@@@ATL@@QAEJPAPAUIConnectionPoint@@0PAUIUnknown@@W4CComEnumFlags@2@@Z 10007c88 f i ImageScanner.obj
 0001:00006d67       ?Init@?$CComEnumImpl@UIEnumConnections@@$1?_GUID_b196b287_bab4_101a_b69c_00aa00341d07@@3U__s_GUID@@BUtagCONNECTDATA@@V?$_Copy@UtagCONNECTDATA@@@ATL@@@ATL@@QAEJPAUtagCONNECTDATA@@0PAUIUnknown@@W4CComEnumFlags@2@@Z 10007d67 f i ImageScanner.obj
 0001:00006e46       ?Init@CComModule@ATL@@QAEJPAU_ATL_OBJMAP_ENTRY30@2@PAUHINSTANCE__@@PBU_GUID@@@Z 10007e46 f i ImageScanner.obj
 0001:00006ea5       ?Init@CDynamicStdCallThunk2@ATL@@QAEHKPAX@Z 10007ea5 f i ImageScanner.obj
 0001:00006ed0       ?InlineIsEqualUnknown@ATL@@YGHABU_GUID@@@Z 10007ed0 f i ImageScanner.obj
 0001:00006ef8       ?InternalSetAtIndex@?$CSimpleMap@PA_WPA_WVCExpansionVectorEqualHelper@ATL@@@ATL@@QAEXHABQA_W0@Z 10007ef8 f i ImageScanner.obj
 0001:00006f22       ?Invoke@CComTypeInfoHolder@ATL@@QAEJPAUIDispatch@@JABU_GUID@@KGPAUtagDISPPARAMS@@PAUtagVARIANT@@PAUtagEXCEPINFO@@PAI@Z 10007f22 f i ImageScanner.obj
 0001:00006f65       ?IsEqualObject@?$CComPtrBase@UIOleClientSite@@@ATL@@QAE_NPAUIUnknown@@@Z 10007f65 f i ImageScanner.obj
 0001:00006f65       ?IsEqualObject@?$CComPtrBase@UITypeInfo@@@ATL@@QAE_NPAUIUnknown@@@Z 10007f65 f i ImageScanner.obj
 0001:00006fd2       ?IsSpace@CRegParser@ATL@@IAEH_W@Z 10007fd2 f i ImageScanner.obj
 0001:00006ffc       ?LoadNameCache@CComTypeInfoHolder@ATL@@QAEJPAUITypeInfo@@@Z 10007ffc f i ImageScanner.obj
 0001:00007131       ?Lookup@?$CSimpleMap@PA_WPA_WVCExpansionVectorEqualHelper@ATL@@@ATL@@QBEPA_WABQA_W@Z 10008131 f i ImageScanner.obj
 0001:00007157       ?NextToken@CRegParser@ATL@@IAEJPA_W@Z 10008157 f i ImageScanner.obj
 0001:0000728f       ?OnKillFocus@CComControlBase@ATL@@QAEJIIJAAH@Z 1000828f f i ImageScanner.obj
 0001:000072ea       ?OnMouseActivate@CComControlBase@ATL@@QAEJIIJAAH@Z 100082ea f i ImageScanner.obj
 0001:00007358       ?OnPaint@CComControlBase@ATL@@QAEJIIJAAH@Z 10008358 f i ImageScanner.obj
 0001:0000740a       ?OnSetFocus@CComControlBase@ATL@@QAEJIIJAAH@Z 1000840a f i ImageScanner.obj
 0001:00007493       ?Open@CRegKey@ATL@@QAEJPAUHKEY__@@PB_WK@Z 10008493 f i ImageScanner.obj
 0001:000074e8       ?PreProcessBuffer@CRegParser@ATL@@QAEJPA_WPAPA_W@Z 100084e8 f i ImageScanner.obj
 0001:00007757       ?ProcessWindowMessage@?$CComControl@VCOPOSImageScanner@@V?$CWindowImpl@VCOPOSImageScanner@@VCWindow@ATL@@V?$CWinTraits@$0FGAAAAAA@$0A@@3@@ATL@@@ATL@@UAEHPAUHWND__@@IIJAAJK@Z 10008757 f i ImageScanner.obj
 0001:000077f6       ?ReadFromStream@CComBSTR@ATL@@QAEJPAUIStream@@@Z 100087f6 f i ImageScanner.obj
 0001:00007919       ?ReadFromStream@CComVariant@ATL@@QAEJPAUIStream@@GTClassesAllowedInStream@2@K@Z 10008919 f i ImageScanner.obj
 0001:00007aa3       ?RecurseDeleteKey@CRegKey@ATL@@QAEJPB_W@Z 10008aa3 f i ImageScanner.obj
 0001:00007b91       ?RegCreateKeyExW@CAtlTransactionManager@ATL@@QAEJPAUHKEY__@@PB_WKPA_WKKQAU_SECURITY_ATTRIBUTES@@PAPAU3@PAK@Z 10008b91 f i ImageScanner.obj
 0001:00007bf4       ?RegDeleteKeyW@CAtlTransactionManager@ATL@@QAEJPAUHKEY__@@PB_W@Z 10008bf4 f i ImageScanner.obj
 0001:00007c46       ?RegOpenKeyExW@CAtlTransactionManager@ATL@@QAEJPAUHKEY__@@PB_WKKPAPAU3@@Z 10008c46 f i ImageScanner.obj
 0001:00007c9d       ?Register@_ATL_WNDCLASSINFOW@ATL@@QAEGPAP6GJPAUHWND__@@IIJ@Z@Z 10008c9d f i ImageScanner.obj
 0001:00007cbd       ?RegisterBuffer@CRegParser@ATL@@QAEJPA_WH@Z 10008cbd f i ImageScanner.obj
 0001:00007e04       ?RegisterFromResource@CRegObject@ATL@@IAEJPB_W00H@Z 10008e04 f i ImageScanner.obj
 0001:00007f3a       ?RegisterServer@?$CAtlModuleT@VCComModule@ATL@@@ATL@@QAEJHPBU_GUID@@@Z 10008f3a f i ImageScanner.obj
 0001:00007f68       ?RegisterServer@CComModule@ATL@@QAEJHPBU_GUID@@@Z 10008f68 f i ImageScanner.obj
 0001:00007fde       ?RegisterSubkeys@CRegParser@ATL@@IAEJPA_WPAUHKEY__@@HH@Z 10008fde f i ImageScanner.obj
 0001:0000868b       ?Remove@CComDynamicUnkArray@ATL@@QAEHK@Z 1000968b f i ImageScanner.obj
 0001:000086b4       ?RemoveAll@?$CSimpleMap@PA_WPA_WVCExpansionVectorEqualHelper@ATL@@@ATL@@QAEXXZ 100096b4 f i ImageScanner.obj
 0001:000086e0       ?ResourceRegisterSz@CRegObject@ATL@@QAGJPB_W00@Z 100096e0 f i ImageScanner.obj
 0001:0000870d       ?ResourceUnregisterSz@CRegObject@ATL@@QAGJPB_W00@Z 1000970d f i ImageScanner.obj
 0001:0000873a       ?SendOnDataChange@CComControlBase@ATL@@QAEJK@Z 1000973a f i ImageScanner.obj
 0001:00008787       ?SetControlFocus@CComControlBase@ATL@@QAEHH@Z 10009787 f i ImageScanner.obj
 0001:00008824       ?SetMultiStringValue@CRegKey@ATL@@QAEJPB_W0@Z 10009824 f i ImageScanner.obj
 0001:00008880       ?SetStringValue@CRegKey@ATL@@QAEJPB_W0K@Z 10009880 f i ImageScanner.obj
 0001:000088c9       ?SkipAssignment@CRegParser@ATL@@IAEJPA_W@Z 100098c9 f i ImageScanner.obj
 0001:0000892e       ?SkipWhiteSpace@CRegParser@ATL@@IAEXXZ 1000992e f i ImageScanner.obj
 0001:00008950       ?StrChrW@CRegParser@ATL@@KAPA_WPA_W_W@Z 10009950 f i ImageScanner.obj
 0001:0000898d       ?Term@CAtlModule@ATL@@QAEXXZ 1000998d f i ImageScanner.obj
 0001:000089e0       ?Term@CComModule@ATL@@QAEXXZ 100099e0 f i ImageScanner.obj
 0001:00008a38       ?UnregisterServer@?$CAtlModuleT@VCComModule@ATL@@@ATL@@QAEJHPBU_GUID@@@Z 10009a38 f i ImageScanner.obj
 0001:00008a5e       ?UnregisterServer@CComModule@ATL@@QAEJHPBU_GUID@@@Z 10009a5e f i ImageScanner.obj
 0001:00008ad4       ?UpdateRegistryFromResource@CAtlModule@ATL@@QAGJIHPAU_ATL_REGMAP_ENTRY@2@@Z 10009ad4 f i ImageScanner.obj
 0001:00008c9f       ?UpdateRegistryFromResource@CAtlModule@ATL@@QAGJPB_WHPAU_ATL_REGMAP_ENTRY@2@@Z 10009c9f f i ImageScanner.obj
 0001:00008e70       ?VTFromRegType@CRegParser@ATL@@KAHPB_WAAG@Z 10009e70 f i ImageScanner.obj
 0001:00008edd       ?WindowProc@?$CWindowImplBaseT@VCWindow@ATL@@V?$CWinTraits@$0FGAAAAAA@$0A@@2@@ATL@@SGJPAUHWND__@@IIJ@Z 10009edd f i ImageScanner.obj
 0001:00008fcf       ?WriteToStream@CComBSTR@ATL@@QAEJPAUIStream@@@Z 10009fcf f i ImageScanner.obj
 0001:00009031       ?WriteToStream@CComVariant@ATL@@QAEJPAUIStream@@@Z 1000a031 f i ImageScanner.obj
 0001:000091ab       ?WriteToStream@CComVariant@ATL@@QAEJPAUIStream@@G@Z 1000a1ab f i ImageScanner.obj
 0001:00009214       ?_AtlInitialConstruct@?$CComObjectRootEx@VCComMultiThreadModel@ATL@@@ATL@@QAEJXZ 1000a214 f i ImageScanner.obj
 0001:00009229       ?_AtlVerifyStackAvailable@_ATL_SAFE_ALLOCA_IMPL@ATL@@YA_NK@Z 1000a229 f i ImageScanner.obj
 0001:000092a7       ?atlCreate@?$CWindowImpl@VCOPOSImageScanner@@VCWindow@ATL@@V?$CWinTraits@$0FGAAAAAA@$0A@@3@@ATL@@QAEPAUHWND__@@PAU3@V_U_RECT@2@PB_WKKV_U_MENUorID@2@PAX@Z 1000a2a7 f i ImageScanner.obj
 0001:000092eb       ?atlCreate@?$CWindowImplBaseT@VCWindow@ATL@@V?$CWinTraits@$0FGAAAAAA@$0A@@2@@ATL@@QAEPAUHWND__@@PAU3@V_U_RECT@2@PB_WKKV_U_MENUorID@2@GPAX@Z 1000a2eb f i ImageScanner.obj
 0001:00009387       ?copy@?$_Copy@UtagCONNECTDATA@@@ATL@@SAJPAUtagCONNECTDATA@@PBU3@@Z 1000a387 f i ImageScanner.obj
 0001:000093bd       ?copy@?$_CopyInterface@UIConnectionPoint@@@ATL@@SAJPAPAUIConnectionPoint@@PBQAU3@@Z 1000a3bd f i ImageScanner.obj
 0001:000093eb       ?memcpy_s@Checked@ATL@@YAXPAXIPBXI@Z 1000a3eb f i ImageScanner.obj
 0001:0000940a       ?ocscpy_s@@YA_NPA_WIPB_W@Z 1000a40a f i ImageScanner.obj
 0001:00009454       ?wcscpy_s@Checked@ATL@@YAXPA_WIPB_W@Z 1000a454 f i ImageScanner.obj
 0001:00009470       _DllCanUnloadNow@0         1000a470 f   ImageScanner.obj
 0001:0000947c       _DllGetClassObject@12      1000a47c f   ImageScanner.obj
 0001:0000948a       _DllMain@12                1000a48a f   ImageScanner.obj
 0001:000094cc       _DllRegisterServer@0       1000a4cc f   ImageScanner.obj
 0001:000094db       _DllUnregisterServer@0     1000a4db f   ImageScanner.obj
 0001:000094ea       _InlineIsEqualGUID         1000a4ea f i ImageScanner.obj
 0001:0000951a       ___local_stdio_printf_options 1000a51a f i ImageScanner.obj
 0001:00009520       __vswprintf_s_l            1000a520 f i ImageScanner.obj
 0001:000095cd       _swprintf_s                1000a5cd f i ImageScanner.obj
 0001:000095e9       ??0?$CComControl@VCOPOSImageScanner@@V?$CWindowImpl@VCOPOSImageScanner@@VCWindow@ATL@@V?$CWinTraits@$0FGAAAAAA@$0A@@3@@ATL@@@ATL@@QAE@XZ 1000a5e9 f i ImageScannerImpl.obj
 0001:00009610       ??0?$CProxy_IOPOSEvents@VCOPOSImageScanner@@@@QAE@XZ 1000a610 f i ImageScannerImpl.obj
 0001:00009630       ??0CComControlBase@ATL@@QAE@AAPAUHWND__@@@Z 1000a630 f i ImageScannerImpl.obj
 0001:0000967a       ??0COPOSImageScanner@@QAE@XZ 1000a67a f   ImageScannerImpl.obj
 0001:000096b0       ??1?$CComControl@VCOPOSImageScanner@@V?$CWindowImpl@VCOPOSImageScanner@@VCWindow@ATL@@V?$CWinTraits@$0FGAAAAAA@$0A@@3@@ATL@@@ATL@@UAE@XZ 1000a6b0 f i ImageScannerImpl.obj
 0001:000096c9       ??1?$IConnectionPointImpl@VCOPOSImageScanner@@$1?DIID__IOPOSImageScannerEvents@@3U_GUID@@BVCComDynamicUnkArray@ATL@@@ATL@@QAE@XZ 1000a6c9 f i ImageScannerImpl.obj
 0001:000096c9       ??1?$IConnectionPointImpl@VCOPOSImageScanner@@$1?IID_IPropertyNotifySink@@3U_GUID@@BVCComDynamicUnkArray@ATL@@@ATL@@QAE@XZ 1000a6c9 f i ImageScannerImpl.obj
 0001:00009706       ??1CComControlBase@ATL@@UAE@XZ 1000a706 f i ImageScannerImpl.obj
 0001:00009769       ??1COPOSImageScanner@@UAE@XZ 1000a769 f   ImageScannerImpl.obj
 0001:000097b1       ?CheckHealth@COPOSImageScanner@@UAGJJPAJ@Z 1000a7b1 f   ImageScannerImpl.obj
 0001:00009800       ?ClaimDevice@COPOSImageScanner@@UAGJJPAJ@Z 1000a800 f   ImageScannerImpl.obj
 0001:00009875       ?ClearInput@COPOSImageScanner@@UAGJPAJ@Z 1000a875 f   ImageScannerImpl.obj
 0001:00009890       ?ClearInputProperties@COPOSImageScanner@@UAGJPAJ@Z 1000a890 f   ImageScannerImpl.obj
 0001:000098ab       ?Close@COPOSImageScanner@@UAGJPAJ@Z 1000a8ab f   ImageScannerImpl.obj
 0001:00009919       ?CompareFirmwareVersion@COPOSImageScanner@@UAGJPA_WPAJ1@Z 1000a919 f   ImageScannerImpl.obj
 0001:00009999       ?DirectIO@COPOSImageScanner@@UAGJJPAJPAPA_W0@Z 1000a999 f   ImageScannerImpl.obj
 0001:00009a47       ?DoInvoke@COPOSImageScanner@@IAEJJPAVOposVariant@@IHPAJ_N@Z 1000aa47 f   ImageScannerImpl.obj
 0001:00009b23       ?EventClose@COPOSImageScanner@@IAEXXZ 1000ab23 f i ImageScannerImpl.obj
 0001:00009b56       ?EventInit@COPOSImageScanner@@IAEJXZ 1000ab56 f i ImageScannerImpl.obj
 0001:00009c22       ?EventUninit@COPOSImageScanner@@IAEXXZ 1000ac22 f i ImageScannerImpl.obj
 0001:00009c74       ?EventWindowProc@COPOSImageScanner@@IAGJIIJ@Z 1000ac74 f i ImageScannerImpl.obj
 0001:00009d48       ?FinalConstruct@COPOSImageScanner@@QAEJXZ 1000ad48 f   ImageScannerImpl.obj
 0001:00009d81       ?FireEventCleanup@COPOSImageScanner@@IAEXXZ 1000ad81 f i ImageScannerImpl.obj
 0001:00009d97       ?FireEventSetup@COPOSImageScanner@@IAE_NXZ 1000ad97 f i ImageScannerImpl.obj
 0001:00009dcb       ?FreezeEvents@COPOSImageScanner@@MAGJH@Z 1000adcb f   ImageScannerImpl.obj
 0001:00009e2b       ?GetOposProp@COPOSImageScanner@@IAEJJPAFJ@Z 1000ae2b f   ImageScannerImpl.obj
 0001:00009e4e       ?GetOposProp@COPOSImageScanner@@IAEJJPAJJ@Z 1000ae4e f   ImageScannerImpl.obj
 0001:00009f1d       ?GetOposProp@COPOSImageScanner@@IAEJJPAPA_WJ@Z 1000af1d f   ImageScannerImpl.obj
 0001:00009ff9       ?OnDraw@COPOSImageScanner@@MAEJAAUATL_DRAWINFO@@@Z 1000aff9 f   ImageScannerImpl.obj
 0001:0000a099       ?Open@COPOSImageScanner@@UAGJPA_WPAJ@Z 1000b099 f   ImageScannerImpl.obj
 0001:0000a8db       ?ReleaseDevice@COPOSImageScanner@@UAGJPAJ@Z 1000b8db f   ImageScannerImpl.obj
 0001:0000a92a       ?ResetStatistics@COPOSImageScanner@@UAGJPA_WPAJ@Z 1000b92a f   ImageScannerImpl.obj
 0001:0000a981       ?RetrieveStatistics@COPOSImageScanner@@UAGJPAPA_WPAJ@Z 1000b981 f   ImageScannerImpl.obj
 0001:0000a9d8       ?SOProcessID@COPOSImageScanner@@UAGJPAJ@Z 1000b9d8 f   ImageScannerImpl.obj
 0001:0000a9ec       ?SetCOFreezeEvents@COPOSImageScanner@@IAEXF@Z 1000b9ec f   ImageScannerImpl.obj
 0001:0000aa8c       ?SetOposProp@COPOSImageScanner@@IAEJJJJ@Z 1000ba8c f   ImageScannerImpl.obj
 0001:0000ab83       ?StartSession@COPOSImageScanner@@UAGJPAJ@Z 1000bb83 f   ImageScannerImpl.obj
 0001:0000ab9e       ?StopSession@COPOSImageScanner@@UAGJPAJ@Z 1000bb9e f   ImageScannerImpl.obj
 0001:0000abb9       ?UpdateFirmware@COPOSImageScanner@@UAGJPA_WPAJ@Z 1000bbb9 f   ImageScannerImpl.obj
 0001:0000ac10       ?UpdateStatistics@COPOSImageScanner@@UAGJPA_WPAJ@Z 1000bc10 f   ImageScannerImpl.obj
 0001:0000ac67       ?get_AimMode@COPOSImageScanner@@UAGJPAF@Z 1000bc67 f   ImageScannerImpl.obj
 0001:0000ac80       ?get_AutoDisable@COPOSImageScanner@@UAGJPAF@Z 1000bc80 f   ImageScannerImpl.obj
 0001:0000ac96       ?get_BinaryConversion@COPOSImageScanner@@UAGJPAJ@Z 1000bc96 f   ImageScannerImpl.obj
 0001:0000acac       ?get_BitsPerPixel@COPOSImageScanner@@UAGJPAJ@Z 1000bcac f   ImageScannerImpl.obj
 0001:0000acc5       ?get_CapAim@COPOSImageScanner@@UAGJPAF@Z 1000bcc5 f   ImageScannerImpl.obj
 0001:0000acde       ?get_CapCompareFirmwareVersion@COPOSImageScanner@@UAGJPAF@Z 1000bcde f   ImageScannerImpl.obj
 0001:0000acf7       ?get_CapDecodeData@COPOSImageScanner@@UAGJPAF@Z 1000bcf7 f   ImageScannerImpl.obj
 0001:0000ad10       ?get_CapHostTriggered@COPOSImageScanner@@UAGJPAF@Z 1000bd10 f   ImageScannerImpl.obj
 0001:0000ad29       ?get_CapIlluminate@COPOSImageScanner@@UAGJPAF@Z 1000bd29 f   ImageScannerImpl.obj
 0001:0000ad42       ?get_CapImageData@COPOSImageScanner@@UAGJPAF@Z 1000bd42 f   ImageScannerImpl.obj
 0001:0000ad5b       ?get_CapImageQuality@COPOSImageScanner@@UAGJPAF@Z 1000bd5b f   ImageScannerImpl.obj
 0001:0000ad74       ?get_CapPowerReporting@COPOSImageScanner@@UAGJPAJ@Z 1000bd74 f   ImageScannerImpl.obj
 0001:0000ad8d       ?get_CapStatisticsReporting@COPOSImageScanner@@UAGJPAF@Z 1000bd8d f   ImageScannerImpl.obj
 0001:0000ada6       ?get_CapUpdateFirmware@COPOSImageScanner@@UAGJPAF@Z 1000bda6 f   ImageScannerImpl.obj
 0001:0000adbf       ?get_CapUpdateStatistics@COPOSImageScanner@@UAGJPAF@Z 1000bdbf f   ImageScannerImpl.obj
 0001:0000add8       ?get_CapVideoData@COPOSImageScanner@@UAGJPAF@Z 1000bdd8 f   ImageScannerImpl.obj
 0001:0000adf1       ?get_CheckHealthText@COPOSImageScanner@@UAGJPAPA_W@Z 1000bdf1 f   ImageScannerImpl.obj
 0001:0000ae0a       ?get_Claimed@COPOSImageScanner@@UAGJPAF@Z 1000be0a f   ImageScannerImpl.obj
 0001:0000ae20       ?get_ControlObjectDescription@COPOSImageScanner@@UAGJPAPA_W@Z 1000be20 f   ImageScannerImpl.obj
 0001:0000ae6e       ?get_ControlObjectVersion@COPOSImageScanner@@UAGJPAJ@Z 1000be6e f   ImageScannerImpl.obj
 0001:0000ae81       ?get_DataCount@COPOSImageScanner@@UAGJPAJ@Z 1000be81 f   ImageScannerImpl.obj
 0001:0000ae97       ?get_DataEventEnabled@COPOSImageScanner@@UAGJPAF@Z 1000be97 f   ImageScannerImpl.obj
 0001:0000aead       ?get_DeviceDescription@COPOSImageScanner@@UAGJPAPA_W@Z 1000bead f   ImageScannerImpl.obj
 0001:0000aec6       ?get_DeviceEnabled@COPOSImageScanner@@UAGJPAF@Z 1000bec6 f   ImageScannerImpl.obj
 0001:0000aedc       ?get_DeviceName@COPOSImageScanner@@UAGJPAPA_W@Z 1000bedc f   ImageScannerImpl.obj
 0001:0000aef5       ?get_FrameData@COPOSImageScanner@@UAGJPAPA_W@Z 1000bef5 f   ImageScannerImpl.obj
 0001:0000af0e       ?get_FrameType@COPOSImageScanner@@UAGJPAJ@Z 1000bf0e f   ImageScannerImpl.obj
 0001:0000af27       ?get_FreezeEvents@COPOSImageScanner@@UAGJPAF@Z 1000bf27 f   ImageScannerImpl.obj
 0001:0000af3d       ?get_IlluminateMode@COPOSImageScanner@@UAGJPAF@Z 1000bf3d f   ImageScannerImpl.obj
 0001:0000af56       ?get_ImageHeight@COPOSImageScanner@@UAGJPAJ@Z 1000bf56 f   ImageScannerImpl.obj
 0001:0000af6f       ?get_ImageLength@COPOSImageScanner@@UAGJPAJ@Z 1000bf6f f   ImageScannerImpl.obj
 0001:0000af88       ?get_ImageMode@COPOSImageScanner@@UAGJPAJ@Z 1000bf88 f   ImageScannerImpl.obj
 0001:0000afa1       ?get_ImageQuality@COPOSImageScanner@@UAGJPAJ@Z 1000bfa1 f   ImageScannerImpl.obj
 0001:0000afba       ?get_ImageType@COPOSImageScanner@@UAGJPAJ@Z 1000bfba f   ImageScannerImpl.obj
 0001:0000afd3       ?get_ImageWidth@COPOSImageScanner@@UAGJPAJ@Z 1000bfd3 f   ImageScannerImpl.obj
 0001:0000afec       ?get_OpenResult@COPOSImageScanner@@UAGJPAJ@Z 1000bfec f   ImageScannerImpl.obj
 0001:0000b003       ?get_PowerNotify@COPOSImageScanner@@UAGJPAJ@Z 1000c003 f   ImageScannerImpl.obj
 0001:0000b019       ?get_PowerState@COPOSImageScanner@@UAGJPAJ@Z 1000c019 f   ImageScannerImpl.obj
 0001:0000b02f       ?get_ResultCode@COPOSImageScanner@@UAGJPAJ@Z 1000c02f f   ImageScannerImpl.obj
 0001:0000b06d       ?get_ResultCodeExtended@COPOSImageScanner@@UAGJPAJ@Z 1000c06d f   ImageScannerImpl.obj
 0001:0000b083       ?get_ServiceObjectDescription@COPOSImageScanner@@UAGJPAPA_W@Z 1000c083 f   ImageScannerImpl.obj
 0001:0000b09c       ?get_ServiceObjectVersion@COPOSImageScanner@@UAGJPAJ@Z 1000c09c f   ImageScannerImpl.obj
 0001:0000b0b2       ?get_State@COPOSImageScanner@@UAGJPAJ@Z 1000c0b2 f   ImageScannerImpl.obj
 0001:0000b0de       ?get_VideoCount@COPOSImageScanner@@UAGJPAJ@Z 1000c0de f   ImageScannerImpl.obj
 0001:0000b0f7       ?get_VideoRate@COPOSImageScanner@@UAGJPAJ@Z 1000c0f7 f   ImageScannerImpl.obj
 0001:0000b110       ?put_AimMode@COPOSImageScanner@@UAGJF@Z 1000c110 f   ImageScannerImpl.obj
 0001:0000b130       ?put_AutoDisable@COPOSImageScanner@@UAGJF@Z 1000c130 f   ImageScannerImpl.obj
 0001:0000b14d       ?put_BinaryConversion@COPOSImageScanner@@UAGJJ@Z 1000c14d f   ImageScannerImpl.obj
 0001:0000b163       ?put_DataEventEnabled@COPOSImageScanner@@UAGJF@Z 1000c163 f   ImageScannerImpl.obj
 0001:0000b180       ?put_DeviceEnabled@COPOSImageScanner@@UAGJF@Z 1000c180 f   ImageScannerImpl.obj
 0001:0000b19d       ?put_FreezeEvents@COPOSImageScanner@@UAGJF@Z 1000c19d f   ImageScannerImpl.obj
 0001:0000b1e9       ?put_IlluminateMode@COPOSImageScanner@@UAGJF@Z 1000c1e9 f   ImageScannerImpl.obj
 0001:0000b209       ?put_ImageMode@COPOSImageScanner@@UAGJJ@Z 1000c209 f   ImageScannerImpl.obj
 0001:0000b222       ?put_ImageQuality@COPOSImageScanner@@UAGJJ@Z 1000c222 f   ImageScannerImpl.obj
 0001:0000b23b       ?put_PowerNotify@COPOSImageScanner@@UAGJJ@Z 1000c23b f   ImageScannerImpl.obj
 0001:0000b251       ?put_VideoCount@COPOSImageScanner@@UAGJJ@Z 1000c251 f   ImageScannerImpl.obj
 0001:0000b26a       ?put_VideoRate@COPOSImageScanner@@UAGJJ@Z 1000c26a f   ImageScannerImpl.obj
 0001:0000b283       ?s_EventWindowProc@COPOSImageScanner@@KGJPAUHWND__@@IIJ@Z 1000c283 f i ImageScannerImpl.obj
 0001:0000b2d5       ??_U@YAPAXI@Z              1000c2d5 f   LIBCMT:new_array.obj
 0001:0000b2de       ??3@YAXPAXI@Z              1000c2de f   LIBCMT:delete_scalar_size.obj
 0001:0000b2ec       ??_V@YAXPAX@Z              1000c2ec f   LIBCMT:delete_array.obj
 0001:0000b2f1       ??_V@YAXPAXI@Z             1000c2f1 f   LIBCMT:delete_array_size.obj
 0001:0000b343       ___scrt_acquire_startup_lock 1000c343 f   LIBCMT:utility.obj
 0001:0000b375       ___scrt_dllmain_after_initialize_c 1000c375 f   LIBCMT:utility.obj
 0001:0000b3a0       ___scrt_dllmain_before_initialize_c 1000c3a0 f   LIBCMT:utility.obj
 0001:0000b3ae       ___scrt_dllmain_crt_thread_attach 1000c3ae f   LIBCMT:utility.obj
 0001:0000b3cd       ___scrt_dllmain_crt_thread_detach 1000c3cd f   LIBCMT:utility.obj
 0001:0000b3da       ___scrt_dllmain_exception_filter 1000c3da f   LIBCMT:utility.obj
 0001:0000b40e       ___scrt_dllmain_uninitialize_c 1000c40e f   LIBCMT:utility.obj
 0001:0000b431       ___scrt_dllmain_uninitialize_critical 1000c431 f   LIBCMT:utility.obj
 0001:0000b43e       ___scrt_initialize_crt     1000c43e f   LIBCMT:utility.obj
 0001:0000b477       ___scrt_initialize_onexit_tables 1000c477 f   LIBCMT:utility.obj
 0001:0000b4fe       ___scrt_is_nonwritable_in_current_image 1000c4fe f   LIBCMT:utility.obj
 0001:0000b592       ___scrt_release_startup_lock 1000c592 f   LIBCMT:utility.obj
 0001:0000b5af       ___scrt_uninitialize_crt   1000c5af f   LIBCMT:utility.obj
 0001:0000b5d7       __onexit                   1000c5d7 f   LIBCMT:utility.obj
 0001:0000b604       _atexit                    1000c604 f   LIBCMT:utility.obj
 0001:0000b619       ??3@YAXPAX@Z               1000c619 f   LIBCMT:delete_scalar.obj
 0001:0000b6e3       __Init_thread_footer       1000c6e3 f   LIBCMT:thread_safe_statics.obj
 0001:0000b72d       __Init_thread_header       1000c72d f   LIBCMT:thread_safe_statics.obj
 0001:0000b77f       __Init_thread_notify       1000c77f f   LIBCMT:thread_safe_statics.obj
 0001:0000b7b5       __Init_thread_wait         1000c7b5 f   LIBCMT:thread_safe_statics.obj
 0001:0000b803       ___raise_securityfailure   1000c803 f   LIBCMT:gs_report.obj
 0001:0000b82b       ___report_gsfailure        1000c82b f   LIBCMT:gs_report.obj
 0001:0000b924       ___report_rangecheckfailure 1000c924 f   LIBCMT:gs_report.obj
 0001:0000b930       ___report_securityfailure  1000c930 f   LIBCMT:gs_report.obj
 0001:0000b9fe       ??2@YAPAXIABUnothrow_t@std@@@Z 1000c9fe f   LIBCMT:new_scalar_nothrow.obj
 0001:0000ba4e       ??_U@YAPAXIABUnothrow_t@std@@@Z 1000ca4e f   LIBCMT:new_array_nothrow.obj
 0001:0000ba57       @__security_check_cookie@4 1000ca57 f   LIBCMT:secchk.obj
 0001:0000ba70       __SEH_prolog4_GS           1000ca70 f   LIBCMT:sehprolg4gs.obj
 0001:0000bab9       __SEH_epilog4_GS           1000cab9 f   LIBCMT:sehprolg4gs.obj
 0001:0000bad0       __alloca_probe_16          1000cad0 f   LIBCMT:alloca16.obj
 0001:0000bae6       __alloca_probe_8           1000cae6     LIBCMT:alloca16.obj
 0001:0000bb00       __alloca_probe             1000cb00 f   LIBCMT:chkstk.obj
 0001:0000bb00       __chkstk                   1000cb00 f   LIBCMT:chkstk.obj
 0001:0000be6d       __DllMainCRTStartup@12     1000ce6d f   LIBCMT:dll_dllmain.obj
 0001:0000be90       ??2@YAPAXI@Z               1000ce90 f   LIBCMT:new_scalar.obj
 0001:0000bec0       ___isa_available_init      1000cec0 f   LIBCMT:cpu_disp.obj
 0001:0000c090       ___scrt_is_ucrt_dll_in_use 1000d090 f   LIBCMT:ucrt_detection.obj
 0001:0000c09c       ___scrt_fastfail           1000d09c f   LIBCMT:utility_desktop.obj
 0001:0000c1b6       __crt_debugger_hook        1000d1b6 f   LIBCMT:utility_desktop.obj
 0001:0000c1c0       __SEH_prolog4              1000d1c0 f   LIBCMT:sehprolg4.obj
 0001:0000c206       __SEH_epilog4              1000d206 f   LIBCMT:sehprolg4.obj
 0001:0000c21b       @_guard_check_icall_nop@4  1000d21b f i LIBCMT:guard_support.obj
 0001:0000c269       ___security_init_cookie    1000d269 f   LIBCMT:gs_support.obj
 0001:0000c2b4       ?__scrt_initialize_type_info@@YAXXZ 1000d2b4 f   LIBCMT:tncleanup.obj
 0001:0000c2c0       ?__scrt_uninitialize_type_info@@YAXXZ 1000d2c0 f   LIBCMT:tncleanup.obj
 0001:0000c2cc       ___local_stdio_scanf_options 1000d2cc f i LIBCMT:default_local_stdio_options.obj
 0001:0000c2d2       ___scrt_initialize_default_local_stdio_options 1000d2d2 f   LIBCMT:default_local_stdio_options.obj
 0001:0000c2ef       ___scrt_get_dyn_tls_init_callback 1000d2ef f   LIBCMT:dyn_tls_init.obj
 0001:0000c2f5       __RTC_Initialize           1000d2f5 f   LIBCMT:initsect.obj
 0001:0000c321       __RTC_Terminate            1000d321 f   LIBCMT:initsect.obj
 0001:0000c34d       ??0bad_alloc@std@@QAE@ABV01@@Z 1000d34d f i LIBCMT:throw_bad_alloc.obj
 0001:0000c368       ??0bad_alloc@std@@QAE@XZ   1000d368 f i LIBCMT:throw_bad_alloc.obj
 0001:0000c380       ??0bad_array_new_length@std@@QAE@ABV01@@Z 1000d380 f i LIBCMT:throw_bad_alloc.obj
 0001:0000c39b       ??0bad_array_new_length@std@@QAE@XZ 1000d39b f i LIBCMT:throw_bad_alloc.obj
 0001:0000c3b3       ??0exception@std@@QAE@ABV01@@Z 1000d3b3 f i LIBCMT:throw_bad_alloc.obj
 0001:0000c3df       ??1bad_array_new_length@std@@UAE@XZ 1000d3df f i LIBCMT:throw_bad_alloc.obj
 0001:0000c3df       ??1bad_alloc@std@@UAE@XZ   1000d3df f i LIBCMT:throw_bad_alloc.obj
 0001:0000c3df       ??1bad_exception@std@@UAE@XZ 1000d3df f i libvcruntime:frame.obj
 0001:0000c3f0       ??_Gbad_exception@std@@UAEPAXI@Z 1000d3f0 f i libvcruntime:frame.obj
 0001:0000c3f0       ??_Gbad_array_new_length@std@@UAEPAXI@Z 1000d3f0 f i LIBCMT:throw_bad_alloc.obj
 0001:0000c3f0       ??_Gexception@std@@UAEPAXI@Z 1000d3f0 f i LIBCMT:throw_bad_alloc.obj
 0001:0000c3f0       ??_Gbad_alloc@std@@UAEPAXI@Z 1000d3f0 f i LIBCMT:throw_bad_alloc.obj
 0001:0000c3f0       ??_Ebad_alloc@std@@UAEPAXI@Z 1000d3f0 f i LIBCMT:throw_bad_alloc.obj
 0001:0000c3f0       ??_Ebad_exception@std@@UAEPAXI@Z 1000d3f0 f i libvcruntime:frame.obj
 0001:0000c3f0       ??_Eexception@std@@UAEPAXI@Z 1000d3f0 f i LIBCMT:throw_bad_alloc.obj
 0001:0000c3f0       ??_Ebad_array_new_length@std@@UAEPAXI@Z 1000d3f0 f i LIBCMT:throw_bad_alloc.obj
 0001:0000c41d       ?__scrt_throw_std_bad_alloc@@YAXXZ 1000d41d f   LIBCMT:throw_bad_alloc.obj
 0001:0000c43a       ?__scrt_throw_std_bad_array_new_length@@YAXXZ 1000d43a f   LIBCMT:throw_bad_alloc.obj
 0001:0000c457       ?what@exception@std@@UBEPBDXZ 1000d457 f i LIBCMT:throw_bad_alloc.obj
 0001:0000c464       ??_Gtype_info@@UAEPAXI@Z   1000d464 f i LIBCMT:std_type_info_static.obj
 0001:0000c464       ??_Etype_info@@UAEPAXI@Z   1000d464 f i LIBCMT:std_type_info_static.obj
 0001:0000c487       ??0CAtlBaseModule@ATL@@QAE@XZ 1000d487 f   atls:atlbase.obj
 0001:0000c4da       ??0_ATL_BASE_MODULE70@ATL@@QAE@XZ 1000d4da f i atls:atlbase.obj
 0001:0000c4fd       ??1CAtlBaseModule@ATL@@QAE@XZ 1000d4fd f   atls:atlbase.obj
 0001:0000c5ea       ?Init@_stdcallthunk@ATL@@QAEHKPAX@Z 1000d5ea f i atls:atlthunk.obj
 0001:0000c61f       ?__AllocStdCallThunk_cmn@@YAPAXXZ 1000d61f f   atls:atlthunk.obj
 0001:0000c6e5       ?__FreeStdCallThunk_cmn@@YAXPAX@Z 1000d6e5 f   atls:atlthunk.obj
 0001:0000c780       _AtlThunk_AllocateData@0   1000d780 f   atls:atlthunk.obj
 0001:0000c7e5       _AtlThunk_DataToCode@4     1000d7e5 f   atls:atlthunk.obj
 0001:0000c82c       _AtlThunk_FreeData@4       1000d82c f   atls:atlthunk.obj
 0001:0000c882       _AtlThunk_InitData@12      1000d882 f   atls:atlthunk.obj
 0001:0000c8d1       __get_purecall_handler     1000d8d1 f   libvcruntime:purevirt.obj
 0001:0000c8d7       __purecall                 1000d8d7 f   libvcruntime:purevirt.obj
 0001:0000c8f3       _wcsstr                    1000d8f3 f   libvcruntime:wcsstr.obj
 0001:0000cba0       __except_handler4          1000dba0 f   libvcruntime:chandler4.obj
 0001:0000ccfe       _memcmp                    1000dcfe f   libvcruntime:memcmp.obj
 0001:0000dc10       _memcpy                    1000ec10 f   libvcruntime:memcpy.obj
 0001:0000e190       _memset                    1000f190 f   libvcruntime:memset.obj
 0001:0000e2ea       ___vcrt_initialize         1000f2ea f   libvcruntime:initialization.obj
 0001:0000e309       ___vcrt_thread_attach      1000f309 f   libvcruntime:initialization.obj
 0001:0000e314       ___vcrt_thread_detach      1000f314 f   libvcruntime:initialization.obj
 0001:0000e31f       ___vcrt_uninitialize       1000f31f f   libvcruntime:initialization.obj
 0001:0000e336       ___vcrt_uninitialize_critical 1000f336 f   libvcruntime:initialization.obj
 0001:0000e33e       ?GetRangeOfTrysToCheck@__FrameHandler3@@SA?AU?$pair@Viterator@TryBlockMap@__FrameHandler3@@V123@@std@@AAVTryBlockMap@1@HPAXPBU_s_FuncInfo@@H@Z 1000f33e f   libvcruntime:trnsctrl.obj
 0001:0000e3ae       ?_CallCatchBlock2@@YAPAXPAUEHRegistrationNode@@PBU_s_FuncInfo@@PAXHK@Z 1000f3ae f   libvcruntime:trnsctrl.obj
 0001:0000e40c       ?_CallSETranslator@@YAHPAUEHExceptionRecord@@PAUEHRegistrationNode@@PAX2PBU_s_FuncInfo@@H1@Z 1000f40c f   libvcruntime:trnsctrl.obj
 0001:0000e4f2       ?_JumpToContinuation@@YGXPAXPAUEHRegistrationNode@@@Z 1000f4f2 f   libvcruntime:trnsctrl.obj
 0001:0000e522       ?_UnwindNestedFrames@@YGXPAUEHRegistrationNode@@PAUEHExceptionRecord@@@Z 1000f522 f   libvcruntime:trnsctrl.obj
 0001:0000e575       __CatchGuardHandler        1000f575 f   libvcruntime:trnsctrl.obj
 0001:0000e5a6       __CreateFrameInfo          1000f5a6 f   libvcruntime:trnsctrl.obj
 0001:0000e5ca       __FindAndUnlinkFrame       1000f5ca f   libvcruntime:trnsctrl.obj
 0001:0000e612       __TranslatorGuardHandler   1000f612 f   libvcruntime:trnsctrl.obj
 0001:0000e6af       ___CxxFrameHandler3        1000f6af f   libvcruntime:trnsctrl.obj
 0001:0000e6e5       ___DestructExceptionObject 1000f6e5 f   libvcruntime:ehhelpers.obj
 0001:0000e786       ?_CallMemberFunction0@@YGXQAX0@Z 1000f786 f i libvcruntime:ehhelpers.obj
 0001:0000e7eb       __IsExceptionObjectToBeDestroyed 1000f7eb f   libvcruntime:ehhelpers.obj
 0001:0000e811       ___AdjustPointer           1000f811 f   libvcruntime:ehhelpers.obj
 0001:0000e836       ___FrameUnwindFilter       1000f836 f   libvcruntime:ehhelpers.obj
 0001:0000e88c       ___std_type_info_compare   1000f88c f   libvcruntime:std_type_info.obj
 0001:0000e8c8       ___std_type_info_destroy_list 1000f8c8 f   libvcruntime:std_type_info.obj
 0001:0000e8eb       ___std_exception_copy      1000f8eb f   libvcruntime:std_exception.obj
 0001:0000e94e       ___std_exception_destroy   1000f94e f   libvcruntime:std_exception.obj
 0001:0000e96d       __CxxThrowException@8      1000f96d f   libvcruntime:throw.obj
 0001:0000e9e0       _memmove                   1000f9e0 f   libvcruntime:memmove.obj
 0001:0000ef60       __local_unwind4            1000ff60 f   libvcruntime:exsup4.obj
 0001:0000f038       __seh_longjmp_unwind4@4    10010038 f   libvcruntime:exsup4.obj
 0001:0000f060       @_EH4_CallFilterFunc@8     10010060 f   libvcruntime:exsup4.obj
 0001:0000f078       @_EH4_TransferToHandler@8  10010078 f   libvcruntime:exsup4.obj
 0001:0000f094       @_EH4_GlobalUnwind2@8      10010094 f   libvcruntime:exsup4.obj
 0001:0000f0b0       @_EH4_LocalUnwind@16       100100b0 f   libvcruntime:exsup4.obj
 0001:0000f0c7       ___except_validate_context_record 100100c7 f   libvcruntime:jbcxrval.obj
 0001:0000f0f7       ___except_validate_jump_buffer 100100f7 f   libvcruntime:jbcxrval.obj
 0001:0000f124       ___vcrt_freefls@4          10010124 f   libvcruntime:per_thread_data.obj
 0001:0000f140       ___vcrt_freeptd            10010140 f   libvcruntime:per_thread_data.obj
 0001:0000f176       ___vcrt_getptd             10010176 f   libvcruntime:per_thread_data.obj
 0001:0000f184       ___vcrt_getptd_noexit      10010184 f   libvcruntime:per_thread_data.obj
 0001:0000f216       ___vcrt_initialize_ptd     10010216 f   libvcruntime:per_thread_data.obj
 0001:0000f249       ___vcrt_uninitialize_ptd   10010249 f   libvcruntime:per_thread_data.obj
 0001:0000f264       ___vcrt_initialize_locks   10010264 f   libvcruntime:locks.obj
 0001:0000f2a0       ___vcrt_uninitialize_locks 100102a0 f   libvcruntime:locks.obj
 0001:0000fa12       ??$TypeMatchHelper@V__FrameHandler3@@@@YAHPBU_s_HandlerType@@PBU_s_CatchableType@@PBU_s_ThrowInfo@@@Z 10010a12 f i libvcruntime:frame.obj
 0001:0000faa0       ??$__InternalCxxFrameHandler@V__FrameHandler3@@@@YA?AW4_EXCEPTION_DISPOSITION@@PAUEHExceptionRecord@@PAUEHRegistrationNode@@PAU_CONTEXT@@PAXPBU_s_FuncInfo@@H1E@Z 10010aa0 f i libvcruntime:frame.obj
 0001:0000fba2       ??0bad_exception@std@@QAE@ABV01@@Z 10010ba2 f i libvcruntime:frame.obj
 0001:0000fbbd       ??0bad_exception@std@@QAE@XZ 10010bbd f i libvcruntime:frame.obj
 0001:0000fbd5       ??8type_info@@QBE_NABV0@@Z 10010bd5 f i libvcruntime:frame.obj
 0001:0000fe3c       ?FrameUnwindToEmptyState@__FrameHandler3@@SAXPAUEHRegistrationNode@@PAXPBU_s_FuncInfo@@@Z 10010e3c f   libvcruntime:frame.obj
 0001:0000fe54       ?FrameUnwindToState@__FrameHandler3@@SAXPAUEHRegistrationNode@@PAXPBU_s_FuncInfo@@H@Z 10010e54 f   libvcruntime:frame.obj
 0001:0000ffd6       ?_CallMemberFunction1@@YGXQAX00@Z 10010fd6 f i libvcruntime:frame.obj
 0001:0000ffe6       ?_CallMemberFunction2@@YGXQAX00H@Z 10010fe6 f i libvcruntime:frame.obj
 0001:0000fff9       ?getESTypes@__FrameHandler3@@SAPBU_s_ESTypeList@@PBU_s_FuncInfo@@@Z 10010ff9 f i libvcruntime:frame.obj
 0001:00010010       __CallSettingFrame@12      10011010 f   libvcruntime:lowhelpr.obj
 0001:00010037       __NLG_Return               10011037     libvcruntime:lowhelpr.obj
 0001:00010060       __global_unwind2           10011060 f   libvcruntime:exsup.obj
 0001:000100c6       __local_unwind2            100110c6 f   libvcruntime:exsup.obj
 0001:0001014a       __abnormal_termination     1001114a f   libvcruntime:exsup.obj
 0001:00010170       __NLG_Notify1              10011170 f   libvcruntime:exsup.obj
 0001:0001017c       __NLG_Notify               1001117c f   libvcruntime:exsup.obj
 0001:00010193       __NLG_Dispatch2            10011193     libvcruntime:exsup.obj
 0001:00010193       __NLG_Dispatch             10011193     libvcruntime:exsup.obj
 0001:0001019b       __NLG_Call                 1001119b f   libvcruntime:exsup.obj
 0001:0001019d       __NLG_Return2              1001119d     libvcruntime:exsup.obj
 0001:00010281       ___vcrt_FlsAlloc           10011281 f   libvcruntime:winapi_downlevel.obj
 0001:000102bc       ___vcrt_FlsFree            100112bc f   libvcruntime:winapi_downlevel.obj
 0001:000102f7       ___vcrt_FlsGetValue        100112f7 f   libvcruntime:winapi_downlevel.obj
 0001:00010332       ___vcrt_FlsSetValue        10011332 f   libvcruntime:winapi_downlevel.obj
 0001:00010370       ___vcrt_InitializeCriticalSectionEx 10011370 f   libvcruntime:winapi_downlevel.obj
 0001:000103b7       _unexpected                100113b7 f   libvcruntime:unexpected.obj
 0001:000103d4       ?GetCurrentState@__FrameHandler3@@SAHPAUEHRegistrationNode@@PAXPBU_s_FuncInfo@@@Z 100113d4 f   libvcruntime:ehstate.obj
 0001:000103f1       ?SetState@__FrameHandler3@@SAXPAUEHRegistrationNode@@PBU_s_FuncInfo@@H@Z 100113f1 f   libvcruntime:ehstate.obj
 0001:000103ff       _free                      100113ff f   libucrt:free.obj
 0001:0001041a       ___acrt_call_reportfault   1001141a f   libucrt:invalid_parameter.obj
 0001:00010553       ___acrt_initialize_invalid_parameter_handler 10011553 f   libucrt:invalid_parameter.obj
 0001:00010562       __invalid_parameter        10011562 f   libucrt:invalid_parameter.obj
 0001:000105c6       __invalid_parameter_noinfo 100115c6 f   libucrt:invalid_parameter.obj
 0001:000105d6       __invoke_watson            100115d6 f   libucrt:invalid_parameter.obj
 0001:0001060a       ___acrt_errno_from_os_error 1001160a f   libucrt:errno.obj
 0001:0001064d       ___acrt_errno_map_os_error 1001164d f   libucrt:errno.obj
 0001:00010670       ___doserrno                10011670 f   libucrt:errno.obj
 0001:00010683       __errno                    10011683 f   libucrt:errno.obj
 0001:00010696       _calloc                    10011696 f   libucrt:calloc.obj
 0001:000106a1       _malloc                    100116a1 f   libucrt:malloc.obj
 0001:000106ac       __recalloc                 100116ac f   libucrt:recalloc.obj
 0001:000106b7       __recalloc_base            100116b7 f   libucrt:recalloc.obj
 0001:00010724       __resetstkoflw             10011724 f   libucrt:resetstk.obj
 0001:000107e9       _wcscat_s                  100117e9 f   libucrt:wcscat_s.obj
 0001:0001085e       _wcscpy_s                  1001185e f   libucrt:wcscpy_s.obj
 0001:0001098d       _wcsncpy_s                 1001198d f   libucrt:wcsncpy_s.obj
 0001:00010b99       ??$count@D@formatting_buffer@__crt_stdio_output@@QBEIXZ 10011b99 f i libucrt:output.obj
 0001:00010bb1       ??$count@_W@formatting_buffer@__crt_stdio_output@@QBEIXZ 10011bb1 f i libucrt:output.obj
 0001:00010bca       ??$ensure_buffer_is_big_enough@D@formatting_buffer@__crt_stdio_output@@QAE_NI@Z 10011bca f i libucrt:output.obj
 0001:00010c47       ??$ensure_buffer_is_big_enough@_W@formatting_buffer@__crt_stdio_output@@QAE_NI@Z 10011c47 f i libucrt:output.obj
 0001:00010cc5       ??$is_wide_character_specifier@_W@__crt_stdio_output@@YA_N_K_WW4length_modifier@0@@Z 10011cc5 f i libucrt:output.obj
 0001:00010d13       ??$scratch_data@D@formatting_buffer@__crt_stdio_output@@QAEPADXZ 10011d13 f i libucrt:output.obj
 0001:00010d31       ??$type_case_integer_parse_into_buffer@I@?$output_processor@_WV?$string_output_adapter@_W@__crt_stdio_output@@V?$format_validation_base@_WV?$string_output_adapter@_W@__crt_stdio_output@@@2@@__crt_stdio_output@@AAEXII_N@Z 10011d31 f i libucrt:output.obj
 0001:00010db8       ??$type_case_integer_parse_into_buffer@_K@?$output_processor@_WV?$string_output_adapter@_W@__crt_stdio_output@@V?$format_validation_base@_WV?$string_output_adapter@_W@__crt_stdio_output@@@2@@__crt_stdio_output@@AAEX_KI_N@Z 10011db8 f i libucrt:output.obj
 0001:00010e5a       ??$write_multiple_characters@V?$string_output_adapter@_W@__crt_stdio_output@@D@__crt_stdio_output@@YAXABV?$string_output_adapter@_W@0@DHQAH@Z 10011e5a f i libucrt:output.obj
 0001:00010e8b       ??0?$common_data@_W@__crt_stdio_output@@IAE@XZ 10011e8b f i libucrt:output.obj
 0001:00010ed5       ??0?$output_adapter_data@_WV?$string_output_adapter@_W@__crt_stdio_output@@@__crt_stdio_output@@IAE@ABV?$string_output_adapter@_W@1@_KQB_WQAU__crt_locale_pointers@@QAD@Z 10011ed5 f i libucrt:output.obj
 0001:00010f11       ??0_LocaleUpdate@@QAE@QAU__crt_locale_pointers@@@Z 10011f11 f i libucrt:output.obj
 0001:00010f94       ??1formatting_buffer@__crt_stdio_output@@QAE@XZ 10011f94 f i libucrt:output.obj
 0001:00010fae       ??4?$__crt_unique_heap_ptr@DU__crt_internal_free_policy@@@@QAEAAV0@$$QAV0@@Z 10011fae f i libucrt:output.obj
 0001:00010fe0       ?crop_zeroes@__crt_stdio_output@@YAXPADQAU__crt_locale_pointers@@@Z 10011fe0 f i libucrt:output.obj
 0001:00011061       ?find_next_state@?$output_processor@_WV?$string_output_adapter@_W@__crt_stdio_output@@V?$format_validation_base@_WV?$string_output_adapter@_W@__crt_stdio_output@@@2@@__crt_stdio_output@@ABE?AW4state@2@_WW432@@Z 10012061 f i libucrt:output.obj
 0001:000110a0       ?force_decimal_point@__crt_stdio_output@@YAXPADQAU__crt_locale_pointers@@@Z 100120a0 f i libucrt:output.obj
 0001:00011105       ?parse_int_from_format_string@?$output_processor@_WV?$string_output_adapter@_W@__crt_stdio_output@@V?$format_validation_base@_WV?$string_output_adapter@_W@__crt_stdio_output@@@2@@__crt_stdio_output@@AAE_NQAH@Z 10012105 f i libucrt:output.obj
 0001:0001117b       ?process@?$output_processor@_WV?$string_output_adapter@_W@__crt_stdio_output@@V?$format_validation_base@_WV?$string_output_adapter@_W@__crt_stdio_output@@@2@@__crt_stdio_output@@QAEHXZ 1001217b f i libucrt:output.obj
 0001:000112a3       ?state_case_flag@?$output_processor@_WV?$string_output_adapter@_W@__crt_stdio_output@@V?$format_validation_base@_WV?$string_output_adapter@_W@__crt_stdio_output@@@2@@__crt_stdio_output@@AAE_NXZ 100122a3 f i libucrt:output.obj
 0001:000112e0       ?state_case_normal@?$output_processor@_WV?$string_output_adapter@_W@__crt_stdio_output@@V?$format_validation_base@_WV?$string_output_adapter@_W@__crt_stdio_output@@@2@@__crt_stdio_output@@AAE_NXZ 100122e0 f i libucrt:output.obj
 0001:000112ff       ?state_case_normal_common@?$output_processor@_WV?$string_output_adapter@_W@__crt_stdio_output@@V?$format_validation_base@_WV?$string_output_adapter@_W@__crt_stdio_output@@@2@@__crt_stdio_output@@AAE_NXZ 100122ff f i libucrt:output.obj
 0001:0001131a       ?state_case_precision@?$output_processor@_WV?$string_output_adapter@_W@__crt_stdio_output@@V?$format_validation_base@_WV?$string_output_adapter@_W@__crt_stdio_output@@@2@@__crt_stdio_output@@AAE_NXZ 1001231a f i libucrt:output.obj
 0001:00011341       ?state_case_size@?$output_processor@_WV?$string_output_adapter@_W@__crt_stdio_output@@V?$format_validation_base@_WV?$string_output_adapter@_W@__crt_stdio_output@@@2@@__crt_stdio_output@@AAE_NXZ 10012341 f i libucrt:output.obj
 0001:000114b9       ?state_case_type@?$output_processor@_WV?$string_output_adapter@_W@__crt_stdio_output@@V?$format_validation_base@_WV?$string_output_adapter@_W@__crt_stdio_output@@@2@@__crt_stdio_output@@AAE_NXZ 100124b9 f i libucrt:output.obj
 0001:00011716       ?state_case_width@?$output_processor@_WV?$string_output_adapter@_W@__crt_stdio_output@@V?$format_validation_base@_WV?$string_output_adapter@_W@__crt_stdio_output@@@2@@__crt_stdio_output@@AAE_NXZ 10012716 f i libucrt:output.obj
 0001:00011750       ?to_integer_size@__crt_stdio_output@@YAIW4length_modifier@1@@Z 10012750 f i libucrt:output.obj
 0001:000117ac       ?type_case_Z@?$output_processor@_WV?$string_output_adapter@_W@__crt_stdio_output@@V?$format_validation_base@_WV?$string_output_adapter@_W@__crt_stdio_output@@@2@@__crt_stdio_output@@AAE_NXZ 100127ac f i libucrt:output.obj
 0001:00011806       ?type_case_a@?$output_processor@_WV?$string_output_adapter@_W@__crt_stdio_output@@V?$format_validation_base@_WV?$string_output_adapter@_W@__crt_stdio_output@@@2@@__crt_stdio_output@@AAE_NXZ 10012806 f i libucrt:output.obj
 0001:0001196d       ?type_case_c_tchar@?$output_processor@_WV?$string_output_adapter@_W@__crt_stdio_output@@V?$format_validation_base@_WV?$string_output_adapter@_W@__crt_stdio_output@@@2@@__crt_stdio_output@@AAE_N_W@Z 1001296d f i libucrt:output.obj
 0001:00011a03       ?type_case_integer@?$output_processor@_WV?$string_output_adapter@_W@__crt_stdio_output@@V?$format_validation_base@_WV?$string_output_adapter@_W@__crt_stdio_output@@@2@@__crt_stdio_output@@AAE_NI_N@Z 10012a03 f i libucrt:output.obj
 0001:00011b58       ?type_case_n@?$output_processor@_WV?$string_output_adapter@_W@__crt_stdio_output@@V?$format_validation_base@_WV?$string_output_adapter@_W@__crt_stdio_output@@@2@@__crt_stdio_output@@AAE_NXZ 10012b58 f i libucrt:output.obj
 0001:00011bcc       ?type_case_o@?$output_processor@_WV?$string_output_adapter@_W@__crt_stdio_output@@V?$format_validation_base@_WV?$string_output_adapter@_W@__crt_stdio_output@@@2@@__crt_stdio_output@@AAE_NXZ 10012bcc f i libucrt:output.obj
 0001:00011beb       ?type_case_p@?$output_processor@_WV?$string_output_adapter@_W@__crt_stdio_output@@V?$format_validation_base@_WV?$string_output_adapter@_W@__crt_stdio_output@@@2@@__crt_stdio_output@@AAE_NXZ 10012beb f i libucrt:output.obj
 0001:00011c03       ?type_case_s@?$output_processor@_WV?$string_output_adapter@_W@__crt_stdio_output@@V?$format_validation_base@_WV?$string_output_adapter@_W@__crt_stdio_output@@@2@@__crt_stdio_output@@AAE_NXZ 10012c03 f i libucrt:output.obj
 0001:00011c76       ?type_case_s_compute_narrow_string_length@?$output_processor@_WV?$string_output_adapter@_W@__crt_stdio_output@@V?$format_validation_base@_WV?$string_output_adapter@_W@__crt_stdio_output@@@2@@__crt_stdio_output@@ABEHH_W@Z 10012c76 f i libucrt:output.obj
 0001:00011cbd       ?validate@?$string_output_adapter@_W@__crt_stdio_output@@QBE_NXZ 10012cbd f i libucrt:output.obj
 0001:00011cbd       ?validate@?$c_string_character_source@_W@__crt_strtox@@QBE_NXZ 10012cbd f i libucrt:atox.obj
 0001:00011cd8       ?validate_and_update_state_at_end_of_format_string@?$format_validation_base@_WV?$string_output_adapter@_W@__crt_stdio_output@@@__crt_stdio_output@@IBE_NXZ 10012cd8 f i libucrt:output.obj
 0001:00011cfa       ?write_character@?$string_output_adapter@_W@__crt_stdio_output@@QBE_N_WQAH@Z 10012cfa f i libucrt:output.obj
 0001:00011d3f       ?write_stored_string_tchar@?$output_processor@_WV?$string_output_adapter@_W@__crt_stdio_output@@V?$format_validation_base@_WV?$string_output_adapter@_W@__crt_stdio_output@@@2@@__crt_stdio_output@@AAE_N_W@Z 10012d3f f i libucrt:output.obj
 0001:00011dcc       ?write_string@?$string_output_adapter@_W@__crt_stdio_output@@QBEXQB_WHQAHAAV__crt_deferred_errno_cache@@@Z 10012dcc f i libucrt:output.obj
 0001:00011e3d       ___acrt_locale_get_ctype_array_value 10012e3d f i libucrt:output.obj
 0001:00011e5f       ___stdio_common_vswprintf_s 10012e5f f   libucrt:output.obj
 0001:00011e83       __seh_filter_dll           10012e83 f   libucrt:exception_filter.obj
 0001:00011ea3       __seh_filter_exe           10012ea3 f   libucrt:exception_filter.obj
 0001:00012271       ___acrt_initialize_thread_local_exit_callback 10013271 f   libucrt:exit.obj
 0001:00012280       __cexit                    10013280 f   libucrt:exit.obj
 0001:0001228f       __exit                     1001328f f   libucrt:exit.obj
 0001:000122a5       __is_c_termination_complete 100132a5 f   libucrt:exit.obj
 0001:00012556       ___acrt_allocate_buffer_for_argv 10013556 f   libucrt:argv_parsing.obj
 0001:000125a5       __configure_narrow_argv    100135a5 f   libucrt:argv_parsing.obj
 0001:00012702       ??$uninitialize@A6AXAAPAPA_W@Z@?$dual_state_global@PAPA_W@__crt_state_management@@QAEXA6AXAAPAPA_W@Z@Z 10013702 f i libucrt:environment_initialization.obj
 0001:00012702       ??$uninitialize@A6AXAAPAPAD@Z@?$dual_state_global@PAPAD@__crt_state_management@@QAEXA6AXAAPAPAD@Z@Z 10013702 f i libucrt:environment_initialization.obj
 0001:00012761       ___dcrt_uninitialize_environments_nolock 10013761 f   libucrt:environment_initialization.obj
 0001:00012798       __initialize_narrow_environment 10013798 f   libucrt:environment_initialization.obj
 0001:00012853       ??$__crt_fast_encode_pointer@PAP6AXXZ@@YAPAP6AXXZQAP6AXXZ@Z 10013853 f i libucrt:onexit.obj
 0001:00012853       ??$__crt_fast_encode_pointer@P6AHXZ@@YAP6AHXZQ6AHXZ@Z 10013853 f i libucrt:onexit.obj
 0001:00012853       ??$__crt_fast_encode_pointer@PAX@@YAPAXQAX@Z 10013853 f i libucrt:initialization.obj
 0001:00012a75       __crt_atexit               10013a75 f   libucrt:onexit.obj
 0001:00012a8b       __execute_onexit_table     10013a8b f   libucrt:onexit.obj
 0001:00012ab8       __initialize_onexit_table  10013ab8 f   libucrt:onexit.obj
 0001:00012ae1       __register_onexit_function 10013ae1 f   libucrt:onexit.obj
 0001:00012b3b       ___acrt_uninitialize_command_line 10013b3b f   libucrt:argv_data.obj
 0001:00012c12       ___acrt_initialize         10013c12 f   libucrt:initialization.obj
 0001:00012c24       ___acrt_thread_attach      10013c24 f   libucrt:initialization.obj
 0001:00012c2f       ___acrt_thread_detach      10013c2f f   libucrt:initialization.obj
 0001:00012c37       ___acrt_uninitialize       10013c37 f   libucrt:initialization.obj
 0001:00012c67       ___acrt_uninitialize_critical 10013c67 f   libucrt:initialization.obj
 0001:00012c79       __initterm                 10013c79 f   libucrt:initterm.obj
 0001:00012cbe       __initterm_e               10013cbe f   libucrt:initterm.obj
 0001:00012cec       ___acrt_initialize_new_handler 10013cec f   libucrt:new_handler.obj
 0001:00012cfb       __callnewh                 10013cfb f   libucrt:new_handler.obj
 0001:00012d28       __query_new_handler        10013d28 f   libucrt:new_handler.obj
 0001:00012d84       _terminate                 10013d84 f   libucrt:terminate.obj
 0001:00012dc0       _abort                     10013dc0 f   libucrt:abort.obj
 0001:00012e04       _strcpy_s                  10013e04 f   libucrt:strcpy_s.obj
 0001:00012e5e       ??$is_overflow_condition@K@__crt_strtox@@YA_NIK@Z 10013e5e f i libucrt:atox.obj
 0001:00012e8f       ??$parse_integer@KV?$c_string_character_source@_W@__crt_strtox@@@__crt_strtox@@YAKQAU__crt_locale_pointers@@V?$c_string_character_source@_W@0@H_N@Z 10013e8f f i libucrt:atox.obj
 0001:00013497       ?unget@?$c_string_character_source@_W@__crt_strtox@@QAEX_W@Z 10014497 f i libucrt:atox.obj
 0001:000134d0       _strncmp                   100144d0 f   libucrt:strncmp.obj
 0001:00013548       _wcsncmp                   10014548 f   libucrt:wcsncmp.obj
 0001:00013582       __free_base                10014582 f   libucrt:free_base.obj
 0001:000138fa       ___acrt_freeptd            100148fa f   libucrt:per_thread_data.obj
 0001:00013926       ___acrt_getptd             10014926 f   libucrt:per_thread_data.obj
 0001:000139e3       ___acrt_getptd_head        100149e3 f   libucrt:per_thread_data.obj
 0001:00013a7d       ___acrt_getptd_noexit      10014a7d f   libucrt:per_thread_data.obj
 0001:00013b32       ___acrt_initialize_ptd     10014b32 f   libucrt:per_thread_data.obj
 0001:00013b5e       ___acrt_uninitialize_ptd   10014b5e f   libucrt:per_thread_data.obj
 0001:00013b78       __calloc_base              10014b78 f   libucrt:calloc_base.obj
 0001:00013bd5       __malloc_base              10014bd5 f   libucrt:malloc_base.obj
 0001:00013c23       __msize_base               10014c23 f   libucrt:msize.obj
 0001:00013c56       __realloc_base             10014c56 f   libucrt:realloc_base.obj
 0001:00013e57       ___acrt_AppPolicyGetProcessTerminationMethodInternal@4 10014e57 f   libucrt:winapi_thunks.obj
 0001:00013e97       ___acrt_AreFileApisANSI@0  10014e97 f   libucrt:winapi_thunks.obj
 0001:00013eb6       ___acrt_FlsAlloc@4         10014eb6 f   libucrt:winapi_thunks.obj
 0001:00013ef5       ___acrt_FlsFree@4          10014ef5 f   libucrt:winapi_thunks.obj
 0001:00013f34       ___acrt_FlsGetValue@4      10014f34 f   libucrt:winapi_thunks.obj
 0001:00013f73       ___acrt_FlsSetValue@8      10014f73 f   libucrt:winapi_thunks.obj
 0001:00013fb5       ___acrt_InitializeCriticalSectionEx@12 10014fb5 f   libucrt:winapi_thunks.obj
 0001:00014000       ___acrt_LCMapStringEx@36   10015000 f   libucrt:winapi_thunks.obj
 0001:0001405d       ___acrt_LocaleNameToLCID@8 1001505d f   libucrt:winapi_thunks.obj
 0001:0001408e       ___acrt_SetThreadStackGuarantee@4 1001508e f   libucrt:winapi_thunks.obj
 0001:000140c9       ___acrt_initialize_winapi_thunks 100150c9 f   libucrt:winapi_thunks.obj
 0001:000140f4       ___acrt_uninitialize_winapi_thunks 100150f4 f   libucrt:winapi_thunks.obj
 0001:0001412a       ??$make_c_string_character_source@_WPAPA_W@__crt_strtox@@YA?AV?$c_string_character_source@_W@0@QB_WQAPA_W@Z 1001512a f i libucrt:strtox.obj
 0001:00014145       _wcstol                    10015145 f   libucrt:strtox.obj
 0001:0001416f       __mbtowc_l                 1001516f f   libucrt:mbtowc.obj
 0001:000142b1       _mbtowc                    100152b1 f   libucrt:mbtowc.obj
 0001:000142cb       _wcsnlen                   100152cb f   libucrt:strnlen.obj
 0001:0001447b       ___acrt_update_locale_info 1001547b f   libucrt:locale_update.obj
 0001:000144a8       ___acrt_update_multibyte_info 100154a8 f   libucrt:locale_update.obj
 0001:000144d5       ?__acrt_fp_classify@@YA?AW4__acrt_fp_class@@ABN@Z 100154d5 f i libucrt:cvt.obj
 0001:00014e87       ___acrt_fp_format          10015e87 f   libucrt:cvt.obj
 0001:00014fe5       __fileno                   10015fe5 f   libucrt:fileno.obj
 0001:0001500c       ___acrt_initialize_stdio   1001600c f   libucrt:_file.obj
 0001:000150d4       ___acrt_uninitialize_stdio 100160d4 f   libucrt:_file.obj
 0001:00015120       __lock_file                10016120 f   libucrt:_file.obj
 0001:00015134       __unlock_file              10016134 f   libucrt:_file.obj
 0001:00015148       __get_printf_count_output  10016148 f   libucrt:printf_count_output.obj
 0001:000151cb       ___acrt_set_locale_changed 100161cb f   libucrt:wsetlocale.obj
 0001:000151d6       ___acrt_uninitialize_locale 100161d6 f   libucrt:wsetlocale.obj
 0001:00015367       ___acrt_initialize_lowio   10016367 f   libucrt:ioinit.obj
 0001:000153c7       ___acrt_uninitialize_lowio 100163c7 f   libucrt:ioinit.obj
 0001:000153f3       ___acrt_initialize_locks   100163f3 f   libucrt:locks.obj
 0001:00015434       ___acrt_lock               10016434 f   libucrt:locks.obj
 0001:0001544b       ___acrt_uninitialize_locks 1001644b f   libucrt:locks.obj
 0001:0001547c       ___acrt_unlock             1001647c f   libucrt:locks.obj
 0001:00015493       ___acrt_get_process_end_policy 10016493 f   libucrt:win_policies.obj
 0001:0001565d       ??$__acrt_mbs_to_wcs_cp@U__crt_win32_buffer_internal_dynamic_resizing@@@@YAHQBDAAV?$__crt_win32_buffer@_WU__crt_win32_buffer_internal_dynamic_resizing@@@@I@Z 1001665d f i libucrt:argv_wildcards.obj
 0001:00015b71       ?__acrt_get_utf8_acp_compatibility_codepage@@YAIXZ 10016b71 f i libucrt:argv_wildcards.obj
 0001:00015bb0       ?_deallocate@?$__crt_win32_buffer@DU__crt_win32_buffer_internal_dynamic_resizing@@@@AAEXXZ 10016bb0 f i libucrt:argv_wildcards.obj
 0001:00015bb0       ?_deallocate@?$__crt_win32_buffer@_WU__crt_win32_buffer_internal_dynamic_resizing@@@@AAEXXZ 10016bb0 f i libucrt:argv_wildcards.obj
 0001:00015bca       ?allocate@?$__crt_win32_buffer@DU__crt_win32_buffer_internal_dynamic_resizing@@@@QAEHI@Z 10016bca f i libucrt:argv_wildcards.obj
 0001:00015c06       ?allocate@?$__crt_win32_buffer@_WU__crt_win32_buffer_internal_dynamic_resizing@@@@QAEHI@Z 10016c06 f i libucrt:argv_wildcards.obj
 0001:00015c45       ?allocate@__crt_win32_buffer_internal_dynamic_resizing@@SAHQAPAXIABV__crt_win32_buffer_empty_debug_info@@@Z 10016c45 f i libucrt:argv_wildcards.obj
 0001:00015ceb       ___acrt_expand_narrow_argv_wildcards 10016ceb f   libucrt:argv_wildcards.obj
 0001:00015dbd       ?allocate@?$__crt_win32_buffer@DU__crt_win32_buffer_no_resizing@@@@QAEHI@Z 10016dbd f i libucrt:getmodulefilenamea.obj
 0001:00015de4       ?set_to_nullptr@?$__crt_win32_buffer@DU__crt_win32_buffer_no_resizing@@@@QAEXXZ 10016de4 f i libucrt:getmodulefilenamea.obj
 0001:00015df8       ___acrt_GetModuleFileNameA 10016df8 f   libucrt:getmodulefilenamea.obj
 0001:000163b1       ___acrt_initialize_multibyte 100173b1 f   libucrt:mbctype.obj
 0001:000163f9       ___acrt_update_thread_multibyte_data 100173f9 f   libucrt:mbctype.obj
 0001:0001640c       __setmbcp_nolock           1001740c f   libucrt:mbctype.obj
 0001:000166d7       __ismbblead                100176d7 f   libucrt:ismbbyte.obj
 0001:000166ef       ___acrt_initialize_command_line 100176ef f   libucrt:argv_data.obj
 0001:00016708       ___acrt_MultiByteToWideChar 10017708 f   libucrt:multibytetowidechar.obj
 0001:00016784       ___acrt_WideCharToMultiByte 10017784 f   libucrt:widechartomultibyte.obj
 0001:00016872       ___dcrt_get_narrow_environment_from_os 10017872 f   libucrt:get_environment_from_os.obj
 0001:000168f6       ___acrt_initialize_heap    100178f6 f   libucrt:heap_handle.obj
 0001:00016907       ___acrt_uninitialize_heap  10017907 f   libucrt:heap_handle.obj
 0001:00016911       ___acrt_execute_initializers 10017911 f   libucrt:shared_initialization.obj
 0001:00016979       ___acrt_execute_uninitializers 10017979 f   libucrt:shared_initialization.obj
 0001:00016a78       ___acrt_get_sigabrt_handler 10017a78 f   libucrt:signal.obj
 0001:00016a9f       ___acrt_initialize_signal_handlers 10017a9f f   libucrt:signal.obj
 0001:00016abd       _raise                     10017abd f   libucrt:signal.obj
 0001:00016cb0       ___acrt_has_user_matherr   10017cb0 f   libucrt:matherr.obj
 0001:00016cc8       ___acrt_initialize_user_matherr 10017cc8 f   libucrt:matherr.obj
 0001:00016cd7       ___acrt_invoke_user_matherr 10017cd7 f   libucrt:matherr.obj
 0001:00016ee6       ___acrt_stdio_flush_nolock 10017ee6 f   libucrt:fflush.obj
 0001:00016f4b       __fflush_nolock            10017f4b f   libucrt:fflush.obj
 0001:00016f93       __flushall                 10017f93 f   libucrt:fflush.obj
 0001:00016f9c       ___pctype_func             10017f9c f   libucrt:ctype.obj
 0001:00016fc0       _iswctype                  10017fc0 f   libucrt:iswctype.obj
 0001:00017029       ___acrt_add_locale_ref     10018029 f   libucrt:locale_refcounting.obj
 0001:000170a6       ___acrt_free_locale        100180a6 f   libucrt:locale_refcounting.obj
 0001:000171ee       ___acrt_locale_add_lc_time_reference 100181ee f   libucrt:locale_refcounting.obj
 0001:00017217       ___acrt_locale_free_lc_time_if_unreferenced 10018217 f   libucrt:locale_refcounting.obj
 0001:00017248       ___acrt_locale_release_lc_time_reference 10018248 f   libucrt:locale_refcounting.obj
 0001:00017271       ___acrt_release_locale_ref 10018271 f   libucrt:locale_refcounting.obj
 0001:000172f2       ___acrt_update_thread_locale_data 100182f2 f   libucrt:locale_refcounting.obj
 0001:00017373       __updatetlocinfoEx_nolock  10018373 f   libucrt:locale_refcounting.obj
 0001:000173c3       __query_new_mode           100183c3 f   libucrt:new_mode.obj
 0001:0001741a       ___acrt_DownlevelLocaleNameToLCID 1001841a f   libucrt:lcidtoname_downlevel.obj
 0001:00017446       __isleadbyte_l             10018446 f i libucrt:_wctype.obj
 0001:000174ac       ?__mbrtowc_utf8@__crt_mbstring@@YAIPA_WPBDIPAU_Mbstatet@@@Z 100184ac f   libucrt:mbrtowc.obj
 0001:000174ec       ?__mbsrtowcs_utf8@__crt_mbstring@@YAIPA_WPAPBDIPAU_Mbstatet@@@Z 100184ec f   libucrt:mbrtowc.obj
 0001:000175e7       ?return_illegal_sequence@__crt_mbstring@@YAIPAU_Mbstatet@@@Z 100185e7 f i libucrt:c32rtomb.obj
 0001:00017671       ___acrt_fp_strflt_to_string 10018671 f   libucrt:_fptostr.obj
 0001:00017750       ?divide@__crt_strtox@@YA_KAAUbig_integer@1@ABU21@@Z 10018750 f i libucrt:cfout.obj
 0001:00017be8       ___acrt_fltout             10018be8 f   libucrt:cfout.obj
 0001:000190ef       _fegetround                1001a0ef f   libucrt:fegetround.obj
 0001:000190fc       __fcloseall                1001a0fc f   libucrt:closeall.obj
 0001:000191a7       ___acrt_stdio_free_buffer_nolock 1001a1a7 f   libucrt:_freebuf.obj
 0001:000191e7       __isatty                   1001a1e7 f   libucrt:isatty.obj
 0001:0001923d       ___acrt_locale_free_monetary 1001a23d f   libucrt:initmon.obj
 0001:0001933b       ___acrt_locale_free_numeric 1001a33b f   libucrt:initnum.obj
 0001:000193dc       ___acrt_locale_free_time   1001a3dc f   libucrt:inittime.obj
 0001:000194c0       ___acrt_GetStringTypeA     1001a4c0 f   libucrt:getstringtypea.obj
 0001:000195c3       __freea_crt                1001a5c3 f i libucrt:getstringtypea.obj
 0001:000195e3       ___acrt_lowio_create_handle_array 1001a5e3 f   libucrt:osfinfo.obj
 0001:0001965e       ___acrt_lowio_destroy_handle_array 1001a65e f   libucrt:osfinfo.obj
 0001:00019693       ___acrt_lowio_ensure_fh_exists 1001a693 f   libucrt:osfinfo.obj
 0001:00019731       ___acrt_lowio_lock_fh      1001a731 f   libucrt:osfinfo.obj
 0001:00019754       ___acrt_lowio_unlock_fh    1001a754 f   libucrt:osfinfo.obj
 0001:00019777       __free_osfhnd              1001a777 f   libucrt:osfinfo.obj
 0001:00019808       __get_osfhandle            1001a808 f   libucrt:osfinfo.obj
 0001:00019880       _qsort                     1001a880 f   libucrt:qsort.obj
 0001:00019e21       _strncpy_s                 1001ae21 f   libucrt:strncpy_s.obj
 0001:00019e30       _strpbrk                   1001ae30 f   libucrt:strpbrk.obj
 0001:00019e70       __mbsdec                   1001ae70 f   libucrt:mbsdec.obj
 0001:00019e87       __mbsdec_l                 1001ae87 f   libucrt:mbsdec.obj
 0001:0001a0fe       ___acrt_LCMapStringA       1001b0fe f   libucrt:lcmapstringa.obj
 0001:0001a1f8       __commit                   1001b1f8 f   libucrt:commit.obj
 0001:0001a9f0       __write                    1001b9f0 f   libucrt:write.obj
 0001:0001aae2       __write_nolock             1001bae2 f   libucrt:write.obj
 0001:0001acbc       ___acrt_GetStringTypeW     1001bcbc f   libucrt:getstringtypew.obj
 0001:0001acd5       ___ascii_wcsnicmp          1001bcd5 f   libucrt:wcsnicmp.obj
 0001:0001ad24       ?__mbrtoc32_utf8@__crt_mbstring@@YAIPA_UPBDIPAU_Mbstatet@@@Z 1001bd24 f   libucrt:mbrtoc32.obj
 0001:0001aecb       __controlfp_s              1001becb f   libucrt:contrlfp.obj
 0001:0001af2a       _fegetenv                  1001bf2a f   libucrt:fegetenv.obj
 0001:0001af47       _fesetenv                  1001bf47 f   libucrt:fesetenv.obj
 0001:0001af92       _feholdexcept              1001bf92 f   libucrt:feholdexcept.obj
 0001:0001afe0       __CIlog10                  1001bfe0 f   libucrt:log10_impl.obj
 0001:0001b01b       __CIlog10_default          1001c01b f   libucrt:log10_impl.obj
 0001:0001b02f       __log10_default            1001c02f     libucrt:log10_impl.obj
 0001:0001b0f0       _ceil                      1001c0f0 f   libucrt:ceil_pentium4.obj
 0001:0001b130       __ceil_pentium4            1001c130 f   libucrt:ceil_pentium4.obj
 0001:0001b52a       ___acrt_fenv_get_common_round_control 1001c52a f   libucrt:_fenvutils.obj
 0001:0001b54c       ___acrt_fenv_get_control   1001c54c f   libucrt:_fenvutils.obj
 0001:0001b5cc       ___acrt_fenv_get_status    1001c5cc f   libucrt:_fenvutils.obj
 0001:0001b684       ___acrt_fenv_set_control   1001c684 f   libucrt:_fenvutils.obj
 0001:0001b6ec       ___acrt_fenv_set_status    1001c6ec f   libucrt:_fenvutils.obj
 0001:0001b85f       __lseeki64_nolock          1001c85f f   libucrt:lseek.obj
 0001:0001b87a       __fclose_nolock            1001c87a f   libucrt:fclose.obj
 0001:0001b8f1       _fclose                    1001c8f1 f   libucrt:fclose.obj
 0001:0001b975       __query_app_type           1001c975 f   libucrt:report_runtime_error.obj
 0001:0001b97b       ___strncnt                 1001c97b f   libucrt:strncnt.obj
 0001:0001b997       __putwch_nolock            1001c997 f   libucrt:putwch.obj
 0001:0001ba70       __clearfp                  1001ca70 f   libucrt:ieee87.obj
 0001:0001bb4e       __control87                1001cb4e f   libucrt:ieee87.obj
 0001:0001beed       ___acrt_initialize_sse2    1001ceed f   libucrt:mathfcns.obj
 0001:0001bf00       __CIlog10_pentium4         1001cf00 f   libucrt:log10_pentium4.obj
 0001:0001bf18       __log10_pentium4           1001cf18     libucrt:log10_pentium4.obj
 0001:0001c1b0       __fFEXP                    1001d1b0 f   libucrt:87tran.obj
 0001:0001c207       __rtinfpopse               1001d207     libucrt:87tran.obj
 0001:0001c209       __rtinfnpopse              1001d209     libucrt:87tran.obj
 0001:0001c219       __fFLN                     1001d219     libucrt:87tran.obj
 0001:0001c2ce       __rtinfpop                 1001d2ce     libucrt:87tran.obj
 0001:0001c2d0       __rtinfnpop                1001d2d0     libucrt:87tran.obj
 0001:0001c2e0       __rtforexpinf              1001d2e0 f   libucrt:87tran.obj
 0001:0001c2ed       __ffexpm1                  1001d2ed     libucrt:87tran.obj
 0001:0001c3a0       __trandisp1                1001d3a0 f   libucrt:87disp.obj
 0001:0001c415       __trandisp2                1001d415 f   libucrt:87disp.obj
 0001:0001c4af       __rttospopde               1001d4af     libucrt:87disp.obj
 0001:0001c4b4       __rttospop                 1001d4b4     libucrt:87disp.obj
 0001:0001c4c0       __rtnospop                 1001d4c0 f   libucrt:87disp.obj
 0001:0001c4d0       __rttosnpop                1001d4d0 f   libucrt:87disp.obj
 0001:0001c4d1       __rtnospopde               1001d4d1     libucrt:87disp.obj
 0001:0001c4d8       __rtzeropop                1001d4d8     libucrt:87disp.obj
 0001:0001c4da       __rtzeronpop               1001d4da     libucrt:87disp.obj
 0001:0001c4e0       __rtzerospop               1001d4e0 f   libucrt:87disp.obj
 0001:0001c4ed       __rtonepop                 1001d4ed     libucrt:87disp.obj
 0001:0001c4f0       __rtonenpop                1001d4f0 f   libucrt:87disp.obj
 0001:0001c500       __tosnan1                  1001d500 f   libucrt:87disp.obj
 0001:0001c530       __nosnan2                  1001d530 f   libucrt:87disp.obj
 0001:0001c540       __tosnan2                  1001d540 f   libucrt:87disp.obj
 0001:0001c570       __nan2                     1001d570 f   libucrt:87disp.obj
 0001:0001c5b0       __rtindfpop                1001d5b0 f   libucrt:87disp.obj
 0001:0001c5b2       __rtindfnpop               1001d5b2     libucrt:87disp.obj
 0001:0001c5c3       __rttosnpopde              1001d5c3     libucrt:87disp.obj
 0001:0001c5d0       __rtatan2inf               1001d5d0 f   libucrt:87disp.obj
 0001:0001c5ed       __rtchsifneg               1001d5ed     libucrt:87disp.obj
 0001:0001c600       __twoToTOS                 1001d600 f   libucrt:common.obj
 0001:0001c615       __load_CW                  1001d615 f   libucrt:common.obj
 0001:0001c62c       __convertTOStoQNaN         1001d62c f   libucrt:common.obj
 0001:0001c645       __fload_withFB             1001d645 f   libucrt:common.obj
 0001:0001c688       __checkTOS_withFB          1001d688 f   libucrt:common.obj
 0001:0001c69e       __fast_exit                1001d69e f   libucrt:common.obj
 0001:0001c6ab       __math_exit                1001d6ab f   libucrt:common.obj
 0001:0001c6d5       __check_overflow_exit      1001d6d5 f   libucrt:common.obj
 0001:0001c6e9       __check_range_exit         1001d6e9 f   libucrt:common.obj
 0001:0001c790       __startTwoArgErrorHandling 1001d790 f   libucrt:genexcep.obj
 0001:0001c7a7       __startOneArgErrorHandling 1001d7a7 f   libucrt:genexcep.obj
 0001:0001c7e3       ___libm_error_support      1001d7e3 f   libucrt:libm_error.obj
 0001:0001c9d7       __ceil_default             1001d9d7 f   libucrt:ceil.obj
 0001:0001cb18       __close                    1001db18 f   libucrt:close.obj
 0001:0001cba5       __close_nolock             1001dba5 f   libucrt:close.obj
 0001:0001cc41       ?__acrt_stdio_free_stream@@YAXV__crt_stdio_stream@@@Z 1001dc41 f   libucrt:stream.obj
 0001:0001cc80       ___ascii_strnicmp          1001dc80 f   libucrt:_strnicm.obj
 0001:0001cd00       ___dcrt_lowio_ensure_console_output_initialized 1001dd00 f   libucrt:initcon.obj
 0001:0001cd1f       ___dcrt_terminate_console_output 1001dd1f f   libucrt:initcon.obj
 0001:0001cd36       ___dcrt_write_console      1001dd36 f   libucrt:initcon.obj
 0001:0001cd8b       ___set_fpsr_sse2           1001dd8b f   libucrt:fpctrl.obj
 0001:0001ce0b       __clrfp                    1001de0b f   libucrt:fpctrl.obj
 0001:0001ce1c       __ctrlfp                   1001de1c f   libucrt:fpctrl.obj
 0001:0001ce46       __set_statfp               1001de46 f   libucrt:fpctrl.obj
 0001:0001ce9f       __statfp                   1001de9f f   libucrt:fpctrl.obj
 0001:0001ceaf       __d_inttype                1001deaf f   libucrt:powhlp.obj
 0001:0001cf17       __powhlp                   1001df17 f   libucrt:powhlp.obj
 0001:0001d042       __87except                 1001e042 f   libucrt:87except.obj
 0001:0001d14c       __frnd                     1001e14c f   libucrt:frnd.obj
 0001:0001d160       __errcode                  1001e160 f   libucrt:fpexcept.obj
 0001:0001d194       __except1                  1001e194 f   libucrt:fpexcept.obj
 0001:0001d262       __handle_exc               1001e262 f   libucrt:fpexcept.obj
 0001:0001d44d       __raise_exc                1001e44d f   libucrt:fpexcept.obj
 0001:0001d470       __raise_exc_ex             1001e470 f   libucrt:fpexcept.obj
 0001:0001d766       __set_errno_from_matherr   1001e766 f   libucrt:fpexcept.obj
 0001:0001d795       __umatherr                 1001e795 f   libucrt:fpexcept.obj
 0001:0001d835       __decomp                   1001e835 f   libucrt:util.obj
 0001:0001d907       __set_exp                  1001e907 f   libucrt:util.obj
 0001:0001d934       __sptype                   1001e934 f   libucrt:util.obj
 0001:0001d992       __fpclass                  1001e992 f   libucrt:ieeemisc.obj
 0001:0001da36       _IsProcessorFeaturePresent@4 1001ea36 f   kernel32:KERNEL32.dll
 0001:0001da40       __FindPESection            1001ea40 f   LIBCMT:pesect.obj
 0001:0001da90       __IsNonwritableInCurrentImage 1001ea90 f   LIBCMT:pesect.obj
 0001:0001db50       __ValidateImageBase        1001eb50 f   LIBCMT:pesect.obj
 0001:0001db83       __EH_prolog3_catch         1001eb83 f   LIBCMT:ehprolg3.obj
 0001:0001dbc0       __aulldvrm                 1001ebc0 f   LIBCMT:ulldvrm.obj
 0001:0001dc60       __allmul                   1001ec60 f   LIBCMT:llmul.obj
 0001:0001dca0       __alldvrm                  1001eca0 f   LIBCMT:lldvrm.obj
 0001:0001dd80       __allshl                   1001ed80 f   LIBCMT:llshl.obj
 0001:0001dda0       __aullshr                  1001eda0 f   LIBCMT:ullshr.obj
 0001:0001ddc0       __ftol2_sse                1001edc0     LIBCMT:ftol2.obj
 0001:0001ddc0       __ftoi2                    1001edc0 f   LIBCMT:ftol2.obj
 0001:0001ddc0       __ftol2_sse_excpt          1001edc0     LIBCMT:ftol2.obj
 0001:0001de40       __ftoui2                   1001ee40 f   LIBCMT:ftol2.obj
 0001:0001def0       __ftol2                    1001eef0 f   LIBCMT:ftol2.obj
 0001:0001dfa0       __ftoul2                   1001efa0 f   LIBCMT:ftol2.obj
 0001:0001e060       _strrchr                   1001f060 f   libvcruntime:strrchr.obj
 0001:0001e1a0       _strchr                    1001f1a0 f   libvcruntime:strchr.obj
 0001:0001e20e       ___from_strstr_to_strchr   1001f20e     libvcruntime:strchr.obj
 0001:0001e2cb       __filter_x86_sse2_floating_point_exception 1001f2cb f   LIBCMT:x86_exception_filter.obj
 0001:0001e2cb       __filter_x86_sse2_floating_point_exception_default 1001f2cb f   LIBCMT:x86_exception_filter.obj
 0002:00000000       __imp__RegQueryValueExW@24 10020000     advapi32:ADVAPI32.dll
 0002:00000004       __imp__RegSetValueExW@24   10020004     advapi32:ADVAPI32.dll
 0002:00000008       __imp__RegQueryInfoKeyW@48 10020008     advapi32:ADVAPI32.dll
 0002:0000000c       __imp__RegOpenKeyExW@20    1002000c     advapi32:ADVAPI32.dll
 0002:00000010       __imp__RegEnumKeyExW@32    10020010     advapi32:ADVAPI32.dll
 0002:00000014       __imp__RegDeleteValueW@8   10020014     advapi32:ADVAPI32.dll
 0002:00000018       __imp__RegDeleteKeyW@8     10020018     advapi32:ADVAPI32.dll
 0002:0000001c       __imp__RegCreateKeyExW@36  1002001c     advapi32:ADVAPI32.dll
 0002:00000020       __imp__RegCloseKey@4       10020020     advapi32:ADVAPI32.dll
 0002:00000024       \177ADVAPI32_NULL_THUNK_DATA 10020024     advapi32:ADVAPI32.dll
 0002:00000028       __imp__GetObjectW@12       10020028     gdi32:GDI32.dll
 0002:0000002c       __imp__SelectObject@8      1002002c     gdi32:GDI32.dll
 0002:00000030       __imp__DeleteObject@4      10020030     gdi32:GDI32.dll
 0002:00000034       __imp__CreateCompatibleDC@4 10020034     gdi32:GDI32.dll
 0002:00000038       __imp__BitBlt@36           10020038     gdi32:GDI32.dll
 0002:0000003c       __imp__SetWindowOrgEx@16   1002003c     gdi32:GDI32.dll
 0002:00000040       __imp__SetWindowExtEx@16   10020040     gdi32:GDI32.dll
 0002:00000044       __imp__SetViewportOrgEx@16 10020044     gdi32:GDI32.dll
 0002:00000048       __imp__LPtoDP@12           10020048     gdi32:GDI32.dll
 0002:0000004c       __imp__SetMapMode@8        1002004c     gdi32:GDI32.dll
 0002:00000050       __imp__SaveDC@4            10020050     gdi32:GDI32.dll
 0002:00000054       __imp__RestoreDC@8         10020054     gdi32:GDI32.dll
 0002:00000058       __imp__GetDeviceCaps@8     10020058     gdi32:GDI32.dll
 0002:0000005c       __imp__DeleteMetaFile@4    1002005c     gdi32:GDI32.dll
 0002:00000060       __imp__DeleteDC@4          10020060     gdi32:GDI32.dll
 0002:00000064       __imp__CreateRectRgnIndirect@4 10020064     gdi32:GDI32.dll
 0002:00000068       __imp__CreateMetaFileW@4   10020068     gdi32:GDI32.dll
 0002:0000006c       __imp__CreateDCW@16        1002006c     gdi32:GDI32.dll
 0002:00000070       __imp__CloseMetaFile@4     10020070     gdi32:GDI32.dll
 0002:00000074       \177GDI32_NULL_THUNK_DATA  10020074     gdi32:GDI32.dll
 0002:00000078       __imp__CloseHandle@4       10020078     kernel32:KERNEL32.dll
 0002:0000007c       __imp__SetEvent@4          1002007c     kernel32:KERNEL32.dll
 0002:00000080       __imp__CreateMutexW@12     10020080     kernel32:KERNEL32.dll
 0002:00000084       __imp__CreateEventW@16     10020084     kernel32:KERNEL32.dll
 0002:00000088       __imp__GetCurrentProcessId@0 10020088     kernel32:KERNEL32.dll
 0002:0000008c       __imp__CreateFileW@28      1002008c     kernel32:KERNEL32.dll
 0002:00000090       __imp__GetConsoleMode@8    10020090     kernel32:KERNEL32.dll
 0002:00000094       __imp__GetConsoleOutputCP@0 10020094     kernel32:KERNEL32.dll
 0002:00000098       __imp__WriteFile@20        10020098     kernel32:KERNEL32.dll
 0002:0000009c       __imp__FlushFileBuffers@4  1002009c     kernel32:KERNEL32.dll
 0002:000000a0       __imp__SetStdHandle@8      100200a0     kernel32:KERNEL32.dll
 0002:000000a4       __imp__GetStringTypeW@16   100200a4     kernel32:KERNEL32.dll
 0002:000000a8       __imp__SetFilePointerEx@20 100200a8     kernel32:KERNEL32.dll
 0002:000000ac       __imp__FreeEnvironmentStringsW@4 100200ac     kernel32:KERNEL32.dll
 0002:000000b0       __imp__GetEnvironmentStringsW@0 100200b0     kernel32:KERNEL32.dll
 0002:000000b4       __imp__lstrcmpiW@8         100200b4     kernel32:KERNEL32.dll
 0002:000000b8       __imp__GetCommandLineA@0   100200b8     kernel32:KERNEL32.dll
 0002:000000bc       __imp__GetCPInfo@8         100200bc     kernel32:KERNEL32.dll
 0002:000000c0       __imp__GetOEMCP@0          100200c0     kernel32:KERNEL32.dll
 0002:000000c4       __imp__GetACP@0            100200c4     kernel32:KERNEL32.dll
 0002:000000c8       __imp__IsValidCodePage@4   100200c8     kernel32:KERNEL32.dll
 0002:000000cc       __imp__FindNextFileW@8     100200cc     kernel32:KERNEL32.dll
 0002:000000d0       __imp__FindFirstFileExW@24 100200d0     kernel32:KERNEL32.dll
 0002:000000d4       __imp__FindClose@4         100200d4     kernel32:KERNEL32.dll
 0002:000000d8       __imp__GetFileType@4       100200d8     kernel32:KERNEL32.dll
 0002:000000dc       __imp__GetStdHandle@4      100200dc     kernel32:KERNEL32.dll
 0002:000000e0       __imp__LCMapStringW@24     100200e0     kernel32:KERNEL32.dll
 0002:000000e4       __imp__HeapReAlloc@16      100200e4     kernel32:KERNEL32.dll
 0002:000000e8       __imp__HeapSize@12         100200e8     kernel32:KERNEL32.dll
 0002:000000ec       __imp__MulDiv@12           100200ec     kernel32:KERNEL32.dll
 0002:000000f0       __imp__GlobalLock@4        100200f0     kernel32:KERNEL32.dll
 0002:000000f4       __imp__GlobalUnlock@4      100200f4     kernel32:KERNEL32.dll
 0002:000000f8       __imp__GlobalAlloc@8       100200f8     kernel32:KERNEL32.dll
 0002:000000fc       __imp__FindResourceW@12    100200fc     kernel32:KERNEL32.dll
 0002:00000100       __imp__SizeofResource@8    10020100     kernel32:KERNEL32.dll
 0002:00000104       __imp__LoadResource@8      10020104     kernel32:KERNEL32.dll
 0002:00000108       __imp__LoadLibraryExW@12   10020108     kernel32:KERNEL32.dll
 0002:0000010c       __imp__GetProcAddress@8    1002010c     kernel32:KERNEL32.dll
 0002:00000110       __imp__GetModuleHandleW@4  10020110     kernel32:KERNEL32.dll
 0002:00000114       __imp__GetModuleFileNameW@12 10020114     kernel32:KERNEL32.dll
 0002:00000118       __imp__FreeLibrary@4       10020118     kernel32:KERNEL32.dll
 0002:0000011c       __imp__DisableThreadLibraryCalls@4 1002011c     kernel32:KERNEL32.dll
 0002:00000120       __imp__GetCurrentThreadId@0 10020120     kernel32:KERNEL32.dll
 0002:00000124       __imp__Sleep@4             10020124     kernel32:KERNEL32.dll
 0002:00000128       __imp__WaitForSingleObject@8 10020128     kernel32:KERNEL32.dll
 0002:0000012c       __imp__ReleaseMutex@4      1002012c     kernel32:KERNEL32.dll
 0002:00000130       __imp__ResetEvent@4        10020130     kernel32:KERNEL32.dll
 0002:00000134       __imp__EnterCriticalSection@4 10020134     kernel32:KERNEL32.dll
 0002:00000138       __imp__LeaveCriticalSection@4 10020138     kernel32:KERNEL32.dll
 0002:0000013c       __imp__SetLastError@4      1002013c     kernel32:KERNEL32.dll
 0002:00000140       __imp__EncodePointer@4     10020140     kernel32:KERNEL32.dll
 0002:00000144       __imp__DeleteCriticalSection@4 10020144     kernel32:KERNEL32.dll
 0002:00000148       __imp__InitializeCriticalSectionEx@12 10020148     kernel32:KERNEL32.dll
 0002:0000014c       __imp__GetLastError@0      1002014c     kernel32:KERNEL32.dll
 0002:00000150       __imp__RaiseException@16   10020150     kernel32:KERNEL32.dll
 0002:00000154       __imp__DecodePointer@4     10020154     kernel32:KERNEL32.dll
 0002:00000158       __imp__WideCharToMultiByte@32 10020158     kernel32:KERNEL32.dll
 0002:0000015c       __imp__GetCommandLineW@0   1002015c     kernel32:KERNEL32.dll
 0002:00000160       __imp__MultiByteToWideChar@24 10020160     kernel32:KERNEL32.dll
 0002:00000164       __imp__WriteConsoleW@20    10020164     kernel32:KERNEL32.dll
 0002:00000168       __imp__GetModuleHandleExW@12 10020168     kernel32:KERNEL32.dll
 0002:0000016c       __imp__ExitProcess@4       1002016c     kernel32:KERNEL32.dll
 0002:00000170       __imp__VirtualQuery@12     10020170     kernel32:KERNEL32.dll
 0002:00000174       __imp__VirtualProtect@16   10020174     kernel32:KERNEL32.dll
 0002:00000178       __imp__GetSystemInfo@4     10020178     kernel32:KERNEL32.dll
 0002:0000017c       __imp__TlsFree@4           1002017c     kernel32:KERNEL32.dll
 0002:00000180       __imp__TlsSetValue@8       10020180     kernel32:KERNEL32.dll
 0002:00000184       __imp__TlsGetValue@4       10020184     kernel32:KERNEL32.dll
 0002:00000188       __imp__TlsAlloc@0          10020188     kernel32:KERNEL32.dll
 0002:0000018c       __imp__InterlockedFlushSList@4 1002018c     kernel32:KERNEL32.dll
 0002:00000190       __imp__RtlUnwind@16        10020190     kernel32:KERNEL32.dll
 0002:00000194       __imp__LoadLibraryExA@12   10020194     kernel32:KERNEL32.dll
 0002:00000198       __imp__VirtualFree@12      10020198     kernel32:KERNEL32.dll
 0002:0000019c       __imp__VirtualAlloc@16     1002019c     kernel32:KERNEL32.dll
 0002:000001a0       __imp__FlushInstructionCache@12 100201a0     kernel32:KERNEL32.dll
 0002:000001a4       __imp__InterlockedPushEntrySList@8 100201a4     kernel32:KERNEL32.dll
 0002:000001a8       __imp__InterlockedPopEntrySList@4 100201a8     kernel32:KERNEL32.dll
 0002:000001ac       __imp__GetProcessHeap@0    100201ac     kernel32:KERNEL32.dll
 0002:000001b0       __imp__HeapFree@12         100201b0     kernel32:KERNEL32.dll
 0002:000001b4       __imp__HeapAlloc@12        100201b4     kernel32:KERNEL32.dll
 0002:000001b8       __imp__OutputDebugStringW@4 100201b8     kernel32:KERNEL32.dll
 0002:000001bc       __imp__InitializeSListHead@4 100201bc     kernel32:KERNEL32.dll
 0002:000001c0       __imp__GetSystemTimeAsFileTime@4 100201c0     kernel32:KERNEL32.dll
 0002:000001c4       __imp__QueryPerformanceCounter@4 100201c4     kernel32:KERNEL32.dll
 0002:000001c8       __imp__GetStartupInfoW@4   100201c8     kernel32:KERNEL32.dll
 0002:000001cc       __imp__IsDebuggerPresent@0 100201cc     kernel32:KERNEL32.dll
 0002:000001d0       __imp__IsProcessorFeaturePresent@4 100201d0     kernel32:KERNEL32.dll
 0002:000001d4       __imp__TerminateProcess@8  100201d4     kernel32:KERNEL32.dll
 0002:000001d8       __imp__GetCurrentProcess@0 100201d8     kernel32:KERNEL32.dll
 0002:000001dc       __imp__SetUnhandledExceptionFilter@4 100201dc     kernel32:KERNEL32.dll
 0002:000001e0       __imp__UnhandledExceptionFilter@4 100201e0     kernel32:KERNEL32.dll
 0002:000001e4       __imp__InitializeCriticalSectionAndSpinCount@8 100201e4     kernel32:KERNEL32.dll
 0002:000001e8       __imp__WaitForSingleObjectEx@12 100201e8     kernel32:KERNEL32.dll
 0002:000001ec       \177KERNEL32_NULL_THUNK_DATA 100201ec     kernel32:KERNEL32.dll
 0002:000001f0       __imp__OleCreatePropertyFrame@44 100201f0     oleaut32:OLEAUT32.dll
 0002:000001f4       __imp__UnRegisterTypeLib@20 100201f4     oleaut32:OLEAUT32.dll
 0002:000001f8       __imp__RegisterTypeLib@12  100201f8     oleaut32:OLEAUT32.dll
 0002:000001fc       __imp__LoadRegTypeLib@20   100201fc     oleaut32:OLEAUT32.dll
 0002:00000200       __imp__LoadTypeLib@8       10020200     oleaut32:OLEAUT32.dll
 0002:00000204       __imp__VarUI4FromStr@16    10020204     oleaut32:OLEAUT32.dll
 0002:00000208       __imp__VariantInit@4       10020208     oleaut32:OLEAUT32.dll
 0002:0000020c       __imp__SysAllocStringByteLen@8 1002020c     oleaut32:OLEAUT32.dll
 0002:00000210       __imp__SysStringByteLen@4  10020210     oleaut32:OLEAUT32.dll
 0002:00000214       __imp__VariantChangeType@16 10020214     oleaut32:OLEAUT32.dll
 0002:00000218       __imp__VariantClear@4      10020218     oleaut32:OLEAUT32.dll
 0002:0000021c       __imp__SysStringLen@4      1002021c     oleaut32:OLEAUT32.dll
 0002:00000220       __imp__SysFreeString@4     10020220     oleaut32:OLEAUT32.dll
 0002:00000224       __imp__SysAllocStringLen@8 10020224     oleaut32:OLEAUT32.dll
 0002:00000228       __imp__SysAllocString@4    10020228     oleaut32:OLEAUT32.dll
 0002:0000022c       \177OLEAUT32_NULL_THUNK_DATA 1002022c     oleaut32:OLEAUT32.dll
 0002:00000230       __imp__UnregisterClassW@8  10020230     user32:USER32.dll
 0002:00000234       __imp__PostMessageW@16     10020234     user32:USER32.dll
 0002:00000238       __imp__DefWindowProcW@16   10020238     user32:USER32.dll
 0002:0000023c       __imp__CallWindowProcW@20  1002023c     user32:USER32.dll
 0002:00000240       __imp__RegisterClassExW@4  10020240     user32:USER32.dll
 0002:00000244       __imp__GetClassInfoExW@12  10020244     user32:USER32.dll
 0002:00000248       __imp__CreateWindowExW@48  10020248     user32:USER32.dll
 0002:0000024c       __imp__IsWindow@4          1002024c     user32:USER32.dll
 0002:00000250       __imp__IsChild@8           10020250     user32:USER32.dll
 0002:00000254       __imp__DestroyWindow@4     10020254     user32:USER32.dll
 0002:00000258       __imp__ShowWindow@8        10020258     user32:USER32.dll
 0002:0000025c       __imp__SetWindowPos@28     1002025c     user32:USER32.dll
 0002:00000260       __imp__CharNextW@4         10020260     user32:USER32.dll
 0002:00000264       __imp__SetFocus@4          10020264     user32:USER32.dll
 0002:00000268       __imp__LoadBitmapW@8       10020268     user32:USER32.dll
 0002:0000026c       __imp__RegisterClassW@4    1002026c     user32:USER32.dll
 0002:00000270       __imp__PeekMessageW@20     10020270     user32:USER32.dll
 0002:00000274       __imp__LoadCursorW@8       10020274     user32:USER32.dll
 0002:00000278       __imp__GetParent@4         10020278     user32:USER32.dll
 0002:0000027c       __imp__SetWindowLongW@12   1002027c     user32:USER32.dll
 0002:00000280       __imp__GetWindowLongW@8    10020280     user32:USER32.dll
 0002:00000284       __imp__PtInRect@12         10020284     user32:USER32.dll
 0002:00000288       __imp__EqualRect@8         10020288     user32:USER32.dll
 0002:0000028c       __imp__OffsetRect@12       1002028c     user32:USER32.dll
 0002:00000290       __imp__UnionRect@12        10020290     user32:USER32.dll
 0002:00000294       __imp__IntersectRect@12    10020294     user32:USER32.dll
 0002:00000298       __imp__GetClientRect@8     10020298     user32:USER32.dll
 0002:0000029c       __imp__InvalidateRect@12   1002029c     user32:USER32.dll
 0002:000002a0       __imp__SetWindowRgn@12     100202a0     user32:USER32.dll
 0002:000002a4       __imp__EndPaint@8          100202a4     user32:USER32.dll
 0002:000002a8       __imp__BeginPaint@8        100202a8     user32:USER32.dll
 0002:000002ac       __imp__ReleaseDC@8         100202ac     user32:USER32.dll
 0002:000002b0       __imp__GetDC@4             100202b0     user32:USER32.dll
 0002:000002b4       __imp__GetKeyState@4       100202b4     user32:USER32.dll
 0002:000002b8       __imp__GetFocus@0          100202b8     user32:USER32.dll
 0002:000002bc       \177USER32_NULL_THUNK_DATA 100202bc     user32:USER32.dll
 0002:000002c0       __imp__StringFromGUID2@12  100202c0     ole32:ole32.dll
 0002:000002c4       __imp__CoTaskMemAlloc@4    100202c4     ole32:ole32.dll
 0002:000002c8       __imp__CoTaskMemRealloc@8  100202c8     ole32:ole32.dll
 0002:000002cc       __imp__CoTaskMemFree@4     100202cc     ole32:ole32.dll
 0002:000002d0       __imp__ReadClassStm@8      100202d0     ole32:ole32.dll
 0002:000002d4       __imp__WriteClassStm@8     100202d4     ole32:ole32.dll
 0002:000002d8       __imp__CreateDataAdviseHolder@4 100202d8     ole32:ole32.dll
 0002:000002dc       __imp__OleSaveToStream@8   100202dc     ole32:ole32.dll
 0002:000002e0       __imp__CreateOleAdviseHolder@4 100202e0     ole32:ole32.dll
 0002:000002e4       __imp__OleRegGetUserType@12 100202e4     ole32:ole32.dll
 0002:000002e8       __imp__OleRegGetMiscStatus@12 100202e8     ole32:ole32.dll
 0002:000002ec       __imp__OleRegEnumVerbs@8   100202ec     ole32:ole32.dll
 0002:000002f0       __imp__CLSIDFromProgID@8   100202f0     ole32:ole32.dll
 0002:000002f4       __imp__CoCreateInstance@20 100202f4     ole32:ole32.dll
 0002:000002f8       \177ole32_NULL_THUNK_DATA  100202f8     ole32:ole32.dll
 0002:000002fc       ___guard_check_icall_fptr  100202fc     LIBCMT:guard_support.obj
 0002:00000300       ___xc_a                    10020300     LIBCMT:initializers.obj
 0002:00000318       ___xc_z                    10020318     LIBCMT:initializers.obj
 0002:0000031c       ___xi_a                    1002031c     LIBCMT:initializers.obj
 0002:00000324       ___acrt_stdio_initializer  10020324     libucrt:stdio_initializer.obj
 0002:00000328       ___acrt_multibyte_initializer 10020328     libucrt:multibyte_initializer.obj
 0002:0000032c       ___acrt_tran_sse2_initializer 1002032c     libucrt:sse2_initializer.obj
 0002:00000330       ___xi_z                    10020330     LIBCMT:initializers.obj
 0002:00000334       ___xl_a                    10020334     LIBCMT:tlssup.obj
 0002:00000338       ___xl_z                    10020338     LIBCMT:tlssup.obj
 0002:0000033c       ___xp_a                    1002033c     LIBCMT:initializers.obj
 0002:00000340       ___acrt_locale_terminator  10020340     libucrt:locale_initializer.obj
 0002:00000344       ___dcrt_console_output_terminator 10020344     libucrt:console_output_initializer.obj
 0002:00000348       ___acrt_stdio_terminator   10020348     libucrt:stdio_initializer.obj
 0002:0000034c       ___xp_z                    1002034c     LIBCMT:initializers.obj
 0002:00000350       ___xt_a                    10020350     LIBCMT:initializers.obj
 0002:00000354       ___xt_z                    10020354     LIBCMT:initializers.obj
 0002:00000360       ??_C@_13HADIAKP@?$AAS@     10020360     OposVariant.obj
 0002:00000364       ??_C@_13LHMFKAAD@?$AAM@    10020364     OposVariant.obj
 0002:00000368       ??_C@_13MKMNOPIJ@?$AAD@    10020368     OposVariant.obj
 0002:0000036c       ??_C@_13OPKGLAFF@?$AAB@    1002036c     OposVariant.obj
 0002:00000370       ??_C@_17LLMMEOJD@?$AAV?$AAa?$AAl@ 10020370     OposVariant.obj
 0002:00000378       ??_C@_1BI@JFAIJMHL@?$AAF?$AAo?$AAr?$AAc?$AAe?$AAR?$AAe?$AAm?$AAo?$AAv?$AAe@ 10020378     OposVariant.obj
 0002:00000390       ??_C@_1BC@GCKHIPE@?$AAN?$AAo?$AAR?$AAe?$AAm?$AAo?$AAv?$AAe@ 10020390     OposVariant.obj
 0002:000003a4       ??_C@_1O@JDLOHAN@?$AAD?$AAe?$AAl?$AAe?$AAt?$AAe@ 100203a4     OposVariant.obj
 0002:000003b4       ??_C@_11LOCGONAA@@         100203b4     OposVariant.obj
 0002:000003b8       ??_7CComClassFactory@ATL@@6B@ 100203b8     ImageScanner.obj
 0002:000003d0       ?_entries@?1??_GetEntries@CComClassFactory@ATL@@SGPBU_ATL_INTMAP_ENTRY@3@XZ@4QBU43@B 100203d0     ImageScanner.obj
 0002:000003e8       __GUID_00000001_0000_0000_c000_000000000046 100203e8     ImageScanner.obj
 0002:000003f8       _IID_IOPOSImageScanner_1_11 100203f8     ImageScanner.obj
 0002:00000408       _IID_IOPOSImageScanner     10020408     ImageScanner.obj
 0002:00000418       _LIBID_OposImageScanner_CCO 10020418     ImageScanner.obj
 0002:00000428       _DIID__IOPOSImageScannerEvents 10020428     ImageScanner.obj
 0002:00000438       _CLSID_OPOSImageScanner    10020438     ImageScanner.obj
 0002:00000448       __GUID_00000114_0000_0000_c000_000000000046 10020448     ImageScanner.obj
 0002:00000458       ??_C@_1BK@BIGILECK@?$AAA?$AAd?$AAv?$AAa?$AAp?$AAi?$AA3?$AA2?$AA?4?$AAd?$AAl?$AAl@ 10020458     ImageScanner.obj
 0002:00000474       ??_C@_0BI@MNCFCPFK@RegCreateKeyTransactedW@ 10020474     ImageScanner.obj
 0002:0000048c       __GUID_b196b287_bab4_101a_b69c_00aa00341d07 1002048c     ImageScanner.obj
 0002:0000049c       __GUID_b196b285_bab4_101a_b69c_00aa00341d07 1002049c     ImageScanner.obj
 0002:000004ac       __GUID_a6bc3ac0_dbaa_11ce_9de3_00aa004bb851 100204ac     ImageScanner.obj
 0002:000004bc       __GUID_0000010c_0000_0000_c000_000000000046 100204bc     ImageScanner.obj
 0002:000004cc       __GUID_00000146_0000_0000_c000_000000000046 100204cc     ImageScanner.obj
 0002:000004e0       ?_entries@?1??_GetEntries@COPOSImageScanner@@SGPBU_ATL_INTMAP_ENTRY@ATL@@XZ@4QBU34@B 100204e0     ImageScanner.obj
 0002:00000600       __GUID_cf51ed10_62fe_11cf_bf86_00a0c9034836 10020600     ImageScanner.obj
 0002:00000610       __GUID_0000010a_0000_0000_c000_000000000046 10020610     ImageScanner.obj
 0002:00000620       __GUID_b196b283_bab4_101a_b69c_00aa00341d07 10020620     ImageScanner.obj
 0002:00000630       __GUID_cb5bdc81_93c1_11cf_8f20_00805f2cd064 10020630     ImageScanner.obj
 0002:00000640       ?pPropMap@?1??GetPropertyMap@COPOSImageScanner@@SAPBUATL_PROPMAP_ENTRY@ATL@@XZ@4QBU34@B 10020640     ImageScanner.obj
 0002:000006ac       ??_C@_17DGDADEHL@?$AA_?$AAc?$AAx@ 100206ac     ImageScanner.obj
 0002:000006b4       ??_C@_17IOIMFDBO@?$AA_?$AAc?$AAy@ 100206b4     ImageScanner.obj
 0002:000006bc       ??_7CComModule@ATL@@6B@    100206bc     ImageScanner.obj
 0002:000006e4       __GUID_922eada0_3424_11cf_b670_00aa004cd6d8 100206e4     ImageScanner.obj
 0002:000006f4       __GUID_9c2cad80_3424_11cf_b670_00aa004cd6d8 100206f4     ImageScanner.obj
 0002:00000704       __GUID_00000119_0000_0000_c000_000000000046 10020704     ImageScanner.obj
 0002:00000714       __GUID_b196b289_bab4_101a_b69c_00aa00341d07 10020714     ImageScanner.obj
 0002:00000724       ??_7?$CComObjectCached@VCComClassFactory@ATL@@@ATL@@6B@ 10020724     ImageScanner.obj
 0002:0000073c       __GUID_00000000_0000_0000_c000_000000000046 1002073c     ImageScanner.obj
 0002:0000074c       ??_C@_1CE@PGFMOFKI@?$AAS?$AAt?$AAa?$AAt?$AAu?$AAs?$AAU?$AAp?$AAd?$AAa?$AAt?$AAe?$AAE?$AAv?$AAe@ 1002074c     ImageScanner.obj
 0002:00000770       __GUID_00020400_0000_0000_c000_000000000046 10020770     ImageScanner.obj
 0002:00000780       ??_C@_1BG@LODEBHDD@?$AAE?$AAr?$AAr?$AAo?$AAr?$AAE?$AAv?$AAe?$AAn?$AAt@ 10020780     ImageScanner.obj
 0002:00000798       ??_C@_1BM@CBGEBBBJ@?$AAD?$AAi?$AAr?$AAe?$AAc?$AAt?$AAI?$AAO?$AAE?$AAv?$AAe?$AAn?$AAt@ 10020798     ImageScanner.obj
 0002:000007b4       ??_C@_1BE@IEBMACEM@?$AAD?$AAa?$AAt?$AAa?$AAE?$AAv?$AAe?$AAn?$AAt@ 100207b4     ImageScanner.obj
 0002:000007c8       __GUID_b196b286_bab4_101a_b69c_00aa00341d07 100207c8     ImageScanner.obj
 0002:000007d8       __GUID_00000117_0000_0000_c000_000000000046 100207d8     ImageScanner.obj
 0002:000007e8       ??_C@_1BC@ENICKDH@?$AAC?$AAo?$AAn?$AAt?$AAe?$AAn?$AAt?$AAs@ 100207e8     ImageScanner.obj
 0002:000007fc       ??_7?$CComObject@V?$CComEnum@UIEnumConnectionPoints@@$1?_GUID_b196b285_bab4_101a_b69c_00aa00341d07@@3U__s_GUID@@BPAUIConnectionPoint@@V?$_CopyInterface@UIConnectionPoint@@@ATL@@VCComSingleThreadModel@6@@ATL@@@ATL@@6B@ 100207fc     ImageScanner.obj
 0002:0000081c       ??_C@_1M@KANJNLFF@?$AAC?$AAL?$AAS?$AAI?$AAD@ 1002081c     ImageScanner.obj
 0002:00000828       ??_C@_1M@EJNEECMJ@?$AAA?$AAp?$AAp?$AAI?$AAD@ 10020828     ImageScanner.obj
 0002:00000834       __GUID_0000010e_0000_0000_c000_000000000046 10020834     ImageScanner.obj
 0002:00000844       __GUID_b196b288_bab4_101a_b69c_00aa00341d07 10020844     ImageScanner.obj
 0002:00000854       ?rgszNeverDelete@CRegParser@ATL@@1QBQB_WB 10020854     ImageScanner.obj
 0002:00000884       ??_7CRegObject@ATL@@6B@    10020884     ImageScanner.obj
 0002:0000089c       __GUID_00000113_0000_0000_c000_000000000046 1002089c     ImageScanner.obj
 0002:000008ac       __GUID_1c2056cc_5ef4_101b_8bc8_00aa003e3b29 100208ac     ImageScanner.obj
 0002:000008bc       ??_C@_1CK@OEKPKBNA@?$AAC?$AAo?$AAm?$AAp?$AAo?$AAn?$AAe?$AAn?$AAt?$AA?5?$AAC?$AAa?$AAt?$AAe?$AAg@ 100208bc     ImageScanner.obj
 0002:000008e8       ??_C@_1BC@NKMMNMGL@?$AAF?$AAi?$AAl?$AAe?$AAT?$AAy?$AAp?$AAe@ 100208e8     ImageScanner.obj
 0002:000008fc       ??_C@_1BE@EKPAFMCP@?$AAI?$AAn?$AAt?$AAe?$AAr?$AAf?$AAa?$AAc?$AAe@ 100208fc     ImageScanner.obj
 0002:00000910       ??_C@_1BC@MAICEHGI@?$AAH?$AAa?$AAr?$AAd?$AAw?$AAa?$AAr?$AAe@ 10020910     ImageScanner.obj
 0002:00000924       ??_C@_19HLLLM@?$AAM?$AAi?$AAm?$AAe@ 10020924     ImageScanner.obj
 0002:00000930       ??_C@_17OMAOINJK@?$AAS?$AAA?$AAM@ 10020930     ImageScanner.obj
 0002:00000938       ??_C@_1BC@IBECJAAI@?$AAS?$AAE?$AAC?$AAU?$AAR?$AAI?$AAT?$AAY@ 10020938     ImageScanner.obj
 0002:0000094c       ??_C@_1O@GBFINDKL@?$AAS?$AAY?$AAS?$AAT?$AAE?$AAM@ 1002094c     ImageScanner.obj
 0002:0000095c       ??_C@_1BC@EAHCMADO@?$AAS?$AAo?$AAf?$AAt?$AAw?$AAa?$AAr?$AAe@ 1002095c     ImageScanner.obj
 0002:00000970       ??_C@_1BA@JIHHIEDE@?$AAT?$AAy?$AAp?$AAe?$AAL?$AAi?$AAb@ 10020970     ImageScanner.obj
 0002:00000980       ?map@?1??HKeyFromString@CRegParser@ATL@@KAPAUHKEY__@@PA_W@Z@4QBUkeymap@?1??123@KAPAU4@0@Z@B 10020980     ImageScanner.obj
 0002:000009f0       ??_C@_19NCHLBIN@?$AAH?$AAK?$AAC?$AAR@ 100209f0     ImageScanner.obj
 0002:000009fc       ??_C@_19JAPAIJDE@?$AAH?$AAK?$AAC?$AAU@ 100209fc     ImageScanner.obj
 0002:00000a08       ??_C@_19PEALEEJB@?$AAH?$AAK?$AAL?$AAM@ 10020a08     ImageScanner.obj
 0002:00000a14       ??_C@_17PJOJPMPB@?$AAH?$AAK?$AAU@ 10020a14     ImageScanner.obj
 0002:00000a1c       ??_C@_19PNBHMJPL@?$AAH?$AAK?$AAP?$AAD@ 10020a1c     ImageScanner.obj
 0002:00000a28       ??_C@_19GFFAIJHG@?$AAH?$AAK?$AAD?$AAD@ 10020a28     ImageScanner.obj
 0002:00000a34       ??_C@_19OFICIBHH@?$AAH?$AAK?$AAC?$AAC@ 10020a34     ImageScanner.obj
 0002:00000a40       ??_C@_1CE@PACHPJFI@?$AAH?$AAK?$AAE?$AAY?$AA_?$AAC?$AAL?$AAA?$AAS?$AAS?$AAE?$AAS?$AA_?$AAR?$AAO@ 10020a40     ImageScanner.obj
 0002:00000a64       ??_C@_1CE@HLHNCBPM@?$AAH?$AAK?$AAE?$AAY?$AA_?$AAC?$AAU?$AAR?$AAR?$AAE?$AAN?$AAT?$AA_?$AAU?$AAS@ 10020a64     ImageScanner.obj
 0002:00000a88       ??_C@_1CG@GFBEANJL@?$AAH?$AAK?$AAE?$AAY?$AA_?$AAL?$AAO?$AAC?$AAA?$AAL?$AA_?$AAM?$AAA?$AAC?$AAH@ 10020a88     ImageScanner.obj
 0002:00000ab0       ??_C@_1BG@BGODANIO@?$AAH?$AAK?$AAE?$AAY?$AA_?$AAU?$AAS?$AAE?$AAR?$AAS@ 10020ab0     ImageScanner.obj
 0002:00000ac8       ??_C@_1CM@KHNNAOIC@?$AAH?$AAK?$AAE?$AAY?$AA_?$AAP?$AAE?$AAR?$AAF?$AAO?$AAR?$AAM?$AAA?$AAN?$AAC@ 10020ac8     ImageScanner.obj
 0002:00000af4       ??_C@_1BM@HAGMMHIA@?$AAH?$AAK?$AAE?$AAY?$AA_?$AAD?$AAY?$AAN?$AA_?$AAD?$AAA?$AAT?$AAA@ 10020af4     ImageScanner.obj
 0002:00000b10       ??_C@_1CI@BBJOACGG@?$AAH?$AAK?$AAE?$AAY?$AA_?$AAC?$AAU?$AAR?$AAR?$AAE?$AAN?$AAT?$AA_?$AAC?$AAO@ 10020b10     ImageScanner.obj
 0002:00000b38       __GUID_00000112_0000_0000_c000_000000000046 10020b38     ImageScanner.obj
 0002:00000b48       __GUID_00000109_0000_0000_c000_000000000046 10020b48     ImageScanner.obj
 0002:00000b58       __GUID_7fd52380_4e07_101b_ae2d_08002b2ec713 10020b58     ImageScanner.obj
 0002:00000b68       __GUID_3af24292_0c96_11ce_a0cf_00aa00600ab8 10020b68     ImageScanner.obj
 0002:00000b78       __GUID_00000127_0000_0000_c000_000000000046 10020b78     ImageScanner.obj
 0002:00000b88       __GUID_0000010d_0000_0000_c000_000000000046 10020b88     ImageScanner.obj
 0002:00000b98       ??_C@_1EA@NHKLICFA@?$AAH?$AAK?$AAC?$AAU?$AA?$AN?$AA?6?$AA?$HL?$AA?7?$AAS?$AAo?$AAf?$AAt?$AAw?$AAa?$AAr@ 10020b98     ImageScanner.obj
 0002:00000bd8       ??_C@_1BE@LJOLIMEM@?$AA?$AN?$AA?6?$AA?7?$AA?$HN?$AA?$AN?$AA?6?$AA?$HN?$AA?$AN?$AA?6@ 10020bd8     ImageScanner.obj
 0002:00000bec       ??_C@_1M@PPPPCDEP@?$AAA?$AAP?$AAP?$AAI?$AAD@ 10020bec     ImageScanner.obj
 0002:00000bf8       ??_C@_1O@MNLDABAF@?$AAM?$AAo?$AAd?$AAu?$AAl?$AAe@ 10020bf8     ImageScanner.obj
 0002:00000c08       ??_C@_1BG@JBACFMF@?$AAM?$AAo?$AAd?$AAu?$AAl?$AAe?$AA_?$AAR?$AAa?$AAw@ 10020c08     ImageScanner.obj
 0002:00000c20       ??_C@_1BC@KAILKFFG@?$AAR?$AAE?$AAG?$AAI?$AAS?$AAT?$AAR?$AAY@ 10020c20     ImageScanner.obj
 0002:00000c34       ??_7?$CComContainedObject@VCOPOSImageScanner@@@ATL@@6B?$IDispatchImpl@UIOPOSImageScanner@@$1?IID_IOPOSImageScanner@@3U_GUID@@B$1?LIBID_OposImageScanner_CCO@@3U3@B$00$0A@VCComTypeInfoHolder@ATL@@@1@@ 10020c34     ImageScanner.obj
 0002:00000d88       ??_7?$CComContainedObject@VCOPOSImageScanner@@@ATL@@6BCComControlBase@1@@ 10020d88     ImageScanner.obj
 0002:00000d9c       ??_7?$CComContainedObject@VCOPOSImageScanner@@@ATL@@6B?$CWindowImpl@VCOPOSImageScanner@@VCWindow@ATL@@V?$CWinTraits@$0FGAAAAAA@$0A@@3@@1@@ 10020d9c     ImageScanner.obj
 0002:00000dac       ??_7?$CComContainedObject@VCOPOSImageScanner@@@ATL@@6B?$IPersistStreamInitImpl@VCOPOSImageScanner@@@1@@ 10020dac     ImageScanner.obj
 0002:00000dd0       ??_7?$CComContainedObject@VCOPOSImageScanner@@@ATL@@6B?$IOleControlImpl@VCOPOSImageScanner@@@1@@ 10020dd0     ImageScanner.obj
 0002:00000dec       ??_7?$CComContainedObject@VCOPOSImageScanner@@@ATL@@6B?$IOleObjectImpl@VCOPOSImageScanner@@@1@@ 10020dec     ImageScanner.obj
 0002:00000e4c       ??_7?$CComContainedObject@VCOPOSImageScanner@@@ATL@@6B?$IOleInPlaceActiveObjectImpl@VCOPOSImageScanner@@@1@@ 10020e4c     ImageScanner.obj
 0002:00000e74       ??_7?$CComContainedObject@VCOPOSImageScanner@@@ATL@@6B?$IViewObjectExImpl@VCOPOSImageScanner@@@1@@ 10020e74     ImageScanner.obj
 0002:00000eb0       ??_7?$CComContainedObject@VCOPOSImageScanner@@@ATL@@6B?$IOleInPlaceObjectWindowlessImpl@VCOPOSImageScanner@@@1@@ 10020eb0     ImageScanner.obj
 0002:00000edc       ??_7?$CComContainedObject@VCOPOSImageScanner@@@ATL@@6B?$IConnectionPointContainerImpl@VCOPOSImageScanner@@@1@@ 10020edc     ImageScanner.obj
 0002:00000ef0       ??_7?$CComContainedObject@VCOPOSImageScanner@@@ATL@@6B?$IPersistStorageImpl@VCOPOSImageScanner@@@1@@ 10020ef0     ImageScanner.obj
 0002:00000f18       ??_7?$CComContainedObject@VCOPOSImageScanner@@@ATL@@6B?$ISpecifyPropertyPagesImpl@VCOPOSImageScanner@@@1@@ 10020f18     ImageScanner.obj
 0002:00000f28       ??_7?$CComContainedObject@VCOPOSImageScanner@@@ATL@@6B?$IQuickActivateImpl@VCOPOSImageScanner@@@1@@ 10020f28     ImageScanner.obj
 0002:00000f40       ??_7?$CComContainedObject@VCOPOSImageScanner@@@ATL@@6B?$IDataObjectImpl@VCOPOSImageScanner@@@1@@ 10020f40     ImageScanner.obj
 0002:00000f70       ??_7?$CComContainedObject@VCOPOSImageScanner@@@ATL@@6B?$IProvideClassInfo2Impl@$1?CLSID_OPOSImageScanner@@3U_GUID@@B$1?DIID__IOPOSImageScannerEvents@@3U2@B$1?LIBID_OposImageScanner_CCO@@3U2@B$00$0A@VCComTypeInfoHolder@ATL@@@1@@ 10020f70     ImageScanner.obj
 0002:00000f84       ??_7?$CComContainedObject@VCOPOSImageScanner@@@ATL@@6B?$IObjectSafetyImpl@VCOPOSImageScanner@@$02@1@@ 10020f84     ImageScanner.obj
 0002:00000f9c       ??_7?$CComContainedObject@VCOPOSImageScanner@@@ATL@@6B?$IPropertyNotifySinkCP@VCOPOSImageScanner@@VCComDynamicUnkArray@ATL@@@1@@ 10020f9c     ImageScanner.obj
 0002:00000fbc       ??_7?$CComContainedObject@VCOPOSImageScanner@@@ATL@@6B?$CProxy_IOPOSEvents@VCOPOSImageScanner@@@@@ 10020fbc     ImageScanner.obj
 0002:00000fdc       ??_7?$CComAggObject@VCOPOSImageScanner@@@ATL@@6B@ 10020fdc     ImageScanner.obj
 0002:00000fec       ??_7?$CComObject@VCOPOSImageScanner@@@ATL@@6B?$IDispatchImpl@UIOPOSImageScanner@@$1?IID_IOPOSImageScanner@@3U_GUID@@B$1?LIBID_OposImageScanner_CCO@@3U3@B$00$0A@VCComTypeInfoHolder@ATL@@@1@@ 10020fec     ImageScanner.obj
 0002:00001140       ??_7?$CComObject@VCOPOSImageScanner@@@ATL@@6BCComControlBase@1@@ 10021140     ImageScanner.obj
 0002:00001154       ??_7?$CComObject@VCOPOSImageScanner@@@ATL@@6B?$CWindowImpl@VCOPOSImageScanner@@VCWindow@ATL@@V?$CWinTraits@$0FGAAAAAA@$0A@@3@@1@@ 10021154     ImageScanner.obj
 0002:00001164       ??_7?$CComObject@VCOPOSImageScanner@@@ATL@@6B?$IPersistStreamInitImpl@VCOPOSImageScanner@@@1@@ 10021164     ImageScanner.obj
 0002:00001188       ??_7?$CComObject@VCOPOSImageScanner@@@ATL@@6B?$IOleControlImpl@VCOPOSImageScanner@@@1@@ 10021188     ImageScanner.obj
 0002:000011a4       ??_7?$CComObject@VCOPOSImageScanner@@@ATL@@6B?$IOleObjectImpl@VCOPOSImageScanner@@@1@@ 100211a4     ImageScanner.obj
 0002:00001204       ??_7?$CComObject@VCOPOSImageScanner@@@ATL@@6B?$IOleInPlaceActiveObjectImpl@VCOPOSImageScanner@@@1@@ 10021204     ImageScanner.obj
 0002:0000122c       ??_7?$CComObject@VCOPOSImageScanner@@@ATL@@6B?$IViewObjectExImpl@VCOPOSImageScanner@@@1@@ 1002122c     ImageScanner.obj
 0002:00001268       ??_7?$CComObject@VCOPOSImageScanner@@@ATL@@6B?$IOleInPlaceObjectWindowlessImpl@VCOPOSImageScanner@@@1@@ 10021268     ImageScanner.obj
 0002:00001294       ??_7?$CComObject@VCOPOSImageScanner@@@ATL@@6B?$IConnectionPointContainerImpl@VCOPOSImageScanner@@@1@@ 10021294     ImageScanner.obj
 0002:000012a8       ??_7?$CComObject@VCOPOSImageScanner@@@ATL@@6B?$IPersistStorageImpl@VCOPOSImageScanner@@@1@@ 100212a8     ImageScanner.obj
 0002:000012d0       ??_7?$CComObject@VCOPOSImageScanner@@@ATL@@6B?$ISpecifyPropertyPagesImpl@VCOPOSImageScanner@@@1@@ 100212d0     ImageScanner.obj
 0002:000012e0       ??_7?$CComObject@VCOPOSImageScanner@@@ATL@@6B?$IQuickActivateImpl@VCOPOSImageScanner@@@1@@ 100212e0     ImageScanner.obj
 0002:000012f8       ??_7?$CComObject@VCOPOSImageScanner@@@ATL@@6B?$IDataObjectImpl@VCOPOSImageScanner@@@1@@ 100212f8     ImageScanner.obj
 0002:00001328       ??_7?$CComObject@VCOPOSImageScanner@@@ATL@@6B?$IProvideClassInfo2Impl@$1?CLSID_OPOSImageScanner@@3U_GUID@@B$1?DIID__IOPOSImageScannerEvents@@3U2@B$1?LIBID_OposImageScanner_CCO@@3U2@B$00$0A@VCComTypeInfoHolder@ATL@@@1@@ 10021328     ImageScanner.obj
 0002:0000133c       ??_7?$CComObject@VCOPOSImageScanner@@@ATL@@6B?$IObjectSafetyImpl@VCOPOSImageScanner@@$02@1@@ 1002133c     ImageScanner.obj
 0002:00001354       ??_7?$CComObject@VCOPOSImageScanner@@@ATL@@6B?$IPropertyNotifySinkCP@VCOPOSImageScanner@@VCComDynamicUnkArray@ATL@@@1@@ 10021354     ImageScanner.obj
 0002:00001374       ??_7?$CComObject@VCOPOSImageScanner@@@ATL@@6B?$CProxy_IOPOSEvents@VCOPOSImageScanner@@@@@ 10021374     ImageScanner.obj
 0002:00001394       ??_C@_1O@GBFKGNEO@?$AAA?$AAT?$AAL?$AA?3?$AA?$CF?$AAp@ 10021394     ImageScanner.obj
 0002:000013a4       ??_C@_1BA@PICGEGJB@?$AAD?$AAI?$AAS?$AAP?$AAL?$AAA?$AAY@ 100213a4     ImageScanner.obj
 0002:000013b4       __GUID_9bfbbc02_eff1_101a_84ed_00aa00341d07 100213b4     ImageScanner.obj
 0002:000013c4       __GUID_b196b284_bab4_101a_b69c_00aa00341d07 100213c4     ImageScanner.obj
 0002:000013d4       ?_entries@?1??_GetEntries@?$CComEnum@UIEnumConnectionPoints@@$1?_GUID_b196b285_bab4_101a_b69c_00aa00341d07@@3U__s_GUID@@BPAUIConnectionPoint@@V?$_CopyInterface@UIConnectionPoint@@@ATL@@VCComSingleThreadModel@6@@ATL@@SGPBU_ATL_INTMAP_ENTRY@3@XZ@4QBU43@B 100213d4     ImageScanner.obj
 0002:000013ec       __GUID_00020412_0000_0000_c000_000000000046 100213ec     ImageScanner.obj
 0002:000013fc       __GUID_00020401_0000_0000_c000_000000000046 100213fc     ImageScanner.obj
 0002:0000140c       ??_7?$CComObject@V?$CComEnum@UIEnumConnections@@$1?_GUID_b196b287_bab4_101a_b69c_00aa00341d07@@3U__s_GUID@@BUtagCONNECTDATA@@V?$_Copy@UtagCONNECTDATA@@@ATL@@VCComSingleThreadModel@6@@ATL@@@ATL@@6B@ 1002140c     ImageScanner.obj
 0002:0000142c       __GUID_55980ba0_35aa_11cf_b671_00aa004cd6d8 1002142c     ImageScanner.obj
 0002:0000143c       __GUID_b196b28b_bab4_101a_b69c_00aa00341d07 1002143c     ImageScanner.obj
 0002:0000144c       ?_entries@?1??_GetEntries@?$CComEnum@UIEnumConnections@@$1?_GUID_b196b287_bab4_101a_b69c_00aa00341d07@@3U__s_GUID@@BUtagCONNECTDATA@@V?$_Copy@UtagCONNECTDATA@@@ATL@@VCComSingleThreadModel@6@@ATL@@SGPBU_ATL_INTMAP_ENTRY@3@XZ@4QBU43@B 1002144c     ImageScanner.obj
 0002:00001464       ??_C@_0BG@EKFFMJIO@RegOpenKeyTransactedW@ 10021464     ImageScanner.obj
 0002:0000147c       ??_C@_0BI@HAKLOOGP@RegDeleteKeyTransactedW@ 1002147c     ImageScanner.obj
 0002:00001494       ??_C@_0BA@LILAPHGE@RegDeleteKeyExW@ 10021494     ImageScanner.obj
 0002:000014a4       ??_C@_19ILOCMLCJ@?$AA?4?$AAt?$AAl?$AAb@ 100214a4     ImageScanner.obj
 0002:000014b0       __GUID_0002e012_0000_0000_c000_000000000046 100214b0     ImageScanner.obj
 0002:000014c0       ??_C@_1O@FHBGLCIO@?$AAC?$AAL?$AAS?$AAI?$AAD?$AA?2@ 100214c0     ImageScanner.obj
 0002:000014d0       ??_C@_1CK@IFBKBFAA@?$AA?2?$AAR?$AAe?$AAq?$AAu?$AAi?$AAr?$AAe?$AAd?$AA?5?$AAC?$AAa?$AAt?$AAe?$AAg@ 100214d0     ImageScanner.obj
 0002:000014fc       ??_C@_1DA@BIHALFED@?$AA?2?$AAI?$AAm?$AAp?$AAl?$AAe?$AAm?$AAe?$AAn?$AAt?$AAe?$AAd?$AA?5?$AAC?$AAa@ 100214fc     ImageScanner.obj
 0002:0000152c       ??_C@_1BK@EDKOLFBJ@?$AAO?$AAL?$AAE?$AAA?$AAU?$AAT?$AA3?$AA2?$AA?4?$AAD?$AAL?$AAL@ 1002152c     ImageScanner.obj
 0002:00001548       ??_C@_0BJ@CNLFOMHB@UnRegisterTypeLibForUser@ 10021548     ImageScanner.obj
 0002:00001564       ??_C@_0BH@LBOMMKPJ@RegisterTypeLibForUser@ 10021564     ImageScanner.obj
 0002:0000157c       ??_C@_0P@MMNMMLGK@COFreezeEvents@ 1002157c     ImageScannerImpl.obj
 0002:0000158c       ??_C@_0BC@OGCGGIMP@GetPropertyNumber@ 1002158c     ImageScannerImpl.obj
 0002:000015a0       ??_C@_0BC@MDCNODNB@SetPropertyNumber@ 100215a0     ImageScannerImpl.obj
 0002:000015b4       ??_C@_0BC@CFCCMIMD@GetPropertyString@ 100215b4     ImageScannerImpl.obj
 0002:000015c8       ??_C@_0BC@CJEDNN@SetPropertyString@ 100215c8     ImageScannerImpl.obj
 0002:000015dc       ??_C@_0M@LNPKKKDA@OpenService@ 100215dc     ImageScannerImpl.obj
 0002:000015e8       ??_C@_0M@PCMCHHMH@CheckHealth@ 100215e8     ImageScannerImpl.obj
 0002:000015f4       ??_C@_0M@JGMIDNEK@ClaimDevice@ 100215f4     ImageScannerImpl.obj
 0002:00001600       ??_C@_0L@BNEIFEJC@ClearInput@ 10021600     ImageScannerImpl.obj
 0002:0000160c       ??_C@_0N@DDFIIBMP@CloseService@ 1002160c     ImageScannerImpl.obj
 0002:0000161c       ??_C@_08EEIHICPC@DirectIO@ 1002161c     ImageScannerImpl.obj
 0002:00001628       ??_C@_0O@BCPMENMJ@ReleaseDevice@ 10021628     ImageScannerImpl.obj
 0002:00001638       ??_C@_0BA@GFABKEEE@ResetStatistics@ 10021638     ImageScannerImpl.obj
 0002:00001648       ??_C@_0BD@DPALHJGC@RetrieveStatistics@ 10021648     ImageScannerImpl.obj
 0002:0000165c       ??_C@_0BB@KOHIKNFC@UpdateStatistics@ 1002165c     ImageScannerImpl.obj
 0002:00001670       ??_C@_0BH@PBKBNMGB@CompareFirmwareVersion@ 10021670     ImageScannerImpl.obj
 0002:00001688       ??_C@_0P@FBPDPIPA@UpdateFirmware@ 10021688     ImageScannerImpl.obj
 0002:00001698       ??_C@_0BF@CMAPCJGM@ClearInputProperties@ 10021698     ImageScannerImpl.obj
 0002:000016b0       ??_C@_0N@GCBGNGGH@StartSession@ 100216b0     ImageScannerImpl.obj
 0002:000016c0       ??_C@_0M@JOEDAMJP@StopSession@ 100216c0     ImageScannerImpl.obj
 0002:000016cc       ??_7?$CProxy_IOPOSEvents@VCOPOSImageScanner@@@@6B@ 100216cc     ImageScannerImpl.obj
 0002:000016ec       ??_C@_1BA@IFHENID@?$AA?$FL?$AAE?$AAr?$AAr?$AAo?$AAr?$AA?$FN@ 100216ec     ImageScannerImpl.obj
 0002:000016fc       ??_C@_0CP@HACMBLAI@SOFTWARE?2OLEforRetail?2ServiceOP@ 100216fc     ImageScannerImpl.obj
 0002:0000172c       ??_C@_1M@IAIJHCCH@?$AAC?$AAl?$AAo?$AAs?$AAe@ 1002172c     ImageScannerImpl.obj
 0002:00001738       ??_C@_1M@PCPKGJAH@?$AAC?$AAl?$AAa?$AAi?$AAm@ 10021738     ImageScannerImpl.obj
 0002:00001744       ??_C@_1BA@NDFKIOCP@?$AAR?$AAe?$AAl?$AAe?$AAa?$AAs?$AAe@ 10021744     ImageScannerImpl.obj
 0002:00001754       ??_C@_0N@MEEKPIMD@ImageScanner@ 10021754     ImageScannerImpl.obj
 0002:00001764       ??_C@_1BM@IJMNMBPK@?$AAG?$AAe?$AAt?$AAO?$AAp?$AAe?$AAn?$AAR?$AAe?$AAs?$AAu?$AAl?$AAt@ 10021764     ImageScannerImpl.obj
 0002:00001780       _IID_IPropertyNotifySink   10021780     uuid:ocidl_i.obj
 0002:00001790       _GUID_NULL                 10021790     uuid:cguid_i.obj
 0002:000017a0       _CLSID_StdGlobalInterfaceTable 100217a0     uuid:cguid_i.obj
 0002:000017b0       _IID_IDispatch             100217b0     uuid:oaidl_i.obj
 0002:000017c0       _CLSID_StdComponentCategoriesMgr 100217c0     uuid:ieguids.obj
 0002:000017d0       _IID_IUnknown              100217d0     uuid:unknwn_i.obj
 0002:000017e0       ??_C@_1EC@JIJBPKFM@?$AAa?$AAp?$AAi?$AA?9?$AAm?$AAs?$AA?9?$AAw?$AAi?$AAn?$AA?9?$AAc?$AAo?$AAr?$AAe@ 100217e0     LIBCMT:thread_safe_statics.obj
 0002:00001824       ??_C@_1BK@MGMFAEKH@?$AAk?$AAe?$AAr?$AAn?$AAe?$AAl?$AA3?$AA2?$AA?4?$AAd?$AAl?$AAl@ 10021824     LIBCMT:thread_safe_statics.obj
 0002:00001840       ??_C@_0BJ@JEBJOJFJ@SleepConditionVariableCS@ 10021840     LIBCMT:thread_safe_statics.obj
 0002:0000185c       ??_C@_0BJ@PGPPEPCC@WakeAllConditionVariable@ 1002185c     LIBCMT:thread_safe_statics.obj
 0002:00001875       ?nothrow@std@@3Unothrow_t@1@B 10021875     LIBCMT:std_nothrow.obj
 0002:00001880       __pDefaultRawDllMain       10021880     LIBCMT:dll_dllmain.obj
 0002:00001880       __pRawDllMain              10021880     LIBCMT:dll_dllmain.obj
 0002:00001888       ??_7exception@std@@6B@     10021888     LIBCMT:throw_bad_alloc.obj
 0002:00001890       ??_C@_0BC@EOODALEL@Unknown?5exception@ 10021890     LIBCMT:throw_bad_alloc.obj
 0002:000018a8       ??_7bad_alloc@std@@6B@     100218a8     LIBCMT:throw_bad_alloc.obj
 0002:000018b0       ??_C@_0P@GHFPNOJB@bad?5allocation@ 100218b0     LIBCMT:throw_bad_alloc.obj
 0002:000018c4       ??_7bad_array_new_length@std@@6B@ 100218c4     LIBCMT:throw_bad_alloc.obj
 0002:000018cc       ??_C@_0BF@KINCDENJ@bad?5array?5new?5length@ 100218cc     LIBCMT:throw_bad_alloc.obj
 0002:000018e8       ??_7type_info@@6B@         100218e8     LIBCMT:std_type_info_static.obj
 0002:000018ec       _GUID_ATLVer110            100218ec     atls:atlbase.obj
 0002:00001900       ??_C@_1IC@ONKHOIDK@?$AAE?$AAR?$AAR?$AAO?$AAR?$AA?5?$AA?3?$AA?5?$AAU?$AAn?$AAa?$AAb?$AAl?$AAe?$AA?5@ 10021900     atls:atlbase.obj
 0002:00001984       ??_C@_0N@FJEPLCIH@atlthunk?4dll@ 10021984     atls:atlthunk.obj
 0002:00001994       ??_C@_0BG@GAKFHCBM@AtlThunk_AllocateData@ 10021994     atls:atlthunk.obj
 0002:000019ac       ??_C@_0BC@JKONFIAH@AtlThunk_InitData@ 100219ac     atls:atlthunk.obj
 0002:000019c0       ??_C@_0BE@IAOEELAK@AtlThunk_DataToCode@ 100219c0     atls:atlthunk.obj
 0002:000019d4       ??_C@_0BC@GBGKAIPI@AtlThunk_FreeData@ 100219d4     atls:atlthunk.obj
 0002:000019e8       __pDestructExceptionObject 100219e8     libvcruntime:ehhelpers.obj
 0002:000019f0       ??_7bad_exception@std@@6B@ 100219f0     libvcruntime:frame.obj
 0002:000019f8       ??_C@_0O@DPKOEFFH@bad?5exception@ 100219f8     libvcruntime:frame.obj
 0002:00001d88       ??_C@_08EHJDFFNH@__based?$CI@ 10021d88     libvcruntime:undname.obj
 0002:00001d94       ??_C@_07KOLFKCDI@__cdecl@  10021d94     libvcruntime:undname.obj
 0002:00001d9c       ??_C@_08GHMPAG@__pascal@   10021d9c     libvcruntime:undname.obj
 0002:00001da8       ??_C@_09IFJBGAPI@__stdcall@ 10021da8     libvcruntime:undname.obj
 0002:00001db4       ??_C@_0L@NPHFGOKO@__thiscall@ 10021db4     libvcruntime:undname.obj
 0002:00001dc0       ??_C@_0L@JMKHOMEK@__fastcall@ 10021dc0     libvcruntime:undname.obj
 0002:00001dcc       ??_C@_0N@BCKKPABJ@__vectorcall@ 10021dcc     libvcruntime:undname.obj
 0002:00001ddc       ??_C@_09HIJEGCPM@__clrcall@ 10021ddc     libvcruntime:undname.obj
 0002:00001de8       ??_C@_06GHPCKEAG@__eabi@   10021de8     libvcruntime:undname.obj
 0002:00001df0       ??_C@_09IOPIDJLG@__swift_1@ 10021df0     libvcruntime:undname.obj
 0002:00001dfc       ??_C@_09KFNFGKHF@__swift_2@ 10021dfc     libvcruntime:undname.obj
 0002:00001e08       ??_C@_07JOMMBBKO@__ptr64@  10021e08     libvcruntime:undname.obj
 0002:00001e10       ??_C@_0L@PILCLIHE@__restrict@ 10021e10     libvcruntime:undname.obj
 0002:00001e1c       ??_C@_0M@GFIIJFMG@__unaligned@ 10021e1c     libvcruntime:undname.obj
 0002:00001e28       ??_C@_09DHDLOLLB@restrict?$CI@ 10021e28     libvcruntime:undname.obj
 0002:00001e32       ??_C@_00CNPNBAHC@@         10021e32     libvcruntime:undname.obj
 0002:00001e34       ??_C@_04NIHEBCM@?5new@     10021e34     libvcruntime:undname.obj
 0002:00001e3c       ??_C@_07FPCDHGMM@?5delete@ 10021e3c     libvcruntime:undname.obj
 0002:00001e44       ??_C@_01NEMOKFLO@?$DN@     10021e44     libvcruntime:undname.obj
 0002:00001e48       ??_C@_02GPIOPFAK@?$DO?$DO@ 10021e48     libvcruntime:undname.obj
 0002:00001e4c       ??_C@_02FODMEDOG@?$DM?$DM@ 10021e4c     libvcruntime:undname.obj
 0002:00001e50       ??_C@_01DCLJPIOD@?$CB@     10021e50     libvcruntime:undname.obj
 0002:00001e54       ??_C@_02EGOFBIJA@?$DN?$DN@ 10021e54     libvcruntime:undname.obj
 0002:00001e58       ??_C@_02FDNJECIE@?$CB?$DN@ 10021e58     libvcruntime:undname.obj
 0002:00001e5c       ??_C@_02GPECMEKF@?$FL?$FN@ 10021e5c     libvcruntime:undname.obj
 0002:00001e60       ??_C@_08LHJFAFGD@operator@ 10021e60     libvcruntime:undname.obj
 0002:00001e6c       ??_C@_02HBOOOICD@?9?$DO@   10021e6c     libvcruntime:undname.obj
 0002:00001e70       ??_C@_01NBENCBCI@?$CK@     10021e70     libvcruntime:undname.obj
 0002:00001e74       ??_C@_02ECNGHCIF@?$CL?$CL@ 10021e74     libvcruntime:undname.obj
 0002:00001e78       ??_C@_02BAABKJLB@?9?9@     10021e78     libvcruntime:undname.obj
 0002:00001e7c       ??_C@_01JOAMLHOP@?9@       10021e7c     libvcruntime:undname.obj
 0002:00001e80       ??_C@_01MIFGBAGJ@?$CL@     10021e80     libvcruntime:undname.obj
 0002:00001e84       ??_C@_01HNPIGOCE@?$CG@     10021e84     libvcruntime:undname.obj
 0002:00001e88       ??_C@_03MNHNFDLC@?9?$DO?$CK@ 10021e88     libvcruntime:undname.obj
 0002:00001e8c       ??_C@_01KMDKNFGN@?1@       10021e8c     libvcruntime:undname.obj
 0002:00001e90       ??_C@_01FGNFDNOH@?$CF@     10021e90     libvcruntime:undname.obj
 0002:00001e94       ??_C@_01MNNFJEPP@?$DM@     10021e94     libvcruntime:undname.obj
 0002:00001e98       ??_C@_02EHCHHCKH@?$DM?$DN@ 10021e98     libvcruntime:undname.obj
 0002:00001e9c       ??_C@_01PPODPGHN@?$DO@     10021e9c     libvcruntime:undname.obj
 0002:00001ea0       ??_C@_02EEKDKGMJ@?$DO?$DN@ 10021ea0     libvcruntime:undname.obj
 0002:00001ea4       ??_C@_01IHBHIGKO@?0@       10021ea4     libvcruntime:undname.obj
 0002:00001ea8       ??_C@_02HCKGKOFO@?$CI?$CJ@ 10021ea8     libvcruntime:undname.obj
 0002:00001eac       ??_C@_01PJKLJHI@?$HO@      10021eac     libvcruntime:undname.obj
 0002:00001eb0       ??_C@_01JKBOJNNK@?$FO@     10021eb0     libvcruntime:undname.obj
 0002:00001eb4       ??_C@_01DNKMNLPK@?$HM@     10021eb4     libvcruntime:undname.obj
 0002:00001eb8       ??_C@_02PPKAJPJL@?$CG?$CG@ 10021eb8     libvcruntime:undname.obj
 0002:00001ebc       ??_C@_02NONPIBCD@?$HM?$HM@ 10021ebc     libvcruntime:undname.obj
 0002:00001ec0       ??_C@_02FPIMKNGF@?$CK?$DN@ 10021ec0     libvcruntime:undname.obj
 0002:00001ec4       ??_C@_02FOEOMHFC@?$CL?$DN@ 10021ec4     libvcruntime:undname.obj
 0002:00001ec8       ??_C@_02FKMDLLOA@?9?$DN@   10021ec8     libvcruntime:undname.obj
 0002:00001ecc       ??_C@_02FJEHGPIO@?1?$DN@   10021ecc     libvcruntime:undname.obj
 0002:00001ed0       ??_C@_02FENAOKFI@?$CF?$DN@ 10021ed0     libvcruntime:undname.obj
 0002:00001ed4       ??_C@_03IKFCCPFF@?$DO?$DO?$DN@ 10021ed4     libvcruntime:undname.obj
 0002:00001ed8       ??_C@_03CDNPDDLA@?$DM?$DM?$DN@ 10021ed8     libvcruntime:undname.obj
 0002:00001edc       ??_C@_02FGJGFEAB@?$CG?$DN@ 10021edc     libvcruntime:undname.obj
 0002:00001ee0       ??_C@_02DHLNPPGH@?$HM?$DN@ 10021ee0     libvcruntime:undname.obj
 0002:00001ee4       ??_C@_02MHEGNOJ@?$FO?$DN@  10021ee4     libvcruntime:undname.obj
 0002:00001ee8       ??_C@_09IFPLHPGF@?$GAvftable?8@ 10021ee8     libvcruntime:undname.obj
 0002:00001ef4       ??_C@_09BLBHBJP@?$GAvbtable?8@ 10021ef4     libvcruntime:undname.obj
 0002:00001f00       ??_C@_07FEEIOKP@?$GAvcall?8@ 10021f00     libvcruntime:undname.obj
 0002:00001f08       ??_C@_08LLFFHHDJ@?$GAtypeof?8@ 10021f08     libvcruntime:undname.obj
 0002:00001f14       ??_C@_0BF@KDPPACIK@?$GAlocal?5static?5guard?8@ 10021f14     libvcruntime:undname.obj
 0002:00001f2c       ??_C@_08OBABFOLI@?$GAstring?8@ 10021f2c     libvcruntime:undname.obj
 0002:00001f38       ??_C@_0BD@JDLKDPAB@?$GAvbase?5destructor?8@ 10021f38     libvcruntime:undname.obj
 0002:00001f4c       ??_C@_0BN@DEGPLNFK@?$GAvector?5deleting?5destructor?8@ 10021f4c     libvcruntime:undname.obj
 0002:00001f6c       ??_C@_0BO@OBMKPJIG@?$GAdefault?5constructor?5closure?8@ 10021f6c     libvcruntime:undname.obj
 0002:00001f8c       ??_C@_0BN@IMDCHIKM@?$GAscalar?5deleting?5destructor?8@ 10021f8c     libvcruntime:undname.obj
 0002:00001fac       ??_C@_0BO@PFGOCPJJ@?$GAvector?5constructor?5iterator?8@ 10021fac     libvcruntime:undname.obj
 0002:00001fcc       ??_C@_0BN@LFPFMEDL@?$GAvector?5destructor?5iterator?8@ 10021fcc     libvcruntime:undname.obj
 0002:00001fec       ??_C@_0CE@IKBNEHA@?$GAvector?5vbase?5constructor?5itera@ 10021fec     libvcruntime:undname.obj
 0002:00002010       ??_C@_0BL@NILFHHPC@?$GAvirtual?5displacement?5map?8@ 10022010     libvcruntime:undname.obj
 0002:0000202c       ??_C@_0CB@JONCMFFK@?$GAeh?5vector?5constructor?5iterator@ 1002202c     libvcruntime:undname.obj
 0002:00002050       ??_C@_0CA@GCEOPDGL@?$GAeh?5vector?5destructor?5iterator?8@ 10022050     libvcruntime:undname.obj
 0002:00002070       ??_C@_0CH@OOJPLCPH@?$GAeh?5vector?5vbase?5constructor?5it@ 10022070     libvcruntime:undname.obj
 0002:00002098       ??_C@_0BL@LLKPOHJI@?$GAcopy?5constructor?5closure?8@ 10022098     libvcruntime:undname.obj
 0002:000020b4       ??_C@_0BA@KBCDOMBN@?$GAudt?5returning?8@ 100220b4     libvcruntime:undname.obj
 0002:000020c4       ??_C@_03KLGMFNMG@?$GAEH@   100220c4     libvcruntime:undname.obj
 0002:000020c8       ??_C@_05KHLCHHI@?$GARTTI@  100220c8     libvcruntime:undname.obj
 0002:000020d0       ??_C@_0BA@KKLDJDLB@?$GAlocal?5vftable?8@ 100220d0     libvcruntime:undname.obj
 0002:000020e0       ??_C@_0CE@IIHCMGGL@?$GAlocal?5vftable?5constructor?5clos@ 100220e0     libvcruntime:undname.obj
 0002:00002104       ??_C@_06FHBGPFGH@?5new?$FL?$FN@ 10022104     libvcruntime:undname.obj
 0002:0000210c       ??_C@_09LBNFPBCA@?5delete?$FL?$FN@ 1002210c     libvcruntime:undname.obj
 0002:00002118       ??_C@_0P@HJKNJFNN@?$GAomni?5callsig?8@ 10022118     libvcruntime:undname.obj
 0002:00002128       ??_C@_0BL@CNOONJFP@?$GAplacement?5delete?5closure?8@ 10022128     libvcruntime:undname.obj
 0002:00002144       ??_C@_0BN@CKNJLHMB@?$GAplacement?5delete?$FL?$FN?5closure?8@ 10022144     libvcruntime:undname.obj
 0002:00002164       ??_C@_0CG@CFDHKGGD@?$GAmanaged?5vector?5constructor?5ite@ 10022164     libvcruntime:undname.obj
 0002:0000218c       ??_C@_0CF@IMGKMJNO@?$GAmanaged?5vector?5destructor?5iter@ 1002218c     libvcruntime:undname.obj
 0002:000021b4       ??_C@_0CG@HLDDJMAG@?$GAeh?5vector?5copy?5constructor?5ite@ 100221b4     libvcruntime:undname.obj
 0002:000021dc       ??_C@_0CM@FCBBDIGB@?$GAeh?5vector?5vbase?5copy?5construct@ 100221dc     libvcruntime:undname.obj
 0002:00002208       ??_C@_0BL@CLIPGLGB@?$GAdynamic?5initializer?5for?5?8@ 10022208     libvcruntime:undname.obj
 0002:00002224       ??_C@_0CB@PDBIFEP@?$GAdynamic?5atexit?5destructor?5for?5@ 10022224     libvcruntime:undname.obj
 0002:00002248       ??_C@_0CD@CGAJBKEJ@?$GAvector?5copy?5constructor?5iterat@ 10022248     libvcruntime:undname.obj
 0002:0000226c       ??_C@_0CJ@GJELGAMM@?$GAvector?5vbase?5copy?5constructor?5@ 1002226c     libvcruntime:undname.obj
 0002:00002298       ??_C@_0CL@FGIJHLCE@?$GAmanaged?5vector?5copy?5constructo@ 10022298     libvcruntime:undname.obj
 0002:000022c4       ??_C@_0BM@PMGGMLDN@?$GAlocal?5static?5thread?5guard?8@ 100222c4     libvcruntime:undname.obj
 0002:000022e0       ??_C@_0N@BDNMDMOL@operator?5?$CC?$CC?5@ 100222e0     libvcruntime:undname.obj
 0002:000022f0       ??_C@_0BC@GGEBGALA@operator?5co_await@ 100222f0     libvcruntime:undname.obj
 0002:00002304       ??_C@_0M@GAAIMMOH@operator?$DM?$DN?$DO@ 10022304     libvcruntime:undname.obj
 0002:00002310       ??_C@_0BC@DAFEJGAK@?5Type?5Descriptor?8@ 10022310     libvcruntime:undname.obj
 0002:00002324       ??_C@_0BM@LDKODKLH@?5Base?5Class?5Descriptor?5at?5?$CI@ 10022324     libvcruntime:undname.obj
 0002:00002340       ??_C@_0BD@LGICGFMM@?5Base?5Class?5Array?8@ 10022340     libvcruntime:undname.obj
 0002:00002354       ??_C@_0BN@MECKDCOJ@?5Class?5Hierarchy?5Descriptor?8@ 10022354     libvcruntime:undname.obj
 0002:00002374       ??_C@_0BK@CFCOFLF@?5Complete?5Object?5Locator?8@ 10022374     libvcruntime:undname.obj
 0002:00002390       ??_C@_0BG@JNJLAMPM@?$GAanonymous?5namespace?8@ 10022390     libvcruntime:undname.obj
 0002:000023b4       ??_C@_1DM@KHCHBNEB@?$AAa?$AAp?$AAi?$AA?9?$AAm?$AAs?$AA?9?$AAw?$AAi?$AAn?$AA?9?$AAc?$AAo?$AAr?$AAe@ 100223b4     libvcruntime:winapi_downlevel.obj
 0002:000023f0       ??_C@_1DK@LPPGFMPP@?$AAa?$AAp?$AAi?$AA?9?$AAm?$AAs?$AA?9?$AAw?$AAi?$AAn?$AA?9?$AAc?$AAo?$AAr?$AAe@ 100223f0     libvcruntime:winapi_downlevel.obj
 0002:0000242c       ??_C@_1BC@GDMECMAK@?$AAk?$AAe?$AAr?$AAn?$AAe?$AAl?$AA3?$AA2@ 1002242c     libvcruntime:winapi_downlevel.obj
 0002:00002440       ??_C@_1BA@PFFKHIOG@?$AAa?$AAp?$AAi?$AA?9?$AAm?$AAs?$AA?9@ 10022440     libvcruntime:winapi_downlevel.obj
 0002:00002458       ??_C@_08KNHFBNJ@FlsAlloc@  10022458     libvcruntime:winapi_downlevel.obj
 0002:0000246c       ??_C@_07PEJMOBNF@FlsFree@  1002246c     libvcruntime:winapi_downlevel.obj
 0002:0000247c       ??_C@_0M@GDNOONDI@FlsGetValue@ 1002247c     libvcruntime:winapi_downlevel.obj
 0002:00002490       ??_C@_0M@JCPCPOEF@FlsSetValue@ 10022490     libvcruntime:winapi_downlevel.obj
 0002:000024a4       ??_C@_0BM@HCFOFFN@InitializeCriticalSectionEx@ 100224a4     libvcruntime:winapi_downlevel.obj
 0002:00002628       ?format_validation_lookup_table_spectre@__crt_stdio_output@@3V?$spectre_mitigated_lookup_table@Ustate_transition_pair@__crt_stdio_output@@$0IA@@1@B 10022628     libucrt:output.obj
 0002:00002a28       ??_C@_1O@CEDCILHN@?$AA?$CI?$AAn?$AAu?$AAl?$AAl?$AA?$CJ@ 10022a28     libucrt:output.obj
 0002:00002a38       ??_C@_06OJHGLDPL@?$CInull?$CJ@ 10022a38     libucrt:output.obj
 0002:00002a40       ___acrt_exception_action_table 10022a40     libucrt:exception_filter.obj
 0002:00002ad0       ___acrt_signal_action_table_count 10022ad0     libucrt:exception_filter.obj
 0002:00002ad4       ___acrt_signal_action_first_fpe_index 10022ad4     libucrt:exception_filter.obj
 0002:00002ad8       ___acrt_signal_action_fpe_count 10022ad8     libucrt:exception_filter.obj
 0002:00002adc       ??_C@_1BI@BGOHAHKC@?$AAm?$AAs?$AAc?$AAo?$AAr?$AAe?$AAe?$AA?4?$AAd?$AAl?$AAl@ 10022adc     libucrt:exit.obj
 0002:00002af4       ??_C@_0P@MIGLKIOC@CorExitProcess@ 10022af4     libucrt:exit.obj
 0002:00002bd8       ??_C@_1EA@JGEFHKEI@?$AAa?$AAp?$AAi?$AA?9?$AAm?$AAs?$AA?9?$AAw?$AAi?$AAn?$AA?9?$AAc?$AAo?$AAr?$AAe@ 10022bd8     libucrt:winapi_thunks.obj
 0002:00002c18       ??_C@_1DI@IJCEHOCB@?$AAa?$AAp?$AAi?$AA?9?$AAm?$AAs?$AA?9?$AAw?$AAi?$AAn?$AA?9?$AAc?$AAo?$AAr?$AAe@ 10022c18     libucrt:winapi_thunks.obj
 0002:00002c50       ??_C@_1EI@MPIAOHOC@?$AAa?$AAp?$AAi?$AA?9?$AAm?$AAs?$AA?9?$AAw?$AAi?$AAn?$AA?9?$AAc?$AAo?$AAr?$AAe@ 10022c50     libucrt:winapi_thunks.obj
 0002:00002c98       ??_C@_1FK@FPHCKFIE@?$AAa?$AAp?$AAi?$AA?9?$AAm?$AAs?$AA?9?$AAw?$AAi?$AAn?$AA?9?$AAc?$AAo?$AAr?$AAe@ 10022c98     libucrt:winapi_thunks.obj
 0002:00002cf8       ??_C@_1EM@DILCGIIO@?$AAa?$AAp?$AAi?$AA?9?$AAm?$AAs?$AA?9?$AAw?$AAi?$AAn?$AA?9?$AAc?$AAo?$AAr?$AAe@ 10022cf8     libucrt:winapi_thunks.obj
 0002:00002d44       ??_C@_1DM@LNCGDDPN@?$AAa?$AAp?$AAi?$AA?9?$AAm?$AAs?$AA?9?$AAw?$AAi?$AAn?$AA?9?$AAc?$AAo?$AAr?$AAe@ 10022d44     libucrt:winapi_thunks.obj
 0002:00002d80       ??_C@_1DO@FPAPJEMD@?$AAa?$AAp?$AAi?$AA?9?$AAm?$AAs?$AA?9?$AAw?$AAi?$AAn?$AA?9?$AAc?$AAo?$AAr?$AAe@ 10022d80     libucrt:winapi_thunks.obj
 0002:00002dc0       ??_C@_1DK@NDHNAHIO@?$AAa?$AAp?$AAi?$AA?9?$AAm?$AAs?$AA?9?$AAw?$AAi?$AAn?$AA?9?$AAc?$AAo?$AAr?$AAe@ 10022dc0     libucrt:winapi_thunks.obj
 0002:00002dfc       ??_C@_1DM@KGHDGBCM@?$AAa?$AAp?$AAi?$AA?9?$AAm?$AAs?$AA?9?$AAw?$AAi?$AAn?$AA?9?$AAc?$AAo?$AAr?$AAe@ 10022dfc     libucrt:winapi_thunks.obj
 0002:00002e38       ??_C@_1EO@IJIOEFOH@?$AAa?$AAp?$AAi?$AA?9?$AAm?$AAs?$AA?9?$AAw?$AAi?$AAn?$AA?9?$AAr?$AAt?$AAc?$AAo@ 10022e38     libucrt:winapi_thunks.obj
 0002:00002e88       ??_C@_1FG@HHGEKANL@?$AAa?$AAp?$AAi?$AA?9?$AAm?$AAs?$AA?9?$AAw?$AAi?$AAn?$AA?9?$AAs?$AAe?$AAc?$AAu@ 10022e88     libucrt:winapi_thunks.obj
 0002:00002ee0       ??_C@_1EG@DBIOJECG@?$AAe?$AAx?$AAt?$AA?9?$AAm?$AAs?$AA?9?$AAw?$AAi?$AAn?$AA?9?$AAn?$AAt?$AAu?$AAs@ 10022ee0     libucrt:winapi_thunks.obj
 0002:00002f28       ??_C@_1EO@FIHMJCLF@?$AAe?$AAx?$AAt?$AA?9?$AAm?$AAs?$AA?9?$AAw?$AAi?$AAn?$AA?9?$AAn?$AAt?$AAu?$AAs@ 10022f28     libucrt:winapi_thunks.obj
 0002:00002f78       ??_C@_1BC@DNHGCMLG@?$AAa?$AAd?$AAv?$AAa?$AAp?$AAi?$AA3?$AA2@ 10022f78     libucrt:winapi_thunks.obj
 0002:00002f8c       ??_C@_1M@OAIMIKLP@?$AAn?$AAt?$AAd?$AAl?$AAl@ 10022f8c     libucrt:winapi_thunks.obj
 0002:00002f98       ??_C@_1EG@DPGNFKGC@?$AAa?$AAp?$AAi?$AA?9?$AAm?$AAs?$AA?9?$AAw?$AAi?$AAn?$AA?9?$AAa?$AAp?$AAp?$AAm@ 10022f98     libucrt:winapi_thunks.obj
 0002:00002fe0       ??_C@_1O@BCCLBEOE@?$AAu?$AAs?$AAe?$AAr?$AA3?$AA2@ 10022fe0     libucrt:winapi_thunks.obj
 0002:00002ff0       ??_C@_1BA@IAIFMGEF@?$AAe?$AAx?$AAt?$AA?9?$AAm?$AAs?$AA?9@ 10022ff0     libucrt:winapi_thunks.obj
 0002:00003004       ??_C@_0BA@FHFNEAED@AreFileApisANSI@ 10023004     libucrt:winapi_thunks.obj
 0002:00003044       ??_C@_0O@KKBNKAPF@LCMapStringEx@ 10023044     libucrt:winapi_thunks.obj
 0002:0000305c       ??_C@_0BB@HBDEELFH@LocaleNameToLCID@ 1002305c     libucrt:winapi_thunks.obj
 0002:00003074       ??_C@_0CF@OJOFEIGO@AppPolicyGetProcessTerminationM@ 10023074     libucrt:winapi_thunks.obj
 0002:000030a4       ??_C@_0BI@BKLFFAPO@SetThreadStackGuarantee@ 100230a4     libucrt:winapi_thunks.obj
 0002:00003100       ??_C@_03OEIAHPBN@INF@      10023100     libucrt:cvt.obj
 0002:00003104       ??_C@_03OJHLLCGB@inf@      10023104     libucrt:cvt.obj
 0002:00003108       ??_C@_03LKNCIKJB@NAN@      10023108     libucrt:cvt.obj
 0002:0000310c       ??_C@_03LHCJEHON@nan@      1002310c     libucrt:cvt.obj
 0002:00003110       ??_C@_09OFJJIMPC@NAN?$CISNAN?$CJ@ 10023110     libucrt:cvt.obj
 0002:0000311c       ??_C@_09IPFBKMDL@nan?$CIsnan?$CJ@ 1002311c     libucrt:cvt.obj
 0002:00003128       ??_C@_08IKHNHAJ@NAN?$CIIND?$CJ@ 10023128     libucrt:cvt.obj
 0002:00003134       ??_C@_08OFCDMILK@nan?$CIind?$CJ@ 10023134     libucrt:cvt.obj
 0002:00003140       ??_C@_05KLBDPFGC@e?$CL000@ 10023140     libucrt:cvt.obj
 0002:00003148       ___lc_time_c               10023148     libucrt:nlsdata.obj
 0002:000032ac       ??_C@_03KOEHGMDN@Sun@      100232ac     libucrt:nlsdata.obj
 0002:000032b0       ??_C@_03PDAGKDH@Mon@       100232b0     libucrt:nlsdata.obj
 0002:000032b4       ??_C@_03NAGEINEP@Tue@      100232b4     libucrt:nlsdata.obj
 0002:000032b8       ??_C@_03MHOMLAJA@Wed@      100232b8     libucrt:nlsdata.obj
 0002:000032bc       ??_C@_03IOFIKPDN@Thu@      100232bc     libucrt:nlsdata.obj
 0002:000032c0       ??_C@_03IDIOELNC@Fri@      100232c0     libucrt:nlsdata.obj
 0002:000032c4       ??_C@_03FEFJNEK@Sat@       100232c4     libucrt:nlsdata.obj
 0002:000032c8       ??_C@_06OOPIFAJ@Sunday@    100232c8     libucrt:nlsdata.obj
 0002:000032d0       ??_C@_06JLEDEDGH@Monday@   100232d0     libucrt:nlsdata.obj
 0002:000032d8       ??_C@_07BAAGCFCM@Tuesday@  100232d8     libucrt:nlsdata.obj
 0002:000032e0       ??_C@_09DLIGFAKA@Wednesday@ 100232e0     libucrt:nlsdata.obj
 0002:000032ec       ??_C@_08HACCIKIA@Thursday@ 100232ec     libucrt:nlsdata.obj
 0002:000032f8       ??_C@_06JECMNKMI@Friday@   100232f8     libucrt:nlsdata.obj
 0002:00003300       ??_C@_08INBOOONO@Saturday@ 10023300     libucrt:nlsdata.obj
 0002:0000330c       ??_C@_03JIHJHPIE@Jan@      1002330c     libucrt:nlsdata.obj
 0002:00003310       ??_C@_03HJBDCHOM@Feb@      10023310     libucrt:nlsdata.obj
 0002:00003314       ??_C@_03ODNJBKGA@Mar@      10023314     libucrt:nlsdata.obj
 0002:00003318       ??_C@_03LEOLGMJP@Apr@      10023318     libucrt:nlsdata.obj
 0002:0000331c       ??_C@_03CNMDKL@May@        1002331c     libucrt:nlsdata.obj
 0002:00003320       ??_C@_03IDFGHECI@Jun@      10023320     libucrt:nlsdata.obj
 0002:00003324       ??_C@_03LBGABGKK@Jul@      10023324     libucrt:nlsdata.obj
 0002:00003328       ??_C@_03IFJFEIGA@Aug@      10023328     libucrt:nlsdata.obj
 0002:0000332c       ??_C@_03GGCAPAJC@Sep@      1002332c     libucrt:nlsdata.obj
 0002:00003330       ??_C@_03BMAOKBAD@Oct@      10023330     libucrt:nlsdata.obj
 0002:00003334       ??_C@_03JPJOFNIA@Nov@      10023334     libucrt:nlsdata.obj
 0002:00003338       ??_C@_03MKABNOCG@Dec@      10023338     libucrt:nlsdata.obj
 0002:0000333c       ??_C@_07CGJPFGJA@January@  1002333c     libucrt:nlsdata.obj
 0002:00003344       ??_C@_08GNJGEPFN@February@ 10023344     libucrt:nlsdata.obj
 0002:00003350       ??_C@_05HPCKOFNC@March@    10023350     libucrt:nlsdata.obj
 0002:00003358       ??_C@_05DMJDNLEJ@April@    10023358     libucrt:nlsdata.obj
 0002:00003360       ??_C@_04CNLMGBGM@June@     10023360     libucrt:nlsdata.obj
 0002:00003368       ??_C@_04MIEPOIFP@July@     10023368     libucrt:nlsdata.obj
 0002:00003370       ??_C@_06LBBHFDDG@August@   10023370     libucrt:nlsdata.obj
 0002:00003378       ??_C@_09BHHEALKD@September@ 10023378     libucrt:nlsdata.obj
 0002:00003384       ??_C@_07JJNFCEND@October@  10023384     libucrt:nlsdata.obj
 0002:0000338c       ??_C@_08HCHEGEOA@November@ 1002338c     libucrt:nlsdata.obj
 0002:00003398       ??_C@_08EDHMEBNP@December@ 10023398     libucrt:nlsdata.obj
 0002:000033a4       ??_C@_02DEDBPAFC@AM@       100233a4     libucrt:nlsdata.obj
 0002:000033a8       ??_C@_02CJNFDJBF@PM@       100233a8     libucrt:nlsdata.obj
 0002:000033ac       ??_C@_08BPBNCDIB@MM?1dd?1yy@ 100233ac     libucrt:nlsdata.obj
 0002:000033b8       ??_C@_0BE@CKGJFCPC@dddd?0?5MMMM?5dd?0?5yyyy@ 100233b8     libucrt:nlsdata.obj
 0002:000033cc       ??_C@_08JCCMCCIL@HH?3mm?3ss@ 100233cc     libucrt:nlsdata.obj
 0002:000033d8       ??_C@_17MBGCMIPB@?$AAS?$AAu?$AAn@ 100233d8     libucrt:nlsdata.obj
 0002:000033e0       ??_C@_17KBOMKBF@?$AAM?$AAo?$AAn@ 100233e0     libucrt:nlsdata.obj
 0002:000033e8       ??_C@_17BMKGEGOJ@?$AAT?$AAu?$AAe@ 100233e8     libucrt:nlsdata.obj
 0002:000033f0       ??_C@_17CJEDCEPE@?$AAW?$AAe?$AAd@ 100233f0     libucrt:nlsdata.obj
 0002:000033f8       ??_C@_17PDPHAADD@?$AAT?$AAh?$AAu@ 100233f8     libucrt:nlsdata.obj
 0002:00003400       ??_C@_17HFOLPPLP@?$AAF?$AAr?$AAi@ 10023400     libucrt:nlsdata.obj
 0002:00003408       ??_C@_17GGIBDPIH@?$AAS?$AAa?$AAt@ 10023408     libucrt:nlsdata.obj
 0002:00003410       ??_C@_1O@IHNHDHPB@?$AAS?$AAu?$AAn?$AAd?$AAa?$AAy@ 10023410     libucrt:nlsdata.obj
 0002:00003420       ??_C@_1O@MMNBFLIA@?$AAM?$AAo?$AAn?$AAd?$AAa?$AAy@ 10023420     libucrt:nlsdata.obj
 0002:00003430       ??_C@_1BA@ENFBFFEK@?$AAT?$AAu?$AAe?$AAs?$AAd?$AAa?$AAy@ 10023430     libucrt:nlsdata.obj
 0002:00003440       ??_C@_1BE@EBOGMDOH@?$AAW?$AAe?$AAd?$AAn?$AAe?$AAs?$AAd?$AAa?$AAy@ 10023440     libucrt:nlsdata.obj
 0002:00003454       ??_C@_1BC@HHMNLIHE@?$AAT?$AAh?$AAu?$AAr?$AAs?$AAd?$AAa?$AAy@ 10023454     libucrt:nlsdata.obj
 0002:00003468       ??_C@_1O@PDICJHAG@?$AAF?$AAr?$AAi?$AAd?$AAa?$AAy@ 10023468     libucrt:nlsdata.obj
 0002:00003478       ??_C@_1BC@ENMNNPAJ@?$AAS?$AAa?$AAt?$AAu?$AAr?$AAd?$AAa?$AAy@ 10023478     libucrt:nlsdata.obj
 0002:0000348c       ??_C@_17DKNBKCHM@?$AAJ?$AAa?$AAn@ 1002348c     libucrt:nlsdata.obj
 0002:00003494       ??_C@_17LMDJEKJN@?$AAF?$AAe?$AAb@ 10023494     libucrt:nlsdata.obj
 0002:0000349c       ??_C@_17CKNLEDEC@?$AAM?$AAa?$AAr@ 1002349c     libucrt:nlsdata.obj
 0002:000034a4       ??_C@_17LFPOIHDD@?$AAA?$AAp?$AAr@ 100234a4     libucrt:nlsdata.obj
 0002:000034ac       ??_C@_17PNNKMEED@?$AAM?$AAa?$AAy@ 100234ac     libucrt:nlsdata.obj
 0002:000034b4       ??_C@_17KCJGOCPB@?$AAJ?$AAu?$AAn@ 100234b4     libucrt:nlsdata.obj
 0002:000034bc       ??_C@_17IJPCKHK@?$AAJ?$AAu?$AAl@ 100234bc     libucrt:nlsdata.obj
 0002:000034c4       ??_C@_17ICPELBCN@?$AAA?$AAu?$AAg@ 100234c4     libucrt:nlsdata.obj
 0002:000034cc       ??_C@_17HCHCOKMG@?$AAS?$AAe?$AAp@ 100234cc     libucrt:nlsdata.obj
 0002:000034d4       ??_C@_17FNLKOI@?$AAO?$AAc?$AAt@ 100234d4     libucrt:nlsdata.obj
 0002:000034dc       ??_C@_17BBDMLCIG@?$AAN?$AAo?$AAv@ 100234dc     libucrt:nlsdata.obj
 0002:000034e4       ??_C@_17EGKACKIF@?$AAD?$AAe?$AAc@ 100234e4     libucrt:nlsdata.obj
 0002:000034ec       ??_C@_1BA@EFMEIEBA@?$AAJ?$AAa?$AAn?$AAu?$AAa?$AAr?$AAy@ 100234ec     libucrt:nlsdata.obj
 0002:000034fc       ??_C@_1BC@JGDDFFAM@?$AAF?$AAe?$AAb?$AAr?$AAu?$AAa?$AAr?$AAy@ 100234fc     libucrt:nlsdata.obj
 0002:00003510       ??_C@_1M@IKEENEDF@?$AAM?$AAa?$AAr?$AAc?$AAh@ 10023510     libucrt:nlsdata.obj
 0002:0000351c       ??_C@_1M@GJNLMHFD@?$AAA?$AAp?$AAr?$AAi?$AAl@ 1002351c     libucrt:nlsdata.obj
 0002:00003528       ??_C@_19EPFLPGAP@?$AAJ?$AAu?$AAn?$AAe@ 10023528     libucrt:nlsdata.obj
 0002:00003534       ??_C@_19BIFMLPCD@?$AAJ?$AAu?$AAl?$AAy@ 10023534     libucrt:nlsdata.obj
 0002:00003540       ??_C@_1O@PAHLKOAC@?$AAA?$AAu?$AAg?$AAu?$AAs?$AAt@ 10023540     libucrt:nlsdata.obj
 0002:00003550       ??_C@_1BE@DKAAMBJL@?$AAS?$AAe?$AAp?$AAt?$AAe?$AAm?$AAb?$AAe?$AAr@ 10023550     libucrt:nlsdata.obj
 0002:00003564       ??_C@_1BA@EPANDLNG@?$AAO?$AAc?$AAt?$AAo?$AAb?$AAe?$AAr@ 10023564     libucrt:nlsdata.obj
 0002:00003574       ??_C@_1BC@BGLIFPF@?$AAN?$AAo?$AAv?$AAe?$AAm?$AAb?$AAe?$AAr@ 10023574     libucrt:nlsdata.obj
 0002:00003588       ??_C@_1BC@FEMKIFH@?$AAD?$AAe?$AAc?$AAe?$AAm?$AAb?$AAe?$AAr@ 10023588     libucrt:nlsdata.obj
 0002:0000359c       ??_C@_15ODEHAHHF@?$AAA?$AAM@ 1002359c     libucrt:nlsdata.obj
 0002:000035a4       ??_C@_15CLMNNGEL@?$AAP?$AAM@ 100235a4     libucrt:nlsdata.obj
 0002:000035ac       ??_C@_1BC@IEBCMHCM@?$AAM?$AAM?$AA?1?$AAd?$AAd?$AA?1?$AAy?$AAy@ 100235ac     libucrt:nlsdata.obj
 0002:000035c0       ??_C@_1CI@KNAKOEBC@?$AAd?$AAd?$AAd?$AAd?$AA?0?$AA?5?$AAM?$AAM?$AAM?$AAM?$AA?5?$AAd?$AAd?$AA?0?$AA?5@ 100235c0     libucrt:nlsdata.obj
 0002:000035e8       ??_C@_1BC@GDGBMEMK@?$AAH?$AAH?$AA?3?$AAm?$AAm?$AA?3?$AAs?$AAs@ 100235e8     libucrt:nlsdata.obj
 0002:000035fc       ??_C@_1M@BMHNFIME@?$AAe?$AAn?$AA?9?$AAU?$AAS@ 100235fc     libucrt:nlsdata.obj
 0002:00003618       ??_C@_1M@HPNHIDJI@?$AAj?$AAa?$AA?9?$AAJ?$AAP@ 10023618     libucrt:mbctype.obj
 0002:00003624       ??_C@_1M@BIBDDEMK@?$AAz?$AAh?$AA?9?$AAC?$AAN@ 10023624     libucrt:mbctype.obj
 0002:00003630       ??_C@_1M@JLOOOEGK@?$AAk?$AAo?$AA?9?$AAK?$AAR@ 10023630     libucrt:mbctype.obj
 0002:0000363c       ??_C@_1M@CLNBBOPM@?$AAz?$AAh?$AA?9?$AAT?$AAW@ 1002363c     libucrt:mbctype.obj
 0002:00003648       ___newctype                10023648     libucrt:ctype.obj
 0002:00003948       ___newclmap                10023948     libucrt:ctype.obj
 0002:00003ac8       ___newcumap                10023ac8     libucrt:ctype.obj
 0002:00003c48       __wctype                   10023c48     libucrt:ctype.obj
 0002:00004570       ??_C@_15EMKDOKLE@?$AAa?$AAr@ 10024570     libucrt:lcidtoname_downlevel.obj
 0002:00004578       ??_C@_15KNPADPLH@?$AAb?$AAg@ 10024578     libucrt:lcidtoname_downlevel.obj
 0002:00004580       ??_C@_15EDMHLDMO@?$AAc?$AAa@ 10024580     libucrt:lcidtoname_downlevel.obj
 0002:00004588       ??_C@_1O@BPEAJADD@?$AAz?$AAh?$AA?9?$AAC?$AAH?$AAS@ 10024588     libucrt:lcidtoname_downlevel.obj
 0002:00004598       ??_C@_15LJNHCMNK@?$AAc?$AAs@ 10024598     libucrt:lcidtoname_downlevel.obj
 0002:000045a0       ??_C@_15FOMCIDHG@?$AAd?$AAa@ 100245a0     libucrt:lcidtoname_downlevel.obj
 0002:000045a8       ??_C@_15NBKABECB@?$AAd?$AAe@ 100245a8     libucrt:lcidtoname_downlevel.obj
 0002:000045b0       ??_C@_15GHPEIIAO@?$AAe?$AAl@ 100245b0     libucrt:lcidtoname_downlevel.obj
 0002:000045b8       ??_C@_15MNPNEAIF@?$AAe?$AAn@ 100245b8     libucrt:lcidtoname_downlevel.obj
 0002:000045c0       ??_C@_15GPIOMPMH@?$AAe?$AAs@ 100245c0     libucrt:lcidtoname_downlevel.obj
 0002:000045c8       ??_C@_15NGLOAKJC@?$AAf?$AAi@ 100245c8     libucrt:lcidtoname_downlevel.obj
 0002:000045d0       ??_C@_15FBKGNKAM@?$AAf?$AAr@ 100245d0     libucrt:lcidtoname_downlevel.obj
 0002:000045d8       ??_C@_15KGGCNEFK@?$AAh?$AAe@ 100245d8     libucrt:lcidtoname_downlevel.obj
 0002:000045e0       ??_C@_15PGHLIDMF@?$AAh?$AAu@ 100245e0     libucrt:lcidtoname_downlevel.obj
 0002:000045e8       ??_C@_15BIEMAPLM@?$AAi?$AAs@ 100245e8     libucrt:lcidtoname_downlevel.obj
 0002:000045f0       ??_C@_15IFJLDHAF@?$AAi?$AAt@ 100245f0     libucrt:lcidtoname_downlevel.obj
 0002:000045f8       ??_C@_15GEMIOCAG@?$AAj?$AAa@ 100245f8     libucrt:lcidtoname_downlevel.obj
 0002:00004600       ??_C@_15EPELEGJA@?$AAk?$AAo@ 10024600     libucrt:lcidtoname_downlevel.obj
 0002:00004608       ??_C@_15NDDHIMN@?$AAn?$AAl@ 10024608     libucrt:lcidtoname_downlevel.obj
 0002:00004610       ??_C@_15BPIGNHCD@?$AAn?$AAo@ 10024610     libucrt:lcidtoname_downlevel.obj
 0002:00004618       ??_C@_15DEOPBLCG@?$AAp?$AAl@ 10024618     libucrt:lcidtoname_downlevel.obj
 0002:00004620       ??_C@_15KBECGEFG@?$AAp?$AAt@ 10024620     libucrt:lcidtoname_downlevel.obj
 0002:00004628       ??_C@_15GLJCBFMD@?$AAr?$AAo@ 10024628     libucrt:lcidtoname_downlevel.obj
 0002:00004630       ??_C@_15FEDGKCDI@?$AAr?$AAu@ 10024630     libucrt:lcidtoname_downlevel.obj
 0002:00004638       ??_C@_15GLKMLLHM@?$AAh?$AAr@ 10024638     libucrt:lcidtoname_downlevel.obj
 0002:00004640       ??_C@_15CPKMFBDB@?$AAs?$AAk@ 10024640     libucrt:lcidtoname_downlevel.obj
 0002:00004648       ??_C@_15BAAIOGMK@?$AAs?$AAq@ 10024648     libucrt:lcidtoname_downlevel.obj
 0002:00004650       ??_C@_15INNPNOHD@?$AAs?$AAv@ 10024650     libucrt:lcidtoname_downlevel.obj
 0002:00004658       ??_C@_15CABMMOGH@?$AAt?$AAh@ 10024658     libucrt:lcidtoname_downlevel.obj
 0002:00004660       ??_C@_15BPLIHJJM@?$AAt?$AAr@ 10024660     libucrt:lcidtoname_downlevel.obj
 0002:00004668       ??_C@_15NEOEKKDJ@?$AAu?$AAr@ 10024668     libucrt:lcidtoname_downlevel.obj
 0002:00004670       ??_C@_15NFICGAJK@?$AAi?$AAd@ 10024670     libucrt:lcidtoname_downlevel.obj
 0002:00004678       ??_C@_15PJPFLCCM@?$AAu?$AAk@ 10024678     libucrt:lcidtoname_downlevel.obj
 0002:00004680       ??_C@_15HPJPHDM@?$AAb?$AAe@ 10024680     libucrt:lcidtoname_downlevel.obj
 0002:00004688       ??_C@_15LCHLGJII@?$AAs?$AAl@ 10024688     libucrt:lcidtoname_downlevel.obj
 0002:00004690       ??_C@_15PCFJPHHO@?$AAe?$AAt@ 10024690     libucrt:lcidtoname_downlevel.obj
 0002:00004698       ??_C@_15HPFPGODN@?$AAl?$AAv@ 10024698     libucrt:lcidtoname_downlevel.obj
 0002:000046a0       ??_C@_15NFFGKGLG@?$AAl?$AAt@ 100246a0     libucrt:lcidtoname_downlevel.obj
 0002:000046a8       ??_C@_15BDAKCCHN@?$AAf?$AAa@ 100246a8     libucrt:lcidtoname_downlevel.obj
 0002:000046b0       ??_C@_15NFGIAIAJ@?$AAv?$AAi@ 100246b0     libucrt:lcidtoname_downlevel.obj
 0002:000046b8       ??_C@_15LMKNDMHN@?$AAh?$AAy@ 100246b8     libucrt:lcidtoname_downlevel.obj
 0002:000046c0       ??_C@_15IJBHMCFL@?$AAa?$AAz@ 100246c0     libucrt:lcidtoname_downlevel.obj
 0002:000046c8       ??_C@_15EKOFJABL@?$AAe?$AAu@ 100246c8     libucrt:lcidtoname_downlevel.obj
 0002:000046d0       ??_C@_15BGHADCNK@?$AAm?$AAk@ 100246d0     libucrt:lcidtoname_downlevel.obj
 0002:000046d8       ??_C@_15JDNICKHM@?$AAa?$AAf@ 100246d8     libucrt:lcidtoname_downlevel.obj
 0002:000046e0       ??_C@_15KPJEDBKD@?$AAk?$AAa@ 100246e0     libucrt:lcidtoname_downlevel.obj
 0002:000046e8       ??_C@_15PDNFFFEO@?$AAf?$AAo@ 100246e8     libucrt:lcidtoname_downlevel.obj
 0002:000046f0       ??_C@_15OMLEGLOC@?$AAh?$AAi@ 100246f0     libucrt:lcidtoname_downlevel.obj
 0002:000046f8       ??_C@_15IDNNENKK@?$AAm?$AAs@ 100246f8     libucrt:lcidtoname_downlevel.obj
 0002:00004700       ??_C@_15MACJNBMH@?$AAk?$AAk@ 10024700     libucrt:lcidtoname_downlevel.obj
 0002:00004708       ??_C@_15DKDJEOND@?$AAk?$AAy@ 10024708     libucrt:lcidtoname_downlevel.obj
 0002:00004710       ??_C@_15DFGDLJBG@?$AAs?$AAw@ 10024710     libucrt:lcidtoname_downlevel.obj
 0002:00004718       ??_C@_15BBFAICNG@?$AAu?$AAz@ 10024718     libucrt:lcidtoname_downlevel.obj
 0002:00004720       ??_C@_15DKNDCGEA@?$AAt?$AAt@ 10024720     libucrt:lcidtoname_downlevel.obj
 0002:00004728       ??_C@_15MGIFMDPL@?$AAp?$AAa@ 10024728     libucrt:lcidtoname_downlevel.obj
 0002:00004730       ??_C@_15HCNDBBA@?$AAg?$AAu@ 10024730     libucrt:lcidtoname_downlevel.obj
 0002:00004738       ??_C@_15FNBEIBON@?$AAt?$AAa@ 10024738     libucrt:lcidtoname_downlevel.obj
 0002:00004740       ??_C@_15NCHGBGLK@?$AAt?$AAe@ 10024740     libucrt:lcidtoname_downlevel.obj
 0002:00004748       ??_C@_15PHPHCBPF@?$AAk?$AAn@ 10024748     libucrt:lcidtoname_downlevel.obj
 0002:00004750       ??_C@_15DLGBCKMP@?$AAm?$AAr@ 10024750     libucrt:lcidtoname_downlevel.obj
 0002:00004758       ??_C@_15EABBLBFF@?$AAs?$AAa@ 10024758     libucrt:lcidtoname_downlevel.obj
 0002:00004760       ??_C@_15CBKOMCOI@?$AAm?$AAn@ 10024760     libucrt:lcidtoname_downlevel.obj
 0002:00004768       ??_C@_15CKDMCJAF@?$AAg?$AAl@ 10024768     libucrt:lcidtoname_downlevel.obj
 0002:00004770       ??_C@_17CNJFBPG@?$AAk?$AAo?$AAk@ 10024770     libucrt:lcidtoname_downlevel.obj
 0002:00004778       ??_C@_17FFBJICPL@?$AAs?$AAy?$AAr@ 10024778     libucrt:lcidtoname_downlevel.obj
 0002:00004780       ??_C@_17KPNDCPAF@?$AAd?$AAi?$AAv@ 10024780     libucrt:lcidtoname_downlevel.obj
 0002:00004788       ??_C@_1M@OKAHONE@?$AAa?$AAr?$AA?9?$AAS?$AAA@ 10024788     libucrt:lcidtoname_downlevel.obj
 0002:00004794       ??_C@_1M@FFFIGIGK@?$AAb?$AAg?$AA?9?$AAB?$AAG@ 10024794     libucrt:lcidtoname_downlevel.obj
 0002:000047a0       ??_C@_1M@BJNKEDC@?$AAc?$AAa?$AA?9?$AAE?$AAS@ 100247a0     libucrt:lcidtoname_downlevel.obj
 0002:000047ac       ??_C@_1M@IJJHFJHA@?$AAc?$AAs?$AA?9?$AAC?$AAZ@ 100247ac     libucrt:lcidtoname_downlevel.obj
 0002:000047b8       ??_C@_1M@CLPEOBGI@?$AAd?$AAa?$AA?9?$AAD?$AAK@ 100247b8     libucrt:lcidtoname_downlevel.obj
 0002:000047c4       ??_C@_1M@MCMADGCB@?$AAd?$AAe?$AA?9?$AAD?$AAE@ 100247c4     libucrt:lcidtoname_downlevel.obj
 0002:000047d0       ??_C@_1M@OOCKEMAM@?$AAe?$AAl?$AA?9?$AAG?$AAR@ 100247d0     libucrt:lcidtoname_downlevel.obj
 0002:000047dc       ??_C@_1M@DDNJFGID@?$AAf?$AAi?$AA?9?$AAF?$AAI@ 100247dc     libucrt:lcidtoname_downlevel.obj
 0002:000047e8       ??_C@_1M@GLIPPMAC@?$AAf?$AAr?$AA?9?$AAF?$AAR@ 100247e8     libucrt:lcidtoname_downlevel.obj
 0002:000047f4       ??_C@_1M@GFMCHPE@?$AAh?$AAe?$AA?9?$AAI?$AAL@ 100247f4     libucrt:lcidtoname_downlevel.obj
 0002:00004800       ??_C@_1M@MHLPGNKM@?$AAh?$AAu?$AA?9?$AAH?$AAU@ 10024800     libucrt:lcidtoname_downlevel.obj
 0002:0000480c       ??_C@_1M@LPDDNNPN@?$AAi?$AAs?$AA?9?$AAI?$AAS@ 1002480c     libucrt:lcidtoname_downlevel.obj
 0002:00004818       ??_C@_1M@MADIPODN@?$AAi?$AAt?$AA?9?$AAI?$AAT@ 10024818     libucrt:lcidtoname_downlevel.obj
 0002:00004824       ??_C@_1M@IHBJJGG@?$AAn?$AAl?$AA?9?$AAN?$AAL@ 10024824     libucrt:lcidtoname_downlevel.obj
 0002:00004830       ??_C@_1M@EANAGDL@?$AAn?$AAb?$AA?9?$AAN?$AAO@ 10024830     libucrt:lcidtoname_downlevel.obj
 0002:0000483c       ??_C@_1M@NEIEMEGP@?$AAp?$AAl?$AA?9?$AAP?$AAL@ 1002483c     libucrt:lcidtoname_downlevel.obj
 0002:00004848       ??_C@_1M@BOCFIGEP@?$AAp?$AAt?$AA?9?$AAB?$AAR@ 10024848     libucrt:lcidtoname_downlevel.obj
 0002:00004854       ??_C@_1M@IMPFOPBG@?$AAr?$AAo?$AA?9?$AAR?$AAO@ 10024854     libucrt:lcidtoname_downlevel.obj
 0002:00004860       ??_C@_1M@IDNNEJMM@?$AAr?$AAu?$AA?9?$AAR?$AAU@ 10024860     libucrt:lcidtoname_downlevel.obj
 0002:0000486c       ??_C@_1M@LILEEOGM@?$AAh?$AAr?$AA?9?$AAH?$AAR@ 1002486c     libucrt:lcidtoname_downlevel.obj
 0002:00004878       ??_C@_1M@FKIFEHPB@?$AAs?$AAk?$AA?9?$AAS?$AAK@ 10024878     libucrt:lcidtoname_downlevel.obj
 0002:00004884       ??_C@_1M@LJMAMNPJ@?$AAs?$AAq?$AA?9?$AAA?$AAL@ 10024884     libucrt:lcidtoname_downlevel.obj
 0002:00004890       ??_C@_1M@GIAKDKJK@?$AAs?$AAv?$AA?9?$AAS?$AAE@ 10024890     libucrt:lcidtoname_downlevel.obj
 0002:0000489c       ??_C@_1M@MKJKIKCL@?$AAt?$AAh?$AA?9?$AAT?$AAH@ 1002489c     libucrt:lcidtoname_downlevel.obj
 0002:000048a8       ??_C@_1M@MFLCCMPB@?$AAt?$AAr?$AA?9?$AAT?$AAR@ 100248a8     libucrt:lcidtoname_downlevel.obj
 0002:000048b4       ??_C@_1M@OIJHDKJN@?$AAu?$AAr?$AA?9?$AAP?$AAK@ 100248b4     libucrt:lcidtoname_downlevel.obj
 0002:000048c0       ??_C@_1M@LHIPCIEK@?$AAi?$AAd?$AA?9?$AAI?$AAD@ 100248c0     libucrt:lcidtoname_downlevel.obj
 0002:000048cc       ??_C@_1M@MFMOBGI@?$AAu?$AAk?$AA?9?$AAU?$AAA@ 100248cc     libucrt:lcidtoname_downlevel.obj
 0002:000048d8       ??_C@_1M@OBGLJIPL@?$AAb?$AAe?$AA?9?$AAB?$AAY@ 100248d8     libucrt:lcidtoname_downlevel.obj
 0002:000048e4       ??_C@_1M@BCFAJEAD@?$AAs?$AAl?$AA?9?$AAS?$AAI@ 100248e4     libucrt:lcidtoname_downlevel.obj
 0002:000048f0       ??_C@_1M@FKFFEDDN@?$AAe?$AAt?$AA?9?$AAE?$AAE@ 100248f0     libucrt:lcidtoname_downlevel.obj
 0002:000048fc       ??_C@_1M@KGKKAACI@?$AAl?$AAv?$AA?9?$AAL?$AAV@ 100248fc     libucrt:lcidtoname_downlevel.obj
 0002:00004908       ??_C@_1M@IFGBIJO@?$AAl?$AAt?$AA?9?$AAL?$AAT@ 10024908     libucrt:lcidtoname_downlevel.obj
 0002:00004914       ??_C@_1M@FGEAHEDM@?$AAf?$AAa?$AA?9?$AAI?$AAR@ 10024914     libucrt:lcidtoname_downlevel.obj
 0002:00004920       ??_C@_1M@KBMAIBFN@?$AAv?$AAi?$AA?9?$AAV?$AAN@ 10024920     libucrt:lcidtoname_downlevel.obj
 0002:0000492c       ??_C@_1M@GPCBKDJK@?$AAh?$AAy?$AA?9?$AAA?$AAM@ 1002492c     libucrt:lcidtoname_downlevel.obj
 0002:00004938       ??_C@_1BG@BECMDDJB@?$AAa?$AAz?$AA?9?$AAA?$AAZ?$AA?9?$AAL?$AAa?$AAt?$AAn@ 10024938     libucrt:lcidtoname_downlevel.obj
 0002:00004950       ??_C@_1M@MAOFCAEA@?$AAe?$AAu?$AA?9?$AAE?$AAS@ 10024950     libucrt:lcidtoname_downlevel.obj
 0002:0000495c       ??_C@_1M@IGHABKPI@?$AAm?$AAk?$AA?9?$AAM?$AAK@ 1002495c     libucrt:lcidtoname_downlevel.obj
 0002:00004968       ??_C@_1M@IAIGNEJG@?$AAt?$AAn?$AA?9?$AAZ?$AAA@ 10024968     libucrt:lcidtoname_downlevel.obj
 0002:00004974       ??_C@_1M@IIJCOJFA@?$AAx?$AAh?$AA?9?$AAZ?$AAA@ 10024974     libucrt:lcidtoname_downlevel.obj
 0002:00004980       ??_C@_1M@LGPJHNJH@?$AAz?$AAu?$AA?9?$AAZ?$AAA@ 10024980     libucrt:lcidtoname_downlevel.obj
 0002:0000498c       ??_C@_1M@HOKAOIO@?$AAa?$AAf?$AA?9?$AAZ?$AAA@ 1002498c     libucrt:lcidtoname_downlevel.obj
 0002:00004998       ??_C@_1M@DPCLHLIE@?$AAk?$AAa?$AA?9?$AAG?$AAE@ 10024998     libucrt:lcidtoname_downlevel.obj
 0002:000049a4       ??_C@_1M@BLKMHJBI@?$AAf?$AAo?$AA?9?$AAF?$AAO@ 100249a4     libucrt:lcidtoname_downlevel.obj
 0002:000049b0       ??_C@_1M@LGGJAPPB@?$AAh?$AAi?$AA?9?$AAI?$AAN@ 100249b0     libucrt:lcidtoname_downlevel.obj
 0002:000049bc       ??_C@_1M@FIKPIHFE@?$AAm?$AAt?$AA?9?$AAM?$AAT@ 100249bc     libucrt:lcidtoname_downlevel.obj
 0002:000049c8       ??_C@_1M@HEGGPBFA@?$AAs?$AAe?$AA?9?$AAN?$AAO@ 100249c8     libucrt:lcidtoname_downlevel.obj
 0002:000049d4       ??_C@_1M@EIBJEEPA@?$AAm?$AAs?$AA?9?$AAM?$AAY@ 100249d4     libucrt:lcidtoname_downlevel.obj
 0002:000049e0       ??_C@_1M@FHLBGMPP@?$AAk?$AAk?$AA?9?$AAK?$AAZ@ 100249e0     libucrt:lcidtoname_downlevel.obj
 0002:000049ec       ??_C@_1M@NGJJLCGI@?$AAk?$AAy?$AA?9?$AAK?$AAG@ 100249ec     libucrt:lcidtoname_downlevel.obj
 0002:000049f8       ??_C@_1M@GIENNBFC@?$AAs?$AAw?$AA?9?$AAK?$AAE@ 100249f8     libucrt:lcidtoname_downlevel.obj
 0002:00004a04       ??_C@_1BG@NDGMJIMJ@?$AAu?$AAz?$AA?9?$AAU?$AAZ?$AA?9?$AAL?$AAa?$AAt?$AAn@ 10024a04     libucrt:lcidtoname_downlevel.obj
 0002:00004a1c       ??_C@_1M@IDCCIHBC@?$AAt?$AAt?$AA?9?$AAR?$AAU@ 10024a1c     libucrt:lcidtoname_downlevel.obj
 0002:00004a28       ??_C@_1M@LOICPMOJ@?$AAb?$AAn?$AA?9?$AAI?$AAN@ 10024a28     libucrt:lcidtoname_downlevel.obj
 0002:00004a34       ??_C@_1M@KPKKNEAH@?$AAp?$AAa?$AA?9?$AAI?$AAN@ 10024a34     libucrt:lcidtoname_downlevel.obj
 0002:00004a40       ??_C@_1M@PJGPPBOG@?$AAg?$AAu?$AA?9?$AAI?$AAN@ 10024a40     libucrt:lcidtoname_downlevel.obj
 0002:00004a4c       ??_C@_1M@KMKMOPHI@?$AAt?$AAa?$AA?9?$AAI?$AAN@ 10024a4c     libucrt:lcidtoname_downlevel.obj
 0002:00004a58       ??_C@_1M@KFEHEPAC@?$AAt?$AAe?$AA?9?$AAI?$AAN@ 10024a58     libucrt:lcidtoname_downlevel.obj
 0002:00004a64       ??_C@_1M@CDCLMGHI@?$AAk?$AAn?$AA?9?$AAI?$AAN@ 10024a64     libucrt:lcidtoname_downlevel.obj
 0002:00004a70       ??_C@_1M@MIODLDKF@?$AAm?$AAl?$AA?9?$AAI?$AAN@ 10024a70     libucrt:lcidtoname_downlevel.obj
 0002:00004a7c       ??_C@_1M@PBIEACPO@?$AAm?$AAr?$AA?9?$AAI?$AAN@ 10024a7c     libucrt:lcidtoname_downlevel.obj
 0002:00004a88       ??_C@_1M@NIDEAGPH@?$AAs?$AAa?$AA?9?$AAI?$AAN@ 10024a88     libucrt:lcidtoname_downlevel.obj
 0002:00004a94       ??_C@_1M@FHIHCBIO@?$AAm?$AAn?$AA?9?$AAM?$AAN@ 10024a94     libucrt:lcidtoname_downlevel.obj
 0002:00004aa0       ??_C@_1M@JAIJPENP@?$AAc?$AAy?$AA?9?$AAG?$AAB@ 10024aa0     libucrt:lcidtoname_downlevel.obj
 0002:00004aac       ??_C@_1M@PHGFBEPN@?$AAg?$AAl?$AA?9?$AAE?$AAS@ 10024aac     libucrt:lcidtoname_downlevel.obj
 0002:00004ab8       ??_C@_1O@KPIPDNCP@?$AAk?$AAo?$AAk?$AA?9?$AAI?$AAN@ 10024ab8     libucrt:lcidtoname_downlevel.obj
 0002:00004ac8       ??_C@_1O@KNHJLDJA@?$AAs?$AAy?$AAr?$AA?9?$AAS?$AAY@ 10024ac8     libucrt:lcidtoname_downlevel.obj
 0002:00004ad8       ??_C@_1O@MKEKBLAH@?$AAd?$AAi?$AAv?$AA?9?$AAM?$AAV@ 10024ad8     libucrt:lcidtoname_downlevel.obj
 0002:00004ae8       ??_C@_1O@OHDCKDDF@?$AAq?$AAu?$AAz?$AA?9?$AAB?$AAO@ 10024ae8     libucrt:lcidtoname_downlevel.obj
 0002:00004af8       ??_C@_1M@LEPJNLFD@?$AAn?$AAs?$AA?9?$AAZ?$AAA@ 10024af8     libucrt:lcidtoname_downlevel.obj
 0002:00004b04       ??_C@_1M@OMLEIIJB@?$AAm?$AAi?$AA?9?$AAN?$AAZ@ 10024b04     libucrt:lcidtoname_downlevel.obj
 0002:00004b10       ??_C@_1M@PMPEAILG@?$AAa?$AAr?$AA?9?$AAI?$AAQ@ 10024b10     libucrt:lcidtoname_downlevel.obj
 0002:00004b1c       ??_C@_1M@CNKPNOEE@?$AAd?$AAe?$AA?9?$AAC?$AAH@ 10024b1c     libucrt:lcidtoname_downlevel.obj
 0002:00004b28       ??_C@_1M@LKMGMLKO@?$AAe?$AAn?$AA?9?$AAG?$AAB@ 10024b28     libucrt:lcidtoname_downlevel.obj
 0002:00004b34       ??_C@_1M@PGKJFFGL@?$AAe?$AAs?$AA?9?$AAM?$AAX@ 10024b34     libucrt:lcidtoname_downlevel.obj
 0002:00004b40       ??_C@_1M@DNNANBDC@?$AAf?$AAr?$AA?9?$AAB?$AAE@ 10024b40     libucrt:lcidtoname_downlevel.obj
 0002:00004b4c       ??_C@_1M@HLGMDFHM@?$AAi?$AAt?$AA?9?$AAC?$AAH@ 10024b4c     libucrt:lcidtoname_downlevel.obj
 0002:00004b58       ??_C@_1M@CLLBGJH@?$AAn?$AAl?$AA?9?$AAB?$AAE@ 10024b58     libucrt:lcidtoname_downlevel.obj
 0002:00004b64       ??_C@_1M@BODBOGLF@?$AAn?$AAn?$AA?9?$AAN?$AAO@ 10024b64     libucrt:lcidtoname_downlevel.obj
 0002:00004b70       ??_C@_1M@HFFAHKAD@?$AAp?$AAt?$AA?9?$AAP?$AAT@ 10024b70     libucrt:lcidtoname_downlevel.obj
 0002:00004b7c       ??_C@_1BG@LNOAKHIE@?$AAs?$AAr?$AA?9?$AAS?$AAP?$AA?9?$AAL?$AAa?$AAt?$AAn@ 10024b7c     libucrt:lcidtoname_downlevel.obj
 0002:00004b94       ??_C@_1M@HBMHBGAK@?$AAs?$AAv?$AA?9?$AAF?$AAI@ 10024b94     libucrt:lcidtoname_downlevel.obj
 0002:00004ba0       ??_C@_1BG@DGCJGJBE@?$AAa?$AAz?$AA?9?$AAA?$AAZ?$AA?9?$AAC?$AAy?$AAr?$AAl@ 10024ba0     libucrt:lcidtoname_downlevel.obj
 0002:00004bb8       ??_C@_1M@KEJDAAHB@?$AAs?$AAe?$AA?9?$AAS?$AAE@ 10024bb8     libucrt:lcidtoname_downlevel.obj
 0002:00004bc4       ??_C@_1M@HEIBJJAD@?$AAm?$AAs?$AA?9?$AAB?$AAN@ 10024bc4     libucrt:lcidtoname_downlevel.obj
 0002:00004bd0       ??_C@_1BG@PBGJMCEM@?$AAu?$AAz?$AA?9?$AAU?$AAZ?$AA?9?$AAC?$AAy?$AAr?$AAl@ 10024bd0     libucrt:lcidtoname_downlevel.obj
 0002:00004be8       ??_C@_1O@LAOBCMDF@?$AAq?$AAu?$AAz?$AA?9?$AAE?$AAC@ 10024be8     libucrt:lcidtoname_downlevel.obj
 0002:00004bf8       ??_C@_1M@POEEMAIO@?$AAa?$AAr?$AA?9?$AAE?$AAG@ 10024bf8     libucrt:lcidtoname_downlevel.obj
 0002:00004c04       ??_C@_1M@EFAKDEDL@?$AAz?$AAh?$AA?9?$AAH?$AAK@ 10024c04     libucrt:lcidtoname_downlevel.obj
 0002:00004c10       ??_C@_1M@HKKIJHGI@?$AAd?$AAe?$AA?9?$AAA?$AAT@ 10024c10     libucrt:lcidtoname_downlevel.obj
 0002:00004c1c       ??_C@_1M@KBFBEHJF@?$AAe?$AAn?$AA?9?$AAA?$AAU@ 10024c1c     libucrt:lcidtoname_downlevel.obj
 0002:00004c28       ??_C@_1M@MNPLFAAH@?$AAe?$AAs?$AA?9?$AAE?$AAS@ 10024c28     libucrt:lcidtoname_downlevel.obj
 0002:00004c34       ??_C@_1M@HJOOJFMA@?$AAf?$AAr?$AA?9?$AAC?$AAA@ 10024c34     libucrt:lcidtoname_downlevel.obj
 0002:00004c40       ??_C@_1BG@JPOFPNAB@?$AAs?$AAr?$AA?9?$AAS?$AAP?$AA?9?$AAC?$AAy?$AAr?$AAl@ 10024c40     libucrt:lcidtoname_downlevel.obj
 0002:00004c58       ??_C@_1M@LNFOCMOB@?$AAs?$AAe?$AA?9?$AAF?$AAI@ 10024c58     libucrt:lcidtoname_downlevel.obj
 0002:00004c64       ??_C@_1O@MGJBOAMB@?$AAq?$AAu?$AAz?$AA?9?$AAP?$AAE@ 10024c64     libucrt:lcidtoname_downlevel.obj
 0002:00004c74       ??_C@_1M@GJINLBOK@?$AAa?$AAr?$AA?9?$AAL?$AAY@ 10024c74     libucrt:lcidtoname_downlevel.obj
 0002:00004c80       ??_C@_1M@GGMNHJNL@?$AAz?$AAh?$AA?9?$AAS?$AAG@ 10024c80     libucrt:lcidtoname_downlevel.obj
 0002:00004c8c       ??_C@_1M@HOIKODND@?$AAd?$AAe?$AA?9?$AAL?$AAU@ 10024c8c     libucrt:lcidtoname_downlevel.obj
 0002:00004c98       ??_C@_1M@DDOCCGFG@?$AAe?$AAn?$AA?9?$AAC?$AAA@ 10024c98     libucrt:lcidtoname_downlevel.obj
 0002:00004ca4       ??_C@_1M@BNOEMJLF@?$AAe?$AAs?$AA?9?$AAG?$AAT@ 10024ca4     libucrt:lcidtoname_downlevel.obj
 0002:00004cb0       ??_C@_1M@EOGNKEK@?$AAf?$AAr?$AA?9?$AAC?$AAH@ 10024cb0     libucrt:lcidtoname_downlevel.obj
 0002:00004cbc       ??_C@_1M@FLIDJFHL@?$AAh?$AAr?$AA?9?$AAB?$AAA@ 10024cbc     libucrt:lcidtoname_downlevel.obj
 0002:00004cc8       ??_C@_1O@FMCELNAJ@?$AAs?$AAm?$AAj?$AA?9?$AAN?$AAO@ 10024cc8     libucrt:lcidtoname_downlevel.obj
 0002:00004cd8       ??_C@_1M@JHGLJMGJ@?$AAa?$AAr?$AA?9?$AAD?$AAZ@ 10024cd8     libucrt:lcidtoname_downlevel.obj
 0002:00004ce4       ??_C@_1M@JKKFDCNP@?$AAz?$AAh?$AA?9?$AAM?$AAO@ 10024ce4     libucrt:lcidtoname_downlevel.obj
 0002:00004cf0       ??_C@_1M@GEEFALPE@?$AAd?$AAe?$AA?9?$AAL?$AAI@ 10024cf0     libucrt:lcidtoname_downlevel.obj
 0002:00004cfc       ??_C@_1M@IGEOFBG@?$AAe?$AAn?$AA?9?$AAN?$AAZ@ 10024cfc     libucrt:lcidtoname_downlevel.obj
 0002:00004d08       ??_C@_1M@KDBONEHP@?$AAe?$AAs?$AA?9?$AAC?$AAR@ 10024d08     libucrt:lcidtoname_downlevel.obj
 0002:00004d14       ??_C@_1M@FHMDOHNN@?$AAf?$AAr?$AA?9?$AAL?$AAU@ 10024d14     libucrt:lcidtoname_downlevel.obj
 0002:00004d20       ??_C@_1BG@NFKKMAFG@?$AAb?$AAs?$AA?9?$AAB?$AAA?$AA?9?$AAL?$AAa?$AAt?$AAn@ 10024d20     libucrt:lcidtoname_downlevel.obj
 0002:00004d38       ??_C@_1O@IMNBEMCI@?$AAs?$AAm?$AAj?$AA?9?$AAS?$AAE@ 10024d38     libucrt:lcidtoname_downlevel.obj
 0002:00004d48       ??_C@_1M@DHHMBNDP@?$AAa?$AAr?$AA?9?$AAM?$AAA@ 10024d48     libucrt:lcidtoname_downlevel.obj
 0002:00004d54       ??_C@_1M@BNBLJCGH@?$AAe?$AAn?$AA?9?$AAI?$AAE@ 10024d54     libucrt:lcidtoname_downlevel.obj
 0002:00004d60       ??_C@_1M@GEPAFMDL@?$AAe?$AAs?$AA?9?$AAP?$AAA@ 10024d60     libucrt:lcidtoname_downlevel.obj
 0002:00004d6c       ??_C@_1M@OJONDMDL@?$AAf?$AAr?$AA?9?$AAM?$AAC@ 10024d6c     libucrt:lcidtoname_downlevel.obj
 0002:00004d78       ??_C@_1BG@OBCNFJB@?$AAs?$AAr?$AA?9?$AAB?$AAA?$AA?9?$AAL?$AAa?$AAt?$AAn@ 10024d78     libucrt:lcidtoname_downlevel.obj
 0002:00004d90       ??_C@_1O@KEMEEGPO@?$AAs?$AAm?$AAa?$AA?9?$AAN?$AAO@ 10024d90     libucrt:lcidtoname_downlevel.obj
 0002:00004da0       ??_C@_1M@ELMGFODK@?$AAa?$AAr?$AA?9?$AAT?$AAN@ 10024da0     libucrt:lcidtoname_downlevel.obj
 0002:00004dac       ??_C@_1M@BHDLHFAF@?$AAe?$AAn?$AA?9?$AAZ?$AAA@ 10024dac     libucrt:lcidtoname_downlevel.obj
 0002:00004db8       ??_C@_1M@BMGIGLIF@?$AAe?$AAs?$AA?9?$AAD?$AAO@ 10024db8     libucrt:lcidtoname_downlevel.obj
 0002:00004dc4       ??_C@_1BG@CMBHIPBE@?$AAs?$AAr?$AA?9?$AAB?$AAA?$AA?9?$AAC?$AAy?$AAr?$AAl@ 10024dc4     libucrt:lcidtoname_downlevel.obj
 0002:00004ddc       ??_C@_1O@HEDBLHNP@?$AAs?$AAm?$AAa?$AA?9?$AAS?$AAE@ 10024ddc     libucrt:lcidtoname_downlevel.obj
 0002:00004dec       ??_C@_1M@DAGCADIM@?$AAa?$AAr?$AA?9?$AAO?$AAM@ 10024dec     libucrt:lcidtoname_downlevel.obj
 0002:00004df8       ??_C@_1M@FODLMICG@?$AAe?$AAn?$AA?9?$AAJ?$AAM@ 10024df8     libucrt:lcidtoname_downlevel.obj
 0002:00004e04       ??_C@_1M@DNMLCIHB@?$AAe?$AAs?$AA?9?$AAV?$AAE@ 10024e04     libucrt:lcidtoname_downlevel.obj
 0002:00004e10       ??_C@_1O@EOKHMKJK@?$AAs?$AAm?$AAs?$AA?9?$AAF?$AAI@ 10024e10     libucrt:lcidtoname_downlevel.obj
 0002:00004e20       ??_C@_1M@CAFJMKOF@?$AAa?$AAr?$AA?9?$AAY?$AAE@ 10024e20     libucrt:lcidtoname_downlevel.obj
 0002:00004e2c       ??_C@_1M@CBFHIJLI@?$AAe?$AAn?$AA?9?$AAC?$AAB@ 10024e2c     libucrt:lcidtoname_downlevel.obj
 0002:00004e38       ??_C@_1M@BGNFLDN@?$AAe?$AAs?$AA?9?$AAC?$AAO@ 10024e38     libucrt:lcidtoname_downlevel.obj
 0002:00004e44       ??_C@_1O@JMPHMAMC@?$AAs?$AAm?$AAn?$AA?9?$AAF?$AAI@ 10024e44     libucrt:lcidtoname_downlevel.obj
 0002:00004e54       ??_C@_1M@JLANABKE@?$AAa?$AAr?$AA?9?$AAS?$AAY@ 10024e54     libucrt:lcidtoname_downlevel.obj
 0002:00004e60       ??_C@_1M@HPKGCFGN@?$AAe?$AAn?$AA?9?$AAB?$AAZ@ 10024e60     libucrt:lcidtoname_downlevel.obj
 0002:00004e6c       ??_C@_1M@OLJCMLGM@?$AAe?$AAs?$AA?9?$AAP?$AAE@ 10024e6c     libucrt:lcidtoname_downlevel.obj
 0002:00004e78       ??_C@_1M@MKKGFKLE@?$AAa?$AAr?$AA?9?$AAJ?$AAO@ 10024e78     libucrt:lcidtoname_downlevel.obj
 0002:00004e84       ??_C@_1M@EKPGLDNI@?$AAe?$AAn?$AA?9?$AAT?$AAT@ 10024e84     libucrt:lcidtoname_downlevel.obj
 0002:00004e90       ??_C@_1M@OONGHFHE@?$AAe?$AAs?$AA?9?$AAA?$AAR@ 10024e90     libucrt:lcidtoname_downlevel.obj
 0002:00004e9c       ??_C@_1M@OOJFGBHE@?$AAa?$AAr?$AA?9?$AAL?$AAB@ 10024e9c     libucrt:lcidtoname_downlevel.obj
 0002:00004ea8       ??_C@_1M@GCEJHNEG@?$AAe?$AAn?$AA?9?$AAZ?$AAW@ 10024ea8     libucrt:lcidtoname_downlevel.obj
 0002:00004eb4       ??_C@_1M@JNOCAHJI@?$AAe?$AAs?$AA?9?$AAE?$AAC@ 10024eb4     libucrt:lcidtoname_downlevel.obj
 0002:00004ec0       ??_C@_1M@JEFHPGGB@?$AAa?$AAr?$AA?9?$AAK?$AAW@ 10024ec0     libucrt:lcidtoname_downlevel.obj
 0002:00004ecc       ??_C@_1M@MLKIBJOJ@?$AAe?$AAn?$AA?9?$AAP?$AAH@ 10024ecc     libucrt:lcidtoname_downlevel.obj
 0002:00004ed8       ??_C@_1M@BDNIPEND@?$AAe?$AAs?$AA?9?$AAC?$AAL@ 10024ed8     libucrt:lcidtoname_downlevel.obj
 0002:00004ee4       ??_C@_1M@MPNMEKBD@?$AAa?$AAr?$AA?9?$AAA?$AAE@ 10024ee4     libucrt:lcidtoname_downlevel.obj
 0002:00004ef0       ??_C@_1M@KBJALCPI@?$AAe?$AAs?$AA?9?$AAU?$AAY@ 10024ef0     libucrt:lcidtoname_downlevel.obj
 0002:00004efc       ??_C@_1M@LLCCOAGA@?$AAa?$AAr?$AA?9?$AAB?$AAH@ 10024efc     libucrt:lcidtoname_downlevel.obj
 0002:00004f08       ??_C@_1M@PBFNCDEL@?$AAe?$AAs?$AA?9?$AAP?$AAY@ 10024f08     libucrt:lcidtoname_downlevel.obj
 0002:00004f14       ??_C@_1M@EDGINPNP@?$AAa?$AAr?$AA?9?$AAQ?$AAA@ 10024f14     libucrt:lcidtoname_downlevel.obj
 0002:00004f20       ??_C@_1M@MKDBIIJI@?$AAe?$AAs?$AA?9?$AAB?$AAO@ 10024f20     libucrt:lcidtoname_downlevel.obj
 0002:00004f2c       ??_C@_1M@CPKKEBLD@?$AAe?$AAs?$AA?9?$AAS?$AAV@ 10024f2c     libucrt:lcidtoname_downlevel.obj
 0002:00004f38       ??_C@_1M@NDBGMMJL@?$AAe?$AAs?$AA?9?$AAH?$AAN@ 10024f38     libucrt:lcidtoname_downlevel.obj
 0002:00004f44       ??_C@_1M@JIJIBHDP@?$AAe?$AAs?$AA?9?$AAN?$AAI@ 10024f44     libucrt:lcidtoname_downlevel.obj
 0002:00004f50       ??_C@_1M@CGFMKEEK@?$AAe?$AAs?$AA?9?$AAP?$AAR@ 10024f50     libucrt:lcidtoname_downlevel.obj
 0002:00004f5c       ??_C@_1O@ICJHKIIK@?$AAz?$AAh?$AA?9?$AAC?$AAH?$AAT@ 10024f5c     libucrt:lcidtoname_downlevel.obj
 0002:00004f6c       ??_C@_15CLNEJCE@?$AAs?$AAr@ 10024f6c     libucrt:lcidtoname_downlevel.obj
 0002:00005698       ??_C@_1M@KAHEKEIG@?$AAa?$AAf?$AA?9?$AAz?$AAa@ 10025698     libucrt:lcidtoname_downlevel.obj
 0002:000056a4       ??_C@_1M@GIECOABL@?$AAa?$AAr?$AA?9?$AAa?$AAe@ 100256a4     libucrt:lcidtoname_downlevel.obj
 0002:000056b0       ??_C@_1M@BMLMEKGI@?$AAa?$AAr?$AA?9?$AAb?$AAh@ 100256b0     libucrt:lcidtoname_downlevel.obj
 0002:000056bc       ??_C@_1M@DAPFDGGB@?$AAa?$AAr?$AA?9?$AAd?$AAz@ 100256bc     libucrt:lcidtoname_downlevel.obj
 0002:000056c8       ??_C@_1M@FJNKGKIG@?$AAa?$AAr?$AA?9?$AAe?$AAg@ 100256c8     libucrt:lcidtoname_downlevel.obj
 0002:000056d4       ??_C@_1M@FLGKKCLO@?$AAa?$AAr?$AA?9?$AAi?$AAq@ 100256d4     libucrt:lcidtoname_downlevel.obj
 0002:000056e0       ??_C@_1M@GNDIPALM@?$AAa?$AAr?$AA?9?$AAj?$AAo@ 100256e0     libucrt:lcidtoname_downlevel.obj
 0002:000056ec       ??_C@_1M@DDMJFMGJ@?$AAa?$AAr?$AA?9?$AAk?$AAw@ 100256ec     libucrt:lcidtoname_downlevel.obj
 0002:000056f8       ??_C@_1M@EJALMLHM@?$AAa?$AAr?$AA?9?$AAl?$AAb@ 100256f8     libucrt:lcidtoname_downlevel.obj
 0002:00005704       ??_C@_1M@MOBDBLOC@?$AAa?$AAr?$AA?9?$AAl?$AAy@ 10025704     libucrt:lcidtoname_downlevel.obj
 0002:00005710       ??_C@_1M@JAOCLHDH@?$AAa?$AAr?$AA?9?$AAm?$AAa@ 10025710     libucrt:lcidtoname_downlevel.obj
 0002:0000571c       ??_C@_1M@JHPMKJIE@?$AAa?$AAr?$AA?9?$AAo?$AAm@ 1002571c     libucrt:lcidtoname_downlevel.obj
 0002:00005728       ??_C@_1M@OEPGHFNH@?$AAa?$AAr?$AA?9?$AAq?$AAa@ 10025728     libucrt:lcidtoname_downlevel.obj
 0002:00005734       ??_C@_1M@KJDONENM@?$AAa?$AAr?$AA?9?$AAs?$AAa@ 10025734     libucrt:lcidtoname_downlevel.obj
 0002:00005740       ??_C@_1M@DMJDKLKM@?$AAa?$AAr?$AA?9?$AAs?$AAy@ 10025740     libucrt:lcidtoname_downlevel.obj
 0002:0000574c       ??_C@_1M@OMFIPEDC@?$AAa?$AAr?$AA?9?$AAt?$AAn@ 1002574c     libucrt:lcidtoname_downlevel.obj
 0002:00005758       ??_C@_1M@IHMHGAON@?$AAa?$AAr?$AA?9?$AAy?$AAe@ 10025758     libucrt:lcidtoname_downlevel.obj
 0002:00005764       ??_C@_1BG@KDCPGJGB@?$AAa?$AAz?$AA?9?$AAa?$AAz?$AA?9?$AAc?$AAy?$AAr?$AAl@ 10025764     libucrt:lcidtoname_downlevel.obj
 0002:0000577c       ??_C@_1BG@IBCKDDOE@?$AAa?$AAz?$AA?9?$AAa?$AAz?$AA?9?$AAl?$AAa?$AAt?$AAn@ 1002577c     libucrt:lcidtoname_downlevel.obj
 0002:00005794       ??_C@_1M@EGPFDCPD@?$AAb?$AAe?$AA?9?$AAb?$AAy@ 10025794     libucrt:lcidtoname_downlevel.obj
 0002:000057a0       ??_C@_1M@PCMGMCGC@?$AAb?$AAg?$AA?9?$AAb?$AAg@ 100257a0     libucrt:lcidtoname_downlevel.obj
 0002:000057ac       ??_C@_1M@BJBMFGOB@?$AAb?$AAn?$AA?9?$AAi?$AAn@ 100257ac     libucrt:lcidtoname_downlevel.obj
 0002:000057b8       ??_C@_1BG@EAKMMACD@?$AAb?$AAs?$AA?9?$AAb?$AAa?$AA?9?$AAl?$AAa?$AAt?$AAn@ 100257b8     libucrt:lcidtoname_downlevel.obj
 0002:000057d0       ??_C@_1M@KGADAODK@?$AAc?$AAa?$AA?9?$AAe?$AAs@ 100257d0     libucrt:lcidtoname_downlevel.obj
 0002:000057dc       ??_C@_1M@COAJPDHI@?$AAc?$AAs?$AA?9?$AAc?$AAz@ 100257dc     libucrt:lcidtoname_downlevel.obj
 0002:000057e8       ??_C@_1M@DHBHFONH@?$AAc?$AAy?$AA?9?$AAg?$AAb@ 100257e8     libucrt:lcidtoname_downlevel.obj
 0002:000057f4       ??_C@_1M@IMGKELGA@?$AAd?$AAa?$AA?9?$AAd?$AAk@ 100257f4     libucrt:lcidtoname_downlevel.obj
 0002:00005800       ??_C@_1M@NNDGDNGA@?$AAd?$AAe?$AA?9?$AAa?$AAt@ 10025800     libucrt:lcidtoname_downlevel.obj
 0002:0000580c       ??_C@_1M@IKDBHEEM@?$AAd?$AAe?$AA?9?$AAc?$AAh@ 1002580c     libucrt:lcidtoname_downlevel.obj
 0002:00005818       ??_C@_1M@GFFOJMCJ@?$AAd?$AAe?$AA?9?$AAd?$AAe@ 10025818     libucrt:lcidtoname_downlevel.obj
 0002:00005824       ??_C@_1M@MDNLKBPM@?$AAd?$AAe?$AA?9?$AAl?$AAi@ 10025824     libucrt:lcidtoname_downlevel.obj
 0002:00005830       ??_C@_1M@NJBEEJNL@?$AAd?$AAe?$AA?9?$AAl?$AAu@ 10025830     libucrt:lcidtoname_downlevel.obj
 0002:0000583c       ??_C@_1O@GNNELBAP@?$AAd?$AAi?$AAv?$AA?9?$AAm?$AAv@ 1002583c     libucrt:lcidtoname_downlevel.obj
 0002:0000584c       ??_C@_1M@EJLEOGAE@?$AAe?$AAl?$AA?9?$AAg?$AAr@ 1002584c     libucrt:lcidtoname_downlevel.obj
 0002:00005858       ??_C@_1M@GMPONJN@?$AAe?$AAn?$AA?9?$AAa?$AAu@ 10025858     libucrt:lcidtoname_downlevel.obj
 0002:00005864       ??_C@_1M@NIDIIPGF@?$AAe?$AAn?$AA?9?$AAb?$AAz@ 10025864     libucrt:lcidtoname_downlevel.obj
 0002:00005870       ??_C@_1M@JEHMIMFO@?$AAe?$AAn?$AA?9?$AAc?$AAa@ 10025870     libucrt:lcidtoname_downlevel.obj
 0002:0000587c       ??_C@_1M@IGMJCDLA@?$AAe?$AAn?$AA?9?$AAc?$AAb@ 1002587c     libucrt:lcidtoname_downlevel.obj
 0002:00005888       ??_C@_1M@BNFIGBKG@?$AAe?$AAn?$AA?9?$AAg?$AAb@ 10025888     libucrt:lcidtoname_downlevel.obj
 0002:00005894       ??_C@_1M@LKIFDIGP@?$AAe?$AAn?$AA?9?$AAi?$AAe@ 10025894     libucrt:lcidtoname_downlevel.obj
 0002:000058a0       ??_C@_1M@PJKFGCCO@?$AAe?$AAn?$AA?9?$AAj?$AAm@ 100258a0     libucrt:lcidtoname_downlevel.obj
 0002:000058ac       ??_C@_1M@KPPKEPBO@?$AAe?$AAn?$AA?9?$AAn?$AAz@ 100258ac     libucrt:lcidtoname_downlevel.obj
 0002:000058b8       ??_C@_1M@GMDGLDOB@?$AAe?$AAn?$AA?9?$AAp?$AAh@ 100258b8     libucrt:lcidtoname_downlevel.obj
 0002:000058c4       ??_C@_1M@ONGIBJNA@?$AAe?$AAn?$AA?9?$AAt?$AAt@ 100258c4     libucrt:lcidtoname_downlevel.obj
 0002:000058d0       ??_C@_1M@LLODPCMM@?$AAe?$AAn?$AA?9?$AAu?$AAs@ 100258d0     libucrt:lcidtoname_downlevel.obj
 0002:000058dc       ??_C@_1M@LAKFNPAN@?$AAe?$AAn?$AA?9?$AAz?$AAa@ 100258dc     libucrt:lcidtoname_downlevel.obj
 0002:000058e8       ??_C@_1M@MFNHNHEO@?$AAe?$AAn?$AA?9?$AAz?$AAw@ 100258e8     libucrt:lcidtoname_downlevel.obj
 0002:000058f4       ??_C@_1M@EJEINPHM@?$AAe?$AAs?$AA?9?$AAa?$AAr@ 100258f4     libucrt:lcidtoname_downlevel.obj
 0002:00005900       ??_C@_1M@GNKPCCJA@?$AAe?$AAs?$AA?9?$AAb?$AAo@ 10025900     libucrt:lcidtoname_downlevel.obj
 0002:0000590c       ??_C@_1M@LEEGFONL@?$AAe?$AAs?$AA?9?$AAc?$AAl@ 1002590c     libucrt:lcidtoname_downlevel.obj
 0002:00005918       ??_C@_1M@KGPDPBDF@?$AAe?$AAs?$AA?9?$AAc?$AAo@ 10025918     libucrt:lcidtoname_downlevel.obj
 0002:00005924       ??_C@_1M@EIAHOHH@?$AAe?$AAs?$AA?9?$AAc?$AAr@ 10025924     libucrt:lcidtoname_downlevel.obj
 0002:00005930       ??_C@_1M@LLPGMBIN@?$AAe?$AAs?$AA?9?$AAd?$AAo@ 10025930     libucrt:lcidtoname_downlevel.obj
 0002:0000593c       ??_C@_1M@DKHMKNJA@?$AAe?$AAs?$AA?9?$AAe?$AAc@ 1002593c     libucrt:lcidtoname_downlevel.obj
 0002:00005948       ??_C@_1M@GKGFPKAP@?$AAe?$AAs?$AA?9?$AAe?$AAs@ 10025948     libucrt:lcidtoname_downlevel.obj
 0002:00005954       ??_C@_1M@LKHKGDLN@?$AAe?$AAs?$AA?9?$AAg?$AAt@ 10025954     libucrt:lcidtoname_downlevel.obj
 0002:00005960       ??_C@_1M@HEIIGGJD@?$AAe?$AAs?$AA?9?$AAh?$AAn@ 10025960     libucrt:lcidtoname_downlevel.obj
 0002:0000596c       ??_C@_1M@FBDHPPGD@?$AAe?$AAs?$AA?9?$AAm?$AAx@ 1002596c     libucrt:lcidtoname_downlevel.obj
 0002:00005978       ??_C@_1M@DPAGLNDH@?$AAe?$AAs?$AA?9?$AAn?$AAi@ 10025978     libucrt:lcidtoname_downlevel.obj
 0002:00005984       ??_C@_1M@MDGOPGDD@?$AAe?$AAs?$AA?9?$AAp?$AAa@ 10025984     libucrt:lcidtoname_downlevel.obj
 0002:00005990       ??_C@_1M@EMAMGBGE@?$AAe?$AAs?$AA?9?$AAp?$AAe@ 10025990     libucrt:lcidtoname_downlevel.obj
 0002:0000599c       ??_C@_1M@IBMCAOEC@?$AAe?$AAs?$AA?9?$AAp?$AAr@ 1002599c     libucrt:lcidtoname_downlevel.obj
 0002:000059a8       ??_C@_1M@FGMDIJED@?$AAe?$AAs?$AA?9?$AAp?$AAy@ 100259a8     libucrt:lcidtoname_downlevel.obj
 0002:000059b4       ??_C@_1M@IIDEOLLL@?$AAe?$AAs?$AA?9?$AAs?$AAv@ 100259b4     libucrt:lcidtoname_downlevel.obj
 0002:000059c0       ??_C@_1M@GAOBIPA@?$AAe?$AAs?$AA?9?$AAu?$AAy@ 100259c0     libucrt:lcidtoname_downlevel.obj
 0002:000059cc       ??_C@_1M@JKFFICHJ@?$AAe?$AAs?$AA?9?$AAv?$AAe@ 100259cc     libucrt:lcidtoname_downlevel.obj
 0002:000059d8       ??_C@_1M@PNMLOJDF@?$AAe?$AAt?$AA?9?$AAe?$AAe@ 100259d8     libucrt:lcidtoname_downlevel.obj
 0002:000059e4       ??_C@_1M@GHHLIKEI@?$AAe?$AAu?$AA?9?$AAe?$AAs@ 100259e4     libucrt:lcidtoname_downlevel.obj
 0002:000059f0       ??_C@_1M@PBNONODE@?$AAf?$AAa?$AA?9?$AAi?$AAr@ 100259f0     libucrt:lcidtoname_downlevel.obj
 0002:000059fc       ??_C@_1M@JEEHPMIL@?$AAf?$AAi?$AA?9?$AAf?$AAi@ 100259fc     libucrt:lcidtoname_downlevel.obj
 0002:00005a08       ??_C@_1M@LMDCNDBA@?$AAf?$AAo?$AA?9?$AAf?$AAo@ 10025a08     libucrt:lcidtoname_downlevel.obj
 0002:00005a14       ??_C@_1M@JKEOHLDK@?$AAf?$AAr?$AA?9?$AAb?$AAe@ 10025a14     libucrt:lcidtoname_downlevel.obj
 0002:00005a20       ??_C@_1M@NOHADPMI@?$AAf?$AAr?$AA?9?$AAc?$AAa@ 10025a20     libucrt:lcidtoname_downlevel.obj
 0002:00005a2c       ??_C@_1M@KDHIHAEC@?$AAf?$AAr?$AA?9?$AAc?$AAh@ 10025a2c     libucrt:lcidtoname_downlevel.obj
 0002:00005a38       ??_C@_1M@MMBBFGAK@?$AAf?$AAr?$AA?9?$AAf?$AAr@ 10025a38     libucrt:lcidtoname_downlevel.obj
 0002:00005a44       ??_C@_1M@PAFNENNF@?$AAf?$AAr?$AA?9?$AAl?$AAu@ 10025a44     libucrt:lcidtoname_downlevel.obj
 0002:00005a50       ??_C@_1M@EOHDJGDD@?$AAf?$AAr?$AA?9?$AAm?$AAc@ 10025a50     libucrt:lcidtoname_downlevel.obj
 0002:00005a5c       ??_C@_1M@FAPLLOPF@?$AAg?$AAl?$AA?9?$AAe?$AAs@ 10025a5c     libucrt:lcidtoname_downlevel.obj
 0002:00005a68       ??_C@_1M@FOPBFLOO@?$AAg?$AAu?$AA?9?$AAi?$AAn@ 10025a68     libucrt:lcidtoname_downlevel.obj
 0002:00005a74       ??_C@_1M@KBMCINPM@?$AAh?$AAe?$AA?9?$AAi?$AAl@ 10025a74     libucrt:lcidtoname_downlevel.obj
 0002:00005a80       ??_C@_1M@BBPHKFPJ@?$AAh?$AAi?$AA?9?$AAi?$AAn@ 10025a80     libucrt:lcidtoname_downlevel.obj
 0002:00005a8c       ??_C@_1M@PMBNDPHD@?$AAh?$AAr?$AA?9?$AAb?$AAa@ 10025a8c     libucrt:lcidtoname_downlevel.obj
 0002:00005a98       ??_C@_1M@BPCKOEGE@?$AAh?$AAr?$AA?9?$AAh?$AAr@ 10025a98     libucrt:lcidtoname_downlevel.obj
 0002:00005aa4       ??_C@_1M@GACBMHKE@?$AAh?$AAu?$AA?9?$AAh?$AAu@ 10025aa4     libucrt:lcidtoname_downlevel.obj
 0002:00005ab0       ??_C@_1M@MILPAJJC@?$AAh?$AAy?$AA?9?$AAa?$AAm@ 10025ab0     libucrt:lcidtoname_downlevel.obj
 0002:00005abc       ??_C@_1M@BABBICEC@?$AAi?$AAd?$AA?9?$AAi?$AAd@ 10025abc     libucrt:lcidtoname_downlevel.obj
 0002:00005ac8       ??_C@_1M@BIKNHHPF@?$AAi?$AAs?$AA?9?$AAi?$AAs@ 10025ac8     libucrt:lcidtoname_downlevel.obj
 0002:00005ad4       ??_C@_1M@NMPCJPHE@?$AAi?$AAt?$AA?9?$AAc?$AAh@ 10025ad4     libucrt:lcidtoname_downlevel.obj
 0002:00005ae0       ??_C@_1M@GHKGFEDF@?$AAi?$AAt?$AA?9?$AAi?$AAt@ 10025ae0     libucrt:lcidtoname_downlevel.obj
 0002:00005aec       ??_C@_1M@NIEJCJJA@?$AAj?$AAa?$AA?9?$AAj?$AAp@ 10025aec     libucrt:lcidtoname_downlevel.obj
 0002:00005af8       ??_C@_1M@JILFNBIM@?$AAk?$AAa?$AA?9?$AAg?$AAe@ 10025af8     libucrt:lcidtoname_downlevel.obj
 0002:00005b04       ??_C@_1M@PACPMGPH@?$AAk?$AAk?$AA?9?$AAk?$AAz@ 10025b04     libucrt:lcidtoname_downlevel.obj
 0002:00005b10       ??_C@_1M@IELFGMHA@?$AAk?$AAn?$AA?9?$AAi?$AAn@ 10025b10     libucrt:lcidtoname_downlevel.obj
 0002:00005b1c       ??_C@_1O@IBBJHCH@?$AAk?$AAo?$AAk?$AA?9?$AAi?$AAn@ 10025b1c     libucrt:lcidtoname_downlevel.obj
 0002:00005b2c       ??_C@_1M@DMHAEOGC@?$AAk?$AAo?$AA?9?$AAk?$AAr@ 10025b2c     libucrt:lcidtoname_downlevel.obj
 0002:00005b38       ??_C@_1M@HBAHBIGA@?$AAk?$AAy?$AA?9?$AAk?$AAg@ 10025b38     libucrt:lcidtoname_downlevel.obj
 0002:00005b44       ??_C@_1M@KPMILCJG@?$AAl?$AAt?$AA?9?$AAl?$AAt@ 10025b44     libucrt:lcidtoname_downlevel.obj
 0002:00005b50       ??_C@_1M@BDEKKCA@?$AAl?$AAv?$AA?9?$AAl?$AAv@ 10025b50     libucrt:lcidtoname_downlevel.obj
 0002:00005b5c       ??_C@_1M@ELCKCCJJ@?$AAm?$AAi?$AA?9?$AAn?$AAz@ 10025b5c     libucrt:lcidtoname_downlevel.obj
 0002:00005b68       ??_C@_1M@CBOOLAPA@?$AAm?$AAk?$AA?9?$AAm?$AAk@ 10025b68     libucrt:lcidtoname_downlevel.obj
 0002:00005b74       ??_C@_1M@GPHNBJKN@?$AAm?$AAl?$AA?9?$AAi?$AAn@ 10025b74     libucrt:lcidtoname_downlevel.obj
 0002:00005b80       ??_C@_1M@PABJILIG@?$AAm?$AAn?$AA?9?$AAm?$AAn@ 10025b80     libucrt:lcidtoname_downlevel.obj
 0002:00005b8c       ??_C@_1M@FGBKKIPG@?$AAm?$AAr?$AA?9?$AAi?$AAn@ 10025b8c     libucrt:lcidtoname_downlevel.obj
 0002:00005b98       ??_C@_1M@NDBPDDAL@?$AAm?$AAs?$AA?9?$AAb?$AAn@ 10025b98     libucrt:lcidtoname_downlevel.obj
 0002:00005ba4       ??_C@_1M@OPIHOOPI@?$AAm?$AAs?$AA?9?$AAm?$AAy@ 10025ba4     libucrt:lcidtoname_downlevel.obj
 0002:00005bb0       ??_C@_1M@PPDBCNFM@?$AAm?$AAt?$AA?9?$AAm?$AAt@ 10025bb0     libucrt:lcidtoname_downlevel.obj
 0002:00005bbc       ??_C@_1M@KDJDKMDD@?$AAn?$AAb?$AA?9?$AAn?$AAo@ 10025bbc     libucrt:lcidtoname_downlevel.obj
 0002:00005bc8       ??_C@_1M@KFCFLMJP@?$AAn?$AAl?$AA?9?$AAb?$AAe@ 10025bc8     libucrt:lcidtoname_downlevel.obj
 0002:00005bd4       ??_C@_1M@KPOPDDGO@?$AAn?$AAl?$AA?9?$AAn?$AAl@ 10025bd4     libucrt:lcidtoname_downlevel.obj
 0002:00005be0       ??_C@_1M@LJKPEMLN@?$AAn?$AAn?$AA?9?$AAn?$AAo@ 10025be0     libucrt:lcidtoname_downlevel.obj
 0002:00005bec       ??_C@_1M@BDGHHBFL@?$AAn?$AAs?$AA?9?$AAz?$AAa@ 10025bec     libucrt:lcidtoname_downlevel.obj
 0002:00005bf8       ??_C@_1M@IDEHOAP@?$AAp?$AAa?$AA?9?$AAi?$AAn@ 10025bf8     libucrt:lcidtoname_downlevel.obj
 0002:00005c04       ??_C@_1M@HDBKGOGH@?$AAp?$AAl?$AA?9?$AAp?$AAl@ 10025c04     libucrt:lcidtoname_downlevel.obj
 0002:00005c10       ??_C@_1M@LJLLCMEH@?$AAp?$AAt?$AA?9?$AAb?$AAr@ 10025c10     libucrt:lcidtoname_downlevel.obj
 0002:00005c1c       ??_C@_1M@NCMONAAL@?$AAp?$AAt?$AA?9?$AAp?$AAt@ 10025c1c     libucrt:lcidtoname_downlevel.obj
 0002:00005c28       ??_C@_1O@EAKMAJDN@?$AAq?$AAu?$AAz?$AA?9?$AAb?$AAo@ 10025c28     libucrt:lcidtoname_downlevel.obj
 0002:00005c38       ??_C@_1O@BHHPIGDN@?$AAq?$AAu?$AAz?$AA?9?$AAe?$AAc@ 10025c38     libucrt:lcidtoname_downlevel.obj
 0002:00005c48       ??_C@_1O@GBAPEKMJ@?$AAq?$AAu?$AAz?$AA?9?$AAp?$AAe@ 10025c48     libucrt:lcidtoname_downlevel.obj
 0002:00005c58       ??_C@_1M@CLGLEFBO@?$AAr?$AAo?$AA?9?$AAr?$AAo@ 10025c58     libucrt:lcidtoname_downlevel.obj
 0002:00005c64       ??_C@_1M@CEEDODME@?$AAr?$AAu?$AA?9?$AAr?$AAu@ 10025c64     libucrt:lcidtoname_downlevel.obj
 0002:00005c70       ??_C@_1M@HPKKKMPP@?$AAs?$AAa?$AA?9?$AAi?$AAn@ 10025c70     libucrt:lcidtoname_downlevel.obj
 0002:00005c7c       ??_C@_1M@BKMAIGOJ@?$AAs?$AAe?$AA?9?$AAf?$AAi@ 10025c7c     libucrt:lcidtoname_downlevel.obj
 0002:00005c88       ??_C@_1M@NDPIFLFI@?$AAs?$AAe?$AA?9?$AAn?$AAo@ 10025c88     libucrt:lcidtoname_downlevel.obj
 0002:00005c94       ??_C@_1M@DANKKHJ@?$AAs?$AAe?$AA?9?$AAs?$AAe@ 10025c94     libucrt:lcidtoname_downlevel.obj
 0002:00005ca0       ??_C@_1M@PNBLONPJ@?$AAs?$AAk?$AA?9?$AAs?$AAk@ 10025ca0     libucrt:lcidtoname_downlevel.obj
 0002:00005cac       ??_C@_1M@LFMODOAL@?$AAs?$AAl?$AA?9?$AAs?$AAi@ 10025cac     libucrt:lcidtoname_downlevel.obj
 0002:00005cb8       ??_C@_1O@DFKOMPG@?$AAs?$AAm?$AAa?$AA?9?$AAn?$AAo@ 10025cb8     libucrt:lcidtoname_downlevel.obj
 0002:00005cc8       ??_C@_1O@NDKPBNNH@?$AAs?$AAm?$AAa?$AA?9?$AAs?$AAe@ 10025cc8     libucrt:lcidtoname_downlevel.obj
 0002:00005cd8       ??_C@_1O@PLLKBHAB@?$AAs?$AAm?$AAj?$AA?9?$AAn?$AAo@ 10025cd8     libucrt:lcidtoname_downlevel.obj
 0002:00005ce8       ??_C@_1O@CLEPOGCA@?$AAs?$AAm?$AAj?$AA?9?$AAs?$AAe@ 10025ce8     libucrt:lcidtoname_downlevel.obj
 0002:00005cf8       ??_C@_1O@DLGJGKMK@?$AAs?$AAm?$AAn?$AA?9?$AAf?$AAi@ 10025cf8     libucrt:lcidtoname_downlevel.obj
 0002:00005d08       ??_C@_1O@OJDJGAJC@?$AAs?$AAm?$AAs?$AA?9?$AAf?$AAi@ 10025d08     libucrt:lcidtoname_downlevel.obj
 0002:00005d18       ??_C@_1M@BOFOGHPB@?$AAs?$AAq?$AA?9?$AAa?$AAl@ 10025d18     libucrt:lcidtoname_downlevel.obj
 0002:00005d24       ??_C@_1BG@LJBBIPGB@?$AAs?$AAr?$AA?9?$AAb?$AAa?$AA?9?$AAc?$AAy?$AAr?$AAl@ 10025d24     libucrt:lcidtoname_downlevel.obj
 0002:00005d3c       ??_C@_1BG@JLBENFOE@?$AAs?$AAr?$AA?9?$AAb?$AAa?$AA?9?$AAl?$AAa?$AAt?$AAn@ 10025d3c     libucrt:lcidtoname_downlevel.obj
 0002:00005d54       ??_C@_1BG@KODPNHE@?$AAs?$AAr?$AA?9?$AAs?$AAp?$AA?9?$AAc?$AAy?$AAr?$AAl@ 10025d54     libucrt:lcidtoname_downlevel.obj
 0002:00005d6c       ??_C@_1BG@CIOGKHPB@?$AAs?$AAr?$AA?9?$AAs?$AAp?$AA?9?$AAl?$AAa?$AAt?$AAn@ 10025d6c     libucrt:lcidtoname_downlevel.obj
 0002:00005d84       ??_C@_1M@NGFJLMAC@?$AAs?$AAv?$AA?9?$AAf?$AAi@ 10025d84     libucrt:lcidtoname_downlevel.obj
 0002:00005d90       ??_C@_1M@MPJEJAJC@?$AAs?$AAv?$AA?9?$AAs?$AAe@ 10025d90     libucrt:lcidtoname_downlevel.obj
 0002:00005d9c       ??_C@_1M@MPNDHLFK@?$AAs?$AAw?$AA?9?$AAk?$AAe@ 10025d9c     libucrt:lcidtoname_downlevel.obj
 0002:00005da8       ??_C@_1O@KOHBJJI@?$AAs?$AAy?$AAr?$AA?9?$AAs?$AAy@ 10025da8     libucrt:lcidtoname_downlevel.obj
 0002:00005db8       ??_C@_1M@LDCEFHA@?$AAt?$AAa?$AA?9?$AAi?$AAn@ 10025db8     libucrt:lcidtoname_downlevel.obj
 0002:00005dc4       ??_C@_1M@CNJOFAK@?$AAt?$AAe?$AA?9?$AAi?$AAn@ 10025dc4     libucrt:lcidtoname_downlevel.obj
 0002:00005dd0       ??_C@_1M@GNAECACD@?$AAt?$AAh?$AA?9?$AAt?$AAh@ 10025dd0     libucrt:lcidtoname_downlevel.obj
 0002:00005ddc       ??_C@_1M@CHBIHOJO@?$AAt?$AAn?$AA?9?$AAz?$AAa@ 10025ddc     libucrt:lcidtoname_downlevel.obj
 0002:00005de8       ??_C@_1M@GCCMIGPJ@?$AAt?$AAr?$AA?9?$AAt?$AAr@ 10025de8     libucrt:lcidtoname_downlevel.obj
 0002:00005df4       ??_C@_1M@CELMCNBK@?$AAt?$AAt?$AA?9?$AAr?$AAu@ 10025df4     libucrt:lcidtoname_downlevel.obj
 0002:00005e00       ??_C@_1M@KLMCELGA@?$AAu?$AAk?$AA?9?$AAu?$AAa@ 10025e00     libucrt:lcidtoname_downlevel.obj
 0002:00005e0c       ??_C@_1M@EPAJJAJF@?$AAu?$AAr?$AA?9?$AAp?$AAk@ 10025e0c     libucrt:lcidtoname_downlevel.obj
 0002:00005e18       ??_C@_1BG@GEGPMCDJ@?$AAu?$AAz?$AA?9?$AAu?$AAz?$AA?9?$AAc?$AAy?$AAr?$AAl@ 10025e18     libucrt:lcidtoname_downlevel.obj
 0002:00005e30       ??_C@_1BG@EGGKJILM@?$AAu?$AAz?$AA?9?$AAu?$AAz?$AA?9?$AAl?$AAa?$AAt?$AAn@ 10025e30     libucrt:lcidtoname_downlevel.obj
 0002:00005e48       ??_C@_1M@GFOCLFF@?$AAv?$AAi?$AA?9?$AAv?$AAn@ 10025e48     libucrt:lcidtoname_downlevel.obj
 0002:00005e54       ??_C@_1M@CPAMEDFI@?$AAx?$AAh?$AA?9?$AAz?$AAa@ 10025e54     libucrt:lcidtoname_downlevel.obj
 0002:00005e60       ??_C@_1O@EBKIFIGN@?$AAz?$AAh?$AA?9?$AAc?$AAh?$AAs@ 10025e60     libucrt:lcidtoname_downlevel.obj
 0002:00005e70       ??_C@_1O@NMHPGANE@?$AAz?$AAh?$AA?9?$AAc?$AAh?$AAt@ 10025e70     libucrt:lcidtoname_downlevel.obj
 0002:00005e80       ??_C@_1M@LPINJOMC@?$AAz?$AAh?$AA?9?$AAc?$AAn@ 10025e80     libucrt:lcidtoname_downlevel.obj
 0002:00005e8c       ??_C@_1M@OCJEJODD@?$AAz?$AAh?$AA?9?$AAh?$AAk@ 10025e8c     libucrt:lcidtoname_downlevel.obj
 0002:00005e98       ??_C@_1M@DNDLJINH@?$AAz?$AAh?$AA?9?$AAm?$AAo@ 10025e98     libucrt:lcidtoname_downlevel.obj
 0002:00005ea4       ??_C@_1M@MBFDNDND@?$AAz?$AAh?$AA?9?$AAs?$AAg@ 10025ea4     libucrt:lcidtoname_downlevel.obj
 0002:00005eb0       ??_C@_1M@IMEPLEPE@?$AAz?$AAh?$AA?9?$AAt?$AAw@ 10025eb0     libucrt:lcidtoname_downlevel.obj
 0002:00005ebc       ??_C@_1M@BBGHNHJP@?$AAz?$AAu?$AA?9?$AAz?$AAa@ 10025ebc     libucrt:lcidtoname_downlevel.obj
 0002:00005ec8       ?large_power_data@?1??multiply_by_power_of_ten@__crt_strtox@@YA_NAAUbig_integer@2@I@Z@4QBIB 10025ec8     libucrt:cfout.obj
 0002:000067d0       ?large_power_indices@?1??multiply_by_power_of_ten@__crt_strtox@@YA_NAAUbig_integer@2@I@Z@4QBUunpack_index@?1??12@YA_N0I@Z@B 100267d0     libucrt:cfout.obj
 0002:00006868       ?small_powers_of_ten@?1??multiply_by_power_of_ten@__crt_strtox@@YA_NAAUbig_integer@2@I@Z@4QBIB 10026868     libucrt:cfout.obj
 0002:0000688c       ??_C@_01GBGANLPD@0@        1002688c     libucrt:cfout.obj
 0002:00006890       ??_C@_05DNEBIAHO@1?$CDINF@ 10026890     libucrt:cfout.obj
 0002:00006898       ??_C@_06IMKFLFPG@1?$CDQNAN@ 10026898     libucrt:cfout.obj
 0002:000068a0       ??_C@_06PGGFOGJG@1?$CDSNAN@ 100268a0     libucrt:cfout.obj
 0002:000068a8       ??_C@_05PHHOCPM@1?$CDIND@  100268a8     libucrt:cfout.obj
 0002:00006a10       __infinity                 10026a10     libucrt:87tran.obj
 0002:00006a1a       __minfinity                10026a1a     libucrt:87tran.obj
 0002:00006a24       __logemax                  10026a24     libucrt:87tran.obj
 0002:00006a4a       __OP_EXPjmptab             10026a4a     libucrt:87tran.obj
 0002:00006a70       __indefinite               10026a70     libucrt:87disp.obj
 0002:00006a7a       __piby2                    10026a7a     libucrt:87disp.obj
 0002:00006a84       __piby4                    10026a84     libucrt:87disp.obj
 0002:00006ab8       __DEFAULT_CW_in_mem        10026ab8     libucrt:common.obj
 0002:00006aba       __pi_by_2_to_61            10026aba     libucrt:common.obj
 0002:00006af4       ??_C@_03MGHMBJCF@log@      10026af4     libucrt:libm_error.obj
 0002:00006af8       ??_C@_05HGHHAHAP@log10@    10026af8     libucrt:libm_error.obj
 0002:00006b00       ??_C@_03KHJOGHMM@exp@      10026b00     libucrt:libm_error.obj
 0002:00006b04       ??_C@_03JGHBODFD@pow@      10026b04     libucrt:libm_error.obj
 0002:00006b08       ??_C@_04FIHNOPOL@asin@     10026b08     libucrt:libm_error.obj
 0002:00006b10       ??_C@_04PDIFKINK@acos@     10026b10     libucrt:libm_error.obj
 0002:00006b18       ??_C@_04EIAKFFMI@sqrt@     10026b18     libucrt:libm_error.obj
 0002:00006b20       __real@3ff0000000000000    10026b20     libucrt:libm_error.obj
 0002:00006b28       ??_C@_1BA@BALFACEM@?$AAC?$AAO?$AAN?$AAO?$AAU?$AAT?$AA$@ 10026b28     libucrt:initcon.obj
 0002:00006b50       ___acrt_log10_table_t      10026b50     libucrt:log10_tables.obj
 0002:00006f60       ___acrt_log10_table_cb     10026f60     libucrt:log10_tables.obj
 0002:00007370       __real@3fe0000000000000    10027370     libucrt:powhlp.obj
 0002:00007460       ??_C@_04COOMCNPB@sinh@     10027460     libucrt:fpexcept.obj
 0002:00007468       ??_C@_04HPJJNFIM@cosh@     10027468     libucrt:fpexcept.obj
 0002:00007470       ??_C@_04FJHINJAO@tanh@     10027470     libucrt:fpexcept.obj
 0002:00007478       ??_C@_04MLLJIGOK@atan@     10027478     libucrt:fpexcept.obj
 0002:00007480       ??_C@_05KNGEOGJB@atan2@    10027480     libucrt:fpexcept.obj
 0002:00007488       ??_C@_03BLEJJJBH@sin@      10027488     libucrt:fpexcept.obj
 0002:0000748c       ??_C@_03LALBNOCG@cos@      1002748c     libucrt:fpexcept.obj
 0002:00007490       ??_C@_03IIINPABG@tan@      10027490     libucrt:fpexcept.obj
 0002:00007494       ??_C@_04GFPJNGEK@ceil@     10027494     libucrt:fpexcept.obj
 0002:0000749c       ??_C@_05PBJFFIGL@floor@    1002749c     libucrt:fpexcept.obj
 0002:000074a4       ??_C@_04ODHECPBC@fabs@     100274a4     libucrt:fpexcept.obj
 0002:000074ac       ??_C@_04EHEDPDJG@modf@     100274ac     libucrt:fpexcept.obj
 0002:000074b4       ??_C@_05CEJMAHNP@ldexp@    100274b4     libucrt:fpexcept.obj
 0002:000074bc       ??_C@_05KBKMEMPO@_cabs@    100274bc     libucrt:fpexcept.obj
 0002:000074c4       ??_C@_06MEIMCGCF@_hypot@   100274c4     libucrt:fpexcept.obj
 0002:000074cc       ??_C@_04KEPJIHGP@fmod@     100274cc     libucrt:fpexcept.obj
 0002:000074d4       ??_C@_05GKKHEGJL@frexp@    100274d4     libucrt:fpexcept.obj
 0002:000074dc       ??_C@_03MJLDFKDL@_y0@      100274dc     libucrt:fpexcept.obj
 0002:000074e0       ??_C@_03NAKIGLHK@_y1@      100274e0     libucrt:fpexcept.obj
 0002:000074e4       ??_C@_03ONILCKOB@_yn@      100274e4     libucrt:fpexcept.obj
 0002:000074e8       ??_C@_05JGDBENOH@_logb@    100274e8     libucrt:fpexcept.obj
 0002:000074f0       ??_C@_0L@KDOEJCKC@_nextafter@ 100274f0     libucrt:fpexcept.obj
 0002:00007500       __d_inf                    10027500     libucrt:util.obj
 0002:00007508       __d_max                    10027508     libucrt:util.obj
 0002:00007510       __d_mzero                  10027510     libucrt:util.obj
 0002:00007580       __load_config_used         10027580     LIBCMT:loadcfg.obj
 0002:00007638       __tls_used                 10027638     LIBCMT:tlssup.obj
 0002:00007650       ??_R4exception@std@@6B@    10027650     LIBCMT:throw_bad_alloc.obj
 0002:00007664       ??_R3exception@std@@8      10027664     LIBCMT:throw_bad_alloc.obj
 0002:00007674       ??_R2exception@std@@8      10027674     LIBCMT:throw_bad_alloc.obj
 0002:0000767c       ??_R1A@?0A@EA@exception@std@@8 1002767c     LIBCMT:throw_bad_alloc.obj
 0002:00007698       ??_R4bad_alloc@std@@6B@    10027698     LIBCMT:throw_bad_alloc.obj
 0002:000076ac       ??_R3bad_alloc@std@@8      100276ac     LIBCMT:throw_bad_alloc.obj
 0002:000076bc       ??_R2bad_alloc@std@@8      100276bc     LIBCMT:throw_bad_alloc.obj
 0002:000076c8       ??_R1A@?0A@EA@bad_alloc@std@@8 100276c8     LIBCMT:throw_bad_alloc.obj
 0002:000076e4       ??_R4bad_array_new_length@std@@6B@ 100276e4     LIBCMT:throw_bad_alloc.obj
 0002:000076f8       ??_R3bad_array_new_length@std@@8 100276f8     LIBCMT:throw_bad_alloc.obj
 0002:00007708       ??_R2bad_array_new_length@std@@8 10027708     LIBCMT:throw_bad_alloc.obj
 0002:00007718       ??_R1A@?0A@EA@bad_array_new_length@std@@8 10027718     LIBCMT:throw_bad_alloc.obj
 0002:00007734       ??_R4type_info@@6B@        10027734     LIBCMT:std_type_info_static.obj
 0002:00007748       ??_R3type_info@@8          10027748     LIBCMT:std_type_info_static.obj
 0002:00007758       ??_R2type_info@@8          10027758     LIBCMT:std_type_info_static.obj
 0002:00007760       ??_R1A@?0A@EA@type_info@@8 10027760     LIBCMT:std_type_info_static.obj
 0002:0000777c       ??_R4bad_exception@std@@6B@ 1002777c     libvcruntime:frame.obj
 0002:00007790       ??_R3bad_exception@std@@8  10027790     libvcruntime:frame.obj
 0002:000077a0       ??_R2bad_exception@std@@8  100277a0     libvcruntime:frame.obj
 0002:000077ac       ??_R1A@?0A@EA@bad_exception@std@@8 100277ac     libvcruntime:frame.obj
 0002:000077c8       ___safe_se_handler_table   100277c8     <linker-defined>
 0002:00007bc4       ___rtc_iaa                 10027bc4     LIBCMT:initsect.obj
 0002:00007bc8       ___rtc_izz                 10027bc8     LIBCMT:initsect.obj
 0002:00007bcc       ___rtc_taa                 10027bcc     LIBCMT:initsect.obj
 0002:00007bd0       ___rtc_tzz                 10027bd0     LIBCMT:initsect.obj
 0002:00007bd4       __tls_start                10027bd4     LIBCMT:tlssup.obj
 0002:00007bd8       __Init_thread_epoch        10027bd8     LIBCMT:thread_safe_statics.obj
 0002:00007bdc       __tls_end                  10027bdc     LIBCMT:tlssup.obj
 0002:00007cdc       __TI2?AVbad_alloc@std@@    10027cdc     LIBCMT:throw_bad_alloc.obj
 0002:00007cec       __CTA2?AVbad_alloc@std@@   10027cec     LIBCMT:throw_bad_alloc.obj
 0002:00007cf8       __CT??_R0?AVbad_alloc@std@@@8??0bad_alloc@std@@QAE@ABV01@@Z12 10027cf8     LIBCMT:throw_bad_alloc.obj
 0002:00007d14       __CT??_R0?AVexception@std@@@8??0exception@std@@QAE@ABV01@@Z12 10027d14     LIBCMT:throw_bad_alloc.obj
 0002:00007d30       __TI3?AVbad_array_new_length@std@@ 10027d30     LIBCMT:throw_bad_alloc.obj
 0002:00007d40       __CTA3?AVbad_array_new_length@std@@ 10027d40     LIBCMT:throw_bad_alloc.obj
 0002:00007d50       __CT??_R0?AVbad_array_new_length@std@@@8??0bad_array_new_length@std@@QAE@ABV01@@Z12 10027d50     LIBCMT:throw_bad_alloc.obj
 0002:00007e74       __TI2?AVbad_exception@std@@ 10027e74     libvcruntime:frame.obj
 0002:00007e84       __CTA2?AVbad_exception@std@@ 10027e84     libvcruntime:frame.obj
 0002:00007e90       __CT??_R0?AVbad_exception@std@@@8??0bad_exception@std@@QAE@ABV01@@Z12 10027e90     libvcruntime:frame.obj
 0002:0000820c       ___pobjMapEntryFirst       1002820c     OposVariant.obj
 0002:00008210       ___pobjMapEntryLast        10028210     OposVariant.obj
 0002:000082d0       __IMPORT_DESCRIPTOR_KERNEL32 100282d0     kernel32:KERNEL32.dll
 0002:000082e4       __IMPORT_DESCRIPTOR_USER32 100282e4     user32:USER32.dll
 0002:000082f8       __IMPORT_DESCRIPTOR_GDI32  100282f8     gdi32:GDI32.dll
 0002:0000830c       __IMPORT_DESCRIPTOR_ADVAPI32 1002830c     advapi32:ADVAPI32.dll
 0002:00008320       __IMPORT_DESCRIPTOR_ole32  10028320     ole32:ole32.dll
 0002:00008334       __IMPORT_DESCRIPTOR_OLEAUT32 10028334     oleaut32:OLEAUT32.dll
 0002:00008348       __NULL_IMPORT_DESCRIPTOR   10028348     kernel32:KERNEL32.dll
 0003:00000000       ?s_Claim@?7??GetIDsOfNames@CComTypeInfoHolder@ATL@@QAEJABU_GUID@@PAPA_WIKPAJ@Z@4PA_WA 1002a000     ImageScanner.obj
 0003:00000018       ?s_Release@?7??GetIDsOfNames@CComTypeInfoHolder@ATL@@QAEJABU_GUID@@PAPA_WIKPAJ@Z@4PA_WA 1002a018     ImageScanner.obj
 0003:00000034       ?_tih@?$IDispatchImpl@UIOPOSImageScanner@@$1?IID_IOPOSImageScanner@@3U_GUID@@B$1?LIBID_OposImageScanner_CCO@@3U3@B$00$0A@VCComTypeInfoHolder@ATL@@@ATL@@1VCComTypeInfoHolder@2@A 1002a034     ImageScanner.obj
 0003:00000050       ?_tih@?$IProvideClassInfo2Impl@$1?CLSID_OPOSImageScanner@@3U_GUID@@B$1?DIID__IOPOSImageScannerEvents@@3U2@B$1?LIBID_OposImageScanner_CCO@@3U2@B$00$0A@VCComTypeInfoHolder@ATL@@@ATL@@1VCComTypeInfoHolder@2@A 1002a050     ImageScanner.obj
 0003:0000006c       ?vszContents@?6??Save@?$IPersistStorageImpl@VCOPOSImageScanner@@@ATL@@UAGJPAUIStorage@@H@Z@4PB_WB 1002a06c     ImageScanner.obj
 0003:00000070       ?wc@?1??GetWndClassInfo@?$CWindowImpl@VCOPOSImageScanner@@VCWindow@ATL@@V?$CWinTraits@$0FGAAAAAA@$0A@@3@@ATL@@SAAAU_ATL_WNDCLASSINFOW@3@XZ@4U43@A 1002a070     ImageScanner.obj
 0003:000000fc       ?rcDefault@CWindow@ATL@@2UtagRECT@@A 1002a0fc     ImageScanner.obj
 0003:00000158       ?g_WindowName@@3PA_WA      1002a158     ImageScannerImpl.obj
 0003:00000180       ?g_ControlDescription@@3PADA 1002a180     ImageScannerImpl.obj
 0003:000001cc       ?g_ControlVersion@@3JA     1002a1cc     ImageScannerImpl.obj
 0003:00000228       ___scrt_native_dllmain_reason 1002a228     LIBCMT:utility.obj
 0003:0000022c       __Init_global_epoch        1002a22c     LIBCMT:thread_safe_statics.obj
 0003:00000230       ___security_cookie_complement 1002a230     LIBCMT:gs_cookie.obj
 0003:00000234       ___security_cookie         1002a234     LIBCMT:gs_cookie.obj
 0003:00000238       ___isa_enabled             1002a238     LIBCMT:cpu_disp.obj
 0003:00000250       __NLG_Destination          1002a250     libvcruntime:exsup.obj
 0003:00000268       ___abort_behavior          1002a268     libucrt:abort.obj
 0003:00000278       __iob                      1002a278     libucrt:_file.obj
 0003:00000320       ___acrt_initial_locale_data 1002a320     libucrt:nlsdata.obj
 0003:000003d8       ___acrt_initial_locale_pointers 1002a3d8     libucrt:nlsdata.obj
 0003:000003e0       ___acrt_wide_c_locale_string 1002a3e0     libucrt:nlsdata.obj
 0003:000003e8       ___acrt_initial_multibyte_data 1002a3e8     libucrt:mbctype.obj
 0003:00000908       __pwctype                  1002a908     libucrt:ctype.obj
 0003:0000090c       ___globallocalestatus      1002a90c     libucrt:glstatus.obj
 0003:00000910       ___acrt_lconv_c            1002a910     libucrt:localeconv.obj
 0003:00000960       ___acrt_lconv_static_decimal 1002a960     libucrt:localeconv.obj
 0003:00000964       ___acrt_lconv_static_W_decimal 1002a964     libucrt:localeconv.obj
 0003:00000970       __lookuptrailbytes         1002a970     libucrt:read.obj
 0003:00000a80       __fltused                  1002aa80     LIBCMT:fltused.obj
 0003:00000a90       ??_R0?AVbad_alloc@std@@@8  1002aa90     LIBCMT:throw_bad_alloc.obj
 0003:00000aac       ??_R0?AVexception@std@@@8  1002aaac     LIBCMT:throw_bad_alloc.obj
 0003:00000ac8       ??_R0?AVbad_array_new_length@std@@@8 1002aac8     LIBCMT:throw_bad_alloc.obj
 0003:00000af0       ??_R0?AVtype_info@@@8      1002aaf0     LIBCMT:std_type_info_static.obj
 0003:00000b08       ??_R0?AVbad_exception@std@@@8 1002ab08     libvcruntime:frame.obj
 0003:00000b28       ?m_bInitFailed@CAtlBaseModule@ATL@@2_NA 1002ab28     OposVariant.obj
 0003:00000b2c       ?_pPerfRegFunc@ATL@@3P6AJPAUHINSTANCE__@@@ZA 1002ab2c     OposVariant.obj
 0003:00000b30       ?_pPerfUnRegFunc@ATL@@3P6AJXZA 1002ab30     OposVariant.obj
 0003:00000b34       ?_AtlRegisterPerUser@ATL@@3_NA 1002ab34     OposVariant.obj
 0003:00000b38       ?_pAtlModule@ATL@@3PAVCAtlModule@1@A 1002ab38     OposVariant.obj
 0003:00000b3c       ?_pModule@ATL@@3PAVCComModule@1@A 1002ab3c     OposVariant.obj
 0003:00000b40       ?_AtlComModule@ATL@@3VCAtlComModule@1@A 1002ab40     OposVariant.obj
 0003:00000b68       ?_AtlWinModule@ATL@@3VCAtlWinModule@1@A 1002ab68     OposVariant.obj
 0003:00000b94       ?m_libid@CAtlModule@ATL@@2U_GUID@@A 1002ab94     ImageScanner.obj
 0003:00000ba4       ?_entries@?1??GetConnMap@COPOSImageScanner@@SAPBU_ATL_CONNMAP_ENTRY@ATL@@PAH@Z@4QBU34@B 1002aba4     ImageScanner.obj
 0003:00000bb0       ?$TSS0@?1??GetConnMap@COPOSImageScanner@@SAPBU_ATL_CONNMAP_ENTRY@ATL@@PAH@Z@4HA 1002abb0     ImageScanner.obj
 0003:00000bb8       ?_OptionsStorage@?1??__local_stdio_printf_options@@9@4_KA 1002abb8     ImageScanner.obj
 0003:00000bc0       ?pfnRegDeleteKeyEx@?1??DeleteSubKey@CRegKey@ATL@@QAEJPB_W@Z@4P6GJPAUHKEY__@@0KK@ZA 1002abc0     ImageScanner.obj
 0003:00000bc4       ?bInitialized@?1??DeleteSubKey@CRegKey@ATL@@QAEJPB_W@Z@4_NA 1002abc4     ImageScanner.obj
 0003:00000bc8       ?_Module@@3VCComModule@ATL@@A 1002abc8     ImageScanner.obj
 0003:00000bf8       ?pConnMap@?$IConnectionPointContainerImpl@VCOPOSImageScanner@@@ATL@@0PBU_ATL_CONNMAP_ENTRY@2@B 1002abf8     ImageScanner.obj
 0003:00000bfc       ?s_nInstances@COPOSImageScanner@@1HA 1002abfc     ImageScannerImpl.obj
 0003:00000c00       ___scrt_current_native_startup_state 1002ac00     LIBCMT:utility.obj
 0003:00000c04       ___scrt_native_startup_lock 1002ac04     LIBCMT:utility.obj
 0003:00000f6c       __tls_index                1002af6c     LIBCMT:tlssup.obj
 0003:00000f74       ___isa_available           1002af74     LIBCMT:cpu_disp.obj
 0003:00000f78       ___favor                   1002af78     LIBCMT:cpu_disp.obj
 0003:00000f7c       ___scrt_debugger_hook_flag 1002af7c     LIBCMT:utility_desktop.obj
 0003:00000f80       ?__type_info_root_node@@3U__type_info_node@@A 1002af80     LIBCMT:tncleanup.obj
 0003:00000f88       ?_OptionsStorage@?1??__local_stdio_scanf_options@@9@4_KA 1002af88     LIBCMT:default_local_stdio_options.obj
 0003:00000f90       ?_AtlBaseModule@ATL@@3VCAtlBaseModule@1@A 1002af90     atls:atlbase.obj
 0003:00000fc8       ?__AtlThunkPool@@3PAT_SLIST_HEADER@@A 1002afc8     atls:atlthunk.obj
 0003:00000fe0       ___@@_PchSym_@00@UztvmgUPdlipUEUhUrmgvinvwrzgvUexgllohUzgohOmzgrevkilqPBACIAJCBDBUlyqiUcIGUhgwzucOlyq@4B2008FD98C1DD4 1002afe0     atls:stdafx.obj
 0003:00000fe4       ?__WinRTOutOfMemoryExceptionCallback@@3P6GPAXXZA 1002afe4     libvcruntime:ehhelpers.obj
 0003:00000fe8       ___pPurecall               1002afe8     libvcruntime:purevirt_data.obj
 0003:00001030       ?pArgList@UnDecorator@@0PAVReplicator@@A 1002b030     libvcruntime:undname.obj
 0003:00001034       ?pZNameList@UnDecorator@@0PAVReplicator@@A 1002b034     libvcruntime:undname.obj
 0003:00001038       ?pTemplateArgList@UnDecorator@@0PAVReplicator@@A 1002b038     libvcruntime:undname.obj
 0003:0000103c       ?gName@UnDecorator@@0PBDB  1002b03c     libvcruntime:undname.obj
 0003:00001040       ?name@UnDecorator@@0PBDB   1002b040     libvcruntime:undname.obj
 0003:00001044       ?disableFlags@UnDecorator@@0KA 1002b044     libvcruntime:undname.obj
 0003:00001048       ?fExplicitTemplateParams@UnDecorator@@0_NA 1002b048     libvcruntime:undname.obj
 0003:00001049       ?fGetTemplateArgumentList@UnDecorator@@0_NA 1002b049     libvcruntime:undname.obj
 0003:0000104c       ?m_pGetParameter@UnDecorator@@0P6APADJ@ZA 1002b04c     libvcruntime:undname.obj
 0003:00001050       ?m_CHPENameOffset@UnDecorator@@0KA 1002b050     libvcruntime:undname.obj
 0003:00001054       ?m_recursionLevel@UnDecorator@@0KA 1002b054     libvcruntime:undname.obj
 0003:00001098       ?c_exit_complete@?1???R<lambda_6e4b09c48022b2350581041d5f6b0c4c>@@QBE@XZ@4_NA 1002b098     libucrt:exit.obj
 0003:000011a8       __environ_table            1002b1a8     libucrt:environment_initialization.obj
 0003:000011ac       __wenviron_table           1002b1ac     libucrt:environment_initialization.obj
 0003:000011b0       ___dcrt_initial_wide_environment 1002b1b0     libucrt:environment_initialization.obj
 0003:000011b4       ___dcrt_initial_narrow_environment 1002b1b4     libucrt:environment_initialization.obj
 0003:000011b8       ___acrt_atexit_table       1002b1b8     libucrt:onexit.obj
 0003:000011c4       ___acrt_at_quick_exit_table 1002b1c4     libucrt:onexit.obj
 0003:000012b8       __nstream                  1002b2b8     libucrt:_file.obj
 0003:000012bc       ___piob                    1002b2bc     libucrt:_file.obj
 0003:000012c4       ___acrt_stdout_buffer      1002b2c4     libucrt:_sftbuf.obj
 0003:000012c8       ___acrt_stderr_buffer      1002b2c8     libucrt:_sftbuf.obj
 0003:000012cc       ___acrt_locale_changed_data 1002b2cc     libucrt:wsetlocale.obj
 0003:000012d0       ___acrt_current_locale_data 1002b2d0     libucrt:nlsdata.obj
 0003:000012d8       ___pioinfo                 1002b2d8     libucrt:ioinit.obj
 0003:000014d8       __nhandle                  1002b4d8     libucrt:ioinit.obj
 0003:00001634       __mbctype                  1002b634     libucrt:mbctype.obj
 0003:00001638       __mbcasemap                1002b638     libucrt:mbctype.obj
 0003:0000163c       ___acrt_current_multibyte_data 1002b63c     libucrt:mbctype.obj
 0003:00001648       __pgmptr                   1002b648     libucrt:argv_data.obj
 0003:0000164c       ___argc                    1002b64c     libucrt:argv_data.obj
 0003:00001650       ___argv                    1002b650     libucrt:argv_data.obj
 0003:00001654       ___wargv                   1002b654     libucrt:argv_data.obj
 0003:00001658       __acmdln                   1002b658     libucrt:argv_data.obj
 0003:0000165c       __wcmdln                   1002b65c     libucrt:argv_data.obj
 0003:00001660       ___acrt_heap               1002b660     libucrt:heap_handle.obj
 0003:0000167c       ___acrt_lconv_static_null  1002b67c     libucrt:localeconv.obj
 0003:00001680       ___acrt_lconv_static_W_null 1002b680     libucrt:localeconv.obj
 0003:00001690       ___fastflag                1002b690     libucrt:fp_flags.obj
 0003:00001698       ___dyn_tls_init_callback   1002b698     <common>
 0003:0000169c       ___scrt_ucrt_dll_is_in_use 1002b69c     <common>
 0003:000016a0       __pmatherr                 1002b6a0     <common>
 0003:000016a4       ___use_sse2_mathfcns       1002b6a4     <common>

 entry point at        0001:0000be6d

 Static symbols

 0000:fffcd000       .debug$S                   10000000     OPOSImageScanner.exp
 0000:fffcd000       .debug$S                   10000000     advapi32:ADVAPI32.dll
 0000:fffcd000       .debug$S                   10000000     advapi32:ADVAPI32.dll
 0000:fffcd000       .debug$S                   10000000     advapi32:ADVAPI32.dll
 0000:fffcd000       .debug$S                   10000000     advapi32:ADVAPI32.dll
 0000:fffcd000       .debug$S                   10000000     advapi32:ADVAPI32.dll
 0000:fffcd000       .debug$S                   10000000     advapi32:ADVAPI32.dll
 0000:fffcd000       .debug$S                   10000000     advapi32:ADVAPI32.dll
 0000:fffcd000       .debug$S                   10000000     advapi32:ADVAPI32.dll
 0000:fffcd000       .debug$S                   10000000     advapi32:ADVAPI32.dll
 0000:fffcd000       .debug$S                   10000000     gdi32:GDI32.dll
 0000:fffcd000       .debug$S                   10000000     gdi32:GDI32.dll
 0000:fffcd000       .debug$S                   10000000     gdi32:GDI32.dll
 0000:fffcd000       .debug$S                   10000000     gdi32:GDI32.dll
 0000:fffcd000       .debug$S                   10000000     gdi32:GDI32.dll
 0000:fffcd000       .debug$S                   10000000     gdi32:GDI32.dll
 0000:fffcd000       .debug$S                   10000000     gdi32:GDI32.dll
 0000:fffcd000       .debug$S                   10000000     gdi32:GDI32.dll
 0000:fffcd000       .debug$S                   10000000     gdi32:GDI32.dll
 0000:fffcd000       .debug$S                   10000000     gdi32:GDI32.dll
 0000:fffcd000       .debug$S                   10000000     gdi32:GDI32.dll
 0000:fffcd000       .debug$S                   10000000     gdi32:GDI32.dll
 0000:fffcd000       .debug$S                   10000000     gdi32:GDI32.dll
 0000:fffcd000       .debug$S                   10000000     gdi32:GDI32.dll
 0000:fffcd000       .debug$S                   10000000     gdi32:GDI32.dll
 0000:fffcd000       .debug$S                   10000000     gdi32:GDI32.dll
 0000:fffcd000       .debug$S                   10000000     gdi32:GDI32.dll
 0000:fffcd000       .debug$S                   10000000     gdi32:GDI32.dll
 0000:fffcd000       .debug$S                   10000000     gdi32:GDI32.dll
 0000:fffcd000       .debug$S                   10000000     kernel32:KERNEL32.dll
 0000:fffcd000       .debug$S                   10000000     kernel32:KERNEL32.dll
 0000:fffcd000       .debug$S                   10000000     kernel32:KERNEL32.dll
 0000:fffcd000       .debug$S                   10000000     kernel32:KERNEL32.dll
 0000:fffcd000       .debug$S                   10000000     kernel32:KERNEL32.dll
 0000:fffcd000       .debug$S                   10000000     kernel32:KERNEL32.dll
 0000:fffcd000       .debug$S                   10000000     kernel32:KERNEL32.dll
 0000:fffcd000       .debug$S                   10000000     kernel32:KERNEL32.dll
 0000:fffcd000       .debug$S                   10000000     kernel32:KERNEL32.dll
 0000:fffcd000       .debug$S                   10000000     kernel32:KERNEL32.dll
 0000:fffcd000       .debug$S                   10000000     kernel32:KERNEL32.dll
 0000:fffcd000       .debug$S                   10000000     kernel32:KERNEL32.dll
 0000:fffcd000       .debug$S                   10000000     kernel32:KERNEL32.dll
 0000:fffcd000       .debug$S                   10000000     kernel32:KERNEL32.dll
 0000:fffcd000       .debug$S                   10000000     kernel32:KERNEL32.dll
 0000:fffcd000       .debug$S                   10000000     kernel32:KERNEL32.dll
 0000:fffcd000       .debug$S                   10000000     kernel32:KERNEL32.dll
 0000:fffcd000       .debug$S                   10000000     kernel32:KERNEL32.dll
 0000:fffcd000       .debug$S                   10000000     kernel32:KERNEL32.dll
 0000:fffcd000       .debug$S                   10000000     kernel32:KERNEL32.dll
 0000:fffcd000       .debug$S                   10000000     kernel32:KERNEL32.dll
 0000:fffcd000       .debug$S                   10000000     kernel32:KERNEL32.dll
 0000:fffcd000       .debug$S                   10000000     kernel32:KERNEL32.dll
 0000:fffcd000       .debug$S                   10000000     kernel32:KERNEL32.dll
 0000:fffcd000       .debug$S                   10000000     kernel32:KERNEL32.dll
 0000:fffcd000       .debug$S                   10000000     kernel32:KERNEL32.dll
 0000:fffcd000       .debug$S                   10000000     kernel32:KERNEL32.dll
 0000:fffcd000       .debug$S                   10000000     kernel32:KERNEL32.dll
 0000:fffcd000       .debug$S                   10000000     kernel32:KERNEL32.dll
 0000:fffcd000       .debug$S                   10000000     kernel32:KERNEL32.dll
 0000:fffcd000       .debug$S                   10000000     kernel32:KERNEL32.dll
 0000:fffcd000       .debug$S                   10000000     kernel32:KERNEL32.dll
 0000:fffcd000       .debug$S                   10000000     kernel32:KERNEL32.dll
 0000:fffcd000       .debug$S                   10000000     kernel32:KERNEL32.dll
 0000:fffcd000       .debug$S                   10000000     kernel32:KERNEL32.dll
 0000:fffcd000       .debug$S                   10000000     kernel32:KERNEL32.dll
 0000:fffcd000       .debug$S                   10000000     kernel32:KERNEL32.dll
 0000:fffcd000       .debug$S                   10000000     kernel32:KERNEL32.dll
 0000:fffcd000       .debug$S                   10000000     kernel32:KERNEL32.dll
 0000:fffcd000       .debug$S                   10000000     kernel32:KERNEL32.dll
 0000:fffcd000       .debug$S                   10000000     kernel32:KERNEL32.dll
 0000:fffcd000       .debug$S                   10000000     kernel32:KERNEL32.dll
 0000:fffcd000       .debug$S                   10000000     kernel32:KERNEL32.dll
 0000:fffcd000       .debug$S                   10000000     kernel32:KERNEL32.dll
 0000:fffcd000       .debug$S                   10000000     kernel32:KERNEL32.dll
 0000:fffcd000       .debug$S                   10000000     kernel32:KERNEL32.dll
 0000:fffcd000       .debug$S                   10000000     kernel32:KERNEL32.dll
 0000:fffcd000       .debug$S                   10000000     kernel32:KERNEL32.dll
 0000:fffcd000       .debug$S                   10000000     kernel32:KERNEL32.dll
 0000:fffcd000       .debug$S                   10000000     kernel32:KERNEL32.dll
 0000:fffcd000       .debug$S                   10000000     kernel32:KERNEL32.dll
 0000:fffcd000       .debug$S                   10000000     kernel32:KERNEL32.dll
 0000:fffcd000       .debug$S                   10000000     kernel32:KERNEL32.dll
 0000:fffcd000       .debug$S                   10000000     kernel32:KERNEL32.dll
 0000:fffcd000       .debug$S                   10000000     kernel32:KERNEL32.dll
 0000:fffcd000       .debug$S                   10000000     kernel32:KERNEL32.dll
 0000:fffcd000       .debug$S                   10000000     kernel32:KERNEL32.dll
 0000:fffcd000       .debug$S                   10000000     kernel32:KERNEL32.dll
 0000:fffcd000       .debug$S                   10000000     kernel32:KERNEL32.dll
 0000:fffcd000       .debug$S                   10000000     kernel32:KERNEL32.dll
 0000:fffcd000       .debug$S                   10000000     kernel32:KERNEL32.dll
 0000:fffcd000       .debug$S                   10000000     kernel32:KERNEL32.dll
 0000:fffcd000       .debug$S                   10000000     kernel32:KERNEL32.dll
 0000:fffcd000       .debug$S                   10000000     kernel32:KERNEL32.dll
 0000:fffcd000       .debug$S                   10000000     kernel32:KERNEL32.dll
 0000:fffcd000       .debug$S                   10000000     kernel32:KERNEL32.dll
 0000:fffcd000       .debug$S                   10000000     kernel32:KERNEL32.dll
 0000:fffcd000       .debug$S                   10000000     kernel32:KERNEL32.dll
 0000:fffcd000       .debug$S                   10000000     kernel32:KERNEL32.dll
 0000:fffcd000       .debug$S                   10000000     kernel32:KERNEL32.dll
 0000:fffcd000       .debug$S                   10000000     kernel32:KERNEL32.dll
 0000:fffcd000       .debug$S                   10000000     kernel32:KERNEL32.dll
 0000:fffcd000       .debug$S                   10000000     kernel32:KERNEL32.dll
 0000:fffcd000       .debug$S                   10000000     kernel32:KERNEL32.dll
 0000:fffcd000       .debug$S                   10000000     kernel32:KERNEL32.dll
 0000:fffcd000       .debug$S                   10000000     kernel32:KERNEL32.dll
 0000:fffcd000       .debug$S                   10000000     kernel32:KERNEL32.dll
 0000:fffcd000       .debug$S                   10000000     kernel32:KERNEL32.dll
 0000:fffcd000       .debug$S                   10000000     kernel32:KERNEL32.dll
 0000:fffcd000       .debug$S                   10000000     kernel32:KERNEL32.dll
 0000:fffcd000       .debug$S                   10000000     kernel32:KERNEL32.dll
 0000:fffcd000       .debug$S                   10000000     kernel32:KERNEL32.dll
 0000:fffcd000       .debug$S                   10000000     kernel32:KERNEL32.dll
 0000:fffcd000       .debug$S                   10000000     kernel32:KERNEL32.dll
 0000:fffcd000       .debug$S                   10000000     kernel32:KERNEL32.dll
 0000:fffcd000       .debug$S                   10000000     kernel32:KERNEL32.dll
 0000:fffcd000       .debug$S                   10000000     kernel32:KERNEL32.dll
 0000:fffcd000       .debug$S                   10000000     kernel32:KERNEL32.dll
 0000:fffcd000       .debug$S                   10000000     kernel32:KERNEL32.dll
 0000:fffcd000       .debug$S                   10000000     kernel32:KERNEL32.dll
 0000:fffcd000       .debug$S                   10000000     kernel32:KERNEL32.dll
 0000:fffcd000       .debug$S                   10000000     kernel32:KERNEL32.dll
 0000:fffcd000       .debug$S                   10000000     kernel32:KERNEL32.dll
 0000:fffcd000       .debug$S                   10000000     kernel32:KERNEL32.dll
 0000:fffcd000       .debug$S                   10000000     kernel32:KERNEL32.dll
 0000:fffcd000       .debug$S                   10000000     kernel32:KERNEL32.dll
 0000:fffcd000       .debug$S                   10000000     kernel32:KERNEL32.dll
 0000:fffcd000       .debug$S                   10000000     kernel32:KERNEL32.dll
 0000:fffcd000       .debug$S                   10000000     kernel32:KERNEL32.dll
 0000:fffcd000       .debug$S                   10000000     kernel32:KERNEL32.dll
 0000:fffcd000       .debug$S                   10000000     kernel32:KERNEL32.dll
 0000:fffcd000       .debug$S                   10000000     kernel32:KERNEL32.dll
 0000:fffcd000       .debug$S                   10000000     kernel32:KERNEL32.dll
 0000:fffcd000       .debug$S                   10000000     kernel32:KERNEL32.dll
 0000:fffcd000       .debug$S                   10000000     kernel32:KERNEL32.dll
 0000:fffcd000       .debug$S                   10000000     kernel32:KERNEL32.dll
 0000:fffcd000       .debug$S                   10000000     ole32:ole32.dll
 0000:fffcd000       .debug$S                   10000000     ole32:ole32.dll
 0000:fffcd000       .debug$S                   10000000     ole32:ole32.dll
 0000:fffcd000       .debug$S                   10000000     ole32:ole32.dll
 0000:fffcd000       .debug$S                   10000000     ole32:ole32.dll
 0000:fffcd000       .debug$S                   10000000     ole32:ole32.dll
 0000:fffcd000       .debug$S                   10000000     ole32:ole32.dll
 0000:fffcd000       .debug$S                   10000000     ole32:ole32.dll
 0000:fffcd000       .debug$S                   10000000     ole32:ole32.dll
 0000:fffcd000       .debug$S                   10000000     ole32:ole32.dll
 0000:fffcd000       .debug$S                   10000000     ole32:ole32.dll
 0000:fffcd000       .debug$S                   10000000     ole32:ole32.dll
 0000:fffcd000       .debug$S                   10000000     ole32:ole32.dll
 0000:fffcd000       .debug$S                   10000000     ole32:ole32.dll
 0000:fffcd000       .debug$S                   10000000     oleaut32:OLEAUT32.dll
 0000:fffcd000       .debug$S                   10000000     oleaut32:OLEAUT32.dll
 0000:fffcd000       .debug$S                   10000000     oleaut32:OLEAUT32.dll
 0000:fffcd000       .debug$S                   10000000     oleaut32:OLEAUT32.dll
 0000:fffcd000       .debug$S                   10000000     oleaut32:OLEAUT32.dll
 0000:fffcd000       .debug$S                   10000000     oleaut32:OLEAUT32.dll
 0000:fffcd000       .debug$S                   10000000     oleaut32:OLEAUT32.dll
 0000:fffcd000       .debug$S                   10000000     oleaut32:OLEAUT32.dll
 0000:fffcd000       .debug$S                   10000000     oleaut32:OLEAUT32.dll
 0000:fffcd000       .debug$S                   10000000     oleaut32:OLEAUT32.dll
 0000:fffcd000       .debug$S                   10000000     oleaut32:OLEAUT32.dll
 0000:fffcd000       .debug$S                   10000000     oleaut32:OLEAUT32.dll
 0000:fffcd000       .debug$S                   10000000     oleaut32:OLEAUT32.dll
 0000:fffcd000       .debug$S                   10000000     oleaut32:OLEAUT32.dll
 0000:fffcd000       .debug$S                   10000000     oleaut32:OLEAUT32.dll
 0000:fffcd000       .debug$S                   10000000     oleaut32:OLEAUT32.dll
 0000:fffcd000       .debug$S                   10000000     user32:USER32.dll
 0000:fffcd000       .debug$S                   10000000     user32:USER32.dll
 0000:fffcd000       .debug$S                   10000000     user32:USER32.dll
 0000:fffcd000       .debug$S                   10000000     user32:USER32.dll
 0000:fffcd000       .debug$S                   10000000     user32:USER32.dll
 0000:fffcd000       .debug$S                   10000000     user32:USER32.dll
 0000:fffcd000       .debug$S                   10000000     user32:USER32.dll
 0000:fffcd000       .debug$S                   10000000     user32:USER32.dll
 0000:fffcd000       .debug$S                   10000000     user32:USER32.dll
 0000:fffcd000       .debug$S                   10000000     user32:USER32.dll
 0000:fffcd000       .debug$S                   10000000     user32:USER32.dll
 0000:fffcd000       .debug$S                   10000000     user32:USER32.dll
 0000:fffcd000       .debug$S                   10000000     user32:USER32.dll
 0000:fffcd000       .debug$S                   10000000     user32:USER32.dll
 0000:fffcd000       .debug$S                   10000000     user32:USER32.dll
 0000:fffcd000       .debug$S                   10000000     user32:USER32.dll
 0000:fffcd000       .debug$S                   10000000     user32:USER32.dll
 0000:fffcd000       .debug$S                   10000000     user32:USER32.dll
 0000:fffcd000       .debug$S                   10000000     user32:USER32.dll
 0000:fffcd000       .debug$S                   10000000     user32:USER32.dll
 0000:fffcd000       .debug$S                   10000000     user32:USER32.dll
 0000:fffcd000       .debug$S                   10000000     user32:USER32.dll
 0000:fffcd000       .debug$S                   10000000     user32:USER32.dll
 0000:fffcd000       .debug$S                   10000000     user32:USER32.dll
 0000:fffcd000       .debug$S                   10000000     user32:USER32.dll
 0000:fffcd000       .debug$S                   10000000     user32:USER32.dll
 0000:fffcd000       .debug$S                   10000000     user32:USER32.dll
 0000:fffcd000       .debug$S                   10000000     user32:USER32.dll
 0000:fffcd000       .debug$S                   10000000     user32:USER32.dll
 0000:fffcd000       .debug$S                   10000000     user32:USER32.dll
 0000:fffcd000       .debug$S                   10000000     user32:USER32.dll
 0000:fffcd000       .debug$S                   10000000     user32:USER32.dll
 0000:fffcd000       .debug$S                   10000000     user32:USER32.dll
 0000:fffcd000       .debug$S                   10000000     user32:USER32.dll
 0000:fffcd000       .debug$S                   10000000     user32:USER32.dll
 0001:00000000       ??__E_AtlComModule@ATL@@YAXXZ 10001000 f   OposVariant.obj
 0001:00000016       ??__E_AtlWinModule@ATL@@YAXXZ 10001016 f   OposVariant.obj
 0001:0000002c       ??__E?pConnMap@?$IConnectionPointContainerImpl@VCOPOSImageScanner@@@ATL@@0PBU_ATL_CONNMAP_ENTRY@2@B@@YAXXZ 1000102c f   ImageScanner.obj
 0001:0000003a       ??__E_Module@@YAXXZ        1000103a f   ImageScanner.obj
 0001:00000064       ??__E_AtlBaseModule@ATL@@YAXXZ 10001064 f   atls:atlbase.obj
 0001:00000ea2       $LN24                      10001ea2     ImageScanner.obj
 0001:000058b0       $LN48                      100068b0     ImageScanner.obj
 0001:000058c8       $LN47                      100068c8     ImageScanner.obj
 0001:00007a75       $LN38                      10008a75     ImageScanner.obj
 0001:00007a8d       $LN37                      10008a8d     ImageScanner.obj
 0001:0000917d       $LN76                      1000a17d     ImageScanner.obj
 0001:00009195       $LN75                      1000a195     ImageScanner.obj
 0001:0000954e       _memcpy_s                  1000a54e f   ImageScanner.obj
 0001:0000b2ff       ?find_pe_section@@YAPAU_IMAGE_SECTION_HEADER@@QAEI@Z 1000c2ff f   LIBCMT:utility.obj
 0001:0000b61e       ?__scrt_initialize_thread_safe_statics@@YAHXZ 1000c61e f   LIBCMT:thread_safe_statics.obj
 0001:0000b645       ?__scrt_initialize_thread_safe_statics_platform_specific@@YAXXZ 1000c645 f   LIBCMT:thread_safe_statics.obj
 0001:0000b6c7       ?__scrt_uninitialize_thread_safe_statics@@YAXXZ 1000c6c7 f   LIBCMT:thread_safe_statics.obj
 0001:0000ba36       __catch$??2@YAPAXIABUnothrow_t@std@@@Z$0 1000ca36 f   LIBCMT:new_scalar_nothrow.obj
 0001:0000ba70       $$000000                   1000ca70     LIBCMT:sehprolg4gs.obj
 0001:0000bad0       $$000000                   1000cad0     LIBCMT:alloca16.obj
 0001:0000bb00       $$000000                   1000cb00     LIBCMT:chkstk.obj
 0001:0000bb2d       ?dllmain_crt_dispatch@@YGHQAUHINSTANCE__@@KQAX@Z 1000cb2d f   LIBCMT:dll_dllmain.obj
 0001:0000bb80       ?dllmain_crt_process_attach@@YAHQAUHINSTANCE__@@QAX@Z 1000cb80 f   LIBCMT:dll_dllmain.obj
 0001:0000bc87       ?dllmain_crt_process_detach@@YAH_N@Z 1000cc87 f   LIBCMT:dll_dllmain.obj
 0001:0000bd37       ?dllmain_dispatch@@YAHQAUHINSTANCE__@@KQAX@Z 1000cd37 f   LIBCMT:dll_dllmain.obj
 0001:0000be42       ?dllmain_raw@@YGHQAUHINSTANCE__@@KQAX@Z 1000ce42 f   LIBCMT:dll_dllmain.obj
 0001:0000c1c0       $$000000                   1000d1c0     LIBCMT:sehprolg4.obj
 0001:0000c21c       ___get_entropy             1000d21c f   LIBCMT:gs_support.obj
 0001:0000c513       ??$GetProcAddressAll@P6GP6GJPAUHWND__@@IIJ@ZPAUAtlThunkData_t@@@Z@@YAP6GP6GJPAUHWND__@@IIJ@ZPAUAtlThunkData_t@@@ZPAP6GP6GJ0IIJ@Z1@Z@Z 1000d513 f   atls:atlthunk.obj
 0001:0000c513       ??$GetProcAddressAll@P6GPAUAtlThunkData_t@@XZ@@YAP6GPAUAtlThunkData_t@@XZPAP6GPAU0@XZ@Z 1000d513 f   atls:atlthunk.obj
 0001:0000c513       ??$GetProcAddressAll@P6GXPAUAtlThunkData_t@@@Z@@YAP6GXPAUAtlThunkData_t@@@ZPAP6GX0@Z@Z 1000d513 f   atls:atlthunk.obj
 0001:0000c513       ??$GetProcAddressAll@P6GXPAUAtlThunkData_t@@PAXI@Z@@YAP6GXPAUAtlThunkData_t@@PAXI@ZPAP6GX01I@Z@Z 1000d513 f   atls:atlthunk.obj
 0001:0000c5c3       ?GetProcAddressSingle@@YA_NPAUHINSTANCE__@@PBDPAPAX@Z 1000d5c3 f   atls:atlthunk.obj
 0001:0000c715       ?__InitializeThunkPool@@YAHXZ 1000d715 f   atls:atlthunk.obj
 0001:0000cb60       _ValidateLocalCookies      1000db60 f   libvcruntime:chandler4.obj
 0001:0000db8a       $LN1250                    1000eb8a     libvcruntime:memcmp.obj
 0001:0000dc10       $$000000                   1000ec10     libvcruntime:memcpy.obj
 0001:0000de74       TrailingUpVec              1000ee74     libvcruntime:memcpy.obj
 0001:0000df20       TrailingDownVec            1000ef20     libvcruntime:memcpy.obj
 0001:0000e190       $$000000                   1000f190     libvcruntime:memset.obj
 0001:0000e793       ?_FilterSetCurrentException@@YAKPAU_EXCEPTION_POINTERS@@E@Z 1000f793 f   libvcruntime:ehhelpers.obj
 0001:0000e9e0       $$000000                   1000f9e0     libvcruntime:memmove.obj
 0001:0000ec44       TrailingUpVec              1000fc44     libvcruntime:memmove.obj
 0001:0000ecf0       TrailingDownVec            1000fcf0     libvcruntime:memmove.obj
 0001:0000ef60       $$000000                   1000ff60     libvcruntime:exsup4.obj
 0001:0000eff0       __unwind_handler4          1000fff0 f   libvcruntime:exsup4.obj
 0001:0000f2cf       ??$BuildCatchObjectHelperInternal@V__FrameHandler3@@@@YAHPAUEHExceptionRecord@@PAXPBU_s_HandlerType@@PBU_s_CatchableType@@@Z 100102cf f   libvcruntime:frame.obj
 0001:0000f40d       ??$BuildCatchObjectInternal@V__FrameHandler3@@@@YAXPAUEHExceptionRecord@@PAXPBU_s_HandlerType@@PBU_s_CatchableType@@@Z 1001040d f   libvcruntime:frame.obj
 0001:0000f4a6       ??$CatchIt@V__FrameHandler3@@@@YAXPAUEHExceptionRecord@@PAUEHRegistrationNode@@PAU_CONTEXT@@PAXPBU_s_FuncInfo@@PBU_s_HandlerType@@PBU_s_CatchableType@@PBU_s_TryBlockMapEntry@@H1EE@Z 100104a6 f   libvcruntime:frame.obj
 0001:0000f526       ??$FindHandler@V__FrameHandler3@@@@YAXPAUEHExceptionRecord@@PAUEHRegistrationNode@@PAU_CONTEXT@@PAXPBU_s_FuncInfo@@EH1@Z 10010526 f   libvcruntime:frame.obj
 0001:0000f8dc       ??$FindHandlerForForeignException@V__FrameHandler3@@@@YAXPAUEHExceptionRecord@@PAUEHRegistrationNode@@PAU_CONTEXT@@PAXPBU_s_FuncInfo@@HH1@Z 100108dc f   libvcruntime:frame.obj
 0001:0000fbf4       ?CallCatchBlock@@YAPAXPAUEHExceptionRecord@@PAUEHRegistrationNode@@PAU_CONTEXT@@PBU_s_FuncInfo@@PAXHK@Z 10010bf4 f   libvcruntime:frame.obj
 0001:0000fdb8       ?CallUnexpected@@YAXPBU_s_ESTypeList@@@Z 10010db8 f   libvcruntime:frame.obj
 0001:0000fdd8       __catch$?CallUnexpected@@YAXPBU_s_ESTypeList@@@Z$0 10010dd8 f   libvcruntime:frame.obj
 0001:0000fdf2       ?ExFilterRethrow@@YAHPAU_EXCEPTION_POINTERS@@@Z 10010df2 f   libvcruntime:frame.obj
 0001:0000ff3c       ?IsInExceptionSpec@@YAEPAUEHExceptionRecord@@PBU_s_ESTypeList@@@Z 10010f3c f   libvcruntime:frame.obj
 0001:00010010       $$000000                   10011010     libvcruntime:lowhelpr.obj
 0001:00010060       $$000000                   10011060     libvcruntime:exsup.obj
 0001:00010081       __unwind_handler           10011081 f   libvcruntime:exsup.obj
 0001:0001019e       ?try_get_first_available_module@@YAPAUHINSTANCE__@@QBW4module_id@?A0x9d0f8d90@@0@Z 1001119e f   libvcruntime:winapi_downlevel.obj
 0001:00010238       ?try_get_function@@YAPAXW4function_id@?A0x9d0f8d90@@QBDQBW4module_id@2@2@Z 10011238 f   libvcruntime:winapi_downlevel.obj
 0001:000108c2       ??$common_tcsncpy_s@_W@@YAHQA_WIQB_WI@Z 100118c2 f   libucrt:wcsncpy_s.obj
 0001:00010998       ??$common_vsprintf@Vformat_validation_base@__crt_stdio_output@@_W@@YAH_KQA_WIQB_WQAU__crt_locale_pointers@@QAD@Z 10011998 f   libucrt:output.obj
 0001:00010b1f       ??$common_vsprintf_s@_W@@YAH_KQA_WIQB_WQAU__crt_locale_pointers@@QAD@Z 10011b1f f   libucrt:output.obj
 0001:00011283       $LN48                      10012283     libucrt:output.obj
 0001:0001178c       $LN18                      1001278c     libucrt:output.obj
 0001:000117a0       $LN17                      100127a0     libucrt:output.obj
 0001:00011ffb       ??$?RV<lambda_03b1d95aef87969028cfba75ccab2455>@@AAV<lambda_6e4b09c48022b2350581041d5f6b0c4c>@@V<lambda_22bdf7517842c4b3e53723af5aa32b9e>@@@?$__crt_seh_guarded_call@X@@QAEX$$QAV<lambda_03b1d95aef87969028cfba75ccab2455>@@AAV<lambda_6e4b09c48022b2350581041d5f6b0c4c>@@$$QAV<lambda_22bdf7517842c4b3e53723af5aa32b9e>@@@Z 10012ffb f   libucrt:exit.obj
 0001:00012048       ??R<lambda_6e4b09c48022b2350581041d5f6b0c4c>@@QBE@XZ 10013048 f   libucrt:exit.obj
 0001:00012122       ?atexit_exception_filter@@YAHK@Z 10013122 f   libucrt:exit.obj
 0001:00012135       ?common_exit@@YAXHW4_crt_exit_cleanup_mode@@W4_crt_exit_return_mode@@@Z 10013135 f   libucrt:exit.obj
 0001:00012199       ?exit_or_terminate_process@@YAXI@Z 10013199 f   libucrt:exit.obj
 0001:000121db       ?is_managed_app@@YA_NXZ    100131db f   libucrt:exit.obj
 0001:0001221e       ?try_cor_exit_process@@YAXI@Z 1001321e f   libucrt:exit.obj
 0001:000122ac       ??$common_configure_argv@D@@YAHW4_crt_argv_mode@@@Z 100132ac f   libucrt:argv_parsing.obj
 0001:000123e2       ??$parse_command_line@D@@YAXPADPAPAD0PAI2@Z 100133e2 f   libucrt:argv_parsing.obj
 0001:000125b0       ??$common_initialize_environment_nolock@D@@YAHXZ 100135b0 f   libucrt:environment_initialization.obj
 0001:00012603       ??$create_environment@D@@YAQAPADQAD@Z 10013603 f   libucrt:environment_initialization.obj
 0001:000126d3       ??$free_environment@D@@YAXQAPAD@Z 100136d3 f   libucrt:environment_initialization.obj
 0001:000126d3       ??$free_environment@_W@@YAXQAPA_W@Z 100136d3 f   libucrt:environment_initialization.obj
 0001:0001272b       ??$uninitialize_environment_internal@D@@YAXAAPAPAD@Z 1001372b f   libucrt:environment_initialization.obj
 0001:00012746       ??$uninitialize_environment_internal@_W@@YAXAAPAPA_W@Z 10013746 f   libucrt:environment_initialization.obj
 0001:0001279d       ??$?RV<lambda_69a2805e680e0e292e8ba93315fe43a8>@@AAV<lambda_f03950bc5685219e0bcd2087efbe011e>@@V<lambda_03fcd07e894ec930e3f35da366ca99d6>@@@?$__crt_seh_guarded_call@H@@QAEH$$QAV<lambda_69a2805e680e0e292e8ba93315fe43a8>@@AAV<lambda_f03950bc5685219e0bcd2087efbe011e>@@$$QAV<lambda_03fcd07e894ec930e3f35da366ca99d6>@@@Z 1001379d f   libucrt:onexit.obj
 0001:000127f8       ??$?RV<lambda_8e746cf0007f6ed984d6f78af1fec997>@@AAV<lambda_22ebabd17bc4fa466a2aca6d8deb888d>@@V<lambda_18ed0c0b38a6dc0daf1e7ac6d6adf05e>@@@?$__crt_seh_guarded_call@H@@QAEH$$QAV<lambda_8e746cf0007f6ed984d6f78af1fec997>@@AAV<lambda_22ebabd17bc4fa466a2aca6d8deb888d>@@$$QAV<lambda_18ed0c0b38a6dc0daf1e7ac6d6adf05e>@@@Z 100137f8 f   libucrt:onexit.obj
 0001:00012872       ??R<lambda_22ebabd17bc4fa466a2aca6d8deb888d>@@QBEHXZ 10013872 f   libucrt:onexit.obj
 0001:0001299b       ??R<lambda_f03950bc5685219e0bcd2087efbe011e>@@QBEHXZ 1001399b f   libucrt:onexit.obj
 0001:00012b14       _initialize_global_variables 10013b14 f   libucrt:initialization.obj
 0001:00012b21       _initialize_c              10013b21 f   libucrt:initialization.obj
 0001:00012b3b       _initialize_environment    10013b3b f   libucrt:initialization.obj
 0001:00012b3b       _initialize_global_state_isolation 10013b3b f   libucrt:initialization.obj
 0001:00012b3b       _report_memory_leaks       10013b3b f   libucrt:initialization.obj
 0001:00012b3b       _uninitialize_c            10013b3b f   libucrt:initialization.obj
 0001:00012b3b       _uninitialize_global_state_isolation 10013b3b f   libucrt:initialization.obj
 0001:00012b3e       _uninitialize_environment  10013b3e f   libucrt:initialization.obj
 0001:00012b46       _initialize_pointers       10013b46 f   libucrt:initialization.obj
 0001:00012b74       _uninitialize_vcruntime    10013b74 f   libucrt:initialization.obj
 0001:00012b7d       _uninitialize_allocated_memory 10013b7d f   libucrt:initialization.obj
 0001:00012b94       _uninitialize_allocated_io_buffers 10013b94 f   libucrt:initialization.obj
 0001:00012be4       ??R<lambda_af42a3ee9806e9a7305d451646e05244>@@QBEXAAPAU__crt_multibyte_data@@@Z 10013be4 f   libucrt:initialization.obj
 0001:000134d0       $$000000                   100144d0     libucrt:strncmp.obj
 0001:000135bc       ??$?RV<lambda_15ade71b0218206bbe3333a0c9b79046>@@AAV<lambda_da44e0f8b0f19ba52fefafb335991732>@@V<lambda_207f2d024fc103971653565357d6cd41>@@@?$__crt_seh_guarded_call@X@@QAEX$$QAV<lambda_15ade71b0218206bbe3333a0c9b79046>@@AAV<lambda_da44e0f8b0f19ba52fefafb335991732>@@$$QAV<lambda_207f2d024fc103971653565357d6cd41>@@@Z 100145bc f   libucrt:per_thread_data.obj
 0001:0001360e       ??$?RV<lambda_38edbb1296d33220d7e4dd0ed76b244a>@@AAV<lambda_5ce1d447e08cb34b2473517608e21441>@@V<lambda_fb385d3da700c9147fc39e65dd577a8c>@@@?$__crt_seh_guarded_call@X@@QAEX$$QAV<lambda_38edbb1296d33220d7e4dd0ed76b244a>@@AAV<lambda_5ce1d447e08cb34b2473517608e21441>@@$$QAV<lambda_fb385d3da700c9147fc39e65dd577a8c>@@@Z 1001460e f   libucrt:per_thread_data.obj
 0001:00013679       ??$?RV<lambda_6affb1475c98b40b75cdec977db92e3c>@@AAV<lambda_b8d4b9c228a6ecc3f80208dbb4b4a104>@@V<lambda_608742c3c92a14382c1684fc64f96c88>@@@?$__crt_seh_guarded_call@X@@QAEX$$QAV<lambda_6affb1475c98b40b75cdec977db92e3c>@@AAV<lambda_b8d4b9c228a6ecc3f80208dbb4b4a104>@@$$QAV<lambda_608742c3c92a14382c1684fc64f96c88>@@@Z 10014679 f   libucrt:per_thread_data.obj
 0001:000136ce       ??$?RV<lambda_a7e850c220f1c8d1e6efeecdedd162c6>@@AAV<lambda_46720907175c18b6c9d2717bc0d2d362>@@V<lambda_9048902d66e8d99359bc9897bbb930a8>@@@?$__crt_seh_guarded_call@X@@QAEX$$QAV<lambda_a7e850c220f1c8d1e6efeecdedd162c6>@@AAV<lambda_46720907175c18b6c9d2717bc0d2d362>@@$$QAV<lambda_9048902d66e8d99359bc9897bbb930a8>@@@Z 100146ce f   libucrt:per_thread_data.obj
 0001:00013728       ?construct_ptd@@YAXQAU__acrt_ptd@@QAPAU__crt_locale_data@@@Z 10014728 f   libucrt:per_thread_data.obj
 0001:000137c1       ?destroy_fls@@YGXPAX@Z     100147c1 f   libucrt:per_thread_data.obj
 0001:000137e2       ?destroy_ptd@@YAXQAU__acrt_ptd@@@Z 100147e2 f   libucrt:per_thread_data.obj
 0001:000138af       ?replace_current_thread_locale_nolock@@YAXQAU__acrt_ptd@@QAU__crt_locale_data@@@Z 100148af f   libucrt:per_thread_data.obj
 0001:00013cbf       ?try_get_AreFileApisANSI@@YAP6GHXZXZ 10014cbf f   libucrt:winapi_thunks.obj
 0001:00013cd9       ?try_get_LCMapStringEx@@YAP6GHPB_WK0HPA_WHPAU_nlsversioninfo@@PAXJ@ZXZ 10014cd9 f   libucrt:winapi_thunks.obj
 0001:00013cf3       ?try_get_LocaleNameToLCID@@YAP6GKPB_WK@ZXZ 10014cf3 f   libucrt:winapi_thunks.obj
 0001:00013d0d       ?try_get_first_available_module@@YAPAUHINSTANCE__@@QBW4module_id@?A0x391cf84c@@0@Z 10014d0d f   libucrt:winapi_thunks.obj
 0001:00013dd4       ?try_get_function@@YAPAXW4function_id@?A0x391cf84c@@QBDQBW4module_id@2@2@Z 10014dd4 f   libucrt:winapi_thunks.obj
 0001:00014537       ?fe_to_nearest@@YA_NQBN_KF@Z 10015537 f   libucrt:cvt.obj
 0001:000145da       ?fp_format_a@@YAHQBNPADIQADIH_NIQAU__crt_locale_pointers@@W4__acrt_rounding_mode@@@Z 100155da f   libucrt:cvt.obj
 0001:000148e9       ?fp_format_e@@YAHQBNQADI1IH_NIQAU__crt_locale_pointers@@W4__acrt_rounding_mode@@@Z 100158e9 f   libucrt:cvt.obj
 0001:00014991       ?fp_format_e_internal@@YAHQADIH_NIQAU_strflt@@1QAU__crt_locale_pointers@@@Z 10015991 f   libucrt:cvt.obj
 0001:00014ad9       ?fp_format_f@@YAHQBNQADI1IHQAU__crt_locale_pointers@@W4__acrt_rounding_mode@@@Z 10015ad9 f   libucrt:cvt.obj
 0001:00014b6a       ?fp_format_f_internal@@YAHQADIHQAU_strflt@@_NQAU__crt_locale_pointers@@@Z 10015b6a f   libucrt:cvt.obj
 0001:00014c62       ?fp_format_g@@YAHQBNQADI1IH_NIQAU__crt_locale_pointers@@@Z 10015c62 f   libucrt:cvt.obj
 0001:00014d2b       ?fp_format_nan_or_infinity@@YAHW4__acrt_fp_class@@_NPADI1@Z 10015d2b f   libucrt:cvt.obj
 0001:00014dc0       ?shift_bytes@@YAXQADI0H@Z  10015dc0 f   libucrt:cvt.obj
 0001:00014df4       ?should_round_up@@YA_NQBN_KFW4__acrt_rounding_mode@@@Z 10015df4 f   libucrt:cvt.obj
 0001:0001515d       ??$?RV<lambda_e5124f882df8998aaf41531e079ba474>@@AAV<lambda_3e16ef9562a7dcce91392c22ab16ea36>@@V<lambda_e25ca0880e6ef98be67edffd8c599615>@@@?$__crt_seh_guarded_call@X@@QAEX$$QAV<lambda_e5124f882df8998aaf41531e079ba474>@@AAV<lambda_3e16ef9562a7dcce91392c22ab16ea36>@@$$QAV<lambda_e25ca0880e6ef98be67edffd8c599615>@@@Z 1001615d f   libucrt:wsetlocale.obj
 0001:000151fd       ?initialize_inherited_file_handles_nolock@@YAXXZ 100161fd f   libucrt:ioinit.obj
 0001:000152b3       ?initialize_stdio_handles_nolock@@YAXXZ 100162b3 f   libucrt:ioinit.obj
 0001:000154c4       ?<lambda_invoker_cdecl>@<lambda_838c7f62c73c983481e27c09e84b0b5d>@@CAHPBX0@Z 100164c4 f   libucrt:argv_wildcards.obj
 0001:000154dc       ??$__acrt_convert_wcs_mbs_cp@D_WV<lambda_62f6974d9771e494a5ea317cc32e971c>@@U__crt_win32_buffer_internal_dynamic_resizing@@@@YAHQBDAAV?$__crt_win32_buffer@_WU__crt_win32_buffer_internal_dynamic_resizing@@@@ABV<lambda_62f6974d9771e494a5ea317cc32e971c>@@I@Z 100164dc f   libucrt:argv_wildcards.obj
 0001:0001558e       ??$__acrt_convert_wcs_mbs_cp@_WDV<lambda_28bda7af82a03b66c1cb3803a755f95d>@@U__crt_win32_buffer_internal_dynamic_resizing@@@@YAHQB_WAAV?$__crt_win32_buffer@DU__crt_win32_buffer_internal_dynamic_resizing@@@@ABV<lambda_28bda7af82a03b66c1cb3803a755f95d>@@I@Z 1001658e f   libucrt:argv_wildcards.obj
 0001:0001567a       ??$common_expand_argv_wildcards@D@@YAHQAPADQAPAPAD@Z 1001667a f   libucrt:argv_wildcards.obj
 0001:00015869       ??$copy_and_add_argument_to_buffer@D@@YAHQBD0IAAV?$argument_list@D@?A0x5f5c8891@@@Z 10016869 f   libucrt:argv_wildcards.obj
 0001:0001591a       ??$expand_argument_wildcards@D@@YAHQAD0AAV?$argument_list@D@?A0x5f5c8891@@@Z 1001691a f   libucrt:argv_wildcards.obj
 0001:00015c64       ?expand_if_necessary@?$argument_list@D@?A0x5f5c8891@@AAEHXZ 10016c64 f   libucrt:argv_wildcards.obj
 0001:00015cf6       ??$__acrt_convert_wcs_mbs_cp@_WDV<lambda_0fec1a7b3f42a53036604e18c2d5e07e>@@U__crt_win32_buffer_no_resizing@@@@YAHQB_WAAV?$__crt_win32_buffer@DU__crt_win32_buffer_no_resizing@@@@ABV<lambda_0fec1a7b3f42a53036604e18c2d5e07e>@@I@Z 10016cf6 f   libucrt:getmodulefilenamea.obj
 0001:00015e99       ??$?RV<lambda_ceb1ee4838e85a9d631eb091e2fbe199>@@AAV<lambda_ae742caa10f662c28703da3d2ea5e57e>@@V<lambda_cd08b5d6af4937fe54fc07d0c9bf6b37>@@@?$__crt_seh_guarded_call@X@@QAEX$$QAV<lambda_ceb1ee4838e85a9d631eb091e2fbe199>@@AAV<lambda_ae742caa10f662c28703da3d2ea5e57e>@@$$QAV<lambda_cd08b5d6af4937fe54fc07d0c9bf6b37>@@@Z 10016e99 f   libucrt:mbctype.obj
 0001:00015ee6       ??R<lambda_ae742caa10f662c28703da3d2ea5e57e>@@QBEXXZ 10016ee6 f   libucrt:mbctype.obj
 0001:00015f69       ?CPtoLocaleName@@YAPB_WH@Z 10016f69 f   libucrt:mbctype.obj
 0001:00015fa7       ?getSystemCP@@YAHH@Z       10016fa7 f   libucrt:mbctype.obj
 0001:00016018       ?setSBCS@@YAXPAU__crt_multibyte_data@@@Z 10017018 f   libucrt:mbctype.obj
 0001:0001607d       ?setSBUpLow@@YAXPAU__crt_multibyte_data@@@Z 1001707d f   libucrt:mbctype.obj
 0001:000161fd       ?setmbcp_internal@@YAHH_NQAU__acrt_ptd@@QAPAU__crt_multibyte_data@@@Z 100171fd f   libucrt:mbctype.obj
 0001:00016311       ?update_thread_multibyte_data_internal@@YAPAU__crt_multibyte_data@@QAU__acrt_ptd@@QAPAU1@@Z 10017311 f   libucrt:mbctype.obj
 0001:000165ff       _memcpy_s                  100175ff f   libucrt:cfout.obj
 0001:000165ff       _memcpy_s                  100175ff f   libucrt:mbctype.obj
 0001:00016680       ?x_ismbbtype_l@@YAHPAU__crt_locale_pointers@@IHH@Z 10017680 f   libucrt:ismbbyte.obj
 0001:0001683b       ?find_end_of_double_null_terminated_sequence@@YAPB_WQB_W@Z 1001783b f   libucrt:get_environment_from_os.obj
 0001:000169aa       ??$?RV<lambda_cbab9ec6f41b0180b23cc171c22676b0>@@AAV<lambda_44731a7d0e6d81c3e6aa82d741081786>@@V<lambda_4b292cb8dd18144e164572427af410ab>@@@?$__crt_seh_guarded_call@P6AXH@Z@@QAEP6AXH@Z$$QAV<lambda_cbab9ec6f41b0180b23cc171c22676b0>@@AAV<lambda_44731a7d0e6d81c3e6aa82d741081786>@@$$QAV<lambda_4b292cb8dd18144e164572427af410ab>@@@Z 100179aa f   libucrt:signal.obj
 0001:00016a0e       ?get_global_action_nolock@@YAPAP6AXH@ZH@Z 10017a0e f   libucrt:signal.obj
 0001:00016a50       ?siglookup@@YAPAU__crt_signal_action_t@@HQAU1@@Z 10017a50 f   libucrt:signal.obj
 0001:00016d09       ??$?RV<lambda_2866be3712abc81a800a822484c830d8>@@AAV<lambda_39ca0ed439415581b5b15c265174cece>@@V<lambda_2b24c74d71094a6cd0cb82e44167d71b>@@@?$__crt_seh_guarded_call@X@@QAEX$$QAV<lambda_2866be3712abc81a800a822484c830d8>@@AAV<lambda_39ca0ed439415581b5b15c265174cece>@@$$QAV<lambda_2b24c74d71094a6cd0cb82e44167d71b>@@@Z 10017d09 f   libucrt:fflush.obj
 0001:00016d95       ??$?RV<lambda_2cc53f568c5a2bb6f192f930a45d44ea>@@AAV<lambda_ab61a845afdef5b7c387490eaf3616ee>@@V<lambda_c2ffc0b7726aa6be21d5f0026187e748>@@@?$__crt_seh_guarded_call@X@@QAEX$$QAV<lambda_2cc53f568c5a2bb6f192f930a45d44ea>@@AAV<lambda_ab61a845afdef5b7c387490eaf3616ee>@@$$QAV<lambda_c2ffc0b7726aa6be21d5f0026187e748>@@@Z 10017d95 f   libucrt:fflush.obj
 0001:00016e41       ?common_flush_all@@YAH_N@Z 10017e41 f   libucrt:fflush.obj
 0001:00016e8e       ?common_flush_all_should_try_to_flush_stream@@YA_NV__crt_stdio_stream@@QAH@Z 10017e8e f   libucrt:fflush.obj
 0001:00016ec1       ?is_stream_flushable_or_commitable@@YA_NJ@Z 10017ec1 f   libucrt:fflush.obj
 0001:000173ca       ?GetTableIndexFromLocaleName@@YAHPB_W@Z 100183ca f   libucrt:lcidtoname_downlevel.obj
 0001:00017480       ??R<lambda_3d301b9e52f5099be73030e1f0bf487e>@@QBEIPBD@Z 10018480 f   libucrt:mbrtowc.obj
 0001:00017606       ?should_round_up@@YA_NQBDHW4__acrt_has_trailing_digits@@W4__acrt_rounding_mode@@@Z 10018606 f   libucrt:_fptostr.obj
 0001:000193a4       ?free_crt_array_internal@@YAXQAPBXI@Z 1001a3a4 f   libucrt:inittime.obj
 0001:00019d6e       ??$common_tcsncpy_s@D@@YAHQADIQBDI@Z 1001ad6e f   libucrt:strncpy_s.obj
 0001:00019e30       $$000000                   1001ae30     libucrt:strpbrk.obj
 0001:00019f14       ?__acrt_LCMapStringA_stat@@YAHPAU__crt_locale_pointers@@PB_WKPBDHPADHHH@Z 1001af14 f   libucrt:lcmapstringa.obj
 0001:0001a147       ?initialize_multibyte@@YAHXZ 1001b147 f   libucrt:multibyte_initializer.obj
 0001:0001a156       ??$?RV<lambda_9e9de3de5fa147e2223d7db92bc10aa6>@@AAV<lambda_38ce7e780aa69e748d6df282ebc68efe>@@V<lambda_8ca6da459f0f6780f1cff60fdc3d00e5>@@@?$__crt_seh_guarded_call@H@@QAEH$$QAV<lambda_9e9de3de5fa147e2223d7db92bc10aa6>@@AAV<lambda_38ce7e780aa69e748d6df282ebc68efe>@@$$QAV<lambda_8ca6da459f0f6780f1cff60fdc3d00e5>@@@Z 1001b156 f   libucrt:commit.obj
 0001:0001a275       ?write_double_translated_ansi_nolock@@YA?AUwrite_result@?A0x17268360@@HQBDI@Z 1001b275 f   libucrt:write.obj
 0001:0001a621       ?write_double_translated_unicode_nolock@@YA?AUwrite_result@?A0x17268360@@QBDI@Z 1001b621 f   libucrt:write.obj
 0001:0001a689       ?write_requires_double_translation_nolock@@YA_NH@Z 1001b689 f   libucrt:write.obj
 0001:0001a6fa       ?write_text_ansi_nolock@@YA?AUwrite_result@?A0x17268360@@HQBDI@Z 1001b6fa f   libucrt:write.obj
 0001:0001a7d5       ?write_text_utf16le_nolock@@YA?AUwrite_result@?A0x17268360@@HQBDI@Z 1001b7d5 f   libucrt:write.obj
 0001:0001a8be       ?write_text_utf8_nolock@@YA?AUwrite_result@?A0x17268360@@HQBDI@Z 1001b8be f   libucrt:write.obj
 0001:0001afe0       $$000000                   1001bfe0     libucrt:log10_impl.obj
 0001:0001b0f0       $$000000                   1001c0f0     libucrt:ceil_pentium4.obj
 0001:0001b20d       ?to_abstract_control@@YA?AW4__acrt_fenv_abstract_control@@W4__acrt_fenv_machine_sse_control@@@Z 1001c20d f   libucrt:_fenvutils.obj
 0001:0001b2c9       ?to_abstract_control@@YA?AW4__acrt_fenv_abstract_control@@W4__acrt_fenv_machine_x87_control@@@Z 1001c2c9 f   libucrt:_fenvutils.obj
 0001:0001b382       ?to_machine_sse_control@@YA?AW4__acrt_fenv_machine_sse_control@@W4__acrt_fenv_abstract_control@@@Z 1001c382 f   libucrt:_fenvutils.obj
 0001:0001b44f       ?to_machine_x87_control@@YA?AW4__acrt_fenv_machine_x87_control@@W4__acrt_fenv_abstract_control@@@Z 1001c44f f   libucrt:_fenvutils.obj
 0001:0001b7e3       ??$common_lseek_nolock@_J@@YA_JH_JH@Z 1001c7e3 f   libucrt:lseek.obj
 0001:0001b9c9       ___hw_cw_sse2              1001c9c9 f   libucrt:ieee87.obj
 0001:0001be4f       __hw_cw                    1001ce4f f   libucrt:ieee87.obj
 0001:0001bf00       $$000000                   1001cf00     libucrt:log10_pentium4.obj
 0001:0001c190       $$000000                   1001d190     libucrt:87tran.obj
 0001:0001c3a0       $$000000                   1001d3a0     libucrt:87disp.obj
 0001:0001c600       $$000000                   1001d600     libucrt:common.obj
 0001:0001c790       $$000000                   1001d790     libucrt:genexcep.obj
 0001:0001ca8c       ??$?RV<lambda_218ce3db14220d0be481dae8ef3383b6>@@AAV<lambda_628dfdc04ba53c8bfc02c9951375f3f5>@@V<lambda_57dc472bd5c9d5f3b2cbca59b8a843ae>@@@?$__crt_seh_guarded_call@H@@QAEH$$QAV<lambda_218ce3db14220d0be481dae8ef3383b6>@@AAV<lambda_628dfdc04ba53c8bfc02c9951375f3f5>@@$$QAV<lambda_57dc472bd5c9d5f3b2cbca59b8a843ae>@@@Z 1001da8c f   libucrt:close.obj
 0001:0001cc80       $$000000                   1001dc80     libucrt:_strnicm.obj
 0001:0001cce1       ?__dcrt_lowio_initialize_console_output@@YAXXZ 1001dce1 f   libucrt:initcon.obj
 0001:0001dbc0       $$000000                   1001ebc0     LIBCMT:ulldvrm.obj
 0001:0001dc60       $$000000                   1001ec60     LIBCMT:llmul.obj
 0001:0001dca0       $$000000                   1001eca0     LIBCMT:lldvrm.obj
 0001:0001dd80       $$000000                   1001ed80     LIBCMT:llshl.obj
 0001:0001dda0       $$000000                   1001eda0     LIBCMT:ullshr.obj
 0001:0001ddc0       $$000000                   1001edc0     LIBCMT:ftol2.obj
 0001:0001e060       $$000000                   1001f060     libvcruntime:strrchr.obj
 0001:0001e1a0       $$000000                   1001f1a0     libvcruntime:strchr.obj
 0001:0001e343       __ehhandler$??2@YAPAXIABUnothrow_t@std@@@Z 1001f343 f   LIBCMT:new_scalar_nothrow.obj
 0001:0001e35e       __ehhandler$?CallUnexpected@@YAXPBU_s_ESTypeList@@@Z 1001f35e f   libvcruntime:frame.obj
 0001:0001e379       ??__F_AtlComModule@ATL@@YAXXZ 1001f379 f   OposVariant.obj
 0001:0001e383       ??__F_AtlWinModule@ATL@@YAXXZ 1001f383 f   OposVariant.obj
 0001:0001e39d       ??__F_Module@@YAXXZ        1001f39d f   ImageScanner.obj
 0001:0001e3b1       ??__F_AtlBaseModule@ATL@@YAXXZ 1001f3b1 f   atls:atlbase.obj
 0002:00000304       ?_AtlBaseModule$initializer$@ATL@@3P6AXXZA 10020304     atls:atlbase.obj
 0002:00000308       ?_AtlComModule$initializer$@ATL@@3P6AXXZA 10020308     OposVariant.obj
 0002:0000030c       ?_AtlWinModule$initializer$@ATL@@3P6AXXZA 1002030c     OposVariant.obj
 0002:00000310       ?_Module$initializer$@@3P6AXXZA 10020310     ImageScanner.obj
 0002:00000314       ??pConnMap$initializer$@?$IConnectionPointContainerImpl@VCOPOSImageScanner@@@ATL@@0P6AXXZA@@3P6AXXZA 10020314     ImageScanner.obj
 0002:00000320       ?__scrt_initialize_tss_var@@3P6AHXZA 10020320     LIBCMT:thread_safe_statics.obj
 0002:00001878       _GS_ExceptionPointers      10021878     LIBCMT:gs_report.obj
 0002:00001a08       ?tokenTable@@3QBUStringLiteral@@B 10021a08     libvcruntime:undname.obj
 0002:00001a88       ?nameTable@@3QBUStringLiteral@@B 10021a88     libvcruntime:undname.obj
 0002:00001d20       ?rttiTable@@3QBUStringLiteral@@B 10021d20     libvcruntime:undname.obj
 0002:00001d48       ?IndirectionName@@3QBUStringLiteral@@B 10021d48     libvcruntime:undname.obj
 0002:00001d78       ?PrefixName@@3QBUStringLiteral@@B 10021d78     libvcruntime:undname.obj
 0002:000023a8       ?module_names@?A0x9d0f8d90@@3QBQB_WB 100223a8     libvcruntime:winapi_downlevel.obj
 0002:00002450       ?candidate_modules@?1??try_get_FlsAlloc@@YAP6GKP6GXPAX@Z@ZXZ@4QBW4module_id@?A0x9d0f8d90@@B 10022450     libvcruntime:winapi_downlevel.obj
 0002:00002464       ?candidate_modules@?1??try_get_FlsFree@@YAP6GHK@ZXZ@4QBW4module_id@?A0x9d0f8d90@@B 10022464     libvcruntime:winapi_downlevel.obj
 0002:00002474       ?candidate_modules@?1??try_get_FlsGetValue@@YAP6GPAXK@ZXZ@4QBW4module_id@?A0x9d0f8d90@@B 10022474     libvcruntime:winapi_downlevel.obj
 0002:00002488       ?candidate_modules@?1??try_get_FlsSetValue@@YAP6GHKPAX@ZXZ@4QBW4module_id@?A0x9d0f8d90@@B 10022488     libvcruntime:winapi_downlevel.obj
 0002:0000249c       ?candidate_modules@?1??try_get_InitializeCriticalSectionEx@@YAP6GHPAU_RTL_CRITICAL_SECTION@@KK@ZXZ@4QBW4module_id@?A0x9d0f8d90@@B 1002249c     libvcruntime:winapi_downlevel.obj
 0002:000024c0       ?errtable@@3QBUerrentry@?A0x31fdb9ec@@B 100224c0     libucrt:errno.obj
 0002:00002b08       ___acrt_initializers       10022b08     libucrt:initialization.obj
 0002:00002b88       ?module_names@?A0x391cf84c@@3QBQB_WB 10022b88     libucrt:winapi_thunks.obj
 0002:00003000       ?candidate_modules@?1??try_get_AreFileApisANSI@@YAP6GHXZXZ@4QBW4module_id@?A0x391cf84c@@B 10023000     libucrt:winapi_thunks.obj
 0002:00003014       ?candidate_modules@?1??try_get_FlsAlloc@@YAP6GKP6GXPAX@Z@ZXZ@4QBW4module_id@?A0x391cf84c@@B 10023014     libucrt:winapi_thunks.obj
 0002:0000301c       ?candidate_modules@?1??try_get_FlsFree@@YAP6GHK@ZXZ@4QBW4module_id@?A0x391cf84c@@B 1002301c     libucrt:winapi_thunks.obj
 0002:00003024       ?candidate_modules@?1??try_get_FlsGetValue@@YAP6GPAXK@ZXZ@4QBW4module_id@?A0x391cf84c@@B 10023024     libucrt:winapi_thunks.obj
 0002:0000302c       ?candidate_modules@?1??try_get_FlsSetValue@@YAP6GHKPAX@ZXZ@4QBW4module_id@?A0x391cf84c@@B 1002302c     libucrt:winapi_thunks.obj
 0002:00003034       ?candidate_modules@?1??try_get_InitializeCriticalSectionEx@@YAP6GHPAU_RTL_CRITICAL_SECTION@@KK@ZXZ@4QBW4module_id@?A0x391cf84c@@B 10023034     libucrt:winapi_thunks.obj
 0002:0000303c       ?candidate_modules@?1??try_get_LCMapStringEx@@YAP6GHPB_WK0HPA_WHPAU_nlsversioninfo@@PAXJ@ZXZ@4QBW4module_id@?A0x391cf84c@@B 1002303c     libucrt:winapi_thunks.obj
 0002:00003054       ?candidate_modules@?1??try_get_LocaleNameToLCID@@YAP6GKPB_WK@ZXZ@4QBW4module_id@?A0x391cf84c@@B 10023054     libucrt:winapi_thunks.obj
 0002:00003070       ?candidate_modules@?1??try_get_AppPolicyGetProcessTerminationMethod@@YAP6GJPAXPAW4AppPolicyProcessTerminationMethod@@@ZXZ@4QBW4module_id@?A0x391cf84c@@B 10023070     libucrt:winapi_thunks.obj
 0002:0000309c       ?candidate_modules@?1??try_get_SetThreadStackGuarantee@@YAP6GHPAK@ZXZ@4QBW4module_id@?A0x391cf84c@@B 1002309c     libucrt:winapi_thunks.obj
 0002:000030c0       ?strings@?1??fp_format_nan_or_infinity@@YAHW4__acrt_fp_class@@_NPADI1@Z@4QAY03QBDA 100230c0     libucrt:cvt.obj
 0002:00003608       ?_mb_locale_names@@3QBQB_WB 10023608     libucrt:mbctype.obj
 0002:00003e50       ?LcidToLocaleNameTable@?A0x881e4c05@@3QBULcidToLocaleName@1@B 10023e50     libucrt:lcidtoname_downlevel.obj
 0002:00004f78       ?LocaleNameToIndexTable@?A0x881e4c05@@3QBULocaleNameIndex@1@B 10024f78     libucrt:lcidtoname_downlevel.obj
 0002:000068b0       LOG_name                   100268b0     libucrt:log10_impl.obj
 0002:000068c0       _One                       100268c0     libucrt:ceil_pentium4.obj
 0002:000068d0       _Bns                       100268d0     libucrt:ceil_pentium4.obj
 0002:000068e0       _Zero                      100268e0     libucrt:ceil_pentium4.obj
 0002:000068f0       _S                         100268f0     libucrt:ceil_pentium4.obj
 0002:00006900       _NegZero                   10026900     libucrt:ceil_pentium4.obj
 0002:00006910       emask                      10026910     libucrt:log10_pentium4.obj
 0002:00006920       CC                         10026920     libucrt:log10_pentium4.obj
 0002:00006930       Magic                      10026930     libucrt:log10_pentium4.obj
 0002:00006940       hi_mask                    10026940     libucrt:log10_pentium4.obj
 0002:00006950       LOG10_2                    10026950     libucrt:log10_pentium4.obj
 0002:00006960       place_L                    10026960     libucrt:log10_pentium4.obj
 0002:00006980       One                        10026980     libucrt:log10_pentium4.obj
 0002:00006990       Zero                       10026990     libucrt:log10_pentium4.obj
 0002:000069a0       Two52                      100269a0     libucrt:log10_pentium4.obj
 0002:000069b0       Infs                       100269b0     libucrt:log10_pentium4.obj
 0002:000069c0       NaN                        100269c0     libucrt:log10_pentium4.obj
 0002:000069d0       coeff                      100269d0     libucrt:log10_pentium4.obj
 0002:00006a2e       _log2max                   10026a2e     libucrt:87tran.obj
 0002:00006a38       _smallarg                  10026a38     libucrt:87tran.obj
 0002:00006a42       _half                      10026a42     libucrt:87tran.obj
 0002:00006a8e       One                        10026a8e     libucrt:87disp.obj
 0002:00006a96       Three                      10026a96     libucrt:87disp.obj
 0002:00006a9e       XAMtoTagTab                10026a9e     libucrt:87disp.obj
 0002:00006ab0       One                        10026ab0     libucrt:common.obj
 0002:00006ac4       DblMax                     10026ac4     libucrt:common.obj
 0002:00006acc       DblMin                     10026acc     libucrt:common.obj
 0002:00006ad4       IeeeAdjO                   10026ad4     libucrt:common.obj
 0002:00006adc       IeeeAdjU                   10026adc     libucrt:common.obj
 0002:00006ae4       _infinity                  10026ae4     libucrt:common.obj
 0002:00006aec       _zero                      10026aec     libucrt:common.obj
 0002:00006b38       _over                      10026b38     libucrt:fpctrl.obj
 0002:00006b44       _under                     10026b44     libucrt:fpctrl.obj
 0002:00007378       ?_names@?1??_get_fname@@9@9 10027378     libucrt:fpexcept.obj
 0002:00007520       two32                      10027520     LIBCMT:ftol2.obj
 0002:00007524       two63                      10027524     LIBCMT:ftol2.obj
 0002:00007528       _NaN                       10027528     LIBCMT:ftol2.obj
 0002:00007be0       __sehtable$?_AtlVerifyStackAvailable@_ATL_SAFE_ALLOCA_IMPL@ATL@@YA_NK@Z 10027be0     ImageScanner.obj
 0002:00007c00       __sehtable$___scrt_is_nonwritable_in_current_image 10027c00     LIBCMT:utility.obj
 0002:00007c1c       __catchsym$??2@YAPAXIABUnothrow_t@std@@@Z$2 10027c1c     LIBCMT:new_scalar_nothrow.obj
 0002:00007c2c       __unwindtable$??2@YAPAXIABUnothrow_t@std@@@Z 10027c2c     LIBCMT:new_scalar_nothrow.obj
 0002:00007c3c       __tryblocktable$??2@YAPAXIABUnothrow_t@std@@@Z 10027c3c     LIBCMT:new_scalar_nothrow.obj
 0002:00007c50       __ehfuncinfo$??2@YAPAXIABUnothrow_t@std@@@Z 10027c50     LIBCMT:new_scalar_nothrow.obj
 0002:00007c78       __sehtable$?dllmain_crt_process_attach@@YAHQAUHINSTANCE__@@QAX@Z 10027c78     LIBCMT:dll_dllmain.obj
 0002:00007c98       __sehtable$?dllmain_crt_process_detach@@YAH_N@Z 10027c98     LIBCMT:dll_dllmain.obj
 0002:00007cc0       __sehtable$?dllmain_dispatch@@YAHQAUHINSTANCE__@@KQAX@Z 10027cc0     LIBCMT:dll_dllmain.obj
 0002:00007d70       __sehtable$___DestructExceptionObject 10027d70     libvcruntime:ehhelpers.obj
 0002:00007d90       __sehtable$?FrameUnwindToState@__FrameHandler3@@SAXPAUEHRegistrationNode@@PAXPBU_s_FuncInfo@@H@Z 10027d90     libvcruntime:frame.obj
 0002:00007db8       __sehtable$?CallCatchBlock@@YAPAXPAUEHExceptionRecord@@PAUEHRegistrationNode@@PAU_CONTEXT@@PBU_s_FuncInfo@@PAXHK@Z 10027db8     libvcruntime:frame.obj
 0002:00007de0       __catchsym$?CallUnexpected@@YAXPBU_s_ESTypeList@@@Z$2 10027de0     libvcruntime:frame.obj
 0002:00007df0       __unwindtable$?CallUnexpected@@YAXPBU_s_ESTypeList@@@Z 10027df0     libvcruntime:frame.obj
 0002:00007e00       __tryblocktable$?CallUnexpected@@YAXPBU_s_ESTypeList@@@Z 10027e00     libvcruntime:frame.obj
 0002:00007e14       __ehfuncinfo$?CallUnexpected@@YAXPBU_s_ESTypeList@@@Z 10027e14     libvcruntime:frame.obj
 0002:00007e38       __sehtable$??$BuildCatchObjectHelperInternal@V__FrameHandler3@@@@YAHPAUEHExceptionRecord@@PAXPBU_s_HandlerType@@PBU_s_CatchableType@@@Z 10027e38     libvcruntime:frame.obj
 0002:00007e58       __sehtable$??$BuildCatchObjectInternal@V__FrameHandler3@@@@YAXPAUEHExceptionRecord@@PAXPBU_s_HandlerType@@PBU_s_CatchableType@@@Z 10027e58     libvcruntime:frame.obj
 0002:00007eb0       __sehtable$??R<lambda_6e4b09c48022b2350581041d5f6b0c4c>@@QBE@XZ 10027eb0     libucrt:exit.obj
 0002:00007ed0       __sehtable$??$?RV<lambda_03b1d95aef87969028cfba75ccab2455>@@AAV<lambda_6e4b09c48022b2350581041d5f6b0c4c>@@V<lambda_22bdf7517842c4b3e53723af5aa32b9e>@@@?$__crt_seh_guarded_call@X@@QAEX$$QAV<lambda_03b1d95aef87969028cfba75ccab2455>@@AAV<lambda_6e4b09c48022b2350581041d5f6b0c4c>@@$$QAV<lambda_22bdf7517842c4b3e53723af5aa32b9e>@@@Z 10027ed0     libucrt:exit.obj
 0002:00007ef0       __sehtable$??$?RV<lambda_8e746cf0007f6ed984d6f78af1fec997>@@AAV<lambda_22ebabd17bc4fa466a2aca6d8deb888d>@@V<lambda_18ed0c0b38a6dc0daf1e7ac6d6adf05e>@@@?$__crt_seh_guarded_call@H@@QAEH$$QAV<lambda_8e746cf0007f6ed984d6f78af1fec997>@@AAV<lambda_22ebabd17bc4fa466a2aca6d8deb888d>@@$$QAV<lambda_18ed0c0b38a6dc0daf1e7ac6d6adf05e>@@@Z 10027ef0     libucrt:onexit.obj
 0002:00007f10       __sehtable$??$?RV<lambda_69a2805e680e0e292e8ba93315fe43a8>@@AAV<lambda_f03950bc5685219e0bcd2087efbe011e>@@V<lambda_03fcd07e894ec930e3f35da366ca99d6>@@@?$__crt_seh_guarded_call@H@@QAEH$$QAV<lambda_69a2805e680e0e292e8ba93315fe43a8>@@AAV<lambda_f03950bc5685219e0bcd2087efbe011e>@@$$QAV<lambda_03fcd07e894ec930e3f35da366ca99d6>@@@Z 10027f10     libucrt:onexit.obj
 0002:00007f30       __sehtable$__query_new_handler 10027f30     libucrt:new_handler.obj
 0002:00007f50       __sehtable$_terminate      10027f50     libucrt:terminate.obj
 0002:00007f70       __sehtable$??$?RV<lambda_15ade71b0218206bbe3333a0c9b79046>@@AAV<lambda_da44e0f8b0f19ba52fefafb335991732>@@V<lambda_207f2d024fc103971653565357d6cd41>@@@?$__crt_seh_guarded_call@X@@QAEX$$QAV<lambda_15ade71b0218206bbe3333a0c9b79046>@@AAV<lambda_da44e0f8b0f19ba52fefafb335991732>@@$$QAV<lambda_207f2d024fc103971653565357d6cd41>@@@Z 10027f70     libucrt:per_thread_data.obj
 0002:00007f90       __sehtable$??$?RV<lambda_a7e850c220f1c8d1e6efeecdedd162c6>@@AAV<lambda_46720907175c18b6c9d2717bc0d2d362>@@V<lambda_9048902d66e8d99359bc9897bbb930a8>@@@?$__crt_seh_guarded_call@X@@QAEX$$QAV<lambda_a7e850c220f1c8d1e6efeecdedd162c6>@@AAV<lambda_46720907175c18b6c9d2717bc0d2d362>@@$$QAV<lambda_9048902d66e8d99359bc9897bbb930a8>@@@Z 10027f90     libucrt:per_thread_data.obj
 0002:00007fb0       __sehtable$??$?RV<lambda_38edbb1296d33220d7e4dd0ed76b244a>@@AAV<lambda_5ce1d447e08cb34b2473517608e21441>@@V<lambda_fb385d3da700c9147fc39e65dd577a8c>@@@?$__crt_seh_guarded_call@X@@QAEX$$QAV<lambda_38edbb1296d33220d7e4dd0ed76b244a>@@AAV<lambda_5ce1d447e08cb34b2473517608e21441>@@$$QAV<lambda_fb385d3da700c9147fc39e65dd577a8c>@@@Z 10027fb0     libucrt:per_thread_data.obj
 0002:00007fd0       __sehtable$??$?RV<lambda_6affb1475c98b40b75cdec977db92e3c>@@AAV<lambda_b8d4b9c228a6ecc3f80208dbb4b4a104>@@V<lambda_608742c3c92a14382c1684fc64f96c88>@@@?$__crt_seh_guarded_call@X@@QAEX$$QAV<lambda_6affb1475c98b40b75cdec977db92e3c>@@AAV<lambda_b8d4b9c228a6ecc3f80208dbb4b4a104>@@$$QAV<lambda_608742c3c92a14382c1684fc64f96c88>@@@Z 10027fd0     libucrt:per_thread_data.obj
 0002:00007ff0       __sehtable$??$?RV<lambda_e5124f882df8998aaf41531e079ba474>@@AAV<lambda_3e16ef9562a7dcce91392c22ab16ea36>@@V<lambda_e25ca0880e6ef98be67edffd8c599615>@@@?$__crt_seh_guarded_call@X@@QAEX$$QAV<lambda_e5124f882df8998aaf41531e079ba474>@@AAV<lambda_3e16ef9562a7dcce91392c22ab16ea36>@@$$QAV<lambda_e25ca0880e6ef98be67edffd8c599615>@@@Z 10027ff0     libucrt:wsetlocale.obj
 0002:00008010       __sehtable$___acrt_initialize_lowio 10028010     libucrt:ioinit.obj
 0002:00008030       __sehtable$?update_thread_multibyte_data_internal@@YAPAU__crt_multibyte_data@@QAU__acrt_ptd@@QAPAU1@@Z 10028030     libucrt:mbctype.obj
 0002:00008050       __sehtable$??$?RV<lambda_ceb1ee4838e85a9d631eb091e2fbe199>@@AAV<lambda_ae742caa10f662c28703da3d2ea5e57e>@@V<lambda_cd08b5d6af4937fe54fc07d0c9bf6b37>@@@?$__crt_seh_guarded_call@X@@QAEX$$QAV<lambda_ceb1ee4838e85a9d631eb091e2fbe199>@@AAV<lambda_ae742caa10f662c28703da3d2ea5e57e>@@$$QAV<lambda_cd08b5d6af4937fe54fc07d0c9bf6b37>@@@Z 10028050     libucrt:mbctype.obj
 0002:00008070       __sehtable$_raise          10028070     libucrt:signal.obj
 0002:00008090       __sehtable$??$?RV<lambda_cbab9ec6f41b0180b23cc171c22676b0>@@AAV<lambda_44731a7d0e6d81c3e6aa82d741081786>@@V<lambda_4b292cb8dd18144e164572427af410ab>@@@?$__crt_seh_guarded_call@P6AXH@Z@@QAEP6AXH@Z$$QAV<lambda_cbab9ec6f41b0180b23cc171c22676b0>@@AAV<lambda_44731a7d0e6d81c3e6aa82d741081786>@@$$QAV<lambda_4b292cb8dd18144e164572427af410ab>@@@Z 10028090     libucrt:signal.obj
 0002:000080b0       __sehtable$??$?RV<lambda_2866be3712abc81a800a822484c830d8>@@AAV<lambda_39ca0ed439415581b5b15c265174cece>@@V<lambda_2b24c74d71094a6cd0cb82e44167d71b>@@@?$__crt_seh_guarded_call@X@@QAEX$$QAV<lambda_2866be3712abc81a800a822484c830d8>@@AAV<lambda_39ca0ed439415581b5b15c265174cece>@@$$QAV<lambda_2b24c74d71094a6cd0cb82e44167d71b>@@@Z 100280b0     libucrt:fflush.obj
 0002:000080d0       __sehtable$??$?RV<lambda_2cc53f568c5a2bb6f192f930a45d44ea>@@AAV<lambda_ab61a845afdef5b7c387490eaf3616ee>@@V<lambda_c2ffc0b7726aa6be21d5f0026187e748>@@@?$__crt_seh_guarded_call@X@@QAEX$$QAV<lambda_2cc53f568c5a2bb6f192f930a45d44ea>@@AAV<lambda_ab61a845afdef5b7c387490eaf3616ee>@@$$QAV<lambda_c2ffc0b7726aa6be21d5f0026187e748>@@@Z 100280d0     libucrt:fflush.obj
 0002:000080f0       __sehtable$___acrt_update_thread_locale_data 100280f0     libucrt:locale_refcounting.obj
 0002:00008110       __sehtable$__fcloseall     10028110     libucrt:closeall.obj
 0002:00008130       __sehtable$___acrt_lowio_ensure_fh_exists 10028130     libucrt:osfinfo.obj
 0002:00008150       __sehtable$??$?RV<lambda_9e9de3de5fa147e2223d7db92bc10aa6>@@AAV<lambda_38ce7e780aa69e748d6df282ebc68efe>@@V<lambda_8ca6da459f0f6780f1cff60fdc3d00e5>@@@?$__crt_seh_guarded_call@H@@QAEH$$QAV<lambda_9e9de3de5fa147e2223d7db92bc10aa6>@@AAV<lambda_38ce7e780aa69e748d6df282ebc68efe>@@$$QAV<lambda_8ca6da459f0f6780f1cff60fdc3d00e5>@@@Z 10028150     libucrt:commit.obj
 0002:00008170       __sehtable$__write         10028170     libucrt:write.obj
 0002:00008190       __sehtable$_fclose         10028190     libucrt:fclose.obj
 0002:000081b0       __sehtable$??$?RV<lambda_218ce3db14220d0be481dae8ef3383b6>@@AAV<lambda_628dfdc04ba53c8bfc02c9951375f3f5>@@V<lambda_57dc472bd5c9d5f3b2cbca59b8a843ae>@@@?$__crt_seh_guarded_call@H@@QAEH$$QAV<lambda_218ce3db14220d0be481dae8ef3383b6>@@AAV<lambda_628dfdc04ba53c8bfc02c9951375f3f5>@@$$QAV<lambda_57dc472bd5c9d5f3b2cbca59b8a843ae>@@@Z 100281b0     libucrt:close.obj
 0002:000081d0       __sehtable$___set_fpsr_sse2 100281d0     libucrt:fpctrl.obj
 0002:000081f0       __sehtable$__IsNonwritableInCurrentImage 100281f0     LIBCMT:pesect.obj
 0002:00008220       .edata                     10028220     OPOSImageScanner.exp
 0002:00008248       rgpv                       10028248     OPOSImageScanner.exp
 0002:00008258       rgszName                   10028258     OPOSImageScanner.exp
 0002:00008268       rgwOrd                     10028268     OPOSImageScanner.exp
 0002:00008270       szName                     10028270     OPOSImageScanner.exp
 0002:00008285       $N00001                    10028285     OPOSImageScanner.exp
 0002:00008295       $N00002                    10028295     OPOSImageScanner.exp
 0002:000082a7       $N00003                    100282a7     OPOSImageScanner.exp
 0002:000082b9       $N00004                    100282b9     OPOSImageScanner.exp
 0002:000088ca       .idata$6                   100288ca     kernel32:KERNEL32.dll
 0002:00008ade       .idata$6                   10028ade     user32:USER32.dll
 0002:00008c12       .idata$6                   10028c12     gdi32:GDI32.dll
 0002:00008cb8       .idata$6                   10028cb8     advapi32:ADVAPI32.dll
 0002:00008dd4       .idata$6                   10028dd4     ole32:ole32.dll
 0002:00008dde       .idata$6                   10028dde     oleaut32:OLEAUT32.dll
 0003:00000110       ?ObjectMap@@3PAU_ATL_OBJMAP_ENTRY30@ATL@@A 1002a110     ImageScanner.obj
 0003:000001d0       ?s_SOMethodNames@@3PAPADA  1002a1d0     ImageScannerImpl.obj
 0003:00000224       ?s_RequiredMethodsPerRelease@@3PAHA 1002a224     ImageScannerImpl.obj
 0003:00000240       ?__vcrt_flsindex@@3KA      1002a240     libvcruntime:per_thread_data.obj
 0003:00000260       ?errno_no_memory@@3HA      1002a260     libucrt:errno.obj
 0003:00000264       ?doserrno_no_memory@@3KA   1002a264     libucrt:errno.obj
 0003:00000270       ?__acrt_flsindex@@3KA      1002a270     libucrt:per_thread_data.obj
 0003:00000608       __mbctypes                 1002a608     libucrt:mbctype.obj
 0003:00000710       __mbcasemaps               1002a710     libucrt:mbctype.obj
 0003:00000810       ?__rgctypeflag@@3PADA      1002a810     libucrt:mbctype.obj
 0003:00000818       ?__rgcode_page_info@@3PAUcode_page_info@@A 1002a818     libucrt:mbctype.obj
 0003:00000a70       ?__dcrt_lowio_console_output_handle@@3PAXA 1002aa70     libucrt:initcon.obj
 0003:00000a74       ?__DAZ_ENABLED@?1??__set_fpsr_sse2@@9@9 1002aa74     libucrt:fpctrl.obj
 0003:00000c08       ?is_initialized_as_dll@@3_NA 1002ac08     LIBCMT:utility.obj
 0003:00000c09       ?module_local_atexit_table_initialized@@3_NA 1002ac09     LIBCMT:utility.obj
 0003:00000c0c       ?module_local_atexit_table@@3U_onexit_table_t@@A 1002ac0c     LIBCMT:utility.obj
 0003:00000c18       ?module_local_at_quick_exit_table@@3U_onexit_table_t@@A 1002ac18     LIBCMT:utility.obj
 0003:00000c24       ?g_tss_cv@@3U_RTL_CONDITION_VARIABLE@@A 1002ac24     LIBCMT:thread_safe_statics.obj
 0003:00000c28       ?g_tss_event@@3PAXA        1002ac28     LIBCMT:thread_safe_statics.obj
 0003:00000c2c       ?g_tss_mutex@@3U_RTL_CRITICAL_SECTION@@A 1002ac2c     LIBCMT:thread_safe_statics.obj
 0003:00000c44       ?g_sleep_condition_variable_cs@@3P6GHPAU_RTL_CONDITION_VARIABLE@@PAU_RTL_CRITICAL_SECTION@@K@ZA 1002ac44     LIBCMT:thread_safe_statics.obj
 0003:00000c48       ?g_wake_all_condition_variable@@3P6GXPAU_RTL_CONDITION_VARIABLE@@@ZA 1002ac48     LIBCMT:thread_safe_statics.obj
 0003:00000c50       _GS_ExceptionRecord        1002ac50     LIBCMT:gs_report.obj
 0003:00000ca0       _GS_ContextRecord          1002aca0     LIBCMT:gs_report.obj
 0003:00000f70       ?__proc_attached@@3HA      1002af70     LIBCMT:dll_dllmain.obj
 0003:00000fcc       ?AllocateData@@3P6GPAUAtlThunkData_t@@XZA 1002afcc     atls:atlthunk.obj
 0003:00000fd0       ?InitData@@3P6GXPAUAtlThunkData_t@@PAXI@ZA 1002afd0     atls:atlthunk.obj
 0003:00000fd4       ?DataToCode@@3P6GP6GJPAUHWND__@@IIJ@ZPAUAtlThunkData_t@@@ZA 1002afd4     atls:atlthunk.obj
 0003:00000fd8       ?FreeData@@3P6GXPAUAtlThunkData_t@@@ZA 1002afd8     atls:atlthunk.obj
 0003:00000fdc       ?Initialized@@3_NA         1002afdc     atls:atlthunk.obj
 0003:00000fec       ?__vcrt_startup_thread_ptd@@3U__vcrt_ptd@@A 1002afec     libvcruntime:per_thread_data.obj
 0003:00001014       ___vcrt_lock_table         1002b014     libvcruntime:locks.obj
 0003:0000102c       ___vcrt_locks_initialized  1002b02c     libvcruntime:locks.obj
 0003:00001058       ?heap@@3V_HeapManager@@A   1002b058     libvcruntime:undname.obj
 0003:0000106c       ?module_handles@@3PAPAUHINSTANCE__@@A 1002b06c     libvcruntime:winapi_downlevel.obj
 0003:00001078       ?function_pointers@@3PAPAXA 1002b078     libvcruntime:winapi_downlevel.obj
 0003:0000108c       ?__acrt_invalid_parameter_handler@@3V?$dual_state_global@P6AXPB_W00II@Z@__crt_state_management@@A 1002b08c     libucrt:invalid_parameter.obj
 0003:00001090       ?c_termination_complete@@3JA 1002b090     libucrt:exit.obj
 0003:00001094       ?thread_local_exit_callback_func@@3P6GXPAXK0@ZA 1002b094     libucrt:exit.obj
 0003:000010a0       ?program_name@?1???$common_configure_argv@D@@YAHW4_crt_argv_mode@@@Z@4PADA 1002b0a0     libucrt:argv_parsing.obj
 0003:000011d0       ?__acrt_new_handler@@3V?$dual_state_global@P6AHI@Z@__crt_state_management@@A 1002b1d0     libucrt:new_handler.obj
 0003:000011d8       ?module_handles@@3PAPAUHINSTANCE__@@A 1002b1d8     libucrt:winapi_thunks.obj
 0003:00001228       ?encoded_function_pointers@@3PAPAXA 1002b228     libucrt:winapi_thunks.obj
 0003:000012b0       ?internal_state@?1??_mbtowc_l@@9@4U_Mbstatet@@A 1002b2b0     libucrt:mbtowc.obj
 0003:000012c0       ?enable_percent_n@@3IA     1002b2c0     libucrt:printf_count_output.obj
 0003:000014e0       ?__acrt_lock_table@@3PAU_RTL_CRITICAL_SECTION@@A 1002b4e0     libucrt:locks.obj
 0003:00001630       ?__acrt_locks_initialized@@3IA 1002b630     libucrt:locks.obj
 0003:00001640       ?fSystemSet@@3HA           1002b640     libucrt:mbctype.obj
 0003:00001644       ?initialized@?1??__acrt_initialize_multibyte@@9@4_NA 1002b644     libucrt:mbctype.obj
 0003:00001664       ?ctrlc_action@@3V?$dual_state_global@P6AXH@Z@__crt_state_management@@A 1002b664     libucrt:signal.obj
 0003:00001668       ?ctrlbreak_action@@3V?$dual_state_global@P6AXH@Z@__crt_state_management@@A 1002b668     libucrt:signal.obj
 0003:0000166c       ?abort_action@@3V?$dual_state_global@P6AXH@Z@__crt_state_management@@A 1002b66c     libucrt:signal.obj
 0003:00001670       ?term_action@@3V?$dual_state_global@P6AXH@Z@__crt_state_management@@A 1002b670     libucrt:signal.obj
 0003:00001674       ?user_matherr@@3V?$dual_state_global@P6AHPAU_exception@@@Z@__crt_state_management@@A 1002b674     libucrt:matherr.obj
 0003:00001678       ?__acrt_global_new_mode@@3V?$dual_state_global@J@__crt_state_management@@A 1002b678     libucrt:new_mode.obj
 0003:00001684       ?internal_pst@?1??__mbrtoc32_utf8@__crt_mbstring@@YAIPA_UPBDIPAU_Mbstatet@@@Z@4U3@A 1002b684     libucrt:mbrtoc32.obj
 0003:0000168c       ?__acrt_app_type@@3W4_crt_app_type@@A 1002b68c     libucrt:report_runtime_error.obj
 0003:00001694       __pmatherr_set             1002b694     libucrt:libm_error.obj
 0004:00000220       $R000000                   1002c220     ImageScanner.res
 0004:00000bc8       $R0009A8                   1002cbc8     ImageScanner.res
 0004:00000cb0       $R000A90                   1002ccb0     ImageScanner.res
 0004:00000f18       $R000CF8                   1002cf18     ImageScanner.res
 0004:00001430       $R001210                   1002d430     ImageScanner.res
 0004:00004430       $R004210                   10030430     ImageScanner.res
 0004:00004468       $R004248                   10030468     ImageScanner.res
