 OPOSSoundRecorder

 Timestamp is 61a75a58 (Wed Dec  1 20:19:52 2021)

 Preferred load address is 10000000

 Start         Length     Name                   Class
 0001:00000000 00000080H .text$di                CODE
 0001:00000080 0001ed18H .text$mn                CODE
 0001:0001ed98 000000d8H .text$x                 CODE
 0001:0001ee70 00000042H .text$yd                CODE
 0002:00000000 000002fcH .idata$5                DATA
 0002:000002fc 00000008H .00cfg                  DATA
 0002:00000304 00000004H .CRT$XCA                DATA
 0002:00000308 00000004H .CRT$XCL                DATA
 0002:0000030c 00000010H .CRT$XCU                DATA
 0002:0000031c 00000004H .CRT$XCZ                DATA
 0002:00000320 00000004H .CRT$XIA                DATA
 0002:00000324 00000010H .CRT$XIC                DATA
 0002:00000334 00000004H .CRT$XIZ                DATA
 0002:00000338 00000004H .CRT$XLA                DATA
 0002:0000033c 00000004H .CRT$XLZ                DATA
 0002:00000340 00000004H .CRT$XPA                DATA
 0002:00000344 00000008H .CRT$XPX                DATA
 0002:0000034c 00000004H .CRT$XPXA               DATA
 0002:00000350 00000004H .CRT$XPZ                DATA
 0002:00000354 00000004H .CRT$XTA                DATA
 0002:00000358 00000008H .CRT$XTZ                DATA
 0002:0000035c 00000000H .gfids$y                DATA
 0002:00000360 00006e20H .rdata                  DATA
 0002:00007180 00000000H .rdata$CastGuardVftablesA DATA
 0002:00007180 00000000H .rdata$CastGuardVftablesC DATA
 0002:00007180 00000018H .rdata$T                DATA
 0002:00007198 00000178H .rdata$r                DATA
 0002:00007310 0000002cH .rdata$sxdata           DATA
 0002:0000733c 00000030H .rdata$voltmd           DATA
 0002:0000736c 0000040cH .rdata$zzzdbg           DATA
 0002:00007778 00000004H .rtc$IAA                DATA
 0002:0000777c 00000004H .rtc$IZZ                DATA
 0002:00007780 00000004H .rtc$TAA                DATA
 0002:00007784 00000004H .rtc$TZZ                DATA
 0002:00007788 00000004H .tls                    DATA
 0002:0000778c 00000004H .tls$                   DATA
 0002:00007790 00000008H .tls$ZZZ                DATA
 0002:00007798 000006dcH .xdata$x                DATA
 0002:00007e74 00000004H ATL$__a                 DATA
 0002:00007e78 00000008H ATL$__z                 DATA
 0002:00007e80 000000b0H .edata                  DATA
 0002:00007f30 00000078H .idata$2                DATA
 0002:00007fa8 00000014H .idata$3                DATA
 0002:00007fbc 000002fcH .idata$4                DATA
 0002:000082b8 00000bceH .idata$6                DATA
 0003:00000000 00000a80H .data                   DATA
 0003:00000a80 00000080H .data$r                 DATA
 0003:00000b00 00000018H .data$rs                DATA
 0003:00000b18 00000b80H .bss                    DATA
 0004:00000000 00000220H .rsrc$01                DATA
 0004:00000220 00004250H .rsrc$02                DATA

  Address         Publics by Value              Rva+Base       Lib:Object

 0000:00000000       ___guard_fids_count        00000000     <absolute>
 0000:00000000       ___guard_eh_cont_table     00000000     <absolute>
 0000:00000000       ___guard_longjmp_table     00000000     <absolute>
 0000:00000000       ___arm64x_extra_rfe_table  00000000     <absolute>
 0000:00000000       ___arm64x_redirection_metadata 00000000     <absolute>
 0000:00000000       ___guard_iat_count         00000000     <absolute>
 0000:00000000       ___guard_eh_cont_count     00000000     <absolute>
 0000:00000000       __except_list              00000000     <absolute>
 0000:00000000       ___x64_code_ranges_to_entry_points_count 00000000     <absolute>
 0000:00000000       ___hybrid_code_map_count   00000000     <absolute>
 0000:00000000       ___x64_code_ranges_to_entry_points 00000000     <absolute>
 0000:00000000       ___guard_iat_table         00000000     <absolute>
 0000:00000000       ___arm64x_native_entrypoint 00000000     <absolute>
 0000:00000000       ___hybrid_code_map         00000000     <absolute>
 0000:00000000       ___arm64x_extra_rfe_table_size 00000000     <absolute>
 0000:00000000       ___guard_longjmp_count     00000000     <absolute>
 0000:00000000       ___guard_check_icall_a64n_fptr 00000000     <absolute>
 0000:00000000       ___arm64x_redirection_metadata_count 00000000     <absolute>
 0000:00000000       ___hybrid_auxiliary_iat    00000000     <absolute>
 0000:00000000       ___dynamic_value_reloc_table 00000000     <absolute>
 0000:00000000       ___AbsoluteZero            00000000     <absolute>
 0000:00000000       ___enclave_config          00000000     <absolute>
 0000:00000000       ___guard_fids_table        00000000     <absolute>
 0000:00000000       ___hybrid_auxiliary_iat_copy 00000000     <absolute>
 0000:0000000b       ___safe_se_handler_count   0000000b     <absolute>
 0000:0000002c       __tls_array                0000002c     <absolute>
 0000:00000100       ___guard_flags             00000100     <absolute>
 0000:00000000       ___ImageBase               10000000     <linker-defined>
 0001:00000080       ?DupWide@_CW@@AAEXXZ       10001080 f   CWString.obj
 0001:0000009c       ?cw_dup@@YGXPBDAAHAAPA_W1@Z 1000109c f   CWString.obj
 0001:00000124       ?cw_memcpy@@YGHPA_WPBDH@Z  10001124 f   CWString.obj
 0001:00000150       ?cw_strcpy@@YAHPA_WPBD@Z   10001150 f   CWString.obj
 0001:00000163       ?cw_strlen@@YAHPBD@Z       10001163 f   CWString.obj
 0001:0000017c       ??0CAtlComModule@ATL@@QAE@XZ 1000117c f i OposVariant.obj
 0001:000001c1       ??0CAtlWinModule@ATL@@QAE@XZ 100011c1 f i OposVariant.obj
 0001:000001f8       ??0OposDispParms@@QAE@PAVOposVariant@@H@Z 100011f8 f   OposVariant.obj
 0001:00000269       ??1OposDispParms@@QAE@XZ   10001269 f   OposVariant.obj
 0001:00000277       ??A?$CSimpleArray@GV?$CSimpleArrayEqualHelper@G@ATL@@@ATL@@QAEAAGH@Z 10001277 f i OposVariant.obj
 0001:0000029c       ??_Estringdispid@CComTypeInfoHolder@ATL@@QAEPAXI@Z 1000129c f i OposVariant.obj
 0001:00000308       ?AtlWinModuleInit@ATL@@YGJPAU_ATL_WIN_MODULE70@1@@Z 10001308 f i OposVariant.obj
 0001:0000032e       ?AtlWinModuleTerm@ATL@@YGJPAU_ATL_WIN_MODULE70@1@PAUHINSTANCE__@@@Z 1000132e f i OposVariant.obj
 0001:00000391       ?ChangeBSTR@OposVariant@@QAEXPAPA_WAAJ@Z 10001391 f   OposVariant.obj
 0001:000003d2       ?ChangeLONG@OposVariant@@QAEXPAJAAJ@Z 100013d2 f   OposVariant.obj
 0001:00000413       ?GetLONG@OposVariant@@QAEJXZ 10001413 f   OposVariant.obj
 0001:0000042e       ?Init@CComCriticalSection@ATL@@QAEJXZ 1000142e f i OposVariant.obj
 0001:00000456       ?RemoveAll@?$CSimpleArray@PAUHINSTANCE__@@V?$CSimpleArrayEqualHelper@PAUHINSTANCE__@@@ATL@@@ATL@@QAEXXZ 10001456 f i atls:atlbase.obj
 0001:00000456       ?RemoveAll@?$CSimpleArray@GV?$CSimpleArrayEqualHelper@G@ATL@@@ATL@@QAEXXZ 10001456 f i OposVariant.obj
 0001:00000473       ?SetBSTR@OposVariant@@QAEXPA_WAAJ@Z 10001473 f   OposVariant.obj
 0001:000004a7       ?SetBSTR_Copy@OposVariant@@QAEXPA_WAAJ@Z 100014a7 f   OposVariant.obj
 0001:000004f7       ?SetBSTR_InOutPtr@OposVariant@@QAE_NPAPA_WAAJ@Z 100014f7 f   OposVariant.obj
 0001:0000052e       ?SetDispatch_Ptr@OposVariant@@QAEXPAUIDispatch@@AAJ@Z 1000152e f   OposVariant.obj
 0001:00000569       ?SetLONG@OposVariant@@QAEXJ@Z 10001569 f   OposVariant.obj
 0001:0000058b       ?SetLONG_Ptr@OposVariant@@QAEXPAJAAJ@Z 1000158b f   OposVariant.obj
 0001:000005be       ?SetString@OposVariant@@QAEXPB_WAAJ@Z 100015be f   OposVariant.obj
 0001:00000604       ?SetVARIANT_BOOL@OposVariant@@QAEXF@Z 10001604 f   OposVariant.obj
 0001:0000062e       ?Term@CAtlComModule@ATL@@QAEXXZ 1000162e f i OposVariant.obj
 0001:00000678       ?_AtlRaiseException@ATL@@YAXKK@Z 10001678 f i OposVariant.obj
 0001:0000068d       ?OnDrawAdvanced@CComControlBase@ATL@@UAEJAAUATL_DRAWINFO@@@Z 1000168d f i SoundRecorder.obj
 0001:00000780       ?Next@?$CComEnumImpl@UIEnumConnections@@$1?_GUID_b196b287_bab4_101a_b69c_00aa00341d07@@3U__s_GUID@@BUtagCONNECTDATA@@V?$_Copy@UtagCONNECTDATA@@@ATL@@@ATL@@UAGJKPAUtagCONNECTDATA@@PAK@Z 10001780 f i SoundRecorder.obj
 0001:0000084f       ?Skip@?$CComEnumImpl@UIEnumConnections@@$1?_GUID_b196b287_bab4_101a_b69c_00aa00341d07@@3U__s_GUID@@BUtagCONNECTDATA@@V?$_Copy@UtagCONNECTDATA@@@ATL@@@ATL@@UAGJK@Z 1000184f f i SoundRecorder.obj
 0001:0000087c       ?Reset@?$CComEnumImpl@UIEnumConnectionPoints@@$1?_GUID_b196b285_bab4_101a_b69c_00aa00341d07@@3U__s_GUID@@BPAUIConnectionPoint@@V?$_CopyInterface@UIConnectionPoint@@@ATL@@@ATL@@UAGJXZ 1000187c f i SoundRecorder.obj
 0001:0000087c       ?Reset@?$CComEnumImpl@UIEnumConnections@@$1?_GUID_b196b287_bab4_101a_b69c_00aa00341d07@@3U__s_GUID@@BUtagCONNECTDATA@@V?$_Copy@UtagCONNECTDATA@@@ATL@@@ATL@@UAGJXZ 1000187c f i SoundRecorder.obj
 0001:0000088e       ?Clone@?$CComEnumImpl@UIEnumConnections@@$1?_GUID_b196b287_bab4_101a_b69c_00aa00341d07@@3U__s_GUID@@BUtagCONNECTDATA@@V?$_Copy@UtagCONNECTDATA@@@ATL@@@ATL@@UAGJPAPAUIEnumConnections@@@Z 1000188e f i SoundRecorder.obj
 0001:0000096f       ?AddRef@?$CComObject@V?$CComEnum@UIEnumConnectionPoints@@$1?_GUID_b196b285_bab4_101a_b69c_00aa00341d07@@3U__s_GUID@@BPAUIConnectionPoint@@V?$_CopyInterface@UIConnectionPoint@@@ATL@@VCComSingleThreadModel@6@@ATL@@@ATL@@UAGKXZ 1000196f f i SoundRecorder.obj
 0001:0000096f       ?AddRef@?$CComObject@V?$CComEnum@UIEnumConnections@@$1?_GUID_b196b287_bab4_101a_b69c_00aa00341d07@@3U__s_GUID@@BUtagCONNECTDATA@@V?$_Copy@UtagCONNECTDATA@@@ATL@@VCComSingleThreadModel@6@@ATL@@@ATL@@UAGKXZ 1000196f f i SoundRecorder.obj
 0001:00000980       ?Release@?$CComObject@V?$CComEnum@UIEnumConnectionPoints@@$1?_GUID_b196b285_bab4_101a_b69c_00aa00341d07@@3U__s_GUID@@BPAUIConnectionPoint@@V?$_CopyInterface@UIConnectionPoint@@@ATL@@VCComSingleThreadModel@6@@ATL@@@ATL@@UAGKXZ 10001980 f i SoundRecorder.obj
 0001:00000980       ?Release@?$CComObject@V?$CComEnum@UIEnumConnections@@$1?_GUID_b196b287_bab4_101a_b69c_00aa00341d07@@3U__s_GUID@@BUtagCONNECTDATA@@V?$_Copy@UtagCONNECTDATA@@@ATL@@VCComSingleThreadModel@6@@ATL@@@ATL@@UAGKXZ 10001980 f i SoundRecorder.obj
 0001:000009bc       ?QueryInterface@?$CComObject@V?$CComEnum@UIEnumConnections@@$1?_GUID_b196b287_bab4_101a_b69c_00aa00341d07@@3U__s_GUID@@BUtagCONNECTDATA@@V?$_Copy@UtagCONNECTDATA@@@ATL@@VCComSingleThreadModel@6@@ATL@@@ATL@@UAGJABU_GUID@@PAPAX@Z 100019bc f i SoundRecorder.obj
 0001:000009d6       ??_E?$CComObject@V?$CComEnum@UIEnumConnections@@$1?_GUID_b196b287_bab4_101a_b69c_00aa00341d07@@3U__s_GUID@@BUtagCONNECTDATA@@V?$_Copy@UtagCONNECTDATA@@@ATL@@VCComSingleThreadModel@6@@ATL@@@ATL@@UAEPAXI@Z 100019d6 f i SoundRecorder.obj
 0001:000009d6       ??_G?$CComObject@V?$CComEnum@UIEnumConnections@@$1?_GUID_b196b287_bab4_101a_b69c_00aa00341d07@@3U__s_GUID@@BUtagCONNECTDATA@@V?$_Copy@UtagCONNECTDATA@@@ATL@@VCComSingleThreadModel@6@@ATL@@@ATL@@UAEPAXI@Z 100019d6 f i SoundRecorder.obj
 0001:000009f8       ?OnFinalMessage@?$CWindowImplBaseT@VCWindow@ATL@@V?$CWinTraits@$0FGAAAAAA@$0A@@2@@ATL@@UAEXPAUHWND__@@@Z 100019f8 f i SoundRecorder.obj
 0001:000009f8       ?ObjectMain@CComObjectRootBase@ATL@@SGX_N@Z 100019f8 f i SoundRecorder.obj
 0001:000009fb       ?GetCategoryMap@CComObjectRootBase@ATL@@SAPBU_ATL_CATMAP_ENTRY@2@XZ 100019fb f i SoundRecorder.obj
 0001:000009fb       ?GetObjectDescription@?$CComCoClass@VCOPOSSoundRecorder@@$1?CLSID_OPOSSoundRecorder@@3U_GUID@@B@ATL@@SGPB_WXZ 100019fb f i SoundRecorder.obj
 0001:000009fe       ?CreateInstance@CComClassFactory@ATL@@UAGJPAUIUnknown@@ABU_GUID@@PAPAX@Z 100019fe f i SoundRecorder.obj
 0001:00000a3c       ?LockServer@CComClassFactory@ATL@@UAGJH@Z 10001a3c f i SoundRecorder.obj
 0001:00000a5b       ??_ECComClassFactory@ATL@@UAEPAXI@Z 10001a5b f i SoundRecorder.obj
 0001:00000a5b       ??_GCComClassFactory@ATL@@UAEPAXI@Z 10001a5b f i SoundRecorder.obj
 0001:00000a86       ??_E?$CComObject@VCOPOSSoundRecorder@@@ATL@@W3AEPAXI@Z 10001a86 f i SoundRecorder.obj
 0001:00000a8e       ??_E?$CComObject@VCOPOSSoundRecorder@@@ATL@@WEM@AEPAXI@Z 10001a8e f i SoundRecorder.obj
 0001:00000a96       ?QueryInterface@?$CComObject@VCOPOSSoundRecorder@@@ATL@@WHA@AGJABU_GUID@@PAPAX@Z 10001a96 f i SoundRecorder.obj
 0001:00000aa0       ?AddRef@?$CComObject@VCOPOSSoundRecorder@@@ATL@@WHA@AGKXZ 10001aa0 f i SoundRecorder.obj
 0001:00000aaa       ?Release@?$CComObject@VCOPOSSoundRecorder@@@ATL@@WHA@AGKXZ 10001aaa f i SoundRecorder.obj
 0001:00000ab4       ?QueryInterface@?$CComObject@VCOPOSSoundRecorder@@@ATL@@WHE@AGJABU_GUID@@PAPAX@Z 10001ab4 f i SoundRecorder.obj
 0001:00000abe       ?AddRef@?$CComObject@VCOPOSSoundRecorder@@@ATL@@WHE@AGKXZ 10001abe f i SoundRecorder.obj
 0001:00000ac8       ?Release@?$CComObject@VCOPOSSoundRecorder@@@ATL@@WHE@AGKXZ 10001ac8 f i SoundRecorder.obj
 0001:00000ad2       ?QueryInterface@?$CComObject@VCOPOSSoundRecorder@@@ATL@@WHI@AGJABU_GUID@@PAPAX@Z 10001ad2 f i SoundRecorder.obj
 0001:00000adc       ?AddRef@?$CComObject@VCOPOSSoundRecorder@@@ATL@@WHI@AGKXZ 10001adc f i SoundRecorder.obj
 0001:00000ae6       ?Release@?$CComObject@VCOPOSSoundRecorder@@@ATL@@WHI@AGKXZ 10001ae6 f i SoundRecorder.obj
 0001:00000af0       ?QueryInterface@?$CComObject@VCOPOSSoundRecorder@@@ATL@@WHM@AGJABU_GUID@@PAPAX@Z 10001af0 f i SoundRecorder.obj
 0001:00000afa       ?AddRef@?$CComObject@VCOPOSSoundRecorder@@@ATL@@WHM@AGKXZ 10001afa f i SoundRecorder.obj
 0001:00000b04       ?Release@?$CComObject@VCOPOSSoundRecorder@@@ATL@@WHM@AGKXZ 10001b04 f i SoundRecorder.obj
 0001:00000b0e       ?QueryInterface@?$CComObject@VCOPOSSoundRecorder@@@ATL@@WIA@AGJABU_GUID@@PAPAX@Z 10001b0e f i SoundRecorder.obj
 0001:00000b1b       ?AddRef@?$CComObject@VCOPOSSoundRecorder@@@ATL@@WIA@AGKXZ 10001b1b f i SoundRecorder.obj
 0001:00000b28       ?Release@?$CComObject@VCOPOSSoundRecorder@@@ATL@@WIA@AGKXZ 10001b28 f i SoundRecorder.obj
 0001:00000b35       ?QueryInterface@?$CComObject@VCOPOSSoundRecorder@@@ATL@@WIE@AGJABU_GUID@@PAPAX@Z 10001b35 f i SoundRecorder.obj
 0001:00000b42       ?AddRef@?$CComObject@VCOPOSSoundRecorder@@@ATL@@WIE@AGKXZ 10001b42 f i SoundRecorder.obj
 0001:00000b4f       ?Release@?$CComObject@VCOPOSSoundRecorder@@@ATL@@WIE@AGKXZ 10001b4f f i SoundRecorder.obj
 0001:00000b5c       ?QueryInterface@?$CComObject@VCOPOSSoundRecorder@@@ATL@@WII@AGJABU_GUID@@PAPAX@Z 10001b5c f i SoundRecorder.obj
 0001:00000b69       ?AddRef@?$CComObject@VCOPOSSoundRecorder@@@ATL@@WII@AGKXZ 10001b69 f i SoundRecorder.obj
 0001:00000b76       ?Release@?$CComObject@VCOPOSSoundRecorder@@@ATL@@WII@AGKXZ 10001b76 f i SoundRecorder.obj
 0001:00000b83       ?QueryInterface@?$CComObject@VCOPOSSoundRecorder@@@ATL@@WIM@AGJABU_GUID@@PAPAX@Z 10001b83 f i SoundRecorder.obj
 0001:00000b90       ?AddRef@?$CComObject@VCOPOSSoundRecorder@@@ATL@@WIM@AGKXZ 10001b90 f i SoundRecorder.obj
 0001:00000b9d       ?Release@?$CComObject@VCOPOSSoundRecorder@@@ATL@@WIM@AGKXZ 10001b9d f i SoundRecorder.obj
 0001:00000baa       ?QueryInterface@?$CComObject@VCOPOSSoundRecorder@@@ATL@@WJA@AGJABU_GUID@@PAPAX@Z 10001baa f i SoundRecorder.obj
 0001:00000bb7       ?AddRef@?$CComObject@VCOPOSSoundRecorder@@@ATL@@WJA@AGKXZ 10001bb7 f i SoundRecorder.obj
 0001:00000bc4       ?Release@?$CComObject@VCOPOSSoundRecorder@@@ATL@@WJA@AGKXZ 10001bc4 f i SoundRecorder.obj
 0001:00000bd1       ?QueryInterface@?$CComObject@VCOPOSSoundRecorder@@@ATL@@WJE@AGJABU_GUID@@PAPAX@Z 10001bd1 f i SoundRecorder.obj
 0001:00000bde       ?AddRef@?$CComObject@VCOPOSSoundRecorder@@@ATL@@WJE@AGKXZ 10001bde f i SoundRecorder.obj
 0001:00000beb       ?Release@?$CComObject@VCOPOSSoundRecorder@@@ATL@@WJE@AGKXZ 10001beb f i SoundRecorder.obj
 0001:00000bf8       ?QueryInterface@?$CComObject@VCOPOSSoundRecorder@@@ATL@@WJI@AGJABU_GUID@@PAPAX@Z 10001bf8 f i SoundRecorder.obj
 0001:00000c05       ?AddRef@?$CComObject@VCOPOSSoundRecorder@@@ATL@@WJI@AGKXZ 10001c05 f i SoundRecorder.obj
 0001:00000c12       ?Release@?$CComObject@VCOPOSSoundRecorder@@@ATL@@WJI@AGKXZ 10001c12 f i SoundRecorder.obj
 0001:00000c1f       ?QueryInterface@?$CComObject@VCOPOSSoundRecorder@@@ATL@@WJM@AGJABU_GUID@@PAPAX@Z 10001c1f f i SoundRecorder.obj
 0001:00000c2c       ?AddRef@?$CComObject@VCOPOSSoundRecorder@@@ATL@@WJM@AGKXZ 10001c2c f i SoundRecorder.obj
 0001:00000c39       ?Release@?$CComObject@VCOPOSSoundRecorder@@@ATL@@WJM@AGKXZ 10001c39 f i SoundRecorder.obj
 0001:00000c46       ?QueryInterface@?$CComObject@VCOPOSSoundRecorder@@@ATL@@WKA@AGJABU_GUID@@PAPAX@Z 10001c46 f i SoundRecorder.obj
 0001:00000c53       ?AddRef@?$CComObject@VCOPOSSoundRecorder@@@ATL@@WKA@AGKXZ 10001c53 f i SoundRecorder.obj
 0001:00000c60       ?Release@?$CComObject@VCOPOSSoundRecorder@@@ATL@@WKA@AGKXZ 10001c60 f i SoundRecorder.obj
 0001:00000c6d       ?AddRef@?$CComObject@VCOPOSSoundRecorder@@@ATL@@WKI@AGKXZ 10001c6d f i SoundRecorder.obj
 0001:00000c7a       ?Release@?$CComObject@VCOPOSSoundRecorder@@@ATL@@WKI@AGKXZ 10001c7a f i SoundRecorder.obj
 0001:00000c87       ?AddRef@?$CComObject@VCOPOSSoundRecorder@@@ATL@@WLE@AGKXZ 10001c87 f i SoundRecorder.obj
 0001:00000c94       ?Release@?$CComObject@VCOPOSSoundRecorder@@@ATL@@WLE@AGKXZ 10001c94 f i SoundRecorder.obj
 0001:00000ca1       ??_E?$CComContainedObject@VCOPOSSoundRecorder@@@ATL@@W3AEPAXI@Z 10001ca1 f i SoundRecorder.obj
 0001:00000ca9       ??_E?$CComContainedObject@VCOPOSSoundRecorder@@@ATL@@WEM@AEPAXI@Z 10001ca9 f i SoundRecorder.obj
 0001:00000cb1       ?QueryInterface@?$CComContainedObject@VCOPOSSoundRecorder@@@ATL@@WHA@AGJABU_GUID@@PAPAX@Z 10001cb1 f i SoundRecorder.obj
 0001:00000cbb       ?AddRef@?$CComContainedObject@VCOPOSSoundRecorder@@@ATL@@WHA@AGKXZ 10001cbb f i SoundRecorder.obj
 0001:00000cc5       ?Release@?$CComContainedObject@VCOPOSSoundRecorder@@@ATL@@WHA@AGKXZ 10001cc5 f i SoundRecorder.obj
 0001:00000ccf       ?QueryInterface@?$CComContainedObject@VCOPOSSoundRecorder@@@ATL@@WHE@AGJABU_GUID@@PAPAX@Z 10001ccf f i SoundRecorder.obj
 0001:00000cd9       ?AddRef@?$CComContainedObject@VCOPOSSoundRecorder@@@ATL@@WHE@AGKXZ 10001cd9 f i SoundRecorder.obj
 0001:00000ce3       ?Release@?$CComContainedObject@VCOPOSSoundRecorder@@@ATL@@WHE@AGKXZ 10001ce3 f i SoundRecorder.obj
 0001:00000ced       ?QueryInterface@?$CComContainedObject@VCOPOSSoundRecorder@@@ATL@@WHI@AGJABU_GUID@@PAPAX@Z 10001ced f i SoundRecorder.obj
 0001:00000cf7       ?AddRef@?$CComContainedObject@VCOPOSSoundRecorder@@@ATL@@WHI@AGKXZ 10001cf7 f i SoundRecorder.obj
 0001:00000d01       ?Release@?$CComContainedObject@VCOPOSSoundRecorder@@@ATL@@WHI@AGKXZ 10001d01 f i SoundRecorder.obj
 0001:00000d0b       ?QueryInterface@?$CComContainedObject@VCOPOSSoundRecorder@@@ATL@@WHM@AGJABU_GUID@@PAPAX@Z 10001d0b f i SoundRecorder.obj
 0001:00000d15       ?AddRef@?$CComContainedObject@VCOPOSSoundRecorder@@@ATL@@WHM@AGKXZ 10001d15 f i SoundRecorder.obj
 0001:00000d1f       ?Release@?$CComContainedObject@VCOPOSSoundRecorder@@@ATL@@WHM@AGKXZ 10001d1f f i SoundRecorder.obj
 0001:00000d29       ?QueryInterface@?$CComContainedObject@VCOPOSSoundRecorder@@@ATL@@WIA@AGJABU_GUID@@PAPAX@Z 10001d29 f i SoundRecorder.obj
 0001:00000d36       ?AddRef@?$CComContainedObject@VCOPOSSoundRecorder@@@ATL@@WIA@AGKXZ 10001d36 f i SoundRecorder.obj
 0001:00000d43       ?Release@?$CComContainedObject@VCOPOSSoundRecorder@@@ATL@@WIA@AGKXZ 10001d43 f i SoundRecorder.obj
 0001:00000d50       ?QueryInterface@?$CComContainedObject@VCOPOSSoundRecorder@@@ATL@@WIE@AGJABU_GUID@@PAPAX@Z 10001d50 f i SoundRecorder.obj
 0001:00000d5d       ?AddRef@?$CComContainedObject@VCOPOSSoundRecorder@@@ATL@@WIE@AGKXZ 10001d5d f i SoundRecorder.obj
 0001:00000d6a       ?Release@?$CComContainedObject@VCOPOSSoundRecorder@@@ATL@@WIE@AGKXZ 10001d6a f i SoundRecorder.obj
 0001:00000d77       ?QueryInterface@?$CComContainedObject@VCOPOSSoundRecorder@@@ATL@@WII@AGJABU_GUID@@PAPAX@Z 10001d77 f i SoundRecorder.obj
 0001:00000d84       ?AddRef@?$CComContainedObject@VCOPOSSoundRecorder@@@ATL@@WII@AGKXZ 10001d84 f i SoundRecorder.obj
 0001:00000d91       ?Release@?$CComContainedObject@VCOPOSSoundRecorder@@@ATL@@WII@AGKXZ 10001d91 f i SoundRecorder.obj
 0001:00000d9e       ?QueryInterface@?$CComContainedObject@VCOPOSSoundRecorder@@@ATL@@WIM@AGJABU_GUID@@PAPAX@Z 10001d9e f i SoundRecorder.obj
 0001:00000dab       ?AddRef@?$CComContainedObject@VCOPOSSoundRecorder@@@ATL@@WIM@AGKXZ 10001dab f i SoundRecorder.obj
 0001:00000db8       ?Release@?$CComContainedObject@VCOPOSSoundRecorder@@@ATL@@WIM@AGKXZ 10001db8 f i SoundRecorder.obj
 0001:00000dc5       ?QueryInterface@?$CComContainedObject@VCOPOSSoundRecorder@@@ATL@@WJA@AGJABU_GUID@@PAPAX@Z 10001dc5 f i SoundRecorder.obj
 0001:00000dd2       ?AddRef@?$CComContainedObject@VCOPOSSoundRecorder@@@ATL@@WJA@AGKXZ 10001dd2 f i SoundRecorder.obj
 0001:00000ddf       ?Release@?$CComContainedObject@VCOPOSSoundRecorder@@@ATL@@WJA@AGKXZ 10001ddf f i SoundRecorder.obj
 0001:00000dec       ?QueryInterface@?$CComContainedObject@VCOPOSSoundRecorder@@@ATL@@WJE@AGJABU_GUID@@PAPAX@Z 10001dec f i SoundRecorder.obj
 0001:00000df9       ?AddRef@?$CComContainedObject@VCOPOSSoundRecorder@@@ATL@@WJE@AGKXZ 10001df9 f i SoundRecorder.obj
 0001:00000e06       ?Release@?$CComContainedObject@VCOPOSSoundRecorder@@@ATL@@WJE@AGKXZ 10001e06 f i SoundRecorder.obj
 0001:00000e13       ?QueryInterface@?$CComContainedObject@VCOPOSSoundRecorder@@@ATL@@WJI@AGJABU_GUID@@PAPAX@Z 10001e13 f i SoundRecorder.obj
 0001:00000e20       ?AddRef@?$CComContainedObject@VCOPOSSoundRecorder@@@ATL@@WJI@AGKXZ 10001e20 f i SoundRecorder.obj
 0001:00000e2d       ?Release@?$CComContainedObject@VCOPOSSoundRecorder@@@ATL@@WJI@AGKXZ 10001e2d f i SoundRecorder.obj
 0001:00000e3a       ?QueryInterface@?$CComContainedObject@VCOPOSSoundRecorder@@@ATL@@WJM@AGJABU_GUID@@PAPAX@Z 10001e3a f i SoundRecorder.obj
 0001:00000e47       ?AddRef@?$CComContainedObject@VCOPOSSoundRecorder@@@ATL@@WJM@AGKXZ 10001e47 f i SoundRecorder.obj
 0001:00000e54       ?Release@?$CComContainedObject@VCOPOSSoundRecorder@@@ATL@@WJM@AGKXZ 10001e54 f i SoundRecorder.obj
 0001:00000e61       ?QueryInterface@?$CComContainedObject@VCOPOSSoundRecorder@@@ATL@@WKA@AGJABU_GUID@@PAPAX@Z 10001e61 f i SoundRecorder.obj
 0001:00000e6e       ?AddRef@?$CComContainedObject@VCOPOSSoundRecorder@@@ATL@@WKA@AGKXZ 10001e6e f i SoundRecorder.obj
 0001:00000e7b       ?Release@?$CComContainedObject@VCOPOSSoundRecorder@@@ATL@@WKA@AGKXZ 10001e7b f i SoundRecorder.obj
 0001:00000e88       ?AddRef@?$CComContainedObject@VCOPOSSoundRecorder@@@ATL@@WKI@AGKXZ 10001e88 f i SoundRecorder.obj
 0001:00000e95       ?Release@?$CComContainedObject@VCOPOSSoundRecorder@@@ATL@@WKI@AGKXZ 10001e95 f i SoundRecorder.obj
 0001:00000ea2       ?AddRef@?$CComContainedObject@VCOPOSSoundRecorder@@@ATL@@WLE@AGKXZ 10001ea2 f i SoundRecorder.obj
 0001:00000eaf       ?Release@?$CComContainedObject@VCOPOSSoundRecorder@@@ATL@@WLE@AGKXZ 10001eaf f i SoundRecorder.obj
 0001:00000ebc       ?GetWindowProc@?$CWindowImplBaseT@VCWindow@ATL@@V?$CWinTraits@$0FGAAAAAA@$0A@@2@@ATL@@UAEP6GJPAUHWND__@@IIJ@ZXZ 10001ebc f i SoundRecorder.obj
 0001:00000ec2       ?StartWindowProc@?$CWindowImplBaseT@VCWindow@ATL@@V?$CWinTraits@$0FGAAAAAA@$0A@@2@@ATL@@SGJPAUHWND__@@IIJ@Z 10001ec2 f i SoundRecorder.obj
 0001:00000f16       ?GetTypeInfoCount@?$IDispatchImpl@UIOPOSSoundRecorder@@$1?IID_IOPOSSoundRecorder@@3U_GUID@@B$1?LIBID_OposSoundRecorder_CCO@@3U3@B$00$0A@VCComTypeInfoHolder@ATL@@@ATL@@UAGJPAI@Z 10001f16 f i SoundRecorder.obj
 0001:00000f33       ?GetTypeInfo@?$IDispatchImpl@UIOPOSSoundRecorder@@$1?IID_IOPOSSoundRecorder@@3U_GUID@@B$1?LIBID_OposSoundRecorder_CCO@@3U3@B$00$0A@VCComTypeInfoHolder@ATL@@@ATL@@UAGJIKPAPAUITypeInfo@@@Z 10001f33 f i SoundRecorder.obj
 0001:00000f57       ?GetIDsOfNames@?$IDispatchImpl@UIOPOSSoundRecorder@@$1?IID_IOPOSSoundRecorder@@3U_GUID@@B$1?LIBID_OposSoundRecorder_CCO@@3U3@B$00$0A@VCComTypeInfoHolder@ATL@@@ATL@@UAGJABU_GUID@@PAPA_WIKPAJ@Z 10001f57 f i SoundRecorder.obj
 0001:00000f77       ?Invoke@?$IDispatchImpl@UIOPOSSoundRecorder@@$1?IID_IOPOSSoundRecorder@@3U_GUID@@B$1?LIBID_OposSoundRecorder_CCO@@3U3@B$00$0A@VCComTypeInfoHolder@ATL@@@ATL@@UAGJJABU_GUID@@KGPAUtagDISPPARAMS@@PAUtagVARIANT@@PAUtagEXCEPINFO@@PAI@Z 10001f77 f i SoundRecorder.obj
 0001:00000f85       ?CreateControlWindow@?$CComControl@VCOPOSSoundRecorder@@V?$CWindowImpl@VCOPOSSoundRecorder@@VCWindow@ATL@@V?$CWinTraits@$0FGAAAAAA@$0A@@3@@ATL@@@ATL@@UAEPAUHWND__@@PAU3@AAUtagRECT@@@Z 10001f85 f i SoundRecorder.obj
 0001:00000fb4       ?ControlQueryInterface@?$CComControl@VCOPOSSoundRecorder@@V?$CWindowImpl@VCOPOSSoundRecorder@@VCWindow@ATL@@V?$CWinTraits@$0FGAAAAAA@$0A@@3@@ATL@@@ATL@@UAEJABU_GUID@@PAPAX@Z 10001fb4 f i SoundRecorder.obj
 0001:00000fcf       ?GetClassID@?$IPersistStreamInitImpl@VCOPOSSoundRecorder@@@ATL@@UAGJPAU_GUID@@@Z 10001fcf f i SoundRecorder.obj
 0001:00000fcf       ?GetClassID@?$IPersistStorageImpl@VCOPOSSoundRecorder@@@ATL@@UAGJPAU_GUID@@@Z 10001fcf f i SoundRecorder.obj
 0001:00000fcf       ?GetUserClassID@?$IOleObjectImpl@VCOPOSSoundRecorder@@@ATL@@UAGJPAU_GUID@@@Z 10001fcf f i SoundRecorder.obj
 0001:00000ff3       ?IsDirty@?$IPersistStreamInitImpl@VCOPOSSoundRecorder@@@ATL@@UAGJXZ 10001ff3 f i SoundRecorder.obj
 0001:00001012       ?Load@?$IPersistStreamInitImpl@VCOPOSSoundRecorder@@@ATL@@UAGJPAUIStream@@@Z 10002012 f i SoundRecorder.obj
 0001:00001031       ?Save@?$IPersistStreamInitImpl@VCOPOSSoundRecorder@@@ATL@@UAGJPAUIStream@@H@Z 10002031 f i SoundRecorder.obj
 0001:00001053       ?GetSizeMax@?$IPersistStreamInitImpl@VCOPOSSoundRecorder@@@ATL@@UAGJPAT_ULARGE_INTEGER@@@Z 10002053 f i SoundRecorder.obj
 0001:00001232       ?InitNew@?$IPersistStreamInitImpl@VCOPOSSoundRecorder@@@ATL@@UAGJXZ 10002232 f i SoundRecorder.obj
 0001:0000124f       ?OnMnemonic@?$IOleControlImpl@VCOPOSSoundRecorder@@@ATL@@UAGJPAUtagMSG@@@Z 1000224f f i SoundRecorder.obj
 0001:0000124f       ?SOOutputCompleteDummy@COPOSSoundRecorder@@MAGJJ@Z 1000224f f i SoundRecorder.obj
 0001:0000124f       ?GetControlInfo@?$IOleControlImpl@VCOPOSSoundRecorder@@@ATL@@UAGJPAUtagCONTROLINFO@@@Z 1000224f f i SoundRecorder.obj
 0001:0000124f       ?ContextSensitiveHelp@?$IOleInPlaceObjectWindowlessImpl@VCOPOSSoundRecorder@@@ATL@@UAGJH@Z 1000224f f i SoundRecorder.obj
 0001:0000124f       ?SetColorScheme@?$IOleObjectImpl@VCOPOSSoundRecorder@@@ATL@@UAGJPAUtagLOGPALETTE@@@Z 1000224f f i SoundRecorder.obj
 0001:0000124f       ?ContextSensitiveHelp@?$IOleInPlaceActiveObjectImpl@VCOPOSSoundRecorder@@@ATL@@UAGJH@Z 1000224f f i SoundRecorder.obj
 0001:0000124f       ?Unfreeze@?$IViewObjectExImpl@VCOPOSSoundRecorder@@@ATL@@UAGJK@Z 1000224f f i SoundRecorder.obj
 0001:0000124f       ?GetDropTarget@?$IOleInPlaceObjectWindowlessImpl@VCOPOSSoundRecorder@@@ATL@@UAGJPAPAUIDropTarget@@@Z 1000224f f i SoundRecorder.obj
 0001:0000124f       ?QueryGetData@?$IDataObjectImpl@VCOPOSSoundRecorder@@@ATL@@UAGJPAUtagFORMATETC@@@Z 1000224f f i SoundRecorder.obj
 0001:00001257       ?OnAmbientPropertyChange@?$IOleControlImpl@VCOPOSSoundRecorder@@@ATL@@UAGJJ@Z 10002257 f i SoundRecorder.obj
 0001:00001257       ?EnableModeless@?$IOleInPlaceActiveObjectImpl@VCOPOSSoundRecorder@@@ATL@@UAGJH@Z 10002257 f i SoundRecorder.obj
 0001:00001257       ?SaveCompleted@?$IPersistStorageImpl@VCOPOSSoundRecorder@@@ATL@@UAGJPAUIStorage@@@Z 10002257 f i SoundRecorder.obj
 0001:00001257       ?OnFrameWindowActivate@?$IOleInPlaceActiveObjectImpl@VCOPOSSoundRecorder@@@ATL@@UAGJH@Z 10002257 f i SoundRecorder.obj
 0001:0000125c       ?SetClientSite@?$IOleObjectImpl@VCOPOSSoundRecorder@@@ATL@@UAGJPAUIOleClientSite@@@Z 1000225c f i SoundRecorder.obj
 0001:00001279       ?GetClientSite@?$IOleObjectImpl@VCOPOSSoundRecorder@@@ATL@@UAGJPAPAUIOleClientSite@@@Z 10002279 f i SoundRecorder.obj
 0001:00001296       ?SetHostNames@?$IOleObjectImpl@VCOPOSSoundRecorder@@@ATL@@UAGJPB_W0@Z 10002296 f i SoundRecorder.obj
 0001:0000129b       ?Close@?$IOleObjectImpl@VCOPOSSoundRecorder@@@ATL@@UAGJK@Z 1000229b f i SoundRecorder.obj
 0001:000012b8       ?GetClipboardData@?$IOleObjectImpl@VCOPOSSoundRecorder@@@ATL@@UAGJKPAPAUIDataObject@@@Z 100022b8 f i SoundRecorder.obj
 0001:000012b8       ?GetRect@?$IViewObjectExImpl@VCOPOSSoundRecorder@@@ATL@@UAGJKPAU_RECTL@@@Z 100022b8 f i SoundRecorder.obj
 0001:000012b8       ?GetCanonicalFormatEtc@?$IDataObjectImpl@VCOPOSSoundRecorder@@@ATL@@UAGJPAUtagFORMATETC@@0@Z 100022b8 f i SoundRecorder.obj
 0001:000012b8       ?EnumFormatEtc@?$IDataObjectImpl@VCOPOSSoundRecorder@@@ATL@@UAGJKPAPAUIEnumFORMATETC@@@Z 100022b8 f i SoundRecorder.obj
 0001:000012b8       ?QueryInterface@CRegObject@ATL@@UAGJABU_GUID@@PAPAX@Z 100022b8 f i SoundRecorder.obj
 0001:000012b8       ?SetMoniker@?$IOleObjectImpl@VCOPOSSoundRecorder@@@ATL@@UAGJKPAUIMoniker@@@Z 100022b8 f i SoundRecorder.obj
 0001:000012b8       ?GetDataHere@?$IDataObjectImpl@VCOPOSSoundRecorder@@@ATL@@UAGJPAUtagFORMATETC@@PAUtagSTGMEDIUM@@@Z 100022b8 f i SoundRecorder.obj
 0001:000012c0       ?SetData@?$IDataObjectImpl@VCOPOSSoundRecorder@@@ATL@@UAGJPAUtagFORMATETC@@PAUtagSTGMEDIUM@@H@Z 100022c0 f i SoundRecorder.obj
 0001:000012c0       ?InitFromData@?$IOleObjectImpl@VCOPOSSoundRecorder@@@ATL@@UAGJPAUIDataObject@@HK@Z 100022c0 f i SoundRecorder.obj
 0001:000012c0       ?GetMoniker@?$IOleObjectImpl@VCOPOSSoundRecorder@@@ATL@@UAGJKKPAPAUIMoniker@@@Z 100022c0 f i SoundRecorder.obj
 0001:000012c8       ?DoVerb@?$IOleObjectImpl@VCOPOSSoundRecorder@@@ATL@@UAGJJPAUtagMSG@@PAUIOleClientSite@@JPAUHWND__@@PBUtagRECT@@@Z 100022c8 f i SoundRecorder.obj
 0001:000013bc       ?EnumVerbs@?$IOleObjectImpl@VCOPOSSoundRecorder@@@ATL@@UAGJPAPAUIEnumOLEVERB@@@Z 100023bc f i SoundRecorder.obj
 0001:000013de       ?Update@?$IOleObjectImpl@VCOPOSSoundRecorder@@@ATL@@UAGJXZ 100023de f i SoundRecorder.obj
 0001:000013de       ?Release@CRegObject@ATL@@UAGKXZ 100023de f i SoundRecorder.obj
 0001:000013de       ?IsUpToDate@?$IOleObjectImpl@VCOPOSSoundRecorder@@@ATL@@UAGJXZ 100023de f i SoundRecorder.obj
 0001:000013de       ?HandsOffStorage@?$IPersistStorageImpl@VCOPOSSoundRecorder@@@ATL@@UAGJXZ 100023de f i SoundRecorder.obj
 0001:000013e3       ?GetUserType@?$IOleObjectImpl@VCOPOSSoundRecorder@@@ATL@@UAGJKPAPA_W@Z 100023e3 f i SoundRecorder.obj
 0001:000013fb       ?SetExtent@?$IOleObjectImpl@VCOPOSSoundRecorder@@@ATL@@UAGJKPAUtagSIZE@@@Z 100023fb f i SoundRecorder.obj
 0001:0000141b       ?GetExtent@?$IOleObjectImpl@VCOPOSSoundRecorder@@@ATL@@UAGJKPAUtagSIZE@@@Z 1000241b f i SoundRecorder.obj
 0001:00001459       ?Advise@?$IOleObjectImpl@VCOPOSSoundRecorder@@@ATL@@UAGJPAUIAdviseSink@@PAK@Z 10002459 f i SoundRecorder.obj
 0001:00001479       ?Unadvise@?$IOleObjectImpl@VCOPOSSoundRecorder@@@ATL@@UAGJK@Z 10002479 f i SoundRecorder.obj
 0001:000014a8       ?EnumAdvise@?$IOleObjectImpl@VCOPOSSoundRecorder@@@ATL@@UAGJPAPAUIEnumSTATDATA@@@Z 100024a8 f i SoundRecorder.obj
 0001:000014e8       ?GetMiscStatus@?$IOleObjectImpl@VCOPOSSoundRecorder@@@ATL@@UAGJKPAK@Z 100024e8 f i SoundRecorder.obj
 0001:00001500       ?GetWindow@?$IOleInPlaceActiveObjectImpl@VCOPOSSoundRecorder@@@ATL@@UAGJPAPAUHWND__@@@Z 10002500 f i SoundRecorder.obj
 0001:0000154d       ?TranslateAcceleratorW@?$IOleInPlaceActiveObjectImpl@VCOPOSSoundRecorder@@@ATL@@UAGJPAUtagMSG@@@Z 1000254d f i SoundRecorder.obj
 0001:000015fb       ?OnDocWindowActivate@?$IOleInPlaceActiveObjectImpl@VCOPOSSoundRecorder@@@ATL@@UAGJH@Z 100025fb f i SoundRecorder.obj
 0001:0000161d       ?ResizeBorder@?$IOleInPlaceActiveObjectImpl@VCOPOSSoundRecorder@@@ATL@@UAGJPBUtagRECT@@PAUIOleInPlaceUIWindow@@H@Z 1000261d f i SoundRecorder.obj
 0001:00001622       ?Draw@?$IViewObjectExImpl@VCOPOSSoundRecorder@@@ATL@@UAGJKJPAXPAUtagDVTARGETDEVICE@@PAUHDC__@@2PBU_RECTL@@3P6GHK@ZK@Z 10002622 f i SoundRecorder.obj
 0001:00001654       ?GetColorSet@?$IViewObjectExImpl@VCOPOSSoundRecorder@@@ATL@@UAGJKJPAXPAUtagDVTARGETDEVICE@@PAUHDC__@@PAPAUtagLOGPALETTE@@@Z 10002654 f i SoundRecorder.obj
 0001:0000165c       ?Freeze@?$IViewObjectExImpl@VCOPOSSoundRecorder@@@ATL@@UAGJKJPAXPAK@Z 1000265c f i SoundRecorder.obj
 0001:00001664       ?SetAdvise@?$IViewObjectExImpl@VCOPOSSoundRecorder@@@ATL@@UAGJKKPAUIAdviseSink@@@Z 10002664 f i SoundRecorder.obj
 0001:00001683       ?GetAdvise@?$IViewObjectExImpl@VCOPOSSoundRecorder@@@ATL@@UAGJPAK0PAPAUIAdviseSink@@@Z 10002683 f i SoundRecorder.obj
 0001:000016b8       ?GetExtent@?$IViewObjectExImpl@VCOPOSSoundRecorder@@@ATL@@UAGJKJPAUtagDVTARGETDEVICE@@PAUtagSIZE@@@Z 100026b8 f i SoundRecorder.obj
 0001:000016e9       ?GetViewStatus@?$IViewObjectExImpl@VCOPOSSoundRecorder@@@ATL@@UAGJPAK@Z 100026e9 f i SoundRecorder.obj
 0001:00001706       ?QueryHitPoint@?$IViewObjectExImpl@VCOPOSSoundRecorder@@@ATL@@UAGJKPBUtagRECT@@UtagPOINT@@JPAK@Z 10002706 f i SoundRecorder.obj
 0001:00001747       ?QueryHitRect@?$IViewObjectExImpl@VCOPOSSoundRecorder@@@ATL@@UAGJKPBUtagRECT@@0JPAK@Z 10002747 f i SoundRecorder.obj
 0001:000017a2       ?GetNaturalExtent@?$IViewObjectExImpl@VCOPOSSoundRecorder@@@ATL@@UAGJKJPAUtagDVTARGETDEVICE@@PAUHDC__@@PAUtagExtentInfo@@PAUtagSIZE@@@Z 100027a2 f i SoundRecorder.obj
 0001:000017ed       ?GetWindow@?$IOleInPlaceObjectWindowlessImpl@VCOPOSSoundRecorder@@@ATL@@UAGJPAPAUHWND__@@@Z 100027ed f i SoundRecorder.obj
 0001:0000183a       ?InPlaceDeactivate@?$IOleInPlaceObjectWindowlessImpl@VCOPOSSoundRecorder@@@ATL@@UAGJXZ 1000283a f i SoundRecorder.obj
 0001:00001854       ?UIDeactivate@?$IOleInPlaceObjectWindowlessImpl@VCOPOSSoundRecorder@@@ATL@@UAGJXZ 10002854 f i SoundRecorder.obj
 0001:0000186e       ?SetObjectRects@?$IOleInPlaceObjectWindowlessImpl@VCOPOSSoundRecorder@@@ATL@@UAGJPBUtagRECT@@0@Z 1000286e f i SoundRecorder.obj
 0001:0000188e       ?ReactivateAndUndo@?$IOleInPlaceObjectWindowlessImpl@VCOPOSSoundRecorder@@@ATL@@UAGJXZ 1000288e f i SoundRecorder.obj
 0001:00001896       ?OnWindowMessage@?$IOleInPlaceObjectWindowlessImpl@VCOPOSSoundRecorder@@@ATL@@UAGJIIJPAJ@Z 10002896 f i SoundRecorder.obj
 0001:00001906       ?EnumConnectionPoints@?$IConnectionPointContainerImpl@VCOPOSSoundRecorder@@@ATL@@UAGJPAPAUIEnumConnectionPoints@@@Z 10002906 f i SoundRecorder.obj
 0001:00001a96       ?FindConnectionPoint@?$IConnectionPointContainerImpl@VCOPOSSoundRecorder@@@ATL@@UAGJABU_GUID@@PAPAUIConnectionPoint@@@Z 10002a96 f i SoundRecorder.obj
 0001:00001b39       ?IsDirty@?$IPersistStorageImpl@VCOPOSSoundRecorder@@@ATL@@UAGJXZ 10002b39 f i SoundRecorder.obj
 0001:00001b69       ?InitNew@?$IPersistStorageImpl@VCOPOSSoundRecorder@@@ATL@@UAGJPAUIStorage@@@Z 10002b69 f i SoundRecorder.obj
 0001:00001b99       ?Load@?$IPersistStorageImpl@VCOPOSSoundRecorder@@@ATL@@UAGJPAUIStorage@@@Z 10002b99 f i SoundRecorder.obj
 0001:00001c05       ?Save@?$IPersistStorageImpl@VCOPOSSoundRecorder@@@ATL@@UAGJPAUIStorage@@H@Z 10002c05 f i SoundRecorder.obj
 0001:00001c78       ?GetPages@?$ISpecifyPropertyPagesImpl@VCOPOSSoundRecorder@@@ATL@@UAGJPAUtagCAUUID@@@Z 10002c78 f i SoundRecorder.obj
 0001:00001c8f       ?QuickActivate@?$IQuickActivateImpl@VCOPOSSoundRecorder@@@ATL@@UAGJPAUtagQACONTAINER@@PAUtagQACONTROL@@@Z 10002c8f f i SoundRecorder.obj
 0001:00001cb2       ?SetContentExtent@?$IQuickActivateImpl@VCOPOSSoundRecorder@@@ATL@@UAGJPAUtagSIZE@@@Z 10002cb2 f i SoundRecorder.obj
 0001:00001cde       ?GetContentExtent@?$IQuickActivateImpl@VCOPOSSoundRecorder@@@ATL@@UAGJPAUtagSIZE@@@Z 10002cde f i SoundRecorder.obj
 0001:00001d1a       ?GetData@?$IDataObjectImpl@VCOPOSSoundRecorder@@@ATL@@UAGJPAUtagFORMATETC@@PAUtagSTGMEDIUM@@@Z 10002d1a f i SoundRecorder.obj
 0001:00001d3d       ?DAdvise@?$IDataObjectImpl@VCOPOSSoundRecorder@@@ATL@@UAGJPAUtagFORMATETC@@KPAUIAdviseSink@@PAK@Z 10002d3d f i SoundRecorder.obj
 0001:00001d7e       ?DUnadvise@?$IDataObjectImpl@VCOPOSSoundRecorder@@@ATL@@UAGJK@Z 10002d7e f i SoundRecorder.obj
 0001:00001dac       ?EnumDAdvise@?$IDataObjectImpl@VCOPOSSoundRecorder@@@ATL@@UAGJPAPAUIEnumSTATDATA@@@Z 10002dac f i SoundRecorder.obj
 0001:00001deb       ?GetClassInfoW@?$IProvideClassInfo2Impl@$1?CLSID_OPOSSoundRecorder@@3U_GUID@@B$1?DIID__IOPOSSoundRecorderEvents@@3U2@B$1?LIBID_OposSoundRecorder_CCO@@3U2@B$00$0A@VCComTypeInfoHolder@ATL@@@ATL@@UAGJPAPAUITypeInfo@@@Z 10002deb f i SoundRecorder.obj
 0001:00001e01       ?GetGUID@?$IProvideClassInfo2Impl@$1?CLSID_OPOSSoundRecorder@@3U_GUID@@B$1?DIID__IOPOSSoundRecorderEvents@@3U2@B$1?LIBID_OposSoundRecorder_CCO@@3U2@B$00$0A@VCComTypeInfoHolder@ATL@@@ATL@@UAGJKPAU_GUID@@@Z 10002e01 f i SoundRecorder.obj
 0001:00001e3f       ?FAccessAllowed@?$IObjectSafetyImpl@VCOPOSSoundRecorder@@$02@ATL@@MAEHXZ 10002e3f f i SoundRecorder.obj
 0001:00001e3f       __get_startup_argv_mode    10002e3f f i LIBCMT:argv_mode.obj
 0001:00001e43       ?GetInterfaceSafetyOptions@?$IObjectSafetyImpl@VCOPOSSoundRecorder@@$02@ATL@@UAGJABU_GUID@@PAK1@Z 10002e43 f i SoundRecorder.obj
 0001:00001eb6       ?SetInterfaceSafetyOptions@?$IObjectSafetyImpl@VCOPOSSoundRecorder@@$02@ATL@@UAGJABU_GUID@@KK@Z 10002eb6 f i SoundRecorder.obj
 0001:00001f30       ?Lock@CAtlModule@ATL@@UAEJXZ 10002f30 f i SoundRecorder.obj
 0001:00001f3a       ?Unlock@CAtlModule@ATL@@UAEJXZ 10002f3a f i SoundRecorder.obj
 0001:00001f44       ?GetLockCount@CAtlModule@ATL@@UAEJXZ 10002f44 f i SoundRecorder.obj
 0001:00001f48       ?GetGITPtr@CAtlModule@ATL@@UAEJPAPAUIGlobalInterfaceTable@@@Z 10002f48 f i SoundRecorder.obj
 0001:00001f94       ?_LocCPQueryInterface@?$IConnectionPointImpl@VCOPOSSoundRecorder@@$1?DIID__IOPOSSoundRecorderEvents@@3U_GUID@@BVCComDynamicUnkArray@ATL@@@ATL@@UAGJABU_GUID@@PAPAX@Z 10002f94 f i SoundRecorder.obj
 0001:00001f94       ?_LocCPQueryInterface@?$IConnectionPointImpl@VCOPOSSoundRecorder@@$1?IID_IPropertyNotifySink@@3U_GUID@@BVCComDynamicUnkArray@ATL@@@ATL@@UAGJABU_GUID@@PAPAX@Z 10002f94 f i SoundRecorder.obj
 0001:00001fe1       ?GetConnectionInterface@?$IConnectionPointImpl@VCOPOSSoundRecorder@@$1?IID_IPropertyNotifySink@@3U_GUID@@BVCComDynamicUnkArray@ATL@@@ATL@@UAGJPAU_GUID@@@Z 10002fe1 f i SoundRecorder.obj
 0001:00002005       ?GetConnectionPointContainer@?$IConnectionPointImpl@VCOPOSSoundRecorder@@$1?IID_IPropertyNotifySink@@3U_GUID@@BVCComDynamicUnkArray@ATL@@@ATL@@UAGJPAPAUIConnectionPointContainer@@@Z 10003005 f i SoundRecorder.obj
 0001:00002028       ?Advise@?$IConnectionPointImpl@VCOPOSSoundRecorder@@$1?IID_IPropertyNotifySink@@3U_GUID@@BVCComDynamicUnkArray@ATL@@@ATL@@UAGJPAUIUnknown@@PAK@Z 10003028 f i SoundRecorder.obj
 0001:00002028       ?Advise@?$IConnectionPointImpl@VCOPOSSoundRecorder@@$1?DIID__IOPOSSoundRecorderEvents@@3U_GUID@@BVCComDynamicUnkArray@ATL@@@ATL@@UAGJPAUIUnknown@@PAK@Z 10003028 f i SoundRecorder.obj
 0001:000020c8       ?Unadvise@?$IConnectionPointImpl@VCOPOSSoundRecorder@@$1?IID_IPropertyNotifySink@@3U_GUID@@BVCComDynamicUnkArray@ATL@@@ATL@@UAGJK@Z 100030c8 f i SoundRecorder.obj
 0001:000020c8       ?Unadvise@?$IConnectionPointImpl@VCOPOSSoundRecorder@@$1?DIID__IOPOSSoundRecorderEvents@@3U_GUID@@BVCComDynamicUnkArray@ATL@@@ATL@@UAGJK@Z 100030c8 f i SoundRecorder.obj
 0001:00002108       ?EnumConnections@?$IConnectionPointImpl@VCOPOSSoundRecorder@@$1?DIID__IOPOSSoundRecorderEvents@@3U_GUID@@BVCComDynamicUnkArray@ATL@@@ATL@@UAGJPAPAUIEnumConnections@@@Z 10003108 f i SoundRecorder.obj
 0001:00002108       ?EnumConnections@?$IConnectionPointImpl@VCOPOSSoundRecorder@@$1?IID_IPropertyNotifySink@@3U_GUID@@BVCComDynamicUnkArray@ATL@@@ATL@@UAGJPAPAUIEnumConnections@@@Z 10003108 f i SoundRecorder.obj
 0001:0000220b       ?GetConnectionInterface@?$IConnectionPointImpl@VCOPOSSoundRecorder@@$1?DIID__IOPOSSoundRecorderEvents@@3U_GUID@@BVCComDynamicUnkArray@ATL@@@ATL@@UAGJPAU_GUID@@@Z 1000320b f i SoundRecorder.obj
 0001:0000222f       ?GetConnectionPointContainer@?$IConnectionPointImpl@VCOPOSSoundRecorder@@$1?DIID__IOPOSSoundRecorderEvents@@3U_GUID@@BVCComDynamicUnkArray@ATL@@@ATL@@UAGJPAPAUIConnectionPointContainer@@@Z 1000322f f i SoundRecorder.obj
 0001:00002252       ?UpdateRegistry@COPOSSoundRecorder@@SGJH@Z 10003252 f i SoundRecorder.obj
 0001:0000226a       ?AddCommonRGSReplacements@?$CAtlModuleT@VCComModule@ATL@@@ATL@@UAEJPAUIRegistrarBase@@@Z 1000326a f i SoundRecorder.obj
 0001:00002284       ?ProcessWindowMessage@COPOSSoundRecorder@@UAEHPAUHWND__@@IIJAAJK@Z 10003284 f i SoundRecorder.obj
 0001:000022d1       ?SOData@COPOSSoundRecorder@@MAGJJ@Z 100032d1 f i SoundRecorder.obj
 0001:0000230a       ?SODirectIO@COPOSSoundRecorder@@MAGJJPAJPAPA_W@Z 1000330a f i SoundRecorder.obj
 0001:00002353       ?SOError@COPOSSoundRecorder@@MAGJJJJPAJ@Z 10003353 f i SoundRecorder.obj
 0001:000023a8       ?SOStatusUpdate@COPOSSoundRecorder@@MAGJJ@Z 100033a8 f i SoundRecorder.obj
 0001:000023e1       ?UpdateRegistryFromResourceD@CComModule@ATL@@UAGJIHPAU_ATL_REGMAP_ENTRY@2@@Z 100033e1 f i SoundRecorder.obj
 0001:000023e1       ?UpdateRegistryFromResourceD@CComModule@ATL@@UAGJPB_WHPAU_ATL_REGMAP_ENTRY@2@@Z 100033e1 f i SoundRecorder.obj
 0001:000023e9       ?UpdateRegistryFromResource@CComModule@ATL@@UAGJPB_WHPAU_ATL_REGMAP_ENTRY@2@@Z 100033e9 f i SoundRecorder.obj
 0001:000023f2       ?UpdateRegistryFromResource@CComModule@ATL@@UAGJIHPAU_ATL_REGMAP_ENTRY@2@@Z 100033f2 f i SoundRecorder.obj
 0001:000023fb       ??_GCComModule@ATL@@UAEPAXI@Z 100033fb f i SoundRecorder.obj
 0001:000023fb       ??_ECComModule@ATL@@UAEPAXI@Z 100033fb f i SoundRecorder.obj
 0001:00002423       ?CreateInstance@?$CComCreator@V?$CComObjectCached@VCComClassFactory@ATL@@@ATL@@@ATL@@SGJPAXABU_GUID@@PAPAX@Z 10003423 f i SoundRecorder.obj
 0001:000024c4       ?CreateInstance@?$CComCreator2@V?$CComCreator@V?$CComObject@VCOPOSSoundRecorder@@@ATL@@@ATL@@V?$CComCreator@V?$CComAggObject@VCOPOSSoundRecorder@@@ATL@@@2@@ATL@@SGJPAXABU_GUID@@PAPAX@Z 100034c4 f i SoundRecorder.obj
 0001:000024e4       ?AddRef@?$CComObjectCached@VCComClassFactory@ATL@@@ATL@@UAGKXZ 100034e4 f i SoundRecorder.obj
 0001:0000250b       ?Release@?$CComObjectCached@VCComClassFactory@ATL@@@ATL@@UAGKXZ 1000350b f i SoundRecorder.obj
 0001:00002541       ?QueryInterface@?$CComObjectCached@VCComClassFactory@ATL@@@ATL@@UAGJABU_GUID@@PAPAX@Z 10003541 f i SoundRecorder.obj
 0001:0000255b       ??_G?$CComObjectCached@VCComClassFactory@ATL@@@ATL@@UAEPAXI@Z 1000355b f i SoundRecorder.obj
 0001:0000255b       ??_E?$CComObjectCached@VCComClassFactory@ATL@@@ATL@@UAEPAXI@Z 1000355b f i SoundRecorder.obj
 0001:0000257d       ?Next@?$CComEnumImpl@UIEnumConnectionPoints@@$1?_GUID_b196b285_bab4_101a_b69c_00aa00341d07@@3U__s_GUID@@BPAUIConnectionPoint@@V?$_CopyInterface@UIConnectionPoint@@@ATL@@@ATL@@UAGJKPAPAUIConnectionPoint@@PAK@Z 1000357d f i SoundRecorder.obj
 0001:0000264c       ?Skip@?$CComEnumImpl@UIEnumConnectionPoints@@$1?_GUID_b196b285_bab4_101a_b69c_00aa00341d07@@3U__s_GUID@@BPAUIConnectionPoint@@V?$_CopyInterface@UIConnectionPoint@@@ATL@@@ATL@@UAGJK@Z 1000364c f i SoundRecorder.obj
 0001:00002679       ?Clone@?$CComEnumImpl@UIEnumConnectionPoints@@$1?_GUID_b196b285_bab4_101a_b69c_00aa00341d07@@3U__s_GUID@@BPAUIConnectionPoint@@V?$_CopyInterface@UIConnectionPoint@@@ATL@@@ATL@@UAGJPAPAUIEnumConnectionPoints@@@Z 10003679 f i SoundRecorder.obj
 0001:0000275a       ?QueryInterface@?$CComObject@V?$CComEnum@UIEnumConnectionPoints@@$1?_GUID_b196b285_bab4_101a_b69c_00aa00341d07@@3U__s_GUID@@BPAUIConnectionPoint@@V?$_CopyInterface@UIConnectionPoint@@@ATL@@VCComSingleThreadModel@6@@ATL@@@ATL@@UAGJABU_GUID@@PAPAX@Z 1000375a f i SoundRecorder.obj
 0001:00002774       ??_E?$CComObject@V?$CComEnum@UIEnumConnectionPoints@@$1?_GUID_b196b285_bab4_101a_b69c_00aa00341d07@@3U__s_GUID@@BPAUIConnectionPoint@@V?$_CopyInterface@UIConnectionPoint@@@ATL@@VCComSingleThreadModel@6@@ATL@@@ATL@@UAEPAXI@Z 10003774 f i SoundRecorder.obj
 0001:00002774       ??_G?$CComObject@V?$CComEnum@UIEnumConnectionPoints@@$1?_GUID_b196b285_bab4_101a_b69c_00aa00341d07@@3U__s_GUID@@BPAUIConnectionPoint@@V?$_CopyInterface@UIConnectionPoint@@@ATL@@VCComSingleThreadModel@6@@ATL@@@ATL@@UAEPAXI@Z 10003774 f i SoundRecorder.obj
 0001:00002796       ?AddRef@CRegObject@ATL@@UAGKXZ 10003796 f i SoundRecorder.obj
 0001:0000279c       ?AddReplacement@CRegObject@ATL@@UAGJPB_W0@Z 1000379c f i SoundRecorder.obj
 0001:000027d5       ?ClearReplacements@CRegObject@ATL@@UAGJXZ 100037d5 f i SoundRecorder.obj
 0001:000027e7       ??_ECRegObject@ATL@@UAEPAXI@Z 100037e7 f i SoundRecorder.obj
 0001:000027e7       ??_GCRegObject@ATL@@UAEPAXI@Z 100037e7 f i SoundRecorder.obj
 0001:00002809       ?AddRef@?$CComAggObject@VCOPOSSoundRecorder@@@ATL@@UAGKXZ 10003809 f i SoundRecorder.obj
 0001:0000281a       ?Release@?$CComAggObject@VCOPOSSoundRecorder@@@ATL@@UAGKXZ 1000381a f i SoundRecorder.obj
 0001:00002856       ?QueryInterface@?$CComAggObject@VCOPOSSoundRecorder@@@ATL@@UAGJABU_GUID@@PAPAX@Z 10003856 f i SoundRecorder.obj
 0001:000028a5       ?AddRef@?$CComContainedObject@VCOPOSSoundRecorder@@@ATL@@UAGKXZ 100038a5 f i SoundRecorder.obj
 0001:000028bb       ?Release@?$CComContainedObject@VCOPOSSoundRecorder@@@ATL@@UAGKXZ 100038bb f i SoundRecorder.obj
 0001:000028d1       ?QueryInterface@?$CComContainedObject@VCOPOSSoundRecorder@@@ATL@@UAGJABU_GUID@@PAPAX@Z 100038d1 f i SoundRecorder.obj
 0001:000028ec       ??_E?$CComAggObject@VCOPOSSoundRecorder@@@ATL@@UAEPAXI@Z 100038ec f i SoundRecorder.obj
 0001:000028ec       ??_G?$CComAggObject@VCOPOSSoundRecorder@@@ATL@@UAEPAXI@Z 100038ec f i SoundRecorder.obj
 0001:00002911       ?AddRef@?$CComObject@VCOPOSSoundRecorder@@@ATL@@UAGKXZ 10003911 f i SoundRecorder.obj
 0001:00002928       ?Release@?$CComObject@VCOPOSSoundRecorder@@@ATL@@UAGKXZ 10003928 f i SoundRecorder.obj
 0001:0000296a       ?QueryInterface@?$CComObject@VCOPOSSoundRecorder@@@ATL@@UAGJABU_GUID@@PAPAX@Z 1000396a f i SoundRecorder.obj
 0001:00002984       ??$?4UITypeInfo2@@@?$CComPtr@UITypeInfo@@@ATL@@QAEPAUITypeInfo@@ABV?$CComPtr@UITypeInfo2@@@1@@Z 10003984 f i SoundRecorder.obj
 0001:000029b1       ??$AtlAdd@K@ATL@@YAJPAKKK@Z 100039b1 f i SoundRecorder.obj
 0001:000029d4       ??$AtlAdd@_K@ATL@@YAJPA_K_K1@Z 100039d4 f i SoundRecorder.obj
 0001:00002a0c       ??$AtlAddThrow@K@ATL@@YAKKK@Z 10003a0c f i SoundRecorder.obj
 0001:00002a32       ??$AtlModuleRegisterWndClassInfoT@VAtlModuleRegisterWndClassInfoParamW@ATL@@@ATL@@YAGPAU_ATL_BASE_MODULE70@0@PAU_ATL_WIN_MODULE70@0@PAU_ATL_WNDCLASSINFOW@0@PAP6GJPAUHWND__@@IIJ@ZVAtlModuleRegisterWndClassInfoParamW@0@@Z 10003a32 f i SoundRecorder.obj
 0001:00002b7f       ??$AtlMultiply@H@ATL@@YAJPAHHH@Z 10003b7f f i SoundRecorder.obj
 0001:00002bb7       ??$AtlMultiply@I@ATL@@YAJPAIII@Z 10003bb7 f i SoundRecorder.obj
 0001:00002bb7       ??$AtlMultiply@K@ATL@@YAJPAKKK@Z 10003bb7 f i SoundRecorder.obj
 0001:00002bd9       ??$AtlMultiplyThrow@I@ATL@@YAIII@Z 10003bd9 f i SoundRecorder.obj
 0001:00002bff       ??0?$CComAggObject@VCOPOSSoundRecorder@@@ATL@@QAE@PAX@Z 10003bff f i SoundRecorder.obj
 0001:00002c2c       ??0?$CComContainedObject@VCOPOSSoundRecorder@@@ATL@@QAE@PAX@Z 10003c2c f i SoundRecorder.obj
 0001:00002ce5       ??0?$CComObject@V?$CComEnum@UIEnumConnectionPoints@@$1?_GUID_b196b285_bab4_101a_b69c_00aa00341d07@@3U__s_GUID@@BPAUIConnectionPoint@@V?$_CopyInterface@UIConnectionPoint@@@ATL@@VCComSingleThreadModel@6@@ATL@@@ATL@@QAE@PAX@Z 10003ce5 f i SoundRecorder.obj
 0001:00002d13       ??0?$CComObject@V?$CComEnum@UIEnumConnections@@$1?_GUID_b196b287_bab4_101a_b69c_00aa00341d07@@3U__s_GUID@@BUtagCONNECTDATA@@V?$_Copy@UtagCONNECTDATA@@@ATL@@VCComSingleThreadModel@6@@ATL@@@ATL@@QAE@PAX@Z 10003d13 f i SoundRecorder.obj
 0001:00002d41       ??0?$CComObject@VCOPOSSoundRecorder@@@ATL@@QAE@PAX@Z 10003d41 f i SoundRecorder.obj
 0001:00002df8       ??0?$CComQIPtr@UIOleControlSite@@$1?_GUID_b196b289_bab4_101a_b69c_00aa00341d07@@3U__s_GUID@@B@ATL@@QAE@PAUIUnknown@@@Z 10003df8 f i SoundRecorder.obj
 0001:00002e21       ??0CAtlModule@ATL@@QAE@XZ  10003e21 f i SoundRecorder.obj
 0001:00002e62       ??0CParseBuffer@CRegParser@ATL@@QAE@H@Z 10003e62 f i SoundRecorder.obj
 0001:00002e98       ??0_ATL_MSG@ATL@@QAE@PAUHWND__@@IIJH@Z 10003e98 f i SoundRecorder.obj
 0001:00002ed0       ??1?$CComAggObject@VCOPOSSoundRecorder@@@ATL@@UAE@XZ 10003ed0 f i SoundRecorder.obj
 0001:00002ef4       ??1?$CComEnumImpl@UIEnumConnectionPoints@@$1?_GUID_b196b285_bab4_101a_b69c_00aa00341d07@@3U__s_GUID@@BPAUIConnectionPoint@@V?$_CopyInterface@UIConnectionPoint@@@ATL@@@ATL@@UAE@XZ 10003ef4 f i SoundRecorder.obj
 0001:00002f30       ??1?$CComEnumImpl@UIEnumConnections@@$1?_GUID_b196b287_bab4_101a_b69c_00aa00341d07@@3U__s_GUID@@BUtagCONNECTDATA@@V?$_Copy@UtagCONNECTDATA@@@ATL@@@ATL@@UAE@XZ 10003f30 f i SoundRecorder.obj
 0001:00002f6c       ??1?$CComObject@V?$CComEnum@UIEnumConnectionPoints@@$1?_GUID_b196b285_bab4_101a_b69c_00aa00341d07@@3U__s_GUID@@BPAUIConnectionPoint@@V?$_CopyInterface@UIConnectionPoint@@@ATL@@VCComSingleThreadModel@6@@ATL@@@ATL@@UAE@XZ 10003f6c f i SoundRecorder.obj
 0001:00002f8f       ??1?$CComObject@V?$CComEnum@UIEnumConnections@@$1?_GUID_b196b287_bab4_101a_b69c_00aa00341d07@@3U__s_GUID@@BUtagCONNECTDATA@@V?$_Copy@UtagCONNECTDATA@@@ATL@@VCComSingleThreadModel@6@@ATL@@@ATL@@UAE@XZ 10003f8f f i SoundRecorder.obj
 0001:00002fb2       ??1?$CComObject@VCOPOSSoundRecorder@@@ATL@@UAE@XZ 10003fb2 f i SoundRecorder.obj
 0001:00003070       ??1?$CComObjectCached@VCComClassFactory@ATL@@@ATL@@UAE@XZ 10004070 f i SoundRecorder.obj
 0001:00003086       ??1?$CComObjectRootEx@VCComMultiThreadModel@ATL@@@ATL@@QAE@XZ 10004086 f i SoundRecorder.obj
 0001:0000309b       ??1CRegObject@ATL@@UAE@XZ  1000409b f i SoundRecorder.obj
 0001:000030bb       ??4?$CComPtr@UIUnknown@@@ATL@@QAEPAUIUnknown@@PAU2@@Z 100040bb f i SoundRecorder.obj
 0001:000030bb       ??4?$CComPtr@UIAdviseSink@@@ATL@@QAEPAUIAdviseSink@@PAU2@@Z 100040bb f i SoundRecorder.obj
 0001:000030bb       ??4?$CComPtr@UIOleClientSite@@@ATL@@QAEPAUIOleClientSite@@PAU2@@Z 100040bb f i SoundRecorder.obj
 0001:000030e9       ??_E?$CComContainedObject@VCOPOSSoundRecorder@@@ATL@@UAEPAXI@Z 100040e9 f i SoundRecorder.obj
 0001:000030e9       ??_G?$CComContainedObject@VCOPOSSoundRecorder@@@ATL@@UAEPAXI@Z 100040e9 f i SoundRecorder.obj
 0001:0000310e       ??_G?$CComObject@VCOPOSSoundRecorder@@@ATL@@UAEPAXI@Z 1000410e f i SoundRecorder.obj
 0001:0000310e       ??_E?$CComObject@VCOPOSSoundRecorder@@@ATL@@UAEPAXI@Z 1000410e f i SoundRecorder.obj
 0001:00003133       ?Add@?$CSimpleArray@GV?$CSimpleArrayEqualHelper@G@ATL@@@ATL@@QAEHABG@Z 10004133 f i SoundRecorder.obj
 0001:000031ad       ?Add@?$CSimpleMap@PA_WPA_WVCExpansionVectorEqualHelper@ATL@@@ATL@@QAEHABQA_W0@Z 100041ad f i SoundRecorder.obj
 0001:00003202       ?Add@CComDynamicUnkArray@ATL@@QAEKPAUIUnknown@@@Z 10004202 f i SoundRecorder.obj
 0001:000032b3       ?Add@CExpansionVector@ATL@@QAEHPB_W0@Z 100042b3 f i SoundRecorder.obj
 0001:000033bc       ?AddString@CParseBuffer@CRegParser@ATL@@QAEHPB_W@Z 100043bc f i SoundRecorder.obj
 0001:000033f1       ?AddTermFunc@CAtlModule@ATL@@QAEJP6GXK@ZK@Z 100043f1 f i SoundRecorder.obj
 0001:0000345d       ?AddValue@CRegParser@ATL@@IAEJAAVCRegKey@2@PB_WPA_W@Z 1000445d f i SoundRecorder.obj
 0001:00003777       ?Allocate@?$CAtlSafeAllocBufferManager@VCCRTAllocator@ATL@@@_ATL_SAFE_ALLOCA_IMPL@ATL@@QAEPAXK@Z 10004777 f i SoundRecorder.obj
 0001:000037a4       ?Allocate@?$CTempBuffer@E$0BAA@VCCRTAllocator@ATL@@@ATL@@QAEPAEI@Z 100047a4 f i SoundRecorder.obj
 0001:000037d3       ?Allocate@?$CTempBuffer@_W$0BAA@VCCRTAllocator@ATL@@@ATL@@QAEPA_WI@Z 100047d3 f i SoundRecorder.obj
 0001:00003802       ?Allocate@?$CTempBuffer@_W$0EAA@VCCRTAllocator@ATL@@@ATL@@QAEPA_WI@Z 10004802 f i SoundRecorder.obj
 0001:00003831       ?AllocateHeap@?$CTempBuffer@E$0BAA@VCCRTAllocator@ATL@@@ATL@@AAEXI@Z 10004831 f i SoundRecorder.obj
 0001:00003831       ?AllocateHeap@?$CTempBuffer@_W$0BAA@VCCRTAllocator@ATL@@@ATL@@AAEXI@Z 10004831 f i SoundRecorder.obj
 0001:00003831       ?AllocateHeap@?$CTempBuffer@_W$0EAA@VCCRTAllocator@ATL@@@ATL@@AAEXI@Z 10004831 f i SoundRecorder.obj
 0001:00003856       ?Append@CParseBuffer@CRegParser@ATL@@QAEHPB_WH@Z 10004856 f i SoundRecorder.obj
 0001:000038e2       ?AtlCoTaskMemCAlloc@ATL@@YAPAXKK@Z 100048e2 f i SoundRecorder.obj
 0001:0000390f       ?AtlCoTaskMemRecalloc@ATL@@YAPAXPAXKK@Z 1000490f f i SoundRecorder.obj
 0001:0000393f       ?AtlComModuleGetClassObject@ATL@@YGJPAU_ATL_COM_MODULE70@1@ABU_GUID@@1PAPAX@Z 1000493f f i SoundRecorder.obj
 0001:00003a34       ?AtlComModuleRegisterServer@ATL@@YGJPAU_ATL_COM_MODULE70@1@HPBU_GUID@@@Z 10004a34 f i SoundRecorder.obj
 0001:00003abc       ?AtlComModuleUnregisterServer@ATL@@YGJPAU_ATL_COM_MODULE70@1@HPBU_GUID@@@Z 10004abc f i SoundRecorder.obj
 0001:00003b44       ?AtlComQIPtrAssign2@ATL@@YAXPAPAUIUnknown@@PAU2@ABU_GUID@@@Z 10004b44 f i SoundRecorder.obj
 0001:00003b73       ?AtlCreateTargetDC@ATL@@YGPAUHDC__@@PAU2@PAUtagDVTARGETDEVICE@@@Z 10004b73 f i SoundRecorder.obj
 0001:00003bdc       ?AtlCrtErrorCheck@ATL@@YAHH@Z 10004bdc f i SoundRecorder.obj
 0001:00003c17       ?AtlHiMetricToPixel@ATL@@YGXPBUtagSIZE@@PAU2@@Z 10004c17 f i SoundRecorder.obj
 0001:00003c8c       ?AtlHresultFromLastError@ATL@@YAJXZ 10004c8c f i SoundRecorder.obj
 0001:00003ca3       ?AtlHresultFromWin32@ATL@@YAJK@Z 10004ca3 f i SoundRecorder.obj
 0001:00003cb8       ?AtlInternalOleLoadFromStream@ATL@@YAJPAUIStream@@ABU_GUID@@PAPAXTClassesAllowedInStream@1@K@Z 10004cb8 f i SoundRecorder.obj
 0001:00003de1       ?AtlInternalQueryInterface@ATL@@YGJPAXPBU_ATL_INTMAP_ENTRY@1@ABU_GUID@@PAPAX@Z 10004de1 f i SoundRecorder.obj
 0001:00003e84       ?AtlLoadTypeLib@ATL@@YGJPAUHINSTANCE__@@PB_WPAPA_WPAPAUITypeLib@@@Z 10004e84 f i SoundRecorder.obj
 0001:00004062       ?AtlRegisterClassCategoriesHelper@ATL@@YGJABU_GUID@@PBU_ATL_CATMAP_ENTRY@1@H@Z 10005062 f i SoundRecorder.obj
 0001:0000435e       ?AtlRegisterTypeLib@ATL@@YGJPAUHINSTANCE__@@PB_W@Z 1000535e f i SoundRecorder.obj
 0001:000044e6       ?AtlThrowImpl@ATL@@YGXJ@Z  100054e6 f i SoundRecorder.obj
 0001:00004504       ?AtlUnRegisterTypeLib@ATL@@YGJPAUHINSTANCE__@@PB_W@Z 10005504 f i SoundRecorder.obj
 0001:000045af       ?AtlWinModuleAddCreateWndData@ATL@@YGXPAU_ATL_WIN_MODULE70@1@PAU_AtlCreateWndData@1@PAX@Z 100055af f i SoundRecorder.obj
 0001:00004603       ?AtlWinModuleExtractCreateWndData@ATL@@YGPAXPAU_ATL_WIN_MODULE70@1@@Z 10005603 f i SoundRecorder.obj
 0001:00004667       ?AtlWinModuleRegisterClassExW@ATL@@YGGPAU_ATL_WIN_MODULE70@1@PBUtagWNDCLASSEXW@@@Z 10005667 f i SoundRecorder.obj
 0001:000046a6       ?CanForceRemoveKey@CRegParser@ATL@@IAEHPB_W@Z 100056a6 f i SoundRecorder.obj
 0001:000046d5       ?ChToByte@CRegParser@ATL@@KAE_W@Z 100056d5 f i SoundRecorder.obj
 0001:0000475d       ?Cleanup@CComTypeInfoHolder@ATL@@SGXK@Z 1000575d f i SoundRecorder.obj
 0001:00004790       ?ClearReplacements@CExpansionVector@ATL@@QAEJXZ 10005790 f i SoundRecorder.obj
 0001:000047cd       ?Close@CRegKey@ATL@@QAEJXZ 100057cd f i SoundRecorder.obj
 0001:000047e7       ?CreateInstance@?$CComCreator@V?$CComAggObject@VCOPOSSoundRecorder@@@ATL@@@ATL@@SGJPAXABU_GUID@@PAPAX@Z 100057e7 f i SoundRecorder.obj
 0001:0000485c       ?CreateInstance@?$CComCreator@V?$CComObject@VCOPOSSoundRecorder@@@ATL@@@ATL@@SGJPAXABU_GUID@@PAPAX@Z 1000585c f i SoundRecorder.obj
 0001:000048e5       ?CreateInstance@?$CComObject@V?$CComEnum@UIEnumConnectionPoints@@$1?_GUID_b196b285_bab4_101a_b69c_00aa00341d07@@3U__s_GUID@@BPAUIConnectionPoint@@V?$_CopyInterface@UIConnectionPoint@@@ATL@@VCComSingleThreadModel@6@@ATL@@@ATL@@SGJPAPAV12@@Z 100058e5 f i SoundRecorder.obj
 0001:0000492f       ?CreateInstance@?$CComObject@V?$CComEnum@UIEnumConnections@@$1?_GUID_b196b287_bab4_101a_b69c_00aa00341d07@@3U__s_GUID@@BUtagCONNECTDATA@@V?$_Copy@UtagCONNECTDATA@@@ATL@@VCComSingleThreadModel@6@@ATL@@@ATL@@SGJPAPAV12@@Z 1000592f f i SoundRecorder.obj
 0001:00004979       ?DefaultReflectionHandler@?$CWindowImplRoot@VCWindow@ATL@@@ATL@@SAHPAUHWND__@@IIJAAJ@Z 10005979 f i SoundRecorder.obj
 0001:00004a19       ?DeleteSubKey@CRegKey@ATL@@QAEJPB_W@Z 10005a19 f i SoundRecorder.obj
 0001:00004a92       ?DoEvent@COPOSSoundRecorder@@IAEXIIJ@Z 10005a92 f i SoundRecorder.obj
 0001:00004b12       ?DoVerbHide@?$IOleObjectImpl@VCOPOSSoundRecorder@@@ATL@@QAEJPBUtagRECT@@PAUHWND__@@@Z 10005b12 f i SoundRecorder.obj
 0001:00004b48       ?DoVerbInPlaceActivate@?$IOleObjectImpl@VCOPOSSoundRecorder@@@ATL@@QAEJPBUtagRECT@@PAUHWND__@@@Z 10005b48 f i SoundRecorder.obj
 0001:00004b7b       ?DoVerbPrimary@?$IOleObjectImpl@VCOPOSSoundRecorder@@@ATL@@QAEJPBUtagRECT@@PAUHWND__@@@Z 10005b7b f i SoundRecorder.obj
 0001:00004c07       ?DoVerbProperties@CComControlBase@ATL@@QAEJPBUtagRECT@@PAUHWND__@@@Z 10005c07 f i SoundRecorder.obj
 0001:00004d86       ?DoVerbUIActivate@?$IOleObjectImpl@VCOPOSSoundRecorder@@@ATL@@QAEJPBUtagRECT@@PAUHWND__@@@Z 10005d86 f i SoundRecorder.obj
 0001:00004dc3       ?DoesVerbActivate@CComControlBase@ATL@@QAEHJ@Z 10005dc3 f i SoundRecorder.obj
 0001:00004de7       ?DoesVerbUIActivate@CComControlBase@ATL@@QAEHJ@Z 10005de7 f i SoundRecorder.obj
 0001:00004e1c       ?EndOfVar@CRegParser@ATL@@IAEHXZ 10005e1c f i SoundRecorder.obj
 0001:00004e3c       ?EscapeSingleQuote@CAtlModule@ATL@@SAXPA_WIPB_W@Z 10005e3c f i SoundRecorder.obj
 0001:00004e8b       ?FindKey@?$CSimpleMap@PA_WPA_WVCExpansionVectorEqualHelper@ATL@@@ATL@@QBEHABQA_W@Z 10005e8b f i SoundRecorder.obj
 0001:00004ec2       ?FireTheEvent@?$CProxy_IOPOSEvents@VCOPOSSoundRecorder@@@@IAEXPAVOposVariant@@IAAJPB_WJ@Z 10005ec2 f i SoundRecorder.obj
 0001:00004f54       ?FireViewChange@CComControlBase@ATL@@QAEJXZ 10005f54 f i SoundRecorder.obj
 0001:00004f9d       ?Fire_DataEvent@?$CProxy_IOPOSEvents@VCOPOSSoundRecorder@@@@QAEXJ@Z 10005f9d f i SoundRecorder.obj
 0001:00005033       ?Fire_DirectIOEvent@?$CProxy_IOPOSEvents@VCOPOSSoundRecorder@@@@QAEXJPAJPAPA_W@Z 10006033 f i SoundRecorder.obj
 0001:0000511f       ?Fire_ErrorEvent@?$CProxy_IOPOSEvents@VCOPOSSoundRecorder@@@@QAEXJJJPAJ@Z 1000611f f i SoundRecorder.obj
 0001:00005210       ?Fire_StatusUpdateEvent@?$CProxy_IOPOSEvents@VCOPOSSoundRecorder@@@@QAEXJ@Z 10006210 f i SoundRecorder.obj
 0001:000052a6       ?FreeHeap@?$CTempBuffer@_W$0EAA@VCCRTAllocator@ATL@@@ATL@@AAEXXZ 100062a6 f i SoundRecorder.obj
 0001:000052a6       ?FreeHeap@?$CTempBuffer@_W$0BAA@VCCRTAllocator@ATL@@@ATL@@AAEXXZ 100062a6 f i SoundRecorder.obj
 0001:000052a6       ?FreeHeap@?$CTempBuffer@E$0BAA@VCCRTAllocator@ATL@@@ATL@@AAEXXZ 100062a6 f i SoundRecorder.obj
 0001:000052af       ?GetAmbientLocaleID@CComControlBase@ATL@@QAEJAAK@Z 100062af f i SoundRecorder.obj
 0001:0000530b       ?GetAmbientUserMode@CComControlBase@ATL@@QAEJAAH@Z 1000630b f i SoundRecorder.obj
 0001:0000537b       ?GetAt@CComDynamicUnkArray@ATL@@QAEPAUIUnknown@@H@Z 1000637b f i SoundRecorder.obj
 0001:00005397       ?GetClassObject@CComModule@ATL@@QAEJABU_GUID@@0PAPAX@Z 10006397 f i SoundRecorder.obj
 0001:00005439       ?GetConnMap@COPOSSoundRecorder@@SAPBU_ATL_CONNMAP_ENTRY@ATL@@PAH@Z 10006439 f i SoundRecorder.obj
 0001:000054a9       ?GetCookie@CComDynamicUnkArray@ATL@@QAGKPAPAUIUnknown@@@Z 100064a9 f i SoundRecorder.obj
 0001:000054e1       ?GetIDsOfNames@CComTypeInfoHolder@ATL@@QAEJABU_GUID@@PAPA_WIKPAJ@Z 100064e1 f i SoundRecorder.obj
 0001:00005601       ?GetKeyAt@?$CSimpleMap@PA_WPA_WVCExpansionVectorEqualHelper@ATL@@@ATL@@QBEAAPA_WH@Z 10006601 f i SoundRecorder.obj
 0001:00005626       ?GetPagesHelper@?$ISpecifyPropertyPagesImpl@VCOPOSSoundRecorder@@@ATL@@IAEJPAUtagCAUUID@@PBUATL_PROPMAP_ENTRY@2@@Z 10006626 f i SoundRecorder.obj
 0001:0000574d       ?GetProperty@?$CComPtr@UIDispatch@@@ATL@@SAJPAUIDispatch@@JPAUtagVARIANT@@@Z 1000674d f i SoundRecorder.obj
 0001:0000579c       ?GetSizeMax@CComVariant@ATL@@QBEJPAT_ULARGE_INTEGER@@@Z 1000679c f i SoundRecorder.obj
 0001:0000595e       ?GetTI@CComTypeInfoHolder@ATL@@QAEJK@Z 1000695e f i SoundRecorder.obj
 0001:00005b3e       ?GetTI@CComTypeInfoHolder@ATL@@QAEJKPAPAUITypeInfo@@@Z 10006b3e f i SoundRecorder.obj
 0001:00005b7c       ?GetUnknown@CComDynamicUnkArray@ATL@@QAGPAUIUnknown@@K@Z 10006b7c f i SoundRecorder.obj
 0001:00005b9d       ?GetValueAt@?$CSimpleMap@PA_WPA_WVCExpansionVectorEqualHelper@ATL@@@ATL@@QBEAAPA_WH@Z 10006b9d f i SoundRecorder.obj
 0001:00005bc3       ?GetZoomInfo@CComControlBase@ATL@@QAEXAAUATL_DRAWINFO@@@Z 10006bc3 f i SoundRecorder.obj
 0001:00005c56       ?HKeyFromString@CRegParser@ATL@@KAPAUHKEY__@@PA_W@Z 10006c56 f i SoundRecorder.obj
 0001:00005c84       ?HasSubKeys@CRegParser@ATL@@IAEHPAUHKEY__@@@Z 10006c84 f i SoundRecorder.obj
 0001:00005cb9       ?IDataObject_GetData@CComControlBase@ATL@@QAEJPAUtagFORMATETC@@PAUtagSTGMEDIUM@@@Z 10006cb9 f i SoundRecorder.obj
 0001:00005e5b       ?IOleInPlaceObject_InPlaceDeactivate@CComControlBase@ATL@@QAEJXZ 10006e5b f i SoundRecorder.obj
 0001:00005ee2       ?IOleInPlaceObject_SetObjectRects@CComControlBase@ATL@@QAEJPBUtagRECT@@0@Z 10006ee2 f i SoundRecorder.obj
 0001:00005faf       ?IOleInPlaceObject_UIDeactivate@CComControlBase@ATL@@QAEJXZ 10006faf f i SoundRecorder.obj
 0001:00006071       ?IOleObject_Advise@CComControlBase@ATL@@QAEJPAUIAdviseSink@@PAK@Z 10007071 f i SoundRecorder.obj
 0001:0000609b       ?IOleObject_Close@CComControlBase@ATL@@QAEJK@Z 1000709b f i SoundRecorder.obj
 0001:0000617f       ?IOleObject_GetClientSite@CComControlBase@ATL@@QAEJPAPAUIOleClientSite@@@Z 1000717f f i SoundRecorder.obj
 0001:000061a8       ?IOleObject_SetClientSite@CComControlBase@ATL@@QAEJPAUIOleClientSite@@@Z 100071a8 f i SoundRecorder.obj
 0001:000061e7       ?IOleObject_SetExtent@CComControlBase@ATL@@QAEJKPAUtagSIZE@@@Z 100071e7 f i SoundRecorder.obj
 0001:00006299       ?IPSI_GetIPersistStreamInit@?$IPersistStorageImpl@VCOPOSSoundRecorder@@@ATL@@AAEPAUIPersistStreamInit@@XZ 10007299 f i SoundRecorder.obj
 0001:00006341       ?IPersistStreamInit_Load@?$IPersistStreamInitImpl@VCOPOSSoundRecorder@@@ATL@@QAEJPAUIStream@@PBUATL_PROPMAP_ENTRY@2@@Z 10007341 f i SoundRecorder.obj
 0001:000065b7       ?IPersistStreamInit_Save@?$IPersistStreamInitImpl@VCOPOSSoundRecorder@@@ATL@@QAEJPAUIStream@@HPBUATL_PROPMAP_ENTRY@2@@Z 100075b7 f i SoundRecorder.obj
 0001:000067a6       ?IQuickActivate_QuickActivate@CComControlBase@ATL@@QAEJPAUtagQACONTAINER@@PAUtagQACONTROL@@@Z 100077a6 f i SoundRecorder.obj
 0001:000069e8       ?IViewObject_Draw@CComControlBase@ATL@@QAEJKJPAXPAUtagDVTARGETDEVICE@@PAUHDC__@@2PBU_RECTL@@3@Z 100079e8 f i SoundRecorder.obj
 0001:00006a90       ?InPlaceActivate@CComControlBase@ATL@@QAEJJPBUtagRECT@@@Z 10007a90 f i SoundRecorder.obj
 0001:00006d02       ?Init@?$CComEnumImpl@UIEnumConnectionPoints@@$1?_GUID_b196b285_bab4_101a_b69c_00aa00341d07@@3U__s_GUID@@BPAUIConnectionPoint@@V?$_CopyInterface@UIConnectionPoint@@@ATL@@@ATL@@QAEJPAPAUIConnectionPoint@@0PAUIUnknown@@W4CComEnumFlags@2@@Z 10007d02 f i SoundRecorder.obj
 0001:00006dde       ?Init@?$CComEnumImpl@UIEnumConnections@@$1?_GUID_b196b287_bab4_101a_b69c_00aa00341d07@@3U__s_GUID@@BUtagCONNECTDATA@@V?$_Copy@UtagCONNECTDATA@@@ATL@@@ATL@@QAEJPAUtagCONNECTDATA@@0PAUIUnknown@@W4CComEnumFlags@2@@Z 10007dde f i SoundRecorder.obj
 0001:00006eba       ?Init@CComModule@ATL@@QAEJPAU_ATL_OBJMAP_ENTRY30@2@PAUHINSTANCE__@@PBU_GUID@@@Z 10007eba f i SoundRecorder.obj
 0001:00006f19       ?Init@CDynamicStdCallThunk2@ATL@@QAEHKPAX@Z 10007f19 f i SoundRecorder.obj
 0001:00006f44       ?InlineIsEqualUnknown@ATL@@YGHABU_GUID@@@Z 10007f44 f i SoundRecorder.obj
 0001:00006f6c       ?InternalSetAtIndex@?$CSimpleMap@PA_WPA_WVCExpansionVectorEqualHelper@ATL@@@ATL@@QAEXHABQA_W0@Z 10007f6c f i SoundRecorder.obj
 0001:00006f96       ?Invoke@CComTypeInfoHolder@ATL@@QAEJPAUIDispatch@@JABU_GUID@@KGPAUtagDISPPARAMS@@PAUtagVARIANT@@PAUtagEXCEPINFO@@PAI@Z 10007f96 f i SoundRecorder.obj
 0001:00006fd7       ?IsEqualObject@?$CComPtrBase@UITypeInfo@@@ATL@@QAE_NPAUIUnknown@@@Z 10007fd7 f i SoundRecorder.obj
 0001:00006fd7       ?IsEqualObject@?$CComPtrBase@UIOleClientSite@@@ATL@@QAE_NPAUIUnknown@@@Z 10007fd7 f i SoundRecorder.obj
 0001:00007043       ?IsSpace@CRegParser@ATL@@IAEH_W@Z 10008043 f i SoundRecorder.obj
 0001:00007069       ?LoadNameCache@CComTypeInfoHolder@ATL@@QAEJPAUITypeInfo@@@Z 10008069 f i SoundRecorder.obj
 0001:0000719e       ?Lookup@?$CSimpleMap@PA_WPA_WVCExpansionVectorEqualHelper@ATL@@@ATL@@QBEPA_WABQA_W@Z 1000819e f i SoundRecorder.obj
 0001:000071c4       ?NextToken@CRegParser@ATL@@IAEJPA_W@Z 100081c4 f i SoundRecorder.obj
 0001:000072f3       ?OnKillFocus@CComControlBase@ATL@@QAEJIIJAAH@Z 100082f3 f i SoundRecorder.obj
 0001:0000734e       ?OnMouseActivate@CComControlBase@ATL@@QAEJIIJAAH@Z 1000834e f i SoundRecorder.obj
 0001:000073bc       ?OnPaint@CComControlBase@ATL@@QAEJIIJAAH@Z 100083bc f i SoundRecorder.obj
 0001:00007473       ?OnSetFocus@CComControlBase@ATL@@QAEJIIJAAH@Z 10008473 f i SoundRecorder.obj
 0001:000074fe       ?Open@CRegKey@ATL@@QAEJPAUHKEY__@@PB_WK@Z 100084fe f i SoundRecorder.obj
 0001:00007553       ?PreProcessBuffer@CRegParser@ATL@@QAEJPA_WPAPA_W@Z 10008553 f i SoundRecorder.obj
 0001:000077c3       ?ProcessWindowMessage@?$CComControl@VCOPOSSoundRecorder@@V?$CWindowImpl@VCOPOSSoundRecorder@@VCWindow@ATL@@V?$CWinTraits@$0FGAAAAAA@$0A@@3@@ATL@@@ATL@@UAEHPAUHWND__@@IIJAAJK@Z 100087c3 f i SoundRecorder.obj
 0001:0000786b       ?ReadFromStream@CComBSTR@ATL@@QAEJPAUIStream@@@Z 1000886b f i SoundRecorder.obj
 0001:0000798e       ?ReadFromStream@CComVariant@ATL@@QAEJPAUIStream@@GTClassesAllowedInStream@2@K@Z 1000898e f i SoundRecorder.obj
 0001:00007b18       ?RecurseDeleteKey@CRegKey@ATL@@QAEJPB_W@Z 10008b18 f i SoundRecorder.obj
 0001:00007c06       ?RegCreateKeyExW@CAtlTransactionManager@ATL@@QAEJPAUHKEY__@@PB_WKPA_WKKQAU_SECURITY_ATTRIBUTES@@PAPAU3@PAK@Z 10008c06 f i SoundRecorder.obj
 0001:00007c69       ?RegDeleteKeyW@CAtlTransactionManager@ATL@@QAEJPAUHKEY__@@PB_W@Z 10008c69 f i SoundRecorder.obj
 0001:00007cbb       ?RegOpenKeyExW@CAtlTransactionManager@ATL@@QAEJPAUHKEY__@@PB_WKKPAPAU3@@Z 10008cbb f i SoundRecorder.obj
 0001:00007d12       ?Register@_ATL_WNDCLASSINFOW@ATL@@QAEGPAP6GJPAUHWND__@@IIJ@Z@Z 10008d12 f i SoundRecorder.obj
 0001:00007d32       ?RegisterBuffer@CRegParser@ATL@@QAEJPA_WH@Z 10008d32 f i SoundRecorder.obj
 0001:00007e79       ?RegisterFromResource@CRegObject@ATL@@IAEJPB_W00H@Z 10008e79 f i SoundRecorder.obj
 0001:00007faf       ?RegisterServer@?$CAtlModuleT@VCComModule@ATL@@@ATL@@QAEJHPBU_GUID@@@Z 10008faf f i SoundRecorder.obj
 0001:00007fdd       ?RegisterServer@CComModule@ATL@@QAEJHPBU_GUID@@@Z 10008fdd f i SoundRecorder.obj
 0001:0000804e       ?RegisterSubkeys@CRegParser@ATL@@IAEJPA_WPAUHKEY__@@HH@Z 1000904e f i SoundRecorder.obj
 0001:000086aa       ?Remove@CComDynamicUnkArray@ATL@@QAEHK@Z 100096aa f i SoundRecorder.obj
 0001:000086d3       ?RemoveAll@?$CSimpleMap@PA_WPA_WVCExpansionVectorEqualHelper@ATL@@@ATL@@QAEXXZ 100096d3 f i SoundRecorder.obj
 0001:000086ff       ?ResourceRegisterSz@CRegObject@ATL@@QAGJPB_W00@Z 100096ff f i SoundRecorder.obj
 0001:0000872c       ?ResourceUnregisterSz@CRegObject@ATL@@QAGJPB_W00@Z 1000972c f i SoundRecorder.obj
 0001:00008759       ?SendOnDataChange@CComControlBase@ATL@@QAEJK@Z 10009759 f i SoundRecorder.obj
 0001:000087a6       ?SetControlFocus@CComControlBase@ATL@@QAEHH@Z 100097a6 f i SoundRecorder.obj
 0001:00008841       ?SetMultiStringValue@CRegKey@ATL@@QAEJPB_W0@Z 10009841 f i SoundRecorder.obj
 0001:0000889d       ?SetStringValue@CRegKey@ATL@@QAEJPB_W0K@Z 1000989d f i SoundRecorder.obj
 0001:000088e6       ?SkipAssignment@CRegParser@ATL@@IAEJPA_W@Z 100098e6 f i SoundRecorder.obj
 0001:00008952       ?SkipWhiteSpace@CRegParser@ATL@@IAEXXZ 10009952 f i SoundRecorder.obj
 0001:0000897b       ?StrChrW@CRegParser@ATL@@KAPA_WPA_W_W@Z 1000997b f i SoundRecorder.obj
 0001:000089b8       ?Term@CAtlModule@ATL@@QAEXXZ 100099b8 f i SoundRecorder.obj
 0001:00008a35       ?Term@CComModule@ATL@@QAEXXZ 10009a35 f i SoundRecorder.obj
 0001:00008a8d       ?UnregisterServer@?$CAtlModuleT@VCComModule@ATL@@@ATL@@QAEJHPBU_GUID@@@Z 10009a8d f i SoundRecorder.obj
 0001:00008ab3       ?UnregisterServer@CComModule@ATL@@QAEJHPBU_GUID@@@Z 10009ab3 f i SoundRecorder.obj
 0001:00008b24       ?UpdateRegistryFromResource@CAtlModule@ATL@@QAGJIHPAU_ATL_REGMAP_ENTRY@2@@Z 10009b24 f i SoundRecorder.obj
 0001:00008cef       ?UpdateRegistryFromResource@CAtlModule@ATL@@QAGJPB_WHPAU_ATL_REGMAP_ENTRY@2@@Z 10009cef f i SoundRecorder.obj
 0001:00008ec0       ?VTFromRegType@CRegParser@ATL@@KAHPB_WAAG@Z 10009ec0 f i SoundRecorder.obj
 0001:00008f2d       ?WindowProc@?$CWindowImplBaseT@VCWindow@ATL@@V?$CWinTraits@$0FGAAAAAA@$0A@@2@@ATL@@SGJPAUHWND__@@IIJ@Z 10009f2d f i SoundRecorder.obj
 0001:0000901b       ?WriteToStream@CComBSTR@ATL@@QAEJPAUIStream@@@Z 1000a01b f i SoundRecorder.obj
 0001:0000907d       ?WriteToStream@CComVariant@ATL@@QAEJPAUIStream@@@Z 1000a07d f i SoundRecorder.obj
 0001:000091f7       ?WriteToStream@CComVariant@ATL@@QAEJPAUIStream@@G@Z 1000a1f7 f i SoundRecorder.obj
 0001:00009260       ?_AtlInitialConstruct@?$CComObjectRootEx@VCComMultiThreadModel@ATL@@@ATL@@QAEJXZ 1000a260 f i SoundRecorder.obj
 0001:00009275       ?_AtlVerifyStackAvailable@_ATL_SAFE_ALLOCA_IMPL@ATL@@YA_NK@Z 1000a275 f i SoundRecorder.obj
 0001:000092f3       ?atlCreate@?$CWindowImpl@VCOPOSSoundRecorder@@VCWindow@ATL@@V?$CWinTraits@$0FGAAAAAA@$0A@@3@@ATL@@QAEPAUHWND__@@PAU3@V_U_RECT@2@PB_WKKV_U_MENUorID@2@PAX@Z 1000a2f3 f i SoundRecorder.obj
 0001:0000933e       ?atlCreate@?$CWindowImplBaseT@VCWindow@ATL@@V?$CWinTraits@$0FGAAAAAA@$0A@@2@@ATL@@QAEPAUHWND__@@PAU3@V_U_RECT@2@PB_WKKV_U_MENUorID@2@GPAX@Z 1000a33e f i SoundRecorder.obj
 0001:000093da       ?copy@?$_Copy@UtagCONNECTDATA@@@ATL@@SAJPAUtagCONNECTDATA@@PBU3@@Z 1000a3da f i SoundRecorder.obj
 0001:00009410       ?copy@?$_CopyInterface@UIConnectionPoint@@@ATL@@SAJPAPAUIConnectionPoint@@PBQAU3@@Z 1000a410 f i SoundRecorder.obj
 0001:0000943e       ?memcpy_s@Checked@ATL@@YAXPAXIPBXI@Z 1000a43e f i SoundRecorder.obj
 0001:0000945d       ?ocscpy_s@@YA_NPA_WIPB_W@Z 1000a45d f i SoundRecorder.obj
 0001:000094a7       ?wcscpy_s@Checked@ATL@@YAXPA_WIPB_W@Z 1000a4a7 f i SoundRecorder.obj
 0001:000094c3       _DllCanUnloadNow@0         1000a4c3 f   SoundRecorder.obj
 0001:000094cf       _DllGetClassObject@12      1000a4cf f   SoundRecorder.obj
 0001:000094dd       _DllMain@12                1000a4dd f   SoundRecorder.obj
 0001:0000951f       _DllRegisterServer@0       1000a51f f   SoundRecorder.obj
 0001:0000952e       _DllUnregisterServer@0     1000a52e f   SoundRecorder.obj
 0001:0000953d       _InlineIsEqualGUID         1000a53d f i SoundRecorder.obj
 0001:0000956d       ___local_stdio_printf_options 1000a56d f i SoundRecorder.obj
 0001:00009573       __vswprintf_s_l            1000a573 f i SoundRecorder.obj
 0001:00009620       _swprintf_s                1000a620 f i SoundRecorder.obj
 0001:0000963c       ??0?$CComControl@VCOPOSSoundRecorder@@V?$CWindowImpl@VCOPOSSoundRecorder@@VCWindow@ATL@@V?$CWinTraits@$0FGAAAAAA@$0A@@3@@ATL@@@ATL@@QAE@XZ 1000a63c f i SoundRecorderImpl.obj
 0001:00009663       ??0?$CProxy_IOPOSEvents@VCOPOSSoundRecorder@@@@QAE@XZ 1000a663 f i SoundRecorderImpl.obj
 0001:00009686       ??0CComControlBase@ATL@@QAE@AAPAUHWND__@@@Z 1000a686 f i SoundRecorderImpl.obj
 0001:000096d6       ??0COPOSSoundRecorder@@QAE@XZ 1000a6d6 f   SoundRecorderImpl.obj
 0001:0000970c       ??1?$CComControl@VCOPOSSoundRecorder@@V?$CWindowImpl@VCOPOSSoundRecorder@@VCWindow@ATL@@V?$CWinTraits@$0FGAAAAAA@$0A@@3@@ATL@@@ATL@@UAE@XZ 1000a70c f i SoundRecorderImpl.obj
 0001:00009725       ??1?$IConnectionPointImpl@VCOPOSSoundRecorder@@$1?IID_IPropertyNotifySink@@3U_GUID@@BVCComDynamicUnkArray@ATL@@@ATL@@QAE@XZ 1000a725 f i SoundRecorderImpl.obj
 0001:00009725       ??1?$IConnectionPointImpl@VCOPOSSoundRecorder@@$1?DIID__IOPOSSoundRecorderEvents@@3U_GUID@@BVCComDynamicUnkArray@ATL@@@ATL@@QAE@XZ 1000a725 f i SoundRecorderImpl.obj
 0001:00009762       ??1CComControlBase@ATL@@UAE@XZ 1000a762 f i SoundRecorderImpl.obj
 0001:000097c5       ??1COPOSSoundRecorder@@UAE@XZ 1000a7c5 f   SoundRecorderImpl.obj
 0001:0000980d       ?CheckHealth@COPOSSoundRecorder@@UAGJJPAJ@Z 1000a80d f   SoundRecorderImpl.obj
 0001:0000985c       ?ClaimDevice@COPOSSoundRecorder@@UAGJJPAJ@Z 1000a85c f   SoundRecorderImpl.obj
 0001:000098d1       ?ClearInput@COPOSSoundRecorder@@UAGJPAJ@Z 1000a8d1 f   SoundRecorderImpl.obj
 0001:000098ec       ?ClearInputProperties@COPOSSoundRecorder@@UAGJPAJ@Z 1000a8ec f   SoundRecorderImpl.obj
 0001:00009907       ?Close@COPOSSoundRecorder@@UAGJPAJ@Z 1000a907 f   SoundRecorderImpl.obj
 0001:00009975       ?CompareFirmwareVersion@COPOSSoundRecorder@@UAGJPA_WPAJ1@Z 1000a975 f   SoundRecorderImpl.obj
 0001:000099f5       ?DirectIO@COPOSSoundRecorder@@UAGJJPAJPAPA_W0@Z 1000a9f5 f   SoundRecorderImpl.obj
 0001:00009aa3       ?DoInvoke@COPOSSoundRecorder@@IAEJJPAVOposVariant@@IHPAJ_N@Z 1000aaa3 f   SoundRecorderImpl.obj
 0001:00009b7f       ?EventClose@COPOSSoundRecorder@@IAEXXZ 1000ab7f f i SoundRecorderImpl.obj
 0001:00009bb2       ?EventInit@COPOSSoundRecorder@@IAEJXZ 1000abb2 f i SoundRecorderImpl.obj
 0001:00009c86       ?EventUninit@COPOSSoundRecorder@@IAEXXZ 1000ac86 f i SoundRecorderImpl.obj
 0001:00009cd8       ?EventWindowProc@COPOSSoundRecorder@@IAGJIIJ@Z 1000acd8 f i SoundRecorderImpl.obj
 0001:00009dac       ?FinalConstruct@COPOSSoundRecorder@@QAEJXZ 1000adac f   SoundRecorderImpl.obj
 0001:00009de5       ?FireEventCleanup@COPOSSoundRecorder@@IAEXXZ 1000ade5 f i SoundRecorderImpl.obj
 0001:00009dfb       ?FireEventSetup@COPOSSoundRecorder@@IAE_NXZ 1000adfb f i SoundRecorderImpl.obj
 0001:00009e2f       ?FreezeEvents@COPOSSoundRecorder@@MAGJH@Z 1000ae2f f   SoundRecorderImpl.obj
 0001:00009e88       ?GetOposProp@COPOSSoundRecorder@@IAEJJPAFJ@Z 1000ae88 f   SoundRecorderImpl.obj
 0001:00009eab       ?GetOposProp@COPOSSoundRecorder@@IAEJJPAJJ@Z 1000aeab f   SoundRecorderImpl.obj
 0001:00009f7a       ?GetOposProp@COPOSSoundRecorder@@IAEJJPAPA_WJ@Z 1000af7a f   SoundRecorderImpl.obj
 0001:0000a056       ?OnDraw@COPOSSoundRecorder@@MAEJAAUATL_DRAWINFO@@@Z 1000b056 f   SoundRecorderImpl.obj
 0001:0000a0f6       ?Open@COPOSSoundRecorder@@UAGJPA_WPAJ@Z 1000b0f6 f   SoundRecorderImpl.obj
 0001:0000a931       ?ReleaseDevice@COPOSSoundRecorder@@UAGJPAJ@Z 1000b931 f   SoundRecorderImpl.obj
 0001:0000a980       ?ResetStatistics@COPOSSoundRecorder@@UAGJPA_WPAJ@Z 1000b980 f   SoundRecorderImpl.obj
 0001:0000a9d7       ?RetrieveStatistics@COPOSSoundRecorder@@UAGJPAPA_WPAJ@Z 1000b9d7 f   SoundRecorderImpl.obj
 0001:0000aa2e       ?SOProcessID@COPOSSoundRecorder@@UAGJPAJ@Z 1000ba2e f   SoundRecorderImpl.obj
 0001:0000aa42       ?SetCOFreezeEvents@COPOSSoundRecorder@@IAEXF@Z 1000ba42 f   SoundRecorderImpl.obj
 0001:0000aae2       ?SetOposProp@COPOSSoundRecorder@@IAEJJJJ@Z 1000bae2 f   SoundRecorderImpl.obj
 0001:0000abd9       ?SetOposProp@COPOSSoundRecorder@@IAEJJPA_WJ@Z 1000bbd9 f   SoundRecorderImpl.obj
 0001:0000acda       ?StartRecording@COPOSSoundRecorder@@UAGJPA_WFJPAJ@Z 1000bcda f   SoundRecorderImpl.obj
 0001:0000ad7e       ?StopRecording@COPOSSoundRecorder@@UAGJPAJ@Z 1000bd7e f   SoundRecorderImpl.obj
 0001:0000ad99       ?UpdateFirmware@COPOSSoundRecorder@@UAGJPA_WPAJ@Z 1000bd99 f   SoundRecorderImpl.obj
 0001:0000adf0       ?UpdateStatistics@COPOSSoundRecorder@@UAGJPA_WPAJ@Z 1000bdf0 f   SoundRecorderImpl.obj
 0001:0000ae47       ?get_AutoDisable@COPOSSoundRecorder@@UAGJPAF@Z 1000be47 f   SoundRecorderImpl.obj
 0001:0000ae5d       ?get_BinaryConversion@COPOSSoundRecorder@@UAGJPAJ@Z 1000be5d f   SoundRecorderImpl.obj
 0001:0000ae73       ?get_CapAssociatedHardTotalsDevice@COPOSSoundRecorder@@UAGJPAPA_W@Z 1000be73 f   SoundRecorderImpl.obj
 0001:0000ae8c       ?get_CapChannel@COPOSSoundRecorder@@UAGJPAF@Z 1000be8c f   SoundRecorderImpl.obj
 0001:0000aea5       ?get_CapCompareFirmwareVersion@COPOSSoundRecorder@@UAGJPAF@Z 1000bea5 f   SoundRecorderImpl.obj
 0001:0000aebe       ?get_CapPowerReporting@COPOSSoundRecorder@@UAGJPAJ@Z 1000bebe f   SoundRecorderImpl.obj
 0001:0000aed7       ?get_CapRecordingLevel@COPOSSoundRecorder@@UAGJPAF@Z 1000bed7 f   SoundRecorderImpl.obj
 0001:0000aef0       ?get_CapSamplingRate@COPOSSoundRecorder@@UAGJPAF@Z 1000bef0 f   SoundRecorderImpl.obj
 0001:0000af09       ?get_CapSoundType@COPOSSoundRecorder@@UAGJPAF@Z 1000bf09 f   SoundRecorderImpl.obj
 0001:0000af22       ?get_CapStatisticsReporting@COPOSSoundRecorder@@UAGJPAF@Z 1000bf22 f   SoundRecorderImpl.obj
 0001:0000af3b       ?get_CapStorage@COPOSSoundRecorder@@UAGJPAJ@Z 1000bf3b f   SoundRecorderImpl.obj
 0001:0000af54       ?get_CapUpdateFirmware@COPOSSoundRecorder@@UAGJPAF@Z 1000bf54 f   SoundRecorderImpl.obj
 0001:0000af6d       ?get_CapUpdateStatistics@COPOSSoundRecorder@@UAGJPAF@Z 1000bf6d f   SoundRecorderImpl.obj
 0001:0000af86       ?get_Channel@COPOSSoundRecorder@@UAGJPAPA_W@Z 1000bf86 f   SoundRecorderImpl.obj
 0001:0000af9f       ?get_ChannelList@COPOSSoundRecorder@@UAGJPAPA_W@Z 1000bf9f f   SoundRecorderImpl.obj
 0001:0000afb8       ?get_CheckHealthText@COPOSSoundRecorder@@UAGJPAPA_W@Z 1000bfb8 f   SoundRecorderImpl.obj
 0001:0000afd1       ?get_Claimed@COPOSSoundRecorder@@UAGJPAF@Z 1000bfd1 f   SoundRecorderImpl.obj
 0001:0000afe7       ?get_ControlObjectDescription@COPOSSoundRecorder@@UAGJPAPA_W@Z 1000bfe7 f   SoundRecorderImpl.obj
 0001:0000b035       ?get_ControlObjectVersion@COPOSSoundRecorder@@UAGJPAJ@Z 1000c035 f   SoundRecorderImpl.obj
 0001:0000b048       ?get_DataCount@COPOSSoundRecorder@@UAGJPAJ@Z 1000c048 f   SoundRecorderImpl.obj
 0001:0000b05e       ?get_DataEventEnabled@COPOSSoundRecorder@@UAGJPAF@Z 1000c05e f   SoundRecorderImpl.obj
 0001:0000b074       ?get_DeviceDescription@COPOSSoundRecorder@@UAGJPAPA_W@Z 1000c074 f   SoundRecorderImpl.obj
 0001:0000b08d       ?get_DeviceEnabled@COPOSSoundRecorder@@UAGJPAF@Z 1000c08d f   SoundRecorderImpl.obj
 0001:0000b0a3       ?get_DeviceName@COPOSSoundRecorder@@UAGJPAPA_W@Z 1000c0a3 f   SoundRecorderImpl.obj
 0001:0000b0bc       ?get_FreezeEvents@COPOSSoundRecorder@@UAGJPAF@Z 1000c0bc f   SoundRecorderImpl.obj
 0001:0000b0d2       ?get_OpenResult@COPOSSoundRecorder@@UAGJPAJ@Z 1000c0d2 f   SoundRecorderImpl.obj
 0001:0000b0e9       ?get_PowerNotify@COPOSSoundRecorder@@UAGJPAJ@Z 1000c0e9 f   SoundRecorderImpl.obj
 0001:0000b0ff       ?get_PowerState@COPOSSoundRecorder@@UAGJPAJ@Z 1000c0ff f   SoundRecorderImpl.obj
 0001:0000b115       ?get_RecordingLevel@COPOSSoundRecorder@@UAGJPAJ@Z 1000c115 f   SoundRecorderImpl.obj
 0001:0000b12e       ?get_RemainingRecordingTimeInSec@COPOSSoundRecorder@@UAGJPAJ@Z 1000c12e f   SoundRecorderImpl.obj
 0001:0000b147       ?get_ResultCode@COPOSSoundRecorder@@UAGJPAJ@Z 1000c147 f   SoundRecorderImpl.obj
 0001:0000b185       ?get_ResultCodeExtended@COPOSSoundRecorder@@UAGJPAJ@Z 1000c185 f   SoundRecorderImpl.obj
 0001:0000b19b       ?get_SamplingRate@COPOSSoundRecorder@@UAGJPAPA_W@Z 1000c19b f   SoundRecorderImpl.obj
 0001:0000b1b4       ?get_SamplingRateList@COPOSSoundRecorder@@UAGJPAPA_W@Z 1000c1b4 f   SoundRecorderImpl.obj
 0001:0000b1cd       ?get_ServiceObjectDescription@COPOSSoundRecorder@@UAGJPAPA_W@Z 1000c1cd f   SoundRecorderImpl.obj
 0001:0000b1e6       ?get_ServiceObjectVersion@COPOSSoundRecorder@@UAGJPAJ@Z 1000c1e6 f   SoundRecorderImpl.obj
 0001:0000b1fc       ?get_SoundData@COPOSSoundRecorder@@UAGJPAPA_W@Z 1000c1fc f   SoundRecorderImpl.obj
 0001:0000b215       ?get_SoundType@COPOSSoundRecorder@@UAGJPAPA_W@Z 1000c215 f   SoundRecorderImpl.obj
 0001:0000b22e       ?get_SoundTypeList@COPOSSoundRecorder@@UAGJPAPA_W@Z 1000c22e f   SoundRecorderImpl.obj
 0001:0000b247       ?get_State@COPOSSoundRecorder@@UAGJPAJ@Z 1000c247 f   SoundRecorderImpl.obj
 0001:0000b273       ?get_Storage@COPOSSoundRecorder@@UAGJPAJ@Z 1000c273 f   SoundRecorderImpl.obj
 0001:0000b28c       ?put_AutoDisable@COPOSSoundRecorder@@UAGJF@Z 1000c28c f   SoundRecorderImpl.obj
 0001:0000b2a9       ?put_BinaryConversion@COPOSSoundRecorder@@UAGJJ@Z 1000c2a9 f   SoundRecorderImpl.obj
 0001:0000b2bf       ?put_Channel@COPOSSoundRecorder@@UAGJPA_W@Z 1000c2bf f   SoundRecorderImpl.obj
 0001:0000b2d8       ?put_DataEventEnabled@COPOSSoundRecorder@@UAGJF@Z 1000c2d8 f   SoundRecorderImpl.obj
 0001:0000b2f5       ?put_DeviceEnabled@COPOSSoundRecorder@@UAGJF@Z 1000c2f5 f   SoundRecorderImpl.obj
 0001:0000b312       ?put_FreezeEvents@COPOSSoundRecorder@@UAGJF@Z 1000c312 f   SoundRecorderImpl.obj
 0001:0000b35e       ?put_PowerNotify@COPOSSoundRecorder@@UAGJJ@Z 1000c35e f   SoundRecorderImpl.obj
 0001:0000b374       ?put_RecordingLevel@COPOSSoundRecorder@@UAGJJ@Z 1000c374 f   SoundRecorderImpl.obj
 0001:0000b38d       ?put_SamplingRate@COPOSSoundRecorder@@UAGJPA_W@Z 1000c38d f   SoundRecorderImpl.obj
 0001:0000b3a6       ?put_SoundType@COPOSSoundRecorder@@UAGJPA_W@Z 1000c3a6 f   SoundRecorderImpl.obj
 0001:0000b3bf       ?put_Storage@COPOSSoundRecorder@@UAGJJ@Z 1000c3bf f   SoundRecorderImpl.obj
 0001:0000b3d8       ?s_EventWindowProc@COPOSSoundRecorder@@KGJPAUHWND__@@IIJ@Z 1000c3d8 f i SoundRecorderImpl.obj
 0001:0000b42a       ??_U@YAPAXI@Z              1000c42a f   LIBCMT:new_array.obj
 0001:0000b433       ??3@YAXPAXI@Z              1000c433 f   LIBCMT:delete_scalar_size.obj
 0001:0000b441       ??_V@YAXPAX@Z              1000c441 f   LIBCMT:delete_array.obj
 0001:0000b446       ??_V@YAXPAXI@Z             1000c446 f   LIBCMT:delete_array_size.obj
 0001:0000b498       ___scrt_acquire_startup_lock 1000c498 f   LIBCMT:utility.obj
 0001:0000b4ca       ___scrt_dllmain_after_initialize_c 1000c4ca f   LIBCMT:utility.obj
 0001:0000b4f5       ___scrt_dllmain_before_initialize_c 1000c4f5 f   LIBCMT:utility.obj
 0001:0000b503       ___scrt_dllmain_crt_thread_attach 1000c503 f   LIBCMT:utility.obj
 0001:0000b522       ___scrt_dllmain_crt_thread_detach 1000c522 f   LIBCMT:utility.obj
 0001:0000b52f       ___scrt_dllmain_exception_filter 1000c52f f   LIBCMT:utility.obj
 0001:0000b563       ___scrt_dllmain_uninitialize_c 1000c563 f   LIBCMT:utility.obj
 0001:0000b586       ___scrt_dllmain_uninitialize_critical 1000c586 f   LIBCMT:utility.obj
 0001:0000b593       ___scrt_initialize_crt     1000c593 f   LIBCMT:utility.obj
 0001:0000b5cc       ___scrt_initialize_onexit_tables 1000c5cc f   LIBCMT:utility.obj
 0001:0000b653       ___scrt_is_nonwritable_in_current_image 1000c653 f   LIBCMT:utility.obj
 0001:0000b6e7       ___scrt_release_startup_lock 1000c6e7 f   LIBCMT:utility.obj
 0001:0000b704       ___scrt_uninitialize_crt   1000c704 f   LIBCMT:utility.obj
 0001:0000b72c       __onexit                   1000c72c f   LIBCMT:utility.obj
 0001:0000b759       _atexit                    1000c759 f   LIBCMT:utility.obj
 0001:0000b76e       ??3@YAXPAX@Z               1000c76e f   LIBCMT:delete_scalar.obj
 0001:0000b838       __Init_thread_footer       1000c838 f   LIBCMT:thread_safe_statics.obj
 0001:0000b882       __Init_thread_header       1000c882 f   LIBCMT:thread_safe_statics.obj
 0001:0000b8d4       __Init_thread_notify       1000c8d4 f   LIBCMT:thread_safe_statics.obj
 0001:0000b90a       __Init_thread_wait         1000c90a f   LIBCMT:thread_safe_statics.obj
 0001:0000b958       ___raise_securityfailure   1000c958 f   LIBCMT:gs_report.obj
 0001:0000b980       ___report_gsfailure        1000c980 f   LIBCMT:gs_report.obj
 0001:0000ba7a       ___report_rangecheckfailure 1000ca7a f   LIBCMT:gs_report.obj
 0001:0000ba86       ___report_securityfailure  1000ca86 f   LIBCMT:gs_report.obj
 0001:0000bb55       ??2@YAPAXIABUnothrow_t@std@@@Z 1000cb55 f   LIBCMT:new_scalar_nothrow.obj
 0001:0000bbaa       ??_U@YAPAXIABUnothrow_t@std@@@Z 1000cbaa f   LIBCMT:new_array_nothrow.obj
 0001:0000bbb3       @__security_check_cookie@4 1000cbb3 f   LIBCMT:secchk.obj
 0001:0000bbd0       __SEH_prolog4_GS           1000cbd0 f   LIBCMT:sehprolg4gs.obj
 0001:0000bc20       __alloca_probe_16          1000cc20 f   LIBCMT:alloca16.obj
 0001:0000bc36       __alloca_probe_8           1000cc36     LIBCMT:alloca16.obj
 0001:0000bc50       __alloca_probe             1000cc50 f   LIBCMT:chkstk.obj
 0001:0000bc50       __chkstk                   1000cc50 f   LIBCMT:chkstk.obj
 0001:0000bfbb       __DllMainCRTStartup@12     1000cfbb f   LIBCMT:dll_dllmain.obj
 0001:0000bfde       ??2@YAPAXI@Z               1000cfde f   LIBCMT:new_scalar.obj
 0001:0000c00e       ___isa_available_init      1000d00e f   LIBCMT:cpu_disp.obj
 0001:0000c1e2       ___scrt_is_ucrt_dll_in_use 1000d1e2 f   LIBCMT:ucrt_detection.obj
 0001:0000c1ee       ___scrt_fastfail           1000d1ee f   LIBCMT:utility_desktop.obj
 0001:0000c309       __crt_debugger_hook        1000d309 f   LIBCMT:utility_desktop.obj
 0001:0000c320       __SEH_prolog4              1000d320 f   LIBCMT:sehprolg4.obj
 0001:0000c365       @_guard_check_icall_nop@4  1000d365 f i LIBCMT:guard_support.obj
 0001:0000c3b5       ___security_init_cookie    1000d3b5 f   LIBCMT:gs_support.obj
 0001:0000c400       ?__scrt_initialize_type_info@@YAXXZ 1000d400 f   LIBCMT:tncleanup.obj
 0001:0000c40c       ?__scrt_uninitialize_type_info@@YAXXZ 1000d40c f   LIBCMT:tncleanup.obj
 0001:0000c418       ___local_stdio_scanf_options 1000d418 f i LIBCMT:default_local_stdio_options.obj
 0001:0000c41e       ___scrt_initialize_default_local_stdio_options 1000d41e f   LIBCMT:default_local_stdio_options.obj
 0001:0000c43b       ___scrt_get_dyn_tls_init_callback 1000d43b f   LIBCMT:dyn_tls_init.obj
 0001:0000c441       __RTC_Initialize           1000d441 f   LIBCMT:initsect.obj
 0001:0000c46d       __RTC_Terminate            1000d46d f   LIBCMT:initsect.obj
 0001:0000c499       ??0bad_alloc@std@@QAE@ABV01@@Z 1000d499 f i LIBCMT:throw_bad_alloc.obj
 0001:0000c4b4       ??0bad_alloc@std@@QAE@XZ   1000d4b4 f i LIBCMT:throw_bad_alloc.obj
 0001:0000c4cc       ??0bad_array_new_length@std@@QAE@ABV01@@Z 1000d4cc f i LIBCMT:throw_bad_alloc.obj
 0001:0000c4e7       ??0bad_array_new_length@std@@QAE@XZ 1000d4e7 f i LIBCMT:throw_bad_alloc.obj
 0001:0000c4ff       ??0exception@std@@QAE@ABV01@@Z 1000d4ff f i LIBCMT:throw_bad_alloc.obj
 0001:0000c52b       ??1bad_alloc@std@@UAE@XZ   1000d52b f i LIBCMT:throw_bad_alloc.obj
 0001:0000c52b       ??1bad_exception@std@@UAE@XZ 1000d52b f i libvcruntime:frame.obj
 0001:0000c52b       ??1bad_array_new_length@std@@UAE@XZ 1000d52b f i LIBCMT:throw_bad_alloc.obj
 0001:0000c53c       ??_Ebad_array_new_length@std@@UAEPAXI@Z 1000d53c f i LIBCMT:throw_bad_alloc.obj
 0001:0000c53c       ??_Gbad_array_new_length@std@@UAEPAXI@Z 1000d53c f i LIBCMT:throw_bad_alloc.obj
 0001:0000c53c       ??_Gexception@std@@UAEPAXI@Z 1000d53c f i LIBCMT:throw_bad_alloc.obj
 0001:0000c53c       ??_Ebad_alloc@std@@UAEPAXI@Z 1000d53c f i LIBCMT:throw_bad_alloc.obj
 0001:0000c53c       ??_Ebad_exception@std@@UAEPAXI@Z 1000d53c f i libvcruntime:frame.obj
 0001:0000c53c       ??_Eexception@std@@UAEPAXI@Z 1000d53c f i LIBCMT:throw_bad_alloc.obj
 0001:0000c53c       ??_Gbad_alloc@std@@UAEPAXI@Z 1000d53c f i LIBCMT:throw_bad_alloc.obj
 0001:0000c53c       ??_Gbad_exception@std@@UAEPAXI@Z 1000d53c f i libvcruntime:frame.obj
 0001:0000c569       ?__scrt_throw_std_bad_alloc@@YAXXZ 1000d569 f   LIBCMT:throw_bad_alloc.obj
 0001:0000c586       ?__scrt_throw_std_bad_array_new_length@@YAXXZ 1000d586 f   LIBCMT:throw_bad_alloc.obj
 0001:0000c5a3       ?what@exception@std@@UBEPBDXZ 1000d5a3 f i LIBCMT:throw_bad_alloc.obj
 0001:0000c5b0       ??_Etype_info@@UAEPAXI@Z   1000d5b0 f i LIBCMT:std_type_info_static.obj
 0001:0000c5b0       ??_Gtype_info@@UAEPAXI@Z   1000d5b0 f i LIBCMT:std_type_info_static.obj
 0001:0000c5d3       ??0CAtlBaseModule@ATL@@QAE@XZ 1000d5d3 f   atls:atlbase.obj
 0001:0000c626       ??0_ATL_BASE_MODULE70@ATL@@QAE@XZ 1000d626 f i atls:atlbase.obj
 0001:0000c649       ??1CAtlBaseModule@ATL@@QAE@XZ 1000d649 f   atls:atlbase.obj
 0001:0000c736       ?Init@_stdcallthunk@ATL@@QAEHKPAX@Z 1000d736 f i atls:atlthunk.obj
 0001:0000c76b       ?__AllocStdCallThunk_cmn@@YAPAXXZ 1000d76b f   atls:atlthunk.obj
 0001:0000c831       ?__FreeStdCallThunk_cmn@@YAXPAX@Z 1000d831 f   atls:atlthunk.obj
 0001:0000c8cd       _AtlThunk_AllocateData@0   1000d8cd f   atls:atlthunk.obj
 0001:0000c932       _AtlThunk_DataToCode@4     1000d932 f   atls:atlthunk.obj
 0001:0000c979       _AtlThunk_FreeData@4       1000d979 f   atls:atlthunk.obj
 0001:0000c9cf       _AtlThunk_InitData@12      1000d9cf f   atls:atlthunk.obj
 0001:0000ca1e       __get_purecall_handler     1000da1e f   libvcruntime:purevirt.obj
 0001:0000ca25       __purecall                 1000da25 f   libvcruntime:purevirt.obj
 0001:0000ca41       _wcsstr                    1000da41 f   libvcruntime:wcsstr.obj
 0001:0000cd00       __except_handler4          1000dd00 f   libvcruntime:chandler4.obj
 0001:0000ce5e       _memcmp                    1000de5e f   libvcruntime:memcmp.obj
 0001:0000e4e0       _memcpy                    1000f4e0 f   libvcruntime:memcpy.obj
 0001:0000e4e0       _memmove                   1000f4e0 f   libvcruntime:memmove.obj
 0001:0000ea60       _memset                    1000fa60 f   libvcruntime:memset.obj
 0001:0000ebba       ___vcrt_initialize         1000fbba f   libvcruntime:initialization.obj
 0001:0000ebd9       ___vcrt_thread_attach      1000fbd9 f   libvcruntime:initialization.obj
 0001:0000ebe4       ___vcrt_thread_detach      1000fbe4 f   libvcruntime:initialization.obj
 0001:0000ebef       ___vcrt_uninitialize       1000fbef f   libvcruntime:initialization.obj
 0001:0000ec06       ___vcrt_uninitialize_critical 1000fc06 f   libvcruntime:initialization.obj
 0001:0000ec0e       ?GetRangeOfTrysToCheck@__FrameHandler3@@SA?AU?$pair@Viterator@TryBlockMap@__FrameHandler3@@V123@@std@@AAVTryBlockMap@1@HPAXPBU_s_FuncInfo@@H@Z 1000fc0e f   libvcruntime:trnsctrl.obj
 0001:0000ec7e       ?_CallCatchBlock2@@YAPAXPAUEHRegistrationNode@@PBU_s_FuncInfo@@PAXHK@Z 1000fc7e f   libvcruntime:trnsctrl.obj
 0001:0000ecdb       ?_CallSETranslator@@YAHPAUEHExceptionRecord@@PAUEHRegistrationNode@@PAX2PBU_s_FuncInfo@@H1@Z 1000fcdb f   libvcruntime:trnsctrl.obj
 0001:0000edd1       ?_JumpToContinuation@@YGXPAXPAUEHRegistrationNode@@@Z 1000fdd1 f   libvcruntime:trnsctrl.obj
 0001:0000ee01       ?_UnwindNestedFrames@@YGXPAUEHRegistrationNode@@PAUEHExceptionRecord@@@Z 1000fe01 f   libvcruntime:trnsctrl.obj
 0001:0000ee54       __CatchGuardHandler        1000fe54 f   libvcruntime:trnsctrl.obj
 0001:0000ee85       __CreateFrameInfo          1000fe85 f   libvcruntime:trnsctrl.obj
 0001:0000eea9       __FindAndUnlinkFrame       1000fea9 f   libvcruntime:trnsctrl.obj
 0001:0000eef1       __TranslatorGuardHandler   1000fef1 f   libvcruntime:trnsctrl.obj
 0001:0000ef8e       ___CxxFrameHandler3        1000ff8e f   libvcruntime:trnsctrl.obj
 0001:0000efc4       ___DestructExceptionObject 1000ffc4 f   libvcruntime:ehhelpers.obj
 0001:0000f065       ?_CallMemberFunction0@@YGXQAX0@Z 10010065 f i libvcruntime:ehhelpers.obj
 0001:0000f0ca       __IsExceptionObjectToBeDestroyed 100100ca f   libvcruntime:ehhelpers.obj
 0001:0000f0f0       ___AdjustPointer           100100f0 f   libvcruntime:ehhelpers.obj
 0001:0000f115       ___FrameUnwindFilter       10010115 f   libvcruntime:ehhelpers.obj
 0001:0000f16b       ___std_terminate           1001016b f   libvcruntime:ehhelpers.obj
 0001:0000f170       ___std_type_info_compare   10010170 f   libvcruntime:std_type_info.obj
 0001:0000f1ac       ___std_type_info_destroy_list 100101ac f   libvcruntime:std_type_info.obj
 0001:0000f1cf       ___std_exception_copy      100101cf f   libvcruntime:std_exception.obj
 0001:0000f232       ___std_exception_destroy   10010232 f   libvcruntime:std_exception.obj
 0001:0000f251       __CxxThrowException@8      10010251 f   libvcruntime:throw.obj
 0001:0000f2c0       __local_unwind4            100102c0 f   libvcruntime:exsup4.obj
 0001:0000f3b0       @_EH4_CallFilterFunc@8     100103b0 f   libvcruntime:exsup4.obj
 0001:0000f3d0       @_EH4_TransferToHandler@8  100103d0 f   libvcruntime:exsup4.obj
 0001:0000f3f0       @_EH4_GlobalUnwind2@8      100103f0 f   libvcruntime:exsup4.obj
 0001:0000f410       @_EH4_LocalUnwind@16       10010410 f   libvcruntime:exsup4.obj
 0001:0000f427       ___except_validate_context_record 10010427 f   libvcruntime:jbcxrval.obj
 0001:0000f457       ___vcrt_freefls@4          10010457 f   libvcruntime:per_thread_data.obj
 0001:0000f473       ___vcrt_freeptd            10010473 f   libvcruntime:per_thread_data.obj
 0001:0000f4a9       ___vcrt_getptd             100104a9 f   libvcruntime:per_thread_data.obj
 0001:0000f4b7       ___vcrt_getptd_noexit      100104b7 f   libvcruntime:per_thread_data.obj
 0001:0000f549       ___vcrt_initialize_ptd     10010549 f   libvcruntime:per_thread_data.obj
 0001:0000f57c       ___vcrt_uninitialize_ptd   1001057c f   libvcruntime:per_thread_data.obj
 0001:0000f597       ___vcrt_initialize_locks   10010597 f   libvcruntime:locks.obj
 0001:0000f5d3       ___vcrt_uninitialize_locks 100105d3 f   libvcruntime:locks.obj
 0001:0000fd34       ??$TypeMatchHelper@V__FrameHandler3@@@@YAHPBU_s_HandlerType@@PBU_s_CatchableType@@PBU_s_ThrowInfo@@@Z 10010d34 f i libvcruntime:frame.obj
 0001:0000fdc2       ??$__InternalCxxFrameHandler@V__FrameHandler3@@@@YA?AW4_EXCEPTION_DISPOSITION@@PAUEHExceptionRecord@@PAUEHRegistrationNode@@PAU_CONTEXT@@PAXPBU_s_FuncInfo@@H1E@Z 10010dc2 f i libvcruntime:frame.obj
 0001:0000fec4       ??0bad_exception@std@@QAE@ABV01@@Z 10010ec4 f i libvcruntime:frame.obj
 0001:0000fedf       ??0bad_exception@std@@QAE@XZ 10010edf f i libvcruntime:frame.obj
 0001:0000fef7       ??8type_info@@QBE_NABV0@@Z 10010ef7 f i libvcruntime:frame.obj
 0001:0001016e       ?FrameUnwindToEmptyState@__FrameHandler3@@SAXPAUEHRegistrationNode@@PAXPBU_s_FuncInfo@@@Z 1001116e f   libvcruntime:frame.obj
 0001:00010186       ?FrameUnwindToState@__FrameHandler3@@SAXPAUEHRegistrationNode@@PAXPBU_s_FuncInfo@@H@Z 10011186 f   libvcruntime:frame.obj
 0001:00010308       ?_CallMemberFunction1@@YGXQAX00@Z 10011308 f i libvcruntime:frame.obj
 0001:00010318       ?_CallMemberFunction2@@YGXQAX00H@Z 10011318 f i libvcruntime:frame.obj
 0001:0001032b       ?getESTypes@__FrameHandler3@@SAPBU_s_ESTypeList@@PBU_s_FuncInfo@@@Z 1001132b f i libvcruntime:frame.obj
 0001:00010340       __CallSettingFrame@12      10011340 f   libvcruntime:lowhelpr.obj
 0001:00010367       __NLG_Return               10011367     libvcruntime:lowhelpr.obj
 0001:00010390       __NLG_Notify1              10011390 f   libvcruntime:exsup.obj
 0001:000103a0       __NLG_Notify               100113a0 f   libvcruntime:exsup.obj
 0001:000103b7       __NLG_Dispatch2            100113b7     libvcruntime:exsup.obj
 0001:000103b7       __NLG_Dispatch             100113b7     libvcruntime:exsup.obj
 0001:000103c0       __NLG_Call                 100113c0 f   libvcruntime:exsup.obj
 0001:000103c2       __NLG_Return2              100113c2     libvcruntime:exsup.obj
 0001:000104a8       ___vcrt_FlsAlloc           100114a8 f   libvcruntime:winapi_downlevel.obj
 0001:000104e3       ___vcrt_FlsFree            100114e3 f   libvcruntime:winapi_downlevel.obj
 0001:0001051e       ___vcrt_FlsGetValue        1001151e f   libvcruntime:winapi_downlevel.obj
 0001:00010559       ___vcrt_FlsSetValue        10011559 f   libvcruntime:winapi_downlevel.obj
 0001:00010597       ___vcrt_InitializeCriticalSectionEx 10011597 f   libvcruntime:winapi_downlevel.obj
 0001:000105de       _unexpected                100115de f   libvcruntime:unexpected.obj
 0001:000105fb       ?GetCurrentState@__FrameHandler3@@SAHPAUEHRegistrationNode@@PAXPBU_s_FuncInfo@@@Z 100115fb f   libvcruntime:ehstate.obj
 0001:00010618       ?SetState@__FrameHandler3@@SAXPAUEHRegistrationNode@@PBU_s_FuncInfo@@H@Z 10011618 f   libvcruntime:ehstate.obj
 0001:00010626       _free                      10011626 f   libucrt:free.obj
 0001:00010641       ??0__crt_cached_ptd_host@@QAE@QAU__crt_locale_pointers@@@Z 10011641 f i libucrt:invalid_parameter.obj
 0001:00010689       ??1__crt_cached_ptd_host@@QAE@XZ 10011689 f i libucrt:invalid_parameter.obj
 0001:000106c5       ?check_synchronize_global_state_index@__crt_cached_ptd_host@@AAEIXZ 100116c5 f i libucrt:invalid_parameter.obj
 0001:000106ee       ?force_synchronize_per_thread_data@__crt_cached_ptd_host@@AAEPAU__acrt_ptd@@XZ 100116ee f i libucrt:invalid_parameter.obj
 0001:00010734       ?get_raw_ptd@__crt_cached_ptd_host@@QAEPAU__acrt_ptd@@XZ 10011734 f i libucrt:invalid_parameter.obj
 0001:00010751       ___acrt_call_reportfault   10011751 f   libucrt:invalid_parameter.obj
 0001:0001088a       ___acrt_initialize_invalid_parameter_handler 1001188a f   libucrt:invalid_parameter.obj
 0001:00010899       __invalid_parameter        10011899 f   libucrt:invalid_parameter.obj
 0001:000108d0       __invalid_parameter_internal 100118d0 f   libucrt:invalid_parameter.obj
 0001:0001094d       __invalid_parameter_noinfo 1001194d f   libucrt:invalid_parameter.obj
 0001:0001095d       __invoke_watson            1001195d f   libucrt:invalid_parameter.obj
 0001:00010991       ___acrt_errno_from_os_error 10011991 f   libucrt:errno.obj
 0001:000109d4       ___acrt_errno_map_os_error 100119d4 f   libucrt:errno.obj
 0001:000109f7       ___acrt_errno_map_os_error_ptd 100119f7 f   libucrt:errno.obj
 0001:00010a1b       ___doserrno                10011a1b f   libucrt:errno.obj
 0001:00010a2e       __errno                    10011a2e f   libucrt:errno.obj
 0001:00010a41       _calloc                    10011a41 f   libucrt:calloc.obj
 0001:00010a4c       _malloc                    10011a4c f   libucrt:malloc.obj
 0001:00010a57       __recalloc                 10011a57 f   libucrt:recalloc.obj
 0001:00010a62       __recalloc_base            10011a62 f   libucrt:recalloc.obj
 0001:00010acf       __resetstkoflw             10011acf f   libucrt:resetstk.obj
 0001:00010c0c       _wcscat_s                  10011c0c f   libucrt:wcscat_s.obj
 0001:00010c17       _wcscpy_s                  10011c17 f   libucrt:wcscpy_s.obj
 0001:00010d49       _wcsncpy_s                 10011d49 f   libucrt:wcsncpy_s.obj
 0001:00010f71       ??$count@D@formatting_buffer@__crt_stdio_output@@QBEIXZ 10011f71 f i libucrt:output.obj
 0001:00010f89       ??$count@_W@formatting_buffer@__crt_stdio_output@@QBEIXZ 10011f89 f i libucrt:output.obj
 0001:00010fa2       ??$ensure_buffer_is_big_enough@D@formatting_buffer@__crt_stdio_output@@QAE_NIAAV__crt_cached_ptd_host@@@Z 10011fa2 f i libucrt:output.obj
 0001:00011023       ??$ensure_buffer_is_big_enough@_W@formatting_buffer@__crt_stdio_output@@QAE_NIAAV__crt_cached_ptd_host@@@Z 10012023 f i libucrt:output.obj
 0001:000110a5       ??$is_overflow_condition@K@__crt_strtox@@YA_NIK@Z 100120a5 f i libucrt:output.obj
 0001:000110d6       ??$is_wide_character_specifier@_W@__crt_stdio_output@@YA_N_K_WW4length_modifier@0@@Z 100120d6 f i libucrt:output.obj
 0001:00011124       ??$parse_integer@KV?$c_string_character_source@_W@__crt_strtox@@$0A@@__crt_strtox@@YAKAAV__crt_cached_ptd_host@@V?$c_string_character_source@_W@0@H_N@Z 10012124 f i libucrt:output.obj
 0001:000116f3       ??$scratch_data@D@formatting_buffer@__crt_stdio_output@@QAEPADXZ 100126f3 f i libucrt:output.obj
 0001:00011711       ??$type_case_integer@$07@?$output_processor@_WV?$string_output_adapter@_W@__crt_stdio_output@@V?$format_validation_base@_WV?$string_output_adapter@_W@__crt_stdio_output@@@2@@__crt_stdio_output@@AAE_N_N@Z 10012711 f i libucrt:output.obj
 0001:00011893       ??$type_case_integer@$09@?$output_processor@_WV?$string_output_adapter@_W@__crt_stdio_output@@V?$format_validation_base@_WV?$string_output_adapter@_W@__crt_stdio_output@@@2@@__crt_stdio_output@@AAE_N_N@Z 10012893 f i libucrt:output.obj
 0001:00011a15       ??$type_case_integer@$0BA@@?$output_processor@_WV?$string_output_adapter@_W@__crt_stdio_output@@V?$format_validation_base@_WV?$string_output_adapter@_W@__crt_stdio_output@@@2@@__crt_stdio_output@@AAE_N_N@Z 10012a15 f i libucrt:output.obj
 0001:00011b97       ??$type_case_integer_parse_into_buffer@I$07@?$output_processor@_WV?$string_output_adapter@_W@__crt_stdio_output@@V?$format_validation_base@_WV?$string_output_adapter@_W@__crt_stdio_output@@@2@@__crt_stdio_output@@AAEXI_N@Z 10012b97 f i libucrt:output.obj
 0001:00011c04       ??$type_case_integer_parse_into_buffer@I$09@?$output_processor@_WV?$string_output_adapter@_W@__crt_stdio_output@@V?$format_validation_base@_WV?$string_output_adapter@_W@__crt_stdio_output@@@2@@__crt_stdio_output@@AAEXI_N@Z 10012c04 f i libucrt:output.obj
 0001:00011c93       ??$type_case_integer_parse_into_buffer@I$0BA@@?$output_processor@_WV?$string_output_adapter@_W@__crt_stdio_output@@V?$format_validation_base@_WV?$string_output_adapter@_W@__crt_stdio_output@@@2@@__crt_stdio_output@@AAEXI_N@Z 10012c93 f i libucrt:output.obj
 0001:00011d20       ??$type_case_integer_parse_into_buffer@_K$07@?$output_processor@_WV?$string_output_adapter@_W@__crt_stdio_output@@V?$format_validation_base@_WV?$string_output_adapter@_W@__crt_stdio_output@@@2@@__crt_stdio_output@@AAEX_K_N@Z 10012d20 f i libucrt:output.obj
 0001:00011da9       ??$type_case_integer_parse_into_buffer@_K$09@?$output_processor@_WV?$string_output_adapter@_W@__crt_stdio_output@@V?$format_validation_base@_WV?$string_output_adapter@_W@__crt_stdio_output@@@2@@__crt_stdio_output@@AAEX_K_N@Z 10012da9 f i libucrt:output.obj
 0001:00011e58       ??$type_case_integer_parse_into_buffer@_K$0BA@@?$output_processor@_WV?$string_output_adapter@_W@__crt_stdio_output@@V?$format_validation_base@_WV?$string_output_adapter@_W@__crt_stdio_output@@@2@@__crt_stdio_output@@AAEX_K_N@Z 10012e58 f i libucrt:output.obj
 0001:00011ef3       ??0?$output_adapter_data@_WV?$string_output_adapter@_W@__crt_stdio_output@@@__crt_stdio_output@@IAE@ABV?$string_output_adapter@_W@1@_KQB_WAAV__crt_cached_ptd_host@@QAD@Z 10012ef3 f i libucrt:output.obj
 0001:00011f5f       ??1formatting_buffer@__crt_stdio_output@@QAE@XZ 10012f5f f i libucrt:output.obj
 0001:00011f79       ??4?$__crt_unique_heap_ptr@DU__crt_internal_free_policy@@@@QAEAAV0@$$QAV0@@Z 10012f79 f i libucrt:output.obj
 0001:00011f9d       ?crop_zeroes@__crt_stdio_output@@YAXPADQAU__crt_locale_pointers@@@Z 10012f9d f i libucrt:output.obj
 0001:00011ffd       ?find_next_state@?$output_processor@_WV?$string_output_adapter@_W@__crt_stdio_output@@V?$format_validation_base@_WV?$string_output_adapter@_W@__crt_stdio_output@@@2@@__crt_stdio_output@@ABE?AW4state@2@_WW432@@Z 10012ffd f i libucrt:output.obj
 0001:00012039       ?force_decimal_point@__crt_stdio_output@@YAXPADQAU__crt_locale_pointers@@@Z 10013039 f i libucrt:output.obj
 0001:00012095       ?parse_int_from_format_string@?$output_processor@_WV?$string_output_adapter@_W@__crt_stdio_output@@V?$format_validation_base@_WV?$string_output_adapter@_W@__crt_stdio_output@@@2@@__crt_stdio_output@@AAE_NQAH@Z 10013095 f i libucrt:output.obj
 0001:0001210f       ?process@?$output_processor@_WV?$string_output_adapter@_W@__crt_stdio_output@@V?$format_validation_base@_WV?$string_output_adapter@_W@__crt_stdio_output@@@2@@__crt_stdio_output@@QAEHXZ 1001310f f i libucrt:output.obj
 0001:0001235f       ?state_case_size@?$output_processor@_WV?$string_output_adapter@_W@__crt_stdio_output@@V?$format_validation_base@_WV?$string_output_adapter@_W@__crt_stdio_output@@@2@@__crt_stdio_output@@AAE_NXZ 1001335f f i libucrt:output.obj
 0001:000124ed       ?state_case_type@?$output_processor@_WV?$string_output_adapter@_W@__crt_stdio_output@@V?$format_validation_base@_WV?$string_output_adapter@_W@__crt_stdio_output@@@2@@__crt_stdio_output@@AAE_NXZ 100134ed f i libucrt:output.obj
 0001:0001290e       ?to_integer_size@__crt_stdio_output@@YAIW4length_modifier@1@@Z 1001390e f i libucrt:output.obj
 0001:00012962       ?type_case_Z@?$output_processor@_WV?$string_output_adapter@_W@__crt_stdio_output@@V?$format_validation_base@_WV?$string_output_adapter@_W@__crt_stdio_output@@@2@@__crt_stdio_output@@AAE_NXZ 10013962 f i libucrt:output.obj
 0001:000129bc       ?type_case_a@?$output_processor@_WV?$string_output_adapter@_W@__crt_stdio_output@@V?$format_validation_base@_WV?$string_output_adapter@_W@__crt_stdio_output@@@2@@__crt_stdio_output@@AAE_NXZ 100139bc f i libucrt:output.obj
 0001:00012b5c       ?type_case_c_tchar@?$output_processor@_WV?$string_output_adapter@_W@__crt_stdio_output@@V?$format_validation_base@_WV?$string_output_adapter@_W@__crt_stdio_output@@@2@@__crt_stdio_output@@AAE_N_W@Z 10013b5c f i libucrt:output.obj
 0001:00012c03       ?type_case_n@?$output_processor@_WV?$string_output_adapter@_W@__crt_stdio_output@@V?$format_validation_base@_WV?$string_output_adapter@_W@__crt_stdio_output@@@2@@__crt_stdio_output@@AAE_NXZ 10013c03 f i libucrt:output.obj
 0001:00012c87       ?type_case_o@?$output_processor@_WV?$string_output_adapter@_W@__crt_stdio_output@@V?$format_validation_base@_WV?$string_output_adapter@_W@__crt_stdio_output@@@2@@__crt_stdio_output@@AAE_NXZ 10013c87 f i libucrt:output.obj
 0001:00012ca4       ?type_case_p@?$output_processor@_WV?$string_output_adapter@_W@__crt_stdio_output@@V?$format_validation_base@_WV?$string_output_adapter@_W@__crt_stdio_output@@@2@@__crt_stdio_output@@AAE_NXZ 10013ca4 f i libucrt:output.obj
 0001:00012cba       ?type_case_s@?$output_processor@_WV?$string_output_adapter@_W@__crt_stdio_output@@V?$format_validation_base@_WV?$string_output_adapter@_W@__crt_stdio_output@@@2@@__crt_stdio_output@@AAE_NXZ 10013cba f i libucrt:output.obj
 0001:00012d2d       ?type_case_s_compute_narrow_string_length@?$output_processor@_WV?$string_output_adapter@_W@__crt_stdio_output@@V?$format_validation_base@_WV?$string_output_adapter@_W@__crt_stdio_output@@@2@@__crt_stdio_output@@AAEHH_W@Z 10013d2d f i libucrt:output.obj
 0001:00012d82       ?unget@?$c_string_character_source@_W@__crt_strtox@@QAEX_W@Z 10013d82 f i libucrt:output.obj
 0001:00012db0       ?update_locale_slow@__crt_cached_ptd_host@@AAEXXZ 10013db0 f i libucrt:output.obj
 0001:00012e0b       ?validate@?$c_string_character_source@_W@__crt_strtox@@QBE_NXZ 10013e0b f i libucrt:output.obj
 0001:00012e26       ?validate@?$string_output_adapter@_W@__crt_stdio_output@@QBE_NAAV__crt_cached_ptd_host@@@Z 10013e26 f i libucrt:output.obj
 0001:00012e57       ?write_string@?$string_output_adapter@_W@__crt_stdio_output@@QBEXQB_WHQAHAAV__crt_cached_ptd_host@@@Z 10013e57 f i libucrt:output.obj
 0001:00012ec8       ___acrt_locale_get_ctype_array_value 10013ec8 f i libucrt:output.obj
 0001:00012eea       ___stdio_common_vswprintf_s 10013eea f   libucrt:output.obj
 0001:00012f2b       __seh_filter_dll           10013f2b f   libucrt:exception_filter.obj
 0001:00012f4b       __seh_filter_exe           10013f4b f   libucrt:exception_filter.obj
 0001:00013378       ___acrt_initialize_thread_local_exit_callback 10014378 f   libucrt:exit.obj
 0001:00013387       __cexit                    10014387 f   libucrt:exit.obj
 0001:00013396       __exit                     10014396 f   libucrt:exit.obj
 0001:000133ac       __is_c_termination_complete 100143ac f   libucrt:exit.obj
 0001:00013664       ___acrt_allocate_buffer_for_argv 10014664 f   libucrt:argv_parsing.obj
 0001:000136b3       __configure_narrow_argv    100146b3 f   libucrt:argv_parsing.obj
 0001:0001385f       ___dcrt_uninitialize_environments_nolock 1001485f f   libucrt:environment_initialization.obj
 0001:000138b0       __initialize_narrow_environment 100148b0 f   libucrt:environment_initialization.obj
 0001:0001396b       ??$__crt_fast_encode_pointer@PAX@@YAPAXQAX@Z 1001496b f i libucrt:initialization.obj
 0001:0001396b       ??$__crt_fast_encode_pointer@P6AHXZ@@YAP6AHXZQ6AHXZ@Z 1001496b f i libucrt:onexit.obj
 0001:0001396b       ??$__crt_fast_encode_pointer@PAP6AXXZ@@YAPAP6AXXZQAP6AXXZ@Z 1001496b f i libucrt:onexit.obj
 0001:00013b66       __crt_atexit               10014b66 f   libucrt:onexit.obj
 0001:00013b7c       __execute_onexit_table     10014b7c f   libucrt:onexit.obj
 0001:00013bba       __initialize_onexit_table  10014bba f   libucrt:onexit.obj
 0001:00013be3       __register_onexit_function 10014be3 f   libucrt:onexit.obj
 0001:00013c66       ___acrt_uninitialize_command_line 10014c66 f   libucrt:argv_data.obj
 0001:00013d14       ___acrt_initialize         10014d14 f   libucrt:initialization.obj
 0001:00013d26       ___acrt_thread_attach      10014d26 f   libucrt:initialization.obj
 0001:00013d31       ___acrt_thread_detach      10014d31 f   libucrt:initialization.obj
 0001:00013d39       ___acrt_uninitialize       10014d39 f   libucrt:initialization.obj
 0001:00013d69       ___acrt_uninitialize_critical 10014d69 f   libucrt:initialization.obj
 0001:00013d7b       __initterm                 10014d7b f   libucrt:initterm.obj
 0001:00013da6       __initterm_e               10014da6 f   libucrt:initterm.obj
 0001:00013dd4       ___acrt_initialize_new_handler 10014dd4 f   libucrt:new_handler.obj
 0001:00013de3       __callnewh                 10014de3 f   libucrt:new_handler.obj
 0001:00013e10       __query_new_handler        10014e10 f   libucrt:new_handler.obj
 0001:00013e6c       _terminate                 10014e6c f   libucrt:terminate.obj
 0001:00013ea8       _abort                     10014ea8 f   libucrt:abort.obj
 0001:00013eec       _strcpy_s                  10014eec f   libucrt:strcpy_s.obj
 0001:00013f50       _strncmp                   10014f50 f   libucrt:strncmp.obj
 0001:00013fc8       _wcsncmp                   10014fc8 f   libucrt:wcsncmp.obj
 0001:00014002       __free_base                10015002 f   libucrt:free_base.obj
 0001:0001437a       ___acrt_freeptd            1001537a f   libucrt:per_thread_data.obj
 0001:000143a6       ___acrt_getptd             100153a6 f   libucrt:per_thread_data.obj
 0001:00014461       ___acrt_getptd_head        10015461 f   libucrt:per_thread_data.obj
 0001:000144f7       ___acrt_getptd_noexit      100154f7 f   libucrt:per_thread_data.obj
 0001:000145a8       ___acrt_getptd_noexit_explicit 100155a8 f   libucrt:per_thread_data.obj
 0001:0001464b       ___acrt_initialize_ptd     1001564b f   libucrt:per_thread_data.obj
 0001:00014677       ___acrt_uninitialize_ptd   10015677 f   libucrt:per_thread_data.obj
 0001:000146ff       ___acrt_set_locale_changed 100156ff f   libucrt:wsetlocale.obj
 0001:0001470a       ___acrt_uninitialize_locale 1001570a f   libucrt:wsetlocale.obj
 0001:00014731       __calloc_base              10015731 f   libucrt:calloc_base.obj
 0001:0001478e       __malloc_base              1001578e f   libucrt:malloc_base.obj
 0001:000147dc       __msize_base               100157dc f   libucrt:msize.obj
 0001:0001480f       __realloc_base             1001580f f   libucrt:realloc_base.obj
 0001:00014a14       ___acrt_AppPolicyGetProcessTerminationMethodInternal@4 10015a14 f   libucrt:winapi_thunks.obj
 0001:00014a54       ___acrt_AreFileApisANSI@0  10015a54 f   libucrt:winapi_thunks.obj
 0001:00014a73       ___acrt_FlsAlloc@4         10015a73 f   libucrt:winapi_thunks.obj
 0001:00014ab2       ___acrt_FlsFree@4          10015ab2 f   libucrt:winapi_thunks.obj
 0001:00014af1       ___acrt_FlsGetValue@4      10015af1 f   libucrt:winapi_thunks.obj
 0001:00014b30       ___acrt_FlsSetValue@8      10015b30 f   libucrt:winapi_thunks.obj
 0001:00014b72       ___acrt_InitializeCriticalSectionEx@12 10015b72 f   libucrt:winapi_thunks.obj
 0001:00014bbd       ___acrt_LCMapStringEx@36   10015bbd f   libucrt:winapi_thunks.obj
 0001:00014c1a       ___acrt_LocaleNameToLCID@8 10015c1a f   libucrt:winapi_thunks.obj
 0001:00014c4b       ___acrt_SetThreadStackGuarantee@4 10015c4b f   libucrt:winapi_thunks.obj
 0001:00014c86       ___acrt_initialize_winapi_thunks 10015c86 f   libucrt:winapi_thunks.obj
 0001:00014c9a       ___acrt_uninitialize_winapi_thunks 10015c9a f   libucrt:winapi_thunks.obj
 0001:00014cd0       _wcsnlen                   10015cd0 f   libucrt:strnlen.obj
 0001:00014e80       ___acrt_update_locale_info 10015e80 f   libucrt:locale_update.obj
 0001:00014ead       ___acrt_update_locale_info_explicit 10015ead f   libucrt:locale_update.obj
 0001:00014ede       ___acrt_update_multibyte_info 10015ede f   libucrt:locale_update.obj
 0001:00014f0b       ___acrt_update_multibyte_info_explicit 10015f0b f   libucrt:locale_update.obj
 0001:00014f3c       ?__acrt_fp_classify@@YA?AW4__acrt_fp_class@@ABN@Z 10015f3c f i libucrt:cvt.obj
 0001:00015905       ___acrt_fp_format          10016905 f   libucrt:cvt.obj
 0001:00015a86       __mbtowc_internal          10016a86 f   libucrt:mbtowc.obj
 0001:00015bb9       __fileno                   10016bb9 f   libucrt:fileno.obj
 0001:00015be0       ___acrt_initialize_stdio   10016be0 f   libucrt:_file.obj
 0001:00015ca8       ___acrt_uninitialize_stdio 10016ca8 f   libucrt:_file.obj
 0001:00015cf4       __lock_file                10016cf4 f   libucrt:_file.obj
 0001:00015d08       __unlock_file              10016d08 f   libucrt:_file.obj
 0001:00015d1c       __get_printf_count_output  10016d1c f   libucrt:printf_count_output.obj
 0001:00015e97       ___acrt_initialize_lowio   10016e97 f   libucrt:ioinit.obj
 0001:00015ef7       ___acrt_uninitialize_lowio 10016ef7 f   libucrt:ioinit.obj
 0001:00015f23       ___acrt_initialize_locks   10016f23 f   libucrt:locks.obj
 0001:00015f64       ___acrt_lock               10016f64 f   libucrt:locks.obj
 0001:00015f7b       ___acrt_uninitialize_locks 10016f7b f   libucrt:locks.obj
 0001:00015fac       ___acrt_unlock             10016fac f   libucrt:locks.obj
 0001:00015fc3       ___acrt_get_process_end_policy 10016fc3 f   libucrt:win_policies.obj
 0001:0001600c       ??$__acrt_convert_wcs_mbs_cp@D_WV<lambda_62f6974d9771e494a5ea317cc32e971c>@@U__crt_win32_buffer_internal_dynamic_resizing@@@@YAHQBDAAV?$__crt_win32_buffer@_WU__crt_win32_buffer_internal_dynamic_resizing@@@@ABV<lambda_62f6974d9771e494a5ea317cc32e971c>@@I@Z 1001700c f i libucrt:argv_wildcards.obj
 0001:000160be       ??$__acrt_convert_wcs_mbs_cp@_WDV<lambda_28bda7af82a03b66c1cb3803a755f95d>@@U__crt_win32_buffer_internal_dynamic_resizing@@@@YAHQB_WAAV?$__crt_win32_buffer@DU__crt_win32_buffer_internal_dynamic_resizing@@@@ABV<lambda_28bda7af82a03b66c1cb3803a755f95d>@@I@Z 100170be f i libucrt:argv_wildcards.obj
 0001:00016184       ??$__acrt_mbs_to_wcs_cp@U__crt_win32_buffer_internal_dynamic_resizing@@@@YAHQBDAAV?$__crt_win32_buffer@_WU__crt_win32_buffer_internal_dynamic_resizing@@@@I@Z 10017184 f i libucrt:argv_wildcards.obj
 0001:00016654       ??0_LocaleUpdate@@QAE@QAU__crt_locale_pointers@@@Z 10017654 f i libucrt:argv_wildcards.obj
 0001:000166ff       ??R<lambda_28bda7af82a03b66c1cb3803a755f95d>@@QBEHIQB_WQADI@Z 100176ff f i libucrt:argv_wildcards.obj
 0001:000166ff       ??R<lambda_0fec1a7b3f42a53036604e18c2d5e07e>@@QBEHIQB_WQADI@Z 100176ff f i libucrt:getmodulefilenamea.obj
 0001:00016723       ?__acrt_get_utf8_acp_compatibility_codepage@@YAIXZ 10017723 f i libucrt:argv_wildcards.obj
 0001:00016762       ?_deallocate@?$__crt_win32_buffer@DU__crt_win32_buffer_internal_dynamic_resizing@@@@AAEXXZ 10017762 f i libucrt:argv_wildcards.obj
 0001:00016762       ?_deallocate@?$__crt_win32_buffer@_WU__crt_win32_buffer_internal_dynamic_resizing@@@@AAEXXZ 10017762 f i libucrt:argv_wildcards.obj
 0001:0001677c       ?allocate@?$__crt_win32_buffer@DU__crt_win32_buffer_internal_dynamic_resizing@@@@QAEHI@Z 1001777c f i libucrt:argv_wildcards.obj
 0001:000167b8       ?allocate@?$__crt_win32_buffer@_WU__crt_win32_buffer_internal_dynamic_resizing@@@@QAEHI@Z 100177b8 f i libucrt:argv_wildcards.obj
 0001:000167f7       ?allocate@__crt_win32_buffer_internal_dynamic_resizing@@SAHQAPAXIABV__crt_win32_buffer_empty_debug_info@@@Z 100177f7 f i libucrt:argv_wildcards.obj
 0001:0001689d       ___acrt_expand_narrow_argv_wildcards 1001789d f   libucrt:argv_wildcards.obj
 0001:000168a8       ??$__acrt_convert_wcs_mbs_cp@_WDV<lambda_0fec1a7b3f42a53036604e18c2d5e07e>@@U__crt_win32_buffer_no_resizing@@@@YAHQB_WAAV?$__crt_win32_buffer@DU__crt_win32_buffer_no_resizing@@@@ABV<lambda_0fec1a7b3f42a53036604e18c2d5e07e>@@I@Z 100178a8 f i libucrt:getmodulefilenamea.obj
 0001:0001696a       ?allocate@?$__crt_win32_buffer@DU__crt_win32_buffer_no_resizing@@@@QAEHI@Z 1001796a f i libucrt:getmodulefilenamea.obj
 0001:00016991       ?set_to_nullptr@?$__crt_win32_buffer@DU__crt_win32_buffer_no_resizing@@@@QAEXXZ 10017991 f i libucrt:getmodulefilenamea.obj
 0001:000169a5       ___acrt_GetModuleFileNameA 100179a5 f   libucrt:getmodulefilenamea.obj
 0001:00016fc9       ___acrt_initialize_multibyte 10017fc9 f   libucrt:mbctype.obj
 0001:00017011       ___acrt_update_thread_multibyte_data 10018011 f   libucrt:mbctype.obj
 0001:00017024       __setmbcp_nolock           10018024 f   libucrt:mbctype.obj
 0001:000172fd       __ismbblead                100182fd f   libucrt:ismbbyte.obj
 0001:00017315       ___acrt_initialize_command_line 10018315 f   libucrt:argv_data.obj
 0001:0001732e       ___acrt_MultiByteToWideChar 1001832e f   libucrt:multibytetowidechar.obj
 0001:000173aa       ___acrt_WideCharToMultiByte 100183aa f   libucrt:widechartomultibyte.obj
 0001:00017498       ___dcrt_get_narrow_environment_from_os 10018498 f   libucrt:get_environment_from_os.obj
 0001:00017538       ___acrt_initialize_heap    10018538 f   libucrt:heap_handle.obj
 0001:00017549       ___acrt_uninitialize_heap  10018549 f   libucrt:heap_handle.obj
 0001:00017553       ___acrt_execute_initializers 10018553 f   libucrt:shared_initialization.obj
 0001:000175bb       ___acrt_execute_uninitializers 100185bb f   libucrt:shared_initialization.obj
 0001:000176ba       ___acrt_get_sigabrt_handler 100186ba f   libucrt:signal.obj
 0001:000176e1       ___acrt_initialize_signal_handlers 100186e1 f   libucrt:signal.obj
 0001:000176ff       _raise                     100186ff f   libucrt:signal.obj
 0001:000178f2       ___acrt_has_user_matherr   100188f2 f   libucrt:matherr.obj
 0001:0001790a       ___acrt_initialize_user_matherr 1001890a f   libucrt:matherr.obj
 0001:00017919       ___acrt_invoke_user_matherr 10018919 f   libucrt:matherr.obj
 0001:00017b28       ___acrt_stdio_flush_nolock 10018b28 f   libucrt:fflush.obj
 0001:00017b91       __fflush_nolock            10018b91 f   libucrt:fflush.obj
 0001:00017bf6       __flushall                 10018bf6 f   libucrt:fflush.obj
 0001:00017bff       ___acrt_add_locale_ref     10018bff f   libucrt:locale_refcounting.obj
 0001:00017c7c       ___acrt_free_locale        10018c7c f   libucrt:locale_refcounting.obj
 0001:00017dc4       ___acrt_locale_add_lc_time_reference 10018dc4 f   libucrt:locale_refcounting.obj
 0001:00017ded       ___acrt_locale_free_lc_time_if_unreferenced 10018ded f   libucrt:locale_refcounting.obj
 0001:00017e1e       ___acrt_locale_release_lc_time_reference 10018e1e f   libucrt:locale_refcounting.obj
 0001:00017e47       ___acrt_release_locale_ref 10018e47 f   libucrt:locale_refcounting.obj
 0001:00017ec8       ___acrt_update_thread_locale_data 10018ec8 f   libucrt:locale_refcounting.obj
 0001:00017f49       __updatetlocinfoEx_nolock  10018f49 f   libucrt:locale_refcounting.obj
 0001:00017f99       ___acrt_locale_free_monetary 10018f99 f   libucrt:initmon.obj
 0001:00018097       ___acrt_locale_free_numeric 10019097 f   libucrt:initnum.obj
 0001:00018125       ___acrt_locale_free_time   10019125 f   libucrt:inittime.obj
 0001:00018209       ___acrt_GetStringTypeA     10019209 f   libucrt:getstringtypea.obj
 0001:00018312       __freea_crt                10019312 f i libucrt:getstringtypea.obj
 0001:00018332       __query_new_mode           10019332 f   libucrt:new_mode.obj
 0001:00018389       ___acrt_DownlevelLocaleNameToLCID 10019389 f   libucrt:lcidtoname_downlevel.obj
 0001:00018433       ___acrt_fp_strflt_to_string 10019433 f   libucrt:_fptostr.obj
 0001:00018530       ?divide@__crt_strtox@@YA_KAAUbig_integer@1@ABU21@@Z 10019530 f i libucrt:cfout.obj
 0001:000189b8       ___acrt_fltout             100199b8 f   libucrt:cfout.obj
 0001:00019ef1       _fegetround                1001aef1 f   libucrt:fegetround.obj
 0001:00019f2a       ?__mbrtowc_utf8@__crt_mbstring@@YAIPA_WPBDIPAU_Mbstatet@@AAV__crt_cached_ptd_host@@@Z 1001af2a f   libucrt:mbrtowc.obj
 0001:00019f6d       ?__mbsrtowcs_utf8@__crt_mbstring@@YAIPA_WPAPBDIPAU_Mbstatet@@AAV__crt_cached_ptd_host@@@Z 1001af6d f   libucrt:mbrtowc.obj
 0001:0001a075       __fcloseall                1001b075 f   libucrt:closeall.obj
 0001:0001a120       ___acrt_stdio_free_buffer_nolock 1001b120 f   libucrt:_freebuf.obj
 0001:0001a160       __isatty                   1001b160 f   libucrt:isatty.obj
 0001:0001a1b6       ___acrt_lowio_create_handle_array 1001b1b6 f   libucrt:osfinfo.obj
 0001:0001a231       ___acrt_lowio_destroy_handle_array 1001b231 f   libucrt:osfinfo.obj
 0001:0001a266       ___acrt_lowio_ensure_fh_exists 1001b266 f   libucrt:osfinfo.obj
 0001:0001a304       ___acrt_lowio_lock_fh      1001b304 f   libucrt:osfinfo.obj
 0001:0001a327       ___acrt_lowio_unlock_fh    1001b327 f   libucrt:osfinfo.obj
 0001:0001a34a       __free_osfhnd              1001b34a f   libucrt:osfinfo.obj
 0001:0001a3db       __get_osfhandle            1001b3db f   libucrt:osfinfo.obj
 0001:0001a450       _qsort                     1001b450 f   libucrt:qsort.obj
 0001:0001a9f5       _strncpy_s                 1001b9f5 f   libucrt:strncpy_s.obj
 0001:0001aa00       _strpbrk                   1001ba00 f   libucrt:strpbrk.obj
 0001:0001aa40       __mbsdec                   1001ba40 f   libucrt:mbsdec.obj
 0001:0001aa57       __mbsdec_l                 1001ba57 f   libucrt:mbsdec.obj
 0001:0001acd2       ___acrt_LCMapStringA       1001bcd2 f   libucrt:lcmapstringa.obj
 0001:0001adcc       __commit                   1001bdcc f   libucrt:commit.obj
 0001:0001b5f7       __write_internal           1001c5f7 f   libucrt:write.obj
 0001:0001b6ff       __write_nolock             1001c6ff f   libucrt:write.obj
 0001:0001b8ff       ___ascii_wcsnicmp          1001c8ff f   libucrt:wcsnicmp.obj
 0001:0001b94e       __controlfp_s              1001c94e f   libucrt:contrlfp.obj
 0001:0001b9ad       _fegetenv                  1001c9ad f   libucrt:fegetenv.obj
 0001:0001b9ca       _fesetenv                  1001c9ca f   libucrt:fesetenv.obj
 0001:0001ba15       _feholdexcept              1001ca15 f   libucrt:feholdexcept.obj
 0001:0001ba70       __CIlog10                  1001ca70 f   libucrt:log10_impl.obj
 0001:0001baab       __CIlog10_default          1001caab f   libucrt:log10_impl.obj
 0001:0001babf       __log10_default            1001cabf     libucrt:log10_impl.obj
 0001:0001bb80       _ceil                      1001cb80 f   libucrt:ceil_pentium4.obj
 0001:0001bbc0       __ceil_pentium4            1001cbc0 f   libucrt:ceil_pentium4.obj
 0001:0001bf66       ___acrt_fenv_get_common_round_control 1001cf66 f   libucrt:_fenvutils.obj
 0001:0001bf88       ___acrt_fenv_get_control   1001cf88 f   libucrt:_fenvutils.obj
 0001:0001c008       ___acrt_fenv_get_status    1001d008 f   libucrt:_fenvutils.obj
 0001:0001c0b2       ___acrt_fenv_set_control   1001d0b2 f   libucrt:_fenvutils.obj
 0001:0001c12d       ___acrt_fenv_set_status    1001d12d f   libucrt:_fenvutils.obj
 0001:0001c227       ?reset_and_return@__crt_mbstring@@YAIIPAU_Mbstatet@@@Z 1001d227 f   libucrt:common_utf8.obj
 0001:0001c23b       ?return_illegal_sequence@__crt_mbstring@@YAIPAU_Mbstatet@@AAV__crt_cached_ptd_host@@@Z 1001d23b f   libucrt:common_utf8.obj
 0001:0001c25d       ?__mbrtoc32_utf8@__crt_mbstring@@YAIPA_UPBDIPAU_Mbstatet@@AAV__crt_cached_ptd_host@@@Z 1001d25d f   libucrt:mbrtoc32.obj
 0001:0001c540       _fclose                    1001d540 f   libucrt:fclose.obj
 0001:0001c5f3       __lseeki64_nolock_internal 1001d5f3 f   libucrt:lseek.obj
 0001:0001c611       __query_app_type           1001d611 f   libucrt:report_runtime_error.obj
 0001:0001c617       ___strncnt                 1001d617 f   libucrt:strncnt.obj
 0001:0001c633       __putwch_nolock            1001d633 f   libucrt:putwch.obj
 0001:0001c70c       __clearfp                  1001d70c f   libucrt:ieee87.obj
 0001:0001c7ea       __control87                1001d7ea f   libucrt:ieee87.obj
 0001:0001cb89       ___acrt_initialize_sse2    1001db89 f   libucrt:mathfcns.obj
 0001:0001cba0       __CIlog10_pentium4         1001dba0 f   libucrt:log10_pentium4.obj
 0001:0001cbb8       __log10_pentium4           1001dbb8     libucrt:log10_pentium4.obj
 0001:0001ce50       __fFEXP                    1001de50 f   libucrt:87tran.obj
 0001:0001cea7       __rtinfpopse               1001dea7     libucrt:87tran.obj
 0001:0001cea9       __rtinfnpopse              1001dea9     libucrt:87tran.obj
 0001:0001ceb9       __fFLN                     1001deb9     libucrt:87tran.obj
 0001:0001cf6e       __rtinfpop                 1001df6e     libucrt:87tran.obj
 0001:0001cf70       __rtinfnpop                1001df70     libucrt:87tran.obj
 0001:0001cf80       __rtforexpinf              1001df80 f   libucrt:87tran.obj
 0001:0001cf8d       __ffexpm1                  1001df8d     libucrt:87tran.obj
 0001:0001d040       __trandisp1                1001e040 f   libucrt:87disp.obj
 0001:0001d0b5       __trandisp2                1001e0b5 f   libucrt:87disp.obj
 0001:0001d14f       __rttospopde               1001e14f     libucrt:87disp.obj
 0001:0001d154       __rttospop                 1001e154     libucrt:87disp.obj
 0001:0001d160       __rtnospop                 1001e160 f   libucrt:87disp.obj
 0001:0001d170       __rttosnpop                1001e170 f   libucrt:87disp.obj
 0001:0001d171       __rtnospopde               1001e171     libucrt:87disp.obj
 0001:0001d178       __rtzeropop                1001e178     libucrt:87disp.obj
 0001:0001d17a       __rtzeronpop               1001e17a     libucrt:87disp.obj
 0001:0001d180       __rtzerospop               1001e180 f   libucrt:87disp.obj
 0001:0001d18d       __rtonepop                 1001e18d     libucrt:87disp.obj
 0001:0001d190       __rtonenpop                1001e190 f   libucrt:87disp.obj
 0001:0001d1a0       __tosnan1                  1001e1a0 f   libucrt:87disp.obj
 0001:0001d1d0       __nosnan2                  1001e1d0 f   libucrt:87disp.obj
 0001:0001d1e0       __tosnan2                  1001e1e0 f   libucrt:87disp.obj
 0001:0001d210       __nan2                     1001e210 f   libucrt:87disp.obj
 0001:0001d250       __rtindfpop                1001e250 f   libucrt:87disp.obj
 0001:0001d252       __rtindfnpop               1001e252     libucrt:87disp.obj
 0001:0001d263       __rttosnpopde              1001e263     libucrt:87disp.obj
 0001:0001d270       __rtatan2inf               1001e270 f   libucrt:87disp.obj
 0001:0001d28d       __rtchsifneg               1001e28d     libucrt:87disp.obj
 0001:0001d2a0       __twoToTOS                 1001e2a0 f   libucrt:common.obj
 0001:0001d2b5       __load_CW                  1001e2b5 f   libucrt:common.obj
 0001:0001d2cc       __convertTOStoQNaN         1001e2cc f   libucrt:common.obj
 0001:0001d2e5       __fload_withFB             1001e2e5 f   libucrt:common.obj
 0001:0001d328       __checkTOS_withFB          1001e328 f   libucrt:common.obj
 0001:0001d33e       __fast_exit                1001e33e f   libucrt:common.obj
 0001:0001d34b       __math_exit                1001e34b f   libucrt:common.obj
 0001:0001d375       __check_overflow_exit      1001e375 f   libucrt:common.obj
 0001:0001d389       __check_range_exit         1001e389 f   libucrt:common.obj
 0001:0001d430       __startTwoArgErrorHandling 1001e430 f   libucrt:genexcep.obj
 0001:0001d447       __startOneArgErrorHandling 1001e447 f   libucrt:genexcep.obj
 0001:0001d483       ___libm_error_support      1001e483 f   libucrt:libm_error.obj
 0001:0001d677       __ceil_default             1001e677 f   libucrt:ceil.obj
 0001:0001d7bd       __close_internal           1001e7bd f   libucrt:close.obj
 0001:0001d860       __close_nolock_internal    1001e860 f   libucrt:close.obj
 0001:0001d900       ?__acrt_stdio_free_stream@@YAXV__crt_stdio_stream@@@Z 1001e900 f   libucrt:stream.obj
 0001:0001d940       ___ascii_strnicmp          1001e940 f   libucrt:_strnicm.obj
 0001:0001d9c0       ___dcrt_lowio_ensure_console_output_initialized 1001e9c0 f   libucrt:initcon.obj
 0001:0001d9df       ___dcrt_terminate_console_output 1001e9df f   libucrt:initcon.obj
 0001:0001d9f6       ___dcrt_write_console      1001e9f6 f   libucrt:initcon.obj
 0001:0001da4b       ___set_fpsr_sse2           1001ea4b f   libucrt:fpctrl.obj
 0001:0001dacb       __clrfp                    1001eacb f   libucrt:fpctrl.obj
 0001:0001dadc       __ctrlfp                   1001eadc f   libucrt:fpctrl.obj
 0001:0001db06       __set_statfp               1001eb06 f   libucrt:fpctrl.obj
 0001:0001db5f       __statfp                   1001eb5f f   libucrt:fpctrl.obj
 0001:0001db6f       __d_inttype                1001eb6f f   libucrt:powhlp.obj
 0001:0001dbd7       __powhlp                   1001ebd7 f   libucrt:powhlp.obj
 0001:0001dd02       __87except                 1001ed02 f   libucrt:87except.obj
 0001:0001de0c       __frnd                     1001ee0c f   libucrt:frnd.obj
 0001:0001de20       __errcode                  1001ee20 f   libucrt:fpexcept.obj
 0001:0001de54       __except1                  1001ee54 f   libucrt:fpexcept.obj
 0001:0001df22       __handle_exc               1001ef22 f   libucrt:fpexcept.obj
 0001:0001e19b       __raise_exc                1001f19b f   libucrt:fpexcept.obj
 0001:0001e1be       __raise_exc_ex             1001f1be f   libucrt:fpexcept.obj
 0001:0001e4b4       __set_errno_from_matherr   1001f4b4 f   libucrt:fpexcept.obj
 0001:0001e4e3       __umatherr                 1001f4e3 f   libucrt:fpexcept.obj
 0001:0001e583       __decomp                   1001f583 f   libucrt:util.obj
 0001:0001e655       __set_exp                  1001f655 f   libucrt:util.obj
 0001:0001e682       __sptype                   1001f682 f   libucrt:util.obj
 0001:0001e6e0       __fpclass                  1001f6e0 f   libucrt:ieeemisc.obj
 0001:0001e790       __FindPESection            1001f790 f   LIBCMT:pesect.obj
 0001:0001e7e0       __IsNonwritableInCurrentImage 1001f7e0 f   LIBCMT:pesect.obj
 0001:0001e8a0       __ValidateImageBase        1001f8a0 f   LIBCMT:pesect.obj
 0001:0001e8d1       __EH_epilog3               1001f8d1 f   LIBCMT:ehprolg3.obj
 0001:0001e8e5       __EH_prolog3               1001f8e5 f   LIBCMT:ehprolg3.obj
 0001:0001e918       __EH_prolog3_catch         1001f918 f   LIBCMT:ehprolg3.obj
 0001:0001e950       __aulldvrm                 1001f950 f   LIBCMT:ulldvrm.obj
 0001:0001e9f0       __allmul                   1001f9f0 f   LIBCMT:llmul.obj
 0001:0001ea30       __alldvrm                  1001fa30 f   LIBCMT:lldvrm.obj
 0001:0001eb10       __allshl                   1001fb10 f   LIBCMT:llshl.obj
 0001:0001eb30       __aullshr                  1001fb30 f   LIBCMT:ullshr.obj
 0001:0001eb50       __ftol2_sse                1001fb50 f   LIBCMT:ftol2.obj
 0001:0001eb60       __ftoi2                    1001fb60 f   LIBCMT:ftol2.obj
 0001:0001ebe0       _strrchr                   1001fbe0 f   libvcruntime:strrchr.obj
 0001:0001ed20       __filter_x86_sse2_floating_point_exception_default 1001fd20 f   LIBCMT:x86_exception_filter.obj
 0001:0001ed20       __filter_x86_sse2_floating_point_exception 1001fd20 f   LIBCMT:x86_exception_filter.obj
 0002:00000000       __imp__RegQueryValueExW@24 10020000     advapi32:ADVAPI32.dll
 0002:00000004       __imp__RegSetValueExW@24   10020004     advapi32:ADVAPI32.dll
 0002:00000008       __imp__RegQueryInfoKeyW@48 10020008     advapi32:ADVAPI32.dll
 0002:0000000c       __imp__RegOpenKeyExW@20    1002000c     advapi32:ADVAPI32.dll
 0002:00000010       __imp__RegEnumKeyExW@32    10020010     advapi32:ADVAPI32.dll
 0002:00000014       __imp__RegDeleteValueW@8   10020014     advapi32:ADVAPI32.dll
 0002:00000018       __imp__RegDeleteKeyW@8     10020018     advapi32:ADVAPI32.dll
 0002:0000001c       __imp__RegCreateKeyExW@36  1002001c     advapi32:ADVAPI32.dll
 0002:00000020       __imp__RegCloseKey@4       10020020     advapi32:ADVAPI32.dll
 0002:00000024       \177ADVAPI32_NULL_THUNK_DATA 10020024     advapi32:ADVAPI32.dll
 0002:00000028       __imp__GetObjectW@12       10020028     gdi32:GDI32.dll
 0002:0000002c       __imp__SelectObject@8      1002002c     gdi32:GDI32.dll
 0002:00000030       __imp__DeleteObject@4      10020030     gdi32:GDI32.dll
 0002:00000034       __imp__CreateCompatibleDC@4 10020034     gdi32:GDI32.dll
 0002:00000038       __imp__BitBlt@36           10020038     gdi32:GDI32.dll
 0002:0000003c       __imp__SetWindowOrgEx@16   1002003c     gdi32:GDI32.dll
 0002:00000040       __imp__SetWindowExtEx@16   10020040     gdi32:GDI32.dll
 0002:00000044       __imp__SetViewportOrgEx@16 10020044     gdi32:GDI32.dll
 0002:00000048       __imp__LPtoDP@12           10020048     gdi32:GDI32.dll
 0002:0000004c       __imp__SetMapMode@8        1002004c     gdi32:GDI32.dll
 0002:00000050       __imp__SaveDC@4            10020050     gdi32:GDI32.dll
 0002:00000054       __imp__RestoreDC@8         10020054     gdi32:GDI32.dll
 0002:00000058       __imp__GetDeviceCaps@8     10020058     gdi32:GDI32.dll
 0002:0000005c       __imp__DeleteMetaFile@4    1002005c     gdi32:GDI32.dll
 0002:00000060       __imp__DeleteDC@4          10020060     gdi32:GDI32.dll
 0002:00000064       __imp__CreateRectRgnIndirect@4 10020064     gdi32:GDI32.dll
 0002:00000068       __imp__CreateMetaFileW@4   10020068     gdi32:GDI32.dll
 0002:0000006c       __imp__CreateDCW@16        1002006c     gdi32:GDI32.dll
 0002:00000070       __imp__CloseMetaFile@4     10020070     gdi32:GDI32.dll
 0002:00000074       \177GDI32_NULL_THUNK_DATA  10020074     gdi32:GDI32.dll
 0002:00000078       __imp__CloseHandle@4       10020078     kernel32:KERNEL32.dll
 0002:0000007c       __imp__SetEvent@4          1002007c     kernel32:KERNEL32.dll
 0002:00000080       __imp__CreateMutexW@12     10020080     kernel32:KERNEL32.dll
 0002:00000084       __imp__CreateEventW@16     10020084     kernel32:KERNEL32.dll
 0002:00000088       __imp__GetCurrentProcessId@0 10020088     kernel32:KERNEL32.dll
 0002:0000008c       __imp__CreateFileW@28      1002008c     kernel32:KERNEL32.dll
 0002:00000090       __imp__GetConsoleMode@8    10020090     kernel32:KERNEL32.dll
 0002:00000094       __imp__GetConsoleOutputCP@0 10020094     kernel32:KERNEL32.dll
 0002:00000098       __imp__WriteFile@20        10020098     kernel32:KERNEL32.dll
 0002:0000009c       __imp__FlushFileBuffers@4  1002009c     kernel32:KERNEL32.dll
 0002:000000a0       __imp__SetStdHandle@8      100200a0     kernel32:KERNEL32.dll
 0002:000000a4       __imp__SetFilePointerEx@20 100200a4     kernel32:KERNEL32.dll
 0002:000000a8       __imp__GetStringTypeW@16   100200a8     kernel32:KERNEL32.dll
 0002:000000ac       __imp__FreeEnvironmentStringsW@4 100200ac     kernel32:KERNEL32.dll
 0002:000000b0       __imp__GetEnvironmentStringsW@0 100200b0     kernel32:KERNEL32.dll
 0002:000000b4       __imp__lstrcmpiW@8         100200b4     kernel32:KERNEL32.dll
 0002:000000b8       __imp__GetCommandLineA@0   100200b8     kernel32:KERNEL32.dll
 0002:000000bc       __imp__GetCPInfo@8         100200bc     kernel32:KERNEL32.dll
 0002:000000c0       __imp__GetOEMCP@0          100200c0     kernel32:KERNEL32.dll
 0002:000000c4       __imp__GetACP@0            100200c4     kernel32:KERNEL32.dll
 0002:000000c8       __imp__IsValidCodePage@4   100200c8     kernel32:KERNEL32.dll
 0002:000000cc       __imp__FindNextFileW@8     100200cc     kernel32:KERNEL32.dll
 0002:000000d0       __imp__FindFirstFileExW@24 100200d0     kernel32:KERNEL32.dll
 0002:000000d4       __imp__FindClose@4         100200d4     kernel32:KERNEL32.dll
 0002:000000d8       __imp__GetFileType@4       100200d8     kernel32:KERNEL32.dll
 0002:000000dc       __imp__GetStdHandle@4      100200dc     kernel32:KERNEL32.dll
 0002:000000e0       __imp__LCMapStringW@24     100200e0     kernel32:KERNEL32.dll
 0002:000000e4       __imp__HeapReAlloc@16      100200e4     kernel32:KERNEL32.dll
 0002:000000e8       __imp__HeapSize@12         100200e8     kernel32:KERNEL32.dll
 0002:000000ec       __imp__MulDiv@12           100200ec     kernel32:KERNEL32.dll
 0002:000000f0       __imp__GlobalLock@4        100200f0     kernel32:KERNEL32.dll
 0002:000000f4       __imp__GlobalUnlock@4      100200f4     kernel32:KERNEL32.dll
 0002:000000f8       __imp__GlobalAlloc@8       100200f8     kernel32:KERNEL32.dll
 0002:000000fc       __imp__FindResourceW@12    100200fc     kernel32:KERNEL32.dll
 0002:00000100       __imp__SizeofResource@8    10020100     kernel32:KERNEL32.dll
 0002:00000104       __imp__LoadResource@8      10020104     kernel32:KERNEL32.dll
 0002:00000108       __imp__LoadLibraryExW@12   10020108     kernel32:KERNEL32.dll
 0002:0000010c       __imp__GetProcAddress@8    1002010c     kernel32:KERNEL32.dll
 0002:00000110       __imp__GetModuleHandleW@4  10020110     kernel32:KERNEL32.dll
 0002:00000114       __imp__GetModuleFileNameW@12 10020114     kernel32:KERNEL32.dll
 0002:00000118       __imp__FreeLibrary@4       10020118     kernel32:KERNEL32.dll
 0002:0000011c       __imp__DisableThreadLibraryCalls@4 1002011c     kernel32:KERNEL32.dll
 0002:00000120       __imp__GetCurrentThreadId@0 10020120     kernel32:KERNEL32.dll
 0002:00000124       __imp__Sleep@4             10020124     kernel32:KERNEL32.dll
 0002:00000128       __imp__WaitForSingleObject@8 10020128     kernel32:KERNEL32.dll
 0002:0000012c       __imp__ReleaseMutex@4      1002012c     kernel32:KERNEL32.dll
 0002:00000130       __imp__ResetEvent@4        10020130     kernel32:KERNEL32.dll
 0002:00000134       __imp__EnterCriticalSection@4 10020134     kernel32:KERNEL32.dll
 0002:00000138       __imp__LeaveCriticalSection@4 10020138     kernel32:KERNEL32.dll
 0002:0000013c       __imp__SetLastError@4      1002013c     kernel32:KERNEL32.dll
 0002:00000140       __imp__EncodePointer@4     10020140     kernel32:KERNEL32.dll
 0002:00000144       __imp__DeleteCriticalSection@4 10020144     kernel32:KERNEL32.dll
 0002:00000148       __imp__InitializeCriticalSectionEx@12 10020148     kernel32:KERNEL32.dll
 0002:0000014c       __imp__GetLastError@0      1002014c     kernel32:KERNEL32.dll
 0002:00000150       __imp__RaiseException@16   10020150     kernel32:KERNEL32.dll
 0002:00000154       __imp__DecodePointer@4     10020154     kernel32:KERNEL32.dll
 0002:00000158       __imp__WideCharToMultiByte@32 10020158     kernel32:KERNEL32.dll
 0002:0000015c       __imp__GetCommandLineW@0   1002015c     kernel32:KERNEL32.dll
 0002:00000160       __imp__MultiByteToWideChar@24 10020160     kernel32:KERNEL32.dll
 0002:00000164       __imp__WriteConsoleW@20    10020164     kernel32:KERNEL32.dll
 0002:00000168       __imp__GetModuleHandleExW@12 10020168     kernel32:KERNEL32.dll
 0002:0000016c       __imp__ExitProcess@4       1002016c     kernel32:KERNEL32.dll
 0002:00000170       __imp__VirtualQuery@12     10020170     kernel32:KERNEL32.dll
 0002:00000174       __imp__VirtualProtect@16   10020174     kernel32:KERNEL32.dll
 0002:00000178       __imp__GetSystemInfo@4     10020178     kernel32:KERNEL32.dll
 0002:0000017c       __imp__TlsFree@4           1002017c     kernel32:KERNEL32.dll
 0002:00000180       __imp__TlsSetValue@8       10020180     kernel32:KERNEL32.dll
 0002:00000184       __imp__TlsGetValue@4       10020184     kernel32:KERNEL32.dll
 0002:00000188       __imp__TlsAlloc@0          10020188     kernel32:KERNEL32.dll
 0002:0000018c       __imp__InterlockedFlushSList@4 1002018c     kernel32:KERNEL32.dll
 0002:00000190       __imp__RtlUnwind@16        10020190     kernel32:KERNEL32.dll
 0002:00000194       __imp__LoadLibraryExA@12   10020194     kernel32:KERNEL32.dll
 0002:00000198       __imp__VirtualFree@12      10020198     kernel32:KERNEL32.dll
 0002:0000019c       __imp__VirtualAlloc@16     1002019c     kernel32:KERNEL32.dll
 0002:000001a0       __imp__FlushInstructionCache@12 100201a0     kernel32:KERNEL32.dll
 0002:000001a4       __imp__InterlockedPushEntrySList@8 100201a4     kernel32:KERNEL32.dll
 0002:000001a8       __imp__InterlockedPopEntrySList@4 100201a8     kernel32:KERNEL32.dll
 0002:000001ac       __imp__GetProcessHeap@0    100201ac     kernel32:KERNEL32.dll
 0002:000001b0       __imp__HeapFree@12         100201b0     kernel32:KERNEL32.dll
 0002:000001b4       __imp__HeapAlloc@12        100201b4     kernel32:KERNEL32.dll
 0002:000001b8       __imp__OutputDebugStringW@4 100201b8     kernel32:KERNEL32.dll
 0002:000001bc       __imp__InitializeSListHead@4 100201bc     kernel32:KERNEL32.dll
 0002:000001c0       __imp__GetSystemTimeAsFileTime@4 100201c0     kernel32:KERNEL32.dll
 0002:000001c4       __imp__QueryPerformanceCounter@4 100201c4     kernel32:KERNEL32.dll
 0002:000001c8       __imp__GetStartupInfoW@4   100201c8     kernel32:KERNEL32.dll
 0002:000001cc       __imp__IsDebuggerPresent@0 100201cc     kernel32:KERNEL32.dll
 0002:000001d0       __imp__IsProcessorFeaturePresent@4 100201d0     kernel32:KERNEL32.dll
 0002:000001d4       __imp__TerminateProcess@8  100201d4     kernel32:KERNEL32.dll
 0002:000001d8       __imp__GetCurrentProcess@0 100201d8     kernel32:KERNEL32.dll
 0002:000001dc       __imp__SetUnhandledExceptionFilter@4 100201dc     kernel32:KERNEL32.dll
 0002:000001e0       __imp__UnhandledExceptionFilter@4 100201e0     kernel32:KERNEL32.dll
 0002:000001e4       __imp__InitializeCriticalSectionAndSpinCount@8 100201e4     kernel32:KERNEL32.dll
 0002:000001e8       __imp__WaitForSingleObjectEx@12 100201e8     kernel32:KERNEL32.dll
 0002:000001ec       \177KERNEL32_NULL_THUNK_DATA 100201ec     kernel32:KERNEL32.dll
 0002:000001f0       __imp__OleCreatePropertyFrame@44 100201f0     oleaut32:OLEAUT32.dll
 0002:000001f4       __imp__UnRegisterTypeLib@20 100201f4     oleaut32:OLEAUT32.dll
 0002:000001f8       __imp__RegisterTypeLib@12  100201f8     oleaut32:OLEAUT32.dll
 0002:000001fc       __imp__LoadRegTypeLib@20   100201fc     oleaut32:OLEAUT32.dll
 0002:00000200       __imp__LoadTypeLib@8       10020200     oleaut32:OLEAUT32.dll
 0002:00000204       __imp__VarUI4FromStr@16    10020204     oleaut32:OLEAUT32.dll
 0002:00000208       __imp__VariantInit@4       10020208     oleaut32:OLEAUT32.dll
 0002:0000020c       __imp__SysAllocStringByteLen@8 1002020c     oleaut32:OLEAUT32.dll
 0002:00000210       __imp__SysStringByteLen@4  10020210     oleaut32:OLEAUT32.dll
 0002:00000214       __imp__VariantChangeType@16 10020214     oleaut32:OLEAUT32.dll
 0002:00000218       __imp__VariantClear@4      10020218     oleaut32:OLEAUT32.dll
 0002:0000021c       __imp__SysStringLen@4      1002021c     oleaut32:OLEAUT32.dll
 0002:00000220       __imp__SysFreeString@4     10020220     oleaut32:OLEAUT32.dll
 0002:00000224       __imp__SysAllocStringLen@8 10020224     oleaut32:OLEAUT32.dll
 0002:00000228       __imp__SysAllocString@4    10020228     oleaut32:OLEAUT32.dll
 0002:0000022c       \177OLEAUT32_NULL_THUNK_DATA 1002022c     oleaut32:OLEAUT32.dll
 0002:00000230       __imp__UnregisterClassW@8  10020230     user32:USER32.dll
 0002:00000234       __imp__PostMessageW@16     10020234     user32:USER32.dll
 0002:00000238       __imp__DefWindowProcW@16   10020238     user32:USER32.dll
 0002:0000023c       __imp__CallWindowProcW@20  1002023c     user32:USER32.dll
 0002:00000240       __imp__RegisterClassExW@4  10020240     user32:USER32.dll
 0002:00000244       __imp__GetClassInfoExW@12  10020244     user32:USER32.dll
 0002:00000248       __imp__CreateWindowExW@48  10020248     user32:USER32.dll
 0002:0000024c       __imp__IsWindow@4          1002024c     user32:USER32.dll
 0002:00000250       __imp__IsChild@8           10020250     user32:USER32.dll
 0002:00000254       __imp__DestroyWindow@4     10020254     user32:USER32.dll
 0002:00000258       __imp__ShowWindow@8        10020258     user32:USER32.dll
 0002:0000025c       __imp__SetWindowPos@28     1002025c     user32:USER32.dll
 0002:00000260       __imp__CharNextW@4         10020260     user32:USER32.dll
 0002:00000264       __imp__SetFocus@4          10020264     user32:USER32.dll
 0002:00000268       __imp__LoadBitmapW@8       10020268     user32:USER32.dll
 0002:0000026c       __imp__RegisterClassW@4    1002026c     user32:USER32.dll
 0002:00000270       __imp__PeekMessageW@20     10020270     user32:USER32.dll
 0002:00000274       __imp__LoadCursorW@8       10020274     user32:USER32.dll
 0002:00000278       __imp__GetParent@4         10020278     user32:USER32.dll
 0002:0000027c       __imp__SetWindowLongW@12   1002027c     user32:USER32.dll
 0002:00000280       __imp__GetWindowLongW@8    10020280     user32:USER32.dll
 0002:00000284       __imp__PtInRect@12         10020284     user32:USER32.dll
 0002:00000288       __imp__EqualRect@8         10020288     user32:USER32.dll
 0002:0000028c       __imp__OffsetRect@12       1002028c     user32:USER32.dll
 0002:00000290       __imp__UnionRect@12        10020290     user32:USER32.dll
 0002:00000294       __imp__IntersectRect@12    10020294     user32:USER32.dll
 0002:00000298       __imp__GetClientRect@8     10020298     user32:USER32.dll
 0002:0000029c       __imp__InvalidateRect@12   1002029c     user32:USER32.dll
 0002:000002a0       __imp__SetWindowRgn@12     100202a0     user32:USER32.dll
 0002:000002a4       __imp__EndPaint@8          100202a4     user32:USER32.dll
 0002:000002a8       __imp__BeginPaint@8        100202a8     user32:USER32.dll
 0002:000002ac       __imp__ReleaseDC@8         100202ac     user32:USER32.dll
 0002:000002b0       __imp__GetDC@4             100202b0     user32:USER32.dll
 0002:000002b4       __imp__GetKeyState@4       100202b4     user32:USER32.dll
 0002:000002b8       __imp__GetFocus@0          100202b8     user32:USER32.dll
 0002:000002bc       \177USER32_NULL_THUNK_DATA 100202bc     user32:USER32.dll
 0002:000002c0       __imp__StringFromGUID2@12  100202c0     ole32:ole32.dll
 0002:000002c4       __imp__CoTaskMemAlloc@4    100202c4     ole32:ole32.dll
 0002:000002c8       __imp__CoTaskMemRealloc@8  100202c8     ole32:ole32.dll
 0002:000002cc       __imp__CoTaskMemFree@4     100202cc     ole32:ole32.dll
 0002:000002d0       __imp__ReadClassStm@8      100202d0     ole32:ole32.dll
 0002:000002d4       __imp__WriteClassStm@8     100202d4     ole32:ole32.dll
 0002:000002d8       __imp__CreateDataAdviseHolder@4 100202d8     ole32:ole32.dll
 0002:000002dc       __imp__OleSaveToStream@8   100202dc     ole32:ole32.dll
 0002:000002e0       __imp__CreateOleAdviseHolder@4 100202e0     ole32:ole32.dll
 0002:000002e4       __imp__OleRegGetUserType@12 100202e4     ole32:ole32.dll
 0002:000002e8       __imp__OleRegGetMiscStatus@12 100202e8     ole32:ole32.dll
 0002:000002ec       __imp__OleRegEnumVerbs@8   100202ec     ole32:ole32.dll
 0002:000002f0       __imp__CLSIDFromProgID@8   100202f0     ole32:ole32.dll
 0002:000002f4       __imp__CoCreateInstance@20 100202f4     ole32:ole32.dll
 0002:000002f8       \177ole32_NULL_THUNK_DATA  100202f8     ole32:ole32.dll
 0002:000002fc       ___guard_check_icall_fptr  100202fc     LIBCMT:guard_support.obj
 0002:00000300       ___castguard_check_failure_os_handled_fptr 10020300     LIBCMT:guard_support.obj
 0002:00000304       ___xc_a                    10020304     LIBCMT:initializers.obj
 0002:0000031c       ___xc_z                    1002031c     LIBCMT:initializers.obj
 0002:00000320       ___xi_a                    10020320     LIBCMT:initializers.obj
 0002:00000328       ___acrt_stdio_initializer  10020328     libucrt:stdio_initializer.obj
 0002:0000032c       ___acrt_multibyte_initializer 1002032c     libucrt:multibyte_initializer.obj
 0002:00000330       ___acrt_tran_sse2_initializer 10020330     libucrt:sse2_initializer.obj
 0002:00000334       ___xi_z                    10020334     LIBCMT:initializers.obj
 0002:00000338       ___xl_a                    10020338     LIBCMT:tlssup.obj
 0002:0000033c       ___xl_z                    1002033c     LIBCMT:tlssup.obj
 0002:00000340       ___xp_a                    10020340     LIBCMT:initializers.obj
 0002:00000344       ___acrt_locale_terminator  10020344     libucrt:locale_initializer.obj
 0002:00000348       ___dcrt_console_output_terminator 10020348     libucrt:console_output_initializer.obj
 0002:0000034c       ___acrt_stdio_terminator   1002034c     libucrt:stdio_initializer.obj
 0002:00000350       ___xp_z                    10020350     LIBCMT:initializers.obj
 0002:00000354       ___xt_a                    10020354     LIBCMT:initializers.obj
 0002:00000358       ___xt_z                    10020358     LIBCMT:initializers.obj
 0002:00000360       ??_C@_13HADIAKP@?$AAS@     10020360     OposVariant.obj
 0002:00000364       ??_C@_13LHMFKAAD@?$AAM@    10020364     OposVariant.obj
 0002:00000368       ??_C@_13MKMNOPIJ@?$AAD@    10020368     OposVariant.obj
 0002:0000036c       ??_C@_13OPKGLAFF@?$AAB@    1002036c     OposVariant.obj
 0002:00000370       ??_C@_17LLMMEOJD@?$AAV?$AAa?$AAl@ 10020370     OposVariant.obj
 0002:00000378       ??_C@_1BI@JFAIJMHL@?$AAF?$AAo?$AAr?$AAc?$AAe?$AAR?$AAe?$AAm?$AAo?$AAv?$AAe@ 10020378     OposVariant.obj
 0002:00000390       ??_C@_1BC@GCKHIPE@?$AAN?$AAo?$AAR?$AAe?$AAm?$AAo?$AAv?$AAe@ 10020390     OposVariant.obj
 0002:000003a4       ??_C@_1O@JDLOHAN@?$AAD?$AAe?$AAl?$AAe?$AAt?$AAe@ 100203a4     OposVariant.obj
 0002:000003b4       ??_C@_11LOCGONAA@@         100203b4     OposVariant.obj
 0002:000003b8       __GUID_00020412_0000_0000_c000_000000000046 100203b8     SoundRecorder.obj
 0002:000003c8       __GUID_00020401_0000_0000_c000_000000000046 100203c8     SoundRecorder.obj
 0002:000003d8       ??_7?$CComObject@V?$CComEnum@UIEnumConnections@@$1?_GUID_b196b287_bab4_101a_b69c_00aa00341d07@@3U__s_GUID@@BUtagCONNECTDATA@@V?$_Copy@UtagCONNECTDATA@@@ATL@@VCComSingleThreadModel@6@@ATL@@@ATL@@6B@ 100203d8     SoundRecorder.obj
 0002:000003f8       __GUID_55980ba0_35aa_11cf_b671_00aa004cd6d8 100203f8     SoundRecorder.obj
 0002:00000408       __GUID_b196b28b_bab4_101a_b69c_00aa00341d07 10020408     SoundRecorder.obj
 0002:00000418       ?_entries@?1??_GetEntries@?$CComEnum@UIEnumConnections@@$1?_GUID_b196b287_bab4_101a_b69c_00aa00341d07@@3U__s_GUID@@BUtagCONNECTDATA@@V?$_Copy@UtagCONNECTDATA@@@ATL@@VCComSingleThreadModel@6@@ATL@@SGPBU_ATL_INTMAP_ENTRY@3@XZ@4QBU43@B 10020418     SoundRecorder.obj
 0002:00000430       ??_7CComClassFactory@ATL@@6B@ 10020430     SoundRecorder.obj
 0002:00000448       ?_entries@?1??_GetEntries@CComClassFactory@ATL@@SGPBU_ATL_INTMAP_ENTRY@3@XZ@4QBU43@B 10020448     SoundRecorder.obj
 0002:00000460       __GUID_00000001_0000_0000_c000_000000000046 10020460     SoundRecorder.obj
 0002:00000470       _IID_IOPOSSoundRecorder_1_16 10020470     SoundRecorder.obj
 0002:00000480       ??_C@_1BK@BIGILECK@?$AAA?$AAd?$AAv?$AAa?$AAp?$AAi?$AA3?$AA2?$AA?4?$AAd?$AAl?$AAl@ 10020480     SoundRecorder.obj
 0002:0000049c       ??_C@_0BI@MNCFCPFK@RegCreateKeyTransactedW@ 1002049c     SoundRecorder.obj
 0002:000004b4       _IID_IOPOSSoundRecorder    100204b4     SoundRecorder.obj
 0002:000004c4       _LIBID_OposSoundRecorder_CCO 100204c4     SoundRecorder.obj
 0002:000004d4       _DIID__IOPOSSoundRecorderEvents 100204d4     SoundRecorder.obj
 0002:000004e4       _CLSID_OPOSSoundRecorder   100204e4     SoundRecorder.obj
 0002:000004f4       __GUID_b196b287_bab4_101a_b69c_00aa00341d07 100204f4     SoundRecorder.obj
 0002:00000504       __GUID_b196b285_bab4_101a_b69c_00aa00341d07 10020504     SoundRecorder.obj
 0002:00000514       __GUID_00000114_0000_0000_c000_000000000046 10020514     SoundRecorder.obj
 0002:00000524       __GUID_a6bc3ac0_dbaa_11ce_9de3_00aa004bb851 10020524     SoundRecorder.obj
 0002:00000534       __GUID_0000010c_0000_0000_c000_000000000046 10020534     SoundRecorder.obj
 0002:00000544       __GUID_00000146_0000_0000_c000_000000000046 10020544     SoundRecorder.obj
 0002:00000554       ??_7CComModule@ATL@@6B@    10020554     SoundRecorder.obj
 0002:0000057c       __GUID_00000000_0000_0000_c000_000000000046 1002057c     SoundRecorder.obj
 0002:00000590       ?_entries@?1??_GetEntries@COPOSSoundRecorder@@SGPBU_ATL_INTMAP_ENTRY@ATL@@XZ@4QBU34@B 10020590     SoundRecorder.obj
 0002:000006b0       __GUID_00020400_0000_0000_c000_000000000046 100206b0     SoundRecorder.obj
 0002:000006c0       __GUID_cf51ed10_62fe_11cf_bf86_00a0c9034836 100206c0     SoundRecorder.obj
 0002:000006d0       __GUID_0000010a_0000_0000_c000_000000000046 100206d0     SoundRecorder.obj
 0002:000006e0       __GUID_b196b283_bab4_101a_b69c_00aa00341d07 100206e0     SoundRecorder.obj
 0002:000006f0       __GUID_cb5bdc81_93c1_11cf_8f20_00805f2cd064 100206f0     SoundRecorder.obj
 0002:00000700       ?pPropMap@?1??GetPropertyMap@COPOSSoundRecorder@@SAPBUATL_PROPMAP_ENTRY@ATL@@XZ@4QBU34@B 10020700     SoundRecorder.obj
 0002:0000076c       ??_C@_17DGDADEHL@?$AA_?$AAc?$AAx@ 1002076c     SoundRecorder.obj
 0002:00000774       ??_C@_17IOIMFDBO@?$AA_?$AAc?$AAy@ 10020774     SoundRecorder.obj
 0002:0000077c       __GUID_922eada0_3424_11cf_b670_00aa004cd6d8 1002077c     SoundRecorder.obj
 0002:0000078c       __GUID_9c2cad80_3424_11cf_b670_00aa004cd6d8 1002078c     SoundRecorder.obj
 0002:0000079c       __GUID_00000119_0000_0000_c000_000000000046 1002079c     SoundRecorder.obj
 0002:000007ac       __GUID_b196b289_bab4_101a_b69c_00aa00341d07 100207ac     SoundRecorder.obj
 0002:000007bc       ??_7?$CComObjectCached@VCComClassFactory@ATL@@@ATL@@6B@ 100207bc     SoundRecorder.obj
 0002:000007d4       ??_C@_1CE@PGFMOFKI@?$AAS?$AAt?$AAa?$AAt?$AAu?$AAs?$AAU?$AAp?$AAd?$AAa?$AAt?$AAe?$AAE?$AAv?$AAe@ 100207d4     SoundRecorder.obj
 0002:000007f8       ??_C@_1BG@LODEBHDD@?$AAE?$AAr?$AAr?$AAo?$AAr?$AAE?$AAv?$AAe?$AAn?$AAt@ 100207f8     SoundRecorder.obj
 0002:00000810       ??_C@_1BM@CBGEBBBJ@?$AAD?$AAi?$AAr?$AAe?$AAc?$AAt?$AAI?$AAO?$AAE?$AAv?$AAe?$AAn?$AAt@ 10020810     SoundRecorder.obj
 0002:0000082c       ??_C@_1BE@IEBMACEM@?$AAD?$AAa?$AAt?$AAa?$AAE?$AAv?$AAe?$AAn?$AAt@ 1002082c     SoundRecorder.obj
 0002:00000840       __GUID_00000117_0000_0000_c000_000000000046 10020840     SoundRecorder.obj
 0002:00000850       __GUID_b196b286_bab4_101a_b69c_00aa00341d07 10020850     SoundRecorder.obj
 0002:00000860       ??_C@_1BC@ENICKDH@?$AAC?$AAo?$AAn?$AAt?$AAe?$AAn?$AAt?$AAs@ 10020860     SoundRecorder.obj
 0002:00000874       ??_7?$CComObject@V?$CComEnum@UIEnumConnectionPoints@@$1?_GUID_b196b285_bab4_101a_b69c_00aa00341d07@@3U__s_GUID@@BPAUIConnectionPoint@@V?$_CopyInterface@UIConnectionPoint@@@ATL@@VCComSingleThreadModel@6@@ATL@@@ATL@@6B@ 10020874     SoundRecorder.obj
 0002:00000894       ??_C@_1M@KANJNLFF@?$AAC?$AAL?$AAS?$AAI?$AAD@ 10020894     SoundRecorder.obj
 0002:000008a0       ??_C@_1M@EJNEECMJ@?$AAA?$AAp?$AAp?$AAI?$AAD@ 100208a0     SoundRecorder.obj
 0002:000008ac       ?rgszNeverDelete@CRegParser@ATL@@1QBQB_WB 100208ac     SoundRecorder.obj
 0002:000008dc       ??_7CRegObject@ATL@@6B@    100208dc     SoundRecorder.obj
 0002:000008f4       __GUID_0000010e_0000_0000_c000_000000000046 100208f4     SoundRecorder.obj
 0002:00000904       __GUID_b196b288_bab4_101a_b69c_00aa00341d07 10020904     SoundRecorder.obj
 0002:00000914       ??_C@_1CK@OEKPKBNA@?$AAC?$AAo?$AAm?$AAp?$AAo?$AAn?$AAe?$AAn?$AAt?$AA?5?$AAC?$AAa?$AAt?$AAe?$AAg@ 10020914     SoundRecorder.obj
 0002:00000940       ??_C@_1BC@NKMMNMGL@?$AAF?$AAi?$AAl?$AAe?$AAT?$AAy?$AAp?$AAe@ 10020940     SoundRecorder.obj
 0002:00000954       ??_C@_1BE@EKPAFMCP@?$AAI?$AAn?$AAt?$AAe?$AAr?$AAf?$AAa?$AAc?$AAe@ 10020954     SoundRecorder.obj
 0002:00000968       ??_C@_1BC@MAICEHGI@?$AAH?$AAa?$AAr?$AAd?$AAw?$AAa?$AAr?$AAe@ 10020968     SoundRecorder.obj
 0002:0000097c       ??_C@_19HLLLM@?$AAM?$AAi?$AAm?$AAe@ 1002097c     SoundRecorder.obj
 0002:00000988       ??_C@_17OMAOINJK@?$AAS?$AAA?$AAM@ 10020988     SoundRecorder.obj
 0002:00000990       ??_C@_1BC@IBECJAAI@?$AAS?$AAE?$AAC?$AAU?$AAR?$AAI?$AAT?$AAY@ 10020990     SoundRecorder.obj
 0002:000009a4       ??_C@_1O@GBFINDKL@?$AAS?$AAY?$AAS?$AAT?$AAE?$AAM@ 100209a4     SoundRecorder.obj
 0002:000009b4       ??_C@_1BC@EAHCMADO@?$AAS?$AAo?$AAf?$AAt?$AAw?$AAa?$AAr?$AAe@ 100209b4     SoundRecorder.obj
 0002:000009c8       ??_C@_1BA@JIHHIEDE@?$AAT?$AAy?$AAp?$AAe?$AAL?$AAi?$AAb@ 100209c8     SoundRecorder.obj
 0002:000009d8       ?map@?1??HKeyFromString@CRegParser@ATL@@KAPAUHKEY__@@PA_W@Z@4QBUkeymap@?1??123@KAPAU4@0@Z@B 100209d8     SoundRecorder.obj
 0002:00000a48       ??_C@_19NCHLBIN@?$AAH?$AAK?$AAC?$AAR@ 10020a48     SoundRecorder.obj
 0002:00000a54       ??_C@_19JAPAIJDE@?$AAH?$AAK?$AAC?$AAU@ 10020a54     SoundRecorder.obj
 0002:00000a60       ??_C@_19PEALEEJB@?$AAH?$AAK?$AAL?$AAM@ 10020a60     SoundRecorder.obj
 0002:00000a6c       ??_C@_17PJOJPMPB@?$AAH?$AAK?$AAU@ 10020a6c     SoundRecorder.obj
 0002:00000a74       ??_C@_19PNBHMJPL@?$AAH?$AAK?$AAP?$AAD@ 10020a74     SoundRecorder.obj
 0002:00000a80       ??_C@_19GFFAIJHG@?$AAH?$AAK?$AAD?$AAD@ 10020a80     SoundRecorder.obj
 0002:00000a8c       ??_C@_19OFICIBHH@?$AAH?$AAK?$AAC?$AAC@ 10020a8c     SoundRecorder.obj
 0002:00000a98       ??_C@_1CE@PACHPJFI@?$AAH?$AAK?$AAE?$AAY?$AA_?$AAC?$AAL?$AAA?$AAS?$AAS?$AAE?$AAS?$AA_?$AAR?$AAO@ 10020a98     SoundRecorder.obj
 0002:00000abc       ??_C@_1CE@HLHNCBPM@?$AAH?$AAK?$AAE?$AAY?$AA_?$AAC?$AAU?$AAR?$AAR?$AAE?$AAN?$AAT?$AA_?$AAU?$AAS@ 10020abc     SoundRecorder.obj
 0002:00000ae0       ??_C@_1CG@GFBEANJL@?$AAH?$AAK?$AAE?$AAY?$AA_?$AAL?$AAO?$AAC?$AAA?$AAL?$AA_?$AAM?$AAA?$AAC?$AAH@ 10020ae0     SoundRecorder.obj
 0002:00000b08       ??_C@_1BG@BGODANIO@?$AAH?$AAK?$AAE?$AAY?$AA_?$AAU?$AAS?$AAE?$AAR?$AAS@ 10020b08     SoundRecorder.obj
 0002:00000b20       ??_C@_1CM@KHNNAOIC@?$AAH?$AAK?$AAE?$AAY?$AA_?$AAP?$AAE?$AAR?$AAF?$AAO?$AAR?$AAM?$AAA?$AAN?$AAC@ 10020b20     SoundRecorder.obj
 0002:00000b4c       ??_C@_1BM@HAGMMHIA@?$AAH?$AAK?$AAE?$AAY?$AA_?$AAD?$AAY?$AAN?$AA_?$AAD?$AAA?$AAT?$AAA@ 10020b4c     SoundRecorder.obj
 0002:00000b68       ??_C@_1CI@BBJOACGG@?$AAH?$AAK?$AAE?$AAY?$AA_?$AAC?$AAU?$AAR?$AAR?$AAE?$AAN?$AAT?$AA_?$AAC?$AAO@ 10020b68     SoundRecorder.obj
 0002:00000b90       __GUID_00000113_0000_0000_c000_000000000046 10020b90     SoundRecorder.obj
 0002:00000ba0       __GUID_00000109_0000_0000_c000_000000000046 10020ba0     SoundRecorder.obj
 0002:00000bb0       __GUID_7fd52380_4e07_101b_ae2d_08002b2ec713 10020bb0     SoundRecorder.obj
 0002:00000bc0       __GUID_1c2056cc_5ef4_101b_8bc8_00aa003e3b29 10020bc0     SoundRecorder.obj
 0002:00000bd0       ??_C@_1EA@NHKLICFA@?$AAH?$AAK?$AAC?$AAU?$AA?$AN?$AA?6?$AA?$HL?$AA?7?$AAS?$AAo?$AAf?$AAt?$AAw?$AAa?$AAr@ 10020bd0     SoundRecorder.obj
 0002:00000c10       ??_C@_1BE@LJOLIMEM@?$AA?$AN?$AA?6?$AA?7?$AA?$HN?$AA?$AN?$AA?6?$AA?$HN?$AA?$AN?$AA?6@ 10020c10     SoundRecorder.obj
 0002:00000c24       __GUID_00000112_0000_0000_c000_000000000046 10020c24     SoundRecorder.obj
 0002:00000c34       ??_C@_1O@MNLDABAF@?$AAM?$AAo?$AAd?$AAu?$AAl?$AAe@ 10020c34     SoundRecorder.obj
 0002:00000c44       ??_C@_1BG@JBACFMF@?$AAM?$AAo?$AAd?$AAu?$AAl?$AAe?$AA_?$AAR?$AAa?$AAw@ 10020c44     SoundRecorder.obj
 0002:00000c5c       ??_C@_1BC@KAILKFFG@?$AAR?$AAE?$AAG?$AAI?$AAS?$AAT?$AAR?$AAY@ 10020c5c     SoundRecorder.obj
 0002:00000c70       __GUID_3af24292_0c96_11ce_a0cf_00aa00600ab8 10020c70     SoundRecorder.obj
 0002:00000c80       __GUID_00000127_0000_0000_c000_000000000046 10020c80     SoundRecorder.obj
 0002:00000c90       __GUID_0000010d_0000_0000_c000_000000000046 10020c90     SoundRecorder.obj
 0002:00000ca0       ??_C@_1M@PPPPCDEP@?$AAA?$AAP?$AAP?$AAI?$AAD@ 10020ca0     SoundRecorder.obj
 0002:00000cac       ??_7?$CComContainedObject@VCOPOSSoundRecorder@@@ATL@@6B?$IDispatchImpl@UIOPOSSoundRecorder@@$1?IID_IOPOSSoundRecorder@@3U_GUID@@B$1?LIBID_OposSoundRecorder_CCO@@3U3@B$00$0A@VCComTypeInfoHolder@ATL@@@1@@ 10020cac     SoundRecorder.obj
 0002:00000dec       ??_7?$CComContainedObject@VCOPOSSoundRecorder@@@ATL@@6BCComControlBase@1@@ 10020dec     SoundRecorder.obj
 0002:00000e00       ??_7?$CComContainedObject@VCOPOSSoundRecorder@@@ATL@@6B?$CWindowImpl@VCOPOSSoundRecorder@@VCWindow@ATL@@V?$CWinTraits@$0FGAAAAAA@$0A@@3@@1@@ 10020e00     SoundRecorder.obj
 0002:00000e10       ??_7?$CComContainedObject@VCOPOSSoundRecorder@@@ATL@@6B?$IPersistStreamInitImpl@VCOPOSSoundRecorder@@@1@@ 10020e10     SoundRecorder.obj
 0002:00000e34       ??_7?$CComContainedObject@VCOPOSSoundRecorder@@@ATL@@6B?$IOleControlImpl@VCOPOSSoundRecorder@@@1@@ 10020e34     SoundRecorder.obj
 0002:00000e50       ??_7?$CComContainedObject@VCOPOSSoundRecorder@@@ATL@@6B?$IOleObjectImpl@VCOPOSSoundRecorder@@@1@@ 10020e50     SoundRecorder.obj
 0002:00000eb0       ??_7?$CComContainedObject@VCOPOSSoundRecorder@@@ATL@@6B?$IOleInPlaceActiveObjectImpl@VCOPOSSoundRecorder@@@1@@ 10020eb0     SoundRecorder.obj
 0002:00000ed8       ??_7?$CComContainedObject@VCOPOSSoundRecorder@@@ATL@@6B?$IViewObjectExImpl@VCOPOSSoundRecorder@@@1@@ 10020ed8     SoundRecorder.obj
 0002:00000f14       ??_7?$CComContainedObject@VCOPOSSoundRecorder@@@ATL@@6B?$IOleInPlaceObjectWindowlessImpl@VCOPOSSoundRecorder@@@1@@ 10020f14     SoundRecorder.obj
 0002:00000f40       ??_7?$CComContainedObject@VCOPOSSoundRecorder@@@ATL@@6B?$IConnectionPointContainerImpl@VCOPOSSoundRecorder@@@1@@ 10020f40     SoundRecorder.obj
 0002:00000f54       ??_7?$CComContainedObject@VCOPOSSoundRecorder@@@ATL@@6B?$IPersistStorageImpl@VCOPOSSoundRecorder@@@1@@ 10020f54     SoundRecorder.obj
 0002:00000f7c       ??_7?$CComContainedObject@VCOPOSSoundRecorder@@@ATL@@6B?$ISpecifyPropertyPagesImpl@VCOPOSSoundRecorder@@@1@@ 10020f7c     SoundRecorder.obj
 0002:00000f8c       ??_7?$CComContainedObject@VCOPOSSoundRecorder@@@ATL@@6B?$IQuickActivateImpl@VCOPOSSoundRecorder@@@1@@ 10020f8c     SoundRecorder.obj
 0002:00000fa4       ??_7?$CComContainedObject@VCOPOSSoundRecorder@@@ATL@@6B?$IDataObjectImpl@VCOPOSSoundRecorder@@@1@@ 10020fa4     SoundRecorder.obj
 0002:00000fd4       ??_7?$CComContainedObject@VCOPOSSoundRecorder@@@ATL@@6B?$IProvideClassInfo2Impl@$1?CLSID_OPOSSoundRecorder@@3U_GUID@@B$1?DIID__IOPOSSoundRecorderEvents@@3U2@B$1?LIBID_OposSoundRecorder_CCO@@3U2@B$00$0A@VCComTypeInfoHolder@ATL@@@1@@ 10020fd4     SoundRecorder.obj
 0002:00000fe8       ??_7?$CComContainedObject@VCOPOSSoundRecorder@@@ATL@@6B?$IObjectSafetyImpl@VCOPOSSoundRecorder@@$02@1@@ 10020fe8     SoundRecorder.obj
 0002:00001000       ??_7?$CComContainedObject@VCOPOSSoundRecorder@@@ATL@@6B?$IPropertyNotifySinkCP@VCOPOSSoundRecorder@@VCComDynamicUnkArray@ATL@@@1@@ 10021000     SoundRecorder.obj
 0002:00001020       ??_7?$CComContainedObject@VCOPOSSoundRecorder@@@ATL@@6B?$CProxy_IOPOSEvents@VCOPOSSoundRecorder@@@@@ 10021020     SoundRecorder.obj
 0002:00001040       ??_7?$CComAggObject@VCOPOSSoundRecorder@@@ATL@@6B@ 10021040     SoundRecorder.obj
 0002:00001050       ??_7?$CComObject@VCOPOSSoundRecorder@@@ATL@@6B?$IDispatchImpl@UIOPOSSoundRecorder@@$1?IID_IOPOSSoundRecorder@@3U_GUID@@B$1?LIBID_OposSoundRecorder_CCO@@3U3@B$00$0A@VCComTypeInfoHolder@ATL@@@1@@ 10021050     SoundRecorder.obj
 0002:00001190       ??_7?$CComObject@VCOPOSSoundRecorder@@@ATL@@6BCComControlBase@1@@ 10021190     SoundRecorder.obj
 0002:000011a4       ??_7?$CComObject@VCOPOSSoundRecorder@@@ATL@@6B?$CWindowImpl@VCOPOSSoundRecorder@@VCWindow@ATL@@V?$CWinTraits@$0FGAAAAAA@$0A@@3@@1@@ 100211a4     SoundRecorder.obj
 0002:000011b4       ??_7?$CComObject@VCOPOSSoundRecorder@@@ATL@@6B?$IPersistStreamInitImpl@VCOPOSSoundRecorder@@@1@@ 100211b4     SoundRecorder.obj
 0002:000011d8       ??_7?$CComObject@VCOPOSSoundRecorder@@@ATL@@6B?$IOleControlImpl@VCOPOSSoundRecorder@@@1@@ 100211d8     SoundRecorder.obj
 0002:000011f4       ??_7?$CComObject@VCOPOSSoundRecorder@@@ATL@@6B?$IOleObjectImpl@VCOPOSSoundRecorder@@@1@@ 100211f4     SoundRecorder.obj
 0002:00001254       ??_7?$CComObject@VCOPOSSoundRecorder@@@ATL@@6B?$IOleInPlaceActiveObjectImpl@VCOPOSSoundRecorder@@@1@@ 10021254     SoundRecorder.obj
 0002:0000127c       ??_7?$CComObject@VCOPOSSoundRecorder@@@ATL@@6B?$IViewObjectExImpl@VCOPOSSoundRecorder@@@1@@ 1002127c     SoundRecorder.obj
 0002:000012b8       ??_7?$CComObject@VCOPOSSoundRecorder@@@ATL@@6B?$IOleInPlaceObjectWindowlessImpl@VCOPOSSoundRecorder@@@1@@ 100212b8     SoundRecorder.obj
 0002:000012e4       ??_7?$CComObject@VCOPOSSoundRecorder@@@ATL@@6B?$IConnectionPointContainerImpl@VCOPOSSoundRecorder@@@1@@ 100212e4     SoundRecorder.obj
 0002:000012f8       ??_7?$CComObject@VCOPOSSoundRecorder@@@ATL@@6B?$IPersistStorageImpl@VCOPOSSoundRecorder@@@1@@ 100212f8     SoundRecorder.obj
 0002:00001320       ??_7?$CComObject@VCOPOSSoundRecorder@@@ATL@@6B?$ISpecifyPropertyPagesImpl@VCOPOSSoundRecorder@@@1@@ 10021320     SoundRecorder.obj
 0002:00001330       ??_7?$CComObject@VCOPOSSoundRecorder@@@ATL@@6B?$IQuickActivateImpl@VCOPOSSoundRecorder@@@1@@ 10021330     SoundRecorder.obj
 0002:00001348       ??_7?$CComObject@VCOPOSSoundRecorder@@@ATL@@6B?$IDataObjectImpl@VCOPOSSoundRecorder@@@1@@ 10021348     SoundRecorder.obj
 0002:00001378       ??_7?$CComObject@VCOPOSSoundRecorder@@@ATL@@6B?$IProvideClassInfo2Impl@$1?CLSID_OPOSSoundRecorder@@3U_GUID@@B$1?DIID__IOPOSSoundRecorderEvents@@3U2@B$1?LIBID_OposSoundRecorder_CCO@@3U2@B$00$0A@VCComTypeInfoHolder@ATL@@@1@@ 10021378     SoundRecorder.obj
 0002:0000138c       ??_7?$CComObject@VCOPOSSoundRecorder@@@ATL@@6B?$IObjectSafetyImpl@VCOPOSSoundRecorder@@$02@1@@ 1002138c     SoundRecorder.obj
 0002:000013a4       ??_7?$CComObject@VCOPOSSoundRecorder@@@ATL@@6B?$IPropertyNotifySinkCP@VCOPOSSoundRecorder@@VCComDynamicUnkArray@ATL@@@1@@ 100213a4     SoundRecorder.obj
 0002:000013c4       ??_7?$CComObject@VCOPOSSoundRecorder@@@ATL@@6B?$CProxy_IOPOSEvents@VCOPOSSoundRecorder@@@@@ 100213c4     SoundRecorder.obj
 0002:000013e4       ??_C@_1O@GBFKGNEO@?$AAA?$AAT?$AAL?$AA?3?$AA?$CF?$AAp@ 100213e4     SoundRecorder.obj
 0002:000013f4       __GUID_b196b284_bab4_101a_b69c_00aa00341d07 100213f4     SoundRecorder.obj
 0002:00001404       ??_C@_1BA@PICGEGJB@?$AAD?$AAI?$AAS?$AAP?$AAL?$AAA?$AAY@ 10021404     SoundRecorder.obj
 0002:00001414       __GUID_9bfbbc02_eff1_101a_84ed_00aa00341d07 10021414     SoundRecorder.obj
 0002:00001424       ?_entries@?1??_GetEntries@?$CComEnum@UIEnumConnectionPoints@@$1?_GUID_b196b285_bab4_101a_b69c_00aa00341d07@@3U__s_GUID@@BPAUIConnectionPoint@@V?$_CopyInterface@UIConnectionPoint@@@ATL@@VCComSingleThreadModel@6@@ATL@@SGPBU_ATL_INTMAP_ENTRY@3@XZ@4QBU43@B 10021424     SoundRecorder.obj
 0002:0000143c       ??_C@_0BG@EKFFMJIO@RegOpenKeyTransactedW@ 1002143c     SoundRecorder.obj
 0002:00001454       ??_C@_0BI@HAKLOOGP@RegDeleteKeyTransactedW@ 10021454     SoundRecorder.obj
 0002:0000146c       ??_C@_0BA@LILAPHGE@RegDeleteKeyExW@ 1002146c     SoundRecorder.obj
 0002:0000147c       ??_C@_19ILOCMLCJ@?$AA?4?$AAt?$AAl?$AAb@ 1002147c     SoundRecorder.obj
 0002:00001488       __GUID_0002e012_0000_0000_c000_000000000046 10021488     SoundRecorder.obj
 0002:00001498       ??_C@_1O@FHBGLCIO@?$AAC?$AAL?$AAS?$AAI?$AAD?$AA?2@ 10021498     SoundRecorder.obj
 0002:000014a8       ??_C@_1CK@IFBKBFAA@?$AA?2?$AAR?$AAe?$AAq?$AAu?$AAi?$AAr?$AAe?$AAd?$AA?5?$AAC?$AAa?$AAt?$AAe?$AAg@ 100214a8     SoundRecorder.obj
 0002:000014d4       ??_C@_1DA@BIHALFED@?$AA?2?$AAI?$AAm?$AAp?$AAl?$AAe?$AAm?$AAe?$AAn?$AAt?$AAe?$AAd?$AA?5?$AAC?$AAa@ 100214d4     SoundRecorder.obj
 0002:00001504       ??_C@_1BK@EDKOLFBJ@?$AAO?$AAL?$AAE?$AAA?$AAU?$AAT?$AA3?$AA2?$AA?4?$AAD?$AAL?$AAL@ 10021504     SoundRecorder.obj
 0002:00001520       ??_C@_0BJ@CNLFOMHB@UnRegisterTypeLibForUser@ 10021520     SoundRecorder.obj
 0002:0000153c       ??_C@_0BH@LBOMMKPJ@RegisterTypeLibForUser@ 1002153c     SoundRecorder.obj
 0002:00001554       ??_C@_0P@MMNMMLGK@COFreezeEvents@ 10021554     SoundRecorderImpl.obj
 0002:00001564       ??_C@_0BC@OGCGGIMP@GetPropertyNumber@ 10021564     SoundRecorderImpl.obj
 0002:00001578       ??_C@_0BC@MDCNODNB@SetPropertyNumber@ 10021578     SoundRecorderImpl.obj
 0002:0000158c       ??_C@_0BC@CFCCMIMD@GetPropertyString@ 1002158c     SoundRecorderImpl.obj
 0002:000015a0       ??_C@_0BC@CJEDNN@SetPropertyString@ 100215a0     SoundRecorderImpl.obj
 0002:000015b4       ??_C@_0M@LNPKKKDA@OpenService@ 100215b4     SoundRecorderImpl.obj
 0002:000015c0       ??_C@_0M@PCMCHHMH@CheckHealth@ 100215c0     SoundRecorderImpl.obj
 0002:000015cc       ??_C@_0M@JGMIDNEK@ClaimDevice@ 100215cc     SoundRecorderImpl.obj
 0002:000015d8       ??_C@_0L@BNEIFEJC@ClearInput@ 100215d8     SoundRecorderImpl.obj
 0002:000015e4       ??_C@_0N@DDFIIBMP@CloseService@ 100215e4     SoundRecorderImpl.obj
 0002:000015f4       ??_C@_08EEIHICPC@DirectIO@ 100215f4     SoundRecorderImpl.obj
 0002:00001600       ??_C@_0O@BCPMENMJ@ReleaseDevice@ 10021600     SoundRecorderImpl.obj
 0002:00001610       ??_C@_0BA@GFABKEEE@ResetStatistics@ 10021610     SoundRecorderImpl.obj
 0002:00001620       ??_C@_0BD@DPALHJGC@RetrieveStatistics@ 10021620     SoundRecorderImpl.obj
 0002:00001634       ??_C@_0BB@KOHIKNFC@UpdateStatistics@ 10021634     SoundRecorderImpl.obj
 0002:00001648       ??_C@_0BH@PBKBNMGB@CompareFirmwareVersion@ 10021648     SoundRecorderImpl.obj
 0002:00001660       ??_C@_0P@FBPDPIPA@UpdateFirmware@ 10021660     SoundRecorderImpl.obj
 0002:00001670       ??_C@_0BF@CMAPCJGM@ClearInputProperties@ 10021670     SoundRecorderImpl.obj
 0002:00001688       ??_C@_0P@JNOIKEIC@StartRecording@ 10021688     SoundRecorderImpl.obj
 0002:00001698       ??_C@_0O@CHILAIKI@StopRecording@ 10021698     SoundRecorderImpl.obj
 0002:000016a8       ??_7?$CProxy_IOPOSEvents@VCOPOSSoundRecorder@@@@6B@ 100216a8     SoundRecorderImpl.obj
 0002:000016c8       ??_C@_1BA@IFHENID@?$AA?$FL?$AAE?$AAr?$AAr?$AAo?$AAr?$AA?$FN@ 100216c8     SoundRecorderImpl.obj
 0002:000016d8       ??_C@_0DA@NFPIBIIC@SOFTWARE?2OLEforRetail?2ServiceOP@ 100216d8     SoundRecorderImpl.obj
 0002:00001708       ??_C@_1M@IAIJHCCH@?$AAC?$AAl?$AAo?$AAs?$AAe@ 10021708     SoundRecorderImpl.obj
 0002:00001714       ??_C@_1M@PCPKGJAH@?$AAC?$AAl?$AAa?$AAi?$AAm@ 10021714     SoundRecorderImpl.obj
 0002:00001720       ??_C@_1BA@NDFKIOCP@?$AAR?$AAe?$AAl?$AAe?$AAa?$AAs?$AAe@ 10021720     SoundRecorderImpl.obj
 0002:00001730       ??_C@_0O@NJPKGFFJ@SoundRecorder@ 10021730     SoundRecorderImpl.obj
 0002:00001740       ??_C@_1BM@IJMNMBPK@?$AAG?$AAe?$AAt?$AAO?$AAp?$AAe?$AAn?$AAR?$AAe?$AAs?$AAu?$AAl?$AAt@ 10021740     SoundRecorderImpl.obj
 0002:0000175c       _IID_IDispatch             1002175c     uuid:oaidl_i.obj
 0002:0000176c       _IID_IPropertyNotifySink   1002176c     uuid:ocidl_i.obj
 0002:0000177c       _GUID_NULL                 1002177c     uuid:cguid_i.obj
 0002:0000178c       _CLSID_StdGlobalInterfaceTable 1002178c     uuid:cguid_i.obj
 0002:0000179c       _CLSID_StdComponentCategoriesMgr 1002179c     uuid:ieguids.obj
 0002:000017ac       _IID_IUnknown              100217ac     uuid:unknwn_i.obj
 0002:000017c0       ??_C@_1EC@JIJBPKFM@?$AAa?$AAp?$AAi?$AA?9?$AAm?$AAs?$AA?9?$AAw?$AAi?$AAn?$AA?9?$AAc?$AAo?$AAr?$AAe@ 100217c0     LIBCMT:thread_safe_statics.obj
 0002:00001804       ??_C@_1BK@MGMFAEKH@?$AAk?$AAe?$AAr?$AAn?$AAe?$AAl?$AA3?$AA2?$AA?4?$AAd?$AAl?$AAl@ 10021804     LIBCMT:thread_safe_statics.obj
 0002:00001820       ??_C@_0BJ@JEBJOJFJ@SleepConditionVariableCS@ 10021820     LIBCMT:thread_safe_statics.obj
 0002:0000183c       ??_C@_0BJ@PGPPEPCC@WakeAllConditionVariable@ 1002183c     LIBCMT:thread_safe_statics.obj
 0002:00001855       ?nothrow@std@@3Unothrow_t@1@B 10021855     LIBCMT:std_nothrow.obj
 0002:00001860       __pRawDllMain              10021860     LIBCMT:dll_dllmain.obj
 0002:00001860       __pDefaultRawDllMain       10021860     LIBCMT:dll_dllmain.obj
 0002:00001868       ??_7exception@std@@6B@     10021868     LIBCMT:throw_bad_alloc.obj
 0002:00001870       ??_C@_0BC@EOODALEL@Unknown?5exception@ 10021870     LIBCMT:throw_bad_alloc.obj
 0002:00001888       ??_7bad_alloc@std@@6B@     10021888     LIBCMT:throw_bad_alloc.obj
 0002:00001890       ??_C@_0P@GHFPNOJB@bad?5allocation@ 10021890     LIBCMT:throw_bad_alloc.obj
 0002:000018a4       ??_7bad_array_new_length@std@@6B@ 100218a4     LIBCMT:throw_bad_alloc.obj
 0002:000018ac       ??_C@_0BF@KINCDENJ@bad?5array?5new?5length@ 100218ac     LIBCMT:throw_bad_alloc.obj
 0002:000018c8       ??_7type_info@@6B@         100218c8     LIBCMT:std_type_info_static.obj
 0002:000018cc       _GUID_ATLVer110            100218cc     atls:atlbase.obj
 0002:000018e0       ??_C@_1IC@ONKHOIDK@?$AAE?$AAR?$AAR?$AAO?$AAR?$AA?5?$AA?3?$AA?5?$AAU?$AAn?$AAa?$AAb?$AAl?$AAe?$AA?5@ 100218e0     atls:atlbase.obj
 0002:00001964       ??_C@_0N@FJEPLCIH@atlthunk?4dll@ 10021964     atls:atlthunk.obj
 0002:00001974       ??_C@_0BG@GAKFHCBM@AtlThunk_AllocateData@ 10021974     atls:atlthunk.obj
 0002:0000198c       ??_C@_0BC@JKONFIAH@AtlThunk_InitData@ 1002198c     atls:atlthunk.obj
 0002:000019a0       ??_C@_0BE@IAOEELAK@AtlThunk_DataToCode@ 100219a0     atls:atlthunk.obj
 0002:000019b4       ??_C@_0BC@GBGKAIPI@AtlThunk_FreeData@ 100219b4     atls:atlthunk.obj
 0002:000019c8       __pDestructExceptionObject 100219c8     libvcruntime:ehhelpers.obj
 0002:000019d0       ??_7bad_exception@std@@6B@ 100219d0     libvcruntime:frame.obj
 0002:000019d8       ??_C@_0O@DPKOEFFH@bad?5exception@ 100219d8     libvcruntime:frame.obj
 0002:00001d70       ??_C@_08EHJDFFNH@__based?$CI@ 10021d70     libvcruntime:undname.obj
 0002:00001d7c       ??_C@_07KOLFKCDI@__cdecl@  10021d7c     libvcruntime:undname.obj
 0002:00001d84       ??_C@_08GHMPAG@__pascal@   10021d84     libvcruntime:undname.obj
 0002:00001d90       ??_C@_09IFJBGAPI@__stdcall@ 10021d90     libvcruntime:undname.obj
 0002:00001d9c       ??_C@_0L@NPHFGOKO@__thiscall@ 10021d9c     libvcruntime:undname.obj
 0002:00001da8       ??_C@_0L@JMKHOMEK@__fastcall@ 10021da8     libvcruntime:undname.obj
 0002:00001db4       ??_C@_0N@BCKKPABJ@__vectorcall@ 10021db4     libvcruntime:undname.obj
 0002:00001dc4       ??_C@_09HIJEGCPM@__clrcall@ 10021dc4     libvcruntime:undname.obj
 0002:00001dd0       ??_C@_06GHPCKEAG@__eabi@   10021dd0     libvcruntime:undname.obj
 0002:00001dd8       ??_C@_09IOPIDJLG@__swift_1@ 10021dd8     libvcruntime:undname.obj
 0002:00001de4       ??_C@_09KFNFGKHF@__swift_2@ 10021de4     libvcruntime:undname.obj
 0002:00001df0       ??_C@_09LMMOFLDE@__swift_3@ 10021df0     libvcruntime:undname.obj
 0002:00001dfc       ??_C@_07JOMMBBKO@__ptr64@  10021dfc     libvcruntime:undname.obj
 0002:00001e04       ??_C@_0L@PILCLIHE@__restrict@ 10021e04     libvcruntime:undname.obj
 0002:00001e10       ??_C@_0M@GFIIJFMG@__unaligned@ 10021e10     libvcruntime:undname.obj
 0002:00001e1c       ??_C@_09DHDLOLLB@restrict?$CI@ 10021e1c     libvcruntime:undname.obj
 0002:00001e26       ??_C@_00CNPNBAHC@@         10021e26     libvcruntime:undname.obj
 0002:00001e28       ??_C@_04NIHEBCM@?5new@     10021e28     libvcruntime:undname.obj
 0002:00001e30       ??_C@_07FPCDHGMM@?5delete@ 10021e30     libvcruntime:undname.obj
 0002:00001e38       ??_C@_01NEMOKFLO@?$DN@     10021e38     libvcruntime:undname.obj
 0002:00001e3c       ??_C@_02GPIOPFAK@?$DO?$DO@ 10021e3c     libvcruntime:undname.obj
 0002:00001e40       ??_C@_02FODMEDOG@?$DM?$DM@ 10021e40     libvcruntime:undname.obj
 0002:00001e44       ??_C@_01DCLJPIOD@?$CB@     10021e44     libvcruntime:undname.obj
 0002:00001e48       ??_C@_02EGOFBIJA@?$DN?$DN@ 10021e48     libvcruntime:undname.obj
 0002:00001e4c       ??_C@_02FDNJECIE@?$CB?$DN@ 10021e4c     libvcruntime:undname.obj
 0002:00001e50       ??_C@_02GPECMEKF@?$FL?$FN@ 10021e50     libvcruntime:undname.obj
 0002:00001e54       ??_C@_08LHJFAFGD@operator@ 10021e54     libvcruntime:undname.obj
 0002:00001e60       ??_C@_02HBOOOICD@?9?$DO@   10021e60     libvcruntime:undname.obj
 0002:00001e64       ??_C@_01NBENCBCI@?$CK@     10021e64     libvcruntime:undname.obj
 0002:00001e68       ??_C@_02ECNGHCIF@?$CL?$CL@ 10021e68     libvcruntime:undname.obj
 0002:00001e6c       ??_C@_02BAABKJLB@?9?9@     10021e6c     libvcruntime:undname.obj
 0002:00001e70       ??_C@_01JOAMLHOP@?9@       10021e70     libvcruntime:undname.obj
 0002:00001e74       ??_C@_01MIFGBAGJ@?$CL@     10021e74     libvcruntime:undname.obj
 0002:00001e78       ??_C@_01HNPIGOCE@?$CG@     10021e78     libvcruntime:undname.obj
 0002:00001e7c       ??_C@_03MNHNFDLC@?9?$DO?$CK@ 10021e7c     libvcruntime:undname.obj
 0002:00001e80       ??_C@_01KMDKNFGN@?1@       10021e80     libvcruntime:undname.obj
 0002:00001e84       ??_C@_01FGNFDNOH@?$CF@     10021e84     libvcruntime:undname.obj
 0002:00001e88       ??_C@_01MNNFJEPP@?$DM@     10021e88     libvcruntime:undname.obj
 0002:00001e8c       ??_C@_02EHCHHCKH@?$DM?$DN@ 10021e8c     libvcruntime:undname.obj
 0002:00001e90       ??_C@_01PPODPGHN@?$DO@     10021e90     libvcruntime:undname.obj
 0002:00001e94       ??_C@_02EEKDKGMJ@?$DO?$DN@ 10021e94     libvcruntime:undname.obj
 0002:00001e98       ??_C@_01IHBHIGKO@?0@       10021e98     libvcruntime:undname.obj
 0002:00001e9c       ??_C@_02HCKGKOFO@?$CI?$CJ@ 10021e9c     libvcruntime:undname.obj
 0002:00001ea0       ??_C@_01PJKLJHI@?$HO@      10021ea0     libvcruntime:undname.obj
 0002:00001ea4       ??_C@_01JKBOJNNK@?$FO@     10021ea4     libvcruntime:undname.obj
 0002:00001ea8       ??_C@_01DNKMNLPK@?$HM@     10021ea8     libvcruntime:undname.obj
 0002:00001eac       ??_C@_02PPKAJPJL@?$CG?$CG@ 10021eac     libvcruntime:undname.obj
 0002:00001eb0       ??_C@_02NONPIBCD@?$HM?$HM@ 10021eb0     libvcruntime:undname.obj
 0002:00001eb4       ??_C@_02FPIMKNGF@?$CK?$DN@ 10021eb4     libvcruntime:undname.obj
 0002:00001eb8       ??_C@_02FOEOMHFC@?$CL?$DN@ 10021eb8     libvcruntime:undname.obj
 0002:00001ebc       ??_C@_02FKMDLLOA@?9?$DN@   10021ebc     libvcruntime:undname.obj
 0002:00001ec0       ??_C@_02FJEHGPIO@?1?$DN@   10021ec0     libvcruntime:undname.obj
 0002:00001ec4       ??_C@_02FENAOKFI@?$CF?$DN@ 10021ec4     libvcruntime:undname.obj
 0002:00001ec8       ??_C@_03IKFCCPFF@?$DO?$DO?$DN@ 10021ec8     libvcruntime:undname.obj
 0002:00001ecc       ??_C@_03CDNPDDLA@?$DM?$DM?$DN@ 10021ecc     libvcruntime:undname.obj
 0002:00001ed0       ??_C@_02FGJGFEAB@?$CG?$DN@ 10021ed0     libvcruntime:undname.obj
 0002:00001ed4       ??_C@_02DHLNPPGH@?$HM?$DN@ 10021ed4     libvcruntime:undname.obj
 0002:00001ed8       ??_C@_02MHEGNOJ@?$FO?$DN@  10021ed8     libvcruntime:undname.obj
 0002:00001edc       ??_C@_09IFPLHPGF@?$GAvftable?8@ 10021edc     libvcruntime:undname.obj
 0002:00001ee8       ??_C@_09BLBHBJP@?$GAvbtable?8@ 10021ee8     libvcruntime:undname.obj
 0002:00001ef4       ??_C@_07FEEIOKP@?$GAvcall?8@ 10021ef4     libvcruntime:undname.obj
 0002:00001efc       ??_C@_08LLFFHHDJ@?$GAtypeof?8@ 10021efc     libvcruntime:undname.obj
 0002:00001f08       ??_C@_0BF@KDPPACIK@?$GAlocal?5static?5guard?8@ 10021f08     libvcruntime:undname.obj
 0002:00001f20       ??_C@_08OBABFOLI@?$GAstring?8@ 10021f20     libvcruntime:undname.obj
 0002:00001f2c       ??_C@_0BD@JDLKDPAB@?$GAvbase?5destructor?8@ 10021f2c     libvcruntime:undname.obj
 0002:00001f40       ??_C@_0BN@DEGPLNFK@?$GAvector?5deleting?5destructor?8@ 10021f40     libvcruntime:undname.obj
 0002:00001f60       ??_C@_0BO@OBMKPJIG@?$GAdefault?5constructor?5closure?8@ 10021f60     libvcruntime:undname.obj
 0002:00001f80       ??_C@_0BN@IMDCHIKM@?$GAscalar?5deleting?5destructor?8@ 10021f80     libvcruntime:undname.obj
 0002:00001fa0       ??_C@_0BO@PFGOCPJJ@?$GAvector?5constructor?5iterator?8@ 10021fa0     libvcruntime:undname.obj
 0002:00001fc0       ??_C@_0BN@LFPFMEDL@?$GAvector?5destructor?5iterator?8@ 10021fc0     libvcruntime:undname.obj
 0002:00001fe0       ??_C@_0CE@IKBNEHA@?$GAvector?5vbase?5constructor?5itera@ 10021fe0     libvcruntime:undname.obj
 0002:00002004       ??_C@_0BL@NILFHHPC@?$GAvirtual?5displacement?5map?8@ 10022004     libvcruntime:undname.obj
 0002:00002020       ??_C@_0CB@JONCMFFK@?$GAeh?5vector?5constructor?5iterator@ 10022020     libvcruntime:undname.obj
 0002:00002044       ??_C@_0CA@GCEOPDGL@?$GAeh?5vector?5destructor?5iterator?8@ 10022044     libvcruntime:undname.obj
 0002:00002064       ??_C@_0CH@OOJPLCPH@?$GAeh?5vector?5vbase?5constructor?5it@ 10022064     libvcruntime:undname.obj
 0002:0000208c       ??_C@_0BL@LLKPOHJI@?$GAcopy?5constructor?5closure?8@ 1002208c     libvcruntime:undname.obj
 0002:000020a8       ??_C@_0BA@KBCDOMBN@?$GAudt?5returning?8@ 100220a8     libvcruntime:undname.obj
 0002:000020b8       ??_C@_03KLGMFNMG@?$GAEH@   100220b8     libvcruntime:undname.obj
 0002:000020bc       ??_C@_05KHLCHHI@?$GARTTI@  100220bc     libvcruntime:undname.obj
 0002:000020c4       ??_C@_0BA@KKLDJDLB@?$GAlocal?5vftable?8@ 100220c4     libvcruntime:undname.obj
 0002:000020d4       ??_C@_0CE@IIHCMGGL@?$GAlocal?5vftable?5constructor?5clos@ 100220d4     libvcruntime:undname.obj
 0002:000020f8       ??_C@_06FHBGPFGH@?5new?$FL?$FN@ 100220f8     libvcruntime:undname.obj
 0002:00002100       ??_C@_09LBNFPBCA@?5delete?$FL?$FN@ 10022100     libvcruntime:undname.obj
 0002:0000210c       ??_C@_0P@HJKNJFNN@?$GAomni?5callsig?8@ 1002210c     libvcruntime:undname.obj
 0002:0000211c       ??_C@_0BL@CNOONJFP@?$GAplacement?5delete?5closure?8@ 1002211c     libvcruntime:undname.obj
 0002:00002138       ??_C@_0BN@CKNJLHMB@?$GAplacement?5delete?$FL?$FN?5closure?8@ 10022138     libvcruntime:undname.obj
 0002:00002158       ??_C@_0CG@CFDHKGGD@?$GAmanaged?5vector?5constructor?5ite@ 10022158     libvcruntime:undname.obj
 0002:00002180       ??_C@_0CF@IMGKMJNO@?$GAmanaged?5vector?5destructor?5iter@ 10022180     libvcruntime:undname.obj
 0002:000021a8       ??_C@_0CG@HLDDJMAG@?$GAeh?5vector?5copy?5constructor?5ite@ 100221a8     libvcruntime:undname.obj
 0002:000021d0       ??_C@_0CM@FCBBDIGB@?$GAeh?5vector?5vbase?5copy?5construct@ 100221d0     libvcruntime:undname.obj
 0002:000021fc       ??_C@_0BL@CLIPGLGB@?$GAdynamic?5initializer?5for?5?8@ 100221fc     libvcruntime:undname.obj
 0002:00002218       ??_C@_0CB@PDBIFEP@?$GAdynamic?5atexit?5destructor?5for?5@ 10022218     libvcruntime:undname.obj
 0002:0000223c       ??_C@_0CD@CGAJBKEJ@?$GAvector?5copy?5constructor?5iterat@ 1002223c     libvcruntime:undname.obj
 0002:00002260       ??_C@_0CJ@GJELGAMM@?$GAvector?5vbase?5copy?5constructor?5@ 10022260     libvcruntime:undname.obj
 0002:0000228c       ??_C@_0CL@FGIJHLCE@?$GAmanaged?5vector?5copy?5constructo@ 1002228c     libvcruntime:undname.obj
 0002:000022b8       ??_C@_0BM@PMGGMLDN@?$GAlocal?5static?5thread?5guard?8@ 100222b8     libvcruntime:undname.obj
 0002:000022d4       ??_C@_0N@BDNMDMOL@operator?5?$CC?$CC?5@ 100222d4     libvcruntime:undname.obj
 0002:000022e4       ??_C@_0BC@GGEBGALA@operator?5co_await@ 100222e4     libvcruntime:undname.obj
 0002:000022f8       ??_C@_0M@GAAIMMOH@operator?$DM?$DN?$DO@ 100222f8     libvcruntime:undname.obj
 0002:00002304       ??_C@_0BC@DAFEJGAK@?5Type?5Descriptor?8@ 10022304     libvcruntime:undname.obj
 0002:00002318       ??_C@_0BM@LDKODKLH@?5Base?5Class?5Descriptor?5at?5?$CI@ 10022318     libvcruntime:undname.obj
 0002:00002334       ??_C@_0BD@LGICGFMM@?5Base?5Class?5Array?8@ 10022334     libvcruntime:undname.obj
 0002:00002348       ??_C@_0BN@MECKDCOJ@?5Class?5Hierarchy?5Descriptor?8@ 10022348     libvcruntime:undname.obj
 0002:00002368       ??_C@_0BK@CFCOFLF@?5Complete?5Object?5Locator?8@ 10022368     libvcruntime:undname.obj
 0002:00002384       ??_C@_0BG@JNJLAMPM@?$GAanonymous?5namespace?8@ 10022384     libvcruntime:undname.obj
 0002:000023a8       ??_C@_1DM@KHCHBNEB@?$AAa?$AAp?$AAi?$AA?9?$AAm?$AAs?$AA?9?$AAw?$AAi?$AAn?$AA?9?$AAc?$AAo?$AAr?$AAe@ 100223a8     libvcruntime:winapi_downlevel.obj
 0002:000023e4       ??_C@_1DK@LPPGFMPP@?$AAa?$AAp?$AAi?$AA?9?$AAm?$AAs?$AA?9?$AAw?$AAi?$AAn?$AA?9?$AAc?$AAo?$AAr?$AAe@ 100223e4     libvcruntime:winapi_downlevel.obj
 0002:00002420       ??_C@_1BC@GDMECMAK@?$AAk?$AAe?$AAr?$AAn?$AAe?$AAl?$AA3?$AA2@ 10022420     libvcruntime:winapi_downlevel.obj
 0002:00002434       ??_C@_1BA@PFFKHIOG@?$AAa?$AAp?$AAi?$AA?9?$AAm?$AAs?$AA?9@ 10022434     libvcruntime:winapi_downlevel.obj
 0002:0000244c       ??_C@_08KNHFBNJ@FlsAlloc@  1002244c     libvcruntime:winapi_downlevel.obj
 0002:00002460       ??_C@_07PEJMOBNF@FlsFree@  10022460     libvcruntime:winapi_downlevel.obj
 0002:00002470       ??_C@_0M@GDNOONDI@FlsGetValue@ 10022470     libvcruntime:winapi_downlevel.obj
 0002:00002484       ??_C@_0M@JCPCPOEF@FlsSetValue@ 10022484     libvcruntime:winapi_downlevel.obj
 0002:00002498       ??_C@_0BM@HCFOFFN@InitializeCriticalSectionEx@ 10022498     libvcruntime:winapi_downlevel.obj
 0002:00002620       ?format_validation_lookup_table_spectre@__crt_stdio_output@@3V?$spectre_mitigated_lookup_table@Ustate_transition_pair@__crt_stdio_output@@$0IA@@1@B 10022620     libucrt:output.obj
 0002:00002720       ??_C@_1O@CEDCILHN@?$AA?$CI?$AAn?$AAu?$AAl?$AAl?$AA?$CJ@ 10022720     libucrt:output.obj
 0002:00002730       ??_C@_06OJHGLDPL@?$CInull?$CJ@ 10022730     libucrt:output.obj
 0002:00002738       ___acrt_exception_action_table 10022738     libucrt:exception_filter.obj
 0002:000027c8       ___acrt_signal_action_table_count 100227c8     libucrt:exception_filter.obj
 0002:000027cc       ___acrt_signal_action_first_fpe_index 100227cc     libucrt:exception_filter.obj
 0002:000027d0       ___acrt_signal_action_fpe_count 100227d0     libucrt:exception_filter.obj
 0002:000027d4       ??_C@_1BI@BGOHAHKC@?$AAm?$AAs?$AAc?$AAo?$AAr?$AAe?$AAe?$AA?4?$AAd?$AAl?$AAl@ 100227d4     libucrt:exit.obj
 0002:000027ec       ??_C@_0P@MIGLKIOC@CorExitProcess@ 100227ec     libucrt:exit.obj
 0002:00002880       ___lc_time_c               10022880     libucrt:nlsdata.obj
 0002:000029e4       ??_C@_03KOEHGMDN@Sun@      100229e4     libucrt:nlsdata.obj
 0002:000029e8       ??_C@_03PDAGKDH@Mon@       100229e8     libucrt:nlsdata.obj
 0002:000029ec       ??_C@_03NAGEINEP@Tue@      100229ec     libucrt:nlsdata.obj
 0002:000029f0       ??_C@_03MHOMLAJA@Wed@      100229f0     libucrt:nlsdata.obj
 0002:000029f4       ??_C@_03IOFIKPDN@Thu@      100229f4     libucrt:nlsdata.obj
 0002:000029f8       ??_C@_03IDIOELNC@Fri@      100229f8     libucrt:nlsdata.obj
 0002:000029fc       ??_C@_03FEFJNEK@Sat@       100229fc     libucrt:nlsdata.obj
 0002:00002a00       ??_C@_06OOPIFAJ@Sunday@    10022a00     libucrt:nlsdata.obj
 0002:00002a08       ??_C@_06JLEDEDGH@Monday@   10022a08     libucrt:nlsdata.obj
 0002:00002a10       ??_C@_07BAAGCFCM@Tuesday@  10022a10     libucrt:nlsdata.obj
 0002:00002a18       ??_C@_09DLIGFAKA@Wednesday@ 10022a18     libucrt:nlsdata.obj
 0002:00002a24       ??_C@_08HACCIKIA@Thursday@ 10022a24     libucrt:nlsdata.obj
 0002:00002a30       ??_C@_06JECMNKMI@Friday@   10022a30     libucrt:nlsdata.obj
 0002:00002a38       ??_C@_08INBOOONO@Saturday@ 10022a38     libucrt:nlsdata.obj
 0002:00002a44       ??_C@_03JIHJHPIE@Jan@      10022a44     libucrt:nlsdata.obj
 0002:00002a48       ??_C@_03HJBDCHOM@Feb@      10022a48     libucrt:nlsdata.obj
 0002:00002a4c       ??_C@_03ODNJBKGA@Mar@      10022a4c     libucrt:nlsdata.obj
 0002:00002a50       ??_C@_03LEOLGMJP@Apr@      10022a50     libucrt:nlsdata.obj
 0002:00002a54       ??_C@_03CNMDKL@May@        10022a54     libucrt:nlsdata.obj
 0002:00002a58       ??_C@_03IDFGHECI@Jun@      10022a58     libucrt:nlsdata.obj
 0002:00002a5c       ??_C@_03LBGABGKK@Jul@      10022a5c     libucrt:nlsdata.obj
 0002:00002a60       ??_C@_03IFJFEIGA@Aug@      10022a60     libucrt:nlsdata.obj
 0002:00002a64       ??_C@_03GGCAPAJC@Sep@      10022a64     libucrt:nlsdata.obj
 0002:00002a68       ??_C@_03BMAOKBAD@Oct@      10022a68     libucrt:nlsdata.obj
 0002:00002a6c       ??_C@_03JPJOFNIA@Nov@      10022a6c     libucrt:nlsdata.obj
 0002:00002a70       ??_C@_03MKABNOCG@Dec@      10022a70     libucrt:nlsdata.obj
 0002:00002a74       ??_C@_07CGJPFGJA@January@  10022a74     libucrt:nlsdata.obj
 0002:00002a7c       ??_C@_08GNJGEPFN@February@ 10022a7c     libucrt:nlsdata.obj
 0002:00002a88       ??_C@_05HPCKOFNC@March@    10022a88     libucrt:nlsdata.obj
 0002:00002a90       ??_C@_05DMJDNLEJ@April@    10022a90     libucrt:nlsdata.obj
 0002:00002a98       ??_C@_04CNLMGBGM@June@     10022a98     libucrt:nlsdata.obj
 0002:00002aa0       ??_C@_04MIEPOIFP@July@     10022aa0     libucrt:nlsdata.obj
 0002:00002aa8       ??_C@_06LBBHFDDG@August@   10022aa8     libucrt:nlsdata.obj
 0002:00002ab0       ??_C@_09BHHEALKD@September@ 10022ab0     libucrt:nlsdata.obj
 0002:00002abc       ??_C@_07JJNFCEND@October@  10022abc     libucrt:nlsdata.obj
 0002:00002ac4       ??_C@_08HCHEGEOA@November@ 10022ac4     libucrt:nlsdata.obj
 0002:00002ad0       ??_C@_08EDHMEBNP@December@ 10022ad0     libucrt:nlsdata.obj
 0002:00002adc       ??_C@_02DEDBPAFC@AM@       10022adc     libucrt:nlsdata.obj
 0002:00002ae0       ??_C@_02CJNFDJBF@PM@       10022ae0     libucrt:nlsdata.obj
 0002:00002ae4       ??_C@_08BPBNCDIB@MM?1dd?1yy@ 10022ae4     libucrt:nlsdata.obj
 0002:00002af0       ??_C@_0BE@CKGJFCPC@dddd?0?5MMMM?5dd?0?5yyyy@ 10022af0     libucrt:nlsdata.obj
 0002:00002b04       ??_C@_08JCCMCCIL@HH?3mm?3ss@ 10022b04     libucrt:nlsdata.obj
 0002:00002b10       ??_C@_17MBGCMIPB@?$AAS?$AAu?$AAn@ 10022b10     libucrt:nlsdata.obj
 0002:00002b18       ??_C@_17KBOMKBF@?$AAM?$AAo?$AAn@ 10022b18     libucrt:nlsdata.obj
 0002:00002b20       ??_C@_17BMKGEGOJ@?$AAT?$AAu?$AAe@ 10022b20     libucrt:nlsdata.obj
 0002:00002b28       ??_C@_17CJEDCEPE@?$AAW?$AAe?$AAd@ 10022b28     libucrt:nlsdata.obj
 0002:00002b30       ??_C@_17PDPHAADD@?$AAT?$AAh?$AAu@ 10022b30     libucrt:nlsdata.obj
 0002:00002b38       ??_C@_17HFOLPPLP@?$AAF?$AAr?$AAi@ 10022b38     libucrt:nlsdata.obj
 0002:00002b40       ??_C@_17GGIBDPIH@?$AAS?$AAa?$AAt@ 10022b40     libucrt:nlsdata.obj
 0002:00002b48       ??_C@_1O@IHNHDHPB@?$AAS?$AAu?$AAn?$AAd?$AAa?$AAy@ 10022b48     libucrt:nlsdata.obj
 0002:00002b58       ??_C@_1O@MMNBFLIA@?$AAM?$AAo?$AAn?$AAd?$AAa?$AAy@ 10022b58     libucrt:nlsdata.obj
 0002:00002b68       ??_C@_1BA@ENFBFFEK@?$AAT?$AAu?$AAe?$AAs?$AAd?$AAa?$AAy@ 10022b68     libucrt:nlsdata.obj
 0002:00002b78       ??_C@_1BE@EBOGMDOH@?$AAW?$AAe?$AAd?$AAn?$AAe?$AAs?$AAd?$AAa?$AAy@ 10022b78     libucrt:nlsdata.obj
 0002:00002b8c       ??_C@_1BC@HHMNLIHE@?$AAT?$AAh?$AAu?$AAr?$AAs?$AAd?$AAa?$AAy@ 10022b8c     libucrt:nlsdata.obj
 0002:00002ba0       ??_C@_1O@PDICJHAG@?$AAF?$AAr?$AAi?$AAd?$AAa?$AAy@ 10022ba0     libucrt:nlsdata.obj
 0002:00002bb0       ??_C@_1BC@ENMNNPAJ@?$AAS?$AAa?$AAt?$AAu?$AAr?$AAd?$AAa?$AAy@ 10022bb0     libucrt:nlsdata.obj
 0002:00002bc4       ??_C@_17DKNBKCHM@?$AAJ?$AAa?$AAn@ 10022bc4     libucrt:nlsdata.obj
 0002:00002bcc       ??_C@_17LMDJEKJN@?$AAF?$AAe?$AAb@ 10022bcc     libucrt:nlsdata.obj
 0002:00002bd4       ??_C@_17CKNLEDEC@?$AAM?$AAa?$AAr@ 10022bd4     libucrt:nlsdata.obj
 0002:00002bdc       ??_C@_17LFPOIHDD@?$AAA?$AAp?$AAr@ 10022bdc     libucrt:nlsdata.obj
 0002:00002be4       ??_C@_17PNNKMEED@?$AAM?$AAa?$AAy@ 10022be4     libucrt:nlsdata.obj
 0002:00002bec       ??_C@_17KCJGOCPB@?$AAJ?$AAu?$AAn@ 10022bec     libucrt:nlsdata.obj
 0002:00002bf4       ??_C@_17IJPCKHK@?$AAJ?$AAu?$AAl@ 10022bf4     libucrt:nlsdata.obj
 0002:00002bfc       ??_C@_17ICPELBCN@?$AAA?$AAu?$AAg@ 10022bfc     libucrt:nlsdata.obj
 0002:00002c04       ??_C@_17HCHCOKMG@?$AAS?$AAe?$AAp@ 10022c04     libucrt:nlsdata.obj
 0002:00002c0c       ??_C@_17FNLKOI@?$AAO?$AAc?$AAt@ 10022c0c     libucrt:nlsdata.obj
 0002:00002c14       ??_C@_17BBDMLCIG@?$AAN?$AAo?$AAv@ 10022c14     libucrt:nlsdata.obj
 0002:00002c1c       ??_C@_17EGKACKIF@?$AAD?$AAe?$AAc@ 10022c1c     libucrt:nlsdata.obj
 0002:00002c24       ??_C@_1BA@EFMEIEBA@?$AAJ?$AAa?$AAn?$AAu?$AAa?$AAr?$AAy@ 10022c24     libucrt:nlsdata.obj
 0002:00002c34       ??_C@_1BC@JGDDFFAM@?$AAF?$AAe?$AAb?$AAr?$AAu?$AAa?$AAr?$AAy@ 10022c34     libucrt:nlsdata.obj
 0002:00002c48       ??_C@_1M@IKEENEDF@?$AAM?$AAa?$AAr?$AAc?$AAh@ 10022c48     libucrt:nlsdata.obj
 0002:00002c54       ??_C@_1M@GJNLMHFD@?$AAA?$AAp?$AAr?$AAi?$AAl@ 10022c54     libucrt:nlsdata.obj
 0002:00002c60       ??_C@_19EPFLPGAP@?$AAJ?$AAu?$AAn?$AAe@ 10022c60     libucrt:nlsdata.obj
 0002:00002c6c       ??_C@_19BIFMLPCD@?$AAJ?$AAu?$AAl?$AAy@ 10022c6c     libucrt:nlsdata.obj
 0002:00002c78       ??_C@_1O@PAHLKOAC@?$AAA?$AAu?$AAg?$AAu?$AAs?$AAt@ 10022c78     libucrt:nlsdata.obj
 0002:00002c88       ??_C@_1BE@DKAAMBJL@?$AAS?$AAe?$AAp?$AAt?$AAe?$AAm?$AAb?$AAe?$AAr@ 10022c88     libucrt:nlsdata.obj
 0002:00002c9c       ??_C@_1BA@EPANDLNG@?$AAO?$AAc?$AAt?$AAo?$AAb?$AAe?$AAr@ 10022c9c     libucrt:nlsdata.obj
 0002:00002cac       ??_C@_1BC@BGLIFPF@?$AAN?$AAo?$AAv?$AAe?$AAm?$AAb?$AAe?$AAr@ 10022cac     libucrt:nlsdata.obj
 0002:00002cc0       ??_C@_1BC@FEMKIFH@?$AAD?$AAe?$AAc?$AAe?$AAm?$AAb?$AAe?$AAr@ 10022cc0     libucrt:nlsdata.obj
 0002:00002cd4       ??_C@_15ODEHAHHF@?$AAA?$AAM@ 10022cd4     libucrt:nlsdata.obj
 0002:00002cdc       ??_C@_15CLMNNGEL@?$AAP?$AAM@ 10022cdc     libucrt:nlsdata.obj
 0002:00002ce4       ??_C@_1BC@IEBCMHCM@?$AAM?$AAM?$AA?1?$AAd?$AAd?$AA?1?$AAy?$AAy@ 10022ce4     libucrt:nlsdata.obj
 0002:00002cf8       ??_C@_1CI@KNAKOEBC@?$AAd?$AAd?$AAd?$AAd?$AA?0?$AA?5?$AAM?$AAM?$AAM?$AAM?$AA?5?$AAd?$AAd?$AA?0?$AA?5@ 10022cf8     libucrt:nlsdata.obj
 0002:00002d20       ??_C@_1BC@GDGBMEMK@?$AAH?$AAH?$AA?3?$AAm?$AAm?$AA?3?$AAs?$AAs@ 10022d20     libucrt:nlsdata.obj
 0002:00002d34       ??_C@_1M@BMHNFIME@?$AAe?$AAn?$AA?9?$AAU?$AAS@ 10022d34     libucrt:nlsdata.obj
 0002:00002d90       ??_C@_1EA@JGEFHKEI@?$AAa?$AAp?$AAi?$AA?9?$AAm?$AAs?$AA?9?$AAw?$AAi?$AAn?$AA?9?$AAc?$AAo?$AAr?$AAe@ 10022d90     libucrt:winapi_thunks.obj
 0002:00002dd0       ??_C@_1DI@IJCEHOCB@?$AAa?$AAp?$AAi?$AA?9?$AAm?$AAs?$AA?9?$AAw?$AAi?$AAn?$AA?9?$AAc?$AAo?$AAr?$AAe@ 10022dd0     libucrt:winapi_thunks.obj
 0002:00002e08       ??_C@_1EI@MPIAOHOC@?$AAa?$AAp?$AAi?$AA?9?$AAm?$AAs?$AA?9?$AAw?$AAi?$AAn?$AA?9?$AAc?$AAo?$AAr?$AAe@ 10022e08     libucrt:winapi_thunks.obj
 0002:00002e50       ??_C@_1FK@FPHCKFIE@?$AAa?$AAp?$AAi?$AA?9?$AAm?$AAs?$AA?9?$AAw?$AAi?$AAn?$AA?9?$AAc?$AAo?$AAr?$AAe@ 10022e50     libucrt:winapi_thunks.obj
 0002:00002eb0       ??_C@_1EM@DILCGIIO@?$AAa?$AAp?$AAi?$AA?9?$AAm?$AAs?$AA?9?$AAw?$AAi?$AAn?$AA?9?$AAc?$AAo?$AAr?$AAe@ 10022eb0     libucrt:winapi_thunks.obj
 0002:00002efc       ??_C@_1DM@LNCGDDPN@?$AAa?$AAp?$AAi?$AA?9?$AAm?$AAs?$AA?9?$AAw?$AAi?$AAn?$AA?9?$AAc?$AAo?$AAr?$AAe@ 10022efc     libucrt:winapi_thunks.obj
 0002:00002f38       ??_C@_1DO@FPAPJEMD@?$AAa?$AAp?$AAi?$AA?9?$AAm?$AAs?$AA?9?$AAw?$AAi?$AAn?$AA?9?$AAc?$AAo?$AAr?$AAe@ 10022f38     libucrt:winapi_thunks.obj
 0002:00002f78       ??_C@_1DK@NDHNAHIO@?$AAa?$AAp?$AAi?$AA?9?$AAm?$AAs?$AA?9?$AAw?$AAi?$AAn?$AA?9?$AAc?$AAo?$AAr?$AAe@ 10022f78     libucrt:winapi_thunks.obj
 0002:00002fb4       ??_C@_1DM@KGHDGBCM@?$AAa?$AAp?$AAi?$AA?9?$AAm?$AAs?$AA?9?$AAw?$AAi?$AAn?$AA?9?$AAc?$AAo?$AAr?$AAe@ 10022fb4     libucrt:winapi_thunks.obj
 0002:00002ff0       ??_C@_1EO@IJIOEFOH@?$AAa?$AAp?$AAi?$AA?9?$AAm?$AAs?$AA?9?$AAw?$AAi?$AAn?$AA?9?$AAr?$AAt?$AAc?$AAo@ 10022ff0     libucrt:winapi_thunks.obj
 0002:00003040       ??_C@_1FG@HHGEKANL@?$AAa?$AAp?$AAi?$AA?9?$AAm?$AAs?$AA?9?$AAw?$AAi?$AAn?$AA?9?$AAs?$AAe?$AAc?$AAu@ 10023040     libucrt:winapi_thunks.obj
 0002:00003098       ??_C@_1EG@DBIOJECG@?$AAe?$AAx?$AAt?$AA?9?$AAm?$AAs?$AA?9?$AAw?$AAi?$AAn?$AA?9?$AAn?$AAt?$AAu?$AAs@ 10023098     libucrt:winapi_thunks.obj
 0002:000030e0       ??_C@_1EO@FIHMJCLF@?$AAe?$AAx?$AAt?$AA?9?$AAm?$AAs?$AA?9?$AAw?$AAi?$AAn?$AA?9?$AAn?$AAt?$AAu?$AAs@ 100230e0     libucrt:winapi_thunks.obj
 0002:00003130       ??_C@_1BC@DNHGCMLG@?$AAa?$AAd?$AAv?$AAa?$AAp?$AAi?$AA3?$AA2@ 10023130     libucrt:winapi_thunks.obj
 0002:00003144       ??_C@_1M@OAIMIKLP@?$AAn?$AAt?$AAd?$AAl?$AAl@ 10023144     libucrt:winapi_thunks.obj
 0002:00003150       ??_C@_1EG@DPGNFKGC@?$AAa?$AAp?$AAi?$AA?9?$AAm?$AAs?$AA?9?$AAw?$AAi?$AAn?$AA?9?$AAa?$AAp?$AAp?$AAm@ 10023150     libucrt:winapi_thunks.obj
 0002:00003198       ??_C@_1O@BCCLBEOE@?$AAu?$AAs?$AAe?$AAr?$AA3?$AA2@ 10023198     libucrt:winapi_thunks.obj
 0002:000031a8       ??_C@_1DM@BPJLHKCE@?$AAa?$AAp?$AAi?$AA?9?$AAm?$AAs?$AA?9?$AAw?$AAi?$AAn?$AA?9?$AAc?$AAo?$AAr?$AAe@ 100231a8     libucrt:winapi_thunks.obj
 0002:000031e4       ??_C@_1BA@IAIFMGEF@?$AAe?$AAx?$AAt?$AA?9?$AAm?$AAs?$AA?9@ 100231e4     libucrt:winapi_thunks.obj
 0002:000031f8       ??_C@_0BA@FHFNEAED@AreFileApisANSI@ 100231f8     libucrt:winapi_thunks.obj
 0002:00003218       ??_C@_0O@KKBNKAPF@LCMapStringEx@ 10023218     libucrt:winapi_thunks.obj
 0002:00003230       ??_C@_0BB@HBDEELFH@LocaleNameToLCID@ 10023230     libucrt:winapi_thunks.obj
 0002:00003248       ??_C@_0CF@OJOFEIGO@AppPolicyGetProcessTerminationM@ 10023248     libucrt:winapi_thunks.obj
 0002:00003278       ??_C@_0BI@BKLFFAPO@SetThreadStackGuarantee@ 10023278     libucrt:winapi_thunks.obj
 0002:000032f0       ??_C@_03OEIAHPBN@INF@      100232f0     libucrt:cvt.obj
 0002:000032f4       ??_C@_03OJHLLCGB@inf@      100232f4     libucrt:cvt.obj
 0002:000032f8       ??_C@_03LKNCIKJB@NAN@      100232f8     libucrt:cvt.obj
 0002:000032fc       ??_C@_03LHCJEHON@nan@      100232fc     libucrt:cvt.obj
 0002:00003300       ??_C@_09OFJJIMPC@NAN?$CISNAN?$CJ@ 10023300     libucrt:cvt.obj
 0002:0000330c       ??_C@_09IPFBKMDL@nan?$CIsnan?$CJ@ 1002330c     libucrt:cvt.obj
 0002:00003318       ??_C@_08IKHNHAJ@NAN?$CIIND?$CJ@ 10023318     libucrt:cvt.obj
 0002:00003324       ??_C@_08OFCDMILK@nan?$CIind?$CJ@ 10023324     libucrt:cvt.obj
 0002:00003330       ??_C@_05KLBDPFGC@e?$CL000@ 10023330     libucrt:cvt.obj
 0002:00003348       ??_C@_1M@HPNHIDJI@?$AAj?$AAa?$AA?9?$AAJ?$AAP@ 10023348     libucrt:mbctype.obj
 0002:00003354       ??_C@_1M@BIBDDEMK@?$AAz?$AAh?$AA?9?$AAC?$AAN@ 10023354     libucrt:mbctype.obj
 0002:00003360       ??_C@_1M@JLOOOEGK@?$AAk?$AAo?$AA?9?$AAK?$AAR@ 10023360     libucrt:mbctype.obj
 0002:0000336c       ??_C@_1M@CLNBBOPM@?$AAz?$AAh?$AA?9?$AAT?$AAW@ 1002336c     libucrt:mbctype.obj
 0002:00003378       ___newctype                10023378     libucrt:ctype.obj
 0002:00003678       ___newclmap                10023678     libucrt:ctype.obj
 0002:000037f8       ___newcumap                100237f8     libucrt:ctype.obj
 0002:00003978       ??_C@_15PJPFLCCM@?$AAu?$AAk@ 10023978     libucrt:get_qualified_locale.obj
 0002:000040a0       ??_C@_15EMKDOKLE@?$AAa?$AAr@ 100240a0     libucrt:lcidtoname_downlevel.obj
 0002:000040a8       ??_C@_15KNPADPLH@?$AAb?$AAg@ 100240a8     libucrt:lcidtoname_downlevel.obj
 0002:000040b0       ??_C@_15EDMHLDMO@?$AAc?$AAa@ 100240b0     libucrt:lcidtoname_downlevel.obj
 0002:000040b8       ??_C@_1O@BPEAJADD@?$AAz?$AAh?$AA?9?$AAC?$AAH?$AAS@ 100240b8     libucrt:lcidtoname_downlevel.obj
 0002:000040c8       ??_C@_15LJNHCMNK@?$AAc?$AAs@ 100240c8     libucrt:lcidtoname_downlevel.obj
 0002:000040d0       ??_C@_15FOMCIDHG@?$AAd?$AAa@ 100240d0     libucrt:lcidtoname_downlevel.obj
 0002:000040d8       ??_C@_15NBKABECB@?$AAd?$AAe@ 100240d8     libucrt:lcidtoname_downlevel.obj
 0002:000040e0       ??_C@_15GHPEIIAO@?$AAe?$AAl@ 100240e0     libucrt:lcidtoname_downlevel.obj
 0002:000040e8       ??_C@_15MNPNEAIF@?$AAe?$AAn@ 100240e8     libucrt:lcidtoname_downlevel.obj
 0002:000040f0       ??_C@_15GPIOMPMH@?$AAe?$AAs@ 100240f0     libucrt:lcidtoname_downlevel.obj
 0002:000040f8       ??_C@_15NGLOAKJC@?$AAf?$AAi@ 100240f8     libucrt:lcidtoname_downlevel.obj
 0002:00004100       ??_C@_15FBKGNKAM@?$AAf?$AAr@ 10024100     libucrt:lcidtoname_downlevel.obj
 0002:00004108       ??_C@_15KGGCNEFK@?$AAh?$AAe@ 10024108     libucrt:lcidtoname_downlevel.obj
 0002:00004110       ??_C@_15PGHLIDMF@?$AAh?$AAu@ 10024110     libucrt:lcidtoname_downlevel.obj
 0002:00004118       ??_C@_15BIEMAPLM@?$AAi?$AAs@ 10024118     libucrt:lcidtoname_downlevel.obj
 0002:00004120       ??_C@_15IFJLDHAF@?$AAi?$AAt@ 10024120     libucrt:lcidtoname_downlevel.obj
 0002:00004128       ??_C@_15GEMIOCAG@?$AAj?$AAa@ 10024128     libucrt:lcidtoname_downlevel.obj
 0002:00004130       ??_C@_15EPELEGJA@?$AAk?$AAo@ 10024130     libucrt:lcidtoname_downlevel.obj
 0002:00004138       ??_C@_15NDDHIMN@?$AAn?$AAl@ 10024138     libucrt:lcidtoname_downlevel.obj
 0002:00004140       ??_C@_15BPIGNHCD@?$AAn?$AAo@ 10024140     libucrt:lcidtoname_downlevel.obj
 0002:00004148       ??_C@_15DEOPBLCG@?$AAp?$AAl@ 10024148     libucrt:lcidtoname_downlevel.obj
 0002:00004150       ??_C@_15KBECGEFG@?$AAp?$AAt@ 10024150     libucrt:lcidtoname_downlevel.obj
 0002:00004158       ??_C@_15GLJCBFMD@?$AAr?$AAo@ 10024158     libucrt:lcidtoname_downlevel.obj
 0002:00004160       ??_C@_15FEDGKCDI@?$AAr?$AAu@ 10024160     libucrt:lcidtoname_downlevel.obj
 0002:00004168       ??_C@_15GLKMLLHM@?$AAh?$AAr@ 10024168     libucrt:lcidtoname_downlevel.obj
 0002:00004170       ??_C@_15CPKMFBDB@?$AAs?$AAk@ 10024170     libucrt:lcidtoname_downlevel.obj
 0002:00004178       ??_C@_15BAAIOGMK@?$AAs?$AAq@ 10024178     libucrt:lcidtoname_downlevel.obj
 0002:00004180       ??_C@_15INNPNOHD@?$AAs?$AAv@ 10024180     libucrt:lcidtoname_downlevel.obj
 0002:00004188       ??_C@_15CABMMOGH@?$AAt?$AAh@ 10024188     libucrt:lcidtoname_downlevel.obj
 0002:00004190       ??_C@_15BPLIHJJM@?$AAt?$AAr@ 10024190     libucrt:lcidtoname_downlevel.obj
 0002:00004198       ??_C@_15NEOEKKDJ@?$AAu?$AAr@ 10024198     libucrt:lcidtoname_downlevel.obj
 0002:000041a0       ??_C@_15NFICGAJK@?$AAi?$AAd@ 100241a0     libucrt:lcidtoname_downlevel.obj
 0002:000041a8       ??_C@_15HPJPHDM@?$AAb?$AAe@ 100241a8     libucrt:lcidtoname_downlevel.obj
 0002:000041b0       ??_C@_15LCHLGJII@?$AAs?$AAl@ 100241b0     libucrt:lcidtoname_downlevel.obj
 0002:000041b8       ??_C@_15PCFJPHHO@?$AAe?$AAt@ 100241b8     libucrt:lcidtoname_downlevel.obj
 0002:000041c0       ??_C@_15HPFPGODN@?$AAl?$AAv@ 100241c0     libucrt:lcidtoname_downlevel.obj
 0002:000041c8       ??_C@_15NFFGKGLG@?$AAl?$AAt@ 100241c8     libucrt:lcidtoname_downlevel.obj
 0002:000041d0       ??_C@_15BDAKCCHN@?$AAf?$AAa@ 100241d0     libucrt:lcidtoname_downlevel.obj
 0002:000041d8       ??_C@_15NFGIAIAJ@?$AAv?$AAi@ 100241d8     libucrt:lcidtoname_downlevel.obj
 0002:000041e0       ??_C@_15LMKNDMHN@?$AAh?$AAy@ 100241e0     libucrt:lcidtoname_downlevel.obj
 0002:000041e8       ??_C@_15IJBHMCFL@?$AAa?$AAz@ 100241e8     libucrt:lcidtoname_downlevel.obj
 0002:000041f0       ??_C@_15EKOFJABL@?$AAe?$AAu@ 100241f0     libucrt:lcidtoname_downlevel.obj
 0002:000041f8       ??_C@_15BGHADCNK@?$AAm?$AAk@ 100241f8     libucrt:lcidtoname_downlevel.obj
 0002:00004200       ??_C@_15JDNICKHM@?$AAa?$AAf@ 10024200     libucrt:lcidtoname_downlevel.obj
 0002:00004208       ??_C@_15KPJEDBKD@?$AAk?$AAa@ 10024208     libucrt:lcidtoname_downlevel.obj
 0002:00004210       ??_C@_15PDNFFFEO@?$AAf?$AAo@ 10024210     libucrt:lcidtoname_downlevel.obj
 0002:00004218       ??_C@_15OMLEGLOC@?$AAh?$AAi@ 10024218     libucrt:lcidtoname_downlevel.obj
 0002:00004220       ??_C@_15IDNNENKK@?$AAm?$AAs@ 10024220     libucrt:lcidtoname_downlevel.obj
 0002:00004228       ??_C@_15MACJNBMH@?$AAk?$AAk@ 10024228     libucrt:lcidtoname_downlevel.obj
 0002:00004230       ??_C@_15DKDJEOND@?$AAk?$AAy@ 10024230     libucrt:lcidtoname_downlevel.obj
 0002:00004238       ??_C@_15DFGDLJBG@?$AAs?$AAw@ 10024238     libucrt:lcidtoname_downlevel.obj
 0002:00004240       ??_C@_15BBFAICNG@?$AAu?$AAz@ 10024240     libucrt:lcidtoname_downlevel.obj
 0002:00004248       ??_C@_15DKNDCGEA@?$AAt?$AAt@ 10024248     libucrt:lcidtoname_downlevel.obj
 0002:00004250       ??_C@_15MGIFMDPL@?$AAp?$AAa@ 10024250     libucrt:lcidtoname_downlevel.obj
 0002:00004258       ??_C@_15HCNDBBA@?$AAg?$AAu@ 10024258     libucrt:lcidtoname_downlevel.obj
 0002:00004260       ??_C@_15FNBEIBON@?$AAt?$AAa@ 10024260     libucrt:lcidtoname_downlevel.obj
 0002:00004268       ??_C@_15NCHGBGLK@?$AAt?$AAe@ 10024268     libucrt:lcidtoname_downlevel.obj
 0002:00004270       ??_C@_15PHPHCBPF@?$AAk?$AAn@ 10024270     libucrt:lcidtoname_downlevel.obj
 0002:00004278       ??_C@_15DLGBCKMP@?$AAm?$AAr@ 10024278     libucrt:lcidtoname_downlevel.obj
 0002:00004280       ??_C@_15EABBLBFF@?$AAs?$AAa@ 10024280     libucrt:lcidtoname_downlevel.obj
 0002:00004288       ??_C@_15CBKOMCOI@?$AAm?$AAn@ 10024288     libucrt:lcidtoname_downlevel.obj
 0002:00004290       ??_C@_15CKDMCJAF@?$AAg?$AAl@ 10024290     libucrt:lcidtoname_downlevel.obj
 0002:00004298       ??_C@_17CNJFBPG@?$AAk?$AAo?$AAk@ 10024298     libucrt:lcidtoname_downlevel.obj
 0002:000042a0       ??_C@_17FFBJICPL@?$AAs?$AAy?$AAr@ 100242a0     libucrt:lcidtoname_downlevel.obj
 0002:000042a8       ??_C@_17KPNDCPAF@?$AAd?$AAi?$AAv@ 100242a8     libucrt:lcidtoname_downlevel.obj
 0002:000042b0       ??_C@_1M@OKAHONE@?$AAa?$AAr?$AA?9?$AAS?$AAA@ 100242b0     libucrt:lcidtoname_downlevel.obj
 0002:000042bc       ??_C@_1M@FFFIGIGK@?$AAb?$AAg?$AA?9?$AAB?$AAG@ 100242bc     libucrt:lcidtoname_downlevel.obj
 0002:000042c8       ??_C@_1M@BJNKEDC@?$AAc?$AAa?$AA?9?$AAE?$AAS@ 100242c8     libucrt:lcidtoname_downlevel.obj
 0002:000042d4       ??_C@_1M@IJJHFJHA@?$AAc?$AAs?$AA?9?$AAC?$AAZ@ 100242d4     libucrt:lcidtoname_downlevel.obj
 0002:000042e0       ??_C@_1M@CLPEOBGI@?$AAd?$AAa?$AA?9?$AAD?$AAK@ 100242e0     libucrt:lcidtoname_downlevel.obj
 0002:000042ec       ??_C@_1M@MCMADGCB@?$AAd?$AAe?$AA?9?$AAD?$AAE@ 100242ec     libucrt:lcidtoname_downlevel.obj
 0002:000042f8       ??_C@_1M@OOCKEMAM@?$AAe?$AAl?$AA?9?$AAG?$AAR@ 100242f8     libucrt:lcidtoname_downlevel.obj
 0002:00004304       ??_C@_1M@DDNJFGID@?$AAf?$AAi?$AA?9?$AAF?$AAI@ 10024304     libucrt:lcidtoname_downlevel.obj
 0002:00004310       ??_C@_1M@GLIPPMAC@?$AAf?$AAr?$AA?9?$AAF?$AAR@ 10024310     libucrt:lcidtoname_downlevel.obj
 0002:0000431c       ??_C@_1M@GFMCHPE@?$AAh?$AAe?$AA?9?$AAI?$AAL@ 1002431c     libucrt:lcidtoname_downlevel.obj
 0002:00004328       ??_C@_1M@MHLPGNKM@?$AAh?$AAu?$AA?9?$AAH?$AAU@ 10024328     libucrt:lcidtoname_downlevel.obj
 0002:00004334       ??_C@_1M@LPDDNNPN@?$AAi?$AAs?$AA?9?$AAI?$AAS@ 10024334     libucrt:lcidtoname_downlevel.obj
 0002:00004340       ??_C@_1M@MADIPODN@?$AAi?$AAt?$AA?9?$AAI?$AAT@ 10024340     libucrt:lcidtoname_downlevel.obj
 0002:0000434c       ??_C@_1M@IHBJJGG@?$AAn?$AAl?$AA?9?$AAN?$AAL@ 1002434c     libucrt:lcidtoname_downlevel.obj
 0002:00004358       ??_C@_1M@EANAGDL@?$AAn?$AAb?$AA?9?$AAN?$AAO@ 10024358     libucrt:lcidtoname_downlevel.obj
 0002:00004364       ??_C@_1M@NEIEMEGP@?$AAp?$AAl?$AA?9?$AAP?$AAL@ 10024364     libucrt:lcidtoname_downlevel.obj
 0002:00004370       ??_C@_1M@BOCFIGEP@?$AAp?$AAt?$AA?9?$AAB?$AAR@ 10024370     libucrt:lcidtoname_downlevel.obj
 0002:0000437c       ??_C@_1M@IMPFOPBG@?$AAr?$AAo?$AA?9?$AAR?$AAO@ 1002437c     libucrt:lcidtoname_downlevel.obj
 0002:00004388       ??_C@_1M@IDNNEJMM@?$AAr?$AAu?$AA?9?$AAR?$AAU@ 10024388     libucrt:lcidtoname_downlevel.obj
 0002:00004394       ??_C@_1M@LILEEOGM@?$AAh?$AAr?$AA?9?$AAH?$AAR@ 10024394     libucrt:lcidtoname_downlevel.obj
 0002:000043a0       ??_C@_1M@FKIFEHPB@?$AAs?$AAk?$AA?9?$AAS?$AAK@ 100243a0     libucrt:lcidtoname_downlevel.obj
 0002:000043ac       ??_C@_1M@LJMAMNPJ@?$AAs?$AAq?$AA?9?$AAA?$AAL@ 100243ac     libucrt:lcidtoname_downlevel.obj
 0002:000043b8       ??_C@_1M@GIAKDKJK@?$AAs?$AAv?$AA?9?$AAS?$AAE@ 100243b8     libucrt:lcidtoname_downlevel.obj
 0002:000043c4       ??_C@_1M@MKJKIKCL@?$AAt?$AAh?$AA?9?$AAT?$AAH@ 100243c4     libucrt:lcidtoname_downlevel.obj
 0002:000043d0       ??_C@_1M@MFLCCMPB@?$AAt?$AAr?$AA?9?$AAT?$AAR@ 100243d0     libucrt:lcidtoname_downlevel.obj
 0002:000043dc       ??_C@_1M@OIJHDKJN@?$AAu?$AAr?$AA?9?$AAP?$AAK@ 100243dc     libucrt:lcidtoname_downlevel.obj
 0002:000043e8       ??_C@_1M@LHIPCIEK@?$AAi?$AAd?$AA?9?$AAI?$AAD@ 100243e8     libucrt:lcidtoname_downlevel.obj
 0002:000043f4       ??_C@_1M@MFMOBGI@?$AAu?$AAk?$AA?9?$AAU?$AAA@ 100243f4     libucrt:lcidtoname_downlevel.obj
 0002:00004400       ??_C@_1M@OBGLJIPL@?$AAb?$AAe?$AA?9?$AAB?$AAY@ 10024400     libucrt:lcidtoname_downlevel.obj
 0002:0000440c       ??_C@_1M@BCFAJEAD@?$AAs?$AAl?$AA?9?$AAS?$AAI@ 1002440c     libucrt:lcidtoname_downlevel.obj
 0002:00004418       ??_C@_1M@FKFFEDDN@?$AAe?$AAt?$AA?9?$AAE?$AAE@ 10024418     libucrt:lcidtoname_downlevel.obj
 0002:00004424       ??_C@_1M@KGKKAACI@?$AAl?$AAv?$AA?9?$AAL?$AAV@ 10024424     libucrt:lcidtoname_downlevel.obj
 0002:00004430       ??_C@_1M@IFGBIJO@?$AAl?$AAt?$AA?9?$AAL?$AAT@ 10024430     libucrt:lcidtoname_downlevel.obj
 0002:0000443c       ??_C@_1M@FGEAHEDM@?$AAf?$AAa?$AA?9?$AAI?$AAR@ 1002443c     libucrt:lcidtoname_downlevel.obj
 0002:00004448       ??_C@_1M@KBMAIBFN@?$AAv?$AAi?$AA?9?$AAV?$AAN@ 10024448     libucrt:lcidtoname_downlevel.obj
 0002:00004454       ??_C@_1M@GPCBKDJK@?$AAh?$AAy?$AA?9?$AAA?$AAM@ 10024454     libucrt:lcidtoname_downlevel.obj
 0002:00004460       ??_C@_1BG@BECMDDJB@?$AAa?$AAz?$AA?9?$AAA?$AAZ?$AA?9?$AAL?$AAa?$AAt?$AAn@ 10024460     libucrt:lcidtoname_downlevel.obj
 0002:00004478       ??_C@_1M@MAOFCAEA@?$AAe?$AAu?$AA?9?$AAE?$AAS@ 10024478     libucrt:lcidtoname_downlevel.obj
 0002:00004484       ??_C@_1M@IGHABKPI@?$AAm?$AAk?$AA?9?$AAM?$AAK@ 10024484     libucrt:lcidtoname_downlevel.obj
 0002:00004490       ??_C@_1M@IAIGNEJG@?$AAt?$AAn?$AA?9?$AAZ?$AAA@ 10024490     libucrt:lcidtoname_downlevel.obj
 0002:0000449c       ??_C@_1M@IIJCOJFA@?$AAx?$AAh?$AA?9?$AAZ?$AAA@ 1002449c     libucrt:lcidtoname_downlevel.obj
 0002:000044a8       ??_C@_1M@LGPJHNJH@?$AAz?$AAu?$AA?9?$AAZ?$AAA@ 100244a8     libucrt:lcidtoname_downlevel.obj
 0002:000044b4       ??_C@_1M@HOKAOIO@?$AAa?$AAf?$AA?9?$AAZ?$AAA@ 100244b4     libucrt:lcidtoname_downlevel.obj
 0002:000044c0       ??_C@_1M@DPCLHLIE@?$AAk?$AAa?$AA?9?$AAG?$AAE@ 100244c0     libucrt:lcidtoname_downlevel.obj
 0002:000044cc       ??_C@_1M@BLKMHJBI@?$AAf?$AAo?$AA?9?$AAF?$AAO@ 100244cc     libucrt:lcidtoname_downlevel.obj
 0002:000044d8       ??_C@_1M@LGGJAPPB@?$AAh?$AAi?$AA?9?$AAI?$AAN@ 100244d8     libucrt:lcidtoname_downlevel.obj
 0002:000044e4       ??_C@_1M@FIKPIHFE@?$AAm?$AAt?$AA?9?$AAM?$AAT@ 100244e4     libucrt:lcidtoname_downlevel.obj
 0002:000044f0       ??_C@_1M@HEGGPBFA@?$AAs?$AAe?$AA?9?$AAN?$AAO@ 100244f0     libucrt:lcidtoname_downlevel.obj
 0002:000044fc       ??_C@_1M@EIBJEEPA@?$AAm?$AAs?$AA?9?$AAM?$AAY@ 100244fc     libucrt:lcidtoname_downlevel.obj
 0002:00004508       ??_C@_1M@FHLBGMPP@?$AAk?$AAk?$AA?9?$AAK?$AAZ@ 10024508     libucrt:lcidtoname_downlevel.obj
 0002:00004514       ??_C@_1M@NGJJLCGI@?$AAk?$AAy?$AA?9?$AAK?$AAG@ 10024514     libucrt:lcidtoname_downlevel.obj
 0002:00004520       ??_C@_1M@GIENNBFC@?$AAs?$AAw?$AA?9?$AAK?$AAE@ 10024520     libucrt:lcidtoname_downlevel.obj
 0002:0000452c       ??_C@_1BG@NDGMJIMJ@?$AAu?$AAz?$AA?9?$AAU?$AAZ?$AA?9?$AAL?$AAa?$AAt?$AAn@ 1002452c     libucrt:lcidtoname_downlevel.obj
 0002:00004544       ??_C@_1M@IDCCIHBC@?$AAt?$AAt?$AA?9?$AAR?$AAU@ 10024544     libucrt:lcidtoname_downlevel.obj
 0002:00004550       ??_C@_1M@LOICPMOJ@?$AAb?$AAn?$AA?9?$AAI?$AAN@ 10024550     libucrt:lcidtoname_downlevel.obj
 0002:0000455c       ??_C@_1M@KPKKNEAH@?$AAp?$AAa?$AA?9?$AAI?$AAN@ 1002455c     libucrt:lcidtoname_downlevel.obj
 0002:00004568       ??_C@_1M@PJGPPBOG@?$AAg?$AAu?$AA?9?$AAI?$AAN@ 10024568     libucrt:lcidtoname_downlevel.obj
 0002:00004574       ??_C@_1M@KMKMOPHI@?$AAt?$AAa?$AA?9?$AAI?$AAN@ 10024574     libucrt:lcidtoname_downlevel.obj
 0002:00004580       ??_C@_1M@KFEHEPAC@?$AAt?$AAe?$AA?9?$AAI?$AAN@ 10024580     libucrt:lcidtoname_downlevel.obj
 0002:0000458c       ??_C@_1M@CDCLMGHI@?$AAk?$AAn?$AA?9?$AAI?$AAN@ 1002458c     libucrt:lcidtoname_downlevel.obj
 0002:00004598       ??_C@_1M@MIODLDKF@?$AAm?$AAl?$AA?9?$AAI?$AAN@ 10024598     libucrt:lcidtoname_downlevel.obj
 0002:000045a4       ??_C@_1M@PBIEACPO@?$AAm?$AAr?$AA?9?$AAI?$AAN@ 100245a4     libucrt:lcidtoname_downlevel.obj
 0002:000045b0       ??_C@_1M@NIDEAGPH@?$AAs?$AAa?$AA?9?$AAI?$AAN@ 100245b0     libucrt:lcidtoname_downlevel.obj
 0002:000045bc       ??_C@_1M@FHIHCBIO@?$AAm?$AAn?$AA?9?$AAM?$AAN@ 100245bc     libucrt:lcidtoname_downlevel.obj
 0002:000045c8       ??_C@_1M@JAIJPENP@?$AAc?$AAy?$AA?9?$AAG?$AAB@ 100245c8     libucrt:lcidtoname_downlevel.obj
 0002:000045d4       ??_C@_1M@PHGFBEPN@?$AAg?$AAl?$AA?9?$AAE?$AAS@ 100245d4     libucrt:lcidtoname_downlevel.obj
 0002:000045e0       ??_C@_1O@KPIPDNCP@?$AAk?$AAo?$AAk?$AA?9?$AAI?$AAN@ 100245e0     libucrt:lcidtoname_downlevel.obj
 0002:000045f0       ??_C@_1O@KNHJLDJA@?$AAs?$AAy?$AAr?$AA?9?$AAS?$AAY@ 100245f0     libucrt:lcidtoname_downlevel.obj
 0002:00004600       ??_C@_1O@MKEKBLAH@?$AAd?$AAi?$AAv?$AA?9?$AAM?$AAV@ 10024600     libucrt:lcidtoname_downlevel.obj
 0002:00004610       ??_C@_1O@OHDCKDDF@?$AAq?$AAu?$AAz?$AA?9?$AAB?$AAO@ 10024610     libucrt:lcidtoname_downlevel.obj
 0002:00004620       ??_C@_1M@LEPJNLFD@?$AAn?$AAs?$AA?9?$AAZ?$AAA@ 10024620     libucrt:lcidtoname_downlevel.obj
 0002:0000462c       ??_C@_1M@OMLEIIJB@?$AAm?$AAi?$AA?9?$AAN?$AAZ@ 1002462c     libucrt:lcidtoname_downlevel.obj
 0002:00004638       ??_C@_1M@PMPEAILG@?$AAa?$AAr?$AA?9?$AAI?$AAQ@ 10024638     libucrt:lcidtoname_downlevel.obj
 0002:00004644       ??_C@_1M@CNKPNOEE@?$AAd?$AAe?$AA?9?$AAC?$AAH@ 10024644     libucrt:lcidtoname_downlevel.obj
 0002:00004650       ??_C@_1M@LKMGMLKO@?$AAe?$AAn?$AA?9?$AAG?$AAB@ 10024650     libucrt:lcidtoname_downlevel.obj
 0002:0000465c       ??_C@_1M@PGKJFFGL@?$AAe?$AAs?$AA?9?$AAM?$AAX@ 1002465c     libucrt:lcidtoname_downlevel.obj
 0002:00004668       ??_C@_1M@DNNANBDC@?$AAf?$AAr?$AA?9?$AAB?$AAE@ 10024668     libucrt:lcidtoname_downlevel.obj
 0002:00004674       ??_C@_1M@HLGMDFHM@?$AAi?$AAt?$AA?9?$AAC?$AAH@ 10024674     libucrt:lcidtoname_downlevel.obj
 0002:00004680       ??_C@_1M@CLLBGJH@?$AAn?$AAl?$AA?9?$AAB?$AAE@ 10024680     libucrt:lcidtoname_downlevel.obj
 0002:0000468c       ??_C@_1M@BODBOGLF@?$AAn?$AAn?$AA?9?$AAN?$AAO@ 1002468c     libucrt:lcidtoname_downlevel.obj
 0002:00004698       ??_C@_1M@HFFAHKAD@?$AAp?$AAt?$AA?9?$AAP?$AAT@ 10024698     libucrt:lcidtoname_downlevel.obj
 0002:000046a4       ??_C@_1BG@LNOAKHIE@?$AAs?$AAr?$AA?9?$AAS?$AAP?$AA?9?$AAL?$AAa?$AAt?$AAn@ 100246a4     libucrt:lcidtoname_downlevel.obj
 0002:000046bc       ??_C@_1M@HBMHBGAK@?$AAs?$AAv?$AA?9?$AAF?$AAI@ 100246bc     libucrt:lcidtoname_downlevel.obj
 0002:000046c8       ??_C@_1BG@DGCJGJBE@?$AAa?$AAz?$AA?9?$AAA?$AAZ?$AA?9?$AAC?$AAy?$AAr?$AAl@ 100246c8     libucrt:lcidtoname_downlevel.obj
 0002:000046e0       ??_C@_1M@KEJDAAHB@?$AAs?$AAe?$AA?9?$AAS?$AAE@ 100246e0     libucrt:lcidtoname_downlevel.obj
 0002:000046ec       ??_C@_1M@HEIBJJAD@?$AAm?$AAs?$AA?9?$AAB?$AAN@ 100246ec     libucrt:lcidtoname_downlevel.obj
 0002:000046f8       ??_C@_1BG@PBGJMCEM@?$AAu?$AAz?$AA?9?$AAU?$AAZ?$AA?9?$AAC?$AAy?$AAr?$AAl@ 100246f8     libucrt:lcidtoname_downlevel.obj
 0002:00004710       ??_C@_1O@LAOBCMDF@?$AAq?$AAu?$AAz?$AA?9?$AAE?$AAC@ 10024710     libucrt:lcidtoname_downlevel.obj
 0002:00004720       ??_C@_1M@POEEMAIO@?$AAa?$AAr?$AA?9?$AAE?$AAG@ 10024720     libucrt:lcidtoname_downlevel.obj
 0002:0000472c       ??_C@_1M@EFAKDEDL@?$AAz?$AAh?$AA?9?$AAH?$AAK@ 1002472c     libucrt:lcidtoname_downlevel.obj
 0002:00004738       ??_C@_1M@HKKIJHGI@?$AAd?$AAe?$AA?9?$AAA?$AAT@ 10024738     libucrt:lcidtoname_downlevel.obj
 0002:00004744       ??_C@_1M@KBFBEHJF@?$AAe?$AAn?$AA?9?$AAA?$AAU@ 10024744     libucrt:lcidtoname_downlevel.obj
 0002:00004750       ??_C@_1M@MNPLFAAH@?$AAe?$AAs?$AA?9?$AAE?$AAS@ 10024750     libucrt:lcidtoname_downlevel.obj
 0002:0000475c       ??_C@_1M@HJOOJFMA@?$AAf?$AAr?$AA?9?$AAC?$AAA@ 1002475c     libucrt:lcidtoname_downlevel.obj
 0002:00004768       ??_C@_1BG@JPOFPNAB@?$AAs?$AAr?$AA?9?$AAS?$AAP?$AA?9?$AAC?$AAy?$AAr?$AAl@ 10024768     libucrt:lcidtoname_downlevel.obj
 0002:00004780       ??_C@_1M@LNFOCMOB@?$AAs?$AAe?$AA?9?$AAF?$AAI@ 10024780     libucrt:lcidtoname_downlevel.obj
 0002:0000478c       ??_C@_1O@MGJBOAMB@?$AAq?$AAu?$AAz?$AA?9?$AAP?$AAE@ 1002478c     libucrt:lcidtoname_downlevel.obj
 0002:0000479c       ??_C@_1M@GJINLBOK@?$AAa?$AAr?$AA?9?$AAL?$AAY@ 1002479c     libucrt:lcidtoname_downlevel.obj
 0002:000047a8       ??_C@_1M@GGMNHJNL@?$AAz?$AAh?$AA?9?$AAS?$AAG@ 100247a8     libucrt:lcidtoname_downlevel.obj
 0002:000047b4       ??_C@_1M@HOIKODND@?$AAd?$AAe?$AA?9?$AAL?$AAU@ 100247b4     libucrt:lcidtoname_downlevel.obj
 0002:000047c0       ??_C@_1M@DDOCCGFG@?$AAe?$AAn?$AA?9?$AAC?$AAA@ 100247c0     libucrt:lcidtoname_downlevel.obj
 0002:000047cc       ??_C@_1M@BNOEMJLF@?$AAe?$AAs?$AA?9?$AAG?$AAT@ 100247cc     libucrt:lcidtoname_downlevel.obj
 0002:000047d8       ??_C@_1M@EOGNKEK@?$AAf?$AAr?$AA?9?$AAC?$AAH@ 100247d8     libucrt:lcidtoname_downlevel.obj
 0002:000047e4       ??_C@_1M@FLIDJFHL@?$AAh?$AAr?$AA?9?$AAB?$AAA@ 100247e4     libucrt:lcidtoname_downlevel.obj
 0002:000047f0       ??_C@_1O@FMCELNAJ@?$AAs?$AAm?$AAj?$AA?9?$AAN?$AAO@ 100247f0     libucrt:lcidtoname_downlevel.obj
 0002:00004800       ??_C@_1M@JHGLJMGJ@?$AAa?$AAr?$AA?9?$AAD?$AAZ@ 10024800     libucrt:lcidtoname_downlevel.obj
 0002:0000480c       ??_C@_1M@JKKFDCNP@?$AAz?$AAh?$AA?9?$AAM?$AAO@ 1002480c     libucrt:lcidtoname_downlevel.obj
 0002:00004818       ??_C@_1M@GEEFALPE@?$AAd?$AAe?$AA?9?$AAL?$AAI@ 10024818     libucrt:lcidtoname_downlevel.obj
 0002:00004824       ??_C@_1M@IGEOFBG@?$AAe?$AAn?$AA?9?$AAN?$AAZ@ 10024824     libucrt:lcidtoname_downlevel.obj
 0002:00004830       ??_C@_1M@KDBONEHP@?$AAe?$AAs?$AA?9?$AAC?$AAR@ 10024830     libucrt:lcidtoname_downlevel.obj
 0002:0000483c       ??_C@_1M@FHMDOHNN@?$AAf?$AAr?$AA?9?$AAL?$AAU@ 1002483c     libucrt:lcidtoname_downlevel.obj
 0002:00004848       ??_C@_1BG@NFKKMAFG@?$AAb?$AAs?$AA?9?$AAB?$AAA?$AA?9?$AAL?$AAa?$AAt?$AAn@ 10024848     libucrt:lcidtoname_downlevel.obj
 0002:00004860       ??_C@_1O@IMNBEMCI@?$AAs?$AAm?$AAj?$AA?9?$AAS?$AAE@ 10024860     libucrt:lcidtoname_downlevel.obj
 0002:00004870       ??_C@_1M@DHHMBNDP@?$AAa?$AAr?$AA?9?$AAM?$AAA@ 10024870     libucrt:lcidtoname_downlevel.obj
 0002:0000487c       ??_C@_1M@BNBLJCGH@?$AAe?$AAn?$AA?9?$AAI?$AAE@ 1002487c     libucrt:lcidtoname_downlevel.obj
 0002:00004888       ??_C@_1M@GEPAFMDL@?$AAe?$AAs?$AA?9?$AAP?$AAA@ 10024888     libucrt:lcidtoname_downlevel.obj
 0002:00004894       ??_C@_1M@OJONDMDL@?$AAf?$AAr?$AA?9?$AAM?$AAC@ 10024894     libucrt:lcidtoname_downlevel.obj
 0002:000048a0       ??_C@_1BG@OBCNFJB@?$AAs?$AAr?$AA?9?$AAB?$AAA?$AA?9?$AAL?$AAa?$AAt?$AAn@ 100248a0     libucrt:lcidtoname_downlevel.obj
 0002:000048b8       ??_C@_1O@KEMEEGPO@?$AAs?$AAm?$AAa?$AA?9?$AAN?$AAO@ 100248b8     libucrt:lcidtoname_downlevel.obj
 0002:000048c8       ??_C@_1M@ELMGFODK@?$AAa?$AAr?$AA?9?$AAT?$AAN@ 100248c8     libucrt:lcidtoname_downlevel.obj
 0002:000048d4       ??_C@_1M@BHDLHFAF@?$AAe?$AAn?$AA?9?$AAZ?$AAA@ 100248d4     libucrt:lcidtoname_downlevel.obj
 0002:000048e0       ??_C@_1M@BMGIGLIF@?$AAe?$AAs?$AA?9?$AAD?$AAO@ 100248e0     libucrt:lcidtoname_downlevel.obj
 0002:000048ec       ??_C@_1BG@CMBHIPBE@?$AAs?$AAr?$AA?9?$AAB?$AAA?$AA?9?$AAC?$AAy?$AAr?$AAl@ 100248ec     libucrt:lcidtoname_downlevel.obj
 0002:00004904       ??_C@_1O@HEDBLHNP@?$AAs?$AAm?$AAa?$AA?9?$AAS?$AAE@ 10024904     libucrt:lcidtoname_downlevel.obj
 0002:00004914       ??_C@_1M@DAGCADIM@?$AAa?$AAr?$AA?9?$AAO?$AAM@ 10024914     libucrt:lcidtoname_downlevel.obj
 0002:00004920       ??_C@_1M@FODLMICG@?$AAe?$AAn?$AA?9?$AAJ?$AAM@ 10024920     libucrt:lcidtoname_downlevel.obj
 0002:0000492c       ??_C@_1M@DNMLCIHB@?$AAe?$AAs?$AA?9?$AAV?$AAE@ 1002492c     libucrt:lcidtoname_downlevel.obj
 0002:00004938       ??_C@_1O@EOKHMKJK@?$AAs?$AAm?$AAs?$AA?9?$AAF?$AAI@ 10024938     libucrt:lcidtoname_downlevel.obj
 0002:00004948       ??_C@_1M@CAFJMKOF@?$AAa?$AAr?$AA?9?$AAY?$AAE@ 10024948     libucrt:lcidtoname_downlevel.obj
 0002:00004954       ??_C@_1M@CBFHIJLI@?$AAe?$AAn?$AA?9?$AAC?$AAB@ 10024954     libucrt:lcidtoname_downlevel.obj
 0002:00004960       ??_C@_1M@BGNFLDN@?$AAe?$AAs?$AA?9?$AAC?$AAO@ 10024960     libucrt:lcidtoname_downlevel.obj
 0002:0000496c       ??_C@_1O@JMPHMAMC@?$AAs?$AAm?$AAn?$AA?9?$AAF?$AAI@ 1002496c     libucrt:lcidtoname_downlevel.obj
 0002:0000497c       ??_C@_1M@JLANABKE@?$AAa?$AAr?$AA?9?$AAS?$AAY@ 1002497c     libucrt:lcidtoname_downlevel.obj
 0002:00004988       ??_C@_1M@HPKGCFGN@?$AAe?$AAn?$AA?9?$AAB?$AAZ@ 10024988     libucrt:lcidtoname_downlevel.obj
 0002:00004994       ??_C@_1M@OLJCMLGM@?$AAe?$AAs?$AA?9?$AAP?$AAE@ 10024994     libucrt:lcidtoname_downlevel.obj
 0002:000049a0       ??_C@_1M@MKKGFKLE@?$AAa?$AAr?$AA?9?$AAJ?$AAO@ 100249a0     libucrt:lcidtoname_downlevel.obj
 0002:000049ac       ??_C@_1M@EKPGLDNI@?$AAe?$AAn?$AA?9?$AAT?$AAT@ 100249ac     libucrt:lcidtoname_downlevel.obj
 0002:000049b8       ??_C@_1M@OONGHFHE@?$AAe?$AAs?$AA?9?$AAA?$AAR@ 100249b8     libucrt:lcidtoname_downlevel.obj
 0002:000049c4       ??_C@_1M@OOJFGBHE@?$AAa?$AAr?$AA?9?$AAL?$AAB@ 100249c4     libucrt:lcidtoname_downlevel.obj
 0002:000049d0       ??_C@_1M@GCEJHNEG@?$AAe?$AAn?$AA?9?$AAZ?$AAW@ 100249d0     libucrt:lcidtoname_downlevel.obj
 0002:000049dc       ??_C@_1M@JNOCAHJI@?$AAe?$AAs?$AA?9?$AAE?$AAC@ 100249dc     libucrt:lcidtoname_downlevel.obj
 0002:000049e8       ??_C@_1M@JEFHPGGB@?$AAa?$AAr?$AA?9?$AAK?$AAW@ 100249e8     libucrt:lcidtoname_downlevel.obj
 0002:000049f4       ??_C@_1M@MLKIBJOJ@?$AAe?$AAn?$AA?9?$AAP?$AAH@ 100249f4     libucrt:lcidtoname_downlevel.obj
 0002:00004a00       ??_C@_1M@BDNIPEND@?$AAe?$AAs?$AA?9?$AAC?$AAL@ 10024a00     libucrt:lcidtoname_downlevel.obj
 0002:00004a0c       ??_C@_1M@MPNMEKBD@?$AAa?$AAr?$AA?9?$AAA?$AAE@ 10024a0c     libucrt:lcidtoname_downlevel.obj
 0002:00004a18       ??_C@_1M@KBJALCPI@?$AAe?$AAs?$AA?9?$AAU?$AAY@ 10024a18     libucrt:lcidtoname_downlevel.obj
 0002:00004a24       ??_C@_1M@LLCCOAGA@?$AAa?$AAr?$AA?9?$AAB?$AAH@ 10024a24     libucrt:lcidtoname_downlevel.obj
 0002:00004a30       ??_C@_1M@PBFNCDEL@?$AAe?$AAs?$AA?9?$AAP?$AAY@ 10024a30     libucrt:lcidtoname_downlevel.obj
 0002:00004a3c       ??_C@_1M@EDGINPNP@?$AAa?$AAr?$AA?9?$AAQ?$AAA@ 10024a3c     libucrt:lcidtoname_downlevel.obj
 0002:00004a48       ??_C@_1M@MKDBIIJI@?$AAe?$AAs?$AA?9?$AAB?$AAO@ 10024a48     libucrt:lcidtoname_downlevel.obj
 0002:00004a54       ??_C@_1M@CPKKEBLD@?$AAe?$AAs?$AA?9?$AAS?$AAV@ 10024a54     libucrt:lcidtoname_downlevel.obj
 0002:00004a60       ??_C@_1M@NDBGMMJL@?$AAe?$AAs?$AA?9?$AAH?$AAN@ 10024a60     libucrt:lcidtoname_downlevel.obj
 0002:00004a6c       ??_C@_1M@JIJIBHDP@?$AAe?$AAs?$AA?9?$AAN?$AAI@ 10024a6c     libucrt:lcidtoname_downlevel.obj
 0002:00004a78       ??_C@_1M@CGFMKEEK@?$AAe?$AAs?$AA?9?$AAP?$AAR@ 10024a78     libucrt:lcidtoname_downlevel.obj
 0002:00004a84       ??_C@_1O@ICJHKIIK@?$AAz?$AAh?$AA?9?$AAC?$AAH?$AAT@ 10024a84     libucrt:lcidtoname_downlevel.obj
 0002:00004a94       ??_C@_15CLNEJCE@?$AAs?$AAr@ 10024a94     libucrt:lcidtoname_downlevel.obj
 0002:000051c0       ??_C@_1M@KAHEKEIG@?$AAa?$AAf?$AA?9?$AAz?$AAa@ 100251c0     libucrt:lcidtoname_downlevel.obj
 0002:000051cc       ??_C@_1M@GIECOABL@?$AAa?$AAr?$AA?9?$AAa?$AAe@ 100251cc     libucrt:lcidtoname_downlevel.obj
 0002:000051d8       ??_C@_1M@BMLMEKGI@?$AAa?$AAr?$AA?9?$AAb?$AAh@ 100251d8     libucrt:lcidtoname_downlevel.obj
 0002:000051e4       ??_C@_1M@DAPFDGGB@?$AAa?$AAr?$AA?9?$AAd?$AAz@ 100251e4     libucrt:lcidtoname_downlevel.obj
 0002:000051f0       ??_C@_1M@FJNKGKIG@?$AAa?$AAr?$AA?9?$AAe?$AAg@ 100251f0     libucrt:lcidtoname_downlevel.obj
 0002:000051fc       ??_C@_1M@FLGKKCLO@?$AAa?$AAr?$AA?9?$AAi?$AAq@ 100251fc     libucrt:lcidtoname_downlevel.obj
 0002:00005208       ??_C@_1M@GNDIPALM@?$AAa?$AAr?$AA?9?$AAj?$AAo@ 10025208     libucrt:lcidtoname_downlevel.obj
 0002:00005214       ??_C@_1M@DDMJFMGJ@?$AAa?$AAr?$AA?9?$AAk?$AAw@ 10025214     libucrt:lcidtoname_downlevel.obj
 0002:00005220       ??_C@_1M@EJALMLHM@?$AAa?$AAr?$AA?9?$AAl?$AAb@ 10025220     libucrt:lcidtoname_downlevel.obj
 0002:0000522c       ??_C@_1M@MOBDBLOC@?$AAa?$AAr?$AA?9?$AAl?$AAy@ 1002522c     libucrt:lcidtoname_downlevel.obj
 0002:00005238       ??_C@_1M@JAOCLHDH@?$AAa?$AAr?$AA?9?$AAm?$AAa@ 10025238     libucrt:lcidtoname_downlevel.obj
 0002:00005244       ??_C@_1M@JHPMKJIE@?$AAa?$AAr?$AA?9?$AAo?$AAm@ 10025244     libucrt:lcidtoname_downlevel.obj
 0002:00005250       ??_C@_1M@OEPGHFNH@?$AAa?$AAr?$AA?9?$AAq?$AAa@ 10025250     libucrt:lcidtoname_downlevel.obj
 0002:0000525c       ??_C@_1M@KJDONENM@?$AAa?$AAr?$AA?9?$AAs?$AAa@ 1002525c     libucrt:lcidtoname_downlevel.obj
 0002:00005268       ??_C@_1M@DMJDKLKM@?$AAa?$AAr?$AA?9?$AAs?$AAy@ 10025268     libucrt:lcidtoname_downlevel.obj
 0002:00005274       ??_C@_1M@OMFIPEDC@?$AAa?$AAr?$AA?9?$AAt?$AAn@ 10025274     libucrt:lcidtoname_downlevel.obj
 0002:00005280       ??_C@_1M@IHMHGAON@?$AAa?$AAr?$AA?9?$AAy?$AAe@ 10025280     libucrt:lcidtoname_downlevel.obj
 0002:0000528c       ??_C@_1BG@KDCPGJGB@?$AAa?$AAz?$AA?9?$AAa?$AAz?$AA?9?$AAc?$AAy?$AAr?$AAl@ 1002528c     libucrt:lcidtoname_downlevel.obj
 0002:000052a4       ??_C@_1BG@IBCKDDOE@?$AAa?$AAz?$AA?9?$AAa?$AAz?$AA?9?$AAl?$AAa?$AAt?$AAn@ 100252a4     libucrt:lcidtoname_downlevel.obj
 0002:000052bc       ??_C@_1M@EGPFDCPD@?$AAb?$AAe?$AA?9?$AAb?$AAy@ 100252bc     libucrt:lcidtoname_downlevel.obj
 0002:000052c8       ??_C@_1M@PCMGMCGC@?$AAb?$AAg?$AA?9?$AAb?$AAg@ 100252c8     libucrt:lcidtoname_downlevel.obj
 0002:000052d4       ??_C@_1M@BJBMFGOB@?$AAb?$AAn?$AA?9?$AAi?$AAn@ 100252d4     libucrt:lcidtoname_downlevel.obj
 0002:000052e0       ??_C@_1BG@EAKMMACD@?$AAb?$AAs?$AA?9?$AAb?$AAa?$AA?9?$AAl?$AAa?$AAt?$AAn@ 100252e0     libucrt:lcidtoname_downlevel.obj
 0002:000052f8       ??_C@_1M@KGADAODK@?$AAc?$AAa?$AA?9?$AAe?$AAs@ 100252f8     libucrt:lcidtoname_downlevel.obj
 0002:00005304       ??_C@_1M@COAJPDHI@?$AAc?$AAs?$AA?9?$AAc?$AAz@ 10025304     libucrt:lcidtoname_downlevel.obj
 0002:00005310       ??_C@_1M@DHBHFONH@?$AAc?$AAy?$AA?9?$AAg?$AAb@ 10025310     libucrt:lcidtoname_downlevel.obj
 0002:0000531c       ??_C@_1M@IMGKELGA@?$AAd?$AAa?$AA?9?$AAd?$AAk@ 1002531c     libucrt:lcidtoname_downlevel.obj
 0002:00005328       ??_C@_1M@NNDGDNGA@?$AAd?$AAe?$AA?9?$AAa?$AAt@ 10025328     libucrt:lcidtoname_downlevel.obj
 0002:00005334       ??_C@_1M@IKDBHEEM@?$AAd?$AAe?$AA?9?$AAc?$AAh@ 10025334     libucrt:lcidtoname_downlevel.obj
 0002:00005340       ??_C@_1M@GFFOJMCJ@?$AAd?$AAe?$AA?9?$AAd?$AAe@ 10025340     libucrt:lcidtoname_downlevel.obj
 0002:0000534c       ??_C@_1M@MDNLKBPM@?$AAd?$AAe?$AA?9?$AAl?$AAi@ 1002534c     libucrt:lcidtoname_downlevel.obj
 0002:00005358       ??_C@_1M@NJBEEJNL@?$AAd?$AAe?$AA?9?$AAl?$AAu@ 10025358     libucrt:lcidtoname_downlevel.obj
 0002:00005364       ??_C@_1O@GNNELBAP@?$AAd?$AAi?$AAv?$AA?9?$AAm?$AAv@ 10025364     libucrt:lcidtoname_downlevel.obj
 0002:00005374       ??_C@_1M@EJLEOGAE@?$AAe?$AAl?$AA?9?$AAg?$AAr@ 10025374     libucrt:lcidtoname_downlevel.obj
 0002:00005380       ??_C@_1M@GMPONJN@?$AAe?$AAn?$AA?9?$AAa?$AAu@ 10025380     libucrt:lcidtoname_downlevel.obj
 0002:0000538c       ??_C@_1M@NIDIIPGF@?$AAe?$AAn?$AA?9?$AAb?$AAz@ 1002538c     libucrt:lcidtoname_downlevel.obj
 0002:00005398       ??_C@_1M@JEHMIMFO@?$AAe?$AAn?$AA?9?$AAc?$AAa@ 10025398     libucrt:lcidtoname_downlevel.obj
 0002:000053a4       ??_C@_1M@IGMJCDLA@?$AAe?$AAn?$AA?9?$AAc?$AAb@ 100253a4     libucrt:lcidtoname_downlevel.obj
 0002:000053b0       ??_C@_1M@BNFIGBKG@?$AAe?$AAn?$AA?9?$AAg?$AAb@ 100253b0     libucrt:lcidtoname_downlevel.obj
 0002:000053bc       ??_C@_1M@LKIFDIGP@?$AAe?$AAn?$AA?9?$AAi?$AAe@ 100253bc     libucrt:lcidtoname_downlevel.obj
 0002:000053c8       ??_C@_1M@PJKFGCCO@?$AAe?$AAn?$AA?9?$AAj?$AAm@ 100253c8     libucrt:lcidtoname_downlevel.obj
 0002:000053d4       ??_C@_1M@KPPKEPBO@?$AAe?$AAn?$AA?9?$AAn?$AAz@ 100253d4     libucrt:lcidtoname_downlevel.obj
 0002:000053e0       ??_C@_1M@GMDGLDOB@?$AAe?$AAn?$AA?9?$AAp?$AAh@ 100253e0     libucrt:lcidtoname_downlevel.obj
 0002:000053ec       ??_C@_1M@ONGIBJNA@?$AAe?$AAn?$AA?9?$AAt?$AAt@ 100253ec     libucrt:lcidtoname_downlevel.obj
 0002:000053f8       ??_C@_1M@LLODPCMM@?$AAe?$AAn?$AA?9?$AAu?$AAs@ 100253f8     libucrt:lcidtoname_downlevel.obj
 0002:00005404       ??_C@_1M@LAKFNPAN@?$AAe?$AAn?$AA?9?$AAz?$AAa@ 10025404     libucrt:lcidtoname_downlevel.obj
 0002:00005410       ??_C@_1M@MFNHNHEO@?$AAe?$AAn?$AA?9?$AAz?$AAw@ 10025410     libucrt:lcidtoname_downlevel.obj
 0002:0000541c       ??_C@_1M@EJEINPHM@?$AAe?$AAs?$AA?9?$AAa?$AAr@ 1002541c     libucrt:lcidtoname_downlevel.obj
 0002:00005428       ??_C@_1M@GNKPCCJA@?$AAe?$AAs?$AA?9?$AAb?$AAo@ 10025428     libucrt:lcidtoname_downlevel.obj
 0002:00005434       ??_C@_1M@LEEGFONL@?$AAe?$AAs?$AA?9?$AAc?$AAl@ 10025434     libucrt:lcidtoname_downlevel.obj
 0002:00005440       ??_C@_1M@KGPDPBDF@?$AAe?$AAs?$AA?9?$AAc?$AAo@ 10025440     libucrt:lcidtoname_downlevel.obj
 0002:0000544c       ??_C@_1M@EIAHOHH@?$AAe?$AAs?$AA?9?$AAc?$AAr@ 1002544c     libucrt:lcidtoname_downlevel.obj
 0002:00005458       ??_C@_1M@LLPGMBIN@?$AAe?$AAs?$AA?9?$AAd?$AAo@ 10025458     libucrt:lcidtoname_downlevel.obj
 0002:00005464       ??_C@_1M@DKHMKNJA@?$AAe?$AAs?$AA?9?$AAe?$AAc@ 10025464     libucrt:lcidtoname_downlevel.obj
 0002:00005470       ??_C@_1M@GKGFPKAP@?$AAe?$AAs?$AA?9?$AAe?$AAs@ 10025470     libucrt:lcidtoname_downlevel.obj
 0002:0000547c       ??_C@_1M@LKHKGDLN@?$AAe?$AAs?$AA?9?$AAg?$AAt@ 1002547c     libucrt:lcidtoname_downlevel.obj
 0002:00005488       ??_C@_1M@HEIIGGJD@?$AAe?$AAs?$AA?9?$AAh?$AAn@ 10025488     libucrt:lcidtoname_downlevel.obj
 0002:00005494       ??_C@_1M@FBDHPPGD@?$AAe?$AAs?$AA?9?$AAm?$AAx@ 10025494     libucrt:lcidtoname_downlevel.obj
 0002:000054a0       ??_C@_1M@DPAGLNDH@?$AAe?$AAs?$AA?9?$AAn?$AAi@ 100254a0     libucrt:lcidtoname_downlevel.obj
 0002:000054ac       ??_C@_1M@MDGOPGDD@?$AAe?$AAs?$AA?9?$AAp?$AAa@ 100254ac     libucrt:lcidtoname_downlevel.obj
 0002:000054b8       ??_C@_1M@EMAMGBGE@?$AAe?$AAs?$AA?9?$AAp?$AAe@ 100254b8     libucrt:lcidtoname_downlevel.obj
 0002:000054c4       ??_C@_1M@IBMCAOEC@?$AAe?$AAs?$AA?9?$AAp?$AAr@ 100254c4     libucrt:lcidtoname_downlevel.obj
 0002:000054d0       ??_C@_1M@FGMDIJED@?$AAe?$AAs?$AA?9?$AAp?$AAy@ 100254d0     libucrt:lcidtoname_downlevel.obj
 0002:000054dc       ??_C@_1M@IIDEOLLL@?$AAe?$AAs?$AA?9?$AAs?$AAv@ 100254dc     libucrt:lcidtoname_downlevel.obj
 0002:000054e8       ??_C@_1M@GAOBIPA@?$AAe?$AAs?$AA?9?$AAu?$AAy@ 100254e8     libucrt:lcidtoname_downlevel.obj
 0002:000054f4       ??_C@_1M@JKFFICHJ@?$AAe?$AAs?$AA?9?$AAv?$AAe@ 100254f4     libucrt:lcidtoname_downlevel.obj
 0002:00005500       ??_C@_1M@PNMLOJDF@?$AAe?$AAt?$AA?9?$AAe?$AAe@ 10025500     libucrt:lcidtoname_downlevel.obj
 0002:0000550c       ??_C@_1M@GHHLIKEI@?$AAe?$AAu?$AA?9?$AAe?$AAs@ 1002550c     libucrt:lcidtoname_downlevel.obj
 0002:00005518       ??_C@_1M@PBNONODE@?$AAf?$AAa?$AA?9?$AAi?$AAr@ 10025518     libucrt:lcidtoname_downlevel.obj
 0002:00005524       ??_C@_1M@JEEHPMIL@?$AAf?$AAi?$AA?9?$AAf?$AAi@ 10025524     libucrt:lcidtoname_downlevel.obj
 0002:00005530       ??_C@_1M@LMDCNDBA@?$AAf?$AAo?$AA?9?$AAf?$AAo@ 10025530     libucrt:lcidtoname_downlevel.obj
 0002:0000553c       ??_C@_1M@JKEOHLDK@?$AAf?$AAr?$AA?9?$AAb?$AAe@ 1002553c     libucrt:lcidtoname_downlevel.obj
 0002:00005548       ??_C@_1M@NOHADPMI@?$AAf?$AAr?$AA?9?$AAc?$AAa@ 10025548     libucrt:lcidtoname_downlevel.obj
 0002:00005554       ??_C@_1M@KDHIHAEC@?$AAf?$AAr?$AA?9?$AAc?$AAh@ 10025554     libucrt:lcidtoname_downlevel.obj
 0002:00005560       ??_C@_1M@MMBBFGAK@?$AAf?$AAr?$AA?9?$AAf?$AAr@ 10025560     libucrt:lcidtoname_downlevel.obj
 0002:0000556c       ??_C@_1M@PAFNENNF@?$AAf?$AAr?$AA?9?$AAl?$AAu@ 1002556c     libucrt:lcidtoname_downlevel.obj
 0002:00005578       ??_C@_1M@EOHDJGDD@?$AAf?$AAr?$AA?9?$AAm?$AAc@ 10025578     libucrt:lcidtoname_downlevel.obj
 0002:00005584       ??_C@_1M@FAPLLOPF@?$AAg?$AAl?$AA?9?$AAe?$AAs@ 10025584     libucrt:lcidtoname_downlevel.obj
 0002:00005590       ??_C@_1M@FOPBFLOO@?$AAg?$AAu?$AA?9?$AAi?$AAn@ 10025590     libucrt:lcidtoname_downlevel.obj
 0002:0000559c       ??_C@_1M@KBMCINPM@?$AAh?$AAe?$AA?9?$AAi?$AAl@ 1002559c     libucrt:lcidtoname_downlevel.obj
 0002:000055a8       ??_C@_1M@BBPHKFPJ@?$AAh?$AAi?$AA?9?$AAi?$AAn@ 100255a8     libucrt:lcidtoname_downlevel.obj
 0002:000055b4       ??_C@_1M@PMBNDPHD@?$AAh?$AAr?$AA?9?$AAb?$AAa@ 100255b4     libucrt:lcidtoname_downlevel.obj
 0002:000055c0       ??_C@_1M@BPCKOEGE@?$AAh?$AAr?$AA?9?$AAh?$AAr@ 100255c0     libucrt:lcidtoname_downlevel.obj
 0002:000055cc       ??_C@_1M@GACBMHKE@?$AAh?$AAu?$AA?9?$AAh?$AAu@ 100255cc     libucrt:lcidtoname_downlevel.obj
 0002:000055d8       ??_C@_1M@MILPAJJC@?$AAh?$AAy?$AA?9?$AAa?$AAm@ 100255d8     libucrt:lcidtoname_downlevel.obj
 0002:000055e4       ??_C@_1M@BABBICEC@?$AAi?$AAd?$AA?9?$AAi?$AAd@ 100255e4     libucrt:lcidtoname_downlevel.obj
 0002:000055f0       ??_C@_1M@BIKNHHPF@?$AAi?$AAs?$AA?9?$AAi?$AAs@ 100255f0     libucrt:lcidtoname_downlevel.obj
 0002:000055fc       ??_C@_1M@NMPCJPHE@?$AAi?$AAt?$AA?9?$AAc?$AAh@ 100255fc     libucrt:lcidtoname_downlevel.obj
 0002:00005608       ??_C@_1M@GHKGFEDF@?$AAi?$AAt?$AA?9?$AAi?$AAt@ 10025608     libucrt:lcidtoname_downlevel.obj
 0002:00005614       ??_C@_1M@NIEJCJJA@?$AAj?$AAa?$AA?9?$AAj?$AAp@ 10025614     libucrt:lcidtoname_downlevel.obj
 0002:00005620       ??_C@_1M@JILFNBIM@?$AAk?$AAa?$AA?9?$AAg?$AAe@ 10025620     libucrt:lcidtoname_downlevel.obj
 0002:0000562c       ??_C@_1M@PACPMGPH@?$AAk?$AAk?$AA?9?$AAk?$AAz@ 1002562c     libucrt:lcidtoname_downlevel.obj
 0002:00005638       ??_C@_1M@IELFGMHA@?$AAk?$AAn?$AA?9?$AAi?$AAn@ 10025638     libucrt:lcidtoname_downlevel.obj
 0002:00005644       ??_C@_1O@IBBJHCH@?$AAk?$AAo?$AAk?$AA?9?$AAi?$AAn@ 10025644     libucrt:lcidtoname_downlevel.obj
 0002:00005654       ??_C@_1M@DMHAEOGC@?$AAk?$AAo?$AA?9?$AAk?$AAr@ 10025654     libucrt:lcidtoname_downlevel.obj
 0002:00005660       ??_C@_1M@HBAHBIGA@?$AAk?$AAy?$AA?9?$AAk?$AAg@ 10025660     libucrt:lcidtoname_downlevel.obj
 0002:0000566c       ??_C@_1M@KPMILCJG@?$AAl?$AAt?$AA?9?$AAl?$AAt@ 1002566c     libucrt:lcidtoname_downlevel.obj
 0002:00005678       ??_C@_1M@BDEKKCA@?$AAl?$AAv?$AA?9?$AAl?$AAv@ 10025678     libucrt:lcidtoname_downlevel.obj
 0002:00005684       ??_C@_1M@ELCKCCJJ@?$AAm?$AAi?$AA?9?$AAn?$AAz@ 10025684     libucrt:lcidtoname_downlevel.obj
 0002:00005690       ??_C@_1M@CBOOLAPA@?$AAm?$AAk?$AA?9?$AAm?$AAk@ 10025690     libucrt:lcidtoname_downlevel.obj
 0002:0000569c       ??_C@_1M@GPHNBJKN@?$AAm?$AAl?$AA?9?$AAi?$AAn@ 1002569c     libucrt:lcidtoname_downlevel.obj
 0002:000056a8       ??_C@_1M@PABJILIG@?$AAm?$AAn?$AA?9?$AAm?$AAn@ 100256a8     libucrt:lcidtoname_downlevel.obj
 0002:000056b4       ??_C@_1M@FGBKKIPG@?$AAm?$AAr?$AA?9?$AAi?$AAn@ 100256b4     libucrt:lcidtoname_downlevel.obj
 0002:000056c0       ??_C@_1M@NDBPDDAL@?$AAm?$AAs?$AA?9?$AAb?$AAn@ 100256c0     libucrt:lcidtoname_downlevel.obj
 0002:000056cc       ??_C@_1M@OPIHOOPI@?$AAm?$AAs?$AA?9?$AAm?$AAy@ 100256cc     libucrt:lcidtoname_downlevel.obj
 0002:000056d8       ??_C@_1M@PPDBCNFM@?$AAm?$AAt?$AA?9?$AAm?$AAt@ 100256d8     libucrt:lcidtoname_downlevel.obj
 0002:000056e4       ??_C@_1M@KDJDKMDD@?$AAn?$AAb?$AA?9?$AAn?$AAo@ 100256e4     libucrt:lcidtoname_downlevel.obj
 0002:000056f0       ??_C@_1M@KFCFLMJP@?$AAn?$AAl?$AA?9?$AAb?$AAe@ 100256f0     libucrt:lcidtoname_downlevel.obj
 0002:000056fc       ??_C@_1M@KPOPDDGO@?$AAn?$AAl?$AA?9?$AAn?$AAl@ 100256fc     libucrt:lcidtoname_downlevel.obj
 0002:00005708       ??_C@_1M@LJKPEMLN@?$AAn?$AAn?$AA?9?$AAn?$AAo@ 10025708     libucrt:lcidtoname_downlevel.obj
 0002:00005714       ??_C@_1M@BDGHHBFL@?$AAn?$AAs?$AA?9?$AAz?$AAa@ 10025714     libucrt:lcidtoname_downlevel.obj
 0002:00005720       ??_C@_1M@IDEHOAP@?$AAp?$AAa?$AA?9?$AAi?$AAn@ 10025720     libucrt:lcidtoname_downlevel.obj
 0002:0000572c       ??_C@_1M@HDBKGOGH@?$AAp?$AAl?$AA?9?$AAp?$AAl@ 1002572c     libucrt:lcidtoname_downlevel.obj
 0002:00005738       ??_C@_1M@LJLLCMEH@?$AAp?$AAt?$AA?9?$AAb?$AAr@ 10025738     libucrt:lcidtoname_downlevel.obj
 0002:00005744       ??_C@_1M@NCMONAAL@?$AAp?$AAt?$AA?9?$AAp?$AAt@ 10025744     libucrt:lcidtoname_downlevel.obj
 0002:00005750       ??_C@_1O@EAKMAJDN@?$AAq?$AAu?$AAz?$AA?9?$AAb?$AAo@ 10025750     libucrt:lcidtoname_downlevel.obj
 0002:00005760       ??_C@_1O@BHHPIGDN@?$AAq?$AAu?$AAz?$AA?9?$AAe?$AAc@ 10025760     libucrt:lcidtoname_downlevel.obj
 0002:00005770       ??_C@_1O@GBAPEKMJ@?$AAq?$AAu?$AAz?$AA?9?$AAp?$AAe@ 10025770     libucrt:lcidtoname_downlevel.obj
 0002:00005780       ??_C@_1M@CLGLEFBO@?$AAr?$AAo?$AA?9?$AAr?$AAo@ 10025780     libucrt:lcidtoname_downlevel.obj
 0002:0000578c       ??_C@_1M@CEEDODME@?$AAr?$AAu?$AA?9?$AAr?$AAu@ 1002578c     libucrt:lcidtoname_downlevel.obj
 0002:00005798       ??_C@_1M@HPKKKMPP@?$AAs?$AAa?$AA?9?$AAi?$AAn@ 10025798     libucrt:lcidtoname_downlevel.obj
 0002:000057a4       ??_C@_1M@BKMAIGOJ@?$AAs?$AAe?$AA?9?$AAf?$AAi@ 100257a4     libucrt:lcidtoname_downlevel.obj
 0002:000057b0       ??_C@_1M@NDPIFLFI@?$AAs?$AAe?$AA?9?$AAn?$AAo@ 100257b0     libucrt:lcidtoname_downlevel.obj
 0002:000057bc       ??_C@_1M@DANKKHJ@?$AAs?$AAe?$AA?9?$AAs?$AAe@ 100257bc     libucrt:lcidtoname_downlevel.obj
 0002:000057c8       ??_C@_1M@PNBLONPJ@?$AAs?$AAk?$AA?9?$AAs?$AAk@ 100257c8     libucrt:lcidtoname_downlevel.obj
 0002:000057d4       ??_C@_1M@LFMODOAL@?$AAs?$AAl?$AA?9?$AAs?$AAi@ 100257d4     libucrt:lcidtoname_downlevel.obj
 0002:000057e0       ??_C@_1O@DFKOMPG@?$AAs?$AAm?$AAa?$AA?9?$AAn?$AAo@ 100257e0     libucrt:lcidtoname_downlevel.obj
 0002:000057f0       ??_C@_1O@NDKPBNNH@?$AAs?$AAm?$AAa?$AA?9?$AAs?$AAe@ 100257f0     libucrt:lcidtoname_downlevel.obj
 0002:00005800       ??_C@_1O@PLLKBHAB@?$AAs?$AAm?$AAj?$AA?9?$AAn?$AAo@ 10025800     libucrt:lcidtoname_downlevel.obj
 0002:00005810       ??_C@_1O@CLEPOGCA@?$AAs?$AAm?$AAj?$AA?9?$AAs?$AAe@ 10025810     libucrt:lcidtoname_downlevel.obj
 0002:00005820       ??_C@_1O@DLGJGKMK@?$AAs?$AAm?$AAn?$AA?9?$AAf?$AAi@ 10025820     libucrt:lcidtoname_downlevel.obj
 0002:00005830       ??_C@_1O@OJDJGAJC@?$AAs?$AAm?$AAs?$AA?9?$AAf?$AAi@ 10025830     libucrt:lcidtoname_downlevel.obj
 0002:00005840       ??_C@_1M@BOFOGHPB@?$AAs?$AAq?$AA?9?$AAa?$AAl@ 10025840     libucrt:lcidtoname_downlevel.obj
 0002:0000584c       ??_C@_1BG@LJBBIPGB@?$AAs?$AAr?$AA?9?$AAb?$AAa?$AA?9?$AAc?$AAy?$AAr?$AAl@ 1002584c     libucrt:lcidtoname_downlevel.obj
 0002:00005864       ??_C@_1BG@JLBENFOE@?$AAs?$AAr?$AA?9?$AAb?$AAa?$AA?9?$AAl?$AAa?$AAt?$AAn@ 10025864     libucrt:lcidtoname_downlevel.obj
 0002:0000587c       ??_C@_1BG@KODPNHE@?$AAs?$AAr?$AA?9?$AAs?$AAp?$AA?9?$AAc?$AAy?$AAr?$AAl@ 1002587c     libucrt:lcidtoname_downlevel.obj
 0002:00005894       ??_C@_1BG@CIOGKHPB@?$AAs?$AAr?$AA?9?$AAs?$AAp?$AA?9?$AAl?$AAa?$AAt?$AAn@ 10025894     libucrt:lcidtoname_downlevel.obj
 0002:000058ac       ??_C@_1M@NGFJLMAC@?$AAs?$AAv?$AA?9?$AAf?$AAi@ 100258ac     libucrt:lcidtoname_downlevel.obj
 0002:000058b8       ??_C@_1M@MPJEJAJC@?$AAs?$AAv?$AA?9?$AAs?$AAe@ 100258b8     libucrt:lcidtoname_downlevel.obj
 0002:000058c4       ??_C@_1M@MPNDHLFK@?$AAs?$AAw?$AA?9?$AAk?$AAe@ 100258c4     libucrt:lcidtoname_downlevel.obj
 0002:000058d0       ??_C@_1O@KOHBJJI@?$AAs?$AAy?$AAr?$AA?9?$AAs?$AAy@ 100258d0     libucrt:lcidtoname_downlevel.obj
 0002:000058e0       ??_C@_1M@LDCEFHA@?$AAt?$AAa?$AA?9?$AAi?$AAn@ 100258e0     libucrt:lcidtoname_downlevel.obj
 0002:000058ec       ??_C@_1M@CNJOFAK@?$AAt?$AAe?$AA?9?$AAi?$AAn@ 100258ec     libucrt:lcidtoname_downlevel.obj
 0002:000058f8       ??_C@_1M@GNAECACD@?$AAt?$AAh?$AA?9?$AAt?$AAh@ 100258f8     libucrt:lcidtoname_downlevel.obj
 0002:00005904       ??_C@_1M@CHBIHOJO@?$AAt?$AAn?$AA?9?$AAz?$AAa@ 10025904     libucrt:lcidtoname_downlevel.obj
 0002:00005910       ??_C@_1M@GCCMIGPJ@?$AAt?$AAr?$AA?9?$AAt?$AAr@ 10025910     libucrt:lcidtoname_downlevel.obj
 0002:0000591c       ??_C@_1M@CELMCNBK@?$AAt?$AAt?$AA?9?$AAr?$AAu@ 1002591c     libucrt:lcidtoname_downlevel.obj
 0002:00005928       ??_C@_1M@KLMCELGA@?$AAu?$AAk?$AA?9?$AAu?$AAa@ 10025928     libucrt:lcidtoname_downlevel.obj
 0002:00005934       ??_C@_1M@EPAJJAJF@?$AAu?$AAr?$AA?9?$AAp?$AAk@ 10025934     libucrt:lcidtoname_downlevel.obj
 0002:00005940       ??_C@_1BG@GEGPMCDJ@?$AAu?$AAz?$AA?9?$AAu?$AAz?$AA?9?$AAc?$AAy?$AAr?$AAl@ 10025940     libucrt:lcidtoname_downlevel.obj
 0002:00005958       ??_C@_1BG@EGGKJILM@?$AAu?$AAz?$AA?9?$AAu?$AAz?$AA?9?$AAl?$AAa?$AAt?$AAn@ 10025958     libucrt:lcidtoname_downlevel.obj
 0002:00005970       ??_C@_1M@GFOCLFF@?$AAv?$AAi?$AA?9?$AAv?$AAn@ 10025970     libucrt:lcidtoname_downlevel.obj
 0002:0000597c       ??_C@_1M@CPAMEDFI@?$AAx?$AAh?$AA?9?$AAz?$AAa@ 1002597c     libucrt:lcidtoname_downlevel.obj
 0002:00005988       ??_C@_1O@EBKIFIGN@?$AAz?$AAh?$AA?9?$AAc?$AAh?$AAs@ 10025988     libucrt:lcidtoname_downlevel.obj
 0002:00005998       ??_C@_1O@NMHPGANE@?$AAz?$AAh?$AA?9?$AAc?$AAh?$AAt@ 10025998     libucrt:lcidtoname_downlevel.obj
 0002:000059a8       ??_C@_1M@LPINJOMC@?$AAz?$AAh?$AA?9?$AAc?$AAn@ 100259a8     libucrt:lcidtoname_downlevel.obj
 0002:000059b4       ??_C@_1M@OCJEJODD@?$AAz?$AAh?$AA?9?$AAh?$AAk@ 100259b4     libucrt:lcidtoname_downlevel.obj
 0002:000059c0       ??_C@_1M@DNDLJINH@?$AAz?$AAh?$AA?9?$AAm?$AAo@ 100259c0     libucrt:lcidtoname_downlevel.obj
 0002:000059cc       ??_C@_1M@MBFDNDND@?$AAz?$AAh?$AA?9?$AAs?$AAg@ 100259cc     libucrt:lcidtoname_downlevel.obj
 0002:000059d8       ??_C@_1M@IMEPLEPE@?$AAz?$AAh?$AA?9?$AAt?$AAw@ 100259d8     libucrt:lcidtoname_downlevel.obj
 0002:000059e4       ??_C@_1M@BBGHNHJP@?$AAz?$AAu?$AA?9?$AAz?$AAa@ 100259e4     libucrt:lcidtoname_downlevel.obj
 0002:000059f0       ?large_power_data@?1??multiply_by_power_of_ten@__crt_strtox@@YA_NAAUbig_integer@2@I@Z@4QBIB 100259f0     libucrt:cfout.obj
 0002:000062f8       ?large_power_indices@?1??multiply_by_power_of_ten@__crt_strtox@@YA_NAAUbig_integer@2@I@Z@4QBUunpack_index@?1??12@YA_N0I@Z@B 100262f8     libucrt:cfout.obj
 0002:00006390       ?small_powers_of_ten@?1??multiply_by_power_of_ten@__crt_strtox@@YA_NAAUbig_integer@2@I@Z@4QBIB 10026390     libucrt:cfout.obj
 0002:000063b4       ??_C@_01GBGANLPD@0@        100263b4     libucrt:cfout.obj
 0002:000063b8       ??_C@_05DNEBIAHO@1?$CDINF@ 100263b8     libucrt:cfout.obj
 0002:000063c0       ??_C@_06IMKFLFPG@1?$CDQNAN@ 100263c0     libucrt:cfout.obj
 0002:000063c8       ??_C@_06PGGFOGJG@1?$CDSNAN@ 100263c8     libucrt:cfout.obj
 0002:000063d0       ??_C@_05PHHOCPM@1?$CDIND@  100263d0     libucrt:cfout.obj
 0002:00006540       __infinity                 10026540     libucrt:87tran.obj
 0002:0000654a       __minfinity                1002654a     libucrt:87tran.obj
 0002:00006554       __logemax                  10026554     libucrt:87tran.obj
 0002:0000657a       __OP_EXPjmptab             1002657a     libucrt:87tran.obj
 0002:000065a0       __indefinite               100265a0     libucrt:87disp.obj
 0002:000065aa       __piby2                    100265aa     libucrt:87disp.obj
 0002:000065b4       __piby4                    100265b4     libucrt:87disp.obj
 0002:000065e8       __DEFAULT_CW_in_mem        100265e8     libucrt:common.obj
 0002:000065ea       __pi_by_2_to_61            100265ea     libucrt:common.obj
 0002:00006624       ??_C@_03MGHMBJCF@log@      10026624     libucrt:libm_error.obj
 0002:00006628       ??_C@_05HGHHAHAP@log10@    10026628     libucrt:libm_error.obj
 0002:00006630       ??_C@_03KHJOGHMM@exp@      10026630     libucrt:libm_error.obj
 0002:00006634       ??_C@_03JGHBODFD@pow@      10026634     libucrt:libm_error.obj
 0002:00006638       ??_C@_04FIHNOPOL@asin@     10026638     libucrt:libm_error.obj
 0002:00006640       ??_C@_04PDIFKINK@acos@     10026640     libucrt:libm_error.obj
 0002:00006648       ??_C@_04EIAKFFMI@sqrt@     10026648     libucrt:libm_error.obj
 0002:00006650       __real@3ff0000000000000    10026650     libucrt:libm_error.obj
 0002:00006658       ??_C@_1BA@BALFACEM@?$AAC?$AAO?$AAN?$AAO?$AAU?$AAT?$AA$@ 10026658     libucrt:initcon.obj
 0002:00006680       ___acrt_log10_table_t      10026680     libucrt:log10_tables.obj
 0002:00006a90       ___acrt_log10_table_cb     10026a90     libucrt:log10_tables.obj
 0002:00006ea0       __real@3fe0000000000000    10026ea0     libucrt:powhlp.obj
 0002:00006f90       ??_C@_04COOMCNPB@sinh@     10026f90     libucrt:fpexcept.obj
 0002:00006f98       ??_C@_04HPJJNFIM@cosh@     10026f98     libucrt:fpexcept.obj
 0002:00006fa0       ??_C@_04FJHINJAO@tanh@     10026fa0     libucrt:fpexcept.obj
 0002:00006fa8       ??_C@_04MLLJIGOK@atan@     10026fa8     libucrt:fpexcept.obj
 0002:00006fb0       ??_C@_05KNGEOGJB@atan2@    10026fb0     libucrt:fpexcept.obj
 0002:00006fb8       ??_C@_03BLEJJJBH@sin@      10026fb8     libucrt:fpexcept.obj
 0002:00006fbc       ??_C@_03LALBNOCG@cos@      10026fbc     libucrt:fpexcept.obj
 0002:00006fc0       ??_C@_03IIINPABG@tan@      10026fc0     libucrt:fpexcept.obj
 0002:00006fc4       ??_C@_04GFPJNGEK@ceil@     10026fc4     libucrt:fpexcept.obj
 0002:00006fcc       ??_C@_05PBJFFIGL@floor@    10026fcc     libucrt:fpexcept.obj
 0002:00006fd4       ??_C@_04ODHECPBC@fabs@     10026fd4     libucrt:fpexcept.obj
 0002:00006fdc       ??_C@_04EHEDPDJG@modf@     10026fdc     libucrt:fpexcept.obj
 0002:00006fe4       ??_C@_05CEJMAHNP@ldexp@    10026fe4     libucrt:fpexcept.obj
 0002:00006fec       ??_C@_05KBKMEMPO@_cabs@    10026fec     libucrt:fpexcept.obj
 0002:00006ff4       ??_C@_06MEIMCGCF@_hypot@   10026ff4     libucrt:fpexcept.obj
 0002:00006ffc       ??_C@_04KEPJIHGP@fmod@     10026ffc     libucrt:fpexcept.obj
 0002:00007004       ??_C@_05GKKHEGJL@frexp@    10027004     libucrt:fpexcept.obj
 0002:0000700c       ??_C@_03MJLDFKDL@_y0@      1002700c     libucrt:fpexcept.obj
 0002:00007010       ??_C@_03NAKIGLHK@_y1@      10027010     libucrt:fpexcept.obj
 0002:00007014       ??_C@_03ONILCKOB@_yn@      10027014     libucrt:fpexcept.obj
 0002:00007018       ??_C@_05JGDBENOH@_logb@    10027018     libucrt:fpexcept.obj
 0002:00007020       ??_C@_0L@KDOEJCKC@_nextafter@ 10027020     libucrt:fpexcept.obj
 0002:00007030       __d_inf                    10027030     libucrt:util.obj
 0002:00007038       __d_max                    10027038     libucrt:util.obj
 0002:00007040       __d_mzero                  10027040     libucrt:util.obj
 0002:000070b0       __load_config_used         100270b0     LIBCMT:loadcfg.obj
 0002:00007180       __tls_used                 10027180     LIBCMT:tlssup.obj
 0002:00007198       ??_R4exception@std@@6B@    10027198     LIBCMT:throw_bad_alloc.obj
 0002:000071ac       ??_R3exception@std@@8      100271ac     LIBCMT:throw_bad_alloc.obj
 0002:000071bc       ??_R2exception@std@@8      100271bc     LIBCMT:throw_bad_alloc.obj
 0002:000071c4       ??_R1A@?0A@EA@exception@std@@8 100271c4     LIBCMT:throw_bad_alloc.obj
 0002:000071e0       ??_R4bad_alloc@std@@6B@    100271e0     LIBCMT:throw_bad_alloc.obj
 0002:000071f4       ??_R3bad_alloc@std@@8      100271f4     LIBCMT:throw_bad_alloc.obj
 0002:00007204       ??_R2bad_alloc@std@@8      10027204     LIBCMT:throw_bad_alloc.obj
 0002:00007210       ??_R1A@?0A@EA@bad_alloc@std@@8 10027210     LIBCMT:throw_bad_alloc.obj
 0002:0000722c       ??_R4bad_array_new_length@std@@6B@ 1002722c     LIBCMT:throw_bad_alloc.obj
 0002:00007240       ??_R3bad_array_new_length@std@@8 10027240     LIBCMT:throw_bad_alloc.obj
 0002:00007250       ??_R2bad_array_new_length@std@@8 10027250     LIBCMT:throw_bad_alloc.obj
 0002:00007260       ??_R1A@?0A@EA@bad_array_new_length@std@@8 10027260     LIBCMT:throw_bad_alloc.obj
 0002:0000727c       ??_R4type_info@@6B@        1002727c     LIBCMT:std_type_info_static.obj
 0002:00007290       ??_R3type_info@@8          10027290     LIBCMT:std_type_info_static.obj
 0002:000072a0       ??_R2type_info@@8          100272a0     LIBCMT:std_type_info_static.obj
 0002:000072a8       ??_R1A@?0A@EA@type_info@@8 100272a8     LIBCMT:std_type_info_static.obj
 0002:000072c4       ??_R4bad_exception@std@@6B@ 100272c4     libvcruntime:frame.obj
 0002:000072d8       ??_R3bad_exception@std@@8  100272d8     libvcruntime:frame.obj
 0002:000072e8       ??_R2bad_exception@std@@8  100272e8     libvcruntime:frame.obj
 0002:000072f4       ??_R1A@?0A@EA@bad_exception@std@@8 100272f4     libvcruntime:frame.obj
 0002:00007310       ___safe_se_handler_table   10027310     <linker-defined>
 0002:0000733c       ___volatile_metadata       1002733c     <linker-defined>
 0002:00007778       ___rtc_iaa                 10027778     LIBCMT:initsect.obj
 0002:0000777c       ___rtc_izz                 1002777c     LIBCMT:initsect.obj
 0002:00007780       ___rtc_taa                 10027780     LIBCMT:initsect.obj
 0002:00007784       ___rtc_tzz                 10027784     LIBCMT:initsect.obj
 0002:00007788       __tls_start                10027788     LIBCMT:tlssup.obj
 0002:0000778c       __Init_thread_epoch        1002778c     LIBCMT:thread_safe_statics.obj
 0002:00007790       __tls_end                  10027790     LIBCMT:tlssup.obj
 0002:00007894       __TI2?AVbad_alloc@std@@    10027894     LIBCMT:throw_bad_alloc.obj
 0002:000078a4       __CTA2?AVbad_alloc@std@@   100278a4     LIBCMT:throw_bad_alloc.obj
 0002:000078b0       __CT??_R0?AVbad_alloc@std@@@8??0bad_alloc@std@@QAE@ABV01@@Z12 100278b0     LIBCMT:throw_bad_alloc.obj
 0002:000078cc       __CT??_R0?AVexception@std@@@8??0exception@std@@QAE@ABV01@@Z12 100278cc     LIBCMT:throw_bad_alloc.obj
 0002:000078e8       __TI3?AVbad_array_new_length@std@@ 100278e8     LIBCMT:throw_bad_alloc.obj
 0002:000078f8       __CTA3?AVbad_array_new_length@std@@ 100278f8     LIBCMT:throw_bad_alloc.obj
 0002:00007908       __CT??_R0?AVbad_array_new_length@std@@@8??0bad_array_new_length@std@@QAE@ABV01@@Z12 10027908     LIBCMT:throw_bad_alloc.obj
 0002:00007a2c       __TI2?AVbad_exception@std@@ 10027a2c     libvcruntime:frame.obj
 0002:00007a3c       __CTA2?AVbad_exception@std@@ 10027a3c     libvcruntime:frame.obj
 0002:00007a48       __CT??_R0?AVbad_exception@std@@@8??0bad_exception@std@@QAE@ABV01@@Z12 10027a48     libvcruntime:frame.obj
 0002:00007e74       ___pobjMapEntryFirst       10027e74     OposVariant.obj
 0002:00007e78       ___pobjMapEntryLast        10027e78     OposVariant.obj
 0002:00007f30       __IMPORT_DESCRIPTOR_KERNEL32 10027f30     kernel32:KERNEL32.dll
 0002:00007f44       __IMPORT_DESCRIPTOR_USER32 10027f44     user32:USER32.dll
 0002:00007f58       __IMPORT_DESCRIPTOR_GDI32  10027f58     gdi32:GDI32.dll
 0002:00007f6c       __IMPORT_DESCRIPTOR_ADVAPI32 10027f6c     advapi32:ADVAPI32.dll
 0002:00007f80       __IMPORT_DESCRIPTOR_ole32  10027f80     ole32:ole32.dll
 0002:00007f94       __IMPORT_DESCRIPTOR_OLEAUT32 10027f94     oleaut32:OLEAUT32.dll
 0002:00007fa8       __NULL_IMPORT_DESCRIPTOR   10027fa8     kernel32:KERNEL32.dll
 0003:00000000       ?rcDefault@CWindow@ATL@@2UtagRECT@@A 10029000     SoundRecorder.obj
 0003:00000010       ?s_Claim@?7??GetIDsOfNames@CComTypeInfoHolder@ATL@@QAEJABU_GUID@@PAPA_WIKPAJ@Z@4PA_WA 10029010     SoundRecorder.obj
 0003:00000028       ?s_Release@?7??GetIDsOfNames@CComTypeInfoHolder@ATL@@QAEJABU_GUID@@PAPA_WIKPAJ@Z@4PA_WA 10029028     SoundRecorder.obj
 0003:00000044       ?_tih@?$IDispatchImpl@UIOPOSSoundRecorder@@$1?IID_IOPOSSoundRecorder@@3U_GUID@@B$1?LIBID_OposSoundRecorder_CCO@@3U3@B$00$0A@VCComTypeInfoHolder@ATL@@@ATL@@1VCComTypeInfoHolder@2@A 10029044     SoundRecorder.obj
 0003:00000060       ?_tih@?$IProvideClassInfo2Impl@$1?CLSID_OPOSSoundRecorder@@3U_GUID@@B$1?DIID__IOPOSSoundRecorderEvents@@3U2@B$1?LIBID_OposSoundRecorder_CCO@@3U2@B$00$0A@VCComTypeInfoHolder@ATL@@@ATL@@1VCComTypeInfoHolder@2@A 10029060     SoundRecorder.obj
 0003:0000007c       ?vszContents@?6??Save@?$IPersistStorageImpl@VCOPOSSoundRecorder@@@ATL@@UAGJPAUIStorage@@H@Z@4PB_WB 1002907c     SoundRecorder.obj
 0003:00000080       ?wc@?1??GetWndClassInfo@?$CWindowImpl@VCOPOSSoundRecorder@@VCWindow@ATL@@V?$CWinTraits@$0FGAAAAAA@$0A@@3@@ATL@@SAAAU_ATL_WNDCLASSINFOW@3@XZ@4U43@A 10029080     SoundRecorder.obj
 0003:00000158       ?g_WindowName@@3PA_WA      10029158     SoundRecorderImpl.obj
 0003:00000184       ?g_ControlDescription@@3PADA 10029184     SoundRecorderImpl.obj
 0003:000001b8       ?g_ControlVersion@@3JA     100291b8     SoundRecorderImpl.obj
 0003:00000214       ___scrt_native_dllmain_reason 10029214     LIBCMT:utility.obj
 0003:00000218       __Init_global_epoch        10029218     LIBCMT:thread_safe_statics.obj
 0003:00000220       ___security_cookie_complement 10029220     LIBCMT:gs_cookie.obj
 0003:00000224       ___security_cookie         10029224     LIBCMT:gs_cookie.obj
 0003:00000228       ___isa_enabled             10029228     LIBCMT:cpu_disp.obj
 0003:00000240       __NLG_Destination          10029240     libvcruntime:exsup.obj
 0003:00000258       ___abort_behavior          10029258     libucrt:abort.obj
 0003:00000268       ___acrt_initial_locale_data 10029268     libucrt:nlsdata.obj
 0003:00000320       ___acrt_initial_locale_pointers 10029320     libucrt:nlsdata.obj
 0003:00000328       ___acrt_wide_c_locale_string 10029328     libucrt:nlsdata.obj
 0003:00000330       __iob                      10029330     libucrt:_file.obj
 0003:000003d8       ___acrt_initial_multibyte_data 100293d8     libucrt:mbctype.obj
 0003:000008f8       ___acrt_lconv_c            100298f8     libucrt:localeconv.obj
 0003:00000948       ___acrt_lconv_static_decimal 10029948     libucrt:localeconv.obj
 0003:0000094c       ___acrt_lconv_static_W_decimal 1002994c     libucrt:localeconv.obj
 0003:00000950       ___globallocalestatus      10029950     libucrt:glstatus.obj
 0003:00000960       __lookuptrailbytes         10029960     libucrt:read.obj
 0003:00000a70       __fltused                  10029a70     LIBCMT:fltused.obj
 0003:00000a80       ??_R0?AVbad_alloc@std@@@8  10029a80     LIBCMT:throw_bad_alloc.obj
 0003:00000a9c       ??_R0?AVexception@std@@@8  10029a9c     LIBCMT:throw_bad_alloc.obj
 0003:00000ab8       ??_R0?AVbad_array_new_length@std@@@8 10029ab8     LIBCMT:throw_bad_alloc.obj
 0003:00000ae0       ??_R0?AVbad_exception@std@@@8 10029ae0     libvcruntime:frame.obj
 0003:00000b00       ??_R0?AVtype_info@@@8      10029b00     LIBCMT:std_type_info_static.obj
 0003:00000b18       ?m_bInitFailed@CAtlBaseModule@ATL@@2_NA 10029b18     OposVariant.obj
 0003:00000b1c       ?_pPerfRegFunc@ATL@@3P6AJPAUHINSTANCE__@@@ZA 10029b1c     OposVariant.obj
 0003:00000b20       ?_pPerfUnRegFunc@ATL@@3P6AJXZA 10029b20     OposVariant.obj
 0003:00000b24       ?_AtlRegisterPerUser@ATL@@3_NA 10029b24     OposVariant.obj
 0003:00000b28       ?_pAtlModule@ATL@@3PAVCAtlModule@1@A 10029b28     OposVariant.obj
 0003:00000b2c       ?_pModule@ATL@@3PAVCComModule@1@A 10029b2c     OposVariant.obj
 0003:00000b30       ?_AtlComModule@ATL@@3VCAtlComModule@1@A 10029b30     OposVariant.obj
 0003:00000b58       ?_AtlWinModule@ATL@@3VCAtlWinModule@1@A 10029b58     OposVariant.obj
 0003:00000b84       ?m_libid@CAtlModule@ATL@@2U_GUID@@A 10029b84     SoundRecorder.obj
 0003:00000b94       ?_entries@?1??GetConnMap@COPOSSoundRecorder@@SAPBU_ATL_CONNMAP_ENTRY@ATL@@PAH@Z@4QBU34@B 10029b94     SoundRecorder.obj
 0003:00000ba0       ?$TSS0@?1??GetConnMap@COPOSSoundRecorder@@SAPBU_ATL_CONNMAP_ENTRY@ATL@@PAH@Z@4HA 10029ba0     SoundRecorder.obj
 0003:00000ba8       ?_OptionsStorage@?1??__local_stdio_printf_options@@9@4_KA 10029ba8     SoundRecorder.obj
 0003:00000bb0       ?pfnRegDeleteKeyEx@?1??DeleteSubKey@CRegKey@ATL@@QAEJPB_W@Z@4P6GJPAUHKEY__@@0KK@ZA 10029bb0     SoundRecorder.obj
 0003:00000bb4       ?bInitialized@?1??DeleteSubKey@CRegKey@ATL@@QAEJPB_W@Z@4_NA 10029bb4     SoundRecorder.obj
 0003:00000bb8       ?_Module@@3VCComModule@ATL@@A 10029bb8     SoundRecorder.obj
 0003:00000be8       ?pConnMap@?$IConnectionPointContainerImpl@VCOPOSSoundRecorder@@@ATL@@0PBU_ATL_CONNMAP_ENTRY@2@B 10029be8     SoundRecorder.obj
 0003:00000bec       ?s_nInstances@COPOSSoundRecorder@@1HA 10029bec     SoundRecorderImpl.obj
 0003:00000bf0       ___scrt_current_native_startup_state 10029bf0     LIBCMT:utility.obj
 0003:00000bf4       ___scrt_native_startup_lock 10029bf4     LIBCMT:utility.obj
 0003:00000f5c       __tls_index                10029f5c     LIBCMT:tlssup.obj
 0003:00000f64       ___isa_available           10029f64     LIBCMT:cpu_disp.obj
 0003:00000f68       ___favor                   10029f68     LIBCMT:cpu_disp.obj
 0003:00000f6c       ___scrt_debugger_hook_flag 10029f6c     LIBCMT:utility_desktop.obj
 0003:00000f70       ?__type_info_root_node@@3U__type_info_node@@A 10029f70     LIBCMT:tncleanup.obj
 0003:00000f78       ?_OptionsStorage@?1??__local_stdio_scanf_options@@9@4_KA 10029f78     LIBCMT:default_local_stdio_options.obj
 0003:00000f80       ?_AtlBaseModule@ATL@@3VCAtlBaseModule@1@A 10029f80     atls:atlbase.obj
 0003:00000fb8       ?__AtlThunkPool@@3PAT_SLIST_HEADER@@A 10029fb8     atls:atlthunk.obj
 0003:00000fd0       ___@@_PchSym_@00@UzABUPdlipUBAUhUrmgvinvwrzgvUexgllohUzgohOmzgrevkilqPBACIAJCBDBUlyqiUcIGUhgwzucOlyq@4B2008FD98C1DD4 10029fd0     atls:stdafx.obj
 0003:00000fd4       ?__WinRTOutOfMemoryExceptionCallback@@3P6GPAXXZA 10029fd4     libvcruntime:ehhelpers.obj
 0003:00000fd8       ___pPurecall               10029fd8     libvcruntime:purevirt_data.obj
 0003:00001020       ?m_pGetParameter@UnDecorator@@0P6APADJ@ZA 1002a020     libvcruntime:undname.obj
 0003:00001024       ?m_CHPENameOffset@UnDecorator@@0KA 1002a024     libvcruntime:undname.obj
 0003:00001028       ?m_recursionLevel@UnDecorator@@0KA 1002a028     libvcruntime:undname.obj
 0003:0000102c       ?pArgList@UnDecorator@@0PAVReplicator@@A 1002a02c     libvcruntime:undname.obj
 0003:00001030       ?pZNameList@UnDecorator@@0PAVReplicator@@A 1002a030     libvcruntime:undname.obj
 0003:00001034       ?pTemplateArgList@UnDecorator@@0PAVReplicator@@A 1002a034     libvcruntime:undname.obj
 0003:00001038       ?gName@UnDecorator@@0PBDB  1002a038     libvcruntime:undname.obj
 0003:0000103c       ?name@UnDecorator@@0PBDB   1002a03c     libvcruntime:undname.obj
 0003:00001040       ?disableFlags@UnDecorator@@0KA 1002a040     libvcruntime:undname.obj
 0003:00001044       ?fExplicitTemplateParams@UnDecorator@@0_NA 1002a044     libvcruntime:undname.obj
 0003:00001045       ?fGetTemplateArgumentList@UnDecorator@@0_NA 1002a045     libvcruntime:undname.obj
 0003:00001088       ?c_exit_complete@?1???R<lambda_6e4b09c48022b2350581041d5f6b0c4c>@@QBE@XZ@4_NA 1002a088     libucrt:exit.obj
 0003:00001198       __environ_table            1002a198     libucrt:environment_initialization.obj
 0003:0000119c       __wenviron_table           1002a19c     libucrt:environment_initialization.obj
 0003:000011a0       ___dcrt_initial_wide_environment 1002a1a0     libucrt:environment_initialization.obj
 0003:000011a4       ___dcrt_initial_narrow_environment 1002a1a4     libucrt:environment_initialization.obj
 0003:000011a8       ___acrt_atexit_table       1002a1a8     libucrt:onexit.obj
 0003:000011b4       ___acrt_at_quick_exit_table 1002a1b4     libucrt:onexit.obj
 0003:000011c4       ___acrt_locale_changed_data 1002a1c4     libucrt:wsetlocale.obj
 0003:000011c8       ___acrt_current_locale_data 1002a1c8     libucrt:nlsdata.obj
 0003:000012b0       __nstream                  1002a2b0     libucrt:_file.obj
 0003:000012b4       ___piob                    1002a2b4     libucrt:_file.obj
 0003:000012bc       ___acrt_stdout_buffer      1002a2bc     libucrt:_sftbuf.obj
 0003:000012c0       ___acrt_stderr_buffer      1002a2c0     libucrt:_sftbuf.obj
 0003:000012c8       ___pioinfo                 1002a2c8     libucrt:ioinit.obj
 0003:000014c8       __nhandle                  1002a4c8     libucrt:ioinit.obj
 0003:00001624       __mbctype                  1002a624     libucrt:mbctype.obj
 0003:00001628       __mbcasemap                1002a628     libucrt:mbctype.obj
 0003:0000162c       ___acrt_current_multibyte_data 1002a62c     libucrt:mbctype.obj
 0003:00001638       __pgmptr                   1002a638     libucrt:argv_data.obj
 0003:0000163c       ___argc                    1002a63c     libucrt:argv_data.obj
 0003:00001640       ___argv                    1002a640     libucrt:argv_data.obj
 0003:00001644       ___wargv                   1002a644     libucrt:argv_data.obj
 0003:00001648       __acmdln                   1002a648     libucrt:argv_data.obj
 0003:0000164c       __wcmdln                   1002a64c     libucrt:argv_data.obj
 0003:00001650       ___acrt_heap               1002a650     libucrt:heap_handle.obj
 0003:00001668       ___acrt_lconv_static_null  1002a668     libucrt:localeconv.obj
 0003:0000166c       ___acrt_lconv_static_W_null 1002a66c     libucrt:localeconv.obj
 0003:00001680       ___fastflag                1002a680     libucrt:fp_flags.obj
 0003:00001688       ___dyn_tls_init_callback   1002a688     <common>
 0003:0000168c       ___scrt_ucrt_dll_is_in_use 1002a68c     <common>
 0003:00001690       __pmatherr                 1002a690     <common>
 0003:00001694       ___use_sse2_mathfcns       1002a694     <common>

 entry point at        0001:0000bfbb

 Static symbols

 0000:fffce000       .debug$S                   10000000     OPOSSoundRecorder.exp
 0000:fffce000       .debug$S                   10000000     advapi32:ADVAPI32.dll
 0000:fffce000       .debug$S                   10000000     advapi32:ADVAPI32.dll
 0000:fffce000       .debug$S                   10000000     advapi32:ADVAPI32.dll
 0000:fffce000       .debug$S                   10000000     advapi32:ADVAPI32.dll
 0000:fffce000       .debug$S                   10000000     advapi32:ADVAPI32.dll
 0000:fffce000       .debug$S                   10000000     advapi32:ADVAPI32.dll
 0000:fffce000       .debug$S                   10000000     advapi32:ADVAPI32.dll
 0000:fffce000       .debug$S                   10000000     advapi32:ADVAPI32.dll
 0000:fffce000       .debug$S                   10000000     advapi32:ADVAPI32.dll
 0000:fffce000       .debug$S                   10000000     gdi32:GDI32.dll
 0000:fffce000       .debug$S                   10000000     gdi32:GDI32.dll
 0000:fffce000       .debug$S                   10000000     gdi32:GDI32.dll
 0000:fffce000       .debug$S                   10000000     gdi32:GDI32.dll
 0000:fffce000       .debug$S                   10000000     gdi32:GDI32.dll
 0000:fffce000       .debug$S                   10000000     gdi32:GDI32.dll
 0000:fffce000       .debug$S                   10000000     gdi32:GDI32.dll
 0000:fffce000       .debug$S                   10000000     gdi32:GDI32.dll
 0000:fffce000       .debug$S                   10000000     gdi32:GDI32.dll
 0000:fffce000       .debug$S                   10000000     gdi32:GDI32.dll
 0000:fffce000       .debug$S                   10000000     gdi32:GDI32.dll
 0000:fffce000       .debug$S                   10000000     gdi32:GDI32.dll
 0000:fffce000       .debug$S                   10000000     gdi32:GDI32.dll
 0000:fffce000       .debug$S                   10000000     gdi32:GDI32.dll
 0000:fffce000       .debug$S                   10000000     gdi32:GDI32.dll
 0000:fffce000       .debug$S                   10000000     gdi32:GDI32.dll
 0000:fffce000       .debug$S                   10000000     gdi32:GDI32.dll
 0000:fffce000       .debug$S                   10000000     gdi32:GDI32.dll
 0000:fffce000       .debug$S                   10000000     gdi32:GDI32.dll
 0000:fffce000       .debug$S                   10000000     kernel32:KERNEL32.dll
 0000:fffce000       .debug$S                   10000000     kernel32:KERNEL32.dll
 0000:fffce000       .debug$S                   10000000     kernel32:KERNEL32.dll
 0000:fffce000       .debug$S                   10000000     kernel32:KERNEL32.dll
 0000:fffce000       .debug$S                   10000000     kernel32:KERNEL32.dll
 0000:fffce000       .debug$S                   10000000     kernel32:KERNEL32.dll
 0000:fffce000       .debug$S                   10000000     kernel32:KERNEL32.dll
 0000:fffce000       .debug$S                   10000000     kernel32:KERNEL32.dll
 0000:fffce000       .debug$S                   10000000     kernel32:KERNEL32.dll
 0000:fffce000       .debug$S                   10000000     kernel32:KERNEL32.dll
 0000:fffce000       .debug$S                   10000000     kernel32:KERNEL32.dll
 0000:fffce000       .debug$S                   10000000     kernel32:KERNEL32.dll
 0000:fffce000       .debug$S                   10000000     kernel32:KERNEL32.dll
 0000:fffce000       .debug$S                   10000000     kernel32:KERNEL32.dll
 0000:fffce000       .debug$S                   10000000     kernel32:KERNEL32.dll
 0000:fffce000       .debug$S                   10000000     kernel32:KERNEL32.dll
 0000:fffce000       .debug$S                   10000000     kernel32:KERNEL32.dll
 0000:fffce000       .debug$S                   10000000     kernel32:KERNEL32.dll
 0000:fffce000       .debug$S                   10000000     kernel32:KERNEL32.dll
 0000:fffce000       .debug$S                   10000000     kernel32:KERNEL32.dll
 0000:fffce000       .debug$S                   10000000     kernel32:KERNEL32.dll
 0000:fffce000       .debug$S                   10000000     kernel32:KERNEL32.dll
 0000:fffce000       .debug$S                   10000000     kernel32:KERNEL32.dll
 0000:fffce000       .debug$S                   10000000     kernel32:KERNEL32.dll
 0000:fffce000       .debug$S                   10000000     kernel32:KERNEL32.dll
 0000:fffce000       .debug$S                   10000000     kernel32:KERNEL32.dll
 0000:fffce000       .debug$S                   10000000     kernel32:KERNEL32.dll
 0000:fffce000       .debug$S                   10000000     kernel32:KERNEL32.dll
 0000:fffce000       .debug$S                   10000000     kernel32:KERNEL32.dll
 0000:fffce000       .debug$S                   10000000     kernel32:KERNEL32.dll
 0000:fffce000       .debug$S                   10000000     kernel32:KERNEL32.dll
 0000:fffce000       .debug$S                   10000000     kernel32:KERNEL32.dll
 0000:fffce000       .debug$S                   10000000     kernel32:KERNEL32.dll
 0000:fffce000       .debug$S                   10000000     kernel32:KERNEL32.dll
 0000:fffce000       .debug$S                   10000000     kernel32:KERNEL32.dll
 0000:fffce000       .debug$S                   10000000     kernel32:KERNEL32.dll
 0000:fffce000       .debug$S                   10000000     kernel32:KERNEL32.dll
 0000:fffce000       .debug$S                   10000000     kernel32:KERNEL32.dll
 0000:fffce000       .debug$S                   10000000     kernel32:KERNEL32.dll
 0000:fffce000       .debug$S                   10000000     kernel32:KERNEL32.dll
 0000:fffce000       .debug$S                   10000000     kernel32:KERNEL32.dll
 0000:fffce000       .debug$S                   10000000     kernel32:KERNEL32.dll
 0000:fffce000       .debug$S                   10000000     kernel32:KERNEL32.dll
 0000:fffce000       .debug$S                   10000000     kernel32:KERNEL32.dll
 0000:fffce000       .debug$S                   10000000     kernel32:KERNEL32.dll
 0000:fffce000       .debug$S                   10000000     kernel32:KERNEL32.dll
 0000:fffce000       .debug$S                   10000000     kernel32:KERNEL32.dll
 0000:fffce000       .debug$S                   10000000     kernel32:KERNEL32.dll
 0000:fffce000       .debug$S                   10000000     kernel32:KERNEL32.dll
 0000:fffce000       .debug$S                   10000000     kernel32:KERNEL32.dll
 0000:fffce000       .debug$S                   10000000     kernel32:KERNEL32.dll
 0000:fffce000       .debug$S                   10000000     kernel32:KERNEL32.dll
 0000:fffce000       .debug$S                   10000000     kernel32:KERNEL32.dll
 0000:fffce000       .debug$S                   10000000     kernel32:KERNEL32.dll
 0000:fffce000       .debug$S                   10000000     kernel32:KERNEL32.dll
 0000:fffce000       .debug$S                   10000000     kernel32:KERNEL32.dll
 0000:fffce000       .debug$S                   10000000     kernel32:KERNEL32.dll
 0000:fffce000       .debug$S                   10000000     kernel32:KERNEL32.dll
 0000:fffce000       .debug$S                   10000000     kernel32:KERNEL32.dll
 0000:fffce000       .debug$S                   10000000     kernel32:KERNEL32.dll
 0000:fffce000       .debug$S                   10000000     kernel32:KERNEL32.dll
 0000:fffce000       .debug$S                   10000000     kernel32:KERNEL32.dll
 0000:fffce000       .debug$S                   10000000     kernel32:KERNEL32.dll
 0000:fffce000       .debug$S                   10000000     kernel32:KERNEL32.dll
 0000:fffce000       .debug$S                   10000000     kernel32:KERNEL32.dll
 0000:fffce000       .debug$S                   10000000     kernel32:KERNEL32.dll
 0000:fffce000       .debug$S                   10000000     kernel32:KERNEL32.dll
 0000:fffce000       .debug$S                   10000000     kernel32:KERNEL32.dll
 0000:fffce000       .debug$S                   10000000     kernel32:KERNEL32.dll
 0000:fffce000       .debug$S                   10000000     kernel32:KERNEL32.dll
 0000:fffce000       .debug$S                   10000000     kernel32:KERNEL32.dll
 0000:fffce000       .debug$S                   10000000     kernel32:KERNEL32.dll
 0000:fffce000       .debug$S                   10000000     kernel32:KERNEL32.dll
 0000:fffce000       .debug$S                   10000000     kernel32:KERNEL32.dll
 0000:fffce000       .debug$S                   10000000     kernel32:KERNEL32.dll
 0000:fffce000       .debug$S                   10000000     kernel32:KERNEL32.dll
 0000:fffce000       .debug$S                   10000000     kernel32:KERNEL32.dll
 0000:fffce000       .debug$S                   10000000     kernel32:KERNEL32.dll
 0000:fffce000       .debug$S                   10000000     kernel32:KERNEL32.dll
 0000:fffce000       .debug$S                   10000000     kernel32:KERNEL32.dll
 0000:fffce000       .debug$S                   10000000     kernel32:KERNEL32.dll
 0000:fffce000       .debug$S                   10000000     kernel32:KERNEL32.dll
 0000:fffce000       .debug$S                   10000000     kernel32:KERNEL32.dll
 0000:fffce000       .debug$S                   10000000     kernel32:KERNEL32.dll
 0000:fffce000       .debug$S                   10000000     kernel32:KERNEL32.dll
 0000:fffce000       .debug$S                   10000000     kernel32:KERNEL32.dll
 0000:fffce000       .debug$S                   10000000     kernel32:KERNEL32.dll
 0000:fffce000       .debug$S                   10000000     kernel32:KERNEL32.dll
 0000:fffce000       .debug$S                   10000000     kernel32:KERNEL32.dll
 0000:fffce000       .debug$S                   10000000     kernel32:KERNEL32.dll
 0000:fffce000       .debug$S                   10000000     kernel32:KERNEL32.dll
 0000:fffce000       .debug$S                   10000000     kernel32:KERNEL32.dll
 0000:fffce000       .debug$S                   10000000     kernel32:KERNEL32.dll
 0000:fffce000       .debug$S                   10000000     kernel32:KERNEL32.dll
 0000:fffce000       .debug$S                   10000000     kernel32:KERNEL32.dll
 0000:fffce000       .debug$S                   10000000     kernel32:KERNEL32.dll
 0000:fffce000       .debug$S                   10000000     kernel32:KERNEL32.dll
 0000:fffce000       .debug$S                   10000000     kernel32:KERNEL32.dll
 0000:fffce000       .debug$S                   10000000     kernel32:KERNEL32.dll
 0000:fffce000       .debug$S                   10000000     kernel32:KERNEL32.dll
 0000:fffce000       .debug$S                   10000000     kernel32:KERNEL32.dll
 0000:fffce000       .debug$S                   10000000     kernel32:KERNEL32.dll
 0000:fffce000       .debug$S                   10000000     kernel32:KERNEL32.dll
 0000:fffce000       .debug$S                   10000000     kernel32:KERNEL32.dll
 0000:fffce000       .debug$S                   10000000     kernel32:KERNEL32.dll
 0000:fffce000       .debug$S                   10000000     kernel32:KERNEL32.dll
 0000:fffce000       .debug$S                   10000000     ole32:ole32.dll
 0000:fffce000       .debug$S                   10000000     ole32:ole32.dll
 0000:fffce000       .debug$S                   10000000     ole32:ole32.dll
 0000:fffce000       .debug$S                   10000000     ole32:ole32.dll
 0000:fffce000       .debug$S                   10000000     ole32:ole32.dll
 0000:fffce000       .debug$S                   10000000     ole32:ole32.dll
 0000:fffce000       .debug$S                   10000000     ole32:ole32.dll
 0000:fffce000       .debug$S                   10000000     ole32:ole32.dll
 0000:fffce000       .debug$S                   10000000     ole32:ole32.dll
 0000:fffce000       .debug$S                   10000000     ole32:ole32.dll
 0000:fffce000       .debug$S                   10000000     ole32:ole32.dll
 0000:fffce000       .debug$S                   10000000     ole32:ole32.dll
 0000:fffce000       .debug$S                   10000000     ole32:ole32.dll
 0000:fffce000       .debug$S                   10000000     ole32:ole32.dll
 0000:fffce000       .debug$S                   10000000     oleaut32:OLEAUT32.dll
 0000:fffce000       .debug$S                   10000000     oleaut32:OLEAUT32.dll
 0000:fffce000       .debug$S                   10000000     oleaut32:OLEAUT32.dll
 0000:fffce000       .debug$S                   10000000     oleaut32:OLEAUT32.dll
 0000:fffce000       .debug$S                   10000000     oleaut32:OLEAUT32.dll
 0000:fffce000       .debug$S                   10000000     oleaut32:OLEAUT32.dll
 0000:fffce000       .debug$S                   10000000     oleaut32:OLEAUT32.dll
 0000:fffce000       .debug$S                   10000000     oleaut32:OLEAUT32.dll
 0000:fffce000       .debug$S                   10000000     oleaut32:OLEAUT32.dll
 0000:fffce000       .debug$S                   10000000     oleaut32:OLEAUT32.dll
 0000:fffce000       .debug$S                   10000000     oleaut32:OLEAUT32.dll
 0000:fffce000       .debug$S                   10000000     oleaut32:OLEAUT32.dll
 0000:fffce000       .debug$S                   10000000     oleaut32:OLEAUT32.dll
 0000:fffce000       .debug$S                   10000000     oleaut32:OLEAUT32.dll
 0000:fffce000       .debug$S                   10000000     oleaut32:OLEAUT32.dll
 0000:fffce000       .debug$S                   10000000     oleaut32:OLEAUT32.dll
 0000:fffce000       .debug$S                   10000000     user32:USER32.dll
 0000:fffce000       .debug$S                   10000000     user32:USER32.dll
 0000:fffce000       .debug$S                   10000000     user32:USER32.dll
 0000:fffce000       .debug$S                   10000000     user32:USER32.dll
 0000:fffce000       .debug$S                   10000000     user32:USER32.dll
 0000:fffce000       .debug$S                   10000000     user32:USER32.dll
 0000:fffce000       .debug$S                   10000000     user32:USER32.dll
 0000:fffce000       .debug$S                   10000000     user32:USER32.dll
 0000:fffce000       .debug$S                   10000000     user32:USER32.dll
 0000:fffce000       .debug$S                   10000000     user32:USER32.dll
 0000:fffce000       .debug$S                   10000000     user32:USER32.dll
 0000:fffce000       .debug$S                   10000000     user32:USER32.dll
 0000:fffce000       .debug$S                   10000000     user32:USER32.dll
 0000:fffce000       .debug$S                   10000000     user32:USER32.dll
 0000:fffce000       .debug$S                   10000000     user32:USER32.dll
 0000:fffce000       .debug$S                   10000000     user32:USER32.dll
 0000:fffce000       .debug$S                   10000000     user32:USER32.dll
 0000:fffce000       .debug$S                   10000000     user32:USER32.dll
 0000:fffce000       .debug$S                   10000000     user32:USER32.dll
 0000:fffce000       .debug$S                   10000000     user32:USER32.dll
 0000:fffce000       .debug$S                   10000000     user32:USER32.dll
 0000:fffce000       .debug$S                   10000000     user32:USER32.dll
 0000:fffce000       .debug$S                   10000000     user32:USER32.dll
 0000:fffce000       .debug$S                   10000000     user32:USER32.dll
 0000:fffce000       .debug$S                   10000000     user32:USER32.dll
 0000:fffce000       .debug$S                   10000000     user32:USER32.dll
 0000:fffce000       .debug$S                   10000000     user32:USER32.dll
 0000:fffce000       .debug$S                   10000000     user32:USER32.dll
 0000:fffce000       .debug$S                   10000000     user32:USER32.dll
 0000:fffce000       .debug$S                   10000000     user32:USER32.dll
 0000:fffce000       .debug$S                   10000000     user32:USER32.dll
 0000:fffce000       .debug$S                   10000000     user32:USER32.dll
 0000:fffce000       .debug$S                   10000000     user32:USER32.dll
 0000:fffce000       .debug$S                   10000000     user32:USER32.dll
 0000:fffce000       .debug$S                   10000000     user32:USER32.dll
 0001:00000000       ??__E_AtlComModule@ATL@@YAXXZ 10001000 f   OposVariant.obj
 0001:00000016       ??__E_AtlWinModule@ATL@@YAXXZ 10001016 f   OposVariant.obj
 0001:0000002c       ??__E?pConnMap@?$IConnectionPointContainerImpl@VCOPOSSoundRecorder@@@ATL@@0PBU_ATL_CONNMAP_ENTRY@2@B@@YAXXZ 1000102c f   SoundRecorder.obj
 0001:0000003a       ??__E_Module@@YAXXZ        1000103a f   SoundRecorder.obj
 0001:00000064       ??__E_AtlBaseModule@ATL@@YAXXZ 10001064 f   atls:atlbase.obj
 0001:0000139c       $LN24                      1000239c     SoundRecorder.obj
 0001:00004751       $LN31                      10005751     SoundRecorder.obj
 0001:00004755       $LN30                      10005755     SoundRecorder.obj
 0001:00005930       $LN60                      10006930     SoundRecorder.obj
 0001:00005948       $LN59                      10006948     SoundRecorder.obj
 0001:00007aea       $LN50                      10008aea     SoundRecorder.obj
 0001:00007b02       $LN49                      10008b02     SoundRecorder.obj
 0001:000091c9       $LN88                      1000a1c9     SoundRecorder.obj
 0001:000091e1       $LN87                      1000a1e1     SoundRecorder.obj
 0001:000095a1       _memcpy_s                  1000a5a1 f   SoundRecorder.obj
 0001:0000b454       ?find_pe_section@@YAPAU_IMAGE_SECTION_HEADER@@QAEI@Z 1000c454 f   LIBCMT:utility.obj
 0001:0000b773       ?__scrt_initialize_thread_safe_statics@@YAHXZ 1000c773 f   LIBCMT:thread_safe_statics.obj
 0001:0000b79a       ?__scrt_initialize_thread_safe_statics_platform_specific@@YAXXZ 1000c79a f   LIBCMT:thread_safe_statics.obj
 0001:0000b81c       ?__scrt_uninitialize_thread_safe_statics@@YAXXZ 1000c81c f   LIBCMT:thread_safe_statics.obj
 0001:0000bb8d       __catch$??2@YAPAXIABUnothrow_t@std@@@Z$0 1000cb8d f   LIBCMT:new_scalar_nothrow.obj
 0001:0000bbd0       $$000000                   1000cbd0     LIBCMT:sehprolg4gs.obj
 0001:0000bc20       $$000000                   1000cc20     LIBCMT:alloca16.obj
 0001:0000bc36       alloca_8                   1000cc36     LIBCMT:alloca16.obj
 0001:0000bc50       $$000000                   1000cc50     LIBCMT:chkstk.obj
 0001:0000bc64       cs10                       1000cc64     LIBCMT:chkstk.obj
 0001:0000bc72       cs20                       1000cc72     LIBCMT:chkstk.obj
 0001:0000bc7b       ?dllmain_crt_dispatch@@YGHQAUHINSTANCE__@@KQAX@Z 1000cc7b f   LIBCMT:dll_dllmain.obj
 0001:0000bcce       ?dllmain_crt_process_attach@@YAHQAUHINSTANCE__@@QAX@Z 1000ccce f   LIBCMT:dll_dllmain.obj
 0001:0000bdd5       ?dllmain_crt_process_detach@@YAH_N@Z 1000cdd5 f   LIBCMT:dll_dllmain.obj
 0001:0000be85       ?dllmain_dispatch@@YAHQAUHINSTANCE__@@KQAX@Z 1000ce85 f   LIBCMT:dll_dllmain.obj
 0001:0000bf90       ?dllmain_raw@@YGHQAUHINSTANCE__@@KQAX@Z 1000cf90 f   LIBCMT:dll_dllmain.obj
 0001:0000c320       $$000000                   1000d320     LIBCMT:sehprolg4.obj
 0001:0000c368       ___get_entropy             1000d368 f   LIBCMT:gs_support.obj
 0001:0000c65f       ??$GetProcAddressAll@P6GP6GJPAUHWND__@@IIJ@ZPAUAtlThunkData_t@@@Z@@YAP6GP6GJPAUHWND__@@IIJ@ZPAUAtlThunkData_t@@@ZPAP6GP6GJ0IIJ@Z1@Z@Z 1000d65f f   atls:atlthunk.obj
 0001:0000c65f       ??$GetProcAddressAll@P6GPAUAtlThunkData_t@@XZ@@YAP6GPAUAtlThunkData_t@@XZPAP6GPAU0@XZ@Z 1000d65f f   atls:atlthunk.obj
 0001:0000c65f       ??$GetProcAddressAll@P6GXPAUAtlThunkData_t@@@Z@@YAP6GXPAUAtlThunkData_t@@@ZPAP6GX0@Z@Z 1000d65f f   atls:atlthunk.obj
 0001:0000c65f       ??$GetProcAddressAll@P6GXPAUAtlThunkData_t@@PAXI@Z@@YAP6GXPAUAtlThunkData_t@@PAXI@ZPAP6GX01I@Z@Z 1000d65f f   atls:atlthunk.obj
 0001:0000c70f       ?GetProcAddressSingle@@YA_NPAUHINSTANCE__@@PBDPAPAX@Z 1000d70f f   atls:atlthunk.obj
 0001:0000c861       ?__InitializeThunkPool@@YAHXZ 1000d861 f   atls:atlthunk.obj
 0001:0000ccc0       _ValidateLocalCookies      1000dcc0 f   libvcruntime:chandler4.obj
 0001:0000e45a       $LN1250                    1000f45a     libvcruntime:memcmp.obj
 0001:0000e4e0       $$000000                   1000f4e0     libvcruntime:memcpy.obj
 0001:0000e4e0       $$000000                   1000f4e0     libvcruntime:memmove.obj
 0001:0000e500       CopyUp                     1000f500     libvcruntime:memcpy.obj
 0001:0000e500       CopyUp                     1000f500     libvcruntime:memmove.obj
 0001:0000e524       CopyUpLargeMov             1000f524     libvcruntime:memcpy.obj
 0001:0000e524       CopyUpLargeMov             1000f524     libvcruntime:memmove.obj
 0001:0000e537       CopyUpSSE2Check            1000f537     libvcruntime:memcpy.obj
 0001:0000e537       CopyUpSSE2Check            1000f537     libvcruntime:memmove.obj
 0001:0000e550       AtomChk                    1000f550     libvcruntime:memcpy.obj
 0001:0000e550       AtomChk                    1000f550     libvcruntime:memmove.obj
 0001:0000e576       PalignHead4                1000f576     libvcruntime:memcpy.obj
 0001:0000e576       PalignHead4                1000f576     libvcruntime:memmove.obj
 0001:0000e589       PalignHead8                1000f589     libvcruntime:memcpy.obj
 0001:0000e589       PalignHead8                1000f589     libvcruntime:memmove.obj
 0001:0000e5a0       PalignLoop                 1000f5a0     libvcruntime:memcpy.obj
 0001:0000e5a0       PalignLoop                 1000f5a0     libvcruntime:memmove.obj
 0001:0000e5b2       MovPalign12                1000f5b2     libvcruntime:memcpy.obj
 0001:0000e5b2       MovPalign12                1000f5b2     libvcruntime:memmove.obj
 0001:0000e5bc       PalignLoop12               1000f5bc     libvcruntime:memcpy.obj
 0001:0000e5bc       PalignLoop12               1000f5bc     libvcruntime:memmove.obj
 0001:0000e60d       MovPalign8                 1000f60d     libvcruntime:memcpy.obj
 0001:0000e60d       MovPalign8                 1000f60d     libvcruntime:memmove.obj
 0001:0000e618       PalignLoop8                1000f618     libvcruntime:memcpy.obj
 0001:0000e618       PalignLoop8                1000f618     libvcruntime:memmove.obj
 0001:0000e666       MovPalign4                 1000f666     libvcruntime:memcpy.obj
 0001:0000e666       MovPalign4                 1000f666     libvcruntime:memmove.obj
 0001:0000e670       PalignLoop4                1000f670     libvcruntime:memcpy.obj
 0001:0000e670       PalignLoop4                1000f670     libvcruntime:memmove.obj
 0001:0000e6bc       PalignTail                 1000f6bc     libvcruntime:memcpy.obj
 0001:0000e6bc       PalignTail                 1000f6bc     libvcruntime:memmove.obj
 0001:0000e6d4       PalignTail4                1000f6d4     libvcruntime:memcpy.obj
 0001:0000e6d4       PalignTail4                1000f6d4     libvcruntime:memmove.obj
 0001:0000e6e7       PalignTail8                1000f6e7     libvcruntime:memcpy.obj
 0001:0000e6e7       PalignTail8                1000f6e7     libvcruntime:memmove.obj
 0001:0000e6fe       PalignTailLE3              1000f6fe     libvcruntime:memcpy.obj
 0001:0000e6fe       PalignTailLE3              1000f6fe     libvcruntime:memmove.obj
 0001:0000e707       Dword_align                1000f707     libvcruntime:memcpy.obj
 0001:0000e707       Dword_align                1000f707     libvcruntime:memmove.obj
 0001:0000e70f       Dword_up_align_loop        1000f70f     libvcruntime:memcpy.obj
 0001:0000e70f       Dword_up_align_loop        1000f70f     libvcruntime:memmove.obj
 0001:0000e722       Dword_align_Ok             1000f722     libvcruntime:memcpy.obj
 0001:0000e722       Dword_align_Ok             1000f722     libvcruntime:memmove.obj
 0001:0000e73c       ByteCopyUp                 1000f73c     libvcruntime:memcpy.obj
 0001:0000e73c       ByteCopyUp                 1000f73c     libvcruntime:memmove.obj
 0001:0000e744       TrailingUpVec              1000f744     libvcruntime:memcpy.obj
 0001:0000e744       TrailingUpVec              1000f744     libvcruntime:memmove.obj
 0001:0000e754       TrailingUp0                1000f754     libvcruntime:memcpy.obj
 0001:0000e754       TrailingUp0                1000f754     libvcruntime:memmove.obj
 0001:0000e75c       TrailingUp1                1000f75c     libvcruntime:memcpy.obj
 0001:0000e75c       TrailingUp1                1000f75c     libvcruntime:memmove.obj
 0001:0000e768       TrailingUp2                1000f768     libvcruntime:memcpy.obj
 0001:0000e768       TrailingUp2                1000f768     libvcruntime:memmove.obj
 0001:0000e77c       TrailingUp3                1000f77c     libvcruntime:memcpy.obj
 0001:0000e77c       TrailingUp3                1000f77c     libvcruntime:memmove.obj
 0001:0000e794       CopyDown                   1000f794     libvcruntime:memcpy.obj
 0001:0000e794       CopyDown                   1000f794     libvcruntime:memmove.obj
 0001:0000e7b9       CopyDownNotAligned         1000f7b9     libvcruntime:memcpy.obj
 0001:0000e7b9       CopyDownNotAligned         1000f7b9     libvcruntime:memmove.obj
 0001:0000e7c0       CopyDownAlignLoop          1000f7c0     libvcruntime:memcpy.obj
 0001:0000e7c0       CopyDownAlignLoop          1000f7c0     libvcruntime:memmove.obj
 0001:0000e7cd       CopyDownAligned            1000f7cd     libvcruntime:memcpy.obj
 0001:0000e7cd       CopyDownAligned            1000f7cd     libvcruntime:memmove.obj
 0001:0000e7f0       TrailingDownVec            1000f7f0     libvcruntime:memcpy.obj
 0001:0000e7f0       TrailingDownVec            1000f7f0     libvcruntime:memmove.obj
 0001:0000e800       TrailingDown0              1000f800     libvcruntime:memcpy.obj
 0001:0000e800       TrailingDown0              1000f800     libvcruntime:memmove.obj
 0001:0000e808       TrailingDown1              1000f808     libvcruntime:memcpy.obj
 0001:0000e808       TrailingDown1              1000f808     libvcruntime:memmove.obj
 0001:0000e818       TrailingDown2              1000f818     libvcruntime:memcpy.obj
 0001:0000e818       TrailingDown2              1000f818     libvcruntime:memmove.obj
 0001:0000e82c       TrailingDown3              1000f82c     libvcruntime:memcpy.obj
 0001:0000e82c       TrailingDown3              1000f82c     libvcruntime:memmove.obj
 0001:0000e845       XmmMovLargeAlignTest       1000f845     libvcruntime:memcpy.obj
 0001:0000e845       XmmMovLargeAlignTest       1000f845     libvcruntime:memmove.obj
 0001:0000e84d       XmmMovAlignLoop            1000f84d     libvcruntime:memcpy.obj
 0001:0000e84d       XmmMovAlignLoop            1000f84d     libvcruntime:memmove.obj
 0001:0000e85c       XmmMovLargeLoop            1000f85c     libvcruntime:memcpy.obj
 0001:0000e85c       XmmMovLargeLoop            1000f85c     libvcruntime:memmove.obj
 0001:0000e8cc       XmmMovSmallTest            1000f8cc     libvcruntime:memcpy.obj
 0001:0000e8cc       XmmMovSmallTest            1000f8cc     libvcruntime:memmove.obj
 0001:0000e8d1       XmmMovSmallLoop            1000f8d1     libvcruntime:memcpy.obj
 0001:0000e8d1       XmmMovSmallLoop            1000f8d1     libvcruntime:memmove.obj
 0001:0000e8f4       CopyDownSmall              1000f8f4     libvcruntime:memcpy.obj
 0001:0000e8f4       CopyDownSmall              1000f8f4     libvcruntime:memmove.obj
 0001:0000e8fc       CopyDownDwordLoop          1000f8fc     libvcruntime:memcpy.obj
 0001:0000e8fc       CopyDownDwordLoop          1000f8fc     libvcruntime:memmove.obj
 0001:0000e911       CopyDownByteTest           1000f911     libvcruntime:memcpy.obj
 0001:0000e911       CopyDownByteTest           1000f911     libvcruntime:memmove.obj
 0001:0000e915       CopyDownByteLoop           1000f915     libvcruntime:memcpy.obj
 0001:0000e915       CopyDownByteLoop           1000f915     libvcruntime:memmove.obj
 0001:0000e924       CopyDownReturn             1000f924     libvcruntime:memcpy.obj
 0001:0000e924       CopyDownReturn             1000f924     libvcruntime:memmove.obj
 0001:0000e930       XmmCopy                    1000f930     libvcruntime:memcpy.obj
 0001:0000e930       XmmCopy                    1000f930     libvcruntime:memmove.obj
 0001:0000e93d       XmmCopyAligned             1000f93d     libvcruntime:memcpy.obj
 0001:0000e93d       XmmCopyAligned             1000f93d     libvcruntime:memmove.obj
 0001:0000e950       XmmCopyLargeLoop           1000f950     libvcruntime:memcpy.obj
 0001:0000e950       XmmCopyLargeLoop           1000f950     libvcruntime:memmove.obj
 0001:0000e9ad       XmmCopySmallTest           1000f9ad     libvcruntime:memcpy.obj
 0001:0000e9ad       XmmCopySmallTest           1000f9ad     libvcruntime:memmove.obj
 0001:0000e9c0       XmmCopySmallLoop           1000f9c0     libvcruntime:memcpy.obj
 0001:0000e9c0       XmmCopySmallLoop           1000f9c0     libvcruntime:memmove.obj
 0001:0000e9db       CopyUpDwordMov             1000f9db     libvcruntime:memcpy.obj
 0001:0000e9db       CopyUpDwordMov             1000f9db     libvcruntime:memmove.obj
 0001:0000e9e0       CopyUpDwordTest            1000f9e0     libvcruntime:memcpy.obj
 0001:0000e9e0       CopyUpDwordTest            1000f9e0     libvcruntime:memmove.obj
 0001:0000e9e7       CopyUpDwordLoop            1000f9e7     libvcruntime:memcpy.obj
 0001:0000e9e7       CopyUpDwordLoop            1000f9e7     libvcruntime:memmove.obj
 0001:0000e9f6       CopyUpByteTest             1000f9f6     libvcruntime:memcpy.obj
 0001:0000e9f6       CopyUpByteTest             1000f9f6     libvcruntime:memmove.obj
 0001:0000e9fd       CopyUpByteLoop             1000f9fd     libvcruntime:memcpy.obj
 0001:0000e9fd       CopyUpByteLoop             1000f9fd     libvcruntime:memmove.obj
 0001:0000ea10       CopyUpReturn               1000fa10     libvcruntime:memcpy.obj
 0001:0000ea10       CopyUpReturn               1000fa10     libvcruntime:memmove.obj
 0001:0000ea20       XmmCopyUnaligned           1000fa20     libvcruntime:memcpy.obj
 0001:0000ea20       XmmCopyUnaligned           1000fa20     libvcruntime:memmove.obj
 0001:0000ea33       XmmAlignByte               1000fa33     libvcruntime:memcpy.obj
 0001:0000ea33       XmmAlignByte               1000fa33     libvcruntime:memmove.obj
 0001:0000ea3c       XmmAlignDwordTest          1000fa3c     libvcruntime:memcpy.obj
 0001:0000ea3c       XmmAlignDwordTest          1000fa3c     libvcruntime:memmove.obj
 0001:0000ea41       XmmAlignDwordLoop          1000fa41     libvcruntime:memcpy.obj
 0001:0000ea41       XmmAlignDwordLoop          1000fa41     libvcruntime:memmove.obj
 0001:0000ea4e       XmmAlignAdjustCnt          1000fa4e     libvcruntime:memcpy.obj
 0001:0000ea4e       XmmAlignAdjustCnt          1000fa4e     libvcruntime:memmove.obj
 0001:0000ea60       $$000000                   1000fa60     libvcruntime:memset.obj
 0001:0000eaa5       XMMMov                     1000faa5     libvcruntime:memset.obj
 0001:0000eae0       LargeRangeBytes            1000fae0     libvcruntime:memset.obj
 0001:0000eb1d       XmmMovSmall                1000fb1d     libvcruntime:memset.obj
 0001:0000eb30       XmmSmallLoop               1000fb30     libvcruntime:memset.obj
 0001:0000eb35       MidRangeBytes              1000fb35     libvcruntime:memset.obj
 0001:0000eb51       XMMTrailingBytes           1000fb51     libvcruntime:memset.obj
 0001:0000eb65       SmallMov                   1000fb65     libvcruntime:memset.obj
 0001:0000eb6d       ByteLoop                   1000fb6d     libvcruntime:memset.obj
 0001:0000eb7b       DwordTest                  1000fb7b     libvcruntime:memset.obj
 0001:0000eb8b       QwordTest                  1000fb8b     libvcruntime:memset.obj
 0001:0000eba0       QwordLoop                  1000fba0     libvcruntime:memset.obj
 0001:0000ebb3       toend                      1000fbb3     libvcruntime:memset.obj
 0001:0000f072       ?_FilterSetCurrentException@@YAKPAU_EXCEPTION_POINTERS@@E@Z 10010072 f   libvcruntime:ehhelpers.obj
 0001:0000f2c0       $$000000                   100102c0     libvcruntime:exsup4.obj
 0001:0000f2f2       _lu_top                    100102f2     libvcruntime:exsup4.obj
 0001:0000f351       _lu_done                   10010351     libvcruntime:exsup4.obj
 0001:0000f360       $$000000                   10010360     libvcruntime:exsup4.obj
 0001:0000f360       __unwind_handler4          10010360 f   libvcruntime:exsup4.obj
 0001:0000f3b0       $$000000                   100103b0     libvcruntime:exsup4.obj
 0001:0000f3d0       $$000000                   100103d0     libvcruntime:exsup4.obj
 0001:0000f3f0       $$000000                   100103f0     libvcruntime:exsup4.obj
 0001:0000f405       ReturnPoint                10010405     libvcruntime:exsup4.obj
 0001:0000f410       $$000000                   10010410     libvcruntime:exsup4.obj
 0001:0000f602       ??$BuildCatchObjectHelperInternal@V__FrameHandler3@@@@YAHPAUEHExceptionRecord@@PAXPBU_s_HandlerType@@PBU_s_CatchableType@@@Z 10010602 f   libvcruntime:frame.obj
 0001:0000f740       ??$BuildCatchObjectInternal@V__FrameHandler3@@@@YAXPAUEHExceptionRecord@@PAXPBU_s_HandlerType@@PBU_s_CatchableType@@@Z 10010740 f   libvcruntime:frame.obj
 0001:0000f7d9       ??$CatchIt@V__FrameHandler3@@@@YAXPAUEHExceptionRecord@@PAUEHRegistrationNode@@PAU_CONTEXT@@PAXPBU_s_FuncInfo@@PBU_s_HandlerType@@PBU_s_CatchableType@@PBU_s_TryBlockMapEntry@@H1EE@Z 100107d9 f   libvcruntime:frame.obj
 0001:0000f859       ??$FindHandler@V__FrameHandler3@@@@YAXPAUEHExceptionRecord@@PAUEHRegistrationNode@@PAU_CONTEXT@@PAXPBU_s_FuncInfo@@EH1@Z 10010859 f   libvcruntime:frame.obj
 0001:0000fbfe       ??$FindHandlerForForeignException@V__FrameHandler3@@@@YAXPAUEHExceptionRecord@@PAUEHRegistrationNode@@PAU_CONTEXT@@PAXPBU_s_FuncInfo@@HH1@Z 10010bfe f   libvcruntime:frame.obj
 0001:0000ff16       ?CallCatchBlock@@YAPAXPAUEHExceptionRecord@@PAUEHRegistrationNode@@PAU_CONTEXT@@PBU_s_FuncInfo@@PAXHK@Z 10010f16 f   libvcruntime:frame.obj
 0001:000100e5       ?CallUnexpected@@YAXPBU_s_ESTypeList@@@Z 100110e5 f   libvcruntime:frame.obj
 0001:00010105       __catch$?CallUnexpected@@YAXPBU_s_ESTypeList@@@Z$0 10011105 f   libvcruntime:frame.obj
 0001:00010124       ?ExFilterRethrow@@YAHPAU_EXCEPTION_POINTERS@@@Z 10011124 f   libvcruntime:frame.obj
 0001:0001026e       ?IsInExceptionSpec@@YAEPAUEHExceptionRecord@@PBU_s_ESTypeList@@@Z 1001126e f   libvcruntime:frame.obj
 0001:00010340       $$000000                   10011340     libvcruntime:lowhelpr.obj
 0001:0001037f       _NLG_Continue              1001137f     libvcruntime:lowhelpr.obj
 0001:00010390       $$000000                   10011390     libvcruntime:exsup.obj
 0001:000103a0       $$000000                   100113a0     libvcruntime:exsup.obj
 0001:000103ab       __NLG_Go                   100113ab     libvcruntime:exsup.obj
 0001:000103c0       $$000000                   100113c0     libvcruntime:exsup.obj
 0001:000103c3       ?try_get_first_available_module@@YAPAUHINSTANCE__@@QBW4module_id@?A0x592e9a36@@0@Z 100113c3 f   libvcruntime:winapi_downlevel.obj
 0001:0001045e       ?try_get_function@@YAPAXW4function_id@?A0x592e9a36@@QBDQBW4module_id@2@2@Z 1001145e f   libvcruntime:winapi_downlevel.obj
 0001:00010b94       ??$common_tcscat_s@_W@@YAHQA_WIQB_W@Z 10011b94 f   libucrt:wcscat_s.obj
 0001:00010c7b       ??$common_tcsncpy_s@_W@@YAHQA_WIQB_WI@Z 10011c7b f   libucrt:wcsncpy_s.obj
 0001:00010d54       ??$common_vsprintf@Vformat_validation_base@__crt_stdio_output@@_W@@YAH_KQA_WIQB_WAAV__crt_cached_ptd_host@@QAD@Z 10011d54 f   libucrt:output.obj
 0001:00010ed7       ??$common_vsprintf_s@_W@@YAH_KQA_WIQB_WAAV__crt_cached_ptd_host@@QAD@Z 10011ed7 f   libucrt:output.obj
 0001:0001233f       $LN116                     1001333f     libucrt:output.obj
 0001:00012942       $LN18                      10013942     libucrt:output.obj
 0001:00012956       $LN17                      10013956     libucrt:output.obj
 0001:00013091       ??$?RV<lambda_03b1d95aef87969028cfba75ccab2455>@@AAV<lambda_6e4b09c48022b2350581041d5f6b0c4c>@@V<lambda_22bdf7517842c4b3e53723af5aa32b9e>@@@?$__crt_seh_guarded_call@X@@QAEX$$QAV<lambda_03b1d95aef87969028cfba75ccab2455>@@AAV<lambda_6e4b09c48022b2350581041d5f6b0c4c>@@$$QAV<lambda_22bdf7517842c4b3e53723af5aa32b9e>@@@Z 10014091 f   libucrt:exit.obj
 0001:000130de       ??R<lambda_6e4b09c48022b2350581041d5f6b0c4c>@@QBE@XZ 100140de f   libucrt:exit.obj
 0001:000131c9       ?common_exit@@YAXHW4_crt_exit_cleanup_mode@@W4_crt_exit_return_mode@@@Z 100141c9 f   libucrt:exit.obj
 0001:00013260       ?exit_or_terminate_process@@YAXI@Z 10014260 f   libucrt:exit.obj
 0001:00013291       ?is_managed_app@@YA_NXZ    10014291 f   libucrt:exit.obj
 0001:000132d4       ?should_call_terminate_process@@YA_NXZ 100142d4 f   libucrt:exit.obj
 0001:000132f6       ?try_cor_exit_process@@YAXI@Z 100142f6 f   libucrt:exit.obj
 0001:000133b3       ??$common_configure_argv@D@@YAHW4_crt_argv_mode@@@Z 100143b3 f   libucrt:argv_parsing.obj
 0001:000134f0       ??$parse_command_line@D@@YAXPADPAPAD0PAI2@Z 100144f0 f   libucrt:argv_parsing.obj
 0001:000136be       ??$common_initialize_environment_nolock@D@@YAHXZ 100146be f   libucrt:environment_initialization.obj
 0001:00013718       ??$create_environment@D@@YAQAPADQAD@Z 10014718 f   libucrt:environment_initialization.obj
 0001:000137fa       ??$free_environment@D@@YAXQAPAD@Z 100147fa f   libucrt:environment_initialization.obj
 0001:000137fa       ??$free_environment@_W@@YAXQAPA_W@Z 100147fa f   libucrt:environment_initialization.obj
 0001:00013829       ??$uninitialize_environment_internal@D@@YAXAAPAPAD@Z 10014829 f   libucrt:environment_initialization.obj
 0001:00013844       ??$uninitialize_environment_internal@_W@@YAXAAPAPA_W@Z 10014844 f   libucrt:environment_initialization.obj
 0001:000138b5       ??$?RV<lambda_69a2805e680e0e292e8ba93315fe43a8>@@AAV<lambda_f03950bc5685219e0bcd2087efbe011e>@@V<lambda_03fcd07e894ec930e3f35da366ca99d6>@@@?$__crt_seh_guarded_call@H@@QAEH$$QAV<lambda_69a2805e680e0e292e8ba93315fe43a8>@@AAV<lambda_f03950bc5685219e0bcd2087efbe011e>@@$$QAV<lambda_03fcd07e894ec930e3f35da366ca99d6>@@@Z 100148b5 f   libucrt:onexit.obj
 0001:00013910       ??$?RV<lambda_8e746cf0007f6ed984d6f78af1fec997>@@AAV<lambda_22ebabd17bc4fa466a2aca6d8deb888d>@@V<lambda_18ed0c0b38a6dc0daf1e7ac6d6adf05e>@@@?$__crt_seh_guarded_call@H@@QAEH$$QAV<lambda_8e746cf0007f6ed984d6f78af1fec997>@@AAV<lambda_22ebabd17bc4fa466a2aca6d8deb888d>@@$$QAV<lambda_18ed0c0b38a6dc0daf1e7ac6d6adf05e>@@@Z 10014910 f   libucrt:onexit.obj
 0001:0001398a       ??R<lambda_22ebabd17bc4fa466a2aca6d8deb888d>@@QBEHXZ 1001498a f   libucrt:onexit.obj
 0001:00013a8c       ??R<lambda_f03950bc5685219e0bcd2087efbe011e>@@QBEHXZ 10014a8c f   libucrt:onexit.obj
 0001:00013c16       _uninitialize_allocated_io_buffers 10014c16 f   libucrt:initialization.obj
 0001:00013c66       _initialize_environment    10014c66 f   libucrt:initialization.obj
 0001:00013c66       _initialize_global_state_isolation 10014c66 f   libucrt:initialization.obj
 0001:00013c66       _report_memory_leaks       10014c66 f   libucrt:initialization.obj
 0001:00013c66       _uninitialize_c            10014c66 f   libucrt:initialization.obj
 0001:00013c66       _uninitialize_global_state_isolation 10014c66 f   libucrt:initialization.obj
 0001:00013c69       _initialize_global_variables 10014c69 f   libucrt:initialization.obj
 0001:00013c76       _initialize_c              10014c76 f   libucrt:initialization.obj
 0001:00013c90       _uninitialize_environment  10014c90 f   libucrt:initialization.obj
 0001:00013c98       _initialize_pointers       10014c98 f   libucrt:initialization.obj
 0001:00013cc6       _uninitialize_vcruntime    10014cc6 f   libucrt:initialization.obj
 0001:00013ccf       _uninitialize_allocated_memory 10014ccf f   libucrt:initialization.obj
 0001:00013ce6       ??R<lambda_af42a3ee9806e9a7305d451646e05244>@@QBEXAAPAU__crt_multibyte_data@@@Z 10014ce6 f   libucrt:initialization.obj
 0001:00013f50       $$000000                   10014f50     libucrt:strncmp.obj
 0001:0001403c       ??$?RV<lambda_15ade71b0218206bbe3333a0c9b79046>@@AAV<lambda_da44e0f8b0f19ba52fefafb335991732>@@V<lambda_207f2d024fc103971653565357d6cd41>@@@?$__crt_seh_guarded_call@X@@QAEX$$QAV<lambda_15ade71b0218206bbe3333a0c9b79046>@@AAV<lambda_da44e0f8b0f19ba52fefafb335991732>@@$$QAV<lambda_207f2d024fc103971653565357d6cd41>@@@Z 1001503c f   libucrt:per_thread_data.obj
 0001:0001408e       ??$?RV<lambda_38edbb1296d33220d7e4dd0ed76b244a>@@AAV<lambda_5ce1d447e08cb34b2473517608e21441>@@V<lambda_fb385d3da700c9147fc39e65dd577a8c>@@@?$__crt_seh_guarded_call@X@@QAEX$$QAV<lambda_38edbb1296d33220d7e4dd0ed76b244a>@@AAV<lambda_5ce1d447e08cb34b2473517608e21441>@@$$QAV<lambda_fb385d3da700c9147fc39e65dd577a8c>@@@Z 1001508e f   libucrt:per_thread_data.obj
 0001:000140f9       ??$?RV<lambda_6affb1475c98b40b75cdec977db92e3c>@@AAV<lambda_b8d4b9c228a6ecc3f80208dbb4b4a104>@@V<lambda_608742c3c92a14382c1684fc64f96c88>@@@?$__crt_seh_guarded_call@X@@QAEX$$QAV<lambda_6affb1475c98b40b75cdec977db92e3c>@@AAV<lambda_b8d4b9c228a6ecc3f80208dbb4b4a104>@@$$QAV<lambda_608742c3c92a14382c1684fc64f96c88>@@@Z 100150f9 f   libucrt:per_thread_data.obj
 0001:0001414e       ??$?RV<lambda_a7e850c220f1c8d1e6efeecdedd162c6>@@AAV<lambda_46720907175c18b6c9d2717bc0d2d362>@@V<lambda_9048902d66e8d99359bc9897bbb930a8>@@@?$__crt_seh_guarded_call@X@@QAEX$$QAV<lambda_a7e850c220f1c8d1e6efeecdedd162c6>@@AAV<lambda_46720907175c18b6c9d2717bc0d2d362>@@$$QAV<lambda_9048902d66e8d99359bc9897bbb930a8>@@@Z 1001514e f   libucrt:per_thread_data.obj
 0001:000141a8       ?construct_ptd@@YAXQAU__acrt_ptd@@QAPAU__crt_locale_data@@@Z 100151a8 f   libucrt:per_thread_data.obj
 0001:00014241       ?destroy_fls@@YGXPAX@Z     10015241 f   libucrt:per_thread_data.obj
 0001:00014262       ?destroy_ptd@@YAXQAU__acrt_ptd@@@Z 10015262 f   libucrt:per_thread_data.obj
 0001:0001432f       ?replace_current_thread_locale_nolock@@YAXQAU__acrt_ptd@@QAU__crt_locale_data@@@Z 1001532f f   libucrt:per_thread_data.obj
 0001:00014691       ??$?RV<lambda_e5124f882df8998aaf41531e079ba474>@@AAV<lambda_3e16ef9562a7dcce91392c22ab16ea36>@@V<lambda_e25ca0880e6ef98be67edffd8c599615>@@@?$__crt_seh_guarded_call@X@@QAEX$$QAV<lambda_e5124f882df8998aaf41531e079ba474>@@AAV<lambda_3e16ef9562a7dcce91392c22ab16ea36>@@$$QAV<lambda_e25ca0880e6ef98be67edffd8c599615>@@@Z 10015691 f   libucrt:wsetlocale.obj
 0001:00014878       ?try_get_AreFileApisANSI@@YAP6GHXZXZ 10015878 f   libucrt:winapi_thunks.obj
 0001:00014892       ?try_get_LCMapStringEx@@YAP6GHPB_WK0HPA_WHPAU_nlsversioninfo@@PAXJ@ZXZ 10015892 f   libucrt:winapi_thunks.obj
 0001:000148ac       ?try_get_LocaleNameToLCID@@YAP6GKPB_WK@ZXZ 100158ac f   libucrt:winapi_thunks.obj
 0001:000148c6       ?try_get_first_available_module@@YAPAUHINSTANCE__@@QBW4module_id@?A0x391cf84c@@0@Z 100158c6 f   libucrt:winapi_thunks.obj
 0001:00014991       ?try_get_function@@YAPAXW4function_id@?A0x391cf84c@@QBDQBW4module_id@2@2@Z 10015991 f   libucrt:winapi_thunks.obj
 0001:00014f9e       ?fe_to_nearest@@YA_NQBN_KF@Z 10015f9e f   libucrt:cvt.obj
 0001:00015041       ?fp_format_a@@YAHQBNPADIQADIH_NIW4__acrt_rounding_mode@@AAV__crt_cached_ptd_host@@@Z 10016041 f   libucrt:cvt.obj
 0001:0001536d       ?fp_format_e@@YAHQBNQADI1IH_NIW4__acrt_rounding_mode@@AAV__crt_cached_ptd_host@@@Z 1001636d f   libucrt:cvt.obj
 0001:00015411       ?fp_format_e_internal@@YAHQADIH_NIQAU_strflt@@1AAV__crt_cached_ptd_host@@@Z 10016411 f   libucrt:cvt.obj
 0001:00015556       ?fp_format_f@@YAHQBNQADI1IHW4__acrt_rounding_mode@@AAV__crt_cached_ptd_host@@@Z 10016556 f   libucrt:cvt.obj
 0001:000155ec       ?fp_format_f_internal@@YAHQADIHQAU_strflt@@_NAAV__crt_cached_ptd_host@@@Z 100165ec f   libucrt:cvt.obj
 0001:000156da       ?fp_format_g@@YAHQBNQADI1IH_NIW4__acrt_rounding_mode@@AAV__crt_cached_ptd_host@@@Z 100166da f   libucrt:cvt.obj
 0001:000157a9       ?fp_format_nan_or_infinity@@YAHW4__acrt_fp_class@@_NPADI1@Z 100167a9 f   libucrt:cvt.obj
 0001:0001583e       ?shift_bytes@@YAXQADI0H@Z  1001683e f   libucrt:cvt.obj
 0001:00015872       ?should_round_up@@YA_NQBN_KFW4__acrt_rounding_mode@@@Z 10016872 f   libucrt:cvt.obj
 0001:00015d31       ?initialize_inherited_file_handles_nolock@@YAXXZ 10016d31 f   libucrt:ioinit.obj
 0001:00015de7       ?initialize_stdio_handles_nolock@@YAXXZ 10016de7 f   libucrt:ioinit.obj
 0001:00015ff4       ?<lambda_invoker_cdecl>@<lambda_838c7f62c73c983481e27c09e84b0b5d>@@CAHPBX0@Z 10016ff4 f   libucrt:argv_wildcards.obj
 0001:000161a1       ??$common_expand_argv_wildcards@D@@YAHQAPADQAPAPAD@Z 100171a1 f   libucrt:argv_wildcards.obj
 0001:0001631e       ??$copy_and_add_argument_to_buffer@D@@YAHQBD0IAAV?$argument_list@D@?A0x5f5c8891@@@Z 1001731e f   libucrt:argv_wildcards.obj
 0001:000163cf       ??$expand_argument_wildcards@D@@YAHQAD0AAV?$argument_list@D@?A0x5f5c8891@@@Z 100173cf f   libucrt:argv_wildcards.obj
 0001:000166d6       ??1?$argument_list@D@?A0x5f5c8891@@QAE@XZ 100176d6 f   libucrt:argv_wildcards.obj
 0001:00016816       ?expand_if_necessary@?$argument_list@D@?A0x5f5c8891@@AAEHXZ 10017816 f   libucrt:argv_wildcards.obj
 0001:00016a46       ??$?RV<lambda_ceb1ee4838e85a9d631eb091e2fbe199>@@AAV<lambda_ae742caa10f662c28703da3d2ea5e57e>@@V<lambda_cd08b5d6af4937fe54fc07d0c9bf6b37>@@@?$__crt_seh_guarded_call@X@@QAEX$$QAV<lambda_ceb1ee4838e85a9d631eb091e2fbe199>@@AAV<lambda_ae742caa10f662c28703da3d2ea5e57e>@@$$QAV<lambda_cd08b5d6af4937fe54fc07d0c9bf6b37>@@@Z 10017a46 f   libucrt:mbctype.obj
 0001:00016a93       ??R<lambda_ae742caa10f662c28703da3d2ea5e57e>@@QBEXXZ 10017a93 f   libucrt:mbctype.obj
 0001:00016b16       ?CPtoLocaleName@@YAPB_WH@Z 10017b16 f   libucrt:mbctype.obj
 0001:00016b54       ?getSystemCP@@YAHH@Z       10017b54 f   libucrt:mbctype.obj
 0001:00016bc5       ?setSBCS@@YAXPAU__crt_multibyte_data@@@Z 10017bc5 f   libucrt:mbctype.obj
 0001:00016c28       ?setSBUpLow@@YAXPAU__crt_multibyte_data@@@Z 10017c28 f   libucrt:mbctype.obj
 0001:00016dd4       ?setmbcp_internal@@YAHH_NQAU__acrt_ptd@@QAPAU__crt_multibyte_data@@@Z 10017dd4 f   libucrt:mbctype.obj
 0001:00016f29       ?update_thread_multibyte_data_internal@@YAPAU__crt_multibyte_data@@QAU__acrt_ptd@@QAPAU1@@Z 10017f29 f   libucrt:mbctype.obj
 0001:0001722c       _memcpy_s                  1001822c f   libucrt:cfout.obj
 0001:0001722c       _memcpy_s                  1001822c f   libucrt:mbctype.obj
 0001:000172ad       ?x_ismbbtype_l@@YAHPAU__crt_locale_pointers@@IHH@Z 100182ad f   libucrt:ismbbyte.obj
 0001:00017461       ?find_end_of_double_null_terminated_sequence@@YAPB_WQB_W@Z 10018461 f   libucrt:get_environment_from_os.obj
 0001:000175ec       ??$?RV<lambda_cbab9ec6f41b0180b23cc171c22676b0>@@AAV<lambda_44731a7d0e6d81c3e6aa82d741081786>@@V<lambda_4b292cb8dd18144e164572427af410ab>@@@?$__crt_seh_guarded_call@P6AXH@Z@@QAEP6AXH@Z$$QAV<lambda_cbab9ec6f41b0180b23cc171c22676b0>@@AAV<lambda_44731a7d0e6d81c3e6aa82d741081786>@@$$QAV<lambda_4b292cb8dd18144e164572427af410ab>@@@Z 100185ec f   libucrt:signal.obj
 0001:00017650       ?get_global_action_nolock@@YAPAP6AXH@ZH@Z 10018650 f   libucrt:signal.obj
 0001:00017692       ?siglookup@@YAPAU__crt_signal_action_t@@HQAU1@@Z 10018692 f   libucrt:signal.obj
 0001:0001794b       ??$?RV<lambda_2866be3712abc81a800a822484c830d8>@@AAV<lambda_39ca0ed439415581b5b15c265174cece>@@V<lambda_2b24c74d71094a6cd0cb82e44167d71b>@@@?$__crt_seh_guarded_call@X@@QAEX$$QAV<lambda_2866be3712abc81a800a822484c830d8>@@AAV<lambda_39ca0ed439415581b5b15c265174cece>@@$$QAV<lambda_2b24c74d71094a6cd0cb82e44167d71b>@@@Z 1001894b f   libucrt:fflush.obj
 0001:000179d7       ??$?RV<lambda_2cc53f568c5a2bb6f192f930a45d44ea>@@AAV<lambda_ab61a845afdef5b7c387490eaf3616ee>@@V<lambda_c2ffc0b7726aa6be21d5f0026187e748>@@@?$__crt_seh_guarded_call@X@@QAEX$$QAV<lambda_2cc53f568c5a2bb6f192f930a45d44ea>@@AAV<lambda_ab61a845afdef5b7c387490eaf3616ee>@@$$QAV<lambda_c2ffc0b7726aa6be21d5f0026187e748>@@@Z 100189d7 f   libucrt:fflush.obj
 0001:00017a83       ?common_flush_all@@YAH_N@Z 10018a83 f   libucrt:fflush.obj
 0001:00017ad0       ?common_flush_all_should_try_to_flush_stream@@YA_NV__crt_stdio_stream@@QAH@Z 10018ad0 f   libucrt:fflush.obj
 0001:00017b03       ?is_stream_flushable_or_commitable@@YA_NJ@Z 10018b03 f   libucrt:fflush.obj
 0001:00018100       ?free_crt_array_internal@@YAXQAPBXI@Z 10019100 f   libucrt:inittime.obj
 0001:00018339       ?GetTableIndexFromLocaleName@@YAHPB_W@Z 10019339 f   libucrt:lcidtoname_downlevel.obj
 0001:000183b5       ?should_round_up@@YA_NQBD0HW4__acrt_has_trailing_digits@@W4__acrt_rounding_mode@@@Z 100193b5 f   libucrt:_fptostr.obj
 0001:00019efe       ??R<lambda_e96123212306c92459f955e8e4eac55d>@@QBEIPBD@Z 1001aefe f   libucrt:mbrtowc.obj
 0001:0001a93e       ??$common_tcsncpy_s@D@@YAHQADIQBDI@Z 1001b93e f   libucrt:strncpy_s.obj
 0001:0001aa00       $$000000                   1001ba00     libucrt:strpbrk.obj
 0001:0001aae4       ?__acrt_LCMapStringA_stat@@YAHPAU__crt_locale_pointers@@PB_WKPBDHPADHHH@Z 1001bae4 f   libucrt:lcmapstringa.obj
 0001:0001ad1b       ?initialize_multibyte@@YAHXZ 1001bd1b f   libucrt:multibyte_initializer.obj
 0001:0001ad2a       ??$?RV<lambda_9e9de3de5fa147e2223d7db92bc10aa6>@@AAV<lambda_38ce7e780aa69e748d6df282ebc68efe>@@V<lambda_8ca6da459f0f6780f1cff60fdc3d00e5>@@@?$__crt_seh_guarded_call@H@@QAEH$$QAV<lambda_9e9de3de5fa147e2223d7db92bc10aa6>@@AAV<lambda_38ce7e780aa69e748d6df282ebc68efe>@@$$QAV<lambda_8ca6da459f0f6780f1cff60fdc3d00e5>@@@Z 1001bd2a f   libucrt:commit.obj
 0001:0001ae49       ?write_double_translated_ansi_nolock@@YA?AUwrite_result@?A0x17268360@@HQBDIAAV__crt_cached_ptd_host@@@Z 1001be49 f   libucrt:write.obj
 0001:0001b21b       ?write_double_translated_unicode_nolock@@YA?AUwrite_result@?A0x17268360@@QBDI@Z 1001c21b f   libucrt:write.obj
 0001:0001b283       ?write_requires_double_translation_nolock@@YA_NHAAV__crt_cached_ptd_host@@@Z 1001c283 f   libucrt:write.obj
 0001:0001b301       ?write_text_ansi_nolock@@YA?AUwrite_result@?A0x17268360@@HQBDI@Z 1001c301 f   libucrt:write.obj
 0001:0001b3dc       ?write_text_utf16le_nolock@@YA?AUwrite_result@?A0x17268360@@HQBDI@Z 1001c3dc f   libucrt:write.obj
 0001:0001b4c5       ?write_text_utf8_nolock@@YA?AUwrite_result@?A0x17268360@@HQBDI@Z 1001c4c5 f   libucrt:write.obj
 0001:0001ba70       $$000000                   1001ca70     libucrt:log10_impl.obj
 0001:0001bb80       $$000000                   1001cb80     libucrt:ceil_pentium4.obj
 0001:0001bc9d       ?to_abstract_control@@YA?AW4__acrt_fenv_abstract_control@@W4__acrt_fenv_machine_sse_control@@@Z 1001cc9d f   libucrt:_fenvutils.obj
 0001:0001bd4d       ?to_abstract_control@@YA?AW4__acrt_fenv_abstract_control@@W4__acrt_fenv_machine_x87_control@@@Z 1001cd4d f   libucrt:_fenvutils.obj
 0001:0001bdfa       ?to_machine_sse_control@@YA?AW4__acrt_fenv_machine_sse_control@@W4__acrt_fenv_abstract_control@@@Z 1001cdfa f   libucrt:_fenvutils.obj
 0001:0001beb0       ?to_machine_x87_control@@YA?AW4__acrt_fenv_machine_x87_control@@W4__acrt_fenv_abstract_control@@@Z 1001ceb0 f   libucrt:_fenvutils.obj
 0001:0001c41b       ?_fclose_internal@@YAHQAU_iobuf@@AAV__crt_cached_ptd_host@@@Z 1001d41b f   libucrt:fclose.obj
 0001:0001c4b2       ?_fclose_nolock_internal@@YAHQAU_iobuf@@AAV__crt_cached_ptd_host@@@Z 1001d4b2 f   libucrt:fclose.obj
 0001:0001c570       ??$common_lseek_nolock@_J@@YA_JH_JHAAV__crt_cached_ptd_host@@@Z 1001d570 f   libucrt:lseek.obj
 0001:0001c665       ___hw_cw_sse2              1001d665 f   libucrt:ieee87.obj
 0001:0001caeb       __hw_cw                    1001daeb f   libucrt:ieee87.obj
 0001:0001cba0       $$000000                   1001dba0     libucrt:log10_pentium4.obj
 0001:0001ce30       $$000000                   1001de30     libucrt:87tran.obj
 0001:0001d040       $$000000                   1001e040     libucrt:87disp.obj
 0001:0001d2a0       $$000000                   1001e2a0     libucrt:common.obj
 0001:0001d430       $$000000                   1001e430     libucrt:genexcep.obj
 0001:0001d72c       ??$?RV<lambda_d422a76eb4c3bf3ad751449ab71a6ea4>@@AAV<lambda_c9ba49e555ba839a7b07aa3fbecb7617>@@V<lambda_9476263c8ee91a25d21c55370bdb50de>@@@?$__crt_seh_guarded_call@H@@QAEH$$QAV<lambda_d422a76eb4c3bf3ad751449ab71a6ea4>@@AAV<lambda_c9ba49e555ba839a7b07aa3fbecb7617>@@$$QAV<lambda_9476263c8ee91a25d21c55370bdb50de>@@@Z 1001e72c f   libucrt:close.obj
 0001:0001d940       $$000000                   1001e940     libucrt:_strnicm.obj
 0001:0001d9a1       ?__dcrt_lowio_initialize_console_output@@YAXXZ 1001e9a1 f   libucrt:initcon.obj
 0001:0001e950       $$000000                   1001f950     LIBCMT:ulldvrm.obj
 0001:0001e981       L1                         1001f981     LIBCMT:ulldvrm.obj
 0001:0001e98f       L3                         1001f98f     LIBCMT:ulldvrm.obj
 0001:0001e9bd       L4                         1001f9bd     LIBCMT:ulldvrm.obj
 0001:0001e9c6       L5                         1001f9c6     LIBCMT:ulldvrm.obj
 0001:0001e9c8       L2                         1001f9c8     LIBCMT:ulldvrm.obj
 0001:0001e9f0       $$000000                   1001f9f0     LIBCMT:llmul.obj
 0001:0001ea09       hard                       1001fa09     LIBCMT:llmul.obj
 0001:0001ea30       $$000000                   1001fa30     LIBCMT:lldvrm.obj
 0001:0001ea54       L1                         1001fa54     LIBCMT:lldvrm.obj
 0001:0001ea70       L2                         1001fa70     LIBCMT:lldvrm.obj
 0001:0001ea9c       L3                         1001fa9c     LIBCMT:lldvrm.obj
 0001:0001eaaa       L5                         1001faaa     LIBCMT:lldvrm.obj
 0001:0001ead8       L6                         1001fad8     LIBCMT:lldvrm.obj
 0001:0001eae1       L7                         1001fae1     LIBCMT:lldvrm.obj
 0001:0001eae3       L4                         1001fae3     LIBCMT:lldvrm.obj
 0001:0001eaf5       L9                         1001faf5     LIBCMT:lldvrm.obj
 0001:0001eb09       L8                         1001fb09     LIBCMT:lldvrm.obj
 0001:0001eb10       $$000000                   1001fb10     LIBCMT:llshl.obj
 0001:0001eb20       MORE32                     1001fb20     LIBCMT:llshl.obj
 0001:0001eb2a       RETZERO                    1001fb2a     LIBCMT:llshl.obj
 0001:0001eb30       $$000000                   1001fb30     LIBCMT:ullshr.obj
 0001:0001eb40       MORE32                     1001fb40     LIBCMT:ullshr.obj
 0001:0001eb4a       RETZERO                    1001fb4a     LIBCMT:ullshr.obj
 0001:0001eb50       $$000000                   1001fb50     LIBCMT:ftol2.obj
 0001:0001eb60       $$000000                   1001fb60     LIBCMT:ftol2.obj
 0001:0001eb71       L3B                        1001fb71     LIBCMT:ftol2.obj
 0001:0001ebb4       L3F                        1001fbb4     LIBCMT:ftol2.obj
 0001:0001ebbc       L40                        1001fbbc     LIBCMT:ftol2.obj
 0001:0001ebcf       L41                        1001fbcf     LIBCMT:ftol2.obj
 0001:0001ebe0       $$000000                   1001fbe0     libvcruntime:strrchr.obj
 0001:0001ec1d       strrchr_sse_loop           1001fc1d     libvcruntime:strrchr.obj
 0001:0001ec4d       strrchr_sse_break          1001fc4d     libvcruntime:strrchr.obj
 0001:0001ec6d       strrchr_sttni              1001fc6d     libvcruntime:strrchr.obj
 0001:0001ec7f       strrchr_sttni_chars        1001fc7f     libvcruntime:strrchr.obj
 0001:0001ec94       strrchr_sttni_aligned      1001fc94     libvcruntime:strrchr.obj
 0001:0001ec98       strrchr_sttni_xmm          1001fc98     libvcruntime:strrchr.obj
 0001:0001ecab       exit                       1001fcab     libvcruntime:strrchr.obj
 0001:0001ecae       strrchr_zero               1001fcae     libvcruntime:strrchr.obj
 0001:0001ecd3       strchr_zero_loop           1001fcd3     libvcruntime:strrchr.obj
 0001:0001ece7       strchr_zero_result         1001fce7     libvcruntime:strrchr.obj
 0001:0001ecee       strrchr_no_sse             1001fcee     libvcruntime:strrchr.obj
 0001:0001ed11       returndi                   1001fd11     libvcruntime:strrchr.obj
 0001:0001ed13       toend                      1001fd13     libvcruntime:strrchr.obj
 0001:0001ed98       __ehhandler$??2@YAPAXIABUnothrow_t@std@@@Z 1001fd98 f   LIBCMT:new_scalar_nothrow.obj
 0001:0001edb5       __ehhandler$?CallUnexpected@@YAXPBU_s_ESTypeList@@@Z 1001fdb5 f   libvcruntime:frame.obj
 0001:0001edd2       __ehhandler$?common_exit@@YAXHW4_crt_exit_cleanup_mode@@W4_crt_exit_return_mode@@@Z 1001fdd2 f   libucrt:exit.obj
 0001:0001edef       __ehhandler$?try_cor_exit_process@@YAXI@Z 1001fdef f   libucrt:exit.obj
 0001:0001ee0c       __ehhandler$___dcrt_uninitialize_environments_nolock 1001fe0c f   libucrt:environment_initialization.obj
 0001:0001ee29       __ehhandler$__execute_onexit_table 1001fe29 f   libucrt:onexit.obj
 0001:0001ee46       __ehhandler$?write_double_translated_ansi_nolock@@YA?AUwrite_result@?A0x17268360@@HQBDIAAV__crt_cached_ptd_host@@@Z 1001fe46 f   libucrt:write.obj
 0001:0001ee70       ??__F_AtlComModule@ATL@@YAXXZ 1001fe70 f   OposVariant.obj
 0001:0001ee7a       ??__F_AtlWinModule@ATL@@YAXXZ 1001fe7a f   OposVariant.obj
 0001:0001ee94       ??__F_Module@@YAXXZ        1001fe94 f   SoundRecorder.obj
 0001:0001eea8       ??__F_AtlBaseModule@ATL@@YAXXZ 1001fea8 f   atls:atlbase.obj
 0002:00000308       ?_AtlBaseModule$initializer$@ATL@@3P6AXXZA 10020308     atls:atlbase.obj
 0002:0000030c       ?_AtlComModule$initializer$@ATL@@3P6AXXZA 1002030c     OposVariant.obj
 0002:00000310       ?_AtlWinModule$initializer$@ATL@@3P6AXXZA 10020310     OposVariant.obj
 0002:00000314       ?_Module$initializer$@@3P6AXXZA 10020314     SoundRecorder.obj
 0002:00000318       ??pConnMap$initializer$@?$IConnectionPointContainerImpl@VCOPOSSoundRecorder@@@ATL@@0P6AXXZA@@3P6AXXZA 10020318     SoundRecorder.obj
 0002:00000324       ?__scrt_initialize_tss_var@@3P6AHXZA 10020324     LIBCMT:thread_safe_statics.obj
 0002:00001858       _GS_ExceptionPointers      10021858     LIBCMT:gs_report.obj
 0002:000019e8       ?tokenTable@@3QBUStringLiteral@@B 100219e8     libvcruntime:undname.obj
 0002:00001a70       ?nameTable@@3QBUStringLiteral@@B 10021a70     libvcruntime:undname.obj
 0002:00001d08       ?rttiTable@@3QBUStringLiteral@@B 10021d08     libvcruntime:undname.obj
 0002:00001d30       ?IndirectionName@@3QBUStringLiteral@@B 10021d30     libvcruntime:undname.obj
 0002:00001d60       ?PrefixName@@3QBUStringLiteral@@B 10021d60     libvcruntime:undname.obj
 0002:0000239c       ?module_names@?A0x592e9a36@@3QBQB_WB 1002239c     libvcruntime:winapi_downlevel.obj
 0002:00002444       ?candidate_modules@?1??try_get_FlsAlloc@@YAP6GKP6GXPAX@Z@ZXZ@4QBW4module_id@?A0x592e9a36@@B 10022444     libvcruntime:winapi_downlevel.obj
 0002:00002458       ?candidate_modules@?1??try_get_FlsFree@@YAP6GHK@ZXZ@4QBW4module_id@?A0x592e9a36@@B 10022458     libvcruntime:winapi_downlevel.obj
 0002:00002468       ?candidate_modules@?1??try_get_FlsGetValue@@YAP6GPAXK@ZXZ@4QBW4module_id@?A0x592e9a36@@B 10022468     libvcruntime:winapi_downlevel.obj
 0002:0000247c       ?candidate_modules@?1??try_get_FlsSetValue@@YAP6GHKPAX@ZXZ@4QBW4module_id@?A0x592e9a36@@B 1002247c     libvcruntime:winapi_downlevel.obj
 0002:00002490       ?candidate_modules@?1??try_get_InitializeCriticalSectionEx@@YAP6GHPAU_RTL_CRITICAL_SECTION@@KK@ZXZ@4QBW4module_id@?A0x592e9a36@@B 10022490     libvcruntime:winapi_downlevel.obj
 0002:000024b8       ?errtable@@3QBUerrentry@?A0x31fdb9ec@@B 100224b8     libucrt:errno.obj
 0002:00002800       ___acrt_initializers       10022800     libucrt:initialization.obj
 0002:00002d40       ?module_names@?A0x391cf84c@@3QBQB_WB 10022d40     libucrt:winapi_thunks.obj
 0002:000031f4       ?candidate_modules@?1??try_get_AreFileApisANSI@@YAP6GHXZXZ@4QBW4module_id@?A0x391cf84c@@B 100231f4     libucrt:winapi_thunks.obj
 0002:00003208       ?candidate_modules@?1??try_get_InitializeCriticalSectionEx@@YAP6GHPAU_RTL_CRITICAL_SECTION@@KK@ZXZ@4QBW4module_id@?A0x391cf84c@@B 10023208     libucrt:winapi_thunks.obj
 0002:00003210       ?candidate_modules@?1??try_get_LCMapStringEx@@YAP6GHPB_WK0HPA_WHPAU_nlsversioninfo@@PAXJ@ZXZ@4QBW4module_id@?A0x391cf84c@@B 10023210     libucrt:winapi_thunks.obj
 0002:00003228       ?candidate_modules@?1??try_get_LocaleNameToLCID@@YAP6GKPB_WK@ZXZ@4QBW4module_id@?A0x391cf84c@@B 10023228     libucrt:winapi_thunks.obj
 0002:00003244       ?candidate_modules@?1??try_get_AppPolicyGetProcessTerminationMethod@@YAP6GJPAXPAW4AppPolicyProcessTerminationMethod@@@ZXZ@4QBW4module_id@?A0x391cf84c@@B 10023244     libucrt:winapi_thunks.obj
 0002:00003270       ?candidate_modules@?1??try_get_SetThreadStackGuarantee@@YAP6GHPAK@ZXZ@4QBW4module_id@?A0x391cf84c@@B 10023270     libucrt:winapi_thunks.obj
 0002:00003290       ?candidate_modules@?1??try_get_FlsAlloc@@YAP6GKP6GXPAX@Z@ZXZ@4QBW4module_id@?A0x391cf84c@@B 10023290     libucrt:winapi_thunks.obj
 0002:00003298       ?candidate_modules@?1??try_get_FlsFree@@YAP6GHK@ZXZ@4QBW4module_id@?A0x391cf84c@@B 10023298     libucrt:winapi_thunks.obj
 0002:000032a0       ?candidate_modules@?1??try_get_FlsGetValue@@YAP6GPAXK@ZXZ@4QBW4module_id@?A0x391cf84c@@B 100232a0     libucrt:winapi_thunks.obj
 0002:000032a8       ?candidate_modules@?1??try_get_FlsSetValue@@YAP6GHKPAX@ZXZ@4QBW4module_id@?A0x391cf84c@@B 100232a8     libucrt:winapi_thunks.obj
 0002:000032b0       ?strings@?1??fp_format_nan_or_infinity@@YAHW4__acrt_fp_class@@_NPADI1@Z@4QAY03QBDA 100232b0     libucrt:cvt.obj
 0002:00003338       ?_mb_locale_names@@3QBQB_WB 10023338     libucrt:mbctype.obj
 0002:00003980       ?LcidToLocaleNameTable@?A0x881e4c05@@3QBULcidToLocaleName@1@B 10023980     libucrt:lcidtoname_downlevel.obj
 0002:00004aa0       ?LocaleNameToIndexTable@?A0x881e4c05@@3QBULocaleNameIndex@1@B 10024aa0     libucrt:lcidtoname_downlevel.obj
 0002:000063e0       LOG_name                   100263e0     libucrt:log10_impl.obj
 0002:000063f0       _One                       100263f0     libucrt:ceil_pentium4.obj
 0002:00006400       _Bns                       10026400     libucrt:ceil_pentium4.obj
 0002:00006410       _Zero                      10026410     libucrt:ceil_pentium4.obj
 0002:00006420       _S                         10026420     libucrt:ceil_pentium4.obj
 0002:00006430       _NegZero                   10026430     libucrt:ceil_pentium4.obj
 0002:00006440       emask                      10026440     libucrt:log10_pentium4.obj
 0002:00006450       CC                         10026450     libucrt:log10_pentium4.obj
 0002:00006460       Magic                      10026460     libucrt:log10_pentium4.obj
 0002:00006470       hi_mask                    10026470     libucrt:log10_pentium4.obj
 0002:00006480       LOG10_2                    10026480     libucrt:log10_pentium4.obj
 0002:00006490       place_L                    10026490     libucrt:log10_pentium4.obj
 0002:000064b0       One                        100264b0     libucrt:log10_pentium4.obj
 0002:000064c0       Zero                       100264c0     libucrt:log10_pentium4.obj
 0002:000064d0       Two52                      100264d0     libucrt:log10_pentium4.obj
 0002:000064e0       Infs                       100264e0     libucrt:log10_pentium4.obj
 0002:000064f0       NaN                        100264f0     libucrt:log10_pentium4.obj
 0002:00006500       coeff                      10026500     libucrt:log10_pentium4.obj
 0002:0000655e       _log2max                   1002655e     libucrt:87tran.obj
 0002:00006568       _smallarg                  10026568     libucrt:87tran.obj
 0002:00006572       _half                      10026572     libucrt:87tran.obj
 0002:000065be       One                        100265be     libucrt:87disp.obj
 0002:000065c6       Three                      100265c6     libucrt:87disp.obj
 0002:000065ce       XAMtoTagTab                100265ce     libucrt:87disp.obj
 0002:000065e0       One                        100265e0     libucrt:common.obj
 0002:000065f4       DblMax                     100265f4     libucrt:common.obj
 0002:000065fc       DblMin                     100265fc     libucrt:common.obj
 0002:00006604       IeeeAdjO                   10026604     libucrt:common.obj
 0002:0000660c       IeeeAdjU                   1002660c     libucrt:common.obj
 0002:00006614       _infinity                  10026614     libucrt:common.obj
 0002:0000661c       _zero                      1002661c     libucrt:common.obj
 0002:00006668       _over                      10026668     libucrt:fpctrl.obj
 0002:00006674       _under                     10026674     libucrt:fpctrl.obj
 0002:00006ea8       ?_names@?1??_get_fname@@9@4QBU<unnamed-type-_names>@?1??1@YAPADI@Z@B 10026ea8     libucrt:fpexcept.obj
 0002:00007050       two32                      10027050     LIBCMT:ftol2.obj
 0002:00007054       two63                      10027054     LIBCMT:ftol2.obj
 0002:00007058       _NaN                       10027058     LIBCMT:ftol2.obj
 0002:00007798       __sehtable$?_AtlVerifyStackAvailable@_ATL_SAFE_ALLOCA_IMPL@ATL@@YA_NK@Z 10027798     SoundRecorder.obj
 0002:000077b8       __sehtable$___scrt_is_nonwritable_in_current_image 100277b8     LIBCMT:utility.obj
 0002:000077d4       __catchsym$??2@YAPAXIABUnothrow_t@std@@@Z$2 100277d4     LIBCMT:new_scalar_nothrow.obj
 0002:000077e4       __unwindtable$??2@YAPAXIABUnothrow_t@std@@@Z 100277e4     LIBCMT:new_scalar_nothrow.obj
 0002:000077f4       __tryblocktable$??2@YAPAXIABUnothrow_t@std@@@Z 100277f4     LIBCMT:new_scalar_nothrow.obj
 0002:00007808       __ehfuncinfo$??2@YAPAXIABUnothrow_t@std@@@Z 10027808     LIBCMT:new_scalar_nothrow.obj
 0002:00007830       __sehtable$?dllmain_crt_process_attach@@YAHQAUHINSTANCE__@@QAX@Z 10027830     LIBCMT:dll_dllmain.obj
 0002:00007850       __sehtable$?dllmain_crt_process_detach@@YAH_N@Z 10027850     LIBCMT:dll_dllmain.obj
 0002:00007878       __sehtable$?dllmain_dispatch@@YAHQAUHINSTANCE__@@KQAX@Z 10027878     LIBCMT:dll_dllmain.obj
 0002:00007928       __sehtable$___DestructExceptionObject 10027928     libvcruntime:ehhelpers.obj
 0002:00007948       __sehtable$?FrameUnwindToState@__FrameHandler3@@SAXPAUEHRegistrationNode@@PAXPBU_s_FuncInfo@@H@Z 10027948     libvcruntime:frame.obj
 0002:00007970       __sehtable$?CallCatchBlock@@YAPAXPAUEHExceptionRecord@@PAUEHRegistrationNode@@PAU_CONTEXT@@PBU_s_FuncInfo@@PAXHK@Z 10027970     libvcruntime:frame.obj
 0002:00007998       __catchsym$?CallUnexpected@@YAXPBU_s_ESTypeList@@@Z$2 10027998     libvcruntime:frame.obj
 0002:000079a8       __unwindtable$?CallUnexpected@@YAXPBU_s_ESTypeList@@@Z 100279a8     libvcruntime:frame.obj
 0002:000079b8       __tryblocktable$?CallUnexpected@@YAXPBU_s_ESTypeList@@@Z 100279b8     libvcruntime:frame.obj
 0002:000079cc       __ehfuncinfo$?CallUnexpected@@YAXPBU_s_ESTypeList@@@Z 100279cc     libvcruntime:frame.obj
 0002:000079f0       __sehtable$??$BuildCatchObjectHelperInternal@V__FrameHandler3@@@@YAHPAUEHExceptionRecord@@PAXPBU_s_HandlerType@@PBU_s_CatchableType@@@Z 100279f0     libvcruntime:frame.obj
 0002:00007a10       __sehtable$??$BuildCatchObjectInternal@V__FrameHandler3@@@@YAXPAUEHExceptionRecord@@PAXPBU_s_HandlerType@@PBU_s_CatchableType@@@Z 10027a10     libvcruntime:frame.obj
 0002:00007a64       __ehfuncinfo$?write_double_translated_ansi_nolock@@YA?AUwrite_result@?A0x17268360@@HQBDIAAV__crt_cached_ptd_host@@@Z 10027a64     libucrt:write.obj
 0002:00007a64       __ehfuncinfo$?try_cor_exit_process@@YAXI@Z 10027a64     libucrt:exit.obj
 0002:00007a88       __unwindtable$?common_exit@@YAXHW4_crt_exit_cleanup_mode@@W4_crt_exit_return_mode@@@Z 10027a88     libucrt:exit.obj
 0002:00007a90       __ehfuncinfo$?common_exit@@YAXHW4_crt_exit_cleanup_mode@@W4_crt_exit_return_mode@@@Z 10027a90     libucrt:exit.obj
 0002:00007ab8       __sehtable$??R<lambda_6e4b09c48022b2350581041d5f6b0c4c>@@QBE@XZ 10027ab8     libucrt:exit.obj
 0002:00007ad8       __sehtable$??$?RV<lambda_03b1d95aef87969028cfba75ccab2455>@@AAV<lambda_6e4b09c48022b2350581041d5f6b0c4c>@@V<lambda_22bdf7517842c4b3e53723af5aa32b9e>@@@?$__crt_seh_guarded_call@X@@QAEX$$QAV<lambda_03b1d95aef87969028cfba75ccab2455>@@AAV<lambda_6e4b09c48022b2350581041d5f6b0c4c>@@$$QAV<lambda_22bdf7517842c4b3e53723af5aa32b9e>@@@Z 10027ad8     libucrt:exit.obj
 0002:00007af4       __unwindtable$___dcrt_uninitialize_environments_nolock 10027af4     libucrt:environment_initialization.obj
 0002:00007b04       __ehfuncinfo$___dcrt_uninitialize_environments_nolock 10027b04     libucrt:environment_initialization.obj
 0002:00007b28       __unwindtable$__execute_onexit_table 10027b28     libucrt:onexit.obj
 0002:00007b30       __ehfuncinfo$__execute_onexit_table 10027b30     libucrt:onexit.obj
 0002:00007b58       __sehtable$??$?RV<lambda_8e746cf0007f6ed984d6f78af1fec997>@@AAV<lambda_22ebabd17bc4fa466a2aca6d8deb888d>@@V<lambda_18ed0c0b38a6dc0daf1e7ac6d6adf05e>@@@?$__crt_seh_guarded_call@H@@QAEH$$QAV<lambda_8e746cf0007f6ed984d6f78af1fec997>@@AAV<lambda_22ebabd17bc4fa466a2aca6d8deb888d>@@$$QAV<lambda_18ed0c0b38a6dc0daf1e7ac6d6adf05e>@@@Z 10027b58     libucrt:onexit.obj
 0002:00007b78       __sehtable$??$?RV<lambda_69a2805e680e0e292e8ba93315fe43a8>@@AAV<lambda_f03950bc5685219e0bcd2087efbe011e>@@V<lambda_03fcd07e894ec930e3f35da366ca99d6>@@@?$__crt_seh_guarded_call@H@@QAEH$$QAV<lambda_69a2805e680e0e292e8ba93315fe43a8>@@AAV<lambda_f03950bc5685219e0bcd2087efbe011e>@@$$QAV<lambda_03fcd07e894ec930e3f35da366ca99d6>@@@Z 10027b78     libucrt:onexit.obj
 0002:00007b98       __sehtable$__query_new_handler 10027b98     libucrt:new_handler.obj
 0002:00007bb8       __sehtable$_terminate      10027bb8     libucrt:terminate.obj
 0002:00007bd8       __sehtable$??$?RV<lambda_15ade71b0218206bbe3333a0c9b79046>@@AAV<lambda_da44e0f8b0f19ba52fefafb335991732>@@V<lambda_207f2d024fc103971653565357d6cd41>@@@?$__crt_seh_guarded_call@X@@QAEX$$QAV<lambda_15ade71b0218206bbe3333a0c9b79046>@@AAV<lambda_da44e0f8b0f19ba52fefafb335991732>@@$$QAV<lambda_207f2d024fc103971653565357d6cd41>@@@Z 10027bd8     libucrt:per_thread_data.obj
 0002:00007bf8       __sehtable$??$?RV<lambda_a7e850c220f1c8d1e6efeecdedd162c6>@@AAV<lambda_46720907175c18b6c9d2717bc0d2d362>@@V<lambda_9048902d66e8d99359bc9897bbb930a8>@@@?$__crt_seh_guarded_call@X@@QAEX$$QAV<lambda_a7e850c220f1c8d1e6efeecdedd162c6>@@AAV<lambda_46720907175c18b6c9d2717bc0d2d362>@@$$QAV<lambda_9048902d66e8d99359bc9897bbb930a8>@@@Z 10027bf8     libucrt:per_thread_data.obj
 0002:00007c18       __sehtable$??$?RV<lambda_38edbb1296d33220d7e4dd0ed76b244a>@@AAV<lambda_5ce1d447e08cb34b2473517608e21441>@@V<lambda_fb385d3da700c9147fc39e65dd577a8c>@@@?$__crt_seh_guarded_call@X@@QAEX$$QAV<lambda_38edbb1296d33220d7e4dd0ed76b244a>@@AAV<lambda_5ce1d447e08cb34b2473517608e21441>@@$$QAV<lambda_fb385d3da700c9147fc39e65dd577a8c>@@@Z 10027c18     libucrt:per_thread_data.obj
 0002:00007c38       __sehtable$??$?RV<lambda_6affb1475c98b40b75cdec977db92e3c>@@AAV<lambda_b8d4b9c228a6ecc3f80208dbb4b4a104>@@V<lambda_608742c3c92a14382c1684fc64f96c88>@@@?$__crt_seh_guarded_call@X@@QAEX$$QAV<lambda_6affb1475c98b40b75cdec977db92e3c>@@AAV<lambda_b8d4b9c228a6ecc3f80208dbb4b4a104>@@$$QAV<lambda_608742c3c92a14382c1684fc64f96c88>@@@Z 10027c38     libucrt:per_thread_data.obj
 0002:00007c58       __sehtable$??$?RV<lambda_e5124f882df8998aaf41531e079ba474>@@AAV<lambda_3e16ef9562a7dcce91392c22ab16ea36>@@V<lambda_e25ca0880e6ef98be67edffd8c599615>@@@?$__crt_seh_guarded_call@X@@QAEX$$QAV<lambda_e5124f882df8998aaf41531e079ba474>@@AAV<lambda_3e16ef9562a7dcce91392c22ab16ea36>@@$$QAV<lambda_e25ca0880e6ef98be67edffd8c599615>@@@Z 10027c58     libucrt:wsetlocale.obj
 0002:00007c78       __sehtable$___acrt_initialize_lowio 10027c78     libucrt:ioinit.obj
 0002:00007c98       __sehtable$?update_thread_multibyte_data_internal@@YAPAU__crt_multibyte_data@@QAU__acrt_ptd@@QAPAU1@@Z 10027c98     libucrt:mbctype.obj
 0002:00007cb8       __sehtable$??$?RV<lambda_ceb1ee4838e85a9d631eb091e2fbe199>@@AAV<lambda_ae742caa10f662c28703da3d2ea5e57e>@@V<lambda_cd08b5d6af4937fe54fc07d0c9bf6b37>@@@?$__crt_seh_guarded_call@X@@QAEX$$QAV<lambda_ceb1ee4838e85a9d631eb091e2fbe199>@@AAV<lambda_ae742caa10f662c28703da3d2ea5e57e>@@$$QAV<lambda_cd08b5d6af4937fe54fc07d0c9bf6b37>@@@Z 10027cb8     libucrt:mbctype.obj
 0002:00007cd8       __sehtable$_raise          10027cd8     libucrt:signal.obj
 0002:00007cf8       __sehtable$??$?RV<lambda_cbab9ec6f41b0180b23cc171c22676b0>@@AAV<lambda_44731a7d0e6d81c3e6aa82d741081786>@@V<lambda_4b292cb8dd18144e164572427af410ab>@@@?$__crt_seh_guarded_call@P6AXH@Z@@QAEP6AXH@Z$$QAV<lambda_cbab9ec6f41b0180b23cc171c22676b0>@@AAV<lambda_44731a7d0e6d81c3e6aa82d741081786>@@$$QAV<lambda_4b292cb8dd18144e164572427af410ab>@@@Z 10027cf8     libucrt:signal.obj
 0002:00007d18       __sehtable$??$?RV<lambda_2866be3712abc81a800a822484c830d8>@@AAV<lambda_39ca0ed439415581b5b15c265174cece>@@V<lambda_2b24c74d71094a6cd0cb82e44167d71b>@@@?$__crt_seh_guarded_call@X@@QAEX$$QAV<lambda_2866be3712abc81a800a822484c830d8>@@AAV<lambda_39ca0ed439415581b5b15c265174cece>@@$$QAV<lambda_2b24c74d71094a6cd0cb82e44167d71b>@@@Z 10027d18     libucrt:fflush.obj
 0002:00007d38       __sehtable$??$?RV<lambda_2cc53f568c5a2bb6f192f930a45d44ea>@@AAV<lambda_ab61a845afdef5b7c387490eaf3616ee>@@V<lambda_c2ffc0b7726aa6be21d5f0026187e748>@@@?$__crt_seh_guarded_call@X@@QAEX$$QAV<lambda_2cc53f568c5a2bb6f192f930a45d44ea>@@AAV<lambda_ab61a845afdef5b7c387490eaf3616ee>@@$$QAV<lambda_c2ffc0b7726aa6be21d5f0026187e748>@@@Z 10027d38     libucrt:fflush.obj
 0002:00007d58       __sehtable$___acrt_update_thread_locale_data 10027d58     libucrt:locale_refcounting.obj
 0002:00007d78       __sehtable$__fcloseall     10027d78     libucrt:closeall.obj
 0002:00007d98       __sehtable$___acrt_lowio_ensure_fh_exists 10027d98     libucrt:osfinfo.obj
 0002:00007db8       __sehtable$??$?RV<lambda_9e9de3de5fa147e2223d7db92bc10aa6>@@AAV<lambda_38ce7e780aa69e748d6df282ebc68efe>@@V<lambda_8ca6da459f0f6780f1cff60fdc3d00e5>@@@?$__crt_seh_guarded_call@H@@QAEH$$QAV<lambda_9e9de3de5fa147e2223d7db92bc10aa6>@@AAV<lambda_38ce7e780aa69e748d6df282ebc68efe>@@$$QAV<lambda_8ca6da459f0f6780f1cff60fdc3d00e5>@@@Z 10027db8     libucrt:commit.obj
 0002:00007dd8       __sehtable$__write_internal 10027dd8     libucrt:write.obj
 0002:00007df8       __sehtable$?_fclose_internal@@YAHQAU_iobuf@@AAV__crt_cached_ptd_host@@@Z 10027df8     libucrt:fclose.obj
 0002:00007e18       __sehtable$??$?RV<lambda_d422a76eb4c3bf3ad751449ab71a6ea4>@@AAV<lambda_c9ba49e555ba839a7b07aa3fbecb7617>@@V<lambda_9476263c8ee91a25d21c55370bdb50de>@@@?$__crt_seh_guarded_call@H@@QAEH$$QAV<lambda_d422a76eb4c3bf3ad751449ab71a6ea4>@@AAV<lambda_c9ba49e555ba839a7b07aa3fbecb7617>@@$$QAV<lambda_9476263c8ee91a25d21c55370bdb50de>@@@Z 10027e18     libucrt:close.obj
 0002:00007e38       __sehtable$___set_fpsr_sse2 10027e38     libucrt:fpctrl.obj
 0002:00007e58       __sehtable$__IsNonwritableInCurrentImage 10027e58     LIBCMT:pesect.obj
 0002:00007e80       .edata                     10027e80     OPOSSoundRecorder.exp
 0002:00007ea8       rgpv                       10027ea8     OPOSSoundRecorder.exp
 0002:00007eb8       rgszName                   10027eb8     OPOSSoundRecorder.exp
 0002:00007ec8       rgwOrd                     10027ec8     OPOSSoundRecorder.exp
 0002:00007ed0       szName                     10027ed0     OPOSSoundRecorder.exp
 0002:00007ee6       $N00001                    10027ee6     OPOSSoundRecorder.exp
 0002:00007ef6       $N00002                    10027ef6     OPOSSoundRecorder.exp
 0002:00007f08       $N00003                    10027f08     OPOSSoundRecorder.exp
 0002:00007f1a       $N00004                    10027f1a     OPOSSoundRecorder.exp
 0002:0000852a       .idata$6                   1002852a     kernel32:KERNEL32.dll
 0002:0000873e       .idata$6                   1002873e     user32:USER32.dll
 0002:00008872       .idata$6                   10028872     gdi32:GDI32.dll
 0002:00008918       .idata$6                   10028918     advapi32:ADVAPI32.dll
 0002:00008a34       .idata$6                   10028a34     ole32:ole32.dll
 0002:00008a3e       .idata$6                   10028a3e     oleaut32:OLEAUT32.dll
 0003:00000110       ?ObjectMap@@3PAU_ATL_OBJMAP_ENTRY30@ATL@@A 10029110     SoundRecorder.obj
 0003:000001bc       ?s_RequiredMethodsPerRelease@@3PAHA 100291bc     SoundRecorderImpl.obj
 0003:000001c0       ?s_SOMethodNames@@3PAPADA  100291c0     SoundRecorderImpl.obj
 0003:00000230       ?__vcrt_flsindex@@3KA      10029230     libvcruntime:per_thread_data.obj
 0003:00000250       ?errno_no_memory@@3HA      10029250     libucrt:errno.obj
 0003:00000254       ?doserrno_no_memory@@3KA   10029254     libucrt:errno.obj
 0003:00000260       ?__acrt_flsindex@@3KA      10029260     libucrt:per_thread_data.obj
 0003:000005f8       __mbctypes                 100295f8     libucrt:mbctype.obj
 0003:00000700       __mbcasemaps               10029700     libucrt:mbctype.obj
 0003:00000800       ?__rgctypeflag@@3PADA      10029800     libucrt:mbctype.obj
 0003:00000808       ?__rgcode_page_info@@3PAUcode_page_info@@A 10029808     libucrt:mbctype.obj
 0003:00000a60       ?__dcrt_lowio_console_output_handle@@3PAXA 10029a60     libucrt:initcon.obj
 0003:00000a64       ?__DAZ_ENABLED@?1??__set_fpsr_sse2@@9@9 10029a64     libucrt:fpctrl.obj
 0003:00000bf8       ?is_initialized_as_dll@@3_NA 10029bf8     LIBCMT:utility.obj
 0003:00000bf9       ?module_local_atexit_table_initialized@@3_NA 10029bf9     LIBCMT:utility.obj
 0003:00000bfc       ?module_local_atexit_table@@3U_onexit_table_t@@A 10029bfc     LIBCMT:utility.obj
 0003:00000c08       ?module_local_at_quick_exit_table@@3U_onexit_table_t@@A 10029c08     LIBCMT:utility.obj
 0003:00000c14       ?g_tss_cv@@3U_RTL_CONDITION_VARIABLE@@A 10029c14     LIBCMT:thread_safe_statics.obj
 0003:00000c18       ?g_tss_event@@3PAXA        10029c18     LIBCMT:thread_safe_statics.obj
 0003:00000c1c       ?g_tss_mutex@@3U_RTL_CRITICAL_SECTION@@A 10029c1c     LIBCMT:thread_safe_statics.obj
 0003:00000c34       ?g_sleep_condition_variable_cs@@3P6GHPAU_RTL_CONDITION_VARIABLE@@PAU_RTL_CRITICAL_SECTION@@K@ZA 10029c34     LIBCMT:thread_safe_statics.obj
 0003:00000c38       ?g_wake_all_condition_variable@@3P6GXPAU_RTL_CONDITION_VARIABLE@@@ZA 10029c38     LIBCMT:thread_safe_statics.obj
 0003:00000c40       _GS_ExceptionRecord        10029c40     LIBCMT:gs_report.obj
 0003:00000c90       _GS_ContextRecord          10029c90     LIBCMT:gs_report.obj
 0003:00000f60       ?__proc_attached@@3HA      10029f60     LIBCMT:dll_dllmain.obj
 0003:00000fbc       ?AllocateData@@3P6GPAUAtlThunkData_t@@XZA 10029fbc     atls:atlthunk.obj
 0003:00000fc0       ?InitData@@3P6GXPAUAtlThunkData_t@@PAXI@ZA 10029fc0     atls:atlthunk.obj
 0003:00000fc4       ?DataToCode@@3P6GP6GJPAUHWND__@@IIJ@ZPAUAtlThunkData_t@@@ZA 10029fc4     atls:atlthunk.obj
 0003:00000fc8       ?FreeData@@3P6GXPAUAtlThunkData_t@@@ZA 10029fc8     atls:atlthunk.obj
 0003:00000fcc       ?Initialized@@3_NA         10029fcc     atls:atlthunk.obj
 0003:00000fdc       ?__vcrt_startup_thread_ptd@@3U__vcrt_ptd@@A 10029fdc     libvcruntime:per_thread_data.obj
 0003:00001004       ___vcrt_lock_table         1002a004     libvcruntime:locks.obj
 0003:0000101c       ___vcrt_locks_initialized  1002a01c     libvcruntime:locks.obj
 0003:00001048       ?heap@@3V_HeapManager@@A   1002a048     libvcruntime:undname.obj
 0003:0000105c       ?module_handles@@3PAPAUHINSTANCE__@@A 1002a05c     libvcruntime:winapi_downlevel.obj
 0003:00001068       ?function_pointers@@3PAPAXA 1002a068     libvcruntime:winapi_downlevel.obj
 0003:0000107c       ?__acrt_invalid_parameter_handler@@3V?$dual_state_global@P6AXPB_W00II@Z@__crt_state_management@@A 1002a07c     libucrt:invalid_parameter.obj
 0003:00001080       ?c_termination_complete@@3JA 1002a080     libucrt:exit.obj
 0003:00001084       ?thread_local_exit_callback_func@@3P6GXPAXK0@ZA 1002a084     libucrt:exit.obj
 0003:00001090       ?program_name@?1???$common_configure_argv@D@@YAHW4_crt_argv_mode@@@Z@4PADA 1002a090     libucrt:argv_parsing.obj
 0003:000011c0       ?__acrt_new_handler@@3V?$dual_state_global@P6AHI@Z@__crt_state_management@@A 1002a1c0     libucrt:new_handler.obj
 0003:000011d0       ?module_handles@@3PAPAUHINSTANCE__@@A 1002a1d0     libucrt:winapi_thunks.obj
 0003:00001220       ?encoded_function_pointers@@3PAPAXA 1002a220     libucrt:winapi_thunks.obj
 0003:000012a8       ?internal_state@?1??_mbtowc_internal@@9@4U_Mbstatet@@A 1002a2a8     libucrt:mbtowc.obj
 0003:000012b8       ?enable_percent_n@@3IA     1002a2b8     libucrt:printf_count_output.obj
 0003:000014d0       ?__acrt_lock_table@@3PAU_RTL_CRITICAL_SECTION@@A 1002a4d0     libucrt:locks.obj
 0003:00001620       ?__acrt_locks_initialized@@3IA 1002a620     libucrt:locks.obj
 0003:00001630       ?fSystemSet@@3HA           1002a630     libucrt:mbctype.obj
 0003:00001634       ?initialized@?1??__acrt_initialize_multibyte@@9@4_NA 1002a634     libucrt:mbctype.obj
 0003:00001654       ?ctrlc_action@@3V?$dual_state_global@P6AXH@Z@__crt_state_management@@A 1002a654     libucrt:signal.obj
 0003:00001658       ?ctrlbreak_action@@3V?$dual_state_global@P6AXH@Z@__crt_state_management@@A 1002a658     libucrt:signal.obj
 0003:0000165c       ?abort_action@@3V?$dual_state_global@P6AXH@Z@__crt_state_management@@A 1002a65c     libucrt:signal.obj
 0003:00001660       ?term_action@@3V?$dual_state_global@P6AXH@Z@__crt_state_management@@A 1002a660     libucrt:signal.obj
 0003:00001664       ?user_matherr@@3V?$dual_state_global@P6AHPAU_exception@@@Z@__crt_state_management@@A 1002a664     libucrt:matherr.obj
 0003:00001670       ?__acrt_global_new_mode@@3V?$dual_state_global@J@__crt_state_management@@A 1002a670     libucrt:new_mode.obj
 0003:00001674       ?internal_pst@?1??__mbrtoc32_utf8@__crt_mbstring@@YAIPA_UPBDIPAU_Mbstatet@@AAV__crt_cached_ptd_host@@@Z@4U3@A 1002a674     libucrt:mbrtoc32.obj
 0003:0000167c       ?__acrt_app_type@@3W4_crt_app_type@@A 1002a67c     libucrt:report_runtime_error.obj
 0003:00001684       __pmatherr_set             1002a684     libucrt:libm_error.obj
 0004:00000220       $R000000                   1002b220     SoundRecorder.res
 0004:00000b68       $R000948                   1002bb68     SoundRecorder.res
 0004:00000c50       $R000A30                   1002bc50     SoundRecorder.res
 0004:00000eb8       $R000C98                   1002beb8     SoundRecorder.res
 0004:00001390       $R001170                   1002c390     SoundRecorder.res
 0004:000042b0       $R004090                   1002f2b0     SoundRecorder.res
 0004:000042f0       $R0040D0                   1002f2f0     SoundRecorder.res
