 OPOSSigCap

 Timestamp is 5defab06 (Tue Dec 10 23:26:14 2019)

 Preferred load address is 10000000

 Start         Length     Name                   Class
 0001:00000000 00000080H .text$di                CODE
 0001:00000080 0001d883H .text$mn                CODE
 0001:0001d903 00000036H .text$x                 CODE
 0001:0001d939 00000042H .text$yd                CODE
 0002:00000000 000002fcH .idata$5                DATA
 0002:000002fc 00000004H .00cfg                  DATA
 0002:00000300 00000004H .CRT$XCA                DATA
 0002:00000304 00000004H .CRT$XCL                DATA
 0002:00000308 00000010H .CRT$XCU                DATA
 0002:00000318 00000004H .CRT$XCZ                DATA
 0002:0000031c 00000004H .CRT$XIA                DATA
 0002:00000320 00000010H .CRT$XIC                DATA
 0002:00000330 00000004H .CRT$XIZ                DATA
 0002:00000334 00000004H .CRT$XLA                DATA
 0002:00000338 00000004H .CRT$XLZ                DATA
 0002:0000033c 00000004H .CRT$XPA                DATA
 0002:00000340 00000008H .CRT$XPX                DATA
 0002:00000348 00000004H .CRT$XPXA               DATA
 0002:0000034c 00000004H .CRT$XPZ                DATA
 0002:00000350 00000004H .CRT$XTA                DATA
 0002:00000354 0000000cH .CRT$XTZ                DATA
 0002:00000358 00000000H .gfids$y                DATA
 0002:00000360 00006f0cH .rdata                  DATA
 0002:0000726c 00000018H .rdata$T                DATA
 0002:00007284 0000017cH .rdata$r                DATA
 0002:00007400 0000001cH .rdata$sxdata           DATA
 0002:0000741c 000003dcH .rdata$zzzdbg           DATA
 0002:000077f8 00000004H .rtc$IAA                DATA
 0002:000077fc 00000004H .rtc$IZZ                DATA
 0002:00007800 00000004H .rtc$TAA                DATA
 0002:00007804 00000004H .rtc$TZZ                DATA
 0002:00007808 00000004H .tls                    DATA
 0002:0000780c 00000004H .tls$                   DATA
 0002:00007810 00000008H .tls$ZZZ                DATA
 0002:00007818 0000060cH .xdata$x                DATA
 0002:00007e24 00000004H ATL$__a                 DATA
 0002:00007e28 00000008H ATL$__z                 DATA
 0002:00007e30 000000a8H .edata                  DATA
 0002:00007ed8 00000078H .idata$2                DATA
 0002:00007f50 00000014H .idata$3                DATA
 0002:00007f64 000002fcH .idata$4                DATA
 0002:00008260 00000bc8H .idata$6                DATA
 0003:00000000 00000ab0H .data                   DATA
 0003:00000ab0 00000098H .data$r                 DATA
 0003:00000b48 00000b80H .bss                    DATA
 0004:00000000 00000220H .rsrc$01                DATA
 0004:00000220 00003f78H .rsrc$02                DATA

  Address         Publics by Value              Rva+Base       Lib:Object

 0000:00000000       ___guard_fids_count        00000000     <absolute>
 0000:00000000       ___hybrid_code_map_count   00000000     <absolute>
 0000:00000000       ___guard_iat_count         00000000     <absolute>
 0000:00000000       ___hybrid_auxiliary_iat    00000000     <absolute>
 0000:00000000       ___volatile_metadata       00000000     <absolute>
 0000:00000000       ___dynamic_value_reloc_table 00000000     <absolute>
 0000:00000000       ___guard_longjmp_count     00000000     <absolute>
 0000:00000000       ___guard_fids_table        00000000     <absolute>
 0000:00000000       ___guard_longjmp_table     00000000     <absolute>
 0000:00000000       ___AbsoluteZero            00000000     <absolute>
 0000:00000000       __except_list              00000000     <absolute>
 0000:00000000       ___guard_iat_table         00000000     <absolute>
 0000:00000000       ___enclave_config          00000000     <absolute>
 0000:00000000       ___hybrid_code_map         00000000     <absolute>
 0000:00000007       ___safe_se_handler_count   00000007     <absolute>
 0000:0000002c       __tls_array                0000002c     <absolute>
 0000:00000100       ___guard_flags             00000100     <absolute>
 0000:00000000       ___ImageBase               10000000     <linker-defined>
 0001:00000080       ?DupWide@_CW@@AAEXXZ       10001080 f   CWString.obj
 0001:0000009c       ?cw_dup@@YGXPBDAAHAAPA_W1@Z 1000109c f   CWString.obj
 0001:00000124       ?cw_memcpy@@YGHPA_WPBDH@Z  10001124 f   CWString.obj
 0001:00000150       ?cw_strcpy@@YAHPA_WPBD@Z   10001150 f   CWString.obj
 0001:00000163       ?cw_strlen@@YAHPBD@Z       10001163 f   CWString.obj
 0001:0000017c       ??0CAtlComModule@ATL@@QAE@XZ 1000117c f i OposVariant.obj
 0001:000001c1       ??0CAtlWinModule@ATL@@QAE@XZ 100011c1 f i OposVariant.obj
 0001:000001f8       ??0OposDispParms@@QAE@PAVOposVariant@@H@Z 100011f8 f   OposVariant.obj
 0001:00000269       ??1OposDispParms@@QAE@XZ   10001269 f   OposVariant.obj
 0001:00000277       ??A?$CSimpleArray@GV?$CSimpleArrayEqualHelper@G@ATL@@@ATL@@QAEAAGH@Z 10001277 f i OposVariant.obj
 0001:0000029c       ??_Estringdispid@CComTypeInfoHolder@ATL@@QAEPAXI@Z 1000129c f i OposVariant.obj
 0001:00000308       ?AtlWinModuleInit@ATL@@YGJPAU_ATL_WIN_MODULE70@1@@Z 10001308 f i OposVariant.obj
 0001:0000032e       ?AtlWinModuleTerm@ATL@@YGJPAU_ATL_WIN_MODULE70@1@PAUHINSTANCE__@@@Z 1000132e f i OposVariant.obj
 0001:00000391       ?ChangeBSTR@OposVariant@@QAEXPAPA_WAAJ@Z 10001391 f   OposVariant.obj
 0001:000003d2       ?ChangeLONG@OposVariant@@QAEXPAJAAJ@Z 100013d2 f   OposVariant.obj
 0001:00000413       ?GetLONG@OposVariant@@QAEJXZ 10001413 f   OposVariant.obj
 0001:0000042e       ?Init@CComCriticalSection@ATL@@QAEJXZ 1000142e f i OposVariant.obj
 0001:00000456       ?RemoveAll@?$CSimpleArray@GV?$CSimpleArrayEqualHelper@G@ATL@@@ATL@@QAEXXZ 10001456 f i OposVariant.obj
 0001:00000456       ?RemoveAll@?$CSimpleArray@PAUHINSTANCE__@@V?$CSimpleArrayEqualHelper@PAUHINSTANCE__@@@ATL@@@ATL@@QAEXXZ 10001456 f i atls:atlbase.obj
 0001:00000473       ?SetBSTR@OposVariant@@QAEXPA_WAAJ@Z 10001473 f   OposVariant.obj
 0001:000004a7       ?SetBSTR_Copy@OposVariant@@QAEXPA_WAAJ@Z 100014a7 f   OposVariant.obj
 0001:000004f7       ?SetBSTR_InOutPtr@OposVariant@@QAE_NPAPA_WAAJ@Z 100014f7 f   OposVariant.obj
 0001:0000052e       ?SetDispatch_Ptr@OposVariant@@QAEXPAUIDispatch@@AAJ@Z 1000152e f   OposVariant.obj
 0001:00000569       ?SetLONG@OposVariant@@QAEXJ@Z 10001569 f   OposVariant.obj
 0001:0000058b       ?SetLONG_Ptr@OposVariant@@QAEXPAJAAJ@Z 1000158b f   OposVariant.obj
 0001:000005be       ?SetString@OposVariant@@QAEXPB_WAAJ@Z 100015be f   OposVariant.obj
 0001:00000604       ?SetVARIANT_BOOL@OposVariant@@QAEXF@Z 10001604 f   OposVariant.obj
 0001:0000062e       ?Term@CAtlComModule@ATL@@QAEXXZ 1000162e f i OposVariant.obj
 0001:00000678       ?_AtlRaiseException@ATL@@YAXKK@Z 10001678 f i OposVariant.obj
 0001:0000068d       ?CreateInstance@CComClassFactory@ATL@@UAGJPAUIUnknown@@ABU_GUID@@PAPAX@Z 1000168d f i SigCap.obj
 0001:000006cb       ?LockServer@CComClassFactory@ATL@@UAGJH@Z 100016cb f i SigCap.obj
 0001:000006ea       ??_GCComClassFactory@ATL@@UAEPAXI@Z 100016ea f i SigCap.obj
 0001:000006ea       ??_ECComClassFactory@ATL@@UAEPAXI@Z 100016ea f i SigCap.obj
 0001:00000715       ?GetWindowProc@?$CWindowImplBaseT@VCWindow@ATL@@V?$CWinTraits@$0FGAAAAAA@$0A@@2@@ATL@@UAEP6GJPAUHWND__@@IIJ@ZXZ 10001715 f i SigCap.obj
 0001:0000071b       ?StartWindowProc@?$CWindowImplBaseT@VCWindow@ATL@@V?$CWinTraits@$0FGAAAAAA@$0A@@2@@ATL@@SGJPAUHWND__@@IIJ@Z 1000171b f i SigCap.obj
 0001:0000076f       ?OnFinalMessage@?$CWindowImplBaseT@VCWindow@ATL@@V?$CWinTraits@$0FGAAAAAA@$0A@@2@@ATL@@UAEXPAUHWND__@@@Z 1000176f f i SigCap.obj
 0001:0000076f       ?ObjectMain@CComObjectRootBase@ATL@@SGX_N@Z 1000176f f i SigCap.obj
 0001:00000772       ?GetTypeInfoCount@?$IDispatchImpl@UIOPOSSigCap@@$1?IID_IOPOSSigCap@@3U_GUID@@B$1?LIBID_OposSigCap_CCO@@3U3@B$00$0A@VCComTypeInfoHolder@ATL@@@ATL@@UAGJPAI@Z 10001772 f i SigCap.obj
 0001:0000078f       ?GetTypeInfo@?$IDispatchImpl@UIOPOSSigCap@@$1?IID_IOPOSSigCap@@3U_GUID@@B$1?LIBID_OposSigCap_CCO@@3U3@B$00$0A@VCComTypeInfoHolder@ATL@@@ATL@@UAGJIKPAPAUITypeInfo@@@Z 1000178f f i SigCap.obj
 0001:000007b3       ?GetIDsOfNames@?$IDispatchImpl@UIOPOSSigCap@@$1?IID_IOPOSSigCap@@3U_GUID@@B$1?LIBID_OposSigCap_CCO@@3U3@B$00$0A@VCComTypeInfoHolder@ATL@@@ATL@@UAGJABU_GUID@@PAPA_WIKPAJ@Z 100017b3 f i SigCap.obj
 0001:000007d3       ?Invoke@?$IDispatchImpl@UIOPOSSigCap@@$1?IID_IOPOSSigCap@@3U_GUID@@B$1?LIBID_OposSigCap_CCO@@3U3@B$00$0A@VCComTypeInfoHolder@ATL@@@ATL@@UAGJJABU_GUID@@KGPAUtagDISPPARAMS@@PAUtagVARIANT@@PAUtagEXCEPINFO@@PAI@Z 100017d3 f i SigCap.obj
 0001:000007e1       ?CreateControlWindow@?$CComControl@VCOPOSSigCap@@V?$CWindowImpl@VCOPOSSigCap@@VCWindow@ATL@@V?$CWinTraits@$0FGAAAAAA@$0A@@3@@ATL@@@ATL@@UAEPAUHWND__@@PAU3@AAUtagRECT@@@Z 100017e1 f i SigCap.obj
 0001:00000810       ?ControlQueryInterface@?$CComControl@VCOPOSSigCap@@V?$CWindowImpl@VCOPOSSigCap@@VCWindow@ATL@@V?$CWinTraits@$0FGAAAAAA@$0A@@3@@ATL@@@ATL@@UAEJABU_GUID@@PAPAX@Z 10001810 f i SigCap.obj
 0001:0000082b       ?GetClassID@?$IPersistStorageImpl@VCOPOSSigCap@@@ATL@@UAGJPAU_GUID@@@Z 1000182b f i SigCap.obj
 0001:0000082b       ?GetUserClassID@?$IOleObjectImpl@VCOPOSSigCap@@@ATL@@UAGJPAU_GUID@@@Z 1000182b f i SigCap.obj
 0001:0000082b       ?GetClassID@?$IPersistStreamInitImpl@VCOPOSSigCap@@@ATL@@UAGJPAU_GUID@@@Z 1000182b f i SigCap.obj
 0001:0000084f       ?IsDirty@?$IPersistStreamInitImpl@VCOPOSSigCap@@@ATL@@UAGJXZ 1000184f f i SigCap.obj
 0001:0000086e       ?Load@?$IPersistStreamInitImpl@VCOPOSSigCap@@@ATL@@UAGJPAUIStream@@@Z 1000186e f i SigCap.obj
 0001:0000088d       ?Save@?$IPersistStreamInitImpl@VCOPOSSigCap@@@ATL@@UAGJPAUIStream@@H@Z 1000188d f i SigCap.obj
 0001:000008af       ?GetSizeMax@?$IPersistStreamInitImpl@VCOPOSSigCap@@@ATL@@UAGJPAT_ULARGE_INTEGER@@@Z 100018af f i SigCap.obj
 0001:00000a8e       ?InitNew@?$IPersistStreamInitImpl@VCOPOSSigCap@@@ATL@@UAGJXZ 10001a8e f i SigCap.obj
 0001:00000aab       ?SetColorScheme@?$IOleObjectImpl@VCOPOSSigCap@@@ATL@@UAGJPAUtagLOGPALETTE@@@Z 10001aab f i SigCap.obj
 0001:00000aab       ?GetDropTarget@?$IOleInPlaceObjectWindowlessImpl@VCOPOSSigCap@@@ATL@@UAGJPAPAUIDropTarget@@@Z 10001aab f i SigCap.obj
 0001:00000aab       ?QueryGetData@?$IDataObjectImpl@VCOPOSSigCap@@@ATL@@UAGJPAUtagFORMATETC@@@Z 10001aab f i SigCap.obj
 0001:00000aab       ?GetControlInfo@?$IOleControlImpl@VCOPOSSigCap@@@ATL@@UAGJPAUtagCONTROLINFO@@@Z 10001aab f i SigCap.obj
 0001:00000aab       ?OnMnemonic@?$IOleControlImpl@VCOPOSSigCap@@@ATL@@UAGJPAUtagMSG@@@Z 10001aab f i SigCap.obj
 0001:00000aab       ?Unfreeze@?$IViewObjectExImpl@VCOPOSSigCap@@@ATL@@UAGJK@Z 10001aab f i SigCap.obj
 0001:00000aab       ?ContextSensitiveHelp@?$IOleInPlaceObjectWindowlessImpl@VCOPOSSigCap@@@ATL@@UAGJH@Z 10001aab f i SigCap.obj
 0001:00000aab       ?ContextSensitiveHelp@?$IOleInPlaceActiveObjectImpl@VCOPOSSigCap@@@ATL@@UAGJH@Z 10001aab f i SigCap.obj
 0001:00000aab       ?SOOutputCompleteDummy@COPOSSigCap@@MAGJJ@Z 10001aab f i SigCap.obj
 0001:00000ab3       ?SaveCompleted@?$IPersistStorageImpl@VCOPOSSigCap@@@ATL@@UAGJPAUIStorage@@@Z 10001ab3 f i SigCap.obj
 0001:00000ab3       ?OnFrameWindowActivate@?$IOleInPlaceActiveObjectImpl@VCOPOSSigCap@@@ATL@@UAGJH@Z 10001ab3 f i SigCap.obj
 0001:00000ab3       ?OnAmbientPropertyChange@?$IOleControlImpl@VCOPOSSigCap@@@ATL@@UAGJJ@Z 10001ab3 f i SigCap.obj
 0001:00000ab3       ?EnableModeless@?$IOleInPlaceActiveObjectImpl@VCOPOSSigCap@@@ATL@@UAGJH@Z 10001ab3 f i SigCap.obj
 0001:00000ab8       ?SetClientSite@?$IOleObjectImpl@VCOPOSSigCap@@@ATL@@UAGJPAUIOleClientSite@@@Z 10001ab8 f i SigCap.obj
 0001:00000ad5       ?GetClientSite@?$IOleObjectImpl@VCOPOSSigCap@@@ATL@@UAGJPAPAUIOleClientSite@@@Z 10001ad5 f i SigCap.obj
 0001:00000af2       ?SetHostNames@?$IOleObjectImpl@VCOPOSSigCap@@@ATL@@UAGJPB_W0@Z 10001af2 f i SigCap.obj
 0001:00000af7       ?Close@?$IOleObjectImpl@VCOPOSSigCap@@@ATL@@UAGJK@Z 10001af7 f i SigCap.obj
 0001:00000b14       ?QueryInterface@CRegObject@ATL@@UAGJABU_GUID@@PAPAX@Z 10001b14 f i SigCap.obj
 0001:00000b14       ?GetCanonicalFormatEtc@?$IDataObjectImpl@VCOPOSSigCap@@@ATL@@UAGJPAUtagFORMATETC@@0@Z 10001b14 f i SigCap.obj
 0001:00000b14       ?GetClipboardData@?$IOleObjectImpl@VCOPOSSigCap@@@ATL@@UAGJKPAPAUIDataObject@@@Z 10001b14 f i SigCap.obj
 0001:00000b14       ?EnumFormatEtc@?$IDataObjectImpl@VCOPOSSigCap@@@ATL@@UAGJKPAPAUIEnumFORMATETC@@@Z 10001b14 f i SigCap.obj
 0001:00000b14       ?GetDataHere@?$IDataObjectImpl@VCOPOSSigCap@@@ATL@@UAGJPAUtagFORMATETC@@PAUtagSTGMEDIUM@@@Z 10001b14 f i SigCap.obj
 0001:00000b14       ?SetMoniker@?$IOleObjectImpl@VCOPOSSigCap@@@ATL@@UAGJKPAUIMoniker@@@Z 10001b14 f i SigCap.obj
 0001:00000b14       ?GetRect@?$IViewObjectExImpl@VCOPOSSigCap@@@ATL@@UAGJKPAU_RECTL@@@Z 10001b14 f i SigCap.obj
 0001:00000b1c       ?SetData@?$IDataObjectImpl@VCOPOSSigCap@@@ATL@@UAGJPAUtagFORMATETC@@PAUtagSTGMEDIUM@@H@Z 10001b1c f i SigCap.obj
 0001:00000b1c       ?GetMoniker@?$IOleObjectImpl@VCOPOSSigCap@@@ATL@@UAGJKKPAPAUIMoniker@@@Z 10001b1c f i SigCap.obj
 0001:00000b1c       ?InitFromData@?$IOleObjectImpl@VCOPOSSigCap@@@ATL@@UAGJPAUIDataObject@@HK@Z 10001b1c f i SigCap.obj
 0001:00000b24       ?DoVerb@?$IOleObjectImpl@VCOPOSSigCap@@@ATL@@UAGJJPAUtagMSG@@PAUIOleClientSite@@JPAUHWND__@@PBUtagRECT@@@Z 10001b24 f i SigCap.obj
 0001:00000c18       ?EnumVerbs@?$IOleObjectImpl@VCOPOSSigCap@@@ATL@@UAGJPAPAUIEnumOLEVERB@@@Z 10001c18 f i SigCap.obj
 0001:00000c3a       ?Release@CRegObject@ATL@@UAGKXZ 10001c3a f i SigCap.obj
 0001:00000c3a       ?IsUpToDate@?$IOleObjectImpl@VCOPOSSigCap@@@ATL@@UAGJXZ 10001c3a f i SigCap.obj
 0001:00000c3a       ?Update@?$IOleObjectImpl@VCOPOSSigCap@@@ATL@@UAGJXZ 10001c3a f i SigCap.obj
 0001:00000c3a       ?HandsOffStorage@?$IPersistStorageImpl@VCOPOSSigCap@@@ATL@@UAGJXZ 10001c3a f i SigCap.obj
 0001:00000c3f       ?GetUserType@?$IOleObjectImpl@VCOPOSSigCap@@@ATL@@UAGJKPAPA_W@Z 10001c3f f i SigCap.obj
 0001:00000c57       ?SetExtent@?$IOleObjectImpl@VCOPOSSigCap@@@ATL@@UAGJKPAUtagSIZE@@@Z 10001c57 f i SigCap.obj
 0001:00000c77       ?GetExtent@?$IOleObjectImpl@VCOPOSSigCap@@@ATL@@UAGJKPAUtagSIZE@@@Z 10001c77 f i SigCap.obj
 0001:00000cb5       ?Advise@?$IOleObjectImpl@VCOPOSSigCap@@@ATL@@UAGJPAUIAdviseSink@@PAK@Z 10001cb5 f i SigCap.obj
 0001:00000cd5       ?Unadvise@?$IOleObjectImpl@VCOPOSSigCap@@@ATL@@UAGJK@Z 10001cd5 f i SigCap.obj
 0001:00000d04       ?EnumAdvise@?$IOleObjectImpl@VCOPOSSigCap@@@ATL@@UAGJPAPAUIEnumSTATDATA@@@Z 10001d04 f i SigCap.obj
 0001:00000d44       ?GetMiscStatus@?$IOleObjectImpl@VCOPOSSigCap@@@ATL@@UAGJKPAK@Z 10001d44 f i SigCap.obj
 0001:00000d5c       ?GetWindow@?$IOleInPlaceActiveObjectImpl@VCOPOSSigCap@@@ATL@@UAGJPAPAUHWND__@@@Z 10001d5c f i SigCap.obj
 0001:00000da9       ?TranslateAcceleratorW@?$IOleInPlaceActiveObjectImpl@VCOPOSSigCap@@@ATL@@UAGJPAUtagMSG@@@Z 10001da9 f i SigCap.obj
 0001:00000e57       ?OnDocWindowActivate@?$IOleInPlaceActiveObjectImpl@VCOPOSSigCap@@@ATL@@UAGJH@Z 10001e57 f i SigCap.obj
 0001:00000e79       ?ResizeBorder@?$IOleInPlaceActiveObjectImpl@VCOPOSSigCap@@@ATL@@UAGJPBUtagRECT@@PAUIOleInPlaceUIWindow@@H@Z 10001e79 f i SigCap.obj
 0001:00000e7e       ?Draw@?$IViewObjectExImpl@VCOPOSSigCap@@@ATL@@UAGJKJPAXPAUtagDVTARGETDEVICE@@PAUHDC__@@2PBU_RECTL@@3P6GHK@ZK@Z 10001e7e f i SigCap.obj
 0001:00000eb0       ?GetColorSet@?$IViewObjectExImpl@VCOPOSSigCap@@@ATL@@UAGJKJPAXPAUtagDVTARGETDEVICE@@PAUHDC__@@PAPAUtagLOGPALETTE@@@Z 10001eb0 f i SigCap.obj
 0001:00000eb8       ?Freeze@?$IViewObjectExImpl@VCOPOSSigCap@@@ATL@@UAGJKJPAXPAK@Z 10001eb8 f i SigCap.obj
 0001:00000ec0       ?SetAdvise@?$IViewObjectExImpl@VCOPOSSigCap@@@ATL@@UAGJKKPAUIAdviseSink@@@Z 10001ec0 f i SigCap.obj
 0001:00000edf       ?GetAdvise@?$IViewObjectExImpl@VCOPOSSigCap@@@ATL@@UAGJPAK0PAPAUIAdviseSink@@@Z 10001edf f i SigCap.obj
 0001:00000f14       ?GetExtent@?$IViewObjectExImpl@VCOPOSSigCap@@@ATL@@UAGJKJPAUtagDVTARGETDEVICE@@PAUtagSIZE@@@Z 10001f14 f i SigCap.obj
 0001:00000f45       ?GetViewStatus@?$IViewObjectExImpl@VCOPOSSigCap@@@ATL@@UAGJPAK@Z 10001f45 f i SigCap.obj
 0001:00000f62       ?QueryHitPoint@?$IViewObjectExImpl@VCOPOSSigCap@@@ATL@@UAGJKPBUtagRECT@@UtagPOINT@@JPAK@Z 10001f62 f i SigCap.obj
 0001:00000fa3       ?QueryHitRect@?$IViewObjectExImpl@VCOPOSSigCap@@@ATL@@UAGJKPBUtagRECT@@0JPAK@Z 10001fa3 f i SigCap.obj
 0001:00000ffe       ?GetNaturalExtent@?$IViewObjectExImpl@VCOPOSSigCap@@@ATL@@UAGJKJPAUtagDVTARGETDEVICE@@PAUHDC__@@PAUtagExtentInfo@@PAUtagSIZE@@@Z 10001ffe f i SigCap.obj
 0001:00001049       ?GetWindow@?$IOleInPlaceObjectWindowlessImpl@VCOPOSSigCap@@@ATL@@UAGJPAPAUHWND__@@@Z 10002049 f i SigCap.obj
 0001:00001096       ?InPlaceDeactivate@?$IOleInPlaceObjectWindowlessImpl@VCOPOSSigCap@@@ATL@@UAGJXZ 10002096 f i SigCap.obj
 0001:000010b0       ?UIDeactivate@?$IOleInPlaceObjectWindowlessImpl@VCOPOSSigCap@@@ATL@@UAGJXZ 100020b0 f i SigCap.obj
 0001:000010ca       ?SetObjectRects@?$IOleInPlaceObjectWindowlessImpl@VCOPOSSigCap@@@ATL@@UAGJPBUtagRECT@@0@Z 100020ca f i SigCap.obj
 0001:000010ea       ?ReactivateAndUndo@?$IOleInPlaceObjectWindowlessImpl@VCOPOSSigCap@@@ATL@@UAGJXZ 100020ea f i SigCap.obj
 0001:000010f2       ?OnWindowMessage@?$IOleInPlaceObjectWindowlessImpl@VCOPOSSigCap@@@ATL@@UAGJIIJPAJ@Z 100020f2 f i SigCap.obj
 0001:00001162       ?EnumConnectionPoints@?$IConnectionPointContainerImpl@VCOPOSSigCap@@@ATL@@UAGJPAPAUIEnumConnectionPoints@@@Z 10002162 f i SigCap.obj
 0001:000012dc       ?FindConnectionPoint@?$IConnectionPointContainerImpl@VCOPOSSigCap@@@ATL@@UAGJABU_GUID@@PAPAUIConnectionPoint@@@Z 100022dc f i SigCap.obj
 0001:0000137f       ?IsDirty@?$IPersistStorageImpl@VCOPOSSigCap@@@ATL@@UAGJXZ 1000237f f i SigCap.obj
 0001:000013b3       ?InitNew@?$IPersistStorageImpl@VCOPOSSigCap@@@ATL@@UAGJPAUIStorage@@@Z 100023b3 f i SigCap.obj
 0001:000013e7       ?Load@?$IPersistStorageImpl@VCOPOSSigCap@@@ATL@@UAGJPAUIStorage@@@Z 100023e7 f i SigCap.obj
 0001:00001453       ?Save@?$IPersistStorageImpl@VCOPOSSigCap@@@ATL@@UAGJPAUIStorage@@H@Z 10002453 f i SigCap.obj
 0001:000014c6       ?GetPages@?$ISpecifyPropertyPagesImpl@VCOPOSSigCap@@@ATL@@UAGJPAUtagCAUUID@@@Z 100024c6 f i SigCap.obj
 0001:000014dd       ?QuickActivate@?$IQuickActivateImpl@VCOPOSSigCap@@@ATL@@UAGJPAUtagQACONTAINER@@PAUtagQACONTROL@@@Z 100024dd f i SigCap.obj
 0001:00001500       ?SetContentExtent@?$IQuickActivateImpl@VCOPOSSigCap@@@ATL@@UAGJPAUtagSIZE@@@Z 10002500 f i SigCap.obj
 0001:0000152c       ?GetContentExtent@?$IQuickActivateImpl@VCOPOSSigCap@@@ATL@@UAGJPAUtagSIZE@@@Z 1000252c f i SigCap.obj
 0001:00001566       ?GetData@?$IDataObjectImpl@VCOPOSSigCap@@@ATL@@UAGJPAUtagFORMATETC@@PAUtagSTGMEDIUM@@@Z 10002566 f i SigCap.obj
 0001:00001589       ?DAdvise@?$IDataObjectImpl@VCOPOSSigCap@@@ATL@@UAGJPAUtagFORMATETC@@KPAUIAdviseSink@@PAK@Z 10002589 f i SigCap.obj
 0001:000015ca       ?DUnadvise@?$IDataObjectImpl@VCOPOSSigCap@@@ATL@@UAGJK@Z 100025ca f i SigCap.obj
 0001:000015f8       ?EnumDAdvise@?$IDataObjectImpl@VCOPOSSigCap@@@ATL@@UAGJPAPAUIEnumSTATDATA@@@Z 100025f8 f i SigCap.obj
 0001:00001637       ?GetClassInfoW@?$IProvideClassInfo2Impl@$1?CLSID_OPOSSigCap@@3U_GUID@@B$1?DIID__IOPOSSigCapEvents@@3U2@B$1?LIBID_OposSigCap_CCO@@3U2@B$00$0A@VCComTypeInfoHolder@ATL@@@ATL@@UAGJPAPAUITypeInfo@@@Z 10002637 f i SigCap.obj
 0001:0000164d       ?GetGUID@?$IProvideClassInfo2Impl@$1?CLSID_OPOSSigCap@@3U_GUID@@B$1?DIID__IOPOSSigCapEvents@@3U2@B$1?LIBID_OposSigCap_CCO@@3U2@B$00$0A@VCComTypeInfoHolder@ATL@@@ATL@@UAGJKPAU_GUID@@@Z 1000264d f i SigCap.obj
 0001:0000168b       __get_startup_argv_mode    1000268b f i LIBCMT:argv_mode.obj
 0001:0000168b       ?FAccessAllowed@?$IObjectSafetyImpl@VCOPOSSigCap@@$02@ATL@@MAEHXZ 1000268b f i SigCap.obj
 0001:0000168f       ?GetInterfaceSafetyOptions@?$IObjectSafetyImpl@VCOPOSSigCap@@$02@ATL@@UAGJABU_GUID@@PAK1@Z 1000268f f i SigCap.obj
 0001:00001703       ?SetInterfaceSafetyOptions@?$IObjectSafetyImpl@VCOPOSSigCap@@$02@ATL@@UAGJABU_GUID@@KK@Z 10002703 f i SigCap.obj
 0001:0000177d       ?_LocCPQueryInterface@?$IConnectionPointImpl@VCOPOSSigCap@@$1?IID_IPropertyNotifySink@@3U_GUID@@BVCComDynamicUnkArray@ATL@@@ATL@@UAGJABU_GUID@@PAPAX@Z 1000277d f i SigCap.obj
 0001:0000177d       ?_LocCPQueryInterface@?$IConnectionPointImpl@VCOPOSSigCap@@$1?DIID__IOPOSSigCapEvents@@3U_GUID@@BVCComDynamicUnkArray@ATL@@@ATL@@UAGJABU_GUID@@PAPAX@Z 1000277d f i SigCap.obj
 0001:000017ca       ?GetConnectionInterface@?$IConnectionPointImpl@VCOPOSSigCap@@$1?IID_IPropertyNotifySink@@3U_GUID@@BVCComDynamicUnkArray@ATL@@@ATL@@UAGJPAU_GUID@@@Z 100027ca f i SigCap.obj
 0001:000017ee       ?GetConnectionPointContainer@?$IConnectionPointImpl@VCOPOSSigCap@@$1?IID_IPropertyNotifySink@@3U_GUID@@BVCComDynamicUnkArray@ATL@@@ATL@@UAGJPAPAUIConnectionPointContainer@@@Z 100027ee f i SigCap.obj
 0001:00001811       ?Advise@?$IConnectionPointImpl@VCOPOSSigCap@@$1?IID_IPropertyNotifySink@@3U_GUID@@BVCComDynamicUnkArray@ATL@@@ATL@@UAGJPAUIUnknown@@PAK@Z 10002811 f i SigCap.obj
 0001:00001811       ?Advise@?$IConnectionPointImpl@VCOPOSSigCap@@$1?DIID__IOPOSSigCapEvents@@3U_GUID@@BVCComDynamicUnkArray@ATL@@@ATL@@UAGJPAUIUnknown@@PAK@Z 10002811 f i SigCap.obj
 0001:000018b2       ?Unadvise@?$IConnectionPointImpl@VCOPOSSigCap@@$1?IID_IPropertyNotifySink@@3U_GUID@@BVCComDynamicUnkArray@ATL@@@ATL@@UAGJK@Z 100028b2 f i SigCap.obj
 0001:000018b2       ?Unadvise@?$IConnectionPointImpl@VCOPOSSigCap@@$1?DIID__IOPOSSigCapEvents@@3U_GUID@@BVCComDynamicUnkArray@ATL@@@ATL@@UAGJK@Z 100028b2 f i SigCap.obj
 0001:000018f2       ?EnumConnections@?$IConnectionPointImpl@VCOPOSSigCap@@$1?IID_IPropertyNotifySink@@3U_GUID@@BVCComDynamicUnkArray@ATL@@@ATL@@UAGJPAPAUIEnumConnections@@@Z 100028f2 f i SigCap.obj
 0001:000018f2       ?EnumConnections@?$IConnectionPointImpl@VCOPOSSigCap@@$1?DIID__IOPOSSigCapEvents@@3U_GUID@@BVCComDynamicUnkArray@ATL@@@ATL@@UAGJPAPAUIEnumConnections@@@Z 100028f2 f i SigCap.obj
 0001:000019f8       ?GetObjectDescription@?$CComCoClass@VCOPOSSigCap@@$1?CLSID_OPOSSigCap@@3U_GUID@@B@ATL@@SGPB_WXZ 100029f8 f i SigCap.obj
 0001:000019f8       ?GetCategoryMap@CComObjectRootBase@ATL@@SAPBU_ATL_CATMAP_ENTRY@2@XZ 100029f8 f i SigCap.obj
 0001:000019fb       ?GetConnectionInterface@?$IConnectionPointImpl@VCOPOSSigCap@@$1?DIID__IOPOSSigCapEvents@@3U_GUID@@BVCComDynamicUnkArray@ATL@@@ATL@@UAGJPAU_GUID@@@Z 100029fb f i SigCap.obj
 0001:00001a1f       ?GetConnectionPointContainer@?$IConnectionPointImpl@VCOPOSSigCap@@$1?DIID__IOPOSSigCapEvents@@3U_GUID@@BVCComDynamicUnkArray@ATL@@@ATL@@UAGJPAPAUIConnectionPointContainer@@@Z 10002a1f f i SigCap.obj
 0001:00001a42       ?UpdateRegistry@COPOSSigCap@@SGJH@Z 10002a42 f i SigCap.obj
 0001:00001a5a       ?ProcessWindowMessage@COPOSSigCap@@UAEHPAUHWND__@@IIJAAJK@Z 10002a5a f i SigCap.obj
 0001:00001aa3       ?SOData@COPOSSigCap@@MAGJJ@Z 10002aa3 f i SigCap.obj
 0001:00001adc       ?SODirectIO@COPOSSigCap@@MAGJJPAJPAPA_W@Z 10002adc f i SigCap.obj
 0001:00001b25       ?SOError@COPOSSigCap@@MAGJJJJPAJ@Z 10002b25 f i SigCap.obj
 0001:00001b7a       ?SOStatusUpdate@COPOSSigCap@@MAGJJ@Z 10002b7a f i SigCap.obj
 0001:00001bb3       ?Lock@CAtlModule@ATL@@UAEJXZ 10002bb3 f i SigCap.obj
 0001:00001bbd       ?Unlock@CAtlModule@ATL@@UAEJXZ 10002bbd f i SigCap.obj
 0001:00001bc7       ?GetLockCount@CAtlModule@ATL@@UAEJXZ 10002bc7 f i SigCap.obj
 0001:00001bcb       ?GetGITPtr@CAtlModule@ATL@@UAEJPAPAUIGlobalInterfaceTable@@@Z 10002bcb f i SigCap.obj
 0001:00001c17       ?AddCommonRGSReplacements@?$CAtlModuleT@VCComModule@ATL@@@ATL@@UAEJPAUIRegistrarBase@@@Z 10002c17 f i SigCap.obj
 0001:00001c31       ?UpdateRegistryFromResourceD@CComModule@ATL@@UAGJPB_WHPAU_ATL_REGMAP_ENTRY@2@@Z 10002c31 f i SigCap.obj
 0001:00001c31       ?UpdateRegistryFromResourceD@CComModule@ATL@@UAGJIHPAU_ATL_REGMAP_ENTRY@2@@Z 10002c31 f i SigCap.obj
 0001:00001c39       ?UpdateRegistryFromResource@CComModule@ATL@@UAGJPB_WHPAU_ATL_REGMAP_ENTRY@2@@Z 10002c39 f i SigCap.obj
 0001:00001c42       ?UpdateRegistryFromResource@CComModule@ATL@@UAGJIHPAU_ATL_REGMAP_ENTRY@2@@Z 10002c42 f i SigCap.obj
 0001:00001c4b       ?CreateInstance@?$CComCreator@V?$CComObjectCached@VCComClassFactory@ATL@@@ATL@@@ATL@@SGJPAXABU_GUID@@PAPAX@Z 10002c4b f i SigCap.obj
 0001:00001cf7       ??_ECComModule@ATL@@UAEPAXI@Z 10002cf7 f i SigCap.obj
 0001:00001cf7       ??_GCComModule@ATL@@UAEPAXI@Z 10002cf7 f i SigCap.obj
 0001:00001d1f       ?CreateInstance@?$CComCreator2@V?$CComCreator@V?$CComObject@VCOPOSSigCap@@@ATL@@@ATL@@V?$CComCreator@V?$CComAggObject@VCOPOSSigCap@@@ATL@@@2@@ATL@@SGJPAXABU_GUID@@PAPAX@Z 10002d1f f i SigCap.obj
 0001:00001d3f       ?AddRef@?$CComObjectCached@VCComClassFactory@ATL@@@ATL@@UAGKXZ 10002d3f f i SigCap.obj
 0001:00001d66       ?Release@?$CComObjectCached@VCComClassFactory@ATL@@@ATL@@UAGKXZ 10002d66 f i SigCap.obj
 0001:00001d9c       ?QueryInterface@?$CComObjectCached@VCComClassFactory@ATL@@@ATL@@UAGJABU_GUID@@PAPAX@Z 10002d9c f i SigCap.obj
 0001:00001db6       ??_G?$CComObjectCached@VCComClassFactory@ATL@@@ATL@@UAEPAXI@Z 10002db6 f i SigCap.obj
 0001:00001db6       ??_E?$CComObjectCached@VCComClassFactory@ATL@@@ATL@@UAEPAXI@Z 10002db6 f i SigCap.obj
 0001:00001dd8       ?Next@?$CComEnumImpl@UIEnumConnectionPoints@@$1?_GUID_b196b285_bab4_101a_b69c_00aa00341d07@@3U__s_GUID@@BPAUIConnectionPoint@@V?$_CopyInterface@UIConnectionPoint@@@ATL@@@ATL@@UAGJKPAPAUIConnectionPoint@@PAK@Z 10002dd8 f i SigCap.obj
 0001:00001eaf       ?Skip@?$CComEnumImpl@UIEnumConnectionPoints@@$1?_GUID_b196b285_bab4_101a_b69c_00aa00341d07@@3U__s_GUID@@BPAUIConnectionPoint@@V?$_CopyInterface@UIConnectionPoint@@@ATL@@@ATL@@UAGJK@Z 10002eaf f i SigCap.obj
 0001:00001edc       ?Reset@?$CComEnumImpl@UIEnumConnections@@$1?_GUID_b196b287_bab4_101a_b69c_00aa00341d07@@3U__s_GUID@@BUtagCONNECTDATA@@V?$_Copy@UtagCONNECTDATA@@@ATL@@@ATL@@UAGJXZ 10002edc f i SigCap.obj
 0001:00001edc       ?Reset@?$CComEnumImpl@UIEnumConnectionPoints@@$1?_GUID_b196b285_bab4_101a_b69c_00aa00341d07@@3U__s_GUID@@BPAUIConnectionPoint@@V?$_CopyInterface@UIConnectionPoint@@@ATL@@@ATL@@UAGJXZ 10002edc f i SigCap.obj
 0001:00001eee       ?Clone@?$CComEnumImpl@UIEnumConnectionPoints@@$1?_GUID_b196b285_bab4_101a_b69c_00aa00341d07@@3U__s_GUID@@BPAUIConnectionPoint@@V?$_CopyInterface@UIConnectionPoint@@@ATL@@@ATL@@UAGJPAPAUIEnumConnectionPoints@@@Z 10002eee f i SigCap.obj
 0001:00001fcf       ?AddRef@?$CComObject@V?$CComEnum@UIEnumConnections@@$1?_GUID_b196b287_bab4_101a_b69c_00aa00341d07@@3U__s_GUID@@BUtagCONNECTDATA@@V?$_Copy@UtagCONNECTDATA@@@ATL@@VCComSingleThreadModel@6@@ATL@@@ATL@@UAGKXZ 10002fcf f i SigCap.obj
 0001:00001fcf       ?AddRef@?$CComObject@V?$CComEnum@UIEnumConnectionPoints@@$1?_GUID_b196b285_bab4_101a_b69c_00aa00341d07@@3U__s_GUID@@BPAUIConnectionPoint@@V?$_CopyInterface@UIConnectionPoint@@@ATL@@VCComSingleThreadModel@6@@ATL@@@ATL@@UAGKXZ 10002fcf f i SigCap.obj
 0001:00001fe0       ?Release@?$CComObject@V?$CComEnum@UIEnumConnectionPoints@@$1?_GUID_b196b285_bab4_101a_b69c_00aa00341d07@@3U__s_GUID@@BPAUIConnectionPoint@@V?$_CopyInterface@UIConnectionPoint@@@ATL@@VCComSingleThreadModel@6@@ATL@@@ATL@@UAGKXZ 10002fe0 f i SigCap.obj
 0001:00001fe0       ?Release@?$CComObject@V?$CComEnum@UIEnumConnections@@$1?_GUID_b196b287_bab4_101a_b69c_00aa00341d07@@3U__s_GUID@@BUtagCONNECTDATA@@V?$_Copy@UtagCONNECTDATA@@@ATL@@VCComSingleThreadModel@6@@ATL@@@ATL@@UAGKXZ 10002fe0 f i SigCap.obj
 0001:0000201c       ?QueryInterface@?$CComObject@V?$CComEnum@UIEnumConnectionPoints@@$1?_GUID_b196b285_bab4_101a_b69c_00aa00341d07@@3U__s_GUID@@BPAUIConnectionPoint@@V?$_CopyInterface@UIConnectionPoint@@@ATL@@VCComSingleThreadModel@6@@ATL@@@ATL@@UAGJABU_GUID@@PAPAX@Z 1000301c f i SigCap.obj
 0001:00002036       ??_E?$CComObject@V?$CComEnum@UIEnumConnectionPoints@@$1?_GUID_b196b285_bab4_101a_b69c_00aa00341d07@@3U__s_GUID@@BPAUIConnectionPoint@@V?$_CopyInterface@UIConnectionPoint@@@ATL@@VCComSingleThreadModel@6@@ATL@@@ATL@@UAEPAXI@Z 10003036 f i SigCap.obj
 0001:00002036       ??_G?$CComObject@V?$CComEnum@UIEnumConnectionPoints@@$1?_GUID_b196b285_bab4_101a_b69c_00aa00341d07@@3U__s_GUID@@BPAUIConnectionPoint@@V?$_CopyInterface@UIConnectionPoint@@@ATL@@VCComSingleThreadModel@6@@ATL@@@ATL@@UAEPAXI@Z 10003036 f i SigCap.obj
 0001:00002058       ?AddRef@CRegObject@ATL@@UAGKXZ 10003058 f i SigCap.obj
 0001:0000205e       ?AddReplacement@CRegObject@ATL@@UAGJPB_W0@Z 1000305e f i SigCap.obj
 0001:00002097       ?ClearReplacements@CRegObject@ATL@@UAGJXZ 10003097 f i SigCap.obj
 0001:000020a9       ??_ECRegObject@ATL@@UAEPAXI@Z 100030a9 f i SigCap.obj
 0001:000020a9       ??_GCRegObject@ATL@@UAEPAXI@Z 100030a9 f i SigCap.obj
 0001:000020cb       ?AddRef@?$CComAggObject@VCOPOSSigCap@@@ATL@@UAGKXZ 100030cb f i SigCap.obj
 0001:000020dc       ?Release@?$CComAggObject@VCOPOSSigCap@@@ATL@@UAGKXZ 100030dc f i SigCap.obj
 0001:00002118       ?QueryInterface@?$CComAggObject@VCOPOSSigCap@@@ATL@@UAGJABU_GUID@@PAPAX@Z 10003118 f i SigCap.obj
 0001:00002167       ?AddRef@?$CComContainedObject@VCOPOSSigCap@@@ATL@@UAGKXZ 10003167 f i SigCap.obj
 0001:0000217d       ?Release@?$CComContainedObject@VCOPOSSigCap@@@ATL@@UAGKXZ 1000317d f i SigCap.obj
 0001:00002193       ?QueryInterface@?$CComContainedObject@VCOPOSSigCap@@@ATL@@UAGJABU_GUID@@PAPAX@Z 10003193 f i SigCap.obj
 0001:000021ae       ??_E?$CComAggObject@VCOPOSSigCap@@@ATL@@UAEPAXI@Z 100031ae f i SigCap.obj
 0001:000021ae       ??_G?$CComAggObject@VCOPOSSigCap@@@ATL@@UAEPAXI@Z 100031ae f i SigCap.obj
 0001:000021d3       ?AddRef@?$CComObject@VCOPOSSigCap@@@ATL@@UAGKXZ 100031d3 f i SigCap.obj
 0001:000021ea       ?Release@?$CComObject@VCOPOSSigCap@@@ATL@@UAGKXZ 100031ea f i SigCap.obj
 0001:0000222c       ?QueryInterface@?$CComObject@VCOPOSSigCap@@@ATL@@UAGJABU_GUID@@PAPAX@Z 1000322c f i SigCap.obj
 0001:00002246       ?OnDrawAdvanced@CComControlBase@ATL@@UAEJAAUATL_DRAWINFO@@@Z 10003246 f i SigCap.obj
 0001:00002339       ?Next@?$CComEnumImpl@UIEnumConnections@@$1?_GUID_b196b287_bab4_101a_b69c_00aa00341d07@@3U__s_GUID@@BUtagCONNECTDATA@@V?$_Copy@UtagCONNECTDATA@@@ATL@@@ATL@@UAGJKPAUtagCONNECTDATA@@PAK@Z 10003339 f i SigCap.obj
 0001:00002410       ?Skip@?$CComEnumImpl@UIEnumConnections@@$1?_GUID_b196b287_bab4_101a_b69c_00aa00341d07@@3U__s_GUID@@BUtagCONNECTDATA@@V?$_Copy@UtagCONNECTDATA@@@ATL@@@ATL@@UAGJK@Z 10003410 f i SigCap.obj
 0001:0000243d       ?Clone@?$CComEnumImpl@UIEnumConnections@@$1?_GUID_b196b287_bab4_101a_b69c_00aa00341d07@@3U__s_GUID@@BUtagCONNECTDATA@@V?$_Copy@UtagCONNECTDATA@@@ATL@@@ATL@@UAGJPAPAUIEnumConnections@@@Z 1000343d f i SigCap.obj
 0001:0000251e       ?QueryInterface@?$CComObject@V?$CComEnum@UIEnumConnections@@$1?_GUID_b196b287_bab4_101a_b69c_00aa00341d07@@3U__s_GUID@@BUtagCONNECTDATA@@V?$_Copy@UtagCONNECTDATA@@@ATL@@VCComSingleThreadModel@6@@ATL@@@ATL@@UAGJABU_GUID@@PAPAX@Z 1000351e f i SigCap.obj
 0001:00002538       ??_E?$CComObject@V?$CComEnum@UIEnumConnections@@$1?_GUID_b196b287_bab4_101a_b69c_00aa00341d07@@3U__s_GUID@@BUtagCONNECTDATA@@V?$_Copy@UtagCONNECTDATA@@@ATL@@VCComSingleThreadModel@6@@ATL@@@ATL@@UAEPAXI@Z 10003538 f i SigCap.obj
 0001:00002538       ??_G?$CComObject@V?$CComEnum@UIEnumConnections@@$1?_GUID_b196b287_bab4_101a_b69c_00aa00341d07@@3U__s_GUID@@BUtagCONNECTDATA@@V?$_Copy@UtagCONNECTDATA@@@ATL@@VCComSingleThreadModel@6@@ATL@@@ATL@@UAEPAXI@Z 10003538 f i SigCap.obj
 0001:0000255a       ??_E?$CComObject@VCOPOSSigCap@@@ATL@@W3AEPAXI@Z 1000355a f i SigCap.obj
 0001:00002562       ??_E?$CComObject@VCOPOSSigCap@@@ATL@@WEM@AEPAXI@Z 10003562 f i SigCap.obj
 0001:0000256a       ?QueryInterface@?$CComObject@VCOPOSSigCap@@@ATL@@WHA@AGJABU_GUID@@PAPAX@Z 1000356a f i SigCap.obj
 0001:00002574       ?AddRef@?$CComObject@VCOPOSSigCap@@@ATL@@WHA@AGKXZ 10003574 f i SigCap.obj
 0001:0000257e       ?Release@?$CComObject@VCOPOSSigCap@@@ATL@@WHA@AGKXZ 1000357e f i SigCap.obj
 0001:00002588       ?QueryInterface@?$CComObject@VCOPOSSigCap@@@ATL@@WHE@AGJABU_GUID@@PAPAX@Z 10003588 f i SigCap.obj
 0001:00002592       ?AddRef@?$CComObject@VCOPOSSigCap@@@ATL@@WHE@AGKXZ 10003592 f i SigCap.obj
 0001:0000259c       ?Release@?$CComObject@VCOPOSSigCap@@@ATL@@WHE@AGKXZ 1000359c f i SigCap.obj
 0001:000025a6       ?QueryInterface@?$CComObject@VCOPOSSigCap@@@ATL@@WHI@AGJABU_GUID@@PAPAX@Z 100035a6 f i SigCap.obj
 0001:000025b0       ?AddRef@?$CComObject@VCOPOSSigCap@@@ATL@@WHI@AGKXZ 100035b0 f i SigCap.obj
 0001:000025ba       ?Release@?$CComObject@VCOPOSSigCap@@@ATL@@WHI@AGKXZ 100035ba f i SigCap.obj
 0001:000025c4       ?QueryInterface@?$CComObject@VCOPOSSigCap@@@ATL@@WHM@AGJABU_GUID@@PAPAX@Z 100035c4 f i SigCap.obj
 0001:000025ce       ?AddRef@?$CComObject@VCOPOSSigCap@@@ATL@@WHM@AGKXZ 100035ce f i SigCap.obj
 0001:000025d8       ?Release@?$CComObject@VCOPOSSigCap@@@ATL@@WHM@AGKXZ 100035d8 f i SigCap.obj
 0001:000025e2       ?QueryInterface@?$CComObject@VCOPOSSigCap@@@ATL@@WIA@AGJABU_GUID@@PAPAX@Z 100035e2 f i SigCap.obj
 0001:000025ef       ?AddRef@?$CComObject@VCOPOSSigCap@@@ATL@@WIA@AGKXZ 100035ef f i SigCap.obj
 0001:000025fc       ?Release@?$CComObject@VCOPOSSigCap@@@ATL@@WIA@AGKXZ 100035fc f i SigCap.obj
 0001:00002609       ?QueryInterface@?$CComObject@VCOPOSSigCap@@@ATL@@WIE@AGJABU_GUID@@PAPAX@Z 10003609 f i SigCap.obj
 0001:00002616       ?AddRef@?$CComObject@VCOPOSSigCap@@@ATL@@WIE@AGKXZ 10003616 f i SigCap.obj
 0001:00002623       ?Release@?$CComObject@VCOPOSSigCap@@@ATL@@WIE@AGKXZ 10003623 f i SigCap.obj
 0001:00002630       ?QueryInterface@?$CComObject@VCOPOSSigCap@@@ATL@@WII@AGJABU_GUID@@PAPAX@Z 10003630 f i SigCap.obj
 0001:0000263d       ?AddRef@?$CComObject@VCOPOSSigCap@@@ATL@@WII@AGKXZ 1000363d f i SigCap.obj
 0001:0000264a       ?Release@?$CComObject@VCOPOSSigCap@@@ATL@@WII@AGKXZ 1000364a f i SigCap.obj
 0001:00002657       ?QueryInterface@?$CComObject@VCOPOSSigCap@@@ATL@@WIM@AGJABU_GUID@@PAPAX@Z 10003657 f i SigCap.obj
 0001:00002664       ?AddRef@?$CComObject@VCOPOSSigCap@@@ATL@@WIM@AGKXZ 10003664 f i SigCap.obj
 0001:00002671       ?Release@?$CComObject@VCOPOSSigCap@@@ATL@@WIM@AGKXZ 10003671 f i SigCap.obj
 0001:0000267e       ?QueryInterface@?$CComObject@VCOPOSSigCap@@@ATL@@WJA@AGJABU_GUID@@PAPAX@Z 1000367e f i SigCap.obj
 0001:0000268b       ?AddRef@?$CComObject@VCOPOSSigCap@@@ATL@@WJA@AGKXZ 1000368b f i SigCap.obj
 0001:00002698       ?Release@?$CComObject@VCOPOSSigCap@@@ATL@@WJA@AGKXZ 10003698 f i SigCap.obj
 0001:000026a5       ?QueryInterface@?$CComObject@VCOPOSSigCap@@@ATL@@WJE@AGJABU_GUID@@PAPAX@Z 100036a5 f i SigCap.obj
 0001:000026b2       ?AddRef@?$CComObject@VCOPOSSigCap@@@ATL@@WJE@AGKXZ 100036b2 f i SigCap.obj
 0001:000026bf       ?Release@?$CComObject@VCOPOSSigCap@@@ATL@@WJE@AGKXZ 100036bf f i SigCap.obj
 0001:000026cc       ?QueryInterface@?$CComObject@VCOPOSSigCap@@@ATL@@WJI@AGJABU_GUID@@PAPAX@Z 100036cc f i SigCap.obj
 0001:000026d9       ?AddRef@?$CComObject@VCOPOSSigCap@@@ATL@@WJI@AGKXZ 100036d9 f i SigCap.obj
 0001:000026e6       ?Release@?$CComObject@VCOPOSSigCap@@@ATL@@WJI@AGKXZ 100036e6 f i SigCap.obj
 0001:000026f3       ?QueryInterface@?$CComObject@VCOPOSSigCap@@@ATL@@WJM@AGJABU_GUID@@PAPAX@Z 100036f3 f i SigCap.obj
 0001:00002700       ?AddRef@?$CComObject@VCOPOSSigCap@@@ATL@@WJM@AGKXZ 10003700 f i SigCap.obj
 0001:0000270d       ?Release@?$CComObject@VCOPOSSigCap@@@ATL@@WJM@AGKXZ 1000370d f i SigCap.obj
 0001:0000271a       ?QueryInterface@?$CComObject@VCOPOSSigCap@@@ATL@@WKA@AGJABU_GUID@@PAPAX@Z 1000371a f i SigCap.obj
 0001:00002727       ?AddRef@?$CComObject@VCOPOSSigCap@@@ATL@@WKA@AGKXZ 10003727 f i SigCap.obj
 0001:00002734       ?Release@?$CComObject@VCOPOSSigCap@@@ATL@@WKA@AGKXZ 10003734 f i SigCap.obj
 0001:00002741       ?AddRef@?$CComObject@VCOPOSSigCap@@@ATL@@WKI@AGKXZ 10003741 f i SigCap.obj
 0001:0000274e       ?Release@?$CComObject@VCOPOSSigCap@@@ATL@@WKI@AGKXZ 1000374e f i SigCap.obj
 0001:0000275b       ?AddRef@?$CComObject@VCOPOSSigCap@@@ATL@@WLE@AGKXZ 1000375b f i SigCap.obj
 0001:00002768       ?Release@?$CComObject@VCOPOSSigCap@@@ATL@@WLE@AGKXZ 10003768 f i SigCap.obj
 0001:00002775       ??_E?$CComContainedObject@VCOPOSSigCap@@@ATL@@W3AEPAXI@Z 10003775 f i SigCap.obj
 0001:0000277d       ??_E?$CComContainedObject@VCOPOSSigCap@@@ATL@@WEM@AEPAXI@Z 1000377d f i SigCap.obj
 0001:00002785       ?QueryInterface@?$CComContainedObject@VCOPOSSigCap@@@ATL@@WHA@AGJABU_GUID@@PAPAX@Z 10003785 f i SigCap.obj
 0001:0000278f       ?AddRef@?$CComContainedObject@VCOPOSSigCap@@@ATL@@WHA@AGKXZ 1000378f f i SigCap.obj
 0001:00002799       ?Release@?$CComContainedObject@VCOPOSSigCap@@@ATL@@WHA@AGKXZ 10003799 f i SigCap.obj
 0001:000027a3       ?QueryInterface@?$CComContainedObject@VCOPOSSigCap@@@ATL@@WHE@AGJABU_GUID@@PAPAX@Z 100037a3 f i SigCap.obj
 0001:000027ad       ?AddRef@?$CComContainedObject@VCOPOSSigCap@@@ATL@@WHE@AGKXZ 100037ad f i SigCap.obj
 0001:000027b7       ?Release@?$CComContainedObject@VCOPOSSigCap@@@ATL@@WHE@AGKXZ 100037b7 f i SigCap.obj
 0001:000027c1       ?QueryInterface@?$CComContainedObject@VCOPOSSigCap@@@ATL@@WHI@AGJABU_GUID@@PAPAX@Z 100037c1 f i SigCap.obj
 0001:000027cb       ?AddRef@?$CComContainedObject@VCOPOSSigCap@@@ATL@@WHI@AGKXZ 100037cb f i SigCap.obj
 0001:000027d5       ?Release@?$CComContainedObject@VCOPOSSigCap@@@ATL@@WHI@AGKXZ 100037d5 f i SigCap.obj
 0001:000027df       ?QueryInterface@?$CComContainedObject@VCOPOSSigCap@@@ATL@@WHM@AGJABU_GUID@@PAPAX@Z 100037df f i SigCap.obj
 0001:000027e9       ?AddRef@?$CComContainedObject@VCOPOSSigCap@@@ATL@@WHM@AGKXZ 100037e9 f i SigCap.obj
 0001:000027f3       ?Release@?$CComContainedObject@VCOPOSSigCap@@@ATL@@WHM@AGKXZ 100037f3 f i SigCap.obj
 0001:000027fd       ?QueryInterface@?$CComContainedObject@VCOPOSSigCap@@@ATL@@WIA@AGJABU_GUID@@PAPAX@Z 100037fd f i SigCap.obj
 0001:0000280a       ?AddRef@?$CComContainedObject@VCOPOSSigCap@@@ATL@@WIA@AGKXZ 1000380a f i SigCap.obj
 0001:00002817       ?Release@?$CComContainedObject@VCOPOSSigCap@@@ATL@@WIA@AGKXZ 10003817 f i SigCap.obj
 0001:00002824       ?QueryInterface@?$CComContainedObject@VCOPOSSigCap@@@ATL@@WIE@AGJABU_GUID@@PAPAX@Z 10003824 f i SigCap.obj
 0001:00002831       ?AddRef@?$CComContainedObject@VCOPOSSigCap@@@ATL@@WIE@AGKXZ 10003831 f i SigCap.obj
 0001:0000283e       ?Release@?$CComContainedObject@VCOPOSSigCap@@@ATL@@WIE@AGKXZ 1000383e f i SigCap.obj
 0001:0000284b       ?QueryInterface@?$CComContainedObject@VCOPOSSigCap@@@ATL@@WII@AGJABU_GUID@@PAPAX@Z 1000384b f i SigCap.obj
 0001:00002858       ?AddRef@?$CComContainedObject@VCOPOSSigCap@@@ATL@@WII@AGKXZ 10003858 f i SigCap.obj
 0001:00002865       ?Release@?$CComContainedObject@VCOPOSSigCap@@@ATL@@WII@AGKXZ 10003865 f i SigCap.obj
 0001:00002872       ?QueryInterface@?$CComContainedObject@VCOPOSSigCap@@@ATL@@WIM@AGJABU_GUID@@PAPAX@Z 10003872 f i SigCap.obj
 0001:0000287f       ?AddRef@?$CComContainedObject@VCOPOSSigCap@@@ATL@@WIM@AGKXZ 1000387f f i SigCap.obj
 0001:0000288c       ?Release@?$CComContainedObject@VCOPOSSigCap@@@ATL@@WIM@AGKXZ 1000388c f i SigCap.obj
 0001:00002899       ?QueryInterface@?$CComContainedObject@VCOPOSSigCap@@@ATL@@WJA@AGJABU_GUID@@PAPAX@Z 10003899 f i SigCap.obj
 0001:000028a6       ?AddRef@?$CComContainedObject@VCOPOSSigCap@@@ATL@@WJA@AGKXZ 100038a6 f i SigCap.obj
 0001:000028b3       ?Release@?$CComContainedObject@VCOPOSSigCap@@@ATL@@WJA@AGKXZ 100038b3 f i SigCap.obj
 0001:000028c0       ?QueryInterface@?$CComContainedObject@VCOPOSSigCap@@@ATL@@WJE@AGJABU_GUID@@PAPAX@Z 100038c0 f i SigCap.obj
 0001:000028cd       ?AddRef@?$CComContainedObject@VCOPOSSigCap@@@ATL@@WJE@AGKXZ 100038cd f i SigCap.obj
 0001:000028da       ?Release@?$CComContainedObject@VCOPOSSigCap@@@ATL@@WJE@AGKXZ 100038da f i SigCap.obj
 0001:000028e7       ?QueryInterface@?$CComContainedObject@VCOPOSSigCap@@@ATL@@WJI@AGJABU_GUID@@PAPAX@Z 100038e7 f i SigCap.obj
 0001:000028f4       ?AddRef@?$CComContainedObject@VCOPOSSigCap@@@ATL@@WJI@AGKXZ 100038f4 f i SigCap.obj
 0001:00002901       ?Release@?$CComContainedObject@VCOPOSSigCap@@@ATL@@WJI@AGKXZ 10003901 f i SigCap.obj
 0001:0000290e       ?QueryInterface@?$CComContainedObject@VCOPOSSigCap@@@ATL@@WJM@AGJABU_GUID@@PAPAX@Z 1000390e f i SigCap.obj
 0001:0000291b       ?AddRef@?$CComContainedObject@VCOPOSSigCap@@@ATL@@WJM@AGKXZ 1000391b f i SigCap.obj
 0001:00002928       ?Release@?$CComContainedObject@VCOPOSSigCap@@@ATL@@WJM@AGKXZ 10003928 f i SigCap.obj
 0001:00002935       ?QueryInterface@?$CComContainedObject@VCOPOSSigCap@@@ATL@@WKA@AGJABU_GUID@@PAPAX@Z 10003935 f i SigCap.obj
 0001:00002942       ?AddRef@?$CComContainedObject@VCOPOSSigCap@@@ATL@@WKA@AGKXZ 10003942 f i SigCap.obj
 0001:0000294f       ?Release@?$CComContainedObject@VCOPOSSigCap@@@ATL@@WKA@AGKXZ 1000394f f i SigCap.obj
 0001:0000295c       ?AddRef@?$CComContainedObject@VCOPOSSigCap@@@ATL@@WKI@AGKXZ 1000395c f i SigCap.obj
 0001:00002969       ?Release@?$CComContainedObject@VCOPOSSigCap@@@ATL@@WKI@AGKXZ 10003969 f i SigCap.obj
 0001:00002976       ?AddRef@?$CComContainedObject@VCOPOSSigCap@@@ATL@@WLE@AGKXZ 10003976 f i SigCap.obj
 0001:00002983       ?Release@?$CComContainedObject@VCOPOSSigCap@@@ATL@@WLE@AGKXZ 10003983 f i SigCap.obj
 0001:00002990       ??$?4UITypeInfo2@@@?$CComPtr@UITypeInfo@@@ATL@@QAEPAUITypeInfo@@ABV?$CComPtr@UITypeInfo2@@@1@@Z 10003990 f i SigCap.obj
 0001:000029bd       ??$AtlAdd@K@ATL@@YAJPAKKK@Z 100039bd f i SigCap.obj
 0001:000029e0       ??$AtlAdd@_K@ATL@@YAJPA_K_K1@Z 100039e0 f i SigCap.obj
 0001:00002a18       ??$AtlAddThrow@K@ATL@@YAKKK@Z 10003a18 f i SigCap.obj
 0001:00002a3e       ??$AtlModuleRegisterWndClassInfoT@VAtlModuleRegisterWndClassInfoParamW@ATL@@@ATL@@YAGPAU_ATL_BASE_MODULE70@0@PAU_ATL_WIN_MODULE70@0@PAU_ATL_WNDCLASSINFOW@0@PAP6GJPAUHWND__@@IIJ@ZVAtlModuleRegisterWndClassInfoParamW@0@@Z 10003a3e f i SigCap.obj
 0001:00002b8c       ??$AtlMultiply@H@ATL@@YAJPAHHH@Z 10003b8c f i SigCap.obj
 0001:00002bc4       ??$AtlMultiply@K@ATL@@YAJPAKKK@Z 10003bc4 f i SigCap.obj
 0001:00002bc4       ??$AtlMultiply@I@ATL@@YAJPAIII@Z 10003bc4 f i SigCap.obj
 0001:00002be6       ??$AtlMultiplyThrow@I@ATL@@YAIII@Z 10003be6 f i SigCap.obj
 0001:00002c0c       ??0?$CComAggObject@VCOPOSSigCap@@@ATL@@QAE@PAX@Z 10003c0c f i SigCap.obj
 0001:00002c39       ??0?$CComContainedObject@VCOPOSSigCap@@@ATL@@QAE@PAX@Z 10003c39 f i SigCap.obj
 0001:00002cf2       ??0?$CComObject@V?$CComEnum@UIEnumConnectionPoints@@$1?_GUID_b196b285_bab4_101a_b69c_00aa00341d07@@3U__s_GUID@@BPAUIConnectionPoint@@V?$_CopyInterface@UIConnectionPoint@@@ATL@@VCComSingleThreadModel@6@@ATL@@@ATL@@QAE@PAX@Z 10003cf2 f i SigCap.obj
 0001:00002d20       ??0?$CComObject@V?$CComEnum@UIEnumConnections@@$1?_GUID_b196b287_bab4_101a_b69c_00aa00341d07@@3U__s_GUID@@BUtagCONNECTDATA@@V?$_Copy@UtagCONNECTDATA@@@ATL@@VCComSingleThreadModel@6@@ATL@@@ATL@@QAE@PAX@Z 10003d20 f i SigCap.obj
 0001:00002d4e       ??0?$CComObject@VCOPOSSigCap@@@ATL@@QAE@PAX@Z 10003d4e f i SigCap.obj
 0001:00002e05       ??0?$CComQIPtr@UIOleControlSite@@$1?_GUID_b196b289_bab4_101a_b69c_00aa00341d07@@3U__s_GUID@@B@ATL@@QAE@PAUIUnknown@@@Z 10003e05 f i SigCap.obj
 0001:00002e2e       ??0CAtlModule@ATL@@QAE@XZ  10003e2e f i SigCap.obj
 0001:00002e6f       ??0CParseBuffer@CRegParser@ATL@@QAE@H@Z 10003e6f f i SigCap.obj
 0001:00002ea5       ??0_ATL_MSG@ATL@@QAE@PAUHWND__@@IIJH@Z 10003ea5 f i SigCap.obj
 0001:00002edd       ??1?$CComAggObject@VCOPOSSigCap@@@ATL@@UAE@XZ 10003edd f i SigCap.obj
 0001:00002f01       ??1?$CComEnumImpl@UIEnumConnectionPoints@@$1?_GUID_b196b285_bab4_101a_b69c_00aa00341d07@@3U__s_GUID@@BPAUIConnectionPoint@@V?$_CopyInterface@UIConnectionPoint@@@ATL@@@ATL@@UAE@XZ 10003f01 f i SigCap.obj
 0001:00002f41       ??1?$CComEnumImpl@UIEnumConnections@@$1?_GUID_b196b287_bab4_101a_b69c_00aa00341d07@@3U__s_GUID@@BUtagCONNECTDATA@@V?$_Copy@UtagCONNECTDATA@@@ATL@@@ATL@@UAE@XZ 10003f41 f i SigCap.obj
 0001:00002f81       ??1?$CComObject@V?$CComEnum@UIEnumConnectionPoints@@$1?_GUID_b196b285_bab4_101a_b69c_00aa00341d07@@3U__s_GUID@@BPAUIConnectionPoint@@V?$_CopyInterface@UIConnectionPoint@@@ATL@@VCComSingleThreadModel@6@@ATL@@@ATL@@UAE@XZ 10003f81 f i SigCap.obj
 0001:00002fa4       ??1?$CComObject@V?$CComEnum@UIEnumConnections@@$1?_GUID_b196b287_bab4_101a_b69c_00aa00341d07@@3U__s_GUID@@BUtagCONNECTDATA@@V?$_Copy@UtagCONNECTDATA@@@ATL@@VCComSingleThreadModel@6@@ATL@@@ATL@@UAE@XZ 10003fa4 f i SigCap.obj
 0001:00002fc7       ??1?$CComObject@VCOPOSSigCap@@@ATL@@UAE@XZ 10003fc7 f i SigCap.obj
 0001:00003085       ??1?$CComObjectCached@VCComClassFactory@ATL@@@ATL@@UAE@XZ 10004085 f i SigCap.obj
 0001:0000309b       ??1?$CComObjectRootEx@VCComMultiThreadModel@ATL@@@ATL@@QAE@XZ 1000409b f i SigCap.obj
 0001:000030b0       ??1CRegObject@ATL@@UAE@XZ  100040b0 f i SigCap.obj
 0001:000030d0       ??4?$CComPtr@UIAdviseSink@@@ATL@@QAEPAUIAdviseSink@@PAU2@@Z 100040d0 f i SigCap.obj
 0001:000030d0       ??4?$CComPtr@UIOleClientSite@@@ATL@@QAEPAUIOleClientSite@@PAU2@@Z 100040d0 f i SigCap.obj
 0001:000030d0       ??4?$CComPtr@UIUnknown@@@ATL@@QAEPAUIUnknown@@PAU2@@Z 100040d0 f i SigCap.obj
 0001:00003104       ??_G?$CComContainedObject@VCOPOSSigCap@@@ATL@@UAEPAXI@Z 10004104 f i SigCap.obj
 0001:00003104       ??_E?$CComContainedObject@VCOPOSSigCap@@@ATL@@UAEPAXI@Z 10004104 f i SigCap.obj
 0001:00003129       ??_G?$CComObject@VCOPOSSigCap@@@ATL@@UAEPAXI@Z 10004129 f i SigCap.obj
 0001:00003129       ??_E?$CComObject@VCOPOSSigCap@@@ATL@@UAEPAXI@Z 10004129 f i SigCap.obj
 0001:0000314e       ?Add@?$CSimpleArray@GV?$CSimpleArrayEqualHelper@G@ATL@@@ATL@@QAEHABG@Z 1000414e f i SigCap.obj
 0001:000031d2       ?Add@?$CSimpleMap@PA_WPA_WVCExpansionVectorEqualHelper@ATL@@@ATL@@QAEHABQA_W0@Z 100041d2 f i SigCap.obj
 0001:00003227       ?Add@CComDynamicUnkArray@ATL@@QAEKPAUIUnknown@@@Z 10004227 f i SigCap.obj
 0001:000032dd       ?Add@CExpansionVector@ATL@@QAEHPB_W0@Z 100042dd f i SigCap.obj
 0001:000033e6       ?AddString@CParseBuffer@CRegParser@ATL@@QAEHPB_W@Z 100043e6 f i SigCap.obj
 0001:0000341b       ?AddTermFunc@CAtlModule@ATL@@QAEJP6GXK@ZK@Z 1000441b f i SigCap.obj
 0001:0000347e       ?AddValue@CRegParser@ATL@@IAEJAAVCRegKey@2@PB_WPA_W@Z 1000447e f i SigCap.obj
 0001:00003798       ?Allocate@?$CAtlSafeAllocBufferManager@VCCRTAllocator@ATL@@@_ATL_SAFE_ALLOCA_IMPL@ATL@@QAEPAXK@Z 10004798 f i SigCap.obj
 0001:000037c5       ?Allocate@?$CTempBuffer@E$0BAA@VCCRTAllocator@ATL@@@ATL@@QAEPAEI@Z 100047c5 f i SigCap.obj
 0001:000037f4       ?Allocate@?$CTempBuffer@_W$0BAA@VCCRTAllocator@ATL@@@ATL@@QAEPA_WI@Z 100047f4 f i SigCap.obj
 0001:00003823       ?Allocate@?$CTempBuffer@_W$0EAA@VCCRTAllocator@ATL@@@ATL@@QAEPA_WI@Z 10004823 f i SigCap.obj
 0001:00003852       ?AllocateHeap@?$CTempBuffer@E$0BAA@VCCRTAllocator@ATL@@@ATL@@AAEXI@Z 10004852 f i SigCap.obj
 0001:00003852       ?AllocateHeap@?$CTempBuffer@_W$0BAA@VCCRTAllocator@ATL@@@ATL@@AAEXI@Z 10004852 f i SigCap.obj
 0001:00003852       ?AllocateHeap@?$CTempBuffer@_W$0EAA@VCCRTAllocator@ATL@@@ATL@@AAEXI@Z 10004852 f i SigCap.obj
 0001:00003877       ?Append@CParseBuffer@CRegParser@ATL@@QAEHPB_WH@Z 10004877 f i SigCap.obj
 0001:00003905       ?AtlCoTaskMemCAlloc@ATL@@YAPAXKK@Z 10004905 f i SigCap.obj
 0001:00003932       ?AtlCoTaskMemRecalloc@ATL@@YAPAXPAXKK@Z 10004932 f i SigCap.obj
 0001:00003962       ?AtlComModuleGetClassObject@ATL@@YGJPAU_ATL_COM_MODULE70@1@ABU_GUID@@1PAPAX@Z 10004962 f i SigCap.obj
 0001:00003a55       ?AtlComModuleRegisterServer@ATL@@YGJPAU_ATL_COM_MODULE70@1@HPBU_GUID@@@Z 10004a55 f i SigCap.obj
 0001:00003add       ?AtlComModuleUnregisterServer@ATL@@YGJPAU_ATL_COM_MODULE70@1@HPBU_GUID@@@Z 10004add f i SigCap.obj
 0001:00003b65       ?AtlComQIPtrAssign2@ATL@@YAXPAPAUIUnknown@@PAU2@ABU_GUID@@@Z 10004b65 f i SigCap.obj
 0001:00003b94       ?AtlCreateTargetDC@ATL@@YGPAUHDC__@@PAU2@PAUtagDVTARGETDEVICE@@@Z 10004b94 f i SigCap.obj
 0001:00003bfd       ?AtlCrtErrorCheck@ATL@@YAHH@Z 10004bfd f i SigCap.obj
 0001:00003c38       ?AtlHiMetricToPixel@ATL@@YGXPBUtagSIZE@@PAU2@@Z 10004c38 f i SigCap.obj
 0001:00003cad       ?AtlHresultFromLastError@ATL@@YAJXZ 10004cad f i SigCap.obj
 0001:00003cc4       ?AtlHresultFromWin32@ATL@@YAJK@Z 10004cc4 f i SigCap.obj
 0001:00003cd9       ?AtlInternalOleLoadFromStream@ATL@@YAJPAUIStream@@ABU_GUID@@PAPAXTClassesAllowedInStream@1@K@Z 10004cd9 f i SigCap.obj
 0001:00003dff       ?AtlInternalQueryInterface@ATL@@YGJPAXPBU_ATL_INTMAP_ENTRY@1@ABU_GUID@@PAPAX@Z 10004dff f i SigCap.obj
 0001:00003ea2       ?AtlLoadTypeLib@ATL@@YGJPAUHINSTANCE__@@PB_WPAPA_WPAPAUITypeLib@@@Z 10004ea2 f i SigCap.obj
 0001:00004080       ?AtlRegisterClassCategoriesHelper@ATL@@YGJABU_GUID@@PBU_ATL_CATMAP_ENTRY@1@H@Z 10005080 f i SigCap.obj
 0001:0000437c       ?AtlRegisterTypeLib@ATL@@YGJPAUHINSTANCE__@@PB_W@Z 1000537c f i SigCap.obj
 0001:00004504       ?AtlThrowImpl@ATL@@YGXJ@Z  10005504 f i SigCap.obj
 0001:00004522       ?AtlUnRegisterTypeLib@ATL@@YGJPAUHINSTANCE__@@PB_W@Z 10005522 f i SigCap.obj
 0001:000045cd       ?AtlWinModuleAddCreateWndData@ATL@@YGXPAU_ATL_WIN_MODULE70@1@PAU_AtlCreateWndData@1@PAX@Z 100055cd f i SigCap.obj
 0001:00004621       ?AtlWinModuleExtractCreateWndData@ATL@@YGPAXPAU_ATL_WIN_MODULE70@1@@Z 10005621 f i SigCap.obj
 0001:00004684       ?AtlWinModuleRegisterClassExW@ATL@@YGGPAU_ATL_WIN_MODULE70@1@PBUtagWNDCLASSEXW@@@Z 10005684 f i SigCap.obj
 0001:000046c3       ?CanForceRemoveKey@CRegParser@ATL@@IAEHPB_W@Z 100056c3 f i SigCap.obj
 0001:000046f2       ?ChToByte@CRegParser@ATL@@KAE_W@Z 100056f2 f i SigCap.obj
 0001:00004725       ?Cleanup@CComTypeInfoHolder@ATL@@SGXK@Z 10005725 f i SigCap.obj
 0001:00004758       ?ClearReplacements@CExpansionVector@ATL@@QAEJXZ 10005758 f i SigCap.obj
 0001:00004795       ?Close@CRegKey@ATL@@QAEJXZ 10005795 f i SigCap.obj
 0001:000047af       ?CreateInstance@?$CComCreator@V?$CComAggObject@VCOPOSSigCap@@@ATL@@@ATL@@SGJPAXABU_GUID@@PAPAX@Z 100057af f i SigCap.obj
 0001:00004825       ?CreateInstance@?$CComCreator@V?$CComObject@VCOPOSSigCap@@@ATL@@@ATL@@SGJPAXABU_GUID@@PAPAX@Z 10005825 f i SigCap.obj
 0001:000048a6       ?CreateInstance@?$CComObject@V?$CComEnum@UIEnumConnectionPoints@@$1?_GUID_b196b285_bab4_101a_b69c_00aa00341d07@@3U__s_GUID@@BPAUIConnectionPoint@@V?$_CopyInterface@UIConnectionPoint@@@ATL@@VCComSingleThreadModel@6@@ATL@@@ATL@@SGJPAPAV12@@Z 100058a6 f i SigCap.obj
 0001:000048ed       ?CreateInstance@?$CComObject@V?$CComEnum@UIEnumConnections@@$1?_GUID_b196b287_bab4_101a_b69c_00aa00341d07@@3U__s_GUID@@BUtagCONNECTDATA@@V?$_Copy@UtagCONNECTDATA@@@ATL@@VCComSingleThreadModel@6@@ATL@@@ATL@@SGJPAPAV12@@Z 100058ed f i SigCap.obj
 0001:00004934       ?DefaultReflectionHandler@?$CWindowImplRoot@VCWindow@ATL@@@ATL@@SAHPAUHWND__@@IIJAAJ@Z 10005934 f i SigCap.obj
 0001:000049a7       ?DeleteSubKey@CRegKey@ATL@@QAEJPB_W@Z 100059a7 f i SigCap.obj
 0001:00004a20       ?DoEvent@COPOSSigCap@@IAEXIIJ@Z 10005a20 f i SigCap.obj
 0001:00004aa0       ?DoVerbHide@?$IOleObjectImpl@VCOPOSSigCap@@@ATL@@QAEJPBUtagRECT@@PAUHWND__@@@Z 10005aa0 f i SigCap.obj
 0001:00004ad6       ?DoVerbInPlaceActivate@?$IOleObjectImpl@VCOPOSSigCap@@@ATL@@QAEJPBUtagRECT@@PAUHWND__@@@Z 10005ad6 f i SigCap.obj
 0001:00004b09       ?DoVerbPrimary@?$IOleObjectImpl@VCOPOSSigCap@@@ATL@@QAEJPBUtagRECT@@PAUHWND__@@@Z 10005b09 f i SigCap.obj
 0001:00004b95       ?DoVerbProperties@CComControlBase@ATL@@QAEJPBUtagRECT@@PAUHWND__@@@Z 10005b95 f i SigCap.obj
 0001:00004d14       ?DoVerbUIActivate@?$IOleObjectImpl@VCOPOSSigCap@@@ATL@@QAEJPBUtagRECT@@PAUHWND__@@@Z 10005d14 f i SigCap.obj
 0001:00004d51       ?DoesVerbActivate@CComControlBase@ATL@@QAEHJ@Z 10005d51 f i SigCap.obj
 0001:00004d72       ?DoesVerbUIActivate@CComControlBase@ATL@@QAEHJ@Z 10005d72 f i SigCap.obj
 0001:00004da7       ?EndOfVar@CRegParser@ATL@@IAEHXZ 10005da7 f i SigCap.obj
 0001:00004dc7       ?EscapeSingleQuote@CAtlModule@ATL@@SAXPA_WIPB_W@Z 10005dc7 f i SigCap.obj
 0001:00004e16       ?FindKey@?$CSimpleMap@PA_WPA_WVCExpansionVectorEqualHelper@ATL@@@ATL@@QBEHABQA_W@Z 10005e16 f i SigCap.obj
 0001:00004e4d       ?FireTheEvent@?$CProxy_IOPOSEvents@VCOPOSSigCap@@@@IAEXPAVOposVariant@@IAAJPB_WJ@Z 10005e4d f i SigCap.obj
 0001:00004edf       ?FireViewChange@CComControlBase@ATL@@QAEJXZ 10005edf f i SigCap.obj
 0001:00004f28       ?Fire_DataEvent@?$CProxy_IOPOSEvents@VCOPOSSigCap@@@@QAEXJ@Z 10005f28 f i SigCap.obj
 0001:00004fbb       ?Fire_DirectIOEvent@?$CProxy_IOPOSEvents@VCOPOSSigCap@@@@QAEXJPAJPAPA_W@Z 10005fbb f i SigCap.obj
 0001:000050a4       ?Fire_ErrorEvent@?$CProxy_IOPOSEvents@VCOPOSSigCap@@@@QAEXJJJPAJ@Z 100060a4 f i SigCap.obj
 0001:0000518e       ?Fire_StatusUpdateEvent@?$CProxy_IOPOSEvents@VCOPOSSigCap@@@@QAEXJ@Z 1000618e f i SigCap.obj
 0001:00005221       ?FreeHeap@?$CTempBuffer@_W$0EAA@VCCRTAllocator@ATL@@@ATL@@AAEXXZ 10006221 f i SigCap.obj
 0001:00005221       ?FreeHeap@?$CTempBuffer@_W$0BAA@VCCRTAllocator@ATL@@@ATL@@AAEXXZ 10006221 f i SigCap.obj
 0001:00005221       ?FreeHeap@?$CTempBuffer@E$0BAA@VCCRTAllocator@ATL@@@ATL@@AAEXXZ 10006221 f i SigCap.obj
 0001:0000522a       ?GetAmbientLocaleID@CComControlBase@ATL@@QAEJAAK@Z 1000622a f i SigCap.obj
 0001:00005286       ?GetAmbientUserMode@CComControlBase@ATL@@QAEJAAH@Z 10006286 f i SigCap.obj
 0001:000052f6       ?GetAt@CComDynamicUnkArray@ATL@@QAEPAUIUnknown@@H@Z 100062f6 f i SigCap.obj
 0001:00005312       ?GetClassObject@CComModule@ATL@@QAEJABU_GUID@@0PAPAX@Z 10006312 f i SigCap.obj
 0001:000053b4       ?GetConnMap@COPOSSigCap@@SAPBU_ATL_CONNMAP_ENTRY@ATL@@PAH@Z 100063b4 f i SigCap.obj
 0001:00005424       ?GetCookie@CComDynamicUnkArray@ATL@@QAGKPAPAUIUnknown@@@Z 10006424 f i SigCap.obj
 0001:0000545c       ?GetIDsOfNames@CComTypeInfoHolder@ATL@@QAEJABU_GUID@@PAPA_WIKPAJ@Z 1000645c f i SigCap.obj
 0001:00005583       ?GetKeyAt@?$CSimpleMap@PA_WPA_WVCExpansionVectorEqualHelper@ATL@@@ATL@@QBEAAPA_WH@Z 10006583 f i SigCap.obj
 0001:000055a8       ?GetPagesHelper@?$ISpecifyPropertyPagesImpl@VCOPOSSigCap@@@ATL@@IAEJPAUtagCAUUID@@PBUATL_PROPMAP_ENTRY@2@@Z 100065a8 f i SigCap.obj
 0001:000056cf       ?GetProperty@?$CComPtr@UIDispatch@@@ATL@@SAJPAUIDispatch@@JPAUtagVARIANT@@@Z 100066cf f i SigCap.obj
 0001:0000571e       ?GetSizeMax@CComVariant@ATL@@QBEJPAT_ULARGE_INTEGER@@@Z 1000671e f i SigCap.obj
 0001:000058e4       ?GetTI@CComTypeInfoHolder@ATL@@QAEJK@Z 100068e4 f i SigCap.obj
 0001:00005ac3       ?GetTI@CComTypeInfoHolder@ATL@@QAEJKPAPAUITypeInfo@@@Z 10006ac3 f i SigCap.obj
 0001:00005b05       ?GetUnknown@CComDynamicUnkArray@ATL@@QAGPAUIUnknown@@K@Z 10006b05 f i SigCap.obj
 0001:00005b26       ?GetValueAt@?$CSimpleMap@PA_WPA_WVCExpansionVectorEqualHelper@ATL@@@ATL@@QBEAAPA_WH@Z 10006b26 f i SigCap.obj
 0001:00005b4c       ?GetZoomInfo@CComControlBase@ATL@@QAEXAAUATL_DRAWINFO@@@Z 10006b4c f i SigCap.obj
 0001:00005bdf       ?HKeyFromString@CRegParser@ATL@@KAPAUHKEY__@@PA_W@Z 10006bdf f i SigCap.obj
 0001:00005c0d       ?HasSubKeys@CRegParser@ATL@@IAEHPAUHKEY__@@@Z 10006c0d f i SigCap.obj
 0001:00005c42       ?IDataObject_GetData@CComControlBase@ATL@@QAEJPAUtagFORMATETC@@PAUtagSTGMEDIUM@@@Z 10006c42 f i SigCap.obj
 0001:00005de8       ?IOleInPlaceObject_InPlaceDeactivate@CComControlBase@ATL@@QAEJXZ 10006de8 f i SigCap.obj
 0001:00005e6f       ?IOleInPlaceObject_SetObjectRects@CComControlBase@ATL@@QAEJPBUtagRECT@@0@Z 10006e6f f i SigCap.obj
 0001:00005f3c       ?IOleInPlaceObject_UIDeactivate@CComControlBase@ATL@@QAEJXZ 10006f3c f i SigCap.obj
 0001:00005ffe       ?IOleObject_Advise@CComControlBase@ATL@@QAEJPAUIAdviseSink@@PAK@Z 10006ffe f i SigCap.obj
 0001:00006028       ?IOleObject_Close@CComControlBase@ATL@@QAEJK@Z 10007028 f i SigCap.obj
 0001:0000610c       ?IOleObject_GetClientSite@CComControlBase@ATL@@QAEJPAPAUIOleClientSite@@@Z 1000710c f i SigCap.obj
 0001:00006135       ?IOleObject_SetClientSite@CComControlBase@ATL@@QAEJPAUIOleClientSite@@@Z 10007135 f i SigCap.obj
 0001:00006174       ?IOleObject_SetExtent@CComControlBase@ATL@@QAEJKPAUtagSIZE@@@Z 10007174 f i SigCap.obj
 0001:00006228       ?IPSI_GetIPersistStreamInit@?$IPersistStorageImpl@VCOPOSSigCap@@@ATL@@AAEPAUIPersistStreamInit@@XZ 10007228 f i SigCap.obj
 0001:000062d0       ?IPersistStreamInit_Load@?$IPersistStreamInitImpl@VCOPOSSigCap@@@ATL@@QAEJPAUIStream@@PBUATL_PROPMAP_ENTRY@2@@Z 100072d0 f i SigCap.obj
 0001:0000654c       ?IPersistStreamInit_Save@?$IPersistStreamInitImpl@VCOPOSSigCap@@@ATL@@QAEJPAUIStream@@HPBUATL_PROPMAP_ENTRY@2@@Z 1000754c f i SigCap.obj
 0001:0000673a       ?IQuickActivate_QuickActivate@CComControlBase@ATL@@QAEJPAUtagQACONTAINER@@PAUtagQACONTROL@@@Z 1000773a f i SigCap.obj
 0001:0000697c       ?IViewObject_Draw@CComControlBase@ATL@@QAEJKJPAXPAUtagDVTARGETDEVICE@@PAUHDC__@@2PBU_RECTL@@3@Z 1000797c f i SigCap.obj
 0001:00006a24       ?InPlaceActivate@CComControlBase@ATL@@QAEJJPBUtagRECT@@@Z 10007a24 f i SigCap.obj
 0001:00006c95       ?Init@?$CComEnumImpl@UIEnumConnectionPoints@@$1?_GUID_b196b285_bab4_101a_b69c_00aa00341d07@@3U__s_GUID@@BPAUIConnectionPoint@@V?$_CopyInterface@UIConnectionPoint@@@ATL@@@ATL@@QAEJPAPAUIConnectionPoint@@0PAUIUnknown@@W4CComEnumFlags@2@@Z 10007c95 f i SigCap.obj
 0001:00006d74       ?Init@?$CComEnumImpl@UIEnumConnections@@$1?_GUID_b196b287_bab4_101a_b69c_00aa00341d07@@3U__s_GUID@@BUtagCONNECTDATA@@V?$_Copy@UtagCONNECTDATA@@@ATL@@@ATL@@QAEJPAUtagCONNECTDATA@@0PAUIUnknown@@W4CComEnumFlags@2@@Z 10007d74 f i SigCap.obj
 0001:00006e53       ?Init@CComModule@ATL@@QAEJPAU_ATL_OBJMAP_ENTRY30@2@PAUHINSTANCE__@@PBU_GUID@@@Z 10007e53 f i SigCap.obj
 0001:00006eb2       ?Init@CDynamicStdCallThunk2@ATL@@QAEHKPAX@Z 10007eb2 f i SigCap.obj
 0001:00006edd       ?InlineIsEqualUnknown@ATL@@YGHABU_GUID@@@Z 10007edd f i SigCap.obj
 0001:00006f05       ?InternalSetAtIndex@?$CSimpleMap@PA_WPA_WVCExpansionVectorEqualHelper@ATL@@@ATL@@QAEXHABQA_W0@Z 10007f05 f i SigCap.obj
 0001:00006f2f       ?Invoke@CComTypeInfoHolder@ATL@@QAEJPAUIDispatch@@JABU_GUID@@KGPAUtagDISPPARAMS@@PAUtagVARIANT@@PAUtagEXCEPINFO@@PAI@Z 10007f2f f i SigCap.obj
 0001:00006f72       ?IsEqualObject@?$CComPtrBase@UIOleClientSite@@@ATL@@QAE_NPAUIUnknown@@@Z 10007f72 f i SigCap.obj
 0001:00006f72       ?IsEqualObject@?$CComPtrBase@UITypeInfo@@@ATL@@QAE_NPAUIUnknown@@@Z 10007f72 f i SigCap.obj
 0001:00006fdf       ?IsSpace@CRegParser@ATL@@IAEH_W@Z 10007fdf f i SigCap.obj
 0001:00007009       ?LoadNameCache@CComTypeInfoHolder@ATL@@QAEJPAUITypeInfo@@@Z 10008009 f i SigCap.obj
 0001:00007155       ?Lookup@?$CSimpleMap@PA_WPA_WVCExpansionVectorEqualHelper@ATL@@@ATL@@QBEPA_WABQA_W@Z 10008155 f i SigCap.obj
 0001:0000717b       ?NextToken@CRegParser@ATL@@IAEJPA_W@Z 1000817b f i SigCap.obj
 0001:000072b3       ?OnKillFocus@CComControlBase@ATL@@QAEJIIJAAH@Z 100082b3 f i SigCap.obj
 0001:0000730e       ?OnMouseActivate@CComControlBase@ATL@@QAEJIIJAAH@Z 1000830e f i SigCap.obj
 0001:0000737c       ?OnPaint@CComControlBase@ATL@@QAEJIIJAAH@Z 1000837c f i SigCap.obj
 0001:0000742e       ?OnSetFocus@CComControlBase@ATL@@QAEJIIJAAH@Z 1000842e f i SigCap.obj
 0001:000074b7       ?Open@CRegKey@ATL@@QAEJPAUHKEY__@@PB_WK@Z 100084b7 f i SigCap.obj
 0001:0000750c       ?PreProcessBuffer@CRegParser@ATL@@QAEJPA_WPAPA_W@Z 1000850c f i SigCap.obj
 0001:00007776       ?ProcessWindowMessage@?$CComControl@VCOPOSSigCap@@V?$CWindowImpl@VCOPOSSigCap@@VCWindow@ATL@@V?$CWinTraits@$0FGAAAAAA@$0A@@3@@ATL@@@ATL@@UAEHPAUHWND__@@IIJAAJK@Z 10008776 f i SigCap.obj
 0001:00007815       ?ReadFromStream@CComBSTR@ATL@@QAEJPAUIStream@@@Z 10008815 f i SigCap.obj
 0001:00007943       ?ReadFromStream@CComVariant@ATL@@QAEJPAUIStream@@GTClassesAllowedInStream@2@K@Z 10008943 f i SigCap.obj
 0001:00007ac9       ?RecurseDeleteKey@CRegKey@ATL@@QAEJPB_W@Z 10008ac9 f i SigCap.obj
 0001:00007bb7       ?RegCreateKeyExW@CAtlTransactionManager@ATL@@QAEJPAUHKEY__@@PB_WKPA_WKKQAU_SECURITY_ATTRIBUTES@@PAPAU3@PAK@Z 10008bb7 f i SigCap.obj
 0001:00007c1a       ?RegDeleteKeyW@CAtlTransactionManager@ATL@@QAEJPAUHKEY__@@PB_W@Z 10008c1a f i SigCap.obj
 0001:00007c6c       ?RegOpenKeyExW@CAtlTransactionManager@ATL@@QAEJPAUHKEY__@@PB_WKKPAPAU3@@Z 10008c6c f i SigCap.obj
 0001:00007cc3       ?Register@_ATL_WNDCLASSINFOW@ATL@@QAEGPAP6GJPAUHWND__@@IIJ@Z@Z 10008cc3 f i SigCap.obj
 0001:00007ce3       ?RegisterBuffer@CRegParser@ATL@@QAEJPA_WH@Z 10008ce3 f i SigCap.obj
 0001:00007e1c       ?RegisterFromResource@CRegObject@ATL@@IAEJPB_W00H@Z 10008e1c f i SigCap.obj
 0001:00007f52       ?RegisterServer@?$CAtlModuleT@VCComModule@ATL@@@ATL@@QAEJHPBU_GUID@@@Z 10008f52 f i SigCap.obj
 0001:00007f80       ?RegisterServer@CComModule@ATL@@QAEJHPBU_GUID@@@Z 10008f80 f i SigCap.obj
 0001:00007ff6       ?RegisterSubkeys@CRegParser@ATL@@IAEJPA_WPAUHKEY__@@HH@Z 10008ff6 f i SigCap.obj
 0001:0000869d       ?Remove@CComDynamicUnkArray@ATL@@QAEHK@Z 1000969d f i SigCap.obj
 0001:000086c6       ?RemoveAll@?$CSimpleMap@PA_WPA_WVCExpansionVectorEqualHelper@ATL@@@ATL@@QAEXXZ 100096c6 f i SigCap.obj
 0001:000086f2       ?ResourceRegisterSz@CRegObject@ATL@@QAGJPB_W00@Z 100096f2 f i SigCap.obj
 0001:0000871f       ?ResourceUnregisterSz@CRegObject@ATL@@QAGJPB_W00@Z 1000971f f i SigCap.obj
 0001:0000874c       ?SendOnDataChange@CComControlBase@ATL@@QAEJK@Z 1000974c f i SigCap.obj
 0001:00008799       ?SetControlFocus@CComControlBase@ATL@@QAEHH@Z 10009799 f i SigCap.obj
 0001:00008836       ?SetMultiStringValue@CRegKey@ATL@@QAEJPB_W0@Z 10009836 f i SigCap.obj
 0001:00008892       ?SetStringValue@CRegKey@ATL@@QAEJPB_W0K@Z 10009892 f i SigCap.obj
 0001:000088db       ?SkipAssignment@CRegParser@ATL@@IAEJPA_W@Z 100098db f i SigCap.obj
 0001:00008940       ?SkipWhiteSpace@CRegParser@ATL@@IAEXXZ 10009940 f i SigCap.obj
 0001:00008962       ?StrChrW@CRegParser@ATL@@KAPA_WPA_W_W@Z 10009962 f i SigCap.obj
 0001:0000899f       ?Term@CAtlModule@ATL@@QAEXXZ 1000999f f i SigCap.obj
 0001:000089f2       ?Term@CComModule@ATL@@QAEXXZ 100099f2 f i SigCap.obj
 0001:00008a4a       ?UnregisterServer@?$CAtlModuleT@VCComModule@ATL@@@ATL@@QAEJHPBU_GUID@@@Z 10009a4a f i SigCap.obj
 0001:00008a70       ?UnregisterServer@CComModule@ATL@@QAEJHPBU_GUID@@@Z 10009a70 f i SigCap.obj
 0001:00008ae6       ?UpdateRegistryFromResource@CAtlModule@ATL@@QAGJIHPAU_ATL_REGMAP_ENTRY@2@@Z 10009ae6 f i SigCap.obj
 0001:00008cb1       ?UpdateRegistryFromResource@CAtlModule@ATL@@QAGJPB_WHPAU_ATL_REGMAP_ENTRY@2@@Z 10009cb1 f i SigCap.obj
 0001:00008e82       ?VTFromRegType@CRegParser@ATL@@KAHPB_WAAG@Z 10009e82 f i SigCap.obj
 0001:00008eef       ?WindowProc@?$CWindowImplBaseT@VCWindow@ATL@@V?$CWinTraits@$0FGAAAAAA@$0A@@2@@ATL@@SGJPAUHWND__@@IIJ@Z 10009eef f i SigCap.obj
 0001:00008fe1       ?WriteToStream@CComBSTR@ATL@@QAEJPAUIStream@@@Z 10009fe1 f i SigCap.obj
 0001:00009043       ?WriteToStream@CComVariant@ATL@@QAEJPAUIStream@@@Z 1000a043 f i SigCap.obj
 0001:000091bd       ?WriteToStream@CComVariant@ATL@@QAEJPAUIStream@@G@Z 1000a1bd f i SigCap.obj
 0001:00009226       ?_AtlInitialConstruct@?$CComObjectRootEx@VCComMultiThreadModel@ATL@@@ATL@@QAEJXZ 1000a226 f i SigCap.obj
 0001:0000923b       ?_AtlVerifyStackAvailable@_ATL_SAFE_ALLOCA_IMPL@ATL@@YA_NK@Z 1000a23b f i SigCap.obj
 0001:000092b9       ?atlCreate@?$CWindowImpl@VCOPOSSigCap@@VCWindow@ATL@@V?$CWinTraits@$0FGAAAAAA@$0A@@3@@ATL@@QAEPAUHWND__@@PAU3@V_U_RECT@2@PB_WKKV_U_MENUorID@2@PAX@Z 1000a2b9 f i SigCap.obj
 0001:000092fd       ?atlCreate@?$CWindowImplBaseT@VCWindow@ATL@@V?$CWinTraits@$0FGAAAAAA@$0A@@2@@ATL@@QAEPAUHWND__@@PAU3@V_U_RECT@2@PB_WKKV_U_MENUorID@2@GPAX@Z 1000a2fd f i SigCap.obj
 0001:00009399       ?copy@?$_Copy@UtagCONNECTDATA@@@ATL@@SAJPAUtagCONNECTDATA@@PBU3@@Z 1000a399 f i SigCap.obj
 0001:000093cf       ?copy@?$_CopyInterface@UIConnectionPoint@@@ATL@@SAJPAPAUIConnectionPoint@@PBQAU3@@Z 1000a3cf f i SigCap.obj
 0001:000093fd       ?memcpy_s@Checked@ATL@@YAXPAXIPBXI@Z 1000a3fd f i SigCap.obj
 0001:0000941c       ?ocscpy_s@@YA_NPA_WIPB_W@Z 1000a41c f i SigCap.obj
 0001:00009466       ?wcscpy_s@Checked@ATL@@YAXPA_WIPB_W@Z 1000a466 f i SigCap.obj
 0001:00009482       _DllCanUnloadNow@0         1000a482 f   SigCap.obj
 0001:0000948e       _DllGetClassObject@12      1000a48e f   SigCap.obj
 0001:0000949c       _DllMain@12                1000a49c f   SigCap.obj
 0001:000094de       _DllRegisterServer@0       1000a4de f   SigCap.obj
 0001:000094ed       _DllUnregisterServer@0     1000a4ed f   SigCap.obj
 0001:000094fc       _InlineIsEqualGUID         1000a4fc f i SigCap.obj
 0001:0000952c       ___local_stdio_printf_options 1000a52c f i SigCap.obj
 0001:00009532       __vswprintf_s_l            1000a532 f i SigCap.obj
 0001:000095df       _swprintf_s                1000a5df f i SigCap.obj
 0001:000095fb       ??0?$CComControl@VCOPOSSigCap@@V?$CWindowImpl@VCOPOSSigCap@@VCWindow@ATL@@V?$CWinTraits@$0FGAAAAAA@$0A@@3@@ATL@@@ATL@@QAE@XZ 1000a5fb f i SigCapImpl.obj
 0001:00009622       ??0?$CProxy_IOPOSEvents@VCOPOSSigCap@@@@QAE@XZ 1000a622 f i SigCapImpl.obj
 0001:00009642       ??0CComControlBase@ATL@@QAE@AAPAUHWND__@@@Z 1000a642 f i SigCapImpl.obj
 0001:0000968c       ??0COPOSSigCap@@QAE@XZ     1000a68c f   SigCapImpl.obj
 0001:000096c2       ??1?$CComControl@VCOPOSSigCap@@V?$CWindowImpl@VCOPOSSigCap@@VCWindow@ATL@@V?$CWinTraits@$0FGAAAAAA@$0A@@3@@ATL@@@ATL@@UAE@XZ 1000a6c2 f i SigCapImpl.obj
 0001:000096db       ??1?$IConnectionPointImpl@VCOPOSSigCap@@$1?IID_IPropertyNotifySink@@3U_GUID@@BVCComDynamicUnkArray@ATL@@@ATL@@QAE@XZ 1000a6db f i SigCapImpl.obj
 0001:000096db       ??1?$IConnectionPointImpl@VCOPOSSigCap@@$1?DIID__IOPOSSigCapEvents@@3U_GUID@@BVCComDynamicUnkArray@ATL@@@ATL@@QAE@XZ 1000a6db f i SigCapImpl.obj
 0001:00009718       ??1CComControlBase@ATL@@UAE@XZ 1000a718 f i SigCapImpl.obj
 0001:0000977b       ??1COPOSSigCap@@UAE@XZ     1000a77b f   SigCapImpl.obj
 0001:000097c3       ?BeginCapture@COPOSSigCap@@UAGJPA_WPAJ@Z 1000a7c3 f   SigCapImpl.obj
 0001:0000981a       ?CheckHealth@COPOSSigCap@@UAGJJPAJ@Z 1000a81a f   SigCapImpl.obj
 0001:00009869       ?ClaimDevice@COPOSSigCap@@UAGJJPAJ@Z 1000a869 f   SigCapImpl.obj
 0001:000098de       ?ClearInput@COPOSSigCap@@UAGJPAJ@Z 1000a8de f   SigCapImpl.obj
 0001:000098f9       ?ClearInputProperties@COPOSSigCap@@UAGJPAJ@Z 1000a8f9 f   SigCapImpl.obj
 0001:00009914       ?Close@COPOSSigCap@@UAGJPAJ@Z 1000a914 f   SigCapImpl.obj
 0001:00009982       ?CompareFirmwareVersion@COPOSSigCap@@UAGJPA_WPAJ1@Z 1000a982 f   SigCapImpl.obj
 0001:00009a02       ?DirectIO@COPOSSigCap@@UAGJJPAJPAPA_W0@Z 1000aa02 f   SigCapImpl.obj
 0001:00009ab0       ?DoInvoke@COPOSSigCap@@IAEJJPAVOposVariant@@IHPAJ_N@Z 1000aab0 f   SigCapImpl.obj
 0001:00009b8c       ?EndCapture@COPOSSigCap@@UAGJPAJ@Z 1000ab8c f   SigCapImpl.obj
 0001:00009ba7       ?EventClose@COPOSSigCap@@IAEXXZ 1000aba7 f i SigCapImpl.obj
 0001:00009bda       ?EventInit@COPOSSigCap@@IAEJXZ 1000abda f i SigCapImpl.obj
 0001:00009ca6       ?EventUninit@COPOSSigCap@@IAEXXZ 1000aca6 f i SigCapImpl.obj
 0001:00009cf8       ?EventWindowProc@COPOSSigCap@@IAGJIIJ@Z 1000acf8 f i SigCapImpl.obj
 0001:00009dcc       ?FinalConstruct@COPOSSigCap@@QAEJXZ 1000adcc f   SigCapImpl.obj
 0001:00009e05       ?FireEventCleanup@COPOSSigCap@@IAEXXZ 1000ae05 f i SigCapImpl.obj
 0001:00009e1b       ?FireEventSetup@COPOSSigCap@@IAE_NXZ 1000ae1b f i SigCapImpl.obj
 0001:00009e4f       ?FreezeEvents@COPOSSigCap@@MAGJH@Z 1000ae4f f   SigCapImpl.obj
 0001:00009eaf       ?GetOposProp@COPOSSigCap@@IAEJJPAFJ@Z 1000aeaf f   SigCapImpl.obj
 0001:00009ed2       ?GetOposProp@COPOSSigCap@@IAEJJPAJJ@Z 1000aed2 f   SigCapImpl.obj
 0001:00009fa1       ?GetOposProp@COPOSSigCap@@IAEJJPAPA_WJ@Z 1000afa1 f   SigCapImpl.obj
 0001:0000a07d       ?OnDraw@COPOSSigCap@@MAEJAAUATL_DRAWINFO@@@Z 1000b07d f   SigCapImpl.obj
 0001:0000a11d       ?Open@COPOSSigCap@@UAGJPA_WPAJ@Z 1000b11d f   SigCapImpl.obj
 0001:0000a960       ?ReleaseDevice@COPOSSigCap@@UAGJPAJ@Z 1000b960 f   SigCapImpl.obj
 0001:0000a9af       ?ResetStatistics@COPOSSigCap@@UAGJPA_WPAJ@Z 1000b9af f   SigCapImpl.obj
 0001:0000aa06       ?RetrieveStatistics@COPOSSigCap@@UAGJPAPA_WPAJ@Z 1000ba06 f   SigCapImpl.obj
 0001:0000aa5d       ?SOProcessID@COPOSSigCap@@UAGJPAJ@Z 1000ba5d f   SigCapImpl.obj
 0001:0000aa71       ?SetCOFreezeEvents@COPOSSigCap@@IAEXF@Z 1000ba71 f   SigCapImpl.obj
 0001:0000ab11       ?SetOposProp@COPOSSigCap@@IAEJJJJ@Z 1000bb11 f   SigCapImpl.obj
 0001:0000ac08       ?UpdateFirmware@COPOSSigCap@@UAGJPA_WPAJ@Z 1000bc08 f   SigCapImpl.obj
 0001:0000ac5f       ?UpdateStatistics@COPOSSigCap@@UAGJPA_WPAJ@Z 1000bc5f f   SigCapImpl.obj
 0001:0000acb6       ?get_AutoDisable@COPOSSigCap@@UAGJPAF@Z 1000bcb6 f   SigCapImpl.obj
 0001:0000accc       ?get_BinaryConversion@COPOSSigCap@@UAGJPAJ@Z 1000bccc f   SigCapImpl.obj
 0001:0000ace2       ?get_CapCompareFirmwareVersion@COPOSSigCap@@UAGJPAF@Z 1000bce2 f   SigCapImpl.obj
 0001:0000acfb       ?get_CapDisplay@COPOSSigCap@@UAGJPAF@Z 1000bcfb f   SigCapImpl.obj
 0001:0000ad14       ?get_CapPowerReporting@COPOSSigCap@@UAGJPAJ@Z 1000bd14 f   SigCapImpl.obj
 0001:0000ad2d       ?get_CapRealTimeData@COPOSSigCap@@UAGJPAF@Z 1000bd2d f   SigCapImpl.obj
 0001:0000ad46       ?get_CapStatisticsReporting@COPOSSigCap@@UAGJPAF@Z 1000bd46 f   SigCapImpl.obj
 0001:0000ad5f       ?get_CapUpdateFirmware@COPOSSigCap@@UAGJPAF@Z 1000bd5f f   SigCapImpl.obj
 0001:0000ad78       ?get_CapUpdateStatistics@COPOSSigCap@@UAGJPAF@Z 1000bd78 f   SigCapImpl.obj
 0001:0000ad91       ?get_CapUserTerminated@COPOSSigCap@@UAGJPAF@Z 1000bd91 f   SigCapImpl.obj
 0001:0000adaa       ?get_CheckHealthText@COPOSSigCap@@UAGJPAPA_W@Z 1000bdaa f   SigCapImpl.obj
 0001:0000adc3       ?get_Claimed@COPOSSigCap@@UAGJPAF@Z 1000bdc3 f   SigCapImpl.obj
 0001:0000add9       ?get_ControlObjectDescription@COPOSSigCap@@UAGJPAPA_W@Z 1000bdd9 f   SigCapImpl.obj
 0001:0000ae27       ?get_ControlObjectVersion@COPOSSigCap@@UAGJPAJ@Z 1000be27 f   SigCapImpl.obj
 0001:0000ae3a       ?get_DataCount@COPOSSigCap@@UAGJPAJ@Z 1000be3a f   SigCapImpl.obj
 0001:0000ae50       ?get_DataEventEnabled@COPOSSigCap@@UAGJPAF@Z 1000be50 f   SigCapImpl.obj
 0001:0000ae66       ?get_DeviceDescription@COPOSSigCap@@UAGJPAPA_W@Z 1000be66 f   SigCapImpl.obj
 0001:0000ae7f       ?get_DeviceEnabled@COPOSSigCap@@UAGJPAF@Z 1000be7f f   SigCapImpl.obj
 0001:0000ae95       ?get_DeviceName@COPOSSigCap@@UAGJPAPA_W@Z 1000be95 f   SigCapImpl.obj
 0001:0000aeae       ?get_FreezeEvents@COPOSSigCap@@UAGJPAF@Z 1000beae f   SigCapImpl.obj
 0001:0000aec4       ?get_MaximumX@COPOSSigCap@@UAGJPAJ@Z 1000bec4 f   SigCapImpl.obj
 0001:0000aedd       ?get_MaximumY@COPOSSigCap@@UAGJPAJ@Z 1000bedd f   SigCapImpl.obj
 0001:0000aef6       ?get_OpenResult@COPOSSigCap@@UAGJPAJ@Z 1000bef6 f   SigCapImpl.obj
 0001:0000af0d       ?get_PointArray@COPOSSigCap@@UAGJPAPA_W@Z 1000bf0d f   SigCapImpl.obj
 0001:0000af26       ?get_PowerNotify@COPOSSigCap@@UAGJPAJ@Z 1000bf26 f   SigCapImpl.obj
 0001:0000af3c       ?get_PowerState@COPOSSigCap@@UAGJPAJ@Z 1000bf3c f   SigCapImpl.obj
 0001:0000af52       ?get_RawData@COPOSSigCap@@UAGJPAPA_W@Z 1000bf52 f   SigCapImpl.obj
 0001:0000af6b       ?get_RealTimeDataEnabled@COPOSSigCap@@UAGJPAF@Z 1000bf6b f   SigCapImpl.obj
 0001:0000af84       ?get_ResultCode@COPOSSigCap@@UAGJPAJ@Z 1000bf84 f   SigCapImpl.obj
 0001:0000afc2       ?get_ResultCodeExtended@COPOSSigCap@@UAGJPAJ@Z 1000bfc2 f   SigCapImpl.obj
 0001:0000afd8       ?get_ServiceObjectDescription@COPOSSigCap@@UAGJPAPA_W@Z 1000bfd8 f   SigCapImpl.obj
 0001:0000aff1       ?get_ServiceObjectVersion@COPOSSigCap@@UAGJPAJ@Z 1000bff1 f   SigCapImpl.obj
 0001:0000b007       ?get_State@COPOSSigCap@@UAGJPAJ@Z 1000c007 f   SigCapImpl.obj
 0001:0000b033       ?get_TotalPoints@COPOSSigCap@@UAGJPAJ@Z 1000c033 f   SigCapImpl.obj
 0001:0000b04c       ?put_AutoDisable@COPOSSigCap@@UAGJF@Z 1000c04c f   SigCapImpl.obj
 0001:0000b069       ?put_BinaryConversion@COPOSSigCap@@UAGJJ@Z 1000c069 f   SigCapImpl.obj
 0001:0000b07f       ?put_DataEventEnabled@COPOSSigCap@@UAGJF@Z 1000c07f f   SigCapImpl.obj
 0001:0000b09c       ?put_DeviceEnabled@COPOSSigCap@@UAGJF@Z 1000c09c f   SigCapImpl.obj
 0001:0000b0b9       ?put_FreezeEvents@COPOSSigCap@@UAGJF@Z 1000c0b9 f   SigCapImpl.obj
 0001:0000b105       ?put_PowerNotify@COPOSSigCap@@UAGJJ@Z 1000c105 f   SigCapImpl.obj
 0001:0000b11b       ?put_RealTimeDataEnabled@COPOSSigCap@@UAGJF@Z 1000c11b f   SigCapImpl.obj
 0001:0000b13b       ?s_EventWindowProc@COPOSSigCap@@KGJPAUHWND__@@IIJ@Z 1000c13b f i SigCapImpl.obj
 0001:0000b18d       ??_U@YAPAXI@Z              1000c18d f   LIBCMT:new_array.obj
 0001:0000b196       ??3@YAXPAXI@Z              1000c196 f   LIBCMT:delete_scalar_size.obj
 0001:0000b1a4       ??_V@YAXPAX@Z              1000c1a4 f   LIBCMT:delete_array.obj
 0001:0000b1a9       ??_V@YAXPAXI@Z             1000c1a9 f   LIBCMT:delete_array_size.obj
 0001:0000b1fb       ___scrt_acquire_startup_lock 1000c1fb f   LIBCMT:utility.obj
 0001:0000b22d       ___scrt_dllmain_after_initialize_c 1000c22d f   LIBCMT:utility.obj
 0001:0000b258       ___scrt_dllmain_before_initialize_c 1000c258 f   LIBCMT:utility.obj
 0001:0000b266       ___scrt_dllmain_crt_thread_attach 1000c266 f   LIBCMT:utility.obj
 0001:0000b285       ___scrt_dllmain_crt_thread_detach 1000c285 f   LIBCMT:utility.obj
 0001:0000b292       ___scrt_dllmain_exception_filter 1000c292 f   LIBCMT:utility.obj
 0001:0000b2c6       ___scrt_dllmain_uninitialize_c 1000c2c6 f   LIBCMT:utility.obj
 0001:0000b2e9       ___scrt_dllmain_uninitialize_critical 1000c2e9 f   LIBCMT:utility.obj
 0001:0000b2f6       ___scrt_initialize_crt     1000c2f6 f   LIBCMT:utility.obj
 0001:0000b32f       ___scrt_initialize_onexit_tables 1000c32f f   LIBCMT:utility.obj
 0001:0000b3b6       ___scrt_is_nonwritable_in_current_image 1000c3b6 f   LIBCMT:utility.obj
 0001:0000b44a       ___scrt_release_startup_lock 1000c44a f   LIBCMT:utility.obj
 0001:0000b467       ___scrt_uninitialize_crt   1000c467 f   LIBCMT:utility.obj
 0001:0000b48f       __onexit                   1000c48f f   LIBCMT:utility.obj
 0001:0000b4bc       _atexit                    1000c4bc f   LIBCMT:utility.obj
 0001:0000b4d1       ??3@YAXPAX@Z               1000c4d1 f   LIBCMT:delete_scalar.obj
 0001:0000b59b       __Init_thread_footer       1000c59b f   LIBCMT:thread_safe_statics.obj
 0001:0000b5e5       __Init_thread_header       1000c5e5 f   LIBCMT:thread_safe_statics.obj
 0001:0000b637       __Init_thread_notify       1000c637 f   LIBCMT:thread_safe_statics.obj
 0001:0000b66d       __Init_thread_wait         1000c66d f   LIBCMT:thread_safe_statics.obj
 0001:0000b6bb       ___raise_securityfailure   1000c6bb f   LIBCMT:gs_report.obj
 0001:0000b6e3       ___report_gsfailure        1000c6e3 f   LIBCMT:gs_report.obj
 0001:0000b7dc       ___report_rangecheckfailure 1000c7dc f   LIBCMT:gs_report.obj
 0001:0000b7e8       ___report_securityfailure  1000c7e8 f   LIBCMT:gs_report.obj
 0001:0000b8b6       ??2@YAPAXIABUnothrow_t@std@@@Z 1000c8b6 f   LIBCMT:new_scalar_nothrow.obj
 0001:0000b906       ??_U@YAPAXIABUnothrow_t@std@@@Z 1000c906 f   LIBCMT:new_array_nothrow.obj
 0001:0000b90f       @__security_check_cookie@4 1000c90f f   LIBCMT:secchk.obj
 0001:0000b920       __SEH_prolog4_GS           1000c920 f   LIBCMT:sehprolg4gs.obj
 0001:0000b969       __SEH_epilog4_GS           1000c969 f   LIBCMT:sehprolg4gs.obj
 0001:0000b980       __alloca_probe_16          1000c980 f   LIBCMT:alloca16.obj
 0001:0000b996       __alloca_probe_8           1000c996     LIBCMT:alloca16.obj
 0001:0000b9b0       __alloca_probe             1000c9b0 f   LIBCMT:chkstk.obj
 0001:0000b9b0       __chkstk                   1000c9b0 f   LIBCMT:chkstk.obj
 0001:0000bd18       __DllMainCRTStartup@12     1000cd18 f   LIBCMT:dll_dllmain.obj
 0001:0000bd3b       ??2@YAPAXI@Z               1000cd3b f   LIBCMT:new_scalar.obj
 0001:0000bd6b       ___isa_available_init      1000cd6b f   LIBCMT:cpu_disp.obj
 0001:0000bf3b       ___scrt_is_ucrt_dll_in_use 1000cf3b f   LIBCMT:ucrt_detection.obj
 0001:0000bf47       ___scrt_fastfail           1000cf47 f   LIBCMT:utility_desktop.obj
 0001:0000c061       __crt_debugger_hook        1000d061 f   LIBCMT:utility_desktop.obj
 0001:0000c070       __SEH_prolog4              1000d070 f   LIBCMT:sehprolg4.obj
 0001:0000c0b6       __SEH_epilog4              1000d0b6 f   LIBCMT:sehprolg4.obj
 0001:0000c0cb       @_guard_check_icall_nop@4  1000d0cb f i LIBCMT:guard_support.obj
 0001:0000c119       ___security_init_cookie    1000d119 f   LIBCMT:gs_support.obj
 0001:0000c164       ?__scrt_initialize_type_info@@YAXXZ 1000d164 f   LIBCMT:tncleanup.obj
 0001:0000c170       ?__scrt_uninitialize_type_info@@YAXXZ 1000d170 f   LIBCMT:tncleanup.obj
 0001:0000c17c       ___local_stdio_scanf_options 1000d17c f i LIBCMT:default_local_stdio_options.obj
 0001:0000c182       ___scrt_initialize_default_local_stdio_options 1000d182 f   LIBCMT:default_local_stdio_options.obj
 0001:0000c19f       ___scrt_get_dyn_tls_init_callback 1000d19f f   LIBCMT:dyn_tls_init.obj
 0001:0000c1a5       __RTC_Initialize           1000d1a5 f   LIBCMT:initsect.obj
 0001:0000c1d1       __RTC_Terminate            1000d1d1 f   LIBCMT:initsect.obj
 0001:0000c1fd       ??0bad_alloc@std@@QAE@ABV01@@Z 1000d1fd f i LIBCMT:throw_bad_alloc.obj
 0001:0000c218       ??0bad_alloc@std@@QAE@XZ   1000d218 f i LIBCMT:throw_bad_alloc.obj
 0001:0000c230       ??0bad_array_new_length@std@@QAE@ABV01@@Z 1000d230 f i LIBCMT:throw_bad_alloc.obj
 0001:0000c24b       ??0bad_array_new_length@std@@QAE@XZ 1000d24b f i LIBCMT:throw_bad_alloc.obj
 0001:0000c263       ??0exception@std@@QAE@ABV01@@Z 1000d263 f i LIBCMT:throw_bad_alloc.obj
 0001:0000c28f       ??1bad_array_new_length@std@@UAE@XZ 1000d28f f i LIBCMT:throw_bad_alloc.obj
 0001:0000c28f       ??1bad_alloc@std@@UAE@XZ   1000d28f f i LIBCMT:throw_bad_alloc.obj
 0001:0000c28f       ??1bad_exception@std@@UAE@XZ 1000d28f f i libvcruntime:frame.obj
 0001:0000c2a0       ??_Ebad_alloc@std@@UAEPAXI@Z 1000d2a0 f i LIBCMT:throw_bad_alloc.obj
 0001:0000c2a0       ??_Gexception@std@@UAEPAXI@Z 1000d2a0 f i LIBCMT:throw_bad_alloc.obj
 0001:0000c2a0       ??_Gbad_exception@std@@UAEPAXI@Z 1000d2a0 f i libvcruntime:frame.obj
 0001:0000c2a0       ??_Ebad_array_new_length@std@@UAEPAXI@Z 1000d2a0 f i LIBCMT:throw_bad_alloc.obj
 0001:0000c2a0       ??_Gbad_array_new_length@std@@UAEPAXI@Z 1000d2a0 f i LIBCMT:throw_bad_alloc.obj
 0001:0000c2a0       ??_Eexception@std@@UAEPAXI@Z 1000d2a0 f i LIBCMT:throw_bad_alloc.obj
 0001:0000c2a0       ??_Gbad_alloc@std@@UAEPAXI@Z 1000d2a0 f i LIBCMT:throw_bad_alloc.obj
 0001:0000c2a0       ??_Ebad_exception@std@@UAEPAXI@Z 1000d2a0 f i libvcruntime:frame.obj
 0001:0000c2cd       ?__scrt_throw_std_bad_alloc@@YAXXZ 1000d2cd f   LIBCMT:throw_bad_alloc.obj
 0001:0000c2ea       ?__scrt_throw_std_bad_array_new_length@@YAXXZ 1000d2ea f   LIBCMT:throw_bad_alloc.obj
 0001:0000c307       ?what@exception@std@@UBEPBDXZ 1000d307 f i LIBCMT:throw_bad_alloc.obj
 0001:0000c314       ??_Etype_info@@UAEPAXI@Z   1000d314 f i LIBCMT:std_type_info_static.obj
 0001:0000c314       ??_Gtype_info@@UAEPAXI@Z   1000d314 f i LIBCMT:std_type_info_static.obj
 0001:0000c337       ??0CAtlBaseModule@ATL@@QAE@XZ 1000d337 f   atls:atlbase.obj
 0001:0000c38a       ??0_ATL_BASE_MODULE70@ATL@@QAE@XZ 1000d38a f i atls:atlbase.obj
 0001:0000c3ad       ??1CAtlBaseModule@ATL@@QAE@XZ 1000d3ad f   atls:atlbase.obj
 0001:0000c49a       ?Init@_stdcallthunk@ATL@@QAEHKPAX@Z 1000d49a f i atls:atlthunk.obj
 0001:0000c4cf       ?__AllocStdCallThunk_cmn@@YAPAXXZ 1000d4cf f   atls:atlthunk.obj
 0001:0000c595       ?__FreeStdCallThunk_cmn@@YAXPAX@Z 1000d595 f   atls:atlthunk.obj
 0001:0000c630       _AtlThunk_AllocateData@0   1000d630 f   atls:atlthunk.obj
 0001:0000c695       _AtlThunk_DataToCode@4     1000d695 f   atls:atlthunk.obj
 0001:0000c6dc       _AtlThunk_FreeData@4       1000d6dc f   atls:atlthunk.obj
 0001:0000c732       _AtlThunk_InitData@12      1000d732 f   atls:atlthunk.obj
 0001:0000c781       __get_purecall_handler     1000d781 f   libvcruntime:purevirt.obj
 0001:0000c787       __purecall                 1000d787 f   libvcruntime:purevirt.obj
 0001:0000c7a3       _wcsstr                    1000d7a3 f   libvcruntime:wcsstr.obj
 0001:0000ca60       __except_handler4          1000da60 f   libvcruntime:chandler4.obj
 0001:0000cbbe       _memcmp                    1000dbbe f   libvcruntime:memcmp.obj
 0001:0000db70       _memcpy                    1000eb70 f   libvcruntime:memcpy.obj
 0001:0000e0f0       _memset                    1000f0f0 f   libvcruntime:memset.obj
 0001:0000e24a       ___vcrt_initialize         1000f24a f   libvcruntime:initialization.obj
 0001:0000e269       ___vcrt_thread_attach      1000f269 f   libvcruntime:initialization.obj
 0001:0000e274       ___vcrt_thread_detach      1000f274 f   libvcruntime:initialization.obj
 0001:0000e27f       ___vcrt_uninitialize       1000f27f f   libvcruntime:initialization.obj
 0001:0000e296       ___vcrt_uninitialize_critical 1000f296 f   libvcruntime:initialization.obj
 0001:0000e29e       ?GetRangeOfTrysToCheck@__FrameHandler3@@SA?AU?$pair@Viterator@TryBlockMap@__FrameHandler3@@V123@@std@@AAVTryBlockMap@1@HPAXPBU_s_FuncInfo@@H@Z 1000f29e f   libvcruntime:trnsctrl.obj
 0001:0000e30e       ?_CallCatchBlock2@@YAPAXPAUEHRegistrationNode@@PBU_s_FuncInfo@@PAXHK@Z 1000f30e f   libvcruntime:trnsctrl.obj
 0001:0000e36c       ?_CallSETranslator@@YAHPAUEHExceptionRecord@@PAUEHRegistrationNode@@PAX2PBU_s_FuncInfo@@H1@Z 1000f36c f   libvcruntime:trnsctrl.obj
 0001:0000e452       ?_JumpToContinuation@@YGXPAXPAUEHRegistrationNode@@@Z 1000f452 f   libvcruntime:trnsctrl.obj
 0001:0000e482       ?_UnwindNestedFrames@@YGXPAUEHRegistrationNode@@PAUEHExceptionRecord@@@Z 1000f482 f   libvcruntime:trnsctrl.obj
 0001:0000e4d5       __CatchGuardHandler        1000f4d5 f   libvcruntime:trnsctrl.obj
 0001:0000e506       __CreateFrameInfo          1000f506 f   libvcruntime:trnsctrl.obj
 0001:0000e52a       __FindAndUnlinkFrame       1000f52a f   libvcruntime:trnsctrl.obj
 0001:0000e572       __TranslatorGuardHandler   1000f572 f   libvcruntime:trnsctrl.obj
 0001:0000e60f       ___CxxFrameHandler3        1000f60f f   libvcruntime:trnsctrl.obj
 0001:0000e645       ___DestructExceptionObject 1000f645 f   libvcruntime:ehhelpers.obj
 0001:0000e6e6       ?_CallMemberFunction0@@YGXQAX0@Z 1000f6e6 f i libvcruntime:ehhelpers.obj
 0001:0000e74b       __IsExceptionObjectToBeDestroyed 1000f74b f   libvcruntime:ehhelpers.obj
 0001:0000e771       ___AdjustPointer           1000f771 f   libvcruntime:ehhelpers.obj
 0001:0000e796       ___FrameUnwindFilter       1000f796 f   libvcruntime:ehhelpers.obj
 0001:0000e7ec       ___std_type_info_compare   1000f7ec f   libvcruntime:std_type_info.obj
 0001:0000e828       ___std_type_info_destroy_list 1000f828 f   libvcruntime:std_type_info.obj
 0001:0000e84b       ___std_exception_copy      1000f84b f   libvcruntime:std_exception.obj
 0001:0000e8ae       ___std_exception_destroy   1000f8ae f   libvcruntime:std_exception.obj
 0001:0000e8cd       __CxxThrowException@8      1000f8cd f   libvcruntime:throw.obj
 0001:0000e940       _memmove                   1000f940 f   libvcruntime:memmove.obj
 0001:0000eec0       __local_unwind4            1000fec0 f   libvcruntime:exsup4.obj
 0001:0000ef98       __seh_longjmp_unwind4@4    1000ff98 f   libvcruntime:exsup4.obj
 0001:0000efc0       @_EH4_CallFilterFunc@8     1000ffc0 f   libvcruntime:exsup4.obj
 0001:0000efd8       @_EH4_TransferToHandler@8  1000ffd8 f   libvcruntime:exsup4.obj
 0001:0000eff4       @_EH4_GlobalUnwind2@8      1000fff4 f   libvcruntime:exsup4.obj
 0001:0000f010       @_EH4_LocalUnwind@16       10010010 f   libvcruntime:exsup4.obj
 0001:0000f027       ___except_validate_context_record 10010027 f   libvcruntime:jbcxrval.obj
 0001:0000f057       ___except_validate_jump_buffer 10010057 f   libvcruntime:jbcxrval.obj
 0001:0000f084       ___vcrt_freefls@4          10010084 f   libvcruntime:per_thread_data.obj
 0001:0000f0a0       ___vcrt_freeptd            100100a0 f   libvcruntime:per_thread_data.obj
 0001:0000f0d6       ___vcrt_getptd             100100d6 f   libvcruntime:per_thread_data.obj
 0001:0000f0e4       ___vcrt_getptd_noexit      100100e4 f   libvcruntime:per_thread_data.obj
 0001:0000f176       ___vcrt_initialize_ptd     10010176 f   libvcruntime:per_thread_data.obj
 0001:0000f1a9       ___vcrt_uninitialize_ptd   100101a9 f   libvcruntime:per_thread_data.obj
 0001:0000f1c4       ___vcrt_initialize_locks   100101c4 f   libvcruntime:locks.obj
 0001:0000f200       ___vcrt_uninitialize_locks 10010200 f   libvcruntime:locks.obj
 0001:0000f972       ??$TypeMatchHelper@V__FrameHandler3@@@@YAHPBU_s_HandlerType@@PBU_s_CatchableType@@PBU_s_ThrowInfo@@@Z 10010972 f i libvcruntime:frame.obj
 0001:0000fa00       ??$__InternalCxxFrameHandler@V__FrameHandler3@@@@YA?AW4_EXCEPTION_DISPOSITION@@PAUEHExceptionRecord@@PAUEHRegistrationNode@@PAU_CONTEXT@@PAXPBU_s_FuncInfo@@H1E@Z 10010a00 f i libvcruntime:frame.obj
 0001:0000fb02       ??0bad_exception@std@@QAE@ABV01@@Z 10010b02 f i libvcruntime:frame.obj
 0001:0000fb1d       ??0bad_exception@std@@QAE@XZ 10010b1d f i libvcruntime:frame.obj
 0001:0000fb35       ??8type_info@@QBE_NABV0@@Z 10010b35 f i libvcruntime:frame.obj
 0001:0000fd9c       ?FrameUnwindToEmptyState@__FrameHandler3@@SAXPAUEHRegistrationNode@@PAXPBU_s_FuncInfo@@@Z 10010d9c f   libvcruntime:frame.obj
 0001:0000fdb4       ?FrameUnwindToState@__FrameHandler3@@SAXPAUEHRegistrationNode@@PAXPBU_s_FuncInfo@@H@Z 10010db4 f   libvcruntime:frame.obj
 0001:0000ff36       ?_CallMemberFunction1@@YGXQAX00@Z 10010f36 f i libvcruntime:frame.obj
 0001:0000ff46       ?_CallMemberFunction2@@YGXQAX00H@Z 10010f46 f i libvcruntime:frame.obj
 0001:0000ff59       ?getESTypes@__FrameHandler3@@SAPBU_s_ESTypeList@@PBU_s_FuncInfo@@@Z 10010f59 f i libvcruntime:frame.obj
 0001:0000ff70       __CallSettingFrame@12      10010f70 f   libvcruntime:lowhelpr.obj
 0001:0000ff97       __NLG_Return               10010f97     libvcruntime:lowhelpr.obj
 0001:0000ffc0       __global_unwind2           10010fc0 f   libvcruntime:exsup.obj
 0001:00010026       __local_unwind2            10011026 f   libvcruntime:exsup.obj
 0001:000100aa       __abnormal_termination     100110aa f   libvcruntime:exsup.obj
 0001:000100d0       __NLG_Notify1              100110d0 f   libvcruntime:exsup.obj
 0001:000100dc       __NLG_Notify               100110dc f   libvcruntime:exsup.obj
 0001:000100f3       __NLG_Dispatch2            100110f3     libvcruntime:exsup.obj
 0001:000100f3       __NLG_Dispatch             100110f3     libvcruntime:exsup.obj
 0001:000100fb       __NLG_Call                 100110fb f   libvcruntime:exsup.obj
 0001:000100fd       __NLG_Return2              100110fd     libvcruntime:exsup.obj
 0001:000101f3       ___vcrt_FlsAlloc           100111f3 f   libvcruntime:winapi_downlevel.obj
 0001:0001022e       ___vcrt_FlsFree            1001122e f   libvcruntime:winapi_downlevel.obj
 0001:00010269       ___vcrt_FlsGetValue        10011269 f   libvcruntime:winapi_downlevel.obj
 0001:000102a4       ___vcrt_FlsSetValue        100112a4 f   libvcruntime:winapi_downlevel.obj
 0001:000102e2       ___vcrt_InitializeCriticalSectionEx 100112e2 f   libvcruntime:winapi_downlevel.obj
 0001:00010329       _unexpected                10011329 f   libvcruntime:unexpected.obj
 0001:00010346       ?GetCurrentState@__FrameHandler3@@SAHPAUEHRegistrationNode@@PAXPBU_s_FuncInfo@@@Z 10011346 f   libvcruntime:ehstate.obj
 0001:00010363       ?SetState@__FrameHandler3@@SAXPAUEHRegistrationNode@@PBU_s_FuncInfo@@H@Z 10011363 f   libvcruntime:ehstate.obj
 0001:00010371       _free                      10011371 f   libucrt:free.obj
 0001:0001038c       ___acrt_call_reportfault   1001138c f   libucrt:invalid_parameter.obj
 0001:000104c5       ___acrt_initialize_invalid_parameter_handler 100114c5 f   libucrt:invalid_parameter.obj
 0001:000104d4       __invalid_parameter        100114d4 f   libucrt:invalid_parameter.obj
 0001:00010538       __invalid_parameter_noinfo 10011538 f   libucrt:invalid_parameter.obj
 0001:00010548       __invoke_watson            10011548 f   libucrt:invalid_parameter.obj
 0001:0001057c       ___acrt_errno_from_os_error 1001157c f   libucrt:errno.obj
 0001:000105bf       ___acrt_errno_map_os_error 100115bf f   libucrt:errno.obj
 0001:000105e2       ___doserrno                100115e2 f   libucrt:errno.obj
 0001:000105f5       __errno                    100115f5 f   libucrt:errno.obj
 0001:00010608       _calloc                    10011608 f   libucrt:calloc.obj
 0001:00010613       _malloc                    10011613 f   libucrt:malloc.obj
 0001:0001061e       __recalloc                 1001161e f   libucrt:recalloc.obj
 0001:00010629       __recalloc_base            10011629 f   libucrt:recalloc.obj
 0001:00010696       __resetstkoflw             10011696 f   libucrt:resetstk.obj
 0001:0001075b       _wcscat_s                  1001175b f   libucrt:wcscat_s.obj
 0001:000107d0       _wcscpy_s                  100117d0 f   libucrt:wcscpy_s.obj
 0001:000108ff       _wcsncpy_s                 100118ff f   libucrt:wcsncpy_s.obj
 0001:00010b0b       ??$count@D@formatting_buffer@__crt_stdio_output@@QBEIXZ 10011b0b f i libucrt:output.obj
 0001:00010b23       ??$count@_W@formatting_buffer@__crt_stdio_output@@QBEIXZ 10011b23 f i libucrt:output.obj
 0001:00010b3c       ??$ensure_buffer_is_big_enough@D@formatting_buffer@__crt_stdio_output@@QAE_NI@Z 10011b3c f i libucrt:output.obj
 0001:00010bb9       ??$ensure_buffer_is_big_enough@_W@formatting_buffer@__crt_stdio_output@@QAE_NI@Z 10011bb9 f i libucrt:output.obj
 0001:00010c37       ??$is_wide_character_specifier@_W@__crt_stdio_output@@YA_N_K_WW4length_modifier@0@@Z 10011c37 f i libucrt:output.obj
 0001:00010c85       ??$scratch_data@D@formatting_buffer@__crt_stdio_output@@QAEPADXZ 10011c85 f i libucrt:output.obj
 0001:00010ca3       ??$type_case_integer_parse_into_buffer@I@?$output_processor@_WV?$string_output_adapter@_W@__crt_stdio_output@@V?$format_validation_base@_WV?$string_output_adapter@_W@__crt_stdio_output@@@2@@__crt_stdio_output@@AAEXII_N@Z 10011ca3 f i libucrt:output.obj
 0001:00010d2a       ??$type_case_integer_parse_into_buffer@_K@?$output_processor@_WV?$string_output_adapter@_W@__crt_stdio_output@@V?$format_validation_base@_WV?$string_output_adapter@_W@__crt_stdio_output@@@2@@__crt_stdio_output@@AAEX_KI_N@Z 10011d2a f i libucrt:output.obj
 0001:00010dcc       ??$write_multiple_characters@V?$string_output_adapter@_W@__crt_stdio_output@@D@__crt_stdio_output@@YAXABV?$string_output_adapter@_W@0@DHQAH@Z 10011dcc f i libucrt:output.obj
 0001:00010dfd       ??0?$common_data@_W@__crt_stdio_output@@IAE@XZ 10011dfd f i libucrt:output.obj
 0001:00010e47       ??0?$output_adapter_data@_WV?$string_output_adapter@_W@__crt_stdio_output@@@__crt_stdio_output@@IAE@ABV?$string_output_adapter@_W@1@_KQB_WQAU__crt_locale_pointers@@QAD@Z 10011e47 f i libucrt:output.obj
 0001:00010e83       ??0_LocaleUpdate@@QAE@QAU__crt_locale_pointers@@@Z 10011e83 f i libucrt:output.obj
 0001:00010f06       ??1formatting_buffer@__crt_stdio_output@@QAE@XZ 10011f06 f i libucrt:output.obj
 0001:00010f20       ??4?$__crt_unique_heap_ptr@DU__crt_internal_free_policy@@@@QAEAAV0@$$QAV0@@Z 10011f20 f i libucrt:output.obj
 0001:00010f44       ?crop_zeroes@__crt_stdio_output@@YAXPADQAU__crt_locale_pointers@@@Z 10011f44 f i libucrt:output.obj
 0001:00010fa4       ?find_next_state@?$output_processor@_WV?$string_output_adapter@_W@__crt_stdio_output@@V?$format_validation_base@_WV?$string_output_adapter@_W@__crt_stdio_output@@@2@@__crt_stdio_output@@ABE?AW4state@2@_WW432@@Z 10011fa4 f i libucrt:output.obj
 0001:00010fe6       ?force_decimal_point@__crt_stdio_output@@YAXPADQAU__crt_locale_pointers@@@Z 10011fe6 f i libucrt:output.obj
 0001:00011042       ?parse_int_from_format_string@?$output_processor@_WV?$string_output_adapter@_W@__crt_stdio_output@@V?$format_validation_base@_WV?$string_output_adapter@_W@__crt_stdio_output@@@2@@__crt_stdio_output@@AAE_NQAH@Z 10012042 f i libucrt:output.obj
 0001:000110b8       ?process@?$output_processor@_WV?$string_output_adapter@_W@__crt_stdio_output@@V?$format_validation_base@_WV?$string_output_adapter@_W@__crt_stdio_output@@@2@@__crt_stdio_output@@QAEHXZ 100120b8 f i libucrt:output.obj
 0001:000111e0       ?state_case_flag@?$output_processor@_WV?$string_output_adapter@_W@__crt_stdio_output@@V?$format_validation_base@_WV?$string_output_adapter@_W@__crt_stdio_output@@@2@@__crt_stdio_output@@AAE_NXZ 100121e0 f i libucrt:output.obj
 0001:0001121d       ?state_case_normal@?$output_processor@_WV?$string_output_adapter@_W@__crt_stdio_output@@V?$format_validation_base@_WV?$string_output_adapter@_W@__crt_stdio_output@@@2@@__crt_stdio_output@@AAE_NXZ 1001221d f i libucrt:output.obj
 0001:0001123c       ?state_case_normal_common@?$output_processor@_WV?$string_output_adapter@_W@__crt_stdio_output@@V?$format_validation_base@_WV?$string_output_adapter@_W@__crt_stdio_output@@@2@@__crt_stdio_output@@AAE_NXZ 1001223c f i libucrt:output.obj
 0001:00011257       ?state_case_precision@?$output_processor@_WV?$string_output_adapter@_W@__crt_stdio_output@@V?$format_validation_base@_WV?$string_output_adapter@_W@__crt_stdio_output@@@2@@__crt_stdio_output@@AAE_NXZ 10012257 f i libucrt:output.obj
 0001:0001127e       ?state_case_size@?$output_processor@_WV?$string_output_adapter@_W@__crt_stdio_output@@V?$format_validation_base@_WV?$string_output_adapter@_W@__crt_stdio_output@@@2@@__crt_stdio_output@@AAE_NXZ 1001227e f i libucrt:output.obj
 0001:000113f6       ?state_case_type@?$output_processor@_WV?$string_output_adapter@_W@__crt_stdio_output@@V?$format_validation_base@_WV?$string_output_adapter@_W@__crt_stdio_output@@@2@@__crt_stdio_output@@AAE_NXZ 100123f6 f i libucrt:output.obj
 0001:0001165b       ?state_case_width@?$output_processor@_WV?$string_output_adapter@_W@__crt_stdio_output@@V?$format_validation_base@_WV?$string_output_adapter@_W@__crt_stdio_output@@@2@@__crt_stdio_output@@AAE_NXZ 1001265b f i libucrt:output.obj
 0001:00011687       ?to_integer_size@__crt_stdio_output@@YAIW4length_modifier@1@@Z 10012687 f i libucrt:output.obj
 0001:000116db       ?type_case_Z@?$output_processor@_WV?$string_output_adapter@_W@__crt_stdio_output@@V?$format_validation_base@_WV?$string_output_adapter@_W@__crt_stdio_output@@@2@@__crt_stdio_output@@AAE_NXZ 100126db f i libucrt:output.obj
 0001:00011735       ?type_case_a@?$output_processor@_WV?$string_output_adapter@_W@__crt_stdio_output@@V?$format_validation_base@_WV?$string_output_adapter@_W@__crt_stdio_output@@@2@@__crt_stdio_output@@AAE_NXZ 10012735 f i libucrt:output.obj
 0001:0001189a       ?type_case_c_tchar@?$output_processor@_WV?$string_output_adapter@_W@__crt_stdio_output@@V?$format_validation_base@_WV?$string_output_adapter@_W@__crt_stdio_output@@@2@@__crt_stdio_output@@AAE_N_W@Z 1001289a f i libucrt:output.obj
 0001:00011930       ?type_case_integer@?$output_processor@_WV?$string_output_adapter@_W@__crt_stdio_output@@V?$format_validation_base@_WV?$string_output_adapter@_W@__crt_stdio_output@@@2@@__crt_stdio_output@@AAE_NI_N@Z 10012930 f i libucrt:output.obj
 0001:00011a85       ?type_case_n@?$output_processor@_WV?$string_output_adapter@_W@__crt_stdio_output@@V?$format_validation_base@_WV?$string_output_adapter@_W@__crt_stdio_output@@@2@@__crt_stdio_output@@AAE_NXZ 10012a85 f i libucrt:output.obj
 0001:00011af9       ?type_case_o@?$output_processor@_WV?$string_output_adapter@_W@__crt_stdio_output@@V?$format_validation_base@_WV?$string_output_adapter@_W@__crt_stdio_output@@@2@@__crt_stdio_output@@AAE_NXZ 10012af9 f i libucrt:output.obj
 0001:00011b18       ?type_case_p@?$output_processor@_WV?$string_output_adapter@_W@__crt_stdio_output@@V?$format_validation_base@_WV?$string_output_adapter@_W@__crt_stdio_output@@@2@@__crt_stdio_output@@AAE_NXZ 10012b18 f i libucrt:output.obj
 0001:00011b30       ?type_case_s@?$output_processor@_WV?$string_output_adapter@_W@__crt_stdio_output@@V?$format_validation_base@_WV?$string_output_adapter@_W@__crt_stdio_output@@@2@@__crt_stdio_output@@AAE_NXZ 10012b30 f i libucrt:output.obj
 0001:00011ba3       ?type_case_s_compute_narrow_string_length@?$output_processor@_WV?$string_output_adapter@_W@__crt_stdio_output@@V?$format_validation_base@_WV?$string_output_adapter@_W@__crt_stdio_output@@@2@@__crt_stdio_output@@ABEHH_W@Z 10012ba3 f i libucrt:output.obj
 0001:00011bea       ?validate@?$string_output_adapter@_W@__crt_stdio_output@@QBE_NXZ 10012bea f i libucrt:output.obj
 0001:00011bea       ?validate@?$c_string_character_source@_W@__crt_strtox@@QBE_NXZ 10012bea f i libucrt:atox.obj
 0001:00011c05       ?validate_and_update_state_at_end_of_format_string@?$format_validation_base@_WV?$string_output_adapter@_W@__crt_stdio_output@@@__crt_stdio_output@@IBE_NXZ 10012c05 f i libucrt:output.obj
 0001:00011c27       ?write_character@?$string_output_adapter@_W@__crt_stdio_output@@QBE_N_WQAH@Z 10012c27 f i libucrt:output.obj
 0001:00011c6c       ?write_stored_string_tchar@?$output_processor@_WV?$string_output_adapter@_W@__crt_stdio_output@@V?$format_validation_base@_WV?$string_output_adapter@_W@__crt_stdio_output@@@2@@__crt_stdio_output@@AAE_N_W@Z 10012c6c f i libucrt:output.obj
 0001:00011cff       ?write_string@?$string_output_adapter@_W@__crt_stdio_output@@QBEXQB_WHQAHAAV__crt_deferred_errno_cache@@@Z 10012cff f i libucrt:output.obj
 0001:00011d70       ___acrt_locale_get_ctype_array_value 10012d70 f i libucrt:output.obj
 0001:00011d92       ___stdio_common_vswprintf_s 10012d92 f   libucrt:output.obj
 0001:00011db6       __seh_filter_dll           10012db6 f   libucrt:exception_filter.obj
 0001:00011dd6       __seh_filter_exe           10012dd6 f   libucrt:exception_filter.obj
 0001:000121a4       ___acrt_initialize_thread_local_exit_callback 100131a4 f   libucrt:exit.obj
 0001:000121b3       __cexit                    100131b3 f   libucrt:exit.obj
 0001:000121c2       __exit                     100131c2 f   libucrt:exit.obj
 0001:000121d8       __is_c_termination_complete 100131d8 f   libucrt:exit.obj
 0001:0001248c       ___acrt_allocate_buffer_for_argv 1001348c f   libucrt:argv_parsing.obj
 0001:000124db       __configure_narrow_argv    100134db f   libucrt:argv_parsing.obj
 0001:00012638       ??$uninitialize@A6AXAAPAPAD@Z@?$dual_state_global@PAPAD@__crt_state_management@@QAEXA6AXAAPAPAD@Z@Z 10013638 f i libucrt:environment_initialization.obj
 0001:00012638       ??$uninitialize@A6AXAAPAPA_W@Z@?$dual_state_global@PAPA_W@__crt_state_management@@QAEXA6AXAAPAPA_W@Z@Z 10013638 f i libucrt:environment_initialization.obj
 0001:00012697       ___dcrt_uninitialize_environments_nolock 10013697 f   libucrt:environment_initialization.obj
 0001:000126ce       __initialize_narrow_environment 100136ce f   libucrt:environment_initialization.obj
 0001:00012789       ??$__crt_fast_encode_pointer@PAP6AXXZ@@YAPAP6AXXZQAP6AXXZ@Z 10013789 f i libucrt:onexit.obj
 0001:00012789       ??$__crt_fast_encode_pointer@PAX@@YAPAXQAX@Z 10013789 f i libucrt:initialization.obj
 0001:00012789       ??$__crt_fast_encode_pointer@P6AHXZ@@YAP6AHXZQ6AHXZ@Z 10013789 f i libucrt:onexit.obj
 0001:000129ab       __crt_atexit               100139ab f   libucrt:onexit.obj
 0001:000129c1       __execute_onexit_table     100139c1 f   libucrt:onexit.obj
 0001:000129ee       __initialize_onexit_table  100139ee f   libucrt:onexit.obj
 0001:00012a17       __register_onexit_function 10013a17 f   libucrt:onexit.obj
 0001:00012a4a       ___acrt_uninitialize_command_line 10013a4a f   libucrt:argv_data.obj
 0001:00012b48       ___acrt_initialize         10013b48 f   libucrt:initialization.obj
 0001:00012b5a       ___acrt_thread_attach      10013b5a f   libucrt:initialization.obj
 0001:00012b65       ___acrt_thread_detach      10013b65 f   libucrt:initialization.obj
 0001:00012b6d       ___acrt_uninitialize       10013b6d f   libucrt:initialization.obj
 0001:00012b9d       ___acrt_uninitialize_critical 10013b9d f   libucrt:initialization.obj
 0001:00012baf       __initterm                 10013baf f   libucrt:initterm.obj
 0001:00012bf4       __initterm_e               10013bf4 f   libucrt:initterm.obj
 0001:00012c22       ___acrt_initialize_new_handler 10013c22 f   libucrt:new_handler.obj
 0001:00012c31       __callnewh                 10013c31 f   libucrt:new_handler.obj
 0001:00012c5e       __query_new_handler        10013c5e f   libucrt:new_handler.obj
 0001:00012cba       _terminate                 10013cba f   libucrt:terminate.obj
 0001:00012cf6       _abort                     10013cf6 f   libucrt:abort.obj
 0001:00012d3a       _strcpy_s                  10013d3a f   libucrt:strcpy_s.obj
 0001:00012d94       ??$is_overflow_condition@K@__crt_strtox@@YA_NIK@Z 10013d94 f i libucrt:atox.obj
 0001:00012dc5       ??$parse_integer@KV?$c_string_character_source@_W@__crt_strtox@@@__crt_strtox@@YAKQAU__crt_locale_pointers@@V?$c_string_character_source@_W@0@H_N@Z 10013dc5 f i libucrt:atox.obj
 0001:000133cd       ?unget@?$c_string_character_source@_W@__crt_strtox@@QAEX_W@Z 100143cd f i libucrt:atox.obj
 0001:00013400       _strncmp                   10014400 f   libucrt:strncmp.obj
 0001:00013478       _wcsncmp                   10014478 f   libucrt:wcsncmp.obj
 0001:000134b2       __free_base                100144b2 f   libucrt:free_base.obj
 0001:0001382a       ___acrt_freeptd            1001482a f   libucrt:per_thread_data.obj
 0001:00013856       ___acrt_getptd             10014856 f   libucrt:per_thread_data.obj
 0001:00013913       ___acrt_getptd_head        10014913 f   libucrt:per_thread_data.obj
 0001:000139ad       ___acrt_getptd_noexit      100149ad f   libucrt:per_thread_data.obj
 0001:00013a62       ___acrt_initialize_ptd     10014a62 f   libucrt:per_thread_data.obj
 0001:00013a8e       ___acrt_uninitialize_ptd   10014a8e f   libucrt:per_thread_data.obj
 0001:00013aa8       __calloc_base              10014aa8 f   libucrt:calloc_base.obj
 0001:00013b05       __malloc_base              10014b05 f   libucrt:malloc_base.obj
 0001:00013b53       __msize_base               10014b53 f   libucrt:msize.obj
 0001:00013b86       __realloc_base             10014b86 f   libucrt:realloc_base.obj
 0001:00013d87       ___acrt_AppPolicyGetProcessTerminationMethodInternal@4 10014d87 f   libucrt:winapi_thunks.obj
 0001:00013dc7       ___acrt_AreFileApisANSI@0  10014dc7 f   libucrt:winapi_thunks.obj
 0001:00013de6       ___acrt_FlsAlloc@4         10014de6 f   libucrt:winapi_thunks.obj
 0001:00013e25       ___acrt_FlsFree@4          10014e25 f   libucrt:winapi_thunks.obj
 0001:00013e64       ___acrt_FlsGetValue@4      10014e64 f   libucrt:winapi_thunks.obj
 0001:00013ea3       ___acrt_FlsSetValue@8      10014ea3 f   libucrt:winapi_thunks.obj
 0001:00013ee5       ___acrt_InitializeCriticalSectionEx@12 10014ee5 f   libucrt:winapi_thunks.obj
 0001:00013f30       ___acrt_LCMapStringEx@36   10014f30 f   libucrt:winapi_thunks.obj
 0001:00013f8d       ___acrt_LocaleNameToLCID@8 10014f8d f   libucrt:winapi_thunks.obj
 0001:00013fbe       ___acrt_SetThreadStackGuarantee@4 10014fbe f   libucrt:winapi_thunks.obj
 0001:00013ff9       ___acrt_initialize_winapi_thunks 10014ff9 f   libucrt:winapi_thunks.obj
 0001:00014024       ___acrt_uninitialize_winapi_thunks 10015024 f   libucrt:winapi_thunks.obj
 0001:0001405a       ??$make_c_string_character_source@_WPAPA_W@__crt_strtox@@YA?AV?$c_string_character_source@_W@0@QB_WQAPA_W@Z 1001505a f i libucrt:strtox.obj
 0001:00014075       _wcstol                    10015075 f   libucrt:strtox.obj
 0001:0001409f       __mbtowc_l                 1001509f f   libucrt:mbtowc.obj
 0001:000141e1       _mbtowc                    100151e1 f   libucrt:mbtowc.obj
 0001:000141fb       _wcsnlen                   100151fb f   libucrt:strnlen.obj
 0001:000143ab       ___acrt_update_locale_info 100153ab f   libucrt:locale_update.obj
 0001:000143d8       ___acrt_update_multibyte_info 100153d8 f   libucrt:locale_update.obj
 0001:00014405       ?__acrt_fp_classify@@YA?AW4__acrt_fp_class@@ABN@Z 10015405 f i libucrt:cvt.obj
 0001:00014c50       ___acrt_fp_format          10015c50 f   libucrt:cvt.obj
 0001:00014d8b       __fileno                   10015d8b f   libucrt:fileno.obj
 0001:00014db2       ___acrt_initialize_stdio   10015db2 f   libucrt:_file.obj
 0001:00014e7a       ___acrt_uninitialize_stdio 10015e7a f   libucrt:_file.obj
 0001:00014ec6       __lock_file                10015ec6 f   libucrt:_file.obj
 0001:00014eda       __unlock_file              10015eda f   libucrt:_file.obj
 0001:00014eee       __get_printf_count_output  10015eee f   libucrt:printf_count_output.obj
 0001:00014f71       ___acrt_set_locale_changed 10015f71 f   libucrt:wsetlocale.obj
 0001:00014f7c       ___acrt_uninitialize_locale 10015f7c f   libucrt:wsetlocale.obj
 0001:0001510d       ___acrt_initialize_lowio   1001610d f   libucrt:ioinit.obj
 0001:0001516d       ___acrt_uninitialize_lowio 1001616d f   libucrt:ioinit.obj
 0001:00015199       ___acrt_initialize_locks   10016199 f   libucrt:locks.obj
 0001:000151da       ___acrt_lock               100161da f   libucrt:locks.obj
 0001:000151f1       ___acrt_uninitialize_locks 100161f1 f   libucrt:locks.obj
 0001:00015222       ___acrt_unlock             10016222 f   libucrt:locks.obj
 0001:00015239       ___acrt_get_process_end_policy 10016239 f   libucrt:win_policies.obj
 0001:00015403       ??$__acrt_mbs_to_wcs_cp@U__crt_win32_buffer_internal_dynamic_resizing@@@@YAHQBDAAV?$__crt_win32_buffer@_WU__crt_win32_buffer_internal_dynamic_resizing@@@@I@Z 10016403 f i libucrt:argv_wildcards.obj
 0001:00015917       ?__acrt_get_utf8_acp_compatibility_codepage@@YAIXZ 10016917 f i libucrt:argv_wildcards.obj
 0001:00015956       ?_deallocate@?$__crt_win32_buffer@DU__crt_win32_buffer_internal_dynamic_resizing@@@@AAEXXZ 10016956 f i libucrt:argv_wildcards.obj
 0001:00015956       ?_deallocate@?$__crt_win32_buffer@_WU__crt_win32_buffer_internal_dynamic_resizing@@@@AAEXXZ 10016956 f i libucrt:argv_wildcards.obj
 0001:00015970       ?allocate@?$__crt_win32_buffer@DU__crt_win32_buffer_internal_dynamic_resizing@@@@QAEHI@Z 10016970 f i libucrt:argv_wildcards.obj
 0001:000159ac       ?allocate@?$__crt_win32_buffer@_WU__crt_win32_buffer_internal_dynamic_resizing@@@@QAEHI@Z 100169ac f i libucrt:argv_wildcards.obj
 0001:000159eb       ?allocate@__crt_win32_buffer_internal_dynamic_resizing@@SAHQAPAXIABV__crt_win32_buffer_empty_debug_info@@@Z 100169eb f i libucrt:argv_wildcards.obj
 0001:00015a91       ___acrt_expand_narrow_argv_wildcards 10016a91 f   libucrt:argv_wildcards.obj
 0001:00015b63       ?allocate@?$__crt_win32_buffer@DU__crt_win32_buffer_no_resizing@@@@QAEHI@Z 10016b63 f i libucrt:getmodulefilenamea.obj
 0001:00015b8a       ?set_to_nullptr@?$__crt_win32_buffer@DU__crt_win32_buffer_no_resizing@@@@QAEXXZ 10016b8a f i libucrt:getmodulefilenamea.obj
 0001:00015b9e       ___acrt_GetModuleFileNameA 10016b9e f   libucrt:getmodulefilenamea.obj
 0001:0001615d       ___acrt_initialize_multibyte 1001715d f   libucrt:mbctype.obj
 0001:000161a5       ___acrt_update_thread_multibyte_data 100171a5 f   libucrt:mbctype.obj
 0001:000161b8       __setmbcp_nolock           100171b8 f   libucrt:mbctype.obj
 0001:00016483       __ismbblead                10017483 f   libucrt:ismbbyte.obj
 0001:0001649b       ___acrt_initialize_command_line 1001749b f   libucrt:argv_data.obj
 0001:000164b4       ___acrt_MultiByteToWideChar 100174b4 f   libucrt:multibytetowidechar.obj
 0001:00016530       ___acrt_WideCharToMultiByte 10017530 f   libucrt:widechartomultibyte.obj
 0001:00016614       ___dcrt_get_narrow_environment_from_os 10017614 f   libucrt:get_environment_from_os.obj
 0001:00016698       ___acrt_initialize_heap    10017698 f   libucrt:heap_handle.obj
 0001:000166a9       ___acrt_uninitialize_heap  100176a9 f   libucrt:heap_handle.obj
 0001:000166b3       ___acrt_execute_initializers 100176b3 f   libucrt:shared_initialization.obj
 0001:0001671b       ___acrt_execute_uninitializers 1001771b f   libucrt:shared_initialization.obj
 0001:0001681a       ___acrt_get_sigabrt_handler 1001781a f   libucrt:signal.obj
 0001:00016841       ___acrt_initialize_signal_handlers 10017841 f   libucrt:signal.obj
 0001:0001685f       ___fpecode                 1001785f f   libucrt:signal.obj
 0001:00016868       _raise                     10017868 f   libucrt:signal.obj
 0001:00016a63       ___acrt_has_user_matherr   10017a63 f   libucrt:matherr.obj
 0001:00016a7b       ___acrt_initialize_user_matherr 10017a7b f   libucrt:matherr.obj
 0001:00016a8a       ___acrt_invoke_user_matherr 10017a8a f   libucrt:matherr.obj
 0001:00016c99       ___acrt_stdio_flush_nolock 10017c99 f   libucrt:fflush.obj
 0001:00016cfe       __fflush_nolock            10017cfe f   libucrt:fflush.obj
 0001:00016d46       __flushall                 10017d46 f   libucrt:fflush.obj
 0001:00016d4f       ___pctype_func             10017d4f f   libucrt:ctype.obj
 0001:00016d73       _iswctype                  10017d73 f   libucrt:iswctype.obj
 0001:00016ddc       ___acrt_add_locale_ref     10017ddc f   libucrt:locale_refcounting.obj
 0001:00016e59       ___acrt_free_locale        10017e59 f   libucrt:locale_refcounting.obj
 0001:00016fa1       ___acrt_locale_add_lc_time_reference 10017fa1 f   libucrt:locale_refcounting.obj
 0001:00016fca       ___acrt_locale_free_lc_time_if_unreferenced 10017fca f   libucrt:locale_refcounting.obj
 0001:00016ffb       ___acrt_locale_release_lc_time_reference 10017ffb f   libucrt:locale_refcounting.obj
 0001:00017024       ___acrt_release_locale_ref 10018024 f   libucrt:locale_refcounting.obj
 0001:000170a5       ___acrt_update_thread_locale_data 100180a5 f   libucrt:locale_refcounting.obj
 0001:00017126       __updatetlocinfoEx_nolock  10018126 f   libucrt:locale_refcounting.obj
 0001:00017176       __query_new_mode           10018176 f   libucrt:new_mode.obj
 0001:000171cd       ___acrt_DownlevelLocaleNameToLCID 100181cd f   libucrt:lcidtoname_downlevel.obj
 0001:000171f9       __isleadbyte_l             100181f9 f i libucrt:_wctype.obj
 0001:0001725f       ?__mbrtowc_utf8@__crt_mbstring@@YAIPA_WPBDIPAU_Mbstatet@@@Z 1001825f f   libucrt:mbrtowc.obj
 0001:0001729f       ?__mbsrtowcs_utf8@__crt_mbstring@@YAIPA_WPAPBDIPAU_Mbstatet@@@Z 1001829f f   libucrt:mbrtowc.obj
 0001:0001739a       ?return_illegal_sequence@__crt_mbstring@@YAIPAU_Mbstatet@@@Z 1001839a f i libucrt:c32rtomb.obj
 0001:000173b9       ___acrt_fp_strflt_to_string 100183b9 f   libucrt:_fptostr.obj
 0001:00017480       ?divide@__crt_strtox@@YA_KAAUbig_integer@1@ABU21@@Z 10018480 f i libucrt:cfout.obj
 0001:00017918       ___acrt_fltout             10018918 f   libucrt:cfout.obj
 0001:00018c62       __fcloseall                10019c62 f   libucrt:closeall.obj
 0001:00018d0d       ___acrt_stdio_free_buffer_nolock 10019d0d f   libucrt:_freebuf.obj
 0001:00018d4d       __isatty                   10019d4d f   libucrt:isatty.obj
 0001:00018da3       ___acrt_locale_free_monetary 10019da3 f   libucrt:initmon.obj
 0001:00018ea1       ___acrt_locale_free_numeric 10019ea1 f   libucrt:initnum.obj
 0001:00018f42       ___acrt_locale_free_time   10019f42 f   libucrt:inittime.obj
 0001:00019026       ___acrt_GetStringTypeA     1001a026 f   libucrt:getstringtypea.obj
 0001:00019129       __freea_crt                1001a129 f i libucrt:getstringtypea.obj
 0001:00019149       ___acrt_lowio_create_handle_array 1001a149 f   libucrt:osfinfo.obj
 0001:000191c4       ___acrt_lowio_destroy_handle_array 1001a1c4 f   libucrt:osfinfo.obj
 0001:000191f9       ___acrt_lowio_ensure_fh_exists 1001a1f9 f   libucrt:osfinfo.obj
 0001:00019297       ___acrt_lowio_lock_fh      1001a297 f   libucrt:osfinfo.obj
 0001:000192ba       ___acrt_lowio_unlock_fh    1001a2ba f   libucrt:osfinfo.obj
 0001:000192dd       __free_osfhnd              1001a2dd f   libucrt:osfinfo.obj
 0001:0001936e       __get_osfhandle            1001a36e f   libucrt:osfinfo.obj
 0001:00019420       _qsort                     1001a420 f   libucrt:qsort.obj
 0001:00019917       _strncpy_s                 1001a917 f   libucrt:strncpy_s.obj
 0001:00019930       _strpbrk                   1001a930 f   libucrt:strpbrk.obj
 0001:00019970       __mbsdec                   1001a970 f   libucrt:mbsdec.obj
 0001:00019987       __mbsdec_l                 1001a987 f   libucrt:mbsdec.obj
 0001:00019bfe       ___acrt_LCMapStringA       1001abfe f   libucrt:lcmapstringa.obj
 0001:00019cf8       __commit                   1001acf8 f   libucrt:commit.obj
 0001:0001a4ee       __write                    1001b4ee f   libucrt:write.obj
 0001:0001a5e0       __write_nolock             1001b5e0 f   libucrt:write.obj
 0001:0001a7c2       ___acrt_GetStringTypeW     1001b7c2 f   libucrt:getstringtypew.obj
 0001:0001a7db       ___ascii_wcsnicmp          1001b7db f   libucrt:wcsnicmp.obj
 0001:0001a82a       ?__mbrtoc32_utf8@__crt_mbstring@@YAIPA_UPBDIPAU_Mbstatet@@@Z 1001b82a f   libucrt:mbrtoc32.obj
 0001:0001a9d1       _fegetenv                  1001b9d1 f   libucrt:fegetenv.obj
 0001:0001a9ee       _fesetenv                  1001b9ee f   libucrt:fesetenv.obj
 0001:0001aa39       _feholdexcept              1001ba39 f   libucrt:feholdexcept.obj
 0001:0001aa90       __CIlog10                  1001ba90 f   libucrt:log10_impl.obj
 0001:0001aacb       __CIlog10_default          1001bacb f   libucrt:log10_impl.obj
 0001:0001aadf       __log10_default            1001badf     libucrt:log10_impl.obj
 0001:0001aba0       _ceil                      1001bba0 f   libucrt:ceil_pentium4.obj
 0001:0001abe0       __ceil_pentium4            1001bbe0 f   libucrt:ceil_pentium4.obj
 0001:0001ad39       __lseeki64_nolock          1001bd39 f   libucrt:lseek.obj
 0001:0001ad54       __fclose_nolock            1001bd54 f   libucrt:fclose.obj
 0001:0001adcb       _fclose                    1001bdcb f   libucrt:fclose.obj
 0001:0001ae4f       __query_app_type           1001be4f f   libucrt:report_runtime_error.obj
 0001:0001ae55       ___strncnt                 1001be55 f   libucrt:strncnt.obj
 0001:0001ae71       __putwch_nolock            1001be71 f   libucrt:putwch.obj
 0001:0001b1b0       ___acrt_fenv_get_control   1001c1b0 f   libucrt:_fenvutils.obj
 0001:0001b230       ___acrt_fenv_get_status    1001c230 f   libucrt:_fenvutils.obj
 0001:0001b2e8       ___acrt_fenv_set_control   1001c2e8 f   libucrt:_fenvutils.obj
 0001:0001b350       ___acrt_fenv_set_status    1001c350 f   libucrt:_fenvutils.obj
 0001:0001b447       __clearfp                  1001c447 f   libucrt:ieee87.obj
 0001:0001b525       ___acrt_initialize_sse2    1001c525 f   libucrt:mathfcns.obj
 0001:0001b540       __CIlog10_pentium4         1001c540 f   libucrt:log10_pentium4.obj
 0001:0001b558       __log10_pentium4           1001c558     libucrt:log10_pentium4.obj
 0001:0001b7f0       __fFEXP                    1001c7f0 f   libucrt:87tran.obj
 0001:0001b847       __rtinfpopse               1001c847     libucrt:87tran.obj
 0001:0001b849       __rtinfnpopse              1001c849     libucrt:87tran.obj
 0001:0001b859       __fFLN                     1001c859     libucrt:87tran.obj
 0001:0001b90e       __rtinfpop                 1001c90e     libucrt:87tran.obj
 0001:0001b910       __rtinfnpop                1001c910     libucrt:87tran.obj
 0001:0001b920       __rtforexpinf              1001c920 f   libucrt:87tran.obj
 0001:0001b92d       __ffexpm1                  1001c92d     libucrt:87tran.obj
 0001:0001b9e0       __trandisp1                1001c9e0 f   libucrt:87disp.obj
 0001:0001ba55       __trandisp2                1001ca55 f   libucrt:87disp.obj
 0001:0001baef       __rttospopde               1001caef     libucrt:87disp.obj
 0001:0001baf4       __rttospop                 1001caf4     libucrt:87disp.obj
 0001:0001bb00       __rtnospop                 1001cb00 f   libucrt:87disp.obj
 0001:0001bb10       __rttosnpop                1001cb10 f   libucrt:87disp.obj
 0001:0001bb11       __rtnospopde               1001cb11     libucrt:87disp.obj
 0001:0001bb18       __rtzeropop                1001cb18     libucrt:87disp.obj
 0001:0001bb1a       __rtzeronpop               1001cb1a     libucrt:87disp.obj
 0001:0001bb20       __rtzerospop               1001cb20 f   libucrt:87disp.obj
 0001:0001bb2d       __rtonepop                 1001cb2d     libucrt:87disp.obj
 0001:0001bb30       __rtonenpop                1001cb30 f   libucrt:87disp.obj
 0001:0001bb40       __tosnan1                  1001cb40 f   libucrt:87disp.obj
 0001:0001bb70       __nosnan2                  1001cb70 f   libucrt:87disp.obj
 0001:0001bb80       __tosnan2                  1001cb80 f   libucrt:87disp.obj
 0001:0001bbb0       __nan2                     1001cbb0 f   libucrt:87disp.obj
 0001:0001bbf0       __rtindfpop                1001cbf0 f   libucrt:87disp.obj
 0001:0001bbf2       __rtindfnpop               1001cbf2     libucrt:87disp.obj
 0001:0001bc03       __rttosnpopde              1001cc03     libucrt:87disp.obj
 0001:0001bc10       __rtatan2inf               1001cc10 f   libucrt:87disp.obj
 0001:0001bc2d       __rtchsifneg               1001cc2d     libucrt:87disp.obj
 0001:0001bc40       __twoToTOS                 1001cc40 f   libucrt:common.obj
 0001:0001bc55       __load_CW                  1001cc55 f   libucrt:common.obj
 0001:0001bc6c       __convertTOStoQNaN         1001cc6c f   libucrt:common.obj
 0001:0001bc85       __fload_withFB             1001cc85 f   libucrt:common.obj
 0001:0001bcc8       __checkTOS_withFB          1001ccc8 f   libucrt:common.obj
 0001:0001bcde       __fast_exit                1001ccde f   libucrt:common.obj
 0001:0001bceb       __math_exit                1001cceb f   libucrt:common.obj
 0001:0001bd15       __check_overflow_exit      1001cd15 f   libucrt:common.obj
 0001:0001bd29       __check_range_exit         1001cd29 f   libucrt:common.obj
 0001:0001bdd0       __startTwoArgErrorHandling 1001cdd0 f   libucrt:genexcep.obj
 0001:0001bde7       __startOneArgErrorHandling 1001cde7 f   libucrt:genexcep.obj
 0001:0001be23       ___libm_error_support      1001ce23 f   libucrt:libm_error.obj
 0001:0001c017       __ceil_default             1001d017 f   libucrt:ceil.obj
 0001:0001c158       __close                    1001d158 f   libucrt:close.obj
 0001:0001c1e5       __close_nolock             1001d1e5 f   libucrt:close.obj
 0001:0001c281       ?__acrt_stdio_free_stream@@YAXV__crt_stdio_stream@@@Z 1001d281 f   libucrt:stream.obj
 0001:0001c2c0       ___ascii_strnicmp          1001d2c0 f   libucrt:_strnicm.obj
 0001:0001c340       ___dcrt_lowio_ensure_console_output_initialized 1001d340 f   libucrt:initcon.obj
 0001:0001c35f       ___dcrt_terminate_console_output 1001d35f f   libucrt:initcon.obj
 0001:0001c376       ___dcrt_write_console      1001d376 f   libucrt:initcon.obj
 0001:0001c3cb       __clrfp                    1001d3cb f   libucrt:fpctrl.obj
 0001:0001c3dc       __ctrlfp                   1001d3dc f   libucrt:fpctrl.obj
 0001:0001c406       __set_statfp               1001d406 f   libucrt:fpctrl.obj
 0001:0001c45f       __statfp                   1001d45f f   libucrt:fpctrl.obj
 0001:0001c46f       __d_inttype                1001d46f f   libucrt:powhlp.obj
 0001:0001c4d7       __powhlp                   1001d4d7 f   libucrt:powhlp.obj
 0001:0001c602       __87except                 1001d602 f   libucrt:87except.obj
 0001:0001c70c       __frnd                     1001d70c f   libucrt:frnd.obj
 0001:0001c720       __errcode                  1001d720 f   libucrt:fpexcept.obj
 0001:0001c754       __except1                  1001d754 f   libucrt:fpexcept.obj
 0001:0001c822       __handle_exc               1001d822 f   libucrt:fpexcept.obj
 0001:0001ca0d       __raise_exc                1001da0d f   libucrt:fpexcept.obj
 0001:0001ca30       __raise_exc_ex             1001da30 f   libucrt:fpexcept.obj
 0001:0001cd26       __set_errno_from_matherr   1001dd26 f   libucrt:fpexcept.obj
 0001:0001cd55       __umatherr                 1001dd55 f   libucrt:fpexcept.obj
 0001:0001cdf5       __decomp                   1001ddf5 f   libucrt:util.obj
 0001:0001cec7       __set_exp                  1001dec7 f   libucrt:util.obj
 0001:0001cef4       __sptype                   1001def4 f   libucrt:util.obj
 0001:0001cf52       __fpclass                  1001df52 f   libucrt:ieeemisc.obj
 0001:0001cff6       _IsProcessorFeaturePresent@4 1001dff6 f   kernel32:KERNEL32.dll
 0001:0001d000       __FindPESection            1001e000 f   LIBCMT:pesect.obj
 0001:0001d050       __IsNonwritableInCurrentImage 1001e050 f   LIBCMT:pesect.obj
 0001:0001d110       __ValidateImageBase        1001e110 f   LIBCMT:pesect.obj
 0001:0001d143       __EH_prolog3_catch         1001e143 f   LIBCMT:ehprolg3.obj
 0001:0001d180       __aulldvrm                 1001e180 f   LIBCMT:ulldvrm.obj
 0001:0001d220       __allmul                   1001e220 f   LIBCMT:llmul.obj
 0001:0001d260       __alldvrm                  1001e260 f   LIBCMT:lldvrm.obj
 0001:0001d340       __aullshr                  1001e340 f   LIBCMT:ullshr.obj
 0001:0001d360       __allshl                   1001e360 f   LIBCMT:llshl.obj
 0001:0001d380       __ftol2_sse_excpt          1001e380     LIBCMT:ftol2.obj
 0001:0001d380       __ftoi2                    1001e380 f   LIBCMT:ftol2.obj
 0001:0001d380       __ftol2_sse                1001e380     LIBCMT:ftol2.obj
 0001:0001d400       __ftoui2                   1001e400 f   LIBCMT:ftol2.obj
 0001:0001d4b0       __ftol2                    1001e4b0 f   LIBCMT:ftol2.obj
 0001:0001d560       __ftoul2                   1001e560 f   LIBCMT:ftol2.obj
 0001:0001d620       _strrchr                   1001e620 f   libvcruntime:strrchr.obj
 0001:0001d760       _strchr                    1001e760 f   libvcruntime:strchr.obj
 0001:0001d7ce       ___from_strstr_to_strchr   1001e7ce     libvcruntime:strchr.obj
 0001:0001d88b       __filter_x86_sse2_floating_point_exception 1001e88b f   LIBCMT:x86_exception_filter.obj
 0001:0001d88b       __filter_x86_sse2_floating_point_exception_default 1001e88b f   LIBCMT:x86_exception_filter.obj
 0002:00000000       __imp__RegQueryValueExW@24 1001f000     advapi32:ADVAPI32.dll
 0002:00000004       __imp__RegSetValueExW@24   1001f004     advapi32:ADVAPI32.dll
 0002:00000008       __imp__RegQueryInfoKeyW@48 1001f008     advapi32:ADVAPI32.dll
 0002:0000000c       __imp__RegOpenKeyExW@20    1001f00c     advapi32:ADVAPI32.dll
 0002:00000010       __imp__RegEnumKeyExW@32    1001f010     advapi32:ADVAPI32.dll
 0002:00000014       __imp__RegDeleteValueW@8   1001f014     advapi32:ADVAPI32.dll
 0002:00000018       __imp__RegDeleteKeyW@8     1001f018     advapi32:ADVAPI32.dll
 0002:0000001c       __imp__RegCreateKeyExW@36  1001f01c     advapi32:ADVAPI32.dll
 0002:00000020       __imp__RegCloseKey@4       1001f020     advapi32:ADVAPI32.dll
 0002:00000024       \177ADVAPI32_NULL_THUNK_DATA 1001f024     advapi32:ADVAPI32.dll
 0002:00000028       __imp__GetObjectW@12       1001f028     gdi32:GDI32.dll
 0002:0000002c       __imp__SelectObject@8      1001f02c     gdi32:GDI32.dll
 0002:00000030       __imp__DeleteObject@4      1001f030     gdi32:GDI32.dll
 0002:00000034       __imp__CreateCompatibleDC@4 1001f034     gdi32:GDI32.dll
 0002:00000038       __imp__BitBlt@36           1001f038     gdi32:GDI32.dll
 0002:0000003c       __imp__SetWindowOrgEx@16   1001f03c     gdi32:GDI32.dll
 0002:00000040       __imp__SetWindowExtEx@16   1001f040     gdi32:GDI32.dll
 0002:00000044       __imp__SetViewportOrgEx@16 1001f044     gdi32:GDI32.dll
 0002:00000048       __imp__LPtoDP@12           1001f048     gdi32:GDI32.dll
 0002:0000004c       __imp__SetMapMode@8        1001f04c     gdi32:GDI32.dll
 0002:00000050       __imp__SaveDC@4            1001f050     gdi32:GDI32.dll
 0002:00000054       __imp__RestoreDC@8         1001f054     gdi32:GDI32.dll
 0002:00000058       __imp__GetDeviceCaps@8     1001f058     gdi32:GDI32.dll
 0002:0000005c       __imp__DeleteMetaFile@4    1001f05c     gdi32:GDI32.dll
 0002:00000060       __imp__DeleteDC@4          1001f060     gdi32:GDI32.dll
 0002:00000064       __imp__CreateRectRgnIndirect@4 1001f064     gdi32:GDI32.dll
 0002:00000068       __imp__CreateMetaFileW@4   1001f068     gdi32:GDI32.dll
 0002:0000006c       __imp__CreateDCW@16        1001f06c     gdi32:GDI32.dll
 0002:00000070       __imp__CloseMetaFile@4     1001f070     gdi32:GDI32.dll
 0002:00000074       \177GDI32_NULL_THUNK_DATA  1001f074     gdi32:GDI32.dll
 0002:00000078       __imp__CloseHandle@4       1001f078     kernel32:KERNEL32.dll
 0002:0000007c       __imp__SetEvent@4          1001f07c     kernel32:KERNEL32.dll
 0002:00000080       __imp__CreateMutexW@12     1001f080     kernel32:KERNEL32.dll
 0002:00000084       __imp__CreateEventW@16     1001f084     kernel32:KERNEL32.dll
 0002:00000088       __imp__GetCurrentProcessId@0 1001f088     kernel32:KERNEL32.dll
 0002:0000008c       __imp__CreateFileW@28      1001f08c     kernel32:KERNEL32.dll
 0002:00000090       __imp__GetConsoleMode@8    1001f090     kernel32:KERNEL32.dll
 0002:00000094       __imp__GetConsoleCP@0      1001f094     kernel32:KERNEL32.dll
 0002:00000098       __imp__WriteFile@20        1001f098     kernel32:KERNEL32.dll
 0002:0000009c       __imp__FlushFileBuffers@4  1001f09c     kernel32:KERNEL32.dll
 0002:000000a0       __imp__SetStdHandle@8      1001f0a0     kernel32:KERNEL32.dll
 0002:000000a4       __imp__GetStringTypeW@16   1001f0a4     kernel32:KERNEL32.dll
 0002:000000a8       __imp__SetFilePointerEx@20 1001f0a8     kernel32:KERNEL32.dll
 0002:000000ac       __imp__FreeEnvironmentStringsW@4 1001f0ac     kernel32:KERNEL32.dll
 0002:000000b0       __imp__GetEnvironmentStringsW@0 1001f0b0     kernel32:KERNEL32.dll
 0002:000000b4       __imp__lstrcmpiW@8         1001f0b4     kernel32:KERNEL32.dll
 0002:000000b8       __imp__GetCommandLineA@0   1001f0b8     kernel32:KERNEL32.dll
 0002:000000bc       __imp__GetCPInfo@8         1001f0bc     kernel32:KERNEL32.dll
 0002:000000c0       __imp__GetOEMCP@0          1001f0c0     kernel32:KERNEL32.dll
 0002:000000c4       __imp__GetACP@0            1001f0c4     kernel32:KERNEL32.dll
 0002:000000c8       __imp__IsValidCodePage@4   1001f0c8     kernel32:KERNEL32.dll
 0002:000000cc       __imp__FindNextFileW@8     1001f0cc     kernel32:KERNEL32.dll
 0002:000000d0       __imp__FindFirstFileExW@24 1001f0d0     kernel32:KERNEL32.dll
 0002:000000d4       __imp__FindClose@4         1001f0d4     kernel32:KERNEL32.dll
 0002:000000d8       __imp__GetFileType@4       1001f0d8     kernel32:KERNEL32.dll
 0002:000000dc       __imp__GetStdHandle@4      1001f0dc     kernel32:KERNEL32.dll
 0002:000000e0       __imp__LCMapStringW@24     1001f0e0     kernel32:KERNEL32.dll
 0002:000000e4       __imp__HeapReAlloc@16      1001f0e4     kernel32:KERNEL32.dll
 0002:000000e8       __imp__HeapSize@12         1001f0e8     kernel32:KERNEL32.dll
 0002:000000ec       __imp__MulDiv@12           1001f0ec     kernel32:KERNEL32.dll
 0002:000000f0       __imp__GlobalLock@4        1001f0f0     kernel32:KERNEL32.dll
 0002:000000f4       __imp__GlobalUnlock@4      1001f0f4     kernel32:KERNEL32.dll
 0002:000000f8       __imp__GlobalAlloc@8       1001f0f8     kernel32:KERNEL32.dll
 0002:000000fc       __imp__FindResourceW@12    1001f0fc     kernel32:KERNEL32.dll
 0002:00000100       __imp__SizeofResource@8    1001f100     kernel32:KERNEL32.dll
 0002:00000104       __imp__LoadResource@8      1001f104     kernel32:KERNEL32.dll
 0002:00000108       __imp__LoadLibraryExW@12   1001f108     kernel32:KERNEL32.dll
 0002:0000010c       __imp__GetProcAddress@8    1001f10c     kernel32:KERNEL32.dll
 0002:00000110       __imp__GetModuleHandleW@4  1001f110     kernel32:KERNEL32.dll
 0002:00000114       __imp__GetModuleFileNameW@12 1001f114     kernel32:KERNEL32.dll
 0002:00000118       __imp__FreeLibrary@4       1001f118     kernel32:KERNEL32.dll
 0002:0000011c       __imp__DisableThreadLibraryCalls@4 1001f11c     kernel32:KERNEL32.dll
 0002:00000120       __imp__GetCurrentThreadId@0 1001f120     kernel32:KERNEL32.dll
 0002:00000124       __imp__Sleep@4             1001f124     kernel32:KERNEL32.dll
 0002:00000128       __imp__WaitForSingleObject@8 1001f128     kernel32:KERNEL32.dll
 0002:0000012c       __imp__ReleaseMutex@4      1001f12c     kernel32:KERNEL32.dll
 0002:00000130       __imp__ResetEvent@4        1001f130     kernel32:KERNEL32.dll
 0002:00000134       __imp__EnterCriticalSection@4 1001f134     kernel32:KERNEL32.dll
 0002:00000138       __imp__LeaveCriticalSection@4 1001f138     kernel32:KERNEL32.dll
 0002:0000013c       __imp__SetLastError@4      1001f13c     kernel32:KERNEL32.dll
 0002:00000140       __imp__EncodePointer@4     1001f140     kernel32:KERNEL32.dll
 0002:00000144       __imp__DeleteCriticalSection@4 1001f144     kernel32:KERNEL32.dll
 0002:00000148       __imp__InitializeCriticalSectionEx@12 1001f148     kernel32:KERNEL32.dll
 0002:0000014c       __imp__GetLastError@0      1001f14c     kernel32:KERNEL32.dll
 0002:00000150       __imp__RaiseException@16   1001f150     kernel32:KERNEL32.dll
 0002:00000154       __imp__DecodePointer@4     1001f154     kernel32:KERNEL32.dll
 0002:00000158       __imp__WideCharToMultiByte@32 1001f158     kernel32:KERNEL32.dll
 0002:0000015c       __imp__GetCommandLineW@0   1001f15c     kernel32:KERNEL32.dll
 0002:00000160       __imp__MultiByteToWideChar@24 1001f160     kernel32:KERNEL32.dll
 0002:00000164       __imp__WriteConsoleW@20    1001f164     kernel32:KERNEL32.dll
 0002:00000168       __imp__GetModuleHandleExW@12 1001f168     kernel32:KERNEL32.dll
 0002:0000016c       __imp__ExitProcess@4       1001f16c     kernel32:KERNEL32.dll
 0002:00000170       __imp__VirtualQuery@12     1001f170     kernel32:KERNEL32.dll
 0002:00000174       __imp__VirtualProtect@16   1001f174     kernel32:KERNEL32.dll
 0002:00000178       __imp__GetSystemInfo@4     1001f178     kernel32:KERNEL32.dll
 0002:0000017c       __imp__TlsFree@4           1001f17c     kernel32:KERNEL32.dll
 0002:00000180       __imp__TlsSetValue@8       1001f180     kernel32:KERNEL32.dll
 0002:00000184       __imp__TlsGetValue@4       1001f184     kernel32:KERNEL32.dll
 0002:00000188       __imp__TlsAlloc@0          1001f188     kernel32:KERNEL32.dll
 0002:0000018c       __imp__InterlockedFlushSList@4 1001f18c     kernel32:KERNEL32.dll
 0002:00000190       __imp__RtlUnwind@16        1001f190     kernel32:KERNEL32.dll
 0002:00000194       __imp__LoadLibraryExA@12   1001f194     kernel32:KERNEL32.dll
 0002:00000198       __imp__VirtualFree@12      1001f198     kernel32:KERNEL32.dll
 0002:0000019c       __imp__VirtualAlloc@16     1001f19c     kernel32:KERNEL32.dll
 0002:000001a0       __imp__FlushInstructionCache@12 1001f1a0     kernel32:KERNEL32.dll
 0002:000001a4       __imp__InterlockedPushEntrySList@8 1001f1a4     kernel32:KERNEL32.dll
 0002:000001a8       __imp__InterlockedPopEntrySList@4 1001f1a8     kernel32:KERNEL32.dll
 0002:000001ac       __imp__GetProcessHeap@0    1001f1ac     kernel32:KERNEL32.dll
 0002:000001b0       __imp__HeapFree@12         1001f1b0     kernel32:KERNEL32.dll
 0002:000001b4       __imp__HeapAlloc@12        1001f1b4     kernel32:KERNEL32.dll
 0002:000001b8       __imp__OutputDebugStringW@4 1001f1b8     kernel32:KERNEL32.dll
 0002:000001bc       __imp__InitializeSListHead@4 1001f1bc     kernel32:KERNEL32.dll
 0002:000001c0       __imp__GetSystemTimeAsFileTime@4 1001f1c0     kernel32:KERNEL32.dll
 0002:000001c4       __imp__QueryPerformanceCounter@4 1001f1c4     kernel32:KERNEL32.dll
 0002:000001c8       __imp__GetStartupInfoW@4   1001f1c8     kernel32:KERNEL32.dll
 0002:000001cc       __imp__IsDebuggerPresent@0 1001f1cc     kernel32:KERNEL32.dll
 0002:000001d0       __imp__IsProcessorFeaturePresent@4 1001f1d0     kernel32:KERNEL32.dll
 0002:000001d4       __imp__TerminateProcess@8  1001f1d4     kernel32:KERNEL32.dll
 0002:000001d8       __imp__GetCurrentProcess@0 1001f1d8     kernel32:KERNEL32.dll
 0002:000001dc       __imp__SetUnhandledExceptionFilter@4 1001f1dc     kernel32:KERNEL32.dll
 0002:000001e0       __imp__UnhandledExceptionFilter@4 1001f1e0     kernel32:KERNEL32.dll
 0002:000001e4       __imp__InitializeCriticalSectionAndSpinCount@8 1001f1e4     kernel32:KERNEL32.dll
 0002:000001e8       __imp__WaitForSingleObjectEx@12 1001f1e8     kernel32:KERNEL32.dll
 0002:000001ec       \177KERNEL32_NULL_THUNK_DATA 1001f1ec     kernel32:KERNEL32.dll
 0002:000001f0       __imp__OleCreatePropertyFrame@44 1001f1f0     oleaut32:OLEAUT32.dll
 0002:000001f4       __imp__UnRegisterTypeLib@20 1001f1f4     oleaut32:OLEAUT32.dll
 0002:000001f8       __imp__RegisterTypeLib@12  1001f1f8     oleaut32:OLEAUT32.dll
 0002:000001fc       __imp__LoadRegTypeLib@20   1001f1fc     oleaut32:OLEAUT32.dll
 0002:00000200       __imp__LoadTypeLib@8       1001f200     oleaut32:OLEAUT32.dll
 0002:00000204       __imp__VarUI4FromStr@16    1001f204     oleaut32:OLEAUT32.dll
 0002:00000208       __imp__VariantInit@4       1001f208     oleaut32:OLEAUT32.dll
 0002:0000020c       __imp__SysAllocStringByteLen@8 1001f20c     oleaut32:OLEAUT32.dll
 0002:00000210       __imp__SysStringByteLen@4  1001f210     oleaut32:OLEAUT32.dll
 0002:00000214       __imp__VariantChangeType@16 1001f214     oleaut32:OLEAUT32.dll
 0002:00000218       __imp__VariantClear@4      1001f218     oleaut32:OLEAUT32.dll
 0002:0000021c       __imp__SysStringLen@4      1001f21c     oleaut32:OLEAUT32.dll
 0002:00000220       __imp__SysFreeString@4     1001f220     oleaut32:OLEAUT32.dll
 0002:00000224       __imp__SysAllocStringLen@8 1001f224     oleaut32:OLEAUT32.dll
 0002:00000228       __imp__SysAllocString@4    1001f228     oleaut32:OLEAUT32.dll
 0002:0000022c       \177OLEAUT32_NULL_THUNK_DATA 1001f22c     oleaut32:OLEAUT32.dll
 0002:00000230       __imp__UnregisterClassW@8  1001f230     user32:USER32.dll
 0002:00000234       __imp__PostMessageW@16     1001f234     user32:USER32.dll
 0002:00000238       __imp__DefWindowProcW@16   1001f238     user32:USER32.dll
 0002:0000023c       __imp__CallWindowProcW@20  1001f23c     user32:USER32.dll
 0002:00000240       __imp__RegisterClassExW@4  1001f240     user32:USER32.dll
 0002:00000244       __imp__GetClassInfoExW@12  1001f244     user32:USER32.dll
 0002:00000248       __imp__CreateWindowExW@48  1001f248     user32:USER32.dll
 0002:0000024c       __imp__IsWindow@4          1001f24c     user32:USER32.dll
 0002:00000250       __imp__IsChild@8           1001f250     user32:USER32.dll
 0002:00000254       __imp__DestroyWindow@4     1001f254     user32:USER32.dll
 0002:00000258       __imp__ShowWindow@8        1001f258     user32:USER32.dll
 0002:0000025c       __imp__SetWindowPos@28     1001f25c     user32:USER32.dll
 0002:00000260       __imp__CharNextW@4         1001f260     user32:USER32.dll
 0002:00000264       __imp__SetFocus@4          1001f264     user32:USER32.dll
 0002:00000268       __imp__LoadBitmapW@8       1001f268     user32:USER32.dll
 0002:0000026c       __imp__RegisterClassW@4    1001f26c     user32:USER32.dll
 0002:00000270       __imp__PeekMessageW@20     1001f270     user32:USER32.dll
 0002:00000274       __imp__LoadCursorW@8       1001f274     user32:USER32.dll
 0002:00000278       __imp__GetParent@4         1001f278     user32:USER32.dll
 0002:0000027c       __imp__SetWindowLongW@12   1001f27c     user32:USER32.dll
 0002:00000280       __imp__GetWindowLongW@8    1001f280     user32:USER32.dll
 0002:00000284       __imp__PtInRect@12         1001f284     user32:USER32.dll
 0002:00000288       __imp__EqualRect@8         1001f288     user32:USER32.dll
 0002:0000028c       __imp__OffsetRect@12       1001f28c     user32:USER32.dll
 0002:00000290       __imp__UnionRect@12        1001f290     user32:USER32.dll
 0002:00000294       __imp__IntersectRect@12    1001f294     user32:USER32.dll
 0002:00000298       __imp__GetClientRect@8     1001f298     user32:USER32.dll
 0002:0000029c       __imp__InvalidateRect@12   1001f29c     user32:USER32.dll
 0002:000002a0       __imp__SetWindowRgn@12     1001f2a0     user32:USER32.dll
 0002:000002a4       __imp__EndPaint@8          1001f2a4     user32:USER32.dll
 0002:000002a8       __imp__BeginPaint@8        1001f2a8     user32:USER32.dll
 0002:000002ac       __imp__ReleaseDC@8         1001f2ac     user32:USER32.dll
 0002:000002b0       __imp__GetDC@4             1001f2b0     user32:USER32.dll
 0002:000002b4       __imp__GetKeyState@4       1001f2b4     user32:USER32.dll
 0002:000002b8       __imp__GetFocus@0          1001f2b8     user32:USER32.dll
 0002:000002bc       \177USER32_NULL_THUNK_DATA 1001f2bc     user32:USER32.dll
 0002:000002c0       __imp__StringFromGUID2@12  1001f2c0     ole32:ole32.dll
 0002:000002c4       __imp__CoTaskMemAlloc@4    1001f2c4     ole32:ole32.dll
 0002:000002c8       __imp__CoTaskMemRealloc@8  1001f2c8     ole32:ole32.dll
 0002:000002cc       __imp__CoTaskMemFree@4     1001f2cc     ole32:ole32.dll
 0002:000002d0       __imp__ReadClassStm@8      1001f2d0     ole32:ole32.dll
 0002:000002d4       __imp__WriteClassStm@8     1001f2d4     ole32:ole32.dll
 0002:000002d8       __imp__CreateDataAdviseHolder@4 1001f2d8     ole32:ole32.dll
 0002:000002dc       __imp__OleSaveToStream@8   1001f2dc     ole32:ole32.dll
 0002:000002e0       __imp__CreateOleAdviseHolder@4 1001f2e0     ole32:ole32.dll
 0002:000002e4       __imp__OleRegGetUserType@12 1001f2e4     ole32:ole32.dll
 0002:000002e8       __imp__OleRegGetMiscStatus@12 1001f2e8     ole32:ole32.dll
 0002:000002ec       __imp__OleRegEnumVerbs@8   1001f2ec     ole32:ole32.dll
 0002:000002f0       __imp__CLSIDFromProgID@8   1001f2f0     ole32:ole32.dll
 0002:000002f4       __imp__CoCreateInstance@20 1001f2f4     ole32:ole32.dll
 0002:000002f8       \177ole32_NULL_THUNK_DATA  1001f2f8     ole32:ole32.dll
 0002:000002fc       ___guard_check_icall_fptr  1001f2fc     LIBCMT:guard_support.obj
 0002:00000300       ___xc_a                    1001f300     LIBCMT:initializers.obj
 0002:00000318       ___xc_z                    1001f318     LIBCMT:initializers.obj
 0002:0000031c       ___xi_a                    1001f31c     LIBCMT:initializers.obj
 0002:00000324       ___acrt_stdio_initializer  1001f324     libucrt:stdio_initializer.obj
 0002:00000328       ___acrt_multibyte_initializer 1001f328     libucrt:multibyte_initializer.obj
 0002:0000032c       ___acrt_tran_sse2_initializer 1001f32c     libucrt:sse2_initializer.obj
 0002:00000330       ___xi_z                    1001f330     LIBCMT:initializers.obj
 0002:00000334       ___xl_a                    1001f334     LIBCMT:tlssup.obj
 0002:00000338       ___xl_z                    1001f338     LIBCMT:tlssup.obj
 0002:0000033c       ___xp_a                    1001f33c     LIBCMT:initializers.obj
 0002:00000340       ___acrt_locale_terminator  1001f340     libucrt:locale_initializer.obj
 0002:00000344       ___dcrt_console_output_terminator 1001f344     libucrt:console_output_initializer.obj
 0002:00000348       ___acrt_stdio_terminator   1001f348     libucrt:stdio_initializer.obj
 0002:0000034c       ___xp_z                    1001f34c     LIBCMT:initializers.obj
 0002:00000350       ___xt_a                    1001f350     LIBCMT:initializers.obj
 0002:00000354       ___xt_z                    1001f354     LIBCMT:initializers.obj
 0002:00000360       ??_C@_13HADIAKP@?$AAS@     1001f360     OposVariant.obj
 0002:00000364       ??_C@_13LHMFKAAD@?$AAM@    1001f364     OposVariant.obj
 0002:00000368       ??_C@_13MKMNOPIJ@?$AAD@    1001f368     OposVariant.obj
 0002:0000036c       ??_C@_13OPKGLAFF@?$AAB@    1001f36c     OposVariant.obj
 0002:00000370       ??_C@_17LLMMEOJD@?$AAV?$AAa?$AAl@ 1001f370     OposVariant.obj
 0002:00000378       ??_C@_1BI@JFAIJMHL@?$AAF?$AAo?$AAr?$AAc?$AAe?$AAR?$AAe?$AAm?$AAo?$AAv?$AAe@ 1001f378     OposVariant.obj
 0002:00000390       ??_C@_1BC@GCKHIPE@?$AAN?$AAo?$AAR?$AAe?$AAm?$AAo?$AAv?$AAe@ 1001f390     OposVariant.obj
 0002:000003a4       ??_C@_1O@JDLOHAN@?$AAD?$AAe?$AAl?$AAe?$AAt?$AAe@ 1001f3a4     OposVariant.obj
 0002:000003b4       ??_C@_11LOCGONAA@@         1001f3b4     OposVariant.obj
 0002:000003b8       ??_7CComClassFactory@ATL@@6B@ 1001f3b8     SigCap.obj
 0002:000003d0       ?_entries@?1??_GetEntries@CComClassFactory@ATL@@SGPBU_ATL_INTMAP_ENTRY@3@XZ@4QBU43@B 1001f3d0     SigCap.obj
 0002:000003e8       __GUID_00000001_0000_0000_c000_000000000046 1001f3e8     SigCap.obj
 0002:000003f8       _IID_IOPOSSigCap_1_5       1001f3f8     SigCap.obj
 0002:00000408       _IID_IOPOSSigCap_1_8       1001f408     SigCap.obj
 0002:00000418       _IID_IOPOSSigCap_1_9       1001f418     SigCap.obj
 0002:00000428       _IID_IOPOSSigCap_1_10      1001f428     SigCap.obj
 0002:00000438       _IID_IOPOSSigCap           1001f438     SigCap.obj
 0002:00000448       _LIBID_OposSigCap_CCO      1001f448     SigCap.obj
 0002:00000458       _DIID__IOPOSSigCapEvents   1001f458     SigCap.obj
 0002:00000468       _CLSID_OPOSSigCap          1001f468     SigCap.obj
 0002:00000478       __GUID_00000114_0000_0000_c000_000000000046 1001f478     SigCap.obj
 0002:00000488       ??_C@_1BK@BIGILECK@?$AAA?$AAd?$AAv?$AAa?$AAp?$AAi?$AA3?$AA2?$AA?4?$AAd?$AAl?$AAl@ 1001f488     SigCap.obj
 0002:000004a4       ??_C@_0BI@MNCFCPFK@RegCreateKeyTransactedW@ 1001f4a4     SigCap.obj
 0002:000004bc       __GUID_b196b287_bab4_101a_b69c_00aa00341d07 1001f4bc     SigCap.obj
 0002:000004cc       __GUID_b196b285_bab4_101a_b69c_00aa00341d07 1001f4cc     SigCap.obj
 0002:000004dc       __GUID_a6bc3ac0_dbaa_11ce_9de3_00aa004bb851 1001f4dc     SigCap.obj
 0002:000004ec       __GUID_0000010c_0000_0000_c000_000000000046 1001f4ec     SigCap.obj
 0002:000004fc       __GUID_00000146_0000_0000_c000_000000000046 1001f4fc     SigCap.obj
 0002:00000510       ?_entries@?1??_GetEntries@COPOSSigCap@@SGPBU_ATL_INTMAP_ENTRY@ATL@@XZ@4QBU34@B 1001f510     SigCap.obj
 0002:00000654       __GUID_cf51ed10_62fe_11cf_bf86_00a0c9034836 1001f654     SigCap.obj
 0002:00000664       __GUID_0000010a_0000_0000_c000_000000000046 1001f664     SigCap.obj
 0002:00000674       __GUID_b196b283_bab4_101a_b69c_00aa00341d07 1001f674     SigCap.obj
 0002:00000684       __GUID_cb5bdc81_93c1_11cf_8f20_00805f2cd064 1001f684     SigCap.obj
 0002:00000698       ?pPropMap@?1??GetPropertyMap@COPOSSigCap@@SAPBUATL_PROPMAP_ENTRY@ATL@@XZ@4QBU34@B 1001f698     SigCap.obj
 0002:00000704       ??_C@_17DGDADEHL@?$AA_?$AAc?$AAx@ 1001f704     SigCap.obj
 0002:0000070c       ??_C@_17IOIMFDBO@?$AA_?$AAc?$AAy@ 1001f70c     SigCap.obj
 0002:00000714       ??_7CComModule@ATL@@6B@    1001f714     SigCap.obj
 0002:0000073c       __GUID_922eada0_3424_11cf_b670_00aa004cd6d8 1001f73c     SigCap.obj
 0002:0000074c       __GUID_9c2cad80_3424_11cf_b670_00aa004cd6d8 1001f74c     SigCap.obj
 0002:0000075c       __GUID_00000119_0000_0000_c000_000000000046 1001f75c     SigCap.obj
 0002:0000076c       __GUID_b196b289_bab4_101a_b69c_00aa00341d07 1001f76c     SigCap.obj
 0002:0000077c       ??_7?$CComObjectCached@VCComClassFactory@ATL@@@ATL@@6B@ 1001f77c     SigCap.obj
 0002:00000794       ??_C@_1CE@PGFMOFKI@?$AAS?$AAt?$AAa?$AAt?$AAu?$AAs?$AAU?$AAp?$AAd?$AAa?$AAt?$AAe?$AAE?$AAv?$AAe@ 1001f794     SigCap.obj
 0002:000007b8       __GUID_00000000_0000_0000_c000_000000000046 1001f7b8     SigCap.obj
 0002:000007c8       ??_C@_1BG@LODEBHDD@?$AAE?$AAr?$AAr?$AAo?$AAr?$AAE?$AAv?$AAe?$AAn?$AAt@ 1001f7c8     SigCap.obj
 0002:000007e0       __GUID_00020400_0000_0000_c000_000000000046 1001f7e0     SigCap.obj
 0002:000007f0       ??_C@_1BM@CBGEBBBJ@?$AAD?$AAi?$AAr?$AAe?$AAc?$AAt?$AAI?$AAO?$AAE?$AAv?$AAe?$AAn?$AAt@ 1001f7f0     SigCap.obj
 0002:0000080c       ??_C@_1BE@IEBMACEM@?$AAD?$AAa?$AAt?$AAa?$AAE?$AAv?$AAe?$AAn?$AAt@ 1001f80c     SigCap.obj
 0002:00000820       __GUID_b196b286_bab4_101a_b69c_00aa00341d07 1001f820     SigCap.obj
 0002:00000830       __GUID_00000117_0000_0000_c000_000000000046 1001f830     SigCap.obj
 0002:00000840       ??_C@_1BC@ENICKDH@?$AAC?$AAo?$AAn?$AAt?$AAe?$AAn?$AAt?$AAs@ 1001f840     SigCap.obj
 0002:00000854       ??_7?$CComObject@V?$CComEnum@UIEnumConnectionPoints@@$1?_GUID_b196b285_bab4_101a_b69c_00aa00341d07@@3U__s_GUID@@BPAUIConnectionPoint@@V?$_CopyInterface@UIConnectionPoint@@@ATL@@VCComSingleThreadModel@6@@ATL@@@ATL@@6B@ 1001f854     SigCap.obj
 0002:00000874       ??_C@_1M@KANJNLFF@?$AAC?$AAL?$AAS?$AAI?$AAD@ 1001f874     SigCap.obj
 0002:00000880       ??_C@_1M@EJNEECMJ@?$AAA?$AAp?$AAp?$AAI?$AAD@ 1001f880     SigCap.obj
 0002:0000088c       __GUID_0000010e_0000_0000_c000_000000000046 1001f88c     SigCap.obj
 0002:0000089c       __GUID_b196b288_bab4_101a_b69c_00aa00341d07 1001f89c     SigCap.obj
 0002:000008ac       ?rgszNeverDelete@CRegParser@ATL@@1QBQB_WB 1001f8ac     SigCap.obj
 0002:000008dc       ??_7CRegObject@ATL@@6B@    1001f8dc     SigCap.obj
 0002:000008f4       __GUID_00000113_0000_0000_c000_000000000046 1001f8f4     SigCap.obj
 0002:00000904       __GUID_1c2056cc_5ef4_101b_8bc8_00aa003e3b29 1001f904     SigCap.obj
 0002:00000914       ??_C@_1CK@OEKPKBNA@?$AAC?$AAo?$AAm?$AAp?$AAo?$AAn?$AAe?$AAn?$AAt?$AA?5?$AAC?$AAa?$AAt?$AAe?$AAg@ 1001f914     SigCap.obj
 0002:00000940       ??_C@_1BC@NKMMNMGL@?$AAF?$AAi?$AAl?$AAe?$AAT?$AAy?$AAp?$AAe@ 1001f940     SigCap.obj
 0002:00000954       ??_C@_1BE@EKPAFMCP@?$AAI?$AAn?$AAt?$AAe?$AAr?$AAf?$AAa?$AAc?$AAe@ 1001f954     SigCap.obj
 0002:00000968       ??_C@_1BC@MAICEHGI@?$AAH?$AAa?$AAr?$AAd?$AAw?$AAa?$AAr?$AAe@ 1001f968     SigCap.obj
 0002:0000097c       ??_C@_19HLLLM@?$AAM?$AAi?$AAm?$AAe@ 1001f97c     SigCap.obj
 0002:00000988       ??_C@_17OMAOINJK@?$AAS?$AAA?$AAM@ 1001f988     SigCap.obj
 0002:00000990       ??_C@_1BC@IBECJAAI@?$AAS?$AAE?$AAC?$AAU?$AAR?$AAI?$AAT?$AAY@ 1001f990     SigCap.obj
 0002:000009a4       ??_C@_1O@GBFINDKL@?$AAS?$AAY?$AAS?$AAT?$AAE?$AAM@ 1001f9a4     SigCap.obj
 0002:000009b4       ??_C@_1BC@EAHCMADO@?$AAS?$AAo?$AAf?$AAt?$AAw?$AAa?$AAr?$AAe@ 1001f9b4     SigCap.obj
 0002:000009c8       ??_C@_1BA@JIHHIEDE@?$AAT?$AAy?$AAp?$AAe?$AAL?$AAi?$AAb@ 1001f9c8     SigCap.obj
 0002:000009d8       ?map@?1??HKeyFromString@CRegParser@ATL@@KAPAUHKEY__@@PA_W@Z@4QBUkeymap@?1??123@KAPAU4@0@Z@B 1001f9d8     SigCap.obj
 0002:00000a48       ??_C@_19NCHLBIN@?$AAH?$AAK?$AAC?$AAR@ 1001fa48     SigCap.obj
 0002:00000a54       ??_C@_19JAPAIJDE@?$AAH?$AAK?$AAC?$AAU@ 1001fa54     SigCap.obj
 0002:00000a60       ??_C@_19PEALEEJB@?$AAH?$AAK?$AAL?$AAM@ 1001fa60     SigCap.obj
 0002:00000a6c       ??_C@_17PJOJPMPB@?$AAH?$AAK?$AAU@ 1001fa6c     SigCap.obj
 0002:00000a74       ??_C@_19PNBHMJPL@?$AAH?$AAK?$AAP?$AAD@ 1001fa74     SigCap.obj
 0002:00000a80       ??_C@_19GFFAIJHG@?$AAH?$AAK?$AAD?$AAD@ 1001fa80     SigCap.obj
 0002:00000a8c       ??_C@_19OFICIBHH@?$AAH?$AAK?$AAC?$AAC@ 1001fa8c     SigCap.obj
 0002:00000a98       ??_C@_1CE@PACHPJFI@?$AAH?$AAK?$AAE?$AAY?$AA_?$AAC?$AAL?$AAA?$AAS?$AAS?$AAE?$AAS?$AA_?$AAR?$AAO@ 1001fa98     SigCap.obj
 0002:00000abc       ??_C@_1CE@HLHNCBPM@?$AAH?$AAK?$AAE?$AAY?$AA_?$AAC?$AAU?$AAR?$AAR?$AAE?$AAN?$AAT?$AA_?$AAU?$AAS@ 1001fabc     SigCap.obj
 0002:00000ae0       ??_C@_1CG@GFBEANJL@?$AAH?$AAK?$AAE?$AAY?$AA_?$AAL?$AAO?$AAC?$AAA?$AAL?$AA_?$AAM?$AAA?$AAC?$AAH@ 1001fae0     SigCap.obj
 0002:00000b08       ??_C@_1BG@BGODANIO@?$AAH?$AAK?$AAE?$AAY?$AA_?$AAU?$AAS?$AAE?$AAR?$AAS@ 1001fb08     SigCap.obj
 0002:00000b20       ??_C@_1CM@KHNNAOIC@?$AAH?$AAK?$AAE?$AAY?$AA_?$AAP?$AAE?$AAR?$AAF?$AAO?$AAR?$AAM?$AAA?$AAN?$AAC@ 1001fb20     SigCap.obj
 0002:00000b4c       ??_C@_1BM@HAGMMHIA@?$AAH?$AAK?$AAE?$AAY?$AA_?$AAD?$AAY?$AAN?$AA_?$AAD?$AAA?$AAT?$AAA@ 1001fb4c     SigCap.obj
 0002:00000b68       ??_C@_1CI@BBJOACGG@?$AAH?$AAK?$AAE?$AAY?$AA_?$AAC?$AAU?$AAR?$AAR?$AAE?$AAN?$AAT?$AA_?$AAC?$AAO@ 1001fb68     SigCap.obj
 0002:00000b90       __GUID_00000112_0000_0000_c000_000000000046 1001fb90     SigCap.obj
 0002:00000ba0       __GUID_00000109_0000_0000_c000_000000000046 1001fba0     SigCap.obj
 0002:00000bb0       __GUID_7fd52380_4e07_101b_ae2d_08002b2ec713 1001fbb0     SigCap.obj
 0002:00000bc0       __GUID_3af24292_0c96_11ce_a0cf_00aa00600ab8 1001fbc0     SigCap.obj
 0002:00000bd0       __GUID_00000127_0000_0000_c000_000000000046 1001fbd0     SigCap.obj
 0002:00000be0       __GUID_0000010d_0000_0000_c000_000000000046 1001fbe0     SigCap.obj
 0002:00000bf0       ??_C@_1EA@NHKLICFA@?$AAH?$AAK?$AAC?$AAU?$AA?$AN?$AA?6?$AA?$HL?$AA?7?$AAS?$AAo?$AAf?$AAt?$AAw?$AAa?$AAr@ 1001fbf0     SigCap.obj
 0002:00000c30       ??_C@_1BE@LJOLIMEM@?$AA?$AN?$AA?6?$AA?7?$AA?$HN?$AA?$AN?$AA?6?$AA?$HN?$AA?$AN?$AA?6@ 1001fc30     SigCap.obj
 0002:00000c44       ??_C@_1M@PPPPCDEP@?$AAA?$AAP?$AAP?$AAI?$AAD@ 1001fc44     SigCap.obj
 0002:00000c50       ??_C@_1O@MNLDABAF@?$AAM?$AAo?$AAd?$AAu?$AAl?$AAe@ 1001fc50     SigCap.obj
 0002:00000c60       ??_C@_1BG@JBACFMF@?$AAM?$AAo?$AAd?$AAu?$AAl?$AAe?$AA_?$AAR?$AAa?$AAw@ 1001fc60     SigCap.obj
 0002:00000c78       ??_C@_1BC@KAILKFFG@?$AAR?$AAE?$AAG?$AAI?$AAS?$AAT?$AAR?$AAY@ 1001fc78     SigCap.obj
 0002:00000c8c       ??_7?$CComContainedObject@VCOPOSSigCap@@@ATL@@6B?$IDispatchImpl@UIOPOSSigCap@@$1?IID_IOPOSSigCap@@3U_GUID@@B$1?LIBID_OposSigCap_CCO@@3U3@B$00$0A@VCComTypeInfoHolder@ATL@@@1@@ 1001fc8c     SigCap.obj
 0002:00000da0       ??_7?$CComContainedObject@VCOPOSSigCap@@@ATL@@6BCComControlBase@1@@ 1001fda0     SigCap.obj
 0002:00000db4       ??_7?$CComContainedObject@VCOPOSSigCap@@@ATL@@6B?$CWindowImpl@VCOPOSSigCap@@VCWindow@ATL@@V?$CWinTraits@$0FGAAAAAA@$0A@@3@@1@@ 1001fdb4     SigCap.obj
 0002:00000dc4       ??_7?$CComContainedObject@VCOPOSSigCap@@@ATL@@6B?$IPersistStreamInitImpl@VCOPOSSigCap@@@1@@ 1001fdc4     SigCap.obj
 0002:00000de8       ??_7?$CComContainedObject@VCOPOSSigCap@@@ATL@@6B?$IOleControlImpl@VCOPOSSigCap@@@1@@ 1001fde8     SigCap.obj
 0002:00000e04       ??_7?$CComContainedObject@VCOPOSSigCap@@@ATL@@6B?$IOleObjectImpl@VCOPOSSigCap@@@1@@ 1001fe04     SigCap.obj
 0002:00000e64       ??_7?$CComContainedObject@VCOPOSSigCap@@@ATL@@6B?$IOleInPlaceActiveObjectImpl@VCOPOSSigCap@@@1@@ 1001fe64     SigCap.obj
 0002:00000e8c       ??_7?$CComContainedObject@VCOPOSSigCap@@@ATL@@6B?$IViewObjectExImpl@VCOPOSSigCap@@@1@@ 1001fe8c     SigCap.obj
 0002:00000ec8       ??_7?$CComContainedObject@VCOPOSSigCap@@@ATL@@6B?$IOleInPlaceObjectWindowlessImpl@VCOPOSSigCap@@@1@@ 1001fec8     SigCap.obj
 0002:00000ef4       ??_7?$CComContainedObject@VCOPOSSigCap@@@ATL@@6B?$IConnectionPointContainerImpl@VCOPOSSigCap@@@1@@ 1001fef4     SigCap.obj
 0002:00000f08       ??_7?$CComContainedObject@VCOPOSSigCap@@@ATL@@6B?$IPersistStorageImpl@VCOPOSSigCap@@@1@@ 1001ff08     SigCap.obj
 0002:00000f30       ??_7?$CComContainedObject@VCOPOSSigCap@@@ATL@@6B?$ISpecifyPropertyPagesImpl@VCOPOSSigCap@@@1@@ 1001ff30     SigCap.obj
 0002:00000f40       ??_7?$CComContainedObject@VCOPOSSigCap@@@ATL@@6B?$IQuickActivateImpl@VCOPOSSigCap@@@1@@ 1001ff40     SigCap.obj
 0002:00000f58       ??_7?$CComContainedObject@VCOPOSSigCap@@@ATL@@6B?$IDataObjectImpl@VCOPOSSigCap@@@1@@ 1001ff58     SigCap.obj
 0002:00000f88       ??_7?$CComContainedObject@VCOPOSSigCap@@@ATL@@6B?$IProvideClassInfo2Impl@$1?CLSID_OPOSSigCap@@3U_GUID@@B$1?DIID__IOPOSSigCapEvents@@3U2@B$1?LIBID_OposSigCap_CCO@@3U2@B$00$0A@VCComTypeInfoHolder@ATL@@@1@@ 1001ff88     SigCap.obj
 0002:00000f9c       ??_7?$CComContainedObject@VCOPOSSigCap@@@ATL@@6B?$IObjectSafetyImpl@VCOPOSSigCap@@$02@1@@ 1001ff9c     SigCap.obj
 0002:00000fb4       ??_7?$CComContainedObject@VCOPOSSigCap@@@ATL@@6B?$IPropertyNotifySinkCP@VCOPOSSigCap@@VCComDynamicUnkArray@ATL@@@1@@ 1001ffb4     SigCap.obj
 0002:00000fd4       ??_7?$CComContainedObject@VCOPOSSigCap@@@ATL@@6B?$CProxy_IOPOSEvents@VCOPOSSigCap@@@@@ 1001ffd4     SigCap.obj
 0002:00000ff4       ??_7?$CComAggObject@VCOPOSSigCap@@@ATL@@6B@ 1001fff4     SigCap.obj
 0002:00001004       ??_7?$CComObject@VCOPOSSigCap@@@ATL@@6B?$IDispatchImpl@UIOPOSSigCap@@$1?IID_IOPOSSigCap@@3U_GUID@@B$1?LIBID_OposSigCap_CCO@@3U3@B$00$0A@VCComTypeInfoHolder@ATL@@@1@@ 10020004     SigCap.obj
 0002:00001118       ??_7?$CComObject@VCOPOSSigCap@@@ATL@@6BCComControlBase@1@@ 10020118     SigCap.obj
 0002:0000112c       ??_7?$CComObject@VCOPOSSigCap@@@ATL@@6B?$CWindowImpl@VCOPOSSigCap@@VCWindow@ATL@@V?$CWinTraits@$0FGAAAAAA@$0A@@3@@1@@ 1002012c     SigCap.obj
 0002:0000113c       ??_7?$CComObject@VCOPOSSigCap@@@ATL@@6B?$IPersistStreamInitImpl@VCOPOSSigCap@@@1@@ 1002013c     SigCap.obj
 0002:00001160       ??_7?$CComObject@VCOPOSSigCap@@@ATL@@6B?$IOleControlImpl@VCOPOSSigCap@@@1@@ 10020160     SigCap.obj
 0002:0000117c       ??_7?$CComObject@VCOPOSSigCap@@@ATL@@6B?$IOleObjectImpl@VCOPOSSigCap@@@1@@ 1002017c     SigCap.obj
 0002:000011dc       ??_7?$CComObject@VCOPOSSigCap@@@ATL@@6B?$IOleInPlaceActiveObjectImpl@VCOPOSSigCap@@@1@@ 100201dc     SigCap.obj
 0002:00001204       ??_7?$CComObject@VCOPOSSigCap@@@ATL@@6B?$IViewObjectExImpl@VCOPOSSigCap@@@1@@ 10020204     SigCap.obj
 0002:00001240       ??_7?$CComObject@VCOPOSSigCap@@@ATL@@6B?$IOleInPlaceObjectWindowlessImpl@VCOPOSSigCap@@@1@@ 10020240     SigCap.obj
 0002:0000126c       ??_7?$CComObject@VCOPOSSigCap@@@ATL@@6B?$IConnectionPointContainerImpl@VCOPOSSigCap@@@1@@ 1002026c     SigCap.obj
 0002:00001280       ??_7?$CComObject@VCOPOSSigCap@@@ATL@@6B?$IPersistStorageImpl@VCOPOSSigCap@@@1@@ 10020280     SigCap.obj
 0002:000012a8       ??_7?$CComObject@VCOPOSSigCap@@@ATL@@6B?$ISpecifyPropertyPagesImpl@VCOPOSSigCap@@@1@@ 100202a8     SigCap.obj
 0002:000012b8       ??_7?$CComObject@VCOPOSSigCap@@@ATL@@6B?$IQuickActivateImpl@VCOPOSSigCap@@@1@@ 100202b8     SigCap.obj
 0002:000012d0       ??_7?$CComObject@VCOPOSSigCap@@@ATL@@6B?$IDataObjectImpl@VCOPOSSigCap@@@1@@ 100202d0     SigCap.obj
 0002:00001300       ??_7?$CComObject@VCOPOSSigCap@@@ATL@@6B?$IProvideClassInfo2Impl@$1?CLSID_OPOSSigCap@@3U_GUID@@B$1?DIID__IOPOSSigCapEvents@@3U2@B$1?LIBID_OposSigCap_CCO@@3U2@B$00$0A@VCComTypeInfoHolder@ATL@@@1@@ 10020300     SigCap.obj
 0002:00001314       ??_7?$CComObject@VCOPOSSigCap@@@ATL@@6B?$IObjectSafetyImpl@VCOPOSSigCap@@$02@1@@ 10020314     SigCap.obj
 0002:0000132c       ??_7?$CComObject@VCOPOSSigCap@@@ATL@@6B?$IPropertyNotifySinkCP@VCOPOSSigCap@@VCComDynamicUnkArray@ATL@@@1@@ 1002032c     SigCap.obj
 0002:0000134c       ??_7?$CComObject@VCOPOSSigCap@@@ATL@@6B?$CProxy_IOPOSEvents@VCOPOSSigCap@@@@@ 1002034c     SigCap.obj
 0002:0000136c       ??_C@_1O@GBFKGNEO@?$AAA?$AAT?$AAL?$AA?3?$AA?$CF?$AAp@ 1002036c     SigCap.obj
 0002:0000137c       ??_C@_1BA@PICGEGJB@?$AAD?$AAI?$AAS?$AAP?$AAL?$AAA?$AAY@ 1002037c     SigCap.obj
 0002:0000138c       __GUID_9bfbbc02_eff1_101a_84ed_00aa00341d07 1002038c     SigCap.obj
 0002:0000139c       __GUID_b196b284_bab4_101a_b69c_00aa00341d07 1002039c     SigCap.obj
 0002:000013ac       ?_entries@?1??_GetEntries@?$CComEnum@UIEnumConnectionPoints@@$1?_GUID_b196b285_bab4_101a_b69c_00aa00341d07@@3U__s_GUID@@BPAUIConnectionPoint@@V?$_CopyInterface@UIConnectionPoint@@@ATL@@VCComSingleThreadModel@6@@ATL@@SGPBU_ATL_INTMAP_ENTRY@3@XZ@4QBU43@B 100203ac     SigCap.obj
 0002:000013c4       __GUID_00020412_0000_0000_c000_000000000046 100203c4     SigCap.obj
 0002:000013d4       __GUID_00020401_0000_0000_c000_000000000046 100203d4     SigCap.obj
 0002:000013e4       ??_7?$CComObject@V?$CComEnum@UIEnumConnections@@$1?_GUID_b196b287_bab4_101a_b69c_00aa00341d07@@3U__s_GUID@@BUtagCONNECTDATA@@V?$_Copy@UtagCONNECTDATA@@@ATL@@VCComSingleThreadModel@6@@ATL@@@ATL@@6B@ 100203e4     SigCap.obj
 0002:00001404       __GUID_55980ba0_35aa_11cf_b671_00aa004cd6d8 10020404     SigCap.obj
 0002:00001414       __GUID_b196b28b_bab4_101a_b69c_00aa00341d07 10020414     SigCap.obj
 0002:00001424       ?_entries@?1??_GetEntries@?$CComEnum@UIEnumConnections@@$1?_GUID_b196b287_bab4_101a_b69c_00aa00341d07@@3U__s_GUID@@BUtagCONNECTDATA@@V?$_Copy@UtagCONNECTDATA@@@ATL@@VCComSingleThreadModel@6@@ATL@@SGPBU_ATL_INTMAP_ENTRY@3@XZ@4QBU43@B 10020424     SigCap.obj
 0002:0000143c       ??_C@_0BG@EKFFMJIO@RegOpenKeyTransactedW@ 1002043c     SigCap.obj
 0002:00001454       ??_C@_0BI@HAKLOOGP@RegDeleteKeyTransactedW@ 10020454     SigCap.obj
 0002:0000146c       ??_C@_0BA@LILAPHGE@RegDeleteKeyExW@ 1002046c     SigCap.obj
 0002:0000147c       ??_C@_19ILOCMLCJ@?$AA?4?$AAt?$AAl?$AAb@ 1002047c     SigCap.obj
 0002:00001488       __GUID_0002e012_0000_0000_c000_000000000046 10020488     SigCap.obj
 0002:00001498       ??_C@_1O@FHBGLCIO@?$AAC?$AAL?$AAS?$AAI?$AAD?$AA?2@ 10020498     SigCap.obj
 0002:000014a8       ??_C@_1CK@IFBKBFAA@?$AA?2?$AAR?$AAe?$AAq?$AAu?$AAi?$AAr?$AAe?$AAd?$AA?5?$AAC?$AAa?$AAt?$AAe?$AAg@ 100204a8     SigCap.obj
 0002:000014d4       ??_C@_1DA@BIHALFED@?$AA?2?$AAI?$AAm?$AAp?$AAl?$AAe?$AAm?$AAe?$AAn?$AAt?$AAe?$AAd?$AA?5?$AAC?$AAa@ 100204d4     SigCap.obj
 0002:00001504       ??_C@_1BK@EDKOLFBJ@?$AAO?$AAL?$AAE?$AAA?$AAU?$AAT?$AA3?$AA2?$AA?4?$AAD?$AAL?$AAL@ 10020504     SigCap.obj
 0002:00001520       ??_C@_0BJ@CNLFOMHB@UnRegisterTypeLibForUser@ 10020520     SigCap.obj
 0002:0000153c       ??_C@_0BH@LBOMMKPJ@RegisterTypeLibForUser@ 1002053c     SigCap.obj
 0002:00001554       ??_C@_0P@MMNMMLGK@COFreezeEvents@ 10020554     SigCapImpl.obj
 0002:00001564       ??_C@_0BC@OGCGGIMP@GetPropertyNumber@ 10020564     SigCapImpl.obj
 0002:00001578       ??_C@_0BC@MDCNODNB@SetPropertyNumber@ 10020578     SigCapImpl.obj
 0002:0000158c       ??_C@_0BC@CFCCMIMD@GetPropertyString@ 1002058c     SigCapImpl.obj
 0002:000015a0       ??_C@_0BC@CJEDNN@SetPropertyString@ 100205a0     SigCapImpl.obj
 0002:000015b4       ??_C@_0M@LNPKKKDA@OpenService@ 100205b4     SigCapImpl.obj
 0002:000015c0       ??_C@_0M@PCMCHHMH@CheckHealth@ 100205c0     SigCapImpl.obj
 0002:000015cc       ??_C@_0M@JGMIDNEK@ClaimDevice@ 100205cc     SigCapImpl.obj
 0002:000015d8       ??_C@_0L@BNEIFEJC@ClearInput@ 100205d8     SigCapImpl.obj
 0002:000015e4       ??_C@_0N@DDFIIBMP@CloseService@ 100205e4     SigCapImpl.obj
 0002:000015f4       ??_C@_08EEIHICPC@DirectIO@ 100205f4     SigCapImpl.obj
 0002:00001600       ??_C@_0O@BCPMENMJ@ReleaseDevice@ 10020600     SigCapImpl.obj
 0002:00001610       ??_C@_0N@MDKKMKFB@BeginCapture@ 10020610     SigCapImpl.obj
 0002:00001620       ??_C@_0L@GDHLKFDG@EndCapture@ 10020620     SigCapImpl.obj
 0002:0000162c       ??_C@_0BA@GFABKEEE@ResetStatistics@ 1002062c     SigCapImpl.obj
 0002:0000163c       ??_C@_0BD@DPALHJGC@RetrieveStatistics@ 1002063c     SigCapImpl.obj
 0002:00001650       ??_C@_0BB@KOHIKNFC@UpdateStatistics@ 10020650     SigCapImpl.obj
 0002:00001664       ??_C@_0BH@PBKBNMGB@CompareFirmwareVersion@ 10020664     SigCapImpl.obj
 0002:0000167c       ??_C@_0P@FBPDPIPA@UpdateFirmware@ 1002067c     SigCapImpl.obj
 0002:0000168c       ??_C@_0BF@CMAPCJGM@ClearInputProperties@ 1002068c     SigCapImpl.obj
 0002:000016a4       ??_7?$CProxy_IOPOSEvents@VCOPOSSigCap@@@@6B@ 100206a4     SigCapImpl.obj
 0002:000016c4       ??_C@_1BA@IFHENID@?$AA?$FL?$AAE?$AAr?$AAr?$AAo?$AAr?$AA?$FN@ 100206c4     SigCapImpl.obj
 0002:000016d4       ??_C@_0DD@KBDEGKEA@SOFTWARE?2OLEforRetail?2ServiceOP@ 100206d4     SigCapImpl.obj
 0002:00001708       ??_C@_1M@IAIJHCCH@?$AAC?$AAl?$AAo?$AAs?$AAe@ 10020708     SigCapImpl.obj
 0002:00001714       ??_C@_1M@PCPKGJAH@?$AAC?$AAl?$AAa?$AAi?$AAm@ 10020714     SigCapImpl.obj
 0002:00001720       ??_C@_1BA@NDFKIOCP@?$AAR?$AAe?$AAl?$AAe?$AAa?$AAs?$AAe@ 10020720     SigCapImpl.obj
 0002:00001730       ??_C@_0BB@FEHHNGAK@SignatureCapture@ 10020730     SigCapImpl.obj
 0002:00001744       ??_C@_1BM@IJMNMBPK@?$AAG?$AAe?$AAt?$AAO?$AAp?$AAe?$AAn?$AAR?$AAe?$AAs?$AAu?$AAl?$AAt@ 10020744     SigCapImpl.obj
 0002:00001760       _IID_IPropertyNotifySink   10020760     uuid:ocidl_i.obj
 0002:00001770       _GUID_NULL                 10020770     uuid:cguid_i.obj
 0002:00001780       _CLSID_StdGlobalInterfaceTable 10020780     uuid:cguid_i.obj
 0002:00001790       _IID_IDispatch             10020790     uuid:oaidl_i.obj
 0002:000017a0       _CLSID_StdComponentCategoriesMgr 100207a0     uuid:ieguids.obj
 0002:000017b0       _IID_IUnknown              100207b0     uuid:unknwn_i.obj
 0002:000017c0       ??_C@_1EC@JIJBPKFM@?$AAa?$AAp?$AAi?$AA?9?$AAm?$AAs?$AA?9?$AAw?$AAi?$AAn?$AA?9?$AAc?$AAo?$AAr?$AAe@ 100207c0     LIBCMT:thread_safe_statics.obj
 0002:00001804       ??_C@_1BK@MGMFAEKH@?$AAk?$AAe?$AAr?$AAn?$AAe?$AAl?$AA3?$AA2?$AA?4?$AAd?$AAl?$AAl@ 10020804     LIBCMT:thread_safe_statics.obj
 0002:00001820       ??_C@_0BJ@JEBJOJFJ@SleepConditionVariableCS@ 10020820     LIBCMT:thread_safe_statics.obj
 0002:0000183c       ??_C@_0BJ@PGPPEPCC@WakeAllConditionVariable@ 1002083c     LIBCMT:thread_safe_statics.obj
 0002:00001855       ?nothrow@std@@3Unothrow_t@1@B 10020855     LIBCMT:std_nothrow.obj
 0002:00001860       __pDefaultRawDllMain       10020860     LIBCMT:dll_dllmain.obj
 0002:00001860       __pRawDllMain              10020860     LIBCMT:dll_dllmain.obj
 0002:00001868       ??_7exception@std@@6B@     10020868     LIBCMT:throw_bad_alloc.obj
 0002:00001870       ??_C@_0BC@EOODALEL@Unknown?5exception@ 10020870     LIBCMT:throw_bad_alloc.obj
 0002:00001888       ??_7bad_alloc@std@@6B@     10020888     LIBCMT:throw_bad_alloc.obj
 0002:00001890       ??_C@_0P@GHFPNOJB@bad?5allocation@ 10020890     LIBCMT:throw_bad_alloc.obj
 0002:000018a4       ??_7bad_array_new_length@std@@6B@ 100208a4     LIBCMT:throw_bad_alloc.obj
 0002:000018ac       ??_C@_0BF@KINCDENJ@bad?5array?5new?5length@ 100208ac     LIBCMT:throw_bad_alloc.obj
 0002:000018c8       ??_7type_info@@6B@         100208c8     LIBCMT:std_type_info_static.obj
 0002:000018cc       _GUID_ATLVer110            100208cc     atls:atlbase.obj
 0002:000018e0       ??_C@_1IC@ONKHOIDK@?$AAE?$AAR?$AAR?$AAO?$AAR?$AA?5?$AA?3?$AA?5?$AAU?$AAn?$AAa?$AAb?$AAl?$AAe?$AA?5@ 100208e0     atls:atlbase.obj
 0002:00001964       ??_C@_0N@FJEPLCIH@atlthunk?4dll@ 10020964     atls:atlthunk.obj
 0002:00001974       ??_C@_0BG@GAKFHCBM@AtlThunk_AllocateData@ 10020974     atls:atlthunk.obj
 0002:0000198c       ??_C@_0BC@JKONFIAH@AtlThunk_InitData@ 1002098c     atls:atlthunk.obj
 0002:000019a0       ??_C@_0BE@IAOEELAK@AtlThunk_DataToCode@ 100209a0     atls:atlthunk.obj
 0002:000019b4       ??_C@_0BC@GBGKAIPI@AtlThunk_FreeData@ 100209b4     atls:atlthunk.obj
 0002:000019c8       __pDestructExceptionObject 100209c8     libvcruntime:ehhelpers.obj
 0002:000019d0       ??_7bad_exception@std@@6B@ 100209d0     libvcruntime:frame.obj
 0002:000019d8       ??_C@_0O@DPKOEFFH@bad?5exception@ 100209d8     libvcruntime:frame.obj
 0002:00001d68       ??_C@_08EHJDFFNH@__based?$CI@ 10020d68     libvcruntime:undname.obj
 0002:00001d74       ??_C@_07KOLFKCDI@__cdecl@  10020d74     libvcruntime:undname.obj
 0002:00001d7c       ??_C@_08GHMPAG@__pascal@   10020d7c     libvcruntime:undname.obj
 0002:00001d88       ??_C@_09IFJBGAPI@__stdcall@ 10020d88     libvcruntime:undname.obj
 0002:00001d94       ??_C@_0L@NPHFGOKO@__thiscall@ 10020d94     libvcruntime:undname.obj
 0002:00001da0       ??_C@_0L@JMKHOMEK@__fastcall@ 10020da0     libvcruntime:undname.obj
 0002:00001dac       ??_C@_0N@BCKKPABJ@__vectorcall@ 10020dac     libvcruntime:undname.obj
 0002:00001dbc       ??_C@_09HIJEGCPM@__clrcall@ 10020dbc     libvcruntime:undname.obj
 0002:00001dc8       ??_C@_06GHPCKEAG@__eabi@   10020dc8     libvcruntime:undname.obj
 0002:00001dd0       ??_C@_09IOPIDJLG@__swift_1@ 10020dd0     libvcruntime:undname.obj
 0002:00001ddc       ??_C@_09KFNFGKHF@__swift_2@ 10020ddc     libvcruntime:undname.obj
 0002:00001de8       ??_C@_07JOMMBBKO@__ptr64@  10020de8     libvcruntime:undname.obj
 0002:00001df0       ??_C@_0L@PILCLIHE@__restrict@ 10020df0     libvcruntime:undname.obj
 0002:00001dfc       ??_C@_0M@GFIIJFMG@__unaligned@ 10020dfc     libvcruntime:undname.obj
 0002:00001e08       ??_C@_09DHDLOLLB@restrict?$CI@ 10020e08     libvcruntime:undname.obj
 0002:00001e12       ??_C@_00CNPNBAHC@@         10020e12     libvcruntime:undname.obj
 0002:00001e14       ??_C@_04NIHEBCM@?5new@     10020e14     libvcruntime:undname.obj
 0002:00001e1c       ??_C@_07FPCDHGMM@?5delete@ 10020e1c     libvcruntime:undname.obj
 0002:00001e24       ??_C@_01NEMOKFLO@?$DN@     10020e24     libvcruntime:undname.obj
 0002:00001e28       ??_C@_02GPIOPFAK@?$DO?$DO@ 10020e28     libvcruntime:undname.obj
 0002:00001e2c       ??_C@_02FODMEDOG@?$DM?$DM@ 10020e2c     libvcruntime:undname.obj
 0002:00001e30       ??_C@_01DCLJPIOD@?$CB@     10020e30     libvcruntime:undname.obj
 0002:00001e34       ??_C@_02EGOFBIJA@?$DN?$DN@ 10020e34     libvcruntime:undname.obj
 0002:00001e38       ??_C@_02FDNJECIE@?$CB?$DN@ 10020e38     libvcruntime:undname.obj
 0002:00001e3c       ??_C@_02GPECMEKF@?$FL?$FN@ 10020e3c     libvcruntime:undname.obj
 0002:00001e40       ??_C@_08LHJFAFGD@operator@ 10020e40     libvcruntime:undname.obj
 0002:00001e4c       ??_C@_02HBOOOICD@?9?$DO@   10020e4c     libvcruntime:undname.obj
 0002:00001e50       ??_C@_01NBENCBCI@?$CK@     10020e50     libvcruntime:undname.obj
 0002:00001e54       ??_C@_02ECNGHCIF@?$CL?$CL@ 10020e54     libvcruntime:undname.obj
 0002:00001e58       ??_C@_02BAABKJLB@?9?9@     10020e58     libvcruntime:undname.obj
 0002:00001e5c       ??_C@_01JOAMLHOP@?9@       10020e5c     libvcruntime:undname.obj
 0002:00001e60       ??_C@_01MIFGBAGJ@?$CL@     10020e60     libvcruntime:undname.obj
 0002:00001e64       ??_C@_01HNPIGOCE@?$CG@     10020e64     libvcruntime:undname.obj
 0002:00001e68       ??_C@_03MNHNFDLC@?9?$DO?$CK@ 10020e68     libvcruntime:undname.obj
 0002:00001e6c       ??_C@_01KMDKNFGN@?1@       10020e6c     libvcruntime:undname.obj
 0002:00001e70       ??_C@_01FGNFDNOH@?$CF@     10020e70     libvcruntime:undname.obj
 0002:00001e74       ??_C@_01MNNFJEPP@?$DM@     10020e74     libvcruntime:undname.obj
 0002:00001e78       ??_C@_02EHCHHCKH@?$DM?$DN@ 10020e78     libvcruntime:undname.obj
 0002:00001e7c       ??_C@_01PPODPGHN@?$DO@     10020e7c     libvcruntime:undname.obj
 0002:00001e80       ??_C@_02EEKDKGMJ@?$DO?$DN@ 10020e80     libvcruntime:undname.obj
 0002:00001e84       ??_C@_01IHBHIGKO@?0@       10020e84     libvcruntime:undname.obj
 0002:00001e88       ??_C@_02HCKGKOFO@?$CI?$CJ@ 10020e88     libvcruntime:undname.obj
 0002:00001e8c       ??_C@_01PJKLJHI@?$HO@      10020e8c     libvcruntime:undname.obj
 0002:00001e90       ??_C@_01JKBOJNNK@?$FO@     10020e90     libvcruntime:undname.obj
 0002:00001e94       ??_C@_01DNKMNLPK@?$HM@     10020e94     libvcruntime:undname.obj
 0002:00001e98       ??_C@_02PPKAJPJL@?$CG?$CG@ 10020e98     libvcruntime:undname.obj
 0002:00001e9c       ??_C@_02NONPIBCD@?$HM?$HM@ 10020e9c     libvcruntime:undname.obj
 0002:00001ea0       ??_C@_02FPIMKNGF@?$CK?$DN@ 10020ea0     libvcruntime:undname.obj
 0002:00001ea4       ??_C@_02FOEOMHFC@?$CL?$DN@ 10020ea4     libvcruntime:undname.obj
 0002:00001ea8       ??_C@_02FKMDLLOA@?9?$DN@   10020ea8     libvcruntime:undname.obj
 0002:00001eac       ??_C@_02FJEHGPIO@?1?$DN@   10020eac     libvcruntime:undname.obj
 0002:00001eb0       ??_C@_02FENAOKFI@?$CF?$DN@ 10020eb0     libvcruntime:undname.obj
 0002:00001eb4       ??_C@_03IKFCCPFF@?$DO?$DO?$DN@ 10020eb4     libvcruntime:undname.obj
 0002:00001eb8       ??_C@_03CDNPDDLA@?$DM?$DM?$DN@ 10020eb8     libvcruntime:undname.obj
 0002:00001ebc       ??_C@_02FGJGFEAB@?$CG?$DN@ 10020ebc     libvcruntime:undname.obj
 0002:00001ec0       ??_C@_02DHLNPPGH@?$HM?$DN@ 10020ec0     libvcruntime:undname.obj
 0002:00001ec4       ??_C@_02MHEGNOJ@?$FO?$DN@  10020ec4     libvcruntime:undname.obj
 0002:00001ec8       ??_C@_09IFPLHPGF@?$GAvftable?8@ 10020ec8     libvcruntime:undname.obj
 0002:00001ed4       ??_C@_09BLBHBJP@?$GAvbtable?8@ 10020ed4     libvcruntime:undname.obj
 0002:00001ee0       ??_C@_07FEEIOKP@?$GAvcall?8@ 10020ee0     libvcruntime:undname.obj
 0002:00001ee8       ??_C@_08LLFFHHDJ@?$GAtypeof?8@ 10020ee8     libvcruntime:undname.obj
 0002:00001ef4       ??_C@_0BF@KDPPACIK@?$GAlocal?5static?5guard?8@ 10020ef4     libvcruntime:undname.obj
 0002:00001f0c       ??_C@_08OBABFOLI@?$GAstring?8@ 10020f0c     libvcruntime:undname.obj
 0002:00001f18       ??_C@_0BD@JDLKDPAB@?$GAvbase?5destructor?8@ 10020f18     libvcruntime:undname.obj
 0002:00001f2c       ??_C@_0BN@DEGPLNFK@?$GAvector?5deleting?5destructor?8@ 10020f2c     libvcruntime:undname.obj
 0002:00001f4c       ??_C@_0BO@OBMKPJIG@?$GAdefault?5constructor?5closure?8@ 10020f4c     libvcruntime:undname.obj
 0002:00001f6c       ??_C@_0BN@IMDCHIKM@?$GAscalar?5deleting?5destructor?8@ 10020f6c     libvcruntime:undname.obj
 0002:00001f8c       ??_C@_0BO@PFGOCPJJ@?$GAvector?5constructor?5iterator?8@ 10020f8c     libvcruntime:undname.obj
 0002:00001fac       ??_C@_0BN@LFPFMEDL@?$GAvector?5destructor?5iterator?8@ 10020fac     libvcruntime:undname.obj
 0002:00001fcc       ??_C@_0CE@IKBNEHA@?$GAvector?5vbase?5constructor?5itera@ 10020fcc     libvcruntime:undname.obj
 0002:00001ff0       ??_C@_0BL@NILFHHPC@?$GAvirtual?5displacement?5map?8@ 10020ff0     libvcruntime:undname.obj
 0002:0000200c       ??_C@_0CB@JONCMFFK@?$GAeh?5vector?5constructor?5iterator@ 1002100c     libvcruntime:undname.obj
 0002:00002030       ??_C@_0CA@GCEOPDGL@?$GAeh?5vector?5destructor?5iterator?8@ 10021030     libvcruntime:undname.obj
 0002:00002050       ??_C@_0CH@OOJPLCPH@?$GAeh?5vector?5vbase?5constructor?5it@ 10021050     libvcruntime:undname.obj
 0002:00002078       ??_C@_0BL@LLKPOHJI@?$GAcopy?5constructor?5closure?8@ 10021078     libvcruntime:undname.obj
 0002:00002094       ??_C@_0BA@KBCDOMBN@?$GAudt?5returning?8@ 10021094     libvcruntime:undname.obj
 0002:000020a4       ??_C@_03KLGMFNMG@?$GAEH@   100210a4     libvcruntime:undname.obj
 0002:000020a8       ??_C@_05KHLCHHI@?$GARTTI@  100210a8     libvcruntime:undname.obj
 0002:000020b0       ??_C@_0BA@KKLDJDLB@?$GAlocal?5vftable?8@ 100210b0     libvcruntime:undname.obj
 0002:000020c0       ??_C@_0CE@IIHCMGGL@?$GAlocal?5vftable?5constructor?5clos@ 100210c0     libvcruntime:undname.obj
 0002:000020e4       ??_C@_06FHBGPFGH@?5new?$FL?$FN@ 100210e4     libvcruntime:undname.obj
 0002:000020ec       ??_C@_09LBNFPBCA@?5delete?$FL?$FN@ 100210ec     libvcruntime:undname.obj
 0002:000020f8       ??_C@_0P@HJKNJFNN@?$GAomni?5callsig?8@ 100210f8     libvcruntime:undname.obj
 0002:00002108       ??_C@_0BL@CNOONJFP@?$GAplacement?5delete?5closure?8@ 10021108     libvcruntime:undname.obj
 0002:00002124       ??_C@_0BN@CKNJLHMB@?$GAplacement?5delete?$FL?$FN?5closure?8@ 10021124     libvcruntime:undname.obj
 0002:00002144       ??_C@_0CG@CFDHKGGD@?$GAmanaged?5vector?5constructor?5ite@ 10021144     libvcruntime:undname.obj
 0002:0000216c       ??_C@_0CF@IMGKMJNO@?$GAmanaged?5vector?5destructor?5iter@ 1002116c     libvcruntime:undname.obj
 0002:00002194       ??_C@_0CG@HLDDJMAG@?$GAeh?5vector?5copy?5constructor?5ite@ 10021194     libvcruntime:undname.obj
 0002:000021bc       ??_C@_0CM@FCBBDIGB@?$GAeh?5vector?5vbase?5copy?5construct@ 100211bc     libvcruntime:undname.obj
 0002:000021e8       ??_C@_0BL@CLIPGLGB@?$GAdynamic?5initializer?5for?5?8@ 100211e8     libvcruntime:undname.obj
 0002:00002204       ??_C@_0CB@PDBIFEP@?$GAdynamic?5atexit?5destructor?5for?5@ 10021204     libvcruntime:undname.obj
 0002:00002228       ??_C@_0CD@CGAJBKEJ@?$GAvector?5copy?5constructor?5iterat@ 10021228     libvcruntime:undname.obj
 0002:0000224c       ??_C@_0CJ@GJELGAMM@?$GAvector?5vbase?5copy?5constructor?5@ 1002124c     libvcruntime:undname.obj
 0002:00002278       ??_C@_0CL@FGIJHLCE@?$GAmanaged?5vector?5copy?5constructo@ 10021278     libvcruntime:undname.obj
 0002:000022a4       ??_C@_0BM@PMGGMLDN@?$GAlocal?5static?5thread?5guard?8@ 100212a4     libvcruntime:undname.obj
 0002:000022c0       ??_C@_0N@BDNMDMOL@operator?5?$CC?$CC?5@ 100212c0     libvcruntime:undname.obj
 0002:000022d0       ??_C@_0BC@GGEBGALA@operator?5co_await@ 100212d0     libvcruntime:undname.obj
 0002:000022e4       ??_C@_0M@GAAIMMOH@operator?$DM?$DN?$DO@ 100212e4     libvcruntime:undname.obj
 0002:000022f0       ??_C@_0BC@DAFEJGAK@?5Type?5Descriptor?8@ 100212f0     libvcruntime:undname.obj
 0002:00002304       ??_C@_0BM@LDKODKLH@?5Base?5Class?5Descriptor?5at?5?$CI@ 10021304     libvcruntime:undname.obj
 0002:00002320       ??_C@_0BD@LGICGFMM@?5Base?5Class?5Array?8@ 10021320     libvcruntime:undname.obj
 0002:00002334       ??_C@_0BN@MECKDCOJ@?5Class?5Hierarchy?5Descriptor?8@ 10021334     libvcruntime:undname.obj
 0002:00002354       ??_C@_0BK@CFCOFLF@?5Complete?5Object?5Locator?8@ 10021354     libvcruntime:undname.obj
 0002:00002370       ??_C@_0BG@JNJLAMPM@?$GAanonymous?5namespace?8@ 10021370     libvcruntime:undname.obj
 0002:00002394       ??_C@_1DM@KHCHBNEB@?$AAa?$AAp?$AAi?$AA?9?$AAm?$AAs?$AA?9?$AAw?$AAi?$AAn?$AA?9?$AAc?$AAo?$AAr?$AAe@ 10021394     libvcruntime:winapi_downlevel.obj
 0002:000023d0       ??_C@_1DK@LPPGFMPP@?$AAa?$AAp?$AAi?$AA?9?$AAm?$AAs?$AA?9?$AAw?$AAi?$AAn?$AA?9?$AAc?$AAo?$AAr?$AAe@ 100213d0     libvcruntime:winapi_downlevel.obj
 0002:0000240c       ??_C@_1BC@GDMECMAK@?$AAk?$AAe?$AAr?$AAn?$AAe?$AAl?$AA3?$AA2@ 1002140c     libvcruntime:winapi_downlevel.obj
 0002:00002420       ??_C@_1BA@PFFKHIOG@?$AAa?$AAp?$AAi?$AA?9?$AAm?$AAs?$AA?9@ 10021420     libvcruntime:winapi_downlevel.obj
 0002:00002438       ??_C@_08KNHFBNJ@FlsAlloc@  10021438     libvcruntime:winapi_downlevel.obj
 0002:0000244c       ??_C@_07PEJMOBNF@FlsFree@  1002144c     libvcruntime:winapi_downlevel.obj
 0002:0000245c       ??_C@_0M@GDNOONDI@FlsGetValue@ 1002145c     libvcruntime:winapi_downlevel.obj
 0002:00002470       ??_C@_0M@JCPCPOEF@FlsSetValue@ 10021470     libvcruntime:winapi_downlevel.obj
 0002:00002484       ??_C@_0BM@HCFOFFN@InitializeCriticalSectionEx@ 10021484     libvcruntime:winapi_downlevel.obj
 0002:00002608       _format_validation_lookup_table 10021608     libucrt:output.obj
 0002:00002664       ??_C@_1O@CEDCILHN@?$AA?$CI?$AAn?$AAu?$AAl?$AAl?$AA?$CJ@ 10021664     libucrt:output.obj
 0002:00002674       ??_C@_06OJHGLDPL@?$CInull?$CJ@ 10021674     libucrt:output.obj
 0002:00002680       ___acrt_exception_action_table 10021680     libucrt:exception_filter.obj
 0002:00002710       ___acrt_signal_action_table_count 10021710     libucrt:exception_filter.obj
 0002:00002714       ___acrt_signal_action_first_fpe_index 10021714     libucrt:exception_filter.obj
 0002:00002718       ___acrt_signal_action_fpe_count 10021718     libucrt:exception_filter.obj
 0002:0000271c       ??_C@_1BI@BGOHAHKC@?$AAm?$AAs?$AAc?$AAo?$AAr?$AAe?$AAe?$AA?4?$AAd?$AAl?$AAl@ 1002171c     libucrt:exit.obj
 0002:00002734       ??_C@_0P@MIGLKIOC@CorExitProcess@ 10021734     libucrt:exit.obj
 0002:00002818       ??_C@_1EA@JGEFHKEI@?$AAa?$AAp?$AAi?$AA?9?$AAm?$AAs?$AA?9?$AAw?$AAi?$AAn?$AA?9?$AAc?$AAo?$AAr?$AAe@ 10021818     libucrt:winapi_thunks.obj
 0002:00002858       ??_C@_1DI@IJCEHOCB@?$AAa?$AAp?$AAi?$AA?9?$AAm?$AAs?$AA?9?$AAw?$AAi?$AAn?$AA?9?$AAc?$AAo?$AAr?$AAe@ 10021858     libucrt:winapi_thunks.obj
 0002:00002890       ??_C@_1EI@MPIAOHOC@?$AAa?$AAp?$AAi?$AA?9?$AAm?$AAs?$AA?9?$AAw?$AAi?$AAn?$AA?9?$AAc?$AAo?$AAr?$AAe@ 10021890     libucrt:winapi_thunks.obj
 0002:000028d8       ??_C@_1FK@FPHCKFIE@?$AAa?$AAp?$AAi?$AA?9?$AAm?$AAs?$AA?9?$AAw?$AAi?$AAn?$AA?9?$AAc?$AAo?$AAr?$AAe@ 100218d8     libucrt:winapi_thunks.obj
 0002:00002938       ??_C@_1EM@DILCGIIO@?$AAa?$AAp?$AAi?$AA?9?$AAm?$AAs?$AA?9?$AAw?$AAi?$AAn?$AA?9?$AAc?$AAo?$AAr?$AAe@ 10021938     libucrt:winapi_thunks.obj
 0002:00002984       ??_C@_1DM@LNCGDDPN@?$AAa?$AAp?$AAi?$AA?9?$AAm?$AAs?$AA?9?$AAw?$AAi?$AAn?$AA?9?$AAc?$AAo?$AAr?$AAe@ 10021984     libucrt:winapi_thunks.obj
 0002:000029c0       ??_C@_1DO@FPAPJEMD@?$AAa?$AAp?$AAi?$AA?9?$AAm?$AAs?$AA?9?$AAw?$AAi?$AAn?$AA?9?$AAc?$AAo?$AAr?$AAe@ 100219c0     libucrt:winapi_thunks.obj
 0002:00002a00       ??_C@_1DK@NDHNAHIO@?$AAa?$AAp?$AAi?$AA?9?$AAm?$AAs?$AA?9?$AAw?$AAi?$AAn?$AA?9?$AAc?$AAo?$AAr?$AAe@ 10021a00     libucrt:winapi_thunks.obj
 0002:00002a3c       ??_C@_1DM@KGHDGBCM@?$AAa?$AAp?$AAi?$AA?9?$AAm?$AAs?$AA?9?$AAw?$AAi?$AAn?$AA?9?$AAc?$AAo?$AAr?$AAe@ 10021a3c     libucrt:winapi_thunks.obj
 0002:00002a78       ??_C@_1EO@IJIOEFOH@?$AAa?$AAp?$AAi?$AA?9?$AAm?$AAs?$AA?9?$AAw?$AAi?$AAn?$AA?9?$AAr?$AAt?$AAc?$AAo@ 10021a78     libucrt:winapi_thunks.obj
 0002:00002ac8       ??_C@_1FG@HHGEKANL@?$AAa?$AAp?$AAi?$AA?9?$AAm?$AAs?$AA?9?$AAw?$AAi?$AAn?$AA?9?$AAs?$AAe?$AAc?$AAu@ 10021ac8     libucrt:winapi_thunks.obj
 0002:00002b20       ??_C@_1EG@DBIOJECG@?$AAe?$AAx?$AAt?$AA?9?$AAm?$AAs?$AA?9?$AAw?$AAi?$AAn?$AA?9?$AAn?$AAt?$AAu?$AAs@ 10021b20     libucrt:winapi_thunks.obj
 0002:00002b68       ??_C@_1EO@FIHMJCLF@?$AAe?$AAx?$AAt?$AA?9?$AAm?$AAs?$AA?9?$AAw?$AAi?$AAn?$AA?9?$AAn?$AAt?$AAu?$AAs@ 10021b68     libucrt:winapi_thunks.obj
 0002:00002bb8       ??_C@_1BC@DNHGCMLG@?$AAa?$AAd?$AAv?$AAa?$AAp?$AAi?$AA3?$AA2@ 10021bb8     libucrt:winapi_thunks.obj
 0002:00002bcc       ??_C@_1M@OAIMIKLP@?$AAn?$AAt?$AAd?$AAl?$AAl@ 10021bcc     libucrt:winapi_thunks.obj
 0002:00002bd8       ??_C@_1EG@DPGNFKGC@?$AAa?$AAp?$AAi?$AA?9?$AAm?$AAs?$AA?9?$AAw?$AAi?$AAn?$AA?9?$AAa?$AAp?$AAp?$AAm@ 10021bd8     libucrt:winapi_thunks.obj
 0002:00002c20       ??_C@_1O@BCCLBEOE@?$AAu?$AAs?$AAe?$AAr?$AA3?$AA2@ 10021c20     libucrt:winapi_thunks.obj
 0002:00002c30       ??_C@_1BA@IAIFMGEF@?$AAe?$AAx?$AAt?$AA?9?$AAm?$AAs?$AA?9@ 10021c30     libucrt:winapi_thunks.obj
 0002:00002c44       ??_C@_0BA@FHFNEAED@AreFileApisANSI@ 10021c44     libucrt:winapi_thunks.obj
 0002:00002c84       ??_C@_0O@KKBNKAPF@LCMapStringEx@ 10021c84     libucrt:winapi_thunks.obj
 0002:00002c9c       ??_C@_0BB@HBDEELFH@LocaleNameToLCID@ 10021c9c     libucrt:winapi_thunks.obj
 0002:00002cb4       ??_C@_0CF@OJOFEIGO@AppPolicyGetProcessTerminationM@ 10021cb4     libucrt:winapi_thunks.obj
 0002:00002ce4       ??_C@_0BI@BKLFFAPO@SetThreadStackGuarantee@ 10021ce4     libucrt:winapi_thunks.obj
 0002:00002d40       ??_C@_03OEIAHPBN@INF@      10021d40     libucrt:cvt.obj
 0002:00002d44       ??_C@_03OJHLLCGB@inf@      10021d44     libucrt:cvt.obj
 0002:00002d48       ??_C@_03LKNCIKJB@NAN@      10021d48     libucrt:cvt.obj
 0002:00002d4c       ??_C@_03LHCJEHON@nan@      10021d4c     libucrt:cvt.obj
 0002:00002d50       ??_C@_09OFJJIMPC@NAN?$CISNAN?$CJ@ 10021d50     libucrt:cvt.obj
 0002:00002d5c       ??_C@_09IPFBKMDL@nan?$CIsnan?$CJ@ 10021d5c     libucrt:cvt.obj
 0002:00002d68       ??_C@_08IKHNHAJ@NAN?$CIIND?$CJ@ 10021d68     libucrt:cvt.obj
 0002:00002d74       ??_C@_08OFCDMILK@nan?$CIind?$CJ@ 10021d74     libucrt:cvt.obj
 0002:00002d80       ??_C@_05KLBDPFGC@e?$CL000@ 10021d80     libucrt:cvt.obj
 0002:00002d88       ___lc_time_c               10021d88     libucrt:nlsdata.obj
 0002:00002eec       ??_C@_03KOEHGMDN@Sun@      10021eec     libucrt:nlsdata.obj
 0002:00002ef0       ??_C@_03PDAGKDH@Mon@       10021ef0     libucrt:nlsdata.obj
 0002:00002ef4       ??_C@_03NAGEINEP@Tue@      10021ef4     libucrt:nlsdata.obj
 0002:00002ef8       ??_C@_03MHOMLAJA@Wed@      10021ef8     libucrt:nlsdata.obj
 0002:00002efc       ??_C@_03IOFIKPDN@Thu@      10021efc     libucrt:nlsdata.obj
 0002:00002f00       ??_C@_03IDIOELNC@Fri@      10021f00     libucrt:nlsdata.obj
 0002:00002f04       ??_C@_03FEFJNEK@Sat@       10021f04     libucrt:nlsdata.obj
 0002:00002f08       ??_C@_06OOPIFAJ@Sunday@    10021f08     libucrt:nlsdata.obj
 0002:00002f10       ??_C@_06JLEDEDGH@Monday@   10021f10     libucrt:nlsdata.obj
 0002:00002f18       ??_C@_07BAAGCFCM@Tuesday@  10021f18     libucrt:nlsdata.obj
 0002:00002f20       ??_C@_09DLIGFAKA@Wednesday@ 10021f20     libucrt:nlsdata.obj
 0002:00002f2c       ??_C@_08HACCIKIA@Thursday@ 10021f2c     libucrt:nlsdata.obj
 0002:00002f38       ??_C@_06JECMNKMI@Friday@   10021f38     libucrt:nlsdata.obj
 0002:00002f40       ??_C@_08INBOOONO@Saturday@ 10021f40     libucrt:nlsdata.obj
 0002:00002f4c       ??_C@_03JIHJHPIE@Jan@      10021f4c     libucrt:nlsdata.obj
 0002:00002f50       ??_C@_03HJBDCHOM@Feb@      10021f50     libucrt:nlsdata.obj
 0002:00002f54       ??_C@_03ODNJBKGA@Mar@      10021f54     libucrt:nlsdata.obj
 0002:00002f58       ??_C@_03LEOLGMJP@Apr@      10021f58     libucrt:nlsdata.obj
 0002:00002f5c       ??_C@_03CNMDKL@May@        10021f5c     libucrt:nlsdata.obj
 0002:00002f60       ??_C@_03IDFGHECI@Jun@      10021f60     libucrt:nlsdata.obj
 0002:00002f64       ??_C@_03LBGABGKK@Jul@      10021f64     libucrt:nlsdata.obj
 0002:00002f68       ??_C@_03IFJFEIGA@Aug@      10021f68     libucrt:nlsdata.obj
 0002:00002f6c       ??_C@_03GGCAPAJC@Sep@      10021f6c     libucrt:nlsdata.obj
 0002:00002f70       ??_C@_03BMAOKBAD@Oct@      10021f70     libucrt:nlsdata.obj
 0002:00002f74       ??_C@_03JPJOFNIA@Nov@      10021f74     libucrt:nlsdata.obj
 0002:00002f78       ??_C@_03MKABNOCG@Dec@      10021f78     libucrt:nlsdata.obj
 0002:00002f7c       ??_C@_07CGJPFGJA@January@  10021f7c     libucrt:nlsdata.obj
 0002:00002f84       ??_C@_08GNJGEPFN@February@ 10021f84     libucrt:nlsdata.obj
 0002:00002f90       ??_C@_05HPCKOFNC@March@    10021f90     libucrt:nlsdata.obj
 0002:00002f98       ??_C@_05DMJDNLEJ@April@    10021f98     libucrt:nlsdata.obj
 0002:00002fa0       ??_C@_04CNLMGBGM@June@     10021fa0     libucrt:nlsdata.obj
 0002:00002fa8       ??_C@_04MIEPOIFP@July@     10021fa8     libucrt:nlsdata.obj
 0002:00002fb0       ??_C@_06LBBHFDDG@August@   10021fb0     libucrt:nlsdata.obj
 0002:00002fb8       ??_C@_09BHHEALKD@September@ 10021fb8     libucrt:nlsdata.obj
 0002:00002fc4       ??_C@_07JJNFCEND@October@  10021fc4     libucrt:nlsdata.obj
 0002:00002fcc       ??_C@_08HCHEGEOA@November@ 10021fcc     libucrt:nlsdata.obj
 0002:00002fd8       ??_C@_08EDHMEBNP@December@ 10021fd8     libucrt:nlsdata.obj
 0002:00002fe4       ??_C@_02DEDBPAFC@AM@       10021fe4     libucrt:nlsdata.obj
 0002:00002fe8       ??_C@_02CJNFDJBF@PM@       10021fe8     libucrt:nlsdata.obj
 0002:00002fec       ??_C@_08BPBNCDIB@MM?1dd?1yy@ 10021fec     libucrt:nlsdata.obj
 0002:00002ff8       ??_C@_0BE@CKGJFCPC@dddd?0?5MMMM?5dd?0?5yyyy@ 10021ff8     libucrt:nlsdata.obj
 0002:0000300c       ??_C@_08JCCMCCIL@HH?3mm?3ss@ 1002200c     libucrt:nlsdata.obj
 0002:00003018       ??_C@_17MBGCMIPB@?$AAS?$AAu?$AAn@ 10022018     libucrt:nlsdata.obj
 0002:00003020       ??_C@_17KBOMKBF@?$AAM?$AAo?$AAn@ 10022020     libucrt:nlsdata.obj
 0002:00003028       ??_C@_17BMKGEGOJ@?$AAT?$AAu?$AAe@ 10022028     libucrt:nlsdata.obj
 0002:00003030       ??_C@_17CJEDCEPE@?$AAW?$AAe?$AAd@ 10022030     libucrt:nlsdata.obj
 0002:00003038       ??_C@_17PDPHAADD@?$AAT?$AAh?$AAu@ 10022038     libucrt:nlsdata.obj
 0002:00003040       ??_C@_17HFOLPPLP@?$AAF?$AAr?$AAi@ 10022040     libucrt:nlsdata.obj
 0002:00003048       ??_C@_17GGIBDPIH@?$AAS?$AAa?$AAt@ 10022048     libucrt:nlsdata.obj
 0002:00003050       ??_C@_1O@IHNHDHPB@?$AAS?$AAu?$AAn?$AAd?$AAa?$AAy@ 10022050     libucrt:nlsdata.obj
 0002:00003060       ??_C@_1O@MMNBFLIA@?$AAM?$AAo?$AAn?$AAd?$AAa?$AAy@ 10022060     libucrt:nlsdata.obj
 0002:00003070       ??_C@_1BA@ENFBFFEK@?$AAT?$AAu?$AAe?$AAs?$AAd?$AAa?$AAy@ 10022070     libucrt:nlsdata.obj
 0002:00003080       ??_C@_1BE@EBOGMDOH@?$AAW?$AAe?$AAd?$AAn?$AAe?$AAs?$AAd?$AAa?$AAy@ 10022080     libucrt:nlsdata.obj
 0002:00003094       ??_C@_1BC@HHMNLIHE@?$AAT?$AAh?$AAu?$AAr?$AAs?$AAd?$AAa?$AAy@ 10022094     libucrt:nlsdata.obj
 0002:000030a8       ??_C@_1O@PDICJHAG@?$AAF?$AAr?$AAi?$AAd?$AAa?$AAy@ 100220a8     libucrt:nlsdata.obj
 0002:000030b8       ??_C@_1BC@ENMNNPAJ@?$AAS?$AAa?$AAt?$AAu?$AAr?$AAd?$AAa?$AAy@ 100220b8     libucrt:nlsdata.obj
 0002:000030cc       ??_C@_17DKNBKCHM@?$AAJ?$AAa?$AAn@ 100220cc     libucrt:nlsdata.obj
 0002:000030d4       ??_C@_17LMDJEKJN@?$AAF?$AAe?$AAb@ 100220d4     libucrt:nlsdata.obj
 0002:000030dc       ??_C@_17CKNLEDEC@?$AAM?$AAa?$AAr@ 100220dc     libucrt:nlsdata.obj
 0002:000030e4       ??_C@_17LFPOIHDD@?$AAA?$AAp?$AAr@ 100220e4     libucrt:nlsdata.obj
 0002:000030ec       ??_C@_17PNNKMEED@?$AAM?$AAa?$AAy@ 100220ec     libucrt:nlsdata.obj
 0002:000030f4       ??_C@_17KCJGOCPB@?$AAJ?$AAu?$AAn@ 100220f4     libucrt:nlsdata.obj
 0002:000030fc       ??_C@_17IJPCKHK@?$AAJ?$AAu?$AAl@ 100220fc     libucrt:nlsdata.obj
 0002:00003104       ??_C@_17ICPELBCN@?$AAA?$AAu?$AAg@ 10022104     libucrt:nlsdata.obj
 0002:0000310c       ??_C@_17HCHCOKMG@?$AAS?$AAe?$AAp@ 1002210c     libucrt:nlsdata.obj
 0002:00003114       ??_C@_17FNLKOI@?$AAO?$AAc?$AAt@ 10022114     libucrt:nlsdata.obj
 0002:0000311c       ??_C@_17BBDMLCIG@?$AAN?$AAo?$AAv@ 1002211c     libucrt:nlsdata.obj
 0002:00003124       ??_C@_17EGKACKIF@?$AAD?$AAe?$AAc@ 10022124     libucrt:nlsdata.obj
 0002:0000312c       ??_C@_1BA@EFMEIEBA@?$AAJ?$AAa?$AAn?$AAu?$AAa?$AAr?$AAy@ 1002212c     libucrt:nlsdata.obj
 0002:0000313c       ??_C@_1BC@JGDDFFAM@?$AAF?$AAe?$AAb?$AAr?$AAu?$AAa?$AAr?$AAy@ 1002213c     libucrt:nlsdata.obj
 0002:00003150       ??_C@_1M@IKEENEDF@?$AAM?$AAa?$AAr?$AAc?$AAh@ 10022150     libucrt:nlsdata.obj
 0002:0000315c       ??_C@_1M@GJNLMHFD@?$AAA?$AAp?$AAr?$AAi?$AAl@ 1002215c     libucrt:nlsdata.obj
 0002:00003168       ??_C@_19EPFLPGAP@?$AAJ?$AAu?$AAn?$AAe@ 10022168     libucrt:nlsdata.obj
 0002:00003174       ??_C@_19BIFMLPCD@?$AAJ?$AAu?$AAl?$AAy@ 10022174     libucrt:nlsdata.obj
 0002:00003180       ??_C@_1O@PAHLKOAC@?$AAA?$AAu?$AAg?$AAu?$AAs?$AAt@ 10022180     libucrt:nlsdata.obj
 0002:00003190       ??_C@_1BE@DKAAMBJL@?$AAS?$AAe?$AAp?$AAt?$AAe?$AAm?$AAb?$AAe?$AAr@ 10022190     libucrt:nlsdata.obj
 0002:000031a4       ??_C@_1BA@EPANDLNG@?$AAO?$AAc?$AAt?$AAo?$AAb?$AAe?$AAr@ 100221a4     libucrt:nlsdata.obj
 0002:000031b4       ??_C@_1BC@BGLIFPF@?$AAN?$AAo?$AAv?$AAe?$AAm?$AAb?$AAe?$AAr@ 100221b4     libucrt:nlsdata.obj
 0002:000031c8       ??_C@_1BC@FEMKIFH@?$AAD?$AAe?$AAc?$AAe?$AAm?$AAb?$AAe?$AAr@ 100221c8     libucrt:nlsdata.obj
 0002:000031dc       ??_C@_15ODEHAHHF@?$AAA?$AAM@ 100221dc     libucrt:nlsdata.obj
 0002:000031e4       ??_C@_15CLMNNGEL@?$AAP?$AAM@ 100221e4     libucrt:nlsdata.obj
 0002:000031ec       ??_C@_1BC@IEBCMHCM@?$AAM?$AAM?$AA?1?$AAd?$AAd?$AA?1?$AAy?$AAy@ 100221ec     libucrt:nlsdata.obj
 0002:00003200       ??_C@_1CI@KNAKOEBC@?$AAd?$AAd?$AAd?$AAd?$AA?0?$AA?5?$AAM?$AAM?$AAM?$AAM?$AA?5?$AAd?$AAd?$AA?0?$AA?5@ 10022200     libucrt:nlsdata.obj
 0002:00003228       ??_C@_1BC@GDGBMEMK@?$AAH?$AAH?$AA?3?$AAm?$AAm?$AA?3?$AAs?$AAs@ 10022228     libucrt:nlsdata.obj
 0002:0000323c       ??_C@_1M@BMHNFIME@?$AAe?$AAn?$AA?9?$AAU?$AAS@ 1002223c     libucrt:nlsdata.obj
 0002:00003258       ??_C@_1M@HPNHIDJI@?$AAj?$AAa?$AA?9?$AAJ?$AAP@ 10022258     libucrt:mbctype.obj
 0002:00003264       ??_C@_1M@BIBDDEMK@?$AAz?$AAh?$AA?9?$AAC?$AAN@ 10022264     libucrt:mbctype.obj
 0002:00003270       ??_C@_1M@JLOOOEGK@?$AAk?$AAo?$AA?9?$AAK?$AAR@ 10022270     libucrt:mbctype.obj
 0002:0000327c       ??_C@_1M@CLNBBOPM@?$AAz?$AAh?$AA?9?$AAT?$AAW@ 1002227c     libucrt:mbctype.obj
 0002:00003288       ___newctype                10022288     libucrt:ctype.obj
 0002:00003588       ___newclmap                10022588     libucrt:ctype.obj
 0002:00003708       ___newcumap                10022708     libucrt:ctype.obj
 0002:00003888       __wctype                   10022888     libucrt:ctype.obj
 0002:000041b0       ??_C@_15EMKDOKLE@?$AAa?$AAr@ 100231b0     libucrt:lcidtoname_downlevel.obj
 0002:000041b8       ??_C@_15KNPADPLH@?$AAb?$AAg@ 100231b8     libucrt:lcidtoname_downlevel.obj
 0002:000041c0       ??_C@_15EDMHLDMO@?$AAc?$AAa@ 100231c0     libucrt:lcidtoname_downlevel.obj
 0002:000041c8       ??_C@_1O@BPEAJADD@?$AAz?$AAh?$AA?9?$AAC?$AAH?$AAS@ 100231c8     libucrt:lcidtoname_downlevel.obj
 0002:000041d8       ??_C@_15LJNHCMNK@?$AAc?$AAs@ 100231d8     libucrt:lcidtoname_downlevel.obj
 0002:000041e0       ??_C@_15FOMCIDHG@?$AAd?$AAa@ 100231e0     libucrt:lcidtoname_downlevel.obj
 0002:000041e8       ??_C@_15NBKABECB@?$AAd?$AAe@ 100231e8     libucrt:lcidtoname_downlevel.obj
 0002:000041f0       ??_C@_15GHPEIIAO@?$AAe?$AAl@ 100231f0     libucrt:lcidtoname_downlevel.obj
 0002:000041f8       ??_C@_15MNPNEAIF@?$AAe?$AAn@ 100231f8     libucrt:lcidtoname_downlevel.obj
 0002:00004200       ??_C@_15GPIOMPMH@?$AAe?$AAs@ 10023200     libucrt:lcidtoname_downlevel.obj
 0002:00004208       ??_C@_15NGLOAKJC@?$AAf?$AAi@ 10023208     libucrt:lcidtoname_downlevel.obj
 0002:00004210       ??_C@_15FBKGNKAM@?$AAf?$AAr@ 10023210     libucrt:lcidtoname_downlevel.obj
 0002:00004218       ??_C@_15KGGCNEFK@?$AAh?$AAe@ 10023218     libucrt:lcidtoname_downlevel.obj
 0002:00004220       ??_C@_15PGHLIDMF@?$AAh?$AAu@ 10023220     libucrt:lcidtoname_downlevel.obj
 0002:00004228       ??_C@_15BIEMAPLM@?$AAi?$AAs@ 10023228     libucrt:lcidtoname_downlevel.obj
 0002:00004230       ??_C@_15IFJLDHAF@?$AAi?$AAt@ 10023230     libucrt:lcidtoname_downlevel.obj
 0002:00004238       ??_C@_15GEMIOCAG@?$AAj?$AAa@ 10023238     libucrt:lcidtoname_downlevel.obj
 0002:00004240       ??_C@_15EPELEGJA@?$AAk?$AAo@ 10023240     libucrt:lcidtoname_downlevel.obj
 0002:00004248       ??_C@_15NDDHIMN@?$AAn?$AAl@ 10023248     libucrt:lcidtoname_downlevel.obj
 0002:00004250       ??_C@_15BPIGNHCD@?$AAn?$AAo@ 10023250     libucrt:lcidtoname_downlevel.obj
 0002:00004258       ??_C@_15DEOPBLCG@?$AAp?$AAl@ 10023258     libucrt:lcidtoname_downlevel.obj
 0002:00004260       ??_C@_15KBECGEFG@?$AAp?$AAt@ 10023260     libucrt:lcidtoname_downlevel.obj
 0002:00004268       ??_C@_15GLJCBFMD@?$AAr?$AAo@ 10023268     libucrt:lcidtoname_downlevel.obj
 0002:00004270       ??_C@_15FEDGKCDI@?$AAr?$AAu@ 10023270     libucrt:lcidtoname_downlevel.obj
 0002:00004278       ??_C@_15GLKMLLHM@?$AAh?$AAr@ 10023278     libucrt:lcidtoname_downlevel.obj
 0002:00004280       ??_C@_15CPKMFBDB@?$AAs?$AAk@ 10023280     libucrt:lcidtoname_downlevel.obj
 0002:00004288       ??_C@_15BAAIOGMK@?$AAs?$AAq@ 10023288     libucrt:lcidtoname_downlevel.obj
 0002:00004290       ??_C@_15INNPNOHD@?$AAs?$AAv@ 10023290     libucrt:lcidtoname_downlevel.obj
 0002:00004298       ??_C@_15CABMMOGH@?$AAt?$AAh@ 10023298     libucrt:lcidtoname_downlevel.obj
 0002:000042a0       ??_C@_15BPLIHJJM@?$AAt?$AAr@ 100232a0     libucrt:lcidtoname_downlevel.obj
 0002:000042a8       ??_C@_15NEOEKKDJ@?$AAu?$AAr@ 100232a8     libucrt:lcidtoname_downlevel.obj
 0002:000042b0       ??_C@_15NFICGAJK@?$AAi?$AAd@ 100232b0     libucrt:lcidtoname_downlevel.obj
 0002:000042b8       ??_C@_15PJPFLCCM@?$AAu?$AAk@ 100232b8     libucrt:lcidtoname_downlevel.obj
 0002:000042c0       ??_C@_15HPJPHDM@?$AAb?$AAe@ 100232c0     libucrt:lcidtoname_downlevel.obj
 0002:000042c8       ??_C@_15LCHLGJII@?$AAs?$AAl@ 100232c8     libucrt:lcidtoname_downlevel.obj
 0002:000042d0       ??_C@_15PCFJPHHO@?$AAe?$AAt@ 100232d0     libucrt:lcidtoname_downlevel.obj
 0002:000042d8       ??_C@_15HPFPGODN@?$AAl?$AAv@ 100232d8     libucrt:lcidtoname_downlevel.obj
 0002:000042e0       ??_C@_15NFFGKGLG@?$AAl?$AAt@ 100232e0     libucrt:lcidtoname_downlevel.obj
 0002:000042e8       ??_C@_15BDAKCCHN@?$AAf?$AAa@ 100232e8     libucrt:lcidtoname_downlevel.obj
 0002:000042f0       ??_C@_15NFGIAIAJ@?$AAv?$AAi@ 100232f0     libucrt:lcidtoname_downlevel.obj
 0002:000042f8       ??_C@_15LMKNDMHN@?$AAh?$AAy@ 100232f8     libucrt:lcidtoname_downlevel.obj
 0002:00004300       ??_C@_15IJBHMCFL@?$AAa?$AAz@ 10023300     libucrt:lcidtoname_downlevel.obj
 0002:00004308       ??_C@_15EKOFJABL@?$AAe?$AAu@ 10023308     libucrt:lcidtoname_downlevel.obj
 0002:00004310       ??_C@_15BGHADCNK@?$AAm?$AAk@ 10023310     libucrt:lcidtoname_downlevel.obj
 0002:00004318       ??_C@_15JDNICKHM@?$AAa?$AAf@ 10023318     libucrt:lcidtoname_downlevel.obj
 0002:00004320       ??_C@_15KPJEDBKD@?$AAk?$AAa@ 10023320     libucrt:lcidtoname_downlevel.obj
 0002:00004328       ??_C@_15PDNFFFEO@?$AAf?$AAo@ 10023328     libucrt:lcidtoname_downlevel.obj
 0002:00004330       ??_C@_15OMLEGLOC@?$AAh?$AAi@ 10023330     libucrt:lcidtoname_downlevel.obj
 0002:00004338       ??_C@_15IDNNENKK@?$AAm?$AAs@ 10023338     libucrt:lcidtoname_downlevel.obj
 0002:00004340       ??_C@_15MACJNBMH@?$AAk?$AAk@ 10023340     libucrt:lcidtoname_downlevel.obj
 0002:00004348       ??_C@_15DKDJEOND@?$AAk?$AAy@ 10023348     libucrt:lcidtoname_downlevel.obj
 0002:00004350       ??_C@_15DFGDLJBG@?$AAs?$AAw@ 10023350     libucrt:lcidtoname_downlevel.obj
 0002:00004358       ??_C@_15BBFAICNG@?$AAu?$AAz@ 10023358     libucrt:lcidtoname_downlevel.obj
 0002:00004360       ??_C@_15DKNDCGEA@?$AAt?$AAt@ 10023360     libucrt:lcidtoname_downlevel.obj
 0002:00004368       ??_C@_15MGIFMDPL@?$AAp?$AAa@ 10023368     libucrt:lcidtoname_downlevel.obj
 0002:00004370       ??_C@_15HCNDBBA@?$AAg?$AAu@ 10023370     libucrt:lcidtoname_downlevel.obj
 0002:00004378       ??_C@_15FNBEIBON@?$AAt?$AAa@ 10023378     libucrt:lcidtoname_downlevel.obj
 0002:00004380       ??_C@_15NCHGBGLK@?$AAt?$AAe@ 10023380     libucrt:lcidtoname_downlevel.obj
 0002:00004388       ??_C@_15PHPHCBPF@?$AAk?$AAn@ 10023388     libucrt:lcidtoname_downlevel.obj
 0002:00004390       ??_C@_15DLGBCKMP@?$AAm?$AAr@ 10023390     libucrt:lcidtoname_downlevel.obj
 0002:00004398       ??_C@_15EABBLBFF@?$AAs?$AAa@ 10023398     libucrt:lcidtoname_downlevel.obj
 0002:000043a0       ??_C@_15CBKOMCOI@?$AAm?$AAn@ 100233a0     libucrt:lcidtoname_downlevel.obj
 0002:000043a8       ??_C@_15CKDMCJAF@?$AAg?$AAl@ 100233a8     libucrt:lcidtoname_downlevel.obj
 0002:000043b0       ??_C@_17CNJFBPG@?$AAk?$AAo?$AAk@ 100233b0     libucrt:lcidtoname_downlevel.obj
 0002:000043b8       ??_C@_17FFBJICPL@?$AAs?$AAy?$AAr@ 100233b8     libucrt:lcidtoname_downlevel.obj
 0002:000043c0       ??_C@_17KPNDCPAF@?$AAd?$AAi?$AAv@ 100233c0     libucrt:lcidtoname_downlevel.obj
 0002:000043c8       ??_C@_1M@OKAHONE@?$AAa?$AAr?$AA?9?$AAS?$AAA@ 100233c8     libucrt:lcidtoname_downlevel.obj
 0002:000043d4       ??_C@_1M@FFFIGIGK@?$AAb?$AAg?$AA?9?$AAB?$AAG@ 100233d4     libucrt:lcidtoname_downlevel.obj
 0002:000043e0       ??_C@_1M@BJNKEDC@?$AAc?$AAa?$AA?9?$AAE?$AAS@ 100233e0     libucrt:lcidtoname_downlevel.obj
 0002:000043ec       ??_C@_1M@IJJHFJHA@?$AAc?$AAs?$AA?9?$AAC?$AAZ@ 100233ec     libucrt:lcidtoname_downlevel.obj
 0002:000043f8       ??_C@_1M@CLPEOBGI@?$AAd?$AAa?$AA?9?$AAD?$AAK@ 100233f8     libucrt:lcidtoname_downlevel.obj
 0002:00004404       ??_C@_1M@MCMADGCB@?$AAd?$AAe?$AA?9?$AAD?$AAE@ 10023404     libucrt:lcidtoname_downlevel.obj
 0002:00004410       ??_C@_1M@OOCKEMAM@?$AAe?$AAl?$AA?9?$AAG?$AAR@ 10023410     libucrt:lcidtoname_downlevel.obj
 0002:0000441c       ??_C@_1M@DDNJFGID@?$AAf?$AAi?$AA?9?$AAF?$AAI@ 1002341c     libucrt:lcidtoname_downlevel.obj
 0002:00004428       ??_C@_1M@GLIPPMAC@?$AAf?$AAr?$AA?9?$AAF?$AAR@ 10023428     libucrt:lcidtoname_downlevel.obj
 0002:00004434       ??_C@_1M@GFMCHPE@?$AAh?$AAe?$AA?9?$AAI?$AAL@ 10023434     libucrt:lcidtoname_downlevel.obj
 0002:00004440       ??_C@_1M@MHLPGNKM@?$AAh?$AAu?$AA?9?$AAH?$AAU@ 10023440     libucrt:lcidtoname_downlevel.obj
 0002:0000444c       ??_C@_1M@LPDDNNPN@?$AAi?$AAs?$AA?9?$AAI?$AAS@ 1002344c     libucrt:lcidtoname_downlevel.obj
 0002:00004458       ??_C@_1M@MADIPODN@?$AAi?$AAt?$AA?9?$AAI?$AAT@ 10023458     libucrt:lcidtoname_downlevel.obj
 0002:00004464       ??_C@_1M@IHBJJGG@?$AAn?$AAl?$AA?9?$AAN?$AAL@ 10023464     libucrt:lcidtoname_downlevel.obj
 0002:00004470       ??_C@_1M@EANAGDL@?$AAn?$AAb?$AA?9?$AAN?$AAO@ 10023470     libucrt:lcidtoname_downlevel.obj
 0002:0000447c       ??_C@_1M@NEIEMEGP@?$AAp?$AAl?$AA?9?$AAP?$AAL@ 1002347c     libucrt:lcidtoname_downlevel.obj
 0002:00004488       ??_C@_1M@BOCFIGEP@?$AAp?$AAt?$AA?9?$AAB?$AAR@ 10023488     libucrt:lcidtoname_downlevel.obj
 0002:00004494       ??_C@_1M@IMPFOPBG@?$AAr?$AAo?$AA?9?$AAR?$AAO@ 10023494     libucrt:lcidtoname_downlevel.obj
 0002:000044a0       ??_C@_1M@IDNNEJMM@?$AAr?$AAu?$AA?9?$AAR?$AAU@ 100234a0     libucrt:lcidtoname_downlevel.obj
 0002:000044ac       ??_C@_1M@LILEEOGM@?$AAh?$AAr?$AA?9?$AAH?$AAR@ 100234ac     libucrt:lcidtoname_downlevel.obj
 0002:000044b8       ??_C@_1M@FKIFEHPB@?$AAs?$AAk?$AA?9?$AAS?$AAK@ 100234b8     libucrt:lcidtoname_downlevel.obj
 0002:000044c4       ??_C@_1M@LJMAMNPJ@?$AAs?$AAq?$AA?9?$AAA?$AAL@ 100234c4     libucrt:lcidtoname_downlevel.obj
 0002:000044d0       ??_C@_1M@GIAKDKJK@?$AAs?$AAv?$AA?9?$AAS?$AAE@ 100234d0     libucrt:lcidtoname_downlevel.obj
 0002:000044dc       ??_C@_1M@MKJKIKCL@?$AAt?$AAh?$AA?9?$AAT?$AAH@ 100234dc     libucrt:lcidtoname_downlevel.obj
 0002:000044e8       ??_C@_1M@MFLCCMPB@?$AAt?$AAr?$AA?9?$AAT?$AAR@ 100234e8     libucrt:lcidtoname_downlevel.obj
 0002:000044f4       ??_C@_1M@OIJHDKJN@?$AAu?$AAr?$AA?9?$AAP?$AAK@ 100234f4     libucrt:lcidtoname_downlevel.obj
 0002:00004500       ??_C@_1M@LHIPCIEK@?$AAi?$AAd?$AA?9?$AAI?$AAD@ 10023500     libucrt:lcidtoname_downlevel.obj
 0002:0000450c       ??_C@_1M@MFMOBGI@?$AAu?$AAk?$AA?9?$AAU?$AAA@ 1002350c     libucrt:lcidtoname_downlevel.obj
 0002:00004518       ??_C@_1M@OBGLJIPL@?$AAb?$AAe?$AA?9?$AAB?$AAY@ 10023518     libucrt:lcidtoname_downlevel.obj
 0002:00004524       ??_C@_1M@BCFAJEAD@?$AAs?$AAl?$AA?9?$AAS?$AAI@ 10023524     libucrt:lcidtoname_downlevel.obj
 0002:00004530       ??_C@_1M@FKFFEDDN@?$AAe?$AAt?$AA?9?$AAE?$AAE@ 10023530     libucrt:lcidtoname_downlevel.obj
 0002:0000453c       ??_C@_1M@KGKKAACI@?$AAl?$AAv?$AA?9?$AAL?$AAV@ 1002353c     libucrt:lcidtoname_downlevel.obj
 0002:00004548       ??_C@_1M@IFGBIJO@?$AAl?$AAt?$AA?9?$AAL?$AAT@ 10023548     libucrt:lcidtoname_downlevel.obj
 0002:00004554       ??_C@_1M@FGEAHEDM@?$AAf?$AAa?$AA?9?$AAI?$AAR@ 10023554     libucrt:lcidtoname_downlevel.obj
 0002:00004560       ??_C@_1M@KBMAIBFN@?$AAv?$AAi?$AA?9?$AAV?$AAN@ 10023560     libucrt:lcidtoname_downlevel.obj
 0002:0000456c       ??_C@_1M@GPCBKDJK@?$AAh?$AAy?$AA?9?$AAA?$AAM@ 1002356c     libucrt:lcidtoname_downlevel.obj
 0002:00004578       ??_C@_1BG@BECMDDJB@?$AAa?$AAz?$AA?9?$AAA?$AAZ?$AA?9?$AAL?$AAa?$AAt?$AAn@ 10023578     libucrt:lcidtoname_downlevel.obj
 0002:00004590       ??_C@_1M@MAOFCAEA@?$AAe?$AAu?$AA?9?$AAE?$AAS@ 10023590     libucrt:lcidtoname_downlevel.obj
 0002:0000459c       ??_C@_1M@IGHABKPI@?$AAm?$AAk?$AA?9?$AAM?$AAK@ 1002359c     libucrt:lcidtoname_downlevel.obj
 0002:000045a8       ??_C@_1M@IAIGNEJG@?$AAt?$AAn?$AA?9?$AAZ?$AAA@ 100235a8     libucrt:lcidtoname_downlevel.obj
 0002:000045b4       ??_C@_1M@IIJCOJFA@?$AAx?$AAh?$AA?9?$AAZ?$AAA@ 100235b4     libucrt:lcidtoname_downlevel.obj
 0002:000045c0       ??_C@_1M@LGPJHNJH@?$AAz?$AAu?$AA?9?$AAZ?$AAA@ 100235c0     libucrt:lcidtoname_downlevel.obj
 0002:000045cc       ??_C@_1M@HOKAOIO@?$AAa?$AAf?$AA?9?$AAZ?$AAA@ 100235cc     libucrt:lcidtoname_downlevel.obj
 0002:000045d8       ??_C@_1M@DPCLHLIE@?$AAk?$AAa?$AA?9?$AAG?$AAE@ 100235d8     libucrt:lcidtoname_downlevel.obj
 0002:000045e4       ??_C@_1M@BLKMHJBI@?$AAf?$AAo?$AA?9?$AAF?$AAO@ 100235e4     libucrt:lcidtoname_downlevel.obj
 0002:000045f0       ??_C@_1M@LGGJAPPB@?$AAh?$AAi?$AA?9?$AAI?$AAN@ 100235f0     libucrt:lcidtoname_downlevel.obj
 0002:000045fc       ??_C@_1M@FIKPIHFE@?$AAm?$AAt?$AA?9?$AAM?$AAT@ 100235fc     libucrt:lcidtoname_downlevel.obj
 0002:00004608       ??_C@_1M@HEGGPBFA@?$AAs?$AAe?$AA?9?$AAN?$AAO@ 10023608     libucrt:lcidtoname_downlevel.obj
 0002:00004614       ??_C@_1M@EIBJEEPA@?$AAm?$AAs?$AA?9?$AAM?$AAY@ 10023614     libucrt:lcidtoname_downlevel.obj
 0002:00004620       ??_C@_1M@FHLBGMPP@?$AAk?$AAk?$AA?9?$AAK?$AAZ@ 10023620     libucrt:lcidtoname_downlevel.obj
 0002:0000462c       ??_C@_1M@NGJJLCGI@?$AAk?$AAy?$AA?9?$AAK?$AAG@ 1002362c     libucrt:lcidtoname_downlevel.obj
 0002:00004638       ??_C@_1M@GIENNBFC@?$AAs?$AAw?$AA?9?$AAK?$AAE@ 10023638     libucrt:lcidtoname_downlevel.obj
 0002:00004644       ??_C@_1BG@NDGMJIMJ@?$AAu?$AAz?$AA?9?$AAU?$AAZ?$AA?9?$AAL?$AAa?$AAt?$AAn@ 10023644     libucrt:lcidtoname_downlevel.obj
 0002:0000465c       ??_C@_1M@IDCCIHBC@?$AAt?$AAt?$AA?9?$AAR?$AAU@ 1002365c     libucrt:lcidtoname_downlevel.obj
 0002:00004668       ??_C@_1M@LOICPMOJ@?$AAb?$AAn?$AA?9?$AAI?$AAN@ 10023668     libucrt:lcidtoname_downlevel.obj
 0002:00004674       ??_C@_1M@KPKKNEAH@?$AAp?$AAa?$AA?9?$AAI?$AAN@ 10023674     libucrt:lcidtoname_downlevel.obj
 0002:00004680       ??_C@_1M@PJGPPBOG@?$AAg?$AAu?$AA?9?$AAI?$AAN@ 10023680     libucrt:lcidtoname_downlevel.obj
 0002:0000468c       ??_C@_1M@KMKMOPHI@?$AAt?$AAa?$AA?9?$AAI?$AAN@ 1002368c     libucrt:lcidtoname_downlevel.obj
 0002:00004698       ??_C@_1M@KFEHEPAC@?$AAt?$AAe?$AA?9?$AAI?$AAN@ 10023698     libucrt:lcidtoname_downlevel.obj
 0002:000046a4       ??_C@_1M@CDCLMGHI@?$AAk?$AAn?$AA?9?$AAI?$AAN@ 100236a4     libucrt:lcidtoname_downlevel.obj
 0002:000046b0       ??_C@_1M@MIODLDKF@?$AAm?$AAl?$AA?9?$AAI?$AAN@ 100236b0     libucrt:lcidtoname_downlevel.obj
 0002:000046bc       ??_C@_1M@PBIEACPO@?$AAm?$AAr?$AA?9?$AAI?$AAN@ 100236bc     libucrt:lcidtoname_downlevel.obj
 0002:000046c8       ??_C@_1M@NIDEAGPH@?$AAs?$AAa?$AA?9?$AAI?$AAN@ 100236c8     libucrt:lcidtoname_downlevel.obj
 0002:000046d4       ??_C@_1M@FHIHCBIO@?$AAm?$AAn?$AA?9?$AAM?$AAN@ 100236d4     libucrt:lcidtoname_downlevel.obj
 0002:000046e0       ??_C@_1M@JAIJPENP@?$AAc?$AAy?$AA?9?$AAG?$AAB@ 100236e0     libucrt:lcidtoname_downlevel.obj
 0002:000046ec       ??_C@_1M@PHGFBEPN@?$AAg?$AAl?$AA?9?$AAE?$AAS@ 100236ec     libucrt:lcidtoname_downlevel.obj
 0002:000046f8       ??_C@_1O@KPIPDNCP@?$AAk?$AAo?$AAk?$AA?9?$AAI?$AAN@ 100236f8     libucrt:lcidtoname_downlevel.obj
 0002:00004708       ??_C@_1O@KNHJLDJA@?$AAs?$AAy?$AAr?$AA?9?$AAS?$AAY@ 10023708     libucrt:lcidtoname_downlevel.obj
 0002:00004718       ??_C@_1O@MKEKBLAH@?$AAd?$AAi?$AAv?$AA?9?$AAM?$AAV@ 10023718     libucrt:lcidtoname_downlevel.obj
 0002:00004728       ??_C@_1O@OHDCKDDF@?$AAq?$AAu?$AAz?$AA?9?$AAB?$AAO@ 10023728     libucrt:lcidtoname_downlevel.obj
 0002:00004738       ??_C@_1M@LEPJNLFD@?$AAn?$AAs?$AA?9?$AAZ?$AAA@ 10023738     libucrt:lcidtoname_downlevel.obj
 0002:00004744       ??_C@_1M@OMLEIIJB@?$AAm?$AAi?$AA?9?$AAN?$AAZ@ 10023744     libucrt:lcidtoname_downlevel.obj
 0002:00004750       ??_C@_1M@PMPEAILG@?$AAa?$AAr?$AA?9?$AAI?$AAQ@ 10023750     libucrt:lcidtoname_downlevel.obj
 0002:0000475c       ??_C@_1M@CNKPNOEE@?$AAd?$AAe?$AA?9?$AAC?$AAH@ 1002375c     libucrt:lcidtoname_downlevel.obj
 0002:00004768       ??_C@_1M@LKMGMLKO@?$AAe?$AAn?$AA?9?$AAG?$AAB@ 10023768     libucrt:lcidtoname_downlevel.obj
 0002:00004774       ??_C@_1M@PGKJFFGL@?$AAe?$AAs?$AA?9?$AAM?$AAX@ 10023774     libucrt:lcidtoname_downlevel.obj
 0002:00004780       ??_C@_1M@DNNANBDC@?$AAf?$AAr?$AA?9?$AAB?$AAE@ 10023780     libucrt:lcidtoname_downlevel.obj
 0002:0000478c       ??_C@_1M@HLGMDFHM@?$AAi?$AAt?$AA?9?$AAC?$AAH@ 1002378c     libucrt:lcidtoname_downlevel.obj
 0002:00004798       ??_C@_1M@CLLBGJH@?$AAn?$AAl?$AA?9?$AAB?$AAE@ 10023798     libucrt:lcidtoname_downlevel.obj
 0002:000047a4       ??_C@_1M@BODBOGLF@?$AAn?$AAn?$AA?9?$AAN?$AAO@ 100237a4     libucrt:lcidtoname_downlevel.obj
 0002:000047b0       ??_C@_1M@HFFAHKAD@?$AAp?$AAt?$AA?9?$AAP?$AAT@ 100237b0     libucrt:lcidtoname_downlevel.obj
 0002:000047bc       ??_C@_1BG@LNOAKHIE@?$AAs?$AAr?$AA?9?$AAS?$AAP?$AA?9?$AAL?$AAa?$AAt?$AAn@ 100237bc     libucrt:lcidtoname_downlevel.obj
 0002:000047d4       ??_C@_1M@HBMHBGAK@?$AAs?$AAv?$AA?9?$AAF?$AAI@ 100237d4     libucrt:lcidtoname_downlevel.obj
 0002:000047e0       ??_C@_1BG@DGCJGJBE@?$AAa?$AAz?$AA?9?$AAA?$AAZ?$AA?9?$AAC?$AAy?$AAr?$AAl@ 100237e0     libucrt:lcidtoname_downlevel.obj
 0002:000047f8       ??_C@_1M@KEJDAAHB@?$AAs?$AAe?$AA?9?$AAS?$AAE@ 100237f8     libucrt:lcidtoname_downlevel.obj
 0002:00004804       ??_C@_1M@HEIBJJAD@?$AAm?$AAs?$AA?9?$AAB?$AAN@ 10023804     libucrt:lcidtoname_downlevel.obj
 0002:00004810       ??_C@_1BG@PBGJMCEM@?$AAu?$AAz?$AA?9?$AAU?$AAZ?$AA?9?$AAC?$AAy?$AAr?$AAl@ 10023810     libucrt:lcidtoname_downlevel.obj
 0002:00004828       ??_C@_1O@LAOBCMDF@?$AAq?$AAu?$AAz?$AA?9?$AAE?$AAC@ 10023828     libucrt:lcidtoname_downlevel.obj
 0002:00004838       ??_C@_1M@POEEMAIO@?$AAa?$AAr?$AA?9?$AAE?$AAG@ 10023838     libucrt:lcidtoname_downlevel.obj
 0002:00004844       ??_C@_1M@EFAKDEDL@?$AAz?$AAh?$AA?9?$AAH?$AAK@ 10023844     libucrt:lcidtoname_downlevel.obj
 0002:00004850       ??_C@_1M@HKKIJHGI@?$AAd?$AAe?$AA?9?$AAA?$AAT@ 10023850     libucrt:lcidtoname_downlevel.obj
 0002:0000485c       ??_C@_1M@KBFBEHJF@?$AAe?$AAn?$AA?9?$AAA?$AAU@ 1002385c     libucrt:lcidtoname_downlevel.obj
 0002:00004868       ??_C@_1M@MNPLFAAH@?$AAe?$AAs?$AA?9?$AAE?$AAS@ 10023868     libucrt:lcidtoname_downlevel.obj
 0002:00004874       ??_C@_1M@HJOOJFMA@?$AAf?$AAr?$AA?9?$AAC?$AAA@ 10023874     libucrt:lcidtoname_downlevel.obj
 0002:00004880       ??_C@_1BG@JPOFPNAB@?$AAs?$AAr?$AA?9?$AAS?$AAP?$AA?9?$AAC?$AAy?$AAr?$AAl@ 10023880     libucrt:lcidtoname_downlevel.obj
 0002:00004898       ??_C@_1M@LNFOCMOB@?$AAs?$AAe?$AA?9?$AAF?$AAI@ 10023898     libucrt:lcidtoname_downlevel.obj
 0002:000048a4       ??_C@_1O@MGJBOAMB@?$AAq?$AAu?$AAz?$AA?9?$AAP?$AAE@ 100238a4     libucrt:lcidtoname_downlevel.obj
 0002:000048b4       ??_C@_1M@GJINLBOK@?$AAa?$AAr?$AA?9?$AAL?$AAY@ 100238b4     libucrt:lcidtoname_downlevel.obj
 0002:000048c0       ??_C@_1M@GGMNHJNL@?$AAz?$AAh?$AA?9?$AAS?$AAG@ 100238c0     libucrt:lcidtoname_downlevel.obj
 0002:000048cc       ??_C@_1M@HOIKODND@?$AAd?$AAe?$AA?9?$AAL?$AAU@ 100238cc     libucrt:lcidtoname_downlevel.obj
 0002:000048d8       ??_C@_1M@DDOCCGFG@?$AAe?$AAn?$AA?9?$AAC?$AAA@ 100238d8     libucrt:lcidtoname_downlevel.obj
 0002:000048e4       ??_C@_1M@BNOEMJLF@?$AAe?$AAs?$AA?9?$AAG?$AAT@ 100238e4     libucrt:lcidtoname_downlevel.obj
 0002:000048f0       ??_C@_1M@EOGNKEK@?$AAf?$AAr?$AA?9?$AAC?$AAH@ 100238f0     libucrt:lcidtoname_downlevel.obj
 0002:000048fc       ??_C@_1M@FLIDJFHL@?$AAh?$AAr?$AA?9?$AAB?$AAA@ 100238fc     libucrt:lcidtoname_downlevel.obj
 0002:00004908       ??_C@_1O@FMCELNAJ@?$AAs?$AAm?$AAj?$AA?9?$AAN?$AAO@ 10023908     libucrt:lcidtoname_downlevel.obj
 0002:00004918       ??_C@_1M@JHGLJMGJ@?$AAa?$AAr?$AA?9?$AAD?$AAZ@ 10023918     libucrt:lcidtoname_downlevel.obj
 0002:00004924       ??_C@_1M@JKKFDCNP@?$AAz?$AAh?$AA?9?$AAM?$AAO@ 10023924     libucrt:lcidtoname_downlevel.obj
 0002:00004930       ??_C@_1M@GEEFALPE@?$AAd?$AAe?$AA?9?$AAL?$AAI@ 10023930     libucrt:lcidtoname_downlevel.obj
 0002:0000493c       ??_C@_1M@IGEOFBG@?$AAe?$AAn?$AA?9?$AAN?$AAZ@ 1002393c     libucrt:lcidtoname_downlevel.obj
 0002:00004948       ??_C@_1M@KDBONEHP@?$AAe?$AAs?$AA?9?$AAC?$AAR@ 10023948     libucrt:lcidtoname_downlevel.obj
 0002:00004954       ??_C@_1M@FHMDOHNN@?$AAf?$AAr?$AA?9?$AAL?$AAU@ 10023954     libucrt:lcidtoname_downlevel.obj
 0002:00004960       ??_C@_1BG@NFKKMAFG@?$AAb?$AAs?$AA?9?$AAB?$AAA?$AA?9?$AAL?$AAa?$AAt?$AAn@ 10023960     libucrt:lcidtoname_downlevel.obj
 0002:00004978       ??_C@_1O@IMNBEMCI@?$AAs?$AAm?$AAj?$AA?9?$AAS?$AAE@ 10023978     libucrt:lcidtoname_downlevel.obj
 0002:00004988       ??_C@_1M@DHHMBNDP@?$AAa?$AAr?$AA?9?$AAM?$AAA@ 10023988     libucrt:lcidtoname_downlevel.obj
 0002:00004994       ??_C@_1M@BNBLJCGH@?$AAe?$AAn?$AA?9?$AAI?$AAE@ 10023994     libucrt:lcidtoname_downlevel.obj
 0002:000049a0       ??_C@_1M@GEPAFMDL@?$AAe?$AAs?$AA?9?$AAP?$AAA@ 100239a0     libucrt:lcidtoname_downlevel.obj
 0002:000049ac       ??_C@_1M@OJONDMDL@?$AAf?$AAr?$AA?9?$AAM?$AAC@ 100239ac     libucrt:lcidtoname_downlevel.obj
 0002:000049b8       ??_C@_1BG@OBCNFJB@?$AAs?$AAr?$AA?9?$AAB?$AAA?$AA?9?$AAL?$AAa?$AAt?$AAn@ 100239b8     libucrt:lcidtoname_downlevel.obj
 0002:000049d0       ??_C@_1O@KEMEEGPO@?$AAs?$AAm?$AAa?$AA?9?$AAN?$AAO@ 100239d0     libucrt:lcidtoname_downlevel.obj
 0002:000049e0       ??_C@_1M@ELMGFODK@?$AAa?$AAr?$AA?9?$AAT?$AAN@ 100239e0     libucrt:lcidtoname_downlevel.obj
 0002:000049ec       ??_C@_1M@BHDLHFAF@?$AAe?$AAn?$AA?9?$AAZ?$AAA@ 100239ec     libucrt:lcidtoname_downlevel.obj
 0002:000049f8       ??_C@_1M@BMGIGLIF@?$AAe?$AAs?$AA?9?$AAD?$AAO@ 100239f8     libucrt:lcidtoname_downlevel.obj
 0002:00004a04       ??_C@_1BG@CMBHIPBE@?$AAs?$AAr?$AA?9?$AAB?$AAA?$AA?9?$AAC?$AAy?$AAr?$AAl@ 10023a04     libucrt:lcidtoname_downlevel.obj
 0002:00004a1c       ??_C@_1O@HEDBLHNP@?$AAs?$AAm?$AAa?$AA?9?$AAS?$AAE@ 10023a1c     libucrt:lcidtoname_downlevel.obj
 0002:00004a2c       ??_C@_1M@DAGCADIM@?$AAa?$AAr?$AA?9?$AAO?$AAM@ 10023a2c     libucrt:lcidtoname_downlevel.obj
 0002:00004a38       ??_C@_1M@FODLMICG@?$AAe?$AAn?$AA?9?$AAJ?$AAM@ 10023a38     libucrt:lcidtoname_downlevel.obj
 0002:00004a44       ??_C@_1M@DNMLCIHB@?$AAe?$AAs?$AA?9?$AAV?$AAE@ 10023a44     libucrt:lcidtoname_downlevel.obj
 0002:00004a50       ??_C@_1O@EOKHMKJK@?$AAs?$AAm?$AAs?$AA?9?$AAF?$AAI@ 10023a50     libucrt:lcidtoname_downlevel.obj
 0002:00004a60       ??_C@_1M@CAFJMKOF@?$AAa?$AAr?$AA?9?$AAY?$AAE@ 10023a60     libucrt:lcidtoname_downlevel.obj
 0002:00004a6c       ??_C@_1M@CBFHIJLI@?$AAe?$AAn?$AA?9?$AAC?$AAB@ 10023a6c     libucrt:lcidtoname_downlevel.obj
 0002:00004a78       ??_C@_1M@BGNFLDN@?$AAe?$AAs?$AA?9?$AAC?$AAO@ 10023a78     libucrt:lcidtoname_downlevel.obj
 0002:00004a84       ??_C@_1O@JMPHMAMC@?$AAs?$AAm?$AAn?$AA?9?$AAF?$AAI@ 10023a84     libucrt:lcidtoname_downlevel.obj
 0002:00004a94       ??_C@_1M@JLANABKE@?$AAa?$AAr?$AA?9?$AAS?$AAY@ 10023a94     libucrt:lcidtoname_downlevel.obj
 0002:00004aa0       ??_C@_1M@HPKGCFGN@?$AAe?$AAn?$AA?9?$AAB?$AAZ@ 10023aa0     libucrt:lcidtoname_downlevel.obj
 0002:00004aac       ??_C@_1M@OLJCMLGM@?$AAe?$AAs?$AA?9?$AAP?$AAE@ 10023aac     libucrt:lcidtoname_downlevel.obj
 0002:00004ab8       ??_C@_1M@MKKGFKLE@?$AAa?$AAr?$AA?9?$AAJ?$AAO@ 10023ab8     libucrt:lcidtoname_downlevel.obj
 0002:00004ac4       ??_C@_1M@EKPGLDNI@?$AAe?$AAn?$AA?9?$AAT?$AAT@ 10023ac4     libucrt:lcidtoname_downlevel.obj
 0002:00004ad0       ??_C@_1M@OONGHFHE@?$AAe?$AAs?$AA?9?$AAA?$AAR@ 10023ad0     libucrt:lcidtoname_downlevel.obj
 0002:00004adc       ??_C@_1M@OOJFGBHE@?$AAa?$AAr?$AA?9?$AAL?$AAB@ 10023adc     libucrt:lcidtoname_downlevel.obj
 0002:00004ae8       ??_C@_1M@GCEJHNEG@?$AAe?$AAn?$AA?9?$AAZ?$AAW@ 10023ae8     libucrt:lcidtoname_downlevel.obj
 0002:00004af4       ??_C@_1M@JNOCAHJI@?$AAe?$AAs?$AA?9?$AAE?$AAC@ 10023af4     libucrt:lcidtoname_downlevel.obj
 0002:00004b00       ??_C@_1M@JEFHPGGB@?$AAa?$AAr?$AA?9?$AAK?$AAW@ 10023b00     libucrt:lcidtoname_downlevel.obj
 0002:00004b0c       ??_C@_1M@MLKIBJOJ@?$AAe?$AAn?$AA?9?$AAP?$AAH@ 10023b0c     libucrt:lcidtoname_downlevel.obj
 0002:00004b18       ??_C@_1M@BDNIPEND@?$AAe?$AAs?$AA?9?$AAC?$AAL@ 10023b18     libucrt:lcidtoname_downlevel.obj
 0002:00004b24       ??_C@_1M@MPNMEKBD@?$AAa?$AAr?$AA?9?$AAA?$AAE@ 10023b24     libucrt:lcidtoname_downlevel.obj
 0002:00004b30       ??_C@_1M@KBJALCPI@?$AAe?$AAs?$AA?9?$AAU?$AAY@ 10023b30     libucrt:lcidtoname_downlevel.obj
 0002:00004b3c       ??_C@_1M@LLCCOAGA@?$AAa?$AAr?$AA?9?$AAB?$AAH@ 10023b3c     libucrt:lcidtoname_downlevel.obj
 0002:00004b48       ??_C@_1M@PBFNCDEL@?$AAe?$AAs?$AA?9?$AAP?$AAY@ 10023b48     libucrt:lcidtoname_downlevel.obj
 0002:00004b54       ??_C@_1M@EDGINPNP@?$AAa?$AAr?$AA?9?$AAQ?$AAA@ 10023b54     libucrt:lcidtoname_downlevel.obj
 0002:00004b60       ??_C@_1M@MKDBIIJI@?$AAe?$AAs?$AA?9?$AAB?$AAO@ 10023b60     libucrt:lcidtoname_downlevel.obj
 0002:00004b6c       ??_C@_1M@CPKKEBLD@?$AAe?$AAs?$AA?9?$AAS?$AAV@ 10023b6c     libucrt:lcidtoname_downlevel.obj
 0002:00004b78       ??_C@_1M@NDBGMMJL@?$AAe?$AAs?$AA?9?$AAH?$AAN@ 10023b78     libucrt:lcidtoname_downlevel.obj
 0002:00004b84       ??_C@_1M@JIJIBHDP@?$AAe?$AAs?$AA?9?$AAN?$AAI@ 10023b84     libucrt:lcidtoname_downlevel.obj
 0002:00004b90       ??_C@_1M@CGFMKEEK@?$AAe?$AAs?$AA?9?$AAP?$AAR@ 10023b90     libucrt:lcidtoname_downlevel.obj
 0002:00004b9c       ??_C@_1O@ICJHKIIK@?$AAz?$AAh?$AA?9?$AAC?$AAH?$AAT@ 10023b9c     libucrt:lcidtoname_downlevel.obj
 0002:00004bac       ??_C@_15CLNEJCE@?$AAs?$AAr@ 10023bac     libucrt:lcidtoname_downlevel.obj
 0002:000052d8       ??_C@_1M@KAHEKEIG@?$AAa?$AAf?$AA?9?$AAz?$AAa@ 100242d8     libucrt:lcidtoname_downlevel.obj
 0002:000052e4       ??_C@_1M@GIECOABL@?$AAa?$AAr?$AA?9?$AAa?$AAe@ 100242e4     libucrt:lcidtoname_downlevel.obj
 0002:000052f0       ??_C@_1M@BMLMEKGI@?$AAa?$AAr?$AA?9?$AAb?$AAh@ 100242f0     libucrt:lcidtoname_downlevel.obj
 0002:000052fc       ??_C@_1M@DAPFDGGB@?$AAa?$AAr?$AA?9?$AAd?$AAz@ 100242fc     libucrt:lcidtoname_downlevel.obj
 0002:00005308       ??_C@_1M@FJNKGKIG@?$AAa?$AAr?$AA?9?$AAe?$AAg@ 10024308     libucrt:lcidtoname_downlevel.obj
 0002:00005314       ??_C@_1M@FLGKKCLO@?$AAa?$AAr?$AA?9?$AAi?$AAq@ 10024314     libucrt:lcidtoname_downlevel.obj
 0002:00005320       ??_C@_1M@GNDIPALM@?$AAa?$AAr?$AA?9?$AAj?$AAo@ 10024320     libucrt:lcidtoname_downlevel.obj
 0002:0000532c       ??_C@_1M@DDMJFMGJ@?$AAa?$AAr?$AA?9?$AAk?$AAw@ 1002432c     libucrt:lcidtoname_downlevel.obj
 0002:00005338       ??_C@_1M@EJALMLHM@?$AAa?$AAr?$AA?9?$AAl?$AAb@ 10024338     libucrt:lcidtoname_downlevel.obj
 0002:00005344       ??_C@_1M@MOBDBLOC@?$AAa?$AAr?$AA?9?$AAl?$AAy@ 10024344     libucrt:lcidtoname_downlevel.obj
 0002:00005350       ??_C@_1M@JAOCLHDH@?$AAa?$AAr?$AA?9?$AAm?$AAa@ 10024350     libucrt:lcidtoname_downlevel.obj
 0002:0000535c       ??_C@_1M@JHPMKJIE@?$AAa?$AAr?$AA?9?$AAo?$AAm@ 1002435c     libucrt:lcidtoname_downlevel.obj
 0002:00005368       ??_C@_1M@OEPGHFNH@?$AAa?$AAr?$AA?9?$AAq?$AAa@ 10024368     libucrt:lcidtoname_downlevel.obj
 0002:00005374       ??_C@_1M@KJDONENM@?$AAa?$AAr?$AA?9?$AAs?$AAa@ 10024374     libucrt:lcidtoname_downlevel.obj
 0002:00005380       ??_C@_1M@DMJDKLKM@?$AAa?$AAr?$AA?9?$AAs?$AAy@ 10024380     libucrt:lcidtoname_downlevel.obj
 0002:0000538c       ??_C@_1M@OMFIPEDC@?$AAa?$AAr?$AA?9?$AAt?$AAn@ 1002438c     libucrt:lcidtoname_downlevel.obj
 0002:00005398       ??_C@_1M@IHMHGAON@?$AAa?$AAr?$AA?9?$AAy?$AAe@ 10024398     libucrt:lcidtoname_downlevel.obj
 0002:000053a4       ??_C@_1BG@KDCPGJGB@?$AAa?$AAz?$AA?9?$AAa?$AAz?$AA?9?$AAc?$AAy?$AAr?$AAl@ 100243a4     libucrt:lcidtoname_downlevel.obj
 0002:000053bc       ??_C@_1BG@IBCKDDOE@?$AAa?$AAz?$AA?9?$AAa?$AAz?$AA?9?$AAl?$AAa?$AAt?$AAn@ 100243bc     libucrt:lcidtoname_downlevel.obj
 0002:000053d4       ??_C@_1M@EGPFDCPD@?$AAb?$AAe?$AA?9?$AAb?$AAy@ 100243d4     libucrt:lcidtoname_downlevel.obj
 0002:000053e0       ??_C@_1M@PCMGMCGC@?$AAb?$AAg?$AA?9?$AAb?$AAg@ 100243e0     libucrt:lcidtoname_downlevel.obj
 0002:000053ec       ??_C@_1M@BJBMFGOB@?$AAb?$AAn?$AA?9?$AAi?$AAn@ 100243ec     libucrt:lcidtoname_downlevel.obj
 0002:000053f8       ??_C@_1BG@EAKMMACD@?$AAb?$AAs?$AA?9?$AAb?$AAa?$AA?9?$AAl?$AAa?$AAt?$AAn@ 100243f8     libucrt:lcidtoname_downlevel.obj
 0002:00005410       ??_C@_1M@KGADAODK@?$AAc?$AAa?$AA?9?$AAe?$AAs@ 10024410     libucrt:lcidtoname_downlevel.obj
 0002:0000541c       ??_C@_1M@COAJPDHI@?$AAc?$AAs?$AA?9?$AAc?$AAz@ 1002441c     libucrt:lcidtoname_downlevel.obj
 0002:00005428       ??_C@_1M@DHBHFONH@?$AAc?$AAy?$AA?9?$AAg?$AAb@ 10024428     libucrt:lcidtoname_downlevel.obj
 0002:00005434       ??_C@_1M@IMGKELGA@?$AAd?$AAa?$AA?9?$AAd?$AAk@ 10024434     libucrt:lcidtoname_downlevel.obj
 0002:00005440       ??_C@_1M@NNDGDNGA@?$AAd?$AAe?$AA?9?$AAa?$AAt@ 10024440     libucrt:lcidtoname_downlevel.obj
 0002:0000544c       ??_C@_1M@IKDBHEEM@?$AAd?$AAe?$AA?9?$AAc?$AAh@ 1002444c     libucrt:lcidtoname_downlevel.obj
 0002:00005458       ??_C@_1M@GFFOJMCJ@?$AAd?$AAe?$AA?9?$AAd?$AAe@ 10024458     libucrt:lcidtoname_downlevel.obj
 0002:00005464       ??_C@_1M@MDNLKBPM@?$AAd?$AAe?$AA?9?$AAl?$AAi@ 10024464     libucrt:lcidtoname_downlevel.obj
 0002:00005470       ??_C@_1M@NJBEEJNL@?$AAd?$AAe?$AA?9?$AAl?$AAu@ 10024470     libucrt:lcidtoname_downlevel.obj
 0002:0000547c       ??_C@_1O@GNNELBAP@?$AAd?$AAi?$AAv?$AA?9?$AAm?$AAv@ 1002447c     libucrt:lcidtoname_downlevel.obj
 0002:0000548c       ??_C@_1M@EJLEOGAE@?$AAe?$AAl?$AA?9?$AAg?$AAr@ 1002448c     libucrt:lcidtoname_downlevel.obj
 0002:00005498       ??_C@_1M@GMPONJN@?$AAe?$AAn?$AA?9?$AAa?$AAu@ 10024498     libucrt:lcidtoname_downlevel.obj
 0002:000054a4       ??_C@_1M@NIDIIPGF@?$AAe?$AAn?$AA?9?$AAb?$AAz@ 100244a4     libucrt:lcidtoname_downlevel.obj
 0002:000054b0       ??_C@_1M@JEHMIMFO@?$AAe?$AAn?$AA?9?$AAc?$AAa@ 100244b0     libucrt:lcidtoname_downlevel.obj
 0002:000054bc       ??_C@_1M@IGMJCDLA@?$AAe?$AAn?$AA?9?$AAc?$AAb@ 100244bc     libucrt:lcidtoname_downlevel.obj
 0002:000054c8       ??_C@_1M@BNFIGBKG@?$AAe?$AAn?$AA?9?$AAg?$AAb@ 100244c8     libucrt:lcidtoname_downlevel.obj
 0002:000054d4       ??_C@_1M@LKIFDIGP@?$AAe?$AAn?$AA?9?$AAi?$AAe@ 100244d4     libucrt:lcidtoname_downlevel.obj
 0002:000054e0       ??_C@_1M@PJKFGCCO@?$AAe?$AAn?$AA?9?$AAj?$AAm@ 100244e0     libucrt:lcidtoname_downlevel.obj
 0002:000054ec       ??_C@_1M@KPPKEPBO@?$AAe?$AAn?$AA?9?$AAn?$AAz@ 100244ec     libucrt:lcidtoname_downlevel.obj
 0002:000054f8       ??_C@_1M@GMDGLDOB@?$AAe?$AAn?$AA?9?$AAp?$AAh@ 100244f8     libucrt:lcidtoname_downlevel.obj
 0002:00005504       ??_C@_1M@ONGIBJNA@?$AAe?$AAn?$AA?9?$AAt?$AAt@ 10024504     libucrt:lcidtoname_downlevel.obj
 0002:00005510       ??_C@_1M@LLODPCMM@?$AAe?$AAn?$AA?9?$AAu?$AAs@ 10024510     libucrt:lcidtoname_downlevel.obj
 0002:0000551c       ??_C@_1M@LAKFNPAN@?$AAe?$AAn?$AA?9?$AAz?$AAa@ 1002451c     libucrt:lcidtoname_downlevel.obj
 0002:00005528       ??_C@_1M@MFNHNHEO@?$AAe?$AAn?$AA?9?$AAz?$AAw@ 10024528     libucrt:lcidtoname_downlevel.obj
 0002:00005534       ??_C@_1M@EJEINPHM@?$AAe?$AAs?$AA?9?$AAa?$AAr@ 10024534     libucrt:lcidtoname_downlevel.obj
 0002:00005540       ??_C@_1M@GNKPCCJA@?$AAe?$AAs?$AA?9?$AAb?$AAo@ 10024540     libucrt:lcidtoname_downlevel.obj
 0002:0000554c       ??_C@_1M@LEEGFONL@?$AAe?$AAs?$AA?9?$AAc?$AAl@ 1002454c     libucrt:lcidtoname_downlevel.obj
 0002:00005558       ??_C@_1M@KGPDPBDF@?$AAe?$AAs?$AA?9?$AAc?$AAo@ 10024558     libucrt:lcidtoname_downlevel.obj
 0002:00005564       ??_C@_1M@EIAHOHH@?$AAe?$AAs?$AA?9?$AAc?$AAr@ 10024564     libucrt:lcidtoname_downlevel.obj
 0002:00005570       ??_C@_1M@LLPGMBIN@?$AAe?$AAs?$AA?9?$AAd?$AAo@ 10024570     libucrt:lcidtoname_downlevel.obj
 0002:0000557c       ??_C@_1M@DKHMKNJA@?$AAe?$AAs?$AA?9?$AAe?$AAc@ 1002457c     libucrt:lcidtoname_downlevel.obj
 0002:00005588       ??_C@_1M@GKGFPKAP@?$AAe?$AAs?$AA?9?$AAe?$AAs@ 10024588     libucrt:lcidtoname_downlevel.obj
 0002:00005594       ??_C@_1M@LKHKGDLN@?$AAe?$AAs?$AA?9?$AAg?$AAt@ 10024594     libucrt:lcidtoname_downlevel.obj
 0002:000055a0       ??_C@_1M@HEIIGGJD@?$AAe?$AAs?$AA?9?$AAh?$AAn@ 100245a0     libucrt:lcidtoname_downlevel.obj
 0002:000055ac       ??_C@_1M@FBDHPPGD@?$AAe?$AAs?$AA?9?$AAm?$AAx@ 100245ac     libucrt:lcidtoname_downlevel.obj
 0002:000055b8       ??_C@_1M@DPAGLNDH@?$AAe?$AAs?$AA?9?$AAn?$AAi@ 100245b8     libucrt:lcidtoname_downlevel.obj
 0002:000055c4       ??_C@_1M@MDGOPGDD@?$AAe?$AAs?$AA?9?$AAp?$AAa@ 100245c4     libucrt:lcidtoname_downlevel.obj
 0002:000055d0       ??_C@_1M@EMAMGBGE@?$AAe?$AAs?$AA?9?$AAp?$AAe@ 100245d0     libucrt:lcidtoname_downlevel.obj
 0002:000055dc       ??_C@_1M@IBMCAOEC@?$AAe?$AAs?$AA?9?$AAp?$AAr@ 100245dc     libucrt:lcidtoname_downlevel.obj
 0002:000055e8       ??_C@_1M@FGMDIJED@?$AAe?$AAs?$AA?9?$AAp?$AAy@ 100245e8     libucrt:lcidtoname_downlevel.obj
 0002:000055f4       ??_C@_1M@IIDEOLLL@?$AAe?$AAs?$AA?9?$AAs?$AAv@ 100245f4     libucrt:lcidtoname_downlevel.obj
 0002:00005600       ??_C@_1M@GAOBIPA@?$AAe?$AAs?$AA?9?$AAu?$AAy@ 10024600     libucrt:lcidtoname_downlevel.obj
 0002:0000560c       ??_C@_1M@JKFFICHJ@?$AAe?$AAs?$AA?9?$AAv?$AAe@ 1002460c     libucrt:lcidtoname_downlevel.obj
 0002:00005618       ??_C@_1M@PNMLOJDF@?$AAe?$AAt?$AA?9?$AAe?$AAe@ 10024618     libucrt:lcidtoname_downlevel.obj
 0002:00005624       ??_C@_1M@GHHLIKEI@?$AAe?$AAu?$AA?9?$AAe?$AAs@ 10024624     libucrt:lcidtoname_downlevel.obj
 0002:00005630       ??_C@_1M@PBNONODE@?$AAf?$AAa?$AA?9?$AAi?$AAr@ 10024630     libucrt:lcidtoname_downlevel.obj
 0002:0000563c       ??_C@_1M@JEEHPMIL@?$AAf?$AAi?$AA?9?$AAf?$AAi@ 1002463c     libucrt:lcidtoname_downlevel.obj
 0002:00005648       ??_C@_1M@LMDCNDBA@?$AAf?$AAo?$AA?9?$AAf?$AAo@ 10024648     libucrt:lcidtoname_downlevel.obj
 0002:00005654       ??_C@_1M@JKEOHLDK@?$AAf?$AAr?$AA?9?$AAb?$AAe@ 10024654     libucrt:lcidtoname_downlevel.obj
 0002:00005660       ??_C@_1M@NOHADPMI@?$AAf?$AAr?$AA?9?$AAc?$AAa@ 10024660     libucrt:lcidtoname_downlevel.obj
 0002:0000566c       ??_C@_1M@KDHIHAEC@?$AAf?$AAr?$AA?9?$AAc?$AAh@ 1002466c     libucrt:lcidtoname_downlevel.obj
 0002:00005678       ??_C@_1M@MMBBFGAK@?$AAf?$AAr?$AA?9?$AAf?$AAr@ 10024678     libucrt:lcidtoname_downlevel.obj
 0002:00005684       ??_C@_1M@PAFNENNF@?$AAf?$AAr?$AA?9?$AAl?$AAu@ 10024684     libucrt:lcidtoname_downlevel.obj
 0002:00005690       ??_C@_1M@EOHDJGDD@?$AAf?$AAr?$AA?9?$AAm?$AAc@ 10024690     libucrt:lcidtoname_downlevel.obj
 0002:0000569c       ??_C@_1M@FAPLLOPF@?$AAg?$AAl?$AA?9?$AAe?$AAs@ 1002469c     libucrt:lcidtoname_downlevel.obj
 0002:000056a8       ??_C@_1M@FOPBFLOO@?$AAg?$AAu?$AA?9?$AAi?$AAn@ 100246a8     libucrt:lcidtoname_downlevel.obj
 0002:000056b4       ??_C@_1M@KBMCINPM@?$AAh?$AAe?$AA?9?$AAi?$AAl@ 100246b4     libucrt:lcidtoname_downlevel.obj
 0002:000056c0       ??_C@_1M@BBPHKFPJ@?$AAh?$AAi?$AA?9?$AAi?$AAn@ 100246c0     libucrt:lcidtoname_downlevel.obj
 0002:000056cc       ??_C@_1M@PMBNDPHD@?$AAh?$AAr?$AA?9?$AAb?$AAa@ 100246cc     libucrt:lcidtoname_downlevel.obj
 0002:000056d8       ??_C@_1M@BPCKOEGE@?$AAh?$AAr?$AA?9?$AAh?$AAr@ 100246d8     libucrt:lcidtoname_downlevel.obj
 0002:000056e4       ??_C@_1M@GACBMHKE@?$AAh?$AAu?$AA?9?$AAh?$AAu@ 100246e4     libucrt:lcidtoname_downlevel.obj
 0002:000056f0       ??_C@_1M@MILPAJJC@?$AAh?$AAy?$AA?9?$AAa?$AAm@ 100246f0     libucrt:lcidtoname_downlevel.obj
 0002:000056fc       ??_C@_1M@BABBICEC@?$AAi?$AAd?$AA?9?$AAi?$AAd@ 100246fc     libucrt:lcidtoname_downlevel.obj
 0002:00005708       ??_C@_1M@BIKNHHPF@?$AAi?$AAs?$AA?9?$AAi?$AAs@ 10024708     libucrt:lcidtoname_downlevel.obj
 0002:00005714       ??_C@_1M@NMPCJPHE@?$AAi?$AAt?$AA?9?$AAc?$AAh@ 10024714     libucrt:lcidtoname_downlevel.obj
 0002:00005720       ??_C@_1M@GHKGFEDF@?$AAi?$AAt?$AA?9?$AAi?$AAt@ 10024720     libucrt:lcidtoname_downlevel.obj
 0002:0000572c       ??_C@_1M@NIEJCJJA@?$AAj?$AAa?$AA?9?$AAj?$AAp@ 1002472c     libucrt:lcidtoname_downlevel.obj
 0002:00005738       ??_C@_1M@JILFNBIM@?$AAk?$AAa?$AA?9?$AAg?$AAe@ 10024738     libucrt:lcidtoname_downlevel.obj
 0002:00005744       ??_C@_1M@PACPMGPH@?$AAk?$AAk?$AA?9?$AAk?$AAz@ 10024744     libucrt:lcidtoname_downlevel.obj
 0002:00005750       ??_C@_1M@IELFGMHA@?$AAk?$AAn?$AA?9?$AAi?$AAn@ 10024750     libucrt:lcidtoname_downlevel.obj
 0002:0000575c       ??_C@_1O@IBBJHCH@?$AAk?$AAo?$AAk?$AA?9?$AAi?$AAn@ 1002475c     libucrt:lcidtoname_downlevel.obj
 0002:0000576c       ??_C@_1M@DMHAEOGC@?$AAk?$AAo?$AA?9?$AAk?$AAr@ 1002476c     libucrt:lcidtoname_downlevel.obj
 0002:00005778       ??_C@_1M@HBAHBIGA@?$AAk?$AAy?$AA?9?$AAk?$AAg@ 10024778     libucrt:lcidtoname_downlevel.obj
 0002:00005784       ??_C@_1M@KPMILCJG@?$AAl?$AAt?$AA?9?$AAl?$AAt@ 10024784     libucrt:lcidtoname_downlevel.obj
 0002:00005790       ??_C@_1M@BDEKKCA@?$AAl?$AAv?$AA?9?$AAl?$AAv@ 10024790     libucrt:lcidtoname_downlevel.obj
 0002:0000579c       ??_C@_1M@ELCKCCJJ@?$AAm?$AAi?$AA?9?$AAn?$AAz@ 1002479c     libucrt:lcidtoname_downlevel.obj
 0002:000057a8       ??_C@_1M@CBOOLAPA@?$AAm?$AAk?$AA?9?$AAm?$AAk@ 100247a8     libucrt:lcidtoname_downlevel.obj
 0002:000057b4       ??_C@_1M@GPHNBJKN@?$AAm?$AAl?$AA?9?$AAi?$AAn@ 100247b4     libucrt:lcidtoname_downlevel.obj
 0002:000057c0       ??_C@_1M@PABJILIG@?$AAm?$AAn?$AA?9?$AAm?$AAn@ 100247c0     libucrt:lcidtoname_downlevel.obj
 0002:000057cc       ??_C@_1M@FGBKKIPG@?$AAm?$AAr?$AA?9?$AAi?$AAn@ 100247cc     libucrt:lcidtoname_downlevel.obj
 0002:000057d8       ??_C@_1M@NDBPDDAL@?$AAm?$AAs?$AA?9?$AAb?$AAn@ 100247d8     libucrt:lcidtoname_downlevel.obj
 0002:000057e4       ??_C@_1M@OPIHOOPI@?$AAm?$AAs?$AA?9?$AAm?$AAy@ 100247e4     libucrt:lcidtoname_downlevel.obj
 0002:000057f0       ??_C@_1M@PPDBCNFM@?$AAm?$AAt?$AA?9?$AAm?$AAt@ 100247f0     libucrt:lcidtoname_downlevel.obj
 0002:000057fc       ??_C@_1M@KDJDKMDD@?$AAn?$AAb?$AA?9?$AAn?$AAo@ 100247fc     libucrt:lcidtoname_downlevel.obj
 0002:00005808       ??_C@_1M@KFCFLMJP@?$AAn?$AAl?$AA?9?$AAb?$AAe@ 10024808     libucrt:lcidtoname_downlevel.obj
 0002:00005814       ??_C@_1M@KPOPDDGO@?$AAn?$AAl?$AA?9?$AAn?$AAl@ 10024814     libucrt:lcidtoname_downlevel.obj
 0002:00005820       ??_C@_1M@LJKPEMLN@?$AAn?$AAn?$AA?9?$AAn?$AAo@ 10024820     libucrt:lcidtoname_downlevel.obj
 0002:0000582c       ??_C@_1M@BDGHHBFL@?$AAn?$AAs?$AA?9?$AAz?$AAa@ 1002482c     libucrt:lcidtoname_downlevel.obj
 0002:00005838       ??_C@_1M@IDEHOAP@?$AAp?$AAa?$AA?9?$AAi?$AAn@ 10024838     libucrt:lcidtoname_downlevel.obj
 0002:00005844       ??_C@_1M@HDBKGOGH@?$AAp?$AAl?$AA?9?$AAp?$AAl@ 10024844     libucrt:lcidtoname_downlevel.obj
 0002:00005850       ??_C@_1M@LJLLCMEH@?$AAp?$AAt?$AA?9?$AAb?$AAr@ 10024850     libucrt:lcidtoname_downlevel.obj
 0002:0000585c       ??_C@_1M@NCMONAAL@?$AAp?$AAt?$AA?9?$AAp?$AAt@ 1002485c     libucrt:lcidtoname_downlevel.obj
 0002:00005868       ??_C@_1O@EAKMAJDN@?$AAq?$AAu?$AAz?$AA?9?$AAb?$AAo@ 10024868     libucrt:lcidtoname_downlevel.obj
 0002:00005878       ??_C@_1O@BHHPIGDN@?$AAq?$AAu?$AAz?$AA?9?$AAe?$AAc@ 10024878     libucrt:lcidtoname_downlevel.obj
 0002:00005888       ??_C@_1O@GBAPEKMJ@?$AAq?$AAu?$AAz?$AA?9?$AAp?$AAe@ 10024888     libucrt:lcidtoname_downlevel.obj
 0002:00005898       ??_C@_1M@CLGLEFBO@?$AAr?$AAo?$AA?9?$AAr?$AAo@ 10024898     libucrt:lcidtoname_downlevel.obj
 0002:000058a4       ??_C@_1M@CEEDODME@?$AAr?$AAu?$AA?9?$AAr?$AAu@ 100248a4     libucrt:lcidtoname_downlevel.obj
 0002:000058b0       ??_C@_1M@HPKKKMPP@?$AAs?$AAa?$AA?9?$AAi?$AAn@ 100248b0     libucrt:lcidtoname_downlevel.obj
 0002:000058bc       ??_C@_1M@BKMAIGOJ@?$AAs?$AAe?$AA?9?$AAf?$AAi@ 100248bc     libucrt:lcidtoname_downlevel.obj
 0002:000058c8       ??_C@_1M@NDPIFLFI@?$AAs?$AAe?$AA?9?$AAn?$AAo@ 100248c8     libucrt:lcidtoname_downlevel.obj
 0002:000058d4       ??_C@_1M@DANKKHJ@?$AAs?$AAe?$AA?9?$AAs?$AAe@ 100248d4     libucrt:lcidtoname_downlevel.obj
 0002:000058e0       ??_C@_1M@PNBLONPJ@?$AAs?$AAk?$AA?9?$AAs?$AAk@ 100248e0     libucrt:lcidtoname_downlevel.obj
 0002:000058ec       ??_C@_1M@LFMODOAL@?$AAs?$AAl?$AA?9?$AAs?$AAi@ 100248ec     libucrt:lcidtoname_downlevel.obj
 0002:000058f8       ??_C@_1O@DFKOMPG@?$AAs?$AAm?$AAa?$AA?9?$AAn?$AAo@ 100248f8     libucrt:lcidtoname_downlevel.obj
 0002:00005908       ??_C@_1O@NDKPBNNH@?$AAs?$AAm?$AAa?$AA?9?$AAs?$AAe@ 10024908     libucrt:lcidtoname_downlevel.obj
 0002:00005918       ??_C@_1O@PLLKBHAB@?$AAs?$AAm?$AAj?$AA?9?$AAn?$AAo@ 10024918     libucrt:lcidtoname_downlevel.obj
 0002:00005928       ??_C@_1O@CLEPOGCA@?$AAs?$AAm?$AAj?$AA?9?$AAs?$AAe@ 10024928     libucrt:lcidtoname_downlevel.obj
 0002:00005938       ??_C@_1O@DLGJGKMK@?$AAs?$AAm?$AAn?$AA?9?$AAf?$AAi@ 10024938     libucrt:lcidtoname_downlevel.obj
 0002:00005948       ??_C@_1O@OJDJGAJC@?$AAs?$AAm?$AAs?$AA?9?$AAf?$AAi@ 10024948     libucrt:lcidtoname_downlevel.obj
 0002:00005958       ??_C@_1M@BOFOGHPB@?$AAs?$AAq?$AA?9?$AAa?$AAl@ 10024958     libucrt:lcidtoname_downlevel.obj
 0002:00005964       ??_C@_1BG@LJBBIPGB@?$AAs?$AAr?$AA?9?$AAb?$AAa?$AA?9?$AAc?$AAy?$AAr?$AAl@ 10024964     libucrt:lcidtoname_downlevel.obj
 0002:0000597c       ??_C@_1BG@JLBENFOE@?$AAs?$AAr?$AA?9?$AAb?$AAa?$AA?9?$AAl?$AAa?$AAt?$AAn@ 1002497c     libucrt:lcidtoname_downlevel.obj
 0002:00005994       ??_C@_1BG@KODPNHE@?$AAs?$AAr?$AA?9?$AAs?$AAp?$AA?9?$AAc?$AAy?$AAr?$AAl@ 10024994     libucrt:lcidtoname_downlevel.obj
 0002:000059ac       ??_C@_1BG@CIOGKHPB@?$AAs?$AAr?$AA?9?$AAs?$AAp?$AA?9?$AAl?$AAa?$AAt?$AAn@ 100249ac     libucrt:lcidtoname_downlevel.obj
 0002:000059c4       ??_C@_1M@NGFJLMAC@?$AAs?$AAv?$AA?9?$AAf?$AAi@ 100249c4     libucrt:lcidtoname_downlevel.obj
 0002:000059d0       ??_C@_1M@MPJEJAJC@?$AAs?$AAv?$AA?9?$AAs?$AAe@ 100249d0     libucrt:lcidtoname_downlevel.obj
 0002:000059dc       ??_C@_1M@MPNDHLFK@?$AAs?$AAw?$AA?9?$AAk?$AAe@ 100249dc     libucrt:lcidtoname_downlevel.obj
 0002:000059e8       ??_C@_1O@KOHBJJI@?$AAs?$AAy?$AAr?$AA?9?$AAs?$AAy@ 100249e8     libucrt:lcidtoname_downlevel.obj
 0002:000059f8       ??_C@_1M@LDCEFHA@?$AAt?$AAa?$AA?9?$AAi?$AAn@ 100249f8     libucrt:lcidtoname_downlevel.obj
 0002:00005a04       ??_C@_1M@CNJOFAK@?$AAt?$AAe?$AA?9?$AAi?$AAn@ 10024a04     libucrt:lcidtoname_downlevel.obj
 0002:00005a10       ??_C@_1M@GNAECACD@?$AAt?$AAh?$AA?9?$AAt?$AAh@ 10024a10     libucrt:lcidtoname_downlevel.obj
 0002:00005a1c       ??_C@_1M@CHBIHOJO@?$AAt?$AAn?$AA?9?$AAz?$AAa@ 10024a1c     libucrt:lcidtoname_downlevel.obj
 0002:00005a28       ??_C@_1M@GCCMIGPJ@?$AAt?$AAr?$AA?9?$AAt?$AAr@ 10024a28     libucrt:lcidtoname_downlevel.obj
 0002:00005a34       ??_C@_1M@CELMCNBK@?$AAt?$AAt?$AA?9?$AAr?$AAu@ 10024a34     libucrt:lcidtoname_downlevel.obj
 0002:00005a40       ??_C@_1M@KLMCELGA@?$AAu?$AAk?$AA?9?$AAu?$AAa@ 10024a40     libucrt:lcidtoname_downlevel.obj
 0002:00005a4c       ??_C@_1M@EPAJJAJF@?$AAu?$AAr?$AA?9?$AAp?$AAk@ 10024a4c     libucrt:lcidtoname_downlevel.obj
 0002:00005a58       ??_C@_1BG@GEGPMCDJ@?$AAu?$AAz?$AA?9?$AAu?$AAz?$AA?9?$AAc?$AAy?$AAr?$AAl@ 10024a58     libucrt:lcidtoname_downlevel.obj
 0002:00005a70       ??_C@_1BG@EGGKJILM@?$AAu?$AAz?$AA?9?$AAu?$AAz?$AA?9?$AAl?$AAa?$AAt?$AAn@ 10024a70     libucrt:lcidtoname_downlevel.obj
 0002:00005a88       ??_C@_1M@GFOCLFF@?$AAv?$AAi?$AA?9?$AAv?$AAn@ 10024a88     libucrt:lcidtoname_downlevel.obj
 0002:00005a94       ??_C@_1M@CPAMEDFI@?$AAx?$AAh?$AA?9?$AAz?$AAa@ 10024a94     libucrt:lcidtoname_downlevel.obj
 0002:00005aa0       ??_C@_1O@EBKIFIGN@?$AAz?$AAh?$AA?9?$AAc?$AAh?$AAs@ 10024aa0     libucrt:lcidtoname_downlevel.obj
 0002:00005ab0       ??_C@_1O@NMHPGANE@?$AAz?$AAh?$AA?9?$AAc?$AAh?$AAt@ 10024ab0     libucrt:lcidtoname_downlevel.obj
 0002:00005ac0       ??_C@_1M@LPINJOMC@?$AAz?$AAh?$AA?9?$AAc?$AAn@ 10024ac0     libucrt:lcidtoname_downlevel.obj
 0002:00005acc       ??_C@_1M@OCJEJODD@?$AAz?$AAh?$AA?9?$AAh?$AAk@ 10024acc     libucrt:lcidtoname_downlevel.obj
 0002:00005ad8       ??_C@_1M@DNDLJINH@?$AAz?$AAh?$AA?9?$AAm?$AAo@ 10024ad8     libucrt:lcidtoname_downlevel.obj
 0002:00005ae4       ??_C@_1M@MBFDNDND@?$AAz?$AAh?$AA?9?$AAs?$AAg@ 10024ae4     libucrt:lcidtoname_downlevel.obj
 0002:00005af0       ??_C@_1M@IMEPLEPE@?$AAz?$AAh?$AA?9?$AAt?$AAw@ 10024af0     libucrt:lcidtoname_downlevel.obj
 0002:00005afc       ??_C@_1M@BBGHNHJP@?$AAz?$AAu?$AA?9?$AAz?$AAa@ 10024afc     libucrt:lcidtoname_downlevel.obj
 0002:00005b08       ?large_power_data@?1??multiply_by_power_of_ten@__crt_strtox@@YA_NAAUbig_integer@2@I@Z@4QBIB 10024b08     libucrt:cfout.obj
 0002:000064a8       ?small_powers_of_ten@?1??multiply_by_power_of_ten@__crt_strtox@@YA_NAAUbig_integer@2@I@Z@4QBIB 100254a8     libucrt:cfout.obj
 0002:000064cc       ??_C@_01GBGANLPD@0@        100254cc     libucrt:cfout.obj
 0002:000064d0       ??_C@_05DNEBIAHO@1?$CDINF@ 100254d0     libucrt:cfout.obj
 0002:000064d8       ??_C@_06IMKFLFPG@1?$CDQNAN@ 100254d8     libucrt:cfout.obj
 0002:000064e0       ??_C@_06PGGFOGJG@1?$CDSNAN@ 100254e0     libucrt:cfout.obj
 0002:000064e8       ??_C@_05PHHOCPM@1?$CDIND@  100254e8     libucrt:cfout.obj
 0002:00006650       __infinity                 10025650     libucrt:87tran.obj
 0002:0000665a       __minfinity                1002565a     libucrt:87tran.obj
 0002:00006664       __logemax                  10025664     libucrt:87tran.obj
 0002:0000668a       __OP_EXPjmptab             1002568a     libucrt:87tran.obj
 0002:000066b0       __indefinite               100256b0     libucrt:87disp.obj
 0002:000066ba       __piby2                    100256ba     libucrt:87disp.obj
 0002:000066c4       __piby4                    100256c4     libucrt:87disp.obj
 0002:000066f8       __DEFAULT_CW_in_mem        100256f8     libucrt:common.obj
 0002:000066fa       __pi_by_2_to_61            100256fa     libucrt:common.obj
 0002:00006734       ??_C@_03MGHMBJCF@log@      10025734     libucrt:libm_error.obj
 0002:00006738       ??_C@_05HGHHAHAP@log10@    10025738     libucrt:libm_error.obj
 0002:00006740       ??_C@_03KHJOGHMM@exp@      10025740     libucrt:libm_error.obj
 0002:00006744       ??_C@_03JGHBODFD@pow@      10025744     libucrt:libm_error.obj
 0002:00006748       ??_C@_04FIHNOPOL@asin@     10025748     libucrt:libm_error.obj
 0002:00006750       ??_C@_04PDIFKINK@acos@     10025750     libucrt:libm_error.obj
 0002:00006758       ??_C@_04EIAKFFMI@sqrt@     10025758     libucrt:libm_error.obj
 0002:00006760       __real@3ff0000000000000    10025760     libucrt:libm_error.obj
 0002:00006768       ??_C@_1BA@BALFACEM@?$AAC?$AAO?$AAN?$AAO?$AAU?$AAT?$AA$@ 10025768     libucrt:initcon.obj
 0002:00006790       ___acrt_log10_table_t      10025790     libucrt:log10_tables.obj
 0002:00006ba0       ___acrt_log10_table_cb     10025ba0     libucrt:log10_tables.obj
 0002:00006fb0       __real@3fe0000000000000    10025fb0     libucrt:powhlp.obj
 0002:000070a0       ??_C@_04COOMCNPB@sinh@     100260a0     libucrt:fpexcept.obj
 0002:000070a8       ??_C@_04HPJJNFIM@cosh@     100260a8     libucrt:fpexcept.obj
 0002:000070b0       ??_C@_04FJHINJAO@tanh@     100260b0     libucrt:fpexcept.obj
 0002:000070b8       ??_C@_04MLLJIGOK@atan@     100260b8     libucrt:fpexcept.obj
 0002:000070c0       ??_C@_05KNGEOGJB@atan2@    100260c0     libucrt:fpexcept.obj
 0002:000070c8       ??_C@_03BLEJJJBH@sin@      100260c8     libucrt:fpexcept.obj
 0002:000070cc       ??_C@_03LALBNOCG@cos@      100260cc     libucrt:fpexcept.obj
 0002:000070d0       ??_C@_03IIINPABG@tan@      100260d0     libucrt:fpexcept.obj
 0002:000070d4       ??_C@_04GFPJNGEK@ceil@     100260d4     libucrt:fpexcept.obj
 0002:000070dc       ??_C@_05PBJFFIGL@floor@    100260dc     libucrt:fpexcept.obj
 0002:000070e4       ??_C@_04ODHECPBC@fabs@     100260e4     libucrt:fpexcept.obj
 0002:000070ec       ??_C@_04EHEDPDJG@modf@     100260ec     libucrt:fpexcept.obj
 0002:000070f4       ??_C@_05CEJMAHNP@ldexp@    100260f4     libucrt:fpexcept.obj
 0002:000070fc       ??_C@_05KBKMEMPO@_cabs@    100260fc     libucrt:fpexcept.obj
 0002:00007104       ??_C@_06MEIMCGCF@_hypot@   10026104     libucrt:fpexcept.obj
 0002:0000710c       ??_C@_04KEPJIHGP@fmod@     1002610c     libucrt:fpexcept.obj
 0002:00007114       ??_C@_05GKKHEGJL@frexp@    10026114     libucrt:fpexcept.obj
 0002:0000711c       ??_C@_03MJLDFKDL@_y0@      1002611c     libucrt:fpexcept.obj
 0002:00007120       ??_C@_03NAKIGLHK@_y1@      10026120     libucrt:fpexcept.obj
 0002:00007124       ??_C@_03ONILCKOB@_yn@      10026124     libucrt:fpexcept.obj
 0002:00007128       ??_C@_05JGDBENOH@_logb@    10026128     libucrt:fpexcept.obj
 0002:00007130       ??_C@_0L@KDOEJCKC@_nextafter@ 10026130     libucrt:fpexcept.obj
 0002:00007140       __d_inf                    10026140     libucrt:util.obj
 0002:00007148       __d_max                    10026148     libucrt:util.obj
 0002:00007150       __d_mzero                  10026150     libucrt:util.obj
 0002:000071c8       __load_config_used         100261c8     LIBCMT:loadcfg.obj
 0002:0000726c       __tls_used                 1002626c     LIBCMT:tlssup.obj
 0002:00007284       ??_R4exception@std@@6B@    10026284     LIBCMT:throw_bad_alloc.obj
 0002:00007298       ??_R3exception@std@@8      10026298     LIBCMT:throw_bad_alloc.obj
 0002:000072a8       ??_R2exception@std@@8      100262a8     LIBCMT:throw_bad_alloc.obj
 0002:000072b0       ??_R1A@?0A@EA@exception@std@@8 100262b0     LIBCMT:throw_bad_alloc.obj
 0002:000072cc       ??_R4bad_alloc@std@@6B@    100262cc     LIBCMT:throw_bad_alloc.obj
 0002:000072e0       ??_R3bad_alloc@std@@8      100262e0     LIBCMT:throw_bad_alloc.obj
 0002:000072f0       ??_R2bad_alloc@std@@8      100262f0     LIBCMT:throw_bad_alloc.obj
 0002:000072fc       ??_R1A@?0A@EA@bad_alloc@std@@8 100262fc     LIBCMT:throw_bad_alloc.obj
 0002:00007318       ??_R4bad_array_new_length@std@@6B@ 10026318     LIBCMT:throw_bad_alloc.obj
 0002:0000732c       ??_R3bad_array_new_length@std@@8 1002632c     LIBCMT:throw_bad_alloc.obj
 0002:0000733c       ??_R2bad_array_new_length@std@@8 1002633c     LIBCMT:throw_bad_alloc.obj
 0002:0000734c       ??_R1A@?0A@EA@bad_array_new_length@std@@8 1002634c     LIBCMT:throw_bad_alloc.obj
 0002:00007368       ??_R4type_info@@6B@        10026368     LIBCMT:std_type_info_static.obj
 0002:0000737c       ??_R3type_info@@8          1002637c     LIBCMT:std_type_info_static.obj
 0002:0000738c       ??_R2type_info@@8          1002638c     LIBCMT:std_type_info_static.obj
 0002:00007394       ??_R1A@?0A@EA@type_info@@8 10026394     LIBCMT:std_type_info_static.obj
 0002:000073b0       ??_R4bad_exception@std@@6B@ 100263b0     libvcruntime:frame.obj
 0002:000073c4       ??_R3bad_exception@std@@8  100263c4     libvcruntime:frame.obj
 0002:000073d4       ??_R2bad_exception@std@@8  100263d4     libvcruntime:frame.obj
 0002:000073e0       ??_R1A@?0A@EA@bad_exception@std@@8 100263e0     libvcruntime:frame.obj
 0002:00007400       ___safe_se_handler_table   10026400     <linker-defined>
 0002:000077f8       ___rtc_iaa                 100267f8     LIBCMT:initsect.obj
 0002:000077fc       ___rtc_izz                 100267fc     LIBCMT:initsect.obj
 0002:00007800       ___rtc_taa                 10026800     LIBCMT:initsect.obj
 0002:00007804       ___rtc_tzz                 10026804     LIBCMT:initsect.obj
 0002:00007808       __tls_start                10026808     LIBCMT:tlssup.obj
 0002:0000780c       __Init_thread_epoch        1002680c     LIBCMT:thread_safe_statics.obj
 0002:00007810       __tls_end                  10026810     LIBCMT:tlssup.obj
 0002:00007914       __TI2?AVbad_alloc@std@@    10026914     LIBCMT:throw_bad_alloc.obj
 0002:00007924       __CTA2?AVbad_alloc@std@@   10026924     LIBCMT:throw_bad_alloc.obj
 0002:00007930       __CT??_R0?AVbad_alloc@std@@@8??0bad_alloc@std@@QAE@ABV01@@Z12 10026930     LIBCMT:throw_bad_alloc.obj
 0002:0000794c       __CT??_R0?AVexception@std@@@8??0exception@std@@QAE@ABV01@@Z12 1002694c     LIBCMT:throw_bad_alloc.obj
 0002:00007968       __TI3?AVbad_array_new_length@std@@ 10026968     LIBCMT:throw_bad_alloc.obj
 0002:00007978       __CTA3?AVbad_array_new_length@std@@ 10026978     LIBCMT:throw_bad_alloc.obj
 0002:00007988       __CT??_R0?AVbad_array_new_length@std@@@8??0bad_array_new_length@std@@QAE@ABV01@@Z12 10026988     LIBCMT:throw_bad_alloc.obj
 0002:00007aac       __TI2?AVbad_exception@std@@ 10026aac     libvcruntime:frame.obj
 0002:00007abc       __CTA2?AVbad_exception@std@@ 10026abc     libvcruntime:frame.obj
 0002:00007ac8       __CT??_R0?AVbad_exception@std@@@8??0bad_exception@std@@QAE@ABV01@@Z12 10026ac8     libvcruntime:frame.obj
 0002:00007e24       ___pobjMapEntryFirst       10026e24     OposVariant.obj
 0002:00007e28       ___pobjMapEntryLast        10026e28     OposVariant.obj
 0002:00007ed8       __IMPORT_DESCRIPTOR_KERNEL32 10026ed8     kernel32:KERNEL32.dll
 0002:00007eec       __IMPORT_DESCRIPTOR_USER32 10026eec     user32:USER32.dll
 0002:00007f00       __IMPORT_DESCRIPTOR_GDI32  10026f00     gdi32:GDI32.dll
 0002:00007f14       __IMPORT_DESCRIPTOR_ADVAPI32 10026f14     advapi32:ADVAPI32.dll
 0002:00007f28       __IMPORT_DESCRIPTOR_ole32  10026f28     ole32:ole32.dll
 0002:00007f3c       __IMPORT_DESCRIPTOR_OLEAUT32 10026f3c     oleaut32:OLEAUT32.dll
 0002:00007f50       __NULL_IMPORT_DESCRIPTOR   10026f50     kernel32:KERNEL32.dll
 0003:00000000       ?s_Claim@?7??GetIDsOfNames@CComTypeInfoHolder@ATL@@QAEJABU_GUID@@PAPA_WIKPAJ@Z@4PA_WA 10028000     SigCap.obj
 0003:00000018       ?s_Release@?7??GetIDsOfNames@CComTypeInfoHolder@ATL@@QAEJABU_GUID@@PAPA_WIKPAJ@Z@4PA_WA 10028018     SigCap.obj
 0003:00000034       ?_tih@?$IDispatchImpl@UIOPOSSigCap@@$1?IID_IOPOSSigCap@@3U_GUID@@B$1?LIBID_OposSigCap_CCO@@3U3@B$00$0A@VCComTypeInfoHolder@ATL@@@ATL@@1VCComTypeInfoHolder@2@A 10028034     SigCap.obj
 0003:00000050       ?_tih@?$IProvideClassInfo2Impl@$1?CLSID_OPOSSigCap@@3U_GUID@@B$1?DIID__IOPOSSigCapEvents@@3U2@B$1?LIBID_OposSigCap_CCO@@3U2@B$00$0A@VCComTypeInfoHolder@ATL@@@ATL@@1VCComTypeInfoHolder@2@A 10028050     SigCap.obj
 0003:0000006c       ?vszContents@?6??Save@?$IPersistStorageImpl@VCOPOSSigCap@@@ATL@@UAGJPAUIStorage@@H@Z@4PB_WB 1002806c     SigCap.obj
 0003:00000070       ?wc@?1??GetWndClassInfo@?$CWindowImpl@VCOPOSSigCap@@VCWindow@ATL@@V?$CWinTraits@$0FGAAAAAA@$0A@@3@@ATL@@SAAAU_ATL_WNDCLASSINFOW@3@XZ@4U43@A 10028070     SigCap.obj
 0003:000000fc       ?rcDefault@CWindow@ATL@@2UtagRECT@@A 100280fc     SigCap.obj
 0003:00000158       ?g_WindowName@@3PA_WA      10028158     SigCapImpl.obj
 0003:00000174       ?g_ControlVersion@@3JA     10028174     SigCapImpl.obj
 0003:00000178       ?g_ControlDescription@@3PADA 10028178     SigCapImpl.obj
 0003:00000240       ___scrt_native_dllmain_reason 10028240     LIBCMT:utility.obj
 0003:00000244       __Init_global_epoch        10028244     LIBCMT:thread_safe_statics.obj
 0003:00000250       ___security_cookie_complement 10028250     LIBCMT:gs_cookie.obj
 0003:00000254       ___security_cookie         10028254     LIBCMT:gs_cookie.obj
 0003:00000258       ___isa_enabled             10028258     LIBCMT:cpu_disp.obj
 0003:00000270       __NLG_Destination          10028270     libvcruntime:exsup.obj
 0003:00000288       ___abort_behavior          10028288     libucrt:abort.obj
 0003:00000298       __iob                      10028298     libucrt:_file.obj
 0003:00000340       ___acrt_initial_locale_data 10028340     libucrt:nlsdata.obj
 0003:000003f8       ___acrt_initial_locale_pointers 100283f8     libucrt:nlsdata.obj
 0003:00000400       ___acrt_wide_c_locale_string 10028400     libucrt:nlsdata.obj
 0003:00000408       ___acrt_initial_multibyte_data 10028408     libucrt:mbctype.obj
 0003:00000928       __pwctype                  10028928     libucrt:ctype.obj
 0003:0000092c       ___globallocalestatus      1002892c     libucrt:glstatus.obj
 0003:00000930       ___acrt_lconv_c            10028930     libucrt:localeconv.obj
 0003:00000980       ___acrt_lconv_static_decimal 10028980     libucrt:localeconv.obj
 0003:00000984       ___acrt_lconv_static_W_decimal 10028984     libucrt:localeconv.obj
 0003:00000990       __lookuptrailbytes         10028990     libucrt:read.obj
 0003:00000aa0       __fltused                  10028aa0     LIBCMT:fltused.obj
 0003:00000ab0       ??_R0?AVbad_alloc@std@@@8  10028ab0     LIBCMT:throw_bad_alloc.obj
 0003:00000acc       ??_R0?AVexception@std@@@8  10028acc     LIBCMT:throw_bad_alloc.obj
 0003:00000ae8       ??_R0?AVbad_array_new_length@std@@@8 10028ae8     LIBCMT:throw_bad_alloc.obj
 0003:00000b10       ??_R0?AVtype_info@@@8      10028b10     LIBCMT:std_type_info_static.obj
 0003:00000b28       ??_R0?AVbad_exception@std@@@8 10028b28     libvcruntime:frame.obj
 0003:00000b48       ?_pPerfRegFunc@ATL@@3P6AJPAUHINSTANCE__@@@ZA 10028b48     OposVariant.obj
 0003:00000b4c       ?_pPerfUnRegFunc@ATL@@3P6AJXZA 10028b4c     OposVariant.obj
 0003:00000b50       ?_AtlRegisterPerUser@ATL@@3_NA 10028b50     OposVariant.obj
 0003:00000b54       ?_pAtlModule@ATL@@3PAVCAtlModule@1@A 10028b54     OposVariant.obj
 0003:00000b58       ?_pModule@ATL@@3PAVCComModule@1@A 10028b58     OposVariant.obj
 0003:00000b5c       ?m_bInitFailed@CAtlBaseModule@ATL@@2_NA 10028b5c     OposVariant.obj
 0003:00000b60       ?_AtlComModule@ATL@@3VCAtlComModule@1@A 10028b60     OposVariant.obj
 0003:00000b88       ?_AtlWinModule@ATL@@3VCAtlWinModule@1@A 10028b88     OposVariant.obj
 0003:00000bb4       ?m_libid@CAtlModule@ATL@@2U_GUID@@A 10028bb4     SigCap.obj
 0003:00000bc4       ?_entries@?1??GetConnMap@COPOSSigCap@@SAPBU_ATL_CONNMAP_ENTRY@ATL@@PAH@Z@4QBU34@B 10028bc4     SigCap.obj
 0003:00000bd0       ?$TSS0@?1??GetConnMap@COPOSSigCap@@SAPBU_ATL_CONNMAP_ENTRY@ATL@@PAH@Z@4HA 10028bd0     SigCap.obj
 0003:00000bd8       ?_OptionsStorage@?1??__local_stdio_printf_options@@9@4_KA 10028bd8     SigCap.obj
 0003:00000be0       ?pfnRegDeleteKeyEx@?1??DeleteSubKey@CRegKey@ATL@@QAEJPB_W@Z@4P6GJPAUHKEY__@@0KK@ZA 10028be0     SigCap.obj
 0003:00000be4       ?bInitialized@?1??DeleteSubKey@CRegKey@ATL@@QAEJPB_W@Z@4_NA 10028be4     SigCap.obj
 0003:00000be8       ?_Module@@3VCComModule@ATL@@A 10028be8     SigCap.obj
 0003:00000c18       ?pConnMap@?$IConnectionPointContainerImpl@VCOPOSSigCap@@@ATL@@0PBU_ATL_CONNMAP_ENTRY@2@B 10028c18     SigCap.obj
 0003:00000c1c       ?s_nInstances@COPOSSigCap@@1HA 10028c1c     SigCapImpl.obj
 0003:00000c20       ___scrt_current_native_startup_state 10028c20     LIBCMT:utility.obj
 0003:00000c24       ___scrt_native_startup_lock 10028c24     LIBCMT:utility.obj
 0003:00000f8c       __tls_index                10028f8c     LIBCMT:tlssup.obj
 0003:00000f94       ___isa_available           10028f94     LIBCMT:cpu_disp.obj
 0003:00000f98       ___favor                   10028f98     LIBCMT:cpu_disp.obj
 0003:00000f9c       ___scrt_debugger_hook_flag 10028f9c     LIBCMT:utility_desktop.obj
 0003:00000fa0       ?__type_info_root_node@@3U__type_info_node@@A 10028fa0     LIBCMT:tncleanup.obj
 0003:00000fa8       ?_OptionsStorage@?1??__local_stdio_scanf_options@@9@4_KA 10028fa8     LIBCMT:default_local_stdio_options.obj
 0003:00000fb0       ?_AtlBaseModule@ATL@@3VCAtlBaseModule@1@A 10028fb0     atls:atlbase.obj
 0003:00000fe8       ?__AtlThunkPool@@3PAT_SLIST_HEADER@@A 10028fe8     atls:atlthunk.obj
 0003:00001000       ___@@_PchSym_@00@UztvmgUPdlipUGUhUrmgvinvwrzgvUexgllohUzgohOmzgrevkilqPBACIAJCBDBUlyqiUcIGUhgwzucOlyq@4B2008FD98C1DD4 10029000     atls:stdafx.obj
 0003:00001004       ?__WinRTOutOfMemoryExceptionCallback@@3P6GPAXXZA 10029004     libvcruntime:ehhelpers.obj
 0003:00001008       ___pPurecall               10029008     libvcruntime:purevirt_data.obj
 0003:00001050       ?pArgList@UnDecorator@@0PAVReplicator@@A 10029050     libvcruntime:undname.obj
 0003:00001054       ?pZNameList@UnDecorator@@0PAVReplicator@@A 10029054     libvcruntime:undname.obj
 0003:00001058       ?pTemplateArgList@UnDecorator@@0PAVReplicator@@A 10029058     libvcruntime:undname.obj
 0003:0000105c       ?gName@UnDecorator@@0PBDB  1002905c     libvcruntime:undname.obj
 0003:00001060       ?name@UnDecorator@@0PBDB   10029060     libvcruntime:undname.obj
 0003:00001064       ?disableFlags@UnDecorator@@0KA 10029064     libvcruntime:undname.obj
 0003:00001068       ?fExplicitTemplateParams@UnDecorator@@0_NA 10029068     libvcruntime:undname.obj
 0003:00001069       ?fGetTemplateArgumentList@UnDecorator@@0_NA 10029069     libvcruntime:undname.obj
 0003:0000106c       ?m_pGetParameter@UnDecorator@@0P6APADJ@ZA 1002906c     libvcruntime:undname.obj
 0003:00001070       ?m_CHPENameOffset@UnDecorator@@0KA 10029070     libvcruntime:undname.obj
 0003:00001074       ?m_recursionLevel@UnDecorator@@0KA 10029074     libvcruntime:undname.obj
 0003:000010b8       ?c_exit_complete@?1???R<lambda_6e4b09c48022b2350581041d5f6b0c4c>@@QBE@XZ@4_NA 100290b8     libucrt:exit.obj
 0003:000011c8       __environ_table            100291c8     libucrt:environment_initialization.obj
 0003:000011cc       __wenviron_table           100291cc     libucrt:environment_initialization.obj
 0003:000011d0       ___dcrt_initial_wide_environment 100291d0     libucrt:environment_initialization.obj
 0003:000011d4       ___dcrt_initial_narrow_environment 100291d4     libucrt:environment_initialization.obj
 0003:000011d8       ___acrt_atexit_table       100291d8     libucrt:onexit.obj
 0003:000011e4       ___acrt_at_quick_exit_table 100291e4     libucrt:onexit.obj
 0003:000012d8       __nstream                  100292d8     libucrt:_file.obj
 0003:000012dc       ___piob                    100292dc     libucrt:_file.obj
 0003:000012e4       ___acrt_stdout_buffer      100292e4     libucrt:_sftbuf.obj
 0003:000012e8       ___acrt_stderr_buffer      100292e8     libucrt:_sftbuf.obj
 0003:000012ec       ___acrt_locale_changed_data 100292ec     libucrt:wsetlocale.obj
 0003:000012f0       ___acrt_current_locale_data 100292f0     libucrt:nlsdata.obj
 0003:000012f8       ___pioinfo                 100292f8     libucrt:ioinit.obj
 0003:000014f8       __nhandle                  100294f8     libucrt:ioinit.obj
 0003:00001654       __mbctype                  10029654     libucrt:mbctype.obj
 0003:00001658       __mbcasemap                10029658     libucrt:mbctype.obj
 0003:0000165c       ___acrt_current_multibyte_data 1002965c     libucrt:mbctype.obj
 0003:00001668       __pgmptr                   10029668     libucrt:argv_data.obj
 0003:0000166c       ___argc                    1002966c     libucrt:argv_data.obj
 0003:00001670       ___argv                    10029670     libucrt:argv_data.obj
 0003:00001674       ___wargv                   10029674     libucrt:argv_data.obj
 0003:00001678       __acmdln                   10029678     libucrt:argv_data.obj
 0003:0000167c       __wcmdln                   1002967c     libucrt:argv_data.obj
 0003:00001680       ___acrt_heap               10029680     libucrt:heap_handle.obj
 0003:0000169c       ___acrt_lconv_static_null  1002969c     libucrt:localeconv.obj
 0003:000016a0       ___acrt_lconv_static_W_null 100296a0     libucrt:localeconv.obj
 0003:000016b0       ___fastflag                100296b0     libucrt:fp_flags.obj
 0003:000016b8       ___dyn_tls_init_callback   100296b8     <common>
 0003:000016bc       ___scrt_ucrt_dll_is_in_use 100296bc     <common>
 0003:000016c0       __pmatherr                 100296c0     <common>
 0003:000016c4       ___use_sse2_mathfcns       100296c4     <common>

 entry point at        0001:0000bd18

 Static symbols

 0000:fffcf000       .debug$S                   10000000     OPOSSigCap.exp
 0000:fffcf000       .debug$S                   10000000     advapi32:ADVAPI32.dll
 0000:fffcf000       .debug$S                   10000000     advapi32:ADVAPI32.dll
 0000:fffcf000       .debug$S                   10000000     advapi32:ADVAPI32.dll
 0000:fffcf000       .debug$S                   10000000     advapi32:ADVAPI32.dll
 0000:fffcf000       .debug$S                   10000000     advapi32:ADVAPI32.dll
 0000:fffcf000       .debug$S                   10000000     advapi32:ADVAPI32.dll
 0000:fffcf000       .debug$S                   10000000     advapi32:ADVAPI32.dll
 0000:fffcf000       .debug$S                   10000000     advapi32:ADVAPI32.dll
 0000:fffcf000       .debug$S                   10000000     advapi32:ADVAPI32.dll
 0000:fffcf000       .debug$S                   10000000     gdi32:GDI32.dll
 0000:fffcf000       .debug$S                   10000000     gdi32:GDI32.dll
 0000:fffcf000       .debug$S                   10000000     gdi32:GDI32.dll
 0000:fffcf000       .debug$S                   10000000     gdi32:GDI32.dll
 0000:fffcf000       .debug$S                   10000000     gdi32:GDI32.dll
 0000:fffcf000       .debug$S                   10000000     gdi32:GDI32.dll
 0000:fffcf000       .debug$S                   10000000     gdi32:GDI32.dll
 0000:fffcf000       .debug$S                   10000000     gdi32:GDI32.dll
 0000:fffcf000       .debug$S                   10000000     gdi32:GDI32.dll
 0000:fffcf000       .debug$S                   10000000     gdi32:GDI32.dll
 0000:fffcf000       .debug$S                   10000000     gdi32:GDI32.dll
 0000:fffcf000       .debug$S                   10000000     gdi32:GDI32.dll
 0000:fffcf000       .debug$S                   10000000     gdi32:GDI32.dll
 0000:fffcf000       .debug$S                   10000000     gdi32:GDI32.dll
 0000:fffcf000       .debug$S                   10000000     gdi32:GDI32.dll
 0000:fffcf000       .debug$S                   10000000     gdi32:GDI32.dll
 0000:fffcf000       .debug$S                   10000000     gdi32:GDI32.dll
 0000:fffcf000       .debug$S                   10000000     gdi32:GDI32.dll
 0000:fffcf000       .debug$S                   10000000     gdi32:GDI32.dll
 0000:fffcf000       .debug$S                   10000000     kernel32:KERNEL32.dll
 0000:fffcf000       .debug$S                   10000000     kernel32:KERNEL32.dll
 0000:fffcf000       .debug$S                   10000000     kernel32:KERNEL32.dll
 0000:fffcf000       .debug$S                   10000000     kernel32:KERNEL32.dll
 0000:fffcf000       .debug$S                   10000000     kernel32:KERNEL32.dll
 0000:fffcf000       .debug$S                   10000000     kernel32:KERNEL32.dll
 0000:fffcf000       .debug$S                   10000000     kernel32:KERNEL32.dll
 0000:fffcf000       .debug$S                   10000000     kernel32:KERNEL32.dll
 0000:fffcf000       .debug$S                   10000000     kernel32:KERNEL32.dll
 0000:fffcf000       .debug$S                   10000000     kernel32:KERNEL32.dll
 0000:fffcf000       .debug$S                   10000000     kernel32:KERNEL32.dll
 0000:fffcf000       .debug$S                   10000000     kernel32:KERNEL32.dll
 0000:fffcf000       .debug$S                   10000000     kernel32:KERNEL32.dll
 0000:fffcf000       .debug$S                   10000000     kernel32:KERNEL32.dll
 0000:fffcf000       .debug$S                   10000000     kernel32:KERNEL32.dll
 0000:fffcf000       .debug$S                   10000000     kernel32:KERNEL32.dll
 0000:fffcf000       .debug$S                   10000000     kernel32:KERNEL32.dll
 0000:fffcf000       .debug$S                   10000000     kernel32:KERNEL32.dll
 0000:fffcf000       .debug$S                   10000000     kernel32:KERNEL32.dll
 0000:fffcf000       .debug$S                   10000000     kernel32:KERNEL32.dll
 0000:fffcf000       .debug$S                   10000000     kernel32:KERNEL32.dll
 0000:fffcf000       .debug$S                   10000000     kernel32:KERNEL32.dll
 0000:fffcf000       .debug$S                   10000000     kernel32:KERNEL32.dll
 0000:fffcf000       .debug$S                   10000000     kernel32:KERNEL32.dll
 0000:fffcf000       .debug$S                   10000000     kernel32:KERNEL32.dll
 0000:fffcf000       .debug$S                   10000000     kernel32:KERNEL32.dll
 0000:fffcf000       .debug$S                   10000000     kernel32:KERNEL32.dll
 0000:fffcf000       .debug$S                   10000000     kernel32:KERNEL32.dll
 0000:fffcf000       .debug$S                   10000000     kernel32:KERNEL32.dll
 0000:fffcf000       .debug$S                   10000000     kernel32:KERNEL32.dll
 0000:fffcf000       .debug$S                   10000000     kernel32:KERNEL32.dll
 0000:fffcf000       .debug$S                   10000000     kernel32:KERNEL32.dll
 0000:fffcf000       .debug$S                   10000000     kernel32:KERNEL32.dll
 0000:fffcf000       .debug$S                   10000000     kernel32:KERNEL32.dll
 0000:fffcf000       .debug$S                   10000000     kernel32:KERNEL32.dll
 0000:fffcf000       .debug$S                   10000000     kernel32:KERNEL32.dll
 0000:fffcf000       .debug$S                   10000000     kernel32:KERNEL32.dll
 0000:fffcf000       .debug$S                   10000000     kernel32:KERNEL32.dll
 0000:fffcf000       .debug$S                   10000000     kernel32:KERNEL32.dll
 0000:fffcf000       .debug$S                   10000000     kernel32:KERNEL32.dll
 0000:fffcf000       .debug$S                   10000000     kernel32:KERNEL32.dll
 0000:fffcf000       .debug$S                   10000000     kernel32:KERNEL32.dll
 0000:fffcf000       .debug$S                   10000000     kernel32:KERNEL32.dll
 0000:fffcf000       .debug$S                   10000000     kernel32:KERNEL32.dll
 0000:fffcf000       .debug$S                   10000000     kernel32:KERNEL32.dll
 0000:fffcf000       .debug$S                   10000000     kernel32:KERNEL32.dll
 0000:fffcf000       .debug$S                   10000000     kernel32:KERNEL32.dll
 0000:fffcf000       .debug$S                   10000000     kernel32:KERNEL32.dll
 0000:fffcf000       .debug$S                   10000000     kernel32:KERNEL32.dll
 0000:fffcf000       .debug$S                   10000000     kernel32:KERNEL32.dll
 0000:fffcf000       .debug$S                   10000000     kernel32:KERNEL32.dll
 0000:fffcf000       .debug$S                   10000000     kernel32:KERNEL32.dll
 0000:fffcf000       .debug$S                   10000000     kernel32:KERNEL32.dll
 0000:fffcf000       .debug$S                   10000000     kernel32:KERNEL32.dll
 0000:fffcf000       .debug$S                   10000000     kernel32:KERNEL32.dll
 0000:fffcf000       .debug$S                   10000000     kernel32:KERNEL32.dll
 0000:fffcf000       .debug$S                   10000000     kernel32:KERNEL32.dll
 0000:fffcf000       .debug$S                   10000000     kernel32:KERNEL32.dll
 0000:fffcf000       .debug$S                   10000000     kernel32:KERNEL32.dll
 0000:fffcf000       .debug$S                   10000000     kernel32:KERNEL32.dll
 0000:fffcf000       .debug$S                   10000000     kernel32:KERNEL32.dll
 0000:fffcf000       .debug$S                   10000000     kernel32:KERNEL32.dll
 0000:fffcf000       .debug$S                   10000000     kernel32:KERNEL32.dll
 0000:fffcf000       .debug$S                   10000000     kernel32:KERNEL32.dll
 0000:fffcf000       .debug$S                   10000000     kernel32:KERNEL32.dll
 0000:fffcf000       .debug$S                   10000000     kernel32:KERNEL32.dll
 0000:fffcf000       .debug$S                   10000000     kernel32:KERNEL32.dll
 0000:fffcf000       .debug$S                   10000000     kernel32:KERNEL32.dll
 0000:fffcf000       .debug$S                   10000000     kernel32:KERNEL32.dll
 0000:fffcf000       .debug$S                   10000000     kernel32:KERNEL32.dll
 0000:fffcf000       .debug$S                   10000000     kernel32:KERNEL32.dll
 0000:fffcf000       .debug$S                   10000000     kernel32:KERNEL32.dll
 0000:fffcf000       .debug$S                   10000000     kernel32:KERNEL32.dll
 0000:fffcf000       .debug$S                   10000000     kernel32:KERNEL32.dll
 0000:fffcf000       .debug$S                   10000000     kernel32:KERNEL32.dll
 0000:fffcf000       .debug$S                   10000000     kernel32:KERNEL32.dll
 0000:fffcf000       .debug$S                   10000000     kernel32:KERNEL32.dll
 0000:fffcf000       .debug$S                   10000000     kernel32:KERNEL32.dll
 0000:fffcf000       .debug$S                   10000000     kernel32:KERNEL32.dll
 0000:fffcf000       .debug$S                   10000000     kernel32:KERNEL32.dll
 0000:fffcf000       .debug$S                   10000000     kernel32:KERNEL32.dll
 0000:fffcf000       .debug$S                   10000000     kernel32:KERNEL32.dll
 0000:fffcf000       .debug$S                   10000000     kernel32:KERNEL32.dll
 0000:fffcf000       .debug$S                   10000000     kernel32:KERNEL32.dll
 0000:fffcf000       .debug$S                   10000000     kernel32:KERNEL32.dll
 0000:fffcf000       .debug$S                   10000000     kernel32:KERNEL32.dll
 0000:fffcf000       .debug$S                   10000000     kernel32:KERNEL32.dll
 0000:fffcf000       .debug$S                   10000000     kernel32:KERNEL32.dll
 0000:fffcf000       .debug$S                   10000000     kernel32:KERNEL32.dll
 0000:fffcf000       .debug$S                   10000000     kernel32:KERNEL32.dll
 0000:fffcf000       .debug$S                   10000000     kernel32:KERNEL32.dll
 0000:fffcf000       .debug$S                   10000000     kernel32:KERNEL32.dll
 0000:fffcf000       .debug$S                   10000000     kernel32:KERNEL32.dll
 0000:fffcf000       .debug$S                   10000000     kernel32:KERNEL32.dll
 0000:fffcf000       .debug$S                   10000000     kernel32:KERNEL32.dll
 0000:fffcf000       .debug$S                   10000000     kernel32:KERNEL32.dll
 0000:fffcf000       .debug$S                   10000000     kernel32:KERNEL32.dll
 0000:fffcf000       .debug$S                   10000000     kernel32:KERNEL32.dll
 0000:fffcf000       .debug$S                   10000000     kernel32:KERNEL32.dll
 0000:fffcf000       .debug$S                   10000000     kernel32:KERNEL32.dll
 0000:fffcf000       .debug$S                   10000000     kernel32:KERNEL32.dll
 0000:fffcf000       .debug$S                   10000000     kernel32:KERNEL32.dll
 0000:fffcf000       .debug$S                   10000000     kernel32:KERNEL32.dll
 0000:fffcf000       .debug$S                   10000000     kernel32:KERNEL32.dll
 0000:fffcf000       .debug$S                   10000000     kernel32:KERNEL32.dll
 0000:fffcf000       .debug$S                   10000000     kernel32:KERNEL32.dll
 0000:fffcf000       .debug$S                   10000000     ole32:ole32.dll
 0000:fffcf000       .debug$S                   10000000     ole32:ole32.dll
 0000:fffcf000       .debug$S                   10000000     ole32:ole32.dll
 0000:fffcf000       .debug$S                   10000000     ole32:ole32.dll
 0000:fffcf000       .debug$S                   10000000     ole32:ole32.dll
 0000:fffcf000       .debug$S                   10000000     ole32:ole32.dll
 0000:fffcf000       .debug$S                   10000000     ole32:ole32.dll
 0000:fffcf000       .debug$S                   10000000     ole32:ole32.dll
 0000:fffcf000       .debug$S                   10000000     ole32:ole32.dll
 0000:fffcf000       .debug$S                   10000000     ole32:ole32.dll
 0000:fffcf000       .debug$S                   10000000     ole32:ole32.dll
 0000:fffcf000       .debug$S                   10000000     ole32:ole32.dll
 0000:fffcf000       .debug$S                   10000000     ole32:ole32.dll
 0000:fffcf000       .debug$S                   10000000     ole32:ole32.dll
 0000:fffcf000       .debug$S                   10000000     oleaut32:OLEAUT32.dll
 0000:fffcf000       .debug$S                   10000000     oleaut32:OLEAUT32.dll
 0000:fffcf000       .debug$S                   10000000     oleaut32:OLEAUT32.dll
 0000:fffcf000       .debug$S                   10000000     oleaut32:OLEAUT32.dll
 0000:fffcf000       .debug$S                   10000000     oleaut32:OLEAUT32.dll
 0000:fffcf000       .debug$S                   10000000     oleaut32:OLEAUT32.dll
 0000:fffcf000       .debug$S                   10000000     oleaut32:OLEAUT32.dll
 0000:fffcf000       .debug$S                   10000000     oleaut32:OLEAUT32.dll
 0000:fffcf000       .debug$S                   10000000     oleaut32:OLEAUT32.dll
 0000:fffcf000       .debug$S                   10000000     oleaut32:OLEAUT32.dll
 0000:fffcf000       .debug$S                   10000000     oleaut32:OLEAUT32.dll
 0000:fffcf000       .debug$S                   10000000     oleaut32:OLEAUT32.dll
 0000:fffcf000       .debug$S                   10000000     oleaut32:OLEAUT32.dll
 0000:fffcf000       .debug$S                   10000000     oleaut32:OLEAUT32.dll
 0000:fffcf000       .debug$S                   10000000     oleaut32:OLEAUT32.dll
 0000:fffcf000       .debug$S                   10000000     oleaut32:OLEAUT32.dll
 0000:fffcf000       .debug$S                   10000000     user32:USER32.dll
 0000:fffcf000       .debug$S                   10000000     user32:USER32.dll
 0000:fffcf000       .debug$S                   10000000     user32:USER32.dll
 0000:fffcf000       .debug$S                   10000000     user32:USER32.dll
 0000:fffcf000       .debug$S                   10000000     user32:USER32.dll
 0000:fffcf000       .debug$S                   10000000     user32:USER32.dll
 0000:fffcf000       .debug$S                   10000000     user32:USER32.dll
 0000:fffcf000       .debug$S                   10000000     user32:USER32.dll
 0000:fffcf000       .debug$S                   10000000     user32:USER32.dll
 0000:fffcf000       .debug$S                   10000000     user32:USER32.dll
 0000:fffcf000       .debug$S                   10000000     user32:USER32.dll
 0000:fffcf000       .debug$S                   10000000     user32:USER32.dll
 0000:fffcf000       .debug$S                   10000000     user32:USER32.dll
 0000:fffcf000       .debug$S                   10000000     user32:USER32.dll
 0000:fffcf000       .debug$S                   10000000     user32:USER32.dll
 0000:fffcf000       .debug$S                   10000000     user32:USER32.dll
 0000:fffcf000       .debug$S                   10000000     user32:USER32.dll
 0000:fffcf000       .debug$S                   10000000     user32:USER32.dll
 0000:fffcf000       .debug$S                   10000000     user32:USER32.dll
 0000:fffcf000       .debug$S                   10000000     user32:USER32.dll
 0000:fffcf000       .debug$S                   10000000     user32:USER32.dll
 0000:fffcf000       .debug$S                   10000000     user32:USER32.dll
 0000:fffcf000       .debug$S                   10000000     user32:USER32.dll
 0000:fffcf000       .debug$S                   10000000     user32:USER32.dll
 0000:fffcf000       .debug$S                   10000000     user32:USER32.dll
 0000:fffcf000       .debug$S                   10000000     user32:USER32.dll
 0000:fffcf000       .debug$S                   10000000     user32:USER32.dll
 0000:fffcf000       .debug$S                   10000000     user32:USER32.dll
 0000:fffcf000       .debug$S                   10000000     user32:USER32.dll
 0000:fffcf000       .debug$S                   10000000     user32:USER32.dll
 0000:fffcf000       .debug$S                   10000000     user32:USER32.dll
 0000:fffcf000       .debug$S                   10000000     user32:USER32.dll
 0000:fffcf000       .debug$S                   10000000     user32:USER32.dll
 0000:fffcf000       .debug$S                   10000000     user32:USER32.dll
 0000:fffcf000       .debug$S                   10000000     user32:USER32.dll
 0001:00000000       ??__E_AtlComModule@ATL@@YAXXZ 10001000 f   OposVariant.obj
 0001:00000016       ??__E_AtlWinModule@ATL@@YAXXZ 10001016 f   OposVariant.obj
 0001:0000002c       ??__E?pConnMap@?$IConnectionPointContainerImpl@VCOPOSSigCap@@@ATL@@0PBU_ATL_CONNMAP_ENTRY@2@B@@YAXXZ 1000102c f   SigCap.obj
 0001:0000003a       ??__E_Module@@YAXXZ        1000103a f   SigCap.obj
 0001:00000064       ??__E_AtlBaseModule@ATL@@YAXXZ 10001064 f   atls:atlbase.obj
 0001:00000bf8       $LN24                      10001bf8     SigCap.obj
 0001:000058b6       $LN47                      100068b6     SigCap.obj
 0001:000058ce       $LN46                      100068ce     SigCap.obj
 0001:00007a9b       $LN37                      10008a9b     SigCap.obj
 0001:00007ab3       $LN36                      10008ab3     SigCap.obj
 0001:0000918f       $LN76                      1000a18f     SigCap.obj
 0001:000091a7       $LN75                      1000a1a7     SigCap.obj
 0001:00009560       _memcpy_s                  1000a560 f   SigCap.obj
 0001:0000b1b7       ?find_pe_section@@YAPAU_IMAGE_SECTION_HEADER@@QAEI@Z 1000c1b7 f   LIBCMT:utility.obj
 0001:0000b4d6       ?__scrt_initialize_thread_safe_statics@@YAHXZ 1000c4d6 f   LIBCMT:thread_safe_statics.obj
 0001:0000b4fd       ?__scrt_initialize_thread_safe_statics_platform_specific@@YAXXZ 1000c4fd f   LIBCMT:thread_safe_statics.obj
 0001:0000b57f       ?__scrt_uninitialize_thread_safe_statics@@YAXXZ 1000c57f f   LIBCMT:thread_safe_statics.obj
 0001:0000b8ee       __catch$??2@YAPAXIABUnothrow_t@std@@@Z$0 1000c8ee f   LIBCMT:new_scalar_nothrow.obj
 0001:0000b920       $$000000                   1000c920     LIBCMT:sehprolg4gs.obj
 0001:0000b980       $$000000                   1000c980     LIBCMT:alloca16.obj
 0001:0000b9b0       $$000000                   1000c9b0     LIBCMT:chkstk.obj
 0001:0000b9dd       ?dllmain_crt_dispatch@@YGHQAUHINSTANCE__@@KQAX@Z 1000c9dd f   LIBCMT:dll_dllmain.obj
 0001:0000ba30       ?dllmain_crt_process_attach@@YAHQAUHINSTANCE__@@QAX@Z 1000ca30 f   LIBCMT:dll_dllmain.obj
 0001:0000bb37       ?dllmain_crt_process_detach@@YAH_N@Z 1000cb37 f   LIBCMT:dll_dllmain.obj
 0001:0000bbe7       ?dllmain_dispatch@@YAHQAUHINSTANCE__@@KQAX@Z 1000cbe7 f   LIBCMT:dll_dllmain.obj
 0001:0000bced       ?dllmain_raw@@YGHQAUHINSTANCE__@@KQAX@Z 1000cced f   LIBCMT:dll_dllmain.obj
 0001:0000c070       $$000000                   1000d070     LIBCMT:sehprolg4.obj
 0001:0000c0cc       ___get_entropy             1000d0cc f   LIBCMT:gs_support.obj
 0001:0000c3c3       ??$GetProcAddressAll@P6GP6GJPAUHWND__@@IIJ@ZPAUAtlThunkData_t@@@Z@@YAP6GP6GJPAUHWND__@@IIJ@ZPAUAtlThunkData_t@@@ZPAP6GP6GJ0IIJ@Z1@Z@Z 1000d3c3 f   atls:atlthunk.obj
 0001:0000c3c3       ??$GetProcAddressAll@P6GPAUAtlThunkData_t@@XZ@@YAP6GPAUAtlThunkData_t@@XZPAP6GPAU0@XZ@Z 1000d3c3 f   atls:atlthunk.obj
 0001:0000c3c3       ??$GetProcAddressAll@P6GXPAUAtlThunkData_t@@@Z@@YAP6GXPAUAtlThunkData_t@@@ZPAP6GX0@Z@Z 1000d3c3 f   atls:atlthunk.obj
 0001:0000c3c3       ??$GetProcAddressAll@P6GXPAUAtlThunkData_t@@PAXI@Z@@YAP6GXPAUAtlThunkData_t@@PAXI@ZPAP6GX01I@Z@Z 1000d3c3 f   atls:atlthunk.obj
 0001:0000c473       ?GetProcAddressSingle@@YA_NPAUHINSTANCE__@@PBDPAPAX@Z 1000d473 f   atls:atlthunk.obj
 0001:0000c5c5       ?__InitializeThunkPool@@YAHXZ 1000d5c5 f   atls:atlthunk.obj
 0001:0000ca20       _ValidateLocalCookies      1000da20 f   libvcruntime:chandler4.obj
 0001:0000dae2       $LN1241                    1000eae2     libvcruntime:memcmp.obj
 0001:0000db70       $$000000                   1000eb70     libvcruntime:memcpy.obj
 0001:0000ddd4       TrailingUpVec              1000edd4     libvcruntime:memcpy.obj
 0001:0000de80       TrailingDownVec            1000ee80     libvcruntime:memcpy.obj
 0001:0000e0f0       $$000000                   1000f0f0     libvcruntime:memset.obj
 0001:0000e6f3       ?_FilterSetCurrentException@@YAKPAU_EXCEPTION_POINTERS@@E@Z 1000f6f3 f   libvcruntime:ehhelpers.obj
 0001:0000e940       $$000000                   1000f940     libvcruntime:memmove.obj
 0001:0000eba4       TrailingUpVec              1000fba4     libvcruntime:memmove.obj
 0001:0000ec50       TrailingDownVec            1000fc50     libvcruntime:memmove.obj
 0001:0000eec0       $$000000                   1000fec0     libvcruntime:exsup4.obj
 0001:0000ef50       __unwind_handler4          1000ff50 f   libvcruntime:exsup4.obj
 0001:0000f22f       ??$BuildCatchObjectHelperInternal@V__FrameHandler3@@@@YAHPAUEHExceptionRecord@@PAXPBU_s_HandlerType@@PBU_s_CatchableType@@@Z 1001022f f   libvcruntime:frame.obj
 0001:0000f36d       ??$BuildCatchObjectInternal@V__FrameHandler3@@@@YAXPAUEHExceptionRecord@@PAXPBU_s_HandlerType@@PBU_s_CatchableType@@@Z 1001036d f   libvcruntime:frame.obj
 0001:0000f406       ??$CatchIt@V__FrameHandler3@@@@YAXPAUEHExceptionRecord@@PAUEHRegistrationNode@@PAU_CONTEXT@@PAXPBU_s_FuncInfo@@PBU_s_HandlerType@@PBU_s_CatchableType@@PBU_s_TryBlockMapEntry@@H1EE@Z 10010406 f   libvcruntime:frame.obj
 0001:0000f486       ??$FindHandler@V__FrameHandler3@@@@YAXPAUEHExceptionRecord@@PAUEHRegistrationNode@@PAU_CONTEXT@@PAXPBU_s_FuncInfo@@EH1@Z 10010486 f   libvcruntime:frame.obj
 0001:0000f83c       ??$FindHandlerForForeignException@V__FrameHandler3@@@@YAXPAUEHExceptionRecord@@PAUEHRegistrationNode@@PAU_CONTEXT@@PAXPBU_s_FuncInfo@@HH1@Z 1001083c f   libvcruntime:frame.obj
 0001:0000fb54       ?CallCatchBlock@@YAPAXPAUEHExceptionRecord@@PAUEHRegistrationNode@@PAU_CONTEXT@@PBU_s_FuncInfo@@PAXHK@Z 10010b54 f   libvcruntime:frame.obj
 0001:0000fd18       ?CallUnexpected@@YAXPBU_s_ESTypeList@@@Z 10010d18 f   libvcruntime:frame.obj
 0001:0000fd38       __catch$?CallUnexpected@@YAXPBU_s_ESTypeList@@@Z$0 10010d38 f   libvcruntime:frame.obj
 0001:0000fd52       ?ExFilterRethrow@@YAHPAU_EXCEPTION_POINTERS@@@Z 10010d52 f   libvcruntime:frame.obj
 0001:0000fe9c       ?IsInExceptionSpec@@YAEPAUEHExceptionRecord@@PBU_s_ESTypeList@@@Z 10010e9c f   libvcruntime:frame.obj
 0001:0000ff70       $$000000                   10010f70     libvcruntime:lowhelpr.obj
 0001:0000ffc0       $$000000                   10010fc0     libvcruntime:exsup.obj
 0001:0000ffe1       __unwind_handler           10010fe1 f   libvcruntime:exsup.obj
 0001:000100fe       ?try_get_first_available_module@@YAPAUHINSTANCE__@@QBW4module_id@?A0x1172487b@@0@Z 100110fe f   libvcruntime:winapi_downlevel.obj
 0001:000101aa       ?try_get_function@@YAPAXW4function_id@?A0x1172487b@@QBDQBW4module_id@2@2@Z 100111aa f   libvcruntime:winapi_downlevel.obj
 0001:00010834       ??$common_tcsncpy_s@_W@@YAHQA_WIQB_WI@Z 10011834 f   libucrt:wcsncpy_s.obj
 0001:0001090a       ??$common_vsprintf@Vformat_validation_base@__crt_stdio_output@@_W@@YAH_KQA_WIQB_WQAU__crt_locale_pointers@@QAD@Z 1001190a f   libucrt:output.obj
 0001:00010a91       ??$common_vsprintf_s@_W@@YAH_KQA_WIQB_WQAU__crt_locale_pointers@@QAD@Z 10011a91 f   libucrt:output.obj
 0001:000111c0       $LN51                      100121c0     libucrt:output.obj
 0001:000116bb       $LN20                      100126bb     libucrt:output.obj
 0001:000116cf       $LN17                      100126cf     libucrt:output.obj
 0001:00011f2e       ??$?RV<lambda_03b1d95aef87969028cfba75ccab2455>@@AAV<lambda_6e4b09c48022b2350581041d5f6b0c4c>@@V<lambda_22bdf7517842c4b3e53723af5aa32b9e>@@@?$__crt_seh_guarded_call@X@@QAEX$$QAV<lambda_03b1d95aef87969028cfba75ccab2455>@@AAV<lambda_6e4b09c48022b2350581041d5f6b0c4c>@@$$QAV<lambda_22bdf7517842c4b3e53723af5aa32b9e>@@@Z 10012f2e f   libucrt:exit.obj
 0001:00011f7b       ??R<lambda_6e4b09c48022b2350581041d5f6b0c4c>@@QBE@XZ 10012f7b f   libucrt:exit.obj
 0001:00012055       ?atexit_exception_filter@@YAHK@Z 10013055 f   libucrt:exit.obj
 0001:00012068       ?common_exit@@YAXHW4_crt_exit_cleanup_mode@@W4_crt_exit_return_mode@@@Z 10013068 f   libucrt:exit.obj
 0001:000120cc       ?exit_or_terminate_process@@YAXI@Z 100130cc f   libucrt:exit.obj
 0001:0001210e       ?is_managed_app@@YA_NXZ    1001310e f   libucrt:exit.obj
 0001:00012151       ?try_cor_exit_process@@YAXI@Z 10013151 f   libucrt:exit.obj
 0001:000121df       ??$common_configure_argv@D@@YAHW4_crt_argv_mode@@@Z 100131df f   libucrt:argv_parsing.obj
 0001:00012315       ??$parse_command_line@D@@YAXPADPAPAD0PAI2@Z 10013315 f   libucrt:argv_parsing.obj
 0001:000124e6       ??$common_initialize_environment_nolock@D@@YAHXZ 100134e6 f   libucrt:environment_initialization.obj
 0001:00012539       ??$create_environment@D@@YAQAPADQAD@Z 10013539 f   libucrt:environment_initialization.obj
 0001:00012609       ??$free_environment@D@@YAXQAPAD@Z 10013609 f   libucrt:environment_initialization.obj
 0001:00012609       ??$free_environment@_W@@YAXQAPA_W@Z 10013609 f   libucrt:environment_initialization.obj
 0001:00012661       ??$uninitialize_environment_internal@D@@YAXAAPAPAD@Z 10013661 f   libucrt:environment_initialization.obj
 0001:0001267c       ??$uninitialize_environment_internal@_W@@YAXAAPAPA_W@Z 1001367c f   libucrt:environment_initialization.obj
 0001:000126d3       ??$?RV<lambda_69a2805e680e0e292e8ba93315fe43a8>@@AAV<lambda_f03950bc5685219e0bcd2087efbe011e>@@V<lambda_03fcd07e894ec930e3f35da366ca99d6>@@@?$__crt_seh_guarded_call@H@@QAEH$$QAV<lambda_69a2805e680e0e292e8ba93315fe43a8>@@AAV<lambda_f03950bc5685219e0bcd2087efbe011e>@@$$QAV<lambda_03fcd07e894ec930e3f35da366ca99d6>@@@Z 100136d3 f   libucrt:onexit.obj
 0001:0001272e       ??$?RV<lambda_8e746cf0007f6ed984d6f78af1fec997>@@AAV<lambda_22ebabd17bc4fa466a2aca6d8deb888d>@@V<lambda_18ed0c0b38a6dc0daf1e7ac6d6adf05e>@@@?$__crt_seh_guarded_call@H@@QAEH$$QAV<lambda_8e746cf0007f6ed984d6f78af1fec997>@@AAV<lambda_22ebabd17bc4fa466a2aca6d8deb888d>@@$$QAV<lambda_18ed0c0b38a6dc0daf1e7ac6d6adf05e>@@@Z 1001372e f   libucrt:onexit.obj
 0001:000127a8       ??R<lambda_22ebabd17bc4fa466a2aca6d8deb888d>@@QBEHXZ 100137a8 f   libucrt:onexit.obj
 0001:000128d1       ??R<lambda_f03950bc5685219e0bcd2087efbe011e>@@QBEHXZ 100138d1 f   libucrt:onexit.obj
 0001:00012a4a       _initialize_environment    10013a4a f   libucrt:initialization.obj
 0001:00012a4a       _initialize_global_state_isolation 10013a4a f   libucrt:initialization.obj
 0001:00012a4a       _report_memory_leaks       10013a4a f   libucrt:initialization.obj
 0001:00012a4a       _uninitialize_c            10013a4a f   libucrt:initialization.obj
 0001:00012a4a       _uninitialize_global_state_isolation 10013a4a f   libucrt:initialization.obj
 0001:00012a4d       _initialize_global_variables 10013a4d f   libucrt:initialization.obj
 0001:00012a5a       _initialize_c              10013a5a f   libucrt:initialization.obj
 0001:00012a74       _uninitialize_environment  10013a74 f   libucrt:initialization.obj
 0001:00012a7c       _initialize_pointers       10013a7c f   libucrt:initialization.obj
 0001:00012aaa       _uninitialize_vcruntime    10013aaa f   libucrt:initialization.obj
 0001:00012ab3       _uninitialize_allocated_memory 10013ab3 f   libucrt:initialization.obj
 0001:00012aca       _uninitialize_allocated_io_buffers 10013aca f   libucrt:initialization.obj
 0001:00012b1a       ??R<lambda_af42a3ee9806e9a7305d451646e05244>@@QBEXAAPAU__crt_multibyte_data@@@Z 10013b1a f   libucrt:initialization.obj
 0001:00013400       $$000000                   10014400     libucrt:strncmp.obj
 0001:000134ec       ??$?RV<lambda_15ade71b0218206bbe3333a0c9b79046>@@AAV<lambda_da44e0f8b0f19ba52fefafb335991732>@@V<lambda_207f2d024fc103971653565357d6cd41>@@@?$__crt_seh_guarded_call@X@@QAEX$$QAV<lambda_15ade71b0218206bbe3333a0c9b79046>@@AAV<lambda_da44e0f8b0f19ba52fefafb335991732>@@$$QAV<lambda_207f2d024fc103971653565357d6cd41>@@@Z 100144ec f   libucrt:per_thread_data.obj
 0001:0001353e       ??$?RV<lambda_38edbb1296d33220d7e4dd0ed76b244a>@@AAV<lambda_5ce1d447e08cb34b2473517608e21441>@@V<lambda_fb385d3da700c9147fc39e65dd577a8c>@@@?$__crt_seh_guarded_call@X@@QAEX$$QAV<lambda_38edbb1296d33220d7e4dd0ed76b244a>@@AAV<lambda_5ce1d447e08cb34b2473517608e21441>@@$$QAV<lambda_fb385d3da700c9147fc39e65dd577a8c>@@@Z 1001453e f   libucrt:per_thread_data.obj
 0001:000135a9       ??$?RV<lambda_6affb1475c98b40b75cdec977db92e3c>@@AAV<lambda_b8d4b9c228a6ecc3f80208dbb4b4a104>@@V<lambda_608742c3c92a14382c1684fc64f96c88>@@@?$__crt_seh_guarded_call@X@@QAEX$$QAV<lambda_6affb1475c98b40b75cdec977db92e3c>@@AAV<lambda_b8d4b9c228a6ecc3f80208dbb4b4a104>@@$$QAV<lambda_608742c3c92a14382c1684fc64f96c88>@@@Z 100145a9 f   libucrt:per_thread_data.obj
 0001:000135fe       ??$?RV<lambda_a7e850c220f1c8d1e6efeecdedd162c6>@@AAV<lambda_46720907175c18b6c9d2717bc0d2d362>@@V<lambda_9048902d66e8d99359bc9897bbb930a8>@@@?$__crt_seh_guarded_call@X@@QAEX$$QAV<lambda_a7e850c220f1c8d1e6efeecdedd162c6>@@AAV<lambda_46720907175c18b6c9d2717bc0d2d362>@@$$QAV<lambda_9048902d66e8d99359bc9897bbb930a8>@@@Z 100145fe f   libucrt:per_thread_data.obj
 0001:00013658       ?construct_ptd@@YAXQAU__acrt_ptd@@QAPAU__crt_locale_data@@@Z 10014658 f   libucrt:per_thread_data.obj
 0001:000136f1       ?destroy_fls@@YGXPAX@Z     100146f1 f   libucrt:per_thread_data.obj
 0001:00013712       ?destroy_ptd@@YAXQAU__acrt_ptd@@@Z 10014712 f   libucrt:per_thread_data.obj
 0001:000137df       ?replace_current_thread_locale_nolock@@YAXQAU__acrt_ptd@@QAU__crt_locale_data@@@Z 100147df f   libucrt:per_thread_data.obj
 0001:00013bef       ?try_get_AreFileApisANSI@@YAP6GHXZXZ 10014bef f   libucrt:winapi_thunks.obj
 0001:00013c09       ?try_get_LCMapStringEx@@YAP6GHPB_WK0HPA_WHPAU_nlsversioninfo@@PAXJ@ZXZ 10014c09 f   libucrt:winapi_thunks.obj
 0001:00013c23       ?try_get_LocaleNameToLCID@@YAP6GKPB_WK@ZXZ 10014c23 f   libucrt:winapi_thunks.obj
 0001:00013c3d       ?try_get_first_available_module@@YAPAUHINSTANCE__@@QBW4module_id@?A0x391cf84c@@0@Z 10014c3d f   libucrt:winapi_thunks.obj
 0001:00013d04       ?try_get_function@@YAPAXW4function_id@?A0x391cf84c@@QBDQBW4module_id@2@2@Z 10014d04 f   libucrt:winapi_thunks.obj
 0001:00014467       ?fp_format_a@@YAHQBNPADIQADIH_NIQAU__crt_locale_pointers@@@Z 10015467 f   libucrt:cvt.obj
 0001:00014780       ?fp_format_e@@YAHQBNQADI1IH_NIQAU__crt_locale_pointers@@@Z 10015780 f   libucrt:cvt.obj
 0001:00014822       ?fp_format_e_internal@@YAHQADIH_NIQAU_strflt@@1QAU__crt_locale_pointers@@@Z 10015822 f   libucrt:cvt.obj
 0001:0001496a       ?fp_format_f@@YAHQBNQADI1IHQAU__crt_locale_pointers@@@Z 1001596a f   libucrt:cvt.obj
 0001:000149f5       ?fp_format_f_internal@@YAHQADIHQAU_strflt@@_NQAU__crt_locale_pointers@@@Z 100159f5 f   libucrt:cvt.obj
 0001:00014ac6       ?fp_format_g@@YAHQBNQADI1IH_NIQAU__crt_locale_pointers@@@Z 10015ac6 f   libucrt:cvt.obj
 0001:00014b87       ?fp_format_nan_or_infinity@@YAHW4__acrt_fp_class@@_NPADI1@Z 10015b87 f   libucrt:cvt.obj
 0001:00014c1c       ?shift_bytes@@YAXQADI0H@Z  10015c1c f   libucrt:cvt.obj
 0001:00014f03       ??$?RV<lambda_e5124f882df8998aaf41531e079ba474>@@AAV<lambda_3e16ef9562a7dcce91392c22ab16ea36>@@V<lambda_e25ca0880e6ef98be67edffd8c599615>@@@?$__crt_seh_guarded_call@X@@QAEX$$QAV<lambda_e5124f882df8998aaf41531e079ba474>@@AAV<lambda_3e16ef9562a7dcce91392c22ab16ea36>@@$$QAV<lambda_e25ca0880e6ef98be67edffd8c599615>@@@Z 10015f03 f   libucrt:wsetlocale.obj
 0001:00014fa3       ?initialize_inherited_file_handles_nolock@@YAXXZ 10015fa3 f   libucrt:ioinit.obj
 0001:00015059       ?initialize_stdio_handles_nolock@@YAXXZ 10016059 f   libucrt:ioinit.obj
 0001:0001526a       ?<lambda_invoker_cdecl>@<lambda_838c7f62c73c983481e27c09e84b0b5d>@@CAHPBX0@Z 1001626a f   libucrt:argv_wildcards.obj
 0001:00015282       ??$__acrt_convert_wcs_mbs_cp@D_WV<lambda_62f6974d9771e494a5ea317cc32e971c>@@U__crt_win32_buffer_internal_dynamic_resizing@@@@YAHQBDAAV?$__crt_win32_buffer@_WU__crt_win32_buffer_internal_dynamic_resizing@@@@ABV<lambda_62f6974d9771e494a5ea317cc32e971c>@@I@Z 10016282 f   libucrt:argv_wildcards.obj
 0001:00015334       ??$__acrt_convert_wcs_mbs_cp@_WDV<lambda_28bda7af82a03b66c1cb3803a755f95d>@@U__crt_win32_buffer_internal_dynamic_resizing@@@@YAHQB_WAAV?$__crt_win32_buffer@DU__crt_win32_buffer_internal_dynamic_resizing@@@@ABV<lambda_28bda7af82a03b66c1cb3803a755f95d>@@I@Z 10016334 f   libucrt:argv_wildcards.obj
 0001:00015420       ??$common_expand_argv_wildcards@D@@YAHQAPADQAPAPAD@Z 10016420 f   libucrt:argv_wildcards.obj
 0001:0001560f       ??$copy_and_add_argument_to_buffer@D@@YAHQBD0IAAV?$argument_list@D@?A0x5f5c8891@@@Z 1001660f f   libucrt:argv_wildcards.obj
 0001:000156c0       ??$expand_argument_wildcards@D@@YAHQAD0AAV?$argument_list@D@?A0x5f5c8891@@@Z 100166c0 f   libucrt:argv_wildcards.obj
 0001:00015a0a       ?expand_if_necessary@?$argument_list@D@?A0x5f5c8891@@AAEHXZ 10016a0a f   libucrt:argv_wildcards.obj
 0001:00015a9c       ??$__acrt_convert_wcs_mbs_cp@_WDV<lambda_0fec1a7b3f42a53036604e18c2d5e07e>@@U__crt_win32_buffer_no_resizing@@@@YAHQB_WAAV?$__crt_win32_buffer@DU__crt_win32_buffer_no_resizing@@@@ABV<lambda_0fec1a7b3f42a53036604e18c2d5e07e>@@I@Z 10016a9c f   libucrt:getmodulefilenamea.obj
 0001:00015c3f       ??$?RV<lambda_ceb1ee4838e85a9d631eb091e2fbe199>@@AAV<lambda_ae742caa10f662c28703da3d2ea5e57e>@@V<lambda_cd08b5d6af4937fe54fc07d0c9bf6b37>@@@?$__crt_seh_guarded_call@X@@QAEX$$QAV<lambda_ceb1ee4838e85a9d631eb091e2fbe199>@@AAV<lambda_ae742caa10f662c28703da3d2ea5e57e>@@$$QAV<lambda_cd08b5d6af4937fe54fc07d0c9bf6b37>@@@Z 10016c3f f   libucrt:mbctype.obj
 0001:00015c8c       ??R<lambda_ae742caa10f662c28703da3d2ea5e57e>@@QBEXXZ 10016c8c f   libucrt:mbctype.obj
 0001:00015d0f       ?CPtoLocaleName@@YAPB_WH@Z 10016d0f f   libucrt:mbctype.obj
 0001:00015d4d       ?getSystemCP@@YAHH@Z       10016d4d f   libucrt:mbctype.obj
 0001:00015dbe       ?setSBCS@@YAXPAU__crt_multibyte_data@@@Z 10016dbe f   libucrt:mbctype.obj
 0001:00015e23       ?setSBUpLow@@YAXPAU__crt_multibyte_data@@@Z 10016e23 f   libucrt:mbctype.obj
 0001:00015fa4       ?setmbcp_internal@@YAHH_NQAU__acrt_ptd@@QAPAU__crt_multibyte_data@@@Z 10016fa4 f   libucrt:mbctype.obj
 0001:000160bd       ?update_thread_multibyte_data_internal@@YAPAU__crt_multibyte_data@@QAU__acrt_ptd@@QAPAU1@@Z 100170bd f   libucrt:mbctype.obj
 0001:000163ab       _memcpy_s                  100173ab f   libucrt:cfout.obj
 0001:000163ab       _memcpy_s                  100173ab f   libucrt:mbctype.obj
 0001:0001642c       ?x_ismbbtype_l@@YAHPAU__crt_locale_pointers@@IHH@Z 1001742c f   libucrt:ismbbyte.obj
 0001:000165dd       ?find_end_of_double_null_terminated_sequence@@YAPB_WQB_W@Z 100175dd f   libucrt:get_environment_from_os.obj
 0001:0001674c       ??$?RV<lambda_cbab9ec6f41b0180b23cc171c22676b0>@@AAV<lambda_44731a7d0e6d81c3e6aa82d741081786>@@V<lambda_4b292cb8dd18144e164572427af410ab>@@@?$__crt_seh_guarded_call@P6AXH@Z@@QAEP6AXH@Z$$QAV<lambda_cbab9ec6f41b0180b23cc171c22676b0>@@AAV<lambda_44731a7d0e6d81c3e6aa82d741081786>@@$$QAV<lambda_4b292cb8dd18144e164572427af410ab>@@@Z 1001774c f   libucrt:signal.obj
 0001:000167b0       ?get_global_action_nolock@@YAPAP6AXH@ZH@Z 100177b0 f   libucrt:signal.obj
 0001:000167f2       ?siglookup@@YAPAU__crt_signal_action_t@@HQAU1@@Z 100177f2 f   libucrt:signal.obj
 0001:00016abc       ??$?RV<lambda_2866be3712abc81a800a822484c830d8>@@AAV<lambda_39ca0ed439415581b5b15c265174cece>@@V<lambda_2b24c74d71094a6cd0cb82e44167d71b>@@@?$__crt_seh_guarded_call@X@@QAEX$$QAV<lambda_2866be3712abc81a800a822484c830d8>@@AAV<lambda_39ca0ed439415581b5b15c265174cece>@@$$QAV<lambda_2b24c74d71094a6cd0cb82e44167d71b>@@@Z 10017abc f   libucrt:fflush.obj
 0001:00016b48       ??$?RV<lambda_2cc53f568c5a2bb6f192f930a45d44ea>@@AAV<lambda_ab61a845afdef5b7c387490eaf3616ee>@@V<lambda_c2ffc0b7726aa6be21d5f0026187e748>@@@?$__crt_seh_guarded_call@X@@QAEX$$QAV<lambda_2cc53f568c5a2bb6f192f930a45d44ea>@@AAV<lambda_ab61a845afdef5b7c387490eaf3616ee>@@$$QAV<lambda_c2ffc0b7726aa6be21d5f0026187e748>@@@Z 10017b48 f   libucrt:fflush.obj
 0001:00016bf4       ?common_flush_all@@YAH_N@Z 10017bf4 f   libucrt:fflush.obj
 0001:00016c41       ?common_flush_all_should_try_to_flush_stream@@YA_NV__crt_stdio_stream@@QAH@Z 10017c41 f   libucrt:fflush.obj
 0001:00016c74       ?is_stream_flushable_or_commitable@@YA_NJ@Z 10017c74 f   libucrt:fflush.obj
 0001:0001717d       ?GetTableIndexFromLocaleName@@YAHPB_W@Z 1001817d f   libucrt:lcidtoname_downlevel.obj
 0001:00017233       ??R<lambda_3d301b9e52f5099be73030e1f0bf487e>@@QBEIPBD@Z 10018233 f   libucrt:mbrtowc.obj
 0001:00018f0a       ?free_crt_array_internal@@YAXQAPBXI@Z 10019f0a f   libucrt:inittime.obj
 0001:000193e0       ?swap@@YAXPAD0I@Z          1001a3e0 f   libucrt:qsort.obj
 0001:00019864       ??$common_tcsncpy_s@D@@YAHQADIQBDI@Z 1001a864 f   libucrt:strncpy_s.obj
 0001:00019930       $$000000                   1001a930     libucrt:strpbrk.obj
 0001:00019a14       ?__acrt_LCMapStringA_stat@@YAHPAU__crt_locale_pointers@@PB_WKPBDHPADHHH@Z 1001aa14 f   libucrt:lcmapstringa.obj
 0001:00019c47       ?initialize_multibyte@@YAHXZ 1001ac47 f   libucrt:multibyte_initializer.obj
 0001:00019c56       ??$?RV<lambda_9e9de3de5fa147e2223d7db92bc10aa6>@@AAV<lambda_38ce7e780aa69e748d6df282ebc68efe>@@V<lambda_8ca6da459f0f6780f1cff60fdc3d00e5>@@@?$__crt_seh_guarded_call@H@@QAEH$$QAV<lambda_9e9de3de5fa147e2223d7db92bc10aa6>@@AAV<lambda_38ce7e780aa69e748d6df282ebc68efe>@@$$QAV<lambda_8ca6da459f0f6780f1cff60fdc3d00e5>@@@Z 1001ac56 f   libucrt:commit.obj
 0001:00019d75       ?write_double_translated_ansi_nolock@@YA?AUwrite_result@?A0x17268360@@HQBDI@Z 1001ad75 f   libucrt:write.obj
 0001:0001a11f       ?write_double_translated_unicode_nolock@@YA?AUwrite_result@?A0x17268360@@QBDI@Z 1001b11f f   libucrt:write.obj
 0001:0001a187       ?write_requires_double_translation_nolock@@YA_NH@Z 1001b187 f   libucrt:write.obj
 0001:0001a1f8       ?write_text_ansi_nolock@@YA?AUwrite_result@?A0x17268360@@HQBDI@Z 1001b1f8 f   libucrt:write.obj
 0001:0001a2d3       ?write_text_utf16le_nolock@@YA?AUwrite_result@?A0x17268360@@HQBDI@Z 1001b2d3 f   libucrt:write.obj
 0001:0001a3bc       ?write_text_utf8_nolock@@YA?AUwrite_result@?A0x17268360@@HQBDI@Z 1001b3bc f   libucrt:write.obj
 0001:0001aa90       $$000000                   1001ba90     libucrt:log10_impl.obj
 0001:0001aba0       $$000000                   1001bba0     libucrt:ceil_pentium4.obj
 0001:0001acbd       ??$common_lseek_nolock@_J@@YA_JH_JH@Z 1001bcbd f   libucrt:lseek.obj
 0001:0001aea3       ?to_abstract_control@@YA?AW4__acrt_fenv_abstract_control@@W4__acrt_fenv_machine_sse_control@@@Z 1001bea3 f   libucrt:_fenvutils.obj
 0001:0001af5f       ?to_abstract_control@@YA?AW4__acrt_fenv_abstract_control@@W4__acrt_fenv_machine_x87_control@@@Z 1001bf5f f   libucrt:_fenvutils.obj
 0001:0001b018       ?to_machine_sse_control@@YA?AW4__acrt_fenv_machine_sse_control@@W4__acrt_fenv_abstract_control@@@Z 1001c018 f   libucrt:_fenvutils.obj
 0001:0001b0e5       ?to_machine_x87_control@@YA?AW4__acrt_fenv_machine_x87_control@@W4__acrt_fenv_abstract_control@@@Z 1001c0e5 f   libucrt:_fenvutils.obj
 0001:0001b540       $$000000                   1001c540     libucrt:log10_pentium4.obj
 0001:0001b7d0       $$000000                   1001c7d0     libucrt:87tran.obj
 0001:0001b9e0       $$000000                   1001c9e0     libucrt:87disp.obj
 0001:0001bc40       $$000000                   1001cc40     libucrt:common.obj
 0001:0001bdd0       $$000000                   1001cdd0     libucrt:genexcep.obj
 0001:0001c0cc       ??$?RV<lambda_218ce3db14220d0be481dae8ef3383b6>@@AAV<lambda_628dfdc04ba53c8bfc02c9951375f3f5>@@V<lambda_57dc472bd5c9d5f3b2cbca59b8a843ae>@@@?$__crt_seh_guarded_call@H@@QAEH$$QAV<lambda_218ce3db14220d0be481dae8ef3383b6>@@AAV<lambda_628dfdc04ba53c8bfc02c9951375f3f5>@@$$QAV<lambda_57dc472bd5c9d5f3b2cbca59b8a843ae>@@@Z 1001d0cc f   libucrt:close.obj
 0001:0001c2c0       $$000000                   1001d2c0     libucrt:_strnicm.obj
 0001:0001c321       ?__dcrt_lowio_initialize_console_output@@YAXXZ 1001d321 f   libucrt:initcon.obj
 0001:0001d180       $$000000                   1001e180     LIBCMT:ulldvrm.obj
 0001:0001d220       $$000000                   1001e220     LIBCMT:llmul.obj
 0001:0001d260       $$000000                   1001e260     LIBCMT:lldvrm.obj
 0001:0001d340       $$000000                   1001e340     LIBCMT:ullshr.obj
 0001:0001d360       $$000000                   1001e360     LIBCMT:llshl.obj
 0001:0001d380       $$000000                   1001e380     LIBCMT:ftol2.obj
 0001:0001d620       $$000000                   1001e620     libvcruntime:strrchr.obj
 0001:0001d760       $$000000                   1001e760     libvcruntime:strchr.obj
 0001:0001d903       __ehhandler$??2@YAPAXIABUnothrow_t@std@@@Z 1001e903 f   LIBCMT:new_scalar_nothrow.obj
 0001:0001d91e       __ehhandler$?CallUnexpected@@YAXPBU_s_ESTypeList@@@Z 1001e91e f   libvcruntime:frame.obj
 0001:0001d939       ??__F_AtlComModule@ATL@@YAXXZ 1001e939 f   OposVariant.obj
 0001:0001d943       ??__F_AtlWinModule@ATL@@YAXXZ 1001e943 f   OposVariant.obj
 0001:0001d95d       ??__F_Module@@YAXXZ        1001e95d f   SigCap.obj
 0001:0001d971       ??__F_AtlBaseModule@ATL@@YAXXZ 1001e971 f   atls:atlbase.obj
 0002:00000304       ?_AtlBaseModule$initializer$@ATL@@3P6AXXZA 1001f304     atls:atlbase.obj
 0002:00000308       ?_AtlComModule$initializer$@ATL@@3P6AXXZA 1001f308     OposVariant.obj
 0002:0000030c       ?_AtlWinModule$initializer$@ATL@@3P6AXXZA 1001f30c     OposVariant.obj
 0002:00000310       ?_Module$initializer$@@3P6AXXZA 1001f310     SigCap.obj
 0002:00000314       ??pConnMap$initializer$@?$IConnectionPointContainerImpl@VCOPOSSigCap@@@ATL@@0P6AXXZA@@3P6AXXZA 1001f314     SigCap.obj
 0002:00000320       ?__scrt_initialize_tss_var@@3P6AHXZA 1001f320     LIBCMT:thread_safe_statics.obj
 0002:00001858       _GS_ExceptionPointers      10020858     LIBCMT:gs_report.obj
 0002:000019e8       ?tokenTable@@3QBUStringLiteral@@B 100209e8     libvcruntime:undname.obj
 0002:00001a68       ?nameTable@@3QBUStringLiteral@@B 10020a68     libvcruntime:undname.obj
 0002:00001d00       ?rttiTable@@3QBUStringLiteral@@B 10020d00     libvcruntime:undname.obj
 0002:00001d28       ?IndirectionName@@3QBUStringLiteral@@B 10020d28     libvcruntime:undname.obj
 0002:00001d58       ?PrefixName@@3QBUStringLiteral@@B 10020d58     libvcruntime:undname.obj
 0002:00002388       ?module_names@?A0x1172487b@@3QBQB_WB 10021388     libvcruntime:winapi_downlevel.obj
 0002:00002430       ?candidate_modules@?1??try_get_FlsAlloc@@YAP6GKP6GXPAX@Z@ZXZ@4QBW4module_id@?A0x1172487b@@B 10021430     libvcruntime:winapi_downlevel.obj
 0002:00002444       ?candidate_modules@?1??try_get_FlsFree@@YAP6GHK@ZXZ@4QBW4module_id@?A0x1172487b@@B 10021444     libvcruntime:winapi_downlevel.obj
 0002:00002454       ?candidate_modules@?1??try_get_FlsGetValue@@YAP6GPAXK@ZXZ@4QBW4module_id@?A0x1172487b@@B 10021454     libvcruntime:winapi_downlevel.obj
 0002:00002468       ?candidate_modules@?1??try_get_FlsSetValue@@YAP6GHKPAX@ZXZ@4QBW4module_id@?A0x1172487b@@B 10021468     libvcruntime:winapi_downlevel.obj
 0002:0000247c       ?candidate_modules@?1??try_get_InitializeCriticalSectionEx@@YAP6GHPAU_RTL_CRITICAL_SECTION@@KK@ZXZ@4QBW4module_id@?A0x1172487b@@B 1002147c     libvcruntime:winapi_downlevel.obj
 0002:000024a0       ?errtable@@3QBUerrentry@?A0x31fdb9ec@@B 100214a0     libucrt:errno.obj
 0002:00002748       ___acrt_initializers       10021748     libucrt:initialization.obj
 0002:000027c8       ?module_names@?A0x391cf84c@@3QBQB_WB 100217c8     libucrt:winapi_thunks.obj
 0002:00002c40       ?candidate_modules@?1??try_get_AreFileApisANSI@@YAP6GHXZXZ@4QBW4module_id@?A0x391cf84c@@B 10021c40     libucrt:winapi_thunks.obj
 0002:00002c54       ?candidate_modules@?1??try_get_FlsAlloc@@YAP6GKP6GXPAX@Z@ZXZ@4QBW4module_id@?A0x391cf84c@@B 10021c54     libucrt:winapi_thunks.obj
 0002:00002c5c       ?candidate_modules@?1??try_get_FlsFree@@YAP6GHK@ZXZ@4QBW4module_id@?A0x391cf84c@@B 10021c5c     libucrt:winapi_thunks.obj
 0002:00002c64       ?candidate_modules@?1??try_get_FlsGetValue@@YAP6GPAXK@ZXZ@4QBW4module_id@?A0x391cf84c@@B 10021c64     libucrt:winapi_thunks.obj
 0002:00002c6c       ?candidate_modules@?1??try_get_FlsSetValue@@YAP6GHKPAX@ZXZ@4QBW4module_id@?A0x391cf84c@@B 10021c6c     libucrt:winapi_thunks.obj
 0002:00002c74       ?candidate_modules@?1??try_get_InitializeCriticalSectionEx@@YAP6GHPAU_RTL_CRITICAL_SECTION@@KK@ZXZ@4QBW4module_id@?A0x391cf84c@@B 10021c74     libucrt:winapi_thunks.obj
 0002:00002c7c       ?candidate_modules@?1??try_get_LCMapStringEx@@YAP6GHPB_WK0HPA_WHPAU_nlsversioninfo@@PAXJ@ZXZ@4QBW4module_id@?A0x391cf84c@@B 10021c7c     libucrt:winapi_thunks.obj
 0002:00002c94       ?candidate_modules@?1??try_get_LocaleNameToLCID@@YAP6GKPB_WK@ZXZ@4QBW4module_id@?A0x391cf84c@@B 10021c94     libucrt:winapi_thunks.obj
 0002:00002cb0       ?candidate_modules@?1??try_get_AppPolicyGetProcessTerminationMethod@@YAP6GJPAXPAW4AppPolicyProcessTerminationMethod@@@ZXZ@4QBW4module_id@?A0x391cf84c@@B 10021cb0     libucrt:winapi_thunks.obj
 0002:00002cdc       ?candidate_modules@?1??try_get_SetThreadStackGuarantee@@YAP6GHPAK@ZXZ@4QBW4module_id@?A0x391cf84c@@B 10021cdc     libucrt:winapi_thunks.obj
 0002:00002d00       ?strings@?1??fp_format_nan_or_infinity@@YAHW4__acrt_fp_class@@_NPADI1@Z@4QAY03QBDA 10021d00     libucrt:cvt.obj
 0002:00003248       ?_mb_locale_names@@3QBQB_WB 10022248     libucrt:mbctype.obj
 0002:00003a90       ?LcidToLocaleNameTable@?A0x881e4c05@@3QBULcidToLocaleName@1@B 10022a90     libucrt:lcidtoname_downlevel.obj
 0002:00004bb8       ?LocaleNameToIndexTable@?A0x881e4c05@@3QBULocaleNameIndex@1@B 10023bb8     libucrt:lcidtoname_downlevel.obj
 0002:00006410       ?large_power_indices@?1??multiply_by_power_of_ten@__crt_strtox@@YA_NAAUbig_integer@2@I@Z@4QBUunpack_index@?1??12@YA_N0I@Z@B 10025410     libucrt:cfout.obj
 0002:000064f0       LOG_name                   100254f0     libucrt:log10_impl.obj
 0002:00006500       _One                       10025500     libucrt:ceil_pentium4.obj
 0002:00006510       _Bns                       10025510     libucrt:ceil_pentium4.obj
 0002:00006520       _Zero                      10025520     libucrt:ceil_pentium4.obj
 0002:00006530       _S                         10025530     libucrt:ceil_pentium4.obj
 0002:00006540       _NegZero                   10025540     libucrt:ceil_pentium4.obj
 0002:00006550       emask                      10025550     libucrt:log10_pentium4.obj
 0002:00006560       CC                         10025560     libucrt:log10_pentium4.obj
 0002:00006570       Magic                      10025570     libucrt:log10_pentium4.obj
 0002:00006580       hi_mask                    10025580     libucrt:log10_pentium4.obj
 0002:00006590       LOG10_2                    10025590     libucrt:log10_pentium4.obj
 0002:000065a0       place_L                    100255a0     libucrt:log10_pentium4.obj
 0002:000065c0       One                        100255c0     libucrt:log10_pentium4.obj
 0002:000065d0       Zero                       100255d0     libucrt:log10_pentium4.obj
 0002:000065e0       Two52                      100255e0     libucrt:log10_pentium4.obj
 0002:000065f0       Infs                       100255f0     libucrt:log10_pentium4.obj
 0002:00006600       NaN                        10025600     libucrt:log10_pentium4.obj
 0002:00006610       coeff                      10025610     libucrt:log10_pentium4.obj
 0002:0000666e       _log2max                   1002566e     libucrt:87tran.obj
 0002:00006678       _smallarg                  10025678     libucrt:87tran.obj
 0002:00006682       _half                      10025682     libucrt:87tran.obj
 0002:000066ce       One                        100256ce     libucrt:87disp.obj
 0002:000066d6       Three                      100256d6     libucrt:87disp.obj
 0002:000066de       XAMtoTagTab                100256de     libucrt:87disp.obj
 0002:000066f0       One                        100256f0     libucrt:common.obj
 0002:00006704       DblMax                     10025704     libucrt:common.obj
 0002:0000670c       DblMin                     1002570c     libucrt:common.obj
 0002:00006714       IeeeAdjO                   10025714     libucrt:common.obj
 0002:0000671c       IeeeAdjU                   1002571c     libucrt:common.obj
 0002:00006724       _infinity                  10025724     libucrt:common.obj
 0002:0000672c       _zero                      1002572c     libucrt:common.obj
 0002:00006778       _over                      10025778     libucrt:fpctrl.obj
 0002:00006784       _under                     10025784     libucrt:fpctrl.obj
 0002:00006fb8       ?_names@?1??_get_fname@@9@9 10025fb8     libucrt:fpexcept.obj
 0002:00007160       two32                      10026160     LIBCMT:ftol2.obj
 0002:00007164       two63                      10026164     LIBCMT:ftol2.obj
 0002:00007168       _NaN                       10026168     LIBCMT:ftol2.obj
 0002:00007818       __sehtable$?_AtlVerifyStackAvailable@_ATL_SAFE_ALLOCA_IMPL@ATL@@YA_NK@Z 10026818     SigCap.obj
 0002:00007838       __sehtable$___scrt_is_nonwritable_in_current_image 10026838     LIBCMT:utility.obj
 0002:00007854       __catchsym$??2@YAPAXIABUnothrow_t@std@@@Z$2 10026854     LIBCMT:new_scalar_nothrow.obj
 0002:00007864       __unwindtable$??2@YAPAXIABUnothrow_t@std@@@Z 10026864     LIBCMT:new_scalar_nothrow.obj
 0002:00007874       __tryblocktable$??2@YAPAXIABUnothrow_t@std@@@Z 10026874     LIBCMT:new_scalar_nothrow.obj
 0002:00007888       __ehfuncinfo$??2@YAPAXIABUnothrow_t@std@@@Z 10026888     LIBCMT:new_scalar_nothrow.obj
 0002:000078b0       __sehtable$?dllmain_crt_process_attach@@YAHQAUHINSTANCE__@@QAX@Z 100268b0     LIBCMT:dll_dllmain.obj
 0002:000078d0       __sehtable$?dllmain_crt_process_detach@@YAH_N@Z 100268d0     LIBCMT:dll_dllmain.obj
 0002:000078f8       __sehtable$?dllmain_dispatch@@YAHQAUHINSTANCE__@@KQAX@Z 100268f8     LIBCMT:dll_dllmain.obj
 0002:000079a8       __sehtable$___DestructExceptionObject 100269a8     libvcruntime:ehhelpers.obj
 0002:000079c8       __sehtable$?FrameUnwindToState@__FrameHandler3@@SAXPAUEHRegistrationNode@@PAXPBU_s_FuncInfo@@H@Z 100269c8     libvcruntime:frame.obj
 0002:000079f0       __sehtable$?CallCatchBlock@@YAPAXPAUEHExceptionRecord@@PAUEHRegistrationNode@@PAU_CONTEXT@@PBU_s_FuncInfo@@PAXHK@Z 100269f0     libvcruntime:frame.obj
 0002:00007a18       __catchsym$?CallUnexpected@@YAXPBU_s_ESTypeList@@@Z$2 10026a18     libvcruntime:frame.obj
 0002:00007a28       __unwindtable$?CallUnexpected@@YAXPBU_s_ESTypeList@@@Z 10026a28     libvcruntime:frame.obj
 0002:00007a38       __tryblocktable$?CallUnexpected@@YAXPBU_s_ESTypeList@@@Z 10026a38     libvcruntime:frame.obj
 0002:00007a4c       __ehfuncinfo$?CallUnexpected@@YAXPBU_s_ESTypeList@@@Z 10026a4c     libvcruntime:frame.obj
 0002:00007a70       __sehtable$??$BuildCatchObjectHelperInternal@V__FrameHandler3@@@@YAHPAUEHExceptionRecord@@PAXPBU_s_HandlerType@@PBU_s_CatchableType@@@Z 10026a70     libvcruntime:frame.obj
 0002:00007a90       __sehtable$??$BuildCatchObjectInternal@V__FrameHandler3@@@@YAXPAUEHExceptionRecord@@PAXPBU_s_HandlerType@@PBU_s_CatchableType@@@Z 10026a90     libvcruntime:frame.obj
 0002:00007ae8       __sehtable$??R<lambda_6e4b09c48022b2350581041d5f6b0c4c>@@QBE@XZ 10026ae8     libucrt:exit.obj
 0002:00007b08       __sehtable$??$?RV<lambda_03b1d95aef87969028cfba75ccab2455>@@AAV<lambda_6e4b09c48022b2350581041d5f6b0c4c>@@V<lambda_22bdf7517842c4b3e53723af5aa32b9e>@@@?$__crt_seh_guarded_call@X@@QAEX$$QAV<lambda_03b1d95aef87969028cfba75ccab2455>@@AAV<lambda_6e4b09c48022b2350581041d5f6b0c4c>@@$$QAV<lambda_22bdf7517842c4b3e53723af5aa32b9e>@@@Z 10026b08     libucrt:exit.obj
 0002:00007b28       __sehtable$??$?RV<lambda_8e746cf0007f6ed984d6f78af1fec997>@@AAV<lambda_22ebabd17bc4fa466a2aca6d8deb888d>@@V<lambda_18ed0c0b38a6dc0daf1e7ac6d6adf05e>@@@?$__crt_seh_guarded_call@H@@QAEH$$QAV<lambda_8e746cf0007f6ed984d6f78af1fec997>@@AAV<lambda_22ebabd17bc4fa466a2aca6d8deb888d>@@$$QAV<lambda_18ed0c0b38a6dc0daf1e7ac6d6adf05e>@@@Z 10026b28     libucrt:onexit.obj
 0002:00007b48       __sehtable$??$?RV<lambda_69a2805e680e0e292e8ba93315fe43a8>@@AAV<lambda_f03950bc5685219e0bcd2087efbe011e>@@V<lambda_03fcd07e894ec930e3f35da366ca99d6>@@@?$__crt_seh_guarded_call@H@@QAEH$$QAV<lambda_69a2805e680e0e292e8ba93315fe43a8>@@AAV<lambda_f03950bc5685219e0bcd2087efbe011e>@@$$QAV<lambda_03fcd07e894ec930e3f35da366ca99d6>@@@Z 10026b48     libucrt:onexit.obj
 0002:00007b68       __sehtable$__query_new_handler 10026b68     libucrt:new_handler.obj
 0002:00007b88       __sehtable$_terminate      10026b88     libucrt:terminate.obj
 0002:00007ba8       __sehtable$??$?RV<lambda_15ade71b0218206bbe3333a0c9b79046>@@AAV<lambda_da44e0f8b0f19ba52fefafb335991732>@@V<lambda_207f2d024fc103971653565357d6cd41>@@@?$__crt_seh_guarded_call@X@@QAEX$$QAV<lambda_15ade71b0218206bbe3333a0c9b79046>@@AAV<lambda_da44e0f8b0f19ba52fefafb335991732>@@$$QAV<lambda_207f2d024fc103971653565357d6cd41>@@@Z 10026ba8     libucrt:per_thread_data.obj
 0002:00007bc8       __sehtable$??$?RV<lambda_a7e850c220f1c8d1e6efeecdedd162c6>@@AAV<lambda_46720907175c18b6c9d2717bc0d2d362>@@V<lambda_9048902d66e8d99359bc9897bbb930a8>@@@?$__crt_seh_guarded_call@X@@QAEX$$QAV<lambda_a7e850c220f1c8d1e6efeecdedd162c6>@@AAV<lambda_46720907175c18b6c9d2717bc0d2d362>@@$$QAV<lambda_9048902d66e8d99359bc9897bbb930a8>@@@Z 10026bc8     libucrt:per_thread_data.obj
 0002:00007be8       __sehtable$??$?RV<lambda_38edbb1296d33220d7e4dd0ed76b244a>@@AAV<lambda_5ce1d447e08cb34b2473517608e21441>@@V<lambda_fb385d3da700c9147fc39e65dd577a8c>@@@?$__crt_seh_guarded_call@X@@QAEX$$QAV<lambda_38edbb1296d33220d7e4dd0ed76b244a>@@AAV<lambda_5ce1d447e08cb34b2473517608e21441>@@$$QAV<lambda_fb385d3da700c9147fc39e65dd577a8c>@@@Z 10026be8     libucrt:per_thread_data.obj
 0002:00007c08       __sehtable$??$?RV<lambda_6affb1475c98b40b75cdec977db92e3c>@@AAV<lambda_b8d4b9c228a6ecc3f80208dbb4b4a104>@@V<lambda_608742c3c92a14382c1684fc64f96c88>@@@?$__crt_seh_guarded_call@X@@QAEX$$QAV<lambda_6affb1475c98b40b75cdec977db92e3c>@@AAV<lambda_b8d4b9c228a6ecc3f80208dbb4b4a104>@@$$QAV<lambda_608742c3c92a14382c1684fc64f96c88>@@@Z 10026c08     libucrt:per_thread_data.obj
 0002:00007c28       __sehtable$??$?RV<lambda_e5124f882df8998aaf41531e079ba474>@@AAV<lambda_3e16ef9562a7dcce91392c22ab16ea36>@@V<lambda_e25ca0880e6ef98be67edffd8c599615>@@@?$__crt_seh_guarded_call@X@@QAEX$$QAV<lambda_e5124f882df8998aaf41531e079ba474>@@AAV<lambda_3e16ef9562a7dcce91392c22ab16ea36>@@$$QAV<lambda_e25ca0880e6ef98be67edffd8c599615>@@@Z 10026c28     libucrt:wsetlocale.obj
 0002:00007c48       __sehtable$___acrt_initialize_lowio 10026c48     libucrt:ioinit.obj
 0002:00007c68       __sehtable$?update_thread_multibyte_data_internal@@YAPAU__crt_multibyte_data@@QAU__acrt_ptd@@QAPAU1@@Z 10026c68     libucrt:mbctype.obj
 0002:00007c88       __sehtable$??$?RV<lambda_ceb1ee4838e85a9d631eb091e2fbe199>@@AAV<lambda_ae742caa10f662c28703da3d2ea5e57e>@@V<lambda_cd08b5d6af4937fe54fc07d0c9bf6b37>@@@?$__crt_seh_guarded_call@X@@QAEX$$QAV<lambda_ceb1ee4838e85a9d631eb091e2fbe199>@@AAV<lambda_ae742caa10f662c28703da3d2ea5e57e>@@$$QAV<lambda_cd08b5d6af4937fe54fc07d0c9bf6b37>@@@Z 10026c88     libucrt:mbctype.obj
 0002:00007ca8       __sehtable$_raise          10026ca8     libucrt:signal.obj
 0002:00007cc8       __sehtable$??$?RV<lambda_cbab9ec6f41b0180b23cc171c22676b0>@@AAV<lambda_44731a7d0e6d81c3e6aa82d741081786>@@V<lambda_4b292cb8dd18144e164572427af410ab>@@@?$__crt_seh_guarded_call@P6AXH@Z@@QAEP6AXH@Z$$QAV<lambda_cbab9ec6f41b0180b23cc171c22676b0>@@AAV<lambda_44731a7d0e6d81c3e6aa82d741081786>@@$$QAV<lambda_4b292cb8dd18144e164572427af410ab>@@@Z 10026cc8     libucrt:signal.obj
 0002:00007ce8       __sehtable$??$?RV<lambda_2866be3712abc81a800a822484c830d8>@@AAV<lambda_39ca0ed439415581b5b15c265174cece>@@V<lambda_2b24c74d71094a6cd0cb82e44167d71b>@@@?$__crt_seh_guarded_call@X@@QAEX$$QAV<lambda_2866be3712abc81a800a822484c830d8>@@AAV<lambda_39ca0ed439415581b5b15c265174cece>@@$$QAV<lambda_2b24c74d71094a6cd0cb82e44167d71b>@@@Z 10026ce8     libucrt:fflush.obj
 0002:00007d08       __sehtable$??$?RV<lambda_2cc53f568c5a2bb6f192f930a45d44ea>@@AAV<lambda_ab61a845afdef5b7c387490eaf3616ee>@@V<lambda_c2ffc0b7726aa6be21d5f0026187e748>@@@?$__crt_seh_guarded_call@X@@QAEX$$QAV<lambda_2cc53f568c5a2bb6f192f930a45d44ea>@@AAV<lambda_ab61a845afdef5b7c387490eaf3616ee>@@$$QAV<lambda_c2ffc0b7726aa6be21d5f0026187e748>@@@Z 10026d08     libucrt:fflush.obj
 0002:00007d28       __sehtable$___acrt_update_thread_locale_data 10026d28     libucrt:locale_refcounting.obj
 0002:00007d48       __sehtable$__fcloseall     10026d48     libucrt:closeall.obj
 0002:00007d68       __sehtable$___acrt_lowio_ensure_fh_exists 10026d68     libucrt:osfinfo.obj
 0002:00007d88       __sehtable$??$?RV<lambda_9e9de3de5fa147e2223d7db92bc10aa6>@@AAV<lambda_38ce7e780aa69e748d6df282ebc68efe>@@V<lambda_8ca6da459f0f6780f1cff60fdc3d00e5>@@@?$__crt_seh_guarded_call@H@@QAEH$$QAV<lambda_9e9de3de5fa147e2223d7db92bc10aa6>@@AAV<lambda_38ce7e780aa69e748d6df282ebc68efe>@@$$QAV<lambda_8ca6da459f0f6780f1cff60fdc3d00e5>@@@Z 10026d88     libucrt:commit.obj
 0002:00007da8       __sehtable$__write         10026da8     libucrt:write.obj
 0002:00007dc8       __sehtable$_fclose         10026dc8     libucrt:fclose.obj
 0002:00007de8       __sehtable$??$?RV<lambda_218ce3db14220d0be481dae8ef3383b6>@@AAV<lambda_628dfdc04ba53c8bfc02c9951375f3f5>@@V<lambda_57dc472bd5c9d5f3b2cbca59b8a843ae>@@@?$__crt_seh_guarded_call@H@@QAEH$$QAV<lambda_218ce3db14220d0be481dae8ef3383b6>@@AAV<lambda_628dfdc04ba53c8bfc02c9951375f3f5>@@$$QAV<lambda_57dc472bd5c9d5f3b2cbca59b8a843ae>@@@Z 10026de8     libucrt:close.obj
 0002:00007e08       __sehtable$__IsNonwritableInCurrentImage 10026e08     LIBCMT:pesect.obj
 0002:00007e30       .edata                     10026e30     OPOSSigCap.exp
 0002:00007e58       rgpv                       10026e58     OPOSSigCap.exp
 0002:00007e68       rgszName                   10026e68     OPOSSigCap.exp
 0002:00007e78       rgwOrd                     10026e78     OPOSSigCap.exp
 0002:00007e80       szName                     10026e80     OPOSSigCap.exp
 0002:00007e8f       $N00001                    10026e8f     OPOSSigCap.exp
 0002:00007e9f       $N00002                    10026e9f     OPOSSigCap.exp
 0002:00007eb1       $N00003                    10026eb1     OPOSSigCap.exp
 0002:00007ec3       $N00004                    10026ec3     OPOSSigCap.exp
 0002:000084d2       .idata$6                   100274d2     kernel32:KERNEL32.dll
 0002:000086e6       .idata$6                   100276e6     user32:USER32.dll
 0002:0000881a       .idata$6                   1002781a     gdi32:GDI32.dll
 0002:000088c0       .idata$6                   100278c0     advapi32:ADVAPI32.dll
 0002:000089dc       .idata$6                   100279dc     ole32:ole32.dll
 0002:000089e6       .idata$6                   100279e6     oleaut32:OLEAUT32.dll
 0003:00000110       ?ObjectMap@@3PAU_ATL_OBJMAP_ENTRY30@ATL@@A 10028110     SigCap.obj
 0003:000001c0       ?s_SOMethodNames@@3PAPADA  100281c0     SigCapImpl.obj
 0003:00000214       ?s_RequiredMethodsPerRelease@@3PAHA 10028214     SigCapImpl.obj
 0003:00000260       ?__vcrt_flsindex@@3KA      10028260     libvcruntime:per_thread_data.obj
 0003:00000280       ?errno_no_memory@@3HA      10028280     libucrt:errno.obj
 0003:00000284       ?doserrno_no_memory@@3KA   10028284     libucrt:errno.obj
 0003:00000290       ?__acrt_flsindex@@3KA      10028290     libucrt:per_thread_data.obj
 0003:00000628       __mbctypes                 10028628     libucrt:mbctype.obj
 0003:00000730       __mbcasemaps               10028730     libucrt:mbctype.obj
 0003:00000830       ?__rgctypeflag@@3PADA      10028830     libucrt:mbctype.obj
 0003:00000838       ?__rgcode_page_info@@3PAUcode_page_info@@A 10028838     libucrt:mbctype.obj
 0003:00000a90       ?__dcrt_lowio_console_output_handle@@3PAXA 10028a90     libucrt:initcon.obj
 0003:00000c28       ?is_initialized_as_dll@@3_NA 10028c28     LIBCMT:utility.obj
 0003:00000c29       ?module_local_atexit_table_initialized@@3_NA 10028c29     LIBCMT:utility.obj
 0003:00000c2c       ?module_local_atexit_table@@3U_onexit_table_t@@A 10028c2c     LIBCMT:utility.obj
 0003:00000c38       ?module_local_at_quick_exit_table@@3U_onexit_table_t@@A 10028c38     LIBCMT:utility.obj
 0003:00000c44       ?g_tss_cv@@3U_RTL_CONDITION_VARIABLE@@A 10028c44     LIBCMT:thread_safe_statics.obj
 0003:00000c48       ?g_tss_event@@3PAXA        10028c48     LIBCMT:thread_safe_statics.obj
 0003:00000c4c       ?g_tss_mutex@@3U_RTL_CRITICAL_SECTION@@A 10028c4c     LIBCMT:thread_safe_statics.obj
 0003:00000c64       ?g_sleep_condition_variable_cs@@3P6GHPAU_RTL_CONDITION_VARIABLE@@PAU_RTL_CRITICAL_SECTION@@K@ZA 10028c64     LIBCMT:thread_safe_statics.obj
 0003:00000c68       ?g_wake_all_condition_variable@@3P6GXPAU_RTL_CONDITION_VARIABLE@@@ZA 10028c68     LIBCMT:thread_safe_statics.obj
 0003:00000c70       _GS_ExceptionRecord        10028c70     LIBCMT:gs_report.obj
 0003:00000cc0       _GS_ContextRecord          10028cc0     LIBCMT:gs_report.obj
 0003:00000f90       ?__proc_attached@@3HA      10028f90     LIBCMT:dll_dllmain.obj
 0003:00000fec       ?AllocateData@@3P6GPAUAtlThunkData_t@@XZA 10028fec     atls:atlthunk.obj
 0003:00000ff0       ?InitData@@3P6GXPAUAtlThunkData_t@@PAXI@ZA 10028ff0     atls:atlthunk.obj
 0003:00000ff4       ?DataToCode@@3P6GP6GJPAUHWND__@@IIJ@ZPAUAtlThunkData_t@@@ZA 10028ff4     atls:atlthunk.obj
 0003:00000ff8       ?FreeData@@3P6GXPAUAtlThunkData_t@@@ZA 10028ff8     atls:atlthunk.obj
 0003:00000ffc       ?Initialized@@3_NA         10028ffc     atls:atlthunk.obj
 0003:0000100c       ?__vcrt_startup_thread_ptd@@3U__vcrt_ptd@@A 1002900c     libvcruntime:per_thread_data.obj
 0003:00001034       ___vcrt_lock_table         10029034     libvcruntime:locks.obj
 0003:0000104c       ___vcrt_locks_initialized  1002904c     libvcruntime:locks.obj
 0003:00001078       ?heap@@3V_HeapManager@@A   10029078     libvcruntime:undname.obj
 0003:0000108c       ?module_handles@@3PAPAUHINSTANCE__@@A 1002908c     libvcruntime:winapi_downlevel.obj
 0003:00001098       ?function_pointers@@3PAPAXA 10029098     libvcruntime:winapi_downlevel.obj
 0003:000010ac       ?__acrt_invalid_parameter_handler@@3V?$dual_state_global@P6AXPB_W00II@Z@__crt_state_management@@A 100290ac     libucrt:invalid_parameter.obj
 0003:000010b0       ?c_termination_complete@@3JA 100290b0     libucrt:exit.obj
 0003:000010b4       ?thread_local_exit_callback_func@@3P6GXPAXK0@ZA 100290b4     libucrt:exit.obj
 0003:000010c0       ?program_name@?1???$common_configure_argv@D@@YAHW4_crt_argv_mode@@@Z@4PADA 100290c0     libucrt:argv_parsing.obj
 0003:000011f0       ?__acrt_new_handler@@3V?$dual_state_global@P6AHI@Z@__crt_state_management@@A 100291f0     libucrt:new_handler.obj
 0003:000011f8       ?module_handles@@3PAPAUHINSTANCE__@@A 100291f8     libucrt:winapi_thunks.obj
 0003:00001248       ?encoded_function_pointers@@3PAPAXA 10029248     libucrt:winapi_thunks.obj
 0003:000012d0       ?internal_state@?1??_mbtowc_l@@9@4U_Mbstatet@@A 100292d0     libucrt:mbtowc.obj
 0003:000012e0       ?enable_percent_n@@3IA     100292e0     libucrt:printf_count_output.obj
 0003:00001500       ?__acrt_lock_table@@3PAU_RTL_CRITICAL_SECTION@@A 10029500     libucrt:locks.obj
 0003:00001650       ?__acrt_locks_initialized@@3IA 10029650     libucrt:locks.obj
 0003:00001660       ?fSystemSet@@3HA           10029660     libucrt:mbctype.obj
 0003:00001664       ?initialized@?1??__acrt_initialize_multibyte@@9@4_NA 10029664     libucrt:mbctype.obj
 0003:00001684       ?ctrlc_action@@3V?$dual_state_global@P6AXH@Z@__crt_state_management@@A 10029684     libucrt:signal.obj
 0003:00001688       ?ctrlbreak_action@@3V?$dual_state_global@P6AXH@Z@__crt_state_management@@A 10029688     libucrt:signal.obj
 0003:0000168c       ?abort_action@@3V?$dual_state_global@P6AXH@Z@__crt_state_management@@A 1002968c     libucrt:signal.obj
 0003:00001690       ?term_action@@3V?$dual_state_global@P6AXH@Z@__crt_state_management@@A 10029690     libucrt:signal.obj
 0003:00001694       ?user_matherr@@3V?$dual_state_global@P6AHPAU_exception@@@Z@__crt_state_management@@A 10029694     libucrt:matherr.obj
 0003:00001698       ?__acrt_global_new_mode@@3V?$dual_state_global@J@__crt_state_management@@A 10029698     libucrt:new_mode.obj
 0003:000016a4       ?internal_pst@?1??__mbrtoc32_utf8@__crt_mbstring@@YAIPA_UPBDIPAU_Mbstatet@@@Z@4U3@A 100296a4     libucrt:mbrtoc32.obj
 0003:000016ac       ?__acrt_app_type@@3W4_crt_app_type@@A 100296ac     libucrt:report_runtime_error.obj
 0003:000016b4       __pmatherr_set             100296b4     libucrt:libm_error.obj
 0004:00000220       $R000000                   1002a220     SigCap.res
 0004:00000ba0       $R000980                   1002aba0     SigCap.res
 0004:00000c88       $R000A68                   1002ac88     SigCap.res
 0004:00000ef0       $R000CD0                   1002aef0     SigCap.res
 0004:00001438       $R001218                   1002b438     SigCap.res
 0004:00003fe8       $R003DC8                   1002dfe8     SigCap.res
 0004:00004018       $R003DF8                   1002e018     SigCap.res
