 OPOSVoiceRecognition

 Timestamp is 61a75a40 (Wed Dec  1 20:19:28 2021)

 Preferred load address is 10000000

 Start         Length     Name                   Class
 0001:00000000 00000080H .text$di                CODE
 0001:00000080 0001ebf8H .text$mn                CODE
 0001:0001ec78 000000d8H .text$x                 CODE
 0001:0001ed50 00000042H .text$yd                CODE
 0002:00000000 000002fcH .idata$5                DATA
 0002:000002fc 00000008H .00cfg                  DATA
 0002:00000304 00000004H .CRT$XCA                DATA
 0002:00000308 00000004H .CRT$XCL                DATA
 0002:0000030c 00000010H .CRT$XCU                DATA
 0002:0000031c 00000004H .CRT$XCZ                DATA
 0002:00000320 00000004H .CRT$XIA                DATA
 0002:00000324 00000010H .CRT$XIC                DATA
 0002:00000334 00000004H .CRT$XIZ                DATA
 0002:00000338 00000004H .CRT$XLA                DATA
 0002:0000033c 00000004H .CRT$XLZ                DATA
 0002:00000340 00000004H .CRT$XPA                DATA
 0002:00000344 00000008H .CRT$XPX                DATA
 0002:0000034c 00000004H .CRT$XPXA               DATA
 0002:00000350 00000004H .CRT$XPZ                DATA
 0002:00000354 00000004H .CRT$XTA                DATA
 0002:00000358 00000008H .CRT$XTZ                DATA
 0002:0000035c 00000000H .gfids$y                DATA
 0002:00000360 00006e20H .rdata                  DATA
 0002:00007180 00000000H .rdata$CastGuardVftablesA DATA
 0002:00007180 00000000H .rdata$CastGuardVftablesC DATA
 0002:00007180 00000018H .rdata$T                DATA
 0002:00007198 00000178H .rdata$r                DATA
 0002:00007310 0000002cH .rdata$sxdata           DATA
 0002:0000733c 00000030H .rdata$voltmd           DATA
 0002:0000736c 00000410H .rdata$zzzdbg           DATA
 0002:0000777c 00000004H .rtc$IAA                DATA
 0002:00007780 00000004H .rtc$IZZ                DATA
 0002:00007784 00000004H .rtc$TAA                DATA
 0002:00007788 00000004H .rtc$TZZ                DATA
 0002:0000778c 00000004H .tls                    DATA
 0002:00007790 00000004H .tls$                   DATA
 0002:00007794 00000004H .tls$ZZZ                DATA
 0002:00007798 000006dcH .xdata$x                DATA
 0002:00007e74 00000004H ATL$__a                 DATA
 0002:00007e78 00000008H ATL$__z                 DATA
 0002:00007e80 000000b4H .edata                  DATA
 0002:00007f34 00000078H .idata$2                DATA
 0002:00007fac 00000014H .idata$3                DATA
 0002:00007fc0 000002fcH .idata$4                DATA
 0002:000082bc 00000bceH .idata$6                DATA
 0003:00000000 00000a90H .data                   DATA
 0003:00000a90 00000080H .data$r                 DATA
 0003:00000b10 00000018H .data$rs                DATA
 0003:00000b28 00000b80H .bss                    DATA
 0004:00000000 00000220H .rsrc$01                DATA
 0004:00000220 00003dc0H .rsrc$02                DATA

  Address         Publics by Value              Rva+Base       Lib:Object

 0000:00000000       ___guard_fids_count        00000000     <absolute>
 0000:00000000       ___guard_eh_cont_table     00000000     <absolute>
 0000:00000000       ___guard_longjmp_table     00000000     <absolute>
 0000:00000000       ___arm64x_extra_rfe_table  00000000     <absolute>
 0000:00000000       ___arm64x_redirection_metadata 00000000     <absolute>
 0000:00000000       ___guard_iat_count         00000000     <absolute>
 0000:00000000       ___guard_eh_cont_count     00000000     <absolute>
 0000:00000000       __except_list              00000000     <absolute>
 0000:00000000       ___x64_code_ranges_to_entry_points_count 00000000     <absolute>
 0000:00000000       ___hybrid_code_map_count   00000000     <absolute>
 0000:00000000       ___x64_code_ranges_to_entry_points 00000000     <absolute>
 0000:00000000       ___guard_iat_table         00000000     <absolute>
 0000:00000000       ___arm64x_native_entrypoint 00000000     <absolute>
 0000:00000000       ___hybrid_code_map         00000000     <absolute>
 0000:00000000       ___arm64x_extra_rfe_table_size 00000000     <absolute>
 0000:00000000       ___guard_longjmp_count     00000000     <absolute>
 0000:00000000       ___guard_check_icall_a64n_fptr 00000000     <absolute>
 0000:00000000       ___arm64x_redirection_metadata_count 00000000     <absolute>
 0000:00000000       ___hybrid_auxiliary_iat    00000000     <absolute>
 0000:00000000       ___dynamic_value_reloc_table 00000000     <absolute>
 0000:00000000       ___AbsoluteZero            00000000     <absolute>
 0000:00000000       ___enclave_config          00000000     <absolute>
 0000:00000000       ___guard_fids_table        00000000     <absolute>
 0000:00000000       ___hybrid_auxiliary_iat_copy 00000000     <absolute>
 0000:0000000b       ___safe_se_handler_count   0000000b     <absolute>
 0000:0000002c       __tls_array                0000002c     <absolute>
 0000:00000100       ___guard_flags             00000100     <absolute>
 0000:00000000       ___ImageBase               10000000     <linker-defined>
 0001:00000080       ?DupWide@_CW@@AAEXXZ       10001080 f   CWString.obj
 0001:0000009c       ?cw_dup@@YGXPBDAAHAAPA_W1@Z 1000109c f   CWString.obj
 0001:00000124       ?cw_memcpy@@YGHPA_WPBDH@Z  10001124 f   CWString.obj
 0001:00000150       ?cw_strcpy@@YAHPA_WPBD@Z   10001150 f   CWString.obj
 0001:00000163       ?cw_strlen@@YAHPBD@Z       10001163 f   CWString.obj
 0001:0000017c       ??0CAtlComModule@ATL@@QAE@XZ 1000117c f i OposVariant.obj
 0001:000001c1       ??0CAtlWinModule@ATL@@QAE@XZ 100011c1 f i OposVariant.obj
 0001:000001f8       ??0OposDispParms@@QAE@PAVOposVariant@@H@Z 100011f8 f   OposVariant.obj
 0001:00000269       ??1OposDispParms@@QAE@XZ   10001269 f   OposVariant.obj
 0001:00000277       ??A?$CSimpleArray@GV?$CSimpleArrayEqualHelper@G@ATL@@@ATL@@QAEAAGH@Z 10001277 f i OposVariant.obj
 0001:0000029c       ??_Estringdispid@CComTypeInfoHolder@ATL@@QAEPAXI@Z 1000129c f i OposVariant.obj
 0001:00000308       ?AtlWinModuleInit@ATL@@YGJPAU_ATL_WIN_MODULE70@1@@Z 10001308 f i OposVariant.obj
 0001:0000032e       ?AtlWinModuleTerm@ATL@@YGJPAU_ATL_WIN_MODULE70@1@PAUHINSTANCE__@@@Z 1000132e f i OposVariant.obj
 0001:00000391       ?ChangeBSTR@OposVariant@@QAEXPAPA_WAAJ@Z 10001391 f   OposVariant.obj
 0001:000003d2       ?ChangeLONG@OposVariant@@QAEXPAJAAJ@Z 100013d2 f   OposVariant.obj
 0001:00000413       ?GetLONG@OposVariant@@QAEJXZ 10001413 f   OposVariant.obj
 0001:0000042e       ?Init@CComCriticalSection@ATL@@QAEJXZ 1000142e f i OposVariant.obj
 0001:00000456       ?RemoveAll@?$CSimpleArray@GV?$CSimpleArrayEqualHelper@G@ATL@@@ATL@@QAEXXZ 10001456 f i OposVariant.obj
 0001:00000456       ?RemoveAll@?$CSimpleArray@PAUHINSTANCE__@@V?$CSimpleArrayEqualHelper@PAUHINSTANCE__@@@ATL@@@ATL@@QAEXXZ 10001456 f i atls:atlbase.obj
 0001:00000473       ?SetBSTR@OposVariant@@QAEXPA_WAAJ@Z 10001473 f   OposVariant.obj
 0001:000004a7       ?SetBSTR_Copy@OposVariant@@QAEXPA_WAAJ@Z 100014a7 f   OposVariant.obj
 0001:000004f7       ?SetBSTR_InOutPtr@OposVariant@@QAE_NPAPA_WAAJ@Z 100014f7 f   OposVariant.obj
 0001:0000052e       ?SetDispatch_Ptr@OposVariant@@QAEXPAUIDispatch@@AAJ@Z 1000152e f   OposVariant.obj
 0001:00000569       ?SetLONG@OposVariant@@QAEXJ@Z 10001569 f   OposVariant.obj
 0001:0000058b       ?SetLONG_Ptr@OposVariant@@QAEXPAJAAJ@Z 1000158b f   OposVariant.obj
 0001:000005be       ?SetString@OposVariant@@QAEXPB_WAAJ@Z 100015be f   OposVariant.obj
 0001:00000604       ?SetVARIANT_BOOL@OposVariant@@QAEXF@Z 10001604 f   OposVariant.obj
 0001:0000062e       ?Term@CAtlComModule@ATL@@QAEXXZ 1000162e f i OposVariant.obj
 0001:00000678       ?_AtlRaiseException@ATL@@YAXKK@Z 10001678 f i OposVariant.obj
 0001:0000068d       ?OnDrawAdvanced@CComControlBase@ATL@@UAEJAAUATL_DRAWINFO@@@Z 1000168d f i VoiceRecognition.obj
 0001:00000780       ?Next@?$CComEnumImpl@UIEnumConnections@@$1?_GUID_b196b287_bab4_101a_b69c_00aa00341d07@@3U__s_GUID@@BUtagCONNECTDATA@@V?$_Copy@UtagCONNECTDATA@@@ATL@@@ATL@@UAGJKPAUtagCONNECTDATA@@PAK@Z 10001780 f i VoiceRecognition.obj
 0001:0000084f       ?Skip@?$CComEnumImpl@UIEnumConnections@@$1?_GUID_b196b287_bab4_101a_b69c_00aa00341d07@@3U__s_GUID@@BUtagCONNECTDATA@@V?$_Copy@UtagCONNECTDATA@@@ATL@@@ATL@@UAGJK@Z 1000184f f i VoiceRecognition.obj
 0001:0000087c       ?Reset@?$CComEnumImpl@UIEnumConnections@@$1?_GUID_b196b287_bab4_101a_b69c_00aa00341d07@@3U__s_GUID@@BUtagCONNECTDATA@@V?$_Copy@UtagCONNECTDATA@@@ATL@@@ATL@@UAGJXZ 1000187c f i VoiceRecognition.obj
 0001:0000087c       ?Reset@?$CComEnumImpl@UIEnumConnectionPoints@@$1?_GUID_b196b285_bab4_101a_b69c_00aa00341d07@@3U__s_GUID@@BPAUIConnectionPoint@@V?$_CopyInterface@UIConnectionPoint@@@ATL@@@ATL@@UAGJXZ 1000187c f i VoiceRecognition.obj
 0001:0000088e       ?Clone@?$CComEnumImpl@UIEnumConnections@@$1?_GUID_b196b287_bab4_101a_b69c_00aa00341d07@@3U__s_GUID@@BUtagCONNECTDATA@@V?$_Copy@UtagCONNECTDATA@@@ATL@@@ATL@@UAGJPAPAUIEnumConnections@@@Z 1000188e f i VoiceRecognition.obj
 0001:0000096f       ?AddRef@?$CComObject@V?$CComEnum@UIEnumConnectionPoints@@$1?_GUID_b196b285_bab4_101a_b69c_00aa00341d07@@3U__s_GUID@@BPAUIConnectionPoint@@V?$_CopyInterface@UIConnectionPoint@@@ATL@@VCComSingleThreadModel@6@@ATL@@@ATL@@UAGKXZ 1000196f f i VoiceRecognition.obj
 0001:0000096f       ?AddRef@?$CComObject@V?$CComEnum@UIEnumConnections@@$1?_GUID_b196b287_bab4_101a_b69c_00aa00341d07@@3U__s_GUID@@BUtagCONNECTDATA@@V?$_Copy@UtagCONNECTDATA@@@ATL@@VCComSingleThreadModel@6@@ATL@@@ATL@@UAGKXZ 1000196f f i VoiceRecognition.obj
 0001:00000980       ?Release@?$CComObject@V?$CComEnum@UIEnumConnections@@$1?_GUID_b196b287_bab4_101a_b69c_00aa00341d07@@3U__s_GUID@@BUtagCONNECTDATA@@V?$_Copy@UtagCONNECTDATA@@@ATL@@VCComSingleThreadModel@6@@ATL@@@ATL@@UAGKXZ 10001980 f i VoiceRecognition.obj
 0001:00000980       ?Release@?$CComObject@V?$CComEnum@UIEnumConnectionPoints@@$1?_GUID_b196b285_bab4_101a_b69c_00aa00341d07@@3U__s_GUID@@BPAUIConnectionPoint@@V?$_CopyInterface@UIConnectionPoint@@@ATL@@VCComSingleThreadModel@6@@ATL@@@ATL@@UAGKXZ 10001980 f i VoiceRecognition.obj
 0001:000009bc       ?QueryInterface@?$CComObject@V?$CComEnum@UIEnumConnections@@$1?_GUID_b196b287_bab4_101a_b69c_00aa00341d07@@3U__s_GUID@@BUtagCONNECTDATA@@V?$_Copy@UtagCONNECTDATA@@@ATL@@VCComSingleThreadModel@6@@ATL@@@ATL@@UAGJABU_GUID@@PAPAX@Z 100019bc f i VoiceRecognition.obj
 0001:000009d6       ??_E?$CComObject@V?$CComEnum@UIEnumConnections@@$1?_GUID_b196b287_bab4_101a_b69c_00aa00341d07@@3U__s_GUID@@BUtagCONNECTDATA@@V?$_Copy@UtagCONNECTDATA@@@ATL@@VCComSingleThreadModel@6@@ATL@@@ATL@@UAEPAXI@Z 100019d6 f i VoiceRecognition.obj
 0001:000009d6       ??_G?$CComObject@V?$CComEnum@UIEnumConnections@@$1?_GUID_b196b287_bab4_101a_b69c_00aa00341d07@@3U__s_GUID@@BUtagCONNECTDATA@@V?$_Copy@UtagCONNECTDATA@@@ATL@@VCComSingleThreadModel@6@@ATL@@@ATL@@UAEPAXI@Z 100019d6 f i VoiceRecognition.obj
 0001:000009f8       ?OnFinalMessage@?$CWindowImplBaseT@VCWindow@ATL@@V?$CWinTraits@$0FGAAAAAA@$0A@@2@@ATL@@UAEXPAUHWND__@@@Z 100019f8 f i VoiceRecognition.obj
 0001:000009f8       ?ObjectMain@CComObjectRootBase@ATL@@SGX_N@Z 100019f8 f i VoiceRecognition.obj
 0001:000009fb       ?GetObjectDescription@?$CComCoClass@VCOPOSVoiceRecognition@@$1?CLSID_OPOSVoiceRecognition@@3U_GUID@@B@ATL@@SGPB_WXZ 100019fb f i VoiceRecognition.obj
 0001:000009fb       ?GetCategoryMap@CComObjectRootBase@ATL@@SAPBU_ATL_CATMAP_ENTRY@2@XZ 100019fb f i VoiceRecognition.obj
 0001:000009fe       ?CreateInstance@CComClassFactory@ATL@@UAGJPAUIUnknown@@ABU_GUID@@PAPAX@Z 100019fe f i VoiceRecognition.obj
 0001:00000a3c       ?LockServer@CComClassFactory@ATL@@UAGJH@Z 10001a3c f i VoiceRecognition.obj
 0001:00000a5b       ??_GCComClassFactory@ATL@@UAEPAXI@Z 10001a5b f i VoiceRecognition.obj
 0001:00000a5b       ??_ECComClassFactory@ATL@@UAEPAXI@Z 10001a5b f i VoiceRecognition.obj
 0001:00000a86       ??_E?$CComObject@VCOPOSVoiceRecognition@@@ATL@@W3AEPAXI@Z 10001a86 f i VoiceRecognition.obj
 0001:00000a8e       ??_E?$CComObject@VCOPOSVoiceRecognition@@@ATL@@WEM@AEPAXI@Z 10001a8e f i VoiceRecognition.obj
 0001:00000a96       ?QueryInterface@?$CComObject@VCOPOSVoiceRecognition@@@ATL@@WHA@AGJABU_GUID@@PAPAX@Z 10001a96 f i VoiceRecognition.obj
 0001:00000aa0       ?AddRef@?$CComObject@VCOPOSVoiceRecognition@@@ATL@@WHA@AGKXZ 10001aa0 f i VoiceRecognition.obj
 0001:00000aaa       ?Release@?$CComObject@VCOPOSVoiceRecognition@@@ATL@@WHA@AGKXZ 10001aaa f i VoiceRecognition.obj
 0001:00000ab4       ?QueryInterface@?$CComObject@VCOPOSVoiceRecognition@@@ATL@@WHE@AGJABU_GUID@@PAPAX@Z 10001ab4 f i VoiceRecognition.obj
 0001:00000abe       ?AddRef@?$CComObject@VCOPOSVoiceRecognition@@@ATL@@WHE@AGKXZ 10001abe f i VoiceRecognition.obj
 0001:00000ac8       ?Release@?$CComObject@VCOPOSVoiceRecognition@@@ATL@@WHE@AGKXZ 10001ac8 f i VoiceRecognition.obj
 0001:00000ad2       ?QueryInterface@?$CComObject@VCOPOSVoiceRecognition@@@ATL@@WHI@AGJABU_GUID@@PAPAX@Z 10001ad2 f i VoiceRecognition.obj
 0001:00000adc       ?AddRef@?$CComObject@VCOPOSVoiceRecognition@@@ATL@@WHI@AGKXZ 10001adc f i VoiceRecognition.obj
 0001:00000ae6       ?Release@?$CComObject@VCOPOSVoiceRecognition@@@ATL@@WHI@AGKXZ 10001ae6 f i VoiceRecognition.obj
 0001:00000af0       ?QueryInterface@?$CComObject@VCOPOSVoiceRecognition@@@ATL@@WHM@AGJABU_GUID@@PAPAX@Z 10001af0 f i VoiceRecognition.obj
 0001:00000afa       ?AddRef@?$CComObject@VCOPOSVoiceRecognition@@@ATL@@WHM@AGKXZ 10001afa f i VoiceRecognition.obj
 0001:00000b04       ?Release@?$CComObject@VCOPOSVoiceRecognition@@@ATL@@WHM@AGKXZ 10001b04 f i VoiceRecognition.obj
 0001:00000b0e       ?QueryInterface@?$CComObject@VCOPOSVoiceRecognition@@@ATL@@WIA@AGJABU_GUID@@PAPAX@Z 10001b0e f i VoiceRecognition.obj
 0001:00000b1b       ?AddRef@?$CComObject@VCOPOSVoiceRecognition@@@ATL@@WIA@AGKXZ 10001b1b f i VoiceRecognition.obj
 0001:00000b28       ?Release@?$CComObject@VCOPOSVoiceRecognition@@@ATL@@WIA@AGKXZ 10001b28 f i VoiceRecognition.obj
 0001:00000b35       ?QueryInterface@?$CComObject@VCOPOSVoiceRecognition@@@ATL@@WIE@AGJABU_GUID@@PAPAX@Z 10001b35 f i VoiceRecognition.obj
 0001:00000b42       ?AddRef@?$CComObject@VCOPOSVoiceRecognition@@@ATL@@WIE@AGKXZ 10001b42 f i VoiceRecognition.obj
 0001:00000b4f       ?Release@?$CComObject@VCOPOSVoiceRecognition@@@ATL@@WIE@AGKXZ 10001b4f f i VoiceRecognition.obj
 0001:00000b5c       ?QueryInterface@?$CComObject@VCOPOSVoiceRecognition@@@ATL@@WII@AGJABU_GUID@@PAPAX@Z 10001b5c f i VoiceRecognition.obj
 0001:00000b69       ?AddRef@?$CComObject@VCOPOSVoiceRecognition@@@ATL@@WII@AGKXZ 10001b69 f i VoiceRecognition.obj
 0001:00000b76       ?Release@?$CComObject@VCOPOSVoiceRecognition@@@ATL@@WII@AGKXZ 10001b76 f i VoiceRecognition.obj
 0001:00000b83       ?QueryInterface@?$CComObject@VCOPOSVoiceRecognition@@@ATL@@WIM@AGJABU_GUID@@PAPAX@Z 10001b83 f i VoiceRecognition.obj
 0001:00000b90       ?AddRef@?$CComObject@VCOPOSVoiceRecognition@@@ATL@@WIM@AGKXZ 10001b90 f i VoiceRecognition.obj
 0001:00000b9d       ?Release@?$CComObject@VCOPOSVoiceRecognition@@@ATL@@WIM@AGKXZ 10001b9d f i VoiceRecognition.obj
 0001:00000baa       ?QueryInterface@?$CComObject@VCOPOSVoiceRecognition@@@ATL@@WJA@AGJABU_GUID@@PAPAX@Z 10001baa f i VoiceRecognition.obj
 0001:00000bb7       ?AddRef@?$CComObject@VCOPOSVoiceRecognition@@@ATL@@WJA@AGKXZ 10001bb7 f i VoiceRecognition.obj
 0001:00000bc4       ?Release@?$CComObject@VCOPOSVoiceRecognition@@@ATL@@WJA@AGKXZ 10001bc4 f i VoiceRecognition.obj
 0001:00000bd1       ?QueryInterface@?$CComObject@VCOPOSVoiceRecognition@@@ATL@@WJE@AGJABU_GUID@@PAPAX@Z 10001bd1 f i VoiceRecognition.obj
 0001:00000bde       ?AddRef@?$CComObject@VCOPOSVoiceRecognition@@@ATL@@WJE@AGKXZ 10001bde f i VoiceRecognition.obj
 0001:00000beb       ?Release@?$CComObject@VCOPOSVoiceRecognition@@@ATL@@WJE@AGKXZ 10001beb f i VoiceRecognition.obj
 0001:00000bf8       ?QueryInterface@?$CComObject@VCOPOSVoiceRecognition@@@ATL@@WJI@AGJABU_GUID@@PAPAX@Z 10001bf8 f i VoiceRecognition.obj
 0001:00000c05       ?AddRef@?$CComObject@VCOPOSVoiceRecognition@@@ATL@@WJI@AGKXZ 10001c05 f i VoiceRecognition.obj
 0001:00000c12       ?Release@?$CComObject@VCOPOSVoiceRecognition@@@ATL@@WJI@AGKXZ 10001c12 f i VoiceRecognition.obj
 0001:00000c1f       ?QueryInterface@?$CComObject@VCOPOSVoiceRecognition@@@ATL@@WJM@AGJABU_GUID@@PAPAX@Z 10001c1f f i VoiceRecognition.obj
 0001:00000c2c       ?AddRef@?$CComObject@VCOPOSVoiceRecognition@@@ATL@@WJM@AGKXZ 10001c2c f i VoiceRecognition.obj
 0001:00000c39       ?Release@?$CComObject@VCOPOSVoiceRecognition@@@ATL@@WJM@AGKXZ 10001c39 f i VoiceRecognition.obj
 0001:00000c46       ?QueryInterface@?$CComObject@VCOPOSVoiceRecognition@@@ATL@@WKA@AGJABU_GUID@@PAPAX@Z 10001c46 f i VoiceRecognition.obj
 0001:00000c53       ?AddRef@?$CComObject@VCOPOSVoiceRecognition@@@ATL@@WKA@AGKXZ 10001c53 f i VoiceRecognition.obj
 0001:00000c60       ?Release@?$CComObject@VCOPOSVoiceRecognition@@@ATL@@WKA@AGKXZ 10001c60 f i VoiceRecognition.obj
 0001:00000c6d       ?AddRef@?$CComObject@VCOPOSVoiceRecognition@@@ATL@@WKI@AGKXZ 10001c6d f i VoiceRecognition.obj
 0001:00000c7a       ?Release@?$CComObject@VCOPOSVoiceRecognition@@@ATL@@WKI@AGKXZ 10001c7a f i VoiceRecognition.obj
 0001:00000c87       ?AddRef@?$CComObject@VCOPOSVoiceRecognition@@@ATL@@WLE@AGKXZ 10001c87 f i VoiceRecognition.obj
 0001:00000c94       ?Release@?$CComObject@VCOPOSVoiceRecognition@@@ATL@@WLE@AGKXZ 10001c94 f i VoiceRecognition.obj
 0001:00000ca1       ??_E?$CComContainedObject@VCOPOSVoiceRecognition@@@ATL@@W3AEPAXI@Z 10001ca1 f i VoiceRecognition.obj
 0001:00000ca9       ??_E?$CComContainedObject@VCOPOSVoiceRecognition@@@ATL@@WEM@AEPAXI@Z 10001ca9 f i VoiceRecognition.obj
 0001:00000cb1       ?QueryInterface@?$CComContainedObject@VCOPOSVoiceRecognition@@@ATL@@WHA@AGJABU_GUID@@PAPAX@Z 10001cb1 f i VoiceRecognition.obj
 0001:00000cbb       ?AddRef@?$CComContainedObject@VCOPOSVoiceRecognition@@@ATL@@WHA@AGKXZ 10001cbb f i VoiceRecognition.obj
 0001:00000cc5       ?Release@?$CComContainedObject@VCOPOSVoiceRecognition@@@ATL@@WHA@AGKXZ 10001cc5 f i VoiceRecognition.obj
 0001:00000ccf       ?QueryInterface@?$CComContainedObject@VCOPOSVoiceRecognition@@@ATL@@WHE@AGJABU_GUID@@PAPAX@Z 10001ccf f i VoiceRecognition.obj
 0001:00000cd9       ?AddRef@?$CComContainedObject@VCOPOSVoiceRecognition@@@ATL@@WHE@AGKXZ 10001cd9 f i VoiceRecognition.obj
 0001:00000ce3       ?Release@?$CComContainedObject@VCOPOSVoiceRecognition@@@ATL@@WHE@AGKXZ 10001ce3 f i VoiceRecognition.obj
 0001:00000ced       ?QueryInterface@?$CComContainedObject@VCOPOSVoiceRecognition@@@ATL@@WHI@AGJABU_GUID@@PAPAX@Z 10001ced f i VoiceRecognition.obj
 0001:00000cf7       ?AddRef@?$CComContainedObject@VCOPOSVoiceRecognition@@@ATL@@WHI@AGKXZ 10001cf7 f i VoiceRecognition.obj
 0001:00000d01       ?Release@?$CComContainedObject@VCOPOSVoiceRecognition@@@ATL@@WHI@AGKXZ 10001d01 f i VoiceRecognition.obj
 0001:00000d0b       ?QueryInterface@?$CComContainedObject@VCOPOSVoiceRecognition@@@ATL@@WHM@AGJABU_GUID@@PAPAX@Z 10001d0b f i VoiceRecognition.obj
 0001:00000d15       ?AddRef@?$CComContainedObject@VCOPOSVoiceRecognition@@@ATL@@WHM@AGKXZ 10001d15 f i VoiceRecognition.obj
 0001:00000d1f       ?Release@?$CComContainedObject@VCOPOSVoiceRecognition@@@ATL@@WHM@AGKXZ 10001d1f f i VoiceRecognition.obj
 0001:00000d29       ?QueryInterface@?$CComContainedObject@VCOPOSVoiceRecognition@@@ATL@@WIA@AGJABU_GUID@@PAPAX@Z 10001d29 f i VoiceRecognition.obj
 0001:00000d36       ?AddRef@?$CComContainedObject@VCOPOSVoiceRecognition@@@ATL@@WIA@AGKXZ 10001d36 f i VoiceRecognition.obj
 0001:00000d43       ?Release@?$CComContainedObject@VCOPOSVoiceRecognition@@@ATL@@WIA@AGKXZ 10001d43 f i VoiceRecognition.obj
 0001:00000d50       ?QueryInterface@?$CComContainedObject@VCOPOSVoiceRecognition@@@ATL@@WIE@AGJABU_GUID@@PAPAX@Z 10001d50 f i VoiceRecognition.obj
 0001:00000d5d       ?AddRef@?$CComContainedObject@VCOPOSVoiceRecognition@@@ATL@@WIE@AGKXZ 10001d5d f i VoiceRecognition.obj
 0001:00000d6a       ?Release@?$CComContainedObject@VCOPOSVoiceRecognition@@@ATL@@WIE@AGKXZ 10001d6a f i VoiceRecognition.obj
 0001:00000d77       ?QueryInterface@?$CComContainedObject@VCOPOSVoiceRecognition@@@ATL@@WII@AGJABU_GUID@@PAPAX@Z 10001d77 f i VoiceRecognition.obj
 0001:00000d84       ?AddRef@?$CComContainedObject@VCOPOSVoiceRecognition@@@ATL@@WII@AGKXZ 10001d84 f i VoiceRecognition.obj
 0001:00000d91       ?Release@?$CComContainedObject@VCOPOSVoiceRecognition@@@ATL@@WII@AGKXZ 10001d91 f i VoiceRecognition.obj
 0001:00000d9e       ?QueryInterface@?$CComContainedObject@VCOPOSVoiceRecognition@@@ATL@@WIM@AGJABU_GUID@@PAPAX@Z 10001d9e f i VoiceRecognition.obj
 0001:00000dab       ?AddRef@?$CComContainedObject@VCOPOSVoiceRecognition@@@ATL@@WIM@AGKXZ 10001dab f i VoiceRecognition.obj
 0001:00000db8       ?Release@?$CComContainedObject@VCOPOSVoiceRecognition@@@ATL@@WIM@AGKXZ 10001db8 f i VoiceRecognition.obj
 0001:00000dc5       ?QueryInterface@?$CComContainedObject@VCOPOSVoiceRecognition@@@ATL@@WJA@AGJABU_GUID@@PAPAX@Z 10001dc5 f i VoiceRecognition.obj
 0001:00000dd2       ?AddRef@?$CComContainedObject@VCOPOSVoiceRecognition@@@ATL@@WJA@AGKXZ 10001dd2 f i VoiceRecognition.obj
 0001:00000ddf       ?Release@?$CComContainedObject@VCOPOSVoiceRecognition@@@ATL@@WJA@AGKXZ 10001ddf f i VoiceRecognition.obj
 0001:00000dec       ?QueryInterface@?$CComContainedObject@VCOPOSVoiceRecognition@@@ATL@@WJE@AGJABU_GUID@@PAPAX@Z 10001dec f i VoiceRecognition.obj
 0001:00000df9       ?AddRef@?$CComContainedObject@VCOPOSVoiceRecognition@@@ATL@@WJE@AGKXZ 10001df9 f i VoiceRecognition.obj
 0001:00000e06       ?Release@?$CComContainedObject@VCOPOSVoiceRecognition@@@ATL@@WJE@AGKXZ 10001e06 f i VoiceRecognition.obj
 0001:00000e13       ?QueryInterface@?$CComContainedObject@VCOPOSVoiceRecognition@@@ATL@@WJI@AGJABU_GUID@@PAPAX@Z 10001e13 f i VoiceRecognition.obj
 0001:00000e20       ?AddRef@?$CComContainedObject@VCOPOSVoiceRecognition@@@ATL@@WJI@AGKXZ 10001e20 f i VoiceRecognition.obj
 0001:00000e2d       ?Release@?$CComContainedObject@VCOPOSVoiceRecognition@@@ATL@@WJI@AGKXZ 10001e2d f i VoiceRecognition.obj
 0001:00000e3a       ?QueryInterface@?$CComContainedObject@VCOPOSVoiceRecognition@@@ATL@@WJM@AGJABU_GUID@@PAPAX@Z 10001e3a f i VoiceRecognition.obj
 0001:00000e47       ?AddRef@?$CComContainedObject@VCOPOSVoiceRecognition@@@ATL@@WJM@AGKXZ 10001e47 f i VoiceRecognition.obj
 0001:00000e54       ?Release@?$CComContainedObject@VCOPOSVoiceRecognition@@@ATL@@WJM@AGKXZ 10001e54 f i VoiceRecognition.obj
 0001:00000e61       ?QueryInterface@?$CComContainedObject@VCOPOSVoiceRecognition@@@ATL@@WKA@AGJABU_GUID@@PAPAX@Z 10001e61 f i VoiceRecognition.obj
 0001:00000e6e       ?AddRef@?$CComContainedObject@VCOPOSVoiceRecognition@@@ATL@@WKA@AGKXZ 10001e6e f i VoiceRecognition.obj
 0001:00000e7b       ?Release@?$CComContainedObject@VCOPOSVoiceRecognition@@@ATL@@WKA@AGKXZ 10001e7b f i VoiceRecognition.obj
 0001:00000e88       ?AddRef@?$CComContainedObject@VCOPOSVoiceRecognition@@@ATL@@WKI@AGKXZ 10001e88 f i VoiceRecognition.obj
 0001:00000e95       ?Release@?$CComContainedObject@VCOPOSVoiceRecognition@@@ATL@@WKI@AGKXZ 10001e95 f i VoiceRecognition.obj
 0001:00000ea2       ?AddRef@?$CComContainedObject@VCOPOSVoiceRecognition@@@ATL@@WLE@AGKXZ 10001ea2 f i VoiceRecognition.obj
 0001:00000eaf       ?Release@?$CComContainedObject@VCOPOSVoiceRecognition@@@ATL@@WLE@AGKXZ 10001eaf f i VoiceRecognition.obj
 0001:00000ebc       ?GetWindowProc@?$CWindowImplBaseT@VCWindow@ATL@@V?$CWinTraits@$0FGAAAAAA@$0A@@2@@ATL@@UAEP6GJPAUHWND__@@IIJ@ZXZ 10001ebc f i VoiceRecognition.obj
 0001:00000ec2       ?StartWindowProc@?$CWindowImplBaseT@VCWindow@ATL@@V?$CWinTraits@$0FGAAAAAA@$0A@@2@@ATL@@SGJPAUHWND__@@IIJ@Z 10001ec2 f i VoiceRecognition.obj
 0001:00000f16       ?GetTypeInfoCount@?$IDispatchImpl@UIOPOSVoiceRecognition@@$1?IID_IOPOSVoiceRecognition@@3U_GUID@@B$1?LIBID_OposVoiceRecognition_CCO@@3U3@B$00$0A@VCComTypeInfoHolder@ATL@@@ATL@@UAGJPAI@Z 10001f16 f i VoiceRecognition.obj
 0001:00000f33       ?GetTypeInfo@?$IDispatchImpl@UIOPOSVoiceRecognition@@$1?IID_IOPOSVoiceRecognition@@3U_GUID@@B$1?LIBID_OposVoiceRecognition_CCO@@3U3@B$00$0A@VCComTypeInfoHolder@ATL@@@ATL@@UAGJIKPAPAUITypeInfo@@@Z 10001f33 f i VoiceRecognition.obj
 0001:00000f57       ?GetIDsOfNames@?$IDispatchImpl@UIOPOSVoiceRecognition@@$1?IID_IOPOSVoiceRecognition@@3U_GUID@@B$1?LIBID_OposVoiceRecognition_CCO@@3U3@B$00$0A@VCComTypeInfoHolder@ATL@@@ATL@@UAGJABU_GUID@@PAPA_WIKPAJ@Z 10001f57 f i VoiceRecognition.obj
 0001:00000f77       ?Invoke@?$IDispatchImpl@UIOPOSVoiceRecognition@@$1?IID_IOPOSVoiceRecognition@@3U_GUID@@B$1?LIBID_OposVoiceRecognition_CCO@@3U3@B$00$0A@VCComTypeInfoHolder@ATL@@@ATL@@UAGJJABU_GUID@@KGPAUtagDISPPARAMS@@PAUtagVARIANT@@PAUtagEXCEPINFO@@PAI@Z 10001f77 f i VoiceRecognition.obj
 0001:00000f85       ?CreateControlWindow@?$CComControl@VCOPOSVoiceRecognition@@V?$CWindowImpl@VCOPOSVoiceRecognition@@VCWindow@ATL@@V?$CWinTraits@$0FGAAAAAA@$0A@@3@@ATL@@@ATL@@UAEPAUHWND__@@PAU3@AAUtagRECT@@@Z 10001f85 f i VoiceRecognition.obj
 0001:00000fb4       ?ControlQueryInterface@?$CComControl@VCOPOSVoiceRecognition@@V?$CWindowImpl@VCOPOSVoiceRecognition@@VCWindow@ATL@@V?$CWinTraits@$0FGAAAAAA@$0A@@3@@ATL@@@ATL@@UAEJABU_GUID@@PAPAX@Z 10001fb4 f i VoiceRecognition.obj
 0001:00000fcf       ?GetUserClassID@?$IOleObjectImpl@VCOPOSVoiceRecognition@@@ATL@@UAGJPAU_GUID@@@Z 10001fcf f i VoiceRecognition.obj
 0001:00000fcf       ?GetClassID@?$IPersistStorageImpl@VCOPOSVoiceRecognition@@@ATL@@UAGJPAU_GUID@@@Z 10001fcf f i VoiceRecognition.obj
 0001:00000fcf       ?GetClassID@?$IPersistStreamInitImpl@VCOPOSVoiceRecognition@@@ATL@@UAGJPAU_GUID@@@Z 10001fcf f i VoiceRecognition.obj
 0001:00000ff3       ?IsDirty@?$IPersistStreamInitImpl@VCOPOSVoiceRecognition@@@ATL@@UAGJXZ 10001ff3 f i VoiceRecognition.obj
 0001:00001012       ?Load@?$IPersistStreamInitImpl@VCOPOSVoiceRecognition@@@ATL@@UAGJPAUIStream@@@Z 10002012 f i VoiceRecognition.obj
 0001:00001031       ?Save@?$IPersistStreamInitImpl@VCOPOSVoiceRecognition@@@ATL@@UAGJPAUIStream@@H@Z 10002031 f i VoiceRecognition.obj
 0001:00001053       ?GetSizeMax@?$IPersistStreamInitImpl@VCOPOSVoiceRecognition@@@ATL@@UAGJPAT_ULARGE_INTEGER@@@Z 10002053 f i VoiceRecognition.obj
 0001:00001232       ?InitNew@?$IPersistStreamInitImpl@VCOPOSVoiceRecognition@@@ATL@@UAGJXZ 10002232 f i VoiceRecognition.obj
 0001:0000124f       ?OnMnemonic@?$IOleControlImpl@VCOPOSVoiceRecognition@@@ATL@@UAGJPAUtagMSG@@@Z 1000224f f i VoiceRecognition.obj
 0001:0000124f       ?SetColorScheme@?$IOleObjectImpl@VCOPOSVoiceRecognition@@@ATL@@UAGJPAUtagLOGPALETTE@@@Z 1000224f f i VoiceRecognition.obj
 0001:0000124f       ?ContextSensitiveHelp@?$IOleInPlaceObjectWindowlessImpl@VCOPOSVoiceRecognition@@@ATL@@UAGJH@Z 1000224f f i VoiceRecognition.obj
 0001:0000124f       ?Unfreeze@?$IViewObjectExImpl@VCOPOSVoiceRecognition@@@ATL@@UAGJK@Z 1000224f f i VoiceRecognition.obj
 0001:0000124f       ?SOOutputCompleteDummy@COPOSVoiceRecognition@@MAGJJ@Z 1000224f f i VoiceRecognition.obj
 0001:0000124f       ?GetControlInfo@?$IOleControlImpl@VCOPOSVoiceRecognition@@@ATL@@UAGJPAUtagCONTROLINFO@@@Z 1000224f f i VoiceRecognition.obj
 0001:0000124f       ?GetDropTarget@?$IOleInPlaceObjectWindowlessImpl@VCOPOSVoiceRecognition@@@ATL@@UAGJPAPAUIDropTarget@@@Z 1000224f f i VoiceRecognition.obj
 0001:0000124f       ?QueryGetData@?$IDataObjectImpl@VCOPOSVoiceRecognition@@@ATL@@UAGJPAUtagFORMATETC@@@Z 1000224f f i VoiceRecognition.obj
 0001:0000124f       ?ContextSensitiveHelp@?$IOleInPlaceActiveObjectImpl@VCOPOSVoiceRecognition@@@ATL@@UAGJH@Z 1000224f f i VoiceRecognition.obj
 0001:00001257       ?SaveCompleted@?$IPersistStorageImpl@VCOPOSVoiceRecognition@@@ATL@@UAGJPAUIStorage@@@Z 10002257 f i VoiceRecognition.obj
 0001:00001257       ?OnFrameWindowActivate@?$IOleInPlaceActiveObjectImpl@VCOPOSVoiceRecognition@@@ATL@@UAGJH@Z 10002257 f i VoiceRecognition.obj
 0001:00001257       ?OnAmbientPropertyChange@?$IOleControlImpl@VCOPOSVoiceRecognition@@@ATL@@UAGJJ@Z 10002257 f i VoiceRecognition.obj
 0001:00001257       ?EnableModeless@?$IOleInPlaceActiveObjectImpl@VCOPOSVoiceRecognition@@@ATL@@UAGJH@Z 10002257 f i VoiceRecognition.obj
 0001:0000125c       ?SetClientSite@?$IOleObjectImpl@VCOPOSVoiceRecognition@@@ATL@@UAGJPAUIOleClientSite@@@Z 1000225c f i VoiceRecognition.obj
 0001:00001279       ?GetClientSite@?$IOleObjectImpl@VCOPOSVoiceRecognition@@@ATL@@UAGJPAPAUIOleClientSite@@@Z 10002279 f i VoiceRecognition.obj
 0001:00001296       ?SetHostNames@?$IOleObjectImpl@VCOPOSVoiceRecognition@@@ATL@@UAGJPB_W0@Z 10002296 f i VoiceRecognition.obj
 0001:0000129b       ?Close@?$IOleObjectImpl@VCOPOSVoiceRecognition@@@ATL@@UAGJK@Z 1000229b f i VoiceRecognition.obj
 0001:000012b8       ?SetMoniker@?$IOleObjectImpl@VCOPOSVoiceRecognition@@@ATL@@UAGJKPAUIMoniker@@@Z 100022b8 f i VoiceRecognition.obj
 0001:000012b8       ?GetDataHere@?$IDataObjectImpl@VCOPOSVoiceRecognition@@@ATL@@UAGJPAUtagFORMATETC@@PAUtagSTGMEDIUM@@@Z 100022b8 f i VoiceRecognition.obj
 0001:000012b8       ?QueryInterface@CRegObject@ATL@@UAGJABU_GUID@@PAPAX@Z 100022b8 f i VoiceRecognition.obj
 0001:000012b8       ?GetRect@?$IViewObjectExImpl@VCOPOSVoiceRecognition@@@ATL@@UAGJKPAU_RECTL@@@Z 100022b8 f i VoiceRecognition.obj
 0001:000012b8       ?GetCanonicalFormatEtc@?$IDataObjectImpl@VCOPOSVoiceRecognition@@@ATL@@UAGJPAUtagFORMATETC@@0@Z 100022b8 f i VoiceRecognition.obj
 0001:000012b8       ?EnumFormatEtc@?$IDataObjectImpl@VCOPOSVoiceRecognition@@@ATL@@UAGJKPAPAUIEnumFORMATETC@@@Z 100022b8 f i VoiceRecognition.obj
 0001:000012b8       ?GetClipboardData@?$IOleObjectImpl@VCOPOSVoiceRecognition@@@ATL@@UAGJKPAPAUIDataObject@@@Z 100022b8 f i VoiceRecognition.obj
 0001:000012c0       ?InitFromData@?$IOleObjectImpl@VCOPOSVoiceRecognition@@@ATL@@UAGJPAUIDataObject@@HK@Z 100022c0 f i VoiceRecognition.obj
 0001:000012c0       ?SetData@?$IDataObjectImpl@VCOPOSVoiceRecognition@@@ATL@@UAGJPAUtagFORMATETC@@PAUtagSTGMEDIUM@@H@Z 100022c0 f i VoiceRecognition.obj
 0001:000012c0       ?GetMoniker@?$IOleObjectImpl@VCOPOSVoiceRecognition@@@ATL@@UAGJKKPAPAUIMoniker@@@Z 100022c0 f i VoiceRecognition.obj
 0001:000012c8       ?DoVerb@?$IOleObjectImpl@VCOPOSVoiceRecognition@@@ATL@@UAGJJPAUtagMSG@@PAUIOleClientSite@@JPAUHWND__@@PBUtagRECT@@@Z 100022c8 f i VoiceRecognition.obj
 0001:000013bc       ?EnumVerbs@?$IOleObjectImpl@VCOPOSVoiceRecognition@@@ATL@@UAGJPAPAUIEnumOLEVERB@@@Z 100023bc f i VoiceRecognition.obj
 0001:000013de       ?Update@?$IOleObjectImpl@VCOPOSVoiceRecognition@@@ATL@@UAGJXZ 100023de f i VoiceRecognition.obj
 0001:000013de       ?HandsOffStorage@?$IPersistStorageImpl@VCOPOSVoiceRecognition@@@ATL@@UAGJXZ 100023de f i VoiceRecognition.obj
 0001:000013de       ?IsUpToDate@?$IOleObjectImpl@VCOPOSVoiceRecognition@@@ATL@@UAGJXZ 100023de f i VoiceRecognition.obj
 0001:000013de       ?Release@CRegObject@ATL@@UAGKXZ 100023de f i VoiceRecognition.obj
 0001:000013e3       ?GetUserType@?$IOleObjectImpl@VCOPOSVoiceRecognition@@@ATL@@UAGJKPAPA_W@Z 100023e3 f i VoiceRecognition.obj
 0001:000013fb       ?SetExtent@?$IOleObjectImpl@VCOPOSVoiceRecognition@@@ATL@@UAGJKPAUtagSIZE@@@Z 100023fb f i VoiceRecognition.obj
 0001:0000141b       ?GetExtent@?$IOleObjectImpl@VCOPOSVoiceRecognition@@@ATL@@UAGJKPAUtagSIZE@@@Z 1000241b f i VoiceRecognition.obj
 0001:00001459       ?Advise@?$IOleObjectImpl@VCOPOSVoiceRecognition@@@ATL@@UAGJPAUIAdviseSink@@PAK@Z 10002459 f i VoiceRecognition.obj
 0001:00001479       ?Unadvise@?$IOleObjectImpl@VCOPOSVoiceRecognition@@@ATL@@UAGJK@Z 10002479 f i VoiceRecognition.obj
 0001:000014a8       ?EnumAdvise@?$IOleObjectImpl@VCOPOSVoiceRecognition@@@ATL@@UAGJPAPAUIEnumSTATDATA@@@Z 100024a8 f i VoiceRecognition.obj
 0001:000014e8       ?GetMiscStatus@?$IOleObjectImpl@VCOPOSVoiceRecognition@@@ATL@@UAGJKPAK@Z 100024e8 f i VoiceRecognition.obj
 0001:00001500       ?GetWindow@?$IOleInPlaceActiveObjectImpl@VCOPOSVoiceRecognition@@@ATL@@UAGJPAPAUHWND__@@@Z 10002500 f i VoiceRecognition.obj
 0001:0000154d       ?TranslateAcceleratorW@?$IOleInPlaceActiveObjectImpl@VCOPOSVoiceRecognition@@@ATL@@UAGJPAUtagMSG@@@Z 1000254d f i VoiceRecognition.obj
 0001:000015fb       ?OnDocWindowActivate@?$IOleInPlaceActiveObjectImpl@VCOPOSVoiceRecognition@@@ATL@@UAGJH@Z 100025fb f i VoiceRecognition.obj
 0001:0000161d       ?ResizeBorder@?$IOleInPlaceActiveObjectImpl@VCOPOSVoiceRecognition@@@ATL@@UAGJPBUtagRECT@@PAUIOleInPlaceUIWindow@@H@Z 1000261d f i VoiceRecognition.obj
 0001:00001622       ?Draw@?$IViewObjectExImpl@VCOPOSVoiceRecognition@@@ATL@@UAGJKJPAXPAUtagDVTARGETDEVICE@@PAUHDC__@@2PBU_RECTL@@3P6GHK@ZK@Z 10002622 f i VoiceRecognition.obj
 0001:00001654       ?GetColorSet@?$IViewObjectExImpl@VCOPOSVoiceRecognition@@@ATL@@UAGJKJPAXPAUtagDVTARGETDEVICE@@PAUHDC__@@PAPAUtagLOGPALETTE@@@Z 10002654 f i VoiceRecognition.obj
 0001:0000165c       ?Freeze@?$IViewObjectExImpl@VCOPOSVoiceRecognition@@@ATL@@UAGJKJPAXPAK@Z 1000265c f i VoiceRecognition.obj
 0001:00001664       ?SetAdvise@?$IViewObjectExImpl@VCOPOSVoiceRecognition@@@ATL@@UAGJKKPAUIAdviseSink@@@Z 10002664 f i VoiceRecognition.obj
 0001:00001683       ?GetAdvise@?$IViewObjectExImpl@VCOPOSVoiceRecognition@@@ATL@@UAGJPAK0PAPAUIAdviseSink@@@Z 10002683 f i VoiceRecognition.obj
 0001:000016b8       ?GetExtent@?$IViewObjectExImpl@VCOPOSVoiceRecognition@@@ATL@@UAGJKJPAUtagDVTARGETDEVICE@@PAUtagSIZE@@@Z 100026b8 f i VoiceRecognition.obj
 0001:000016e9       ?GetViewStatus@?$IViewObjectExImpl@VCOPOSVoiceRecognition@@@ATL@@UAGJPAK@Z 100026e9 f i VoiceRecognition.obj
 0001:00001706       ?QueryHitPoint@?$IViewObjectExImpl@VCOPOSVoiceRecognition@@@ATL@@UAGJKPBUtagRECT@@UtagPOINT@@JPAK@Z 10002706 f i VoiceRecognition.obj
 0001:00001747       ?QueryHitRect@?$IViewObjectExImpl@VCOPOSVoiceRecognition@@@ATL@@UAGJKPBUtagRECT@@0JPAK@Z 10002747 f i VoiceRecognition.obj
 0001:000017a2       ?GetNaturalExtent@?$IViewObjectExImpl@VCOPOSVoiceRecognition@@@ATL@@UAGJKJPAUtagDVTARGETDEVICE@@PAUHDC__@@PAUtagExtentInfo@@PAUtagSIZE@@@Z 100027a2 f i VoiceRecognition.obj
 0001:000017ed       ?GetWindow@?$IOleInPlaceObjectWindowlessImpl@VCOPOSVoiceRecognition@@@ATL@@UAGJPAPAUHWND__@@@Z 100027ed f i VoiceRecognition.obj
 0001:0000183a       ?InPlaceDeactivate@?$IOleInPlaceObjectWindowlessImpl@VCOPOSVoiceRecognition@@@ATL@@UAGJXZ 1000283a f i VoiceRecognition.obj
 0001:00001854       ?UIDeactivate@?$IOleInPlaceObjectWindowlessImpl@VCOPOSVoiceRecognition@@@ATL@@UAGJXZ 10002854 f i VoiceRecognition.obj
 0001:0000186e       ?SetObjectRects@?$IOleInPlaceObjectWindowlessImpl@VCOPOSVoiceRecognition@@@ATL@@UAGJPBUtagRECT@@0@Z 1000286e f i VoiceRecognition.obj
 0001:0000188e       ?ReactivateAndUndo@?$IOleInPlaceObjectWindowlessImpl@VCOPOSVoiceRecognition@@@ATL@@UAGJXZ 1000288e f i VoiceRecognition.obj
 0001:00001896       ?OnWindowMessage@?$IOleInPlaceObjectWindowlessImpl@VCOPOSVoiceRecognition@@@ATL@@UAGJIIJPAJ@Z 10002896 f i VoiceRecognition.obj
 0001:00001906       ?EnumConnectionPoints@?$IConnectionPointContainerImpl@VCOPOSVoiceRecognition@@@ATL@@UAGJPAPAUIEnumConnectionPoints@@@Z 10002906 f i VoiceRecognition.obj
 0001:00001a96       ?FindConnectionPoint@?$IConnectionPointContainerImpl@VCOPOSVoiceRecognition@@@ATL@@UAGJABU_GUID@@PAPAUIConnectionPoint@@@Z 10002a96 f i VoiceRecognition.obj
 0001:00001b39       ?IsDirty@?$IPersistStorageImpl@VCOPOSVoiceRecognition@@@ATL@@UAGJXZ 10002b39 f i VoiceRecognition.obj
 0001:00001b69       ?InitNew@?$IPersistStorageImpl@VCOPOSVoiceRecognition@@@ATL@@UAGJPAUIStorage@@@Z 10002b69 f i VoiceRecognition.obj
 0001:00001b99       ?Load@?$IPersistStorageImpl@VCOPOSVoiceRecognition@@@ATL@@UAGJPAUIStorage@@@Z 10002b99 f i VoiceRecognition.obj
 0001:00001c05       ?Save@?$IPersistStorageImpl@VCOPOSVoiceRecognition@@@ATL@@UAGJPAUIStorage@@H@Z 10002c05 f i VoiceRecognition.obj
 0001:00001c78       ?GetPages@?$ISpecifyPropertyPagesImpl@VCOPOSVoiceRecognition@@@ATL@@UAGJPAUtagCAUUID@@@Z 10002c78 f i VoiceRecognition.obj
 0001:00001c8f       ?QuickActivate@?$IQuickActivateImpl@VCOPOSVoiceRecognition@@@ATL@@UAGJPAUtagQACONTAINER@@PAUtagQACONTROL@@@Z 10002c8f f i VoiceRecognition.obj
 0001:00001cb2       ?SetContentExtent@?$IQuickActivateImpl@VCOPOSVoiceRecognition@@@ATL@@UAGJPAUtagSIZE@@@Z 10002cb2 f i VoiceRecognition.obj
 0001:00001cde       ?GetContentExtent@?$IQuickActivateImpl@VCOPOSVoiceRecognition@@@ATL@@UAGJPAUtagSIZE@@@Z 10002cde f i VoiceRecognition.obj
 0001:00001d1a       ?GetData@?$IDataObjectImpl@VCOPOSVoiceRecognition@@@ATL@@UAGJPAUtagFORMATETC@@PAUtagSTGMEDIUM@@@Z 10002d1a f i VoiceRecognition.obj
 0001:00001d3d       ?DAdvise@?$IDataObjectImpl@VCOPOSVoiceRecognition@@@ATL@@UAGJPAUtagFORMATETC@@KPAUIAdviseSink@@PAK@Z 10002d3d f i VoiceRecognition.obj
 0001:00001d7e       ?DUnadvise@?$IDataObjectImpl@VCOPOSVoiceRecognition@@@ATL@@UAGJK@Z 10002d7e f i VoiceRecognition.obj
 0001:00001dac       ?EnumDAdvise@?$IDataObjectImpl@VCOPOSVoiceRecognition@@@ATL@@UAGJPAPAUIEnumSTATDATA@@@Z 10002dac f i VoiceRecognition.obj
 0001:00001deb       ?GetClassInfoW@?$IProvideClassInfo2Impl@$1?CLSID_OPOSVoiceRecognition@@3U_GUID@@B$1?DIID__IOPOSVoiceRecognitionEvents@@3U2@B$1?LIBID_OposVoiceRecognition_CCO@@3U2@B$00$0A@VCComTypeInfoHolder@ATL@@@ATL@@UAGJPAPAUITypeInfo@@@Z 10002deb f i VoiceRecognition.obj
 0001:00001e01       ?GetGUID@?$IProvideClassInfo2Impl@$1?CLSID_OPOSVoiceRecognition@@3U_GUID@@B$1?DIID__IOPOSVoiceRecognitionEvents@@3U2@B$1?LIBID_OposVoiceRecognition_CCO@@3U2@B$00$0A@VCComTypeInfoHolder@ATL@@@ATL@@UAGJKPAU_GUID@@@Z 10002e01 f i VoiceRecognition.obj
 0001:00001e3f       __get_startup_argv_mode    10002e3f f i LIBCMT:argv_mode.obj
 0001:00001e3f       ?FAccessAllowed@?$IObjectSafetyImpl@VCOPOSVoiceRecognition@@$02@ATL@@MAEHXZ 10002e3f f i VoiceRecognition.obj
 0001:00001e43       ?GetInterfaceSafetyOptions@?$IObjectSafetyImpl@VCOPOSVoiceRecognition@@$02@ATL@@UAGJABU_GUID@@PAK1@Z 10002e43 f i VoiceRecognition.obj
 0001:00001eb6       ?SetInterfaceSafetyOptions@?$IObjectSafetyImpl@VCOPOSVoiceRecognition@@$02@ATL@@UAGJABU_GUID@@KK@Z 10002eb6 f i VoiceRecognition.obj
 0001:00001f30       ?_LocCPQueryInterface@?$IConnectionPointImpl@VCOPOSVoiceRecognition@@$1?IID_IPropertyNotifySink@@3U_GUID@@BVCComDynamicUnkArray@ATL@@@ATL@@UAGJABU_GUID@@PAPAX@Z 10002f30 f i VoiceRecognition.obj
 0001:00001f30       ?_LocCPQueryInterface@?$IConnectionPointImpl@VCOPOSVoiceRecognition@@$1?DIID__IOPOSVoiceRecognitionEvents@@3U_GUID@@BVCComDynamicUnkArray@ATL@@@ATL@@UAGJABU_GUID@@PAPAX@Z 10002f30 f i VoiceRecognition.obj
 0001:00001f7d       ?GetConnectionInterface@?$IConnectionPointImpl@VCOPOSVoiceRecognition@@$1?IID_IPropertyNotifySink@@3U_GUID@@BVCComDynamicUnkArray@ATL@@@ATL@@UAGJPAU_GUID@@@Z 10002f7d f i VoiceRecognition.obj
 0001:00001fa1       ?GetConnectionPointContainer@?$IConnectionPointImpl@VCOPOSVoiceRecognition@@$1?IID_IPropertyNotifySink@@3U_GUID@@BVCComDynamicUnkArray@ATL@@@ATL@@UAGJPAPAUIConnectionPointContainer@@@Z 10002fa1 f i VoiceRecognition.obj
 0001:00001fc4       ?Advise@?$IConnectionPointImpl@VCOPOSVoiceRecognition@@$1?IID_IPropertyNotifySink@@3U_GUID@@BVCComDynamicUnkArray@ATL@@@ATL@@UAGJPAUIUnknown@@PAK@Z 10002fc4 f i VoiceRecognition.obj
 0001:00001fc4       ?Advise@?$IConnectionPointImpl@VCOPOSVoiceRecognition@@$1?DIID__IOPOSVoiceRecognitionEvents@@3U_GUID@@BVCComDynamicUnkArray@ATL@@@ATL@@UAGJPAUIUnknown@@PAK@Z 10002fc4 f i VoiceRecognition.obj
 0001:00002064       ?Lock@CAtlModule@ATL@@UAEJXZ 10003064 f i VoiceRecognition.obj
 0001:0000206e       ?Unadvise@?$IConnectionPointImpl@VCOPOSVoiceRecognition@@$1?DIID__IOPOSVoiceRecognitionEvents@@3U_GUID@@BVCComDynamicUnkArray@ATL@@@ATL@@UAGJK@Z 1000306e f i VoiceRecognition.obj
 0001:0000206e       ?Unadvise@?$IConnectionPointImpl@VCOPOSVoiceRecognition@@$1?IID_IPropertyNotifySink@@3U_GUID@@BVCComDynamicUnkArray@ATL@@@ATL@@UAGJK@Z 1000306e f i VoiceRecognition.obj
 0001:000020ae       ?Unlock@CAtlModule@ATL@@UAEJXZ 100030ae f i VoiceRecognition.obj
 0001:000020b8       ?GetLockCount@CAtlModule@ATL@@UAEJXZ 100030b8 f i VoiceRecognition.obj
 0001:000020bc       ?EnumConnections@?$IConnectionPointImpl@VCOPOSVoiceRecognition@@$1?DIID__IOPOSVoiceRecognitionEvents@@3U_GUID@@BVCComDynamicUnkArray@ATL@@@ATL@@UAGJPAPAUIEnumConnections@@@Z 100030bc f i VoiceRecognition.obj
 0001:000020bc       ?EnumConnections@?$IConnectionPointImpl@VCOPOSVoiceRecognition@@$1?IID_IPropertyNotifySink@@3U_GUID@@BVCComDynamicUnkArray@ATL@@@ATL@@UAGJPAPAUIEnumConnections@@@Z 100030bc f i VoiceRecognition.obj
 0001:000021bf       ?GetGITPtr@CAtlModule@ATL@@UAEJPAPAUIGlobalInterfaceTable@@@Z 100031bf f i VoiceRecognition.obj
 0001:0000220b       ?GetConnectionInterface@?$IConnectionPointImpl@VCOPOSVoiceRecognition@@$1?DIID__IOPOSVoiceRecognitionEvents@@3U_GUID@@BVCComDynamicUnkArray@ATL@@@ATL@@UAGJPAU_GUID@@@Z 1000320b f i VoiceRecognition.obj
 0001:0000222f       ?GetConnectionPointContainer@?$IConnectionPointImpl@VCOPOSVoiceRecognition@@$1?DIID__IOPOSVoiceRecognitionEvents@@3U_GUID@@BVCComDynamicUnkArray@ATL@@@ATL@@UAGJPAPAUIConnectionPointContainer@@@Z 1000322f f i VoiceRecognition.obj
 0001:00002252       ?UpdateRegistry@COPOSVoiceRecognition@@SGJH@Z 10003252 f i VoiceRecognition.obj
 0001:0000226a       ?ProcessWindowMessage@COPOSVoiceRecognition@@UAEHPAUHWND__@@IIJAAJK@Z 1000326a f i VoiceRecognition.obj
 0001:000022b7       ?AddCommonRGSReplacements@?$CAtlModuleT@VCComModule@ATL@@@ATL@@UAEJPAUIRegistrarBase@@@Z 100032b7 f i VoiceRecognition.obj
 0001:000022d1       ?SOData@COPOSVoiceRecognition@@MAGJJ@Z 100032d1 f i VoiceRecognition.obj
 0001:0000230a       ?SODirectIO@COPOSVoiceRecognition@@MAGJJPAJPAPA_W@Z 1000330a f i VoiceRecognition.obj
 0001:00002353       ?SOError@COPOSVoiceRecognition@@MAGJJJJPAJ@Z 10003353 f i VoiceRecognition.obj
 0001:000023a8       ?SOStatusUpdate@COPOSVoiceRecognition@@MAGJJ@Z 100033a8 f i VoiceRecognition.obj
 0001:000023e1       ?UpdateRegistryFromResourceD@CComModule@ATL@@UAGJIHPAU_ATL_REGMAP_ENTRY@2@@Z 100033e1 f i VoiceRecognition.obj
 0001:000023e1       ?UpdateRegistryFromResourceD@CComModule@ATL@@UAGJPB_WHPAU_ATL_REGMAP_ENTRY@2@@Z 100033e1 f i VoiceRecognition.obj
 0001:000023e9       ?UpdateRegistryFromResource@CComModule@ATL@@UAGJPB_WHPAU_ATL_REGMAP_ENTRY@2@@Z 100033e9 f i VoiceRecognition.obj
 0001:000023f2       ?UpdateRegistryFromResource@CComModule@ATL@@UAGJIHPAU_ATL_REGMAP_ENTRY@2@@Z 100033f2 f i VoiceRecognition.obj
 0001:000023fb       ??_ECComModule@ATL@@UAEPAXI@Z 100033fb f i VoiceRecognition.obj
 0001:000023fb       ??_GCComModule@ATL@@UAEPAXI@Z 100033fb f i VoiceRecognition.obj
 0001:00002423       ?CreateInstance@?$CComCreator@V?$CComObjectCached@VCComClassFactory@ATL@@@ATL@@@ATL@@SGJPAXABU_GUID@@PAPAX@Z 10003423 f i VoiceRecognition.obj
 0001:000024c4       ?CreateInstance@?$CComCreator2@V?$CComCreator@V?$CComObject@VCOPOSVoiceRecognition@@@ATL@@@ATL@@V?$CComCreator@V?$CComAggObject@VCOPOSVoiceRecognition@@@ATL@@@2@@ATL@@SGJPAXABU_GUID@@PAPAX@Z 100034c4 f i VoiceRecognition.obj
 0001:000024e4       ?AddRef@?$CComObjectCached@VCComClassFactory@ATL@@@ATL@@UAGKXZ 100034e4 f i VoiceRecognition.obj
 0001:0000250b       ?Release@?$CComObjectCached@VCComClassFactory@ATL@@@ATL@@UAGKXZ 1000350b f i VoiceRecognition.obj
 0001:00002541       ?QueryInterface@?$CComObjectCached@VCComClassFactory@ATL@@@ATL@@UAGJABU_GUID@@PAPAX@Z 10003541 f i VoiceRecognition.obj
 0001:0000255b       ??_G?$CComObjectCached@VCComClassFactory@ATL@@@ATL@@UAEPAXI@Z 1000355b f i VoiceRecognition.obj
 0001:0000255b       ??_E?$CComObjectCached@VCComClassFactory@ATL@@@ATL@@UAEPAXI@Z 1000355b f i VoiceRecognition.obj
 0001:0000257d       ?Next@?$CComEnumImpl@UIEnumConnectionPoints@@$1?_GUID_b196b285_bab4_101a_b69c_00aa00341d07@@3U__s_GUID@@BPAUIConnectionPoint@@V?$_CopyInterface@UIConnectionPoint@@@ATL@@@ATL@@UAGJKPAPAUIConnectionPoint@@PAK@Z 1000357d f i VoiceRecognition.obj
 0001:0000264c       ?Skip@?$CComEnumImpl@UIEnumConnectionPoints@@$1?_GUID_b196b285_bab4_101a_b69c_00aa00341d07@@3U__s_GUID@@BPAUIConnectionPoint@@V?$_CopyInterface@UIConnectionPoint@@@ATL@@@ATL@@UAGJK@Z 1000364c f i VoiceRecognition.obj
 0001:00002679       ?Clone@?$CComEnumImpl@UIEnumConnectionPoints@@$1?_GUID_b196b285_bab4_101a_b69c_00aa00341d07@@3U__s_GUID@@BPAUIConnectionPoint@@V?$_CopyInterface@UIConnectionPoint@@@ATL@@@ATL@@UAGJPAPAUIEnumConnectionPoints@@@Z 10003679 f i VoiceRecognition.obj
 0001:0000275a       ?QueryInterface@?$CComObject@V?$CComEnum@UIEnumConnectionPoints@@$1?_GUID_b196b285_bab4_101a_b69c_00aa00341d07@@3U__s_GUID@@BPAUIConnectionPoint@@V?$_CopyInterface@UIConnectionPoint@@@ATL@@VCComSingleThreadModel@6@@ATL@@@ATL@@UAGJABU_GUID@@PAPAX@Z 1000375a f i VoiceRecognition.obj
 0001:00002774       ??_E?$CComObject@V?$CComEnum@UIEnumConnectionPoints@@$1?_GUID_b196b285_bab4_101a_b69c_00aa00341d07@@3U__s_GUID@@BPAUIConnectionPoint@@V?$_CopyInterface@UIConnectionPoint@@@ATL@@VCComSingleThreadModel@6@@ATL@@@ATL@@UAEPAXI@Z 10003774 f i VoiceRecognition.obj
 0001:00002774       ??_G?$CComObject@V?$CComEnum@UIEnumConnectionPoints@@$1?_GUID_b196b285_bab4_101a_b69c_00aa00341d07@@3U__s_GUID@@BPAUIConnectionPoint@@V?$_CopyInterface@UIConnectionPoint@@@ATL@@VCComSingleThreadModel@6@@ATL@@@ATL@@UAEPAXI@Z 10003774 f i VoiceRecognition.obj
 0001:00002796       ?AddRef@CRegObject@ATL@@UAGKXZ 10003796 f i VoiceRecognition.obj
 0001:0000279c       ?AddReplacement@CRegObject@ATL@@UAGJPB_W0@Z 1000379c f i VoiceRecognition.obj
 0001:000027d5       ?ClearReplacements@CRegObject@ATL@@UAGJXZ 100037d5 f i VoiceRecognition.obj
 0001:000027e7       ??_ECRegObject@ATL@@UAEPAXI@Z 100037e7 f i VoiceRecognition.obj
 0001:000027e7       ??_GCRegObject@ATL@@UAEPAXI@Z 100037e7 f i VoiceRecognition.obj
 0001:00002809       ?AddRef@?$CComAggObject@VCOPOSVoiceRecognition@@@ATL@@UAGKXZ 10003809 f i VoiceRecognition.obj
 0001:0000281a       ?Release@?$CComAggObject@VCOPOSVoiceRecognition@@@ATL@@UAGKXZ 1000381a f i VoiceRecognition.obj
 0001:00002856       ?QueryInterface@?$CComAggObject@VCOPOSVoiceRecognition@@@ATL@@UAGJABU_GUID@@PAPAX@Z 10003856 f i VoiceRecognition.obj
 0001:000028a5       ?AddRef@?$CComContainedObject@VCOPOSVoiceRecognition@@@ATL@@UAGKXZ 100038a5 f i VoiceRecognition.obj
 0001:000028bb       ?Release@?$CComContainedObject@VCOPOSVoiceRecognition@@@ATL@@UAGKXZ 100038bb f i VoiceRecognition.obj
 0001:000028d1       ?QueryInterface@?$CComContainedObject@VCOPOSVoiceRecognition@@@ATL@@UAGJABU_GUID@@PAPAX@Z 100038d1 f i VoiceRecognition.obj
 0001:000028ec       ??_E?$CComAggObject@VCOPOSVoiceRecognition@@@ATL@@UAEPAXI@Z 100038ec f i VoiceRecognition.obj
 0001:000028ec       ??_G?$CComAggObject@VCOPOSVoiceRecognition@@@ATL@@UAEPAXI@Z 100038ec f i VoiceRecognition.obj
 0001:00002911       ?AddRef@?$CComObject@VCOPOSVoiceRecognition@@@ATL@@UAGKXZ 10003911 f i VoiceRecognition.obj
 0001:00002928       ?Release@?$CComObject@VCOPOSVoiceRecognition@@@ATL@@UAGKXZ 10003928 f i VoiceRecognition.obj
 0001:0000296a       ?QueryInterface@?$CComObject@VCOPOSVoiceRecognition@@@ATL@@UAGJABU_GUID@@PAPAX@Z 1000396a f i VoiceRecognition.obj
 0001:00002984       ??$?4UITypeInfo2@@@?$CComPtr@UITypeInfo@@@ATL@@QAEPAUITypeInfo@@ABV?$CComPtr@UITypeInfo2@@@1@@Z 10003984 f i VoiceRecognition.obj
 0001:000029b1       ??$AtlAdd@K@ATL@@YAJPAKKK@Z 100039b1 f i VoiceRecognition.obj
 0001:000029d4       ??$AtlAdd@_K@ATL@@YAJPA_K_K1@Z 100039d4 f i VoiceRecognition.obj
 0001:00002a0c       ??$AtlAddThrow@K@ATL@@YAKKK@Z 10003a0c f i VoiceRecognition.obj
 0001:00002a32       ??$AtlModuleRegisterWndClassInfoT@VAtlModuleRegisterWndClassInfoParamW@ATL@@@ATL@@YAGPAU_ATL_BASE_MODULE70@0@PAU_ATL_WIN_MODULE70@0@PAU_ATL_WNDCLASSINFOW@0@PAP6GJPAUHWND__@@IIJ@ZVAtlModuleRegisterWndClassInfoParamW@0@@Z 10003a32 f i VoiceRecognition.obj
 0001:00002b7f       ??$AtlMultiply@H@ATL@@YAJPAHHH@Z 10003b7f f i VoiceRecognition.obj
 0001:00002bb7       ??$AtlMultiply@K@ATL@@YAJPAKKK@Z 10003bb7 f i VoiceRecognition.obj
 0001:00002bb7       ??$AtlMultiply@I@ATL@@YAJPAIII@Z 10003bb7 f i VoiceRecognition.obj
 0001:00002bd9       ??$AtlMultiplyThrow@I@ATL@@YAIII@Z 10003bd9 f i VoiceRecognition.obj
 0001:00002bff       ??0?$CComAggObject@VCOPOSVoiceRecognition@@@ATL@@QAE@PAX@Z 10003bff f i VoiceRecognition.obj
 0001:00002c2c       ??0?$CComContainedObject@VCOPOSVoiceRecognition@@@ATL@@QAE@PAX@Z 10003c2c f i VoiceRecognition.obj
 0001:00002ce5       ??0?$CComObject@V?$CComEnum@UIEnumConnectionPoints@@$1?_GUID_b196b285_bab4_101a_b69c_00aa00341d07@@3U__s_GUID@@BPAUIConnectionPoint@@V?$_CopyInterface@UIConnectionPoint@@@ATL@@VCComSingleThreadModel@6@@ATL@@@ATL@@QAE@PAX@Z 10003ce5 f i VoiceRecognition.obj
 0001:00002d13       ??0?$CComObject@V?$CComEnum@UIEnumConnections@@$1?_GUID_b196b287_bab4_101a_b69c_00aa00341d07@@3U__s_GUID@@BUtagCONNECTDATA@@V?$_Copy@UtagCONNECTDATA@@@ATL@@VCComSingleThreadModel@6@@ATL@@@ATL@@QAE@PAX@Z 10003d13 f i VoiceRecognition.obj
 0001:00002d41       ??0?$CComObject@VCOPOSVoiceRecognition@@@ATL@@QAE@PAX@Z 10003d41 f i VoiceRecognition.obj
 0001:00002df8       ??0?$CComQIPtr@UIOleControlSite@@$1?_GUID_b196b289_bab4_101a_b69c_00aa00341d07@@3U__s_GUID@@B@ATL@@QAE@PAUIUnknown@@@Z 10003df8 f i VoiceRecognition.obj
 0001:00002e21       ??0CAtlModule@ATL@@QAE@XZ  10003e21 f i VoiceRecognition.obj
 0001:00002e62       ??0CParseBuffer@CRegParser@ATL@@QAE@H@Z 10003e62 f i VoiceRecognition.obj
 0001:00002e98       ??0_ATL_MSG@ATL@@QAE@PAUHWND__@@IIJH@Z 10003e98 f i VoiceRecognition.obj
 0001:00002ed0       ??1?$CComAggObject@VCOPOSVoiceRecognition@@@ATL@@UAE@XZ 10003ed0 f i VoiceRecognition.obj
 0001:00002ef4       ??1?$CComEnumImpl@UIEnumConnectionPoints@@$1?_GUID_b196b285_bab4_101a_b69c_00aa00341d07@@3U__s_GUID@@BPAUIConnectionPoint@@V?$_CopyInterface@UIConnectionPoint@@@ATL@@@ATL@@UAE@XZ 10003ef4 f i VoiceRecognition.obj
 0001:00002f30       ??1?$CComEnumImpl@UIEnumConnections@@$1?_GUID_b196b287_bab4_101a_b69c_00aa00341d07@@3U__s_GUID@@BUtagCONNECTDATA@@V?$_Copy@UtagCONNECTDATA@@@ATL@@@ATL@@UAE@XZ 10003f30 f i VoiceRecognition.obj
 0001:00002f6c       ??1?$CComObject@V?$CComEnum@UIEnumConnectionPoints@@$1?_GUID_b196b285_bab4_101a_b69c_00aa00341d07@@3U__s_GUID@@BPAUIConnectionPoint@@V?$_CopyInterface@UIConnectionPoint@@@ATL@@VCComSingleThreadModel@6@@ATL@@@ATL@@UAE@XZ 10003f6c f i VoiceRecognition.obj
 0001:00002f8f       ??1?$CComObject@V?$CComEnum@UIEnumConnections@@$1?_GUID_b196b287_bab4_101a_b69c_00aa00341d07@@3U__s_GUID@@BUtagCONNECTDATA@@V?$_Copy@UtagCONNECTDATA@@@ATL@@VCComSingleThreadModel@6@@ATL@@@ATL@@UAE@XZ 10003f8f f i VoiceRecognition.obj
 0001:00002fb2       ??1?$CComObject@VCOPOSVoiceRecognition@@@ATL@@UAE@XZ 10003fb2 f i VoiceRecognition.obj
 0001:00003070       ??1?$CComObjectCached@VCComClassFactory@ATL@@@ATL@@UAE@XZ 10004070 f i VoiceRecognition.obj
 0001:00003086       ??1?$CComObjectRootEx@VCComMultiThreadModel@ATL@@@ATL@@QAE@XZ 10004086 f i VoiceRecognition.obj
 0001:0000309b       ??1CRegObject@ATL@@UAE@XZ  1000409b f i VoiceRecognition.obj
 0001:000030bb       ??4?$CComPtr@UIAdviseSink@@@ATL@@QAEPAUIAdviseSink@@PAU2@@Z 100040bb f i VoiceRecognition.obj
 0001:000030bb       ??4?$CComPtr@UIOleClientSite@@@ATL@@QAEPAUIOleClientSite@@PAU2@@Z 100040bb f i VoiceRecognition.obj
 0001:000030bb       ??4?$CComPtr@UIUnknown@@@ATL@@QAEPAUIUnknown@@PAU2@@Z 100040bb f i VoiceRecognition.obj
 0001:000030e9       ??_G?$CComContainedObject@VCOPOSVoiceRecognition@@@ATL@@UAEPAXI@Z 100040e9 f i VoiceRecognition.obj
 0001:000030e9       ??_E?$CComContainedObject@VCOPOSVoiceRecognition@@@ATL@@UAEPAXI@Z 100040e9 f i VoiceRecognition.obj
 0001:0000310e       ??_G?$CComObject@VCOPOSVoiceRecognition@@@ATL@@UAEPAXI@Z 1000410e f i VoiceRecognition.obj
 0001:0000310e       ??_E?$CComObject@VCOPOSVoiceRecognition@@@ATL@@UAEPAXI@Z 1000410e f i VoiceRecognition.obj
 0001:00003133       ?Add@?$CSimpleArray@GV?$CSimpleArrayEqualHelper@G@ATL@@@ATL@@QAEHABG@Z 10004133 f i VoiceRecognition.obj
 0001:000031ad       ?Add@?$CSimpleMap@PA_WPA_WVCExpansionVectorEqualHelper@ATL@@@ATL@@QAEHABQA_W0@Z 100041ad f i VoiceRecognition.obj
 0001:00003202       ?Add@CComDynamicUnkArray@ATL@@QAEKPAUIUnknown@@@Z 10004202 f i VoiceRecognition.obj
 0001:000032b3       ?Add@CExpansionVector@ATL@@QAEHPB_W0@Z 100042b3 f i VoiceRecognition.obj
 0001:000033bc       ?AddString@CParseBuffer@CRegParser@ATL@@QAEHPB_W@Z 100043bc f i VoiceRecognition.obj
 0001:000033f1       ?AddTermFunc@CAtlModule@ATL@@QAEJP6GXK@ZK@Z 100043f1 f i VoiceRecognition.obj
 0001:0000345d       ?AddValue@CRegParser@ATL@@IAEJAAVCRegKey@2@PB_WPA_W@Z 1000445d f i VoiceRecognition.obj
 0001:00003777       ?Allocate@?$CAtlSafeAllocBufferManager@VCCRTAllocator@ATL@@@_ATL_SAFE_ALLOCA_IMPL@ATL@@QAEPAXK@Z 10004777 f i VoiceRecognition.obj
 0001:000037a4       ?Allocate@?$CTempBuffer@E$0BAA@VCCRTAllocator@ATL@@@ATL@@QAEPAEI@Z 100047a4 f i VoiceRecognition.obj
 0001:000037d3       ?Allocate@?$CTempBuffer@_W$0BAA@VCCRTAllocator@ATL@@@ATL@@QAEPA_WI@Z 100047d3 f i VoiceRecognition.obj
 0001:00003802       ?Allocate@?$CTempBuffer@_W$0EAA@VCCRTAllocator@ATL@@@ATL@@QAEPA_WI@Z 10004802 f i VoiceRecognition.obj
 0001:00003831       ?AllocateHeap@?$CTempBuffer@_W$0EAA@VCCRTAllocator@ATL@@@ATL@@AAEXI@Z 10004831 f i VoiceRecognition.obj
 0001:00003831       ?AllocateHeap@?$CTempBuffer@E$0BAA@VCCRTAllocator@ATL@@@ATL@@AAEXI@Z 10004831 f i VoiceRecognition.obj
 0001:00003831       ?AllocateHeap@?$CTempBuffer@_W$0BAA@VCCRTAllocator@ATL@@@ATL@@AAEXI@Z 10004831 f i VoiceRecognition.obj
 0001:00003856       ?Append@CParseBuffer@CRegParser@ATL@@QAEHPB_WH@Z 10004856 f i VoiceRecognition.obj
 0001:000038e2       ?AtlCoTaskMemCAlloc@ATL@@YAPAXKK@Z 100048e2 f i VoiceRecognition.obj
 0001:0000390f       ?AtlCoTaskMemRecalloc@ATL@@YAPAXPAXKK@Z 1000490f f i VoiceRecognition.obj
 0001:0000393f       ?AtlComModuleGetClassObject@ATL@@YGJPAU_ATL_COM_MODULE70@1@ABU_GUID@@1PAPAX@Z 1000493f f i VoiceRecognition.obj
 0001:00003a34       ?AtlComModuleRegisterServer@ATL@@YGJPAU_ATL_COM_MODULE70@1@HPBU_GUID@@@Z 10004a34 f i VoiceRecognition.obj
 0001:00003abc       ?AtlComModuleUnregisterServer@ATL@@YGJPAU_ATL_COM_MODULE70@1@HPBU_GUID@@@Z 10004abc f i VoiceRecognition.obj
 0001:00003b44       ?AtlComQIPtrAssign2@ATL@@YAXPAPAUIUnknown@@PAU2@ABU_GUID@@@Z 10004b44 f i VoiceRecognition.obj
 0001:00003b73       ?AtlCreateTargetDC@ATL@@YGPAUHDC__@@PAU2@PAUtagDVTARGETDEVICE@@@Z 10004b73 f i VoiceRecognition.obj
 0001:00003bdc       ?AtlCrtErrorCheck@ATL@@YAHH@Z 10004bdc f i VoiceRecognition.obj
 0001:00003c17       ?AtlHiMetricToPixel@ATL@@YGXPBUtagSIZE@@PAU2@@Z 10004c17 f i VoiceRecognition.obj
 0001:00003c8c       ?AtlHresultFromLastError@ATL@@YAJXZ 10004c8c f i VoiceRecognition.obj
 0001:00003ca3       ?AtlHresultFromWin32@ATL@@YAJK@Z 10004ca3 f i VoiceRecognition.obj
 0001:00003cb8       ?AtlInternalOleLoadFromStream@ATL@@YAJPAUIStream@@ABU_GUID@@PAPAXTClassesAllowedInStream@1@K@Z 10004cb8 f i VoiceRecognition.obj
 0001:00003de1       ?AtlInternalQueryInterface@ATL@@YGJPAXPBU_ATL_INTMAP_ENTRY@1@ABU_GUID@@PAPAX@Z 10004de1 f i VoiceRecognition.obj
 0001:00003e84       ?AtlLoadTypeLib@ATL@@YGJPAUHINSTANCE__@@PB_WPAPA_WPAPAUITypeLib@@@Z 10004e84 f i VoiceRecognition.obj
 0001:00004062       ?AtlRegisterClassCategoriesHelper@ATL@@YGJABU_GUID@@PBU_ATL_CATMAP_ENTRY@1@H@Z 10005062 f i VoiceRecognition.obj
 0001:0000435e       ?AtlRegisterTypeLib@ATL@@YGJPAUHINSTANCE__@@PB_W@Z 1000535e f i VoiceRecognition.obj
 0001:000044e6       ?AtlThrowImpl@ATL@@YGXJ@Z  100054e6 f i VoiceRecognition.obj
 0001:00004504       ?AtlUnRegisterTypeLib@ATL@@YGJPAUHINSTANCE__@@PB_W@Z 10005504 f i VoiceRecognition.obj
 0001:000045af       ?AtlWinModuleAddCreateWndData@ATL@@YGXPAU_ATL_WIN_MODULE70@1@PAU_AtlCreateWndData@1@PAX@Z 100055af f i VoiceRecognition.obj
 0001:00004603       ?AtlWinModuleExtractCreateWndData@ATL@@YGPAXPAU_ATL_WIN_MODULE70@1@@Z 10005603 f i VoiceRecognition.obj
 0001:00004667       ?AtlWinModuleRegisterClassExW@ATL@@YGGPAU_ATL_WIN_MODULE70@1@PBUtagWNDCLASSEXW@@@Z 10005667 f i VoiceRecognition.obj
 0001:000046a6       ?CanForceRemoveKey@CRegParser@ATL@@IAEHPB_W@Z 100056a6 f i VoiceRecognition.obj
 0001:000046d5       ?ChToByte@CRegParser@ATL@@KAE_W@Z 100056d5 f i VoiceRecognition.obj
 0001:0000475d       ?Cleanup@CComTypeInfoHolder@ATL@@SGXK@Z 1000575d f i VoiceRecognition.obj
 0001:00004790       ?ClearReplacements@CExpansionVector@ATL@@QAEJXZ 10005790 f i VoiceRecognition.obj
 0001:000047cd       ?Close@CRegKey@ATL@@QAEJXZ 100057cd f i VoiceRecognition.obj
 0001:000047e7       ?CreateInstance@?$CComCreator@V?$CComAggObject@VCOPOSVoiceRecognition@@@ATL@@@ATL@@SGJPAXABU_GUID@@PAPAX@Z 100057e7 f i VoiceRecognition.obj
 0001:0000485c       ?CreateInstance@?$CComCreator@V?$CComObject@VCOPOSVoiceRecognition@@@ATL@@@ATL@@SGJPAXABU_GUID@@PAPAX@Z 1000585c f i VoiceRecognition.obj
 0001:000048e5       ?CreateInstance@?$CComObject@V?$CComEnum@UIEnumConnectionPoints@@$1?_GUID_b196b285_bab4_101a_b69c_00aa00341d07@@3U__s_GUID@@BPAUIConnectionPoint@@V?$_CopyInterface@UIConnectionPoint@@@ATL@@VCComSingleThreadModel@6@@ATL@@@ATL@@SGJPAPAV12@@Z 100058e5 f i VoiceRecognition.obj
 0001:0000492f       ?CreateInstance@?$CComObject@V?$CComEnum@UIEnumConnections@@$1?_GUID_b196b287_bab4_101a_b69c_00aa00341d07@@3U__s_GUID@@BUtagCONNECTDATA@@V?$_Copy@UtagCONNECTDATA@@@ATL@@VCComSingleThreadModel@6@@ATL@@@ATL@@SGJPAPAV12@@Z 1000592f f i VoiceRecognition.obj
 0001:00004979       ?DefaultReflectionHandler@?$CWindowImplRoot@VCWindow@ATL@@@ATL@@SAHPAUHWND__@@IIJAAJ@Z 10005979 f i VoiceRecognition.obj
 0001:00004a19       ?DeleteSubKey@CRegKey@ATL@@QAEJPB_W@Z 10005a19 f i VoiceRecognition.obj
 0001:00004a92       ?DoEvent@COPOSVoiceRecognition@@IAEXIIJ@Z 10005a92 f i VoiceRecognition.obj
 0001:00004b12       ?DoVerbHide@?$IOleObjectImpl@VCOPOSVoiceRecognition@@@ATL@@QAEJPBUtagRECT@@PAUHWND__@@@Z 10005b12 f i VoiceRecognition.obj
 0001:00004b48       ?DoVerbInPlaceActivate@?$IOleObjectImpl@VCOPOSVoiceRecognition@@@ATL@@QAEJPBUtagRECT@@PAUHWND__@@@Z 10005b48 f i VoiceRecognition.obj
 0001:00004b7b       ?DoVerbPrimary@?$IOleObjectImpl@VCOPOSVoiceRecognition@@@ATL@@QAEJPBUtagRECT@@PAUHWND__@@@Z 10005b7b f i VoiceRecognition.obj
 0001:00004c07       ?DoVerbProperties@CComControlBase@ATL@@QAEJPBUtagRECT@@PAUHWND__@@@Z 10005c07 f i VoiceRecognition.obj
 0001:00004d86       ?DoVerbUIActivate@?$IOleObjectImpl@VCOPOSVoiceRecognition@@@ATL@@QAEJPBUtagRECT@@PAUHWND__@@@Z 10005d86 f i VoiceRecognition.obj
 0001:00004dc3       ?DoesVerbActivate@CComControlBase@ATL@@QAEHJ@Z 10005dc3 f i VoiceRecognition.obj
 0001:00004de7       ?DoesVerbUIActivate@CComControlBase@ATL@@QAEHJ@Z 10005de7 f i VoiceRecognition.obj
 0001:00004e1c       ?EndOfVar@CRegParser@ATL@@IAEHXZ 10005e1c f i VoiceRecognition.obj
 0001:00004e3c       ?EscapeSingleQuote@CAtlModule@ATL@@SAXPA_WIPB_W@Z 10005e3c f i VoiceRecognition.obj
 0001:00004e8b       ?FindKey@?$CSimpleMap@PA_WPA_WVCExpansionVectorEqualHelper@ATL@@@ATL@@QBEHABQA_W@Z 10005e8b f i VoiceRecognition.obj
 0001:00004ec2       ?FireTheEvent@?$CProxy_IOPOSEvents@VCOPOSVoiceRecognition@@@@IAEXPAVOposVariant@@IAAJPB_WJ@Z 10005ec2 f i VoiceRecognition.obj
 0001:00004f54       ?FireViewChange@CComControlBase@ATL@@QAEJXZ 10005f54 f i VoiceRecognition.obj
 0001:00004f9d       ?Fire_DataEvent@?$CProxy_IOPOSEvents@VCOPOSVoiceRecognition@@@@QAEXJ@Z 10005f9d f i VoiceRecognition.obj
 0001:00005033       ?Fire_DirectIOEvent@?$CProxy_IOPOSEvents@VCOPOSVoiceRecognition@@@@QAEXJPAJPAPA_W@Z 10006033 f i VoiceRecognition.obj
 0001:0000511f       ?Fire_ErrorEvent@?$CProxy_IOPOSEvents@VCOPOSVoiceRecognition@@@@QAEXJJJPAJ@Z 1000611f f i VoiceRecognition.obj
 0001:00005210       ?Fire_StatusUpdateEvent@?$CProxy_IOPOSEvents@VCOPOSVoiceRecognition@@@@QAEXJ@Z 10006210 f i VoiceRecognition.obj
 0001:000052a6       ?FreeHeap@?$CTempBuffer@_W$0EAA@VCCRTAllocator@ATL@@@ATL@@AAEXXZ 100062a6 f i VoiceRecognition.obj
 0001:000052a6       ?FreeHeap@?$CTempBuffer@E$0BAA@VCCRTAllocator@ATL@@@ATL@@AAEXXZ 100062a6 f i VoiceRecognition.obj
 0001:000052a6       ?FreeHeap@?$CTempBuffer@_W$0BAA@VCCRTAllocator@ATL@@@ATL@@AAEXXZ 100062a6 f i VoiceRecognition.obj
 0001:000052af       ?GetAmbientLocaleID@CComControlBase@ATL@@QAEJAAK@Z 100062af f i VoiceRecognition.obj
 0001:0000530b       ?GetAmbientUserMode@CComControlBase@ATL@@QAEJAAH@Z 1000630b f i VoiceRecognition.obj
 0001:0000537b       ?GetAt@CComDynamicUnkArray@ATL@@QAEPAUIUnknown@@H@Z 1000637b f i VoiceRecognition.obj
 0001:00005397       ?GetClassObject@CComModule@ATL@@QAEJABU_GUID@@0PAPAX@Z 10006397 f i VoiceRecognition.obj
 0001:00005439       ?GetConnMap@COPOSVoiceRecognition@@SAPBU_ATL_CONNMAP_ENTRY@ATL@@PAH@Z 10006439 f i VoiceRecognition.obj
 0001:000054a9       ?GetCookie@CComDynamicUnkArray@ATL@@QAGKPAPAUIUnknown@@@Z 100064a9 f i VoiceRecognition.obj
 0001:000054e1       ?GetIDsOfNames@CComTypeInfoHolder@ATL@@QAEJABU_GUID@@PAPA_WIKPAJ@Z 100064e1 f i VoiceRecognition.obj
 0001:00005601       ?GetKeyAt@?$CSimpleMap@PA_WPA_WVCExpansionVectorEqualHelper@ATL@@@ATL@@QBEAAPA_WH@Z 10006601 f i VoiceRecognition.obj
 0001:00005626       ?GetPagesHelper@?$ISpecifyPropertyPagesImpl@VCOPOSVoiceRecognition@@@ATL@@IAEJPAUtagCAUUID@@PBUATL_PROPMAP_ENTRY@2@@Z 10006626 f i VoiceRecognition.obj
 0001:0000574d       ?GetProperty@?$CComPtr@UIDispatch@@@ATL@@SAJPAUIDispatch@@JPAUtagVARIANT@@@Z 1000674d f i VoiceRecognition.obj
 0001:0000579c       ?GetSizeMax@CComVariant@ATL@@QBEJPAT_ULARGE_INTEGER@@@Z 1000679c f i VoiceRecognition.obj
 0001:0000595e       ?GetTI@CComTypeInfoHolder@ATL@@QAEJK@Z 1000695e f i VoiceRecognition.obj
 0001:00005b3e       ?GetTI@CComTypeInfoHolder@ATL@@QAEJKPAPAUITypeInfo@@@Z 10006b3e f i VoiceRecognition.obj
 0001:00005b7c       ?GetUnknown@CComDynamicUnkArray@ATL@@QAGPAUIUnknown@@K@Z 10006b7c f i VoiceRecognition.obj
 0001:00005b9d       ?GetValueAt@?$CSimpleMap@PA_WPA_WVCExpansionVectorEqualHelper@ATL@@@ATL@@QBEAAPA_WH@Z 10006b9d f i VoiceRecognition.obj
 0001:00005bc3       ?GetZoomInfo@CComControlBase@ATL@@QAEXAAUATL_DRAWINFO@@@Z 10006bc3 f i VoiceRecognition.obj
 0001:00005c56       ?HKeyFromString@CRegParser@ATL@@KAPAUHKEY__@@PA_W@Z 10006c56 f i VoiceRecognition.obj
 0001:00005c84       ?HasSubKeys@CRegParser@ATL@@IAEHPAUHKEY__@@@Z 10006c84 f i VoiceRecognition.obj
 0001:00005cb9       ?IDataObject_GetData@CComControlBase@ATL@@QAEJPAUtagFORMATETC@@PAUtagSTGMEDIUM@@@Z 10006cb9 f i VoiceRecognition.obj
 0001:00005e5b       ?IOleInPlaceObject_InPlaceDeactivate@CComControlBase@ATL@@QAEJXZ 10006e5b f i VoiceRecognition.obj
 0001:00005ee2       ?IOleInPlaceObject_SetObjectRects@CComControlBase@ATL@@QAEJPBUtagRECT@@0@Z 10006ee2 f i VoiceRecognition.obj
 0001:00005faf       ?IOleInPlaceObject_UIDeactivate@CComControlBase@ATL@@QAEJXZ 10006faf f i VoiceRecognition.obj
 0001:00006071       ?IOleObject_Advise@CComControlBase@ATL@@QAEJPAUIAdviseSink@@PAK@Z 10007071 f i VoiceRecognition.obj
 0001:0000609b       ?IOleObject_Close@CComControlBase@ATL@@QAEJK@Z 1000709b f i VoiceRecognition.obj
 0001:0000617f       ?IOleObject_GetClientSite@CComControlBase@ATL@@QAEJPAPAUIOleClientSite@@@Z 1000717f f i VoiceRecognition.obj
 0001:000061a8       ?IOleObject_SetClientSite@CComControlBase@ATL@@QAEJPAUIOleClientSite@@@Z 100071a8 f i VoiceRecognition.obj
 0001:000061e7       ?IOleObject_SetExtent@CComControlBase@ATL@@QAEJKPAUtagSIZE@@@Z 100071e7 f i VoiceRecognition.obj
 0001:00006299       ?IPSI_GetIPersistStreamInit@?$IPersistStorageImpl@VCOPOSVoiceRecognition@@@ATL@@AAEPAUIPersistStreamInit@@XZ 10007299 f i VoiceRecognition.obj
 0001:00006341       ?IPersistStreamInit_Load@?$IPersistStreamInitImpl@VCOPOSVoiceRecognition@@@ATL@@QAEJPAUIStream@@PBUATL_PROPMAP_ENTRY@2@@Z 10007341 f i VoiceRecognition.obj
 0001:000065b7       ?IPersistStreamInit_Save@?$IPersistStreamInitImpl@VCOPOSVoiceRecognition@@@ATL@@QAEJPAUIStream@@HPBUATL_PROPMAP_ENTRY@2@@Z 100075b7 f i VoiceRecognition.obj
 0001:000067a6       ?IQuickActivate_QuickActivate@CComControlBase@ATL@@QAEJPAUtagQACONTAINER@@PAUtagQACONTROL@@@Z 100077a6 f i VoiceRecognition.obj
 0001:000069e8       ?IViewObject_Draw@CComControlBase@ATL@@QAEJKJPAXPAUtagDVTARGETDEVICE@@PAUHDC__@@2PBU_RECTL@@3@Z 100079e8 f i VoiceRecognition.obj
 0001:00006a90       ?InPlaceActivate@CComControlBase@ATL@@QAEJJPBUtagRECT@@@Z 10007a90 f i VoiceRecognition.obj
 0001:00006d02       ?Init@?$CComEnumImpl@UIEnumConnectionPoints@@$1?_GUID_b196b285_bab4_101a_b69c_00aa00341d07@@3U__s_GUID@@BPAUIConnectionPoint@@V?$_CopyInterface@UIConnectionPoint@@@ATL@@@ATL@@QAEJPAPAUIConnectionPoint@@0PAUIUnknown@@W4CComEnumFlags@2@@Z 10007d02 f i VoiceRecognition.obj
 0001:00006dde       ?Init@?$CComEnumImpl@UIEnumConnections@@$1?_GUID_b196b287_bab4_101a_b69c_00aa00341d07@@3U__s_GUID@@BUtagCONNECTDATA@@V?$_Copy@UtagCONNECTDATA@@@ATL@@@ATL@@QAEJPAUtagCONNECTDATA@@0PAUIUnknown@@W4CComEnumFlags@2@@Z 10007dde f i VoiceRecognition.obj
 0001:00006eba       ?Init@CComModule@ATL@@QAEJPAU_ATL_OBJMAP_ENTRY30@2@PAUHINSTANCE__@@PBU_GUID@@@Z 10007eba f i VoiceRecognition.obj
 0001:00006f19       ?Init@CDynamicStdCallThunk2@ATL@@QAEHKPAX@Z 10007f19 f i VoiceRecognition.obj
 0001:00006f44       ?InlineIsEqualUnknown@ATL@@YGHABU_GUID@@@Z 10007f44 f i VoiceRecognition.obj
 0001:00006f6c       ?InternalSetAtIndex@?$CSimpleMap@PA_WPA_WVCExpansionVectorEqualHelper@ATL@@@ATL@@QAEXHABQA_W0@Z 10007f6c f i VoiceRecognition.obj
 0001:00006f96       ?Invoke@CComTypeInfoHolder@ATL@@QAEJPAUIDispatch@@JABU_GUID@@KGPAUtagDISPPARAMS@@PAUtagVARIANT@@PAUtagEXCEPINFO@@PAI@Z 10007f96 f i VoiceRecognition.obj
 0001:00006fd7       ?IsEqualObject@?$CComPtrBase@UIOleClientSite@@@ATL@@QAE_NPAUIUnknown@@@Z 10007fd7 f i VoiceRecognition.obj
 0001:00006fd7       ?IsEqualObject@?$CComPtrBase@UITypeInfo@@@ATL@@QAE_NPAUIUnknown@@@Z 10007fd7 f i VoiceRecognition.obj
 0001:00007043       ?IsSpace@CRegParser@ATL@@IAEH_W@Z 10008043 f i VoiceRecognition.obj
 0001:00007069       ?LoadNameCache@CComTypeInfoHolder@ATL@@QAEJPAUITypeInfo@@@Z 10008069 f i VoiceRecognition.obj
 0001:0000719e       ?Lookup@?$CSimpleMap@PA_WPA_WVCExpansionVectorEqualHelper@ATL@@@ATL@@QBEPA_WABQA_W@Z 1000819e f i VoiceRecognition.obj
 0001:000071c4       ?NextToken@CRegParser@ATL@@IAEJPA_W@Z 100081c4 f i VoiceRecognition.obj
 0001:000072f3       ?OnKillFocus@CComControlBase@ATL@@QAEJIIJAAH@Z 100082f3 f i VoiceRecognition.obj
 0001:0000734e       ?OnMouseActivate@CComControlBase@ATL@@QAEJIIJAAH@Z 1000834e f i VoiceRecognition.obj
 0001:000073bc       ?OnPaint@CComControlBase@ATL@@QAEJIIJAAH@Z 100083bc f i VoiceRecognition.obj
 0001:00007473       ?OnSetFocus@CComControlBase@ATL@@QAEJIIJAAH@Z 10008473 f i VoiceRecognition.obj
 0001:000074fe       ?Open@CRegKey@ATL@@QAEJPAUHKEY__@@PB_WK@Z 100084fe f i VoiceRecognition.obj
 0001:00007553       ?PreProcessBuffer@CRegParser@ATL@@QAEJPA_WPAPA_W@Z 10008553 f i VoiceRecognition.obj
 0001:000077c3       ?ProcessWindowMessage@?$CComControl@VCOPOSVoiceRecognition@@V?$CWindowImpl@VCOPOSVoiceRecognition@@VCWindow@ATL@@V?$CWinTraits@$0FGAAAAAA@$0A@@3@@ATL@@@ATL@@UAEHPAUHWND__@@IIJAAJK@Z 100087c3 f i VoiceRecognition.obj
 0001:0000786b       ?ReadFromStream@CComBSTR@ATL@@QAEJPAUIStream@@@Z 1000886b f i VoiceRecognition.obj
 0001:0000798e       ?ReadFromStream@CComVariant@ATL@@QAEJPAUIStream@@GTClassesAllowedInStream@2@K@Z 1000898e f i VoiceRecognition.obj
 0001:00007b18       ?RecurseDeleteKey@CRegKey@ATL@@QAEJPB_W@Z 10008b18 f i VoiceRecognition.obj
 0001:00007c06       ?RegCreateKeyExW@CAtlTransactionManager@ATL@@QAEJPAUHKEY__@@PB_WKPA_WKKQAU_SECURITY_ATTRIBUTES@@PAPAU3@PAK@Z 10008c06 f i VoiceRecognition.obj
 0001:00007c69       ?RegDeleteKeyW@CAtlTransactionManager@ATL@@QAEJPAUHKEY__@@PB_W@Z 10008c69 f i VoiceRecognition.obj
 0001:00007cbb       ?RegOpenKeyExW@CAtlTransactionManager@ATL@@QAEJPAUHKEY__@@PB_WKKPAPAU3@@Z 10008cbb f i VoiceRecognition.obj
 0001:00007d12       ?Register@_ATL_WNDCLASSINFOW@ATL@@QAEGPAP6GJPAUHWND__@@IIJ@Z@Z 10008d12 f i VoiceRecognition.obj
 0001:00007d32       ?RegisterBuffer@CRegParser@ATL@@QAEJPA_WH@Z 10008d32 f i VoiceRecognition.obj
 0001:00007e79       ?RegisterFromResource@CRegObject@ATL@@IAEJPB_W00H@Z 10008e79 f i VoiceRecognition.obj
 0001:00007faf       ?RegisterServer@?$CAtlModuleT@VCComModule@ATL@@@ATL@@QAEJHPBU_GUID@@@Z 10008faf f i VoiceRecognition.obj
 0001:00007fdd       ?RegisterServer@CComModule@ATL@@QAEJHPBU_GUID@@@Z 10008fdd f i VoiceRecognition.obj
 0001:0000804e       ?RegisterSubkeys@CRegParser@ATL@@IAEJPA_WPAUHKEY__@@HH@Z 1000904e f i VoiceRecognition.obj
 0001:000086aa       ?Remove@CComDynamicUnkArray@ATL@@QAEHK@Z 100096aa f i VoiceRecognition.obj
 0001:000086d3       ?RemoveAll@?$CSimpleMap@PA_WPA_WVCExpansionVectorEqualHelper@ATL@@@ATL@@QAEXXZ 100096d3 f i VoiceRecognition.obj
 0001:000086ff       ?ResourceRegisterSz@CRegObject@ATL@@QAGJPB_W00@Z 100096ff f i VoiceRecognition.obj
 0001:0000872c       ?ResourceUnregisterSz@CRegObject@ATL@@QAGJPB_W00@Z 1000972c f i VoiceRecognition.obj
 0001:00008759       ?SendOnDataChange@CComControlBase@ATL@@QAEJK@Z 10009759 f i VoiceRecognition.obj
 0001:000087a6       ?SetControlFocus@CComControlBase@ATL@@QAEHH@Z 100097a6 f i VoiceRecognition.obj
 0001:00008841       ?SetMultiStringValue@CRegKey@ATL@@QAEJPB_W0@Z 10009841 f i VoiceRecognition.obj
 0001:0000889d       ?SetStringValue@CRegKey@ATL@@QAEJPB_W0K@Z 1000989d f i VoiceRecognition.obj
 0001:000088e6       ?SkipAssignment@CRegParser@ATL@@IAEJPA_W@Z 100098e6 f i VoiceRecognition.obj
 0001:00008952       ?SkipWhiteSpace@CRegParser@ATL@@IAEXXZ 10009952 f i VoiceRecognition.obj
 0001:0000897b       ?StrChrW@CRegParser@ATL@@KAPA_WPA_W_W@Z 1000997b f i VoiceRecognition.obj
 0001:000089b8       ?Term@CAtlModule@ATL@@QAEXXZ 100099b8 f i VoiceRecognition.obj
 0001:00008a35       ?Term@CComModule@ATL@@QAEXXZ 10009a35 f i VoiceRecognition.obj
 0001:00008a8d       ?UnregisterServer@?$CAtlModuleT@VCComModule@ATL@@@ATL@@QAEJHPBU_GUID@@@Z 10009a8d f i VoiceRecognition.obj
 0001:00008ab3       ?UnregisterServer@CComModule@ATL@@QAEJHPBU_GUID@@@Z 10009ab3 f i VoiceRecognition.obj
 0001:00008b24       ?UpdateRegistryFromResource@CAtlModule@ATL@@QAGJIHPAU_ATL_REGMAP_ENTRY@2@@Z 10009b24 f i VoiceRecognition.obj
 0001:00008cef       ?UpdateRegistryFromResource@CAtlModule@ATL@@QAGJPB_WHPAU_ATL_REGMAP_ENTRY@2@@Z 10009cef f i VoiceRecognition.obj
 0001:00008ec0       ?VTFromRegType@CRegParser@ATL@@KAHPB_WAAG@Z 10009ec0 f i VoiceRecognition.obj
 0001:00008f2d       ?WindowProc@?$CWindowImplBaseT@VCWindow@ATL@@V?$CWinTraits@$0FGAAAAAA@$0A@@2@@ATL@@SGJPAUHWND__@@IIJ@Z 10009f2d f i VoiceRecognition.obj
 0001:0000901b       ?WriteToStream@CComBSTR@ATL@@QAEJPAUIStream@@@Z 1000a01b f i VoiceRecognition.obj
 0001:0000907d       ?WriteToStream@CComVariant@ATL@@QAEJPAUIStream@@@Z 1000a07d f i VoiceRecognition.obj
 0001:000091f7       ?WriteToStream@CComVariant@ATL@@QAEJPAUIStream@@G@Z 1000a1f7 f i VoiceRecognition.obj
 0001:00009260       ?_AtlInitialConstruct@?$CComObjectRootEx@VCComMultiThreadModel@ATL@@@ATL@@QAEJXZ 1000a260 f i VoiceRecognition.obj
 0001:00009275       ?_AtlVerifyStackAvailable@_ATL_SAFE_ALLOCA_IMPL@ATL@@YA_NK@Z 1000a275 f i VoiceRecognition.obj
 0001:000092f3       ?atlCreate@?$CWindowImpl@VCOPOSVoiceRecognition@@VCWindow@ATL@@V?$CWinTraits@$0FGAAAAAA@$0A@@3@@ATL@@QAEPAUHWND__@@PAU3@V_U_RECT@2@PB_WKKV_U_MENUorID@2@PAX@Z 1000a2f3 f i VoiceRecognition.obj
 0001:0000933e       ?atlCreate@?$CWindowImplBaseT@VCWindow@ATL@@V?$CWinTraits@$0FGAAAAAA@$0A@@2@@ATL@@QAEPAUHWND__@@PAU3@V_U_RECT@2@PB_WKKV_U_MENUorID@2@GPAX@Z 1000a33e f i VoiceRecognition.obj
 0001:000093da       ?copy@?$_Copy@UtagCONNECTDATA@@@ATL@@SAJPAUtagCONNECTDATA@@PBU3@@Z 1000a3da f i VoiceRecognition.obj
 0001:00009410       ?copy@?$_CopyInterface@UIConnectionPoint@@@ATL@@SAJPAPAUIConnectionPoint@@PBQAU3@@Z 1000a410 f i VoiceRecognition.obj
 0001:0000943e       ?memcpy_s@Checked@ATL@@YAXPAXIPBXI@Z 1000a43e f i VoiceRecognition.obj
 0001:0000945d       ?ocscpy_s@@YA_NPA_WIPB_W@Z 1000a45d f i VoiceRecognition.obj
 0001:000094a7       ?wcscpy_s@Checked@ATL@@YAXPA_WIPB_W@Z 1000a4a7 f i VoiceRecognition.obj
 0001:000094c3       _DllCanUnloadNow@0         1000a4c3 f   VoiceRecognition.obj
 0001:000094cf       _DllGetClassObject@12      1000a4cf f   VoiceRecognition.obj
 0001:000094dd       _DllMain@12                1000a4dd f   VoiceRecognition.obj
 0001:0000951f       _DllRegisterServer@0       1000a51f f   VoiceRecognition.obj
 0001:0000952e       _DllUnregisterServer@0     1000a52e f   VoiceRecognition.obj
 0001:0000953d       _InlineIsEqualGUID         1000a53d f i VoiceRecognition.obj
 0001:0000956d       ___local_stdio_printf_options 1000a56d f i VoiceRecognition.obj
 0001:00009573       __vswprintf_s_l            1000a573 f i VoiceRecognition.obj
 0001:00009620       _swprintf_s                1000a620 f i VoiceRecognition.obj
 0001:0000963c       ??0?$CComControl@VCOPOSVoiceRecognition@@V?$CWindowImpl@VCOPOSVoiceRecognition@@VCWindow@ATL@@V?$CWinTraits@$0FGAAAAAA@$0A@@3@@ATL@@@ATL@@QAE@XZ 1000a63c f i VoiceRecognitionImpl.obj
 0001:00009663       ??0?$CProxy_IOPOSEvents@VCOPOSVoiceRecognition@@@@QAE@XZ 1000a663 f i VoiceRecognitionImpl.obj
 0001:00009686       ??0CComControlBase@ATL@@QAE@AAPAUHWND__@@@Z 1000a686 f i VoiceRecognitionImpl.obj
 0001:000096d6       ??0COPOSVoiceRecognition@@QAE@XZ 1000a6d6 f   VoiceRecognitionImpl.obj
 0001:0000970c       ??1?$CComControl@VCOPOSVoiceRecognition@@V?$CWindowImpl@VCOPOSVoiceRecognition@@VCWindow@ATL@@V?$CWinTraits@$0FGAAAAAA@$0A@@3@@ATL@@@ATL@@UAE@XZ 1000a70c f i VoiceRecognitionImpl.obj
 0001:00009725       ??1?$IConnectionPointImpl@VCOPOSVoiceRecognition@@$1?IID_IPropertyNotifySink@@3U_GUID@@BVCComDynamicUnkArray@ATL@@@ATL@@QAE@XZ 1000a725 f i VoiceRecognitionImpl.obj
 0001:00009725       ??1?$IConnectionPointImpl@VCOPOSVoiceRecognition@@$1?DIID__IOPOSVoiceRecognitionEvents@@3U_GUID@@BVCComDynamicUnkArray@ATL@@@ATL@@QAE@XZ 1000a725 f i VoiceRecognitionImpl.obj
 0001:00009762       ??1CComControlBase@ATL@@UAE@XZ 1000a762 f i VoiceRecognitionImpl.obj
 0001:000097c5       ??1COPOSVoiceRecognition@@UAE@XZ 1000a7c5 f   VoiceRecognitionImpl.obj
 0001:0000980d       ?CheckHealth@COPOSVoiceRecognition@@UAGJJPAJ@Z 1000a80d f   VoiceRecognitionImpl.obj
 0001:0000985c       ?ClaimDevice@COPOSVoiceRecognition@@UAGJJPAJ@Z 1000a85c f   VoiceRecognitionImpl.obj
 0001:000098d1       ?ClearInput@COPOSVoiceRecognition@@UAGJPAJ@Z 1000a8d1 f   VoiceRecognitionImpl.obj
 0001:000098ec       ?ClearInputProperties@COPOSVoiceRecognition@@UAGJPAJ@Z 1000a8ec f   VoiceRecognitionImpl.obj
 0001:00009907       ?Close@COPOSVoiceRecognition@@UAGJPAJ@Z 1000a907 f   VoiceRecognitionImpl.obj
 0001:00009975       ?CompareFirmwareVersion@COPOSVoiceRecognition@@UAGJPA_WPAJ1@Z 1000a975 f   VoiceRecognitionImpl.obj
 0001:000099f5       ?DirectIO@COPOSVoiceRecognition@@UAGJJPAJPAPA_W0@Z 1000a9f5 f   VoiceRecognitionImpl.obj
 0001:00009aa3       ?DoInvoke@COPOSVoiceRecognition@@IAEJJPAVOposVariant@@IHPAJ_N@Z 1000aaa3 f   VoiceRecognitionImpl.obj
 0001:00009b7f       ?EventClose@COPOSVoiceRecognition@@IAEXXZ 1000ab7f f i VoiceRecognitionImpl.obj
 0001:00009bb2       ?EventInit@COPOSVoiceRecognition@@IAEJXZ 1000abb2 f i VoiceRecognitionImpl.obj
 0001:00009c86       ?EventUninit@COPOSVoiceRecognition@@IAEXXZ 1000ac86 f i VoiceRecognitionImpl.obj
 0001:00009cd8       ?EventWindowProc@COPOSVoiceRecognition@@IAGJIIJ@Z 1000acd8 f i VoiceRecognitionImpl.obj
 0001:00009dac       ?FinalConstruct@COPOSVoiceRecognition@@QAEJXZ 1000adac f   VoiceRecognitionImpl.obj
 0001:00009de5       ?FireEventCleanup@COPOSVoiceRecognition@@IAEXXZ 1000ade5 f i VoiceRecognitionImpl.obj
 0001:00009dfb       ?FireEventSetup@COPOSVoiceRecognition@@IAE_NXZ 1000adfb f i VoiceRecognitionImpl.obj
 0001:00009e2f       ?FreezeEvents@COPOSVoiceRecognition@@MAGJH@Z 1000ae2f f   VoiceRecognitionImpl.obj
 0001:00009e88       ?GetOposProp@COPOSVoiceRecognition@@IAEJJPAFJ@Z 1000ae88 f   VoiceRecognitionImpl.obj
 0001:00009eab       ?GetOposProp@COPOSVoiceRecognition@@IAEJJPAJJ@Z 1000aeab f   VoiceRecognitionImpl.obj
 0001:00009f7a       ?GetOposProp@COPOSVoiceRecognition@@IAEJJPAPA_WJ@Z 1000af7a f   VoiceRecognitionImpl.obj
 0001:0000a056       ?OnDraw@COPOSVoiceRecognition@@MAEJAAUATL_DRAWINFO@@@Z 1000b056 f   VoiceRecognitionImpl.obj
 0001:0000a0f6       ?Open@COPOSVoiceRecognition@@UAGJPA_WPAJ@Z 1000b0f6 f   VoiceRecognitionImpl.obj
 0001:0000a931       ?ReleaseDevice@COPOSVoiceRecognition@@UAGJPAJ@Z 1000b931 f   VoiceRecognitionImpl.obj
 0001:0000a980       ?ResetStatistics@COPOSVoiceRecognition@@UAGJPA_WPAJ@Z 1000b980 f   VoiceRecognitionImpl.obj
 0001:0000a9d7       ?RetrieveStatistics@COPOSVoiceRecognition@@UAGJPAPA_WPAJ@Z 1000b9d7 f   VoiceRecognitionImpl.obj
 0001:0000aa2e       ?SOProcessID@COPOSVoiceRecognition@@UAGJPAJ@Z 1000ba2e f   VoiceRecognitionImpl.obj
 0001:0000aa42       ?SetCOFreezeEvents@COPOSVoiceRecognition@@IAEXF@Z 1000ba42 f   VoiceRecognitionImpl.obj
 0001:0000aae2       ?SetOposProp@COPOSVoiceRecognition@@IAEJJJJ@Z 1000bae2 f   VoiceRecognitionImpl.obj
 0001:0000abd9       ?StartHearingFree@COPOSVoiceRecognition@@UAGJPA_WPAJ@Z 1000bbd9 f   VoiceRecognitionImpl.obj
 0001:0000ac30       ?StartHearingSentence@COPOSVoiceRecognition@@UAGJPA_W00PAJ@Z 1000bc30 f   VoiceRecognitionImpl.obj
 0001:0000ace8       ?StartHearingWord@COPOSVoiceRecognition@@UAGJPA_W0PAJ@Z 1000bce8 f   VoiceRecognitionImpl.obj
 0001:0000ad68       ?StartHearingYesNo@COPOSVoiceRecognition@@UAGJPA_WPAJ@Z 1000bd68 f   VoiceRecognitionImpl.obj
 0001:0000adbf       ?StopHearing@COPOSVoiceRecognition@@UAGJPAJ@Z 1000bdbf f   VoiceRecognitionImpl.obj
 0001:0000adda       ?UpdateFirmware@COPOSVoiceRecognition@@UAGJPA_WPAJ@Z 1000bdda f   VoiceRecognitionImpl.obj
 0001:0000ae31       ?UpdateStatistics@COPOSVoiceRecognition@@UAGJPA_WPAJ@Z 1000be31 f   VoiceRecognitionImpl.obj
 0001:0000ae88       ?get_AutoDisable@COPOSVoiceRecognition@@UAGJPAF@Z 1000be88 f   VoiceRecognitionImpl.obj
 0001:0000ae9e       ?get_BinaryConversion@COPOSVoiceRecognition@@UAGJPAJ@Z 1000be9e f   VoiceRecognitionImpl.obj
 0001:0000aeb4       ?get_CapCompareFirmwareVersion@COPOSVoiceRecognition@@UAGJPAF@Z 1000beb4 f   VoiceRecognitionImpl.obj
 0001:0000aecd       ?get_CapLanguage@COPOSVoiceRecognition@@UAGJPAF@Z 1000becd f   VoiceRecognitionImpl.obj
 0001:0000aee6       ?get_CapPowerReporting@COPOSVoiceRecognition@@UAGJPAJ@Z 1000bee6 f   VoiceRecognitionImpl.obj
 0001:0000aeff       ?get_CapStatisticsReporting@COPOSVoiceRecognition@@UAGJPAF@Z 1000beff f   VoiceRecognitionImpl.obj
 0001:0000af18       ?get_CapUpdateFirmware@COPOSVoiceRecognition@@UAGJPAF@Z 1000bf18 f   VoiceRecognitionImpl.obj
 0001:0000af31       ?get_CapUpdateStatistics@COPOSVoiceRecognition@@UAGJPAF@Z 1000bf31 f   VoiceRecognitionImpl.obj
 0001:0000af4a       ?get_CheckHealthText@COPOSVoiceRecognition@@UAGJPAPA_W@Z 1000bf4a f   VoiceRecognitionImpl.obj
 0001:0000af63       ?get_Claimed@COPOSVoiceRecognition@@UAGJPAF@Z 1000bf63 f   VoiceRecognitionImpl.obj
 0001:0000af79       ?get_ControlObjectDescription@COPOSVoiceRecognition@@UAGJPAPA_W@Z 1000bf79 f   VoiceRecognitionImpl.obj
 0001:0000afc7       ?get_ControlObjectVersion@COPOSVoiceRecognition@@UAGJPAJ@Z 1000bfc7 f   VoiceRecognitionImpl.obj
 0001:0000afda       ?get_DataCount@COPOSVoiceRecognition@@UAGJPAJ@Z 1000bfda f   VoiceRecognitionImpl.obj
 0001:0000aff0       ?get_DataEventEnabled@COPOSVoiceRecognition@@UAGJPAF@Z 1000bff0 f   VoiceRecognitionImpl.obj
 0001:0000b006       ?get_DeviceDescription@COPOSVoiceRecognition@@UAGJPAPA_W@Z 1000c006 f   VoiceRecognitionImpl.obj
 0001:0000b01f       ?get_DeviceEnabled@COPOSVoiceRecognition@@UAGJPAF@Z 1000c01f f   VoiceRecognitionImpl.obj
 0001:0000b035       ?get_DeviceName@COPOSVoiceRecognition@@UAGJPAPA_W@Z 1000c035 f   VoiceRecognitionImpl.obj
 0001:0000b04e       ?get_FreezeEvents@COPOSVoiceRecognition@@UAGJPAF@Z 1000c04e f   VoiceRecognitionImpl.obj
 0001:0000b064       ?get_HearingDataPattern@COPOSVoiceRecognition@@UAGJPAPA_W@Z 1000c064 f   VoiceRecognitionImpl.obj
 0001:0000b07d       ?get_HearingDataWord@COPOSVoiceRecognition@@UAGJPAPA_W@Z 1000c07d f   VoiceRecognitionImpl.obj
 0001:0000b096       ?get_HearingDataWordList@COPOSVoiceRecognition@@UAGJPAPA_W@Z 1000c096 f   VoiceRecognitionImpl.obj
 0001:0000b0af       ?get_HearingResult@COPOSVoiceRecognition@@UAGJPAJ@Z 1000c0af f   VoiceRecognitionImpl.obj
 0001:0000b0c8       ?get_HearingStatus@COPOSVoiceRecognition@@UAGJPAJ@Z 1000c0c8 f   VoiceRecognitionImpl.obj
 0001:0000b0e1       ?get_LanguageList@COPOSVoiceRecognition@@UAGJPAPA_W@Z 1000c0e1 f   VoiceRecognitionImpl.obj
 0001:0000b0fa       ?get_OpenResult@COPOSVoiceRecognition@@UAGJPAJ@Z 1000c0fa f   VoiceRecognitionImpl.obj
 0001:0000b111       ?get_PowerNotify@COPOSVoiceRecognition@@UAGJPAJ@Z 1000c111 f   VoiceRecognitionImpl.obj
 0001:0000b127       ?get_PowerState@COPOSVoiceRecognition@@UAGJPAJ@Z 1000c127 f   VoiceRecognitionImpl.obj
 0001:0000b13d       ?get_ResultCode@COPOSVoiceRecognition@@UAGJPAJ@Z 1000c13d f   VoiceRecognitionImpl.obj
 0001:0000b17b       ?get_ResultCodeExtended@COPOSVoiceRecognition@@UAGJPAJ@Z 1000c17b f   VoiceRecognitionImpl.obj
 0001:0000b191       ?get_ServiceObjectDescription@COPOSVoiceRecognition@@UAGJPAPA_W@Z 1000c191 f   VoiceRecognitionImpl.obj
 0001:0000b1aa       ?get_ServiceObjectVersion@COPOSVoiceRecognition@@UAGJPAJ@Z 1000c1aa f   VoiceRecognitionImpl.obj
 0001:0000b1c0       ?get_State@COPOSVoiceRecognition@@UAGJPAJ@Z 1000c1c0 f   VoiceRecognitionImpl.obj
 0001:0000b1ec       ?put_AutoDisable@COPOSVoiceRecognition@@UAGJF@Z 1000c1ec f   VoiceRecognitionImpl.obj
 0001:0000b209       ?put_BinaryConversion@COPOSVoiceRecognition@@UAGJJ@Z 1000c209 f   VoiceRecognitionImpl.obj
 0001:0000b21f       ?put_DataEventEnabled@COPOSVoiceRecognition@@UAGJF@Z 1000c21f f   VoiceRecognitionImpl.obj
 0001:0000b23c       ?put_DeviceEnabled@COPOSVoiceRecognition@@UAGJF@Z 1000c23c f   VoiceRecognitionImpl.obj
 0001:0000b259       ?put_FreezeEvents@COPOSVoiceRecognition@@UAGJF@Z 1000c259 f   VoiceRecognitionImpl.obj
 0001:0000b2a5       ?put_PowerNotify@COPOSVoiceRecognition@@UAGJJ@Z 1000c2a5 f   VoiceRecognitionImpl.obj
 0001:0000b2bb       ?s_EventWindowProc@COPOSVoiceRecognition@@KGJPAUHWND__@@IIJ@Z 1000c2bb f i VoiceRecognitionImpl.obj
 0001:0000b30d       ??_U@YAPAXI@Z              1000c30d f   LIBCMT:new_array.obj
 0001:0000b316       ??3@YAXPAXI@Z              1000c316 f   LIBCMT:delete_scalar_size.obj
 0001:0000b324       ??_V@YAXPAX@Z              1000c324 f   LIBCMT:delete_array.obj
 0001:0000b329       ??_V@YAXPAXI@Z             1000c329 f   LIBCMT:delete_array_size.obj
 0001:0000b37b       ___scrt_acquire_startup_lock 1000c37b f   LIBCMT:utility.obj
 0001:0000b3ad       ___scrt_dllmain_after_initialize_c 1000c3ad f   LIBCMT:utility.obj
 0001:0000b3d8       ___scrt_dllmain_before_initialize_c 1000c3d8 f   LIBCMT:utility.obj
 0001:0000b3e6       ___scrt_dllmain_crt_thread_attach 1000c3e6 f   LIBCMT:utility.obj
 0001:0000b405       ___scrt_dllmain_crt_thread_detach 1000c405 f   LIBCMT:utility.obj
 0001:0000b412       ___scrt_dllmain_exception_filter 1000c412 f   LIBCMT:utility.obj
 0001:0000b446       ___scrt_dllmain_uninitialize_c 1000c446 f   LIBCMT:utility.obj
 0001:0000b469       ___scrt_dllmain_uninitialize_critical 1000c469 f   LIBCMT:utility.obj
 0001:0000b476       ___scrt_initialize_crt     1000c476 f   LIBCMT:utility.obj
 0001:0000b4af       ___scrt_initialize_onexit_tables 1000c4af f   LIBCMT:utility.obj
 0001:0000b536       ___scrt_is_nonwritable_in_current_image 1000c536 f   LIBCMT:utility.obj
 0001:0000b5ca       ___scrt_release_startup_lock 1000c5ca f   LIBCMT:utility.obj
 0001:0000b5e7       ___scrt_uninitialize_crt   1000c5e7 f   LIBCMT:utility.obj
 0001:0000b60f       __onexit                   1000c60f f   LIBCMT:utility.obj
 0001:0000b63c       _atexit                    1000c63c f   LIBCMT:utility.obj
 0001:0000b651       ??3@YAXPAX@Z               1000c651 f   LIBCMT:delete_scalar.obj
 0001:0000b71b       __Init_thread_footer       1000c71b f   LIBCMT:thread_safe_statics.obj
 0001:0000b765       __Init_thread_header       1000c765 f   LIBCMT:thread_safe_statics.obj
 0001:0000b7b7       __Init_thread_notify       1000c7b7 f   LIBCMT:thread_safe_statics.obj
 0001:0000b7ed       __Init_thread_wait         1000c7ed f   LIBCMT:thread_safe_statics.obj
 0001:0000b83b       ___raise_securityfailure   1000c83b f   LIBCMT:gs_report.obj
 0001:0000b863       ___report_gsfailure        1000c863 f   LIBCMT:gs_report.obj
 0001:0000b95d       ___report_rangecheckfailure 1000c95d f   LIBCMT:gs_report.obj
 0001:0000b969       ___report_securityfailure  1000c969 f   LIBCMT:gs_report.obj
 0001:0000ba38       ??2@YAPAXIABUnothrow_t@std@@@Z 1000ca38 f   LIBCMT:new_scalar_nothrow.obj
 0001:0000ba8d       ??_U@YAPAXIABUnothrow_t@std@@@Z 1000ca8d f   LIBCMT:new_array_nothrow.obj
 0001:0000ba96       @__security_check_cookie@4 1000ca96 f   LIBCMT:secchk.obj
 0001:0000bab0       __SEH_prolog4_GS           1000cab0 f   LIBCMT:sehprolg4gs.obj
 0001:0000bb00       __alloca_probe_16          1000cb00 f   LIBCMT:alloca16.obj
 0001:0000bb16       __alloca_probe_8           1000cb16     LIBCMT:alloca16.obj
 0001:0000bb30       __alloca_probe             1000cb30 f   LIBCMT:chkstk.obj
 0001:0000bb30       __chkstk                   1000cb30 f   LIBCMT:chkstk.obj
 0001:0000be9b       __DllMainCRTStartup@12     1000ce9b f   LIBCMT:dll_dllmain.obj
 0001:0000bebe       ??2@YAPAXI@Z               1000cebe f   LIBCMT:new_scalar.obj
 0001:0000beee       ___isa_available_init      1000ceee f   LIBCMT:cpu_disp.obj
 0001:0000c0c2       ___scrt_is_ucrt_dll_in_use 1000d0c2 f   LIBCMT:ucrt_detection.obj
 0001:0000c0ce       ___scrt_fastfail           1000d0ce f   LIBCMT:utility_desktop.obj
 0001:0000c1e9       __crt_debugger_hook        1000d1e9 f   LIBCMT:utility_desktop.obj
 0001:0000c200       __SEH_prolog4              1000d200 f   LIBCMT:sehprolg4.obj
 0001:0000c245       @_guard_check_icall_nop@4  1000d245 f i LIBCMT:guard_support.obj
 0001:0000c295       ___security_init_cookie    1000d295 f   LIBCMT:gs_support.obj
 0001:0000c2e0       ?__scrt_initialize_type_info@@YAXXZ 1000d2e0 f   LIBCMT:tncleanup.obj
 0001:0000c2ec       ?__scrt_uninitialize_type_info@@YAXXZ 1000d2ec f   LIBCMT:tncleanup.obj
 0001:0000c2f8       ___local_stdio_scanf_options 1000d2f8 f i LIBCMT:default_local_stdio_options.obj
 0001:0000c2fe       ___scrt_initialize_default_local_stdio_options 1000d2fe f   LIBCMT:default_local_stdio_options.obj
 0001:0000c31b       ___scrt_get_dyn_tls_init_callback 1000d31b f   LIBCMT:dyn_tls_init.obj
 0001:0000c321       __RTC_Initialize           1000d321 f   LIBCMT:initsect.obj
 0001:0000c34d       __RTC_Terminate            1000d34d f   LIBCMT:initsect.obj
 0001:0000c379       ??0bad_alloc@std@@QAE@ABV01@@Z 1000d379 f i LIBCMT:throw_bad_alloc.obj
 0001:0000c394       ??0bad_alloc@std@@QAE@XZ   1000d394 f i LIBCMT:throw_bad_alloc.obj
 0001:0000c3ac       ??0bad_array_new_length@std@@QAE@ABV01@@Z 1000d3ac f i LIBCMT:throw_bad_alloc.obj
 0001:0000c3c7       ??0bad_array_new_length@std@@QAE@XZ 1000d3c7 f i LIBCMT:throw_bad_alloc.obj
 0001:0000c3df       ??0exception@std@@QAE@ABV01@@Z 1000d3df f i LIBCMT:throw_bad_alloc.obj
 0001:0000c40b       ??1bad_alloc@std@@UAE@XZ   1000d40b f i LIBCMT:throw_bad_alloc.obj
 0001:0000c40b       ??1bad_array_new_length@std@@UAE@XZ 1000d40b f i LIBCMT:throw_bad_alloc.obj
 0001:0000c40b       ??1bad_exception@std@@UAE@XZ 1000d40b f i libvcruntime:frame.obj
 0001:0000c41c       ??_Gbad_exception@std@@UAEPAXI@Z 1000d41c f i libvcruntime:frame.obj
 0001:0000c41c       ??_Gbad_array_new_length@std@@UAEPAXI@Z 1000d41c f i LIBCMT:throw_bad_alloc.obj
 0001:0000c41c       ??_Ebad_alloc@std@@UAEPAXI@Z 1000d41c f i LIBCMT:throw_bad_alloc.obj
 0001:0000c41c       ??_Gbad_alloc@std@@UAEPAXI@Z 1000d41c f i LIBCMT:throw_bad_alloc.obj
 0001:0000c41c       ??_Eexception@std@@UAEPAXI@Z 1000d41c f i LIBCMT:throw_bad_alloc.obj
 0001:0000c41c       ??_Ebad_array_new_length@std@@UAEPAXI@Z 1000d41c f i LIBCMT:throw_bad_alloc.obj
 0001:0000c41c       ??_Ebad_exception@std@@UAEPAXI@Z 1000d41c f i libvcruntime:frame.obj
 0001:0000c41c       ??_Gexception@std@@UAEPAXI@Z 1000d41c f i LIBCMT:throw_bad_alloc.obj
 0001:0000c449       ?__scrt_throw_std_bad_alloc@@YAXXZ 1000d449 f   LIBCMT:throw_bad_alloc.obj
 0001:0000c466       ?__scrt_throw_std_bad_array_new_length@@YAXXZ 1000d466 f   LIBCMT:throw_bad_alloc.obj
 0001:0000c483       ?what@exception@std@@UBEPBDXZ 1000d483 f i LIBCMT:throw_bad_alloc.obj
 0001:0000c490       ??_Etype_info@@UAEPAXI@Z   1000d490 f i LIBCMT:std_type_info_static.obj
 0001:0000c490       ??_Gtype_info@@UAEPAXI@Z   1000d490 f i LIBCMT:std_type_info_static.obj
 0001:0000c4b3       ??0CAtlBaseModule@ATL@@QAE@XZ 1000d4b3 f   atls:atlbase.obj
 0001:0000c506       ??0_ATL_BASE_MODULE70@ATL@@QAE@XZ 1000d506 f i atls:atlbase.obj
 0001:0000c529       ??1CAtlBaseModule@ATL@@QAE@XZ 1000d529 f   atls:atlbase.obj
 0001:0000c616       ?Init@_stdcallthunk@ATL@@QAEHKPAX@Z 1000d616 f i atls:atlthunk.obj
 0001:0000c64b       ?__AllocStdCallThunk_cmn@@YAPAXXZ 1000d64b f   atls:atlthunk.obj
 0001:0000c711       ?__FreeStdCallThunk_cmn@@YAXPAX@Z 1000d711 f   atls:atlthunk.obj
 0001:0000c7ad       _AtlThunk_AllocateData@0   1000d7ad f   atls:atlthunk.obj
 0001:0000c812       _AtlThunk_DataToCode@4     1000d812 f   atls:atlthunk.obj
 0001:0000c859       _AtlThunk_FreeData@4       1000d859 f   atls:atlthunk.obj
 0001:0000c8af       _AtlThunk_InitData@12      1000d8af f   atls:atlthunk.obj
 0001:0000c8fe       __get_purecall_handler     1000d8fe f   libvcruntime:purevirt.obj
 0001:0000c905       __purecall                 1000d905 f   libvcruntime:purevirt.obj
 0001:0000c921       _wcsstr                    1000d921 f   libvcruntime:wcsstr.obj
 0001:0000cbe0       __except_handler4          1000dbe0 f   libvcruntime:chandler4.obj
 0001:0000cd3e       _memcmp                    1000dd3e f   libvcruntime:memcmp.obj
 0001:0000e3c0       _memmove                   1000f3c0 f   libvcruntime:memmove.obj
 0001:0000e3c0       _memcpy                    1000f3c0 f   libvcruntime:memcpy.obj
 0001:0000e940       _memset                    1000f940 f   libvcruntime:memset.obj
 0001:0000ea9a       ___vcrt_initialize         1000fa9a f   libvcruntime:initialization.obj
 0001:0000eab9       ___vcrt_thread_attach      1000fab9 f   libvcruntime:initialization.obj
 0001:0000eac4       ___vcrt_thread_detach      1000fac4 f   libvcruntime:initialization.obj
 0001:0000eacf       ___vcrt_uninitialize       1000facf f   libvcruntime:initialization.obj
 0001:0000eae6       ___vcrt_uninitialize_critical 1000fae6 f   libvcruntime:initialization.obj
 0001:0000eaee       ?GetRangeOfTrysToCheck@__FrameHandler3@@SA?AU?$pair@Viterator@TryBlockMap@__FrameHandler3@@V123@@std@@AAVTryBlockMap@1@HPAXPBU_s_FuncInfo@@H@Z 1000faee f   libvcruntime:trnsctrl.obj
 0001:0000eb5e       ?_CallCatchBlock2@@YAPAXPAUEHRegistrationNode@@PBU_s_FuncInfo@@PAXHK@Z 1000fb5e f   libvcruntime:trnsctrl.obj
 0001:0000ebbb       ?_CallSETranslator@@YAHPAUEHExceptionRecord@@PAUEHRegistrationNode@@PAX2PBU_s_FuncInfo@@H1@Z 1000fbbb f   libvcruntime:trnsctrl.obj
 0001:0000ecb1       ?_JumpToContinuation@@YGXPAXPAUEHRegistrationNode@@@Z 1000fcb1 f   libvcruntime:trnsctrl.obj
 0001:0000ece1       ?_UnwindNestedFrames@@YGXPAUEHRegistrationNode@@PAUEHExceptionRecord@@@Z 1000fce1 f   libvcruntime:trnsctrl.obj
 0001:0000ed34       __CatchGuardHandler        1000fd34 f   libvcruntime:trnsctrl.obj
 0001:0000ed65       __CreateFrameInfo          1000fd65 f   libvcruntime:trnsctrl.obj
 0001:0000ed89       __FindAndUnlinkFrame       1000fd89 f   libvcruntime:trnsctrl.obj
 0001:0000edd1       __TranslatorGuardHandler   1000fdd1 f   libvcruntime:trnsctrl.obj
 0001:0000ee6e       ___CxxFrameHandler3        1000fe6e f   libvcruntime:trnsctrl.obj
 0001:0000eea4       ___DestructExceptionObject 1000fea4 f   libvcruntime:ehhelpers.obj
 0001:0000ef45       ?_CallMemberFunction0@@YGXQAX0@Z 1000ff45 f i libvcruntime:ehhelpers.obj
 0001:0000efaa       __IsExceptionObjectToBeDestroyed 1000ffaa f   libvcruntime:ehhelpers.obj
 0001:0000efd0       ___AdjustPointer           1000ffd0 f   libvcruntime:ehhelpers.obj
 0001:0000eff5       ___FrameUnwindFilter       1000fff5 f   libvcruntime:ehhelpers.obj
 0001:0000f04b       ___std_terminate           1001004b f   libvcruntime:ehhelpers.obj
 0001:0000f050       ___std_type_info_compare   10010050 f   libvcruntime:std_type_info.obj
 0001:0000f08c       ___std_type_info_destroy_list 1001008c f   libvcruntime:std_type_info.obj
 0001:0000f0af       ___std_exception_copy      100100af f   libvcruntime:std_exception.obj
 0001:0000f112       ___std_exception_destroy   10010112 f   libvcruntime:std_exception.obj
 0001:0000f131       __CxxThrowException@8      10010131 f   libvcruntime:throw.obj
 0001:0000f1a0       __local_unwind4            100101a0 f   libvcruntime:exsup4.obj
 0001:0000f290       @_EH4_CallFilterFunc@8     10010290 f   libvcruntime:exsup4.obj
 0001:0000f2b0       @_EH4_TransferToHandler@8  100102b0 f   libvcruntime:exsup4.obj
 0001:0000f2d0       @_EH4_GlobalUnwind2@8      100102d0 f   libvcruntime:exsup4.obj
 0001:0000f2f0       @_EH4_LocalUnwind@16       100102f0 f   libvcruntime:exsup4.obj
 0001:0000f307       ___except_validate_context_record 10010307 f   libvcruntime:jbcxrval.obj
 0001:0000f337       ___vcrt_freefls@4          10010337 f   libvcruntime:per_thread_data.obj
 0001:0000f353       ___vcrt_freeptd            10010353 f   libvcruntime:per_thread_data.obj
 0001:0000f389       ___vcrt_getptd             10010389 f   libvcruntime:per_thread_data.obj
 0001:0000f397       ___vcrt_getptd_noexit      10010397 f   libvcruntime:per_thread_data.obj
 0001:0000f429       ___vcrt_initialize_ptd     10010429 f   libvcruntime:per_thread_data.obj
 0001:0000f45c       ___vcrt_uninitialize_ptd   1001045c f   libvcruntime:per_thread_data.obj
 0001:0000f477       ___vcrt_initialize_locks   10010477 f   libvcruntime:locks.obj
 0001:0000f4b3       ___vcrt_uninitialize_locks 100104b3 f   libvcruntime:locks.obj
 0001:0000fc14       ??$TypeMatchHelper@V__FrameHandler3@@@@YAHPBU_s_HandlerType@@PBU_s_CatchableType@@PBU_s_ThrowInfo@@@Z 10010c14 f i libvcruntime:frame.obj
 0001:0000fca2       ??$__InternalCxxFrameHandler@V__FrameHandler3@@@@YA?AW4_EXCEPTION_DISPOSITION@@PAUEHExceptionRecord@@PAUEHRegistrationNode@@PAU_CONTEXT@@PAXPBU_s_FuncInfo@@H1E@Z 10010ca2 f i libvcruntime:frame.obj
 0001:0000fda4       ??0bad_exception@std@@QAE@ABV01@@Z 10010da4 f i libvcruntime:frame.obj
 0001:0000fdbf       ??0bad_exception@std@@QAE@XZ 10010dbf f i libvcruntime:frame.obj
 0001:0000fdd7       ??8type_info@@QBE_NABV0@@Z 10010dd7 f i libvcruntime:frame.obj
 0001:0001004e       ?FrameUnwindToEmptyState@__FrameHandler3@@SAXPAUEHRegistrationNode@@PAXPBU_s_FuncInfo@@@Z 1001104e f   libvcruntime:frame.obj
 0001:00010066       ?FrameUnwindToState@__FrameHandler3@@SAXPAUEHRegistrationNode@@PAXPBU_s_FuncInfo@@H@Z 10011066 f   libvcruntime:frame.obj
 0001:000101e8       ?_CallMemberFunction1@@YGXQAX00@Z 100111e8 f i libvcruntime:frame.obj
 0001:000101f8       ?_CallMemberFunction2@@YGXQAX00H@Z 100111f8 f i libvcruntime:frame.obj
 0001:0001020b       ?getESTypes@__FrameHandler3@@SAPBU_s_ESTypeList@@PBU_s_FuncInfo@@@Z 1001120b f i libvcruntime:frame.obj
 0001:00010220       __CallSettingFrame@12      10011220 f   libvcruntime:lowhelpr.obj
 0001:00010247       __NLG_Return               10011247     libvcruntime:lowhelpr.obj
 0001:00010270       __NLG_Notify1              10011270 f   libvcruntime:exsup.obj
 0001:00010280       __NLG_Notify               10011280 f   libvcruntime:exsup.obj
 0001:00010297       __NLG_Dispatch             10011297     libvcruntime:exsup.obj
 0001:00010297       __NLG_Dispatch2            10011297     libvcruntime:exsup.obj
 0001:000102a0       __NLG_Call                 100112a0 f   libvcruntime:exsup.obj
 0001:000102a2       __NLG_Return2              100112a2     libvcruntime:exsup.obj
 0001:00010388       ___vcrt_FlsAlloc           10011388 f   libvcruntime:winapi_downlevel.obj
 0001:000103c3       ___vcrt_FlsFree            100113c3 f   libvcruntime:winapi_downlevel.obj
 0001:000103fe       ___vcrt_FlsGetValue        100113fe f   libvcruntime:winapi_downlevel.obj
 0001:00010439       ___vcrt_FlsSetValue        10011439 f   libvcruntime:winapi_downlevel.obj
 0001:00010477       ___vcrt_InitializeCriticalSectionEx 10011477 f   libvcruntime:winapi_downlevel.obj
 0001:000104be       _unexpected                100114be f   libvcruntime:unexpected.obj
 0001:000104db       ?GetCurrentState@__FrameHandler3@@SAHPAUEHRegistrationNode@@PAXPBU_s_FuncInfo@@@Z 100114db f   libvcruntime:ehstate.obj
 0001:000104f8       ?SetState@__FrameHandler3@@SAXPAUEHRegistrationNode@@PBU_s_FuncInfo@@H@Z 100114f8 f   libvcruntime:ehstate.obj
 0001:00010506       _free                      10011506 f   libucrt:free.obj
 0001:00010521       ??0__crt_cached_ptd_host@@QAE@QAU__crt_locale_pointers@@@Z 10011521 f i libucrt:invalid_parameter.obj
 0001:00010569       ??1__crt_cached_ptd_host@@QAE@XZ 10011569 f i libucrt:invalid_parameter.obj
 0001:000105a5       ?check_synchronize_global_state_index@__crt_cached_ptd_host@@AAEIXZ 100115a5 f i libucrt:invalid_parameter.obj
 0001:000105ce       ?force_synchronize_per_thread_data@__crt_cached_ptd_host@@AAEPAU__acrt_ptd@@XZ 100115ce f i libucrt:invalid_parameter.obj
 0001:00010614       ?get_raw_ptd@__crt_cached_ptd_host@@QAEPAU__acrt_ptd@@XZ 10011614 f i libucrt:invalid_parameter.obj
 0001:00010631       ___acrt_call_reportfault   10011631 f   libucrt:invalid_parameter.obj
 0001:0001076a       ___acrt_initialize_invalid_parameter_handler 1001176a f   libucrt:invalid_parameter.obj
 0001:00010779       __invalid_parameter        10011779 f   libucrt:invalid_parameter.obj
 0001:000107b0       __invalid_parameter_internal 100117b0 f   libucrt:invalid_parameter.obj
 0001:0001082d       __invalid_parameter_noinfo 1001182d f   libucrt:invalid_parameter.obj
 0001:0001083d       __invoke_watson            1001183d f   libucrt:invalid_parameter.obj
 0001:00010871       ___acrt_errno_from_os_error 10011871 f   libucrt:errno.obj
 0001:000108b4       ___acrt_errno_map_os_error 100118b4 f   libucrt:errno.obj
 0001:000108d7       ___acrt_errno_map_os_error_ptd 100118d7 f   libucrt:errno.obj
 0001:000108fb       ___doserrno                100118fb f   libucrt:errno.obj
 0001:0001090e       __errno                    1001190e f   libucrt:errno.obj
 0001:00010921       _calloc                    10011921 f   libucrt:calloc.obj
 0001:0001092c       _malloc                    1001192c f   libucrt:malloc.obj
 0001:00010937       __recalloc                 10011937 f   libucrt:recalloc.obj
 0001:00010942       __recalloc_base            10011942 f   libucrt:recalloc.obj
 0001:000109af       __resetstkoflw             100119af f   libucrt:resetstk.obj
 0001:00010aec       _wcscat_s                  10011aec f   libucrt:wcscat_s.obj
 0001:00010af7       _wcscpy_s                  10011af7 f   libucrt:wcscpy_s.obj
 0001:00010c29       _wcsncpy_s                 10011c29 f   libucrt:wcsncpy_s.obj
 0001:00010e51       ??$count@D@formatting_buffer@__crt_stdio_output@@QBEIXZ 10011e51 f i libucrt:output.obj
 0001:00010e69       ??$count@_W@formatting_buffer@__crt_stdio_output@@QBEIXZ 10011e69 f i libucrt:output.obj
 0001:00010e82       ??$ensure_buffer_is_big_enough@D@formatting_buffer@__crt_stdio_output@@QAE_NIAAV__crt_cached_ptd_host@@@Z 10011e82 f i libucrt:output.obj
 0001:00010f03       ??$ensure_buffer_is_big_enough@_W@formatting_buffer@__crt_stdio_output@@QAE_NIAAV__crt_cached_ptd_host@@@Z 10011f03 f i libucrt:output.obj
 0001:00010f85       ??$is_overflow_condition@K@__crt_strtox@@YA_NIK@Z 10011f85 f i libucrt:output.obj
 0001:00010fb6       ??$is_wide_character_specifier@_W@__crt_stdio_output@@YA_N_K_WW4length_modifier@0@@Z 10011fb6 f i libucrt:output.obj
 0001:00011004       ??$parse_integer@KV?$c_string_character_source@_W@__crt_strtox@@$0A@@__crt_strtox@@YAKAAV__crt_cached_ptd_host@@V?$c_string_character_source@_W@0@H_N@Z 10012004 f i libucrt:output.obj
 0001:000115d3       ??$scratch_data@D@formatting_buffer@__crt_stdio_output@@QAEPADXZ 100125d3 f i libucrt:output.obj
 0001:000115f1       ??$type_case_integer@$07@?$output_processor@_WV?$string_output_adapter@_W@__crt_stdio_output@@V?$format_validation_base@_WV?$string_output_adapter@_W@__crt_stdio_output@@@2@@__crt_stdio_output@@AAE_N_N@Z 100125f1 f i libucrt:output.obj
 0001:00011773       ??$type_case_integer@$09@?$output_processor@_WV?$string_output_adapter@_W@__crt_stdio_output@@V?$format_validation_base@_WV?$string_output_adapter@_W@__crt_stdio_output@@@2@@__crt_stdio_output@@AAE_N_N@Z 10012773 f i libucrt:output.obj
 0001:000118f5       ??$type_case_integer@$0BA@@?$output_processor@_WV?$string_output_adapter@_W@__crt_stdio_output@@V?$format_validation_base@_WV?$string_output_adapter@_W@__crt_stdio_output@@@2@@__crt_stdio_output@@AAE_N_N@Z 100128f5 f i libucrt:output.obj
 0001:00011a77       ??$type_case_integer_parse_into_buffer@I$07@?$output_processor@_WV?$string_output_adapter@_W@__crt_stdio_output@@V?$format_validation_base@_WV?$string_output_adapter@_W@__crt_stdio_output@@@2@@__crt_stdio_output@@AAEXI_N@Z 10012a77 f i libucrt:output.obj
 0001:00011ae4       ??$type_case_integer_parse_into_buffer@I$09@?$output_processor@_WV?$string_output_adapter@_W@__crt_stdio_output@@V?$format_validation_base@_WV?$string_output_adapter@_W@__crt_stdio_output@@@2@@__crt_stdio_output@@AAEXI_N@Z 10012ae4 f i libucrt:output.obj
 0001:00011b73       ??$type_case_integer_parse_into_buffer@I$0BA@@?$output_processor@_WV?$string_output_adapter@_W@__crt_stdio_output@@V?$format_validation_base@_WV?$string_output_adapter@_W@__crt_stdio_output@@@2@@__crt_stdio_output@@AAEXI_N@Z 10012b73 f i libucrt:output.obj
 0001:00011c00       ??$type_case_integer_parse_into_buffer@_K$07@?$output_processor@_WV?$string_output_adapter@_W@__crt_stdio_output@@V?$format_validation_base@_WV?$string_output_adapter@_W@__crt_stdio_output@@@2@@__crt_stdio_output@@AAEX_K_N@Z 10012c00 f i libucrt:output.obj
 0001:00011c89       ??$type_case_integer_parse_into_buffer@_K$09@?$output_processor@_WV?$string_output_adapter@_W@__crt_stdio_output@@V?$format_validation_base@_WV?$string_output_adapter@_W@__crt_stdio_output@@@2@@__crt_stdio_output@@AAEX_K_N@Z 10012c89 f i libucrt:output.obj
 0001:00011d38       ??$type_case_integer_parse_into_buffer@_K$0BA@@?$output_processor@_WV?$string_output_adapter@_W@__crt_stdio_output@@V?$format_validation_base@_WV?$string_output_adapter@_W@__crt_stdio_output@@@2@@__crt_stdio_output@@AAEX_K_N@Z 10012d38 f i libucrt:output.obj
 0001:00011dd3       ??0?$output_adapter_data@_WV?$string_output_adapter@_W@__crt_stdio_output@@@__crt_stdio_output@@IAE@ABV?$string_output_adapter@_W@1@_KQB_WAAV__crt_cached_ptd_host@@QAD@Z 10012dd3 f i libucrt:output.obj
 0001:00011e3f       ??1formatting_buffer@__crt_stdio_output@@QAE@XZ 10012e3f f i libucrt:output.obj
 0001:00011e59       ??4?$__crt_unique_heap_ptr@DU__crt_internal_free_policy@@@@QAEAAV0@$$QAV0@@Z 10012e59 f i libucrt:output.obj
 0001:00011e7d       ?crop_zeroes@__crt_stdio_output@@YAXPADQAU__crt_locale_pointers@@@Z 10012e7d f i libucrt:output.obj
 0001:00011edd       ?find_next_state@?$output_processor@_WV?$string_output_adapter@_W@__crt_stdio_output@@V?$format_validation_base@_WV?$string_output_adapter@_W@__crt_stdio_output@@@2@@__crt_stdio_output@@ABE?AW4state@2@_WW432@@Z 10012edd f i libucrt:output.obj
 0001:00011f19       ?force_decimal_point@__crt_stdio_output@@YAXPADQAU__crt_locale_pointers@@@Z 10012f19 f i libucrt:output.obj
 0001:00011f75       ?parse_int_from_format_string@?$output_processor@_WV?$string_output_adapter@_W@__crt_stdio_output@@V?$format_validation_base@_WV?$string_output_adapter@_W@__crt_stdio_output@@@2@@__crt_stdio_output@@AAE_NQAH@Z 10012f75 f i libucrt:output.obj
 0001:00011fef       ?process@?$output_processor@_WV?$string_output_adapter@_W@__crt_stdio_output@@V?$format_validation_base@_WV?$string_output_adapter@_W@__crt_stdio_output@@@2@@__crt_stdio_output@@QAEHXZ 10012fef f i libucrt:output.obj
 0001:0001223f       ?state_case_size@?$output_processor@_WV?$string_output_adapter@_W@__crt_stdio_output@@V?$format_validation_base@_WV?$string_output_adapter@_W@__crt_stdio_output@@@2@@__crt_stdio_output@@AAE_NXZ 1001323f f i libucrt:output.obj
 0001:000123cd       ?state_case_type@?$output_processor@_WV?$string_output_adapter@_W@__crt_stdio_output@@V?$format_validation_base@_WV?$string_output_adapter@_W@__crt_stdio_output@@@2@@__crt_stdio_output@@AAE_NXZ 100133cd f i libucrt:output.obj
 0001:000127ee       ?to_integer_size@__crt_stdio_output@@YAIW4length_modifier@1@@Z 100137ee f i libucrt:output.obj
 0001:00012842       ?type_case_Z@?$output_processor@_WV?$string_output_adapter@_W@__crt_stdio_output@@V?$format_validation_base@_WV?$string_output_adapter@_W@__crt_stdio_output@@@2@@__crt_stdio_output@@AAE_NXZ 10013842 f i libucrt:output.obj
 0001:0001289c       ?type_case_a@?$output_processor@_WV?$string_output_adapter@_W@__crt_stdio_output@@V?$format_validation_base@_WV?$string_output_adapter@_W@__crt_stdio_output@@@2@@__crt_stdio_output@@AAE_NXZ 1001389c f i libucrt:output.obj
 0001:00012a3c       ?type_case_c_tchar@?$output_processor@_WV?$string_output_adapter@_W@__crt_stdio_output@@V?$format_validation_base@_WV?$string_output_adapter@_W@__crt_stdio_output@@@2@@__crt_stdio_output@@AAE_N_W@Z 10013a3c f i libucrt:output.obj
 0001:00012ae3       ?type_case_n@?$output_processor@_WV?$string_output_adapter@_W@__crt_stdio_output@@V?$format_validation_base@_WV?$string_output_adapter@_W@__crt_stdio_output@@@2@@__crt_stdio_output@@AAE_NXZ 10013ae3 f i libucrt:output.obj
 0001:00012b67       ?type_case_o@?$output_processor@_WV?$string_output_adapter@_W@__crt_stdio_output@@V?$format_validation_base@_WV?$string_output_adapter@_W@__crt_stdio_output@@@2@@__crt_stdio_output@@AAE_NXZ 10013b67 f i libucrt:output.obj
 0001:00012b84       ?type_case_p@?$output_processor@_WV?$string_output_adapter@_W@__crt_stdio_output@@V?$format_validation_base@_WV?$string_output_adapter@_W@__crt_stdio_output@@@2@@__crt_stdio_output@@AAE_NXZ 10013b84 f i libucrt:output.obj
 0001:00012b9a       ?type_case_s@?$output_processor@_WV?$string_output_adapter@_W@__crt_stdio_output@@V?$format_validation_base@_WV?$string_output_adapter@_W@__crt_stdio_output@@@2@@__crt_stdio_output@@AAE_NXZ 10013b9a f i libucrt:output.obj
 0001:00012c0d       ?type_case_s_compute_narrow_string_length@?$output_processor@_WV?$string_output_adapter@_W@__crt_stdio_output@@V?$format_validation_base@_WV?$string_output_adapter@_W@__crt_stdio_output@@@2@@__crt_stdio_output@@AAEHH_W@Z 10013c0d f i libucrt:output.obj
 0001:00012c62       ?unget@?$c_string_character_source@_W@__crt_strtox@@QAEX_W@Z 10013c62 f i libucrt:output.obj
 0001:00012c90       ?update_locale_slow@__crt_cached_ptd_host@@AAEXXZ 10013c90 f i libucrt:output.obj
 0001:00012ceb       ?validate@?$c_string_character_source@_W@__crt_strtox@@QBE_NXZ 10013ceb f i libucrt:output.obj
 0001:00012d06       ?validate@?$string_output_adapter@_W@__crt_stdio_output@@QBE_NAAV__crt_cached_ptd_host@@@Z 10013d06 f i libucrt:output.obj
 0001:00012d37       ?write_string@?$string_output_adapter@_W@__crt_stdio_output@@QBEXQB_WHQAHAAV__crt_cached_ptd_host@@@Z 10013d37 f i libucrt:output.obj
 0001:00012da8       ___acrt_locale_get_ctype_array_value 10013da8 f i libucrt:output.obj
 0001:00012dca       ___stdio_common_vswprintf_s 10013dca f   libucrt:output.obj
 0001:00012e0b       __seh_filter_dll           10013e0b f   libucrt:exception_filter.obj
 0001:00012e2b       __seh_filter_exe           10013e2b f   libucrt:exception_filter.obj
 0001:00013258       ___acrt_initialize_thread_local_exit_callback 10014258 f   libucrt:exit.obj
 0001:00013267       __cexit                    10014267 f   libucrt:exit.obj
 0001:00013276       __exit                     10014276 f   libucrt:exit.obj
 0001:0001328c       __is_c_termination_complete 1001428c f   libucrt:exit.obj
 0001:00013544       ___acrt_allocate_buffer_for_argv 10014544 f   libucrt:argv_parsing.obj
 0001:00013593       __configure_narrow_argv    10014593 f   libucrt:argv_parsing.obj
 0001:0001373f       ___dcrt_uninitialize_environments_nolock 1001473f f   libucrt:environment_initialization.obj
 0001:00013790       __initialize_narrow_environment 10014790 f   libucrt:environment_initialization.obj
 0001:0001384b       ??$__crt_fast_encode_pointer@P6AHXZ@@YAP6AHXZQ6AHXZ@Z 1001484b f i libucrt:onexit.obj
 0001:0001384b       ??$__crt_fast_encode_pointer@PAP6AXXZ@@YAPAP6AXXZQAP6AXXZ@Z 1001484b f i libucrt:onexit.obj
 0001:0001384b       ??$__crt_fast_encode_pointer@PAX@@YAPAXQAX@Z 1001484b f i libucrt:initialization.obj
 0001:00013a46       __crt_atexit               10014a46 f   libucrt:onexit.obj
 0001:00013a5c       __execute_onexit_table     10014a5c f   libucrt:onexit.obj
 0001:00013a9a       __initialize_onexit_table  10014a9a f   libucrt:onexit.obj
 0001:00013ac3       __register_onexit_function 10014ac3 f   libucrt:onexit.obj
 0001:00013b46       ___acrt_uninitialize_command_line 10014b46 f   libucrt:argv_data.obj
 0001:00013bf4       ___acrt_initialize         10014bf4 f   libucrt:initialization.obj
 0001:00013c06       ___acrt_thread_attach      10014c06 f   libucrt:initialization.obj
 0001:00013c11       ___acrt_thread_detach      10014c11 f   libucrt:initialization.obj
 0001:00013c19       ___acrt_uninitialize       10014c19 f   libucrt:initialization.obj
 0001:00013c49       ___acrt_uninitialize_critical 10014c49 f   libucrt:initialization.obj
 0001:00013c5b       __initterm                 10014c5b f   libucrt:initterm.obj
 0001:00013c86       __initterm_e               10014c86 f   libucrt:initterm.obj
 0001:00013cb4       ___acrt_initialize_new_handler 10014cb4 f   libucrt:new_handler.obj
 0001:00013cc3       __callnewh                 10014cc3 f   libucrt:new_handler.obj
 0001:00013cf0       __query_new_handler        10014cf0 f   libucrt:new_handler.obj
 0001:00013d4c       _terminate                 10014d4c f   libucrt:terminate.obj
 0001:00013d88       _abort                     10014d88 f   libucrt:abort.obj
 0001:00013dcc       _strcpy_s                  10014dcc f   libucrt:strcpy_s.obj
 0001:00013e30       _strncmp                   10014e30 f   libucrt:strncmp.obj
 0001:00013ea8       _wcsncmp                   10014ea8 f   libucrt:wcsncmp.obj
 0001:00013ee2       __free_base                10014ee2 f   libucrt:free_base.obj
 0001:0001425a       ___acrt_freeptd            1001525a f   libucrt:per_thread_data.obj
 0001:00014286       ___acrt_getptd             10015286 f   libucrt:per_thread_data.obj
 0001:00014341       ___acrt_getptd_head        10015341 f   libucrt:per_thread_data.obj
 0001:000143d7       ___acrt_getptd_noexit      100153d7 f   libucrt:per_thread_data.obj
 0001:00014488       ___acrt_getptd_noexit_explicit 10015488 f   libucrt:per_thread_data.obj
 0001:0001452b       ___acrt_initialize_ptd     1001552b f   libucrt:per_thread_data.obj
 0001:00014557       ___acrt_uninitialize_ptd   10015557 f   libucrt:per_thread_data.obj
 0001:000145df       ___acrt_set_locale_changed 100155df f   libucrt:wsetlocale.obj
 0001:000145ea       ___acrt_uninitialize_locale 100155ea f   libucrt:wsetlocale.obj
 0001:00014611       __calloc_base              10015611 f   libucrt:calloc_base.obj
 0001:0001466e       __malloc_base              1001566e f   libucrt:malloc_base.obj
 0001:000146bc       __msize_base               100156bc f   libucrt:msize.obj
 0001:000146ef       __realloc_base             100156ef f   libucrt:realloc_base.obj
 0001:000148f4       ___acrt_AppPolicyGetProcessTerminationMethodInternal@4 100158f4 f   libucrt:winapi_thunks.obj
 0001:00014934       ___acrt_AreFileApisANSI@0  10015934 f   libucrt:winapi_thunks.obj
 0001:00014953       ___acrt_FlsAlloc@4         10015953 f   libucrt:winapi_thunks.obj
 0001:00014992       ___acrt_FlsFree@4          10015992 f   libucrt:winapi_thunks.obj
 0001:000149d1       ___acrt_FlsGetValue@4      100159d1 f   libucrt:winapi_thunks.obj
 0001:00014a10       ___acrt_FlsSetValue@8      10015a10 f   libucrt:winapi_thunks.obj
 0001:00014a52       ___acrt_InitializeCriticalSectionEx@12 10015a52 f   libucrt:winapi_thunks.obj
 0001:00014a9d       ___acrt_LCMapStringEx@36   10015a9d f   libucrt:winapi_thunks.obj
 0001:00014afa       ___acrt_LocaleNameToLCID@8 10015afa f   libucrt:winapi_thunks.obj
 0001:00014b2b       ___acrt_SetThreadStackGuarantee@4 10015b2b f   libucrt:winapi_thunks.obj
 0001:00014b66       ___acrt_initialize_winapi_thunks 10015b66 f   libucrt:winapi_thunks.obj
 0001:00014b7a       ___acrt_uninitialize_winapi_thunks 10015b7a f   libucrt:winapi_thunks.obj
 0001:00014bb0       _wcsnlen                   10015bb0 f   libucrt:strnlen.obj
 0001:00014d60       ___acrt_update_locale_info 10015d60 f   libucrt:locale_update.obj
 0001:00014d8d       ___acrt_update_locale_info_explicit 10015d8d f   libucrt:locale_update.obj
 0001:00014dbe       ___acrt_update_multibyte_info 10015dbe f   libucrt:locale_update.obj
 0001:00014deb       ___acrt_update_multibyte_info_explicit 10015deb f   libucrt:locale_update.obj
 0001:00014e1c       ?__acrt_fp_classify@@YA?AW4__acrt_fp_class@@ABN@Z 10015e1c f i libucrt:cvt.obj
 0001:000157e5       ___acrt_fp_format          100167e5 f   libucrt:cvt.obj
 0001:00015966       __mbtowc_internal          10016966 f   libucrt:mbtowc.obj
 0001:00015a99       __fileno                   10016a99 f   libucrt:fileno.obj
 0001:00015ac0       ___acrt_initialize_stdio   10016ac0 f   libucrt:_file.obj
 0001:00015b88       ___acrt_uninitialize_stdio 10016b88 f   libucrt:_file.obj
 0001:00015bd4       __lock_file                10016bd4 f   libucrt:_file.obj
 0001:00015be8       __unlock_file              10016be8 f   libucrt:_file.obj
 0001:00015bfc       __get_printf_count_output  10016bfc f   libucrt:printf_count_output.obj
 0001:00015d77       ___acrt_initialize_lowio   10016d77 f   libucrt:ioinit.obj
 0001:00015dd7       ___acrt_uninitialize_lowio 10016dd7 f   libucrt:ioinit.obj
 0001:00015e03       ___acrt_initialize_locks   10016e03 f   libucrt:locks.obj
 0001:00015e44       ___acrt_lock               10016e44 f   libucrt:locks.obj
 0001:00015e5b       ___acrt_uninitialize_locks 10016e5b f   libucrt:locks.obj
 0001:00015e8c       ___acrt_unlock             10016e8c f   libucrt:locks.obj
 0001:00015ea3       ___acrt_get_process_end_policy 10016ea3 f   libucrt:win_policies.obj
 0001:00015eec       ??$__acrt_convert_wcs_mbs_cp@D_WV<lambda_62f6974d9771e494a5ea317cc32e971c>@@U__crt_win32_buffer_internal_dynamic_resizing@@@@YAHQBDAAV?$__crt_win32_buffer@_WU__crt_win32_buffer_internal_dynamic_resizing@@@@ABV<lambda_62f6974d9771e494a5ea317cc32e971c>@@I@Z 10016eec f i libucrt:argv_wildcards.obj
 0001:00015f9e       ??$__acrt_convert_wcs_mbs_cp@_WDV<lambda_28bda7af82a03b66c1cb3803a755f95d>@@U__crt_win32_buffer_internal_dynamic_resizing@@@@YAHQB_WAAV?$__crt_win32_buffer@DU__crt_win32_buffer_internal_dynamic_resizing@@@@ABV<lambda_28bda7af82a03b66c1cb3803a755f95d>@@I@Z 10016f9e f i libucrt:argv_wildcards.obj
 0001:00016064       ??$__acrt_mbs_to_wcs_cp@U__crt_win32_buffer_internal_dynamic_resizing@@@@YAHQBDAAV?$__crt_win32_buffer@_WU__crt_win32_buffer_internal_dynamic_resizing@@@@I@Z 10017064 f i libucrt:argv_wildcards.obj
 0001:00016534       ??0_LocaleUpdate@@QAE@QAU__crt_locale_pointers@@@Z 10017534 f i libucrt:argv_wildcards.obj
 0001:000165df       ??R<lambda_28bda7af82a03b66c1cb3803a755f95d>@@QBEHIQB_WQADI@Z 100175df f i libucrt:argv_wildcards.obj
 0001:000165df       ??R<lambda_0fec1a7b3f42a53036604e18c2d5e07e>@@QBEHIQB_WQADI@Z 100175df f i libucrt:getmodulefilenamea.obj
 0001:00016603       ?__acrt_get_utf8_acp_compatibility_codepage@@YAIXZ 10017603 f i libucrt:argv_wildcards.obj
 0001:00016642       ?_deallocate@?$__crt_win32_buffer@DU__crt_win32_buffer_internal_dynamic_resizing@@@@AAEXXZ 10017642 f i libucrt:argv_wildcards.obj
 0001:00016642       ?_deallocate@?$__crt_win32_buffer@_WU__crt_win32_buffer_internal_dynamic_resizing@@@@AAEXXZ 10017642 f i libucrt:argv_wildcards.obj
 0001:0001665c       ?allocate@?$__crt_win32_buffer@DU__crt_win32_buffer_internal_dynamic_resizing@@@@QAEHI@Z 1001765c f i libucrt:argv_wildcards.obj
 0001:00016698       ?allocate@?$__crt_win32_buffer@_WU__crt_win32_buffer_internal_dynamic_resizing@@@@QAEHI@Z 10017698 f i libucrt:argv_wildcards.obj
 0001:000166d7       ?allocate@__crt_win32_buffer_internal_dynamic_resizing@@SAHQAPAXIABV__crt_win32_buffer_empty_debug_info@@@Z 100176d7 f i libucrt:argv_wildcards.obj
 0001:0001677d       ___acrt_expand_narrow_argv_wildcards 1001777d f   libucrt:argv_wildcards.obj
 0001:00016788       ??$__acrt_convert_wcs_mbs_cp@_WDV<lambda_0fec1a7b3f42a53036604e18c2d5e07e>@@U__crt_win32_buffer_no_resizing@@@@YAHQB_WAAV?$__crt_win32_buffer@DU__crt_win32_buffer_no_resizing@@@@ABV<lambda_0fec1a7b3f42a53036604e18c2d5e07e>@@I@Z 10017788 f i libucrt:getmodulefilenamea.obj
 0001:0001684a       ?allocate@?$__crt_win32_buffer@DU__crt_win32_buffer_no_resizing@@@@QAEHI@Z 1001784a f i libucrt:getmodulefilenamea.obj
 0001:00016871       ?set_to_nullptr@?$__crt_win32_buffer@DU__crt_win32_buffer_no_resizing@@@@QAEXXZ 10017871 f i libucrt:getmodulefilenamea.obj
 0001:00016885       ___acrt_GetModuleFileNameA 10017885 f   libucrt:getmodulefilenamea.obj
 0001:00016ea9       ___acrt_initialize_multibyte 10017ea9 f   libucrt:mbctype.obj
 0001:00016ef1       ___acrt_update_thread_multibyte_data 10017ef1 f   libucrt:mbctype.obj
 0001:00016f04       __setmbcp_nolock           10017f04 f   libucrt:mbctype.obj
 0001:000171dd       __ismbblead                100181dd f   libucrt:ismbbyte.obj
 0001:000171f5       ___acrt_initialize_command_line 100181f5 f   libucrt:argv_data.obj
 0001:0001720e       ___acrt_MultiByteToWideChar 1001820e f   libucrt:multibytetowidechar.obj
 0001:0001728a       ___acrt_WideCharToMultiByte 1001828a f   libucrt:widechartomultibyte.obj
 0001:00017378       ___dcrt_get_narrow_environment_from_os 10018378 f   libucrt:get_environment_from_os.obj
 0001:00017418       ___acrt_initialize_heap    10018418 f   libucrt:heap_handle.obj
 0001:00017429       ___acrt_uninitialize_heap  10018429 f   libucrt:heap_handle.obj
 0001:00017433       ___acrt_execute_initializers 10018433 f   libucrt:shared_initialization.obj
 0001:0001749b       ___acrt_execute_uninitializers 1001849b f   libucrt:shared_initialization.obj
 0001:0001759a       ___acrt_get_sigabrt_handler 1001859a f   libucrt:signal.obj
 0001:000175c1       ___acrt_initialize_signal_handlers 100185c1 f   libucrt:signal.obj
 0001:000175df       _raise                     100185df f   libucrt:signal.obj
 0001:000177d2       ___acrt_has_user_matherr   100187d2 f   libucrt:matherr.obj
 0001:000177ea       ___acrt_initialize_user_matherr 100187ea f   libucrt:matherr.obj
 0001:000177f9       ___acrt_invoke_user_matherr 100187f9 f   libucrt:matherr.obj
 0001:00017a08       ___acrt_stdio_flush_nolock 10018a08 f   libucrt:fflush.obj
 0001:00017a71       __fflush_nolock            10018a71 f   libucrt:fflush.obj
 0001:00017ad6       __flushall                 10018ad6 f   libucrt:fflush.obj
 0001:00017adf       ___acrt_add_locale_ref     10018adf f   libucrt:locale_refcounting.obj
 0001:00017b5c       ___acrt_free_locale        10018b5c f   libucrt:locale_refcounting.obj
 0001:00017ca4       ___acrt_locale_add_lc_time_reference 10018ca4 f   libucrt:locale_refcounting.obj
 0001:00017ccd       ___acrt_locale_free_lc_time_if_unreferenced 10018ccd f   libucrt:locale_refcounting.obj
 0001:00017cfe       ___acrt_locale_release_lc_time_reference 10018cfe f   libucrt:locale_refcounting.obj
 0001:00017d27       ___acrt_release_locale_ref 10018d27 f   libucrt:locale_refcounting.obj
 0001:00017da8       ___acrt_update_thread_locale_data 10018da8 f   libucrt:locale_refcounting.obj
 0001:00017e29       __updatetlocinfoEx_nolock  10018e29 f   libucrt:locale_refcounting.obj
 0001:00017e79       ___acrt_locale_free_monetary 10018e79 f   libucrt:initmon.obj
 0001:00017f77       ___acrt_locale_free_numeric 10018f77 f   libucrt:initnum.obj
 0001:00018005       ___acrt_locale_free_time   10019005 f   libucrt:inittime.obj
 0001:000180e9       ___acrt_GetStringTypeA     100190e9 f   libucrt:getstringtypea.obj
 0001:000181f2       __freea_crt                100191f2 f i libucrt:getstringtypea.obj
 0001:00018212       __query_new_mode           10019212 f   libucrt:new_mode.obj
 0001:00018269       ___acrt_DownlevelLocaleNameToLCID 10019269 f   libucrt:lcidtoname_downlevel.obj
 0001:00018313       ___acrt_fp_strflt_to_string 10019313 f   libucrt:_fptostr.obj
 0001:00018410       ?divide@__crt_strtox@@YA_KAAUbig_integer@1@ABU21@@Z 10019410 f i libucrt:cfout.obj
 0001:00018898       ___acrt_fltout             10019898 f   libucrt:cfout.obj
 0001:00019dd1       _fegetround                1001add1 f   libucrt:fegetround.obj
 0001:00019e0a       ?__mbrtowc_utf8@__crt_mbstring@@YAIPA_WPBDIPAU_Mbstatet@@AAV__crt_cached_ptd_host@@@Z 1001ae0a f   libucrt:mbrtowc.obj
 0001:00019e4d       ?__mbsrtowcs_utf8@__crt_mbstring@@YAIPA_WPAPBDIPAU_Mbstatet@@AAV__crt_cached_ptd_host@@@Z 1001ae4d f   libucrt:mbrtowc.obj
 0001:00019f55       __fcloseall                1001af55 f   libucrt:closeall.obj
 0001:0001a000       ___acrt_stdio_free_buffer_nolock 1001b000 f   libucrt:_freebuf.obj
 0001:0001a040       __isatty                   1001b040 f   libucrt:isatty.obj
 0001:0001a096       ___acrt_lowio_create_handle_array 1001b096 f   libucrt:osfinfo.obj
 0001:0001a111       ___acrt_lowio_destroy_handle_array 1001b111 f   libucrt:osfinfo.obj
 0001:0001a146       ___acrt_lowio_ensure_fh_exists 1001b146 f   libucrt:osfinfo.obj
 0001:0001a1e4       ___acrt_lowio_lock_fh      1001b1e4 f   libucrt:osfinfo.obj
 0001:0001a207       ___acrt_lowio_unlock_fh    1001b207 f   libucrt:osfinfo.obj
 0001:0001a22a       __free_osfhnd              1001b22a f   libucrt:osfinfo.obj
 0001:0001a2bb       __get_osfhandle            1001b2bb f   libucrt:osfinfo.obj
 0001:0001a330       _qsort                     1001b330 f   libucrt:qsort.obj
 0001:0001a8d5       _strncpy_s                 1001b8d5 f   libucrt:strncpy_s.obj
 0001:0001a8e0       _strpbrk                   1001b8e0 f   libucrt:strpbrk.obj
 0001:0001a920       __mbsdec                   1001b920 f   libucrt:mbsdec.obj
 0001:0001a937       __mbsdec_l                 1001b937 f   libucrt:mbsdec.obj
 0001:0001abb2       ___acrt_LCMapStringA       1001bbb2 f   libucrt:lcmapstringa.obj
 0001:0001acac       __commit                   1001bcac f   libucrt:commit.obj
 0001:0001b4d7       __write_internal           1001c4d7 f   libucrt:write.obj
 0001:0001b5df       __write_nolock             1001c5df f   libucrt:write.obj
 0001:0001b7df       ___ascii_wcsnicmp          1001c7df f   libucrt:wcsnicmp.obj
 0001:0001b82e       __controlfp_s              1001c82e f   libucrt:contrlfp.obj
 0001:0001b88d       _fegetenv                  1001c88d f   libucrt:fegetenv.obj
 0001:0001b8aa       _fesetenv                  1001c8aa f   libucrt:fesetenv.obj
 0001:0001b8f5       _feholdexcept              1001c8f5 f   libucrt:feholdexcept.obj
 0001:0001b950       __CIlog10                  1001c950 f   libucrt:log10_impl.obj
 0001:0001b98b       __CIlog10_default          1001c98b f   libucrt:log10_impl.obj
 0001:0001b99f       __log10_default            1001c99f     libucrt:log10_impl.obj
 0001:0001ba60       _ceil                      1001ca60 f   libucrt:ceil_pentium4.obj
 0001:0001baa0       __ceil_pentium4            1001caa0 f   libucrt:ceil_pentium4.obj
 0001:0001be46       ___acrt_fenv_get_common_round_control 1001ce46 f   libucrt:_fenvutils.obj
 0001:0001be68       ___acrt_fenv_get_control   1001ce68 f   libucrt:_fenvutils.obj
 0001:0001bee8       ___acrt_fenv_get_status    1001cee8 f   libucrt:_fenvutils.obj
 0001:0001bf92       ___acrt_fenv_set_control   1001cf92 f   libucrt:_fenvutils.obj
 0001:0001c00d       ___acrt_fenv_set_status    1001d00d f   libucrt:_fenvutils.obj
 0001:0001c107       ?reset_and_return@__crt_mbstring@@YAIIPAU_Mbstatet@@@Z 1001d107 f   libucrt:common_utf8.obj
 0001:0001c11b       ?return_illegal_sequence@__crt_mbstring@@YAIPAU_Mbstatet@@AAV__crt_cached_ptd_host@@@Z 1001d11b f   libucrt:common_utf8.obj
 0001:0001c13d       ?__mbrtoc32_utf8@__crt_mbstring@@YAIPA_UPBDIPAU_Mbstatet@@AAV__crt_cached_ptd_host@@@Z 1001d13d f   libucrt:mbrtoc32.obj
 0001:0001c420       _fclose                    1001d420 f   libucrt:fclose.obj
 0001:0001c4d3       __lseeki64_nolock_internal 1001d4d3 f   libucrt:lseek.obj
 0001:0001c4f1       __query_app_type           1001d4f1 f   libucrt:report_runtime_error.obj
 0001:0001c4f7       ___strncnt                 1001d4f7 f   libucrt:strncnt.obj
 0001:0001c513       __putwch_nolock            1001d513 f   libucrt:putwch.obj
 0001:0001c5ec       __clearfp                  1001d5ec f   libucrt:ieee87.obj
 0001:0001c6ca       __control87                1001d6ca f   libucrt:ieee87.obj
 0001:0001ca69       ___acrt_initialize_sse2    1001da69 f   libucrt:mathfcns.obj
 0001:0001ca80       __CIlog10_pentium4         1001da80 f   libucrt:log10_pentium4.obj
 0001:0001ca98       __log10_pentium4           1001da98     libucrt:log10_pentium4.obj
 0001:0001cd30       __fFEXP                    1001dd30 f   libucrt:87tran.obj
 0001:0001cd87       __rtinfpopse               1001dd87     libucrt:87tran.obj
 0001:0001cd89       __rtinfnpopse              1001dd89     libucrt:87tran.obj
 0001:0001cd99       __fFLN                     1001dd99     libucrt:87tran.obj
 0001:0001ce4e       __rtinfpop                 1001de4e     libucrt:87tran.obj
 0001:0001ce50       __rtinfnpop                1001de50     libucrt:87tran.obj
 0001:0001ce60       __rtforexpinf              1001de60 f   libucrt:87tran.obj
 0001:0001ce6d       __ffexpm1                  1001de6d     libucrt:87tran.obj
 0001:0001cf20       __trandisp1                1001df20 f   libucrt:87disp.obj
 0001:0001cf95       __trandisp2                1001df95 f   libucrt:87disp.obj
 0001:0001d02f       __rttospopde               1001e02f     libucrt:87disp.obj
 0001:0001d034       __rttospop                 1001e034     libucrt:87disp.obj
 0001:0001d040       __rtnospop                 1001e040 f   libucrt:87disp.obj
 0001:0001d050       __rttosnpop                1001e050 f   libucrt:87disp.obj
 0001:0001d051       __rtnospopde               1001e051     libucrt:87disp.obj
 0001:0001d058       __rtzeropop                1001e058     libucrt:87disp.obj
 0001:0001d05a       __rtzeronpop               1001e05a     libucrt:87disp.obj
 0001:0001d060       __rtzerospop               1001e060 f   libucrt:87disp.obj
 0001:0001d06d       __rtonepop                 1001e06d     libucrt:87disp.obj
 0001:0001d070       __rtonenpop                1001e070 f   libucrt:87disp.obj
 0001:0001d080       __tosnan1                  1001e080 f   libucrt:87disp.obj
 0001:0001d0b0       __nosnan2                  1001e0b0 f   libucrt:87disp.obj
 0001:0001d0c0       __tosnan2                  1001e0c0 f   libucrt:87disp.obj
 0001:0001d0f0       __nan2                     1001e0f0 f   libucrt:87disp.obj
 0001:0001d130       __rtindfpop                1001e130 f   libucrt:87disp.obj
 0001:0001d132       __rtindfnpop               1001e132     libucrt:87disp.obj
 0001:0001d143       __rttosnpopde              1001e143     libucrt:87disp.obj
 0001:0001d150       __rtatan2inf               1001e150 f   libucrt:87disp.obj
 0001:0001d16d       __rtchsifneg               1001e16d     libucrt:87disp.obj
 0001:0001d180       __twoToTOS                 1001e180 f   libucrt:common.obj
 0001:0001d195       __load_CW                  1001e195 f   libucrt:common.obj
 0001:0001d1ac       __convertTOStoQNaN         1001e1ac f   libucrt:common.obj
 0001:0001d1c5       __fload_withFB             1001e1c5 f   libucrt:common.obj
 0001:0001d208       __checkTOS_withFB          1001e208 f   libucrt:common.obj
 0001:0001d21e       __fast_exit                1001e21e f   libucrt:common.obj
 0001:0001d22b       __math_exit                1001e22b f   libucrt:common.obj
 0001:0001d255       __check_overflow_exit      1001e255 f   libucrt:common.obj
 0001:0001d269       __check_range_exit         1001e269 f   libucrt:common.obj
 0001:0001d310       __startTwoArgErrorHandling 1001e310 f   libucrt:genexcep.obj
 0001:0001d327       __startOneArgErrorHandling 1001e327 f   libucrt:genexcep.obj
 0001:0001d363       ___libm_error_support      1001e363 f   libucrt:libm_error.obj
 0001:0001d557       __ceil_default             1001e557 f   libucrt:ceil.obj
 0001:0001d69d       __close_internal           1001e69d f   libucrt:close.obj
 0001:0001d740       __close_nolock_internal    1001e740 f   libucrt:close.obj
 0001:0001d7e0       ?__acrt_stdio_free_stream@@YAXV__crt_stdio_stream@@@Z 1001e7e0 f   libucrt:stream.obj
 0001:0001d820       ___ascii_strnicmp          1001e820 f   libucrt:_strnicm.obj
 0001:0001d8a0       ___dcrt_lowio_ensure_console_output_initialized 1001e8a0 f   libucrt:initcon.obj
 0001:0001d8bf       ___dcrt_terminate_console_output 1001e8bf f   libucrt:initcon.obj
 0001:0001d8d6       ___dcrt_write_console      1001e8d6 f   libucrt:initcon.obj
 0001:0001d92b       ___set_fpsr_sse2           1001e92b f   libucrt:fpctrl.obj
 0001:0001d9ab       __clrfp                    1001e9ab f   libucrt:fpctrl.obj
 0001:0001d9bc       __ctrlfp                   1001e9bc f   libucrt:fpctrl.obj
 0001:0001d9e6       __set_statfp               1001e9e6 f   libucrt:fpctrl.obj
 0001:0001da3f       __statfp                   1001ea3f f   libucrt:fpctrl.obj
 0001:0001da4f       __d_inttype                1001ea4f f   libucrt:powhlp.obj
 0001:0001dab7       __powhlp                   1001eab7 f   libucrt:powhlp.obj
 0001:0001dbe2       __87except                 1001ebe2 f   libucrt:87except.obj
 0001:0001dcec       __frnd                     1001ecec f   libucrt:frnd.obj
 0001:0001dd00       __errcode                  1001ed00 f   libucrt:fpexcept.obj
 0001:0001dd34       __except1                  1001ed34 f   libucrt:fpexcept.obj
 0001:0001de02       __handle_exc               1001ee02 f   libucrt:fpexcept.obj
 0001:0001e07b       __raise_exc                1001f07b f   libucrt:fpexcept.obj
 0001:0001e09e       __raise_exc_ex             1001f09e f   libucrt:fpexcept.obj
 0001:0001e394       __set_errno_from_matherr   1001f394 f   libucrt:fpexcept.obj
 0001:0001e3c3       __umatherr                 1001f3c3 f   libucrt:fpexcept.obj
 0001:0001e463       __decomp                   1001f463 f   libucrt:util.obj
 0001:0001e535       __set_exp                  1001f535 f   libucrt:util.obj
 0001:0001e562       __sptype                   1001f562 f   libucrt:util.obj
 0001:0001e5c0       __fpclass                  1001f5c0 f   libucrt:ieeemisc.obj
 0001:0001e670       __FindPESection            1001f670 f   LIBCMT:pesect.obj
 0001:0001e6c0       __IsNonwritableInCurrentImage 1001f6c0 f   LIBCMT:pesect.obj
 0001:0001e780       __ValidateImageBase        1001f780 f   LIBCMT:pesect.obj
 0001:0001e7b1       __EH_epilog3               1001f7b1 f   LIBCMT:ehprolg3.obj
 0001:0001e7c5       __EH_prolog3               1001f7c5 f   LIBCMT:ehprolg3.obj
 0001:0001e7f8       __EH_prolog3_catch         1001f7f8 f   LIBCMT:ehprolg3.obj
 0001:0001e830       __aulldvrm                 1001f830 f   LIBCMT:ulldvrm.obj
 0001:0001e8d0       __allmul                   1001f8d0 f   LIBCMT:llmul.obj
 0001:0001e910       __alldvrm                  1001f910 f   LIBCMT:lldvrm.obj
 0001:0001e9f0       __allshl                   1001f9f0 f   LIBCMT:llshl.obj
 0001:0001ea10       __aullshr                  1001fa10 f   LIBCMT:ullshr.obj
 0001:0001ea30       __ftol2_sse                1001fa30 f   LIBCMT:ftol2.obj
 0001:0001ea40       __ftoi2                    1001fa40 f   LIBCMT:ftol2.obj
 0001:0001eac0       _strrchr                   1001fac0 f   libvcruntime:strrchr.obj
 0001:0001ec00       __filter_x86_sse2_floating_point_exception 1001fc00 f   LIBCMT:x86_exception_filter.obj
 0001:0001ec00       __filter_x86_sse2_floating_point_exception_default 1001fc00 f   LIBCMT:x86_exception_filter.obj
 0002:00000000       __imp__RegQueryValueExW@24 10020000     advapi32:ADVAPI32.dll
 0002:00000004       __imp__RegSetValueExW@24   10020004     advapi32:ADVAPI32.dll
 0002:00000008       __imp__RegQueryInfoKeyW@48 10020008     advapi32:ADVAPI32.dll
 0002:0000000c       __imp__RegOpenKeyExW@20    1002000c     advapi32:ADVAPI32.dll
 0002:00000010       __imp__RegEnumKeyExW@32    10020010     advapi32:ADVAPI32.dll
 0002:00000014       __imp__RegDeleteValueW@8   10020014     advapi32:ADVAPI32.dll
 0002:00000018       __imp__RegDeleteKeyW@8     10020018     advapi32:ADVAPI32.dll
 0002:0000001c       __imp__RegCreateKeyExW@36  1002001c     advapi32:ADVAPI32.dll
 0002:00000020       __imp__RegCloseKey@4       10020020     advapi32:ADVAPI32.dll
 0002:00000024       \177ADVAPI32_NULL_THUNK_DATA 10020024     advapi32:ADVAPI32.dll
 0002:00000028       __imp__GetObjectW@12       10020028     gdi32:GDI32.dll
 0002:0000002c       __imp__SelectObject@8      1002002c     gdi32:GDI32.dll
 0002:00000030       __imp__DeleteObject@4      10020030     gdi32:GDI32.dll
 0002:00000034       __imp__CreateCompatibleDC@4 10020034     gdi32:GDI32.dll
 0002:00000038       __imp__BitBlt@36           10020038     gdi32:GDI32.dll
 0002:0000003c       __imp__SetWindowOrgEx@16   1002003c     gdi32:GDI32.dll
 0002:00000040       __imp__SetWindowExtEx@16   10020040     gdi32:GDI32.dll
 0002:00000044       __imp__SetViewportOrgEx@16 10020044     gdi32:GDI32.dll
 0002:00000048       __imp__LPtoDP@12           10020048     gdi32:GDI32.dll
 0002:0000004c       __imp__SetMapMode@8        1002004c     gdi32:GDI32.dll
 0002:00000050       __imp__SaveDC@4            10020050     gdi32:GDI32.dll
 0002:00000054       __imp__RestoreDC@8         10020054     gdi32:GDI32.dll
 0002:00000058       __imp__GetDeviceCaps@8     10020058     gdi32:GDI32.dll
 0002:0000005c       __imp__DeleteMetaFile@4    1002005c     gdi32:GDI32.dll
 0002:00000060       __imp__DeleteDC@4          10020060     gdi32:GDI32.dll
 0002:00000064       __imp__CreateRectRgnIndirect@4 10020064     gdi32:GDI32.dll
 0002:00000068       __imp__CreateMetaFileW@4   10020068     gdi32:GDI32.dll
 0002:0000006c       __imp__CreateDCW@16        1002006c     gdi32:GDI32.dll
 0002:00000070       __imp__CloseMetaFile@4     10020070     gdi32:GDI32.dll
 0002:00000074       \177GDI32_NULL_THUNK_DATA  10020074     gdi32:GDI32.dll
 0002:00000078       __imp__CloseHandle@4       10020078     kernel32:KERNEL32.dll
 0002:0000007c       __imp__SetEvent@4          1002007c     kernel32:KERNEL32.dll
 0002:00000080       __imp__CreateMutexW@12     10020080     kernel32:KERNEL32.dll
 0002:00000084       __imp__CreateEventW@16     10020084     kernel32:KERNEL32.dll
 0002:00000088       __imp__GetCurrentProcessId@0 10020088     kernel32:KERNEL32.dll
 0002:0000008c       __imp__CreateFileW@28      1002008c     kernel32:KERNEL32.dll
 0002:00000090       __imp__GetConsoleMode@8    10020090     kernel32:KERNEL32.dll
 0002:00000094       __imp__GetConsoleOutputCP@0 10020094     kernel32:KERNEL32.dll
 0002:00000098       __imp__WriteFile@20        10020098     kernel32:KERNEL32.dll
 0002:0000009c       __imp__FlushFileBuffers@4  1002009c     kernel32:KERNEL32.dll
 0002:000000a0       __imp__SetStdHandle@8      100200a0     kernel32:KERNEL32.dll
 0002:000000a4       __imp__SetFilePointerEx@20 100200a4     kernel32:KERNEL32.dll
 0002:000000a8       __imp__GetStringTypeW@16   100200a8     kernel32:KERNEL32.dll
 0002:000000ac       __imp__FreeEnvironmentStringsW@4 100200ac     kernel32:KERNEL32.dll
 0002:000000b0       __imp__GetEnvironmentStringsW@0 100200b0     kernel32:KERNEL32.dll
 0002:000000b4       __imp__lstrcmpiW@8         100200b4     kernel32:KERNEL32.dll
 0002:000000b8       __imp__GetCommandLineA@0   100200b8     kernel32:KERNEL32.dll
 0002:000000bc       __imp__GetCPInfo@8         100200bc     kernel32:KERNEL32.dll
 0002:000000c0       __imp__GetOEMCP@0          100200c0     kernel32:KERNEL32.dll
 0002:000000c4       __imp__GetACP@0            100200c4     kernel32:KERNEL32.dll
 0002:000000c8       __imp__IsValidCodePage@4   100200c8     kernel32:KERNEL32.dll
 0002:000000cc       __imp__FindNextFileW@8     100200cc     kernel32:KERNEL32.dll
 0002:000000d0       __imp__FindFirstFileExW@24 100200d0     kernel32:KERNEL32.dll
 0002:000000d4       __imp__FindClose@4         100200d4     kernel32:KERNEL32.dll
 0002:000000d8       __imp__GetFileType@4       100200d8     kernel32:KERNEL32.dll
 0002:000000dc       __imp__GetStdHandle@4      100200dc     kernel32:KERNEL32.dll
 0002:000000e0       __imp__LCMapStringW@24     100200e0     kernel32:KERNEL32.dll
 0002:000000e4       __imp__HeapReAlloc@16      100200e4     kernel32:KERNEL32.dll
 0002:000000e8       __imp__HeapSize@12         100200e8     kernel32:KERNEL32.dll
 0002:000000ec       __imp__MulDiv@12           100200ec     kernel32:KERNEL32.dll
 0002:000000f0       __imp__GlobalLock@4        100200f0     kernel32:KERNEL32.dll
 0002:000000f4       __imp__GlobalUnlock@4      100200f4     kernel32:KERNEL32.dll
 0002:000000f8       __imp__GlobalAlloc@8       100200f8     kernel32:KERNEL32.dll
 0002:000000fc       __imp__FindResourceW@12    100200fc     kernel32:KERNEL32.dll
 0002:00000100       __imp__SizeofResource@8    10020100     kernel32:KERNEL32.dll
 0002:00000104       __imp__LoadResource@8      10020104     kernel32:KERNEL32.dll
 0002:00000108       __imp__LoadLibraryExW@12   10020108     kernel32:KERNEL32.dll
 0002:0000010c       __imp__GetProcAddress@8    1002010c     kernel32:KERNEL32.dll
 0002:00000110       __imp__GetModuleHandleW@4  10020110     kernel32:KERNEL32.dll
 0002:00000114       __imp__GetModuleFileNameW@12 10020114     kernel32:KERNEL32.dll
 0002:00000118       __imp__FreeLibrary@4       10020118     kernel32:KERNEL32.dll
 0002:0000011c       __imp__DisableThreadLibraryCalls@4 1002011c     kernel32:KERNEL32.dll
 0002:00000120       __imp__GetCurrentThreadId@0 10020120     kernel32:KERNEL32.dll
 0002:00000124       __imp__Sleep@4             10020124     kernel32:KERNEL32.dll
 0002:00000128       __imp__WaitForSingleObject@8 10020128     kernel32:KERNEL32.dll
 0002:0000012c       __imp__ReleaseMutex@4      1002012c     kernel32:KERNEL32.dll
 0002:00000130       __imp__ResetEvent@4        10020130     kernel32:KERNEL32.dll
 0002:00000134       __imp__EnterCriticalSection@4 10020134     kernel32:KERNEL32.dll
 0002:00000138       __imp__LeaveCriticalSection@4 10020138     kernel32:KERNEL32.dll
 0002:0000013c       __imp__SetLastError@4      1002013c     kernel32:KERNEL32.dll
 0002:00000140       __imp__EncodePointer@4     10020140     kernel32:KERNEL32.dll
 0002:00000144       __imp__DeleteCriticalSection@4 10020144     kernel32:KERNEL32.dll
 0002:00000148       __imp__InitializeCriticalSectionEx@12 10020148     kernel32:KERNEL32.dll
 0002:0000014c       __imp__GetLastError@0      1002014c     kernel32:KERNEL32.dll
 0002:00000150       __imp__RaiseException@16   10020150     kernel32:KERNEL32.dll
 0002:00000154       __imp__DecodePointer@4     10020154     kernel32:KERNEL32.dll
 0002:00000158       __imp__WideCharToMultiByte@32 10020158     kernel32:KERNEL32.dll
 0002:0000015c       __imp__GetCommandLineW@0   1002015c     kernel32:KERNEL32.dll
 0002:00000160       __imp__MultiByteToWideChar@24 10020160     kernel32:KERNEL32.dll
 0002:00000164       __imp__WriteConsoleW@20    10020164     kernel32:KERNEL32.dll
 0002:00000168       __imp__GetModuleHandleExW@12 10020168     kernel32:KERNEL32.dll
 0002:0000016c       __imp__ExitProcess@4       1002016c     kernel32:KERNEL32.dll
 0002:00000170       __imp__VirtualQuery@12     10020170     kernel32:KERNEL32.dll
 0002:00000174       __imp__VirtualProtect@16   10020174     kernel32:KERNEL32.dll
 0002:00000178       __imp__GetSystemInfo@4     10020178     kernel32:KERNEL32.dll
 0002:0000017c       __imp__TlsFree@4           1002017c     kernel32:KERNEL32.dll
 0002:00000180       __imp__TlsSetValue@8       10020180     kernel32:KERNEL32.dll
 0002:00000184       __imp__TlsGetValue@4       10020184     kernel32:KERNEL32.dll
 0002:00000188       __imp__TlsAlloc@0          10020188     kernel32:KERNEL32.dll
 0002:0000018c       __imp__InterlockedFlushSList@4 1002018c     kernel32:KERNEL32.dll
 0002:00000190       __imp__RtlUnwind@16        10020190     kernel32:KERNEL32.dll
 0002:00000194       __imp__LoadLibraryExA@12   10020194     kernel32:KERNEL32.dll
 0002:00000198       __imp__VirtualFree@12      10020198     kernel32:KERNEL32.dll
 0002:0000019c       __imp__VirtualAlloc@16     1002019c     kernel32:KERNEL32.dll
 0002:000001a0       __imp__FlushInstructionCache@12 100201a0     kernel32:KERNEL32.dll
 0002:000001a4       __imp__InterlockedPushEntrySList@8 100201a4     kernel32:KERNEL32.dll
 0002:000001a8       __imp__InterlockedPopEntrySList@4 100201a8     kernel32:KERNEL32.dll
 0002:000001ac       __imp__GetProcessHeap@0    100201ac     kernel32:KERNEL32.dll
 0002:000001b0       __imp__HeapFree@12         100201b0     kernel32:KERNEL32.dll
 0002:000001b4       __imp__HeapAlloc@12        100201b4     kernel32:KERNEL32.dll
 0002:000001b8       __imp__OutputDebugStringW@4 100201b8     kernel32:KERNEL32.dll
 0002:000001bc       __imp__InitializeSListHead@4 100201bc     kernel32:KERNEL32.dll
 0002:000001c0       __imp__GetSystemTimeAsFileTime@4 100201c0     kernel32:KERNEL32.dll
 0002:000001c4       __imp__QueryPerformanceCounter@4 100201c4     kernel32:KERNEL32.dll
 0002:000001c8       __imp__GetStartupInfoW@4   100201c8     kernel32:KERNEL32.dll
 0002:000001cc       __imp__IsDebuggerPresent@0 100201cc     kernel32:KERNEL32.dll
 0002:000001d0       __imp__IsProcessorFeaturePresent@4 100201d0     kernel32:KERNEL32.dll
 0002:000001d4       __imp__TerminateProcess@8  100201d4     kernel32:KERNEL32.dll
 0002:000001d8       __imp__GetCurrentProcess@0 100201d8     kernel32:KERNEL32.dll
 0002:000001dc       __imp__SetUnhandledExceptionFilter@4 100201dc     kernel32:KERNEL32.dll
 0002:000001e0       __imp__UnhandledExceptionFilter@4 100201e0     kernel32:KERNEL32.dll
 0002:000001e4       __imp__InitializeCriticalSectionAndSpinCount@8 100201e4     kernel32:KERNEL32.dll
 0002:000001e8       __imp__WaitForSingleObjectEx@12 100201e8     kernel32:KERNEL32.dll
 0002:000001ec       \177KERNEL32_NULL_THUNK_DATA 100201ec     kernel32:KERNEL32.dll
 0002:000001f0       __imp__OleCreatePropertyFrame@44 100201f0     oleaut32:OLEAUT32.dll
 0002:000001f4       __imp__UnRegisterTypeLib@20 100201f4     oleaut32:OLEAUT32.dll
 0002:000001f8       __imp__RegisterTypeLib@12  100201f8     oleaut32:OLEAUT32.dll
 0002:000001fc       __imp__LoadRegTypeLib@20   100201fc     oleaut32:OLEAUT32.dll
 0002:00000200       __imp__LoadTypeLib@8       10020200     oleaut32:OLEAUT32.dll
 0002:00000204       __imp__VarUI4FromStr@16    10020204     oleaut32:OLEAUT32.dll
 0002:00000208       __imp__VariantInit@4       10020208     oleaut32:OLEAUT32.dll
 0002:0000020c       __imp__SysAllocStringByteLen@8 1002020c     oleaut32:OLEAUT32.dll
 0002:00000210       __imp__SysStringByteLen@4  10020210     oleaut32:OLEAUT32.dll
 0002:00000214       __imp__VariantChangeType@16 10020214     oleaut32:OLEAUT32.dll
 0002:00000218       __imp__VariantClear@4      10020218     oleaut32:OLEAUT32.dll
 0002:0000021c       __imp__SysStringLen@4      1002021c     oleaut32:OLEAUT32.dll
 0002:00000220       __imp__SysFreeString@4     10020220     oleaut32:OLEAUT32.dll
 0002:00000224       __imp__SysAllocStringLen@8 10020224     oleaut32:OLEAUT32.dll
 0002:00000228       __imp__SysAllocString@4    10020228     oleaut32:OLEAUT32.dll
 0002:0000022c       \177OLEAUT32_NULL_THUNK_DATA 1002022c     oleaut32:OLEAUT32.dll
 0002:00000230       __imp__UnregisterClassW@8  10020230     user32:USER32.dll
 0002:00000234       __imp__PostMessageW@16     10020234     user32:USER32.dll
 0002:00000238       __imp__DefWindowProcW@16   10020238     user32:USER32.dll
 0002:0000023c       __imp__CallWindowProcW@20  1002023c     user32:USER32.dll
 0002:00000240       __imp__RegisterClassExW@4  10020240     user32:USER32.dll
 0002:00000244       __imp__GetClassInfoExW@12  10020244     user32:USER32.dll
 0002:00000248       __imp__CreateWindowExW@48  10020248     user32:USER32.dll
 0002:0000024c       __imp__IsWindow@4          1002024c     user32:USER32.dll
 0002:00000250       __imp__IsChild@8           10020250     user32:USER32.dll
 0002:00000254       __imp__DestroyWindow@4     10020254     user32:USER32.dll
 0002:00000258       __imp__ShowWindow@8        10020258     user32:USER32.dll
 0002:0000025c       __imp__SetWindowPos@28     1002025c     user32:USER32.dll
 0002:00000260       __imp__CharNextW@4         10020260     user32:USER32.dll
 0002:00000264       __imp__SetFocus@4          10020264     user32:USER32.dll
 0002:00000268       __imp__LoadBitmapW@8       10020268     user32:USER32.dll
 0002:0000026c       __imp__RegisterClassW@4    1002026c     user32:USER32.dll
 0002:00000270       __imp__PeekMessageW@20     10020270     user32:USER32.dll
 0002:00000274       __imp__LoadCursorW@8       10020274     user32:USER32.dll
 0002:00000278       __imp__GetParent@4         10020278     user32:USER32.dll
 0002:0000027c       __imp__SetWindowLongW@12   1002027c     user32:USER32.dll
 0002:00000280       __imp__GetWindowLongW@8    10020280     user32:USER32.dll
 0002:00000284       __imp__PtInRect@12         10020284     user32:USER32.dll
 0002:00000288       __imp__EqualRect@8         10020288     user32:USER32.dll
 0002:0000028c       __imp__OffsetRect@12       1002028c     user32:USER32.dll
 0002:00000290       __imp__UnionRect@12        10020290     user32:USER32.dll
 0002:00000294       __imp__IntersectRect@12    10020294     user32:USER32.dll
 0002:00000298       __imp__GetClientRect@8     10020298     user32:USER32.dll
 0002:0000029c       __imp__InvalidateRect@12   1002029c     user32:USER32.dll
 0002:000002a0       __imp__SetWindowRgn@12     100202a0     user32:USER32.dll
 0002:000002a4       __imp__EndPaint@8          100202a4     user32:USER32.dll
 0002:000002a8       __imp__BeginPaint@8        100202a8     user32:USER32.dll
 0002:000002ac       __imp__ReleaseDC@8         100202ac     user32:USER32.dll
 0002:000002b0       __imp__GetDC@4             100202b0     user32:USER32.dll
 0002:000002b4       __imp__GetKeyState@4       100202b4     user32:USER32.dll
 0002:000002b8       __imp__GetFocus@0          100202b8     user32:USER32.dll
 0002:000002bc       \177USER32_NULL_THUNK_DATA 100202bc     user32:USER32.dll
 0002:000002c0       __imp__StringFromGUID2@12  100202c0     ole32:ole32.dll
 0002:000002c4       __imp__CoTaskMemAlloc@4    100202c4     ole32:ole32.dll
 0002:000002c8       __imp__CoTaskMemRealloc@8  100202c8     ole32:ole32.dll
 0002:000002cc       __imp__CoTaskMemFree@4     100202cc     ole32:ole32.dll
 0002:000002d0       __imp__ReadClassStm@8      100202d0     ole32:ole32.dll
 0002:000002d4       __imp__WriteClassStm@8     100202d4     ole32:ole32.dll
 0002:000002d8       __imp__CreateDataAdviseHolder@4 100202d8     ole32:ole32.dll
 0002:000002dc       __imp__OleSaveToStream@8   100202dc     ole32:ole32.dll
 0002:000002e0       __imp__CreateOleAdviseHolder@4 100202e0     ole32:ole32.dll
 0002:000002e4       __imp__OleRegGetUserType@12 100202e4     ole32:ole32.dll
 0002:000002e8       __imp__OleRegGetMiscStatus@12 100202e8     ole32:ole32.dll
 0002:000002ec       __imp__OleRegEnumVerbs@8   100202ec     ole32:ole32.dll
 0002:000002f0       __imp__CLSIDFromProgID@8   100202f0     ole32:ole32.dll
 0002:000002f4       __imp__CoCreateInstance@20 100202f4     ole32:ole32.dll
 0002:000002f8       \177ole32_NULL_THUNK_DATA  100202f8     ole32:ole32.dll
 0002:000002fc       ___guard_check_icall_fptr  100202fc     LIBCMT:guard_support.obj
 0002:00000300       ___castguard_check_failure_os_handled_fptr 10020300     LIBCMT:guard_support.obj
 0002:00000304       ___xc_a                    10020304     LIBCMT:initializers.obj
 0002:0000031c       ___xc_z                    1002031c     LIBCMT:initializers.obj
 0002:00000320       ___xi_a                    10020320     LIBCMT:initializers.obj
 0002:00000328       ___acrt_stdio_initializer  10020328     libucrt:stdio_initializer.obj
 0002:0000032c       ___acrt_multibyte_initializer 1002032c     libucrt:multibyte_initializer.obj
 0002:00000330       ___acrt_tran_sse2_initializer 10020330     libucrt:sse2_initializer.obj
 0002:00000334       ___xi_z                    10020334     LIBCMT:initializers.obj
 0002:00000338       ___xl_a                    10020338     LIBCMT:tlssup.obj
 0002:0000033c       ___xl_z                    1002033c     LIBCMT:tlssup.obj
 0002:00000340       ___xp_a                    10020340     LIBCMT:initializers.obj
 0002:00000344       ___acrt_locale_terminator  10020344     libucrt:locale_initializer.obj
 0002:00000348       ___dcrt_console_output_terminator 10020348     libucrt:console_output_initializer.obj
 0002:0000034c       ___acrt_stdio_terminator   1002034c     libucrt:stdio_initializer.obj
 0002:00000350       ___xp_z                    10020350     LIBCMT:initializers.obj
 0002:00000354       ___xt_a                    10020354     LIBCMT:initializers.obj
 0002:00000358       ___xt_z                    10020358     LIBCMT:initializers.obj
 0002:00000360       ??_C@_13HADIAKP@?$AAS@     10020360     OposVariant.obj
 0002:00000364       ??_C@_13LHMFKAAD@?$AAM@    10020364     OposVariant.obj
 0002:00000368       ??_C@_13MKMNOPIJ@?$AAD@    10020368     OposVariant.obj
 0002:0000036c       ??_C@_13OPKGLAFF@?$AAB@    1002036c     OposVariant.obj
 0002:00000370       ??_C@_17LLMMEOJD@?$AAV?$AAa?$AAl@ 10020370     OposVariant.obj
 0002:00000378       ??_C@_1BI@JFAIJMHL@?$AAF?$AAo?$AAr?$AAc?$AAe?$AAR?$AAe?$AAm?$AAo?$AAv?$AAe@ 10020378     OposVariant.obj
 0002:00000390       ??_C@_1BC@GCKHIPE@?$AAN?$AAo?$AAR?$AAe?$AAm?$AAo?$AAv?$AAe@ 10020390     OposVariant.obj
 0002:000003a4       ??_C@_1O@JDLOHAN@?$AAD?$AAe?$AAl?$AAe?$AAt?$AAe@ 100203a4     OposVariant.obj
 0002:000003b4       ??_C@_11LOCGONAA@@         100203b4     OposVariant.obj
 0002:000003b8       __GUID_00020412_0000_0000_c000_000000000046 100203b8     VoiceRecognition.obj
 0002:000003c8       __GUID_00020401_0000_0000_c000_000000000046 100203c8     VoiceRecognition.obj
 0002:000003d8       ??_7?$CComObject@V?$CComEnum@UIEnumConnections@@$1?_GUID_b196b287_bab4_101a_b69c_00aa00341d07@@3U__s_GUID@@BUtagCONNECTDATA@@V?$_Copy@UtagCONNECTDATA@@@ATL@@VCComSingleThreadModel@6@@ATL@@@ATL@@6B@ 100203d8     VoiceRecognition.obj
 0002:000003f8       __GUID_55980ba0_35aa_11cf_b671_00aa004cd6d8 100203f8     VoiceRecognition.obj
 0002:00000408       __GUID_b196b28b_bab4_101a_b69c_00aa00341d07 10020408     VoiceRecognition.obj
 0002:00000418       ?_entries@?1??_GetEntries@?$CComEnum@UIEnumConnections@@$1?_GUID_b196b287_bab4_101a_b69c_00aa00341d07@@3U__s_GUID@@BUtagCONNECTDATA@@V?$_Copy@UtagCONNECTDATA@@@ATL@@VCComSingleThreadModel@6@@ATL@@SGPBU_ATL_INTMAP_ENTRY@3@XZ@4QBU43@B 10020418     VoiceRecognition.obj
 0002:00000430       ??_7CComClassFactory@ATL@@6B@ 10020430     VoiceRecognition.obj
 0002:00000448       ?_entries@?1??_GetEntries@CComClassFactory@ATL@@SGPBU_ATL_INTMAP_ENTRY@3@XZ@4QBU43@B 10020448     VoiceRecognition.obj
 0002:00000460       __GUID_00000001_0000_0000_c000_000000000046 10020460     VoiceRecognition.obj
 0002:00000470       _IID_IOPOSVoiceRecognition_1_16 10020470     VoiceRecognition.obj
 0002:00000480       ??_C@_1BK@BIGILECK@?$AAA?$AAd?$AAv?$AAa?$AAp?$AAi?$AA3?$AA2?$AA?4?$AAd?$AAl?$AAl@ 10020480     VoiceRecognition.obj
 0002:0000049c       ??_C@_0BI@MNCFCPFK@RegCreateKeyTransactedW@ 1002049c     VoiceRecognition.obj
 0002:000004b4       _IID_IOPOSVoiceRecognition 100204b4     VoiceRecognition.obj
 0002:000004c4       _LIBID_OposVoiceRecognition_CCO 100204c4     VoiceRecognition.obj
 0002:000004d4       _DIID__IOPOSVoiceRecognitionEvents 100204d4     VoiceRecognition.obj
 0002:000004e4       _CLSID_OPOSVoiceRecognition 100204e4     VoiceRecognition.obj
 0002:000004f4       __GUID_b196b287_bab4_101a_b69c_00aa00341d07 100204f4     VoiceRecognition.obj
 0002:00000504       __GUID_b196b285_bab4_101a_b69c_00aa00341d07 10020504     VoiceRecognition.obj
 0002:00000514       __GUID_00000114_0000_0000_c000_000000000046 10020514     VoiceRecognition.obj
 0002:00000524       __GUID_a6bc3ac0_dbaa_11ce_9de3_00aa004bb851 10020524     VoiceRecognition.obj
 0002:00000534       __GUID_0000010c_0000_0000_c000_000000000046 10020534     VoiceRecognition.obj
 0002:00000544       __GUID_00000146_0000_0000_c000_000000000046 10020544     VoiceRecognition.obj
 0002:00000554       ??_7CComModule@ATL@@6B@    10020554     VoiceRecognition.obj
 0002:00000580       ?_entries@?1??_GetEntries@COPOSVoiceRecognition@@SGPBU_ATL_INTMAP_ENTRY@ATL@@XZ@4QBU34@B 10020580     VoiceRecognition.obj
 0002:000006a0       __GUID_00000000_0000_0000_c000_000000000046 100206a0     VoiceRecognition.obj
 0002:000006b0       __GUID_00020400_0000_0000_c000_000000000046 100206b0     VoiceRecognition.obj
 0002:000006c0       __GUID_cf51ed10_62fe_11cf_bf86_00a0c9034836 100206c0     VoiceRecognition.obj
 0002:000006d0       __GUID_0000010a_0000_0000_c000_000000000046 100206d0     VoiceRecognition.obj
 0002:000006e0       __GUID_b196b283_bab4_101a_b69c_00aa00341d07 100206e0     VoiceRecognition.obj
 0002:000006f0       __GUID_cb5bdc81_93c1_11cf_8f20_00805f2cd064 100206f0     VoiceRecognition.obj
 0002:00000700       ?pPropMap@?1??GetPropertyMap@COPOSVoiceRecognition@@SAPBUATL_PROPMAP_ENTRY@ATL@@XZ@4QBU34@B 10020700     VoiceRecognition.obj
 0002:0000076c       ??_C@_17DGDADEHL@?$AA_?$AAc?$AAx@ 1002076c     VoiceRecognition.obj
 0002:00000774       ??_C@_17IOIMFDBO@?$AA_?$AAc?$AAy@ 10020774     VoiceRecognition.obj
 0002:0000077c       __GUID_922eada0_3424_11cf_b670_00aa004cd6d8 1002077c     VoiceRecognition.obj
 0002:0000078c       __GUID_9c2cad80_3424_11cf_b670_00aa004cd6d8 1002078c     VoiceRecognition.obj
 0002:0000079c       __GUID_00000119_0000_0000_c000_000000000046 1002079c     VoiceRecognition.obj
 0002:000007ac       __GUID_b196b289_bab4_101a_b69c_00aa00341d07 100207ac     VoiceRecognition.obj
 0002:000007bc       ??_7?$CComObjectCached@VCComClassFactory@ATL@@@ATL@@6B@ 100207bc     VoiceRecognition.obj
 0002:000007d4       ??_C@_1CE@PGFMOFKI@?$AAS?$AAt?$AAa?$AAt?$AAu?$AAs?$AAU?$AAp?$AAd?$AAa?$AAt?$AAe?$AAE?$AAv?$AAe@ 100207d4     VoiceRecognition.obj
 0002:000007f8       ??_C@_1BG@LODEBHDD@?$AAE?$AAr?$AAr?$AAo?$AAr?$AAE?$AAv?$AAe?$AAn?$AAt@ 100207f8     VoiceRecognition.obj
 0002:00000810       ??_C@_1BM@CBGEBBBJ@?$AAD?$AAi?$AAr?$AAe?$AAc?$AAt?$AAI?$AAO?$AAE?$AAv?$AAe?$AAn?$AAt@ 10020810     VoiceRecognition.obj
 0002:0000082c       ??_C@_1BE@IEBMACEM@?$AAD?$AAa?$AAt?$AAa?$AAE?$AAv?$AAe?$AAn?$AAt@ 1002082c     VoiceRecognition.obj
 0002:00000840       __GUID_b196b286_bab4_101a_b69c_00aa00341d07 10020840     VoiceRecognition.obj
 0002:00000850       __GUID_00000117_0000_0000_c000_000000000046 10020850     VoiceRecognition.obj
 0002:00000860       ??_C@_1BC@ENICKDH@?$AAC?$AAo?$AAn?$AAt?$AAe?$AAn?$AAt?$AAs@ 10020860     VoiceRecognition.obj
 0002:00000874       ??_7?$CComObject@V?$CComEnum@UIEnumConnectionPoints@@$1?_GUID_b196b285_bab4_101a_b69c_00aa00341d07@@3U__s_GUID@@BPAUIConnectionPoint@@V?$_CopyInterface@UIConnectionPoint@@@ATL@@VCComSingleThreadModel@6@@ATL@@@ATL@@6B@ 10020874     VoiceRecognition.obj
 0002:00000894       ??_C@_1M@KANJNLFF@?$AAC?$AAL?$AAS?$AAI?$AAD@ 10020894     VoiceRecognition.obj
 0002:000008a0       ??_C@_1M@EJNEECMJ@?$AAA?$AAp?$AAp?$AAI?$AAD@ 100208a0     VoiceRecognition.obj
 0002:000008ac       ?rgszNeverDelete@CRegParser@ATL@@1QBQB_WB 100208ac     VoiceRecognition.obj
 0002:000008dc       ??_7CRegObject@ATL@@6B@    100208dc     VoiceRecognition.obj
 0002:000008f4       __GUID_0000010e_0000_0000_c000_000000000046 100208f4     VoiceRecognition.obj
 0002:00000904       __GUID_b196b288_bab4_101a_b69c_00aa00341d07 10020904     VoiceRecognition.obj
 0002:00000914       ??_C@_1CK@OEKPKBNA@?$AAC?$AAo?$AAm?$AAp?$AAo?$AAn?$AAe?$AAn?$AAt?$AA?5?$AAC?$AAa?$AAt?$AAe?$AAg@ 10020914     VoiceRecognition.obj
 0002:00000940       ??_C@_1BC@NKMMNMGL@?$AAF?$AAi?$AAl?$AAe?$AAT?$AAy?$AAp?$AAe@ 10020940     VoiceRecognition.obj
 0002:00000954       ??_C@_1BE@EKPAFMCP@?$AAI?$AAn?$AAt?$AAe?$AAr?$AAf?$AAa?$AAc?$AAe@ 10020954     VoiceRecognition.obj
 0002:00000968       ??_C@_1BC@MAICEHGI@?$AAH?$AAa?$AAr?$AAd?$AAw?$AAa?$AAr?$AAe@ 10020968     VoiceRecognition.obj
 0002:0000097c       ??_C@_19HLLLM@?$AAM?$AAi?$AAm?$AAe@ 1002097c     VoiceRecognition.obj
 0002:00000988       ??_C@_17OMAOINJK@?$AAS?$AAA?$AAM@ 10020988     VoiceRecognition.obj
 0002:00000990       ??_C@_1BC@IBECJAAI@?$AAS?$AAE?$AAC?$AAU?$AAR?$AAI?$AAT?$AAY@ 10020990     VoiceRecognition.obj
 0002:000009a4       ??_C@_1O@GBFINDKL@?$AAS?$AAY?$AAS?$AAT?$AAE?$AAM@ 100209a4     VoiceRecognition.obj
 0002:000009b4       ??_C@_1BC@EAHCMADO@?$AAS?$AAo?$AAf?$AAt?$AAw?$AAa?$AAr?$AAe@ 100209b4     VoiceRecognition.obj
 0002:000009c8       ??_C@_1BA@JIHHIEDE@?$AAT?$AAy?$AAp?$AAe?$AAL?$AAi?$AAb@ 100209c8     VoiceRecognition.obj
 0002:000009d8       ?map@?1??HKeyFromString@CRegParser@ATL@@KAPAUHKEY__@@PA_W@Z@4QBUkeymap@?1??123@KAPAU4@0@Z@B 100209d8     VoiceRecognition.obj
 0002:00000a48       ??_C@_19NCHLBIN@?$AAH?$AAK?$AAC?$AAR@ 10020a48     VoiceRecognition.obj
 0002:00000a54       ??_C@_19JAPAIJDE@?$AAH?$AAK?$AAC?$AAU@ 10020a54     VoiceRecognition.obj
 0002:00000a60       ??_C@_19PEALEEJB@?$AAH?$AAK?$AAL?$AAM@ 10020a60     VoiceRecognition.obj
 0002:00000a6c       ??_C@_17PJOJPMPB@?$AAH?$AAK?$AAU@ 10020a6c     VoiceRecognition.obj
 0002:00000a74       ??_C@_19PNBHMJPL@?$AAH?$AAK?$AAP?$AAD@ 10020a74     VoiceRecognition.obj
 0002:00000a80       ??_C@_19GFFAIJHG@?$AAH?$AAK?$AAD?$AAD@ 10020a80     VoiceRecognition.obj
 0002:00000a8c       ??_C@_19OFICIBHH@?$AAH?$AAK?$AAC?$AAC@ 10020a8c     VoiceRecognition.obj
 0002:00000a98       ??_C@_1CE@PACHPJFI@?$AAH?$AAK?$AAE?$AAY?$AA_?$AAC?$AAL?$AAA?$AAS?$AAS?$AAE?$AAS?$AA_?$AAR?$AAO@ 10020a98     VoiceRecognition.obj
 0002:00000abc       ??_C@_1CE@HLHNCBPM@?$AAH?$AAK?$AAE?$AAY?$AA_?$AAC?$AAU?$AAR?$AAR?$AAE?$AAN?$AAT?$AA_?$AAU?$AAS@ 10020abc     VoiceRecognition.obj
 0002:00000ae0       ??_C@_1CG@GFBEANJL@?$AAH?$AAK?$AAE?$AAY?$AA_?$AAL?$AAO?$AAC?$AAA?$AAL?$AA_?$AAM?$AAA?$AAC?$AAH@ 10020ae0     VoiceRecognition.obj
 0002:00000b08       ??_C@_1BG@BGODANIO@?$AAH?$AAK?$AAE?$AAY?$AA_?$AAU?$AAS?$AAE?$AAR?$AAS@ 10020b08     VoiceRecognition.obj
 0002:00000b20       ??_C@_1CM@KHNNAOIC@?$AAH?$AAK?$AAE?$AAY?$AA_?$AAP?$AAE?$AAR?$AAF?$AAO?$AAR?$AAM?$AAA?$AAN?$AAC@ 10020b20     VoiceRecognition.obj
 0002:00000b4c       ??_C@_1BM@HAGMMHIA@?$AAH?$AAK?$AAE?$AAY?$AA_?$AAD?$AAY?$AAN?$AA_?$AAD?$AAA?$AAT?$AAA@ 10020b4c     VoiceRecognition.obj
 0002:00000b68       ??_C@_1CI@BBJOACGG@?$AAH?$AAK?$AAE?$AAY?$AA_?$AAC?$AAU?$AAR?$AAR?$AAE?$AAN?$AAT?$AA_?$AAC?$AAO@ 10020b68     VoiceRecognition.obj
 0002:00000b90       __GUID_00000113_0000_0000_c000_000000000046 10020b90     VoiceRecognition.obj
 0002:00000ba0       __GUID_00000109_0000_0000_c000_000000000046 10020ba0     VoiceRecognition.obj
 0002:00000bb0       __GUID_7fd52380_4e07_101b_ae2d_08002b2ec713 10020bb0     VoiceRecognition.obj
 0002:00000bc0       __GUID_1c2056cc_5ef4_101b_8bc8_00aa003e3b29 10020bc0     VoiceRecognition.obj
 0002:00000bd0       ??_C@_1EA@NHKLICFA@?$AAH?$AAK?$AAC?$AAU?$AA?$AN?$AA?6?$AA?$HL?$AA?7?$AAS?$AAo?$AAf?$AAt?$AAw?$AAa?$AAr@ 10020bd0     VoiceRecognition.obj
 0002:00000c10       ??_C@_1BE@LJOLIMEM@?$AA?$AN?$AA?6?$AA?7?$AA?$HN?$AA?$AN?$AA?6?$AA?$HN?$AA?$AN?$AA?6@ 10020c10     VoiceRecognition.obj
 0002:00000c24       __GUID_00000112_0000_0000_c000_000000000046 10020c24     VoiceRecognition.obj
 0002:00000c34       ??_C@_1O@MNLDABAF@?$AAM?$AAo?$AAd?$AAu?$AAl?$AAe@ 10020c34     VoiceRecognition.obj
 0002:00000c44       ??_C@_1BG@JBACFMF@?$AAM?$AAo?$AAd?$AAu?$AAl?$AAe?$AA_?$AAR?$AAa?$AAw@ 10020c44     VoiceRecognition.obj
 0002:00000c5c       ??_C@_1BC@KAILKFFG@?$AAR?$AAE?$AAG?$AAI?$AAS?$AAT?$AAR?$AAY@ 10020c5c     VoiceRecognition.obj
 0002:00000c70       __GUID_3af24292_0c96_11ce_a0cf_00aa00600ab8 10020c70     VoiceRecognition.obj
 0002:00000c80       __GUID_00000127_0000_0000_c000_000000000046 10020c80     VoiceRecognition.obj
 0002:00000c90       __GUID_0000010d_0000_0000_c000_000000000046 10020c90     VoiceRecognition.obj
 0002:00000ca0       ??_C@_1M@PPPPCDEP@?$AAA?$AAP?$AAP?$AAI?$AAD@ 10020ca0     VoiceRecognition.obj
 0002:00000cac       ??_7?$CComContainedObject@VCOPOSVoiceRecognition@@@ATL@@6B?$IDispatchImpl@UIOPOSVoiceRecognition@@$1?IID_IOPOSVoiceRecognition@@3U_GUID@@B$1?LIBID_OposVoiceRecognition_CCO@@3U3@B$00$0A@VCComTypeInfoHolder@ATL@@@1@@ 10020cac     VoiceRecognition.obj
 0002:00000dc0       ??_7?$CComContainedObject@VCOPOSVoiceRecognition@@@ATL@@6BCComControlBase@1@@ 10020dc0     VoiceRecognition.obj
 0002:00000dd4       ??_7?$CComContainedObject@VCOPOSVoiceRecognition@@@ATL@@6B?$CWindowImpl@VCOPOSVoiceRecognition@@VCWindow@ATL@@V?$CWinTraits@$0FGAAAAAA@$0A@@3@@1@@ 10020dd4     VoiceRecognition.obj
 0002:00000de4       ??_7?$CComContainedObject@VCOPOSVoiceRecognition@@@ATL@@6B?$IPersistStreamInitImpl@VCOPOSVoiceRecognition@@@1@@ 10020de4     VoiceRecognition.obj
 0002:00000e08       ??_7?$CComContainedObject@VCOPOSVoiceRecognition@@@ATL@@6B?$IOleControlImpl@VCOPOSVoiceRecognition@@@1@@ 10020e08     VoiceRecognition.obj
 0002:00000e24       ??_7?$CComContainedObject@VCOPOSVoiceRecognition@@@ATL@@6B?$IOleObjectImpl@VCOPOSVoiceRecognition@@@1@@ 10020e24     VoiceRecognition.obj
 0002:00000e84       ??_7?$CComContainedObject@VCOPOSVoiceRecognition@@@ATL@@6B?$IOleInPlaceActiveObjectImpl@VCOPOSVoiceRecognition@@@1@@ 10020e84     VoiceRecognition.obj
 0002:00000eac       ??_7?$CComContainedObject@VCOPOSVoiceRecognition@@@ATL@@6B?$IViewObjectExImpl@VCOPOSVoiceRecognition@@@1@@ 10020eac     VoiceRecognition.obj
 0002:00000ee8       ??_7?$CComContainedObject@VCOPOSVoiceRecognition@@@ATL@@6B?$IOleInPlaceObjectWindowlessImpl@VCOPOSVoiceRecognition@@@1@@ 10020ee8     VoiceRecognition.obj
 0002:00000f14       ??_7?$CComContainedObject@VCOPOSVoiceRecognition@@@ATL@@6B?$IConnectionPointContainerImpl@VCOPOSVoiceRecognition@@@1@@ 10020f14     VoiceRecognition.obj
 0002:00000f28       ??_7?$CComContainedObject@VCOPOSVoiceRecognition@@@ATL@@6B?$IPersistStorageImpl@VCOPOSVoiceRecognition@@@1@@ 10020f28     VoiceRecognition.obj
 0002:00000f50       ??_7?$CComContainedObject@VCOPOSVoiceRecognition@@@ATL@@6B?$ISpecifyPropertyPagesImpl@VCOPOSVoiceRecognition@@@1@@ 10020f50     VoiceRecognition.obj
 0002:00000f60       ??_7?$CComContainedObject@VCOPOSVoiceRecognition@@@ATL@@6B?$IQuickActivateImpl@VCOPOSVoiceRecognition@@@1@@ 10020f60     VoiceRecognition.obj
 0002:00000f78       ??_7?$CComContainedObject@VCOPOSVoiceRecognition@@@ATL@@6B?$IDataObjectImpl@VCOPOSVoiceRecognition@@@1@@ 10020f78     VoiceRecognition.obj
 0002:00000fa8       ??_7?$CComContainedObject@VCOPOSVoiceRecognition@@@ATL@@6B?$IProvideClassInfo2Impl@$1?CLSID_OPOSVoiceRecognition@@3U_GUID@@B$1?DIID__IOPOSVoiceRecognitionEvents@@3U2@B$1?LIBID_OposVoiceRecognition_CCO@@3U2@B$00$0A@VCComTypeInfoHolder@ATL@@@1@@ 10020fa8     VoiceRecognition.obj
 0002:00000fbc       ??_7?$CComContainedObject@VCOPOSVoiceRecognition@@@ATL@@6B?$IObjectSafetyImpl@VCOPOSVoiceRecognition@@$02@1@@ 10020fbc     VoiceRecognition.obj
 0002:00000fd4       ??_7?$CComContainedObject@VCOPOSVoiceRecognition@@@ATL@@6B?$IPropertyNotifySinkCP@VCOPOSVoiceRecognition@@VCComDynamicUnkArray@ATL@@@1@@ 10020fd4     VoiceRecognition.obj
 0002:00000ff4       ??_7?$CComContainedObject@VCOPOSVoiceRecognition@@@ATL@@6B?$CProxy_IOPOSEvents@VCOPOSVoiceRecognition@@@@@ 10020ff4     VoiceRecognition.obj
 0002:00001014       ??_7?$CComAggObject@VCOPOSVoiceRecognition@@@ATL@@6B@ 10021014     VoiceRecognition.obj
 0002:00001024       ??_7?$CComObject@VCOPOSVoiceRecognition@@@ATL@@6B?$IDispatchImpl@UIOPOSVoiceRecognition@@$1?IID_IOPOSVoiceRecognition@@3U_GUID@@B$1?LIBID_OposVoiceRecognition_CCO@@3U3@B$00$0A@VCComTypeInfoHolder@ATL@@@1@@ 10021024     VoiceRecognition.obj
 0002:00001138       ??_7?$CComObject@VCOPOSVoiceRecognition@@@ATL@@6BCComControlBase@1@@ 10021138     VoiceRecognition.obj
 0002:0000114c       ??_7?$CComObject@VCOPOSVoiceRecognition@@@ATL@@6B?$CWindowImpl@VCOPOSVoiceRecognition@@VCWindow@ATL@@V?$CWinTraits@$0FGAAAAAA@$0A@@3@@1@@ 1002114c     VoiceRecognition.obj
 0002:0000115c       ??_7?$CComObject@VCOPOSVoiceRecognition@@@ATL@@6B?$IPersistStreamInitImpl@VCOPOSVoiceRecognition@@@1@@ 1002115c     VoiceRecognition.obj
 0002:00001180       ??_7?$CComObject@VCOPOSVoiceRecognition@@@ATL@@6B?$IOleControlImpl@VCOPOSVoiceRecognition@@@1@@ 10021180     VoiceRecognition.obj
 0002:0000119c       ??_7?$CComObject@VCOPOSVoiceRecognition@@@ATL@@6B?$IOleObjectImpl@VCOPOSVoiceRecognition@@@1@@ 1002119c     VoiceRecognition.obj
 0002:000011fc       ??_7?$CComObject@VCOPOSVoiceRecognition@@@ATL@@6B?$IOleInPlaceActiveObjectImpl@VCOPOSVoiceRecognition@@@1@@ 100211fc     VoiceRecognition.obj
 0002:00001224       ??_7?$CComObject@VCOPOSVoiceRecognition@@@ATL@@6B?$IViewObjectExImpl@VCOPOSVoiceRecognition@@@1@@ 10021224     VoiceRecognition.obj
 0002:00001260       ??_7?$CComObject@VCOPOSVoiceRecognition@@@ATL@@6B?$IOleInPlaceObjectWindowlessImpl@VCOPOSVoiceRecognition@@@1@@ 10021260     VoiceRecognition.obj
 0002:0000128c       ??_7?$CComObject@VCOPOSVoiceRecognition@@@ATL@@6B?$IConnectionPointContainerImpl@VCOPOSVoiceRecognition@@@1@@ 1002128c     VoiceRecognition.obj
 0002:000012a0       ??_7?$CComObject@VCOPOSVoiceRecognition@@@ATL@@6B?$IPersistStorageImpl@VCOPOSVoiceRecognition@@@1@@ 100212a0     VoiceRecognition.obj
 0002:000012c8       ??_7?$CComObject@VCOPOSVoiceRecognition@@@ATL@@6B?$ISpecifyPropertyPagesImpl@VCOPOSVoiceRecognition@@@1@@ 100212c8     VoiceRecognition.obj
 0002:000012d8       ??_7?$CComObject@VCOPOSVoiceRecognition@@@ATL@@6B?$IQuickActivateImpl@VCOPOSVoiceRecognition@@@1@@ 100212d8     VoiceRecognition.obj
 0002:000012f0       ??_7?$CComObject@VCOPOSVoiceRecognition@@@ATL@@6B?$IDataObjectImpl@VCOPOSVoiceRecognition@@@1@@ 100212f0     VoiceRecognition.obj
 0002:00001320       ??_7?$CComObject@VCOPOSVoiceRecognition@@@ATL@@6B?$IProvideClassInfo2Impl@$1?CLSID_OPOSVoiceRecognition@@3U_GUID@@B$1?DIID__IOPOSVoiceRecognitionEvents@@3U2@B$1?LIBID_OposVoiceRecognition_CCO@@3U2@B$00$0A@VCComTypeInfoHolder@ATL@@@1@@ 10021320     VoiceRecognition.obj
 0002:00001334       ??_7?$CComObject@VCOPOSVoiceRecognition@@@ATL@@6B?$IObjectSafetyImpl@VCOPOSVoiceRecognition@@$02@1@@ 10021334     VoiceRecognition.obj
 0002:0000134c       ??_7?$CComObject@VCOPOSVoiceRecognition@@@ATL@@6B?$IPropertyNotifySinkCP@VCOPOSVoiceRecognition@@VCComDynamicUnkArray@ATL@@@1@@ 1002134c     VoiceRecognition.obj
 0002:0000136c       ??_7?$CComObject@VCOPOSVoiceRecognition@@@ATL@@6B?$CProxy_IOPOSEvents@VCOPOSVoiceRecognition@@@@@ 1002136c     VoiceRecognition.obj
 0002:0000138c       ??_C@_1O@GBFKGNEO@?$AAA?$AAT?$AAL?$AA?3?$AA?$CF?$AAp@ 1002138c     VoiceRecognition.obj
 0002:0000139c       __GUID_b196b284_bab4_101a_b69c_00aa00341d07 1002139c     VoiceRecognition.obj
 0002:000013ac       ??_C@_1BA@PICGEGJB@?$AAD?$AAI?$AAS?$AAP?$AAL?$AAA?$AAY@ 100213ac     VoiceRecognition.obj
 0002:000013bc       __GUID_9bfbbc02_eff1_101a_84ed_00aa00341d07 100213bc     VoiceRecognition.obj
 0002:000013cc       ?_entries@?1??_GetEntries@?$CComEnum@UIEnumConnectionPoints@@$1?_GUID_b196b285_bab4_101a_b69c_00aa00341d07@@3U__s_GUID@@BPAUIConnectionPoint@@V?$_CopyInterface@UIConnectionPoint@@@ATL@@VCComSingleThreadModel@6@@ATL@@SGPBU_ATL_INTMAP_ENTRY@3@XZ@4QBU43@B 100213cc     VoiceRecognition.obj
 0002:000013e4       ??_C@_0BG@EKFFMJIO@RegOpenKeyTransactedW@ 100213e4     VoiceRecognition.obj
 0002:000013fc       ??_C@_0BI@HAKLOOGP@RegDeleteKeyTransactedW@ 100213fc     VoiceRecognition.obj
 0002:00001414       ??_C@_0BA@LILAPHGE@RegDeleteKeyExW@ 10021414     VoiceRecognition.obj
 0002:00001424       ??_C@_19ILOCMLCJ@?$AA?4?$AAt?$AAl?$AAb@ 10021424     VoiceRecognition.obj
 0002:00001430       __GUID_0002e012_0000_0000_c000_000000000046 10021430     VoiceRecognition.obj
 0002:00001440       ??_C@_1O@FHBGLCIO@?$AAC?$AAL?$AAS?$AAI?$AAD?$AA?2@ 10021440     VoiceRecognition.obj
 0002:00001450       ??_C@_1CK@IFBKBFAA@?$AA?2?$AAR?$AAe?$AAq?$AAu?$AAi?$AAr?$AAe?$AAd?$AA?5?$AAC?$AAa?$AAt?$AAe?$AAg@ 10021450     VoiceRecognition.obj
 0002:0000147c       ??_C@_1DA@BIHALFED@?$AA?2?$AAI?$AAm?$AAp?$AAl?$AAe?$AAm?$AAe?$AAn?$AAt?$AAe?$AAd?$AA?5?$AAC?$AAa@ 1002147c     VoiceRecognition.obj
 0002:000014ac       ??_C@_1BK@EDKOLFBJ@?$AAO?$AAL?$AAE?$AAA?$AAU?$AAT?$AA3?$AA2?$AA?4?$AAD?$AAL?$AAL@ 100214ac     VoiceRecognition.obj
 0002:000014c8       ??_C@_0BJ@CNLFOMHB@UnRegisterTypeLibForUser@ 100214c8     VoiceRecognition.obj
 0002:000014e4       ??_C@_0BH@LBOMMKPJ@RegisterTypeLibForUser@ 100214e4     VoiceRecognition.obj
 0002:000014fc       ??_C@_0P@MMNMMLGK@COFreezeEvents@ 100214fc     VoiceRecognitionImpl.obj
 0002:0000150c       ??_C@_0BC@OGCGGIMP@GetPropertyNumber@ 1002150c     VoiceRecognitionImpl.obj
 0002:00001520       ??_C@_0BC@MDCNODNB@SetPropertyNumber@ 10021520     VoiceRecognitionImpl.obj
 0002:00001534       ??_C@_0BC@CFCCMIMD@GetPropertyString@ 10021534     VoiceRecognitionImpl.obj
 0002:00001548       ??_C@_0BC@CJEDNN@SetPropertyString@ 10021548     VoiceRecognitionImpl.obj
 0002:0000155c       ??_C@_0M@LNPKKKDA@OpenService@ 1002155c     VoiceRecognitionImpl.obj
 0002:00001568       ??_C@_0M@PCMCHHMH@CheckHealth@ 10021568     VoiceRecognitionImpl.obj
 0002:00001574       ??_C@_0M@JGMIDNEK@ClaimDevice@ 10021574     VoiceRecognitionImpl.obj
 0002:00001580       ??_C@_0L@BNEIFEJC@ClearInput@ 10021580     VoiceRecognitionImpl.obj
 0002:0000158c       ??_C@_0N@DDFIIBMP@CloseService@ 1002158c     VoiceRecognitionImpl.obj
 0002:0000159c       ??_C@_08EEIHICPC@DirectIO@ 1002159c     VoiceRecognitionImpl.obj
 0002:000015a8       ??_C@_0O@BCPMENMJ@ReleaseDevice@ 100215a8     VoiceRecognitionImpl.obj
 0002:000015b8       ??_C@_0BA@GFABKEEE@ResetStatistics@ 100215b8     VoiceRecognitionImpl.obj
 0002:000015c8       ??_C@_0BD@DPALHJGC@RetrieveStatistics@ 100215c8     VoiceRecognitionImpl.obj
 0002:000015dc       ??_C@_0BB@KOHIKNFC@UpdateStatistics@ 100215dc     VoiceRecognitionImpl.obj
 0002:000015f0       ??_C@_0BH@PBKBNMGB@CompareFirmwareVersion@ 100215f0     VoiceRecognitionImpl.obj
 0002:00001608       ??_C@_0P@FBPDPIPA@UpdateFirmware@ 10021608     VoiceRecognitionImpl.obj
 0002:00001618       ??_C@_0BF@CMAPCJGM@ClearInputProperties@ 10021618     VoiceRecognitionImpl.obj
 0002:00001630       ??_C@_0BB@BIBADGFE@StartHearingFree@ 10021630     VoiceRecognitionImpl.obj
 0002:00001644       ??_C@_0BF@LPLDKDIO@StartHearingSentence@ 10021644     VoiceRecognitionImpl.obj
 0002:0000165c       ??_C@_0BB@OHJBIDJA@StartHearingWord@ 1002165c     VoiceRecognitionImpl.obj
 0002:00001670       ??_C@_0BC@OPFBKICN@StartHearingYesNo@ 10021670     VoiceRecognitionImpl.obj
 0002:00001684       ??_C@_0M@BMOMHKLM@StopHearing@ 10021684     VoiceRecognitionImpl.obj
 0002:00001690       ??_7?$CProxy_IOPOSEvents@VCOPOSVoiceRecognition@@@@6B@ 10021690     VoiceRecognitionImpl.obj
 0002:000016b0       ??_C@_1BA@IFHENID@?$AA?$FL?$AAE?$AAr?$AAr?$AAo?$AAr?$AA?$FN@ 100216b0     VoiceRecognitionImpl.obj
 0002:000016c0       ??_C@_0DD@NKOLHJNC@SOFTWARE?2OLEforRetail?2ServiceOP@ 100216c0     VoiceRecognitionImpl.obj
 0002:000016f4       ??_C@_1M@IAIJHCCH@?$AAC?$AAl?$AAo?$AAs?$AAe@ 100216f4     VoiceRecognitionImpl.obj
 0002:00001700       ??_C@_1M@PCPKGJAH@?$AAC?$AAl?$AAa?$AAi?$AAm@ 10021700     VoiceRecognitionImpl.obj
 0002:0000170c       ??_C@_1BA@NDFKIOCP@?$AAR?$AAe?$AAl?$AAe?$AAa?$AAs?$AAe@ 1002170c     VoiceRecognitionImpl.obj
 0002:0000171c       ??_C@_0BB@CPKIMFJI@VoiceRecognition@ 1002171c     VoiceRecognitionImpl.obj
 0002:00001730       ??_C@_1BM@IJMNMBPK@?$AAG?$AAe?$AAt?$AAO?$AAp?$AAe?$AAn?$AAR?$AAe?$AAs?$AAu?$AAl?$AAt@ 10021730     VoiceRecognitionImpl.obj
 0002:0000174c       _IID_IDispatch             1002174c     uuid:oaidl_i.obj
 0002:0000175c       _IID_IPropertyNotifySink   1002175c     uuid:ocidl_i.obj
 0002:0000176c       _GUID_NULL                 1002176c     uuid:cguid_i.obj
 0002:0000177c       _CLSID_StdGlobalInterfaceTable 1002177c     uuid:cguid_i.obj
 0002:0000178c       _CLSID_StdComponentCategoriesMgr 1002178c     uuid:ieguids.obj
 0002:0000179c       _IID_IUnknown              1002179c     uuid:unknwn_i.obj
 0002:000017b0       ??_C@_1EC@JIJBPKFM@?$AAa?$AAp?$AAi?$AA?9?$AAm?$AAs?$AA?9?$AAw?$AAi?$AAn?$AA?9?$AAc?$AAo?$AAr?$AAe@ 100217b0     LIBCMT:thread_safe_statics.obj
 0002:000017f4       ??_C@_1BK@MGMFAEKH@?$AAk?$AAe?$AAr?$AAn?$AAe?$AAl?$AA3?$AA2?$AA?4?$AAd?$AAl?$AAl@ 100217f4     LIBCMT:thread_safe_statics.obj
 0002:00001810       ??_C@_0BJ@JEBJOJFJ@SleepConditionVariableCS@ 10021810     LIBCMT:thread_safe_statics.obj
 0002:0000182c       ??_C@_0BJ@PGPPEPCC@WakeAllConditionVariable@ 1002182c     LIBCMT:thread_safe_statics.obj
 0002:00001845       ?nothrow@std@@3Unothrow_t@1@B 10021845     LIBCMT:std_nothrow.obj
 0002:00001850       __pRawDllMain              10021850     LIBCMT:dll_dllmain.obj
 0002:00001850       __pDefaultRawDllMain       10021850     LIBCMT:dll_dllmain.obj
 0002:00001858       ??_7exception@std@@6B@     10021858     LIBCMT:throw_bad_alloc.obj
 0002:00001860       ??_C@_0BC@EOODALEL@Unknown?5exception@ 10021860     LIBCMT:throw_bad_alloc.obj
 0002:00001878       ??_7bad_alloc@std@@6B@     10021878     LIBCMT:throw_bad_alloc.obj
 0002:00001880       ??_C@_0P@GHFPNOJB@bad?5allocation@ 10021880     LIBCMT:throw_bad_alloc.obj
 0002:00001894       ??_7bad_array_new_length@std@@6B@ 10021894     LIBCMT:throw_bad_alloc.obj
 0002:0000189c       ??_C@_0BF@KINCDENJ@bad?5array?5new?5length@ 1002189c     LIBCMT:throw_bad_alloc.obj
 0002:000018b8       ??_7type_info@@6B@         100218b8     LIBCMT:std_type_info_static.obj
 0002:000018bc       _GUID_ATLVer110            100218bc     atls:atlbase.obj
 0002:000018d0       ??_C@_1IC@ONKHOIDK@?$AAE?$AAR?$AAR?$AAO?$AAR?$AA?5?$AA?3?$AA?5?$AAU?$AAn?$AAa?$AAb?$AAl?$AAe?$AA?5@ 100218d0     atls:atlbase.obj
 0002:00001954       ??_C@_0N@FJEPLCIH@atlthunk?4dll@ 10021954     atls:atlthunk.obj
 0002:00001964       ??_C@_0BG@GAKFHCBM@AtlThunk_AllocateData@ 10021964     atls:atlthunk.obj
 0002:0000197c       ??_C@_0BC@JKONFIAH@AtlThunk_InitData@ 1002197c     atls:atlthunk.obj
 0002:00001990       ??_C@_0BE@IAOEELAK@AtlThunk_DataToCode@ 10021990     atls:atlthunk.obj
 0002:000019a4       ??_C@_0BC@GBGKAIPI@AtlThunk_FreeData@ 100219a4     atls:atlthunk.obj
 0002:000019b8       __pDestructExceptionObject 100219b8     libvcruntime:ehhelpers.obj
 0002:000019c0       ??_7bad_exception@std@@6B@ 100219c0     libvcruntime:frame.obj
 0002:000019c8       ??_C@_0O@DPKOEFFH@bad?5exception@ 100219c8     libvcruntime:frame.obj
 0002:00001d60       ??_C@_08EHJDFFNH@__based?$CI@ 10021d60     libvcruntime:undname.obj
 0002:00001d6c       ??_C@_07KOLFKCDI@__cdecl@  10021d6c     libvcruntime:undname.obj
 0002:00001d74       ??_C@_08GHMPAG@__pascal@   10021d74     libvcruntime:undname.obj
 0002:00001d80       ??_C@_09IFJBGAPI@__stdcall@ 10021d80     libvcruntime:undname.obj
 0002:00001d8c       ??_C@_0L@NPHFGOKO@__thiscall@ 10021d8c     libvcruntime:undname.obj
 0002:00001d98       ??_C@_0L@JMKHOMEK@__fastcall@ 10021d98     libvcruntime:undname.obj
 0002:00001da4       ??_C@_0N@BCKKPABJ@__vectorcall@ 10021da4     libvcruntime:undname.obj
 0002:00001db4       ??_C@_09HIJEGCPM@__clrcall@ 10021db4     libvcruntime:undname.obj
 0002:00001dc0       ??_C@_06GHPCKEAG@__eabi@   10021dc0     libvcruntime:undname.obj
 0002:00001dc8       ??_C@_09IOPIDJLG@__swift_1@ 10021dc8     libvcruntime:undname.obj
 0002:00001dd4       ??_C@_09KFNFGKHF@__swift_2@ 10021dd4     libvcruntime:undname.obj
 0002:00001de0       ??_C@_09LMMOFLDE@__swift_3@ 10021de0     libvcruntime:undname.obj
 0002:00001dec       ??_C@_07JOMMBBKO@__ptr64@  10021dec     libvcruntime:undname.obj
 0002:00001df4       ??_C@_0L@PILCLIHE@__restrict@ 10021df4     libvcruntime:undname.obj
 0002:00001e00       ??_C@_0M@GFIIJFMG@__unaligned@ 10021e00     libvcruntime:undname.obj
 0002:00001e0c       ??_C@_09DHDLOLLB@restrict?$CI@ 10021e0c     libvcruntime:undname.obj
 0002:00001e16       ??_C@_00CNPNBAHC@@         10021e16     libvcruntime:undname.obj
 0002:00001e18       ??_C@_04NIHEBCM@?5new@     10021e18     libvcruntime:undname.obj
 0002:00001e20       ??_C@_07FPCDHGMM@?5delete@ 10021e20     libvcruntime:undname.obj
 0002:00001e28       ??_C@_01NEMOKFLO@?$DN@     10021e28     libvcruntime:undname.obj
 0002:00001e2c       ??_C@_02GPIOPFAK@?$DO?$DO@ 10021e2c     libvcruntime:undname.obj
 0002:00001e30       ??_C@_02FODMEDOG@?$DM?$DM@ 10021e30     libvcruntime:undname.obj
 0002:00001e34       ??_C@_01DCLJPIOD@?$CB@     10021e34     libvcruntime:undname.obj
 0002:00001e38       ??_C@_02EGOFBIJA@?$DN?$DN@ 10021e38     libvcruntime:undname.obj
 0002:00001e3c       ??_C@_02FDNJECIE@?$CB?$DN@ 10021e3c     libvcruntime:undname.obj
 0002:00001e40       ??_C@_02GPECMEKF@?$FL?$FN@ 10021e40     libvcruntime:undname.obj
 0002:00001e44       ??_C@_08LHJFAFGD@operator@ 10021e44     libvcruntime:undname.obj
 0002:00001e50       ??_C@_02HBOOOICD@?9?$DO@   10021e50     libvcruntime:undname.obj
 0002:00001e54       ??_C@_01NBENCBCI@?$CK@     10021e54     libvcruntime:undname.obj
 0002:00001e58       ??_C@_02ECNGHCIF@?$CL?$CL@ 10021e58     libvcruntime:undname.obj
 0002:00001e5c       ??_C@_02BAABKJLB@?9?9@     10021e5c     libvcruntime:undname.obj
 0002:00001e60       ??_C@_01JOAMLHOP@?9@       10021e60     libvcruntime:undname.obj
 0002:00001e64       ??_C@_01MIFGBAGJ@?$CL@     10021e64     libvcruntime:undname.obj
 0002:00001e68       ??_C@_01HNPIGOCE@?$CG@     10021e68     libvcruntime:undname.obj
 0002:00001e6c       ??_C@_03MNHNFDLC@?9?$DO?$CK@ 10021e6c     libvcruntime:undname.obj
 0002:00001e70       ??_C@_01KMDKNFGN@?1@       10021e70     libvcruntime:undname.obj
 0002:00001e74       ??_C@_01FGNFDNOH@?$CF@     10021e74     libvcruntime:undname.obj
 0002:00001e78       ??_C@_01MNNFJEPP@?$DM@     10021e78     libvcruntime:undname.obj
 0002:00001e7c       ??_C@_02EHCHHCKH@?$DM?$DN@ 10021e7c     libvcruntime:undname.obj
 0002:00001e80       ??_C@_01PPODPGHN@?$DO@     10021e80     libvcruntime:undname.obj
 0002:00001e84       ??_C@_02EEKDKGMJ@?$DO?$DN@ 10021e84     libvcruntime:undname.obj
 0002:00001e88       ??_C@_01IHBHIGKO@?0@       10021e88     libvcruntime:undname.obj
 0002:00001e8c       ??_C@_02HCKGKOFO@?$CI?$CJ@ 10021e8c     libvcruntime:undname.obj
 0002:00001e90       ??_C@_01PJKLJHI@?$HO@      10021e90     libvcruntime:undname.obj
 0002:00001e94       ??_C@_01JKBOJNNK@?$FO@     10021e94     libvcruntime:undname.obj
 0002:00001e98       ??_C@_01DNKMNLPK@?$HM@     10021e98     libvcruntime:undname.obj
 0002:00001e9c       ??_C@_02PPKAJPJL@?$CG?$CG@ 10021e9c     libvcruntime:undname.obj
 0002:00001ea0       ??_C@_02NONPIBCD@?$HM?$HM@ 10021ea0     libvcruntime:undname.obj
 0002:00001ea4       ??_C@_02FPIMKNGF@?$CK?$DN@ 10021ea4     libvcruntime:undname.obj
 0002:00001ea8       ??_C@_02FOEOMHFC@?$CL?$DN@ 10021ea8     libvcruntime:undname.obj
 0002:00001eac       ??_C@_02FKMDLLOA@?9?$DN@   10021eac     libvcruntime:undname.obj
 0002:00001eb0       ??_C@_02FJEHGPIO@?1?$DN@   10021eb0     libvcruntime:undname.obj
 0002:00001eb4       ??_C@_02FENAOKFI@?$CF?$DN@ 10021eb4     libvcruntime:undname.obj
 0002:00001eb8       ??_C@_03IKFCCPFF@?$DO?$DO?$DN@ 10021eb8     libvcruntime:undname.obj
 0002:00001ebc       ??_C@_03CDNPDDLA@?$DM?$DM?$DN@ 10021ebc     libvcruntime:undname.obj
 0002:00001ec0       ??_C@_02FGJGFEAB@?$CG?$DN@ 10021ec0     libvcruntime:undname.obj
 0002:00001ec4       ??_C@_02DHLNPPGH@?$HM?$DN@ 10021ec4     libvcruntime:undname.obj
 0002:00001ec8       ??_C@_02MHEGNOJ@?$FO?$DN@  10021ec8     libvcruntime:undname.obj
 0002:00001ecc       ??_C@_09IFPLHPGF@?$GAvftable?8@ 10021ecc     libvcruntime:undname.obj
 0002:00001ed8       ??_C@_09BLBHBJP@?$GAvbtable?8@ 10021ed8     libvcruntime:undname.obj
 0002:00001ee4       ??_C@_07FEEIOKP@?$GAvcall?8@ 10021ee4     libvcruntime:undname.obj
 0002:00001eec       ??_C@_08LLFFHHDJ@?$GAtypeof?8@ 10021eec     libvcruntime:undname.obj
 0002:00001ef8       ??_C@_0BF@KDPPACIK@?$GAlocal?5static?5guard?8@ 10021ef8     libvcruntime:undname.obj
 0002:00001f10       ??_C@_08OBABFOLI@?$GAstring?8@ 10021f10     libvcruntime:undname.obj
 0002:00001f1c       ??_C@_0BD@JDLKDPAB@?$GAvbase?5destructor?8@ 10021f1c     libvcruntime:undname.obj
 0002:00001f30       ??_C@_0BN@DEGPLNFK@?$GAvector?5deleting?5destructor?8@ 10021f30     libvcruntime:undname.obj
 0002:00001f50       ??_C@_0BO@OBMKPJIG@?$GAdefault?5constructor?5closure?8@ 10021f50     libvcruntime:undname.obj
 0002:00001f70       ??_C@_0BN@IMDCHIKM@?$GAscalar?5deleting?5destructor?8@ 10021f70     libvcruntime:undname.obj
 0002:00001f90       ??_C@_0BO@PFGOCPJJ@?$GAvector?5constructor?5iterator?8@ 10021f90     libvcruntime:undname.obj
 0002:00001fb0       ??_C@_0BN@LFPFMEDL@?$GAvector?5destructor?5iterator?8@ 10021fb0     libvcruntime:undname.obj
 0002:00001fd0       ??_C@_0CE@IKBNEHA@?$GAvector?5vbase?5constructor?5itera@ 10021fd0     libvcruntime:undname.obj
 0002:00001ff4       ??_C@_0BL@NILFHHPC@?$GAvirtual?5displacement?5map?8@ 10021ff4     libvcruntime:undname.obj
 0002:00002010       ??_C@_0CB@JONCMFFK@?$GAeh?5vector?5constructor?5iterator@ 10022010     libvcruntime:undname.obj
 0002:00002034       ??_C@_0CA@GCEOPDGL@?$GAeh?5vector?5destructor?5iterator?8@ 10022034     libvcruntime:undname.obj
 0002:00002054       ??_C@_0CH@OOJPLCPH@?$GAeh?5vector?5vbase?5constructor?5it@ 10022054     libvcruntime:undname.obj
 0002:0000207c       ??_C@_0BL@LLKPOHJI@?$GAcopy?5constructor?5closure?8@ 1002207c     libvcruntime:undname.obj
 0002:00002098       ??_C@_0BA@KBCDOMBN@?$GAudt?5returning?8@ 10022098     libvcruntime:undname.obj
 0002:000020a8       ??_C@_03KLGMFNMG@?$GAEH@   100220a8     libvcruntime:undname.obj
 0002:000020ac       ??_C@_05KHLCHHI@?$GARTTI@  100220ac     libvcruntime:undname.obj
 0002:000020b4       ??_C@_0BA@KKLDJDLB@?$GAlocal?5vftable?8@ 100220b4     libvcruntime:undname.obj
 0002:000020c4       ??_C@_0CE@IIHCMGGL@?$GAlocal?5vftable?5constructor?5clos@ 100220c4     libvcruntime:undname.obj
 0002:000020e8       ??_C@_06FHBGPFGH@?5new?$FL?$FN@ 100220e8     libvcruntime:undname.obj
 0002:000020f0       ??_C@_09LBNFPBCA@?5delete?$FL?$FN@ 100220f0     libvcruntime:undname.obj
 0002:000020fc       ??_C@_0P@HJKNJFNN@?$GAomni?5callsig?8@ 100220fc     libvcruntime:undname.obj
 0002:0000210c       ??_C@_0BL@CNOONJFP@?$GAplacement?5delete?5closure?8@ 1002210c     libvcruntime:undname.obj
 0002:00002128       ??_C@_0BN@CKNJLHMB@?$GAplacement?5delete?$FL?$FN?5closure?8@ 10022128     libvcruntime:undname.obj
 0002:00002148       ??_C@_0CG@CFDHKGGD@?$GAmanaged?5vector?5constructor?5ite@ 10022148     libvcruntime:undname.obj
 0002:00002170       ??_C@_0CF@IMGKMJNO@?$GAmanaged?5vector?5destructor?5iter@ 10022170     libvcruntime:undname.obj
 0002:00002198       ??_C@_0CG@HLDDJMAG@?$GAeh?5vector?5copy?5constructor?5ite@ 10022198     libvcruntime:undname.obj
 0002:000021c0       ??_C@_0CM@FCBBDIGB@?$GAeh?5vector?5vbase?5copy?5construct@ 100221c0     libvcruntime:undname.obj
 0002:000021ec       ??_C@_0BL@CLIPGLGB@?$GAdynamic?5initializer?5for?5?8@ 100221ec     libvcruntime:undname.obj
 0002:00002208       ??_C@_0CB@PDBIFEP@?$GAdynamic?5atexit?5destructor?5for?5@ 10022208     libvcruntime:undname.obj
 0002:0000222c       ??_C@_0CD@CGAJBKEJ@?$GAvector?5copy?5constructor?5iterat@ 1002222c     libvcruntime:undname.obj
 0002:00002250       ??_C@_0CJ@GJELGAMM@?$GAvector?5vbase?5copy?5constructor?5@ 10022250     libvcruntime:undname.obj
 0002:0000227c       ??_C@_0CL@FGIJHLCE@?$GAmanaged?5vector?5copy?5constructo@ 1002227c     libvcruntime:undname.obj
 0002:000022a8       ??_C@_0BM@PMGGMLDN@?$GAlocal?5static?5thread?5guard?8@ 100222a8     libvcruntime:undname.obj
 0002:000022c4       ??_C@_0N@BDNMDMOL@operator?5?$CC?$CC?5@ 100222c4     libvcruntime:undname.obj
 0002:000022d4       ??_C@_0BC@GGEBGALA@operator?5co_await@ 100222d4     libvcruntime:undname.obj
 0002:000022e8       ??_C@_0M@GAAIMMOH@operator?$DM?$DN?$DO@ 100222e8     libvcruntime:undname.obj
 0002:000022f4       ??_C@_0BC@DAFEJGAK@?5Type?5Descriptor?8@ 100222f4     libvcruntime:undname.obj
 0002:00002308       ??_C@_0BM@LDKODKLH@?5Base?5Class?5Descriptor?5at?5?$CI@ 10022308     libvcruntime:undname.obj
 0002:00002324       ??_C@_0BD@LGICGFMM@?5Base?5Class?5Array?8@ 10022324     libvcruntime:undname.obj
 0002:00002338       ??_C@_0BN@MECKDCOJ@?5Class?5Hierarchy?5Descriptor?8@ 10022338     libvcruntime:undname.obj
 0002:00002358       ??_C@_0BK@CFCOFLF@?5Complete?5Object?5Locator?8@ 10022358     libvcruntime:undname.obj
 0002:00002374       ??_C@_0BG@JNJLAMPM@?$GAanonymous?5namespace?8@ 10022374     libvcruntime:undname.obj
 0002:00002398       ??_C@_1DM@KHCHBNEB@?$AAa?$AAp?$AAi?$AA?9?$AAm?$AAs?$AA?9?$AAw?$AAi?$AAn?$AA?9?$AAc?$AAo?$AAr?$AAe@ 10022398     libvcruntime:winapi_downlevel.obj
 0002:000023d4       ??_C@_1DK@LPPGFMPP@?$AAa?$AAp?$AAi?$AA?9?$AAm?$AAs?$AA?9?$AAw?$AAi?$AAn?$AA?9?$AAc?$AAo?$AAr?$AAe@ 100223d4     libvcruntime:winapi_downlevel.obj
 0002:00002410       ??_C@_1BC@GDMECMAK@?$AAk?$AAe?$AAr?$AAn?$AAe?$AAl?$AA3?$AA2@ 10022410     libvcruntime:winapi_downlevel.obj
 0002:00002424       ??_C@_1BA@PFFKHIOG@?$AAa?$AAp?$AAi?$AA?9?$AAm?$AAs?$AA?9@ 10022424     libvcruntime:winapi_downlevel.obj
 0002:0000243c       ??_C@_08KNHFBNJ@FlsAlloc@  1002243c     libvcruntime:winapi_downlevel.obj
 0002:00002450       ??_C@_07PEJMOBNF@FlsFree@  10022450     libvcruntime:winapi_downlevel.obj
 0002:00002460       ??_C@_0M@GDNOONDI@FlsGetValue@ 10022460     libvcruntime:winapi_downlevel.obj
 0002:00002474       ??_C@_0M@JCPCPOEF@FlsSetValue@ 10022474     libvcruntime:winapi_downlevel.obj
 0002:00002488       ??_C@_0BM@HCFOFFN@InitializeCriticalSectionEx@ 10022488     libvcruntime:winapi_downlevel.obj
 0002:00002610       ?format_validation_lookup_table_spectre@__crt_stdio_output@@3V?$spectre_mitigated_lookup_table@Ustate_transition_pair@__crt_stdio_output@@$0IA@@1@B 10022610     libucrt:output.obj
 0002:00002710       ??_C@_1O@CEDCILHN@?$AA?$CI?$AAn?$AAu?$AAl?$AAl?$AA?$CJ@ 10022710     libucrt:output.obj
 0002:00002720       ??_C@_06OJHGLDPL@?$CInull?$CJ@ 10022720     libucrt:output.obj
 0002:00002728       ___acrt_exception_action_table 10022728     libucrt:exception_filter.obj
 0002:000027b8       ___acrt_signal_action_table_count 100227b8     libucrt:exception_filter.obj
 0002:000027bc       ___acrt_signal_action_first_fpe_index 100227bc     libucrt:exception_filter.obj
 0002:000027c0       ___acrt_signal_action_fpe_count 100227c0     libucrt:exception_filter.obj
 0002:000027c4       ??_C@_1BI@BGOHAHKC@?$AAm?$AAs?$AAc?$AAo?$AAr?$AAe?$AAe?$AA?4?$AAd?$AAl?$AAl@ 100227c4     libucrt:exit.obj
 0002:000027dc       ??_C@_0P@MIGLKIOC@CorExitProcess@ 100227dc     libucrt:exit.obj
 0002:00002870       ___lc_time_c               10022870     libucrt:nlsdata.obj
 0002:000029d4       ??_C@_03KOEHGMDN@Sun@      100229d4     libucrt:nlsdata.obj
 0002:000029d8       ??_C@_03PDAGKDH@Mon@       100229d8     libucrt:nlsdata.obj
 0002:000029dc       ??_C@_03NAGEINEP@Tue@      100229dc     libucrt:nlsdata.obj
 0002:000029e0       ??_C@_03MHOMLAJA@Wed@      100229e0     libucrt:nlsdata.obj
 0002:000029e4       ??_C@_03IOFIKPDN@Thu@      100229e4     libucrt:nlsdata.obj
 0002:000029e8       ??_C@_03IDIOELNC@Fri@      100229e8     libucrt:nlsdata.obj
 0002:000029ec       ??_C@_03FEFJNEK@Sat@       100229ec     libucrt:nlsdata.obj
 0002:000029f0       ??_C@_06OOPIFAJ@Sunday@    100229f0     libucrt:nlsdata.obj
 0002:000029f8       ??_C@_06JLEDEDGH@Monday@   100229f8     libucrt:nlsdata.obj
 0002:00002a00       ??_C@_07BAAGCFCM@Tuesday@  10022a00     libucrt:nlsdata.obj
 0002:00002a08       ??_C@_09DLIGFAKA@Wednesday@ 10022a08     libucrt:nlsdata.obj
 0002:00002a14       ??_C@_08HACCIKIA@Thursday@ 10022a14     libucrt:nlsdata.obj
 0002:00002a20       ??_C@_06JECMNKMI@Friday@   10022a20     libucrt:nlsdata.obj
 0002:00002a28       ??_C@_08INBOOONO@Saturday@ 10022a28     libucrt:nlsdata.obj
 0002:00002a34       ??_C@_03JIHJHPIE@Jan@      10022a34     libucrt:nlsdata.obj
 0002:00002a38       ??_C@_03HJBDCHOM@Feb@      10022a38     libucrt:nlsdata.obj
 0002:00002a3c       ??_C@_03ODNJBKGA@Mar@      10022a3c     libucrt:nlsdata.obj
 0002:00002a40       ??_C@_03LEOLGMJP@Apr@      10022a40     libucrt:nlsdata.obj
 0002:00002a44       ??_C@_03CNMDKL@May@        10022a44     libucrt:nlsdata.obj
 0002:00002a48       ??_C@_03IDFGHECI@Jun@      10022a48     libucrt:nlsdata.obj
 0002:00002a4c       ??_C@_03LBGABGKK@Jul@      10022a4c     libucrt:nlsdata.obj
 0002:00002a50       ??_C@_03IFJFEIGA@Aug@      10022a50     libucrt:nlsdata.obj
 0002:00002a54       ??_C@_03GGCAPAJC@Sep@      10022a54     libucrt:nlsdata.obj
 0002:00002a58       ??_C@_03BMAOKBAD@Oct@      10022a58     libucrt:nlsdata.obj
 0002:00002a5c       ??_C@_03JPJOFNIA@Nov@      10022a5c     libucrt:nlsdata.obj
 0002:00002a60       ??_C@_03MKABNOCG@Dec@      10022a60     libucrt:nlsdata.obj
 0002:00002a64       ??_C@_07CGJPFGJA@January@  10022a64     libucrt:nlsdata.obj
 0002:00002a6c       ??_C@_08GNJGEPFN@February@ 10022a6c     libucrt:nlsdata.obj
 0002:00002a78       ??_C@_05HPCKOFNC@March@    10022a78     libucrt:nlsdata.obj
 0002:00002a80       ??_C@_05DMJDNLEJ@April@    10022a80     libucrt:nlsdata.obj
 0002:00002a88       ??_C@_04CNLMGBGM@June@     10022a88     libucrt:nlsdata.obj
 0002:00002a90       ??_C@_04MIEPOIFP@July@     10022a90     libucrt:nlsdata.obj
 0002:00002a98       ??_C@_06LBBHFDDG@August@   10022a98     libucrt:nlsdata.obj
 0002:00002aa0       ??_C@_09BHHEALKD@September@ 10022aa0     libucrt:nlsdata.obj
 0002:00002aac       ??_C@_07JJNFCEND@October@  10022aac     libucrt:nlsdata.obj
 0002:00002ab4       ??_C@_08HCHEGEOA@November@ 10022ab4     libucrt:nlsdata.obj
 0002:00002ac0       ??_C@_08EDHMEBNP@December@ 10022ac0     libucrt:nlsdata.obj
 0002:00002acc       ??_C@_02DEDBPAFC@AM@       10022acc     libucrt:nlsdata.obj
 0002:00002ad0       ??_C@_02CJNFDJBF@PM@       10022ad0     libucrt:nlsdata.obj
 0002:00002ad4       ??_C@_08BPBNCDIB@MM?1dd?1yy@ 10022ad4     libucrt:nlsdata.obj
 0002:00002ae0       ??_C@_0BE@CKGJFCPC@dddd?0?5MMMM?5dd?0?5yyyy@ 10022ae0     libucrt:nlsdata.obj
 0002:00002af4       ??_C@_08JCCMCCIL@HH?3mm?3ss@ 10022af4     libucrt:nlsdata.obj
 0002:00002b00       ??_C@_17MBGCMIPB@?$AAS?$AAu?$AAn@ 10022b00     libucrt:nlsdata.obj
 0002:00002b08       ??_C@_17KBOMKBF@?$AAM?$AAo?$AAn@ 10022b08     libucrt:nlsdata.obj
 0002:00002b10       ??_C@_17BMKGEGOJ@?$AAT?$AAu?$AAe@ 10022b10     libucrt:nlsdata.obj
 0002:00002b18       ??_C@_17CJEDCEPE@?$AAW?$AAe?$AAd@ 10022b18     libucrt:nlsdata.obj
 0002:00002b20       ??_C@_17PDPHAADD@?$AAT?$AAh?$AAu@ 10022b20     libucrt:nlsdata.obj
 0002:00002b28       ??_C@_17HFOLPPLP@?$AAF?$AAr?$AAi@ 10022b28     libucrt:nlsdata.obj
 0002:00002b30       ??_C@_17GGIBDPIH@?$AAS?$AAa?$AAt@ 10022b30     libucrt:nlsdata.obj
 0002:00002b38       ??_C@_1O@IHNHDHPB@?$AAS?$AAu?$AAn?$AAd?$AAa?$AAy@ 10022b38     libucrt:nlsdata.obj
 0002:00002b48       ??_C@_1O@MMNBFLIA@?$AAM?$AAo?$AAn?$AAd?$AAa?$AAy@ 10022b48     libucrt:nlsdata.obj
 0002:00002b58       ??_C@_1BA@ENFBFFEK@?$AAT?$AAu?$AAe?$AAs?$AAd?$AAa?$AAy@ 10022b58     libucrt:nlsdata.obj
 0002:00002b68       ??_C@_1BE@EBOGMDOH@?$AAW?$AAe?$AAd?$AAn?$AAe?$AAs?$AAd?$AAa?$AAy@ 10022b68     libucrt:nlsdata.obj
 0002:00002b7c       ??_C@_1BC@HHMNLIHE@?$AAT?$AAh?$AAu?$AAr?$AAs?$AAd?$AAa?$AAy@ 10022b7c     libucrt:nlsdata.obj
 0002:00002b90       ??_C@_1O@PDICJHAG@?$AAF?$AAr?$AAi?$AAd?$AAa?$AAy@ 10022b90     libucrt:nlsdata.obj
 0002:00002ba0       ??_C@_1BC@ENMNNPAJ@?$AAS?$AAa?$AAt?$AAu?$AAr?$AAd?$AAa?$AAy@ 10022ba0     libucrt:nlsdata.obj
 0002:00002bb4       ??_C@_17DKNBKCHM@?$AAJ?$AAa?$AAn@ 10022bb4     libucrt:nlsdata.obj
 0002:00002bbc       ??_C@_17LMDJEKJN@?$AAF?$AAe?$AAb@ 10022bbc     libucrt:nlsdata.obj
 0002:00002bc4       ??_C@_17CKNLEDEC@?$AAM?$AAa?$AAr@ 10022bc4     libucrt:nlsdata.obj
 0002:00002bcc       ??_C@_17LFPOIHDD@?$AAA?$AAp?$AAr@ 10022bcc     libucrt:nlsdata.obj
 0002:00002bd4       ??_C@_17PNNKMEED@?$AAM?$AAa?$AAy@ 10022bd4     libucrt:nlsdata.obj
 0002:00002bdc       ??_C@_17KCJGOCPB@?$AAJ?$AAu?$AAn@ 10022bdc     libucrt:nlsdata.obj
 0002:00002be4       ??_C@_17IJPCKHK@?$AAJ?$AAu?$AAl@ 10022be4     libucrt:nlsdata.obj
 0002:00002bec       ??_C@_17ICPELBCN@?$AAA?$AAu?$AAg@ 10022bec     libucrt:nlsdata.obj
 0002:00002bf4       ??_C@_17HCHCOKMG@?$AAS?$AAe?$AAp@ 10022bf4     libucrt:nlsdata.obj
 0002:00002bfc       ??_C@_17FNLKOI@?$AAO?$AAc?$AAt@ 10022bfc     libucrt:nlsdata.obj
 0002:00002c04       ??_C@_17BBDMLCIG@?$AAN?$AAo?$AAv@ 10022c04     libucrt:nlsdata.obj
 0002:00002c0c       ??_C@_17EGKACKIF@?$AAD?$AAe?$AAc@ 10022c0c     libucrt:nlsdata.obj
 0002:00002c14       ??_C@_1BA@EFMEIEBA@?$AAJ?$AAa?$AAn?$AAu?$AAa?$AAr?$AAy@ 10022c14     libucrt:nlsdata.obj
 0002:00002c24       ??_C@_1BC@JGDDFFAM@?$AAF?$AAe?$AAb?$AAr?$AAu?$AAa?$AAr?$AAy@ 10022c24     libucrt:nlsdata.obj
 0002:00002c38       ??_C@_1M@IKEENEDF@?$AAM?$AAa?$AAr?$AAc?$AAh@ 10022c38     libucrt:nlsdata.obj
 0002:00002c44       ??_C@_1M@GJNLMHFD@?$AAA?$AAp?$AAr?$AAi?$AAl@ 10022c44     libucrt:nlsdata.obj
 0002:00002c50       ??_C@_19EPFLPGAP@?$AAJ?$AAu?$AAn?$AAe@ 10022c50     libucrt:nlsdata.obj
 0002:00002c5c       ??_C@_19BIFMLPCD@?$AAJ?$AAu?$AAl?$AAy@ 10022c5c     libucrt:nlsdata.obj
 0002:00002c68       ??_C@_1O@PAHLKOAC@?$AAA?$AAu?$AAg?$AAu?$AAs?$AAt@ 10022c68     libucrt:nlsdata.obj
 0002:00002c78       ??_C@_1BE@DKAAMBJL@?$AAS?$AAe?$AAp?$AAt?$AAe?$AAm?$AAb?$AAe?$AAr@ 10022c78     libucrt:nlsdata.obj
 0002:00002c8c       ??_C@_1BA@EPANDLNG@?$AAO?$AAc?$AAt?$AAo?$AAb?$AAe?$AAr@ 10022c8c     libucrt:nlsdata.obj
 0002:00002c9c       ??_C@_1BC@BGLIFPF@?$AAN?$AAo?$AAv?$AAe?$AAm?$AAb?$AAe?$AAr@ 10022c9c     libucrt:nlsdata.obj
 0002:00002cb0       ??_C@_1BC@FEMKIFH@?$AAD?$AAe?$AAc?$AAe?$AAm?$AAb?$AAe?$AAr@ 10022cb0     libucrt:nlsdata.obj
 0002:00002cc4       ??_C@_15ODEHAHHF@?$AAA?$AAM@ 10022cc4     libucrt:nlsdata.obj
 0002:00002ccc       ??_C@_15CLMNNGEL@?$AAP?$AAM@ 10022ccc     libucrt:nlsdata.obj
 0002:00002cd4       ??_C@_1BC@IEBCMHCM@?$AAM?$AAM?$AA?1?$AAd?$AAd?$AA?1?$AAy?$AAy@ 10022cd4     libucrt:nlsdata.obj
 0002:00002ce8       ??_C@_1CI@KNAKOEBC@?$AAd?$AAd?$AAd?$AAd?$AA?0?$AA?5?$AAM?$AAM?$AAM?$AAM?$AA?5?$AAd?$AAd?$AA?0?$AA?5@ 10022ce8     libucrt:nlsdata.obj
 0002:00002d10       ??_C@_1BC@GDGBMEMK@?$AAH?$AAH?$AA?3?$AAm?$AAm?$AA?3?$AAs?$AAs@ 10022d10     libucrt:nlsdata.obj
 0002:00002d24       ??_C@_1M@BMHNFIME@?$AAe?$AAn?$AA?9?$AAU?$AAS@ 10022d24     libucrt:nlsdata.obj
 0002:00002d80       ??_C@_1EA@JGEFHKEI@?$AAa?$AAp?$AAi?$AA?9?$AAm?$AAs?$AA?9?$AAw?$AAi?$AAn?$AA?9?$AAc?$AAo?$AAr?$AAe@ 10022d80     libucrt:winapi_thunks.obj
 0002:00002dc0       ??_C@_1DI@IJCEHOCB@?$AAa?$AAp?$AAi?$AA?9?$AAm?$AAs?$AA?9?$AAw?$AAi?$AAn?$AA?9?$AAc?$AAo?$AAr?$AAe@ 10022dc0     libucrt:winapi_thunks.obj
 0002:00002df8       ??_C@_1EI@MPIAOHOC@?$AAa?$AAp?$AAi?$AA?9?$AAm?$AAs?$AA?9?$AAw?$AAi?$AAn?$AA?9?$AAc?$AAo?$AAr?$AAe@ 10022df8     libucrt:winapi_thunks.obj
 0002:00002e40       ??_C@_1FK@FPHCKFIE@?$AAa?$AAp?$AAi?$AA?9?$AAm?$AAs?$AA?9?$AAw?$AAi?$AAn?$AA?9?$AAc?$AAo?$AAr?$AAe@ 10022e40     libucrt:winapi_thunks.obj
 0002:00002ea0       ??_C@_1EM@DILCGIIO@?$AAa?$AAp?$AAi?$AA?9?$AAm?$AAs?$AA?9?$AAw?$AAi?$AAn?$AA?9?$AAc?$AAo?$AAr?$AAe@ 10022ea0     libucrt:winapi_thunks.obj
 0002:00002eec       ??_C@_1DM@LNCGDDPN@?$AAa?$AAp?$AAi?$AA?9?$AAm?$AAs?$AA?9?$AAw?$AAi?$AAn?$AA?9?$AAc?$AAo?$AAr?$AAe@ 10022eec     libucrt:winapi_thunks.obj
 0002:00002f28       ??_C@_1DO@FPAPJEMD@?$AAa?$AAp?$AAi?$AA?9?$AAm?$AAs?$AA?9?$AAw?$AAi?$AAn?$AA?9?$AAc?$AAo?$AAr?$AAe@ 10022f28     libucrt:winapi_thunks.obj
 0002:00002f68       ??_C@_1DK@NDHNAHIO@?$AAa?$AAp?$AAi?$AA?9?$AAm?$AAs?$AA?9?$AAw?$AAi?$AAn?$AA?9?$AAc?$AAo?$AAr?$AAe@ 10022f68     libucrt:winapi_thunks.obj
 0002:00002fa4       ??_C@_1DM@KGHDGBCM@?$AAa?$AAp?$AAi?$AA?9?$AAm?$AAs?$AA?9?$AAw?$AAi?$AAn?$AA?9?$AAc?$AAo?$AAr?$AAe@ 10022fa4     libucrt:winapi_thunks.obj
 0002:00002fe0       ??_C@_1EO@IJIOEFOH@?$AAa?$AAp?$AAi?$AA?9?$AAm?$AAs?$AA?9?$AAw?$AAi?$AAn?$AA?9?$AAr?$AAt?$AAc?$AAo@ 10022fe0     libucrt:winapi_thunks.obj
 0002:00003030       ??_C@_1FG@HHGEKANL@?$AAa?$AAp?$AAi?$AA?9?$AAm?$AAs?$AA?9?$AAw?$AAi?$AAn?$AA?9?$AAs?$AAe?$AAc?$AAu@ 10023030     libucrt:winapi_thunks.obj
 0002:00003088       ??_C@_1EG@DBIOJECG@?$AAe?$AAx?$AAt?$AA?9?$AAm?$AAs?$AA?9?$AAw?$AAi?$AAn?$AA?9?$AAn?$AAt?$AAu?$AAs@ 10023088     libucrt:winapi_thunks.obj
 0002:000030d0       ??_C@_1EO@FIHMJCLF@?$AAe?$AAx?$AAt?$AA?9?$AAm?$AAs?$AA?9?$AAw?$AAi?$AAn?$AA?9?$AAn?$AAt?$AAu?$AAs@ 100230d0     libucrt:winapi_thunks.obj
 0002:00003120       ??_C@_1BC@DNHGCMLG@?$AAa?$AAd?$AAv?$AAa?$AAp?$AAi?$AA3?$AA2@ 10023120     libucrt:winapi_thunks.obj
 0002:00003134       ??_C@_1M@OAIMIKLP@?$AAn?$AAt?$AAd?$AAl?$AAl@ 10023134     libucrt:winapi_thunks.obj
 0002:00003140       ??_C@_1EG@DPGNFKGC@?$AAa?$AAp?$AAi?$AA?9?$AAm?$AAs?$AA?9?$AAw?$AAi?$AAn?$AA?9?$AAa?$AAp?$AAp?$AAm@ 10023140     libucrt:winapi_thunks.obj
 0002:00003188       ??_C@_1O@BCCLBEOE@?$AAu?$AAs?$AAe?$AAr?$AA3?$AA2@ 10023188     libucrt:winapi_thunks.obj
 0002:00003198       ??_C@_1DM@BPJLHKCE@?$AAa?$AAp?$AAi?$AA?9?$AAm?$AAs?$AA?9?$AAw?$AAi?$AAn?$AA?9?$AAc?$AAo?$AAr?$AAe@ 10023198     libucrt:winapi_thunks.obj
 0002:000031d4       ??_C@_1BA@IAIFMGEF@?$AAe?$AAx?$AAt?$AA?9?$AAm?$AAs?$AA?9@ 100231d4     libucrt:winapi_thunks.obj
 0002:000031e8       ??_C@_0BA@FHFNEAED@AreFileApisANSI@ 100231e8     libucrt:winapi_thunks.obj
 0002:00003208       ??_C@_0O@KKBNKAPF@LCMapStringEx@ 10023208     libucrt:winapi_thunks.obj
 0002:00003220       ??_C@_0BB@HBDEELFH@LocaleNameToLCID@ 10023220     libucrt:winapi_thunks.obj
 0002:00003238       ??_C@_0CF@OJOFEIGO@AppPolicyGetProcessTerminationM@ 10023238     libucrt:winapi_thunks.obj
 0002:00003268       ??_C@_0BI@BKLFFAPO@SetThreadStackGuarantee@ 10023268     libucrt:winapi_thunks.obj
 0002:000032e0       ??_C@_03OEIAHPBN@INF@      100232e0     libucrt:cvt.obj
 0002:000032e4       ??_C@_03OJHLLCGB@inf@      100232e4     libucrt:cvt.obj
 0002:000032e8       ??_C@_03LKNCIKJB@NAN@      100232e8     libucrt:cvt.obj
 0002:000032ec       ??_C@_03LHCJEHON@nan@      100232ec     libucrt:cvt.obj
 0002:000032f0       ??_C@_09OFJJIMPC@NAN?$CISNAN?$CJ@ 100232f0     libucrt:cvt.obj
 0002:000032fc       ??_C@_09IPFBKMDL@nan?$CIsnan?$CJ@ 100232fc     libucrt:cvt.obj
 0002:00003308       ??_C@_08IKHNHAJ@NAN?$CIIND?$CJ@ 10023308     libucrt:cvt.obj
 0002:00003314       ??_C@_08OFCDMILK@nan?$CIind?$CJ@ 10023314     libucrt:cvt.obj
 0002:00003320       ??_C@_05KLBDPFGC@e?$CL000@ 10023320     libucrt:cvt.obj
 0002:00003338       ??_C@_1M@HPNHIDJI@?$AAj?$AAa?$AA?9?$AAJ?$AAP@ 10023338     libucrt:mbctype.obj
 0002:00003344       ??_C@_1M@BIBDDEMK@?$AAz?$AAh?$AA?9?$AAC?$AAN@ 10023344     libucrt:mbctype.obj
 0002:00003350       ??_C@_1M@JLOOOEGK@?$AAk?$AAo?$AA?9?$AAK?$AAR@ 10023350     libucrt:mbctype.obj
 0002:0000335c       ??_C@_1M@CLNBBOPM@?$AAz?$AAh?$AA?9?$AAT?$AAW@ 1002335c     libucrt:mbctype.obj
 0002:00003368       ___newctype                10023368     libucrt:ctype.obj
 0002:00003668       ___newclmap                10023668     libucrt:ctype.obj
 0002:000037e8       ___newcumap                100237e8     libucrt:ctype.obj
 0002:00003968       ??_C@_15PJPFLCCM@?$AAu?$AAk@ 10023968     libucrt:get_qualified_locale.obj
 0002:00004090       ??_C@_15EMKDOKLE@?$AAa?$AAr@ 10024090     libucrt:lcidtoname_downlevel.obj
 0002:00004098       ??_C@_15KNPADPLH@?$AAb?$AAg@ 10024098     libucrt:lcidtoname_downlevel.obj
 0002:000040a0       ??_C@_15EDMHLDMO@?$AAc?$AAa@ 100240a0     libucrt:lcidtoname_downlevel.obj
 0002:000040a8       ??_C@_1O@BPEAJADD@?$AAz?$AAh?$AA?9?$AAC?$AAH?$AAS@ 100240a8     libucrt:lcidtoname_downlevel.obj
 0002:000040b8       ??_C@_15LJNHCMNK@?$AAc?$AAs@ 100240b8     libucrt:lcidtoname_downlevel.obj
 0002:000040c0       ??_C@_15FOMCIDHG@?$AAd?$AAa@ 100240c0     libucrt:lcidtoname_downlevel.obj
 0002:000040c8       ??_C@_15NBKABECB@?$AAd?$AAe@ 100240c8     libucrt:lcidtoname_downlevel.obj
 0002:000040d0       ??_C@_15GHPEIIAO@?$AAe?$AAl@ 100240d0     libucrt:lcidtoname_downlevel.obj
 0002:000040d8       ??_C@_15MNPNEAIF@?$AAe?$AAn@ 100240d8     libucrt:lcidtoname_downlevel.obj
 0002:000040e0       ??_C@_15GPIOMPMH@?$AAe?$AAs@ 100240e0     libucrt:lcidtoname_downlevel.obj
 0002:000040e8       ??_C@_15NGLOAKJC@?$AAf?$AAi@ 100240e8     libucrt:lcidtoname_downlevel.obj
 0002:000040f0       ??_C@_15FBKGNKAM@?$AAf?$AAr@ 100240f0     libucrt:lcidtoname_downlevel.obj
 0002:000040f8       ??_C@_15KGGCNEFK@?$AAh?$AAe@ 100240f8     libucrt:lcidtoname_downlevel.obj
 0002:00004100       ??_C@_15PGHLIDMF@?$AAh?$AAu@ 10024100     libucrt:lcidtoname_downlevel.obj
 0002:00004108       ??_C@_15BIEMAPLM@?$AAi?$AAs@ 10024108     libucrt:lcidtoname_downlevel.obj
 0002:00004110       ??_C@_15IFJLDHAF@?$AAi?$AAt@ 10024110     libucrt:lcidtoname_downlevel.obj
 0002:00004118       ??_C@_15GEMIOCAG@?$AAj?$AAa@ 10024118     libucrt:lcidtoname_downlevel.obj
 0002:00004120       ??_C@_15EPELEGJA@?$AAk?$AAo@ 10024120     libucrt:lcidtoname_downlevel.obj
 0002:00004128       ??_C@_15NDDHIMN@?$AAn?$AAl@ 10024128     libucrt:lcidtoname_downlevel.obj
 0002:00004130       ??_C@_15BPIGNHCD@?$AAn?$AAo@ 10024130     libucrt:lcidtoname_downlevel.obj
 0002:00004138       ??_C@_15DEOPBLCG@?$AAp?$AAl@ 10024138     libucrt:lcidtoname_downlevel.obj
 0002:00004140       ??_C@_15KBECGEFG@?$AAp?$AAt@ 10024140     libucrt:lcidtoname_downlevel.obj
 0002:00004148       ??_C@_15GLJCBFMD@?$AAr?$AAo@ 10024148     libucrt:lcidtoname_downlevel.obj
 0002:00004150       ??_C@_15FEDGKCDI@?$AAr?$AAu@ 10024150     libucrt:lcidtoname_downlevel.obj
 0002:00004158       ??_C@_15GLKMLLHM@?$AAh?$AAr@ 10024158     libucrt:lcidtoname_downlevel.obj
 0002:00004160       ??_C@_15CPKMFBDB@?$AAs?$AAk@ 10024160     libucrt:lcidtoname_downlevel.obj
 0002:00004168       ??_C@_15BAAIOGMK@?$AAs?$AAq@ 10024168     libucrt:lcidtoname_downlevel.obj
 0002:00004170       ??_C@_15INNPNOHD@?$AAs?$AAv@ 10024170     libucrt:lcidtoname_downlevel.obj
 0002:00004178       ??_C@_15CABMMOGH@?$AAt?$AAh@ 10024178     libucrt:lcidtoname_downlevel.obj
 0002:00004180       ??_C@_15BPLIHJJM@?$AAt?$AAr@ 10024180     libucrt:lcidtoname_downlevel.obj
 0002:00004188       ??_C@_15NEOEKKDJ@?$AAu?$AAr@ 10024188     libucrt:lcidtoname_downlevel.obj
 0002:00004190       ??_C@_15NFICGAJK@?$AAi?$AAd@ 10024190     libucrt:lcidtoname_downlevel.obj
 0002:00004198       ??_C@_15HPJPHDM@?$AAb?$AAe@ 10024198     libucrt:lcidtoname_downlevel.obj
 0002:000041a0       ??_C@_15LCHLGJII@?$AAs?$AAl@ 100241a0     libucrt:lcidtoname_downlevel.obj
 0002:000041a8       ??_C@_15PCFJPHHO@?$AAe?$AAt@ 100241a8     libucrt:lcidtoname_downlevel.obj
 0002:000041b0       ??_C@_15HPFPGODN@?$AAl?$AAv@ 100241b0     libucrt:lcidtoname_downlevel.obj
 0002:000041b8       ??_C@_15NFFGKGLG@?$AAl?$AAt@ 100241b8     libucrt:lcidtoname_downlevel.obj
 0002:000041c0       ??_C@_15BDAKCCHN@?$AAf?$AAa@ 100241c0     libucrt:lcidtoname_downlevel.obj
 0002:000041c8       ??_C@_15NFGIAIAJ@?$AAv?$AAi@ 100241c8     libucrt:lcidtoname_downlevel.obj
 0002:000041d0       ??_C@_15LMKNDMHN@?$AAh?$AAy@ 100241d0     libucrt:lcidtoname_downlevel.obj
 0002:000041d8       ??_C@_15IJBHMCFL@?$AAa?$AAz@ 100241d8     libucrt:lcidtoname_downlevel.obj
 0002:000041e0       ??_C@_15EKOFJABL@?$AAe?$AAu@ 100241e0     libucrt:lcidtoname_downlevel.obj
 0002:000041e8       ??_C@_15BGHADCNK@?$AAm?$AAk@ 100241e8     libucrt:lcidtoname_downlevel.obj
 0002:000041f0       ??_C@_15JDNICKHM@?$AAa?$AAf@ 100241f0     libucrt:lcidtoname_downlevel.obj
 0002:000041f8       ??_C@_15KPJEDBKD@?$AAk?$AAa@ 100241f8     libucrt:lcidtoname_downlevel.obj
 0002:00004200       ??_C@_15PDNFFFEO@?$AAf?$AAo@ 10024200     libucrt:lcidtoname_downlevel.obj
 0002:00004208       ??_C@_15OMLEGLOC@?$AAh?$AAi@ 10024208     libucrt:lcidtoname_downlevel.obj
 0002:00004210       ??_C@_15IDNNENKK@?$AAm?$AAs@ 10024210     libucrt:lcidtoname_downlevel.obj
 0002:00004218       ??_C@_15MACJNBMH@?$AAk?$AAk@ 10024218     libucrt:lcidtoname_downlevel.obj
 0002:00004220       ??_C@_15DKDJEOND@?$AAk?$AAy@ 10024220     libucrt:lcidtoname_downlevel.obj
 0002:00004228       ??_C@_15DFGDLJBG@?$AAs?$AAw@ 10024228     libucrt:lcidtoname_downlevel.obj
 0002:00004230       ??_C@_15BBFAICNG@?$AAu?$AAz@ 10024230     libucrt:lcidtoname_downlevel.obj
 0002:00004238       ??_C@_15DKNDCGEA@?$AAt?$AAt@ 10024238     libucrt:lcidtoname_downlevel.obj
 0002:00004240       ??_C@_15MGIFMDPL@?$AAp?$AAa@ 10024240     libucrt:lcidtoname_downlevel.obj
 0002:00004248       ??_C@_15HCNDBBA@?$AAg?$AAu@ 10024248     libucrt:lcidtoname_downlevel.obj
 0002:00004250       ??_C@_15FNBEIBON@?$AAt?$AAa@ 10024250     libucrt:lcidtoname_downlevel.obj
 0002:00004258       ??_C@_15NCHGBGLK@?$AAt?$AAe@ 10024258     libucrt:lcidtoname_downlevel.obj
 0002:00004260       ??_C@_15PHPHCBPF@?$AAk?$AAn@ 10024260     libucrt:lcidtoname_downlevel.obj
 0002:00004268       ??_C@_15DLGBCKMP@?$AAm?$AAr@ 10024268     libucrt:lcidtoname_downlevel.obj
 0002:00004270       ??_C@_15EABBLBFF@?$AAs?$AAa@ 10024270     libucrt:lcidtoname_downlevel.obj
 0002:00004278       ??_C@_15CBKOMCOI@?$AAm?$AAn@ 10024278     libucrt:lcidtoname_downlevel.obj
 0002:00004280       ??_C@_15CKDMCJAF@?$AAg?$AAl@ 10024280     libucrt:lcidtoname_downlevel.obj
 0002:00004288       ??_C@_17CNJFBPG@?$AAk?$AAo?$AAk@ 10024288     libucrt:lcidtoname_downlevel.obj
 0002:00004290       ??_C@_17FFBJICPL@?$AAs?$AAy?$AAr@ 10024290     libucrt:lcidtoname_downlevel.obj
 0002:00004298       ??_C@_17KPNDCPAF@?$AAd?$AAi?$AAv@ 10024298     libucrt:lcidtoname_downlevel.obj
 0002:000042a0       ??_C@_1M@OKAHONE@?$AAa?$AAr?$AA?9?$AAS?$AAA@ 100242a0     libucrt:lcidtoname_downlevel.obj
 0002:000042ac       ??_C@_1M@FFFIGIGK@?$AAb?$AAg?$AA?9?$AAB?$AAG@ 100242ac     libucrt:lcidtoname_downlevel.obj
 0002:000042b8       ??_C@_1M@BJNKEDC@?$AAc?$AAa?$AA?9?$AAE?$AAS@ 100242b8     libucrt:lcidtoname_downlevel.obj
 0002:000042c4       ??_C@_1M@IJJHFJHA@?$AAc?$AAs?$AA?9?$AAC?$AAZ@ 100242c4     libucrt:lcidtoname_downlevel.obj
 0002:000042d0       ??_C@_1M@CLPEOBGI@?$AAd?$AAa?$AA?9?$AAD?$AAK@ 100242d0     libucrt:lcidtoname_downlevel.obj
 0002:000042dc       ??_C@_1M@MCMADGCB@?$AAd?$AAe?$AA?9?$AAD?$AAE@ 100242dc     libucrt:lcidtoname_downlevel.obj
 0002:000042e8       ??_C@_1M@OOCKEMAM@?$AAe?$AAl?$AA?9?$AAG?$AAR@ 100242e8     libucrt:lcidtoname_downlevel.obj
 0002:000042f4       ??_C@_1M@DDNJFGID@?$AAf?$AAi?$AA?9?$AAF?$AAI@ 100242f4     libucrt:lcidtoname_downlevel.obj
 0002:00004300       ??_C@_1M@GLIPPMAC@?$AAf?$AAr?$AA?9?$AAF?$AAR@ 10024300     libucrt:lcidtoname_downlevel.obj
 0002:0000430c       ??_C@_1M@GFMCHPE@?$AAh?$AAe?$AA?9?$AAI?$AAL@ 1002430c     libucrt:lcidtoname_downlevel.obj
 0002:00004318       ??_C@_1M@MHLPGNKM@?$AAh?$AAu?$AA?9?$AAH?$AAU@ 10024318     libucrt:lcidtoname_downlevel.obj
 0002:00004324       ??_C@_1M@LPDDNNPN@?$AAi?$AAs?$AA?9?$AAI?$AAS@ 10024324     libucrt:lcidtoname_downlevel.obj
 0002:00004330       ??_C@_1M@MADIPODN@?$AAi?$AAt?$AA?9?$AAI?$AAT@ 10024330     libucrt:lcidtoname_downlevel.obj
 0002:0000433c       ??_C@_1M@IHBJJGG@?$AAn?$AAl?$AA?9?$AAN?$AAL@ 1002433c     libucrt:lcidtoname_downlevel.obj
 0002:00004348       ??_C@_1M@EANAGDL@?$AAn?$AAb?$AA?9?$AAN?$AAO@ 10024348     libucrt:lcidtoname_downlevel.obj
 0002:00004354       ??_C@_1M@NEIEMEGP@?$AAp?$AAl?$AA?9?$AAP?$AAL@ 10024354     libucrt:lcidtoname_downlevel.obj
 0002:00004360       ??_C@_1M@BOCFIGEP@?$AAp?$AAt?$AA?9?$AAB?$AAR@ 10024360     libucrt:lcidtoname_downlevel.obj
 0002:0000436c       ??_C@_1M@IMPFOPBG@?$AAr?$AAo?$AA?9?$AAR?$AAO@ 1002436c     libucrt:lcidtoname_downlevel.obj
 0002:00004378       ??_C@_1M@IDNNEJMM@?$AAr?$AAu?$AA?9?$AAR?$AAU@ 10024378     libucrt:lcidtoname_downlevel.obj
 0002:00004384       ??_C@_1M@LILEEOGM@?$AAh?$AAr?$AA?9?$AAH?$AAR@ 10024384     libucrt:lcidtoname_downlevel.obj
 0002:00004390       ??_C@_1M@FKIFEHPB@?$AAs?$AAk?$AA?9?$AAS?$AAK@ 10024390     libucrt:lcidtoname_downlevel.obj
 0002:0000439c       ??_C@_1M@LJMAMNPJ@?$AAs?$AAq?$AA?9?$AAA?$AAL@ 1002439c     libucrt:lcidtoname_downlevel.obj
 0002:000043a8       ??_C@_1M@GIAKDKJK@?$AAs?$AAv?$AA?9?$AAS?$AAE@ 100243a8     libucrt:lcidtoname_downlevel.obj
 0002:000043b4       ??_C@_1M@MKJKIKCL@?$AAt?$AAh?$AA?9?$AAT?$AAH@ 100243b4     libucrt:lcidtoname_downlevel.obj
 0002:000043c0       ??_C@_1M@MFLCCMPB@?$AAt?$AAr?$AA?9?$AAT?$AAR@ 100243c0     libucrt:lcidtoname_downlevel.obj
 0002:000043cc       ??_C@_1M@OIJHDKJN@?$AAu?$AAr?$AA?9?$AAP?$AAK@ 100243cc     libucrt:lcidtoname_downlevel.obj
 0002:000043d8       ??_C@_1M@LHIPCIEK@?$AAi?$AAd?$AA?9?$AAI?$AAD@ 100243d8     libucrt:lcidtoname_downlevel.obj
 0002:000043e4       ??_C@_1M@MFMOBGI@?$AAu?$AAk?$AA?9?$AAU?$AAA@ 100243e4     libucrt:lcidtoname_downlevel.obj
 0002:000043f0       ??_C@_1M@OBGLJIPL@?$AAb?$AAe?$AA?9?$AAB?$AAY@ 100243f0     libucrt:lcidtoname_downlevel.obj
 0002:000043fc       ??_C@_1M@BCFAJEAD@?$AAs?$AAl?$AA?9?$AAS?$AAI@ 100243fc     libucrt:lcidtoname_downlevel.obj
 0002:00004408       ??_C@_1M@FKFFEDDN@?$AAe?$AAt?$AA?9?$AAE?$AAE@ 10024408     libucrt:lcidtoname_downlevel.obj
 0002:00004414       ??_C@_1M@KGKKAACI@?$AAl?$AAv?$AA?9?$AAL?$AAV@ 10024414     libucrt:lcidtoname_downlevel.obj
 0002:00004420       ??_C@_1M@IFGBIJO@?$AAl?$AAt?$AA?9?$AAL?$AAT@ 10024420     libucrt:lcidtoname_downlevel.obj
 0002:0000442c       ??_C@_1M@FGEAHEDM@?$AAf?$AAa?$AA?9?$AAI?$AAR@ 1002442c     libucrt:lcidtoname_downlevel.obj
 0002:00004438       ??_C@_1M@KBMAIBFN@?$AAv?$AAi?$AA?9?$AAV?$AAN@ 10024438     libucrt:lcidtoname_downlevel.obj
 0002:00004444       ??_C@_1M@GPCBKDJK@?$AAh?$AAy?$AA?9?$AAA?$AAM@ 10024444     libucrt:lcidtoname_downlevel.obj
 0002:00004450       ??_C@_1BG@BECMDDJB@?$AAa?$AAz?$AA?9?$AAA?$AAZ?$AA?9?$AAL?$AAa?$AAt?$AAn@ 10024450     libucrt:lcidtoname_downlevel.obj
 0002:00004468       ??_C@_1M@MAOFCAEA@?$AAe?$AAu?$AA?9?$AAE?$AAS@ 10024468     libucrt:lcidtoname_downlevel.obj
 0002:00004474       ??_C@_1M@IGHABKPI@?$AAm?$AAk?$AA?9?$AAM?$AAK@ 10024474     libucrt:lcidtoname_downlevel.obj
 0002:00004480       ??_C@_1M@IAIGNEJG@?$AAt?$AAn?$AA?9?$AAZ?$AAA@ 10024480     libucrt:lcidtoname_downlevel.obj
 0002:0000448c       ??_C@_1M@IIJCOJFA@?$AAx?$AAh?$AA?9?$AAZ?$AAA@ 1002448c     libucrt:lcidtoname_downlevel.obj
 0002:00004498       ??_C@_1M@LGPJHNJH@?$AAz?$AAu?$AA?9?$AAZ?$AAA@ 10024498     libucrt:lcidtoname_downlevel.obj
 0002:000044a4       ??_C@_1M@HOKAOIO@?$AAa?$AAf?$AA?9?$AAZ?$AAA@ 100244a4     libucrt:lcidtoname_downlevel.obj
 0002:000044b0       ??_C@_1M@DPCLHLIE@?$AAk?$AAa?$AA?9?$AAG?$AAE@ 100244b0     libucrt:lcidtoname_downlevel.obj
 0002:000044bc       ??_C@_1M@BLKMHJBI@?$AAf?$AAo?$AA?9?$AAF?$AAO@ 100244bc     libucrt:lcidtoname_downlevel.obj
 0002:000044c8       ??_C@_1M@LGGJAPPB@?$AAh?$AAi?$AA?9?$AAI?$AAN@ 100244c8     libucrt:lcidtoname_downlevel.obj
 0002:000044d4       ??_C@_1M@FIKPIHFE@?$AAm?$AAt?$AA?9?$AAM?$AAT@ 100244d4     libucrt:lcidtoname_downlevel.obj
 0002:000044e0       ??_C@_1M@HEGGPBFA@?$AAs?$AAe?$AA?9?$AAN?$AAO@ 100244e0     libucrt:lcidtoname_downlevel.obj
 0002:000044ec       ??_C@_1M@EIBJEEPA@?$AAm?$AAs?$AA?9?$AAM?$AAY@ 100244ec     libucrt:lcidtoname_downlevel.obj
 0002:000044f8       ??_C@_1M@FHLBGMPP@?$AAk?$AAk?$AA?9?$AAK?$AAZ@ 100244f8     libucrt:lcidtoname_downlevel.obj
 0002:00004504       ??_C@_1M@NGJJLCGI@?$AAk?$AAy?$AA?9?$AAK?$AAG@ 10024504     libucrt:lcidtoname_downlevel.obj
 0002:00004510       ??_C@_1M@GIENNBFC@?$AAs?$AAw?$AA?9?$AAK?$AAE@ 10024510     libucrt:lcidtoname_downlevel.obj
 0002:0000451c       ??_C@_1BG@NDGMJIMJ@?$AAu?$AAz?$AA?9?$AAU?$AAZ?$AA?9?$AAL?$AAa?$AAt?$AAn@ 1002451c     libucrt:lcidtoname_downlevel.obj
 0002:00004534       ??_C@_1M@IDCCIHBC@?$AAt?$AAt?$AA?9?$AAR?$AAU@ 10024534     libucrt:lcidtoname_downlevel.obj
 0002:00004540       ??_C@_1M@LOICPMOJ@?$AAb?$AAn?$AA?9?$AAI?$AAN@ 10024540     libucrt:lcidtoname_downlevel.obj
 0002:0000454c       ??_C@_1M@KPKKNEAH@?$AAp?$AAa?$AA?9?$AAI?$AAN@ 1002454c     libucrt:lcidtoname_downlevel.obj
 0002:00004558       ??_C@_1M@PJGPPBOG@?$AAg?$AAu?$AA?9?$AAI?$AAN@ 10024558     libucrt:lcidtoname_downlevel.obj
 0002:00004564       ??_C@_1M@KMKMOPHI@?$AAt?$AAa?$AA?9?$AAI?$AAN@ 10024564     libucrt:lcidtoname_downlevel.obj
 0002:00004570       ??_C@_1M@KFEHEPAC@?$AAt?$AAe?$AA?9?$AAI?$AAN@ 10024570     libucrt:lcidtoname_downlevel.obj
 0002:0000457c       ??_C@_1M@CDCLMGHI@?$AAk?$AAn?$AA?9?$AAI?$AAN@ 1002457c     libucrt:lcidtoname_downlevel.obj
 0002:00004588       ??_C@_1M@MIODLDKF@?$AAm?$AAl?$AA?9?$AAI?$AAN@ 10024588     libucrt:lcidtoname_downlevel.obj
 0002:00004594       ??_C@_1M@PBIEACPO@?$AAm?$AAr?$AA?9?$AAI?$AAN@ 10024594     libucrt:lcidtoname_downlevel.obj
 0002:000045a0       ??_C@_1M@NIDEAGPH@?$AAs?$AAa?$AA?9?$AAI?$AAN@ 100245a0     libucrt:lcidtoname_downlevel.obj
 0002:000045ac       ??_C@_1M@FHIHCBIO@?$AAm?$AAn?$AA?9?$AAM?$AAN@ 100245ac     libucrt:lcidtoname_downlevel.obj
 0002:000045b8       ??_C@_1M@JAIJPENP@?$AAc?$AAy?$AA?9?$AAG?$AAB@ 100245b8     libucrt:lcidtoname_downlevel.obj
 0002:000045c4       ??_C@_1M@PHGFBEPN@?$AAg?$AAl?$AA?9?$AAE?$AAS@ 100245c4     libucrt:lcidtoname_downlevel.obj
 0002:000045d0       ??_C@_1O@KPIPDNCP@?$AAk?$AAo?$AAk?$AA?9?$AAI?$AAN@ 100245d0     libucrt:lcidtoname_downlevel.obj
 0002:000045e0       ??_C@_1O@KNHJLDJA@?$AAs?$AAy?$AAr?$AA?9?$AAS?$AAY@ 100245e0     libucrt:lcidtoname_downlevel.obj
 0002:000045f0       ??_C@_1O@MKEKBLAH@?$AAd?$AAi?$AAv?$AA?9?$AAM?$AAV@ 100245f0     libucrt:lcidtoname_downlevel.obj
 0002:00004600       ??_C@_1O@OHDCKDDF@?$AAq?$AAu?$AAz?$AA?9?$AAB?$AAO@ 10024600     libucrt:lcidtoname_downlevel.obj
 0002:00004610       ??_C@_1M@LEPJNLFD@?$AAn?$AAs?$AA?9?$AAZ?$AAA@ 10024610     libucrt:lcidtoname_downlevel.obj
 0002:0000461c       ??_C@_1M@OMLEIIJB@?$AAm?$AAi?$AA?9?$AAN?$AAZ@ 1002461c     libucrt:lcidtoname_downlevel.obj
 0002:00004628       ??_C@_1M@PMPEAILG@?$AAa?$AAr?$AA?9?$AAI?$AAQ@ 10024628     libucrt:lcidtoname_downlevel.obj
 0002:00004634       ??_C@_1M@CNKPNOEE@?$AAd?$AAe?$AA?9?$AAC?$AAH@ 10024634     libucrt:lcidtoname_downlevel.obj
 0002:00004640       ??_C@_1M@LKMGMLKO@?$AAe?$AAn?$AA?9?$AAG?$AAB@ 10024640     libucrt:lcidtoname_downlevel.obj
 0002:0000464c       ??_C@_1M@PGKJFFGL@?$AAe?$AAs?$AA?9?$AAM?$AAX@ 1002464c     libucrt:lcidtoname_downlevel.obj
 0002:00004658       ??_C@_1M@DNNANBDC@?$AAf?$AAr?$AA?9?$AAB?$AAE@ 10024658     libucrt:lcidtoname_downlevel.obj
 0002:00004664       ??_C@_1M@HLGMDFHM@?$AAi?$AAt?$AA?9?$AAC?$AAH@ 10024664     libucrt:lcidtoname_downlevel.obj
 0002:00004670       ??_C@_1M@CLLBGJH@?$AAn?$AAl?$AA?9?$AAB?$AAE@ 10024670     libucrt:lcidtoname_downlevel.obj
 0002:0000467c       ??_C@_1M@BODBOGLF@?$AAn?$AAn?$AA?9?$AAN?$AAO@ 1002467c     libucrt:lcidtoname_downlevel.obj
 0002:00004688       ??_C@_1M@HFFAHKAD@?$AAp?$AAt?$AA?9?$AAP?$AAT@ 10024688     libucrt:lcidtoname_downlevel.obj
 0002:00004694       ??_C@_1BG@LNOAKHIE@?$AAs?$AAr?$AA?9?$AAS?$AAP?$AA?9?$AAL?$AAa?$AAt?$AAn@ 10024694     libucrt:lcidtoname_downlevel.obj
 0002:000046ac       ??_C@_1M@HBMHBGAK@?$AAs?$AAv?$AA?9?$AAF?$AAI@ 100246ac     libucrt:lcidtoname_downlevel.obj
 0002:000046b8       ??_C@_1BG@DGCJGJBE@?$AAa?$AAz?$AA?9?$AAA?$AAZ?$AA?9?$AAC?$AAy?$AAr?$AAl@ 100246b8     libucrt:lcidtoname_downlevel.obj
 0002:000046d0       ??_C@_1M@KEJDAAHB@?$AAs?$AAe?$AA?9?$AAS?$AAE@ 100246d0     libucrt:lcidtoname_downlevel.obj
 0002:000046dc       ??_C@_1M@HEIBJJAD@?$AAm?$AAs?$AA?9?$AAB?$AAN@ 100246dc     libucrt:lcidtoname_downlevel.obj
 0002:000046e8       ??_C@_1BG@PBGJMCEM@?$AAu?$AAz?$AA?9?$AAU?$AAZ?$AA?9?$AAC?$AAy?$AAr?$AAl@ 100246e8     libucrt:lcidtoname_downlevel.obj
 0002:00004700       ??_C@_1O@LAOBCMDF@?$AAq?$AAu?$AAz?$AA?9?$AAE?$AAC@ 10024700     libucrt:lcidtoname_downlevel.obj
 0002:00004710       ??_C@_1M@POEEMAIO@?$AAa?$AAr?$AA?9?$AAE?$AAG@ 10024710     libucrt:lcidtoname_downlevel.obj
 0002:0000471c       ??_C@_1M@EFAKDEDL@?$AAz?$AAh?$AA?9?$AAH?$AAK@ 1002471c     libucrt:lcidtoname_downlevel.obj
 0002:00004728       ??_C@_1M@HKKIJHGI@?$AAd?$AAe?$AA?9?$AAA?$AAT@ 10024728     libucrt:lcidtoname_downlevel.obj
 0002:00004734       ??_C@_1M@KBFBEHJF@?$AAe?$AAn?$AA?9?$AAA?$AAU@ 10024734     libucrt:lcidtoname_downlevel.obj
 0002:00004740       ??_C@_1M@MNPLFAAH@?$AAe?$AAs?$AA?9?$AAE?$AAS@ 10024740     libucrt:lcidtoname_downlevel.obj
 0002:0000474c       ??_C@_1M@HJOOJFMA@?$AAf?$AAr?$AA?9?$AAC?$AAA@ 1002474c     libucrt:lcidtoname_downlevel.obj
 0002:00004758       ??_C@_1BG@JPOFPNAB@?$AAs?$AAr?$AA?9?$AAS?$AAP?$AA?9?$AAC?$AAy?$AAr?$AAl@ 10024758     libucrt:lcidtoname_downlevel.obj
 0002:00004770       ??_C@_1M@LNFOCMOB@?$AAs?$AAe?$AA?9?$AAF?$AAI@ 10024770     libucrt:lcidtoname_downlevel.obj
 0002:0000477c       ??_C@_1O@MGJBOAMB@?$AAq?$AAu?$AAz?$AA?9?$AAP?$AAE@ 1002477c     libucrt:lcidtoname_downlevel.obj
 0002:0000478c       ??_C@_1M@GJINLBOK@?$AAa?$AAr?$AA?9?$AAL?$AAY@ 1002478c     libucrt:lcidtoname_downlevel.obj
 0002:00004798       ??_C@_1M@GGMNHJNL@?$AAz?$AAh?$AA?9?$AAS?$AAG@ 10024798     libucrt:lcidtoname_downlevel.obj
 0002:000047a4       ??_C@_1M@HOIKODND@?$AAd?$AAe?$AA?9?$AAL?$AAU@ 100247a4     libucrt:lcidtoname_downlevel.obj
 0002:000047b0       ??_C@_1M@DDOCCGFG@?$AAe?$AAn?$AA?9?$AAC?$AAA@ 100247b0     libucrt:lcidtoname_downlevel.obj
 0002:000047bc       ??_C@_1M@BNOEMJLF@?$AAe?$AAs?$AA?9?$AAG?$AAT@ 100247bc     libucrt:lcidtoname_downlevel.obj
 0002:000047c8       ??_C@_1M@EOGNKEK@?$AAf?$AAr?$AA?9?$AAC?$AAH@ 100247c8     libucrt:lcidtoname_downlevel.obj
 0002:000047d4       ??_C@_1M@FLIDJFHL@?$AAh?$AAr?$AA?9?$AAB?$AAA@ 100247d4     libucrt:lcidtoname_downlevel.obj
 0002:000047e0       ??_C@_1O@FMCELNAJ@?$AAs?$AAm?$AAj?$AA?9?$AAN?$AAO@ 100247e0     libucrt:lcidtoname_downlevel.obj
 0002:000047f0       ??_C@_1M@JHGLJMGJ@?$AAa?$AAr?$AA?9?$AAD?$AAZ@ 100247f0     libucrt:lcidtoname_downlevel.obj
 0002:000047fc       ??_C@_1M@JKKFDCNP@?$AAz?$AAh?$AA?9?$AAM?$AAO@ 100247fc     libucrt:lcidtoname_downlevel.obj
 0002:00004808       ??_C@_1M@GEEFALPE@?$AAd?$AAe?$AA?9?$AAL?$AAI@ 10024808     libucrt:lcidtoname_downlevel.obj
 0002:00004814       ??_C@_1M@IGEOFBG@?$AAe?$AAn?$AA?9?$AAN?$AAZ@ 10024814     libucrt:lcidtoname_downlevel.obj
 0002:00004820       ??_C@_1M@KDBONEHP@?$AAe?$AAs?$AA?9?$AAC?$AAR@ 10024820     libucrt:lcidtoname_downlevel.obj
 0002:0000482c       ??_C@_1M@FHMDOHNN@?$AAf?$AAr?$AA?9?$AAL?$AAU@ 1002482c     libucrt:lcidtoname_downlevel.obj
 0002:00004838       ??_C@_1BG@NFKKMAFG@?$AAb?$AAs?$AA?9?$AAB?$AAA?$AA?9?$AAL?$AAa?$AAt?$AAn@ 10024838     libucrt:lcidtoname_downlevel.obj
 0002:00004850       ??_C@_1O@IMNBEMCI@?$AAs?$AAm?$AAj?$AA?9?$AAS?$AAE@ 10024850     libucrt:lcidtoname_downlevel.obj
 0002:00004860       ??_C@_1M@DHHMBNDP@?$AAa?$AAr?$AA?9?$AAM?$AAA@ 10024860     libucrt:lcidtoname_downlevel.obj
 0002:0000486c       ??_C@_1M@BNBLJCGH@?$AAe?$AAn?$AA?9?$AAI?$AAE@ 1002486c     libucrt:lcidtoname_downlevel.obj
 0002:00004878       ??_C@_1M@GEPAFMDL@?$AAe?$AAs?$AA?9?$AAP?$AAA@ 10024878     libucrt:lcidtoname_downlevel.obj
 0002:00004884       ??_C@_1M@OJONDMDL@?$AAf?$AAr?$AA?9?$AAM?$AAC@ 10024884     libucrt:lcidtoname_downlevel.obj
 0002:00004890       ??_C@_1BG@OBCNFJB@?$AAs?$AAr?$AA?9?$AAB?$AAA?$AA?9?$AAL?$AAa?$AAt?$AAn@ 10024890     libucrt:lcidtoname_downlevel.obj
 0002:000048a8       ??_C@_1O@KEMEEGPO@?$AAs?$AAm?$AAa?$AA?9?$AAN?$AAO@ 100248a8     libucrt:lcidtoname_downlevel.obj
 0002:000048b8       ??_C@_1M@ELMGFODK@?$AAa?$AAr?$AA?9?$AAT?$AAN@ 100248b8     libucrt:lcidtoname_downlevel.obj
 0002:000048c4       ??_C@_1M@BHDLHFAF@?$AAe?$AAn?$AA?9?$AAZ?$AAA@ 100248c4     libucrt:lcidtoname_downlevel.obj
 0002:000048d0       ??_C@_1M@BMGIGLIF@?$AAe?$AAs?$AA?9?$AAD?$AAO@ 100248d0     libucrt:lcidtoname_downlevel.obj
 0002:000048dc       ??_C@_1BG@CMBHIPBE@?$AAs?$AAr?$AA?9?$AAB?$AAA?$AA?9?$AAC?$AAy?$AAr?$AAl@ 100248dc     libucrt:lcidtoname_downlevel.obj
 0002:000048f4       ??_C@_1O@HEDBLHNP@?$AAs?$AAm?$AAa?$AA?9?$AAS?$AAE@ 100248f4     libucrt:lcidtoname_downlevel.obj
 0002:00004904       ??_C@_1M@DAGCADIM@?$AAa?$AAr?$AA?9?$AAO?$AAM@ 10024904     libucrt:lcidtoname_downlevel.obj
 0002:00004910       ??_C@_1M@FODLMICG@?$AAe?$AAn?$AA?9?$AAJ?$AAM@ 10024910     libucrt:lcidtoname_downlevel.obj
 0002:0000491c       ??_C@_1M@DNMLCIHB@?$AAe?$AAs?$AA?9?$AAV?$AAE@ 1002491c     libucrt:lcidtoname_downlevel.obj
 0002:00004928       ??_C@_1O@EOKHMKJK@?$AAs?$AAm?$AAs?$AA?9?$AAF?$AAI@ 10024928     libucrt:lcidtoname_downlevel.obj
 0002:00004938       ??_C@_1M@CAFJMKOF@?$AAa?$AAr?$AA?9?$AAY?$AAE@ 10024938     libucrt:lcidtoname_downlevel.obj
 0002:00004944       ??_C@_1M@CBFHIJLI@?$AAe?$AAn?$AA?9?$AAC?$AAB@ 10024944     libucrt:lcidtoname_downlevel.obj
 0002:00004950       ??_C@_1M@BGNFLDN@?$AAe?$AAs?$AA?9?$AAC?$AAO@ 10024950     libucrt:lcidtoname_downlevel.obj
 0002:0000495c       ??_C@_1O@JMPHMAMC@?$AAs?$AAm?$AAn?$AA?9?$AAF?$AAI@ 1002495c     libucrt:lcidtoname_downlevel.obj
 0002:0000496c       ??_C@_1M@JLANABKE@?$AAa?$AAr?$AA?9?$AAS?$AAY@ 1002496c     libucrt:lcidtoname_downlevel.obj
 0002:00004978       ??_C@_1M@HPKGCFGN@?$AAe?$AAn?$AA?9?$AAB?$AAZ@ 10024978     libucrt:lcidtoname_downlevel.obj
 0002:00004984       ??_C@_1M@OLJCMLGM@?$AAe?$AAs?$AA?9?$AAP?$AAE@ 10024984     libucrt:lcidtoname_downlevel.obj
 0002:00004990       ??_C@_1M@MKKGFKLE@?$AAa?$AAr?$AA?9?$AAJ?$AAO@ 10024990     libucrt:lcidtoname_downlevel.obj
 0002:0000499c       ??_C@_1M@EKPGLDNI@?$AAe?$AAn?$AA?9?$AAT?$AAT@ 1002499c     libucrt:lcidtoname_downlevel.obj
 0002:000049a8       ??_C@_1M@OONGHFHE@?$AAe?$AAs?$AA?9?$AAA?$AAR@ 100249a8     libucrt:lcidtoname_downlevel.obj
 0002:000049b4       ??_C@_1M@OOJFGBHE@?$AAa?$AAr?$AA?9?$AAL?$AAB@ 100249b4     libucrt:lcidtoname_downlevel.obj
 0002:000049c0       ??_C@_1M@GCEJHNEG@?$AAe?$AAn?$AA?9?$AAZ?$AAW@ 100249c0     libucrt:lcidtoname_downlevel.obj
 0002:000049cc       ??_C@_1M@JNOCAHJI@?$AAe?$AAs?$AA?9?$AAE?$AAC@ 100249cc     libucrt:lcidtoname_downlevel.obj
 0002:000049d8       ??_C@_1M@JEFHPGGB@?$AAa?$AAr?$AA?9?$AAK?$AAW@ 100249d8     libucrt:lcidtoname_downlevel.obj
 0002:000049e4       ??_C@_1M@MLKIBJOJ@?$AAe?$AAn?$AA?9?$AAP?$AAH@ 100249e4     libucrt:lcidtoname_downlevel.obj
 0002:000049f0       ??_C@_1M@BDNIPEND@?$AAe?$AAs?$AA?9?$AAC?$AAL@ 100249f0     libucrt:lcidtoname_downlevel.obj
 0002:000049fc       ??_C@_1M@MPNMEKBD@?$AAa?$AAr?$AA?9?$AAA?$AAE@ 100249fc     libucrt:lcidtoname_downlevel.obj
 0002:00004a08       ??_C@_1M@KBJALCPI@?$AAe?$AAs?$AA?9?$AAU?$AAY@ 10024a08     libucrt:lcidtoname_downlevel.obj
 0002:00004a14       ??_C@_1M@LLCCOAGA@?$AAa?$AAr?$AA?9?$AAB?$AAH@ 10024a14     libucrt:lcidtoname_downlevel.obj
 0002:00004a20       ??_C@_1M@PBFNCDEL@?$AAe?$AAs?$AA?9?$AAP?$AAY@ 10024a20     libucrt:lcidtoname_downlevel.obj
 0002:00004a2c       ??_C@_1M@EDGINPNP@?$AAa?$AAr?$AA?9?$AAQ?$AAA@ 10024a2c     libucrt:lcidtoname_downlevel.obj
 0002:00004a38       ??_C@_1M@MKDBIIJI@?$AAe?$AAs?$AA?9?$AAB?$AAO@ 10024a38     libucrt:lcidtoname_downlevel.obj
 0002:00004a44       ??_C@_1M@CPKKEBLD@?$AAe?$AAs?$AA?9?$AAS?$AAV@ 10024a44     libucrt:lcidtoname_downlevel.obj
 0002:00004a50       ??_C@_1M@NDBGMMJL@?$AAe?$AAs?$AA?9?$AAH?$AAN@ 10024a50     libucrt:lcidtoname_downlevel.obj
 0002:00004a5c       ??_C@_1M@JIJIBHDP@?$AAe?$AAs?$AA?9?$AAN?$AAI@ 10024a5c     libucrt:lcidtoname_downlevel.obj
 0002:00004a68       ??_C@_1M@CGFMKEEK@?$AAe?$AAs?$AA?9?$AAP?$AAR@ 10024a68     libucrt:lcidtoname_downlevel.obj
 0002:00004a74       ??_C@_1O@ICJHKIIK@?$AAz?$AAh?$AA?9?$AAC?$AAH?$AAT@ 10024a74     libucrt:lcidtoname_downlevel.obj
 0002:00004a84       ??_C@_15CLNEJCE@?$AAs?$AAr@ 10024a84     libucrt:lcidtoname_downlevel.obj
 0002:000051b0       ??_C@_1M@KAHEKEIG@?$AAa?$AAf?$AA?9?$AAz?$AAa@ 100251b0     libucrt:lcidtoname_downlevel.obj
 0002:000051bc       ??_C@_1M@GIECOABL@?$AAa?$AAr?$AA?9?$AAa?$AAe@ 100251bc     libucrt:lcidtoname_downlevel.obj
 0002:000051c8       ??_C@_1M@BMLMEKGI@?$AAa?$AAr?$AA?9?$AAb?$AAh@ 100251c8     libucrt:lcidtoname_downlevel.obj
 0002:000051d4       ??_C@_1M@DAPFDGGB@?$AAa?$AAr?$AA?9?$AAd?$AAz@ 100251d4     libucrt:lcidtoname_downlevel.obj
 0002:000051e0       ??_C@_1M@FJNKGKIG@?$AAa?$AAr?$AA?9?$AAe?$AAg@ 100251e0     libucrt:lcidtoname_downlevel.obj
 0002:000051ec       ??_C@_1M@FLGKKCLO@?$AAa?$AAr?$AA?9?$AAi?$AAq@ 100251ec     libucrt:lcidtoname_downlevel.obj
 0002:000051f8       ??_C@_1M@GNDIPALM@?$AAa?$AAr?$AA?9?$AAj?$AAo@ 100251f8     libucrt:lcidtoname_downlevel.obj
 0002:00005204       ??_C@_1M@DDMJFMGJ@?$AAa?$AAr?$AA?9?$AAk?$AAw@ 10025204     libucrt:lcidtoname_downlevel.obj
 0002:00005210       ??_C@_1M@EJALMLHM@?$AAa?$AAr?$AA?9?$AAl?$AAb@ 10025210     libucrt:lcidtoname_downlevel.obj
 0002:0000521c       ??_C@_1M@MOBDBLOC@?$AAa?$AAr?$AA?9?$AAl?$AAy@ 1002521c     libucrt:lcidtoname_downlevel.obj
 0002:00005228       ??_C@_1M@JAOCLHDH@?$AAa?$AAr?$AA?9?$AAm?$AAa@ 10025228     libucrt:lcidtoname_downlevel.obj
 0002:00005234       ??_C@_1M@JHPMKJIE@?$AAa?$AAr?$AA?9?$AAo?$AAm@ 10025234     libucrt:lcidtoname_downlevel.obj
 0002:00005240       ??_C@_1M@OEPGHFNH@?$AAa?$AAr?$AA?9?$AAq?$AAa@ 10025240     libucrt:lcidtoname_downlevel.obj
 0002:0000524c       ??_C@_1M@KJDONENM@?$AAa?$AAr?$AA?9?$AAs?$AAa@ 1002524c     libucrt:lcidtoname_downlevel.obj
 0002:00005258       ??_C@_1M@DMJDKLKM@?$AAa?$AAr?$AA?9?$AAs?$AAy@ 10025258     libucrt:lcidtoname_downlevel.obj
 0002:00005264       ??_C@_1M@OMFIPEDC@?$AAa?$AAr?$AA?9?$AAt?$AAn@ 10025264     libucrt:lcidtoname_downlevel.obj
 0002:00005270       ??_C@_1M@IHMHGAON@?$AAa?$AAr?$AA?9?$AAy?$AAe@ 10025270     libucrt:lcidtoname_downlevel.obj
 0002:0000527c       ??_C@_1BG@KDCPGJGB@?$AAa?$AAz?$AA?9?$AAa?$AAz?$AA?9?$AAc?$AAy?$AAr?$AAl@ 1002527c     libucrt:lcidtoname_downlevel.obj
 0002:00005294       ??_C@_1BG@IBCKDDOE@?$AAa?$AAz?$AA?9?$AAa?$AAz?$AA?9?$AAl?$AAa?$AAt?$AAn@ 10025294     libucrt:lcidtoname_downlevel.obj
 0002:000052ac       ??_C@_1M@EGPFDCPD@?$AAb?$AAe?$AA?9?$AAb?$AAy@ 100252ac     libucrt:lcidtoname_downlevel.obj
 0002:000052b8       ??_C@_1M@PCMGMCGC@?$AAb?$AAg?$AA?9?$AAb?$AAg@ 100252b8     libucrt:lcidtoname_downlevel.obj
 0002:000052c4       ??_C@_1M@BJBMFGOB@?$AAb?$AAn?$AA?9?$AAi?$AAn@ 100252c4     libucrt:lcidtoname_downlevel.obj
 0002:000052d0       ??_C@_1BG@EAKMMACD@?$AAb?$AAs?$AA?9?$AAb?$AAa?$AA?9?$AAl?$AAa?$AAt?$AAn@ 100252d0     libucrt:lcidtoname_downlevel.obj
 0002:000052e8       ??_C@_1M@KGADAODK@?$AAc?$AAa?$AA?9?$AAe?$AAs@ 100252e8     libucrt:lcidtoname_downlevel.obj
 0002:000052f4       ??_C@_1M@COAJPDHI@?$AAc?$AAs?$AA?9?$AAc?$AAz@ 100252f4     libucrt:lcidtoname_downlevel.obj
 0002:00005300       ??_C@_1M@DHBHFONH@?$AAc?$AAy?$AA?9?$AAg?$AAb@ 10025300     libucrt:lcidtoname_downlevel.obj
 0002:0000530c       ??_C@_1M@IMGKELGA@?$AAd?$AAa?$AA?9?$AAd?$AAk@ 1002530c     libucrt:lcidtoname_downlevel.obj
 0002:00005318       ??_C@_1M@NNDGDNGA@?$AAd?$AAe?$AA?9?$AAa?$AAt@ 10025318     libucrt:lcidtoname_downlevel.obj
 0002:00005324       ??_C@_1M@IKDBHEEM@?$AAd?$AAe?$AA?9?$AAc?$AAh@ 10025324     libucrt:lcidtoname_downlevel.obj
 0002:00005330       ??_C@_1M@GFFOJMCJ@?$AAd?$AAe?$AA?9?$AAd?$AAe@ 10025330     libucrt:lcidtoname_downlevel.obj
 0002:0000533c       ??_C@_1M@MDNLKBPM@?$AAd?$AAe?$AA?9?$AAl?$AAi@ 1002533c     libucrt:lcidtoname_downlevel.obj
 0002:00005348       ??_C@_1M@NJBEEJNL@?$AAd?$AAe?$AA?9?$AAl?$AAu@ 10025348     libucrt:lcidtoname_downlevel.obj
 0002:00005354       ??_C@_1O@GNNELBAP@?$AAd?$AAi?$AAv?$AA?9?$AAm?$AAv@ 10025354     libucrt:lcidtoname_downlevel.obj
 0002:00005364       ??_C@_1M@EJLEOGAE@?$AAe?$AAl?$AA?9?$AAg?$AAr@ 10025364     libucrt:lcidtoname_downlevel.obj
 0002:00005370       ??_C@_1M@GMPONJN@?$AAe?$AAn?$AA?9?$AAa?$AAu@ 10025370     libucrt:lcidtoname_downlevel.obj
 0002:0000537c       ??_C@_1M@NIDIIPGF@?$AAe?$AAn?$AA?9?$AAb?$AAz@ 1002537c     libucrt:lcidtoname_downlevel.obj
 0002:00005388       ??_C@_1M@JEHMIMFO@?$AAe?$AAn?$AA?9?$AAc?$AAa@ 10025388     libucrt:lcidtoname_downlevel.obj
 0002:00005394       ??_C@_1M@IGMJCDLA@?$AAe?$AAn?$AA?9?$AAc?$AAb@ 10025394     libucrt:lcidtoname_downlevel.obj
 0002:000053a0       ??_C@_1M@BNFIGBKG@?$AAe?$AAn?$AA?9?$AAg?$AAb@ 100253a0     libucrt:lcidtoname_downlevel.obj
 0002:000053ac       ??_C@_1M@LKIFDIGP@?$AAe?$AAn?$AA?9?$AAi?$AAe@ 100253ac     libucrt:lcidtoname_downlevel.obj
 0002:000053b8       ??_C@_1M@PJKFGCCO@?$AAe?$AAn?$AA?9?$AAj?$AAm@ 100253b8     libucrt:lcidtoname_downlevel.obj
 0002:000053c4       ??_C@_1M@KPPKEPBO@?$AAe?$AAn?$AA?9?$AAn?$AAz@ 100253c4     libucrt:lcidtoname_downlevel.obj
 0002:000053d0       ??_C@_1M@GMDGLDOB@?$AAe?$AAn?$AA?9?$AAp?$AAh@ 100253d0     libucrt:lcidtoname_downlevel.obj
 0002:000053dc       ??_C@_1M@ONGIBJNA@?$AAe?$AAn?$AA?9?$AAt?$AAt@ 100253dc     libucrt:lcidtoname_downlevel.obj
 0002:000053e8       ??_C@_1M@LLODPCMM@?$AAe?$AAn?$AA?9?$AAu?$AAs@ 100253e8     libucrt:lcidtoname_downlevel.obj
 0002:000053f4       ??_C@_1M@LAKFNPAN@?$AAe?$AAn?$AA?9?$AAz?$AAa@ 100253f4     libucrt:lcidtoname_downlevel.obj
 0002:00005400       ??_C@_1M@MFNHNHEO@?$AAe?$AAn?$AA?9?$AAz?$AAw@ 10025400     libucrt:lcidtoname_downlevel.obj
 0002:0000540c       ??_C@_1M@EJEINPHM@?$AAe?$AAs?$AA?9?$AAa?$AAr@ 1002540c     libucrt:lcidtoname_downlevel.obj
 0002:00005418       ??_C@_1M@GNKPCCJA@?$AAe?$AAs?$AA?9?$AAb?$AAo@ 10025418     libucrt:lcidtoname_downlevel.obj
 0002:00005424       ??_C@_1M@LEEGFONL@?$AAe?$AAs?$AA?9?$AAc?$AAl@ 10025424     libucrt:lcidtoname_downlevel.obj
 0002:00005430       ??_C@_1M@KGPDPBDF@?$AAe?$AAs?$AA?9?$AAc?$AAo@ 10025430     libucrt:lcidtoname_downlevel.obj
 0002:0000543c       ??_C@_1M@EIAHOHH@?$AAe?$AAs?$AA?9?$AAc?$AAr@ 1002543c     libucrt:lcidtoname_downlevel.obj
 0002:00005448       ??_C@_1M@LLPGMBIN@?$AAe?$AAs?$AA?9?$AAd?$AAo@ 10025448     libucrt:lcidtoname_downlevel.obj
 0002:00005454       ??_C@_1M@DKHMKNJA@?$AAe?$AAs?$AA?9?$AAe?$AAc@ 10025454     libucrt:lcidtoname_downlevel.obj
 0002:00005460       ??_C@_1M@GKGFPKAP@?$AAe?$AAs?$AA?9?$AAe?$AAs@ 10025460     libucrt:lcidtoname_downlevel.obj
 0002:0000546c       ??_C@_1M@LKHKGDLN@?$AAe?$AAs?$AA?9?$AAg?$AAt@ 1002546c     libucrt:lcidtoname_downlevel.obj
 0002:00005478       ??_C@_1M@HEIIGGJD@?$AAe?$AAs?$AA?9?$AAh?$AAn@ 10025478     libucrt:lcidtoname_downlevel.obj
 0002:00005484       ??_C@_1M@FBDHPPGD@?$AAe?$AAs?$AA?9?$AAm?$AAx@ 10025484     libucrt:lcidtoname_downlevel.obj
 0002:00005490       ??_C@_1M@DPAGLNDH@?$AAe?$AAs?$AA?9?$AAn?$AAi@ 10025490     libucrt:lcidtoname_downlevel.obj
 0002:0000549c       ??_C@_1M@MDGOPGDD@?$AAe?$AAs?$AA?9?$AAp?$AAa@ 1002549c     libucrt:lcidtoname_downlevel.obj
 0002:000054a8       ??_C@_1M@EMAMGBGE@?$AAe?$AAs?$AA?9?$AAp?$AAe@ 100254a8     libucrt:lcidtoname_downlevel.obj
 0002:000054b4       ??_C@_1M@IBMCAOEC@?$AAe?$AAs?$AA?9?$AAp?$AAr@ 100254b4     libucrt:lcidtoname_downlevel.obj
 0002:000054c0       ??_C@_1M@FGMDIJED@?$AAe?$AAs?$AA?9?$AAp?$AAy@ 100254c0     libucrt:lcidtoname_downlevel.obj
 0002:000054cc       ??_C@_1M@IIDEOLLL@?$AAe?$AAs?$AA?9?$AAs?$AAv@ 100254cc     libucrt:lcidtoname_downlevel.obj
 0002:000054d8       ??_C@_1M@GAOBIPA@?$AAe?$AAs?$AA?9?$AAu?$AAy@ 100254d8     libucrt:lcidtoname_downlevel.obj
 0002:000054e4       ??_C@_1M@JKFFICHJ@?$AAe?$AAs?$AA?9?$AAv?$AAe@ 100254e4     libucrt:lcidtoname_downlevel.obj
 0002:000054f0       ??_C@_1M@PNMLOJDF@?$AAe?$AAt?$AA?9?$AAe?$AAe@ 100254f0     libucrt:lcidtoname_downlevel.obj
 0002:000054fc       ??_C@_1M@GHHLIKEI@?$AAe?$AAu?$AA?9?$AAe?$AAs@ 100254fc     libucrt:lcidtoname_downlevel.obj
 0002:00005508       ??_C@_1M@PBNONODE@?$AAf?$AAa?$AA?9?$AAi?$AAr@ 10025508     libucrt:lcidtoname_downlevel.obj
 0002:00005514       ??_C@_1M@JEEHPMIL@?$AAf?$AAi?$AA?9?$AAf?$AAi@ 10025514     libucrt:lcidtoname_downlevel.obj
 0002:00005520       ??_C@_1M@LMDCNDBA@?$AAf?$AAo?$AA?9?$AAf?$AAo@ 10025520     libucrt:lcidtoname_downlevel.obj
 0002:0000552c       ??_C@_1M@JKEOHLDK@?$AAf?$AAr?$AA?9?$AAb?$AAe@ 1002552c     libucrt:lcidtoname_downlevel.obj
 0002:00005538       ??_C@_1M@NOHADPMI@?$AAf?$AAr?$AA?9?$AAc?$AAa@ 10025538     libucrt:lcidtoname_downlevel.obj
 0002:00005544       ??_C@_1M@KDHIHAEC@?$AAf?$AAr?$AA?9?$AAc?$AAh@ 10025544     libucrt:lcidtoname_downlevel.obj
 0002:00005550       ??_C@_1M@MMBBFGAK@?$AAf?$AAr?$AA?9?$AAf?$AAr@ 10025550     libucrt:lcidtoname_downlevel.obj
 0002:0000555c       ??_C@_1M@PAFNENNF@?$AAf?$AAr?$AA?9?$AAl?$AAu@ 1002555c     libucrt:lcidtoname_downlevel.obj
 0002:00005568       ??_C@_1M@EOHDJGDD@?$AAf?$AAr?$AA?9?$AAm?$AAc@ 10025568     libucrt:lcidtoname_downlevel.obj
 0002:00005574       ??_C@_1M@FAPLLOPF@?$AAg?$AAl?$AA?9?$AAe?$AAs@ 10025574     libucrt:lcidtoname_downlevel.obj
 0002:00005580       ??_C@_1M@FOPBFLOO@?$AAg?$AAu?$AA?9?$AAi?$AAn@ 10025580     libucrt:lcidtoname_downlevel.obj
 0002:0000558c       ??_C@_1M@KBMCINPM@?$AAh?$AAe?$AA?9?$AAi?$AAl@ 1002558c     libucrt:lcidtoname_downlevel.obj
 0002:00005598       ??_C@_1M@BBPHKFPJ@?$AAh?$AAi?$AA?9?$AAi?$AAn@ 10025598     libucrt:lcidtoname_downlevel.obj
 0002:000055a4       ??_C@_1M@PMBNDPHD@?$AAh?$AAr?$AA?9?$AAb?$AAa@ 100255a4     libucrt:lcidtoname_downlevel.obj
 0002:000055b0       ??_C@_1M@BPCKOEGE@?$AAh?$AAr?$AA?9?$AAh?$AAr@ 100255b0     libucrt:lcidtoname_downlevel.obj
 0002:000055bc       ??_C@_1M@GACBMHKE@?$AAh?$AAu?$AA?9?$AAh?$AAu@ 100255bc     libucrt:lcidtoname_downlevel.obj
 0002:000055c8       ??_C@_1M@MILPAJJC@?$AAh?$AAy?$AA?9?$AAa?$AAm@ 100255c8     libucrt:lcidtoname_downlevel.obj
 0002:000055d4       ??_C@_1M@BABBICEC@?$AAi?$AAd?$AA?9?$AAi?$AAd@ 100255d4     libucrt:lcidtoname_downlevel.obj
 0002:000055e0       ??_C@_1M@BIKNHHPF@?$AAi?$AAs?$AA?9?$AAi?$AAs@ 100255e0     libucrt:lcidtoname_downlevel.obj
 0002:000055ec       ??_C@_1M@NMPCJPHE@?$AAi?$AAt?$AA?9?$AAc?$AAh@ 100255ec     libucrt:lcidtoname_downlevel.obj
 0002:000055f8       ??_C@_1M@GHKGFEDF@?$AAi?$AAt?$AA?9?$AAi?$AAt@ 100255f8     libucrt:lcidtoname_downlevel.obj
 0002:00005604       ??_C@_1M@NIEJCJJA@?$AAj?$AAa?$AA?9?$AAj?$AAp@ 10025604     libucrt:lcidtoname_downlevel.obj
 0002:00005610       ??_C@_1M@JILFNBIM@?$AAk?$AAa?$AA?9?$AAg?$AAe@ 10025610     libucrt:lcidtoname_downlevel.obj
 0002:0000561c       ??_C@_1M@PACPMGPH@?$AAk?$AAk?$AA?9?$AAk?$AAz@ 1002561c     libucrt:lcidtoname_downlevel.obj
 0002:00005628       ??_C@_1M@IELFGMHA@?$AAk?$AAn?$AA?9?$AAi?$AAn@ 10025628     libucrt:lcidtoname_downlevel.obj
 0002:00005634       ??_C@_1O@IBBJHCH@?$AAk?$AAo?$AAk?$AA?9?$AAi?$AAn@ 10025634     libucrt:lcidtoname_downlevel.obj
 0002:00005644       ??_C@_1M@DMHAEOGC@?$AAk?$AAo?$AA?9?$AAk?$AAr@ 10025644     libucrt:lcidtoname_downlevel.obj
 0002:00005650       ??_C@_1M@HBAHBIGA@?$AAk?$AAy?$AA?9?$AAk?$AAg@ 10025650     libucrt:lcidtoname_downlevel.obj
 0002:0000565c       ??_C@_1M@KPMILCJG@?$AAl?$AAt?$AA?9?$AAl?$AAt@ 1002565c     libucrt:lcidtoname_downlevel.obj
 0002:00005668       ??_C@_1M@BDEKKCA@?$AAl?$AAv?$AA?9?$AAl?$AAv@ 10025668     libucrt:lcidtoname_downlevel.obj
 0002:00005674       ??_C@_1M@ELCKCCJJ@?$AAm?$AAi?$AA?9?$AAn?$AAz@ 10025674     libucrt:lcidtoname_downlevel.obj
 0002:00005680       ??_C@_1M@CBOOLAPA@?$AAm?$AAk?$AA?9?$AAm?$AAk@ 10025680     libucrt:lcidtoname_downlevel.obj
 0002:0000568c       ??_C@_1M@GPHNBJKN@?$AAm?$AAl?$AA?9?$AAi?$AAn@ 1002568c     libucrt:lcidtoname_downlevel.obj
 0002:00005698       ??_C@_1M@PABJILIG@?$AAm?$AAn?$AA?9?$AAm?$AAn@ 10025698     libucrt:lcidtoname_downlevel.obj
 0002:000056a4       ??_C@_1M@FGBKKIPG@?$AAm?$AAr?$AA?9?$AAi?$AAn@ 100256a4     libucrt:lcidtoname_downlevel.obj
 0002:000056b0       ??_C@_1M@NDBPDDAL@?$AAm?$AAs?$AA?9?$AAb?$AAn@ 100256b0     libucrt:lcidtoname_downlevel.obj
 0002:000056bc       ??_C@_1M@OPIHOOPI@?$AAm?$AAs?$AA?9?$AAm?$AAy@ 100256bc     libucrt:lcidtoname_downlevel.obj
 0002:000056c8       ??_C@_1M@PPDBCNFM@?$AAm?$AAt?$AA?9?$AAm?$AAt@ 100256c8     libucrt:lcidtoname_downlevel.obj
 0002:000056d4       ??_C@_1M@KDJDKMDD@?$AAn?$AAb?$AA?9?$AAn?$AAo@ 100256d4     libucrt:lcidtoname_downlevel.obj
 0002:000056e0       ??_C@_1M@KFCFLMJP@?$AAn?$AAl?$AA?9?$AAb?$AAe@ 100256e0     libucrt:lcidtoname_downlevel.obj
 0002:000056ec       ??_C@_1M@KPOPDDGO@?$AAn?$AAl?$AA?9?$AAn?$AAl@ 100256ec     libucrt:lcidtoname_downlevel.obj
 0002:000056f8       ??_C@_1M@LJKPEMLN@?$AAn?$AAn?$AA?9?$AAn?$AAo@ 100256f8     libucrt:lcidtoname_downlevel.obj
 0002:00005704       ??_C@_1M@BDGHHBFL@?$AAn?$AAs?$AA?9?$AAz?$AAa@ 10025704     libucrt:lcidtoname_downlevel.obj
 0002:00005710       ??_C@_1M@IDEHOAP@?$AAp?$AAa?$AA?9?$AAi?$AAn@ 10025710     libucrt:lcidtoname_downlevel.obj
 0002:0000571c       ??_C@_1M@HDBKGOGH@?$AAp?$AAl?$AA?9?$AAp?$AAl@ 1002571c     libucrt:lcidtoname_downlevel.obj
 0002:00005728       ??_C@_1M@LJLLCMEH@?$AAp?$AAt?$AA?9?$AAb?$AAr@ 10025728     libucrt:lcidtoname_downlevel.obj
 0002:00005734       ??_C@_1M@NCMONAAL@?$AAp?$AAt?$AA?9?$AAp?$AAt@ 10025734     libucrt:lcidtoname_downlevel.obj
 0002:00005740       ??_C@_1O@EAKMAJDN@?$AAq?$AAu?$AAz?$AA?9?$AAb?$AAo@ 10025740     libucrt:lcidtoname_downlevel.obj
 0002:00005750       ??_C@_1O@BHHPIGDN@?$AAq?$AAu?$AAz?$AA?9?$AAe?$AAc@ 10025750     libucrt:lcidtoname_downlevel.obj
 0002:00005760       ??_C@_1O@GBAPEKMJ@?$AAq?$AAu?$AAz?$AA?9?$AAp?$AAe@ 10025760     libucrt:lcidtoname_downlevel.obj
 0002:00005770       ??_C@_1M@CLGLEFBO@?$AAr?$AAo?$AA?9?$AAr?$AAo@ 10025770     libucrt:lcidtoname_downlevel.obj
 0002:0000577c       ??_C@_1M@CEEDODME@?$AAr?$AAu?$AA?9?$AAr?$AAu@ 1002577c     libucrt:lcidtoname_downlevel.obj
 0002:00005788       ??_C@_1M@HPKKKMPP@?$AAs?$AAa?$AA?9?$AAi?$AAn@ 10025788     libucrt:lcidtoname_downlevel.obj
 0002:00005794       ??_C@_1M@BKMAIGOJ@?$AAs?$AAe?$AA?9?$AAf?$AAi@ 10025794     libucrt:lcidtoname_downlevel.obj
 0002:000057a0       ??_C@_1M@NDPIFLFI@?$AAs?$AAe?$AA?9?$AAn?$AAo@ 100257a0     libucrt:lcidtoname_downlevel.obj
 0002:000057ac       ??_C@_1M@DANKKHJ@?$AAs?$AAe?$AA?9?$AAs?$AAe@ 100257ac     libucrt:lcidtoname_downlevel.obj
 0002:000057b8       ??_C@_1M@PNBLONPJ@?$AAs?$AAk?$AA?9?$AAs?$AAk@ 100257b8     libucrt:lcidtoname_downlevel.obj
 0002:000057c4       ??_C@_1M@LFMODOAL@?$AAs?$AAl?$AA?9?$AAs?$AAi@ 100257c4     libucrt:lcidtoname_downlevel.obj
 0002:000057d0       ??_C@_1O@DFKOMPG@?$AAs?$AAm?$AAa?$AA?9?$AAn?$AAo@ 100257d0     libucrt:lcidtoname_downlevel.obj
 0002:000057e0       ??_C@_1O@NDKPBNNH@?$AAs?$AAm?$AAa?$AA?9?$AAs?$AAe@ 100257e0     libucrt:lcidtoname_downlevel.obj
 0002:000057f0       ??_C@_1O@PLLKBHAB@?$AAs?$AAm?$AAj?$AA?9?$AAn?$AAo@ 100257f0     libucrt:lcidtoname_downlevel.obj
 0002:00005800       ??_C@_1O@CLEPOGCA@?$AAs?$AAm?$AAj?$AA?9?$AAs?$AAe@ 10025800     libucrt:lcidtoname_downlevel.obj
 0002:00005810       ??_C@_1O@DLGJGKMK@?$AAs?$AAm?$AAn?$AA?9?$AAf?$AAi@ 10025810     libucrt:lcidtoname_downlevel.obj
 0002:00005820       ??_C@_1O@OJDJGAJC@?$AAs?$AAm?$AAs?$AA?9?$AAf?$AAi@ 10025820     libucrt:lcidtoname_downlevel.obj
 0002:00005830       ??_C@_1M@BOFOGHPB@?$AAs?$AAq?$AA?9?$AAa?$AAl@ 10025830     libucrt:lcidtoname_downlevel.obj
 0002:0000583c       ??_C@_1BG@LJBBIPGB@?$AAs?$AAr?$AA?9?$AAb?$AAa?$AA?9?$AAc?$AAy?$AAr?$AAl@ 1002583c     libucrt:lcidtoname_downlevel.obj
 0002:00005854       ??_C@_1BG@JLBENFOE@?$AAs?$AAr?$AA?9?$AAb?$AAa?$AA?9?$AAl?$AAa?$AAt?$AAn@ 10025854     libucrt:lcidtoname_downlevel.obj
 0002:0000586c       ??_C@_1BG@KODPNHE@?$AAs?$AAr?$AA?9?$AAs?$AAp?$AA?9?$AAc?$AAy?$AAr?$AAl@ 1002586c     libucrt:lcidtoname_downlevel.obj
 0002:00005884       ??_C@_1BG@CIOGKHPB@?$AAs?$AAr?$AA?9?$AAs?$AAp?$AA?9?$AAl?$AAa?$AAt?$AAn@ 10025884     libucrt:lcidtoname_downlevel.obj
 0002:0000589c       ??_C@_1M@NGFJLMAC@?$AAs?$AAv?$AA?9?$AAf?$AAi@ 1002589c     libucrt:lcidtoname_downlevel.obj
 0002:000058a8       ??_C@_1M@MPJEJAJC@?$AAs?$AAv?$AA?9?$AAs?$AAe@ 100258a8     libucrt:lcidtoname_downlevel.obj
 0002:000058b4       ??_C@_1M@MPNDHLFK@?$AAs?$AAw?$AA?9?$AAk?$AAe@ 100258b4     libucrt:lcidtoname_downlevel.obj
 0002:000058c0       ??_C@_1O@KOHBJJI@?$AAs?$AAy?$AAr?$AA?9?$AAs?$AAy@ 100258c0     libucrt:lcidtoname_downlevel.obj
 0002:000058d0       ??_C@_1M@LDCEFHA@?$AAt?$AAa?$AA?9?$AAi?$AAn@ 100258d0     libucrt:lcidtoname_downlevel.obj
 0002:000058dc       ??_C@_1M@CNJOFAK@?$AAt?$AAe?$AA?9?$AAi?$AAn@ 100258dc     libucrt:lcidtoname_downlevel.obj
 0002:000058e8       ??_C@_1M@GNAECACD@?$AAt?$AAh?$AA?9?$AAt?$AAh@ 100258e8     libucrt:lcidtoname_downlevel.obj
 0002:000058f4       ??_C@_1M@CHBIHOJO@?$AAt?$AAn?$AA?9?$AAz?$AAa@ 100258f4     libucrt:lcidtoname_downlevel.obj
 0002:00005900       ??_C@_1M@GCCMIGPJ@?$AAt?$AAr?$AA?9?$AAt?$AAr@ 10025900     libucrt:lcidtoname_downlevel.obj
 0002:0000590c       ??_C@_1M@CELMCNBK@?$AAt?$AAt?$AA?9?$AAr?$AAu@ 1002590c     libucrt:lcidtoname_downlevel.obj
 0002:00005918       ??_C@_1M@KLMCELGA@?$AAu?$AAk?$AA?9?$AAu?$AAa@ 10025918     libucrt:lcidtoname_downlevel.obj
 0002:00005924       ??_C@_1M@EPAJJAJF@?$AAu?$AAr?$AA?9?$AAp?$AAk@ 10025924     libucrt:lcidtoname_downlevel.obj
 0002:00005930       ??_C@_1BG@GEGPMCDJ@?$AAu?$AAz?$AA?9?$AAu?$AAz?$AA?9?$AAc?$AAy?$AAr?$AAl@ 10025930     libucrt:lcidtoname_downlevel.obj
 0002:00005948       ??_C@_1BG@EGGKJILM@?$AAu?$AAz?$AA?9?$AAu?$AAz?$AA?9?$AAl?$AAa?$AAt?$AAn@ 10025948     libucrt:lcidtoname_downlevel.obj
 0002:00005960       ??_C@_1M@GFOCLFF@?$AAv?$AAi?$AA?9?$AAv?$AAn@ 10025960     libucrt:lcidtoname_downlevel.obj
 0002:0000596c       ??_C@_1M@CPAMEDFI@?$AAx?$AAh?$AA?9?$AAz?$AAa@ 1002596c     libucrt:lcidtoname_downlevel.obj
 0002:00005978       ??_C@_1O@EBKIFIGN@?$AAz?$AAh?$AA?9?$AAc?$AAh?$AAs@ 10025978     libucrt:lcidtoname_downlevel.obj
 0002:00005988       ??_C@_1O@NMHPGANE@?$AAz?$AAh?$AA?9?$AAc?$AAh?$AAt@ 10025988     libucrt:lcidtoname_downlevel.obj
 0002:00005998       ??_C@_1M@LPINJOMC@?$AAz?$AAh?$AA?9?$AAc?$AAn@ 10025998     libucrt:lcidtoname_downlevel.obj
 0002:000059a4       ??_C@_1M@OCJEJODD@?$AAz?$AAh?$AA?9?$AAh?$AAk@ 100259a4     libucrt:lcidtoname_downlevel.obj
 0002:000059b0       ??_C@_1M@DNDLJINH@?$AAz?$AAh?$AA?9?$AAm?$AAo@ 100259b0     libucrt:lcidtoname_downlevel.obj
 0002:000059bc       ??_C@_1M@MBFDNDND@?$AAz?$AAh?$AA?9?$AAs?$AAg@ 100259bc     libucrt:lcidtoname_downlevel.obj
 0002:000059c8       ??_C@_1M@IMEPLEPE@?$AAz?$AAh?$AA?9?$AAt?$AAw@ 100259c8     libucrt:lcidtoname_downlevel.obj
 0002:000059d4       ??_C@_1M@BBGHNHJP@?$AAz?$AAu?$AA?9?$AAz?$AAa@ 100259d4     libucrt:lcidtoname_downlevel.obj
 0002:000059e0       ?large_power_data@?1??multiply_by_power_of_ten@__crt_strtox@@YA_NAAUbig_integer@2@I@Z@4QBIB 100259e0     libucrt:cfout.obj
 0002:000062e8       ?large_power_indices@?1??multiply_by_power_of_ten@__crt_strtox@@YA_NAAUbig_integer@2@I@Z@4QBUunpack_index@?1??12@YA_N0I@Z@B 100262e8     libucrt:cfout.obj
 0002:00006380       ?small_powers_of_ten@?1??multiply_by_power_of_ten@__crt_strtox@@YA_NAAUbig_integer@2@I@Z@4QBIB 10026380     libucrt:cfout.obj
 0002:000063a4       ??_C@_01GBGANLPD@0@        100263a4     libucrt:cfout.obj
 0002:000063a8       ??_C@_05DNEBIAHO@1?$CDINF@ 100263a8     libucrt:cfout.obj
 0002:000063b0       ??_C@_06IMKFLFPG@1?$CDQNAN@ 100263b0     libucrt:cfout.obj
 0002:000063b8       ??_C@_06PGGFOGJG@1?$CDSNAN@ 100263b8     libucrt:cfout.obj
 0002:000063c0       ??_C@_05PHHOCPM@1?$CDIND@  100263c0     libucrt:cfout.obj
 0002:00006530       __infinity                 10026530     libucrt:87tran.obj
 0002:0000653a       __minfinity                1002653a     libucrt:87tran.obj
 0002:00006544       __logemax                  10026544     libucrt:87tran.obj
 0002:0000656a       __OP_EXPjmptab             1002656a     libucrt:87tran.obj
 0002:00006590       __indefinite               10026590     libucrt:87disp.obj
 0002:0000659a       __piby2                    1002659a     libucrt:87disp.obj
 0002:000065a4       __piby4                    100265a4     libucrt:87disp.obj
 0002:000065d8       __DEFAULT_CW_in_mem        100265d8     libucrt:common.obj
 0002:000065da       __pi_by_2_to_61            100265da     libucrt:common.obj
 0002:00006614       ??_C@_03MGHMBJCF@log@      10026614     libucrt:libm_error.obj
 0002:00006618       ??_C@_05HGHHAHAP@log10@    10026618     libucrt:libm_error.obj
 0002:00006620       ??_C@_03KHJOGHMM@exp@      10026620     libucrt:libm_error.obj
 0002:00006624       ??_C@_03JGHBODFD@pow@      10026624     libucrt:libm_error.obj
 0002:00006628       ??_C@_04FIHNOPOL@asin@     10026628     libucrt:libm_error.obj
 0002:00006630       ??_C@_04PDIFKINK@acos@     10026630     libucrt:libm_error.obj
 0002:00006638       ??_C@_04EIAKFFMI@sqrt@     10026638     libucrt:libm_error.obj
 0002:00006640       __real@3ff0000000000000    10026640     libucrt:libm_error.obj
 0002:00006648       ??_C@_1BA@BALFACEM@?$AAC?$AAO?$AAN?$AAO?$AAU?$AAT?$AA$@ 10026648     libucrt:initcon.obj
 0002:00006670       ___acrt_log10_table_t      10026670     libucrt:log10_tables.obj
 0002:00006a80       ___acrt_log10_table_cb     10026a80     libucrt:log10_tables.obj
 0002:00006e90       __real@3fe0000000000000    10026e90     libucrt:powhlp.obj
 0002:00006f80       ??_C@_04COOMCNPB@sinh@     10026f80     libucrt:fpexcept.obj
 0002:00006f88       ??_C@_04HPJJNFIM@cosh@     10026f88     libucrt:fpexcept.obj
 0002:00006f90       ??_C@_04FJHINJAO@tanh@     10026f90     libucrt:fpexcept.obj
 0002:00006f98       ??_C@_04MLLJIGOK@atan@     10026f98     libucrt:fpexcept.obj
 0002:00006fa0       ??_C@_05KNGEOGJB@atan2@    10026fa0     libucrt:fpexcept.obj
 0002:00006fa8       ??_C@_03BLEJJJBH@sin@      10026fa8     libucrt:fpexcept.obj
 0002:00006fac       ??_C@_03LALBNOCG@cos@      10026fac     libucrt:fpexcept.obj
 0002:00006fb0       ??_C@_03IIINPABG@tan@      10026fb0     libucrt:fpexcept.obj
 0002:00006fb4       ??_C@_04GFPJNGEK@ceil@     10026fb4     libucrt:fpexcept.obj
 0002:00006fbc       ??_C@_05PBJFFIGL@floor@    10026fbc     libucrt:fpexcept.obj
 0002:00006fc4       ??_C@_04ODHECPBC@fabs@     10026fc4     libucrt:fpexcept.obj
 0002:00006fcc       ??_C@_04EHEDPDJG@modf@     10026fcc     libucrt:fpexcept.obj
 0002:00006fd4       ??_C@_05CEJMAHNP@ldexp@    10026fd4     libucrt:fpexcept.obj
 0002:00006fdc       ??_C@_05KBKMEMPO@_cabs@    10026fdc     libucrt:fpexcept.obj
 0002:00006fe4       ??_C@_06MEIMCGCF@_hypot@   10026fe4     libucrt:fpexcept.obj
 0002:00006fec       ??_C@_04KEPJIHGP@fmod@     10026fec     libucrt:fpexcept.obj
 0002:00006ff4       ??_C@_05GKKHEGJL@frexp@    10026ff4     libucrt:fpexcept.obj
 0002:00006ffc       ??_C@_03MJLDFKDL@_y0@      10026ffc     libucrt:fpexcept.obj
 0002:00007000       ??_C@_03NAKIGLHK@_y1@      10027000     libucrt:fpexcept.obj
 0002:00007004       ??_C@_03ONILCKOB@_yn@      10027004     libucrt:fpexcept.obj
 0002:00007008       ??_C@_05JGDBENOH@_logb@    10027008     libucrt:fpexcept.obj
 0002:00007010       ??_C@_0L@KDOEJCKC@_nextafter@ 10027010     libucrt:fpexcept.obj
 0002:00007020       __d_inf                    10027020     libucrt:util.obj
 0002:00007028       __d_max                    10027028     libucrt:util.obj
 0002:00007030       __d_mzero                  10027030     libucrt:util.obj
 0002:000070a0       __load_config_used         100270a0     LIBCMT:loadcfg.obj
 0002:00007180       __tls_used                 10027180     LIBCMT:tlssup.obj
 0002:00007198       ??_R4exception@std@@6B@    10027198     LIBCMT:throw_bad_alloc.obj
 0002:000071ac       ??_R3exception@std@@8      100271ac     LIBCMT:throw_bad_alloc.obj
 0002:000071bc       ??_R2exception@std@@8      100271bc     LIBCMT:throw_bad_alloc.obj
 0002:000071c4       ??_R1A@?0A@EA@exception@std@@8 100271c4     LIBCMT:throw_bad_alloc.obj
 0002:000071e0       ??_R4bad_alloc@std@@6B@    100271e0     LIBCMT:throw_bad_alloc.obj
 0002:000071f4       ??_R3bad_alloc@std@@8      100271f4     LIBCMT:throw_bad_alloc.obj
 0002:00007204       ??_R2bad_alloc@std@@8      10027204     LIBCMT:throw_bad_alloc.obj
 0002:00007210       ??_R1A@?0A@EA@bad_alloc@std@@8 10027210     LIBCMT:throw_bad_alloc.obj
 0002:0000722c       ??_R4bad_array_new_length@std@@6B@ 1002722c     LIBCMT:throw_bad_alloc.obj
 0002:00007240       ??_R3bad_array_new_length@std@@8 10027240     LIBCMT:throw_bad_alloc.obj
 0002:00007250       ??_R2bad_array_new_length@std@@8 10027250     LIBCMT:throw_bad_alloc.obj
 0002:00007260       ??_R1A@?0A@EA@bad_array_new_length@std@@8 10027260     LIBCMT:throw_bad_alloc.obj
 0002:0000727c       ??_R4type_info@@6B@        1002727c     LIBCMT:std_type_info_static.obj
 0002:00007290       ??_R3type_info@@8          10027290     LIBCMT:std_type_info_static.obj
 0002:000072a0       ??_R2type_info@@8          100272a0     LIBCMT:std_type_info_static.obj
 0002:000072a8       ??_R1A@?0A@EA@type_info@@8 100272a8     LIBCMT:std_type_info_static.obj
 0002:000072c4       ??_R4bad_exception@std@@6B@ 100272c4     libvcruntime:frame.obj
 0002:000072d8       ??_R3bad_exception@std@@8  100272d8     libvcruntime:frame.obj
 0002:000072e8       ??_R2bad_exception@std@@8  100272e8     libvcruntime:frame.obj
 0002:000072f4       ??_R1A@?0A@EA@bad_exception@std@@8 100272f4     libvcruntime:frame.obj
 0002:00007310       ___safe_se_handler_table   10027310     <linker-defined>
 0002:0000733c       ___volatile_metadata       1002733c     <linker-defined>
 0002:0000777c       ___rtc_iaa                 1002777c     LIBCMT:initsect.obj
 0002:00007780       ___rtc_izz                 10027780     LIBCMT:initsect.obj
 0002:00007784       ___rtc_taa                 10027784     LIBCMT:initsect.obj
 0002:00007788       ___rtc_tzz                 10027788     LIBCMT:initsect.obj
 0002:0000778c       __tls_start                1002778c     LIBCMT:tlssup.obj
 0002:00007790       __Init_thread_epoch        10027790     LIBCMT:thread_safe_statics.obj
 0002:00007794       __tls_end                  10027794     LIBCMT:tlssup.obj
 0002:00007894       __TI2?AVbad_alloc@std@@    10027894     LIBCMT:throw_bad_alloc.obj
 0002:000078a4       __CTA2?AVbad_alloc@std@@   100278a4     LIBCMT:throw_bad_alloc.obj
 0002:000078b0       __CT??_R0?AVbad_alloc@std@@@8??0bad_alloc@std@@QAE@ABV01@@Z12 100278b0     LIBCMT:throw_bad_alloc.obj
 0002:000078cc       __CT??_R0?AVexception@std@@@8??0exception@std@@QAE@ABV01@@Z12 100278cc     LIBCMT:throw_bad_alloc.obj
 0002:000078e8       __TI3?AVbad_array_new_length@std@@ 100278e8     LIBCMT:throw_bad_alloc.obj
 0002:000078f8       __CTA3?AVbad_array_new_length@std@@ 100278f8     LIBCMT:throw_bad_alloc.obj
 0002:00007908       __CT??_R0?AVbad_array_new_length@std@@@8??0bad_array_new_length@std@@QAE@ABV01@@Z12 10027908     LIBCMT:throw_bad_alloc.obj
 0002:00007a2c       __TI2?AVbad_exception@std@@ 10027a2c     libvcruntime:frame.obj
 0002:00007a3c       __CTA2?AVbad_exception@std@@ 10027a3c     libvcruntime:frame.obj
 0002:00007a48       __CT??_R0?AVbad_exception@std@@@8??0bad_exception@std@@QAE@ABV01@@Z12 10027a48     libvcruntime:frame.obj
 0002:00007e74       ___pobjMapEntryFirst       10027e74     OposVariant.obj
 0002:00007e78       ___pobjMapEntryLast        10027e78     OposVariant.obj
 0002:00007f34       __IMPORT_DESCRIPTOR_KERNEL32 10027f34     kernel32:KERNEL32.dll
 0002:00007f48       __IMPORT_DESCRIPTOR_USER32 10027f48     user32:USER32.dll
 0002:00007f5c       __IMPORT_DESCRIPTOR_GDI32  10027f5c     gdi32:GDI32.dll
 0002:00007f70       __IMPORT_DESCRIPTOR_ADVAPI32 10027f70     advapi32:ADVAPI32.dll
 0002:00007f84       __IMPORT_DESCRIPTOR_ole32  10027f84     ole32:ole32.dll
 0002:00007f98       __IMPORT_DESCRIPTOR_OLEAUT32 10027f98     oleaut32:OLEAUT32.dll
 0002:00007fac       __NULL_IMPORT_DESCRIPTOR   10027fac     kernel32:KERNEL32.dll
 0003:00000000       ?rcDefault@CWindow@ATL@@2UtagRECT@@A 10029000     VoiceRecognition.obj
 0003:00000010       ?s_Claim@?7??GetIDsOfNames@CComTypeInfoHolder@ATL@@QAEJABU_GUID@@PAPA_WIKPAJ@Z@4PA_WA 10029010     VoiceRecognition.obj
 0003:00000028       ?s_Release@?7??GetIDsOfNames@CComTypeInfoHolder@ATL@@QAEJABU_GUID@@PAPA_WIKPAJ@Z@4PA_WA 10029028     VoiceRecognition.obj
 0003:00000044       ?_tih@?$IDispatchImpl@UIOPOSVoiceRecognition@@$1?IID_IOPOSVoiceRecognition@@3U_GUID@@B$1?LIBID_OposVoiceRecognition_CCO@@3U3@B$00$0A@VCComTypeInfoHolder@ATL@@@ATL@@1VCComTypeInfoHolder@2@A 10029044     VoiceRecognition.obj
 0003:00000060       ?_tih@?$IProvideClassInfo2Impl@$1?CLSID_OPOSVoiceRecognition@@3U_GUID@@B$1?DIID__IOPOSVoiceRecognitionEvents@@3U2@B$1?LIBID_OposVoiceRecognition_CCO@@3U2@B$00$0A@VCComTypeInfoHolder@ATL@@@ATL@@1VCComTypeInfoHolder@2@A 10029060     VoiceRecognition.obj
 0003:0000007c       ?vszContents@?6??Save@?$IPersistStorageImpl@VCOPOSVoiceRecognition@@@ATL@@UAGJPAUIStorage@@H@Z@4PB_WB 1002907c     VoiceRecognition.obj
 0003:00000080       ?wc@?1??GetWndClassInfo@?$CWindowImpl@VCOPOSVoiceRecognition@@VCWindow@ATL@@V?$CWinTraits@$0FGAAAAAA@$0A@@3@@ATL@@SAAAU_ATL_WNDCLASSINFOW@3@XZ@4U43@A 10029080     VoiceRecognition.obj
 0003:00000158       ?g_WindowName@@3PA_WA      10029158     VoiceRecognitionImpl.obj
 0003:00000188       ?g_ControlDescription@@3PADA 10029188     VoiceRecognitionImpl.obj
 0003:000001c0       ?g_ControlVersion@@3JA     100291c0     VoiceRecognitionImpl.obj
 0003:00000228       ___scrt_native_dllmain_reason 10029228     LIBCMT:utility.obj
 0003:0000022c       __Init_global_epoch        1002922c     LIBCMT:thread_safe_statics.obj
 0003:00000230       ___security_cookie_complement 10029230     LIBCMT:gs_cookie.obj
 0003:00000234       ___security_cookie         10029234     LIBCMT:gs_cookie.obj
 0003:00000238       ___isa_enabled             10029238     LIBCMT:cpu_disp.obj
 0003:00000250       __NLG_Destination          10029250     libvcruntime:exsup.obj
 0003:00000268       ___abort_behavior          10029268     libucrt:abort.obj
 0003:00000278       ___acrt_initial_locale_data 10029278     libucrt:nlsdata.obj
 0003:00000330       ___acrt_initial_locale_pointers 10029330     libucrt:nlsdata.obj
 0003:00000338       ___acrt_wide_c_locale_string 10029338     libucrt:nlsdata.obj
 0003:00000340       __iob                      10029340     libucrt:_file.obj
 0003:000003e8       ___acrt_initial_multibyte_data 100293e8     libucrt:mbctype.obj
 0003:00000908       ___acrt_lconv_c            10029908     libucrt:localeconv.obj
 0003:00000958       ___acrt_lconv_static_decimal 10029958     libucrt:localeconv.obj
 0003:0000095c       ___acrt_lconv_static_W_decimal 1002995c     libucrt:localeconv.obj
 0003:00000960       ___globallocalestatus      10029960     libucrt:glstatus.obj
 0003:00000970       __lookuptrailbytes         10029970     libucrt:read.obj
 0003:00000a80       __fltused                  10029a80     LIBCMT:fltused.obj
 0003:00000a90       ??_R0?AVbad_alloc@std@@@8  10029a90     LIBCMT:throw_bad_alloc.obj
 0003:00000aac       ??_R0?AVexception@std@@@8  10029aac     LIBCMT:throw_bad_alloc.obj
 0003:00000ac8       ??_R0?AVbad_array_new_length@std@@@8 10029ac8     LIBCMT:throw_bad_alloc.obj
 0003:00000af0       ??_R0?AVbad_exception@std@@@8 10029af0     libvcruntime:frame.obj
 0003:00000b10       ??_R0?AVtype_info@@@8      10029b10     LIBCMT:std_type_info_static.obj
 0003:00000b28       ?m_bInitFailed@CAtlBaseModule@ATL@@2_NA 10029b28     OposVariant.obj
 0003:00000b2c       ?_pPerfRegFunc@ATL@@3P6AJPAUHINSTANCE__@@@ZA 10029b2c     OposVariant.obj
 0003:00000b30       ?_pPerfUnRegFunc@ATL@@3P6AJXZA 10029b30     OposVariant.obj
 0003:00000b34       ?_AtlRegisterPerUser@ATL@@3_NA 10029b34     OposVariant.obj
 0003:00000b38       ?_pAtlModule@ATL@@3PAVCAtlModule@1@A 10029b38     OposVariant.obj
 0003:00000b3c       ?_pModule@ATL@@3PAVCComModule@1@A 10029b3c     OposVariant.obj
 0003:00000b40       ?_AtlComModule@ATL@@3VCAtlComModule@1@A 10029b40     OposVariant.obj
 0003:00000b68       ?_AtlWinModule@ATL@@3VCAtlWinModule@1@A 10029b68     OposVariant.obj
 0003:00000b94       ?m_libid@CAtlModule@ATL@@2U_GUID@@A 10029b94     VoiceRecognition.obj
 0003:00000ba4       ?_entries@?1??GetConnMap@COPOSVoiceRecognition@@SAPBU_ATL_CONNMAP_ENTRY@ATL@@PAH@Z@4QBU34@B 10029ba4     VoiceRecognition.obj
 0003:00000bb0       ?$TSS0@?1??GetConnMap@COPOSVoiceRecognition@@SAPBU_ATL_CONNMAP_ENTRY@ATL@@PAH@Z@4HA 10029bb0     VoiceRecognition.obj
 0003:00000bb8       ?_OptionsStorage@?1??__local_stdio_printf_options@@9@4_KA 10029bb8     VoiceRecognition.obj
 0003:00000bc0       ?pfnRegDeleteKeyEx@?1??DeleteSubKey@CRegKey@ATL@@QAEJPB_W@Z@4P6GJPAUHKEY__@@0KK@ZA 10029bc0     VoiceRecognition.obj
 0003:00000bc4       ?bInitialized@?1??DeleteSubKey@CRegKey@ATL@@QAEJPB_W@Z@4_NA 10029bc4     VoiceRecognition.obj
 0003:00000bc8       ?_Module@@3VCComModule@ATL@@A 10029bc8     VoiceRecognition.obj
 0003:00000bf8       ?pConnMap@?$IConnectionPointContainerImpl@VCOPOSVoiceRecognition@@@ATL@@0PBU_ATL_CONNMAP_ENTRY@2@B 10029bf8     VoiceRecognition.obj
 0003:00000bfc       ?s_nInstances@COPOSVoiceRecognition@@1HA 10029bfc     VoiceRecognitionImpl.obj
 0003:00000c00       ___scrt_current_native_startup_state 10029c00     LIBCMT:utility.obj
 0003:00000c04       ___scrt_native_startup_lock 10029c04     LIBCMT:utility.obj
 0003:00000f6c       __tls_index                10029f6c     LIBCMT:tlssup.obj
 0003:00000f74       ___isa_available           10029f74     LIBCMT:cpu_disp.obj
 0003:00000f78       ___favor                   10029f78     LIBCMT:cpu_disp.obj
 0003:00000f7c       ___scrt_debugger_hook_flag 10029f7c     LIBCMT:utility_desktop.obj
 0003:00000f80       ?__type_info_root_node@@3U__type_info_node@@A 10029f80     LIBCMT:tncleanup.obj
 0003:00000f88       ?_OptionsStorage@?1??__local_stdio_scanf_options@@9@4_KA 10029f88     LIBCMT:default_local_stdio_options.obj
 0003:00000f90       ?_AtlBaseModule@ATL@@3VCAtlBaseModule@1@A 10029f90     atls:atlbase.obj
 0003:00000fc8       ?__AtlThunkPool@@3PAT_SLIST_HEADER@@A 10029fc8     atls:atlthunk.obj
 0003:00000fe0       ___@@_PchSym_@00@UzABUPdlipUBAUhUrmgvinvwrzgvUexgllohUzgohOmzgrevkilqPBACIAJCBDBUlyqiUcIGUhgwzucOlyq@4B2008FD98C1DD4 10029fe0     atls:stdafx.obj
 0003:00000fe4       ?__WinRTOutOfMemoryExceptionCallback@@3P6GPAXXZA 10029fe4     libvcruntime:ehhelpers.obj
 0003:00000fe8       ___pPurecall               10029fe8     libvcruntime:purevirt_data.obj
 0003:00001030       ?m_pGetParameter@UnDecorator@@0P6APADJ@ZA 1002a030     libvcruntime:undname.obj
 0003:00001034       ?m_CHPENameOffset@UnDecorator@@0KA 1002a034     libvcruntime:undname.obj
 0003:00001038       ?m_recursionLevel@UnDecorator@@0KA 1002a038     libvcruntime:undname.obj
 0003:0000103c       ?pArgList@UnDecorator@@0PAVReplicator@@A 1002a03c     libvcruntime:undname.obj
 0003:00001040       ?pZNameList@UnDecorator@@0PAVReplicator@@A 1002a040     libvcruntime:undname.obj
 0003:00001044       ?pTemplateArgList@UnDecorator@@0PAVReplicator@@A 1002a044     libvcruntime:undname.obj
 0003:00001048       ?gName@UnDecorator@@0PBDB  1002a048     libvcruntime:undname.obj
 0003:0000104c       ?name@UnDecorator@@0PBDB   1002a04c     libvcruntime:undname.obj
 0003:00001050       ?disableFlags@UnDecorator@@0KA 1002a050     libvcruntime:undname.obj
 0003:00001054       ?fExplicitTemplateParams@UnDecorator@@0_NA 1002a054     libvcruntime:undname.obj
 0003:00001055       ?fGetTemplateArgumentList@UnDecorator@@0_NA 1002a055     libvcruntime:undname.obj
 0003:00001098       ?c_exit_complete@?1???R<lambda_6e4b09c48022b2350581041d5f6b0c4c>@@QBE@XZ@4_NA 1002a098     libucrt:exit.obj
 0003:000011a8       __environ_table            1002a1a8     libucrt:environment_initialization.obj
 0003:000011ac       __wenviron_table           1002a1ac     libucrt:environment_initialization.obj
 0003:000011b0       ___dcrt_initial_wide_environment 1002a1b0     libucrt:environment_initialization.obj
 0003:000011b4       ___dcrt_initial_narrow_environment 1002a1b4     libucrt:environment_initialization.obj
 0003:000011b8       ___acrt_atexit_table       1002a1b8     libucrt:onexit.obj
 0003:000011c4       ___acrt_at_quick_exit_table 1002a1c4     libucrt:onexit.obj
 0003:000011d4       ___acrt_locale_changed_data 1002a1d4     libucrt:wsetlocale.obj
 0003:000011d8       ___acrt_current_locale_data 1002a1d8     libucrt:nlsdata.obj
 0003:000012c0       __nstream                  1002a2c0     libucrt:_file.obj
 0003:000012c4       ___piob                    1002a2c4     libucrt:_file.obj
 0003:000012cc       ___acrt_stdout_buffer      1002a2cc     libucrt:_sftbuf.obj
 0003:000012d0       ___acrt_stderr_buffer      1002a2d0     libucrt:_sftbuf.obj
 0003:000012d8       ___pioinfo                 1002a2d8     libucrt:ioinit.obj
 0003:000014d8       __nhandle                  1002a4d8     libucrt:ioinit.obj
 0003:00001634       __mbctype                  1002a634     libucrt:mbctype.obj
 0003:00001638       __mbcasemap                1002a638     libucrt:mbctype.obj
 0003:0000163c       ___acrt_current_multibyte_data 1002a63c     libucrt:mbctype.obj
 0003:00001648       __pgmptr                   1002a648     libucrt:argv_data.obj
 0003:0000164c       ___argc                    1002a64c     libucrt:argv_data.obj
 0003:00001650       ___argv                    1002a650     libucrt:argv_data.obj
 0003:00001654       ___wargv                   1002a654     libucrt:argv_data.obj
 0003:00001658       __acmdln                   1002a658     libucrt:argv_data.obj
 0003:0000165c       __wcmdln                   1002a65c     libucrt:argv_data.obj
 0003:00001660       ___acrt_heap               1002a660     libucrt:heap_handle.obj
 0003:00001678       ___acrt_lconv_static_null  1002a678     libucrt:localeconv.obj
 0003:0000167c       ___acrt_lconv_static_W_null 1002a67c     libucrt:localeconv.obj
 0003:00001690       ___fastflag                1002a690     libucrt:fp_flags.obj
 0003:00001698       ___dyn_tls_init_callback   1002a698     <common>
 0003:0000169c       ___scrt_ucrt_dll_is_in_use 1002a69c     <common>
 0003:000016a0       __pmatherr                 1002a6a0     <common>
 0003:000016a4       ___use_sse2_mathfcns       1002a6a4     <common>

 entry point at        0001:0000be9b

 Static symbols

 0000:fffcf000       .debug$S                   10000000     OPOSVoiceRecognition.exp
 0000:fffcf000       .debug$S                   10000000     advapi32:ADVAPI32.dll
 0000:fffcf000       .debug$S                   10000000     advapi32:ADVAPI32.dll
 0000:fffcf000       .debug$S                   10000000     advapi32:ADVAPI32.dll
 0000:fffcf000       .debug$S                   10000000     advapi32:ADVAPI32.dll
 0000:fffcf000       .debug$S                   10000000     advapi32:ADVAPI32.dll
 0000:fffcf000       .debug$S                   10000000     advapi32:ADVAPI32.dll
 0000:fffcf000       .debug$S                   10000000     advapi32:ADVAPI32.dll
 0000:fffcf000       .debug$S                   10000000     advapi32:ADVAPI32.dll
 0000:fffcf000       .debug$S                   10000000     advapi32:ADVAPI32.dll
 0000:fffcf000       .debug$S                   10000000     gdi32:GDI32.dll
 0000:fffcf000       .debug$S                   10000000     gdi32:GDI32.dll
 0000:fffcf000       .debug$S                   10000000     gdi32:GDI32.dll
 0000:fffcf000       .debug$S                   10000000     gdi32:GDI32.dll
 0000:fffcf000       .debug$S                   10000000     gdi32:GDI32.dll
 0000:fffcf000       .debug$S                   10000000     gdi32:GDI32.dll
 0000:fffcf000       .debug$S                   10000000     gdi32:GDI32.dll
 0000:fffcf000       .debug$S                   10000000     gdi32:GDI32.dll
 0000:fffcf000       .debug$S                   10000000     gdi32:GDI32.dll
 0000:fffcf000       .debug$S                   10000000     gdi32:GDI32.dll
 0000:fffcf000       .debug$S                   10000000     gdi32:GDI32.dll
 0000:fffcf000       .debug$S                   10000000     gdi32:GDI32.dll
 0000:fffcf000       .debug$S                   10000000     gdi32:GDI32.dll
 0000:fffcf000       .debug$S                   10000000     gdi32:GDI32.dll
 0000:fffcf000       .debug$S                   10000000     gdi32:GDI32.dll
 0000:fffcf000       .debug$S                   10000000     gdi32:GDI32.dll
 0000:fffcf000       .debug$S                   10000000     gdi32:GDI32.dll
 0000:fffcf000       .debug$S                   10000000     gdi32:GDI32.dll
 0000:fffcf000       .debug$S                   10000000     gdi32:GDI32.dll
 0000:fffcf000       .debug$S                   10000000     kernel32:KERNEL32.dll
 0000:fffcf000       .debug$S                   10000000     kernel32:KERNEL32.dll
 0000:fffcf000       .debug$S                   10000000     kernel32:KERNEL32.dll
 0000:fffcf000       .debug$S                   10000000     kernel32:KERNEL32.dll
 0000:fffcf000       .debug$S                   10000000     kernel32:KERNEL32.dll
 0000:fffcf000       .debug$S                   10000000     kernel32:KERNEL32.dll
 0000:fffcf000       .debug$S                   10000000     kernel32:KERNEL32.dll
 0000:fffcf000       .debug$S                   10000000     kernel32:KERNEL32.dll
 0000:fffcf000       .debug$S                   10000000     kernel32:KERNEL32.dll
 0000:fffcf000       .debug$S                   10000000     kernel32:KERNEL32.dll
 0000:fffcf000       .debug$S                   10000000     kernel32:KERNEL32.dll
 0000:fffcf000       .debug$S                   10000000     kernel32:KERNEL32.dll
 0000:fffcf000       .debug$S                   10000000     kernel32:KERNEL32.dll
 0000:fffcf000       .debug$S                   10000000     kernel32:KERNEL32.dll
 0000:fffcf000       .debug$S                   10000000     kernel32:KERNEL32.dll
 0000:fffcf000       .debug$S                   10000000     kernel32:KERNEL32.dll
 0000:fffcf000       .debug$S                   10000000     kernel32:KERNEL32.dll
 0000:fffcf000       .debug$S                   10000000     kernel32:KERNEL32.dll
 0000:fffcf000       .debug$S                   10000000     kernel32:KERNEL32.dll
 0000:fffcf000       .debug$S                   10000000     kernel32:KERNEL32.dll
 0000:fffcf000       .debug$S                   10000000     kernel32:KERNEL32.dll
 0000:fffcf000       .debug$S                   10000000     kernel32:KERNEL32.dll
 0000:fffcf000       .debug$S                   10000000     kernel32:KERNEL32.dll
 0000:fffcf000       .debug$S                   10000000     kernel32:KERNEL32.dll
 0000:fffcf000       .debug$S                   10000000     kernel32:KERNEL32.dll
 0000:fffcf000       .debug$S                   10000000     kernel32:KERNEL32.dll
 0000:fffcf000       .debug$S                   10000000     kernel32:KERNEL32.dll
 0000:fffcf000       .debug$S                   10000000     kernel32:KERNEL32.dll
 0000:fffcf000       .debug$S                   10000000     kernel32:KERNEL32.dll
 0000:fffcf000       .debug$S                   10000000     kernel32:KERNEL32.dll
 0000:fffcf000       .debug$S                   10000000     kernel32:KERNEL32.dll
 0000:fffcf000       .debug$S                   10000000     kernel32:KERNEL32.dll
 0000:fffcf000       .debug$S                   10000000     kernel32:KERNEL32.dll
 0000:fffcf000       .debug$S                   10000000     kernel32:KERNEL32.dll
 0000:fffcf000       .debug$S                   10000000     kernel32:KERNEL32.dll
 0000:fffcf000       .debug$S                   10000000     kernel32:KERNEL32.dll
 0000:fffcf000       .debug$S                   10000000     kernel32:KERNEL32.dll
 0000:fffcf000       .debug$S                   10000000     kernel32:KERNEL32.dll
 0000:fffcf000       .debug$S                   10000000     kernel32:KERNEL32.dll
 0000:fffcf000       .debug$S                   10000000     kernel32:KERNEL32.dll
 0000:fffcf000       .debug$S                   10000000     kernel32:KERNEL32.dll
 0000:fffcf000       .debug$S                   10000000     kernel32:KERNEL32.dll
 0000:fffcf000       .debug$S                   10000000     kernel32:KERNEL32.dll
 0000:fffcf000       .debug$S                   10000000     kernel32:KERNEL32.dll
 0000:fffcf000       .debug$S                   10000000     kernel32:KERNEL32.dll
 0000:fffcf000       .debug$S                   10000000     kernel32:KERNEL32.dll
 0000:fffcf000       .debug$S                   10000000     kernel32:KERNEL32.dll
 0000:fffcf000       .debug$S                   10000000     kernel32:KERNEL32.dll
 0000:fffcf000       .debug$S                   10000000     kernel32:KERNEL32.dll
 0000:fffcf000       .debug$S                   10000000     kernel32:KERNEL32.dll
 0000:fffcf000       .debug$S                   10000000     kernel32:KERNEL32.dll
 0000:fffcf000       .debug$S                   10000000     kernel32:KERNEL32.dll
 0000:fffcf000       .debug$S                   10000000     kernel32:KERNEL32.dll
 0000:fffcf000       .debug$S                   10000000     kernel32:KERNEL32.dll
 0000:fffcf000       .debug$S                   10000000     kernel32:KERNEL32.dll
 0000:fffcf000       .debug$S                   10000000     kernel32:KERNEL32.dll
 0000:fffcf000       .debug$S                   10000000     kernel32:KERNEL32.dll
 0000:fffcf000       .debug$S                   10000000     kernel32:KERNEL32.dll
 0000:fffcf000       .debug$S                   10000000     kernel32:KERNEL32.dll
 0000:fffcf000       .debug$S                   10000000     kernel32:KERNEL32.dll
 0000:fffcf000       .debug$S                   10000000     kernel32:KERNEL32.dll
 0000:fffcf000       .debug$S                   10000000     kernel32:KERNEL32.dll
 0000:fffcf000       .debug$S                   10000000     kernel32:KERNEL32.dll
 0000:fffcf000       .debug$S                   10000000     kernel32:KERNEL32.dll
 0000:fffcf000       .debug$S                   10000000     kernel32:KERNEL32.dll
 0000:fffcf000       .debug$S                   10000000     kernel32:KERNEL32.dll
 0000:fffcf000       .debug$S                   10000000     kernel32:KERNEL32.dll
 0000:fffcf000       .debug$S                   10000000     kernel32:KERNEL32.dll
 0000:fffcf000       .debug$S                   10000000     kernel32:KERNEL32.dll
 0000:fffcf000       .debug$S                   10000000     kernel32:KERNEL32.dll
 0000:fffcf000       .debug$S                   10000000     kernel32:KERNEL32.dll
 0000:fffcf000       .debug$S                   10000000     kernel32:KERNEL32.dll
 0000:fffcf000       .debug$S                   10000000     kernel32:KERNEL32.dll
 0000:fffcf000       .debug$S                   10000000     kernel32:KERNEL32.dll
 0000:fffcf000       .debug$S                   10000000     kernel32:KERNEL32.dll
 0000:fffcf000       .debug$S                   10000000     kernel32:KERNEL32.dll
 0000:fffcf000       .debug$S                   10000000     kernel32:KERNEL32.dll
 0000:fffcf000       .debug$S                   10000000     kernel32:KERNEL32.dll
 0000:fffcf000       .debug$S                   10000000     kernel32:KERNEL32.dll
 0000:fffcf000       .debug$S                   10000000     kernel32:KERNEL32.dll
 0000:fffcf000       .debug$S                   10000000     kernel32:KERNEL32.dll
 0000:fffcf000       .debug$S                   10000000     kernel32:KERNEL32.dll
 0000:fffcf000       .debug$S                   10000000     kernel32:KERNEL32.dll
 0000:fffcf000       .debug$S                   10000000     kernel32:KERNEL32.dll
 0000:fffcf000       .debug$S                   10000000     kernel32:KERNEL32.dll
 0000:fffcf000       .debug$S                   10000000     kernel32:KERNEL32.dll
 0000:fffcf000       .debug$S                   10000000     kernel32:KERNEL32.dll
 0000:fffcf000       .debug$S                   10000000     kernel32:KERNEL32.dll
 0000:fffcf000       .debug$S                   10000000     kernel32:KERNEL32.dll
 0000:fffcf000       .debug$S                   10000000     kernel32:KERNEL32.dll
 0000:fffcf000       .debug$S                   10000000     kernel32:KERNEL32.dll
 0000:fffcf000       .debug$S                   10000000     kernel32:KERNEL32.dll
 0000:fffcf000       .debug$S                   10000000     kernel32:KERNEL32.dll
 0000:fffcf000       .debug$S                   10000000     kernel32:KERNEL32.dll
 0000:fffcf000       .debug$S                   10000000     kernel32:KERNEL32.dll
 0000:fffcf000       .debug$S                   10000000     kernel32:KERNEL32.dll
 0000:fffcf000       .debug$S                   10000000     kernel32:KERNEL32.dll
 0000:fffcf000       .debug$S                   10000000     kernel32:KERNEL32.dll
 0000:fffcf000       .debug$S                   10000000     kernel32:KERNEL32.dll
 0000:fffcf000       .debug$S                   10000000     kernel32:KERNEL32.dll
 0000:fffcf000       .debug$S                   10000000     kernel32:KERNEL32.dll
 0000:fffcf000       .debug$S                   10000000     kernel32:KERNEL32.dll
 0000:fffcf000       .debug$S                   10000000     kernel32:KERNEL32.dll
 0000:fffcf000       .debug$S                   10000000     kernel32:KERNEL32.dll
 0000:fffcf000       .debug$S                   10000000     kernel32:KERNEL32.dll
 0000:fffcf000       .debug$S                   10000000     kernel32:KERNEL32.dll
 0000:fffcf000       .debug$S                   10000000     ole32:ole32.dll
 0000:fffcf000       .debug$S                   10000000     ole32:ole32.dll
 0000:fffcf000       .debug$S                   10000000     ole32:ole32.dll
 0000:fffcf000       .debug$S                   10000000     ole32:ole32.dll
 0000:fffcf000       .debug$S                   10000000     ole32:ole32.dll
 0000:fffcf000       .debug$S                   10000000     ole32:ole32.dll
 0000:fffcf000       .debug$S                   10000000     ole32:ole32.dll
 0000:fffcf000       .debug$S                   10000000     ole32:ole32.dll
 0000:fffcf000       .debug$S                   10000000     ole32:ole32.dll
 0000:fffcf000       .debug$S                   10000000     ole32:ole32.dll
 0000:fffcf000       .debug$S                   10000000     ole32:ole32.dll
 0000:fffcf000       .debug$S                   10000000     ole32:ole32.dll
 0000:fffcf000       .debug$S                   10000000     ole32:ole32.dll
 0000:fffcf000       .debug$S                   10000000     ole32:ole32.dll
 0000:fffcf000       .debug$S                   10000000     oleaut32:OLEAUT32.dll
 0000:fffcf000       .debug$S                   10000000     oleaut32:OLEAUT32.dll
 0000:fffcf000       .debug$S                   10000000     oleaut32:OLEAUT32.dll
 0000:fffcf000       .debug$S                   10000000     oleaut32:OLEAUT32.dll
 0000:fffcf000       .debug$S                   10000000     oleaut32:OLEAUT32.dll
 0000:fffcf000       .debug$S                   10000000     oleaut32:OLEAUT32.dll
 0000:fffcf000       .debug$S                   10000000     oleaut32:OLEAUT32.dll
 0000:fffcf000       .debug$S                   10000000     oleaut32:OLEAUT32.dll
 0000:fffcf000       .debug$S                   10000000     oleaut32:OLEAUT32.dll
 0000:fffcf000       .debug$S                   10000000     oleaut32:OLEAUT32.dll
 0000:fffcf000       .debug$S                   10000000     oleaut32:OLEAUT32.dll
 0000:fffcf000       .debug$S                   10000000     oleaut32:OLEAUT32.dll
 0000:fffcf000       .debug$S                   10000000     oleaut32:OLEAUT32.dll
 0000:fffcf000       .debug$S                   10000000     oleaut32:OLEAUT32.dll
 0000:fffcf000       .debug$S                   10000000     oleaut32:OLEAUT32.dll
 0000:fffcf000       .debug$S                   10000000     oleaut32:OLEAUT32.dll
 0000:fffcf000       .debug$S                   10000000     user32:USER32.dll
 0000:fffcf000       .debug$S                   10000000     user32:USER32.dll
 0000:fffcf000       .debug$S                   10000000     user32:USER32.dll
 0000:fffcf000       .debug$S                   10000000     user32:USER32.dll
 0000:fffcf000       .debug$S                   10000000     user32:USER32.dll
 0000:fffcf000       .debug$S                   10000000     user32:USER32.dll
 0000:fffcf000       .debug$S                   10000000     user32:USER32.dll
 0000:fffcf000       .debug$S                   10000000     user32:USER32.dll
 0000:fffcf000       .debug$S                   10000000     user32:USER32.dll
 0000:fffcf000       .debug$S                   10000000     user32:USER32.dll
 0000:fffcf000       .debug$S                   10000000     user32:USER32.dll
 0000:fffcf000       .debug$S                   10000000     user32:USER32.dll
 0000:fffcf000       .debug$S                   10000000     user32:USER32.dll
 0000:fffcf000       .debug$S                   10000000     user32:USER32.dll
 0000:fffcf000       .debug$S                   10000000     user32:USER32.dll
 0000:fffcf000       .debug$S                   10000000     user32:USER32.dll
 0000:fffcf000       .debug$S                   10000000     user32:USER32.dll
 0000:fffcf000       .debug$S                   10000000     user32:USER32.dll
 0000:fffcf000       .debug$S                   10000000     user32:USER32.dll
 0000:fffcf000       .debug$S                   10000000     user32:USER32.dll
 0000:fffcf000       .debug$S                   10000000     user32:USER32.dll
 0000:fffcf000       .debug$S                   10000000     user32:USER32.dll
 0000:fffcf000       .debug$S                   10000000     user32:USER32.dll
 0000:fffcf000       .debug$S                   10000000     user32:USER32.dll
 0000:fffcf000       .debug$S                   10000000     user32:USER32.dll
 0000:fffcf000       .debug$S                   10000000     user32:USER32.dll
 0000:fffcf000       .debug$S                   10000000     user32:USER32.dll
 0000:fffcf000       .debug$S                   10000000     user32:USER32.dll
 0000:fffcf000       .debug$S                   10000000     user32:USER32.dll
 0000:fffcf000       .debug$S                   10000000     user32:USER32.dll
 0000:fffcf000       .debug$S                   10000000     user32:USER32.dll
 0000:fffcf000       .debug$S                   10000000     user32:USER32.dll
 0000:fffcf000       .debug$S                   10000000     user32:USER32.dll
 0000:fffcf000       .debug$S                   10000000     user32:USER32.dll
 0000:fffcf000       .debug$S                   10000000     user32:USER32.dll
 0001:00000000       ??__E_AtlComModule@ATL@@YAXXZ 10001000 f   OposVariant.obj
 0001:00000016       ??__E_AtlWinModule@ATL@@YAXXZ 10001016 f   OposVariant.obj
 0001:0000002c       ??__E?pConnMap@?$IConnectionPointContainerImpl@VCOPOSVoiceRecognition@@@ATL@@0PBU_ATL_CONNMAP_ENTRY@2@B@@YAXXZ 1000102c f   VoiceRecognition.obj
 0001:0000003a       ??__E_Module@@YAXXZ        1000103a f   VoiceRecognition.obj
 0001:00000064       ??__E_AtlBaseModule@ATL@@YAXXZ 10001064 f   atls:atlbase.obj
 0001:0000139c       $LN24                      1000239c     VoiceRecognition.obj
 0001:00004751       $LN31                      10005751     VoiceRecognition.obj
 0001:00004755       $LN30                      10005755     VoiceRecognition.obj
 0001:00005930       $LN60                      10006930     VoiceRecognition.obj
 0001:00005948       $LN59                      10006948     VoiceRecognition.obj
 0001:00007aea       $LN50                      10008aea     VoiceRecognition.obj
 0001:00007b02       $LN49                      10008b02     VoiceRecognition.obj
 0001:000091c9       $LN88                      1000a1c9     VoiceRecognition.obj
 0001:000091e1       $LN87                      1000a1e1     VoiceRecognition.obj
 0001:000095a1       _memcpy_s                  1000a5a1 f   VoiceRecognition.obj
 0001:0000b337       ?find_pe_section@@YAPAU_IMAGE_SECTION_HEADER@@QAEI@Z 1000c337 f   LIBCMT:utility.obj
 0001:0000b656       ?__scrt_initialize_thread_safe_statics@@YAHXZ 1000c656 f   LIBCMT:thread_safe_statics.obj
 0001:0000b67d       ?__scrt_initialize_thread_safe_statics_platform_specific@@YAXXZ 1000c67d f   LIBCMT:thread_safe_statics.obj
 0001:0000b6ff       ?__scrt_uninitialize_thread_safe_statics@@YAXXZ 1000c6ff f   LIBCMT:thread_safe_statics.obj
 0001:0000ba70       __catch$??2@YAPAXIABUnothrow_t@std@@@Z$0 1000ca70 f   LIBCMT:new_scalar_nothrow.obj
 0001:0000bab0       $$000000                   1000cab0     LIBCMT:sehprolg4gs.obj
 0001:0000bb00       $$000000                   1000cb00     LIBCMT:alloca16.obj
 0001:0000bb16       alloca_8                   1000cb16     LIBCMT:alloca16.obj
 0001:0000bb30       $$000000                   1000cb30     LIBCMT:chkstk.obj
 0001:0000bb44       cs10                       1000cb44     LIBCMT:chkstk.obj
 0001:0000bb52       cs20                       1000cb52     LIBCMT:chkstk.obj
 0001:0000bb5b       ?dllmain_crt_dispatch@@YGHQAUHINSTANCE__@@KQAX@Z 1000cb5b f   LIBCMT:dll_dllmain.obj
 0001:0000bbae       ?dllmain_crt_process_attach@@YAHQAUHINSTANCE__@@QAX@Z 1000cbae f   LIBCMT:dll_dllmain.obj
 0001:0000bcb5       ?dllmain_crt_process_detach@@YAH_N@Z 1000ccb5 f   LIBCMT:dll_dllmain.obj
 0001:0000bd65       ?dllmain_dispatch@@YAHQAUHINSTANCE__@@KQAX@Z 1000cd65 f   LIBCMT:dll_dllmain.obj
 0001:0000be70       ?dllmain_raw@@YGHQAUHINSTANCE__@@KQAX@Z 1000ce70 f   LIBCMT:dll_dllmain.obj
 0001:0000c200       $$000000                   1000d200     LIBCMT:sehprolg4.obj
 0001:0000c248       ___get_entropy             1000d248 f   LIBCMT:gs_support.obj
 0001:0000c53f       ??$GetProcAddressAll@P6GP6GJPAUHWND__@@IIJ@ZPAUAtlThunkData_t@@@Z@@YAP6GP6GJPAUHWND__@@IIJ@ZPAUAtlThunkData_t@@@ZPAP6GP6GJ0IIJ@Z1@Z@Z 1000d53f f   atls:atlthunk.obj
 0001:0000c53f       ??$GetProcAddressAll@P6GPAUAtlThunkData_t@@XZ@@YAP6GPAUAtlThunkData_t@@XZPAP6GPAU0@XZ@Z 1000d53f f   atls:atlthunk.obj
 0001:0000c53f       ??$GetProcAddressAll@P6GXPAUAtlThunkData_t@@@Z@@YAP6GXPAUAtlThunkData_t@@@ZPAP6GX0@Z@Z 1000d53f f   atls:atlthunk.obj
 0001:0000c53f       ??$GetProcAddressAll@P6GXPAUAtlThunkData_t@@PAXI@Z@@YAP6GXPAUAtlThunkData_t@@PAXI@ZPAP6GX01I@Z@Z 1000d53f f   atls:atlthunk.obj
 0001:0000c5ef       ?GetProcAddressSingle@@YA_NPAUHINSTANCE__@@PBDPAPAX@Z 1000d5ef f   atls:atlthunk.obj
 0001:0000c741       ?__InitializeThunkPool@@YAHXZ 1000d741 f   atls:atlthunk.obj
 0001:0000cba0       _ValidateLocalCookies      1000dba0 f   libvcruntime:chandler4.obj
 0001:0000e33a       $LN1250                    1000f33a     libvcruntime:memcmp.obj
 0001:0000e3c0       $$000000                   1000f3c0     libvcruntime:memcpy.obj
 0001:0000e3c0       $$000000                   1000f3c0     libvcruntime:memmove.obj
 0001:0000e3e0       CopyUp                     1000f3e0     libvcruntime:memcpy.obj
 0001:0000e3e0       CopyUp                     1000f3e0     libvcruntime:memmove.obj
 0001:0000e404       CopyUpLargeMov             1000f404     libvcruntime:memcpy.obj
 0001:0000e404       CopyUpLargeMov             1000f404     libvcruntime:memmove.obj
 0001:0000e417       CopyUpSSE2Check            1000f417     libvcruntime:memcpy.obj
 0001:0000e417       CopyUpSSE2Check            1000f417     libvcruntime:memmove.obj
 0001:0000e430       AtomChk                    1000f430     libvcruntime:memcpy.obj
 0001:0000e430       AtomChk                    1000f430     libvcruntime:memmove.obj
 0001:0000e456       PalignHead4                1000f456     libvcruntime:memcpy.obj
 0001:0000e456       PalignHead4                1000f456     libvcruntime:memmove.obj
 0001:0000e469       PalignHead8                1000f469     libvcruntime:memcpy.obj
 0001:0000e469       PalignHead8                1000f469     libvcruntime:memmove.obj
 0001:0000e480       PalignLoop                 1000f480     libvcruntime:memcpy.obj
 0001:0000e480       PalignLoop                 1000f480     libvcruntime:memmove.obj
 0001:0000e492       MovPalign12                1000f492     libvcruntime:memcpy.obj
 0001:0000e492       MovPalign12                1000f492     libvcruntime:memmove.obj
 0001:0000e49c       PalignLoop12               1000f49c     libvcruntime:memcpy.obj
 0001:0000e49c       PalignLoop12               1000f49c     libvcruntime:memmove.obj
 0001:0000e4ed       MovPalign8                 1000f4ed     libvcruntime:memcpy.obj
 0001:0000e4ed       MovPalign8                 1000f4ed     libvcruntime:memmove.obj
 0001:0000e4f8       PalignLoop8                1000f4f8     libvcruntime:memcpy.obj
 0001:0000e4f8       PalignLoop8                1000f4f8     libvcruntime:memmove.obj
 0001:0000e546       MovPalign4                 1000f546     libvcruntime:memcpy.obj
 0001:0000e546       MovPalign4                 1000f546     libvcruntime:memmove.obj
 0001:0000e550       PalignLoop4                1000f550     libvcruntime:memcpy.obj
 0001:0000e550       PalignLoop4                1000f550     libvcruntime:memmove.obj
 0001:0000e59c       PalignTail                 1000f59c     libvcruntime:memcpy.obj
 0001:0000e59c       PalignTail                 1000f59c     libvcruntime:memmove.obj
 0001:0000e5b4       PalignTail4                1000f5b4     libvcruntime:memcpy.obj
 0001:0000e5b4       PalignTail4                1000f5b4     libvcruntime:memmove.obj
 0001:0000e5c7       PalignTail8                1000f5c7     libvcruntime:memcpy.obj
 0001:0000e5c7       PalignTail8                1000f5c7     libvcruntime:memmove.obj
 0001:0000e5de       PalignTailLE3              1000f5de     libvcruntime:memcpy.obj
 0001:0000e5de       PalignTailLE3              1000f5de     libvcruntime:memmove.obj
 0001:0000e5e7       Dword_align                1000f5e7     libvcruntime:memcpy.obj
 0001:0000e5e7       Dword_align                1000f5e7     libvcruntime:memmove.obj
 0001:0000e5ef       Dword_up_align_loop        1000f5ef     libvcruntime:memcpy.obj
 0001:0000e5ef       Dword_up_align_loop        1000f5ef     libvcruntime:memmove.obj
 0001:0000e602       Dword_align_Ok             1000f602     libvcruntime:memcpy.obj
 0001:0000e602       Dword_align_Ok             1000f602     libvcruntime:memmove.obj
 0001:0000e61c       ByteCopyUp                 1000f61c     libvcruntime:memcpy.obj
 0001:0000e61c       ByteCopyUp                 1000f61c     libvcruntime:memmove.obj
 0001:0000e624       TrailingUpVec              1000f624     libvcruntime:memcpy.obj
 0001:0000e624       TrailingUpVec              1000f624     libvcruntime:memmove.obj
 0001:0000e634       TrailingUp0                1000f634     libvcruntime:memcpy.obj
 0001:0000e634       TrailingUp0                1000f634     libvcruntime:memmove.obj
 0001:0000e63c       TrailingUp1                1000f63c     libvcruntime:memcpy.obj
 0001:0000e63c       TrailingUp1                1000f63c     libvcruntime:memmove.obj
 0001:0000e648       TrailingUp2                1000f648     libvcruntime:memcpy.obj
 0001:0000e648       TrailingUp2                1000f648     libvcruntime:memmove.obj
 0001:0000e65c       TrailingUp3                1000f65c     libvcruntime:memcpy.obj
 0001:0000e65c       TrailingUp3                1000f65c     libvcruntime:memmove.obj
 0001:0000e674       CopyDown                   1000f674     libvcruntime:memcpy.obj
 0001:0000e674       CopyDown                   1000f674     libvcruntime:memmove.obj
 0001:0000e699       CopyDownNotAligned         1000f699     libvcruntime:memcpy.obj
 0001:0000e699       CopyDownNotAligned         1000f699     libvcruntime:memmove.obj
 0001:0000e6a0       CopyDownAlignLoop          1000f6a0     libvcruntime:memcpy.obj
 0001:0000e6a0       CopyDownAlignLoop          1000f6a0     libvcruntime:memmove.obj
 0001:0000e6ad       CopyDownAligned            1000f6ad     libvcruntime:memcpy.obj
 0001:0000e6ad       CopyDownAligned            1000f6ad     libvcruntime:memmove.obj
 0001:0000e6d0       TrailingDownVec            1000f6d0     libvcruntime:memcpy.obj
 0001:0000e6d0       TrailingDownVec            1000f6d0     libvcruntime:memmove.obj
 0001:0000e6e0       TrailingDown0              1000f6e0     libvcruntime:memcpy.obj
 0001:0000e6e0       TrailingDown0              1000f6e0     libvcruntime:memmove.obj
 0001:0000e6e8       TrailingDown1              1000f6e8     libvcruntime:memcpy.obj
 0001:0000e6e8       TrailingDown1              1000f6e8     libvcruntime:memmove.obj
 0001:0000e6f8       TrailingDown2              1000f6f8     libvcruntime:memcpy.obj
 0001:0000e6f8       TrailingDown2              1000f6f8     libvcruntime:memmove.obj
 0001:0000e70c       TrailingDown3              1000f70c     libvcruntime:memcpy.obj
 0001:0000e70c       TrailingDown3              1000f70c     libvcruntime:memmove.obj
 0001:0000e725       XmmMovLargeAlignTest       1000f725     libvcruntime:memcpy.obj
 0001:0000e725       XmmMovLargeAlignTest       1000f725     libvcruntime:memmove.obj
 0001:0000e72d       XmmMovAlignLoop            1000f72d     libvcruntime:memcpy.obj
 0001:0000e72d       XmmMovAlignLoop            1000f72d     libvcruntime:memmove.obj
 0001:0000e73c       XmmMovLargeLoop            1000f73c     libvcruntime:memcpy.obj
 0001:0000e73c       XmmMovLargeLoop            1000f73c     libvcruntime:memmove.obj
 0001:0000e7ac       XmmMovSmallTest            1000f7ac     libvcruntime:memcpy.obj
 0001:0000e7ac       XmmMovSmallTest            1000f7ac     libvcruntime:memmove.obj
 0001:0000e7b1       XmmMovSmallLoop            1000f7b1     libvcruntime:memcpy.obj
 0001:0000e7b1       XmmMovSmallLoop            1000f7b1     libvcruntime:memmove.obj
 0001:0000e7d4       CopyDownSmall              1000f7d4     libvcruntime:memcpy.obj
 0001:0000e7d4       CopyDownSmall              1000f7d4     libvcruntime:memmove.obj
 0001:0000e7dc       CopyDownDwordLoop          1000f7dc     libvcruntime:memcpy.obj
 0001:0000e7dc       CopyDownDwordLoop          1000f7dc     libvcruntime:memmove.obj
 0001:0000e7f1       CopyDownByteTest           1000f7f1     libvcruntime:memcpy.obj
 0001:0000e7f1       CopyDownByteTest           1000f7f1     libvcruntime:memmove.obj
 0001:0000e7f5       CopyDownByteLoop           1000f7f5     libvcruntime:memcpy.obj
 0001:0000e7f5       CopyDownByteLoop           1000f7f5     libvcruntime:memmove.obj
 0001:0000e804       CopyDownReturn             1000f804     libvcruntime:memcpy.obj
 0001:0000e804       CopyDownReturn             1000f804     libvcruntime:memmove.obj
 0001:0000e810       XmmCopy                    1000f810     libvcruntime:memcpy.obj
 0001:0000e810       XmmCopy                    1000f810     libvcruntime:memmove.obj
 0001:0000e81d       XmmCopyAligned             1000f81d     libvcruntime:memcpy.obj
 0001:0000e81d       XmmCopyAligned             1000f81d     libvcruntime:memmove.obj
 0001:0000e830       XmmCopyLargeLoop           1000f830     libvcruntime:memcpy.obj
 0001:0000e830       XmmCopyLargeLoop           1000f830     libvcruntime:memmove.obj
 0001:0000e88d       XmmCopySmallTest           1000f88d     libvcruntime:memcpy.obj
 0001:0000e88d       XmmCopySmallTest           1000f88d     libvcruntime:memmove.obj
 0001:0000e8a0       XmmCopySmallLoop           1000f8a0     libvcruntime:memcpy.obj
 0001:0000e8a0       XmmCopySmallLoop           1000f8a0     libvcruntime:memmove.obj
 0001:0000e8bb       CopyUpDwordMov             1000f8bb     libvcruntime:memcpy.obj
 0001:0000e8bb       CopyUpDwordMov             1000f8bb     libvcruntime:memmove.obj
 0001:0000e8c0       CopyUpDwordTest            1000f8c0     libvcruntime:memcpy.obj
 0001:0000e8c0       CopyUpDwordTest            1000f8c0     libvcruntime:memmove.obj
 0001:0000e8c7       CopyUpDwordLoop            1000f8c7     libvcruntime:memcpy.obj
 0001:0000e8c7       CopyUpDwordLoop            1000f8c7     libvcruntime:memmove.obj
 0001:0000e8d6       CopyUpByteTest             1000f8d6     libvcruntime:memcpy.obj
 0001:0000e8d6       CopyUpByteTest             1000f8d6     libvcruntime:memmove.obj
 0001:0000e8dd       CopyUpByteLoop             1000f8dd     libvcruntime:memcpy.obj
 0001:0000e8dd       CopyUpByteLoop             1000f8dd     libvcruntime:memmove.obj
 0001:0000e8f0       CopyUpReturn               1000f8f0     libvcruntime:memcpy.obj
 0001:0000e8f0       CopyUpReturn               1000f8f0     libvcruntime:memmove.obj
 0001:0000e900       XmmCopyUnaligned           1000f900     libvcruntime:memcpy.obj
 0001:0000e900       XmmCopyUnaligned           1000f900     libvcruntime:memmove.obj
 0001:0000e913       XmmAlignByte               1000f913     libvcruntime:memcpy.obj
 0001:0000e913       XmmAlignByte               1000f913     libvcruntime:memmove.obj
 0001:0000e91c       XmmAlignDwordTest          1000f91c     libvcruntime:memcpy.obj
 0001:0000e91c       XmmAlignDwordTest          1000f91c     libvcruntime:memmove.obj
 0001:0000e921       XmmAlignDwordLoop          1000f921     libvcruntime:memcpy.obj
 0001:0000e921       XmmAlignDwordLoop          1000f921     libvcruntime:memmove.obj
 0001:0000e92e       XmmAlignAdjustCnt          1000f92e     libvcruntime:memcpy.obj
 0001:0000e92e       XmmAlignAdjustCnt          1000f92e     libvcruntime:memmove.obj
 0001:0000e940       $$000000                   1000f940     libvcruntime:memset.obj
 0001:0000e985       XMMMov                     1000f985     libvcruntime:memset.obj
 0001:0000e9c0       LargeRangeBytes            1000f9c0     libvcruntime:memset.obj
 0001:0000e9fd       XmmMovSmall                1000f9fd     libvcruntime:memset.obj
 0001:0000ea10       XmmSmallLoop               1000fa10     libvcruntime:memset.obj
 0001:0000ea15       MidRangeBytes              1000fa15     libvcruntime:memset.obj
 0001:0000ea31       XMMTrailingBytes           1000fa31     libvcruntime:memset.obj
 0001:0000ea45       SmallMov                   1000fa45     libvcruntime:memset.obj
 0001:0000ea4d       ByteLoop                   1000fa4d     libvcruntime:memset.obj
 0001:0000ea5b       DwordTest                  1000fa5b     libvcruntime:memset.obj
 0001:0000ea6b       QwordTest                  1000fa6b     libvcruntime:memset.obj
 0001:0000ea80       QwordLoop                  1000fa80     libvcruntime:memset.obj
 0001:0000ea93       toend                      1000fa93     libvcruntime:memset.obj
 0001:0000ef52       ?_FilterSetCurrentException@@YAKPAU_EXCEPTION_POINTERS@@E@Z 1000ff52 f   libvcruntime:ehhelpers.obj
 0001:0000f1a0       $$000000                   100101a0     libvcruntime:exsup4.obj
 0001:0000f1d2       _lu_top                    100101d2     libvcruntime:exsup4.obj
 0001:0000f231       _lu_done                   10010231     libvcruntime:exsup4.obj
 0001:0000f240       $$000000                   10010240     libvcruntime:exsup4.obj
 0001:0000f240       __unwind_handler4          10010240 f   libvcruntime:exsup4.obj
 0001:0000f290       $$000000                   10010290     libvcruntime:exsup4.obj
 0001:0000f2b0       $$000000                   100102b0     libvcruntime:exsup4.obj
 0001:0000f2d0       $$000000                   100102d0     libvcruntime:exsup4.obj
 0001:0000f2e5       ReturnPoint                100102e5     libvcruntime:exsup4.obj
 0001:0000f2f0       $$000000                   100102f0     libvcruntime:exsup4.obj
 0001:0000f4e2       ??$BuildCatchObjectHelperInternal@V__FrameHandler3@@@@YAHPAUEHExceptionRecord@@PAXPBU_s_HandlerType@@PBU_s_CatchableType@@@Z 100104e2 f   libvcruntime:frame.obj
 0001:0000f620       ??$BuildCatchObjectInternal@V__FrameHandler3@@@@YAXPAUEHExceptionRecord@@PAXPBU_s_HandlerType@@PBU_s_CatchableType@@@Z 10010620 f   libvcruntime:frame.obj
 0001:0000f6b9       ??$CatchIt@V__FrameHandler3@@@@YAXPAUEHExceptionRecord@@PAUEHRegistrationNode@@PAU_CONTEXT@@PAXPBU_s_FuncInfo@@PBU_s_HandlerType@@PBU_s_CatchableType@@PBU_s_TryBlockMapEntry@@H1EE@Z 100106b9 f   libvcruntime:frame.obj
 0001:0000f739       ??$FindHandler@V__FrameHandler3@@@@YAXPAUEHExceptionRecord@@PAUEHRegistrationNode@@PAU_CONTEXT@@PAXPBU_s_FuncInfo@@EH1@Z 10010739 f   libvcruntime:frame.obj
 0001:0000fade       ??$FindHandlerForForeignException@V__FrameHandler3@@@@YAXPAUEHExceptionRecord@@PAUEHRegistrationNode@@PAU_CONTEXT@@PAXPBU_s_FuncInfo@@HH1@Z 10010ade f   libvcruntime:frame.obj
 0001:0000fdf6       ?CallCatchBlock@@YAPAXPAUEHExceptionRecord@@PAUEHRegistrationNode@@PAU_CONTEXT@@PBU_s_FuncInfo@@PAXHK@Z 10010df6 f   libvcruntime:frame.obj
 0001:0000ffc5       ?CallUnexpected@@YAXPBU_s_ESTypeList@@@Z 10010fc5 f   libvcruntime:frame.obj
 0001:0000ffe5       __catch$?CallUnexpected@@YAXPBU_s_ESTypeList@@@Z$0 10010fe5 f   libvcruntime:frame.obj
 0001:00010004       ?ExFilterRethrow@@YAHPAU_EXCEPTION_POINTERS@@@Z 10011004 f   libvcruntime:frame.obj
 0001:0001014e       ?IsInExceptionSpec@@YAEPAUEHExceptionRecord@@PBU_s_ESTypeList@@@Z 1001114e f   libvcruntime:frame.obj
 0001:00010220       $$000000                   10011220     libvcruntime:lowhelpr.obj
 0001:0001025f       _NLG_Continue              1001125f     libvcruntime:lowhelpr.obj
 0001:00010270       $$000000                   10011270     libvcruntime:exsup.obj
 0001:00010280       $$000000                   10011280     libvcruntime:exsup.obj
 0001:0001028b       __NLG_Go                   1001128b     libvcruntime:exsup.obj
 0001:000102a0       $$000000                   100112a0     libvcruntime:exsup.obj
 0001:000102a3       ?try_get_first_available_module@@YAPAUHINSTANCE__@@QBW4module_id@?A0x592e9a36@@0@Z 100112a3 f   libvcruntime:winapi_downlevel.obj
 0001:0001033e       ?try_get_function@@YAPAXW4function_id@?A0x592e9a36@@QBDQBW4module_id@2@2@Z 1001133e f   libvcruntime:winapi_downlevel.obj
 0001:00010a74       ??$common_tcscat_s@_W@@YAHQA_WIQB_W@Z 10011a74 f   libucrt:wcscat_s.obj
 0001:00010b5b       ??$common_tcsncpy_s@_W@@YAHQA_WIQB_WI@Z 10011b5b f   libucrt:wcsncpy_s.obj
 0001:00010c34       ??$common_vsprintf@Vformat_validation_base@__crt_stdio_output@@_W@@YAH_KQA_WIQB_WAAV__crt_cached_ptd_host@@QAD@Z 10011c34 f   libucrt:output.obj
 0001:00010db7       ??$common_vsprintf_s@_W@@YAH_KQA_WIQB_WAAV__crt_cached_ptd_host@@QAD@Z 10011db7 f   libucrt:output.obj
 0001:0001221f       $LN116                     1001321f     libucrt:output.obj
 0001:00012822       $LN18                      10013822     libucrt:output.obj
 0001:00012836       $LN17                      10013836     libucrt:output.obj
 0001:00012f71       ??$?RV<lambda_03b1d95aef87969028cfba75ccab2455>@@AAV<lambda_6e4b09c48022b2350581041d5f6b0c4c>@@V<lambda_22bdf7517842c4b3e53723af5aa32b9e>@@@?$__crt_seh_guarded_call@X@@QAEX$$QAV<lambda_03b1d95aef87969028cfba75ccab2455>@@AAV<lambda_6e4b09c48022b2350581041d5f6b0c4c>@@$$QAV<lambda_22bdf7517842c4b3e53723af5aa32b9e>@@@Z 10013f71 f   libucrt:exit.obj
 0001:00012fbe       ??R<lambda_6e4b09c48022b2350581041d5f6b0c4c>@@QBE@XZ 10013fbe f   libucrt:exit.obj
 0001:000130a9       ?common_exit@@YAXHW4_crt_exit_cleanup_mode@@W4_crt_exit_return_mode@@@Z 100140a9 f   libucrt:exit.obj
 0001:00013140       ?exit_or_terminate_process@@YAXI@Z 10014140 f   libucrt:exit.obj
 0001:00013171       ?is_managed_app@@YA_NXZ    10014171 f   libucrt:exit.obj
 0001:000131b4       ?should_call_terminate_process@@YA_NXZ 100141b4 f   libucrt:exit.obj
 0001:000131d6       ?try_cor_exit_process@@YAXI@Z 100141d6 f   libucrt:exit.obj
 0001:00013293       ??$common_configure_argv@D@@YAHW4_crt_argv_mode@@@Z 10014293 f   libucrt:argv_parsing.obj
 0001:000133d0       ??$parse_command_line@D@@YAXPADPAPAD0PAI2@Z 100143d0 f   libucrt:argv_parsing.obj
 0001:0001359e       ??$common_initialize_environment_nolock@D@@YAHXZ 1001459e f   libucrt:environment_initialization.obj
 0001:000135f8       ??$create_environment@D@@YAQAPADQAD@Z 100145f8 f   libucrt:environment_initialization.obj
 0001:000136da       ??$free_environment@D@@YAXQAPAD@Z 100146da f   libucrt:environment_initialization.obj
 0001:000136da       ??$free_environment@_W@@YAXQAPA_W@Z 100146da f   libucrt:environment_initialization.obj
 0001:00013709       ??$uninitialize_environment_internal@D@@YAXAAPAPAD@Z 10014709 f   libucrt:environment_initialization.obj
 0001:00013724       ??$uninitialize_environment_internal@_W@@YAXAAPAPA_W@Z 10014724 f   libucrt:environment_initialization.obj
 0001:00013795       ??$?RV<lambda_69a2805e680e0e292e8ba93315fe43a8>@@AAV<lambda_f03950bc5685219e0bcd2087efbe011e>@@V<lambda_03fcd07e894ec930e3f35da366ca99d6>@@@?$__crt_seh_guarded_call@H@@QAEH$$QAV<lambda_69a2805e680e0e292e8ba93315fe43a8>@@AAV<lambda_f03950bc5685219e0bcd2087efbe011e>@@$$QAV<lambda_03fcd07e894ec930e3f35da366ca99d6>@@@Z 10014795 f   libucrt:onexit.obj
 0001:000137f0       ??$?RV<lambda_8e746cf0007f6ed984d6f78af1fec997>@@AAV<lambda_22ebabd17bc4fa466a2aca6d8deb888d>@@V<lambda_18ed0c0b38a6dc0daf1e7ac6d6adf05e>@@@?$__crt_seh_guarded_call@H@@QAEH$$QAV<lambda_8e746cf0007f6ed984d6f78af1fec997>@@AAV<lambda_22ebabd17bc4fa466a2aca6d8deb888d>@@$$QAV<lambda_18ed0c0b38a6dc0daf1e7ac6d6adf05e>@@@Z 100147f0 f   libucrt:onexit.obj
 0001:0001386a       ??R<lambda_22ebabd17bc4fa466a2aca6d8deb888d>@@QBEHXZ 1001486a f   libucrt:onexit.obj
 0001:0001396c       ??R<lambda_f03950bc5685219e0bcd2087efbe011e>@@QBEHXZ 1001496c f   libucrt:onexit.obj
 0001:00013af6       _uninitialize_allocated_io_buffers 10014af6 f   libucrt:initialization.obj
 0001:00013b46       _initialize_environment    10014b46 f   libucrt:initialization.obj
 0001:00013b46       _initialize_global_state_isolation 10014b46 f   libucrt:initialization.obj
 0001:00013b46       _report_memory_leaks       10014b46 f   libucrt:initialization.obj
 0001:00013b46       _uninitialize_c            10014b46 f   libucrt:initialization.obj
 0001:00013b46       _uninitialize_global_state_isolation 10014b46 f   libucrt:initialization.obj
 0001:00013b49       _initialize_global_variables 10014b49 f   libucrt:initialization.obj
 0001:00013b56       _initialize_c              10014b56 f   libucrt:initialization.obj
 0001:00013b70       _uninitialize_environment  10014b70 f   libucrt:initialization.obj
 0001:00013b78       _initialize_pointers       10014b78 f   libucrt:initialization.obj
 0001:00013ba6       _uninitialize_vcruntime    10014ba6 f   libucrt:initialization.obj
 0001:00013baf       _uninitialize_allocated_memory 10014baf f   libucrt:initialization.obj
 0001:00013bc6       ??R<lambda_af42a3ee9806e9a7305d451646e05244>@@QBEXAAPAU__crt_multibyte_data@@@Z 10014bc6 f   libucrt:initialization.obj
 0001:00013e30       $$000000                   10014e30     libucrt:strncmp.obj
 0001:00013f1c       ??$?RV<lambda_15ade71b0218206bbe3333a0c9b79046>@@AAV<lambda_da44e0f8b0f19ba52fefafb335991732>@@V<lambda_207f2d024fc103971653565357d6cd41>@@@?$__crt_seh_guarded_call@X@@QAEX$$QAV<lambda_15ade71b0218206bbe3333a0c9b79046>@@AAV<lambda_da44e0f8b0f19ba52fefafb335991732>@@$$QAV<lambda_207f2d024fc103971653565357d6cd41>@@@Z 10014f1c f   libucrt:per_thread_data.obj
 0001:00013f6e       ??$?RV<lambda_38edbb1296d33220d7e4dd0ed76b244a>@@AAV<lambda_5ce1d447e08cb34b2473517608e21441>@@V<lambda_fb385d3da700c9147fc39e65dd577a8c>@@@?$__crt_seh_guarded_call@X@@QAEX$$QAV<lambda_38edbb1296d33220d7e4dd0ed76b244a>@@AAV<lambda_5ce1d447e08cb34b2473517608e21441>@@$$QAV<lambda_fb385d3da700c9147fc39e65dd577a8c>@@@Z 10014f6e f   libucrt:per_thread_data.obj
 0001:00013fd9       ??$?RV<lambda_6affb1475c98b40b75cdec977db92e3c>@@AAV<lambda_b8d4b9c228a6ecc3f80208dbb4b4a104>@@V<lambda_608742c3c92a14382c1684fc64f96c88>@@@?$__crt_seh_guarded_call@X@@QAEX$$QAV<lambda_6affb1475c98b40b75cdec977db92e3c>@@AAV<lambda_b8d4b9c228a6ecc3f80208dbb4b4a104>@@$$QAV<lambda_608742c3c92a14382c1684fc64f96c88>@@@Z 10014fd9 f   libucrt:per_thread_data.obj
 0001:0001402e       ??$?RV<lambda_a7e850c220f1c8d1e6efeecdedd162c6>@@AAV<lambda_46720907175c18b6c9d2717bc0d2d362>@@V<lambda_9048902d66e8d99359bc9897bbb930a8>@@@?$__crt_seh_guarded_call@X@@QAEX$$QAV<lambda_a7e850c220f1c8d1e6efeecdedd162c6>@@AAV<lambda_46720907175c18b6c9d2717bc0d2d362>@@$$QAV<lambda_9048902d66e8d99359bc9897bbb930a8>@@@Z 1001502e f   libucrt:per_thread_data.obj
 0001:00014088       ?construct_ptd@@YAXQAU__acrt_ptd@@QAPAU__crt_locale_data@@@Z 10015088 f   libucrt:per_thread_data.obj
 0001:00014121       ?destroy_fls@@YGXPAX@Z     10015121 f   libucrt:per_thread_data.obj
 0001:00014142       ?destroy_ptd@@YAXQAU__acrt_ptd@@@Z 10015142 f   libucrt:per_thread_data.obj
 0001:0001420f       ?replace_current_thread_locale_nolock@@YAXQAU__acrt_ptd@@QAU__crt_locale_data@@@Z 1001520f f   libucrt:per_thread_data.obj
 0001:00014571       ??$?RV<lambda_e5124f882df8998aaf41531e079ba474>@@AAV<lambda_3e16ef9562a7dcce91392c22ab16ea36>@@V<lambda_e25ca0880e6ef98be67edffd8c599615>@@@?$__crt_seh_guarded_call@X@@QAEX$$QAV<lambda_e5124f882df8998aaf41531e079ba474>@@AAV<lambda_3e16ef9562a7dcce91392c22ab16ea36>@@$$QAV<lambda_e25ca0880e6ef98be67edffd8c599615>@@@Z 10015571 f   libucrt:wsetlocale.obj
 0001:00014758       ?try_get_AreFileApisANSI@@YAP6GHXZXZ 10015758 f   libucrt:winapi_thunks.obj
 0001:00014772       ?try_get_LCMapStringEx@@YAP6GHPB_WK0HPA_WHPAU_nlsversioninfo@@PAXJ@ZXZ 10015772 f   libucrt:winapi_thunks.obj
 0001:0001478c       ?try_get_LocaleNameToLCID@@YAP6GKPB_WK@ZXZ 1001578c f   libucrt:winapi_thunks.obj
 0001:000147a6       ?try_get_first_available_module@@YAPAUHINSTANCE__@@QBW4module_id@?A0x391cf84c@@0@Z 100157a6 f   libucrt:winapi_thunks.obj
 0001:00014871       ?try_get_function@@YAPAXW4function_id@?A0x391cf84c@@QBDQBW4module_id@2@2@Z 10015871 f   libucrt:winapi_thunks.obj
 0001:00014e7e       ?fe_to_nearest@@YA_NQBN_KF@Z 10015e7e f   libucrt:cvt.obj
 0001:00014f21       ?fp_format_a@@YAHQBNPADIQADIH_NIW4__acrt_rounding_mode@@AAV__crt_cached_ptd_host@@@Z 10015f21 f   libucrt:cvt.obj
 0001:0001524d       ?fp_format_e@@YAHQBNQADI1IH_NIW4__acrt_rounding_mode@@AAV__crt_cached_ptd_host@@@Z 1001624d f   libucrt:cvt.obj
 0001:000152f1       ?fp_format_e_internal@@YAHQADIH_NIQAU_strflt@@1AAV__crt_cached_ptd_host@@@Z 100162f1 f   libucrt:cvt.obj
 0001:00015436       ?fp_format_f@@YAHQBNQADI1IHW4__acrt_rounding_mode@@AAV__crt_cached_ptd_host@@@Z 10016436 f   libucrt:cvt.obj
 0001:000154cc       ?fp_format_f_internal@@YAHQADIHQAU_strflt@@_NAAV__crt_cached_ptd_host@@@Z 100164cc f   libucrt:cvt.obj
 0001:000155ba       ?fp_format_g@@YAHQBNQADI1IH_NIW4__acrt_rounding_mode@@AAV__crt_cached_ptd_host@@@Z 100165ba f   libucrt:cvt.obj
 0001:00015689       ?fp_format_nan_or_infinity@@YAHW4__acrt_fp_class@@_NPADI1@Z 10016689 f   libucrt:cvt.obj
 0001:0001571e       ?shift_bytes@@YAXQADI0H@Z  1001671e f   libucrt:cvt.obj
 0001:00015752       ?should_round_up@@YA_NQBN_KFW4__acrt_rounding_mode@@@Z 10016752 f   libucrt:cvt.obj
 0001:00015c11       ?initialize_inherited_file_handles_nolock@@YAXXZ 10016c11 f   libucrt:ioinit.obj
 0001:00015cc7       ?initialize_stdio_handles_nolock@@YAXXZ 10016cc7 f   libucrt:ioinit.obj
 0001:00015ed4       ?<lambda_invoker_cdecl>@<lambda_838c7f62c73c983481e27c09e84b0b5d>@@CAHPBX0@Z 10016ed4 f   libucrt:argv_wildcards.obj
 0001:00016081       ??$common_expand_argv_wildcards@D@@YAHQAPADQAPAPAD@Z 10017081 f   libucrt:argv_wildcards.obj
 0001:000161fe       ??$copy_and_add_argument_to_buffer@D@@YAHQBD0IAAV?$argument_list@D@?A0x5f5c8891@@@Z 100171fe f   libucrt:argv_wildcards.obj
 0001:000162af       ??$expand_argument_wildcards@D@@YAHQAD0AAV?$argument_list@D@?A0x5f5c8891@@@Z 100172af f   libucrt:argv_wildcards.obj
 0001:000165b6       ??1?$argument_list@D@?A0x5f5c8891@@QAE@XZ 100175b6 f   libucrt:argv_wildcards.obj
 0001:000166f6       ?expand_if_necessary@?$argument_list@D@?A0x5f5c8891@@AAEHXZ 100176f6 f   libucrt:argv_wildcards.obj
 0001:00016926       ??$?RV<lambda_ceb1ee4838e85a9d631eb091e2fbe199>@@AAV<lambda_ae742caa10f662c28703da3d2ea5e57e>@@V<lambda_cd08b5d6af4937fe54fc07d0c9bf6b37>@@@?$__crt_seh_guarded_call@X@@QAEX$$QAV<lambda_ceb1ee4838e85a9d631eb091e2fbe199>@@AAV<lambda_ae742caa10f662c28703da3d2ea5e57e>@@$$QAV<lambda_cd08b5d6af4937fe54fc07d0c9bf6b37>@@@Z 10017926 f   libucrt:mbctype.obj
 0001:00016973       ??R<lambda_ae742caa10f662c28703da3d2ea5e57e>@@QBEXXZ 10017973 f   libucrt:mbctype.obj
 0001:000169f6       ?CPtoLocaleName@@YAPB_WH@Z 100179f6 f   libucrt:mbctype.obj
 0001:00016a34       ?getSystemCP@@YAHH@Z       10017a34 f   libucrt:mbctype.obj
 0001:00016aa5       ?setSBCS@@YAXPAU__crt_multibyte_data@@@Z 10017aa5 f   libucrt:mbctype.obj
 0001:00016b08       ?setSBUpLow@@YAXPAU__crt_multibyte_data@@@Z 10017b08 f   libucrt:mbctype.obj
 0001:00016cb4       ?setmbcp_internal@@YAHH_NQAU__acrt_ptd@@QAPAU__crt_multibyte_data@@@Z 10017cb4 f   libucrt:mbctype.obj
 0001:00016e09       ?update_thread_multibyte_data_internal@@YAPAU__crt_multibyte_data@@QAU__acrt_ptd@@QAPAU1@@Z 10017e09 f   libucrt:mbctype.obj
 0001:0001710c       _memcpy_s                  1001810c f   libucrt:cfout.obj
 0001:0001710c       _memcpy_s                  1001810c f   libucrt:mbctype.obj
 0001:0001718d       ?x_ismbbtype_l@@YAHPAU__crt_locale_pointers@@IHH@Z 1001818d f   libucrt:ismbbyte.obj
 0001:00017341       ?find_end_of_double_null_terminated_sequence@@YAPB_WQB_W@Z 10018341 f   libucrt:get_environment_from_os.obj
 0001:000174cc       ??$?RV<lambda_cbab9ec6f41b0180b23cc171c22676b0>@@AAV<lambda_44731a7d0e6d81c3e6aa82d741081786>@@V<lambda_4b292cb8dd18144e164572427af410ab>@@@?$__crt_seh_guarded_call@P6AXH@Z@@QAEP6AXH@Z$$QAV<lambda_cbab9ec6f41b0180b23cc171c22676b0>@@AAV<lambda_44731a7d0e6d81c3e6aa82d741081786>@@$$QAV<lambda_4b292cb8dd18144e164572427af410ab>@@@Z 100184cc f   libucrt:signal.obj
 0001:00017530       ?get_global_action_nolock@@YAPAP6AXH@ZH@Z 10018530 f   libucrt:signal.obj
 0001:00017572       ?siglookup@@YAPAU__crt_signal_action_t@@HQAU1@@Z 10018572 f   libucrt:signal.obj
 0001:0001782b       ??$?RV<lambda_2866be3712abc81a800a822484c830d8>@@AAV<lambda_39ca0ed439415581b5b15c265174cece>@@V<lambda_2b24c74d71094a6cd0cb82e44167d71b>@@@?$__crt_seh_guarded_call@X@@QAEX$$QAV<lambda_2866be3712abc81a800a822484c830d8>@@AAV<lambda_39ca0ed439415581b5b15c265174cece>@@$$QAV<lambda_2b24c74d71094a6cd0cb82e44167d71b>@@@Z 1001882b f   libucrt:fflush.obj
 0001:000178b7       ??$?RV<lambda_2cc53f568c5a2bb6f192f930a45d44ea>@@AAV<lambda_ab61a845afdef5b7c387490eaf3616ee>@@V<lambda_c2ffc0b7726aa6be21d5f0026187e748>@@@?$__crt_seh_guarded_call@X@@QAEX$$QAV<lambda_2cc53f568c5a2bb6f192f930a45d44ea>@@AAV<lambda_ab61a845afdef5b7c387490eaf3616ee>@@$$QAV<lambda_c2ffc0b7726aa6be21d5f0026187e748>@@@Z 100188b7 f   libucrt:fflush.obj
 0001:00017963       ?common_flush_all@@YAH_N@Z 10018963 f   libucrt:fflush.obj
 0001:000179b0       ?common_flush_all_should_try_to_flush_stream@@YA_NV__crt_stdio_stream@@QAH@Z 100189b0 f   libucrt:fflush.obj
 0001:000179e3       ?is_stream_flushable_or_commitable@@YA_NJ@Z 100189e3 f   libucrt:fflush.obj
 0001:00017fe0       ?free_crt_array_internal@@YAXQAPBXI@Z 10018fe0 f   libucrt:inittime.obj
 0001:00018219       ?GetTableIndexFromLocaleName@@YAHPB_W@Z 10019219 f   libucrt:lcidtoname_downlevel.obj
 0001:00018295       ?should_round_up@@YA_NQBD0HW4__acrt_has_trailing_digits@@W4__acrt_rounding_mode@@@Z 10019295 f   libucrt:_fptostr.obj
 0001:00019dde       ??R<lambda_e96123212306c92459f955e8e4eac55d>@@QBEIPBD@Z 1001adde f   libucrt:mbrtowc.obj
 0001:0001a81e       ??$common_tcsncpy_s@D@@YAHQADIQBDI@Z 1001b81e f   libucrt:strncpy_s.obj
 0001:0001a8e0       $$000000                   1001b8e0     libucrt:strpbrk.obj
 0001:0001a9c4       ?__acrt_LCMapStringA_stat@@YAHPAU__crt_locale_pointers@@PB_WKPBDHPADHHH@Z 1001b9c4 f   libucrt:lcmapstringa.obj
 0001:0001abfb       ?initialize_multibyte@@YAHXZ 1001bbfb f   libucrt:multibyte_initializer.obj
 0001:0001ac0a       ??$?RV<lambda_9e9de3de5fa147e2223d7db92bc10aa6>@@AAV<lambda_38ce7e780aa69e748d6df282ebc68efe>@@V<lambda_8ca6da459f0f6780f1cff60fdc3d00e5>@@@?$__crt_seh_guarded_call@H@@QAEH$$QAV<lambda_9e9de3de5fa147e2223d7db92bc10aa6>@@AAV<lambda_38ce7e780aa69e748d6df282ebc68efe>@@$$QAV<lambda_8ca6da459f0f6780f1cff60fdc3d00e5>@@@Z 1001bc0a f   libucrt:commit.obj
 0001:0001ad29       ?write_double_translated_ansi_nolock@@YA?AUwrite_result@?A0x17268360@@HQBDIAAV__crt_cached_ptd_host@@@Z 1001bd29 f   libucrt:write.obj
 0001:0001b0fb       ?write_double_translated_unicode_nolock@@YA?AUwrite_result@?A0x17268360@@QBDI@Z 1001c0fb f   libucrt:write.obj
 0001:0001b163       ?write_requires_double_translation_nolock@@YA_NHAAV__crt_cached_ptd_host@@@Z 1001c163 f   libucrt:write.obj
 0001:0001b1e1       ?write_text_ansi_nolock@@YA?AUwrite_result@?A0x17268360@@HQBDI@Z 1001c1e1 f   libucrt:write.obj
 0001:0001b2bc       ?write_text_utf16le_nolock@@YA?AUwrite_result@?A0x17268360@@HQBDI@Z 1001c2bc f   libucrt:write.obj
 0001:0001b3a5       ?write_text_utf8_nolock@@YA?AUwrite_result@?A0x17268360@@HQBDI@Z 1001c3a5 f   libucrt:write.obj
 0001:0001b950       $$000000                   1001c950     libucrt:log10_impl.obj
 0001:0001ba60       $$000000                   1001ca60     libucrt:ceil_pentium4.obj
 0001:0001bb7d       ?to_abstract_control@@YA?AW4__acrt_fenv_abstract_control@@W4__acrt_fenv_machine_sse_control@@@Z 1001cb7d f   libucrt:_fenvutils.obj
 0001:0001bc2d       ?to_abstract_control@@YA?AW4__acrt_fenv_abstract_control@@W4__acrt_fenv_machine_x87_control@@@Z 1001cc2d f   libucrt:_fenvutils.obj
 0001:0001bcda       ?to_machine_sse_control@@YA?AW4__acrt_fenv_machine_sse_control@@W4__acrt_fenv_abstract_control@@@Z 1001ccda f   libucrt:_fenvutils.obj
 0001:0001bd90       ?to_machine_x87_control@@YA?AW4__acrt_fenv_machine_x87_control@@W4__acrt_fenv_abstract_control@@@Z 1001cd90 f   libucrt:_fenvutils.obj
 0001:0001c2fb       ?_fclose_internal@@YAHQAU_iobuf@@AAV__crt_cached_ptd_host@@@Z 1001d2fb f   libucrt:fclose.obj
 0001:0001c392       ?_fclose_nolock_internal@@YAHQAU_iobuf@@AAV__crt_cached_ptd_host@@@Z 1001d392 f   libucrt:fclose.obj
 0001:0001c450       ??$common_lseek_nolock@_J@@YA_JH_JHAAV__crt_cached_ptd_host@@@Z 1001d450 f   libucrt:lseek.obj
 0001:0001c545       ___hw_cw_sse2              1001d545 f   libucrt:ieee87.obj
 0001:0001c9cb       __hw_cw                    1001d9cb f   libucrt:ieee87.obj
 0001:0001ca80       $$000000                   1001da80     libucrt:log10_pentium4.obj
 0001:0001cd10       $$000000                   1001dd10     libucrt:87tran.obj
 0001:0001cf20       $$000000                   1001df20     libucrt:87disp.obj
 0001:0001d180       $$000000                   1001e180     libucrt:common.obj
 0001:0001d310       $$000000                   1001e310     libucrt:genexcep.obj
 0001:0001d60c       ??$?RV<lambda_d422a76eb4c3bf3ad751449ab71a6ea4>@@AAV<lambda_c9ba49e555ba839a7b07aa3fbecb7617>@@V<lambda_9476263c8ee91a25d21c55370bdb50de>@@@?$__crt_seh_guarded_call@H@@QAEH$$QAV<lambda_d422a76eb4c3bf3ad751449ab71a6ea4>@@AAV<lambda_c9ba49e555ba839a7b07aa3fbecb7617>@@$$QAV<lambda_9476263c8ee91a25d21c55370bdb50de>@@@Z 1001e60c f   libucrt:close.obj
 0001:0001d820       $$000000                   1001e820     libucrt:_strnicm.obj
 0001:0001d881       ?__dcrt_lowio_initialize_console_output@@YAXXZ 1001e881 f   libucrt:initcon.obj
 0001:0001e830       $$000000                   1001f830     LIBCMT:ulldvrm.obj
 0001:0001e861       L1                         1001f861     LIBCMT:ulldvrm.obj
 0001:0001e86f       L3                         1001f86f     LIBCMT:ulldvrm.obj
 0001:0001e89d       L4                         1001f89d     LIBCMT:ulldvrm.obj
 0001:0001e8a6       L5                         1001f8a6     LIBCMT:ulldvrm.obj
 0001:0001e8a8       L2                         1001f8a8     LIBCMT:ulldvrm.obj
 0001:0001e8d0       $$000000                   1001f8d0     LIBCMT:llmul.obj
 0001:0001e8e9       hard                       1001f8e9     LIBCMT:llmul.obj
 0001:0001e910       $$000000                   1001f910     LIBCMT:lldvrm.obj
 0001:0001e934       L1                         1001f934     LIBCMT:lldvrm.obj
 0001:0001e950       L2                         1001f950     LIBCMT:lldvrm.obj
 0001:0001e97c       L3                         1001f97c     LIBCMT:lldvrm.obj
 0001:0001e98a       L5                         1001f98a     LIBCMT:lldvrm.obj
 0001:0001e9b8       L6                         1001f9b8     LIBCMT:lldvrm.obj
 0001:0001e9c1       L7                         1001f9c1     LIBCMT:lldvrm.obj
 0001:0001e9c3       L4                         1001f9c3     LIBCMT:lldvrm.obj
 0001:0001e9d5       L9                         1001f9d5     LIBCMT:lldvrm.obj
 0001:0001e9e9       L8                         1001f9e9     LIBCMT:lldvrm.obj
 0001:0001e9f0       $$000000                   1001f9f0     LIBCMT:llshl.obj
 0001:0001ea00       MORE32                     1001fa00     LIBCMT:llshl.obj
 0001:0001ea0a       RETZERO                    1001fa0a     LIBCMT:llshl.obj
 0001:0001ea10       $$000000                   1001fa10     LIBCMT:ullshr.obj
 0001:0001ea20       MORE32                     1001fa20     LIBCMT:ullshr.obj
 0001:0001ea2a       RETZERO                    1001fa2a     LIBCMT:ullshr.obj
 0001:0001ea30       $$000000                   1001fa30     LIBCMT:ftol2.obj
 0001:0001ea40       $$000000                   1001fa40     LIBCMT:ftol2.obj
 0001:0001ea51       L3B                        1001fa51     LIBCMT:ftol2.obj
 0001:0001ea94       L3F                        1001fa94     LIBCMT:ftol2.obj
 0001:0001ea9c       L40                        1001fa9c     LIBCMT:ftol2.obj
 0001:0001eaaf       L41                        1001faaf     LIBCMT:ftol2.obj
 0001:0001eac0       $$000000                   1001fac0     libvcruntime:strrchr.obj
 0001:0001eafd       strrchr_sse_loop           1001fafd     libvcruntime:strrchr.obj
 0001:0001eb2d       strrchr_sse_break          1001fb2d     libvcruntime:strrchr.obj
 0001:0001eb4d       strrchr_sttni              1001fb4d     libvcruntime:strrchr.obj
 0001:0001eb5f       strrchr_sttni_chars        1001fb5f     libvcruntime:strrchr.obj
 0001:0001eb74       strrchr_sttni_aligned      1001fb74     libvcruntime:strrchr.obj
 0001:0001eb78       strrchr_sttni_xmm          1001fb78     libvcruntime:strrchr.obj
 0001:0001eb8b       exit                       1001fb8b     libvcruntime:strrchr.obj
 0001:0001eb8e       strrchr_zero               1001fb8e     libvcruntime:strrchr.obj
 0001:0001ebb3       strchr_zero_loop           1001fbb3     libvcruntime:strrchr.obj
 0001:0001ebc7       strchr_zero_result         1001fbc7     libvcruntime:strrchr.obj
 0001:0001ebce       strrchr_no_sse             1001fbce     libvcruntime:strrchr.obj
 0001:0001ebf1       returndi                   1001fbf1     libvcruntime:strrchr.obj
 0001:0001ebf3       toend                      1001fbf3     libvcruntime:strrchr.obj
 0001:0001ec78       __ehhandler$??2@YAPAXIABUnothrow_t@std@@@Z 1001fc78 f   LIBCMT:new_scalar_nothrow.obj
 0001:0001ec95       __ehhandler$?CallUnexpected@@YAXPBU_s_ESTypeList@@@Z 1001fc95 f   libvcruntime:frame.obj
 0001:0001ecb2       __ehhandler$?common_exit@@YAXHW4_crt_exit_cleanup_mode@@W4_crt_exit_return_mode@@@Z 1001fcb2 f   libucrt:exit.obj
 0001:0001eccf       __ehhandler$?try_cor_exit_process@@YAXI@Z 1001fccf f   libucrt:exit.obj
 0001:0001ecec       __ehhandler$___dcrt_uninitialize_environments_nolock 1001fcec f   libucrt:environment_initialization.obj
 0001:0001ed09       __ehhandler$__execute_onexit_table 1001fd09 f   libucrt:onexit.obj
 0001:0001ed26       __ehhandler$?write_double_translated_ansi_nolock@@YA?AUwrite_result@?A0x17268360@@HQBDIAAV__crt_cached_ptd_host@@@Z 1001fd26 f   libucrt:write.obj
 0001:0001ed50       ??__F_AtlComModule@ATL@@YAXXZ 1001fd50 f   OposVariant.obj
 0001:0001ed5a       ??__F_AtlWinModule@ATL@@YAXXZ 1001fd5a f   OposVariant.obj
 0001:0001ed74       ??__F_Module@@YAXXZ        1001fd74 f   VoiceRecognition.obj
 0001:0001ed88       ??__F_AtlBaseModule@ATL@@YAXXZ 1001fd88 f   atls:atlbase.obj
 0002:00000308       ?_AtlBaseModule$initializer$@ATL@@3P6AXXZA 10020308     atls:atlbase.obj
 0002:0000030c       ?_AtlComModule$initializer$@ATL@@3P6AXXZA 1002030c     OposVariant.obj
 0002:00000310       ?_AtlWinModule$initializer$@ATL@@3P6AXXZA 10020310     OposVariant.obj
 0002:00000314       ?_Module$initializer$@@3P6AXXZA 10020314     VoiceRecognition.obj
 0002:00000318       ??pConnMap$initializer$@?$IConnectionPointContainerImpl@VCOPOSVoiceRecognition@@@ATL@@0P6AXXZA@@3P6AXXZA 10020318     VoiceRecognition.obj
 0002:00000324       ?__scrt_initialize_tss_var@@3P6AHXZA 10020324     LIBCMT:thread_safe_statics.obj
 0002:00001848       _GS_ExceptionPointers      10021848     LIBCMT:gs_report.obj
 0002:000019d8       ?tokenTable@@3QBUStringLiteral@@B 100219d8     libvcruntime:undname.obj
 0002:00001a60       ?nameTable@@3QBUStringLiteral@@B 10021a60     libvcruntime:undname.obj
 0002:00001cf8       ?rttiTable@@3QBUStringLiteral@@B 10021cf8     libvcruntime:undname.obj
 0002:00001d20       ?IndirectionName@@3QBUStringLiteral@@B 10021d20     libvcruntime:undname.obj
 0002:00001d50       ?PrefixName@@3QBUStringLiteral@@B 10021d50     libvcruntime:undname.obj
 0002:0000238c       ?module_names@?A0x592e9a36@@3QBQB_WB 1002238c     libvcruntime:winapi_downlevel.obj
 0002:00002434       ?candidate_modules@?1??try_get_FlsAlloc@@YAP6GKP6GXPAX@Z@ZXZ@4QBW4module_id@?A0x592e9a36@@B 10022434     libvcruntime:winapi_downlevel.obj
 0002:00002448       ?candidate_modules@?1??try_get_FlsFree@@YAP6GHK@ZXZ@4QBW4module_id@?A0x592e9a36@@B 10022448     libvcruntime:winapi_downlevel.obj
 0002:00002458       ?candidate_modules@?1??try_get_FlsGetValue@@YAP6GPAXK@ZXZ@4QBW4module_id@?A0x592e9a36@@B 10022458     libvcruntime:winapi_downlevel.obj
 0002:0000246c       ?candidate_modules@?1??try_get_FlsSetValue@@YAP6GHKPAX@ZXZ@4QBW4module_id@?A0x592e9a36@@B 1002246c     libvcruntime:winapi_downlevel.obj
 0002:00002480       ?candidate_modules@?1??try_get_InitializeCriticalSectionEx@@YAP6GHPAU_RTL_CRITICAL_SECTION@@KK@ZXZ@4QBW4module_id@?A0x592e9a36@@B 10022480     libvcruntime:winapi_downlevel.obj
 0002:000024a8       ?errtable@@3QBUerrentry@?A0x31fdb9ec@@B 100224a8     libucrt:errno.obj
 0002:000027f0       ___acrt_initializers       100227f0     libucrt:initialization.obj
 0002:00002d30       ?module_names@?A0x391cf84c@@3QBQB_WB 10022d30     libucrt:winapi_thunks.obj
 0002:000031e4       ?candidate_modules@?1??try_get_AreFileApisANSI@@YAP6GHXZXZ@4QBW4module_id@?A0x391cf84c@@B 100231e4     libucrt:winapi_thunks.obj
 0002:000031f8       ?candidate_modules@?1??try_get_InitializeCriticalSectionEx@@YAP6GHPAU_RTL_CRITICAL_SECTION@@KK@ZXZ@4QBW4module_id@?A0x391cf84c@@B 100231f8     libucrt:winapi_thunks.obj
 0002:00003200       ?candidate_modules@?1??try_get_LCMapStringEx@@YAP6GHPB_WK0HPA_WHPAU_nlsversioninfo@@PAXJ@ZXZ@4QBW4module_id@?A0x391cf84c@@B 10023200     libucrt:winapi_thunks.obj
 0002:00003218       ?candidate_modules@?1??try_get_LocaleNameToLCID@@YAP6GKPB_WK@ZXZ@4QBW4module_id@?A0x391cf84c@@B 10023218     libucrt:winapi_thunks.obj
 0002:00003234       ?candidate_modules@?1??try_get_AppPolicyGetProcessTerminationMethod@@YAP6GJPAXPAW4AppPolicyProcessTerminationMethod@@@ZXZ@4QBW4module_id@?A0x391cf84c@@B 10023234     libucrt:winapi_thunks.obj
 0002:00003260       ?candidate_modules@?1??try_get_SetThreadStackGuarantee@@YAP6GHPAK@ZXZ@4QBW4module_id@?A0x391cf84c@@B 10023260     libucrt:winapi_thunks.obj
 0002:00003280       ?candidate_modules@?1??try_get_FlsAlloc@@YAP6GKP6GXPAX@Z@ZXZ@4QBW4module_id@?A0x391cf84c@@B 10023280     libucrt:winapi_thunks.obj
 0002:00003288       ?candidate_modules@?1??try_get_FlsFree@@YAP6GHK@ZXZ@4QBW4module_id@?A0x391cf84c@@B 10023288     libucrt:winapi_thunks.obj
 0002:00003290       ?candidate_modules@?1??try_get_FlsGetValue@@YAP6GPAXK@ZXZ@4QBW4module_id@?A0x391cf84c@@B 10023290     libucrt:winapi_thunks.obj
 0002:00003298       ?candidate_modules@?1??try_get_FlsSetValue@@YAP6GHKPAX@ZXZ@4QBW4module_id@?A0x391cf84c@@B 10023298     libucrt:winapi_thunks.obj
 0002:000032a0       ?strings@?1??fp_format_nan_or_infinity@@YAHW4__acrt_fp_class@@_NPADI1@Z@4QAY03QBDA 100232a0     libucrt:cvt.obj
 0002:00003328       ?_mb_locale_names@@3QBQB_WB 10023328     libucrt:mbctype.obj
 0002:00003970       ?LcidToLocaleNameTable@?A0x881e4c05@@3QBULcidToLocaleName@1@B 10023970     libucrt:lcidtoname_downlevel.obj
 0002:00004a90       ?LocaleNameToIndexTable@?A0x881e4c05@@3QBULocaleNameIndex@1@B 10024a90     libucrt:lcidtoname_downlevel.obj
 0002:000063d0       LOG_name                   100263d0     libucrt:log10_impl.obj
 0002:000063e0       _One                       100263e0     libucrt:ceil_pentium4.obj
 0002:000063f0       _Bns                       100263f0     libucrt:ceil_pentium4.obj
 0002:00006400       _Zero                      10026400     libucrt:ceil_pentium4.obj
 0002:00006410       _S                         10026410     libucrt:ceil_pentium4.obj
 0002:00006420       _NegZero                   10026420     libucrt:ceil_pentium4.obj
 0002:00006430       emask                      10026430     libucrt:log10_pentium4.obj
 0002:00006440       CC                         10026440     libucrt:log10_pentium4.obj
 0002:00006450       Magic                      10026450     libucrt:log10_pentium4.obj
 0002:00006460       hi_mask                    10026460     libucrt:log10_pentium4.obj
 0002:00006470       LOG10_2                    10026470     libucrt:log10_pentium4.obj
 0002:00006480       place_L                    10026480     libucrt:log10_pentium4.obj
 0002:000064a0       One                        100264a0     libucrt:log10_pentium4.obj
 0002:000064b0       Zero                       100264b0     libucrt:log10_pentium4.obj
 0002:000064c0       Two52                      100264c0     libucrt:log10_pentium4.obj
 0002:000064d0       Infs                       100264d0     libucrt:log10_pentium4.obj
 0002:000064e0       NaN                        100264e0     libucrt:log10_pentium4.obj
 0002:000064f0       coeff                      100264f0     libucrt:log10_pentium4.obj
 0002:0000654e       _log2max                   1002654e     libucrt:87tran.obj
 0002:00006558       _smallarg                  10026558     libucrt:87tran.obj
 0002:00006562       _half                      10026562     libucrt:87tran.obj
 0002:000065ae       One                        100265ae     libucrt:87disp.obj
 0002:000065b6       Three                      100265b6     libucrt:87disp.obj
 0002:000065be       XAMtoTagTab                100265be     libucrt:87disp.obj
 0002:000065d0       One                        100265d0     libucrt:common.obj
 0002:000065e4       DblMax                     100265e4     libucrt:common.obj
 0002:000065ec       DblMin                     100265ec     libucrt:common.obj
 0002:000065f4       IeeeAdjO                   100265f4     libucrt:common.obj
 0002:000065fc       IeeeAdjU                   100265fc     libucrt:common.obj
 0002:00006604       _infinity                  10026604     libucrt:common.obj
 0002:0000660c       _zero                      1002660c     libucrt:common.obj
 0002:00006658       _over                      10026658     libucrt:fpctrl.obj
 0002:00006664       _under                     10026664     libucrt:fpctrl.obj
 0002:00006e98       ?_names@?1??_get_fname@@9@4QBU<unnamed-type-_names>@?1??1@YAPADI@Z@B 10026e98     libucrt:fpexcept.obj
 0002:00007040       two32                      10027040     LIBCMT:ftol2.obj
 0002:00007044       two63                      10027044     LIBCMT:ftol2.obj
 0002:00007048       _NaN                       10027048     LIBCMT:ftol2.obj
 0002:00007798       __sehtable$?_AtlVerifyStackAvailable@_ATL_SAFE_ALLOCA_IMPL@ATL@@YA_NK@Z 10027798     VoiceRecognition.obj
 0002:000077b8       __sehtable$___scrt_is_nonwritable_in_current_image 100277b8     LIBCMT:utility.obj
 0002:000077d4       __catchsym$??2@YAPAXIABUnothrow_t@std@@@Z$2 100277d4     LIBCMT:new_scalar_nothrow.obj
 0002:000077e4       __unwindtable$??2@YAPAXIABUnothrow_t@std@@@Z 100277e4     LIBCMT:new_scalar_nothrow.obj
 0002:000077f4       __tryblocktable$??2@YAPAXIABUnothrow_t@std@@@Z 100277f4     LIBCMT:new_scalar_nothrow.obj
 0002:00007808       __ehfuncinfo$??2@YAPAXIABUnothrow_t@std@@@Z 10027808     LIBCMT:new_scalar_nothrow.obj
 0002:00007830       __sehtable$?dllmain_crt_process_attach@@YAHQAUHINSTANCE__@@QAX@Z 10027830     LIBCMT:dll_dllmain.obj
 0002:00007850       __sehtable$?dllmain_crt_process_detach@@YAH_N@Z 10027850     LIBCMT:dll_dllmain.obj
 0002:00007878       __sehtable$?dllmain_dispatch@@YAHQAUHINSTANCE__@@KQAX@Z 10027878     LIBCMT:dll_dllmain.obj
 0002:00007928       __sehtable$___DestructExceptionObject 10027928     libvcruntime:ehhelpers.obj
 0002:00007948       __sehtable$?FrameUnwindToState@__FrameHandler3@@SAXPAUEHRegistrationNode@@PAXPBU_s_FuncInfo@@H@Z 10027948     libvcruntime:frame.obj
 0002:00007970       __sehtable$?CallCatchBlock@@YAPAXPAUEHExceptionRecord@@PAUEHRegistrationNode@@PAU_CONTEXT@@PBU_s_FuncInfo@@PAXHK@Z 10027970     libvcruntime:frame.obj
 0002:00007998       __catchsym$?CallUnexpected@@YAXPBU_s_ESTypeList@@@Z$2 10027998     libvcruntime:frame.obj
 0002:000079a8       __unwindtable$?CallUnexpected@@YAXPBU_s_ESTypeList@@@Z 100279a8     libvcruntime:frame.obj
 0002:000079b8       __tryblocktable$?CallUnexpected@@YAXPBU_s_ESTypeList@@@Z 100279b8     libvcruntime:frame.obj
 0002:000079cc       __ehfuncinfo$?CallUnexpected@@YAXPBU_s_ESTypeList@@@Z 100279cc     libvcruntime:frame.obj
 0002:000079f0       __sehtable$??$BuildCatchObjectHelperInternal@V__FrameHandler3@@@@YAHPAUEHExceptionRecord@@PAXPBU_s_HandlerType@@PBU_s_CatchableType@@@Z 100279f0     libvcruntime:frame.obj
 0002:00007a10       __sehtable$??$BuildCatchObjectInternal@V__FrameHandler3@@@@YAXPAUEHExceptionRecord@@PAXPBU_s_HandlerType@@PBU_s_CatchableType@@@Z 10027a10     libvcruntime:frame.obj
 0002:00007a64       __ehfuncinfo$?write_double_translated_ansi_nolock@@YA?AUwrite_result@?A0x17268360@@HQBDIAAV__crt_cached_ptd_host@@@Z 10027a64     libucrt:write.obj
 0002:00007a64       __ehfuncinfo$?try_cor_exit_process@@YAXI@Z 10027a64     libucrt:exit.obj
 0002:00007a88       __unwindtable$?common_exit@@YAXHW4_crt_exit_cleanup_mode@@W4_crt_exit_return_mode@@@Z 10027a88     libucrt:exit.obj
 0002:00007a90       __ehfuncinfo$?common_exit@@YAXHW4_crt_exit_cleanup_mode@@W4_crt_exit_return_mode@@@Z 10027a90     libucrt:exit.obj
 0002:00007ab8       __sehtable$??R<lambda_6e4b09c48022b2350581041d5f6b0c4c>@@QBE@XZ 10027ab8     libucrt:exit.obj
 0002:00007ad8       __sehtable$??$?RV<lambda_03b1d95aef87969028cfba75ccab2455>@@AAV<lambda_6e4b09c48022b2350581041d5f6b0c4c>@@V<lambda_22bdf7517842c4b3e53723af5aa32b9e>@@@?$__crt_seh_guarded_call@X@@QAEX$$QAV<lambda_03b1d95aef87969028cfba75ccab2455>@@AAV<lambda_6e4b09c48022b2350581041d5f6b0c4c>@@$$QAV<lambda_22bdf7517842c4b3e53723af5aa32b9e>@@@Z 10027ad8     libucrt:exit.obj
 0002:00007af4       __unwindtable$___dcrt_uninitialize_environments_nolock 10027af4     libucrt:environment_initialization.obj
 0002:00007b04       __ehfuncinfo$___dcrt_uninitialize_environments_nolock 10027b04     libucrt:environment_initialization.obj
 0002:00007b28       __unwindtable$__execute_onexit_table 10027b28     libucrt:onexit.obj
 0002:00007b30       __ehfuncinfo$__execute_onexit_table 10027b30     libucrt:onexit.obj
 0002:00007b58       __sehtable$??$?RV<lambda_8e746cf0007f6ed984d6f78af1fec997>@@AAV<lambda_22ebabd17bc4fa466a2aca6d8deb888d>@@V<lambda_18ed0c0b38a6dc0daf1e7ac6d6adf05e>@@@?$__crt_seh_guarded_call@H@@QAEH$$QAV<lambda_8e746cf0007f6ed984d6f78af1fec997>@@AAV<lambda_22ebabd17bc4fa466a2aca6d8deb888d>@@$$QAV<lambda_18ed0c0b38a6dc0daf1e7ac6d6adf05e>@@@Z 10027b58     libucrt:onexit.obj
 0002:00007b78       __sehtable$??$?RV<lambda_69a2805e680e0e292e8ba93315fe43a8>@@AAV<lambda_f03950bc5685219e0bcd2087efbe011e>@@V<lambda_03fcd07e894ec930e3f35da366ca99d6>@@@?$__crt_seh_guarded_call@H@@QAEH$$QAV<lambda_69a2805e680e0e292e8ba93315fe43a8>@@AAV<lambda_f03950bc5685219e0bcd2087efbe011e>@@$$QAV<lambda_03fcd07e894ec930e3f35da366ca99d6>@@@Z 10027b78     libucrt:onexit.obj
 0002:00007b98       __sehtable$__query_new_handler 10027b98     libucrt:new_handler.obj
 0002:00007bb8       __sehtable$_terminate      10027bb8     libucrt:terminate.obj
 0002:00007bd8       __sehtable$??$?RV<lambda_15ade71b0218206bbe3333a0c9b79046>@@AAV<lambda_da44e0f8b0f19ba52fefafb335991732>@@V<lambda_207f2d024fc103971653565357d6cd41>@@@?$__crt_seh_guarded_call@X@@QAEX$$QAV<lambda_15ade71b0218206bbe3333a0c9b79046>@@AAV<lambda_da44e0f8b0f19ba52fefafb335991732>@@$$QAV<lambda_207f2d024fc103971653565357d6cd41>@@@Z 10027bd8     libucrt:per_thread_data.obj
 0002:00007bf8       __sehtable$??$?RV<lambda_a7e850c220f1c8d1e6efeecdedd162c6>@@AAV<lambda_46720907175c18b6c9d2717bc0d2d362>@@V<lambda_9048902d66e8d99359bc9897bbb930a8>@@@?$__crt_seh_guarded_call@X@@QAEX$$QAV<lambda_a7e850c220f1c8d1e6efeecdedd162c6>@@AAV<lambda_46720907175c18b6c9d2717bc0d2d362>@@$$QAV<lambda_9048902d66e8d99359bc9897bbb930a8>@@@Z 10027bf8     libucrt:per_thread_data.obj
 0002:00007c18       __sehtable$??$?RV<lambda_38edbb1296d33220d7e4dd0ed76b244a>@@AAV<lambda_5ce1d447e08cb34b2473517608e21441>@@V<lambda_fb385d3da700c9147fc39e65dd577a8c>@@@?$__crt_seh_guarded_call@X@@QAEX$$QAV<lambda_38edbb1296d33220d7e4dd0ed76b244a>@@AAV<lambda_5ce1d447e08cb34b2473517608e21441>@@$$QAV<lambda_fb385d3da700c9147fc39e65dd577a8c>@@@Z 10027c18     libucrt:per_thread_data.obj
 0002:00007c38       __sehtable$??$?RV<lambda_6affb1475c98b40b75cdec977db92e3c>@@AAV<lambda_b8d4b9c228a6ecc3f80208dbb4b4a104>@@V<lambda_608742c3c92a14382c1684fc64f96c88>@@@?$__crt_seh_guarded_call@X@@QAEX$$QAV<lambda_6affb1475c98b40b75cdec977db92e3c>@@AAV<lambda_b8d4b9c228a6ecc3f80208dbb4b4a104>@@$$QAV<lambda_608742c3c92a14382c1684fc64f96c88>@@@Z 10027c38     libucrt:per_thread_data.obj
 0002:00007c58       __sehtable$??$?RV<lambda_e5124f882df8998aaf41531e079ba474>@@AAV<lambda_3e16ef9562a7dcce91392c22ab16ea36>@@V<lambda_e25ca0880e6ef98be67edffd8c599615>@@@?$__crt_seh_guarded_call@X@@QAEX$$QAV<lambda_e5124f882df8998aaf41531e079ba474>@@AAV<lambda_3e16ef9562a7dcce91392c22ab16ea36>@@$$QAV<lambda_e25ca0880e6ef98be67edffd8c599615>@@@Z 10027c58     libucrt:wsetlocale.obj
 0002:00007c78       __sehtable$___acrt_initialize_lowio 10027c78     libucrt:ioinit.obj
 0002:00007c98       __sehtable$?update_thread_multibyte_data_internal@@YAPAU__crt_multibyte_data@@QAU__acrt_ptd@@QAPAU1@@Z 10027c98     libucrt:mbctype.obj
 0002:00007cb8       __sehtable$??$?RV<lambda_ceb1ee4838e85a9d631eb091e2fbe199>@@AAV<lambda_ae742caa10f662c28703da3d2ea5e57e>@@V<lambda_cd08b5d6af4937fe54fc07d0c9bf6b37>@@@?$__crt_seh_guarded_call@X@@QAEX$$QAV<lambda_ceb1ee4838e85a9d631eb091e2fbe199>@@AAV<lambda_ae742caa10f662c28703da3d2ea5e57e>@@$$QAV<lambda_cd08b5d6af4937fe54fc07d0c9bf6b37>@@@Z 10027cb8     libucrt:mbctype.obj
 0002:00007cd8       __sehtable$_raise          10027cd8     libucrt:signal.obj
 0002:00007cf8       __sehtable$??$?RV<lambda_cbab9ec6f41b0180b23cc171c22676b0>@@AAV<lambda_44731a7d0e6d81c3e6aa82d741081786>@@V<lambda_4b292cb8dd18144e164572427af410ab>@@@?$__crt_seh_guarded_call@P6AXH@Z@@QAEP6AXH@Z$$QAV<lambda_cbab9ec6f41b0180b23cc171c22676b0>@@AAV<lambda_44731a7d0e6d81c3e6aa82d741081786>@@$$QAV<lambda_4b292cb8dd18144e164572427af410ab>@@@Z 10027cf8     libucrt:signal.obj
 0002:00007d18       __sehtable$??$?RV<lambda_2866be3712abc81a800a822484c830d8>@@AAV<lambda_39ca0ed439415581b5b15c265174cece>@@V<lambda_2b24c74d71094a6cd0cb82e44167d71b>@@@?$__crt_seh_guarded_call@X@@QAEX$$QAV<lambda_2866be3712abc81a800a822484c830d8>@@AAV<lambda_39ca0ed439415581b5b15c265174cece>@@$$QAV<lambda_2b24c74d71094a6cd0cb82e44167d71b>@@@Z 10027d18     libucrt:fflush.obj
 0002:00007d38       __sehtable$??$?RV<lambda_2cc53f568c5a2bb6f192f930a45d44ea>@@AAV<lambda_ab61a845afdef5b7c387490eaf3616ee>@@V<lambda_c2ffc0b7726aa6be21d5f0026187e748>@@@?$__crt_seh_guarded_call@X@@QAEX$$QAV<lambda_2cc53f568c5a2bb6f192f930a45d44ea>@@AAV<lambda_ab61a845afdef5b7c387490eaf3616ee>@@$$QAV<lambda_c2ffc0b7726aa6be21d5f0026187e748>@@@Z 10027d38     libucrt:fflush.obj
 0002:00007d58       __sehtable$___acrt_update_thread_locale_data 10027d58     libucrt:locale_refcounting.obj
 0002:00007d78       __sehtable$__fcloseall     10027d78     libucrt:closeall.obj
 0002:00007d98       __sehtable$___acrt_lowio_ensure_fh_exists 10027d98     libucrt:osfinfo.obj
 0002:00007db8       __sehtable$??$?RV<lambda_9e9de3de5fa147e2223d7db92bc10aa6>@@AAV<lambda_38ce7e780aa69e748d6df282ebc68efe>@@V<lambda_8ca6da459f0f6780f1cff60fdc3d00e5>@@@?$__crt_seh_guarded_call@H@@QAEH$$QAV<lambda_9e9de3de5fa147e2223d7db92bc10aa6>@@AAV<lambda_38ce7e780aa69e748d6df282ebc68efe>@@$$QAV<lambda_8ca6da459f0f6780f1cff60fdc3d00e5>@@@Z 10027db8     libucrt:commit.obj
 0002:00007dd8       __sehtable$__write_internal 10027dd8     libucrt:write.obj
 0002:00007df8       __sehtable$?_fclose_internal@@YAHQAU_iobuf@@AAV__crt_cached_ptd_host@@@Z 10027df8     libucrt:fclose.obj
 0002:00007e18       __sehtable$??$?RV<lambda_d422a76eb4c3bf3ad751449ab71a6ea4>@@AAV<lambda_c9ba49e555ba839a7b07aa3fbecb7617>@@V<lambda_9476263c8ee91a25d21c55370bdb50de>@@@?$__crt_seh_guarded_call@H@@QAEH$$QAV<lambda_d422a76eb4c3bf3ad751449ab71a6ea4>@@AAV<lambda_c9ba49e555ba839a7b07aa3fbecb7617>@@$$QAV<lambda_9476263c8ee91a25d21c55370bdb50de>@@@Z 10027e18     libucrt:close.obj
 0002:00007e38       __sehtable$___set_fpsr_sse2 10027e38     libucrt:fpctrl.obj
 0002:00007e58       __sehtable$__IsNonwritableInCurrentImage 10027e58     LIBCMT:pesect.obj
 0002:00007e80       .edata                     10027e80     OPOSVoiceRecognition.exp
 0002:00007ea8       rgpv                       10027ea8     OPOSVoiceRecognition.exp
 0002:00007eb8       rgszName                   10027eb8     OPOSVoiceRecognition.exp
 0002:00007ec8       rgwOrd                     10027ec8     OPOSVoiceRecognition.exp
 0002:00007ed0       szName                     10027ed0     OPOSVoiceRecognition.exp
 0002:00007ee9       $N00001                    10027ee9     OPOSVoiceRecognition.exp
 0002:00007ef9       $N00002                    10027ef9     OPOSVoiceRecognition.exp
 0002:00007f0b       $N00003                    10027f0b     OPOSVoiceRecognition.exp
 0002:00007f1d       $N00004                    10027f1d     OPOSVoiceRecognition.exp
 0002:0000852e       .idata$6                   1002852e     kernel32:KERNEL32.dll
 0002:00008742       .idata$6                   10028742     user32:USER32.dll
 0002:00008876       .idata$6                   10028876     gdi32:GDI32.dll
 0002:0000891c       .idata$6                   1002891c     advapi32:ADVAPI32.dll
 0002:00008a38       .idata$6                   10028a38     ole32:ole32.dll
 0002:00008a42       .idata$6                   10028a42     oleaut32:OLEAUT32.dll
 0003:00000110       ?ObjectMap@@3PAU_ATL_OBJMAP_ENTRY30@ATL@@A 10029110     VoiceRecognition.obj
 0003:000001c4       ?s_RequiredMethodsPerRelease@@3PAHA 100291c4     VoiceRecognitionImpl.obj
 0003:000001c8       ?s_SOMethodNames@@3PAPADA  100291c8     VoiceRecognitionImpl.obj
 0003:00000240       ?__vcrt_flsindex@@3KA      10029240     libvcruntime:per_thread_data.obj
 0003:00000260       ?errno_no_memory@@3HA      10029260     libucrt:errno.obj
 0003:00000264       ?doserrno_no_memory@@3KA   10029264     libucrt:errno.obj
 0003:00000270       ?__acrt_flsindex@@3KA      10029270     libucrt:per_thread_data.obj
 0003:00000608       __mbctypes                 10029608     libucrt:mbctype.obj
 0003:00000710       __mbcasemaps               10029710     libucrt:mbctype.obj
 0003:00000810       ?__rgctypeflag@@3PADA      10029810     libucrt:mbctype.obj
 0003:00000818       ?__rgcode_page_info@@3PAUcode_page_info@@A 10029818     libucrt:mbctype.obj
 0003:00000a70       ?__dcrt_lowio_console_output_handle@@3PAXA 10029a70     libucrt:initcon.obj
 0003:00000a74       ?__DAZ_ENABLED@?1??__set_fpsr_sse2@@9@9 10029a74     libucrt:fpctrl.obj
 0003:00000c08       ?is_initialized_as_dll@@3_NA 10029c08     LIBCMT:utility.obj
 0003:00000c09       ?module_local_atexit_table_initialized@@3_NA 10029c09     LIBCMT:utility.obj
 0003:00000c0c       ?module_local_atexit_table@@3U_onexit_table_t@@A 10029c0c     LIBCMT:utility.obj
 0003:00000c18       ?module_local_at_quick_exit_table@@3U_onexit_table_t@@A 10029c18     LIBCMT:utility.obj
 0003:00000c24       ?g_tss_cv@@3U_RTL_CONDITION_VARIABLE@@A 10029c24     LIBCMT:thread_safe_statics.obj
 0003:00000c28       ?g_tss_event@@3PAXA        10029c28     LIBCMT:thread_safe_statics.obj
 0003:00000c2c       ?g_tss_mutex@@3U_RTL_CRITICAL_SECTION@@A 10029c2c     LIBCMT:thread_safe_statics.obj
 0003:00000c44       ?g_sleep_condition_variable_cs@@3P6GHPAU_RTL_CONDITION_VARIABLE@@PAU_RTL_CRITICAL_SECTION@@K@ZA 10029c44     LIBCMT:thread_safe_statics.obj
 0003:00000c48       ?g_wake_all_condition_variable@@3P6GXPAU_RTL_CONDITION_VARIABLE@@@ZA 10029c48     LIBCMT:thread_safe_statics.obj
 0003:00000c50       _GS_ExceptionRecord        10029c50     LIBCMT:gs_report.obj
 0003:00000ca0       _GS_ContextRecord          10029ca0     LIBCMT:gs_report.obj
 0003:00000f70       ?__proc_attached@@3HA      10029f70     LIBCMT:dll_dllmain.obj
 0003:00000fcc       ?AllocateData@@3P6GPAUAtlThunkData_t@@XZA 10029fcc     atls:atlthunk.obj
 0003:00000fd0       ?InitData@@3P6GXPAUAtlThunkData_t@@PAXI@ZA 10029fd0     atls:atlthunk.obj
 0003:00000fd4       ?DataToCode@@3P6GP6GJPAUHWND__@@IIJ@ZPAUAtlThunkData_t@@@ZA 10029fd4     atls:atlthunk.obj
 0003:00000fd8       ?FreeData@@3P6GXPAUAtlThunkData_t@@@ZA 10029fd8     atls:atlthunk.obj
 0003:00000fdc       ?Initialized@@3_NA         10029fdc     atls:atlthunk.obj
 0003:00000fec       ?__vcrt_startup_thread_ptd@@3U__vcrt_ptd@@A 10029fec     libvcruntime:per_thread_data.obj
 0003:00001014       ___vcrt_lock_table         1002a014     libvcruntime:locks.obj
 0003:0000102c       ___vcrt_locks_initialized  1002a02c     libvcruntime:locks.obj
 0003:00001058       ?heap@@3V_HeapManager@@A   1002a058     libvcruntime:undname.obj
 0003:0000106c       ?module_handles@@3PAPAUHINSTANCE__@@A 1002a06c     libvcruntime:winapi_downlevel.obj
 0003:00001078       ?function_pointers@@3PAPAXA 1002a078     libvcruntime:winapi_downlevel.obj
 0003:0000108c       ?__acrt_invalid_parameter_handler@@3V?$dual_state_global@P6AXPB_W00II@Z@__crt_state_management@@A 1002a08c     libucrt:invalid_parameter.obj
 0003:00001090       ?c_termination_complete@@3JA 1002a090     libucrt:exit.obj
 0003:00001094       ?thread_local_exit_callback_func@@3P6GXPAXK0@ZA 1002a094     libucrt:exit.obj
 0003:000010a0       ?program_name@?1???$common_configure_argv@D@@YAHW4_crt_argv_mode@@@Z@4PADA 1002a0a0     libucrt:argv_parsing.obj
 0003:000011d0       ?__acrt_new_handler@@3V?$dual_state_global@P6AHI@Z@__crt_state_management@@A 1002a1d0     libucrt:new_handler.obj
 0003:000011e0       ?module_handles@@3PAPAUHINSTANCE__@@A 1002a1e0     libucrt:winapi_thunks.obj
 0003:00001230       ?encoded_function_pointers@@3PAPAXA 1002a230     libucrt:winapi_thunks.obj
 0003:000012b8       ?internal_state@?1??_mbtowc_internal@@9@4U_Mbstatet@@A 1002a2b8     libucrt:mbtowc.obj
 0003:000012c8       ?enable_percent_n@@3IA     1002a2c8     libucrt:printf_count_output.obj
 0003:000014e0       ?__acrt_lock_table@@3PAU_RTL_CRITICAL_SECTION@@A 1002a4e0     libucrt:locks.obj
 0003:00001630       ?__acrt_locks_initialized@@3IA 1002a630     libucrt:locks.obj
 0003:00001640       ?fSystemSet@@3HA           1002a640     libucrt:mbctype.obj
 0003:00001644       ?initialized@?1??__acrt_initialize_multibyte@@9@4_NA 1002a644     libucrt:mbctype.obj
 0003:00001664       ?ctrlc_action@@3V?$dual_state_global@P6AXH@Z@__crt_state_management@@A 1002a664     libucrt:signal.obj
 0003:00001668       ?ctrlbreak_action@@3V?$dual_state_global@P6AXH@Z@__crt_state_management@@A 1002a668     libucrt:signal.obj
 0003:0000166c       ?abort_action@@3V?$dual_state_global@P6AXH@Z@__crt_state_management@@A 1002a66c     libucrt:signal.obj
 0003:00001670       ?term_action@@3V?$dual_state_global@P6AXH@Z@__crt_state_management@@A 1002a670     libucrt:signal.obj
 0003:00001674       ?user_matherr@@3V?$dual_state_global@P6AHPAU_exception@@@Z@__crt_state_management@@A 1002a674     libucrt:matherr.obj
 0003:00001680       ?__acrt_global_new_mode@@3V?$dual_state_global@J@__crt_state_management@@A 1002a680     libucrt:new_mode.obj
 0003:00001684       ?internal_pst@?1??__mbrtoc32_utf8@__crt_mbstring@@YAIPA_UPBDIPAU_Mbstatet@@AAV__crt_cached_ptd_host@@@Z@4U3@A 1002a684     libucrt:mbrtoc32.obj
 0003:0000168c       ?__acrt_app_type@@3W4_crt_app_type@@A 1002a68c     libucrt:report_runtime_error.obj
 0003:00001694       __pmatherr_set             1002a694     libucrt:libm_error.obj
 0004:00000220       $R000000                   1002b220     VoiceRecognition.res
 0004:00000b80       $R000960                   1002bb80     VoiceRecognition.res
 0004:00000c68       $R000A48                   1002bc68     VoiceRecognition.res
 0004:00000ed0       $R000CB0                   1002bed0     VoiceRecognition.res
 0004:000013c0       $R0011A0                   1002c3c0     VoiceRecognition.res
 0004:00003e20       $R003C00                   1002ee20     VoiceRecognition.res
 0004:00003e60       $R003C40                   1002ee60     VoiceRecognition.res
