 OPOSCAT

 Timestamp is 5b863ce8 (Wed Aug 29 15:27:52 2018)

 Preferred load address is 10000000

 Start         Length     Name                   Class
 0001:00000000 00000080H .text$di                CODE
 0001:00000080 0001d9bbH .text$mn                CODE
 0001:0001da3b 00000051H .text$x                 CODE
 0001:0001da8c 00000042H .text$yd                CODE
 0002:00000000 000002fcH .idata$5                DATA
 0002:000002fc 00000004H .00cfg                  DATA
 0002:00000300 00000004H .CRT$XCA                DATA
 0002:00000304 00000004H .CRT$XCL                DATA
 0002:00000308 00000010H .CRT$XCU                DATA
 0002:00000318 00000004H .CRT$XCZ                DATA
 0002:0000031c 00000004H .CRT$XIA                DATA
 0002:00000320 00000010H .CRT$XIC                DATA
 0002:00000330 00000004H .CRT$XIZ                DATA
 0002:00000334 00000004H .CRT$XLA                DATA
 0002:00000338 00000004H .CRT$XLZ                DATA
 0002:0000033c 00000004H .CRT$XPA                DATA
 0002:00000340 00000008H .CRT$XPX                DATA
 0002:00000348 00000004H .CRT$XPXA               DATA
 0002:0000034c 00000004H .CRT$XPZ                DATA
 0002:00000350 00000004H .CRT$XTA                DATA
 0002:00000354 0000000cH .CRT$XTZ                DATA
 0002:00000358 00000000H .gfids$y                DATA
 0002:00000360 00006f18H .rdata                  DATA
 0002:00007278 00000018H .rdata$T                DATA
 0002:00007290 00000180H .rdata$r                DATA
 0002:00007410 00000020H .rdata$sxdata           DATA
 0002:00007430 000003d8H .rdata$zzzdbg           DATA
 0002:00007808 00000004H .rtc$IAA                DATA
 0002:0000780c 00000004H .rtc$IZZ                DATA
 0002:00007810 00000004H .rtc$TAA                DATA
 0002:00007814 00000004H .rtc$TZZ                DATA
 0002:00007818 00000004H .tls                    DATA
 0002:0000781c 00000004H .tls$                   DATA
 0002:00007820 00000008H .tls$ZZZ                DATA
 0002:00007828 00000624H .xdata$x                DATA
 0002:00007e4c 00000004H ATL$__a                 DATA
 0002:00007e50 00000010H ATL$__z                 DATA
 0002:00007e60 000000a4H .edata                  DATA
 0002:00007f04 00000078H .idata$2                DATA
 0002:00007f7c 00000014H .idata$3                DATA
 0002:00007f90 000002fcH .idata$4                DATA
 0002:0000828c 00000bc0H .idata$6                DATA
 0003:00000000 000009b0H .data                   DATA
 0003:000009b0 00000098H .data$r                 DATA
 0003:00000a48 00000b68H .bss                    DATA
 0004:00000000 00000220H .rsrc$01                DATA
 0004:00000220 00005158H .rsrc$02                DATA

  Address         Publics by Value              Rva+Base       Lib:Object

 0000:00000000       ___guard_iat_count         00000000     <absolute>
 0000:00000000       ___guard_longjmp_table     00000000     <absolute>
 0000:00000000       ___dynamic_value_reloc_table 00000000     <absolute>
 0000:00000000       ___guard_longjmp_count     00000000     <absolute>
 0000:00000000       ___hybrid_code_map_count   00000000     <absolute>
 0000:00000000       __except_list              00000000     <absolute>
 0000:00000000       ___guard_fids_table        00000000     <absolute>
 0000:00000000       ___hybrid_auxiliary_iat    00000000     <absolute>
 0000:00000000       ___guard_fids_count        00000000     <absolute>
 0000:00000000       ___guard_iat_table         00000000     <absolute>
 0000:00000000       ___volatile_metadata       00000000     <absolute>
 0000:00000000       ___enclave_config          00000000     <absolute>
 0000:00000000       ___hybrid_code_map         00000000     <absolute>
 0000:00000008       ___safe_se_handler_count   00000008     <absolute>
 0000:0000002c       __tls_array                0000002c     <absolute>
 0000:00000100       ___guard_flags             00000100     <absolute>
 0000:00000000       ___ImageBase               10000000     <linker-defined>
 0001:00000080       ?DupWide@_CW@@AAEXXZ       10001080 f   CWString.obj
 0001:0000009c       ?cw_dup@@YGXPBDAAHAAPA_W1@Z 1000109c f   CWString.obj
 0001:0000010b       ?cw_memcpy@@YGHPA_WPBDH@Z  1000110b f   CWString.obj
 0001:00000137       ?cw_strcpy@@YAHPA_WPBD@Z   10001137 f   CWString.obj
 0001:0000014a       ?cw_strlen@@YAHPBD@Z       1000114a f   CWString.obj
 0001:00000163       ??0CAtlComModule@ATL@@QAE@XZ 10001163 f i OposVariant.obj
 0001:000001a8       ??0CAtlWinModule@ATL@@QAE@XZ 100011a8 f i OposVariant.obj
 0001:000001df       ??0OposDispParms@@QAE@PAVOposVariant@@H@Z 100011df f   OposVariant.obj
 0001:00000250       ??1OposDispParms@@QAE@XZ   10001250 f   OposVariant.obj
 0001:0000025e       ??A?$CSimpleArray@GV?$CSimpleArrayEqualHelper@G@ATL@@@ATL@@QAEAAGH@Z 1000125e f i OposVariant.obj
 0001:00000283       ??_Estringdispid@CComTypeInfoHolder@ATL@@QAEPAXI@Z 10001283 f i OposVariant.obj
 0001:000002ef       ?AtlWinModuleInit@ATL@@YGJPAU_ATL_WIN_MODULE70@1@@Z 100012ef f i OposVariant.obj
 0001:00000315       ?AtlWinModuleTerm@ATL@@YGJPAU_ATL_WIN_MODULE70@1@PAUHINSTANCE__@@@Z 10001315 f i OposVariant.obj
 0001:00000378       ?ChangeBSTR@OposVariant@@QAEXPAPA_WAAJ@Z 10001378 f   OposVariant.obj
 0001:000003b9       ?ChangeCURRENCY@OposVariant@@QAEXPATtagCY@@AAJ@Z 100013b9 f   OposVariant.obj
 0001:00000408       ?ChangeLONG@OposVariant@@QAEXPAJAAJ@Z 10001408 f   OposVariant.obj
 0001:00000449       ?GetLONG@OposVariant@@QAEJXZ 10001449 f   OposVariant.obj
 0001:00000464       ?Init@CComCriticalSection@ATL@@QAEJXZ 10001464 f i OposVariant.obj
 0001:0000048b       ?RemoveAll@?$CSimpleArray@PAUHINSTANCE__@@V?$CSimpleArrayEqualHelper@PAUHINSTANCE__@@@ATL@@@ATL@@QAEXXZ 1000148b f i atls:atlbase.obj
 0001:0000048b       ?RemoveAll@?$CSimpleArray@GV?$CSimpleArrayEqualHelper@G@ATL@@@ATL@@QAEXXZ 1000148b f i OposVariant.obj
 0001:000004a8       ?SetBSTR@OposVariant@@QAEXPA_WAAJ@Z 100014a8 f   OposVariant.obj
 0001:000004dc       ?SetBSTR_Copy@OposVariant@@QAEXPA_WAAJ@Z 100014dc f   OposVariant.obj
 0001:0000052c       ?SetBSTR_InOutPtr@OposVariant@@QAE_NPAPA_WAAJ@Z 1000152c f   OposVariant.obj
 0001:00000563       ?SetCURRENCY@OposVariant@@QAEXTtagCY@@@Z 10001563 f   OposVariant.obj
 0001:0000058b       ?SetDispatch_Ptr@OposVariant@@QAEXPAUIDispatch@@AAJ@Z 1000158b f   OposVariant.obj
 0001:000005c6       ?SetLONG@OposVariant@@QAEXJ@Z 100015c6 f   OposVariant.obj
 0001:000005e8       ?SetLONG_Ptr@OposVariant@@QAEXPAJAAJ@Z 100015e8 f   OposVariant.obj
 0001:0000061b       ?SetString@OposVariant@@QAEXPB_WAAJ@Z 1000161b f   OposVariant.obj
 0001:00000661       ?SetVARIANT_BOOL@OposVariant@@QAEXF@Z 10001661 f   OposVariant.obj
 0001:0000068b       ?Term@CAtlComModule@ATL@@QAEXXZ 1000168b f i OposVariant.obj
 0001:000006d5       ?_AtlRaiseException@ATL@@YAXKK@Z 100016d5 f i OposVariant.obj
 0001:000006ea       ?Unadvise@?$IOleObjectImpl@VCOPOSCAT@@@ATL@@UAGJK@Z 100016ea f i CAT.obj
 0001:00000719       ?EnumAdvise@?$IOleObjectImpl@VCOPOSCAT@@@ATL@@UAGJPAPAUIEnumSTATDATA@@@Z 10001719 f i CAT.obj
 0001:00000759       ?GetMiscStatus@?$IOleObjectImpl@VCOPOSCAT@@@ATL@@UAGJKPAK@Z 10001759 f i CAT.obj
 0001:00000771       ?OnMnemonic@?$IOleControlImpl@VCOPOSCAT@@@ATL@@UAGJPAUtagMSG@@@Z 10001771 f i CAT.obj
 0001:00000771       ?ContextSensitiveHelp@?$IOleInPlaceObjectWindowlessImpl@VCOPOSCAT@@@ATL@@UAGJH@Z 10001771 f i CAT.obj
 0001:00000771       ?QueryGetData@?$IDataObjectImpl@VCOPOSCAT@@@ATL@@UAGJPAUtagFORMATETC@@@Z 10001771 f i CAT.obj
 0001:00000771       ?SetColorScheme@?$IOleObjectImpl@VCOPOSCAT@@@ATL@@UAGJPAUtagLOGPALETTE@@@Z 10001771 f i CAT.obj
 0001:00000771       ?GetControlInfo@?$IOleControlImpl@VCOPOSCAT@@@ATL@@UAGJPAUtagCONTROLINFO@@@Z 10001771 f i CAT.obj
 0001:00000771       ?GetDropTarget@?$IOleInPlaceObjectWindowlessImpl@VCOPOSCAT@@@ATL@@UAGJPAPAUIDropTarget@@@Z 10001771 f i CAT.obj
 0001:00000771       ?Unfreeze@?$IViewObjectExImpl@VCOPOSCAT@@@ATL@@UAGJK@Z 10001771 f i CAT.obj
 0001:00000771       ?SODataDummy@COPOSCAT@@MAGJJ@Z 10001771 f i CAT.obj
 0001:00000771       ?ContextSensitiveHelp@?$IOleInPlaceActiveObjectImpl@VCOPOSCAT@@@ATL@@UAGJH@Z 10001771 f i CAT.obj
 0001:00000779       ?GetWindow@?$IOleInPlaceActiveObjectImpl@VCOPOSCAT@@@ATL@@UAGJPAPAUHWND__@@@Z 10001779 f i CAT.obj
 0001:000007c6       ?TranslateAcceleratorW@?$IOleInPlaceActiveObjectImpl@VCOPOSCAT@@@ATL@@UAGJPAUtagMSG@@@Z 100017c6 f i CAT.obj
 0001:00000864       ?OnAmbientPropertyChange@?$IOleControlImpl@VCOPOSCAT@@@ATL@@UAGJJ@Z 10001864 f i CAT.obj
 0001:00000864       ?OnFrameWindowActivate@?$IOleInPlaceActiveObjectImpl@VCOPOSCAT@@@ATL@@UAGJH@Z 10001864 f i CAT.obj
 0001:00000864       ?SaveCompleted@?$IPersistStorageImpl@VCOPOSCAT@@@ATL@@UAGJPAUIStorage@@@Z 10001864 f i CAT.obj
 0001:00000864       ?EnableModeless@?$IOleInPlaceActiveObjectImpl@VCOPOSCAT@@@ATL@@UAGJH@Z 10001864 f i CAT.obj
 0001:00000869       ?OnDocWindowActivate@?$IOleInPlaceActiveObjectImpl@VCOPOSCAT@@@ATL@@UAGJH@Z 10001869 f i CAT.obj
 0001:0000088b       ?ResizeBorder@?$IOleInPlaceActiveObjectImpl@VCOPOSCAT@@@ATL@@UAGJPBUtagRECT@@PAUIOleInPlaceUIWindow@@H@Z 1000188b f i CAT.obj
 0001:00000890       ?Draw@?$IViewObjectExImpl@VCOPOSCAT@@@ATL@@UAGJKJPAXPAUtagDVTARGETDEVICE@@PAUHDC__@@2PBU_RECTL@@3P6GHK@ZK@Z 10001890 f i CAT.obj
 0001:000008c2       ?GetColorSet@?$IViewObjectExImpl@VCOPOSCAT@@@ATL@@UAGJKJPAXPAUtagDVTARGETDEVICE@@PAUHDC__@@PAPAUtagLOGPALETTE@@@Z 100018c2 f i CAT.obj
 0001:000008ca       ?Freeze@?$IViewObjectExImpl@VCOPOSCAT@@@ATL@@UAGJKJPAXPAK@Z 100018ca f i CAT.obj
 0001:000008d2       ?SetAdvise@?$IViewObjectExImpl@VCOPOSCAT@@@ATL@@UAGJKKPAUIAdviseSink@@@Z 100018d2 f i CAT.obj
 0001:000008f1       ?GetAdvise@?$IViewObjectExImpl@VCOPOSCAT@@@ATL@@UAGJPAK0PAPAUIAdviseSink@@@Z 100018f1 f i CAT.obj
 0001:00000926       ?GetExtent@?$IViewObjectExImpl@VCOPOSCAT@@@ATL@@UAGJKJPAUtagDVTARGETDEVICE@@PAUtagSIZE@@@Z 10001926 f i CAT.obj
 0001:00000957       ?EnumFormatEtc@?$IDataObjectImpl@VCOPOSCAT@@@ATL@@UAGJKPAPAUIEnumFORMATETC@@@Z 10001957 f i CAT.obj
 0001:00000957       ?SetMoniker@?$IOleObjectImpl@VCOPOSCAT@@@ATL@@UAGJKPAUIMoniker@@@Z 10001957 f i CAT.obj
 0001:00000957       ?GetDataHere@?$IDataObjectImpl@VCOPOSCAT@@@ATL@@UAGJPAUtagFORMATETC@@PAUtagSTGMEDIUM@@@Z 10001957 f i CAT.obj
 0001:00000957       ?GetRect@?$IViewObjectExImpl@VCOPOSCAT@@@ATL@@UAGJKPAU_RECTL@@@Z 10001957 f i CAT.obj
 0001:00000957       ?GetClipboardData@?$IOleObjectImpl@VCOPOSCAT@@@ATL@@UAGJKPAPAUIDataObject@@@Z 10001957 f i CAT.obj
 0001:00000957       ?GetCanonicalFormatEtc@?$IDataObjectImpl@VCOPOSCAT@@@ATL@@UAGJPAUtagFORMATETC@@0@Z 10001957 f i CAT.obj
 0001:00000957       ?QueryInterface@CRegObject@ATL@@UAGJABU_GUID@@PAPAX@Z 10001957 f i CAT.obj
 0001:0000095f       ?GetViewStatus@?$IViewObjectExImpl@VCOPOSCAT@@@ATL@@UAGJPAK@Z 1000195f f i CAT.obj
 0001:0000097c       ?QueryHitPoint@?$IViewObjectExImpl@VCOPOSCAT@@@ATL@@UAGJKPBUtagRECT@@UtagPOINT@@JPAK@Z 1000197c f i CAT.obj
 0001:000009bd       ?QueryHitRect@?$IViewObjectExImpl@VCOPOSCAT@@@ATL@@UAGJKPBUtagRECT@@0JPAK@Z 100019bd f i CAT.obj
 0001:00000a18       ?GetNaturalExtent@?$IViewObjectExImpl@VCOPOSCAT@@@ATL@@UAGJKJPAUtagDVTARGETDEVICE@@PAUHDC__@@PAUtagExtentInfo@@PAUtagSIZE@@@Z 10001a18 f i CAT.obj
 0001:00000a63       ?GetWindow@?$IOleInPlaceObjectWindowlessImpl@VCOPOSCAT@@@ATL@@UAGJPAPAUHWND__@@@Z 10001a63 f i CAT.obj
 0001:00000ab0       ?InPlaceDeactivate@?$IOleInPlaceObjectWindowlessImpl@VCOPOSCAT@@@ATL@@UAGJXZ 10001ab0 f i CAT.obj
 0001:00000aca       ?UIDeactivate@?$IOleInPlaceObjectWindowlessImpl@VCOPOSCAT@@@ATL@@UAGJXZ 10001aca f i CAT.obj
 0001:00000ae4       ?SetObjectRects@?$IOleInPlaceObjectWindowlessImpl@VCOPOSCAT@@@ATL@@UAGJPBUtagRECT@@0@Z 10001ae4 f i CAT.obj
 0001:00000b04       ?ReactivateAndUndo@?$IOleInPlaceObjectWindowlessImpl@VCOPOSCAT@@@ATL@@UAGJXZ 10001b04 f i CAT.obj
 0001:00000b0c       ?OnWindowMessage@?$IOleInPlaceObjectWindowlessImpl@VCOPOSCAT@@@ATL@@UAGJIIJPAJ@Z 10001b0c f i CAT.obj
 0001:00000b7c       ?EnumConnectionPoints@?$IConnectionPointContainerImpl@VCOPOSCAT@@@ATL@@UAGJPAPAUIEnumConnectionPoints@@@Z 10001b7c f i CAT.obj
 0001:00000cf6       ?FindConnectionPoint@?$IConnectionPointContainerImpl@VCOPOSCAT@@@ATL@@UAGJABU_GUID@@PAPAUIConnectionPoint@@@Z 10001cf6 f i CAT.obj
 0001:00000d99       ?GetClassID@?$IPersistStreamInitImpl@VCOPOSCAT@@@ATL@@UAGJPAU_GUID@@@Z 10001d99 f i CAT.obj
 0001:00000d99       ?GetUserClassID@?$IOleObjectImpl@VCOPOSCAT@@@ATL@@UAGJPAU_GUID@@@Z 10001d99 f i CAT.obj
 0001:00000d99       ?GetClassID@?$IPersistStorageImpl@VCOPOSCAT@@@ATL@@UAGJPAU_GUID@@@Z 10001d99 f i CAT.obj
 0001:00000dbd       ?IsDirty@?$IPersistStorageImpl@VCOPOSCAT@@@ATL@@UAGJXZ 10001dbd f i CAT.obj
 0001:00000df1       ?InitNew@?$IPersistStorageImpl@VCOPOSCAT@@@ATL@@UAGJPAUIStorage@@@Z 10001df1 f i CAT.obj
 0001:00000e25       ?Load@?$IPersistStorageImpl@VCOPOSCAT@@@ATL@@UAGJPAUIStorage@@@Z 10001e25 f i CAT.obj
 0001:00000e91       ?Save@?$IPersistStorageImpl@VCOPOSCAT@@@ATL@@UAGJPAUIStorage@@H@Z 10001e91 f i CAT.obj
 0001:00000f04       ?IsUpToDate@?$IOleObjectImpl@VCOPOSCAT@@@ATL@@UAGJXZ 10001f04 f i CAT.obj
 0001:00000f04       ?Release@CRegObject@ATL@@UAGKXZ 10001f04 f i CAT.obj
 0001:00000f04       ?Update@?$IOleObjectImpl@VCOPOSCAT@@@ATL@@UAGJXZ 10001f04 f i CAT.obj
 0001:00000f04       ?HandsOffStorage@?$IPersistStorageImpl@VCOPOSCAT@@@ATL@@UAGJXZ 10001f04 f i CAT.obj
 0001:00000f09       ?GetPages@?$ISpecifyPropertyPagesImpl@VCOPOSCAT@@@ATL@@UAGJPAUtagCAUUID@@@Z 10001f09 f i CAT.obj
 0001:00000f20       ?QuickActivate@?$IQuickActivateImpl@VCOPOSCAT@@@ATL@@UAGJPAUtagQACONTAINER@@PAUtagQACONTROL@@@Z 10001f20 f i CAT.obj
 0001:00000f43       ?SetContentExtent@?$IQuickActivateImpl@VCOPOSCAT@@@ATL@@UAGJPAUtagSIZE@@@Z 10001f43 f i CAT.obj
 0001:00000f6f       ?GetContentExtent@?$IQuickActivateImpl@VCOPOSCAT@@@ATL@@UAGJPAUtagSIZE@@@Z 10001f6f f i CAT.obj
 0001:00000f8f       ?GetData@?$IDataObjectImpl@VCOPOSCAT@@@ATL@@UAGJPAUtagFORMATETC@@PAUtagSTGMEDIUM@@@Z 10001f8f f i CAT.obj
 0001:00000fb2       ?SetData@?$IDataObjectImpl@VCOPOSCAT@@@ATL@@UAGJPAUtagFORMATETC@@PAUtagSTGMEDIUM@@H@Z 10001fb2 f i CAT.obj
 0001:00000fb2       ?GetMoniker@?$IOleObjectImpl@VCOPOSCAT@@@ATL@@UAGJKKPAPAUIMoniker@@@Z 10001fb2 f i CAT.obj
 0001:00000fb2       ?InitFromData@?$IOleObjectImpl@VCOPOSCAT@@@ATL@@UAGJPAUIDataObject@@HK@Z 10001fb2 f i CAT.obj
 0001:00000fba       ?DAdvise@?$IDataObjectImpl@VCOPOSCAT@@@ATL@@UAGJPAUtagFORMATETC@@KPAUIAdviseSink@@PAK@Z 10001fba f i CAT.obj
 0001:00000ffb       ?DUnadvise@?$IDataObjectImpl@VCOPOSCAT@@@ATL@@UAGJK@Z 10001ffb f i CAT.obj
 0001:00001029       ?EnumDAdvise@?$IDataObjectImpl@VCOPOSCAT@@@ATL@@UAGJPAPAUIEnumSTATDATA@@@Z 10002029 f i CAT.obj
 0001:00001068       ?GetClassInfoW@?$IProvideClassInfo2Impl@$1?CLSID_OPOSCAT@@3U_GUID@@B$1?DIID__IOPOSCATEvents@@3U2@B$1?LIBID_OposCAT_CCO@@3U2@B$00$0A@VCComTypeInfoHolder@ATL@@@ATL@@UAGJPAPAUITypeInfo@@@Z 10002068 f i CAT.obj
 0001:0000107e       ?GetGUID@?$IProvideClassInfo2Impl@$1?CLSID_OPOSCAT@@3U_GUID@@B$1?DIID__IOPOSCATEvents@@3U2@B$1?LIBID_OposCAT_CCO@@3U2@B$00$0A@VCComTypeInfoHolder@ATL@@@ATL@@UAGJKPAU_GUID@@@Z 1000207e f i CAT.obj
 0001:000010bc       ?FAccessAllowed@?$IObjectSafetyImpl@VCOPOSCAT@@$02@ATL@@MAEHXZ 100020bc f i CAT.obj
 0001:000010bc       __get_startup_argv_mode    100020bc f i LIBCMT:argv_mode.obj
 0001:000010c0       ?GetInterfaceSafetyOptions@?$IObjectSafetyImpl@VCOPOSCAT@@$02@ATL@@UAGJABU_GUID@@PAK1@Z 100020c0 f i CAT.obj
 0001:00001134       ?SetInterfaceSafetyOptions@?$IObjectSafetyImpl@VCOPOSCAT@@$02@ATL@@UAGJABU_GUID@@KK@Z 10002134 f i CAT.obj
 0001:000011ae       ?_LocCPQueryInterface@?$IConnectionPointImpl@VCOPOSCAT@@$1?IID_IPropertyNotifySink@@3U_GUID@@BVCComDynamicUnkArray@ATL@@@ATL@@UAGJABU_GUID@@PAPAX@Z 100021ae f i CAT.obj
 0001:000011ae       ?_LocCPQueryInterface@?$IConnectionPointImpl@VCOPOSCAT@@$1?DIID__IOPOSCATEvents@@3U_GUID@@BVCComDynamicUnkArray@ATL@@@ATL@@UAGJABU_GUID@@PAPAX@Z 100021ae f i CAT.obj
 0001:000011fb       ?GetConnectionInterface@?$IConnectionPointImpl@VCOPOSCAT@@$1?IID_IPropertyNotifySink@@3U_GUID@@BVCComDynamicUnkArray@ATL@@@ATL@@UAGJPAU_GUID@@@Z 100021fb f i CAT.obj
 0001:0000121f       ?GetConnectionPointContainer@?$IConnectionPointImpl@VCOPOSCAT@@$1?IID_IPropertyNotifySink@@3U_GUID@@BVCComDynamicUnkArray@ATL@@@ATL@@UAGJPAPAUIConnectionPointContainer@@@Z 1000221f f i CAT.obj
 0001:00001242       ?Advise@?$IConnectionPointImpl@VCOPOSCAT@@$1?DIID__IOPOSCATEvents@@3U_GUID@@BVCComDynamicUnkArray@ATL@@@ATL@@UAGJPAUIUnknown@@PAK@Z 10002242 f i CAT.obj
 0001:00001242       ?Advise@?$IConnectionPointImpl@VCOPOSCAT@@$1?IID_IPropertyNotifySink@@3U_GUID@@BVCComDynamicUnkArray@ATL@@@ATL@@UAGJPAUIUnknown@@PAK@Z 10002242 f i CAT.obj
 0001:000012e3       ?Unadvise@?$IConnectionPointImpl@VCOPOSCAT@@$1?IID_IPropertyNotifySink@@3U_GUID@@BVCComDynamicUnkArray@ATL@@@ATL@@UAGJK@Z 100022e3 f i CAT.obj
 0001:000012e3       ?Unadvise@?$IConnectionPointImpl@VCOPOSCAT@@$1?DIID__IOPOSCATEvents@@3U_GUID@@BVCComDynamicUnkArray@ATL@@@ATL@@UAGJK@Z 100022e3 f i CAT.obj
 0001:00001323       ?EnumConnections@?$IConnectionPointImpl@VCOPOSCAT@@$1?DIID__IOPOSCATEvents@@3U_GUID@@BVCComDynamicUnkArray@ATL@@@ATL@@UAGJPAPAUIEnumConnections@@@Z 10002323 f i CAT.obj
 0001:00001323       ?EnumConnections@?$IConnectionPointImpl@VCOPOSCAT@@$1?IID_IPropertyNotifySink@@3U_GUID@@BVCComDynamicUnkArray@ATL@@@ATL@@UAGJPAPAUIEnumConnections@@@Z 10002323 f i CAT.obj
 0001:00001429       ?GetObjectDescription@?$CComCoClass@VCOPOSCAT@@$1?CLSID_OPOSCAT@@3U_GUID@@B@ATL@@SGPB_WXZ 10002429 f i CAT.obj
 0001:00001429       ?GetCategoryMap@CComObjectRootBase@ATL@@SAPBU_ATL_CATMAP_ENTRY@2@XZ 10002429 f i CAT.obj
 0001:0000142c       ?GetConnectionInterface@?$IConnectionPointImpl@VCOPOSCAT@@$1?DIID__IOPOSCATEvents@@3U_GUID@@BVCComDynamicUnkArray@ATL@@@ATL@@UAGJPAU_GUID@@@Z 1000242c f i CAT.obj
 0001:00001450       ?GetConnectionPointContainer@?$IConnectionPointImpl@VCOPOSCAT@@$1?DIID__IOPOSCATEvents@@3U_GUID@@BVCComDynamicUnkArray@ATL@@@ATL@@UAGJPAPAUIConnectionPointContainer@@@Z 10002450 f i CAT.obj
 0001:00001473       ?UpdateRegistry@COPOSCAT@@SGJH@Z 10002473 f i CAT.obj
 0001:0000148b       ?ProcessWindowMessage@COPOSCAT@@UAEHPAUHWND__@@IIJAAJK@Z 1000248b f i CAT.obj
 0001:000014d4       ?SODirectIO@COPOSCAT@@MAGJJPAJPAPA_W@Z 100024d4 f i CAT.obj
 0001:0000151d       ?SOError@COPOSCAT@@MAGJJJJPAJ@Z 1000251d f i CAT.obj
 0001:00001572       ?SOOutputComplete@COPOSCAT@@MAGJJ@Z 10002572 f i CAT.obj
 0001:000015ab       ?SOStatusUpdate@COPOSCAT@@MAGJJ@Z 100025ab f i CAT.obj
 0001:000015e4       ?AddRef@CRegObject@ATL@@UAGKXZ 100025e4 f i CAT.obj
 0001:000015ea       ?AddReplacement@CRegObject@ATL@@UAGJPB_W0@Z 100025ea f i CAT.obj
 0001:00001623       ?ClearReplacements@CRegObject@ATL@@UAGJXZ 10002623 f i CAT.obj
 0001:00001635       ??_ECRegObject@ATL@@UAEPAXI@Z 10002635 f i CAT.obj
 0001:00001635       ??_GCRegObject@ATL@@UAEPAXI@Z 10002635 f i CAT.obj
 0001:00001657       ?CreateInstance@?$CComCreator@V?$CComObjectCached@VCComClassFactory@ATL@@@ATL@@@ATL@@SGJPAXABU_GUID@@PAPAX@Z 10002657 f i CAT.obj
 0001:000016ea       ?CreateInstance@?$CComCreator2@V?$CComCreator@V?$CComObject@VCOPOSCAT@@@ATL@@@ATL@@V?$CComCreator@V?$CComAggObject@VCOPOSCAT@@@ATL@@@2@@ATL@@SGJPAXABU_GUID@@PAPAX@Z 100026ea f i CAT.obj
 0001:0000170a       ?Next@?$CComEnumImpl@UIEnumConnectionPoints@@$1?_GUID_b196b285_bab4_101a_b69c_00aa00341d07@@3U__s_GUID@@BPAUIConnectionPoint@@V?$_CopyInterface@UIConnectionPoint@@@ATL@@@ATL@@UAGJKPAPAUIConnectionPoint@@PAK@Z 1000270a f i CAT.obj
 0001:000017e1       ?Skip@?$CComEnumImpl@UIEnumConnectionPoints@@$1?_GUID_b196b285_bab4_101a_b69c_00aa00341d07@@3U__s_GUID@@BPAUIConnectionPoint@@V?$_CopyInterface@UIConnectionPoint@@@ATL@@@ATL@@UAGJK@Z 100027e1 f i CAT.obj
 0001:0000180e       ?Reset@?$CComEnumImpl@UIEnumConnections@@$1?_GUID_b196b287_bab4_101a_b69c_00aa00341d07@@3U__s_GUID@@BUtagCONNECTDATA@@V?$_Copy@UtagCONNECTDATA@@@ATL@@@ATL@@UAGJXZ 1000280e f i CAT.obj
 0001:0000180e       ?Reset@?$CComEnumImpl@UIEnumConnectionPoints@@$1?_GUID_b196b285_bab4_101a_b69c_00aa00341d07@@3U__s_GUID@@BPAUIConnectionPoint@@V?$_CopyInterface@UIConnectionPoint@@@ATL@@@ATL@@UAGJXZ 1000280e f i CAT.obj
 0001:00001820       ?Clone@?$CComEnumImpl@UIEnumConnectionPoints@@$1?_GUID_b196b285_bab4_101a_b69c_00aa00341d07@@3U__s_GUID@@BPAUIConnectionPoint@@V?$_CopyInterface@UIConnectionPoint@@@ATL@@@ATL@@UAGJPAPAUIEnumConnectionPoints@@@Z 10002820 f i CAT.obj
 0001:000018ff       ?AddRef@?$CComObject@V?$CComEnum@UIEnumConnectionPoints@@$1?_GUID_b196b285_bab4_101a_b69c_00aa00341d07@@3U__s_GUID@@BPAUIConnectionPoint@@V?$_CopyInterface@UIConnectionPoint@@@ATL@@VCComSingleThreadModel@6@@ATL@@@ATL@@UAGKXZ 100028ff f i CAT.obj
 0001:000018ff       ?AddRef@?$CComObject@V?$CComEnum@UIEnumConnections@@$1?_GUID_b196b287_bab4_101a_b69c_00aa00341d07@@3U__s_GUID@@BUtagCONNECTDATA@@V?$_Copy@UtagCONNECTDATA@@@ATL@@VCComSingleThreadModel@6@@ATL@@@ATL@@UAGKXZ 100028ff f i CAT.obj
 0001:00001910       ?Release@?$CComObject@V?$CComEnum@UIEnumConnections@@$1?_GUID_b196b287_bab4_101a_b69c_00aa00341d07@@3U__s_GUID@@BUtagCONNECTDATA@@V?$_Copy@UtagCONNECTDATA@@@ATL@@VCComSingleThreadModel@6@@ATL@@@ATL@@UAGKXZ 10002910 f i CAT.obj
 0001:00001910       ?Release@?$CComObject@V?$CComEnum@UIEnumConnectionPoints@@$1?_GUID_b196b285_bab4_101a_b69c_00aa00341d07@@3U__s_GUID@@BPAUIConnectionPoint@@V?$_CopyInterface@UIConnectionPoint@@@ATL@@VCComSingleThreadModel@6@@ATL@@@ATL@@UAGKXZ 10002910 f i CAT.obj
 0001:0000194c       ?QueryInterface@?$CComObject@V?$CComEnum@UIEnumConnectionPoints@@$1?_GUID_b196b285_bab4_101a_b69c_00aa00341d07@@3U__s_GUID@@BPAUIConnectionPoint@@V?$_CopyInterface@UIConnectionPoint@@@ATL@@VCComSingleThreadModel@6@@ATL@@@ATL@@UAGJABU_GUID@@PAPAX@Z 1000294c f i CAT.obj
 0001:00001966       ??_E?$CComObject@V?$CComEnum@UIEnumConnectionPoints@@$1?_GUID_b196b285_bab4_101a_b69c_00aa00341d07@@3U__s_GUID@@BPAUIConnectionPoint@@V?$_CopyInterface@UIConnectionPoint@@@ATL@@VCComSingleThreadModel@6@@ATL@@@ATL@@UAEPAXI@Z 10002966 f i CAT.obj
 0001:00001966       ??_G?$CComObject@V?$CComEnum@UIEnumConnectionPoints@@$1?_GUID_b196b285_bab4_101a_b69c_00aa00341d07@@3U__s_GUID@@BPAUIConnectionPoint@@V?$_CopyInterface@UIConnectionPoint@@@ATL@@VCComSingleThreadModel@6@@ATL@@@ATL@@UAEPAXI@Z 10002966 f i CAT.obj
 0001:00001988       ?AddRef@?$CComObjectCached@VCComClassFactory@ATL@@@ATL@@UAGKXZ 10002988 f i CAT.obj
 0001:000019af       ?Release@?$CComObjectCached@VCComClassFactory@ATL@@@ATL@@UAGKXZ 100029af f i CAT.obj
 0001:000019e5       ?QueryInterface@?$CComObjectCached@VCComClassFactory@ATL@@@ATL@@UAGJABU_GUID@@PAPAX@Z 100029e5 f i CAT.obj
 0001:000019ff       ??_E?$CComObjectCached@VCComClassFactory@ATL@@@ATL@@UAEPAXI@Z 100029ff f i CAT.obj
 0001:000019ff       ??_G?$CComObjectCached@VCComClassFactory@ATL@@@ATL@@UAEPAXI@Z 100029ff f i CAT.obj
 0001:00001a21       ?AddRef@?$CComAggObject@VCOPOSCAT@@@ATL@@UAGKXZ 10002a21 f i CAT.obj
 0001:00001a32       ?Release@?$CComAggObject@VCOPOSCAT@@@ATL@@UAGKXZ 10002a32 f i CAT.obj
 0001:00001a6e       ?QueryInterface@?$CComAggObject@VCOPOSCAT@@@ATL@@UAGJABU_GUID@@PAPAX@Z 10002a6e f i CAT.obj
 0001:00001abd       ?AddRef@?$CComContainedObject@VCOPOSCAT@@@ATL@@UAGKXZ 10002abd f i CAT.obj
 0001:00001ad3       ?Release@?$CComContainedObject@VCOPOSCAT@@@ATL@@UAGKXZ 10002ad3 f i CAT.obj
 0001:00001ae9       ?QueryInterface@?$CComContainedObject@VCOPOSCAT@@@ATL@@UAGJABU_GUID@@PAPAX@Z 10002ae9 f i CAT.obj
 0001:00001b04       ??_G?$CComAggObject@VCOPOSCAT@@@ATL@@UAEPAXI@Z 10002b04 f i CAT.obj
 0001:00001b04       ??_E?$CComAggObject@VCOPOSCAT@@@ATL@@UAEPAXI@Z 10002b04 f i CAT.obj
 0001:00001b29       ?AddRef@?$CComObject@VCOPOSCAT@@@ATL@@UAGKXZ 10002b29 f i CAT.obj
 0001:00001b40       ?Release@?$CComObject@VCOPOSCAT@@@ATL@@UAGKXZ 10002b40 f i CAT.obj
 0001:00001b82       ?QueryInterface@?$CComObject@VCOPOSCAT@@@ATL@@UAGJABU_GUID@@PAPAX@Z 10002b82 f i CAT.obj
 0001:00001b9c       ?ObjectMain@CComObjectRootBase@ATL@@SGX_N@Z 10002b9c f i CAT.obj
 0001:00001b9c       ?OnFinalMessage@?$CWindowImplBaseT@VCWindow@ATL@@V?$CWinTraits@$0FGAAAAAA@$0A@@2@@ATL@@UAEXPAUHWND__@@@Z 10002b9c f i CAT.obj
 0001:00001b9f       ?OnDrawAdvanced@CComControlBase@ATL@@UAEJAAUATL_DRAWINFO@@@Z 10002b9f f i CAT.obj
 0001:00001c8e       ?CreateInstance@CComClassFactory@ATL@@UAGJPAUIUnknown@@ABU_GUID@@PAPAX@Z 10002c8e f i CAT.obj
 0001:00001ccc       ?LockServer@CComClassFactory@ATL@@UAGJH@Z 10002ccc f i CAT.obj
 0001:00001ceb       ??_ECComClassFactory@ATL@@UAEPAXI@Z 10002ceb f i CAT.obj
 0001:00001ceb       ??_GCComClassFactory@ATL@@UAEPAXI@Z 10002ceb f i CAT.obj
 0001:00001d16       ?Next@?$CComEnumImpl@UIEnumConnections@@$1?_GUID_b196b287_bab4_101a_b69c_00aa00341d07@@3U__s_GUID@@BUtagCONNECTDATA@@V?$_Copy@UtagCONNECTDATA@@@ATL@@@ATL@@UAGJKPAUtagCONNECTDATA@@PAK@Z 10002d16 f i CAT.obj
 0001:00001ded       ?Skip@?$CComEnumImpl@UIEnumConnections@@$1?_GUID_b196b287_bab4_101a_b69c_00aa00341d07@@3U__s_GUID@@BUtagCONNECTDATA@@V?$_Copy@UtagCONNECTDATA@@@ATL@@@ATL@@UAGJK@Z 10002ded f i CAT.obj
 0001:00001e1a       ?Clone@?$CComEnumImpl@UIEnumConnections@@$1?_GUID_b196b287_bab4_101a_b69c_00aa00341d07@@3U__s_GUID@@BUtagCONNECTDATA@@V?$_Copy@UtagCONNECTDATA@@@ATL@@@ATL@@UAGJPAPAUIEnumConnections@@@Z 10002e1a f i CAT.obj
 0001:00001ef9       ?QueryInterface@?$CComObject@V?$CComEnum@UIEnumConnections@@$1?_GUID_b196b287_bab4_101a_b69c_00aa00341d07@@3U__s_GUID@@BUtagCONNECTDATA@@V?$_Copy@UtagCONNECTDATA@@@ATL@@VCComSingleThreadModel@6@@ATL@@@ATL@@UAGJABU_GUID@@PAPAX@Z 10002ef9 f i CAT.obj
 0001:00001f13       ??_E?$CComObject@V?$CComEnum@UIEnumConnections@@$1?_GUID_b196b287_bab4_101a_b69c_00aa00341d07@@3U__s_GUID@@BUtagCONNECTDATA@@V?$_Copy@UtagCONNECTDATA@@@ATL@@VCComSingleThreadModel@6@@ATL@@@ATL@@UAEPAXI@Z 10002f13 f i CAT.obj
 0001:00001f13       ??_G?$CComObject@V?$CComEnum@UIEnumConnections@@$1?_GUID_b196b287_bab4_101a_b69c_00aa00341d07@@3U__s_GUID@@BUtagCONNECTDATA@@V?$_Copy@UtagCONNECTDATA@@@ATL@@VCComSingleThreadModel@6@@ATL@@@ATL@@UAEPAXI@Z 10002f13 f i CAT.obj
 0001:00001f35       ??_E?$CComObject@VCOPOSCAT@@@ATL@@W3AEPAXI@Z 10002f35 f i CAT.obj
 0001:00001f3d       ??_E?$CComObject@VCOPOSCAT@@@ATL@@WEM@AEPAXI@Z 10002f3d f i CAT.obj
 0001:00001f45       ?QueryInterface@?$CComObject@VCOPOSCAT@@@ATL@@WHA@AGJABU_GUID@@PAPAX@Z 10002f45 f i CAT.obj
 0001:00001f4f       ?AddRef@?$CComObject@VCOPOSCAT@@@ATL@@WHA@AGKXZ 10002f4f f i CAT.obj
 0001:00001f59       ?Release@?$CComObject@VCOPOSCAT@@@ATL@@WHA@AGKXZ 10002f59 f i CAT.obj
 0001:00001f63       ?QueryInterface@?$CComObject@VCOPOSCAT@@@ATL@@WHE@AGJABU_GUID@@PAPAX@Z 10002f63 f i CAT.obj
 0001:00001f6d       ?AddRef@?$CComObject@VCOPOSCAT@@@ATL@@WHE@AGKXZ 10002f6d f i CAT.obj
 0001:00001f77       ?Release@?$CComObject@VCOPOSCAT@@@ATL@@WHE@AGKXZ 10002f77 f i CAT.obj
 0001:00001f81       ?QueryInterface@?$CComObject@VCOPOSCAT@@@ATL@@WHI@AGJABU_GUID@@PAPAX@Z 10002f81 f i CAT.obj
 0001:00001f8b       ?AddRef@?$CComObject@VCOPOSCAT@@@ATL@@WHI@AGKXZ 10002f8b f i CAT.obj
 0001:00001f95       ?Release@?$CComObject@VCOPOSCAT@@@ATL@@WHI@AGKXZ 10002f95 f i CAT.obj
 0001:00001f9f       ?QueryInterface@?$CComObject@VCOPOSCAT@@@ATL@@WHM@AGJABU_GUID@@PAPAX@Z 10002f9f f i CAT.obj
 0001:00001fa9       ?AddRef@?$CComObject@VCOPOSCAT@@@ATL@@WHM@AGKXZ 10002fa9 f i CAT.obj
 0001:00001fb3       ?Release@?$CComObject@VCOPOSCAT@@@ATL@@WHM@AGKXZ 10002fb3 f i CAT.obj
 0001:00001fbd       ?QueryInterface@?$CComObject@VCOPOSCAT@@@ATL@@WIA@AGJABU_GUID@@PAPAX@Z 10002fbd f i CAT.obj
 0001:00001fca       ?AddRef@?$CComObject@VCOPOSCAT@@@ATL@@WIA@AGKXZ 10002fca f i CAT.obj
 0001:00001fd7       ?Release@?$CComObject@VCOPOSCAT@@@ATL@@WIA@AGKXZ 10002fd7 f i CAT.obj
 0001:00001fe4       ?QueryInterface@?$CComObject@VCOPOSCAT@@@ATL@@WIE@AGJABU_GUID@@PAPAX@Z 10002fe4 f i CAT.obj
 0001:00001ff1       ?AddRef@?$CComObject@VCOPOSCAT@@@ATL@@WIE@AGKXZ 10002ff1 f i CAT.obj
 0001:00001ffe       ?Release@?$CComObject@VCOPOSCAT@@@ATL@@WIE@AGKXZ 10002ffe f i CAT.obj
 0001:0000200b       ?QueryInterface@?$CComObject@VCOPOSCAT@@@ATL@@WII@AGJABU_GUID@@PAPAX@Z 1000300b f i CAT.obj
 0001:00002018       ?AddRef@?$CComObject@VCOPOSCAT@@@ATL@@WII@AGKXZ 10003018 f i CAT.obj
 0001:00002025       ?Release@?$CComObject@VCOPOSCAT@@@ATL@@WII@AGKXZ 10003025 f i CAT.obj
 0001:00002032       ?QueryInterface@?$CComObject@VCOPOSCAT@@@ATL@@WIM@AGJABU_GUID@@PAPAX@Z 10003032 f i CAT.obj
 0001:0000203f       ?AddRef@?$CComObject@VCOPOSCAT@@@ATL@@WIM@AGKXZ 1000303f f i CAT.obj
 0001:0000204c       ?Release@?$CComObject@VCOPOSCAT@@@ATL@@WIM@AGKXZ 1000304c f i CAT.obj
 0001:00002059       ?QueryInterface@?$CComObject@VCOPOSCAT@@@ATL@@WJA@AGJABU_GUID@@PAPAX@Z 10003059 f i CAT.obj
 0001:00002066       ?AddRef@?$CComObject@VCOPOSCAT@@@ATL@@WJA@AGKXZ 10003066 f i CAT.obj
 0001:00002073       ?Release@?$CComObject@VCOPOSCAT@@@ATL@@WJA@AGKXZ 10003073 f i CAT.obj
 0001:00002080       ?QueryInterface@?$CComObject@VCOPOSCAT@@@ATL@@WJE@AGJABU_GUID@@PAPAX@Z 10003080 f i CAT.obj
 0001:0000208d       ?AddRef@?$CComObject@VCOPOSCAT@@@ATL@@WJE@AGKXZ 1000308d f i CAT.obj
 0001:0000209a       ?Release@?$CComObject@VCOPOSCAT@@@ATL@@WJE@AGKXZ 1000309a f i CAT.obj
 0001:000020a7       ?QueryInterface@?$CComObject@VCOPOSCAT@@@ATL@@WJI@AGJABU_GUID@@PAPAX@Z 100030a7 f i CAT.obj
 0001:000020b4       ?AddRef@?$CComObject@VCOPOSCAT@@@ATL@@WJI@AGKXZ 100030b4 f i CAT.obj
 0001:000020c1       ?Release@?$CComObject@VCOPOSCAT@@@ATL@@WJI@AGKXZ 100030c1 f i CAT.obj
 0001:000020ce       ?QueryInterface@?$CComObject@VCOPOSCAT@@@ATL@@WJM@AGJABU_GUID@@PAPAX@Z 100030ce f i CAT.obj
 0001:000020db       ?AddRef@?$CComObject@VCOPOSCAT@@@ATL@@WJM@AGKXZ 100030db f i CAT.obj
 0001:000020e8       ?Release@?$CComObject@VCOPOSCAT@@@ATL@@WJM@AGKXZ 100030e8 f i CAT.obj
 0001:000020f5       ?QueryInterface@?$CComObject@VCOPOSCAT@@@ATL@@WKA@AGJABU_GUID@@PAPAX@Z 100030f5 f i CAT.obj
 0001:00002102       ?AddRef@?$CComObject@VCOPOSCAT@@@ATL@@WKA@AGKXZ 10003102 f i CAT.obj
 0001:0000210f       ?Release@?$CComObject@VCOPOSCAT@@@ATL@@WKA@AGKXZ 1000310f f i CAT.obj
 0001:0000211c       ?AddRef@?$CComObject@VCOPOSCAT@@@ATL@@WKI@AGKXZ 1000311c f i CAT.obj
 0001:00002129       ?Release@?$CComObject@VCOPOSCAT@@@ATL@@WKI@AGKXZ 10003129 f i CAT.obj
 0001:00002136       ?AddRef@?$CComObject@VCOPOSCAT@@@ATL@@WLE@AGKXZ 10003136 f i CAT.obj
 0001:00002143       ?Release@?$CComObject@VCOPOSCAT@@@ATL@@WLE@AGKXZ 10003143 f i CAT.obj
 0001:00002150       ??_E?$CComContainedObject@VCOPOSCAT@@@ATL@@W3AEPAXI@Z 10003150 f i CAT.obj
 0001:00002158       ??_E?$CComContainedObject@VCOPOSCAT@@@ATL@@WEM@AEPAXI@Z 10003158 f i CAT.obj
 0001:00002160       ?QueryInterface@?$CComContainedObject@VCOPOSCAT@@@ATL@@WHA@AGJABU_GUID@@PAPAX@Z 10003160 f i CAT.obj
 0001:0000216a       ?AddRef@?$CComContainedObject@VCOPOSCAT@@@ATL@@WHA@AGKXZ 1000316a f i CAT.obj
 0001:00002174       ?Release@?$CComContainedObject@VCOPOSCAT@@@ATL@@WHA@AGKXZ 10003174 f i CAT.obj
 0001:0000217e       ?QueryInterface@?$CComContainedObject@VCOPOSCAT@@@ATL@@WHE@AGJABU_GUID@@PAPAX@Z 1000317e f i CAT.obj
 0001:00002188       ?AddRef@?$CComContainedObject@VCOPOSCAT@@@ATL@@WHE@AGKXZ 10003188 f i CAT.obj
 0001:00002192       ?Release@?$CComContainedObject@VCOPOSCAT@@@ATL@@WHE@AGKXZ 10003192 f i CAT.obj
 0001:0000219c       ?QueryInterface@?$CComContainedObject@VCOPOSCAT@@@ATL@@WHI@AGJABU_GUID@@PAPAX@Z 1000319c f i CAT.obj
 0001:000021a6       ?AddRef@?$CComContainedObject@VCOPOSCAT@@@ATL@@WHI@AGKXZ 100031a6 f i CAT.obj
 0001:000021b0       ?Release@?$CComContainedObject@VCOPOSCAT@@@ATL@@WHI@AGKXZ 100031b0 f i CAT.obj
 0001:000021ba       ?QueryInterface@?$CComContainedObject@VCOPOSCAT@@@ATL@@WHM@AGJABU_GUID@@PAPAX@Z 100031ba f i CAT.obj
 0001:000021c4       ?AddRef@?$CComContainedObject@VCOPOSCAT@@@ATL@@WHM@AGKXZ 100031c4 f i CAT.obj
 0001:000021ce       ?Release@?$CComContainedObject@VCOPOSCAT@@@ATL@@WHM@AGKXZ 100031ce f i CAT.obj
 0001:000021d8       ?QueryInterface@?$CComContainedObject@VCOPOSCAT@@@ATL@@WIA@AGJABU_GUID@@PAPAX@Z 100031d8 f i CAT.obj
 0001:000021e5       ?AddRef@?$CComContainedObject@VCOPOSCAT@@@ATL@@WIA@AGKXZ 100031e5 f i CAT.obj
 0001:000021f2       ?Release@?$CComContainedObject@VCOPOSCAT@@@ATL@@WIA@AGKXZ 100031f2 f i CAT.obj
 0001:000021ff       ?QueryInterface@?$CComContainedObject@VCOPOSCAT@@@ATL@@WIE@AGJABU_GUID@@PAPAX@Z 100031ff f i CAT.obj
 0001:0000220c       ?AddRef@?$CComContainedObject@VCOPOSCAT@@@ATL@@WIE@AGKXZ 1000320c f i CAT.obj
 0001:00002219       ?Release@?$CComContainedObject@VCOPOSCAT@@@ATL@@WIE@AGKXZ 10003219 f i CAT.obj
 0001:00002226       ?QueryInterface@?$CComContainedObject@VCOPOSCAT@@@ATL@@WII@AGJABU_GUID@@PAPAX@Z 10003226 f i CAT.obj
 0001:00002233       ?AddRef@?$CComContainedObject@VCOPOSCAT@@@ATL@@WII@AGKXZ 10003233 f i CAT.obj
 0001:00002240       ?Release@?$CComContainedObject@VCOPOSCAT@@@ATL@@WII@AGKXZ 10003240 f i CAT.obj
 0001:0000224d       ?QueryInterface@?$CComContainedObject@VCOPOSCAT@@@ATL@@WIM@AGJABU_GUID@@PAPAX@Z 1000324d f i CAT.obj
 0001:0000225a       ?AddRef@?$CComContainedObject@VCOPOSCAT@@@ATL@@WIM@AGKXZ 1000325a f i CAT.obj
 0001:00002267       ?Release@?$CComContainedObject@VCOPOSCAT@@@ATL@@WIM@AGKXZ 10003267 f i CAT.obj
 0001:00002274       ?QueryInterface@?$CComContainedObject@VCOPOSCAT@@@ATL@@WJA@AGJABU_GUID@@PAPAX@Z 10003274 f i CAT.obj
 0001:00002281       ?AddRef@?$CComContainedObject@VCOPOSCAT@@@ATL@@WJA@AGKXZ 10003281 f i CAT.obj
 0001:0000228e       ?Release@?$CComContainedObject@VCOPOSCAT@@@ATL@@WJA@AGKXZ 1000328e f i CAT.obj
 0001:0000229b       ?QueryInterface@?$CComContainedObject@VCOPOSCAT@@@ATL@@WJE@AGJABU_GUID@@PAPAX@Z 1000329b f i CAT.obj
 0001:000022a8       ?AddRef@?$CComContainedObject@VCOPOSCAT@@@ATL@@WJE@AGKXZ 100032a8 f i CAT.obj
 0001:000022b5       ?Release@?$CComContainedObject@VCOPOSCAT@@@ATL@@WJE@AGKXZ 100032b5 f i CAT.obj
 0001:000022c2       ?QueryInterface@?$CComContainedObject@VCOPOSCAT@@@ATL@@WJI@AGJABU_GUID@@PAPAX@Z 100032c2 f i CAT.obj
 0001:000022cf       ?AddRef@?$CComContainedObject@VCOPOSCAT@@@ATL@@WJI@AGKXZ 100032cf f i CAT.obj
 0001:000022dc       ?Release@?$CComContainedObject@VCOPOSCAT@@@ATL@@WJI@AGKXZ 100032dc f i CAT.obj
 0001:000022e9       ?QueryInterface@?$CComContainedObject@VCOPOSCAT@@@ATL@@WJM@AGJABU_GUID@@PAPAX@Z 100032e9 f i CAT.obj
 0001:000022f6       ?AddRef@?$CComContainedObject@VCOPOSCAT@@@ATL@@WJM@AGKXZ 100032f6 f i CAT.obj
 0001:00002303       ?Release@?$CComContainedObject@VCOPOSCAT@@@ATL@@WJM@AGKXZ 10003303 f i CAT.obj
 0001:00002310       ?QueryInterface@?$CComContainedObject@VCOPOSCAT@@@ATL@@WKA@AGJABU_GUID@@PAPAX@Z 10003310 f i CAT.obj
 0001:0000231d       ?AddRef@?$CComContainedObject@VCOPOSCAT@@@ATL@@WKA@AGKXZ 1000331d f i CAT.obj
 0001:0000232a       ?Release@?$CComContainedObject@VCOPOSCAT@@@ATL@@WKA@AGKXZ 1000332a f i CAT.obj
 0001:00002337       ?AddRef@?$CComContainedObject@VCOPOSCAT@@@ATL@@WKI@AGKXZ 10003337 f i CAT.obj
 0001:00002344       ?Release@?$CComContainedObject@VCOPOSCAT@@@ATL@@WKI@AGKXZ 10003344 f i CAT.obj
 0001:00002351       ?AddRef@?$CComContainedObject@VCOPOSCAT@@@ATL@@WLE@AGKXZ 10003351 f i CAT.obj
 0001:0000235e       ?Release@?$CComContainedObject@VCOPOSCAT@@@ATL@@WLE@AGKXZ 1000335e f i CAT.obj
 0001:0000236b       ?Lock@CAtlModule@ATL@@UAEJXZ 1000336b f i CAT.obj
 0001:00002375       ?Unlock@CAtlModule@ATL@@UAEJXZ 10003375 f i CAT.obj
 0001:0000237f       ?GetLockCount@CAtlModule@ATL@@UAEJXZ 1000337f f i CAT.obj
 0001:00002383       ?GetGITPtr@CAtlModule@ATL@@UAEJPAPAUIGlobalInterfaceTable@@@Z 10003383 f i CAT.obj
 0001:000023cf       ?GetWindowProc@?$CWindowImplBaseT@VCWindow@ATL@@V?$CWinTraits@$0FGAAAAAA@$0A@@2@@ATL@@UAEP6GJPAUHWND__@@IIJ@ZXZ 100033cf f i CAT.obj
 0001:000023d5       ?StartWindowProc@?$CWindowImplBaseT@VCWindow@ATL@@V?$CWinTraits@$0FGAAAAAA@$0A@@2@@ATL@@SGJPAUHWND__@@IIJ@Z 100033d5 f i CAT.obj
 0001:00002429       ?AddCommonRGSReplacements@?$CAtlModuleT@VCComModule@ATL@@@ATL@@UAEJPAUIRegistrarBase@@@Z 10003429 f i CAT.obj
 0001:00002443       ?UpdateRegistryFromResourceD@CComModule@ATL@@UAGJIHPAU_ATL_REGMAP_ENTRY@2@@Z 10003443 f i CAT.obj
 0001:00002443       ?UpdateRegistryFromResourceD@CComModule@ATL@@UAGJPB_WHPAU_ATL_REGMAP_ENTRY@2@@Z 10003443 f i CAT.obj
 0001:0000244b       ?UpdateRegistryFromResource@CComModule@ATL@@UAGJPB_WHPAU_ATL_REGMAP_ENTRY@2@@Z 1000344b f i CAT.obj
 0001:00002454       ?UpdateRegistryFromResource@CComModule@ATL@@UAGJIHPAU_ATL_REGMAP_ENTRY@2@@Z 10003454 f i CAT.obj
 0001:0000245d       ?GetTypeInfoCount@?$IDispatchImpl@UIOPOSCAT@@$1?IID_IOPOSCAT@@3U_GUID@@B$1?LIBID_OposCAT_CCO@@3U3@B$00$0A@VCComTypeInfoHolder@ATL@@@ATL@@UAGJPAI@Z 1000345d f i CAT.obj
 0001:0000247a       ?GetTypeInfo@?$IDispatchImpl@UIOPOSCAT@@$1?IID_IOPOSCAT@@3U_GUID@@B$1?LIBID_OposCAT_CCO@@3U3@B$00$0A@VCComTypeInfoHolder@ATL@@@ATL@@UAGJIKPAPAUITypeInfo@@@Z 1000347a f i CAT.obj
 0001:0000249e       ?GetIDsOfNames@?$IDispatchImpl@UIOPOSCAT@@$1?IID_IOPOSCAT@@3U_GUID@@B$1?LIBID_OposCAT_CCO@@3U3@B$00$0A@VCComTypeInfoHolder@ATL@@@ATL@@UAGJABU_GUID@@PAPA_WIKPAJ@Z 1000349e f i CAT.obj
 0001:000024be       ?Invoke@?$IDispatchImpl@UIOPOSCAT@@$1?IID_IOPOSCAT@@3U_GUID@@B$1?LIBID_OposCAT_CCO@@3U3@B$00$0A@VCComTypeInfoHolder@ATL@@@ATL@@UAGJJABU_GUID@@KGPAUtagDISPPARAMS@@PAUtagVARIANT@@PAUtagEXCEPINFO@@PAI@Z 100034be f i CAT.obj
 0001:000024cc       ??_ECComModule@ATL@@UAEPAXI@Z 100034cc f i CAT.obj
 0001:000024cc       ??_GCComModule@ATL@@UAEPAXI@Z 100034cc f i CAT.obj
 0001:000024f4       ?CreateControlWindow@?$CComControl@VCOPOSCAT@@V?$CWindowImpl@VCOPOSCAT@@VCWindow@ATL@@V?$CWinTraits@$0FGAAAAAA@$0A@@3@@ATL@@@ATL@@UAEPAUHWND__@@PAU3@AAUtagRECT@@@Z 100034f4 f i CAT.obj
 0001:00002523       ?ControlQueryInterface@?$CComControl@VCOPOSCAT@@V?$CWindowImpl@VCOPOSCAT@@VCWindow@ATL@@V?$CWinTraits@$0FGAAAAAA@$0A@@3@@ATL@@@ATL@@UAEJABU_GUID@@PAPAX@Z 10003523 f i CAT.obj
 0001:0000253e       ?IsDirty@?$IPersistStreamInitImpl@VCOPOSCAT@@@ATL@@UAGJXZ 1000353e f i CAT.obj
 0001:0000255d       ?Load@?$IPersistStreamInitImpl@VCOPOSCAT@@@ATL@@UAGJPAUIStream@@@Z 1000355d f i CAT.obj
 0001:0000257c       ?Save@?$IPersistStreamInitImpl@VCOPOSCAT@@@ATL@@UAGJPAUIStream@@H@Z 1000357c f i CAT.obj
 0001:0000259e       ?GetSizeMax@?$IPersistStreamInitImpl@VCOPOSCAT@@@ATL@@UAGJPAT_ULARGE_INTEGER@@@Z 1000359e f i CAT.obj
 0001:00002753       ?InitNew@?$IPersistStreamInitImpl@VCOPOSCAT@@@ATL@@UAGJXZ 10003753 f i CAT.obj
 0001:00002770       ?SetClientSite@?$IOleObjectImpl@VCOPOSCAT@@@ATL@@UAGJPAUIOleClientSite@@@Z 10003770 f i CAT.obj
 0001:0000278d       ?GetClientSite@?$IOleObjectImpl@VCOPOSCAT@@@ATL@@UAGJPAPAUIOleClientSite@@@Z 1000378d f i CAT.obj
 0001:000027aa       ?SetHostNames@?$IOleObjectImpl@VCOPOSCAT@@@ATL@@UAGJPB_W0@Z 100037aa f i CAT.obj
 0001:000027af       ?Close@?$IOleObjectImpl@VCOPOSCAT@@@ATL@@UAGJK@Z 100037af f i CAT.obj
 0001:000027cc       ?DoVerb@?$IOleObjectImpl@VCOPOSCAT@@@ATL@@UAGJJPAUtagMSG@@PAUIOleClientSite@@JPAUHWND__@@PBUtagRECT@@@Z 100037cc f i CAT.obj
 0001:000028e4       ?EnumVerbs@?$IOleObjectImpl@VCOPOSCAT@@@ATL@@UAGJPAPAUIEnumOLEVERB@@@Z 100038e4 f i CAT.obj
 0001:00002906       ?GetUserType@?$IOleObjectImpl@VCOPOSCAT@@@ATL@@UAGJKPAPA_W@Z 10003906 f i CAT.obj
 0001:0000291e       ?SetExtent@?$IOleObjectImpl@VCOPOSCAT@@@ATL@@UAGJKPAUtagSIZE@@@Z 1000391e f i CAT.obj
 0001:0000293e       ?GetExtent@?$IOleObjectImpl@VCOPOSCAT@@@ATL@@UAGJKPAUtagSIZE@@@Z 1000393e f i CAT.obj
 0001:0000297c       ?Advise@?$IOleObjectImpl@VCOPOSCAT@@@ATL@@UAGJPAUIAdviseSink@@PAK@Z 1000397c f i CAT.obj
 0001:0000299c       ??$?4UITypeInfo2@@@?$CComPtr@UITypeInfo@@@ATL@@QAEPAUITypeInfo@@ABV?$CComPtr@UITypeInfo2@@@1@@Z 1000399c f i CAT.obj
 0001:000029c9       ??$AtlAdd@K@ATL@@YAJPAKKK@Z 100039c9 f i CAT.obj
 0001:000029ec       ??$AtlAdd@_K@ATL@@YAJPA_K_K1@Z 100039ec f i CAT.obj
 0001:00002a24       ??$AtlAddThrow@K@ATL@@YAKKK@Z 10003a24 f i CAT.obj
 0001:00002a4a       ??$AtlModuleRegisterWndClassInfoT@VAtlModuleRegisterWndClassInfoParamW@ATL@@@ATL@@YAGPAU_ATL_BASE_MODULE70@0@PAU_ATL_WIN_MODULE70@0@PAU_ATL_WNDCLASSINFOW@0@PAP6GJPAUHWND__@@IIJ@ZVAtlModuleRegisterWndClassInfoParamW@0@@Z 10003a4a f i CAT.obj
 0001:00002b98       ??$AtlMultiply@H@ATL@@YAJPAHHH@Z 10003b98 f i CAT.obj
 0001:00002bd0       ??$AtlMultiply@I@ATL@@YAJPAIII@Z 10003bd0 f i CAT.obj
 0001:00002bd0       ??$AtlMultiply@K@ATL@@YAJPAKKK@Z 10003bd0 f i CAT.obj
 0001:00002bf2       ??$AtlMultiplyThrow@I@ATL@@YAIII@Z 10003bf2 f i CAT.obj
 0001:00002c18       ??0?$CComAggObject@VCOPOSCAT@@@ATL@@QAE@PAX@Z 10003c18 f i CAT.obj
 0001:00002c45       ??0?$CComContainedObject@VCOPOSCAT@@@ATL@@QAE@PAX@Z 10003c45 f i CAT.obj
 0001:00002cfe       ??0?$CComObject@V?$CComEnum@UIEnumConnectionPoints@@$1?_GUID_b196b285_bab4_101a_b69c_00aa00341d07@@3U__s_GUID@@BPAUIConnectionPoint@@V?$_CopyInterface@UIConnectionPoint@@@ATL@@VCComSingleThreadModel@6@@ATL@@@ATL@@QAE@PAX@Z 10003cfe f i CAT.obj
 0001:00002d2c       ??0?$CComObject@V?$CComEnum@UIEnumConnections@@$1?_GUID_b196b287_bab4_101a_b69c_00aa00341d07@@3U__s_GUID@@BUtagCONNECTDATA@@V?$_Copy@UtagCONNECTDATA@@@ATL@@VCComSingleThreadModel@6@@ATL@@@ATL@@QAE@PAX@Z 10003d2c f i CAT.obj
 0001:00002d5a       ??0?$CComObject@VCOPOSCAT@@@ATL@@QAE@PAX@Z 10003d5a f i CAT.obj
 0001:00002e11       ??0?$CComQIPtr@UIOleControlSite@@$1?_GUID_b196b289_bab4_101a_b69c_00aa00341d07@@3U__s_GUID@@B@ATL@@QAE@PAUIUnknown@@@Z 10003e11 f i CAT.obj
 0001:00002e3a       ??0CAtlModule@ATL@@QAE@XZ  10003e3a f i CAT.obj
 0001:00002e7b       ??0CParseBuffer@CRegParser@ATL@@QAE@H@Z 10003e7b f i CAT.obj
 0001:00002eb1       ??0_ATL_MSG@ATL@@QAE@PAUHWND__@@IIJH@Z 10003eb1 f i CAT.obj
 0001:00002ee9       ??1?$CComAggObject@VCOPOSCAT@@@ATL@@UAE@XZ 10003ee9 f i CAT.obj
 0001:00002f0d       ??1?$CComEnumImpl@UIEnumConnectionPoints@@$1?_GUID_b196b285_bab4_101a_b69c_00aa00341d07@@3U__s_GUID@@BPAUIConnectionPoint@@V?$_CopyInterface@UIConnectionPoint@@@ATL@@@ATL@@UAE@XZ 10003f0d f i CAT.obj
 0001:00002f4d       ??1?$CComEnumImpl@UIEnumConnections@@$1?_GUID_b196b287_bab4_101a_b69c_00aa00341d07@@3U__s_GUID@@BUtagCONNECTDATA@@V?$_Copy@UtagCONNECTDATA@@@ATL@@@ATL@@UAE@XZ 10003f4d f i CAT.obj
 0001:00002f8d       ??1?$CComObject@V?$CComEnum@UIEnumConnectionPoints@@$1?_GUID_b196b285_bab4_101a_b69c_00aa00341d07@@3U__s_GUID@@BPAUIConnectionPoint@@V?$_CopyInterface@UIConnectionPoint@@@ATL@@VCComSingleThreadModel@6@@ATL@@@ATL@@UAE@XZ 10003f8d f i CAT.obj
 0001:00002fb0       ??1?$CComObject@V?$CComEnum@UIEnumConnections@@$1?_GUID_b196b287_bab4_101a_b69c_00aa00341d07@@3U__s_GUID@@BUtagCONNECTDATA@@V?$_Copy@UtagCONNECTDATA@@@ATL@@VCComSingleThreadModel@6@@ATL@@@ATL@@UAE@XZ 10003fb0 f i CAT.obj
 0001:00002fd3       ??1?$CComObject@VCOPOSCAT@@@ATL@@UAE@XZ 10003fd3 f i CAT.obj
 0001:00003091       ??1?$CComObjectCached@VCComClassFactory@ATL@@@ATL@@UAE@XZ 10004091 f i CAT.obj
 0001:000030a7       ??1?$CComObjectRootEx@VCComMultiThreadModel@ATL@@@ATL@@QAE@XZ 100040a7 f i CAT.obj
 0001:000030bc       ??1CRegObject@ATL@@UAE@XZ  100040bc f i CAT.obj
 0001:000030dc       ??4?$CComPtr@UIUnknown@@@ATL@@QAEPAUIUnknown@@PAU2@@Z 100040dc f i CAT.obj
 0001:000030dc       ??4?$CComPtr@UIAdviseSink@@@ATL@@QAEPAUIAdviseSink@@PAU2@@Z 100040dc f i CAT.obj
 0001:000030dc       ??4?$CComPtr@UIOleClientSite@@@ATL@@QAEPAUIOleClientSite@@PAU2@@Z 100040dc f i CAT.obj
 0001:00003110       ??4?$CComQIPtr@UIOleObject@@$1?_GUID_00000112_0000_0000_c000_000000000046@@3U__s_GUID@@B@ATL@@QAEPAUIOleObject@@PAUIUnknown@@@Z 10004110 f i CAT.obj
 0001:00003135       ??4?$CComQIPtr@UISpecifyPropertyPages@@$1?_GUID_b196b28b_bab4_101a_b69c_00aa00341d07@@3U__s_GUID@@B@ATL@@QAEPAUISpecifyPropertyPages@@PAUIUnknown@@@Z 10004135 f i CAT.obj
 0001:0000315a       ??_G?$CComContainedObject@VCOPOSCAT@@@ATL@@UAEPAXI@Z 1000415a f i CAT.obj
 0001:0000315a       ??_E?$CComContainedObject@VCOPOSCAT@@@ATL@@UAEPAXI@Z 1000415a f i CAT.obj
 0001:0000317f       ??_G?$CComObject@VCOPOSCAT@@@ATL@@UAEPAXI@Z 1000417f f i CAT.obj
 0001:0000317f       ??_E?$CComObject@VCOPOSCAT@@@ATL@@UAEPAXI@Z 1000417f f i CAT.obj
 0001:000031a4       ?Add@?$CSimpleArray@GV?$CSimpleArrayEqualHelper@G@ATL@@@ATL@@QAEHABG@Z 100041a4 f i CAT.obj
 0001:00003228       ?Add@?$CSimpleMap@PA_WPA_WVCExpansionVectorEqualHelper@ATL@@@ATL@@QAEHABQA_W0@Z 10004228 f i CAT.obj
 0001:0000327d       ?Add@CComDynamicUnkArray@ATL@@QAEKPAUIUnknown@@@Z 1000427d f i CAT.obj
 0001:00003338       ?Add@CExpansionVector@ATL@@QAEHPB_W0@Z 10004338 f i CAT.obj
 0001:0000343c       ?AddString@CParseBuffer@CRegParser@ATL@@QAEHPB_W@Z 1000443c f i CAT.obj
 0001:00003471       ?AddValue@CRegParser@ATL@@IAEJAAVCRegKey@2@PB_WPA_W@Z 10004471 f i CAT.obj
 0001:00003792       ?Allocate@?$CAtlSafeAllocBufferManager@VCCRTAllocator@ATL@@@_ATL_SAFE_ALLOCA_IMPL@ATL@@QAEPAXK@Z 10004792 f i CAT.obj
 0001:000037bf       ?Allocate@?$CTempBuffer@E$0BAA@VCCRTAllocator@ATL@@@ATL@@QAEPAEI@Z 100047bf f i CAT.obj
 0001:000037ee       ?Allocate@?$CTempBuffer@_W$0BAA@VCCRTAllocator@ATL@@@ATL@@QAEPA_WI@Z 100047ee f i CAT.obj
 0001:0000381d       ?Allocate@?$CTempBuffer@_W$0EAA@VCCRTAllocator@ATL@@@ATL@@QAEPA_WI@Z 1000481d f i CAT.obj
 0001:0000384c       ?AllocateHeap@?$CTempBuffer@E$0BAA@VCCRTAllocator@ATL@@@ATL@@AAEXI@Z 1000484c f i CAT.obj
 0001:0000384c       ?AllocateHeap@?$CTempBuffer@_W$0EAA@VCCRTAllocator@ATL@@@ATL@@AAEXI@Z 1000484c f i CAT.obj
 0001:0000384c       ?AllocateHeap@?$CTempBuffer@_W$0BAA@VCCRTAllocator@ATL@@@ATL@@AAEXI@Z 1000484c f i CAT.obj
 0001:00003871       ?Append@CParseBuffer@CRegParser@ATL@@QAEHPB_WH@Z 10004871 f i CAT.obj
 0001:000038ff       ?AtlCallTermFunc@ATL@@YGXPAU_ATL_MODULE70@1@@Z 100048ff f i CAT.obj
 0001:00003943       ?AtlCoTaskMemCAlloc@ATL@@YAPAXKK@Z 10004943 f i CAT.obj
 0001:00003970       ?AtlCoTaskMemRecalloc@ATL@@YAPAXPAXKK@Z 10004970 f i CAT.obj
 0001:000039a0       ?AtlComModuleGetClassObject@ATL@@YGJPAU_ATL_COM_MODULE70@1@ABU_GUID@@1PAPAX@Z 100049a0 f i CAT.obj
 0001:00003a93       ?AtlComModuleRegisterServer@ATL@@YGJPAU_ATL_COM_MODULE70@1@HPBU_GUID@@@Z 10004a93 f i CAT.obj
 0001:00003b1b       ?AtlComModuleUnregisterServer@ATL@@YGJPAU_ATL_COM_MODULE70@1@HPBU_GUID@@@Z 10004b1b f i CAT.obj
 0001:00003ba3       ?AtlComQIPtrAssign2@ATL@@YAXPAPAUIUnknown@@PAU2@ABU_GUID@@@Z 10004ba3 f i CAT.obj
 0001:00003bd2       ?AtlCreateTargetDC@ATL@@YGPAUHDC__@@PAU2@PAUtagDVTARGETDEVICE@@@Z 10004bd2 f i CAT.obj
 0001:00003c3b       ?AtlCrtErrorCheck@ATL@@YAHH@Z 10004c3b f i CAT.obj
 0001:00003c76       ?AtlHiMetricToPixel@ATL@@YGXPBUtagSIZE@@PAU2@@Z 10004c76 f i CAT.obj
 0001:00003ceb       ?AtlHresultFromLastError@ATL@@YAJXZ 10004ceb f i CAT.obj
 0001:00003d02       ?AtlHresultFromWin32@ATL@@YAJK@Z 10004d02 f i CAT.obj
 0001:00003d17       ?AtlIPersistStreamInit_Load@ATL@@YGJPAUIStream@@PBUATL_PROPMAP_ENTRY@1@PAXPAUIUnknown@@@Z 10004d17 f i CAT.obj
 0001:00003ef7       ?AtlIPersistStreamInit_Save@ATL@@YGJPAUIStream@@HPBUATL_PROPMAP_ENTRY@1@PAXPAUIUnknown@@@Z 10004ef7 f i CAT.obj
 0001:0000408f       ?AtlInternalOleLoadFromStream@ATL@@YAJPAUIStream@@ABU_GUID@@PAPAXTClassesAllowedInStream@1@K@Z 1000508f f i CAT.obj
 0001:000041b5       ?AtlInternalQueryInterface@ATL@@YGJPAXPBU_ATL_INTMAP_ENTRY@1@ABU_GUID@@PAPAX@Z 100051b5 f i CAT.obj
 0001:00004258       ?AtlLoadTypeLib@ATL@@YGJPAUHINSTANCE__@@PB_WPAPA_WPAPAUITypeLib@@@Z 10005258 f i CAT.obj
 0001:00004436       ?AtlModuleAddTermFunc@ATL@@YGJPAU_ATL_MODULE70@1@P6GXK@ZK@Z 10005436 f i CAT.obj
 0001:00004493       ?AtlRegisterClassCategoriesHelper@ATL@@YGJABU_GUID@@PBU_ATL_CATMAP_ENTRY@1@H@Z 10005493 f i CAT.obj
 0001:00004773       ?AtlRegisterTypeLib@ATL@@YGJPAUHINSTANCE__@@PB_W@Z 10005773 f i CAT.obj
 0001:000048fb       ?AtlThrowImpl@ATL@@YGXJ@Z  100058fb f i CAT.obj
 0001:00004919       ?AtlUnRegisterTypeLib@ATL@@YGJPAUHINSTANCE__@@PB_W@Z 10005919 f i CAT.obj
 0001:000049c4       ?AtlWinModuleAddCreateWndData@ATL@@YGXPAU_ATL_WIN_MODULE70@1@PAU_AtlCreateWndData@1@PAX@Z 100059c4 f i CAT.obj
 0001:00004a18       ?AtlWinModuleExtractCreateWndData@ATL@@YGPAXPAU_ATL_WIN_MODULE70@1@@Z 10005a18 f i CAT.obj
 0001:00004a7b       ?AtlWinModuleRegisterClassExW@ATL@@YGGPAU_ATL_WIN_MODULE70@1@PBUtagWNDCLASSEXW@@@Z 10005a7b f i CAT.obj
 0001:00004aba       ?CanForceRemoveKey@CRegParser@ATL@@IAEHPB_W@Z 10005aba f i CAT.obj
 0001:00004ae9       ?ChToByte@CRegParser@ATL@@KAE_W@Z 10005ae9 f i CAT.obj
 0001:00004b1c       ?Cleanup@CComTypeInfoHolder@ATL@@SGXK@Z 10005b1c f i CAT.obj
 0001:00004b4f       ?ClearReplacements@CExpansionVector@ATL@@QAEJXZ 10005b4f f i CAT.obj
 0001:00004b8c       ?Close@CRegKey@ATL@@QAEJXZ 10005b8c f i CAT.obj
 0001:00004ba6       ?Create@?$CWindowImpl@VCOPOSCAT@@VCWindow@ATL@@V?$CWinTraits@$0FGAAAAAA@$0A@@3@@ATL@@QAEPAUHWND__@@PAU3@V_U_RECT@2@PB_WKKV_U_MENUorID@2@PAX@Z 10005ba6 f i CAT.obj
 0001:00004bea       ?Create@?$CWindowImplBaseT@VCWindow@ATL@@V?$CWinTraits@$0FGAAAAAA@$0A@@2@@ATL@@QAEPAUHWND__@@PAU3@V_U_RECT@2@PB_WKKV_U_MENUorID@2@GPAX@Z 10005bea f i CAT.obj
 0001:00004c86       ?Create@CRegKey@ATL@@QAEJPAUHKEY__@@PB_WPA_WKKPAU_SECURITY_ATTRIBUTES@@PAK@Z 10005c86 f i CAT.obj
 0001:00004ce9       ?CreateInstance@?$CComCreator@V?$CComAggObject@VCOPOSCAT@@@ATL@@@ATL@@SGJPAXABU_GUID@@PAPAX@Z 10005ce9 f i CAT.obj
 0001:00004d5f       ?CreateInstance@?$CComCreator@V?$CComObject@VCOPOSCAT@@@ATL@@@ATL@@SGJPAXABU_GUID@@PAPAX@Z 10005d5f f i CAT.obj
 0001:00004de0       ?CreateInstance@?$CComObject@V?$CComEnum@UIEnumConnectionPoints@@$1?_GUID_b196b285_bab4_101a_b69c_00aa00341d07@@3U__s_GUID@@BPAUIConnectionPoint@@V?$_CopyInterface@UIConnectionPoint@@@ATL@@VCComSingleThreadModel@6@@ATL@@@ATL@@SGJPAPAV12@@Z 10005de0 f i CAT.obj
 0001:00004e27       ?CreateInstance@?$CComObject@V?$CComEnum@UIEnumConnections@@$1?_GUID_b196b287_bab4_101a_b69c_00aa00341d07@@3U__s_GUID@@BUtagCONNECTDATA@@V?$_Copy@UtagCONNECTDATA@@@ATL@@VCComSingleThreadModel@6@@ATL@@@ATL@@SGJPAPAV12@@Z 10005e27 f i CAT.obj
 0001:00004e6e       ?DefaultReflectionHandler@?$CWindowImplRoot@VCWindow@ATL@@@ATL@@SAHPAUHWND__@@IIJAAJ@Z 10005e6e f i CAT.obj
 0001:00004ee1       ?DeleteSubKey@CRegKey@ATL@@QAEJPB_W@Z 10005ee1 f i CAT.obj
 0001:00004f04       ?DoEvent@COPOSCAT@@IAEXIIJ@Z 10005f04 f i CAT.obj
 0001:00004f84       ?DoVerbHide@?$IOleObjectImpl@VCOPOSCAT@@@ATL@@QAEJPBUtagRECT@@PAUHWND__@@@Z 10005f84 f i CAT.obj
 0001:00004fba       ?DoVerbInPlaceActivate@?$IOleObjectImpl@VCOPOSCAT@@@ATL@@QAEJPBUtagRECT@@PAUHWND__@@@Z 10005fba f i CAT.obj
 0001:00004fed       ?DoVerbPrimary@?$IOleObjectImpl@VCOPOSCAT@@@ATL@@QAEJPBUtagRECT@@PAUHWND__@@@Z 10005fed f i CAT.obj
 0001:00005079       ?DoVerbProperties@CComControlBase@ATL@@QAEJPBUtagRECT@@PAUHWND__@@@Z 10006079 f i CAT.obj
 0001:000051a0       ?DoVerbShow@?$IOleObjectImpl@VCOPOSCAT@@@ATL@@QAEJPBUtagRECT@@PAUHWND__@@@Z 100061a0 f i CAT.obj
 0001:000051c5       ?DoVerbUIActivate@?$IOleObjectImpl@VCOPOSCAT@@@ATL@@QAEJPBUtagRECT@@PAUHWND__@@@Z 100061c5 f i CAT.obj
 0001:00005202       ?DoesVerbActivate@CComControlBase@ATL@@QAEHJ@Z 10006202 f i CAT.obj
 0001:00005223       ?DoesVerbUIActivate@CComControlBase@ATL@@QAEHJ@Z 10006223 f i CAT.obj
 0001:00005258       ?EndOfVar@CRegParser@ATL@@IAEHXZ 10006258 f i CAT.obj
 0001:00005278       ?EscapeSingleQuote@CAtlModule@ATL@@SAXPA_WIPB_W@Z 10006278 f i CAT.obj
 0001:000052c7       ?FindKey@?$CSimpleMap@PA_WPA_WVCExpansionVectorEqualHelper@ATL@@@ATL@@QBEHABQA_W@Z 100062c7 f i CAT.obj
 0001:000052fe       ?FireTheEvent@?$CProxy_IOPOSEvents@VCOPOSCAT@@@@IAEXPAVOposVariant@@IAAJPB_WJ@Z 100062fe f i CAT.obj
 0001:00005390       ?FireViewChange@CComControlBase@ATL@@QAEJXZ 10006390 f i CAT.obj
 0001:000053d9       ?Fire_DirectIOEvent@?$CProxy_IOPOSEvents@VCOPOSCAT@@@@QAEXJPAJPAPA_W@Z 100063d9 f i CAT.obj
 0001:000054bf       ?Fire_ErrorEvent@?$CProxy_IOPOSEvents@VCOPOSCAT@@@@QAEXJJJPAJ@Z 100064bf f i CAT.obj
 0001:000055a6       ?Fire_OutputCompleteEvent@?$CProxy_IOPOSEvents@VCOPOSCAT@@@@QAEXJ@Z 100065a6 f i CAT.obj
 0001:00005632       ?Fire_StatusUpdateEvent@?$CProxy_IOPOSEvents@VCOPOSCAT@@@@QAEXJ@Z 10006632 f i CAT.obj
 0001:000056be       ?FreeHeap@?$CTempBuffer@_W$0EAA@VCCRTAllocator@ATL@@@ATL@@AAEXXZ 100066be f i CAT.obj
 0001:000056be       ?FreeHeap@?$CTempBuffer@E$0BAA@VCCRTAllocator@ATL@@@ATL@@AAEXXZ 100066be f i CAT.obj
 0001:000056be       ?FreeHeap@?$CTempBuffer@_W$0BAA@VCCRTAllocator@ATL@@@ATL@@AAEXXZ 100066be f i CAT.obj
 0001:000056c7       ?GetAmbientLocaleID@CComControlBase@ATL@@QAEJAAK@Z 100066c7 f i CAT.obj
 0001:00005723       ?GetAmbientUserMode@CComControlBase@ATL@@QAEJAAH@Z 10006723 f i CAT.obj
 0001:00005793       ?GetAt@CComDynamicUnkArray@ATL@@QAEPAUIUnknown@@H@Z 10006793 f i CAT.obj
 0001:000057af       ?GetClassObject@CComModule@ATL@@QAEJABU_GUID@@0PAPAX@Z 100067af f i CAT.obj
 0001:00005851       ?GetConnMap@COPOSCAT@@SAPBU_ATL_CONNMAP_ENTRY@ATL@@PAH@Z 10006851 f i CAT.obj
 0001:000058c1       ?GetCookie@CComDynamicUnkArray@ATL@@QAGKPAPAUIUnknown@@@Z 100068c1 f i CAT.obj
 0001:000058f9       ?GetIDsOfNames@CComTypeInfoHolder@ATL@@QAEJABU_GUID@@PAPA_WIKPAJ@Z 100068f9 f i CAT.obj
 0001:00005a07       ?GetKeyAt@?$CSimpleMap@PA_WPA_WVCExpansionVectorEqualHelper@ATL@@@ATL@@QBEAAPA_WH@Z 10006a07 f i CAT.obj
 0001:00005a2c       ?GetPagesHelper@?$ISpecifyPropertyPagesImpl@VCOPOSCAT@@@ATL@@IAEJPAUtagCAUUID@@PBUATL_PROPMAP_ENTRY@2@@Z 10006a2c f i CAT.obj
 0001:00005b53       ?GetProperty@?$CComPtr@UIDispatch@@@ATL@@SAJPAUIDispatch@@JPAUtagVARIANT@@@Z 10006b53 f i CAT.obj
 0001:00005ba2       ?GetSizeMax@CComVariant@ATL@@QBEJPAT_ULARGE_INTEGER@@@Z 10006ba2 f i CAT.obj
 0001:00005d5c       ?GetStreamSize@CComBSTR@ATL@@SAKPA_W@Z 10006d5c f i CAT.obj
 0001:00005d76       ?GetTI@CComTypeInfoHolder@ATL@@QAEJK@Z 10006d76 f i CAT.obj
 0001:00005f5f       ?GetTI@CComTypeInfoHolder@ATL@@QAEJKPAPAUITypeInfo@@@Z 10006f5f f i CAT.obj
 0001:00005fa1       ?GetUnknown@CComDynamicUnkArray@ATL@@QAGPAUIUnknown@@K@Z 10006fa1 f i CAT.obj
 0001:00005fc2       ?GetValueAt@?$CSimpleMap@PA_WPA_WVCExpansionVectorEqualHelper@ATL@@@ATL@@QBEAAPA_WH@Z 10006fc2 f i CAT.obj
 0001:00005fe8       ?GetZoomInfo@CComControlBase@ATL@@QAEXAAUATL_DRAWINFO@@@Z 10006fe8 f i CAT.obj
 0001:0000607b       ?HKeyFromString@CRegParser@ATL@@KAPAUHKEY__@@PA_W@Z 1000707b f i CAT.obj
 0001:000060a9       ?HasSubKeys@CRegParser@ATL@@IAEHPAUHKEY__@@@Z 100070a9 f i CAT.obj
 0001:000060de       ?IDataObject_GetData@CComControlBase@ATL@@QAEJPAUtagFORMATETC@@PAUtagSTGMEDIUM@@@Z 100070de f i CAT.obj
 0001:00006284       ?IOleInPlaceObject_InPlaceDeactivate@CComControlBase@ATL@@QAEJXZ 10007284 f i CAT.obj
 0001:0000630b       ?IOleInPlaceObject_SetObjectRects@CComControlBase@ATL@@QAEJPBUtagRECT@@0@Z 1000730b f i CAT.obj
 0001:000063d8       ?IOleInPlaceObject_UIDeactivate@CComControlBase@ATL@@QAEJXZ 100073d8 f i CAT.obj
 0001:0000649a       ?IOleObject_Advise@CComControlBase@ATL@@QAEJPAUIAdviseSink@@PAK@Z 1000749a f i CAT.obj
 0001:000064c4       ?IOleObject_Close@CComControlBase@ATL@@QAEJK@Z 100074c4 f i CAT.obj
 0001:000065a8       ?IOleObject_GetClientSite@CComControlBase@ATL@@QAEJPAPAUIOleClientSite@@@Z 100075a8 f i CAT.obj
 0001:000065d1       ?IOleObject_SetClientSite@CComControlBase@ATL@@QAEJPAUIOleClientSite@@@Z 100075d1 f i CAT.obj
 0001:00006610       ?IOleObject_SetExtent@CComControlBase@ATL@@QAEJKPAUtagSIZE@@@Z 10007610 f i CAT.obj
 0001:000066c4       ?IPSI_GetIPersistStreamInit@?$IPersistStorageImpl@VCOPOSCAT@@@ATL@@AAEPAUIPersistStreamInit@@XZ 100076c4 f i CAT.obj
 0001:00006706       ?IPersistStreamInit_Load@?$IPersistStreamInitImpl@VCOPOSCAT@@@ATL@@QAEJPAUIStream@@PBUATL_PROPMAP_ENTRY@2@@Z 10007706 f i CAT.obj
 0001:00006732       ?IPersistStreamInit_Save@?$IPersistStreamInitImpl@VCOPOSCAT@@@ATL@@QAEJPAUIStream@@HPBUATL_PROPMAP_ENTRY@2@@Z 10007732 f i CAT.obj
 0001:00006767       ?IQuickActivate_QuickActivate@CComControlBase@ATL@@QAEJPAUtagQACONTAINER@@PAUtagQACONTROL@@@Z 10007767 f i CAT.obj
 0001:000069a9       ?IViewObject_Draw@CComControlBase@ATL@@QAEJKJPAXPAUtagDVTARGETDEVICE@@PAUHDC__@@2PBU_RECTL@@3@Z 100079a9 f i CAT.obj
 0001:00006a51       ?InPlaceActivate@CComControlBase@ATL@@QAEJJPBUtagRECT@@@Z 10007a51 f i CAT.obj
 0001:00006cc2       ?Init@?$CComEnumImpl@UIEnumConnectionPoints@@$1?_GUID_b196b285_bab4_101a_b69c_00aa00341d07@@3U__s_GUID@@BPAUIConnectionPoint@@V?$_CopyInterface@UIConnectionPoint@@@ATL@@@ATL@@QAEJPAPAUIConnectionPoint@@0PAUIUnknown@@W4CComEnumFlags@2@@Z 10007cc2 f i CAT.obj
 0001:00006da1       ?Init@?$CComEnumImpl@UIEnumConnections@@$1?_GUID_b196b287_bab4_101a_b69c_00aa00341d07@@3U__s_GUID@@BUtagCONNECTDATA@@V?$_Copy@UtagCONNECTDATA@@@ATL@@@ATL@@QAEJPAUtagCONNECTDATA@@0PAUIUnknown@@W4CComEnumFlags@2@@Z 10007da1 f i CAT.obj
 0001:00006e80       ?Init@CComModule@ATL@@QAEJPAU_ATL_OBJMAP_ENTRY30@2@PAUHINSTANCE__@@PBU_GUID@@@Z 10007e80 f i CAT.obj
 0001:00006edf       ?Init@CDynamicStdCallThunk2@ATL@@QAEHKPAX@Z 10007edf f i CAT.obj
 0001:00006f0a       ?InlineIsEqualUnknown@ATL@@YGHABU_GUID@@@Z 10007f0a f i CAT.obj
 0001:00006f32       ?InternalGetSite@CComControlBase@ATL@@QAEJABU_GUID@@PAPAX@Z 10007f32 f i CAT.obj
 0001:00006f60       ?InternalSetAtIndex@?$CSimpleMap@PA_WPA_WVCExpansionVectorEqualHelper@ATL@@@ATL@@QAEXHABQA_W0@Z 10007f60 f i CAT.obj
 0001:00006f8a       ?Invoke@CComTypeInfoHolder@ATL@@QAEJPAUIDispatch@@JABU_GUID@@KGPAUtagDISPPARAMS@@PAUtagVARIANT@@PAUtagEXCEPINFO@@PAI@Z 10007f8a f i CAT.obj
 0001:00006fcd       ?IsEqualObject@?$CComPtrBase@UIOleClientSite@@@ATL@@QAE_NPAUIUnknown@@@Z 10007fcd f i CAT.obj
 0001:00006fcd       ?IsEqualObject@?$CComPtrBase@UITypeInfo@@@ATL@@QAE_NPAUIUnknown@@@Z 10007fcd f i CAT.obj
 0001:0000703a       ?IsSpace@CRegParser@ATL@@IAEH_W@Z 1000803a f i CAT.obj
 0001:00007064       ?LoadNameCache@CComTypeInfoHolder@ATL@@QAEJPAUITypeInfo@@@Z 10008064 f i CAT.obj
 0001:000071b2       ?Lookup@?$CSimpleMap@PA_WPA_WVCExpansionVectorEqualHelper@ATL@@@ATL@@QBEPA_WABQA_W@Z 100081b2 f i CAT.obj
 0001:000071d8       ?NextToken@CRegParser@ATL@@IAEJPA_W@Z 100081d8 f i CAT.obj
 0001:00007310       ?OnKillFocus@CComControlBase@ATL@@QAEJIIJAAH@Z 10008310 f i CAT.obj
 0001:0000736b       ?OnMouseActivate@CComControlBase@ATL@@QAEJIIJAAH@Z 1000836b f i CAT.obj
 0001:000073d9       ?OnPaint@CComControlBase@ATL@@QAEJIIJAAH@Z 100083d9 f i CAT.obj
 0001:0000748b       ?OnSetFocus@CComControlBase@ATL@@QAEJIIJAAH@Z 1000848b f i CAT.obj
 0001:00007514       ?Open@CRegKey@ATL@@QAEJPAUHKEY__@@PB_WK@Z 10008514 f i CAT.obj
 0001:0000755d       ?PreProcessBuffer@CRegParser@ATL@@QAEJPA_WPAPA_W@Z 1000855d f i CAT.obj
 0001:000077c7       ?ProcessWindowMessage@?$CComControl@VCOPOSCAT@@V?$CWindowImpl@VCOPOSCAT@@VCWindow@ATL@@V?$CWinTraits@$0FGAAAAAA@$0A@@3@@ATL@@@ATL@@UAEHPAUHWND__@@IIJAAJK@Z 100087c7 f i CAT.obj
 0001:00007866       ?PutProperty@?$CComPtr@UIDispatch@@@ATL@@SAJPAUIDispatch@@JPAUtagVARIANT@@@Z 10008866 f i CAT.obj
 0001:000078f8       ?ReadFromStream@CComBSTR@ATL@@QAEJPAUIStream@@@Z 100088f8 f i CAT.obj
 0001:00007a26       ?ReadFromStream@CComVariant@ATL@@QAEJPAUIStream@@GTClassesAllowedInStream@2@K@Z 10008a26 f i CAT.obj
 0001:00007bac       ?RecurseDeleteKey@CRegKey@ATL@@QAEJPB_W@Z 10008bac f i CAT.obj
 0001:00007c6e       ?RegCreateKeyExW@CAtlTransactionManager@ATL@@QAEJPAUHKEY__@@PB_WKPA_WKKQAU_SECURITY_ATTRIBUTES@@PAPAU3@PAK@Z 10008c6e f i CAT.obj
 0001:00007cd1       ?RegDeleteKeyW@CAtlTransactionManager@ATL@@QAEJPAUHKEY__@@PB_W@Z 10008cd1 f i CAT.obj
 0001:00007d23       ?RegOpenKeyExW@CAtlTransactionManager@ATL@@QAEJPAUHKEY__@@PB_WKKPAPAU3@@Z 10008d23 f i CAT.obj
 0001:00007d7a       ?Register@_ATL_WNDCLASSINFOW@ATL@@QAEGPAP6GJPAUHWND__@@IIJ@Z@Z 10008d7a f i CAT.obj
 0001:00007d9a       ?RegisterBuffer@CRegParser@ATL@@QAEJPA_WH@Z 10008d9a f i CAT.obj
 0001:00007ed3       ?RegisterFromResource@CRegObject@ATL@@IAEJPB_W00H@Z 10008ed3 f i CAT.obj
 0001:00008009       ?RegisterServer@?$CAtlModuleT@VCComModule@ATL@@@ATL@@QAEJHPBU_GUID@@@Z 10009009 f i CAT.obj
 0001:00008037       ?RegisterServer@CComModule@ATL@@QAEJHPBU_GUID@@@Z 10009037 f i CAT.obj
 0001:000080ad       ?RegisterSubkeys@CRegParser@ATL@@IAEJPA_WPAUHKEY__@@HH@Z 100090ad f i CAT.obj
 0001:0000867c       ?Remove@CComDynamicUnkArray@ATL@@QAEHK@Z 1000967c f i CAT.obj
 0001:000086a5       ?RemoveAll@?$CSimpleMap@PA_WPA_WVCExpansionVectorEqualHelper@ATL@@@ATL@@QAEXXZ 100096a5 f i CAT.obj
 0001:000086d1       ?ResourceRegisterSz@CRegObject@ATL@@QAGJPB_W00@Z 100096d1 f i CAT.obj
 0001:000086fe       ?ResourceUnregisterSz@CRegObject@ATL@@QAGJPB_W00@Z 100096fe f i CAT.obj
 0001:0000872b       ?SendOnDataChange@CComControlBase@ATL@@QAEJK@Z 1000972b f i CAT.obj
 0001:00008778       ?SetControlFocus@CComControlBase@ATL@@QAEHH@Z 10009778 f i CAT.obj
 0001:00008815       ?SetMultiStringValue@CRegKey@ATL@@QAEJPB_W0@Z 10009815 f i CAT.obj
 0001:00008871       ?SetStringValue@CRegKey@ATL@@QAEJPB_W0K@Z 10009871 f i CAT.obj
 0001:000088ba       ?SkipAssignment@CRegParser@ATL@@IAEJPA_W@Z 100098ba f i CAT.obj
 0001:0000891f       ?SkipWhiteSpace@CRegParser@ATL@@IAEXXZ 1000991f f i CAT.obj
 0001:00008941       ?StrChrW@CRegParser@ATL@@KAPA_WPA_W_W@Z 10009941 f i CAT.obj
 0001:0000897e       ?Term@CAtlModule@ATL@@QAEXXZ 1000997e f i CAT.obj
 0001:000089b7       ?Term@CComModule@ATL@@QAEXXZ 100099b7 f i CAT.obj
 0001:00008a0f       ?UnregisterServer@?$CAtlModuleT@VCComModule@ATL@@@ATL@@QAEJHPBU_GUID@@@Z 10009a0f f i CAT.obj
 0001:00008a35       ?UnregisterServer@CComModule@ATL@@QAEJHPBU_GUID@@@Z 10009a35 f i CAT.obj
 0001:00008aab       ?UpdateRegistryFromResource@CAtlModule@ATL@@QAGJIHPAU_ATL_REGMAP_ENTRY@2@@Z 10009aab f i CAT.obj
 0001:00008c76       ?UpdateRegistryFromResource@CAtlModule@ATL@@QAGJPB_WHPAU_ATL_REGMAP_ENTRY@2@@Z 10009c76 f i CAT.obj
 0001:00008e47       ?VTFromRegType@CRegParser@ATL@@KAHPB_WAAG@Z 10009e47 f i CAT.obj
 0001:00008eb4       ?WindowProc@?$CWindowImplBaseT@VCWindow@ATL@@V?$CWinTraits@$0FGAAAAAA@$0A@@2@@ATL@@SGJPAUHWND__@@IIJ@Z 10009eb4 f i CAT.obj
 0001:00008fa6       ?WriteToStream@CComBSTR@ATL@@QAEJPAUIStream@@@Z 10009fa6 f i CAT.obj
 0001:00008ffd       ?WriteToStream@CComVariant@ATL@@QAEJPAUIStream@@@Z 10009ffd f i CAT.obj
 0001:00009177       ?WriteToStream@CComVariant@ATL@@QAEJPAUIStream@@G@Z 1000a177 f i CAT.obj
 0001:000091e0       ?_AtlInitialConstruct@?$CComObjectRootEx@VCComMultiThreadModel@ATL@@@ATL@@QAEJXZ 1000a1e0 f i CAT.obj
 0001:000091f5       ?_AtlVerifyStackAvailable@_ATL_SAFE_ALLOCA_IMPL@ATL@@YA_NK@Z 1000a1f5 f i CAT.obj
 0001:00009273       ?copy@?$_Copy@UtagCONNECTDATA@@@ATL@@SAJPAUtagCONNECTDATA@@PBU3@@Z 1000a273 f i CAT.obj
 0001:000092a9       ?copy@?$_CopyInterface@UIConnectionPoint@@@ATL@@SAJPAPAUIConnectionPoint@@PBQAU3@@Z 1000a2a9 f i CAT.obj
 0001:000092d7       ?memcpy_s@Checked@ATL@@YAXPAXIPBXI@Z 1000a2d7 f i CAT.obj
 0001:000092f6       ?ocscpy_s@@YA_NPA_WIPB_W@Z 1000a2f6 f i CAT.obj
 0001:00009325       ?ocslen@@YAHPB_W@Z         1000a325 f i CAT.obj
 0001:00009345       ?wcscpy_s@Checked@ATL@@YAXPA_WIPB_W@Z 1000a345 f i CAT.obj
 0001:00009361       _DllCanUnloadNow@0         1000a361 f   CAT.obj
 0001:0000936d       _DllGetClassObject@12      1000a36d f   CAT.obj
 0001:0000937b       _DllMain@12                1000a37b f   CAT.obj
 0001:000093bd       _DllRegisterServer@0       1000a3bd f   CAT.obj
 0001:000093cc       _DllUnregisterServer@0     1000a3cc f   CAT.obj
 0001:000093db       _InlineIsEqualGUID         1000a3db f i CAT.obj
 0001:0000940b       ___local_stdio_printf_options 1000a40b f i CAT.obj
 0001:00009411       __vswprintf_s_l            1000a411 f i CAT.obj
 0001:000094be       _swprintf_s                1000a4be f i CAT.obj
 0001:000094da       ??0?$CComControl@VCOPOSCAT@@V?$CWindowImpl@VCOPOSCAT@@VCWindow@ATL@@V?$CWinTraits@$0FGAAAAAA@$0A@@3@@ATL@@@ATL@@QAE@XZ 1000a4da f i CATImpl.obj
 0001:00009501       ??0?$CProxy_IOPOSEvents@VCOPOSCAT@@@@QAE@XZ 1000a501 f i CATImpl.obj
 0001:00009521       ??0CComControlBase@ATL@@QAE@AAPAUHWND__@@@Z 1000a521 f i CATImpl.obj
 0001:0000956b       ??0COPOSCAT@@QAE@XZ        1000a56b f   CATImpl.obj
 0001:000095a1       ??1?$CComControl@VCOPOSCAT@@V?$CWindowImpl@VCOPOSCAT@@VCWindow@ATL@@V?$CWinTraits@$0FGAAAAAA@$0A@@3@@ATL@@@ATL@@UAE@XZ 1000a5a1 f i CATImpl.obj
 0001:000095ba       ??1?$IConnectionPointImpl@VCOPOSCAT@@$1?IID_IPropertyNotifySink@@3U_GUID@@BVCComDynamicUnkArray@ATL@@@ATL@@QAE@XZ 1000a5ba f i CATImpl.obj
 0001:000095ba       ??1?$IConnectionPointImpl@VCOPOSCAT@@$1?DIID__IOPOSCATEvents@@3U_GUID@@BVCComDynamicUnkArray@ATL@@@ATL@@QAE@XZ 1000a5ba f i CATImpl.obj
 0001:000095f7       ??1CComControlBase@ATL@@UAE@XZ 1000a5f7 f i CATImpl.obj
 0001:0000965a       ??1COPOSCAT@@UAE@XZ        1000a65a f   CATImpl.obj
 0001:000096a2       ??1OposVariantResult@@QAE@XZ 1000a6a2 f i CATImpl.obj
 0001:000096c3       ??1_CW@@QAE@XZ             1000a6c3 f i CATImpl.obj
 0001:000096dc       ?AccessDailyLog@COPOSCAT@@UAGJJJJPAJ@Z 1000a6dc f   CATImpl.obj
 0001:00009772       ?AuthorizeCompletion@COPOSCAT@@UAGJJTtagCY@@0JPAJ@Z 1000a772 f   CATImpl.obj
 0001:00009819       ?AuthorizePreSales@COPOSCAT@@UAGJJTtagCY@@0JPAJ@Z 1000a819 f   CATImpl.obj
 0001:000098c0       ?AuthorizeRefund@COPOSCAT@@UAGJJTtagCY@@0JPAJ@Z 1000a8c0 f   CATImpl.obj
 0001:00009967       ?AuthorizeSales@COPOSCAT@@UAGJJTtagCY@@0JPAJ@Z 1000a967 f   CATImpl.obj
 0001:00009a0e       ?AuthorizeVoid@COPOSCAT@@UAGJJTtagCY@@0JPAJ@Z 1000aa0e f   CATImpl.obj
 0001:00009ab5       ?AuthorizeVoidPreSales@COPOSCAT@@UAGJJTtagCY@@0JPAJ@Z 1000aab5 f   CATImpl.obj
 0001:00009b5c       ?CashDeposit@COPOSCAT@@UAGJJTtagCY@@JPAJ@Z 1000ab5c f   CATImpl.obj
 0001:00009bf5       ?CheckCard@COPOSCAT@@UAGJJJPAJ@Z 1000abf5 f   CATImpl.obj
 0001:00009c69       ?CheckHealth@COPOSCAT@@UAGJJPAJ@Z 1000ac69 f   CATImpl.obj
 0001:00009cb8       ?ClaimDevice@COPOSCAT@@UAGJJPAJ@Z 1000acb8 f   CATImpl.obj
 0001:00009d2d       ?ClearOutput@COPOSCAT@@UAGJPAJ@Z 1000ad2d f   CATImpl.obj
 0001:00009d48       ?Close@COPOSCAT@@UAGJPAJ@Z 1000ad48 f   CATImpl.obj
 0001:00009db6       ?CompareFirmwareVersion@COPOSCAT@@UAGJPA_WPAJ1@Z 1000adb6 f   CATImpl.obj
 0001:00009e36       ?DirectIO@COPOSCAT@@UAGJJPAJPAPA_W0@Z 1000ae36 f   CATImpl.obj
 0001:00009ee4       ?DoInvoke@COPOSCAT@@IAEJJPAVOposVariant@@IHPAJ_N@Z 1000aee4 f   CATImpl.obj
 0001:00009fa6       ?EventClose@COPOSCAT@@IAEXXZ 1000afa6 f i CATImpl.obj
 0001:00009fd9       ?EventInit@COPOSCAT@@IAEJXZ 1000afd9 f i CATImpl.obj
 0001:0000a0a5       ?EventUninit@COPOSCAT@@IAEXXZ 1000b0a5 f i CATImpl.obj
 0001:0000a0f7       ?EventWindowProc@COPOSCAT@@IAGJIIJ@Z 1000b0f7 f i CATImpl.obj
 0001:0000a1ca       ?FinalConstruct@COPOSCAT@@QAEJXZ 1000b1ca f   CATImpl.obj
 0001:0000a203       ?FireEventCleanup@COPOSCAT@@IAEXXZ 1000b203 f i CATImpl.obj
 0001:0000a219       ?FireEventSetup@COPOSCAT@@IAE_NXZ 1000b219 f i CATImpl.obj
 0001:0000a24d       ?FreezeEvents@COPOSCAT@@MAGJH@Z 1000b24d f   CATImpl.obj
 0001:0000a2ad       ?GetOposProp@COPOSCAT@@IAEJJPAFJ@Z 1000b2ad f   CATImpl.obj
 0001:0000a2d0       ?GetOposProp@COPOSCAT@@IAEJJPAJJ@Z 1000b2d0 f   CATImpl.obj
 0001:0000a38e       ?GetOposProp@COPOSCAT@@IAEJJPAPA_WJ@Z 1000b38e f   CATImpl.obj
 0001:0000a459       ?LockTerminal@COPOSCAT@@UAGJPAJ@Z 1000b459 f   CATImpl.obj
 0001:0000a474       ?OnDraw@COPOSCAT@@MAEJAAUATL_DRAWINFO@@@Z 1000b474 f   CATImpl.obj
 0001:0000a514       ?Open@COPOSCAT@@UAGJPA_WPAJ@Z 1000b514 f   CATImpl.obj
 0001:0000acb2       ?ReleaseDevice@COPOSCAT@@UAGJPAJ@Z 1000bcb2 f   CATImpl.obj
 0001:0000ad01       ?ResetStatistics@COPOSCAT@@UAGJPA_WPAJ@Z 1000bd01 f   CATImpl.obj
 0001:0000ad58       ?RetrieveStatistics@COPOSCAT@@UAGJPAPA_WPAJ@Z 1000bd58 f   CATImpl.obj
 0001:0000adaf       ?SOProcessID@COPOSCAT@@UAGJPAJ@Z 1000bdaf f   CATImpl.obj
 0001:0000adc3       ?SetCOFreezeEvents@COPOSCAT@@IAEXF@Z 1000bdc3 f   CATImpl.obj
 0001:0000ae4e       ?SetOposProp@COPOSCAT@@IAEJJJJ@Z 1000be4e f   CATImpl.obj
 0001:0000af2c       ?SetOposProp@COPOSCAT@@IAEJJPA_WJ@Z 1000bf2c f   CATImpl.obj
 0001:0000b018       ?UnlockTerminal@COPOSCAT@@UAGJPAJ@Z 1000c018 f   CATImpl.obj
 0001:0000b033       ?UpdateFirmware@COPOSCAT@@UAGJPA_WPAJ@Z 1000c033 f   CATImpl.obj
 0001:0000b08a       ?UpdateStatistics@COPOSCAT@@UAGJPA_WPAJ@Z 1000c08a f   CATImpl.obj
 0001:0000b0e1       ?get_AccountNumber@COPOSCAT@@UAGJPAPA_W@Z 1000c0e1 f   CATImpl.obj
 0001:0000b0fa       ?get_AdditionalSecurityInformation@COPOSCAT@@UAGJPAPA_W@Z 1000c0fa f   CATImpl.obj
 0001:0000b113       ?get_ApprovalCode@COPOSCAT@@UAGJPAPA_W@Z 1000c113 f   CATImpl.obj
 0001:0000b12c       ?get_AsyncMode@COPOSCAT@@UAGJPAF@Z 1000c12c f   CATImpl.obj
 0001:0000b145       ?get_Balance@COPOSCAT@@UAGJPATtagCY@@@Z 1000c145 f   CATImpl.obj
 0001:0000b1df       ?get_BinaryConversion@COPOSCAT@@UAGJPAJ@Z 1000c1df f   CATImpl.obj
 0001:0000b1f5       ?get_CapAdditionalSecurityInformation@COPOSCAT@@UAGJPAF@Z 1000c1f5 f   CATImpl.obj
 0001:0000b20e       ?get_CapAuthorizeCompletion@COPOSCAT@@UAGJPAF@Z 1000c20e f   CATImpl.obj
 0001:0000b227       ?get_CapAuthorizePreSales@COPOSCAT@@UAGJPAF@Z 1000c227 f   CATImpl.obj
 0001:0000b240       ?get_CapAuthorizeRefund@COPOSCAT@@UAGJPAF@Z 1000c240 f   CATImpl.obj
 0001:0000b259       ?get_CapAuthorizeVoid@COPOSCAT@@UAGJPAF@Z 1000c259 f   CATImpl.obj
 0001:0000b272       ?get_CapAuthorizeVoidPreSales@COPOSCAT@@UAGJPAF@Z 1000c272 f   CATImpl.obj
 0001:0000b28b       ?get_CapCashDeposit@COPOSCAT@@UAGJPAF@Z 1000c28b f   CATImpl.obj
 0001:0000b2a4       ?get_CapCenterResultCode@COPOSCAT@@UAGJPAF@Z 1000c2a4 f   CATImpl.obj
 0001:0000b2bd       ?get_CapCheckCard@COPOSCAT@@UAGJPAF@Z 1000c2bd f   CATImpl.obj
 0001:0000b2d6       ?get_CapCompareFirmwareVersion@COPOSCAT@@UAGJPAF@Z 1000c2d6 f   CATImpl.obj
 0001:0000b2ef       ?get_CapDailyLog@COPOSCAT@@UAGJPAJ@Z 1000c2ef f   CATImpl.obj
 0001:0000b308       ?get_CapInstallments@COPOSCAT@@UAGJPAF@Z 1000c308 f   CATImpl.obj
 0001:0000b321       ?get_CapLockTerminal@COPOSCAT@@UAGJPAF@Z 1000c321 f   CATImpl.obj
 0001:0000b33a       ?get_CapLogStatus@COPOSCAT@@UAGJPAF@Z 1000c33a f   CATImpl.obj
 0001:0000b353       ?get_CapPaymentDetail@COPOSCAT@@UAGJPAF@Z 1000c353 f   CATImpl.obj
 0001:0000b36c       ?get_CapPowerReporting@COPOSCAT@@UAGJPAJ@Z 1000c36c f   CATImpl.obj
 0001:0000b385       ?get_CapStatisticsReporting@COPOSCAT@@UAGJPAF@Z 1000c385 f   CATImpl.obj
 0001:0000b39e       ?get_CapTaxOthers@COPOSCAT@@UAGJPAF@Z 1000c39e f   CATImpl.obj
 0001:0000b3b7       ?get_CapTrainingMode@COPOSCAT@@UAGJPAF@Z 1000c3b7 f   CATImpl.obj
 0001:0000b3d0       ?get_CapTransactionNumber@COPOSCAT@@UAGJPAF@Z 1000c3d0 f   CATImpl.obj
 0001:0000b3e9       ?get_CapUnlockTerminal@COPOSCAT@@UAGJPAF@Z 1000c3e9 f   CATImpl.obj
 0001:0000b402       ?get_CapUpdateFirmware@COPOSCAT@@UAGJPAF@Z 1000c402 f   CATImpl.obj
 0001:0000b41b       ?get_CapUpdateStatistics@COPOSCAT@@UAGJPAF@Z 1000c41b f   CATImpl.obj
 0001:0000b434       ?get_CardCompanyID@COPOSCAT@@UAGJPAPA_W@Z 1000c434 f   CATImpl.obj
 0001:0000b44d       ?get_CenterResultCode@COPOSCAT@@UAGJPAPA_W@Z 1000c44d f   CATImpl.obj
 0001:0000b466       ?get_CheckHealthText@COPOSCAT@@UAGJPAPA_W@Z 1000c466 f   CATImpl.obj
 0001:0000b47f       ?get_Claimed@COPOSCAT@@UAGJPAF@Z 1000c47f f   CATImpl.obj
 0001:0000b495       ?get_ControlObjectDescription@COPOSCAT@@UAGJPAPA_W@Z 1000c495 f   CATImpl.obj
 0001:0000b4d2       ?get_ControlObjectVersion@COPOSCAT@@UAGJPAJ@Z 1000c4d2 f   CATImpl.obj
 0001:0000b4e5       ?get_DailyLog@COPOSCAT@@UAGJPAPA_W@Z 1000c4e5 f   CATImpl.obj
 0001:0000b4fe       ?get_DeviceDescription@COPOSCAT@@UAGJPAPA_W@Z 1000c4fe f   CATImpl.obj
 0001:0000b517       ?get_DeviceEnabled@COPOSCAT@@UAGJPAF@Z 1000c517 f   CATImpl.obj
 0001:0000b52d       ?get_DeviceName@COPOSCAT@@UAGJPAPA_W@Z 1000c52d f   CATImpl.obj
 0001:0000b546       ?get_FreezeEvents@COPOSCAT@@UAGJPAF@Z 1000c546 f   CATImpl.obj
 0001:0000b55c       ?get_LogStatus@COPOSCAT@@UAGJPAJ@Z 1000c55c f   CATImpl.obj
 0001:0000b575       ?get_OpenResult@COPOSCAT@@UAGJPAJ@Z 1000c575 f   CATImpl.obj
 0001:0000b58c       ?get_OutputID@COPOSCAT@@UAGJPAJ@Z 1000c58c f   CATImpl.obj
 0001:0000b5a2       ?get_PaymentCondition@COPOSCAT@@UAGJPAJ@Z 1000c5a2 f   CATImpl.obj
 0001:0000b5bb       ?get_PaymentDetail@COPOSCAT@@UAGJPAPA_W@Z 1000c5bb f   CATImpl.obj
 0001:0000b5d4       ?get_PaymentMedia@COPOSCAT@@UAGJPAJ@Z 1000c5d4 f   CATImpl.obj
 0001:0000b5ed       ?get_PowerNotify@COPOSCAT@@UAGJPAJ@Z 1000c5ed f   CATImpl.obj
 0001:0000b603       ?get_PowerState@COPOSCAT@@UAGJPAJ@Z 1000c603 f   CATImpl.obj
 0001:0000b619       ?get_ResultCode@COPOSCAT@@UAGJPAJ@Z 1000c619 f   CATImpl.obj
 0001:0000b657       ?get_ResultCodeExtended@COPOSCAT@@UAGJPAJ@Z 1000c657 f   CATImpl.obj
 0001:0000b66d       ?get_SequenceNumber@COPOSCAT@@UAGJPAJ@Z 1000c66d f   CATImpl.obj
 0001:0000b686       ?get_ServiceObjectDescription@COPOSCAT@@UAGJPAPA_W@Z 1000c686 f   CATImpl.obj
 0001:0000b69f       ?get_ServiceObjectVersion@COPOSCAT@@UAGJPAJ@Z 1000c69f f   CATImpl.obj
 0001:0000b6b5       ?get_SettledAmount@COPOSCAT@@UAGJPATtagCY@@@Z 1000c6b5 f   CATImpl.obj
 0001:0000b74f       ?get_SlipNumber@COPOSCAT@@UAGJPAPA_W@Z 1000c74f f   CATImpl.obj
 0001:0000b768       ?get_State@COPOSCAT@@UAGJPAJ@Z 1000c768 f   CATImpl.obj
 0001:0000b794       ?get_TrainingMode@COPOSCAT@@UAGJPAF@Z 1000c794 f   CATImpl.obj
 0001:0000b7ad       ?get_TransactionNumber@COPOSCAT@@UAGJPAPA_W@Z 1000c7ad f   CATImpl.obj
 0001:0000b7c6       ?get_TransactionType@COPOSCAT@@UAGJPAJ@Z 1000c7c6 f   CATImpl.obj
 0001:0000b7df       ?put_AdditionalSecurityInformation@COPOSCAT@@UAGJPA_W@Z 1000c7df f   CATImpl.obj
 0001:0000b7f8       ?put_AsyncMode@COPOSCAT@@UAGJF@Z 1000c7f8 f   CATImpl.obj
 0001:0000b818       ?put_BinaryConversion@COPOSCAT@@UAGJJ@Z 1000c818 f   CATImpl.obj
 0001:0000b82e       ?put_DeviceEnabled@COPOSCAT@@UAGJF@Z 1000c82e f   CATImpl.obj
 0001:0000b84b       ?put_FreezeEvents@COPOSCAT@@UAGJF@Z 1000c84b f   CATImpl.obj
 0001:0000b897       ?put_PaymentMedia@COPOSCAT@@UAGJJ@Z 1000c897 f   CATImpl.obj
 0001:0000b8b0       ?put_PowerNotify@COPOSCAT@@UAGJJ@Z 1000c8b0 f   CATImpl.obj
 0001:0000b8c6       ?put_TrainingMode@COPOSCAT@@UAGJF@Z 1000c8c6 f   CATImpl.obj
 0001:0000b8e6       ?s_EventWindowProc@COPOSCAT@@KGJPAUHWND__@@IIJ@Z 1000c8e6 f i CATImpl.obj
 0001:0000b938       ??_U@YAPAXI@Z              1000c938 f   LIBCMT:new_array.obj
 0001:0000b941       ??3@YAXPAXI@Z              1000c941 f   LIBCMT:delete_scalar_size.obj
 0001:0000b94f       ??_V@YAXPAX@Z              1000c94f f   LIBCMT:delete_array.obj
 0001:0000b954       ??_V@YAXPAXI@Z             1000c954 f   LIBCMT:delete_array_size.obj
 0001:0000b962       ??$__crt_fast_encode_pointer@PAP6AXXZ@@YAPAP6AXXZQAP6AXXZ@Z 1000c962 f i LIBCMT:utility.obj
 0001:0000b962       ??$__crt_fast_encode_pointer@P6GXPAU_RTL_CONDITION_VARIABLE@@@Z@@YAP6GXPAU_RTL_CONDITION_VARIABLE@@@ZQ6GX0@Z@Z 1000c962 f i LIBCMT:thread_safe_statics.obj
 0001:0000b962       ??$__crt_fast_encode_pointer@P6GHPAU_RTL_CONDITION_VARIABLE@@PAU_RTL_CRITICAL_SECTION@@K@Z@@YAP6GHPAU_RTL_CONDITION_VARIABLE@@PAU_RTL_CRITICAL_SECTION@@K@ZQ6GH01K@Z@Z 1000c962 f i LIBCMT:thread_safe_statics.obj
 0001:0000b962       ??$__crt_fast_encode_pointer@PAX@@YAPAXQAX@Z 1000c962 f i libvcruntime:winapi_downlevel.obj
 0001:0000b9c3       ___scrt_acquire_startup_lock 1000c9c3 f   LIBCMT:utility.obj
 0001:0000b9f5       ___scrt_dllmain_after_initialize_c 1000c9f5 f   LIBCMT:utility.obj
 0001:0000ba20       ___scrt_dllmain_before_initialize_c 1000ca20 f   LIBCMT:utility.obj
 0001:0000ba2e       ___scrt_dllmain_crt_thread_attach 1000ca2e f   LIBCMT:utility.obj
 0001:0000ba4d       ___scrt_dllmain_crt_thread_detach 1000ca4d f   LIBCMT:utility.obj
 0001:0000ba5a       ___scrt_dllmain_exception_filter 1000ca5a f   LIBCMT:utility.obj
 0001:0000ba8e       ___scrt_dllmain_uninitialize_c 1000ca8e f   LIBCMT:utility.obj
 0001:0000bab1       ___scrt_dllmain_uninitialize_critical 1000cab1 f   LIBCMT:utility.obj
 0001:0000babe       ___scrt_initialize_crt     1000cabe f   LIBCMT:utility.obj
 0001:0000baf7       ___scrt_initialize_onexit_tables 1000caf7 f   LIBCMT:utility.obj
 0001:0000bb9c       ___scrt_is_nonwritable_in_current_image 1000cb9c f   LIBCMT:utility.obj
 0001:0000bc30       ___scrt_release_startup_lock 1000cc30 f   LIBCMT:utility.obj
 0001:0000bc4d       ___scrt_uninitialize_crt   1000cc4d f   LIBCMT:utility.obj
 0001:0000bc75       __onexit                   1000cc75 f   LIBCMT:utility.obj
 0001:0000bcb0       _atexit                    1000ccb0 f   LIBCMT:utility.obj
 0001:0000bcc5       ??3@YAXPAX@Z               1000ccc5 f   LIBCMT:delete_scalar.obj
 0001:0000bdfc       __Init_thread_footer       1000cdfc f   LIBCMT:thread_safe_statics.obj
 0001:0000be46       __Init_thread_header       1000ce46 f   LIBCMT:thread_safe_statics.obj
 0001:0000be98       __Init_thread_notify       1000ce98 f   LIBCMT:thread_safe_statics.obj
 0001:0000beda       __Init_thread_wait         1000ceda f   LIBCMT:thread_safe_statics.obj
 0001:0000bf3a       ___raise_securityfailure   1000cf3a f   LIBCMT:gs_report.obj
 0001:0000bf62       ___report_gsfailure        1000cf62 f   LIBCMT:gs_report.obj
 0001:0000c05b       ___report_rangecheckfailure 1000d05b f   LIBCMT:gs_report.obj
 0001:0000c067       ___report_securityfailure  1000d067 f   LIBCMT:gs_report.obj
 0001:0000c135       ??2@YAPAXIABUnothrow_t@std@@@Z 1000d135 f   LIBCMT:new_scalar_nothrow.obj
 0001:0000c185       ??_U@YAPAXIABUnothrow_t@std@@@Z 1000d185 f   LIBCMT:new_array_nothrow.obj
 0001:0000c18e       @__security_check_cookie@4 1000d18e f   LIBCMT:_secchk_.obj
 0001:0000c1a0       __SEH_prolog4_GS           1000d1a0 f   LIBCMT:_sehprolg4gs_.obj
 0001:0000c1e9       __SEH_epilog4_GS           1000d1e9 f   LIBCMT:_sehprolg4gs_.obj
 0001:0000c200       __alloca_probe_16          1000d200 f   LIBCMT:alloca16.obj
 0001:0000c216       __alloca_probe_8           1000d216     LIBCMT:alloca16.obj
 0001:0000c230       __alloca_probe             1000d230 f   LIBCMT:chkstk.obj
 0001:0000c230       __chkstk                   1000d230 f   LIBCMT:chkstk.obj
 0001:0000c57d       __DllMainCRTStartup@12     1000d57d f   LIBCMT:dll_dllmain.obj
 0001:0000c5a0       ??2@YAPAXI@Z               1000d5a0 f   LIBCMT:new_scalar.obj
 0001:0000c5d0       ___isa_available_init      1000d5d0 f   LIBCMT:_cpu_disp_.obj
 0001:0000c767       ___scrt_is_ucrt_dll_in_use 1000d767 f   LIBCMT:ucrt_detection.obj
 0001:0000c773       ___scrt_fastfail           1000d773 f   LIBCMT:utility_desktop.obj
 0001:0000c88d       __crt_debugger_hook        1000d88d f   LIBCMT:utility_desktop.obj
 0001:0000c8a0       __SEH_prolog4              1000d8a0 f   LIBCMT:_sehprolg4_.obj
 0001:0000c8e6       __SEH_epilog4              1000d8e6 f   LIBCMT:_sehprolg4_.obj
 0001:0000c8fb       @_guard_check_icall_nop@4  1000d8fb f i LIBCMT:guard_support.obj
 0001:0000c949       ___security_init_cookie    1000d949 f   LIBCMT:gs_support.obj
 0001:0000c994       ?__scrt_initialize_type_info@@YAXXZ 1000d994 f   LIBCMT:tncleanup.obj
 0001:0000c9a0       ?__scrt_uninitialize_type_info@@YAXXZ 1000d9a0 f   LIBCMT:tncleanup.obj
 0001:0000c9ac       ___local_stdio_scanf_options 1000d9ac f i LIBCMT:default_local_stdio_options.obj
 0001:0000c9b2       ___scrt_initialize_default_local_stdio_options 1000d9b2 f   LIBCMT:default_local_stdio_options.obj
 0001:0000c9cf       ___scrt_get_dyn_tls_init_callback 1000d9cf f   LIBCMT:dyn_tls_init.obj
 0001:0000c9d5       __RTC_Initialize           1000d9d5 f   LIBCMT:_initsect_.obj
 0001:0000ca01       __RTC_Terminate            1000da01 f   LIBCMT:_initsect_.obj
 0001:0000ca2d       ??0bad_alloc@std@@QAE@ABV01@@Z 1000da2d f i LIBCMT:throw_bad_alloc.obj
 0001:0000ca48       ??0bad_alloc@std@@QAE@XZ   1000da48 f i LIBCMT:throw_bad_alloc.obj
 0001:0000ca60       ??0bad_array_new_length@std@@QAE@ABV01@@Z 1000da60 f i LIBCMT:throw_bad_alloc.obj
 0001:0000ca7b       ??0bad_array_new_length@std@@QAE@XZ 1000da7b f i LIBCMT:throw_bad_alloc.obj
 0001:0000ca93       ??0exception@std@@QAE@ABV01@@Z 1000da93 f i LIBCMT:throw_bad_alloc.obj
 0001:0000cabf       ??1bad_array_new_length@std@@UAE@XZ 1000dabf f i LIBCMT:throw_bad_alloc.obj
 0001:0000cabf       ??1bad_exception@std@@UAE@XZ 1000dabf f i libvcruntime:frame.obj
 0001:0000cabf       ??1bad_alloc@std@@UAE@XZ   1000dabf f i LIBCMT:throw_bad_alloc.obj
 0001:0000cad0       ??_Ebad_array_new_length@std@@UAEPAXI@Z 1000dad0 f i LIBCMT:throw_bad_alloc.obj
 0001:0000cad0       ??_Gbad_exception@std@@UAEPAXI@Z 1000dad0 f i libvcruntime:frame.obj
 0001:0000cad0       ??_Gexception@std@@UAEPAXI@Z 1000dad0 f i LIBCMT:throw_bad_alloc.obj
 0001:0000cad0       ??_Gbad_array_new_length@std@@UAEPAXI@Z 1000dad0 f i LIBCMT:throw_bad_alloc.obj
 0001:0000cad0       ??_Ebad_alloc@std@@UAEPAXI@Z 1000dad0 f i LIBCMT:throw_bad_alloc.obj
 0001:0000cad0       ??_Eexception@std@@UAEPAXI@Z 1000dad0 f i LIBCMT:throw_bad_alloc.obj
 0001:0000cad0       ??_Gbad_alloc@std@@UAEPAXI@Z 1000dad0 f i LIBCMT:throw_bad_alloc.obj
 0001:0000cad0       ??_Ebad_exception@std@@UAEPAXI@Z 1000dad0 f i libvcruntime:frame.obj
 0001:0000cafd       ?__scrt_throw_std_bad_alloc@@YAXXZ 1000dafd f   LIBCMT:throw_bad_alloc.obj
 0001:0000cb1a       ?__scrt_throw_std_bad_array_new_length@@YAXXZ 1000db1a f   LIBCMT:throw_bad_alloc.obj
 0001:0000cb37       ?what@exception@std@@UBEPBDXZ 1000db37 f i LIBCMT:throw_bad_alloc.obj
 0001:0000cb44       ??_Etype_info@@UAEPAXI@Z   1000db44 f i LIBCMT:std_type_info_static.obj
 0001:0000cb44       ??_Gtype_info@@UAEPAXI@Z   1000db44 f i LIBCMT:std_type_info_static.obj
 0001:0000cb67       ??0CAtlBaseModule@ATL@@QAE@XZ 1000db67 f   atls:atlbase.obj
 0001:0000cbba       ??0_ATL_BASE_MODULE70@ATL@@QAE@XZ 1000dbba f i atls:atlbase.obj
 0001:0000cbdd       ??1CAtlBaseModule@ATL@@QAE@XZ 1000dbdd f   atls:atlbase.obj
 0001:0000ccca       ?Init@_stdcallthunk@ATL@@QAEHKPAX@Z 1000dcca f i atls:atlthunk.obj
 0001:0000ccff       ?__AllocStdCallThunk_cmn@@YAPAXXZ 1000dcff f   atls:atlthunk.obj
 0001:0000cdc5       ?__FreeStdCallThunk_cmn@@YAXPAX@Z 1000ddc5 f   atls:atlthunk.obj
 0001:0000ce60       _AtlThunk_AllocateData@0   1000de60 f   atls:atlthunk.obj
 0001:0000cec5       _AtlThunk_DataToCode@4     1000dec5 f   atls:atlthunk.obj
 0001:0000cf0c       _AtlThunk_FreeData@4       1000df0c f   atls:atlthunk.obj
 0001:0000cf62       _AtlThunk_InitData@12      1000df62 f   atls:atlthunk.obj
 0001:0000cfb1       __get_purecall_handler     1000dfb1 f   libvcruntime:purevirt.obj
 0001:0000cfc6       __purecall                 1000dfc6 f   libvcruntime:purevirt.obj
 0001:0000cfe2       _wcsstr                    1000dfe2 f   libvcruntime:wcsstr.obj
 0001:0000d2a0       __except_handler4          1000e2a0 f   libvcruntime:_chandler4_.obj
 0001:0000d3f7       _memcmp                    1000e3f7 f   libvcruntime:_memcmp_.obj
 0001:0000e3a0       _memcpy                    1000f3a0 f   libvcruntime:memcpy.obj
 0001:0000e920       _memset                    1000f920 f   libvcruntime:memset.obj
 0001:0000ea7a       ___vcrt_initialize         1000fa7a f   libvcruntime:initialization.obj
 0001:0000eaa3       ___vcrt_thread_attach      1000faa3 f   libvcruntime:initialization.obj
 0001:0000eaae       ___vcrt_thread_detach      1000faae f   libvcruntime:initialization.obj
 0001:0000eab9       ___vcrt_uninitialize       1000fab9 f   libvcruntime:initialization.obj
 0001:0000ead8       ___vcrt_uninitialize_critical 1000fad8 f   libvcruntime:initialization.obj
 0001:0000eae0       ?GetRangeOfTrysToCheck@__FrameHandler3@@SA?AU?$pair@Viterator@TryBlockMap@__FrameHandler3@@V123@@std@@AAVTryBlockMap@1@HH@Z 1000fae0 f   libvcruntime:trnsctrl.obj
 0001:0000eb62       ?_CallCatchBlock2@@YAPAXPAUEHRegistrationNode@@PBU_s_FuncInfo@@PAXHK@Z 1000fb62 f   libvcruntime:trnsctrl.obj
 0001:0000ebc0       ?_CallSETranslator@@YAHPAUEHExceptionRecord@@PAUEHRegistrationNode@@PAX2PBU_s_FuncInfo@@H1@Z 1000fbc0 f   libvcruntime:trnsctrl.obj
 0001:0000ec9b       ?_JumpToContinuation@@YGXPAXPAUEHRegistrationNode@@@Z 1000fc9b f   libvcruntime:trnsctrl.obj
 0001:0000eccb       ?_UnwindNestedFrames@@YGXPAUEHRegistrationNode@@PAUEHExceptionRecord@@@Z 1000fccb f   libvcruntime:trnsctrl.obj
 0001:0000ed1e       __CatchGuardHandler        1000fd1e f   libvcruntime:trnsctrl.obj
 0001:0000ed4f       __CreateFrameInfo          1000fd4f f   libvcruntime:trnsctrl.obj
 0001:0000ed73       __FindAndUnlinkFrame       1000fd73 f   libvcruntime:trnsctrl.obj
 0001:0000edb8       __TranslatorGuardHandler   1000fdb8 f   libvcruntime:trnsctrl.obj
 0001:0000ee55       ___CxxFrameHandler3        1000fe55 f   libvcruntime:trnsctrl.obj
 0001:0000ee8b       ___std_type_info_compare   1000fe8b f   libvcruntime:std_type_info.obj
 0001:0000eec7       ___std_type_info_destroy_list 1000fec7 f   libvcruntime:std_type_info.obj
 0001:0000eeea       ___std_exception_copy      1000feea f   libvcruntime:std_exception.obj
 0001:0000ef4d       ___std_exception_destroy   1000ff4d f   libvcruntime:std_exception.obj
 0001:0000ef6c       __CxxThrowException@8      1000ff6c f   libvcruntime:throw.obj
 0001:0000efe0       _memmove                   1000ffe0 f   libvcruntime:memmove.obj
 0001:0000f554       ___vcrt_initialize_pure_virtual_call_handler 10010554 f   libvcruntime:purevirt_data.obj
 0001:0000f560       __local_unwind4            10010560 f   libvcruntime:_exsup4_.obj
 0001:0000f638       __seh_longjmp_unwind4@4    10010638 f   libvcruntime:_exsup4_.obj
 0001:0000f660       @_EH4_CallFilterFunc@8     10010660 f   libvcruntime:_exsup4_.obj
 0001:0000f678       @_EH4_TransferToHandler@8  10010678 f   libvcruntime:_exsup4_.obj
 0001:0000f694       @_EH4_GlobalUnwind2@8      10010694 f   libvcruntime:_exsup4_.obj
 0001:0000f6b0       @_EH4_LocalUnwind@16       100106b0 f   libvcruntime:_exsup4_.obj
 0001:0000f6c7       ___except_validate_context_record 100106c7 f   libvcruntime:jbcxrval.obj
 0001:0000f6f7       ___except_validate_jump_buffer 100106f7 f   libvcruntime:jbcxrval.obj
 0001:0000f724       ___vcrt_freefls@4          10010724 f   libvcruntime:per_thread_data.obj
 0001:0000f740       ___vcrt_freeptd            10010740 f   libvcruntime:per_thread_data.obj
 0001:0000f776       ___vcrt_getptd             10010776 f   libvcruntime:per_thread_data.obj
 0001:0000f784       ___vcrt_getptd_noexit      10010784 f   libvcruntime:per_thread_data.obj
 0001:0000f816       ___vcrt_initialize_ptd     10010816 f   libvcruntime:per_thread_data.obj
 0001:0000f849       ___vcrt_uninitialize_ptd   10010849 f   libvcruntime:per_thread_data.obj
 0001:0000f864       ___vcrt_initialize_locks   10010864 f   libvcruntime:locks.obj
 0001:0000f8a0       ___vcrt_uninitialize_locks 100108a0 f   libvcruntime:locks.obj
 0001:0000fa02       ___vcrt_FlsAlloc           10010a02 f   libvcruntime:winapi_downlevel.obj
 0001:0000fa3d       ___vcrt_FlsFree            10010a3d f   libvcruntime:winapi_downlevel.obj
 0001:0000fa78       ___vcrt_FlsGetValue        10010a78 f   libvcruntime:winapi_downlevel.obj
 0001:0000fab3       ___vcrt_FlsSetValue        10010ab3 f   libvcruntime:winapi_downlevel.obj
 0001:0000faf1       ___vcrt_InitializeCriticalSectionEx 10010af1 f   libvcruntime:winapi_downlevel.obj
 0001:0000fb38       ___vcrt_initialize_winapi_thunks 10010b38 f   libvcruntime:winapi_downlevel.obj
 0001:0000fb61       ___vcrt_uninitialize_winapi_thunks 10010b61 f   libvcruntime:winapi_downlevel.obj
 0001:0001028a       ??$TypeMatchHelper@$$CBU_s_HandlerType@@@@YAHPBU_s_HandlerType@@PBU_s_CatchableType@@PBU_s_ThrowInfo@@@Z 1001128a f i libvcruntime:frame.obj
 0001:00010318       ??$__InternalCxxFrameHandler@V__FrameHandler3@@@@YA?AW4_EXCEPTION_DISPOSITION@@PAUEHExceptionRecord@@PAUEHRegistrationNode@@PAU_CONTEXT@@PAXPBU_s_FuncInfo@@H1E@Z 10011318 f i libvcruntime:frame.obj
 0001:0001041a       ??0bad_exception@std@@QAE@ABV01@@Z 1001141a f i libvcruntime:frame.obj
 0001:00010435       ??0bad_exception@std@@QAE@XZ 10011435 f i libvcruntime:frame.obj
 0001:0001044d       ??8type_info@@QBE_NABV0@@Z 1001144d f i libvcruntime:frame.obj
 0001:000106b4       ?FrameUnwindToEmptyState@__FrameHandler3@@SAXPAUEHRegistrationNode@@PAXPBU_s_FuncInfo@@@Z 100116b4 f   libvcruntime:frame.obj
 0001:000106cc       ?FrameUnwindToState@__FrameHandler3@@SAXPAUEHRegistrationNode@@PAXPBU_s_FuncInfo@@H@Z 100116cc f   libvcruntime:frame.obj
 0001:0001084e       ?_CallMemberFunction1@@YGXQAX00@Z 1001184e f i libvcruntime:frame.obj
 0001:0001085e       ?_CallMemberFunction2@@YGXQAX00H@Z 1001185e f i libvcruntime:frame.obj
 0001:00010871       ?getESTypes@__FrameHandler3@@SAPBU_s_ESTypeList@@PBU_s_FuncInfo@@@Z 10011871 f i libvcruntime:frame.obj
 0001:00010880       __CallSettingFrame@12      10011880 f   libvcruntime:lowhelpr.obj
 0001:000108a7       __NLG_Return               100118a7     libvcruntime:lowhelpr.obj
 0001:000108d0       __global_unwind2           100118d0 f   libvcruntime:_exsup_.obj
 0001:00010936       __local_unwind2            10011936 f   libvcruntime:_exsup_.obj
 0001:000109ba       __abnormal_termination     100119ba f   libvcruntime:_exsup_.obj
 0001:000109e0       __NLG_Notify1              100119e0 f   libvcruntime:_exsup_.obj
 0001:000109ec       __NLG_Notify               100119ec f   libvcruntime:_exsup_.obj
 0001:00010a03       __NLG_Dispatch             10011a03     libvcruntime:_exsup_.obj
 0001:00010a03       __NLG_Dispatch2            10011a03     libvcruntime:_exsup_.obj
 0001:00010a0b       __NLG_Call                 10011a0b f   libvcruntime:_exsup_.obj
 0001:00010a0d       __NLG_Return2              10011a0d     libvcruntime:_exsup_.obj
 0001:00010a0e       _unexpected                10011a0e f   libvcruntime:unexpected.obj
 0001:00010a2b       ?GetCurrentState@__FrameHandler3@@SAHPAUEHRegistrationNode@@PAXPBU_s_FuncInfo@@@Z 10011a2b f   libvcruntime:ehstate.obj
 0001:00010a48       ?SetState@__FrameHandler3@@SAXPAUEHRegistrationNode@@PBU_s_FuncInfo@@H@Z 10011a48 f   libvcruntime:ehstate.obj
 0001:00010a56       ___DestructExceptionObject 10011a56 f   libvcruntime:ehhelpers.obj
 0001:00010af6       ?_CallMemberFunction0@@YGXQAX0@Z 10011af6 f i libvcruntime:ehhelpers.obj
 0001:00010b03       __IsExceptionObjectToBeDestroyed 10011b03 f   libvcruntime:ehhelpers.obj
 0001:00010b29       ___AdjustPointer           10011b29 f   libvcruntime:ehhelpers.obj
 0001:00010b4e       ___FrameUnwindFilter       10011b4e f   libvcruntime:ehhelpers.obj
 0001:00010b93       _free                      10011b93 f   libucrt:free.obj
 0001:00010bb0       ___acrt_call_reportfault   10011bb0 f   libucrt:invalid_parameter.obj
 0001:00010ceb       ___acrt_initialize_invalid_parameter_handler 10011ceb f   libucrt:invalid_parameter.obj
 0001:00010cfa       __invalid_parameter        10011cfa f   libucrt:invalid_parameter.obj
 0001:00010d75       __invalid_parameter_noinfo 10011d75 f   libucrt:invalid_parameter.obj
 0001:00010d85       __invoke_watson            10011d85 f   libucrt:invalid_parameter.obj
 0001:00010db8       ___acrt_errno_from_os_error 10011db8 f   libucrt:errno.obj
 0001:00010dfb       ___acrt_errno_map_os_error 10011dfb f   libucrt:errno.obj
 0001:00010e1e       ___doserrno                10011e1e f   libucrt:errno.obj
 0001:00010e31       __errno                    10011e31 f   libucrt:errno.obj
 0001:00010e44       _calloc                    10011e44 f   libucrt:calloc.obj
 0001:00010e4f       _malloc                    10011e4f f   libucrt:malloc.obj
 0001:00010e5a       __recalloc                 10011e5a f   libucrt:recalloc.obj
 0001:00010e65       __recalloc_base            10011e65 f   libucrt:recalloc.obj
 0001:00010ed2       __resetstkoflw             10011ed2 f   libucrt:resetstk.obj
 0001:00010fa3       _wcscat_s                  10011fa3 f   libucrt:wcscat_s.obj
 0001:00011018       _wcscpy_s                  10012018 f   libucrt:wcscpy_s.obj
 0001:00011149       _wcsncpy_s                 10012149 f   libucrt:wcsncpy_s.obj
 0001:00011357       ??$count@D@formatting_buffer@__crt_stdio_output@@QBEIXZ 10012357 f i libucrt:output.obj
 0001:0001136f       ??$count@_W@formatting_buffer@__crt_stdio_output@@QBEIXZ 1001236f f i libucrt:output.obj
 0001:00011388       ??$ensure_buffer_is_big_enough@D@formatting_buffer@__crt_stdio_output@@QAE_NI@Z 10012388 f i libucrt:output.obj
 0001:0001140e       ??$is_wide_character_specifier@_W@__crt_stdio_output@@YA_N_K_WW4length_modifier@0@@Z 1001240e f i libucrt:output.obj
 0001:0001145d       ??$scratch_data@D@formatting_buffer@__crt_stdio_output@@QAEPADXZ 1001245d f i libucrt:output.obj
 0001:0001147b       ??$type_case_integer_parse_into_buffer@I@?$output_processor@_WV?$string_output_adapter@_W@__crt_stdio_output@@V?$format_validation_base@_WV?$string_output_adapter@_W@__crt_stdio_output@@@2@@__crt_stdio_output@@AAEXII_N@Z 1001247b f i libucrt:output.obj
 0001:00011501       ??$type_case_integer_parse_into_buffer@_K@?$output_processor@_WV?$string_output_adapter@_W@__crt_stdio_output@@V?$format_validation_base@_WV?$string_output_adapter@_W@__crt_stdio_output@@@2@@__crt_stdio_output@@AAEX_KI_N@Z 10012501 f i libucrt:output.obj
 0001:0001159c       ??$write_multiple_characters@V?$string_output_adapter@_W@__crt_stdio_output@@D@__crt_stdio_output@@YAXABV?$string_output_adapter@_W@0@DHQAH@Z 1001259c f i libucrt:output.obj
 0001:000115cd       ??0?$common_data@_W@__crt_stdio_output@@IAE@XZ 100125cd f i libucrt:output.obj
 0001:00011619       ??0?$output_adapter_data@_WV?$string_output_adapter@_W@__crt_stdio_output@@@__crt_stdio_output@@IAE@ABV?$string_output_adapter@_W@1@_KQB_WQAU__crt_locale_pointers@@QAD@Z 10012619 f i libucrt:output.obj
 0001:00011655       ??0_LocaleUpdate@@QAE@QAU__crt_locale_pointers@@@Z 10012655 f i libucrt:output.obj
 0001:000116d8       ??1formatting_buffer@__crt_stdio_output@@QAE@XZ 100126d8 f i libucrt:output.obj
 0001:000116f2       ??4?$__crt_unique_heap_ptr@DU__crt_internal_free_policy@@@@QAEAAV0@$$QAV0@@Z 100126f2 f i libucrt:output.obj
 0001:00011716       ?crop_zeroes@__crt_stdio_output@@YAXPADQAU__crt_locale_pointers@@@Z 10012716 f i libucrt:output.obj
 0001:0001176d       ?find_next_state@?$output_processor@_WV?$string_output_adapter@_W@__crt_stdio_output@@V?$format_validation_base@_WV?$string_output_adapter@_W@__crt_stdio_output@@@2@@__crt_stdio_output@@ABE?AW4state@2@_WW432@@Z 1001276d f i libucrt:output.obj
 0001:000117a4       ?force_decimal_point@__crt_stdio_output@@YAXPADQAU__crt_locale_pointers@@@Z 100127a4 f i libucrt:output.obj
 0001:00011800       ?parse_int_from_format_string@?$output_processor@_WV?$string_output_adapter@_W@__crt_stdio_output@@V?$format_validation_base@_WV?$string_output_adapter@_W@__crt_stdio_output@@@2@@__crt_stdio_output@@AAE_NQAH@Z 10012800 f i libucrt:output.obj
 0001:0001187a       ?process@?$output_processor@_WV?$string_output_adapter@_W@__crt_stdio_output@@V?$format_validation_base@_WV?$string_output_adapter@_W@__crt_stdio_output@@@2@@__crt_stdio_output@@QAEHXZ 1001287a f i libucrt:output.obj
 0001:000119aa       ?state_case_flag@?$output_processor@_WV?$string_output_adapter@_W@__crt_stdio_output@@V?$format_validation_base@_WV?$string_output_adapter@_W@__crt_stdio_output@@@2@@__crt_stdio_output@@AAE_NXZ 100129aa f i libucrt:output.obj
 0001:000119e7       ?state_case_normal@?$output_processor@_WV?$string_output_adapter@_W@__crt_stdio_output@@V?$format_validation_base@_WV?$string_output_adapter@_W@__crt_stdio_output@@@2@@__crt_stdio_output@@AAE_NXZ 100129e7 f i libucrt:output.obj
 0001:00011a06       ?state_case_normal_common@?$output_processor@_WV?$string_output_adapter@_W@__crt_stdio_output@@V?$format_validation_base@_WV?$string_output_adapter@_W@__crt_stdio_output@@@2@@__crt_stdio_output@@AAE_NXZ 10012a06 f i libucrt:output.obj
 0001:00011a21       ?state_case_precision@?$output_processor@_WV?$string_output_adapter@_W@__crt_stdio_output@@V?$format_validation_base@_WV?$string_output_adapter@_W@__crt_stdio_output@@@2@@__crt_stdio_output@@AAE_NXZ 10012a21 f i libucrt:output.obj
 0001:00011a4a       ?state_case_size@?$output_processor@_WV?$string_output_adapter@_W@__crt_stdio_output@@V?$format_validation_base@_WV?$string_output_adapter@_W@__crt_stdio_output@@@2@@__crt_stdio_output@@AAE_NXZ 10012a4a f i libucrt:output.obj
 0001:00011bc6       ?state_case_type@?$output_processor@_WV?$string_output_adapter@_W@__crt_stdio_output@@V?$format_validation_base@_WV?$string_output_adapter@_W@__crt_stdio_output@@@2@@__crt_stdio_output@@AAE_NXZ 10012bc6 f i libucrt:output.obj
 0001:00011e24       ?state_case_width@?$output_processor@_WV?$string_output_adapter@_W@__crt_stdio_output@@V?$format_validation_base@_WV?$string_output_adapter@_W@__crt_stdio_output@@@2@@__crt_stdio_output@@AAE_NXZ 10012e24 f i libucrt:output.obj
 0001:00011e50       ?to_integer_size@__crt_stdio_output@@YAIW4length_modifier@1@@Z 10012e50 f i libucrt:output.obj
 0001:00011eac       ?type_case_Z@?$output_processor@_WV?$string_output_adapter@_W@__crt_stdio_output@@V?$format_validation_base@_WV?$string_output_adapter@_W@__crt_stdio_output@@@2@@__crt_stdio_output@@AAE_NXZ 10012eac f i libucrt:output.obj
 0001:00011f0f       ?type_case_a@?$output_processor@_WV?$string_output_adapter@_W@__crt_stdio_output@@V?$format_validation_base@_WV?$string_output_adapter@_W@__crt_stdio_output@@@2@@__crt_stdio_output@@AAE_NXZ 10012f0f f i libucrt:output.obj
 0001:00012081       ?type_case_c_tchar@?$output_processor@_WV?$string_output_adapter@_W@__crt_stdio_output@@V?$format_validation_base@_WV?$string_output_adapter@_W@__crt_stdio_output@@@2@@__crt_stdio_output@@AAE_N_W@Z 10013081 f i libucrt:output.obj
 0001:00012119       ?type_case_integer@?$output_processor@_WV?$string_output_adapter@_W@__crt_stdio_output@@V?$format_validation_base@_WV?$string_output_adapter@_W@__crt_stdio_output@@@2@@__crt_stdio_output@@AAE_NI_N@Z 10013119 f i libucrt:output.obj
 0001:0001226b       ?type_case_n@?$output_processor@_WV?$string_output_adapter@_W@__crt_stdio_output@@V?$format_validation_base@_WV?$string_output_adapter@_W@__crt_stdio_output@@@2@@__crt_stdio_output@@AAE_NXZ 1001326b f i libucrt:output.obj
 0001:000122df       ?type_case_o@?$output_processor@_WV?$string_output_adapter@_W@__crt_stdio_output@@V?$format_validation_base@_WV?$string_output_adapter@_W@__crt_stdio_output@@@2@@__crt_stdio_output@@AAE_NXZ 100132df f i libucrt:output.obj
 0001:000122fe       ?type_case_p@?$output_processor@_WV?$string_output_adapter@_W@__crt_stdio_output@@V?$format_validation_base@_WV?$string_output_adapter@_W@__crt_stdio_output@@@2@@__crt_stdio_output@@AAE_NXZ 100132fe f i libucrt:output.obj
 0001:00012316       ?type_case_s@?$output_processor@_WV?$string_output_adapter@_W@__crt_stdio_output@@V?$format_validation_base@_WV?$string_output_adapter@_W@__crt_stdio_output@@@2@@__crt_stdio_output@@AAE_NXZ 10013316 f i libucrt:output.obj
 0001:0001238a       ?type_case_s_compute_narrow_string_length@?$output_processor@_WV?$string_output_adapter@_W@__crt_stdio_output@@V?$format_validation_base@_WV?$string_output_adapter@_W@__crt_stdio_output@@@2@@__crt_stdio_output@@ABEHH_W@Z 1001338a f i libucrt:output.obj
 0001:000123ca       ?validate@?$c_string_character_source@_W@__crt_strtox@@QBE_NXZ 100133ca f i libucrt:atox.obj
 0001:000123ca       ?validate@?$string_output_adapter@_W@__crt_stdio_output@@QBE_NXZ 100133ca f i libucrt:output.obj
 0001:000123e5       ?validate_and_update_state_at_end_of_format_string@?$format_validation_base@_WV?$string_output_adapter@_W@__crt_stdio_output@@@__crt_stdio_output@@IBE_NXZ 100133e5 f i libucrt:output.obj
 0001:00012407       ?write_character@?$string_output_adapter@_W@__crt_stdio_output@@QBE_N_WQAH@Z 10013407 f i libucrt:output.obj
 0001:0001244c       ?write_stored_string_tchar@?$output_processor@_WV?$string_output_adapter@_W@__crt_stdio_output@@V?$format_validation_base@_WV?$string_output_adapter@_W@__crt_stdio_output@@@2@@__crt_stdio_output@@AAE_N_W@Z 1001344c f i libucrt:output.obj
 0001:000124d8       ?write_string@?$string_output_adapter@_W@__crt_stdio_output@@QBEXQB_WHQAHAAV__crt_deferred_errno_cache@@@Z 100134d8 f i libucrt:output.obj
 0001:0001254b       ___stdio_common_vswprintf_s 1001354b f   libucrt:output.obj
 0001:0001256f       __seh_filter_dll           1001356f f   libucrt:exception_filter.obj
 0001:0001258f       __seh_filter_exe           1001358f f   libucrt:exception_filter.obj
 0001:00012702       ??$?RV<lambda_03b1d95aef87969028cfba75ccab2455>@@AAV<lambda_6e4b09c48022b2350581041d5f6b0c4c>@@V<lambda_22bdf7517842c4b3e53723af5aa32b9e>@@@?$__crt_seh_guarded_call@X@@QAEX$$QAV<lambda_03b1d95aef87969028cfba75ccab2455>@@AAV<lambda_6e4b09c48022b2350581041d5f6b0c4c>@@$$QAV<lambda_22bdf7517842c4b3e53723af5aa32b9e>@@@Z 10013702 f i libucrt:exit.obj
 0001:00012745       ??$__acrt_lock_and_call@V<lambda_6e4b09c48022b2350581041d5f6b0c4c>@@@@YAXW4__acrt_lock_id@@$$QAV<lambda_6e4b09c48022b2350581041d5f6b0c4c>@@@Z 10013745 f i libucrt:exit.obj
 0001:000129a2       ___acrt_initialize_thread_local_exit_callback 100139a2 f   libucrt:exit.obj
 0001:000129b1       __cexit                    100139b1 f   libucrt:exit.obj
 0001:000129c0       __exit                     100139c0 f   libucrt:exit.obj
 0001:000129d6       __is_c_termination_complete 100139d6 f   libucrt:exit.obj
 0001:00012c87       ___acrt_allocate_buffer_for_argv 10013c87 f   libucrt:argv_parsing.obj
 0001:00012cdc       __configure_narrow_argv    10013cdc f   libucrt:argv_parsing.obj
 0001:00012e40       ??$uninitialize@A6AXAAPAPAD@Z@?$dual_state_global@PAPAD@__crt_state_management@@QAEXA6AXAAPAPAD@Z@Z 10013e40 f i libucrt:environment_initialization.obj
 0001:00012e40       ??$uninitialize@A6AXAAPAPA_W@Z@?$dual_state_global@PAPA_W@__crt_state_management@@QAEXA6AXAAPAPA_W@Z@Z 10013e40 f i libucrt:environment_initialization.obj
 0001:00012eb6       ?initialize@?$dual_state_global@P6AXH@Z@__crt_state_management@@QAEXQ6AXH@Z@Z 10013eb6 f i libucrt:signal.obj
 0001:00012eb6       ?initialize@?$dual_state_global@PAU__crt_locale_data@@@__crt_state_management@@QAEXQAU__crt_locale_data@@@Z 10013eb6 f i libucrt:initialization.obj
 0001:00012eb6       ?initialize@?$dual_state_global@P6AHI@Z@__crt_state_management@@QAEXQ6AHI@Z@Z 10013eb6 f i libucrt:new_handler.obj
 0001:00012eb6       ?initialize@?$dual_state_global@P6AHPAU_exception@@@Z@__crt_state_management@@QAEXQ6AHPAU_exception@@@Z@Z 10013eb6 f i libucrt:matherr.obj
 0001:00012eb6       ?initialize@?$dual_state_global@PAPAD@__crt_state_management@@QAEXQAPAD@Z 10013eb6 f i libucrt:environment_initialization.obj
 0001:00012eb6       ?initialize@?$dual_state_global@PAU__crt_multibyte_data@@@__crt_state_management@@QAEXQAU__crt_multibyte_data@@@Z 10013eb6 f i libucrt:mbctype.obj
 0001:00012ee7       ___dcrt_uninitialize_environments_nolock 10013ee7 f   libucrt:environment_initialization.obj
 0001:00012f1e       __initialize_narrow_environment 10013f1e f   libucrt:environment_initialization.obj
 0001:00012f23       ??$?RV<lambda_69a2805e680e0e292e8ba93315fe43a8>@@AAV<lambda_f03950bc5685219e0bcd2087efbe011e>@@V<lambda_03fcd07e894ec930e3f35da366ca99d6>@@@?$__crt_seh_guarded_call@H@@QAEH$$QAV<lambda_69a2805e680e0e292e8ba93315fe43a8>@@AAV<lambda_f03950bc5685219e0bcd2087efbe011e>@@$$QAV<lambda_03fcd07e894ec930e3f35da366ca99d6>@@@Z 10013f23 f i libucrt:onexit.obj
 0001:00012f74       ??$?RV<lambda_8e746cf0007f6ed984d6f78af1fec997>@@AAV<lambda_22ebabd17bc4fa466a2aca6d8deb888d>@@V<lambda_18ed0c0b38a6dc0daf1e7ac6d6adf05e>@@@?$__crt_seh_guarded_call@H@@QAEH$$QAV<lambda_8e746cf0007f6ed984d6f78af1fec997>@@AAV<lambda_22ebabd17bc4fa466a2aca6d8deb888d>@@$$QAV<lambda_18ed0c0b38a6dc0daf1e7ac6d6adf05e>@@@Z 10013f74 f i libucrt:onexit.obj
 0001:00012fc5       ??$__acrt_lock_and_call@V<lambda_22ebabd17bc4fa466a2aca6d8deb888d>@@@@YAHW4__acrt_lock_id@@$$QAV<lambda_22ebabd17bc4fa466a2aca6d8deb888d>@@@Z 10013fc5 f i libucrt:onexit.obj
 0001:00012fed       ??$__acrt_lock_and_call@V<lambda_f03950bc5685219e0bcd2087efbe011e>@@@@YAHW4__acrt_lock_id@@$$QAV<lambda_f03950bc5685219e0bcd2087efbe011e>@@@Z 10013fed f i libucrt:onexit.obj
 0001:00013015       ??$__crt_fast_encode_pointer@P6AHXZ@@YAP6AHXZQ6AHXZ@Z 10014015 f i libucrt:onexit.obj
 0001:00013293       __crt_atexit               10014293 f   libucrt:onexit.obj
 0001:000132a9       __execute_onexit_table     100142a9 f   libucrt:onexit.obj
 0001:000132c6       __initialize_onexit_table  100142c6 f   libucrt:onexit.obj
 0001:00013303       __register_onexit_function 10014303 f   libucrt:onexit.obj
 0001:00013353       ___acrt_uninitialize_command_line 10014353 f   libucrt:argv_data.obj
 0001:00013436       ___acrt_initialize         10014436 f   libucrt:initialization.obj
 0001:00013448       ___acrt_thread_attach      10014448 f   libucrt:initialization.obj
 0001:00013453       ___acrt_thread_detach      10014453 f   libucrt:initialization.obj
 0001:0001345b       ___acrt_uninitialize       1001445b f   libucrt:initialization.obj
 0001:0001346d       ___acrt_uninitialize_critical 1001446d f   libucrt:initialization.obj
 0001:0001347f       __initterm                 1001447f f   libucrt:initterm.obj
 0001:000134db       __initterm_e               100144db f   libucrt:initterm.obj
 0001:00013520       ___acrt_initialize_new_handler 10014520 f   libucrt:new_handler.obj
 0001:00013534       __callnewh                 10014534 f   libucrt:new_handler.obj
 0001:00013578       __query_new_handler        10014578 f   libucrt:new_handler.obj
 0001:000135ca       _terminate                 100145ca f   libucrt:terminate.obj
 0001:00013606       _abort                     10014606 f   libucrt:abort.obj
 0001:00013649       _strcpy_s                  10014649 f   libucrt:strcpy_s.obj
 0001:000136a3       _wcsncmp                   100146a3 f   libucrt:wcsncmp.obj
 0001:000136dd       ??$is_overflow_condition@K@__crt_strtox@@YA_NIK@Z 100146dd f i libucrt:atox.obj
 0001:00013710       ??$parse_integer@KV?$c_string_character_source@_W@__crt_strtox@@@__crt_strtox@@YAKQAU__crt_locale_pointers@@V?$c_string_character_source@_W@0@H_N@Z 10014710 f i libucrt:atox.obj
 0001:00013df5       ?unget@?$c_string_character_source@_W@__crt_strtox@@QAEX_W@Z 10014df5 f i libucrt:atox.obj
 0001:00013e21       __chvalidchk_l             10014e21 f i libucrt:atox.obj
 0001:00013e4b       __ischartype_l             10014e4b f i libucrt:atox.obj
 0001:00013e80       _strncmp                   10014e80 f   libucrt:strncmp.obj
 0001:00013ef8       __free_base                10014ef8 f   libucrt:free_base.obj
 0001:00013f32       ??$?RV<lambda_15ade71b0218206bbe3333a0c9b79046>@@AAV<lambda_da44e0f8b0f19ba52fefafb335991732>@@V<lambda_207f2d024fc103971653565357d6cd41>@@@?$__crt_seh_guarded_call@X@@QAEX$$QAV<lambda_15ade71b0218206bbe3333a0c9b79046>@@AAV<lambda_da44e0f8b0f19ba52fefafb335991732>@@$$QAV<lambda_207f2d024fc103971653565357d6cd41>@@@Z 10014f32 f i libucrt:per_thread_data.obj
 0001:00013f7a       ??$?RV<lambda_38edbb1296d33220d7e4dd0ed76b244a>@@AAV<lambda_5ce1d447e08cb34b2473517608e21441>@@V<lambda_fb385d3da700c9147fc39e65dd577a8c>@@@?$__crt_seh_guarded_call@X@@QAEX$$QAV<lambda_38edbb1296d33220d7e4dd0ed76b244a>@@AAV<lambda_5ce1d447e08cb34b2473517608e21441>@@$$QAV<lambda_fb385d3da700c9147fc39e65dd577a8c>@@@Z 10014f7a f i libucrt:per_thread_data.obj
 0001:00013fdb       ??$?RV<lambda_6affb1475c98b40b75cdec977db92e3c>@@AAV<lambda_b8d4b9c228a6ecc3f80208dbb4b4a104>@@V<lambda_608742c3c92a14382c1684fc64f96c88>@@@?$__crt_seh_guarded_call@X@@QAEX$$QAV<lambda_6affb1475c98b40b75cdec977db92e3c>@@AAV<lambda_b8d4b9c228a6ecc3f80208dbb4b4a104>@@$$QAV<lambda_608742c3c92a14382c1684fc64f96c88>@@@Z 10014fdb f i libucrt:per_thread_data.obj
 0001:00014026       ??$?RV<lambda_a7e850c220f1c8d1e6efeecdedd162c6>@@AAV<lambda_46720907175c18b6c9d2717bc0d2d362>@@V<lambda_9048902d66e8d99359bc9897bbb930a8>@@@?$__crt_seh_guarded_call@X@@QAEX$$QAV<lambda_a7e850c220f1c8d1e6efeecdedd162c6>@@AAV<lambda_46720907175c18b6c9d2717bc0d2d362>@@$$QAV<lambda_9048902d66e8d99359bc9897bbb930a8>@@@Z 10015026 f i libucrt:per_thread_data.obj
 0001:00014076       ??$__acrt_lock_and_call@V<lambda_46720907175c18b6c9d2717bc0d2d362>@@@@YAXW4__acrt_lock_id@@$$QAV<lambda_46720907175c18b6c9d2717bc0d2d362>@@@Z 10015076 f i libucrt:per_thread_data.obj
 0001:0001409e       ??$__acrt_lock_and_call@V<lambda_5ce1d447e08cb34b2473517608e21441>@@@@YAXW4__acrt_lock_id@@$$QAV<lambda_5ce1d447e08cb34b2473517608e21441>@@@Z 1001509e f i libucrt:per_thread_data.obj
 0001:000140c6       ??$__acrt_lock_and_call@V<lambda_b8d4b9c228a6ecc3f80208dbb4b4a104>@@@@YAXW4__acrt_lock_id@@$$QAV<lambda_b8d4b9c228a6ecc3f80208dbb4b4a104>@@@Z 100150c6 f i libucrt:per_thread_data.obj
 0001:000140ee       ??$__acrt_lock_and_call@V<lambda_da44e0f8b0f19ba52fefafb335991732>@@@@YAXW4__acrt_lock_id@@$$QAV<lambda_da44e0f8b0f19ba52fefafb335991732>@@@Z 100150ee f i libucrt:per_thread_data.obj
 0001:000142a4       ___acrt_freeptd            100152a4 f   libucrt:per_thread_data.obj
 0001:000142d0       ___acrt_getptd             100152d0 f   libucrt:per_thread_data.obj
 0001:00014384       ___acrt_getptd_head        10015384 f   libucrt:per_thread_data.obj
 0001:0001441e       ___acrt_getptd_noexit      1001541e f   libucrt:per_thread_data.obj
 0001:000144d1       ___acrt_initialize_ptd     100154d1 f   libucrt:per_thread_data.obj
 0001:000144fd       ___acrt_uninitialize_ptd   100154fd f   libucrt:per_thread_data.obj
 0001:00014517       __calloc_base              10015517 f   libucrt:calloc_base.obj
 0001:00014574       __malloc_base              10015574 f   libucrt:malloc_base.obj
 0001:000145c2       __msize                    100155c2 f   libucrt:msize.obj
 0001:000145cd       __msize_base               100155cd f   libucrt:msize.obj
 0001:00014600       __realloc_base             10015600 f   libucrt:realloc_base.obj
 0001:000147e7       ___acrt_AppPolicyGetProcessTerminationMethodInternal@4 100157e7 f   libucrt:winapi_thunks.obj
 0001:0001483e       ___acrt_FlsAlloc@4         1001583e f   libucrt:winapi_thunks.obj
 0001:00014894       ___acrt_FlsFree@4          10015894 f   libucrt:winapi_thunks.obj
 0001:000148ea       ___acrt_FlsGetValue@4      100158ea f   libucrt:winapi_thunks.obj
 0001:00014940       ___acrt_FlsSetValue@8      10015940 f   libucrt:winapi_thunks.obj
 0001:00014999       ___acrt_InitializeCriticalSectionEx@12 10015999 f   libucrt:winapi_thunks.obj
 0001:000149fb       ___acrt_LCMapStringEx@36   100159fb f   libucrt:winapi_thunks.obj
 0001:00014a6f       ___acrt_LocaleNameToLCID@8 10015a6f f   libucrt:winapi_thunks.obj
 0001:00014ab7       ___acrt_SetThreadStackGuarantee@4 10015ab7 f   libucrt:winapi_thunks.obj
 0001:00014b09       ___acrt_initialize_winapi_thunks 10015b09 f   libucrt:winapi_thunks.obj
 0001:00014b2f       ___acrt_uninitialize_winapi_thunks 10015b2f f   libucrt:winapi_thunks.obj
 0001:00014b65       __isdigit_l                10015b65 f i libucrt:_ctype.obj
 0001:00014b9d       _isdigit                   10015b9d f i libucrt:_ctype.obj
 0001:00014d31       __tolower_l                10015d31 f   libucrt:tolower_toupper.obj
 0001:00014d4b       _tolower                   10015d4b f   libucrt:tolower_toupper.obj
 0001:00014d7b       ??$make_c_string_character_source@_WPAPA_W@__crt_strtox@@YA?AV?$c_string_character_source@_W@0@QB_WQAPA_W@Z 10015d7b f i libucrt:strtox.obj
 0001:00014d96       _wcstol                    10015d96 f   libucrt:strtox.obj
 0001:00014dc2       __mbtowc_l                 10015dc2 f   libucrt:mbtowc.obj
 0001:00014ebc       _mbtowc                    10015ebc f   libucrt:mbtowc.obj
 0001:00014ed6       _wcsnlen                   10015ed6 f   libucrt:strnlen.obj
 0001:0001508d       ___acrt_update_locale_info 1001608d f   libucrt:locale_update.obj
 0001:000150ba       ___acrt_update_multibyte_info 100160ba f   libucrt:locale_update.obj
 0001:000150e7       ?__acrt_fp_classify@@YA?AW4__acrt_fp_class@@ABN@Z 100160e7 f i libucrt:cvt.obj
 0001:0001514f       ?__acrt_fp_is_negative@@YA_NABN@Z 1001614f f i libucrt:cvt.obj
 0001:000159bf       ___acrt_fp_format          100169bf f   libucrt:cvt.obj
 0001:00015b09       __fileno                   10016b09 f   libucrt:fileno.obj
 0001:00015b2f       ___acrt_initialize_stdio   10016b2f f   libucrt:_file.obj
 0001:00015bf7       ___acrt_uninitialize_stdio 10016bf7 f   libucrt:_file.obj
 0001:00015c43       __lock_file                10016c43 f   libucrt:_file.obj
 0001:00015c57       __unlock_file              10016c57 f   libucrt:_file.obj
 0001:00015c6b       __get_printf_count_output  10016c6b f   libucrt:printf_count_output.obj
 0001:00015c80       ??$?RV<lambda_e5124f882df8998aaf41531e079ba474>@@AAV<lambda_3e16ef9562a7dcce91392c22ab16ea36>@@V<lambda_e25ca0880e6ef98be67edffd8c599615>@@@?$__crt_seh_guarded_call@X@@QAEX$$QAV<lambda_e5124f882df8998aaf41531e079ba474>@@AAV<lambda_3e16ef9562a7dcce91392c22ab16ea36>@@$$QAV<lambda_e25ca0880e6ef98be67edffd8c599615>@@@Z 10016c80 f i libucrt:wsetlocale.obj
 0001:00015cc9       ??$__acrt_lock_and_call@V<lambda_3e16ef9562a7dcce91392c22ab16ea36>@@@@YAXW4__acrt_lock_id@@$$QAV<lambda_3e16ef9562a7dcce91392c22ab16ea36>@@@Z 10016cc9 f i libucrt:wsetlocale.obj
 0001:00015cf1       ??$uninitialize@V<lambda_88ce03f932007f29bf8b8056cbaba4f3>@@@?$dual_state_global@PAU__crt_locale_data@@@__crt_state_management@@QAEX$$QAV<lambda_88ce03f932007f29bf8b8056cbaba4f3>@@@Z 10016cf1 f i libucrt:wsetlocale.obj
 0001:00015d20       ___acrt_set_locale_changed 10016d20 f   libucrt:wsetlocale.obj
 0001:00015d2b       ___acrt_uninitialize_locale 10016d2b f   libucrt:wsetlocale.obj
 0001:00015eac       ___acrt_initialize_lowio   10016eac f   libucrt:ioinit.obj
 0001:00015f02       ___acrt_uninitialize_lowio 10016f02 f   libucrt:ioinit.obj
 0001:00015f2e       ___acrt_initialize_locks   10016f2e f   libucrt:locks.obj
 0001:00015f6f       ___acrt_lock               10016f6f f   libucrt:locks.obj
 0001:00015f86       ___acrt_uninitialize_locks 10016f86 f   libucrt:locks.obj
 0001:00015fb7       ___acrt_unlock             10016fb7 f   libucrt:locks.obj
 0001:00015fce       ___acrt_get_process_end_policy 10016fce f   libucrt:win_policies.obj
 0001:000164a5       ___acrt_expand_narrow_argv_wildcards 100174a5 f   libucrt:argv_wildcards.obj
 0001:000164b0       ??$?RV<lambda_ceb1ee4838e85a9d631eb091e2fbe199>@@AAV<lambda_ae742caa10f662c28703da3d2ea5e57e>@@V<lambda_cd08b5d6af4937fe54fc07d0c9bf6b37>@@@?$__crt_seh_guarded_call@X@@QAEX$$QAV<lambda_ceb1ee4838e85a9d631eb091e2fbe199>@@AAV<lambda_ae742caa10f662c28703da3d2ea5e57e>@@$$QAV<lambda_cd08b5d6af4937fe54fc07d0c9bf6b37>@@@Z 100174b0 f i libucrt:mbctype.obj
 0001:000164f3       ??$__acrt_lock_and_call@V<lambda_ae742caa10f662c28703da3d2ea5e57e>@@@@YAXW4__acrt_lock_id@@$$QAV<lambda_ae742caa10f662c28703da3d2ea5e57e>@@@Z 100174f3 f i libucrt:mbctype.obj
 0001:000169e8       ___acrt_initialize_multibyte 100179e8 f   libucrt:mbctype.obj
 0001:00016a35       ___acrt_update_thread_multibyte_data 10017a35 f   libucrt:mbctype.obj
 0001:00016a49       __setmbcp_nolock           10017a49 f   libucrt:mbctype.obj
 0001:00016d14       __ismbblead                10017d14 f   libucrt:ismbbyte.obj
 0001:00016d2c       ___acrt_initialize_command_line 10017d2c f   libucrt:argv_data.obj
 0001:00016d7c       ___dcrt_get_narrow_environment_from_os 10017d7c f   libucrt:get_environment_from_os.obj
 0001:00016dff       ___acrt_initialize_heap    10017dff f   libucrt:heap_handle.obj
 0001:00016e10       ___acrt_uninitialize_heap  10017e10 f   libucrt:heap_handle.obj
 0001:00016e1a       ___acrt_execute_initializers 10017e1a f   libucrt:shared_initialization.obj
 0001:00016e9d       ___acrt_execute_uninitializers 10017e9d f   libucrt:shared_initialization.obj
 0001:00016eea       ??$?RV<lambda_cbab9ec6f41b0180b23cc171c22676b0>@@AAV<lambda_44731a7d0e6d81c3e6aa82d741081786>@@V<lambda_4b292cb8dd18144e164572427af410ab>@@@?$__crt_seh_guarded_call@P6AXH@Z@@QAEP6AXH@Z$$QAV<lambda_cbab9ec6f41b0180b23cc171c22676b0>@@AAV<lambda_44731a7d0e6d81c3e6aa82d741081786>@@$$QAV<lambda_4b292cb8dd18144e164572427af410ab>@@@Z 10017eea f i libucrt:signal.obj
 0001:00016f44       ??$__acrt_lock_and_call@V<lambda_44731a7d0e6d81c3e6aa82d741081786>@@@@YAP6AXH@ZW4__acrt_lock_id@@$$QAV<lambda_44731a7d0e6d81c3e6aa82d741081786>@@@Z 10017f44 f i libucrt:signal.obj
 0001:00016fd6       ___acrt_get_sigabrt_handler 10017fd6 f   libucrt:signal.obj
 0001:00016fed       ___acrt_initialize_signal_handlers 10017fed f   libucrt:signal.obj
 0001:00017028       ___fpecode                 10018028 f   libucrt:signal.obj
 0001:00017031       _raise                     10018031 f   libucrt:signal.obj
 0001:00017239       ___acrt_has_user_matherr   10018239 f   libucrt:matherr.obj
 0001:00017252       ___acrt_initialize_user_matherr 10018252 f   libucrt:matherr.obj
 0001:00017266       ___acrt_invoke_user_matherr 10018266 f   libucrt:matherr.obj
 0001:000172af       ___pctype_func             100182af f   libucrt:ctype.obj
 0001:000172d5       _iswctype                  100182d5 f   libucrt:iswctype.obj
 0001:00017334       __isctype_l                10018334 f   libucrt:isctype.obj
 0001:00017406       ___acrt_add_locale_ref     10018406 f   libucrt:locale_refcounting.obj
 0001:00017483       ___acrt_free_locale        10018483 f   libucrt:locale_refcounting.obj
 0001:000175cd       ___acrt_locale_add_lc_time_reference 100185cd f   libucrt:locale_refcounting.obj
 0001:000175f6       ___acrt_locale_free_lc_time_if_unreferenced 100185f6 f   libucrt:locale_refcounting.obj
 0001:00017626       ___acrt_locale_release_lc_time_reference 10018626 f   libucrt:locale_refcounting.obj
 0001:0001764f       ___acrt_release_locale_ref 1001864f f   libucrt:locale_refcounting.obj
 0001:000176d0       ___acrt_update_thread_locale_data 100186d0 f   libucrt:locale_refcounting.obj
 0001:00017747       __updatetlocinfoEx_nolock  10018747 f   libucrt:locale_refcounting.obj
 0001:00017797       __query_new_mode           10018797 f   libucrt:new_mode.obj
 0001:00017859       ___acrt_DownlevelLocaleNameToLCID 10018859 f   libucrt:lcidtoname_downlevel.obj
 0001:00017885       __isleadbyte_l             10018885 f i libucrt:_wctype.obj
 0001:00017adb       ___acrt_LCMapStringA       10018adb f   libucrt:lcmapstringa.obj
 0001:00017b26       __freea_crt                10018b26 f i libucrt:lcmapstringa.obj
 0001:00017b46       ___acrt_fp_strflt_to_string 10018b46 f   libucrt:_fptostr.obj
 0001:00017c10       ?divide@__crt_strtox@@YA_KAAUbig_integer@1@ABU21@@Z 10018c10 f i libucrt:cfout.obj
 0001:000180be       ___acrt_fltout             100190be f   libucrt:cfout.obj
 0001:000194b2       __fcloseall                1001a4b2 f   libucrt:closeall.obj
 0001:00019552       ??$?RV<lambda_2866be3712abc81a800a822484c830d8>@@AAV<lambda_39ca0ed439415581b5b15c265174cece>@@V<lambda_2b24c74d71094a6cd0cb82e44167d71b>@@@?$__crt_seh_guarded_call@X@@QAEX$$QAV<lambda_2866be3712abc81a800a822484c830d8>@@AAV<lambda_39ca0ed439415581b5b15c265174cece>@@$$QAV<lambda_2b24c74d71094a6cd0cb82e44167d71b>@@@Z 1001a552 f i libucrt:fflush.obj
 0001:000195d3       ??$?RV<lambda_2cc53f568c5a2bb6f192f930a45d44ea>@@AAV<lambda_ab61a845afdef5b7c387490eaf3616ee>@@V<lambda_c2ffc0b7726aa6be21d5f0026187e748>@@@?$__crt_seh_guarded_call@X@@QAEX$$QAV<lambda_2cc53f568c5a2bb6f192f930a45d44ea>@@AAV<lambda_ab61a845afdef5b7c387490eaf3616ee>@@$$QAV<lambda_c2ffc0b7726aa6be21d5f0026187e748>@@@Z 1001a5d3 f i libucrt:fflush.obj
 0001:00019666       ??$__acrt_lock_and_call@V<lambda_ab61a845afdef5b7c387490eaf3616ee>@@@@YAXW4__acrt_lock_id@@$$QAV<lambda_ab61a845afdef5b7c387490eaf3616ee>@@@Z 1001a666 f i libucrt:fflush.obj
 0001:0001968e       ??$__acrt_lock_stream_and_call@V<lambda_39ca0ed439415581b5b15c265174cece>@@@@YAXQAU_iobuf@@$$QAV<lambda_39ca0ed439415581b5b15c265174cece>@@@Z 1001a68e f i libucrt:fflush.obj
 0001:0001974a       ___acrt_stdio_flush_nolock 1001a74a f   libucrt:fflush.obj
 0001:000197ad       __fflush_nolock            1001a7ad f   libucrt:fflush.obj
 0001:000197f4       __flushall                 1001a7f4 f   libucrt:fflush.obj
 0001:000197fd       ___acrt_stdio_free_buffer_nolock 1001a7fd f   libucrt:_freebuf.obj
 0001:0001983b       __isatty                   1001a83b f   libucrt:isatty.obj
 0001:00019891       ___acrt_locale_free_monetary 1001a891 f   libucrt:initmon.obj
 0001:0001998f       ___acrt_locale_free_numeric 1001a98f f   libucrt:initnum.obj
 0001:00019a34       ___acrt_locale_free_time   1001aa34 f   libucrt:inittime.obj
 0001:00019b18       ___acrt_GetStringTypeA     1001ab18 f   libucrt:getstringtypea.obj
 0001:00019c35       ___acrt_lowio_create_handle_array 1001ac35 f   libucrt:osfinfo.obj
 0001:00019caf       ___acrt_lowio_destroy_handle_array 1001acaf f   libucrt:osfinfo.obj
 0001:00019ce4       ___acrt_lowio_ensure_fh_exists 1001ace4 f   libucrt:osfinfo.obj
 0001:00019d7c       ___acrt_lowio_lock_fh      1001ad7c f   libucrt:osfinfo.obj
 0001:00019d9f       ___acrt_lowio_unlock_fh    1001ad9f f   libucrt:osfinfo.obj
 0001:00019dc2       __free_osfhnd              1001adc2 f   libucrt:osfinfo.obj
 0001:00019e53       __get_osfhandle            1001ae53 f   libucrt:osfinfo.obj
 0001:00019fa0       _qsort                     1001afa0 f   libucrt:qsort.obj
 0001:0001a3eb       _strncpy_s                 1001b3eb f   libucrt:strncpy_s.obj
 0001:0001a400       _strpbrk                   1001b400 f   libucrt:strpbrk.obj
 0001:0001a440       __mbsdec                   1001b440 f   libucrt:mbsdec.obj
 0001:0001a457       __mbsdec_l                 1001b457 f   libucrt:mbsdec.obj
 0001:0001a4f3       ___strncnt                 1001b4f3 f   libucrt:strncnt.obj
 0001:0001a50f       _fegetenv                  1001b50f f   libucrt:fegetenv.obj
 0001:0001a52c       _fesetenv                  1001b52c f   libucrt:fesetenv.obj
 0001:0001a575       _feholdexcept              1001b575 f   libucrt:feholdexcept.obj
 0001:0001a5d0       _log10                     1001b5d0 f   libucrt:log10.obj
 0001:0001a610       __CIlog10                  1001b610 f   libucrt:log10.obj
 0001:0001a64b       __CIlog10_default          1001b64b f   libucrt:log10.obj
 0001:0001a65f       __log10_default            1001b65f     libucrt:log10.obj
 0001:0001a720       _ceil                      1001b720 f   libucrt:ceil_pentium4.obj
 0001:0001a760       __ceil_pentium4            1001b760 f   libucrt:ceil_pentium4.obj
 0001:0001addf       __write                    1001bddf f   libucrt:write.obj
 0001:0001aeca       __write_nolock             1001beca f   libucrt:write.obj
 0001:0001b161       __lseeki64_nolock          1001c161 f   libucrt:lseek.obj
 0001:0001b17c       __fclose_nolock            1001c17c f   libucrt:fclose.obj
 0001:0001b1f2       _fclose                    1001c1f2 f   libucrt:fclose.obj
 0001:0001b272       ??$?RV<lambda_9e9de3de5fa147e2223d7db92bc10aa6>@@AAV<lambda_38ce7e780aa69e748d6df282ebc68efe>@@V<lambda_8ca6da459f0f6780f1cff60fdc3d00e5>@@@?$__crt_seh_guarded_call@H@@QAEH$$QAV<lambda_9e9de3de5fa147e2223d7db92bc10aa6>@@AAV<lambda_38ce7e780aa69e748d6df282ebc68efe>@@$$QAV<lambda_8ca6da459f0f6780f1cff60fdc3d00e5>@@@Z 1001c272 f i libucrt:commit.obj
 0001:0001b30a       ??$__acrt_lowio_lock_fh_and_call@V<lambda_38ce7e780aa69e748d6df282ebc68efe>@@@@YAHH$$QAV<lambda_38ce7e780aa69e748d6df282ebc68efe>@@@Z 1001c30a f i libucrt:commit.obj
 0001:0001b332       __commit                   1001c332 f   libucrt:commit.obj
 0001:0001b3a1       __query_app_type           1001c3a1 f   libucrt:report_runtime_error.obj
 0001:0001b64a       __getfpcontrolword         1001c64a f   libucrt:_fenvutils.obj
 0001:0001b68d       __getfpstatusword          1001c68d f   libucrt:_fenvutils.obj
 0001:0001b735       __setfpcontrolword         1001c735 f   libucrt:_fenvutils.obj
 0001:0001b7b5       __setfpstatusword          1001c7b5 f   libucrt:_fenvutils.obj
 0001:0001b835       __clearfp                  1001c835 f   libucrt:ieee87.obj
 0001:0001b913       ___acrt_initialize_sse2    1001c913 f   libucrt:mathfcns.obj
 0001:0001b930       __CIlog10_pentium4         1001c930 f   libucrt:log10_pentium4.obj
 0001:0001b948       __log10_pentium4           1001c948     libucrt:log10_pentium4.obj
 0001:0001bbd1       __fFEXP                    1001cbd1     libucrt:87tran.obj
 0001:0001bc28       __rtinfpopse               1001cc28     libucrt:87tran.obj
 0001:0001bc2a       __rtinfnpopse              1001cc2a     libucrt:87tran.obj
 0001:0001bc3a       __fFLN                     1001cc3a     libucrt:87tran.obj
 0001:0001bcef       __rtinfpop                 1001ccef     libucrt:87tran.obj
 0001:0001bcf1       __rtinfnpop                1001ccf1     libucrt:87tran.obj
 0001:0001bd0e       __ffexpm1                  1001cd0e     libucrt:87tran.obj
 0001:0001bdc0       __trandisp1                1001cdc0 f   libucrt:87disp.obj
 0001:0001be27       __trandisp2                1001ce27 f   libucrt:87disp.obj
 0001:0001beb3       __rttospopde               1001ceb3     libucrt:87disp.obj
 0001:0001beb8       __rttospop                 1001ceb8     libucrt:87disp.obj
 0001:0001beba       __rtnospop                 1001ceba     libucrt:87disp.obj
 0001:0001bebc       __rttosnpop                1001cebc     libucrt:87disp.obj
 0001:0001bebd       __rtnospopde               1001cebd     libucrt:87disp.obj
 0001:0001bec4       __rtzeropop                1001cec4     libucrt:87disp.obj
 0001:0001bec6       __rtzeronpop               1001cec6     libucrt:87disp.obj
 0001:0001becb       __rtzerospop               1001cecb     libucrt:87disp.obj
 0001:0001bed8       __rtonepop                 1001ced8     libucrt:87disp.obj
 0001:0001beda       __rtonenpop                1001ceda     libucrt:87disp.obj
 0001:0001bedf       __tosnan1                  1001cedf     libucrt:87disp.obj
 0001:0001bf0a       __nosnan2                  1001cf0a     libucrt:87disp.obj
 0001:0001bf0c       __tosnan2                  1001cf0c     libucrt:87disp.obj
 0001:0001bf34       __nan2                     1001cf34     libucrt:87disp.obj
 0001:0001bf73       __rtindfpop                1001cf73     libucrt:87disp.obj
 0001:0001bf75       __rtindfnpop               1001cf75     libucrt:87disp.obj
 0001:0001bf86       __rttosnpopde              1001cf86     libucrt:87disp.obj
 0001:0001bf90       __rtatan2inf               1001cf90     libucrt:87disp.obj
 0001:0001bfad       __rtchsifneg               1001cfad     libucrt:87disp.obj
 0001:0001bfc0       __twoToTOS                 1001cfc0 f   libucrt:common.obj
 0001:0001bfd5       __load_CW                  1001cfd5 f   libucrt:common.obj
 0001:0001bfec       __convertTOStoQNaN         1001cfec f   libucrt:common.obj
 0001:0001c005       __fload_withFB             1001d005 f   libucrt:common.obj
 0001:0001c048       __checkTOS_withFB          1001d048 f   libucrt:common.obj
 0001:0001c05e       __fast_exit                1001d05e f   libucrt:common.obj
 0001:0001c06b       __math_exit                1001d06b f   libucrt:common.obj
 0001:0001c095       __check_overflow_exit      1001d095 f   libucrt:common.obj
 0001:0001c0a9       __check_range_exit         1001d0a9 f   libucrt:common.obj
 0001:0001c150       __startTwoArgErrorHandling 1001d150 f   libucrt:genexcep.obj
 0001:0001c167       __startOneArgErrorHandling 1001d167 f   libucrt:genexcep.obj
 0001:0001c1a3       ___libm_error_support      1001d1a3 f   libucrt:libm_error.obj
 0001:0001c3bb       __ceil_default             1001d3bb f   libucrt:ceil.obj
 0001:0001c474       __putwch_nolock            1001d474 f   libucrt:putwch.obj
 0001:0001c4b9       ??$?RV<lambda_218ce3db14220d0be481dae8ef3383b6>@@AAV<lambda_628dfdc04ba53c8bfc02c9951375f3f5>@@V<lambda_57dc472bd5c9d5f3b2cbca59b8a843ae>@@@?$__crt_seh_guarded_call@H@@QAEH$$QAV<lambda_218ce3db14220d0be481dae8ef3383b6>@@AAV<lambda_628dfdc04ba53c8bfc02c9951375f3f5>@@$$QAV<lambda_57dc472bd5c9d5f3b2cbca59b8a843ae>@@@Z 1001d4b9 f i libucrt:close.obj
 0001:0001c53b       ??$__acrt_lowio_lock_fh_and_call@V<lambda_628dfdc04ba53c8bfc02c9951375f3f5>@@@@YAHH$$QAV<lambda_628dfdc04ba53c8bfc02c9951375f3f5>@@@Z 1001d53b f i libucrt:close.obj
 0001:0001c563       __close                    1001d563 f   libucrt:close.obj
 0001:0001c5e2       __close_nolock             1001d5e2 f   libucrt:close.obj
 0001:0001c67e       ?__acrt_stdio_free_stream@@YAXV__crt_stdio_stream@@@Z 1001d67e f   libucrt:stream.obj
 0001:0001c6c0       ___ascii_strnicmp          1001d6c0 f   libucrt:_strnicm.obj
 0001:0001c721       __clrfp                    1001d721 f   libucrt:fpctrl.obj
 0001:0001c734       __ctrlfp                   1001d734 f   libucrt:fpctrl.obj
 0001:0001c760       __set_statfp               1001d760 f   libucrt:fpctrl.obj
 0001:0001c7bb       __statfp                   1001d7bb f   libucrt:fpctrl.obj
 0001:0001c7cd       __d_inttype                1001d7cd f   libucrt:powhlp.obj
 0001:0001c837       __powhlp                   1001d837 f   libucrt:powhlp.obj
 0001:0001c962       __87except                 1001d962 f   libucrt:87except.obj
 0001:0001ca6d       __frnd                     1001da6d f   libucrt:frnd.obj
 0001:0001ca83       __errcode                  1001da83 f   libucrt:fpexcept.obj
 0001:0001cab7       __except1                  1001dab7 f   libucrt:fpexcept.obj
 0001:0001cb85       __handle_exc               1001db85 f   libucrt:fpexcept.obj
 0001:0001cd65       __raise_exc                1001dd65 f   libucrt:fpexcept.obj
 0001:0001cd88       __raise_exc_ex             1001dd88 f   libucrt:fpexcept.obj
 0001:0001d079       __set_errno_from_matherr   1001e079 f   libucrt:fpexcept.obj
 0001:0001d0a8       __umatherr                 1001e0a8 f   libucrt:fpexcept.obj
 0001:0001d14a       __decomp                   1001e14a f   libucrt:util.obj
 0001:0001d21e       __set_exp                  1001e21e f   libucrt:util.obj
 0001:0001d24d       __sptype                   1001e24d f   libucrt:util.obj
 0001:0001d2ab       ___dcrt_lowio_initialize_console_output 1001e2ab f   libucrt:initcon.obj
 0001:0001d2ca       ___dcrt_terminate_console_output 1001e2ca f   libucrt:initcon.obj
 0001:0001d2e1       __fpclass                  1001e2e1 f   libucrt:ieeemisc.obj
 0001:0001d385       _IsProcessorFeaturePresent@4 1001e385 f   kernel32:KERNEL32.dll
 0001:0001d390       __FindPESection            1001e390 f   LIBCMT:pesect.obj
 0001:0001d3e0       __IsNonwritableInCurrentImage 1001e3e0 f   LIBCMT:pesect.obj
 0001:0001d4a0       __ValidateImageBase        1001e4a0 f   LIBCMT:pesect.obj
 0001:0001d4d3       __EH_prolog3_catch         1001e4d3 f   LIBCMT:ehprolg3.obj
 0001:0001d510       __aulldvrm                 1001e510 f   LIBCMT:ulldvrm.obj
 0001:0001d5b0       __allmul                   1001e5b0 f   LIBCMT:llmul.obj
 0001:0001d5f0       __alldvrm                  1001e5f0 f   LIBCMT:lldvrm.obj
 0001:0001d6d0       __aullshr                  1001e6d0 f   LIBCMT:ullshr.obj
 0001:0001d6f0       __allshl                   1001e6f0 f   LIBCMT:llshl.obj
 0001:0001d710       __ftol2_sse                1001e710 f   LIBCMT:_ftol2_.obj
 0001:0001d719       __ftol2_pentium4           1001e719 f   LIBCMT:_ftol2_.obj
 0001:0001d72c       __ftol2_sse_excpt          1001e72c f   LIBCMT:_ftol2_.obj
 0001:0001d750       __ftol2                    1001e750 f   LIBCMT:_ftol2_.obj
 0001:0001d7d0       _strrchr                   1001e7d0 f   libvcruntime:strrchr.obj
 0001:0001d910       _strchr                    1001e910 f   libvcruntime:strchr.obj
 0001:0001d97e       ___from_strstr_to_strchr   1001e97e     libvcruntime:strchr.obj
 0002:00000000       __imp__RegQueryValueExW@24 1001f000     advapi32:ADVAPI32.dll
 0002:00000004       __imp__RegSetValueExW@24   1001f004     advapi32:ADVAPI32.dll
 0002:00000008       __imp__RegQueryInfoKeyW@48 1001f008     advapi32:ADVAPI32.dll
 0002:0000000c       __imp__RegOpenKeyExW@20    1001f00c     advapi32:ADVAPI32.dll
 0002:00000010       __imp__RegEnumKeyExW@32    1001f010     advapi32:ADVAPI32.dll
 0002:00000014       __imp__RegDeleteValueW@8   1001f014     advapi32:ADVAPI32.dll
 0002:00000018       __imp__RegDeleteKeyW@8     1001f018     advapi32:ADVAPI32.dll
 0002:0000001c       __imp__RegCreateKeyExW@36  1001f01c     advapi32:ADVAPI32.dll
 0002:00000020       __imp__RegCloseKey@4       1001f020     advapi32:ADVAPI32.dll
 0002:00000024       \177ADVAPI32_NULL_THUNK_DATA 1001f024     advapi32:ADVAPI32.dll
 0002:00000028       __imp__GetObjectW@12       1001f028     gdi32:GDI32.dll
 0002:0000002c       __imp__SelectObject@8      1001f02c     gdi32:GDI32.dll
 0002:00000030       __imp__DeleteObject@4      1001f030     gdi32:GDI32.dll
 0002:00000034       __imp__CreateCompatibleDC@4 1001f034     gdi32:GDI32.dll
 0002:00000038       __imp__BitBlt@36           1001f038     gdi32:GDI32.dll
 0002:0000003c       __imp__SetWindowOrgEx@16   1001f03c     gdi32:GDI32.dll
 0002:00000040       __imp__SetWindowExtEx@16   1001f040     gdi32:GDI32.dll
 0002:00000044       __imp__SetViewportOrgEx@16 1001f044     gdi32:GDI32.dll
 0002:00000048       __imp__LPtoDP@12           1001f048     gdi32:GDI32.dll
 0002:0000004c       __imp__SetMapMode@8        1001f04c     gdi32:GDI32.dll
 0002:00000050       __imp__SaveDC@4            1001f050     gdi32:GDI32.dll
 0002:00000054       __imp__RestoreDC@8         1001f054     gdi32:GDI32.dll
 0002:00000058       __imp__GetDeviceCaps@8     1001f058     gdi32:GDI32.dll
 0002:0000005c       __imp__DeleteMetaFile@4    1001f05c     gdi32:GDI32.dll
 0002:00000060       __imp__DeleteDC@4          1001f060     gdi32:GDI32.dll
 0002:00000064       __imp__CreateRectRgnIndirect@4 1001f064     gdi32:GDI32.dll
 0002:00000068       __imp__CreateMetaFileW@4   1001f068     gdi32:GDI32.dll
 0002:0000006c       __imp__CreateDCW@16        1001f06c     gdi32:GDI32.dll
 0002:00000070       __imp__CloseMetaFile@4     1001f070     gdi32:GDI32.dll
 0002:00000074       \177GDI32_NULL_THUNK_DATA  1001f074     gdi32:GDI32.dll
 0002:00000078       __imp__CloseHandle@4       1001f078     kernel32:KERNEL32.dll
 0002:0000007c       __imp__SetEvent@4          1001f07c     kernel32:KERNEL32.dll
 0002:00000080       __imp__CreateMutexW@12     1001f080     kernel32:KERNEL32.dll
 0002:00000084       __imp__CreateEventW@16     1001f084     kernel32:KERNEL32.dll
 0002:00000088       __imp__GetCurrentProcessId@0 1001f088     kernel32:KERNEL32.dll
 0002:0000008c       __imp__WriteConsoleW@20    1001f08c     kernel32:KERNEL32.dll
 0002:00000090       __imp__FlushFileBuffers@4  1001f090     kernel32:KERNEL32.dll
 0002:00000094       __imp__SetFilePointerEx@20 1001f094     kernel32:KERNEL32.dll
 0002:00000098       __imp__GetConsoleMode@8    1001f098     kernel32:KERNEL32.dll
 0002:0000009c       __imp__GetConsoleCP@0      1001f09c     kernel32:KERNEL32.dll
 0002:000000a0       __imp__WriteFile@20        1001f0a0     kernel32:KERNEL32.dll
 0002:000000a4       __imp__SetStdHandle@8      1001f0a4     kernel32:KERNEL32.dll
 0002:000000a8       __imp__GetStringTypeW@16   1001f0a8     kernel32:KERNEL32.dll
 0002:000000ac       __imp__FreeEnvironmentStringsW@4 1001f0ac     kernel32:KERNEL32.dll
 0002:000000b0       __imp__GetEnvironmentStringsW@0 1001f0b0     kernel32:KERNEL32.dll
 0002:000000b4       __imp__GetCommandLineW@0   1001f0b4     kernel32:KERNEL32.dll
 0002:000000b8       __imp__lstrcmpiW@8         1001f0b8     kernel32:KERNEL32.dll
 0002:000000bc       __imp__GetCPInfo@8         1001f0bc     kernel32:KERNEL32.dll
 0002:000000c0       __imp__GetOEMCP@0          1001f0c0     kernel32:KERNEL32.dll
 0002:000000c4       __imp__IsValidCodePage@4   1001f0c4     kernel32:KERNEL32.dll
 0002:000000c8       __imp__FindNextFileA@8     1001f0c8     kernel32:KERNEL32.dll
 0002:000000cc       __imp__FindFirstFileExA@24 1001f0cc     kernel32:KERNEL32.dll
 0002:000000d0       __imp__FindClose@4         1001f0d0     kernel32:KERNEL32.dll
 0002:000000d4       __imp__GetFileType@4       1001f0d4     kernel32:KERNEL32.dll
 0002:000000d8       __imp__GetStdHandle@4      1001f0d8     kernel32:KERNEL32.dll
 0002:000000dc       __imp__GetACP@0            1001f0dc     kernel32:KERNEL32.dll
 0002:000000e0       __imp__LCMapStringW@24     1001f0e0     kernel32:KERNEL32.dll
 0002:000000e4       __imp__HeapReAlloc@16      1001f0e4     kernel32:KERNEL32.dll
 0002:000000e8       __imp__HeapSize@12         1001f0e8     kernel32:KERNEL32.dll
 0002:000000ec       __imp__MulDiv@12           1001f0ec     kernel32:KERNEL32.dll
 0002:000000f0       __imp__GlobalUnlock@4      1001f0f0     kernel32:KERNEL32.dll
 0002:000000f4       __imp__GlobalLock@4        1001f0f4     kernel32:KERNEL32.dll
 0002:000000f8       __imp__GlobalAlloc@8       1001f0f8     kernel32:KERNEL32.dll
 0002:000000fc       __imp__FindResourceW@12    1001f0fc     kernel32:KERNEL32.dll
 0002:00000100       __imp__SizeofResource@8    1001f100     kernel32:KERNEL32.dll
 0002:00000104       __imp__LoadResource@8      1001f104     kernel32:KERNEL32.dll
 0002:00000108       __imp__LoadLibraryExW@12   1001f108     kernel32:KERNEL32.dll
 0002:0000010c       __imp__GetProcAddress@8    1001f10c     kernel32:KERNEL32.dll
 0002:00000110       __imp__GetModuleHandleW@4  1001f110     kernel32:KERNEL32.dll
 0002:00000114       __imp__GetModuleFileNameW@12 1001f114     kernel32:KERNEL32.dll
 0002:00000118       __imp__FreeLibrary@4       1001f118     kernel32:KERNEL32.dll
 0002:0000011c       __imp__DisableThreadLibraryCalls@4 1001f11c     kernel32:KERNEL32.dll
 0002:00000120       __imp__GetCurrentThreadId@0 1001f120     kernel32:KERNEL32.dll
 0002:00000124       __imp__Sleep@4             1001f124     kernel32:KERNEL32.dll
 0002:00000128       __imp__WaitForSingleObject@8 1001f128     kernel32:KERNEL32.dll
 0002:0000012c       __imp__ReleaseMutex@4      1001f12c     kernel32:KERNEL32.dll
 0002:00000130       __imp__ResetEvent@4        1001f130     kernel32:KERNEL32.dll
 0002:00000134       __imp__EnterCriticalSection@4 1001f134     kernel32:KERNEL32.dll
 0002:00000138       __imp__LeaveCriticalSection@4 1001f138     kernel32:KERNEL32.dll
 0002:0000013c       __imp__SetLastError@4      1001f13c     kernel32:KERNEL32.dll
 0002:00000140       __imp__EncodePointer@4     1001f140     kernel32:KERNEL32.dll
 0002:00000144       __imp__DeleteCriticalSection@4 1001f144     kernel32:KERNEL32.dll
 0002:00000148       __imp__InitializeCriticalSectionAndSpinCount@8 1001f148     kernel32:KERNEL32.dll
 0002:0000014c       __imp__GetLastError@0      1001f14c     kernel32:KERNEL32.dll
 0002:00000150       __imp__RaiseException@16   1001f150     kernel32:KERNEL32.dll
 0002:00000154       __imp__DecodePointer@4     1001f154     kernel32:KERNEL32.dll
 0002:00000158       __imp__WideCharToMultiByte@32 1001f158     kernel32:KERNEL32.dll
 0002:0000015c       __imp__GetCommandLineA@0   1001f15c     kernel32:KERNEL32.dll
 0002:00000160       __imp__MultiByteToWideChar@24 1001f160     kernel32:KERNEL32.dll
 0002:00000164       __imp__CreateFileW@28      1001f164     kernel32:KERNEL32.dll
 0002:00000168       __imp__GetModuleFileNameA@12 1001f168     kernel32:KERNEL32.dll
 0002:0000016c       __imp__GetModuleHandleExW@12 1001f16c     kernel32:KERNEL32.dll
 0002:00000170       __imp__ExitProcess@4       1001f170     kernel32:KERNEL32.dll
 0002:00000174       __imp__VirtualQuery@12     1001f174     kernel32:KERNEL32.dll
 0002:00000178       __imp__VirtualProtect@16   1001f178     kernel32:KERNEL32.dll
 0002:0000017c       __imp__GetSystemInfo@4     1001f17c     kernel32:KERNEL32.dll
 0002:00000180       __imp__TlsFree@4           1001f180     kernel32:KERNEL32.dll
 0002:00000184       __imp__TlsSetValue@8       1001f184     kernel32:KERNEL32.dll
 0002:00000188       __imp__TlsGetValue@4       1001f188     kernel32:KERNEL32.dll
 0002:0000018c       __imp__TlsAlloc@0          1001f18c     kernel32:KERNEL32.dll
 0002:00000190       __imp__InterlockedFlushSList@4 1001f190     kernel32:KERNEL32.dll
 0002:00000194       __imp__RtlUnwind@16        1001f194     kernel32:KERNEL32.dll
 0002:00000198       __imp__LoadLibraryExA@12   1001f198     kernel32:KERNEL32.dll
 0002:0000019c       __imp__VirtualFree@12      1001f19c     kernel32:KERNEL32.dll
 0002:000001a0       __imp__VirtualAlloc@16     1001f1a0     kernel32:KERNEL32.dll
 0002:000001a4       __imp__FlushInstructionCache@12 1001f1a4     kernel32:KERNEL32.dll
 0002:000001a8       __imp__InterlockedPushEntrySList@8 1001f1a8     kernel32:KERNEL32.dll
 0002:000001ac       __imp__InterlockedPopEntrySList@4 1001f1ac     kernel32:KERNEL32.dll
 0002:000001b0       __imp__GetProcessHeap@0    1001f1b0     kernel32:KERNEL32.dll
 0002:000001b4       __imp__HeapFree@12         1001f1b4     kernel32:KERNEL32.dll
 0002:000001b8       __imp__HeapAlloc@12        1001f1b8     kernel32:KERNEL32.dll
 0002:000001bc       __imp__OutputDebugStringW@4 1001f1bc     kernel32:KERNEL32.dll
 0002:000001c0       __imp__InitializeSListHead@4 1001f1c0     kernel32:KERNEL32.dll
 0002:000001c4       __imp__GetSystemTimeAsFileTime@4 1001f1c4     kernel32:KERNEL32.dll
 0002:000001c8       __imp__QueryPerformanceCounter@4 1001f1c8     kernel32:KERNEL32.dll
 0002:000001cc       __imp__GetStartupInfoW@4   1001f1cc     kernel32:KERNEL32.dll
 0002:000001d0       __imp__IsDebuggerPresent@0 1001f1d0     kernel32:KERNEL32.dll
 0002:000001d4       __imp__IsProcessorFeaturePresent@4 1001f1d4     kernel32:KERNEL32.dll
 0002:000001d8       __imp__TerminateProcess@8  1001f1d8     kernel32:KERNEL32.dll
 0002:000001dc       __imp__GetCurrentProcess@0 1001f1dc     kernel32:KERNEL32.dll
 0002:000001e0       __imp__WaitForSingleObjectEx@12 1001f1e0     kernel32:KERNEL32.dll
 0002:000001e4       __imp__UnhandledExceptionFilter@4 1001f1e4     kernel32:KERNEL32.dll
 0002:000001e8       __imp__SetUnhandledExceptionFilter@4 1001f1e8     kernel32:KERNEL32.dll
 0002:000001ec       \177KERNEL32_NULL_THUNK_DATA 1001f1ec     kernel32:KERNEL32.dll
 0002:000001f0       __imp__OleCreatePropertyFrame@44 1001f1f0     oleaut32:OLEAUT32.dll
 0002:000001f4       __imp__UnRegisterTypeLib@20 1001f1f4     oleaut32:OLEAUT32.dll
 0002:000001f8       __imp__RegisterTypeLib@12  1001f1f8     oleaut32:OLEAUT32.dll
 0002:000001fc       __imp__LoadRegTypeLib@20   1001f1fc     oleaut32:OLEAUT32.dll
 0002:00000200       __imp__LoadTypeLib@8       1001f200     oleaut32:OLEAUT32.dll
 0002:00000204       __imp__VarUI4FromStr@16    1001f204     oleaut32:OLEAUT32.dll
 0002:00000208       __imp__VariantInit@4       1001f208     oleaut32:OLEAUT32.dll
 0002:0000020c       __imp__SysAllocStringByteLen@8 1001f20c     oleaut32:OLEAUT32.dll
 0002:00000210       __imp__SysStringByteLen@4  1001f210     oleaut32:OLEAUT32.dll
 0002:00000214       __imp__VariantChangeType@16 1001f214     oleaut32:OLEAUT32.dll
 0002:00000218       __imp__VariantClear@4      1001f218     oleaut32:OLEAUT32.dll
 0002:0000021c       __imp__SysStringLen@4      1001f21c     oleaut32:OLEAUT32.dll
 0002:00000220       __imp__SysFreeString@4     1001f220     oleaut32:OLEAUT32.dll
 0002:00000224       __imp__SysAllocStringLen@8 1001f224     oleaut32:OLEAUT32.dll
 0002:00000228       __imp__SysAllocString@4    1001f228     oleaut32:OLEAUT32.dll
 0002:0000022c       \177OLEAUT32_NULL_THUNK_DATA 1001f22c     oleaut32:OLEAUT32.dll
 0002:00000230       __imp__UnregisterClassW@8  1001f230     user32:USER32.dll
 0002:00000234       __imp__PostMessageW@16     1001f234     user32:USER32.dll
 0002:00000238       __imp__DefWindowProcW@16   1001f238     user32:USER32.dll
 0002:0000023c       __imp__CallWindowProcW@20  1001f23c     user32:USER32.dll
 0002:00000240       __imp__RegisterClassExW@4  1001f240     user32:USER32.dll
 0002:00000244       __imp__GetClassInfoExW@12  1001f244     user32:USER32.dll
 0002:00000248       __imp__CreateWindowExW@48  1001f248     user32:USER32.dll
 0002:0000024c       __imp__IsWindow@4          1001f24c     user32:USER32.dll
 0002:00000250       __imp__IsChild@8           1001f250     user32:USER32.dll
 0002:00000254       __imp__DestroyWindow@4     1001f254     user32:USER32.dll
 0002:00000258       __imp__ShowWindow@8        1001f258     user32:USER32.dll
 0002:0000025c       __imp__SetWindowPos@28     1001f25c     user32:USER32.dll
 0002:00000260       __imp__CharNextW@4         1001f260     user32:USER32.dll
 0002:00000264       __imp__SetFocus@4          1001f264     user32:USER32.dll
 0002:00000268       __imp__LoadBitmapW@8       1001f268     user32:USER32.dll
 0002:0000026c       __imp__RegisterClassW@4    1001f26c     user32:USER32.dll
 0002:00000270       __imp__PeekMessageW@20     1001f270     user32:USER32.dll
 0002:00000274       __imp__LoadCursorW@8       1001f274     user32:USER32.dll
 0002:00000278       __imp__GetParent@4         1001f278     user32:USER32.dll
 0002:0000027c       __imp__SetWindowLongW@12   1001f27c     user32:USER32.dll
 0002:00000280       __imp__GetWindowLongW@8    1001f280     user32:USER32.dll
 0002:00000284       __imp__PtInRect@12         1001f284     user32:USER32.dll
 0002:00000288       __imp__EqualRect@8         1001f288     user32:USER32.dll
 0002:0000028c       __imp__OffsetRect@12       1001f28c     user32:USER32.dll
 0002:00000290       __imp__UnionRect@12        1001f290     user32:USER32.dll
 0002:00000294       __imp__IntersectRect@12    1001f294     user32:USER32.dll
 0002:00000298       __imp__GetClientRect@8     1001f298     user32:USER32.dll
 0002:0000029c       __imp__InvalidateRect@12   1001f29c     user32:USER32.dll
 0002:000002a0       __imp__SetWindowRgn@12     1001f2a0     user32:USER32.dll
 0002:000002a4       __imp__EndPaint@8          1001f2a4     user32:USER32.dll
 0002:000002a8       __imp__BeginPaint@8        1001f2a8     user32:USER32.dll
 0002:000002ac       __imp__ReleaseDC@8         1001f2ac     user32:USER32.dll
 0002:000002b0       __imp__GetDC@4             1001f2b0     user32:USER32.dll
 0002:000002b4       __imp__GetKeyState@4       1001f2b4     user32:USER32.dll
 0002:000002b8       __imp__GetFocus@0          1001f2b8     user32:USER32.dll
 0002:000002bc       \177USER32_NULL_THUNK_DATA 1001f2bc     user32:USER32.dll
 0002:000002c0       __imp__CoCreateInstance@20 1001f2c0     ole32:ole32.dll
 0002:000002c4       __imp__CoTaskMemAlloc@4    1001f2c4     ole32:ole32.dll
 0002:000002c8       __imp__CoTaskMemRealloc@8  1001f2c8     ole32:ole32.dll
 0002:000002cc       __imp__CoTaskMemFree@4     1001f2cc     ole32:ole32.dll
 0002:000002d0       __imp__ReadClassStm@8      1001f2d0     ole32:ole32.dll
 0002:000002d4       __imp__WriteClassStm@8     1001f2d4     ole32:ole32.dll
 0002:000002d8       __imp__CreateDataAdviseHolder@4 1001f2d8     ole32:ole32.dll
 0002:000002dc       __imp__OleSaveToStream@8   1001f2dc     ole32:ole32.dll
 0002:000002e0       __imp__CreateOleAdviseHolder@4 1001f2e0     ole32:ole32.dll
 0002:000002e4       __imp__OleRegGetUserType@12 1001f2e4     ole32:ole32.dll
 0002:000002e8       __imp__OleRegGetMiscStatus@12 1001f2e8     ole32:ole32.dll
 0002:000002ec       __imp__OleRegEnumVerbs@8   1001f2ec     ole32:ole32.dll
 0002:000002f0       __imp__CLSIDFromProgID@8   1001f2f0     ole32:ole32.dll
 0002:000002f4       __imp__StringFromGUID2@12  1001f2f4     ole32:ole32.dll
 0002:000002f8       \177ole32_NULL_THUNK_DATA  1001f2f8     ole32:ole32.dll
 0002:000002fc       ___guard_check_icall_fptr  1001f2fc     LIBCMT:guard_support.obj
 0002:00000300       ___xc_a                    1001f300     LIBCMT:initializers.obj
 0002:00000318       ___xc_z                    1001f318     LIBCMT:initializers.obj
 0002:0000031c       ___xi_a                    1001f31c     LIBCMT:initializers.obj
 0002:00000324       ___acrt_stdio_initializer  1001f324     libucrt:stdio_initializer.obj
 0002:00000328       ___acrt_multibyte_initializer 1001f328     libucrt:multibyte_initializer.obj
 0002:0000032c       ___acrt_tran_sse2_initializer 1001f32c     libucrt:sse2_initializer.obj
 0002:00000330       ___xi_z                    1001f330     LIBCMT:initializers.obj
 0002:00000334       ___xl_a                    1001f334     LIBCMT:tlssup.obj
 0002:00000338       ___xl_z                    1001f338     LIBCMT:tlssup.obj
 0002:0000033c       ___xp_a                    1001f33c     LIBCMT:initializers.obj
 0002:00000340       ___acrt_locale_terminator  1001f340     libucrt:locale_initializer.obj
 0002:00000344       ___dcrt_console_output_terminator 1001f344     libucrt:console_output_initializer.obj
 0002:00000348       ___acrt_stdio_terminator   1001f348     libucrt:stdio_initializer.obj
 0002:0000034c       ___xp_z                    1001f34c     LIBCMT:initializers.obj
 0002:00000350       ___xt_a                    1001f350     LIBCMT:initializers.obj
 0002:00000354       ___xt_z                    1001f354     LIBCMT:initializers.obj
 0002:00000360       ??_C@_11LOCGONAA@@         1001f360     OposVariant.obj
 0002:00000364       ??_C@_13HADIAKP@?$AAS@     1001f364     OposVariant.obj
 0002:00000368       ??_C@_13LHMFKAAD@?$AAM@    1001f368     OposVariant.obj
 0002:0000036c       ??_C@_13MKMNOPIJ@?$AAD@    1001f36c     OposVariant.obj
 0002:00000370       ??_C@_13OPKGLAFF@?$AAB@    1001f370     OposVariant.obj
 0002:00000374       ??_C@_17LLMMEOJD@?$AAV?$AAa?$AAl@ 1001f374     OposVariant.obj
 0002:0000037c       ??_C@_1BI@JFAIJMHL@?$AAF?$AAo?$AAr?$AAc?$AAe?$AAR?$AAe?$AAm?$AAo?$AAv?$AAe@ 1001f37c     OposVariant.obj
 0002:00000394       ??_C@_1BC@GCKHIPE@?$AAN?$AAo?$AAR?$AAe?$AAm?$AAo?$AAv?$AAe@ 1001f394     OposVariant.obj
 0002:000003a8       ??_C@_1O@JDLOHAN@?$AAD?$AAe?$AAl?$AAe?$AAt?$AAe@ 1001f3a8     OposVariant.obj
 0002:000003b8       __GUID_00000000_0000_0000_c000_000000000046 1001f3b8     CAT.obj
 0002:000003c8       __GUID_00020400_0000_0000_c000_000000000046 1001f3c8     CAT.obj
 0002:000003d8       ??_C@_1M@KANJNLFF@?$AAC?$AAL?$AAS?$AAI?$AAD@ 1001f3d8     CAT.obj
 0002:000003e4       ??_C@_1M@EJNEECMJ@?$AAA?$AAp?$AAp?$AAI?$AAD@ 1001f3e4     CAT.obj
 0002:000003f0       ?rgszNeverDelete@CRegParser@ATL@@1QBQB_WB 1001f3f0     CAT.obj
 0002:00000420       ?_entries@?1??_GetEntries@COPOSCAT@@SGPBU_ATL_INTMAP_ENTRY@ATL@@XZ@4QBU34@B 1001f420     CAT.obj
 0002:00000558       __GUID_cf51ed10_62fe_11cf_bf86_00a0c9034836 1001f558     CAT.obj
 0002:00000568       __GUID_0000010a_0000_0000_c000_000000000046 1001f568     CAT.obj
 0002:00000578       __GUID_b196b283_bab4_101a_b69c_00aa00341d07 1001f578     CAT.obj
 0002:00000588       __GUID_cb5bdc81_93c1_11cf_8f20_00805f2cd064 1001f588     CAT.obj
 0002:00000598       ?pPropMap@?1??GetPropertyMap@COPOSCAT@@SAPBUATL_PROPMAP_ENTRY@ATL@@XZ@4QBU34@B 1001f598     CAT.obj
 0002:00000604       ??_7CRegObject@ATL@@6B@    1001f604     CAT.obj
 0002:0000061c       ??_C@_17DGDADEHL@?$AA_?$AAc?$AAx@ 1001f61c     CAT.obj
 0002:00000624       __GUID_922eada0_3424_11cf_b670_00aa004cd6d8 1001f624     CAT.obj
 0002:00000634       ??_C@_17IOIMFDBO@?$AA_?$AAc?$AAy@ 1001f634     CAT.obj
 0002:0000063c       __GUID_9c2cad80_3424_11cf_b670_00aa004cd6d8 1001f63c     CAT.obj
 0002:0000064c       __GUID_00000119_0000_0000_c000_000000000046 1001f64c     CAT.obj
 0002:0000065c       __GUID_b196b289_bab4_101a_b69c_00aa00341d07 1001f65c     CAT.obj
 0002:0000066c       __GUID_00000117_0000_0000_c000_000000000046 1001f66c     CAT.obj
 0002:0000067c       __GUID_b196b286_bab4_101a_b69c_00aa00341d07 1001f67c     CAT.obj
 0002:0000068c       ??_C@_1CE@PGFMOFKI@?$AAS?$AAt?$AAa?$AAt?$AAu?$AAs?$AAU?$AAp?$AAd?$AAa?$AAt?$AAe?$AAE?$AAv?$AAe@ 1001f68c     CAT.obj
 0002:000006b0       ??_C@_1CI@HLBJDONE@?$AAO?$AAu?$AAt?$AAp?$AAu?$AAt?$AAC?$AAo?$AAm?$AAp?$AAl?$AAe?$AAt?$AAe?$AAE@ 1001f6b0     CAT.obj
 0002:000006d8       ??_C@_1BG@LODEBHDD@?$AAE?$AAr?$AAr?$AAo?$AAr?$AAE?$AAv?$AAe?$AAn?$AAt@ 1001f6d8     CAT.obj
 0002:000006f0       ??_C@_1BM@CBGEBBBJ@?$AAD?$AAi?$AAr?$AAe?$AAc?$AAt?$AAI?$AAO?$AAE?$AAv?$AAe?$AAn?$AAt@ 1001f6f0     CAT.obj
 0002:0000070c       ??_C@_1CK@OEKPKBNA@?$AAC?$AAo?$AAm?$AAp?$AAo?$AAn?$AAe?$AAn?$AAt?$AA?5?$AAC?$AAa?$AAt?$AAe?$AAg@ 1001f70c     CAT.obj
 0002:00000738       ??_C@_1BC@NKMMNMGL@?$AAF?$AAi?$AAl?$AAe?$AAT?$AAy?$AAp?$AAe@ 1001f738     CAT.obj
 0002:0000074c       ??_C@_1BE@EKPAFMCP@?$AAI?$AAn?$AAt?$AAe?$AAr?$AAf?$AAa?$AAc?$AAe@ 1001f74c     CAT.obj
 0002:00000760       ??_C@_1BC@MAICEHGI@?$AAH?$AAa?$AAr?$AAd?$AAw?$AAa?$AAr?$AAe@ 1001f760     CAT.obj
 0002:00000774       ??_C@_19HLLLM@?$AAM?$AAi?$AAm?$AAe@ 1001f774     CAT.obj
 0002:00000780       ??_C@_17OMAOINJK@?$AAS?$AAA?$AAM@ 1001f780     CAT.obj
 0002:00000788       ??_C@_1BC@IBECJAAI@?$AAS?$AAE?$AAC?$AAU?$AAR?$AAI?$AAT?$AAY@ 1001f788     CAT.obj
 0002:0000079c       ??_C@_1O@GBFINDKL@?$AAS?$AAY?$AAS?$AAT?$AAE?$AAM@ 1001f79c     CAT.obj
 0002:000007ac       ??_C@_1BC@EAHCMADO@?$AAS?$AAo?$AAf?$AAt?$AAw?$AAa?$AAr?$AAe@ 1001f7ac     CAT.obj
 0002:000007c0       ??_C@_1BA@JIHHIEDE@?$AAT?$AAy?$AAp?$AAe?$AAL?$AAi?$AAb@ 1001f7c0     CAT.obj
 0002:00000840       ??_C@_19NCHLBIN@?$AAH?$AAK?$AAC?$AAR@ 1001f840     CAT.obj
 0002:0000084c       ??_C@_19JAPAIJDE@?$AAH?$AAK?$AAC?$AAU@ 1001f84c     CAT.obj
 0002:00000858       ??_C@_19PEALEEJB@?$AAH?$AAK?$AAL?$AAM@ 1001f858     CAT.obj
 0002:00000864       ??_C@_17PJOJPMPB@?$AAH?$AAK?$AAU@ 1001f864     CAT.obj
 0002:0000086c       ??_C@_19PNBHMJPL@?$AAH?$AAK?$AAP?$AAD@ 1001f86c     CAT.obj
 0002:00000878       ??_C@_19GFFAIJHG@?$AAH?$AAK?$AAD?$AAD@ 1001f878     CAT.obj
 0002:00000884       ??_C@_19OFICIBHH@?$AAH?$AAK?$AAC?$AAC@ 1001f884     CAT.obj
 0002:00000890       ??_C@_1CE@PACHPJFI@?$AAH?$AAK?$AAE?$AAY?$AA_?$AAC?$AAL?$AAA?$AAS?$AAS?$AAE?$AAS?$AA_?$AAR?$AAO@ 1001f890     CAT.obj
 0002:000008b4       ??_C@_1CE@HLHNCBPM@?$AAH?$AAK?$AAE?$AAY?$AA_?$AAC?$AAU?$AAR?$AAR?$AAE?$AAN?$AAT?$AA_?$AAU?$AAS@ 1001f8b4     CAT.obj
 0002:000008d8       ??_C@_1CG@GFBEANJL@?$AAH?$AAK?$AAE?$AAY?$AA_?$AAL?$AAO?$AAC?$AAA?$AAL?$AA_?$AAM?$AAA?$AAC?$AAH@ 1001f8d8     CAT.obj
 0002:00000900       ??_C@_1BG@BGODANIO@?$AAH?$AAK?$AAE?$AAY?$AA_?$AAU?$AAS?$AAE?$AAR?$AAS@ 1001f900     CAT.obj
 0002:00000918       ??_C@_1CM@KHNNAOIC@?$AAH?$AAK?$AAE?$AAY?$AA_?$AAP?$AAE?$AAR?$AAF?$AAO?$AAR?$AAM?$AAA?$AAN?$AAC@ 1001f918     CAT.obj
 0002:00000944       ??_C@_1BM@HAGMMHIA@?$AAH?$AAK?$AAE?$AAY?$AA_?$AAD?$AAY?$AAN?$AA_?$AAD?$AAA?$AAT?$AAA@ 1001f944     CAT.obj
 0002:00000960       ??_C@_1CI@BBJOACGG@?$AAH?$AAK?$AAE?$AAY?$AA_?$AAC?$AAU?$AAR?$AAR?$AAE?$AAN?$AAT?$AA_?$AAC?$AAO@ 1001f960     CAT.obj
 0002:00000988       ??_C@_1BC@ENICKDH@?$AAC?$AAo?$AAn?$AAt?$AAe?$AAn?$AAt?$AAs@ 1001f988     CAT.obj
 0002:0000099c       ??_7?$CComObject@V?$CComEnum@UIEnumConnectionPoints@@$1?_GUID_b196b285_bab4_101a_b69c_00aa00341d07@@3U__s_GUID@@BPAUIConnectionPoint@@V?$_CopyInterface@UIConnectionPoint@@@ATL@@VCComSingleThreadModel@6@@ATL@@@ATL@@6B@ 1001f99c     CAT.obj
 0002:000009c0       ??_C@_1EA@NHKLICFA@?$AAH?$AAK?$AAC?$AAU?$AA?$AN?$AA?6?$AA?$HL?$AA?7?$AAS?$AAo?$AAf?$AAt?$AAw?$AAa?$AAr@ 1001f9c0     CAT.obj
 0002:00000a00       ??_C@_1BE@LJOLIMEM@?$AA?$AN?$AA?6?$AA?7?$AA?$HN?$AA?$AN?$AA?6?$AA?$HN?$AA?$AN?$AA?6@ 1001fa00     CAT.obj
 0002:00000a14       __GUID_00000109_0000_0000_c000_000000000046 1001fa14     CAT.obj
 0002:00000a24       __GUID_7fd52380_4e07_101b_ae2d_08002b2ec713 1001fa24     CAT.obj
 0002:00000a34       ??_C@_1O@MNLDABAF@?$AAM?$AAo?$AAd?$AAu?$AAl?$AAe@ 1001fa34     CAT.obj
 0002:00000a44       ??_C@_1BG@JBACFMF@?$AAM?$AAo?$AAd?$AAu?$AAl?$AAe?$AA_?$AAR?$AAa?$AAw@ 1001fa44     CAT.obj
 0002:00000a5c       ??_C@_1BC@KAILKFFG@?$AAR?$AAE?$AAG?$AAI?$AAS?$AAT?$AAR?$AAY@ 1001fa5c     CAT.obj
 0002:00000a70       __GUID_0000010e_0000_0000_c000_000000000046 1001fa70     CAT.obj
 0002:00000a80       __GUID_b196b288_bab4_101a_b69c_00aa00341d07 1001fa80     CAT.obj
 0002:00000a90       __GUID_00000113_0000_0000_c000_000000000046 1001fa90     CAT.obj
 0002:00000aa0       __GUID_1c2056cc_5ef4_101b_8bc8_00aa003e3b29 1001faa0     CAT.obj
 0002:00000ab0       __GUID_00000112_0000_0000_c000_000000000046 1001fab0     CAT.obj
 0002:00000ac0       __GUID_3af24292_0c96_11ce_a0cf_00aa00600ab8 1001fac0     CAT.obj
 0002:00000ad0       __GUID_00000127_0000_0000_c000_000000000046 1001fad0     CAT.obj
 0002:00000ae0       __GUID_0000010d_0000_0000_c000_000000000046 1001fae0     CAT.obj
 0002:00000af0       __GUID_b196b284_bab4_101a_b69c_00aa00341d07 1001faf0     CAT.obj
 0002:00000b00       ??_7?$CComObjectCached@VCComClassFactory@ATL@@@ATL@@6B@ 1001fb00     CAT.obj
 0002:00000b18       ??_C@_1M@PPPPCDEP@?$AAA?$AAP?$AAP?$AAI?$AAD@ 1001fb18     CAT.obj
 0002:00000b24       ??_7?$CComContainedObject@VCOPOSCAT@@@ATL@@6B?$IDispatchImpl@UIOPOSCAT@@$1?IID_IOPOSCAT@@3U_GUID@@B$1?LIBID_OposCAT_CCO@@3U3@B$00$0A@VCComTypeInfoHolder@ATL@@@1@@ 1001fb24     CAT.obj
 0002:00000cc0       ??_7?$CComContainedObject@VCOPOSCAT@@@ATL@@6BCComControlBase@1@@ 1001fcc0     CAT.obj
 0002:00000cd4       ??_7?$CComContainedObject@VCOPOSCAT@@@ATL@@6B?$CWindowImpl@VCOPOSCAT@@VCWindow@ATL@@V?$CWinTraits@$0FGAAAAAA@$0A@@3@@1@@ 1001fcd4     CAT.obj
 0002:00000ce4       ??_7?$CComContainedObject@VCOPOSCAT@@@ATL@@6B?$IPersistStreamInitImpl@VCOPOSCAT@@@1@@ 1001fce4     CAT.obj
 0002:00000d08       ??_7?$CComContainedObject@VCOPOSCAT@@@ATL@@6B?$IOleControlImpl@VCOPOSCAT@@@1@@ 1001fd08     CAT.obj
 0002:00000d24       ??_7?$CComContainedObject@VCOPOSCAT@@@ATL@@6B?$IOleObjectImpl@VCOPOSCAT@@@1@@ 1001fd24     CAT.obj
 0002:00000d84       ??_7?$CComContainedObject@VCOPOSCAT@@@ATL@@6B?$IOleInPlaceActiveObjectImpl@VCOPOSCAT@@@1@@ 1001fd84     CAT.obj
 0002:00000dac       ??_7?$CComContainedObject@VCOPOSCAT@@@ATL@@6B?$IViewObjectExImpl@VCOPOSCAT@@@1@@ 1001fdac     CAT.obj
 0002:00000de8       ??_7?$CComContainedObject@VCOPOSCAT@@@ATL@@6B?$IOleInPlaceObjectWindowlessImpl@VCOPOSCAT@@@1@@ 1001fde8     CAT.obj
 0002:00000e14       ??_7?$CComContainedObject@VCOPOSCAT@@@ATL@@6B?$IConnectionPointContainerImpl@VCOPOSCAT@@@1@@ 1001fe14     CAT.obj
 0002:00000e28       ??_7?$CComContainedObject@VCOPOSCAT@@@ATL@@6B?$IPersistStorageImpl@VCOPOSCAT@@@1@@ 1001fe28     CAT.obj
 0002:00000e50       ??_7?$CComContainedObject@VCOPOSCAT@@@ATL@@6B?$ISpecifyPropertyPagesImpl@VCOPOSCAT@@@1@@ 1001fe50     CAT.obj
 0002:00000e60       ??_7?$CComContainedObject@VCOPOSCAT@@@ATL@@6B?$IQuickActivateImpl@VCOPOSCAT@@@1@@ 1001fe60     CAT.obj
 0002:00000e78       ??_7?$CComContainedObject@VCOPOSCAT@@@ATL@@6B?$IDataObjectImpl@VCOPOSCAT@@@1@@ 1001fe78     CAT.obj
 0002:00000ea8       ??_7?$CComContainedObject@VCOPOSCAT@@@ATL@@6B?$IProvideClassInfo2Impl@$1?CLSID_OPOSCAT@@3U_GUID@@B$1?DIID__IOPOSCATEvents@@3U2@B$1?LIBID_OposCAT_CCO@@3U2@B$00$0A@VCComTypeInfoHolder@ATL@@@1@@ 1001fea8     CAT.obj
 0002:00000ebc       ??_7?$CComContainedObject@VCOPOSCAT@@@ATL@@6B?$IObjectSafetyImpl@VCOPOSCAT@@$02@1@@ 1001febc     CAT.obj
 0002:00000ed4       ??_7?$CComContainedObject@VCOPOSCAT@@@ATL@@6B?$IPropertyNotifySinkCP@VCOPOSCAT@@VCComDynamicUnkArray@ATL@@@1@@ 1001fed4     CAT.obj
 0002:00000ef4       ??_7?$CComContainedObject@VCOPOSCAT@@@ATL@@6B?$CProxy_IOPOSEvents@VCOPOSCAT@@@@@ 1001fef4     CAT.obj
 0002:00000f14       ??_7?$CComAggObject@VCOPOSCAT@@@ATL@@6B@ 1001ff14     CAT.obj
 0002:00000f24       ??_7?$CComObject@VCOPOSCAT@@@ATL@@6B?$IDispatchImpl@UIOPOSCAT@@$1?IID_IOPOSCAT@@3U_GUID@@B$1?LIBID_OposCAT_CCO@@3U3@B$00$0A@VCComTypeInfoHolder@ATL@@@1@@ 1001ff24     CAT.obj
 0002:000010c0       ??_7?$CComObject@VCOPOSCAT@@@ATL@@6BCComControlBase@1@@ 100200c0     CAT.obj
 0002:000010d4       ??_7?$CComObject@VCOPOSCAT@@@ATL@@6B?$CWindowImpl@VCOPOSCAT@@VCWindow@ATL@@V?$CWinTraits@$0FGAAAAAA@$0A@@3@@1@@ 100200d4     CAT.obj
 0002:000010e4       ??_7?$CComObject@VCOPOSCAT@@@ATL@@6B?$IPersistStreamInitImpl@VCOPOSCAT@@@1@@ 100200e4     CAT.obj
 0002:00001108       ??_7?$CComObject@VCOPOSCAT@@@ATL@@6B?$IOleControlImpl@VCOPOSCAT@@@1@@ 10020108     CAT.obj
 0002:00001124       ??_7?$CComObject@VCOPOSCAT@@@ATL@@6B?$IOleObjectImpl@VCOPOSCAT@@@1@@ 10020124     CAT.obj
 0002:00001184       ??_7?$CComObject@VCOPOSCAT@@@ATL@@6B?$IOleInPlaceActiveObjectImpl@VCOPOSCAT@@@1@@ 10020184     CAT.obj
 0002:000011ac       ??_7?$CComObject@VCOPOSCAT@@@ATL@@6B?$IViewObjectExImpl@VCOPOSCAT@@@1@@ 100201ac     CAT.obj
 0002:000011e8       ??_7?$CComObject@VCOPOSCAT@@@ATL@@6B?$IOleInPlaceObjectWindowlessImpl@VCOPOSCAT@@@1@@ 100201e8     CAT.obj
 0002:00001214       ??_7?$CComObject@VCOPOSCAT@@@ATL@@6B?$IConnectionPointContainerImpl@VCOPOSCAT@@@1@@ 10020214     CAT.obj
 0002:00001228       ??_7?$CComObject@VCOPOSCAT@@@ATL@@6B?$IPersistStorageImpl@VCOPOSCAT@@@1@@ 10020228     CAT.obj
 0002:00001250       ??_7?$CComObject@VCOPOSCAT@@@ATL@@6B?$ISpecifyPropertyPagesImpl@VCOPOSCAT@@@1@@ 10020250     CAT.obj
 0002:00001260       ??_7?$CComObject@VCOPOSCAT@@@ATL@@6B?$IQuickActivateImpl@VCOPOSCAT@@@1@@ 10020260     CAT.obj
 0002:00001278       ??_7?$CComObject@VCOPOSCAT@@@ATL@@6B?$IDataObjectImpl@VCOPOSCAT@@@1@@ 10020278     CAT.obj
 0002:000012a8       ??_7?$CComObject@VCOPOSCAT@@@ATL@@6B?$IProvideClassInfo2Impl@$1?CLSID_OPOSCAT@@3U_GUID@@B$1?DIID__IOPOSCATEvents@@3U2@B$1?LIBID_OposCAT_CCO@@3U2@B$00$0A@VCComTypeInfoHolder@ATL@@@1@@ 100202a8     CAT.obj
 0002:000012bc       ??_7?$CComObject@VCOPOSCAT@@@ATL@@6B?$IObjectSafetyImpl@VCOPOSCAT@@$02@1@@ 100202bc     CAT.obj
 0002:000012d4       ??_7?$CComObject@VCOPOSCAT@@@ATL@@6B?$IPropertyNotifySinkCP@VCOPOSCAT@@VCComDynamicUnkArray@ATL@@@1@@ 100202d4     CAT.obj
 0002:000012f4       ??_7?$CComObject@VCOPOSCAT@@@ATL@@6B?$CProxy_IOPOSEvents@VCOPOSCAT@@@@@ 100202f4     CAT.obj
 0002:00001314       ??_C@_1O@GBFKGNEO@?$AAA?$AAT?$AAL?$AA?3?$AA?$CF?$AAp@ 10020314     CAT.obj
 0002:00001324       ??_C@_1BA@PICGEGJB@?$AAD?$AAI?$AAS?$AAP?$AAL?$AAA?$AAY@ 10020324     CAT.obj
 0002:00001334       __GUID_9bfbbc02_eff1_101a_84ed_00aa00341d07 10020334     CAT.obj
 0002:00001344       ?_entries@?1??_GetEntries@?$CComEnum@UIEnumConnectionPoints@@$1?_GUID_b196b285_bab4_101a_b69c_00aa00341d07@@3U__s_GUID@@BPAUIConnectionPoint@@V?$_CopyInterface@UIConnectionPoint@@@ATL@@VCComSingleThreadModel@6@@ATL@@SGPBU_ATL_INTMAP_ENTRY@3@XZ@4QBU43@B 10020344     CAT.obj
 0002:0000135c       __GUID_00020412_0000_0000_c000_000000000046 1002035c     CAT.obj
 0002:0000136c       __GUID_00020401_0000_0000_c000_000000000046 1002036c     CAT.obj
 0002:0000137c       ??_7CComClassFactory@ATL@@6B@ 1002037c     CAT.obj
 0002:00001394       ?_entries@?1??_GetEntries@CComClassFactory@ATL@@SGPBU_ATL_INTMAP_ENTRY@3@XZ@4QBU43@B 10020394     CAT.obj
 0002:000013ac       __GUID_00000001_0000_0000_c000_000000000046 100203ac     CAT.obj
 0002:000013bc       __GUID_55980ba0_35aa_11cf_b671_00aa004cd6d8 100203bc     CAT.obj
 0002:000013cc       __GUID_b196b28b_bab4_101a_b69c_00aa00341d07 100203cc     CAT.obj
 0002:000013dc       ??_7?$CComObject@V?$CComEnum@UIEnumConnections@@$1?_GUID_b196b287_bab4_101a_b69c_00aa00341d07@@3U__s_GUID@@BUtagCONNECTDATA@@V?$_Copy@UtagCONNECTDATA@@@ATL@@VCComSingleThreadModel@6@@ATL@@@ATL@@6B@ 100203dc     CAT.obj
 0002:000013fc       ?_entries@?1??_GetEntries@?$CComEnum@UIEnumConnections@@$1?_GUID_b196b287_bab4_101a_b69c_00aa00341d07@@3U__s_GUID@@BUtagCONNECTDATA@@V?$_Copy@UtagCONNECTDATA@@@ATL@@VCComSingleThreadModel@6@@ATL@@SGPBU_ATL_INTMAP_ENTRY@3@XZ@4QBU43@B 100203fc     CAT.obj
 0002:00001414       ??_C@_1BK@BIGILECK@?$AAA?$AAd?$AAv?$AAa?$AAp?$AAi?$AA3?$AA2?$AA?4?$AAd?$AAl?$AAl@ 10020414     CAT.obj
 0002:00001430       ??_C@_0BI@MNCFCPFK@RegCreateKeyTransactedW@ 10020430     CAT.obj
 0002:00001448       __GUID_b196b287_bab4_101a_b69c_00aa00341d07 10020448     CAT.obj
 0002:00001458       __GUID_b196b285_bab4_101a_b69c_00aa00341d07 10020458     CAT.obj
 0002:00001468       __GUID_a6bc3ac0_dbaa_11ce_9de3_00aa004bb851 10020468     CAT.obj
 0002:00001478       _IID_IOPOSCAT_1_5          10020478     CAT.obj
 0002:00001488       __GUID_0000010c_0000_0000_c000_000000000046 10020488     CAT.obj
 0002:00001498       __GUID_00000146_0000_0000_c000_000000000046 10020498     CAT.obj
 0002:000014a8       _IID_IOPOSCAT_1_8          100204a8     CAT.obj
 0002:000014b8       _IID_IOPOSCAT_1_9          100204b8     CAT.obj
 0002:000014c8       _IID_IOPOSCAT              100204c8     CAT.obj
 0002:000014d8       _LIBID_OposCAT_CCO         100204d8     CAT.obj
 0002:000014e8       _DIID__IOPOSCATEvents      100204e8     CAT.obj
 0002:000014f8       _CLSID_OPOSCAT             100204f8     CAT.obj
 0002:00001508       __GUID_00000114_0000_0000_c000_000000000046 10020508     CAT.obj
 0002:00001518       ??_7CComModule@ATL@@6B@    10020518     CAT.obj
 0002:00001540       ??_C@_0BG@EKFFMJIO@RegOpenKeyTransactedW@ 10020540     CAT.obj
 0002:00001558       ??_C@_0BI@HAKLOOGP@RegDeleteKeyTransactedW@ 10020558     CAT.obj
 0002:00001570       ??_C@_19ILOCMLCJ@?$AA?4?$AAt?$AAl?$AAb@ 10020570     CAT.obj
 0002:0000157c       __GUID_0002e012_0000_0000_c000_000000000046 1002057c     CAT.obj
 0002:0000158c       ??_C@_1O@FHBGLCIO@?$AAC?$AAL?$AAS?$AAI?$AAD?$AA?2@ 1002058c     CAT.obj
 0002:0000159c       ??_C@_1CK@IFBKBFAA@?$AA?2?$AAR?$AAe?$AAq?$AAu?$AAi?$AAr?$AAe?$AAd?$AA?5?$AAC?$AAa?$AAt?$AAe?$AAg@ 1002059c     CAT.obj
 0002:000015c8       ??_C@_1DA@BIHALFED@?$AA?2?$AAI?$AAm?$AAp?$AAl?$AAe?$AAm?$AAe?$AAn?$AAt?$AAe?$AAd?$AA?5?$AAC?$AAa@ 100205c8     CAT.obj
 0002:000015f8       ??_C@_1BK@EDKOLFBJ@?$AAO?$AAL?$AAE?$AAA?$AAU?$AAT?$AA3?$AA2?$AA?4?$AAD?$AAL?$AAL@ 100205f8     CAT.obj
 0002:00001614       ??_C@_0BJ@CNLFOMHB@UnRegisterTypeLibForUser@ 10020614     CAT.obj
 0002:00001630       ??_C@_0BH@LBOMMKPJ@RegisterTypeLibForUser@ 10020630     CAT.obj
 0002:00001648       ??_C@_0P@MMNMMLGK@COFreezeEvents@ 10020648     CATImpl.obj
 0002:00001658       ??_C@_0BC@OGCGGIMP@GetPropertyNumber@ 10020658     CATImpl.obj
 0002:0000166c       ??_C@_0BC@MDCNODNB@SetPropertyNumber@ 1002066c     CATImpl.obj
 0002:00001680       ??_C@_0BC@CFCCMIMD@GetPropertyString@ 10020680     CATImpl.obj
 0002:00001694       ??_C@_0BC@CJEDNN@SetPropertyString@ 10020694     CATImpl.obj
 0002:000016a8       ??_C@_0M@LNPKKKDA@OpenService@ 100206a8     CATImpl.obj
 0002:000016b4       ??_C@_0M@PCMCHHMH@CheckHealth@ 100206b4     CATImpl.obj
 0002:000016c0       ??_C@_0M@JGMIDNEK@ClaimDevice@ 100206c0     CATImpl.obj
 0002:000016cc       ??_C@_0M@JMBCPNGJ@ClearOutput@ 100206cc     CATImpl.obj
 0002:000016d8       ??_C@_0N@DDFIIBMP@CloseService@ 100206d8     CATImpl.obj
 0002:000016e8       ??_C@_08EEIHICPC@DirectIO@ 100206e8     CATImpl.obj
 0002:000016f4       ??_C@_0O@BCPMENMJ@ReleaseDevice@ 100206f4     CATImpl.obj
 0002:00001704       ??_C@_0P@GAPGHBOB@AccessDailyLog@ 10020704     CATImpl.obj
 0002:00001714       ??_C@_0BE@DCPICDJJ@AuthorizeCompletion@ 10020714     CATImpl.obj
 0002:00001728       ??_C@_0BC@BFIHDIME@AuthorizePreSales@ 10020728     CATImpl.obj
 0002:0000173c       ??_C@_0BA@MIHOKOFD@AuthorizeRefund@ 1002073c     CATImpl.obj
 0002:0000174c       ??_C@_0P@FBALCMBO@AuthorizeSales@ 1002074c     CATImpl.obj
 0002:0000175c       ??_C@_0O@CLMPAPFO@AuthorizeVoid@ 1002075c     CATImpl.obj
 0002:0000176c       ??_C@_0BG@LAFENIFB@AuthorizeVoidPreSales@ 1002076c     CATImpl.obj
 0002:00001784       ??_C@_09EAIKPMK@CheckCard@ 10020784     CATImpl.obj
 0002:00001790       ??_C@_0BA@GFABKEEE@ResetStatistics@ 10020790     CATImpl.obj
 0002:000017a0       ??_C@_0BD@DPALHJGC@RetrieveStatistics@ 100207a0     CATImpl.obj
 0002:000017b4       ??_C@_0BB@KOHIKNFC@UpdateStatistics@ 100207b4     CATImpl.obj
 0002:000017c8       ??_C@_0BH@PBKBNMGB@CompareFirmwareVersion@ 100207c8     CATImpl.obj
 0002:000017e0       ??_C@_0P@FBPDPIPA@UpdateFirmware@ 100207e0     CATImpl.obj
 0002:000017f0       ??_C@_0L@OFHFGGCE@GetBalance@ 100207f0     CATImpl.obj
 0002:000017fc       ??_C@_0BB@DEPMOCKF@GetSettledAmount@ 100207fc     CATImpl.obj
 0002:00001810       ??_C@_0M@LJIOAJGI@CashDeposit@ 10020810     CATImpl.obj
 0002:0000181c       ??_C@_0N@NKOFBOHJ@LockTerminal@ 1002081c     CATImpl.obj
 0002:0000182c       ??_C@_0P@ELGEJAPJ@UnlockTerminal@ 1002082c     CATImpl.obj
 0002:0000183c       ??_7?$CProxy_IOPOSEvents@VCOPOSCAT@@@@6B@ 1002083c     CATImpl.obj
 0002:0000185c       ??_C@_1BA@IFHENID@?$AA?$FL?$AAE?$AAr?$AAr?$AAo?$AAr?$AA?$FN@ 1002085c     CATImpl.obj
 0002:0000186c       ??_C@_0CG@FIJDADJE@SOFTWARE?2OLEforRetail?2ServiceOP@ 1002086c     CATImpl.obj
 0002:00001894       ??_C@_1M@IAIJHCCH@?$AAC?$AAl?$AAo?$AAs?$AAe@ 10020894     CATImpl.obj
 0002:000018a0       ??_C@_1M@PCPKGJAH@?$AAC?$AAl?$AAa?$AAi?$AAm@ 100208a0     CATImpl.obj
 0002:000018ac       ??_C@_1BA@NDFKIOCP@?$AAR?$AAe?$AAl?$AAe?$AAa?$AAs?$AAe@ 100208ac     CATImpl.obj
 0002:000018bc       ??_C@_03PIJFKIJH@CAT@      100208bc     CATImpl.obj
 0002:000018c0       ??_C@_1BM@IJMNMBPK@?$AAG?$AAe?$AAt?$AAO?$AAp?$AAe?$AAn?$AAR?$AAe?$AAs?$AAu?$AAl?$AAt@ 100208c0     CATImpl.obj
 0002:000018dc       _GUID_NULL                 100208dc     uuid:cguid_i.obj
 0002:000018ec       _CLSID_StdGlobalInterfaceTable 100208ec     uuid:cguid_i.obj
 0002:000018fc       _IID_IDispatch             100208fc     uuid:oaidl_i.obj
 0002:0000190c       _IID_IPropertyNotifySink   1002090c     uuid:ocidl_i.obj
 0002:0000191c       _CLSID_StdComponentCategoriesMgr 1002091c     uuid:ieguids.obj
 0002:0000192c       _IID_IUnknown              1002092c     uuid:unknwn_i.obj
 0002:00001940       ??_C@_1EC@JIJBPKFM@?$AAa?$AAp?$AAi?$AA?9?$AAm?$AAs?$AA?9?$AAw?$AAi?$AAn?$AA?9?$AAc?$AAo?$AAr?$AAe@ 10020940     LIBCMT:thread_safe_statics.obj
 0002:00001984       ??_C@_1BK@MGMFAEKH@?$AAk?$AAe?$AAr?$AAn?$AAe?$AAl?$AA3?$AA2?$AA?4?$AAd?$AAl?$AAl@ 10020984     LIBCMT:thread_safe_statics.obj
 0002:000019a0       ??_C@_0BM@HLJJNPAH@InitializeConditionVariable@ 100209a0     LIBCMT:thread_safe_statics.obj
 0002:000019bc       ??_C@_0BJ@JEBJOJFJ@SleepConditionVariableCS@ 100209bc     LIBCMT:thread_safe_statics.obj
 0002:000019d8       ??_C@_0BJ@PGPPEPCC@WakeAllConditionVariable@ 100209d8     LIBCMT:thread_safe_statics.obj
 0002:000019f1       ?nothrow@std@@3Unothrow_t@1@B 100209f1     LIBCMT:std_nothrow.obj
 0002:000019fc       __pDefaultRawDllMain       100209fc     LIBCMT:dll_dllmain.obj
 0002:000019fc       __pRawDllMain              100209fc     LIBCMT:dll_dllmain.obj
 0002:00001a04       ??_7exception@std@@6B@     10020a04     LIBCMT:throw_bad_alloc.obj
 0002:00001a0c       ??_C@_0BC@EOODALEL@Unknown?5exception@ 10020a0c     LIBCMT:throw_bad_alloc.obj
 0002:00001a24       ??_7bad_alloc@std@@6B@     10020a24     LIBCMT:throw_bad_alloc.obj
 0002:00001a2c       ??_C@_0P@GHFPNOJB@bad?5allocation@ 10020a2c     LIBCMT:throw_bad_alloc.obj
 0002:00001a40       ??_7bad_array_new_length@std@@6B@ 10020a40     LIBCMT:throw_bad_alloc.obj
 0002:00001a48       ??_C@_0BF@KINCDENJ@bad?5array?5new?5length@ 10020a48     LIBCMT:throw_bad_alloc.obj
 0002:00001a64       ??_7type_info@@6B@         10020a64     LIBCMT:std_type_info_static.obj
 0002:00001a68       _GUID_ATLVer110            10020a68     atls:atlbase.obj
 0002:00001a78       ??_C@_1IC@ONKHOIDK@?$AAE?$AAR?$AAR?$AAO?$AAR?$AA?5?$AA?3?$AA?5?$AAU?$AAn?$AAa?$AAb?$AAl?$AAe?$AA?5@ 10020a78     atls:atlbase.obj
 0002:00001afc       ??_C@_0N@FJEPLCIH@atlthunk?4dll@ 10020afc     atls:atlthunk.obj
 0002:00001b0c       ??_C@_0BG@GAKFHCBM@AtlThunk_AllocateData@ 10020b0c     atls:atlthunk.obj
 0002:00001b24       ??_C@_0BC@JKONFIAH@AtlThunk_InitData@ 10020b24     atls:atlthunk.obj
 0002:00001b38       ??_C@_0BE@IAOEELAK@AtlThunk_DataToCode@ 10020b38     atls:atlthunk.obj
 0002:00001b4c       ??_C@_0BC@GBGKAIPI@AtlThunk_FreeData@ 10020b4c     atls:atlthunk.obj
 0002:00001b8c       ??_C@_1DM@KHCHBNEB@?$AAa?$AAp?$AAi?$AA?9?$AAm?$AAs?$AA?9?$AAw?$AAi?$AAn?$AA?9?$AAc?$AAo?$AAr?$AAe@ 10020b8c     libvcruntime:winapi_downlevel.obj
 0002:00001bc8       ??_C@_1DK@LPPGFMPP@?$AAa?$AAp?$AAi?$AA?9?$AAm?$AAs?$AA?9?$AAw?$AAi?$AAn?$AA?9?$AAc?$AAo?$AAr?$AAe@ 10020bc8     libvcruntime:winapi_downlevel.obj
 0002:00001c04       ??_C@_1BC@GDMECMAK@?$AAk?$AAe?$AAr?$AAn?$AAe?$AAl?$AA3?$AA2@ 10020c04     libvcruntime:winapi_downlevel.obj
 0002:00001c18       ??_C@_1BA@PFFKHIOG@?$AAa?$AAp?$AAi?$AA?9?$AAm?$AAs?$AA?9@ 10020c18     libvcruntime:winapi_downlevel.obj
 0002:00001c28       ??_C@_1BA@IAIFMGEF@?$AAe?$AAx?$AAt?$AA?9?$AAm?$AAs?$AA?9@ 10020c28     libvcruntime:winapi_downlevel.obj
 0002:00001c40       ??_C@_08KNHFBNJ@FlsAlloc@  10020c40     libvcruntime:winapi_downlevel.obj
 0002:00001c54       ??_C@_07PEJMOBNF@FlsFree@  10020c54     libvcruntime:winapi_downlevel.obj
 0002:00001c64       ??_C@_0M@GDNOONDI@FlsGetValue@ 10020c64     libvcruntime:winapi_downlevel.obj
 0002:00001c78       ??_C@_0M@JCPCPOEF@FlsSetValue@ 10020c78     libvcruntime:winapi_downlevel.obj
 0002:00001c8c       ??_C@_0BM@HCFOFFN@InitializeCriticalSectionEx@ 10020c8c     libvcruntime:winapi_downlevel.obj
 0002:00001cac       ??_7bad_exception@std@@6B@ 10020cac     libvcruntime:frame.obj
 0002:00001cb4       ??_C@_0O@DPKOEFFH@bad?5exception@ 10020cb4     libvcruntime:frame.obj
 0002:00001e64       ??_C@_08EHJDFFNH@__based?$CI@ 10020e64     libvcruntime:undname.obj
 0002:00001e70       ??_C@_07KOLFKCDI@__cdecl@  10020e70     libvcruntime:undname.obj
 0002:00001e78       ??_C@_08GHMPAG@__pascal@   10020e78     libvcruntime:undname.obj
 0002:00001e84       ??_C@_09IFJBGAPI@__stdcall@ 10020e84     libvcruntime:undname.obj
 0002:00001e90       ??_C@_0L@NPHFGOKO@__thiscall@ 10020e90     libvcruntime:undname.obj
 0002:00001e9c       ??_C@_0L@JMKHOMEK@__fastcall@ 10020e9c     libvcruntime:undname.obj
 0002:00001ea8       ??_C@_0N@BCKKPABJ@__vectorcall@ 10020ea8     libvcruntime:undname.obj
 0002:00001eb8       ??_C@_09HIJEGCPM@__clrcall@ 10020eb8     libvcruntime:undname.obj
 0002:00001ec4       ??_C@_06GHPCKEAG@__eabi@   10020ec4     libvcruntime:undname.obj
 0002:00001ecc       ??_C@_09IOPIDJLG@__swift_1@ 10020ecc     libvcruntime:undname.obj
 0002:00001ed8       ??_C@_09KFNFGKHF@__swift_2@ 10020ed8     libvcruntime:undname.obj
 0002:00001ee4       ??_C@_07JOMMBBKO@__ptr64@  10020ee4     libvcruntime:undname.obj
 0002:00001eec       ??_C@_0L@PILCLIHE@__restrict@ 10020eec     libvcruntime:undname.obj
 0002:00001ef8       ??_C@_0M@GFIIJFMG@__unaligned@ 10020ef8     libvcruntime:undname.obj
 0002:00001f04       ??_C@_09DHDLOLLB@restrict?$CI@ 10020f04     libvcruntime:undname.obj
 0002:00001f0e       ??_C@_00CNPNBAHC@@         10020f0e     libvcruntime:undname.obj
 0002:00001f10       ??_C@_04NIHEBCM@?5new@     10020f10     libvcruntime:undname.obj
 0002:00001f18       ??_C@_07FPCDHGMM@?5delete@ 10020f18     libvcruntime:undname.obj
 0002:00001f20       ??_C@_01NEMOKFLO@?$DN@     10020f20     libvcruntime:undname.obj
 0002:00001f24       ??_C@_02GPIOPFAK@?$DO?$DO@ 10020f24     libvcruntime:undname.obj
 0002:00001f28       ??_C@_02FODMEDOG@?$DM?$DM@ 10020f28     libvcruntime:undname.obj
 0002:00001f2c       ??_C@_01DCLJPIOD@?$CB@     10020f2c     libvcruntime:undname.obj
 0002:00001f30       ??_C@_02EGOFBIJA@?$DN?$DN@ 10020f30     libvcruntime:undname.obj
 0002:00001f34       ??_C@_02FDNJECIE@?$CB?$DN@ 10020f34     libvcruntime:undname.obj
 0002:00001f38       ??_C@_02GPECMEKF@?$FL?$FN@ 10020f38     libvcruntime:undname.obj
 0002:00001f3c       ??_C@_08LHJFAFGD@operator@ 10020f3c     libvcruntime:undname.obj
 0002:00001f48       ??_C@_02HBOOOICD@?9?$DO@   10020f48     libvcruntime:undname.obj
 0002:00001f4c       ??_C@_01NBENCBCI@?$CK@     10020f4c     libvcruntime:undname.obj
 0002:00001f50       ??_C@_02ECNGHCIF@?$CL?$CL@ 10020f50     libvcruntime:undname.obj
 0002:00001f54       ??_C@_02BAABKJLB@?9?9@     10020f54     libvcruntime:undname.obj
 0002:00001f58       ??_C@_01JOAMLHOP@?9@       10020f58     libvcruntime:undname.obj
 0002:00001f5c       ??_C@_01MIFGBAGJ@?$CL@     10020f5c     libvcruntime:undname.obj
 0002:00001f60       ??_C@_01HNPIGOCE@?$CG@     10020f60     libvcruntime:undname.obj
 0002:00001f64       ??_C@_03MNHNFDLC@?9?$DO?$CK@ 10020f64     libvcruntime:undname.obj
 0002:00001f68       ??_C@_01KMDKNFGN@?1@       10020f68     libvcruntime:undname.obj
 0002:00001f6c       ??_C@_01FGNFDNOH@?$CF@     10020f6c     libvcruntime:undname.obj
 0002:00001f70       ??_C@_01MNNFJEPP@?$DM@     10020f70     libvcruntime:undname.obj
 0002:00001f74       ??_C@_02EHCHHCKH@?$DM?$DN@ 10020f74     libvcruntime:undname.obj
 0002:00001f78       ??_C@_01PPODPGHN@?$DO@     10020f78     libvcruntime:undname.obj
 0002:00001f7c       ??_C@_02EEKDKGMJ@?$DO?$DN@ 10020f7c     libvcruntime:undname.obj
 0002:00001f80       ??_C@_01IHBHIGKO@?0@       10020f80     libvcruntime:undname.obj
 0002:00001f84       ??_C@_02HCKGKOFO@?$CI?$CJ@ 10020f84     libvcruntime:undname.obj
 0002:00001f88       ??_C@_01PJKLJHI@?$HO@      10020f88     libvcruntime:undname.obj
 0002:00001f8c       ??_C@_01JKBOJNNK@?$FO@     10020f8c     libvcruntime:undname.obj
 0002:00001f90       ??_C@_01DNKMNLPK@?$HM@     10020f90     libvcruntime:undname.obj
 0002:00001f94       ??_C@_02PPKAJPJL@?$CG?$CG@ 10020f94     libvcruntime:undname.obj
 0002:00001f98       ??_C@_02NONPIBCD@?$HM?$HM@ 10020f98     libvcruntime:undname.obj
 0002:00001f9c       ??_C@_02FPIMKNGF@?$CK?$DN@ 10020f9c     libvcruntime:undname.obj
 0002:00001fa0       ??_C@_02FOEOMHFC@?$CL?$DN@ 10020fa0     libvcruntime:undname.obj
 0002:00001fa4       ??_C@_02FKMDLLOA@?9?$DN@   10020fa4     libvcruntime:undname.obj
 0002:00001fa8       ??_C@_02FJEHGPIO@?1?$DN@   10020fa8     libvcruntime:undname.obj
 0002:00001fac       ??_C@_02FENAOKFI@?$CF?$DN@ 10020fac     libvcruntime:undname.obj
 0002:00001fb0       ??_C@_03IKFCCPFF@?$DO?$DO?$DN@ 10020fb0     libvcruntime:undname.obj
 0002:00001fb4       ??_C@_03CDNPDDLA@?$DM?$DM?$DN@ 10020fb4     libvcruntime:undname.obj
 0002:00001fb8       ??_C@_02FGJGFEAB@?$CG?$DN@ 10020fb8     libvcruntime:undname.obj
 0002:00001fbc       ??_C@_02DHLNPPGH@?$HM?$DN@ 10020fbc     libvcruntime:undname.obj
 0002:00001fc0       ??_C@_02MHEGNOJ@?$FO?$DN@  10020fc0     libvcruntime:undname.obj
 0002:00001fc4       ??_C@_09IFPLHPGF@?$GAvftable?8@ 10020fc4     libvcruntime:undname.obj
 0002:00001fd0       ??_C@_09BLBHBJP@?$GAvbtable?8@ 10020fd0     libvcruntime:undname.obj
 0002:00001fdc       ??_C@_07FEEIOKP@?$GAvcall?8@ 10020fdc     libvcruntime:undname.obj
 0002:00001fe4       ??_C@_08LLFFHHDJ@?$GAtypeof?8@ 10020fe4     libvcruntime:undname.obj
 0002:00001ff0       ??_C@_0BF@KDPPACIK@?$GAlocal?5static?5guard?8@ 10020ff0     libvcruntime:undname.obj
 0002:00002008       ??_C@_08OBABFOLI@?$GAstring?8@ 10021008     libvcruntime:undname.obj
 0002:00002014       ??_C@_0BD@JDLKDPAB@?$GAvbase?5destructor?8@ 10021014     libvcruntime:undname.obj
 0002:00002028       ??_C@_0BN@DEGPLNFK@?$GAvector?5deleting?5destructor?8@ 10021028     libvcruntime:undname.obj
 0002:00002048       ??_C@_0BO@OBMKPJIG@?$GAdefault?5constructor?5closure?8@ 10021048     libvcruntime:undname.obj
 0002:00002068       ??_C@_0BN@IMDCHIKM@?$GAscalar?5deleting?5destructor?8@ 10021068     libvcruntime:undname.obj
 0002:00002088       ??_C@_0BO@PFGOCPJJ@?$GAvector?5constructor?5iterator?8@ 10021088     libvcruntime:undname.obj
 0002:000020a8       ??_C@_0BN@LFPFMEDL@?$GAvector?5destructor?5iterator?8@ 100210a8     libvcruntime:undname.obj
 0002:000020c8       ??_C@_0CE@IKBNEHA@?$GAvector?5vbase?5constructor?5itera@ 100210c8     libvcruntime:undname.obj
 0002:000020ec       ??_C@_0BL@NILFHHPC@?$GAvirtual?5displacement?5map?8@ 100210ec     libvcruntime:undname.obj
 0002:00002108       ??_C@_0CB@JONCMFFK@?$GAeh?5vector?5constructor?5iterator@ 10021108     libvcruntime:undname.obj
 0002:0000212c       ??_C@_0CA@GCEOPDGL@?$GAeh?5vector?5destructor?5iterator?8@ 1002112c     libvcruntime:undname.obj
 0002:0000214c       ??_C@_0CH@OOJPLCPH@?$GAeh?5vector?5vbase?5constructor?5it@ 1002114c     libvcruntime:undname.obj
 0002:00002174       ??_C@_0BL@LLKPOHJI@?$GAcopy?5constructor?5closure?8@ 10021174     libvcruntime:undname.obj
 0002:00002190       ??_C@_0BA@KBCDOMBN@?$GAudt?5returning?8@ 10021190     libvcruntime:undname.obj
 0002:000021a0       ??_C@_03KLGMFNMG@?$GAEH@   100211a0     libvcruntime:undname.obj
 0002:000021a4       ??_C@_05KHLCHHI@?$GARTTI@  100211a4     libvcruntime:undname.obj
 0002:000021ac       ??_C@_0BA@KKLDJDLB@?$GAlocal?5vftable?8@ 100211ac     libvcruntime:undname.obj
 0002:000021bc       ??_C@_0CE@IIHCMGGL@?$GAlocal?5vftable?5constructor?5clos@ 100211bc     libvcruntime:undname.obj
 0002:000021e0       ??_C@_06FHBGPFGH@?5new?$FL?$FN@ 100211e0     libvcruntime:undname.obj
 0002:000021e8       ??_C@_09LBNFPBCA@?5delete?$FL?$FN@ 100211e8     libvcruntime:undname.obj
 0002:000021f4       ??_C@_0P@HJKNJFNN@?$GAomni?5callsig?8@ 100211f4     libvcruntime:undname.obj
 0002:00002204       ??_C@_0BL@CNOONJFP@?$GAplacement?5delete?5closure?8@ 10021204     libvcruntime:undname.obj
 0002:00002220       ??_C@_0BN@CKNJLHMB@?$GAplacement?5delete?$FL?$FN?5closure?8@ 10021220     libvcruntime:undname.obj
 0002:00002240       ??_C@_0CG@CFDHKGGD@?$GAmanaged?5vector?5constructor?5ite@ 10021240     libvcruntime:undname.obj
 0002:00002268       ??_C@_0CF@IMGKMJNO@?$GAmanaged?5vector?5destructor?5iter@ 10021268     libvcruntime:undname.obj
 0002:00002290       ??_C@_0CG@HLDDJMAG@?$GAeh?5vector?5copy?5constructor?5ite@ 10021290     libvcruntime:undname.obj
 0002:000022b8       ??_C@_0CM@FCBBDIGB@?$GAeh?5vector?5vbase?5copy?5construct@ 100212b8     libvcruntime:undname.obj
 0002:000022e4       ??_C@_0BL@CLIPGLGB@?$GAdynamic?5initializer?5for?5?8@ 100212e4     libvcruntime:undname.obj
 0002:00002300       ??_C@_0CB@PDBIFEP@?$GAdynamic?5atexit?5destructor?5for?5@ 10021300     libvcruntime:undname.obj
 0002:00002324       ??_C@_0CD@CGAJBKEJ@?$GAvector?5copy?5constructor?5iterat@ 10021324     libvcruntime:undname.obj
 0002:00002348       ??_C@_0CJ@GJELGAMM@?$GAvector?5vbase?5copy?5constructor?5@ 10021348     libvcruntime:undname.obj
 0002:00002374       ??_C@_0CL@FGIJHLCE@?$GAmanaged?5vector?5copy?5constructo@ 10021374     libvcruntime:undname.obj
 0002:000023a0       ??_C@_0BM@PMGGMLDN@?$GAlocal?5static?5thread?5guard?8@ 100213a0     libvcruntime:undname.obj
 0002:000023bc       ??_C@_0N@BDNMDMOL@operator?5?$CC?$CC?5@ 100213bc     libvcruntime:undname.obj
 0002:000023cc       ??_C@_0BC@GGEBGALA@operator?5co_await@ 100213cc     libvcruntime:undname.obj
 0002:000023e0       ??_C@_0BC@DAFEJGAK@?5Type?5Descriptor?8@ 100213e0     libvcruntime:undname.obj
 0002:000023f4       ??_C@_0BM@LDKODKLH@?5Base?5Class?5Descriptor?5at?5?$CI@ 100213f4     libvcruntime:undname.obj
 0002:00002410       ??_C@_0BD@LGICGFMM@?5Base?5Class?5Array?8@ 10021410     libvcruntime:undname.obj
 0002:00002424       ??_C@_0BN@MECKDCOJ@?5Class?5Hierarchy?5Descriptor?8@ 10021424     libvcruntime:undname.obj
 0002:00002444       ??_C@_0BK@CFCOFLF@?5Complete?5Object?5Locator?8@ 10021444     libvcruntime:undname.obj
 0002:00002460       __pDestructExceptionObject 10021460     libvcruntime:ehhelpers.obj
 0002:000025c8       _format_validation_lookup_table 100215c8     libucrt:output.obj
 0002:00002624       ??_C@_1O@CEDCILHN@?$AA?$CI?$AAn?$AAu?$AAl?$AAl?$AA?$CJ?$AA?$AA@ 10021624     libucrt:output.obj
 0002:00002634       ??_C@_06OJHGLDPL@?$CInull?$CJ?$AA@ 10021634     libucrt:output.obj
 0002:00002640       ___acrt_exception_action_table 10021640     libucrt:exception_filter.obj
 0002:000026d0       ___acrt_signal_action_table_count 100216d0     libucrt:exception_filter.obj
 0002:000026d4       ___acrt_signal_action_first_fpe_index 100216d4     libucrt:exception_filter.obj
 0002:000026d8       ___acrt_signal_action_fpe_count 100216d8     libucrt:exception_filter.obj
 0002:000026dc       ??_C@_1BI@BGOHAHKC@?$AAm?$AAs?$AAc?$AAo?$AAr?$AAe?$AAe?$AA?4?$AAd?$AAl?$AAl?$AA?$AA@ 100216dc     libucrt:exit.obj
 0002:000026f4       ??_C@_0P@MIGLKIOC@CorExitProcess?$AA@ 100216f4     libucrt:exit.obj
 0002:000027d0       ??_C@_1EA@JGEFHKEI@?$AAa?$AAp?$AAi?$AA?9?$AAm?$AAs?$AA?9?$AAw?$AAi?$AAn?$AA?9?$AAc?$AAo?$AAr?$AAe?$AA?9?$AAd?$AAa?$AAt?$AAe?$AAt?$AAi?$AAm?$AAe?$AA?9?$AAl?$AA1?$AA?9?$AA1?$AA?9?$AA1?$AA?$AA@ 100217d0     libucrt:winapi_thunks.obj
 0002:00002810       ??_C@_1DM@KHCHBNEB@?$AAa?$AAp?$AAi?$AA?9?$AAm?$AAs?$AA?9?$AAw?$AAi?$AAn?$AA?9?$AAc?$AAo?$AAr?$AAe?$AA?9?$AAf?$AAi?$AAb?$AAe?$AAr?$AAs?$AA?9?$AAl?$AA1?$AA?9?$AA1?$AA?9?$AA1?$AA?$AA@ 10021810     libucrt:winapi_thunks.obj
 0002:00002850       ??_C@_1EI@MPIAOHOC@?$AAa?$AAp?$AAi?$AA?9?$AAm?$AAs?$AA?9?$AAw?$AAi?$AAn?$AA?9?$AAc?$AAo?$AAr?$AAe?$AA?9?$AAl?$AAo?$AAc?$AAa?$AAl?$AAi?$AAz?$AAa?$AAt?$AAi?$AAo?$AAn?$AA?9?$AAl?$AA1?$AA?9@ 10021850     libucrt:winapi_thunks.obj
 0002:00002898       ??_C@_1FK@FPHCKFIE@?$AAa?$AAp?$AAi?$AA?9?$AAm?$AAs?$AA?9?$AAw?$AAi?$AAn?$AA?9?$AAc?$AAo?$AAr?$AAe?$AA?9?$AAl?$AAo?$AAc?$AAa?$AAl?$AAi?$AAz?$AAa?$AAt?$AAi?$AAo?$AAn?$AA?9?$AAo?$AAb?$AAs@ 10021898     libucrt:winapi_thunks.obj
 0002:000028f8       ??_C@_1EM@DILCGIIO@?$AAa?$AAp?$AAi?$AA?9?$AAm?$AAs?$AA?9?$AAw?$AAi?$AAn?$AA?9?$AAc?$AAo?$AAr?$AAe?$AA?9?$AAp?$AAr?$AAo?$AAc?$AAe?$AAs?$AAs?$AAt?$AAh?$AAr?$AAe?$AAa?$AAd?$AAs?$AA?9?$AAl@ 100218f8     libucrt:winapi_thunks.obj
 0002:00002944       ??_C@_1DM@LNCGDDPN@?$AAa?$AAp?$AAi?$AA?9?$AAm?$AAs?$AA?9?$AAw?$AAi?$AAn?$AA?9?$AAc?$AAo?$AAr?$AAe?$AA?9?$AAs?$AAt?$AAr?$AAi?$AAn?$AAg?$AA?9?$AAl?$AA1?$AA?9?$AA1?$AA?9?$AA0?$AA?$AA@ 10021944     libucrt:winapi_thunks.obj
 0002:00002980       ??_C@_1DK@LPPGFMPP@?$AAa?$AAp?$AAi?$AA?9?$AAm?$AAs?$AA?9?$AAw?$AAi?$AAn?$AA?9?$AAc?$AAo?$AAr?$AAe?$AA?9?$AAs?$AAy?$AAn?$AAc?$AAh?$AA?9?$AAl?$AA1?$AA?9?$AA2?$AA?9?$AA0?$AA?$AA@ 10021980     libucrt:winapi_thunks.obj
 0002:000029bc       ??_C@_1DO@FPAPJEMD@?$AAa?$AAp?$AAi?$AA?9?$AAm?$AAs?$AA?9?$AAw?$AAi?$AAn?$AA?9?$AAc?$AAo?$AAr?$AAe?$AA?9?$AAs?$AAy?$AAs?$AAi?$AAn?$AAf?$AAo?$AA?9?$AAl?$AA1?$AA?9?$AA2?$AA?9?$AA1?$AA?$AA@ 100219bc     libucrt:winapi_thunks.obj
 0002:000029fc       ??_C@_1DK@NDHNAHIO@?$AAa?$AAp?$AAi?$AA?9?$AAm?$AAs?$AA?9?$AAw?$AAi?$AAn?$AA?9?$AAc?$AAo?$AAr?$AAe?$AA?9?$AAw?$AAi?$AAn?$AAr?$AAt?$AA?9?$AAl?$AA1?$AA?9?$AA1?$AA?9?$AA0?$AA?$AA@ 100219fc     libucrt:winapi_thunks.obj
 0002:00002a38       ??_C@_1DM@KGHDGBCM@?$AAa?$AAp?$AAi?$AA?9?$AAm?$AAs?$AA?9?$AAw?$AAi?$AAn?$AA?9?$AAc?$AAo?$AAr?$AAe?$AA?9?$AAx?$AAs?$AAt?$AAa?$AAt?$AAe?$AA?9?$AAl?$AA2?$AA?9?$AA1?$AA?9?$AA0?$AA?$AA@ 10021a38     libucrt:winapi_thunks.obj
 0002:00002a78       ??_C@_1EO@IJIOEFOH@?$AAa?$AAp?$AAi?$AA?9?$AAm?$AAs?$AA?9?$AAw?$AAi?$AAn?$AA?9?$AAr?$AAt?$AAc?$AAo?$AAr?$AAe?$AA?9?$AAn?$AAt?$AAu?$AAs?$AAe?$AAr?$AA?9?$AAw?$AAi?$AAn?$AAd?$AAo?$AAw?$AA?9@ 10021a78     libucrt:winapi_thunks.obj
 0002:00002ac8       ??_C@_1FG@HHGEKANL@?$AAa?$AAp?$AAi?$AA?9?$AAm?$AAs?$AA?9?$AAw?$AAi?$AAn?$AA?9?$AAs?$AAe?$AAc?$AAu?$AAr?$AAi?$AAt?$AAy?$AA?9?$AAs?$AAy?$AAs?$AAt?$AAe?$AAm?$AAf?$AAu?$AAn?$AAc?$AAt?$AAi@ 10021ac8     libucrt:winapi_thunks.obj
 0002:00002b20       ??_C@_1EG@DBIOJECG@?$AAe?$AAx?$AAt?$AA?9?$AAm?$AAs?$AA?9?$AAw?$AAi?$AAn?$AA?9?$AAn?$AAt?$AAu?$AAs?$AAe?$AAr?$AA?9?$AAd?$AAi?$AAa?$AAl?$AAo?$AAg?$AAb?$AAo?$AAx?$AA?9?$AAl?$AA1?$AA?9?$AA1@ 10021b20     libucrt:winapi_thunks.obj
 0002:00002b68       ??_C@_1EO@FIHMJCLF@?$AAe?$AAx?$AAt?$AA?9?$AAm?$AAs?$AA?9?$AAw?$AAi?$AAn?$AA?9?$AAn?$AAt?$AAu?$AAs?$AAe?$AAr?$AA?9?$AAw?$AAi?$AAn?$AAd?$AAo?$AAw?$AAs?$AAt?$AAa?$AAt?$AAi?$AAo?$AAn?$AA?9@ 10021b68     libucrt:winapi_thunks.obj
 0002:00002bb8       ??_C@_1BC@DNHGCMLG@?$AAa?$AAd?$AAv?$AAa?$AAp?$AAi?$AA3?$AA2?$AA?$AA@ 10021bb8     libucrt:winapi_thunks.obj
 0002:00002bcc       ??_C@_1BC@GDMECMAK@?$AAk?$AAe?$AAr?$AAn?$AAe?$AAl?$AA3?$AA2?$AA?$AA@ 10021bcc     libucrt:winapi_thunks.obj
 0002:00002be0       ??_C@_1M@OAIMIKLP@?$AAn?$AAt?$AAd?$AAl?$AAl?$AA?$AA@ 10021be0     libucrt:winapi_thunks.obj
 0002:00002bf0       ??_C@_1EG@DPGNFKGC@?$AAa?$AAp?$AAi?$AA?9?$AAm?$AAs?$AA?9?$AAw?$AAi?$AAn?$AA?9?$AAa?$AAp?$AAp?$AAm?$AAo?$AAd?$AAe?$AAl?$AA?9?$AAr?$AAu?$AAn?$AAt?$AAi?$AAm?$AAe?$AA?9?$AAl?$AA1?$AA?9?$AA1@ 10021bf0     libucrt:winapi_thunks.obj
 0002:00002c38       ??_C@_1O@BCCLBEOE@?$AAu?$AAs?$AAe?$AAr?$AA3?$AA2?$AA?$AA@ 10021c38     libucrt:winapi_thunks.obj
 0002:00002c48       ??_C@_1BA@PFFKHIOG@?$AAa?$AAp?$AAi?$AA?9?$AAm?$AAs?$AA?9?$AA?$AA@ 10021c48     libucrt:winapi_thunks.obj
 0002:00002c58       ??_C@_1BA@IAIFMGEF@?$AAe?$AAx?$AAt?$AA?9?$AAm?$AAs?$AA?9?$AA?$AA@ 10021c58     libucrt:winapi_thunks.obj
 0002:00002c70       ??_C@_08KNHFBNJ@FlsAlloc?$AA@ 10021c70     libucrt:winapi_thunks.obj
 0002:00002c84       ??_C@_07PEJMOBNF@FlsFree?$AA@ 10021c84     libucrt:winapi_thunks.obj
 0002:00002c94       ??_C@_0M@GDNOONDI@FlsGetValue?$AA@ 10021c94     libucrt:winapi_thunks.obj
 0002:00002ca8       ??_C@_0M@JCPCPOEF@FlsSetValue?$AA@ 10021ca8     libucrt:winapi_thunks.obj
 0002:00002cbc       ??_C@_0BM@HCFOFFN@InitializeCriticalSectionEx?$AA@ 10021cbc     libucrt:winapi_thunks.obj
 0002:00002ce0       ??_C@_0O@KKBNKAPF@LCMapStringEx?$AA@ 10021ce0     libucrt:winapi_thunks.obj
 0002:00002cf8       ??_C@_0BB@HBDEELFH@LocaleNameToLCID?$AA@ 10021cf8     libucrt:winapi_thunks.obj
 0002:00002d10       ??_C@_0CF@OJOFEIGO@AppPolicyGetProcessTerminationMe@ 10021d10     libucrt:winapi_thunks.obj
 0002:00002d40       ??_C@_0BI@BKLFFAPO@SetThreadStackGuarantee?$AA@ 10021d40     libucrt:winapi_thunks.obj
 0002:00002d58       ??_C@_03OEIAHPBN@INF?$AA@  10021d58     libucrt:cvt.obj
 0002:00002d5c       ??_C@_03OJHLLCGB@inf?$AA@  10021d5c     libucrt:cvt.obj
 0002:00002d60       ??_C@_03LKNCIKJB@NAN?$AA@  10021d60     libucrt:cvt.obj
 0002:00002d64       ??_C@_03LHCJEHON@nan?$AA@  10021d64     libucrt:cvt.obj
 0002:00002d68       ??_C@_09OFJJIMPC@NAN?$CISNAN?$CJ?$AA@ 10021d68     libucrt:cvt.obj
 0002:00002d74       ??_C@_09IPFBKMDL@nan?$CIsnan?$CJ?$AA@ 10021d74     libucrt:cvt.obj
 0002:00002d80       ??_C@_08IKHNHAJ@NAN?$CIIND?$CJ?$AA@ 10021d80     libucrt:cvt.obj
 0002:00002d8c       ??_C@_08OFCDMILK@nan?$CIind?$CJ?$AA@ 10021d8c     libucrt:cvt.obj
 0002:00002d98       ??_C@_05KLBDPFGC@e?$CL000?$AA@ 10021d98     libucrt:cvt.obj
 0002:00002da0       ??_C@_03KOEHGMDN@Sun?$AA@  10021da0     libucrt:nlsdata.obj
 0002:00002da4       ??_C@_03PDAGKDH@Mon?$AA@   10021da4     libucrt:nlsdata.obj
 0002:00002da8       ??_C@_03NAGEINEP@Tue?$AA@  10021da8     libucrt:nlsdata.obj
 0002:00002dac       ??_C@_03MHOMLAJA@Wed?$AA@  10021dac     libucrt:nlsdata.obj
 0002:00002db0       ??_C@_03IOFIKPDN@Thu?$AA@  10021db0     libucrt:nlsdata.obj
 0002:00002db4       ??_C@_03IDIOELNC@Fri?$AA@  10021db4     libucrt:nlsdata.obj
 0002:00002db8       ??_C@_03FEFJNEK@Sat?$AA@   10021db8     libucrt:nlsdata.obj
 0002:00002dbc       ??_C@_06OOPIFAJ@Sunday?$AA@ 10021dbc     libucrt:nlsdata.obj
 0002:00002dc4       ??_C@_06JLEDEDGH@Monday?$AA@ 10021dc4     libucrt:nlsdata.obj
 0002:00002dcc       ??_C@_07BAAGCFCM@Tuesday?$AA@ 10021dcc     libucrt:nlsdata.obj
 0002:00002dd4       ??_C@_09DLIGFAKA@Wednesday?$AA@ 10021dd4     libucrt:nlsdata.obj
 0002:00002de0       ??_C@_08HACCIKIA@Thursday?$AA@ 10021de0     libucrt:nlsdata.obj
 0002:00002dec       ??_C@_06JECMNKMI@Friday?$AA@ 10021dec     libucrt:nlsdata.obj
 0002:00002df4       ??_C@_08INBOOONO@Saturday?$AA@ 10021df4     libucrt:nlsdata.obj
 0002:00002e00       ??_C@_03JIHJHPIE@Jan?$AA@  10021e00     libucrt:nlsdata.obj
 0002:00002e04       ??_C@_03HJBDCHOM@Feb?$AA@  10021e04     libucrt:nlsdata.obj
 0002:00002e08       ??_C@_03ODNJBKGA@Mar?$AA@  10021e08     libucrt:nlsdata.obj
 0002:00002e0c       ??_C@_03LEOLGMJP@Apr?$AA@  10021e0c     libucrt:nlsdata.obj
 0002:00002e10       ??_C@_03CNMDKL@May?$AA@    10021e10     libucrt:nlsdata.obj
 0002:00002e14       ??_C@_03IDFGHECI@Jun?$AA@  10021e14     libucrt:nlsdata.obj
 0002:00002e18       ??_C@_03LBGABGKK@Jul?$AA@  10021e18     libucrt:nlsdata.obj
 0002:00002e1c       ??_C@_03IFJFEIGA@Aug?$AA@  10021e1c     libucrt:nlsdata.obj
 0002:00002e20       ??_C@_03GGCAPAJC@Sep?$AA@  10021e20     libucrt:nlsdata.obj
 0002:00002e24       ??_C@_03BMAOKBAD@Oct?$AA@  10021e24     libucrt:nlsdata.obj
 0002:00002e28       ??_C@_03JPJOFNIA@Nov?$AA@  10021e28     libucrt:nlsdata.obj
 0002:00002e2c       ??_C@_03MKABNOCG@Dec?$AA@  10021e2c     libucrt:nlsdata.obj
 0002:00002e30       ??_C@_07CGJPFGJA@January?$AA@ 10021e30     libucrt:nlsdata.obj
 0002:00002e38       ??_C@_08GNJGEPFN@February?$AA@ 10021e38     libucrt:nlsdata.obj
 0002:00002e44       ??_C@_05HPCKOFNC@March?$AA@ 10021e44     libucrt:nlsdata.obj
 0002:00002e4c       ??_C@_05DMJDNLEJ@April?$AA@ 10021e4c     libucrt:nlsdata.obj
 0002:00002e54       ??_C@_04CNLMGBGM@June?$AA@ 10021e54     libucrt:nlsdata.obj
 0002:00002e5c       ??_C@_04MIEPOIFP@July?$AA@ 10021e5c     libucrt:nlsdata.obj
 0002:00002e64       ??_C@_06LBBHFDDG@August?$AA@ 10021e64     libucrt:nlsdata.obj
 0002:00002e6c       ??_C@_09BHHEALKD@September?$AA@ 10021e6c     libucrt:nlsdata.obj
 0002:00002e78       ??_C@_07JJNFCEND@October?$AA@ 10021e78     libucrt:nlsdata.obj
 0002:00002e80       ??_C@_08HCHEGEOA@November?$AA@ 10021e80     libucrt:nlsdata.obj
 0002:00002e8c       ??_C@_08EDHMEBNP@December?$AA@ 10021e8c     libucrt:nlsdata.obj
 0002:00002e98       ??_C@_02DEDBPAFC@AM?$AA@   10021e98     libucrt:nlsdata.obj
 0002:00002e9c       ??_C@_02CJNFDJBF@PM?$AA@   10021e9c     libucrt:nlsdata.obj
 0002:00002ea0       ??_C@_08BPBNCDIB@MM?1dd?1yy?$AA@ 10021ea0     libucrt:nlsdata.obj
 0002:00002eac       ??_C@_0BE@CKGJFCPC@dddd?0?5MMMM?5dd?0?5yyyy?$AA@ 10021eac     libucrt:nlsdata.obj
 0002:00002ec0       ??_C@_08JCCMCCIL@HH?3mm?3ss?$AA@ 10021ec0     libucrt:nlsdata.obj
 0002:00002ecc       ??_C@_17MBGCMIPB@?$AAS?$AAu?$AAn?$AA?$AA@ 10021ecc     libucrt:nlsdata.obj
 0002:00002ed4       ??_C@_17KBOMKBF@?$AAM?$AAo?$AAn?$AA?$AA@ 10021ed4     libucrt:nlsdata.obj
 0002:00002edc       ??_C@_17BMKGEGOJ@?$AAT?$AAu?$AAe?$AA?$AA@ 10021edc     libucrt:nlsdata.obj
 0002:00002ee4       ??_C@_17CJEDCEPE@?$AAW?$AAe?$AAd?$AA?$AA@ 10021ee4     libucrt:nlsdata.obj
 0002:00002eec       ??_C@_17PDPHAADD@?$AAT?$AAh?$AAu?$AA?$AA@ 10021eec     libucrt:nlsdata.obj
 0002:00002ef4       ??_C@_17HFOLPPLP@?$AAF?$AAr?$AAi?$AA?$AA@ 10021ef4     libucrt:nlsdata.obj
 0002:00002efc       ??_C@_17GGIBDPIH@?$AAS?$AAa?$AAt?$AA?$AA@ 10021efc     libucrt:nlsdata.obj
 0002:00002f04       ??_C@_1O@IHNHDHPB@?$AAS?$AAu?$AAn?$AAd?$AAa?$AAy?$AA?$AA@ 10021f04     libucrt:nlsdata.obj
 0002:00002f14       ??_C@_1O@MMNBFLIA@?$AAM?$AAo?$AAn?$AAd?$AAa?$AAy?$AA?$AA@ 10021f14     libucrt:nlsdata.obj
 0002:00002f24       ??_C@_1BA@ENFBFFEK@?$AAT?$AAu?$AAe?$AAs?$AAd?$AAa?$AAy?$AA?$AA@ 10021f24     libucrt:nlsdata.obj
 0002:00002f34       ??_C@_1BE@EBOGMDOH@?$AAW?$AAe?$AAd?$AAn?$AAe?$AAs?$AAd?$AAa?$AAy?$AA?$AA@ 10021f34     libucrt:nlsdata.obj
 0002:00002f48       ??_C@_1BC@HHMNLIHE@?$AAT?$AAh?$AAu?$AAr?$AAs?$AAd?$AAa?$AAy?$AA?$AA@ 10021f48     libucrt:nlsdata.obj
 0002:00002f5c       ??_C@_1O@PDICJHAG@?$AAF?$AAr?$AAi?$AAd?$AAa?$AAy?$AA?$AA@ 10021f5c     libucrt:nlsdata.obj
 0002:00002f6c       ??_C@_1BC@ENMNNPAJ@?$AAS?$AAa?$AAt?$AAu?$AAr?$AAd?$AAa?$AAy?$AA?$AA@ 10021f6c     libucrt:nlsdata.obj
 0002:00002f80       ??_C@_17DKNBKCHM@?$AAJ?$AAa?$AAn?$AA?$AA@ 10021f80     libucrt:nlsdata.obj
 0002:00002f88       ??_C@_17LMDJEKJN@?$AAF?$AAe?$AAb?$AA?$AA@ 10021f88     libucrt:nlsdata.obj
 0002:00002f90       ??_C@_17CKNLEDEC@?$AAM?$AAa?$AAr?$AA?$AA@ 10021f90     libucrt:nlsdata.obj
 0002:00002f98       ??_C@_17LFPOIHDD@?$AAA?$AAp?$AAr?$AA?$AA@ 10021f98     libucrt:nlsdata.obj
 0002:00002fa0       ??_C@_17PNNKMEED@?$AAM?$AAa?$AAy?$AA?$AA@ 10021fa0     libucrt:nlsdata.obj
 0002:00002fa8       ??_C@_17KCJGOCPB@?$AAJ?$AAu?$AAn?$AA?$AA@ 10021fa8     libucrt:nlsdata.obj
 0002:00002fb0       ??_C@_17IJPCKHK@?$AAJ?$AAu?$AAl?$AA?$AA@ 10021fb0     libucrt:nlsdata.obj
 0002:00002fb8       ??_C@_17ICPELBCN@?$AAA?$AAu?$AAg?$AA?$AA@ 10021fb8     libucrt:nlsdata.obj
 0002:00002fc0       ??_C@_17HCHCOKMG@?$AAS?$AAe?$AAp?$AA?$AA@ 10021fc0     libucrt:nlsdata.obj
 0002:00002fc8       ??_C@_17FNLKOI@?$AAO?$AAc?$AAt?$AA?$AA@ 10021fc8     libucrt:nlsdata.obj
 0002:00002fd0       ??_C@_17BBDMLCIG@?$AAN?$AAo?$AAv?$AA?$AA@ 10021fd0     libucrt:nlsdata.obj
 0002:00002fd8       ??_C@_17EGKACKIF@?$AAD?$AAe?$AAc?$AA?$AA@ 10021fd8     libucrt:nlsdata.obj
 0002:00002fe0       ??_C@_1BA@EFMEIEBA@?$AAJ?$AAa?$AAn?$AAu?$AAa?$AAr?$AAy?$AA?$AA@ 10021fe0     libucrt:nlsdata.obj
 0002:00002ff0       ??_C@_1BC@JGDDFFAM@?$AAF?$AAe?$AAb?$AAr?$AAu?$AAa?$AAr?$AAy?$AA?$AA@ 10021ff0     libucrt:nlsdata.obj
 0002:00003004       ??_C@_1M@IKEENEDF@?$AAM?$AAa?$AAr?$AAc?$AAh?$AA?$AA@ 10022004     libucrt:nlsdata.obj
 0002:00003010       ??_C@_1M@GJNLMHFD@?$AAA?$AAp?$AAr?$AAi?$AAl?$AA?$AA@ 10022010     libucrt:nlsdata.obj
 0002:0000301c       ??_C@_19EPFLPGAP@?$AAJ?$AAu?$AAn?$AAe?$AA?$AA@ 1002201c     libucrt:nlsdata.obj
 0002:00003028       ??_C@_19BIFMLPCD@?$AAJ?$AAu?$AAl?$AAy?$AA?$AA@ 10022028     libucrt:nlsdata.obj
 0002:00003034       ??_C@_1O@PAHLKOAC@?$AAA?$AAu?$AAg?$AAu?$AAs?$AAt?$AA?$AA@ 10022034     libucrt:nlsdata.obj
 0002:00003044       ??_C@_1BE@DKAAMBJL@?$AAS?$AAe?$AAp?$AAt?$AAe?$AAm?$AAb?$AAe?$AAr?$AA?$AA@ 10022044     libucrt:nlsdata.obj
 0002:00003058       ??_C@_1BA@EPANDLNG@?$AAO?$AAc?$AAt?$AAo?$AAb?$AAe?$AAr?$AA?$AA@ 10022058     libucrt:nlsdata.obj
 0002:00003068       ??_C@_1BC@BGLIFPF@?$AAN?$AAo?$AAv?$AAe?$AAm?$AAb?$AAe?$AAr?$AA?$AA@ 10022068     libucrt:nlsdata.obj
 0002:0000307c       ??_C@_1BC@FEMKIFH@?$AAD?$AAe?$AAc?$AAe?$AAm?$AAb?$AAe?$AAr?$AA?$AA@ 1002207c     libucrt:nlsdata.obj
 0002:00003090       ??_C@_15ODEHAHHF@?$AAA?$AAM?$AA?$AA@ 10022090     libucrt:nlsdata.obj
 0002:00003098       ??_C@_15CLMNNGEL@?$AAP?$AAM?$AA?$AA@ 10022098     libucrt:nlsdata.obj
 0002:000030a0       ??_C@_1BC@IEBCMHCM@?$AAM?$AAM?$AA?1?$AAd?$AAd?$AA?1?$AAy?$AAy?$AA?$AA@ 100220a0     libucrt:nlsdata.obj
 0002:000030b4       ??_C@_1CI@KNAKOEBC@?$AAd?$AAd?$AAd?$AAd?$AA?0?$AA?5?$AAM?$AAM?$AAM?$AAM?$AA?5?$AAd?$AAd?$AA?0?$AA?5?$AAy?$AAy?$AAy?$AAy?$AA?$AA@ 100220b4     libucrt:nlsdata.obj
 0002:000030dc       ??_C@_1BC@GDGBMEMK@?$AAH?$AAH?$AA?3?$AAm?$AAm?$AA?3?$AAs?$AAs?$AA?$AA@ 100220dc     libucrt:nlsdata.obj
 0002:000030f0       ??_C@_1M@BMHNFIME@?$AAe?$AAn?$AA?9?$AAU?$AAS?$AA?$AA@ 100220f0     libucrt:nlsdata.obj
 0002:00003100       ___lc_time_c               10022100     libucrt:nlsdata.obj
 0002:00003274       ??_C@_1M@HPNHIDJI@?$AAj?$AAa?$AA?9?$AAJ?$AAP?$AA?$AA@ 10022274     libucrt:mbctype.obj
 0002:00003280       ??_C@_1M@BIBDDEMK@?$AAz?$AAh?$AA?9?$AAC?$AAN?$AA?$AA@ 10022280     libucrt:mbctype.obj
 0002:0000328c       ??_C@_1M@JLOOOEGK@?$AAk?$AAo?$AA?9?$AAK?$AAR?$AA?$AA@ 1002228c     libucrt:mbctype.obj
 0002:00003298       ??_C@_1M@CLNBBOPM@?$AAz?$AAh?$AA?9?$AAT?$AAW?$AA?$AA@ 10022298     libucrt:mbctype.obj
 0002:000032a8       __wctype                   100222a8     libucrt:ctype.obj
 0002:000034b0       ___newctype                100224b0     libucrt:ctype.obj
 0002:000037b0       ___newclmap                100227b0     libucrt:ctype.obj
 0002:00003930       ___newcumap                10022930     libucrt:ctype.obj
 0002:000041d0       ??_C@_15EMKDOKLE@?$AAa?$AAr?$AA?$AA@ 100231d0     libucrt:lcidtoname_downlevel.obj
 0002:000041d8       ??_C@_15KNPADPLH@?$AAb?$AAg?$AA?$AA@ 100231d8     libucrt:lcidtoname_downlevel.obj
 0002:000041e0       ??_C@_15EDMHLDMO@?$AAc?$AAa?$AA?$AA@ 100231e0     libucrt:lcidtoname_downlevel.obj
 0002:000041e8       ??_C@_1O@BPEAJADD@?$AAz?$AAh?$AA?9?$AAC?$AAH?$AAS?$AA?$AA@ 100231e8     libucrt:lcidtoname_downlevel.obj
 0002:000041f8       ??_C@_15LJNHCMNK@?$AAc?$AAs?$AA?$AA@ 100231f8     libucrt:lcidtoname_downlevel.obj
 0002:00004200       ??_C@_15FOMCIDHG@?$AAd?$AAa?$AA?$AA@ 10023200     libucrt:lcidtoname_downlevel.obj
 0002:00004208       ??_C@_15NBKABECB@?$AAd?$AAe?$AA?$AA@ 10023208     libucrt:lcidtoname_downlevel.obj
 0002:00004210       ??_C@_15GHPEIIAO@?$AAe?$AAl?$AA?$AA@ 10023210     libucrt:lcidtoname_downlevel.obj
 0002:00004218       ??_C@_15MNPNEAIF@?$AAe?$AAn?$AA?$AA@ 10023218     libucrt:lcidtoname_downlevel.obj
 0002:00004220       ??_C@_15GPIOMPMH@?$AAe?$AAs?$AA?$AA@ 10023220     libucrt:lcidtoname_downlevel.obj
 0002:00004228       ??_C@_15NGLOAKJC@?$AAf?$AAi?$AA?$AA@ 10023228     libucrt:lcidtoname_downlevel.obj
 0002:00004230       ??_C@_15FBKGNKAM@?$AAf?$AAr?$AA?$AA@ 10023230     libucrt:lcidtoname_downlevel.obj
 0002:00004238       ??_C@_15KGGCNEFK@?$AAh?$AAe?$AA?$AA@ 10023238     libucrt:lcidtoname_downlevel.obj
 0002:00004240       ??_C@_15PGHLIDMF@?$AAh?$AAu?$AA?$AA@ 10023240     libucrt:lcidtoname_downlevel.obj
 0002:00004248       ??_C@_15BIEMAPLM@?$AAi?$AAs?$AA?$AA@ 10023248     libucrt:lcidtoname_downlevel.obj
 0002:00004250       ??_C@_15IFJLDHAF@?$AAi?$AAt?$AA?$AA@ 10023250     libucrt:lcidtoname_downlevel.obj
 0002:00004258       ??_C@_15GEMIOCAG@?$AAj?$AAa?$AA?$AA@ 10023258     libucrt:lcidtoname_downlevel.obj
 0002:00004260       ??_C@_15EPELEGJA@?$AAk?$AAo?$AA?$AA@ 10023260     libucrt:lcidtoname_downlevel.obj
 0002:00004268       ??_C@_15NDDHIMN@?$AAn?$AAl?$AA?$AA@ 10023268     libucrt:lcidtoname_downlevel.obj
 0002:00004270       ??_C@_15BPIGNHCD@?$AAn?$AAo?$AA?$AA@ 10023270     libucrt:lcidtoname_downlevel.obj
 0002:00004278       ??_C@_15DEOPBLCG@?$AAp?$AAl?$AA?$AA@ 10023278     libucrt:lcidtoname_downlevel.obj
 0002:00004280       ??_C@_15KBECGEFG@?$AAp?$AAt?$AA?$AA@ 10023280     libucrt:lcidtoname_downlevel.obj
 0002:00004288       ??_C@_15GLJCBFMD@?$AAr?$AAo?$AA?$AA@ 10023288     libucrt:lcidtoname_downlevel.obj
 0002:00004290       ??_C@_15FEDGKCDI@?$AAr?$AAu?$AA?$AA@ 10023290     libucrt:lcidtoname_downlevel.obj
 0002:00004298       ??_C@_15GLKMLLHM@?$AAh?$AAr?$AA?$AA@ 10023298     libucrt:lcidtoname_downlevel.obj
 0002:000042a0       ??_C@_15CPKMFBDB@?$AAs?$AAk?$AA?$AA@ 100232a0     libucrt:lcidtoname_downlevel.obj
 0002:000042a8       ??_C@_15BAAIOGMK@?$AAs?$AAq?$AA?$AA@ 100232a8     libucrt:lcidtoname_downlevel.obj
 0002:000042b0       ??_C@_15INNPNOHD@?$AAs?$AAv?$AA?$AA@ 100232b0     libucrt:lcidtoname_downlevel.obj
 0002:000042b8       ??_C@_15CABMMOGH@?$AAt?$AAh?$AA?$AA@ 100232b8     libucrt:lcidtoname_downlevel.obj
 0002:000042c0       ??_C@_15BPLIHJJM@?$AAt?$AAr?$AA?$AA@ 100232c0     libucrt:lcidtoname_downlevel.obj
 0002:000042c8       ??_C@_15NEOEKKDJ@?$AAu?$AAr?$AA?$AA@ 100232c8     libucrt:lcidtoname_downlevel.obj
 0002:000042d0       ??_C@_15NFICGAJK@?$AAi?$AAd?$AA?$AA@ 100232d0     libucrt:lcidtoname_downlevel.obj
 0002:000042d8       ??_C@_15PJPFLCCM@?$AAu?$AAk?$AA?$AA@ 100232d8     libucrt:lcidtoname_downlevel.obj
 0002:000042e0       ??_C@_15HPJPHDM@?$AAb?$AAe?$AA?$AA@ 100232e0     libucrt:lcidtoname_downlevel.obj
 0002:000042e8       ??_C@_15LCHLGJII@?$AAs?$AAl?$AA?$AA@ 100232e8     libucrt:lcidtoname_downlevel.obj
 0002:000042f0       ??_C@_15PCFJPHHO@?$AAe?$AAt?$AA?$AA@ 100232f0     libucrt:lcidtoname_downlevel.obj
 0002:000042f8       ??_C@_15HPFPGODN@?$AAl?$AAv?$AA?$AA@ 100232f8     libucrt:lcidtoname_downlevel.obj
 0002:00004300       ??_C@_15NFFGKGLG@?$AAl?$AAt?$AA?$AA@ 10023300     libucrt:lcidtoname_downlevel.obj
 0002:00004308       ??_C@_15BDAKCCHN@?$AAf?$AAa?$AA?$AA@ 10023308     libucrt:lcidtoname_downlevel.obj
 0002:00004310       ??_C@_15NFGIAIAJ@?$AAv?$AAi?$AA?$AA@ 10023310     libucrt:lcidtoname_downlevel.obj
 0002:00004318       ??_C@_15LMKNDMHN@?$AAh?$AAy?$AA?$AA@ 10023318     libucrt:lcidtoname_downlevel.obj
 0002:00004320       ??_C@_15IJBHMCFL@?$AAa?$AAz?$AA?$AA@ 10023320     libucrt:lcidtoname_downlevel.obj
 0002:00004328       ??_C@_15EKOFJABL@?$AAe?$AAu?$AA?$AA@ 10023328     libucrt:lcidtoname_downlevel.obj
 0002:00004330       ??_C@_15BGHADCNK@?$AAm?$AAk?$AA?$AA@ 10023330     libucrt:lcidtoname_downlevel.obj
 0002:00004338       ??_C@_15JDNICKHM@?$AAa?$AAf?$AA?$AA@ 10023338     libucrt:lcidtoname_downlevel.obj
 0002:00004340       ??_C@_15KPJEDBKD@?$AAk?$AAa?$AA?$AA@ 10023340     libucrt:lcidtoname_downlevel.obj
 0002:00004348       ??_C@_15PDNFFFEO@?$AAf?$AAo?$AA?$AA@ 10023348     libucrt:lcidtoname_downlevel.obj
 0002:00004350       ??_C@_15OMLEGLOC@?$AAh?$AAi?$AA?$AA@ 10023350     libucrt:lcidtoname_downlevel.obj
 0002:00004358       ??_C@_15IDNNENKK@?$AAm?$AAs?$AA?$AA@ 10023358     libucrt:lcidtoname_downlevel.obj
 0002:00004360       ??_C@_15MACJNBMH@?$AAk?$AAk?$AA?$AA@ 10023360     libucrt:lcidtoname_downlevel.obj
 0002:00004368       ??_C@_15DKDJEOND@?$AAk?$AAy?$AA?$AA@ 10023368     libucrt:lcidtoname_downlevel.obj
 0002:00004370       ??_C@_15DFGDLJBG@?$AAs?$AAw?$AA?$AA@ 10023370     libucrt:lcidtoname_downlevel.obj
 0002:00004378       ??_C@_15BBFAICNG@?$AAu?$AAz?$AA?$AA@ 10023378     libucrt:lcidtoname_downlevel.obj
 0002:00004380       ??_C@_15DKNDCGEA@?$AAt?$AAt?$AA?$AA@ 10023380     libucrt:lcidtoname_downlevel.obj
 0002:00004388       ??_C@_15MGIFMDPL@?$AAp?$AAa?$AA?$AA@ 10023388     libucrt:lcidtoname_downlevel.obj
 0002:00004390       ??_C@_15HCNDBBA@?$AAg?$AAu?$AA?$AA@ 10023390     libucrt:lcidtoname_downlevel.obj
 0002:00004398       ??_C@_15FNBEIBON@?$AAt?$AAa?$AA?$AA@ 10023398     libucrt:lcidtoname_downlevel.obj
 0002:000043a0       ??_C@_15NCHGBGLK@?$AAt?$AAe?$AA?$AA@ 100233a0     libucrt:lcidtoname_downlevel.obj
 0002:000043a8       ??_C@_15PHPHCBPF@?$AAk?$AAn?$AA?$AA@ 100233a8     libucrt:lcidtoname_downlevel.obj
 0002:000043b0       ??_C@_15DLGBCKMP@?$AAm?$AAr?$AA?$AA@ 100233b0     libucrt:lcidtoname_downlevel.obj
 0002:000043b8       ??_C@_15EABBLBFF@?$AAs?$AAa?$AA?$AA@ 100233b8     libucrt:lcidtoname_downlevel.obj
 0002:000043c0       ??_C@_15CBKOMCOI@?$AAm?$AAn?$AA?$AA@ 100233c0     libucrt:lcidtoname_downlevel.obj
 0002:000043c8       ??_C@_15CKDMCJAF@?$AAg?$AAl?$AA?$AA@ 100233c8     libucrt:lcidtoname_downlevel.obj
 0002:000043d0       ??_C@_17CNJFBPG@?$AAk?$AAo?$AAk?$AA?$AA@ 100233d0     libucrt:lcidtoname_downlevel.obj
 0002:000043d8       ??_C@_17FFBJICPL@?$AAs?$AAy?$AAr?$AA?$AA@ 100233d8     libucrt:lcidtoname_downlevel.obj
 0002:000043e0       ??_C@_17KPNDCPAF@?$AAd?$AAi?$AAv?$AA?$AA@ 100233e0     libucrt:lcidtoname_downlevel.obj
 0002:000043e8       ??_C@_11LOCGONAA@?$AA?$AA@ 100233e8     libucrt:lcidtoname_downlevel.obj
 0002:000043ec       ??_C@_1M@OKAHONE@?$AAa?$AAr?$AA?9?$AAS?$AAA?$AA?$AA@ 100233ec     libucrt:lcidtoname_downlevel.obj
 0002:000043f8       ??_C@_1M@FFFIGIGK@?$AAb?$AAg?$AA?9?$AAB?$AAG?$AA?$AA@ 100233f8     libucrt:lcidtoname_downlevel.obj
 0002:00004404       ??_C@_1M@BJNKEDC@?$AAc?$AAa?$AA?9?$AAE?$AAS?$AA?$AA@ 10023404     libucrt:lcidtoname_downlevel.obj
 0002:00004410       ??_C@_1M@IJJHFJHA@?$AAc?$AAs?$AA?9?$AAC?$AAZ?$AA?$AA@ 10023410     libucrt:lcidtoname_downlevel.obj
 0002:0000441c       ??_C@_1M@CLPEOBGI@?$AAd?$AAa?$AA?9?$AAD?$AAK?$AA?$AA@ 1002341c     libucrt:lcidtoname_downlevel.obj
 0002:00004428       ??_C@_1M@MCMADGCB@?$AAd?$AAe?$AA?9?$AAD?$AAE?$AA?$AA@ 10023428     libucrt:lcidtoname_downlevel.obj
 0002:00004434       ??_C@_1M@OOCKEMAM@?$AAe?$AAl?$AA?9?$AAG?$AAR?$AA?$AA@ 10023434     libucrt:lcidtoname_downlevel.obj
 0002:00004440       ??_C@_1M@DDNJFGID@?$AAf?$AAi?$AA?9?$AAF?$AAI?$AA?$AA@ 10023440     libucrt:lcidtoname_downlevel.obj
 0002:0000444c       ??_C@_1M@GLIPPMAC@?$AAf?$AAr?$AA?9?$AAF?$AAR?$AA?$AA@ 1002344c     libucrt:lcidtoname_downlevel.obj
 0002:00004458       ??_C@_1M@GFMCHPE@?$AAh?$AAe?$AA?9?$AAI?$AAL?$AA?$AA@ 10023458     libucrt:lcidtoname_downlevel.obj
 0002:00004464       ??_C@_1M@MHLPGNKM@?$AAh?$AAu?$AA?9?$AAH?$AAU?$AA?$AA@ 10023464     libucrt:lcidtoname_downlevel.obj
 0002:00004470       ??_C@_1M@LPDDNNPN@?$AAi?$AAs?$AA?9?$AAI?$AAS?$AA?$AA@ 10023470     libucrt:lcidtoname_downlevel.obj
 0002:0000447c       ??_C@_1M@MADIPODN@?$AAi?$AAt?$AA?9?$AAI?$AAT?$AA?$AA@ 1002347c     libucrt:lcidtoname_downlevel.obj
 0002:00004488       ??_C@_1M@IHBJJGG@?$AAn?$AAl?$AA?9?$AAN?$AAL?$AA?$AA@ 10023488     libucrt:lcidtoname_downlevel.obj
 0002:00004494       ??_C@_1M@EANAGDL@?$AAn?$AAb?$AA?9?$AAN?$AAO?$AA?$AA@ 10023494     libucrt:lcidtoname_downlevel.obj
 0002:000044a0       ??_C@_1M@NEIEMEGP@?$AAp?$AAl?$AA?9?$AAP?$AAL?$AA?$AA@ 100234a0     libucrt:lcidtoname_downlevel.obj
 0002:000044ac       ??_C@_1M@BOCFIGEP@?$AAp?$AAt?$AA?9?$AAB?$AAR?$AA?$AA@ 100234ac     libucrt:lcidtoname_downlevel.obj
 0002:000044b8       ??_C@_1M@IMPFOPBG@?$AAr?$AAo?$AA?9?$AAR?$AAO?$AA?$AA@ 100234b8     libucrt:lcidtoname_downlevel.obj
 0002:000044c4       ??_C@_1M@IDNNEJMM@?$AAr?$AAu?$AA?9?$AAR?$AAU?$AA?$AA@ 100234c4     libucrt:lcidtoname_downlevel.obj
 0002:000044d0       ??_C@_1M@LILEEOGM@?$AAh?$AAr?$AA?9?$AAH?$AAR?$AA?$AA@ 100234d0     libucrt:lcidtoname_downlevel.obj
 0002:000044dc       ??_C@_1M@FKIFEHPB@?$AAs?$AAk?$AA?9?$AAS?$AAK?$AA?$AA@ 100234dc     libucrt:lcidtoname_downlevel.obj
 0002:000044e8       ??_C@_1M@LJMAMNPJ@?$AAs?$AAq?$AA?9?$AAA?$AAL?$AA?$AA@ 100234e8     libucrt:lcidtoname_downlevel.obj
 0002:000044f4       ??_C@_1M@GIAKDKJK@?$AAs?$AAv?$AA?9?$AAS?$AAE?$AA?$AA@ 100234f4     libucrt:lcidtoname_downlevel.obj
 0002:00004500       ??_C@_1M@MKJKIKCL@?$AAt?$AAh?$AA?9?$AAT?$AAH?$AA?$AA@ 10023500     libucrt:lcidtoname_downlevel.obj
 0002:0000450c       ??_C@_1M@MFLCCMPB@?$AAt?$AAr?$AA?9?$AAT?$AAR?$AA?$AA@ 1002350c     libucrt:lcidtoname_downlevel.obj
 0002:00004518       ??_C@_1M@OIJHDKJN@?$AAu?$AAr?$AA?9?$AAP?$AAK?$AA?$AA@ 10023518     libucrt:lcidtoname_downlevel.obj
 0002:00004524       ??_C@_1M@LHIPCIEK@?$AAi?$AAd?$AA?9?$AAI?$AAD?$AA?$AA@ 10023524     libucrt:lcidtoname_downlevel.obj
 0002:00004530       ??_C@_1M@MFMOBGI@?$AAu?$AAk?$AA?9?$AAU?$AAA?$AA?$AA@ 10023530     libucrt:lcidtoname_downlevel.obj
 0002:0000453c       ??_C@_1M@OBGLJIPL@?$AAb?$AAe?$AA?9?$AAB?$AAY?$AA?$AA@ 1002353c     libucrt:lcidtoname_downlevel.obj
 0002:00004548       ??_C@_1M@BCFAJEAD@?$AAs?$AAl?$AA?9?$AAS?$AAI?$AA?$AA@ 10023548     libucrt:lcidtoname_downlevel.obj
 0002:00004554       ??_C@_1M@FKFFEDDN@?$AAe?$AAt?$AA?9?$AAE?$AAE?$AA?$AA@ 10023554     libucrt:lcidtoname_downlevel.obj
 0002:00004560       ??_C@_1M@KGKKAACI@?$AAl?$AAv?$AA?9?$AAL?$AAV?$AA?$AA@ 10023560     libucrt:lcidtoname_downlevel.obj
 0002:0000456c       ??_C@_1M@IFGBIJO@?$AAl?$AAt?$AA?9?$AAL?$AAT?$AA?$AA@ 1002356c     libucrt:lcidtoname_downlevel.obj
 0002:00004578       ??_C@_1M@FGEAHEDM@?$AAf?$AAa?$AA?9?$AAI?$AAR?$AA?$AA@ 10023578     libucrt:lcidtoname_downlevel.obj
 0002:00004584       ??_C@_1M@KBMAIBFN@?$AAv?$AAi?$AA?9?$AAV?$AAN?$AA?$AA@ 10023584     libucrt:lcidtoname_downlevel.obj
 0002:00004590       ??_C@_1M@GPCBKDJK@?$AAh?$AAy?$AA?9?$AAA?$AAM?$AA?$AA@ 10023590     libucrt:lcidtoname_downlevel.obj
 0002:0000459c       ??_C@_1BG@BECMDDJB@?$AAa?$AAz?$AA?9?$AAA?$AAZ?$AA?9?$AAL?$AAa?$AAt?$AAn?$AA?$AA@ 1002359c     libucrt:lcidtoname_downlevel.obj
 0002:000045b4       ??_C@_1M@MAOFCAEA@?$AAe?$AAu?$AA?9?$AAE?$AAS?$AA?$AA@ 100235b4     libucrt:lcidtoname_downlevel.obj
 0002:000045c0       ??_C@_1M@IGHABKPI@?$AAm?$AAk?$AA?9?$AAM?$AAK?$AA?$AA@ 100235c0     libucrt:lcidtoname_downlevel.obj
 0002:000045cc       ??_C@_1M@IAIGNEJG@?$AAt?$AAn?$AA?9?$AAZ?$AAA?$AA?$AA@ 100235cc     libucrt:lcidtoname_downlevel.obj
 0002:000045d8       ??_C@_1M@IIJCOJFA@?$AAx?$AAh?$AA?9?$AAZ?$AAA?$AA?$AA@ 100235d8     libucrt:lcidtoname_downlevel.obj
 0002:000045e4       ??_C@_1M@LGPJHNJH@?$AAz?$AAu?$AA?9?$AAZ?$AAA?$AA?$AA@ 100235e4     libucrt:lcidtoname_downlevel.obj
 0002:000045f0       ??_C@_1M@HOKAOIO@?$AAa?$AAf?$AA?9?$AAZ?$AAA?$AA?$AA@ 100235f0     libucrt:lcidtoname_downlevel.obj
 0002:000045fc       ??_C@_1M@DPCLHLIE@?$AAk?$AAa?$AA?9?$AAG?$AAE?$AA?$AA@ 100235fc     libucrt:lcidtoname_downlevel.obj
 0002:00004608       ??_C@_1M@BLKMHJBI@?$AAf?$AAo?$AA?9?$AAF?$AAO?$AA?$AA@ 10023608     libucrt:lcidtoname_downlevel.obj
 0002:00004614       ??_C@_1M@LGGJAPPB@?$AAh?$AAi?$AA?9?$AAI?$AAN?$AA?$AA@ 10023614     libucrt:lcidtoname_downlevel.obj
 0002:00004620       ??_C@_1M@FIKPIHFE@?$AAm?$AAt?$AA?9?$AAM?$AAT?$AA?$AA@ 10023620     libucrt:lcidtoname_downlevel.obj
 0002:0000462c       ??_C@_1M@HEGGPBFA@?$AAs?$AAe?$AA?9?$AAN?$AAO?$AA?$AA@ 1002362c     libucrt:lcidtoname_downlevel.obj
 0002:00004638       ??_C@_1M@EIBJEEPA@?$AAm?$AAs?$AA?9?$AAM?$AAY?$AA?$AA@ 10023638     libucrt:lcidtoname_downlevel.obj
 0002:00004644       ??_C@_1M@FHLBGMPP@?$AAk?$AAk?$AA?9?$AAK?$AAZ?$AA?$AA@ 10023644     libucrt:lcidtoname_downlevel.obj
 0002:00004650       ??_C@_1M@NGJJLCGI@?$AAk?$AAy?$AA?9?$AAK?$AAG?$AA?$AA@ 10023650     libucrt:lcidtoname_downlevel.obj
 0002:0000465c       ??_C@_1M@GIENNBFC@?$AAs?$AAw?$AA?9?$AAK?$AAE?$AA?$AA@ 1002365c     libucrt:lcidtoname_downlevel.obj
 0002:00004668       ??_C@_1BG@NDGMJIMJ@?$AAu?$AAz?$AA?9?$AAU?$AAZ?$AA?9?$AAL?$AAa?$AAt?$AAn?$AA?$AA@ 10023668     libucrt:lcidtoname_downlevel.obj
 0002:00004680       ??_C@_1M@IDCCIHBC@?$AAt?$AAt?$AA?9?$AAR?$AAU?$AA?$AA@ 10023680     libucrt:lcidtoname_downlevel.obj
 0002:0000468c       ??_C@_1M@LOICPMOJ@?$AAb?$AAn?$AA?9?$AAI?$AAN?$AA?$AA@ 1002368c     libucrt:lcidtoname_downlevel.obj
 0002:00004698       ??_C@_1M@KPKKNEAH@?$AAp?$AAa?$AA?9?$AAI?$AAN?$AA?$AA@ 10023698     libucrt:lcidtoname_downlevel.obj
 0002:000046a4       ??_C@_1M@PJGPPBOG@?$AAg?$AAu?$AA?9?$AAI?$AAN?$AA?$AA@ 100236a4     libucrt:lcidtoname_downlevel.obj
 0002:000046b0       ??_C@_1M@KMKMOPHI@?$AAt?$AAa?$AA?9?$AAI?$AAN?$AA?$AA@ 100236b0     libucrt:lcidtoname_downlevel.obj
 0002:000046bc       ??_C@_1M@KFEHEPAC@?$AAt?$AAe?$AA?9?$AAI?$AAN?$AA?$AA@ 100236bc     libucrt:lcidtoname_downlevel.obj
 0002:000046c8       ??_C@_1M@CDCLMGHI@?$AAk?$AAn?$AA?9?$AAI?$AAN?$AA?$AA@ 100236c8     libucrt:lcidtoname_downlevel.obj
 0002:000046d4       ??_C@_1M@MIODLDKF@?$AAm?$AAl?$AA?9?$AAI?$AAN?$AA?$AA@ 100236d4     libucrt:lcidtoname_downlevel.obj
 0002:000046e0       ??_C@_1M@PBIEACPO@?$AAm?$AAr?$AA?9?$AAI?$AAN?$AA?$AA@ 100236e0     libucrt:lcidtoname_downlevel.obj
 0002:000046ec       ??_C@_1M@NIDEAGPH@?$AAs?$AAa?$AA?9?$AAI?$AAN?$AA?$AA@ 100236ec     libucrt:lcidtoname_downlevel.obj
 0002:000046f8       ??_C@_1M@FHIHCBIO@?$AAm?$AAn?$AA?9?$AAM?$AAN?$AA?$AA@ 100236f8     libucrt:lcidtoname_downlevel.obj
 0002:00004704       ??_C@_1M@JAIJPENP@?$AAc?$AAy?$AA?9?$AAG?$AAB?$AA?$AA@ 10023704     libucrt:lcidtoname_downlevel.obj
 0002:00004710       ??_C@_1M@PHGFBEPN@?$AAg?$AAl?$AA?9?$AAE?$AAS?$AA?$AA@ 10023710     libucrt:lcidtoname_downlevel.obj
 0002:0000471c       ??_C@_1O@KPIPDNCP@?$AAk?$AAo?$AAk?$AA?9?$AAI?$AAN?$AA?$AA@ 1002371c     libucrt:lcidtoname_downlevel.obj
 0002:0000472c       ??_C@_1O@KNHJLDJA@?$AAs?$AAy?$AAr?$AA?9?$AAS?$AAY?$AA?$AA@ 1002372c     libucrt:lcidtoname_downlevel.obj
 0002:0000473c       ??_C@_1O@MKEKBLAH@?$AAd?$AAi?$AAv?$AA?9?$AAM?$AAV?$AA?$AA@ 1002373c     libucrt:lcidtoname_downlevel.obj
 0002:0000474c       ??_C@_1O@OHDCKDDF@?$AAq?$AAu?$AAz?$AA?9?$AAB?$AAO?$AA?$AA@ 1002374c     libucrt:lcidtoname_downlevel.obj
 0002:0000475c       ??_C@_1M@LEPJNLFD@?$AAn?$AAs?$AA?9?$AAZ?$AAA?$AA?$AA@ 1002375c     libucrt:lcidtoname_downlevel.obj
 0002:00004768       ??_C@_1M@OMLEIIJB@?$AAm?$AAi?$AA?9?$AAN?$AAZ?$AA?$AA@ 10023768     libucrt:lcidtoname_downlevel.obj
 0002:00004774       ??_C@_1M@PMPEAILG@?$AAa?$AAr?$AA?9?$AAI?$AAQ?$AA?$AA@ 10023774     libucrt:lcidtoname_downlevel.obj
 0002:00004780       ??_C@_1M@CNKPNOEE@?$AAd?$AAe?$AA?9?$AAC?$AAH?$AA?$AA@ 10023780     libucrt:lcidtoname_downlevel.obj
 0002:0000478c       ??_C@_1M@LKMGMLKO@?$AAe?$AAn?$AA?9?$AAG?$AAB?$AA?$AA@ 1002378c     libucrt:lcidtoname_downlevel.obj
 0002:00004798       ??_C@_1M@PGKJFFGL@?$AAe?$AAs?$AA?9?$AAM?$AAX?$AA?$AA@ 10023798     libucrt:lcidtoname_downlevel.obj
 0002:000047a4       ??_C@_1M@DNNANBDC@?$AAf?$AAr?$AA?9?$AAB?$AAE?$AA?$AA@ 100237a4     libucrt:lcidtoname_downlevel.obj
 0002:000047b0       ??_C@_1M@HLGMDFHM@?$AAi?$AAt?$AA?9?$AAC?$AAH?$AA?$AA@ 100237b0     libucrt:lcidtoname_downlevel.obj
 0002:000047bc       ??_C@_1M@CLLBGJH@?$AAn?$AAl?$AA?9?$AAB?$AAE?$AA?$AA@ 100237bc     libucrt:lcidtoname_downlevel.obj
 0002:000047c8       ??_C@_1M@BODBOGLF@?$AAn?$AAn?$AA?9?$AAN?$AAO?$AA?$AA@ 100237c8     libucrt:lcidtoname_downlevel.obj
 0002:000047d4       ??_C@_1M@HFFAHKAD@?$AAp?$AAt?$AA?9?$AAP?$AAT?$AA?$AA@ 100237d4     libucrt:lcidtoname_downlevel.obj
 0002:000047e0       ??_C@_1BG@LNOAKHIE@?$AAs?$AAr?$AA?9?$AAS?$AAP?$AA?9?$AAL?$AAa?$AAt?$AAn?$AA?$AA@ 100237e0     libucrt:lcidtoname_downlevel.obj
 0002:000047f8       ??_C@_1M@HBMHBGAK@?$AAs?$AAv?$AA?9?$AAF?$AAI?$AA?$AA@ 100237f8     libucrt:lcidtoname_downlevel.obj
 0002:00004804       ??_C@_1BG@DGCJGJBE@?$AAa?$AAz?$AA?9?$AAA?$AAZ?$AA?9?$AAC?$AAy?$AAr?$AAl?$AA?$AA@ 10023804     libucrt:lcidtoname_downlevel.obj
 0002:0000481c       ??_C@_1M@KEJDAAHB@?$AAs?$AAe?$AA?9?$AAS?$AAE?$AA?$AA@ 1002381c     libucrt:lcidtoname_downlevel.obj
 0002:00004828       ??_C@_1M@HEIBJJAD@?$AAm?$AAs?$AA?9?$AAB?$AAN?$AA?$AA@ 10023828     libucrt:lcidtoname_downlevel.obj
 0002:00004834       ??_C@_1BG@PBGJMCEM@?$AAu?$AAz?$AA?9?$AAU?$AAZ?$AA?9?$AAC?$AAy?$AAr?$AAl?$AA?$AA@ 10023834     libucrt:lcidtoname_downlevel.obj
 0002:0000484c       ??_C@_1O@LAOBCMDF@?$AAq?$AAu?$AAz?$AA?9?$AAE?$AAC?$AA?$AA@ 1002384c     libucrt:lcidtoname_downlevel.obj
 0002:0000485c       ??_C@_1M@POEEMAIO@?$AAa?$AAr?$AA?9?$AAE?$AAG?$AA?$AA@ 1002385c     libucrt:lcidtoname_downlevel.obj
 0002:00004868       ??_C@_1M@EFAKDEDL@?$AAz?$AAh?$AA?9?$AAH?$AAK?$AA?$AA@ 10023868     libucrt:lcidtoname_downlevel.obj
 0002:00004874       ??_C@_1M@HKKIJHGI@?$AAd?$AAe?$AA?9?$AAA?$AAT?$AA?$AA@ 10023874     libucrt:lcidtoname_downlevel.obj
 0002:00004880       ??_C@_1M@KBFBEHJF@?$AAe?$AAn?$AA?9?$AAA?$AAU?$AA?$AA@ 10023880     libucrt:lcidtoname_downlevel.obj
 0002:0000488c       ??_C@_1M@MNPLFAAH@?$AAe?$AAs?$AA?9?$AAE?$AAS?$AA?$AA@ 1002388c     libucrt:lcidtoname_downlevel.obj
 0002:00004898       ??_C@_1M@HJOOJFMA@?$AAf?$AAr?$AA?9?$AAC?$AAA?$AA?$AA@ 10023898     libucrt:lcidtoname_downlevel.obj
 0002:000048a4       ??_C@_1BG@JPOFPNAB@?$AAs?$AAr?$AA?9?$AAS?$AAP?$AA?9?$AAC?$AAy?$AAr?$AAl?$AA?$AA@ 100238a4     libucrt:lcidtoname_downlevel.obj
 0002:000048bc       ??_C@_1M@LNFOCMOB@?$AAs?$AAe?$AA?9?$AAF?$AAI?$AA?$AA@ 100238bc     libucrt:lcidtoname_downlevel.obj
 0002:000048c8       ??_C@_1O@MGJBOAMB@?$AAq?$AAu?$AAz?$AA?9?$AAP?$AAE?$AA?$AA@ 100238c8     libucrt:lcidtoname_downlevel.obj
 0002:000048d8       ??_C@_1M@GJINLBOK@?$AAa?$AAr?$AA?9?$AAL?$AAY?$AA?$AA@ 100238d8     libucrt:lcidtoname_downlevel.obj
 0002:000048e4       ??_C@_1M@GGMNHJNL@?$AAz?$AAh?$AA?9?$AAS?$AAG?$AA?$AA@ 100238e4     libucrt:lcidtoname_downlevel.obj
 0002:000048f0       ??_C@_1M@HOIKODND@?$AAd?$AAe?$AA?9?$AAL?$AAU?$AA?$AA@ 100238f0     libucrt:lcidtoname_downlevel.obj
 0002:000048fc       ??_C@_1M@DDOCCGFG@?$AAe?$AAn?$AA?9?$AAC?$AAA?$AA?$AA@ 100238fc     libucrt:lcidtoname_downlevel.obj
 0002:00004908       ??_C@_1M@BNOEMJLF@?$AAe?$AAs?$AA?9?$AAG?$AAT?$AA?$AA@ 10023908     libucrt:lcidtoname_downlevel.obj
 0002:00004914       ??_C@_1M@EOGNKEK@?$AAf?$AAr?$AA?9?$AAC?$AAH?$AA?$AA@ 10023914     libucrt:lcidtoname_downlevel.obj
 0002:00004920       ??_C@_1M@FLIDJFHL@?$AAh?$AAr?$AA?9?$AAB?$AAA?$AA?$AA@ 10023920     libucrt:lcidtoname_downlevel.obj
 0002:0000492c       ??_C@_1O@FMCELNAJ@?$AAs?$AAm?$AAj?$AA?9?$AAN?$AAO?$AA?$AA@ 1002392c     libucrt:lcidtoname_downlevel.obj
 0002:0000493c       ??_C@_1M@JHGLJMGJ@?$AAa?$AAr?$AA?9?$AAD?$AAZ?$AA?$AA@ 1002393c     libucrt:lcidtoname_downlevel.obj
 0002:00004948       ??_C@_1M@JKKFDCNP@?$AAz?$AAh?$AA?9?$AAM?$AAO?$AA?$AA@ 10023948     libucrt:lcidtoname_downlevel.obj
 0002:00004954       ??_C@_1M@GEEFALPE@?$AAd?$AAe?$AA?9?$AAL?$AAI?$AA?$AA@ 10023954     libucrt:lcidtoname_downlevel.obj
 0002:00004960       ??_C@_1M@IGEOFBG@?$AAe?$AAn?$AA?9?$AAN?$AAZ?$AA?$AA@ 10023960     libucrt:lcidtoname_downlevel.obj
 0002:0000496c       ??_C@_1M@KDBONEHP@?$AAe?$AAs?$AA?9?$AAC?$AAR?$AA?$AA@ 1002396c     libucrt:lcidtoname_downlevel.obj
 0002:00004978       ??_C@_1M@FHMDOHNN@?$AAf?$AAr?$AA?9?$AAL?$AAU?$AA?$AA@ 10023978     libucrt:lcidtoname_downlevel.obj
 0002:00004984       ??_C@_1BG@NFKKMAFG@?$AAb?$AAs?$AA?9?$AAB?$AAA?$AA?9?$AAL?$AAa?$AAt?$AAn?$AA?$AA@ 10023984     libucrt:lcidtoname_downlevel.obj
 0002:0000499c       ??_C@_1O@IMNBEMCI@?$AAs?$AAm?$AAj?$AA?9?$AAS?$AAE?$AA?$AA@ 1002399c     libucrt:lcidtoname_downlevel.obj
 0002:000049ac       ??_C@_1M@DHHMBNDP@?$AAa?$AAr?$AA?9?$AAM?$AAA?$AA?$AA@ 100239ac     libucrt:lcidtoname_downlevel.obj
 0002:000049b8       ??_C@_1M@BNBLJCGH@?$AAe?$AAn?$AA?9?$AAI?$AAE?$AA?$AA@ 100239b8     libucrt:lcidtoname_downlevel.obj
 0002:000049c4       ??_C@_1M@GEPAFMDL@?$AAe?$AAs?$AA?9?$AAP?$AAA?$AA?$AA@ 100239c4     libucrt:lcidtoname_downlevel.obj
 0002:000049d0       ??_C@_1M@OJONDMDL@?$AAf?$AAr?$AA?9?$AAM?$AAC?$AA?$AA@ 100239d0     libucrt:lcidtoname_downlevel.obj
 0002:000049dc       ??_C@_1BG@OBCNFJB@?$AAs?$AAr?$AA?9?$AAB?$AAA?$AA?9?$AAL?$AAa?$AAt?$AAn?$AA?$AA@ 100239dc     libucrt:lcidtoname_downlevel.obj
 0002:000049f4       ??_C@_1O@KEMEEGPO@?$AAs?$AAm?$AAa?$AA?9?$AAN?$AAO?$AA?$AA@ 100239f4     libucrt:lcidtoname_downlevel.obj
 0002:00004a04       ??_C@_1M@ELMGFODK@?$AAa?$AAr?$AA?9?$AAT?$AAN?$AA?$AA@ 10023a04     libucrt:lcidtoname_downlevel.obj
 0002:00004a10       ??_C@_1M@BHDLHFAF@?$AAe?$AAn?$AA?9?$AAZ?$AAA?$AA?$AA@ 10023a10     libucrt:lcidtoname_downlevel.obj
 0002:00004a1c       ??_C@_1M@BMGIGLIF@?$AAe?$AAs?$AA?9?$AAD?$AAO?$AA?$AA@ 10023a1c     libucrt:lcidtoname_downlevel.obj
 0002:00004a28       ??_C@_1BG@CMBHIPBE@?$AAs?$AAr?$AA?9?$AAB?$AAA?$AA?9?$AAC?$AAy?$AAr?$AAl?$AA?$AA@ 10023a28     libucrt:lcidtoname_downlevel.obj
 0002:00004a40       ??_C@_1O@HEDBLHNP@?$AAs?$AAm?$AAa?$AA?9?$AAS?$AAE?$AA?$AA@ 10023a40     libucrt:lcidtoname_downlevel.obj
 0002:00004a50       ??_C@_1M@DAGCADIM@?$AAa?$AAr?$AA?9?$AAO?$AAM?$AA?$AA@ 10023a50     libucrt:lcidtoname_downlevel.obj
 0002:00004a5c       ??_C@_1M@FODLMICG@?$AAe?$AAn?$AA?9?$AAJ?$AAM?$AA?$AA@ 10023a5c     libucrt:lcidtoname_downlevel.obj
 0002:00004a68       ??_C@_1M@DNMLCIHB@?$AAe?$AAs?$AA?9?$AAV?$AAE?$AA?$AA@ 10023a68     libucrt:lcidtoname_downlevel.obj
 0002:00004a74       ??_C@_1O@EOKHMKJK@?$AAs?$AAm?$AAs?$AA?9?$AAF?$AAI?$AA?$AA@ 10023a74     libucrt:lcidtoname_downlevel.obj
 0002:00004a84       ??_C@_1M@CAFJMKOF@?$AAa?$AAr?$AA?9?$AAY?$AAE?$AA?$AA@ 10023a84     libucrt:lcidtoname_downlevel.obj
 0002:00004a90       ??_C@_1M@CBFHIJLI@?$AAe?$AAn?$AA?9?$AAC?$AAB?$AA?$AA@ 10023a90     libucrt:lcidtoname_downlevel.obj
 0002:00004a9c       ??_C@_1M@BGNFLDN@?$AAe?$AAs?$AA?9?$AAC?$AAO?$AA?$AA@ 10023a9c     libucrt:lcidtoname_downlevel.obj
 0002:00004aa8       ??_C@_1O@JMPHMAMC@?$AAs?$AAm?$AAn?$AA?9?$AAF?$AAI?$AA?$AA@ 10023aa8     libucrt:lcidtoname_downlevel.obj
 0002:00004ab8       ??_C@_1M@JLANABKE@?$AAa?$AAr?$AA?9?$AAS?$AAY?$AA?$AA@ 10023ab8     libucrt:lcidtoname_downlevel.obj
 0002:00004ac4       ??_C@_1M@HPKGCFGN@?$AAe?$AAn?$AA?9?$AAB?$AAZ?$AA?$AA@ 10023ac4     libucrt:lcidtoname_downlevel.obj
 0002:00004ad0       ??_C@_1M@OLJCMLGM@?$AAe?$AAs?$AA?9?$AAP?$AAE?$AA?$AA@ 10023ad0     libucrt:lcidtoname_downlevel.obj
 0002:00004adc       ??_C@_1M@MKKGFKLE@?$AAa?$AAr?$AA?9?$AAJ?$AAO?$AA?$AA@ 10023adc     libucrt:lcidtoname_downlevel.obj
 0002:00004ae8       ??_C@_1M@EKPGLDNI@?$AAe?$AAn?$AA?9?$AAT?$AAT?$AA?$AA@ 10023ae8     libucrt:lcidtoname_downlevel.obj
 0002:00004af4       ??_C@_1M@OONGHFHE@?$AAe?$AAs?$AA?9?$AAA?$AAR?$AA?$AA@ 10023af4     libucrt:lcidtoname_downlevel.obj
 0002:00004b00       ??_C@_1M@OOJFGBHE@?$AAa?$AAr?$AA?9?$AAL?$AAB?$AA?$AA@ 10023b00     libucrt:lcidtoname_downlevel.obj
 0002:00004b0c       ??_C@_1M@GCEJHNEG@?$AAe?$AAn?$AA?9?$AAZ?$AAW?$AA?$AA@ 10023b0c     libucrt:lcidtoname_downlevel.obj
 0002:00004b18       ??_C@_1M@JNOCAHJI@?$AAe?$AAs?$AA?9?$AAE?$AAC?$AA?$AA@ 10023b18     libucrt:lcidtoname_downlevel.obj
 0002:00004b24       ??_C@_1M@JEFHPGGB@?$AAa?$AAr?$AA?9?$AAK?$AAW?$AA?$AA@ 10023b24     libucrt:lcidtoname_downlevel.obj
 0002:00004b30       ??_C@_1M@MLKIBJOJ@?$AAe?$AAn?$AA?9?$AAP?$AAH?$AA?$AA@ 10023b30     libucrt:lcidtoname_downlevel.obj
 0002:00004b3c       ??_C@_1M@BDNIPEND@?$AAe?$AAs?$AA?9?$AAC?$AAL?$AA?$AA@ 10023b3c     libucrt:lcidtoname_downlevel.obj
 0002:00004b48       ??_C@_1M@MPNMEKBD@?$AAa?$AAr?$AA?9?$AAA?$AAE?$AA?$AA@ 10023b48     libucrt:lcidtoname_downlevel.obj
 0002:00004b54       ??_C@_1M@KBJALCPI@?$AAe?$AAs?$AA?9?$AAU?$AAY?$AA?$AA@ 10023b54     libucrt:lcidtoname_downlevel.obj
 0002:00004b60       ??_C@_1M@LLCCOAGA@?$AAa?$AAr?$AA?9?$AAB?$AAH?$AA?$AA@ 10023b60     libucrt:lcidtoname_downlevel.obj
 0002:00004b6c       ??_C@_1M@PBFNCDEL@?$AAe?$AAs?$AA?9?$AAP?$AAY?$AA?$AA@ 10023b6c     libucrt:lcidtoname_downlevel.obj
 0002:00004b78       ??_C@_1M@EDGINPNP@?$AAa?$AAr?$AA?9?$AAQ?$AAA?$AA?$AA@ 10023b78     libucrt:lcidtoname_downlevel.obj
 0002:00004b84       ??_C@_1M@MKDBIIJI@?$AAe?$AAs?$AA?9?$AAB?$AAO?$AA?$AA@ 10023b84     libucrt:lcidtoname_downlevel.obj
 0002:00004b90       ??_C@_1M@CPKKEBLD@?$AAe?$AAs?$AA?9?$AAS?$AAV?$AA?$AA@ 10023b90     libucrt:lcidtoname_downlevel.obj
 0002:00004b9c       ??_C@_1M@NDBGMMJL@?$AAe?$AAs?$AA?9?$AAH?$AAN?$AA?$AA@ 10023b9c     libucrt:lcidtoname_downlevel.obj
 0002:00004ba8       ??_C@_1M@JIJIBHDP@?$AAe?$AAs?$AA?9?$AAN?$AAI?$AA?$AA@ 10023ba8     libucrt:lcidtoname_downlevel.obj
 0002:00004bb4       ??_C@_1M@CGFMKEEK@?$AAe?$AAs?$AA?9?$AAP?$AAR?$AA?$AA@ 10023bb4     libucrt:lcidtoname_downlevel.obj
 0002:00004bc0       ??_C@_1O@ICJHKIIK@?$AAz?$AAh?$AA?9?$AAC?$AAH?$AAT?$AA?$AA@ 10023bc0     libucrt:lcidtoname_downlevel.obj
 0002:00004bd0       ??_C@_15CLNEJCE@?$AAs?$AAr?$AA?$AA@ 10023bd0     libucrt:lcidtoname_downlevel.obj
 0002:000052f8       ??_C@_1M@KAHEKEIG@?$AAa?$AAf?$AA?9?$AAz?$AAa?$AA?$AA@ 100242f8     libucrt:lcidtoname_downlevel.obj
 0002:00005304       ??_C@_1M@GIECOABL@?$AAa?$AAr?$AA?9?$AAa?$AAe?$AA?$AA@ 10024304     libucrt:lcidtoname_downlevel.obj
 0002:00005310       ??_C@_1M@BMLMEKGI@?$AAa?$AAr?$AA?9?$AAb?$AAh?$AA?$AA@ 10024310     libucrt:lcidtoname_downlevel.obj
 0002:0000531c       ??_C@_1M@DAPFDGGB@?$AAa?$AAr?$AA?9?$AAd?$AAz?$AA?$AA@ 1002431c     libucrt:lcidtoname_downlevel.obj
 0002:00005328       ??_C@_1M@FJNKGKIG@?$AAa?$AAr?$AA?9?$AAe?$AAg?$AA?$AA@ 10024328     libucrt:lcidtoname_downlevel.obj
 0002:00005334       ??_C@_1M@FLGKKCLO@?$AAa?$AAr?$AA?9?$AAi?$AAq?$AA?$AA@ 10024334     libucrt:lcidtoname_downlevel.obj
 0002:00005340       ??_C@_1M@GNDIPALM@?$AAa?$AAr?$AA?9?$AAj?$AAo?$AA?$AA@ 10024340     libucrt:lcidtoname_downlevel.obj
 0002:0000534c       ??_C@_1M@DDMJFMGJ@?$AAa?$AAr?$AA?9?$AAk?$AAw?$AA?$AA@ 1002434c     libucrt:lcidtoname_downlevel.obj
 0002:00005358       ??_C@_1M@EJALMLHM@?$AAa?$AAr?$AA?9?$AAl?$AAb?$AA?$AA@ 10024358     libucrt:lcidtoname_downlevel.obj
 0002:00005364       ??_C@_1M@MOBDBLOC@?$AAa?$AAr?$AA?9?$AAl?$AAy?$AA?$AA@ 10024364     libucrt:lcidtoname_downlevel.obj
 0002:00005370       ??_C@_1M@JAOCLHDH@?$AAa?$AAr?$AA?9?$AAm?$AAa?$AA?$AA@ 10024370     libucrt:lcidtoname_downlevel.obj
 0002:0000537c       ??_C@_1M@JHPMKJIE@?$AAa?$AAr?$AA?9?$AAo?$AAm?$AA?$AA@ 1002437c     libucrt:lcidtoname_downlevel.obj
 0002:00005388       ??_C@_1M@OEPGHFNH@?$AAa?$AAr?$AA?9?$AAq?$AAa?$AA?$AA@ 10024388     libucrt:lcidtoname_downlevel.obj
 0002:00005394       ??_C@_1M@KJDONENM@?$AAa?$AAr?$AA?9?$AAs?$AAa?$AA?$AA@ 10024394     libucrt:lcidtoname_downlevel.obj
 0002:000053a0       ??_C@_1M@DMJDKLKM@?$AAa?$AAr?$AA?9?$AAs?$AAy?$AA?$AA@ 100243a0     libucrt:lcidtoname_downlevel.obj
 0002:000053ac       ??_C@_1M@OMFIPEDC@?$AAa?$AAr?$AA?9?$AAt?$AAn?$AA?$AA@ 100243ac     libucrt:lcidtoname_downlevel.obj
 0002:000053b8       ??_C@_1M@IHMHGAON@?$AAa?$AAr?$AA?9?$AAy?$AAe?$AA?$AA@ 100243b8     libucrt:lcidtoname_downlevel.obj
 0002:000053c4       ??_C@_1BG@KDCPGJGB@?$AAa?$AAz?$AA?9?$AAa?$AAz?$AA?9?$AAc?$AAy?$AAr?$AAl?$AA?$AA@ 100243c4     libucrt:lcidtoname_downlevel.obj
 0002:000053dc       ??_C@_1BG@IBCKDDOE@?$AAa?$AAz?$AA?9?$AAa?$AAz?$AA?9?$AAl?$AAa?$AAt?$AAn?$AA?$AA@ 100243dc     libucrt:lcidtoname_downlevel.obj
 0002:000053f4       ??_C@_1M@EGPFDCPD@?$AAb?$AAe?$AA?9?$AAb?$AAy?$AA?$AA@ 100243f4     libucrt:lcidtoname_downlevel.obj
 0002:00005400       ??_C@_1M@PCMGMCGC@?$AAb?$AAg?$AA?9?$AAb?$AAg?$AA?$AA@ 10024400     libucrt:lcidtoname_downlevel.obj
 0002:0000540c       ??_C@_1M@BJBMFGOB@?$AAb?$AAn?$AA?9?$AAi?$AAn?$AA?$AA@ 1002440c     libucrt:lcidtoname_downlevel.obj
 0002:00005418       ??_C@_1BG@EAKMMACD@?$AAb?$AAs?$AA?9?$AAb?$AAa?$AA?9?$AAl?$AAa?$AAt?$AAn?$AA?$AA@ 10024418     libucrt:lcidtoname_downlevel.obj
 0002:00005430       ??_C@_1M@KGADAODK@?$AAc?$AAa?$AA?9?$AAe?$AAs?$AA?$AA@ 10024430     libucrt:lcidtoname_downlevel.obj
 0002:0000543c       ??_C@_1M@COAJPDHI@?$AAc?$AAs?$AA?9?$AAc?$AAz?$AA?$AA@ 1002443c     libucrt:lcidtoname_downlevel.obj
 0002:00005448       ??_C@_1M@DHBHFONH@?$AAc?$AAy?$AA?9?$AAg?$AAb?$AA?$AA@ 10024448     libucrt:lcidtoname_downlevel.obj
 0002:00005454       ??_C@_1M@IMGKELGA@?$AAd?$AAa?$AA?9?$AAd?$AAk?$AA?$AA@ 10024454     libucrt:lcidtoname_downlevel.obj
 0002:00005460       ??_C@_1M@NNDGDNGA@?$AAd?$AAe?$AA?9?$AAa?$AAt?$AA?$AA@ 10024460     libucrt:lcidtoname_downlevel.obj
 0002:0000546c       ??_C@_1M@IKDBHEEM@?$AAd?$AAe?$AA?9?$AAc?$AAh?$AA?$AA@ 1002446c     libucrt:lcidtoname_downlevel.obj
 0002:00005478       ??_C@_1M@GFFOJMCJ@?$AAd?$AAe?$AA?9?$AAd?$AAe?$AA?$AA@ 10024478     libucrt:lcidtoname_downlevel.obj
 0002:00005484       ??_C@_1M@MDNLKBPM@?$AAd?$AAe?$AA?9?$AAl?$AAi?$AA?$AA@ 10024484     libucrt:lcidtoname_downlevel.obj
 0002:00005490       ??_C@_1M@NJBEEJNL@?$AAd?$AAe?$AA?9?$AAl?$AAu?$AA?$AA@ 10024490     libucrt:lcidtoname_downlevel.obj
 0002:0000549c       ??_C@_1O@GNNELBAP@?$AAd?$AAi?$AAv?$AA?9?$AAm?$AAv?$AA?$AA@ 1002449c     libucrt:lcidtoname_downlevel.obj
 0002:000054ac       ??_C@_1M@EJLEOGAE@?$AAe?$AAl?$AA?9?$AAg?$AAr?$AA?$AA@ 100244ac     libucrt:lcidtoname_downlevel.obj
 0002:000054b8       ??_C@_1M@GMPONJN@?$AAe?$AAn?$AA?9?$AAa?$AAu?$AA?$AA@ 100244b8     libucrt:lcidtoname_downlevel.obj
 0002:000054c4       ??_C@_1M@NIDIIPGF@?$AAe?$AAn?$AA?9?$AAb?$AAz?$AA?$AA@ 100244c4     libucrt:lcidtoname_downlevel.obj
 0002:000054d0       ??_C@_1M@JEHMIMFO@?$AAe?$AAn?$AA?9?$AAc?$AAa?$AA?$AA@ 100244d0     libucrt:lcidtoname_downlevel.obj
 0002:000054dc       ??_C@_1M@IGMJCDLA@?$AAe?$AAn?$AA?9?$AAc?$AAb?$AA?$AA@ 100244dc     libucrt:lcidtoname_downlevel.obj
 0002:000054e8       ??_C@_1M@BNFIGBKG@?$AAe?$AAn?$AA?9?$AAg?$AAb?$AA?$AA@ 100244e8     libucrt:lcidtoname_downlevel.obj
 0002:000054f4       ??_C@_1M@LKIFDIGP@?$AAe?$AAn?$AA?9?$AAi?$AAe?$AA?$AA@ 100244f4     libucrt:lcidtoname_downlevel.obj
 0002:00005500       ??_C@_1M@PJKFGCCO@?$AAe?$AAn?$AA?9?$AAj?$AAm?$AA?$AA@ 10024500     libucrt:lcidtoname_downlevel.obj
 0002:0000550c       ??_C@_1M@KPPKEPBO@?$AAe?$AAn?$AA?9?$AAn?$AAz?$AA?$AA@ 1002450c     libucrt:lcidtoname_downlevel.obj
 0002:00005518       ??_C@_1M@GMDGLDOB@?$AAe?$AAn?$AA?9?$AAp?$AAh?$AA?$AA@ 10024518     libucrt:lcidtoname_downlevel.obj
 0002:00005524       ??_C@_1M@ONGIBJNA@?$AAe?$AAn?$AA?9?$AAt?$AAt?$AA?$AA@ 10024524     libucrt:lcidtoname_downlevel.obj
 0002:00005530       ??_C@_1M@LLODPCMM@?$AAe?$AAn?$AA?9?$AAu?$AAs?$AA?$AA@ 10024530     libucrt:lcidtoname_downlevel.obj
 0002:0000553c       ??_C@_1M@LAKFNPAN@?$AAe?$AAn?$AA?9?$AAz?$AAa?$AA?$AA@ 1002453c     libucrt:lcidtoname_downlevel.obj
 0002:00005548       ??_C@_1M@MFNHNHEO@?$AAe?$AAn?$AA?9?$AAz?$AAw?$AA?$AA@ 10024548     libucrt:lcidtoname_downlevel.obj
 0002:00005554       ??_C@_1M@EJEINPHM@?$AAe?$AAs?$AA?9?$AAa?$AAr?$AA?$AA@ 10024554     libucrt:lcidtoname_downlevel.obj
 0002:00005560       ??_C@_1M@GNKPCCJA@?$AAe?$AAs?$AA?9?$AAb?$AAo?$AA?$AA@ 10024560     libucrt:lcidtoname_downlevel.obj
 0002:0000556c       ??_C@_1M@LEEGFONL@?$AAe?$AAs?$AA?9?$AAc?$AAl?$AA?$AA@ 1002456c     libucrt:lcidtoname_downlevel.obj
 0002:00005578       ??_C@_1M@KGPDPBDF@?$AAe?$AAs?$AA?9?$AAc?$AAo?$AA?$AA@ 10024578     libucrt:lcidtoname_downlevel.obj
 0002:00005584       ??_C@_1M@EIAHOHH@?$AAe?$AAs?$AA?9?$AAc?$AAr?$AA?$AA@ 10024584     libucrt:lcidtoname_downlevel.obj
 0002:00005590       ??_C@_1M@LLPGMBIN@?$AAe?$AAs?$AA?9?$AAd?$AAo?$AA?$AA@ 10024590     libucrt:lcidtoname_downlevel.obj
 0002:0000559c       ??_C@_1M@DKHMKNJA@?$AAe?$AAs?$AA?9?$AAe?$AAc?$AA?$AA@ 1002459c     libucrt:lcidtoname_downlevel.obj
 0002:000055a8       ??_C@_1M@GKGFPKAP@?$AAe?$AAs?$AA?9?$AAe?$AAs?$AA?$AA@ 100245a8     libucrt:lcidtoname_downlevel.obj
 0002:000055b4       ??_C@_1M@LKHKGDLN@?$AAe?$AAs?$AA?9?$AAg?$AAt?$AA?$AA@ 100245b4     libucrt:lcidtoname_downlevel.obj
 0002:000055c0       ??_C@_1M@HEIIGGJD@?$AAe?$AAs?$AA?9?$AAh?$AAn?$AA?$AA@ 100245c0     libucrt:lcidtoname_downlevel.obj
 0002:000055cc       ??_C@_1M@FBDHPPGD@?$AAe?$AAs?$AA?9?$AAm?$AAx?$AA?$AA@ 100245cc     libucrt:lcidtoname_downlevel.obj
 0002:000055d8       ??_C@_1M@DPAGLNDH@?$AAe?$AAs?$AA?9?$AAn?$AAi?$AA?$AA@ 100245d8     libucrt:lcidtoname_downlevel.obj
 0002:000055e4       ??_C@_1M@MDGOPGDD@?$AAe?$AAs?$AA?9?$AAp?$AAa?$AA?$AA@ 100245e4     libucrt:lcidtoname_downlevel.obj
 0002:000055f0       ??_C@_1M@EMAMGBGE@?$AAe?$AAs?$AA?9?$AAp?$AAe?$AA?$AA@ 100245f0     libucrt:lcidtoname_downlevel.obj
 0002:000055fc       ??_C@_1M@IBMCAOEC@?$AAe?$AAs?$AA?9?$AAp?$AAr?$AA?$AA@ 100245fc     libucrt:lcidtoname_downlevel.obj
 0002:00005608       ??_C@_1M@FGMDIJED@?$AAe?$AAs?$AA?9?$AAp?$AAy?$AA?$AA@ 10024608     libucrt:lcidtoname_downlevel.obj
 0002:00005614       ??_C@_1M@IIDEOLLL@?$AAe?$AAs?$AA?9?$AAs?$AAv?$AA?$AA@ 10024614     libucrt:lcidtoname_downlevel.obj
 0002:00005620       ??_C@_1M@GAOBIPA@?$AAe?$AAs?$AA?9?$AAu?$AAy?$AA?$AA@ 10024620     libucrt:lcidtoname_downlevel.obj
 0002:0000562c       ??_C@_1M@JKFFICHJ@?$AAe?$AAs?$AA?9?$AAv?$AAe?$AA?$AA@ 1002462c     libucrt:lcidtoname_downlevel.obj
 0002:00005638       ??_C@_1M@PNMLOJDF@?$AAe?$AAt?$AA?9?$AAe?$AAe?$AA?$AA@ 10024638     libucrt:lcidtoname_downlevel.obj
 0002:00005644       ??_C@_1M@GHHLIKEI@?$AAe?$AAu?$AA?9?$AAe?$AAs?$AA?$AA@ 10024644     libucrt:lcidtoname_downlevel.obj
 0002:00005650       ??_C@_1M@PBNONODE@?$AAf?$AAa?$AA?9?$AAi?$AAr?$AA?$AA@ 10024650     libucrt:lcidtoname_downlevel.obj
 0002:0000565c       ??_C@_1M@JEEHPMIL@?$AAf?$AAi?$AA?9?$AAf?$AAi?$AA?$AA@ 1002465c     libucrt:lcidtoname_downlevel.obj
 0002:00005668       ??_C@_1M@LMDCNDBA@?$AAf?$AAo?$AA?9?$AAf?$AAo?$AA?$AA@ 10024668     libucrt:lcidtoname_downlevel.obj
 0002:00005674       ??_C@_1M@JKEOHLDK@?$AAf?$AAr?$AA?9?$AAb?$AAe?$AA?$AA@ 10024674     libucrt:lcidtoname_downlevel.obj
 0002:00005680       ??_C@_1M@NOHADPMI@?$AAf?$AAr?$AA?9?$AAc?$AAa?$AA?$AA@ 10024680     libucrt:lcidtoname_downlevel.obj
 0002:0000568c       ??_C@_1M@KDHIHAEC@?$AAf?$AAr?$AA?9?$AAc?$AAh?$AA?$AA@ 1002468c     libucrt:lcidtoname_downlevel.obj
 0002:00005698       ??_C@_1M@MMBBFGAK@?$AAf?$AAr?$AA?9?$AAf?$AAr?$AA?$AA@ 10024698     libucrt:lcidtoname_downlevel.obj
 0002:000056a4       ??_C@_1M@PAFNENNF@?$AAf?$AAr?$AA?9?$AAl?$AAu?$AA?$AA@ 100246a4     libucrt:lcidtoname_downlevel.obj
 0002:000056b0       ??_C@_1M@EOHDJGDD@?$AAf?$AAr?$AA?9?$AAm?$AAc?$AA?$AA@ 100246b0     libucrt:lcidtoname_downlevel.obj
 0002:000056bc       ??_C@_1M@FAPLLOPF@?$AAg?$AAl?$AA?9?$AAe?$AAs?$AA?$AA@ 100246bc     libucrt:lcidtoname_downlevel.obj
 0002:000056c8       ??_C@_1M@FOPBFLOO@?$AAg?$AAu?$AA?9?$AAi?$AAn?$AA?$AA@ 100246c8     libucrt:lcidtoname_downlevel.obj
 0002:000056d4       ??_C@_1M@KBMCINPM@?$AAh?$AAe?$AA?9?$AAi?$AAl?$AA?$AA@ 100246d4     libucrt:lcidtoname_downlevel.obj
 0002:000056e0       ??_C@_1M@BBPHKFPJ@?$AAh?$AAi?$AA?9?$AAi?$AAn?$AA?$AA@ 100246e0     libucrt:lcidtoname_downlevel.obj
 0002:000056ec       ??_C@_1M@PMBNDPHD@?$AAh?$AAr?$AA?9?$AAb?$AAa?$AA?$AA@ 100246ec     libucrt:lcidtoname_downlevel.obj
 0002:000056f8       ??_C@_1M@BPCKOEGE@?$AAh?$AAr?$AA?9?$AAh?$AAr?$AA?$AA@ 100246f8     libucrt:lcidtoname_downlevel.obj
 0002:00005704       ??_C@_1M@GACBMHKE@?$AAh?$AAu?$AA?9?$AAh?$AAu?$AA?$AA@ 10024704     libucrt:lcidtoname_downlevel.obj
 0002:00005710       ??_C@_1M@MILPAJJC@?$AAh?$AAy?$AA?9?$AAa?$AAm?$AA?$AA@ 10024710     libucrt:lcidtoname_downlevel.obj
 0002:0000571c       ??_C@_1M@BABBICEC@?$AAi?$AAd?$AA?9?$AAi?$AAd?$AA?$AA@ 1002471c     libucrt:lcidtoname_downlevel.obj
 0002:00005728       ??_C@_1M@BIKNHHPF@?$AAi?$AAs?$AA?9?$AAi?$AAs?$AA?$AA@ 10024728     libucrt:lcidtoname_downlevel.obj
 0002:00005734       ??_C@_1M@NMPCJPHE@?$AAi?$AAt?$AA?9?$AAc?$AAh?$AA?$AA@ 10024734     libucrt:lcidtoname_downlevel.obj
 0002:00005740       ??_C@_1M@GHKGFEDF@?$AAi?$AAt?$AA?9?$AAi?$AAt?$AA?$AA@ 10024740     libucrt:lcidtoname_downlevel.obj
 0002:0000574c       ??_C@_1M@NIEJCJJA@?$AAj?$AAa?$AA?9?$AAj?$AAp?$AA?$AA@ 1002474c     libucrt:lcidtoname_downlevel.obj
 0002:00005758       ??_C@_1M@JILFNBIM@?$AAk?$AAa?$AA?9?$AAg?$AAe?$AA?$AA@ 10024758     libucrt:lcidtoname_downlevel.obj
 0002:00005764       ??_C@_1M@PACPMGPH@?$AAk?$AAk?$AA?9?$AAk?$AAz?$AA?$AA@ 10024764     libucrt:lcidtoname_downlevel.obj
 0002:00005770       ??_C@_1M@IELFGMHA@?$AAk?$AAn?$AA?9?$AAi?$AAn?$AA?$AA@ 10024770     libucrt:lcidtoname_downlevel.obj
 0002:0000577c       ??_C@_1O@IBBJHCH@?$AAk?$AAo?$AAk?$AA?9?$AAi?$AAn?$AA?$AA@ 1002477c     libucrt:lcidtoname_downlevel.obj
 0002:0000578c       ??_C@_1M@DMHAEOGC@?$AAk?$AAo?$AA?9?$AAk?$AAr?$AA?$AA@ 1002478c     libucrt:lcidtoname_downlevel.obj
 0002:00005798       ??_C@_1M@HBAHBIGA@?$AAk?$AAy?$AA?9?$AAk?$AAg?$AA?$AA@ 10024798     libucrt:lcidtoname_downlevel.obj
 0002:000057a4       ??_C@_1M@KPMILCJG@?$AAl?$AAt?$AA?9?$AAl?$AAt?$AA?$AA@ 100247a4     libucrt:lcidtoname_downlevel.obj
 0002:000057b0       ??_C@_1M@BDEKKCA@?$AAl?$AAv?$AA?9?$AAl?$AAv?$AA?$AA@ 100247b0     libucrt:lcidtoname_downlevel.obj
 0002:000057bc       ??_C@_1M@ELCKCCJJ@?$AAm?$AAi?$AA?9?$AAn?$AAz?$AA?$AA@ 100247bc     libucrt:lcidtoname_downlevel.obj
 0002:000057c8       ??_C@_1M@CBOOLAPA@?$AAm?$AAk?$AA?9?$AAm?$AAk?$AA?$AA@ 100247c8     libucrt:lcidtoname_downlevel.obj
 0002:000057d4       ??_C@_1M@GPHNBJKN@?$AAm?$AAl?$AA?9?$AAi?$AAn?$AA?$AA@ 100247d4     libucrt:lcidtoname_downlevel.obj
 0002:000057e0       ??_C@_1M@PABJILIG@?$AAm?$AAn?$AA?9?$AAm?$AAn?$AA?$AA@ 100247e0     libucrt:lcidtoname_downlevel.obj
 0002:000057ec       ??_C@_1M@FGBKKIPG@?$AAm?$AAr?$AA?9?$AAi?$AAn?$AA?$AA@ 100247ec     libucrt:lcidtoname_downlevel.obj
 0002:000057f8       ??_C@_1M@NDBPDDAL@?$AAm?$AAs?$AA?9?$AAb?$AAn?$AA?$AA@ 100247f8     libucrt:lcidtoname_downlevel.obj
 0002:00005804       ??_C@_1M@OPIHOOPI@?$AAm?$AAs?$AA?9?$AAm?$AAy?$AA?$AA@ 10024804     libucrt:lcidtoname_downlevel.obj
 0002:00005810       ??_C@_1M@PPDBCNFM@?$AAm?$AAt?$AA?9?$AAm?$AAt?$AA?$AA@ 10024810     libucrt:lcidtoname_downlevel.obj
 0002:0000581c       ??_C@_1M@KDJDKMDD@?$AAn?$AAb?$AA?9?$AAn?$AAo?$AA?$AA@ 1002481c     libucrt:lcidtoname_downlevel.obj
 0002:00005828       ??_C@_1M@KFCFLMJP@?$AAn?$AAl?$AA?9?$AAb?$AAe?$AA?$AA@ 10024828     libucrt:lcidtoname_downlevel.obj
 0002:00005834       ??_C@_1M@KPOPDDGO@?$AAn?$AAl?$AA?9?$AAn?$AAl?$AA?$AA@ 10024834     libucrt:lcidtoname_downlevel.obj
 0002:00005840       ??_C@_1M@LJKPEMLN@?$AAn?$AAn?$AA?9?$AAn?$AAo?$AA?$AA@ 10024840     libucrt:lcidtoname_downlevel.obj
 0002:0000584c       ??_C@_1M@BDGHHBFL@?$AAn?$AAs?$AA?9?$AAz?$AAa?$AA?$AA@ 1002484c     libucrt:lcidtoname_downlevel.obj
 0002:00005858       ??_C@_1M@IDEHOAP@?$AAp?$AAa?$AA?9?$AAi?$AAn?$AA?$AA@ 10024858     libucrt:lcidtoname_downlevel.obj
 0002:00005864       ??_C@_1M@HDBKGOGH@?$AAp?$AAl?$AA?9?$AAp?$AAl?$AA?$AA@ 10024864     libucrt:lcidtoname_downlevel.obj
 0002:00005870       ??_C@_1M@LJLLCMEH@?$AAp?$AAt?$AA?9?$AAb?$AAr?$AA?$AA@ 10024870     libucrt:lcidtoname_downlevel.obj
 0002:0000587c       ??_C@_1M@NCMONAAL@?$AAp?$AAt?$AA?9?$AAp?$AAt?$AA?$AA@ 1002487c     libucrt:lcidtoname_downlevel.obj
 0002:00005888       ??_C@_1O@EAKMAJDN@?$AAq?$AAu?$AAz?$AA?9?$AAb?$AAo?$AA?$AA@ 10024888     libucrt:lcidtoname_downlevel.obj
 0002:00005898       ??_C@_1O@BHHPIGDN@?$AAq?$AAu?$AAz?$AA?9?$AAe?$AAc?$AA?$AA@ 10024898     libucrt:lcidtoname_downlevel.obj
 0002:000058a8       ??_C@_1O@GBAPEKMJ@?$AAq?$AAu?$AAz?$AA?9?$AAp?$AAe?$AA?$AA@ 100248a8     libucrt:lcidtoname_downlevel.obj
 0002:000058b8       ??_C@_1M@CLGLEFBO@?$AAr?$AAo?$AA?9?$AAr?$AAo?$AA?$AA@ 100248b8     libucrt:lcidtoname_downlevel.obj
 0002:000058c4       ??_C@_1M@CEEDODME@?$AAr?$AAu?$AA?9?$AAr?$AAu?$AA?$AA@ 100248c4     libucrt:lcidtoname_downlevel.obj
 0002:000058d0       ??_C@_1M@HPKKKMPP@?$AAs?$AAa?$AA?9?$AAi?$AAn?$AA?$AA@ 100248d0     libucrt:lcidtoname_downlevel.obj
 0002:000058dc       ??_C@_1M@BKMAIGOJ@?$AAs?$AAe?$AA?9?$AAf?$AAi?$AA?$AA@ 100248dc     libucrt:lcidtoname_downlevel.obj
 0002:000058e8       ??_C@_1M@NDPIFLFI@?$AAs?$AAe?$AA?9?$AAn?$AAo?$AA?$AA@ 100248e8     libucrt:lcidtoname_downlevel.obj
 0002:000058f4       ??_C@_1M@DANKKHJ@?$AAs?$AAe?$AA?9?$AAs?$AAe?$AA?$AA@ 100248f4     libucrt:lcidtoname_downlevel.obj
 0002:00005900       ??_C@_1M@PNBLONPJ@?$AAs?$AAk?$AA?9?$AAs?$AAk?$AA?$AA@ 10024900     libucrt:lcidtoname_downlevel.obj
 0002:0000590c       ??_C@_1M@LFMODOAL@?$AAs?$AAl?$AA?9?$AAs?$AAi?$AA?$AA@ 1002490c     libucrt:lcidtoname_downlevel.obj
 0002:00005918       ??_C@_1O@DFKOMPG@?$AAs?$AAm?$AAa?$AA?9?$AAn?$AAo?$AA?$AA@ 10024918     libucrt:lcidtoname_downlevel.obj
 0002:00005928       ??_C@_1O@NDKPBNNH@?$AAs?$AAm?$AAa?$AA?9?$AAs?$AAe?$AA?$AA@ 10024928     libucrt:lcidtoname_downlevel.obj
 0002:00005938       ??_C@_1O@PLLKBHAB@?$AAs?$AAm?$AAj?$AA?9?$AAn?$AAo?$AA?$AA@ 10024938     libucrt:lcidtoname_downlevel.obj
 0002:00005948       ??_C@_1O@CLEPOGCA@?$AAs?$AAm?$AAj?$AA?9?$AAs?$AAe?$AA?$AA@ 10024948     libucrt:lcidtoname_downlevel.obj
 0002:00005958       ??_C@_1O@DLGJGKMK@?$AAs?$AAm?$AAn?$AA?9?$AAf?$AAi?$AA?$AA@ 10024958     libucrt:lcidtoname_downlevel.obj
 0002:00005968       ??_C@_1O@OJDJGAJC@?$AAs?$AAm?$AAs?$AA?9?$AAf?$AAi?$AA?$AA@ 10024968     libucrt:lcidtoname_downlevel.obj
 0002:00005978       ??_C@_1M@BOFOGHPB@?$AAs?$AAq?$AA?9?$AAa?$AAl?$AA?$AA@ 10024978     libucrt:lcidtoname_downlevel.obj
 0002:00005984       ??_C@_1BG@LJBBIPGB@?$AAs?$AAr?$AA?9?$AAb?$AAa?$AA?9?$AAc?$AAy?$AAr?$AAl?$AA?$AA@ 10024984     libucrt:lcidtoname_downlevel.obj
 0002:0000599c       ??_C@_1BG@JLBENFOE@?$AAs?$AAr?$AA?9?$AAb?$AAa?$AA?9?$AAl?$AAa?$AAt?$AAn?$AA?$AA@ 1002499c     libucrt:lcidtoname_downlevel.obj
 0002:000059b4       ??_C@_1BG@KODPNHE@?$AAs?$AAr?$AA?9?$AAs?$AAp?$AA?9?$AAc?$AAy?$AAr?$AAl?$AA?$AA@ 100249b4     libucrt:lcidtoname_downlevel.obj
 0002:000059cc       ??_C@_1BG@CIOGKHPB@?$AAs?$AAr?$AA?9?$AAs?$AAp?$AA?9?$AAl?$AAa?$AAt?$AAn?$AA?$AA@ 100249cc     libucrt:lcidtoname_downlevel.obj
 0002:000059e4       ??_C@_1M@NGFJLMAC@?$AAs?$AAv?$AA?9?$AAf?$AAi?$AA?$AA@ 100249e4     libucrt:lcidtoname_downlevel.obj
 0002:000059f0       ??_C@_1M@MPJEJAJC@?$AAs?$AAv?$AA?9?$AAs?$AAe?$AA?$AA@ 100249f0     libucrt:lcidtoname_downlevel.obj
 0002:000059fc       ??_C@_1M@MPNDHLFK@?$AAs?$AAw?$AA?9?$AAk?$AAe?$AA?$AA@ 100249fc     libucrt:lcidtoname_downlevel.obj
 0002:00005a08       ??_C@_1O@KOHBJJI@?$AAs?$AAy?$AAr?$AA?9?$AAs?$AAy?$AA?$AA@ 10024a08     libucrt:lcidtoname_downlevel.obj
 0002:00005a18       ??_C@_1M@LDCEFHA@?$AAt?$AAa?$AA?9?$AAi?$AAn?$AA?$AA@ 10024a18     libucrt:lcidtoname_downlevel.obj
 0002:00005a24       ??_C@_1M@CNJOFAK@?$AAt?$AAe?$AA?9?$AAi?$AAn?$AA?$AA@ 10024a24     libucrt:lcidtoname_downlevel.obj
 0002:00005a30       ??_C@_1M@GNAECACD@?$AAt?$AAh?$AA?9?$AAt?$AAh?$AA?$AA@ 10024a30     libucrt:lcidtoname_downlevel.obj
 0002:00005a3c       ??_C@_1M@CHBIHOJO@?$AAt?$AAn?$AA?9?$AAz?$AAa?$AA?$AA@ 10024a3c     libucrt:lcidtoname_downlevel.obj
 0002:00005a48       ??_C@_1M@GCCMIGPJ@?$AAt?$AAr?$AA?9?$AAt?$AAr?$AA?$AA@ 10024a48     libucrt:lcidtoname_downlevel.obj
 0002:00005a54       ??_C@_1M@CELMCNBK@?$AAt?$AAt?$AA?9?$AAr?$AAu?$AA?$AA@ 10024a54     libucrt:lcidtoname_downlevel.obj
 0002:00005a60       ??_C@_1M@KLMCELGA@?$AAu?$AAk?$AA?9?$AAu?$AAa?$AA?$AA@ 10024a60     libucrt:lcidtoname_downlevel.obj
 0002:00005a6c       ??_C@_1M@EPAJJAJF@?$AAu?$AAr?$AA?9?$AAp?$AAk?$AA?$AA@ 10024a6c     libucrt:lcidtoname_downlevel.obj
 0002:00005a78       ??_C@_1BG@GEGPMCDJ@?$AAu?$AAz?$AA?9?$AAu?$AAz?$AA?9?$AAc?$AAy?$AAr?$AAl?$AA?$AA@ 10024a78     libucrt:lcidtoname_downlevel.obj
 0002:00005a90       ??_C@_1BG@EGGKJILM@?$AAu?$AAz?$AA?9?$AAu?$AAz?$AA?9?$AAl?$AAa?$AAt?$AAn?$AA?$AA@ 10024a90     libucrt:lcidtoname_downlevel.obj
 0002:00005aa8       ??_C@_1M@GFOCLFF@?$AAv?$AAi?$AA?9?$AAv?$AAn?$AA?$AA@ 10024aa8     libucrt:lcidtoname_downlevel.obj
 0002:00005ab4       ??_C@_1M@CPAMEDFI@?$AAx?$AAh?$AA?9?$AAz?$AAa?$AA?$AA@ 10024ab4     libucrt:lcidtoname_downlevel.obj
 0002:00005ac0       ??_C@_1O@EBKIFIGN@?$AAz?$AAh?$AA?9?$AAc?$AAh?$AAs?$AA?$AA@ 10024ac0     libucrt:lcidtoname_downlevel.obj
 0002:00005ad0       ??_C@_1O@NMHPGANE@?$AAz?$AAh?$AA?9?$AAc?$AAh?$AAt?$AA?$AA@ 10024ad0     libucrt:lcidtoname_downlevel.obj
 0002:00005ae0       ??_C@_1M@LPINJOMC@?$AAz?$AAh?$AA?9?$AAc?$AAn?$AA?$AA@ 10024ae0     libucrt:lcidtoname_downlevel.obj
 0002:00005aec       ??_C@_1M@OCJEJODD@?$AAz?$AAh?$AA?9?$AAh?$AAk?$AA?$AA@ 10024aec     libucrt:lcidtoname_downlevel.obj
 0002:00005af8       ??_C@_1M@DNDLJINH@?$AAz?$AAh?$AA?9?$AAm?$AAo?$AA?$AA@ 10024af8     libucrt:lcidtoname_downlevel.obj
 0002:00005b04       ??_C@_1M@MBFDNDND@?$AAz?$AAh?$AA?9?$AAs?$AAg?$AA?$AA@ 10024b04     libucrt:lcidtoname_downlevel.obj
 0002:00005b10       ??_C@_1M@IMEPLEPE@?$AAz?$AAh?$AA?9?$AAt?$AAw?$AA?$AA@ 10024b10     libucrt:lcidtoname_downlevel.obj
 0002:00005b1c       ??_C@_1M@BBGHNHJP@?$AAz?$AAu?$AA?9?$AAz?$AAa?$AA?$AA@ 10024b1c     libucrt:lcidtoname_downlevel.obj
 0002:00005b28       ?large_power_data@?1??multiply_by_power_of_ten@__crt_strtox@@YA_NAAUbig_integer@2@I@Z@4QBIB 10024b28     libucrt:cfout.obj
 0002:00006430       ?large_power_indices@?1??multiply_by_power_of_ten@__crt_strtox@@YA_NAAUbig_integer@2@I@Z@4QBUunpack_index@?1??12@YA_N0I@Z@B 10025430     libucrt:cfout.obj
 0002:000064c8       ?small_powers_of_ten@?1??multiply_by_power_of_ten@__crt_strtox@@YA_NAAUbig_integer@2@I@Z@4QBIB 100254c8     libucrt:cfout.obj
 0002:000064ec       ??_C@_01GBGANLPD@0?$AA@    100254ec     libucrt:cfout.obj
 0002:000064f0       ??_C@_05DNEBIAHO@1?$CDINF?$AA@ 100254f0     libucrt:cfout.obj
 0002:000064f8       ??_C@_06IMKFLFPG@1?$CDQNAN?$AA@ 100254f8     libucrt:cfout.obj
 0002:00006500       ??_C@_06PGGFOGJG@1?$CDSNAN?$AA@ 10025500     libucrt:cfout.obj
 0002:00006508       ??_C@_05PHHOCPM@1?$CDIND?$AA@ 10025508     libucrt:cfout.obj
 0002:00006670       __infinity                 10025670     libucrt:87tran.obj
 0002:0000667a       __minfinity                1002567a     libucrt:87tran.obj
 0002:00006684       __logemax                  10025684     libucrt:87tran.obj
 0002:000066aa       __OP_EXPjmptab             100256aa     libucrt:87tran.obj
 0002:000066d0       __indefinite               100256d0     libucrt:87disp.obj
 0002:000066da       __piby2                    100256da     libucrt:87disp.obj
 0002:000066e4       __piby4                    100256e4     libucrt:87disp.obj
 0002:00006718       __DEFAULT_CW_in_mem        10025718     libucrt:common.obj
 0002:0000671a       __pi_by_2_to_61            1002571a     libucrt:common.obj
 0002:00006754       ??_C@_03MGHMBJCF@log?$AA@  10025754     libucrt:libm_error.obj
 0002:00006758       ??_C@_05HGHHAHAP@log10?$AA@ 10025758     libucrt:libm_error.obj
 0002:00006760       ??_C@_03KHJOGHMM@exp?$AA@  10025760     libucrt:libm_error.obj
 0002:00006764       ??_C@_03JGHBODFD@pow?$AA@  10025764     libucrt:libm_error.obj
 0002:00006768       ??_C@_04FIHNOPOL@asin?$AA@ 10025768     libucrt:libm_error.obj
 0002:00006770       ??_C@_04PDIFKINK@acos?$AA@ 10025770     libucrt:libm_error.obj
 0002:00006778       ??_C@_04EIAKFFMI@sqrt?$AA@ 10025778     libucrt:libm_error.obj
 0002:00006780       __real@3ff0000000000000    10025780     libucrt:libm_error.obj
 0002:000067a0       ___acrt_log10_table_t      100257a0     libucrt:log10_tables.obj
 0002:00006bb0       ___acrt_log10_table_cb     10025bb0     libucrt:log10_tables.obj
 0002:00006fc0       __real@3fe0000000000000    10025fc0     libucrt:powhlp.obj
 0002:000070b0       ??_C@_04COOMCNPB@sinh?$AA@ 100260b0     libucrt:fpexcept.obj
 0002:000070b8       ??_C@_04HPJJNFIM@cosh?$AA@ 100260b8     libucrt:fpexcept.obj
 0002:000070c0       ??_C@_04FJHINJAO@tanh?$AA@ 100260c0     libucrt:fpexcept.obj
 0002:000070c8       ??_C@_04MLLJIGOK@atan?$AA@ 100260c8     libucrt:fpexcept.obj
 0002:000070d0       ??_C@_05KNGEOGJB@atan2?$AA@ 100260d0     libucrt:fpexcept.obj
 0002:000070d8       ??_C@_03BLEJJJBH@sin?$AA@  100260d8     libucrt:fpexcept.obj
 0002:000070dc       ??_C@_03LALBNOCG@cos?$AA@  100260dc     libucrt:fpexcept.obj
 0002:000070e0       ??_C@_03IIINPABG@tan?$AA@  100260e0     libucrt:fpexcept.obj
 0002:000070e4       ??_C@_04GFPJNGEK@ceil?$AA@ 100260e4     libucrt:fpexcept.obj
 0002:000070ec       ??_C@_05PBJFFIGL@floor?$AA@ 100260ec     libucrt:fpexcept.obj
 0002:000070f4       ??_C@_04ODHECPBC@fabs?$AA@ 100260f4     libucrt:fpexcept.obj
 0002:000070fc       ??_C@_04EHEDPDJG@modf?$AA@ 100260fc     libucrt:fpexcept.obj
 0002:00007104       ??_C@_05CEJMAHNP@ldexp?$AA@ 10026104     libucrt:fpexcept.obj
 0002:0000710c       ??_C@_05KBKMEMPO@_cabs?$AA@ 1002610c     libucrt:fpexcept.obj
 0002:00007114       ??_C@_06MEIMCGCF@_hypot?$AA@ 10026114     libucrt:fpexcept.obj
 0002:0000711c       ??_C@_04KEPJIHGP@fmod?$AA@ 1002611c     libucrt:fpexcept.obj
 0002:00007124       ??_C@_05GKKHEGJL@frexp?$AA@ 10026124     libucrt:fpexcept.obj
 0002:0000712c       ??_C@_03MJLDFKDL@_y0?$AA@  1002612c     libucrt:fpexcept.obj
 0002:00007130       ??_C@_03NAKIGLHK@_y1?$AA@  10026130     libucrt:fpexcept.obj
 0002:00007134       ??_C@_03ONILCKOB@_yn?$AA@  10026134     libucrt:fpexcept.obj
 0002:00007138       ??_C@_05JGDBENOH@_logb?$AA@ 10026138     libucrt:fpexcept.obj
 0002:00007140       ??_C@_0L@KDOEJCKC@_nextafter?$AA@ 10026140     libucrt:fpexcept.obj
 0002:00007150       __d_inf                    10026150     libucrt:util.obj
 0002:00007158       __d_max                    10026158     libucrt:util.obj
 0002:00007160       __d_mzero                  10026160     libucrt:util.obj
 0002:00007168       ??_C@_1BA@BALFACEM@?$AAC?$AAO?$AAN?$AAO?$AAU?$AAT?$AA$?$AA?$AA@ 10026168     libucrt:initcon.obj
 0002:000071d8       __load_config_used         100261d8     LIBCMT:loadcfg.obj
 0002:00007278       __tls_used                 10026278     LIBCMT:tlssup.obj
 0002:00007290       ??_R4exception@std@@6B@    10026290     LIBCMT:throw_bad_alloc.obj
 0002:000072a4       ??_R3exception@std@@8      100262a4     LIBCMT:throw_bad_alloc.obj
 0002:000072b4       ??_R2exception@std@@8      100262b4     LIBCMT:throw_bad_alloc.obj
 0002:000072bc       ??_R1A@?0A@EA@exception@std@@8 100262bc     LIBCMT:throw_bad_alloc.obj
 0002:000072d8       ??_R4bad_alloc@std@@6B@    100262d8     LIBCMT:throw_bad_alloc.obj
 0002:000072ec       ??_R3bad_alloc@std@@8      100262ec     LIBCMT:throw_bad_alloc.obj
 0002:000072fc       ??_R2bad_alloc@std@@8      100262fc     LIBCMT:throw_bad_alloc.obj
 0002:00007308       ??_R1A@?0A@EA@bad_alloc@std@@8 10026308     LIBCMT:throw_bad_alloc.obj
 0002:00007324       ??_R4bad_array_new_length@std@@6B@ 10026324     LIBCMT:throw_bad_alloc.obj
 0002:00007338       ??_R3bad_array_new_length@std@@8 10026338     LIBCMT:throw_bad_alloc.obj
 0002:00007348       ??_R2bad_array_new_length@std@@8 10026348     LIBCMT:throw_bad_alloc.obj
 0002:00007358       ??_R1A@?0A@EA@bad_array_new_length@std@@8 10026358     LIBCMT:throw_bad_alloc.obj
 0002:00007374       ??_R4type_info@@6B@        10026374     LIBCMT:std_type_info_static.obj
 0002:00007388       ??_R3type_info@@8          10026388     LIBCMT:std_type_info_static.obj
 0002:00007398       ??_R2type_info@@8          10026398     LIBCMT:std_type_info_static.obj
 0002:000073a0       ??_R1A@?0A@EA@type_info@@8 100263a0     LIBCMT:std_type_info_static.obj
 0002:000073bc       ??_R4bad_exception@std@@6B@ 100263bc     libvcruntime:frame.obj
 0002:000073d0       ??_R3bad_exception@std@@8  100263d0     libvcruntime:frame.obj
 0002:000073e0       ??_R2bad_exception@std@@8  100263e0     libvcruntime:frame.obj
 0002:000073ec       ??_R1A@?0A@EA@bad_exception@std@@8 100263ec     libvcruntime:frame.obj
 0002:00007410       ___safe_se_handler_table   10026410     <linker-defined>
 0002:00007808       ___rtc_iaa                 10026808     LIBCMT:_initsect_.obj
 0002:0000780c       ___rtc_izz                 1002680c     LIBCMT:_initsect_.obj
 0002:00007810       ___rtc_taa                 10026810     LIBCMT:_initsect_.obj
 0002:00007814       ___rtc_tzz                 10026814     LIBCMT:_initsect_.obj
 0002:00007818       __tls_start                10026818     LIBCMT:tlssup.obj
 0002:0000781c       __Init_thread_epoch        1002681c     LIBCMT:thread_safe_statics.obj
 0002:00007820       __tls_end                  10026820     LIBCMT:tlssup.obj
 0002:0000793c       __TI2?AVbad_alloc@std@@    1002693c     LIBCMT:throw_bad_alloc.obj
 0002:0000794c       __CTA2?AVbad_alloc@std@@   1002694c     LIBCMT:throw_bad_alloc.obj
 0002:00007958       __CT??_R0?AVbad_alloc@std@@@8??0bad_alloc@std@@QAE@ABV01@@Z12 10026958     LIBCMT:throw_bad_alloc.obj
 0002:00007974       __CT??_R0?AVexception@std@@@8??0exception@std@@QAE@ABV01@@Z12 10026974     LIBCMT:throw_bad_alloc.obj
 0002:00007990       __TI3?AVbad_array_new_length@std@@ 10026990     LIBCMT:throw_bad_alloc.obj
 0002:000079a0       __CTA3?AVbad_array_new_length@std@@ 100269a0     LIBCMT:throw_bad_alloc.obj
 0002:000079b0       __CT??_R0?AVbad_array_new_length@std@@@8??0bad_array_new_length@std@@QAE@ABV01@@Z12 100269b0     LIBCMT:throw_bad_alloc.obj
 0002:00007ab4       __TI2?AVbad_exception@std@@ 10026ab4     libvcruntime:frame.obj
 0002:00007ac4       __CTA2?AVbad_exception@std@@ 10026ac4     libvcruntime:frame.obj
 0002:00007ad0       __CT??_R0?AVbad_exception@std@@@8??0bad_exception@std@@QAE@ABV01@@Z12 10026ad0     libvcruntime:frame.obj
 0002:00007e4c       ___pobjMapEntryFirst       10026e4c     OposVariant.obj
 0002:00007e50       ___pobjMapEntryLast        10026e50     OposVariant.obj
 0002:00007f04       __IMPORT_DESCRIPTOR_KERNEL32 10026f04     kernel32:KERNEL32.dll
 0002:00007f18       __IMPORT_DESCRIPTOR_USER32 10026f18     user32:USER32.dll
 0002:00007f2c       __IMPORT_DESCRIPTOR_GDI32  10026f2c     gdi32:GDI32.dll
 0002:00007f40       __IMPORT_DESCRIPTOR_ADVAPI32 10026f40     advapi32:ADVAPI32.dll
 0002:00007f54       __IMPORT_DESCRIPTOR_ole32  10026f54     ole32:ole32.dll
 0002:00007f68       __IMPORT_DESCRIPTOR_OLEAUT32 10026f68     oleaut32:OLEAUT32.dll
 0002:00007f7c       __NULL_IMPORT_DESCRIPTOR   10026f7c     kernel32:KERNEL32.dll
 0003:00000000       ?_tih@?$IProvideClassInfo2Impl@$1?CLSID_OPOSCAT@@3U_GUID@@B$1?DIID__IOPOSCATEvents@@3U2@B$1?LIBID_OposCAT_CCO@@3U2@B$00$0A@VCComTypeInfoHolder@ATL@@@ATL@@1VCComTypeInfoHolder@2@A 10028000     CAT.obj
 0003:0000001c       ?vszContents@?6??Save@?$IPersistStorageImpl@VCOPOSCAT@@@ATL@@UAGJPAUIStorage@@H@Z@4PB_WB 1002801c     CAT.obj
 0003:00000020       ?wc@?1??GetWndClassInfo@?$CWindowImpl@VCOPOSCAT@@VCWindow@ATL@@V?$CWinTraits@$0FGAAAAAA@$0A@@3@@ATL@@SAAAU_ATL_WNDCLASSINFOW@3@XZ@4U43@A 10028020     CAT.obj
 0003:000000ac       ?s_Claim@?7??GetIDsOfNames@CComTypeInfoHolder@ATL@@QAEJABU_GUID@@PAPA_WIKPAJ@Z@4PA_WA 100280ac     CAT.obj
 0003:000000c4       ?s_Release@?7??GetIDsOfNames@CComTypeInfoHolder@ATL@@QAEJABU_GUID@@PAPA_WIKPAJ@Z@4PA_WA 100280c4     CAT.obj
 0003:000000e0       ?rcDefault@CWindow@ATL@@2UtagRECT@@A 100280e0     CAT.obj
 0003:000000f0       ?_tih@?$IDispatchImpl@UIOPOSCAT@@$1?IID_IOPOSCAT@@3U_GUID@@B$1?LIBID_OposCAT_CCO@@3U3@B$00$0A@VCComTypeInfoHolder@ATL@@@ATL@@1VCComTypeInfoHolder@2@A 100280f0     CAT.obj
 0003:00000158       ?g_ControlVersion@@3JA     10028158     CATImpl.obj
 0003:0000015c       ?g_WindowName@@3PA_WA      1002815c     CATImpl.obj
 0003:00000174       ?g_ControlDescription@@3PADA 10028174     CATImpl.obj
 0003:0000023c       ___scrt_native_dllmain_reason 1002823c     LIBCMT:utility.obj
 0003:00000240       __Init_global_epoch        10028240     LIBCMT:thread_safe_statics.obj
 0003:00000250       ___security_cookie_complement 10028250     LIBCMT:gs_cookie.obj
 0003:00000254       ___security_cookie         10028254     LIBCMT:gs_cookie.obj
 0003:00000258       ___isa_enabled             10028258     LIBCMT:_cpu_disp_.obj
 0003:00000270       __NLG_Destination          10028270     libvcruntime:_exsup_.obj
 0003:00000288       ___abort_behavior          10028288     libucrt:abort.obj
 0003:00000298       __iob                      10028298     libucrt:_file.obj
 0003:00000340       ___acrt_initial_locale_data 10028340     libucrt:nlsdata.obj
 0003:000003f8       ___acrt_initial_locale_pointers 100283f8     libucrt:nlsdata.obj
 0003:00000400       ___acrt_wide_c_locale_string 10028400     libucrt:nlsdata.obj
 0003:00000708       ___acrt_initial_multibyte_data 10028708     libucrt:mbctype.obj
 0003:00000928       __pwctype                  10028928     libucrt:ctype.obj
 0003:0000092c       ___globallocalestatus      1002892c     libucrt:glstatus.obj
 0003:00000930       ___acrt_lconv_static_decimal 10028930     libucrt:localeconv.obj
 0003:00000934       ___acrt_lconv_static_W_decimal 10028934     libucrt:localeconv.obj
 0003:00000938       ___acrt_lconv_c            10028938     libucrt:localeconv.obj
 0003:00000990       ___dcrt_lowio_console_output_handle 10028990     libucrt:initcon.obj
 0003:000009a0       __fltused                  100289a0     LIBCMT:fltused.obj
 0003:000009b0       ??_R0?AVbad_alloc@std@@@8  100289b0     LIBCMT:throw_bad_alloc.obj
 0003:000009cc       ??_R0?AVexception@std@@@8  100289cc     LIBCMT:throw_bad_alloc.obj
 0003:000009e8       ??_R0?AVbad_array_new_length@std@@@8 100289e8     LIBCMT:throw_bad_alloc.obj
 0003:00000a10       ??_R0?AVtype_info@@@8      10028a10     LIBCMT:std_type_info_static.obj
 0003:00000a28       ??_R0?AVbad_exception@std@@@8 10028a28     libvcruntime:frame.obj
 0003:00000a48       ?m_bInitFailed@CAtlBaseModule@ATL@@2_NA 10028a48     OposVariant.obj
 0003:00000a4c       ?_pPerfRegFunc@ATL@@3P6AJPAUHINSTANCE__@@@ZA 10028a4c     OposVariant.obj
 0003:00000a50       ?_pPerfUnRegFunc@ATL@@3P6AJXZA 10028a50     OposVariant.obj
 0003:00000a54       ?_AtlRegisterPerUser@ATL@@3_NA 10028a54     OposVariant.obj
 0003:00000a58       ?_pAtlModule@ATL@@3PAVCAtlModule@1@A 10028a58     OposVariant.obj
 0003:00000a5c       ?_pModule@ATL@@3PAVCComModule@1@A 10028a5c     OposVariant.obj
 0003:00000a60       ?_AtlComModule@ATL@@3VCAtlComModule@1@A 10028a60     OposVariant.obj
 0003:00000a88       ?_AtlWinModule@ATL@@3VCAtlWinModule@1@A 10028a88     OposVariant.obj
 0003:00000ab4       ?_entries@?1??GetConnMap@COPOSCAT@@SAPBU_ATL_CONNMAP_ENTRY@ATL@@PAH@Z@4QBU34@B 10028ab4     CAT.obj
 0003:00000ac0       ?$TSS0@?1??GetConnMap@COPOSCAT@@SAPBU_ATL_CONNMAP_ENTRY@ATL@@PAH@Z@4HA 10028ac0     CAT.obj
 0003:00000ac8       ?_OptionsStorage@?1??__local_stdio_printf_options@@9@4_KA 10028ac8     CAT.obj
 0003:00000ad0       ?m_libid@CAtlModule@ATL@@2U_GUID@@A 10028ad0     CAT.obj
 0003:00000ae0       ?_Module@@3VCComModule@ATL@@A 10028ae0     CAT.obj
 0003:00000b10       ?pConnMap@?$IConnectionPointContainerImpl@VCOPOSCAT@@@ATL@@0PBU_ATL_CONNMAP_ENTRY@2@B 10028b10     CAT.obj
 0003:00000b14       ?s_nInstances@COPOSCAT@@1HA 10028b14     CATImpl.obj
 0003:00000b18       ___scrt_current_native_startup_state 10028b18     LIBCMT:utility.obj
 0003:00000b1c       ___scrt_native_startup_lock 10028b1c     LIBCMT:utility.obj
 0003:00000e84       __tls_index                10028e84     LIBCMT:tlssup.obj
 0003:00000e8c       ___isa_available           10028e8c     LIBCMT:_cpu_disp_.obj
 0003:00000e90       ___favor                   10028e90     LIBCMT:_cpu_disp_.obj
 0003:00000e94       ___scrt_debugger_hook_flag 10028e94     LIBCMT:utility_desktop.obj
 0003:00000e98       ?__type_info_root_node@@3U__type_info_node@@A 10028e98     LIBCMT:tncleanup.obj
 0003:00000ea0       ?_OptionsStorage@?1??__local_stdio_scanf_options@@9@4_KA 10028ea0     LIBCMT:default_local_stdio_options.obj
 0003:00000ea8       ?_AtlBaseModule@ATL@@3VCAtlBaseModule@1@A 10028ea8     atls:atlbase.obj
 0003:00000ee0       ?__AtlThunkPool@@3PAT_SLIST_HEADER@@A 10028ee0     atls:atlthunk.obj
 0003:00000ef8       ___@@_PchSym_@00@UyrmzirvhUrmgvinvwrzgvUexgllohUzgohOmzgrevkilqPBACIAJCBDBUlyqiUcIGUhgwzucOlyq@4B2008FD98C1DD4 10028ef8     atls:stdafx.obj
 0003:00000efc       ___pPurecall               10028efc     libvcruntime:purevirt_data.obj
 0003:00000f64       ?pArgList@UnDecorator@@0PAVReplicator@@A 10028f64     libvcruntime:undname.obj
 0003:00000f68       ?pZNameList@UnDecorator@@0PAVReplicator@@A 10028f68     libvcruntime:undname.obj
 0003:00000f6c       ?pTemplateArgList@UnDecorator@@0PAVReplicator@@A 10028f6c     libvcruntime:undname.obj
 0003:00000f70       ?gName@UnDecorator@@0PBDB  10028f70     libvcruntime:undname.obj
 0003:00000f74       ?name@UnDecorator@@0PBDB   10028f74     libvcruntime:undname.obj
 0003:00000f78       ?disableFlags@UnDecorator@@0KA 10028f78     libvcruntime:undname.obj
 0003:00000f7c       ?fExplicitTemplateParams@UnDecorator@@0_NA 10028f7c     libvcruntime:undname.obj
 0003:00000f7d       ?fGetTemplateArgumentList@UnDecorator@@0_NA 10028f7d     libvcruntime:undname.obj
 0003:00000f80       ?m_pGetParameter@UnDecorator@@0P6APADJ@ZA 10028f80     libvcruntime:undname.obj
 0003:00000f84       ?m_CHPENameOffset@UnDecorator@@0KA 10028f84     libvcruntime:undname.obj
 0003:00000f88       ?m_recursionLevel@UnDecorator@@0KA 10028f88     libvcruntime:undname.obj
 0003:00000fa0       ?__WinRTOutOfMemoryExceptionCallback@@3P6GPAXXZA 10028fa0     libvcruntime:ehhelpers.obj
 0003:00000fb0       ?c_exit_complete@?1???R<lambda_6e4b09c48022b2350581041d5f6b0c4c>@@QBE@XZ@4_NA 10028fb0     libucrt:exit.obj
 0003:000010c0       __environ_table            100290c0     libucrt:environment_initialization.obj
 0003:000010c4       __wenviron_table           100290c4     libucrt:environment_initialization.obj
 0003:000010c8       ___dcrt_initial_wide_environment 100290c8     libucrt:environment_initialization.obj
 0003:000010cc       ___dcrt_initial_narrow_environment 100290cc     libucrt:environment_initialization.obj
 0003:000010d0       ___acrt_atexit_table       100290d0     libucrt:onexit.obj
 0003:000010dc       ___acrt_at_quick_exit_table 100290dc     libucrt:onexit.obj
 0003:000011c8       __nstream                  100291c8     libucrt:_file.obj
 0003:000011cc       ___piob                    100291cc     libucrt:_file.obj
 0003:000011d4       ___acrt_stdout_buffer      100291d4     libucrt:_sftbuf.obj
 0003:000011d8       ___acrt_stderr_buffer      100291d8     libucrt:_sftbuf.obj
 0003:000011dc       ___acrt_locale_changed_data 100291dc     libucrt:wsetlocale.obj
 0003:000011e0       ___acrt_current_locale_data 100291e0     libucrt:nlsdata.obj
 0003:000011e8       ___pioinfo                 100291e8     libucrt:ioinit.obj
 0003:000013e8       __nhandle                  100293e8     libucrt:ioinit.obj
 0003:00001544       __mbctype                  10029544     libucrt:mbctype.obj
 0003:00001548       __mbcasemap                10029548     libucrt:mbctype.obj
 0003:0000154c       ___acrt_current_multibyte_data 1002954c     libucrt:mbctype.obj
 0003:00001558       ___argc                    10029558     libucrt:argv_data.obj
 0003:0000155c       ___argv                    1002955c     libucrt:argv_data.obj
 0003:00001560       ___wargv                   10029560     libucrt:argv_data.obj
 0003:00001564       __acmdln                   10029564     libucrt:argv_data.obj
 0003:00001568       __wcmdln                   10029568     libucrt:argv_data.obj
 0003:0000156c       __pgmptr                   1002956c     libucrt:argv_data.obj
 0003:00001570       ___acrt_heap               10029570     libucrt:heap_handle.obj
 0003:0000158c       ___acrt_lconv_static_null  1002958c     libucrt:localeconv.obj
 0003:00001590       ___acrt_lconv_static_W_null 10029590     libucrt:localeconv.obj
 0003:00001598       ___fastflag                10029598     libucrt:fp_flags.obj
 0003:000015a0       ___dyn_tls_init_callback   100295a0     <common>
 0003:000015a4       ___scrt_ucrt_dll_is_in_use 100295a4     <common>
 0003:000015a8       __pmatherr                 100295a8     <common>
 0003:000015ac       ___use_sse2_mathfcns       100295ac     <common>

 entry point at        0001:0000c57d

 Static symbols

 0000:fffce000       .debug$S                   10000000     kernel32:KERNEL32.dll
 0000:fffce000       .debug$S                   10000000     kernel32:KERNEL32.dll
 0000:fffce000       .debug$S                   10000000     kernel32:KERNEL32.dll
 0000:fffce000       .debug$S                   10000000     kernel32:KERNEL32.dll
 0000:fffce000       .debug$S                   10000000     kernel32:KERNEL32.dll
 0000:fffce000       .debug$S                   10000000     kernel32:KERNEL32.dll
 0000:fffce000       .debug$S                   10000000     kernel32:KERNEL32.dll
 0000:fffce000       .debug$S                   10000000     kernel32:KERNEL32.dll
 0000:fffce000       .debug$S                   10000000     kernel32:KERNEL32.dll
 0000:fffce000       .debug$S                   10000000     kernel32:KERNEL32.dll
 0000:fffce000       .debug$S                   10000000     kernel32:KERNEL32.dll
 0000:fffce000       .debug$S                   10000000     kernel32:KERNEL32.dll
 0000:fffce000       .debug$S                   10000000     kernel32:KERNEL32.dll
 0000:fffce000       .debug$S                   10000000     kernel32:KERNEL32.dll
 0000:fffce000       .debug$S                   10000000     kernel32:KERNEL32.dll
 0000:fffce000       .debug$S                   10000000     OPOSCAT.exp
 0000:fffce000       .debug$S                   10000000     kernel32:KERNEL32.dll
 0000:fffce000       .debug$S                   10000000     kernel32:KERNEL32.dll
 0000:fffce000       .debug$S                   10000000     kernel32:KERNEL32.dll
 0000:fffce000       .debug$S                   10000000     kernel32:KERNEL32.dll
 0000:fffce000       .debug$S                   10000000     kernel32:KERNEL32.dll
 0000:fffce000       .debug$S                   10000000     kernel32:KERNEL32.dll
 0000:fffce000       .debug$S                   10000000     kernel32:KERNEL32.dll
 0000:fffce000       .debug$S                   10000000     kernel32:KERNEL32.dll
 0000:fffce000       .debug$S                   10000000     kernel32:KERNEL32.dll
 0000:fffce000       .debug$S                   10000000     kernel32:KERNEL32.dll
 0000:fffce000       .debug$S                   10000000     kernel32:KERNEL32.dll
 0000:fffce000       .debug$S                   10000000     kernel32:KERNEL32.dll
 0000:fffce000       .debug$S                   10000000     kernel32:KERNEL32.dll
 0000:fffce000       .debug$S                   10000000     kernel32:KERNEL32.dll
 0000:fffce000       .debug$S                   10000000     kernel32:KERNEL32.dll
 0000:fffce000       .debug$S                   10000000     kernel32:KERNEL32.dll
 0000:fffce000       .debug$S                   10000000     kernel32:KERNEL32.dll
 0000:fffce000       .debug$S                   10000000     kernel32:KERNEL32.dll
 0000:fffce000       .debug$S                   10000000     kernel32:KERNEL32.dll
 0000:fffce000       .debug$S                   10000000     kernel32:KERNEL32.dll
 0000:fffce000       .debug$S                   10000000     kernel32:KERNEL32.dll
 0000:fffce000       .debug$S                   10000000     kernel32:KERNEL32.dll
 0000:fffce000       .debug$S                   10000000     kernel32:KERNEL32.dll
 0000:fffce000       .debug$S                   10000000     kernel32:KERNEL32.dll
 0000:fffce000       .debug$S                   10000000     kernel32:KERNEL32.dll
 0000:fffce000       .debug$S                   10000000     kernel32:KERNEL32.dll
 0000:fffce000       .debug$S                   10000000     kernel32:KERNEL32.dll
 0000:fffce000       .debug$S                   10000000     kernel32:KERNEL32.dll
 0000:fffce000       .debug$S                   10000000     kernel32:KERNEL32.dll
 0000:fffce000       .debug$S                   10000000     kernel32:KERNEL32.dll
 0000:fffce000       .debug$S                   10000000     kernel32:KERNEL32.dll
 0000:fffce000       .debug$S                   10000000     kernel32:KERNEL32.dll
 0000:fffce000       .debug$S                   10000000     kernel32:KERNEL32.dll
 0000:fffce000       .debug$S                   10000000     kernel32:KERNEL32.dll
 0000:fffce000       .debug$S                   10000000     kernel32:KERNEL32.dll
 0000:fffce000       .debug$S                   10000000     kernel32:KERNEL32.dll
 0000:fffce000       .debug$S                   10000000     kernel32:KERNEL32.dll
 0000:fffce000       .debug$S                   10000000     kernel32:KERNEL32.dll
 0000:fffce000       .debug$S                   10000000     kernel32:KERNEL32.dll
 0000:fffce000       .debug$S                   10000000     kernel32:KERNEL32.dll
 0000:fffce000       .debug$S                   10000000     kernel32:KERNEL32.dll
 0000:fffce000       .debug$S                   10000000     kernel32:KERNEL32.dll
 0000:fffce000       .debug$S                   10000000     kernel32:KERNEL32.dll
 0000:fffce000       .debug$S                   10000000     kernel32:KERNEL32.dll
 0000:fffce000       .debug$S                   10000000     kernel32:KERNEL32.dll
 0000:fffce000       .debug$S                   10000000     kernel32:KERNEL32.dll
 0000:fffce000       .debug$S                   10000000     kernel32:KERNEL32.dll
 0000:fffce000       .debug$S                   10000000     kernel32:KERNEL32.dll
 0000:fffce000       .debug$S                   10000000     kernel32:KERNEL32.dll
 0000:fffce000       .debug$S                   10000000     kernel32:KERNEL32.dll
 0000:fffce000       .debug$S                   10000000     kernel32:KERNEL32.dll
 0000:fffce000       .debug$S                   10000000     kernel32:KERNEL32.dll
 0000:fffce000       .debug$S                   10000000     kernel32:KERNEL32.dll
 0000:fffce000       .debug$S                   10000000     kernel32:KERNEL32.dll
 0000:fffce000       .debug$S                   10000000     kernel32:KERNEL32.dll
 0000:fffce000       .debug$S                   10000000     kernel32:KERNEL32.dll
 0000:fffce000       .debug$S                   10000000     kernel32:KERNEL32.dll
 0000:fffce000       .debug$S                   10000000     kernel32:KERNEL32.dll
 0000:fffce000       .debug$S                   10000000     kernel32:KERNEL32.dll
 0000:fffce000       .debug$S                   10000000     kernel32:KERNEL32.dll
 0000:fffce000       .debug$S                   10000000     kernel32:KERNEL32.dll
 0000:fffce000       .debug$S                   10000000     kernel32:KERNEL32.dll
 0000:fffce000       .debug$S                   10000000     kernel32:KERNEL32.dll
 0000:fffce000       .debug$S                   10000000     kernel32:KERNEL32.dll
 0000:fffce000       .debug$S                   10000000     kernel32:KERNEL32.dll
 0000:fffce000       .debug$S                   10000000     kernel32:KERNEL32.dll
 0000:fffce000       .debug$S                   10000000     kernel32:KERNEL32.dll
 0000:fffce000       .debug$S                   10000000     kernel32:KERNEL32.dll
 0000:fffce000       .debug$S                   10000000     kernel32:KERNEL32.dll
 0000:fffce000       .debug$S                   10000000     kernel32:KERNEL32.dll
 0000:fffce000       .debug$S                   10000000     kernel32:KERNEL32.dll
 0000:fffce000       .debug$S                   10000000     kernel32:KERNEL32.dll
 0000:fffce000       .debug$S                   10000000     kernel32:KERNEL32.dll
 0000:fffce000       .debug$S                   10000000     kernel32:KERNEL32.dll
 0000:fffce000       .debug$S                   10000000     kernel32:KERNEL32.dll
 0000:fffce000       .debug$S                   10000000     kernel32:KERNEL32.dll
 0000:fffce000       .debug$S                   10000000     kernel32:KERNEL32.dll
 0000:fffce000       .debug$S                   10000000     kernel32:KERNEL32.dll
 0000:fffce000       .debug$S                   10000000     kernel32:KERNEL32.dll
 0000:fffce000       .debug$S                   10000000     kernel32:KERNEL32.dll
 0000:fffce000       .debug$S                   10000000     kernel32:KERNEL32.dll
 0000:fffce000       .debug$S                   10000000     kernel32:KERNEL32.dll
 0000:fffce000       .debug$S                   10000000     kernel32:KERNEL32.dll
 0000:fffce000       .debug$S                   10000000     kernel32:KERNEL32.dll
 0000:fffce000       .debug$S                   10000000     kernel32:KERNEL32.dll
 0000:fffce000       .debug$S                   10000000     kernel32:KERNEL32.dll
 0000:fffce000       .debug$S                   10000000     kernel32:KERNEL32.dll
 0000:fffce000       .debug$S                   10000000     kernel32:KERNEL32.dll
 0000:fffce000       .debug$S                   10000000     kernel32:KERNEL32.dll
 0000:fffce000       .debug$S                   10000000     kernel32:KERNEL32.dll
 0000:fffce000       .debug$S                   10000000     kernel32:KERNEL32.dll
 0000:fffce000       .debug$S                   10000000     kernel32:KERNEL32.dll
 0000:fffce000       .debug$S                   10000000     user32:USER32.dll
 0000:fffce000       .debug$S                   10000000     user32:USER32.dll
 0000:fffce000       .debug$S                   10000000     user32:USER32.dll
 0000:fffce000       .debug$S                   10000000     user32:USER32.dll
 0000:fffce000       .debug$S                   10000000     user32:USER32.dll
 0000:fffce000       .debug$S                   10000000     user32:USER32.dll
 0000:fffce000       .debug$S                   10000000     user32:USER32.dll
 0000:fffce000       .debug$S                   10000000     user32:USER32.dll
 0000:fffce000       .debug$S                   10000000     user32:USER32.dll
 0000:fffce000       .debug$S                   10000000     user32:USER32.dll
 0000:fffce000       .debug$S                   10000000     user32:USER32.dll
 0000:fffce000       .debug$S                   10000000     user32:USER32.dll
 0000:fffce000       .debug$S                   10000000     user32:USER32.dll
 0000:fffce000       .debug$S                   10000000     user32:USER32.dll
 0000:fffce000       .debug$S                   10000000     user32:USER32.dll
 0000:fffce000       .debug$S                   10000000     user32:USER32.dll
 0000:fffce000       .debug$S                   10000000     user32:USER32.dll
 0000:fffce000       .debug$S                   10000000     user32:USER32.dll
 0000:fffce000       .debug$S                   10000000     user32:USER32.dll
 0000:fffce000       .debug$S                   10000000     user32:USER32.dll
 0000:fffce000       .debug$S                   10000000     user32:USER32.dll
 0000:fffce000       .debug$S                   10000000     user32:USER32.dll
 0000:fffce000       .debug$S                   10000000     user32:USER32.dll
 0000:fffce000       .debug$S                   10000000     user32:USER32.dll
 0000:fffce000       .debug$S                   10000000     user32:USER32.dll
 0000:fffce000       .debug$S                   10000000     user32:USER32.dll
 0000:fffce000       .debug$S                   10000000     user32:USER32.dll
 0000:fffce000       .debug$S                   10000000     user32:USER32.dll
 0000:fffce000       .debug$S                   10000000     user32:USER32.dll
 0000:fffce000       .debug$S                   10000000     user32:USER32.dll
 0000:fffce000       .debug$S                   10000000     user32:USER32.dll
 0000:fffce000       .debug$S                   10000000     user32:USER32.dll
 0000:fffce000       .debug$S                   10000000     user32:USER32.dll
 0000:fffce000       .debug$S                   10000000     user32:USER32.dll
 0000:fffce000       .debug$S                   10000000     user32:USER32.dll
 0000:fffce000       .debug$S                   10000000     gdi32:GDI32.dll
 0000:fffce000       .debug$S                   10000000     gdi32:GDI32.dll
 0000:fffce000       .debug$S                   10000000     gdi32:GDI32.dll
 0000:fffce000       .debug$S                   10000000     gdi32:GDI32.dll
 0000:fffce000       .debug$S                   10000000     gdi32:GDI32.dll
 0000:fffce000       .debug$S                   10000000     gdi32:GDI32.dll
 0000:fffce000       .debug$S                   10000000     gdi32:GDI32.dll
 0000:fffce000       .debug$S                   10000000     gdi32:GDI32.dll
 0000:fffce000       .debug$S                   10000000     gdi32:GDI32.dll
 0000:fffce000       .debug$S                   10000000     gdi32:GDI32.dll
 0000:fffce000       .debug$S                   10000000     gdi32:GDI32.dll
 0000:fffce000       .debug$S                   10000000     gdi32:GDI32.dll
 0000:fffce000       .debug$S                   10000000     gdi32:GDI32.dll
 0000:fffce000       .debug$S                   10000000     gdi32:GDI32.dll
 0000:fffce000       .debug$S                   10000000     gdi32:GDI32.dll
 0000:fffce000       .debug$S                   10000000     gdi32:GDI32.dll
 0000:fffce000       .debug$S                   10000000     gdi32:GDI32.dll
 0000:fffce000       .debug$S                   10000000     gdi32:GDI32.dll
 0000:fffce000       .debug$S                   10000000     gdi32:GDI32.dll
 0000:fffce000       .debug$S                   10000000     advapi32:ADVAPI32.dll
 0000:fffce000       .debug$S                   10000000     advapi32:ADVAPI32.dll
 0000:fffce000       .debug$S                   10000000     advapi32:ADVAPI32.dll
 0000:fffce000       .debug$S                   10000000     advapi32:ADVAPI32.dll
 0000:fffce000       .debug$S                   10000000     advapi32:ADVAPI32.dll
 0000:fffce000       .debug$S                   10000000     advapi32:ADVAPI32.dll
 0000:fffce000       .debug$S                   10000000     advapi32:ADVAPI32.dll
 0000:fffce000       .debug$S                   10000000     advapi32:ADVAPI32.dll
 0000:fffce000       .debug$S                   10000000     advapi32:ADVAPI32.dll
 0000:fffce000       .debug$S                   10000000     ole32:ole32.dll
 0000:fffce000       .debug$S                   10000000     ole32:ole32.dll
 0000:fffce000       .debug$S                   10000000     ole32:ole32.dll
 0000:fffce000       .debug$S                   10000000     ole32:ole32.dll
 0000:fffce000       .debug$S                   10000000     ole32:ole32.dll
 0000:fffce000       .debug$S                   10000000     ole32:ole32.dll
 0000:fffce000       .debug$S                   10000000     ole32:ole32.dll
 0000:fffce000       .debug$S                   10000000     ole32:ole32.dll
 0000:fffce000       .debug$S                   10000000     ole32:ole32.dll
 0000:fffce000       .debug$S                   10000000     ole32:ole32.dll
 0000:fffce000       .debug$S                   10000000     ole32:ole32.dll
 0000:fffce000       .debug$S                   10000000     ole32:ole32.dll
 0000:fffce000       .debug$S                   10000000     ole32:ole32.dll
 0000:fffce000       .debug$S                   10000000     ole32:ole32.dll
 0000:fffce000       .debug$S                   10000000     oleaut32:OLEAUT32.dll
 0000:fffce000       .debug$S                   10000000     oleaut32:OLEAUT32.dll
 0000:fffce000       .debug$S                   10000000     oleaut32:OLEAUT32.dll
 0000:fffce000       .debug$S                   10000000     oleaut32:OLEAUT32.dll
 0000:fffce000       .debug$S                   10000000     oleaut32:OLEAUT32.dll
 0000:fffce000       .debug$S                   10000000     oleaut32:OLEAUT32.dll
 0000:fffce000       .debug$S                   10000000     oleaut32:OLEAUT32.dll
 0000:fffce000       .debug$S                   10000000     oleaut32:OLEAUT32.dll
 0000:fffce000       .debug$S                   10000000     oleaut32:OLEAUT32.dll
 0000:fffce000       .debug$S                   10000000     oleaut32:OLEAUT32.dll
 0000:fffce000       .debug$S                   10000000     oleaut32:OLEAUT32.dll
 0000:fffce000       .debug$S                   10000000     oleaut32:OLEAUT32.dll
 0000:fffce000       .debug$S                   10000000     oleaut32:OLEAUT32.dll
 0000:fffce000       .debug$S                   10000000     oleaut32:OLEAUT32.dll
 0000:fffce000       .debug$S                   10000000     oleaut32:OLEAUT32.dll
 0000:fffce000       .debug$S                   10000000     oleaut32:OLEAUT32.dll
 0001:00000000       ??__E_AtlComModule@ATL@@YAXXZ 10001000 f   OposVariant.obj
 0001:00000016       ??__E_AtlWinModule@ATL@@YAXXZ 10001016 f   OposVariant.obj
 0001:0000002c       ??__E?pConnMap@?$IConnectionPointContainerImpl@VCOPOSCAT@@@ATL@@0PBU_ATL_CONNMAP_ENTRY@2@B@@YAXXZ 1000102c f   CAT.obj
 0001:0000003a       ??__E_Module@@YAXXZ        1000103a f   CAT.obj
 0001:00000064       ??__E_AtlBaseModule@ATL@@YAXXZ 10001064 f   atls:atlbase.obj
 0001:000028c4       $LN37                      100038c4     CAT.obj
 0001:00005d2e       $LN53                      10006d2e     CAT.obj
 0001:00005d46       $LN49                      10006d46     CAT.obj
 0001:00007b7e       $LN45                      10008b7e     CAT.obj
 0001:00007b96       $LN36                      10008b96     CAT.obj
 0001:00009149       $LN87                      1000a149     CAT.obj
 0001:00009161       $LN81                      1000a161     CAT.obj
 0001:0000943f       _memcpy_s                  1000a43f f   CAT.obj
 0001:0000b97f       ?find_pe_section@@YAPAU_IMAGE_SECTION_HEADER@@QAEI@Z 1000c97f f   LIBCMT:utility.obj
 0001:0000bcca       ?__scrt_initialize_thread_safe_statics@@YAHXZ 1000ccca f   LIBCMT:thread_safe_statics.obj
 0001:0000bcf1       ?__scrt_initialize_thread_safe_statics_platform_specific@@YAXXZ 1000ccf1 f   LIBCMT:thread_safe_statics.obj
 0001:0000bde0       ?__scrt_uninitialize_thread_safe_statics@@YAXXZ 1000cde0 f   LIBCMT:thread_safe_statics.obj
 0001:0000c16d       __catch$??2@YAPAXIABUnothrow_t@std@@@Z$0 1000d16d f   LIBCMT:new_scalar_nothrow.obj
 0001:0000c1a0       $$000000                   1000d1a0     LIBCMT:_sehprolg4gs_.obj
 0001:0000c200       $$000000                   1000d200     LIBCMT:alloca16.obj
 0001:0000c230       $$000000                   1000d230     LIBCMT:chkstk.obj
 0001:0000c25d       ?dllmain_crt_dispatch@@YGHQAUHINSTANCE__@@KQAX@Z 1000d25d f   LIBCMT:dll_dllmain.obj
 0001:0000c2b0       ?dllmain_crt_process_attach@@YAHQAUHINSTANCE__@@QAX@Z 1000d2b0 f   LIBCMT:dll_dllmain.obj
 0001:0000c3ba       ?dllmain_crt_process_detach@@YAH_N@Z 1000d3ba f   LIBCMT:dll_dllmain.obj
 0001:0000c44c       ?dllmain_dispatch@@YAHQAUHINSTANCE__@@KQAX@Z 1000d44c f   LIBCMT:dll_dllmain.obj
 0001:0000c552       ?dllmain_raw@@YGHQAUHINSTANCE__@@KQAX@Z 1000d552 f   LIBCMT:dll_dllmain.obj
 0001:0000c8a0       $$000000                   1000d8a0     LIBCMT:_sehprolg4_.obj
 0001:0000c8fc       ___get_entropy             1000d8fc f   LIBCMT:gs_support.obj
 0001:0000cbf3       ??$GetProcAddressAll@P6GXPAUAtlThunkData_t@@@Z@@YAP6GXPAUAtlThunkData_t@@@ZPAP6GX0@Z@Z 1000dbf3 f   atls:atlthunk.obj
 0001:0000cbf3       ??$GetProcAddressAll@P6GP6GJPAUHWND__@@IIJ@ZPAUAtlThunkData_t@@@Z@@YAP6GP6GJPAUHWND__@@IIJ@ZPAUAtlThunkData_t@@@ZPAP6GP6GJ0IIJ@Z1@Z@Z 1000dbf3 f   atls:atlthunk.obj
 0001:0000cbf3       ??$GetProcAddressAll@P6GXPAUAtlThunkData_t@@PAXI@Z@@YAP6GXPAUAtlThunkData_t@@PAXI@ZPAP6GX01I@Z@Z 1000dbf3 f   atls:atlthunk.obj
 0001:0000cbf3       ??$GetProcAddressAll@P6GPAUAtlThunkData_t@@XZ@@YAP6GPAUAtlThunkData_t@@XZPAP6GPAU0@XZ@Z 1000dbf3 f   atls:atlthunk.obj
 0001:0000cca3       ?GetProcAddressSingle@@YA_NPAUHINSTANCE__@@PBDPAPAX@Z 1000dca3 f   atls:atlthunk.obj
 0001:0000cdf5       ?__InitializeThunkPool@@YAHXZ 1000ddf5 f   atls:atlthunk.obj
 0001:0000d260       _ValidateLocalCookies      1000e260 f   libvcruntime:_chandler4_.obj
 0001:0000e31b       $LN1285                    1000f31b     libvcruntime:_memcmp_.obj
 0001:0000e3a0       $$000000                   1000f3a0     libvcruntime:memcpy.obj
 0001:0000e604       TrailingUpVec              1000f604     libvcruntime:memcpy.obj
 0001:0000e6b0       TrailingDownVec            1000f6b0     libvcruntime:memcpy.obj
 0001:0000e920       $$000000                   1000f920     libvcruntime:memset.obj
 0001:0000efe0       $$000000                   1000ffe0     libvcruntime:memmove.obj
 0001:0000f244       TrailingUpVec              10010244     libvcruntime:memmove.obj
 0001:0000f2f0       TrailingDownVec            100102f0     libvcruntime:memmove.obj
 0001:0000f560       $$000000                   10010560     libvcruntime:_exsup4_.obj
 0001:0000f5f0       __unwind_handler4          100105f0 f   libvcruntime:_exsup4_.obj
 0001:0000f8cf       ?try_get_first_available_module@@YAPAUHINSTANCE__@@QBW4module_id@?A0x03f7da57@@0@Z 100108cf f   libvcruntime:winapi_downlevel.obj
 0001:0000f993       ?try_get_function@@YAPAXW4function_id@?A0x03f7da57@@QBDQBW4module_id@2@2@Z 10010993 f   libvcruntime:winapi_downlevel.obj
 0001:0000fb93       ??$BuildCatchObjectHelperInternal@$$CBU_s_HandlerType@@@@YAHPAUEHExceptionRecord@@PAXPBU_s_HandlerType@@PBU_s_CatchableType@@@Z 10010b93 f   libvcruntime:frame.obj
 0001:0000fcd2       ??$BuildCatchObjectInternal@$$CBU_s_HandlerType@@@@YAXPAUEHExceptionRecord@@PAXPBU_s_HandlerType@@PBU_s_CatchableType@@@Z 10010cd2 f   libvcruntime:frame.obj
 0001:0000fd6b       ??$CatchIt@V__FrameHandler3@@@@YAXPAUEHExceptionRecord@@PAUEHRegistrationNode@@PAU_CONTEXT@@PAXPBU_s_FuncInfo@@PBU_s_HandlerType@@PBU_s_CatchableType@@PBU_s_TryBlockMapEntry@@H1E@Z 10010d6b f   libvcruntime:frame.obj
 0001:0000fdeb       ??$FindHandler@V__FrameHandler3@@@@YAXPAUEHExceptionRecord@@PAUEHRegistrationNode@@PAU_CONTEXT@@PAXPBU_s_FuncInfo@@EH1@Z 10010deb f   libvcruntime:frame.obj
 0001:00010179       ??$FindHandlerForForeignException@V__FrameHandler3@@@@YAXPAUEHExceptionRecord@@PAUEHRegistrationNode@@PAU_CONTEXT@@PAXPBU_s_FuncInfo@@HH1@Z 10011179 f   libvcruntime:frame.obj
 0001:0001046c       ?CallCatchBlock@@YAPAXPAUEHExceptionRecord@@PAUEHRegistrationNode@@PAU_CONTEXT@@PBU_s_FuncInfo@@PAXHK@Z 1001146c f   libvcruntime:frame.obj
 0001:00010630       ?CallUnexpected@@YAXPBU_s_ESTypeList@@@Z 10011630 f   libvcruntime:frame.obj
 0001:00010650       __catch$?CallUnexpected@@YAXPBU_s_ESTypeList@@@Z$0 10011650 f   libvcruntime:frame.obj
 0001:0001066a       ?ExFilterRethrow@@YAHPAU_EXCEPTION_POINTERS@@@Z 1001166a f   libvcruntime:frame.obj
 0001:000107b4       ?IsInExceptionSpec@@YAEPAUEHExceptionRecord@@PBU_s_ESTypeList@@@Z 100117b4 f   libvcruntime:frame.obj
 0001:00010880       $$000000                   10011880     libvcruntime:lowhelpr.obj
 0001:000108d0       $$000000                   100118d0     libvcruntime:_exsup_.obj
 0001:000108f1       __unwind_handler           100118f1 f   libvcruntime:_exsup_.obj
 0001:0001107c       ??$common_tcsncpy_s@_W@@YAHQA_WIQB_WI@Z 1001207c f   libucrt:wcsncpy_s.obj
 0001:00011154       ??$common_vsprintf@Vformat_validation_base@__crt_stdio_output@@_W@@YAH_KQA_WIQB_WQAU__crt_locale_pointers@@QAD@Z 10012154 f   libucrt:output.obj
 0001:000112dd       ??$common_vsprintf_s@_W@@YAH_KQA_WIQB_WQAU__crt_locale_pointers@@QAD@Z 100122dd f   libucrt:output.obj
 0001:0001198a       $LN52                      1001298a     libucrt:output.obj
 0001:00011e7c       $LN19                      10012e7c     libucrt:output.obj
 0001:0001276d       ??R<lambda_6e4b09c48022b2350581041d5f6b0c4c>@@QBE@XZ 1001376d f   libucrt:exit.obj
 0001:00012849       ?atexit_exception_filter@@YAHK@Z 10013849 f   libucrt:exit.obj
 0001:0001285c       ?common_exit@@YAXHW4_crt_exit_cleanup_mode@@W4_crt_exit_return_mode@@@Z 1001385c f   libucrt:exit.obj
 0001:000128b2       ?exit_or_terminate_process@@YAXI@Z 100138b2 f   libucrt:exit.obj
 0001:000128f4       ?is_managed_app@@YA_NXZ    100138f4 f   libucrt:exit.obj
 0001:00012938       ?try_cor_exit_process@@YAXI@Z 10013938 f   libucrt:exit.obj
 0001:000129dc       ??$common_configure_argv@D@@YAHW4_crt_argv_mode@@@Z 100139dc f   libucrt:argv_parsing.obj
 0001:00012b12       ??$parse_command_line@D@@YAXPADPAPAD0PAI2@Z 10013b12 f   libucrt:argv_parsing.obj
 0001:00012ce7       ??$common_initialize_environment_nolock@D@@YAHXZ 10013ce7 f   libucrt:environment_initialization.obj
 0001:00012d40       ??$create_environment@D@@YAQAPADQAD@Z 10013d40 f   libucrt:environment_initialization.obj
 0001:00012e11       ??$free_environment@_W@@YAXQAPA_W@Z 10013e11 f   libucrt:environment_initialization.obj
 0001:00012e11       ??$free_environment@D@@YAXQAPAD@Z 10013e11 f   libucrt:environment_initialization.obj
 0001:00012e80       ??$uninitialize_environment_internal@D@@YAXAAPAPAD@Z 10013e80 f   libucrt:environment_initialization.obj
 0001:00012e9b       ??$uninitialize_environment_internal@_W@@YAXAAPAPA_W@Z 10013e9b f   libucrt:environment_initialization.obj
 0001:00013034       ??R<lambda_22ebabd17bc4fa466a2aca6d8deb888d>@@QBEHXZ 10014034 f   libucrt:onexit.obj
 0001:00013175       ??R<lambda_f03950bc5685219e0bcd2087efbe011e>@@QBEHXZ 10014175 f   libucrt:onexit.obj
 0001:00013327       _initialize_global_variables 10014327 f   libucrt:initialization.obj
 0001:00013339       _initialize_c              10014339 f   libucrt:initialization.obj
 0001:00013353       _initialize_environment    10014353 f   libucrt:initialization.obj
 0001:00013353       _uninitialize_global_state_isolation 10014353 f   libucrt:initialization.obj
 0001:00013353       _initialize_global_state_isolation 10014353 f   libucrt:initialization.obj
 0001:00013353       _report_memory_leaks       10014353 f   libucrt:initialization.obj
 0001:00013353       _uninitialize_c            10014353 f   libucrt:initialization.obj
 0001:00013356       _uninitialize_environment  10014356 f   libucrt:initialization.obj
 0001:0001335e       _initialize_pointers       1001435e f   libucrt:initialization.obj
 0001:0001339b       _uninitialize_vcruntime    1001439b f   libucrt:initialization.obj
 0001:000133a4       _uninitialize_allocated_memory 100143a4 f   libucrt:initialization.obj
 0001:00013408       ??R<lambda_af42a3ee9806e9a7305d451646e05244>@@QBEXAAPAU__crt_multibyte_data@@@Z 10014408 f   libucrt:initialization.obj
 0001:00013e80       $$000000                   10014e80     libucrt:strncmp.obj
 0001:00014116       ?construct_ptd@@YAXQAU__acrt_ptd@@QAPAU__crt_locale_data@@@Z 10015116 f   libucrt:per_thread_data.obj
 0001:0001418f       ?destroy_fls@@YGXPAX@Z     1001518f f   libucrt:per_thread_data.obj
 0001:000141b0       ?destroy_ptd@@YAXQAU__acrt_ptd@@@Z 100151b0 f   libucrt:per_thread_data.obj
 0001:00014259       ?replace_current_thread_locale_nolock@@YAXQAU__acrt_ptd@@QAU__crt_locale_data@@@Z 10015259 f   libucrt:per_thread_data.obj
 0001:00014669       ?try_get_LCMapStringEx@@YAP6GHPB_WK0HPA_WHPAU_nlsversioninfo@@PAXJ@ZXZ 10015669 f   libucrt:winapi_thunks.obj
 0001:00014683       ?try_get_LocaleNameToLCID@@YAP6GKPB_WK@ZXZ 10015683 f   libucrt:winapi_thunks.obj
 0001:0001469d       ?try_get_first_available_module@@YAPAUHINSTANCE__@@QBW4module_id@?A0x391cf84c@@0@Z 1001569d f   libucrt:winapi_thunks.obj
 0001:00014765       ?try_get_function@@YAPAXW4function_id@?A0x391cf84c@@QBDQBW4module_id@2@2@Z 10015765 f   libucrt:winapi_thunks.obj
 0001:00014bca       ??$common_tox_l@$1?internal_isupper_l@@YA_NHQAU__crt_locale_pointers@@@Z$1?internal_map_lower@@YAHH0@Z@@YAHHKQAU__crt_locale_pointers@@@Z 10015bca f   libucrt:tolower_toupper.obj
 0001:00014d14       ?internal_isupper_l@@YA_NHQAU__crt_locale_pointers@@@Z 10015d14 f   libucrt:tolower_toupper.obj
 0001:0001516d       ?fp_format_a@@YAHQBNPADIQADIH_NIQAU__crt_locale_pointers@@@Z 1001616d f   libucrt:cvt.obj
 0001:00015481       ?fp_format_e@@YAHQBNQADI1IH_NIQAU__crt_locale_pointers@@@Z 10016481 f   libucrt:cvt.obj
 0001:0001551c       ?fp_format_e_internal@@YAHQADIH_NIQAU_strflt@@1QAU__crt_locale_pointers@@@Z 1001651c f   libucrt:cvt.obj
 0001:00015667       ?fp_format_f@@YAHQBNQADI1IHQAU__crt_locale_pointers@@@Z 10016667 f   libucrt:cvt.obj
 0001:000156f4       ?fp_format_f_internal@@YAHQADIHQAU_strflt@@_NQAU__crt_locale_pointers@@@Z 100166f4 f   libucrt:cvt.obj
 0001:000157cb       ?fp_format_g@@YAHQBNQADI1IH_NIQAU__crt_locale_pointers@@@Z 100167cb f   libucrt:cvt.obj
 0001:00015893       ?fp_format_nan_or_infinity@@YAHW4__acrt_fp_class@@_NPADI1@Z 10016893 f   libucrt:cvt.obj
 0001:0001598b       ?shift_bytes@@YAXQADI0H@Z  1001698b f   libucrt:cvt.obj
 0001:00015d42       ?initialize_inherited_file_handles_nolock@@YAXXZ 10016d42 f   libucrt:ioinit.obj
 0001:00015df8       ?initialize_stdio_handles_nolock@@YAXXZ 10016df8 f   libucrt:ioinit.obj
 0001:00015fee       ?<lambda_invoker_cdecl>@<lambda_86056e3c024bff449830248dc1621ed2>@@CAHPBX0@Z 10016fee f   libucrt:argv_wildcards.obj
 0001:00016006       ??$common_expand_argv_wildcards@D@@YAHQAPADQAPAPAD@Z 10017006 f   libucrt:argv_wildcards.obj
 0001:000161e6       ??$copy_and_add_argument_to_buffer@D@@YAHQBD0IAAV?$argument_list@D@?A0x5f5c8891@@@Z 100171e6 f   libucrt:argv_wildcards.obj
 0001:0001629a       ??$expand_argument_wildcards@D@@YAHQAD0AAV?$argument_list@D@?A0x5f5c8891@@@Z 1001729a f   libucrt:argv_wildcards.obj
 0001:0001641e       ?expand_if_necessary@?$argument_list@D@?A0x5f5c8891@@AAEHXZ 1001741e f   libucrt:argv_wildcards.obj
 0001:0001651b       ??R<lambda_ae742caa10f662c28703da3d2ea5e57e>@@QBEXXZ 1001751b f   libucrt:mbctype.obj
 0001:0001659e       ?CPtoLocaleName@@YAPB_WH@Z 1001759e f   libucrt:mbctype.obj
 0001:000165dc       ?getSystemCP@@YAHH@Z       100175dc f   libucrt:mbctype.obj
 0001:0001664f       ?setSBCS@@YAXPAU__crt_multibyte_data@@@Z 1001764f f   libucrt:mbctype.obj
 0001:000166b4       ?setSBUpLow@@YAXPAU__crt_multibyte_data@@@Z 100176b4 f   libucrt:mbctype.obj
 0001:00016848       ?setmbcp_internal@@YAHH_NQAU__acrt_ptd@@QAPAU__crt_multibyte_data@@@Z 10017848 f   libucrt:mbctype.obj
 0001:00016955       ?update_thread_multibyte_data_internal@@YAPAU__crt_multibyte_data@@QAU__acrt_ptd@@QAU1@@Z 10017955 f   libucrt:mbctype.obj
 0001:00016c3a       _memcpy_s                  10017c3a f   libucrt:mbctype.obj
 0001:00016c3a       _memcpy_s                  10017c3a f   libucrt:cfout.obj
 0001:00016cbb       ?x_ismbbtype_l@@YAHPAU__crt_locale_pointers@@IHH@Z 10017cbb f   libucrt:ismbbyte.obj
 0001:00016d45       ?find_end_of_double_null_terminated_sequence@@YAPB_WQB_W@Z 10017d45 f   libucrt:get_environment_from_os.obj
 0001:00016f6c       ?get_global_action_nolock@@YAPAP6AXH@ZH@Z 10017f6c f   libucrt:signal.obj
 0001:00016fae       ?siglookup@@YAPAU__crt_signal_action_t@@HQAU1@@Z 10017fae f   libucrt:signal.obj
 0001:0001779d       ?GetTableIndexFromLocaleName@@YAHPB_W@Z 1001879d f   libucrt:lcidtoname_downlevel.obj
 0001:000178be       ?__acrt_LCMapStringA_stat@@YAHPAU__crt_locale_pointers@@PB_WKPBDHPADHHH@Z 100188be f   libucrt:lcmapstringa.obj
 0001:000196b6       ?common_flush_all@@YAH_N@Z 1001a6b6 f   libucrt:fflush.obj
 0001:000196f5       ?common_flush_all_should_try_to_flush_stream@@YA_NV__crt_stdio_stream@@QAH@Z 1001a6f5 f   libucrt:fflush.obj
 0001:00019727       ?is_stream_flushable_or_commitable@@YA_NJ@Z 1001a727 f   libucrt:fflush.obj
 0001:000199f8       ?free_crt_array_internal@@YAXQAPBXI@Z 1001a9f8 f   libucrt:inittime.obj
 0001:00019ec0       ?shortsort@@YAXPAD0IP6AHPBX1@Z@Z 1001aec0 f   libucrt:qsort.obj
 0001:00019f60       ?swap@@YAXPAD0I@Z          1001af60 f   libucrt:qsort.obj
 0001:0001a33a       ??$common_tcsncpy_s@D@@YAHQADIQBDI@Z 1001b33a f   libucrt:strncpy_s.obj
 0001:0001a400       $$000000                   1001b400     libucrt:strpbrk.obj
 0001:0001a4e4       ?initialize_multibyte@@YAHXZ 1001b4e4 f   libucrt:multibyte_initializer.obj
 0001:0001a5d0       $$000000                   1001b5d0     libucrt:log10.obj
 0001:0001a720       $$000000                   1001b720     libucrt:ceil_pentium4.obj
 0001:0001a83d       ?write_double_translated_ansi_nolock@@YA?AUwrite_result@?A0x17268360@@HQBDI@Z 1001b83d f   libucrt:write.obj
 0001:0001aa02       ?write_double_translated_unicode_nolock@@YA?AUwrite_result@?A0x17268360@@QBDI@Z 1001ba02 f   libucrt:write.obj
 0001:0001aa6f       ?write_requires_double_translation_nolock@@YA_NH@Z 1001ba6f f   libucrt:write.obj
 0001:0001aae5       ?write_text_ansi_nolock@@YA?AUwrite_result@?A0x17268360@@HQBDI@Z 1001bae5 f   libucrt:write.obj
 0001:0001abc4       ?write_text_utf16le_nolock@@YA?AUwrite_result@?A0x17268360@@HQBDI@Z 1001bbc4 f   libucrt:write.obj
 0001:0001acb2       ?write_text_utf8_nolock@@YA?AUwrite_result@?A0x17268360@@HQBDI@Z 1001bcb2 f   libucrt:write.obj
 0001:0001b0e3       ??$common_lseek_nolock@_J@@YA_JH_JH@Z 1001c0e3 f   libucrt:lseek.obj
 0001:0001b3a7       ___get_abstract_control_sse2 1001c3a7 f   libucrt:_fenvutils.obj
 0001:0001b424       ___get_abstract_control_x87 1001c424 f   libucrt:_fenvutils.obj
 0001:0001b497       ___get_machine_control     1001c497 f   libucrt:_fenvutils.obj
 0001:0001b508       ___get_machine_control_sse2 1001c508 f   libucrt:_fenvutils.obj
 0001:0001b588       ___get_machine_status_sse2 1001c588 f   libucrt:_fenvutils.obj
 0001:0001b5e9       ___get_machine_status_x87  1001c5e9 f   libucrt:_fenvutils.obj
 0001:0001b930       $$000000                   1001c930     libucrt:log10_pentium4.obj
 0001:0001bbc0       $$000000                   1001cbc0     libucrt:87tran.obj
 0001:0001bdc0       $$000000                   1001cdc0     libucrt:87disp.obj
 0001:0001bfc0       $$000000                   1001cfc0     libucrt:common.obj
 0001:0001c150       $$000000                   1001d150     libucrt:genexcep.obj
 0001:0001c6c0       $$000000                   1001d6c0     libucrt:_strnicm.obj
 0001:0001d510       $$000000                   1001e510     LIBCMT:ulldvrm.obj
 0001:0001d5b0       $$000000                   1001e5b0     LIBCMT:llmul.obj
 0001:0001d5f0       $$000000                   1001e5f0     LIBCMT:lldvrm.obj
 0001:0001d6d0       $$000000                   1001e6d0     LIBCMT:ullshr.obj
 0001:0001d6f0       $$000000                   1001e6f0     LIBCMT:llshl.obj
 0001:0001d710       $$000000                   1001e710     LIBCMT:_ftol2_.obj
 0001:0001d7d0       $$000000                   1001e7d0     libvcruntime:strrchr.obj
 0001:0001d910       $$000000                   1001e910     libvcruntime:strchr.obj
 0001:0001da3b       __ehhandler$?__scrt_initialize_thread_safe_statics_platform_specific@@YAXXZ 1001ea3b f   LIBCMT:thread_safe_statics.obj
 0001:0001da56       __ehhandler$??2@YAPAXIABUnothrow_t@std@@@Z 1001ea56 f   LIBCMT:new_scalar_nothrow.obj
 0001:0001da71       __ehhandler$?CallUnexpected@@YAXPBU_s_ESTypeList@@@Z 1001ea71 f   libvcruntime:frame.obj
 0001:0001da8c       ??__F_AtlComModule@ATL@@YAXXZ 1001ea8c f   OposVariant.obj
 0001:0001da96       ??__F_AtlWinModule@ATL@@YAXXZ 1001ea96 f   OposVariant.obj
 0001:0001dab0       ??__F_Module@@YAXXZ        1001eab0 f   CAT.obj
 0001:0001dac4       ??__F_AtlBaseModule@ATL@@YAXXZ 1001eac4 f   atls:atlbase.obj
 0002:00000304       ?_AtlBaseModule$initializer$@ATL@@3P6AXXZA 1001f304     atls:atlbase.obj
 0002:00000308       ?_AtlComModule$initializer$@ATL@@3P6AXXZA 1001f308     OposVariant.obj
 0002:0000030c       ?_AtlWinModule$initializer$@ATL@@3P6AXXZA 1001f30c     OposVariant.obj
 0002:00000310       ?_Module$initializer$@@3P6AXXZA 1001f310     CAT.obj
 0002:00000314       ??pConnMap$initializer$@?$IConnectionPointContainerImpl@VCOPOSCAT@@@ATL@@0P6AXXZA@@3P6AXXZA 1001f314     CAT.obj
 0002:00000320       ?__scrt_initialize_tss_var@@3P6AHXZA 1001f320     LIBCMT:thread_safe_statics.obj
 0002:000007d0       ?map@?1??HKeyFromString@CRegParser@ATL@@KAPAUHKEY__@@PA_W@Z@4QBUkeymap@?1??123@KAPAU4@0@Z@B 1001f7d0     CAT.obj
 0002:000019f4       _GS_ExceptionPointers      100209f4     LIBCMT:gs_report.obj
 0002:00001b60       ?ExceptionTemplate@?1??_CxxThrowException@@9@8@4UEHExceptionRecord@@B 10020b60     libvcruntime:throw.obj
 0002:00001b80       ?module_names@?A0x03f7da57@@3QBQB_WB 10020b80     libvcruntime:winapi_downlevel.obj
 0002:00001c38       ?candidate_modules@?1??try_get_FlsAlloc@@YAP6GKP6GXPAX@Z@ZXZ@4QBW4module_id@?A0x03f7da57@@B 10020c38     libvcruntime:winapi_downlevel.obj
 0002:00001c4c       ?candidate_modules@?1??try_get_FlsFree@@YAP6GHK@ZXZ@4QBW4module_id@?A0x03f7da57@@B 10020c4c     libvcruntime:winapi_downlevel.obj
 0002:00001c5c       ?candidate_modules@?1??try_get_FlsGetValue@@YAP6GPAXK@ZXZ@4QBW4module_id@?A0x03f7da57@@B 10020c5c     libvcruntime:winapi_downlevel.obj
 0002:00001c70       ?candidate_modules@?1??try_get_FlsSetValue@@YAP6GHKPAX@ZXZ@4QBW4module_id@?A0x03f7da57@@B 10020c70     libvcruntime:winapi_downlevel.obj
 0002:00001c84       ?candidate_modules@?1??try_get_InitializeCriticalSectionEx@@YAP6GHPAU_RTL_CRITICAL_SECTION@@KK@ZXZ@4QBW4module_id@?A0x03f7da57@@B 10020c84     libvcruntime:winapi_downlevel.obj
 0002:00001cc8       ?tokenTable@@3QBQBDB       10020cc8     libvcruntime:undname.obj
 0002:00001d08       ?nameTable@@3QBQBDB        10020d08     libvcruntime:undname.obj
 0002:00001e50       ?rttiTable@@3QBQBDB        10020e50     libvcruntime:undname.obj
 0002:00002468       ?errtable@@3QBUerrentry@?A0x31fdb9ec@@B 10021468     libucrt:errno.obj
 0002:00002708       ___acrt_initializers       10021708     libucrt:initialization.obj
 0002:00002780       ?module_names@?A0x391cf84c@@3QBQB_WB 10021780     libucrt:winapi_thunks.obj
 0002:00002c68       ?candidate_modules@?1??try_get_FlsAlloc@@YAP6GKP6GXPAX@Z@ZXZ@4QBW4module_id@?A0x391cf84c@@B 10021c68     libucrt:winapi_thunks.obj
 0002:00002c7c       ?candidate_modules@?1??try_get_FlsFree@@YAP6GHK@ZXZ@4QBW4module_id@?A0x391cf84c@@B 10021c7c     libucrt:winapi_thunks.obj
 0002:00002c8c       ?candidate_modules@?1??try_get_FlsGetValue@@YAP6GPAXK@ZXZ@4QBW4module_id@?A0x391cf84c@@B 10021c8c     libucrt:winapi_thunks.obj
 0002:00002ca0       ?candidate_modules@?1??try_get_FlsSetValue@@YAP6GHKPAX@ZXZ@4QBW4module_id@?A0x391cf84c@@B 10021ca0     libucrt:winapi_thunks.obj
 0002:00002cb4       ?candidate_modules@?1??try_get_InitializeCriticalSectionEx@@YAP6GHPAU_RTL_CRITICAL_SECTION@@KK@ZXZ@4QBW4module_id@?A0x391cf84c@@B 10021cb4     libucrt:winapi_thunks.obj
 0002:00002cd8       ?candidate_modules@?1??try_get_LCMapStringEx@@YAP6GHPB_WK0HPA_WHPAU_nlsversioninfo@@PAXJ@ZXZ@4QBW4module_id@?A0x391cf84c@@B 10021cd8     libucrt:winapi_thunks.obj
 0002:00002cf0       ?candidate_modules@?1??try_get_LocaleNameToLCID@@YAP6GKPB_WK@ZXZ@4QBW4module_id@?A0x391cf84c@@B 10021cf0     libucrt:winapi_thunks.obj
 0002:00002d0c       ?candidate_modules@?1??try_get_AppPolicyGetProcessTerminationMethod@@YAP6GJPAXPAW4AppPolicyProcessTerminationMethod@@@ZXZ@4QBW4module_id@?A0x391cf84c@@B 10021d0c     libucrt:winapi_thunks.obj
 0002:00002d38       ?candidate_modules@?1??try_get_SetThreadStackGuarantee@@YAP6GHPAK@ZXZ@4QBW4module_id@?A0x391cf84c@@B 10021d38     libucrt:winapi_thunks.obj
 0002:00003264       ?_mb_locale_names@@3QBQB_WB 10022264     libucrt:mbctype.obj
 0002:00003ab0       ?LcidToLocaleNameTable@?A0x881e4c05@@3QBULcidToLocaleName@1@B 10022ab0     libucrt:lcidtoname_downlevel.obj
 0002:00004bd8       ?LocaleNameToIndexTable@?A0x881e4c05@@3QBULocaleNameIndex@1@B 10023bd8     libucrt:lcidtoname_downlevel.obj
 0002:00006510       LOG_name                   10025510     libucrt:log10.obj
 0002:00006520       _One                       10025520     libucrt:ceil_pentium4.obj
 0002:00006530       _Bns                       10025530     libucrt:ceil_pentium4.obj
 0002:00006540       _Zero                      10025540     libucrt:ceil_pentium4.obj
 0002:00006550       _S                         10025550     libucrt:ceil_pentium4.obj
 0002:00006560       _NegZero                   10025560     libucrt:ceil_pentium4.obj
 0002:00006570       emask                      10025570     libucrt:log10_pentium4.obj
 0002:00006580       CC                         10025580     libucrt:log10_pentium4.obj
 0002:00006590       Magic                      10025590     libucrt:log10_pentium4.obj
 0002:000065a0       hi_mask                    100255a0     libucrt:log10_pentium4.obj
 0002:000065b0       LOG10_2                    100255b0     libucrt:log10_pentium4.obj
 0002:000065c0       place_L                    100255c0     libucrt:log10_pentium4.obj
 0002:000065e0       One                        100255e0     libucrt:log10_pentium4.obj
 0002:000065f0       Zero                       100255f0     libucrt:log10_pentium4.obj
 0002:00006600       Two52                      10025600     libucrt:log10_pentium4.obj
 0002:00006610       Infs                       10025610     libucrt:log10_pentium4.obj
 0002:00006620       NaN                        10025620     libucrt:log10_pentium4.obj
 0002:00006630       coeff                      10025630     libucrt:log10_pentium4.obj
 0002:0000668e       _log2max                   1002568e     libucrt:87tran.obj
 0002:00006698       _smallarg                  10025698     libucrt:87tran.obj
 0002:000066a2       _half                      100256a2     libucrt:87tran.obj
 0002:000066ee       One                        100256ee     libucrt:87disp.obj
 0002:000066f6       Three                      100256f6     libucrt:87disp.obj
 0002:000066fe       XAMtoTagTab                100256fe     libucrt:87disp.obj
 0002:00006710       One                        10025710     libucrt:common.obj
 0002:00006724       DblMax                     10025724     libucrt:common.obj
 0002:0000672c       DblMin                     1002572c     libucrt:common.obj
 0002:00006734       IeeeAdjO                   10025734     libucrt:common.obj
 0002:0000673c       IeeeAdjU                   1002573c     libucrt:common.obj
 0002:00006744       _infinity                  10025744     libucrt:common.obj
 0002:0000674c       _zero                      1002574c     libucrt:common.obj
 0002:00006788       _over                      10025788     libucrt:fpctrl.obj
 0002:00006794       _under                     10025794     libucrt:fpctrl.obj
 0002:00006fc8       ?_names@?1??_get_fname@@9@9 10025fc8     libucrt:fpexcept.obj
 0002:00007828       __sehtable$?_AtlVerifyStackAvailable@_ATL_SAFE_ALLOCA_IMPL@ATL@@YA_NK@Z 10026828     CAT.obj
 0002:00007848       __sehtable$___scrt_is_nonwritable_in_current_image 10026848     LIBCMT:utility.obj
 0002:00007864       __ehfuncinfo$?__scrt_initialize_thread_safe_statics_platform_specific@@YAXXZ 10026864     LIBCMT:thread_safe_statics.obj
 0002:00007888       __catchsym$??2@YAPAXIABUnothrow_t@std@@@Z$2 10026888     LIBCMT:new_scalar_nothrow.obj
 0002:00007898       __unwindtable$??2@YAPAXIABUnothrow_t@std@@@Z 10026898     LIBCMT:new_scalar_nothrow.obj
 0002:000078a8       __tryblocktable$??2@YAPAXIABUnothrow_t@std@@@Z 100268a8     LIBCMT:new_scalar_nothrow.obj
 0002:000078bc       __ehfuncinfo$??2@YAPAXIABUnothrow_t@std@@@Z 100268bc     LIBCMT:new_scalar_nothrow.obj
 0002:000078e0       __sehtable$?dllmain_crt_process_attach@@YAHQAUHINSTANCE__@@QAX@Z 100268e0     LIBCMT:dll_dllmain.obj
 0002:00007900       __sehtable$?dllmain_crt_process_detach@@YAH_N@Z 10026900     LIBCMT:dll_dllmain.obj
 0002:00007920       __sehtable$?dllmain_dispatch@@YAHQAUHINSTANCE__@@KQAX@Z 10026920     LIBCMT:dll_dllmain.obj
 0002:000079d0       __sehtable$?FrameUnwindToState@__FrameHandler3@@SAXPAUEHRegistrationNode@@PAXPBU_s_FuncInfo@@H@Z 100269d0     libvcruntime:frame.obj
 0002:000079f8       __sehtable$?CallCatchBlock@@YAPAXPAUEHExceptionRecord@@PAUEHRegistrationNode@@PAU_CONTEXT@@PBU_s_FuncInfo@@PAXHK@Z 100269f8     libvcruntime:frame.obj
 0002:00007a20       __catchsym$?CallUnexpected@@YAXPBU_s_ESTypeList@@@Z$2 10026a20     libvcruntime:frame.obj
 0002:00007a30       __unwindtable$?CallUnexpected@@YAXPBU_s_ESTypeList@@@Z 10026a30     libvcruntime:frame.obj
 0002:00007a40       __tryblocktable$?CallUnexpected@@YAXPBU_s_ESTypeList@@@Z 10026a40     libvcruntime:frame.obj
 0002:00007a54       __ehfuncinfo$?CallUnexpected@@YAXPBU_s_ESTypeList@@@Z 10026a54     libvcruntime:frame.obj
 0002:00007a78       __sehtable$??$BuildCatchObjectHelperInternal@$$CBU_s_HandlerType@@@@YAHPAUEHExceptionRecord@@PAXPBU_s_HandlerType@@PBU_s_CatchableType@@@Z 10026a78     libvcruntime:frame.obj
 0002:00007a98       __sehtable$??$BuildCatchObjectInternal@$$CBU_s_HandlerType@@@@YAXPAUEHExceptionRecord@@PAXPBU_s_HandlerType@@PBU_s_CatchableType@@@Z 10026a98     libvcruntime:frame.obj
 0002:00007af0       __sehtable$___DestructExceptionObject 10026af0     libvcruntime:ehhelpers.obj
 0002:00007b10       __sehtable$??R<lambda_6e4b09c48022b2350581041d5f6b0c4c>@@QBE@XZ 10026b10     libucrt:exit.obj
 0002:00007b30       __sehtable$??$?RV<lambda_03b1d95aef87969028cfba75ccab2455>@@AAV<lambda_6e4b09c48022b2350581041d5f6b0c4c>@@V<lambda_22bdf7517842c4b3e53723af5aa32b9e>@@@?$__crt_seh_guarded_call@X@@QAEX$$QAV<lambda_03b1d95aef87969028cfba75ccab2455>@@AAV<lambda_6e4b09c48022b2350581041d5f6b0c4c>@@$$QAV<lambda_22bdf7517842c4b3e53723af5aa32b9e>@@@Z 10026b30     libucrt:exit.obj
 0002:00007b50       __sehtable$??$?RV<lambda_8e746cf0007f6ed984d6f78af1fec997>@@AAV<lambda_22ebabd17bc4fa466a2aca6d8deb888d>@@V<lambda_18ed0c0b38a6dc0daf1e7ac6d6adf05e>@@@?$__crt_seh_guarded_call@H@@QAEH$$QAV<lambda_8e746cf0007f6ed984d6f78af1fec997>@@AAV<lambda_22ebabd17bc4fa466a2aca6d8deb888d>@@$$QAV<lambda_18ed0c0b38a6dc0daf1e7ac6d6adf05e>@@@Z 10026b50     libucrt:onexit.obj
 0002:00007b70       __sehtable$??$?RV<lambda_69a2805e680e0e292e8ba93315fe43a8>@@AAV<lambda_f03950bc5685219e0bcd2087efbe011e>@@V<lambda_03fcd07e894ec930e3f35da366ca99d6>@@@?$__crt_seh_guarded_call@H@@QAEH$$QAV<lambda_69a2805e680e0e292e8ba93315fe43a8>@@AAV<lambda_f03950bc5685219e0bcd2087efbe011e>@@$$QAV<lambda_03fcd07e894ec930e3f35da366ca99d6>@@@Z 10026b70     libucrt:onexit.obj
 0002:00007b90       __sehtable$__query_new_handler 10026b90     libucrt:new_handler.obj
 0002:00007bb0       __sehtable$_terminate      10026bb0     libucrt:terminate.obj
 0002:00007bd0       __sehtable$??$?RV<lambda_15ade71b0218206bbe3333a0c9b79046>@@AAV<lambda_da44e0f8b0f19ba52fefafb335991732>@@V<lambda_207f2d024fc103971653565357d6cd41>@@@?$__crt_seh_guarded_call@X@@QAEX$$QAV<lambda_15ade71b0218206bbe3333a0c9b79046>@@AAV<lambda_da44e0f8b0f19ba52fefafb335991732>@@$$QAV<lambda_207f2d024fc103971653565357d6cd41>@@@Z 10026bd0     libucrt:per_thread_data.obj
 0002:00007bf0       __sehtable$??$?RV<lambda_a7e850c220f1c8d1e6efeecdedd162c6>@@AAV<lambda_46720907175c18b6c9d2717bc0d2d362>@@V<lambda_9048902d66e8d99359bc9897bbb930a8>@@@?$__crt_seh_guarded_call@X@@QAEX$$QAV<lambda_a7e850c220f1c8d1e6efeecdedd162c6>@@AAV<lambda_46720907175c18b6c9d2717bc0d2d362>@@$$QAV<lambda_9048902d66e8d99359bc9897bbb930a8>@@@Z 10026bf0     libucrt:per_thread_data.obj
 0002:00007c10       __sehtable$??$?RV<lambda_38edbb1296d33220d7e4dd0ed76b244a>@@AAV<lambda_5ce1d447e08cb34b2473517608e21441>@@V<lambda_fb385d3da700c9147fc39e65dd577a8c>@@@?$__crt_seh_guarded_call@X@@QAEX$$QAV<lambda_38edbb1296d33220d7e4dd0ed76b244a>@@AAV<lambda_5ce1d447e08cb34b2473517608e21441>@@$$QAV<lambda_fb385d3da700c9147fc39e65dd577a8c>@@@Z 10026c10     libucrt:per_thread_data.obj
 0002:00007c30       __sehtable$??$?RV<lambda_6affb1475c98b40b75cdec977db92e3c>@@AAV<lambda_b8d4b9c228a6ecc3f80208dbb4b4a104>@@V<lambda_608742c3c92a14382c1684fc64f96c88>@@@?$__crt_seh_guarded_call@X@@QAEX$$QAV<lambda_6affb1475c98b40b75cdec977db92e3c>@@AAV<lambda_b8d4b9c228a6ecc3f80208dbb4b4a104>@@$$QAV<lambda_608742c3c92a14382c1684fc64f96c88>@@@Z 10026c30     libucrt:per_thread_data.obj
 0002:00007c50       __sehtable$??$?RV<lambda_e5124f882df8998aaf41531e079ba474>@@AAV<lambda_3e16ef9562a7dcce91392c22ab16ea36>@@V<lambda_e25ca0880e6ef98be67edffd8c599615>@@@?$__crt_seh_guarded_call@X@@QAEX$$QAV<lambda_e5124f882df8998aaf41531e079ba474>@@AAV<lambda_3e16ef9562a7dcce91392c22ab16ea36>@@$$QAV<lambda_e25ca0880e6ef98be67edffd8c599615>@@@Z 10026c50     libucrt:wsetlocale.obj
 0002:00007c70       __sehtable$___acrt_initialize_lowio 10026c70     libucrt:ioinit.obj
 0002:00007c90       __sehtable$?update_thread_multibyte_data_internal@@YAPAU__crt_multibyte_data@@QAU__acrt_ptd@@QAU1@@Z 10026c90     libucrt:mbctype.obj
 0002:00007cb0       __sehtable$??$?RV<lambda_ceb1ee4838e85a9d631eb091e2fbe199>@@AAV<lambda_ae742caa10f662c28703da3d2ea5e57e>@@V<lambda_cd08b5d6af4937fe54fc07d0c9bf6b37>@@@?$__crt_seh_guarded_call@X@@QAEX$$QAV<lambda_ceb1ee4838e85a9d631eb091e2fbe199>@@AAV<lambda_ae742caa10f662c28703da3d2ea5e57e>@@$$QAV<lambda_cd08b5d6af4937fe54fc07d0c9bf6b37>@@@Z 10026cb0     libucrt:mbctype.obj
 0002:00007cd0       __sehtable$_raise          10026cd0     libucrt:signal.obj
 0002:00007cf0       __sehtable$??$?RV<lambda_cbab9ec6f41b0180b23cc171c22676b0>@@AAV<lambda_44731a7d0e6d81c3e6aa82d741081786>@@V<lambda_4b292cb8dd18144e164572427af410ab>@@@?$__crt_seh_guarded_call@P6AXH@Z@@QAEP6AXH@Z$$QAV<lambda_cbab9ec6f41b0180b23cc171c22676b0>@@AAV<lambda_44731a7d0e6d81c3e6aa82d741081786>@@$$QAV<lambda_4b292cb8dd18144e164572427af410ab>@@@Z 10026cf0     libucrt:signal.obj
 0002:00007d10       __sehtable$___acrt_update_thread_locale_data 10026d10     libucrt:locale_refcounting.obj
 0002:00007d30       __sehtable$__fcloseall     10026d30     libucrt:closeall.obj
 0002:00007d50       __sehtable$??$?RV<lambda_2866be3712abc81a800a822484c830d8>@@AAV<lambda_39ca0ed439415581b5b15c265174cece>@@V<lambda_2b24c74d71094a6cd0cb82e44167d71b>@@@?$__crt_seh_guarded_call@X@@QAEX$$QAV<lambda_2866be3712abc81a800a822484c830d8>@@AAV<lambda_39ca0ed439415581b5b15c265174cece>@@$$QAV<lambda_2b24c74d71094a6cd0cb82e44167d71b>@@@Z 10026d50     libucrt:fflush.obj
 0002:00007d70       __sehtable$??$?RV<lambda_2cc53f568c5a2bb6f192f930a45d44ea>@@AAV<lambda_ab61a845afdef5b7c387490eaf3616ee>@@V<lambda_c2ffc0b7726aa6be21d5f0026187e748>@@@?$__crt_seh_guarded_call@X@@QAEX$$QAV<lambda_2cc53f568c5a2bb6f192f930a45d44ea>@@AAV<lambda_ab61a845afdef5b7c387490eaf3616ee>@@$$QAV<lambda_c2ffc0b7726aa6be21d5f0026187e748>@@@Z 10026d70     libucrt:fflush.obj
 0002:00007d90       __sehtable$___acrt_lowio_ensure_fh_exists 10026d90     libucrt:osfinfo.obj
 0002:00007db0       __sehtable$__write         10026db0     libucrt:write.obj
 0002:00007dd0       __sehtable$_fclose         10026dd0     libucrt:fclose.obj
 0002:00007df0       __sehtable$??$?RV<lambda_9e9de3de5fa147e2223d7db92bc10aa6>@@AAV<lambda_38ce7e780aa69e748d6df282ebc68efe>@@V<lambda_8ca6da459f0f6780f1cff60fdc3d00e5>@@@?$__crt_seh_guarded_call@H@@QAEH$$QAV<lambda_9e9de3de5fa147e2223d7db92bc10aa6>@@AAV<lambda_38ce7e780aa69e748d6df282ebc68efe>@@$$QAV<lambda_8ca6da459f0f6780f1cff60fdc3d00e5>@@@Z 10026df0     libucrt:commit.obj
 0002:00007e10       __sehtable$??$?RV<lambda_218ce3db14220d0be481dae8ef3383b6>@@AAV<lambda_628dfdc04ba53c8bfc02c9951375f3f5>@@V<lambda_57dc472bd5c9d5f3b2cbca59b8a843ae>@@@?$__crt_seh_guarded_call@H@@QAEH$$QAV<lambda_218ce3db14220d0be481dae8ef3383b6>@@AAV<lambda_628dfdc04ba53c8bfc02c9951375f3f5>@@$$QAV<lambda_57dc472bd5c9d5f3b2cbca59b8a843ae>@@@Z 10026e10     libucrt:close.obj
 0002:00007e30       __sehtable$__IsNonwritableInCurrentImage 10026e30     LIBCMT:pesect.obj
 0002:00007e60       .edata                     10026e60     OPOSCAT.exp
 0002:00007e88       rgpv                       10026e88     OPOSCAT.exp
 0002:00007e98       rgszName                   10026e98     OPOSCAT.exp
 0002:00007ea8       rgwOrd                     10026ea8     OPOSCAT.exp
 0002:00007eb0       szName                     10026eb0     OPOSCAT.exp
 0002:00007ebc       $N00001                    10026ebc     OPOSCAT.exp
 0002:00007ecc       $N00002                    10026ecc     OPOSCAT.exp
 0002:00007ede       $N00003                    10026ede     OPOSCAT.exp
 0002:00007ef0       $N00004                    10026ef0     OPOSCAT.exp
 0002:00008508       .idata$6                   10027508     kernel32:KERNEL32.dll
 0002:0000871c       .idata$6                   1002771c     user32:USER32.dll
 0002:00008850       .idata$6                   10027850     gdi32:GDI32.dll
 0002:000088f6       .idata$6                   100278f6     advapi32:ADVAPI32.dll
 0002:00008a12       .idata$6                   10027a12     ole32:ole32.dll
 0002:00008a1c       .idata$6                   10027a1c     oleaut32:OLEAUT32.dll
 0003:00000110       ?ObjectMap@@3PAU_ATL_OBJMAP_ENTRY30@ATL@@A 10028110     CAT.obj
 0003:000001a8       ?s_SOMethodNames@@3PAPADA  100281a8     CATImpl.obj
 0003:00000224       ?s_RequiredMethodsPerRelease@@3PAHA 10028224     CATImpl.obj
 0003:00000260       ?__vcrt_flsindex@@3KA      10028260     libvcruntime:per_thread_data.obj
 0003:00000280       ?errno_no_memory@@3HA      10028280     libucrt:errno.obj
 0003:00000284       ?doserrno_no_memory@@3KA   10028284     libucrt:errno.obj
 0003:00000290       ?__acrt_flsindex@@3KA      10028290     libucrt:per_thread_data.obj
 0003:00000408       __mbctypes                 10028408     libucrt:mbctype.obj
 0003:00000510       __mbcasemaps               10028510     libucrt:mbctype.obj
 0003:00000610       ?__rgctypeflag@@3PADA      10028610     libucrt:mbctype.obj
 0003:00000618       ?__rgcode_page_info@@3PAUcode_page_info@@A 10028618     libucrt:mbctype.obj
 0003:00000b20       ?is_initialized_as_dll@@3_NA 10028b20     LIBCMT:utility.obj
 0003:00000b21       ?module_local_atexit_table_initialized@@3_NA 10028b21     LIBCMT:utility.obj
 0003:00000b24       ?module_local_atexit_table@@3U_onexit_table_t@@A 10028b24     LIBCMT:utility.obj
 0003:00000b30       ?module_local_at_quick_exit_table@@3U_onexit_table_t@@A 10028b30     LIBCMT:utility.obj
 0003:00000b3c       ?_Tss_mutex@@3U_RTL_CRITICAL_SECTION@@A 10028b3c     LIBCMT:thread_safe_statics.obj
 0003:00000b54       ?_Tss_cv@@3U_RTL_CONDITION_VARIABLE@@A 10028b54     LIBCMT:thread_safe_statics.obj
 0003:00000b58       ?_Tss_event@@3PAXA         10028b58     LIBCMT:thread_safe_statics.obj
 0003:00000b5c       ?encoded_sleep_condition_variable_cs@@3P6GHPAU_RTL_CONDITION_VARIABLE@@PAU_RTL_CRITICAL_SECTION@@K@ZA 10028b5c     LIBCMT:thread_safe_statics.obj
 0003:00000b60       ?encoded_wake_all_condition_variable@@3P6GXPAU_RTL_CONDITION_VARIABLE@@@ZA 10028b60     LIBCMT:thread_safe_statics.obj
 0003:00000b68       _GS_ExceptionRecord        10028b68     LIBCMT:gs_report.obj
 0003:00000bb8       _GS_ContextRecord          10028bb8     LIBCMT:gs_report.obj
 0003:00000e88       ?__proc_attached@@3HA      10028e88     LIBCMT:dll_dllmain.obj
 0003:00000ee4       ?AllocateData@@3P6GPAUAtlThunkData_t@@XZA 10028ee4     atls:atlthunk.obj
 0003:00000ee8       ?InitData@@3P6GXPAUAtlThunkData_t@@PAXI@ZA 10028ee8     atls:atlthunk.obj
 0003:00000eec       ?DataToCode@@3P6GP6GJPAUHWND__@@IIJ@ZPAUAtlThunkData_t@@@ZA 10028eec     atls:atlthunk.obj
 0003:00000ef0       ?FreeData@@3P6GXPAUAtlThunkData_t@@@ZA 10028ef0     atls:atlthunk.obj
 0003:00000ef4       ?Initialized@@3_NA         10028ef4     atls:atlthunk.obj
 0003:00000f00       ?__vcrt_startup_thread_ptd@@3U__vcrt_ptd@@A 10028f00     libvcruntime:per_thread_data.obj
 0003:00000f28       ___vcrt_lock_table         10028f28     libvcruntime:locks.obj
 0003:00000f40       ___vcrt_locks_initialized  10028f40     libvcruntime:locks.obj
 0003:00000f44       ?module_handles@@3PAPAUHINSTANCE__@@A 10028f44     libvcruntime:winapi_downlevel.obj
 0003:00000f50       ?encoded_function_pointers@@3PAPAXA 10028f50     libvcruntime:winapi_downlevel.obj
 0003:00000f8c       ?heap@@3V_HeapManager@@A   10028f8c     libvcruntime:undname.obj
 0003:00000fa4       ?__acrt_invalid_parameter_handler@@3V?$dual_state_global@P6AXPB_W00II@Z@__crt_state_management@@A 10028fa4     libucrt:invalid_parameter.obj
 0003:00000fa8       ?c_termination_complete@@3JA 10028fa8     libucrt:exit.obj
 0003:00000fac       ?thread_local_exit_callback_func@@3P6GXPAXK0@ZA 10028fac     libucrt:exit.obj
 0003:00000fb8       ?program_name@?1???$common_configure_argv@D@@YAHW4_crt_argv_mode@@@Z@4PADA 10028fb8     libucrt:argv_parsing.obj
 0003:000010e8       ?__acrt_new_handler@@3V?$dual_state_global@P6AHI@Z@__crt_state_management@@A 100290e8     libucrt:new_handler.obj
 0003:000010f0       ?module_handles@@3PAPAUHINSTANCE__@@A 100290f0     libucrt:winapi_thunks.obj
 0003:00001140       ?encoded_function_pointers@@3PAPAXA 10029140     libucrt:winapi_thunks.obj
 0003:000011d0       ?enable_percent_n@@3IA     100291d0     libucrt:printf_count_output.obj
 0003:000013f0       ?__acrt_lock_table@@3PAU_RTL_CRITICAL_SECTION@@A 100293f0     libucrt:locks.obj
 0003:00001540       ?__acrt_locks_initialized@@3IA 10029540     libucrt:locks.obj
 0003:00001550       ?fSystemSet@@3HA           10029550     libucrt:mbctype.obj
 0003:00001554       ?initialized@?1??__acrt_initialize_multibyte@@9@4_NA 10029554     libucrt:mbctype.obj
 0003:00001574       ?ctrlc_action@@3V?$dual_state_global@P6AXH@Z@__crt_state_management@@A 10029574     libucrt:signal.obj
 0003:00001578       ?ctrlbreak_action@@3V?$dual_state_global@P6AXH@Z@__crt_state_management@@A 10029578     libucrt:signal.obj
 0003:0000157c       ?abort_action@@3V?$dual_state_global@P6AXH@Z@__crt_state_management@@A 1002957c     libucrt:signal.obj
 0003:00001580       ?term_action@@3V?$dual_state_global@P6AXH@Z@__crt_state_management@@A 10029580     libucrt:signal.obj
 0003:00001584       ?user_matherr@@3V?$dual_state_global@P6AHPAU_exception@@@Z@__crt_state_management@@A 10029584     libucrt:matherr.obj
 0003:00001588       ?__acrt_global_new_mode@@3V?$dual_state_global@J@__crt_state_management@@A 10029588     libucrt:new_mode.obj
 0003:00001594       ?__acrt_app_type@@3W4_crt_app_type@@A 10029594     libucrt:report_runtime_error.obj
 0003:0000159c       __pmatherr_set             1002959c     libucrt:libm_error.obj
 0004:00000220       $R000000                   1002a220     CAT.res
 0004:00000b68       $R000948                   1002ab68     CAT.res
 0004:00000c50       $R000A30                   1002ac50     CAT.res
 0004:00000eb8       $R000C98                   1002aeb8     CAT.res
 0004:000013a8       $R001188                   1002b3a8     CAT.res
 0004:000051d0       $R004FB0                   1002f1d0     CAT.res
 0004:000051f8       $R004FD8                   1002f1f8     CAT.res
