 OPOSCashDrawer

 Timestamp is 5c443764 (Sun Jan 20 17:55:00 2019)

 Preferred load address is 10000000

 Start         Length     Name                   Class
 0001:00000000 00000080H .text$di                CODE
 0001:00000080 0001c85bH .text$mn                CODE
 0001:0001c8db 00000051H .text$x                 CODE
 0001:0001c92c 00000042H .text$yd                CODE
 0002:00000000 00000300H .idata$5                DATA
 0002:00000300 00000004H .00cfg                  DATA
 0002:00000304 00000004H .CRT$XCA                DATA
 0002:00000308 00000004H .CRT$XCL                DATA
 0002:0000030c 00000010H .CRT$XCU                DATA
 0002:0000031c 00000004H .CRT$XCZ                DATA
 0002:00000320 00000004H .CRT$XIA                DATA
 0002:00000324 00000010H .CRT$XIC                DATA
 0002:00000334 00000004H .CRT$XIZ                DATA
 0002:00000338 00000004H .CRT$XLA                DATA
 0002:0000033c 00000004H .CRT$XLZ                DATA
 0002:00000340 00000004H .CRT$XPA                DATA
 0002:00000344 00000008H .CRT$XPX                DATA
 0002:0000034c 00000004H .CRT$XPXA               DATA
 0002:00000350 00000004H .CRT$XPZ                DATA
 0002:00000354 00000004H .CRT$XTA                DATA
 0002:00000358 00000008H .CRT$XTZ                DATA
 0002:0000035c 00000000H .gfids$x                DATA
 0002:0000035c 00000000H .gfids$y                DATA
 0002:00000360 00006d18H .rdata                  DATA
 0002:00007078 00000018H .rdata$T                DATA
 0002:00007090 00000180H .rdata$r                DATA
 0002:00007210 00000020H .rdata$sxdata           DATA
 0002:00007230 000003e0H .rdata$zzzdbg           DATA
 0002:00007610 00000004H .rtc$IAA                DATA
 0002:00007614 00000004H .rtc$IZZ                DATA
 0002:00007618 00000004H .rtc$TAA                DATA
 0002:0000761c 00000004H .rtc$TZZ                DATA
 0002:00007620 00000004H .tls                    DATA
 0002:00007624 00000004H .tls$                   DATA
 0002:00007628 00000008H .tls$ZZZ                DATA
 0002:00007630 000005f4H .xdata$x                DATA
 0002:00007c24 00000004H ATL$__a                 DATA
 0002:00007c28 00000008H ATL$__z                 DATA
 0002:00007c30 000000acH .edata                  DATA
 0002:00007cdc 00000078H .idata$2                DATA
 0002:00007d54 00000014H .idata$3                DATA
 0002:00007d68 00000300H .idata$4                DATA
 0002:00008068 00000bdeH .idata$6                DATA
 0003:00000000 000009a0H .data                   DATA
 0003:000009a0 00000098H .data$r                 DATA
 0003:00000a38 00000b5cH .bss                    DATA
 0004:00000000 00000220H .rsrc$01                DATA
 0004:00000220 00003850H .rsrc$02                DATA

  Address         Publics by Value              Rva+Base       Lib:Object

 0000:00000000       ___guard_fids_count        00000000     <absolute>
 0000:00000000       ___guard_longjmp_table     00000000     <absolute>
 0000:00000000       ___hybrid_code_map_count   00000000     <absolute>
 0000:00000000       ___dynamic_value_reloc_table 00000000     <absolute>
 0000:00000000       ___guard_longjmp_count     00000000     <absolute>
 0000:00000000       __except_list              00000000     <absolute>
 0000:00000000       ___guard_fids_table        00000000     <absolute>
 0000:00000000       ___guard_iat_count         00000000     <absolute>
 0000:00000000       ___hybrid_auxiliary_iat    00000000     <absolute>
 0000:00000000       ___guard_iat_table         00000000     <absolute>
 0000:00000000       ___volatile_metadata       00000000     <absolute>
 0000:00000000       ___enclave_config          00000000     <absolute>
 0000:00000000       ___hybrid_code_map         00000000     <absolute>
 0000:00000008       ___safe_se_handler_count   00000008     <absolute>
 0000:0000002c       __tls_array                0000002c     <absolute>
 0000:00000100       ___guard_flags             00000100     <absolute>
 0000:00000000       ___ImageBase               10000000     <linker-defined>
 0001:00000080       ?DupWide@_CW@@AAEXXZ       10001080 f   CWString.obj
 0001:0000009c       ?cw_dup@@YGXPBDAAHAAPA_W1@Z 1000109c f   CWString.obj
 0001:0000010b       ?cw_memcpy@@YGHPA_WPBDH@Z  1000110b f   CWString.obj
 0001:00000137       ?cw_strcpy@@YAHPA_WPBD@Z   10001137 f   CWString.obj
 0001:0000014a       ?cw_strlen@@YAHPBD@Z       1000114a f   CWString.obj
 0001:00000163       ??0CAtlComModule@ATL@@QAE@XZ 10001163 f i OposVariant.obj
 0001:000001a8       ??0CAtlWinModule@ATL@@QAE@XZ 100011a8 f i OposVariant.obj
 0001:000001df       ??0OposDispParms@@QAE@PAVOposVariant@@H@Z 100011df f   OposVariant.obj
 0001:00000250       ??1OposDispParms@@QAE@XZ   10001250 f   OposVariant.obj
 0001:0000025e       ??A?$CSimpleArray@GV?$CSimpleArrayEqualHelper@G@ATL@@@ATL@@QAEAAGH@Z 1000125e f i OposVariant.obj
 0001:00000283       ??_Estringdispid@CComTypeInfoHolder@ATL@@QAEPAXI@Z 10001283 f i OposVariant.obj
 0001:000002ef       ?AtlWinModuleInit@ATL@@YGJPAU_ATL_WIN_MODULE70@1@@Z 100012ef f i OposVariant.obj
 0001:00000315       ?AtlWinModuleTerm@ATL@@YGJPAU_ATL_WIN_MODULE70@1@PAUHINSTANCE__@@@Z 10001315 f i OposVariant.obj
 0001:00000378       ?ChangeBSTR@OposVariant@@QAEXPAPA_WAAJ@Z 10001378 f   OposVariant.obj
 0001:000003b9       ?ChangeLONG@OposVariant@@QAEXPAJAAJ@Z 100013b9 f   OposVariant.obj
 0001:000003fa       ?GetLONG@OposVariant@@QAEJXZ 100013fa f   OposVariant.obj
 0001:00000415       ?Init@CComCriticalSection@ATL@@QAEJXZ 10001415 f i OposVariant.obj
 0001:0000043d       ?RemoveAll@?$CSimpleArray@GV?$CSimpleArrayEqualHelper@G@ATL@@@ATL@@QAEXXZ 1000143d f i OposVariant.obj
 0001:0000043d       ?RemoveAll@?$CSimpleArray@PAUHINSTANCE__@@V?$CSimpleArrayEqualHelper@PAUHINSTANCE__@@@ATL@@@ATL@@QAEXXZ 1000143d f i atls:atlbase.obj
 0001:0000045a       ?SetBSTR@OposVariant@@QAEXPA_WAAJ@Z 1000145a f   OposVariant.obj
 0001:0000048e       ?SetBSTR_Copy@OposVariant@@QAEXPA_WAAJ@Z 1000148e f   OposVariant.obj
 0001:000004de       ?SetBSTR_InOutPtr@OposVariant@@QAE_NPAPA_WAAJ@Z 100014de f   OposVariant.obj
 0001:00000515       ?SetDispatch_Ptr@OposVariant@@QAEXPAUIDispatch@@AAJ@Z 10001515 f   OposVariant.obj
 0001:00000550       ?SetLONG@OposVariant@@QAEXJ@Z 10001550 f   OposVariant.obj
 0001:00000572       ?SetLONG_Ptr@OposVariant@@QAEXPAJAAJ@Z 10001572 f   OposVariant.obj
 0001:000005a5       ?SetString@OposVariant@@QAEXPB_WAAJ@Z 100015a5 f   OposVariant.obj
 0001:000005eb       ?SetVARIANT_BOOL@OposVariant@@QAEXF@Z 100015eb f   OposVariant.obj
 0001:00000615       ?Term@CAtlComModule@ATL@@QAEXXZ 10001615 f i OposVariant.obj
 0001:0000065f       ?_AtlRaiseException@ATL@@YAXKK@Z 1000165f f i OposVariant.obj
 0001:00000674       ?AddRef@?$CComObjectCached@VCComClassFactory@ATL@@@ATL@@UAGKXZ 10001674 f i CashDrawer.obj
 0001:0000069b       ?Release@?$CComObjectCached@VCComClassFactory@ATL@@@ATL@@UAGKXZ 1000169b f i CashDrawer.obj
 0001:000006d1       ?QueryInterface@?$CComObjectCached@VCComClassFactory@ATL@@@ATL@@UAGJABU_GUID@@PAPAX@Z 100016d1 f i CashDrawer.obj
 0001:000006eb       ??_E?$CComObjectCached@VCComClassFactory@ATL@@@ATL@@UAEPAXI@Z 100016eb f i CashDrawer.obj
 0001:000006eb       ??_G?$CComObjectCached@VCComClassFactory@ATL@@@ATL@@UAEPAXI@Z 100016eb f i CashDrawer.obj
 0001:0000070d       ?AddRef@?$CComAggObject@VCOPOSCashDrawer@@@ATL@@UAGKXZ 1000170d f i CashDrawer.obj
 0001:0000071e       ?Release@?$CComAggObject@VCOPOSCashDrawer@@@ATL@@UAGKXZ 1000171e f i CashDrawer.obj
 0001:0000075a       ?QueryInterface@?$CComAggObject@VCOPOSCashDrawer@@@ATL@@UAGJABU_GUID@@PAPAX@Z 1000175a f i CashDrawer.obj
 0001:000007a9       ?AddRef@?$CComContainedObject@VCOPOSCashDrawer@@@ATL@@UAGKXZ 100017a9 f i CashDrawer.obj
 0001:000007bf       ?Release@?$CComContainedObject@VCOPOSCashDrawer@@@ATL@@UAGKXZ 100017bf f i CashDrawer.obj
 0001:000007d5       ?QueryInterface@?$CComContainedObject@VCOPOSCashDrawer@@@ATL@@UAGJABU_GUID@@PAPAX@Z 100017d5 f i CashDrawer.obj
 0001:000007f0       ??_E?$CComAggObject@VCOPOSCashDrawer@@@ATL@@UAEPAXI@Z 100017f0 f i CashDrawer.obj
 0001:000007f0       ??_G?$CComAggObject@VCOPOSCashDrawer@@@ATL@@UAEPAXI@Z 100017f0 f i CashDrawer.obj
 0001:00000815       ?AddRef@?$CComObject@VCOPOSCashDrawer@@@ATL@@UAGKXZ 10001815 f i CashDrawer.obj
 0001:0000082c       ?Release@?$CComObject@VCOPOSCashDrawer@@@ATL@@UAGKXZ 1000182c f i CashDrawer.obj
 0001:0000086e       ?QueryInterface@?$CComObject@VCOPOSCashDrawer@@@ATL@@UAGJABU_GUID@@PAPAX@Z 1000186e f i CashDrawer.obj
 0001:00000888       ?ObjectMain@CComObjectRootBase@ATL@@SGX_N@Z 10001888 f i CashDrawer.obj
 0001:00000888       ?OnFinalMessage@?$CWindowImplBaseT@VCWindow@ATL@@V?$CWinTraits@$0FGAAAAAA@$0A@@2@@ATL@@UAEXPAUHWND__@@@Z 10001888 f i CashDrawer.obj
 0001:0000088b       ?GetCategoryMap@CComObjectRootBase@ATL@@SAPBU_ATL_CATMAP_ENTRY@2@XZ 1000188b f i CashDrawer.obj
 0001:0000088b       ?GetObjectDescription@?$CComCoClass@VCOPOSCashDrawer@@$1?CLSID_OPOSCashDrawer@@3U_GUID@@B@ATL@@SGPB_WXZ 1000188b f i CashDrawer.obj
 0001:0000088e       ?CreateInstance@CComClassFactory@ATL@@UAGJPAUIUnknown@@ABU_GUID@@PAPAX@Z 1000188e f i CashDrawer.obj
 0001:000008cc       ?LockServer@CComClassFactory@ATL@@UAGJH@Z 100018cc f i CashDrawer.obj
 0001:000008eb       ??_ECComClassFactory@ATL@@UAEPAXI@Z 100018eb f i CashDrawer.obj
 0001:000008eb       ??_GCComClassFactory@ATL@@UAEPAXI@Z 100018eb f i CashDrawer.obj
 0001:00000916       ?OnDrawAdvanced@CComControlBase@ATL@@UAEJAAUATL_DRAWINFO@@@Z 10001916 f i CashDrawer.obj
 0001:00000a05       ?Next@?$CComEnumImpl@UIEnumConnections@@$1?_GUID_b196b287_bab4_101a_b69c_00aa00341d07@@3U__s_GUID@@BUtagCONNECTDATA@@V?$_Copy@UtagCONNECTDATA@@@ATL@@@ATL@@UAGJKPAUtagCONNECTDATA@@PAK@Z 10001a05 f i CashDrawer.obj
 0001:00000adc       ?Skip@?$CComEnumImpl@UIEnumConnections@@$1?_GUID_b196b287_bab4_101a_b69c_00aa00341d07@@3U__s_GUID@@BUtagCONNECTDATA@@V?$_Copy@UtagCONNECTDATA@@@ATL@@@ATL@@UAGJK@Z 10001adc f i CashDrawer.obj
 0001:00000b09       ?Reset@?$CComEnumImpl@UIEnumConnections@@$1?_GUID_b196b287_bab4_101a_b69c_00aa00341d07@@3U__s_GUID@@BUtagCONNECTDATA@@V?$_Copy@UtagCONNECTDATA@@@ATL@@@ATL@@UAGJXZ 10001b09 f i CashDrawer.obj
 0001:00000b09       ?Reset@?$CComEnumImpl@UIEnumConnectionPoints@@$1?_GUID_b196b285_bab4_101a_b69c_00aa00341d07@@3U__s_GUID@@BPAUIConnectionPoint@@V?$_CopyInterface@UIConnectionPoint@@@ATL@@@ATL@@UAGJXZ 10001b09 f i CashDrawer.obj
 0001:00000b1b       ?Clone@?$CComEnumImpl@UIEnumConnections@@$1?_GUID_b196b287_bab4_101a_b69c_00aa00341d07@@3U__s_GUID@@BUtagCONNECTDATA@@V?$_Copy@UtagCONNECTDATA@@@ATL@@@ATL@@UAGJPAPAUIEnumConnections@@@Z 10001b1b f i CashDrawer.obj
 0001:00000bfa       ?AddRef@?$CComObject@V?$CComEnum@UIEnumConnections@@$1?_GUID_b196b287_bab4_101a_b69c_00aa00341d07@@3U__s_GUID@@BUtagCONNECTDATA@@V?$_Copy@UtagCONNECTDATA@@@ATL@@VCComSingleThreadModel@6@@ATL@@@ATL@@UAGKXZ 10001bfa f i CashDrawer.obj
 0001:00000bfa       ?AddRef@?$CComObject@V?$CComEnum@UIEnumConnectionPoints@@$1?_GUID_b196b285_bab4_101a_b69c_00aa00341d07@@3U__s_GUID@@BPAUIConnectionPoint@@V?$_CopyInterface@UIConnectionPoint@@@ATL@@VCComSingleThreadModel@6@@ATL@@@ATL@@UAGKXZ 10001bfa f i CashDrawer.obj
 0001:00000c0b       ?Release@?$CComObject@V?$CComEnum@UIEnumConnections@@$1?_GUID_b196b287_bab4_101a_b69c_00aa00341d07@@3U__s_GUID@@BUtagCONNECTDATA@@V?$_Copy@UtagCONNECTDATA@@@ATL@@VCComSingleThreadModel@6@@ATL@@@ATL@@UAGKXZ 10001c0b f i CashDrawer.obj
 0001:00000c0b       ?Release@?$CComObject@V?$CComEnum@UIEnumConnectionPoints@@$1?_GUID_b196b285_bab4_101a_b69c_00aa00341d07@@3U__s_GUID@@BPAUIConnectionPoint@@V?$_CopyInterface@UIConnectionPoint@@@ATL@@VCComSingleThreadModel@6@@ATL@@@ATL@@UAGKXZ 10001c0b f i CashDrawer.obj
 0001:00000c47       ?QueryInterface@?$CComObject@V?$CComEnum@UIEnumConnections@@$1?_GUID_b196b287_bab4_101a_b69c_00aa00341d07@@3U__s_GUID@@BUtagCONNECTDATA@@V?$_Copy@UtagCONNECTDATA@@@ATL@@VCComSingleThreadModel@6@@ATL@@@ATL@@UAGJABU_GUID@@PAPAX@Z 10001c47 f i CashDrawer.obj
 0001:00000c61       ??_G?$CComObject@V?$CComEnum@UIEnumConnections@@$1?_GUID_b196b287_bab4_101a_b69c_00aa00341d07@@3U__s_GUID@@BUtagCONNECTDATA@@V?$_Copy@UtagCONNECTDATA@@@ATL@@VCComSingleThreadModel@6@@ATL@@@ATL@@UAEPAXI@Z 10001c61 f i CashDrawer.obj
 0001:00000c61       ??_E?$CComObject@V?$CComEnum@UIEnumConnections@@$1?_GUID_b196b287_bab4_101a_b69c_00aa00341d07@@3U__s_GUID@@BUtagCONNECTDATA@@V?$_Copy@UtagCONNECTDATA@@@ATL@@VCComSingleThreadModel@6@@ATL@@@ATL@@UAEPAXI@Z 10001c61 f i CashDrawer.obj
 0001:00000c83       ??_E?$CComObject@VCOPOSCashDrawer@@@ATL@@W3AEPAXI@Z 10001c83 f i CashDrawer.obj
 0001:00000c8b       ??_E?$CComObject@VCOPOSCashDrawer@@@ATL@@WEM@AEPAXI@Z 10001c8b f i CashDrawer.obj
 0001:00000c93       ?QueryInterface@?$CComObject@VCOPOSCashDrawer@@@ATL@@WHA@AGJABU_GUID@@PAPAX@Z 10001c93 f i CashDrawer.obj
 0001:00000c9d       ?AddRef@?$CComObject@VCOPOSCashDrawer@@@ATL@@WHA@AGKXZ 10001c9d f i CashDrawer.obj
 0001:00000ca7       ?Release@?$CComObject@VCOPOSCashDrawer@@@ATL@@WHA@AGKXZ 10001ca7 f i CashDrawer.obj
 0001:00000cb1       ?QueryInterface@?$CComObject@VCOPOSCashDrawer@@@ATL@@WHE@AGJABU_GUID@@PAPAX@Z 10001cb1 f i CashDrawer.obj
 0001:00000cbb       ?AddRef@?$CComObject@VCOPOSCashDrawer@@@ATL@@WHE@AGKXZ 10001cbb f i CashDrawer.obj
 0001:00000cc5       ?Release@?$CComObject@VCOPOSCashDrawer@@@ATL@@WHE@AGKXZ 10001cc5 f i CashDrawer.obj
 0001:00000ccf       ?QueryInterface@?$CComObject@VCOPOSCashDrawer@@@ATL@@WHI@AGJABU_GUID@@PAPAX@Z 10001ccf f i CashDrawer.obj
 0001:00000cd9       ?AddRef@?$CComObject@VCOPOSCashDrawer@@@ATL@@WHI@AGKXZ 10001cd9 f i CashDrawer.obj
 0001:00000ce3       ?Release@?$CComObject@VCOPOSCashDrawer@@@ATL@@WHI@AGKXZ 10001ce3 f i CashDrawer.obj
 0001:00000ced       ?QueryInterface@?$CComObject@VCOPOSCashDrawer@@@ATL@@WHM@AGJABU_GUID@@PAPAX@Z 10001ced f i CashDrawer.obj
 0001:00000cf7       ?AddRef@?$CComObject@VCOPOSCashDrawer@@@ATL@@WHM@AGKXZ 10001cf7 f i CashDrawer.obj
 0001:00000d01       ?Release@?$CComObject@VCOPOSCashDrawer@@@ATL@@WHM@AGKXZ 10001d01 f i CashDrawer.obj
 0001:00000d0b       ?QueryInterface@?$CComObject@VCOPOSCashDrawer@@@ATL@@WIA@AGJABU_GUID@@PAPAX@Z 10001d0b f i CashDrawer.obj
 0001:00000d18       ?AddRef@?$CComObject@VCOPOSCashDrawer@@@ATL@@WIA@AGKXZ 10001d18 f i CashDrawer.obj
 0001:00000d25       ?Release@?$CComObject@VCOPOSCashDrawer@@@ATL@@WIA@AGKXZ 10001d25 f i CashDrawer.obj
 0001:00000d32       ?QueryInterface@?$CComObject@VCOPOSCashDrawer@@@ATL@@WIE@AGJABU_GUID@@PAPAX@Z 10001d32 f i CashDrawer.obj
 0001:00000d3f       ?AddRef@?$CComObject@VCOPOSCashDrawer@@@ATL@@WIE@AGKXZ 10001d3f f i CashDrawer.obj
 0001:00000d4c       ?Release@?$CComObject@VCOPOSCashDrawer@@@ATL@@WIE@AGKXZ 10001d4c f i CashDrawer.obj
 0001:00000d59       ?QueryInterface@?$CComObject@VCOPOSCashDrawer@@@ATL@@WII@AGJABU_GUID@@PAPAX@Z 10001d59 f i CashDrawer.obj
 0001:00000d66       ?AddRef@?$CComObject@VCOPOSCashDrawer@@@ATL@@WII@AGKXZ 10001d66 f i CashDrawer.obj
 0001:00000d73       ?Release@?$CComObject@VCOPOSCashDrawer@@@ATL@@WII@AGKXZ 10001d73 f i CashDrawer.obj
 0001:00000d80       ?QueryInterface@?$CComObject@VCOPOSCashDrawer@@@ATL@@WIM@AGJABU_GUID@@PAPAX@Z 10001d80 f i CashDrawer.obj
 0001:00000d8d       ?AddRef@?$CComObject@VCOPOSCashDrawer@@@ATL@@WIM@AGKXZ 10001d8d f i CashDrawer.obj
 0001:00000d9a       ?Release@?$CComObject@VCOPOSCashDrawer@@@ATL@@WIM@AGKXZ 10001d9a f i CashDrawer.obj
 0001:00000da7       ?QueryInterface@?$CComObject@VCOPOSCashDrawer@@@ATL@@WJA@AGJABU_GUID@@PAPAX@Z 10001da7 f i CashDrawer.obj
 0001:00000db4       ?AddRef@?$CComObject@VCOPOSCashDrawer@@@ATL@@WJA@AGKXZ 10001db4 f i CashDrawer.obj
 0001:00000dc1       ?Release@?$CComObject@VCOPOSCashDrawer@@@ATL@@WJA@AGKXZ 10001dc1 f i CashDrawer.obj
 0001:00000dce       ?QueryInterface@?$CComObject@VCOPOSCashDrawer@@@ATL@@WJE@AGJABU_GUID@@PAPAX@Z 10001dce f i CashDrawer.obj
 0001:00000ddb       ?AddRef@?$CComObject@VCOPOSCashDrawer@@@ATL@@WJE@AGKXZ 10001ddb f i CashDrawer.obj
 0001:00000de8       ?Release@?$CComObject@VCOPOSCashDrawer@@@ATL@@WJE@AGKXZ 10001de8 f i CashDrawer.obj
 0001:00000df5       ?QueryInterface@?$CComObject@VCOPOSCashDrawer@@@ATL@@WJI@AGJABU_GUID@@PAPAX@Z 10001df5 f i CashDrawer.obj
 0001:00000e02       ?AddRef@?$CComObject@VCOPOSCashDrawer@@@ATL@@WJI@AGKXZ 10001e02 f i CashDrawer.obj
 0001:00000e0f       ?Release@?$CComObject@VCOPOSCashDrawer@@@ATL@@WJI@AGKXZ 10001e0f f i CashDrawer.obj
 0001:00000e1c       ?QueryInterface@?$CComObject@VCOPOSCashDrawer@@@ATL@@WJM@AGJABU_GUID@@PAPAX@Z 10001e1c f i CashDrawer.obj
 0001:00000e29       ?AddRef@?$CComObject@VCOPOSCashDrawer@@@ATL@@WJM@AGKXZ 10001e29 f i CashDrawer.obj
 0001:00000e36       ?Release@?$CComObject@VCOPOSCashDrawer@@@ATL@@WJM@AGKXZ 10001e36 f i CashDrawer.obj
 0001:00000e43       ?QueryInterface@?$CComObject@VCOPOSCashDrawer@@@ATL@@WKA@AGJABU_GUID@@PAPAX@Z 10001e43 f i CashDrawer.obj
 0001:00000e50       ?AddRef@?$CComObject@VCOPOSCashDrawer@@@ATL@@WKA@AGKXZ 10001e50 f i CashDrawer.obj
 0001:00000e5d       ?Release@?$CComObject@VCOPOSCashDrawer@@@ATL@@WKA@AGKXZ 10001e5d f i CashDrawer.obj
 0001:00000e6a       ?AddRef@?$CComObject@VCOPOSCashDrawer@@@ATL@@WKI@AGKXZ 10001e6a f i CashDrawer.obj
 0001:00000e77       ?Release@?$CComObject@VCOPOSCashDrawer@@@ATL@@WKI@AGKXZ 10001e77 f i CashDrawer.obj
 0001:00000e84       ?AddRef@?$CComObject@VCOPOSCashDrawer@@@ATL@@WLE@AGKXZ 10001e84 f i CashDrawer.obj
 0001:00000e91       ?Release@?$CComObject@VCOPOSCashDrawer@@@ATL@@WLE@AGKXZ 10001e91 f i CashDrawer.obj
 0001:00000e9e       ??_E?$CComContainedObject@VCOPOSCashDrawer@@@ATL@@W3AEPAXI@Z 10001e9e f i CashDrawer.obj
 0001:00000ea6       ??_E?$CComContainedObject@VCOPOSCashDrawer@@@ATL@@WEM@AEPAXI@Z 10001ea6 f i CashDrawer.obj
 0001:00000eae       ?QueryInterface@?$CComContainedObject@VCOPOSCashDrawer@@@ATL@@WHA@AGJABU_GUID@@PAPAX@Z 10001eae f i CashDrawer.obj
 0001:00000eb8       ?AddRef@?$CComContainedObject@VCOPOSCashDrawer@@@ATL@@WHA@AGKXZ 10001eb8 f i CashDrawer.obj
 0001:00000ec2       ?Release@?$CComContainedObject@VCOPOSCashDrawer@@@ATL@@WHA@AGKXZ 10001ec2 f i CashDrawer.obj
 0001:00000ecc       ?QueryInterface@?$CComContainedObject@VCOPOSCashDrawer@@@ATL@@WHE@AGJABU_GUID@@PAPAX@Z 10001ecc f i CashDrawer.obj
 0001:00000ed6       ?AddRef@?$CComContainedObject@VCOPOSCashDrawer@@@ATL@@WHE@AGKXZ 10001ed6 f i CashDrawer.obj
 0001:00000ee0       ?Release@?$CComContainedObject@VCOPOSCashDrawer@@@ATL@@WHE@AGKXZ 10001ee0 f i CashDrawer.obj
 0001:00000eea       ?QueryInterface@?$CComContainedObject@VCOPOSCashDrawer@@@ATL@@WHI@AGJABU_GUID@@PAPAX@Z 10001eea f i CashDrawer.obj
 0001:00000ef4       ?AddRef@?$CComContainedObject@VCOPOSCashDrawer@@@ATL@@WHI@AGKXZ 10001ef4 f i CashDrawer.obj
 0001:00000efe       ?Release@?$CComContainedObject@VCOPOSCashDrawer@@@ATL@@WHI@AGKXZ 10001efe f i CashDrawer.obj
 0001:00000f08       ?QueryInterface@?$CComContainedObject@VCOPOSCashDrawer@@@ATL@@WHM@AGJABU_GUID@@PAPAX@Z 10001f08 f i CashDrawer.obj
 0001:00000f12       ?AddRef@?$CComContainedObject@VCOPOSCashDrawer@@@ATL@@WHM@AGKXZ 10001f12 f i CashDrawer.obj
 0001:00000f1c       ?Release@?$CComContainedObject@VCOPOSCashDrawer@@@ATL@@WHM@AGKXZ 10001f1c f i CashDrawer.obj
 0001:00000f26       ?QueryInterface@?$CComContainedObject@VCOPOSCashDrawer@@@ATL@@WIA@AGJABU_GUID@@PAPAX@Z 10001f26 f i CashDrawer.obj
 0001:00000f33       ?AddRef@?$CComContainedObject@VCOPOSCashDrawer@@@ATL@@WIA@AGKXZ 10001f33 f i CashDrawer.obj
 0001:00000f40       ?Release@?$CComContainedObject@VCOPOSCashDrawer@@@ATL@@WIA@AGKXZ 10001f40 f i CashDrawer.obj
 0001:00000f4d       ?QueryInterface@?$CComContainedObject@VCOPOSCashDrawer@@@ATL@@WIE@AGJABU_GUID@@PAPAX@Z 10001f4d f i CashDrawer.obj
 0001:00000f5a       ?AddRef@?$CComContainedObject@VCOPOSCashDrawer@@@ATL@@WIE@AGKXZ 10001f5a f i CashDrawer.obj
 0001:00000f67       ?Release@?$CComContainedObject@VCOPOSCashDrawer@@@ATL@@WIE@AGKXZ 10001f67 f i CashDrawer.obj
 0001:00000f74       ?QueryInterface@?$CComContainedObject@VCOPOSCashDrawer@@@ATL@@WII@AGJABU_GUID@@PAPAX@Z 10001f74 f i CashDrawer.obj
 0001:00000f81       ?AddRef@?$CComContainedObject@VCOPOSCashDrawer@@@ATL@@WII@AGKXZ 10001f81 f i CashDrawer.obj
 0001:00000f8e       ?Release@?$CComContainedObject@VCOPOSCashDrawer@@@ATL@@WII@AGKXZ 10001f8e f i CashDrawer.obj
 0001:00000f9b       ?QueryInterface@?$CComContainedObject@VCOPOSCashDrawer@@@ATL@@WIM@AGJABU_GUID@@PAPAX@Z 10001f9b f i CashDrawer.obj
 0001:00000fa8       ?AddRef@?$CComContainedObject@VCOPOSCashDrawer@@@ATL@@WIM@AGKXZ 10001fa8 f i CashDrawer.obj
 0001:00000fb5       ?Release@?$CComContainedObject@VCOPOSCashDrawer@@@ATL@@WIM@AGKXZ 10001fb5 f i CashDrawer.obj
 0001:00000fc2       ?QueryInterface@?$CComContainedObject@VCOPOSCashDrawer@@@ATL@@WJA@AGJABU_GUID@@PAPAX@Z 10001fc2 f i CashDrawer.obj
 0001:00000fcf       ?AddRef@?$CComContainedObject@VCOPOSCashDrawer@@@ATL@@WJA@AGKXZ 10001fcf f i CashDrawer.obj
 0001:00000fdc       ?Release@?$CComContainedObject@VCOPOSCashDrawer@@@ATL@@WJA@AGKXZ 10001fdc f i CashDrawer.obj
 0001:00000fe9       ?QueryInterface@?$CComContainedObject@VCOPOSCashDrawer@@@ATL@@WJE@AGJABU_GUID@@PAPAX@Z 10001fe9 f i CashDrawer.obj
 0001:00000ff6       ?AddRef@?$CComContainedObject@VCOPOSCashDrawer@@@ATL@@WJE@AGKXZ 10001ff6 f i CashDrawer.obj
 0001:00001003       ?Release@?$CComContainedObject@VCOPOSCashDrawer@@@ATL@@WJE@AGKXZ 10002003 f i CashDrawer.obj
 0001:00001010       ?QueryInterface@?$CComContainedObject@VCOPOSCashDrawer@@@ATL@@WJI@AGJABU_GUID@@PAPAX@Z 10002010 f i CashDrawer.obj
 0001:0000101d       ?AddRef@?$CComContainedObject@VCOPOSCashDrawer@@@ATL@@WJI@AGKXZ 1000201d f i CashDrawer.obj
 0001:0000102a       ?Release@?$CComContainedObject@VCOPOSCashDrawer@@@ATL@@WJI@AGKXZ 1000202a f i CashDrawer.obj
 0001:00001037       ?QueryInterface@?$CComContainedObject@VCOPOSCashDrawer@@@ATL@@WJM@AGJABU_GUID@@PAPAX@Z 10002037 f i CashDrawer.obj
 0001:00001044       ?AddRef@?$CComContainedObject@VCOPOSCashDrawer@@@ATL@@WJM@AGKXZ 10002044 f i CashDrawer.obj
 0001:00001051       ?Release@?$CComContainedObject@VCOPOSCashDrawer@@@ATL@@WJM@AGKXZ 10002051 f i CashDrawer.obj
 0001:0000105e       ?QueryInterface@?$CComContainedObject@VCOPOSCashDrawer@@@ATL@@WKA@AGJABU_GUID@@PAPAX@Z 1000205e f i CashDrawer.obj
 0001:0000106b       ?AddRef@?$CComContainedObject@VCOPOSCashDrawer@@@ATL@@WKA@AGKXZ 1000206b f i CashDrawer.obj
 0001:00001078       ?Release@?$CComContainedObject@VCOPOSCashDrawer@@@ATL@@WKA@AGKXZ 10002078 f i CashDrawer.obj
 0001:00001085       ?AddRef@?$CComContainedObject@VCOPOSCashDrawer@@@ATL@@WKI@AGKXZ 10002085 f i CashDrawer.obj
 0001:00001092       ?Release@?$CComContainedObject@VCOPOSCashDrawer@@@ATL@@WKI@AGKXZ 10002092 f i CashDrawer.obj
 0001:0000109f       ?AddRef@?$CComContainedObject@VCOPOSCashDrawer@@@ATL@@WLE@AGKXZ 1000209f f i CashDrawer.obj
 0001:000010ac       ?Release@?$CComContainedObject@VCOPOSCashDrawer@@@ATL@@WLE@AGKXZ 100020ac f i CashDrawer.obj
 0001:000010b9       ?Lock@CAtlModule@ATL@@UAEJXZ 100020b9 f i CashDrawer.obj
 0001:000010c3       ?Unlock@CAtlModule@ATL@@UAEJXZ 100020c3 f i CashDrawer.obj
 0001:000010cd       ?GetLockCount@CAtlModule@ATL@@UAEJXZ 100020cd f i CashDrawer.obj
 0001:000010d1       ?GetGITPtr@CAtlModule@ATL@@UAEJPAPAUIGlobalInterfaceTable@@@Z 100020d1 f i CashDrawer.obj
 0001:0000111d       ?AddCommonRGSReplacements@?$CAtlModuleT@VCComModule@ATL@@@ATL@@UAEJPAUIRegistrarBase@@@Z 1000211d f i CashDrawer.obj
 0001:00001137       ?UpdateRegistryFromResourceD@CComModule@ATL@@UAGJPB_WHPAU_ATL_REGMAP_ENTRY@2@@Z 10002137 f i CashDrawer.obj
 0001:00001137       ?UpdateRegistryFromResourceD@CComModule@ATL@@UAGJIHPAU_ATL_REGMAP_ENTRY@2@@Z 10002137 f i CashDrawer.obj
 0001:0000113f       ?UpdateRegistryFromResource@CComModule@ATL@@UAGJPB_WHPAU_ATL_REGMAP_ENTRY@2@@Z 1000213f f i CashDrawer.obj
 0001:00001148       ?UpdateRegistryFromResource@CComModule@ATL@@UAGJIHPAU_ATL_REGMAP_ENTRY@2@@Z 10002148 f i CashDrawer.obj
 0001:00001151       ??_ECComModule@ATL@@UAEPAXI@Z 10002151 f i CashDrawer.obj
 0001:00001151       ??_GCComModule@ATL@@UAEPAXI@Z 10002151 f i CashDrawer.obj
 0001:00001179       ?GetWindowProc@?$CWindowImplBaseT@VCWindow@ATL@@V?$CWinTraits@$0FGAAAAAA@$0A@@2@@ATL@@UAEP6GJPAUHWND__@@IIJ@ZXZ 10002179 f i CashDrawer.obj
 0001:0000117f       ?StartWindowProc@?$CWindowImplBaseT@VCWindow@ATL@@V?$CWinTraits@$0FGAAAAAA@$0A@@2@@ATL@@SGJPAUHWND__@@IIJ@Z 1000217f f i CashDrawer.obj
 0001:000011d3       ?GetTypeInfoCount@?$IDispatchImpl@UIOPOSCashDrawer@@$1?IID_IOPOSCashDrawer@@3U_GUID@@B$1?LIBID_OposCashDrawer_CCO@@3U3@B$00$0A@VCComTypeInfoHolder@ATL@@@ATL@@UAGJPAI@Z 100021d3 f i CashDrawer.obj
 0001:000011f0       ?GetTypeInfo@?$IDispatchImpl@UIOPOSCashDrawer@@$1?IID_IOPOSCashDrawer@@3U_GUID@@B$1?LIBID_OposCashDrawer_CCO@@3U3@B$00$0A@VCComTypeInfoHolder@ATL@@@ATL@@UAGJIKPAPAUITypeInfo@@@Z 100021f0 f i CashDrawer.obj
 0001:00001214       ?GetIDsOfNames@?$IDispatchImpl@UIOPOSCashDrawer@@$1?IID_IOPOSCashDrawer@@3U_GUID@@B$1?LIBID_OposCashDrawer_CCO@@3U3@B$00$0A@VCComTypeInfoHolder@ATL@@@ATL@@UAGJABU_GUID@@PAPA_WIKPAJ@Z 10002214 f i CashDrawer.obj
 0001:00001234       ?Invoke@?$IDispatchImpl@UIOPOSCashDrawer@@$1?IID_IOPOSCashDrawer@@3U_GUID@@B$1?LIBID_OposCashDrawer_CCO@@3U3@B$00$0A@VCComTypeInfoHolder@ATL@@@ATL@@UAGJJABU_GUID@@KGPAUtagDISPPARAMS@@PAUtagVARIANT@@PAUtagEXCEPINFO@@PAI@Z 10002234 f i CashDrawer.obj
 0001:00001242       ?CreateControlWindow@?$CComControl@VCOPOSCashDrawer@@V?$CWindowImpl@VCOPOSCashDrawer@@VCWindow@ATL@@V?$CWinTraits@$0FGAAAAAA@$0A@@3@@ATL@@@ATL@@UAEPAUHWND__@@PAU3@AAUtagRECT@@@Z 10002242 f i CashDrawer.obj
 0001:00001271       ?ControlQueryInterface@?$CComControl@VCOPOSCashDrawer@@V?$CWindowImpl@VCOPOSCashDrawer@@VCWindow@ATL@@V?$CWinTraits@$0FGAAAAAA@$0A@@3@@ATL@@@ATL@@UAEJABU_GUID@@PAPAX@Z 10002271 f i CashDrawer.obj
 0001:0000128c       ?GetUserClassID@?$IOleObjectImpl@VCOPOSCashDrawer@@@ATL@@UAGJPAU_GUID@@@Z 1000228c f i CashDrawer.obj
 0001:0000128c       ?GetClassID@?$IPersistStreamInitImpl@VCOPOSCashDrawer@@@ATL@@UAGJPAU_GUID@@@Z 1000228c f i CashDrawer.obj
 0001:0000128c       ?GetClassID@?$IPersistStorageImpl@VCOPOSCashDrawer@@@ATL@@UAGJPAU_GUID@@@Z 1000228c f i CashDrawer.obj
 0001:000012b0       ?IsDirty@?$IPersistStreamInitImpl@VCOPOSCashDrawer@@@ATL@@UAGJXZ 100022b0 f i CashDrawer.obj
 0001:000012cf       ?Load@?$IPersistStreamInitImpl@VCOPOSCashDrawer@@@ATL@@UAGJPAUIStream@@@Z 100022cf f i CashDrawer.obj
 0001:000012ee       ?Save@?$IPersistStreamInitImpl@VCOPOSCashDrawer@@@ATL@@UAGJPAUIStream@@H@Z 100022ee f i CashDrawer.obj
 0001:00001310       ?GetSizeMax@?$IPersistStreamInitImpl@VCOPOSCashDrawer@@@ATL@@UAGJPAT_ULARGE_INTEGER@@@Z 10002310 f i CashDrawer.obj
 0001:000014c5       ?InitNew@?$IPersistStreamInitImpl@VCOPOSCashDrawer@@@ATL@@UAGJXZ 100024c5 f i CashDrawer.obj
 0001:000014e2       ?SOOutputCompleteDummy@COPOSCashDrawer@@MAGJJ@Z 100024e2 f i CashDrawer.obj
 0001:000014e2       ?SetColorScheme@?$IOleObjectImpl@VCOPOSCashDrawer@@@ATL@@UAGJPAUtagLOGPALETTE@@@Z 100024e2 f i CashDrawer.obj
 0001:000014e2       ?Unfreeze@?$IViewObjectExImpl@VCOPOSCashDrawer@@@ATL@@UAGJK@Z 100024e2 f i CashDrawer.obj
 0001:000014e2       ?ContextSensitiveHelp@?$IOleInPlaceObjectWindowlessImpl@VCOPOSCashDrawer@@@ATL@@UAGJH@Z 100024e2 f i CashDrawer.obj
 0001:000014e2       ?SODataDummy@COPOSCashDrawer@@MAGJJ@Z 100024e2 f i CashDrawer.obj
 0001:000014e2       ?GetControlInfo@?$IOleControlImpl@VCOPOSCashDrawer@@@ATL@@UAGJPAUtagCONTROLINFO@@@Z 100024e2 f i CashDrawer.obj
 0001:000014e2       ?GetDropTarget@?$IOleInPlaceObjectWindowlessImpl@VCOPOSCashDrawer@@@ATL@@UAGJPAPAUIDropTarget@@@Z 100024e2 f i CashDrawer.obj
 0001:000014e2       ?OnMnemonic@?$IOleControlImpl@VCOPOSCashDrawer@@@ATL@@UAGJPAUtagMSG@@@Z 100024e2 f i CashDrawer.obj
 0001:000014e2       ?QueryGetData@?$IDataObjectImpl@VCOPOSCashDrawer@@@ATL@@UAGJPAUtagFORMATETC@@@Z 100024e2 f i CashDrawer.obj
 0001:000014e2       ?ContextSensitiveHelp@?$IOleInPlaceActiveObjectImpl@VCOPOSCashDrawer@@@ATL@@UAGJH@Z 100024e2 f i CashDrawer.obj
 0001:000014ea       ?OnFrameWindowActivate@?$IOleInPlaceActiveObjectImpl@VCOPOSCashDrawer@@@ATL@@UAGJH@Z 100024ea f i CashDrawer.obj
 0001:000014ea       ?OnAmbientPropertyChange@?$IOleControlImpl@VCOPOSCashDrawer@@@ATL@@UAGJJ@Z 100024ea f i CashDrawer.obj
 0001:000014ea       ?EnableModeless@?$IOleInPlaceActiveObjectImpl@VCOPOSCashDrawer@@@ATL@@UAGJH@Z 100024ea f i CashDrawer.obj
 0001:000014ea       ?SaveCompleted@?$IPersistStorageImpl@VCOPOSCashDrawer@@@ATL@@UAGJPAUIStorage@@@Z 100024ea f i CashDrawer.obj
 0001:000014ef       ?SetClientSite@?$IOleObjectImpl@VCOPOSCashDrawer@@@ATL@@UAGJPAUIOleClientSite@@@Z 100024ef f i CashDrawer.obj
 0001:0000150c       ?GetClientSite@?$IOleObjectImpl@VCOPOSCashDrawer@@@ATL@@UAGJPAPAUIOleClientSite@@@Z 1000250c f i CashDrawer.obj
 0001:00001529       ?SetHostNames@?$IOleObjectImpl@VCOPOSCashDrawer@@@ATL@@UAGJPB_W0@Z 10002529 f i CashDrawer.obj
 0001:0000152e       ?Close@?$IOleObjectImpl@VCOPOSCashDrawer@@@ATL@@UAGJK@Z 1000252e f i CashDrawer.obj
 0001:0000154b       ?GetRect@?$IViewObjectExImpl@VCOPOSCashDrawer@@@ATL@@UAGJKPAU_RECTL@@@Z 1000254b f i CashDrawer.obj
 0001:0000154b       ?GetDataHere@?$IDataObjectImpl@VCOPOSCashDrawer@@@ATL@@UAGJPAUtagFORMATETC@@PAUtagSTGMEDIUM@@@Z 1000254b f i CashDrawer.obj
 0001:0000154b       ?GetClipboardData@?$IOleObjectImpl@VCOPOSCashDrawer@@@ATL@@UAGJKPAPAUIDataObject@@@Z 1000254b f i CashDrawer.obj
 0001:0000154b       ?SetMoniker@?$IOleObjectImpl@VCOPOSCashDrawer@@@ATL@@UAGJKPAUIMoniker@@@Z 1000254b f i CashDrawer.obj
 0001:0000154b       ?QueryInterface@CRegObject@ATL@@UAGJABU_GUID@@PAPAX@Z 1000254b f i CashDrawer.obj
 0001:0000154b       ?GetCanonicalFormatEtc@?$IDataObjectImpl@VCOPOSCashDrawer@@@ATL@@UAGJPAUtagFORMATETC@@0@Z 1000254b f i CashDrawer.obj
 0001:0000154b       ?EnumFormatEtc@?$IDataObjectImpl@VCOPOSCashDrawer@@@ATL@@UAGJKPAPAUIEnumFORMATETC@@@Z 1000254b f i CashDrawer.obj
 0001:00001553       ?GetMoniker@?$IOleObjectImpl@VCOPOSCashDrawer@@@ATL@@UAGJKKPAPAUIMoniker@@@Z 10002553 f i CashDrawer.obj
 0001:00001553       ?SetData@?$IDataObjectImpl@VCOPOSCashDrawer@@@ATL@@UAGJPAUtagFORMATETC@@PAUtagSTGMEDIUM@@H@Z 10002553 f i CashDrawer.obj
 0001:00001553       ?InitFromData@?$IOleObjectImpl@VCOPOSCashDrawer@@@ATL@@UAGJPAUIDataObject@@HK@Z 10002553 f i CashDrawer.obj
 0001:0000155b       ?DoVerb@?$IOleObjectImpl@VCOPOSCashDrawer@@@ATL@@UAGJJPAUtagMSG@@PAUIOleClientSite@@JPAUHWND__@@PBUtagRECT@@@Z 1000255b f i CashDrawer.obj
 0001:00001673       ?EnumVerbs@?$IOleObjectImpl@VCOPOSCashDrawer@@@ATL@@UAGJPAPAUIEnumOLEVERB@@@Z 10002673 f i CashDrawer.obj
 0001:00001695       ?IsUpToDate@?$IOleObjectImpl@VCOPOSCashDrawer@@@ATL@@UAGJXZ 10002695 f i CashDrawer.obj
 0001:00001695       ?Update@?$IOleObjectImpl@VCOPOSCashDrawer@@@ATL@@UAGJXZ 10002695 f i CashDrawer.obj
 0001:00001695       ?HandsOffStorage@?$IPersistStorageImpl@VCOPOSCashDrawer@@@ATL@@UAGJXZ 10002695 f i CashDrawer.obj
 0001:00001695       ?Release@CRegObject@ATL@@UAGKXZ 10002695 f i CashDrawer.obj
 0001:0000169a       ?GetUserType@?$IOleObjectImpl@VCOPOSCashDrawer@@@ATL@@UAGJKPAPA_W@Z 1000269a f i CashDrawer.obj
 0001:000016b2       ?SetExtent@?$IOleObjectImpl@VCOPOSCashDrawer@@@ATL@@UAGJKPAUtagSIZE@@@Z 100026b2 f i CashDrawer.obj
 0001:000016d2       ?GetExtent@?$IOleObjectImpl@VCOPOSCashDrawer@@@ATL@@UAGJKPAUtagSIZE@@@Z 100026d2 f i CashDrawer.obj
 0001:00001710       ?Advise@?$IOleObjectImpl@VCOPOSCashDrawer@@@ATL@@UAGJPAUIAdviseSink@@PAK@Z 10002710 f i CashDrawer.obj
 0001:00001730       ?Unadvise@?$IOleObjectImpl@VCOPOSCashDrawer@@@ATL@@UAGJK@Z 10002730 f i CashDrawer.obj
 0001:0000175f       ?EnumAdvise@?$IOleObjectImpl@VCOPOSCashDrawer@@@ATL@@UAGJPAPAUIEnumSTATDATA@@@Z 1000275f f i CashDrawer.obj
 0001:0000179f       ?GetMiscStatus@?$IOleObjectImpl@VCOPOSCashDrawer@@@ATL@@UAGJKPAK@Z 1000279f f i CashDrawer.obj
 0001:000017b7       ?GetWindow@?$IOleInPlaceActiveObjectImpl@VCOPOSCashDrawer@@@ATL@@UAGJPAPAUHWND__@@@Z 100027b7 f i CashDrawer.obj
 0001:00001804       ?TranslateAcceleratorW@?$IOleInPlaceActiveObjectImpl@VCOPOSCashDrawer@@@ATL@@UAGJPAUtagMSG@@@Z 10002804 f i CashDrawer.obj
 0001:000018a2       ?OnDocWindowActivate@?$IOleInPlaceActiveObjectImpl@VCOPOSCashDrawer@@@ATL@@UAGJH@Z 100028a2 f i CashDrawer.obj
 0001:000018c4       ?ResizeBorder@?$IOleInPlaceActiveObjectImpl@VCOPOSCashDrawer@@@ATL@@UAGJPBUtagRECT@@PAUIOleInPlaceUIWindow@@H@Z 100028c4 f i CashDrawer.obj
 0001:000018c9       ?Draw@?$IViewObjectExImpl@VCOPOSCashDrawer@@@ATL@@UAGJKJPAXPAUtagDVTARGETDEVICE@@PAUHDC__@@2PBU_RECTL@@3P6GHK@ZK@Z 100028c9 f i CashDrawer.obj
 0001:000018fb       ?GetColorSet@?$IViewObjectExImpl@VCOPOSCashDrawer@@@ATL@@UAGJKJPAXPAUtagDVTARGETDEVICE@@PAUHDC__@@PAPAUtagLOGPALETTE@@@Z 100028fb f i CashDrawer.obj
 0001:00001903       ?SOErrorDummy@COPOSCashDrawer@@MAGJJJJPAJ@Z 10002903 f i CashDrawer.obj
 0001:00001903       ?Freeze@?$IViewObjectExImpl@VCOPOSCashDrawer@@@ATL@@UAGJKJPAXPAK@Z 10002903 f i CashDrawer.obj
 0001:0000190b       ?SetAdvise@?$IViewObjectExImpl@VCOPOSCashDrawer@@@ATL@@UAGJKKPAUIAdviseSink@@@Z 1000290b f i CashDrawer.obj
 0001:0000192a       ?GetAdvise@?$IViewObjectExImpl@VCOPOSCashDrawer@@@ATL@@UAGJPAK0PAPAUIAdviseSink@@@Z 1000292a f i CashDrawer.obj
 0001:0000195f       ?GetExtent@?$IViewObjectExImpl@VCOPOSCashDrawer@@@ATL@@UAGJKJPAUtagDVTARGETDEVICE@@PAUtagSIZE@@@Z 1000295f f i CashDrawer.obj
 0001:00001990       ?GetViewStatus@?$IViewObjectExImpl@VCOPOSCashDrawer@@@ATL@@UAGJPAK@Z 10002990 f i CashDrawer.obj
 0001:000019ad       ?QueryHitPoint@?$IViewObjectExImpl@VCOPOSCashDrawer@@@ATL@@UAGJKPBUtagRECT@@UtagPOINT@@JPAK@Z 100029ad f i CashDrawer.obj
 0001:000019ee       ?QueryHitRect@?$IViewObjectExImpl@VCOPOSCashDrawer@@@ATL@@UAGJKPBUtagRECT@@0JPAK@Z 100029ee f i CashDrawer.obj
 0001:00001a49       ?GetNaturalExtent@?$IViewObjectExImpl@VCOPOSCashDrawer@@@ATL@@UAGJKJPAUtagDVTARGETDEVICE@@PAUHDC__@@PAUtagExtentInfo@@PAUtagSIZE@@@Z 10002a49 f i CashDrawer.obj
 0001:00001a94       ?GetWindow@?$IOleInPlaceObjectWindowlessImpl@VCOPOSCashDrawer@@@ATL@@UAGJPAPAUHWND__@@@Z 10002a94 f i CashDrawer.obj
 0001:00001ae1       ?InPlaceDeactivate@?$IOleInPlaceObjectWindowlessImpl@VCOPOSCashDrawer@@@ATL@@UAGJXZ 10002ae1 f i CashDrawer.obj
 0001:00001afb       ?UIDeactivate@?$IOleInPlaceObjectWindowlessImpl@VCOPOSCashDrawer@@@ATL@@UAGJXZ 10002afb f i CashDrawer.obj
 0001:00001b15       ?SetObjectRects@?$IOleInPlaceObjectWindowlessImpl@VCOPOSCashDrawer@@@ATL@@UAGJPBUtagRECT@@0@Z 10002b15 f i CashDrawer.obj
 0001:00001b35       ?ReactivateAndUndo@?$IOleInPlaceObjectWindowlessImpl@VCOPOSCashDrawer@@@ATL@@UAGJXZ 10002b35 f i CashDrawer.obj
 0001:00001b3d       ?OnWindowMessage@?$IOleInPlaceObjectWindowlessImpl@VCOPOSCashDrawer@@@ATL@@UAGJIIJPAJ@Z 10002b3d f i CashDrawer.obj
 0001:00001bad       ?EnumConnectionPoints@?$IConnectionPointContainerImpl@VCOPOSCashDrawer@@@ATL@@UAGJPAPAUIEnumConnectionPoints@@@Z 10002bad f i CashDrawer.obj
 0001:00001d27       ?FindConnectionPoint@?$IConnectionPointContainerImpl@VCOPOSCashDrawer@@@ATL@@UAGJABU_GUID@@PAPAUIConnectionPoint@@@Z 10002d27 f i CashDrawer.obj
 0001:00001dca       ?IsDirty@?$IPersistStorageImpl@VCOPOSCashDrawer@@@ATL@@UAGJXZ 10002dca f i CashDrawer.obj
 0001:00001dfe       ?InitNew@?$IPersistStorageImpl@VCOPOSCashDrawer@@@ATL@@UAGJPAUIStorage@@@Z 10002dfe f i CashDrawer.obj
 0001:00001e32       ?Load@?$IPersistStorageImpl@VCOPOSCashDrawer@@@ATL@@UAGJPAUIStorage@@@Z 10002e32 f i CashDrawer.obj
 0001:00001e9e       ?Save@?$IPersistStorageImpl@VCOPOSCashDrawer@@@ATL@@UAGJPAUIStorage@@H@Z 10002e9e f i CashDrawer.obj
 0001:00001f11       ?GetPages@?$ISpecifyPropertyPagesImpl@VCOPOSCashDrawer@@@ATL@@UAGJPAUtagCAUUID@@@Z 10002f11 f i CashDrawer.obj
 0001:00001f28       ?QuickActivate@?$IQuickActivateImpl@VCOPOSCashDrawer@@@ATL@@UAGJPAUtagQACONTAINER@@PAUtagQACONTROL@@@Z 10002f28 f i CashDrawer.obj
 0001:00001f4b       ?SetContentExtent@?$IQuickActivateImpl@VCOPOSCashDrawer@@@ATL@@UAGJPAUtagSIZE@@@Z 10002f4b f i CashDrawer.obj
 0001:00001f77       ?GetContentExtent@?$IQuickActivateImpl@VCOPOSCashDrawer@@@ATL@@UAGJPAUtagSIZE@@@Z 10002f77 f i CashDrawer.obj
 0001:00001f97       ?GetData@?$IDataObjectImpl@VCOPOSCashDrawer@@@ATL@@UAGJPAUtagFORMATETC@@PAUtagSTGMEDIUM@@@Z 10002f97 f i CashDrawer.obj
 0001:00001fba       ?DAdvise@?$IDataObjectImpl@VCOPOSCashDrawer@@@ATL@@UAGJPAUtagFORMATETC@@KPAUIAdviseSink@@PAK@Z 10002fba f i CashDrawer.obj
 0001:00001ffb       ?DUnadvise@?$IDataObjectImpl@VCOPOSCashDrawer@@@ATL@@UAGJK@Z 10002ffb f i CashDrawer.obj
 0001:00002029       ?EnumDAdvise@?$IDataObjectImpl@VCOPOSCashDrawer@@@ATL@@UAGJPAPAUIEnumSTATDATA@@@Z 10003029 f i CashDrawer.obj
 0001:00002068       ?GetClassInfoW@?$IProvideClassInfo2Impl@$1?CLSID_OPOSCashDrawer@@3U_GUID@@B$1?DIID__IOPOSCashDrawerEvents@@3U2@B$1?LIBID_OposCashDrawer_CCO@@3U2@B$00$0A@VCComTypeInfoHolder@ATL@@@ATL@@UAGJPAPAUITypeInfo@@@Z 10003068 f i CashDrawer.obj
 0001:0000207e       ?GetGUID@?$IProvideClassInfo2Impl@$1?CLSID_OPOSCashDrawer@@3U_GUID@@B$1?DIID__IOPOSCashDrawerEvents@@3U2@B$1?LIBID_OposCashDrawer_CCO@@3U2@B$00$0A@VCComTypeInfoHolder@ATL@@@ATL@@UAGJKPAU_GUID@@@Z 1000307e f i CashDrawer.obj
 0001:000020bc       __get_startup_argv_mode    100030bc f i LIBCMT:argv_mode.obj
 0001:000020bc       ?FAccessAllowed@?$IObjectSafetyImpl@VCOPOSCashDrawer@@$02@ATL@@MAEHXZ 100030bc f i CashDrawer.obj
 0001:000020c0       ?GetInterfaceSafetyOptions@?$IObjectSafetyImpl@VCOPOSCashDrawer@@$02@ATL@@UAGJABU_GUID@@PAK1@Z 100030c0 f i CashDrawer.obj
 0001:00002134       ?SetInterfaceSafetyOptions@?$IObjectSafetyImpl@VCOPOSCashDrawer@@$02@ATL@@UAGJABU_GUID@@KK@Z 10003134 f i CashDrawer.obj
 0001:000021ae       ?_LocCPQueryInterface@?$IConnectionPointImpl@VCOPOSCashDrawer@@$1?IID_IPropertyNotifySink@@3U_GUID@@BVCComDynamicUnkArray@ATL@@@ATL@@UAGJABU_GUID@@PAPAX@Z 100031ae f i CashDrawer.obj
 0001:000021ae       ?_LocCPQueryInterface@?$IConnectionPointImpl@VCOPOSCashDrawer@@$1?DIID__IOPOSCashDrawerEvents@@3U_GUID@@BVCComDynamicUnkArray@ATL@@@ATL@@UAGJABU_GUID@@PAPAX@Z 100031ae f i CashDrawer.obj
 0001:000021fb       ?GetConnectionInterface@?$IConnectionPointImpl@VCOPOSCashDrawer@@$1?IID_IPropertyNotifySink@@3U_GUID@@BVCComDynamicUnkArray@ATL@@@ATL@@UAGJPAU_GUID@@@Z 100031fb f i CashDrawer.obj
 0001:0000221f       ?GetConnectionPointContainer@?$IConnectionPointImpl@VCOPOSCashDrawer@@$1?IID_IPropertyNotifySink@@3U_GUID@@BVCComDynamicUnkArray@ATL@@@ATL@@UAGJPAPAUIConnectionPointContainer@@@Z 1000321f f i CashDrawer.obj
 0001:00002242       ?Advise@?$IConnectionPointImpl@VCOPOSCashDrawer@@$1?IID_IPropertyNotifySink@@3U_GUID@@BVCComDynamicUnkArray@ATL@@@ATL@@UAGJPAUIUnknown@@PAK@Z 10003242 f i CashDrawer.obj
 0001:00002242       ?Advise@?$IConnectionPointImpl@VCOPOSCashDrawer@@$1?DIID__IOPOSCashDrawerEvents@@3U_GUID@@BVCComDynamicUnkArray@ATL@@@ATL@@UAGJPAUIUnknown@@PAK@Z 10003242 f i CashDrawer.obj
 0001:000022e3       ?Unadvise@?$IConnectionPointImpl@VCOPOSCashDrawer@@$1?IID_IPropertyNotifySink@@3U_GUID@@BVCComDynamicUnkArray@ATL@@@ATL@@UAGJK@Z 100032e3 f i CashDrawer.obj
 0001:000022e3       ?Unadvise@?$IConnectionPointImpl@VCOPOSCashDrawer@@$1?DIID__IOPOSCashDrawerEvents@@3U_GUID@@BVCComDynamicUnkArray@ATL@@@ATL@@UAGJK@Z 100032e3 f i CashDrawer.obj
 0001:00002323       ?EnumConnections@?$IConnectionPointImpl@VCOPOSCashDrawer@@$1?DIID__IOPOSCashDrawerEvents@@3U_GUID@@BVCComDynamicUnkArray@ATL@@@ATL@@UAGJPAPAUIEnumConnections@@@Z 10003323 f i CashDrawer.obj
 0001:00002323       ?EnumConnections@?$IConnectionPointImpl@VCOPOSCashDrawer@@$1?IID_IPropertyNotifySink@@3U_GUID@@BVCComDynamicUnkArray@ATL@@@ATL@@UAGJPAPAUIEnumConnections@@@Z 10003323 f i CashDrawer.obj
 0001:00002429       ?GetConnectionInterface@?$IConnectionPointImpl@VCOPOSCashDrawer@@$1?DIID__IOPOSCashDrawerEvents@@3U_GUID@@BVCComDynamicUnkArray@ATL@@@ATL@@UAGJPAU_GUID@@@Z 10003429 f i CashDrawer.obj
 0001:0000244d       ?GetConnectionPointContainer@?$IConnectionPointImpl@VCOPOSCashDrawer@@$1?DIID__IOPOSCashDrawerEvents@@3U_GUID@@BVCComDynamicUnkArray@ATL@@@ATL@@UAGJPAPAUIConnectionPointContainer@@@Z 1000344d f i CashDrawer.obj
 0001:00002470       ?AddRef@CRegObject@ATL@@UAGKXZ 10003470 f i CashDrawer.obj
 0001:00002476       ?AddReplacement@CRegObject@ATL@@UAGJPB_W0@Z 10003476 f i CashDrawer.obj
 0001:000024af       ?ClearReplacements@CRegObject@ATL@@UAGJXZ 100034af f i CashDrawer.obj
 0001:000024c1       ?UpdateRegistry@COPOSCashDrawer@@SGJH@Z 100034c1 f i CashDrawer.obj
 0001:000024d9       ??_ECRegObject@ATL@@UAEPAXI@Z 100034d9 f i CashDrawer.obj
 0001:000024d9       ??_GCRegObject@ATL@@UAEPAXI@Z 100034d9 f i CashDrawer.obj
 0001:000024fb       ?ProcessWindowMessage@COPOSCashDrawer@@UAEHPAUHWND__@@IIJAAJK@Z 100034fb f i CashDrawer.obj
 0001:00002544       ?SODirectIO@COPOSCashDrawer@@MAGJJPAJPAPA_W@Z 10003544 f i CashDrawer.obj
 0001:0000258d       ?SOStatusUpdate@COPOSCashDrawer@@MAGJJ@Z 1000358d f i CashDrawer.obj
 0001:000025c6       ?CreateInstance@?$CComCreator@V?$CComObjectCached@VCComClassFactory@ATL@@@ATL@@@ATL@@SGJPAXABU_GUID@@PAPAX@Z 100035c6 f i CashDrawer.obj
 0001:00002659       ?CreateInstance@?$CComCreator2@V?$CComCreator@V?$CComObject@VCOPOSCashDrawer@@@ATL@@@ATL@@V?$CComCreator@V?$CComAggObject@VCOPOSCashDrawer@@@ATL@@@2@@ATL@@SGJPAXABU_GUID@@PAPAX@Z 10003659 f i CashDrawer.obj
 0001:00002679       ?Next@?$CComEnumImpl@UIEnumConnectionPoints@@$1?_GUID_b196b285_bab4_101a_b69c_00aa00341d07@@3U__s_GUID@@BPAUIConnectionPoint@@V?$_CopyInterface@UIConnectionPoint@@@ATL@@@ATL@@UAGJKPAPAUIConnectionPoint@@PAK@Z 10003679 f i CashDrawer.obj
 0001:00002750       ?Skip@?$CComEnumImpl@UIEnumConnectionPoints@@$1?_GUID_b196b285_bab4_101a_b69c_00aa00341d07@@3U__s_GUID@@BPAUIConnectionPoint@@V?$_CopyInterface@UIConnectionPoint@@@ATL@@@ATL@@UAGJK@Z 10003750 f i CashDrawer.obj
 0001:0000277d       ?Clone@?$CComEnumImpl@UIEnumConnectionPoints@@$1?_GUID_b196b285_bab4_101a_b69c_00aa00341d07@@3U__s_GUID@@BPAUIConnectionPoint@@V?$_CopyInterface@UIConnectionPoint@@@ATL@@@ATL@@UAGJPAPAUIEnumConnectionPoints@@@Z 1000377d f i CashDrawer.obj
 0001:0000285c       ?QueryInterface@?$CComObject@V?$CComEnum@UIEnumConnectionPoints@@$1?_GUID_b196b285_bab4_101a_b69c_00aa00341d07@@3U__s_GUID@@BPAUIConnectionPoint@@V?$_CopyInterface@UIConnectionPoint@@@ATL@@VCComSingleThreadModel@6@@ATL@@@ATL@@UAGJABU_GUID@@PAPAX@Z 1000385c f i CashDrawer.obj
 0001:00002876       ??_G?$CComObject@V?$CComEnum@UIEnumConnectionPoints@@$1?_GUID_b196b285_bab4_101a_b69c_00aa00341d07@@3U__s_GUID@@BPAUIConnectionPoint@@V?$_CopyInterface@UIConnectionPoint@@@ATL@@VCComSingleThreadModel@6@@ATL@@@ATL@@UAEPAXI@Z 10003876 f i CashDrawer.obj
 0001:00002876       ??_E?$CComObject@V?$CComEnum@UIEnumConnectionPoints@@$1?_GUID_b196b285_bab4_101a_b69c_00aa00341d07@@3U__s_GUID@@BPAUIConnectionPoint@@V?$_CopyInterface@UIConnectionPoint@@@ATL@@VCComSingleThreadModel@6@@ATL@@@ATL@@UAEPAXI@Z 10003876 f i CashDrawer.obj
 0001:00002898       ??$?4UITypeInfo2@@@?$CComPtr@UITypeInfo@@@ATL@@QAEPAUITypeInfo@@ABV?$CComPtr@UITypeInfo2@@@1@@Z 10003898 f i CashDrawer.obj
 0001:000028c5       ??$AtlAdd@K@ATL@@YAJPAKKK@Z 100038c5 f i CashDrawer.obj
 0001:000028e8       ??$AtlAdd@_K@ATL@@YAJPA_K_K1@Z 100038e8 f i CashDrawer.obj
 0001:00002920       ??$AtlAddThrow@K@ATL@@YAKKK@Z 10003920 f i CashDrawer.obj
 0001:00002946       ??$AtlModuleRegisterWndClassInfoT@VAtlModuleRegisterWndClassInfoParamW@ATL@@@ATL@@YAGPAU_ATL_BASE_MODULE70@0@PAU_ATL_WIN_MODULE70@0@PAU_ATL_WNDCLASSINFOW@0@PAP6GJPAUHWND__@@IIJ@ZVAtlModuleRegisterWndClassInfoParamW@0@@Z 10003946 f i CashDrawer.obj
 0001:00002a94       ??$AtlMultiply@H@ATL@@YAJPAHHH@Z 10003a94 f i CashDrawer.obj
 0001:00002acc       ??$AtlMultiply@I@ATL@@YAJPAIII@Z 10003acc f i CashDrawer.obj
 0001:00002acc       ??$AtlMultiply@K@ATL@@YAJPAKKK@Z 10003acc f i CashDrawer.obj
 0001:00002aee       ??$AtlMultiplyThrow@I@ATL@@YAIII@Z 10003aee f i CashDrawer.obj
 0001:00002b14       ??0?$CComAggObject@VCOPOSCashDrawer@@@ATL@@QAE@PAX@Z 10003b14 f i CashDrawer.obj
 0001:00002b41       ??0?$CComContainedObject@VCOPOSCashDrawer@@@ATL@@QAE@PAX@Z 10003b41 f i CashDrawer.obj
 0001:00002bfa       ??0?$CComObject@V?$CComEnum@UIEnumConnectionPoints@@$1?_GUID_b196b285_bab4_101a_b69c_00aa00341d07@@3U__s_GUID@@BPAUIConnectionPoint@@V?$_CopyInterface@UIConnectionPoint@@@ATL@@VCComSingleThreadModel@6@@ATL@@@ATL@@QAE@PAX@Z 10003bfa f i CashDrawer.obj
 0001:00002c28       ??0?$CComObject@V?$CComEnum@UIEnumConnections@@$1?_GUID_b196b287_bab4_101a_b69c_00aa00341d07@@3U__s_GUID@@BUtagCONNECTDATA@@V?$_Copy@UtagCONNECTDATA@@@ATL@@VCComSingleThreadModel@6@@ATL@@@ATL@@QAE@PAX@Z 10003c28 f i CashDrawer.obj
 0001:00002c56       ??0?$CComObject@VCOPOSCashDrawer@@@ATL@@QAE@PAX@Z 10003c56 f i CashDrawer.obj
 0001:00002d0d       ??0?$CComQIPtr@UIOleControlSite@@$1?_GUID_b196b289_bab4_101a_b69c_00aa00341d07@@3U__s_GUID@@B@ATL@@QAE@PAUIUnknown@@@Z 10003d0d f i CashDrawer.obj
 0001:00002d36       ??0CAtlModule@ATL@@QAE@XZ  10003d36 f i CashDrawer.obj
 0001:00002d77       ??0CParseBuffer@CRegParser@ATL@@QAE@H@Z 10003d77 f i CashDrawer.obj
 0001:00002dad       ??0_ATL_MSG@ATL@@QAE@PAUHWND__@@IIJH@Z 10003dad f i CashDrawer.obj
 0001:00002de5       ??1?$CComAggObject@VCOPOSCashDrawer@@@ATL@@UAE@XZ 10003de5 f i CashDrawer.obj
 0001:00002e09       ??1?$CComEnumImpl@UIEnumConnectionPoints@@$1?_GUID_b196b285_bab4_101a_b69c_00aa00341d07@@3U__s_GUID@@BPAUIConnectionPoint@@V?$_CopyInterface@UIConnectionPoint@@@ATL@@@ATL@@UAE@XZ 10003e09 f i CashDrawer.obj
 0001:00002e49       ??1?$CComEnumImpl@UIEnumConnections@@$1?_GUID_b196b287_bab4_101a_b69c_00aa00341d07@@3U__s_GUID@@BUtagCONNECTDATA@@V?$_Copy@UtagCONNECTDATA@@@ATL@@@ATL@@UAE@XZ 10003e49 f i CashDrawer.obj
 0001:00002e89       ??1?$CComObject@V?$CComEnum@UIEnumConnectionPoints@@$1?_GUID_b196b285_bab4_101a_b69c_00aa00341d07@@3U__s_GUID@@BPAUIConnectionPoint@@V?$_CopyInterface@UIConnectionPoint@@@ATL@@VCComSingleThreadModel@6@@ATL@@@ATL@@UAE@XZ 10003e89 f i CashDrawer.obj
 0001:00002eac       ??1?$CComObject@V?$CComEnum@UIEnumConnections@@$1?_GUID_b196b287_bab4_101a_b69c_00aa00341d07@@3U__s_GUID@@BUtagCONNECTDATA@@V?$_Copy@UtagCONNECTDATA@@@ATL@@VCComSingleThreadModel@6@@ATL@@@ATL@@UAE@XZ 10003eac f i CashDrawer.obj
 0001:00002ecf       ??1?$CComObject@VCOPOSCashDrawer@@@ATL@@UAE@XZ 10003ecf f i CashDrawer.obj
 0001:00002f8d       ??1?$CComObjectCached@VCComClassFactory@ATL@@@ATL@@UAE@XZ 10003f8d f i CashDrawer.obj
 0001:00002fa3       ??1?$CComObjectRootEx@VCComMultiThreadModel@ATL@@@ATL@@QAE@XZ 10003fa3 f i CashDrawer.obj
 0001:00002fb8       ??1CRegObject@ATL@@UAE@XZ  10003fb8 f i CashDrawer.obj
 0001:00002fd8       ??4?$CComPtr@UIUnknown@@@ATL@@QAEPAUIUnknown@@PAU2@@Z 10003fd8 f i CashDrawer.obj
 0001:00002fd8       ??4?$CComPtr@UIAdviseSink@@@ATL@@QAEPAUIAdviseSink@@PAU2@@Z 10003fd8 f i CashDrawer.obj
 0001:00002fd8       ??4?$CComPtr@UIOleClientSite@@@ATL@@QAEPAUIOleClientSite@@PAU2@@Z 10003fd8 f i CashDrawer.obj
 0001:0000300c       ??4?$CComQIPtr@UIOleObject@@$1?_GUID_00000112_0000_0000_c000_000000000046@@3U__s_GUID@@B@ATL@@QAEPAUIOleObject@@PAUIUnknown@@@Z 1000400c f i CashDrawer.obj
 0001:00003031       ??4?$CComQIPtr@UISpecifyPropertyPages@@$1?_GUID_b196b28b_bab4_101a_b69c_00aa00341d07@@3U__s_GUID@@B@ATL@@QAEPAUISpecifyPropertyPages@@PAUIUnknown@@@Z 10004031 f i CashDrawer.obj
 0001:00003056       ??_E?$CComContainedObject@VCOPOSCashDrawer@@@ATL@@UAEPAXI@Z 10004056 f i CashDrawer.obj
 0001:00003056       ??_G?$CComContainedObject@VCOPOSCashDrawer@@@ATL@@UAEPAXI@Z 10004056 f i CashDrawer.obj
 0001:0000307b       ??_G?$CComObject@VCOPOSCashDrawer@@@ATL@@UAEPAXI@Z 1000407b f i CashDrawer.obj
 0001:0000307b       ??_E?$CComObject@VCOPOSCashDrawer@@@ATL@@UAEPAXI@Z 1000407b f i CashDrawer.obj
 0001:000030a0       ?Add@?$CSimpleArray@GV?$CSimpleArrayEqualHelper@G@ATL@@@ATL@@QAEHABG@Z 100040a0 f i CashDrawer.obj
 0001:00003124       ?Add@?$CSimpleMap@PA_WPA_WVCExpansionVectorEqualHelper@ATL@@@ATL@@QAEHABQA_W0@Z 10004124 f i CashDrawer.obj
 0001:00003179       ?Add@CComDynamicUnkArray@ATL@@QAEKPAUIUnknown@@@Z 10004179 f i CashDrawer.obj
 0001:00003234       ?Add@CExpansionVector@ATL@@QAEHPB_W0@Z 10004234 f i CashDrawer.obj
 0001:00003338       ?AddString@CParseBuffer@CRegParser@ATL@@QAEHPB_W@Z 10004338 f i CashDrawer.obj
 0001:0000336d       ?AddValue@CRegParser@ATL@@IAEJAAVCRegKey@2@PB_WPA_W@Z 1000436d f i CashDrawer.obj
 0001:0000368e       ?Allocate@?$CAtlSafeAllocBufferManager@VCCRTAllocator@ATL@@@_ATL_SAFE_ALLOCA_IMPL@ATL@@QAEPAXK@Z 1000468e f i CashDrawer.obj
 0001:000036bb       ?Allocate@?$CTempBuffer@E$0BAA@VCCRTAllocator@ATL@@@ATL@@QAEPAEI@Z 100046bb f i CashDrawer.obj
 0001:000036ea       ?Allocate@?$CTempBuffer@_W$0BAA@VCCRTAllocator@ATL@@@ATL@@QAEPA_WI@Z 100046ea f i CashDrawer.obj
 0001:00003719       ?Allocate@?$CTempBuffer@_W$0EAA@VCCRTAllocator@ATL@@@ATL@@QAEPA_WI@Z 10004719 f i CashDrawer.obj
 0001:00003748       ?AllocateHeap@?$CTempBuffer@_W$0BAA@VCCRTAllocator@ATL@@@ATL@@AAEXI@Z 10004748 f i CashDrawer.obj
 0001:00003748       ?AllocateHeap@?$CTempBuffer@_W$0EAA@VCCRTAllocator@ATL@@@ATL@@AAEXI@Z 10004748 f i CashDrawer.obj
 0001:00003748       ?AllocateHeap@?$CTempBuffer@E$0BAA@VCCRTAllocator@ATL@@@ATL@@AAEXI@Z 10004748 f i CashDrawer.obj
 0001:0000376d       ?Append@CParseBuffer@CRegParser@ATL@@QAEHPB_WH@Z 1000476d f i CashDrawer.obj
 0001:000037fb       ?AtlCallTermFunc@ATL@@YGXPAU_ATL_MODULE70@1@@Z 100047fb f i CashDrawer.obj
 0001:0000383f       ?AtlCoTaskMemCAlloc@ATL@@YAPAXKK@Z 1000483f f i CashDrawer.obj
 0001:0000386c       ?AtlCoTaskMemRecalloc@ATL@@YAPAXPAXKK@Z 1000486c f i CashDrawer.obj
 0001:0000389c       ?AtlComModuleGetClassObject@ATL@@YGJPAU_ATL_COM_MODULE70@1@ABU_GUID@@1PAPAX@Z 1000489c f i CashDrawer.obj
 0001:0000398f       ?AtlComModuleRegisterServer@ATL@@YGJPAU_ATL_COM_MODULE70@1@HPBU_GUID@@@Z 1000498f f i CashDrawer.obj
 0001:00003a17       ?AtlComModuleUnregisterServer@ATL@@YGJPAU_ATL_COM_MODULE70@1@HPBU_GUID@@@Z 10004a17 f i CashDrawer.obj
 0001:00003a9f       ?AtlComQIPtrAssign2@ATL@@YAXPAPAUIUnknown@@PAU2@ABU_GUID@@@Z 10004a9f f i CashDrawer.obj
 0001:00003ace       ?AtlCreateTargetDC@ATL@@YGPAUHDC__@@PAU2@PAUtagDVTARGETDEVICE@@@Z 10004ace f i CashDrawer.obj
 0001:00003b37       ?AtlCrtErrorCheck@ATL@@YAHH@Z 10004b37 f i CashDrawer.obj
 0001:00003b72       ?AtlHiMetricToPixel@ATL@@YGXPBUtagSIZE@@PAU2@@Z 10004b72 f i CashDrawer.obj
 0001:00003be7       ?AtlHresultFromLastError@ATL@@YAJXZ 10004be7 f i CashDrawer.obj
 0001:00003bfe       ?AtlHresultFromWin32@ATL@@YAJK@Z 10004bfe f i CashDrawer.obj
 0001:00003c13       ?AtlIPersistStreamInit_Load@ATL@@YGJPAUIStream@@PBUATL_PROPMAP_ENTRY@1@PAXPAUIUnknown@@@Z 10004c13 f i CashDrawer.obj
 0001:00003df3       ?AtlIPersistStreamInit_Save@ATL@@YGJPAUIStream@@HPBUATL_PROPMAP_ENTRY@1@PAXPAUIUnknown@@@Z 10004df3 f i CashDrawer.obj
 0001:00003f8b       ?AtlInternalOleLoadFromStream@ATL@@YAJPAUIStream@@ABU_GUID@@PAPAXTClassesAllowedInStream@1@K@Z 10004f8b f i CashDrawer.obj
 0001:000040b1       ?AtlInternalQueryInterface@ATL@@YGJPAXPBU_ATL_INTMAP_ENTRY@1@ABU_GUID@@PAPAX@Z 100050b1 f i CashDrawer.obj
 0001:00004154       ?AtlLoadTypeLib@ATL@@YGJPAUHINSTANCE__@@PB_WPAPA_WPAPAUITypeLib@@@Z 10005154 f i CashDrawer.obj
 0001:00004332       ?AtlModuleAddTermFunc@ATL@@YGJPAU_ATL_MODULE70@1@P6GXK@ZK@Z 10005332 f i CashDrawer.obj
 0001:0000438f       ?AtlRegisterClassCategoriesHelper@ATL@@YGJABU_GUID@@PBU_ATL_CATMAP_ENTRY@1@H@Z 1000538f f i CashDrawer.obj
 0001:0000466f       ?AtlRegisterTypeLib@ATL@@YGJPAUHINSTANCE__@@PB_W@Z 1000566f f i CashDrawer.obj
 0001:000047f7       ?AtlThrowImpl@ATL@@YGXJ@Z  100057f7 f i CashDrawer.obj
 0001:00004815       ?AtlUnRegisterTypeLib@ATL@@YGJPAUHINSTANCE__@@PB_W@Z 10005815 f i CashDrawer.obj
 0001:000048c0       ?AtlWinModuleAddCreateWndData@ATL@@YGXPAU_ATL_WIN_MODULE70@1@PAU_AtlCreateWndData@1@PAX@Z 100058c0 f i CashDrawer.obj
 0001:00004914       ?AtlWinModuleExtractCreateWndData@ATL@@YGPAXPAU_ATL_WIN_MODULE70@1@@Z 10005914 f i CashDrawer.obj
 0001:00004977       ?AtlWinModuleRegisterClassExW@ATL@@YGGPAU_ATL_WIN_MODULE70@1@PBUtagWNDCLASSEXW@@@Z 10005977 f i CashDrawer.obj
 0001:000049b6       ?CanForceRemoveKey@CRegParser@ATL@@IAEHPB_W@Z 100059b6 f i CashDrawer.obj
 0001:000049e5       ?ChToByte@CRegParser@ATL@@KAE_W@Z 100059e5 f i CashDrawer.obj
 0001:00004a18       ?Cleanup@CComTypeInfoHolder@ATL@@SGXK@Z 10005a18 f i CashDrawer.obj
 0001:00004a4b       ?ClearReplacements@CExpansionVector@ATL@@QAEJXZ 10005a4b f i CashDrawer.obj
 0001:00004a88       ?Close@CRegKey@ATL@@QAEJXZ 10005a88 f i CashDrawer.obj
 0001:00004aa2       ?CreateInstance@?$CComCreator@V?$CComAggObject@VCOPOSCashDrawer@@@ATL@@@ATL@@SGJPAXABU_GUID@@PAPAX@Z 10005aa2 f i CashDrawer.obj
 0001:00004b18       ?CreateInstance@?$CComCreator@V?$CComObject@VCOPOSCashDrawer@@@ATL@@@ATL@@SGJPAXABU_GUID@@PAPAX@Z 10005b18 f i CashDrawer.obj
 0001:00004b99       ?CreateInstance@?$CComObject@V?$CComEnum@UIEnumConnectionPoints@@$1?_GUID_b196b285_bab4_101a_b69c_00aa00341d07@@3U__s_GUID@@BPAUIConnectionPoint@@V?$_CopyInterface@UIConnectionPoint@@@ATL@@VCComSingleThreadModel@6@@ATL@@@ATL@@SGJPAPAV12@@Z 10005b99 f i CashDrawer.obj
 0001:00004be0       ?CreateInstance@?$CComObject@V?$CComEnum@UIEnumConnections@@$1?_GUID_b196b287_bab4_101a_b69c_00aa00341d07@@3U__s_GUID@@BUtagCONNECTDATA@@V?$_Copy@UtagCONNECTDATA@@@ATL@@VCComSingleThreadModel@6@@ATL@@@ATL@@SGJPAPAV12@@Z 10005be0 f i CashDrawer.obj
 0001:00004c27       ?DefaultReflectionHandler@?$CWindowImplRoot@VCWindow@ATL@@@ATL@@SAHPAUHWND__@@IIJAAJ@Z 10005c27 f i CashDrawer.obj
 0001:00004c9a       ?DeleteSubKey@CRegKey@ATL@@QAEJPB_W@Z 10005c9a f i CashDrawer.obj
 0001:00004d13       ?DoEvent@COPOSCashDrawer@@IAEXIIJ@Z 10005d13 f i CashDrawer.obj
 0001:00004d93       ?DoVerbHide@?$IOleObjectImpl@VCOPOSCashDrawer@@@ATL@@QAEJPBUtagRECT@@PAUHWND__@@@Z 10005d93 f i CashDrawer.obj
 0001:00004dc9       ?DoVerbInPlaceActivate@?$IOleObjectImpl@VCOPOSCashDrawer@@@ATL@@QAEJPBUtagRECT@@PAUHWND__@@@Z 10005dc9 f i CashDrawer.obj
 0001:00004dfc       ?DoVerbPrimary@?$IOleObjectImpl@VCOPOSCashDrawer@@@ATL@@QAEJPBUtagRECT@@PAUHWND__@@@Z 10005dfc f i CashDrawer.obj
 0001:00004e88       ?DoVerbProperties@CComControlBase@ATL@@QAEJPBUtagRECT@@PAUHWND__@@@Z 10005e88 f i CashDrawer.obj
 0001:00004faf       ?DoVerbShow@?$IOleObjectImpl@VCOPOSCashDrawer@@@ATL@@QAEJPBUtagRECT@@PAUHWND__@@@Z 10005faf f i CashDrawer.obj
 0001:00004fd4       ?DoVerbUIActivate@?$IOleObjectImpl@VCOPOSCashDrawer@@@ATL@@QAEJPBUtagRECT@@PAUHWND__@@@Z 10005fd4 f i CashDrawer.obj
 0001:00005011       ?DoesVerbActivate@CComControlBase@ATL@@QAEHJ@Z 10006011 f i CashDrawer.obj
 0001:00005032       ?DoesVerbUIActivate@CComControlBase@ATL@@QAEHJ@Z 10006032 f i CashDrawer.obj
 0001:00005067       ?EndOfVar@CRegParser@ATL@@IAEHXZ 10006067 f i CashDrawer.obj
 0001:00005087       ?EscapeSingleQuote@CAtlModule@ATL@@SAXPA_WIPB_W@Z 10006087 f i CashDrawer.obj
 0001:000050d6       ?FindKey@?$CSimpleMap@PA_WPA_WVCExpansionVectorEqualHelper@ATL@@@ATL@@QBEHABQA_W@Z 100060d6 f i CashDrawer.obj
 0001:0000510d       ?FireTheEvent@?$CProxy_IOPOSEvents@VCOPOSCashDrawer@@@@IAEXPAVOposVariant@@IAAJPB_WJ@Z 1000610d f i CashDrawer.obj
 0001:0000519f       ?FireViewChange@CComControlBase@ATL@@QAEJXZ 1000619f f i CashDrawer.obj
 0001:000051e8       ?Fire_DirectIOEvent@?$CProxy_IOPOSEvents@VCOPOSCashDrawer@@@@QAEXJPAJPAPA_W@Z 100061e8 f i CashDrawer.obj
 0001:000052ce       ?Fire_StatusUpdateEvent@?$CProxy_IOPOSEvents@VCOPOSCashDrawer@@@@QAEXJ@Z 100062ce f i CashDrawer.obj
 0001:0000535a       ?FreeHeap@?$CTempBuffer@E$0BAA@VCCRTAllocator@ATL@@@ATL@@AAEXXZ 1000635a f i CashDrawer.obj
 0001:0000535a       ?FreeHeap@?$CTempBuffer@_W$0EAA@VCCRTAllocator@ATL@@@ATL@@AAEXXZ 1000635a f i CashDrawer.obj
 0001:0000535a       ?FreeHeap@?$CTempBuffer@_W$0BAA@VCCRTAllocator@ATL@@@ATL@@AAEXXZ 1000635a f i CashDrawer.obj
 0001:00005363       ?GetAmbientLocaleID@CComControlBase@ATL@@QAEJAAK@Z 10006363 f i CashDrawer.obj
 0001:000053bf       ?GetAmbientUserMode@CComControlBase@ATL@@QAEJAAH@Z 100063bf f i CashDrawer.obj
 0001:0000542f       ?GetAt@CComDynamicUnkArray@ATL@@QAEPAUIUnknown@@H@Z 1000642f f i CashDrawer.obj
 0001:0000544b       ?GetClassObject@CComModule@ATL@@QAEJABU_GUID@@0PAPAX@Z 1000644b f i CashDrawer.obj
 0001:000054ed       ?GetConnMap@COPOSCashDrawer@@SAPBU_ATL_CONNMAP_ENTRY@ATL@@PAH@Z 100064ed f i CashDrawer.obj
 0001:0000555d       ?GetCookie@CComDynamicUnkArray@ATL@@QAGKPAPAUIUnknown@@@Z 1000655d f i CashDrawer.obj
 0001:00005595       ?GetIDsOfNames@CComTypeInfoHolder@ATL@@QAEJABU_GUID@@PAPA_WIKPAJ@Z 10006595 f i CashDrawer.obj
 0001:000056a3       ?GetKeyAt@?$CSimpleMap@PA_WPA_WVCExpansionVectorEqualHelper@ATL@@@ATL@@QBEAAPA_WH@Z 100066a3 f i CashDrawer.obj
 0001:000056c8       ?GetPagesHelper@?$ISpecifyPropertyPagesImpl@VCOPOSCashDrawer@@@ATL@@IAEJPAUtagCAUUID@@PBUATL_PROPMAP_ENTRY@2@@Z 100066c8 f i CashDrawer.obj
 0001:000057ef       ?GetProperty@?$CComPtr@UIDispatch@@@ATL@@SAJPAUIDispatch@@JPAUtagVARIANT@@@Z 100067ef f i CashDrawer.obj
 0001:0000583e       ?GetSizeMax@CComVariant@ATL@@QBEJPAT_ULARGE_INTEGER@@@Z 1000683e f i CashDrawer.obj
 0001:000059f8       ?GetStreamSize@CComBSTR@ATL@@SAKPA_W@Z 100069f8 f i CashDrawer.obj
 0001:00005a12       ?GetTI@CComTypeInfoHolder@ATL@@QAEJK@Z 10006a12 f i CashDrawer.obj
 0001:00005bfb       ?GetTI@CComTypeInfoHolder@ATL@@QAEJKPAPAUITypeInfo@@@Z 10006bfb f i CashDrawer.obj
 0001:00005c3d       ?GetUnknown@CComDynamicUnkArray@ATL@@QAGPAUIUnknown@@K@Z 10006c3d f i CashDrawer.obj
 0001:00005c5e       ?GetValueAt@?$CSimpleMap@PA_WPA_WVCExpansionVectorEqualHelper@ATL@@@ATL@@QBEAAPA_WH@Z 10006c5e f i CashDrawer.obj
 0001:00005c84       ?GetZoomInfo@CComControlBase@ATL@@QAEXAAUATL_DRAWINFO@@@Z 10006c84 f i CashDrawer.obj
 0001:00005d17       ?HKeyFromString@CRegParser@ATL@@KAPAUHKEY__@@PA_W@Z 10006d17 f i CashDrawer.obj
 0001:00005d45       ?HasSubKeys@CRegParser@ATL@@IAEHPAUHKEY__@@@Z 10006d45 f i CashDrawer.obj
 0001:00005d7a       ?IDataObject_GetData@CComControlBase@ATL@@QAEJPAUtagFORMATETC@@PAUtagSTGMEDIUM@@@Z 10006d7a f i CashDrawer.obj
 0001:00005f20       ?IOleInPlaceObject_InPlaceDeactivate@CComControlBase@ATL@@QAEJXZ 10006f20 f i CashDrawer.obj
 0001:00005fa7       ?IOleInPlaceObject_SetObjectRects@CComControlBase@ATL@@QAEJPBUtagRECT@@0@Z 10006fa7 f i CashDrawer.obj
 0001:00006074       ?IOleInPlaceObject_UIDeactivate@CComControlBase@ATL@@QAEJXZ 10007074 f i CashDrawer.obj
 0001:00006136       ?IOleObject_Advise@CComControlBase@ATL@@QAEJPAUIAdviseSink@@PAK@Z 10007136 f i CashDrawer.obj
 0001:00006160       ?IOleObject_Close@CComControlBase@ATL@@QAEJK@Z 10007160 f i CashDrawer.obj
 0001:00006244       ?IOleObject_GetClientSite@CComControlBase@ATL@@QAEJPAPAUIOleClientSite@@@Z 10007244 f i CashDrawer.obj
 0001:0000626d       ?IOleObject_SetClientSite@CComControlBase@ATL@@QAEJPAUIOleClientSite@@@Z 1000726d f i CashDrawer.obj
 0001:000062ac       ?IOleObject_SetExtent@CComControlBase@ATL@@QAEJKPAUtagSIZE@@@Z 100072ac f i CashDrawer.obj
 0001:00006360       ?IPSI_GetIPersistStreamInit@?$IPersistStorageImpl@VCOPOSCashDrawer@@@ATL@@AAEPAUIPersistStreamInit@@XZ 10007360 f i CashDrawer.obj
 0001:000063a2       ?IPersistStreamInit_Load@?$IPersistStreamInitImpl@VCOPOSCashDrawer@@@ATL@@QAEJPAUIStream@@PBUATL_PROPMAP_ENTRY@2@@Z 100073a2 f i CashDrawer.obj
 0001:000063ce       ?IPersistStreamInit_Save@?$IPersistStreamInitImpl@VCOPOSCashDrawer@@@ATL@@QAEJPAUIStream@@HPBUATL_PROPMAP_ENTRY@2@@Z 100073ce f i CashDrawer.obj
 0001:00006403       ?IQuickActivate_QuickActivate@CComControlBase@ATL@@QAEJPAUtagQACONTAINER@@PAUtagQACONTROL@@@Z 10007403 f i CashDrawer.obj
 0001:00006645       ?IViewObject_Draw@CComControlBase@ATL@@QAEJKJPAXPAUtagDVTARGETDEVICE@@PAUHDC__@@2PBU_RECTL@@3@Z 10007645 f i CashDrawer.obj
 0001:000066ed       ?InPlaceActivate@CComControlBase@ATL@@QAEJJPBUtagRECT@@@Z 100076ed f i CashDrawer.obj
 0001:0000695e       ?Init@?$CComEnumImpl@UIEnumConnectionPoints@@$1?_GUID_b196b285_bab4_101a_b69c_00aa00341d07@@3U__s_GUID@@BPAUIConnectionPoint@@V?$_CopyInterface@UIConnectionPoint@@@ATL@@@ATL@@QAEJPAPAUIConnectionPoint@@0PAUIUnknown@@W4CComEnumFlags@2@@Z 1000795e f i CashDrawer.obj
 0001:00006a3d       ?Init@?$CComEnumImpl@UIEnumConnections@@$1?_GUID_b196b287_bab4_101a_b69c_00aa00341d07@@3U__s_GUID@@BUtagCONNECTDATA@@V?$_Copy@UtagCONNECTDATA@@@ATL@@@ATL@@QAEJPAUtagCONNECTDATA@@0PAUIUnknown@@W4CComEnumFlags@2@@Z 10007a3d f i CashDrawer.obj
 0001:00006b1c       ?Init@CComModule@ATL@@QAEJPAU_ATL_OBJMAP_ENTRY30@2@PAUHINSTANCE__@@PBU_GUID@@@Z 10007b1c f i CashDrawer.obj
 0001:00006b7b       ?Init@CDynamicStdCallThunk2@ATL@@QAEHKPAX@Z 10007b7b f i CashDrawer.obj
 0001:00006ba6       ?InlineIsEqualUnknown@ATL@@YGHABU_GUID@@@Z 10007ba6 f i CashDrawer.obj
 0001:00006bce       ?InternalGetSite@CComControlBase@ATL@@QAEJABU_GUID@@PAPAX@Z 10007bce f i CashDrawer.obj
 0001:00006bfc       ?InternalSetAtIndex@?$CSimpleMap@PA_WPA_WVCExpansionVectorEqualHelper@ATL@@@ATL@@QAEXHABQA_W0@Z 10007bfc f i CashDrawer.obj
 0001:00006c26       ?Invoke@CComTypeInfoHolder@ATL@@QAEJPAUIDispatch@@JABU_GUID@@KGPAUtagDISPPARAMS@@PAUtagVARIANT@@PAUtagEXCEPINFO@@PAI@Z 10007c26 f i CashDrawer.obj
 0001:00006c69       ?IsEqualObject@?$CComPtrBase@UIOleClientSite@@@ATL@@QAE_NPAUIUnknown@@@Z 10007c69 f i CashDrawer.obj
 0001:00006c69       ?IsEqualObject@?$CComPtrBase@UITypeInfo@@@ATL@@QAE_NPAUIUnknown@@@Z 10007c69 f i CashDrawer.obj
 0001:00006cd6       ?IsSpace@CRegParser@ATL@@IAEH_W@Z 10007cd6 f i CashDrawer.obj
 0001:00006d00       ?LoadNameCache@CComTypeInfoHolder@ATL@@QAEJPAUITypeInfo@@@Z 10007d00 f i CashDrawer.obj
 0001:00006e4e       ?Lookup@?$CSimpleMap@PA_WPA_WVCExpansionVectorEqualHelper@ATL@@@ATL@@QBEPA_WABQA_W@Z 10007e4e f i CashDrawer.obj
 0001:00006e74       ?NextToken@CRegParser@ATL@@IAEJPA_W@Z 10007e74 f i CashDrawer.obj
 0001:00006fac       ?OnKillFocus@CComControlBase@ATL@@QAEJIIJAAH@Z 10007fac f i CashDrawer.obj
 0001:00007007       ?OnMouseActivate@CComControlBase@ATL@@QAEJIIJAAH@Z 10008007 f i CashDrawer.obj
 0001:00007075       ?OnPaint@CComControlBase@ATL@@QAEJIIJAAH@Z 10008075 f i CashDrawer.obj
 0001:00007127       ?OnSetFocus@CComControlBase@ATL@@QAEJIIJAAH@Z 10008127 f i CashDrawer.obj
 0001:000071b0       ?Open@CRegKey@ATL@@QAEJPAUHKEY__@@PB_WK@Z 100081b0 f i CashDrawer.obj
 0001:00007205       ?PreProcessBuffer@CRegParser@ATL@@QAEJPA_WPAPA_W@Z 10008205 f i CashDrawer.obj
 0001:0000746f       ?ProcessWindowMessage@?$CComControl@VCOPOSCashDrawer@@V?$CWindowImpl@VCOPOSCashDrawer@@VCWindow@ATL@@V?$CWinTraits@$0FGAAAAAA@$0A@@3@@ATL@@@ATL@@UAEHPAUHWND__@@IIJAAJK@Z 1000846f f i CashDrawer.obj
 0001:0000750e       ?PutProperty@?$CComPtr@UIDispatch@@@ATL@@SAJPAUIDispatch@@JPAUtagVARIANT@@@Z 1000850e f i CashDrawer.obj
 0001:000075a0       ?ReadFromStream@CComBSTR@ATL@@QAEJPAUIStream@@@Z 100085a0 f i CashDrawer.obj
 0001:000076ce       ?ReadFromStream@CComVariant@ATL@@QAEJPAUIStream@@GTClassesAllowedInStream@2@K@Z 100086ce f i CashDrawer.obj
 0001:00007854       ?RecurseDeleteKey@CRegKey@ATL@@QAEJPB_W@Z 10008854 f i CashDrawer.obj
 0001:00007916       ?RegCreateKeyExW@CAtlTransactionManager@ATL@@QAEJPAUHKEY__@@PB_WKPA_WKKQAU_SECURITY_ATTRIBUTES@@PAPAU3@PAK@Z 10008916 f i CashDrawer.obj
 0001:00007979       ?RegDeleteKeyW@CAtlTransactionManager@ATL@@QAEJPAUHKEY__@@PB_W@Z 10008979 f i CashDrawer.obj
 0001:000079cb       ?RegOpenKeyExW@CAtlTransactionManager@ATL@@QAEJPAUHKEY__@@PB_WKKPAPAU3@@Z 100089cb f i CashDrawer.obj
 0001:00007a22       ?Register@_ATL_WNDCLASSINFOW@ATL@@QAEGPAP6GJPAUHWND__@@IIJ@Z@Z 10008a22 f i CashDrawer.obj
 0001:00007a42       ?RegisterBuffer@CRegParser@ATL@@QAEJPA_WH@Z 10008a42 f i CashDrawer.obj
 0001:00007b7b       ?RegisterFromResource@CRegObject@ATL@@IAEJPB_W00H@Z 10008b7b f i CashDrawer.obj
 0001:00007cb1       ?RegisterServer@?$CAtlModuleT@VCComModule@ATL@@@ATL@@QAEJHPBU_GUID@@@Z 10008cb1 f i CashDrawer.obj
 0001:00007cdf       ?RegisterServer@CComModule@ATL@@QAEJHPBU_GUID@@@Z 10008cdf f i CashDrawer.obj
 0001:00007d55       ?RegisterSubkeys@CRegParser@ATL@@IAEJPA_WPAUHKEY__@@HH@Z 10008d55 f i CashDrawer.obj
 0001:00008324       ?Remove@CComDynamicUnkArray@ATL@@QAEHK@Z 10009324 f i CashDrawer.obj
 0001:0000834d       ?RemoveAll@?$CSimpleMap@PA_WPA_WVCExpansionVectorEqualHelper@ATL@@@ATL@@QAEXXZ 1000934d f i CashDrawer.obj
 0001:00008379       ?ResourceRegisterSz@CRegObject@ATL@@QAGJPB_W00@Z 10009379 f i CashDrawer.obj
 0001:000083a6       ?ResourceUnregisterSz@CRegObject@ATL@@QAGJPB_W00@Z 100093a6 f i CashDrawer.obj
 0001:000083d3       ?SendOnDataChange@CComControlBase@ATL@@QAEJK@Z 100093d3 f i CashDrawer.obj
 0001:00008420       ?SetControlFocus@CComControlBase@ATL@@QAEHH@Z 10009420 f i CashDrawer.obj
 0001:000084bd       ?SetMultiStringValue@CRegKey@ATL@@QAEJPB_W0@Z 100094bd f i CashDrawer.obj
 0001:00008519       ?SetStringValue@CRegKey@ATL@@QAEJPB_W0K@Z 10009519 f i CashDrawer.obj
 0001:00008562       ?SkipAssignment@CRegParser@ATL@@IAEJPA_W@Z 10009562 f i CashDrawer.obj
 0001:000085c7       ?SkipWhiteSpace@CRegParser@ATL@@IAEXXZ 100095c7 f i CashDrawer.obj
 0001:000085e9       ?StrChrW@CRegParser@ATL@@KAPA_WPA_W_W@Z 100095e9 f i CashDrawer.obj
 0001:00008626       ?Term@CAtlModule@ATL@@QAEXXZ 10009626 f i CashDrawer.obj
 0001:0000865f       ?Term@CComModule@ATL@@QAEXXZ 1000965f f i CashDrawer.obj
 0001:000086b7       ?UnregisterServer@?$CAtlModuleT@VCComModule@ATL@@@ATL@@QAEJHPBU_GUID@@@Z 100096b7 f i CashDrawer.obj
 0001:000086dd       ?UnregisterServer@CComModule@ATL@@QAEJHPBU_GUID@@@Z 100096dd f i CashDrawer.obj
 0001:00008753       ?UpdateRegistryFromResource@CAtlModule@ATL@@QAGJIHPAU_ATL_REGMAP_ENTRY@2@@Z 10009753 f i CashDrawer.obj
 0001:0000891e       ?UpdateRegistryFromResource@CAtlModule@ATL@@QAGJPB_WHPAU_ATL_REGMAP_ENTRY@2@@Z 1000991e f i CashDrawer.obj
 0001:00008aef       ?VTFromRegType@CRegParser@ATL@@KAHPB_WAAG@Z 10009aef f i CashDrawer.obj
 0001:00008b5c       ?WindowProc@?$CWindowImplBaseT@VCWindow@ATL@@V?$CWinTraits@$0FGAAAAAA@$0A@@2@@ATL@@SGJPAUHWND__@@IIJ@Z 10009b5c f i CashDrawer.obj
 0001:00008c4e       ?WriteToStream@CComBSTR@ATL@@QAEJPAUIStream@@@Z 10009c4e f i CashDrawer.obj
 0001:00008ca5       ?WriteToStream@CComVariant@ATL@@QAEJPAUIStream@@@Z 10009ca5 f i CashDrawer.obj
 0001:00008e1f       ?WriteToStream@CComVariant@ATL@@QAEJPAUIStream@@G@Z 10009e1f f i CashDrawer.obj
 0001:00008e88       ?_AtlInitialConstruct@?$CComObjectRootEx@VCComMultiThreadModel@ATL@@@ATL@@QAEJXZ 10009e88 f i CashDrawer.obj
 0001:00008e9d       ?_AtlVerifyStackAvailable@_ATL_SAFE_ALLOCA_IMPL@ATL@@YA_NK@Z 10009e9d f i CashDrawer.obj
 0001:00008f1b       ?atlCreate@?$CWindowImpl@VCOPOSCashDrawer@@VCWindow@ATL@@V?$CWinTraits@$0FGAAAAAA@$0A@@3@@ATL@@QAEPAUHWND__@@PAU3@V_U_RECT@2@PB_WKKV_U_MENUorID@2@PAX@Z 10009f1b f i CashDrawer.obj
 0001:00008f5f       ?atlCreate@?$CWindowImplBaseT@VCWindow@ATL@@V?$CWinTraits@$0FGAAAAAA@$0A@@2@@ATL@@QAEPAUHWND__@@PAU3@V_U_RECT@2@PB_WKKV_U_MENUorID@2@GPAX@Z 10009f5f f i CashDrawer.obj
 0001:00008ffb       ?atlCreate@CRegKey@ATL@@QAEJPAUHKEY__@@PB_WPA_WKKPAU_SECURITY_ATTRIBUTES@@PAK@Z 10009ffb f i CashDrawer.obj
 0001:0000906a       ?copy@?$_Copy@UtagCONNECTDATA@@@ATL@@SAJPAUtagCONNECTDATA@@PBU3@@Z 1000a06a f i CashDrawer.obj
 0001:000090a0       ?copy@?$_CopyInterface@UIConnectionPoint@@@ATL@@SAJPAPAUIConnectionPoint@@PBQAU3@@Z 1000a0a0 f i CashDrawer.obj
 0001:000090ce       ?memcpy_s@Checked@ATL@@YAXPAXIPBXI@Z 1000a0ce f i CashDrawer.obj
 0001:000090ed       ?ocscpy_s@@YA_NPA_WIPB_W@Z 1000a0ed f i CashDrawer.obj
 0001:0000911c       ?ocslen@@YAHPB_W@Z         1000a11c f i CashDrawer.obj
 0001:0000913c       ?wcscpy_s@Checked@ATL@@YAXPA_WIPB_W@Z 1000a13c f i CashDrawer.obj
 0001:00009158       _DllCanUnloadNow@0         1000a158 f   CashDrawer.obj
 0001:00009164       _DllGetClassObject@12      1000a164 f   CashDrawer.obj
 0001:00009172       _DllMain@12                1000a172 f   CashDrawer.obj
 0001:000091b4       _DllRegisterServer@0       1000a1b4 f   CashDrawer.obj
 0001:000091c3       _DllUnregisterServer@0     1000a1c3 f   CashDrawer.obj
 0001:000091d2       _InlineIsEqualGUID         1000a1d2 f i CashDrawer.obj
 0001:00009202       ___local_stdio_printf_options 1000a202 f i CashDrawer.obj
 0001:00009208       __vswprintf_s_l            1000a208 f i CashDrawer.obj
 0001:000092b5       _swprintf_s                1000a2b5 f i CashDrawer.obj
 0001:000092d1       ??0?$CComControl@VCOPOSCashDrawer@@V?$CWindowImpl@VCOPOSCashDrawer@@VCWindow@ATL@@V?$CWinTraits@$0FGAAAAAA@$0A@@3@@ATL@@@ATL@@QAE@XZ 1000a2d1 f i CashDrawerImpl.obj
 0001:000092f8       ??0CComControlBase@ATL@@QAE@AAPAUHWND__@@@Z 1000a2f8 f i CashDrawerImpl.obj
 0001:00009342       ??0COPOSCashDrawer@@QAE@XZ 1000a342 f   CashDrawerImpl.obj
 0001:00009391       ??1?$CComControl@VCOPOSCashDrawer@@V?$CWindowImpl@VCOPOSCashDrawer@@VCWindow@ATL@@V?$CWinTraits@$0FGAAAAAA@$0A@@3@@ATL@@@ATL@@UAE@XZ 1000a391 f i CashDrawerImpl.obj
 0001:000093aa       ??1?$IConnectionPointImpl@VCOPOSCashDrawer@@$1?DIID__IOPOSCashDrawerEvents@@3U_GUID@@BVCComDynamicUnkArray@ATL@@@ATL@@QAE@XZ 1000a3aa f i CashDrawerImpl.obj
 0001:000093aa       ??1?$IConnectionPointImpl@VCOPOSCashDrawer@@$1?IID_IPropertyNotifySink@@3U_GUID@@BVCComDynamicUnkArray@ATL@@@ATL@@QAE@XZ 1000a3aa f i CashDrawerImpl.obj
 0001:000093e7       ??1CComControlBase@ATL@@UAE@XZ 1000a3e7 f i CashDrawerImpl.obj
 0001:0000944a       ??1COPOSCashDrawer@@UAE@XZ 1000a44a f   CashDrawerImpl.obj
 0001:00009492       ??1OposVariantResult@@QAE@XZ 1000a492 f i CashDrawerImpl.obj
 0001:000094b3       ??1_CW@@QAE@XZ             1000a4b3 f i CashDrawerImpl.obj
 0001:000094cc       ?CheckHealth@COPOSCashDrawer@@UAGJJPAJ@Z 1000a4cc f   CashDrawerImpl.obj
 0001:0000951b       ?ClaimDevice@COPOSCashDrawer@@UAGJJPAJ@Z 1000a51b f   CashDrawerImpl.obj
 0001:00009589       ?Close@COPOSCashDrawer@@UAGJPAJ@Z 1000a589 f   CashDrawerImpl.obj
 0001:000095f7       ?CompareFirmwareVersion@COPOSCashDrawer@@UAGJPA_WPAJ1@Z 1000a5f7 f   CashDrawerImpl.obj
 0001:00009677       ?DirectIO@COPOSCashDrawer@@UAGJJPAJPAPA_W0@Z 1000a677 f   CashDrawerImpl.obj
 0001:00009725       ?DoInvoke@COPOSCashDrawer@@IAEJJPAVOposVariant@@IHPAJ_N@Z 1000a725 f   CashDrawerImpl.obj
 0001:000097e7       ?EventClose@COPOSCashDrawer@@IAEXXZ 1000a7e7 f i CashDrawerImpl.obj
 0001:0000981a       ?EventInit@COPOSCashDrawer@@IAEJXZ 1000a81a f i CashDrawerImpl.obj
 0001:000098e6       ?EventUninit@COPOSCashDrawer@@IAEXXZ 1000a8e6 f i CashDrawerImpl.obj
 0001:00009938       ?EventWindowProc@COPOSCashDrawer@@IAGJIIJ@Z 1000a938 f i CashDrawerImpl.obj
 0001:000099af       ?FinalConstruct@COPOSCashDrawer@@QAEJXZ 1000a9af f   CashDrawerImpl.obj
 0001:000099e8       ?FireEventCleanup@COPOSCashDrawer@@IAEXXZ 1000a9e8 f i CashDrawerImpl.obj
 0001:000099fe       ?FireEventSetup@COPOSCashDrawer@@IAE_NXZ 1000a9fe f i CashDrawerImpl.obj
 0001:00009a32       ?FreezeEvents@COPOSCashDrawer@@MAGJH@Z 1000aa32 f   CashDrawerImpl.obj
 0001:00009a83       ?GetOposProp@COPOSCashDrawer@@IAEJJPAFJ@Z 1000aa83 f   CashDrawerImpl.obj
 0001:00009aa6       ?GetOposProp@COPOSCashDrawer@@IAEJJPAJJ@Z 1000aaa6 f   CashDrawerImpl.obj
 0001:00009b64       ?GetOposProp@COPOSCashDrawer@@IAEJJPAPA_WJ@Z 1000ab64 f   CashDrawerImpl.obj
 0001:00009c2f       ?OnDraw@COPOSCashDrawer@@MAEJAAUATL_DRAWINFO@@@Z 1000ac2f f   CashDrawerImpl.obj
 0001:00009ccf       ?Open@COPOSCashDrawer@@UAGJPA_WPAJ@Z 1000accf f   CashDrawerImpl.obj
 0001:0000a466       ?OpenDrawer@COPOSCashDrawer@@UAGJPAJ@Z 1000b466 f   CashDrawerImpl.obj
 0001:0000a481       ?ReleaseDevice@COPOSCashDrawer@@UAGJPAJ@Z 1000b481 f   CashDrawerImpl.obj
 0001:0000a4b8       ?ResetStatistics@COPOSCashDrawer@@UAGJPA_WPAJ@Z 1000b4b8 f   CashDrawerImpl.obj
 0001:0000a50f       ?RetrieveStatistics@COPOSCashDrawer@@UAGJPAPA_WPAJ@Z 1000b50f f   CashDrawerImpl.obj
 0001:0000a566       ?SOProcessID@COPOSCashDrawer@@UAGJPAJ@Z 1000b566 f   CashDrawerImpl.obj
 0001:0000a57a       ?SetCOFreezeEvents@COPOSCashDrawer@@IAEXF@Z 1000b57a f   CashDrawerImpl.obj
 0001:0000a605       ?SetOposProp@COPOSCashDrawer@@IAEJJJJ@Z 1000b605 f   CashDrawerImpl.obj
 0001:0000a6e3       ?UpdateFirmware@COPOSCashDrawer@@UAGJPA_WPAJ@Z 1000b6e3 f   CashDrawerImpl.obj
 0001:0000a73a       ?UpdateStatistics@COPOSCashDrawer@@UAGJPA_WPAJ@Z 1000b73a f   CashDrawerImpl.obj
 0001:0000a791       ?WaitForDrawerClose@COPOSCashDrawer@@UAGJJJJJPAJ@Z 1000b791 f   CashDrawerImpl.obj
 0001:0000a832       ?get_BinaryConversion@COPOSCashDrawer@@UAGJPAJ@Z 1000b832 f   CashDrawerImpl.obj
 0001:0000a848       ?get_CapCompareFirmwareVersion@COPOSCashDrawer@@UAGJPAF@Z 1000b848 f   CashDrawerImpl.obj
 0001:0000a861       ?get_CapPowerReporting@COPOSCashDrawer@@UAGJPAJ@Z 1000b861 f   CashDrawerImpl.obj
 0001:0000a87a       ?get_CapStatisticsReporting@COPOSCashDrawer@@UAGJPAF@Z 1000b87a f   CashDrawerImpl.obj
 0001:0000a893       ?get_CapStatus@COPOSCashDrawer@@UAGJPAF@Z 1000b893 f   CashDrawerImpl.obj
 0001:0000a8ac       ?get_CapStatusMultiDrawerDetect@COPOSCashDrawer@@UAGJPAF@Z 1000b8ac f   CashDrawerImpl.obj
 0001:0000a8c5       ?get_CapUpdateFirmware@COPOSCashDrawer@@UAGJPAF@Z 1000b8c5 f   CashDrawerImpl.obj
 0001:0000a8de       ?get_CapUpdateStatistics@COPOSCashDrawer@@UAGJPAF@Z 1000b8de f   CashDrawerImpl.obj
 0001:0000a8f7       ?get_CheckHealthText@COPOSCashDrawer@@UAGJPAPA_W@Z 1000b8f7 f   CashDrawerImpl.obj
 0001:0000a910       ?get_Claimed@COPOSCashDrawer@@UAGJPAF@Z 1000b910 f   CashDrawerImpl.obj
 0001:0000a926       ?get_ControlObjectDescription@COPOSCashDrawer@@UAGJPAPA_W@Z 1000b926 f   CashDrawerImpl.obj
 0001:0000a963       ?get_ControlObjectVersion@COPOSCashDrawer@@UAGJPAJ@Z 1000b963 f   CashDrawerImpl.obj
 0001:0000a976       ?get_DeviceDescription@COPOSCashDrawer@@UAGJPAPA_W@Z 1000b976 f   CashDrawerImpl.obj
 0001:0000a98f       ?get_DeviceEnabled@COPOSCashDrawer@@UAGJPAF@Z 1000b98f f   CashDrawerImpl.obj
 0001:0000a9a5       ?get_DeviceName@COPOSCashDrawer@@UAGJPAPA_W@Z 1000b9a5 f   CashDrawerImpl.obj
 0001:0000a9be       ?get_DrawerOpened@COPOSCashDrawer@@UAGJPAF@Z 1000b9be f   CashDrawerImpl.obj
 0001:0000a9d7       ?get_FreezeEvents@COPOSCashDrawer@@UAGJPAF@Z 1000b9d7 f   CashDrawerImpl.obj
 0001:0000a9ed       ?get_OpenResult@COPOSCashDrawer@@UAGJPAJ@Z 1000b9ed f   CashDrawerImpl.obj
 0001:0000aa04       ?get_PowerNotify@COPOSCashDrawer@@UAGJPAJ@Z 1000ba04 f   CashDrawerImpl.obj
 0001:0000aa1a       ?get_PowerState@COPOSCashDrawer@@UAGJPAJ@Z 1000ba1a f   CashDrawerImpl.obj
 0001:0000aa30       ?get_ResultCode@COPOSCashDrawer@@UAGJPAJ@Z 1000ba30 f   CashDrawerImpl.obj
 0001:0000aa6e       ?get_ResultCodeExtended@COPOSCashDrawer@@UAGJPAJ@Z 1000ba6e f   CashDrawerImpl.obj
 0001:0000aa84       ?get_ServiceObjectDescription@COPOSCashDrawer@@UAGJPAPA_W@Z 1000ba84 f   CashDrawerImpl.obj
 0001:0000aa9d       ?get_ServiceObjectVersion@COPOSCashDrawer@@UAGJPAJ@Z 1000ba9d f   CashDrawerImpl.obj
 0001:0000aab3       ?get_State@COPOSCashDrawer@@UAGJPAJ@Z 1000bab3 f   CashDrawerImpl.obj
 0001:0000aadf       ?put_BinaryConversion@COPOSCashDrawer@@UAGJJ@Z 1000badf f   CashDrawerImpl.obj
 0001:0000aaf5       ?put_DeviceEnabled@COPOSCashDrawer@@UAGJF@Z 1000baf5 f   CashDrawerImpl.obj
 0001:0000ab12       ?put_FreezeEvents@COPOSCashDrawer@@UAGJF@Z 1000bb12 f   CashDrawerImpl.obj
 0001:0000ab5e       ?put_PowerNotify@COPOSCashDrawer@@UAGJJ@Z 1000bb5e f   CashDrawerImpl.obj
 0001:0000ab74       ?s_EventWindowProc@COPOSCashDrawer@@KGJPAUHWND__@@IIJ@Z 1000bb74 f i CashDrawerImpl.obj
 0001:0000abc6       ??_U@YAPAXI@Z              1000bbc6 f   LIBCMT:new_array.obj
 0001:0000abcf       ??3@YAXPAXI@Z              1000bbcf f   LIBCMT:delete_scalar_size.obj
 0001:0000abdd       ??_V@YAXPAX@Z              1000bbdd f   LIBCMT:delete_array.obj
 0001:0000abe2       ??_V@YAXPAXI@Z             1000bbe2 f   LIBCMT:delete_array_size.obj
 0001:0000abf0       ??$__crt_fast_encode_pointer@P6GHPAU_RTL_CONDITION_VARIABLE@@PAU_RTL_CRITICAL_SECTION@@K@Z@@YAP6GHPAU_RTL_CONDITION_VARIABLE@@PAU_RTL_CRITICAL_SECTION@@K@ZQ6GH01K@Z@Z 1000bbf0 f i LIBCMT:thread_safe_statics.obj
 0001:0000abf0       ??$__crt_fast_encode_pointer@PAP6AXXZ@@YAPAP6AXXZQAP6AXXZ@Z 1000bbf0 f i LIBCMT:utility.obj
 0001:0000abf0       ??$__crt_fast_encode_pointer@P6GXPAU_RTL_CONDITION_VARIABLE@@@Z@@YAP6GXPAU_RTL_CONDITION_VARIABLE@@@ZQ6GX0@Z@Z 1000bbf0 f i LIBCMT:thread_safe_statics.obj
 0001:0000abf0       ??$__crt_fast_encode_pointer@PAX@@YAPAXQAX@Z 1000bbf0 f i libvcruntime:winapi_downlevel.obj
 0001:0000ac51       ___scrt_acquire_startup_lock 1000bc51 f   LIBCMT:utility.obj
 0001:0000ac83       ___scrt_dllmain_after_initialize_c 1000bc83 f   LIBCMT:utility.obj
 0001:0000acae       ___scrt_dllmain_before_initialize_c 1000bcae f   LIBCMT:utility.obj
 0001:0000acbc       ___scrt_dllmain_crt_thread_attach 1000bcbc f   LIBCMT:utility.obj
 0001:0000acdb       ___scrt_dllmain_crt_thread_detach 1000bcdb f   LIBCMT:utility.obj
 0001:0000ace8       ___scrt_dllmain_exception_filter 1000bce8 f   LIBCMT:utility.obj
 0001:0000ad1c       ___scrt_dllmain_uninitialize_c 1000bd1c f   LIBCMT:utility.obj
 0001:0000ad3f       ___scrt_dllmain_uninitialize_critical 1000bd3f f   LIBCMT:utility.obj
 0001:0000ad4c       ___scrt_initialize_crt     1000bd4c f   LIBCMT:utility.obj
 0001:0000ad85       ___scrt_initialize_onexit_tables 1000bd85 f   LIBCMT:utility.obj
 0001:0000ae2a       ___scrt_is_nonwritable_in_current_image 1000be2a f   LIBCMT:utility.obj
 0001:0000aebe       ___scrt_release_startup_lock 1000bebe f   LIBCMT:utility.obj
 0001:0000aedb       ___scrt_uninitialize_crt   1000bedb f   LIBCMT:utility.obj
 0001:0000af03       __onexit                   1000bf03 f   LIBCMT:utility.obj
 0001:0000af3e       _atexit                    1000bf3e f   LIBCMT:utility.obj
 0001:0000af53       ??3@YAXPAX@Z               1000bf53 f   LIBCMT:delete_scalar.obj
 0001:0000b08a       __Init_thread_footer       1000c08a f   LIBCMT:thread_safe_statics.obj
 0001:0000b0d4       __Init_thread_header       1000c0d4 f   LIBCMT:thread_safe_statics.obj
 0001:0000b126       __Init_thread_notify       1000c126 f   LIBCMT:thread_safe_statics.obj
 0001:0000b168       __Init_thread_wait         1000c168 f   LIBCMT:thread_safe_statics.obj
 0001:0000b1c8       ___raise_securityfailure   1000c1c8 f   LIBCMT:gs_report.obj
 0001:0000b1f0       ___report_gsfailure        1000c1f0 f   LIBCMT:gs_report.obj
 0001:0000b2e9       ___report_rangecheckfailure 1000c2e9 f   LIBCMT:gs_report.obj
 0001:0000b2f5       ___report_securityfailure  1000c2f5 f   LIBCMT:gs_report.obj
 0001:0000b3c3       ??2@YAPAXIABUnothrow_t@std@@@Z 1000c3c3 f   LIBCMT:new_scalar_nothrow.obj
 0001:0000b413       ??_U@YAPAXIABUnothrow_t@std@@@Z 1000c413 f   LIBCMT:new_array_nothrow.obj
 0001:0000b41c       @__security_check_cookie@4 1000c41c f   LIBCMT:secchk.obj
 0001:0000b430       __SEH_prolog4_GS           1000c430 f   LIBCMT:sehprolg4gs.obj
 0001:0000b479       __SEH_epilog4_GS           1000c479 f   LIBCMT:sehprolg4gs.obj
 0001:0000b490       __alloca_probe_16          1000c490 f   LIBCMT:alloca16.obj
 0001:0000b4a6       __alloca_probe_8           1000c4a6     LIBCMT:alloca16.obj
 0001:0000b4c0       __alloca_probe             1000c4c0 f   LIBCMT:chkstk.obj
 0001:0000b4c0       __chkstk                   1000c4c0 f   LIBCMT:chkstk.obj
 0001:0000b80d       __DllMainCRTStartup@12     1000c80d f   LIBCMT:dll_dllmain.obj
 0001:0000b830       ??2@YAPAXI@Z               1000c830 f   LIBCMT:new_scalar.obj
 0001:0000b860       ___isa_available_init      1000c860 f   LIBCMT:cpu_disp.obj
 0001:0000b9f7       ___scrt_is_ucrt_dll_in_use 1000c9f7 f   LIBCMT:ucrt_detection.obj
 0001:0000ba03       ___scrt_fastfail           1000ca03 f   LIBCMT:utility_desktop.obj
 0001:0000bb1d       __crt_debugger_hook        1000cb1d f   LIBCMT:utility_desktop.obj
 0001:0000bb30       __SEH_prolog4              1000cb30 f   LIBCMT:sehprolg4.obj
 0001:0000bb76       __SEH_epilog4              1000cb76 f   LIBCMT:sehprolg4.obj
 0001:0000bb8b       @_guard_check_icall_nop@4  1000cb8b f i LIBCMT:guard_support.obj
 0001:0000bbd9       ___security_init_cookie    1000cbd9 f   LIBCMT:gs_support.obj
 0001:0000bc24       ?__scrt_initialize_type_info@@YAXXZ 1000cc24 f   LIBCMT:tncleanup.obj
 0001:0000bc30       ?__scrt_uninitialize_type_info@@YAXXZ 1000cc30 f   LIBCMT:tncleanup.obj
 0001:0000bc3c       ___local_stdio_scanf_options 1000cc3c f i LIBCMT:default_local_stdio_options.obj
 0001:0000bc42       ___scrt_initialize_default_local_stdio_options 1000cc42 f   LIBCMT:default_local_stdio_options.obj
 0001:0000bc5f       ___scrt_get_dyn_tls_init_callback 1000cc5f f   LIBCMT:dyn_tls_init.obj
 0001:0000bc65       __RTC_Initialize           1000cc65 f   LIBCMT:initsect.obj
 0001:0000bc91       __RTC_Terminate            1000cc91 f   LIBCMT:initsect.obj
 0001:0000bcbd       ??0bad_alloc@std@@QAE@ABV01@@Z 1000ccbd f i LIBCMT:throw_bad_alloc.obj
 0001:0000bcd8       ??0bad_alloc@std@@QAE@XZ   1000ccd8 f i LIBCMT:throw_bad_alloc.obj
 0001:0000bcf0       ??0bad_array_new_length@std@@QAE@ABV01@@Z 1000ccf0 f i LIBCMT:throw_bad_alloc.obj
 0001:0000bd0b       ??0bad_array_new_length@std@@QAE@XZ 1000cd0b f i LIBCMT:throw_bad_alloc.obj
 0001:0000bd23       ??0exception@std@@QAE@ABV01@@Z 1000cd23 f i LIBCMT:throw_bad_alloc.obj
 0001:0000bd4f       ??1bad_alloc@std@@UAE@XZ   1000cd4f f i LIBCMT:throw_bad_alloc.obj
 0001:0000bd4f       ??1bad_exception@std@@UAE@XZ 1000cd4f f i libvcruntime:frame.obj
 0001:0000bd4f       ??1bad_array_new_length@std@@UAE@XZ 1000cd4f f i LIBCMT:throw_bad_alloc.obj
 0001:0000bd60       ??_Ebad_array_new_length@std@@UAEPAXI@Z 1000cd60 f i LIBCMT:throw_bad_alloc.obj
 0001:0000bd60       ??_Gbad_alloc@std@@UAEPAXI@Z 1000cd60 f i LIBCMT:throw_bad_alloc.obj
 0001:0000bd60       ??_Gexception@std@@UAEPAXI@Z 1000cd60 f i LIBCMT:throw_bad_alloc.obj
 0001:0000bd60       ??_Eexception@std@@UAEPAXI@Z 1000cd60 f i LIBCMT:throw_bad_alloc.obj
 0001:0000bd60       ??_Gbad_exception@std@@UAEPAXI@Z 1000cd60 f i libvcruntime:frame.obj
 0001:0000bd60       ??_Gbad_array_new_length@std@@UAEPAXI@Z 1000cd60 f i LIBCMT:throw_bad_alloc.obj
 0001:0000bd60       ??_Ebad_alloc@std@@UAEPAXI@Z 1000cd60 f i LIBCMT:throw_bad_alloc.obj
 0001:0000bd60       ??_Ebad_exception@std@@UAEPAXI@Z 1000cd60 f i libvcruntime:frame.obj
 0001:0000bd8d       ?__scrt_throw_std_bad_alloc@@YAXXZ 1000cd8d f   LIBCMT:throw_bad_alloc.obj
 0001:0000bdaa       ?__scrt_throw_std_bad_array_new_length@@YAXXZ 1000cdaa f   LIBCMT:throw_bad_alloc.obj
 0001:0000bdc7       ?what@exception@std@@UBEPBDXZ 1000cdc7 f i LIBCMT:throw_bad_alloc.obj
 0001:0000bdd4       ??_Gtype_info@@UAEPAXI@Z   1000cdd4 f i LIBCMT:std_type_info_static.obj
 0001:0000bdd4       ??_Etype_info@@UAEPAXI@Z   1000cdd4 f i LIBCMT:std_type_info_static.obj
 0001:0000bdf7       ??0CAtlBaseModule@ATL@@QAE@XZ 1000cdf7 f   atls:atlbase.obj
 0001:0000be4a       ??0_ATL_BASE_MODULE70@ATL@@QAE@XZ 1000ce4a f i atls:atlbase.obj
 0001:0000be6d       ??1CAtlBaseModule@ATL@@QAE@XZ 1000ce6d f   atls:atlbase.obj
 0001:0000bf5a       ?Init@_stdcallthunk@ATL@@QAEHKPAX@Z 1000cf5a f i atls:atlthunk.obj
 0001:0000bf8f       ?__AllocStdCallThunk_cmn@@YAPAXXZ 1000cf8f f   atls:atlthunk.obj
 0001:0000c055       ?__FreeStdCallThunk_cmn@@YAXPAX@Z 1000d055 f   atls:atlthunk.obj
 0001:0000c0f0       _AtlThunk_AllocateData@0   1000d0f0 f   atls:atlthunk.obj
 0001:0000c155       _AtlThunk_DataToCode@4     1000d155 f   atls:atlthunk.obj
 0001:0000c19c       _AtlThunk_FreeData@4       1000d19c f   atls:atlthunk.obj
 0001:0000c1f2       _AtlThunk_InitData@12      1000d1f2 f   atls:atlthunk.obj
 0001:0000c241       __get_purecall_handler     1000d241 f   libvcruntime:purevirt.obj
 0001:0000c256       __purecall                 1000d256 f   libvcruntime:purevirt.obj
 0001:0000c272       _wcsstr                    1000d272 f   libvcruntime:wcsstr.obj
 0001:0000c530       __except_handler4          1000d530 f   libvcruntime:chandler4.obj
 0001:0000c687       _memcmp                    1000d687 f   libvcruntime:memcmp.obj
 0001:0000d630       _memcpy                    1000e630 f   libvcruntime:memcpy.obj
 0001:0000dbb0       _memset                    1000ebb0 f   libvcruntime:memset.obj
 0001:0000dd0a       ___vcrt_initialize         1000ed0a f   libvcruntime:initialization.obj
 0001:0000dd33       ___vcrt_thread_attach      1000ed33 f   libvcruntime:initialization.obj
 0001:0000dd3e       ___vcrt_thread_detach      1000ed3e f   libvcruntime:initialization.obj
 0001:0000dd49       ___vcrt_uninitialize       1000ed49 f   libvcruntime:initialization.obj
 0001:0000dd68       ___vcrt_uninitialize_critical 1000ed68 f   libvcruntime:initialization.obj
 0001:0000dd70       ?GetRangeOfTrysToCheck@__FrameHandler3@@SA?AU?$pair@Viterator@TryBlockMap@__FrameHandler3@@V123@@std@@AAVTryBlockMap@1@HH@Z 1000ed70 f   libvcruntime:trnsctrl.obj
 0001:0000ddf2       ?_CallCatchBlock2@@YAPAXPAUEHRegistrationNode@@PBU_s_FuncInfo@@PAXHK@Z 1000edf2 f   libvcruntime:trnsctrl.obj
 0001:0000de50       ?_CallSETranslator@@YAHPAUEHExceptionRecord@@PAUEHRegistrationNode@@PAX2PBU_s_FuncInfo@@H1@Z 1000ee50 f   libvcruntime:trnsctrl.obj
 0001:0000df2b       ?_JumpToContinuation@@YGXPAXPAUEHRegistrationNode@@@Z 1000ef2b f   libvcruntime:trnsctrl.obj
 0001:0000df5b       ?_UnwindNestedFrames@@YGXPAUEHRegistrationNode@@PAUEHExceptionRecord@@@Z 1000ef5b f   libvcruntime:trnsctrl.obj
 0001:0000dfae       __CatchGuardHandler        1000efae f   libvcruntime:trnsctrl.obj
 0001:0000dfdf       __CreateFrameInfo          1000efdf f   libvcruntime:trnsctrl.obj
 0001:0000e003       __FindAndUnlinkFrame       1000f003 f   libvcruntime:trnsctrl.obj
 0001:0000e048       __TranslatorGuardHandler   1000f048 f   libvcruntime:trnsctrl.obj
 0001:0000e0e5       ___CxxFrameHandler3        1000f0e5 f   libvcruntime:trnsctrl.obj
 0001:0000e11b       ___std_type_info_compare   1000f11b f   libvcruntime:std_type_info.obj
 0001:0000e157       ___std_type_info_destroy_list 1000f157 f   libvcruntime:std_type_info.obj
 0001:0000e17a       ___std_exception_copy      1000f17a f   libvcruntime:std_exception.obj
 0001:0000e1dd       ___std_exception_destroy   1000f1dd f   libvcruntime:std_exception.obj
 0001:0000e1fc       __CxxThrowException@8      1000f1fc f   libvcruntime:throw.obj
 0001:0000e270       _memmove                   1000f270 f   libvcruntime:memmove.obj
 0001:0000e7e4       ___vcrt_initialize_pure_virtual_call_handler 1000f7e4 f   libvcruntime:purevirt_data.obj
 0001:0000e7f0       __local_unwind4            1000f7f0 f   libvcruntime:exsup4.obj
 0001:0000e8c8       __seh_longjmp_unwind4@4    1000f8c8 f   libvcruntime:exsup4.obj
 0001:0000e8f0       @_EH4_CallFilterFunc@8     1000f8f0 f   libvcruntime:exsup4.obj
 0001:0000e908       @_EH4_TransferToHandler@8  1000f908 f   libvcruntime:exsup4.obj
 0001:0000e924       @_EH4_GlobalUnwind2@8      1000f924 f   libvcruntime:exsup4.obj
 0001:0000e940       @_EH4_LocalUnwind@16       1000f940 f   libvcruntime:exsup4.obj
 0001:0000e957       ___except_validate_context_record 1000f957 f   libvcruntime:jbcxrval.obj
 0001:0000e987       ___except_validate_jump_buffer 1000f987 f   libvcruntime:jbcxrval.obj
 0001:0000e9b4       ___vcrt_freefls@4          1000f9b4 f   libvcruntime:per_thread_data.obj
 0001:0000e9d0       ___vcrt_freeptd            1000f9d0 f   libvcruntime:per_thread_data.obj
 0001:0000ea06       ___vcrt_getptd             1000fa06 f   libvcruntime:per_thread_data.obj
 0001:0000ea14       ___vcrt_getptd_noexit      1000fa14 f   libvcruntime:per_thread_data.obj
 0001:0000eaa6       ___vcrt_initialize_ptd     1000faa6 f   libvcruntime:per_thread_data.obj
 0001:0000ead9       ___vcrt_uninitialize_ptd   1000fad9 f   libvcruntime:per_thread_data.obj
 0001:0000eaf4       ___vcrt_initialize_locks   1000faf4 f   libvcruntime:locks.obj
 0001:0000eb30       ___vcrt_uninitialize_locks 1000fb30 f   libvcruntime:locks.obj
 0001:0000ec92       ___vcrt_FlsAlloc           1000fc92 f   libvcruntime:winapi_downlevel.obj
 0001:0000eccd       ___vcrt_FlsFree            1000fccd f   libvcruntime:winapi_downlevel.obj
 0001:0000ed08       ___vcrt_FlsGetValue        1000fd08 f   libvcruntime:winapi_downlevel.obj
 0001:0000ed43       ___vcrt_FlsSetValue        1000fd43 f   libvcruntime:winapi_downlevel.obj
 0001:0000ed81       ___vcrt_InitializeCriticalSectionEx 1000fd81 f   libvcruntime:winapi_downlevel.obj
 0001:0000edc8       ___vcrt_initialize_winapi_thunks 1000fdc8 f   libvcruntime:winapi_downlevel.obj
 0001:0000edf1       ___vcrt_uninitialize_winapi_thunks 1000fdf1 f   libvcruntime:winapi_downlevel.obj
 0001:0000f51a       ??$TypeMatchHelper@V__FrameHandler3@@@@YAHPBU_s_HandlerType@@PBU_s_CatchableType@@PBU_s_ThrowInfo@@@Z 1001051a f i libvcruntime:frame.obj
 0001:0000f5a8       ??$__InternalCxxFrameHandler@V__FrameHandler3@@@@YA?AW4_EXCEPTION_DISPOSITION@@PAUEHExceptionRecord@@PAUEHRegistrationNode@@PAU_CONTEXT@@PAXPBU_s_FuncInfo@@H1E@Z 100105a8 f i libvcruntime:frame.obj
 0001:0000f6aa       ??0bad_exception@std@@QAE@ABV01@@Z 100106aa f i libvcruntime:frame.obj
 0001:0000f6c5       ??0bad_exception@std@@QAE@XZ 100106c5 f i libvcruntime:frame.obj
 0001:0000f6dd       ??8type_info@@QBE_NABV0@@Z 100106dd f i libvcruntime:frame.obj
 0001:0000f944       ?FrameUnwindToEmptyState@__FrameHandler3@@SAXPAUEHRegistrationNode@@PAXPBU_s_FuncInfo@@@Z 10010944 f   libvcruntime:frame.obj
 0001:0000f95c       ?FrameUnwindToState@__FrameHandler3@@SAXPAUEHRegistrationNode@@PAXPBU_s_FuncInfo@@H@Z 1001095c f   libvcruntime:frame.obj
 0001:0000fade       ?_CallMemberFunction1@@YGXQAX00@Z 10010ade f i libvcruntime:frame.obj
 0001:0000faee       ?_CallMemberFunction2@@YGXQAX00H@Z 10010aee f i libvcruntime:frame.obj
 0001:0000fb01       ?getESTypes@__FrameHandler3@@SAPBU_s_ESTypeList@@PBU_s_FuncInfo@@@Z 10010b01 f i libvcruntime:frame.obj
 0001:0000fb10       __CallSettingFrame@12      10010b10 f   libvcruntime:lowhelpr.obj
 0001:0000fb37       __NLG_Return               10010b37     libvcruntime:lowhelpr.obj
 0001:0000fb60       __global_unwind2           10010b60 f   libvcruntime:exsup.obj
 0001:0000fbc6       __local_unwind2            10010bc6 f   libvcruntime:exsup.obj
 0001:0000fc4a       __abnormal_termination     10010c4a f   libvcruntime:exsup.obj
 0001:0000fc70       __NLG_Notify1              10010c70 f   libvcruntime:exsup.obj
 0001:0000fc7c       __NLG_Notify               10010c7c f   libvcruntime:exsup.obj
 0001:0000fc93       __NLG_Dispatch2            10010c93     libvcruntime:exsup.obj
 0001:0000fc93       __NLG_Dispatch             10010c93     libvcruntime:exsup.obj
 0001:0000fc9b       __NLG_Call                 10010c9b f   libvcruntime:exsup.obj
 0001:0000fc9d       __NLG_Return2              10010c9d     libvcruntime:exsup.obj
 0001:0000fc9e       _unexpected                10010c9e f   libvcruntime:unexpected.obj
 0001:0000fcbb       ?GetCurrentState@__FrameHandler3@@SAHPAUEHRegistrationNode@@PAXPBU_s_FuncInfo@@@Z 10010cbb f   libvcruntime:ehstate.obj
 0001:0000fcd8       ?SetState@__FrameHandler3@@SAXPAUEHRegistrationNode@@PBU_s_FuncInfo@@H@Z 10010cd8 f   libvcruntime:ehstate.obj
 0001:0000fce6       ___DestructExceptionObject 10010ce6 f   libvcruntime:ehhelpers.obj
 0001:0000fd86       ?_CallMemberFunction0@@YGXQAX0@Z 10010d86 f i libvcruntime:ehhelpers.obj
 0001:0000fd93       __IsExceptionObjectToBeDestroyed 10010d93 f   libvcruntime:ehhelpers.obj
 0001:0000fdb9       ___AdjustPointer           10010db9 f   libvcruntime:ehhelpers.obj
 0001:0000fdde       ___FrameUnwindFilter       10010dde f   libvcruntime:ehhelpers.obj
 0001:0000fe23       _free                      10010e23 f   libucrt:free.obj
 0001:0000fe28       ?initialize@?$dual_state_global@P6AXPB_W00II@Z@__crt_state_management@@QAEXQ6AXPB_W00II@Z@Z 10010e28 f i libucrt:invalid_parameter.obj
 0001:0000fe28       ?initialize@?$dual_state_global@P6AXH@Z@__crt_state_management@@QAEXQ6AXH@Z@Z 10010e28 f i libucrt:signal.obj
 0001:0000fe28       ?initialize@?$dual_state_global@PAU__crt_locale_data@@@__crt_state_management@@QAEXQAU__crt_locale_data@@@Z 10010e28 f i libucrt:initialization.obj
 0001:0000fe28       ?initialize@?$dual_state_global@PAPAD@__crt_state_management@@QAEXQAPAD@Z 10010e28 f i libucrt:environment_initialization.obj
 0001:0000fe28       ?initialize@?$dual_state_global@P6AHI@Z@__crt_state_management@@QAEXQ6AHI@Z@Z 10010e28 f i libucrt:new_handler.obj
 0001:0000fe28       ?initialize@?$dual_state_global@P6AHPAU_exception@@@Z@__crt_state_management@@QAEXQ6AHPAU_exception@@@Z@Z 10010e28 f i libucrt:matherr.obj
 0001:0000fe59       ___acrt_call_reportfault   10010e59 f   libucrt:invalid_parameter.obj
 0001:0000ff94       ___acrt_initialize_invalid_parameter_handler 10010f94 f   libucrt:invalid_parameter.obj
 0001:0000ffa8       __invalid_parameter        10010fa8 f   libucrt:invalid_parameter.obj
 0001:00010023       __invalid_parameter_noinfo 10011023 f   libucrt:invalid_parameter.obj
 0001:00010033       __invoke_watson            10011033 f   libucrt:invalid_parameter.obj
 0001:00010066       ___acrt_errno_from_os_error 10011066 f   libucrt:errno.obj
 0001:000100a9       ___acrt_errno_map_os_error 100110a9 f   libucrt:errno.obj
 0001:000100cc       ___doserrno                100110cc f   libucrt:errno.obj
 0001:000100df       __errno                    100110df f   libucrt:errno.obj
 0001:000100f2       _calloc                    100110f2 f   libucrt:calloc.obj
 0001:000100fd       _malloc                    100110fd f   libucrt:malloc.obj
 0001:00010108       __recalloc                 10011108 f   libucrt:recalloc.obj
 0001:00010113       __recalloc_base            10011113 f   libucrt:recalloc.obj
 0001:00010180       __resetstkoflw             10011180 f   libucrt:resetstk.obj
 0001:00010251       _wcscat_s                  10011251 f   libucrt:wcscat_s.obj
 0001:000102c6       _wcscpy_s                  100112c6 f   libucrt:wcscpy_s.obj
 0001:000103f7       _wcsncpy_s                 100113f7 f   libucrt:wcsncpy_s.obj
 0001:00010601       ??$count@D@formatting_buffer@__crt_stdio_output@@QBEIXZ 10011601 f i libucrt:output.obj
 0001:00010619       ??$ensure_buffer_is_big_enough@D@formatting_buffer@__crt_stdio_output@@QAE_NI@Z 10011619 f i libucrt:output.obj
 0001:0001069f       ??$is_wide_character_specifier@_W@__crt_stdio_output@@YA_N_K_WW4length_modifier@0@@Z 1001169f f i libucrt:output.obj
 0001:000106ee       ??$scratch_data@D@formatting_buffer@__crt_stdio_output@@QAEPADXZ 100116ee f i libucrt:output.obj
 0001:0001070c       ??$type_case_integer_parse_into_buffer@I@?$output_processor@_WV?$string_output_adapter@_W@__crt_stdio_output@@V?$format_validation_base@_WV?$string_output_adapter@_W@__crt_stdio_output@@@2@@__crt_stdio_output@@AAEXII_N@Z 1001170c f i libucrt:output.obj
 0001:00010781       ??$type_case_integer_parse_into_buffer@_K@?$output_processor@_WV?$string_output_adapter@_W@__crt_stdio_output@@V?$format_validation_base@_WV?$string_output_adapter@_W@__crt_stdio_output@@@2@@__crt_stdio_output@@AAEX_KI_N@Z 10011781 f i libucrt:output.obj
 0001:00010809       ??$write_multiple_characters@V?$string_output_adapter@_W@__crt_stdio_output@@D@__crt_stdio_output@@YAXABV?$string_output_adapter@_W@0@DHQAH@Z 10011809 f i libucrt:output.obj
 0001:0001083a       ??0?$common_data@_W@__crt_stdio_output@@IAE@XZ 1001183a f i libucrt:output.obj
 0001:00010886       ??0?$output_adapter_data@_WV?$string_output_adapter@_W@__crt_stdio_output@@@__crt_stdio_output@@IAE@ABV?$string_output_adapter@_W@1@_KQB_WQAU__crt_locale_pointers@@QAD@Z 10011886 f i libucrt:output.obj
 0001:000108c2       ??0?$output_processor@_WV?$string_output_adapter@_W@__crt_stdio_output@@V?$format_validation_base@_WV?$string_output_adapter@_W@__crt_stdio_output@@@2@@__crt_stdio_output@@QAE@ABV?$string_output_adapter@_W@1@_KQB_WQAU__crt_locale_pointers@@QAD@Z 100118c2 f i libucrt:output.obj
 0001:000108f7       ??0_LocaleUpdate@@QAE@QAU__crt_locale_pointers@@@Z 100118f7 f i libucrt:output.obj
 0001:0001097a       ??1formatting_buffer@__crt_stdio_output@@QAE@XZ 1001197a f i libucrt:output.obj
 0001:00010994       ??4?$__crt_unique_heap_ptr@DU__crt_internal_free_policy@@@@QAEAAV0@$$QAV0@@Z 10011994 f i libucrt:output.obj
 0001:000109b8       ?crop_zeroes@__crt_stdio_output@@YAXPADQAU__crt_locale_pointers@@@Z 100119b8 f i libucrt:output.obj
 0001:00010a0f       ?find_next_state@?$output_processor@_WV?$string_output_adapter@_W@__crt_stdio_output@@V?$format_validation_base@_WV?$string_output_adapter@_W@__crt_stdio_output@@@2@@__crt_stdio_output@@ABE?AW4state@2@_WW432@@Z 10011a0f f i libucrt:output.obj
 0001:00010a46       ?force_decimal_point@__crt_stdio_output@@YAXPADQAU__crt_locale_pointers@@@Z 10011a46 f i libucrt:output.obj
 0001:00010aa2       ?parse_int_from_format_string@?$output_processor@_WV?$string_output_adapter@_W@__crt_stdio_output@@V?$format_validation_base@_WV?$string_output_adapter@_W@__crt_stdio_output@@@2@@__crt_stdio_output@@AAE_NQAH@Z 10011aa2 f i libucrt:output.obj
 0001:00010b00       ?process@?$output_processor@_WV?$string_output_adapter@_W@__crt_stdio_output@@V?$format_validation_base@_WV?$string_output_adapter@_W@__crt_stdio_output@@@2@@__crt_stdio_output@@QAEHXZ 10011b00 f i libucrt:output.obj
 0001:00010c30       ?state_case_flag@?$output_processor@_WV?$string_output_adapter@_W@__crt_stdio_output@@V?$format_validation_base@_WV?$string_output_adapter@_W@__crt_stdio_output@@@2@@__crt_stdio_output@@AAE_NXZ 10011c30 f i libucrt:output.obj
 0001:00010c6d       ?state_case_normal@?$output_processor@_WV?$string_output_adapter@_W@__crt_stdio_output@@V?$format_validation_base@_WV?$string_output_adapter@_W@__crt_stdio_output@@@2@@__crt_stdio_output@@AAE_NXZ 10011c6d f i libucrt:output.obj
 0001:00010c8c       ?state_case_normal_common@?$output_processor@_WV?$string_output_adapter@_W@__crt_stdio_output@@V?$format_validation_base@_WV?$string_output_adapter@_W@__crt_stdio_output@@@2@@__crt_stdio_output@@AAE_NXZ 10011c8c f i libucrt:output.obj
 0001:00010ca7       ?state_case_precision@?$output_processor@_WV?$string_output_adapter@_W@__crt_stdio_output@@V?$format_validation_base@_WV?$string_output_adapter@_W@__crt_stdio_output@@@2@@__crt_stdio_output@@AAE_NXZ 10011ca7 f i libucrt:output.obj
 0001:00010cd0       ?state_case_size@?$output_processor@_WV?$string_output_adapter@_W@__crt_stdio_output@@V?$format_validation_base@_WV?$string_output_adapter@_W@__crt_stdio_output@@@2@@__crt_stdio_output@@AAE_NXZ 10011cd0 f i libucrt:output.obj
 0001:00010e4c       ?state_case_type@?$output_processor@_WV?$string_output_adapter@_W@__crt_stdio_output@@V?$format_validation_base@_WV?$string_output_adapter@_W@__crt_stdio_output@@@2@@__crt_stdio_output@@AAE_NXZ 10011e4c f i libucrt:output.obj
 0001:000110a9       ?state_case_width@?$output_processor@_WV?$string_output_adapter@_W@__crt_stdio_output@@V?$format_validation_base@_WV?$string_output_adapter@_W@__crt_stdio_output@@@2@@__crt_stdio_output@@AAE_NXZ 100120a9 f i libucrt:output.obj
 0001:000110d5       ?to_integer_size@__crt_stdio_output@@YAIW4length_modifier@1@@Z 100120d5 f i libucrt:output.obj
 0001:00011131       ?type_case_Z@?$output_processor@_WV?$string_output_adapter@_W@__crt_stdio_output@@V?$format_validation_base@_WV?$string_output_adapter@_W@__crt_stdio_output@@@2@@__crt_stdio_output@@AAE_NXZ 10012131 f i libucrt:output.obj
 0001:00011194       ?type_case_a@?$output_processor@_WV?$string_output_adapter@_W@__crt_stdio_output@@V?$format_validation_base@_WV?$string_output_adapter@_W@__crt_stdio_output@@@2@@__crt_stdio_output@@AAE_NXZ 10012194 f i libucrt:output.obj
 0001:00011306       ?type_case_c_tchar@?$output_processor@_WV?$string_output_adapter@_W@__crt_stdio_output@@V?$format_validation_base@_WV?$string_output_adapter@_W@__crt_stdio_output@@@2@@__crt_stdio_output@@AAE_N_W@Z 10012306 f i libucrt:output.obj
 0001:0001139e       ?type_case_integer@?$output_processor@_WV?$string_output_adapter@_W@__crt_stdio_output@@V?$format_validation_base@_WV?$string_output_adapter@_W@__crt_stdio_output@@@2@@__crt_stdio_output@@AAE_NI_N@Z 1001239e f i libucrt:output.obj
 0001:000114e8       ?type_case_n@?$output_processor@_WV?$string_output_adapter@_W@__crt_stdio_output@@V?$format_validation_base@_WV?$string_output_adapter@_W@__crt_stdio_output@@@2@@__crt_stdio_output@@AAE_NXZ 100124e8 f i libucrt:output.obj
 0001:0001155c       ?type_case_o@?$output_processor@_WV?$string_output_adapter@_W@__crt_stdio_output@@V?$format_validation_base@_WV?$string_output_adapter@_W@__crt_stdio_output@@@2@@__crt_stdio_output@@AAE_NXZ 1001255c f i libucrt:output.obj
 0001:0001157b       ?type_case_p@?$output_processor@_WV?$string_output_adapter@_W@__crt_stdio_output@@V?$format_validation_base@_WV?$string_output_adapter@_W@__crt_stdio_output@@@2@@__crt_stdio_output@@AAE_NXZ 1001257b f i libucrt:output.obj
 0001:00011593       ?type_case_s@?$output_processor@_WV?$string_output_adapter@_W@__crt_stdio_output@@V?$format_validation_base@_WV?$string_output_adapter@_W@__crt_stdio_output@@@2@@__crt_stdio_output@@AAE_NXZ 10012593 f i libucrt:output.obj
 0001:00011607       ?type_case_s_compute_narrow_string_length@?$output_processor@_WV?$string_output_adapter@_W@__crt_stdio_output@@V?$format_validation_base@_WV?$string_output_adapter@_W@__crt_stdio_output@@@2@@__crt_stdio_output@@ABEHH_W@Z 10012607 f i libucrt:output.obj
 0001:00011647       ?validate@?$c_string_character_source@_W@__crt_strtox@@QBE_NXZ 10012647 f i libucrt:atox.obj
 0001:00011647       ?validate@?$string_output_adapter@_W@__crt_stdio_output@@QBE_NXZ 10012647 f i libucrt:output.obj
 0001:00011662       ?validate_and_update_state_at_end_of_format_string@?$format_validation_base@_WV?$string_output_adapter@_W@__crt_stdio_output@@@__crt_stdio_output@@IBE_NXZ 10012662 f i libucrt:output.obj
 0001:00011684       ?write_character@?$string_output_adapter@_W@__crt_stdio_output@@QBE_N_WQAH@Z 10012684 f i libucrt:output.obj
 0001:000116c9       ?write_stored_string_tchar@?$output_processor@_WV?$string_output_adapter@_W@__crt_stdio_output@@V?$format_validation_base@_WV?$string_output_adapter@_W@__crt_stdio_output@@@2@@__crt_stdio_output@@AAE_N_W@Z 100126c9 f i libucrt:output.obj
 0001:00011754       ?write_string@?$string_output_adapter@_W@__crt_stdio_output@@QBEXQB_WHQAH1@Z 10012754 f i libucrt:output.obj
 0001:000117ee       ___stdio_common_vswprintf_s 100127ee f   libucrt:output.obj
 0001:00011812       __seh_filter_dll           10012812 f   libucrt:exception_filter.obj
 0001:00011832       __seh_filter_exe           10012832 f   libucrt:exception_filter.obj
 0001:00011bc0       ___acrt_initialize_thread_local_exit_callback 10012bc0 f   libucrt:exit.obj
 0001:00011bcf       __cexit                    10012bcf f   libucrt:exit.obj
 0001:00011bde       __exit                     10012bde f   libucrt:exit.obj
 0001:00011bf4       __is_c_termination_complete 10012bf4 f   libucrt:exit.obj
 0001:00011e93       ___acrt_allocate_buffer_for_argv 10012e93 f   libucrt:argv_parsing.obj
 0001:00011ee8       __configure_narrow_argv    10012ee8 f   libucrt:argv_parsing.obj
 0001:0001204c       ??$uninitialize@A6AXAAPAPAD@Z@?$dual_state_global@PAPAD@__crt_state_management@@QAEXA6AXAAPAPAD@Z@Z 1001304c f i libucrt:environment_initialization.obj
 0001:0001204c       ??$uninitialize@A6AXAAPAPA_W@Z@?$dual_state_global@PAPA_W@__crt_state_management@@QAEXA6AXAAPAPA_W@Z@Z 1001304c f i libucrt:environment_initialization.obj
 0001:000120c2       ___dcrt_uninitialize_environments_nolock 100130c2 f   libucrt:environment_initialization.obj
 0001:000120f9       __initialize_narrow_environment 100130f9 f   libucrt:environment_initialization.obj
 0001:000120fe       ??$?RV<lambda_800076c951b434888f4765a74a194fcc>@@AAV<lambda_4e60a939b0d047cfe11ddc22648dfba9>@@V<lambda_6dbb1268764f43b569ce7b67e331d33a>@@@?$__crt_seh_guarded_call@H@@QAEH$$QAV<lambda_800076c951b434888f4765a74a194fcc>@@AAV<lambda_4e60a939b0d047cfe11ddc22648dfba9>@@$$QAV<lambda_6dbb1268764f43b569ce7b67e331d33a>@@@Z 100130fe f i libucrt:onexit.obj
 0001:0001214f       ??$?RV<lambda_995298e7d72eb4c2aab26c0585b3abe5>@@AAV<lambda_275893d493268fdec8709772e3fcec0e>@@V<lambda_293819299cbf9a7022e18b56a874bb5c>@@@?$__crt_seh_guarded_call@H@@QAEH$$QAV<lambda_995298e7d72eb4c2aab26c0585b3abe5>@@AAV<lambda_275893d493268fdec8709772e3fcec0e>@@$$QAV<lambda_293819299cbf9a7022e18b56a874bb5c>@@@Z 1001314f f i libucrt:onexit.obj
 0001:000121a0       ??$__acrt_lock_and_call@V<lambda_275893d493268fdec8709772e3fcec0e>@@@@YAHW4__acrt_lock_id@@$$QAV<lambda_275893d493268fdec8709772e3fcec0e>@@@Z 100131a0 f i libucrt:onexit.obj
 0001:000121c8       ??$__acrt_lock_and_call@V<lambda_4e60a939b0d047cfe11ddc22648dfba9>@@@@YAHW4__acrt_lock_id@@$$QAV<lambda_4e60a939b0d047cfe11ddc22648dfba9>@@@Z 100131c8 f i libucrt:onexit.obj
 0001:000121f0       ??$__crt_fast_encode_pointer@P6AHXZ@@YAP6AHXZQ6AHXZ@Z 100131f0 f i libucrt:onexit.obj
 0001:00012470       __crt_atexit               10013470 f   libucrt:onexit.obj
 0001:00012486       __execute_onexit_table     10013486 f   libucrt:onexit.obj
 0001:000124a3       __initialize_onexit_table  100134a3 f   libucrt:onexit.obj
 0001:000124e0       __register_onexit_function 100134e0 f   libucrt:onexit.obj
 0001:00012530       ___acrt_uninitialize_command_line 10013530 f   libucrt:argv_data.obj
 0001:000125f8       ___acrt_initialize         100135f8 f   libucrt:initialization.obj
 0001:0001260a       ___acrt_thread_attach      1001360a f   libucrt:initialization.obj
 0001:00012615       ___acrt_thread_detach      10013615 f   libucrt:initialization.obj
 0001:0001261d       ___acrt_uninitialize       1001361d f   libucrt:initialization.obj
 0001:0001262f       ___acrt_uninitialize_critical 1001362f f   libucrt:initialization.obj
 0001:00012641       __initterm                 10013641 f   libucrt:initterm.obj
 0001:0001269d       __initterm_e               1001369d f   libucrt:initterm.obj
 0001:000126e2       ___acrt_initialize_new_handler 100136e2 f   libucrt:new_handler.obj
 0001:000126f6       __callnewh                 100136f6 f   libucrt:new_handler.obj
 0001:0001273a       __query_new_handler        1001373a f   libucrt:new_handler.obj
 0001:0001278c       _terminate                 1001378c f   libucrt:terminate.obj
 0001:000127c8       _abort                     100137c8 f   libucrt:abort.obj
 0001:0001280b       _strcpy_s                  1001380b f   libucrt:strcpy_s.obj
 0001:00012865       _wcsncmp                   10013865 f   libucrt:wcsncmp.obj
 0001:0001289f       ??$is_overflow_condition@K@__crt_strtox@@YA_NIK@Z 1001389f f i libucrt:atox.obj
 0001:000128d2       ??$parse_integer@KV?$c_string_character_source@_W@__crt_strtox@@@__crt_strtox@@YAKQAU__crt_locale_pointers@@V?$c_string_character_source@_W@0@H_N@Z 100138d2 f i libucrt:atox.obj
 0001:00012fb7       ?unget@?$c_string_character_source@_W@__crt_strtox@@QAEX_W@Z 10013fb7 f i libucrt:atox.obj
 0001:00012fe3       __chvalidchk_l             10013fe3 f i libucrt:atox.obj
 0001:0001300d       __ischartype_l             1001400d f i libucrt:atox.obj
 0001:00013040       _strncmp                   10014040 f   libucrt:strncmp.obj
 0001:000130b8       __free_base                100140b8 f   libucrt:free_base.obj
 0001:000130f2       ??$?RV<lambda_3518db117f0e7cdb002338c5d3c47b6c>@@AAV<lambda_b2ea41f6bbb362cd97d94c6828d90b61>@@V<lambda_abdedf541bb04549bc734292b4a045d4>@@@?$__crt_seh_guarded_call@X@@QAEX$$QAV<lambda_3518db117f0e7cdb002338c5d3c47b6c>@@AAV<lambda_b2ea41f6bbb362cd97d94c6828d90b61>@@$$QAV<lambda_abdedf541bb04549bc734292b4a045d4>@@@Z 100140f2 f i libucrt:per_thread_data.obj
 0001:00013142       ??$?RV<lambda_51b6e8b1eb166f2a3faf91f424b38130>@@AAV<lambda_6250bd4b2a391816dd638c3bf72b0bcb>@@V<lambda_0b5a4a3e68152e1d9b943535f5f47bed>@@@?$__crt_seh_guarded_call@X@@QAEX$$QAV<lambda_51b6e8b1eb166f2a3faf91f424b38130>@@AAV<lambda_6250bd4b2a391816dd638c3bf72b0bcb>@@$$QAV<lambda_0b5a4a3e68152e1d9b943535f5f47bed>@@@Z 10014142 f i libucrt:per_thread_data.obj
 0001:000131a3       ??$?RV<lambda_5b71d36f03204c0beab531769a5b5694>@@AAV<lambda_be2b3da3f62db62e9dad5dc70221a656>@@V<lambda_8f9ce462984622f9bf76b59e2aaaf805>@@@?$__crt_seh_guarded_call@X@@QAEX$$QAV<lambda_5b71d36f03204c0beab531769a5b5694>@@AAV<lambda_be2b3da3f62db62e9dad5dc70221a656>@@$$QAV<lambda_8f9ce462984622f9bf76b59e2aaaf805>@@@Z 100141a3 f i libucrt:per_thread_data.obj
 0001:000131ee       ??$?RV<lambda_9df27f884b057bc3edfc946cb5b7cf47>@@AAV<lambda_e69574bed617af4e071282c136b37893>@@V<lambda_cc0d902bcbbeb830f749456577db4721>@@@?$__crt_seh_guarded_call@X@@QAEX$$QAV<lambda_9df27f884b057bc3edfc946cb5b7cf47>@@AAV<lambda_e69574bed617af4e071282c136b37893>@@$$QAV<lambda_cc0d902bcbbeb830f749456577db4721>@@@Z 100141ee f i libucrt:per_thread_data.obj
 0001:00013236       ??$__acrt_lock_and_call@V<lambda_6250bd4b2a391816dd638c3bf72b0bcb>@@@@YAXW4__acrt_lock_id@@$$QAV<lambda_6250bd4b2a391816dd638c3bf72b0bcb>@@@Z 10014236 f i libucrt:per_thread_data.obj
 0001:0001325e       ??$__acrt_lock_and_call@V<lambda_b2ea41f6bbb362cd97d94c6828d90b61>@@@@YAXW4__acrt_lock_id@@$$QAV<lambda_b2ea41f6bbb362cd97d94c6828d90b61>@@@Z 1001425e f i libucrt:per_thread_data.obj
 0001:00013286       ??$__acrt_lock_and_call@V<lambda_be2b3da3f62db62e9dad5dc70221a656>@@@@YAXW4__acrt_lock_id@@$$QAV<lambda_be2b3da3f62db62e9dad5dc70221a656>@@@Z 10014286 f i libucrt:per_thread_data.obj
 0001:000132ae       ??$__acrt_lock_and_call@V<lambda_e69574bed617af4e071282c136b37893>@@@@YAXW4__acrt_lock_id@@$$QAV<lambda_e69574bed617af4e071282c136b37893>@@@Z 100142ae f i libucrt:per_thread_data.obj
 0001:00013464       ___acrt_freeptd            10014464 f   libucrt:per_thread_data.obj
 0001:00013490       ___acrt_getptd             10014490 f   libucrt:per_thread_data.obj
 0001:00013514       ___acrt_getptd_noexit      10014514 f   libucrt:per_thread_data.obj
 0001:00013599       ___acrt_initialize_ptd     10014599 f   libucrt:per_thread_data.obj
 0001:000135c5       ___acrt_uninitialize_ptd   100145c5 f   libucrt:per_thread_data.obj
 0001:000135df       __calloc_base              100145df f   libucrt:calloc_base.obj
 0001:0001363c       __malloc_base              1001463c f   libucrt:malloc_base.obj
 0001:0001368a       __msize                    1001468a f   libucrt:msize.obj
 0001:000136bd       __realloc_base             100146bd f   libucrt:realloc_base.obj
 0001:0001383d       ___acrt_FlsAlloc@4         1001483d f   libucrt:winapi_thunks.obj
 0001:00013893       ___acrt_FlsFree@4          10014893 f   libucrt:winapi_thunks.obj
 0001:000138e9       ___acrt_FlsGetValue@4      100148e9 f   libucrt:winapi_thunks.obj
 0001:0001393f       ___acrt_FlsSetValue@8      1001493f f   libucrt:winapi_thunks.obj
 0001:00013998       ___acrt_InitializeCriticalSectionEx@12 10014998 f   libucrt:winapi_thunks.obj
 0001:000139fa       ___acrt_LCMapStringEx@36   100149fa f   libucrt:winapi_thunks.obj
 0001:00013a82       ___acrt_LocaleNameToLCID@8 10014a82 f   libucrt:winapi_thunks.obj
 0001:00013ade       ___acrt_SetThreadStackGuarantee@4 10014ade f   libucrt:winapi_thunks.obj
 0001:00013b30       ___acrt_initialize_winapi_thunks 10014b30 f   libucrt:winapi_thunks.obj
 0001:00013b56       ___acrt_is_packaged_app    10014b56 f   libucrt:winapi_thunks.obj
 0001:00013bdd       ___acrt_uninitialize_winapi_thunks 10014bdd f   libucrt:winapi_thunks.obj
 0001:00013c13       __isdigit_l                10014c13 f i libucrt:_ctype.obj
 0001:00013c4b       _isdigit                   10014c4b f i libucrt:_ctype.obj
 0001:00013ddf       __tolower_l                10014ddf f   libucrt:tolower_toupper.obj
 0001:00013df9       _tolower                   10014df9 f   libucrt:tolower_toupper.obj
 0001:00013e29       ??$make_c_string_character_source@_WPAPA_W@__crt_strtox@@YA?AV?$c_string_character_source@_W@0@QB_WQAPA_W@Z 10014e29 f i libucrt:strtox.obj
 0001:00013e44       _wcstol                    10014e44 f   libucrt:strtox.obj
 0001:00013e70       __mbtowc_l                 10014e70 f   libucrt:mbtowc.obj
 0001:00013f6a       _mbtowc                    10014f6a f   libucrt:mbtowc.obj
 0001:00013f84       _wcsnlen                   10014f84 f   libucrt:strnlen.obj
 0001:0001413b       ___acrt_update_locale_info 1001513b f   libucrt:locale_update.obj
 0001:00014168       ___acrt_update_multibyte_info 10015168 f   libucrt:locale_update.obj
 0001:00014195       ?__acrt_fp_classify@@YA?AW4__acrt_fp_class@@ABN@Z 10015195 f i libucrt:cvt.obj
 0001:00014201       ?__acrt_fp_is_negative@@YA_NABN@Z 10015201 f i libucrt:cvt.obj
 0001:00014a60       ___acrt_fp_format          10015a60 f   libucrt:cvt.obj
 0001:00014baa       __fileno                   10015baa f   libucrt:fileno.obj
 0001:00014bd0       ___acrt_initialize_stdio   10015bd0 f   libucrt:_file.obj
 0001:00014c98       ___acrt_uninitialize_stdio 10015c98 f   libucrt:_file.obj
 0001:00014ce4       __lock_file                10015ce4 f   libucrt:_file.obj
 0001:00014cf8       __unlock_file              10015cf8 f   libucrt:_file.obj
 0001:00014d0c       __get_printf_count_output  10015d0c f   libucrt:printf_count_output.obj
 0001:00014d21       ___acrt_set_locale_changed 10015d21 f   libucrt:wsetlocale.obj
 0001:00014d2c       ___acrt_uninitialize_locale 10015d2c f   libucrt:wsetlocale.obj
 0001:00014eea       ___acrt_initialize_lowio   10015eea f   libucrt:ioinit.obj
 0001:00014f40       ___acrt_uninitialize_lowio 10015f40 f   libucrt:ioinit.obj
 0001:00014f6c       ___acrt_initialize_locks   10015f6c f   libucrt:locks.obj
 0001:00014fad       ___acrt_lock               10015fad f   libucrt:locks.obj
 0001:00014fc4       ___acrt_uninitialize_locks 10015fc4 f   libucrt:locks.obj
 0001:00014ff5       ___acrt_unlock             10015ff5 f   libucrt:locks.obj
 0001:000153ce       ??1?$argument_list@D@?A0xb0e4b824@@QAE@XZ 100163ce f i libucrt:argv_wildcards.obj
 0001:000153f3       ?append@?$argument_list@D@?A0xb0e4b824@@QAEHQAD@Z 100163f3 f i libucrt:argv_wildcards.obj
 0001:00015428       ?expand_if_necessary@?$argument_list@D@?A0xb0e4b824@@AAEHXZ 10016428 f i libucrt:argv_wildcards.obj
 0001:000154af       ___acrt_expand_narrow_argv_wildcards 100164af f   libucrt:argv_wildcards.obj
 0001:000154ba       ??$?RV<lambda_978dc153c237d78434369da87b74ff60>@@AAV<lambda_ad1ced32f4ac17aa236e5ef05d6b3b7c>@@V<lambda_4a8533e2866a575feecb8298ce776b0d>@@@?$__crt_seh_guarded_call@X@@QAEX$$QAV<lambda_978dc153c237d78434369da87b74ff60>@@AAV<lambda_ad1ced32f4ac17aa236e5ef05d6b3b7c>@@$$QAV<lambda_4a8533e2866a575feecb8298ce776b0d>@@@Z 100164ba f i libucrt:mbctype.obj
 0001:000154fd       ??$__acrt_lock_and_call@V<lambda_ad1ced32f4ac17aa236e5ef05d6b3b7c>@@@@YAXW4__acrt_lock_id@@$$QAV<lambda_ad1ced32f4ac17aa236e5ef05d6b3b7c>@@@Z 100164fd f i libucrt:mbctype.obj
 0001:00015994       ___acrt_initialize_multibyte 10016994 f   libucrt:mbctype.obj
 0001:000159b2       ___acrt_update_thread_multibyte_data 100169b2 f   libucrt:mbctype.obj
 0001:00015a54       __setmbcp_nolock           10016a54 f   libucrt:mbctype.obj
 0001:00015d1f       __ismbblead                10016d1f f   libucrt:ismbbyte.obj
 0001:00015d37       ___acrt_initialize_command_line 10016d37 f   libucrt:argv_data.obj
 0001:00015d87       ___dcrt_get_narrow_environment_from_os 10016d87 f   libucrt:get_environment_from_os.obj
 0001:00015e0a       ___acrt_initialize_heap    10016e0a f   libucrt:heap_handle.obj
 0001:00015e1b       ___acrt_uninitialize_heap  10016e1b f   libucrt:heap_handle.obj
 0001:00015e25       ___acrt_execute_initializers 10016e25 f   libucrt:shared_initialization.obj
 0001:00015ea8       ___acrt_execute_uninitializers 10016ea8 f   libucrt:shared_initialization.obj
 0001:00015ef5       ??$?RV<lambda_a048d3beccc847880fc8490e18b82769>@@AAV<lambda_ec61778202f4f5fc7e7711acc23c3bca>@@V<lambda_f7496a158712204296dd6628a163878e>@@@?$__crt_seh_guarded_call@P6AXH@Z@@QAEP6AXH@Z$$QAV<lambda_a048d3beccc847880fc8490e18b82769>@@AAV<lambda_ec61778202f4f5fc7e7711acc23c3bca>@@$$QAV<lambda_f7496a158712204296dd6628a163878e>@@@Z 10016ef5 f i libucrt:signal.obj
 0001:00015f4f       ??$__acrt_lock_and_call@V<lambda_ec61778202f4f5fc7e7711acc23c3bca>@@@@YAP6AXH@ZW4__acrt_lock_id@@$$QAV<lambda_ec61778202f4f5fc7e7711acc23c3bca>@@@Z 10016f4f f i libucrt:signal.obj
 0001:00015fe1       ___acrt_get_sigabrt_handler 10016fe1 f   libucrt:signal.obj
 0001:00015ff8       ___acrt_initialize_signal_handlers 10016ff8 f   libucrt:signal.obj
 0001:00016033       ___fpecode                 10017033 f   libucrt:signal.obj
 0001:0001603c       _raise                     1001703c f   libucrt:signal.obj
 0001:00016244       ___acrt_has_user_matherr   10017244 f   libucrt:matherr.obj
 0001:0001625d       ___acrt_initialize_user_matherr 1001725d f   libucrt:matherr.obj
 0001:00016271       ___acrt_invoke_user_matherr 10017271 f   libucrt:matherr.obj
 0001:000162ba       ___pctype_func             100172ba f   libucrt:ctype.obj
 0001:000162e0       _iswctype                  100172e0 f   libucrt:iswctype.obj
 0001:0001633f       __isctype_l                1001733f f   libucrt:isctype.obj
 0001:00016411       ___acrt_add_locale_ref     10017411 f   libucrt:locale_refcounting.obj
 0001:0001648e       ___acrt_free_locale        1001748e f   libucrt:locale_refcounting.obj
 0001:000165d8       ___acrt_locale_add_lc_time_reference 100175d8 f   libucrt:locale_refcounting.obj
 0001:00016601       ___acrt_locale_free_lc_time_if_unreferenced 10017601 f   libucrt:locale_refcounting.obj
 0001:00016631       ___acrt_locale_release_lc_time_reference 10017631 f   libucrt:locale_refcounting.obj
 0001:0001665a       ___acrt_release_locale_ref 1001765a f   libucrt:locale_refcounting.obj
 0001:000166db       ___acrt_update_thread_locale_data 100176db f   libucrt:locale_refcounting.obj
 0001:00016752       __updatetlocinfoEx_nolock  10017752 f   libucrt:locale_refcounting.obj
 0001:000167a2       __query_new_mode           100177a2 f   libucrt:new_mode.obj
 0001:00016864       ___acrt_DownlevelLocaleNameToLCID 10017864 f   libucrt:lcidtoname_downlevel.obj
 0001:00016890       __isleadbyte_l             10017890 f i libucrt:_wctype.obj
 0001:00016ae6       ___acrt_LCMapStringA       10017ae6 f   libucrt:lcmapstringa.obj
 0001:00016b31       __freea_crt                10017b31 f i libucrt:lcmapstringa.obj
 0001:00016b51       ___acrt_fp_strflt_to_string 10017b51 f   libucrt:_fptostr.obj
 0001:00016c0d       ??0scoped_fp_state_reset@?A0x48fbfdd4@@QAE@XZ 10017c0d f i libucrt:cfout.obj
 0001:00016c40       ?divide@__crt_strtox@@YA_KAAUbig_integer@1@ABU21@@Z 10017c40 f i libucrt:cfout.obj
 0001:000170ee       ___acrt_fltout             100180ee f   libucrt:cfout.obj
 0001:0001848a       __fcloseall                1001948a f   libucrt:closeall.obj
 0001:0001852a       ___acrt_stdio_flush_nolock 1001952a f   libucrt:fflush.obj
 0001:00018590       __fflush_nolock            10019590 f   libucrt:fflush.obj
 0001:000185d7       __flushall                 100195d7 f   libucrt:fflush.obj
 0001:000186b8       ___acrt_stdio_free_buffer_nolock 100196b8 f   libucrt:_freebuf.obj
 0001:000186f6       __isatty                   100196f6 f   libucrt:isatty.obj
 0001:0001874c       ___acrt_locale_free_monetary 1001974c f   libucrt:initmon.obj
 0001:0001884a       ___acrt_locale_free_numeric 1001984a f   libucrt:initnum.obj
 0001:000188ef       ___acrt_locale_free_time   100198ef f   libucrt:inittime.obj
 0001:000189d3       ___acrt_GetStringTypeA     100199d3 f   libucrt:getstringtypea.obj
 0001:00018af0       ___acrt_lowio_create_handle_array 10019af0 f   libucrt:osfinfo.obj
 0001:00018b6a       ___acrt_lowio_destroy_handle_array 10019b6a f   libucrt:osfinfo.obj
 0001:00018b9f       ___acrt_lowio_ensure_fh_exists 10019b9f f   libucrt:osfinfo.obj
 0001:00018c37       ___acrt_lowio_lock_fh      10019c37 f   libucrt:osfinfo.obj
 0001:00018c5a       ___acrt_lowio_unlock_fh    10019c5a f   libucrt:osfinfo.obj
 0001:00018c7d       __free_osfhnd              10019c7d f   libucrt:osfinfo.obj
 0001:00018d0e       __get_osfhandle            10019d0e f   libucrt:osfinfo.obj
 0001:00018e60       _qsort                     10019e60 f   libucrt:qsort.obj
 0001:000192ab       _strncpy_s                 1001a2ab f   libucrt:strncpy_s.obj
 0001:000192c0       _strpbrk                   1001a2c0 f   libucrt:strpbrk.obj
 0001:00019300       __mbsdec                   1001a300 f   libucrt:mbsdec.obj
 0001:00019317       __mbsdec_l                 1001a317 f   libucrt:mbsdec.obj
 0001:000193b3       ___strncnt                 1001a3b3 f   libucrt:strncnt.obj
 0001:000193cf       _fegetenv                  1001a3cf f   libucrt:fegetenv.obj
 0001:000193ec       _fesetenv                  1001a3ec f   libucrt:fesetenv.obj
 0001:00019435       _feholdexcept              1001a435 f   libucrt:feholdexcept.obj
 0001:00019490       _log10                     1001a490 f   libucrt:log10.obj
 0001:000194d0       __CIlog10                  1001a4d0 f   libucrt:log10.obj
 0001:0001950b       __CIlog10_default          1001a50b f   libucrt:log10.obj
 0001:0001951f       __log10_default            1001a51f     libucrt:log10.obj
 0001:000195e0       _ceil                      1001a5e0 f   libucrt:ceil_pentium4.obj
 0001:00019620       __ceil_pentium4            1001a620 f   libucrt:ceil_pentium4.obj
 0001:00019c8d       __write                    1001ac8d f   libucrt:write.obj
 0001:00019d78       __write_nolock             1001ad78 f   libucrt:write.obj
 0001:0001a002       __lseeki64_nolock          1001b002 f   libucrt:lseek.obj
 0001:0001a01d       __fclose_nolock            1001b01d f   libucrt:fclose.obj
 0001:0001a093       _fclose                    1001b093 f   libucrt:fclose.obj
 0001:0001a113       ??$?RV<lambda_61cee617f5178ae960314fd4d05640a0>@@AAV<lambda_6978c1fb23f02e42e1d9e99668cc68aa>@@V<lambda_9cd88cf8ad10232537feb2133f08c833>@@@?$__crt_seh_guarded_call@H@@QAEH$$QAV<lambda_61cee617f5178ae960314fd4d05640a0>@@AAV<lambda_6978c1fb23f02e42e1d9e99668cc68aa>@@$$QAV<lambda_9cd88cf8ad10232537feb2133f08c833>@@@Z 1001b113 f i libucrt:commit.obj
 0001:0001a1ab       ??$__acrt_lowio_lock_fh_and_call@V<lambda_6978c1fb23f02e42e1d9e99668cc68aa>@@@@YAHH$$QAV<lambda_6978c1fb23f02e42e1d9e99668cc68aa>@@@Z 1001b1ab f i libucrt:commit.obj
 0001:0001a1d3       __commit                   1001b1d3 f   libucrt:commit.obj
 0001:0001a242       __query_app_type           1001b242 f   libucrt:report_runtime_error.obj
 0001:0001a4eb       __getfpcontrolword         1001b4eb f   libucrt:_fenvutils.obj
 0001:0001a52e       __getfpstatusword          1001b52e f   libucrt:_fenvutils.obj
 0001:0001a5d6       __setfpcontrolword         1001b5d6 f   libucrt:_fenvutils.obj
 0001:0001a656       __setfpstatusword          1001b656 f   libucrt:_fenvutils.obj
 0001:0001a6d6       __clearfp                  1001b6d6 f   libucrt:ieee87.obj
 0001:0001a7b4       ___acrt_initialize_sse2    1001b7b4 f   libucrt:mathfcns.obj
 0001:0001a7d0       __CIlog10_pentium4         1001b7d0 f   libucrt:log10_pentium4.obj
 0001:0001a7e8       __log10_pentium4           1001b7e8     libucrt:log10_pentium4.obj
 0001:0001aa71       __fFEXP                    1001ba71     libucrt:87tran.obj
 0001:0001aac8       __rtinfpopse               1001bac8     libucrt:87tran.obj
 0001:0001aaca       __rtinfnpopse              1001baca     libucrt:87tran.obj
 0001:0001aada       __fFLN                     1001bada     libucrt:87tran.obj
 0001:0001ab8f       __rtinfpop                 1001bb8f     libucrt:87tran.obj
 0001:0001ab91       __rtinfnpop                1001bb91     libucrt:87tran.obj
 0001:0001abae       __ffexpm1                  1001bbae     libucrt:87tran.obj
 0001:0001ac60       __trandisp1                1001bc60 f   libucrt:87disp.obj
 0001:0001acc7       __trandisp2                1001bcc7 f   libucrt:87disp.obj
 0001:0001ad53       __rttospopde               1001bd53     libucrt:87disp.obj
 0001:0001ad58       __rttospop                 1001bd58     libucrt:87disp.obj
 0001:0001ad5a       __rtnospop                 1001bd5a     libucrt:87disp.obj
 0001:0001ad5c       __rttosnpop                1001bd5c     libucrt:87disp.obj
 0001:0001ad5d       __rtnospopde               1001bd5d     libucrt:87disp.obj
 0001:0001ad64       __rtzeropop                1001bd64     libucrt:87disp.obj
 0001:0001ad66       __rtzeronpop               1001bd66     libucrt:87disp.obj
 0001:0001ad6b       __rtzerospop               1001bd6b     libucrt:87disp.obj
 0001:0001ad78       __rtonepop                 1001bd78     libucrt:87disp.obj
 0001:0001ad7a       __rtonenpop                1001bd7a     libucrt:87disp.obj
 0001:0001ad7f       __tosnan1                  1001bd7f     libucrt:87disp.obj
 0001:0001adaa       __nosnan2                  1001bdaa     libucrt:87disp.obj
 0001:0001adac       __tosnan2                  1001bdac     libucrt:87disp.obj
 0001:0001add4       __nan2                     1001bdd4     libucrt:87disp.obj
 0001:0001ae13       __rtindfpop                1001be13     libucrt:87disp.obj
 0001:0001ae15       __rtindfnpop               1001be15     libucrt:87disp.obj
 0001:0001ae26       __rttosnpopde              1001be26     libucrt:87disp.obj
 0001:0001ae30       __rtatan2inf               1001be30     libucrt:87disp.obj
 0001:0001ae4d       __rtchsifneg               1001be4d     libucrt:87disp.obj
 0001:0001ae60       __twoToTOS                 1001be60 f   libucrt:common.obj
 0001:0001ae75       __load_CW                  1001be75 f   libucrt:common.obj
 0001:0001ae8c       __convertTOStoQNaN         1001be8c f   libucrt:common.obj
 0001:0001aea5       __fload_withFB             1001bea5 f   libucrt:common.obj
 0001:0001aee8       __checkTOS_withFB          1001bee8 f   libucrt:common.obj
 0001:0001aefe       __fast_exit                1001befe f   libucrt:common.obj
 0001:0001af0b       __math_exit                1001bf0b f   libucrt:common.obj
 0001:0001af35       __check_overflow_exit      1001bf35 f   libucrt:common.obj
 0001:0001af49       __check_range_exit         1001bf49 f   libucrt:common.obj
 0001:0001aff0       __startTwoArgErrorHandling 1001bff0 f   libucrt:genexcep.obj
 0001:0001b007       __startOneArgErrorHandling 1001c007 f   libucrt:genexcep.obj
 0001:0001b043       ___libm_error_support      1001c043 f   libucrt:libm_error.obj
 0001:0001b25b       __ceil_default             1001c25b f   libucrt:ceil.obj
 0001:0001b314       __putwch_nolock            1001c314 f   libucrt:putwch.obj
 0001:0001b359       ??$?RV<lambda_123407a5e2ac06da108355a851863b7a>@@AAV<lambda_2fe9b910cf3cbf4a0ab98a02ba45b3ec>@@V<lambda_ae55bdf541ad94d75914d381c370e64d>@@@?$__crt_seh_guarded_call@H@@QAEH$$QAV<lambda_123407a5e2ac06da108355a851863b7a>@@AAV<lambda_2fe9b910cf3cbf4a0ab98a02ba45b3ec>@@$$QAV<lambda_ae55bdf541ad94d75914d381c370e64d>@@@Z 1001c359 f i libucrt:close.obj
 0001:0001b3db       ??$__acrt_lowio_lock_fh_and_call@V<lambda_2fe9b910cf3cbf4a0ab98a02ba45b3ec>@@@@YAHH$$QAV<lambda_2fe9b910cf3cbf4a0ab98a02ba45b3ec>@@@Z 1001c3db f i libucrt:close.obj
 0001:0001b403       __close                    1001c403 f   libucrt:close.obj
 0001:0001b482       __close_nolock             1001c482 f   libucrt:close.obj
 0001:0001b51e       ?__acrt_stdio_free_stream@@YAXV__crt_stdio_stream@@@Z 1001c51e f   libucrt:stream.obj
 0001:0001b560       ___ascii_strnicmp          1001c560 f   libucrt:_strnicm.obj
 0001:0001b5c1       __clrfp                    1001c5c1 f   libucrt:fpctrl.obj
 0001:0001b5d4       __ctrlfp                   1001c5d4 f   libucrt:fpctrl.obj
 0001:0001b600       __set_statfp               1001c600 f   libucrt:fpctrl.obj
 0001:0001b65b       __statfp                   1001c65b f   libucrt:fpctrl.obj
 0001:0001b66d       __d_inttype                1001c66d f   libucrt:powhlp.obj
 0001:0001b6d7       __powhlp                   1001c6d7 f   libucrt:powhlp.obj
 0001:0001b802       __87except                 1001c802 f   libucrt:87except.obj
 0001:0001b90d       __frnd                     1001c90d f   libucrt:frnd.obj
 0001:0001b923       __errcode                  1001c923 f   libucrt:fpexcept.obj
 0001:0001b957       __except1                  1001c957 f   libucrt:fpexcept.obj
 0001:0001ba25       __handle_exc               1001ca25 f   libucrt:fpexcept.obj
 0001:0001bc05       __raise_exc                1001cc05 f   libucrt:fpexcept.obj
 0001:0001bc28       __raise_exc_ex             1001cc28 f   libucrt:fpexcept.obj
 0001:0001bf19       __set_errno_from_matherr   1001cf19 f   libucrt:fpexcept.obj
 0001:0001bf48       __umatherr                 1001cf48 f   libucrt:fpexcept.obj
 0001:0001bfea       __decomp                   1001cfea f   libucrt:util.obj
 0001:0001c0be       __set_exp                  1001d0be f   libucrt:util.obj
 0001:0001c0ed       __sptype                   1001d0ed f   libucrt:util.obj
 0001:0001c14b       ___dcrt_lowio_initialize_console_output 1001d14b f   libucrt:initcon.obj
 0001:0001c16a       ___dcrt_terminate_console_output 1001d16a f   libucrt:initcon.obj
 0001:0001c181       __fpclass                  1001d181 f   libucrt:ieeemisc.obj
 0001:0001c225       _IsProcessorFeaturePresent@4 1001d225 f   kernel32:KERNEL32.dll
 0001:0001c230       __FindPESection            1001d230 f   LIBCMT:pesect.obj
 0001:0001c280       __IsNonwritableInCurrentImage 1001d280 f   LIBCMT:pesect.obj
 0001:0001c340       __ValidateImageBase        1001d340 f   LIBCMT:pesect.obj
 0001:0001c373       __EH_prolog3_catch         1001d373 f   LIBCMT:ehprolg3.obj
 0001:0001c3b0       __aulldvrm                 1001d3b0 f   LIBCMT:ulldvrm.obj
 0001:0001c450       __allmul                   1001d450 f   LIBCMT:llmul.obj
 0001:0001c490       __alldvrm                  1001d490 f   LIBCMT:lldvrm.obj
 0001:0001c570       __aullshr                  1001d570 f   LIBCMT:ullshr.obj
 0001:0001c590       __allshl                   1001d590 f   LIBCMT:llshl.obj
 0001:0001c5b0       __ftol2_sse                1001d5b0 f   LIBCMT:ftol2.obj
 0001:0001c5b9       __ftol2_pentium4           1001d5b9 f   LIBCMT:ftol2.obj
 0001:0001c5cc       __ftol2_sse_excpt          1001d5cc f   LIBCMT:ftol2.obj
 0001:0001c5f0       __ftol2                    1001d5f0 f   LIBCMT:ftol2.obj
 0001:0001c670       _strrchr                   1001d670 f   libvcruntime:strrchr.obj
 0001:0001c7b0       _strchr                    1001d7b0 f   libvcruntime:strchr.obj
 0001:0001c81e       ___from_strstr_to_strchr   1001d81e     libvcruntime:strchr.obj
 0002:00000000       __imp__RegQueryValueExW@24 1001e000     advapi32:ADVAPI32.dll
 0002:00000004       __imp__RegSetValueExW@24   1001e004     advapi32:ADVAPI32.dll
 0002:00000008       __imp__RegQueryInfoKeyW@48 1001e008     advapi32:ADVAPI32.dll
 0002:0000000c       __imp__RegOpenKeyExW@20    1001e00c     advapi32:ADVAPI32.dll
 0002:00000010       __imp__RegEnumKeyExW@32    1001e010     advapi32:ADVAPI32.dll
 0002:00000014       __imp__RegDeleteValueW@8   1001e014     advapi32:ADVAPI32.dll
 0002:00000018       __imp__RegDeleteKeyW@8     1001e018     advapi32:ADVAPI32.dll
 0002:0000001c       __imp__RegCreateKeyExW@36  1001e01c     advapi32:ADVAPI32.dll
 0002:00000020       __imp__RegCloseKey@4       1001e020     advapi32:ADVAPI32.dll
 0002:00000024       \177ADVAPI32_NULL_THUNK_DATA 1001e024     advapi32:ADVAPI32.dll
 0002:00000028       __imp__GetObjectW@12       1001e028     gdi32:GDI32.dll
 0002:0000002c       __imp__SelectObject@8      1001e02c     gdi32:GDI32.dll
 0002:00000030       __imp__DeleteObject@4      1001e030     gdi32:GDI32.dll
 0002:00000034       __imp__CreateCompatibleDC@4 1001e034     gdi32:GDI32.dll
 0002:00000038       __imp__BitBlt@36           1001e038     gdi32:GDI32.dll
 0002:0000003c       __imp__SetWindowOrgEx@16   1001e03c     gdi32:GDI32.dll
 0002:00000040       __imp__SetWindowExtEx@16   1001e040     gdi32:GDI32.dll
 0002:00000044       __imp__SetViewportOrgEx@16 1001e044     gdi32:GDI32.dll
 0002:00000048       __imp__LPtoDP@12           1001e048     gdi32:GDI32.dll
 0002:0000004c       __imp__SetMapMode@8        1001e04c     gdi32:GDI32.dll
 0002:00000050       __imp__SaveDC@4            1001e050     gdi32:GDI32.dll
 0002:00000054       __imp__RestoreDC@8         1001e054     gdi32:GDI32.dll
 0002:00000058       __imp__GetDeviceCaps@8     1001e058     gdi32:GDI32.dll
 0002:0000005c       __imp__DeleteMetaFile@4    1001e05c     gdi32:GDI32.dll
 0002:00000060       __imp__DeleteDC@4          1001e060     gdi32:GDI32.dll
 0002:00000064       __imp__CreateRectRgnIndirect@4 1001e064     gdi32:GDI32.dll
 0002:00000068       __imp__CreateMetaFileW@4   1001e068     gdi32:GDI32.dll
 0002:0000006c       __imp__CreateDCW@16        1001e06c     gdi32:GDI32.dll
 0002:00000070       __imp__CloseMetaFile@4     1001e070     gdi32:GDI32.dll
 0002:00000074       \177GDI32_NULL_THUNK_DATA  1001e074     gdi32:GDI32.dll
 0002:00000078       __imp__CloseHandle@4       1001e078     kernel32:KERNEL32.dll
 0002:0000007c       __imp__SetEvent@4          1001e07c     kernel32:KERNEL32.dll
 0002:00000080       __imp__CreateMutexW@12     1001e080     kernel32:KERNEL32.dll
 0002:00000084       __imp__CreateEventW@16     1001e084     kernel32:KERNEL32.dll
 0002:00000088       __imp__GetCurrentProcessId@0 1001e088     kernel32:KERNEL32.dll
 0002:0000008c       __imp__WriteConsoleW@20    1001e08c     kernel32:KERNEL32.dll
 0002:00000090       __imp__FlushFileBuffers@4  1001e090     kernel32:KERNEL32.dll
 0002:00000094       __imp__SetFilePointerEx@20 1001e094     kernel32:KERNEL32.dll
 0002:00000098       __imp__GetConsoleMode@8    1001e098     kernel32:KERNEL32.dll
 0002:0000009c       __imp__GetConsoleCP@0      1001e09c     kernel32:KERNEL32.dll
 0002:000000a0       __imp__WriteFile@20        1001e0a0     kernel32:KERNEL32.dll
 0002:000000a4       __imp__SetStdHandle@8      1001e0a4     kernel32:KERNEL32.dll
 0002:000000a8       __imp__GetStringTypeW@16   1001e0a8     kernel32:KERNEL32.dll
 0002:000000ac       __imp__FreeEnvironmentStringsW@4 1001e0ac     kernel32:KERNEL32.dll
 0002:000000b0       __imp__GetEnvironmentStringsW@0 1001e0b0     kernel32:KERNEL32.dll
 0002:000000b4       __imp__FindResourceW@12    1001e0b4     kernel32:KERNEL32.dll
 0002:000000b8       __imp__GetCommandLineA@0   1001e0b8     kernel32:KERNEL32.dll
 0002:000000bc       __imp__GetCPInfo@8         1001e0bc     kernel32:KERNEL32.dll
 0002:000000c0       __imp__GetOEMCP@0          1001e0c0     kernel32:KERNEL32.dll
 0002:000000c4       __imp__IsValidCodePage@4   1001e0c4     kernel32:KERNEL32.dll
 0002:000000c8       __imp__FindNextFileA@8     1001e0c8     kernel32:KERNEL32.dll
 0002:000000cc       __imp__FindFirstFileExA@24 1001e0cc     kernel32:KERNEL32.dll
 0002:000000d0       __imp__FindClose@4         1001e0d0     kernel32:KERNEL32.dll
 0002:000000d4       __imp__GetFileType@4       1001e0d4     kernel32:KERNEL32.dll
 0002:000000d8       __imp__GetStdHandle@4      1001e0d8     kernel32:KERNEL32.dll
 0002:000000dc       __imp__GetACP@0            1001e0dc     kernel32:KERNEL32.dll
 0002:000000e0       __imp__LCMapStringW@24     1001e0e0     kernel32:KERNEL32.dll
 0002:000000e4       __imp__HeapReAlloc@16      1001e0e4     kernel32:KERNEL32.dll
 0002:000000e8       __imp__lstrcmpiW@8         1001e0e8     kernel32:KERNEL32.dll
 0002:000000ec       __imp__MulDiv@12           1001e0ec     kernel32:KERNEL32.dll
 0002:000000f0       __imp__GlobalUnlock@4      1001e0f0     kernel32:KERNEL32.dll
 0002:000000f4       __imp__GlobalLock@4        1001e0f4     kernel32:KERNEL32.dll
 0002:000000f8       __imp__GlobalAlloc@8       1001e0f8     kernel32:KERNEL32.dll
 0002:000000fc       __imp__SizeofResource@8    1001e0fc     kernel32:KERNEL32.dll
 0002:00000100       __imp__LoadResource@8      1001e100     kernel32:KERNEL32.dll
 0002:00000104       __imp__LoadLibraryExW@12   1001e104     kernel32:KERNEL32.dll
 0002:00000108       __imp__GetProcAddress@8    1001e108     kernel32:KERNEL32.dll
 0002:0000010c       __imp__GetModuleHandleW@4  1001e10c     kernel32:KERNEL32.dll
 0002:00000110       __imp__GetModuleFileNameW@12 1001e110     kernel32:KERNEL32.dll
 0002:00000114       __imp__FreeLibrary@4       1001e114     kernel32:KERNEL32.dll
 0002:00000118       __imp__DisableThreadLibraryCalls@4 1001e118     kernel32:KERNEL32.dll
 0002:0000011c       __imp__GetCurrentThreadId@0 1001e11c     kernel32:KERNEL32.dll
 0002:00000120       __imp__Sleep@4             1001e120     kernel32:KERNEL32.dll
 0002:00000124       __imp__WaitForSingleObject@8 1001e124     kernel32:KERNEL32.dll
 0002:00000128       __imp__ReleaseMutex@4      1001e128     kernel32:KERNEL32.dll
 0002:0000012c       __imp__ResetEvent@4        1001e12c     kernel32:KERNEL32.dll
 0002:00000130       __imp__EnterCriticalSection@4 1001e130     kernel32:KERNEL32.dll
 0002:00000134       __imp__LeaveCriticalSection@4 1001e134     kernel32:KERNEL32.dll
 0002:00000138       __imp__SetLastError@4      1001e138     kernel32:KERNEL32.dll
 0002:0000013c       __imp__EncodePointer@4     1001e13c     kernel32:KERNEL32.dll
 0002:00000140       __imp__DeleteCriticalSection@4 1001e140     kernel32:KERNEL32.dll
 0002:00000144       __imp__InitializeCriticalSectionEx@12 1001e144     kernel32:KERNEL32.dll
 0002:00000148       __imp__GetLastError@0      1001e148     kernel32:KERNEL32.dll
 0002:0000014c       __imp__RaiseException@16   1001e14c     kernel32:KERNEL32.dll
 0002:00000150       __imp__DecodePointer@4     1001e150     kernel32:KERNEL32.dll
 0002:00000154       __imp__WideCharToMultiByte@32 1001e154     kernel32:KERNEL32.dll
 0002:00000158       __imp__GetCommandLineW@0   1001e158     kernel32:KERNEL32.dll
 0002:0000015c       __imp__MultiByteToWideChar@24 1001e15c     kernel32:KERNEL32.dll
 0002:00000160       __imp__HeapSize@12         1001e160     kernel32:KERNEL32.dll
 0002:00000164       __imp__CreateFileW@28      1001e164     kernel32:KERNEL32.dll
 0002:00000168       __imp__GetModuleFileNameA@12 1001e168     kernel32:KERNEL32.dll
 0002:0000016c       __imp__GetModuleHandleExW@12 1001e16c     kernel32:KERNEL32.dll
 0002:00000170       __imp__ExitProcess@4       1001e170     kernel32:KERNEL32.dll
 0002:00000174       __imp__VirtualQuery@12     1001e174     kernel32:KERNEL32.dll
 0002:00000178       __imp__VirtualProtect@16   1001e178     kernel32:KERNEL32.dll
 0002:0000017c       __imp__GetSystemInfo@4     1001e17c     kernel32:KERNEL32.dll
 0002:00000180       __imp__TlsFree@4           1001e180     kernel32:KERNEL32.dll
 0002:00000184       __imp__TlsSetValue@8       1001e184     kernel32:KERNEL32.dll
 0002:00000188       __imp__TlsGetValue@4       1001e188     kernel32:KERNEL32.dll
 0002:0000018c       __imp__TlsAlloc@0          1001e18c     kernel32:KERNEL32.dll
 0002:00000190       __imp__InterlockedFlushSList@4 1001e190     kernel32:KERNEL32.dll
 0002:00000194       __imp__RtlUnwind@16        1001e194     kernel32:KERNEL32.dll
 0002:00000198       __imp__LoadLibraryExA@12   1001e198     kernel32:KERNEL32.dll
 0002:0000019c       __imp__VirtualFree@12      1001e19c     kernel32:KERNEL32.dll
 0002:000001a0       __imp__VirtualAlloc@16     1001e1a0     kernel32:KERNEL32.dll
 0002:000001a4       __imp__FlushInstructionCache@12 1001e1a4     kernel32:KERNEL32.dll
 0002:000001a8       __imp__InterlockedPushEntrySList@8 1001e1a8     kernel32:KERNEL32.dll
 0002:000001ac       __imp__InterlockedPopEntrySList@4 1001e1ac     kernel32:KERNEL32.dll
 0002:000001b0       __imp__GetProcessHeap@0    1001e1b0     kernel32:KERNEL32.dll
 0002:000001b4       __imp__HeapFree@12         1001e1b4     kernel32:KERNEL32.dll
 0002:000001b8       __imp__HeapAlloc@12        1001e1b8     kernel32:KERNEL32.dll
 0002:000001bc       __imp__OutputDebugStringW@4 1001e1bc     kernel32:KERNEL32.dll
 0002:000001c0       __imp__InitializeSListHead@4 1001e1c0     kernel32:KERNEL32.dll
 0002:000001c4       __imp__GetSystemTimeAsFileTime@4 1001e1c4     kernel32:KERNEL32.dll
 0002:000001c8       __imp__QueryPerformanceCounter@4 1001e1c8     kernel32:KERNEL32.dll
 0002:000001cc       __imp__GetStartupInfoW@4   1001e1cc     kernel32:KERNEL32.dll
 0002:000001d0       __imp__IsDebuggerPresent@0 1001e1d0     kernel32:KERNEL32.dll
 0002:000001d4       __imp__IsProcessorFeaturePresent@4 1001e1d4     kernel32:KERNEL32.dll
 0002:000001d8       __imp__TerminateProcess@8  1001e1d8     kernel32:KERNEL32.dll
 0002:000001dc       __imp__InitializeCriticalSectionAndSpinCount@8 1001e1dc     kernel32:KERNEL32.dll
 0002:000001e0       __imp__WaitForSingleObjectEx@12 1001e1e0     kernel32:KERNEL32.dll
 0002:000001e4       __imp__UnhandledExceptionFilter@4 1001e1e4     kernel32:KERNEL32.dll
 0002:000001e8       __imp__SetUnhandledExceptionFilter@4 1001e1e8     kernel32:KERNEL32.dll
 0002:000001ec       __imp__GetCurrentProcess@0 1001e1ec     kernel32:KERNEL32.dll
 0002:000001f0       \177KERNEL32_NULL_THUNK_DATA 1001e1f0     kernel32:KERNEL32.dll
 0002:000001f4       __imp__OleCreatePropertyFrame@44 1001e1f4     oleaut32:OLEAUT32.dll
 0002:000001f8       __imp__UnRegisterTypeLib@20 1001e1f8     oleaut32:OLEAUT32.dll
 0002:000001fc       __imp__RegisterTypeLib@12  1001e1fc     oleaut32:OLEAUT32.dll
 0002:00000200       __imp__LoadRegTypeLib@20   1001e200     oleaut32:OLEAUT32.dll
 0002:00000204       __imp__LoadTypeLib@8       1001e204     oleaut32:OLEAUT32.dll
 0002:00000208       __imp__VarUI4FromStr@16    1001e208     oleaut32:OLEAUT32.dll
 0002:0000020c       __imp__VariantInit@4       1001e20c     oleaut32:OLEAUT32.dll
 0002:00000210       __imp__SysAllocStringByteLen@8 1001e210     oleaut32:OLEAUT32.dll
 0002:00000214       __imp__SysStringByteLen@4  1001e214     oleaut32:OLEAUT32.dll
 0002:00000218       __imp__VariantChangeType@16 1001e218     oleaut32:OLEAUT32.dll
 0002:0000021c       __imp__VariantClear@4      1001e21c     oleaut32:OLEAUT32.dll
 0002:00000220       __imp__SysStringLen@4      1001e220     oleaut32:OLEAUT32.dll
 0002:00000224       __imp__SysFreeString@4     1001e224     oleaut32:OLEAUT32.dll
 0002:00000228       __imp__SysAllocStringLen@8 1001e228     oleaut32:OLEAUT32.dll
 0002:0000022c       __imp__SysAllocString@4    1001e22c     oleaut32:OLEAUT32.dll
 0002:00000230       \177OLEAUT32_NULL_THUNK_DATA 1001e230     oleaut32:OLEAUT32.dll
 0002:00000234       __imp__UnregisterClassW@8  1001e234     user32:USER32.dll
 0002:00000238       __imp__PostMessageW@16     1001e238     user32:USER32.dll
 0002:0000023c       __imp__DefWindowProcW@16   1001e23c     user32:USER32.dll
 0002:00000240       __imp__CallWindowProcW@20  1001e240     user32:USER32.dll
 0002:00000244       __imp__RegisterClassExW@4  1001e244     user32:USER32.dll
 0002:00000248       __imp__GetClassInfoExW@12  1001e248     user32:USER32.dll
 0002:0000024c       __imp__CreateWindowExW@48  1001e24c     user32:USER32.dll
 0002:00000250       __imp__IsWindow@4          1001e250     user32:USER32.dll
 0002:00000254       __imp__IsChild@8           1001e254     user32:USER32.dll
 0002:00000258       __imp__DestroyWindow@4     1001e258     user32:USER32.dll
 0002:0000025c       __imp__ShowWindow@8        1001e25c     user32:USER32.dll
 0002:00000260       __imp__SetWindowPos@28     1001e260     user32:USER32.dll
 0002:00000264       __imp__CharNextW@4         1001e264     user32:USER32.dll
 0002:00000268       __imp__SetFocus@4          1001e268     user32:USER32.dll
 0002:0000026c       __imp__LoadBitmapW@8       1001e26c     user32:USER32.dll
 0002:00000270       __imp__RegisterClassW@4    1001e270     user32:USER32.dll
 0002:00000274       __imp__PeekMessageW@20     1001e274     user32:USER32.dll
 0002:00000278       __imp__LoadCursorW@8       1001e278     user32:USER32.dll
 0002:0000027c       __imp__GetParent@4         1001e27c     user32:USER32.dll
 0002:00000280       __imp__SetWindowLongW@12   1001e280     user32:USER32.dll
 0002:00000284       __imp__GetWindowLongW@8    1001e284     user32:USER32.dll
 0002:00000288       __imp__PtInRect@12         1001e288     user32:USER32.dll
 0002:0000028c       __imp__EqualRect@8         1001e28c     user32:USER32.dll
 0002:00000290       __imp__OffsetRect@12       1001e290     user32:USER32.dll
 0002:00000294       __imp__UnionRect@12        1001e294     user32:USER32.dll
 0002:00000298       __imp__IntersectRect@12    1001e298     user32:USER32.dll
 0002:0000029c       __imp__GetClientRect@8     1001e29c     user32:USER32.dll
 0002:000002a0       __imp__InvalidateRect@12   1001e2a0     user32:USER32.dll
 0002:000002a4       __imp__SetWindowRgn@12     1001e2a4     user32:USER32.dll
 0002:000002a8       __imp__EndPaint@8          1001e2a8     user32:USER32.dll
 0002:000002ac       __imp__BeginPaint@8        1001e2ac     user32:USER32.dll
 0002:000002b0       __imp__ReleaseDC@8         1001e2b0     user32:USER32.dll
 0002:000002b4       __imp__GetDC@4             1001e2b4     user32:USER32.dll
 0002:000002b8       __imp__GetKeyState@4       1001e2b8     user32:USER32.dll
 0002:000002bc       __imp__GetFocus@0          1001e2bc     user32:USER32.dll
 0002:000002c0       \177USER32_NULL_THUNK_DATA 1001e2c0     user32:USER32.dll
 0002:000002c4       __imp__CoCreateInstance@20 1001e2c4     ole32:ole32.dll
 0002:000002c8       __imp__StringFromGUID2@12  1001e2c8     ole32:ole32.dll
 0002:000002cc       __imp__CoTaskMemRealloc@8  1001e2cc     ole32:ole32.dll
 0002:000002d0       __imp__CoTaskMemFree@4     1001e2d0     ole32:ole32.dll
 0002:000002d4       __imp__CreateDataAdviseHolder@4 1001e2d4     ole32:ole32.dll
 0002:000002d8       __imp__ReadClassStm@8      1001e2d8     ole32:ole32.dll
 0002:000002dc       __imp__WriteClassStm@8     1001e2dc     ole32:ole32.dll
 0002:000002e0       __imp__OleSaveToStream@8   1001e2e0     ole32:ole32.dll
 0002:000002e4       __imp__CreateOleAdviseHolder@4 1001e2e4     ole32:ole32.dll
 0002:000002e8       __imp__OleRegGetUserType@12 1001e2e8     ole32:ole32.dll
 0002:000002ec       __imp__OleRegGetMiscStatus@12 1001e2ec     ole32:ole32.dll
 0002:000002f0       __imp__OleRegEnumVerbs@8   1001e2f0     ole32:ole32.dll
 0002:000002f4       __imp__CLSIDFromProgID@8   1001e2f4     ole32:ole32.dll
 0002:000002f8       __imp__CoTaskMemAlloc@4    1001e2f8     ole32:ole32.dll
 0002:000002fc       \177ole32_NULL_THUNK_DATA  1001e2fc     ole32:ole32.dll
 0002:00000300       ___guard_check_icall_fptr  1001e300     LIBCMT:guard_support.obj
 0002:00000304       ___xc_a                    1001e304     LIBCMT:initializers.obj
 0002:0000031c       ___xc_z                    1001e31c     LIBCMT:initializers.obj
 0002:00000320       ___xi_a                    1001e320     LIBCMT:initializers.obj
 0002:00000328       ___acrt_stdio_initializer  1001e328     libucrt:stdio_initializer.obj
 0002:0000032c       ___acrt_multibyte_initializer 1001e32c     libucrt:multibyte_initializer.obj
 0002:00000330       ___acrt_tran_sse2_initializer 1001e330     libucrt:sse2_initializer.obj
 0002:00000334       ___xi_z                    1001e334     LIBCMT:initializers.obj
 0002:00000338       ___xl_a                    1001e338     LIBCMT:tlssup.obj
 0002:0000033c       ___xl_z                    1001e33c     LIBCMT:tlssup.obj
 0002:00000340       ___xp_a                    1001e340     LIBCMT:initializers.obj
 0002:00000344       ___acrt_locale_terminator  1001e344     libucrt:locale_initializer.obj
 0002:00000348       ___dcrt_console_output_terminator 1001e348     libucrt:console_output_initializer.obj
 0002:0000034c       ___acrt_stdio_terminator   1001e34c     libucrt:stdio_initializer.obj
 0002:00000350       ___xp_z                    1001e350     LIBCMT:initializers.obj
 0002:00000354       ___xt_a                    1001e354     LIBCMT:initializers.obj
 0002:00000358       ___xt_z                    1001e358     LIBCMT:initializers.obj
 0002:00000360       ??_C@_13HADIAKP@?$AAS@     1001e360     OposVariant.obj
 0002:00000364       ??_C@_13LHMFKAAD@?$AAM@    1001e364     OposVariant.obj
 0002:00000368       ??_C@_13MKMNOPIJ@?$AAD@    1001e368     OposVariant.obj
 0002:0000036c       ??_C@_13OPKGLAFF@?$AAB@    1001e36c     OposVariant.obj
 0002:00000370       ??_C@_17LLMMEOJD@?$AAV?$AAa?$AAl@ 1001e370     OposVariant.obj
 0002:00000378       ??_C@_1BI@JFAIJMHL@?$AAF?$AAo?$AAr?$AAc?$AAe?$AAR?$AAe?$AAm?$AAo?$AAv?$AAe@ 1001e378     OposVariant.obj
 0002:00000390       ??_C@_1BC@GCKHIPE@?$AAN?$AAo?$AAR?$AAe?$AAm?$AAo?$AAv?$AAe@ 1001e390     OposVariant.obj
 0002:000003a4       ??_C@_1O@JDLOHAN@?$AAD?$AAe?$AAl?$AAe?$AAt?$AAe@ 1001e3a4     OposVariant.obj
 0002:000003b4       ??_C@_11LOCGONAA@@         1001e3b4     OposVariant.obj
 0002:000003b8       __GUID_b196b284_bab4_101a_b69c_00aa00341d07 1001e3b8     CashDrawer.obj
 0002:000003c8       __GUID_00000113_0000_0000_c000_000000000046 1001e3c8     CashDrawer.obj
 0002:000003d8       __GUID_1c2056cc_5ef4_101b_8bc8_00aa003e3b29 1001e3d8     CashDrawer.obj
 0002:000003e8       ??_7?$CComObjectCached@VCComClassFactory@ATL@@@ATL@@6B@ 1001e3e8     CashDrawer.obj
 0002:00000400       __GUID_00000112_0000_0000_c000_000000000046 1001e400     CashDrawer.obj
 0002:00000410       __GUID_3af24292_0c96_11ce_a0cf_00aa00600ab8 1001e410     CashDrawer.obj
 0002:00000420       __GUID_00000127_0000_0000_c000_000000000046 1001e420     CashDrawer.obj
 0002:00000430       __GUID_0000010d_0000_0000_c000_000000000046 1001e430     CashDrawer.obj
 0002:00000440       ??_C@_1M@PPPPCDEP@?$AAA?$AAP?$AAP?$AAI?$AAD@ 1001e440     CashDrawer.obj
 0002:0000044c       ??_7?$CComContainedObject@VCOPOSCashDrawer@@@ATL@@6B?$IDispatchImpl@UIOPOSCashDrawer@@$1?IID_IOPOSCashDrawer@@3U_GUID@@B$1?LIBID_OposCashDrawer_CCO@@3U3@B$00$0A@VCComTypeInfoHolder@ATL@@@1@@ 1001e44c     CashDrawer.obj
 0002:00000528       ??_7?$CComContainedObject@VCOPOSCashDrawer@@@ATL@@6BCComControlBase@1@@ 1001e528     CashDrawer.obj
 0002:0000053c       ??_7?$CComContainedObject@VCOPOSCashDrawer@@@ATL@@6B?$CWindowImpl@VCOPOSCashDrawer@@VCWindow@ATL@@V?$CWinTraits@$0FGAAAAAA@$0A@@3@@1@@ 1001e53c     CashDrawer.obj
 0002:0000054c       ??_7?$CComContainedObject@VCOPOSCashDrawer@@@ATL@@6B?$IPersistStreamInitImpl@VCOPOSCashDrawer@@@1@@ 1001e54c     CashDrawer.obj
 0002:00000570       ??_7?$CComContainedObject@VCOPOSCashDrawer@@@ATL@@6B?$IOleControlImpl@VCOPOSCashDrawer@@@1@@ 1001e570     CashDrawer.obj
 0002:0000058c       ??_7?$CComContainedObject@VCOPOSCashDrawer@@@ATL@@6B?$IOleObjectImpl@VCOPOSCashDrawer@@@1@@ 1001e58c     CashDrawer.obj
 0002:000005ec       ??_7?$CComContainedObject@VCOPOSCashDrawer@@@ATL@@6B?$IOleInPlaceActiveObjectImpl@VCOPOSCashDrawer@@@1@@ 1001e5ec     CashDrawer.obj
 0002:00000614       ??_7?$CComContainedObject@VCOPOSCashDrawer@@@ATL@@6B?$IViewObjectExImpl@VCOPOSCashDrawer@@@1@@ 1001e614     CashDrawer.obj
 0002:00000650       ??_7?$CComContainedObject@VCOPOSCashDrawer@@@ATL@@6B?$IOleInPlaceObjectWindowlessImpl@VCOPOSCashDrawer@@@1@@ 1001e650     CashDrawer.obj
 0002:0000067c       ??_7?$CComContainedObject@VCOPOSCashDrawer@@@ATL@@6B?$IConnectionPointContainerImpl@VCOPOSCashDrawer@@@1@@ 1001e67c     CashDrawer.obj
 0002:00000690       ??_7?$CComContainedObject@VCOPOSCashDrawer@@@ATL@@6B?$IPersistStorageImpl@VCOPOSCashDrawer@@@1@@ 1001e690     CashDrawer.obj
 0002:000006b8       ??_7?$CComContainedObject@VCOPOSCashDrawer@@@ATL@@6B?$ISpecifyPropertyPagesImpl@VCOPOSCashDrawer@@@1@@ 1001e6b8     CashDrawer.obj
 0002:000006c8       ??_7?$CComContainedObject@VCOPOSCashDrawer@@@ATL@@6B?$IQuickActivateImpl@VCOPOSCashDrawer@@@1@@ 1001e6c8     CashDrawer.obj
 0002:000006e0       ??_7?$CComContainedObject@VCOPOSCashDrawer@@@ATL@@6B?$IDataObjectImpl@VCOPOSCashDrawer@@@1@@ 1001e6e0     CashDrawer.obj
 0002:00000710       ??_7?$CComContainedObject@VCOPOSCashDrawer@@@ATL@@6B?$IProvideClassInfo2Impl@$1?CLSID_OPOSCashDrawer@@3U_GUID@@B$1?DIID__IOPOSCashDrawerEvents@@3U2@B$1?LIBID_OposCashDrawer_CCO@@3U2@B$00$0A@VCComTypeInfoHolder@ATL@@@1@@ 1001e710     CashDrawer.obj
 0002:00000724       ??_7?$CComContainedObject@VCOPOSCashDrawer@@@ATL@@6B?$IObjectSafetyImpl@VCOPOSCashDrawer@@$02@1@@ 1001e724     CashDrawer.obj
 0002:0000073c       ??_7?$CComContainedObject@VCOPOSCashDrawer@@@ATL@@6B?$IPropertyNotifySinkCP@VCOPOSCashDrawer@@VCComDynamicUnkArray@ATL@@@1@@ 1001e73c     CashDrawer.obj
 0002:0000075c       ??_7?$CComContainedObject@VCOPOSCashDrawer@@@ATL@@6B?$CProxy_IOPOSEvents@VCOPOSCashDrawer@@@@@ 1001e75c     CashDrawer.obj
 0002:0000077c       ??_7?$CComAggObject@VCOPOSCashDrawer@@@ATL@@6B@ 1001e77c     CashDrawer.obj
 0002:0000078c       ??_7?$CComObject@VCOPOSCashDrawer@@@ATL@@6B?$IDispatchImpl@UIOPOSCashDrawer@@$1?IID_IOPOSCashDrawer@@3U_GUID@@B$1?LIBID_OposCashDrawer_CCO@@3U3@B$00$0A@VCComTypeInfoHolder@ATL@@@1@@ 1001e78c     CashDrawer.obj
 0002:00000868       ??_7?$CComObject@VCOPOSCashDrawer@@@ATL@@6BCComControlBase@1@@ 1001e868     CashDrawer.obj
 0002:0000087c       ??_7?$CComObject@VCOPOSCashDrawer@@@ATL@@6B?$CWindowImpl@VCOPOSCashDrawer@@VCWindow@ATL@@V?$CWinTraits@$0FGAAAAAA@$0A@@3@@1@@ 1001e87c     CashDrawer.obj
 0002:0000088c       ??_7?$CComObject@VCOPOSCashDrawer@@@ATL@@6B?$IPersistStreamInitImpl@VCOPOSCashDrawer@@@1@@ 1001e88c     CashDrawer.obj
 0002:000008b0       ??_7?$CComObject@VCOPOSCashDrawer@@@ATL@@6B?$IOleControlImpl@VCOPOSCashDrawer@@@1@@ 1001e8b0     CashDrawer.obj
 0002:000008cc       ??_7?$CComObject@VCOPOSCashDrawer@@@ATL@@6B?$IOleObjectImpl@VCOPOSCashDrawer@@@1@@ 1001e8cc     CashDrawer.obj
 0002:0000092c       ??_7?$CComObject@VCOPOSCashDrawer@@@ATL@@6B?$IOleInPlaceActiveObjectImpl@VCOPOSCashDrawer@@@1@@ 1001e92c     CashDrawer.obj
 0002:00000954       ??_7?$CComObject@VCOPOSCashDrawer@@@ATL@@6B?$IViewObjectExImpl@VCOPOSCashDrawer@@@1@@ 1001e954     CashDrawer.obj
 0002:00000990       ??_7?$CComObject@VCOPOSCashDrawer@@@ATL@@6B?$IOleInPlaceObjectWindowlessImpl@VCOPOSCashDrawer@@@1@@ 1001e990     CashDrawer.obj
 0002:000009bc       ??_7?$CComObject@VCOPOSCashDrawer@@@ATL@@6B?$IConnectionPointContainerImpl@VCOPOSCashDrawer@@@1@@ 1001e9bc     CashDrawer.obj
 0002:000009d0       ??_7?$CComObject@VCOPOSCashDrawer@@@ATL@@6B?$IPersistStorageImpl@VCOPOSCashDrawer@@@1@@ 1001e9d0     CashDrawer.obj
 0002:000009f8       ??_7?$CComObject@VCOPOSCashDrawer@@@ATL@@6B?$ISpecifyPropertyPagesImpl@VCOPOSCashDrawer@@@1@@ 1001e9f8     CashDrawer.obj
 0002:00000a08       ??_7?$CComObject@VCOPOSCashDrawer@@@ATL@@6B?$IQuickActivateImpl@VCOPOSCashDrawer@@@1@@ 1001ea08     CashDrawer.obj
 0002:00000a20       ??_7?$CComObject@VCOPOSCashDrawer@@@ATL@@6B?$IDataObjectImpl@VCOPOSCashDrawer@@@1@@ 1001ea20     CashDrawer.obj
 0002:00000a50       ??_7?$CComObject@VCOPOSCashDrawer@@@ATL@@6B?$IProvideClassInfo2Impl@$1?CLSID_OPOSCashDrawer@@3U_GUID@@B$1?DIID__IOPOSCashDrawerEvents@@3U2@B$1?LIBID_OposCashDrawer_CCO@@3U2@B$00$0A@VCComTypeInfoHolder@ATL@@@1@@ 1001ea50     CashDrawer.obj
 0002:00000a64       ??_7?$CComObject@VCOPOSCashDrawer@@@ATL@@6B?$IObjectSafetyImpl@VCOPOSCashDrawer@@$02@1@@ 1001ea64     CashDrawer.obj
 0002:00000a7c       ??_7?$CComObject@VCOPOSCashDrawer@@@ATL@@6B?$IPropertyNotifySinkCP@VCOPOSCashDrawer@@VCComDynamicUnkArray@ATL@@@1@@ 1001ea7c     CashDrawer.obj
 0002:00000a9c       ??_7?$CComObject@VCOPOSCashDrawer@@@ATL@@6B?$CProxy_IOPOSEvents@VCOPOSCashDrawer@@@@@ 1001ea9c     CashDrawer.obj
 0002:00000abc       ??_C@_1O@GBFKGNEO@?$AAA?$AAT?$AAL?$AA?3?$AA?$CF?$AAp@ 1001eabc     CashDrawer.obj
 0002:00000acc       ??_C@_1BA@PICGEGJB@?$AAD?$AAI?$AAS?$AAP?$AAL?$AAA?$AAY@ 1001eacc     CashDrawer.obj
 0002:00000adc       __GUID_9bfbbc02_eff1_101a_84ed_00aa00341d07 1001eadc     CashDrawer.obj
 0002:00000aec       ?_entries@?1??_GetEntries@?$CComEnum@UIEnumConnectionPoints@@$1?_GUID_b196b285_bab4_101a_b69c_00aa00341d07@@3U__s_GUID@@BPAUIConnectionPoint@@V?$_CopyInterface@UIConnectionPoint@@@ATL@@VCComSingleThreadModel@6@@ATL@@SGPBU_ATL_INTMAP_ENTRY@3@XZ@4QBU43@B 1001eaec     CashDrawer.obj
 0002:00000b04       ??_7CComClassFactory@ATL@@6B@ 1001eb04     CashDrawer.obj
 0002:00000b1c       ?_entries@?1??_GetEntries@CComClassFactory@ATL@@SGPBU_ATL_INTMAP_ENTRY@3@XZ@4QBU43@B 1001eb1c     CashDrawer.obj
 0002:00000b34       __GUID_00000001_0000_0000_c000_000000000046 1001eb34     CashDrawer.obj
 0002:00000b44       __GUID_00020412_0000_0000_c000_000000000046 1001eb44     CashDrawer.obj
 0002:00000b54       __GUID_00020401_0000_0000_c000_000000000046 1001eb54     CashDrawer.obj
 0002:00000b64       ??_7?$CComObject@V?$CComEnum@UIEnumConnections@@$1?_GUID_b196b287_bab4_101a_b69c_00aa00341d07@@3U__s_GUID@@BUtagCONNECTDATA@@V?$_Copy@UtagCONNECTDATA@@@ATL@@VCComSingleThreadModel@6@@ATL@@@ATL@@6B@ 1001eb64     CashDrawer.obj
 0002:00000b84       __GUID_55980ba0_35aa_11cf_b671_00aa004cd6d8 1001eb84     CashDrawer.obj
 0002:00000b94       __GUID_b196b28b_bab4_101a_b69c_00aa00341d07 1001eb94     CashDrawer.obj
 0002:00000ba4       ??_C@_1BK@BIGILECK@?$AAA?$AAd?$AAv?$AAa?$AAp?$AAi?$AA3?$AA2?$AA?4?$AAd?$AAl?$AAl@ 1001eba4     CashDrawer.obj
 0002:00000bc0       ??_C@_0BI@MNCFCPFK@RegCreateKeyTransactedW@ 1001ebc0     CashDrawer.obj
 0002:00000bd8       ?_entries@?1??_GetEntries@?$CComEnum@UIEnumConnections@@$1?_GUID_b196b287_bab4_101a_b69c_00aa00341d07@@3U__s_GUID@@BUtagCONNECTDATA@@V?$_Copy@UtagCONNECTDATA@@@ATL@@VCComSingleThreadModel@6@@ATL@@SGPBU_ATL_INTMAP_ENTRY@3@XZ@4QBU43@B 1001ebd8     CashDrawer.obj
 0002:00000bf0       __GUID_b196b287_bab4_101a_b69c_00aa00341d07 1001ebf0     CashDrawer.obj
 0002:00000c00       __GUID_b196b285_bab4_101a_b69c_00aa00341d07 1001ec00     CashDrawer.obj
 0002:00000c10       __GUID_a6bc3ac0_dbaa_11ce_9de3_00aa004bb851 1001ec10     CashDrawer.obj
 0002:00000c20       __GUID_0000010c_0000_0000_c000_000000000046 1001ec20     CashDrawer.obj
 0002:00000c30       __GUID_00000146_0000_0000_c000_000000000046 1001ec30     CashDrawer.obj
 0002:00000c40       ??_7CComModule@ATL@@6B@    1001ec40     CashDrawer.obj
 0002:00000c68       _IID_IOPOSCashDrawer_1_5   1001ec68     CashDrawer.obj
 0002:00000c78       _IID_IOPOSCashDrawer_1_8   1001ec78     CashDrawer.obj
 0002:00000c88       _IID_IOPOSCashDrawer_1_9   1001ec88     CashDrawer.obj
 0002:00000c98       _IID_IOPOSCashDrawer       1001ec98     CashDrawer.obj
 0002:00000ca8       _LIBID_OposCashDrawer_CCO  1001eca8     CashDrawer.obj
 0002:00000cb8       _DIID__IOPOSCashDrawerEvents 1001ecb8     CashDrawer.obj
 0002:00000cc8       _CLSID_OPOSCashDrawer      1001ecc8     CashDrawer.obj
 0002:00000cd8       __GUID_00000000_0000_0000_c000_000000000046 1001ecd8     CashDrawer.obj
 0002:00000ce8       __GUID_00020400_0000_0000_c000_000000000046 1001ece8     CashDrawer.obj
 0002:00000cf8       __GUID_00000114_0000_0000_c000_000000000046 1001ecf8     CashDrawer.obj
 0002:00000d08       ??_C@_1M@KANJNLFF@?$AAC?$AAL?$AAS?$AAI?$AAD@ 1001ed08     CashDrawer.obj
 0002:00000d14       ??_C@_1M@EJNEECMJ@?$AAA?$AAp?$AAp?$AAI?$AAD@ 1001ed14     CashDrawer.obj
 0002:00000d20       ?rgszNeverDelete@CRegParser@ATL@@1QBQB_WB 1001ed20     CashDrawer.obj
 0002:00000d50       ??_7CRegObject@ATL@@6B@    1001ed50     CashDrawer.obj
 0002:00000d68       ?_entries@?1??_GetEntries@COPOSCashDrawer@@SGPBU_ATL_INTMAP_ENTRY@ATL@@XZ@4QBU34@B 1001ed68     CashDrawer.obj
 0002:00000ea0       ??_C@_1CK@OEKPKBNA@?$AAC?$AAo?$AAm?$AAp?$AAo?$AAn?$AAe?$AAn?$AAt?$AA?5?$AAC?$AAa?$AAt?$AAe?$AAg@ 1001eea0     CashDrawer.obj
 0002:00000ecc       ??_C@_1BC@NKMMNMGL@?$AAF?$AAi?$AAl?$AAe?$AAT?$AAy?$AAp?$AAe@ 1001eecc     CashDrawer.obj
 0002:00000ee0       ??_C@_1BE@EKPAFMCP@?$AAI?$AAn?$AAt?$AAe?$AAr?$AAf?$AAa?$AAc?$AAe@ 1001eee0     CashDrawer.obj
 0002:00000ef4       ??_C@_1BC@MAICEHGI@?$AAH?$AAa?$AAr?$AAd?$AAw?$AAa?$AAr?$AAe@ 1001eef4     CashDrawer.obj
 0002:00000f08       ??_C@_19HLLLM@?$AAM?$AAi?$AAm?$AAe@ 1001ef08     CashDrawer.obj
 0002:00000f14       ??_C@_17OMAOINJK@?$AAS?$AAA?$AAM@ 1001ef14     CashDrawer.obj
 0002:00000f1c       ??_C@_1BC@IBECJAAI@?$AAS?$AAE?$AAC?$AAU?$AAR?$AAI?$AAT?$AAY@ 1001ef1c     CashDrawer.obj
 0002:00000f30       ??_C@_1O@GBFINDKL@?$AAS?$AAY?$AAS?$AAT?$AAE?$AAM@ 1001ef30     CashDrawer.obj
 0002:00000f40       ??_C@_1BC@EAHCMADO@?$AAS?$AAo?$AAf?$AAt?$AAw?$AAa?$AAr?$AAe@ 1001ef40     CashDrawer.obj
 0002:00000f54       ??_C@_1BA@JIHHIEDE@?$AAT?$AAy?$AAp?$AAe?$AAL?$AAi?$AAb@ 1001ef54     CashDrawer.obj
 0002:00000f64       __GUID_cf51ed10_62fe_11cf_bf86_00a0c9034836 1001ef64     CashDrawer.obj
 0002:00000f74       __GUID_0000010a_0000_0000_c000_000000000046 1001ef74     CashDrawer.obj
 0002:00000f84       __GUID_b196b283_bab4_101a_b69c_00aa00341d07 1001ef84     CashDrawer.obj
 0002:00000f98       ?map@?1??HKeyFromString@CRegParser@ATL@@KAPAUHKEY__@@PA_W@Z@4QBUkeymap@?1??123@KAPAU4@0@Z@B 1001ef98     CashDrawer.obj
 0002:00001008       __GUID_cb5bdc81_93c1_11cf_8f20_00805f2cd064 1001f008     CashDrawer.obj
 0002:00001018       ?pPropMap@?1??GetPropertyMap@COPOSCashDrawer@@SAPBUATL_PROPMAP_ENTRY@ATL@@XZ@4QBU34@B 1001f018     CashDrawer.obj
 0002:00001084       ??_C@_17DGDADEHL@?$AA_?$AAc?$AAx@ 1001f084     CashDrawer.obj
 0002:0000108c       ??_C@_17IOIMFDBO@?$AA_?$AAc?$AAy@ 1001f08c     CashDrawer.obj
 0002:00001094       ??_C@_19NCHLBIN@?$AAH?$AAK?$AAC?$AAR@ 1001f094     CashDrawer.obj
 0002:000010a0       ??_C@_19JAPAIJDE@?$AAH?$AAK?$AAC?$AAU@ 1001f0a0     CashDrawer.obj
 0002:000010ac       ??_C@_19PEALEEJB@?$AAH?$AAK?$AAL?$AAM@ 1001f0ac     CashDrawer.obj
 0002:000010b8       ??_C@_17PJOJPMPB@?$AAH?$AAK?$AAU@ 1001f0b8     CashDrawer.obj
 0002:000010c0       ??_C@_19PNBHMJPL@?$AAH?$AAK?$AAP?$AAD@ 1001f0c0     CashDrawer.obj
 0002:000010cc       ??_C@_19GFFAIJHG@?$AAH?$AAK?$AAD?$AAD@ 1001f0cc     CashDrawer.obj
 0002:000010d8       ??_C@_19OFICIBHH@?$AAH?$AAK?$AAC?$AAC@ 1001f0d8     CashDrawer.obj
 0002:000010e4       ??_C@_1CE@PACHPJFI@?$AAH?$AAK?$AAE?$AAY?$AA_?$AAC?$AAL?$AAA?$AAS?$AAS?$AAE?$AAS?$AA_?$AAR?$AAO@ 1001f0e4     CashDrawer.obj
 0002:00001108       ??_C@_1CE@HLHNCBPM@?$AAH?$AAK?$AAE?$AAY?$AA_?$AAC?$AAU?$AAR?$AAR?$AAE?$AAN?$AAT?$AA_?$AAU?$AAS@ 1001f108     CashDrawer.obj
 0002:0000112c       ??_C@_1CG@GFBEANJL@?$AAH?$AAK?$AAE?$AAY?$AA_?$AAL?$AAO?$AAC?$AAA?$AAL?$AA_?$AAM?$AAA?$AAC?$AAH@ 1001f12c     CashDrawer.obj
 0002:00001154       ??_C@_1BG@BGODANIO@?$AAH?$AAK?$AAE?$AAY?$AA_?$AAU?$AAS?$AAE?$AAR?$AAS@ 1001f154     CashDrawer.obj
 0002:0000116c       ??_C@_1CM@KHNNAOIC@?$AAH?$AAK?$AAE?$AAY?$AA_?$AAP?$AAE?$AAR?$AAF?$AAO?$AAR?$AAM?$AAA?$AAN?$AAC@ 1001f16c     CashDrawer.obj
 0002:00001198       ??_C@_1BM@HAGMMHIA@?$AAH?$AAK?$AAE?$AAY?$AA_?$AAD?$AAY?$AAN?$AA_?$AAD?$AAA?$AAT?$AAA@ 1001f198     CashDrawer.obj
 0002:000011b4       ??_C@_1CI@BBJOACGG@?$AAH?$AAK?$AAE?$AAY?$AA_?$AAC?$AAU?$AAR?$AAR?$AAE?$AAN?$AAT?$AA_?$AAC?$AAO@ 1001f1b4     CashDrawer.obj
 0002:000011dc       __GUID_00000109_0000_0000_c000_000000000046 1001f1dc     CashDrawer.obj
 0002:000011ec       __GUID_7fd52380_4e07_101b_ae2d_08002b2ec713 1001f1ec     CashDrawer.obj
 0002:000011fc       __GUID_b196b286_bab4_101a_b69c_00aa00341d07 1001f1fc     CashDrawer.obj
 0002:0000120c       ??_C@_1CE@PGFMOFKI@?$AAS?$AAt?$AAa?$AAt?$AAu?$AAs?$AAU?$AAp?$AAd?$AAa?$AAt?$AAe?$AAE?$AAv?$AAe@ 1001f20c     CashDrawer.obj
 0002:00001230       ??_C@_1BM@CBGEBBBJ@?$AAD?$AAi?$AAr?$AAe?$AAc?$AAt?$AAI?$AAO?$AAE?$AAv?$AAe?$AAn?$AAt@ 1001f230     CashDrawer.obj
 0002:0000124c       __GUID_922eada0_3424_11cf_b670_00aa004cd6d8 1001f24c     CashDrawer.obj
 0002:0000125c       __GUID_9c2cad80_3424_11cf_b670_00aa004cd6d8 1001f25c     CashDrawer.obj
 0002:0000126c       __GUID_00000119_0000_0000_c000_000000000046 1001f26c     CashDrawer.obj
 0002:0000127c       __GUID_b196b289_bab4_101a_b69c_00aa00341d07 1001f27c     CashDrawer.obj
 0002:00001290       ??_C@_1EA@NHKLICFA@?$AAH?$AAK?$AAC?$AAU?$AA?$AN?$AA?6?$AA?$HL?$AA?7?$AAS?$AAo?$AAf?$AAt?$AAw?$AAa?$AAr@ 1001f290     CashDrawer.obj
 0002:000012d0       ??_C@_1BE@LJOLIMEM@?$AA?$AN?$AA?6?$AA?7?$AA?$HN?$AA?$AN?$AA?6?$AA?$HN?$AA?$AN?$AA?6@ 1001f2d0     CashDrawer.obj
 0002:000012e4       ??_C@_1BC@ENICKDH@?$AAC?$AAo?$AAn?$AAt?$AAe?$AAn?$AAt?$AAs@ 1001f2e4     CashDrawer.obj
 0002:000012f8       __GUID_00000117_0000_0000_c000_000000000046 1001f2f8     CashDrawer.obj
 0002:00001308       ??_C@_1O@MNLDABAF@?$AAM?$AAo?$AAd?$AAu?$AAl?$AAe@ 1001f308     CashDrawer.obj
 0002:00001318       ??_C@_1BG@JBACFMF@?$AAM?$AAo?$AAd?$AAu?$AAl?$AAe?$AA_?$AAR?$AAa?$AAw@ 1001f318     CashDrawer.obj
 0002:00001330       ??_C@_1BC@KAILKFFG@?$AAR?$AAE?$AAG?$AAI?$AAS?$AAT?$AAR?$AAY@ 1001f330     CashDrawer.obj
 0002:00001344       ??_7?$CComObject@V?$CComEnum@UIEnumConnectionPoints@@$1?_GUID_b196b285_bab4_101a_b69c_00aa00341d07@@3U__s_GUID@@BPAUIConnectionPoint@@V?$_CopyInterface@UIConnectionPoint@@@ATL@@VCComSingleThreadModel@6@@ATL@@@ATL@@6B@ 1001f344     CashDrawer.obj
 0002:00001364       __GUID_0000010e_0000_0000_c000_000000000046 1001f364     CashDrawer.obj
 0002:00001374       __GUID_b196b288_bab4_101a_b69c_00aa00341d07 1001f374     CashDrawer.obj
 0002:00001384       ??_C@_0BG@EKFFMJIO@RegOpenKeyTransactedW@ 1001f384     CashDrawer.obj
 0002:0000139c       ??_C@_0BI@HAKLOOGP@RegDeleteKeyTransactedW@ 1001f39c     CashDrawer.obj
 0002:000013b4       ??_C@_0BA@LILAPHGE@RegDeleteKeyExW@ 1001f3b4     CashDrawer.obj
 0002:000013c4       ??_C@_19ILOCMLCJ@?$AA?4?$AAt?$AAl?$AAb@ 1001f3c4     CashDrawer.obj
 0002:000013d0       __GUID_0002e012_0000_0000_c000_000000000046 1001f3d0     CashDrawer.obj
 0002:000013e0       ??_C@_1O@FHBGLCIO@?$AAC?$AAL?$AAS?$AAI?$AAD?$AA?2@ 1001f3e0     CashDrawer.obj
 0002:000013f0       ??_C@_1CK@IFBKBFAA@?$AA?2?$AAR?$AAe?$AAq?$AAu?$AAi?$AAr?$AAe?$AAd?$AA?5?$AAC?$AAa?$AAt?$AAe?$AAg@ 1001f3f0     CashDrawer.obj
 0002:0000141c       ??_C@_1DA@BIHALFED@?$AA?2?$AAI?$AAm?$AAp?$AAl?$AAe?$AAm?$AAe?$AAn?$AAt?$AAe?$AAd?$AA?5?$AAC?$AAa@ 1001f41c     CashDrawer.obj
 0002:0000144c       ??_C@_1BK@EDKOLFBJ@?$AAO?$AAL?$AAE?$AAA?$AAU?$AAT?$AA3?$AA2?$AA?4?$AAD?$AAL?$AAL@ 1001f44c     CashDrawer.obj
 0002:00001468       ??_C@_0BJ@CNLFOMHB@UnRegisterTypeLibForUser@ 1001f468     CashDrawer.obj
 0002:00001484       ??_C@_0BH@LBOMMKPJ@RegisterTypeLibForUser@ 1001f484     CashDrawer.obj
 0002:0000149c       ??_C@_0P@MMNMMLGK@COFreezeEvents@ 1001f49c     CashDrawerImpl.obj
 0002:000014ac       ??_C@_0BC@OGCGGIMP@GetPropertyNumber@ 1001f4ac     CashDrawerImpl.obj
 0002:000014c0       ??_C@_0BC@MDCNODNB@SetPropertyNumber@ 1001f4c0     CashDrawerImpl.obj
 0002:000014d4       ??_C@_0BC@CFCCMIMD@GetPropertyString@ 1001f4d4     CashDrawerImpl.obj
 0002:000014e8       ??_C@_0BC@CJEDNN@SetPropertyString@ 1001f4e8     CashDrawerImpl.obj
 0002:000014fc       ??_C@_0M@LNPKKKDA@OpenService@ 1001f4fc     CashDrawerImpl.obj
 0002:00001508       ??_C@_0M@PCMCHHMH@CheckHealth@ 1001f508     CashDrawerImpl.obj
 0002:00001514       ??_C@_0M@JGMIDNEK@ClaimDevice@ 1001f514     CashDrawerImpl.obj
 0002:00001520       ??_C@_0N@DDFIIBMP@CloseService@ 1001f520     CashDrawerImpl.obj
 0002:00001530       ??_C@_08EEIHICPC@DirectIO@ 1001f530     CashDrawerImpl.obj
 0002:0000153c       ??_C@_0O@BCPMENMJ@ReleaseDevice@ 1001f53c     CashDrawerImpl.obj
 0002:0000154c       ??_C@_0L@DBFHJAH@OpenDrawer@ 1001f54c     CashDrawerImpl.obj
 0002:00001558       ??_C@_0BD@OMLIOAJI@WaitForDrawerClose@ 1001f558     CashDrawerImpl.obj
 0002:0000156c       ??_C@_0BA@GFABKEEE@ResetStatistics@ 1001f56c     CashDrawerImpl.obj
 0002:0000157c       ??_C@_0BD@DPALHJGC@RetrieveStatistics@ 1001f57c     CashDrawerImpl.obj
 0002:00001590       ??_C@_0BB@KOHIKNFC@UpdateStatistics@ 1001f590     CashDrawerImpl.obj
 0002:000015a4       ??_C@_0BH@PBKBNMGB@CompareFirmwareVersion@ 1001f5a4     CashDrawerImpl.obj
 0002:000015bc       ??_C@_0P@FBPDPIPA@UpdateFirmware@ 1001f5bc     CashDrawerImpl.obj
 0002:000015cc       ??_7?$CProxy_IOPOSEvents@VCOPOSCashDrawer@@@@6B@ 1001f5cc     CashDrawerImpl.obj
 0002:000015ec       ??_C@_1BA@IFHENID@?$AA?$FL?$AAE?$AAr?$AAr?$AAo?$AAr?$AA?$FN@ 1001f5ec     CashDrawerImpl.obj
 0002:000015fc       ??_C@_0CN@FIMOCEHP@SOFTWARE?2OLEforRetail?2ServiceOP@ 1001f5fc     CashDrawerImpl.obj
 0002:0000162c       ??_C@_1M@IAIJHCCH@?$AAC?$AAl?$AAo?$AAs?$AAe@ 1001f62c     CashDrawerImpl.obj
 0002:00001638       ??_C@_1M@PCPKGJAH@?$AAC?$AAl?$AAa?$AAi?$AAm@ 1001f638     CashDrawerImpl.obj
 0002:00001644       ??_C@_1BA@NDFKIOCP@?$AAR?$AAe?$AAl?$AAe?$AAa?$AAs?$AAe@ 1001f644     CashDrawerImpl.obj
 0002:00001654       ??_C@_0L@NINGDDGK@CashDrawer@ 1001f654     CashDrawerImpl.obj
 0002:00001660       ??_C@_1BM@IJMNMBPK@?$AAG?$AAe?$AAt?$AAO?$AAp?$AAe?$AAn?$AAR?$AAe?$AAs?$AAu?$AAl?$AAt@ 1001f660     CashDrawerImpl.obj
 0002:0000167c       _IID_IPropertyNotifySink   1001f67c     uuid:ocidl_i.obj
 0002:0000168c       _IID_IDispatch             1001f68c     uuid:oaidl_i.obj
 0002:0000169c       _GUID_NULL                 1001f69c     uuid:cguid_i.obj
 0002:000016ac       _CLSID_StdGlobalInterfaceTable 1001f6ac     uuid:cguid_i.obj
 0002:000016bc       _CLSID_StdComponentCategoriesMgr 1001f6bc     uuid:ieguids.obj
 0002:000016cc       _IID_IUnknown              1001f6cc     uuid:unknwn_i.obj
 0002:000016e0       ??_C@_1EC@JIJBPKFM@?$AAa?$AAp?$AAi?$AA?9?$AAm?$AAs?$AA?9?$AAw?$AAi?$AAn?$AA?9?$AAc?$AAo?$AAr?$AAe@ 1001f6e0     LIBCMT:thread_safe_statics.obj
 0002:00001724       ??_C@_1BK@MGMFAEKH@?$AAk?$AAe?$AAr?$AAn?$AAe?$AAl?$AA3?$AA2?$AA?4?$AAd?$AAl?$AAl@ 1001f724     LIBCMT:thread_safe_statics.obj
 0002:00001740       ??_C@_0BM@HLJJNPAH@InitializeConditionVariable@ 1001f740     LIBCMT:thread_safe_statics.obj
 0002:0000175c       ??_C@_0BJ@JEBJOJFJ@SleepConditionVariableCS@ 1001f75c     LIBCMT:thread_safe_statics.obj
 0002:00001778       ??_C@_0BJ@PGPPEPCC@WakeAllConditionVariable@ 1001f778     LIBCMT:thread_safe_statics.obj
 0002:00001791       ?nothrow@std@@3Unothrow_t@1@B 1001f791     LIBCMT:std_nothrow.obj
 0002:0000179c       __pDefaultRawDllMain       1001f79c     LIBCMT:dll_dllmain.obj
 0002:0000179c       __pRawDllMain              1001f79c     LIBCMT:dll_dllmain.obj
 0002:000017a4       ??_7exception@std@@6B@     1001f7a4     LIBCMT:throw_bad_alloc.obj
 0002:000017ac       ??_C@_0BC@EOODALEL@Unknown?5exception@ 1001f7ac     LIBCMT:throw_bad_alloc.obj
 0002:000017c4       ??_7bad_alloc@std@@6B@     1001f7c4     LIBCMT:throw_bad_alloc.obj
 0002:000017cc       ??_C@_0P@GHFPNOJB@bad?5allocation@ 1001f7cc     LIBCMT:throw_bad_alloc.obj
 0002:000017e0       ??_7bad_array_new_length@std@@6B@ 1001f7e0     LIBCMT:throw_bad_alloc.obj
 0002:000017e8       ??_C@_0BF@KINCDENJ@bad?5array?5new?5length@ 1001f7e8     LIBCMT:throw_bad_alloc.obj
 0002:00001804       ??_7type_info@@6B@         1001f804     LIBCMT:std_type_info_static.obj
 0002:00001808       _GUID_ATLVer110            1001f808     atls:atlbase.obj
 0002:00001818       ??_C@_1IC@ONKHOIDK@?$AAE?$AAR?$AAR?$AAO?$AAR?$AA?5?$AA?3?$AA?5?$AAU?$AAn?$AAa?$AAb?$AAl?$AAe?$AA?5@ 1001f818     atls:atlbase.obj
 0002:0000189c       ??_C@_0N@FJEPLCIH@atlthunk?4dll@ 1001f89c     atls:atlthunk.obj
 0002:000018ac       ??_C@_0BG@GAKFHCBM@AtlThunk_AllocateData@ 1001f8ac     atls:atlthunk.obj
 0002:000018c4       ??_C@_0BC@JKONFIAH@AtlThunk_InitData@ 1001f8c4     atls:atlthunk.obj
 0002:000018d8       ??_C@_0BE@IAOEELAK@AtlThunk_DataToCode@ 1001f8d8     atls:atlthunk.obj
 0002:000018ec       ??_C@_0BC@GBGKAIPI@AtlThunk_FreeData@ 1001f8ec     atls:atlthunk.obj
 0002:0000192c       ??_C@_1DM@KHCHBNEB@?$AAa?$AAp?$AAi?$AA?9?$AAm?$AAs?$AA?9?$AAw?$AAi?$AAn?$AA?9?$AAc?$AAo?$AAr?$AAe@ 1001f92c     libvcruntime:winapi_downlevel.obj
 0002:00001968       ??_C@_1DK@LPPGFMPP@?$AAa?$AAp?$AAi?$AA?9?$AAm?$AAs?$AA?9?$AAw?$AAi?$AAn?$AA?9?$AAc?$AAo?$AAr?$AAe@ 1001f968     libvcruntime:winapi_downlevel.obj
 0002:000019a4       ??_C@_1BC@GDMECMAK@?$AAk?$AAe?$AAr?$AAn?$AAe?$AAl?$AA3?$AA2@ 1001f9a4     libvcruntime:winapi_downlevel.obj
 0002:000019b8       ??_C@_1BA@PFFKHIOG@?$AAa?$AAp?$AAi?$AA?9?$AAm?$AAs?$AA?9@ 1001f9b8     libvcruntime:winapi_downlevel.obj
 0002:000019c8       ??_C@_1BA@IAIFMGEF@?$AAe?$AAx?$AAt?$AA?9?$AAm?$AAs?$AA?9@ 1001f9c8     libvcruntime:winapi_downlevel.obj
 0002:000019e0       ??_C@_08KNHFBNJ@FlsAlloc@  1001f9e0     libvcruntime:winapi_downlevel.obj
 0002:000019f4       ??_C@_07PEJMOBNF@FlsFree@  1001f9f4     libvcruntime:winapi_downlevel.obj
 0002:00001a04       ??_C@_0M@GDNOONDI@FlsGetValue@ 1001fa04     libvcruntime:winapi_downlevel.obj
 0002:00001a18       ??_C@_0M@JCPCPOEF@FlsSetValue@ 1001fa18     libvcruntime:winapi_downlevel.obj
 0002:00001a2c       ??_C@_0BM@HCFOFFN@InitializeCriticalSectionEx@ 1001fa2c     libvcruntime:winapi_downlevel.obj
 0002:00001a4c       ??_7bad_exception@std@@6B@ 1001fa4c     libvcruntime:frame.obj
 0002:00001a54       ??_C@_0O@DPKOEFFH@bad?5exception@ 1001fa54     libvcruntime:frame.obj
 0002:00001c04       ??_C@_08EHJDFFNH@__based?$CI@ 1001fc04     libvcruntime:undname.obj
 0002:00001c10       ??_C@_07KOLFKCDI@__cdecl@  1001fc10     libvcruntime:undname.obj
 0002:00001c18       ??_C@_08GHMPAG@__pascal@   1001fc18     libvcruntime:undname.obj
 0002:00001c24       ??_C@_09IFJBGAPI@__stdcall@ 1001fc24     libvcruntime:undname.obj
 0002:00001c30       ??_C@_0L@NPHFGOKO@__thiscall@ 1001fc30     libvcruntime:undname.obj
 0002:00001c3c       ??_C@_0L@JMKHOMEK@__fastcall@ 1001fc3c     libvcruntime:undname.obj
 0002:00001c48       ??_C@_0N@BCKKPABJ@__vectorcall@ 1001fc48     libvcruntime:undname.obj
 0002:00001c58       ??_C@_09HIJEGCPM@__clrcall@ 1001fc58     libvcruntime:undname.obj
 0002:00001c64       ??_C@_06GHPCKEAG@__eabi@   1001fc64     libvcruntime:undname.obj
 0002:00001c6c       ??_C@_09IOPIDJLG@__swift_1@ 1001fc6c     libvcruntime:undname.obj
 0002:00001c78       ??_C@_09KFNFGKHF@__swift_2@ 1001fc78     libvcruntime:undname.obj
 0002:00001c84       ??_C@_07JOMMBBKO@__ptr64@  1001fc84     libvcruntime:undname.obj
 0002:00001c8c       ??_C@_0L@PILCLIHE@__restrict@ 1001fc8c     libvcruntime:undname.obj
 0002:00001c98       ??_C@_0M@GFIIJFMG@__unaligned@ 1001fc98     libvcruntime:undname.obj
 0002:00001ca4       ??_C@_09DHDLOLLB@restrict?$CI@ 1001fca4     libvcruntime:undname.obj
 0002:00001cae       ??_C@_00CNPNBAHC@@         1001fcae     libvcruntime:undname.obj
 0002:00001cb0       ??_C@_04NIHEBCM@?5new@     1001fcb0     libvcruntime:undname.obj
 0002:00001cb8       ??_C@_07FPCDHGMM@?5delete@ 1001fcb8     libvcruntime:undname.obj
 0002:00001cc0       ??_C@_01NEMOKFLO@?$DN@     1001fcc0     libvcruntime:undname.obj
 0002:00001cc4       ??_C@_02GPIOPFAK@?$DO?$DO@ 1001fcc4     libvcruntime:undname.obj
 0002:00001cc8       ??_C@_02FODMEDOG@?$DM?$DM@ 1001fcc8     libvcruntime:undname.obj
 0002:00001ccc       ??_C@_01DCLJPIOD@?$CB@     1001fccc     libvcruntime:undname.obj
 0002:00001cd0       ??_C@_02EGOFBIJA@?$DN?$DN@ 1001fcd0     libvcruntime:undname.obj
 0002:00001cd4       ??_C@_02FDNJECIE@?$CB?$DN@ 1001fcd4     libvcruntime:undname.obj
 0002:00001cd8       ??_C@_02GPECMEKF@?$FL?$FN@ 1001fcd8     libvcruntime:undname.obj
 0002:00001cdc       ??_C@_08LHJFAFGD@operator@ 1001fcdc     libvcruntime:undname.obj
 0002:00001ce8       ??_C@_02HBOOOICD@?9?$DO@   1001fce8     libvcruntime:undname.obj
 0002:00001cec       ??_C@_01NBENCBCI@?$CK@     1001fcec     libvcruntime:undname.obj
 0002:00001cf0       ??_C@_02ECNGHCIF@?$CL?$CL@ 1001fcf0     libvcruntime:undname.obj
 0002:00001cf4       ??_C@_02BAABKJLB@?9?9@     1001fcf4     libvcruntime:undname.obj
 0002:00001cf8       ??_C@_01JOAMLHOP@?9@       1001fcf8     libvcruntime:undname.obj
 0002:00001cfc       ??_C@_01MIFGBAGJ@?$CL@     1001fcfc     libvcruntime:undname.obj
 0002:00001d00       ??_C@_01HNPIGOCE@?$CG@     1001fd00     libvcruntime:undname.obj
 0002:00001d04       ??_C@_03MNHNFDLC@?9?$DO?$CK@ 1001fd04     libvcruntime:undname.obj
 0002:00001d08       ??_C@_01KMDKNFGN@?1@       1001fd08     libvcruntime:undname.obj
 0002:00001d0c       ??_C@_01FGNFDNOH@?$CF@     1001fd0c     libvcruntime:undname.obj
 0002:00001d10       ??_C@_01MNNFJEPP@?$DM@     1001fd10     libvcruntime:undname.obj
 0002:00001d14       ??_C@_02EHCHHCKH@?$DM?$DN@ 1001fd14     libvcruntime:undname.obj
 0002:00001d18       ??_C@_01PPODPGHN@?$DO@     1001fd18     libvcruntime:undname.obj
 0002:00001d1c       ??_C@_02EEKDKGMJ@?$DO?$DN@ 1001fd1c     libvcruntime:undname.obj
 0002:00001d20       ??_C@_01IHBHIGKO@?0@       1001fd20     libvcruntime:undname.obj
 0002:00001d24       ??_C@_02HCKGKOFO@?$CI?$CJ@ 1001fd24     libvcruntime:undname.obj
 0002:00001d28       ??_C@_01PJKLJHI@?$HO@      1001fd28     libvcruntime:undname.obj
 0002:00001d2c       ??_C@_01JKBOJNNK@?$FO@     1001fd2c     libvcruntime:undname.obj
 0002:00001d30       ??_C@_01DNKMNLPK@?$HM@     1001fd30     libvcruntime:undname.obj
 0002:00001d34       ??_C@_02PPKAJPJL@?$CG?$CG@ 1001fd34     libvcruntime:undname.obj
 0002:00001d38       ??_C@_02NONPIBCD@?$HM?$HM@ 1001fd38     libvcruntime:undname.obj
 0002:00001d3c       ??_C@_02FPIMKNGF@?$CK?$DN@ 1001fd3c     libvcruntime:undname.obj
 0002:00001d40       ??_C@_02FOEOMHFC@?$CL?$DN@ 1001fd40     libvcruntime:undname.obj
 0002:00001d44       ??_C@_02FKMDLLOA@?9?$DN@   1001fd44     libvcruntime:undname.obj
 0002:00001d48       ??_C@_02FJEHGPIO@?1?$DN@   1001fd48     libvcruntime:undname.obj
 0002:00001d4c       ??_C@_02FENAOKFI@?$CF?$DN@ 1001fd4c     libvcruntime:undname.obj
 0002:00001d50       ??_C@_03IKFCCPFF@?$DO?$DO?$DN@ 1001fd50     libvcruntime:undname.obj
 0002:00001d54       ??_C@_03CDNPDDLA@?$DM?$DM?$DN@ 1001fd54     libvcruntime:undname.obj
 0002:00001d58       ??_C@_02FGJGFEAB@?$CG?$DN@ 1001fd58     libvcruntime:undname.obj
 0002:00001d5c       ??_C@_02DHLNPPGH@?$HM?$DN@ 1001fd5c     libvcruntime:undname.obj
 0002:00001d60       ??_C@_02MHEGNOJ@?$FO?$DN@  1001fd60     libvcruntime:undname.obj
 0002:00001d64       ??_C@_09IFPLHPGF@?$GAvftable?8@ 1001fd64     libvcruntime:undname.obj
 0002:00001d70       ??_C@_09BLBHBJP@?$GAvbtable?8@ 1001fd70     libvcruntime:undname.obj
 0002:00001d7c       ??_C@_07FEEIOKP@?$GAvcall?8@ 1001fd7c     libvcruntime:undname.obj
 0002:00001d84       ??_C@_08LLFFHHDJ@?$GAtypeof?8@ 1001fd84     libvcruntime:undname.obj
 0002:00001d90       ??_C@_0BF@KDPPACIK@?$GAlocal?5static?5guard?8@ 1001fd90     libvcruntime:undname.obj
 0002:00001da8       ??_C@_08OBABFOLI@?$GAstring?8@ 1001fda8     libvcruntime:undname.obj
 0002:00001db4       ??_C@_0BD@JDLKDPAB@?$GAvbase?5destructor?8@ 1001fdb4     libvcruntime:undname.obj
 0002:00001dc8       ??_C@_0BN@DEGPLNFK@?$GAvector?5deleting?5destructor?8@ 1001fdc8     libvcruntime:undname.obj
 0002:00001de8       ??_C@_0BO@OBMKPJIG@?$GAdefault?5constructor?5closure?8@ 1001fde8     libvcruntime:undname.obj
 0002:00001e08       ??_C@_0BN@IMDCHIKM@?$GAscalar?5deleting?5destructor?8@ 1001fe08     libvcruntime:undname.obj
 0002:00001e28       ??_C@_0BO@PFGOCPJJ@?$GAvector?5constructor?5iterator?8@ 1001fe28     libvcruntime:undname.obj
 0002:00001e48       ??_C@_0BN@LFPFMEDL@?$GAvector?5destructor?5iterator?8@ 1001fe48     libvcruntime:undname.obj
 0002:00001e68       ??_C@_0CE@IKBNEHA@?$GAvector?5vbase?5constructor?5itera@ 1001fe68     libvcruntime:undname.obj
 0002:00001e8c       ??_C@_0BL@NILFHHPC@?$GAvirtual?5displacement?5map?8@ 1001fe8c     libvcruntime:undname.obj
 0002:00001ea8       ??_C@_0CB@JONCMFFK@?$GAeh?5vector?5constructor?5iterator@ 1001fea8     libvcruntime:undname.obj
 0002:00001ecc       ??_C@_0CA@GCEOPDGL@?$GAeh?5vector?5destructor?5iterator?8@ 1001fecc     libvcruntime:undname.obj
 0002:00001eec       ??_C@_0CH@OOJPLCPH@?$GAeh?5vector?5vbase?5constructor?5it@ 1001feec     libvcruntime:undname.obj
 0002:00001f14       ??_C@_0BL@LLKPOHJI@?$GAcopy?5constructor?5closure?8@ 1001ff14     libvcruntime:undname.obj
 0002:00001f30       ??_C@_0BA@KBCDOMBN@?$GAudt?5returning?8@ 1001ff30     libvcruntime:undname.obj
 0002:00001f40       ??_C@_03KLGMFNMG@?$GAEH@   1001ff40     libvcruntime:undname.obj
 0002:00001f44       ??_C@_05KHLCHHI@?$GARTTI@  1001ff44     libvcruntime:undname.obj
 0002:00001f4c       ??_C@_0BA@KKLDJDLB@?$GAlocal?5vftable?8@ 1001ff4c     libvcruntime:undname.obj
 0002:00001f5c       ??_C@_0CE@IIHCMGGL@?$GAlocal?5vftable?5constructor?5clos@ 1001ff5c     libvcruntime:undname.obj
 0002:00001f80       ??_C@_06FHBGPFGH@?5new?$FL?$FN@ 1001ff80     libvcruntime:undname.obj
 0002:00001f88       ??_C@_09LBNFPBCA@?5delete?$FL?$FN@ 1001ff88     libvcruntime:undname.obj
 0002:00001f94       ??_C@_0P@HJKNJFNN@?$GAomni?5callsig?8@ 1001ff94     libvcruntime:undname.obj
 0002:00001fa4       ??_C@_0BL@CNOONJFP@?$GAplacement?5delete?5closure?8@ 1001ffa4     libvcruntime:undname.obj
 0002:00001fc0       ??_C@_0BN@CKNJLHMB@?$GAplacement?5delete?$FL?$FN?5closure?8@ 1001ffc0     libvcruntime:undname.obj
 0002:00001fe0       ??_C@_0CG@CFDHKGGD@?$GAmanaged?5vector?5constructor?5ite@ 1001ffe0     libvcruntime:undname.obj
 0002:00002008       ??_C@_0CF@IMGKMJNO@?$GAmanaged?5vector?5destructor?5iter@ 10020008     libvcruntime:undname.obj
 0002:00002030       ??_C@_0CG@HLDDJMAG@?$GAeh?5vector?5copy?5constructor?5ite@ 10020030     libvcruntime:undname.obj
 0002:00002058       ??_C@_0CM@FCBBDIGB@?$GAeh?5vector?5vbase?5copy?5construct@ 10020058     libvcruntime:undname.obj
 0002:00002084       ??_C@_0BL@CLIPGLGB@?$GAdynamic?5initializer?5for?5?8@ 10020084     libvcruntime:undname.obj
 0002:000020a0       ??_C@_0CB@PDBIFEP@?$GAdynamic?5atexit?5destructor?5for?5@ 100200a0     libvcruntime:undname.obj
 0002:000020c4       ??_C@_0CD@CGAJBKEJ@?$GAvector?5copy?5constructor?5iterat@ 100200c4     libvcruntime:undname.obj
 0002:000020e8       ??_C@_0CJ@GJELGAMM@?$GAvector?5vbase?5copy?5constructor?5@ 100200e8     libvcruntime:undname.obj
 0002:00002114       ??_C@_0CL@FGIJHLCE@?$GAmanaged?5vector?5copy?5constructo@ 10020114     libvcruntime:undname.obj
 0002:00002140       ??_C@_0BM@PMGGMLDN@?$GAlocal?5static?5thread?5guard?8@ 10020140     libvcruntime:undname.obj
 0002:0000215c       ??_C@_0N@BDNMDMOL@operator?5?$CC?$CC?5@ 1002015c     libvcruntime:undname.obj
 0002:0000216c       ??_C@_0BC@GGEBGALA@operator?5co_await@ 1002016c     libvcruntime:undname.obj
 0002:00002180       ??_C@_0BC@DAFEJGAK@?5Type?5Descriptor?8@ 10020180     libvcruntime:undname.obj
 0002:00002194       ??_C@_0BM@LDKODKLH@?5Base?5Class?5Descriptor?5at?5?$CI@ 10020194     libvcruntime:undname.obj
 0002:000021b0       ??_C@_0BD@LGICGFMM@?5Base?5Class?5Array?8@ 100201b0     libvcruntime:undname.obj
 0002:000021c4       ??_C@_0BN@MECKDCOJ@?5Class?5Hierarchy?5Descriptor?8@ 100201c4     libvcruntime:undname.obj
 0002:000021e4       ??_C@_0BK@CFCOFLF@?5Complete?5Object?5Locator?8@ 100201e4     libvcruntime:undname.obj
 0002:00002200       __pDestructExceptionObject 10020200     libvcruntime:ehhelpers.obj
 0002:00002370       _format_validation_lookup_table 10020370     libucrt:output.obj
 0002:000023cc       ??_C@_06OJHGLDPL@?$CInull?$CJ?$AA@ 100203cc     libucrt:output.obj
 0002:000023d4       ??_C@_1O@CEDCILHN@?$AA?$CI?$AAn?$AAu?$AAl?$AAl?$AA?$CJ?$AA?$AA@ 100203d4     libucrt:output.obj
 0002:000023e8       ___acrt_exception_action_table 100203e8     libucrt:exception_filter.obj
 0002:00002478       ___acrt_signal_action_table_count 10020478     libucrt:exception_filter.obj
 0002:0000247c       ___acrt_signal_action_first_fpe_index 1002047c     libucrt:exception_filter.obj
 0002:00002480       ___acrt_signal_action_fpe_count 10020480     libucrt:exception_filter.obj
 0002:00002484       ??_C@_1BI@BGOHAHKC@?$AAm?$AAs?$AAc?$AAo?$AAr?$AAe?$AAe?$AA?4?$AAd?$AAl?$AAl?$AA?$AA@ 10020484     libucrt:exit.obj
 0002:0000249c       ??_C@_0P@MIGLKIOC@CorExitProcess?$AA@ 1002049c     libucrt:exit.obj
 0002:00002578       ??_C@_1EG@CNNIPFIM@?$AAa?$AAp?$AAi?$AA?9?$AAm?$AAs?$AA?9?$AAw?$AAi?$AAn?$AA?9?$AAa?$AAp?$AAp?$AAm?$AAo?$AAd?$AAe?$AAl?$AA?9?$AAr?$AAu?$AAn?$AAt?$AAi?$AAm?$AAe?$AA?9?$AAl?$AA1?$AA?9?$AA1@ 10020578     libucrt:winapi_thunks.obj
 0002:000025c0       ??_C@_1EA@JGEFHKEI@?$AAa?$AAp?$AAi?$AA?9?$AAm?$AAs?$AA?9?$AAw?$AAi?$AAn?$AA?9?$AAc?$AAo?$AAr?$AAe?$AA?9?$AAd?$AAa?$AAt?$AAe?$AAt?$AAi?$AAm?$AAe?$AA?9?$AAl?$AA1?$AA?9?$AA1?$AA?9?$AA1?$AA?$AA@ 100205c0     libucrt:winapi_thunks.obj
 0002:00002600       ??_C@_1DM@KHCHBNEB@?$AAa?$AAp?$AAi?$AA?9?$AAm?$AAs?$AA?9?$AAw?$AAi?$AAn?$AA?9?$AAc?$AAo?$AAr?$AAe?$AA?9?$AAf?$AAi?$AAb?$AAe?$AAr?$AAs?$AA?9?$AAl?$AA1?$AA?9?$AA1?$AA?9?$AA1?$AA?$AA@ 10020600     libucrt:winapi_thunks.obj
 0002:0000263c       ??_C@_1DI@GCIAAENM@?$AAa?$AAp?$AAi?$AA?9?$AAm?$AAs?$AA?9?$AAw?$AAi?$AAn?$AA?9?$AAc?$AAo?$AAr?$AAe?$AA?9?$AAf?$AAi?$AAl?$AAe?$AA?9?$AAl?$AA2?$AA?9?$AA1?$AA?9?$AA1?$AA?$AA@ 1002063c     libucrt:winapi_thunks.obj
 0002:00002678       ??_C@_1EI@MPIAOHOC@?$AAa?$AAp?$AAi?$AA?9?$AAm?$AAs?$AA?9?$AAw?$AAi?$AAn?$AA?9?$AAc?$AAo?$AAr?$AAe?$AA?9?$AAl?$AAo?$AAc?$AAa?$AAl?$AAi?$AAz?$AAa?$AAt?$AAi?$AAo?$AAn?$AA?9?$AAl?$AA1?$AA?9@ 10020678     libucrt:winapi_thunks.obj
 0002:000026c0       ??_C@_1FK@FPHCKFIE@?$AAa?$AAp?$AAi?$AA?9?$AAm?$AAs?$AA?9?$AAw?$AAi?$AAn?$AA?9?$AAc?$AAo?$AAr?$AAe?$AA?9?$AAl?$AAo?$AAc?$AAa?$AAl?$AAi?$AAz?$AAa?$AAt?$AAi?$AAo?$AAn?$AA?9?$AAo?$AAb?$AAs@ 100206c0     libucrt:winapi_thunks.obj
 0002:00002720       ??_C@_1EM@DILCGIIO@?$AAa?$AAp?$AAi?$AA?9?$AAm?$AAs?$AA?9?$AAw?$AAi?$AAn?$AA?9?$AAc?$AAo?$AAr?$AAe?$AA?9?$AAp?$AAr?$AAo?$AAc?$AAe?$AAs?$AAs?$AAt?$AAh?$AAr?$AAe?$AAa?$AAd?$AAs?$AA?9?$AAl@ 10020720     libucrt:winapi_thunks.obj
 0002:0000276c       ??_C@_1DM@LNCGDDPN@?$AAa?$AAp?$AAi?$AA?9?$AAm?$AAs?$AA?9?$AAw?$AAi?$AAn?$AA?9?$AAc?$AAo?$AAr?$AAe?$AA?9?$AAs?$AAt?$AAr?$AAi?$AAn?$AAg?$AA?9?$AAl?$AA1?$AA?9?$AA1?$AA?9?$AA0?$AA?$AA@ 1002076c     libucrt:winapi_thunks.obj
 0002:000027a8       ??_C@_1DK@LPPGFMPP@?$AAa?$AAp?$AAi?$AA?9?$AAm?$AAs?$AA?9?$AAw?$AAi?$AAn?$AA?9?$AAc?$AAo?$AAr?$AAe?$AA?9?$AAs?$AAy?$AAn?$AAc?$AAh?$AA?9?$AAl?$AA1?$AA?9?$AA2?$AA?9?$AA0?$AA?$AA@ 100207a8     libucrt:winapi_thunks.obj
 0002:000027e4       ??_C@_1DO@FPAPJEMD@?$AAa?$AAp?$AAi?$AA?9?$AAm?$AAs?$AA?9?$AAw?$AAi?$AAn?$AA?9?$AAc?$AAo?$AAr?$AAe?$AA?9?$AAs?$AAy?$AAs?$AAi?$AAn?$AAf?$AAo?$AA?9?$AAl?$AA1?$AA?9?$AA2?$AA?9?$AA1?$AA?$AA@ 100207e4     libucrt:winapi_thunks.obj
 0002:00002824       ??_C@_1DK@NDHNAHIO@?$AAa?$AAp?$AAi?$AA?9?$AAm?$AAs?$AA?9?$AAw?$AAi?$AAn?$AA?9?$AAc?$AAo?$AAr?$AAe?$AA?9?$AAw?$AAi?$AAn?$AAr?$AAt?$AA?9?$AAl?$AA1?$AA?9?$AA1?$AA?9?$AA0?$AA?$AA@ 10020824     libucrt:winapi_thunks.obj
 0002:00002860       ??_C@_1DM@KGHDGBCM@?$AAa?$AAp?$AAi?$AA?9?$AAm?$AAs?$AA?9?$AAw?$AAi?$AAn?$AA?9?$AAc?$AAo?$AAr?$AAe?$AA?9?$AAx?$AAs?$AAt?$AAa?$AAt?$AAe?$AA?9?$AAl?$AA2?$AA?9?$AA1?$AA?9?$AA0?$AA?$AA@ 10020860     libucrt:winapi_thunks.obj
 0002:000028a0       ??_C@_1EO@IJIOEFOH@?$AAa?$AAp?$AAi?$AA?9?$AAm?$AAs?$AA?9?$AAw?$AAi?$AAn?$AA?9?$AAr?$AAt?$AAc?$AAo?$AAr?$AAe?$AA?9?$AAn?$AAt?$AAu?$AAs?$AAe?$AAr?$AA?9?$AAw?$AAi?$AAn?$AAd?$AAo?$AAw?$AA?9@ 100208a0     libucrt:winapi_thunks.obj
 0002:000028f0       ??_C@_1FG@HHGEKANL@?$AAa?$AAp?$AAi?$AA?9?$AAm?$AAs?$AA?9?$AAw?$AAi?$AAn?$AA?9?$AAs?$AAe?$AAc?$AAu?$AAr?$AAi?$AAt?$AAy?$AA?9?$AAs?$AAy?$AAs?$AAt?$AAe?$AAm?$AAf?$AAu?$AAn?$AAc?$AAt?$AAi@ 100208f0     libucrt:winapi_thunks.obj
 0002:00002948       ??_C@_1FG@NCKKOLKO@?$AAe?$AAx?$AAt?$AA?9?$AAm?$AAs?$AA?9?$AAw?$AAi?$AAn?$AA?9?$AAk?$AAe?$AAr?$AAn?$AAe?$AAl?$AA3?$AA2?$AA?9?$AAp?$AAa?$AAc?$AAk?$AAa?$AAg?$AAe?$AA?9?$AAc?$AAu?$AAr?$AAr@ 10020948     libucrt:winapi_thunks.obj
 0002:000029a0       ??_C@_1EG@DBIOJECG@?$AAe?$AAx?$AAt?$AA?9?$AAm?$AAs?$AA?9?$AAw?$AAi?$AAn?$AA?9?$AAn?$AAt?$AAu?$AAs?$AAe?$AAr?$AA?9?$AAd?$AAi?$AAa?$AAl?$AAo?$AAg?$AAb?$AAo?$AAx?$AA?9?$AAl?$AA1?$AA?9?$AA1@ 100209a0     libucrt:winapi_thunks.obj
 0002:000029e8       ??_C@_1EO@FIHMJCLF@?$AAe?$AAx?$AAt?$AA?9?$AAm?$AAs?$AA?9?$AAw?$AAi?$AAn?$AA?9?$AAn?$AAt?$AAu?$AAs?$AAe?$AAr?$AA?9?$AAw?$AAi?$AAn?$AAd?$AAo?$AAw?$AAs?$AAt?$AAa?$AAt?$AAi?$AAo?$AAn?$AA?9@ 100209e8     libucrt:winapi_thunks.obj
 0002:00002a38       ??_C@_1BC@DNHGCMLG@?$AAa?$AAd?$AAv?$AAa?$AAp?$AAi?$AA3?$AA2?$AA?$AA@ 10020a38     libucrt:winapi_thunks.obj
 0002:00002a4c       ??_C@_1BC@GDMECMAK@?$AAk?$AAe?$AAr?$AAn?$AAe?$AAl?$AA3?$AA2?$AA?$AA@ 10020a4c     libucrt:winapi_thunks.obj
 0002:00002a60       ??_C@_1O@BCCLBEOE@?$AAu?$AAs?$AAe?$AAr?$AA3?$AA2?$AA?$AA@ 10020a60     libucrt:winapi_thunks.obj
 0002:00002a78       ??_C@_08KNHFBNJ@FlsAlloc?$AA@ 10020a78     libucrt:winapi_thunks.obj
 0002:00002a8c       ??_C@_07PEJMOBNF@FlsFree?$AA@ 10020a8c     libucrt:winapi_thunks.obj
 0002:00002a9c       ??_C@_0M@GDNOONDI@FlsGetValue?$AA@ 10020a9c     libucrt:winapi_thunks.obj
 0002:00002ab0       ??_C@_0M@JCPCPOEF@FlsSetValue?$AA@ 10020ab0     libucrt:winapi_thunks.obj
 0002:00002ac4       ??_C@_0BE@JOGNEJCI@GetCurrentPackageId?$AA@ 10020ac4     libucrt:winapi_thunks.obj
 0002:00002ae0       ??_C@_0BM@HCFOFFN@InitializeCriticalSectionEx?$AA@ 10020ae0     libucrt:winapi_thunks.obj
 0002:00002b04       ??_C@_0O@KKBNKAPF@LCMapStringEx?$AA@ 10020b04     libucrt:winapi_thunks.obj
 0002:00002b1c       ??_C@_0BB@HBDEELFH@LocaleNameToLCID?$AA@ 10020b1c     libucrt:winapi_thunks.obj
 0002:00002b38       ??_C@_0BI@BKLFFAPO@SetThreadStackGuarantee?$AA@ 10020b38     libucrt:winapi_thunks.obj
 0002:00002b50       ??_C@_03OEIAHPBN@INF?$AA@  10020b50     libucrt:cvt.obj
 0002:00002b54       ??_C@_03OJHLLCGB@inf?$AA@  10020b54     libucrt:cvt.obj
 0002:00002b58       ??_C@_03LKNCIKJB@NAN?$AA@  10020b58     libucrt:cvt.obj
 0002:00002b5c       ??_C@_03LHCJEHON@nan?$AA@  10020b5c     libucrt:cvt.obj
 0002:00002b60       ??_C@_09OFJJIMPC@NAN?$CISNAN?$CJ?$AA@ 10020b60     libucrt:cvt.obj
 0002:00002b6c       ??_C@_09IPFBKMDL@nan?$CIsnan?$CJ?$AA@ 10020b6c     libucrt:cvt.obj
 0002:00002b78       ??_C@_08IKHNHAJ@NAN?$CIIND?$CJ?$AA@ 10020b78     libucrt:cvt.obj
 0002:00002b84       ??_C@_08OFCDMILK@nan?$CIind?$CJ?$AA@ 10020b84     libucrt:cvt.obj
 0002:00002b90       ??_C@_05KLBDPFGC@e?$CL000?$AA@ 10020b90     libucrt:cvt.obj
 0002:00002b98       ??_C@_03KOEHGMDN@Sun?$AA@  10020b98     libucrt:nlsdata.obj
 0002:00002b9c       ??_C@_03PDAGKDH@Mon?$AA@   10020b9c     libucrt:nlsdata.obj
 0002:00002ba0       ??_C@_03NAGEINEP@Tue?$AA@  10020ba0     libucrt:nlsdata.obj
 0002:00002ba4       ??_C@_03MHOMLAJA@Wed?$AA@  10020ba4     libucrt:nlsdata.obj
 0002:00002ba8       ??_C@_03IOFIKPDN@Thu?$AA@  10020ba8     libucrt:nlsdata.obj
 0002:00002bac       ??_C@_03IDIOELNC@Fri?$AA@  10020bac     libucrt:nlsdata.obj
 0002:00002bb0       ??_C@_03FEFJNEK@Sat?$AA@   10020bb0     libucrt:nlsdata.obj
 0002:00002bb4       ??_C@_06OOPIFAJ@Sunday?$AA@ 10020bb4     libucrt:nlsdata.obj
 0002:00002bbc       ??_C@_06JLEDEDGH@Monday?$AA@ 10020bbc     libucrt:nlsdata.obj
 0002:00002bc4       ??_C@_07BAAGCFCM@Tuesday?$AA@ 10020bc4     libucrt:nlsdata.obj
 0002:00002bcc       ??_C@_09DLIGFAKA@Wednesday?$AA@ 10020bcc     libucrt:nlsdata.obj
 0002:00002bd8       ??_C@_08HACCIKIA@Thursday?$AA@ 10020bd8     libucrt:nlsdata.obj
 0002:00002be4       ??_C@_06JECMNKMI@Friday?$AA@ 10020be4     libucrt:nlsdata.obj
 0002:00002bec       ??_C@_08INBOOONO@Saturday?$AA@ 10020bec     libucrt:nlsdata.obj
 0002:00002bf8       ??_C@_03JIHJHPIE@Jan?$AA@  10020bf8     libucrt:nlsdata.obj
 0002:00002bfc       ??_C@_03HJBDCHOM@Feb?$AA@  10020bfc     libucrt:nlsdata.obj
 0002:00002c00       ??_C@_03ODNJBKGA@Mar?$AA@  10020c00     libucrt:nlsdata.obj
 0002:00002c04       ??_C@_03LEOLGMJP@Apr?$AA@  10020c04     libucrt:nlsdata.obj
 0002:00002c08       ??_C@_03CNMDKL@May?$AA@    10020c08     libucrt:nlsdata.obj
 0002:00002c0c       ??_C@_03IDFGHECI@Jun?$AA@  10020c0c     libucrt:nlsdata.obj
 0002:00002c10       ??_C@_03LBGABGKK@Jul?$AA@  10020c10     libucrt:nlsdata.obj
 0002:00002c14       ??_C@_03IFJFEIGA@Aug?$AA@  10020c14     libucrt:nlsdata.obj
 0002:00002c18       ??_C@_03GGCAPAJC@Sep?$AA@  10020c18     libucrt:nlsdata.obj
 0002:00002c1c       ??_C@_03BMAOKBAD@Oct?$AA@  10020c1c     libucrt:nlsdata.obj
 0002:00002c20       ??_C@_03JPJOFNIA@Nov?$AA@  10020c20     libucrt:nlsdata.obj
 0002:00002c24       ??_C@_03MKABNOCG@Dec?$AA@  10020c24     libucrt:nlsdata.obj
 0002:00002c28       ??_C@_07CGJPFGJA@January?$AA@ 10020c28     libucrt:nlsdata.obj
 0002:00002c30       ??_C@_08GNJGEPFN@February?$AA@ 10020c30     libucrt:nlsdata.obj
 0002:00002c3c       ??_C@_05HPCKOFNC@March?$AA@ 10020c3c     libucrt:nlsdata.obj
 0002:00002c44       ??_C@_05DMJDNLEJ@April?$AA@ 10020c44     libucrt:nlsdata.obj
 0002:00002c4c       ??_C@_04CNLMGBGM@June?$AA@ 10020c4c     libucrt:nlsdata.obj
 0002:00002c54       ??_C@_04MIEPOIFP@July?$AA@ 10020c54     libucrt:nlsdata.obj
 0002:00002c5c       ??_C@_06LBBHFDDG@August?$AA@ 10020c5c     libucrt:nlsdata.obj
 0002:00002c64       ??_C@_09BHHEALKD@September?$AA@ 10020c64     libucrt:nlsdata.obj
 0002:00002c70       ??_C@_07JJNFCEND@October?$AA@ 10020c70     libucrt:nlsdata.obj
 0002:00002c78       ??_C@_08HCHEGEOA@November?$AA@ 10020c78     libucrt:nlsdata.obj
 0002:00002c84       ??_C@_08EDHMEBNP@December?$AA@ 10020c84     libucrt:nlsdata.obj
 0002:00002c90       ??_C@_02DEDBPAFC@AM?$AA@   10020c90     libucrt:nlsdata.obj
 0002:00002c94       ??_C@_02CJNFDJBF@PM?$AA@   10020c94     libucrt:nlsdata.obj
 0002:00002c98       ??_C@_08BPBNCDIB@MM?1dd?1yy?$AA@ 10020c98     libucrt:nlsdata.obj
 0002:00002ca4       ??_C@_0BE@CKGJFCPC@dddd?0?5MMMM?5dd?0?5yyyy?$AA@ 10020ca4     libucrt:nlsdata.obj
 0002:00002cb8       ??_C@_08JCCMCCIL@HH?3mm?3ss?$AA@ 10020cb8     libucrt:nlsdata.obj
 0002:00002cc4       ??_C@_17MBGCMIPB@?$AAS?$AAu?$AAn?$AA?$AA@ 10020cc4     libucrt:nlsdata.obj
 0002:00002ccc       ??_C@_17KBOMKBF@?$AAM?$AAo?$AAn?$AA?$AA@ 10020ccc     libucrt:nlsdata.obj
 0002:00002cd4       ??_C@_17BMKGEGOJ@?$AAT?$AAu?$AAe?$AA?$AA@ 10020cd4     libucrt:nlsdata.obj
 0002:00002cdc       ??_C@_17CJEDCEPE@?$AAW?$AAe?$AAd?$AA?$AA@ 10020cdc     libucrt:nlsdata.obj
 0002:00002ce4       ??_C@_17PDPHAADD@?$AAT?$AAh?$AAu?$AA?$AA@ 10020ce4     libucrt:nlsdata.obj
 0002:00002cec       ??_C@_17HFOLPPLP@?$AAF?$AAr?$AAi?$AA?$AA@ 10020cec     libucrt:nlsdata.obj
 0002:00002cf4       ??_C@_17GGIBDPIH@?$AAS?$AAa?$AAt?$AA?$AA@ 10020cf4     libucrt:nlsdata.obj
 0002:00002cfc       ??_C@_1O@IHNHDHPB@?$AAS?$AAu?$AAn?$AAd?$AAa?$AAy?$AA?$AA@ 10020cfc     libucrt:nlsdata.obj
 0002:00002d0c       ??_C@_1O@MMNBFLIA@?$AAM?$AAo?$AAn?$AAd?$AAa?$AAy?$AA?$AA@ 10020d0c     libucrt:nlsdata.obj
 0002:00002d1c       ??_C@_1BA@ENFBFFEK@?$AAT?$AAu?$AAe?$AAs?$AAd?$AAa?$AAy?$AA?$AA@ 10020d1c     libucrt:nlsdata.obj
 0002:00002d2c       ??_C@_1BE@EBOGMDOH@?$AAW?$AAe?$AAd?$AAn?$AAe?$AAs?$AAd?$AAa?$AAy?$AA?$AA@ 10020d2c     libucrt:nlsdata.obj
 0002:00002d40       ??_C@_1BC@HHMNLIHE@?$AAT?$AAh?$AAu?$AAr?$AAs?$AAd?$AAa?$AAy?$AA?$AA@ 10020d40     libucrt:nlsdata.obj
 0002:00002d54       ??_C@_1O@PDICJHAG@?$AAF?$AAr?$AAi?$AAd?$AAa?$AAy?$AA?$AA@ 10020d54     libucrt:nlsdata.obj
 0002:00002d64       ??_C@_1BC@ENMNNPAJ@?$AAS?$AAa?$AAt?$AAu?$AAr?$AAd?$AAa?$AAy?$AA?$AA@ 10020d64     libucrt:nlsdata.obj
 0002:00002d78       ??_C@_17DKNBKCHM@?$AAJ?$AAa?$AAn?$AA?$AA@ 10020d78     libucrt:nlsdata.obj
 0002:00002d80       ??_C@_17LMDJEKJN@?$AAF?$AAe?$AAb?$AA?$AA@ 10020d80     libucrt:nlsdata.obj
 0002:00002d88       ??_C@_17CKNLEDEC@?$AAM?$AAa?$AAr?$AA?$AA@ 10020d88     libucrt:nlsdata.obj
 0002:00002d90       ??_C@_17LFPOIHDD@?$AAA?$AAp?$AAr?$AA?$AA@ 10020d90     libucrt:nlsdata.obj
 0002:00002d98       ??_C@_17PNNKMEED@?$AAM?$AAa?$AAy?$AA?$AA@ 10020d98     libucrt:nlsdata.obj
 0002:00002da0       ??_C@_17KCJGOCPB@?$AAJ?$AAu?$AAn?$AA?$AA@ 10020da0     libucrt:nlsdata.obj
 0002:00002da8       ??_C@_17IJPCKHK@?$AAJ?$AAu?$AAl?$AA?$AA@ 10020da8     libucrt:nlsdata.obj
 0002:00002db0       ??_C@_17ICPELBCN@?$AAA?$AAu?$AAg?$AA?$AA@ 10020db0     libucrt:nlsdata.obj
 0002:00002db8       ??_C@_17HCHCOKMG@?$AAS?$AAe?$AAp?$AA?$AA@ 10020db8     libucrt:nlsdata.obj
 0002:00002dc0       ??_C@_17FNLKOI@?$AAO?$AAc?$AAt?$AA?$AA@ 10020dc0     libucrt:nlsdata.obj
 0002:00002dc8       ??_C@_17BBDMLCIG@?$AAN?$AAo?$AAv?$AA?$AA@ 10020dc8     libucrt:nlsdata.obj
 0002:00002dd0       ??_C@_17EGKACKIF@?$AAD?$AAe?$AAc?$AA?$AA@ 10020dd0     libucrt:nlsdata.obj
 0002:00002dd8       ??_C@_1BA@EFMEIEBA@?$AAJ?$AAa?$AAn?$AAu?$AAa?$AAr?$AAy?$AA?$AA@ 10020dd8     libucrt:nlsdata.obj
 0002:00002de8       ??_C@_1BC@JGDDFFAM@?$AAF?$AAe?$AAb?$AAr?$AAu?$AAa?$AAr?$AAy?$AA?$AA@ 10020de8     libucrt:nlsdata.obj
 0002:00002dfc       ??_C@_1M@IKEENEDF@?$AAM?$AAa?$AAr?$AAc?$AAh?$AA?$AA@ 10020dfc     libucrt:nlsdata.obj
 0002:00002e08       ??_C@_1M@GJNLMHFD@?$AAA?$AAp?$AAr?$AAi?$AAl?$AA?$AA@ 10020e08     libucrt:nlsdata.obj
 0002:00002e14       ??_C@_19EPFLPGAP@?$AAJ?$AAu?$AAn?$AAe?$AA?$AA@ 10020e14     libucrt:nlsdata.obj
 0002:00002e20       ??_C@_19BIFMLPCD@?$AAJ?$AAu?$AAl?$AAy?$AA?$AA@ 10020e20     libucrt:nlsdata.obj
 0002:00002e2c       ??_C@_1O@PAHLKOAC@?$AAA?$AAu?$AAg?$AAu?$AAs?$AAt?$AA?$AA@ 10020e2c     libucrt:nlsdata.obj
 0002:00002e3c       ??_C@_1BE@DKAAMBJL@?$AAS?$AAe?$AAp?$AAt?$AAe?$AAm?$AAb?$AAe?$AAr?$AA?$AA@ 10020e3c     libucrt:nlsdata.obj
 0002:00002e50       ??_C@_1BA@EPANDLNG@?$AAO?$AAc?$AAt?$AAo?$AAb?$AAe?$AAr?$AA?$AA@ 10020e50     libucrt:nlsdata.obj
 0002:00002e60       ??_C@_1BC@BGLIFPF@?$AAN?$AAo?$AAv?$AAe?$AAm?$AAb?$AAe?$AAr?$AA?$AA@ 10020e60     libucrt:nlsdata.obj
 0002:00002e74       ??_C@_1BC@FEMKIFH@?$AAD?$AAe?$AAc?$AAe?$AAm?$AAb?$AAe?$AAr?$AA?$AA@ 10020e74     libucrt:nlsdata.obj
 0002:00002e88       ??_C@_15ODEHAHHF@?$AAA?$AAM?$AA?$AA@ 10020e88     libucrt:nlsdata.obj
 0002:00002e90       ??_C@_15CLMNNGEL@?$AAP?$AAM?$AA?$AA@ 10020e90     libucrt:nlsdata.obj
 0002:00002e98       ??_C@_1BC@IEBCMHCM@?$AAM?$AAM?$AA?1?$AAd?$AAd?$AA?1?$AAy?$AAy?$AA?$AA@ 10020e98     libucrt:nlsdata.obj
 0002:00002eac       ??_C@_1CI@KNAKOEBC@?$AAd?$AAd?$AAd?$AAd?$AA?0?$AA?5?$AAM?$AAM?$AAM?$AAM?$AA?5?$AAd?$AAd?$AA?0?$AA?5?$AAy?$AAy?$AAy?$AAy?$AA?$AA@ 10020eac     libucrt:nlsdata.obj
 0002:00002ed4       ??_C@_1BC@GDGBMEMK@?$AAH?$AAH?$AA?3?$AAm?$AAm?$AA?3?$AAs?$AAs?$AA?$AA@ 10020ed4     libucrt:nlsdata.obj
 0002:00002ee8       ??_C@_1M@BMHNFIME@?$AAe?$AAn?$AA?9?$AAU?$AAS?$AA?$AA@ 10020ee8     libucrt:nlsdata.obj
 0002:00002ef8       ___lc_time_c               10020ef8     libucrt:nlsdata.obj
 0002:0000306c       ??_C@_1M@HPNHIDJI@?$AAj?$AAa?$AA?9?$AAJ?$AAP?$AA?$AA@ 1002106c     libucrt:mbctype.obj
 0002:00003078       ??_C@_1M@BIBDDEMK@?$AAz?$AAh?$AA?9?$AAC?$AAN?$AA?$AA@ 10021078     libucrt:mbctype.obj
 0002:00003084       ??_C@_1M@JLOOOEGK@?$AAk?$AAo?$AA?9?$AAK?$AAR?$AA?$AA@ 10021084     libucrt:mbctype.obj
 0002:00003090       ??_C@_1M@CLNBBOPM@?$AAz?$AAh?$AA?9?$AAT?$AAW?$AA?$AA@ 10021090     libucrt:mbctype.obj
 0002:000030a0       __wctype                   100210a0     libucrt:ctype.obj
 0002:000032a8       ___newctype                100212a8     libucrt:ctype.obj
 0002:000035a8       ___newclmap                100215a8     libucrt:ctype.obj
 0002:00003728       ___newcumap                10021728     libucrt:ctype.obj
 0002:00003fc8       ??_C@_15EMKDOKLE@?$AAa?$AAr?$AA?$AA@ 10021fc8     libucrt:lcidtoname_downlevel.obj
 0002:00003fd0       ??_C@_15KNPADPLH@?$AAb?$AAg?$AA?$AA@ 10021fd0     libucrt:lcidtoname_downlevel.obj
 0002:00003fd8       ??_C@_15EDMHLDMO@?$AAc?$AAa?$AA?$AA@ 10021fd8     libucrt:lcidtoname_downlevel.obj
 0002:00003fe0       ??_C@_1O@BPEAJADD@?$AAz?$AAh?$AA?9?$AAC?$AAH?$AAS?$AA?$AA@ 10021fe0     libucrt:lcidtoname_downlevel.obj
 0002:00003ff0       ??_C@_15LJNHCMNK@?$AAc?$AAs?$AA?$AA@ 10021ff0     libucrt:lcidtoname_downlevel.obj
 0002:00003ff8       ??_C@_15FOMCIDHG@?$AAd?$AAa?$AA?$AA@ 10021ff8     libucrt:lcidtoname_downlevel.obj
 0002:00004000       ??_C@_15NBKABECB@?$AAd?$AAe?$AA?$AA@ 10022000     libucrt:lcidtoname_downlevel.obj
 0002:00004008       ??_C@_15GHPEIIAO@?$AAe?$AAl?$AA?$AA@ 10022008     libucrt:lcidtoname_downlevel.obj
 0002:00004010       ??_C@_15MNPNEAIF@?$AAe?$AAn?$AA?$AA@ 10022010     libucrt:lcidtoname_downlevel.obj
 0002:00004018       ??_C@_15GPIOMPMH@?$AAe?$AAs?$AA?$AA@ 10022018     libucrt:lcidtoname_downlevel.obj
 0002:00004020       ??_C@_15NGLOAKJC@?$AAf?$AAi?$AA?$AA@ 10022020     libucrt:lcidtoname_downlevel.obj
 0002:00004028       ??_C@_15FBKGNKAM@?$AAf?$AAr?$AA?$AA@ 10022028     libucrt:lcidtoname_downlevel.obj
 0002:00004030       ??_C@_15KGGCNEFK@?$AAh?$AAe?$AA?$AA@ 10022030     libucrt:lcidtoname_downlevel.obj
 0002:00004038       ??_C@_15PGHLIDMF@?$AAh?$AAu?$AA?$AA@ 10022038     libucrt:lcidtoname_downlevel.obj
 0002:00004040       ??_C@_15BIEMAPLM@?$AAi?$AAs?$AA?$AA@ 10022040     libucrt:lcidtoname_downlevel.obj
 0002:00004048       ??_C@_15IFJLDHAF@?$AAi?$AAt?$AA?$AA@ 10022048     libucrt:lcidtoname_downlevel.obj
 0002:00004050       ??_C@_15GEMIOCAG@?$AAj?$AAa?$AA?$AA@ 10022050     libucrt:lcidtoname_downlevel.obj
 0002:00004058       ??_C@_15EPELEGJA@?$AAk?$AAo?$AA?$AA@ 10022058     libucrt:lcidtoname_downlevel.obj
 0002:00004060       ??_C@_15NDDHIMN@?$AAn?$AAl?$AA?$AA@ 10022060     libucrt:lcidtoname_downlevel.obj
 0002:00004068       ??_C@_15BPIGNHCD@?$AAn?$AAo?$AA?$AA@ 10022068     libucrt:lcidtoname_downlevel.obj
 0002:00004070       ??_C@_15DEOPBLCG@?$AAp?$AAl?$AA?$AA@ 10022070     libucrt:lcidtoname_downlevel.obj
 0002:00004078       ??_C@_15KBECGEFG@?$AAp?$AAt?$AA?$AA@ 10022078     libucrt:lcidtoname_downlevel.obj
 0002:00004080       ??_C@_15GLJCBFMD@?$AAr?$AAo?$AA?$AA@ 10022080     libucrt:lcidtoname_downlevel.obj
 0002:00004088       ??_C@_15FEDGKCDI@?$AAr?$AAu?$AA?$AA@ 10022088     libucrt:lcidtoname_downlevel.obj
 0002:00004090       ??_C@_15GLKMLLHM@?$AAh?$AAr?$AA?$AA@ 10022090     libucrt:lcidtoname_downlevel.obj
 0002:00004098       ??_C@_15CPKMFBDB@?$AAs?$AAk?$AA?$AA@ 10022098     libucrt:lcidtoname_downlevel.obj
 0002:000040a0       ??_C@_15BAAIOGMK@?$AAs?$AAq?$AA?$AA@ 100220a0     libucrt:lcidtoname_downlevel.obj
 0002:000040a8       ??_C@_15INNPNOHD@?$AAs?$AAv?$AA?$AA@ 100220a8     libucrt:lcidtoname_downlevel.obj
 0002:000040b0       ??_C@_15CABMMOGH@?$AAt?$AAh?$AA?$AA@ 100220b0     libucrt:lcidtoname_downlevel.obj
 0002:000040b8       ??_C@_15BPLIHJJM@?$AAt?$AAr?$AA?$AA@ 100220b8     libucrt:lcidtoname_downlevel.obj
 0002:000040c0       ??_C@_15NEOEKKDJ@?$AAu?$AAr?$AA?$AA@ 100220c0     libucrt:lcidtoname_downlevel.obj
 0002:000040c8       ??_C@_15NFICGAJK@?$AAi?$AAd?$AA?$AA@ 100220c8     libucrt:lcidtoname_downlevel.obj
 0002:000040d0       ??_C@_15PJPFLCCM@?$AAu?$AAk?$AA?$AA@ 100220d0     libucrt:lcidtoname_downlevel.obj
 0002:000040d8       ??_C@_15HPJPHDM@?$AAb?$AAe?$AA?$AA@ 100220d8     libucrt:lcidtoname_downlevel.obj
 0002:000040e0       ??_C@_15LCHLGJII@?$AAs?$AAl?$AA?$AA@ 100220e0     libucrt:lcidtoname_downlevel.obj
 0002:000040e8       ??_C@_15PCFJPHHO@?$AAe?$AAt?$AA?$AA@ 100220e8     libucrt:lcidtoname_downlevel.obj
 0002:000040f0       ??_C@_15HPFPGODN@?$AAl?$AAv?$AA?$AA@ 100220f0     libucrt:lcidtoname_downlevel.obj
 0002:000040f8       ??_C@_15NFFGKGLG@?$AAl?$AAt?$AA?$AA@ 100220f8     libucrt:lcidtoname_downlevel.obj
 0002:00004100       ??_C@_15BDAKCCHN@?$AAf?$AAa?$AA?$AA@ 10022100     libucrt:lcidtoname_downlevel.obj
 0002:00004108       ??_C@_15NFGIAIAJ@?$AAv?$AAi?$AA?$AA@ 10022108     libucrt:lcidtoname_downlevel.obj
 0002:00004110       ??_C@_15LMKNDMHN@?$AAh?$AAy?$AA?$AA@ 10022110     libucrt:lcidtoname_downlevel.obj
 0002:00004118       ??_C@_15IJBHMCFL@?$AAa?$AAz?$AA?$AA@ 10022118     libucrt:lcidtoname_downlevel.obj
 0002:00004120       ??_C@_15EKOFJABL@?$AAe?$AAu?$AA?$AA@ 10022120     libucrt:lcidtoname_downlevel.obj
 0002:00004128       ??_C@_15BGHADCNK@?$AAm?$AAk?$AA?$AA@ 10022128     libucrt:lcidtoname_downlevel.obj
 0002:00004130       ??_C@_15JDNICKHM@?$AAa?$AAf?$AA?$AA@ 10022130     libucrt:lcidtoname_downlevel.obj
 0002:00004138       ??_C@_15KPJEDBKD@?$AAk?$AAa?$AA?$AA@ 10022138     libucrt:lcidtoname_downlevel.obj
 0002:00004140       ??_C@_15PDNFFFEO@?$AAf?$AAo?$AA?$AA@ 10022140     libucrt:lcidtoname_downlevel.obj
 0002:00004148       ??_C@_15OMLEGLOC@?$AAh?$AAi?$AA?$AA@ 10022148     libucrt:lcidtoname_downlevel.obj
 0002:00004150       ??_C@_15IDNNENKK@?$AAm?$AAs?$AA?$AA@ 10022150     libucrt:lcidtoname_downlevel.obj
 0002:00004158       ??_C@_15MACJNBMH@?$AAk?$AAk?$AA?$AA@ 10022158     libucrt:lcidtoname_downlevel.obj
 0002:00004160       ??_C@_15DKDJEOND@?$AAk?$AAy?$AA?$AA@ 10022160     libucrt:lcidtoname_downlevel.obj
 0002:00004168       ??_C@_15DFGDLJBG@?$AAs?$AAw?$AA?$AA@ 10022168     libucrt:lcidtoname_downlevel.obj
 0002:00004170       ??_C@_15BBFAICNG@?$AAu?$AAz?$AA?$AA@ 10022170     libucrt:lcidtoname_downlevel.obj
 0002:00004178       ??_C@_15DKNDCGEA@?$AAt?$AAt?$AA?$AA@ 10022178     libucrt:lcidtoname_downlevel.obj
 0002:00004180       ??_C@_15MGIFMDPL@?$AAp?$AAa?$AA?$AA@ 10022180     libucrt:lcidtoname_downlevel.obj
 0002:00004188       ??_C@_15HCNDBBA@?$AAg?$AAu?$AA?$AA@ 10022188     libucrt:lcidtoname_downlevel.obj
 0002:00004190       ??_C@_15FNBEIBON@?$AAt?$AAa?$AA?$AA@ 10022190     libucrt:lcidtoname_downlevel.obj
 0002:00004198       ??_C@_15NCHGBGLK@?$AAt?$AAe?$AA?$AA@ 10022198     libucrt:lcidtoname_downlevel.obj
 0002:000041a0       ??_C@_15PHPHCBPF@?$AAk?$AAn?$AA?$AA@ 100221a0     libucrt:lcidtoname_downlevel.obj
 0002:000041a8       ??_C@_15DLGBCKMP@?$AAm?$AAr?$AA?$AA@ 100221a8     libucrt:lcidtoname_downlevel.obj
 0002:000041b0       ??_C@_15EABBLBFF@?$AAs?$AAa?$AA?$AA@ 100221b0     libucrt:lcidtoname_downlevel.obj
 0002:000041b8       ??_C@_15CBKOMCOI@?$AAm?$AAn?$AA?$AA@ 100221b8     libucrt:lcidtoname_downlevel.obj
 0002:000041c0       ??_C@_15CKDMCJAF@?$AAg?$AAl?$AA?$AA@ 100221c0     libucrt:lcidtoname_downlevel.obj
 0002:000041c8       ??_C@_17CNJFBPG@?$AAk?$AAo?$AAk?$AA?$AA@ 100221c8     libucrt:lcidtoname_downlevel.obj
 0002:000041d0       ??_C@_17FFBJICPL@?$AAs?$AAy?$AAr?$AA?$AA@ 100221d0     libucrt:lcidtoname_downlevel.obj
 0002:000041d8       ??_C@_17KPNDCPAF@?$AAd?$AAi?$AAv?$AA?$AA@ 100221d8     libucrt:lcidtoname_downlevel.obj
 0002:000041e0       ??_C@_11LOCGONAA@?$AA?$AA@ 100221e0     libucrt:lcidtoname_downlevel.obj
 0002:000041e4       ??_C@_1M@OKAHONE@?$AAa?$AAr?$AA?9?$AAS?$AAA?$AA?$AA@ 100221e4     libucrt:lcidtoname_downlevel.obj
 0002:000041f0       ??_C@_1M@FFFIGIGK@?$AAb?$AAg?$AA?9?$AAB?$AAG?$AA?$AA@ 100221f0     libucrt:lcidtoname_downlevel.obj
 0002:000041fc       ??_C@_1M@BJNKEDC@?$AAc?$AAa?$AA?9?$AAE?$AAS?$AA?$AA@ 100221fc     libucrt:lcidtoname_downlevel.obj
 0002:00004208       ??_C@_1M@IJJHFJHA@?$AAc?$AAs?$AA?9?$AAC?$AAZ?$AA?$AA@ 10022208     libucrt:lcidtoname_downlevel.obj
 0002:00004214       ??_C@_1M@CLPEOBGI@?$AAd?$AAa?$AA?9?$AAD?$AAK?$AA?$AA@ 10022214     libucrt:lcidtoname_downlevel.obj
 0002:00004220       ??_C@_1M@MCMADGCB@?$AAd?$AAe?$AA?9?$AAD?$AAE?$AA?$AA@ 10022220     libucrt:lcidtoname_downlevel.obj
 0002:0000422c       ??_C@_1M@OOCKEMAM@?$AAe?$AAl?$AA?9?$AAG?$AAR?$AA?$AA@ 1002222c     libucrt:lcidtoname_downlevel.obj
 0002:00004238       ??_C@_1M@DDNJFGID@?$AAf?$AAi?$AA?9?$AAF?$AAI?$AA?$AA@ 10022238     libucrt:lcidtoname_downlevel.obj
 0002:00004244       ??_C@_1M@GLIPPMAC@?$AAf?$AAr?$AA?9?$AAF?$AAR?$AA?$AA@ 10022244     libucrt:lcidtoname_downlevel.obj
 0002:00004250       ??_C@_1M@GFMCHPE@?$AAh?$AAe?$AA?9?$AAI?$AAL?$AA?$AA@ 10022250     libucrt:lcidtoname_downlevel.obj
 0002:0000425c       ??_C@_1M@MHLPGNKM@?$AAh?$AAu?$AA?9?$AAH?$AAU?$AA?$AA@ 1002225c     libucrt:lcidtoname_downlevel.obj
 0002:00004268       ??_C@_1M@LPDDNNPN@?$AAi?$AAs?$AA?9?$AAI?$AAS?$AA?$AA@ 10022268     libucrt:lcidtoname_downlevel.obj
 0002:00004274       ??_C@_1M@MADIPODN@?$AAi?$AAt?$AA?9?$AAI?$AAT?$AA?$AA@ 10022274     libucrt:lcidtoname_downlevel.obj
 0002:00004280       ??_C@_1M@IHBJJGG@?$AAn?$AAl?$AA?9?$AAN?$AAL?$AA?$AA@ 10022280     libucrt:lcidtoname_downlevel.obj
 0002:0000428c       ??_C@_1M@EANAGDL@?$AAn?$AAb?$AA?9?$AAN?$AAO?$AA?$AA@ 1002228c     libucrt:lcidtoname_downlevel.obj
 0002:00004298       ??_C@_1M@NEIEMEGP@?$AAp?$AAl?$AA?9?$AAP?$AAL?$AA?$AA@ 10022298     libucrt:lcidtoname_downlevel.obj
 0002:000042a4       ??_C@_1M@BOCFIGEP@?$AAp?$AAt?$AA?9?$AAB?$AAR?$AA?$AA@ 100222a4     libucrt:lcidtoname_downlevel.obj
 0002:000042b0       ??_C@_1M@IMPFOPBG@?$AAr?$AAo?$AA?9?$AAR?$AAO?$AA?$AA@ 100222b0     libucrt:lcidtoname_downlevel.obj
 0002:000042bc       ??_C@_1M@IDNNEJMM@?$AAr?$AAu?$AA?9?$AAR?$AAU?$AA?$AA@ 100222bc     libucrt:lcidtoname_downlevel.obj
 0002:000042c8       ??_C@_1M@LILEEOGM@?$AAh?$AAr?$AA?9?$AAH?$AAR?$AA?$AA@ 100222c8     libucrt:lcidtoname_downlevel.obj
 0002:000042d4       ??_C@_1M@FKIFEHPB@?$AAs?$AAk?$AA?9?$AAS?$AAK?$AA?$AA@ 100222d4     libucrt:lcidtoname_downlevel.obj
 0002:000042e0       ??_C@_1M@LJMAMNPJ@?$AAs?$AAq?$AA?9?$AAA?$AAL?$AA?$AA@ 100222e0     libucrt:lcidtoname_downlevel.obj
 0002:000042ec       ??_C@_1M@GIAKDKJK@?$AAs?$AAv?$AA?9?$AAS?$AAE?$AA?$AA@ 100222ec     libucrt:lcidtoname_downlevel.obj
 0002:000042f8       ??_C@_1M@MKJKIKCL@?$AAt?$AAh?$AA?9?$AAT?$AAH?$AA?$AA@ 100222f8     libucrt:lcidtoname_downlevel.obj
 0002:00004304       ??_C@_1M@MFLCCMPB@?$AAt?$AAr?$AA?9?$AAT?$AAR?$AA?$AA@ 10022304     libucrt:lcidtoname_downlevel.obj
 0002:00004310       ??_C@_1M@OIJHDKJN@?$AAu?$AAr?$AA?9?$AAP?$AAK?$AA?$AA@ 10022310     libucrt:lcidtoname_downlevel.obj
 0002:0000431c       ??_C@_1M@LHIPCIEK@?$AAi?$AAd?$AA?9?$AAI?$AAD?$AA?$AA@ 1002231c     libucrt:lcidtoname_downlevel.obj
 0002:00004328       ??_C@_1M@MFMOBGI@?$AAu?$AAk?$AA?9?$AAU?$AAA?$AA?$AA@ 10022328     libucrt:lcidtoname_downlevel.obj
 0002:00004334       ??_C@_1M@OBGLJIPL@?$AAb?$AAe?$AA?9?$AAB?$AAY?$AA?$AA@ 10022334     libucrt:lcidtoname_downlevel.obj
 0002:00004340       ??_C@_1M@BCFAJEAD@?$AAs?$AAl?$AA?9?$AAS?$AAI?$AA?$AA@ 10022340     libucrt:lcidtoname_downlevel.obj
 0002:0000434c       ??_C@_1M@FKFFEDDN@?$AAe?$AAt?$AA?9?$AAE?$AAE?$AA?$AA@ 1002234c     libucrt:lcidtoname_downlevel.obj
 0002:00004358       ??_C@_1M@KGKKAACI@?$AAl?$AAv?$AA?9?$AAL?$AAV?$AA?$AA@ 10022358     libucrt:lcidtoname_downlevel.obj
 0002:00004364       ??_C@_1M@IFGBIJO@?$AAl?$AAt?$AA?9?$AAL?$AAT?$AA?$AA@ 10022364     libucrt:lcidtoname_downlevel.obj
 0002:00004370       ??_C@_1M@FGEAHEDM@?$AAf?$AAa?$AA?9?$AAI?$AAR?$AA?$AA@ 10022370     libucrt:lcidtoname_downlevel.obj
 0002:0000437c       ??_C@_1M@KBMAIBFN@?$AAv?$AAi?$AA?9?$AAV?$AAN?$AA?$AA@ 1002237c     libucrt:lcidtoname_downlevel.obj
 0002:00004388       ??_C@_1M@GPCBKDJK@?$AAh?$AAy?$AA?9?$AAA?$AAM?$AA?$AA@ 10022388     libucrt:lcidtoname_downlevel.obj
 0002:00004394       ??_C@_1BG@BECMDDJB@?$AAa?$AAz?$AA?9?$AAA?$AAZ?$AA?9?$AAL?$AAa?$AAt?$AAn?$AA?$AA@ 10022394     libucrt:lcidtoname_downlevel.obj
 0002:000043ac       ??_C@_1M@MAOFCAEA@?$AAe?$AAu?$AA?9?$AAE?$AAS?$AA?$AA@ 100223ac     libucrt:lcidtoname_downlevel.obj
 0002:000043b8       ??_C@_1M@IGHABKPI@?$AAm?$AAk?$AA?9?$AAM?$AAK?$AA?$AA@ 100223b8     libucrt:lcidtoname_downlevel.obj
 0002:000043c4       ??_C@_1M@IAIGNEJG@?$AAt?$AAn?$AA?9?$AAZ?$AAA?$AA?$AA@ 100223c4     libucrt:lcidtoname_downlevel.obj
 0002:000043d0       ??_C@_1M@IIJCOJFA@?$AAx?$AAh?$AA?9?$AAZ?$AAA?$AA?$AA@ 100223d0     libucrt:lcidtoname_downlevel.obj
 0002:000043dc       ??_C@_1M@LGPJHNJH@?$AAz?$AAu?$AA?9?$AAZ?$AAA?$AA?$AA@ 100223dc     libucrt:lcidtoname_downlevel.obj
 0002:000043e8       ??_C@_1M@HOKAOIO@?$AAa?$AAf?$AA?9?$AAZ?$AAA?$AA?$AA@ 100223e8     libucrt:lcidtoname_downlevel.obj
 0002:000043f4       ??_C@_1M@DPCLHLIE@?$AAk?$AAa?$AA?9?$AAG?$AAE?$AA?$AA@ 100223f4     libucrt:lcidtoname_downlevel.obj
 0002:00004400       ??_C@_1M@BLKMHJBI@?$AAf?$AAo?$AA?9?$AAF?$AAO?$AA?$AA@ 10022400     libucrt:lcidtoname_downlevel.obj
 0002:0000440c       ??_C@_1M@LGGJAPPB@?$AAh?$AAi?$AA?9?$AAI?$AAN?$AA?$AA@ 1002240c     libucrt:lcidtoname_downlevel.obj
 0002:00004418       ??_C@_1M@FIKPIHFE@?$AAm?$AAt?$AA?9?$AAM?$AAT?$AA?$AA@ 10022418     libucrt:lcidtoname_downlevel.obj
 0002:00004424       ??_C@_1M@HEGGPBFA@?$AAs?$AAe?$AA?9?$AAN?$AAO?$AA?$AA@ 10022424     libucrt:lcidtoname_downlevel.obj
 0002:00004430       ??_C@_1M@EIBJEEPA@?$AAm?$AAs?$AA?9?$AAM?$AAY?$AA?$AA@ 10022430     libucrt:lcidtoname_downlevel.obj
 0002:0000443c       ??_C@_1M@FHLBGMPP@?$AAk?$AAk?$AA?9?$AAK?$AAZ?$AA?$AA@ 1002243c     libucrt:lcidtoname_downlevel.obj
 0002:00004448       ??_C@_1M@NGJJLCGI@?$AAk?$AAy?$AA?9?$AAK?$AAG?$AA?$AA@ 10022448     libucrt:lcidtoname_downlevel.obj
 0002:00004454       ??_C@_1M@GIENNBFC@?$AAs?$AAw?$AA?9?$AAK?$AAE?$AA?$AA@ 10022454     libucrt:lcidtoname_downlevel.obj
 0002:00004460       ??_C@_1BG@NDGMJIMJ@?$AAu?$AAz?$AA?9?$AAU?$AAZ?$AA?9?$AAL?$AAa?$AAt?$AAn?$AA?$AA@ 10022460     libucrt:lcidtoname_downlevel.obj
 0002:00004478       ??_C@_1M@IDCCIHBC@?$AAt?$AAt?$AA?9?$AAR?$AAU?$AA?$AA@ 10022478     libucrt:lcidtoname_downlevel.obj
 0002:00004484       ??_C@_1M@LOICPMOJ@?$AAb?$AAn?$AA?9?$AAI?$AAN?$AA?$AA@ 10022484     libucrt:lcidtoname_downlevel.obj
 0002:00004490       ??_C@_1M@KPKKNEAH@?$AAp?$AAa?$AA?9?$AAI?$AAN?$AA?$AA@ 10022490     libucrt:lcidtoname_downlevel.obj
 0002:0000449c       ??_C@_1M@PJGPPBOG@?$AAg?$AAu?$AA?9?$AAI?$AAN?$AA?$AA@ 1002249c     libucrt:lcidtoname_downlevel.obj
 0002:000044a8       ??_C@_1M@KMKMOPHI@?$AAt?$AAa?$AA?9?$AAI?$AAN?$AA?$AA@ 100224a8     libucrt:lcidtoname_downlevel.obj
 0002:000044b4       ??_C@_1M@KFEHEPAC@?$AAt?$AAe?$AA?9?$AAI?$AAN?$AA?$AA@ 100224b4     libucrt:lcidtoname_downlevel.obj
 0002:000044c0       ??_C@_1M@CDCLMGHI@?$AAk?$AAn?$AA?9?$AAI?$AAN?$AA?$AA@ 100224c0     libucrt:lcidtoname_downlevel.obj
 0002:000044cc       ??_C@_1M@MIODLDKF@?$AAm?$AAl?$AA?9?$AAI?$AAN?$AA?$AA@ 100224cc     libucrt:lcidtoname_downlevel.obj
 0002:000044d8       ??_C@_1M@PBIEACPO@?$AAm?$AAr?$AA?9?$AAI?$AAN?$AA?$AA@ 100224d8     libucrt:lcidtoname_downlevel.obj
 0002:000044e4       ??_C@_1M@NIDEAGPH@?$AAs?$AAa?$AA?9?$AAI?$AAN?$AA?$AA@ 100224e4     libucrt:lcidtoname_downlevel.obj
 0002:000044f0       ??_C@_1M@FHIHCBIO@?$AAm?$AAn?$AA?9?$AAM?$AAN?$AA?$AA@ 100224f0     libucrt:lcidtoname_downlevel.obj
 0002:000044fc       ??_C@_1M@JAIJPENP@?$AAc?$AAy?$AA?9?$AAG?$AAB?$AA?$AA@ 100224fc     libucrt:lcidtoname_downlevel.obj
 0002:00004508       ??_C@_1M@PHGFBEPN@?$AAg?$AAl?$AA?9?$AAE?$AAS?$AA?$AA@ 10022508     libucrt:lcidtoname_downlevel.obj
 0002:00004514       ??_C@_1O@KPIPDNCP@?$AAk?$AAo?$AAk?$AA?9?$AAI?$AAN?$AA?$AA@ 10022514     libucrt:lcidtoname_downlevel.obj
 0002:00004524       ??_C@_1O@KNHJLDJA@?$AAs?$AAy?$AAr?$AA?9?$AAS?$AAY?$AA?$AA@ 10022524     libucrt:lcidtoname_downlevel.obj
 0002:00004534       ??_C@_1O@MKEKBLAH@?$AAd?$AAi?$AAv?$AA?9?$AAM?$AAV?$AA?$AA@ 10022534     libucrt:lcidtoname_downlevel.obj
 0002:00004544       ??_C@_1O@OHDCKDDF@?$AAq?$AAu?$AAz?$AA?9?$AAB?$AAO?$AA?$AA@ 10022544     libucrt:lcidtoname_downlevel.obj
 0002:00004554       ??_C@_1M@LEPJNLFD@?$AAn?$AAs?$AA?9?$AAZ?$AAA?$AA?$AA@ 10022554     libucrt:lcidtoname_downlevel.obj
 0002:00004560       ??_C@_1M@OMLEIIJB@?$AAm?$AAi?$AA?9?$AAN?$AAZ?$AA?$AA@ 10022560     libucrt:lcidtoname_downlevel.obj
 0002:0000456c       ??_C@_1M@PMPEAILG@?$AAa?$AAr?$AA?9?$AAI?$AAQ?$AA?$AA@ 1002256c     libucrt:lcidtoname_downlevel.obj
 0002:00004578       ??_C@_1M@CNKPNOEE@?$AAd?$AAe?$AA?9?$AAC?$AAH?$AA?$AA@ 10022578     libucrt:lcidtoname_downlevel.obj
 0002:00004584       ??_C@_1M@LKMGMLKO@?$AAe?$AAn?$AA?9?$AAG?$AAB?$AA?$AA@ 10022584     libucrt:lcidtoname_downlevel.obj
 0002:00004590       ??_C@_1M@PGKJFFGL@?$AAe?$AAs?$AA?9?$AAM?$AAX?$AA?$AA@ 10022590     libucrt:lcidtoname_downlevel.obj
 0002:0000459c       ??_C@_1M@DNNANBDC@?$AAf?$AAr?$AA?9?$AAB?$AAE?$AA?$AA@ 1002259c     libucrt:lcidtoname_downlevel.obj
 0002:000045a8       ??_C@_1M@HLGMDFHM@?$AAi?$AAt?$AA?9?$AAC?$AAH?$AA?$AA@ 100225a8     libucrt:lcidtoname_downlevel.obj
 0002:000045b4       ??_C@_1M@CLLBGJH@?$AAn?$AAl?$AA?9?$AAB?$AAE?$AA?$AA@ 100225b4     libucrt:lcidtoname_downlevel.obj
 0002:000045c0       ??_C@_1M@BODBOGLF@?$AAn?$AAn?$AA?9?$AAN?$AAO?$AA?$AA@ 100225c0     libucrt:lcidtoname_downlevel.obj
 0002:000045cc       ??_C@_1M@HFFAHKAD@?$AAp?$AAt?$AA?9?$AAP?$AAT?$AA?$AA@ 100225cc     libucrt:lcidtoname_downlevel.obj
 0002:000045d8       ??_C@_1BG@LNOAKHIE@?$AAs?$AAr?$AA?9?$AAS?$AAP?$AA?9?$AAL?$AAa?$AAt?$AAn?$AA?$AA@ 100225d8     libucrt:lcidtoname_downlevel.obj
 0002:000045f0       ??_C@_1M@HBMHBGAK@?$AAs?$AAv?$AA?9?$AAF?$AAI?$AA?$AA@ 100225f0     libucrt:lcidtoname_downlevel.obj
 0002:000045fc       ??_C@_1BG@DGCJGJBE@?$AAa?$AAz?$AA?9?$AAA?$AAZ?$AA?9?$AAC?$AAy?$AAr?$AAl?$AA?$AA@ 100225fc     libucrt:lcidtoname_downlevel.obj
 0002:00004614       ??_C@_1M@KEJDAAHB@?$AAs?$AAe?$AA?9?$AAS?$AAE?$AA?$AA@ 10022614     libucrt:lcidtoname_downlevel.obj
 0002:00004620       ??_C@_1M@HEIBJJAD@?$AAm?$AAs?$AA?9?$AAB?$AAN?$AA?$AA@ 10022620     libucrt:lcidtoname_downlevel.obj
 0002:0000462c       ??_C@_1BG@PBGJMCEM@?$AAu?$AAz?$AA?9?$AAU?$AAZ?$AA?9?$AAC?$AAy?$AAr?$AAl?$AA?$AA@ 1002262c     libucrt:lcidtoname_downlevel.obj
 0002:00004644       ??_C@_1O@LAOBCMDF@?$AAq?$AAu?$AAz?$AA?9?$AAE?$AAC?$AA?$AA@ 10022644     libucrt:lcidtoname_downlevel.obj
 0002:00004654       ??_C@_1M@POEEMAIO@?$AAa?$AAr?$AA?9?$AAE?$AAG?$AA?$AA@ 10022654     libucrt:lcidtoname_downlevel.obj
 0002:00004660       ??_C@_1M@EFAKDEDL@?$AAz?$AAh?$AA?9?$AAH?$AAK?$AA?$AA@ 10022660     libucrt:lcidtoname_downlevel.obj
 0002:0000466c       ??_C@_1M@HKKIJHGI@?$AAd?$AAe?$AA?9?$AAA?$AAT?$AA?$AA@ 1002266c     libucrt:lcidtoname_downlevel.obj
 0002:00004678       ??_C@_1M@KBFBEHJF@?$AAe?$AAn?$AA?9?$AAA?$AAU?$AA?$AA@ 10022678     libucrt:lcidtoname_downlevel.obj
 0002:00004684       ??_C@_1M@MNPLFAAH@?$AAe?$AAs?$AA?9?$AAE?$AAS?$AA?$AA@ 10022684     libucrt:lcidtoname_downlevel.obj
 0002:00004690       ??_C@_1M@HJOOJFMA@?$AAf?$AAr?$AA?9?$AAC?$AAA?$AA?$AA@ 10022690     libucrt:lcidtoname_downlevel.obj
 0002:0000469c       ??_C@_1BG@JPOFPNAB@?$AAs?$AAr?$AA?9?$AAS?$AAP?$AA?9?$AAC?$AAy?$AAr?$AAl?$AA?$AA@ 1002269c     libucrt:lcidtoname_downlevel.obj
 0002:000046b4       ??_C@_1M@LNFOCMOB@?$AAs?$AAe?$AA?9?$AAF?$AAI?$AA?$AA@ 100226b4     libucrt:lcidtoname_downlevel.obj
 0002:000046c0       ??_C@_1O@MGJBOAMB@?$AAq?$AAu?$AAz?$AA?9?$AAP?$AAE?$AA?$AA@ 100226c0     libucrt:lcidtoname_downlevel.obj
 0002:000046d0       ??_C@_1M@GJINLBOK@?$AAa?$AAr?$AA?9?$AAL?$AAY?$AA?$AA@ 100226d0     libucrt:lcidtoname_downlevel.obj
 0002:000046dc       ??_C@_1M@GGMNHJNL@?$AAz?$AAh?$AA?9?$AAS?$AAG?$AA?$AA@ 100226dc     libucrt:lcidtoname_downlevel.obj
 0002:000046e8       ??_C@_1M@HOIKODND@?$AAd?$AAe?$AA?9?$AAL?$AAU?$AA?$AA@ 100226e8     libucrt:lcidtoname_downlevel.obj
 0002:000046f4       ??_C@_1M@DDOCCGFG@?$AAe?$AAn?$AA?9?$AAC?$AAA?$AA?$AA@ 100226f4     libucrt:lcidtoname_downlevel.obj
 0002:00004700       ??_C@_1M@BNOEMJLF@?$AAe?$AAs?$AA?9?$AAG?$AAT?$AA?$AA@ 10022700     libucrt:lcidtoname_downlevel.obj
 0002:0000470c       ??_C@_1M@EOGNKEK@?$AAf?$AAr?$AA?9?$AAC?$AAH?$AA?$AA@ 1002270c     libucrt:lcidtoname_downlevel.obj
 0002:00004718       ??_C@_1M@FLIDJFHL@?$AAh?$AAr?$AA?9?$AAB?$AAA?$AA?$AA@ 10022718     libucrt:lcidtoname_downlevel.obj
 0002:00004724       ??_C@_1O@FMCELNAJ@?$AAs?$AAm?$AAj?$AA?9?$AAN?$AAO?$AA?$AA@ 10022724     libucrt:lcidtoname_downlevel.obj
 0002:00004734       ??_C@_1M@JHGLJMGJ@?$AAa?$AAr?$AA?9?$AAD?$AAZ?$AA?$AA@ 10022734     libucrt:lcidtoname_downlevel.obj
 0002:00004740       ??_C@_1M@JKKFDCNP@?$AAz?$AAh?$AA?9?$AAM?$AAO?$AA?$AA@ 10022740     libucrt:lcidtoname_downlevel.obj
 0002:0000474c       ??_C@_1M@GEEFALPE@?$AAd?$AAe?$AA?9?$AAL?$AAI?$AA?$AA@ 1002274c     libucrt:lcidtoname_downlevel.obj
 0002:00004758       ??_C@_1M@IGEOFBG@?$AAe?$AAn?$AA?9?$AAN?$AAZ?$AA?$AA@ 10022758     libucrt:lcidtoname_downlevel.obj
 0002:00004764       ??_C@_1M@KDBONEHP@?$AAe?$AAs?$AA?9?$AAC?$AAR?$AA?$AA@ 10022764     libucrt:lcidtoname_downlevel.obj
 0002:00004770       ??_C@_1M@FHMDOHNN@?$AAf?$AAr?$AA?9?$AAL?$AAU?$AA?$AA@ 10022770     libucrt:lcidtoname_downlevel.obj
 0002:0000477c       ??_C@_1BG@NFKKMAFG@?$AAb?$AAs?$AA?9?$AAB?$AAA?$AA?9?$AAL?$AAa?$AAt?$AAn?$AA?$AA@ 1002277c     libucrt:lcidtoname_downlevel.obj
 0002:00004794       ??_C@_1O@IMNBEMCI@?$AAs?$AAm?$AAj?$AA?9?$AAS?$AAE?$AA?$AA@ 10022794     libucrt:lcidtoname_downlevel.obj
 0002:000047a4       ??_C@_1M@DHHMBNDP@?$AAa?$AAr?$AA?9?$AAM?$AAA?$AA?$AA@ 100227a4     libucrt:lcidtoname_downlevel.obj
 0002:000047b0       ??_C@_1M@BNBLJCGH@?$AAe?$AAn?$AA?9?$AAI?$AAE?$AA?$AA@ 100227b0     libucrt:lcidtoname_downlevel.obj
 0002:000047bc       ??_C@_1M@GEPAFMDL@?$AAe?$AAs?$AA?9?$AAP?$AAA?$AA?$AA@ 100227bc     libucrt:lcidtoname_downlevel.obj
 0002:000047c8       ??_C@_1M@OJONDMDL@?$AAf?$AAr?$AA?9?$AAM?$AAC?$AA?$AA@ 100227c8     libucrt:lcidtoname_downlevel.obj
 0002:000047d4       ??_C@_1BG@OBCNFJB@?$AAs?$AAr?$AA?9?$AAB?$AAA?$AA?9?$AAL?$AAa?$AAt?$AAn?$AA?$AA@ 100227d4     libucrt:lcidtoname_downlevel.obj
 0002:000047ec       ??_C@_1O@KEMEEGPO@?$AAs?$AAm?$AAa?$AA?9?$AAN?$AAO?$AA?$AA@ 100227ec     libucrt:lcidtoname_downlevel.obj
 0002:000047fc       ??_C@_1M@ELMGFODK@?$AAa?$AAr?$AA?9?$AAT?$AAN?$AA?$AA@ 100227fc     libucrt:lcidtoname_downlevel.obj
 0002:00004808       ??_C@_1M@BHDLHFAF@?$AAe?$AAn?$AA?9?$AAZ?$AAA?$AA?$AA@ 10022808     libucrt:lcidtoname_downlevel.obj
 0002:00004814       ??_C@_1M@BMGIGLIF@?$AAe?$AAs?$AA?9?$AAD?$AAO?$AA?$AA@ 10022814     libucrt:lcidtoname_downlevel.obj
 0002:00004820       ??_C@_1BG@CMBHIPBE@?$AAs?$AAr?$AA?9?$AAB?$AAA?$AA?9?$AAC?$AAy?$AAr?$AAl?$AA?$AA@ 10022820     libucrt:lcidtoname_downlevel.obj
 0002:00004838       ??_C@_1O@HEDBLHNP@?$AAs?$AAm?$AAa?$AA?9?$AAS?$AAE?$AA?$AA@ 10022838     libucrt:lcidtoname_downlevel.obj
 0002:00004848       ??_C@_1M@DAGCADIM@?$AAa?$AAr?$AA?9?$AAO?$AAM?$AA?$AA@ 10022848     libucrt:lcidtoname_downlevel.obj
 0002:00004854       ??_C@_1M@FODLMICG@?$AAe?$AAn?$AA?9?$AAJ?$AAM?$AA?$AA@ 10022854     libucrt:lcidtoname_downlevel.obj
 0002:00004860       ??_C@_1M@DNMLCIHB@?$AAe?$AAs?$AA?9?$AAV?$AAE?$AA?$AA@ 10022860     libucrt:lcidtoname_downlevel.obj
 0002:0000486c       ??_C@_1O@EOKHMKJK@?$AAs?$AAm?$AAs?$AA?9?$AAF?$AAI?$AA?$AA@ 1002286c     libucrt:lcidtoname_downlevel.obj
 0002:0000487c       ??_C@_1M@CAFJMKOF@?$AAa?$AAr?$AA?9?$AAY?$AAE?$AA?$AA@ 1002287c     libucrt:lcidtoname_downlevel.obj
 0002:00004888       ??_C@_1M@CBFHIJLI@?$AAe?$AAn?$AA?9?$AAC?$AAB?$AA?$AA@ 10022888     libucrt:lcidtoname_downlevel.obj
 0002:00004894       ??_C@_1M@BGNFLDN@?$AAe?$AAs?$AA?9?$AAC?$AAO?$AA?$AA@ 10022894     libucrt:lcidtoname_downlevel.obj
 0002:000048a0       ??_C@_1O@JMPHMAMC@?$AAs?$AAm?$AAn?$AA?9?$AAF?$AAI?$AA?$AA@ 100228a0     libucrt:lcidtoname_downlevel.obj
 0002:000048b0       ??_C@_1M@JLANABKE@?$AAa?$AAr?$AA?9?$AAS?$AAY?$AA?$AA@ 100228b0     libucrt:lcidtoname_downlevel.obj
 0002:000048bc       ??_C@_1M@HPKGCFGN@?$AAe?$AAn?$AA?9?$AAB?$AAZ?$AA?$AA@ 100228bc     libucrt:lcidtoname_downlevel.obj
 0002:000048c8       ??_C@_1M@OLJCMLGM@?$AAe?$AAs?$AA?9?$AAP?$AAE?$AA?$AA@ 100228c8     libucrt:lcidtoname_downlevel.obj
 0002:000048d4       ??_C@_1M@MKKGFKLE@?$AAa?$AAr?$AA?9?$AAJ?$AAO?$AA?$AA@ 100228d4     libucrt:lcidtoname_downlevel.obj
 0002:000048e0       ??_C@_1M@EKPGLDNI@?$AAe?$AAn?$AA?9?$AAT?$AAT?$AA?$AA@ 100228e0     libucrt:lcidtoname_downlevel.obj
 0002:000048ec       ??_C@_1M@OONGHFHE@?$AAe?$AAs?$AA?9?$AAA?$AAR?$AA?$AA@ 100228ec     libucrt:lcidtoname_downlevel.obj
 0002:000048f8       ??_C@_1M@OOJFGBHE@?$AAa?$AAr?$AA?9?$AAL?$AAB?$AA?$AA@ 100228f8     libucrt:lcidtoname_downlevel.obj
 0002:00004904       ??_C@_1M@GCEJHNEG@?$AAe?$AAn?$AA?9?$AAZ?$AAW?$AA?$AA@ 10022904     libucrt:lcidtoname_downlevel.obj
 0002:00004910       ??_C@_1M@JNOCAHJI@?$AAe?$AAs?$AA?9?$AAE?$AAC?$AA?$AA@ 10022910     libucrt:lcidtoname_downlevel.obj
 0002:0000491c       ??_C@_1M@JEFHPGGB@?$AAa?$AAr?$AA?9?$AAK?$AAW?$AA?$AA@ 1002291c     libucrt:lcidtoname_downlevel.obj
 0002:00004928       ??_C@_1M@MLKIBJOJ@?$AAe?$AAn?$AA?9?$AAP?$AAH?$AA?$AA@ 10022928     libucrt:lcidtoname_downlevel.obj
 0002:00004934       ??_C@_1M@BDNIPEND@?$AAe?$AAs?$AA?9?$AAC?$AAL?$AA?$AA@ 10022934     libucrt:lcidtoname_downlevel.obj
 0002:00004940       ??_C@_1M@MPNMEKBD@?$AAa?$AAr?$AA?9?$AAA?$AAE?$AA?$AA@ 10022940     libucrt:lcidtoname_downlevel.obj
 0002:0000494c       ??_C@_1M@KBJALCPI@?$AAe?$AAs?$AA?9?$AAU?$AAY?$AA?$AA@ 1002294c     libucrt:lcidtoname_downlevel.obj
 0002:00004958       ??_C@_1M@LLCCOAGA@?$AAa?$AAr?$AA?9?$AAB?$AAH?$AA?$AA@ 10022958     libucrt:lcidtoname_downlevel.obj
 0002:00004964       ??_C@_1M@PBFNCDEL@?$AAe?$AAs?$AA?9?$AAP?$AAY?$AA?$AA@ 10022964     libucrt:lcidtoname_downlevel.obj
 0002:00004970       ??_C@_1M@EDGINPNP@?$AAa?$AAr?$AA?9?$AAQ?$AAA?$AA?$AA@ 10022970     libucrt:lcidtoname_downlevel.obj
 0002:0000497c       ??_C@_1M@MKDBIIJI@?$AAe?$AAs?$AA?9?$AAB?$AAO?$AA?$AA@ 1002297c     libucrt:lcidtoname_downlevel.obj
 0002:00004988       ??_C@_1M@CPKKEBLD@?$AAe?$AAs?$AA?9?$AAS?$AAV?$AA?$AA@ 10022988     libucrt:lcidtoname_downlevel.obj
 0002:00004994       ??_C@_1M@NDBGMMJL@?$AAe?$AAs?$AA?9?$AAH?$AAN?$AA?$AA@ 10022994     libucrt:lcidtoname_downlevel.obj
 0002:000049a0       ??_C@_1M@JIJIBHDP@?$AAe?$AAs?$AA?9?$AAN?$AAI?$AA?$AA@ 100229a0     libucrt:lcidtoname_downlevel.obj
 0002:000049ac       ??_C@_1M@CGFMKEEK@?$AAe?$AAs?$AA?9?$AAP?$AAR?$AA?$AA@ 100229ac     libucrt:lcidtoname_downlevel.obj
 0002:000049b8       ??_C@_1O@ICJHKIIK@?$AAz?$AAh?$AA?9?$AAC?$AAH?$AAT?$AA?$AA@ 100229b8     libucrt:lcidtoname_downlevel.obj
 0002:000049c8       ??_C@_15CLNEJCE@?$AAs?$AAr?$AA?$AA@ 100229c8     libucrt:lcidtoname_downlevel.obj
 0002:000050f0       ??_C@_1M@KAHEKEIG@?$AAa?$AAf?$AA?9?$AAz?$AAa?$AA?$AA@ 100230f0     libucrt:lcidtoname_downlevel.obj
 0002:000050fc       ??_C@_1M@GIECOABL@?$AAa?$AAr?$AA?9?$AAa?$AAe?$AA?$AA@ 100230fc     libucrt:lcidtoname_downlevel.obj
 0002:00005108       ??_C@_1M@BMLMEKGI@?$AAa?$AAr?$AA?9?$AAb?$AAh?$AA?$AA@ 10023108     libucrt:lcidtoname_downlevel.obj
 0002:00005114       ??_C@_1M@DAPFDGGB@?$AAa?$AAr?$AA?9?$AAd?$AAz?$AA?$AA@ 10023114     libucrt:lcidtoname_downlevel.obj
 0002:00005120       ??_C@_1M@FJNKGKIG@?$AAa?$AAr?$AA?9?$AAe?$AAg?$AA?$AA@ 10023120     libucrt:lcidtoname_downlevel.obj
 0002:0000512c       ??_C@_1M@FLGKKCLO@?$AAa?$AAr?$AA?9?$AAi?$AAq?$AA?$AA@ 1002312c     libucrt:lcidtoname_downlevel.obj
 0002:00005138       ??_C@_1M@GNDIPALM@?$AAa?$AAr?$AA?9?$AAj?$AAo?$AA?$AA@ 10023138     libucrt:lcidtoname_downlevel.obj
 0002:00005144       ??_C@_1M@DDMJFMGJ@?$AAa?$AAr?$AA?9?$AAk?$AAw?$AA?$AA@ 10023144     libucrt:lcidtoname_downlevel.obj
 0002:00005150       ??_C@_1M@EJALMLHM@?$AAa?$AAr?$AA?9?$AAl?$AAb?$AA?$AA@ 10023150     libucrt:lcidtoname_downlevel.obj
 0002:0000515c       ??_C@_1M@MOBDBLOC@?$AAa?$AAr?$AA?9?$AAl?$AAy?$AA?$AA@ 1002315c     libucrt:lcidtoname_downlevel.obj
 0002:00005168       ??_C@_1M@JAOCLHDH@?$AAa?$AAr?$AA?9?$AAm?$AAa?$AA?$AA@ 10023168     libucrt:lcidtoname_downlevel.obj
 0002:00005174       ??_C@_1M@JHPMKJIE@?$AAa?$AAr?$AA?9?$AAo?$AAm?$AA?$AA@ 10023174     libucrt:lcidtoname_downlevel.obj
 0002:00005180       ??_C@_1M@OEPGHFNH@?$AAa?$AAr?$AA?9?$AAq?$AAa?$AA?$AA@ 10023180     libucrt:lcidtoname_downlevel.obj
 0002:0000518c       ??_C@_1M@KJDONENM@?$AAa?$AAr?$AA?9?$AAs?$AAa?$AA?$AA@ 1002318c     libucrt:lcidtoname_downlevel.obj
 0002:00005198       ??_C@_1M@DMJDKLKM@?$AAa?$AAr?$AA?9?$AAs?$AAy?$AA?$AA@ 10023198     libucrt:lcidtoname_downlevel.obj
 0002:000051a4       ??_C@_1M@OMFIPEDC@?$AAa?$AAr?$AA?9?$AAt?$AAn?$AA?$AA@ 100231a4     libucrt:lcidtoname_downlevel.obj
 0002:000051b0       ??_C@_1M@IHMHGAON@?$AAa?$AAr?$AA?9?$AAy?$AAe?$AA?$AA@ 100231b0     libucrt:lcidtoname_downlevel.obj
 0002:000051bc       ??_C@_1BG@KDCPGJGB@?$AAa?$AAz?$AA?9?$AAa?$AAz?$AA?9?$AAc?$AAy?$AAr?$AAl?$AA?$AA@ 100231bc     libucrt:lcidtoname_downlevel.obj
 0002:000051d4       ??_C@_1BG@IBCKDDOE@?$AAa?$AAz?$AA?9?$AAa?$AAz?$AA?9?$AAl?$AAa?$AAt?$AAn?$AA?$AA@ 100231d4     libucrt:lcidtoname_downlevel.obj
 0002:000051ec       ??_C@_1M@EGPFDCPD@?$AAb?$AAe?$AA?9?$AAb?$AAy?$AA?$AA@ 100231ec     libucrt:lcidtoname_downlevel.obj
 0002:000051f8       ??_C@_1M@PCMGMCGC@?$AAb?$AAg?$AA?9?$AAb?$AAg?$AA?$AA@ 100231f8     libucrt:lcidtoname_downlevel.obj
 0002:00005204       ??_C@_1M@BJBMFGOB@?$AAb?$AAn?$AA?9?$AAi?$AAn?$AA?$AA@ 10023204     libucrt:lcidtoname_downlevel.obj
 0002:00005210       ??_C@_1BG@EAKMMACD@?$AAb?$AAs?$AA?9?$AAb?$AAa?$AA?9?$AAl?$AAa?$AAt?$AAn?$AA?$AA@ 10023210     libucrt:lcidtoname_downlevel.obj
 0002:00005228       ??_C@_1M@KGADAODK@?$AAc?$AAa?$AA?9?$AAe?$AAs?$AA?$AA@ 10023228     libucrt:lcidtoname_downlevel.obj
 0002:00005234       ??_C@_1M@COAJPDHI@?$AAc?$AAs?$AA?9?$AAc?$AAz?$AA?$AA@ 10023234     libucrt:lcidtoname_downlevel.obj
 0002:00005240       ??_C@_1M@DHBHFONH@?$AAc?$AAy?$AA?9?$AAg?$AAb?$AA?$AA@ 10023240     libucrt:lcidtoname_downlevel.obj
 0002:0000524c       ??_C@_1M@IMGKELGA@?$AAd?$AAa?$AA?9?$AAd?$AAk?$AA?$AA@ 1002324c     libucrt:lcidtoname_downlevel.obj
 0002:00005258       ??_C@_1M@NNDGDNGA@?$AAd?$AAe?$AA?9?$AAa?$AAt?$AA?$AA@ 10023258     libucrt:lcidtoname_downlevel.obj
 0002:00005264       ??_C@_1M@IKDBHEEM@?$AAd?$AAe?$AA?9?$AAc?$AAh?$AA?$AA@ 10023264     libucrt:lcidtoname_downlevel.obj
 0002:00005270       ??_C@_1M@GFFOJMCJ@?$AAd?$AAe?$AA?9?$AAd?$AAe?$AA?$AA@ 10023270     libucrt:lcidtoname_downlevel.obj
 0002:0000527c       ??_C@_1M@MDNLKBPM@?$AAd?$AAe?$AA?9?$AAl?$AAi?$AA?$AA@ 1002327c     libucrt:lcidtoname_downlevel.obj
 0002:00005288       ??_C@_1M@NJBEEJNL@?$AAd?$AAe?$AA?9?$AAl?$AAu?$AA?$AA@ 10023288     libucrt:lcidtoname_downlevel.obj
 0002:00005294       ??_C@_1O@GNNELBAP@?$AAd?$AAi?$AAv?$AA?9?$AAm?$AAv?$AA?$AA@ 10023294     libucrt:lcidtoname_downlevel.obj
 0002:000052a4       ??_C@_1M@EJLEOGAE@?$AAe?$AAl?$AA?9?$AAg?$AAr?$AA?$AA@ 100232a4     libucrt:lcidtoname_downlevel.obj
 0002:000052b0       ??_C@_1M@GMPONJN@?$AAe?$AAn?$AA?9?$AAa?$AAu?$AA?$AA@ 100232b0     libucrt:lcidtoname_downlevel.obj
 0002:000052bc       ??_C@_1M@NIDIIPGF@?$AAe?$AAn?$AA?9?$AAb?$AAz?$AA?$AA@ 100232bc     libucrt:lcidtoname_downlevel.obj
 0002:000052c8       ??_C@_1M@JEHMIMFO@?$AAe?$AAn?$AA?9?$AAc?$AAa?$AA?$AA@ 100232c8     libucrt:lcidtoname_downlevel.obj
 0002:000052d4       ??_C@_1M@IGMJCDLA@?$AAe?$AAn?$AA?9?$AAc?$AAb?$AA?$AA@ 100232d4     libucrt:lcidtoname_downlevel.obj
 0002:000052e0       ??_C@_1M@BNFIGBKG@?$AAe?$AAn?$AA?9?$AAg?$AAb?$AA?$AA@ 100232e0     libucrt:lcidtoname_downlevel.obj
 0002:000052ec       ??_C@_1M@LKIFDIGP@?$AAe?$AAn?$AA?9?$AAi?$AAe?$AA?$AA@ 100232ec     libucrt:lcidtoname_downlevel.obj
 0002:000052f8       ??_C@_1M@PJKFGCCO@?$AAe?$AAn?$AA?9?$AAj?$AAm?$AA?$AA@ 100232f8     libucrt:lcidtoname_downlevel.obj
 0002:00005304       ??_C@_1M@KPPKEPBO@?$AAe?$AAn?$AA?9?$AAn?$AAz?$AA?$AA@ 10023304     libucrt:lcidtoname_downlevel.obj
 0002:00005310       ??_C@_1M@GMDGLDOB@?$AAe?$AAn?$AA?9?$AAp?$AAh?$AA?$AA@ 10023310     libucrt:lcidtoname_downlevel.obj
 0002:0000531c       ??_C@_1M@ONGIBJNA@?$AAe?$AAn?$AA?9?$AAt?$AAt?$AA?$AA@ 1002331c     libucrt:lcidtoname_downlevel.obj
 0002:00005328       ??_C@_1M@LLODPCMM@?$AAe?$AAn?$AA?9?$AAu?$AAs?$AA?$AA@ 10023328     libucrt:lcidtoname_downlevel.obj
 0002:00005334       ??_C@_1M@LAKFNPAN@?$AAe?$AAn?$AA?9?$AAz?$AAa?$AA?$AA@ 10023334     libucrt:lcidtoname_downlevel.obj
 0002:00005340       ??_C@_1M@MFNHNHEO@?$AAe?$AAn?$AA?9?$AAz?$AAw?$AA?$AA@ 10023340     libucrt:lcidtoname_downlevel.obj
 0002:0000534c       ??_C@_1M@EJEINPHM@?$AAe?$AAs?$AA?9?$AAa?$AAr?$AA?$AA@ 1002334c     libucrt:lcidtoname_downlevel.obj
 0002:00005358       ??_C@_1M@GNKPCCJA@?$AAe?$AAs?$AA?9?$AAb?$AAo?$AA?$AA@ 10023358     libucrt:lcidtoname_downlevel.obj
 0002:00005364       ??_C@_1M@LEEGFONL@?$AAe?$AAs?$AA?9?$AAc?$AAl?$AA?$AA@ 10023364     libucrt:lcidtoname_downlevel.obj
 0002:00005370       ??_C@_1M@KGPDPBDF@?$AAe?$AAs?$AA?9?$AAc?$AAo?$AA?$AA@ 10023370     libucrt:lcidtoname_downlevel.obj
 0002:0000537c       ??_C@_1M@EIAHOHH@?$AAe?$AAs?$AA?9?$AAc?$AAr?$AA?$AA@ 1002337c     libucrt:lcidtoname_downlevel.obj
 0002:00005388       ??_C@_1M@LLPGMBIN@?$AAe?$AAs?$AA?9?$AAd?$AAo?$AA?$AA@ 10023388     libucrt:lcidtoname_downlevel.obj
 0002:00005394       ??_C@_1M@DKHMKNJA@?$AAe?$AAs?$AA?9?$AAe?$AAc?$AA?$AA@ 10023394     libucrt:lcidtoname_downlevel.obj
 0002:000053a0       ??_C@_1M@GKGFPKAP@?$AAe?$AAs?$AA?9?$AAe?$AAs?$AA?$AA@ 100233a0     libucrt:lcidtoname_downlevel.obj
 0002:000053ac       ??_C@_1M@LKHKGDLN@?$AAe?$AAs?$AA?9?$AAg?$AAt?$AA?$AA@ 100233ac     libucrt:lcidtoname_downlevel.obj
 0002:000053b8       ??_C@_1M@HEIIGGJD@?$AAe?$AAs?$AA?9?$AAh?$AAn?$AA?$AA@ 100233b8     libucrt:lcidtoname_downlevel.obj
 0002:000053c4       ??_C@_1M@FBDHPPGD@?$AAe?$AAs?$AA?9?$AAm?$AAx?$AA?$AA@ 100233c4     libucrt:lcidtoname_downlevel.obj
 0002:000053d0       ??_C@_1M@DPAGLNDH@?$AAe?$AAs?$AA?9?$AAn?$AAi?$AA?$AA@ 100233d0     libucrt:lcidtoname_downlevel.obj
 0002:000053dc       ??_C@_1M@MDGOPGDD@?$AAe?$AAs?$AA?9?$AAp?$AAa?$AA?$AA@ 100233dc     libucrt:lcidtoname_downlevel.obj
 0002:000053e8       ??_C@_1M@EMAMGBGE@?$AAe?$AAs?$AA?9?$AAp?$AAe?$AA?$AA@ 100233e8     libucrt:lcidtoname_downlevel.obj
 0002:000053f4       ??_C@_1M@IBMCAOEC@?$AAe?$AAs?$AA?9?$AAp?$AAr?$AA?$AA@ 100233f4     libucrt:lcidtoname_downlevel.obj
 0002:00005400       ??_C@_1M@FGMDIJED@?$AAe?$AAs?$AA?9?$AAp?$AAy?$AA?$AA@ 10023400     libucrt:lcidtoname_downlevel.obj
 0002:0000540c       ??_C@_1M@IIDEOLLL@?$AAe?$AAs?$AA?9?$AAs?$AAv?$AA?$AA@ 1002340c     libucrt:lcidtoname_downlevel.obj
 0002:00005418       ??_C@_1M@GAOBIPA@?$AAe?$AAs?$AA?9?$AAu?$AAy?$AA?$AA@ 10023418     libucrt:lcidtoname_downlevel.obj
 0002:00005424       ??_C@_1M@JKFFICHJ@?$AAe?$AAs?$AA?9?$AAv?$AAe?$AA?$AA@ 10023424     libucrt:lcidtoname_downlevel.obj
 0002:00005430       ??_C@_1M@PNMLOJDF@?$AAe?$AAt?$AA?9?$AAe?$AAe?$AA?$AA@ 10023430     libucrt:lcidtoname_downlevel.obj
 0002:0000543c       ??_C@_1M@GHHLIKEI@?$AAe?$AAu?$AA?9?$AAe?$AAs?$AA?$AA@ 1002343c     libucrt:lcidtoname_downlevel.obj
 0002:00005448       ??_C@_1M@PBNONODE@?$AAf?$AAa?$AA?9?$AAi?$AAr?$AA?$AA@ 10023448     libucrt:lcidtoname_downlevel.obj
 0002:00005454       ??_C@_1M@JEEHPMIL@?$AAf?$AAi?$AA?9?$AAf?$AAi?$AA?$AA@ 10023454     libucrt:lcidtoname_downlevel.obj
 0002:00005460       ??_C@_1M@LMDCNDBA@?$AAf?$AAo?$AA?9?$AAf?$AAo?$AA?$AA@ 10023460     libucrt:lcidtoname_downlevel.obj
 0002:0000546c       ??_C@_1M@JKEOHLDK@?$AAf?$AAr?$AA?9?$AAb?$AAe?$AA?$AA@ 1002346c     libucrt:lcidtoname_downlevel.obj
 0002:00005478       ??_C@_1M@NOHADPMI@?$AAf?$AAr?$AA?9?$AAc?$AAa?$AA?$AA@ 10023478     libucrt:lcidtoname_downlevel.obj
 0002:00005484       ??_C@_1M@KDHIHAEC@?$AAf?$AAr?$AA?9?$AAc?$AAh?$AA?$AA@ 10023484     libucrt:lcidtoname_downlevel.obj
 0002:00005490       ??_C@_1M@MMBBFGAK@?$AAf?$AAr?$AA?9?$AAf?$AAr?$AA?$AA@ 10023490     libucrt:lcidtoname_downlevel.obj
 0002:0000549c       ??_C@_1M@PAFNENNF@?$AAf?$AAr?$AA?9?$AAl?$AAu?$AA?$AA@ 1002349c     libucrt:lcidtoname_downlevel.obj
 0002:000054a8       ??_C@_1M@EOHDJGDD@?$AAf?$AAr?$AA?9?$AAm?$AAc?$AA?$AA@ 100234a8     libucrt:lcidtoname_downlevel.obj
 0002:000054b4       ??_C@_1M@FAPLLOPF@?$AAg?$AAl?$AA?9?$AAe?$AAs?$AA?$AA@ 100234b4     libucrt:lcidtoname_downlevel.obj
 0002:000054c0       ??_C@_1M@FOPBFLOO@?$AAg?$AAu?$AA?9?$AAi?$AAn?$AA?$AA@ 100234c0     libucrt:lcidtoname_downlevel.obj
 0002:000054cc       ??_C@_1M@KBMCINPM@?$AAh?$AAe?$AA?9?$AAi?$AAl?$AA?$AA@ 100234cc     libucrt:lcidtoname_downlevel.obj
 0002:000054d8       ??_C@_1M@BBPHKFPJ@?$AAh?$AAi?$AA?9?$AAi?$AAn?$AA?$AA@ 100234d8     libucrt:lcidtoname_downlevel.obj
 0002:000054e4       ??_C@_1M@PMBNDPHD@?$AAh?$AAr?$AA?9?$AAb?$AAa?$AA?$AA@ 100234e4     libucrt:lcidtoname_downlevel.obj
 0002:000054f0       ??_C@_1M@BPCKOEGE@?$AAh?$AAr?$AA?9?$AAh?$AAr?$AA?$AA@ 100234f0     libucrt:lcidtoname_downlevel.obj
 0002:000054fc       ??_C@_1M@GACBMHKE@?$AAh?$AAu?$AA?9?$AAh?$AAu?$AA?$AA@ 100234fc     libucrt:lcidtoname_downlevel.obj
 0002:00005508       ??_C@_1M@MILPAJJC@?$AAh?$AAy?$AA?9?$AAa?$AAm?$AA?$AA@ 10023508     libucrt:lcidtoname_downlevel.obj
 0002:00005514       ??_C@_1M@BABBICEC@?$AAi?$AAd?$AA?9?$AAi?$AAd?$AA?$AA@ 10023514     libucrt:lcidtoname_downlevel.obj
 0002:00005520       ??_C@_1M@BIKNHHPF@?$AAi?$AAs?$AA?9?$AAi?$AAs?$AA?$AA@ 10023520     libucrt:lcidtoname_downlevel.obj
 0002:0000552c       ??_C@_1M@NMPCJPHE@?$AAi?$AAt?$AA?9?$AAc?$AAh?$AA?$AA@ 1002352c     libucrt:lcidtoname_downlevel.obj
 0002:00005538       ??_C@_1M@GHKGFEDF@?$AAi?$AAt?$AA?9?$AAi?$AAt?$AA?$AA@ 10023538     libucrt:lcidtoname_downlevel.obj
 0002:00005544       ??_C@_1M@NIEJCJJA@?$AAj?$AAa?$AA?9?$AAj?$AAp?$AA?$AA@ 10023544     libucrt:lcidtoname_downlevel.obj
 0002:00005550       ??_C@_1M@JILFNBIM@?$AAk?$AAa?$AA?9?$AAg?$AAe?$AA?$AA@ 10023550     libucrt:lcidtoname_downlevel.obj
 0002:0000555c       ??_C@_1M@PACPMGPH@?$AAk?$AAk?$AA?9?$AAk?$AAz?$AA?$AA@ 1002355c     libucrt:lcidtoname_downlevel.obj
 0002:00005568       ??_C@_1M@IELFGMHA@?$AAk?$AAn?$AA?9?$AAi?$AAn?$AA?$AA@ 10023568     libucrt:lcidtoname_downlevel.obj
 0002:00005574       ??_C@_1O@IBBJHCH@?$AAk?$AAo?$AAk?$AA?9?$AAi?$AAn?$AA?$AA@ 10023574     libucrt:lcidtoname_downlevel.obj
 0002:00005584       ??_C@_1M@DMHAEOGC@?$AAk?$AAo?$AA?9?$AAk?$AAr?$AA?$AA@ 10023584     libucrt:lcidtoname_downlevel.obj
 0002:00005590       ??_C@_1M@HBAHBIGA@?$AAk?$AAy?$AA?9?$AAk?$AAg?$AA?$AA@ 10023590     libucrt:lcidtoname_downlevel.obj
 0002:0000559c       ??_C@_1M@KPMILCJG@?$AAl?$AAt?$AA?9?$AAl?$AAt?$AA?$AA@ 1002359c     libucrt:lcidtoname_downlevel.obj
 0002:000055a8       ??_C@_1M@BDEKKCA@?$AAl?$AAv?$AA?9?$AAl?$AAv?$AA?$AA@ 100235a8     libucrt:lcidtoname_downlevel.obj
 0002:000055b4       ??_C@_1M@ELCKCCJJ@?$AAm?$AAi?$AA?9?$AAn?$AAz?$AA?$AA@ 100235b4     libucrt:lcidtoname_downlevel.obj
 0002:000055c0       ??_C@_1M@CBOOLAPA@?$AAm?$AAk?$AA?9?$AAm?$AAk?$AA?$AA@ 100235c0     libucrt:lcidtoname_downlevel.obj
 0002:000055cc       ??_C@_1M@GPHNBJKN@?$AAm?$AAl?$AA?9?$AAi?$AAn?$AA?$AA@ 100235cc     libucrt:lcidtoname_downlevel.obj
 0002:000055d8       ??_C@_1M@PABJILIG@?$AAm?$AAn?$AA?9?$AAm?$AAn?$AA?$AA@ 100235d8     libucrt:lcidtoname_downlevel.obj
 0002:000055e4       ??_C@_1M@FGBKKIPG@?$AAm?$AAr?$AA?9?$AAi?$AAn?$AA?$AA@ 100235e4     libucrt:lcidtoname_downlevel.obj
 0002:000055f0       ??_C@_1M@NDBPDDAL@?$AAm?$AAs?$AA?9?$AAb?$AAn?$AA?$AA@ 100235f0     libucrt:lcidtoname_downlevel.obj
 0002:000055fc       ??_C@_1M@OPIHOOPI@?$AAm?$AAs?$AA?9?$AAm?$AAy?$AA?$AA@ 100235fc     libucrt:lcidtoname_downlevel.obj
 0002:00005608       ??_C@_1M@PPDBCNFM@?$AAm?$AAt?$AA?9?$AAm?$AAt?$AA?$AA@ 10023608     libucrt:lcidtoname_downlevel.obj
 0002:00005614       ??_C@_1M@KDJDKMDD@?$AAn?$AAb?$AA?9?$AAn?$AAo?$AA?$AA@ 10023614     libucrt:lcidtoname_downlevel.obj
 0002:00005620       ??_C@_1M@KFCFLMJP@?$AAn?$AAl?$AA?9?$AAb?$AAe?$AA?$AA@ 10023620     libucrt:lcidtoname_downlevel.obj
 0002:0000562c       ??_C@_1M@KPOPDDGO@?$AAn?$AAl?$AA?9?$AAn?$AAl?$AA?$AA@ 1002362c     libucrt:lcidtoname_downlevel.obj
 0002:00005638       ??_C@_1M@LJKPEMLN@?$AAn?$AAn?$AA?9?$AAn?$AAo?$AA?$AA@ 10023638     libucrt:lcidtoname_downlevel.obj
 0002:00005644       ??_C@_1M@BDGHHBFL@?$AAn?$AAs?$AA?9?$AAz?$AAa?$AA?$AA@ 10023644     libucrt:lcidtoname_downlevel.obj
 0002:00005650       ??_C@_1M@IDEHOAP@?$AAp?$AAa?$AA?9?$AAi?$AAn?$AA?$AA@ 10023650     libucrt:lcidtoname_downlevel.obj
 0002:0000565c       ??_C@_1M@HDBKGOGH@?$AAp?$AAl?$AA?9?$AAp?$AAl?$AA?$AA@ 1002365c     libucrt:lcidtoname_downlevel.obj
 0002:00005668       ??_C@_1M@LJLLCMEH@?$AAp?$AAt?$AA?9?$AAb?$AAr?$AA?$AA@ 10023668     libucrt:lcidtoname_downlevel.obj
 0002:00005674       ??_C@_1M@NCMONAAL@?$AAp?$AAt?$AA?9?$AAp?$AAt?$AA?$AA@ 10023674     libucrt:lcidtoname_downlevel.obj
 0002:00005680       ??_C@_1O@EAKMAJDN@?$AAq?$AAu?$AAz?$AA?9?$AAb?$AAo?$AA?$AA@ 10023680     libucrt:lcidtoname_downlevel.obj
 0002:00005690       ??_C@_1O@BHHPIGDN@?$AAq?$AAu?$AAz?$AA?9?$AAe?$AAc?$AA?$AA@ 10023690     libucrt:lcidtoname_downlevel.obj
 0002:000056a0       ??_C@_1O@GBAPEKMJ@?$AAq?$AAu?$AAz?$AA?9?$AAp?$AAe?$AA?$AA@ 100236a0     libucrt:lcidtoname_downlevel.obj
 0002:000056b0       ??_C@_1M@CLGLEFBO@?$AAr?$AAo?$AA?9?$AAr?$AAo?$AA?$AA@ 100236b0     libucrt:lcidtoname_downlevel.obj
 0002:000056bc       ??_C@_1M@CEEDODME@?$AAr?$AAu?$AA?9?$AAr?$AAu?$AA?$AA@ 100236bc     libucrt:lcidtoname_downlevel.obj
 0002:000056c8       ??_C@_1M@HPKKKMPP@?$AAs?$AAa?$AA?9?$AAi?$AAn?$AA?$AA@ 100236c8     libucrt:lcidtoname_downlevel.obj
 0002:000056d4       ??_C@_1M@BKMAIGOJ@?$AAs?$AAe?$AA?9?$AAf?$AAi?$AA?$AA@ 100236d4     libucrt:lcidtoname_downlevel.obj
 0002:000056e0       ??_C@_1M@NDPIFLFI@?$AAs?$AAe?$AA?9?$AAn?$AAo?$AA?$AA@ 100236e0     libucrt:lcidtoname_downlevel.obj
 0002:000056ec       ??_C@_1M@DANKKHJ@?$AAs?$AAe?$AA?9?$AAs?$AAe?$AA?$AA@ 100236ec     libucrt:lcidtoname_downlevel.obj
 0002:000056f8       ??_C@_1M@PNBLONPJ@?$AAs?$AAk?$AA?9?$AAs?$AAk?$AA?$AA@ 100236f8     libucrt:lcidtoname_downlevel.obj
 0002:00005704       ??_C@_1M@LFMODOAL@?$AAs?$AAl?$AA?9?$AAs?$AAi?$AA?$AA@ 10023704     libucrt:lcidtoname_downlevel.obj
 0002:00005710       ??_C@_1O@DFKOMPG@?$AAs?$AAm?$AAa?$AA?9?$AAn?$AAo?$AA?$AA@ 10023710     libucrt:lcidtoname_downlevel.obj
 0002:00005720       ??_C@_1O@NDKPBNNH@?$AAs?$AAm?$AAa?$AA?9?$AAs?$AAe?$AA?$AA@ 10023720     libucrt:lcidtoname_downlevel.obj
 0002:00005730       ??_C@_1O@PLLKBHAB@?$AAs?$AAm?$AAj?$AA?9?$AAn?$AAo?$AA?$AA@ 10023730     libucrt:lcidtoname_downlevel.obj
 0002:00005740       ??_C@_1O@CLEPOGCA@?$AAs?$AAm?$AAj?$AA?9?$AAs?$AAe?$AA?$AA@ 10023740     libucrt:lcidtoname_downlevel.obj
 0002:00005750       ??_C@_1O@DLGJGKMK@?$AAs?$AAm?$AAn?$AA?9?$AAf?$AAi?$AA?$AA@ 10023750     libucrt:lcidtoname_downlevel.obj
 0002:00005760       ??_C@_1O@OJDJGAJC@?$AAs?$AAm?$AAs?$AA?9?$AAf?$AAi?$AA?$AA@ 10023760     libucrt:lcidtoname_downlevel.obj
 0002:00005770       ??_C@_1M@BOFOGHPB@?$AAs?$AAq?$AA?9?$AAa?$AAl?$AA?$AA@ 10023770     libucrt:lcidtoname_downlevel.obj
 0002:0000577c       ??_C@_1BG@LJBBIPGB@?$AAs?$AAr?$AA?9?$AAb?$AAa?$AA?9?$AAc?$AAy?$AAr?$AAl?$AA?$AA@ 1002377c     libucrt:lcidtoname_downlevel.obj
 0002:00005794       ??_C@_1BG@JLBENFOE@?$AAs?$AAr?$AA?9?$AAb?$AAa?$AA?9?$AAl?$AAa?$AAt?$AAn?$AA?$AA@ 10023794     libucrt:lcidtoname_downlevel.obj
 0002:000057ac       ??_C@_1BG@KODPNHE@?$AAs?$AAr?$AA?9?$AAs?$AAp?$AA?9?$AAc?$AAy?$AAr?$AAl?$AA?$AA@ 100237ac     libucrt:lcidtoname_downlevel.obj
 0002:000057c4       ??_C@_1BG@CIOGKHPB@?$AAs?$AAr?$AA?9?$AAs?$AAp?$AA?9?$AAl?$AAa?$AAt?$AAn?$AA?$AA@ 100237c4     libucrt:lcidtoname_downlevel.obj
 0002:000057dc       ??_C@_1M@NGFJLMAC@?$AAs?$AAv?$AA?9?$AAf?$AAi?$AA?$AA@ 100237dc     libucrt:lcidtoname_downlevel.obj
 0002:000057e8       ??_C@_1M@MPJEJAJC@?$AAs?$AAv?$AA?9?$AAs?$AAe?$AA?$AA@ 100237e8     libucrt:lcidtoname_downlevel.obj
 0002:000057f4       ??_C@_1M@MPNDHLFK@?$AAs?$AAw?$AA?9?$AAk?$AAe?$AA?$AA@ 100237f4     libucrt:lcidtoname_downlevel.obj
 0002:00005800       ??_C@_1O@KOHBJJI@?$AAs?$AAy?$AAr?$AA?9?$AAs?$AAy?$AA?$AA@ 10023800     libucrt:lcidtoname_downlevel.obj
 0002:00005810       ??_C@_1M@LDCEFHA@?$AAt?$AAa?$AA?9?$AAi?$AAn?$AA?$AA@ 10023810     libucrt:lcidtoname_downlevel.obj
 0002:0000581c       ??_C@_1M@CNJOFAK@?$AAt?$AAe?$AA?9?$AAi?$AAn?$AA?$AA@ 1002381c     libucrt:lcidtoname_downlevel.obj
 0002:00005828       ??_C@_1M@GNAECACD@?$AAt?$AAh?$AA?9?$AAt?$AAh?$AA?$AA@ 10023828     libucrt:lcidtoname_downlevel.obj
 0002:00005834       ??_C@_1M@CHBIHOJO@?$AAt?$AAn?$AA?9?$AAz?$AAa?$AA?$AA@ 10023834     libucrt:lcidtoname_downlevel.obj
 0002:00005840       ??_C@_1M@GCCMIGPJ@?$AAt?$AAr?$AA?9?$AAt?$AAr?$AA?$AA@ 10023840     libucrt:lcidtoname_downlevel.obj
 0002:0000584c       ??_C@_1M@CELMCNBK@?$AAt?$AAt?$AA?9?$AAr?$AAu?$AA?$AA@ 1002384c     libucrt:lcidtoname_downlevel.obj
 0002:00005858       ??_C@_1M@KLMCELGA@?$AAu?$AAk?$AA?9?$AAu?$AAa?$AA?$AA@ 10023858     libucrt:lcidtoname_downlevel.obj
 0002:00005864       ??_C@_1M@EPAJJAJF@?$AAu?$AAr?$AA?9?$AAp?$AAk?$AA?$AA@ 10023864     libucrt:lcidtoname_downlevel.obj
 0002:00005870       ??_C@_1BG@GEGPMCDJ@?$AAu?$AAz?$AA?9?$AAu?$AAz?$AA?9?$AAc?$AAy?$AAr?$AAl?$AA?$AA@ 10023870     libucrt:lcidtoname_downlevel.obj
 0002:00005888       ??_C@_1BG@EGGKJILM@?$AAu?$AAz?$AA?9?$AAu?$AAz?$AA?9?$AAl?$AAa?$AAt?$AAn?$AA?$AA@ 10023888     libucrt:lcidtoname_downlevel.obj
 0002:000058a0       ??_C@_1M@GFOCLFF@?$AAv?$AAi?$AA?9?$AAv?$AAn?$AA?$AA@ 100238a0     libucrt:lcidtoname_downlevel.obj
 0002:000058ac       ??_C@_1M@CPAMEDFI@?$AAx?$AAh?$AA?9?$AAz?$AAa?$AA?$AA@ 100238ac     libucrt:lcidtoname_downlevel.obj
 0002:000058b8       ??_C@_1O@EBKIFIGN@?$AAz?$AAh?$AA?9?$AAc?$AAh?$AAs?$AA?$AA@ 100238b8     libucrt:lcidtoname_downlevel.obj
 0002:000058c8       ??_C@_1O@NMHPGANE@?$AAz?$AAh?$AA?9?$AAc?$AAh?$AAt?$AA?$AA@ 100238c8     libucrt:lcidtoname_downlevel.obj
 0002:000058d8       ??_C@_1M@LPINJOMC@?$AAz?$AAh?$AA?9?$AAc?$AAn?$AA?$AA@ 100238d8     libucrt:lcidtoname_downlevel.obj
 0002:000058e4       ??_C@_1M@OCJEJODD@?$AAz?$AAh?$AA?9?$AAh?$AAk?$AA?$AA@ 100238e4     libucrt:lcidtoname_downlevel.obj
 0002:000058f0       ??_C@_1M@DNDLJINH@?$AAz?$AAh?$AA?9?$AAm?$AAo?$AA?$AA@ 100238f0     libucrt:lcidtoname_downlevel.obj
 0002:000058fc       ??_C@_1M@MBFDNDND@?$AAz?$AAh?$AA?9?$AAs?$AAg?$AA?$AA@ 100238fc     libucrt:lcidtoname_downlevel.obj
 0002:00005908       ??_C@_1M@IMEPLEPE@?$AAz?$AAh?$AA?9?$AAt?$AAw?$AA?$AA@ 10023908     libucrt:lcidtoname_downlevel.obj
 0002:00005914       ??_C@_1M@BBGHNHJP@?$AAz?$AAu?$AA?9?$AAz?$AAa?$AA?$AA@ 10023914     libucrt:lcidtoname_downlevel.obj
 0002:00005920       ?large_power_data@?1??multiply_by_power_of_ten@__crt_strtox@@YA_NAAUbig_integer@2@I@Z@4QBIB 10023920     libucrt:cfout.obj
 0002:00006228       ?large_power_indices@?1??multiply_by_power_of_ten@__crt_strtox@@YA_NAAUbig_integer@2@I@Z@4QBUunpack_index@?1??12@YA_N0I@Z@B 10024228     libucrt:cfout.obj
 0002:000062c0       ?small_powers_of_ten@?6??multiply_by_power_of_ten@__crt_strtox@@YA_NAAUbig_integer@2@I@Z@4QBIB 100242c0     libucrt:cfout.obj
 0002:000062e4       ??_C@_01GBGANLPD@0?$AA@    100242e4     libucrt:cfout.obj
 0002:000062e8       ??_C@_05DNEBIAHO@1?$CDINF?$AA@ 100242e8     libucrt:cfout.obj
 0002:000062f0       ??_C@_06IMKFLFPG@1?$CDQNAN?$AA@ 100242f0     libucrt:cfout.obj
 0002:000062f8       ??_C@_06PGGFOGJG@1?$CDSNAN?$AA@ 100242f8     libucrt:cfout.obj
 0002:00006300       ??_C@_05PHHOCPM@1?$CDIND?$AA@ 10024300     libucrt:cfout.obj
 0002:00006470       __infinity                 10024470     libucrt:87tran.obj
 0002:0000647a       __minfinity                1002447a     libucrt:87tran.obj
 0002:00006484       __logemax                  10024484     libucrt:87tran.obj
 0002:000064aa       __OP_EXPjmptab             100244aa     libucrt:87tran.obj
 0002:000064d0       __indefinite               100244d0     libucrt:87disp.obj
 0002:000064da       __piby2                    100244da     libucrt:87disp.obj
 0002:000064e4       __piby4                    100244e4     libucrt:87disp.obj
 0002:00006518       __DEFAULT_CW_in_mem        10024518     libucrt:common.obj
 0002:0000651a       __pi_by_2_to_61            1002451a     libucrt:common.obj
 0002:00006554       ??_C@_03MGHMBJCF@log?$AA@  10024554     libucrt:libm_error.obj
 0002:00006558       ??_C@_05HGHHAHAP@log10?$AA@ 10024558     libucrt:libm_error.obj
 0002:00006560       ??_C@_03KHJOGHMM@exp?$AA@  10024560     libucrt:libm_error.obj
 0002:00006564       ??_C@_03JGHBODFD@pow?$AA@  10024564     libucrt:libm_error.obj
 0002:00006568       ??_C@_04FIHNOPOL@asin?$AA@ 10024568     libucrt:libm_error.obj
 0002:00006570       ??_C@_04PDIFKINK@acos?$AA@ 10024570     libucrt:libm_error.obj
 0002:00006578       ??_C@_04EIAKFFMI@sqrt?$AA@ 10024578     libucrt:libm_error.obj
 0002:00006580       __real@3ff0000000000000    10024580     libucrt:libm_error.obj
 0002:000065a0       ___acrt_log10_table_t      100245a0     libucrt:log10_tables.obj
 0002:000069b0       ___acrt_log10_table_cb     100249b0     libucrt:log10_tables.obj
 0002:00006dc0       __real@3fe0000000000000    10024dc0     libucrt:powhlp.obj
 0002:00006dc8       ??_C@_04FJHINJAO@tanh?$AA@ 10024dc8     libucrt:fpexcept.obj
 0002:00006dd0       ??_C@_04MLLJIGOK@atan?$AA@ 10024dd0     libucrt:fpexcept.obj
 0002:00006dd8       ??_C@_05KNGEOGJB@atan2?$AA@ 10024dd8     libucrt:fpexcept.obj
 0002:00006de0       ??_C@_03BLEJJJBH@sin?$AA@  10024de0     libucrt:fpexcept.obj
 0002:00006de4       ??_C@_03LALBNOCG@cos?$AA@  10024de4     libucrt:fpexcept.obj
 0002:00006de8       ??_C@_03IIINPABG@tan?$AA@  10024de8     libucrt:fpexcept.obj
 0002:00006dec       ??_C@_04GFPJNGEK@ceil?$AA@ 10024dec     libucrt:fpexcept.obj
 0002:00006df4       ??_C@_05PBJFFIGL@floor?$AA@ 10024df4     libucrt:fpexcept.obj
 0002:00006dfc       ??_C@_04ODHECPBC@fabs?$AA@ 10024dfc     libucrt:fpexcept.obj
 0002:00006e04       ??_C@_04EHEDPDJG@modf?$AA@ 10024e04     libucrt:fpexcept.obj
 0002:00006e0c       ??_C@_05CEJMAHNP@ldexp?$AA@ 10024e0c     libucrt:fpexcept.obj
 0002:00006e14       ??_C@_05KBKMEMPO@_cabs?$AA@ 10024e14     libucrt:fpexcept.obj
 0002:00006e1c       ??_C@_06MEIMCGCF@_hypot?$AA@ 10024e1c     libucrt:fpexcept.obj
 0002:00006e24       ??_C@_04KEPJIHGP@fmod?$AA@ 10024e24     libucrt:fpexcept.obj
 0002:00006e2c       ??_C@_05GKKHEGJL@frexp?$AA@ 10024e2c     libucrt:fpexcept.obj
 0002:00006e34       ??_C@_03MJLDFKDL@_y0?$AA@  10024e34     libucrt:fpexcept.obj
 0002:00006e38       ??_C@_03NAKIGLHK@_y1?$AA@  10024e38     libucrt:fpexcept.obj
 0002:00006e3c       ??_C@_03ONILCKOB@_yn?$AA@  10024e3c     libucrt:fpexcept.obj
 0002:00006e40       ??_C@_05JGDBENOH@_logb?$AA@ 10024e40     libucrt:fpexcept.obj
 0002:00006e48       ??_C@_0L@KDOEJCKC@_nextafter?$AA@ 10024e48     libucrt:fpexcept.obj
 0002:00006f40       ??_C@_04COOMCNPB@sinh?$AA@ 10024f40     libucrt:fpexcept.obj
 0002:00006f48       ??_C@_04HPJJNFIM@cosh?$AA@ 10024f48     libucrt:fpexcept.obj
 0002:00006f50       __d_inf                    10024f50     libucrt:util.obj
 0002:00006f58       __d_max                    10024f58     libucrt:util.obj
 0002:00006f60       __d_mzero                  10024f60     libucrt:util.obj
 0002:00006f68       ??_C@_1BA@BALFACEM@?$AAC?$AAO?$AAN?$AAO?$AAU?$AAT?$AA$?$AA?$AA@ 10024f68     libucrt:initcon.obj
 0002:00006fd8       __load_config_used         10024fd8     LIBCMT:loadcfg.obj
 0002:00007078       __tls_used                 10025078     LIBCMT:tlssup.obj
 0002:00007090       ??_R4exception@std@@6B@    10025090     LIBCMT:throw_bad_alloc.obj
 0002:000070a4       ??_R3exception@std@@8      100250a4     LIBCMT:throw_bad_alloc.obj
 0002:000070b4       ??_R2exception@std@@8      100250b4     LIBCMT:throw_bad_alloc.obj
 0002:000070bc       ??_R1A@?0A@EA@exception@std@@8 100250bc     LIBCMT:throw_bad_alloc.obj
 0002:000070d8       ??_R4bad_alloc@std@@6B@    100250d8     LIBCMT:throw_bad_alloc.obj
 0002:000070ec       ??_R3bad_alloc@std@@8      100250ec     LIBCMT:throw_bad_alloc.obj
 0002:000070fc       ??_R2bad_alloc@std@@8      100250fc     LIBCMT:throw_bad_alloc.obj
 0002:00007108       ??_R1A@?0A@EA@bad_alloc@std@@8 10025108     LIBCMT:throw_bad_alloc.obj
 0002:00007124       ??_R4bad_array_new_length@std@@6B@ 10025124     LIBCMT:throw_bad_alloc.obj
 0002:00007138       ??_R3bad_array_new_length@std@@8 10025138     LIBCMT:throw_bad_alloc.obj
 0002:00007148       ??_R2bad_array_new_length@std@@8 10025148     LIBCMT:throw_bad_alloc.obj
 0002:00007158       ??_R1A@?0A@EA@bad_array_new_length@std@@8 10025158     LIBCMT:throw_bad_alloc.obj
 0002:00007174       ??_R4type_info@@6B@        10025174     LIBCMT:std_type_info_static.obj
 0002:00007188       ??_R3type_info@@8          10025188     LIBCMT:std_type_info_static.obj
 0002:00007198       ??_R2type_info@@8          10025198     LIBCMT:std_type_info_static.obj
 0002:000071a0       ??_R1A@?0A@EA@type_info@@8 100251a0     LIBCMT:std_type_info_static.obj
 0002:000071bc       ??_R4bad_exception@std@@6B@ 100251bc     libvcruntime:frame.obj
 0002:000071d0       ??_R3bad_exception@std@@8  100251d0     libvcruntime:frame.obj
 0002:000071e0       ??_R2bad_exception@std@@8  100251e0     libvcruntime:frame.obj
 0002:000071ec       ??_R1A@?0A@EA@bad_exception@std@@8 100251ec     libvcruntime:frame.obj
 0002:00007210       ___safe_se_handler_table   10025210     <linker-defined>
 0002:00007610       ___rtc_iaa                 10025610     LIBCMT:initsect.obj
 0002:00007614       ___rtc_izz                 10025614     LIBCMT:initsect.obj
 0002:00007618       ___rtc_taa                 10025618     LIBCMT:initsect.obj
 0002:0000761c       ___rtc_tzz                 1002561c     LIBCMT:initsect.obj
 0002:00007620       __tls_start                10025620     LIBCMT:tlssup.obj
 0002:00007624       __Init_thread_epoch        10025624     LIBCMT:thread_safe_statics.obj
 0002:00007628       __tls_end                  10025628     LIBCMT:tlssup.obj
 0002:00007744       __TI2?AVbad_alloc@std@@    10025744     LIBCMT:throw_bad_alloc.obj
 0002:00007754       __CTA2?AVbad_alloc@std@@   10025754     LIBCMT:throw_bad_alloc.obj
 0002:00007760       __CT??_R0?AVbad_alloc@std@@@8??0bad_alloc@std@@QAE@ABV01@@Z12 10025760     LIBCMT:throw_bad_alloc.obj
 0002:0000777c       __CT??_R0?AVexception@std@@@8??0exception@std@@QAE@ABV01@@Z12 1002577c     LIBCMT:throw_bad_alloc.obj
 0002:00007798       __TI3?AVbad_array_new_length@std@@ 10025798     LIBCMT:throw_bad_alloc.obj
 0002:000077a8       __CTA3?AVbad_array_new_length@std@@ 100257a8     LIBCMT:throw_bad_alloc.obj
 0002:000077b8       __CT??_R0?AVbad_array_new_length@std@@@8??0bad_array_new_length@std@@QAE@ABV01@@Z12 100257b8     LIBCMT:throw_bad_alloc.obj
 0002:000078bc       __TI2?AVbad_exception@std@@ 100258bc     libvcruntime:frame.obj
 0002:000078cc       __CTA2?AVbad_exception@std@@ 100258cc     libvcruntime:frame.obj
 0002:000078d8       __CT??_R0?AVbad_exception@std@@@8??0bad_exception@std@@QAE@ABV01@@Z12 100258d8     libvcruntime:frame.obj
 0002:00007c24       ___pobjMapEntryFirst       10025c24     OposVariant.obj
 0002:00007c28       ___pobjMapEntryLast        10025c28     OposVariant.obj
 0002:00007cdc       __IMPORT_DESCRIPTOR_KERNEL32 10025cdc     kernel32:KERNEL32.dll
 0002:00007cf0       __IMPORT_DESCRIPTOR_USER32 10025cf0     user32:USER32.dll
 0002:00007d04       __IMPORT_DESCRIPTOR_GDI32  10025d04     gdi32:GDI32.dll
 0002:00007d18       __IMPORT_DESCRIPTOR_ADVAPI32 10025d18     advapi32:ADVAPI32.dll
 0002:00007d2c       __IMPORT_DESCRIPTOR_ole32  10025d2c     ole32:ole32.dll
 0002:00007d40       __IMPORT_DESCRIPTOR_OLEAUT32 10025d40     oleaut32:OLEAUT32.dll
 0002:00007d54       __NULL_IMPORT_DESCRIPTOR   10025d54     kernel32:KERNEL32.dll
 0003:00000000       ?wc@?1??GetWndClassInfo@?$CWindowImpl@VCOPOSCashDrawer@@VCWindow@ATL@@V?$CWinTraits@$0FGAAAAAA@$0A@@3@@ATL@@SAAAU_ATL_WNDCLASSINFOW@3@XZ@4U43@A 10027000     CashDrawer.obj
 0003:0000008c       ?s_Claim@?7??GetIDsOfNames@CComTypeInfoHolder@ATL@@QAEJABU_GUID@@PAPA_WIKPAJ@Z@4PA_WA 1002708c     CashDrawer.obj
 0003:000000a4       ?s_Release@?7??GetIDsOfNames@CComTypeInfoHolder@ATL@@QAEJABU_GUID@@PAPA_WIKPAJ@Z@4PA_WA 100270a4     CashDrawer.obj
 0003:000000c0       ?rcDefault@CWindow@ATL@@2UtagRECT@@A 100270c0     CashDrawer.obj
 0003:000000d0       ?_tih@?$IDispatchImpl@UIOPOSCashDrawer@@$1?IID_IOPOSCashDrawer@@3U_GUID@@B$1?LIBID_OposCashDrawer_CCO@@3U3@B$00$0A@VCComTypeInfoHolder@ATL@@@ATL@@1VCComTypeInfoHolder@2@A 100270d0     CashDrawer.obj
 0003:000000ec       ?_tih@?$IProvideClassInfo2Impl@$1?CLSID_OPOSCashDrawer@@3U_GUID@@B$1?DIID__IOPOSCashDrawerEvents@@3U2@B$1?LIBID_OposCashDrawer_CCO@@3U2@B$00$0A@VCComTypeInfoHolder@ATL@@@ATL@@1VCComTypeInfoHolder@2@A 100270ec     CashDrawer.obj
 0003:00000108       ?vszContents@?6??Save@?$IPersistStorageImpl@VCOPOSCashDrawer@@@ATL@@UAGJPAUIStorage@@H@Z@4PB_WB 10027108     CashDrawer.obj
 0003:00000158       ?g_WindowName@@3PA_WA      10027158     CashDrawerImpl.obj
 0003:0000017c       ?g_ControlDescription@@3PADA 1002717c     CashDrawerImpl.obj
 0003:000001b4       ?g_ControlVersion@@3JA     100271b4     CashDrawerImpl.obj
 0003:0000022c       ___scrt_native_dllmain_reason 1002722c     LIBCMT:utility.obj
 0003:00000230       __Init_global_epoch        10027230     LIBCMT:thread_safe_statics.obj
 0003:00000240       ___security_cookie_complement 10027240     LIBCMT:gs_cookie.obj
 0003:00000244       ___security_cookie         10027244     LIBCMT:gs_cookie.obj
 0003:00000248       ___isa_enabled             10027248     LIBCMT:cpu_disp.obj
 0003:00000260       __NLG_Destination          10027260     libvcruntime:exsup.obj
 0003:00000278       ___abort_behavior          10027278     libucrt:abort.obj
 0003:00000288       __iob                      10027288     libucrt:_file.obj
 0003:00000330       ___acrt_initial_locale_data 10027330     libucrt:nlsdata.obj
 0003:000003e8       ___acrt_initial_locale_pointers 100273e8     libucrt:nlsdata.obj
 0003:000003f0       ___acrt_wide_c_locale_string 100273f0     libucrt:nlsdata.obj
 0003:000004e8       __mbctype                  100274e8     libucrt:mbctype.obj
 0003:000005f0       __mbcasemap                100275f0     libucrt:mbctype.obj
 0003:000006f0       ___acrt_initial_multibyte_data 100276f0     libucrt:mbctype.obj
 0003:00000910       ___acrt_current_multibyte_data 10027910     libucrt:mbctype.obj
 0003:00000914       __pwctype                  10027914     libucrt:ctype.obj
 0003:00000918       ___globallocalestatus      10027918     libucrt:glstatus.obj
 0003:0000091c       ___acrt_lconv_static_decimal 1002791c     libucrt:localeconv.obj
 0003:00000920       ___acrt_lconv_static_W_decimal 10027920     libucrt:localeconv.obj
 0003:00000928       ___acrt_lconv_c            10027928     libucrt:localeconv.obj
 0003:00000980       ___dcrt_lowio_console_output_handle 10027980     libucrt:initcon.obj
 0003:00000990       __fltused                  10027990     LIBCMT:fltused.obj
 0003:000009a0       ??_R0?AVbad_alloc@std@@@8  100279a0     LIBCMT:throw_bad_alloc.obj
 0003:000009bc       ??_R0?AVexception@std@@@8  100279bc     LIBCMT:throw_bad_alloc.obj
 0003:000009d8       ??_R0?AVbad_array_new_length@std@@@8 100279d8     LIBCMT:throw_bad_alloc.obj
 0003:00000a00       ??_R0?AVtype_info@@@8      10027a00     LIBCMT:std_type_info_static.obj
 0003:00000a18       ??_R0?AVbad_exception@std@@@8 10027a18     libvcruntime:frame.obj
 0003:00000a38       ?m_bInitFailed@CAtlBaseModule@ATL@@2_NA 10027a38     OposVariant.obj
 0003:00000a3c       ?_pPerfRegFunc@ATL@@3P6AJPAUHINSTANCE__@@@ZA 10027a3c     OposVariant.obj
 0003:00000a40       ?_pPerfUnRegFunc@ATL@@3P6AJXZA 10027a40     OposVariant.obj
 0003:00000a44       ?_AtlRegisterPerUser@ATL@@3_NA 10027a44     OposVariant.obj
 0003:00000a48       ?_pAtlModule@ATL@@3PAVCAtlModule@1@A 10027a48     OposVariant.obj
 0003:00000a4c       ?_pModule@ATL@@3PAVCComModule@1@A 10027a4c     OposVariant.obj
 0003:00000a50       ?_AtlComModule@ATL@@3VCAtlComModule@1@A 10027a50     OposVariant.obj
 0003:00000a78       ?_AtlWinModule@ATL@@3VCAtlWinModule@1@A 10027a78     OposVariant.obj
 0003:00000aa4       ?m_libid@CAtlModule@ATL@@2U_GUID@@A 10027aa4     CashDrawer.obj
 0003:00000ab4       ?_entries@?1??GetConnMap@COPOSCashDrawer@@SAPBU_ATL_CONNMAP_ENTRY@ATL@@PAH@Z@4QBU34@B 10027ab4     CashDrawer.obj
 0003:00000ac0       ?$TSS0@?1??GetConnMap@COPOSCashDrawer@@SAPBU_ATL_CONNMAP_ENTRY@ATL@@PAH@Z@4HA 10027ac0     CashDrawer.obj
 0003:00000ac8       ?_OptionsStorage@?1??__local_stdio_printf_options@@9@4_KA 10027ac8     CashDrawer.obj
 0003:00000ad0       ?pfnRegDeleteKeyEx@?1??DeleteSubKey@CRegKey@ATL@@QAEJPB_W@Z@4P6GJPAUHKEY__@@0KK@ZA 10027ad0     CashDrawer.obj
 0003:00000ad4       ?bInitialized@?1??DeleteSubKey@CRegKey@ATL@@QAEJPB_W@Z@4_NA 10027ad4     CashDrawer.obj
 0003:00000ad8       ?_Module@@3VCComModule@ATL@@A 10027ad8     CashDrawer.obj
 0003:00000b08       ?pConnMap@?$IConnectionPointContainerImpl@VCOPOSCashDrawer@@@ATL@@0PBU_ATL_CONNMAP_ENTRY@2@B 10027b08     CashDrawer.obj
 0003:00000b0c       ?s_nInstances@COPOSCashDrawer@@1HA 10027b0c     CashDrawerImpl.obj
 0003:00000b10       ___scrt_current_native_startup_state 10027b10     LIBCMT:utility.obj
 0003:00000b14       ___scrt_native_startup_lock 10027b14     LIBCMT:utility.obj
 0003:00000e7c       __tls_index                10027e7c     LIBCMT:tlssup.obj
 0003:00000e84       ___isa_available           10027e84     LIBCMT:cpu_disp.obj
 0003:00000e88       ___favor                   10027e88     LIBCMT:cpu_disp.obj
 0003:00000e8c       ___scrt_debugger_hook_flag 10027e8c     LIBCMT:utility_desktop.obj
 0003:00000e90       ?__type_info_root_node@@3U__type_info_node@@A 10027e90     LIBCMT:tncleanup.obj
 0003:00000e98       ?_OptionsStorage@?1??__local_stdio_scanf_options@@9@4_KA 10027e98     LIBCMT:default_local_stdio_options.obj
 0003:00000ea0       ?_AtlBaseModule@ATL@@3VCAtlBaseModule@1@A 10027ea0     atls:atlbase.obj
 0003:00000ed8       ?__AtlThunkPool@@3PAT_SLIST_HEADER@@A 10027ed8     atls:atlthunk.obj
 0003:00000ef0       ___@@_PchSym_@00@UztvmgUPdlipUDUhUrmgvinvwrzgvUexgllohUzgohOmzgrevkilqPBACIAJCBDBUlyqiUcIGUhgwzucOlyq@4B2008FD98C1DD4 10027ef0     atls:stdafx.obj
 0003:00000ef4       ___pPurecall               10027ef4     libvcruntime:purevirt_data.obj
 0003:00000f5c       ?pArgList@UnDecorator@@0PAVReplicator@@A 10027f5c     libvcruntime:undname.obj
 0003:00000f60       ?pZNameList@UnDecorator@@0PAVReplicator@@A 10027f60     libvcruntime:undname.obj
 0003:00000f64       ?pTemplateArgList@UnDecorator@@0PAVReplicator@@A 10027f64     libvcruntime:undname.obj
 0003:00000f68       ?gName@UnDecorator@@0PBDB  10027f68     libvcruntime:undname.obj
 0003:00000f6c       ?name@UnDecorator@@0PBDB   10027f6c     libvcruntime:undname.obj
 0003:00000f70       ?disableFlags@UnDecorator@@0KA 10027f70     libvcruntime:undname.obj
 0003:00000f74       ?fExplicitTemplateParams@UnDecorator@@0_NA 10027f74     libvcruntime:undname.obj
 0003:00000f75       ?fGetTemplateArgumentList@UnDecorator@@0_NA 10027f75     libvcruntime:undname.obj
 0003:00000f78       ?m_pGetParameter@UnDecorator@@0P6APADJ@ZA 10027f78     libvcruntime:undname.obj
 0003:00000f7c       ?m_CHPENameOffset@UnDecorator@@0KA 10027f7c     libvcruntime:undname.obj
 0003:00000f80       ?m_recursionLevel@UnDecorator@@0KA 10027f80     libvcruntime:undname.obj
 0003:00000f98       ?__WinRTOutOfMemoryExceptionCallback@@3P6GPAXXZA 10027f98     libvcruntime:ehhelpers.obj
 0003:000010b8       __environ_table            100280b8     libucrt:environment_initialization.obj
 0003:000010bc       __wenviron_table           100280bc     libucrt:environment_initialization.obj
 0003:000010c0       ___dcrt_initial_wide_environment 100280c0     libucrt:environment_initialization.obj
 0003:000010c4       ___dcrt_initial_narrow_environment 100280c4     libucrt:environment_initialization.obj
 0003:000010c8       ___acrt_atexit_table       100280c8     libucrt:onexit.obj
 0003:000010d4       ___acrt_at_quick_exit_table 100280d4     libucrt:onexit.obj
 0003:000011bc       __nstream                  100281bc     libucrt:_file.obj
 0003:000011c0       ___piob                    100281c0     libucrt:_file.obj
 0003:000011c8       ___acrt_stdout_buffer      100281c8     libucrt:_sftbuf.obj
 0003:000011cc       ___acrt_stderr_buffer      100281cc     libucrt:_sftbuf.obj
 0003:000011d0       ___acrt_locale_changed_data 100281d0     libucrt:wsetlocale.obj
 0003:000011d4       ___acrt_current_locale_data 100281d4     libucrt:nlsdata.obj
 0003:000011d8       ___pioinfo                 100281d8     libucrt:ioinit.obj
 0003:000013d8       __nhandle                  100283d8     libucrt:ioinit.obj
 0003:0000151c       ___mblocalename            1002851c     libucrt:mbctype.obj
 0003:00001520       ___mbcodepage              10028520     libucrt:mbctype.obj
 0003:00001524       ___ismbcodepage            10028524     libucrt:mbctype.obj
 0003:00001528       ___mbulinfo                10028528     libucrt:mbctype.obj
 0003:0000153c       ___argc                    1002853c     libucrt:argv_data.obj
 0003:00001540       ___argv                    10028540     libucrt:argv_data.obj
 0003:00001544       ___wargv                   10028544     libucrt:argv_data.obj
 0003:00001548       __acmdln                   10028548     libucrt:argv_data.obj
 0003:0000154c       __wcmdln                   1002854c     libucrt:argv_data.obj
 0003:00001550       __pgmptr                   10028550     libucrt:argv_data.obj
 0003:00001554       ___acrt_heap               10028554     libucrt:heap_handle.obj
 0003:00001570       ___acrt_lconv_static_null  10028570     libucrt:localeconv.obj
 0003:00001574       ___acrt_lconv_static_W_null 10028574     libucrt:localeconv.obj
 0003:0000157c       ___fastflag                1002857c     libucrt:fp_flags.obj
 0003:00001584       ___dyn_tls_init_callback   10028584     <common>
 0003:00001588       ___scrt_ucrt_dll_is_in_use 10028588     <common>
 0003:0000158c       __pmatherr                 1002858c     <common>
 0003:00001590       ___use_sse2_mathfcns       10028590     <common>

 entry point at        0001:0000b80d

 Static symbols

 0000:fffd1000       .debug$S                   10000000     gdi32:GDI32.dll
 0000:fffd1000       .debug$S                   10000000     gdi32:GDI32.dll
 0000:fffd1000       .debug$S                   10000000     gdi32:GDI32.dll
 0000:fffd1000       .debug$S                   10000000     gdi32:GDI32.dll
 0000:fffd1000       .debug$S                   10000000     gdi32:GDI32.dll
 0000:fffd1000       .debug$S                   10000000     gdi32:GDI32.dll
 0000:fffd1000       .debug$S                   10000000     gdi32:GDI32.dll
 0000:fffd1000       .debug$S                   10000000     gdi32:GDI32.dll
 0000:fffd1000       .debug$S                   10000000     gdi32:GDI32.dll
 0000:fffd1000       .debug$S                   10000000     gdi32:GDI32.dll
 0000:fffd1000       .debug$S                   10000000     gdi32:GDI32.dll
 0000:fffd1000       .debug$S                   10000000     gdi32:GDI32.dll
 0000:fffd1000       .debug$S                   10000000     gdi32:GDI32.dll
 0000:fffd1000       .debug$S                   10000000     gdi32:GDI32.dll
 0000:fffd1000       .debug$S                   10000000     gdi32:GDI32.dll
 0000:fffd1000       .debug$S                   10000000     OPOSCashDrawer.exp
 0000:fffd1000       .debug$S                   10000000     gdi32:GDI32.dll
 0000:fffd1000       .debug$S                   10000000     advapi32:ADVAPI32.dll
 0000:fffd1000       .debug$S                   10000000     advapi32:ADVAPI32.dll
 0000:fffd1000       .debug$S                   10000000     advapi32:ADVAPI32.dll
 0000:fffd1000       .debug$S                   10000000     advapi32:ADVAPI32.dll
 0000:fffd1000       .debug$S                   10000000     advapi32:ADVAPI32.dll
 0000:fffd1000       .debug$S                   10000000     advapi32:ADVAPI32.dll
 0000:fffd1000       .debug$S                   10000000     advapi32:ADVAPI32.dll
 0000:fffd1000       .debug$S                   10000000     advapi32:ADVAPI32.dll
 0000:fffd1000       .debug$S                   10000000     advapi32:ADVAPI32.dll
 0000:fffd1000       .debug$S                   10000000     kernel32:KERNEL32.dll
 0000:fffd1000       .debug$S                   10000000     kernel32:KERNEL32.dll
 0000:fffd1000       .debug$S                   10000000     kernel32:KERNEL32.dll
 0000:fffd1000       .debug$S                   10000000     kernel32:KERNEL32.dll
 0000:fffd1000       .debug$S                   10000000     kernel32:KERNEL32.dll
 0000:fffd1000       .debug$S                   10000000     kernel32:KERNEL32.dll
 0000:fffd1000       .debug$S                   10000000     kernel32:KERNEL32.dll
 0000:fffd1000       .debug$S                   10000000     kernel32:KERNEL32.dll
 0000:fffd1000       .debug$S                   10000000     kernel32:KERNEL32.dll
 0000:fffd1000       .debug$S                   10000000     kernel32:KERNEL32.dll
 0000:fffd1000       .debug$S                   10000000     kernel32:KERNEL32.dll
 0000:fffd1000       .debug$S                   10000000     kernel32:KERNEL32.dll
 0000:fffd1000       .debug$S                   10000000     kernel32:KERNEL32.dll
 0000:fffd1000       .debug$S                   10000000     kernel32:KERNEL32.dll
 0000:fffd1000       .debug$S                   10000000     kernel32:KERNEL32.dll
 0000:fffd1000       .debug$S                   10000000     kernel32:KERNEL32.dll
 0000:fffd1000       .debug$S                   10000000     kernel32:KERNEL32.dll
 0000:fffd1000       .debug$S                   10000000     kernel32:KERNEL32.dll
 0000:fffd1000       .debug$S                   10000000     kernel32:KERNEL32.dll
 0000:fffd1000       .debug$S                   10000000     kernel32:KERNEL32.dll
 0000:fffd1000       .debug$S                   10000000     kernel32:KERNEL32.dll
 0000:fffd1000       .debug$S                   10000000     kernel32:KERNEL32.dll
 0000:fffd1000       .debug$S                   10000000     kernel32:KERNEL32.dll
 0000:fffd1000       .debug$S                   10000000     kernel32:KERNEL32.dll
 0000:fffd1000       .debug$S                   10000000     kernel32:KERNEL32.dll
 0000:fffd1000       .debug$S                   10000000     kernel32:KERNEL32.dll
 0000:fffd1000       .debug$S                   10000000     kernel32:KERNEL32.dll
 0000:fffd1000       .debug$S                   10000000     kernel32:KERNEL32.dll
 0000:fffd1000       .debug$S                   10000000     kernel32:KERNEL32.dll
 0000:fffd1000       .debug$S                   10000000     kernel32:KERNEL32.dll
 0000:fffd1000       .debug$S                   10000000     kernel32:KERNEL32.dll
 0000:fffd1000       .debug$S                   10000000     kernel32:KERNEL32.dll
 0000:fffd1000       .debug$S                   10000000     kernel32:KERNEL32.dll
 0000:fffd1000       .debug$S                   10000000     kernel32:KERNEL32.dll
 0000:fffd1000       .debug$S                   10000000     kernel32:KERNEL32.dll
 0000:fffd1000       .debug$S                   10000000     kernel32:KERNEL32.dll
 0000:fffd1000       .debug$S                   10000000     kernel32:KERNEL32.dll
 0000:fffd1000       .debug$S                   10000000     kernel32:KERNEL32.dll
 0000:fffd1000       .debug$S                   10000000     kernel32:KERNEL32.dll
 0000:fffd1000       .debug$S                   10000000     kernel32:KERNEL32.dll
 0000:fffd1000       .debug$S                   10000000     kernel32:KERNEL32.dll
 0000:fffd1000       .debug$S                   10000000     kernel32:KERNEL32.dll
 0000:fffd1000       .debug$S                   10000000     kernel32:KERNEL32.dll
 0000:fffd1000       .debug$S                   10000000     kernel32:KERNEL32.dll
 0000:fffd1000       .debug$S                   10000000     kernel32:KERNEL32.dll
 0000:fffd1000       .debug$S                   10000000     kernel32:KERNEL32.dll
 0000:fffd1000       .debug$S                   10000000     kernel32:KERNEL32.dll
 0000:fffd1000       .debug$S                   10000000     kernel32:KERNEL32.dll
 0000:fffd1000       .debug$S                   10000000     kernel32:KERNEL32.dll
 0000:fffd1000       .debug$S                   10000000     kernel32:KERNEL32.dll
 0000:fffd1000       .debug$S                   10000000     kernel32:KERNEL32.dll
 0000:fffd1000       .debug$S                   10000000     kernel32:KERNEL32.dll
 0000:fffd1000       .debug$S                   10000000     kernel32:KERNEL32.dll
 0000:fffd1000       .debug$S                   10000000     kernel32:KERNEL32.dll
 0000:fffd1000       .debug$S                   10000000     kernel32:KERNEL32.dll
 0000:fffd1000       .debug$S                   10000000     kernel32:KERNEL32.dll
 0000:fffd1000       .debug$S                   10000000     kernel32:KERNEL32.dll
 0000:fffd1000       .debug$S                   10000000     kernel32:KERNEL32.dll
 0000:fffd1000       .debug$S                   10000000     kernel32:KERNEL32.dll
 0000:fffd1000       .debug$S                   10000000     kernel32:KERNEL32.dll
 0000:fffd1000       .debug$S                   10000000     kernel32:KERNEL32.dll
 0000:fffd1000       .debug$S                   10000000     kernel32:KERNEL32.dll
 0000:fffd1000       .debug$S                   10000000     kernel32:KERNEL32.dll
 0000:fffd1000       .debug$S                   10000000     kernel32:KERNEL32.dll
 0000:fffd1000       .debug$S                   10000000     kernel32:KERNEL32.dll
 0000:fffd1000       .debug$S                   10000000     kernel32:KERNEL32.dll
 0000:fffd1000       .debug$S                   10000000     kernel32:KERNEL32.dll
 0000:fffd1000       .debug$S                   10000000     kernel32:KERNEL32.dll
 0000:fffd1000       .debug$S                   10000000     kernel32:KERNEL32.dll
 0000:fffd1000       .debug$S                   10000000     kernel32:KERNEL32.dll
 0000:fffd1000       .debug$S                   10000000     kernel32:KERNEL32.dll
 0000:fffd1000       .debug$S                   10000000     kernel32:KERNEL32.dll
 0000:fffd1000       .debug$S                   10000000     kernel32:KERNEL32.dll
 0000:fffd1000       .debug$S                   10000000     kernel32:KERNEL32.dll
 0000:fffd1000       .debug$S                   10000000     gdi32:GDI32.dll
 0000:fffd1000       .debug$S                   10000000     ole32:ole32.dll
 0000:fffd1000       .debug$S                   10000000     ole32:ole32.dll
 0000:fffd1000       .debug$S                   10000000     ole32:ole32.dll
 0000:fffd1000       .debug$S                   10000000     ole32:ole32.dll
 0000:fffd1000       .debug$S                   10000000     ole32:ole32.dll
 0000:fffd1000       .debug$S                   10000000     ole32:ole32.dll
 0000:fffd1000       .debug$S                   10000000     ole32:ole32.dll
 0000:fffd1000       .debug$S                   10000000     ole32:ole32.dll
 0000:fffd1000       .debug$S                   10000000     ole32:ole32.dll
 0000:fffd1000       .debug$S                   10000000     ole32:ole32.dll
 0000:fffd1000       .debug$S                   10000000     ole32:ole32.dll
 0000:fffd1000       .debug$S                   10000000     ole32:ole32.dll
 0000:fffd1000       .debug$S                   10000000     ole32:ole32.dll
 0000:fffd1000       .debug$S                   10000000     ole32:ole32.dll
 0000:fffd1000       .debug$S                   10000000     gdi32:GDI32.dll
 0000:fffd1000       .debug$S                   10000000     oleaut32:OLEAUT32.dll
 0000:fffd1000       .debug$S                   10000000     oleaut32:OLEAUT32.dll
 0000:fffd1000       .debug$S                   10000000     oleaut32:OLEAUT32.dll
 0000:fffd1000       .debug$S                   10000000     oleaut32:OLEAUT32.dll
 0000:fffd1000       .debug$S                   10000000     oleaut32:OLEAUT32.dll
 0000:fffd1000       .debug$S                   10000000     oleaut32:OLEAUT32.dll
 0000:fffd1000       .debug$S                   10000000     oleaut32:OLEAUT32.dll
 0000:fffd1000       .debug$S                   10000000     oleaut32:OLEAUT32.dll
 0000:fffd1000       .debug$S                   10000000     oleaut32:OLEAUT32.dll
 0000:fffd1000       .debug$S                   10000000     oleaut32:OLEAUT32.dll
 0000:fffd1000       .debug$S                   10000000     oleaut32:OLEAUT32.dll
 0000:fffd1000       .debug$S                   10000000     oleaut32:OLEAUT32.dll
 0000:fffd1000       .debug$S                   10000000     oleaut32:OLEAUT32.dll
 0000:fffd1000       .debug$S                   10000000     oleaut32:OLEAUT32.dll
 0000:fffd1000       .debug$S                   10000000     oleaut32:OLEAUT32.dll
 0000:fffd1000       .debug$S                   10000000     oleaut32:OLEAUT32.dll
 0000:fffd1000       .debug$S                   10000000     gdi32:GDI32.dll
 0000:fffd1000       .debug$S                   10000000     user32:USER32.dll
 0000:fffd1000       .debug$S                   10000000     user32:USER32.dll
 0000:fffd1000       .debug$S                   10000000     user32:USER32.dll
 0000:fffd1000       .debug$S                   10000000     user32:USER32.dll
 0000:fffd1000       .debug$S                   10000000     user32:USER32.dll
 0000:fffd1000       .debug$S                   10000000     user32:USER32.dll
 0000:fffd1000       .debug$S                   10000000     user32:USER32.dll
 0000:fffd1000       .debug$S                   10000000     user32:USER32.dll
 0000:fffd1000       .debug$S                   10000000     user32:USER32.dll
 0000:fffd1000       .debug$S                   10000000     user32:USER32.dll
 0000:fffd1000       .debug$S                   10000000     kernel32:KERNEL32.dll
 0000:fffd1000       .debug$S                   10000000     kernel32:KERNEL32.dll
 0000:fffd1000       .debug$S                   10000000     user32:USER32.dll
 0000:fffd1000       .debug$S                   10000000     kernel32:KERNEL32.dll
 0000:fffd1000       .debug$S                   10000000     user32:USER32.dll
 0000:fffd1000       .debug$S                   10000000     user32:USER32.dll
 0000:fffd1000       .debug$S                   10000000     user32:USER32.dll
 0000:fffd1000       .debug$S                   10000000     user32:USER32.dll
 0000:fffd1000       .debug$S                   10000000     user32:USER32.dll
 0000:fffd1000       .debug$S                   10000000     user32:USER32.dll
 0000:fffd1000       .debug$S                   10000000     user32:USER32.dll
 0000:fffd1000       .debug$S                   10000000     user32:USER32.dll
 0000:fffd1000       .debug$S                   10000000     user32:USER32.dll
 0000:fffd1000       .debug$S                   10000000     user32:USER32.dll
 0000:fffd1000       .debug$S                   10000000     user32:USER32.dll
 0000:fffd1000       .debug$S                   10000000     user32:USER32.dll
 0000:fffd1000       .debug$S                   10000000     user32:USER32.dll
 0000:fffd1000       .debug$S                   10000000     user32:USER32.dll
 0000:fffd1000       .debug$S                   10000000     user32:USER32.dll
 0000:fffd1000       .debug$S                   10000000     user32:USER32.dll
 0000:fffd1000       .debug$S                   10000000     user32:USER32.dll
 0000:fffd1000       .debug$S                   10000000     user32:USER32.dll
 0000:fffd1000       .debug$S                   10000000     user32:USER32.dll
 0000:fffd1000       .debug$S                   10000000     kernel32:KERNEL32.dll
 0000:fffd1000       .debug$S                   10000000     user32:USER32.dll
 0000:fffd1000       .debug$S                   10000000     kernel32:KERNEL32.dll
 0000:fffd1000       .debug$S                   10000000     user32:USER32.dll
 0000:fffd1000       .debug$S                   10000000     kernel32:KERNEL32.dll
 0000:fffd1000       .debug$S                   10000000     user32:USER32.dll
 0000:fffd1000       .debug$S                   10000000     user32:USER32.dll
 0000:fffd1000       .debug$S                   10000000     user32:USER32.dll
 0000:fffd1000       .debug$S                   10000000     kernel32:KERNEL32.dll
 0000:fffd1000       .debug$S                   10000000     kernel32:KERNEL32.dll
 0000:fffd1000       .debug$S                   10000000     kernel32:KERNEL32.dll
 0000:fffd1000       .debug$S                   10000000     kernel32:KERNEL32.dll
 0000:fffd1000       .debug$S                   10000000     kernel32:KERNEL32.dll
 0000:fffd1000       .debug$S                   10000000     kernel32:KERNEL32.dll
 0000:fffd1000       .debug$S                   10000000     kernel32:KERNEL32.dll
 0000:fffd1000       .debug$S                   10000000     kernel32:KERNEL32.dll
 0000:fffd1000       .debug$S                   10000000     kernel32:KERNEL32.dll
 0000:fffd1000       .debug$S                   10000000     kernel32:KERNEL32.dll
 0000:fffd1000       .debug$S                   10000000     kernel32:KERNEL32.dll
 0000:fffd1000       .debug$S                   10000000     kernel32:KERNEL32.dll
 0000:fffd1000       .debug$S                   10000000     kernel32:KERNEL32.dll
 0000:fffd1000       .debug$S                   10000000     kernel32:KERNEL32.dll
 0000:fffd1000       .debug$S                   10000000     kernel32:KERNEL32.dll
 0000:fffd1000       .debug$S                   10000000     kernel32:KERNEL32.dll
 0000:fffd1000       .debug$S                   10000000     kernel32:KERNEL32.dll
 0000:fffd1000       .debug$S                   10000000     kernel32:KERNEL32.dll
 0000:fffd1000       .debug$S                   10000000     kernel32:KERNEL32.dll
 0000:fffd1000       .debug$S                   10000000     kernel32:KERNEL32.dll
 0000:fffd1000       .debug$S                   10000000     kernel32:KERNEL32.dll
 0000:fffd1000       .debug$S                   10000000     kernel32:KERNEL32.dll
 0000:fffd1000       .debug$S                   10000000     kernel32:KERNEL32.dll
 0000:fffd1000       .debug$S                   10000000     kernel32:KERNEL32.dll
 0000:fffd1000       .debug$S                   10000000     kernel32:KERNEL32.dll
 0000:fffd1000       .debug$S                   10000000     kernel32:KERNEL32.dll
 0000:fffd1000       .debug$S                   10000000     kernel32:KERNEL32.dll
 0000:fffd1000       .debug$S                   10000000     kernel32:KERNEL32.dll
 0000:fffd1000       .debug$S                   10000000     kernel32:KERNEL32.dll
 0001:00000000       ??__E_AtlComModule@ATL@@YAXXZ 10001000 f   OposVariant.obj
 0001:00000016       ??__E_AtlWinModule@ATL@@YAXXZ 10001016 f   OposVariant.obj
 0001:0000002c       ??__E?pConnMap@?$IConnectionPointContainerImpl@VCOPOSCashDrawer@@@ATL@@0PBU_ATL_CONNMAP_ENTRY@2@B@@YAXXZ 1000102c f   CashDrawer.obj
 0001:0000003a       ??__E_Module@@YAXXZ        1000103a f   CashDrawer.obj
 0001:00000064       ??__E_AtlBaseModule@ATL@@YAXXZ 10001064 f   atls:atlbase.obj
 0001:00001653       $LN37                      10002653     CashDrawer.obj
 0001:000059ca       $LN53                      100069ca     CashDrawer.obj
 0001:000059e2       $LN49                      100069e2     CashDrawer.obj
 0001:00007826       $LN45                      10008826     CashDrawer.obj
 0001:0000783e       $LN36                      1000883e     CashDrawer.obj
 0001:00008df1       $LN87                      10009df1     CashDrawer.obj
 0001:00008e09       $LN81                      10009e09     CashDrawer.obj
 0001:00009236       _memcpy_s                  1000a236 f   CashDrawer.obj
 0001:0000ac0d       ?find_pe_section@@YAPAU_IMAGE_SECTION_HEADER@@QAEI@Z 1000bc0d f   LIBCMT:utility.obj
 0001:0000af58       ?__scrt_initialize_thread_safe_statics@@YAHXZ 1000bf58 f   LIBCMT:thread_safe_statics.obj
 0001:0000af7f       ?__scrt_initialize_thread_safe_statics_platform_specific@@YAXXZ 1000bf7f f   LIBCMT:thread_safe_statics.obj
 0001:0000b06e       ?__scrt_uninitialize_thread_safe_statics@@YAXXZ 1000c06e f   LIBCMT:thread_safe_statics.obj
 0001:0000b3fb       __catch$??2@YAPAXIABUnothrow_t@std@@@Z$0 1000c3fb f   LIBCMT:new_scalar_nothrow.obj
 0001:0000b430       $$000000                   1000c430     LIBCMT:sehprolg4gs.obj
 0001:0000b490       $$000000                   1000c490     LIBCMT:alloca16.obj
 0001:0000b4c0       $$000000                   1000c4c0     LIBCMT:chkstk.obj
 0001:0000b4ed       ?dllmain_crt_dispatch@@YGHQAUHINSTANCE__@@KQAX@Z 1000c4ed f   LIBCMT:dll_dllmain.obj
 0001:0000b540       ?dllmain_crt_process_attach@@YAHQAUHINSTANCE__@@QAX@Z 1000c540 f   LIBCMT:dll_dllmain.obj
 0001:0000b64a       ?dllmain_crt_process_detach@@YAH_N@Z 1000c64a f   LIBCMT:dll_dllmain.obj
 0001:0000b6dc       ?dllmain_dispatch@@YAHQAUHINSTANCE__@@KQAX@Z 1000c6dc f   LIBCMT:dll_dllmain.obj
 0001:0000b7e2       ?dllmain_raw@@YGHQAUHINSTANCE__@@KQAX@Z 1000c7e2 f   LIBCMT:dll_dllmain.obj
 0001:0000bb30       $$000000                   1000cb30     LIBCMT:sehprolg4.obj
 0001:0000bb8c       ___get_entropy             1000cb8c f   LIBCMT:gs_support.obj
 0001:0000be83       ??$GetProcAddressAll@P6GXPAUAtlThunkData_t@@PAXI@Z@@YAP6GXPAUAtlThunkData_t@@PAXI@ZPAP6GX01I@Z@Z 1000ce83 f   atls:atlthunk.obj
 0001:0000be83       ??$GetProcAddressAll@P6GP6GJPAUHWND__@@IIJ@ZPAUAtlThunkData_t@@@Z@@YAP6GP6GJPAUHWND__@@IIJ@ZPAUAtlThunkData_t@@@ZPAP6GP6GJ0IIJ@Z1@Z@Z 1000ce83 f   atls:atlthunk.obj
 0001:0000be83       ??$GetProcAddressAll@P6GXPAUAtlThunkData_t@@@Z@@YAP6GXPAUAtlThunkData_t@@@ZPAP6GX0@Z@Z 1000ce83 f   atls:atlthunk.obj
 0001:0000be83       ??$GetProcAddressAll@P6GPAUAtlThunkData_t@@XZ@@YAP6GPAUAtlThunkData_t@@XZPAP6GPAU0@XZ@Z 1000ce83 f   atls:atlthunk.obj
 0001:0000bf33       ?GetProcAddressSingle@@YA_NPAUHINSTANCE__@@PBDPAPAX@Z 1000cf33 f   atls:atlthunk.obj
 0001:0000c085       ?__InitializeThunkPool@@YAHXZ 1000d085 f   atls:atlthunk.obj
 0001:0000c4f0       _ValidateLocalCookies      1000d4f0 f   libvcruntime:chandler4.obj
 0001:0000d5ab       $LN1285                    1000e5ab     libvcruntime:memcmp.obj
 0001:0000d630       $$000000                   1000e630     libvcruntime:memcpy.obj
 0001:0000d894       TrailingUpVec              1000e894     libvcruntime:memcpy.obj
 0001:0000d940       TrailingDownVec            1000e940     libvcruntime:memcpy.obj
 0001:0000dbb0       $$000000                   1000ebb0     libvcruntime:memset.obj
 0001:0000e270       $$000000                   1000f270     libvcruntime:memmove.obj
 0001:0000e4d4       TrailingUpVec              1000f4d4     libvcruntime:memmove.obj
 0001:0000e580       TrailingDownVec            1000f580     libvcruntime:memmove.obj
 0001:0000e7f0       $$000000                   1000f7f0     libvcruntime:exsup4.obj
 0001:0000e880       __unwind_handler4          1000f880 f   libvcruntime:exsup4.obj
 0001:0000eb5f       ?try_get_first_available_module@@YAPAUHINSTANCE__@@QBW4module_id@?A0x5d2a34d3@@0@Z 1000fb5f f   libvcruntime:winapi_downlevel.obj
 0001:0000ec23       ?try_get_function@@YAPAXW4function_id@?A0x5d2a34d3@@QBDQBW4module_id@2@2@Z 1000fc23 f   libvcruntime:winapi_downlevel.obj
 0001:0000ee23       ??$BuildCatchObjectHelperInternal@V__FrameHandler3@@@@YAHPAUEHExceptionRecord@@PAXPBU_s_HandlerType@@PBU_s_CatchableType@@@Z 1000fe23 f   libvcruntime:frame.obj
 0001:0000ef62       ??$BuildCatchObjectInternal@V__FrameHandler3@@@@YAXPAUEHExceptionRecord@@PAXPBU_s_HandlerType@@PBU_s_CatchableType@@@Z 1000ff62 f   libvcruntime:frame.obj
 0001:0000effb       ??$CatchIt@V__FrameHandler3@@@@YAXPAUEHExceptionRecord@@PAUEHRegistrationNode@@PAU_CONTEXT@@PAXPBU_s_FuncInfo@@PBU_s_HandlerType@@PBU_s_CatchableType@@PBU_s_TryBlockMapEntry@@H1E@Z 1000fffb f   libvcruntime:frame.obj
 0001:0000f07b       ??$FindHandler@V__FrameHandler3@@@@YAXPAUEHExceptionRecord@@PAUEHRegistrationNode@@PAU_CONTEXT@@PAXPBU_s_FuncInfo@@EH1@Z 1001007b f   libvcruntime:frame.obj
 0001:0000f409       ??$FindHandlerForForeignException@V__FrameHandler3@@@@YAXPAUEHExceptionRecord@@PAUEHRegistrationNode@@PAU_CONTEXT@@PAXPBU_s_FuncInfo@@HH1@Z 10010409 f   libvcruntime:frame.obj
 0001:0000f6fc       ?CallCatchBlock@@YAPAXPAUEHExceptionRecord@@PAUEHRegistrationNode@@PAU_CONTEXT@@PBU_s_FuncInfo@@PAXHK@Z 100106fc f   libvcruntime:frame.obj
 0001:0000f8c0       ?CallUnexpected@@YAXPBU_s_ESTypeList@@@Z 100108c0 f   libvcruntime:frame.obj
 0001:0000f8e0       __catch$?CallUnexpected@@YAXPBU_s_ESTypeList@@@Z$0 100108e0 f   libvcruntime:frame.obj
 0001:0000f8fa       ?ExFilterRethrow@@YAHPAU_EXCEPTION_POINTERS@@@Z 100108fa f   libvcruntime:frame.obj
 0001:0000fa44       ?IsInExceptionSpec@@YAEPAUEHExceptionRecord@@PBU_s_ESTypeList@@@Z 10010a44 f   libvcruntime:frame.obj
 0001:0000fb10       $$000000                   10010b10     libvcruntime:lowhelpr.obj
 0001:0000fb60       $$000000                   10010b60     libvcruntime:exsup.obj
 0001:0000fb81       __unwind_handler           10010b81 f   libvcruntime:exsup.obj
 0001:0001032a       ??$common_tcsncpy_s@_W@@YAHQA_WIQB_WI@Z 1001132a f   libucrt:wcsncpy_s.obj
 0001:00010402       ??$common_vsprintf@Vformat_validation_base@__crt_stdio_output@@_W@@YAH_KQA_WIQB_WQAU__crt_locale_pointers@@QAD@Z 10011402 f   libucrt:output.obj
 0001:00010587       ??$common_vsprintf_s@_W@@YAH_KQA_WIQB_WQAU__crt_locale_pointers@@QAD@Z 10011587 f   libucrt:output.obj
 0001:00010c10       $LN52                      10011c10     libucrt:output.obj
 0001:00011101       $LN19                      10012101     libucrt:output.obj
 0001:000119a5       ?atexit_exception_filter@@YAHK@Z 100129a5 f   libucrt:exit.obj
 0001:000119b8       ?common_exit@@YAXHW4_crt_exit_cleanup_mode@@W4_crt_exit_return_mode@@@Z 100129b8 f   libucrt:exit.obj
 0001:00011ad1       ?exit_or_terminate_process@@YAXI@Z 10012ad1 f   libucrt:exit.obj
 0001:00011b12       ?is_managed_app@@YA_NXZ    10012b12 f   libucrt:exit.obj
 0001:00011b56       ?try_cor_exit_process@@YAXI@Z 10012b56 f   libucrt:exit.obj
 0001:00011bfa       ??$common_configure_argv@D@@YAHW4_crt_argv_mode@@@Z 10012bfa f   libucrt:argv_parsing.obj
 0001:00011d1e       ??$parse_command_line@D@@YAXPADPAPAD0PAI2@Z 10012d1e f   libucrt:argv_parsing.obj
 0001:00011ef3       ??$common_initialize_environment_nolock@D@@YAHXZ 10012ef3 f   libucrt:environment_initialization.obj
 0001:00011f4c       ??$create_environment@D@@YAQAPADQAD@Z 10012f4c f   libucrt:environment_initialization.obj
 0001:0001201d       ??$free_environment@_W@@YAXQAPA_W@Z 1001301d f   libucrt:environment_initialization.obj
 0001:0001201d       ??$free_environment@D@@YAXQAPAD@Z 1001301d f   libucrt:environment_initialization.obj
 0001:0001208c       ??$uninitialize_environment_internal@D@@YAXAAPAPAD@Z 1001308c f   libucrt:environment_initialization.obj
 0001:000120a7       ??$uninitialize_environment_internal@_W@@YAXAAPAPA_W@Z 100130a7 f   libucrt:environment_initialization.obj
 0001:0001220f       ??R<lambda_275893d493268fdec8709772e3fcec0e>@@QBEHXZ 1001320f f   libucrt:onexit.obj
 0001:0001232f       ??R<lambda_4e60a939b0d047cfe11ddc22648dfba9>@@QBEHXZ 1001332f f   libucrt:onexit.obj
 0001:00012504       _initialize_global_variables 10013504 f   libucrt:initialization.obj
 0001:00012516       _initialize_c              10013516 f   libucrt:initialization.obj
 0001:00012530       _initialize_global_state_isolation 10013530 f   libucrt:initialization.obj
 0001:00012530       _uninitialize_global_state_isolation 10013530 f   libucrt:initialization.obj
 0001:00012530       _report_memory_leaks       10013530 f   libucrt:initialization.obj
 0001:00012530       _uninitialize_c            10013530 f   libucrt:initialization.obj
 0001:00012530       _initialize_environment    10013530 f   libucrt:initialization.obj
 0001:00012533       _uninitialize_environment  10013533 f   libucrt:initialization.obj
 0001:0001253b       _initialize_pointers       1001353b f   libucrt:initialization.obj
 0001:00012578       _uninitialize_vcruntime    10013578 f   libucrt:initialization.obj
 0001:00012581       _uninitialize_allocated_memory 10013581 f   libucrt:initialization.obj
 0001:00013040       $$000000                   10014040     libucrt:strncmp.obj
 0001:000132d6       ?construct_ptd@@YAXQAU__acrt_ptd@@QAPAU__crt_locale_data@@@Z 100142d6 f   libucrt:per_thread_data.obj
 0001:0001334f       ?destroy_fls@@YGXPAX@Z     1001434f f   libucrt:per_thread_data.obj
 0001:00013370       ?destroy_ptd@@YAXQAU__acrt_ptd@@@Z 10014370 f   libucrt:per_thread_data.obj
 0001:00013419       ?replace_current_thread_locale_nolock@@YAXQAU__acrt_ptd@@QAU__crt_locale_data@@@Z 10014419 f   libucrt:per_thread_data.obj
 0001:00013726       ?try_get_function@@YAPAXW4function_id@?A0x352e5c4b@@QBDQBW4module_id@2@2@Z 10014726 f   libucrt:winapi_thunks.obj
 0001:000137c2       ?try_get_module@@YAPAUHINSTANCE__@@W4module_id@?A0x352e5c4b@@@Z 100147c2 f   libucrt:winapi_thunks.obj
 0001:00013c78       ??$common_tox_l@$1?internal_isupper_l@@YA_NHQAU__crt_locale_pointers@@@Z$1?internal_map_lower@@YAHH0@Z@@YAHHKQAU__crt_locale_pointers@@@Z 10014c78 f   libucrt:tolower_toupper.obj
 0001:00013dc2       ?internal_isupper_l@@YA_NHQAU__crt_locale_pointers@@@Z 10014dc2 f   libucrt:tolower_toupper.obj
 0001:0001421f       ?fp_format_a@@YAHQBNPADIQADIH_NIQAU__crt_locale_pointers@@@Z 1001521f f   libucrt:cvt.obj
 0001:00014522       ?fp_format_e@@YAHQBNQADI1IH_NIQAU__crt_locale_pointers@@@Z 10015522 f   libucrt:cvt.obj
 0001:000145bd       ?fp_format_e_internal@@YAHQADIH_NIQAU_strflt@@1QAU__crt_locale_pointers@@@Z 100155bd f   libucrt:cvt.obj
 0001:00014708       ?fp_format_f@@YAHQBNQADI1IHQAU__crt_locale_pointers@@@Z 10015708 f   libucrt:cvt.obj
 0001:00014795       ?fp_format_f_internal@@YAHQADIHQAU_strflt@@_NQAU__crt_locale_pointers@@@Z 10015795 f   libucrt:cvt.obj
 0001:0001486c       ?fp_format_g@@YAHQBNQADI1IH_NIQAU__crt_locale_pointers@@@Z 1001586c f   libucrt:cvt.obj
 0001:00014934       ?fp_format_nan_or_infinity@@YAHW4__acrt_fp_class@@_NPADI1@Z 10015934 f   libucrt:cvt.obj
 0001:00014a2c       ?shift_bytes@@YAXQADI0H@Z  10015a2c f   libucrt:cvt.obj
 0001:00014d7e       ?initialize_inherited_file_handles_nolock@@YAXXZ 10015d7e f   libucrt:ioinit.obj
 0001:00014e34       ?initialize_stdio_handles_nolock@@YAXXZ 10015e34 f   libucrt:ioinit.obj
 0001:0001500c       ?<helper_func_cdecl>@<lambda_62bb7ecb46d0a77b591a051c43eb5ad1>@@CAHPBX0@Z 1001600c f   libucrt:argv_wildcards.obj
 0001:00015024       ??$common_expand_argv_wildcards@D@@YAHQAPADQAPAPAD@Z 10016024 f   libucrt:argv_wildcards.obj
 0001:000151b4       ??$copy_and_add_argument_to_buffer@D@@YAHQBD0IAAV?$argument_list@D@?A0xb0e4b824@@@Z 100161b4 f   libucrt:argv_wildcards.obj
 0001:0001524a       ??$expand_argument_wildcards@D@@YAHQAD0AAV?$argument_list@D@?A0xb0e4b824@@@Z 1001624a f   libucrt:argv_wildcards.obj
 0001:00015525       ??R<lambda_ad1ced32f4ac17aa236e5ef05d6b3b7c>@@QBEXXZ 10016525 f   libucrt:mbctype.obj
 0001:000155e9       ?CPtoLocaleName@@YAPB_WH@Z 100165e9 f   libucrt:mbctype.obj
 0001:00015627       ?getSystemCP@@YAHH@Z       10016627 f   libucrt:mbctype.obj
 0001:0001569a       ?setSBCS@@YAXPAU__crt_multibyte_data@@@Z 1001669a f   libucrt:mbctype.obj
 0001:000156ff       ?setSBUpLow@@YAXPAU__crt_multibyte_data@@@Z 100166ff f   libucrt:mbctype.obj
 0001:00015893       ?setmbcp_internal@@YAHH_N@Z 10016893 f   libucrt:mbctype.obj
 0001:00015c45       _memcpy_s                  10016c45 f   libucrt:mbctype.obj
 0001:00015c45       _memcpy_s                  10016c45 f   libucrt:cfout.obj
 0001:00015cc6       ?x_ismbbtype_l@@YAHPAU__crt_locale_pointers@@IHH@Z 10016cc6 f   libucrt:ismbbyte.obj
 0001:00015d50       ?find_end_of_double_null_terminated_sequence@@YAPB_WQB_W@Z 10016d50 f   libucrt:get_environment_from_os.obj
 0001:00015f77       ?get_global_action_nolock@@YAPAP6AXH@ZH@Z 10016f77 f   libucrt:signal.obj
 0001:00015fb9       ?siglookup@@YAPAU__crt_signal_action_t@@HQAU1@@Z 10016fb9 f   libucrt:signal.obj
 0001:000167a8       ?GetTableIndexFromLocaleName@@YAHPB_W@Z 100177a8 f   libucrt:lcidtoname_downlevel.obj
 0001:000168c9       ?__acrt_LCMapStringA_stat@@YAHPAU__crt_locale_pointers@@PB_WKPBDHPADHHH@Z 100178c9 f   libucrt:lcmapstringa.obj
 0001:000185e0       _common_flush_all          100195e0 f   libucrt:fflush.obj
 0001:000188b3       ?free_crt_array_internal@@YAXQAPBXI@Z 100198b3 f   libucrt:inittime.obj
 0001:00018d80       ?shortsort@@YAXPAD0IP6AHPBX1@Z@Z 10019d80 f   libucrt:qsort.obj
 0001:00018e20       ?swap@@YAXPAD0I@Z          10019e20 f   libucrt:qsort.obj
 0001:000191fa       ??$common_tcsncpy_s@D@@YAHQADIQBDI@Z 1001a1fa f   libucrt:strncpy_s.obj
 0001:000192c0       $$000000                   1001a2c0     libucrt:strpbrk.obj
 0001:000193a4       ?initialize_multibyte@@YAHXZ 1001a3a4 f   libucrt:multibyte_initializer.obj
 0001:00019490       $$000000                   1001a490     libucrt:log10.obj
 0001:000195e0       $$000000                   1001a5e0     libucrt:ceil_pentium4.obj
 0001:000196fd       ?write_double_translated_ansi_nolock@@YA?AUwrite_result@?A0x47fa6670@@HQBDI@Z 1001a6fd f   libucrt:write.obj
 0001:000198b0       ?write_double_translated_unicode_nolock@@YA?AUwrite_result@?A0x47fa6670@@QBDI@Z 1001a8b0 f   libucrt:write.obj
 0001:0001991d       ?write_requires_double_translation_nolock@@YA_NH@Z 1001a91d f   libucrt:write.obj
 0001:00019993       ?write_text_ansi_nolock@@YA?AUwrite_result@?A0x47fa6670@@HQBDI@Z 1001a993 f   libucrt:write.obj
 0001:00019a72       ?write_text_utf16le_nolock@@YA?AUwrite_result@?A0x47fa6670@@HQBDI@Z 1001aa72 f   libucrt:write.obj
 0001:00019b60       ?write_text_utf8_nolock@@YA?AUwrite_result@?A0x47fa6670@@HQBDI@Z 1001ab60 f   libucrt:write.obj
 0001:00019f84       ??$common_lseek_nolock@_J@@YA_JH_JH@Z 1001af84 f   libucrt:lseek.obj
 0001:0001a248       ___get_abstract_control_sse2 1001b248 f   libucrt:_fenvutils.obj
 0001:0001a2c5       ___get_abstract_control_x87 1001b2c5 f   libucrt:_fenvutils.obj
 0001:0001a338       ___get_machine_control     1001b338 f   libucrt:_fenvutils.obj
 0001:0001a3a9       ___get_machine_control_sse2 1001b3a9 f   libucrt:_fenvutils.obj
 0001:0001a429       ___get_machine_status_sse2 1001b429 f   libucrt:_fenvutils.obj
 0001:0001a48a       ___get_machine_status_x87  1001b48a f   libucrt:_fenvutils.obj
 0001:0001a7d0       $$000000                   1001b7d0     libucrt:log10_pentium4.obj
 0001:0001aa60       $$000000                   1001ba60     libucrt:87tran.obj
 0001:0001ac60       $$000000                   1001bc60     libucrt:87disp.obj
 0001:0001ae60       $$000000                   1001be60     libucrt:common.obj
 0001:0001aff0       $$000000                   1001bff0     libucrt:genexcep.obj
 0001:0001b560       $$000000                   1001c560     libucrt:_strnicm.obj
 0001:0001c3b0       $$000000                   1001d3b0     LIBCMT:ulldvrm.obj
 0001:0001c450       $$000000                   1001d450     LIBCMT:llmul.obj
 0001:0001c490       $$000000                   1001d490     LIBCMT:lldvrm.obj
 0001:0001c570       $$000000                   1001d570     LIBCMT:ullshr.obj
 0001:0001c590       $$000000                   1001d590     LIBCMT:llshl.obj
 0001:0001c5b0       $$000000                   1001d5b0     LIBCMT:ftol2.obj
 0001:0001c670       $$000000                   1001d670     libvcruntime:strrchr.obj
 0001:0001c7b0       $$000000                   1001d7b0     libvcruntime:strchr.obj
 0001:0001c8db       __ehhandler$?__scrt_initialize_thread_safe_statics_platform_specific@@YAXXZ 1001d8db f   LIBCMT:thread_safe_statics.obj
 0001:0001c8f6       __ehhandler$??2@YAPAXIABUnothrow_t@std@@@Z 1001d8f6 f   LIBCMT:new_scalar_nothrow.obj
 0001:0001c911       __ehhandler$?CallUnexpected@@YAXPBU_s_ESTypeList@@@Z 1001d911 f   libvcruntime:frame.obj
 0001:0001c92c       ??__F_AtlComModule@ATL@@YAXXZ 1001d92c f   OposVariant.obj
 0001:0001c936       ??__F_AtlWinModule@ATL@@YAXXZ 1001d936 f   OposVariant.obj
 0001:0001c950       ??__F_Module@@YAXXZ        1001d950 f   CashDrawer.obj
 0001:0001c964       ??__F_AtlBaseModule@ATL@@YAXXZ 1001d964 f   atls:atlbase.obj
 0002:00000308       ?_AtlBaseModule$initializer$@ATL@@3P6AXXZA 1001e308     atls:atlbase.obj
 0002:0000030c       ?_AtlComModule$initializer$@ATL@@3P6AXXZA 1001e30c     OposVariant.obj
 0002:00000310       ?_AtlWinModule$initializer$@ATL@@3P6AXXZA 1001e310     OposVariant.obj
 0002:00000314       ?_Module$initializer$@@3P6AXXZA 1001e314     CashDrawer.obj
 0002:00000318       ??pConnMap$initializer$@?$IConnectionPointContainerImpl@VCOPOSCashDrawer@@@ATL@@0P6AXXZA@@3P6AXXZA 1001e318     CashDrawer.obj
 0002:00000324       ?__scrt_initialize_tss_var@@3P6AHXZA 1001e324     LIBCMT:thread_safe_statics.obj
 0002:00001794       _GS_ExceptionPointers      1001f794     LIBCMT:gs_report.obj
 0002:00001900       ?ExceptionTemplate@?1??_CxxThrowException@@9@8@4UEHExceptionRecord@@B 1001f900     libvcruntime:throw.obj
 0002:00001920       ?module_names@?A0x5d2a34d3@@3QBQB_WB 1001f920     libvcruntime:winapi_downlevel.obj
 0002:000019d8       ?candidate_modules@?1??try_get_FlsAlloc@@YAP6GKP6GXPAX@Z@ZXZ@4QBW4module_id@?A0x5d2a34d3@@B 1001f9d8     libvcruntime:winapi_downlevel.obj
 0002:000019ec       ?candidate_modules@?1??try_get_FlsFree@@YAP6GHK@ZXZ@4QBW4module_id@?A0x5d2a34d3@@B 1001f9ec     libvcruntime:winapi_downlevel.obj
 0002:000019fc       ?candidate_modules@?1??try_get_FlsGetValue@@YAP6GPAXK@ZXZ@4QBW4module_id@?A0x5d2a34d3@@B 1001f9fc     libvcruntime:winapi_downlevel.obj
 0002:00001a10       ?candidate_modules@?1??try_get_FlsSetValue@@YAP6GHKPAX@ZXZ@4QBW4module_id@?A0x5d2a34d3@@B 1001fa10     libvcruntime:winapi_downlevel.obj
 0002:00001a24       ?candidate_modules@?1??try_get_InitializeCriticalSectionEx@@YAP6GHPAU_RTL_CRITICAL_SECTION@@KK@ZXZ@4QBW4module_id@?A0x5d2a34d3@@B 1001fa24     libvcruntime:winapi_downlevel.obj
 0002:00001a68       ?tokenTable@@3QBQBDB       1001fa68     libvcruntime:undname.obj
 0002:00001aa8       ?nameTable@@3QBQBDB        1001faa8     libvcruntime:undname.obj
 0002:00001bf0       ?rttiTable@@3QBQBDB        1001fbf0     libvcruntime:undname.obj
 0002:00002208       _errtable                  10020208     libucrt:errno.obj
 0002:000024b0       ___acrt_initializers       100204b0     libucrt:initialization.obj
 0002:00002528       _module_names              10020528     libucrt:winapi_thunks.obj
 0002:00002a70       ?candidate_modules@?1??try_get_FlsAlloc@@YAP6GKP6GXPAX@Z@ZXZ@4QBW4module_id@?A0x352e5c4b@@B 10020a70     libucrt:winapi_thunks.obj
 0002:00002a84       ?candidate_modules@?1??try_get_FlsFree@@YAP6GHK@ZXZ@4QBW4module_id@?A0x352e5c4b@@B 10020a84     libucrt:winapi_thunks.obj
 0002:00002a94       ?candidate_modules@?1??try_get_FlsGetValue@@YAP6GPAXK@ZXZ@4QBW4module_id@?A0x352e5c4b@@B 10020a94     libucrt:winapi_thunks.obj
 0002:00002aa8       ?candidate_modules@?1??try_get_FlsSetValue@@YAP6GHKPAX@ZXZ@4QBW4module_id@?A0x352e5c4b@@B 10020aa8     libucrt:winapi_thunks.obj
 0002:00002abc       ?candidate_modules@?1??try_get_GetCurrentPackageId@@YAP6GJPAIPAE@ZXZ@4QBW4module_id@?A0x352e5c4b@@B 10020abc     libucrt:winapi_thunks.obj
 0002:00002ad8       ?candidate_modules@?1??try_get_InitializeCriticalSectionEx@@YAP6GHPAU_RTL_CRITICAL_SECTION@@KK@ZXZ@4QBW4module_id@?A0x352e5c4b@@B 10020ad8     libucrt:winapi_thunks.obj
 0002:00002afc       ?candidate_modules@?1??try_get_LCMapStringEx@@YAP6GHPB_WK0HPA_WHPAU_nlsversioninfo@@PAXJ@ZXZ@4QBW4module_id@?A0x352e5c4b@@B 10020afc     libucrt:winapi_thunks.obj
 0002:00002b14       ?candidate_modules@?1??try_get_LocaleNameToLCID@@YAP6GKPB_WK@ZXZ@4QBW4module_id@?A0x352e5c4b@@B 10020b14     libucrt:winapi_thunks.obj
 0002:00002b30       ?candidate_modules@?1??try_get_SetThreadStackGuarantee@@YAP6GHPAK@ZXZ@4QBW4module_id@?A0x352e5c4b@@B 10020b30     libucrt:winapi_thunks.obj
 0002:0000305c       __mb_locale_names          1002105c     libucrt:mbctype.obj
 0002:000038a8       _LcidToLocaleNameTable     100218a8     libucrt:lcidtoname_downlevel.obj
 0002:000049d0       _LocaleNameToIndexTable    100229d0     libucrt:lcidtoname_downlevel.obj
 0002:00006310       LOG_name                   10024310     libucrt:log10.obj
 0002:00006320       _One                       10024320     libucrt:ceil_pentium4.obj
 0002:00006330       _Bns                       10024330     libucrt:ceil_pentium4.obj
 0002:00006340       _Zero                      10024340     libucrt:ceil_pentium4.obj
 0002:00006350       _S                         10024350     libucrt:ceil_pentium4.obj
 0002:00006360       _NegZero                   10024360     libucrt:ceil_pentium4.obj
 0002:00006370       emask                      10024370     libucrt:log10_pentium4.obj
 0002:00006380       CC                         10024380     libucrt:log10_pentium4.obj
 0002:00006390       Magic                      10024390     libucrt:log10_pentium4.obj
 0002:000063a0       hi_mask                    100243a0     libucrt:log10_pentium4.obj
 0002:000063b0       LOG10_2                    100243b0     libucrt:log10_pentium4.obj
 0002:000063c0       place_L                    100243c0     libucrt:log10_pentium4.obj
 0002:000063e0       One                        100243e0     libucrt:log10_pentium4.obj
 0002:000063f0       Zero                       100243f0     libucrt:log10_pentium4.obj
 0002:00006400       Two52                      10024400     libucrt:log10_pentium4.obj
 0002:00006410       Infs                       10024410     libucrt:log10_pentium4.obj
 0002:00006420       NaN                        10024420     libucrt:log10_pentium4.obj
 0002:00006430       coeff                      10024430     libucrt:log10_pentium4.obj
 0002:0000648e       _log2max                   1002448e     libucrt:87tran.obj
 0002:00006498       _smallarg                  10024498     libucrt:87tran.obj
 0002:000064a2       _half                      100244a2     libucrt:87tran.obj
 0002:000064ee       One                        100244ee     libucrt:87disp.obj
 0002:000064f6       Three                      100244f6     libucrt:87disp.obj
 0002:000064fe       XAMtoTagTab                100244fe     libucrt:87disp.obj
 0002:00006510       One                        10024510     libucrt:common.obj
 0002:00006524       DblMax                     10024524     libucrt:common.obj
 0002:0000652c       DblMin                     1002452c     libucrt:common.obj
 0002:00006534       IeeeAdjO                   10024534     libucrt:common.obj
 0002:0000653c       IeeeAdjU                   1002453c     libucrt:common.obj
 0002:00006544       _infinity                  10024544     libucrt:common.obj
 0002:0000654c       _zero                      1002454c     libucrt:common.obj
 0002:00006588       _over                      10024588     libucrt:fpctrl.obj
 0002:00006594       _under                     10024594     libucrt:fpctrl.obj
 0002:00006e58       ?_names@?1??_get_fname@@9@9 10024e58     libucrt:fpexcept.obj
 0002:00007630       __sehtable$?_AtlVerifyStackAvailable@_ATL_SAFE_ALLOCA_IMPL@ATL@@YA_NK@Z 10025630     CashDrawer.obj
 0002:00007650       __sehtable$___scrt_is_nonwritable_in_current_image 10025650     LIBCMT:utility.obj
 0002:0000766c       __ehfuncinfo$?__scrt_initialize_thread_safe_statics_platform_specific@@YAXXZ 1002566c     LIBCMT:thread_safe_statics.obj
 0002:00007690       __catchsym$??2@YAPAXIABUnothrow_t@std@@@Z$2 10025690     LIBCMT:new_scalar_nothrow.obj
 0002:000076a0       __unwindtable$??2@YAPAXIABUnothrow_t@std@@@Z 100256a0     LIBCMT:new_scalar_nothrow.obj
 0002:000076b0       __tryblocktable$??2@YAPAXIABUnothrow_t@std@@@Z 100256b0     LIBCMT:new_scalar_nothrow.obj
 0002:000076c4       __ehfuncinfo$??2@YAPAXIABUnothrow_t@std@@@Z 100256c4     LIBCMT:new_scalar_nothrow.obj
 0002:000076e8       __sehtable$?dllmain_crt_process_attach@@YAHQAUHINSTANCE__@@QAX@Z 100256e8     LIBCMT:dll_dllmain.obj
 0002:00007708       __sehtable$?dllmain_crt_process_detach@@YAH_N@Z 10025708     LIBCMT:dll_dllmain.obj
 0002:00007728       __sehtable$?dllmain_dispatch@@YAHQAUHINSTANCE__@@KQAX@Z 10025728     LIBCMT:dll_dllmain.obj
 0002:000077d8       __sehtable$?FrameUnwindToState@__FrameHandler3@@SAXPAUEHRegistrationNode@@PAXPBU_s_FuncInfo@@H@Z 100257d8     libvcruntime:frame.obj
 0002:00007800       __sehtable$?CallCatchBlock@@YAPAXPAUEHExceptionRecord@@PAUEHRegistrationNode@@PAU_CONTEXT@@PBU_s_FuncInfo@@PAXHK@Z 10025800     libvcruntime:frame.obj
 0002:00007828       __catchsym$?CallUnexpected@@YAXPBU_s_ESTypeList@@@Z$2 10025828     libvcruntime:frame.obj
 0002:00007838       __unwindtable$?CallUnexpected@@YAXPBU_s_ESTypeList@@@Z 10025838     libvcruntime:frame.obj
 0002:00007848       __tryblocktable$?CallUnexpected@@YAXPBU_s_ESTypeList@@@Z 10025848     libvcruntime:frame.obj
 0002:0000785c       __ehfuncinfo$?CallUnexpected@@YAXPBU_s_ESTypeList@@@Z 1002585c     libvcruntime:frame.obj
 0002:00007880       __sehtable$??$BuildCatchObjectHelperInternal@V__FrameHandler3@@@@YAHPAUEHExceptionRecord@@PAXPBU_s_HandlerType@@PBU_s_CatchableType@@@Z 10025880     libvcruntime:frame.obj
 0002:000078a0       __sehtable$??$BuildCatchObjectInternal@V__FrameHandler3@@@@YAXPAUEHExceptionRecord@@PAXPBU_s_HandlerType@@PBU_s_CatchableType@@@Z 100258a0     libvcruntime:frame.obj
 0002:000078f8       __sehtable$___DestructExceptionObject 100258f8     libvcruntime:ehhelpers.obj
 0002:00007918       __sehtable$?common_exit@@YAXHW4_crt_exit_cleanup_mode@@W4_crt_exit_return_mode@@@Z 10025918     libucrt:exit.obj
 0002:00007940       __sehtable$??$?RV<lambda_800076c951b434888f4765a74a194fcc>@@AAV<lambda_4e60a939b0d047cfe11ddc22648dfba9>@@V<lambda_6dbb1268764f43b569ce7b67e331d33a>@@@?$__crt_seh_guarded_call@H@@QAEH$$QAV<lambda_800076c951b434888f4765a74a194fcc>@@AAV<lambda_4e60a939b0d047cfe11ddc22648dfba9>@@$$QAV<lambda_6dbb1268764f43b569ce7b67e331d33a>@@@Z 10025940     libucrt:onexit.obj
 0002:00007960       __sehtable$??$?RV<lambda_995298e7d72eb4c2aab26c0585b3abe5>@@AAV<lambda_275893d493268fdec8709772e3fcec0e>@@V<lambda_293819299cbf9a7022e18b56a874bb5c>@@@?$__crt_seh_guarded_call@H@@QAEH$$QAV<lambda_995298e7d72eb4c2aab26c0585b3abe5>@@AAV<lambda_275893d493268fdec8709772e3fcec0e>@@$$QAV<lambda_293819299cbf9a7022e18b56a874bb5c>@@@Z 10025960     libucrt:onexit.obj
 0002:00007980       __sehtable$__query_new_handler 10025980     libucrt:new_handler.obj
 0002:000079a0       __sehtable$_terminate      100259a0     libucrt:terminate.obj
 0002:000079c0       __sehtable$??$?RV<lambda_9df27f884b057bc3edfc946cb5b7cf47>@@AAV<lambda_e69574bed617af4e071282c136b37893>@@V<lambda_cc0d902bcbbeb830f749456577db4721>@@@?$__crt_seh_guarded_call@X@@QAEX$$QAV<lambda_9df27f884b057bc3edfc946cb5b7cf47>@@AAV<lambda_e69574bed617af4e071282c136b37893>@@$$QAV<lambda_cc0d902bcbbeb830f749456577db4721>@@@Z 100259c0     libucrt:per_thread_data.obj
 0002:000079e0       __sehtable$??$?RV<lambda_3518db117f0e7cdb002338c5d3c47b6c>@@AAV<lambda_b2ea41f6bbb362cd97d94c6828d90b61>@@V<lambda_abdedf541bb04549bc734292b4a045d4>@@@?$__crt_seh_guarded_call@X@@QAEX$$QAV<lambda_3518db117f0e7cdb002338c5d3c47b6c>@@AAV<lambda_b2ea41f6bbb362cd97d94c6828d90b61>@@$$QAV<lambda_abdedf541bb04549bc734292b4a045d4>@@@Z 100259e0     libucrt:per_thread_data.obj
 0002:00007a00       __sehtable$??$?RV<lambda_51b6e8b1eb166f2a3faf91f424b38130>@@AAV<lambda_6250bd4b2a391816dd638c3bf72b0bcb>@@V<lambda_0b5a4a3e68152e1d9b943535f5f47bed>@@@?$__crt_seh_guarded_call@X@@QAEX$$QAV<lambda_51b6e8b1eb166f2a3faf91f424b38130>@@AAV<lambda_6250bd4b2a391816dd638c3bf72b0bcb>@@$$QAV<lambda_0b5a4a3e68152e1d9b943535f5f47bed>@@@Z 10025a00     libucrt:per_thread_data.obj
 0002:00007a20       __sehtable$??$?RV<lambda_5b71d36f03204c0beab531769a5b5694>@@AAV<lambda_be2b3da3f62db62e9dad5dc70221a656>@@V<lambda_8f9ce462984622f9bf76b59e2aaaf805>@@@?$__crt_seh_guarded_call@X@@QAEX$$QAV<lambda_5b71d36f03204c0beab531769a5b5694>@@AAV<lambda_be2b3da3f62db62e9dad5dc70221a656>@@$$QAV<lambda_8f9ce462984622f9bf76b59e2aaaf805>@@@Z 10025a20     libucrt:per_thread_data.obj
 0002:00007a40       __sehtable$___acrt_uninitialize_locale 10025a40     libucrt:wsetlocale.obj
 0002:00007a60       __sehtable$___acrt_initialize_lowio 10025a60     libucrt:ioinit.obj
 0002:00007a80       __sehtable$___acrt_update_thread_multibyte_data 10025a80     libucrt:mbctype.obj
 0002:00007aa0       __sehtable$??$?RV<lambda_978dc153c237d78434369da87b74ff60>@@AAV<lambda_ad1ced32f4ac17aa236e5ef05d6b3b7c>@@V<lambda_4a8533e2866a575feecb8298ce776b0d>@@@?$__crt_seh_guarded_call@X@@QAEX$$QAV<lambda_978dc153c237d78434369da87b74ff60>@@AAV<lambda_ad1ced32f4ac17aa236e5ef05d6b3b7c>@@$$QAV<lambda_4a8533e2866a575feecb8298ce776b0d>@@@Z 10025aa0     libucrt:mbctype.obj
 0002:00007ac0       __sehtable$_raise          10025ac0     libucrt:signal.obj
 0002:00007ae0       __sehtable$??$?RV<lambda_a048d3beccc847880fc8490e18b82769>@@AAV<lambda_ec61778202f4f5fc7e7711acc23c3bca>@@V<lambda_f7496a158712204296dd6628a163878e>@@@?$__crt_seh_guarded_call@P6AXH@Z@@QAEP6AXH@Z$$QAV<lambda_a048d3beccc847880fc8490e18b82769>@@AAV<lambda_ec61778202f4f5fc7e7711acc23c3bca>@@$$QAV<lambda_f7496a158712204296dd6628a163878e>@@@Z 10025ae0     libucrt:signal.obj
 0002:00007b00       __sehtable$___acrt_update_thread_locale_data 10025b00     libucrt:locale_refcounting.obj
 0002:00007b20       __sehtable$__fcloseall     10025b20     libucrt:closeall.obj
 0002:00007b40       __sehtable$_common_flush_all 10025b40     libucrt:fflush.obj
 0002:00007b68       __sehtable$___acrt_lowio_ensure_fh_exists 10025b68     libucrt:osfinfo.obj
 0002:00007b88       __sehtable$__write         10025b88     libucrt:write.obj
 0002:00007ba8       __sehtable$_fclose         10025ba8     libucrt:fclose.obj
 0002:00007bc8       __sehtable$??$?RV<lambda_61cee617f5178ae960314fd4d05640a0>@@AAV<lambda_6978c1fb23f02e42e1d9e99668cc68aa>@@V<lambda_9cd88cf8ad10232537feb2133f08c833>@@@?$__crt_seh_guarded_call@H@@QAEH$$QAV<lambda_61cee617f5178ae960314fd4d05640a0>@@AAV<lambda_6978c1fb23f02e42e1d9e99668cc68aa>@@$$QAV<lambda_9cd88cf8ad10232537feb2133f08c833>@@@Z 10025bc8     libucrt:commit.obj
 0002:00007be8       __sehtable$??$?RV<lambda_123407a5e2ac06da108355a851863b7a>@@AAV<lambda_2fe9b910cf3cbf4a0ab98a02ba45b3ec>@@V<lambda_ae55bdf541ad94d75914d381c370e64d>@@@?$__crt_seh_guarded_call@H@@QAEH$$QAV<lambda_123407a5e2ac06da108355a851863b7a>@@AAV<lambda_2fe9b910cf3cbf4a0ab98a02ba45b3ec>@@$$QAV<lambda_ae55bdf541ad94d75914d381c370e64d>@@@Z 10025be8     libucrt:close.obj
 0002:00007c08       __sehtable$__IsNonwritableInCurrentImage 10025c08     LIBCMT:pesect.obj
 0002:00007c30       .edata                     10025c30     OPOSCashDrawer.exp
 0002:00007c58       rgpv                       10025c58     OPOSCashDrawer.exp
 0002:00007c68       rgszName                   10025c68     OPOSCashDrawer.exp
 0002:00007c78       rgwOrd                     10025c78     OPOSCashDrawer.exp
 0002:00007c80       szName                     10025c80     OPOSCashDrawer.exp
 0002:00007c93       $N00001                    10025c93     OPOSCashDrawer.exp
 0002:00007ca3       $N00002                    10025ca3     OPOSCashDrawer.exp
 0002:00007cb5       $N00003                    10025cb5     OPOSCashDrawer.exp
 0002:00007cc7       $N00004                    10025cc7     OPOSCashDrawer.exp
 0002:000082da       .idata$6                   100262da     kernel32:KERNEL32.dll
 0002:000084ee       .idata$6                   100264ee     user32:USER32.dll
 0002:00008622       .idata$6                   10026622     gdi32:GDI32.dll
 0002:000086c8       .idata$6                   100266c8     advapi32:ADVAPI32.dll
 0002:000087e4       .idata$6                   100267e4     ole32:ole32.dll
 0002:000087ee       .idata$6                   100267ee     oleaut32:OLEAUT32.dll
 0003:00000110       ?ObjectMap@@3PAU_ATL_OBJMAP_ENTRY30@ATL@@A 10027110     CashDrawer.obj
 0003:000001b8       ?s_SOMethodNames@@3PAPADA  100271b8     CashDrawerImpl.obj
 0003:00000204       ?s_RequiredMethodsPerRelease@@3PAHA 10027204     CashDrawerImpl.obj
 0003:00000250       ?__vcrt_flsindex@@3KA      10027250     libvcruntime:per_thread_data.obj
 0003:00000270       _errno_no_memory           10027270     libucrt:errno.obj
 0003:00000274       _doserrno_no_memory        10027274     libucrt:errno.obj
 0003:00000280       ___acrt_flsindex           10027280     libucrt:per_thread_data.obj
 0003:000003f4       ___rgctypeflag             100273f4     libucrt:mbctype.obj
 0003:000003f8       ___rgcode_page_info        100273f8     libucrt:mbctype.obj
 0003:00000b18       ?is_initialized_as_dll@@3_NA 10027b18     LIBCMT:utility.obj
 0003:00000b19       ?module_local_atexit_table_initialized@@3_NA 10027b19     LIBCMT:utility.obj
 0003:00000b1c       ?module_local_atexit_table@@3U_onexit_table_t@@A 10027b1c     LIBCMT:utility.obj
 0003:00000b28       ?module_local_at_quick_exit_table@@3U_onexit_table_t@@A 10027b28     LIBCMT:utility.obj
 0003:00000b34       ?_Tss_mutex@@3U_RTL_CRITICAL_SECTION@@A 10027b34     LIBCMT:thread_safe_statics.obj
 0003:00000b4c       ?_Tss_cv@@3U_RTL_CONDITION_VARIABLE@@A 10027b4c     LIBCMT:thread_safe_statics.obj
 0003:00000b50       ?_Tss_event@@3PAXA         10027b50     LIBCMT:thread_safe_statics.obj
 0003:00000b54       ?encoded_sleep_condition_variable_cs@@3P6GHPAU_RTL_CONDITION_VARIABLE@@PAU_RTL_CRITICAL_SECTION@@K@ZA 10027b54     LIBCMT:thread_safe_statics.obj
 0003:00000b58       ?encoded_wake_all_condition_variable@@3P6GXPAU_RTL_CONDITION_VARIABLE@@@ZA 10027b58     LIBCMT:thread_safe_statics.obj
 0003:00000b60       _GS_ExceptionRecord        10027b60     LIBCMT:gs_report.obj
 0003:00000bb0       _GS_ContextRecord          10027bb0     LIBCMT:gs_report.obj
 0003:00000e80       ?__proc_attached@@3HA      10027e80     LIBCMT:dll_dllmain.obj
 0003:00000edc       ?AllocateData@@3P6GPAUAtlThunkData_t@@XZA 10027edc     atls:atlthunk.obj
 0003:00000ee0       ?InitData@@3P6GXPAUAtlThunkData_t@@PAXI@ZA 10027ee0     atls:atlthunk.obj
 0003:00000ee4       ?DataToCode@@3P6GP6GJPAUHWND__@@IIJ@ZPAUAtlThunkData_t@@@ZA 10027ee4     atls:atlthunk.obj
 0003:00000ee8       ?FreeData@@3P6GXPAUAtlThunkData_t@@@ZA 10027ee8     atls:atlthunk.obj
 0003:00000eec       ?Initialized@@3_NA         10027eec     atls:atlthunk.obj
 0003:00000ef8       ?__vcrt_startup_thread_ptd@@3U__vcrt_ptd@@A 10027ef8     libvcruntime:per_thread_data.obj
 0003:00000f20       ___vcrt_lock_table         10027f20     libvcruntime:locks.obj
 0003:00000f38       ___vcrt_locks_initialized  10027f38     libvcruntime:locks.obj
 0003:00000f3c       ?module_handles@@3PAPAUHINSTANCE__@@A 10027f3c     libvcruntime:winapi_downlevel.obj
 0003:00000f48       ?encoded_function_pointers@@3PAPAXA 10027f48     libvcruntime:winapi_downlevel.obj
 0003:00000f84       ?heap@@3V_HeapManager@@A   10027f84     libvcruntime:undname.obj
 0003:00000f9c       ___acrt_invalid_parameter_handler 10027f9c     libucrt:invalid_parameter.obj
 0003:00000fa0       _c_termination_complete    10027fa0     libucrt:exit.obj
 0003:00000fa4       _thread_local_exit_callback_func 10027fa4     libucrt:exit.obj
 0003:00000fa8       ?c_exit_complete@?5??common_exit@@YAXHW4_crt_exit_cleanup_mode@@W4_crt_exit_return_mode@@@Z@4_NA 10027fa8     libucrt:exit.obj
 0003:00000fb0       ?program_name@?5???$common_configure_argv@D@@YAHW4_crt_argv_mode@@@Z@4PADA 10027fb0     libucrt:argv_parsing.obj
 0003:000010e0       ___acrt_new_handler        100280e0     libucrt:new_handler.obj
 0003:000010e8       _module_handles            100280e8     libucrt:winapi_thunks.obj
 0003:00001138       _encoded_function_pointers 10028138     libucrt:winapi_thunks.obj
 0003:000011b8       ?state_cache@?1??__acrt_is_packaged_app@@9@4JA 100281b8     libucrt:winapi_thunks.obj
 0003:000011c4       _enable_percent_n          100281c4     libucrt:printf_count_output.obj
 0003:000013e0       ___acrt_lock_table         100283e0     libucrt:locks.obj
 0003:00001518       ___acrt_locks_initialized  10028518     libucrt:locks.obj
 0003:00001534       _fSystemSet                10028534     libucrt:mbctype.obj
 0003:00001538       ?initialized@?1??__acrt_initialize_multibyte@@9@4_NA 10028538     libucrt:mbctype.obj
 0003:00001558       _ctrlc_action              10028558     libucrt:signal.obj
 0003:0000155c       _ctrlbreak_action          1002855c     libucrt:signal.obj
 0003:00001560       _abort_action              10028560     libucrt:signal.obj
 0003:00001564       _term_action               10028564     libucrt:signal.obj
 0003:00001568       _user_matherr              10028568     libucrt:matherr.obj
 0003:0000156c       ___acrt_global_new_mode    1002856c     libucrt:new_mode.obj
 0003:00001578       ___acrt_app_type           10028578     libucrt:report_runtime_error.obj
 0003:00001580       __pmatherr_set             10028580     libucrt:libm_error.obj
 0004:00000220       $R000000                   10029220     CashDrawer.res
 0004:00000b90       $R000970                   10029b90     CashDrawer.res
 0004:00000c78       $R000A58                   10029c78     CashDrawer.res
 0004:00000ee0       $R000CC0                   10029ee0     CashDrawer.res
 0004:00001408       $R0011E8                   1002a408     CashDrawer.res
 0004:000038b8       $R003698                   1002c8b8     CashDrawer.res
 0004:000038f0       $R0036D0                   1002c8f0     CashDrawer.res
