 OPOSElectronicValueRW

 Timestamp is 5d429de1 (Thu Aug  1 17:08:01 2019)

 Preferred load address is 10000000

 Start         Length     Name                   Class
 0001:00000000 00000080H .text$di                CODE
 0001:00000080 0001f373H .text$mn                CODE
 0001:0001f3f3 00000036H .text$x                 CODE
 0001:0001f429 00000042H .text$yd                CODE
 0002:00000000 000002fcH .idata$5                DATA
 0002:000002fc 00000004H .00cfg                  DATA
 0002:00000300 00000004H .CRT$XCA                DATA
 0002:00000304 00000004H .CRT$XCL                DATA
 0002:00000308 00000010H .CRT$XCU                DATA
 0002:00000318 00000004H .CRT$XCZ                DATA
 0002:0000031c 00000004H .CRT$XIA                DATA
 0002:00000320 00000010H .CRT$XIC                DATA
 0002:00000330 00000004H .CRT$XIZ                DATA
 0002:00000334 00000004H .CRT$XLA                DATA
 0002:00000338 00000004H .CRT$XLZ                DATA
 0002:0000033c 00000004H .CRT$XPA                DATA
 0002:00000340 00000008H .CRT$XPX                DATA
 0002:00000348 00000004H .CRT$XPXA               DATA
 0002:0000034c 00000004H .CRT$XPZ                DATA
 0002:00000350 00000004H .CRT$XTA                DATA
 0002:00000354 0000000cH .CRT$XTZ                DATA
 0002:00000358 00000000H .gfids$y                DATA
 0002:00000360 0000748cH .rdata                  DATA
 0002:000077ec 00000018H .rdata$T                DATA
 0002:00007804 0000017cH .rdata$r                DATA
 0002:00007980 0000001cH .rdata$sxdata           DATA
 0002:0000799c 000003e4H .rdata$zzzdbg           DATA
 0002:00007d80 00000004H .rtc$IAA                DATA
 0002:00007d84 00000004H .rtc$IZZ                DATA
 0002:00007d88 00000004H .rtc$TAA                DATA
 0002:00007d8c 00000004H .rtc$TZZ                DATA
 0002:00007d90 00000004H .tls                    DATA
 0002:00007d94 00000004H .tls$                   DATA
 0002:00007d98 00000008H .tls$ZZZ                DATA
 0002:00007da0 00000604H .xdata$x                DATA
 0002:000083a4 00000004H ATL$__a                 DATA
 0002:000083a8 00000008H ATL$__z                 DATA
 0002:000083b0 000000b4H .edata                  DATA
 0002:00008464 00000078H .idata$2                DATA
 0002:000084dc 00000014H .idata$3                DATA
 0002:000084f0 000002fcH .idata$4                DATA
 0002:000087ec 00000bc8H .idata$6                DATA
 0003:00000000 00000b60H .data                   DATA
 0003:00000b60 00000098H .data$r                 DATA
 0003:00000bf8 00000b80H .bss                    DATA
 0004:00000000 00000220H .rsrc$01                DATA
 0004:00000220 00007e88H .rsrc$02                DATA

  Address         Publics by Value              Rva+Base       Lib:Object

 0000:00000000       ___dynamic_value_reloc_table 00000000     <absolute>
 0000:00000000       ___guard_fids_count        00000000     <absolute>
 0000:00000000       ___guard_longjmp_table     00000000     <absolute>
 0000:00000000       ___hybrid_code_map_count   00000000     <absolute>
 0000:00000000       __except_list              00000000     <absolute>
 0000:00000000       ___guard_fids_table        00000000     <absolute>
 0000:00000000       ___hybrid_auxiliary_iat    00000000     <absolute>
 0000:00000000       ___guard_longjmp_count     00000000     <absolute>
 0000:00000000       ___guard_iat_table         00000000     <absolute>
 0000:00000000       ___guard_iat_count         00000000     <absolute>
 0000:00000000       ___volatile_metadata       00000000     <absolute>
 0000:00000000       ___AbsoluteZero            00000000     <absolute>
 0000:00000000       ___enclave_config          00000000     <absolute>
 0000:00000000       ___hybrid_code_map         00000000     <absolute>
 0000:00000007       ___safe_se_handler_count   00000007     <absolute>
 0000:0000002c       __tls_array                0000002c     <absolute>
 0000:00000100       ___guard_flags             00000100     <absolute>
 0000:00000000       ___ImageBase               10000000     <linker-defined>
 0001:00000080       ?DupWide@_CW@@AAEXXZ       10001080 f   CWString.obj
 0001:0000009c       ?cw_dup@@YGXPBDAAHAAPA_W1@Z 1000109c f   CWString.obj
 0001:0000010b       ?cw_memcpy@@YGHPA_WPBDH@Z  1000110b f   CWString.obj
 0001:00000137       ?cw_strcpy@@YAHPA_WPBD@Z   10001137 f   CWString.obj
 0001:0000014a       ?cw_strlen@@YAHPBD@Z       1000114a f   CWString.obj
 0001:00000163       ??0CAtlComModule@ATL@@QAE@XZ 10001163 f i OposVariant.obj
 0001:000001a8       ??0CAtlWinModule@ATL@@QAE@XZ 100011a8 f i OposVariant.obj
 0001:000001df       ??0OposDispParms@@QAE@PAVOposVariant@@H@Z 100011df f   OposVariant.obj
 0001:00000250       ??1OposDispParms@@QAE@XZ   10001250 f   OposVariant.obj
 0001:0000025e       ??A?$CSimpleArray@GV?$CSimpleArrayEqualHelper@G@ATL@@@ATL@@QAEAAGH@Z 1000125e f i OposVariant.obj
 0001:00000283       ??_Estringdispid@CComTypeInfoHolder@ATL@@QAEPAXI@Z 10001283 f i OposVariant.obj
 0001:000002ef       ?AtlWinModuleInit@ATL@@YGJPAU_ATL_WIN_MODULE70@1@@Z 100012ef f i OposVariant.obj
 0001:00000315       ?AtlWinModuleTerm@ATL@@YGJPAU_ATL_WIN_MODULE70@1@PAUHINSTANCE__@@@Z 10001315 f i OposVariant.obj
 0001:00000378       ?ChangeBSTR@OposVariant@@QAEXPAPA_WAAJ@Z 10001378 f   OposVariant.obj
 0001:000003b9       ?ChangeCURRENCY@OposVariant@@QAEXPATtagCY@@AAJ@Z 100013b9 f   OposVariant.obj
 0001:00000408       ?ChangeLONG@OposVariant@@QAEXPAJAAJ@Z 10001408 f   OposVariant.obj
 0001:00000449       ?GetLONG@OposVariant@@QAEJXZ 10001449 f   OposVariant.obj
 0001:00000464       ?Init@CComCriticalSection@ATL@@QAEJXZ 10001464 f i OposVariant.obj
 0001:0000048c       ?RemoveAll@?$CSimpleArray@GV?$CSimpleArrayEqualHelper@G@ATL@@@ATL@@QAEXXZ 1000148c f i OposVariant.obj
 0001:0000048c       ?RemoveAll@?$CSimpleArray@PAUHINSTANCE__@@V?$CSimpleArrayEqualHelper@PAUHINSTANCE__@@@ATL@@@ATL@@QAEXXZ 1000148c f i atls:atlbase.obj
 0001:000004a9       ?SetBSTR@OposVariant@@QAEXPA_WAAJ@Z 100014a9 f   OposVariant.obj
 0001:000004dd       ?SetBSTR_Copy@OposVariant@@QAEXPA_WAAJ@Z 100014dd f   OposVariant.obj
 0001:0000052d       ?SetBSTR_InOutPtr@OposVariant@@QAE_NPAPA_WAAJ@Z 1000152d f   OposVariant.obj
 0001:00000564       ?SetCURRENCY@OposVariant@@QAEXTtagCY@@@Z 10001564 f   OposVariant.obj
 0001:0000058c       ?SetDispatch_Ptr@OposVariant@@QAEXPAUIDispatch@@AAJ@Z 1000158c f   OposVariant.obj
 0001:000005c7       ?SetLONG@OposVariant@@QAEXJ@Z 100015c7 f   OposVariant.obj
 0001:000005e9       ?SetLONG_Ptr@OposVariant@@QAEXPAJAAJ@Z 100015e9 f   OposVariant.obj
 0001:0000061c       ?SetString@OposVariant@@QAEXPB_WAAJ@Z 1000161c f   OposVariant.obj
 0001:00000662       ?SetVARIANT_BOOL@OposVariant@@QAEXF@Z 10001662 f   OposVariant.obj
 0001:0000068c       ?Term@CAtlComModule@ATL@@QAEXXZ 1000168c f i OposVariant.obj
 0001:000006d6       ?_AtlRaiseException@ATL@@YAXKK@Z 100016d6 f i OposVariant.obj
 0001:000006eb       ?CreateInstance@?$CComCreator@V?$CComObjectCached@VCComClassFactory@ATL@@@ATL@@@ATL@@SGJPAXABU_GUID@@PAPAX@Z 100016eb f i ElectronicValueRW.obj
 0001:0000077e       ?CreateInstance@?$CComCreator2@V?$CComCreator@V?$CComObject@VCOPOSElectronicValueRW@@@ATL@@@ATL@@V?$CComCreator@V?$CComAggObject@VCOPOSElectronicValueRW@@@ATL@@@2@@ATL@@SGJPAXABU_GUID@@PAPAX@Z 1000177e f i ElectronicValueRW.obj
 0001:0000079e       ?Next@?$CComEnumImpl@UIEnumConnectionPoints@@$1?_GUID_b196b285_bab4_101a_b69c_00aa00341d07@@3U__s_GUID@@BPAUIConnectionPoint@@V?$_CopyInterface@UIConnectionPoint@@@ATL@@@ATL@@UAGJKPAPAUIConnectionPoint@@PAK@Z 1000179e f i ElectronicValueRW.obj
 0001:00000875       ?Skip@?$CComEnumImpl@UIEnumConnectionPoints@@$1?_GUID_b196b285_bab4_101a_b69c_00aa00341d07@@3U__s_GUID@@BPAUIConnectionPoint@@V?$_CopyInterface@UIConnectionPoint@@@ATL@@@ATL@@UAGJK@Z 10001875 f i ElectronicValueRW.obj
 0001:000008a2       ?Reset@?$CComEnumImpl@UIEnumConnectionPoints@@$1?_GUID_b196b285_bab4_101a_b69c_00aa00341d07@@3U__s_GUID@@BPAUIConnectionPoint@@V?$_CopyInterface@UIConnectionPoint@@@ATL@@@ATL@@UAGJXZ 100018a2 f i ElectronicValueRW.obj
 0001:000008a2       ?Reset@?$CComEnumImpl@UIEnumConnections@@$1?_GUID_b196b287_bab4_101a_b69c_00aa00341d07@@3U__s_GUID@@BUtagCONNECTDATA@@V?$_Copy@UtagCONNECTDATA@@@ATL@@@ATL@@UAGJXZ 100018a2 f i ElectronicValueRW.obj
 0001:000008b4       ?Clone@?$CComEnumImpl@UIEnumConnectionPoints@@$1?_GUID_b196b285_bab4_101a_b69c_00aa00341d07@@3U__s_GUID@@BPAUIConnectionPoint@@V?$_CopyInterface@UIConnectionPoint@@@ATL@@@ATL@@UAGJPAPAUIEnumConnectionPoints@@@Z 100018b4 f i ElectronicValueRW.obj
 0001:00000995       ?AddRef@?$CComObject@V?$CComEnum@UIEnumConnectionPoints@@$1?_GUID_b196b285_bab4_101a_b69c_00aa00341d07@@3U__s_GUID@@BPAUIConnectionPoint@@V?$_CopyInterface@UIConnectionPoint@@@ATL@@VCComSingleThreadModel@6@@ATL@@@ATL@@UAGKXZ 10001995 f i ElectronicValueRW.obj
 0001:00000995       ?AddRef@?$CComObject@V?$CComEnum@UIEnumConnections@@$1?_GUID_b196b287_bab4_101a_b69c_00aa00341d07@@3U__s_GUID@@BUtagCONNECTDATA@@V?$_Copy@UtagCONNECTDATA@@@ATL@@VCComSingleThreadModel@6@@ATL@@@ATL@@UAGKXZ 10001995 f i ElectronicValueRW.obj
 0001:000009a6       ?Release@?$CComObject@V?$CComEnum@UIEnumConnectionPoints@@$1?_GUID_b196b285_bab4_101a_b69c_00aa00341d07@@3U__s_GUID@@BPAUIConnectionPoint@@V?$_CopyInterface@UIConnectionPoint@@@ATL@@VCComSingleThreadModel@6@@ATL@@@ATL@@UAGKXZ 100019a6 f i ElectronicValueRW.obj
 0001:000009a6       ?Release@?$CComObject@V?$CComEnum@UIEnumConnections@@$1?_GUID_b196b287_bab4_101a_b69c_00aa00341d07@@3U__s_GUID@@BUtagCONNECTDATA@@V?$_Copy@UtagCONNECTDATA@@@ATL@@VCComSingleThreadModel@6@@ATL@@@ATL@@UAGKXZ 100019a6 f i ElectronicValueRW.obj
 0001:000009e2       ?QueryInterface@?$CComObject@V?$CComEnum@UIEnumConnectionPoints@@$1?_GUID_b196b285_bab4_101a_b69c_00aa00341d07@@3U__s_GUID@@BPAUIConnectionPoint@@V?$_CopyInterface@UIConnectionPoint@@@ATL@@VCComSingleThreadModel@6@@ATL@@@ATL@@UAGJABU_GUID@@PAPAX@Z 100019e2 f i ElectronicValueRW.obj
 0001:000009fc       ??_G?$CComObject@V?$CComEnum@UIEnumConnectionPoints@@$1?_GUID_b196b285_bab4_101a_b69c_00aa00341d07@@3U__s_GUID@@BPAUIConnectionPoint@@V?$_CopyInterface@UIConnectionPoint@@@ATL@@VCComSingleThreadModel@6@@ATL@@@ATL@@UAEPAXI@Z 100019fc f i ElectronicValueRW.obj
 0001:000009fc       ??_E?$CComObject@V?$CComEnum@UIEnumConnectionPoints@@$1?_GUID_b196b285_bab4_101a_b69c_00aa00341d07@@3U__s_GUID@@BPAUIConnectionPoint@@V?$_CopyInterface@UIConnectionPoint@@@ATL@@VCComSingleThreadModel@6@@ATL@@@ATL@@UAEPAXI@Z 100019fc f i ElectronicValueRW.obj
 0001:00000a1e       ?Lock@CAtlModule@ATL@@UAEJXZ 10001a1e f i ElectronicValueRW.obj
 0001:00000a28       ?Unlock@CAtlModule@ATL@@UAEJXZ 10001a28 f i ElectronicValueRW.obj
 0001:00000a32       ?GetLockCount@CAtlModule@ATL@@UAEJXZ 10001a32 f i ElectronicValueRW.obj
 0001:00000a36       ?GetGITPtr@CAtlModule@ATL@@UAEJPAPAUIGlobalInterfaceTable@@@Z 10001a36 f i ElectronicValueRW.obj
 0001:00000a82       ?AddRef@?$CComObjectCached@VCComClassFactory@ATL@@@ATL@@UAGKXZ 10001a82 f i ElectronicValueRW.obj
 0001:00000aa9       ?Release@?$CComObjectCached@VCComClassFactory@ATL@@@ATL@@UAGKXZ 10001aa9 f i ElectronicValueRW.obj
 0001:00000adf       ?QueryInterface@?$CComObjectCached@VCComClassFactory@ATL@@@ATL@@UAGJABU_GUID@@PAPAX@Z 10001adf f i ElectronicValueRW.obj
 0001:00000af9       ??_E?$CComObjectCached@VCComClassFactory@ATL@@@ATL@@UAEPAXI@Z 10001af9 f i ElectronicValueRW.obj
 0001:00000af9       ??_G?$CComObjectCached@VCComClassFactory@ATL@@@ATL@@UAEPAXI@Z 10001af9 f i ElectronicValueRW.obj
 0001:00000b1b       ?AddCommonRGSReplacements@?$CAtlModuleT@VCComModule@ATL@@@ATL@@UAEJPAUIRegistrarBase@@@Z 10001b1b f i ElectronicValueRW.obj
 0001:00000b35       ?UpdateRegistryFromResourceD@CComModule@ATL@@UAGJIHPAU_ATL_REGMAP_ENTRY@2@@Z 10001b35 f i ElectronicValueRW.obj
 0001:00000b35       ?UpdateRegistryFromResourceD@CComModule@ATL@@UAGJPB_WHPAU_ATL_REGMAP_ENTRY@2@@Z 10001b35 f i ElectronicValueRW.obj
 0001:00000b3d       ?UpdateRegistryFromResource@CComModule@ATL@@UAGJPB_WHPAU_ATL_REGMAP_ENTRY@2@@Z 10001b3d f i ElectronicValueRW.obj
 0001:00000b46       ?UpdateRegistryFromResource@CComModule@ATL@@UAGJIHPAU_ATL_REGMAP_ENTRY@2@@Z 10001b46 f i ElectronicValueRW.obj
 0001:00000b4f       ??_GCComModule@ATL@@UAEPAXI@Z 10001b4f f i ElectronicValueRW.obj
 0001:00000b4f       ??_ECComModule@ATL@@UAEPAXI@Z 10001b4f f i ElectronicValueRW.obj
 0001:00000b77       ?AddRef@?$CComAggObject@VCOPOSElectronicValueRW@@@ATL@@UAGKXZ 10001b77 f i ElectronicValueRW.obj
 0001:00000b88       ?Release@?$CComAggObject@VCOPOSElectronicValueRW@@@ATL@@UAGKXZ 10001b88 f i ElectronicValueRW.obj
 0001:00000bc4       ?QueryInterface@?$CComAggObject@VCOPOSElectronicValueRW@@@ATL@@UAGJABU_GUID@@PAPAX@Z 10001bc4 f i ElectronicValueRW.obj
 0001:00000c13       ?AddRef@?$CComContainedObject@VCOPOSElectronicValueRW@@@ATL@@UAGKXZ 10001c13 f i ElectronicValueRW.obj
 0001:00000c29       ?Release@?$CComContainedObject@VCOPOSElectronicValueRW@@@ATL@@UAGKXZ 10001c29 f i ElectronicValueRW.obj
 0001:00000c3f       ?OnDrawAdvanced@CComControlBase@ATL@@UAEJAAUATL_DRAWINFO@@@Z 10001c3f f i ElectronicValueRW.obj
 0001:00000d2e       ?QueryInterface@?$CComContainedObject@VCOPOSElectronicValueRW@@@ATL@@UAGJABU_GUID@@PAPAX@Z 10001d2e f i ElectronicValueRW.obj
 0001:00000d49       ??_E?$CComAggObject@VCOPOSElectronicValueRW@@@ATL@@UAEPAXI@Z 10001d49 f i ElectronicValueRW.obj
 0001:00000d49       ??_G?$CComAggObject@VCOPOSElectronicValueRW@@@ATL@@UAEPAXI@Z 10001d49 f i ElectronicValueRW.obj
 0001:00000d6e       ?AddRef@?$CComObject@VCOPOSElectronicValueRW@@@ATL@@UAGKXZ 10001d6e f i ElectronicValueRW.obj
 0001:00000d85       ?Release@?$CComObject@VCOPOSElectronicValueRW@@@ATL@@UAGKXZ 10001d85 f i ElectronicValueRW.obj
 0001:00000dc7       ?QueryInterface@?$CComObject@VCOPOSElectronicValueRW@@@ATL@@UAGJABU_GUID@@PAPAX@Z 10001dc7 f i ElectronicValueRW.obj
 0001:00000de1       ?EnumFormatEtc@?$IDataObjectImpl@VCOPOSElectronicValueRW@@@ATL@@UAGJKPAPAUIEnumFORMATETC@@@Z 10001de1 f i ElectronicValueRW.obj
 0001:00000de1       ?SetMoniker@?$IOleObjectImpl@VCOPOSElectronicValueRW@@@ATL@@UAGJKPAUIMoniker@@@Z 10001de1 f i ElectronicValueRW.obj
 0001:00000de1       ?GetCanonicalFormatEtc@?$IDataObjectImpl@VCOPOSElectronicValueRW@@@ATL@@UAGJPAUtagFORMATETC@@0@Z 10001de1 f i ElectronicValueRW.obj
 0001:00000de1       ?GetRect@?$IViewObjectExImpl@VCOPOSElectronicValueRW@@@ATL@@UAGJKPAU_RECTL@@@Z 10001de1 f i ElectronicValueRW.obj
 0001:00000de1       ?GetDataHere@?$IDataObjectImpl@VCOPOSElectronicValueRW@@@ATL@@UAGJPAUtagFORMATETC@@PAUtagSTGMEDIUM@@@Z 10001de1 f i ElectronicValueRW.obj
 0001:00000de1       ?QueryInterface@CRegObject@ATL@@UAGJABU_GUID@@PAPAX@Z 10001de1 f i ElectronicValueRW.obj
 0001:00000de1       ?GetClipboardData@?$IOleObjectImpl@VCOPOSElectronicValueRW@@@ATL@@UAGJKPAPAUIDataObject@@@Z 10001de1 f i ElectronicValueRW.obj
 0001:00000de9       ?AddRef@CRegObject@ATL@@UAGKXZ 10001de9 f i ElectronicValueRW.obj
 0001:00000def       ?Update@?$IOleObjectImpl@VCOPOSElectronicValueRW@@@ATL@@UAGJXZ 10001def f i ElectronicValueRW.obj
 0001:00000def       ?HandsOffStorage@?$IPersistStorageImpl@VCOPOSElectronicValueRW@@@ATL@@UAGJXZ 10001def f i ElectronicValueRW.obj
 0001:00000def       ?Release@CRegObject@ATL@@UAGKXZ 10001def f i ElectronicValueRW.obj
 0001:00000def       ?IsUpToDate@?$IOleObjectImpl@VCOPOSElectronicValueRW@@@ATL@@UAGJXZ 10001def f i ElectronicValueRW.obj
 0001:00000df4       ?AddReplacement@CRegObject@ATL@@UAGJPB_W0@Z 10001df4 f i ElectronicValueRW.obj
 0001:00000e2d       ?ClearReplacements@CRegObject@ATL@@UAGJXZ 10001e2d f i ElectronicValueRW.obj
 0001:00000e3f       ??_GCRegObject@ATL@@UAEPAXI@Z 10001e3f f i ElectronicValueRW.obj
 0001:00000e3f       ??_ECRegObject@ATL@@UAEPAXI@Z 10001e3f f i ElectronicValueRW.obj
 0001:00000e61       ?Next@?$CComEnumImpl@UIEnumConnections@@$1?_GUID_b196b287_bab4_101a_b69c_00aa00341d07@@3U__s_GUID@@BUtagCONNECTDATA@@V?$_Copy@UtagCONNECTDATA@@@ATL@@@ATL@@UAGJKPAUtagCONNECTDATA@@PAK@Z 10001e61 f i ElectronicValueRW.obj
 0001:00000f38       ?Skip@?$CComEnumImpl@UIEnumConnections@@$1?_GUID_b196b287_bab4_101a_b69c_00aa00341d07@@3U__s_GUID@@BUtagCONNECTDATA@@V?$_Copy@UtagCONNECTDATA@@@ATL@@@ATL@@UAGJK@Z 10001f38 f i ElectronicValueRW.obj
 0001:00000f65       ?Clone@?$CComEnumImpl@UIEnumConnections@@$1?_GUID_b196b287_bab4_101a_b69c_00aa00341d07@@3U__s_GUID@@BUtagCONNECTDATA@@V?$_Copy@UtagCONNECTDATA@@@ATL@@@ATL@@UAGJPAPAUIEnumConnections@@@Z 10001f65 f i ElectronicValueRW.obj
 0001:00001046       ?QueryInterface@?$CComObject@V?$CComEnum@UIEnumConnections@@$1?_GUID_b196b287_bab4_101a_b69c_00aa00341d07@@3U__s_GUID@@BUtagCONNECTDATA@@V?$_Copy@UtagCONNECTDATA@@@ATL@@VCComSingleThreadModel@6@@ATL@@@ATL@@UAGJABU_GUID@@PAPAX@Z 10002046 f i ElectronicValueRW.obj
 0001:00001060       ??_G?$CComObject@V?$CComEnum@UIEnumConnections@@$1?_GUID_b196b287_bab4_101a_b69c_00aa00341d07@@3U__s_GUID@@BUtagCONNECTDATA@@V?$_Copy@UtagCONNECTDATA@@@ATL@@VCComSingleThreadModel@6@@ATL@@@ATL@@UAEPAXI@Z 10002060 f i ElectronicValueRW.obj
 0001:00001060       ??_E?$CComObject@V?$CComEnum@UIEnumConnections@@$1?_GUID_b196b287_bab4_101a_b69c_00aa00341d07@@3U__s_GUID@@BUtagCONNECTDATA@@V?$_Copy@UtagCONNECTDATA@@@ATL@@VCComSingleThreadModel@6@@ATL@@@ATL@@UAEPAXI@Z 10002060 f i ElectronicValueRW.obj
 0001:00001082       ?GetWindowProc@?$CWindowImplBaseT@VCWindow@ATL@@V?$CWinTraits@$0FGAAAAAA@$0A@@2@@ATL@@UAEP6GJPAUHWND__@@IIJ@ZXZ 10002082 f i ElectronicValueRW.obj
 0001:00001088       ?StartWindowProc@?$CWindowImplBaseT@VCWindow@ATL@@V?$CWinTraits@$0FGAAAAAA@$0A@@2@@ATL@@SGJPAUHWND__@@IIJ@Z 10002088 f i ElectronicValueRW.obj
 0001:000010dc       ??_E?$CComObject@VCOPOSElectronicValueRW@@@ATL@@W3AEPAXI@Z 100020dc f i ElectronicValueRW.obj
 0001:000010e4       ??_E?$CComObject@VCOPOSElectronicValueRW@@@ATL@@WEM@AEPAXI@Z 100020e4 f i ElectronicValueRW.obj
 0001:000010ec       ?QueryInterface@?$CComObject@VCOPOSElectronicValueRW@@@ATL@@WHA@AGJABU_GUID@@PAPAX@Z 100020ec f i ElectronicValueRW.obj
 0001:000010f6       ?AddRef@?$CComObject@VCOPOSElectronicValueRW@@@ATL@@WHA@AGKXZ 100020f6 f i ElectronicValueRW.obj
 0001:00001100       ?Release@?$CComObject@VCOPOSElectronicValueRW@@@ATL@@WHA@AGKXZ 10002100 f i ElectronicValueRW.obj
 0001:0000110a       ?QueryInterface@?$CComObject@VCOPOSElectronicValueRW@@@ATL@@WHE@AGJABU_GUID@@PAPAX@Z 1000210a f i ElectronicValueRW.obj
 0001:00001114       ?AddRef@?$CComObject@VCOPOSElectronicValueRW@@@ATL@@WHE@AGKXZ 10002114 f i ElectronicValueRW.obj
 0001:0000111e       ?Release@?$CComObject@VCOPOSElectronicValueRW@@@ATL@@WHE@AGKXZ 1000211e f i ElectronicValueRW.obj
 0001:00001128       ?QueryInterface@?$CComObject@VCOPOSElectronicValueRW@@@ATL@@WHI@AGJABU_GUID@@PAPAX@Z 10002128 f i ElectronicValueRW.obj
 0001:00001132       ?AddRef@?$CComObject@VCOPOSElectronicValueRW@@@ATL@@WHI@AGKXZ 10002132 f i ElectronicValueRW.obj
 0001:0000113c       ?Release@?$CComObject@VCOPOSElectronicValueRW@@@ATL@@WHI@AGKXZ 1000213c f i ElectronicValueRW.obj
 0001:00001146       ?QueryInterface@?$CComObject@VCOPOSElectronicValueRW@@@ATL@@WHM@AGJABU_GUID@@PAPAX@Z 10002146 f i ElectronicValueRW.obj
 0001:00001150       ?AddRef@?$CComObject@VCOPOSElectronicValueRW@@@ATL@@WHM@AGKXZ 10002150 f i ElectronicValueRW.obj
 0001:0000115a       ?Release@?$CComObject@VCOPOSElectronicValueRW@@@ATL@@WHM@AGKXZ 1000215a f i ElectronicValueRW.obj
 0001:00001164       ?QueryInterface@?$CComObject@VCOPOSElectronicValueRW@@@ATL@@WIA@AGJABU_GUID@@PAPAX@Z 10002164 f i ElectronicValueRW.obj
 0001:00001171       ?AddRef@?$CComObject@VCOPOSElectronicValueRW@@@ATL@@WIA@AGKXZ 10002171 f i ElectronicValueRW.obj
 0001:0000117e       ?Release@?$CComObject@VCOPOSElectronicValueRW@@@ATL@@WIA@AGKXZ 1000217e f i ElectronicValueRW.obj
 0001:0000118b       ?OnFinalMessage@?$CWindowImplBaseT@VCWindow@ATL@@V?$CWinTraits@$0FGAAAAAA@$0A@@2@@ATL@@UAEXPAUHWND__@@@Z 1000218b f i ElectronicValueRW.obj
 0001:0000118b       ?ObjectMain@CComObjectRootBase@ATL@@SGX_N@Z 1000218b f i ElectronicValueRW.obj
 0001:0000118e       ?QueryInterface@?$CComObject@VCOPOSElectronicValueRW@@@ATL@@WIE@AGJABU_GUID@@PAPAX@Z 1000218e f i ElectronicValueRW.obj
 0001:0000119b       ?AddRef@?$CComObject@VCOPOSElectronicValueRW@@@ATL@@WIE@AGKXZ 1000219b f i ElectronicValueRW.obj
 0001:000011a8       ?Release@?$CComObject@VCOPOSElectronicValueRW@@@ATL@@WIE@AGKXZ 100021a8 f i ElectronicValueRW.obj
 0001:000011b5       ?QueryInterface@?$CComObject@VCOPOSElectronicValueRW@@@ATL@@WII@AGJABU_GUID@@PAPAX@Z 100021b5 f i ElectronicValueRW.obj
 0001:000011c2       ?AddRef@?$CComObject@VCOPOSElectronicValueRW@@@ATL@@WII@AGKXZ 100021c2 f i ElectronicValueRW.obj
 0001:000011cf       ?Release@?$CComObject@VCOPOSElectronicValueRW@@@ATL@@WII@AGKXZ 100021cf f i ElectronicValueRW.obj
 0001:000011dc       ?QueryInterface@?$CComObject@VCOPOSElectronicValueRW@@@ATL@@WIM@AGJABU_GUID@@PAPAX@Z 100021dc f i ElectronicValueRW.obj
 0001:000011e9       ?AddRef@?$CComObject@VCOPOSElectronicValueRW@@@ATL@@WIM@AGKXZ 100021e9 f i ElectronicValueRW.obj
 0001:000011f6       ?Release@?$CComObject@VCOPOSElectronicValueRW@@@ATL@@WIM@AGKXZ 100021f6 f i ElectronicValueRW.obj
 0001:00001203       ?QueryInterface@?$CComObject@VCOPOSElectronicValueRW@@@ATL@@WJA@AGJABU_GUID@@PAPAX@Z 10002203 f i ElectronicValueRW.obj
 0001:00001210       ?AddRef@?$CComObject@VCOPOSElectronicValueRW@@@ATL@@WJA@AGKXZ 10002210 f i ElectronicValueRW.obj
 0001:0000121d       ?Release@?$CComObject@VCOPOSElectronicValueRW@@@ATL@@WJA@AGKXZ 1000221d f i ElectronicValueRW.obj
 0001:0000122a       ?QueryInterface@?$CComObject@VCOPOSElectronicValueRW@@@ATL@@WJE@AGJABU_GUID@@PAPAX@Z 1000222a f i ElectronicValueRW.obj
 0001:00001237       ?AddRef@?$CComObject@VCOPOSElectronicValueRW@@@ATL@@WJE@AGKXZ 10002237 f i ElectronicValueRW.obj
 0001:00001244       ?Release@?$CComObject@VCOPOSElectronicValueRW@@@ATL@@WJE@AGKXZ 10002244 f i ElectronicValueRW.obj
 0001:00001251       ?QueryInterface@?$CComObject@VCOPOSElectronicValueRW@@@ATL@@WJI@AGJABU_GUID@@PAPAX@Z 10002251 f i ElectronicValueRW.obj
 0001:0000125e       ?AddRef@?$CComObject@VCOPOSElectronicValueRW@@@ATL@@WJI@AGKXZ 1000225e f i ElectronicValueRW.obj
 0001:0000126b       ?Release@?$CComObject@VCOPOSElectronicValueRW@@@ATL@@WJI@AGKXZ 1000226b f i ElectronicValueRW.obj
 0001:00001278       ?QueryInterface@?$CComObject@VCOPOSElectronicValueRW@@@ATL@@WJM@AGJABU_GUID@@PAPAX@Z 10002278 f i ElectronicValueRW.obj
 0001:00001285       ?AddRef@?$CComObject@VCOPOSElectronicValueRW@@@ATL@@WJM@AGKXZ 10002285 f i ElectronicValueRW.obj
 0001:00001292       ?Release@?$CComObject@VCOPOSElectronicValueRW@@@ATL@@WJM@AGKXZ 10002292 f i ElectronicValueRW.obj
 0001:0000129f       ?QueryInterface@?$CComObject@VCOPOSElectronicValueRW@@@ATL@@WKA@AGJABU_GUID@@PAPAX@Z 1000229f f i ElectronicValueRW.obj
 0001:000012ac       ?AddRef@?$CComObject@VCOPOSElectronicValueRW@@@ATL@@WKA@AGKXZ 100022ac f i ElectronicValueRW.obj
 0001:000012b9       ?Release@?$CComObject@VCOPOSElectronicValueRW@@@ATL@@WKA@AGKXZ 100022b9 f i ElectronicValueRW.obj
 0001:000012c6       ?AddRef@?$CComObject@VCOPOSElectronicValueRW@@@ATL@@WKI@AGKXZ 100022c6 f i ElectronicValueRW.obj
 0001:000012d3       ?Release@?$CComObject@VCOPOSElectronicValueRW@@@ATL@@WKI@AGKXZ 100022d3 f i ElectronicValueRW.obj
 0001:000012e0       ?AddRef@?$CComObject@VCOPOSElectronicValueRW@@@ATL@@WLE@AGKXZ 100022e0 f i ElectronicValueRW.obj
 0001:000012ed       ?Release@?$CComObject@VCOPOSElectronicValueRW@@@ATL@@WLE@AGKXZ 100022ed f i ElectronicValueRW.obj
 0001:000012fa       ??_E?$CComContainedObject@VCOPOSElectronicValueRW@@@ATL@@W3AEPAXI@Z 100022fa f i ElectronicValueRW.obj
 0001:00001302       ??_E?$CComContainedObject@VCOPOSElectronicValueRW@@@ATL@@WEM@AEPAXI@Z 10002302 f i ElectronicValueRW.obj
 0001:0000130a       ?QueryInterface@?$CComContainedObject@VCOPOSElectronicValueRW@@@ATL@@WHA@AGJABU_GUID@@PAPAX@Z 1000230a f i ElectronicValueRW.obj
 0001:00001314       ?AddRef@?$CComContainedObject@VCOPOSElectronicValueRW@@@ATL@@WHA@AGKXZ 10002314 f i ElectronicValueRW.obj
 0001:0000131e       ?Release@?$CComContainedObject@VCOPOSElectronicValueRW@@@ATL@@WHA@AGKXZ 1000231e f i ElectronicValueRW.obj
 0001:00001328       ?QueryInterface@?$CComContainedObject@VCOPOSElectronicValueRW@@@ATL@@WHE@AGJABU_GUID@@PAPAX@Z 10002328 f i ElectronicValueRW.obj
 0001:00001332       ?AddRef@?$CComContainedObject@VCOPOSElectronicValueRW@@@ATL@@WHE@AGKXZ 10002332 f i ElectronicValueRW.obj
 0001:0000133c       ?Release@?$CComContainedObject@VCOPOSElectronicValueRW@@@ATL@@WHE@AGKXZ 1000233c f i ElectronicValueRW.obj
 0001:00001346       ?QueryInterface@?$CComContainedObject@VCOPOSElectronicValueRW@@@ATL@@WHI@AGJABU_GUID@@PAPAX@Z 10002346 f i ElectronicValueRW.obj
 0001:00001350       ?AddRef@?$CComContainedObject@VCOPOSElectronicValueRW@@@ATL@@WHI@AGKXZ 10002350 f i ElectronicValueRW.obj
 0001:0000135a       ?Release@?$CComContainedObject@VCOPOSElectronicValueRW@@@ATL@@WHI@AGKXZ 1000235a f i ElectronicValueRW.obj
 0001:00001364       ?QueryInterface@?$CComContainedObject@VCOPOSElectronicValueRW@@@ATL@@WHM@AGJABU_GUID@@PAPAX@Z 10002364 f i ElectronicValueRW.obj
 0001:0000136e       ?AddRef@?$CComContainedObject@VCOPOSElectronicValueRW@@@ATL@@WHM@AGKXZ 1000236e f i ElectronicValueRW.obj
 0001:00001378       ?Release@?$CComContainedObject@VCOPOSElectronicValueRW@@@ATL@@WHM@AGKXZ 10002378 f i ElectronicValueRW.obj
 0001:00001382       ?QueryInterface@?$CComContainedObject@VCOPOSElectronicValueRW@@@ATL@@WIA@AGJABU_GUID@@PAPAX@Z 10002382 f i ElectronicValueRW.obj
 0001:0000138f       ?AddRef@?$CComContainedObject@VCOPOSElectronicValueRW@@@ATL@@WIA@AGKXZ 1000238f f i ElectronicValueRW.obj
 0001:0000139c       ?Release@?$CComContainedObject@VCOPOSElectronicValueRW@@@ATL@@WIA@AGKXZ 1000239c f i ElectronicValueRW.obj
 0001:000013a9       ?QueryInterface@?$CComContainedObject@VCOPOSElectronicValueRW@@@ATL@@WIE@AGJABU_GUID@@PAPAX@Z 100023a9 f i ElectronicValueRW.obj
 0001:000013b6       ?AddRef@?$CComContainedObject@VCOPOSElectronicValueRW@@@ATL@@WIE@AGKXZ 100023b6 f i ElectronicValueRW.obj
 0001:000013c3       ?Release@?$CComContainedObject@VCOPOSElectronicValueRW@@@ATL@@WIE@AGKXZ 100023c3 f i ElectronicValueRW.obj
 0001:000013d0       ?QueryInterface@?$CComContainedObject@VCOPOSElectronicValueRW@@@ATL@@WII@AGJABU_GUID@@PAPAX@Z 100023d0 f i ElectronicValueRW.obj
 0001:000013dd       ?AddRef@?$CComContainedObject@VCOPOSElectronicValueRW@@@ATL@@WII@AGKXZ 100023dd f i ElectronicValueRW.obj
 0001:000013ea       ?Release@?$CComContainedObject@VCOPOSElectronicValueRW@@@ATL@@WII@AGKXZ 100023ea f i ElectronicValueRW.obj
 0001:000013f7       ?QueryInterface@?$CComContainedObject@VCOPOSElectronicValueRW@@@ATL@@WIM@AGJABU_GUID@@PAPAX@Z 100023f7 f i ElectronicValueRW.obj
 0001:00001404       ?AddRef@?$CComContainedObject@VCOPOSElectronicValueRW@@@ATL@@WIM@AGKXZ 10002404 f i ElectronicValueRW.obj
 0001:00001411       ?Release@?$CComContainedObject@VCOPOSElectronicValueRW@@@ATL@@WIM@AGKXZ 10002411 f i ElectronicValueRW.obj
 0001:0000141e       ?QueryInterface@?$CComContainedObject@VCOPOSElectronicValueRW@@@ATL@@WJA@AGJABU_GUID@@PAPAX@Z 1000241e f i ElectronicValueRW.obj
 0001:0000142b       ?AddRef@?$CComContainedObject@VCOPOSElectronicValueRW@@@ATL@@WJA@AGKXZ 1000242b f i ElectronicValueRW.obj
 0001:00001438       ?Release@?$CComContainedObject@VCOPOSElectronicValueRW@@@ATL@@WJA@AGKXZ 10002438 f i ElectronicValueRW.obj
 0001:00001445       ?QueryInterface@?$CComContainedObject@VCOPOSElectronicValueRW@@@ATL@@WJE@AGJABU_GUID@@PAPAX@Z 10002445 f i ElectronicValueRW.obj
 0001:00001452       ?AddRef@?$CComContainedObject@VCOPOSElectronicValueRW@@@ATL@@WJE@AGKXZ 10002452 f i ElectronicValueRW.obj
 0001:0000145f       ?Release@?$CComContainedObject@VCOPOSElectronicValueRW@@@ATL@@WJE@AGKXZ 1000245f f i ElectronicValueRW.obj
 0001:0000146c       ?QueryInterface@?$CComContainedObject@VCOPOSElectronicValueRW@@@ATL@@WJI@AGJABU_GUID@@PAPAX@Z 1000246c f i ElectronicValueRW.obj
 0001:00001479       ?AddRef@?$CComContainedObject@VCOPOSElectronicValueRW@@@ATL@@WJI@AGKXZ 10002479 f i ElectronicValueRW.obj
 0001:00001486       ?Release@?$CComContainedObject@VCOPOSElectronicValueRW@@@ATL@@WJI@AGKXZ 10002486 f i ElectronicValueRW.obj
 0001:00001493       ?QueryInterface@?$CComContainedObject@VCOPOSElectronicValueRW@@@ATL@@WJM@AGJABU_GUID@@PAPAX@Z 10002493 f i ElectronicValueRW.obj
 0001:000014a0       ?AddRef@?$CComContainedObject@VCOPOSElectronicValueRW@@@ATL@@WJM@AGKXZ 100024a0 f i ElectronicValueRW.obj
 0001:000014ad       ?Release@?$CComContainedObject@VCOPOSElectronicValueRW@@@ATL@@WJM@AGKXZ 100024ad f i ElectronicValueRW.obj
 0001:000014ba       ?QueryInterface@?$CComContainedObject@VCOPOSElectronicValueRW@@@ATL@@WKA@AGJABU_GUID@@PAPAX@Z 100024ba f i ElectronicValueRW.obj
 0001:000014c7       ?AddRef@?$CComContainedObject@VCOPOSElectronicValueRW@@@ATL@@WKA@AGKXZ 100024c7 f i ElectronicValueRW.obj
 0001:000014d4       ?Release@?$CComContainedObject@VCOPOSElectronicValueRW@@@ATL@@WKA@AGKXZ 100024d4 f i ElectronicValueRW.obj
 0001:000014e1       ?AddRef@?$CComContainedObject@VCOPOSElectronicValueRW@@@ATL@@WKI@AGKXZ 100024e1 f i ElectronicValueRW.obj
 0001:000014ee       ?Release@?$CComContainedObject@VCOPOSElectronicValueRW@@@ATL@@WKI@AGKXZ 100024ee f i ElectronicValueRW.obj
 0001:000014fb       ?AddRef@?$CComContainedObject@VCOPOSElectronicValueRW@@@ATL@@WLE@AGKXZ 100024fb f i ElectronicValueRW.obj
 0001:00001508       ?Release@?$CComContainedObject@VCOPOSElectronicValueRW@@@ATL@@WLE@AGKXZ 10002508 f i ElectronicValueRW.obj
 0001:00001515       ?GetTypeInfoCount@?$IDispatchImpl@UIOPOSElectronicValueRW@@$1?IID_IOPOSElectronicValueRW@@3U_GUID@@B$1?LIBID_OposElectronicValueRW_CCO@@3U3@B$00$0A@VCComTypeInfoHolder@ATL@@@ATL@@UAGJPAI@Z 10002515 f i ElectronicValueRW.obj
 0001:00001532       ?GetTypeInfo@?$IDispatchImpl@UIOPOSElectronicValueRW@@$1?IID_IOPOSElectronicValueRW@@3U_GUID@@B$1?LIBID_OposElectronicValueRW_CCO@@3U3@B$00$0A@VCComTypeInfoHolder@ATL@@@ATL@@UAGJIKPAPAUITypeInfo@@@Z 10002532 f i ElectronicValueRW.obj
 0001:00001556       ?GetIDsOfNames@?$IDispatchImpl@UIOPOSElectronicValueRW@@$1?IID_IOPOSElectronicValueRW@@3U_GUID@@B$1?LIBID_OposElectronicValueRW_CCO@@3U3@B$00$0A@VCComTypeInfoHolder@ATL@@@ATL@@UAGJABU_GUID@@PAPA_WIKPAJ@Z 10002556 f i ElectronicValueRW.obj
 0001:00001576       ?Invoke@?$IDispatchImpl@UIOPOSElectronicValueRW@@$1?IID_IOPOSElectronicValueRW@@3U_GUID@@B$1?LIBID_OposElectronicValueRW_CCO@@3U3@B$00$0A@VCComTypeInfoHolder@ATL@@@ATL@@UAGJJABU_GUID@@KGPAUtagDISPPARAMS@@PAUtagVARIANT@@PAUtagEXCEPINFO@@PAI@Z 10002576 f i ElectronicValueRW.obj
 0001:00001584       ?CreateControlWindow@?$CComControl@VCOPOSElectronicValueRW@@V?$CWindowImpl@VCOPOSElectronicValueRW@@VCWindow@ATL@@V?$CWinTraits@$0FGAAAAAA@$0A@@3@@ATL@@@ATL@@UAEPAUHWND__@@PAU3@AAUtagRECT@@@Z 10002584 f i ElectronicValueRW.obj
 0001:000015b3       ?ControlQueryInterface@?$CComControl@VCOPOSElectronicValueRW@@V?$CWindowImpl@VCOPOSElectronicValueRW@@VCWindow@ATL@@V?$CWinTraits@$0FGAAAAAA@$0A@@3@@ATL@@@ATL@@UAEJABU_GUID@@PAPAX@Z 100025b3 f i ElectronicValueRW.obj
 0001:000015ce       ?GetClassID@?$IPersistStorageImpl@VCOPOSElectronicValueRW@@@ATL@@UAGJPAU_GUID@@@Z 100025ce f i ElectronicValueRW.obj
 0001:000015ce       ?GetUserClassID@?$IOleObjectImpl@VCOPOSElectronicValueRW@@@ATL@@UAGJPAU_GUID@@@Z 100025ce f i ElectronicValueRW.obj
 0001:000015ce       ?GetClassID@?$IPersistStreamInitImpl@VCOPOSElectronicValueRW@@@ATL@@UAGJPAU_GUID@@@Z 100025ce f i ElectronicValueRW.obj
 0001:000015f2       ?IsDirty@?$IPersistStreamInitImpl@VCOPOSElectronicValueRW@@@ATL@@UAGJXZ 100025f2 f i ElectronicValueRW.obj
 0001:00001611       ?Load@?$IPersistStreamInitImpl@VCOPOSElectronicValueRW@@@ATL@@UAGJPAUIStream@@@Z 10002611 f i ElectronicValueRW.obj
 0001:00001630       ?Save@?$IPersistStreamInitImpl@VCOPOSElectronicValueRW@@@ATL@@UAGJPAUIStream@@H@Z 10002630 f i ElectronicValueRW.obj
 0001:00001652       ?GetSizeMax@?$IPersistStreamInitImpl@VCOPOSElectronicValueRW@@@ATL@@UAGJPAT_ULARGE_INTEGER@@@Z 10002652 f i ElectronicValueRW.obj
 0001:00001807       ?InitNew@?$IPersistStreamInitImpl@VCOPOSElectronicValueRW@@@ATL@@UAGJXZ 10002807 f i ElectronicValueRW.obj
 0001:00001824       ?QueryGetData@?$IDataObjectImpl@VCOPOSElectronicValueRW@@@ATL@@UAGJPAUtagFORMATETC@@@Z 10002824 f i ElectronicValueRW.obj
 0001:00001824       ?Unfreeze@?$IViewObjectExImpl@VCOPOSElectronicValueRW@@@ATL@@UAGJK@Z 10002824 f i ElectronicValueRW.obj
 0001:00001824       ?ContextSensitiveHelp@?$IOleInPlaceActiveObjectImpl@VCOPOSElectronicValueRW@@@ATL@@UAGJH@Z 10002824 f i ElectronicValueRW.obj
 0001:00001824       ?GetDropTarget@?$IOleInPlaceObjectWindowlessImpl@VCOPOSElectronicValueRW@@@ATL@@UAGJPAPAUIDropTarget@@@Z 10002824 f i ElectronicValueRW.obj
 0001:00001824       ?OnMnemonic@?$IOleControlImpl@VCOPOSElectronicValueRW@@@ATL@@UAGJPAUtagMSG@@@Z 10002824 f i ElectronicValueRW.obj
 0001:00001824       ?ContextSensitiveHelp@?$IOleInPlaceObjectWindowlessImpl@VCOPOSElectronicValueRW@@@ATL@@UAGJH@Z 10002824 f i ElectronicValueRW.obj
 0001:00001824       ?SetColorScheme@?$IOleObjectImpl@VCOPOSElectronicValueRW@@@ATL@@UAGJPAUtagLOGPALETTE@@@Z 10002824 f i ElectronicValueRW.obj
 0001:00001824       ?GetControlInfo@?$IOleControlImpl@VCOPOSElectronicValueRW@@@ATL@@UAGJPAUtagCONTROLINFO@@@Z 10002824 f i ElectronicValueRW.obj
 0001:0000182c       ?EnableModeless@?$IOleInPlaceActiveObjectImpl@VCOPOSElectronicValueRW@@@ATL@@UAGJH@Z 1000282c f i ElectronicValueRW.obj
 0001:0000182c       ?OnFrameWindowActivate@?$IOleInPlaceActiveObjectImpl@VCOPOSElectronicValueRW@@@ATL@@UAGJH@Z 1000282c f i ElectronicValueRW.obj
 0001:0000182c       ?OnAmbientPropertyChange@?$IOleControlImpl@VCOPOSElectronicValueRW@@@ATL@@UAGJJ@Z 1000282c f i ElectronicValueRW.obj
 0001:0000182c       ?SaveCompleted@?$IPersistStorageImpl@VCOPOSElectronicValueRW@@@ATL@@UAGJPAUIStorage@@@Z 1000282c f i ElectronicValueRW.obj
 0001:00001831       ?SetClientSite@?$IOleObjectImpl@VCOPOSElectronicValueRW@@@ATL@@UAGJPAUIOleClientSite@@@Z 10002831 f i ElectronicValueRW.obj
 0001:0000184e       ?GetClientSite@?$IOleObjectImpl@VCOPOSElectronicValueRW@@@ATL@@UAGJPAPAUIOleClientSite@@@Z 1000284e f i ElectronicValueRW.obj
 0001:0000186b       ?SetHostNames@?$IOleObjectImpl@VCOPOSElectronicValueRW@@@ATL@@UAGJPB_W0@Z 1000286b f i ElectronicValueRW.obj
 0001:00001870       ?Close@?$IOleObjectImpl@VCOPOSElectronicValueRW@@@ATL@@UAGJK@Z 10002870 f i ElectronicValueRW.obj
 0001:0000188d       ?SetData@?$IDataObjectImpl@VCOPOSElectronicValueRW@@@ATL@@UAGJPAUtagFORMATETC@@PAUtagSTGMEDIUM@@H@Z 1000288d f i ElectronicValueRW.obj
 0001:0000188d       ?InitFromData@?$IOleObjectImpl@VCOPOSElectronicValueRW@@@ATL@@UAGJPAUIDataObject@@HK@Z 1000288d f i ElectronicValueRW.obj
 0001:0000188d       ?GetMoniker@?$IOleObjectImpl@VCOPOSElectronicValueRW@@@ATL@@UAGJKKPAPAUIMoniker@@@Z 1000288d f i ElectronicValueRW.obj
 0001:00001895       ?DoVerb@?$IOleObjectImpl@VCOPOSElectronicValueRW@@@ATL@@UAGJJPAUtagMSG@@PAUIOleClientSite@@JPAUHWND__@@PBUtagRECT@@@Z 10002895 f i ElectronicValueRW.obj
 0001:000019ad       ?EnumVerbs@?$IOleObjectImpl@VCOPOSElectronicValueRW@@@ATL@@UAGJPAPAUIEnumOLEVERB@@@Z 100029ad f i ElectronicValueRW.obj
 0001:000019cf       ?GetUserType@?$IOleObjectImpl@VCOPOSElectronicValueRW@@@ATL@@UAGJKPAPA_W@Z 100029cf f i ElectronicValueRW.obj
 0001:000019e7       ?SetExtent@?$IOleObjectImpl@VCOPOSElectronicValueRW@@@ATL@@UAGJKPAUtagSIZE@@@Z 100029e7 f i ElectronicValueRW.obj
 0001:00001a07       ?GetExtent@?$IOleObjectImpl@VCOPOSElectronicValueRW@@@ATL@@UAGJKPAUtagSIZE@@@Z 10002a07 f i ElectronicValueRW.obj
 0001:00001a45       ?Advise@?$IOleObjectImpl@VCOPOSElectronicValueRW@@@ATL@@UAGJPAUIAdviseSink@@PAK@Z 10002a45 f i ElectronicValueRW.obj
 0001:00001a65       ?Unadvise@?$IOleObjectImpl@VCOPOSElectronicValueRW@@@ATL@@UAGJK@Z 10002a65 f i ElectronicValueRW.obj
 0001:00001a94       ?EnumAdvise@?$IOleObjectImpl@VCOPOSElectronicValueRW@@@ATL@@UAGJPAPAUIEnumSTATDATA@@@Z 10002a94 f i ElectronicValueRW.obj
 0001:00001ad4       ?GetMiscStatus@?$IOleObjectImpl@VCOPOSElectronicValueRW@@@ATL@@UAGJKPAK@Z 10002ad4 f i ElectronicValueRW.obj
 0001:00001aec       ?GetWindow@?$IOleInPlaceActiveObjectImpl@VCOPOSElectronicValueRW@@@ATL@@UAGJPAPAUHWND__@@@Z 10002aec f i ElectronicValueRW.obj
 0001:00001b39       ?TranslateAcceleratorW@?$IOleInPlaceActiveObjectImpl@VCOPOSElectronicValueRW@@@ATL@@UAGJPAUtagMSG@@@Z 10002b39 f i ElectronicValueRW.obj
 0001:00001bd7       ?OnDocWindowActivate@?$IOleInPlaceActiveObjectImpl@VCOPOSElectronicValueRW@@@ATL@@UAGJH@Z 10002bd7 f i ElectronicValueRW.obj
 0001:00001bf9       ?ResizeBorder@?$IOleInPlaceActiveObjectImpl@VCOPOSElectronicValueRW@@@ATL@@UAGJPBUtagRECT@@PAUIOleInPlaceUIWindow@@H@Z 10002bf9 f i ElectronicValueRW.obj
 0001:00001bfe       ?Draw@?$IViewObjectExImpl@VCOPOSElectronicValueRW@@@ATL@@UAGJKJPAXPAUtagDVTARGETDEVICE@@PAUHDC__@@2PBU_RECTL@@3P6GHK@ZK@Z 10002bfe f i ElectronicValueRW.obj
 0001:00001c30       ?GetColorSet@?$IViewObjectExImpl@VCOPOSElectronicValueRW@@@ATL@@UAGJKJPAXPAUtagDVTARGETDEVICE@@PAUHDC__@@PAPAUtagLOGPALETTE@@@Z 10002c30 f i ElectronicValueRW.obj
 0001:00001c38       ?Freeze@?$IViewObjectExImpl@VCOPOSElectronicValueRW@@@ATL@@UAGJKJPAXPAK@Z 10002c38 f i ElectronicValueRW.obj
 0001:00001c40       ?SetAdvise@?$IViewObjectExImpl@VCOPOSElectronicValueRW@@@ATL@@UAGJKKPAUIAdviseSink@@@Z 10002c40 f i ElectronicValueRW.obj
 0001:00001c5f       ?GetAdvise@?$IViewObjectExImpl@VCOPOSElectronicValueRW@@@ATL@@UAGJPAK0PAPAUIAdviseSink@@@Z 10002c5f f i ElectronicValueRW.obj
 0001:00001c94       ?GetExtent@?$IViewObjectExImpl@VCOPOSElectronicValueRW@@@ATL@@UAGJKJPAUtagDVTARGETDEVICE@@PAUtagSIZE@@@Z 10002c94 f i ElectronicValueRW.obj
 0001:00001cc5       ?GetViewStatus@?$IViewObjectExImpl@VCOPOSElectronicValueRW@@@ATL@@UAGJPAK@Z 10002cc5 f i ElectronicValueRW.obj
 0001:00001ce2       ?QueryHitPoint@?$IViewObjectExImpl@VCOPOSElectronicValueRW@@@ATL@@UAGJKPBUtagRECT@@UtagPOINT@@JPAK@Z 10002ce2 f i ElectronicValueRW.obj
 0001:00001d23       ?QueryHitRect@?$IViewObjectExImpl@VCOPOSElectronicValueRW@@@ATL@@UAGJKPBUtagRECT@@0JPAK@Z 10002d23 f i ElectronicValueRW.obj
 0001:00001d7e       ?GetNaturalExtent@?$IViewObjectExImpl@VCOPOSElectronicValueRW@@@ATL@@UAGJKJPAUtagDVTARGETDEVICE@@PAUHDC__@@PAUtagExtentInfo@@PAUtagSIZE@@@Z 10002d7e f i ElectronicValueRW.obj
 0001:00001dc9       ?GetWindow@?$IOleInPlaceObjectWindowlessImpl@VCOPOSElectronicValueRW@@@ATL@@UAGJPAPAUHWND__@@@Z 10002dc9 f i ElectronicValueRW.obj
 0001:00001e16       ?InPlaceDeactivate@?$IOleInPlaceObjectWindowlessImpl@VCOPOSElectronicValueRW@@@ATL@@UAGJXZ 10002e16 f i ElectronicValueRW.obj
 0001:00001e30       ?UIDeactivate@?$IOleInPlaceObjectWindowlessImpl@VCOPOSElectronicValueRW@@@ATL@@UAGJXZ 10002e30 f i ElectronicValueRW.obj
 0001:00001e4a       ?SetObjectRects@?$IOleInPlaceObjectWindowlessImpl@VCOPOSElectronicValueRW@@@ATL@@UAGJPBUtagRECT@@0@Z 10002e4a f i ElectronicValueRW.obj
 0001:00001e6a       ?ReactivateAndUndo@?$IOleInPlaceObjectWindowlessImpl@VCOPOSElectronicValueRW@@@ATL@@UAGJXZ 10002e6a f i ElectronicValueRW.obj
 0001:00001e72       ?OnWindowMessage@?$IOleInPlaceObjectWindowlessImpl@VCOPOSElectronicValueRW@@@ATL@@UAGJIIJPAJ@Z 10002e72 f i ElectronicValueRW.obj
 0001:00001ee2       ?EnumConnectionPoints@?$IConnectionPointContainerImpl@VCOPOSElectronicValueRW@@@ATL@@UAGJPAPAUIEnumConnectionPoints@@@Z 10002ee2 f i ElectronicValueRW.obj
 0001:0000205c       ?FindConnectionPoint@?$IConnectionPointContainerImpl@VCOPOSElectronicValueRW@@@ATL@@UAGJABU_GUID@@PAPAUIConnectionPoint@@@Z 1000305c f i ElectronicValueRW.obj
 0001:000020ff       ?IsDirty@?$IPersistStorageImpl@VCOPOSElectronicValueRW@@@ATL@@UAGJXZ 100030ff f i ElectronicValueRW.obj
 0001:00002133       ?InitNew@?$IPersistStorageImpl@VCOPOSElectronicValueRW@@@ATL@@UAGJPAUIStorage@@@Z 10003133 f i ElectronicValueRW.obj
 0001:00002167       ?Load@?$IPersistStorageImpl@VCOPOSElectronicValueRW@@@ATL@@UAGJPAUIStorage@@@Z 10003167 f i ElectronicValueRW.obj
 0001:000021d3       ?Save@?$IPersistStorageImpl@VCOPOSElectronicValueRW@@@ATL@@UAGJPAUIStorage@@H@Z 100031d3 f i ElectronicValueRW.obj
 0001:00002246       ?GetPages@?$ISpecifyPropertyPagesImpl@VCOPOSElectronicValueRW@@@ATL@@UAGJPAUtagCAUUID@@@Z 10003246 f i ElectronicValueRW.obj
 0001:0000225d       ?QuickActivate@?$IQuickActivateImpl@VCOPOSElectronicValueRW@@@ATL@@UAGJPAUtagQACONTAINER@@PAUtagQACONTROL@@@Z 1000325d f i ElectronicValueRW.obj
 0001:00002280       ?SetContentExtent@?$IQuickActivateImpl@VCOPOSElectronicValueRW@@@ATL@@UAGJPAUtagSIZE@@@Z 10003280 f i ElectronicValueRW.obj
 0001:000022ac       ?GetContentExtent@?$IQuickActivateImpl@VCOPOSElectronicValueRW@@@ATL@@UAGJPAUtagSIZE@@@Z 100032ac f i ElectronicValueRW.obj
 0001:000022cc       ?GetData@?$IDataObjectImpl@VCOPOSElectronicValueRW@@@ATL@@UAGJPAUtagFORMATETC@@PAUtagSTGMEDIUM@@@Z 100032cc f i ElectronicValueRW.obj
 0001:000022ef       ?DAdvise@?$IDataObjectImpl@VCOPOSElectronicValueRW@@@ATL@@UAGJPAUtagFORMATETC@@KPAUIAdviseSink@@PAK@Z 100032ef f i ElectronicValueRW.obj
 0001:00002330       ?DUnadvise@?$IDataObjectImpl@VCOPOSElectronicValueRW@@@ATL@@UAGJK@Z 10003330 f i ElectronicValueRW.obj
 0001:0000235e       ?EnumDAdvise@?$IDataObjectImpl@VCOPOSElectronicValueRW@@@ATL@@UAGJPAPAUIEnumSTATDATA@@@Z 1000335e f i ElectronicValueRW.obj
 0001:0000239d       ?GetClassInfoW@?$IProvideClassInfo2Impl@$1?CLSID_OPOSElectronicValueRW@@3U_GUID@@B$1?DIID__IOPOSElectronicValueRWEvents@@3U2@B$1?LIBID_OposElectronicValueRW_CCO@@3U2@B$00$0A@VCComTypeInfoHolder@ATL@@@ATL@@UAGJPAPAUITypeInfo@@@Z 1000339d f i ElectronicValueRW.obj
 0001:000023b3       ?GetGUID@?$IProvideClassInfo2Impl@$1?CLSID_OPOSElectronicValueRW@@3U_GUID@@B$1?DIID__IOPOSElectronicValueRWEvents@@3U2@B$1?LIBID_OposElectronicValueRW_CCO@@3U2@B$00$0A@VCComTypeInfoHolder@ATL@@@ATL@@UAGJKPAU_GUID@@@Z 100033b3 f i ElectronicValueRW.obj
 0001:000023f1       __get_startup_argv_mode    100033f1 f i LIBCMT:argv_mode.obj
 0001:000023f1       ?FAccessAllowed@?$IObjectSafetyImpl@VCOPOSElectronicValueRW@@$02@ATL@@MAEHXZ 100033f1 f i ElectronicValueRW.obj
 0001:000023f5       ?GetInterfaceSafetyOptions@?$IObjectSafetyImpl@VCOPOSElectronicValueRW@@$02@ATL@@UAGJABU_GUID@@PAK1@Z 100033f5 f i ElectronicValueRW.obj
 0001:00002469       ?SetInterfaceSafetyOptions@?$IObjectSafetyImpl@VCOPOSElectronicValueRW@@$02@ATL@@UAGJABU_GUID@@KK@Z 10003469 f i ElectronicValueRW.obj
 0001:000024e3       ?_LocCPQueryInterface@?$IConnectionPointImpl@VCOPOSElectronicValueRW@@$1?IID_IPropertyNotifySink@@3U_GUID@@BVCComDynamicUnkArray@ATL@@@ATL@@UAGJABU_GUID@@PAPAX@Z 100034e3 f i ElectronicValueRW.obj
 0001:000024e3       ?_LocCPQueryInterface@?$IConnectionPointImpl@VCOPOSElectronicValueRW@@$1?DIID__IOPOSElectronicValueRWEvents@@3U_GUID@@BVCComDynamicUnkArray@ATL@@@ATL@@UAGJABU_GUID@@PAPAX@Z 100034e3 f i ElectronicValueRW.obj
 0001:00002530       ?GetConnectionInterface@?$IConnectionPointImpl@VCOPOSElectronicValueRW@@$1?IID_IPropertyNotifySink@@3U_GUID@@BVCComDynamicUnkArray@ATL@@@ATL@@UAGJPAU_GUID@@@Z 10003530 f i ElectronicValueRW.obj
 0001:00002554       ?GetConnectionPointContainer@?$IConnectionPointImpl@VCOPOSElectronicValueRW@@$1?IID_IPropertyNotifySink@@3U_GUID@@BVCComDynamicUnkArray@ATL@@@ATL@@UAGJPAPAUIConnectionPointContainer@@@Z 10003554 f i ElectronicValueRW.obj
 0001:00002577       ?Advise@?$IConnectionPointImpl@VCOPOSElectronicValueRW@@$1?DIID__IOPOSElectronicValueRWEvents@@3U_GUID@@BVCComDynamicUnkArray@ATL@@@ATL@@UAGJPAUIUnknown@@PAK@Z 10003577 f i ElectronicValueRW.obj
 0001:00002577       ?Advise@?$IConnectionPointImpl@VCOPOSElectronicValueRW@@$1?IID_IPropertyNotifySink@@3U_GUID@@BVCComDynamicUnkArray@ATL@@@ATL@@UAGJPAUIUnknown@@PAK@Z 10003577 f i ElectronicValueRW.obj
 0001:00002618       ?Unadvise@?$IConnectionPointImpl@VCOPOSElectronicValueRW@@$1?IID_IPropertyNotifySink@@3U_GUID@@BVCComDynamicUnkArray@ATL@@@ATL@@UAGJK@Z 10003618 f i ElectronicValueRW.obj
 0001:00002618       ?Unadvise@?$IConnectionPointImpl@VCOPOSElectronicValueRW@@$1?DIID__IOPOSElectronicValueRWEvents@@3U_GUID@@BVCComDynamicUnkArray@ATL@@@ATL@@UAGJK@Z 10003618 f i ElectronicValueRW.obj
 0001:00002658       ?EnumConnections@?$IConnectionPointImpl@VCOPOSElectronicValueRW@@$1?DIID__IOPOSElectronicValueRWEvents@@3U_GUID@@BVCComDynamicUnkArray@ATL@@@ATL@@UAGJPAPAUIEnumConnections@@@Z 10003658 f i ElectronicValueRW.obj
 0001:00002658       ?EnumConnections@?$IConnectionPointImpl@VCOPOSElectronicValueRW@@$1?IID_IPropertyNotifySink@@3U_GUID@@BVCComDynamicUnkArray@ATL@@@ATL@@UAGJPAPAUIEnumConnections@@@Z 10003658 f i ElectronicValueRW.obj
 0001:0000275e       ?GetCategoryMap@CComObjectRootBase@ATL@@SAPBU_ATL_CATMAP_ENTRY@2@XZ 1000375e f i ElectronicValueRW.obj
 0001:0000275e       ?GetObjectDescription@?$CComCoClass@VCOPOSElectronicValueRW@@$1?CLSID_OPOSElectronicValueRW@@3U_GUID@@B@ATL@@SGPB_WXZ 1000375e f i ElectronicValueRW.obj
 0001:00002761       ?GetConnectionInterface@?$IConnectionPointImpl@VCOPOSElectronicValueRW@@$1?DIID__IOPOSElectronicValueRWEvents@@3U_GUID@@BVCComDynamicUnkArray@ATL@@@ATL@@UAGJPAU_GUID@@@Z 10003761 f i ElectronicValueRW.obj
 0001:00002785       ?GetConnectionPointContainer@?$IConnectionPointImpl@VCOPOSElectronicValueRW@@$1?DIID__IOPOSElectronicValueRWEvents@@3U_GUID@@BVCComDynamicUnkArray@ATL@@@ATL@@UAGJPAPAUIConnectionPointContainer@@@Z 10003785 f i ElectronicValueRW.obj
 0001:000027a8       ?UpdateRegistry@COPOSElectronicValueRW@@SGJH@Z 100037a8 f i ElectronicValueRW.obj
 0001:000027c0       ?ProcessWindowMessage@COPOSElectronicValueRW@@UAEHPAUHWND__@@IIJAAJK@Z 100037c0 f i ElectronicValueRW.obj
 0001:00002809       ?SOData@COPOSElectronicValueRW@@MAGJJ@Z 10003809 f i ElectronicValueRW.obj
 0001:00002842       ?SODirectIO@COPOSElectronicValueRW@@MAGJJPAJPAPA_W@Z 10003842 f i ElectronicValueRW.obj
 0001:0000288b       ?SOError@COPOSElectronicValueRW@@MAGJJJJPAJ@Z 1000388b f i ElectronicValueRW.obj
 0001:000028e0       ?SOOutputComplete@COPOSElectronicValueRW@@MAGJJ@Z 100038e0 f i ElectronicValueRW.obj
 0001:00002919       ?SOStatusUpdate@COPOSElectronicValueRW@@MAGJJ@Z 10003919 f i ElectronicValueRW.obj
 0001:00002952       ?SOTransition@COPOSElectronicValueRW@@MAGJJPAJPAPA_W@Z 10003952 f i ElectronicValueRW.obj
 0001:0000299b       ?CreateInstance@CComClassFactory@ATL@@UAGJPAUIUnknown@@ABU_GUID@@PAPAX@Z 1000399b f i ElectronicValueRW.obj
 0001:000029d9       ?LockServer@CComClassFactory@ATL@@UAGJH@Z 100039d9 f i ElectronicValueRW.obj
 0001:000029f8       ??_ECComClassFactory@ATL@@UAEPAXI@Z 100039f8 f i ElectronicValueRW.obj
 0001:000029f8       ??_GCComClassFactory@ATL@@UAEPAXI@Z 100039f8 f i ElectronicValueRW.obj
 0001:00002a23       ??$?4UITypeInfo2@@@?$CComPtr@UITypeInfo@@@ATL@@QAEPAUITypeInfo@@ABV?$CComPtr@UITypeInfo2@@@1@@Z 10003a23 f i ElectronicValueRW.obj
 0001:00002a50       ??$AtlAdd@K@ATL@@YAJPAKKK@Z 10003a50 f i ElectronicValueRW.obj
 0001:00002a73       ??$AtlAdd@_K@ATL@@YAJPA_K_K1@Z 10003a73 f i ElectronicValueRW.obj
 0001:00002aab       ??$AtlAddThrow@K@ATL@@YAKKK@Z 10003aab f i ElectronicValueRW.obj
 0001:00002ad1       ??$AtlModuleRegisterWndClassInfoT@VAtlModuleRegisterWndClassInfoParamW@ATL@@@ATL@@YAGPAU_ATL_BASE_MODULE70@0@PAU_ATL_WIN_MODULE70@0@PAU_ATL_WNDCLASSINFOW@0@PAP6GJPAUHWND__@@IIJ@ZVAtlModuleRegisterWndClassInfoParamW@0@@Z 10003ad1 f i ElectronicValueRW.obj
 0001:00002c1f       ??$AtlMultiply@H@ATL@@YAJPAHHH@Z 10003c1f f i ElectronicValueRW.obj
 0001:00002c57       ??$AtlMultiply@I@ATL@@YAJPAIII@Z 10003c57 f i ElectronicValueRW.obj
 0001:00002c57       ??$AtlMultiply@K@ATL@@YAJPAKKK@Z 10003c57 f i ElectronicValueRW.obj
 0001:00002c79       ??$AtlMultiplyThrow@I@ATL@@YAIII@Z 10003c79 f i ElectronicValueRW.obj
 0001:00002c9f       ??0?$CComAggObject@VCOPOSElectronicValueRW@@@ATL@@QAE@PAX@Z 10003c9f f i ElectronicValueRW.obj
 0001:00002ccc       ??0?$CComContainedObject@VCOPOSElectronicValueRW@@@ATL@@QAE@PAX@Z 10003ccc f i ElectronicValueRW.obj
 0001:00002d85       ??0?$CComObject@V?$CComEnum@UIEnumConnectionPoints@@$1?_GUID_b196b285_bab4_101a_b69c_00aa00341d07@@3U__s_GUID@@BPAUIConnectionPoint@@V?$_CopyInterface@UIConnectionPoint@@@ATL@@VCComSingleThreadModel@6@@ATL@@@ATL@@QAE@PAX@Z 10003d85 f i ElectronicValueRW.obj
 0001:00002db3       ??0?$CComObject@V?$CComEnum@UIEnumConnections@@$1?_GUID_b196b287_bab4_101a_b69c_00aa00341d07@@3U__s_GUID@@BUtagCONNECTDATA@@V?$_Copy@UtagCONNECTDATA@@@ATL@@VCComSingleThreadModel@6@@ATL@@@ATL@@QAE@PAX@Z 10003db3 f i ElectronicValueRW.obj
 0001:00002de1       ??0?$CComObject@VCOPOSElectronicValueRW@@@ATL@@QAE@PAX@Z 10003de1 f i ElectronicValueRW.obj
 0001:00002e98       ??0?$CComQIPtr@UIOleControlSite@@$1?_GUID_b196b289_bab4_101a_b69c_00aa00341d07@@3U__s_GUID@@B@ATL@@QAE@PAUIUnknown@@@Z 10003e98 f i ElectronicValueRW.obj
 0001:00002ec1       ??0CAtlModule@ATL@@QAE@XZ  10003ec1 f i ElectronicValueRW.obj
 0001:00002f02       ??0CParseBuffer@CRegParser@ATL@@QAE@H@Z 10003f02 f i ElectronicValueRW.obj
 0001:00002f38       ??0_ATL_MSG@ATL@@QAE@PAUHWND__@@IIJH@Z 10003f38 f i ElectronicValueRW.obj
 0001:00002f70       ??1?$CComAggObject@VCOPOSElectronicValueRW@@@ATL@@UAE@XZ 10003f70 f i ElectronicValueRW.obj
 0001:00002f94       ??1?$CComEnumImpl@UIEnumConnectionPoints@@$1?_GUID_b196b285_bab4_101a_b69c_00aa00341d07@@3U__s_GUID@@BPAUIConnectionPoint@@V?$_CopyInterface@UIConnectionPoint@@@ATL@@@ATL@@UAE@XZ 10003f94 f i ElectronicValueRW.obj
 0001:00002fd4       ??1?$CComEnumImpl@UIEnumConnections@@$1?_GUID_b196b287_bab4_101a_b69c_00aa00341d07@@3U__s_GUID@@BUtagCONNECTDATA@@V?$_Copy@UtagCONNECTDATA@@@ATL@@@ATL@@UAE@XZ 10003fd4 f i ElectronicValueRW.obj
 0001:00003014       ??1?$CComObject@V?$CComEnum@UIEnumConnectionPoints@@$1?_GUID_b196b285_bab4_101a_b69c_00aa00341d07@@3U__s_GUID@@BPAUIConnectionPoint@@V?$_CopyInterface@UIConnectionPoint@@@ATL@@VCComSingleThreadModel@6@@ATL@@@ATL@@UAE@XZ 10004014 f i ElectronicValueRW.obj
 0001:00003037       ??1?$CComObject@V?$CComEnum@UIEnumConnections@@$1?_GUID_b196b287_bab4_101a_b69c_00aa00341d07@@3U__s_GUID@@BUtagCONNECTDATA@@V?$_Copy@UtagCONNECTDATA@@@ATL@@VCComSingleThreadModel@6@@ATL@@@ATL@@UAE@XZ 10004037 f i ElectronicValueRW.obj
 0001:0000305a       ??1?$CComObject@VCOPOSElectronicValueRW@@@ATL@@UAE@XZ 1000405a f i ElectronicValueRW.obj
 0001:00003118       ??1?$CComObjectCached@VCComClassFactory@ATL@@@ATL@@UAE@XZ 10004118 f i ElectronicValueRW.obj
 0001:0000312e       ??1?$CComObjectRootEx@VCComMultiThreadModel@ATL@@@ATL@@QAE@XZ 1000412e f i ElectronicValueRW.obj
 0001:00003143       ??1CRegObject@ATL@@UAE@XZ  10004143 f i ElectronicValueRW.obj
 0001:00003163       ??4?$CComPtr@UIAdviseSink@@@ATL@@QAEPAUIAdviseSink@@PAU2@@Z 10004163 f i ElectronicValueRW.obj
 0001:00003163       ??4?$CComPtr@UIOleClientSite@@@ATL@@QAEPAUIOleClientSite@@PAU2@@Z 10004163 f i ElectronicValueRW.obj
 0001:00003163       ??4?$CComPtr@UIUnknown@@@ATL@@QAEPAUIUnknown@@PAU2@@Z 10004163 f i ElectronicValueRW.obj
 0001:00003197       ??4?$CComQIPtr@UIOleObject@@$1?_GUID_00000112_0000_0000_c000_000000000046@@3U__s_GUID@@B@ATL@@QAEPAUIOleObject@@PAUIUnknown@@@Z 10004197 f i ElectronicValueRW.obj
 0001:000031bc       ??4?$CComQIPtr@UISpecifyPropertyPages@@$1?_GUID_b196b28b_bab4_101a_b69c_00aa00341d07@@3U__s_GUID@@B@ATL@@QAEPAUISpecifyPropertyPages@@PAUIUnknown@@@Z 100041bc f i ElectronicValueRW.obj
 0001:000031e1       ??_G?$CComContainedObject@VCOPOSElectronicValueRW@@@ATL@@UAEPAXI@Z 100041e1 f i ElectronicValueRW.obj
 0001:000031e1       ??_E?$CComContainedObject@VCOPOSElectronicValueRW@@@ATL@@UAEPAXI@Z 100041e1 f i ElectronicValueRW.obj
 0001:00003206       ??_G?$CComObject@VCOPOSElectronicValueRW@@@ATL@@UAEPAXI@Z 10004206 f i ElectronicValueRW.obj
 0001:00003206       ??_E?$CComObject@VCOPOSElectronicValueRW@@@ATL@@UAEPAXI@Z 10004206 f i ElectronicValueRW.obj
 0001:0000322b       ?Add@?$CSimpleArray@GV?$CSimpleArrayEqualHelper@G@ATL@@@ATL@@QAEHABG@Z 1000422b f i ElectronicValueRW.obj
 0001:000032af       ?Add@?$CSimpleMap@PA_WPA_WVCExpansionVectorEqualHelper@ATL@@@ATL@@QAEHABQA_W0@Z 100042af f i ElectronicValueRW.obj
 0001:00003304       ?Add@CComDynamicUnkArray@ATL@@QAEKPAUIUnknown@@@Z 10004304 f i ElectronicValueRW.obj
 0001:000033ba       ?Add@CExpansionVector@ATL@@QAEHPB_W0@Z 100043ba f i ElectronicValueRW.obj
 0001:000034be       ?AddString@CParseBuffer@CRegParser@ATL@@QAEHPB_W@Z 100044be f i ElectronicValueRW.obj
 0001:000034f3       ?AddValue@CRegParser@ATL@@IAEJAAVCRegKey@2@PB_WPA_W@Z 100044f3 f i ElectronicValueRW.obj
 0001:00003814       ?Allocate@?$CAtlSafeAllocBufferManager@VCCRTAllocator@ATL@@@_ATL_SAFE_ALLOCA_IMPL@ATL@@QAEPAXK@Z 10004814 f i ElectronicValueRW.obj
 0001:00003841       ?Allocate@?$CTempBuffer@E$0BAA@VCCRTAllocator@ATL@@@ATL@@QAEPAEI@Z 10004841 f i ElectronicValueRW.obj
 0001:00003870       ?Allocate@?$CTempBuffer@_W$0BAA@VCCRTAllocator@ATL@@@ATL@@QAEPA_WI@Z 10004870 f i ElectronicValueRW.obj
 0001:0000389f       ?Allocate@?$CTempBuffer@_W$0EAA@VCCRTAllocator@ATL@@@ATL@@QAEPA_WI@Z 1000489f f i ElectronicValueRW.obj
 0001:000038ce       ?AllocateHeap@?$CTempBuffer@_W$0EAA@VCCRTAllocator@ATL@@@ATL@@AAEXI@Z 100048ce f i ElectronicValueRW.obj
 0001:000038ce       ?AllocateHeap@?$CTempBuffer@E$0BAA@VCCRTAllocator@ATL@@@ATL@@AAEXI@Z 100048ce f i ElectronicValueRW.obj
 0001:000038ce       ?AllocateHeap@?$CTempBuffer@_W$0BAA@VCCRTAllocator@ATL@@@ATL@@AAEXI@Z 100048ce f i ElectronicValueRW.obj
 0001:000038f3       ?Append@CParseBuffer@CRegParser@ATL@@QAEHPB_WH@Z 100048f3 f i ElectronicValueRW.obj
 0001:00003981       ?AtlCallTermFunc@ATL@@YGXPAU_ATL_MODULE70@1@@Z 10004981 f i ElectronicValueRW.obj
 0001:000039c5       ?AtlCoTaskMemCAlloc@ATL@@YAPAXKK@Z 100049c5 f i ElectronicValueRW.obj
 0001:000039f2       ?AtlCoTaskMemRecalloc@ATL@@YAPAXPAXKK@Z 100049f2 f i ElectronicValueRW.obj
 0001:00003a22       ?AtlComModuleGetClassObject@ATL@@YGJPAU_ATL_COM_MODULE70@1@ABU_GUID@@1PAPAX@Z 10004a22 f i ElectronicValueRW.obj
 0001:00003b15       ?AtlComModuleRegisterServer@ATL@@YGJPAU_ATL_COM_MODULE70@1@HPBU_GUID@@@Z 10004b15 f i ElectronicValueRW.obj
 0001:00003b9d       ?AtlComModuleUnregisterServer@ATL@@YGJPAU_ATL_COM_MODULE70@1@HPBU_GUID@@@Z 10004b9d f i ElectronicValueRW.obj
 0001:00003c25       ?AtlComQIPtrAssign2@ATL@@YAXPAPAUIUnknown@@PAU2@ABU_GUID@@@Z 10004c25 f i ElectronicValueRW.obj
 0001:00003c54       ?AtlCreateTargetDC@ATL@@YGPAUHDC__@@PAU2@PAUtagDVTARGETDEVICE@@@Z 10004c54 f i ElectronicValueRW.obj
 0001:00003cbd       ?AtlCrtErrorCheck@ATL@@YAHH@Z 10004cbd f i ElectronicValueRW.obj
 0001:00003cf8       ?AtlHiMetricToPixel@ATL@@YGXPBUtagSIZE@@PAU2@@Z 10004cf8 f i ElectronicValueRW.obj
 0001:00003d6d       ?AtlHresultFromLastError@ATL@@YAJXZ 10004d6d f i ElectronicValueRW.obj
 0001:00003d84       ?AtlHresultFromWin32@ATL@@YAJK@Z 10004d84 f i ElectronicValueRW.obj
 0001:00003d99       ?AtlIPersistStreamInit_Load@ATL@@YGJPAUIStream@@PBUATL_PROPMAP_ENTRY@1@PAXPAUIUnknown@@@Z 10004d99 f i ElectronicValueRW.obj
 0001:00003f79       ?AtlIPersistStreamInit_Save@ATL@@YGJPAUIStream@@HPBUATL_PROPMAP_ENTRY@1@PAXPAUIUnknown@@@Z 10004f79 f i ElectronicValueRW.obj
 0001:00004111       ?AtlInternalOleLoadFromStream@ATL@@YAJPAUIStream@@ABU_GUID@@PAPAXTClassesAllowedInStream@1@K@Z 10005111 f i ElectronicValueRW.obj
 0001:00004237       ?AtlInternalQueryInterface@ATL@@YGJPAXPBU_ATL_INTMAP_ENTRY@1@ABU_GUID@@PAPAX@Z 10005237 f i ElectronicValueRW.obj
 0001:000042da       ?AtlLoadTypeLib@ATL@@YGJPAUHINSTANCE__@@PB_WPAPA_WPAPAUITypeLib@@@Z 100052da f i ElectronicValueRW.obj
 0001:000044b8       ?AtlModuleAddTermFunc@ATL@@YGJPAU_ATL_MODULE70@1@P6GXK@ZK@Z 100054b8 f i ElectronicValueRW.obj
 0001:00004515       ?AtlRegisterClassCategoriesHelper@ATL@@YGJABU_GUID@@PBU_ATL_CATMAP_ENTRY@1@H@Z 10005515 f i ElectronicValueRW.obj
 0001:000047f5       ?AtlRegisterTypeLib@ATL@@YGJPAUHINSTANCE__@@PB_W@Z 100057f5 f i ElectronicValueRW.obj
 0001:0000497d       ?AtlThrowImpl@ATL@@YGXJ@Z  1000597d f i ElectronicValueRW.obj
 0001:0000499b       ?AtlUnRegisterTypeLib@ATL@@YGJPAUHINSTANCE__@@PB_W@Z 1000599b f i ElectronicValueRW.obj
 0001:00004a46       ?AtlWinModuleAddCreateWndData@ATL@@YGXPAU_ATL_WIN_MODULE70@1@PAU_AtlCreateWndData@1@PAX@Z 10005a46 f i ElectronicValueRW.obj
 0001:00004a9a       ?AtlWinModuleExtractCreateWndData@ATL@@YGPAXPAU_ATL_WIN_MODULE70@1@@Z 10005a9a f i ElectronicValueRW.obj
 0001:00004afd       ?AtlWinModuleRegisterClassExW@ATL@@YGGPAU_ATL_WIN_MODULE70@1@PBUtagWNDCLASSEXW@@@Z 10005afd f i ElectronicValueRW.obj
 0001:00004b3c       ?CanForceRemoveKey@CRegParser@ATL@@IAEHPB_W@Z 10005b3c f i ElectronicValueRW.obj
 0001:00004b6b       ?ChToByte@CRegParser@ATL@@KAE_W@Z 10005b6b f i ElectronicValueRW.obj
 0001:00004b9e       ?Cleanup@CComTypeInfoHolder@ATL@@SGXK@Z 10005b9e f i ElectronicValueRW.obj
 0001:00004bd1       ?ClearReplacements@CExpansionVector@ATL@@QAEJXZ 10005bd1 f i ElectronicValueRW.obj
 0001:00004c0e       ?Close@CRegKey@ATL@@QAEJXZ 10005c0e f i ElectronicValueRW.obj
 0001:00004c28       ?CreateInstance@?$CComCreator@V?$CComAggObject@VCOPOSElectronicValueRW@@@ATL@@@ATL@@SGJPAXABU_GUID@@PAPAX@Z 10005c28 f i ElectronicValueRW.obj
 0001:00004c9e       ?CreateInstance@?$CComCreator@V?$CComObject@VCOPOSElectronicValueRW@@@ATL@@@ATL@@SGJPAXABU_GUID@@PAPAX@Z 10005c9e f i ElectronicValueRW.obj
 0001:00004d1f       ?CreateInstance@?$CComObject@V?$CComEnum@UIEnumConnectionPoints@@$1?_GUID_b196b285_bab4_101a_b69c_00aa00341d07@@3U__s_GUID@@BPAUIConnectionPoint@@V?$_CopyInterface@UIConnectionPoint@@@ATL@@VCComSingleThreadModel@6@@ATL@@@ATL@@SGJPAPAV12@@Z 10005d1f f i ElectronicValueRW.obj
 0001:00004d66       ?CreateInstance@?$CComObject@V?$CComEnum@UIEnumConnections@@$1?_GUID_b196b287_bab4_101a_b69c_00aa00341d07@@3U__s_GUID@@BUtagCONNECTDATA@@V?$_Copy@UtagCONNECTDATA@@@ATL@@VCComSingleThreadModel@6@@ATL@@@ATL@@SGJPAPAV12@@Z 10005d66 f i ElectronicValueRW.obj
 0001:00004dad       ?DefaultReflectionHandler@?$CWindowImplRoot@VCWindow@ATL@@@ATL@@SAHPAUHWND__@@IIJAAJ@Z 10005dad f i ElectronicValueRW.obj
 0001:00004e20       ?DeleteSubKey@CRegKey@ATL@@QAEJPB_W@Z 10005e20 f i ElectronicValueRW.obj
 0001:00004e99       ?DoEvent@COPOSElectronicValueRW@@IAEXIIJ@Z 10005e99 f i ElectronicValueRW.obj
 0001:00004f19       ?DoVerbHide@?$IOleObjectImpl@VCOPOSElectronicValueRW@@@ATL@@QAEJPBUtagRECT@@PAUHWND__@@@Z 10005f19 f i ElectronicValueRW.obj
 0001:00004f4f       ?DoVerbInPlaceActivate@?$IOleObjectImpl@VCOPOSElectronicValueRW@@@ATL@@QAEJPBUtagRECT@@PAUHWND__@@@Z 10005f4f f i ElectronicValueRW.obj
 0001:00004f82       ?DoVerbPrimary@?$IOleObjectImpl@VCOPOSElectronicValueRW@@@ATL@@QAEJPBUtagRECT@@PAUHWND__@@@Z 10005f82 f i ElectronicValueRW.obj
 0001:0000500e       ?DoVerbProperties@CComControlBase@ATL@@QAEJPBUtagRECT@@PAUHWND__@@@Z 1000600e f i ElectronicValueRW.obj
 0001:00005135       ?DoVerbShow@?$IOleObjectImpl@VCOPOSElectronicValueRW@@@ATL@@QAEJPBUtagRECT@@PAUHWND__@@@Z 10006135 f i ElectronicValueRW.obj
 0001:0000515a       ?DoVerbUIActivate@?$IOleObjectImpl@VCOPOSElectronicValueRW@@@ATL@@QAEJPBUtagRECT@@PAUHWND__@@@Z 1000615a f i ElectronicValueRW.obj
 0001:00005197       ?DoesVerbActivate@CComControlBase@ATL@@QAEHJ@Z 10006197 f i ElectronicValueRW.obj
 0001:000051b8       ?DoesVerbUIActivate@CComControlBase@ATL@@QAEHJ@Z 100061b8 f i ElectronicValueRW.obj
 0001:000051ed       ?EndOfVar@CRegParser@ATL@@IAEHXZ 100061ed f i ElectronicValueRW.obj
 0001:0000520d       ?EscapeSingleQuote@CAtlModule@ATL@@SAXPA_WIPB_W@Z 1000620d f i ElectronicValueRW.obj
 0001:0000525c       ?FindKey@?$CSimpleMap@PA_WPA_WVCExpansionVectorEqualHelper@ATL@@@ATL@@QBEHABQA_W@Z 1000625c f i ElectronicValueRW.obj
 0001:00005293       ?FireTheEvent@?$CProxy_IOPOSEvents@VCOPOSElectronicValueRW@@@@IAEXPAVOposVariant@@IAAJPB_WJ@Z 10006293 f i ElectronicValueRW.obj
 0001:00005325       ?FireViewChange@CComControlBase@ATL@@QAEJXZ 10006325 f i ElectronicValueRW.obj
 0001:0000536e       ?Fire_DataEvent@?$CProxy_IOPOSEvents@VCOPOSElectronicValueRW@@@@QAEXJ@Z 1000636e f i ElectronicValueRW.obj
 0001:000053fa       ?Fire_DirectIOEvent@?$CProxy_IOPOSEvents@VCOPOSElectronicValueRW@@@@QAEXJPAJPAPA_W@Z 100063fa f i ElectronicValueRW.obj
 0001:000054e0       ?Fire_ErrorEvent@?$CProxy_IOPOSEvents@VCOPOSElectronicValueRW@@@@QAEXJJJPAJ@Z 100064e0 f i ElectronicValueRW.obj
 0001:000055c7       ?Fire_OutputCompleteEvent@?$CProxy_IOPOSEvents@VCOPOSElectronicValueRW@@@@QAEXJ@Z 100065c7 f i ElectronicValueRW.obj
 0001:00005653       ?Fire_StatusUpdateEvent@?$CProxy_IOPOSEvents@VCOPOSElectronicValueRW@@@@QAEXJ@Z 10006653 f i ElectronicValueRW.obj
 0001:000056df       ?Fire_TransitionEvent@?$CProxy_IOPOSEvents@VCOPOSElectronicValueRW@@@@QAEXJPAJPAPA_W@Z 100066df f i ElectronicValueRW.obj
 0001:000057c5       ?FreeHeap@?$CTempBuffer@E$0BAA@VCCRTAllocator@ATL@@@ATL@@AAEXXZ 100067c5 f i ElectronicValueRW.obj
 0001:000057c5       ?FreeHeap@?$CTempBuffer@_W$0BAA@VCCRTAllocator@ATL@@@ATL@@AAEXXZ 100067c5 f i ElectronicValueRW.obj
 0001:000057c5       ?FreeHeap@?$CTempBuffer@_W$0EAA@VCCRTAllocator@ATL@@@ATL@@AAEXXZ 100067c5 f i ElectronicValueRW.obj
 0001:000057ce       ?GetAmbientLocaleID@CComControlBase@ATL@@QAEJAAK@Z 100067ce f i ElectronicValueRW.obj
 0001:0000582a       ?GetAmbientUserMode@CComControlBase@ATL@@QAEJAAH@Z 1000682a f i ElectronicValueRW.obj
 0001:0000589a       ?GetAt@CComDynamicUnkArray@ATL@@QAEPAUIUnknown@@H@Z 1000689a f i ElectronicValueRW.obj
 0001:000058b6       ?GetClassObject@CComModule@ATL@@QAEJABU_GUID@@0PAPAX@Z 100068b6 f i ElectronicValueRW.obj
 0001:00005958       ?GetConnMap@COPOSElectronicValueRW@@SAPBU_ATL_CONNMAP_ENTRY@ATL@@PAH@Z 10006958 f i ElectronicValueRW.obj
 0001:000059c8       ?GetCookie@CComDynamicUnkArray@ATL@@QAGKPAPAUIUnknown@@@Z 100069c8 f i ElectronicValueRW.obj
 0001:00005a00       ?GetIDsOfNames@CComTypeInfoHolder@ATL@@QAEJABU_GUID@@PAPA_WIKPAJ@Z 10006a00 f i ElectronicValueRW.obj
 0001:00005b0e       ?GetKeyAt@?$CSimpleMap@PA_WPA_WVCExpansionVectorEqualHelper@ATL@@@ATL@@QBEAAPA_WH@Z 10006b0e f i ElectronicValueRW.obj
 0001:00005b33       ?GetPagesHelper@?$ISpecifyPropertyPagesImpl@VCOPOSElectronicValueRW@@@ATL@@IAEJPAUtagCAUUID@@PBUATL_PROPMAP_ENTRY@2@@Z 10006b33 f i ElectronicValueRW.obj
 0001:00005c5a       ?GetProperty@?$CComPtr@UIDispatch@@@ATL@@SAJPAUIDispatch@@JPAUtagVARIANT@@@Z 10006c5a f i ElectronicValueRW.obj
 0001:00005ca9       ?GetSizeMax@CComVariant@ATL@@QBEJPAT_ULARGE_INTEGER@@@Z 10006ca9 f i ElectronicValueRW.obj
 0001:00005e63       ?GetStreamSize@CComBSTR@ATL@@SAKPA_W@Z 10006e63 f i ElectronicValueRW.obj
 0001:00005e7d       ?GetTI@CComTypeInfoHolder@ATL@@QAEJK@Z 10006e7d f i ElectronicValueRW.obj
 0001:00006066       ?GetTI@CComTypeInfoHolder@ATL@@QAEJKPAPAUITypeInfo@@@Z 10007066 f i ElectronicValueRW.obj
 0001:000060a8       ?GetUnknown@CComDynamicUnkArray@ATL@@QAGPAUIUnknown@@K@Z 100070a8 f i ElectronicValueRW.obj
 0001:000060c9       ?GetValueAt@?$CSimpleMap@PA_WPA_WVCExpansionVectorEqualHelper@ATL@@@ATL@@QBEAAPA_WH@Z 100070c9 f i ElectronicValueRW.obj
 0001:000060ef       ?GetZoomInfo@CComControlBase@ATL@@QAEXAAUATL_DRAWINFO@@@Z 100070ef f i ElectronicValueRW.obj
 0001:00006182       ?HKeyFromString@CRegParser@ATL@@KAPAUHKEY__@@PA_W@Z 10007182 f i ElectronicValueRW.obj
 0001:000061b0       ?HasSubKeys@CRegParser@ATL@@IAEHPAUHKEY__@@@Z 100071b0 f i ElectronicValueRW.obj
 0001:000061e5       ?IDataObject_GetData@CComControlBase@ATL@@QAEJPAUtagFORMATETC@@PAUtagSTGMEDIUM@@@Z 100071e5 f i ElectronicValueRW.obj
 0001:0000638b       ?IOleInPlaceObject_InPlaceDeactivate@CComControlBase@ATL@@QAEJXZ 1000738b f i ElectronicValueRW.obj
 0001:00006412       ?IOleInPlaceObject_SetObjectRects@CComControlBase@ATL@@QAEJPBUtagRECT@@0@Z 10007412 f i ElectronicValueRW.obj
 0001:000064df       ?IOleInPlaceObject_UIDeactivate@CComControlBase@ATL@@QAEJXZ 100074df f i ElectronicValueRW.obj
 0001:000065a1       ?IOleObject_Advise@CComControlBase@ATL@@QAEJPAUIAdviseSink@@PAK@Z 100075a1 f i ElectronicValueRW.obj
 0001:000065cb       ?IOleObject_Close@CComControlBase@ATL@@QAEJK@Z 100075cb f i ElectronicValueRW.obj
 0001:000066af       ?IOleObject_GetClientSite@CComControlBase@ATL@@QAEJPAPAUIOleClientSite@@@Z 100076af f i ElectronicValueRW.obj
 0001:000066d8       ?IOleObject_SetClientSite@CComControlBase@ATL@@QAEJPAUIOleClientSite@@@Z 100076d8 f i ElectronicValueRW.obj
 0001:00006717       ?IOleObject_SetExtent@CComControlBase@ATL@@QAEJKPAUtagSIZE@@@Z 10007717 f i ElectronicValueRW.obj
 0001:000067cb       ?IPSI_GetIPersistStreamInit@?$IPersistStorageImpl@VCOPOSElectronicValueRW@@@ATL@@AAEPAUIPersistStreamInit@@XZ 100077cb f i ElectronicValueRW.obj
 0001:0000680d       ?IPersistStreamInit_Load@?$IPersistStreamInitImpl@VCOPOSElectronicValueRW@@@ATL@@QAEJPAUIStream@@PBUATL_PROPMAP_ENTRY@2@@Z 1000780d f i ElectronicValueRW.obj
 0001:00006839       ?IPersistStreamInit_Save@?$IPersistStreamInitImpl@VCOPOSElectronicValueRW@@@ATL@@QAEJPAUIStream@@HPBUATL_PROPMAP_ENTRY@2@@Z 10007839 f i ElectronicValueRW.obj
 0001:0000686e       ?IQuickActivate_QuickActivate@CComControlBase@ATL@@QAEJPAUtagQACONTAINER@@PAUtagQACONTROL@@@Z 1000786e f i ElectronicValueRW.obj
 0001:00006ab0       ?IViewObject_Draw@CComControlBase@ATL@@QAEJKJPAXPAUtagDVTARGETDEVICE@@PAUHDC__@@2PBU_RECTL@@3@Z 10007ab0 f i ElectronicValueRW.obj
 0001:00006b58       ?InPlaceActivate@CComControlBase@ATL@@QAEJJPBUtagRECT@@@Z 10007b58 f i ElectronicValueRW.obj
 0001:00006dc9       ?Init@?$CComEnumImpl@UIEnumConnectionPoints@@$1?_GUID_b196b285_bab4_101a_b69c_00aa00341d07@@3U__s_GUID@@BPAUIConnectionPoint@@V?$_CopyInterface@UIConnectionPoint@@@ATL@@@ATL@@QAEJPAPAUIConnectionPoint@@0PAUIUnknown@@W4CComEnumFlags@2@@Z 10007dc9 f i ElectronicValueRW.obj
 0001:00006ea8       ?Init@?$CComEnumImpl@UIEnumConnections@@$1?_GUID_b196b287_bab4_101a_b69c_00aa00341d07@@3U__s_GUID@@BUtagCONNECTDATA@@V?$_Copy@UtagCONNECTDATA@@@ATL@@@ATL@@QAEJPAUtagCONNECTDATA@@0PAUIUnknown@@W4CComEnumFlags@2@@Z 10007ea8 f i ElectronicValueRW.obj
 0001:00006f87       ?Init@CComModule@ATL@@QAEJPAU_ATL_OBJMAP_ENTRY30@2@PAUHINSTANCE__@@PBU_GUID@@@Z 10007f87 f i ElectronicValueRW.obj
 0001:00006fe6       ?Init@CDynamicStdCallThunk2@ATL@@QAEHKPAX@Z 10007fe6 f i ElectronicValueRW.obj
 0001:00007011       ?InlineIsEqualUnknown@ATL@@YGHABU_GUID@@@Z 10008011 f i ElectronicValueRW.obj
 0001:00007039       ?InternalGetSite@CComControlBase@ATL@@QAEJABU_GUID@@PAPAX@Z 10008039 f i ElectronicValueRW.obj
 0001:00007067       ?InternalSetAtIndex@?$CSimpleMap@PA_WPA_WVCExpansionVectorEqualHelper@ATL@@@ATL@@QAEXHABQA_W0@Z 10008067 f i ElectronicValueRW.obj
 0001:00007091       ?Invoke@CComTypeInfoHolder@ATL@@QAEJPAUIDispatch@@JABU_GUID@@KGPAUtagDISPPARAMS@@PAUtagVARIANT@@PAUtagEXCEPINFO@@PAI@Z 10008091 f i ElectronicValueRW.obj
 0001:000070d4       ?IsEqualObject@?$CComPtrBase@UITypeInfo@@@ATL@@QAE_NPAUIUnknown@@@Z 100080d4 f i ElectronicValueRW.obj
 0001:000070d4       ?IsEqualObject@?$CComPtrBase@UIOleClientSite@@@ATL@@QAE_NPAUIUnknown@@@Z 100080d4 f i ElectronicValueRW.obj
 0001:00007141       ?IsSpace@CRegParser@ATL@@IAEH_W@Z 10008141 f i ElectronicValueRW.obj
 0001:0000716b       ?LoadNameCache@CComTypeInfoHolder@ATL@@QAEJPAUITypeInfo@@@Z 1000816b f i ElectronicValueRW.obj
 0001:000072b9       ?Lookup@?$CSimpleMap@PA_WPA_WVCExpansionVectorEqualHelper@ATL@@@ATL@@QBEPA_WABQA_W@Z 100082b9 f i ElectronicValueRW.obj
 0001:000072df       ?NextToken@CRegParser@ATL@@IAEJPA_W@Z 100082df f i ElectronicValueRW.obj
 0001:00007417       ?OnKillFocus@CComControlBase@ATL@@QAEJIIJAAH@Z 10008417 f i ElectronicValueRW.obj
 0001:00007472       ?OnMouseActivate@CComControlBase@ATL@@QAEJIIJAAH@Z 10008472 f i ElectronicValueRW.obj
 0001:000074e0       ?OnPaint@CComControlBase@ATL@@QAEJIIJAAH@Z 100084e0 f i ElectronicValueRW.obj
 0001:00007592       ?OnSetFocus@CComControlBase@ATL@@QAEJIIJAAH@Z 10008592 f i ElectronicValueRW.obj
 0001:0000761b       ?Open@CRegKey@ATL@@QAEJPAUHKEY__@@PB_WK@Z 1000861b f i ElectronicValueRW.obj
 0001:00007670       ?PreProcessBuffer@CRegParser@ATL@@QAEJPA_WPAPA_W@Z 10008670 f i ElectronicValueRW.obj
 0001:000078da       ?ProcessWindowMessage@?$CComControl@VCOPOSElectronicValueRW@@V?$CWindowImpl@VCOPOSElectronicValueRW@@VCWindow@ATL@@V?$CWinTraits@$0FGAAAAAA@$0A@@3@@ATL@@@ATL@@UAEHPAUHWND__@@IIJAAJK@Z 100088da f i ElectronicValueRW.obj
 0001:00007979       ?PutProperty@?$CComPtr@UIDispatch@@@ATL@@SAJPAUIDispatch@@JPAUtagVARIANT@@@Z 10008979 f i ElectronicValueRW.obj
 0001:00007a0b       ?ReadFromStream@CComBSTR@ATL@@QAEJPAUIStream@@@Z 10008a0b f i ElectronicValueRW.obj
 0001:00007b39       ?ReadFromStream@CComVariant@ATL@@QAEJPAUIStream@@GTClassesAllowedInStream@2@K@Z 10008b39 f i ElectronicValueRW.obj
 0001:00007cbf       ?RecurseDeleteKey@CRegKey@ATL@@QAEJPB_W@Z 10008cbf f i ElectronicValueRW.obj
 0001:00007d81       ?RegCreateKeyExW@CAtlTransactionManager@ATL@@QAEJPAUHKEY__@@PB_WKPA_WKKQAU_SECURITY_ATTRIBUTES@@PAPAU3@PAK@Z 10008d81 f i ElectronicValueRW.obj
 0001:00007de4       ?RegDeleteKeyW@CAtlTransactionManager@ATL@@QAEJPAUHKEY__@@PB_W@Z 10008de4 f i ElectronicValueRW.obj
 0001:00007e36       ?RegOpenKeyExW@CAtlTransactionManager@ATL@@QAEJPAUHKEY__@@PB_WKKPAPAU3@@Z 10008e36 f i ElectronicValueRW.obj
 0001:00007e8d       ?Register@_ATL_WNDCLASSINFOW@ATL@@QAEGPAP6GJPAUHWND__@@IIJ@Z@Z 10008e8d f i ElectronicValueRW.obj
 0001:00007ead       ?RegisterBuffer@CRegParser@ATL@@QAEJPA_WH@Z 10008ead f i ElectronicValueRW.obj
 0001:00007fe6       ?RegisterFromResource@CRegObject@ATL@@IAEJPB_W00H@Z 10008fe6 f i ElectronicValueRW.obj
 0001:0000811c       ?RegisterServer@?$CAtlModuleT@VCComModule@ATL@@@ATL@@QAEJHPBU_GUID@@@Z 1000911c f i ElectronicValueRW.obj
 0001:0000814a       ?RegisterServer@CComModule@ATL@@QAEJHPBU_GUID@@@Z 1000914a f i ElectronicValueRW.obj
 0001:000081c0       ?RegisterSubkeys@CRegParser@ATL@@IAEJPA_WPAUHKEY__@@HH@Z 100091c0 f i ElectronicValueRW.obj
 0001:00008792       ?Remove@CComDynamicUnkArray@ATL@@QAEHK@Z 10009792 f i ElectronicValueRW.obj
 0001:000087bb       ?RemoveAll@?$CSimpleMap@PA_WPA_WVCExpansionVectorEqualHelper@ATL@@@ATL@@QAEXXZ 100097bb f i ElectronicValueRW.obj
 0001:000087e7       ?ResourceRegisterSz@CRegObject@ATL@@QAGJPB_W00@Z 100097e7 f i ElectronicValueRW.obj
 0001:00008814       ?ResourceUnregisterSz@CRegObject@ATL@@QAGJPB_W00@Z 10009814 f i ElectronicValueRW.obj
 0001:00008841       ?SendOnDataChange@CComControlBase@ATL@@QAEJK@Z 10009841 f i ElectronicValueRW.obj
 0001:0000888e       ?SetControlFocus@CComControlBase@ATL@@QAEHH@Z 1000988e f i ElectronicValueRW.obj
 0001:0000892b       ?SetMultiStringValue@CRegKey@ATL@@QAEJPB_W0@Z 1000992b f i ElectronicValueRW.obj
 0001:00008987       ?SetStringValue@CRegKey@ATL@@QAEJPB_W0K@Z 10009987 f i ElectronicValueRW.obj
 0001:000089d0       ?SkipAssignment@CRegParser@ATL@@IAEJPA_W@Z 100099d0 f i ElectronicValueRW.obj
 0001:00008a35       ?SkipWhiteSpace@CRegParser@ATL@@IAEXXZ 10009a35 f i ElectronicValueRW.obj
 0001:00008a57       ?StrChrW@CRegParser@ATL@@KAPA_WPA_W_W@Z 10009a57 f i ElectronicValueRW.obj
 0001:00008a94       ?Term@CAtlModule@ATL@@QAEXXZ 10009a94 f i ElectronicValueRW.obj
 0001:00008acd       ?Term@CComModule@ATL@@QAEXXZ 10009acd f i ElectronicValueRW.obj
 0001:00008b25       ?UnregisterServer@?$CAtlModuleT@VCComModule@ATL@@@ATL@@QAEJHPBU_GUID@@@Z 10009b25 f i ElectronicValueRW.obj
 0001:00008b4b       ?UnregisterServer@CComModule@ATL@@QAEJHPBU_GUID@@@Z 10009b4b f i ElectronicValueRW.obj
 0001:00008bc1       ?UpdateRegistryFromResource@CAtlModule@ATL@@QAGJIHPAU_ATL_REGMAP_ENTRY@2@@Z 10009bc1 f i ElectronicValueRW.obj
 0001:00008d8c       ?UpdateRegistryFromResource@CAtlModule@ATL@@QAGJPB_WHPAU_ATL_REGMAP_ENTRY@2@@Z 10009d8c f i ElectronicValueRW.obj
 0001:00008f5d       ?VTFromRegType@CRegParser@ATL@@KAHPB_WAAG@Z 10009f5d f i ElectronicValueRW.obj
 0001:00008fca       ?WindowProc@?$CWindowImplBaseT@VCWindow@ATL@@V?$CWinTraits@$0FGAAAAAA@$0A@@2@@ATL@@SGJPAUHWND__@@IIJ@Z 10009fca f i ElectronicValueRW.obj
 0001:000090bc       ?WriteToStream@CComBSTR@ATL@@QAEJPAUIStream@@@Z 1000a0bc f i ElectronicValueRW.obj
 0001:00009113       ?WriteToStream@CComVariant@ATL@@QAEJPAUIStream@@@Z 1000a113 f i ElectronicValueRW.obj
 0001:0000928d       ?WriteToStream@CComVariant@ATL@@QAEJPAUIStream@@G@Z 1000a28d f i ElectronicValueRW.obj
 0001:000092f6       ?_AtlInitialConstruct@?$CComObjectRootEx@VCComMultiThreadModel@ATL@@@ATL@@QAEJXZ 1000a2f6 f i ElectronicValueRW.obj
 0001:0000930b       ?_AtlVerifyStackAvailable@_ATL_SAFE_ALLOCA_IMPL@ATL@@YA_NK@Z 1000a30b f i ElectronicValueRW.obj
 0001:00009389       ?atlCreate@?$CWindowImpl@VCOPOSElectronicValueRW@@VCWindow@ATL@@V?$CWinTraits@$0FGAAAAAA@$0A@@3@@ATL@@QAEPAUHWND__@@PAU3@V_U_RECT@2@PB_WKKV_U_MENUorID@2@PAX@Z 1000a389 f i ElectronicValueRW.obj
 0001:000093cd       ?atlCreate@?$CWindowImplBaseT@VCWindow@ATL@@V?$CWinTraits@$0FGAAAAAA@$0A@@2@@ATL@@QAEPAUHWND__@@PAU3@V_U_RECT@2@PB_WKKV_U_MENUorID@2@GPAX@Z 1000a3cd f i ElectronicValueRW.obj
 0001:00009469       ?atlCreate@CRegKey@ATL@@QAEJPAUHKEY__@@PB_WPA_WKKPAU_SECURITY_ATTRIBUTES@@PAK@Z 1000a469 f i ElectronicValueRW.obj
 0001:000094d8       ?copy@?$_Copy@UtagCONNECTDATA@@@ATL@@SAJPAUtagCONNECTDATA@@PBU3@@Z 1000a4d8 f i ElectronicValueRW.obj
 0001:0000950e       ?copy@?$_CopyInterface@UIConnectionPoint@@@ATL@@SAJPAPAUIConnectionPoint@@PBQAU3@@Z 1000a50e f i ElectronicValueRW.obj
 0001:0000953c       ?memcpy_s@Checked@ATL@@YAXPAXIPBXI@Z 1000a53c f i ElectronicValueRW.obj
 0001:0000955b       ?ocscpy_s@@YA_NPA_WIPB_W@Z 1000a55b f i ElectronicValueRW.obj
 0001:0000958a       ?ocslen@@YAHPB_W@Z         1000a58a f i ElectronicValueRW.obj
 0001:000095aa       ?wcscpy_s@Checked@ATL@@YAXPA_WIPB_W@Z 1000a5aa f i ElectronicValueRW.obj
 0001:000095c6       _DllCanUnloadNow@0         1000a5c6 f   ElectronicValueRW.obj
 0001:000095d2       _DllGetClassObject@12      1000a5d2 f   ElectronicValueRW.obj
 0001:000095e0       _DllMain@12                1000a5e0 f   ElectronicValueRW.obj
 0001:00009622       _DllRegisterServer@0       1000a622 f   ElectronicValueRW.obj
 0001:00009631       _DllUnregisterServer@0     1000a631 f   ElectronicValueRW.obj
 0001:00009640       _InlineIsEqualGUID         1000a640 f i ElectronicValueRW.obj
 0001:00009670       ___local_stdio_printf_options 1000a670 f i ElectronicValueRW.obj
 0001:00009676       __vswprintf_s_l            1000a676 f i ElectronicValueRW.obj
 0001:00009723       _swprintf_s                1000a723 f i ElectronicValueRW.obj
 0001:0000973f       ??0?$CComControl@VCOPOSElectronicValueRW@@V?$CWindowImpl@VCOPOSElectronicValueRW@@VCWindow@ATL@@V?$CWinTraits@$0FGAAAAAA@$0A@@3@@ATL@@@ATL@@QAE@XZ 1000a73f f i ElectronicValueRWImpl.obj
 0001:00009766       ??0?$CProxy_IOPOSEvents@VCOPOSElectronicValueRW@@@@QAE@XZ 1000a766 f i ElectronicValueRWImpl.obj
 0001:0000978c       ??0CComControlBase@ATL@@QAE@AAPAUHWND__@@@Z 1000a78c f i ElectronicValueRWImpl.obj
 0001:000097d6       ??0COPOSElectronicValueRW@@QAE@XZ 1000a7d6 f   ElectronicValueRWImpl.obj
 0001:0000980c       ??1?$CComControl@VCOPOSElectronicValueRW@@V?$CWindowImpl@VCOPOSElectronicValueRW@@VCWindow@ATL@@V?$CWinTraits@$0FGAAAAAA@$0A@@3@@ATL@@@ATL@@UAE@XZ 1000a80c f i ElectronicValueRWImpl.obj
 0001:00009825       ??1?$IConnectionPointImpl@VCOPOSElectronicValueRW@@$1?DIID__IOPOSElectronicValueRWEvents@@3U_GUID@@BVCComDynamicUnkArray@ATL@@@ATL@@QAE@XZ 1000a825 f i ElectronicValueRWImpl.obj
 0001:00009825       ??1?$IConnectionPointImpl@VCOPOSElectronicValueRW@@$1?IID_IPropertyNotifySink@@3U_GUID@@BVCComDynamicUnkArray@ATL@@@ATL@@QAE@XZ 1000a825 f i ElectronicValueRWImpl.obj
 0001:00009862       ??1CComControlBase@ATL@@UAE@XZ 1000a862 f i ElectronicValueRWImpl.obj
 0001:000098c5       ??1COPOSElectronicValueRW@@UAE@XZ 1000a8c5 f   ElectronicValueRWImpl.obj
 0001:0000990d       ??1OposVariantResult@@QAE@XZ 1000a90d f i ElectronicValueRWImpl.obj
 0001:0000992e       ??1_CW@@QAE@XZ             1000a92e f i ElectronicValueRWImpl.obj
 0001:00009947       ?AccessDailyLog@COPOSElectronicValueRW@@UAGJJJJPAJ@Z 1000a947 f   ElectronicValueRWImpl.obj
 0001:000099dd       ?AccessData@COPOSElectronicValueRW@@UAGJJPAJPAPA_W0@Z 1000a9dd f   ElectronicValueRWImpl.obj
 0001:00009a8b       ?AccessLog@COPOSElectronicValueRW@@UAGJJJJPAJ@Z 1000aa8b f   ElectronicValueRWImpl.obj
 0001:00009b21       ?ActivateEVService@COPOSElectronicValueRW@@UAGJPAJPAPA_W0@Z 1000ab21 f   ElectronicValueRWImpl.obj
 0001:00009ba1       ?ActivateService@COPOSElectronicValueRW@@UAGJPAJPAPA_W0@Z 1000aba1 f   ElectronicValueRWImpl.obj
 0001:00009c21       ?AddValue@COPOSElectronicValueRW@@UAGJJJPAJ@Z 1000ac21 f   ElectronicValueRWImpl.obj
 0001:00009c95       ?AuthorizeCompletion@COPOSElectronicValueRW@@UAGJJTtagCY@@0JPAJ@Z 1000ac95 f   ElectronicValueRWImpl.obj
 0001:00009d3c       ?AuthorizePreSales@COPOSElectronicValueRW@@UAGJJTtagCY@@0JPAJ@Z 1000ad3c f   ElectronicValueRWImpl.obj
 0001:00009de3       ?AuthorizeRefund@COPOSElectronicValueRW@@UAGJJTtagCY@@0JPAJ@Z 1000ade3 f   ElectronicValueRWImpl.obj
 0001:00009e8a       ?AuthorizeSales@COPOSElectronicValueRW@@UAGJJTtagCY@@0JPAJ@Z 1000ae8a f   ElectronicValueRWImpl.obj
 0001:00009f31       ?AuthorizeVoid@COPOSElectronicValueRW@@UAGJJTtagCY@@0JPAJ@Z 1000af31 f   ElectronicValueRWImpl.obj
 0001:00009fd8       ?AuthorizeVoidPreSales@COPOSElectronicValueRW@@UAGJJTtagCY@@0JPAJ@Z 1000afd8 f   ElectronicValueRWImpl.obj
 0001:0000a07f       ?BeginDetection@COPOSElectronicValueRW@@UAGJJJPAJ@Z 1000b07f f   ElectronicValueRWImpl.obj
 0001:0000a0f3       ?BeginRemoval@COPOSElectronicValueRW@@UAGJJPAJ@Z 1000b0f3 f   ElectronicValueRWImpl.obj
 0001:0000a142       ?CancelValue@COPOSElectronicValueRW@@UAGJJJPAJ@Z 1000b142 f   ElectronicValueRWImpl.obj
 0001:0000a1b6       ?CaptureCard@COPOSElectronicValueRW@@UAGJPAJ@Z 1000b1b6 f   ElectronicValueRWImpl.obj
 0001:0000a1d1       ?CashDeposit@COPOSElectronicValueRW@@UAGJJTtagCY@@JPAJ@Z 1000b1d1 f   ElectronicValueRWImpl.obj
 0001:0000a26a       ?CheckCard@COPOSElectronicValueRW@@UAGJJJPAJ@Z 1000b26a f   ElectronicValueRWImpl.obj
 0001:0000a2de       ?CheckHealth@COPOSElectronicValueRW@@UAGJJPAJ@Z 1000b2de f   ElectronicValueRWImpl.obj
 0001:0000a32d       ?CheckServiceRegistrationToMedium@COPOSElectronicValueRW@@UAGJJJPAJ@Z 1000b32d f   ElectronicValueRWImpl.obj
 0001:0000a3a1       ?ClaimDevice@COPOSElectronicValueRW@@UAGJJPAJ@Z 1000b3a1 f   ElectronicValueRWImpl.obj
 0001:0000a416       ?ClearInput@COPOSElectronicValueRW@@UAGJPAJ@Z 1000b416 f   ElectronicValueRWImpl.obj
 0001:0000a431       ?ClearInputProperties@COPOSElectronicValueRW@@UAGJPAJ@Z 1000b431 f   ElectronicValueRWImpl.obj
 0001:0000a44c       ?ClearOutput@COPOSElectronicValueRW@@UAGJPAJ@Z 1000b44c f   ElectronicValueRWImpl.obj
 0001:0000a467       ?ClearParameterInformation@COPOSElectronicValueRW@@UAGJPAJ@Z 1000b467 f   ElectronicValueRWImpl.obj
 0001:0000a482       ?Close@COPOSElectronicValueRW@@UAGJPAJ@Z 1000b482 f   ElectronicValueRWImpl.obj
 0001:0000a4f0       ?CloseDailyEVService@COPOSElectronicValueRW@@UAGJPAJPAPA_W0@Z 1000b4f0 f   ElectronicValueRWImpl.obj
 0001:0000a570       ?CompareFirmwareVersion@COPOSElectronicValueRW@@UAGJPA_WPAJ1@Z 1000b570 f   ElectronicValueRWImpl.obj
 0001:0000a5f0       ?DeactivateEVService@COPOSElectronicValueRW@@UAGJPAJPAPA_W0@Z 1000b5f0 f   ElectronicValueRWImpl.obj
 0001:0000a670       ?DirectIO@COPOSElectronicValueRW@@UAGJJPAJPAPA_W0@Z 1000b670 f   ElectronicValueRWImpl.obj
 0001:0000a71e       ?DoInvoke@COPOSElectronicValueRW@@IAEJJPAVOposVariant@@IHPAJ_N@Z 1000b71e f   ElectronicValueRWImpl.obj
 0001:0000a7e0       ?EndDetection@COPOSElectronicValueRW@@UAGJPAJ@Z 1000b7e0 f   ElectronicValueRWImpl.obj
 0001:0000a7fb       ?EndRemoval@COPOSElectronicValueRW@@UAGJPAJ@Z 1000b7fb f   ElectronicValueRWImpl.obj
 0001:0000a816       ?EnumerateCardServices@COPOSElectronicValueRW@@UAGJPAJ@Z 1000b816 f   ElectronicValueRWImpl.obj
 0001:0000a831       ?EventClose@COPOSElectronicValueRW@@IAEXXZ 1000b831 f i ElectronicValueRWImpl.obj
 0001:0000a864       ?EventInit@COPOSElectronicValueRW@@IAEJXZ 1000b864 f i ElectronicValueRWImpl.obj
 0001:0000a930       ?EventUninit@COPOSElectronicValueRW@@IAEXXZ 1000b930 f i ElectronicValueRWImpl.obj
 0001:0000a982       ?EventWindowProc@COPOSElectronicValueRW@@IAGJIIJ@Z 1000b982 f i ElectronicValueRWImpl.obj
 0001:0000aab7       ?FinalConstruct@COPOSElectronicValueRW@@QAEJXZ 1000bab7 f   ElectronicValueRWImpl.obj
 0001:0000aaf0       ?FireEventCleanup@COPOSElectronicValueRW@@IAEXXZ 1000baf0 f i ElectronicValueRWImpl.obj
 0001:0000ab06       ?FireEventSetup@COPOSElectronicValueRW@@IAE_NXZ 1000bb06 f i ElectronicValueRWImpl.obj
 0001:0000ab3a       ?FreezeEvents@COPOSElectronicValueRW@@MAGJH@Z 1000bb3a f   ElectronicValueRWImpl.obj
 0001:0000ab9a       ?GetOposProp@COPOSElectronicValueRW@@IAEJJPAFJ@Z 1000bb9a f   ElectronicValueRWImpl.obj
 0001:0000abbd       ?GetOposProp@COPOSElectronicValueRW@@IAEJJPAJJ@Z 1000bbbd f   ElectronicValueRWImpl.obj
 0001:0000ac7b       ?GetOposProp@COPOSElectronicValueRW@@IAEJJPAPA_WJ@Z 1000bc7b f   ElectronicValueRWImpl.obj
 0001:0000ad46       ?LockTerminal@COPOSElectronicValueRW@@UAGJPAJ@Z 1000bd46 f   ElectronicValueRWImpl.obj
 0001:0000ad61       ?OnDraw@COPOSElectronicValueRW@@MAEJAAUATL_DRAWINFO@@@Z 1000bd61 f   ElectronicValueRWImpl.obj
 0001:0000ae01       ?Open@COPOSElectronicValueRW@@UAGJPA_WPAJ@Z 1000be01 f   ElectronicValueRWImpl.obj
 0001:0000b5b2       ?OpenDailyEVService@COPOSElectronicValueRW@@UAGJPAJPAPA_W0@Z 1000c5b2 f   ElectronicValueRWImpl.obj
 0001:0000b632       ?QueryLastSuccessfulTransactionResult@COPOSElectronicValueRW@@UAGJPAJ@Z 1000c632 f   ElectronicValueRWImpl.obj
 0001:0000b64d       ?ReadValue@COPOSElectronicValueRW@@UAGJJJPAJ@Z 1000c64d f   ElectronicValueRWImpl.obj
 0001:0000b6c1       ?RegisterServiceToMedium@COPOSElectronicValueRW@@UAGJJJPAJ@Z 1000c6c1 f   ElectronicValueRWImpl.obj
 0001:0000b735       ?ReleaseDevice@COPOSElectronicValueRW@@UAGJPAJ@Z 1000c735 f   ElectronicValueRWImpl.obj
 0001:0000b784       ?ResetStatistics@COPOSElectronicValueRW@@UAGJPA_WPAJ@Z 1000c784 f   ElectronicValueRWImpl.obj
 0001:0000b7db       ?RetrieveResultInformation@COPOSElectronicValueRW@@UAGJPA_WPAPA_WPAJ@Z 1000c7db f   ElectronicValueRWImpl.obj
 0001:0000b85b       ?RetrieveStatistics@COPOSElectronicValueRW@@UAGJPAPA_WPAJ@Z 1000c85b f   ElectronicValueRWImpl.obj
 0001:0000b8b2       ?SOProcessID@COPOSElectronicValueRW@@UAGJPAJ@Z 1000c8b2 f   ElectronicValueRWImpl.obj
 0001:0000b8c6       ?SetCOFreezeEvents@COPOSElectronicValueRW@@IAEXF@Z 1000c8c6 f   ElectronicValueRWImpl.obj
 0001:0000b951       ?SetOposProp@COPOSElectronicValueRW@@IAEJJJJ@Z 1000c951 f   ElectronicValueRWImpl.obj
 0001:0000ba2f       ?SetOposProp@COPOSElectronicValueRW@@IAEJJPA_WJ@Z 1000ca2f f   ElectronicValueRWImpl.obj
 0001:0000bb1b       ?SetParameterInformation@COPOSElectronicValueRW@@UAGJPA_W0PAJ@Z 1000cb1b f   ElectronicValueRWImpl.obj
 0001:0000bb9b       ?SubtractValue@COPOSElectronicValueRW@@UAGJJJPAJ@Z 1000cb9b f   ElectronicValueRWImpl.obj
 0001:0000bc0f       ?TransactionAccess@COPOSElectronicValueRW@@UAGJJPAJ@Z 1000cc0f f   ElectronicValueRWImpl.obj
 0001:0000bc5e       ?UnlockTerminal@COPOSElectronicValueRW@@UAGJPAJ@Z 1000cc5e f   ElectronicValueRWImpl.obj
 0001:0000bc79       ?UnregisterServiceToMedium@COPOSElectronicValueRW@@UAGJJJPAJ@Z 1000cc79 f   ElectronicValueRWImpl.obj
 0001:0000bced       ?UpdateData@COPOSElectronicValueRW@@UAGJJPAJPAPA_W0@Z 1000cced f   ElectronicValueRWImpl.obj
 0001:0000bd9b       ?UpdateFirmware@COPOSElectronicValueRW@@UAGJPA_WPAJ@Z 1000cd9b f   ElectronicValueRWImpl.obj
 0001:0000bdf2       ?UpdateKey@COPOSElectronicValueRW@@UAGJPAJPAPA_W0@Z 1000cdf2 f   ElectronicValueRWImpl.obj
 0001:0000be72       ?UpdateStatistics@COPOSElectronicValueRW@@UAGJPA_WPAJ@Z 1000ce72 f   ElectronicValueRWImpl.obj
 0001:0000bec9       ?WriteValue@COPOSElectronicValueRW@@UAGJJJPAJ@Z 1000cec9 f   ElectronicValueRWImpl.obj
 0001:0000bf3d       ?get_AccountNumber@COPOSElectronicValueRW@@UAGJPAPA_W@Z 1000cf3d f   ElectronicValueRWImpl.obj
 0001:0000bf56       ?get_AdditionalSecurityInformation@COPOSElectronicValueRW@@UAGJPAPA_W@Z 1000cf56 f   ElectronicValueRWImpl.obj
 0001:0000bf6f       ?get_Amount@COPOSElectronicValueRW@@UAGJPATtagCY@@@Z 1000cf6f f   ElectronicValueRWImpl.obj
 0001:0000c000       ?get_ApprovalCode@COPOSElectronicValueRW@@UAGJPAPA_W@Z 1000d000 f   ElectronicValueRWImpl.obj
 0001:0000c019       ?get_AsyncMode@COPOSElectronicValueRW@@UAGJPAF@Z 1000d019 f   ElectronicValueRWImpl.obj
 0001:0000c032       ?get_AutoDisable@COPOSElectronicValueRW@@UAGJPAF@Z 1000d032 f   ElectronicValueRWImpl.obj
 0001:0000c048       ?get_Balance@COPOSElectronicValueRW@@UAGJPATtagCY@@@Z 1000d048 f   ElectronicValueRWImpl.obj
 0001:0000c0d9       ?get_BalanceOfPoint@COPOSElectronicValueRW@@UAGJPATtagCY@@@Z 1000d0d9 f   ElectronicValueRWImpl.obj
 0001:0000c16a       ?get_BinaryConversion@COPOSElectronicValueRW@@UAGJPAJ@Z 1000d16a f   ElectronicValueRWImpl.obj
 0001:0000c180       ?get_CapActivateService@COPOSElectronicValueRW@@UAGJPAF@Z 1000d180 f   ElectronicValueRWImpl.obj
 0001:0000c199       ?get_CapAddValue@COPOSElectronicValueRW@@UAGJPAF@Z 1000d199 f   ElectronicValueRWImpl.obj
 0001:0000c1b2       ?get_CapAdditionalSecurityInformation@COPOSElectronicValueRW@@UAGJPAF@Z 1000d1b2 f   ElectronicValueRWImpl.obj
 0001:0000c1cb       ?get_CapAuthorizeCompletion@COPOSElectronicValueRW@@UAGJPAF@Z 1000d1cb f   ElectronicValueRWImpl.obj
 0001:0000c1e4       ?get_CapAuthorizePreSales@COPOSElectronicValueRW@@UAGJPAF@Z 1000d1e4 f   ElectronicValueRWImpl.obj
 0001:0000c1fd       ?get_CapAuthorizeRefund@COPOSElectronicValueRW@@UAGJPAF@Z 1000d1fd f   ElectronicValueRWImpl.obj
 0001:0000c216       ?get_CapAuthorizeVoid@COPOSElectronicValueRW@@UAGJPAF@Z 1000d216 f   ElectronicValueRWImpl.obj
 0001:0000c22f       ?get_CapAuthorizeVoidPreSales@COPOSElectronicValueRW@@UAGJPAF@Z 1000d22f f   ElectronicValueRWImpl.obj
 0001:0000c248       ?get_CapCancelValue@COPOSElectronicValueRW@@UAGJPAF@Z 1000d248 f   ElectronicValueRWImpl.obj
 0001:0000c261       ?get_CapCardSensor@COPOSElectronicValueRW@@UAGJPAJ@Z 1000d261 f   ElectronicValueRWImpl.obj
 0001:0000c27a       ?get_CapCashDeposit@COPOSElectronicValueRW@@UAGJPAF@Z 1000d27a f   ElectronicValueRWImpl.obj
 0001:0000c293       ?get_CapCenterResultCode@COPOSElectronicValueRW@@UAGJPAF@Z 1000d293 f   ElectronicValueRWImpl.obj
 0001:0000c2ac       ?get_CapCheckCard@COPOSElectronicValueRW@@UAGJPAF@Z 1000d2ac f   ElectronicValueRWImpl.obj
 0001:0000c2c5       ?get_CapCompareFirmwareVersion@COPOSElectronicValueRW@@UAGJPAF@Z 1000d2c5 f   ElectronicValueRWImpl.obj
 0001:0000c2de       ?get_CapDailyLog@COPOSElectronicValueRW@@UAGJPAJ@Z 1000d2de f   ElectronicValueRWImpl.obj
 0001:0000c2f7       ?get_CapDetectionControl@COPOSElectronicValueRW@@UAGJPAJ@Z 1000d2f7 f   ElectronicValueRWImpl.obj
 0001:0000c310       ?get_CapElectronicMoney@COPOSElectronicValueRW@@UAGJPAF@Z 1000d310 f   ElectronicValueRWImpl.obj
 0001:0000c329       ?get_CapEnumerateCardServices@COPOSElectronicValueRW@@UAGJPAF@Z 1000d329 f   ElectronicValueRWImpl.obj
 0001:0000c342       ?get_CapIndirectTransactionLog@COPOSElectronicValueRW@@UAGJPAF@Z 1000d342 f   ElectronicValueRWImpl.obj
 0001:0000c35b       ?get_CapInstallments@COPOSElectronicValueRW@@UAGJPAF@Z 1000d35b f   ElectronicValueRWImpl.obj
 0001:0000c374       ?get_CapLockTerminal@COPOSElectronicValueRW@@UAGJPAF@Z 1000d374 f   ElectronicValueRWImpl.obj
 0001:0000c38d       ?get_CapLogStatus@COPOSElectronicValueRW@@UAGJPAF@Z 1000d38d f   ElectronicValueRWImpl.obj
 0001:0000c3a6       ?get_CapMediumID@COPOSElectronicValueRW@@UAGJPAF@Z 1000d3a6 f   ElectronicValueRWImpl.obj
 0001:0000c3bf       ?get_CapMembershipCertificate@COPOSElectronicValueRW@@UAGJPAF@Z 1000d3bf f   ElectronicValueRWImpl.obj
 0001:0000c3d8       ?get_CapPINDevice@COPOSElectronicValueRW@@UAGJPAF@Z 1000d3d8 f   ElectronicValueRWImpl.obj
 0001:0000c3f1       ?get_CapPaymentDetail@COPOSElectronicValueRW@@UAGJPAF@Z 1000d3f1 f   ElectronicValueRWImpl.obj
 0001:0000c40a       ?get_CapPoint@COPOSElectronicValueRW@@UAGJPAF@Z 1000d40a f   ElectronicValueRWImpl.obj
 0001:0000c423       ?get_CapPowerReporting@COPOSElectronicValueRW@@UAGJPAJ@Z 1000d423 f   ElectronicValueRWImpl.obj
 0001:0000c43c       ?get_CapStatisticsReporting@COPOSElectronicValueRW@@UAGJPAF@Z 1000d43c f   ElectronicValueRWImpl.obj
 0001:0000c455       ?get_CapSubtractValue@COPOSElectronicValueRW@@UAGJPAF@Z 1000d455 f   ElectronicValueRWImpl.obj
 0001:0000c46e       ?get_CapTaxOthers@COPOSElectronicValueRW@@UAGJPAF@Z 1000d46e f   ElectronicValueRWImpl.obj
 0001:0000c487       ?get_CapTrainingMode@COPOSElectronicValueRW@@UAGJPAF@Z 1000d487 f   ElectronicValueRWImpl.obj
 0001:0000c4a0       ?get_CapTransaction@COPOSElectronicValueRW@@UAGJPAF@Z 1000d4a0 f   ElectronicValueRWImpl.obj
 0001:0000c4b9       ?get_CapTransactionLog@COPOSElectronicValueRW@@UAGJPAF@Z 1000d4b9 f   ElectronicValueRWImpl.obj
 0001:0000c4d2       ?get_CapTransactionNumber@COPOSElectronicValueRW@@UAGJPAF@Z 1000d4d2 f   ElectronicValueRWImpl.obj
 0001:0000c4eb       ?get_CapUnlockTerminal@COPOSElectronicValueRW@@UAGJPAF@Z 1000d4eb f   ElectronicValueRWImpl.obj
 0001:0000c504       ?get_CapUpdateFirmware@COPOSElectronicValueRW@@UAGJPAF@Z 1000d504 f   ElectronicValueRWImpl.obj
 0001:0000c51d       ?get_CapUpdateKey@COPOSElectronicValueRW@@UAGJPAF@Z 1000d51d f   ElectronicValueRWImpl.obj
 0001:0000c536       ?get_CapUpdateStatistics@COPOSElectronicValueRW@@UAGJPAF@Z 1000d536 f   ElectronicValueRWImpl.obj
 0001:0000c54f       ?get_CapVoucher@COPOSElectronicValueRW@@UAGJPAF@Z 1000d54f f   ElectronicValueRWImpl.obj
 0001:0000c568       ?get_CapWriteValue@COPOSElectronicValueRW@@UAGJPAF@Z 1000d568 f   ElectronicValueRWImpl.obj
 0001:0000c581       ?get_CardCompanyID@COPOSElectronicValueRW@@UAGJPAPA_W@Z 1000d581 f   ElectronicValueRWImpl.obj
 0001:0000c59a       ?get_CardServiceList@COPOSElectronicValueRW@@UAGJPAPA_W@Z 1000d59a f   ElectronicValueRWImpl.obj
 0001:0000c5b3       ?get_CenterResultCode@COPOSElectronicValueRW@@UAGJPAPA_W@Z 1000d5b3 f   ElectronicValueRWImpl.obj
 0001:0000c5cc       ?get_CheckHealthText@COPOSElectronicValueRW@@UAGJPAPA_W@Z 1000d5cc f   ElectronicValueRWImpl.obj
 0001:0000c5e5       ?get_Claimed@COPOSElectronicValueRW@@UAGJPAF@Z 1000d5e5 f   ElectronicValueRWImpl.obj
 0001:0000c5fb       ?get_ControlObjectDescription@COPOSElectronicValueRW@@UAGJPAPA_W@Z 1000d5fb f   ElectronicValueRWImpl.obj
 0001:0000c638       ?get_ControlObjectVersion@COPOSElectronicValueRW@@UAGJPAJ@Z 1000d638 f   ElectronicValueRWImpl.obj
 0001:0000c64b       ?get_CurrentService@COPOSElectronicValueRW@@UAGJPAPA_W@Z 1000d64b f   ElectronicValueRWImpl.obj
 0001:0000c664       ?get_DailyLog@COPOSElectronicValueRW@@UAGJPAPA_W@Z 1000d664 f   ElectronicValueRWImpl.obj
 0001:0000c67d       ?get_DataCount@COPOSElectronicValueRW@@UAGJPAJ@Z 1000d67d f   ElectronicValueRWImpl.obj
 0001:0000c693       ?get_DataEventEnabled@COPOSElectronicValueRW@@UAGJPAF@Z 1000d693 f   ElectronicValueRWImpl.obj
 0001:0000c6a9       ?get_DetectionControl@COPOSElectronicValueRW@@UAGJPAF@Z 1000d6a9 f   ElectronicValueRWImpl.obj
 0001:0000c6c2       ?get_DetectionStatus@COPOSElectronicValueRW@@UAGJPAJ@Z 1000d6c2 f   ElectronicValueRWImpl.obj
 0001:0000c6db       ?get_DeviceDescription@COPOSElectronicValueRW@@UAGJPAPA_W@Z 1000d6db f   ElectronicValueRWImpl.obj
 0001:0000c6f4       ?get_DeviceEnabled@COPOSElectronicValueRW@@UAGJPAF@Z 1000d6f4 f   ElectronicValueRWImpl.obj
 0001:0000c70a       ?get_DeviceName@COPOSElectronicValueRW@@UAGJPAPA_W@Z 1000d70a f   ElectronicValueRWImpl.obj
 0001:0000c723       ?get_ExpirationDate@COPOSElectronicValueRW@@UAGJPAPA_W@Z 1000d723 f   ElectronicValueRWImpl.obj
 0001:0000c73c       ?get_FreezeEvents@COPOSElectronicValueRW@@UAGJPAF@Z 1000d73c f   ElectronicValueRWImpl.obj
 0001:0000c752       ?get_LastUsedDate@COPOSElectronicValueRW@@UAGJPAPA_W@Z 1000d752 f   ElectronicValueRWImpl.obj
 0001:0000c76b       ?get_LogStatus@COPOSElectronicValueRW@@UAGJPAJ@Z 1000d76b f   ElectronicValueRWImpl.obj
 0001:0000c784       ?get_MediumID@COPOSElectronicValueRW@@UAGJPAPA_W@Z 1000d784 f   ElectronicValueRWImpl.obj
 0001:0000c79d       ?get_OpenResult@COPOSElectronicValueRW@@UAGJPAJ@Z 1000d79d f   ElectronicValueRWImpl.obj
 0001:0000c7b4       ?get_OutputID@COPOSElectronicValueRW@@UAGJPAJ@Z 1000d7b4 f   ElectronicValueRWImpl.obj
 0001:0000c7ca       ?get_PINEntry@COPOSElectronicValueRW@@UAGJPAJ@Z 1000d7ca f   ElectronicValueRWImpl.obj
 0001:0000c7e3       ?get_PaymentCondition@COPOSElectronicValueRW@@UAGJPAJ@Z 1000d7e3 f   ElectronicValueRWImpl.obj
 0001:0000c7fc       ?get_PaymentDetail@COPOSElectronicValueRW@@UAGJPAPA_W@Z 1000d7fc f   ElectronicValueRWImpl.obj
 0001:0000c815       ?get_PaymentMedia@COPOSElectronicValueRW@@UAGJPAJ@Z 1000d815 f   ElectronicValueRWImpl.obj
 0001:0000c82e       ?get_Point@COPOSElectronicValueRW@@UAGJPATtagCY@@@Z 1000d82e f   ElectronicValueRWImpl.obj
 0001:0000c8bf       ?get_PowerNotify@COPOSElectronicValueRW@@UAGJPAJ@Z 1000d8bf f   ElectronicValueRWImpl.obj
 0001:0000c8d5       ?get_PowerState@COPOSElectronicValueRW@@UAGJPAJ@Z 1000d8d5 f   ElectronicValueRWImpl.obj
 0001:0000c8eb       ?get_ReaderWriterServiceList@COPOSElectronicValueRW@@UAGJPAPA_W@Z 1000d8eb f   ElectronicValueRWImpl.obj
 0001:0000c904       ?get_ResultCode@COPOSElectronicValueRW@@UAGJPAJ@Z 1000d904 f   ElectronicValueRWImpl.obj
 0001:0000c942       ?get_ResultCodeExtended@COPOSElectronicValueRW@@UAGJPAJ@Z 1000d942 f   ElectronicValueRWImpl.obj
 0001:0000c958       ?get_SequenceNumber@COPOSElectronicValueRW@@UAGJPAJ@Z 1000d958 f   ElectronicValueRWImpl.obj
 0001:0000c971       ?get_ServiceObjectDescription@COPOSElectronicValueRW@@UAGJPAPA_W@Z 1000d971 f   ElectronicValueRWImpl.obj
 0001:0000c98a       ?get_ServiceObjectVersion@COPOSElectronicValueRW@@UAGJPAJ@Z 1000d98a f   ElectronicValueRWImpl.obj
 0001:0000c9a0       ?get_ServiceType@COPOSElectronicValueRW@@UAGJPAJ@Z 1000d9a0 f   ElectronicValueRWImpl.obj
 0001:0000c9b9       ?get_SettledAmount@COPOSElectronicValueRW@@UAGJPATtagCY@@@Z 1000d9b9 f   ElectronicValueRWImpl.obj
 0001:0000ca4a       ?get_SettledPoint@COPOSElectronicValueRW@@UAGJPATtagCY@@@Z 1000da4a f   ElectronicValueRWImpl.obj
 0001:0000cadb       ?get_SlipNumber@COPOSElectronicValueRW@@UAGJPAPA_W@Z 1000dadb f   ElectronicValueRWImpl.obj
 0001:0000caf4       ?get_State@COPOSElectronicValueRW@@UAGJPAJ@Z 1000daf4 f   ElectronicValueRWImpl.obj
 0001:0000cb20       ?get_TrainingModeState@COPOSElectronicValueRW@@UAGJPAJ@Z 1000db20 f   ElectronicValueRWImpl.obj
 0001:0000cb39       ?get_TransactionLog@COPOSElectronicValueRW@@UAGJPAPA_W@Z 1000db39 f   ElectronicValueRWImpl.obj
 0001:0000cb52       ?get_TransactionNumber@COPOSElectronicValueRW@@UAGJPAPA_W@Z 1000db52 f   ElectronicValueRWImpl.obj
 0001:0000cb6b       ?get_TransactionType@COPOSElectronicValueRW@@UAGJPAJ@Z 1000db6b f   ElectronicValueRWImpl.obj
 0001:0000cb84       ?get_VoucherID@COPOSElectronicValueRW@@UAGJPAPA_W@Z 1000db84 f   ElectronicValueRWImpl.obj
 0001:0000cb9d       ?get_VoucherIDList@COPOSElectronicValueRW@@UAGJPAPA_W@Z 1000db9d f   ElectronicValueRWImpl.obj
 0001:0000cbb6       ?put_AdditionalSecurityInformation@COPOSElectronicValueRW@@UAGJPA_W@Z 1000dbb6 f   ElectronicValueRWImpl.obj
 0001:0000cbcf       ?put_Amount@COPOSElectronicValueRW@@UAGJTtagCY@@@Z 1000dbcf f   ElectronicValueRWImpl.obj
 0001:0000cc70       ?put_ApprovalCode@COPOSElectronicValueRW@@UAGJPA_W@Z 1000dc70 f   ElectronicValueRWImpl.obj
 0001:0000cc89       ?put_AsyncMode@COPOSElectronicValueRW@@UAGJF@Z 1000dc89 f   ElectronicValueRWImpl.obj
 0001:0000cca9       ?put_AutoDisable@COPOSElectronicValueRW@@UAGJF@Z 1000dca9 f   ElectronicValueRWImpl.obj
 0001:0000ccc6       ?put_BinaryConversion@COPOSElectronicValueRW@@UAGJJ@Z 1000dcc6 f   ElectronicValueRWImpl.obj
 0001:0000ccdc       ?put_CurrentService@COPOSElectronicValueRW@@UAGJPA_W@Z 1000dcdc f   ElectronicValueRWImpl.obj
 0001:0000ccf5       ?put_DataEventEnabled@COPOSElectronicValueRW@@UAGJF@Z 1000dcf5 f   ElectronicValueRWImpl.obj
 0001:0000cd12       ?put_DetectionControl@COPOSElectronicValueRW@@UAGJF@Z 1000dd12 f   ElectronicValueRWImpl.obj
 0001:0000cd32       ?put_DeviceEnabled@COPOSElectronicValueRW@@UAGJF@Z 1000dd32 f   ElectronicValueRWImpl.obj
 0001:0000cd4f       ?put_FreezeEvents@COPOSElectronicValueRW@@UAGJF@Z 1000dd4f f   ElectronicValueRWImpl.obj
 0001:0000cd9b       ?put_MediumID@COPOSElectronicValueRW@@UAGJPA_W@Z 1000dd9b f   ElectronicValueRWImpl.obj
 0001:0000cdb4       ?put_PINEntry@COPOSElectronicValueRW@@UAGJJ@Z 1000ddb4 f   ElectronicValueRWImpl.obj
 0001:0000cdcd       ?put_PaymentMedia@COPOSElectronicValueRW@@UAGJJ@Z 1000ddcd f   ElectronicValueRWImpl.obj
 0001:0000cde6       ?put_Point@COPOSElectronicValueRW@@UAGJTtagCY@@@Z 1000dde6 f   ElectronicValueRWImpl.obj
 0001:0000ce87       ?put_PowerNotify@COPOSElectronicValueRW@@UAGJJ@Z 1000de87 f   ElectronicValueRWImpl.obj
 0001:0000ce9d       ?put_TrainingModeState@COPOSElectronicValueRW@@UAGJJ@Z 1000de9d f   ElectronicValueRWImpl.obj
 0001:0000ceb6       ?put_VoucherID@COPOSElectronicValueRW@@UAGJPA_W@Z 1000deb6 f   ElectronicValueRWImpl.obj
 0001:0000cecf       ?put_VoucherIDList@COPOSElectronicValueRW@@UAGJPA_W@Z 1000decf f   ElectronicValueRWImpl.obj
 0001:0000cee8       ?s_EventWindowProc@COPOSElectronicValueRW@@KGJPAUHWND__@@IIJ@Z 1000dee8 f i ElectronicValueRWImpl.obj
 0001:0000cf3a       ??_U@YAPAXI@Z              1000df3a f   LIBCMT:new_array.obj
 0001:0000cf43       ??3@YAXPAXI@Z              1000df43 f   LIBCMT:delete_scalar_size.obj
 0001:0000cf51       ??_V@YAXPAX@Z              1000df51 f   LIBCMT:delete_array.obj
 0001:0000cf56       ??_V@YAXPAXI@Z             1000df56 f   LIBCMT:delete_array_size.obj
 0001:0000cfa8       ___scrt_acquire_startup_lock 1000dfa8 f   LIBCMT:utility.obj
 0001:0000cfda       ___scrt_dllmain_after_initialize_c 1000dfda f   LIBCMT:utility.obj
 0001:0000d005       ___scrt_dllmain_before_initialize_c 1000e005 f   LIBCMT:utility.obj
 0001:0000d013       ___scrt_dllmain_crt_thread_attach 1000e013 f   LIBCMT:utility.obj
 0001:0000d032       ___scrt_dllmain_crt_thread_detach 1000e032 f   LIBCMT:utility.obj
 0001:0000d03f       ___scrt_dllmain_exception_filter 1000e03f f   LIBCMT:utility.obj
 0001:0000d073       ___scrt_dllmain_uninitialize_c 1000e073 f   LIBCMT:utility.obj
 0001:0000d096       ___scrt_dllmain_uninitialize_critical 1000e096 f   LIBCMT:utility.obj
 0001:0000d0a3       ___scrt_initialize_crt     1000e0a3 f   LIBCMT:utility.obj
 0001:0000d0dc       ___scrt_initialize_onexit_tables 1000e0dc f   LIBCMT:utility.obj
 0001:0000d163       ___scrt_is_nonwritable_in_current_image 1000e163 f   LIBCMT:utility.obj
 0001:0000d1f7       ___scrt_release_startup_lock 1000e1f7 f   LIBCMT:utility.obj
 0001:0000d214       ___scrt_uninitialize_crt   1000e214 f   LIBCMT:utility.obj
 0001:0000d23c       __onexit                   1000e23c f   LIBCMT:utility.obj
 0001:0000d269       _atexit                    1000e269 f   LIBCMT:utility.obj
 0001:0000d27e       ??3@YAXPAX@Z               1000e27e f   LIBCMT:delete_scalar.obj
 0001:0000d348       __Init_thread_footer       1000e348 f   LIBCMT:thread_safe_statics.obj
 0001:0000d392       __Init_thread_header       1000e392 f   LIBCMT:thread_safe_statics.obj
 0001:0000d3e4       __Init_thread_notify       1000e3e4 f   LIBCMT:thread_safe_statics.obj
 0001:0000d41a       __Init_thread_wait         1000e41a f   LIBCMT:thread_safe_statics.obj
 0001:0000d468       ___raise_securityfailure   1000e468 f   LIBCMT:gs_report.obj
 0001:0000d490       ___report_gsfailure        1000e490 f   LIBCMT:gs_report.obj
 0001:0000d589       ___report_rangecheckfailure 1000e589 f   LIBCMT:gs_report.obj
 0001:0000d595       ___report_securityfailure  1000e595 f   LIBCMT:gs_report.obj
 0001:0000d663       ??2@YAPAXIABUnothrow_t@std@@@Z 1000e663 f   LIBCMT:new_scalar_nothrow.obj
 0001:0000d6b3       ??_U@YAPAXIABUnothrow_t@std@@@Z 1000e6b3 f   LIBCMT:new_array_nothrow.obj
 0001:0000d6bc       @__security_check_cookie@4 1000e6bc f   LIBCMT:secchk.obj
 0001:0000d6d0       __SEH_prolog4_GS           1000e6d0 f   LIBCMT:sehprolg4gs.obj
 0001:0000d719       __SEH_epilog4_GS           1000e719 f   LIBCMT:sehprolg4gs.obj
 0001:0000d730       __alloca_probe_16          1000e730 f   LIBCMT:alloca16.obj
 0001:0000d746       __alloca_probe_8           1000e746     LIBCMT:alloca16.obj
 0001:0000d760       __chkstk                   1000e760 f   LIBCMT:chkstk.obj
 0001:0000d760       __alloca_probe             1000e760 f   LIBCMT:chkstk.obj
 0001:0000daa8       __DllMainCRTStartup@12     1000eaa8 f   LIBCMT:dll_dllmain.obj
 0001:0000dacb       ??2@YAPAXI@Z               1000eacb f   LIBCMT:new_scalar.obj
 0001:0000dafb       ___isa_available_init      1000eafb f   LIBCMT:cpu_disp.obj
 0001:0000dc92       ___scrt_is_ucrt_dll_in_use 1000ec92 f   LIBCMT:ucrt_detection.obj
 0001:0000dc9e       ___scrt_fastfail           1000ec9e f   LIBCMT:utility_desktop.obj
 0001:0000ddb8       __crt_debugger_hook        1000edb8 f   LIBCMT:utility_desktop.obj
 0001:0000ddc0       __SEH_prolog4              1000edc0 f   LIBCMT:sehprolg4.obj
 0001:0000de06       __SEH_epilog4              1000ee06 f   LIBCMT:sehprolg4.obj
 0001:0000de1b       @_guard_check_icall_nop@4  1000ee1b f i LIBCMT:guard_support.obj
 0001:0000de69       ___security_init_cookie    1000ee69 f   LIBCMT:gs_support.obj
 0001:0000deb4       ?__scrt_initialize_type_info@@YAXXZ 1000eeb4 f   LIBCMT:tncleanup.obj
 0001:0000dec0       ?__scrt_uninitialize_type_info@@YAXXZ 1000eec0 f   LIBCMT:tncleanup.obj
 0001:0000decc       ___local_stdio_scanf_options 1000eecc f i LIBCMT:default_local_stdio_options.obj
 0001:0000ded2       ___scrt_initialize_default_local_stdio_options 1000eed2 f   LIBCMT:default_local_stdio_options.obj
 0001:0000deef       ___scrt_get_dyn_tls_init_callback 1000eeef f   LIBCMT:dyn_tls_init.obj
 0001:0000def5       __RTC_Initialize           1000eef5 f   LIBCMT:initsect.obj
 0001:0000df21       __RTC_Terminate            1000ef21 f   LIBCMT:initsect.obj
 0001:0000df4d       ??0bad_alloc@std@@QAE@ABV01@@Z 1000ef4d f i LIBCMT:throw_bad_alloc.obj
 0001:0000df68       ??0bad_alloc@std@@QAE@XZ   1000ef68 f i LIBCMT:throw_bad_alloc.obj
 0001:0000df80       ??0bad_array_new_length@std@@QAE@ABV01@@Z 1000ef80 f i LIBCMT:throw_bad_alloc.obj
 0001:0000df9b       ??0bad_array_new_length@std@@QAE@XZ 1000ef9b f i LIBCMT:throw_bad_alloc.obj
 0001:0000dfb3       ??0exception@std@@QAE@ABV01@@Z 1000efb3 f i LIBCMT:throw_bad_alloc.obj
 0001:0000dfdf       ??1bad_array_new_length@std@@UAE@XZ 1000efdf f i LIBCMT:throw_bad_alloc.obj
 0001:0000dfdf       ??1bad_alloc@std@@UAE@XZ   1000efdf f i LIBCMT:throw_bad_alloc.obj
 0001:0000dfdf       ??1bad_exception@std@@UAE@XZ 1000efdf f i libvcruntime:frame.obj
 0001:0000dff0       ??_Gbad_alloc@std@@UAEPAXI@Z 1000eff0 f i LIBCMT:throw_bad_alloc.obj
 0001:0000dff0       ??_Eexception@std@@UAEPAXI@Z 1000eff0 f i LIBCMT:throw_bad_alloc.obj
 0001:0000dff0       ??_Ebad_exception@std@@UAEPAXI@Z 1000eff0 f i libvcruntime:frame.obj
 0001:0000dff0       ??_Gexception@std@@UAEPAXI@Z 1000eff0 f i LIBCMT:throw_bad_alloc.obj
 0001:0000dff0       ??_Ebad_array_new_length@std@@UAEPAXI@Z 1000eff0 f i LIBCMT:throw_bad_alloc.obj
 0001:0000dff0       ??_Gbad_exception@std@@UAEPAXI@Z 1000eff0 f i libvcruntime:frame.obj
 0001:0000dff0       ??_Gbad_array_new_length@std@@UAEPAXI@Z 1000eff0 f i LIBCMT:throw_bad_alloc.obj
 0001:0000dff0       ??_Ebad_alloc@std@@UAEPAXI@Z 1000eff0 f i LIBCMT:throw_bad_alloc.obj
 0001:0000e01d       ?__scrt_throw_std_bad_alloc@@YAXXZ 1000f01d f   LIBCMT:throw_bad_alloc.obj
 0001:0000e03a       ?__scrt_throw_std_bad_array_new_length@@YAXXZ 1000f03a f   LIBCMT:throw_bad_alloc.obj
 0001:0000e057       ?what@exception@std@@UBEPBDXZ 1000f057 f i LIBCMT:throw_bad_alloc.obj
 0001:0000e064       ??_Etype_info@@UAEPAXI@Z   1000f064 f i LIBCMT:std_type_info_static.obj
 0001:0000e064       ??_Gtype_info@@UAEPAXI@Z   1000f064 f i LIBCMT:std_type_info_static.obj
 0001:0000e087       ??0CAtlBaseModule@ATL@@QAE@XZ 1000f087 f   atls:atlbase.obj
 0001:0000e0da       ??0_ATL_BASE_MODULE70@ATL@@QAE@XZ 1000f0da f i atls:atlbase.obj
 0001:0000e0fd       ??1CAtlBaseModule@ATL@@QAE@XZ 1000f0fd f   atls:atlbase.obj
 0001:0000e1ea       ?Init@_stdcallthunk@ATL@@QAEHKPAX@Z 1000f1ea f i atls:atlthunk.obj
 0001:0000e21f       ?__AllocStdCallThunk_cmn@@YAPAXXZ 1000f21f f   atls:atlthunk.obj
 0001:0000e2e5       ?__FreeStdCallThunk_cmn@@YAXPAX@Z 1000f2e5 f   atls:atlthunk.obj
 0001:0000e380       _AtlThunk_AllocateData@0   1000f380 f   atls:atlthunk.obj
 0001:0000e3e5       _AtlThunk_DataToCode@4     1000f3e5 f   atls:atlthunk.obj
 0001:0000e42c       _AtlThunk_FreeData@4       1000f42c f   atls:atlthunk.obj
 0001:0000e482       _AtlThunk_InitData@12      1000f482 f   atls:atlthunk.obj
 0001:0000e4d1       __purecall                 1000f4d1 f   libvcruntime:purevirt.obj
 0001:0000e4ec       _wcsstr                    1000f4ec f   libvcruntime:wcsstr.obj
 0001:0000e7b0       __except_handler4          1000f7b0 f   libvcruntime:chandler4.obj
 0001:0000e90e       _memcmp                    1000f90e f   libvcruntime:memcmp.obj
 0001:0000f8c0       _memcpy                    100108c0 f   libvcruntime:memcpy.obj
 0001:0000fe40       _memset                    10010e40 f   libvcruntime:memset.obj
 0001:0000ff9a       ___vcrt_initialize         10010f9a f   libvcruntime:initialization.obj
 0001:0000ffb9       ___vcrt_thread_attach      10010fb9 f   libvcruntime:initialization.obj
 0001:0000ffc4       ___vcrt_thread_detach      10010fc4 f   libvcruntime:initialization.obj
 0001:0000ffcf       ___vcrt_uninitialize       10010fcf f   libvcruntime:initialization.obj
 0001:0000ffe6       ___vcrt_uninitialize_critical 10010fe6 f   libvcruntime:initialization.obj
 0001:0000ffee       ?GetRangeOfTrysToCheck@__FrameHandler3@@SA?AU?$pair@Viterator@TryBlockMap@__FrameHandler3@@V123@@std@@AAVTryBlockMap@1@HPAXPBU_s_FuncInfo@@H@Z 10010fee f   libvcruntime:trnsctrl.obj
 0001:0001005e       ?_CallCatchBlock2@@YAPAXPAUEHRegistrationNode@@PBU_s_FuncInfo@@PAXHK@Z 1001105e f   libvcruntime:trnsctrl.obj
 0001:000100bc       ?_CallSETranslator@@YAHPAUEHExceptionRecord@@PAUEHRegistrationNode@@PAX2PBU_s_FuncInfo@@H1@Z 100110bc f   libvcruntime:trnsctrl.obj
 0001:000101a2       ?_JumpToContinuation@@YGXPAXPAUEHRegistrationNode@@@Z 100111a2 f   libvcruntime:trnsctrl.obj
 0001:000101d2       ?_UnwindNestedFrames@@YGXPAUEHRegistrationNode@@PAUEHExceptionRecord@@@Z 100111d2 f   libvcruntime:trnsctrl.obj
 0001:00010225       __CatchGuardHandler        10011225 f   libvcruntime:trnsctrl.obj
 0001:00010256       __CreateFrameInfo          10011256 f   libvcruntime:trnsctrl.obj
 0001:0001027a       __FindAndUnlinkFrame       1001127a f   libvcruntime:trnsctrl.obj
 0001:000102c2       __TranslatorGuardHandler   100112c2 f   libvcruntime:trnsctrl.obj
 0001:0001035f       ___CxxFrameHandler3        1001135f f   libvcruntime:trnsctrl.obj
 0001:00010395       ___std_type_info_compare   10011395 f   libvcruntime:std_type_info.obj
 0001:000103d1       ___std_type_info_destroy_list 100113d1 f   libvcruntime:std_type_info.obj
 0001:000103f4       ___std_exception_copy      100113f4 f   libvcruntime:std_exception.obj
 0001:00010457       ___std_exception_destroy   10011457 f   libvcruntime:std_exception.obj
 0001:00010476       __CxxThrowException@8      10011476 f   libvcruntime:throw.obj
 0001:000104f0       _memmove                   100114f0 f   libvcruntime:memmove.obj
 0001:00010a70       __local_unwind4            10011a70 f   libvcruntime:exsup4.obj
 0001:00010b48       __seh_longjmp_unwind4@4    10011b48 f   libvcruntime:exsup4.obj
 0001:00010b70       @_EH4_CallFilterFunc@8     10011b70 f   libvcruntime:exsup4.obj
 0001:00010b88       @_EH4_TransferToHandler@8  10011b88 f   libvcruntime:exsup4.obj
 0001:00010ba4       @_EH4_GlobalUnwind2@8      10011ba4 f   libvcruntime:exsup4.obj
 0001:00010bc0       @_EH4_LocalUnwind@16       10011bc0 f   libvcruntime:exsup4.obj
 0001:00010bd7       ___except_validate_context_record 10011bd7 f   libvcruntime:jbcxrval.obj
 0001:00010c07       ___except_validate_jump_buffer 10011c07 f   libvcruntime:jbcxrval.obj
 0001:00010c34       ___vcrt_freefls@4          10011c34 f   libvcruntime:per_thread_data.obj
 0001:00010c50       ___vcrt_freeptd            10011c50 f   libvcruntime:per_thread_data.obj
 0001:00010c86       ___vcrt_getptd             10011c86 f   libvcruntime:per_thread_data.obj
 0001:00010c94       ___vcrt_getptd_noexit      10011c94 f   libvcruntime:per_thread_data.obj
 0001:00010d26       ___vcrt_initialize_ptd     10011d26 f   libvcruntime:per_thread_data.obj
 0001:00010d59       ___vcrt_uninitialize_ptd   10011d59 f   libvcruntime:per_thread_data.obj
 0001:00010d74       ___vcrt_initialize_locks   10011d74 f   libvcruntime:locks.obj
 0001:00010db0       ___vcrt_uninitialize_locks 10011db0 f   libvcruntime:locks.obj
 0001:0001150b       ??$TypeMatchHelper@V__FrameHandler3@@@@YAHPBU_s_HandlerType@@PBU_s_CatchableType@@PBU_s_ThrowInfo@@@Z 1001250b f i libvcruntime:frame.obj
 0001:00011599       ??$__InternalCxxFrameHandler@V__FrameHandler3@@@@YA?AW4_EXCEPTION_DISPOSITION@@PAUEHExceptionRecord@@PAUEHRegistrationNode@@PAU_CONTEXT@@PAXPBU_s_FuncInfo@@H1E@Z 10012599 f i libvcruntime:frame.obj
 0001:0001169b       ??0bad_exception@std@@QAE@ABV01@@Z 1001269b f i libvcruntime:frame.obj
 0001:000116b6       ??0bad_exception@std@@QAE@XZ 100126b6 f i libvcruntime:frame.obj
 0001:000116ce       ??8type_info@@QBE_NABV0@@Z 100126ce f i libvcruntime:frame.obj
 0001:00011935       ?FrameUnwindToEmptyState@__FrameHandler3@@SAXPAUEHRegistrationNode@@PAXPBU_s_FuncInfo@@@Z 10012935 f   libvcruntime:frame.obj
 0001:0001194d       ?FrameUnwindToState@__FrameHandler3@@SAXPAUEHRegistrationNode@@PAXPBU_s_FuncInfo@@H@Z 1001294d f   libvcruntime:frame.obj
 0001:00011acf       ?_CallMemberFunction1@@YGXQAX00@Z 10012acf f i libvcruntime:frame.obj
 0001:00011adf       ?_CallMemberFunction2@@YGXQAX00H@Z 10012adf f i libvcruntime:frame.obj
 0001:00011af2       ?getESTypes@__FrameHandler3@@SAPBU_s_ESTypeList@@PBU_s_FuncInfo@@@Z 10012af2 f i libvcruntime:frame.obj
 0001:00011b00       __CallSettingFrame@12      10012b00 f   libvcruntime:lowhelpr.obj
 0001:00011b27       __NLG_Return               10012b27     libvcruntime:lowhelpr.obj
 0001:00011b50       __global_unwind2           10012b50 f   libvcruntime:exsup.obj
 0001:00011bb6       __local_unwind2            10012bb6 f   libvcruntime:exsup.obj
 0001:00011c3a       __abnormal_termination     10012c3a f   libvcruntime:exsup.obj
 0001:00011c60       __NLG_Notify1              10012c60 f   libvcruntime:exsup.obj
 0001:00011c6c       __NLG_Notify               10012c6c f   libvcruntime:exsup.obj
 0001:00011c83       __NLG_Dispatch2            10012c83     libvcruntime:exsup.obj
 0001:00011c83       __NLG_Dispatch             10012c83     libvcruntime:exsup.obj
 0001:00011c8b       __NLG_Call                 10012c8b f   libvcruntime:exsup.obj
 0001:00011c8d       __NLG_Return2              10012c8d     libvcruntime:exsup.obj
 0001:00011d83       ___vcrt_FlsAlloc           10012d83 f   libvcruntime:winapi_downlevel.obj
 0001:00011dbe       ___vcrt_FlsFree            10012dbe f   libvcruntime:winapi_downlevel.obj
 0001:00011df9       ___vcrt_FlsGetValue        10012df9 f   libvcruntime:winapi_downlevel.obj
 0001:00011e34       ___vcrt_FlsSetValue        10012e34 f   libvcruntime:winapi_downlevel.obj
 0001:00011e72       ___vcrt_InitializeCriticalSectionEx 10012e72 f   libvcruntime:winapi_downlevel.obj
 0001:00011eb9       _unexpected                10012eb9 f   libvcruntime:unexpected.obj
 0001:00011ed6       ?GetCurrentState@__FrameHandler3@@SAHPAUEHRegistrationNode@@PAXPBU_s_FuncInfo@@@Z 10012ed6 f   libvcruntime:ehstate.obj
 0001:00011ef3       ?SetState@__FrameHandler3@@SAXPAUEHRegistrationNode@@PBU_s_FuncInfo@@H@Z 10012ef3 f   libvcruntime:ehstate.obj
 0001:00011f01       ___DestructExceptionObject 10012f01 f   libvcruntime:ehhelpers.obj
 0001:00011fa1       ?_CallMemberFunction0@@YGXQAX0@Z 10012fa1 f i libvcruntime:ehhelpers.obj
 0001:00011fae       __IsExceptionObjectToBeDestroyed 10012fae f   libvcruntime:ehhelpers.obj
 0001:00011fd4       ___AdjustPointer           10012fd4 f   libvcruntime:ehhelpers.obj
 0001:00011ff9       ___FrameUnwindFilter       10012ff9 f   libvcruntime:ehhelpers.obj
 0001:0001203e       _free                      1001303e f   libucrt:free.obj
 0001:00012059       ___acrt_call_reportfault   10013059 f   libucrt:invalid_parameter.obj
 0001:00012192       ___acrt_initialize_invalid_parameter_handler 10013192 f   libucrt:invalid_parameter.obj
 0001:000121a1       __invalid_parameter        100131a1 f   libucrt:invalid_parameter.obj
 0001:00012205       __invalid_parameter_noinfo 10013205 f   libucrt:invalid_parameter.obj
 0001:00012215       __invoke_watson            10013215 f   libucrt:invalid_parameter.obj
 0001:00012249       ___acrt_errno_from_os_error 10013249 f   libucrt:errno.obj
 0001:0001228c       ___acrt_errno_map_os_error 1001328c f   libucrt:errno.obj
 0001:000122af       ___doserrno                100132af f   libucrt:errno.obj
 0001:000122c2       __errno                    100132c2 f   libucrt:errno.obj
 0001:000122d5       _calloc                    100132d5 f   libucrt:calloc.obj
 0001:000122e0       _malloc                    100132e0 f   libucrt:malloc.obj
 0001:000122eb       __recalloc                 100132eb f   libucrt:recalloc.obj
 0001:000122f6       __recalloc_base            100132f6 f   libucrt:recalloc.obj
 0001:00012363       __resetstkoflw             10013363 f   libucrt:resetstk.obj
 0001:00012428       _wcscat_s                  10013428 f   libucrt:wcscat_s.obj
 0001:0001249d       _wcscpy_s                  1001349d f   libucrt:wcscpy_s.obj
 0001:000125cc       _wcsncpy_s                 100135cc f   libucrt:wcsncpy_s.obj
 0001:000127d8       ??$count@D@formatting_buffer@__crt_stdio_output@@QBEIXZ 100137d8 f i libucrt:output.obj
 0001:000127f0       ??$count@_W@formatting_buffer@__crt_stdio_output@@QBEIXZ 100137f0 f i libucrt:output.obj
 0001:00012809       ??$ensure_buffer_is_big_enough@D@formatting_buffer@__crt_stdio_output@@QAE_NI@Z 10013809 f i libucrt:output.obj
 0001:00012886       ??$ensure_buffer_is_big_enough@_W@formatting_buffer@__crt_stdio_output@@QAE_NI@Z 10013886 f i libucrt:output.obj
 0001:00012904       ??$is_wide_character_specifier@_W@__crt_stdio_output@@YA_N_K_WW4length_modifier@0@@Z 10013904 f i libucrt:output.obj
 0001:00012952       ??$scratch_data@D@formatting_buffer@__crt_stdio_output@@QAEPADXZ 10013952 f i libucrt:output.obj
 0001:00012970       ??$type_case_integer_parse_into_buffer@I@?$output_processor@_WV?$string_output_adapter@_W@__crt_stdio_output@@V?$format_validation_base@_WV?$string_output_adapter@_W@__crt_stdio_output@@@2@@__crt_stdio_output@@AAEXII_N@Z 10013970 f i libucrt:output.obj
 0001:000129f7       ??$type_case_integer_parse_into_buffer@_K@?$output_processor@_WV?$string_output_adapter@_W@__crt_stdio_output@@V?$format_validation_base@_WV?$string_output_adapter@_W@__crt_stdio_output@@@2@@__crt_stdio_output@@AAEX_KI_N@Z 100139f7 f i libucrt:output.obj
 0001:00012a99       ??$write_multiple_characters@V?$string_output_adapter@_W@__crt_stdio_output@@D@__crt_stdio_output@@YAXABV?$string_output_adapter@_W@0@DHQAH@Z 10013a99 f i libucrt:output.obj
 0001:00012aca       ??0?$common_data@_W@__crt_stdio_output@@IAE@XZ 10013aca f i libucrt:output.obj
 0001:00012b14       ??0?$output_adapter_data@_WV?$string_output_adapter@_W@__crt_stdio_output@@@__crt_stdio_output@@IAE@ABV?$string_output_adapter@_W@1@_KQB_WQAU__crt_locale_pointers@@QAD@Z 10013b14 f i libucrt:output.obj
 0001:00012b50       ??0_LocaleUpdate@@QAE@QAU__crt_locale_pointers@@@Z 10013b50 f i libucrt:output.obj
 0001:00012bd3       ??1formatting_buffer@__crt_stdio_output@@QAE@XZ 10013bd3 f i libucrt:output.obj
 0001:00012bed       ??4?$__crt_unique_heap_ptr@DU__crt_internal_free_policy@@@@QAEAAV0@$$QAV0@@Z 10013bed f i libucrt:output.obj
 0001:00012c11       ?crop_zeroes@__crt_stdio_output@@YAXPADQAU__crt_locale_pointers@@@Z 10013c11 f i libucrt:output.obj
 0001:00012c71       ?find_next_state@?$output_processor@_WV?$string_output_adapter@_W@__crt_stdio_output@@V?$format_validation_base@_WV?$string_output_adapter@_W@__crt_stdio_output@@@2@@__crt_stdio_output@@ABE?AW4state@2@_WW432@@Z 10013c71 f i libucrt:output.obj
 0001:00012cb3       ?force_decimal_point@__crt_stdio_output@@YAXPADQAU__crt_locale_pointers@@@Z 10013cb3 f i libucrt:output.obj
 0001:00012d0f       ?parse_int_from_format_string@?$output_processor@_WV?$string_output_adapter@_W@__crt_stdio_output@@V?$format_validation_base@_WV?$string_output_adapter@_W@__crt_stdio_output@@@2@@__crt_stdio_output@@AAE_NQAH@Z 10013d0f f i libucrt:output.obj
 0001:00012d85       ?process@?$output_processor@_WV?$string_output_adapter@_W@__crt_stdio_output@@V?$format_validation_base@_WV?$string_output_adapter@_W@__crt_stdio_output@@@2@@__crt_stdio_output@@QAEHXZ 10013d85 f i libucrt:output.obj
 0001:00012ead       ?state_case_flag@?$output_processor@_WV?$string_output_adapter@_W@__crt_stdio_output@@V?$format_validation_base@_WV?$string_output_adapter@_W@__crt_stdio_output@@@2@@__crt_stdio_output@@AAE_NXZ 10013ead f i libucrt:output.obj
 0001:00012eea       ?state_case_normal@?$output_processor@_WV?$string_output_adapter@_W@__crt_stdio_output@@V?$format_validation_base@_WV?$string_output_adapter@_W@__crt_stdio_output@@@2@@__crt_stdio_output@@AAE_NXZ 10013eea f i libucrt:output.obj
 0001:00012f09       ?state_case_normal_common@?$output_processor@_WV?$string_output_adapter@_W@__crt_stdio_output@@V?$format_validation_base@_WV?$string_output_adapter@_W@__crt_stdio_output@@@2@@__crt_stdio_output@@AAE_NXZ 10013f09 f i libucrt:output.obj
 0001:00012f24       ?state_case_precision@?$output_processor@_WV?$string_output_adapter@_W@__crt_stdio_output@@V?$format_validation_base@_WV?$string_output_adapter@_W@__crt_stdio_output@@@2@@__crt_stdio_output@@AAE_NXZ 10013f24 f i libucrt:output.obj
 0001:00012f4b       ?state_case_size@?$output_processor@_WV?$string_output_adapter@_W@__crt_stdio_output@@V?$format_validation_base@_WV?$string_output_adapter@_W@__crt_stdio_output@@@2@@__crt_stdio_output@@AAE_NXZ 10013f4b f i libucrt:output.obj
 0001:000130c3       ?state_case_type@?$output_processor@_WV?$string_output_adapter@_W@__crt_stdio_output@@V?$format_validation_base@_WV?$string_output_adapter@_W@__crt_stdio_output@@@2@@__crt_stdio_output@@AAE_NXZ 100140c3 f i libucrt:output.obj
 0001:00013328       ?state_case_width@?$output_processor@_WV?$string_output_adapter@_W@__crt_stdio_output@@V?$format_validation_base@_WV?$string_output_adapter@_W@__crt_stdio_output@@@2@@__crt_stdio_output@@AAE_NXZ 10014328 f i libucrt:output.obj
 0001:00013354       ?to_integer_size@__crt_stdio_output@@YAIW4length_modifier@1@@Z 10014354 f i libucrt:output.obj
 0001:000133a8       ?type_case_Z@?$output_processor@_WV?$string_output_adapter@_W@__crt_stdio_output@@V?$format_validation_base@_WV?$string_output_adapter@_W@__crt_stdio_output@@@2@@__crt_stdio_output@@AAE_NXZ 100143a8 f i libucrt:output.obj
 0001:00013402       ?type_case_a@?$output_processor@_WV?$string_output_adapter@_W@__crt_stdio_output@@V?$format_validation_base@_WV?$string_output_adapter@_W@__crt_stdio_output@@@2@@__crt_stdio_output@@AAE_NXZ 10014402 f i libucrt:output.obj
 0001:00013567       ?type_case_c_tchar@?$output_processor@_WV?$string_output_adapter@_W@__crt_stdio_output@@V?$format_validation_base@_WV?$string_output_adapter@_W@__crt_stdio_output@@@2@@__crt_stdio_output@@AAE_N_W@Z 10014567 f i libucrt:output.obj
 0001:000135fd       ?type_case_integer@?$output_processor@_WV?$string_output_adapter@_W@__crt_stdio_output@@V?$format_validation_base@_WV?$string_output_adapter@_W@__crt_stdio_output@@@2@@__crt_stdio_output@@AAE_NI_N@Z 100145fd f i libucrt:output.obj
 0001:00013752       ?type_case_n@?$output_processor@_WV?$string_output_adapter@_W@__crt_stdio_output@@V?$format_validation_base@_WV?$string_output_adapter@_W@__crt_stdio_output@@@2@@__crt_stdio_output@@AAE_NXZ 10014752 f i libucrt:output.obj
 0001:000137c6       ?type_case_o@?$output_processor@_WV?$string_output_adapter@_W@__crt_stdio_output@@V?$format_validation_base@_WV?$string_output_adapter@_W@__crt_stdio_output@@@2@@__crt_stdio_output@@AAE_NXZ 100147c6 f i libucrt:output.obj
 0001:000137e5       ?type_case_p@?$output_processor@_WV?$string_output_adapter@_W@__crt_stdio_output@@V?$format_validation_base@_WV?$string_output_adapter@_W@__crt_stdio_output@@@2@@__crt_stdio_output@@AAE_NXZ 100147e5 f i libucrt:output.obj
 0001:000137fd       ?type_case_s@?$output_processor@_WV?$string_output_adapter@_W@__crt_stdio_output@@V?$format_validation_base@_WV?$string_output_adapter@_W@__crt_stdio_output@@@2@@__crt_stdio_output@@AAE_NXZ 100147fd f i libucrt:output.obj
 0001:00013870       ?type_case_s_compute_narrow_string_length@?$output_processor@_WV?$string_output_adapter@_W@__crt_stdio_output@@V?$format_validation_base@_WV?$string_output_adapter@_W@__crt_stdio_output@@@2@@__crt_stdio_output@@ABEHH_W@Z 10014870 f i libucrt:output.obj
 0001:000138b7       ?validate@?$c_string_character_source@_W@__crt_strtox@@QBE_NXZ 100148b7 f i libucrt:atox.obj
 0001:000138b7       ?validate@?$string_output_adapter@_W@__crt_stdio_output@@QBE_NXZ 100148b7 f i libucrt:output.obj
 0001:000138d2       ?validate_and_update_state_at_end_of_format_string@?$format_validation_base@_WV?$string_output_adapter@_W@__crt_stdio_output@@@__crt_stdio_output@@IBE_NXZ 100148d2 f i libucrt:output.obj
 0001:000138f4       ?write_character@?$string_output_adapter@_W@__crt_stdio_output@@QBE_N_WQAH@Z 100148f4 f i libucrt:output.obj
 0001:00013939       ?write_stored_string_tchar@?$output_processor@_WV?$string_output_adapter@_W@__crt_stdio_output@@V?$format_validation_base@_WV?$string_output_adapter@_W@__crt_stdio_output@@@2@@__crt_stdio_output@@AAE_N_W@Z 10014939 f i libucrt:output.obj
 0001:000139cc       ?write_string@?$string_output_adapter@_W@__crt_stdio_output@@QBEXQB_WHQAHAAV__crt_deferred_errno_cache@@@Z 100149cc f i libucrt:output.obj
 0001:00013a3d       ___acrt_locale_get_ctype_array_value 10014a3d f i libucrt:output.obj
 0001:00013a5f       ___stdio_common_vswprintf_s 10014a5f f   libucrt:output.obj
 0001:00013a83       __seh_filter_dll           10014a83 f   libucrt:exception_filter.obj
 0001:00013aa3       __seh_filter_exe           10014aa3 f   libucrt:exception_filter.obj
 0001:00013e71       ___acrt_initialize_thread_local_exit_callback 10014e71 f   libucrt:exit.obj
 0001:00013e80       __cexit                    10014e80 f   libucrt:exit.obj
 0001:00013e8f       __exit                     10014e8f f   libucrt:exit.obj
 0001:00013ea5       __is_c_termination_complete 10014ea5 f   libucrt:exit.obj
 0001:00014159       ___acrt_allocate_buffer_for_argv 10015159 f   libucrt:argv_parsing.obj
 0001:000141a8       __configure_narrow_argv    100151a8 f   libucrt:argv_parsing.obj
 0001:00014305       ??$uninitialize@A6AXAAPAPA_W@Z@?$dual_state_global@PAPA_W@__crt_state_management@@QAEXA6AXAAPAPA_W@Z@Z 10015305 f i libucrt:environment_initialization.obj
 0001:00014305       ??$uninitialize@A6AXAAPAPAD@Z@?$dual_state_global@PAPAD@__crt_state_management@@QAEXA6AXAAPAPAD@Z@Z 10015305 f i libucrt:environment_initialization.obj
 0001:00014364       ___dcrt_uninitialize_environments_nolock 10015364 f   libucrt:environment_initialization.obj
 0001:0001439b       __initialize_narrow_environment 1001539b f   libucrt:environment_initialization.obj
 0001:00014456       ??$__crt_fast_encode_pointer@PAX@@YAPAXQAX@Z 10015456 f i libucrt:initialization.obj
 0001:00014456       ??$__crt_fast_encode_pointer@PAP6AXXZ@@YAPAP6AXXZQAP6AXXZ@Z 10015456 f i libucrt:onexit.obj
 0001:00014456       ??$__crt_fast_encode_pointer@P6AHXZ@@YAP6AHXZQ6AHXZ@Z 10015456 f i libucrt:onexit.obj
 0001:00014678       __crt_atexit               10015678 f   libucrt:onexit.obj
 0001:0001468e       __execute_onexit_table     1001568e f   libucrt:onexit.obj
 0001:000146bb       __initialize_onexit_table  100156bb f   libucrt:onexit.obj
 0001:000146e4       __register_onexit_function 100156e4 f   libucrt:onexit.obj
 0001:00014717       ___acrt_uninitialize_command_line 10015717 f   libucrt:argv_data.obj
 0001:00014815       ___acrt_initialize         10015815 f   libucrt:initialization.obj
 0001:00014827       ___acrt_thread_attach      10015827 f   libucrt:initialization.obj
 0001:00014832       ___acrt_thread_detach      10015832 f   libucrt:initialization.obj
 0001:0001483a       ___acrt_uninitialize       1001583a f   libucrt:initialization.obj
 0001:0001486a       ___acrt_uninitialize_critical 1001586a f   libucrt:initialization.obj
 0001:0001487c       __initterm                 1001587c f   libucrt:initterm.obj
 0001:000148c1       __initterm_e               100158c1 f   libucrt:initterm.obj
 0001:000148ef       ___acrt_initialize_new_handler 100158ef f   libucrt:new_handler.obj
 0001:000148fe       __callnewh                 100158fe f   libucrt:new_handler.obj
 0001:0001492b       __query_new_handler        1001592b f   libucrt:new_handler.obj
 0001:00014987       _terminate                 10015987 f   libucrt:terminate.obj
 0001:000149c3       _abort                     100159c3 f   libucrt:abort.obj
 0001:00014a07       _strcpy_s                  10015a07 f   libucrt:strcpy_s.obj
 0001:00014a61       ??$is_overflow_condition@K@__crt_strtox@@YA_NIK@Z 10015a61 f i libucrt:atox.obj
 0001:00014a92       ??$parse_integer@KV?$c_string_character_source@_W@__crt_strtox@@@__crt_strtox@@YAKQAU__crt_locale_pointers@@V?$c_string_character_source@_W@0@H_N@Z 10015a92 f i libucrt:atox.obj
 0001:0001509a       ?unget@?$c_string_character_source@_W@__crt_strtox@@QAEX_W@Z 1001609a f i libucrt:atox.obj
 0001:000150d0       _strncmp                   100160d0 f   libucrt:strncmp.obj
 0001:00015148       _wcsncmp                   10016148 f   libucrt:wcsncmp.obj
 0001:00015182       __free_base                10016182 f   libucrt:free_base.obj
 0001:000154fa       ___acrt_freeptd            100164fa f   libucrt:per_thread_data.obj
 0001:00015526       ___acrt_getptd             10016526 f   libucrt:per_thread_data.obj
 0001:000155e3       ___acrt_getptd_head        100165e3 f   libucrt:per_thread_data.obj
 0001:0001567d       ___acrt_getptd_noexit      1001667d f   libucrt:per_thread_data.obj
 0001:00015732       ___acrt_initialize_ptd     10016732 f   libucrt:per_thread_data.obj
 0001:0001575e       ___acrt_uninitialize_ptd   1001675e f   libucrt:per_thread_data.obj
 0001:00015778       __calloc_base              10016778 f   libucrt:calloc_base.obj
 0001:000157d5       __malloc_base              100167d5 f   libucrt:malloc_base.obj
 0001:00015823       __msize_base               10016823 f   libucrt:msize.obj
 0001:00015856       __realloc_base             10016856 f   libucrt:realloc_base.obj
 0001:00015a57       ___acrt_AppPolicyGetProcessTerminationMethodInternal@4 10016a57 f   libucrt:winapi_thunks.obj
 0001:00015a97       ___acrt_AreFileApisANSI@0  10016a97 f   libucrt:winapi_thunks.obj
 0001:00015ab6       ___acrt_FlsAlloc@4         10016ab6 f   libucrt:winapi_thunks.obj
 0001:00015af5       ___acrt_FlsFree@4          10016af5 f   libucrt:winapi_thunks.obj
 0001:00015b34       ___acrt_FlsGetValue@4      10016b34 f   libucrt:winapi_thunks.obj
 0001:00015b73       ___acrt_FlsSetValue@8      10016b73 f   libucrt:winapi_thunks.obj
 0001:00015bb5       ___acrt_InitializeCriticalSectionEx@12 10016bb5 f   libucrt:winapi_thunks.obj
 0001:00015c00       ___acrt_LCMapStringEx@36   10016c00 f   libucrt:winapi_thunks.obj
 0001:00015c5d       ___acrt_LocaleNameToLCID@8 10016c5d f   libucrt:winapi_thunks.obj
 0001:00015c8e       ___acrt_SetThreadStackGuarantee@4 10016c8e f   libucrt:winapi_thunks.obj
 0001:00015cc9       ___acrt_initialize_winapi_thunks 10016cc9 f   libucrt:winapi_thunks.obj
 0001:00015cf4       ___acrt_uninitialize_winapi_thunks 10016cf4 f   libucrt:winapi_thunks.obj
 0001:00015d2a       ??$make_c_string_character_source@_WPAPA_W@__crt_strtox@@YA?AV?$c_string_character_source@_W@0@QB_WQAPA_W@Z 10016d2a f i libucrt:strtox.obj
 0001:00015d45       _wcstol                    10016d45 f   libucrt:strtox.obj
 0001:00015d6f       __mbtowc_l                 10016d6f f   libucrt:mbtowc.obj
 0001:00015eb1       _mbtowc                    10016eb1 f   libucrt:mbtowc.obj
 0001:00015ecb       _wcsnlen                   10016ecb f   libucrt:strnlen.obj
 0001:0001607b       ___acrt_update_locale_info 1001707b f   libucrt:locale_update.obj
 0001:000160a8       ___acrt_update_multibyte_info 100170a8 f   libucrt:locale_update.obj
 0001:000160d5       ?__acrt_fp_classify@@YA?AW4__acrt_fp_class@@ABN@Z 100170d5 f i libucrt:cvt.obj
 0001:00016920       ___acrt_fp_format          10017920 f   libucrt:cvt.obj
 0001:00016a5b       __fileno                   10017a5b f   libucrt:fileno.obj
 0001:00016a82       ___acrt_initialize_stdio   10017a82 f   libucrt:_file.obj
 0001:00016b4a       ___acrt_uninitialize_stdio 10017b4a f   libucrt:_file.obj
 0001:00016b96       __lock_file                10017b96 f   libucrt:_file.obj
 0001:00016baa       __unlock_file              10017baa f   libucrt:_file.obj
 0001:00016bbe       __get_printf_count_output  10017bbe f   libucrt:printf_count_output.obj
 0001:00016c41       ___acrt_set_locale_changed 10017c41 f   libucrt:wsetlocale.obj
 0001:00016c4c       ___acrt_uninitialize_locale 10017c4c f   libucrt:wsetlocale.obj
 0001:00016ddd       ___acrt_initialize_lowio   10017ddd f   libucrt:ioinit.obj
 0001:00016e3d       ___acrt_uninitialize_lowio 10017e3d f   libucrt:ioinit.obj
 0001:00016e69       ___acrt_initialize_locks   10017e69 f   libucrt:locks.obj
 0001:00016eaa       ___acrt_lock               10017eaa f   libucrt:locks.obj
 0001:00016ec1       ___acrt_uninitialize_locks 10017ec1 f   libucrt:locks.obj
 0001:00016ef2       ___acrt_unlock             10017ef2 f   libucrt:locks.obj
 0001:00016f09       ___acrt_get_process_end_policy 10017f09 f   libucrt:win_policies.obj
 0001:000170d3       ??$__acrt_mbs_to_wcs_cp@U__crt_win32_buffer_internal_dynamic_resizing@@@@YAHQBDAAV?$__crt_win32_buffer@_WU__crt_win32_buffer_internal_dynamic_resizing@@@@I@Z 100180d3 f i libucrt:argv_wildcards.obj
 0001:000175e7       ?__acrt_get_utf8_acp_compatibility_codepage@@YAIXZ 100185e7 f i libucrt:argv_wildcards.obj
 0001:00017626       ?_deallocate@?$__crt_win32_buffer@_WU__crt_win32_buffer_internal_dynamic_resizing@@@@AAEXXZ 10018626 f i libucrt:argv_wildcards.obj
 0001:00017626       ?_deallocate@?$__crt_win32_buffer@DU__crt_win32_buffer_internal_dynamic_resizing@@@@AAEXXZ 10018626 f i libucrt:argv_wildcards.obj
 0001:00017640       ?allocate@?$__crt_win32_buffer@DU__crt_win32_buffer_internal_dynamic_resizing@@@@QAEHI@Z 10018640 f i libucrt:argv_wildcards.obj
 0001:0001767c       ?allocate@?$__crt_win32_buffer@_WU__crt_win32_buffer_internal_dynamic_resizing@@@@QAEHI@Z 1001867c f i libucrt:argv_wildcards.obj
 0001:000176bb       ?allocate@__crt_win32_buffer_internal_dynamic_resizing@@SAHQAPAXIABV__crt_win32_buffer_empty_debug_info@@@Z 100186bb f i libucrt:argv_wildcards.obj
 0001:00017761       ___acrt_expand_narrow_argv_wildcards 10018761 f   libucrt:argv_wildcards.obj
 0001:00017833       ?allocate@?$__crt_win32_buffer@DU__crt_win32_buffer_no_resizing@@@@QAEHI@Z 10018833 f i libucrt:getmodulefilenamea.obj
 0001:0001785a       ?set_to_nullptr@?$__crt_win32_buffer@DU__crt_win32_buffer_no_resizing@@@@QAEXXZ 1001885a f i libucrt:getmodulefilenamea.obj
 0001:0001786e       ___acrt_GetModuleFileNameA 1001886e f   libucrt:getmodulefilenamea.obj
 0001:00017e2d       ___acrt_initialize_multibyte 10018e2d f   libucrt:mbctype.obj
 0001:00017e75       ___acrt_update_thread_multibyte_data 10018e75 f   libucrt:mbctype.obj
 0001:00017e88       __setmbcp_nolock           10018e88 f   libucrt:mbctype.obj
 0001:00018153       __ismbblead                10019153 f   libucrt:ismbbyte.obj
 0001:0001816b       ___acrt_initialize_command_line 1001916b f   libucrt:argv_data.obj
 0001:00018184       ___acrt_MultiByteToWideChar 10019184 f   libucrt:multibytetowidechar.obj
 0001:00018200       ___acrt_WideCharToMultiByte 10019200 f   libucrt:widechartomultibyte.obj
 0001:000182e4       ___dcrt_get_narrow_environment_from_os 100192e4 f   libucrt:get_environment_from_os.obj
 0001:00018368       ___acrt_initialize_heap    10019368 f   libucrt:heap_handle.obj
 0001:00018379       ___acrt_uninitialize_heap  10019379 f   libucrt:heap_handle.obj
 0001:00018383       ___acrt_execute_initializers 10019383 f   libucrt:shared_initialization.obj
 0001:000183eb       ___acrt_execute_uninitializers 100193eb f   libucrt:shared_initialization.obj
 0001:000184ea       ___acrt_get_sigabrt_handler 100194ea f   libucrt:signal.obj
 0001:00018511       ___acrt_initialize_signal_handlers 10019511 f   libucrt:signal.obj
 0001:0001852f       ___fpecode                 1001952f f   libucrt:signal.obj
 0001:00018538       _raise                     10019538 f   libucrt:signal.obj
 0001:00018733       ___acrt_has_user_matherr   10019733 f   libucrt:matherr.obj
 0001:0001874b       ___acrt_initialize_user_matherr 1001974b f   libucrt:matherr.obj
 0001:0001875a       ___acrt_invoke_user_matherr 1001975a f   libucrt:matherr.obj
 0001:00018969       ___acrt_stdio_flush_nolock 10019969 f   libucrt:fflush.obj
 0001:000189ce       __fflush_nolock            100199ce f   libucrt:fflush.obj
 0001:00018a16       __flushall                 10019a16 f   libucrt:fflush.obj
 0001:00018a1f       ___pctype_func             10019a1f f   libucrt:ctype.obj
 0001:00018a43       _iswctype                  10019a43 f   libucrt:iswctype.obj
 0001:00018aac       ___acrt_add_locale_ref     10019aac f   libucrt:locale_refcounting.obj
 0001:00018b29       ___acrt_free_locale        10019b29 f   libucrt:locale_refcounting.obj
 0001:00018c71       ___acrt_locale_add_lc_time_reference 10019c71 f   libucrt:locale_refcounting.obj
 0001:00018c9a       ___acrt_locale_free_lc_time_if_unreferenced 10019c9a f   libucrt:locale_refcounting.obj
 0001:00018ccb       ___acrt_locale_release_lc_time_reference 10019ccb f   libucrt:locale_refcounting.obj
 0001:00018cf4       ___acrt_release_locale_ref 10019cf4 f   libucrt:locale_refcounting.obj
 0001:00018d75       ___acrt_update_thread_locale_data 10019d75 f   libucrt:locale_refcounting.obj
 0001:00018df6       __updatetlocinfoEx_nolock  10019df6 f   libucrt:locale_refcounting.obj
 0001:00018e46       __query_new_mode           10019e46 f   libucrt:new_mode.obj
 0001:00018e9d       ___acrt_DownlevelLocaleNameToLCID 10019e9d f   libucrt:lcidtoname_downlevel.obj
 0001:00018ec9       __isleadbyte_l             10019ec9 f i libucrt:_wctype.obj
 0001:00018f2f       ?__mbrtowc_utf8@__crt_mbstring@@YAIPA_WPBDIPAU_Mbstatet@@@Z 10019f2f f   libucrt:mbrtowc.obj
 0001:00018f6f       ?__mbsrtowcs_utf8@__crt_mbstring@@YAIPA_WPAPBDIPAU_Mbstatet@@@Z 10019f6f f   libucrt:mbrtowc.obj
 0001:0001906a       ?return_illegal_sequence@__crt_mbstring@@YAIPAU_Mbstatet@@@Z 1001a06a f i libucrt:c32rtomb.obj
 0001:00019089       ___acrt_fp_strflt_to_string 1001a089 f   libucrt:_fptostr.obj
 0001:00019150       ?divide@__crt_strtox@@YA_KAAUbig_integer@1@ABU21@@Z 1001a150 f i libucrt:cfout.obj
 0001:000195e8       ___acrt_fltout             1001a5e8 f   libucrt:cfout.obj
 0001:0001a932       __fcloseall                1001b932 f   libucrt:closeall.obj
 0001:0001a9dd       ___acrt_stdio_free_buffer_nolock 1001b9dd f   libucrt:_freebuf.obj
 0001:0001aa1d       __isatty                   1001ba1d f   libucrt:isatty.obj
 0001:0001aa73       ___acrt_locale_free_monetary 1001ba73 f   libucrt:initmon.obj
 0001:0001ab71       ___acrt_locale_free_numeric 1001bb71 f   libucrt:initnum.obj
 0001:0001ac12       ___acrt_locale_free_time   1001bc12 f   libucrt:inittime.obj
 0001:0001acf6       ___acrt_GetStringTypeA     1001bcf6 f   libucrt:getstringtypea.obj
 0001:0001adf9       __freea_crt                1001bdf9 f i libucrt:getstringtypea.obj
 0001:0001ae19       ___acrt_lowio_create_handle_array 1001be19 f   libucrt:osfinfo.obj
 0001:0001ae94       ___acrt_lowio_destroy_handle_array 1001be94 f   libucrt:osfinfo.obj
 0001:0001aec9       ___acrt_lowio_ensure_fh_exists 1001bec9 f   libucrt:osfinfo.obj
 0001:0001af67       ___acrt_lowio_lock_fh      1001bf67 f   libucrt:osfinfo.obj
 0001:0001af8a       ___acrt_lowio_unlock_fh    1001bf8a f   libucrt:osfinfo.obj
 0001:0001afad       __free_osfhnd              1001bfad f   libucrt:osfinfo.obj
 0001:0001b03e       __get_osfhandle            1001c03e f   libucrt:osfinfo.obj
 0001:0001b0f0       _qsort                     1001c0f0 f   libucrt:qsort.obj
 0001:0001b5e7       _strncpy_s                 1001c5e7 f   libucrt:strncpy_s.obj
 0001:0001b600       _strpbrk                   1001c600 f   libucrt:strpbrk.obj
 0001:0001b640       __mbsdec                   1001c640 f   libucrt:mbsdec.obj
 0001:0001b657       __mbsdec_l                 1001c657 f   libucrt:mbsdec.obj
 0001:0001b8ce       ___acrt_LCMapStringA       1001c8ce f   libucrt:lcmapstringa.obj
 0001:0001b9c8       __commit                   1001c9c8 f   libucrt:commit.obj
 0001:0001c1be       __write                    1001d1be f   libucrt:write.obj
 0001:0001c2b0       __write_nolock             1001d2b0 f   libucrt:write.obj
 0001:0001c492       ___acrt_GetStringTypeW     1001d492 f   libucrt:getstringtypew.obj
 0001:0001c4ab       ___ascii_wcsnicmp          1001d4ab f   libucrt:wcsnicmp.obj
 0001:0001c4fa       ?__mbrtoc32_utf8@__crt_mbstring@@YAIPA_UPBDIPAU_Mbstatet@@@Z 1001d4fa f   libucrt:mbrtoc32.obj
 0001:0001c6a1       _fegetenv                  1001d6a1 f   libucrt:fegetenv.obj
 0001:0001c6be       _fesetenv                  1001d6be f   libucrt:fesetenv.obj
 0001:0001c709       _feholdexcept              1001d709 f   libucrt:feholdexcept.obj
 0001:0001c760       __CIlog10                  1001d760 f   libucrt:log10_impl.obj
 0001:0001c79b       __CIlog10_default          1001d79b f   libucrt:log10_impl.obj
 0001:0001c7af       __log10_default            1001d7af     libucrt:log10_impl.obj
 0001:0001c870       _ceil                      1001d870 f   libucrt:ceil_pentium4.obj
 0001:0001c8b0       __ceil_pentium4            1001d8b0 f   libucrt:ceil_pentium4.obj
 0001:0001ca09       __lseeki64_nolock          1001da09 f   libucrt:lseek.obj
 0001:0001ca24       __fclose_nolock            1001da24 f   libucrt:fclose.obj
 0001:0001ca9b       _fclose                    1001da9b f   libucrt:fclose.obj
 0001:0001cb1f       __query_app_type           1001db1f f   libucrt:report_runtime_error.obj
 0001:0001cb25       ___strncnt                 1001db25 f   libucrt:strncnt.obj
 0001:0001cb41       __putwch_nolock            1001db41 f   libucrt:putwch.obj
 0001:0001ce80       ___acrt_fenv_get_control   1001de80 f   libucrt:_fenvutils.obj
 0001:0001cf00       ___acrt_fenv_get_status    1001df00 f   libucrt:_fenvutils.obj
 0001:0001cfb8       ___acrt_fenv_set_control   1001dfb8 f   libucrt:_fenvutils.obj
 0001:0001d020       ___acrt_fenv_set_status    1001e020 f   libucrt:_fenvutils.obj
 0001:0001d117       __clearfp                  1001e117 f   libucrt:ieee87.obj
 0001:0001d1f5       ___acrt_initialize_sse2    1001e1f5 f   libucrt:mathfcns.obj
 0001:0001d210       __CIlog10_pentium4         1001e210 f   libucrt:log10_pentium4.obj
 0001:0001d228       __log10_pentium4           1001e228     libucrt:log10_pentium4.obj
 0001:0001d4c0       __fFEXP                    1001e4c0 f   libucrt:87tran.obj
 0001:0001d517       __rtinfpopse               1001e517     libucrt:87tran.obj
 0001:0001d519       __rtinfnpopse              1001e519     libucrt:87tran.obj
 0001:0001d529       __fFLN                     1001e529     libucrt:87tran.obj
 0001:0001d5de       __rtinfpop                 1001e5de     libucrt:87tran.obj
 0001:0001d5e0       __rtinfnpop                1001e5e0     libucrt:87tran.obj
 0001:0001d5f0       __rtforexpinf              1001e5f0 f   libucrt:87tran.obj
 0001:0001d5fd       __ffexpm1                  1001e5fd     libucrt:87tran.obj
 0001:0001d6b0       __trandisp1                1001e6b0 f   libucrt:87disp.obj
 0001:0001d725       __trandisp2                1001e725 f   libucrt:87disp.obj
 0001:0001d7bf       __rttospopde               1001e7bf     libucrt:87disp.obj
 0001:0001d7c4       __rttospop                 1001e7c4     libucrt:87disp.obj
 0001:0001d7d0       __rtnospop                 1001e7d0 f   libucrt:87disp.obj
 0001:0001d7e0       __rttosnpop                1001e7e0 f   libucrt:87disp.obj
 0001:0001d7e1       __rtnospopde               1001e7e1     libucrt:87disp.obj
 0001:0001d7e8       __rtzeropop                1001e7e8     libucrt:87disp.obj
 0001:0001d7ea       __rtzeronpop               1001e7ea     libucrt:87disp.obj
 0001:0001d7f0       __rtzerospop               1001e7f0 f   libucrt:87disp.obj
 0001:0001d7fd       __rtonepop                 1001e7fd     libucrt:87disp.obj
 0001:0001d800       __rtonenpop                1001e800 f   libucrt:87disp.obj
 0001:0001d810       __tosnan1                  1001e810 f   libucrt:87disp.obj
 0001:0001d840       __nosnan2                  1001e840 f   libucrt:87disp.obj
 0001:0001d850       __tosnan2                  1001e850 f   libucrt:87disp.obj
 0001:0001d880       __nan2                     1001e880 f   libucrt:87disp.obj
 0001:0001d8c0       __rtindfpop                1001e8c0 f   libucrt:87disp.obj
 0001:0001d8c2       __rtindfnpop               1001e8c2     libucrt:87disp.obj
 0001:0001d8d3       __rttosnpopde              1001e8d3     libucrt:87disp.obj
 0001:0001d8e0       __rtatan2inf               1001e8e0 f   libucrt:87disp.obj
 0001:0001d8fd       __rtchsifneg               1001e8fd     libucrt:87disp.obj
 0001:0001d910       __twoToTOS                 1001e910 f   libucrt:common.obj
 0001:0001d925       __load_CW                  1001e925 f   libucrt:common.obj
 0001:0001d93c       __convertTOStoQNaN         1001e93c f   libucrt:common.obj
 0001:0001d955       __fload_withFB             1001e955 f   libucrt:common.obj
 0001:0001d998       __checkTOS_withFB          1001e998 f   libucrt:common.obj
 0001:0001d9ae       __fast_exit                1001e9ae f   libucrt:common.obj
 0001:0001d9bb       __math_exit                1001e9bb f   libucrt:common.obj
 0001:0001d9e5       __check_overflow_exit      1001e9e5 f   libucrt:common.obj
 0001:0001d9f9       __check_range_exit         1001e9f9 f   libucrt:common.obj
 0001:0001daa0       __startTwoArgErrorHandling 1001eaa0 f   libucrt:genexcep.obj
 0001:0001dab7       __startOneArgErrorHandling 1001eab7 f   libucrt:genexcep.obj
 0001:0001daf3       ___libm_error_support      1001eaf3 f   libucrt:libm_error.obj
 0001:0001dce7       __ceil_default             1001ece7 f   libucrt:ceil.obj
 0001:0001de28       __close                    1001ee28 f   libucrt:close.obj
 0001:0001deb5       __close_nolock             1001eeb5 f   libucrt:close.obj
 0001:0001df51       ?__acrt_stdio_free_stream@@YAXV__crt_stdio_stream@@@Z 1001ef51 f   libucrt:stream.obj
 0001:0001df90       ___ascii_strnicmp          1001ef90 f   libucrt:_strnicm.obj
 0001:0001e010       ___dcrt_lowio_ensure_console_output_initialized 1001f010 f   libucrt:initcon.obj
 0001:0001e02f       ___dcrt_terminate_console_output 1001f02f f   libucrt:initcon.obj
 0001:0001e046       ___dcrt_write_console      1001f046 f   libucrt:initcon.obj
 0001:0001e09b       __clrfp                    1001f09b f   libucrt:fpctrl.obj
 0001:0001e0ac       __ctrlfp                   1001f0ac f   libucrt:fpctrl.obj
 0001:0001e0d6       __set_statfp               1001f0d6 f   libucrt:fpctrl.obj
 0001:0001e12f       __statfp                   1001f12f f   libucrt:fpctrl.obj
 0001:0001e13f       __d_inttype                1001f13f f   libucrt:powhlp.obj
 0001:0001e1a7       __powhlp                   1001f1a7 f   libucrt:powhlp.obj
 0001:0001e2d2       __87except                 1001f2d2 f   libucrt:87except.obj
 0001:0001e3dc       __frnd                     1001f3dc f   libucrt:frnd.obj
 0001:0001e3f0       __errcode                  1001f3f0 f   libucrt:fpexcept.obj
 0001:0001e424       __except1                  1001f424 f   libucrt:fpexcept.obj
 0001:0001e4f2       __handle_exc               1001f4f2 f   libucrt:fpexcept.obj
 0001:0001e6dd       __raise_exc                1001f6dd f   libucrt:fpexcept.obj
 0001:0001e700       __raise_exc_ex             1001f700 f   libucrt:fpexcept.obj
 0001:0001e9f6       __set_errno_from_matherr   1001f9f6 f   libucrt:fpexcept.obj
 0001:0001ea25       __umatherr                 1001fa25 f   libucrt:fpexcept.obj
 0001:0001eac5       __decomp                   1001fac5 f   libucrt:util.obj
 0001:0001eb97       __set_exp                  1001fb97 f   libucrt:util.obj
 0001:0001ebc4       __sptype                   1001fbc4 f   libucrt:util.obj
 0001:0001ec22       __fpclass                  1001fc22 f   libucrt:ieeemisc.obj
 0001:0001ecc6       _IsProcessorFeaturePresent@4 1001fcc6 f   kernel32:KERNEL32.dll
 0001:0001ecd0       __FindPESection            1001fcd0 f   LIBCMT:pesect.obj
 0001:0001ed20       __IsNonwritableInCurrentImage 1001fd20 f   LIBCMT:pesect.obj
 0001:0001ede0       __ValidateImageBase        1001fde0 f   LIBCMT:pesect.obj
 0001:0001ee13       __EH_prolog3_catch         1001fe13 f   LIBCMT:ehprolg3.obj
 0001:0001ee50       __aulldvrm                 1001fe50 f   LIBCMT:ulldvrm.obj
 0001:0001eef0       __allmul                   1001fef0 f   LIBCMT:llmul.obj
 0001:0001ef30       __alldvrm                  1001ff30 f   LIBCMT:lldvrm.obj
 0001:0001f010       __aullshr                  10020010 f   LIBCMT:ullshr.obj
 0001:0001f030       __allshl                   10020030 f   LIBCMT:llshl.obj
 0001:0001f050       __ftol2_sse                10020050 f   LIBCMT:ftol2.obj
 0001:0001f059       __ftol2_pentium4           10020059 f   LIBCMT:ftol2.obj
 0001:0001f06c       __ftol2_sse_excpt          1002006c f   LIBCMT:ftol2.obj
 0001:0001f090       __ftol2                    10020090 f   LIBCMT:ftol2.obj
 0001:0001f110       _strrchr                   10020110 f   libvcruntime:strrchr.obj
 0001:0001f250       _strchr                    10020250 f   libvcruntime:strchr.obj
 0001:0001f2be       ___from_strstr_to_strchr   100202be     libvcruntime:strchr.obj
 0001:0001f37b       __filter_x86_sse2_floating_point_exception 1002037b f   LIBCMT:x86_exception_filter.obj
 0001:0001f37b       __filter_x86_sse2_floating_point_exception_default 1002037b f   LIBCMT:x86_exception_filter.obj
 0002:00000000       __imp__RegQueryValueExW@24 10021000     advapi32:ADVAPI32.dll
 0002:00000004       __imp__RegSetValueExW@24   10021004     advapi32:ADVAPI32.dll
 0002:00000008       __imp__RegQueryInfoKeyW@48 10021008     advapi32:ADVAPI32.dll
 0002:0000000c       __imp__RegOpenKeyExW@20    1002100c     advapi32:ADVAPI32.dll
 0002:00000010       __imp__RegEnumKeyExW@32    10021010     advapi32:ADVAPI32.dll
 0002:00000014       __imp__RegDeleteValueW@8   10021014     advapi32:ADVAPI32.dll
 0002:00000018       __imp__RegDeleteKeyW@8     10021018     advapi32:ADVAPI32.dll
 0002:0000001c       __imp__RegCreateKeyExW@36  1002101c     advapi32:ADVAPI32.dll
 0002:00000020       __imp__RegCloseKey@4       10021020     advapi32:ADVAPI32.dll
 0002:00000024       \177ADVAPI32_NULL_THUNK_DATA 10021024     advapi32:ADVAPI32.dll
 0002:00000028       __imp__GetObjectW@12       10021028     gdi32:GDI32.dll
 0002:0000002c       __imp__SelectObject@8      1002102c     gdi32:GDI32.dll
 0002:00000030       __imp__DeleteObject@4      10021030     gdi32:GDI32.dll
 0002:00000034       __imp__CreateCompatibleDC@4 10021034     gdi32:GDI32.dll
 0002:00000038       __imp__BitBlt@36           10021038     gdi32:GDI32.dll
 0002:0000003c       __imp__SetWindowOrgEx@16   1002103c     gdi32:GDI32.dll
 0002:00000040       __imp__SetWindowExtEx@16   10021040     gdi32:GDI32.dll
 0002:00000044       __imp__SetViewportOrgEx@16 10021044     gdi32:GDI32.dll
 0002:00000048       __imp__LPtoDP@12           10021048     gdi32:GDI32.dll
 0002:0000004c       __imp__SetMapMode@8        1002104c     gdi32:GDI32.dll
 0002:00000050       __imp__SaveDC@4            10021050     gdi32:GDI32.dll
 0002:00000054       __imp__RestoreDC@8         10021054     gdi32:GDI32.dll
 0002:00000058       __imp__GetDeviceCaps@8     10021058     gdi32:GDI32.dll
 0002:0000005c       __imp__DeleteMetaFile@4    1002105c     gdi32:GDI32.dll
 0002:00000060       __imp__DeleteDC@4          10021060     gdi32:GDI32.dll
 0002:00000064       __imp__CreateRectRgnIndirect@4 10021064     gdi32:GDI32.dll
 0002:00000068       __imp__CreateMetaFileW@4   10021068     gdi32:GDI32.dll
 0002:0000006c       __imp__CreateDCW@16        1002106c     gdi32:GDI32.dll
 0002:00000070       __imp__CloseMetaFile@4     10021070     gdi32:GDI32.dll
 0002:00000074       \177GDI32_NULL_THUNK_DATA  10021074     gdi32:GDI32.dll
 0002:00000078       __imp__CloseHandle@4       10021078     kernel32:KERNEL32.dll
 0002:0000007c       __imp__SetEvent@4          1002107c     kernel32:KERNEL32.dll
 0002:00000080       __imp__CreateMutexW@12     10021080     kernel32:KERNEL32.dll
 0002:00000084       __imp__CreateEventW@16     10021084     kernel32:KERNEL32.dll
 0002:00000088       __imp__GetCurrentProcessId@0 10021088     kernel32:KERNEL32.dll
 0002:0000008c       __imp__CreateFileW@28      1002108c     kernel32:KERNEL32.dll
 0002:00000090       __imp__GetConsoleMode@8    10021090     kernel32:KERNEL32.dll
 0002:00000094       __imp__GetConsoleCP@0      10021094     kernel32:KERNEL32.dll
 0002:00000098       __imp__WriteFile@20        10021098     kernel32:KERNEL32.dll
 0002:0000009c       __imp__FlushFileBuffers@4  1002109c     kernel32:KERNEL32.dll
 0002:000000a0       __imp__SetStdHandle@8      100210a0     kernel32:KERNEL32.dll
 0002:000000a4       __imp__GetStringTypeW@16   100210a4     kernel32:KERNEL32.dll
 0002:000000a8       __imp__SetFilePointerEx@20 100210a8     kernel32:KERNEL32.dll
 0002:000000ac       __imp__FreeEnvironmentStringsW@4 100210ac     kernel32:KERNEL32.dll
 0002:000000b0       __imp__GetEnvironmentStringsW@0 100210b0     kernel32:KERNEL32.dll
 0002:000000b4       __imp__lstrcmpiW@8         100210b4     kernel32:KERNEL32.dll
 0002:000000b8       __imp__GetCommandLineA@0   100210b8     kernel32:KERNEL32.dll
 0002:000000bc       __imp__GetCPInfo@8         100210bc     kernel32:KERNEL32.dll
 0002:000000c0       __imp__GetOEMCP@0          100210c0     kernel32:KERNEL32.dll
 0002:000000c4       __imp__GetACP@0            100210c4     kernel32:KERNEL32.dll
 0002:000000c8       __imp__IsValidCodePage@4   100210c8     kernel32:KERNEL32.dll
 0002:000000cc       __imp__FindNextFileW@8     100210cc     kernel32:KERNEL32.dll
 0002:000000d0       __imp__FindFirstFileExW@24 100210d0     kernel32:KERNEL32.dll
 0002:000000d4       __imp__FindClose@4         100210d4     kernel32:KERNEL32.dll
 0002:000000d8       __imp__GetFileType@4       100210d8     kernel32:KERNEL32.dll
 0002:000000dc       __imp__GetStdHandle@4      100210dc     kernel32:KERNEL32.dll
 0002:000000e0       __imp__LCMapStringW@24     100210e0     kernel32:KERNEL32.dll
 0002:000000e4       __imp__HeapReAlloc@16      100210e4     kernel32:KERNEL32.dll
 0002:000000e8       __imp__HeapSize@12         100210e8     kernel32:KERNEL32.dll
 0002:000000ec       __imp__MulDiv@12           100210ec     kernel32:KERNEL32.dll
 0002:000000f0       __imp__GlobalLock@4        100210f0     kernel32:KERNEL32.dll
 0002:000000f4       __imp__GlobalUnlock@4      100210f4     kernel32:KERNEL32.dll
 0002:000000f8       __imp__GlobalAlloc@8       100210f8     kernel32:KERNEL32.dll
 0002:000000fc       __imp__FindResourceW@12    100210fc     kernel32:KERNEL32.dll
 0002:00000100       __imp__SizeofResource@8    10021100     kernel32:KERNEL32.dll
 0002:00000104       __imp__LoadResource@8      10021104     kernel32:KERNEL32.dll
 0002:00000108       __imp__LoadLibraryExW@12   10021108     kernel32:KERNEL32.dll
 0002:0000010c       __imp__GetProcAddress@8    1002110c     kernel32:KERNEL32.dll
 0002:00000110       __imp__GetModuleHandleW@4  10021110     kernel32:KERNEL32.dll
 0002:00000114       __imp__GetModuleFileNameW@12 10021114     kernel32:KERNEL32.dll
 0002:00000118       __imp__FreeLibrary@4       10021118     kernel32:KERNEL32.dll
 0002:0000011c       __imp__DisableThreadLibraryCalls@4 1002111c     kernel32:KERNEL32.dll
 0002:00000120       __imp__GetCurrentThreadId@0 10021120     kernel32:KERNEL32.dll
 0002:00000124       __imp__Sleep@4             10021124     kernel32:KERNEL32.dll
 0002:00000128       __imp__WaitForSingleObject@8 10021128     kernel32:KERNEL32.dll
 0002:0000012c       __imp__ReleaseMutex@4      1002112c     kernel32:KERNEL32.dll
 0002:00000130       __imp__ResetEvent@4        10021130     kernel32:KERNEL32.dll
 0002:00000134       __imp__EnterCriticalSection@4 10021134     kernel32:KERNEL32.dll
 0002:00000138       __imp__LeaveCriticalSection@4 10021138     kernel32:KERNEL32.dll
 0002:0000013c       __imp__SetLastError@4      1002113c     kernel32:KERNEL32.dll
 0002:00000140       __imp__EncodePointer@4     10021140     kernel32:KERNEL32.dll
 0002:00000144       __imp__DeleteCriticalSection@4 10021144     kernel32:KERNEL32.dll
 0002:00000148       __imp__InitializeCriticalSectionEx@12 10021148     kernel32:KERNEL32.dll
 0002:0000014c       __imp__GetLastError@0      1002114c     kernel32:KERNEL32.dll
 0002:00000150       __imp__RaiseException@16   10021150     kernel32:KERNEL32.dll
 0002:00000154       __imp__DecodePointer@4     10021154     kernel32:KERNEL32.dll
 0002:00000158       __imp__WideCharToMultiByte@32 10021158     kernel32:KERNEL32.dll
 0002:0000015c       __imp__GetCommandLineW@0   1002115c     kernel32:KERNEL32.dll
 0002:00000160       __imp__MultiByteToWideChar@24 10021160     kernel32:KERNEL32.dll
 0002:00000164       __imp__WriteConsoleW@20    10021164     kernel32:KERNEL32.dll
 0002:00000168       __imp__GetModuleHandleExW@12 10021168     kernel32:KERNEL32.dll
 0002:0000016c       __imp__ExitProcess@4       1002116c     kernel32:KERNEL32.dll
 0002:00000170       __imp__VirtualQuery@12     10021170     kernel32:KERNEL32.dll
 0002:00000174       __imp__VirtualProtect@16   10021174     kernel32:KERNEL32.dll
 0002:00000178       __imp__GetSystemInfo@4     10021178     kernel32:KERNEL32.dll
 0002:0000017c       __imp__TlsFree@4           1002117c     kernel32:KERNEL32.dll
 0002:00000180       __imp__TlsSetValue@8       10021180     kernel32:KERNEL32.dll
 0002:00000184       __imp__TlsGetValue@4       10021184     kernel32:KERNEL32.dll
 0002:00000188       __imp__TlsAlloc@0          10021188     kernel32:KERNEL32.dll
 0002:0000018c       __imp__InterlockedFlushSList@4 1002118c     kernel32:KERNEL32.dll
 0002:00000190       __imp__RtlUnwind@16        10021190     kernel32:KERNEL32.dll
 0002:00000194       __imp__LoadLibraryExA@12   10021194     kernel32:KERNEL32.dll
 0002:00000198       __imp__VirtualFree@12      10021198     kernel32:KERNEL32.dll
 0002:0000019c       __imp__VirtualAlloc@16     1002119c     kernel32:KERNEL32.dll
 0002:000001a0       __imp__FlushInstructionCache@12 100211a0     kernel32:KERNEL32.dll
 0002:000001a4       __imp__InterlockedPushEntrySList@8 100211a4     kernel32:KERNEL32.dll
 0002:000001a8       __imp__InterlockedPopEntrySList@4 100211a8     kernel32:KERNEL32.dll
 0002:000001ac       __imp__GetProcessHeap@0    100211ac     kernel32:KERNEL32.dll
 0002:000001b0       __imp__HeapFree@12         100211b0     kernel32:KERNEL32.dll
 0002:000001b4       __imp__HeapAlloc@12        100211b4     kernel32:KERNEL32.dll
 0002:000001b8       __imp__OutputDebugStringW@4 100211b8     kernel32:KERNEL32.dll
 0002:000001bc       __imp__InitializeSListHead@4 100211bc     kernel32:KERNEL32.dll
 0002:000001c0       __imp__GetSystemTimeAsFileTime@4 100211c0     kernel32:KERNEL32.dll
 0002:000001c4       __imp__QueryPerformanceCounter@4 100211c4     kernel32:KERNEL32.dll
 0002:000001c8       __imp__GetStartupInfoW@4   100211c8     kernel32:KERNEL32.dll
 0002:000001cc       __imp__IsDebuggerPresent@0 100211cc     kernel32:KERNEL32.dll
 0002:000001d0       __imp__IsProcessorFeaturePresent@4 100211d0     kernel32:KERNEL32.dll
 0002:000001d4       __imp__TerminateProcess@8  100211d4     kernel32:KERNEL32.dll
 0002:000001d8       __imp__GetCurrentProcess@0 100211d8     kernel32:KERNEL32.dll
 0002:000001dc       __imp__SetUnhandledExceptionFilter@4 100211dc     kernel32:KERNEL32.dll
 0002:000001e0       __imp__UnhandledExceptionFilter@4 100211e0     kernel32:KERNEL32.dll
 0002:000001e4       __imp__InitializeCriticalSectionAndSpinCount@8 100211e4     kernel32:KERNEL32.dll
 0002:000001e8       __imp__WaitForSingleObjectEx@12 100211e8     kernel32:KERNEL32.dll
 0002:000001ec       \177KERNEL32_NULL_THUNK_DATA 100211ec     kernel32:KERNEL32.dll
 0002:000001f0       __imp__OleCreatePropertyFrame@44 100211f0     oleaut32:OLEAUT32.dll
 0002:000001f4       __imp__UnRegisterTypeLib@20 100211f4     oleaut32:OLEAUT32.dll
 0002:000001f8       __imp__RegisterTypeLib@12  100211f8     oleaut32:OLEAUT32.dll
 0002:000001fc       __imp__LoadRegTypeLib@20   100211fc     oleaut32:OLEAUT32.dll
 0002:00000200       __imp__LoadTypeLib@8       10021200     oleaut32:OLEAUT32.dll
 0002:00000204       __imp__VarUI4FromStr@16    10021204     oleaut32:OLEAUT32.dll
 0002:00000208       __imp__VariantInit@4       10021208     oleaut32:OLEAUT32.dll
 0002:0000020c       __imp__SysAllocStringByteLen@8 1002120c     oleaut32:OLEAUT32.dll
 0002:00000210       __imp__SysStringByteLen@4  10021210     oleaut32:OLEAUT32.dll
 0002:00000214       __imp__VariantChangeType@16 10021214     oleaut32:OLEAUT32.dll
 0002:00000218       __imp__VariantClear@4      10021218     oleaut32:OLEAUT32.dll
 0002:0000021c       __imp__SysStringLen@4      1002121c     oleaut32:OLEAUT32.dll
 0002:00000220       __imp__SysFreeString@4     10021220     oleaut32:OLEAUT32.dll
 0002:00000224       __imp__SysAllocStringLen@8 10021224     oleaut32:OLEAUT32.dll
 0002:00000228       __imp__SysAllocString@4    10021228     oleaut32:OLEAUT32.dll
 0002:0000022c       \177OLEAUT32_NULL_THUNK_DATA 1002122c     oleaut32:OLEAUT32.dll
 0002:00000230       __imp__UnregisterClassW@8  10021230     user32:USER32.dll
 0002:00000234       __imp__PostMessageW@16     10021234     user32:USER32.dll
 0002:00000238       __imp__DefWindowProcW@16   10021238     user32:USER32.dll
 0002:0000023c       __imp__CallWindowProcW@20  1002123c     user32:USER32.dll
 0002:00000240       __imp__RegisterClassExW@4  10021240     user32:USER32.dll
 0002:00000244       __imp__GetClassInfoExW@12  10021244     user32:USER32.dll
 0002:00000248       __imp__CreateWindowExW@48  10021248     user32:USER32.dll
 0002:0000024c       __imp__IsWindow@4          1002124c     user32:USER32.dll
 0002:00000250       __imp__IsChild@8           10021250     user32:USER32.dll
 0002:00000254       __imp__DestroyWindow@4     10021254     user32:USER32.dll
 0002:00000258       __imp__ShowWindow@8        10021258     user32:USER32.dll
 0002:0000025c       __imp__SetWindowPos@28     1002125c     user32:USER32.dll
 0002:00000260       __imp__CharNextW@4         10021260     user32:USER32.dll
 0002:00000264       __imp__SetFocus@4          10021264     user32:USER32.dll
 0002:00000268       __imp__LoadBitmapW@8       10021268     user32:USER32.dll
 0002:0000026c       __imp__RegisterClassW@4    1002126c     user32:USER32.dll
 0002:00000270       __imp__PeekMessageW@20     10021270     user32:USER32.dll
 0002:00000274       __imp__LoadCursorW@8       10021274     user32:USER32.dll
 0002:00000278       __imp__GetParent@4         10021278     user32:USER32.dll
 0002:0000027c       __imp__SetWindowLongW@12   1002127c     user32:USER32.dll
 0002:00000280       __imp__GetWindowLongW@8    10021280     user32:USER32.dll
 0002:00000284       __imp__PtInRect@12         10021284     user32:USER32.dll
 0002:00000288       __imp__EqualRect@8         10021288     user32:USER32.dll
 0002:0000028c       __imp__OffsetRect@12       1002128c     user32:USER32.dll
 0002:00000290       __imp__UnionRect@12        10021290     user32:USER32.dll
 0002:00000294       __imp__IntersectRect@12    10021294     user32:USER32.dll
 0002:00000298       __imp__GetClientRect@8     10021298     user32:USER32.dll
 0002:0000029c       __imp__InvalidateRect@12   1002129c     user32:USER32.dll
 0002:000002a0       __imp__SetWindowRgn@12     100212a0     user32:USER32.dll
 0002:000002a4       __imp__EndPaint@8          100212a4     user32:USER32.dll
 0002:000002a8       __imp__BeginPaint@8        100212a8     user32:USER32.dll
 0002:000002ac       __imp__ReleaseDC@8         100212ac     user32:USER32.dll
 0002:000002b0       __imp__GetDC@4             100212b0     user32:USER32.dll
 0002:000002b4       __imp__GetKeyState@4       100212b4     user32:USER32.dll
 0002:000002b8       __imp__GetFocus@0          100212b8     user32:USER32.dll
 0002:000002bc       \177USER32_NULL_THUNK_DATA 100212bc     user32:USER32.dll
 0002:000002c0       __imp__StringFromGUID2@12  100212c0     ole32:ole32.dll
 0002:000002c4       __imp__CoTaskMemAlloc@4    100212c4     ole32:ole32.dll
 0002:000002c8       __imp__CoTaskMemRealloc@8  100212c8     ole32:ole32.dll
 0002:000002cc       __imp__CoTaskMemFree@4     100212cc     ole32:ole32.dll
 0002:000002d0       __imp__ReadClassStm@8      100212d0     ole32:ole32.dll
 0002:000002d4       __imp__WriteClassStm@8     100212d4     ole32:ole32.dll
 0002:000002d8       __imp__CreateDataAdviseHolder@4 100212d8     ole32:ole32.dll
 0002:000002dc       __imp__OleSaveToStream@8   100212dc     ole32:ole32.dll
 0002:000002e0       __imp__CreateOleAdviseHolder@4 100212e0     ole32:ole32.dll
 0002:000002e4       __imp__OleRegGetUserType@12 100212e4     ole32:ole32.dll
 0002:000002e8       __imp__OleRegGetMiscStatus@12 100212e8     ole32:ole32.dll
 0002:000002ec       __imp__OleRegEnumVerbs@8   100212ec     ole32:ole32.dll
 0002:000002f0       __imp__CLSIDFromProgID@8   100212f0     ole32:ole32.dll
 0002:000002f4       __imp__CoCreateInstance@20 100212f4     ole32:ole32.dll
 0002:000002f8       \177ole32_NULL_THUNK_DATA  100212f8     ole32:ole32.dll
 0002:000002fc       ___guard_check_icall_fptr  100212fc     LIBCMT:guard_support.obj
 0002:00000300       ___xc_a                    10021300     LIBCMT:initializers.obj
 0002:00000318       ___xc_z                    10021318     LIBCMT:initializers.obj
 0002:0000031c       ___xi_a                    1002131c     LIBCMT:initializers.obj
 0002:00000324       ___acrt_stdio_initializer  10021324     libucrt:stdio_initializer.obj
 0002:00000328       ___acrt_multibyte_initializer 10021328     libucrt:multibyte_initializer.obj
 0002:0000032c       ___acrt_tran_sse2_initializer 1002132c     libucrt:sse2_initializer.obj
 0002:00000330       ___xi_z                    10021330     LIBCMT:initializers.obj
 0002:00000334       ___xl_a                    10021334     LIBCMT:tlssup.obj
 0002:00000338       ___xl_z                    10021338     LIBCMT:tlssup.obj
 0002:0000033c       ___xp_a                    1002133c     LIBCMT:initializers.obj
 0002:00000340       ___acrt_locale_terminator  10021340     libucrt:locale_initializer.obj
 0002:00000344       ___dcrt_console_output_terminator 10021344     libucrt:console_output_initializer.obj
 0002:00000348       ___acrt_stdio_terminator   10021348     libucrt:stdio_initializer.obj
 0002:0000034c       ___xp_z                    1002134c     LIBCMT:initializers.obj
 0002:00000350       ___xt_a                    10021350     LIBCMT:initializers.obj
 0002:00000354       ___xt_z                    10021354     LIBCMT:initializers.obj
 0002:00000360       ??_C@_13HADIAKP@?$AAS@     10021360     OposVariant.obj
 0002:00000364       ??_C@_13LHMFKAAD@?$AAM@    10021364     OposVariant.obj
 0002:00000368       ??_C@_13MKMNOPIJ@?$AAD@    10021368     OposVariant.obj
 0002:0000036c       ??_C@_13OPKGLAFF@?$AAB@    1002136c     OposVariant.obj
 0002:00000370       ??_C@_17LLMMEOJD@?$AAV?$AAa?$AAl@ 10021370     OposVariant.obj
 0002:00000378       ??_C@_1BI@JFAIJMHL@?$AAF?$AAo?$AAr?$AAc?$AAe?$AAR?$AAe?$AAm?$AAo?$AAv?$AAe@ 10021378     OposVariant.obj
 0002:00000390       ??_C@_1BC@GCKHIPE@?$AAN?$AAo?$AAR?$AAe?$AAm?$AAo?$AAv?$AAe@ 10021390     OposVariant.obj
 0002:000003a4       ??_C@_1O@JDLOHAN@?$AAD?$AAe?$AAl?$AAe?$AAt?$AAe@ 100213a4     OposVariant.obj
 0002:000003b4       ??_C@_11LOCGONAA@@         100213b4     OposVariant.obj
 0002:000003b8       __GUID_cf51ed10_62fe_11cf_bf86_00a0c9034836 100213b8     ElectronicValueRW.obj
 0002:000003c8       __GUID_0000010a_0000_0000_c000_000000000046 100213c8     ElectronicValueRW.obj
 0002:000003d8       __GUID_b196b283_bab4_101a_b69c_00aa00341d07 100213d8     ElectronicValueRW.obj
 0002:000003e8       __GUID_cb5bdc81_93c1_11cf_8f20_00805f2cd064 100213e8     ElectronicValueRW.obj
 0002:000003f8       ?pPropMap@?1??GetPropertyMap@COPOSElectronicValueRW@@SAPBUATL_PROPMAP_ENTRY@ATL@@XZ@4QBU34@B 100213f8     ElectronicValueRW.obj
 0002:00000464       ??_C@_17DGDADEHL@?$AA_?$AAc?$AAx@ 10021464     ElectronicValueRW.obj
 0002:0000046c       ??_C@_17IOIMFDBO@?$AA_?$AAc?$AAy@ 1002146c     ElectronicValueRW.obj
 0002:00000474       __GUID_0000010e_0000_0000_c000_000000000046 10021474     ElectronicValueRW.obj
 0002:00000484       __GUID_b196b288_bab4_101a_b69c_00aa00341d07 10021484     ElectronicValueRW.obj
 0002:00000494       __GUID_b196b286_bab4_101a_b69c_00aa00341d07 10021494     ElectronicValueRW.obj
 0002:000004a4       ??_C@_1CA@BFAKJMNP@?$AAT?$AAr?$AAa?$AAn?$AAs?$AAi?$AAt?$AAi?$AAo?$AAn?$AAE?$AAv?$AAe?$AAn?$AAt@ 100214a4     ElectronicValueRW.obj
 0002:000004c4       ??_C@_1CE@PGFMOFKI@?$AAS?$AAt?$AAa?$AAt?$AAu?$AAs?$AAU?$AAp?$AAd?$AAa?$AAt?$AAe?$AAE?$AAv?$AAe@ 100214c4     ElectronicValueRW.obj
 0002:000004e8       ??_C@_1CI@HLBJDONE@?$AAO?$AAu?$AAt?$AAp?$AAu?$AAt?$AAC?$AAo?$AAm?$AAp?$AAl?$AAe?$AAt?$AAe?$AAE@ 100214e8     ElectronicValueRW.obj
 0002:00000510       ??_C@_1BG@LODEBHDD@?$AAE?$AAr?$AAr?$AAo?$AAr?$AAE?$AAv?$AAe?$AAn?$AAt@ 10021510     ElectronicValueRW.obj
 0002:00000528       ??_C@_1BM@CBGEBBBJ@?$AAD?$AAi?$AAr?$AAe?$AAc?$AAt?$AAI?$AAO?$AAE?$AAv?$AAe?$AAn?$AAt@ 10021528     ElectronicValueRW.obj
 0002:00000544       ??_C@_1BE@IEBMACEM@?$AAD?$AAa?$AAt?$AAa?$AAE?$AAv?$AAe?$AAn?$AAt@ 10021544     ElectronicValueRW.obj
 0002:00000558       __GUID_00000113_0000_0000_c000_000000000046 10021558     ElectronicValueRW.obj
 0002:00000568       ??_C@_1BC@ENICKDH@?$AAC?$AAo?$AAn?$AAt?$AAe?$AAn?$AAt?$AAs@ 10021568     ElectronicValueRW.obj
 0002:0000057c       __GUID_1c2056cc_5ef4_101b_8bc8_00aa003e3b29 1002157c     ElectronicValueRW.obj
 0002:0000058c       ??_7?$CComObject@V?$CComEnum@UIEnumConnectionPoints@@$1?_GUID_b196b285_bab4_101a_b69c_00aa00341d07@@3U__s_GUID@@BPAUIConnectionPoint@@V?$_CopyInterface@UIConnectionPoint@@@ATL@@VCComSingleThreadModel@6@@ATL@@@ATL@@6B@ 1002158c     ElectronicValueRW.obj
 0002:000005ac       __GUID_00000112_0000_0000_c000_000000000046 100215ac     ElectronicValueRW.obj
 0002:000005bc       ??_C@_1BK@BIGILECK@?$AAA?$AAd?$AAv?$AAa?$AAp?$AAi?$AA3?$AA2?$AA?4?$AAd?$AAl?$AAl@ 100215bc     ElectronicValueRW.obj
 0002:000005d8       __GUID_3af24292_0c96_11ce_a0cf_00aa00600ab8 100215d8     ElectronicValueRW.obj
 0002:000005e8       ??_C@_0BI@MNCFCPFK@RegCreateKeyTransactedW@ 100215e8     ElectronicValueRW.obj
 0002:00000600       __GUID_00000127_0000_0000_c000_000000000046 10021600     ElectronicValueRW.obj
 0002:00000610       __GUID_0000010d_0000_0000_c000_000000000046 10021610     ElectronicValueRW.obj
 0002:00000620       __GUID_b196b287_bab4_101a_b69c_00aa00341d07 10021620     ElectronicValueRW.obj
 0002:00000630       __GUID_b196b285_bab4_101a_b69c_00aa00341d07 10021630     ElectronicValueRW.obj
 0002:00000640       __GUID_a6bc3ac0_dbaa_11ce_9de3_00aa004bb851 10021640     ElectronicValueRW.obj
 0002:00000650       __GUID_0000010c_0000_0000_c000_000000000046 10021650     ElectronicValueRW.obj
 0002:00000660       ??_C@_1O@GBFKGNEO@?$AAA?$AAT?$AAL?$AA?3?$AA?$CF?$AAp@ 10021660     ElectronicValueRW.obj
 0002:00000670       __GUID_00000146_0000_0000_c000_000000000046 10021670     ElectronicValueRW.obj
 0002:00000680       ??_C@_1BA@PICGEGJB@?$AAD?$AAI?$AAS?$AAP?$AAL?$AAA?$AAY@ 10021680     ElectronicValueRW.obj
 0002:00000690       ??_7?$CComObjectCached@VCComClassFactory@ATL@@@ATL@@6B@ 10021690     ElectronicValueRW.obj
 0002:000006a8       __GUID_9bfbbc02_eff1_101a_84ed_00aa00341d07 100216a8     ElectronicValueRW.obj
 0002:000006b8       ??_C@_1M@PPPPCDEP@?$AAA?$AAP?$AAP?$AAI?$AAD@ 100216b8     ElectronicValueRW.obj
 0002:000006c4       ??_7CComModule@ATL@@6B@    100216c4     ElectronicValueRW.obj
 0002:000006ec       __GUID_00000000_0000_0000_c000_000000000046 100216ec     ElectronicValueRW.obj
 0002:000006fc       __GUID_00020400_0000_0000_c000_000000000046 100216fc     ElectronicValueRW.obj
 0002:0000070c       ??_7?$CComContainedObject@VCOPOSElectronicValueRW@@@ATL@@6B?$IDispatchImpl@UIOPOSElectronicValueRW@@$1?IID_IOPOSElectronicValueRW@@3U_GUID@@B$1?LIBID_OposElectronicValueRW_CCO@@3U3@B$00$0A@VCComTypeInfoHolder@ATL@@@1@@ 1002170c     ElectronicValueRW.obj
 0002:000009e8       ??_7?$CComContainedObject@VCOPOSElectronicValueRW@@@ATL@@6BCComControlBase@1@@ 100219e8     ElectronicValueRW.obj
 0002:000009fc       ??_7?$CComContainedObject@VCOPOSElectronicValueRW@@@ATL@@6B?$CWindowImpl@VCOPOSElectronicValueRW@@VCWindow@ATL@@V?$CWinTraits@$0FGAAAAAA@$0A@@3@@1@@ 100219fc     ElectronicValueRW.obj
 0002:00000a0c       ??_7?$CComContainedObject@VCOPOSElectronicValueRW@@@ATL@@6B?$IPersistStreamInitImpl@VCOPOSElectronicValueRW@@@1@@ 10021a0c     ElectronicValueRW.obj
 0002:00000a30       ??_7?$CComContainedObject@VCOPOSElectronicValueRW@@@ATL@@6B?$IOleControlImpl@VCOPOSElectronicValueRW@@@1@@ 10021a30     ElectronicValueRW.obj
 0002:00000a4c       ??_7?$CComContainedObject@VCOPOSElectronicValueRW@@@ATL@@6B?$IOleObjectImpl@VCOPOSElectronicValueRW@@@1@@ 10021a4c     ElectronicValueRW.obj
 0002:00000aac       ??_7?$CComContainedObject@VCOPOSElectronicValueRW@@@ATL@@6B?$IOleInPlaceActiveObjectImpl@VCOPOSElectronicValueRW@@@1@@ 10021aac     ElectronicValueRW.obj
 0002:00000ad4       ??_7?$CComContainedObject@VCOPOSElectronicValueRW@@@ATL@@6B?$IViewObjectExImpl@VCOPOSElectronicValueRW@@@1@@ 10021ad4     ElectronicValueRW.obj
 0002:00000b10       ??_7?$CComContainedObject@VCOPOSElectronicValueRW@@@ATL@@6B?$IOleInPlaceObjectWindowlessImpl@VCOPOSElectronicValueRW@@@1@@ 10021b10     ElectronicValueRW.obj
 0002:00000b3c       ??_7?$CComContainedObject@VCOPOSElectronicValueRW@@@ATL@@6B?$IConnectionPointContainerImpl@VCOPOSElectronicValueRW@@@1@@ 10021b3c     ElectronicValueRW.obj
 0002:00000b50       ??_7?$CComContainedObject@VCOPOSElectronicValueRW@@@ATL@@6B?$IPersistStorageImpl@VCOPOSElectronicValueRW@@@1@@ 10021b50     ElectronicValueRW.obj
 0002:00000b78       ??_7?$CComContainedObject@VCOPOSElectronicValueRW@@@ATL@@6B?$ISpecifyPropertyPagesImpl@VCOPOSElectronicValueRW@@@1@@ 10021b78     ElectronicValueRW.obj
 0002:00000b88       ??_7?$CComContainedObject@VCOPOSElectronicValueRW@@@ATL@@6B?$IQuickActivateImpl@VCOPOSElectronicValueRW@@@1@@ 10021b88     ElectronicValueRW.obj
 0002:00000ba0       ??_7?$CComContainedObject@VCOPOSElectronicValueRW@@@ATL@@6B?$IDataObjectImpl@VCOPOSElectronicValueRW@@@1@@ 10021ba0     ElectronicValueRW.obj
 0002:00000bd0       ??_7?$CComContainedObject@VCOPOSElectronicValueRW@@@ATL@@6B?$IProvideClassInfo2Impl@$1?CLSID_OPOSElectronicValueRW@@3U_GUID@@B$1?DIID__IOPOSElectronicValueRWEvents@@3U2@B$1?LIBID_OposElectronicValueRW_CCO@@3U2@B$00$0A@VCComTypeInfoHolder@ATL@@@1@@ 10021bd0     ElectronicValueRW.obj
 0002:00000be4       ??_7?$CComContainedObject@VCOPOSElectronicValueRW@@@ATL@@6B?$IObjectSafetyImpl@VCOPOSElectronicValueRW@@$02@1@@ 10021be4     ElectronicValueRW.obj
 0002:00000bfc       ??_7?$CComContainedObject@VCOPOSElectronicValueRW@@@ATL@@6B?$IPropertyNotifySinkCP@VCOPOSElectronicValueRW@@VCComDynamicUnkArray@ATL@@@1@@ 10021bfc     ElectronicValueRW.obj
 0002:00000c1c       ??_7?$CComContainedObject@VCOPOSElectronicValueRW@@@ATL@@6B?$CProxy_IOPOSEvents@VCOPOSElectronicValueRW@@@@@ 10021c1c     ElectronicValueRW.obj
 0002:00000c3c       ??_7?$CComAggObject@VCOPOSElectronicValueRW@@@ATL@@6B@ 10021c3c     ElectronicValueRW.obj
 0002:00000c4c       ??_7?$CComObject@VCOPOSElectronicValueRW@@@ATL@@6B?$IDispatchImpl@UIOPOSElectronicValueRW@@$1?IID_IOPOSElectronicValueRW@@3U_GUID@@B$1?LIBID_OposElectronicValueRW_CCO@@3U3@B$00$0A@VCComTypeInfoHolder@ATL@@@1@@ 10021c4c     ElectronicValueRW.obj
 0002:00000f28       ??_7?$CComObject@VCOPOSElectronicValueRW@@@ATL@@6BCComControlBase@1@@ 10021f28     ElectronicValueRW.obj
 0002:00000f3c       ??_7?$CComObject@VCOPOSElectronicValueRW@@@ATL@@6B?$CWindowImpl@VCOPOSElectronicValueRW@@VCWindow@ATL@@V?$CWinTraits@$0FGAAAAAA@$0A@@3@@1@@ 10021f3c     ElectronicValueRW.obj
 0002:00000f4c       ??_7?$CComObject@VCOPOSElectronicValueRW@@@ATL@@6B?$IPersistStreamInitImpl@VCOPOSElectronicValueRW@@@1@@ 10021f4c     ElectronicValueRW.obj
 0002:00000f70       ??_7?$CComObject@VCOPOSElectronicValueRW@@@ATL@@6B?$IOleControlImpl@VCOPOSElectronicValueRW@@@1@@ 10021f70     ElectronicValueRW.obj
 0002:00000f8c       ??_7?$CComObject@VCOPOSElectronicValueRW@@@ATL@@6B?$IOleObjectImpl@VCOPOSElectronicValueRW@@@1@@ 10021f8c     ElectronicValueRW.obj
 0002:00000fec       ??_7?$CComObject@VCOPOSElectronicValueRW@@@ATL@@6B?$IOleInPlaceActiveObjectImpl@VCOPOSElectronicValueRW@@@1@@ 10021fec     ElectronicValueRW.obj
 0002:00001014       ??_7?$CComObject@VCOPOSElectronicValueRW@@@ATL@@6B?$IViewObjectExImpl@VCOPOSElectronicValueRW@@@1@@ 10022014     ElectronicValueRW.obj
 0002:00001050       ??_7?$CComObject@VCOPOSElectronicValueRW@@@ATL@@6B?$IOleInPlaceObjectWindowlessImpl@VCOPOSElectronicValueRW@@@1@@ 10022050     ElectronicValueRW.obj
 0002:0000107c       ??_7?$CComObject@VCOPOSElectronicValueRW@@@ATL@@6B?$IConnectionPointContainerImpl@VCOPOSElectronicValueRW@@@1@@ 1002207c     ElectronicValueRW.obj
 0002:00001090       ??_7?$CComObject@VCOPOSElectronicValueRW@@@ATL@@6B?$IPersistStorageImpl@VCOPOSElectronicValueRW@@@1@@ 10022090     ElectronicValueRW.obj
 0002:000010b8       ??_7?$CComObject@VCOPOSElectronicValueRW@@@ATL@@6B?$ISpecifyPropertyPagesImpl@VCOPOSElectronicValueRW@@@1@@ 100220b8     ElectronicValueRW.obj
 0002:000010c8       ??_7?$CComObject@VCOPOSElectronicValueRW@@@ATL@@6B?$IQuickActivateImpl@VCOPOSElectronicValueRW@@@1@@ 100220c8     ElectronicValueRW.obj
 0002:000010e0       ??_7?$CComObject@VCOPOSElectronicValueRW@@@ATL@@6B?$IDataObjectImpl@VCOPOSElectronicValueRW@@@1@@ 100220e0     ElectronicValueRW.obj
 0002:00001110       ??_7?$CComObject@VCOPOSElectronicValueRW@@@ATL@@6B?$IProvideClassInfo2Impl@$1?CLSID_OPOSElectronicValueRW@@3U_GUID@@B$1?DIID__IOPOSElectronicValueRWEvents@@3U2@B$1?LIBID_OposElectronicValueRW_CCO@@3U2@B$00$0A@VCComTypeInfoHolder@ATL@@@1@@ 10022110     ElectronicValueRW.obj
 0002:00001124       ??_7?$CComObject@VCOPOSElectronicValueRW@@@ATL@@6B?$IObjectSafetyImpl@VCOPOSElectronicValueRW@@$02@1@@ 10022124     ElectronicValueRW.obj
 0002:0000113c       ??_7?$CComObject@VCOPOSElectronicValueRW@@@ATL@@6B?$IPropertyNotifySinkCP@VCOPOSElectronicValueRW@@VCComDynamicUnkArray@ATL@@@1@@ 1002213c     ElectronicValueRW.obj
 0002:0000115c       ??_7?$CComObject@VCOPOSElectronicValueRW@@@ATL@@6B?$CProxy_IOPOSEvents@VCOPOSElectronicValueRW@@@@@ 1002215c     ElectronicValueRW.obj
 0002:0000117c       ??_C@_1M@KANJNLFF@?$AAC?$AAL?$AAS?$AAI?$AAD@ 1002217c     ElectronicValueRW.obj
 0002:00001188       ??_C@_1M@EJNEECMJ@?$AAA?$AAp?$AAp?$AAI?$AAD@ 10022188     ElectronicValueRW.obj
 0002:00001194       __GUID_55980ba0_35aa_11cf_b671_00aa004cd6d8 10022194     ElectronicValueRW.obj
 0002:000011a4       __GUID_b196b28b_bab4_101a_b69c_00aa00341d07 100221a4     ElectronicValueRW.obj
 0002:000011b4       ?rgszNeverDelete@CRegParser@ATL@@1QBQB_WB 100221b4     ElectronicValueRW.obj
 0002:000011e4       ?_entries@?1??_GetEntries@?$CComEnum@UIEnumConnectionPoints@@$1?_GUID_b196b285_bab4_101a_b69c_00aa00341d07@@3U__s_GUID@@BPAUIConnectionPoint@@V?$_CopyInterface@UIConnectionPoint@@@ATL@@VCComSingleThreadModel@6@@ATL@@SGPBU_ATL_INTMAP_ENTRY@3@XZ@4QBU43@B 100221e4     ElectronicValueRW.obj
 0002:000011fc       ??_7CRegObject@ATL@@6B@    100221fc     ElectronicValueRW.obj
 0002:00001214       __GUID_00020412_0000_0000_c000_000000000046 10022214     ElectronicValueRW.obj
 0002:00001224       __GUID_00020401_0000_0000_c000_000000000046 10022224     ElectronicValueRW.obj
 0002:00001234       ??_C@_1CK@OEKPKBNA@?$AAC?$AAo?$AAm?$AAp?$AAo?$AAn?$AAe?$AAn?$AAt?$AA?5?$AAC?$AAa?$AAt?$AAe?$AAg@ 10022234     ElectronicValueRW.obj
 0002:00001260       ??_C@_1BC@NKMMNMGL@?$AAF?$AAi?$AAl?$AAe?$AAT?$AAy?$AAp?$AAe@ 10022260     ElectronicValueRW.obj
 0002:00001274       ??_C@_1BE@EKPAFMCP@?$AAI?$AAn?$AAt?$AAe?$AAr?$AAf?$AAa?$AAc?$AAe@ 10022274     ElectronicValueRW.obj
 0002:00001288       ??_C@_1BC@MAICEHGI@?$AAH?$AAa?$AAr?$AAd?$AAw?$AAa?$AAr?$AAe@ 10022288     ElectronicValueRW.obj
 0002:0000129c       ??_C@_19HLLLM@?$AAM?$AAi?$AAm?$AAe@ 1002229c     ElectronicValueRW.obj
 0002:000012a8       ??_C@_17OMAOINJK@?$AAS?$AAA?$AAM@ 100222a8     ElectronicValueRW.obj
 0002:000012b0       ??_C@_1BC@IBECJAAI@?$AAS?$AAE?$AAC?$AAU?$AAR?$AAI?$AAT?$AAY@ 100222b0     ElectronicValueRW.obj
 0002:000012c4       ??_C@_1O@GBFINDKL@?$AAS?$AAY?$AAS?$AAT?$AAE?$AAM@ 100222c4     ElectronicValueRW.obj
 0002:000012d4       ??_C@_1BC@EAHCMADO@?$AAS?$AAo?$AAf?$AAt?$AAw?$AAa?$AAr?$AAe@ 100222d4     ElectronicValueRW.obj
 0002:000012e8       ??_C@_1BA@JIHHIEDE@?$AAT?$AAy?$AAp?$AAe?$AAL?$AAi?$AAb@ 100222e8     ElectronicValueRW.obj
 0002:000012f8       ?map@?1??HKeyFromString@CRegParser@ATL@@KAPAUHKEY__@@PA_W@Z@4QBUkeymap@?1??123@KAPAU4@0@Z@B 100222f8     ElectronicValueRW.obj
 0002:00001368       ??_C@_19NCHLBIN@?$AAH?$AAK?$AAC?$AAR@ 10022368     ElectronicValueRW.obj
 0002:00001374       ??_C@_19JAPAIJDE@?$AAH?$AAK?$AAC?$AAU@ 10022374     ElectronicValueRW.obj
 0002:00001380       ??_C@_19PEALEEJB@?$AAH?$AAK?$AAL?$AAM@ 10022380     ElectronicValueRW.obj
 0002:0000138c       ??_C@_17PJOJPMPB@?$AAH?$AAK?$AAU@ 1002238c     ElectronicValueRW.obj
 0002:00001394       ??_C@_19PNBHMJPL@?$AAH?$AAK?$AAP?$AAD@ 10022394     ElectronicValueRW.obj
 0002:000013a0       ??_C@_19GFFAIJHG@?$AAH?$AAK?$AAD?$AAD@ 100223a0     ElectronicValueRW.obj
 0002:000013ac       ??_C@_19OFICIBHH@?$AAH?$AAK?$AAC?$AAC@ 100223ac     ElectronicValueRW.obj
 0002:000013b8       ??_C@_1CE@PACHPJFI@?$AAH?$AAK?$AAE?$AAY?$AA_?$AAC?$AAL?$AAA?$AAS?$AAS?$AAE?$AAS?$AA_?$AAR?$AAO@ 100223b8     ElectronicValueRW.obj
 0002:000013dc       ??_C@_1CE@HLHNCBPM@?$AAH?$AAK?$AAE?$AAY?$AA_?$AAC?$AAU?$AAR?$AAR?$AAE?$AAN?$AAT?$AA_?$AAU?$AAS@ 100223dc     ElectronicValueRW.obj
 0002:00001400       ??_C@_1CG@GFBEANJL@?$AAH?$AAK?$AAE?$AAY?$AA_?$AAL?$AAO?$AAC?$AAA?$AAL?$AA_?$AAM?$AAA?$AAC?$AAH@ 10022400     ElectronicValueRW.obj
 0002:00001428       ??_C@_1BG@BGODANIO@?$AAH?$AAK?$AAE?$AAY?$AA_?$AAU?$AAS?$AAE?$AAR?$AAS@ 10022428     ElectronicValueRW.obj
 0002:00001440       ??_C@_1CM@KHNNAOIC@?$AAH?$AAK?$AAE?$AAY?$AA_?$AAP?$AAE?$AAR?$AAF?$AAO?$AAR?$AAM?$AAA?$AAN?$AAC@ 10022440     ElectronicValueRW.obj
 0002:0000146c       ??_C@_1BM@HAGMMHIA@?$AAH?$AAK?$AAE?$AAY?$AA_?$AAD?$AAY?$AAN?$AA_?$AAD?$AAA?$AAT?$AAA@ 1002246c     ElectronicValueRW.obj
 0002:00001488       ??_C@_1CI@BBJOACGG@?$AAH?$AAK?$AAE?$AAY?$AA_?$AAC?$AAU?$AAR?$AAR?$AAE?$AAN?$AAT?$AA_?$AAC?$AAO@ 10022488     ElectronicValueRW.obj
 0002:000014b0       __GUID_00000109_0000_0000_c000_000000000046 100224b0     ElectronicValueRW.obj
 0002:000014c0       __GUID_7fd52380_4e07_101b_ae2d_08002b2ec713 100224c0     ElectronicValueRW.obj
 0002:000014d0       ??_C@_1EA@NHKLICFA@?$AAH?$AAK?$AAC?$AAU?$AA?$AN?$AA?6?$AA?$HL?$AA?7?$AAS?$AAo?$AAf?$AAt?$AAw?$AAa?$AAr@ 100224d0     ElectronicValueRW.obj
 0002:00001510       ??_C@_1BE@LJOLIMEM@?$AA?$AN?$AA?6?$AA?7?$AA?$HN?$AA?$AN?$AA?6?$AA?$HN?$AA?$AN?$AA?6@ 10022510     ElectronicValueRW.obj
 0002:00001524       ??_7?$CComObject@V?$CComEnum@UIEnumConnections@@$1?_GUID_b196b287_bab4_101a_b69c_00aa00341d07@@3U__s_GUID@@BUtagCONNECTDATA@@V?$_Copy@UtagCONNECTDATA@@@ATL@@VCComSingleThreadModel@6@@ATL@@@ATL@@6B@ 10022524     ElectronicValueRW.obj
 0002:00001544       ??_C@_1O@MNLDABAF@?$AAM?$AAo?$AAd?$AAu?$AAl?$AAe@ 10022544     ElectronicValueRW.obj
 0002:00001554       ??_C@_1BG@JBACFMF@?$AAM?$AAo?$AAd?$AAu?$AAl?$AAe?$AA_?$AAR?$AAa?$AAw@ 10022554     ElectronicValueRW.obj
 0002:0000156c       ??_C@_1BC@KAILKFFG@?$AAR?$AAE?$AAG?$AAI?$AAS?$AAT?$AAR?$AAY@ 1002256c     ElectronicValueRW.obj
 0002:00001580       ?_entries@?1??_GetEntries@?$CComEnum@UIEnumConnections@@$1?_GUID_b196b287_bab4_101a_b69c_00aa00341d07@@3U__s_GUID@@BUtagCONNECTDATA@@V?$_Copy@UtagCONNECTDATA@@@ATL@@VCComSingleThreadModel@6@@ATL@@SGPBU_ATL_INTMAP_ENTRY@3@XZ@4QBU43@B 10022580     ElectronicValueRW.obj
 0002:00001598       _IID_IOPOSElectronicValueRW_1_12 10022598     ElectronicValueRW.obj
 0002:000015a8       _IID_IOPOSElectronicValueRW_1_12_zz 100225a8     ElectronicValueRW.obj
 0002:000015b8       _IID_IOPOSElectronicValueRW_1_14 100225b8     ElectronicValueRW.obj
 0002:000015c8       __GUID_00000114_0000_0000_c000_000000000046 100225c8     ElectronicValueRW.obj
 0002:000015d8       _IID_IOPOSElectronicValueRW_1_14_zz 100225d8     ElectronicValueRW.obj
 0002:000015e8       _IID_IOPOSElectronicValueRW_1_14_100 100225e8     ElectronicValueRW.obj
 0002:000015f8       __GUID_b196b284_bab4_101a_b69c_00aa00341d07 100225f8     ElectronicValueRW.obj
 0002:00001608       _IID_IOPOSElectronicValueRW_1_14_100_zz 10022608     ElectronicValueRW.obj
 0002:00001618       _IID_IOPOSElectronicValueRW_1_15 10022618     ElectronicValueRW.obj
 0002:00001628       _IID_IOPOSElectronicValueRW 10022628     ElectronicValueRW.obj
 0002:00001638       _LIBID_OposElectronicValueRW_CCO 10022638     ElectronicValueRW.obj
 0002:00001648       _DIID__IOPOSElectronicValueRWEvents 10022648     ElectronicValueRW.obj
 0002:00001658       _CLSID_OPOSElectronicValueRW 10022658     ElectronicValueRW.obj
 0002:00001668       __GUID_922eada0_3424_11cf_b670_00aa004cd6d8 10022668     ElectronicValueRW.obj
 0002:00001678       __GUID_9c2cad80_3424_11cf_b670_00aa004cd6d8 10022678     ElectronicValueRW.obj
 0002:00001688       __GUID_00000119_0000_0000_c000_000000000046 10022688     ElectronicValueRW.obj
 0002:00001698       __GUID_b196b289_bab4_101a_b69c_00aa00341d07 10022698     ElectronicValueRW.obj
 0002:000016a8       __GUID_00000117_0000_0000_c000_000000000046 100226a8     ElectronicValueRW.obj
 0002:000016b8       ??_7CComClassFactory@ATL@@6B@ 100226b8     ElectronicValueRW.obj
 0002:000016d0       ?_entries@?1??_GetEntries@CComClassFactory@ATL@@SGPBU_ATL_INTMAP_ENTRY@3@XZ@4QBU43@B 100226d0     ElectronicValueRW.obj
 0002:000016e8       __GUID_00000001_0000_0000_c000_000000000046 100226e8     ElectronicValueRW.obj
 0002:000016f8       ?_entries@?1??_GetEntries@COPOSElectronicValueRW@@SGPBU_ATL_INTMAP_ENTRY@ATL@@XZ@4QBU34@B 100226f8     ElectronicValueRW.obj
 0002:00001860       ??_C@_0BG@EKFFMJIO@RegOpenKeyTransactedW@ 10022860     ElectronicValueRW.obj
 0002:00001878       ??_C@_0BI@HAKLOOGP@RegDeleteKeyTransactedW@ 10022878     ElectronicValueRW.obj
 0002:00001890       ??_C@_0BA@LILAPHGE@RegDeleteKeyExW@ 10022890     ElectronicValueRW.obj
 0002:000018a0       ??_C@_19ILOCMLCJ@?$AA?4?$AAt?$AAl?$AAb@ 100228a0     ElectronicValueRW.obj
 0002:000018ac       __GUID_0002e012_0000_0000_c000_000000000046 100228ac     ElectronicValueRW.obj
 0002:000018bc       ??_C@_1O@FHBGLCIO@?$AAC?$AAL?$AAS?$AAI?$AAD?$AA?2@ 100228bc     ElectronicValueRW.obj
 0002:000018cc       ??_C@_1CK@IFBKBFAA@?$AA?2?$AAR?$AAe?$AAq?$AAu?$AAi?$AAr?$AAe?$AAd?$AA?5?$AAC?$AAa?$AAt?$AAe?$AAg@ 100228cc     ElectronicValueRW.obj
 0002:000018f8       ??_C@_1DA@BIHALFED@?$AA?2?$AAI?$AAm?$AAp?$AAl?$AAe?$AAm?$AAe?$AAn?$AAt?$AAe?$AAd?$AA?5?$AAC?$AAa@ 100228f8     ElectronicValueRW.obj
 0002:00001928       ??_C@_1BK@EDKOLFBJ@?$AAO?$AAL?$AAE?$AAA?$AAU?$AAT?$AA3?$AA2?$AA?4?$AAD?$AAL?$AAL@ 10022928     ElectronicValueRW.obj
 0002:00001944       ??_C@_0BJ@CNLFOMHB@UnRegisterTypeLibForUser@ 10022944     ElectronicValueRW.obj
 0002:00001960       ??_C@_0BH@LBOMMKPJ@RegisterTypeLibForUser@ 10022960     ElectronicValueRW.obj
 0002:00001978       ??_C@_0P@MMNMMLGK@COFreezeEvents@ 10022978     ElectronicValueRWImpl.obj
 0002:00001988       ??_C@_0BC@OGCGGIMP@GetPropertyNumber@ 10022988     ElectronicValueRWImpl.obj
 0002:0000199c       ??_C@_0BC@MDCNODNB@SetPropertyNumber@ 1002299c     ElectronicValueRWImpl.obj
 0002:000019b0       ??_C@_0BC@CFCCMIMD@GetPropertyString@ 100229b0     ElectronicValueRWImpl.obj
 0002:000019c4       ??_C@_0BC@CJEDNN@SetPropertyString@ 100229c4     ElectronicValueRWImpl.obj
 0002:000019d8       ??_C@_0M@LNPKKKDA@OpenService@ 100229d8     ElectronicValueRWImpl.obj
 0002:000019e4       ??_C@_0M@PCMCHHMH@CheckHealth@ 100229e4     ElectronicValueRWImpl.obj
 0002:000019f0       ??_C@_0M@JGMIDNEK@ClaimDevice@ 100229f0     ElectronicValueRWImpl.obj
 0002:000019fc       ??_C@_0L@BNEIFEJC@ClearInput@ 100229fc     ElectronicValueRWImpl.obj
 0002:00001a08       ??_C@_0M@JMBCPNGJ@ClearOutput@ 10022a08     ElectronicValueRWImpl.obj
 0002:00001a14       ??_C@_0N@DDFIIBMP@CloseService@ 10022a14     ElectronicValueRWImpl.obj
 0002:00001a24       ??_C@_08EEIHICPC@DirectIO@ 10022a24     ElectronicValueRWImpl.obj
 0002:00001a30       ??_C@_0O@BCPMENMJ@ReleaseDevice@ 10022a30     ElectronicValueRWImpl.obj
 0002:00001a40       ??_C@_0BA@GFABKEEE@ResetStatistics@ 10022a40     ElectronicValueRWImpl.obj
 0002:00001a50       ??_C@_0BD@DPALHJGC@RetrieveStatistics@ 10022a50     ElectronicValueRWImpl.obj
 0002:00001a64       ??_C@_0BB@KOHIKNFC@UpdateStatistics@ 10022a64     ElectronicValueRWImpl.obj
 0002:00001a78       ??_C@_0BH@PBKBNMGB@CompareFirmwareVersion@ 10022a78     ElectronicValueRWImpl.obj
 0002:00001a90       ??_C@_0P@FBPDPIPA@UpdateFirmware@ 10022a90     ElectronicValueRWImpl.obj
 0002:00001aa0       ??_C@_0BF@CMAPCJGM@ClearInputProperties@ 10022aa0     ElectronicValueRWImpl.obj
 0002:00001ab8       ??_C@_09EGHCFIHC@GetAmount@ 10022ab8     ElectronicValueRWImpl.obj
 0002:00001ac4       ??_C@_09GIDHHJOA@SetAmount@ 10022ac4     ElectronicValueRWImpl.obj
 0002:00001ad0       ??_C@_0L@OFHFGGCE@GetBalance@ 10022ad0     ElectronicValueRWImpl.obj
 0002:00001adc       ??_C@_0BC@HFMPIMNJ@GetBalanceOfPoint@ 10022adc     ElectronicValueRWImpl.obj
 0002:00001af0       ??_C@_08HLPBNFEC@GetPoint@ 10022af0     ElectronicValueRWImpl.obj
 0002:00001afc       ??_C@_08IKNNMGDP@SetPoint@ 10022afc     ElectronicValueRWImpl.obj
 0002:00001b08       ??_C@_0BB@DEPMOCKF@GetSettledAmount@ 10022b08     ElectronicValueRWImpl.obj
 0002:00001b1c       ??_C@_0BA@PCCMIHIE@GetSettledPoint@ 10022b1c     ElectronicValueRWImpl.obj
 0002:00001b2c       ??_C@_09EDIPBOE@AccessLog@ 10022b2c     ElectronicValueRWImpl.obj
 0002:00001b38       ??_C@_0BA@CPKFOAIG@ActivateService@ 10022b38     ElectronicValueRWImpl.obj
 0002:00001b48       ??_C@_08LOICPCFH@AddValue@ 10022b48     ElectronicValueRWImpl.obj
 0002:00001b54       ??_C@_0P@IKCODGEO@BeginDetection@ 10022b54     ElectronicValueRWImpl.obj
 0002:00001b64       ??_C@_0N@PCJLGBKP@BeginRemoval@ 10022b64     ElectronicValueRWImpl.obj
 0002:00001b74       ??_C@_0M@GJJFNMHB@CancelValue@ 10022b74     ElectronicValueRWImpl.obj
 0002:00001b80       ??_C@_0M@ENIGCFE@CaptureCard@ 10022b80     ElectronicValueRWImpl.obj
 0002:00001b8c       ??_C@_0N@HNJPBHDG@EndDetection@ 10022b8c     ElectronicValueRWImpl.obj
 0002:00001b9c       ??_C@_0L@FCEKAOMI@EndRemoval@ 10022b9c     ElectronicValueRWImpl.obj
 0002:00001ba8       ??_C@_0BG@DBMDMKJM@EnumerateCardServices@ 10022ba8     ElectronicValueRWImpl.obj
 0002:00001bc0       ??_C@_0N@NKOFBOHJ@LockTerminal@ 10022bc0     ElectronicValueRWImpl.obj
 0002:00001bd0       ??_C@_09JBBNAFDB@ReadValue@ 10022bd0     ElectronicValueRWImpl.obj
 0002:00001bdc       ??_C@_0O@OCEFCPNI@SubtractValue@ 10022bdc     ElectronicValueRWImpl.obj
 0002:00001bec       ??_C@_0BC@FMEIPINL@TransactionAccess@ 10022bec     ElectronicValueRWImpl.obj
 0002:00001c00       ??_C@_0P@ELGEJAPJ@UnlockTerminal@ 10022c00     ElectronicValueRWImpl.obj
 0002:00001c10       ??_C@_09PHBOFDOC@UpdateKey@ 10022c10     ElectronicValueRWImpl.obj
 0002:00001c1c       ??_C@_0L@HDNANADD@WriteValue@ 10022c1c     ElectronicValueRWImpl.obj
 0002:00001c28       ??_C@_0BK@JLGGNCBA@ClearParameterInformation@ 10022c28     ElectronicValueRWImpl.obj
 0002:00001c44       ??_C@_0CF@BOMLKPAA@QueryLastSuccessfulTransactionR@ 10022c44     ElectronicValueRWImpl.obj
 0002:00001c6c       ??_C@_0BK@ILMAJPBB@RetrieveResultInformation@ 10022c6c     ElectronicValueRWImpl.obj
 0002:00001c88       ??_C@_0BI@DOFOAILE@SetParameterInformation@ 10022c88     ElectronicValueRWImpl.obj
 0002:00001ca0       ??_C@_0L@BFEKGFKN@AccessData@ 10022ca0     ElectronicValueRWImpl.obj
 0002:00001cac       ??_C@_0BC@EKOJKELK@ActivateEVService@ 10022cac     ElectronicValueRWImpl.obj
 0002:00001cc0       ??_C@_0CB@MMCGCA@CheckServiceRegistrationToMediu@ 10022cc0     ElectronicValueRWImpl.obj
 0002:00001ce4       ??_C@_0BE@KLAJMPGL@CloseDailyEVService@ 10022ce4     ElectronicValueRWImpl.obj
 0002:00001cf8       ??_C@_0BE@FBHCBEID@DeactivateEVService@ 10022cf8     ElectronicValueRWImpl.obj
 0002:00001d0c       ??_C@_0BD@FDDFHNFA@OpenDailyEVService@ 10022d0c     ElectronicValueRWImpl.obj
 0002:00001d20       ??_C@_0BI@MFJBMGKE@RegisterServiceToMedium@ 10022d20     ElectronicValueRWImpl.obj
 0002:00001d38       ??_C@_0BK@NILIGKOK@UnregisterServiceToMedium@ 10022d38     ElectronicValueRWImpl.obj
 0002:00001d54       ??_C@_0L@DHPPFEDE@UpdateData@ 10022d54     ElectronicValueRWImpl.obj
 0002:00001d60       ??_C@_0P@GAPGHBOB@AccessDailyLog@ 10022d60     ElectronicValueRWImpl.obj
 0002:00001d70       ??_C@_0BE@DCPICDJJ@AuthorizeCompletion@ 10022d70     ElectronicValueRWImpl.obj
 0002:00001d84       ??_C@_0BC@BFIHDIME@AuthorizePreSales@ 10022d84     ElectronicValueRWImpl.obj
 0002:00001d98       ??_C@_0BA@MIHOKOFD@AuthorizeRefund@ 10022d98     ElectronicValueRWImpl.obj
 0002:00001da8       ??_C@_0P@FBALCMBO@AuthorizeSales@ 10022da8     ElectronicValueRWImpl.obj
 0002:00001db8       ??_C@_0O@CLMPAPFO@AuthorizeVoid@ 10022db8     ElectronicValueRWImpl.obj
 0002:00001dc8       ??_C@_0BG@LAFENIFB@AuthorizeVoidPreSales@ 10022dc8     ElectronicValueRWImpl.obj
 0002:00001de0       ??_C@_0M@LJIOAJGI@CashDeposit@ 10022de0     ElectronicValueRWImpl.obj
 0002:00001dec       ??_C@_09EAIKPMK@CheckCard@ 10022dec     ElectronicValueRWImpl.obj
 0002:00001df8       ??_7?$CProxy_IOPOSEvents@VCOPOSElectronicValueRW@@@@6B@ 10022df8     ElectronicValueRWImpl.obj
 0002:00001e18       ??_C@_1BA@IFHENID@?$AA?$FL?$AAE?$AAr?$AAr?$AAo?$AAr?$AA?$FN@ 10022e18     ElectronicValueRWImpl.obj
 0002:00001e28       ??_C@_0DE@PJGMIIKM@SOFTWARE?2OLEforRetail?2ServiceOP@ 10022e28     ElectronicValueRWImpl.obj
 0002:00001e5c       ??_C@_1M@IAIJHCCH@?$AAC?$AAl?$AAo?$AAs?$AAe@ 10022e5c     ElectronicValueRWImpl.obj
 0002:00001e68       ??_C@_1M@PCPKGJAH@?$AAC?$AAl?$AAa?$AAi?$AAm@ 10022e68     ElectronicValueRWImpl.obj
 0002:00001e74       ??_C@_1BA@NDFKIOCP@?$AAR?$AAe?$AAl?$AAe?$AAa?$AAs?$AAe@ 10022e74     ElectronicValueRWImpl.obj
 0002:00001e84       ??_C@_0BC@GPJAGDJO@ElectronicValueRW@ 10022e84     ElectronicValueRWImpl.obj
 0002:00001e98       ??_C@_1BM@IJMNMBPK@?$AAG?$AAe?$AAt?$AAO?$AAp?$AAe?$AAn?$AAR?$AAe?$AAs?$AAu?$AAl?$AAt@ 10022e98     ElectronicValueRWImpl.obj
 0002:00001eb4       _IID_IPropertyNotifySink   10022eb4     uuid:ocidl_i.obj
 0002:00001ec4       _GUID_NULL                 10022ec4     uuid:cguid_i.obj
 0002:00001ed4       _CLSID_StdGlobalInterfaceTable 10022ed4     uuid:cguid_i.obj
 0002:00001ee4       _IID_IDispatch             10022ee4     uuid:oaidl_i.obj
 0002:00001ef4       _CLSID_StdComponentCategoriesMgr 10022ef4     uuid:ieguids.obj
 0002:00001f04       _IID_IUnknown              10022f04     uuid:unknwn_i.obj
 0002:00001f18       ??_C@_1EC@JIJBPKFM@?$AAa?$AAp?$AAi?$AA?9?$AAm?$AAs?$AA?9?$AAw?$AAi?$AAn?$AA?9?$AAc?$AAo?$AAr?$AAe@ 10022f18     LIBCMT:thread_safe_statics.obj
 0002:00001f5c       ??_C@_1BK@MGMFAEKH@?$AAk?$AAe?$AAr?$AAn?$AAe?$AAl?$AA3?$AA2?$AA?4?$AAd?$AAl?$AAl@ 10022f5c     LIBCMT:thread_safe_statics.obj
 0002:00001f78       ??_C@_0BJ@JEBJOJFJ@SleepConditionVariableCS@ 10022f78     LIBCMT:thread_safe_statics.obj
 0002:00001f94       ??_C@_0BJ@PGPPEPCC@WakeAllConditionVariable@ 10022f94     LIBCMT:thread_safe_statics.obj
 0002:00001fad       ?nothrow@std@@3Unothrow_t@1@B 10022fad     LIBCMT:std_nothrow.obj
 0002:00001fb8       __pDefaultRawDllMain       10022fb8     LIBCMT:dll_dllmain.obj
 0002:00001fb8       __pRawDllMain              10022fb8     LIBCMT:dll_dllmain.obj
 0002:00001fc0       ??_7exception@std@@6B@     10022fc0     LIBCMT:throw_bad_alloc.obj
 0002:00001fc8       ??_C@_0BC@EOODALEL@Unknown?5exception@ 10022fc8     LIBCMT:throw_bad_alloc.obj
 0002:00001fe0       ??_7bad_alloc@std@@6B@     10022fe0     LIBCMT:throw_bad_alloc.obj
 0002:00001fe8       ??_C@_0P@GHFPNOJB@bad?5allocation@ 10022fe8     LIBCMT:throw_bad_alloc.obj
 0002:00001ffc       ??_7bad_array_new_length@std@@6B@ 10022ffc     LIBCMT:throw_bad_alloc.obj
 0002:00002004       ??_C@_0BF@KINCDENJ@bad?5array?5new?5length@ 10023004     LIBCMT:throw_bad_alloc.obj
 0002:00002020       ??_7type_info@@6B@         10023020     LIBCMT:std_type_info_static.obj
 0002:00002024       _GUID_ATLVer110            10023024     atls:atlbase.obj
 0002:00002038       ??_C@_1IC@ONKHOIDK@?$AAE?$AAR?$AAR?$AAO?$AAR?$AA?5?$AA?3?$AA?5?$AAU?$AAn?$AAa?$AAb?$AAl?$AAe?$AA?5@ 10023038     atls:atlbase.obj
 0002:000020bc       ??_C@_0N@FJEPLCIH@atlthunk?4dll@ 100230bc     atls:atlthunk.obj
 0002:000020cc       ??_C@_0BG@GAKFHCBM@AtlThunk_AllocateData@ 100230cc     atls:atlthunk.obj
 0002:000020e4       ??_C@_0BC@JKONFIAH@AtlThunk_InitData@ 100230e4     atls:atlthunk.obj
 0002:000020f8       ??_C@_0BE@IAOEELAK@AtlThunk_DataToCode@ 100230f8     atls:atlthunk.obj
 0002:0000210c       ??_C@_0BC@GBGKAIPI@AtlThunk_FreeData@ 1002310c     atls:atlthunk.obj
 0002:00002144       ??_7bad_exception@std@@6B@ 10023144     libvcruntime:frame.obj
 0002:0000214c       ??_C@_0O@DPKOEFFH@bad?5exception@ 1002314c     libvcruntime:frame.obj
 0002:00002300       ??_C@_08EHJDFFNH@__based?$CI@ 10023300     libvcruntime:undname.obj
 0002:0000230c       ??_C@_07KOLFKCDI@__cdecl@  1002330c     libvcruntime:undname.obj
 0002:00002314       ??_C@_08GHMPAG@__pascal@   10023314     libvcruntime:undname.obj
 0002:00002320       ??_C@_09IFJBGAPI@__stdcall@ 10023320     libvcruntime:undname.obj
 0002:0000232c       ??_C@_0L@NPHFGOKO@__thiscall@ 1002332c     libvcruntime:undname.obj
 0002:00002338       ??_C@_0L@JMKHOMEK@__fastcall@ 10023338     libvcruntime:undname.obj
 0002:00002344       ??_C@_0N@BCKKPABJ@__vectorcall@ 10023344     libvcruntime:undname.obj
 0002:00002354       ??_C@_09HIJEGCPM@__clrcall@ 10023354     libvcruntime:undname.obj
 0002:00002360       ??_C@_06GHPCKEAG@__eabi@   10023360     libvcruntime:undname.obj
 0002:00002368       ??_C@_09IOPIDJLG@__swift_1@ 10023368     libvcruntime:undname.obj
 0002:00002374       ??_C@_09KFNFGKHF@__swift_2@ 10023374     libvcruntime:undname.obj
 0002:00002380       ??_C@_07JOMMBBKO@__ptr64@  10023380     libvcruntime:undname.obj
 0002:00002388       ??_C@_0L@PILCLIHE@__restrict@ 10023388     libvcruntime:undname.obj
 0002:00002394       ??_C@_0M@GFIIJFMG@__unaligned@ 10023394     libvcruntime:undname.obj
 0002:000023a0       ??_C@_09DHDLOLLB@restrict?$CI@ 100233a0     libvcruntime:undname.obj
 0002:000023aa       ??_C@_00CNPNBAHC@@         100233aa     libvcruntime:undname.obj
 0002:000023ac       ??_C@_04NIHEBCM@?5new@     100233ac     libvcruntime:undname.obj
 0002:000023b4       ??_C@_07FPCDHGMM@?5delete@ 100233b4     libvcruntime:undname.obj
 0002:000023bc       ??_C@_01NEMOKFLO@?$DN@     100233bc     libvcruntime:undname.obj
 0002:000023c0       ??_C@_02GPIOPFAK@?$DO?$DO@ 100233c0     libvcruntime:undname.obj
 0002:000023c4       ??_C@_02FODMEDOG@?$DM?$DM@ 100233c4     libvcruntime:undname.obj
 0002:000023c8       ??_C@_01DCLJPIOD@?$CB@     100233c8     libvcruntime:undname.obj
 0002:000023cc       ??_C@_02EGOFBIJA@?$DN?$DN@ 100233cc     libvcruntime:undname.obj
 0002:000023d0       ??_C@_02FDNJECIE@?$CB?$DN@ 100233d0     libvcruntime:undname.obj
 0002:000023d4       ??_C@_02GPECMEKF@?$FL?$FN@ 100233d4     libvcruntime:undname.obj
 0002:000023d8       ??_C@_08LHJFAFGD@operator@ 100233d8     libvcruntime:undname.obj
 0002:000023e4       ??_C@_02HBOOOICD@?9?$DO@   100233e4     libvcruntime:undname.obj
 0002:000023e8       ??_C@_01NBENCBCI@?$CK@     100233e8     libvcruntime:undname.obj
 0002:000023ec       ??_C@_02ECNGHCIF@?$CL?$CL@ 100233ec     libvcruntime:undname.obj
 0002:000023f0       ??_C@_02BAABKJLB@?9?9@     100233f0     libvcruntime:undname.obj
 0002:000023f4       ??_C@_01JOAMLHOP@?9@       100233f4     libvcruntime:undname.obj
 0002:000023f8       ??_C@_01MIFGBAGJ@?$CL@     100233f8     libvcruntime:undname.obj
 0002:000023fc       ??_C@_01HNPIGOCE@?$CG@     100233fc     libvcruntime:undname.obj
 0002:00002400       ??_C@_03MNHNFDLC@?9?$DO?$CK@ 10023400     libvcruntime:undname.obj
 0002:00002404       ??_C@_01KMDKNFGN@?1@       10023404     libvcruntime:undname.obj
 0002:00002408       ??_C@_01FGNFDNOH@?$CF@     10023408     libvcruntime:undname.obj
 0002:0000240c       ??_C@_01MNNFJEPP@?$DM@     1002340c     libvcruntime:undname.obj
 0002:00002410       ??_C@_02EHCHHCKH@?$DM?$DN@ 10023410     libvcruntime:undname.obj
 0002:00002414       ??_C@_01PPODPGHN@?$DO@     10023414     libvcruntime:undname.obj
 0002:00002418       ??_C@_02EEKDKGMJ@?$DO?$DN@ 10023418     libvcruntime:undname.obj
 0002:0000241c       ??_C@_01IHBHIGKO@?0@       1002341c     libvcruntime:undname.obj
 0002:00002420       ??_C@_02HCKGKOFO@?$CI?$CJ@ 10023420     libvcruntime:undname.obj
 0002:00002424       ??_C@_01PJKLJHI@?$HO@      10023424     libvcruntime:undname.obj
 0002:00002428       ??_C@_01JKBOJNNK@?$FO@     10023428     libvcruntime:undname.obj
 0002:0000242c       ??_C@_01DNKMNLPK@?$HM@     1002342c     libvcruntime:undname.obj
 0002:00002430       ??_C@_02PPKAJPJL@?$CG?$CG@ 10023430     libvcruntime:undname.obj
 0002:00002434       ??_C@_02NONPIBCD@?$HM?$HM@ 10023434     libvcruntime:undname.obj
 0002:00002438       ??_C@_02FPIMKNGF@?$CK?$DN@ 10023438     libvcruntime:undname.obj
 0002:0000243c       ??_C@_02FOEOMHFC@?$CL?$DN@ 1002343c     libvcruntime:undname.obj
 0002:00002440       ??_C@_02FKMDLLOA@?9?$DN@   10023440     libvcruntime:undname.obj
 0002:00002444       ??_C@_02FJEHGPIO@?1?$DN@   10023444     libvcruntime:undname.obj
 0002:00002448       ??_C@_02FENAOKFI@?$CF?$DN@ 10023448     libvcruntime:undname.obj
 0002:0000244c       ??_C@_03IKFCCPFF@?$DO?$DO?$DN@ 1002344c     libvcruntime:undname.obj
 0002:00002450       ??_C@_03CDNPDDLA@?$DM?$DM?$DN@ 10023450     libvcruntime:undname.obj
 0002:00002454       ??_C@_02FGJGFEAB@?$CG?$DN@ 10023454     libvcruntime:undname.obj
 0002:00002458       ??_C@_02DHLNPPGH@?$HM?$DN@ 10023458     libvcruntime:undname.obj
 0002:0000245c       ??_C@_02MHEGNOJ@?$FO?$DN@  1002345c     libvcruntime:undname.obj
 0002:00002460       ??_C@_09IFPLHPGF@?$GAvftable?8@ 10023460     libvcruntime:undname.obj
 0002:0000246c       ??_C@_09BLBHBJP@?$GAvbtable?8@ 1002346c     libvcruntime:undname.obj
 0002:00002478       ??_C@_07FEEIOKP@?$GAvcall?8@ 10023478     libvcruntime:undname.obj
 0002:00002480       ??_C@_08LLFFHHDJ@?$GAtypeof?8@ 10023480     libvcruntime:undname.obj
 0002:0000248c       ??_C@_0BF@KDPPACIK@?$GAlocal?5static?5guard?8@ 1002348c     libvcruntime:undname.obj
 0002:000024a4       ??_C@_08OBABFOLI@?$GAstring?8@ 100234a4     libvcruntime:undname.obj
 0002:000024b0       ??_C@_0BD@JDLKDPAB@?$GAvbase?5destructor?8@ 100234b0     libvcruntime:undname.obj
 0002:000024c4       ??_C@_0BN@DEGPLNFK@?$GAvector?5deleting?5destructor?8@ 100234c4     libvcruntime:undname.obj
 0002:000024e4       ??_C@_0BO@OBMKPJIG@?$GAdefault?5constructor?5closure?8@ 100234e4     libvcruntime:undname.obj
 0002:00002504       ??_C@_0BN@IMDCHIKM@?$GAscalar?5deleting?5destructor?8@ 10023504     libvcruntime:undname.obj
 0002:00002524       ??_C@_0BO@PFGOCPJJ@?$GAvector?5constructor?5iterator?8@ 10023524     libvcruntime:undname.obj
 0002:00002544       ??_C@_0BN@LFPFMEDL@?$GAvector?5destructor?5iterator?8@ 10023544     libvcruntime:undname.obj
 0002:00002564       ??_C@_0CE@IKBNEHA@?$GAvector?5vbase?5constructor?5itera@ 10023564     libvcruntime:undname.obj
 0002:00002588       ??_C@_0BL@NILFHHPC@?$GAvirtual?5displacement?5map?8@ 10023588     libvcruntime:undname.obj
 0002:000025a4       ??_C@_0CB@JONCMFFK@?$GAeh?5vector?5constructor?5iterator@ 100235a4     libvcruntime:undname.obj
 0002:000025c8       ??_C@_0CA@GCEOPDGL@?$GAeh?5vector?5destructor?5iterator?8@ 100235c8     libvcruntime:undname.obj
 0002:000025e8       ??_C@_0CH@OOJPLCPH@?$GAeh?5vector?5vbase?5constructor?5it@ 100235e8     libvcruntime:undname.obj
 0002:00002610       ??_C@_0BL@LLKPOHJI@?$GAcopy?5constructor?5closure?8@ 10023610     libvcruntime:undname.obj
 0002:0000262c       ??_C@_0BA@KBCDOMBN@?$GAudt?5returning?8@ 1002362c     libvcruntime:undname.obj
 0002:0000263c       ??_C@_03KLGMFNMG@?$GAEH@   1002363c     libvcruntime:undname.obj
 0002:00002640       ??_C@_05KHLCHHI@?$GARTTI@  10023640     libvcruntime:undname.obj
 0002:00002648       ??_C@_0BA@KKLDJDLB@?$GAlocal?5vftable?8@ 10023648     libvcruntime:undname.obj
 0002:00002658       ??_C@_0CE@IIHCMGGL@?$GAlocal?5vftable?5constructor?5clos@ 10023658     libvcruntime:undname.obj
 0002:0000267c       ??_C@_06FHBGPFGH@?5new?$FL?$FN@ 1002367c     libvcruntime:undname.obj
 0002:00002684       ??_C@_09LBNFPBCA@?5delete?$FL?$FN@ 10023684     libvcruntime:undname.obj
 0002:00002690       ??_C@_0P@HJKNJFNN@?$GAomni?5callsig?8@ 10023690     libvcruntime:undname.obj
 0002:000026a0       ??_C@_0BL@CNOONJFP@?$GAplacement?5delete?5closure?8@ 100236a0     libvcruntime:undname.obj
 0002:000026bc       ??_C@_0BN@CKNJLHMB@?$GAplacement?5delete?$FL?$FN?5closure?8@ 100236bc     libvcruntime:undname.obj
 0002:000026dc       ??_C@_0CG@CFDHKGGD@?$GAmanaged?5vector?5constructor?5ite@ 100236dc     libvcruntime:undname.obj
 0002:00002704       ??_C@_0CF@IMGKMJNO@?$GAmanaged?5vector?5destructor?5iter@ 10023704     libvcruntime:undname.obj
 0002:0000272c       ??_C@_0CG@HLDDJMAG@?$GAeh?5vector?5copy?5constructor?5ite@ 1002372c     libvcruntime:undname.obj
 0002:00002754       ??_C@_0CM@FCBBDIGB@?$GAeh?5vector?5vbase?5copy?5construct@ 10023754     libvcruntime:undname.obj
 0002:00002780       ??_C@_0BL@CLIPGLGB@?$GAdynamic?5initializer?5for?5?8@ 10023780     libvcruntime:undname.obj
 0002:0000279c       ??_C@_0CB@PDBIFEP@?$GAdynamic?5atexit?5destructor?5for?5@ 1002379c     libvcruntime:undname.obj
 0002:000027c0       ??_C@_0CD@CGAJBKEJ@?$GAvector?5copy?5constructor?5iterat@ 100237c0     libvcruntime:undname.obj
 0002:000027e4       ??_C@_0CJ@GJELGAMM@?$GAvector?5vbase?5copy?5constructor?5@ 100237e4     libvcruntime:undname.obj
 0002:00002810       ??_C@_0CL@FGIJHLCE@?$GAmanaged?5vector?5copy?5constructo@ 10023810     libvcruntime:undname.obj
 0002:0000283c       ??_C@_0BM@PMGGMLDN@?$GAlocal?5static?5thread?5guard?8@ 1002383c     libvcruntime:undname.obj
 0002:00002858       ??_C@_0N@BDNMDMOL@operator?5?$CC?$CC?5@ 10023858     libvcruntime:undname.obj
 0002:00002868       ??_C@_0BC@GGEBGALA@operator?5co_await@ 10023868     libvcruntime:undname.obj
 0002:0000287c       ??_C@_0M@GAAIMMOH@operator?$DM?$DN?$DO@ 1002387c     libvcruntime:undname.obj
 0002:00002888       ??_C@_0BC@DAFEJGAK@?5Type?5Descriptor?8@ 10023888     libvcruntime:undname.obj
 0002:0000289c       ??_C@_0BM@LDKODKLH@?5Base?5Class?5Descriptor?5at?5?$CI@ 1002389c     libvcruntime:undname.obj
 0002:000028b8       ??_C@_0BD@LGICGFMM@?5Base?5Class?5Array?8@ 100238b8     libvcruntime:undname.obj
 0002:000028cc       ??_C@_0BN@MECKDCOJ@?5Class?5Hierarchy?5Descriptor?8@ 100238cc     libvcruntime:undname.obj
 0002:000028ec       ??_C@_0BK@CFCOFLF@?5Complete?5Object?5Locator?8@ 100238ec     libvcruntime:undname.obj
 0002:00002914       ??_C@_1DM@KHCHBNEB@?$AAa?$AAp?$AAi?$AA?9?$AAm?$AAs?$AA?9?$AAw?$AAi?$AAn?$AA?9?$AAc?$AAo?$AAr?$AAe@ 10023914     libvcruntime:winapi_downlevel.obj
 0002:00002950       ??_C@_1DK@LPPGFMPP@?$AAa?$AAp?$AAi?$AA?9?$AAm?$AAs?$AA?9?$AAw?$AAi?$AAn?$AA?9?$AAc?$AAo?$AAr?$AAe@ 10023950     libvcruntime:winapi_downlevel.obj
 0002:0000298c       ??_C@_1BC@GDMECMAK@?$AAk?$AAe?$AAr?$AAn?$AAe?$AAl?$AA3?$AA2@ 1002398c     libvcruntime:winapi_downlevel.obj
 0002:000029a0       ??_C@_1BA@PFFKHIOG@?$AAa?$AAp?$AAi?$AA?9?$AAm?$AAs?$AA?9@ 100239a0     libvcruntime:winapi_downlevel.obj
 0002:000029b8       ??_C@_08KNHFBNJ@FlsAlloc@  100239b8     libvcruntime:winapi_downlevel.obj
 0002:000029cc       ??_C@_07PEJMOBNF@FlsFree@  100239cc     libvcruntime:winapi_downlevel.obj
 0002:000029dc       ??_C@_0M@GDNOONDI@FlsGetValue@ 100239dc     libvcruntime:winapi_downlevel.obj
 0002:000029f0       ??_C@_0M@JCPCPOEF@FlsSetValue@ 100239f0     libvcruntime:winapi_downlevel.obj
 0002:00002a04       ??_C@_0BM@HCFOFFN@InitializeCriticalSectionEx@ 10023a04     libvcruntime:winapi_downlevel.obj
 0002:00002a20       __pDestructExceptionObject 10023a20     libvcruntime:ehhelpers.obj
 0002:00002b90       _format_validation_lookup_table 10023b90     libucrt:output.obj
 0002:00002bec       ??_C@_1O@CEDCILHN@?$AA?$CI?$AAn?$AAu?$AAl?$AAl?$AA?$CJ@ 10023bec     libucrt:output.obj
 0002:00002bfc       ??_C@_06OJHGLDPL@?$CInull?$CJ@ 10023bfc     libucrt:output.obj
 0002:00002c08       ___acrt_exception_action_table 10023c08     libucrt:exception_filter.obj
 0002:00002c98       ___acrt_signal_action_table_count 10023c98     libucrt:exception_filter.obj
 0002:00002c9c       ___acrt_signal_action_first_fpe_index 10023c9c     libucrt:exception_filter.obj
 0002:00002ca0       ___acrt_signal_action_fpe_count 10023ca0     libucrt:exception_filter.obj
 0002:00002ca4       ??_C@_1BI@BGOHAHKC@?$AAm?$AAs?$AAc?$AAo?$AAr?$AAe?$AAe?$AA?4?$AAd?$AAl?$AAl@ 10023ca4     libucrt:exit.obj
 0002:00002cbc       ??_C@_0P@MIGLKIOC@CorExitProcess@ 10023cbc     libucrt:exit.obj
 0002:00002da0       ??_C@_1EA@JGEFHKEI@?$AAa?$AAp?$AAi?$AA?9?$AAm?$AAs?$AA?9?$AAw?$AAi?$AAn?$AA?9?$AAc?$AAo?$AAr?$AAe@ 10023da0     libucrt:winapi_thunks.obj
 0002:00002de0       ??_C@_1DI@IJCEHOCB@?$AAa?$AAp?$AAi?$AA?9?$AAm?$AAs?$AA?9?$AAw?$AAi?$AAn?$AA?9?$AAc?$AAo?$AAr?$AAe@ 10023de0     libucrt:winapi_thunks.obj
 0002:00002e18       ??_C@_1EI@MPIAOHOC@?$AAa?$AAp?$AAi?$AA?9?$AAm?$AAs?$AA?9?$AAw?$AAi?$AAn?$AA?9?$AAc?$AAo?$AAr?$AAe@ 10023e18     libucrt:winapi_thunks.obj
 0002:00002e60       ??_C@_1FK@FPHCKFIE@?$AAa?$AAp?$AAi?$AA?9?$AAm?$AAs?$AA?9?$AAw?$AAi?$AAn?$AA?9?$AAc?$AAo?$AAr?$AAe@ 10023e60     libucrt:winapi_thunks.obj
 0002:00002ec0       ??_C@_1EM@DILCGIIO@?$AAa?$AAp?$AAi?$AA?9?$AAm?$AAs?$AA?9?$AAw?$AAi?$AAn?$AA?9?$AAc?$AAo?$AAr?$AAe@ 10023ec0     libucrt:winapi_thunks.obj
 0002:00002f0c       ??_C@_1DM@LNCGDDPN@?$AAa?$AAp?$AAi?$AA?9?$AAm?$AAs?$AA?9?$AAw?$AAi?$AAn?$AA?9?$AAc?$AAo?$AAr?$AAe@ 10023f0c     libucrt:winapi_thunks.obj
 0002:00002f48       ??_C@_1DO@FPAPJEMD@?$AAa?$AAp?$AAi?$AA?9?$AAm?$AAs?$AA?9?$AAw?$AAi?$AAn?$AA?9?$AAc?$AAo?$AAr?$AAe@ 10023f48     libucrt:winapi_thunks.obj
 0002:00002f88       ??_C@_1DK@NDHNAHIO@?$AAa?$AAp?$AAi?$AA?9?$AAm?$AAs?$AA?9?$AAw?$AAi?$AAn?$AA?9?$AAc?$AAo?$AAr?$AAe@ 10023f88     libucrt:winapi_thunks.obj
 0002:00002fc4       ??_C@_1DM@KGHDGBCM@?$AAa?$AAp?$AAi?$AA?9?$AAm?$AAs?$AA?9?$AAw?$AAi?$AAn?$AA?9?$AAc?$AAo?$AAr?$AAe@ 10023fc4     libucrt:winapi_thunks.obj
 0002:00003000       ??_C@_1EO@IJIOEFOH@?$AAa?$AAp?$AAi?$AA?9?$AAm?$AAs?$AA?9?$AAw?$AAi?$AAn?$AA?9?$AAr?$AAt?$AAc?$AAo@ 10024000     libucrt:winapi_thunks.obj
 0002:00003050       ??_C@_1FG@HHGEKANL@?$AAa?$AAp?$AAi?$AA?9?$AAm?$AAs?$AA?9?$AAw?$AAi?$AAn?$AA?9?$AAs?$AAe?$AAc?$AAu@ 10024050     libucrt:winapi_thunks.obj
 0002:000030a8       ??_C@_1EG@DBIOJECG@?$AAe?$AAx?$AAt?$AA?9?$AAm?$AAs?$AA?9?$AAw?$AAi?$AAn?$AA?9?$AAn?$AAt?$AAu?$AAs@ 100240a8     libucrt:winapi_thunks.obj
 0002:000030f0       ??_C@_1EO@FIHMJCLF@?$AAe?$AAx?$AAt?$AA?9?$AAm?$AAs?$AA?9?$AAw?$AAi?$AAn?$AA?9?$AAn?$AAt?$AAu?$AAs@ 100240f0     libucrt:winapi_thunks.obj
 0002:00003140       ??_C@_1BC@DNHGCMLG@?$AAa?$AAd?$AAv?$AAa?$AAp?$AAi?$AA3?$AA2@ 10024140     libucrt:winapi_thunks.obj
 0002:00003154       ??_C@_1M@OAIMIKLP@?$AAn?$AAt?$AAd?$AAl?$AAl@ 10024154     libucrt:winapi_thunks.obj
 0002:00003160       ??_C@_1EG@DPGNFKGC@?$AAa?$AAp?$AAi?$AA?9?$AAm?$AAs?$AA?9?$AAw?$AAi?$AAn?$AA?9?$AAa?$AAp?$AAp?$AAm@ 10024160     libucrt:winapi_thunks.obj
 0002:000031a8       ??_C@_1O@BCCLBEOE@?$AAu?$AAs?$AAe?$AAr?$AA3?$AA2@ 100241a8     libucrt:winapi_thunks.obj
 0002:000031b8       ??_C@_1BA@IAIFMGEF@?$AAe?$AAx?$AAt?$AA?9?$AAm?$AAs?$AA?9@ 100241b8     libucrt:winapi_thunks.obj
 0002:000031cc       ??_C@_0BA@FHFNEAED@AreFileApisANSI@ 100241cc     libucrt:winapi_thunks.obj
 0002:0000320c       ??_C@_0O@KKBNKAPF@LCMapStringEx@ 1002420c     libucrt:winapi_thunks.obj
 0002:00003224       ??_C@_0BB@HBDEELFH@LocaleNameToLCID@ 10024224     libucrt:winapi_thunks.obj
 0002:0000323c       ??_C@_0CF@OJOFEIGO@AppPolicyGetProcessTerminationM@ 1002423c     libucrt:winapi_thunks.obj
 0002:0000326c       ??_C@_0BI@BKLFFAPO@SetThreadStackGuarantee@ 1002426c     libucrt:winapi_thunks.obj
 0002:000032c8       ??_C@_03OEIAHPBN@INF@      100242c8     libucrt:cvt.obj
 0002:000032cc       ??_C@_03OJHLLCGB@inf@      100242cc     libucrt:cvt.obj
 0002:000032d0       ??_C@_03LKNCIKJB@NAN@      100242d0     libucrt:cvt.obj
 0002:000032d4       ??_C@_03LHCJEHON@nan@      100242d4     libucrt:cvt.obj
 0002:000032d8       ??_C@_09OFJJIMPC@NAN?$CISNAN?$CJ@ 100242d8     libucrt:cvt.obj
 0002:000032e4       ??_C@_09IPFBKMDL@nan?$CIsnan?$CJ@ 100242e4     libucrt:cvt.obj
 0002:000032f0       ??_C@_08IKHNHAJ@NAN?$CIIND?$CJ@ 100242f0     libucrt:cvt.obj
 0002:000032fc       ??_C@_08OFCDMILK@nan?$CIind?$CJ@ 100242fc     libucrt:cvt.obj
 0002:00003308       ??_C@_05KLBDPFGC@e?$CL000@ 10024308     libucrt:cvt.obj
 0002:00003310       ___lc_time_c               10024310     libucrt:nlsdata.obj
 0002:00003474       ??_C@_03KOEHGMDN@Sun@      10024474     libucrt:nlsdata.obj
 0002:00003478       ??_C@_03PDAGKDH@Mon@       10024478     libucrt:nlsdata.obj
 0002:0000347c       ??_C@_03NAGEINEP@Tue@      1002447c     libucrt:nlsdata.obj
 0002:00003480       ??_C@_03MHOMLAJA@Wed@      10024480     libucrt:nlsdata.obj
 0002:00003484       ??_C@_03IOFIKPDN@Thu@      10024484     libucrt:nlsdata.obj
 0002:00003488       ??_C@_03IDIOELNC@Fri@      10024488     libucrt:nlsdata.obj
 0002:0000348c       ??_C@_03FEFJNEK@Sat@       1002448c     libucrt:nlsdata.obj
 0002:00003490       ??_C@_06OOPIFAJ@Sunday@    10024490     libucrt:nlsdata.obj
 0002:00003498       ??_C@_06JLEDEDGH@Monday@   10024498     libucrt:nlsdata.obj
 0002:000034a0       ??_C@_07BAAGCFCM@Tuesday@  100244a0     libucrt:nlsdata.obj
 0002:000034a8       ??_C@_09DLIGFAKA@Wednesday@ 100244a8     libucrt:nlsdata.obj
 0002:000034b4       ??_C@_08HACCIKIA@Thursday@ 100244b4     libucrt:nlsdata.obj
 0002:000034c0       ??_C@_06JECMNKMI@Friday@   100244c0     libucrt:nlsdata.obj
 0002:000034c8       ??_C@_08INBOOONO@Saturday@ 100244c8     libucrt:nlsdata.obj
 0002:000034d4       ??_C@_03JIHJHPIE@Jan@      100244d4     libucrt:nlsdata.obj
 0002:000034d8       ??_C@_03HJBDCHOM@Feb@      100244d8     libucrt:nlsdata.obj
 0002:000034dc       ??_C@_03ODNJBKGA@Mar@      100244dc     libucrt:nlsdata.obj
 0002:000034e0       ??_C@_03LEOLGMJP@Apr@      100244e0     libucrt:nlsdata.obj
 0002:000034e4       ??_C@_03CNMDKL@May@        100244e4     libucrt:nlsdata.obj
 0002:000034e8       ??_C@_03IDFGHECI@Jun@      100244e8     libucrt:nlsdata.obj
 0002:000034ec       ??_C@_03LBGABGKK@Jul@      100244ec     libucrt:nlsdata.obj
 0002:000034f0       ??_C@_03IFJFEIGA@Aug@      100244f0     libucrt:nlsdata.obj
 0002:000034f4       ??_C@_03GGCAPAJC@Sep@      100244f4     libucrt:nlsdata.obj
 0002:000034f8       ??_C@_03BMAOKBAD@Oct@      100244f8     libucrt:nlsdata.obj
 0002:000034fc       ??_C@_03JPJOFNIA@Nov@      100244fc     libucrt:nlsdata.obj
 0002:00003500       ??_C@_03MKABNOCG@Dec@      10024500     libucrt:nlsdata.obj
 0002:00003504       ??_C@_07CGJPFGJA@January@  10024504     libucrt:nlsdata.obj
 0002:0000350c       ??_C@_08GNJGEPFN@February@ 1002450c     libucrt:nlsdata.obj
 0002:00003518       ??_C@_05HPCKOFNC@March@    10024518     libucrt:nlsdata.obj
 0002:00003520       ??_C@_05DMJDNLEJ@April@    10024520     libucrt:nlsdata.obj
 0002:00003528       ??_C@_04CNLMGBGM@June@     10024528     libucrt:nlsdata.obj
 0002:00003530       ??_C@_04MIEPOIFP@July@     10024530     libucrt:nlsdata.obj
 0002:00003538       ??_C@_06LBBHFDDG@August@   10024538     libucrt:nlsdata.obj
 0002:00003540       ??_C@_09BHHEALKD@September@ 10024540     libucrt:nlsdata.obj
 0002:0000354c       ??_C@_07JJNFCEND@October@  1002454c     libucrt:nlsdata.obj
 0002:00003554       ??_C@_08HCHEGEOA@November@ 10024554     libucrt:nlsdata.obj
 0002:00003560       ??_C@_08EDHMEBNP@December@ 10024560     libucrt:nlsdata.obj
 0002:0000356c       ??_C@_02DEDBPAFC@AM@       1002456c     libucrt:nlsdata.obj
 0002:00003570       ??_C@_02CJNFDJBF@PM@       10024570     libucrt:nlsdata.obj
 0002:00003574       ??_C@_08BPBNCDIB@MM?1dd?1yy@ 10024574     libucrt:nlsdata.obj
 0002:00003580       ??_C@_0BE@CKGJFCPC@dddd?0?5MMMM?5dd?0?5yyyy@ 10024580     libucrt:nlsdata.obj
 0002:00003594       ??_C@_08JCCMCCIL@HH?3mm?3ss@ 10024594     libucrt:nlsdata.obj
 0002:000035a0       ??_C@_17MBGCMIPB@?$AAS?$AAu?$AAn@ 100245a0     libucrt:nlsdata.obj
 0002:000035a8       ??_C@_17KBOMKBF@?$AAM?$AAo?$AAn@ 100245a8     libucrt:nlsdata.obj
 0002:000035b0       ??_C@_17BMKGEGOJ@?$AAT?$AAu?$AAe@ 100245b0     libucrt:nlsdata.obj
 0002:000035b8       ??_C@_17CJEDCEPE@?$AAW?$AAe?$AAd@ 100245b8     libucrt:nlsdata.obj
 0002:000035c0       ??_C@_17PDPHAADD@?$AAT?$AAh?$AAu@ 100245c0     libucrt:nlsdata.obj
 0002:000035c8       ??_C@_17HFOLPPLP@?$AAF?$AAr?$AAi@ 100245c8     libucrt:nlsdata.obj
 0002:000035d0       ??_C@_17GGIBDPIH@?$AAS?$AAa?$AAt@ 100245d0     libucrt:nlsdata.obj
 0002:000035d8       ??_C@_1O@IHNHDHPB@?$AAS?$AAu?$AAn?$AAd?$AAa?$AAy@ 100245d8     libucrt:nlsdata.obj
 0002:000035e8       ??_C@_1O@MMNBFLIA@?$AAM?$AAo?$AAn?$AAd?$AAa?$AAy@ 100245e8     libucrt:nlsdata.obj
 0002:000035f8       ??_C@_1BA@ENFBFFEK@?$AAT?$AAu?$AAe?$AAs?$AAd?$AAa?$AAy@ 100245f8     libucrt:nlsdata.obj
 0002:00003608       ??_C@_1BE@EBOGMDOH@?$AAW?$AAe?$AAd?$AAn?$AAe?$AAs?$AAd?$AAa?$AAy@ 10024608     libucrt:nlsdata.obj
 0002:0000361c       ??_C@_1BC@HHMNLIHE@?$AAT?$AAh?$AAu?$AAr?$AAs?$AAd?$AAa?$AAy@ 1002461c     libucrt:nlsdata.obj
 0002:00003630       ??_C@_1O@PDICJHAG@?$AAF?$AAr?$AAi?$AAd?$AAa?$AAy@ 10024630     libucrt:nlsdata.obj
 0002:00003640       ??_C@_1BC@ENMNNPAJ@?$AAS?$AAa?$AAt?$AAu?$AAr?$AAd?$AAa?$AAy@ 10024640     libucrt:nlsdata.obj
 0002:00003654       ??_C@_17DKNBKCHM@?$AAJ?$AAa?$AAn@ 10024654     libucrt:nlsdata.obj
 0002:0000365c       ??_C@_17LMDJEKJN@?$AAF?$AAe?$AAb@ 1002465c     libucrt:nlsdata.obj
 0002:00003664       ??_C@_17CKNLEDEC@?$AAM?$AAa?$AAr@ 10024664     libucrt:nlsdata.obj
 0002:0000366c       ??_C@_17LFPOIHDD@?$AAA?$AAp?$AAr@ 1002466c     libucrt:nlsdata.obj
 0002:00003674       ??_C@_17PNNKMEED@?$AAM?$AAa?$AAy@ 10024674     libucrt:nlsdata.obj
 0002:0000367c       ??_C@_17KCJGOCPB@?$AAJ?$AAu?$AAn@ 1002467c     libucrt:nlsdata.obj
 0002:00003684       ??_C@_17IJPCKHK@?$AAJ?$AAu?$AAl@ 10024684     libucrt:nlsdata.obj
 0002:0000368c       ??_C@_17ICPELBCN@?$AAA?$AAu?$AAg@ 1002468c     libucrt:nlsdata.obj
 0002:00003694       ??_C@_17HCHCOKMG@?$AAS?$AAe?$AAp@ 10024694     libucrt:nlsdata.obj
 0002:0000369c       ??_C@_17FNLKOI@?$AAO?$AAc?$AAt@ 1002469c     libucrt:nlsdata.obj
 0002:000036a4       ??_C@_17BBDMLCIG@?$AAN?$AAo?$AAv@ 100246a4     libucrt:nlsdata.obj
 0002:000036ac       ??_C@_17EGKACKIF@?$AAD?$AAe?$AAc@ 100246ac     libucrt:nlsdata.obj
 0002:000036b4       ??_C@_1BA@EFMEIEBA@?$AAJ?$AAa?$AAn?$AAu?$AAa?$AAr?$AAy@ 100246b4     libucrt:nlsdata.obj
 0002:000036c4       ??_C@_1BC@JGDDFFAM@?$AAF?$AAe?$AAb?$AAr?$AAu?$AAa?$AAr?$AAy@ 100246c4     libucrt:nlsdata.obj
 0002:000036d8       ??_C@_1M@IKEENEDF@?$AAM?$AAa?$AAr?$AAc?$AAh@ 100246d8     libucrt:nlsdata.obj
 0002:000036e4       ??_C@_1M@GJNLMHFD@?$AAA?$AAp?$AAr?$AAi?$AAl@ 100246e4     libucrt:nlsdata.obj
 0002:000036f0       ??_C@_19EPFLPGAP@?$AAJ?$AAu?$AAn?$AAe@ 100246f0     libucrt:nlsdata.obj
 0002:000036fc       ??_C@_19BIFMLPCD@?$AAJ?$AAu?$AAl?$AAy@ 100246fc     libucrt:nlsdata.obj
 0002:00003708       ??_C@_1O@PAHLKOAC@?$AAA?$AAu?$AAg?$AAu?$AAs?$AAt@ 10024708     libucrt:nlsdata.obj
 0002:00003718       ??_C@_1BE@DKAAMBJL@?$AAS?$AAe?$AAp?$AAt?$AAe?$AAm?$AAb?$AAe?$AAr@ 10024718     libucrt:nlsdata.obj
 0002:0000372c       ??_C@_1BA@EPANDLNG@?$AAO?$AAc?$AAt?$AAo?$AAb?$AAe?$AAr@ 1002472c     libucrt:nlsdata.obj
 0002:0000373c       ??_C@_1BC@BGLIFPF@?$AAN?$AAo?$AAv?$AAe?$AAm?$AAb?$AAe?$AAr@ 1002473c     libucrt:nlsdata.obj
 0002:00003750       ??_C@_1BC@FEMKIFH@?$AAD?$AAe?$AAc?$AAe?$AAm?$AAb?$AAe?$AAr@ 10024750     libucrt:nlsdata.obj
 0002:00003764       ??_C@_15ODEHAHHF@?$AAA?$AAM@ 10024764     libucrt:nlsdata.obj
 0002:0000376c       ??_C@_15CLMNNGEL@?$AAP?$AAM@ 1002476c     libucrt:nlsdata.obj
 0002:00003774       ??_C@_1BC@IEBCMHCM@?$AAM?$AAM?$AA?1?$AAd?$AAd?$AA?1?$AAy?$AAy@ 10024774     libucrt:nlsdata.obj
 0002:00003788       ??_C@_1CI@KNAKOEBC@?$AAd?$AAd?$AAd?$AAd?$AA?0?$AA?5?$AAM?$AAM?$AAM?$AAM?$AA?5?$AAd?$AAd?$AA?0?$AA?5@ 10024788     libucrt:nlsdata.obj
 0002:000037b0       ??_C@_1BC@GDGBMEMK@?$AAH?$AAH?$AA?3?$AAm?$AAm?$AA?3?$AAs?$AAs@ 100247b0     libucrt:nlsdata.obj
 0002:000037c4       ??_C@_1M@BMHNFIME@?$AAe?$AAn?$AA?9?$AAU?$AAS@ 100247c4     libucrt:nlsdata.obj
 0002:000037e0       ??_C@_1M@HPNHIDJI@?$AAj?$AAa?$AA?9?$AAJ?$AAP@ 100247e0     libucrt:mbctype.obj
 0002:000037ec       ??_C@_1M@BIBDDEMK@?$AAz?$AAh?$AA?9?$AAC?$AAN@ 100247ec     libucrt:mbctype.obj
 0002:000037f8       ??_C@_1M@JLOOOEGK@?$AAk?$AAo?$AA?9?$AAK?$AAR@ 100247f8     libucrt:mbctype.obj
 0002:00003804       ??_C@_1M@CLNBBOPM@?$AAz?$AAh?$AA?9?$AAT?$AAW@ 10024804     libucrt:mbctype.obj
 0002:00003810       ___newctype                10024810     libucrt:ctype.obj
 0002:00003b10       ___newclmap                10024b10     libucrt:ctype.obj
 0002:00003c90       ___newcumap                10024c90     libucrt:ctype.obj
 0002:00003e10       __wctype                   10024e10     libucrt:ctype.obj
 0002:00004738       ??_C@_15EMKDOKLE@?$AAa?$AAr@ 10025738     libucrt:lcidtoname_downlevel.obj
 0002:00004740       ??_C@_15KNPADPLH@?$AAb?$AAg@ 10025740     libucrt:lcidtoname_downlevel.obj
 0002:00004748       ??_C@_15EDMHLDMO@?$AAc?$AAa@ 10025748     libucrt:lcidtoname_downlevel.obj
 0002:00004750       ??_C@_1O@BPEAJADD@?$AAz?$AAh?$AA?9?$AAC?$AAH?$AAS@ 10025750     libucrt:lcidtoname_downlevel.obj
 0002:00004760       ??_C@_15LJNHCMNK@?$AAc?$AAs@ 10025760     libucrt:lcidtoname_downlevel.obj
 0002:00004768       ??_C@_15FOMCIDHG@?$AAd?$AAa@ 10025768     libucrt:lcidtoname_downlevel.obj
 0002:00004770       ??_C@_15NBKABECB@?$AAd?$AAe@ 10025770     libucrt:lcidtoname_downlevel.obj
 0002:00004778       ??_C@_15GHPEIIAO@?$AAe?$AAl@ 10025778     libucrt:lcidtoname_downlevel.obj
 0002:00004780       ??_C@_15MNPNEAIF@?$AAe?$AAn@ 10025780     libucrt:lcidtoname_downlevel.obj
 0002:00004788       ??_C@_15GPIOMPMH@?$AAe?$AAs@ 10025788     libucrt:lcidtoname_downlevel.obj
 0002:00004790       ??_C@_15NGLOAKJC@?$AAf?$AAi@ 10025790     libucrt:lcidtoname_downlevel.obj
 0002:00004798       ??_C@_15FBKGNKAM@?$AAf?$AAr@ 10025798     libucrt:lcidtoname_downlevel.obj
 0002:000047a0       ??_C@_15KGGCNEFK@?$AAh?$AAe@ 100257a0     libucrt:lcidtoname_downlevel.obj
 0002:000047a8       ??_C@_15PGHLIDMF@?$AAh?$AAu@ 100257a8     libucrt:lcidtoname_downlevel.obj
 0002:000047b0       ??_C@_15BIEMAPLM@?$AAi?$AAs@ 100257b0     libucrt:lcidtoname_downlevel.obj
 0002:000047b8       ??_C@_15IFJLDHAF@?$AAi?$AAt@ 100257b8     libucrt:lcidtoname_downlevel.obj
 0002:000047c0       ??_C@_15GEMIOCAG@?$AAj?$AAa@ 100257c0     libucrt:lcidtoname_downlevel.obj
 0002:000047c8       ??_C@_15EPELEGJA@?$AAk?$AAo@ 100257c8     libucrt:lcidtoname_downlevel.obj
 0002:000047d0       ??_C@_15NDDHIMN@?$AAn?$AAl@ 100257d0     libucrt:lcidtoname_downlevel.obj
 0002:000047d8       ??_C@_15BPIGNHCD@?$AAn?$AAo@ 100257d8     libucrt:lcidtoname_downlevel.obj
 0002:000047e0       ??_C@_15DEOPBLCG@?$AAp?$AAl@ 100257e0     libucrt:lcidtoname_downlevel.obj
 0002:000047e8       ??_C@_15KBECGEFG@?$AAp?$AAt@ 100257e8     libucrt:lcidtoname_downlevel.obj
 0002:000047f0       ??_C@_15GLJCBFMD@?$AAr?$AAo@ 100257f0     libucrt:lcidtoname_downlevel.obj
 0002:000047f8       ??_C@_15FEDGKCDI@?$AAr?$AAu@ 100257f8     libucrt:lcidtoname_downlevel.obj
 0002:00004800       ??_C@_15GLKMLLHM@?$AAh?$AAr@ 10025800     libucrt:lcidtoname_downlevel.obj
 0002:00004808       ??_C@_15CPKMFBDB@?$AAs?$AAk@ 10025808     libucrt:lcidtoname_downlevel.obj
 0002:00004810       ??_C@_15BAAIOGMK@?$AAs?$AAq@ 10025810     libucrt:lcidtoname_downlevel.obj
 0002:00004818       ??_C@_15INNPNOHD@?$AAs?$AAv@ 10025818     libucrt:lcidtoname_downlevel.obj
 0002:00004820       ??_C@_15CABMMOGH@?$AAt?$AAh@ 10025820     libucrt:lcidtoname_downlevel.obj
 0002:00004828       ??_C@_15BPLIHJJM@?$AAt?$AAr@ 10025828     libucrt:lcidtoname_downlevel.obj
 0002:00004830       ??_C@_15NEOEKKDJ@?$AAu?$AAr@ 10025830     libucrt:lcidtoname_downlevel.obj
 0002:00004838       ??_C@_15NFICGAJK@?$AAi?$AAd@ 10025838     libucrt:lcidtoname_downlevel.obj
 0002:00004840       ??_C@_15PJPFLCCM@?$AAu?$AAk@ 10025840     libucrt:lcidtoname_downlevel.obj
 0002:00004848       ??_C@_15HPJPHDM@?$AAb?$AAe@ 10025848     libucrt:lcidtoname_downlevel.obj
 0002:00004850       ??_C@_15LCHLGJII@?$AAs?$AAl@ 10025850     libucrt:lcidtoname_downlevel.obj
 0002:00004858       ??_C@_15PCFJPHHO@?$AAe?$AAt@ 10025858     libucrt:lcidtoname_downlevel.obj
 0002:00004860       ??_C@_15HPFPGODN@?$AAl?$AAv@ 10025860     libucrt:lcidtoname_downlevel.obj
 0002:00004868       ??_C@_15NFFGKGLG@?$AAl?$AAt@ 10025868     libucrt:lcidtoname_downlevel.obj
 0002:00004870       ??_C@_15BDAKCCHN@?$AAf?$AAa@ 10025870     libucrt:lcidtoname_downlevel.obj
 0002:00004878       ??_C@_15NFGIAIAJ@?$AAv?$AAi@ 10025878     libucrt:lcidtoname_downlevel.obj
 0002:00004880       ??_C@_15LMKNDMHN@?$AAh?$AAy@ 10025880     libucrt:lcidtoname_downlevel.obj
 0002:00004888       ??_C@_15IJBHMCFL@?$AAa?$AAz@ 10025888     libucrt:lcidtoname_downlevel.obj
 0002:00004890       ??_C@_15EKOFJABL@?$AAe?$AAu@ 10025890     libucrt:lcidtoname_downlevel.obj
 0002:00004898       ??_C@_15BGHADCNK@?$AAm?$AAk@ 10025898     libucrt:lcidtoname_downlevel.obj
 0002:000048a0       ??_C@_15JDNICKHM@?$AAa?$AAf@ 100258a0     libucrt:lcidtoname_downlevel.obj
 0002:000048a8       ??_C@_15KPJEDBKD@?$AAk?$AAa@ 100258a8     libucrt:lcidtoname_downlevel.obj
 0002:000048b0       ??_C@_15PDNFFFEO@?$AAf?$AAo@ 100258b0     libucrt:lcidtoname_downlevel.obj
 0002:000048b8       ??_C@_15OMLEGLOC@?$AAh?$AAi@ 100258b8     libucrt:lcidtoname_downlevel.obj
 0002:000048c0       ??_C@_15IDNNENKK@?$AAm?$AAs@ 100258c0     libucrt:lcidtoname_downlevel.obj
 0002:000048c8       ??_C@_15MACJNBMH@?$AAk?$AAk@ 100258c8     libucrt:lcidtoname_downlevel.obj
 0002:000048d0       ??_C@_15DKDJEOND@?$AAk?$AAy@ 100258d0     libucrt:lcidtoname_downlevel.obj
 0002:000048d8       ??_C@_15DFGDLJBG@?$AAs?$AAw@ 100258d8     libucrt:lcidtoname_downlevel.obj
 0002:000048e0       ??_C@_15BBFAICNG@?$AAu?$AAz@ 100258e0     libucrt:lcidtoname_downlevel.obj
 0002:000048e8       ??_C@_15DKNDCGEA@?$AAt?$AAt@ 100258e8     libucrt:lcidtoname_downlevel.obj
 0002:000048f0       ??_C@_15MGIFMDPL@?$AAp?$AAa@ 100258f0     libucrt:lcidtoname_downlevel.obj
 0002:000048f8       ??_C@_15HCNDBBA@?$AAg?$AAu@ 100258f8     libucrt:lcidtoname_downlevel.obj
 0002:00004900       ??_C@_15FNBEIBON@?$AAt?$AAa@ 10025900     libucrt:lcidtoname_downlevel.obj
 0002:00004908       ??_C@_15NCHGBGLK@?$AAt?$AAe@ 10025908     libucrt:lcidtoname_downlevel.obj
 0002:00004910       ??_C@_15PHPHCBPF@?$AAk?$AAn@ 10025910     libucrt:lcidtoname_downlevel.obj
 0002:00004918       ??_C@_15DLGBCKMP@?$AAm?$AAr@ 10025918     libucrt:lcidtoname_downlevel.obj
 0002:00004920       ??_C@_15EABBLBFF@?$AAs?$AAa@ 10025920     libucrt:lcidtoname_downlevel.obj
 0002:00004928       ??_C@_15CBKOMCOI@?$AAm?$AAn@ 10025928     libucrt:lcidtoname_downlevel.obj
 0002:00004930       ??_C@_15CKDMCJAF@?$AAg?$AAl@ 10025930     libucrt:lcidtoname_downlevel.obj
 0002:00004938       ??_C@_17CNJFBPG@?$AAk?$AAo?$AAk@ 10025938     libucrt:lcidtoname_downlevel.obj
 0002:00004940       ??_C@_17FFBJICPL@?$AAs?$AAy?$AAr@ 10025940     libucrt:lcidtoname_downlevel.obj
 0002:00004948       ??_C@_17KPNDCPAF@?$AAd?$AAi?$AAv@ 10025948     libucrt:lcidtoname_downlevel.obj
 0002:00004950       ??_C@_1M@OKAHONE@?$AAa?$AAr?$AA?9?$AAS?$AAA@ 10025950     libucrt:lcidtoname_downlevel.obj
 0002:0000495c       ??_C@_1M@FFFIGIGK@?$AAb?$AAg?$AA?9?$AAB?$AAG@ 1002595c     libucrt:lcidtoname_downlevel.obj
 0002:00004968       ??_C@_1M@BJNKEDC@?$AAc?$AAa?$AA?9?$AAE?$AAS@ 10025968     libucrt:lcidtoname_downlevel.obj
 0002:00004974       ??_C@_1M@IJJHFJHA@?$AAc?$AAs?$AA?9?$AAC?$AAZ@ 10025974     libucrt:lcidtoname_downlevel.obj
 0002:00004980       ??_C@_1M@CLPEOBGI@?$AAd?$AAa?$AA?9?$AAD?$AAK@ 10025980     libucrt:lcidtoname_downlevel.obj
 0002:0000498c       ??_C@_1M@MCMADGCB@?$AAd?$AAe?$AA?9?$AAD?$AAE@ 1002598c     libucrt:lcidtoname_downlevel.obj
 0002:00004998       ??_C@_1M@OOCKEMAM@?$AAe?$AAl?$AA?9?$AAG?$AAR@ 10025998     libucrt:lcidtoname_downlevel.obj
 0002:000049a4       ??_C@_1M@DDNJFGID@?$AAf?$AAi?$AA?9?$AAF?$AAI@ 100259a4     libucrt:lcidtoname_downlevel.obj
 0002:000049b0       ??_C@_1M@GLIPPMAC@?$AAf?$AAr?$AA?9?$AAF?$AAR@ 100259b0     libucrt:lcidtoname_downlevel.obj
 0002:000049bc       ??_C@_1M@GFMCHPE@?$AAh?$AAe?$AA?9?$AAI?$AAL@ 100259bc     libucrt:lcidtoname_downlevel.obj
 0002:000049c8       ??_C@_1M@MHLPGNKM@?$AAh?$AAu?$AA?9?$AAH?$AAU@ 100259c8     libucrt:lcidtoname_downlevel.obj
 0002:000049d4       ??_C@_1M@LPDDNNPN@?$AAi?$AAs?$AA?9?$AAI?$AAS@ 100259d4     libucrt:lcidtoname_downlevel.obj
 0002:000049e0       ??_C@_1M@MADIPODN@?$AAi?$AAt?$AA?9?$AAI?$AAT@ 100259e0     libucrt:lcidtoname_downlevel.obj
 0002:000049ec       ??_C@_1M@IHBJJGG@?$AAn?$AAl?$AA?9?$AAN?$AAL@ 100259ec     libucrt:lcidtoname_downlevel.obj
 0002:000049f8       ??_C@_1M@EANAGDL@?$AAn?$AAb?$AA?9?$AAN?$AAO@ 100259f8     libucrt:lcidtoname_downlevel.obj
 0002:00004a04       ??_C@_1M@NEIEMEGP@?$AAp?$AAl?$AA?9?$AAP?$AAL@ 10025a04     libucrt:lcidtoname_downlevel.obj
 0002:00004a10       ??_C@_1M@BOCFIGEP@?$AAp?$AAt?$AA?9?$AAB?$AAR@ 10025a10     libucrt:lcidtoname_downlevel.obj
 0002:00004a1c       ??_C@_1M@IMPFOPBG@?$AAr?$AAo?$AA?9?$AAR?$AAO@ 10025a1c     libucrt:lcidtoname_downlevel.obj
 0002:00004a28       ??_C@_1M@IDNNEJMM@?$AAr?$AAu?$AA?9?$AAR?$AAU@ 10025a28     libucrt:lcidtoname_downlevel.obj
 0002:00004a34       ??_C@_1M@LILEEOGM@?$AAh?$AAr?$AA?9?$AAH?$AAR@ 10025a34     libucrt:lcidtoname_downlevel.obj
 0002:00004a40       ??_C@_1M@FKIFEHPB@?$AAs?$AAk?$AA?9?$AAS?$AAK@ 10025a40     libucrt:lcidtoname_downlevel.obj
 0002:00004a4c       ??_C@_1M@LJMAMNPJ@?$AAs?$AAq?$AA?9?$AAA?$AAL@ 10025a4c     libucrt:lcidtoname_downlevel.obj
 0002:00004a58       ??_C@_1M@GIAKDKJK@?$AAs?$AAv?$AA?9?$AAS?$AAE@ 10025a58     libucrt:lcidtoname_downlevel.obj
 0002:00004a64       ??_C@_1M@MKJKIKCL@?$AAt?$AAh?$AA?9?$AAT?$AAH@ 10025a64     libucrt:lcidtoname_downlevel.obj
 0002:00004a70       ??_C@_1M@MFLCCMPB@?$AAt?$AAr?$AA?9?$AAT?$AAR@ 10025a70     libucrt:lcidtoname_downlevel.obj
 0002:00004a7c       ??_C@_1M@OIJHDKJN@?$AAu?$AAr?$AA?9?$AAP?$AAK@ 10025a7c     libucrt:lcidtoname_downlevel.obj
 0002:00004a88       ??_C@_1M@LHIPCIEK@?$AAi?$AAd?$AA?9?$AAI?$AAD@ 10025a88     libucrt:lcidtoname_downlevel.obj
 0002:00004a94       ??_C@_1M@MFMOBGI@?$AAu?$AAk?$AA?9?$AAU?$AAA@ 10025a94     libucrt:lcidtoname_downlevel.obj
 0002:00004aa0       ??_C@_1M@OBGLJIPL@?$AAb?$AAe?$AA?9?$AAB?$AAY@ 10025aa0     libucrt:lcidtoname_downlevel.obj
 0002:00004aac       ??_C@_1M@BCFAJEAD@?$AAs?$AAl?$AA?9?$AAS?$AAI@ 10025aac     libucrt:lcidtoname_downlevel.obj
 0002:00004ab8       ??_C@_1M@FKFFEDDN@?$AAe?$AAt?$AA?9?$AAE?$AAE@ 10025ab8     libucrt:lcidtoname_downlevel.obj
 0002:00004ac4       ??_C@_1M@KGKKAACI@?$AAl?$AAv?$AA?9?$AAL?$AAV@ 10025ac4     libucrt:lcidtoname_downlevel.obj
 0002:00004ad0       ??_C@_1M@IFGBIJO@?$AAl?$AAt?$AA?9?$AAL?$AAT@ 10025ad0     libucrt:lcidtoname_downlevel.obj
 0002:00004adc       ??_C@_1M@FGEAHEDM@?$AAf?$AAa?$AA?9?$AAI?$AAR@ 10025adc     libucrt:lcidtoname_downlevel.obj
 0002:00004ae8       ??_C@_1M@KBMAIBFN@?$AAv?$AAi?$AA?9?$AAV?$AAN@ 10025ae8     libucrt:lcidtoname_downlevel.obj
 0002:00004af4       ??_C@_1M@GPCBKDJK@?$AAh?$AAy?$AA?9?$AAA?$AAM@ 10025af4     libucrt:lcidtoname_downlevel.obj
 0002:00004b00       ??_C@_1BG@BECMDDJB@?$AAa?$AAz?$AA?9?$AAA?$AAZ?$AA?9?$AAL?$AAa?$AAt?$AAn@ 10025b00     libucrt:lcidtoname_downlevel.obj
 0002:00004b18       ??_C@_1M@MAOFCAEA@?$AAe?$AAu?$AA?9?$AAE?$AAS@ 10025b18     libucrt:lcidtoname_downlevel.obj
 0002:00004b24       ??_C@_1M@IGHABKPI@?$AAm?$AAk?$AA?9?$AAM?$AAK@ 10025b24     libucrt:lcidtoname_downlevel.obj
 0002:00004b30       ??_C@_1M@IAIGNEJG@?$AAt?$AAn?$AA?9?$AAZ?$AAA@ 10025b30     libucrt:lcidtoname_downlevel.obj
 0002:00004b3c       ??_C@_1M@IIJCOJFA@?$AAx?$AAh?$AA?9?$AAZ?$AAA@ 10025b3c     libucrt:lcidtoname_downlevel.obj
 0002:00004b48       ??_C@_1M@LGPJHNJH@?$AAz?$AAu?$AA?9?$AAZ?$AAA@ 10025b48     libucrt:lcidtoname_downlevel.obj
 0002:00004b54       ??_C@_1M@HOKAOIO@?$AAa?$AAf?$AA?9?$AAZ?$AAA@ 10025b54     libucrt:lcidtoname_downlevel.obj
 0002:00004b60       ??_C@_1M@DPCLHLIE@?$AAk?$AAa?$AA?9?$AAG?$AAE@ 10025b60     libucrt:lcidtoname_downlevel.obj
 0002:00004b6c       ??_C@_1M@BLKMHJBI@?$AAf?$AAo?$AA?9?$AAF?$AAO@ 10025b6c     libucrt:lcidtoname_downlevel.obj
 0002:00004b78       ??_C@_1M@LGGJAPPB@?$AAh?$AAi?$AA?9?$AAI?$AAN@ 10025b78     libucrt:lcidtoname_downlevel.obj
 0002:00004b84       ??_C@_1M@FIKPIHFE@?$AAm?$AAt?$AA?9?$AAM?$AAT@ 10025b84     libucrt:lcidtoname_downlevel.obj
 0002:00004b90       ??_C@_1M@HEGGPBFA@?$AAs?$AAe?$AA?9?$AAN?$AAO@ 10025b90     libucrt:lcidtoname_downlevel.obj
 0002:00004b9c       ??_C@_1M@EIBJEEPA@?$AAm?$AAs?$AA?9?$AAM?$AAY@ 10025b9c     libucrt:lcidtoname_downlevel.obj
 0002:00004ba8       ??_C@_1M@FHLBGMPP@?$AAk?$AAk?$AA?9?$AAK?$AAZ@ 10025ba8     libucrt:lcidtoname_downlevel.obj
 0002:00004bb4       ??_C@_1M@NGJJLCGI@?$AAk?$AAy?$AA?9?$AAK?$AAG@ 10025bb4     libucrt:lcidtoname_downlevel.obj
 0002:00004bc0       ??_C@_1M@GIENNBFC@?$AAs?$AAw?$AA?9?$AAK?$AAE@ 10025bc0     libucrt:lcidtoname_downlevel.obj
 0002:00004bcc       ??_C@_1BG@NDGMJIMJ@?$AAu?$AAz?$AA?9?$AAU?$AAZ?$AA?9?$AAL?$AAa?$AAt?$AAn@ 10025bcc     libucrt:lcidtoname_downlevel.obj
 0002:00004be4       ??_C@_1M@IDCCIHBC@?$AAt?$AAt?$AA?9?$AAR?$AAU@ 10025be4     libucrt:lcidtoname_downlevel.obj
 0002:00004bf0       ??_C@_1M@LOICPMOJ@?$AAb?$AAn?$AA?9?$AAI?$AAN@ 10025bf0     libucrt:lcidtoname_downlevel.obj
 0002:00004bfc       ??_C@_1M@KPKKNEAH@?$AAp?$AAa?$AA?9?$AAI?$AAN@ 10025bfc     libucrt:lcidtoname_downlevel.obj
 0002:00004c08       ??_C@_1M@PJGPPBOG@?$AAg?$AAu?$AA?9?$AAI?$AAN@ 10025c08     libucrt:lcidtoname_downlevel.obj
 0002:00004c14       ??_C@_1M@KMKMOPHI@?$AAt?$AAa?$AA?9?$AAI?$AAN@ 10025c14     libucrt:lcidtoname_downlevel.obj
 0002:00004c20       ??_C@_1M@KFEHEPAC@?$AAt?$AAe?$AA?9?$AAI?$AAN@ 10025c20     libucrt:lcidtoname_downlevel.obj
 0002:00004c2c       ??_C@_1M@CDCLMGHI@?$AAk?$AAn?$AA?9?$AAI?$AAN@ 10025c2c     libucrt:lcidtoname_downlevel.obj
 0002:00004c38       ??_C@_1M@MIODLDKF@?$AAm?$AAl?$AA?9?$AAI?$AAN@ 10025c38     libucrt:lcidtoname_downlevel.obj
 0002:00004c44       ??_C@_1M@PBIEACPO@?$AAm?$AAr?$AA?9?$AAI?$AAN@ 10025c44     libucrt:lcidtoname_downlevel.obj
 0002:00004c50       ??_C@_1M@NIDEAGPH@?$AAs?$AAa?$AA?9?$AAI?$AAN@ 10025c50     libucrt:lcidtoname_downlevel.obj
 0002:00004c5c       ??_C@_1M@FHIHCBIO@?$AAm?$AAn?$AA?9?$AAM?$AAN@ 10025c5c     libucrt:lcidtoname_downlevel.obj
 0002:00004c68       ??_C@_1M@JAIJPENP@?$AAc?$AAy?$AA?9?$AAG?$AAB@ 10025c68     libucrt:lcidtoname_downlevel.obj
 0002:00004c74       ??_C@_1M@PHGFBEPN@?$AAg?$AAl?$AA?9?$AAE?$AAS@ 10025c74     libucrt:lcidtoname_downlevel.obj
 0002:00004c80       ??_C@_1O@KPIPDNCP@?$AAk?$AAo?$AAk?$AA?9?$AAI?$AAN@ 10025c80     libucrt:lcidtoname_downlevel.obj
 0002:00004c90       ??_C@_1O@KNHJLDJA@?$AAs?$AAy?$AAr?$AA?9?$AAS?$AAY@ 10025c90     libucrt:lcidtoname_downlevel.obj
 0002:00004ca0       ??_C@_1O@MKEKBLAH@?$AAd?$AAi?$AAv?$AA?9?$AAM?$AAV@ 10025ca0     libucrt:lcidtoname_downlevel.obj
 0002:00004cb0       ??_C@_1O@OHDCKDDF@?$AAq?$AAu?$AAz?$AA?9?$AAB?$AAO@ 10025cb0     libucrt:lcidtoname_downlevel.obj
 0002:00004cc0       ??_C@_1M@LEPJNLFD@?$AAn?$AAs?$AA?9?$AAZ?$AAA@ 10025cc0     libucrt:lcidtoname_downlevel.obj
 0002:00004ccc       ??_C@_1M@OMLEIIJB@?$AAm?$AAi?$AA?9?$AAN?$AAZ@ 10025ccc     libucrt:lcidtoname_downlevel.obj
 0002:00004cd8       ??_C@_1M@PMPEAILG@?$AAa?$AAr?$AA?9?$AAI?$AAQ@ 10025cd8     libucrt:lcidtoname_downlevel.obj
 0002:00004ce4       ??_C@_1M@CNKPNOEE@?$AAd?$AAe?$AA?9?$AAC?$AAH@ 10025ce4     libucrt:lcidtoname_downlevel.obj
 0002:00004cf0       ??_C@_1M@LKMGMLKO@?$AAe?$AAn?$AA?9?$AAG?$AAB@ 10025cf0     libucrt:lcidtoname_downlevel.obj
 0002:00004cfc       ??_C@_1M@PGKJFFGL@?$AAe?$AAs?$AA?9?$AAM?$AAX@ 10025cfc     libucrt:lcidtoname_downlevel.obj
 0002:00004d08       ??_C@_1M@DNNANBDC@?$AAf?$AAr?$AA?9?$AAB?$AAE@ 10025d08     libucrt:lcidtoname_downlevel.obj
 0002:00004d14       ??_C@_1M@HLGMDFHM@?$AAi?$AAt?$AA?9?$AAC?$AAH@ 10025d14     libucrt:lcidtoname_downlevel.obj
 0002:00004d20       ??_C@_1M@CLLBGJH@?$AAn?$AAl?$AA?9?$AAB?$AAE@ 10025d20     libucrt:lcidtoname_downlevel.obj
 0002:00004d2c       ??_C@_1M@BODBOGLF@?$AAn?$AAn?$AA?9?$AAN?$AAO@ 10025d2c     libucrt:lcidtoname_downlevel.obj
 0002:00004d38       ??_C@_1M@HFFAHKAD@?$AAp?$AAt?$AA?9?$AAP?$AAT@ 10025d38     libucrt:lcidtoname_downlevel.obj
 0002:00004d44       ??_C@_1BG@LNOAKHIE@?$AAs?$AAr?$AA?9?$AAS?$AAP?$AA?9?$AAL?$AAa?$AAt?$AAn@ 10025d44     libucrt:lcidtoname_downlevel.obj
 0002:00004d5c       ??_C@_1M@HBMHBGAK@?$AAs?$AAv?$AA?9?$AAF?$AAI@ 10025d5c     libucrt:lcidtoname_downlevel.obj
 0002:00004d68       ??_C@_1BG@DGCJGJBE@?$AAa?$AAz?$AA?9?$AAA?$AAZ?$AA?9?$AAC?$AAy?$AAr?$AAl@ 10025d68     libucrt:lcidtoname_downlevel.obj
 0002:00004d80       ??_C@_1M@KEJDAAHB@?$AAs?$AAe?$AA?9?$AAS?$AAE@ 10025d80     libucrt:lcidtoname_downlevel.obj
 0002:00004d8c       ??_C@_1M@HEIBJJAD@?$AAm?$AAs?$AA?9?$AAB?$AAN@ 10025d8c     libucrt:lcidtoname_downlevel.obj
 0002:00004d98       ??_C@_1BG@PBGJMCEM@?$AAu?$AAz?$AA?9?$AAU?$AAZ?$AA?9?$AAC?$AAy?$AAr?$AAl@ 10025d98     libucrt:lcidtoname_downlevel.obj
 0002:00004db0       ??_C@_1O@LAOBCMDF@?$AAq?$AAu?$AAz?$AA?9?$AAE?$AAC@ 10025db0     libucrt:lcidtoname_downlevel.obj
 0002:00004dc0       ??_C@_1M@POEEMAIO@?$AAa?$AAr?$AA?9?$AAE?$AAG@ 10025dc0     libucrt:lcidtoname_downlevel.obj
 0002:00004dcc       ??_C@_1M@EFAKDEDL@?$AAz?$AAh?$AA?9?$AAH?$AAK@ 10025dcc     libucrt:lcidtoname_downlevel.obj
 0002:00004dd8       ??_C@_1M@HKKIJHGI@?$AAd?$AAe?$AA?9?$AAA?$AAT@ 10025dd8     libucrt:lcidtoname_downlevel.obj
 0002:00004de4       ??_C@_1M@KBFBEHJF@?$AAe?$AAn?$AA?9?$AAA?$AAU@ 10025de4     libucrt:lcidtoname_downlevel.obj
 0002:00004df0       ??_C@_1M@MNPLFAAH@?$AAe?$AAs?$AA?9?$AAE?$AAS@ 10025df0     libucrt:lcidtoname_downlevel.obj
 0002:00004dfc       ??_C@_1M@HJOOJFMA@?$AAf?$AAr?$AA?9?$AAC?$AAA@ 10025dfc     libucrt:lcidtoname_downlevel.obj
 0002:00004e08       ??_C@_1BG@JPOFPNAB@?$AAs?$AAr?$AA?9?$AAS?$AAP?$AA?9?$AAC?$AAy?$AAr?$AAl@ 10025e08     libucrt:lcidtoname_downlevel.obj
 0002:00004e20       ??_C@_1M@LNFOCMOB@?$AAs?$AAe?$AA?9?$AAF?$AAI@ 10025e20     libucrt:lcidtoname_downlevel.obj
 0002:00004e2c       ??_C@_1O@MGJBOAMB@?$AAq?$AAu?$AAz?$AA?9?$AAP?$AAE@ 10025e2c     libucrt:lcidtoname_downlevel.obj
 0002:00004e3c       ??_C@_1M@GJINLBOK@?$AAa?$AAr?$AA?9?$AAL?$AAY@ 10025e3c     libucrt:lcidtoname_downlevel.obj
 0002:00004e48       ??_C@_1M@GGMNHJNL@?$AAz?$AAh?$AA?9?$AAS?$AAG@ 10025e48     libucrt:lcidtoname_downlevel.obj
 0002:00004e54       ??_C@_1M@HOIKODND@?$AAd?$AAe?$AA?9?$AAL?$AAU@ 10025e54     libucrt:lcidtoname_downlevel.obj
 0002:00004e60       ??_C@_1M@DDOCCGFG@?$AAe?$AAn?$AA?9?$AAC?$AAA@ 10025e60     libucrt:lcidtoname_downlevel.obj
 0002:00004e6c       ??_C@_1M@BNOEMJLF@?$AAe?$AAs?$AA?9?$AAG?$AAT@ 10025e6c     libucrt:lcidtoname_downlevel.obj
 0002:00004e78       ??_C@_1M@EOGNKEK@?$AAf?$AAr?$AA?9?$AAC?$AAH@ 10025e78     libucrt:lcidtoname_downlevel.obj
 0002:00004e84       ??_C@_1M@FLIDJFHL@?$AAh?$AAr?$AA?9?$AAB?$AAA@ 10025e84     libucrt:lcidtoname_downlevel.obj
 0002:00004e90       ??_C@_1O@FMCELNAJ@?$AAs?$AAm?$AAj?$AA?9?$AAN?$AAO@ 10025e90     libucrt:lcidtoname_downlevel.obj
 0002:00004ea0       ??_C@_1M@JHGLJMGJ@?$AAa?$AAr?$AA?9?$AAD?$AAZ@ 10025ea0     libucrt:lcidtoname_downlevel.obj
 0002:00004eac       ??_C@_1M@JKKFDCNP@?$AAz?$AAh?$AA?9?$AAM?$AAO@ 10025eac     libucrt:lcidtoname_downlevel.obj
 0002:00004eb8       ??_C@_1M@GEEFALPE@?$AAd?$AAe?$AA?9?$AAL?$AAI@ 10025eb8     libucrt:lcidtoname_downlevel.obj
 0002:00004ec4       ??_C@_1M@IGEOFBG@?$AAe?$AAn?$AA?9?$AAN?$AAZ@ 10025ec4     libucrt:lcidtoname_downlevel.obj
 0002:00004ed0       ??_C@_1M@KDBONEHP@?$AAe?$AAs?$AA?9?$AAC?$AAR@ 10025ed0     libucrt:lcidtoname_downlevel.obj
 0002:00004edc       ??_C@_1M@FHMDOHNN@?$AAf?$AAr?$AA?9?$AAL?$AAU@ 10025edc     libucrt:lcidtoname_downlevel.obj
 0002:00004ee8       ??_C@_1BG@NFKKMAFG@?$AAb?$AAs?$AA?9?$AAB?$AAA?$AA?9?$AAL?$AAa?$AAt?$AAn@ 10025ee8     libucrt:lcidtoname_downlevel.obj
 0002:00004f00       ??_C@_1O@IMNBEMCI@?$AAs?$AAm?$AAj?$AA?9?$AAS?$AAE@ 10025f00     libucrt:lcidtoname_downlevel.obj
 0002:00004f10       ??_C@_1M@DHHMBNDP@?$AAa?$AAr?$AA?9?$AAM?$AAA@ 10025f10     libucrt:lcidtoname_downlevel.obj
 0002:00004f1c       ??_C@_1M@BNBLJCGH@?$AAe?$AAn?$AA?9?$AAI?$AAE@ 10025f1c     libucrt:lcidtoname_downlevel.obj
 0002:00004f28       ??_C@_1M@GEPAFMDL@?$AAe?$AAs?$AA?9?$AAP?$AAA@ 10025f28     libucrt:lcidtoname_downlevel.obj
 0002:00004f34       ??_C@_1M@OJONDMDL@?$AAf?$AAr?$AA?9?$AAM?$AAC@ 10025f34     libucrt:lcidtoname_downlevel.obj
 0002:00004f40       ??_C@_1BG@OBCNFJB@?$AAs?$AAr?$AA?9?$AAB?$AAA?$AA?9?$AAL?$AAa?$AAt?$AAn@ 10025f40     libucrt:lcidtoname_downlevel.obj
 0002:00004f58       ??_C@_1O@KEMEEGPO@?$AAs?$AAm?$AAa?$AA?9?$AAN?$AAO@ 10025f58     libucrt:lcidtoname_downlevel.obj
 0002:00004f68       ??_C@_1M@ELMGFODK@?$AAa?$AAr?$AA?9?$AAT?$AAN@ 10025f68     libucrt:lcidtoname_downlevel.obj
 0002:00004f74       ??_C@_1M@BHDLHFAF@?$AAe?$AAn?$AA?9?$AAZ?$AAA@ 10025f74     libucrt:lcidtoname_downlevel.obj
 0002:00004f80       ??_C@_1M@BMGIGLIF@?$AAe?$AAs?$AA?9?$AAD?$AAO@ 10025f80     libucrt:lcidtoname_downlevel.obj
 0002:00004f8c       ??_C@_1BG@CMBHIPBE@?$AAs?$AAr?$AA?9?$AAB?$AAA?$AA?9?$AAC?$AAy?$AAr?$AAl@ 10025f8c     libucrt:lcidtoname_downlevel.obj
 0002:00004fa4       ??_C@_1O@HEDBLHNP@?$AAs?$AAm?$AAa?$AA?9?$AAS?$AAE@ 10025fa4     libucrt:lcidtoname_downlevel.obj
 0002:00004fb4       ??_C@_1M@DAGCADIM@?$AAa?$AAr?$AA?9?$AAO?$AAM@ 10025fb4     libucrt:lcidtoname_downlevel.obj
 0002:00004fc0       ??_C@_1M@FODLMICG@?$AAe?$AAn?$AA?9?$AAJ?$AAM@ 10025fc0     libucrt:lcidtoname_downlevel.obj
 0002:00004fcc       ??_C@_1M@DNMLCIHB@?$AAe?$AAs?$AA?9?$AAV?$AAE@ 10025fcc     libucrt:lcidtoname_downlevel.obj
 0002:00004fd8       ??_C@_1O@EOKHMKJK@?$AAs?$AAm?$AAs?$AA?9?$AAF?$AAI@ 10025fd8     libucrt:lcidtoname_downlevel.obj
 0002:00004fe8       ??_C@_1M@CAFJMKOF@?$AAa?$AAr?$AA?9?$AAY?$AAE@ 10025fe8     libucrt:lcidtoname_downlevel.obj
 0002:00004ff4       ??_C@_1M@CBFHIJLI@?$AAe?$AAn?$AA?9?$AAC?$AAB@ 10025ff4     libucrt:lcidtoname_downlevel.obj
 0002:00005000       ??_C@_1M@BGNFLDN@?$AAe?$AAs?$AA?9?$AAC?$AAO@ 10026000     libucrt:lcidtoname_downlevel.obj
 0002:0000500c       ??_C@_1O@JMPHMAMC@?$AAs?$AAm?$AAn?$AA?9?$AAF?$AAI@ 1002600c     libucrt:lcidtoname_downlevel.obj
 0002:0000501c       ??_C@_1M@JLANABKE@?$AAa?$AAr?$AA?9?$AAS?$AAY@ 1002601c     libucrt:lcidtoname_downlevel.obj
 0002:00005028       ??_C@_1M@HPKGCFGN@?$AAe?$AAn?$AA?9?$AAB?$AAZ@ 10026028     libucrt:lcidtoname_downlevel.obj
 0002:00005034       ??_C@_1M@OLJCMLGM@?$AAe?$AAs?$AA?9?$AAP?$AAE@ 10026034     libucrt:lcidtoname_downlevel.obj
 0002:00005040       ??_C@_1M@MKKGFKLE@?$AAa?$AAr?$AA?9?$AAJ?$AAO@ 10026040     libucrt:lcidtoname_downlevel.obj
 0002:0000504c       ??_C@_1M@EKPGLDNI@?$AAe?$AAn?$AA?9?$AAT?$AAT@ 1002604c     libucrt:lcidtoname_downlevel.obj
 0002:00005058       ??_C@_1M@OONGHFHE@?$AAe?$AAs?$AA?9?$AAA?$AAR@ 10026058     libucrt:lcidtoname_downlevel.obj
 0002:00005064       ??_C@_1M@OOJFGBHE@?$AAa?$AAr?$AA?9?$AAL?$AAB@ 10026064     libucrt:lcidtoname_downlevel.obj
 0002:00005070       ??_C@_1M@GCEJHNEG@?$AAe?$AAn?$AA?9?$AAZ?$AAW@ 10026070     libucrt:lcidtoname_downlevel.obj
 0002:0000507c       ??_C@_1M@JNOCAHJI@?$AAe?$AAs?$AA?9?$AAE?$AAC@ 1002607c     libucrt:lcidtoname_downlevel.obj
 0002:00005088       ??_C@_1M@JEFHPGGB@?$AAa?$AAr?$AA?9?$AAK?$AAW@ 10026088     libucrt:lcidtoname_downlevel.obj
 0002:00005094       ??_C@_1M@MLKIBJOJ@?$AAe?$AAn?$AA?9?$AAP?$AAH@ 10026094     libucrt:lcidtoname_downlevel.obj
 0002:000050a0       ??_C@_1M@BDNIPEND@?$AAe?$AAs?$AA?9?$AAC?$AAL@ 100260a0     libucrt:lcidtoname_downlevel.obj
 0002:000050ac       ??_C@_1M@MPNMEKBD@?$AAa?$AAr?$AA?9?$AAA?$AAE@ 100260ac     libucrt:lcidtoname_downlevel.obj
 0002:000050b8       ??_C@_1M@KBJALCPI@?$AAe?$AAs?$AA?9?$AAU?$AAY@ 100260b8     libucrt:lcidtoname_downlevel.obj
 0002:000050c4       ??_C@_1M@LLCCOAGA@?$AAa?$AAr?$AA?9?$AAB?$AAH@ 100260c4     libucrt:lcidtoname_downlevel.obj
 0002:000050d0       ??_C@_1M@PBFNCDEL@?$AAe?$AAs?$AA?9?$AAP?$AAY@ 100260d0     libucrt:lcidtoname_downlevel.obj
 0002:000050dc       ??_C@_1M@EDGINPNP@?$AAa?$AAr?$AA?9?$AAQ?$AAA@ 100260dc     libucrt:lcidtoname_downlevel.obj
 0002:000050e8       ??_C@_1M@MKDBIIJI@?$AAe?$AAs?$AA?9?$AAB?$AAO@ 100260e8     libucrt:lcidtoname_downlevel.obj
 0002:000050f4       ??_C@_1M@CPKKEBLD@?$AAe?$AAs?$AA?9?$AAS?$AAV@ 100260f4     libucrt:lcidtoname_downlevel.obj
 0002:00005100       ??_C@_1M@NDBGMMJL@?$AAe?$AAs?$AA?9?$AAH?$AAN@ 10026100     libucrt:lcidtoname_downlevel.obj
 0002:0000510c       ??_C@_1M@JIJIBHDP@?$AAe?$AAs?$AA?9?$AAN?$AAI@ 1002610c     libucrt:lcidtoname_downlevel.obj
 0002:00005118       ??_C@_1M@CGFMKEEK@?$AAe?$AAs?$AA?9?$AAP?$AAR@ 10026118     libucrt:lcidtoname_downlevel.obj
 0002:00005124       ??_C@_1O@ICJHKIIK@?$AAz?$AAh?$AA?9?$AAC?$AAH?$AAT@ 10026124     libucrt:lcidtoname_downlevel.obj
 0002:00005134       ??_C@_15CLNEJCE@?$AAs?$AAr@ 10026134     libucrt:lcidtoname_downlevel.obj
 0002:00005860       ??_C@_1M@KAHEKEIG@?$AAa?$AAf?$AA?9?$AAz?$AAa@ 10026860     libucrt:lcidtoname_downlevel.obj
 0002:0000586c       ??_C@_1M@GIECOABL@?$AAa?$AAr?$AA?9?$AAa?$AAe@ 1002686c     libucrt:lcidtoname_downlevel.obj
 0002:00005878       ??_C@_1M@BMLMEKGI@?$AAa?$AAr?$AA?9?$AAb?$AAh@ 10026878     libucrt:lcidtoname_downlevel.obj
 0002:00005884       ??_C@_1M@DAPFDGGB@?$AAa?$AAr?$AA?9?$AAd?$AAz@ 10026884     libucrt:lcidtoname_downlevel.obj
 0002:00005890       ??_C@_1M@FJNKGKIG@?$AAa?$AAr?$AA?9?$AAe?$AAg@ 10026890     libucrt:lcidtoname_downlevel.obj
 0002:0000589c       ??_C@_1M@FLGKKCLO@?$AAa?$AAr?$AA?9?$AAi?$AAq@ 1002689c     libucrt:lcidtoname_downlevel.obj
 0002:000058a8       ??_C@_1M@GNDIPALM@?$AAa?$AAr?$AA?9?$AAj?$AAo@ 100268a8     libucrt:lcidtoname_downlevel.obj
 0002:000058b4       ??_C@_1M@DDMJFMGJ@?$AAa?$AAr?$AA?9?$AAk?$AAw@ 100268b4     libucrt:lcidtoname_downlevel.obj
 0002:000058c0       ??_C@_1M@EJALMLHM@?$AAa?$AAr?$AA?9?$AAl?$AAb@ 100268c0     libucrt:lcidtoname_downlevel.obj
 0002:000058cc       ??_C@_1M@MOBDBLOC@?$AAa?$AAr?$AA?9?$AAl?$AAy@ 100268cc     libucrt:lcidtoname_downlevel.obj
 0002:000058d8       ??_C@_1M@JAOCLHDH@?$AAa?$AAr?$AA?9?$AAm?$AAa@ 100268d8     libucrt:lcidtoname_downlevel.obj
 0002:000058e4       ??_C@_1M@JHPMKJIE@?$AAa?$AAr?$AA?9?$AAo?$AAm@ 100268e4     libucrt:lcidtoname_downlevel.obj
 0002:000058f0       ??_C@_1M@OEPGHFNH@?$AAa?$AAr?$AA?9?$AAq?$AAa@ 100268f0     libucrt:lcidtoname_downlevel.obj
 0002:000058fc       ??_C@_1M@KJDONENM@?$AAa?$AAr?$AA?9?$AAs?$AAa@ 100268fc     libucrt:lcidtoname_downlevel.obj
 0002:00005908       ??_C@_1M@DMJDKLKM@?$AAa?$AAr?$AA?9?$AAs?$AAy@ 10026908     libucrt:lcidtoname_downlevel.obj
 0002:00005914       ??_C@_1M@OMFIPEDC@?$AAa?$AAr?$AA?9?$AAt?$AAn@ 10026914     libucrt:lcidtoname_downlevel.obj
 0002:00005920       ??_C@_1M@IHMHGAON@?$AAa?$AAr?$AA?9?$AAy?$AAe@ 10026920     libucrt:lcidtoname_downlevel.obj
 0002:0000592c       ??_C@_1BG@KDCPGJGB@?$AAa?$AAz?$AA?9?$AAa?$AAz?$AA?9?$AAc?$AAy?$AAr?$AAl@ 1002692c     libucrt:lcidtoname_downlevel.obj
 0002:00005944       ??_C@_1BG@IBCKDDOE@?$AAa?$AAz?$AA?9?$AAa?$AAz?$AA?9?$AAl?$AAa?$AAt?$AAn@ 10026944     libucrt:lcidtoname_downlevel.obj
 0002:0000595c       ??_C@_1M@EGPFDCPD@?$AAb?$AAe?$AA?9?$AAb?$AAy@ 1002695c     libucrt:lcidtoname_downlevel.obj
 0002:00005968       ??_C@_1M@PCMGMCGC@?$AAb?$AAg?$AA?9?$AAb?$AAg@ 10026968     libucrt:lcidtoname_downlevel.obj
 0002:00005974       ??_C@_1M@BJBMFGOB@?$AAb?$AAn?$AA?9?$AAi?$AAn@ 10026974     libucrt:lcidtoname_downlevel.obj
 0002:00005980       ??_C@_1BG@EAKMMACD@?$AAb?$AAs?$AA?9?$AAb?$AAa?$AA?9?$AAl?$AAa?$AAt?$AAn@ 10026980     libucrt:lcidtoname_downlevel.obj
 0002:00005998       ??_C@_1M@KGADAODK@?$AAc?$AAa?$AA?9?$AAe?$AAs@ 10026998     libucrt:lcidtoname_downlevel.obj
 0002:000059a4       ??_C@_1M@COAJPDHI@?$AAc?$AAs?$AA?9?$AAc?$AAz@ 100269a4     libucrt:lcidtoname_downlevel.obj
 0002:000059b0       ??_C@_1M@DHBHFONH@?$AAc?$AAy?$AA?9?$AAg?$AAb@ 100269b0     libucrt:lcidtoname_downlevel.obj
 0002:000059bc       ??_C@_1M@IMGKELGA@?$AAd?$AAa?$AA?9?$AAd?$AAk@ 100269bc     libucrt:lcidtoname_downlevel.obj
 0002:000059c8       ??_C@_1M@NNDGDNGA@?$AAd?$AAe?$AA?9?$AAa?$AAt@ 100269c8     libucrt:lcidtoname_downlevel.obj
 0002:000059d4       ??_C@_1M@IKDBHEEM@?$AAd?$AAe?$AA?9?$AAc?$AAh@ 100269d4     libucrt:lcidtoname_downlevel.obj
 0002:000059e0       ??_C@_1M@GFFOJMCJ@?$AAd?$AAe?$AA?9?$AAd?$AAe@ 100269e0     libucrt:lcidtoname_downlevel.obj
 0002:000059ec       ??_C@_1M@MDNLKBPM@?$AAd?$AAe?$AA?9?$AAl?$AAi@ 100269ec     libucrt:lcidtoname_downlevel.obj
 0002:000059f8       ??_C@_1M@NJBEEJNL@?$AAd?$AAe?$AA?9?$AAl?$AAu@ 100269f8     libucrt:lcidtoname_downlevel.obj
 0002:00005a04       ??_C@_1O@GNNELBAP@?$AAd?$AAi?$AAv?$AA?9?$AAm?$AAv@ 10026a04     libucrt:lcidtoname_downlevel.obj
 0002:00005a14       ??_C@_1M@EJLEOGAE@?$AAe?$AAl?$AA?9?$AAg?$AAr@ 10026a14     libucrt:lcidtoname_downlevel.obj
 0002:00005a20       ??_C@_1M@GMPONJN@?$AAe?$AAn?$AA?9?$AAa?$AAu@ 10026a20     libucrt:lcidtoname_downlevel.obj
 0002:00005a2c       ??_C@_1M@NIDIIPGF@?$AAe?$AAn?$AA?9?$AAb?$AAz@ 10026a2c     libucrt:lcidtoname_downlevel.obj
 0002:00005a38       ??_C@_1M@JEHMIMFO@?$AAe?$AAn?$AA?9?$AAc?$AAa@ 10026a38     libucrt:lcidtoname_downlevel.obj
 0002:00005a44       ??_C@_1M@IGMJCDLA@?$AAe?$AAn?$AA?9?$AAc?$AAb@ 10026a44     libucrt:lcidtoname_downlevel.obj
 0002:00005a50       ??_C@_1M@BNFIGBKG@?$AAe?$AAn?$AA?9?$AAg?$AAb@ 10026a50     libucrt:lcidtoname_downlevel.obj
 0002:00005a5c       ??_C@_1M@LKIFDIGP@?$AAe?$AAn?$AA?9?$AAi?$AAe@ 10026a5c     libucrt:lcidtoname_downlevel.obj
 0002:00005a68       ??_C@_1M@PJKFGCCO@?$AAe?$AAn?$AA?9?$AAj?$AAm@ 10026a68     libucrt:lcidtoname_downlevel.obj
 0002:00005a74       ??_C@_1M@KPPKEPBO@?$AAe?$AAn?$AA?9?$AAn?$AAz@ 10026a74     libucrt:lcidtoname_downlevel.obj
 0002:00005a80       ??_C@_1M@GMDGLDOB@?$AAe?$AAn?$AA?9?$AAp?$AAh@ 10026a80     libucrt:lcidtoname_downlevel.obj
 0002:00005a8c       ??_C@_1M@ONGIBJNA@?$AAe?$AAn?$AA?9?$AAt?$AAt@ 10026a8c     libucrt:lcidtoname_downlevel.obj
 0002:00005a98       ??_C@_1M@LLODPCMM@?$AAe?$AAn?$AA?9?$AAu?$AAs@ 10026a98     libucrt:lcidtoname_downlevel.obj
 0002:00005aa4       ??_C@_1M@LAKFNPAN@?$AAe?$AAn?$AA?9?$AAz?$AAa@ 10026aa4     libucrt:lcidtoname_downlevel.obj
 0002:00005ab0       ??_C@_1M@MFNHNHEO@?$AAe?$AAn?$AA?9?$AAz?$AAw@ 10026ab0     libucrt:lcidtoname_downlevel.obj
 0002:00005abc       ??_C@_1M@EJEINPHM@?$AAe?$AAs?$AA?9?$AAa?$AAr@ 10026abc     libucrt:lcidtoname_downlevel.obj
 0002:00005ac8       ??_C@_1M@GNKPCCJA@?$AAe?$AAs?$AA?9?$AAb?$AAo@ 10026ac8     libucrt:lcidtoname_downlevel.obj
 0002:00005ad4       ??_C@_1M@LEEGFONL@?$AAe?$AAs?$AA?9?$AAc?$AAl@ 10026ad4     libucrt:lcidtoname_downlevel.obj
 0002:00005ae0       ??_C@_1M@KGPDPBDF@?$AAe?$AAs?$AA?9?$AAc?$AAo@ 10026ae0     libucrt:lcidtoname_downlevel.obj
 0002:00005aec       ??_C@_1M@EIAHOHH@?$AAe?$AAs?$AA?9?$AAc?$AAr@ 10026aec     libucrt:lcidtoname_downlevel.obj
 0002:00005af8       ??_C@_1M@LLPGMBIN@?$AAe?$AAs?$AA?9?$AAd?$AAo@ 10026af8     libucrt:lcidtoname_downlevel.obj
 0002:00005b04       ??_C@_1M@DKHMKNJA@?$AAe?$AAs?$AA?9?$AAe?$AAc@ 10026b04     libucrt:lcidtoname_downlevel.obj
 0002:00005b10       ??_C@_1M@GKGFPKAP@?$AAe?$AAs?$AA?9?$AAe?$AAs@ 10026b10     libucrt:lcidtoname_downlevel.obj
 0002:00005b1c       ??_C@_1M@LKHKGDLN@?$AAe?$AAs?$AA?9?$AAg?$AAt@ 10026b1c     libucrt:lcidtoname_downlevel.obj
 0002:00005b28       ??_C@_1M@HEIIGGJD@?$AAe?$AAs?$AA?9?$AAh?$AAn@ 10026b28     libucrt:lcidtoname_downlevel.obj
 0002:00005b34       ??_C@_1M@FBDHPPGD@?$AAe?$AAs?$AA?9?$AAm?$AAx@ 10026b34     libucrt:lcidtoname_downlevel.obj
 0002:00005b40       ??_C@_1M@DPAGLNDH@?$AAe?$AAs?$AA?9?$AAn?$AAi@ 10026b40     libucrt:lcidtoname_downlevel.obj
 0002:00005b4c       ??_C@_1M@MDGOPGDD@?$AAe?$AAs?$AA?9?$AAp?$AAa@ 10026b4c     libucrt:lcidtoname_downlevel.obj
 0002:00005b58       ??_C@_1M@EMAMGBGE@?$AAe?$AAs?$AA?9?$AAp?$AAe@ 10026b58     libucrt:lcidtoname_downlevel.obj
 0002:00005b64       ??_C@_1M@IBMCAOEC@?$AAe?$AAs?$AA?9?$AAp?$AAr@ 10026b64     libucrt:lcidtoname_downlevel.obj
 0002:00005b70       ??_C@_1M@FGMDIJED@?$AAe?$AAs?$AA?9?$AAp?$AAy@ 10026b70     libucrt:lcidtoname_downlevel.obj
 0002:00005b7c       ??_C@_1M@IIDEOLLL@?$AAe?$AAs?$AA?9?$AAs?$AAv@ 10026b7c     libucrt:lcidtoname_downlevel.obj
 0002:00005b88       ??_C@_1M@GAOBIPA@?$AAe?$AAs?$AA?9?$AAu?$AAy@ 10026b88     libucrt:lcidtoname_downlevel.obj
 0002:00005b94       ??_C@_1M@JKFFICHJ@?$AAe?$AAs?$AA?9?$AAv?$AAe@ 10026b94     libucrt:lcidtoname_downlevel.obj
 0002:00005ba0       ??_C@_1M@PNMLOJDF@?$AAe?$AAt?$AA?9?$AAe?$AAe@ 10026ba0     libucrt:lcidtoname_downlevel.obj
 0002:00005bac       ??_C@_1M@GHHLIKEI@?$AAe?$AAu?$AA?9?$AAe?$AAs@ 10026bac     libucrt:lcidtoname_downlevel.obj
 0002:00005bb8       ??_C@_1M@PBNONODE@?$AAf?$AAa?$AA?9?$AAi?$AAr@ 10026bb8     libucrt:lcidtoname_downlevel.obj
 0002:00005bc4       ??_C@_1M@JEEHPMIL@?$AAf?$AAi?$AA?9?$AAf?$AAi@ 10026bc4     libucrt:lcidtoname_downlevel.obj
 0002:00005bd0       ??_C@_1M@LMDCNDBA@?$AAf?$AAo?$AA?9?$AAf?$AAo@ 10026bd0     libucrt:lcidtoname_downlevel.obj
 0002:00005bdc       ??_C@_1M@JKEOHLDK@?$AAf?$AAr?$AA?9?$AAb?$AAe@ 10026bdc     libucrt:lcidtoname_downlevel.obj
 0002:00005be8       ??_C@_1M@NOHADPMI@?$AAf?$AAr?$AA?9?$AAc?$AAa@ 10026be8     libucrt:lcidtoname_downlevel.obj
 0002:00005bf4       ??_C@_1M@KDHIHAEC@?$AAf?$AAr?$AA?9?$AAc?$AAh@ 10026bf4     libucrt:lcidtoname_downlevel.obj
 0002:00005c00       ??_C@_1M@MMBBFGAK@?$AAf?$AAr?$AA?9?$AAf?$AAr@ 10026c00     libucrt:lcidtoname_downlevel.obj
 0002:00005c0c       ??_C@_1M@PAFNENNF@?$AAf?$AAr?$AA?9?$AAl?$AAu@ 10026c0c     libucrt:lcidtoname_downlevel.obj
 0002:00005c18       ??_C@_1M@EOHDJGDD@?$AAf?$AAr?$AA?9?$AAm?$AAc@ 10026c18     libucrt:lcidtoname_downlevel.obj
 0002:00005c24       ??_C@_1M@FAPLLOPF@?$AAg?$AAl?$AA?9?$AAe?$AAs@ 10026c24     libucrt:lcidtoname_downlevel.obj
 0002:00005c30       ??_C@_1M@FOPBFLOO@?$AAg?$AAu?$AA?9?$AAi?$AAn@ 10026c30     libucrt:lcidtoname_downlevel.obj
 0002:00005c3c       ??_C@_1M@KBMCINPM@?$AAh?$AAe?$AA?9?$AAi?$AAl@ 10026c3c     libucrt:lcidtoname_downlevel.obj
 0002:00005c48       ??_C@_1M@BBPHKFPJ@?$AAh?$AAi?$AA?9?$AAi?$AAn@ 10026c48     libucrt:lcidtoname_downlevel.obj
 0002:00005c54       ??_C@_1M@PMBNDPHD@?$AAh?$AAr?$AA?9?$AAb?$AAa@ 10026c54     libucrt:lcidtoname_downlevel.obj
 0002:00005c60       ??_C@_1M@BPCKOEGE@?$AAh?$AAr?$AA?9?$AAh?$AAr@ 10026c60     libucrt:lcidtoname_downlevel.obj
 0002:00005c6c       ??_C@_1M@GACBMHKE@?$AAh?$AAu?$AA?9?$AAh?$AAu@ 10026c6c     libucrt:lcidtoname_downlevel.obj
 0002:00005c78       ??_C@_1M@MILPAJJC@?$AAh?$AAy?$AA?9?$AAa?$AAm@ 10026c78     libucrt:lcidtoname_downlevel.obj
 0002:00005c84       ??_C@_1M@BABBICEC@?$AAi?$AAd?$AA?9?$AAi?$AAd@ 10026c84     libucrt:lcidtoname_downlevel.obj
 0002:00005c90       ??_C@_1M@BIKNHHPF@?$AAi?$AAs?$AA?9?$AAi?$AAs@ 10026c90     libucrt:lcidtoname_downlevel.obj
 0002:00005c9c       ??_C@_1M@NMPCJPHE@?$AAi?$AAt?$AA?9?$AAc?$AAh@ 10026c9c     libucrt:lcidtoname_downlevel.obj
 0002:00005ca8       ??_C@_1M@GHKGFEDF@?$AAi?$AAt?$AA?9?$AAi?$AAt@ 10026ca8     libucrt:lcidtoname_downlevel.obj
 0002:00005cb4       ??_C@_1M@NIEJCJJA@?$AAj?$AAa?$AA?9?$AAj?$AAp@ 10026cb4     libucrt:lcidtoname_downlevel.obj
 0002:00005cc0       ??_C@_1M@JILFNBIM@?$AAk?$AAa?$AA?9?$AAg?$AAe@ 10026cc0     libucrt:lcidtoname_downlevel.obj
 0002:00005ccc       ??_C@_1M@PACPMGPH@?$AAk?$AAk?$AA?9?$AAk?$AAz@ 10026ccc     libucrt:lcidtoname_downlevel.obj
 0002:00005cd8       ??_C@_1M@IELFGMHA@?$AAk?$AAn?$AA?9?$AAi?$AAn@ 10026cd8     libucrt:lcidtoname_downlevel.obj
 0002:00005ce4       ??_C@_1O@IBBJHCH@?$AAk?$AAo?$AAk?$AA?9?$AAi?$AAn@ 10026ce4     libucrt:lcidtoname_downlevel.obj
 0002:00005cf4       ??_C@_1M@DMHAEOGC@?$AAk?$AAo?$AA?9?$AAk?$AAr@ 10026cf4     libucrt:lcidtoname_downlevel.obj
 0002:00005d00       ??_C@_1M@HBAHBIGA@?$AAk?$AAy?$AA?9?$AAk?$AAg@ 10026d00     libucrt:lcidtoname_downlevel.obj
 0002:00005d0c       ??_C@_1M@KPMILCJG@?$AAl?$AAt?$AA?9?$AAl?$AAt@ 10026d0c     libucrt:lcidtoname_downlevel.obj
 0002:00005d18       ??_C@_1M@BDEKKCA@?$AAl?$AAv?$AA?9?$AAl?$AAv@ 10026d18     libucrt:lcidtoname_downlevel.obj
 0002:00005d24       ??_C@_1M@ELCKCCJJ@?$AAm?$AAi?$AA?9?$AAn?$AAz@ 10026d24     libucrt:lcidtoname_downlevel.obj
 0002:00005d30       ??_C@_1M@CBOOLAPA@?$AAm?$AAk?$AA?9?$AAm?$AAk@ 10026d30     libucrt:lcidtoname_downlevel.obj
 0002:00005d3c       ??_C@_1M@GPHNBJKN@?$AAm?$AAl?$AA?9?$AAi?$AAn@ 10026d3c     libucrt:lcidtoname_downlevel.obj
 0002:00005d48       ??_C@_1M@PABJILIG@?$AAm?$AAn?$AA?9?$AAm?$AAn@ 10026d48     libucrt:lcidtoname_downlevel.obj
 0002:00005d54       ??_C@_1M@FGBKKIPG@?$AAm?$AAr?$AA?9?$AAi?$AAn@ 10026d54     libucrt:lcidtoname_downlevel.obj
 0002:00005d60       ??_C@_1M@NDBPDDAL@?$AAm?$AAs?$AA?9?$AAb?$AAn@ 10026d60     libucrt:lcidtoname_downlevel.obj
 0002:00005d6c       ??_C@_1M@OPIHOOPI@?$AAm?$AAs?$AA?9?$AAm?$AAy@ 10026d6c     libucrt:lcidtoname_downlevel.obj
 0002:00005d78       ??_C@_1M@PPDBCNFM@?$AAm?$AAt?$AA?9?$AAm?$AAt@ 10026d78     libucrt:lcidtoname_downlevel.obj
 0002:00005d84       ??_C@_1M@KDJDKMDD@?$AAn?$AAb?$AA?9?$AAn?$AAo@ 10026d84     libucrt:lcidtoname_downlevel.obj
 0002:00005d90       ??_C@_1M@KFCFLMJP@?$AAn?$AAl?$AA?9?$AAb?$AAe@ 10026d90     libucrt:lcidtoname_downlevel.obj
 0002:00005d9c       ??_C@_1M@KPOPDDGO@?$AAn?$AAl?$AA?9?$AAn?$AAl@ 10026d9c     libucrt:lcidtoname_downlevel.obj
 0002:00005da8       ??_C@_1M@LJKPEMLN@?$AAn?$AAn?$AA?9?$AAn?$AAo@ 10026da8     libucrt:lcidtoname_downlevel.obj
 0002:00005db4       ??_C@_1M@BDGHHBFL@?$AAn?$AAs?$AA?9?$AAz?$AAa@ 10026db4     libucrt:lcidtoname_downlevel.obj
 0002:00005dc0       ??_C@_1M@IDEHOAP@?$AAp?$AAa?$AA?9?$AAi?$AAn@ 10026dc0     libucrt:lcidtoname_downlevel.obj
 0002:00005dcc       ??_C@_1M@HDBKGOGH@?$AAp?$AAl?$AA?9?$AAp?$AAl@ 10026dcc     libucrt:lcidtoname_downlevel.obj
 0002:00005dd8       ??_C@_1M@LJLLCMEH@?$AAp?$AAt?$AA?9?$AAb?$AAr@ 10026dd8     libucrt:lcidtoname_downlevel.obj
 0002:00005de4       ??_C@_1M@NCMONAAL@?$AAp?$AAt?$AA?9?$AAp?$AAt@ 10026de4     libucrt:lcidtoname_downlevel.obj
 0002:00005df0       ??_C@_1O@EAKMAJDN@?$AAq?$AAu?$AAz?$AA?9?$AAb?$AAo@ 10026df0     libucrt:lcidtoname_downlevel.obj
 0002:00005e00       ??_C@_1O@BHHPIGDN@?$AAq?$AAu?$AAz?$AA?9?$AAe?$AAc@ 10026e00     libucrt:lcidtoname_downlevel.obj
 0002:00005e10       ??_C@_1O@GBAPEKMJ@?$AAq?$AAu?$AAz?$AA?9?$AAp?$AAe@ 10026e10     libucrt:lcidtoname_downlevel.obj
 0002:00005e20       ??_C@_1M@CLGLEFBO@?$AAr?$AAo?$AA?9?$AAr?$AAo@ 10026e20     libucrt:lcidtoname_downlevel.obj
 0002:00005e2c       ??_C@_1M@CEEDODME@?$AAr?$AAu?$AA?9?$AAr?$AAu@ 10026e2c     libucrt:lcidtoname_downlevel.obj
 0002:00005e38       ??_C@_1M@HPKKKMPP@?$AAs?$AAa?$AA?9?$AAi?$AAn@ 10026e38     libucrt:lcidtoname_downlevel.obj
 0002:00005e44       ??_C@_1M@BKMAIGOJ@?$AAs?$AAe?$AA?9?$AAf?$AAi@ 10026e44     libucrt:lcidtoname_downlevel.obj
 0002:00005e50       ??_C@_1M@NDPIFLFI@?$AAs?$AAe?$AA?9?$AAn?$AAo@ 10026e50     libucrt:lcidtoname_downlevel.obj
 0002:00005e5c       ??_C@_1M@DANKKHJ@?$AAs?$AAe?$AA?9?$AAs?$AAe@ 10026e5c     libucrt:lcidtoname_downlevel.obj
 0002:00005e68       ??_C@_1M@PNBLONPJ@?$AAs?$AAk?$AA?9?$AAs?$AAk@ 10026e68     libucrt:lcidtoname_downlevel.obj
 0002:00005e74       ??_C@_1M@LFMODOAL@?$AAs?$AAl?$AA?9?$AAs?$AAi@ 10026e74     libucrt:lcidtoname_downlevel.obj
 0002:00005e80       ??_C@_1O@DFKOMPG@?$AAs?$AAm?$AAa?$AA?9?$AAn?$AAo@ 10026e80     libucrt:lcidtoname_downlevel.obj
 0002:00005e90       ??_C@_1O@NDKPBNNH@?$AAs?$AAm?$AAa?$AA?9?$AAs?$AAe@ 10026e90     libucrt:lcidtoname_downlevel.obj
 0002:00005ea0       ??_C@_1O@PLLKBHAB@?$AAs?$AAm?$AAj?$AA?9?$AAn?$AAo@ 10026ea0     libucrt:lcidtoname_downlevel.obj
 0002:00005eb0       ??_C@_1O@CLEPOGCA@?$AAs?$AAm?$AAj?$AA?9?$AAs?$AAe@ 10026eb0     libucrt:lcidtoname_downlevel.obj
 0002:00005ec0       ??_C@_1O@DLGJGKMK@?$AAs?$AAm?$AAn?$AA?9?$AAf?$AAi@ 10026ec0     libucrt:lcidtoname_downlevel.obj
 0002:00005ed0       ??_C@_1O@OJDJGAJC@?$AAs?$AAm?$AAs?$AA?9?$AAf?$AAi@ 10026ed0     libucrt:lcidtoname_downlevel.obj
 0002:00005ee0       ??_C@_1M@BOFOGHPB@?$AAs?$AAq?$AA?9?$AAa?$AAl@ 10026ee0     libucrt:lcidtoname_downlevel.obj
 0002:00005eec       ??_C@_1BG@LJBBIPGB@?$AAs?$AAr?$AA?9?$AAb?$AAa?$AA?9?$AAc?$AAy?$AAr?$AAl@ 10026eec     libucrt:lcidtoname_downlevel.obj
 0002:00005f04       ??_C@_1BG@JLBENFOE@?$AAs?$AAr?$AA?9?$AAb?$AAa?$AA?9?$AAl?$AAa?$AAt?$AAn@ 10026f04     libucrt:lcidtoname_downlevel.obj
 0002:00005f1c       ??_C@_1BG@KODPNHE@?$AAs?$AAr?$AA?9?$AAs?$AAp?$AA?9?$AAc?$AAy?$AAr?$AAl@ 10026f1c     libucrt:lcidtoname_downlevel.obj
 0002:00005f34       ??_C@_1BG@CIOGKHPB@?$AAs?$AAr?$AA?9?$AAs?$AAp?$AA?9?$AAl?$AAa?$AAt?$AAn@ 10026f34     libucrt:lcidtoname_downlevel.obj
 0002:00005f4c       ??_C@_1M@NGFJLMAC@?$AAs?$AAv?$AA?9?$AAf?$AAi@ 10026f4c     libucrt:lcidtoname_downlevel.obj
 0002:00005f58       ??_C@_1M@MPJEJAJC@?$AAs?$AAv?$AA?9?$AAs?$AAe@ 10026f58     libucrt:lcidtoname_downlevel.obj
 0002:00005f64       ??_C@_1M@MPNDHLFK@?$AAs?$AAw?$AA?9?$AAk?$AAe@ 10026f64     libucrt:lcidtoname_downlevel.obj
 0002:00005f70       ??_C@_1O@KOHBJJI@?$AAs?$AAy?$AAr?$AA?9?$AAs?$AAy@ 10026f70     libucrt:lcidtoname_downlevel.obj
 0002:00005f80       ??_C@_1M@LDCEFHA@?$AAt?$AAa?$AA?9?$AAi?$AAn@ 10026f80     libucrt:lcidtoname_downlevel.obj
 0002:00005f8c       ??_C@_1M@CNJOFAK@?$AAt?$AAe?$AA?9?$AAi?$AAn@ 10026f8c     libucrt:lcidtoname_downlevel.obj
 0002:00005f98       ??_C@_1M@GNAECACD@?$AAt?$AAh?$AA?9?$AAt?$AAh@ 10026f98     libucrt:lcidtoname_downlevel.obj
 0002:00005fa4       ??_C@_1M@CHBIHOJO@?$AAt?$AAn?$AA?9?$AAz?$AAa@ 10026fa4     libucrt:lcidtoname_downlevel.obj
 0002:00005fb0       ??_C@_1M@GCCMIGPJ@?$AAt?$AAr?$AA?9?$AAt?$AAr@ 10026fb0     libucrt:lcidtoname_downlevel.obj
 0002:00005fbc       ??_C@_1M@CELMCNBK@?$AAt?$AAt?$AA?9?$AAr?$AAu@ 10026fbc     libucrt:lcidtoname_downlevel.obj
 0002:00005fc8       ??_C@_1M@KLMCELGA@?$AAu?$AAk?$AA?9?$AAu?$AAa@ 10026fc8     libucrt:lcidtoname_downlevel.obj
 0002:00005fd4       ??_C@_1M@EPAJJAJF@?$AAu?$AAr?$AA?9?$AAp?$AAk@ 10026fd4     libucrt:lcidtoname_downlevel.obj
 0002:00005fe0       ??_C@_1BG@GEGPMCDJ@?$AAu?$AAz?$AA?9?$AAu?$AAz?$AA?9?$AAc?$AAy?$AAr?$AAl@ 10026fe0     libucrt:lcidtoname_downlevel.obj
 0002:00005ff8       ??_C@_1BG@EGGKJILM@?$AAu?$AAz?$AA?9?$AAu?$AAz?$AA?9?$AAl?$AAa?$AAt?$AAn@ 10026ff8     libucrt:lcidtoname_downlevel.obj
 0002:00006010       ??_C@_1M@GFOCLFF@?$AAv?$AAi?$AA?9?$AAv?$AAn@ 10027010     libucrt:lcidtoname_downlevel.obj
 0002:0000601c       ??_C@_1M@CPAMEDFI@?$AAx?$AAh?$AA?9?$AAz?$AAa@ 1002701c     libucrt:lcidtoname_downlevel.obj
 0002:00006028       ??_C@_1O@EBKIFIGN@?$AAz?$AAh?$AA?9?$AAc?$AAh?$AAs@ 10027028     libucrt:lcidtoname_downlevel.obj
 0002:00006038       ??_C@_1O@NMHPGANE@?$AAz?$AAh?$AA?9?$AAc?$AAh?$AAt@ 10027038     libucrt:lcidtoname_downlevel.obj
 0002:00006048       ??_C@_1M@LPINJOMC@?$AAz?$AAh?$AA?9?$AAc?$AAn@ 10027048     libucrt:lcidtoname_downlevel.obj
 0002:00006054       ??_C@_1M@OCJEJODD@?$AAz?$AAh?$AA?9?$AAh?$AAk@ 10027054     libucrt:lcidtoname_downlevel.obj
 0002:00006060       ??_C@_1M@DNDLJINH@?$AAz?$AAh?$AA?9?$AAm?$AAo@ 10027060     libucrt:lcidtoname_downlevel.obj
 0002:0000606c       ??_C@_1M@MBFDNDND@?$AAz?$AAh?$AA?9?$AAs?$AAg@ 1002706c     libucrt:lcidtoname_downlevel.obj
 0002:00006078       ??_C@_1M@IMEPLEPE@?$AAz?$AAh?$AA?9?$AAt?$AAw@ 10027078     libucrt:lcidtoname_downlevel.obj
 0002:00006084       ??_C@_1M@BBGHNHJP@?$AAz?$AAu?$AA?9?$AAz?$AAa@ 10027084     libucrt:lcidtoname_downlevel.obj
 0002:00006090       ?large_power_data@?1??multiply_by_power_of_ten@__crt_strtox@@YA_NAAUbig_integer@2@I@Z@4QBIB 10027090     libucrt:cfout.obj
 0002:00006a30       ?small_powers_of_ten@?1??multiply_by_power_of_ten@__crt_strtox@@YA_NAAUbig_integer@2@I@Z@4QBIB 10027a30     libucrt:cfout.obj
 0002:00006a54       ??_C@_01GBGANLPD@0@        10027a54     libucrt:cfout.obj
 0002:00006a58       ??_C@_05DNEBIAHO@1?$CDINF@ 10027a58     libucrt:cfout.obj
 0002:00006a60       ??_C@_06IMKFLFPG@1?$CDQNAN@ 10027a60     libucrt:cfout.obj
 0002:00006a68       ??_C@_06PGGFOGJG@1?$CDSNAN@ 10027a68     libucrt:cfout.obj
 0002:00006a70       ??_C@_05PHHOCPM@1?$CDIND@  10027a70     libucrt:cfout.obj
 0002:00006be0       __infinity                 10027be0     libucrt:87tran.obj
 0002:00006bea       __minfinity                10027bea     libucrt:87tran.obj
 0002:00006bf4       __logemax                  10027bf4     libucrt:87tran.obj
 0002:00006c1a       __OP_EXPjmptab             10027c1a     libucrt:87tran.obj
 0002:00006c40       __indefinite               10027c40     libucrt:87disp.obj
 0002:00006c4a       __piby2                    10027c4a     libucrt:87disp.obj
 0002:00006c54       __piby4                    10027c54     libucrt:87disp.obj
 0002:00006c88       __DEFAULT_CW_in_mem        10027c88     libucrt:common.obj
 0002:00006c8a       __pi_by_2_to_61            10027c8a     libucrt:common.obj
 0002:00006cc4       ??_C@_03MGHMBJCF@log@      10027cc4     libucrt:libm_error.obj
 0002:00006cc8       ??_C@_05HGHHAHAP@log10@    10027cc8     libucrt:libm_error.obj
 0002:00006cd0       ??_C@_03KHJOGHMM@exp@      10027cd0     libucrt:libm_error.obj
 0002:00006cd4       ??_C@_03JGHBODFD@pow@      10027cd4     libucrt:libm_error.obj
 0002:00006cd8       ??_C@_04FIHNOPOL@asin@     10027cd8     libucrt:libm_error.obj
 0002:00006ce0       ??_C@_04PDIFKINK@acos@     10027ce0     libucrt:libm_error.obj
 0002:00006ce8       ??_C@_04EIAKFFMI@sqrt@     10027ce8     libucrt:libm_error.obj
 0002:00006cf0       __real@3ff0000000000000    10027cf0     libucrt:libm_error.obj
 0002:00006cf8       ??_C@_1BA@BALFACEM@?$AAC?$AAO?$AAN?$AAO?$AAU?$AAT?$AA$@ 10027cf8     libucrt:initcon.obj
 0002:00006d20       ___acrt_log10_table_t      10027d20     libucrt:log10_tables.obj
 0002:00007130       ___acrt_log10_table_cb     10028130     libucrt:log10_tables.obj
 0002:00007540       __real@3fe0000000000000    10028540     libucrt:powhlp.obj
 0002:00007630       ??_C@_04COOMCNPB@sinh@     10028630     libucrt:fpexcept.obj
 0002:00007638       ??_C@_04HPJJNFIM@cosh@     10028638     libucrt:fpexcept.obj
 0002:00007640       ??_C@_04FJHINJAO@tanh@     10028640     libucrt:fpexcept.obj
 0002:00007648       ??_C@_04MLLJIGOK@atan@     10028648     libucrt:fpexcept.obj
 0002:00007650       ??_C@_05KNGEOGJB@atan2@    10028650     libucrt:fpexcept.obj
 0002:00007658       ??_C@_03BLEJJJBH@sin@      10028658     libucrt:fpexcept.obj
 0002:0000765c       ??_C@_03LALBNOCG@cos@      1002865c     libucrt:fpexcept.obj
 0002:00007660       ??_C@_03IIINPABG@tan@      10028660     libucrt:fpexcept.obj
 0002:00007664       ??_C@_04GFPJNGEK@ceil@     10028664     libucrt:fpexcept.obj
 0002:0000766c       ??_C@_05PBJFFIGL@floor@    1002866c     libucrt:fpexcept.obj
 0002:00007674       ??_C@_04ODHECPBC@fabs@     10028674     libucrt:fpexcept.obj
 0002:0000767c       ??_C@_04EHEDPDJG@modf@     1002867c     libucrt:fpexcept.obj
 0002:00007684       ??_C@_05CEJMAHNP@ldexp@    10028684     libucrt:fpexcept.obj
 0002:0000768c       ??_C@_05KBKMEMPO@_cabs@    1002868c     libucrt:fpexcept.obj
 0002:00007694       ??_C@_06MEIMCGCF@_hypot@   10028694     libucrt:fpexcept.obj
 0002:0000769c       ??_C@_04KEPJIHGP@fmod@     1002869c     libucrt:fpexcept.obj
 0002:000076a4       ??_C@_05GKKHEGJL@frexp@    100286a4     libucrt:fpexcept.obj
 0002:000076ac       ??_C@_03MJLDFKDL@_y0@      100286ac     libucrt:fpexcept.obj
 0002:000076b0       ??_C@_03NAKIGLHK@_y1@      100286b0     libucrt:fpexcept.obj
 0002:000076b4       ??_C@_03ONILCKOB@_yn@      100286b4     libucrt:fpexcept.obj
 0002:000076b8       ??_C@_05JGDBENOH@_logb@    100286b8     libucrt:fpexcept.obj
 0002:000076c0       ??_C@_0L@KDOEJCKC@_nextafter@ 100286c0     libucrt:fpexcept.obj
 0002:000076d0       __d_inf                    100286d0     libucrt:util.obj
 0002:000076d8       __d_max                    100286d8     libucrt:util.obj
 0002:000076e0       __d_mzero                  100286e0     libucrt:util.obj
 0002:00007748       __load_config_used         10028748     LIBCMT:loadcfg.obj
 0002:000077ec       __tls_used                 100287ec     LIBCMT:tlssup.obj
 0002:00007804       ??_R4exception@std@@6B@    10028804     LIBCMT:throw_bad_alloc.obj
 0002:00007818       ??_R3exception@std@@8      10028818     LIBCMT:throw_bad_alloc.obj
 0002:00007828       ??_R2exception@std@@8      10028828     LIBCMT:throw_bad_alloc.obj
 0002:00007830       ??_R1A@?0A@EA@exception@std@@8 10028830     LIBCMT:throw_bad_alloc.obj
 0002:0000784c       ??_R4bad_alloc@std@@6B@    1002884c     LIBCMT:throw_bad_alloc.obj
 0002:00007860       ??_R3bad_alloc@std@@8      10028860     LIBCMT:throw_bad_alloc.obj
 0002:00007870       ??_R2bad_alloc@std@@8      10028870     LIBCMT:throw_bad_alloc.obj
 0002:0000787c       ??_R1A@?0A@EA@bad_alloc@std@@8 1002887c     LIBCMT:throw_bad_alloc.obj
 0002:00007898       ??_R4bad_array_new_length@std@@6B@ 10028898     LIBCMT:throw_bad_alloc.obj
 0002:000078ac       ??_R3bad_array_new_length@std@@8 100288ac     LIBCMT:throw_bad_alloc.obj
 0002:000078bc       ??_R2bad_array_new_length@std@@8 100288bc     LIBCMT:throw_bad_alloc.obj
 0002:000078cc       ??_R1A@?0A@EA@bad_array_new_length@std@@8 100288cc     LIBCMT:throw_bad_alloc.obj
 0002:000078e8       ??_R4type_info@@6B@        100288e8     LIBCMT:std_type_info_static.obj
 0002:000078fc       ??_R3type_info@@8          100288fc     LIBCMT:std_type_info_static.obj
 0002:0000790c       ??_R2type_info@@8          1002890c     LIBCMT:std_type_info_static.obj
 0002:00007914       ??_R1A@?0A@EA@type_info@@8 10028914     LIBCMT:std_type_info_static.obj
 0002:00007930       ??_R4bad_exception@std@@6B@ 10028930     libvcruntime:frame.obj
 0002:00007944       ??_R3bad_exception@std@@8  10028944     libvcruntime:frame.obj
 0002:00007954       ??_R2bad_exception@std@@8  10028954     libvcruntime:frame.obj
 0002:00007960       ??_R1A@?0A@EA@bad_exception@std@@8 10028960     libvcruntime:frame.obj
 0002:00007980       ___safe_se_handler_table   10028980     <linker-defined>
 0002:00007d80       ___rtc_iaa                 10028d80     LIBCMT:initsect.obj
 0002:00007d84       ___rtc_izz                 10028d84     LIBCMT:initsect.obj
 0002:00007d88       ___rtc_taa                 10028d88     LIBCMT:initsect.obj
 0002:00007d8c       ___rtc_tzz                 10028d8c     LIBCMT:initsect.obj
 0002:00007d90       __tls_start                10028d90     LIBCMT:tlssup.obj
 0002:00007d94       __Init_thread_epoch        10028d94     LIBCMT:thread_safe_statics.obj
 0002:00007d98       __tls_end                  10028d98     LIBCMT:tlssup.obj
 0002:00007e94       __TI2?AVbad_alloc@std@@    10028e94     LIBCMT:throw_bad_alloc.obj
 0002:00007ea4       __CTA2?AVbad_alloc@std@@   10028ea4     LIBCMT:throw_bad_alloc.obj
 0002:00007eb0       __CT??_R0?AVbad_alloc@std@@@8??0bad_alloc@std@@QAE@ABV01@@Z12 10028eb0     LIBCMT:throw_bad_alloc.obj
 0002:00007ecc       __CT??_R0?AVexception@std@@@8??0exception@std@@QAE@ABV01@@Z12 10028ecc     LIBCMT:throw_bad_alloc.obj
 0002:00007ee8       __TI3?AVbad_array_new_length@std@@ 10028ee8     LIBCMT:throw_bad_alloc.obj
 0002:00007ef8       __CTA3?AVbad_array_new_length@std@@ 10028ef8     LIBCMT:throw_bad_alloc.obj
 0002:00007f08       __CT??_R0?AVbad_array_new_length@std@@@8??0bad_array_new_length@std@@QAE@ABV01@@Z12 10028f08     LIBCMT:throw_bad_alloc.obj
 0002:0000800c       __TI2?AVbad_exception@std@@ 1002900c     libvcruntime:frame.obj
 0002:0000801c       __CTA2?AVbad_exception@std@@ 1002901c     libvcruntime:frame.obj
 0002:00008028       __CT??_R0?AVbad_exception@std@@@8??0bad_exception@std@@QAE@ABV01@@Z12 10029028     libvcruntime:frame.obj
 0002:000083a4       ___pobjMapEntryFirst       100293a4     OposVariant.obj
 0002:000083a8       ___pobjMapEntryLast        100293a8     OposVariant.obj
 0002:00008464       __IMPORT_DESCRIPTOR_KERNEL32 10029464     kernel32:KERNEL32.dll
 0002:00008478       __IMPORT_DESCRIPTOR_USER32 10029478     user32:USER32.dll
 0002:0000848c       __IMPORT_DESCRIPTOR_GDI32  1002948c     gdi32:GDI32.dll
 0002:000084a0       __IMPORT_DESCRIPTOR_ADVAPI32 100294a0     advapi32:ADVAPI32.dll
 0002:000084b4       __IMPORT_DESCRIPTOR_ole32  100294b4     ole32:ole32.dll
 0002:000084c8       __IMPORT_DESCRIPTOR_OLEAUT32 100294c8     oleaut32:OLEAUT32.dll
 0002:000084dc       __NULL_IMPORT_DESCRIPTOR   100294dc     kernel32:KERNEL32.dll
 0003:00000000       ?s_Claim@?7??GetIDsOfNames@CComTypeInfoHolder@ATL@@QAEJABU_GUID@@PAPA_WIKPAJ@Z@4PA_WA 1002b000     ElectronicValueRW.obj
 0003:00000018       ?s_Release@?7??GetIDsOfNames@CComTypeInfoHolder@ATL@@QAEJABU_GUID@@PAPA_WIKPAJ@Z@4PA_WA 1002b018     ElectronicValueRW.obj
 0003:00000034       ?vszContents@?6??Save@?$IPersistStorageImpl@VCOPOSElectronicValueRW@@@ATL@@UAGJPAUIStorage@@H@Z@4PB_WB 1002b034     ElectronicValueRW.obj
 0003:00000038       ?rcDefault@CWindow@ATL@@2UtagRECT@@A 1002b038     ElectronicValueRW.obj
 0003:00000048       ?wc@?1??GetWndClassInfo@?$CWindowImpl@VCOPOSElectronicValueRW@@VCWindow@ATL@@V?$CWinTraits@$0FGAAAAAA@$0A@@3@@ATL@@SAAAU_ATL_WNDCLASSINFOW@3@XZ@4U43@A 1002b048     ElectronicValueRW.obj
 0003:000000d4       ?_tih@?$IDispatchImpl@UIOPOSElectronicValueRW@@$1?IID_IOPOSElectronicValueRW@@3U_GUID@@B$1?LIBID_OposElectronicValueRW_CCO@@3U3@B$00$0A@VCComTypeInfoHolder@ATL@@@ATL@@1VCComTypeInfoHolder@2@A 1002b0d4     ElectronicValueRW.obj
 0003:000000f0       ?_tih@?$IProvideClassInfo2Impl@$1?CLSID_OPOSElectronicValueRW@@3U_GUID@@B$1?DIID__IOPOSElectronicValueRWEvents@@3U2@B$1?LIBID_OposElectronicValueRW_CCO@@3U2@B$00$0A@VCComTypeInfoHolder@ATL@@@ATL@@1VCComTypeInfoHolder@2@A 1002b0f0     ElectronicValueRW.obj
 0003:00000158       ?g_ControlVersion@@3JA     1002b158     ElectronicValueRWImpl.obj
 0003:0000015c       ?g_WindowName@@3PA_WA      1002b15c     ElectronicValueRWImpl.obj
 0003:00000190       ?g_ControlDescription@@3PADA 1002b190     ElectronicValueRWImpl.obj
 0003:000002f0       ___scrt_native_dllmain_reason 1002b2f0     LIBCMT:utility.obj
 0003:000002f4       __Init_global_epoch        1002b2f4     LIBCMT:thread_safe_statics.obj
 0003:00000300       ___security_cookie_complement 1002b300     LIBCMT:gs_cookie.obj
 0003:00000304       ___security_cookie         1002b304     LIBCMT:gs_cookie.obj
 0003:00000308       ___isa_enabled             1002b308     LIBCMT:cpu_disp.obj
 0003:00000320       __NLG_Destination          1002b320     libvcruntime:exsup.obj
 0003:00000338       ___abort_behavior          1002b338     libucrt:abort.obj
 0003:00000348       __iob                      1002b348     libucrt:_file.obj
 0003:000003f0       ___acrt_initial_locale_data 1002b3f0     libucrt:nlsdata.obj
 0003:000004a8       ___acrt_initial_locale_pointers 1002b4a8     libucrt:nlsdata.obj
 0003:000004b0       ___acrt_wide_c_locale_string 1002b4b0     libucrt:nlsdata.obj
 0003:000004b8       ___acrt_initial_multibyte_data 1002b4b8     libucrt:mbctype.obj
 0003:000009d8       __pwctype                  1002b9d8     libucrt:ctype.obj
 0003:000009dc       ___globallocalestatus      1002b9dc     libucrt:glstatus.obj
 0003:000009e0       ___acrt_lconv_c            1002b9e0     libucrt:localeconv.obj
 0003:00000a30       ___acrt_lconv_static_decimal 1002ba30     libucrt:localeconv.obj
 0003:00000a34       ___acrt_lconv_static_W_decimal 1002ba34     libucrt:localeconv.obj
 0003:00000a40       __lookuptrailbytes         1002ba40     libucrt:read.obj
 0003:00000b50       __fltused                  1002bb50     LIBCMT:fltused.obj
 0003:00000b60       ??_R0?AVbad_alloc@std@@@8  1002bb60     LIBCMT:throw_bad_alloc.obj
 0003:00000b7c       ??_R0?AVexception@std@@@8  1002bb7c     LIBCMT:throw_bad_alloc.obj
 0003:00000b98       ??_R0?AVbad_array_new_length@std@@@8 1002bb98     LIBCMT:throw_bad_alloc.obj
 0003:00000bc0       ??_R0?AVtype_info@@@8      1002bbc0     LIBCMT:std_type_info_static.obj
 0003:00000bd8       ??_R0?AVbad_exception@std@@@8 1002bbd8     libvcruntime:frame.obj
 0003:00000bf8       ?_pPerfRegFunc@ATL@@3P6AJPAUHINSTANCE__@@@ZA 1002bbf8     OposVariant.obj
 0003:00000bfc       ?_pPerfUnRegFunc@ATL@@3P6AJXZA 1002bbfc     OposVariant.obj
 0003:00000c00       ?_AtlRegisterPerUser@ATL@@3_NA 1002bc00     OposVariant.obj
 0003:00000c04       ?_pAtlModule@ATL@@3PAVCAtlModule@1@A 1002bc04     OposVariant.obj
 0003:00000c08       ?_pModule@ATL@@3PAVCComModule@1@A 1002bc08     OposVariant.obj
 0003:00000c0c       ?m_bInitFailed@CAtlBaseModule@ATL@@2_NA 1002bc0c     OposVariant.obj
 0003:00000c10       ?_AtlComModule@ATL@@3VCAtlComModule@1@A 1002bc10     OposVariant.obj
 0003:00000c38       ?_AtlWinModule@ATL@@3VCAtlWinModule@1@A 1002bc38     OposVariant.obj
 0003:00000c64       ?_entries@?1??GetConnMap@COPOSElectronicValueRW@@SAPBU_ATL_CONNMAP_ENTRY@ATL@@PAH@Z@4QBU34@B 1002bc64     ElectronicValueRW.obj
 0003:00000c70       ?$TSS0@?1??GetConnMap@COPOSElectronicValueRW@@SAPBU_ATL_CONNMAP_ENTRY@ATL@@PAH@Z@4HA 1002bc70     ElectronicValueRW.obj
 0003:00000c74       ?m_libid@CAtlModule@ATL@@2U_GUID@@A 1002bc74     ElectronicValueRW.obj
 0003:00000c88       ?_OptionsStorage@?1??__local_stdio_printf_options@@9@4_KA 1002bc88     ElectronicValueRW.obj
 0003:00000c90       ?pfnRegDeleteKeyEx@?1??DeleteSubKey@CRegKey@ATL@@QAEJPB_W@Z@4P6GJPAUHKEY__@@0KK@ZA 1002bc90     ElectronicValueRW.obj
 0003:00000c94       ?bInitialized@?1??DeleteSubKey@CRegKey@ATL@@QAEJPB_W@Z@4_NA 1002bc94     ElectronicValueRW.obj
 0003:00000c98       ?_Module@@3VCComModule@ATL@@A 1002bc98     ElectronicValueRW.obj
 0003:00000cc8       ?pConnMap@?$IConnectionPointContainerImpl@VCOPOSElectronicValueRW@@@ATL@@0PBU_ATL_CONNMAP_ENTRY@2@B 1002bcc8     ElectronicValueRW.obj
 0003:00000ccc       ?s_nInstances@COPOSElectronicValueRW@@1HA 1002bccc     ElectronicValueRWImpl.obj
 0003:00000cd0       ___scrt_current_native_startup_state 1002bcd0     LIBCMT:utility.obj
 0003:00000cd4       ___scrt_native_startup_lock 1002bcd4     LIBCMT:utility.obj
 0003:0000103c       __tls_index                1002c03c     LIBCMT:tlssup.obj
 0003:00001044       ___isa_available           1002c044     LIBCMT:cpu_disp.obj
 0003:00001048       ___favor                   1002c048     LIBCMT:cpu_disp.obj
 0003:0000104c       ___scrt_debugger_hook_flag 1002c04c     LIBCMT:utility_desktop.obj
 0003:00001050       ?__type_info_root_node@@3U__type_info_node@@A 1002c050     LIBCMT:tncleanup.obj
 0003:00001058       ?_OptionsStorage@?1??__local_stdio_scanf_options@@9@4_KA 1002c058     LIBCMT:default_local_stdio_options.obj
 0003:00001060       ?_AtlBaseModule@ATL@@3VCAtlBaseModule@1@A 1002c060     atls:atlbase.obj
 0003:00001098       ?__AtlThunkPool@@3PAT_SLIST_HEADER@@A 1002c098     atls:atlthunk.obj
 0003:000010b0       ___@@_PchSym_@00@UztvmgUPdlipUDUhUrmgvinvwrzgvUexgllohUzgohOmzgrevkilqPBACIAJCBDBUlyqiUcIGUhgwzucOlyq@4B2008FD98C1DD4 1002c0b0     atls:stdafx.obj
 0003:000010b4       ___pPurecall               1002c0b4     libvcruntime:purevirt_data.obj
 0003:000010fc       ?pArgList@UnDecorator@@0PAVReplicator@@A 1002c0fc     libvcruntime:undname.obj
 0003:00001100       ?pZNameList@UnDecorator@@0PAVReplicator@@A 1002c100     libvcruntime:undname.obj
 0003:00001104       ?pTemplateArgList@UnDecorator@@0PAVReplicator@@A 1002c104     libvcruntime:undname.obj
 0003:00001108       ?gName@UnDecorator@@0PBDB  1002c108     libvcruntime:undname.obj
 0003:0000110c       ?name@UnDecorator@@0PBDB   1002c10c     libvcruntime:undname.obj
 0003:00001110       ?disableFlags@UnDecorator@@0KA 1002c110     libvcruntime:undname.obj
 0003:00001114       ?fExplicitTemplateParams@UnDecorator@@0_NA 1002c114     libvcruntime:undname.obj
 0003:00001115       ?fGetTemplateArgumentList@UnDecorator@@0_NA 1002c115     libvcruntime:undname.obj
 0003:00001118       ?m_pGetParameter@UnDecorator@@0P6APADJ@ZA 1002c118     libvcruntime:undname.obj
 0003:0000111c       ?m_CHPENameOffset@UnDecorator@@0KA 1002c11c     libvcruntime:undname.obj
 0003:00001120       ?m_recursionLevel@UnDecorator@@0KA 1002c120     libvcruntime:undname.obj
 0003:00001158       ?__WinRTOutOfMemoryExceptionCallback@@3P6GPAXXZA 1002c158     libvcruntime:ehhelpers.obj
 0003:00001168       ?c_exit_complete@?1???R<lambda_6e4b09c48022b2350581041d5f6b0c4c>@@QBE@XZ@4_NA 1002c168     libucrt:exit.obj
 0003:00001278       __environ_table            1002c278     libucrt:environment_initialization.obj
 0003:0000127c       __wenviron_table           1002c27c     libucrt:environment_initialization.obj
 0003:00001280       ___dcrt_initial_wide_environment 1002c280     libucrt:environment_initialization.obj
 0003:00001284       ___dcrt_initial_narrow_environment 1002c284     libucrt:environment_initialization.obj
 0003:00001288       ___acrt_atexit_table       1002c288     libucrt:onexit.obj
 0003:00001294       ___acrt_at_quick_exit_table 1002c294     libucrt:onexit.obj
 0003:00001388       __nstream                  1002c388     libucrt:_file.obj
 0003:0000138c       ___piob                    1002c38c     libucrt:_file.obj
 0003:00001394       ___acrt_stdout_buffer      1002c394     libucrt:_sftbuf.obj
 0003:00001398       ___acrt_stderr_buffer      1002c398     libucrt:_sftbuf.obj
 0003:0000139c       ___acrt_locale_changed_data 1002c39c     libucrt:wsetlocale.obj
 0003:000013a0       ___acrt_current_locale_data 1002c3a0     libucrt:nlsdata.obj
 0003:000013a8       ___pioinfo                 1002c3a8     libucrt:ioinit.obj
 0003:000015a8       __nhandle                  1002c5a8     libucrt:ioinit.obj
 0003:00001704       __mbctype                  1002c704     libucrt:mbctype.obj
 0003:00001708       __mbcasemap                1002c708     libucrt:mbctype.obj
 0003:0000170c       ___acrt_current_multibyte_data 1002c70c     libucrt:mbctype.obj
 0003:00001718       __pgmptr                   1002c718     libucrt:argv_data.obj
 0003:0000171c       ___argc                    1002c71c     libucrt:argv_data.obj
 0003:00001720       ___argv                    1002c720     libucrt:argv_data.obj
 0003:00001724       ___wargv                   1002c724     libucrt:argv_data.obj
 0003:00001728       __acmdln                   1002c728     libucrt:argv_data.obj
 0003:0000172c       __wcmdln                   1002c72c     libucrt:argv_data.obj
 0003:00001730       ___acrt_heap               1002c730     libucrt:heap_handle.obj
 0003:0000174c       ___acrt_lconv_static_null  1002c74c     libucrt:localeconv.obj
 0003:00001750       ___acrt_lconv_static_W_null 1002c750     libucrt:localeconv.obj
 0003:00001760       ___fastflag                1002c760     libucrt:fp_flags.obj
 0003:00001768       ___dyn_tls_init_callback   1002c768     <common>
 0003:0000176c       ___scrt_ucrt_dll_is_in_use 1002c76c     <common>
 0003:00001770       __pmatherr                 1002c770     <common>
 0003:00001774       ___use_sse2_mathfcns       1002c774     <common>

 entry point at        0001:0000daa8

 Static symbols

 0000:fffc8000       .debug$S                   10000000     kernel32:KERNEL32.dll
 0000:fffc8000       .debug$S                   10000000     ole32:ole32.dll
 0000:fffc8000       .debug$S                   10000000     ole32:ole32.dll
 0000:fffc8000       .debug$S                   10000000     ole32:ole32.dll
 0000:fffc8000       .debug$S                   10000000     ole32:ole32.dll
 0000:fffc8000       .debug$S                   10000000     ole32:ole32.dll
 0000:fffc8000       .debug$S                   10000000     oleaut32:OLEAUT32.dll
 0000:fffc8000       .debug$S                   10000000     oleaut32:OLEAUT32.dll
 0000:fffc8000       .debug$S                   10000000     oleaut32:OLEAUT32.dll
 0000:fffc8000       .debug$S                   10000000     oleaut32:OLEAUT32.dll
 0000:fffc8000       .debug$S                   10000000     oleaut32:OLEAUT32.dll
 0000:fffc8000       .debug$S                   10000000     oleaut32:OLEAUT32.dll
 0000:fffc8000       .debug$S                   10000000     oleaut32:OLEAUT32.dll
 0000:fffc8000       .debug$S                   10000000     oleaut32:OLEAUT32.dll
 0000:fffc8000       .debug$S                   10000000     oleaut32:OLEAUT32.dll
 0000:fffc8000       .debug$S                   10000000     OPOSElectronicValueRW.exp
 0000:fffc8000       .debug$S                   10000000     oleaut32:OLEAUT32.dll
 0000:fffc8000       .debug$S                   10000000     oleaut32:OLEAUT32.dll
 0000:fffc8000       .debug$S                   10000000     oleaut32:OLEAUT32.dll
 0000:fffc8000       .debug$S                   10000000     oleaut32:OLEAUT32.dll
 0000:fffc8000       .debug$S                   10000000     oleaut32:OLEAUT32.dll
 0000:fffc8000       .debug$S                   10000000     oleaut32:OLEAUT32.dll
 0000:fffc8000       .debug$S                   10000000     oleaut32:OLEAUT32.dll
 0000:fffc8000       .debug$S                   10000000     kernel32:KERNEL32.dll
 0000:fffc8000       .debug$S                   10000000     kernel32:KERNEL32.dll
 0000:fffc8000       .debug$S                   10000000     kernel32:KERNEL32.dll
 0000:fffc8000       .debug$S                   10000000     kernel32:KERNEL32.dll
 0000:fffc8000       .debug$S                   10000000     kernel32:KERNEL32.dll
 0000:fffc8000       .debug$S                   10000000     kernel32:KERNEL32.dll
 0000:fffc8000       .debug$S                   10000000     kernel32:KERNEL32.dll
 0000:fffc8000       .debug$S                   10000000     kernel32:KERNEL32.dll
 0000:fffc8000       .debug$S                   10000000     kernel32:KERNEL32.dll
 0000:fffc8000       .debug$S                   10000000     kernel32:KERNEL32.dll
 0000:fffc8000       .debug$S                   10000000     kernel32:KERNEL32.dll
 0000:fffc8000       .debug$S                   10000000     kernel32:KERNEL32.dll
 0000:fffc8000       .debug$S                   10000000     kernel32:KERNEL32.dll
 0000:fffc8000       .debug$S                   10000000     kernel32:KERNEL32.dll
 0000:fffc8000       .debug$S                   10000000     kernel32:KERNEL32.dll
 0000:fffc8000       .debug$S                   10000000     kernel32:KERNEL32.dll
 0000:fffc8000       .debug$S                   10000000     kernel32:KERNEL32.dll
 0000:fffc8000       .debug$S                   10000000     kernel32:KERNEL32.dll
 0000:fffc8000       .debug$S                   10000000     kernel32:KERNEL32.dll
 0000:fffc8000       .debug$S                   10000000     kernel32:KERNEL32.dll
 0000:fffc8000       .debug$S                   10000000     kernel32:KERNEL32.dll
 0000:fffc8000       .debug$S                   10000000     kernel32:KERNEL32.dll
 0000:fffc8000       .debug$S                   10000000     kernel32:KERNEL32.dll
 0000:fffc8000       .debug$S                   10000000     kernel32:KERNEL32.dll
 0000:fffc8000       .debug$S                   10000000     kernel32:KERNEL32.dll
 0000:fffc8000       .debug$S                   10000000     kernel32:KERNEL32.dll
 0000:fffc8000       .debug$S                   10000000     kernel32:KERNEL32.dll
 0000:fffc8000       .debug$S                   10000000     kernel32:KERNEL32.dll
 0000:fffc8000       .debug$S                   10000000     kernel32:KERNEL32.dll
 0000:fffc8000       .debug$S                   10000000     kernel32:KERNEL32.dll
 0000:fffc8000       .debug$S                   10000000     kernel32:KERNEL32.dll
 0000:fffc8000       .debug$S                   10000000     kernel32:KERNEL32.dll
 0000:fffc8000       .debug$S                   10000000     kernel32:KERNEL32.dll
 0000:fffc8000       .debug$S                   10000000     kernel32:KERNEL32.dll
 0000:fffc8000       .debug$S                   10000000     kernel32:KERNEL32.dll
 0000:fffc8000       .debug$S                   10000000     kernel32:KERNEL32.dll
 0000:fffc8000       .debug$S                   10000000     kernel32:KERNEL32.dll
 0000:fffc8000       .debug$S                   10000000     kernel32:KERNEL32.dll
 0000:fffc8000       .debug$S                   10000000     kernel32:KERNEL32.dll
 0000:fffc8000       .debug$S                   10000000     kernel32:KERNEL32.dll
 0000:fffc8000       .debug$S                   10000000     kernel32:KERNEL32.dll
 0000:fffc8000       .debug$S                   10000000     kernel32:KERNEL32.dll
 0000:fffc8000       .debug$S                   10000000     kernel32:KERNEL32.dll
 0000:fffc8000       .debug$S                   10000000     kernel32:KERNEL32.dll
 0000:fffc8000       .debug$S                   10000000     kernel32:KERNEL32.dll
 0000:fffc8000       .debug$S                   10000000     kernel32:KERNEL32.dll
 0000:fffc8000       .debug$S                   10000000     kernel32:KERNEL32.dll
 0000:fffc8000       .debug$S                   10000000     kernel32:KERNEL32.dll
 0000:fffc8000       .debug$S                   10000000     kernel32:KERNEL32.dll
 0000:fffc8000       .debug$S                   10000000     kernel32:KERNEL32.dll
 0000:fffc8000       .debug$S                   10000000     user32:USER32.dll
 0000:fffc8000       .debug$S                   10000000     kernel32:KERNEL32.dll
 0000:fffc8000       .debug$S                   10000000     kernel32:KERNEL32.dll
 0000:fffc8000       .debug$S                   10000000     kernel32:KERNEL32.dll
 0000:fffc8000       .debug$S                   10000000     kernel32:KERNEL32.dll
 0000:fffc8000       .debug$S                   10000000     kernel32:KERNEL32.dll
 0000:fffc8000       .debug$S                   10000000     kernel32:KERNEL32.dll
 0000:fffc8000       .debug$S                   10000000     kernel32:KERNEL32.dll
 0000:fffc8000       .debug$S                   10000000     kernel32:KERNEL32.dll
 0000:fffc8000       .debug$S                   10000000     kernel32:KERNEL32.dll
 0000:fffc8000       .debug$S                   10000000     kernel32:KERNEL32.dll
 0000:fffc8000       .debug$S                   10000000     kernel32:KERNEL32.dll
 0000:fffc8000       .debug$S                   10000000     kernel32:KERNEL32.dll
 0000:fffc8000       .debug$S                   10000000     kernel32:KERNEL32.dll
 0000:fffc8000       .debug$S                   10000000     kernel32:KERNEL32.dll
 0000:fffc8000       .debug$S                   10000000     kernel32:KERNEL32.dll
 0000:fffc8000       .debug$S                   10000000     kernel32:KERNEL32.dll
 0000:fffc8000       .debug$S                   10000000     kernel32:KERNEL32.dll
 0000:fffc8000       .debug$S                   10000000     kernel32:KERNEL32.dll
 0000:fffc8000       .debug$S                   10000000     kernel32:KERNEL32.dll
 0000:fffc8000       .debug$S                   10000000     kernel32:KERNEL32.dll
 0000:fffc8000       .debug$S                   10000000     kernel32:KERNEL32.dll
 0000:fffc8000       .debug$S                   10000000     kernel32:KERNEL32.dll
 0000:fffc8000       .debug$S                   10000000     kernel32:KERNEL32.dll
 0000:fffc8000       .debug$S                   10000000     kernel32:KERNEL32.dll
 0000:fffc8000       .debug$S                   10000000     kernel32:KERNEL32.dll
 0000:fffc8000       .debug$S                   10000000     kernel32:KERNEL32.dll
 0000:fffc8000       .debug$S                   10000000     kernel32:KERNEL32.dll
 0000:fffc8000       .debug$S                   10000000     kernel32:KERNEL32.dll
 0000:fffc8000       .debug$S                   10000000     kernel32:KERNEL32.dll
 0000:fffc8000       .debug$S                   10000000     kernel32:KERNEL32.dll
 0000:fffc8000       .debug$S                   10000000     kernel32:KERNEL32.dll
 0000:fffc8000       .debug$S                   10000000     kernel32:KERNEL32.dll
 0000:fffc8000       .debug$S                   10000000     kernel32:KERNEL32.dll
 0000:fffc8000       .debug$S                   10000000     kernel32:KERNEL32.dll
 0000:fffc8000       .debug$S                   10000000     kernel32:KERNEL32.dll
 0000:fffc8000       .debug$S                   10000000     kernel32:KERNEL32.dll
 0000:fffc8000       .debug$S                   10000000     kernel32:KERNEL32.dll
 0000:fffc8000       .debug$S                   10000000     kernel32:KERNEL32.dll
 0000:fffc8000       .debug$S                   10000000     kernel32:KERNEL32.dll
 0000:fffc8000       .debug$S                   10000000     kernel32:KERNEL32.dll
 0000:fffc8000       .debug$S                   10000000     kernel32:KERNEL32.dll
 0000:fffc8000       .debug$S                   10000000     kernel32:KERNEL32.dll
 0000:fffc8000       .debug$S                   10000000     kernel32:KERNEL32.dll
 0000:fffc8000       .debug$S                   10000000     kernel32:KERNEL32.dll
 0000:fffc8000       .debug$S                   10000000     kernel32:KERNEL32.dll
 0000:fffc8000       .debug$S                   10000000     kernel32:KERNEL32.dll
 0000:fffc8000       .debug$S                   10000000     kernel32:KERNEL32.dll
 0000:fffc8000       .debug$S                   10000000     kernel32:KERNEL32.dll
 0000:fffc8000       .debug$S                   10000000     kernel32:KERNEL32.dll
 0000:fffc8000       .debug$S                   10000000     kernel32:KERNEL32.dll
 0000:fffc8000       .debug$S                   10000000     kernel32:KERNEL32.dll
 0000:fffc8000       .debug$S                   10000000     kernel32:KERNEL32.dll
 0000:fffc8000       .debug$S                   10000000     kernel32:KERNEL32.dll
 0000:fffc8000       .debug$S                   10000000     kernel32:KERNEL32.dll
 0000:fffc8000       .debug$S                   10000000     kernel32:KERNEL32.dll
 0000:fffc8000       .debug$S                   10000000     user32:USER32.dll
 0000:fffc8000       .debug$S                   10000000     user32:USER32.dll
 0000:fffc8000       .debug$S                   10000000     user32:USER32.dll
 0000:fffc8000       .debug$S                   10000000     user32:USER32.dll
 0000:fffc8000       .debug$S                   10000000     user32:USER32.dll
 0000:fffc8000       .debug$S                   10000000     user32:USER32.dll
 0000:fffc8000       .debug$S                   10000000     user32:USER32.dll
 0000:fffc8000       .debug$S                   10000000     user32:USER32.dll
 0000:fffc8000       .debug$S                   10000000     user32:USER32.dll
 0000:fffc8000       .debug$S                   10000000     user32:USER32.dll
 0000:fffc8000       .debug$S                   10000000     user32:USER32.dll
 0000:fffc8000       .debug$S                   10000000     user32:USER32.dll
 0000:fffc8000       .debug$S                   10000000     user32:USER32.dll
 0000:fffc8000       .debug$S                   10000000     user32:USER32.dll
 0000:fffc8000       .debug$S                   10000000     user32:USER32.dll
 0000:fffc8000       .debug$S                   10000000     user32:USER32.dll
 0000:fffc8000       .debug$S                   10000000     user32:USER32.dll
 0000:fffc8000       .debug$S                   10000000     user32:USER32.dll
 0000:fffc8000       .debug$S                   10000000     user32:USER32.dll
 0000:fffc8000       .debug$S                   10000000     user32:USER32.dll
 0000:fffc8000       .debug$S                   10000000     user32:USER32.dll
 0000:fffc8000       .debug$S                   10000000     user32:USER32.dll
 0000:fffc8000       .debug$S                   10000000     user32:USER32.dll
 0000:fffc8000       .debug$S                   10000000     user32:USER32.dll
 0000:fffc8000       .debug$S                   10000000     user32:USER32.dll
 0000:fffc8000       .debug$S                   10000000     user32:USER32.dll
 0000:fffc8000       .debug$S                   10000000     user32:USER32.dll
 0000:fffc8000       .debug$S                   10000000     user32:USER32.dll
 0000:fffc8000       .debug$S                   10000000     user32:USER32.dll
 0000:fffc8000       .debug$S                   10000000     user32:USER32.dll
 0000:fffc8000       .debug$S                   10000000     user32:USER32.dll
 0000:fffc8000       .debug$S                   10000000     user32:USER32.dll
 0000:fffc8000       .debug$S                   10000000     user32:USER32.dll
 0000:fffc8000       .debug$S                   10000000     user32:USER32.dll
 0000:fffc8000       .debug$S                   10000000     gdi32:GDI32.dll
 0000:fffc8000       .debug$S                   10000000     gdi32:GDI32.dll
 0000:fffc8000       .debug$S                   10000000     gdi32:GDI32.dll
 0000:fffc8000       .debug$S                   10000000     gdi32:GDI32.dll
 0000:fffc8000       .debug$S                   10000000     gdi32:GDI32.dll
 0000:fffc8000       .debug$S                   10000000     gdi32:GDI32.dll
 0000:fffc8000       .debug$S                   10000000     gdi32:GDI32.dll
 0000:fffc8000       .debug$S                   10000000     gdi32:GDI32.dll
 0000:fffc8000       .debug$S                   10000000     gdi32:GDI32.dll
 0000:fffc8000       .debug$S                   10000000     gdi32:GDI32.dll
 0000:fffc8000       .debug$S                   10000000     gdi32:GDI32.dll
 0000:fffc8000       .debug$S                   10000000     gdi32:GDI32.dll
 0000:fffc8000       .debug$S                   10000000     gdi32:GDI32.dll
 0000:fffc8000       .debug$S                   10000000     gdi32:GDI32.dll
 0000:fffc8000       .debug$S                   10000000     gdi32:GDI32.dll
 0000:fffc8000       .debug$S                   10000000     gdi32:GDI32.dll
 0000:fffc8000       .debug$S                   10000000     gdi32:GDI32.dll
 0000:fffc8000       .debug$S                   10000000     gdi32:GDI32.dll
 0000:fffc8000       .debug$S                   10000000     gdi32:GDI32.dll
 0000:fffc8000       .debug$S                   10000000     advapi32:ADVAPI32.dll
 0000:fffc8000       .debug$S                   10000000     advapi32:ADVAPI32.dll
 0000:fffc8000       .debug$S                   10000000     advapi32:ADVAPI32.dll
 0000:fffc8000       .debug$S                   10000000     advapi32:ADVAPI32.dll
 0000:fffc8000       .debug$S                   10000000     advapi32:ADVAPI32.dll
 0000:fffc8000       .debug$S                   10000000     advapi32:ADVAPI32.dll
 0000:fffc8000       .debug$S                   10000000     advapi32:ADVAPI32.dll
 0000:fffc8000       .debug$S                   10000000     advapi32:ADVAPI32.dll
 0000:fffc8000       .debug$S                   10000000     advapi32:ADVAPI32.dll
 0000:fffc8000       .debug$S                   10000000     ole32:ole32.dll
 0000:fffc8000       .debug$S                   10000000     ole32:ole32.dll
 0000:fffc8000       .debug$S                   10000000     ole32:ole32.dll
 0000:fffc8000       .debug$S                   10000000     ole32:ole32.dll
 0000:fffc8000       .debug$S                   10000000     ole32:ole32.dll
 0000:fffc8000       .debug$S                   10000000     ole32:ole32.dll
 0000:fffc8000       .debug$S                   10000000     ole32:ole32.dll
 0000:fffc8000       .debug$S                   10000000     ole32:ole32.dll
 0000:fffc8000       .debug$S                   10000000     ole32:ole32.dll
 0001:00000000       ??__E_AtlComModule@ATL@@YAXXZ 10001000 f   OposVariant.obj
 0001:00000016       ??__E_AtlWinModule@ATL@@YAXXZ 10001016 f   OposVariant.obj
 0001:0000002c       ??__E?pConnMap@?$IConnectionPointContainerImpl@VCOPOSElectronicValueRW@@@ATL@@0PBU_ATL_CONNMAP_ENTRY@2@B@@YAXXZ 1000102c f   ElectronicValueRW.obj
 0001:0000003a       ??__E_Module@@YAXXZ        1000103a f   ElectronicValueRW.obj
 0001:00000064       ??__E_AtlBaseModule@ATL@@YAXXZ 10001064 f   atls:atlbase.obj
 0001:0000198d       $LN36                      1000298d     ElectronicValueRW.obj
 0001:00005e35       $LN50                      10006e35     ElectronicValueRW.obj
 0001:00005e4d       $LN49                      10006e4d     ElectronicValueRW.obj
 0001:00007c91       $LN37                      10008c91     ElectronicValueRW.obj
 0001:00007ca9       $LN36                      10008ca9     ElectronicValueRW.obj
 0001:0000925f       $LN82                      1000a25f     ElectronicValueRW.obj
 0001:00009277       $LN81                      1000a277     ElectronicValueRW.obj
 0001:000096a4       _memcpy_s                  1000a6a4 f   ElectronicValueRW.obj
 0001:0000cf64       ?find_pe_section@@YAPAU_IMAGE_SECTION_HEADER@@QAEI@Z 1000df64 f   LIBCMT:utility.obj
 0001:0000d283       ?__scrt_initialize_thread_safe_statics@@YAHXZ 1000e283 f   LIBCMT:thread_safe_statics.obj
 0001:0000d2aa       ?__scrt_initialize_thread_safe_statics_platform_specific@@YAXXZ 1000e2aa f   LIBCMT:thread_safe_statics.obj
 0001:0000d32c       ?__scrt_uninitialize_thread_safe_statics@@YAXXZ 1000e32c f   LIBCMT:thread_safe_statics.obj
 0001:0000d69b       __catch$??2@YAPAXIABUnothrow_t@std@@@Z$0 1000e69b f   LIBCMT:new_scalar_nothrow.obj
 0001:0000d6d0       $$000000                   1000e6d0     LIBCMT:sehprolg4gs.obj
 0001:0000d730       $$000000                   1000e730     LIBCMT:alloca16.obj
 0001:0000d760       $$000000                   1000e760     LIBCMT:chkstk.obj
 0001:0000d78d       ?dllmain_crt_dispatch@@YGHQAUHINSTANCE__@@KQAX@Z 1000e78d f   LIBCMT:dll_dllmain.obj
 0001:0000d7e0       ?dllmain_crt_process_attach@@YAHQAUHINSTANCE__@@QAX@Z 1000e7e0 f   LIBCMT:dll_dllmain.obj
 0001:0000d8e7       ?dllmain_crt_process_detach@@YAH_N@Z 1000e8e7 f   LIBCMT:dll_dllmain.obj
 0001:0000d977       ?dllmain_dispatch@@YAHQAUHINSTANCE__@@KQAX@Z 1000e977 f   LIBCMT:dll_dllmain.obj
 0001:0000da7d       ?dllmain_raw@@YGHQAUHINSTANCE__@@KQAX@Z 1000ea7d f   LIBCMT:dll_dllmain.obj
 0001:0000ddc0       $$000000                   1000edc0     LIBCMT:sehprolg4.obj
 0001:0000de1c       ___get_entropy             1000ee1c f   LIBCMT:gs_support.obj
 0001:0000e113       ??$GetProcAddressAll@P6GP6GJPAUHWND__@@IIJ@ZPAUAtlThunkData_t@@@Z@@YAP6GP6GJPAUHWND__@@IIJ@ZPAUAtlThunkData_t@@@ZPAP6GP6GJ0IIJ@Z1@Z@Z 1000f113 f   atls:atlthunk.obj
 0001:0000e113       ??$GetProcAddressAll@P6GPAUAtlThunkData_t@@XZ@@YAP6GPAUAtlThunkData_t@@XZPAP6GPAU0@XZ@Z 1000f113 f   atls:atlthunk.obj
 0001:0000e113       ??$GetProcAddressAll@P6GXPAUAtlThunkData_t@@PAXI@Z@@YAP6GXPAUAtlThunkData_t@@PAXI@ZPAP6GX01I@Z@Z 1000f113 f   atls:atlthunk.obj
 0001:0000e113       ??$GetProcAddressAll@P6GXPAUAtlThunkData_t@@@Z@@YAP6GXPAUAtlThunkData_t@@@ZPAP6GX0@Z@Z 1000f113 f   atls:atlthunk.obj
 0001:0000e1c3       ?GetProcAddressSingle@@YA_NPAUHINSTANCE__@@PBDPAPAX@Z 1000f1c3 f   atls:atlthunk.obj
 0001:0000e315       ?__InitializeThunkPool@@YAHXZ 1000f315 f   atls:atlthunk.obj
 0001:0000e770       _ValidateLocalCookies      1000f770 f   libvcruntime:chandler4.obj
 0001:0000f832       $LN1241                    10010832     libvcruntime:memcmp.obj
 0001:0000f8c0       $$000000                   100108c0     libvcruntime:memcpy.obj
 0001:0000fb24       TrailingUpVec              10010b24     libvcruntime:memcpy.obj
 0001:0000fbd0       TrailingDownVec            10010bd0     libvcruntime:memcpy.obj
 0001:0000fe40       $$000000                   10010e40     libvcruntime:memset.obj
 0001:000104f0       $$000000                   100114f0     libvcruntime:memmove.obj
 0001:00010754       TrailingUpVec              10011754     libvcruntime:memmove.obj
 0001:00010800       TrailingDownVec            10011800     libvcruntime:memmove.obj
 0001:00010a70       $$000000                   10011a70     libvcruntime:exsup4.obj
 0001:00010b00       __unwind_handler4          10011b00 f   libvcruntime:exsup4.obj
 0001:00010ddf       ??$BuildCatchObjectHelperInternal@V__FrameHandler3@@@@YAHPAUEHExceptionRecord@@PAXPBU_s_HandlerType@@PBU_s_CatchableType@@@Z 10011ddf f   libvcruntime:frame.obj
 0001:00010f1d       ??$BuildCatchObjectInternal@V__FrameHandler3@@@@YAXPAUEHExceptionRecord@@PAXPBU_s_HandlerType@@PBU_s_CatchableType@@@Z 10011f1d f   libvcruntime:frame.obj
 0001:00010fb6       ??$CatchIt@V__FrameHandler3@@@@YAXPAUEHExceptionRecord@@PAUEHRegistrationNode@@PAU_CONTEXT@@PAXPBU_s_FuncInfo@@PBU_s_HandlerType@@PBU_s_CatchableType@@PBU_s_TryBlockMapEntry@@H1EE@Z 10011fb6 f   libvcruntime:frame.obj
 0001:00011036       ??$FindHandler@V__FrameHandler3@@@@YAXPAUEHExceptionRecord@@PAUEHRegistrationNode@@PAU_CONTEXT@@PAXPBU_s_FuncInfo@@EH1@Z 10012036 f   libvcruntime:frame.obj
 0001:000113d5       ??$FindHandlerForForeignException@V__FrameHandler3@@@@YAXPAUEHExceptionRecord@@PAUEHRegistrationNode@@PAU_CONTEXT@@PAXPBU_s_FuncInfo@@HH1@Z 100123d5 f   libvcruntime:frame.obj
 0001:000116ed       ?CallCatchBlock@@YAPAXPAUEHExceptionRecord@@PAUEHRegistrationNode@@PAU_CONTEXT@@PBU_s_FuncInfo@@PAXHK@Z 100126ed f   libvcruntime:frame.obj
 0001:000118b1       ?CallUnexpected@@YAXPBU_s_ESTypeList@@@Z 100128b1 f   libvcruntime:frame.obj
 0001:000118d1       __catch$?CallUnexpected@@YAXPBU_s_ESTypeList@@@Z$0 100128d1 f   libvcruntime:frame.obj
 0001:000118eb       ?ExFilterRethrow@@YAHPAU_EXCEPTION_POINTERS@@@Z 100128eb f   libvcruntime:frame.obj
 0001:00011a35       ?IsInExceptionSpec@@YAEPAUEHExceptionRecord@@PBU_s_ESTypeList@@@Z 10012a35 f   libvcruntime:frame.obj
 0001:00011b00       $$000000                   10012b00     libvcruntime:lowhelpr.obj
 0001:00011b50       $$000000                   10012b50     libvcruntime:exsup.obj
 0001:00011b71       __unwind_handler           10012b71 f   libvcruntime:exsup.obj
 0001:00011c8e       ?try_get_first_available_module@@YAPAUHINSTANCE__@@QBW4module_id@?A0x09dcfcb8@@0@Z 10012c8e f   libvcruntime:winapi_downlevel.obj
 0001:00011d3a       ?try_get_function@@YAPAXW4function_id@?A0x09dcfcb8@@QBDQBW4module_id@2@2@Z 10012d3a f   libvcruntime:winapi_downlevel.obj
 0001:00012501       ??$common_tcsncpy_s@_W@@YAHQA_WIQB_WI@Z 10013501 f   libucrt:wcsncpy_s.obj
 0001:000125d7       ??$common_vsprintf@Vformat_validation_base@__crt_stdio_output@@_W@@YAH_KQA_WIQB_WQAU__crt_locale_pointers@@QAD@Z 100135d7 f   libucrt:output.obj
 0001:0001275e       ??$common_vsprintf_s@_W@@YAH_KQA_WIQB_WQAU__crt_locale_pointers@@QAD@Z 1001375e f   libucrt:output.obj
 0001:00012e8d       $LN51                      10013e8d     libucrt:output.obj
 0001:00013388       $LN20                      10014388     libucrt:output.obj
 0001:0001339c       $LN17                      1001439c     libucrt:output.obj
 0001:00013bfb       ??$?RV<lambda_03b1d95aef87969028cfba75ccab2455>@@AAV<lambda_6e4b09c48022b2350581041d5f6b0c4c>@@V<lambda_22bdf7517842c4b3e53723af5aa32b9e>@@@?$__crt_seh_guarded_call@X@@QAEX$$QAV<lambda_03b1d95aef87969028cfba75ccab2455>@@AAV<lambda_6e4b09c48022b2350581041d5f6b0c4c>@@$$QAV<lambda_22bdf7517842c4b3e53723af5aa32b9e>@@@Z 10014bfb f   libucrt:exit.obj
 0001:00013c48       ??R<lambda_6e4b09c48022b2350581041d5f6b0c4c>@@QBE@XZ 10014c48 f   libucrt:exit.obj
 0001:00013d22       ?atexit_exception_filter@@YAHK@Z 10014d22 f   libucrt:exit.obj
 0001:00013d35       ?common_exit@@YAXHW4_crt_exit_cleanup_mode@@W4_crt_exit_return_mode@@@Z 10014d35 f   libucrt:exit.obj
 0001:00013d99       ?exit_or_terminate_process@@YAXI@Z 10014d99 f   libucrt:exit.obj
 0001:00013ddb       ?is_managed_app@@YA_NXZ    10014ddb f   libucrt:exit.obj
 0001:00013e1e       ?try_cor_exit_process@@YAXI@Z 10014e1e f   libucrt:exit.obj
 0001:00013eac       ??$common_configure_argv@D@@YAHW4_crt_argv_mode@@@Z 10014eac f   libucrt:argv_parsing.obj
 0001:00013fe2       ??$parse_command_line@D@@YAXPADPAPAD0PAI2@Z 10014fe2 f   libucrt:argv_parsing.obj
 0001:000141b3       ??$common_initialize_environment_nolock@D@@YAHXZ 100151b3 f   libucrt:environment_initialization.obj
 0001:00014206       ??$create_environment@D@@YAQAPADQAD@Z 10015206 f   libucrt:environment_initialization.obj
 0001:000142d6       ??$free_environment@_W@@YAXQAPA_W@Z 100152d6 f   libucrt:environment_initialization.obj
 0001:000142d6       ??$free_environment@D@@YAXQAPAD@Z 100152d6 f   libucrt:environment_initialization.obj
 0001:0001432e       ??$uninitialize_environment_internal@D@@YAXAAPAPAD@Z 1001532e f   libucrt:environment_initialization.obj
 0001:00014349       ??$uninitialize_environment_internal@_W@@YAXAAPAPA_W@Z 10015349 f   libucrt:environment_initialization.obj
 0001:000143a0       ??$?RV<lambda_69a2805e680e0e292e8ba93315fe43a8>@@AAV<lambda_f03950bc5685219e0bcd2087efbe011e>@@V<lambda_03fcd07e894ec930e3f35da366ca99d6>@@@?$__crt_seh_guarded_call@H@@QAEH$$QAV<lambda_69a2805e680e0e292e8ba93315fe43a8>@@AAV<lambda_f03950bc5685219e0bcd2087efbe011e>@@$$QAV<lambda_03fcd07e894ec930e3f35da366ca99d6>@@@Z 100153a0 f   libucrt:onexit.obj
 0001:000143fb       ??$?RV<lambda_8e746cf0007f6ed984d6f78af1fec997>@@AAV<lambda_22ebabd17bc4fa466a2aca6d8deb888d>@@V<lambda_18ed0c0b38a6dc0daf1e7ac6d6adf05e>@@@?$__crt_seh_guarded_call@H@@QAEH$$QAV<lambda_8e746cf0007f6ed984d6f78af1fec997>@@AAV<lambda_22ebabd17bc4fa466a2aca6d8deb888d>@@$$QAV<lambda_18ed0c0b38a6dc0daf1e7ac6d6adf05e>@@@Z 100153fb f   libucrt:onexit.obj
 0001:00014475       ??R<lambda_22ebabd17bc4fa466a2aca6d8deb888d>@@QBEHXZ 10015475 f   libucrt:onexit.obj
 0001:0001459e       ??R<lambda_f03950bc5685219e0bcd2087efbe011e>@@QBEHXZ 1001559e f   libucrt:onexit.obj
 0001:00014717       _report_memory_leaks       10015717 f   libucrt:initialization.obj
 0001:00014717       _uninitialize_c            10015717 f   libucrt:initialization.obj
 0001:00014717       _initialize_environment    10015717 f   libucrt:initialization.obj
 0001:00014717       _initialize_global_state_isolation 10015717 f   libucrt:initialization.obj
 0001:00014717       _uninitialize_global_state_isolation 10015717 f   libucrt:initialization.obj
 0001:0001471a       _initialize_global_variables 1001571a f   libucrt:initialization.obj
 0001:00014727       _initialize_c              10015727 f   libucrt:initialization.obj
 0001:00014741       _uninitialize_environment  10015741 f   libucrt:initialization.obj
 0001:00014749       _initialize_pointers       10015749 f   libucrt:initialization.obj
 0001:00014777       _uninitialize_vcruntime    10015777 f   libucrt:initialization.obj
 0001:00014780       _uninitialize_allocated_memory 10015780 f   libucrt:initialization.obj
 0001:00014797       _uninitialize_allocated_io_buffers 10015797 f   libucrt:initialization.obj
 0001:000147e7       ??R<lambda_af42a3ee9806e9a7305d451646e05244>@@QBEXAAPAU__crt_multibyte_data@@@Z 100157e7 f   libucrt:initialization.obj
 0001:000150d0       $$000000                   100160d0     libucrt:strncmp.obj
 0001:000151bc       ??$?RV<lambda_15ade71b0218206bbe3333a0c9b79046>@@AAV<lambda_da44e0f8b0f19ba52fefafb335991732>@@V<lambda_207f2d024fc103971653565357d6cd41>@@@?$__crt_seh_guarded_call@X@@QAEX$$QAV<lambda_15ade71b0218206bbe3333a0c9b79046>@@AAV<lambda_da44e0f8b0f19ba52fefafb335991732>@@$$QAV<lambda_207f2d024fc103971653565357d6cd41>@@@Z 100161bc f   libucrt:per_thread_data.obj
 0001:0001520e       ??$?RV<lambda_38edbb1296d33220d7e4dd0ed76b244a>@@AAV<lambda_5ce1d447e08cb34b2473517608e21441>@@V<lambda_fb385d3da700c9147fc39e65dd577a8c>@@@?$__crt_seh_guarded_call@X@@QAEX$$QAV<lambda_38edbb1296d33220d7e4dd0ed76b244a>@@AAV<lambda_5ce1d447e08cb34b2473517608e21441>@@$$QAV<lambda_fb385d3da700c9147fc39e65dd577a8c>@@@Z 1001620e f   libucrt:per_thread_data.obj
 0001:00015279       ??$?RV<lambda_6affb1475c98b40b75cdec977db92e3c>@@AAV<lambda_b8d4b9c228a6ecc3f80208dbb4b4a104>@@V<lambda_608742c3c92a14382c1684fc64f96c88>@@@?$__crt_seh_guarded_call@X@@QAEX$$QAV<lambda_6affb1475c98b40b75cdec977db92e3c>@@AAV<lambda_b8d4b9c228a6ecc3f80208dbb4b4a104>@@$$QAV<lambda_608742c3c92a14382c1684fc64f96c88>@@@Z 10016279 f   libucrt:per_thread_data.obj
 0001:000152ce       ??$?RV<lambda_a7e850c220f1c8d1e6efeecdedd162c6>@@AAV<lambda_46720907175c18b6c9d2717bc0d2d362>@@V<lambda_9048902d66e8d99359bc9897bbb930a8>@@@?$__crt_seh_guarded_call@X@@QAEX$$QAV<lambda_a7e850c220f1c8d1e6efeecdedd162c6>@@AAV<lambda_46720907175c18b6c9d2717bc0d2d362>@@$$QAV<lambda_9048902d66e8d99359bc9897bbb930a8>@@@Z 100162ce f   libucrt:per_thread_data.obj
 0001:00015328       ?construct_ptd@@YAXQAU__acrt_ptd@@QAPAU__crt_locale_data@@@Z 10016328 f   libucrt:per_thread_data.obj
 0001:000153c1       ?destroy_fls@@YGXPAX@Z     100163c1 f   libucrt:per_thread_data.obj
 0001:000153e2       ?destroy_ptd@@YAXQAU__acrt_ptd@@@Z 100163e2 f   libucrt:per_thread_data.obj
 0001:000154af       ?replace_current_thread_locale_nolock@@YAXQAU__acrt_ptd@@QAU__crt_locale_data@@@Z 100164af f   libucrt:per_thread_data.obj
 0001:000158bf       ?try_get_AreFileApisANSI@@YAP6GHXZXZ 100168bf f   libucrt:winapi_thunks.obj
 0001:000158d9       ?try_get_LCMapStringEx@@YAP6GHPB_WK0HPA_WHPAU_nlsversioninfo@@PAXJ@ZXZ 100168d9 f   libucrt:winapi_thunks.obj
 0001:000158f3       ?try_get_LocaleNameToLCID@@YAP6GKPB_WK@ZXZ 100168f3 f   libucrt:winapi_thunks.obj
 0001:0001590d       ?try_get_first_available_module@@YAPAUHINSTANCE__@@QBW4module_id@?A0x391cf84c@@0@Z 1001690d f   libucrt:winapi_thunks.obj
 0001:000159d4       ?try_get_function@@YAPAXW4function_id@?A0x391cf84c@@QBDQBW4module_id@2@2@Z 100169d4 f   libucrt:winapi_thunks.obj
 0001:00016137       ?fp_format_a@@YAHQBNPADIQADIH_NIQAU__crt_locale_pointers@@@Z 10017137 f   libucrt:cvt.obj
 0001:00016450       ?fp_format_e@@YAHQBNQADI1IH_NIQAU__crt_locale_pointers@@@Z 10017450 f   libucrt:cvt.obj
 0001:000164f2       ?fp_format_e_internal@@YAHQADIH_NIQAU_strflt@@1QAU__crt_locale_pointers@@@Z 100174f2 f   libucrt:cvt.obj
 0001:0001663a       ?fp_format_f@@YAHQBNQADI1IHQAU__crt_locale_pointers@@@Z 1001763a f   libucrt:cvt.obj
 0001:000166c5       ?fp_format_f_internal@@YAHQADIHQAU_strflt@@_NQAU__crt_locale_pointers@@@Z 100176c5 f   libucrt:cvt.obj
 0001:00016796       ?fp_format_g@@YAHQBNQADI1IH_NIQAU__crt_locale_pointers@@@Z 10017796 f   libucrt:cvt.obj
 0001:00016857       ?fp_format_nan_or_infinity@@YAHW4__acrt_fp_class@@_NPADI1@Z 10017857 f   libucrt:cvt.obj
 0001:000168ec       ?shift_bytes@@YAXQADI0H@Z  100178ec f   libucrt:cvt.obj
 0001:00016bd3       ??$?RV<lambda_e5124f882df8998aaf41531e079ba474>@@AAV<lambda_3e16ef9562a7dcce91392c22ab16ea36>@@V<lambda_e25ca0880e6ef98be67edffd8c599615>@@@?$__crt_seh_guarded_call@X@@QAEX$$QAV<lambda_e5124f882df8998aaf41531e079ba474>@@AAV<lambda_3e16ef9562a7dcce91392c22ab16ea36>@@$$QAV<lambda_e25ca0880e6ef98be67edffd8c599615>@@@Z 10017bd3 f   libucrt:wsetlocale.obj
 0001:00016c73       ?initialize_inherited_file_handles_nolock@@YAXXZ 10017c73 f   libucrt:ioinit.obj
 0001:00016d29       ?initialize_stdio_handles_nolock@@YAXXZ 10017d29 f   libucrt:ioinit.obj
 0001:00016f3a       ?<lambda_invoker_cdecl>@<lambda_838c7f62c73c983481e27c09e84b0b5d>@@CAHPBX0@Z 10017f3a f   libucrt:argv_wildcards.obj
 0001:00016f52       ??$__acrt_convert_wcs_mbs_cp@D_WV<lambda_62f6974d9771e494a5ea317cc32e971c>@@U__crt_win32_buffer_internal_dynamic_resizing@@@@YAHQBDAAV?$__crt_win32_buffer@_WU__crt_win32_buffer_internal_dynamic_resizing@@@@ABV<lambda_62f6974d9771e494a5ea317cc32e971c>@@I@Z 10017f52 f   libucrt:argv_wildcards.obj
 0001:00017004       ??$__acrt_convert_wcs_mbs_cp@_WDV<lambda_28bda7af82a03b66c1cb3803a755f95d>@@U__crt_win32_buffer_internal_dynamic_resizing@@@@YAHQB_WAAV?$__crt_win32_buffer@DU__crt_win32_buffer_internal_dynamic_resizing@@@@ABV<lambda_28bda7af82a03b66c1cb3803a755f95d>@@I@Z 10018004 f   libucrt:argv_wildcards.obj
 0001:000170f0       ??$common_expand_argv_wildcards@D@@YAHQAPADQAPAPAD@Z 100180f0 f   libucrt:argv_wildcards.obj
 0001:000172df       ??$copy_and_add_argument_to_buffer@D@@YAHQBD0IAAV?$argument_list@D@?A0x5f5c8891@@@Z 100182df f   libucrt:argv_wildcards.obj
 0001:00017390       ??$expand_argument_wildcards@D@@YAHQAD0AAV?$argument_list@D@?A0x5f5c8891@@@Z 10018390 f   libucrt:argv_wildcards.obj
 0001:000176da       ?expand_if_necessary@?$argument_list@D@?A0x5f5c8891@@AAEHXZ 100186da f   libucrt:argv_wildcards.obj
 0001:0001776c       ??$__acrt_convert_wcs_mbs_cp@_WDV<lambda_0fec1a7b3f42a53036604e18c2d5e07e>@@U__crt_win32_buffer_no_resizing@@@@YAHQB_WAAV?$__crt_win32_buffer@DU__crt_win32_buffer_no_resizing@@@@ABV<lambda_0fec1a7b3f42a53036604e18c2d5e07e>@@I@Z 1001876c f   libucrt:getmodulefilenamea.obj
 0001:0001790f       ??$?RV<lambda_ceb1ee4838e85a9d631eb091e2fbe199>@@AAV<lambda_ae742caa10f662c28703da3d2ea5e57e>@@V<lambda_cd08b5d6af4937fe54fc07d0c9bf6b37>@@@?$__crt_seh_guarded_call@X@@QAEX$$QAV<lambda_ceb1ee4838e85a9d631eb091e2fbe199>@@AAV<lambda_ae742caa10f662c28703da3d2ea5e57e>@@$$QAV<lambda_cd08b5d6af4937fe54fc07d0c9bf6b37>@@@Z 1001890f f   libucrt:mbctype.obj
 0001:0001795c       ??R<lambda_ae742caa10f662c28703da3d2ea5e57e>@@QBEXXZ 1001895c f   libucrt:mbctype.obj
 0001:000179df       ?CPtoLocaleName@@YAPB_WH@Z 100189df f   libucrt:mbctype.obj
 0001:00017a1d       ?getSystemCP@@YAHH@Z       10018a1d f   libucrt:mbctype.obj
 0001:00017a8e       ?setSBCS@@YAXPAU__crt_multibyte_data@@@Z 10018a8e f   libucrt:mbctype.obj
 0001:00017af3       ?setSBUpLow@@YAXPAU__crt_multibyte_data@@@Z 10018af3 f   libucrt:mbctype.obj
 0001:00017c74       ?setmbcp_internal@@YAHH_NQAU__acrt_ptd@@QAPAU__crt_multibyte_data@@@Z 10018c74 f   libucrt:mbctype.obj
 0001:00017d8d       ?update_thread_multibyte_data_internal@@YAPAU__crt_multibyte_data@@QAU__acrt_ptd@@QAPAU1@@Z 10018d8d f   libucrt:mbctype.obj
 0001:0001807b       _memcpy_s                  1001907b f   libucrt:cfout.obj
 0001:0001807b       _memcpy_s                  1001907b f   libucrt:mbctype.obj
 0001:000180fc       ?x_ismbbtype_l@@YAHPAU__crt_locale_pointers@@IHH@Z 100190fc f   libucrt:ismbbyte.obj
 0001:000182ad       ?find_end_of_double_null_terminated_sequence@@YAPB_WQB_W@Z 100192ad f   libucrt:get_environment_from_os.obj
 0001:0001841c       ??$?RV<lambda_cbab9ec6f41b0180b23cc171c22676b0>@@AAV<lambda_44731a7d0e6d81c3e6aa82d741081786>@@V<lambda_4b292cb8dd18144e164572427af410ab>@@@?$__crt_seh_guarded_call@P6AXH@Z@@QAEP6AXH@Z$$QAV<lambda_cbab9ec6f41b0180b23cc171c22676b0>@@AAV<lambda_44731a7d0e6d81c3e6aa82d741081786>@@$$QAV<lambda_4b292cb8dd18144e164572427af410ab>@@@Z 1001941c f   libucrt:signal.obj
 0001:00018480       ?get_global_action_nolock@@YAPAP6AXH@ZH@Z 10019480 f   libucrt:signal.obj
 0001:000184c2       ?siglookup@@YAPAU__crt_signal_action_t@@HQAU1@@Z 100194c2 f   libucrt:signal.obj
 0001:0001878c       ??$?RV<lambda_2866be3712abc81a800a822484c830d8>@@AAV<lambda_39ca0ed439415581b5b15c265174cece>@@V<lambda_2b24c74d71094a6cd0cb82e44167d71b>@@@?$__crt_seh_guarded_call@X@@QAEX$$QAV<lambda_2866be3712abc81a800a822484c830d8>@@AAV<lambda_39ca0ed439415581b5b15c265174cece>@@$$QAV<lambda_2b24c74d71094a6cd0cb82e44167d71b>@@@Z 1001978c f   libucrt:fflush.obj
 0001:00018818       ??$?RV<lambda_2cc53f568c5a2bb6f192f930a45d44ea>@@AAV<lambda_ab61a845afdef5b7c387490eaf3616ee>@@V<lambda_c2ffc0b7726aa6be21d5f0026187e748>@@@?$__crt_seh_guarded_call@X@@QAEX$$QAV<lambda_2cc53f568c5a2bb6f192f930a45d44ea>@@AAV<lambda_ab61a845afdef5b7c387490eaf3616ee>@@$$QAV<lambda_c2ffc0b7726aa6be21d5f0026187e748>@@@Z 10019818 f   libucrt:fflush.obj
 0001:000188c4       ?common_flush_all@@YAH_N@Z 100198c4 f   libucrt:fflush.obj
 0001:00018911       ?common_flush_all_should_try_to_flush_stream@@YA_NV__crt_stdio_stream@@QAH@Z 10019911 f   libucrt:fflush.obj
 0001:00018944       ?is_stream_flushable_or_commitable@@YA_NJ@Z 10019944 f   libucrt:fflush.obj
 0001:00018e4d       ?GetTableIndexFromLocaleName@@YAHPB_W@Z 10019e4d f   libucrt:lcidtoname_downlevel.obj
 0001:00018f03       ??R<lambda_3d301b9e52f5099be73030e1f0bf487e>@@QBEIPBD@Z 10019f03 f   libucrt:mbrtowc.obj
 0001:0001abda       ?free_crt_array_internal@@YAXQAPBXI@Z 1001bbda f   libucrt:inittime.obj
 0001:0001b0b0       ?swap@@YAXPAD0I@Z          1001c0b0 f   libucrt:qsort.obj
 0001:0001b534       ??$common_tcsncpy_s@D@@YAHQADIQBDI@Z 1001c534 f   libucrt:strncpy_s.obj
 0001:0001b600       $$000000                   1001c600     libucrt:strpbrk.obj
 0001:0001b6e4       ?__acrt_LCMapStringA_stat@@YAHPAU__crt_locale_pointers@@PB_WKPBDHPADHHH@Z 1001c6e4 f   libucrt:lcmapstringa.obj
 0001:0001b917       ?initialize_multibyte@@YAHXZ 1001c917 f   libucrt:multibyte_initializer.obj
 0001:0001b926       ??$?RV<lambda_9e9de3de5fa147e2223d7db92bc10aa6>@@AAV<lambda_38ce7e780aa69e748d6df282ebc68efe>@@V<lambda_8ca6da459f0f6780f1cff60fdc3d00e5>@@@?$__crt_seh_guarded_call@H@@QAEH$$QAV<lambda_9e9de3de5fa147e2223d7db92bc10aa6>@@AAV<lambda_38ce7e780aa69e748d6df282ebc68efe>@@$$QAV<lambda_8ca6da459f0f6780f1cff60fdc3d00e5>@@@Z 1001c926 f   libucrt:commit.obj
 0001:0001ba45       ?write_double_translated_ansi_nolock@@YA?AUwrite_result@?A0x17268360@@HQBDI@Z 1001ca45 f   libucrt:write.obj
 0001:0001bdef       ?write_double_translated_unicode_nolock@@YA?AUwrite_result@?A0x17268360@@QBDI@Z 1001cdef f   libucrt:write.obj
 0001:0001be57       ?write_requires_double_translation_nolock@@YA_NH@Z 1001ce57 f   libucrt:write.obj
 0001:0001bec8       ?write_text_ansi_nolock@@YA?AUwrite_result@?A0x17268360@@HQBDI@Z 1001cec8 f   libucrt:write.obj
 0001:0001bfa3       ?write_text_utf16le_nolock@@YA?AUwrite_result@?A0x17268360@@HQBDI@Z 1001cfa3 f   libucrt:write.obj
 0001:0001c08c       ?write_text_utf8_nolock@@YA?AUwrite_result@?A0x17268360@@HQBDI@Z 1001d08c f   libucrt:write.obj
 0001:0001c760       $$000000                   1001d760     libucrt:log10_impl.obj
 0001:0001c870       $$000000                   1001d870     libucrt:ceil_pentium4.obj
 0001:0001c98d       ??$common_lseek_nolock@_J@@YA_JH_JH@Z 1001d98d f   libucrt:lseek.obj
 0001:0001cb73       ?to_abstract_control@@YA?AW4__acrt_fenv_abstract_control@@W4__acrt_fenv_machine_sse_control@@@Z 1001db73 f   libucrt:_fenvutils.obj
 0001:0001cc2f       ?to_abstract_control@@YA?AW4__acrt_fenv_abstract_control@@W4__acrt_fenv_machine_x87_control@@@Z 1001dc2f f   libucrt:_fenvutils.obj
 0001:0001cce8       ?to_machine_sse_control@@YA?AW4__acrt_fenv_machine_sse_control@@W4__acrt_fenv_abstract_control@@@Z 1001dce8 f   libucrt:_fenvutils.obj
 0001:0001cdb5       ?to_machine_x87_control@@YA?AW4__acrt_fenv_machine_x87_control@@W4__acrt_fenv_abstract_control@@@Z 1001ddb5 f   libucrt:_fenvutils.obj
 0001:0001d210       $$000000                   1001e210     libucrt:log10_pentium4.obj
 0001:0001d4a0       $$000000                   1001e4a0     libucrt:87tran.obj
 0001:0001d6b0       $$000000                   1001e6b0     libucrt:87disp.obj
 0001:0001d910       $$000000                   1001e910     libucrt:common.obj
 0001:0001daa0       $$000000                   1001eaa0     libucrt:genexcep.obj
 0001:0001dd9c       ??$?RV<lambda_218ce3db14220d0be481dae8ef3383b6>@@AAV<lambda_628dfdc04ba53c8bfc02c9951375f3f5>@@V<lambda_57dc472bd5c9d5f3b2cbca59b8a843ae>@@@?$__crt_seh_guarded_call@H@@QAEH$$QAV<lambda_218ce3db14220d0be481dae8ef3383b6>@@AAV<lambda_628dfdc04ba53c8bfc02c9951375f3f5>@@$$QAV<lambda_57dc472bd5c9d5f3b2cbca59b8a843ae>@@@Z 1001ed9c f   libucrt:close.obj
 0001:0001df90       $$000000                   1001ef90     libucrt:_strnicm.obj
 0001:0001dff1       ?__dcrt_lowio_initialize_console_output@@YAXXZ 1001eff1 f   libucrt:initcon.obj
 0001:0001ee50       $$000000                   1001fe50     LIBCMT:ulldvrm.obj
 0001:0001eef0       $$000000                   1001fef0     LIBCMT:llmul.obj
 0001:0001ef30       $$000000                   1001ff30     LIBCMT:lldvrm.obj
 0001:0001f010       $$000000                   10020010     LIBCMT:ullshr.obj
 0001:0001f030       $$000000                   10020030     LIBCMT:llshl.obj
 0001:0001f050       $$000000                   10020050     LIBCMT:ftol2.obj
 0001:0001f110       $$000000                   10020110     libvcruntime:strrchr.obj
 0001:0001f250       $$000000                   10020250     libvcruntime:strchr.obj
 0001:0001f3f3       __ehhandler$??2@YAPAXIABUnothrow_t@std@@@Z 100203f3 f   LIBCMT:new_scalar_nothrow.obj
 0001:0001f40e       __ehhandler$?CallUnexpected@@YAXPBU_s_ESTypeList@@@Z 1002040e f   libvcruntime:frame.obj
 0001:0001f429       ??__F_AtlComModule@ATL@@YAXXZ 10020429 f   OposVariant.obj
 0001:0001f433       ??__F_AtlWinModule@ATL@@YAXXZ 10020433 f   OposVariant.obj
 0001:0001f44d       ??__F_Module@@YAXXZ        1002044d f   ElectronicValueRW.obj
 0001:0001f461       ??__F_AtlBaseModule@ATL@@YAXXZ 10020461 f   atls:atlbase.obj
 0002:00000304       ?_AtlBaseModule$initializer$@ATL@@3P6AXXZA 10021304     atls:atlbase.obj
 0002:00000308       ?_AtlComModule$initializer$@ATL@@3P6AXXZA 10021308     OposVariant.obj
 0002:0000030c       ?_AtlWinModule$initializer$@ATL@@3P6AXXZA 1002130c     OposVariant.obj
 0002:00000310       ?_Module$initializer$@@3P6AXXZA 10021310     ElectronicValueRW.obj
 0002:00000314       ??pConnMap$initializer$@?$IConnectionPointContainerImpl@VCOPOSElectronicValueRW@@@ATL@@0P6AXXZA@@3P6AXXZA 10021314     ElectronicValueRW.obj
 0002:00000320       ?__scrt_initialize_tss_var@@3P6AHXZA 10021320     LIBCMT:thread_safe_statics.obj
 0002:00001fb0       _GS_ExceptionPointers      10022fb0     LIBCMT:gs_report.obj
 0002:00002120       ?ExceptionTemplate@?1??_CxxThrowException@@9@8@4UEHExceptionRecord@@B 10023120     libvcruntime:throw.obj
 0002:00002160       ?tokenTable@@3QBQBDB       10023160     libvcruntime:undname.obj
 0002:000021a0       ?nameTable@@3QBQBDB        100231a0     libvcruntime:undname.obj
 0002:000022ec       ?rttiTable@@3QBQBDB        100232ec     libvcruntime:undname.obj
 0002:00002908       ?module_names@?A0x09dcfcb8@@3QBQB_WB 10023908     libvcruntime:winapi_downlevel.obj
 0002:000029b0       ?candidate_modules@?1??try_get_FlsAlloc@@YAP6GKP6GXPAX@Z@ZXZ@4QBW4module_id@?A0x09dcfcb8@@B 100239b0     libvcruntime:winapi_downlevel.obj
 0002:000029c4       ?candidate_modules@?1??try_get_FlsFree@@YAP6GHK@ZXZ@4QBW4module_id@?A0x09dcfcb8@@B 100239c4     libvcruntime:winapi_downlevel.obj
 0002:000029d4       ?candidate_modules@?1??try_get_FlsGetValue@@YAP6GPAXK@ZXZ@4QBW4module_id@?A0x09dcfcb8@@B 100239d4     libvcruntime:winapi_downlevel.obj
 0002:000029e8       ?candidate_modules@?1??try_get_FlsSetValue@@YAP6GHKPAX@ZXZ@4QBW4module_id@?A0x09dcfcb8@@B 100239e8     libvcruntime:winapi_downlevel.obj
 0002:000029fc       ?candidate_modules@?1??try_get_InitializeCriticalSectionEx@@YAP6GHPAU_RTL_CRITICAL_SECTION@@KK@ZXZ@4QBW4module_id@?A0x09dcfcb8@@B 100239fc     libvcruntime:winapi_downlevel.obj
 0002:00002a28       ?errtable@@3QBUerrentry@?A0x31fdb9ec@@B 10023a28     libucrt:errno.obj
 0002:00002cd0       ___acrt_initializers       10023cd0     libucrt:initialization.obj
 0002:00002d50       ?module_names@?A0x391cf84c@@3QBQB_WB 10023d50     libucrt:winapi_thunks.obj
 0002:000031c8       ?candidate_modules@?1??try_get_AreFileApisANSI@@YAP6GHXZXZ@4QBW4module_id@?A0x391cf84c@@B 100241c8     libucrt:winapi_thunks.obj
 0002:000031dc       ?candidate_modules@?1??try_get_FlsAlloc@@YAP6GKP6GXPAX@Z@ZXZ@4QBW4module_id@?A0x391cf84c@@B 100241dc     libucrt:winapi_thunks.obj
 0002:000031e4       ?candidate_modules@?1??try_get_FlsFree@@YAP6GHK@ZXZ@4QBW4module_id@?A0x391cf84c@@B 100241e4     libucrt:winapi_thunks.obj
 0002:000031ec       ?candidate_modules@?1??try_get_FlsGetValue@@YAP6GPAXK@ZXZ@4QBW4module_id@?A0x391cf84c@@B 100241ec     libucrt:winapi_thunks.obj
 0002:000031f4       ?candidate_modules@?1??try_get_FlsSetValue@@YAP6GHKPAX@ZXZ@4QBW4module_id@?A0x391cf84c@@B 100241f4     libucrt:winapi_thunks.obj
 0002:000031fc       ?candidate_modules@?1??try_get_InitializeCriticalSectionEx@@YAP6GHPAU_RTL_CRITICAL_SECTION@@KK@ZXZ@4QBW4module_id@?A0x391cf84c@@B 100241fc     libucrt:winapi_thunks.obj
 0002:00003204       ?candidate_modules@?1??try_get_LCMapStringEx@@YAP6GHPB_WK0HPA_WHPAU_nlsversioninfo@@PAXJ@ZXZ@4QBW4module_id@?A0x391cf84c@@B 10024204     libucrt:winapi_thunks.obj
 0002:0000321c       ?candidate_modules@?1??try_get_LocaleNameToLCID@@YAP6GKPB_WK@ZXZ@4QBW4module_id@?A0x391cf84c@@B 1002421c     libucrt:winapi_thunks.obj
 0002:00003238       ?candidate_modules@?1??try_get_AppPolicyGetProcessTerminationMethod@@YAP6GJPAXPAW4AppPolicyProcessTerminationMethod@@@ZXZ@4QBW4module_id@?A0x391cf84c@@B 10024238     libucrt:winapi_thunks.obj
 0002:00003264       ?candidate_modules@?1??try_get_SetThreadStackGuarantee@@YAP6GHPAK@ZXZ@4QBW4module_id@?A0x391cf84c@@B 10024264     libucrt:winapi_thunks.obj
 0002:00003288       ?strings@?1??fp_format_nan_or_infinity@@YAHW4__acrt_fp_class@@_NPADI1@Z@4QAY03QBDA 10024288     libucrt:cvt.obj
 0002:000037d0       ?_mb_locale_names@@3QBQB_WB 100247d0     libucrt:mbctype.obj
 0002:00004018       ?LcidToLocaleNameTable@?A0x881e4c05@@3QBULcidToLocaleName@1@B 10025018     libucrt:lcidtoname_downlevel.obj
 0002:00005140       ?LocaleNameToIndexTable@?A0x881e4c05@@3QBULocaleNameIndex@1@B 10026140     libucrt:lcidtoname_downlevel.obj
 0002:00006998       ?large_power_indices@?1??multiply_by_power_of_ten@__crt_strtox@@YA_NAAUbig_integer@2@I@Z@4QBUunpack_index@?1??12@YA_N0I@Z@B 10027998     libucrt:cfout.obj
 0002:00006a80       LOG_name                   10027a80     libucrt:log10_impl.obj
 0002:00006a90       _One                       10027a90     libucrt:ceil_pentium4.obj
 0002:00006aa0       _Bns                       10027aa0     libucrt:ceil_pentium4.obj
 0002:00006ab0       _Zero                      10027ab0     libucrt:ceil_pentium4.obj
 0002:00006ac0       _S                         10027ac0     libucrt:ceil_pentium4.obj
 0002:00006ad0       _NegZero                   10027ad0     libucrt:ceil_pentium4.obj
 0002:00006ae0       emask                      10027ae0     libucrt:log10_pentium4.obj
 0002:00006af0       CC                         10027af0     libucrt:log10_pentium4.obj
 0002:00006b00       Magic                      10027b00     libucrt:log10_pentium4.obj
 0002:00006b10       hi_mask                    10027b10     libucrt:log10_pentium4.obj
 0002:00006b20       LOG10_2                    10027b20     libucrt:log10_pentium4.obj
 0002:00006b30       place_L                    10027b30     libucrt:log10_pentium4.obj
 0002:00006b50       One                        10027b50     libucrt:log10_pentium4.obj
 0002:00006b60       Zero                       10027b60     libucrt:log10_pentium4.obj
 0002:00006b70       Two52                      10027b70     libucrt:log10_pentium4.obj
 0002:00006b80       Infs                       10027b80     libucrt:log10_pentium4.obj
 0002:00006b90       NaN                        10027b90     libucrt:log10_pentium4.obj
 0002:00006ba0       coeff                      10027ba0     libucrt:log10_pentium4.obj
 0002:00006bfe       _log2max                   10027bfe     libucrt:87tran.obj
 0002:00006c08       _smallarg                  10027c08     libucrt:87tran.obj
 0002:00006c12       _half                      10027c12     libucrt:87tran.obj
 0002:00006c5e       One                        10027c5e     libucrt:87disp.obj
 0002:00006c66       Three                      10027c66     libucrt:87disp.obj
 0002:00006c6e       XAMtoTagTab                10027c6e     libucrt:87disp.obj
 0002:00006c80       One                        10027c80     libucrt:common.obj
 0002:00006c94       DblMax                     10027c94     libucrt:common.obj
 0002:00006c9c       DblMin                     10027c9c     libucrt:common.obj
 0002:00006ca4       IeeeAdjO                   10027ca4     libucrt:common.obj
 0002:00006cac       IeeeAdjU                   10027cac     libucrt:common.obj
 0002:00006cb4       _infinity                  10027cb4     libucrt:common.obj
 0002:00006cbc       _zero                      10027cbc     libucrt:common.obj
 0002:00006d08       _over                      10027d08     libucrt:fpctrl.obj
 0002:00006d14       _under                     10027d14     libucrt:fpctrl.obj
 0002:00007548       ?_names@?1??_get_fname@@9@9 10028548     libucrt:fpexcept.obj
 0002:00007da0       __sehtable$?_AtlVerifyStackAvailable@_ATL_SAFE_ALLOCA_IMPL@ATL@@YA_NK@Z 10028da0     ElectronicValueRW.obj
 0002:00007dc0       __sehtable$___scrt_is_nonwritable_in_current_image 10028dc0     LIBCMT:utility.obj
 0002:00007ddc       __catchsym$??2@YAPAXIABUnothrow_t@std@@@Z$2 10028ddc     LIBCMT:new_scalar_nothrow.obj
 0002:00007dec       __unwindtable$??2@YAPAXIABUnothrow_t@std@@@Z 10028dec     LIBCMT:new_scalar_nothrow.obj
 0002:00007dfc       __tryblocktable$??2@YAPAXIABUnothrow_t@std@@@Z 10028dfc     LIBCMT:new_scalar_nothrow.obj
 0002:00007e10       __ehfuncinfo$??2@YAPAXIABUnothrow_t@std@@@Z 10028e10     LIBCMT:new_scalar_nothrow.obj
 0002:00007e38       __sehtable$?dllmain_crt_process_attach@@YAHQAUHINSTANCE__@@QAX@Z 10028e38     LIBCMT:dll_dllmain.obj
 0002:00007e58       __sehtable$?dllmain_crt_process_detach@@YAH_N@Z 10028e58     LIBCMT:dll_dllmain.obj
 0002:00007e78       __sehtable$?dllmain_dispatch@@YAHQAUHINSTANCE__@@KQAX@Z 10028e78     LIBCMT:dll_dllmain.obj
 0002:00007f28       __sehtable$?FrameUnwindToState@__FrameHandler3@@SAXPAUEHRegistrationNode@@PAXPBU_s_FuncInfo@@H@Z 10028f28     libvcruntime:frame.obj
 0002:00007f50       __sehtable$?CallCatchBlock@@YAPAXPAUEHExceptionRecord@@PAUEHRegistrationNode@@PAU_CONTEXT@@PBU_s_FuncInfo@@PAXHK@Z 10028f50     libvcruntime:frame.obj
 0002:00007f78       __catchsym$?CallUnexpected@@YAXPBU_s_ESTypeList@@@Z$2 10028f78     libvcruntime:frame.obj
 0002:00007f88       __unwindtable$?CallUnexpected@@YAXPBU_s_ESTypeList@@@Z 10028f88     libvcruntime:frame.obj
 0002:00007f98       __tryblocktable$?CallUnexpected@@YAXPBU_s_ESTypeList@@@Z 10028f98     libvcruntime:frame.obj
 0002:00007fac       __ehfuncinfo$?CallUnexpected@@YAXPBU_s_ESTypeList@@@Z 10028fac     libvcruntime:frame.obj
 0002:00007fd0       __sehtable$??$BuildCatchObjectHelperInternal@V__FrameHandler3@@@@YAHPAUEHExceptionRecord@@PAXPBU_s_HandlerType@@PBU_s_CatchableType@@@Z 10028fd0     libvcruntime:frame.obj
 0002:00007ff0       __sehtable$??$BuildCatchObjectInternal@V__FrameHandler3@@@@YAXPAUEHExceptionRecord@@PAXPBU_s_HandlerType@@PBU_s_CatchableType@@@Z 10028ff0     libvcruntime:frame.obj
 0002:00008048       __sehtable$___DestructExceptionObject 10029048     libvcruntime:ehhelpers.obj
 0002:00008068       __sehtable$??R<lambda_6e4b09c48022b2350581041d5f6b0c4c>@@QBE@XZ 10029068     libucrt:exit.obj
 0002:00008088       __sehtable$??$?RV<lambda_03b1d95aef87969028cfba75ccab2455>@@AAV<lambda_6e4b09c48022b2350581041d5f6b0c4c>@@V<lambda_22bdf7517842c4b3e53723af5aa32b9e>@@@?$__crt_seh_guarded_call@X@@QAEX$$QAV<lambda_03b1d95aef87969028cfba75ccab2455>@@AAV<lambda_6e4b09c48022b2350581041d5f6b0c4c>@@$$QAV<lambda_22bdf7517842c4b3e53723af5aa32b9e>@@@Z 10029088     libucrt:exit.obj
 0002:000080a8       __sehtable$??$?RV<lambda_8e746cf0007f6ed984d6f78af1fec997>@@AAV<lambda_22ebabd17bc4fa466a2aca6d8deb888d>@@V<lambda_18ed0c0b38a6dc0daf1e7ac6d6adf05e>@@@?$__crt_seh_guarded_call@H@@QAEH$$QAV<lambda_8e746cf0007f6ed984d6f78af1fec997>@@AAV<lambda_22ebabd17bc4fa466a2aca6d8deb888d>@@$$QAV<lambda_18ed0c0b38a6dc0daf1e7ac6d6adf05e>@@@Z 100290a8     libucrt:onexit.obj
 0002:000080c8       __sehtable$??$?RV<lambda_69a2805e680e0e292e8ba93315fe43a8>@@AAV<lambda_f03950bc5685219e0bcd2087efbe011e>@@V<lambda_03fcd07e894ec930e3f35da366ca99d6>@@@?$__crt_seh_guarded_call@H@@QAEH$$QAV<lambda_69a2805e680e0e292e8ba93315fe43a8>@@AAV<lambda_f03950bc5685219e0bcd2087efbe011e>@@$$QAV<lambda_03fcd07e894ec930e3f35da366ca99d6>@@@Z 100290c8     libucrt:onexit.obj
 0002:000080e8       __sehtable$__query_new_handler 100290e8     libucrt:new_handler.obj
 0002:00008108       __sehtable$_terminate      10029108     libucrt:terminate.obj
 0002:00008128       __sehtable$??$?RV<lambda_15ade71b0218206bbe3333a0c9b79046>@@AAV<lambda_da44e0f8b0f19ba52fefafb335991732>@@V<lambda_207f2d024fc103971653565357d6cd41>@@@?$__crt_seh_guarded_call@X@@QAEX$$QAV<lambda_15ade71b0218206bbe3333a0c9b79046>@@AAV<lambda_da44e0f8b0f19ba52fefafb335991732>@@$$QAV<lambda_207f2d024fc103971653565357d6cd41>@@@Z 10029128     libucrt:per_thread_data.obj
 0002:00008148       __sehtable$??$?RV<lambda_a7e850c220f1c8d1e6efeecdedd162c6>@@AAV<lambda_46720907175c18b6c9d2717bc0d2d362>@@V<lambda_9048902d66e8d99359bc9897bbb930a8>@@@?$__crt_seh_guarded_call@X@@QAEX$$QAV<lambda_a7e850c220f1c8d1e6efeecdedd162c6>@@AAV<lambda_46720907175c18b6c9d2717bc0d2d362>@@$$QAV<lambda_9048902d66e8d99359bc9897bbb930a8>@@@Z 10029148     libucrt:per_thread_data.obj
 0002:00008168       __sehtable$??$?RV<lambda_38edbb1296d33220d7e4dd0ed76b244a>@@AAV<lambda_5ce1d447e08cb34b2473517608e21441>@@V<lambda_fb385d3da700c9147fc39e65dd577a8c>@@@?$__crt_seh_guarded_call@X@@QAEX$$QAV<lambda_38edbb1296d33220d7e4dd0ed76b244a>@@AAV<lambda_5ce1d447e08cb34b2473517608e21441>@@$$QAV<lambda_fb385d3da700c9147fc39e65dd577a8c>@@@Z 10029168     libucrt:per_thread_data.obj
 0002:00008188       __sehtable$??$?RV<lambda_6affb1475c98b40b75cdec977db92e3c>@@AAV<lambda_b8d4b9c228a6ecc3f80208dbb4b4a104>@@V<lambda_608742c3c92a14382c1684fc64f96c88>@@@?$__crt_seh_guarded_call@X@@QAEX$$QAV<lambda_6affb1475c98b40b75cdec977db92e3c>@@AAV<lambda_b8d4b9c228a6ecc3f80208dbb4b4a104>@@$$QAV<lambda_608742c3c92a14382c1684fc64f96c88>@@@Z 10029188     libucrt:per_thread_data.obj
 0002:000081a8       __sehtable$??$?RV<lambda_e5124f882df8998aaf41531e079ba474>@@AAV<lambda_3e16ef9562a7dcce91392c22ab16ea36>@@V<lambda_e25ca0880e6ef98be67edffd8c599615>@@@?$__crt_seh_guarded_call@X@@QAEX$$QAV<lambda_e5124f882df8998aaf41531e079ba474>@@AAV<lambda_3e16ef9562a7dcce91392c22ab16ea36>@@$$QAV<lambda_e25ca0880e6ef98be67edffd8c599615>@@@Z 100291a8     libucrt:wsetlocale.obj
 0002:000081c8       __sehtable$___acrt_initialize_lowio 100291c8     libucrt:ioinit.obj
 0002:000081e8       __sehtable$?update_thread_multibyte_data_internal@@YAPAU__crt_multibyte_data@@QAU__acrt_ptd@@QAPAU1@@Z 100291e8     libucrt:mbctype.obj
 0002:00008208       __sehtable$??$?RV<lambda_ceb1ee4838e85a9d631eb091e2fbe199>@@AAV<lambda_ae742caa10f662c28703da3d2ea5e57e>@@V<lambda_cd08b5d6af4937fe54fc07d0c9bf6b37>@@@?$__crt_seh_guarded_call@X@@QAEX$$QAV<lambda_ceb1ee4838e85a9d631eb091e2fbe199>@@AAV<lambda_ae742caa10f662c28703da3d2ea5e57e>@@$$QAV<lambda_cd08b5d6af4937fe54fc07d0c9bf6b37>@@@Z 10029208     libucrt:mbctype.obj
 0002:00008228       __sehtable$_raise          10029228     libucrt:signal.obj
 0002:00008248       __sehtable$??$?RV<lambda_cbab9ec6f41b0180b23cc171c22676b0>@@AAV<lambda_44731a7d0e6d81c3e6aa82d741081786>@@V<lambda_4b292cb8dd18144e164572427af410ab>@@@?$__crt_seh_guarded_call@P6AXH@Z@@QAEP6AXH@Z$$QAV<lambda_cbab9ec6f41b0180b23cc171c22676b0>@@AAV<lambda_44731a7d0e6d81c3e6aa82d741081786>@@$$QAV<lambda_4b292cb8dd18144e164572427af410ab>@@@Z 10029248     libucrt:signal.obj
 0002:00008268       __sehtable$??$?RV<lambda_2866be3712abc81a800a822484c830d8>@@AAV<lambda_39ca0ed439415581b5b15c265174cece>@@V<lambda_2b24c74d71094a6cd0cb82e44167d71b>@@@?$__crt_seh_guarded_call@X@@QAEX$$QAV<lambda_2866be3712abc81a800a822484c830d8>@@AAV<lambda_39ca0ed439415581b5b15c265174cece>@@$$QAV<lambda_2b24c74d71094a6cd0cb82e44167d71b>@@@Z 10029268     libucrt:fflush.obj
 0002:00008288       __sehtable$??$?RV<lambda_2cc53f568c5a2bb6f192f930a45d44ea>@@AAV<lambda_ab61a845afdef5b7c387490eaf3616ee>@@V<lambda_c2ffc0b7726aa6be21d5f0026187e748>@@@?$__crt_seh_guarded_call@X@@QAEX$$QAV<lambda_2cc53f568c5a2bb6f192f930a45d44ea>@@AAV<lambda_ab61a845afdef5b7c387490eaf3616ee>@@$$QAV<lambda_c2ffc0b7726aa6be21d5f0026187e748>@@@Z 10029288     libucrt:fflush.obj
 0002:000082a8       __sehtable$___acrt_update_thread_locale_data 100292a8     libucrt:locale_refcounting.obj
 0002:000082c8       __sehtable$__fcloseall     100292c8     libucrt:closeall.obj
 0002:000082e8       __sehtable$___acrt_lowio_ensure_fh_exists 100292e8     libucrt:osfinfo.obj
 0002:00008308       __sehtable$??$?RV<lambda_9e9de3de5fa147e2223d7db92bc10aa6>@@AAV<lambda_38ce7e780aa69e748d6df282ebc68efe>@@V<lambda_8ca6da459f0f6780f1cff60fdc3d00e5>@@@?$__crt_seh_guarded_call@H@@QAEH$$QAV<lambda_9e9de3de5fa147e2223d7db92bc10aa6>@@AAV<lambda_38ce7e780aa69e748d6df282ebc68efe>@@$$QAV<lambda_8ca6da459f0f6780f1cff60fdc3d00e5>@@@Z 10029308     libucrt:commit.obj
 0002:00008328       __sehtable$__write         10029328     libucrt:write.obj
 0002:00008348       __sehtable$_fclose         10029348     libucrt:fclose.obj
 0002:00008368       __sehtable$??$?RV<lambda_218ce3db14220d0be481dae8ef3383b6>@@AAV<lambda_628dfdc04ba53c8bfc02c9951375f3f5>@@V<lambda_57dc472bd5c9d5f3b2cbca59b8a843ae>@@@?$__crt_seh_guarded_call@H@@QAEH$$QAV<lambda_218ce3db14220d0be481dae8ef3383b6>@@AAV<lambda_628dfdc04ba53c8bfc02c9951375f3f5>@@$$QAV<lambda_57dc472bd5c9d5f3b2cbca59b8a843ae>@@@Z 10029368     libucrt:close.obj
 0002:00008388       __sehtable$__IsNonwritableInCurrentImage 10029388     LIBCMT:pesect.obj
 0002:000083b0       .edata                     100293b0     OPOSElectronicValueRW.exp
 0002:000083d8       rgpv                       100293d8     OPOSElectronicValueRW.exp
 0002:000083e8       rgszName                   100293e8     OPOSElectronicValueRW.exp
 0002:000083f8       rgwOrd                     100293f8     OPOSElectronicValueRW.exp
 0002:00008400       szName                     10029400     OPOSElectronicValueRW.exp
 0002:0000841a       $N00001                    1002941a     OPOSElectronicValueRW.exp
 0002:0000842a       $N00002                    1002942a     OPOSElectronicValueRW.exp
 0002:0000843c       $N00003                    1002943c     OPOSElectronicValueRW.exp
 0002:0000844e       $N00004                    1002944e     OPOSElectronicValueRW.exp
 0002:00008a5e       .idata$6                   10029a5e     kernel32:KERNEL32.dll
 0002:00008c72       .idata$6                   10029c72     user32:USER32.dll
 0002:00008da6       .idata$6                   10029da6     gdi32:GDI32.dll
 0002:00008e4c       .idata$6                   10029e4c     advapi32:ADVAPI32.dll
 0002:00008f68       .idata$6                   10029f68     ole32:ole32.dll
 0002:00008f72       .idata$6                   10029f72     oleaut32:OLEAUT32.dll
 0003:00000110       ?ObjectMap@@3PAU_ATL_OBJMAP_ENTRY30@ATL@@A 1002b110     ElectronicValueRW.obj
 0003:000001d0       ?s_SOMethodNames@@3PAPADA  1002b1d0     ElectronicValueRWImpl.obj
 0003:000002dc       ?s_RequiredMethodsPerRelease@@3PAHA 1002b2dc     ElectronicValueRWImpl.obj
 0003:00000310       ?__vcrt_flsindex@@3KA      1002b310     libvcruntime:per_thread_data.obj
 0003:00000330       ?errno_no_memory@@3HA      1002b330     libucrt:errno.obj
 0003:00000334       ?doserrno_no_memory@@3KA   1002b334     libucrt:errno.obj
 0003:00000340       ?__acrt_flsindex@@3KA      1002b340     libucrt:per_thread_data.obj
 0003:000006d8       __mbctypes                 1002b6d8     libucrt:mbctype.obj
 0003:000007e0       __mbcasemaps               1002b7e0     libucrt:mbctype.obj
 0003:000008e0       ?__rgctypeflag@@3PADA      1002b8e0     libucrt:mbctype.obj
 0003:000008e8       ?__rgcode_page_info@@3PAUcode_page_info@@A 1002b8e8     libucrt:mbctype.obj
 0003:00000b40       ?__dcrt_lowio_console_output_handle@@3PAXA 1002bb40     libucrt:initcon.obj
 0003:00000cd8       ?is_initialized_as_dll@@3_NA 1002bcd8     LIBCMT:utility.obj
 0003:00000cd9       ?module_local_atexit_table_initialized@@3_NA 1002bcd9     LIBCMT:utility.obj
 0003:00000cdc       ?module_local_atexit_table@@3U_onexit_table_t@@A 1002bcdc     LIBCMT:utility.obj
 0003:00000ce8       ?module_local_at_quick_exit_table@@3U_onexit_table_t@@A 1002bce8     LIBCMT:utility.obj
 0003:00000cf4       ?g_tss_cv@@3U_RTL_CONDITION_VARIABLE@@A 1002bcf4     LIBCMT:thread_safe_statics.obj
 0003:00000cf8       ?g_tss_event@@3PAXA        1002bcf8     LIBCMT:thread_safe_statics.obj
 0003:00000cfc       ?g_tss_mutex@@3U_RTL_CRITICAL_SECTION@@A 1002bcfc     LIBCMT:thread_safe_statics.obj
 0003:00000d14       ?g_sleep_condition_variable_cs@@3P6GHPAU_RTL_CONDITION_VARIABLE@@PAU_RTL_CRITICAL_SECTION@@K@ZA 1002bd14     LIBCMT:thread_safe_statics.obj
 0003:00000d18       ?g_wake_all_condition_variable@@3P6GXPAU_RTL_CONDITION_VARIABLE@@@ZA 1002bd18     LIBCMT:thread_safe_statics.obj
 0003:00000d20       _GS_ExceptionRecord        1002bd20     LIBCMT:gs_report.obj
 0003:00000d70       _GS_ContextRecord          1002bd70     LIBCMT:gs_report.obj
 0003:00001040       ?__proc_attached@@3HA      1002c040     LIBCMT:dll_dllmain.obj
 0003:0000109c       ?AllocateData@@3P6GPAUAtlThunkData_t@@XZA 1002c09c     atls:atlthunk.obj
 0003:000010a0       ?InitData@@3P6GXPAUAtlThunkData_t@@PAXI@ZA 1002c0a0     atls:atlthunk.obj
 0003:000010a4       ?DataToCode@@3P6GP6GJPAUHWND__@@IIJ@ZPAUAtlThunkData_t@@@ZA 1002c0a4     atls:atlthunk.obj
 0003:000010a8       ?FreeData@@3P6GXPAUAtlThunkData_t@@@ZA 1002c0a8     atls:atlthunk.obj
 0003:000010ac       ?Initialized@@3_NA         1002c0ac     atls:atlthunk.obj
 0003:000010b8       ?__vcrt_startup_thread_ptd@@3U__vcrt_ptd@@A 1002c0b8     libvcruntime:per_thread_data.obj
 0003:000010e0       ___vcrt_lock_table         1002c0e0     libvcruntime:locks.obj
 0003:000010f8       ___vcrt_locks_initialized  1002c0f8     libvcruntime:locks.obj
 0003:00001124       ?heap@@3V_HeapManager@@A   1002c124     libvcruntime:undname.obj
 0003:00001138       ?module_handles@@3PAPAUHINSTANCE__@@A 1002c138     libvcruntime:winapi_downlevel.obj
 0003:00001144       ?function_pointers@@3PAPAXA 1002c144     libvcruntime:winapi_downlevel.obj
 0003:0000115c       ?__acrt_invalid_parameter_handler@@3V?$dual_state_global@P6AXPB_W00II@Z@__crt_state_management@@A 1002c15c     libucrt:invalid_parameter.obj
 0003:00001160       ?c_termination_complete@@3JA 1002c160     libucrt:exit.obj
 0003:00001164       ?thread_local_exit_callback_func@@3P6GXPAXK0@ZA 1002c164     libucrt:exit.obj
 0003:00001170       ?program_name@?1???$common_configure_argv@D@@YAHW4_crt_argv_mode@@@Z@4PADA 1002c170     libucrt:argv_parsing.obj
 0003:000012a0       ?__acrt_new_handler@@3V?$dual_state_global@P6AHI@Z@__crt_state_management@@A 1002c2a0     libucrt:new_handler.obj
 0003:000012a8       ?module_handles@@3PAPAUHINSTANCE__@@A 1002c2a8     libucrt:winapi_thunks.obj
 0003:000012f8       ?encoded_function_pointers@@3PAPAXA 1002c2f8     libucrt:winapi_thunks.obj
 0003:00001380       ?internal_state@?1??_mbtowc_l@@9@4U_Mbstatet@@A 1002c380     libucrt:mbtowc.obj
 0003:00001390       ?enable_percent_n@@3IA     1002c390     libucrt:printf_count_output.obj
 0003:000015b0       ?__acrt_lock_table@@3PAU_RTL_CRITICAL_SECTION@@A 1002c5b0     libucrt:locks.obj
 0003:00001700       ?__acrt_locks_initialized@@3IA 1002c700     libucrt:locks.obj
 0003:00001710       ?fSystemSet@@3HA           1002c710     libucrt:mbctype.obj
 0003:00001714       ?initialized@?1??__acrt_initialize_multibyte@@9@4_NA 1002c714     libucrt:mbctype.obj
 0003:00001734       ?ctrlc_action@@3V?$dual_state_global@P6AXH@Z@__crt_state_management@@A 1002c734     libucrt:signal.obj
 0003:00001738       ?ctrlbreak_action@@3V?$dual_state_global@P6AXH@Z@__crt_state_management@@A 1002c738     libucrt:signal.obj
 0003:0000173c       ?abort_action@@3V?$dual_state_global@P6AXH@Z@__crt_state_management@@A 1002c73c     libucrt:signal.obj
 0003:00001740       ?term_action@@3V?$dual_state_global@P6AXH@Z@__crt_state_management@@A 1002c740     libucrt:signal.obj
 0003:00001744       ?user_matherr@@3V?$dual_state_global@P6AHPAU_exception@@@Z@__crt_state_management@@A 1002c744     libucrt:matherr.obj
 0003:00001748       ?__acrt_global_new_mode@@3V?$dual_state_global@J@__crt_state_management@@A 1002c748     libucrt:new_mode.obj
 0003:00001754       ?internal_pst@?1??__mbrtoc32_utf8@__crt_mbstring@@YAIPA_UPBDIPAU_Mbstatet@@@Z@4U3@A 1002c754     libucrt:mbrtoc32.obj
 0003:0000175c       ?__acrt_app_type@@3W4_crt_app_type@@A 1002c75c     libucrt:report_runtime_error.obj
 0003:00001764       __pmatherr_set             1002c764     libucrt:libm_error.obj
 0004:00000220       $R000000                   1002d220     ElectronicValueRW.res
 0004:00000bb8       $R000998                   1002dbb8     ElectronicValueRW.res
 0004:00000ca0       $R000A80                   1002dca0     ElectronicValueRW.res
 0004:00000f08       $R000CE8                   1002df08     ElectronicValueRW.res
 0004:00001410       $R0011F0                   1002e410     ElectronicValueRW.res
 0004:00007ee0       $R007CC0                   10034ee0     ElectronicValueRW.res
 0004:00007f28       $R007D08                   10034f28     ElectronicValueRW.res
