 OPOSDeviceMonitor

 Timestamp is 61a75a80 (Wed Dec  1 20:20:32 2021)

 Preferred load address is 10000000

 Start         Length     Name                   Class
 0001:00000000 00000080H .text$di                CODE
 0001:00000080 0001eb48H .text$mn                CODE
 0001:0001ebc8 000000d8H .text$x                 CODE
 0001:0001eca0 00000042H .text$yd                CODE
 0002:00000000 000002fcH .idata$5                DATA
 0002:000002fc 00000008H .00cfg                  DATA
 0002:00000304 00000004H .CRT$XCA                DATA
 0002:00000308 00000004H .CRT$XCL                DATA
 0002:0000030c 00000010H .CRT$XCU                DATA
 0002:0000031c 00000004H .CRT$XCZ                DATA
 0002:00000320 00000004H .CRT$XIA                DATA
 0002:00000324 00000010H .CRT$XIC                DATA
 0002:00000334 00000004H .CRT$XIZ                DATA
 0002:00000338 00000004H .CRT$XLA                DATA
 0002:0000033c 00000004H .CRT$XLZ                DATA
 0002:00000340 00000004H .CRT$XPA                DATA
 0002:00000344 00000008H .CRT$XPX                DATA
 0002:0000034c 00000004H .CRT$XPXA               DATA
 0002:00000350 00000004H .CRT$XPZ                DATA
 0002:00000354 00000004H .CRT$XTA                DATA
 0002:00000358 00000008H .CRT$XTZ                DATA
 0002:0000035c 00000000H .gfids$y                DATA
 0002:00000360 00006de0H .rdata                  DATA
 0002:00007140 00000000H .rdata$CastGuardVftablesA DATA
 0002:00007140 00000000H .rdata$CastGuardVftablesC DATA
 0002:00007140 00000018H .rdata$T                DATA
 0002:00007158 00000178H .rdata$r                DATA
 0002:000072d0 0000002cH .rdata$sxdata           DATA
 0002:000072fc 00000030H .rdata$voltmd           DATA
 0002:0000732c 0000040cH .rdata$zzzdbg           DATA
 0002:00007738 00000004H .rtc$IAA                DATA
 0002:0000773c 00000004H .rtc$IZZ                DATA
 0002:00007740 00000004H .rtc$TAA                DATA
 0002:00007744 00000004H .rtc$TZZ                DATA
 0002:00007748 00000004H .tls                    DATA
 0002:0000774c 00000004H .tls$                   DATA
 0002:00007750 00000008H .tls$ZZZ                DATA
 0002:00007758 000006dcH .xdata$x                DATA
 0002:00007e34 00000004H ATL$__a                 DATA
 0002:00007e38 00000008H ATL$__z                 DATA
 0002:00007e40 000000b0H .edata                  DATA
 0002:00007ef0 00000078H .idata$2                DATA
 0002:00007f68 00000014H .idata$3                DATA
 0002:00007f7c 000002fcH .idata$4                DATA
 0002:00008278 00000bceH .idata$6                DATA
 0003:00000000 00000a90H .data                   DATA
 0003:00000a90 00000080H .data$r                 DATA
 0003:00000b10 00000018H .data$rs                DATA
 0003:00000b28 00000b80H .bss                    DATA
 0004:00000000 00000220H .rsrc$01                DATA
 0004:00000220 00003b48H .rsrc$02                DATA

  Address         Publics by Value              Rva+Base       Lib:Object

 0000:00000000       ___guard_fids_count        00000000     <absolute>
 0000:00000000       ___guard_eh_cont_table     00000000     <absolute>
 0000:00000000       ___guard_longjmp_table     00000000     <absolute>
 0000:00000000       ___arm64x_extra_rfe_table  00000000     <absolute>
 0000:00000000       ___arm64x_redirection_metadata 00000000     <absolute>
 0000:00000000       ___guard_iat_count         00000000     <absolute>
 0000:00000000       ___guard_eh_cont_count     00000000     <absolute>
 0000:00000000       __except_list              00000000     <absolute>
 0000:00000000       ___x64_code_ranges_to_entry_points_count 00000000     <absolute>
 0000:00000000       ___hybrid_code_map_count   00000000     <absolute>
 0000:00000000       ___x64_code_ranges_to_entry_points 00000000     <absolute>
 0000:00000000       ___guard_iat_table         00000000     <absolute>
 0000:00000000       ___arm64x_native_entrypoint 00000000     <absolute>
 0000:00000000       ___hybrid_code_map         00000000     <absolute>
 0000:00000000       ___arm64x_extra_rfe_table_size 00000000     <absolute>
 0000:00000000       ___guard_longjmp_count     00000000     <absolute>
 0000:00000000       ___guard_check_icall_a64n_fptr 00000000     <absolute>
 0000:00000000       ___arm64x_redirection_metadata_count 00000000     <absolute>
 0000:00000000       ___hybrid_auxiliary_iat    00000000     <absolute>
 0000:00000000       ___dynamic_value_reloc_table 00000000     <absolute>
 0000:00000000       ___AbsoluteZero            00000000     <absolute>
 0000:00000000       ___enclave_config          00000000     <absolute>
 0000:00000000       ___guard_fids_table        00000000     <absolute>
 0000:00000000       ___hybrid_auxiliary_iat_copy 00000000     <absolute>
 0000:0000000b       ___safe_se_handler_count   0000000b     <absolute>
 0000:0000002c       __tls_array                0000002c     <absolute>
 0000:00000100       ___guard_flags             00000100     <absolute>
 0000:00000000       ___ImageBase               10000000     <linker-defined>
 0001:00000080       ?DupWide@_CW@@AAEXXZ       10001080 f   CWString.obj
 0001:0000009c       ?cw_dup@@YGXPBDAAHAAPA_W1@Z 1000109c f   CWString.obj
 0001:00000124       ?cw_memcpy@@YGHPA_WPBDH@Z  10001124 f   CWString.obj
 0001:00000150       ?cw_strcpy@@YAHPA_WPBD@Z   10001150 f   CWString.obj
 0001:00000163       ?cw_strlen@@YAHPBD@Z       10001163 f   CWString.obj
 0001:0000017c       ??0CAtlComModule@ATL@@QAE@XZ 1000117c f i OposVariant.obj
 0001:000001c1       ??0CAtlWinModule@ATL@@QAE@XZ 100011c1 f i OposVariant.obj
 0001:000001f8       ??0OposDispParms@@QAE@PAVOposVariant@@H@Z 100011f8 f   OposVariant.obj
 0001:00000269       ??1OposDispParms@@QAE@XZ   10001269 f   OposVariant.obj
 0001:00000277       ??A?$CSimpleArray@GV?$CSimpleArrayEqualHelper@G@ATL@@@ATL@@QAEAAGH@Z 10001277 f i OposVariant.obj
 0001:0000029c       ??_Estringdispid@CComTypeInfoHolder@ATL@@QAEPAXI@Z 1000129c f i OposVariant.obj
 0001:00000308       ?AtlWinModuleInit@ATL@@YGJPAU_ATL_WIN_MODULE70@1@@Z 10001308 f i OposVariant.obj
 0001:0000032e       ?AtlWinModuleTerm@ATL@@YGJPAU_ATL_WIN_MODULE70@1@PAUHINSTANCE__@@@Z 1000132e f i OposVariant.obj
 0001:00000391       ?ChangeBSTR@OposVariant@@QAEXPAPA_WAAJ@Z 10001391 f   OposVariant.obj
 0001:000003d2       ?ChangeLONG@OposVariant@@QAEXPAJAAJ@Z 100013d2 f   OposVariant.obj
 0001:00000413       ?GetLONG@OposVariant@@QAEJXZ 10001413 f   OposVariant.obj
 0001:0000042e       ?Init@CComCriticalSection@ATL@@QAEJXZ 1000142e f i OposVariant.obj
 0001:00000456       ?RemoveAll@?$CSimpleArray@PAUHINSTANCE__@@V?$CSimpleArrayEqualHelper@PAUHINSTANCE__@@@ATL@@@ATL@@QAEXXZ 10001456 f i atls:atlbase.obj
 0001:00000456       ?RemoveAll@?$CSimpleArray@GV?$CSimpleArrayEqualHelper@G@ATL@@@ATL@@QAEXXZ 10001456 f i OposVariant.obj
 0001:00000473       ?SetBSTR@OposVariant@@QAEXPA_WAAJ@Z 10001473 f   OposVariant.obj
 0001:000004a7       ?SetBSTR_Copy@OposVariant@@QAEXPA_WAAJ@Z 100014a7 f   OposVariant.obj
 0001:000004f7       ?SetBSTR_InOutPtr@OposVariant@@QAE_NPAPA_WAAJ@Z 100014f7 f   OposVariant.obj
 0001:0000052e       ?SetDispatch_Ptr@OposVariant@@QAEXPAUIDispatch@@AAJ@Z 1000152e f   OposVariant.obj
 0001:00000569       ?SetLONG@OposVariant@@QAEXJ@Z 10001569 f   OposVariant.obj
 0001:0000058b       ?SetLONG_Ptr@OposVariant@@QAEXPAJAAJ@Z 1000158b f   OposVariant.obj
 0001:000005be       ?SetString@OposVariant@@QAEXPB_WAAJ@Z 100015be f   OposVariant.obj
 0001:00000604       ?SetVARIANT_BOOL@OposVariant@@QAEXF@Z 10001604 f   OposVariant.obj
 0001:0000062e       ?Term@CAtlComModule@ATL@@QAEXXZ 1000162e f i OposVariant.obj
 0001:00000678       ?_AtlRaiseException@ATL@@YAXKK@Z 10001678 f i OposVariant.obj
 0001:0000068d       ?OnDrawAdvanced@CComControlBase@ATL@@UAEJAAUATL_DRAWINFO@@@Z 1000168d f i DeviceMonitor.obj
 0001:00000780       ?Next@?$CComEnumImpl@UIEnumConnections@@$1?_GUID_b196b287_bab4_101a_b69c_00aa00341d07@@3U__s_GUID@@BUtagCONNECTDATA@@V?$_Copy@UtagCONNECTDATA@@@ATL@@@ATL@@UAGJKPAUtagCONNECTDATA@@PAK@Z 10001780 f i DeviceMonitor.obj
 0001:0000084f       ?Skip@?$CComEnumImpl@UIEnumConnections@@$1?_GUID_b196b287_bab4_101a_b69c_00aa00341d07@@3U__s_GUID@@BUtagCONNECTDATA@@V?$_Copy@UtagCONNECTDATA@@@ATL@@@ATL@@UAGJK@Z 1000184f f i DeviceMonitor.obj
 0001:0000087c       ?Reset@?$CComEnumImpl@UIEnumConnectionPoints@@$1?_GUID_b196b285_bab4_101a_b69c_00aa00341d07@@3U__s_GUID@@BPAUIConnectionPoint@@V?$_CopyInterface@UIConnectionPoint@@@ATL@@@ATL@@UAGJXZ 1000187c f i DeviceMonitor.obj
 0001:0000087c       ?Reset@?$CComEnumImpl@UIEnumConnections@@$1?_GUID_b196b287_bab4_101a_b69c_00aa00341d07@@3U__s_GUID@@BUtagCONNECTDATA@@V?$_Copy@UtagCONNECTDATA@@@ATL@@@ATL@@UAGJXZ 1000187c f i DeviceMonitor.obj
 0001:0000088e       ?Clone@?$CComEnumImpl@UIEnumConnections@@$1?_GUID_b196b287_bab4_101a_b69c_00aa00341d07@@3U__s_GUID@@BUtagCONNECTDATA@@V?$_Copy@UtagCONNECTDATA@@@ATL@@@ATL@@UAGJPAPAUIEnumConnections@@@Z 1000188e f i DeviceMonitor.obj
 0001:0000096f       ?AddRef@?$CComObject@V?$CComEnum@UIEnumConnections@@$1?_GUID_b196b287_bab4_101a_b69c_00aa00341d07@@3U__s_GUID@@BUtagCONNECTDATA@@V?$_Copy@UtagCONNECTDATA@@@ATL@@VCComSingleThreadModel@6@@ATL@@@ATL@@UAGKXZ 1000196f f i DeviceMonitor.obj
 0001:0000096f       ?AddRef@?$CComObject@V?$CComEnum@UIEnumConnectionPoints@@$1?_GUID_b196b285_bab4_101a_b69c_00aa00341d07@@3U__s_GUID@@BPAUIConnectionPoint@@V?$_CopyInterface@UIConnectionPoint@@@ATL@@VCComSingleThreadModel@6@@ATL@@@ATL@@UAGKXZ 1000196f f i DeviceMonitor.obj
 0001:00000980       ?Release@?$CComObject@V?$CComEnum@UIEnumConnections@@$1?_GUID_b196b287_bab4_101a_b69c_00aa00341d07@@3U__s_GUID@@BUtagCONNECTDATA@@V?$_Copy@UtagCONNECTDATA@@@ATL@@VCComSingleThreadModel@6@@ATL@@@ATL@@UAGKXZ 10001980 f i DeviceMonitor.obj
 0001:00000980       ?Release@?$CComObject@V?$CComEnum@UIEnumConnectionPoints@@$1?_GUID_b196b285_bab4_101a_b69c_00aa00341d07@@3U__s_GUID@@BPAUIConnectionPoint@@V?$_CopyInterface@UIConnectionPoint@@@ATL@@VCComSingleThreadModel@6@@ATL@@@ATL@@UAGKXZ 10001980 f i DeviceMonitor.obj
 0001:000009bc       ?QueryInterface@?$CComObject@V?$CComEnum@UIEnumConnections@@$1?_GUID_b196b287_bab4_101a_b69c_00aa00341d07@@3U__s_GUID@@BUtagCONNECTDATA@@V?$_Copy@UtagCONNECTDATA@@@ATL@@VCComSingleThreadModel@6@@ATL@@@ATL@@UAGJABU_GUID@@PAPAX@Z 100019bc f i DeviceMonitor.obj
 0001:000009d6       ??_G?$CComObject@V?$CComEnum@UIEnumConnections@@$1?_GUID_b196b287_bab4_101a_b69c_00aa00341d07@@3U__s_GUID@@BUtagCONNECTDATA@@V?$_Copy@UtagCONNECTDATA@@@ATL@@VCComSingleThreadModel@6@@ATL@@@ATL@@UAEPAXI@Z 100019d6 f i DeviceMonitor.obj
 0001:000009d6       ??_E?$CComObject@V?$CComEnum@UIEnumConnections@@$1?_GUID_b196b287_bab4_101a_b69c_00aa00341d07@@3U__s_GUID@@BUtagCONNECTDATA@@V?$_Copy@UtagCONNECTDATA@@@ATL@@VCComSingleThreadModel@6@@ATL@@@ATL@@UAEPAXI@Z 100019d6 f i DeviceMonitor.obj
 0001:000009f8       ?ObjectMain@CComObjectRootBase@ATL@@SGX_N@Z 100019f8 f i DeviceMonitor.obj
 0001:000009f8       ?OnFinalMessage@?$CWindowImplBaseT@VCWindow@ATL@@V?$CWinTraits@$0FGAAAAAA@$0A@@2@@ATL@@UAEXPAUHWND__@@@Z 100019f8 f i DeviceMonitor.obj
 0001:000009fb       ?GetCategoryMap@CComObjectRootBase@ATL@@SAPBU_ATL_CATMAP_ENTRY@2@XZ 100019fb f i DeviceMonitor.obj
 0001:000009fb       ?GetObjectDescription@?$CComCoClass@VCOPOSDeviceMonitor@@$1?CLSID_OPOSDeviceMonitor@@3U_GUID@@B@ATL@@SGPB_WXZ 100019fb f i DeviceMonitor.obj
 0001:000009fe       ?CreateInstance@CComClassFactory@ATL@@UAGJPAUIUnknown@@ABU_GUID@@PAPAX@Z 100019fe f i DeviceMonitor.obj
 0001:00000a3c       ?LockServer@CComClassFactory@ATL@@UAGJH@Z 10001a3c f i DeviceMonitor.obj
 0001:00000a5b       ??_GCComClassFactory@ATL@@UAEPAXI@Z 10001a5b f i DeviceMonitor.obj
 0001:00000a5b       ??_ECComClassFactory@ATL@@UAEPAXI@Z 10001a5b f i DeviceMonitor.obj
 0001:00000a86       ??_E?$CComObject@VCOPOSDeviceMonitor@@@ATL@@W3AEPAXI@Z 10001a86 f i DeviceMonitor.obj
 0001:00000a8e       ??_E?$CComObject@VCOPOSDeviceMonitor@@@ATL@@WEM@AEPAXI@Z 10001a8e f i DeviceMonitor.obj
 0001:00000a96       ?QueryInterface@?$CComObject@VCOPOSDeviceMonitor@@@ATL@@WHA@AGJABU_GUID@@PAPAX@Z 10001a96 f i DeviceMonitor.obj
 0001:00000aa0       ?AddRef@?$CComObject@VCOPOSDeviceMonitor@@@ATL@@WHA@AGKXZ 10001aa0 f i DeviceMonitor.obj
 0001:00000aaa       ?Release@?$CComObject@VCOPOSDeviceMonitor@@@ATL@@WHA@AGKXZ 10001aaa f i DeviceMonitor.obj
 0001:00000ab4       ?QueryInterface@?$CComObject@VCOPOSDeviceMonitor@@@ATL@@WHE@AGJABU_GUID@@PAPAX@Z 10001ab4 f i DeviceMonitor.obj
 0001:00000abe       ?AddRef@?$CComObject@VCOPOSDeviceMonitor@@@ATL@@WHE@AGKXZ 10001abe f i DeviceMonitor.obj
 0001:00000ac8       ?Release@?$CComObject@VCOPOSDeviceMonitor@@@ATL@@WHE@AGKXZ 10001ac8 f i DeviceMonitor.obj
 0001:00000ad2       ?QueryInterface@?$CComObject@VCOPOSDeviceMonitor@@@ATL@@WHI@AGJABU_GUID@@PAPAX@Z 10001ad2 f i DeviceMonitor.obj
 0001:00000adc       ?AddRef@?$CComObject@VCOPOSDeviceMonitor@@@ATL@@WHI@AGKXZ 10001adc f i DeviceMonitor.obj
 0001:00000ae6       ?Release@?$CComObject@VCOPOSDeviceMonitor@@@ATL@@WHI@AGKXZ 10001ae6 f i DeviceMonitor.obj
 0001:00000af0       ?QueryInterface@?$CComObject@VCOPOSDeviceMonitor@@@ATL@@WHM@AGJABU_GUID@@PAPAX@Z 10001af0 f i DeviceMonitor.obj
 0001:00000afa       ?AddRef@?$CComObject@VCOPOSDeviceMonitor@@@ATL@@WHM@AGKXZ 10001afa f i DeviceMonitor.obj
 0001:00000b04       ?Release@?$CComObject@VCOPOSDeviceMonitor@@@ATL@@WHM@AGKXZ 10001b04 f i DeviceMonitor.obj
 0001:00000b0e       ?QueryInterface@?$CComObject@VCOPOSDeviceMonitor@@@ATL@@WIA@AGJABU_GUID@@PAPAX@Z 10001b0e f i DeviceMonitor.obj
 0001:00000b1b       ?AddRef@?$CComObject@VCOPOSDeviceMonitor@@@ATL@@WIA@AGKXZ 10001b1b f i DeviceMonitor.obj
 0001:00000b28       ?Release@?$CComObject@VCOPOSDeviceMonitor@@@ATL@@WIA@AGKXZ 10001b28 f i DeviceMonitor.obj
 0001:00000b35       ?QueryInterface@?$CComObject@VCOPOSDeviceMonitor@@@ATL@@WIE@AGJABU_GUID@@PAPAX@Z 10001b35 f i DeviceMonitor.obj
 0001:00000b42       ?AddRef@?$CComObject@VCOPOSDeviceMonitor@@@ATL@@WIE@AGKXZ 10001b42 f i DeviceMonitor.obj
 0001:00000b4f       ?Release@?$CComObject@VCOPOSDeviceMonitor@@@ATL@@WIE@AGKXZ 10001b4f f i DeviceMonitor.obj
 0001:00000b5c       ?QueryInterface@?$CComObject@VCOPOSDeviceMonitor@@@ATL@@WII@AGJABU_GUID@@PAPAX@Z 10001b5c f i DeviceMonitor.obj
 0001:00000b69       ?AddRef@?$CComObject@VCOPOSDeviceMonitor@@@ATL@@WII@AGKXZ 10001b69 f i DeviceMonitor.obj
 0001:00000b76       ?Release@?$CComObject@VCOPOSDeviceMonitor@@@ATL@@WII@AGKXZ 10001b76 f i DeviceMonitor.obj
 0001:00000b83       ?QueryInterface@?$CComObject@VCOPOSDeviceMonitor@@@ATL@@WIM@AGJABU_GUID@@PAPAX@Z 10001b83 f i DeviceMonitor.obj
 0001:00000b90       ?AddRef@?$CComObject@VCOPOSDeviceMonitor@@@ATL@@WIM@AGKXZ 10001b90 f i DeviceMonitor.obj
 0001:00000b9d       ?Release@?$CComObject@VCOPOSDeviceMonitor@@@ATL@@WIM@AGKXZ 10001b9d f i DeviceMonitor.obj
 0001:00000baa       ?QueryInterface@?$CComObject@VCOPOSDeviceMonitor@@@ATL@@WJA@AGJABU_GUID@@PAPAX@Z 10001baa f i DeviceMonitor.obj
 0001:00000bb7       ?AddRef@?$CComObject@VCOPOSDeviceMonitor@@@ATL@@WJA@AGKXZ 10001bb7 f i DeviceMonitor.obj
 0001:00000bc4       ?Release@?$CComObject@VCOPOSDeviceMonitor@@@ATL@@WJA@AGKXZ 10001bc4 f i DeviceMonitor.obj
 0001:00000bd1       ?QueryInterface@?$CComObject@VCOPOSDeviceMonitor@@@ATL@@WJE@AGJABU_GUID@@PAPAX@Z 10001bd1 f i DeviceMonitor.obj
 0001:00000bde       ?AddRef@?$CComObject@VCOPOSDeviceMonitor@@@ATL@@WJE@AGKXZ 10001bde f i DeviceMonitor.obj
 0001:00000beb       ?Release@?$CComObject@VCOPOSDeviceMonitor@@@ATL@@WJE@AGKXZ 10001beb f i DeviceMonitor.obj
 0001:00000bf8       ?QueryInterface@?$CComObject@VCOPOSDeviceMonitor@@@ATL@@WJI@AGJABU_GUID@@PAPAX@Z 10001bf8 f i DeviceMonitor.obj
 0001:00000c05       ?AddRef@?$CComObject@VCOPOSDeviceMonitor@@@ATL@@WJI@AGKXZ 10001c05 f i DeviceMonitor.obj
 0001:00000c12       ?Release@?$CComObject@VCOPOSDeviceMonitor@@@ATL@@WJI@AGKXZ 10001c12 f i DeviceMonitor.obj
 0001:00000c1f       ?QueryInterface@?$CComObject@VCOPOSDeviceMonitor@@@ATL@@WJM@AGJABU_GUID@@PAPAX@Z 10001c1f f i DeviceMonitor.obj
 0001:00000c2c       ?AddRef@?$CComObject@VCOPOSDeviceMonitor@@@ATL@@WJM@AGKXZ 10001c2c f i DeviceMonitor.obj
 0001:00000c39       ?Release@?$CComObject@VCOPOSDeviceMonitor@@@ATL@@WJM@AGKXZ 10001c39 f i DeviceMonitor.obj
 0001:00000c46       ?QueryInterface@?$CComObject@VCOPOSDeviceMonitor@@@ATL@@WKA@AGJABU_GUID@@PAPAX@Z 10001c46 f i DeviceMonitor.obj
 0001:00000c53       ?AddRef@?$CComObject@VCOPOSDeviceMonitor@@@ATL@@WKA@AGKXZ 10001c53 f i DeviceMonitor.obj
 0001:00000c60       ?Release@?$CComObject@VCOPOSDeviceMonitor@@@ATL@@WKA@AGKXZ 10001c60 f i DeviceMonitor.obj
 0001:00000c6d       ?AddRef@?$CComObject@VCOPOSDeviceMonitor@@@ATL@@WKI@AGKXZ 10001c6d f i DeviceMonitor.obj
 0001:00000c7a       ?Release@?$CComObject@VCOPOSDeviceMonitor@@@ATL@@WKI@AGKXZ 10001c7a f i DeviceMonitor.obj
 0001:00000c87       ?AddRef@?$CComObject@VCOPOSDeviceMonitor@@@ATL@@WLE@AGKXZ 10001c87 f i DeviceMonitor.obj
 0001:00000c94       ?Release@?$CComObject@VCOPOSDeviceMonitor@@@ATL@@WLE@AGKXZ 10001c94 f i DeviceMonitor.obj
 0001:00000ca1       ??_E?$CComContainedObject@VCOPOSDeviceMonitor@@@ATL@@W3AEPAXI@Z 10001ca1 f i DeviceMonitor.obj
 0001:00000ca9       ??_E?$CComContainedObject@VCOPOSDeviceMonitor@@@ATL@@WEM@AEPAXI@Z 10001ca9 f i DeviceMonitor.obj
 0001:00000cb1       ?QueryInterface@?$CComContainedObject@VCOPOSDeviceMonitor@@@ATL@@WHA@AGJABU_GUID@@PAPAX@Z 10001cb1 f i DeviceMonitor.obj
 0001:00000cbb       ?AddRef@?$CComContainedObject@VCOPOSDeviceMonitor@@@ATL@@WHA@AGKXZ 10001cbb f i DeviceMonitor.obj
 0001:00000cc5       ?Release@?$CComContainedObject@VCOPOSDeviceMonitor@@@ATL@@WHA@AGKXZ 10001cc5 f i DeviceMonitor.obj
 0001:00000ccf       ?QueryInterface@?$CComContainedObject@VCOPOSDeviceMonitor@@@ATL@@WHE@AGJABU_GUID@@PAPAX@Z 10001ccf f i DeviceMonitor.obj
 0001:00000cd9       ?AddRef@?$CComContainedObject@VCOPOSDeviceMonitor@@@ATL@@WHE@AGKXZ 10001cd9 f i DeviceMonitor.obj
 0001:00000ce3       ?Release@?$CComContainedObject@VCOPOSDeviceMonitor@@@ATL@@WHE@AGKXZ 10001ce3 f i DeviceMonitor.obj
 0001:00000ced       ?QueryInterface@?$CComContainedObject@VCOPOSDeviceMonitor@@@ATL@@WHI@AGJABU_GUID@@PAPAX@Z 10001ced f i DeviceMonitor.obj
 0001:00000cf7       ?AddRef@?$CComContainedObject@VCOPOSDeviceMonitor@@@ATL@@WHI@AGKXZ 10001cf7 f i DeviceMonitor.obj
 0001:00000d01       ?Release@?$CComContainedObject@VCOPOSDeviceMonitor@@@ATL@@WHI@AGKXZ 10001d01 f i DeviceMonitor.obj
 0001:00000d0b       ?QueryInterface@?$CComContainedObject@VCOPOSDeviceMonitor@@@ATL@@WHM@AGJABU_GUID@@PAPAX@Z 10001d0b f i DeviceMonitor.obj
 0001:00000d15       ?AddRef@?$CComContainedObject@VCOPOSDeviceMonitor@@@ATL@@WHM@AGKXZ 10001d15 f i DeviceMonitor.obj
 0001:00000d1f       ?Release@?$CComContainedObject@VCOPOSDeviceMonitor@@@ATL@@WHM@AGKXZ 10001d1f f i DeviceMonitor.obj
 0001:00000d29       ?QueryInterface@?$CComContainedObject@VCOPOSDeviceMonitor@@@ATL@@WIA@AGJABU_GUID@@PAPAX@Z 10001d29 f i DeviceMonitor.obj
 0001:00000d36       ?AddRef@?$CComContainedObject@VCOPOSDeviceMonitor@@@ATL@@WIA@AGKXZ 10001d36 f i DeviceMonitor.obj
 0001:00000d43       ?Release@?$CComContainedObject@VCOPOSDeviceMonitor@@@ATL@@WIA@AGKXZ 10001d43 f i DeviceMonitor.obj
 0001:00000d50       ?QueryInterface@?$CComContainedObject@VCOPOSDeviceMonitor@@@ATL@@WIE@AGJABU_GUID@@PAPAX@Z 10001d50 f i DeviceMonitor.obj
 0001:00000d5d       ?AddRef@?$CComContainedObject@VCOPOSDeviceMonitor@@@ATL@@WIE@AGKXZ 10001d5d f i DeviceMonitor.obj
 0001:00000d6a       ?Release@?$CComContainedObject@VCOPOSDeviceMonitor@@@ATL@@WIE@AGKXZ 10001d6a f i DeviceMonitor.obj
 0001:00000d77       ?QueryInterface@?$CComContainedObject@VCOPOSDeviceMonitor@@@ATL@@WII@AGJABU_GUID@@PAPAX@Z 10001d77 f i DeviceMonitor.obj
 0001:00000d84       ?AddRef@?$CComContainedObject@VCOPOSDeviceMonitor@@@ATL@@WII@AGKXZ 10001d84 f i DeviceMonitor.obj
 0001:00000d91       ?Release@?$CComContainedObject@VCOPOSDeviceMonitor@@@ATL@@WII@AGKXZ 10001d91 f i DeviceMonitor.obj
 0001:00000d9e       ?QueryInterface@?$CComContainedObject@VCOPOSDeviceMonitor@@@ATL@@WIM@AGJABU_GUID@@PAPAX@Z 10001d9e f i DeviceMonitor.obj
 0001:00000dab       ?AddRef@?$CComContainedObject@VCOPOSDeviceMonitor@@@ATL@@WIM@AGKXZ 10001dab f i DeviceMonitor.obj
 0001:00000db8       ?Release@?$CComContainedObject@VCOPOSDeviceMonitor@@@ATL@@WIM@AGKXZ 10001db8 f i DeviceMonitor.obj
 0001:00000dc5       ?QueryInterface@?$CComContainedObject@VCOPOSDeviceMonitor@@@ATL@@WJA@AGJABU_GUID@@PAPAX@Z 10001dc5 f i DeviceMonitor.obj
 0001:00000dd2       ?AddRef@?$CComContainedObject@VCOPOSDeviceMonitor@@@ATL@@WJA@AGKXZ 10001dd2 f i DeviceMonitor.obj
 0001:00000ddf       ?Release@?$CComContainedObject@VCOPOSDeviceMonitor@@@ATL@@WJA@AGKXZ 10001ddf f i DeviceMonitor.obj
 0001:00000dec       ?QueryInterface@?$CComContainedObject@VCOPOSDeviceMonitor@@@ATL@@WJE@AGJABU_GUID@@PAPAX@Z 10001dec f i DeviceMonitor.obj
 0001:00000df9       ?AddRef@?$CComContainedObject@VCOPOSDeviceMonitor@@@ATL@@WJE@AGKXZ 10001df9 f i DeviceMonitor.obj
 0001:00000e06       ?Release@?$CComContainedObject@VCOPOSDeviceMonitor@@@ATL@@WJE@AGKXZ 10001e06 f i DeviceMonitor.obj
 0001:00000e13       ?QueryInterface@?$CComContainedObject@VCOPOSDeviceMonitor@@@ATL@@WJI@AGJABU_GUID@@PAPAX@Z 10001e13 f i DeviceMonitor.obj
 0001:00000e20       ?AddRef@?$CComContainedObject@VCOPOSDeviceMonitor@@@ATL@@WJI@AGKXZ 10001e20 f i DeviceMonitor.obj
 0001:00000e2d       ?Release@?$CComContainedObject@VCOPOSDeviceMonitor@@@ATL@@WJI@AGKXZ 10001e2d f i DeviceMonitor.obj
 0001:00000e3a       ?QueryInterface@?$CComContainedObject@VCOPOSDeviceMonitor@@@ATL@@WJM@AGJABU_GUID@@PAPAX@Z 10001e3a f i DeviceMonitor.obj
 0001:00000e47       ?AddRef@?$CComContainedObject@VCOPOSDeviceMonitor@@@ATL@@WJM@AGKXZ 10001e47 f i DeviceMonitor.obj
 0001:00000e54       ?Release@?$CComContainedObject@VCOPOSDeviceMonitor@@@ATL@@WJM@AGKXZ 10001e54 f i DeviceMonitor.obj
 0001:00000e61       ?QueryInterface@?$CComContainedObject@VCOPOSDeviceMonitor@@@ATL@@WKA@AGJABU_GUID@@PAPAX@Z 10001e61 f i DeviceMonitor.obj
 0001:00000e6e       ?AddRef@?$CComContainedObject@VCOPOSDeviceMonitor@@@ATL@@WKA@AGKXZ 10001e6e f i DeviceMonitor.obj
 0001:00000e7b       ?Release@?$CComContainedObject@VCOPOSDeviceMonitor@@@ATL@@WKA@AGKXZ 10001e7b f i DeviceMonitor.obj
 0001:00000e88       ?AddRef@?$CComContainedObject@VCOPOSDeviceMonitor@@@ATL@@WKI@AGKXZ 10001e88 f i DeviceMonitor.obj
 0001:00000e95       ?Release@?$CComContainedObject@VCOPOSDeviceMonitor@@@ATL@@WKI@AGKXZ 10001e95 f i DeviceMonitor.obj
 0001:00000ea2       ?AddRef@?$CComContainedObject@VCOPOSDeviceMonitor@@@ATL@@WLE@AGKXZ 10001ea2 f i DeviceMonitor.obj
 0001:00000eaf       ?Release@?$CComContainedObject@VCOPOSDeviceMonitor@@@ATL@@WLE@AGKXZ 10001eaf f i DeviceMonitor.obj
 0001:00000ebc       ?GetWindowProc@?$CWindowImplBaseT@VCWindow@ATL@@V?$CWinTraits@$0FGAAAAAA@$0A@@2@@ATL@@UAEP6GJPAUHWND__@@IIJ@ZXZ 10001ebc f i DeviceMonitor.obj
 0001:00000ec2       ?StartWindowProc@?$CWindowImplBaseT@VCWindow@ATL@@V?$CWinTraits@$0FGAAAAAA@$0A@@2@@ATL@@SGJPAUHWND__@@IIJ@Z 10001ec2 f i DeviceMonitor.obj
 0001:00000f16       ?GetTypeInfoCount@?$IDispatchImpl@UIOPOSDeviceMonitor@@$1?IID_IOPOSDeviceMonitor@@3U_GUID@@B$1?LIBID_OposDeviceMonitor_CCO@@3U3@B$00$0A@VCComTypeInfoHolder@ATL@@@ATL@@UAGJPAI@Z 10001f16 f i DeviceMonitor.obj
 0001:00000f33       ?GetTypeInfo@?$IDispatchImpl@UIOPOSDeviceMonitor@@$1?IID_IOPOSDeviceMonitor@@3U_GUID@@B$1?LIBID_OposDeviceMonitor_CCO@@3U3@B$00$0A@VCComTypeInfoHolder@ATL@@@ATL@@UAGJIKPAPAUITypeInfo@@@Z 10001f33 f i DeviceMonitor.obj
 0001:00000f57       ?GetIDsOfNames@?$IDispatchImpl@UIOPOSDeviceMonitor@@$1?IID_IOPOSDeviceMonitor@@3U_GUID@@B$1?LIBID_OposDeviceMonitor_CCO@@3U3@B$00$0A@VCComTypeInfoHolder@ATL@@@ATL@@UAGJABU_GUID@@PAPA_WIKPAJ@Z 10001f57 f i DeviceMonitor.obj
 0001:00000f77       ?Invoke@?$IDispatchImpl@UIOPOSDeviceMonitor@@$1?IID_IOPOSDeviceMonitor@@3U_GUID@@B$1?LIBID_OposDeviceMonitor_CCO@@3U3@B$00$0A@VCComTypeInfoHolder@ATL@@@ATL@@UAGJJABU_GUID@@KGPAUtagDISPPARAMS@@PAUtagVARIANT@@PAUtagEXCEPINFO@@PAI@Z 10001f77 f i DeviceMonitor.obj
 0001:00000f85       ?CreateControlWindow@?$CComControl@VCOPOSDeviceMonitor@@V?$CWindowImpl@VCOPOSDeviceMonitor@@VCWindow@ATL@@V?$CWinTraits@$0FGAAAAAA@$0A@@3@@ATL@@@ATL@@UAEPAUHWND__@@PAU3@AAUtagRECT@@@Z 10001f85 f i DeviceMonitor.obj
 0001:00000fb4       ?ControlQueryInterface@?$CComControl@VCOPOSDeviceMonitor@@V?$CWindowImpl@VCOPOSDeviceMonitor@@VCWindow@ATL@@V?$CWinTraits@$0FGAAAAAA@$0A@@3@@ATL@@@ATL@@UAEJABU_GUID@@PAPAX@Z 10001fb4 f i DeviceMonitor.obj
 0001:00000fcf       ?GetClassID@?$IPersistStreamInitImpl@VCOPOSDeviceMonitor@@@ATL@@UAGJPAU_GUID@@@Z 10001fcf f i DeviceMonitor.obj
 0001:00000fcf       ?GetUserClassID@?$IOleObjectImpl@VCOPOSDeviceMonitor@@@ATL@@UAGJPAU_GUID@@@Z 10001fcf f i DeviceMonitor.obj
 0001:00000fcf       ?GetClassID@?$IPersistStorageImpl@VCOPOSDeviceMonitor@@@ATL@@UAGJPAU_GUID@@@Z 10001fcf f i DeviceMonitor.obj
 0001:00000ff3       ?IsDirty@?$IPersistStreamInitImpl@VCOPOSDeviceMonitor@@@ATL@@UAGJXZ 10001ff3 f i DeviceMonitor.obj
 0001:00001012       ?Load@?$IPersistStreamInitImpl@VCOPOSDeviceMonitor@@@ATL@@UAGJPAUIStream@@@Z 10002012 f i DeviceMonitor.obj
 0001:00001031       ?Save@?$IPersistStreamInitImpl@VCOPOSDeviceMonitor@@@ATL@@UAGJPAUIStream@@H@Z 10002031 f i DeviceMonitor.obj
 0001:00001053       ?GetSizeMax@?$IPersistStreamInitImpl@VCOPOSDeviceMonitor@@@ATL@@UAGJPAT_ULARGE_INTEGER@@@Z 10002053 f i DeviceMonitor.obj
 0001:00001232       ?InitNew@?$IPersistStreamInitImpl@VCOPOSDeviceMonitor@@@ATL@@UAGJXZ 10002232 f i DeviceMonitor.obj
 0001:0000124f       ?GetControlInfo@?$IOleControlImpl@VCOPOSDeviceMonitor@@@ATL@@UAGJPAUtagCONTROLINFO@@@Z 1000224f f i DeviceMonitor.obj
 0001:0000124f       ?QueryGetData@?$IDataObjectImpl@VCOPOSDeviceMonitor@@@ATL@@UAGJPAUtagFORMATETC@@@Z 1000224f f i DeviceMonitor.obj
 0001:0000124f       ?GetDropTarget@?$IOleInPlaceObjectWindowlessImpl@VCOPOSDeviceMonitor@@@ATL@@UAGJPAPAUIDropTarget@@@Z 1000224f f i DeviceMonitor.obj
 0001:0000124f       ?SOOutputCompleteDummy@COPOSDeviceMonitor@@MAGJJ@Z 1000224f f i DeviceMonitor.obj
 0001:0000124f       ?OnMnemonic@?$IOleControlImpl@VCOPOSDeviceMonitor@@@ATL@@UAGJPAUtagMSG@@@Z 1000224f f i DeviceMonitor.obj
 0001:0000124f       ?ContextSensitiveHelp@?$IOleInPlaceObjectWindowlessImpl@VCOPOSDeviceMonitor@@@ATL@@UAGJH@Z 1000224f f i DeviceMonitor.obj
 0001:0000124f       ?SetColorScheme@?$IOleObjectImpl@VCOPOSDeviceMonitor@@@ATL@@UAGJPAUtagLOGPALETTE@@@Z 1000224f f i DeviceMonitor.obj
 0001:0000124f       ?Unfreeze@?$IViewObjectExImpl@VCOPOSDeviceMonitor@@@ATL@@UAGJK@Z 1000224f f i DeviceMonitor.obj
 0001:0000124f       ?ContextSensitiveHelp@?$IOleInPlaceActiveObjectImpl@VCOPOSDeviceMonitor@@@ATL@@UAGJH@Z 1000224f f i DeviceMonitor.obj
 0001:00001257       ?SaveCompleted@?$IPersistStorageImpl@VCOPOSDeviceMonitor@@@ATL@@UAGJPAUIStorage@@@Z 10002257 f i DeviceMonitor.obj
 0001:00001257       ?OnAmbientPropertyChange@?$IOleControlImpl@VCOPOSDeviceMonitor@@@ATL@@UAGJJ@Z 10002257 f i DeviceMonitor.obj
 0001:00001257       ?OnFrameWindowActivate@?$IOleInPlaceActiveObjectImpl@VCOPOSDeviceMonitor@@@ATL@@UAGJH@Z 10002257 f i DeviceMonitor.obj
 0001:00001257       ?EnableModeless@?$IOleInPlaceActiveObjectImpl@VCOPOSDeviceMonitor@@@ATL@@UAGJH@Z 10002257 f i DeviceMonitor.obj
 0001:0000125c       ?SetClientSite@?$IOleObjectImpl@VCOPOSDeviceMonitor@@@ATL@@UAGJPAUIOleClientSite@@@Z 1000225c f i DeviceMonitor.obj
 0001:00001279       ?GetClientSite@?$IOleObjectImpl@VCOPOSDeviceMonitor@@@ATL@@UAGJPAPAUIOleClientSite@@@Z 10002279 f i DeviceMonitor.obj
 0001:00001296       ?SetHostNames@?$IOleObjectImpl@VCOPOSDeviceMonitor@@@ATL@@UAGJPB_W0@Z 10002296 f i DeviceMonitor.obj
 0001:0000129b       ?Close@?$IOleObjectImpl@VCOPOSDeviceMonitor@@@ATL@@UAGJK@Z 1000229b f i DeviceMonitor.obj
 0001:000012b8       ?GetCanonicalFormatEtc@?$IDataObjectImpl@VCOPOSDeviceMonitor@@@ATL@@UAGJPAUtagFORMATETC@@0@Z 100022b8 f i DeviceMonitor.obj
 0001:000012b8       ?GetClipboardData@?$IOleObjectImpl@VCOPOSDeviceMonitor@@@ATL@@UAGJKPAPAUIDataObject@@@Z 100022b8 f i DeviceMonitor.obj
 0001:000012b8       ?SetMoniker@?$IOleObjectImpl@VCOPOSDeviceMonitor@@@ATL@@UAGJKPAUIMoniker@@@Z 100022b8 f i DeviceMonitor.obj
 0001:000012b8       ?GetDataHere@?$IDataObjectImpl@VCOPOSDeviceMonitor@@@ATL@@UAGJPAUtagFORMATETC@@PAUtagSTGMEDIUM@@@Z 100022b8 f i DeviceMonitor.obj
 0001:000012b8       ?QueryInterface@CRegObject@ATL@@UAGJABU_GUID@@PAPAX@Z 100022b8 f i DeviceMonitor.obj
 0001:000012b8       ?GetRect@?$IViewObjectExImpl@VCOPOSDeviceMonitor@@@ATL@@UAGJKPAU_RECTL@@@Z 100022b8 f i DeviceMonitor.obj
 0001:000012b8       ?EnumFormatEtc@?$IDataObjectImpl@VCOPOSDeviceMonitor@@@ATL@@UAGJKPAPAUIEnumFORMATETC@@@Z 100022b8 f i DeviceMonitor.obj
 0001:000012c0       ?InitFromData@?$IOleObjectImpl@VCOPOSDeviceMonitor@@@ATL@@UAGJPAUIDataObject@@HK@Z 100022c0 f i DeviceMonitor.obj
 0001:000012c0       ?SetData@?$IDataObjectImpl@VCOPOSDeviceMonitor@@@ATL@@UAGJPAUtagFORMATETC@@PAUtagSTGMEDIUM@@H@Z 100022c0 f i DeviceMonitor.obj
 0001:000012c0       ?GetMoniker@?$IOleObjectImpl@VCOPOSDeviceMonitor@@@ATL@@UAGJKKPAPAUIMoniker@@@Z 100022c0 f i DeviceMonitor.obj
 0001:000012c8       ?DoVerb@?$IOleObjectImpl@VCOPOSDeviceMonitor@@@ATL@@UAGJJPAUtagMSG@@PAUIOleClientSite@@JPAUHWND__@@PBUtagRECT@@@Z 100022c8 f i DeviceMonitor.obj
 0001:000013bc       ?EnumVerbs@?$IOleObjectImpl@VCOPOSDeviceMonitor@@@ATL@@UAGJPAPAUIEnumOLEVERB@@@Z 100023bc f i DeviceMonitor.obj
 0001:000013de       ?Update@?$IOleObjectImpl@VCOPOSDeviceMonitor@@@ATL@@UAGJXZ 100023de f i DeviceMonitor.obj
 0001:000013de       ?HandsOffStorage@?$IPersistStorageImpl@VCOPOSDeviceMonitor@@@ATL@@UAGJXZ 100023de f i DeviceMonitor.obj
 0001:000013de       ?Release@CRegObject@ATL@@UAGKXZ 100023de f i DeviceMonitor.obj
 0001:000013de       ?IsUpToDate@?$IOleObjectImpl@VCOPOSDeviceMonitor@@@ATL@@UAGJXZ 100023de f i DeviceMonitor.obj
 0001:000013e3       ?GetUserType@?$IOleObjectImpl@VCOPOSDeviceMonitor@@@ATL@@UAGJKPAPA_W@Z 100023e3 f i DeviceMonitor.obj
 0001:000013fb       ?SetExtent@?$IOleObjectImpl@VCOPOSDeviceMonitor@@@ATL@@UAGJKPAUtagSIZE@@@Z 100023fb f i DeviceMonitor.obj
 0001:0000141b       ?GetExtent@?$IOleObjectImpl@VCOPOSDeviceMonitor@@@ATL@@UAGJKPAUtagSIZE@@@Z 1000241b f i DeviceMonitor.obj
 0001:00001459       ?Advise@?$IOleObjectImpl@VCOPOSDeviceMonitor@@@ATL@@UAGJPAUIAdviseSink@@PAK@Z 10002459 f i DeviceMonitor.obj
 0001:00001479       ?Unadvise@?$IOleObjectImpl@VCOPOSDeviceMonitor@@@ATL@@UAGJK@Z 10002479 f i DeviceMonitor.obj
 0001:000014a8       ?EnumAdvise@?$IOleObjectImpl@VCOPOSDeviceMonitor@@@ATL@@UAGJPAPAUIEnumSTATDATA@@@Z 100024a8 f i DeviceMonitor.obj
 0001:000014e8       ?GetMiscStatus@?$IOleObjectImpl@VCOPOSDeviceMonitor@@@ATL@@UAGJKPAK@Z 100024e8 f i DeviceMonitor.obj
 0001:00001500       ?GetWindow@?$IOleInPlaceActiveObjectImpl@VCOPOSDeviceMonitor@@@ATL@@UAGJPAPAUHWND__@@@Z 10002500 f i DeviceMonitor.obj
 0001:0000154d       ?TranslateAcceleratorW@?$IOleInPlaceActiveObjectImpl@VCOPOSDeviceMonitor@@@ATL@@UAGJPAUtagMSG@@@Z 1000254d f i DeviceMonitor.obj
 0001:000015fb       ?OnDocWindowActivate@?$IOleInPlaceActiveObjectImpl@VCOPOSDeviceMonitor@@@ATL@@UAGJH@Z 100025fb f i DeviceMonitor.obj
 0001:0000161d       ?ResizeBorder@?$IOleInPlaceActiveObjectImpl@VCOPOSDeviceMonitor@@@ATL@@UAGJPBUtagRECT@@PAUIOleInPlaceUIWindow@@H@Z 1000261d f i DeviceMonitor.obj
 0001:00001622       ?Draw@?$IViewObjectExImpl@VCOPOSDeviceMonitor@@@ATL@@UAGJKJPAXPAUtagDVTARGETDEVICE@@PAUHDC__@@2PBU_RECTL@@3P6GHK@ZK@Z 10002622 f i DeviceMonitor.obj
 0001:00001654       ?GetColorSet@?$IViewObjectExImpl@VCOPOSDeviceMonitor@@@ATL@@UAGJKJPAXPAUtagDVTARGETDEVICE@@PAUHDC__@@PAPAUtagLOGPALETTE@@@Z 10002654 f i DeviceMonitor.obj
 0001:0000165c       ?Freeze@?$IViewObjectExImpl@VCOPOSDeviceMonitor@@@ATL@@UAGJKJPAXPAK@Z 1000265c f i DeviceMonitor.obj
 0001:00001664       ?SetAdvise@?$IViewObjectExImpl@VCOPOSDeviceMonitor@@@ATL@@UAGJKKPAUIAdviseSink@@@Z 10002664 f i DeviceMonitor.obj
 0001:00001683       ?GetAdvise@?$IViewObjectExImpl@VCOPOSDeviceMonitor@@@ATL@@UAGJPAK0PAPAUIAdviseSink@@@Z 10002683 f i DeviceMonitor.obj
 0001:000016b8       ?GetExtent@?$IViewObjectExImpl@VCOPOSDeviceMonitor@@@ATL@@UAGJKJPAUtagDVTARGETDEVICE@@PAUtagSIZE@@@Z 100026b8 f i DeviceMonitor.obj
 0001:000016e9       ?GetViewStatus@?$IViewObjectExImpl@VCOPOSDeviceMonitor@@@ATL@@UAGJPAK@Z 100026e9 f i DeviceMonitor.obj
 0001:00001706       ?QueryHitPoint@?$IViewObjectExImpl@VCOPOSDeviceMonitor@@@ATL@@UAGJKPBUtagRECT@@UtagPOINT@@JPAK@Z 10002706 f i DeviceMonitor.obj
 0001:00001747       ?QueryHitRect@?$IViewObjectExImpl@VCOPOSDeviceMonitor@@@ATL@@UAGJKPBUtagRECT@@0JPAK@Z 10002747 f i DeviceMonitor.obj
 0001:000017a2       ?GetNaturalExtent@?$IViewObjectExImpl@VCOPOSDeviceMonitor@@@ATL@@UAGJKJPAUtagDVTARGETDEVICE@@PAUHDC__@@PAUtagExtentInfo@@PAUtagSIZE@@@Z 100027a2 f i DeviceMonitor.obj
 0001:000017ed       ?GetWindow@?$IOleInPlaceObjectWindowlessImpl@VCOPOSDeviceMonitor@@@ATL@@UAGJPAPAUHWND__@@@Z 100027ed f i DeviceMonitor.obj
 0001:0000183a       ?InPlaceDeactivate@?$IOleInPlaceObjectWindowlessImpl@VCOPOSDeviceMonitor@@@ATL@@UAGJXZ 1000283a f i DeviceMonitor.obj
 0001:00001854       ?UIDeactivate@?$IOleInPlaceObjectWindowlessImpl@VCOPOSDeviceMonitor@@@ATL@@UAGJXZ 10002854 f i DeviceMonitor.obj
 0001:0000186e       ?SetObjectRects@?$IOleInPlaceObjectWindowlessImpl@VCOPOSDeviceMonitor@@@ATL@@UAGJPBUtagRECT@@0@Z 1000286e f i DeviceMonitor.obj
 0001:0000188e       ?ReactivateAndUndo@?$IOleInPlaceObjectWindowlessImpl@VCOPOSDeviceMonitor@@@ATL@@UAGJXZ 1000288e f i DeviceMonitor.obj
 0001:00001896       ?OnWindowMessage@?$IOleInPlaceObjectWindowlessImpl@VCOPOSDeviceMonitor@@@ATL@@UAGJIIJPAJ@Z 10002896 f i DeviceMonitor.obj
 0001:00001906       ?EnumConnectionPoints@?$IConnectionPointContainerImpl@VCOPOSDeviceMonitor@@@ATL@@UAGJPAPAUIEnumConnectionPoints@@@Z 10002906 f i DeviceMonitor.obj
 0001:00001a96       ?FindConnectionPoint@?$IConnectionPointContainerImpl@VCOPOSDeviceMonitor@@@ATL@@UAGJABU_GUID@@PAPAUIConnectionPoint@@@Z 10002a96 f i DeviceMonitor.obj
 0001:00001b39       ?IsDirty@?$IPersistStorageImpl@VCOPOSDeviceMonitor@@@ATL@@UAGJXZ 10002b39 f i DeviceMonitor.obj
 0001:00001b69       ?InitNew@?$IPersistStorageImpl@VCOPOSDeviceMonitor@@@ATL@@UAGJPAUIStorage@@@Z 10002b69 f i DeviceMonitor.obj
 0001:00001b99       ?Load@?$IPersistStorageImpl@VCOPOSDeviceMonitor@@@ATL@@UAGJPAUIStorage@@@Z 10002b99 f i DeviceMonitor.obj
 0001:00001c05       ?Save@?$IPersistStorageImpl@VCOPOSDeviceMonitor@@@ATL@@UAGJPAUIStorage@@H@Z 10002c05 f i DeviceMonitor.obj
 0001:00001c78       ?GetPages@?$ISpecifyPropertyPagesImpl@VCOPOSDeviceMonitor@@@ATL@@UAGJPAUtagCAUUID@@@Z 10002c78 f i DeviceMonitor.obj
 0001:00001c8f       ?QuickActivate@?$IQuickActivateImpl@VCOPOSDeviceMonitor@@@ATL@@UAGJPAUtagQACONTAINER@@PAUtagQACONTROL@@@Z 10002c8f f i DeviceMonitor.obj
 0001:00001cb2       ?SetContentExtent@?$IQuickActivateImpl@VCOPOSDeviceMonitor@@@ATL@@UAGJPAUtagSIZE@@@Z 10002cb2 f i DeviceMonitor.obj
 0001:00001cde       ?GetContentExtent@?$IQuickActivateImpl@VCOPOSDeviceMonitor@@@ATL@@UAGJPAUtagSIZE@@@Z 10002cde f i DeviceMonitor.obj
 0001:00001d1a       ?GetData@?$IDataObjectImpl@VCOPOSDeviceMonitor@@@ATL@@UAGJPAUtagFORMATETC@@PAUtagSTGMEDIUM@@@Z 10002d1a f i DeviceMonitor.obj
 0001:00001d3d       ?DAdvise@?$IDataObjectImpl@VCOPOSDeviceMonitor@@@ATL@@UAGJPAUtagFORMATETC@@KPAUIAdviseSink@@PAK@Z 10002d3d f i DeviceMonitor.obj
 0001:00001d7e       ?DUnadvise@?$IDataObjectImpl@VCOPOSDeviceMonitor@@@ATL@@UAGJK@Z 10002d7e f i DeviceMonitor.obj
 0001:00001dac       ?EnumDAdvise@?$IDataObjectImpl@VCOPOSDeviceMonitor@@@ATL@@UAGJPAPAUIEnumSTATDATA@@@Z 10002dac f i DeviceMonitor.obj
 0001:00001deb       ?GetClassInfoW@?$IProvideClassInfo2Impl@$1?CLSID_OPOSDeviceMonitor@@3U_GUID@@B$1?DIID__IOPOSDeviceMonitorEvents@@3U2@B$1?LIBID_OposDeviceMonitor_CCO@@3U2@B$00$0A@VCComTypeInfoHolder@ATL@@@ATL@@UAGJPAPAUITypeInfo@@@Z 10002deb f i DeviceMonitor.obj
 0001:00001e01       ?GetGUID@?$IProvideClassInfo2Impl@$1?CLSID_OPOSDeviceMonitor@@3U_GUID@@B$1?DIID__IOPOSDeviceMonitorEvents@@3U2@B$1?LIBID_OposDeviceMonitor_CCO@@3U2@B$00$0A@VCComTypeInfoHolder@ATL@@@ATL@@UAGJKPAU_GUID@@@Z 10002e01 f i DeviceMonitor.obj
 0001:00001e3f       ?FAccessAllowed@?$IObjectSafetyImpl@VCOPOSDeviceMonitor@@$02@ATL@@MAEHXZ 10002e3f f i DeviceMonitor.obj
 0001:00001e3f       __get_startup_argv_mode    10002e3f f i LIBCMT:argv_mode.obj
 0001:00001e43       ?GetInterfaceSafetyOptions@?$IObjectSafetyImpl@VCOPOSDeviceMonitor@@$02@ATL@@UAGJABU_GUID@@PAK1@Z 10002e43 f i DeviceMonitor.obj
 0001:00001eb6       ?SetInterfaceSafetyOptions@?$IObjectSafetyImpl@VCOPOSDeviceMonitor@@$02@ATL@@UAGJABU_GUID@@KK@Z 10002eb6 f i DeviceMonitor.obj
 0001:00001f30       ?_LocCPQueryInterface@?$IConnectionPointImpl@VCOPOSDeviceMonitor@@$1?IID_IPropertyNotifySink@@3U_GUID@@BVCComDynamicUnkArray@ATL@@@ATL@@UAGJABU_GUID@@PAPAX@Z 10002f30 f i DeviceMonitor.obj
 0001:00001f30       ?_LocCPQueryInterface@?$IConnectionPointImpl@VCOPOSDeviceMonitor@@$1?DIID__IOPOSDeviceMonitorEvents@@3U_GUID@@BVCComDynamicUnkArray@ATL@@@ATL@@UAGJABU_GUID@@PAPAX@Z 10002f30 f i DeviceMonitor.obj
 0001:00001f7d       ?GetConnectionInterface@?$IConnectionPointImpl@VCOPOSDeviceMonitor@@$1?IID_IPropertyNotifySink@@3U_GUID@@BVCComDynamicUnkArray@ATL@@@ATL@@UAGJPAU_GUID@@@Z 10002f7d f i DeviceMonitor.obj
 0001:00001fa1       ?GetConnectionPointContainer@?$IConnectionPointImpl@VCOPOSDeviceMonitor@@$1?IID_IPropertyNotifySink@@3U_GUID@@BVCComDynamicUnkArray@ATL@@@ATL@@UAGJPAPAUIConnectionPointContainer@@@Z 10002fa1 f i DeviceMonitor.obj
 0001:00001fc4       ?Advise@?$IConnectionPointImpl@VCOPOSDeviceMonitor@@$1?IID_IPropertyNotifySink@@3U_GUID@@BVCComDynamicUnkArray@ATL@@@ATL@@UAGJPAUIUnknown@@PAK@Z 10002fc4 f i DeviceMonitor.obj
 0001:00001fc4       ?Advise@?$IConnectionPointImpl@VCOPOSDeviceMonitor@@$1?DIID__IOPOSDeviceMonitorEvents@@3U_GUID@@BVCComDynamicUnkArray@ATL@@@ATL@@UAGJPAUIUnknown@@PAK@Z 10002fc4 f i DeviceMonitor.obj
 0001:00002064       ?Unadvise@?$IConnectionPointImpl@VCOPOSDeviceMonitor@@$1?IID_IPropertyNotifySink@@3U_GUID@@BVCComDynamicUnkArray@ATL@@@ATL@@UAGJK@Z 10003064 f i DeviceMonitor.obj
 0001:00002064       ?Unadvise@?$IConnectionPointImpl@VCOPOSDeviceMonitor@@$1?DIID__IOPOSDeviceMonitorEvents@@3U_GUID@@BVCComDynamicUnkArray@ATL@@@ATL@@UAGJK@Z 10003064 f i DeviceMonitor.obj
 0001:000020a4       ?EnumConnections@?$IConnectionPointImpl@VCOPOSDeviceMonitor@@$1?IID_IPropertyNotifySink@@3U_GUID@@BVCComDynamicUnkArray@ATL@@@ATL@@UAGJPAPAUIEnumConnections@@@Z 100030a4 f i DeviceMonitor.obj
 0001:000020a4       ?EnumConnections@?$IConnectionPointImpl@VCOPOSDeviceMonitor@@$1?DIID__IOPOSDeviceMonitorEvents@@3U_GUID@@BVCComDynamicUnkArray@ATL@@@ATL@@UAGJPAPAUIEnumConnections@@@Z 100030a4 f i DeviceMonitor.obj
 0001:000021a7       ?Lock@CAtlModule@ATL@@UAEJXZ 100031a7 f i DeviceMonitor.obj
 0001:000021b1       ?Unlock@CAtlModule@ATL@@UAEJXZ 100031b1 f i DeviceMonitor.obj
 0001:000021bb       ?GetLockCount@CAtlModule@ATL@@UAEJXZ 100031bb f i DeviceMonitor.obj
 0001:000021bf       ?GetGITPtr@CAtlModule@ATL@@UAEJPAPAUIGlobalInterfaceTable@@@Z 100031bf f i DeviceMonitor.obj
 0001:0000220b       ?GetConnectionInterface@?$IConnectionPointImpl@VCOPOSDeviceMonitor@@$1?DIID__IOPOSDeviceMonitorEvents@@3U_GUID@@BVCComDynamicUnkArray@ATL@@@ATL@@UAGJPAU_GUID@@@Z 1000320b f i DeviceMonitor.obj
 0001:0000222f       ?GetConnectionPointContainer@?$IConnectionPointImpl@VCOPOSDeviceMonitor@@$1?DIID__IOPOSDeviceMonitorEvents@@3U_GUID@@BVCComDynamicUnkArray@ATL@@@ATL@@UAGJPAPAUIConnectionPointContainer@@@Z 1000322f f i DeviceMonitor.obj
 0001:00002252       ?UpdateRegistry@COPOSDeviceMonitor@@SGJH@Z 10003252 f i DeviceMonitor.obj
 0001:0000226a       ?ProcessWindowMessage@COPOSDeviceMonitor@@UAEHPAUHWND__@@IIJAAJK@Z 1000326a f i DeviceMonitor.obj
 0001:000022b7       ?AddCommonRGSReplacements@?$CAtlModuleT@VCComModule@ATL@@@ATL@@UAEJPAUIRegistrarBase@@@Z 100032b7 f i DeviceMonitor.obj
 0001:000022d1       ?SOData@COPOSDeviceMonitor@@MAGJJ@Z 100032d1 f i DeviceMonitor.obj
 0001:0000230a       ?SODirectIO@COPOSDeviceMonitor@@MAGJJPAJPAPA_W@Z 1000330a f i DeviceMonitor.obj
 0001:00002353       ?SOError@COPOSDeviceMonitor@@MAGJJJJPAJ@Z 10003353 f i DeviceMonitor.obj
 0001:000023a8       ?SOStatusUpdate@COPOSDeviceMonitor@@MAGJJ@Z 100033a8 f i DeviceMonitor.obj
 0001:000023e1       ?UpdateRegistryFromResourceD@CComModule@ATL@@UAGJIHPAU_ATL_REGMAP_ENTRY@2@@Z 100033e1 f i DeviceMonitor.obj
 0001:000023e1       ?UpdateRegistryFromResourceD@CComModule@ATL@@UAGJPB_WHPAU_ATL_REGMAP_ENTRY@2@@Z 100033e1 f i DeviceMonitor.obj
 0001:000023e9       ?UpdateRegistryFromResource@CComModule@ATL@@UAGJPB_WHPAU_ATL_REGMAP_ENTRY@2@@Z 100033e9 f i DeviceMonitor.obj
 0001:000023f2       ?UpdateRegistryFromResource@CComModule@ATL@@UAGJIHPAU_ATL_REGMAP_ENTRY@2@@Z 100033f2 f i DeviceMonitor.obj
 0001:000023fb       ??_GCComModule@ATL@@UAEPAXI@Z 100033fb f i DeviceMonitor.obj
 0001:000023fb       ??_ECComModule@ATL@@UAEPAXI@Z 100033fb f i DeviceMonitor.obj
 0001:00002423       ?CreateInstance@?$CComCreator@V?$CComObjectCached@VCComClassFactory@ATL@@@ATL@@@ATL@@SGJPAXABU_GUID@@PAPAX@Z 10003423 f i DeviceMonitor.obj
 0001:000024c4       ?CreateInstance@?$CComCreator2@V?$CComCreator@V?$CComObject@VCOPOSDeviceMonitor@@@ATL@@@ATL@@V?$CComCreator@V?$CComAggObject@VCOPOSDeviceMonitor@@@ATL@@@2@@ATL@@SGJPAXABU_GUID@@PAPAX@Z 100034c4 f i DeviceMonitor.obj
 0001:000024e4       ?AddRef@?$CComObjectCached@VCComClassFactory@ATL@@@ATL@@UAGKXZ 100034e4 f i DeviceMonitor.obj
 0001:0000250b       ?Release@?$CComObjectCached@VCComClassFactory@ATL@@@ATL@@UAGKXZ 1000350b f i DeviceMonitor.obj
 0001:00002541       ?QueryInterface@?$CComObjectCached@VCComClassFactory@ATL@@@ATL@@UAGJABU_GUID@@PAPAX@Z 10003541 f i DeviceMonitor.obj
 0001:0000255b       ??_G?$CComObjectCached@VCComClassFactory@ATL@@@ATL@@UAEPAXI@Z 1000355b f i DeviceMonitor.obj
 0001:0000255b       ??_E?$CComObjectCached@VCComClassFactory@ATL@@@ATL@@UAEPAXI@Z 1000355b f i DeviceMonitor.obj
 0001:0000257d       ?Next@?$CComEnumImpl@UIEnumConnectionPoints@@$1?_GUID_b196b285_bab4_101a_b69c_00aa00341d07@@3U__s_GUID@@BPAUIConnectionPoint@@V?$_CopyInterface@UIConnectionPoint@@@ATL@@@ATL@@UAGJKPAPAUIConnectionPoint@@PAK@Z 1000357d f i DeviceMonitor.obj
 0001:0000264c       ?Skip@?$CComEnumImpl@UIEnumConnectionPoints@@$1?_GUID_b196b285_bab4_101a_b69c_00aa00341d07@@3U__s_GUID@@BPAUIConnectionPoint@@V?$_CopyInterface@UIConnectionPoint@@@ATL@@@ATL@@UAGJK@Z 1000364c f i DeviceMonitor.obj
 0001:00002679       ?Clone@?$CComEnumImpl@UIEnumConnectionPoints@@$1?_GUID_b196b285_bab4_101a_b69c_00aa00341d07@@3U__s_GUID@@BPAUIConnectionPoint@@V?$_CopyInterface@UIConnectionPoint@@@ATL@@@ATL@@UAGJPAPAUIEnumConnectionPoints@@@Z 10003679 f i DeviceMonitor.obj
 0001:0000275a       ?QueryInterface@?$CComObject@V?$CComEnum@UIEnumConnectionPoints@@$1?_GUID_b196b285_bab4_101a_b69c_00aa00341d07@@3U__s_GUID@@BPAUIConnectionPoint@@V?$_CopyInterface@UIConnectionPoint@@@ATL@@VCComSingleThreadModel@6@@ATL@@@ATL@@UAGJABU_GUID@@PAPAX@Z 1000375a f i DeviceMonitor.obj
 0001:00002774       ??_E?$CComObject@V?$CComEnum@UIEnumConnectionPoints@@$1?_GUID_b196b285_bab4_101a_b69c_00aa00341d07@@3U__s_GUID@@BPAUIConnectionPoint@@V?$_CopyInterface@UIConnectionPoint@@@ATL@@VCComSingleThreadModel@6@@ATL@@@ATL@@UAEPAXI@Z 10003774 f i DeviceMonitor.obj
 0001:00002774       ??_G?$CComObject@V?$CComEnum@UIEnumConnectionPoints@@$1?_GUID_b196b285_bab4_101a_b69c_00aa00341d07@@3U__s_GUID@@BPAUIConnectionPoint@@V?$_CopyInterface@UIConnectionPoint@@@ATL@@VCComSingleThreadModel@6@@ATL@@@ATL@@UAEPAXI@Z 10003774 f i DeviceMonitor.obj
 0001:00002796       ?AddRef@CRegObject@ATL@@UAGKXZ 10003796 f i DeviceMonitor.obj
 0001:0000279c       ?AddReplacement@CRegObject@ATL@@UAGJPB_W0@Z 1000379c f i DeviceMonitor.obj
 0001:000027d5       ?ClearReplacements@CRegObject@ATL@@UAGJXZ 100037d5 f i DeviceMonitor.obj
 0001:000027e7       ??_ECRegObject@ATL@@UAEPAXI@Z 100037e7 f i DeviceMonitor.obj
 0001:000027e7       ??_GCRegObject@ATL@@UAEPAXI@Z 100037e7 f i DeviceMonitor.obj
 0001:00002809       ?AddRef@?$CComAggObject@VCOPOSDeviceMonitor@@@ATL@@UAGKXZ 10003809 f i DeviceMonitor.obj
 0001:0000281a       ?Release@?$CComAggObject@VCOPOSDeviceMonitor@@@ATL@@UAGKXZ 1000381a f i DeviceMonitor.obj
 0001:00002856       ?QueryInterface@?$CComAggObject@VCOPOSDeviceMonitor@@@ATL@@UAGJABU_GUID@@PAPAX@Z 10003856 f i DeviceMonitor.obj
 0001:000028a5       ?AddRef@?$CComContainedObject@VCOPOSDeviceMonitor@@@ATL@@UAGKXZ 100038a5 f i DeviceMonitor.obj
 0001:000028bb       ?Release@?$CComContainedObject@VCOPOSDeviceMonitor@@@ATL@@UAGKXZ 100038bb f i DeviceMonitor.obj
 0001:000028d1       ?QueryInterface@?$CComContainedObject@VCOPOSDeviceMonitor@@@ATL@@UAGJABU_GUID@@PAPAX@Z 100038d1 f i DeviceMonitor.obj
 0001:000028ec       ??_E?$CComAggObject@VCOPOSDeviceMonitor@@@ATL@@UAEPAXI@Z 100038ec f i DeviceMonitor.obj
 0001:000028ec       ??_G?$CComAggObject@VCOPOSDeviceMonitor@@@ATL@@UAEPAXI@Z 100038ec f i DeviceMonitor.obj
 0001:00002911       ?AddRef@?$CComObject@VCOPOSDeviceMonitor@@@ATL@@UAGKXZ 10003911 f i DeviceMonitor.obj
 0001:00002928       ?Release@?$CComObject@VCOPOSDeviceMonitor@@@ATL@@UAGKXZ 10003928 f i DeviceMonitor.obj
 0001:0000296a       ?QueryInterface@?$CComObject@VCOPOSDeviceMonitor@@@ATL@@UAGJABU_GUID@@PAPAX@Z 1000396a f i DeviceMonitor.obj
 0001:00002984       ??$?4UITypeInfo2@@@?$CComPtr@UITypeInfo@@@ATL@@QAEPAUITypeInfo@@ABV?$CComPtr@UITypeInfo2@@@1@@Z 10003984 f i DeviceMonitor.obj
 0001:000029b1       ??$AtlAdd@K@ATL@@YAJPAKKK@Z 100039b1 f i DeviceMonitor.obj
 0001:000029d4       ??$AtlAdd@_K@ATL@@YAJPA_K_K1@Z 100039d4 f i DeviceMonitor.obj
 0001:00002a0c       ??$AtlAddThrow@K@ATL@@YAKKK@Z 10003a0c f i DeviceMonitor.obj
 0001:00002a32       ??$AtlModuleRegisterWndClassInfoT@VAtlModuleRegisterWndClassInfoParamW@ATL@@@ATL@@YAGPAU_ATL_BASE_MODULE70@0@PAU_ATL_WIN_MODULE70@0@PAU_ATL_WNDCLASSINFOW@0@PAP6GJPAUHWND__@@IIJ@ZVAtlModuleRegisterWndClassInfoParamW@0@@Z 10003a32 f i DeviceMonitor.obj
 0001:00002b7f       ??$AtlMultiply@H@ATL@@YAJPAHHH@Z 10003b7f f i DeviceMonitor.obj
 0001:00002bb7       ??$AtlMultiply@I@ATL@@YAJPAIII@Z 10003bb7 f i DeviceMonitor.obj
 0001:00002bb7       ??$AtlMultiply@K@ATL@@YAJPAKKK@Z 10003bb7 f i DeviceMonitor.obj
 0001:00002bd9       ??$AtlMultiplyThrow@I@ATL@@YAIII@Z 10003bd9 f i DeviceMonitor.obj
 0001:00002bff       ??0?$CComAggObject@VCOPOSDeviceMonitor@@@ATL@@QAE@PAX@Z 10003bff f i DeviceMonitor.obj
 0001:00002c2c       ??0?$CComContainedObject@VCOPOSDeviceMonitor@@@ATL@@QAE@PAX@Z 10003c2c f i DeviceMonitor.obj
 0001:00002ce5       ??0?$CComObject@V?$CComEnum@UIEnumConnectionPoints@@$1?_GUID_b196b285_bab4_101a_b69c_00aa00341d07@@3U__s_GUID@@BPAUIConnectionPoint@@V?$_CopyInterface@UIConnectionPoint@@@ATL@@VCComSingleThreadModel@6@@ATL@@@ATL@@QAE@PAX@Z 10003ce5 f i DeviceMonitor.obj
 0001:00002d13       ??0?$CComObject@V?$CComEnum@UIEnumConnections@@$1?_GUID_b196b287_bab4_101a_b69c_00aa00341d07@@3U__s_GUID@@BUtagCONNECTDATA@@V?$_Copy@UtagCONNECTDATA@@@ATL@@VCComSingleThreadModel@6@@ATL@@@ATL@@QAE@PAX@Z 10003d13 f i DeviceMonitor.obj
 0001:00002d41       ??0?$CComObject@VCOPOSDeviceMonitor@@@ATL@@QAE@PAX@Z 10003d41 f i DeviceMonitor.obj
 0001:00002df8       ??0?$CComQIPtr@UIOleControlSite@@$1?_GUID_b196b289_bab4_101a_b69c_00aa00341d07@@3U__s_GUID@@B@ATL@@QAE@PAUIUnknown@@@Z 10003df8 f i DeviceMonitor.obj
 0001:00002e21       ??0CAtlModule@ATL@@QAE@XZ  10003e21 f i DeviceMonitor.obj
 0001:00002e62       ??0CParseBuffer@CRegParser@ATL@@QAE@H@Z 10003e62 f i DeviceMonitor.obj
 0001:00002e98       ??0_ATL_MSG@ATL@@QAE@PAUHWND__@@IIJH@Z 10003e98 f i DeviceMonitor.obj
 0001:00002ed0       ??1?$CComAggObject@VCOPOSDeviceMonitor@@@ATL@@UAE@XZ 10003ed0 f i DeviceMonitor.obj
 0001:00002ef4       ??1?$CComEnumImpl@UIEnumConnectionPoints@@$1?_GUID_b196b285_bab4_101a_b69c_00aa00341d07@@3U__s_GUID@@BPAUIConnectionPoint@@V?$_CopyInterface@UIConnectionPoint@@@ATL@@@ATL@@UAE@XZ 10003ef4 f i DeviceMonitor.obj
 0001:00002f30       ??1?$CComEnumImpl@UIEnumConnections@@$1?_GUID_b196b287_bab4_101a_b69c_00aa00341d07@@3U__s_GUID@@BUtagCONNECTDATA@@V?$_Copy@UtagCONNECTDATA@@@ATL@@@ATL@@UAE@XZ 10003f30 f i DeviceMonitor.obj
 0001:00002f6c       ??1?$CComObject@V?$CComEnum@UIEnumConnectionPoints@@$1?_GUID_b196b285_bab4_101a_b69c_00aa00341d07@@3U__s_GUID@@BPAUIConnectionPoint@@V?$_CopyInterface@UIConnectionPoint@@@ATL@@VCComSingleThreadModel@6@@ATL@@@ATL@@UAE@XZ 10003f6c f i DeviceMonitor.obj
 0001:00002f8f       ??1?$CComObject@V?$CComEnum@UIEnumConnections@@$1?_GUID_b196b287_bab4_101a_b69c_00aa00341d07@@3U__s_GUID@@BUtagCONNECTDATA@@V?$_Copy@UtagCONNECTDATA@@@ATL@@VCComSingleThreadModel@6@@ATL@@@ATL@@UAE@XZ 10003f8f f i DeviceMonitor.obj
 0001:00002fb2       ??1?$CComObject@VCOPOSDeviceMonitor@@@ATL@@UAE@XZ 10003fb2 f i DeviceMonitor.obj
 0001:00003070       ??1?$CComObjectCached@VCComClassFactory@ATL@@@ATL@@UAE@XZ 10004070 f i DeviceMonitor.obj
 0001:00003086       ??1?$CComObjectRootEx@VCComMultiThreadModel@ATL@@@ATL@@QAE@XZ 10004086 f i DeviceMonitor.obj
 0001:0000309b       ??1CRegObject@ATL@@UAE@XZ  1000409b f i DeviceMonitor.obj
 0001:000030bb       ??4?$CComPtr@UIOleClientSite@@@ATL@@QAEPAUIOleClientSite@@PAU2@@Z 100040bb f i DeviceMonitor.obj
 0001:000030bb       ??4?$CComPtr@UIAdviseSink@@@ATL@@QAEPAUIAdviseSink@@PAU2@@Z 100040bb f i DeviceMonitor.obj
 0001:000030bb       ??4?$CComPtr@UIUnknown@@@ATL@@QAEPAUIUnknown@@PAU2@@Z 100040bb f i DeviceMonitor.obj
 0001:000030e9       ??_G?$CComContainedObject@VCOPOSDeviceMonitor@@@ATL@@UAEPAXI@Z 100040e9 f i DeviceMonitor.obj
 0001:000030e9       ??_E?$CComContainedObject@VCOPOSDeviceMonitor@@@ATL@@UAEPAXI@Z 100040e9 f i DeviceMonitor.obj
 0001:0000310e       ??_E?$CComObject@VCOPOSDeviceMonitor@@@ATL@@UAEPAXI@Z 1000410e f i DeviceMonitor.obj
 0001:0000310e       ??_G?$CComObject@VCOPOSDeviceMonitor@@@ATL@@UAEPAXI@Z 1000410e f i DeviceMonitor.obj
 0001:00003133       ?Add@?$CSimpleArray@GV?$CSimpleArrayEqualHelper@G@ATL@@@ATL@@QAEHABG@Z 10004133 f i DeviceMonitor.obj
 0001:000031ad       ?Add@?$CSimpleMap@PA_WPA_WVCExpansionVectorEqualHelper@ATL@@@ATL@@QAEHABQA_W0@Z 100041ad f i DeviceMonitor.obj
 0001:00003202       ?Add@CComDynamicUnkArray@ATL@@QAEKPAUIUnknown@@@Z 10004202 f i DeviceMonitor.obj
 0001:000032b3       ?Add@CExpansionVector@ATL@@QAEHPB_W0@Z 100042b3 f i DeviceMonitor.obj
 0001:000033bc       ?AddString@CParseBuffer@CRegParser@ATL@@QAEHPB_W@Z 100043bc f i DeviceMonitor.obj
 0001:000033f1       ?AddTermFunc@CAtlModule@ATL@@QAEJP6GXK@ZK@Z 100043f1 f i DeviceMonitor.obj
 0001:0000345d       ?AddValue@CRegParser@ATL@@IAEJAAVCRegKey@2@PB_WPA_W@Z 1000445d f i DeviceMonitor.obj
 0001:00003777       ?Allocate@?$CAtlSafeAllocBufferManager@VCCRTAllocator@ATL@@@_ATL_SAFE_ALLOCA_IMPL@ATL@@QAEPAXK@Z 10004777 f i DeviceMonitor.obj
 0001:000037a4       ?Allocate@?$CTempBuffer@E$0BAA@VCCRTAllocator@ATL@@@ATL@@QAEPAEI@Z 100047a4 f i DeviceMonitor.obj
 0001:000037d3       ?Allocate@?$CTempBuffer@_W$0BAA@VCCRTAllocator@ATL@@@ATL@@QAEPA_WI@Z 100047d3 f i DeviceMonitor.obj
 0001:00003802       ?Allocate@?$CTempBuffer@_W$0EAA@VCCRTAllocator@ATL@@@ATL@@QAEPA_WI@Z 10004802 f i DeviceMonitor.obj
 0001:00003831       ?AllocateHeap@?$CTempBuffer@_W$0BAA@VCCRTAllocator@ATL@@@ATL@@AAEXI@Z 10004831 f i DeviceMonitor.obj
 0001:00003831       ?AllocateHeap@?$CTempBuffer@_W$0EAA@VCCRTAllocator@ATL@@@ATL@@AAEXI@Z 10004831 f i DeviceMonitor.obj
 0001:00003831       ?AllocateHeap@?$CTempBuffer@E$0BAA@VCCRTAllocator@ATL@@@ATL@@AAEXI@Z 10004831 f i DeviceMonitor.obj
 0001:00003856       ?Append@CParseBuffer@CRegParser@ATL@@QAEHPB_WH@Z 10004856 f i DeviceMonitor.obj
 0001:000038e2       ?AtlCoTaskMemCAlloc@ATL@@YAPAXKK@Z 100048e2 f i DeviceMonitor.obj
 0001:0000390f       ?AtlCoTaskMemRecalloc@ATL@@YAPAXPAXKK@Z 1000490f f i DeviceMonitor.obj
 0001:0000393f       ?AtlComModuleGetClassObject@ATL@@YGJPAU_ATL_COM_MODULE70@1@ABU_GUID@@1PAPAX@Z 1000493f f i DeviceMonitor.obj
 0001:00003a34       ?AtlComModuleRegisterServer@ATL@@YGJPAU_ATL_COM_MODULE70@1@HPBU_GUID@@@Z 10004a34 f i DeviceMonitor.obj
 0001:00003abc       ?AtlComModuleUnregisterServer@ATL@@YGJPAU_ATL_COM_MODULE70@1@HPBU_GUID@@@Z 10004abc f i DeviceMonitor.obj
 0001:00003b44       ?AtlComQIPtrAssign2@ATL@@YAXPAPAUIUnknown@@PAU2@ABU_GUID@@@Z 10004b44 f i DeviceMonitor.obj
 0001:00003b73       ?AtlCreateTargetDC@ATL@@YGPAUHDC__@@PAU2@PAUtagDVTARGETDEVICE@@@Z 10004b73 f i DeviceMonitor.obj
 0001:00003bdc       ?AtlCrtErrorCheck@ATL@@YAHH@Z 10004bdc f i DeviceMonitor.obj
 0001:00003c17       ?AtlHiMetricToPixel@ATL@@YGXPBUtagSIZE@@PAU2@@Z 10004c17 f i DeviceMonitor.obj
 0001:00003c8c       ?AtlHresultFromLastError@ATL@@YAJXZ 10004c8c f i DeviceMonitor.obj
 0001:00003ca3       ?AtlHresultFromWin32@ATL@@YAJK@Z 10004ca3 f i DeviceMonitor.obj
 0001:00003cb8       ?AtlInternalOleLoadFromStream@ATL@@YAJPAUIStream@@ABU_GUID@@PAPAXTClassesAllowedInStream@1@K@Z 10004cb8 f i DeviceMonitor.obj
 0001:00003de1       ?AtlInternalQueryInterface@ATL@@YGJPAXPBU_ATL_INTMAP_ENTRY@1@ABU_GUID@@PAPAX@Z 10004de1 f i DeviceMonitor.obj
 0001:00003e84       ?AtlLoadTypeLib@ATL@@YGJPAUHINSTANCE__@@PB_WPAPA_WPAPAUITypeLib@@@Z 10004e84 f i DeviceMonitor.obj
 0001:00004062       ?AtlRegisterClassCategoriesHelper@ATL@@YGJABU_GUID@@PBU_ATL_CATMAP_ENTRY@1@H@Z 10005062 f i DeviceMonitor.obj
 0001:0000435e       ?AtlRegisterTypeLib@ATL@@YGJPAUHINSTANCE__@@PB_W@Z 1000535e f i DeviceMonitor.obj
 0001:000044e6       ?AtlThrowImpl@ATL@@YGXJ@Z  100054e6 f i DeviceMonitor.obj
 0001:00004504       ?AtlUnRegisterTypeLib@ATL@@YGJPAUHINSTANCE__@@PB_W@Z 10005504 f i DeviceMonitor.obj
 0001:000045af       ?AtlWinModuleAddCreateWndData@ATL@@YGXPAU_ATL_WIN_MODULE70@1@PAU_AtlCreateWndData@1@PAX@Z 100055af f i DeviceMonitor.obj
 0001:00004603       ?AtlWinModuleExtractCreateWndData@ATL@@YGPAXPAU_ATL_WIN_MODULE70@1@@Z 10005603 f i DeviceMonitor.obj
 0001:00004667       ?AtlWinModuleRegisterClassExW@ATL@@YGGPAU_ATL_WIN_MODULE70@1@PBUtagWNDCLASSEXW@@@Z 10005667 f i DeviceMonitor.obj
 0001:000046a6       ?CanForceRemoveKey@CRegParser@ATL@@IAEHPB_W@Z 100056a6 f i DeviceMonitor.obj
 0001:000046d5       ?ChToByte@CRegParser@ATL@@KAE_W@Z 100056d5 f i DeviceMonitor.obj
 0001:0000475d       ?Cleanup@CComTypeInfoHolder@ATL@@SGXK@Z 1000575d f i DeviceMonitor.obj
 0001:00004790       ?ClearReplacements@CExpansionVector@ATL@@QAEJXZ 10005790 f i DeviceMonitor.obj
 0001:000047cd       ?Close@CRegKey@ATL@@QAEJXZ 100057cd f i DeviceMonitor.obj
 0001:000047e7       ?CreateInstance@?$CComCreator@V?$CComAggObject@VCOPOSDeviceMonitor@@@ATL@@@ATL@@SGJPAXABU_GUID@@PAPAX@Z 100057e7 f i DeviceMonitor.obj
 0001:0000485c       ?CreateInstance@?$CComCreator@V?$CComObject@VCOPOSDeviceMonitor@@@ATL@@@ATL@@SGJPAXABU_GUID@@PAPAX@Z 1000585c f i DeviceMonitor.obj
 0001:000048e5       ?CreateInstance@?$CComObject@V?$CComEnum@UIEnumConnectionPoints@@$1?_GUID_b196b285_bab4_101a_b69c_00aa00341d07@@3U__s_GUID@@BPAUIConnectionPoint@@V?$_CopyInterface@UIConnectionPoint@@@ATL@@VCComSingleThreadModel@6@@ATL@@@ATL@@SGJPAPAV12@@Z 100058e5 f i DeviceMonitor.obj
 0001:0000492f       ?CreateInstance@?$CComObject@V?$CComEnum@UIEnumConnections@@$1?_GUID_b196b287_bab4_101a_b69c_00aa00341d07@@3U__s_GUID@@BUtagCONNECTDATA@@V?$_Copy@UtagCONNECTDATA@@@ATL@@VCComSingleThreadModel@6@@ATL@@@ATL@@SGJPAPAV12@@Z 1000592f f i DeviceMonitor.obj
 0001:00004979       ?DefaultReflectionHandler@?$CWindowImplRoot@VCWindow@ATL@@@ATL@@SAHPAUHWND__@@IIJAAJ@Z 10005979 f i DeviceMonitor.obj
 0001:00004a19       ?DeleteSubKey@CRegKey@ATL@@QAEJPB_W@Z 10005a19 f i DeviceMonitor.obj
 0001:00004a92       ?DoEvent@COPOSDeviceMonitor@@IAEXIIJ@Z 10005a92 f i DeviceMonitor.obj
 0001:00004b12       ?DoVerbHide@?$IOleObjectImpl@VCOPOSDeviceMonitor@@@ATL@@QAEJPBUtagRECT@@PAUHWND__@@@Z 10005b12 f i DeviceMonitor.obj
 0001:00004b48       ?DoVerbInPlaceActivate@?$IOleObjectImpl@VCOPOSDeviceMonitor@@@ATL@@QAEJPBUtagRECT@@PAUHWND__@@@Z 10005b48 f i DeviceMonitor.obj
 0001:00004b7b       ?DoVerbPrimary@?$IOleObjectImpl@VCOPOSDeviceMonitor@@@ATL@@QAEJPBUtagRECT@@PAUHWND__@@@Z 10005b7b f i DeviceMonitor.obj
 0001:00004c07       ?DoVerbProperties@CComControlBase@ATL@@QAEJPBUtagRECT@@PAUHWND__@@@Z 10005c07 f i DeviceMonitor.obj
 0001:00004d86       ?DoVerbUIActivate@?$IOleObjectImpl@VCOPOSDeviceMonitor@@@ATL@@QAEJPBUtagRECT@@PAUHWND__@@@Z 10005d86 f i DeviceMonitor.obj
 0001:00004dc3       ?DoesVerbActivate@CComControlBase@ATL@@QAEHJ@Z 10005dc3 f i DeviceMonitor.obj
 0001:00004de7       ?DoesVerbUIActivate@CComControlBase@ATL@@QAEHJ@Z 10005de7 f i DeviceMonitor.obj
 0001:00004e1c       ?EndOfVar@CRegParser@ATL@@IAEHXZ 10005e1c f i DeviceMonitor.obj
 0001:00004e3c       ?EscapeSingleQuote@CAtlModule@ATL@@SAXPA_WIPB_W@Z 10005e3c f i DeviceMonitor.obj
 0001:00004e8b       ?FindKey@?$CSimpleMap@PA_WPA_WVCExpansionVectorEqualHelper@ATL@@@ATL@@QBEHABQA_W@Z 10005e8b f i DeviceMonitor.obj
 0001:00004ec2       ?FireTheEvent@?$CProxy_IOPOSEvents@VCOPOSDeviceMonitor@@@@IAEXPAVOposVariant@@IAAJPB_WJ@Z 10005ec2 f i DeviceMonitor.obj
 0001:00004f54       ?FireViewChange@CComControlBase@ATL@@QAEJXZ 10005f54 f i DeviceMonitor.obj
 0001:00004f9d       ?Fire_DataEvent@?$CProxy_IOPOSEvents@VCOPOSDeviceMonitor@@@@QAEXJ@Z 10005f9d f i DeviceMonitor.obj
 0001:00005033       ?Fire_DirectIOEvent@?$CProxy_IOPOSEvents@VCOPOSDeviceMonitor@@@@QAEXJPAJPAPA_W@Z 10006033 f i DeviceMonitor.obj
 0001:0000511f       ?Fire_ErrorEvent@?$CProxy_IOPOSEvents@VCOPOSDeviceMonitor@@@@QAEXJJJPAJ@Z 1000611f f i DeviceMonitor.obj
 0001:00005210       ?Fire_StatusUpdateEvent@?$CProxy_IOPOSEvents@VCOPOSDeviceMonitor@@@@QAEXJ@Z 10006210 f i DeviceMonitor.obj
 0001:000052a6       ?FreeHeap@?$CTempBuffer@E$0BAA@VCCRTAllocator@ATL@@@ATL@@AAEXXZ 100062a6 f i DeviceMonitor.obj
 0001:000052a6       ?FreeHeap@?$CTempBuffer@_W$0EAA@VCCRTAllocator@ATL@@@ATL@@AAEXXZ 100062a6 f i DeviceMonitor.obj
 0001:000052a6       ?FreeHeap@?$CTempBuffer@_W$0BAA@VCCRTAllocator@ATL@@@ATL@@AAEXXZ 100062a6 f i DeviceMonitor.obj
 0001:000052af       ?GetAmbientLocaleID@CComControlBase@ATL@@QAEJAAK@Z 100062af f i DeviceMonitor.obj
 0001:0000530b       ?GetAmbientUserMode@CComControlBase@ATL@@QAEJAAH@Z 1000630b f i DeviceMonitor.obj
 0001:0000537b       ?GetAt@CComDynamicUnkArray@ATL@@QAEPAUIUnknown@@H@Z 1000637b f i DeviceMonitor.obj
 0001:00005397       ?GetClassObject@CComModule@ATL@@QAEJABU_GUID@@0PAPAX@Z 10006397 f i DeviceMonitor.obj
 0001:00005439       ?GetConnMap@COPOSDeviceMonitor@@SAPBU_ATL_CONNMAP_ENTRY@ATL@@PAH@Z 10006439 f i DeviceMonitor.obj
 0001:000054a9       ?GetCookie@CComDynamicUnkArray@ATL@@QAGKPAPAUIUnknown@@@Z 100064a9 f i DeviceMonitor.obj
 0001:000054e1       ?GetIDsOfNames@CComTypeInfoHolder@ATL@@QAEJABU_GUID@@PAPA_WIKPAJ@Z 100064e1 f i DeviceMonitor.obj
 0001:00005601       ?GetKeyAt@?$CSimpleMap@PA_WPA_WVCExpansionVectorEqualHelper@ATL@@@ATL@@QBEAAPA_WH@Z 10006601 f i DeviceMonitor.obj
 0001:00005626       ?GetPagesHelper@?$ISpecifyPropertyPagesImpl@VCOPOSDeviceMonitor@@@ATL@@IAEJPAUtagCAUUID@@PBUATL_PROPMAP_ENTRY@2@@Z 10006626 f i DeviceMonitor.obj
 0001:0000574d       ?GetProperty@?$CComPtr@UIDispatch@@@ATL@@SAJPAUIDispatch@@JPAUtagVARIANT@@@Z 1000674d f i DeviceMonitor.obj
 0001:0000579c       ?GetSizeMax@CComVariant@ATL@@QBEJPAT_ULARGE_INTEGER@@@Z 1000679c f i DeviceMonitor.obj
 0001:0000595e       ?GetTI@CComTypeInfoHolder@ATL@@QAEJK@Z 1000695e f i DeviceMonitor.obj
 0001:00005b3e       ?GetTI@CComTypeInfoHolder@ATL@@QAEJKPAPAUITypeInfo@@@Z 10006b3e f i DeviceMonitor.obj
 0001:00005b7c       ?GetUnknown@CComDynamicUnkArray@ATL@@QAGPAUIUnknown@@K@Z 10006b7c f i DeviceMonitor.obj
 0001:00005b9d       ?GetValueAt@?$CSimpleMap@PA_WPA_WVCExpansionVectorEqualHelper@ATL@@@ATL@@QBEAAPA_WH@Z 10006b9d f i DeviceMonitor.obj
 0001:00005bc3       ?GetZoomInfo@CComControlBase@ATL@@QAEXAAUATL_DRAWINFO@@@Z 10006bc3 f i DeviceMonitor.obj
 0001:00005c56       ?HKeyFromString@CRegParser@ATL@@KAPAUHKEY__@@PA_W@Z 10006c56 f i DeviceMonitor.obj
 0001:00005c84       ?HasSubKeys@CRegParser@ATL@@IAEHPAUHKEY__@@@Z 10006c84 f i DeviceMonitor.obj
 0001:00005cb9       ?IDataObject_GetData@CComControlBase@ATL@@QAEJPAUtagFORMATETC@@PAUtagSTGMEDIUM@@@Z 10006cb9 f i DeviceMonitor.obj
 0001:00005e5b       ?IOleInPlaceObject_InPlaceDeactivate@CComControlBase@ATL@@QAEJXZ 10006e5b f i DeviceMonitor.obj
 0001:00005ee2       ?IOleInPlaceObject_SetObjectRects@CComControlBase@ATL@@QAEJPBUtagRECT@@0@Z 10006ee2 f i DeviceMonitor.obj
 0001:00005faf       ?IOleInPlaceObject_UIDeactivate@CComControlBase@ATL@@QAEJXZ 10006faf f i DeviceMonitor.obj
 0001:00006071       ?IOleObject_Advise@CComControlBase@ATL@@QAEJPAUIAdviseSink@@PAK@Z 10007071 f i DeviceMonitor.obj
 0001:0000609b       ?IOleObject_Close@CComControlBase@ATL@@QAEJK@Z 1000709b f i DeviceMonitor.obj
 0001:0000617f       ?IOleObject_GetClientSite@CComControlBase@ATL@@QAEJPAPAUIOleClientSite@@@Z 1000717f f i DeviceMonitor.obj
 0001:000061a8       ?IOleObject_SetClientSite@CComControlBase@ATL@@QAEJPAUIOleClientSite@@@Z 100071a8 f i DeviceMonitor.obj
 0001:000061e7       ?IOleObject_SetExtent@CComControlBase@ATL@@QAEJKPAUtagSIZE@@@Z 100071e7 f i DeviceMonitor.obj
 0001:00006299       ?IPSI_GetIPersistStreamInit@?$IPersistStorageImpl@VCOPOSDeviceMonitor@@@ATL@@AAEPAUIPersistStreamInit@@XZ 10007299 f i DeviceMonitor.obj
 0001:00006341       ?IPersistStreamInit_Load@?$IPersistStreamInitImpl@VCOPOSDeviceMonitor@@@ATL@@QAEJPAUIStream@@PBUATL_PROPMAP_ENTRY@2@@Z 10007341 f i DeviceMonitor.obj
 0001:000065b7       ?IPersistStreamInit_Save@?$IPersistStreamInitImpl@VCOPOSDeviceMonitor@@@ATL@@QAEJPAUIStream@@HPBUATL_PROPMAP_ENTRY@2@@Z 100075b7 f i DeviceMonitor.obj
 0001:000067a6       ?IQuickActivate_QuickActivate@CComControlBase@ATL@@QAEJPAUtagQACONTAINER@@PAUtagQACONTROL@@@Z 100077a6 f i DeviceMonitor.obj
 0001:000069e8       ?IViewObject_Draw@CComControlBase@ATL@@QAEJKJPAXPAUtagDVTARGETDEVICE@@PAUHDC__@@2PBU_RECTL@@3@Z 100079e8 f i DeviceMonitor.obj
 0001:00006a90       ?InPlaceActivate@CComControlBase@ATL@@QAEJJPBUtagRECT@@@Z 10007a90 f i DeviceMonitor.obj
 0001:00006d02       ?Init@?$CComEnumImpl@UIEnumConnectionPoints@@$1?_GUID_b196b285_bab4_101a_b69c_00aa00341d07@@3U__s_GUID@@BPAUIConnectionPoint@@V?$_CopyInterface@UIConnectionPoint@@@ATL@@@ATL@@QAEJPAPAUIConnectionPoint@@0PAUIUnknown@@W4CComEnumFlags@2@@Z 10007d02 f i DeviceMonitor.obj
 0001:00006dde       ?Init@?$CComEnumImpl@UIEnumConnections@@$1?_GUID_b196b287_bab4_101a_b69c_00aa00341d07@@3U__s_GUID@@BUtagCONNECTDATA@@V?$_Copy@UtagCONNECTDATA@@@ATL@@@ATL@@QAEJPAUtagCONNECTDATA@@0PAUIUnknown@@W4CComEnumFlags@2@@Z 10007dde f i DeviceMonitor.obj
 0001:00006eba       ?Init@CComModule@ATL@@QAEJPAU_ATL_OBJMAP_ENTRY30@2@PAUHINSTANCE__@@PBU_GUID@@@Z 10007eba f i DeviceMonitor.obj
 0001:00006f19       ?Init@CDynamicStdCallThunk2@ATL@@QAEHKPAX@Z 10007f19 f i DeviceMonitor.obj
 0001:00006f44       ?InlineIsEqualUnknown@ATL@@YGHABU_GUID@@@Z 10007f44 f i DeviceMonitor.obj
 0001:00006f6c       ?InternalSetAtIndex@?$CSimpleMap@PA_WPA_WVCExpansionVectorEqualHelper@ATL@@@ATL@@QAEXHABQA_W0@Z 10007f6c f i DeviceMonitor.obj
 0001:00006f96       ?Invoke@CComTypeInfoHolder@ATL@@QAEJPAUIDispatch@@JABU_GUID@@KGPAUtagDISPPARAMS@@PAUtagVARIANT@@PAUtagEXCEPINFO@@PAI@Z 10007f96 f i DeviceMonitor.obj
 0001:00006fd7       ?IsEqualObject@?$CComPtrBase@UITypeInfo@@@ATL@@QAE_NPAUIUnknown@@@Z 10007fd7 f i DeviceMonitor.obj
 0001:00006fd7       ?IsEqualObject@?$CComPtrBase@UIOleClientSite@@@ATL@@QAE_NPAUIUnknown@@@Z 10007fd7 f i DeviceMonitor.obj
 0001:00007043       ?IsSpace@CRegParser@ATL@@IAEH_W@Z 10008043 f i DeviceMonitor.obj
 0001:00007069       ?LoadNameCache@CComTypeInfoHolder@ATL@@QAEJPAUITypeInfo@@@Z 10008069 f i DeviceMonitor.obj
 0001:0000719e       ?Lookup@?$CSimpleMap@PA_WPA_WVCExpansionVectorEqualHelper@ATL@@@ATL@@QBEPA_WABQA_W@Z 1000819e f i DeviceMonitor.obj
 0001:000071c4       ?NextToken@CRegParser@ATL@@IAEJPA_W@Z 100081c4 f i DeviceMonitor.obj
 0001:000072f3       ?OnKillFocus@CComControlBase@ATL@@QAEJIIJAAH@Z 100082f3 f i DeviceMonitor.obj
 0001:0000734e       ?OnMouseActivate@CComControlBase@ATL@@QAEJIIJAAH@Z 1000834e f i DeviceMonitor.obj
 0001:000073bc       ?OnPaint@CComControlBase@ATL@@QAEJIIJAAH@Z 100083bc f i DeviceMonitor.obj
 0001:00007473       ?OnSetFocus@CComControlBase@ATL@@QAEJIIJAAH@Z 10008473 f i DeviceMonitor.obj
 0001:000074fe       ?Open@CRegKey@ATL@@QAEJPAUHKEY__@@PB_WK@Z 100084fe f i DeviceMonitor.obj
 0001:00007553       ?PreProcessBuffer@CRegParser@ATL@@QAEJPA_WPAPA_W@Z 10008553 f i DeviceMonitor.obj
 0001:000077c3       ?ProcessWindowMessage@?$CComControl@VCOPOSDeviceMonitor@@V?$CWindowImpl@VCOPOSDeviceMonitor@@VCWindow@ATL@@V?$CWinTraits@$0FGAAAAAA@$0A@@3@@ATL@@@ATL@@UAEHPAUHWND__@@IIJAAJK@Z 100087c3 f i DeviceMonitor.obj
 0001:0000786b       ?ReadFromStream@CComBSTR@ATL@@QAEJPAUIStream@@@Z 1000886b f i DeviceMonitor.obj
 0001:0000798e       ?ReadFromStream@CComVariant@ATL@@QAEJPAUIStream@@GTClassesAllowedInStream@2@K@Z 1000898e f i DeviceMonitor.obj
 0001:00007b18       ?RecurseDeleteKey@CRegKey@ATL@@QAEJPB_W@Z 10008b18 f i DeviceMonitor.obj
 0001:00007c06       ?RegCreateKeyExW@CAtlTransactionManager@ATL@@QAEJPAUHKEY__@@PB_WKPA_WKKQAU_SECURITY_ATTRIBUTES@@PAPAU3@PAK@Z 10008c06 f i DeviceMonitor.obj
 0001:00007c69       ?RegDeleteKeyW@CAtlTransactionManager@ATL@@QAEJPAUHKEY__@@PB_W@Z 10008c69 f i DeviceMonitor.obj
 0001:00007cbb       ?RegOpenKeyExW@CAtlTransactionManager@ATL@@QAEJPAUHKEY__@@PB_WKKPAPAU3@@Z 10008cbb f i DeviceMonitor.obj
 0001:00007d12       ?Register@_ATL_WNDCLASSINFOW@ATL@@QAEGPAP6GJPAUHWND__@@IIJ@Z@Z 10008d12 f i DeviceMonitor.obj
 0001:00007d32       ?RegisterBuffer@CRegParser@ATL@@QAEJPA_WH@Z 10008d32 f i DeviceMonitor.obj
 0001:00007e79       ?RegisterFromResource@CRegObject@ATL@@IAEJPB_W00H@Z 10008e79 f i DeviceMonitor.obj
 0001:00007faf       ?RegisterServer@?$CAtlModuleT@VCComModule@ATL@@@ATL@@QAEJHPBU_GUID@@@Z 10008faf f i DeviceMonitor.obj
 0001:00007fdd       ?RegisterServer@CComModule@ATL@@QAEJHPBU_GUID@@@Z 10008fdd f i DeviceMonitor.obj
 0001:0000804e       ?RegisterSubkeys@CRegParser@ATL@@IAEJPA_WPAUHKEY__@@HH@Z 1000904e f i DeviceMonitor.obj
 0001:000086aa       ?Remove@CComDynamicUnkArray@ATL@@QAEHK@Z 100096aa f i DeviceMonitor.obj
 0001:000086d3       ?RemoveAll@?$CSimpleMap@PA_WPA_WVCExpansionVectorEqualHelper@ATL@@@ATL@@QAEXXZ 100096d3 f i DeviceMonitor.obj
 0001:000086ff       ?ResourceRegisterSz@CRegObject@ATL@@QAGJPB_W00@Z 100096ff f i DeviceMonitor.obj
 0001:0000872c       ?ResourceUnregisterSz@CRegObject@ATL@@QAGJPB_W00@Z 1000972c f i DeviceMonitor.obj
 0001:00008759       ?SendOnDataChange@CComControlBase@ATL@@QAEJK@Z 10009759 f i DeviceMonitor.obj
 0001:000087a6       ?SetControlFocus@CComControlBase@ATL@@QAEHH@Z 100097a6 f i DeviceMonitor.obj
 0001:00008841       ?SetMultiStringValue@CRegKey@ATL@@QAEJPB_W0@Z 10009841 f i DeviceMonitor.obj
 0001:0000889d       ?SetStringValue@CRegKey@ATL@@QAEJPB_W0K@Z 1000989d f i DeviceMonitor.obj
 0001:000088e6       ?SkipAssignment@CRegParser@ATL@@IAEJPA_W@Z 100098e6 f i DeviceMonitor.obj
 0001:00008952       ?SkipWhiteSpace@CRegParser@ATL@@IAEXXZ 10009952 f i DeviceMonitor.obj
 0001:0000897b       ?StrChrW@CRegParser@ATL@@KAPA_WPA_W_W@Z 1000997b f i DeviceMonitor.obj
 0001:000089b8       ?Term@CAtlModule@ATL@@QAEXXZ 100099b8 f i DeviceMonitor.obj
 0001:00008a35       ?Term@CComModule@ATL@@QAEXXZ 10009a35 f i DeviceMonitor.obj
 0001:00008a8d       ?UnregisterServer@?$CAtlModuleT@VCComModule@ATL@@@ATL@@QAEJHPBU_GUID@@@Z 10009a8d f i DeviceMonitor.obj
 0001:00008ab3       ?UnregisterServer@CComModule@ATL@@QAEJHPBU_GUID@@@Z 10009ab3 f i DeviceMonitor.obj
 0001:00008b24       ?UpdateRegistryFromResource@CAtlModule@ATL@@QAGJIHPAU_ATL_REGMAP_ENTRY@2@@Z 10009b24 f i DeviceMonitor.obj
 0001:00008cef       ?UpdateRegistryFromResource@CAtlModule@ATL@@QAGJPB_WHPAU_ATL_REGMAP_ENTRY@2@@Z 10009cef f i DeviceMonitor.obj
 0001:00008ec0       ?VTFromRegType@CRegParser@ATL@@KAHPB_WAAG@Z 10009ec0 f i DeviceMonitor.obj
 0001:00008f2d       ?WindowProc@?$CWindowImplBaseT@VCWindow@ATL@@V?$CWinTraits@$0FGAAAAAA@$0A@@2@@ATL@@SGJPAUHWND__@@IIJ@Z 10009f2d f i DeviceMonitor.obj
 0001:0000901b       ?WriteToStream@CComBSTR@ATL@@QAEJPAUIStream@@@Z 1000a01b f i DeviceMonitor.obj
 0001:0000907d       ?WriteToStream@CComVariant@ATL@@QAEJPAUIStream@@@Z 1000a07d f i DeviceMonitor.obj
 0001:000091f7       ?WriteToStream@CComVariant@ATL@@QAEJPAUIStream@@G@Z 1000a1f7 f i DeviceMonitor.obj
 0001:00009260       ?_AtlInitialConstruct@?$CComObjectRootEx@VCComMultiThreadModel@ATL@@@ATL@@QAEJXZ 1000a260 f i DeviceMonitor.obj
 0001:00009275       ?_AtlVerifyStackAvailable@_ATL_SAFE_ALLOCA_IMPL@ATL@@YA_NK@Z 1000a275 f i DeviceMonitor.obj
 0001:000092f3       ?atlCreate@?$CWindowImpl@VCOPOSDeviceMonitor@@VCWindow@ATL@@V?$CWinTraits@$0FGAAAAAA@$0A@@3@@ATL@@QAEPAUHWND__@@PAU3@V_U_RECT@2@PB_WKKV_U_MENUorID@2@PAX@Z 1000a2f3 f i DeviceMonitor.obj
 0001:0000933e       ?atlCreate@?$CWindowImplBaseT@VCWindow@ATL@@V?$CWinTraits@$0FGAAAAAA@$0A@@2@@ATL@@QAEPAUHWND__@@PAU3@V_U_RECT@2@PB_WKKV_U_MENUorID@2@GPAX@Z 1000a33e f i DeviceMonitor.obj
 0001:000093da       ?copy@?$_Copy@UtagCONNECTDATA@@@ATL@@SAJPAUtagCONNECTDATA@@PBU3@@Z 1000a3da f i DeviceMonitor.obj
 0001:00009410       ?copy@?$_CopyInterface@UIConnectionPoint@@@ATL@@SAJPAPAUIConnectionPoint@@PBQAU3@@Z 1000a410 f i DeviceMonitor.obj
 0001:0000943e       ?memcpy_s@Checked@ATL@@YAXPAXIPBXI@Z 1000a43e f i DeviceMonitor.obj
 0001:0000945d       ?ocscpy_s@@YA_NPA_WIPB_W@Z 1000a45d f i DeviceMonitor.obj
 0001:000094a7       ?wcscpy_s@Checked@ATL@@YAXPA_WIPB_W@Z 1000a4a7 f i DeviceMonitor.obj
 0001:000094c3       _DllCanUnloadNow@0         1000a4c3 f   DeviceMonitor.obj
 0001:000094cf       _DllGetClassObject@12      1000a4cf f   DeviceMonitor.obj
 0001:000094dd       _DllMain@12                1000a4dd f   DeviceMonitor.obj
 0001:0000951f       _DllRegisterServer@0       1000a51f f   DeviceMonitor.obj
 0001:0000952e       _DllUnregisterServer@0     1000a52e f   DeviceMonitor.obj
 0001:0000953d       _InlineIsEqualGUID         1000a53d f i DeviceMonitor.obj
 0001:0000956d       ___local_stdio_printf_options 1000a56d f i DeviceMonitor.obj
 0001:00009573       __vswprintf_s_l            1000a573 f i DeviceMonitor.obj
 0001:00009620       _swprintf_s                1000a620 f i DeviceMonitor.obj
 0001:0000963c       ??0?$CComControl@VCOPOSDeviceMonitor@@V?$CWindowImpl@VCOPOSDeviceMonitor@@VCWindow@ATL@@V?$CWinTraits@$0FGAAAAAA@$0A@@3@@ATL@@@ATL@@QAE@XZ 1000a63c f i DeviceMonitorImpl.obj
 0001:00009663       ??0?$CProxy_IOPOSEvents@VCOPOSDeviceMonitor@@@@QAE@XZ 1000a663 f i DeviceMonitorImpl.obj
 0001:00009686       ??0CComControlBase@ATL@@QAE@AAPAUHWND__@@@Z 1000a686 f i DeviceMonitorImpl.obj
 0001:000096d6       ??0COPOSDeviceMonitor@@QAE@XZ 1000a6d6 f   DeviceMonitorImpl.obj
 0001:0000970c       ??1?$CComControl@VCOPOSDeviceMonitor@@V?$CWindowImpl@VCOPOSDeviceMonitor@@VCWindow@ATL@@V?$CWinTraits@$0FGAAAAAA@$0A@@3@@ATL@@@ATL@@UAE@XZ 1000a70c f i DeviceMonitorImpl.obj
 0001:00009725       ??1?$IConnectionPointImpl@VCOPOSDeviceMonitor@@$1?DIID__IOPOSDeviceMonitorEvents@@3U_GUID@@BVCComDynamicUnkArray@ATL@@@ATL@@QAE@XZ 1000a725 f i DeviceMonitorImpl.obj
 0001:00009725       ??1?$IConnectionPointImpl@VCOPOSDeviceMonitor@@$1?IID_IPropertyNotifySink@@3U_GUID@@BVCComDynamicUnkArray@ATL@@@ATL@@QAE@XZ 1000a725 f i DeviceMonitorImpl.obj
 0001:00009762       ??1CComControlBase@ATL@@UAE@XZ 1000a762 f i DeviceMonitorImpl.obj
 0001:000097c5       ??1COPOSDeviceMonitor@@UAE@XZ 1000a7c5 f   DeviceMonitorImpl.obj
 0001:0000980d       ?AddMonitoringDevice@COPOSDeviceMonitor@@UAGJPA_WJJJJPAJ@Z 1000a80d f   DeviceMonitorImpl.obj
 0001:000098d0       ?CheckHealth@COPOSDeviceMonitor@@UAGJJPAJ@Z 1000a8d0 f   DeviceMonitorImpl.obj
 0001:0000991f       ?ClaimDevice@COPOSDeviceMonitor@@UAGJJPAJ@Z 1000a91f f   DeviceMonitorImpl.obj
 0001:00009994       ?ClearInput@COPOSDeviceMonitor@@UAGJPAJ@Z 1000a994 f   DeviceMonitorImpl.obj
 0001:000099af       ?ClearInputProperties@COPOSDeviceMonitor@@UAGJPAJ@Z 1000a9af f   DeviceMonitorImpl.obj
 0001:000099ca       ?ClearMonitoringDevice@COPOSDeviceMonitor@@UAGJPAJ@Z 1000a9ca f   DeviceMonitorImpl.obj
 0001:000099e5       ?Close@COPOSDeviceMonitor@@UAGJPAJ@Z 1000a9e5 f   DeviceMonitorImpl.obj
 0001:00009a53       ?CompareFirmwareVersion@COPOSDeviceMonitor@@UAGJPA_WPAJ1@Z 1000aa53 f   DeviceMonitorImpl.obj
 0001:00009ad3       ?DeleteMonitoringDevice@COPOSDeviceMonitor@@UAGJPA_WPAJ@Z 1000aad3 f   DeviceMonitorImpl.obj
 0001:00009b2a       ?DirectIO@COPOSDeviceMonitor@@UAGJJPAJPAPA_W0@Z 1000ab2a f   DeviceMonitorImpl.obj
 0001:00009bd8       ?DoInvoke@COPOSDeviceMonitor@@IAEJJPAVOposVariant@@IHPAJ_N@Z 1000abd8 f   DeviceMonitorImpl.obj
 0001:00009cb4       ?EventClose@COPOSDeviceMonitor@@IAEXXZ 1000acb4 f i DeviceMonitorImpl.obj
 0001:00009ce7       ?EventInit@COPOSDeviceMonitor@@IAEJXZ 1000ace7 f i DeviceMonitorImpl.obj
 0001:00009dbb       ?EventUninit@COPOSDeviceMonitor@@IAEXXZ 1000adbb f i DeviceMonitorImpl.obj
 0001:00009e0d       ?EventWindowProc@COPOSDeviceMonitor@@IAGJIIJ@Z 1000ae0d f i DeviceMonitorImpl.obj
 0001:00009ee1       ?FinalConstruct@COPOSDeviceMonitor@@QAEJXZ 1000aee1 f   DeviceMonitorImpl.obj
 0001:00009f1a       ?FireEventCleanup@COPOSDeviceMonitor@@IAEXXZ 1000af1a f i DeviceMonitorImpl.obj
 0001:00009f30       ?FireEventSetup@COPOSDeviceMonitor@@IAE_NXZ 1000af30 f i DeviceMonitorImpl.obj
 0001:00009f64       ?FreezeEvents@COPOSDeviceMonitor@@MAGJH@Z 1000af64 f   DeviceMonitorImpl.obj
 0001:00009fbd       ?GetDeviceValue@COPOSDeviceMonitor@@UAGJPA_WPAJ1@Z 1000afbd f   DeviceMonitorImpl.obj
 0001:0000a03d       ?GetOposProp@COPOSDeviceMonitor@@IAEJJPAFJ@Z 1000b03d f   DeviceMonitorImpl.obj
 0001:0000a060       ?GetOposProp@COPOSDeviceMonitor@@IAEJJPAJJ@Z 1000b060 f   DeviceMonitorImpl.obj
 0001:0000a12f       ?GetOposProp@COPOSDeviceMonitor@@IAEJJPAPA_WJ@Z 1000b12f f   DeviceMonitorImpl.obj
 0001:0000a20b       ?OnDraw@COPOSDeviceMonitor@@MAEJAAUATL_DRAWINFO@@@Z 1000b20b f   DeviceMonitorImpl.obj
 0001:0000a2ab       ?Open@COPOSDeviceMonitor@@UAGJPA_WPAJ@Z 1000b2ab f   DeviceMonitorImpl.obj
 0001:0000aae6       ?ReleaseDevice@COPOSDeviceMonitor@@UAGJPAJ@Z 1000bae6 f   DeviceMonitorImpl.obj
 0001:0000ab35       ?ResetStatistics@COPOSDeviceMonitor@@UAGJPA_WPAJ@Z 1000bb35 f   DeviceMonitorImpl.obj
 0001:0000ab8c       ?RetrieveStatistics@COPOSDeviceMonitor@@UAGJPAPA_WPAJ@Z 1000bb8c f   DeviceMonitorImpl.obj
 0001:0000abe3       ?SOProcessID@COPOSDeviceMonitor@@UAGJPAJ@Z 1000bbe3 f   DeviceMonitorImpl.obj
 0001:0000abf7       ?SetCOFreezeEvents@COPOSDeviceMonitor@@IAEXF@Z 1000bbf7 f   DeviceMonitorImpl.obj
 0001:0000ac97       ?SetOposProp@COPOSDeviceMonitor@@IAEJJJJ@Z 1000bc97 f   DeviceMonitorImpl.obj
 0001:0000ad8e       ?UpdateFirmware@COPOSDeviceMonitor@@UAGJPA_WPAJ@Z 1000bd8e f   DeviceMonitorImpl.obj
 0001:0000ade5       ?UpdateStatistics@COPOSDeviceMonitor@@UAGJPA_WPAJ@Z 1000bde5 f   DeviceMonitorImpl.obj
 0001:0000ae3c       ?get_AutoDisable@COPOSDeviceMonitor@@UAGJPAF@Z 1000be3c f   DeviceMonitorImpl.obj
 0001:0000ae52       ?get_BinaryConversion@COPOSDeviceMonitor@@UAGJPAJ@Z 1000be52 f   DeviceMonitorImpl.obj
 0001:0000ae68       ?get_CapCompareFirmwareVersion@COPOSDeviceMonitor@@UAGJPAF@Z 1000be68 f   DeviceMonitorImpl.obj
 0001:0000ae81       ?get_CapPowerReporting@COPOSDeviceMonitor@@UAGJPAJ@Z 1000be81 f   DeviceMonitorImpl.obj
 0001:0000ae9a       ?get_CapStatisticsReporting@COPOSDeviceMonitor@@UAGJPAF@Z 1000be9a f   DeviceMonitorImpl.obj
 0001:0000aeb3       ?get_CapUpdateFirmware@COPOSDeviceMonitor@@UAGJPAF@Z 1000beb3 f   DeviceMonitorImpl.obj
 0001:0000aecc       ?get_CapUpdateStatistics@COPOSDeviceMonitor@@UAGJPAF@Z 1000becc f   DeviceMonitorImpl.obj
 0001:0000aee5       ?get_CheckHealthText@COPOSDeviceMonitor@@UAGJPAPA_W@Z 1000bee5 f   DeviceMonitorImpl.obj
 0001:0000aefe       ?get_Claimed@COPOSDeviceMonitor@@UAGJPAF@Z 1000befe f   DeviceMonitorImpl.obj
 0001:0000af14       ?get_ControlObjectDescription@COPOSDeviceMonitor@@UAGJPAPA_W@Z 1000bf14 f   DeviceMonitorImpl.obj
 0001:0000af62       ?get_ControlObjectVersion@COPOSDeviceMonitor@@UAGJPAJ@Z 1000bf62 f   DeviceMonitorImpl.obj
 0001:0000af75       ?get_DataCount@COPOSDeviceMonitor@@UAGJPAJ@Z 1000bf75 f   DeviceMonitorImpl.obj
 0001:0000af8b       ?get_DataEventEnabled@COPOSDeviceMonitor@@UAGJPAF@Z 1000bf8b f   DeviceMonitorImpl.obj
 0001:0000afa1       ?get_DeviceData@COPOSDeviceMonitor@@UAGJPAPA_W@Z 1000bfa1 f   DeviceMonitorImpl.obj
 0001:0000afba       ?get_DeviceDescription@COPOSDeviceMonitor@@UAGJPAPA_W@Z 1000bfba f   DeviceMonitorImpl.obj
 0001:0000afd3       ?get_DeviceEnabled@COPOSDeviceMonitor@@UAGJPAF@Z 1000bfd3 f   DeviceMonitorImpl.obj
 0001:0000afe9       ?get_DeviceList@COPOSDeviceMonitor@@UAGJPAPA_W@Z 1000bfe9 f   DeviceMonitorImpl.obj
 0001:0000b002       ?get_DeviceName@COPOSDeviceMonitor@@UAGJPAPA_W@Z 1000c002 f   DeviceMonitorImpl.obj
 0001:0000b01b       ?get_FreezeEvents@COPOSDeviceMonitor@@UAGJPAF@Z 1000c01b f   DeviceMonitorImpl.obj
 0001:0000b031       ?get_MonitoringDeviceList@COPOSDeviceMonitor@@UAGJPAPA_W@Z 1000c031 f   DeviceMonitorImpl.obj
 0001:0000b04a       ?get_OpenResult@COPOSDeviceMonitor@@UAGJPAJ@Z 1000c04a f   DeviceMonitorImpl.obj
 0001:0000b061       ?get_PowerNotify@COPOSDeviceMonitor@@UAGJPAJ@Z 1000c061 f   DeviceMonitorImpl.obj
 0001:0000b077       ?get_PowerState@COPOSDeviceMonitor@@UAGJPAJ@Z 1000c077 f   DeviceMonitorImpl.obj
 0001:0000b08d       ?get_ResultCode@COPOSDeviceMonitor@@UAGJPAJ@Z 1000c08d f   DeviceMonitorImpl.obj
 0001:0000b0cb       ?get_ResultCodeExtended@COPOSDeviceMonitor@@UAGJPAJ@Z 1000c0cb f   DeviceMonitorImpl.obj
 0001:0000b0e1       ?get_ServiceObjectDescription@COPOSDeviceMonitor@@UAGJPAPA_W@Z 1000c0e1 f   DeviceMonitorImpl.obj
 0001:0000b0fa       ?get_ServiceObjectVersion@COPOSDeviceMonitor@@UAGJPAJ@Z 1000c0fa f   DeviceMonitorImpl.obj
 0001:0000b110       ?get_State@COPOSDeviceMonitor@@UAGJPAJ@Z 1000c110 f   DeviceMonitorImpl.obj
 0001:0000b13c       ?put_AutoDisable@COPOSDeviceMonitor@@UAGJF@Z 1000c13c f   DeviceMonitorImpl.obj
 0001:0000b159       ?put_BinaryConversion@COPOSDeviceMonitor@@UAGJJ@Z 1000c159 f   DeviceMonitorImpl.obj
 0001:0000b16f       ?put_DataEventEnabled@COPOSDeviceMonitor@@UAGJF@Z 1000c16f f   DeviceMonitorImpl.obj
 0001:0000b18c       ?put_DeviceEnabled@COPOSDeviceMonitor@@UAGJF@Z 1000c18c f   DeviceMonitorImpl.obj
 0001:0000b1a9       ?put_FreezeEvents@COPOSDeviceMonitor@@UAGJF@Z 1000c1a9 f   DeviceMonitorImpl.obj
 0001:0000b1f5       ?put_PowerNotify@COPOSDeviceMonitor@@UAGJJ@Z 1000c1f5 f   DeviceMonitorImpl.obj
 0001:0000b20b       ?s_EventWindowProc@COPOSDeviceMonitor@@KGJPAUHWND__@@IIJ@Z 1000c20b f i DeviceMonitorImpl.obj
 0001:0000b25d       ??_U@YAPAXI@Z              1000c25d f   LIBCMT:new_array.obj
 0001:0000b266       ??3@YAXPAXI@Z              1000c266 f   LIBCMT:delete_scalar_size.obj
 0001:0000b274       ??_V@YAXPAX@Z              1000c274 f   LIBCMT:delete_array.obj
 0001:0000b279       ??_V@YAXPAXI@Z             1000c279 f   LIBCMT:delete_array_size.obj
 0001:0000b2cb       ___scrt_acquire_startup_lock 1000c2cb f   LIBCMT:utility.obj
 0001:0000b2fd       ___scrt_dllmain_after_initialize_c 1000c2fd f   LIBCMT:utility.obj
 0001:0000b328       ___scrt_dllmain_before_initialize_c 1000c328 f   LIBCMT:utility.obj
 0001:0000b336       ___scrt_dllmain_crt_thread_attach 1000c336 f   LIBCMT:utility.obj
 0001:0000b355       ___scrt_dllmain_crt_thread_detach 1000c355 f   LIBCMT:utility.obj
 0001:0000b362       ___scrt_dllmain_exception_filter 1000c362 f   LIBCMT:utility.obj
 0001:0000b396       ___scrt_dllmain_uninitialize_c 1000c396 f   LIBCMT:utility.obj
 0001:0000b3b9       ___scrt_dllmain_uninitialize_critical 1000c3b9 f   LIBCMT:utility.obj
 0001:0000b3c6       ___scrt_initialize_crt     1000c3c6 f   LIBCMT:utility.obj
 0001:0000b3ff       ___scrt_initialize_onexit_tables 1000c3ff f   LIBCMT:utility.obj
 0001:0000b486       ___scrt_is_nonwritable_in_current_image 1000c486 f   LIBCMT:utility.obj
 0001:0000b51a       ___scrt_release_startup_lock 1000c51a f   LIBCMT:utility.obj
 0001:0000b537       ___scrt_uninitialize_crt   1000c537 f   LIBCMT:utility.obj
 0001:0000b55f       __onexit                   1000c55f f   LIBCMT:utility.obj
 0001:0000b58c       _atexit                    1000c58c f   LIBCMT:utility.obj
 0001:0000b5a1       ??3@YAXPAX@Z               1000c5a1 f   LIBCMT:delete_scalar.obj
 0001:0000b66b       __Init_thread_footer       1000c66b f   LIBCMT:thread_safe_statics.obj
 0001:0000b6b5       __Init_thread_header       1000c6b5 f   LIBCMT:thread_safe_statics.obj
 0001:0000b707       __Init_thread_notify       1000c707 f   LIBCMT:thread_safe_statics.obj
 0001:0000b73d       __Init_thread_wait         1000c73d f   LIBCMT:thread_safe_statics.obj
 0001:0000b78b       ___raise_securityfailure   1000c78b f   LIBCMT:gs_report.obj
 0001:0000b7b3       ___report_gsfailure        1000c7b3 f   LIBCMT:gs_report.obj
 0001:0000b8ad       ___report_rangecheckfailure 1000c8ad f   LIBCMT:gs_report.obj
 0001:0000b8b9       ___report_securityfailure  1000c8b9 f   LIBCMT:gs_report.obj
 0001:0000b988       ??2@YAPAXIABUnothrow_t@std@@@Z 1000c988 f   LIBCMT:new_scalar_nothrow.obj
 0001:0000b9dd       ??_U@YAPAXIABUnothrow_t@std@@@Z 1000c9dd f   LIBCMT:new_array_nothrow.obj
 0001:0000b9e6       @__security_check_cookie@4 1000c9e6 f   LIBCMT:secchk.obj
 0001:0000ba00       __SEH_prolog4_GS           1000ca00 f   LIBCMT:sehprolg4gs.obj
 0001:0000ba50       __alloca_probe_16          1000ca50 f   LIBCMT:alloca16.obj
 0001:0000ba66       __alloca_probe_8           1000ca66     LIBCMT:alloca16.obj
 0001:0000ba80       __chkstk                   1000ca80 f   LIBCMT:chkstk.obj
 0001:0000ba80       __alloca_probe             1000ca80 f   LIBCMT:chkstk.obj
 0001:0000bdeb       __DllMainCRTStartup@12     1000cdeb f   LIBCMT:dll_dllmain.obj
 0001:0000be0e       ??2@YAPAXI@Z               1000ce0e f   LIBCMT:new_scalar.obj
 0001:0000be3e       ___isa_available_init      1000ce3e f   LIBCMT:cpu_disp.obj
 0001:0000c012       ___scrt_is_ucrt_dll_in_use 1000d012 f   LIBCMT:ucrt_detection.obj
 0001:0000c01e       ___scrt_fastfail           1000d01e f   LIBCMT:utility_desktop.obj
 0001:0000c139       __crt_debugger_hook        1000d139 f   LIBCMT:utility_desktop.obj
 0001:0000c150       __SEH_prolog4              1000d150 f   LIBCMT:sehprolg4.obj
 0001:0000c195       @_guard_check_icall_nop@4  1000d195 f i LIBCMT:guard_support.obj
 0001:0000c1e5       ___security_init_cookie    1000d1e5 f   LIBCMT:gs_support.obj
 0001:0000c230       ?__scrt_initialize_type_info@@YAXXZ 1000d230 f   LIBCMT:tncleanup.obj
 0001:0000c23c       ?__scrt_uninitialize_type_info@@YAXXZ 1000d23c f   LIBCMT:tncleanup.obj
 0001:0000c248       ___local_stdio_scanf_options 1000d248 f i LIBCMT:default_local_stdio_options.obj
 0001:0000c24e       ___scrt_initialize_default_local_stdio_options 1000d24e f   LIBCMT:default_local_stdio_options.obj
 0001:0000c26b       ___scrt_get_dyn_tls_init_callback 1000d26b f   LIBCMT:dyn_tls_init.obj
 0001:0000c271       __RTC_Initialize           1000d271 f   LIBCMT:initsect.obj
 0001:0000c29d       __RTC_Terminate            1000d29d f   LIBCMT:initsect.obj
 0001:0000c2c9       ??0bad_alloc@std@@QAE@ABV01@@Z 1000d2c9 f i LIBCMT:throw_bad_alloc.obj
 0001:0000c2e4       ??0bad_alloc@std@@QAE@XZ   1000d2e4 f i LIBCMT:throw_bad_alloc.obj
 0001:0000c2fc       ??0bad_array_new_length@std@@QAE@ABV01@@Z 1000d2fc f i LIBCMT:throw_bad_alloc.obj
 0001:0000c317       ??0bad_array_new_length@std@@QAE@XZ 1000d317 f i LIBCMT:throw_bad_alloc.obj
 0001:0000c32f       ??0exception@std@@QAE@ABV01@@Z 1000d32f f i LIBCMT:throw_bad_alloc.obj
 0001:0000c35b       ??1bad_exception@std@@UAE@XZ 1000d35b f i libvcruntime:frame.obj
 0001:0000c35b       ??1bad_array_new_length@std@@UAE@XZ 1000d35b f i LIBCMT:throw_bad_alloc.obj
 0001:0000c35b       ??1bad_alloc@std@@UAE@XZ   1000d35b f i LIBCMT:throw_bad_alloc.obj
 0001:0000c36c       ??_Gbad_exception@std@@UAEPAXI@Z 1000d36c f i libvcruntime:frame.obj
 0001:0000c36c       ??_Ebad_array_new_length@std@@UAEPAXI@Z 1000d36c f i LIBCMT:throw_bad_alloc.obj
 0001:0000c36c       ??_Ebad_alloc@std@@UAEPAXI@Z 1000d36c f i LIBCMT:throw_bad_alloc.obj
 0001:0000c36c       ??_Gbad_array_new_length@std@@UAEPAXI@Z 1000d36c f i LIBCMT:throw_bad_alloc.obj
 0001:0000c36c       ??_Ebad_exception@std@@UAEPAXI@Z 1000d36c f i libvcruntime:frame.obj
 0001:0000c36c       ??_Gbad_alloc@std@@UAEPAXI@Z 1000d36c f i LIBCMT:throw_bad_alloc.obj
 0001:0000c36c       ??_Eexception@std@@UAEPAXI@Z 1000d36c f i LIBCMT:throw_bad_alloc.obj
 0001:0000c36c       ??_Gexception@std@@UAEPAXI@Z 1000d36c f i LIBCMT:throw_bad_alloc.obj
 0001:0000c399       ?__scrt_throw_std_bad_alloc@@YAXXZ 1000d399 f   LIBCMT:throw_bad_alloc.obj
 0001:0000c3b6       ?__scrt_throw_std_bad_array_new_length@@YAXXZ 1000d3b6 f   LIBCMT:throw_bad_alloc.obj
 0001:0000c3d3       ?what@exception@std@@UBEPBDXZ 1000d3d3 f i LIBCMT:throw_bad_alloc.obj
 0001:0000c3e0       ??_Etype_info@@UAEPAXI@Z   1000d3e0 f i LIBCMT:std_type_info_static.obj
 0001:0000c3e0       ??_Gtype_info@@UAEPAXI@Z   1000d3e0 f i LIBCMT:std_type_info_static.obj
 0001:0000c403       ??0CAtlBaseModule@ATL@@QAE@XZ 1000d403 f   atls:atlbase.obj
 0001:0000c456       ??0_ATL_BASE_MODULE70@ATL@@QAE@XZ 1000d456 f i atls:atlbase.obj
 0001:0000c479       ??1CAtlBaseModule@ATL@@QAE@XZ 1000d479 f   atls:atlbase.obj
 0001:0000c566       ?Init@_stdcallthunk@ATL@@QAEHKPAX@Z 1000d566 f i atls:atlthunk.obj
 0001:0000c59b       ?__AllocStdCallThunk_cmn@@YAPAXXZ 1000d59b f   atls:atlthunk.obj
 0001:0000c661       ?__FreeStdCallThunk_cmn@@YAXPAX@Z 1000d661 f   atls:atlthunk.obj
 0001:0000c6fd       _AtlThunk_AllocateData@0   1000d6fd f   atls:atlthunk.obj
 0001:0000c762       _AtlThunk_DataToCode@4     1000d762 f   atls:atlthunk.obj
 0001:0000c7a9       _AtlThunk_FreeData@4       1000d7a9 f   atls:atlthunk.obj
 0001:0000c7ff       _AtlThunk_InitData@12      1000d7ff f   atls:atlthunk.obj
 0001:0000c84e       __get_purecall_handler     1000d84e f   libvcruntime:purevirt.obj
 0001:0000c855       __purecall                 1000d855 f   libvcruntime:purevirt.obj
 0001:0000c871       _wcsstr                    1000d871 f   libvcruntime:wcsstr.obj
 0001:0000cb30       __except_handler4          1000db30 f   libvcruntime:chandler4.obj
 0001:0000cc8e       _memcmp                    1000dc8e f   libvcruntime:memcmp.obj
 0001:0000e310       _memmove                   1000f310 f   libvcruntime:memmove.obj
 0001:0000e310       _memcpy                    1000f310 f   libvcruntime:memcpy.obj
 0001:0000e890       _memset                    1000f890 f   libvcruntime:memset.obj
 0001:0000e9ea       ___vcrt_initialize         1000f9ea f   libvcruntime:initialization.obj
 0001:0000ea09       ___vcrt_thread_attach      1000fa09 f   libvcruntime:initialization.obj
 0001:0000ea14       ___vcrt_thread_detach      1000fa14 f   libvcruntime:initialization.obj
 0001:0000ea1f       ___vcrt_uninitialize       1000fa1f f   libvcruntime:initialization.obj
 0001:0000ea36       ___vcrt_uninitialize_critical 1000fa36 f   libvcruntime:initialization.obj
 0001:0000ea3e       ?GetRangeOfTrysToCheck@__FrameHandler3@@SA?AU?$pair@Viterator@TryBlockMap@__FrameHandler3@@V123@@std@@AAVTryBlockMap@1@HPAXPBU_s_FuncInfo@@H@Z 1000fa3e f   libvcruntime:trnsctrl.obj
 0001:0000eaae       ?_CallCatchBlock2@@YAPAXPAUEHRegistrationNode@@PBU_s_FuncInfo@@PAXHK@Z 1000faae f   libvcruntime:trnsctrl.obj
 0001:0000eb0b       ?_CallSETranslator@@YAHPAUEHExceptionRecord@@PAUEHRegistrationNode@@PAX2PBU_s_FuncInfo@@H1@Z 1000fb0b f   libvcruntime:trnsctrl.obj
 0001:0000ec01       ?_JumpToContinuation@@YGXPAXPAUEHRegistrationNode@@@Z 1000fc01 f   libvcruntime:trnsctrl.obj
 0001:0000ec31       ?_UnwindNestedFrames@@YGXPAUEHRegistrationNode@@PAUEHExceptionRecord@@@Z 1000fc31 f   libvcruntime:trnsctrl.obj
 0001:0000ec84       __CatchGuardHandler        1000fc84 f   libvcruntime:trnsctrl.obj
 0001:0000ecb5       __CreateFrameInfo          1000fcb5 f   libvcruntime:trnsctrl.obj
 0001:0000ecd9       __FindAndUnlinkFrame       1000fcd9 f   libvcruntime:trnsctrl.obj
 0001:0000ed21       __TranslatorGuardHandler   1000fd21 f   libvcruntime:trnsctrl.obj
 0001:0000edbe       ___CxxFrameHandler3        1000fdbe f   libvcruntime:trnsctrl.obj
 0001:0000edf4       ___DestructExceptionObject 1000fdf4 f   libvcruntime:ehhelpers.obj
 0001:0000ee95       ?_CallMemberFunction0@@YGXQAX0@Z 1000fe95 f i libvcruntime:ehhelpers.obj
 0001:0000eefa       __IsExceptionObjectToBeDestroyed 1000fefa f   libvcruntime:ehhelpers.obj
 0001:0000ef20       ___AdjustPointer           1000ff20 f   libvcruntime:ehhelpers.obj
 0001:0000ef45       ___FrameUnwindFilter       1000ff45 f   libvcruntime:ehhelpers.obj
 0001:0000ef9b       ___std_terminate           1000ff9b f   libvcruntime:ehhelpers.obj
 0001:0000efa0       ___std_type_info_compare   1000ffa0 f   libvcruntime:std_type_info.obj
 0001:0000efdc       ___std_type_info_destroy_list 1000ffdc f   libvcruntime:std_type_info.obj
 0001:0000efff       ___std_exception_copy      1000ffff f   libvcruntime:std_exception.obj
 0001:0000f062       ___std_exception_destroy   10010062 f   libvcruntime:std_exception.obj
 0001:0000f081       __CxxThrowException@8      10010081 f   libvcruntime:throw.obj
 0001:0000f0f0       __local_unwind4            100100f0 f   libvcruntime:exsup4.obj
 0001:0000f1e0       @_EH4_CallFilterFunc@8     100101e0 f   libvcruntime:exsup4.obj
 0001:0000f200       @_EH4_TransferToHandler@8  10010200 f   libvcruntime:exsup4.obj
 0001:0000f220       @_EH4_GlobalUnwind2@8      10010220 f   libvcruntime:exsup4.obj
 0001:0000f240       @_EH4_LocalUnwind@16       10010240 f   libvcruntime:exsup4.obj
 0001:0000f257       ___except_validate_context_record 10010257 f   libvcruntime:jbcxrval.obj
 0001:0000f287       ___vcrt_freefls@4          10010287 f   libvcruntime:per_thread_data.obj
 0001:0000f2a3       ___vcrt_freeptd            100102a3 f   libvcruntime:per_thread_data.obj
 0001:0000f2d9       ___vcrt_getptd             100102d9 f   libvcruntime:per_thread_data.obj
 0001:0000f2e7       ___vcrt_getptd_noexit      100102e7 f   libvcruntime:per_thread_data.obj
 0001:0000f379       ___vcrt_initialize_ptd     10010379 f   libvcruntime:per_thread_data.obj
 0001:0000f3ac       ___vcrt_uninitialize_ptd   100103ac f   libvcruntime:per_thread_data.obj
 0001:0000f3c7       ___vcrt_initialize_locks   100103c7 f   libvcruntime:locks.obj
 0001:0000f403       ___vcrt_uninitialize_locks 10010403 f   libvcruntime:locks.obj
 0001:0000fb64       ??$TypeMatchHelper@V__FrameHandler3@@@@YAHPBU_s_HandlerType@@PBU_s_CatchableType@@PBU_s_ThrowInfo@@@Z 10010b64 f i libvcruntime:frame.obj
 0001:0000fbf2       ??$__InternalCxxFrameHandler@V__FrameHandler3@@@@YA?AW4_EXCEPTION_DISPOSITION@@PAUEHExceptionRecord@@PAUEHRegistrationNode@@PAU_CONTEXT@@PAXPBU_s_FuncInfo@@H1E@Z 10010bf2 f i libvcruntime:frame.obj
 0001:0000fcf4       ??0bad_exception@std@@QAE@ABV01@@Z 10010cf4 f i libvcruntime:frame.obj
 0001:0000fd0f       ??0bad_exception@std@@QAE@XZ 10010d0f f i libvcruntime:frame.obj
 0001:0000fd27       ??8type_info@@QBE_NABV0@@Z 10010d27 f i libvcruntime:frame.obj
 0001:0000ff9e       ?FrameUnwindToEmptyState@__FrameHandler3@@SAXPAUEHRegistrationNode@@PAXPBU_s_FuncInfo@@@Z 10010f9e f   libvcruntime:frame.obj
 0001:0000ffb6       ?FrameUnwindToState@__FrameHandler3@@SAXPAUEHRegistrationNode@@PAXPBU_s_FuncInfo@@H@Z 10010fb6 f   libvcruntime:frame.obj
 0001:00010138       ?_CallMemberFunction1@@YGXQAX00@Z 10011138 f i libvcruntime:frame.obj
 0001:00010148       ?_CallMemberFunction2@@YGXQAX00H@Z 10011148 f i libvcruntime:frame.obj
 0001:0001015b       ?getESTypes@__FrameHandler3@@SAPBU_s_ESTypeList@@PBU_s_FuncInfo@@@Z 1001115b f i libvcruntime:frame.obj
 0001:00010170       __CallSettingFrame@12      10011170 f   libvcruntime:lowhelpr.obj
 0001:00010197       __NLG_Return               10011197     libvcruntime:lowhelpr.obj
 0001:000101c0       __NLG_Notify1              100111c0 f   libvcruntime:exsup.obj
 0001:000101d0       __NLG_Notify               100111d0 f   libvcruntime:exsup.obj
 0001:000101e7       __NLG_Dispatch2            100111e7     libvcruntime:exsup.obj
 0001:000101e7       __NLG_Dispatch             100111e7     libvcruntime:exsup.obj
 0001:000101f0       __NLG_Call                 100111f0 f   libvcruntime:exsup.obj
 0001:000101f2       __NLG_Return2              100111f2     libvcruntime:exsup.obj
 0001:000102d8       ___vcrt_FlsAlloc           100112d8 f   libvcruntime:winapi_downlevel.obj
 0001:00010313       ___vcrt_FlsFree            10011313 f   libvcruntime:winapi_downlevel.obj
 0001:0001034e       ___vcrt_FlsGetValue        1001134e f   libvcruntime:winapi_downlevel.obj
 0001:00010389       ___vcrt_FlsSetValue        10011389 f   libvcruntime:winapi_downlevel.obj
 0001:000103c7       ___vcrt_InitializeCriticalSectionEx 100113c7 f   libvcruntime:winapi_downlevel.obj
 0001:0001040e       _unexpected                1001140e f   libvcruntime:unexpected.obj
 0001:0001042b       ?GetCurrentState@__FrameHandler3@@SAHPAUEHRegistrationNode@@PAXPBU_s_FuncInfo@@@Z 1001142b f   libvcruntime:ehstate.obj
 0001:00010448       ?SetState@__FrameHandler3@@SAXPAUEHRegistrationNode@@PBU_s_FuncInfo@@H@Z 10011448 f   libvcruntime:ehstate.obj
 0001:00010456       _free                      10011456 f   libucrt:free.obj
 0001:00010471       ??0__crt_cached_ptd_host@@QAE@QAU__crt_locale_pointers@@@Z 10011471 f i libucrt:invalid_parameter.obj
 0001:000104b9       ??1__crt_cached_ptd_host@@QAE@XZ 100114b9 f i libucrt:invalid_parameter.obj
 0001:000104f5       ?check_synchronize_global_state_index@__crt_cached_ptd_host@@AAEIXZ 100114f5 f i libucrt:invalid_parameter.obj
 0001:0001051e       ?force_synchronize_per_thread_data@__crt_cached_ptd_host@@AAEPAU__acrt_ptd@@XZ 1001151e f i libucrt:invalid_parameter.obj
 0001:00010564       ?get_raw_ptd@__crt_cached_ptd_host@@QAEPAU__acrt_ptd@@XZ 10011564 f i libucrt:invalid_parameter.obj
 0001:00010581       ___acrt_call_reportfault   10011581 f   libucrt:invalid_parameter.obj
 0001:000106ba       ___acrt_initialize_invalid_parameter_handler 100116ba f   libucrt:invalid_parameter.obj
 0001:000106c9       __invalid_parameter        100116c9 f   libucrt:invalid_parameter.obj
 0001:00010700       __invalid_parameter_internal 10011700 f   libucrt:invalid_parameter.obj
 0001:0001077d       __invalid_parameter_noinfo 1001177d f   libucrt:invalid_parameter.obj
 0001:0001078d       __invoke_watson            1001178d f   libucrt:invalid_parameter.obj
 0001:000107c1       ___acrt_errno_from_os_error 100117c1 f   libucrt:errno.obj
 0001:00010804       ___acrt_errno_map_os_error 10011804 f   libucrt:errno.obj
 0001:00010827       ___acrt_errno_map_os_error_ptd 10011827 f   libucrt:errno.obj
 0001:0001084b       ___doserrno                1001184b f   libucrt:errno.obj
 0001:0001085e       __errno                    1001185e f   libucrt:errno.obj
 0001:00010871       _calloc                    10011871 f   libucrt:calloc.obj
 0001:0001087c       _malloc                    1001187c f   libucrt:malloc.obj
 0001:00010887       __recalloc                 10011887 f   libucrt:recalloc.obj
 0001:00010892       __recalloc_base            10011892 f   libucrt:recalloc.obj
 0001:000108ff       __resetstkoflw             100118ff f   libucrt:resetstk.obj
 0001:00010a3c       _wcscat_s                  10011a3c f   libucrt:wcscat_s.obj
 0001:00010a47       _wcscpy_s                  10011a47 f   libucrt:wcscpy_s.obj
 0001:00010b79       _wcsncpy_s                 10011b79 f   libucrt:wcsncpy_s.obj
 0001:00010da1       ??$count@D@formatting_buffer@__crt_stdio_output@@QBEIXZ 10011da1 f i libucrt:output.obj
 0001:00010db9       ??$count@_W@formatting_buffer@__crt_stdio_output@@QBEIXZ 10011db9 f i libucrt:output.obj
 0001:00010dd2       ??$ensure_buffer_is_big_enough@D@formatting_buffer@__crt_stdio_output@@QAE_NIAAV__crt_cached_ptd_host@@@Z 10011dd2 f i libucrt:output.obj
 0001:00010e53       ??$ensure_buffer_is_big_enough@_W@formatting_buffer@__crt_stdio_output@@QAE_NIAAV__crt_cached_ptd_host@@@Z 10011e53 f i libucrt:output.obj
 0001:00010ed5       ??$is_overflow_condition@K@__crt_strtox@@YA_NIK@Z 10011ed5 f i libucrt:output.obj
 0001:00010f06       ??$is_wide_character_specifier@_W@__crt_stdio_output@@YA_N_K_WW4length_modifier@0@@Z 10011f06 f i libucrt:output.obj
 0001:00010f54       ??$parse_integer@KV?$c_string_character_source@_W@__crt_strtox@@$0A@@__crt_strtox@@YAKAAV__crt_cached_ptd_host@@V?$c_string_character_source@_W@0@H_N@Z 10011f54 f i libucrt:output.obj
 0001:00011523       ??$scratch_data@D@formatting_buffer@__crt_stdio_output@@QAEPADXZ 10012523 f i libucrt:output.obj
 0001:00011541       ??$type_case_integer@$07@?$output_processor@_WV?$string_output_adapter@_W@__crt_stdio_output@@V?$format_validation_base@_WV?$string_output_adapter@_W@__crt_stdio_output@@@2@@__crt_stdio_output@@AAE_N_N@Z 10012541 f i libucrt:output.obj
 0001:000116c3       ??$type_case_integer@$09@?$output_processor@_WV?$string_output_adapter@_W@__crt_stdio_output@@V?$format_validation_base@_WV?$string_output_adapter@_W@__crt_stdio_output@@@2@@__crt_stdio_output@@AAE_N_N@Z 100126c3 f i libucrt:output.obj
 0001:00011845       ??$type_case_integer@$0BA@@?$output_processor@_WV?$string_output_adapter@_W@__crt_stdio_output@@V?$format_validation_base@_WV?$string_output_adapter@_W@__crt_stdio_output@@@2@@__crt_stdio_output@@AAE_N_N@Z 10012845 f i libucrt:output.obj
 0001:000119c7       ??$type_case_integer_parse_into_buffer@I$07@?$output_processor@_WV?$string_output_adapter@_W@__crt_stdio_output@@V?$format_validation_base@_WV?$string_output_adapter@_W@__crt_stdio_output@@@2@@__crt_stdio_output@@AAEXI_N@Z 100129c7 f i libucrt:output.obj
 0001:00011a34       ??$type_case_integer_parse_into_buffer@I$09@?$output_processor@_WV?$string_output_adapter@_W@__crt_stdio_output@@V?$format_validation_base@_WV?$string_output_adapter@_W@__crt_stdio_output@@@2@@__crt_stdio_output@@AAEXI_N@Z 10012a34 f i libucrt:output.obj
 0001:00011ac3       ??$type_case_integer_parse_into_buffer@I$0BA@@?$output_processor@_WV?$string_output_adapter@_W@__crt_stdio_output@@V?$format_validation_base@_WV?$string_output_adapter@_W@__crt_stdio_output@@@2@@__crt_stdio_output@@AAEXI_N@Z 10012ac3 f i libucrt:output.obj
 0001:00011b50       ??$type_case_integer_parse_into_buffer@_K$07@?$output_processor@_WV?$string_output_adapter@_W@__crt_stdio_output@@V?$format_validation_base@_WV?$string_output_adapter@_W@__crt_stdio_output@@@2@@__crt_stdio_output@@AAEX_K_N@Z 10012b50 f i libucrt:output.obj
 0001:00011bd9       ??$type_case_integer_parse_into_buffer@_K$09@?$output_processor@_WV?$string_output_adapter@_W@__crt_stdio_output@@V?$format_validation_base@_WV?$string_output_adapter@_W@__crt_stdio_output@@@2@@__crt_stdio_output@@AAEX_K_N@Z 10012bd9 f i libucrt:output.obj
 0001:00011c88       ??$type_case_integer_parse_into_buffer@_K$0BA@@?$output_processor@_WV?$string_output_adapter@_W@__crt_stdio_output@@V?$format_validation_base@_WV?$string_output_adapter@_W@__crt_stdio_output@@@2@@__crt_stdio_output@@AAEX_K_N@Z 10012c88 f i libucrt:output.obj
 0001:00011d23       ??0?$output_adapter_data@_WV?$string_output_adapter@_W@__crt_stdio_output@@@__crt_stdio_output@@IAE@ABV?$string_output_adapter@_W@1@_KQB_WAAV__crt_cached_ptd_host@@QAD@Z 10012d23 f i libucrt:output.obj
 0001:00011d8f       ??1formatting_buffer@__crt_stdio_output@@QAE@XZ 10012d8f f i libucrt:output.obj
 0001:00011da9       ??4?$__crt_unique_heap_ptr@DU__crt_internal_free_policy@@@@QAEAAV0@$$QAV0@@Z 10012da9 f i libucrt:output.obj
 0001:00011dcd       ?crop_zeroes@__crt_stdio_output@@YAXPADQAU__crt_locale_pointers@@@Z 10012dcd f i libucrt:output.obj
 0001:00011e2d       ?find_next_state@?$output_processor@_WV?$string_output_adapter@_W@__crt_stdio_output@@V?$format_validation_base@_WV?$string_output_adapter@_W@__crt_stdio_output@@@2@@__crt_stdio_output@@ABE?AW4state@2@_WW432@@Z 10012e2d f i libucrt:output.obj
 0001:00011e69       ?force_decimal_point@__crt_stdio_output@@YAXPADQAU__crt_locale_pointers@@@Z 10012e69 f i libucrt:output.obj
 0001:00011ec5       ?parse_int_from_format_string@?$output_processor@_WV?$string_output_adapter@_W@__crt_stdio_output@@V?$format_validation_base@_WV?$string_output_adapter@_W@__crt_stdio_output@@@2@@__crt_stdio_output@@AAE_NQAH@Z 10012ec5 f i libucrt:output.obj
 0001:00011f3f       ?process@?$output_processor@_WV?$string_output_adapter@_W@__crt_stdio_output@@V?$format_validation_base@_WV?$string_output_adapter@_W@__crt_stdio_output@@@2@@__crt_stdio_output@@QAEHXZ 10012f3f f i libucrt:output.obj
 0001:0001218f       ?state_case_size@?$output_processor@_WV?$string_output_adapter@_W@__crt_stdio_output@@V?$format_validation_base@_WV?$string_output_adapter@_W@__crt_stdio_output@@@2@@__crt_stdio_output@@AAE_NXZ 1001318f f i libucrt:output.obj
 0001:0001231d       ?state_case_type@?$output_processor@_WV?$string_output_adapter@_W@__crt_stdio_output@@V?$format_validation_base@_WV?$string_output_adapter@_W@__crt_stdio_output@@@2@@__crt_stdio_output@@AAE_NXZ 1001331d f i libucrt:output.obj
 0001:0001273e       ?to_integer_size@__crt_stdio_output@@YAIW4length_modifier@1@@Z 1001373e f i libucrt:output.obj
 0001:00012792       ?type_case_Z@?$output_processor@_WV?$string_output_adapter@_W@__crt_stdio_output@@V?$format_validation_base@_WV?$string_output_adapter@_W@__crt_stdio_output@@@2@@__crt_stdio_output@@AAE_NXZ 10013792 f i libucrt:output.obj
 0001:000127ec       ?type_case_a@?$output_processor@_WV?$string_output_adapter@_W@__crt_stdio_output@@V?$format_validation_base@_WV?$string_output_adapter@_W@__crt_stdio_output@@@2@@__crt_stdio_output@@AAE_NXZ 100137ec f i libucrt:output.obj
 0001:0001298c       ?type_case_c_tchar@?$output_processor@_WV?$string_output_adapter@_W@__crt_stdio_output@@V?$format_validation_base@_WV?$string_output_adapter@_W@__crt_stdio_output@@@2@@__crt_stdio_output@@AAE_N_W@Z 1001398c f i libucrt:output.obj
 0001:00012a33       ?type_case_n@?$output_processor@_WV?$string_output_adapter@_W@__crt_stdio_output@@V?$format_validation_base@_WV?$string_output_adapter@_W@__crt_stdio_output@@@2@@__crt_stdio_output@@AAE_NXZ 10013a33 f i libucrt:output.obj
 0001:00012ab7       ?type_case_o@?$output_processor@_WV?$string_output_adapter@_W@__crt_stdio_output@@V?$format_validation_base@_WV?$string_output_adapter@_W@__crt_stdio_output@@@2@@__crt_stdio_output@@AAE_NXZ 10013ab7 f i libucrt:output.obj
 0001:00012ad4       ?type_case_p@?$output_processor@_WV?$string_output_adapter@_W@__crt_stdio_output@@V?$format_validation_base@_WV?$string_output_adapter@_W@__crt_stdio_output@@@2@@__crt_stdio_output@@AAE_NXZ 10013ad4 f i libucrt:output.obj
 0001:00012aea       ?type_case_s@?$output_processor@_WV?$string_output_adapter@_W@__crt_stdio_output@@V?$format_validation_base@_WV?$string_output_adapter@_W@__crt_stdio_output@@@2@@__crt_stdio_output@@AAE_NXZ 10013aea f i libucrt:output.obj
 0001:00012b5d       ?type_case_s_compute_narrow_string_length@?$output_processor@_WV?$string_output_adapter@_W@__crt_stdio_output@@V?$format_validation_base@_WV?$string_output_adapter@_W@__crt_stdio_output@@@2@@__crt_stdio_output@@AAEHH_W@Z 10013b5d f i libucrt:output.obj
 0001:00012bb2       ?unget@?$c_string_character_source@_W@__crt_strtox@@QAEX_W@Z 10013bb2 f i libucrt:output.obj
 0001:00012be0       ?update_locale_slow@__crt_cached_ptd_host@@AAEXXZ 10013be0 f i libucrt:output.obj
 0001:00012c3b       ?validate@?$c_string_character_source@_W@__crt_strtox@@QBE_NXZ 10013c3b f i libucrt:output.obj
 0001:00012c56       ?validate@?$string_output_adapter@_W@__crt_stdio_output@@QBE_NAAV__crt_cached_ptd_host@@@Z 10013c56 f i libucrt:output.obj
 0001:00012c87       ?write_string@?$string_output_adapter@_W@__crt_stdio_output@@QBEXQB_WHQAHAAV__crt_cached_ptd_host@@@Z 10013c87 f i libucrt:output.obj
 0001:00012cf8       ___acrt_locale_get_ctype_array_value 10013cf8 f i libucrt:output.obj
 0001:00012d1a       ___stdio_common_vswprintf_s 10013d1a f   libucrt:output.obj
 0001:00012d5b       __seh_filter_dll           10013d5b f   libucrt:exception_filter.obj
 0001:00012d7b       __seh_filter_exe           10013d7b f   libucrt:exception_filter.obj
 0001:000131a8       ___acrt_initialize_thread_local_exit_callback 100141a8 f   libucrt:exit.obj
 0001:000131b7       __cexit                    100141b7 f   libucrt:exit.obj
 0001:000131c6       __exit                     100141c6 f   libucrt:exit.obj
 0001:000131dc       __is_c_termination_complete 100141dc f   libucrt:exit.obj
 0001:00013494       ___acrt_allocate_buffer_for_argv 10014494 f   libucrt:argv_parsing.obj
 0001:000134e3       __configure_narrow_argv    100144e3 f   libucrt:argv_parsing.obj
 0001:0001368f       ___dcrt_uninitialize_environments_nolock 1001468f f   libucrt:environment_initialization.obj
 0001:000136e0       __initialize_narrow_environment 100146e0 f   libucrt:environment_initialization.obj
 0001:0001379b       ??$__crt_fast_encode_pointer@PAP6AXXZ@@YAPAP6AXXZQAP6AXXZ@Z 1001479b f i libucrt:onexit.obj
 0001:0001379b       ??$__crt_fast_encode_pointer@PAX@@YAPAXQAX@Z 1001479b f i libucrt:initialization.obj
 0001:0001379b       ??$__crt_fast_encode_pointer@P6AHXZ@@YAP6AHXZQ6AHXZ@Z 1001479b f i libucrt:onexit.obj
 0001:00013996       __crt_atexit               10014996 f   libucrt:onexit.obj
 0001:000139ac       __execute_onexit_table     100149ac f   libucrt:onexit.obj
 0001:000139ea       __initialize_onexit_table  100149ea f   libucrt:onexit.obj
 0001:00013a13       __register_onexit_function 10014a13 f   libucrt:onexit.obj
 0001:00013a96       ___acrt_uninitialize_command_line 10014a96 f   libucrt:argv_data.obj
 0001:00013b44       ___acrt_initialize         10014b44 f   libucrt:initialization.obj
 0001:00013b56       ___acrt_thread_attach      10014b56 f   libucrt:initialization.obj
 0001:00013b61       ___acrt_thread_detach      10014b61 f   libucrt:initialization.obj
 0001:00013b69       ___acrt_uninitialize       10014b69 f   libucrt:initialization.obj
 0001:00013b99       ___acrt_uninitialize_critical 10014b99 f   libucrt:initialization.obj
 0001:00013bab       __initterm                 10014bab f   libucrt:initterm.obj
 0001:00013bd6       __initterm_e               10014bd6 f   libucrt:initterm.obj
 0001:00013c04       ___acrt_initialize_new_handler 10014c04 f   libucrt:new_handler.obj
 0001:00013c13       __callnewh                 10014c13 f   libucrt:new_handler.obj
 0001:00013c40       __query_new_handler        10014c40 f   libucrt:new_handler.obj
 0001:00013c9c       _terminate                 10014c9c f   libucrt:terminate.obj
 0001:00013cd8       _abort                     10014cd8 f   libucrt:abort.obj
 0001:00013d1c       _strcpy_s                  10014d1c f   libucrt:strcpy_s.obj
 0001:00013d80       _strncmp                   10014d80 f   libucrt:strncmp.obj
 0001:00013df8       _wcsncmp                   10014df8 f   libucrt:wcsncmp.obj
 0001:00013e32       __free_base                10014e32 f   libucrt:free_base.obj
 0001:000141aa       ___acrt_freeptd            100151aa f   libucrt:per_thread_data.obj
 0001:000141d6       ___acrt_getptd             100151d6 f   libucrt:per_thread_data.obj
 0001:00014291       ___acrt_getptd_head        10015291 f   libucrt:per_thread_data.obj
 0001:00014327       ___acrt_getptd_noexit      10015327 f   libucrt:per_thread_data.obj
 0001:000143d8       ___acrt_getptd_noexit_explicit 100153d8 f   libucrt:per_thread_data.obj
 0001:0001447b       ___acrt_initialize_ptd     1001547b f   libucrt:per_thread_data.obj
 0001:000144a7       ___acrt_uninitialize_ptd   100154a7 f   libucrt:per_thread_data.obj
 0001:0001452f       ___acrt_set_locale_changed 1001552f f   libucrt:wsetlocale.obj
 0001:0001453a       ___acrt_uninitialize_locale 1001553a f   libucrt:wsetlocale.obj
 0001:00014561       __calloc_base              10015561 f   libucrt:calloc_base.obj
 0001:000145be       __malloc_base              100155be f   libucrt:malloc_base.obj
 0001:0001460c       __msize_base               1001560c f   libucrt:msize.obj
 0001:0001463f       __realloc_base             1001563f f   libucrt:realloc_base.obj
 0001:00014844       ___acrt_AppPolicyGetProcessTerminationMethodInternal@4 10015844 f   libucrt:winapi_thunks.obj
 0001:00014884       ___acrt_AreFileApisANSI@0  10015884 f   libucrt:winapi_thunks.obj
 0001:000148a3       ___acrt_FlsAlloc@4         100158a3 f   libucrt:winapi_thunks.obj
 0001:000148e2       ___acrt_FlsFree@4          100158e2 f   libucrt:winapi_thunks.obj
 0001:00014921       ___acrt_FlsGetValue@4      10015921 f   libucrt:winapi_thunks.obj
 0001:00014960       ___acrt_FlsSetValue@8      10015960 f   libucrt:winapi_thunks.obj
 0001:000149a2       ___acrt_InitializeCriticalSectionEx@12 100159a2 f   libucrt:winapi_thunks.obj
 0001:000149ed       ___acrt_LCMapStringEx@36   100159ed f   libucrt:winapi_thunks.obj
 0001:00014a4a       ___acrt_LocaleNameToLCID@8 10015a4a f   libucrt:winapi_thunks.obj
 0001:00014a7b       ___acrt_SetThreadStackGuarantee@4 10015a7b f   libucrt:winapi_thunks.obj
 0001:00014ab6       ___acrt_initialize_winapi_thunks 10015ab6 f   libucrt:winapi_thunks.obj
 0001:00014aca       ___acrt_uninitialize_winapi_thunks 10015aca f   libucrt:winapi_thunks.obj
 0001:00014b00       _wcsnlen                   10015b00 f   libucrt:strnlen.obj
 0001:00014cb0       ___acrt_update_locale_info 10015cb0 f   libucrt:locale_update.obj
 0001:00014cdd       ___acrt_update_locale_info_explicit 10015cdd f   libucrt:locale_update.obj
 0001:00014d0e       ___acrt_update_multibyte_info 10015d0e f   libucrt:locale_update.obj
 0001:00014d3b       ___acrt_update_multibyte_info_explicit 10015d3b f   libucrt:locale_update.obj
 0001:00014d6c       ?__acrt_fp_classify@@YA?AW4__acrt_fp_class@@ABN@Z 10015d6c f i libucrt:cvt.obj
 0001:00015735       ___acrt_fp_format          10016735 f   libucrt:cvt.obj
 0001:000158b6       __mbtowc_internal          100168b6 f   libucrt:mbtowc.obj
 0001:000159e9       __fileno                   100169e9 f   libucrt:fileno.obj
 0001:00015a10       ___acrt_initialize_stdio   10016a10 f   libucrt:_file.obj
 0001:00015ad8       ___acrt_uninitialize_stdio 10016ad8 f   libucrt:_file.obj
 0001:00015b24       __lock_file                10016b24 f   libucrt:_file.obj
 0001:00015b38       __unlock_file              10016b38 f   libucrt:_file.obj
 0001:00015b4c       __get_printf_count_output  10016b4c f   libucrt:printf_count_output.obj
 0001:00015cc7       ___acrt_initialize_lowio   10016cc7 f   libucrt:ioinit.obj
 0001:00015d27       ___acrt_uninitialize_lowio 10016d27 f   libucrt:ioinit.obj
 0001:00015d53       ___acrt_initialize_locks   10016d53 f   libucrt:locks.obj
 0001:00015d94       ___acrt_lock               10016d94 f   libucrt:locks.obj
 0001:00015dab       ___acrt_uninitialize_locks 10016dab f   libucrt:locks.obj
 0001:00015ddc       ___acrt_unlock             10016ddc f   libucrt:locks.obj
 0001:00015df3       ___acrt_get_process_end_policy 10016df3 f   libucrt:win_policies.obj
 0001:00015e3c       ??$__acrt_convert_wcs_mbs_cp@D_WV<lambda_62f6974d9771e494a5ea317cc32e971c>@@U__crt_win32_buffer_internal_dynamic_resizing@@@@YAHQBDAAV?$__crt_win32_buffer@_WU__crt_win32_buffer_internal_dynamic_resizing@@@@ABV<lambda_62f6974d9771e494a5ea317cc32e971c>@@I@Z 10016e3c f i libucrt:argv_wildcards.obj
 0001:00015eee       ??$__acrt_convert_wcs_mbs_cp@_WDV<lambda_28bda7af82a03b66c1cb3803a755f95d>@@U__crt_win32_buffer_internal_dynamic_resizing@@@@YAHQB_WAAV?$__crt_win32_buffer@DU__crt_win32_buffer_internal_dynamic_resizing@@@@ABV<lambda_28bda7af82a03b66c1cb3803a755f95d>@@I@Z 10016eee f i libucrt:argv_wildcards.obj
 0001:00015fb4       ??$__acrt_mbs_to_wcs_cp@U__crt_win32_buffer_internal_dynamic_resizing@@@@YAHQBDAAV?$__crt_win32_buffer@_WU__crt_win32_buffer_internal_dynamic_resizing@@@@I@Z 10016fb4 f i libucrt:argv_wildcards.obj
 0001:00016484       ??0_LocaleUpdate@@QAE@QAU__crt_locale_pointers@@@Z 10017484 f i libucrt:argv_wildcards.obj
 0001:0001652f       ??R<lambda_0fec1a7b3f42a53036604e18c2d5e07e>@@QBEHIQB_WQADI@Z 1001752f f i libucrt:getmodulefilenamea.obj
 0001:0001652f       ??R<lambda_28bda7af82a03b66c1cb3803a755f95d>@@QBEHIQB_WQADI@Z 1001752f f i libucrt:argv_wildcards.obj
 0001:00016553       ?__acrt_get_utf8_acp_compatibility_codepage@@YAIXZ 10017553 f i libucrt:argv_wildcards.obj
 0001:00016592       ?_deallocate@?$__crt_win32_buffer@_WU__crt_win32_buffer_internal_dynamic_resizing@@@@AAEXXZ 10017592 f i libucrt:argv_wildcards.obj
 0001:00016592       ?_deallocate@?$__crt_win32_buffer@DU__crt_win32_buffer_internal_dynamic_resizing@@@@AAEXXZ 10017592 f i libucrt:argv_wildcards.obj
 0001:000165ac       ?allocate@?$__crt_win32_buffer@DU__crt_win32_buffer_internal_dynamic_resizing@@@@QAEHI@Z 100175ac f i libucrt:argv_wildcards.obj
 0001:000165e8       ?allocate@?$__crt_win32_buffer@_WU__crt_win32_buffer_internal_dynamic_resizing@@@@QAEHI@Z 100175e8 f i libucrt:argv_wildcards.obj
 0001:00016627       ?allocate@__crt_win32_buffer_internal_dynamic_resizing@@SAHQAPAXIABV__crt_win32_buffer_empty_debug_info@@@Z 10017627 f i libucrt:argv_wildcards.obj
 0001:000166cd       ___acrt_expand_narrow_argv_wildcards 100176cd f   libucrt:argv_wildcards.obj
 0001:000166d8       ??$__acrt_convert_wcs_mbs_cp@_WDV<lambda_0fec1a7b3f42a53036604e18c2d5e07e>@@U__crt_win32_buffer_no_resizing@@@@YAHQB_WAAV?$__crt_win32_buffer@DU__crt_win32_buffer_no_resizing@@@@ABV<lambda_0fec1a7b3f42a53036604e18c2d5e07e>@@I@Z 100176d8 f i libucrt:getmodulefilenamea.obj
 0001:0001679a       ?allocate@?$__crt_win32_buffer@DU__crt_win32_buffer_no_resizing@@@@QAEHI@Z 1001779a f i libucrt:getmodulefilenamea.obj
 0001:000167c1       ?set_to_nullptr@?$__crt_win32_buffer@DU__crt_win32_buffer_no_resizing@@@@QAEXXZ 100177c1 f i libucrt:getmodulefilenamea.obj
 0001:000167d5       ___acrt_GetModuleFileNameA 100177d5 f   libucrt:getmodulefilenamea.obj
 0001:00016df9       ___acrt_initialize_multibyte 10017df9 f   libucrt:mbctype.obj
 0001:00016e41       ___acrt_update_thread_multibyte_data 10017e41 f   libucrt:mbctype.obj
 0001:00016e54       __setmbcp_nolock           10017e54 f   libucrt:mbctype.obj
 0001:0001712d       __ismbblead                1001812d f   libucrt:ismbbyte.obj
 0001:00017145       ___acrt_initialize_command_line 10018145 f   libucrt:argv_data.obj
 0001:0001715e       ___acrt_MultiByteToWideChar 1001815e f   libucrt:multibytetowidechar.obj
 0001:000171da       ___acrt_WideCharToMultiByte 100181da f   libucrt:widechartomultibyte.obj
 0001:000172c8       ___dcrt_get_narrow_environment_from_os 100182c8 f   libucrt:get_environment_from_os.obj
 0001:00017368       ___acrt_initialize_heap    10018368 f   libucrt:heap_handle.obj
 0001:00017379       ___acrt_uninitialize_heap  10018379 f   libucrt:heap_handle.obj
 0001:00017383       ___acrt_execute_initializers 10018383 f   libucrt:shared_initialization.obj
 0001:000173eb       ___acrt_execute_uninitializers 100183eb f   libucrt:shared_initialization.obj
 0001:000174ea       ___acrt_get_sigabrt_handler 100184ea f   libucrt:signal.obj
 0001:00017511       ___acrt_initialize_signal_handlers 10018511 f   libucrt:signal.obj
 0001:0001752f       _raise                     1001852f f   libucrt:signal.obj
 0001:00017722       ___acrt_has_user_matherr   10018722 f   libucrt:matherr.obj
 0001:0001773a       ___acrt_initialize_user_matherr 1001873a f   libucrt:matherr.obj
 0001:00017749       ___acrt_invoke_user_matherr 10018749 f   libucrt:matherr.obj
 0001:00017958       ___acrt_stdio_flush_nolock 10018958 f   libucrt:fflush.obj
 0001:000179c1       __fflush_nolock            100189c1 f   libucrt:fflush.obj
 0001:00017a26       __flushall                 10018a26 f   libucrt:fflush.obj
 0001:00017a2f       ___acrt_add_locale_ref     10018a2f f   libucrt:locale_refcounting.obj
 0001:00017aac       ___acrt_free_locale        10018aac f   libucrt:locale_refcounting.obj
 0001:00017bf4       ___acrt_locale_add_lc_time_reference 10018bf4 f   libucrt:locale_refcounting.obj
 0001:00017c1d       ___acrt_locale_free_lc_time_if_unreferenced 10018c1d f   libucrt:locale_refcounting.obj
 0001:00017c4e       ___acrt_locale_release_lc_time_reference 10018c4e f   libucrt:locale_refcounting.obj
 0001:00017c77       ___acrt_release_locale_ref 10018c77 f   libucrt:locale_refcounting.obj
 0001:00017cf8       ___acrt_update_thread_locale_data 10018cf8 f   libucrt:locale_refcounting.obj
 0001:00017d79       __updatetlocinfoEx_nolock  10018d79 f   libucrt:locale_refcounting.obj
 0001:00017dc9       ___acrt_locale_free_monetary 10018dc9 f   libucrt:initmon.obj
 0001:00017ec7       ___acrt_locale_free_numeric 10018ec7 f   libucrt:initnum.obj
 0001:00017f55       ___acrt_locale_free_time   10018f55 f   libucrt:inittime.obj
 0001:00018039       ___acrt_GetStringTypeA     10019039 f   libucrt:getstringtypea.obj
 0001:00018142       __freea_crt                10019142 f i libucrt:getstringtypea.obj
 0001:00018162       __query_new_mode           10019162 f   libucrt:new_mode.obj
 0001:000181b9       ___acrt_DownlevelLocaleNameToLCID 100191b9 f   libucrt:lcidtoname_downlevel.obj
 0001:00018263       ___acrt_fp_strflt_to_string 10019263 f   libucrt:_fptostr.obj
 0001:00018360       ?divide@__crt_strtox@@YA_KAAUbig_integer@1@ABU21@@Z 10019360 f i libucrt:cfout.obj
 0001:000187e8       ___acrt_fltout             100197e8 f   libucrt:cfout.obj
 0001:00019d21       _fegetround                1001ad21 f   libucrt:fegetround.obj
 0001:00019d5a       ?__mbrtowc_utf8@__crt_mbstring@@YAIPA_WPBDIPAU_Mbstatet@@AAV__crt_cached_ptd_host@@@Z 1001ad5a f   libucrt:mbrtowc.obj
 0001:00019d9d       ?__mbsrtowcs_utf8@__crt_mbstring@@YAIPA_WPAPBDIPAU_Mbstatet@@AAV__crt_cached_ptd_host@@@Z 1001ad9d f   libucrt:mbrtowc.obj
 0001:00019ea5       __fcloseall                1001aea5 f   libucrt:closeall.obj
 0001:00019f50       ___acrt_stdio_free_buffer_nolock 1001af50 f   libucrt:_freebuf.obj
 0001:00019f90       __isatty                   1001af90 f   libucrt:isatty.obj
 0001:00019fe6       ___acrt_lowio_create_handle_array 1001afe6 f   libucrt:osfinfo.obj
 0001:0001a061       ___acrt_lowio_destroy_handle_array 1001b061 f   libucrt:osfinfo.obj
 0001:0001a096       ___acrt_lowio_ensure_fh_exists 1001b096 f   libucrt:osfinfo.obj
 0001:0001a134       ___acrt_lowio_lock_fh      1001b134 f   libucrt:osfinfo.obj
 0001:0001a157       ___acrt_lowio_unlock_fh    1001b157 f   libucrt:osfinfo.obj
 0001:0001a17a       __free_osfhnd              1001b17a f   libucrt:osfinfo.obj
 0001:0001a20b       __get_osfhandle            1001b20b f   libucrt:osfinfo.obj
 0001:0001a280       _qsort                     1001b280 f   libucrt:qsort.obj
 0001:0001a825       _strncpy_s                 1001b825 f   libucrt:strncpy_s.obj
 0001:0001a830       _strpbrk                   1001b830 f   libucrt:strpbrk.obj
 0001:0001a870       __mbsdec                   1001b870 f   libucrt:mbsdec.obj
 0001:0001a887       __mbsdec_l                 1001b887 f   libucrt:mbsdec.obj
 0001:0001ab02       ___acrt_LCMapStringA       1001bb02 f   libucrt:lcmapstringa.obj
 0001:0001abfc       __commit                   1001bbfc f   libucrt:commit.obj
 0001:0001b427       __write_internal           1001c427 f   libucrt:write.obj
 0001:0001b52f       __write_nolock             1001c52f f   libucrt:write.obj
 0001:0001b72f       ___ascii_wcsnicmp          1001c72f f   libucrt:wcsnicmp.obj
 0001:0001b77e       __controlfp_s              1001c77e f   libucrt:contrlfp.obj
 0001:0001b7dd       _fegetenv                  1001c7dd f   libucrt:fegetenv.obj
 0001:0001b7fa       _fesetenv                  1001c7fa f   libucrt:fesetenv.obj
 0001:0001b845       _feholdexcept              1001c845 f   libucrt:feholdexcept.obj
 0001:0001b8a0       __CIlog10                  1001c8a0 f   libucrt:log10_impl.obj
 0001:0001b8db       __CIlog10_default          1001c8db f   libucrt:log10_impl.obj
 0001:0001b8ef       __log10_default            1001c8ef     libucrt:log10_impl.obj
 0001:0001b9b0       _ceil                      1001c9b0 f   libucrt:ceil_pentium4.obj
 0001:0001b9f0       __ceil_pentium4            1001c9f0 f   libucrt:ceil_pentium4.obj
 0001:0001bd96       ___acrt_fenv_get_common_round_control 1001cd96 f   libucrt:_fenvutils.obj
 0001:0001bdb8       ___acrt_fenv_get_control   1001cdb8 f   libucrt:_fenvutils.obj
 0001:0001be38       ___acrt_fenv_get_status    1001ce38 f   libucrt:_fenvutils.obj
 0001:0001bee2       ___acrt_fenv_set_control   1001cee2 f   libucrt:_fenvutils.obj
 0001:0001bf5d       ___acrt_fenv_set_status    1001cf5d f   libucrt:_fenvutils.obj
 0001:0001c057       ?reset_and_return@__crt_mbstring@@YAIIPAU_Mbstatet@@@Z 1001d057 f   libucrt:common_utf8.obj
 0001:0001c06b       ?return_illegal_sequence@__crt_mbstring@@YAIPAU_Mbstatet@@AAV__crt_cached_ptd_host@@@Z 1001d06b f   libucrt:common_utf8.obj
 0001:0001c08d       ?__mbrtoc32_utf8@__crt_mbstring@@YAIPA_UPBDIPAU_Mbstatet@@AAV__crt_cached_ptd_host@@@Z 1001d08d f   libucrt:mbrtoc32.obj
 0001:0001c370       _fclose                    1001d370 f   libucrt:fclose.obj
 0001:0001c423       __lseeki64_nolock_internal 1001d423 f   libucrt:lseek.obj
 0001:0001c441       __query_app_type           1001d441 f   libucrt:report_runtime_error.obj
 0001:0001c447       ___strncnt                 1001d447 f   libucrt:strncnt.obj
 0001:0001c463       __putwch_nolock            1001d463 f   libucrt:putwch.obj
 0001:0001c53c       __clearfp                  1001d53c f   libucrt:ieee87.obj
 0001:0001c61a       __control87                1001d61a f   libucrt:ieee87.obj
 0001:0001c9b9       ___acrt_initialize_sse2    1001d9b9 f   libucrt:mathfcns.obj
 0001:0001c9d0       __CIlog10_pentium4         1001d9d0 f   libucrt:log10_pentium4.obj
 0001:0001c9e8       __log10_pentium4           1001d9e8     libucrt:log10_pentium4.obj
 0001:0001cc80       __fFEXP                    1001dc80 f   libucrt:87tran.obj
 0001:0001ccd7       __rtinfpopse               1001dcd7     libucrt:87tran.obj
 0001:0001ccd9       __rtinfnpopse              1001dcd9     libucrt:87tran.obj
 0001:0001cce9       __fFLN                     1001dce9     libucrt:87tran.obj
 0001:0001cd9e       __rtinfpop                 1001dd9e     libucrt:87tran.obj
 0001:0001cda0       __rtinfnpop                1001dda0     libucrt:87tran.obj
 0001:0001cdb0       __rtforexpinf              1001ddb0 f   libucrt:87tran.obj
 0001:0001cdbd       __ffexpm1                  1001ddbd     libucrt:87tran.obj
 0001:0001ce70       __trandisp1                1001de70 f   libucrt:87disp.obj
 0001:0001cee5       __trandisp2                1001dee5 f   libucrt:87disp.obj
 0001:0001cf7f       __rttospopde               1001df7f     libucrt:87disp.obj
 0001:0001cf84       __rttospop                 1001df84     libucrt:87disp.obj
 0001:0001cf90       __rtnospop                 1001df90 f   libucrt:87disp.obj
 0001:0001cfa0       __rttosnpop                1001dfa0 f   libucrt:87disp.obj
 0001:0001cfa1       __rtnospopde               1001dfa1     libucrt:87disp.obj
 0001:0001cfa8       __rtzeropop                1001dfa8     libucrt:87disp.obj
 0001:0001cfaa       __rtzeronpop               1001dfaa     libucrt:87disp.obj
 0001:0001cfb0       __rtzerospop               1001dfb0 f   libucrt:87disp.obj
 0001:0001cfbd       __rtonepop                 1001dfbd     libucrt:87disp.obj
 0001:0001cfc0       __rtonenpop                1001dfc0 f   libucrt:87disp.obj
 0001:0001cfd0       __tosnan1                  1001dfd0 f   libucrt:87disp.obj
 0001:0001d000       __nosnan2                  1001e000 f   libucrt:87disp.obj
 0001:0001d010       __tosnan2                  1001e010 f   libucrt:87disp.obj
 0001:0001d040       __nan2                     1001e040 f   libucrt:87disp.obj
 0001:0001d080       __rtindfpop                1001e080 f   libucrt:87disp.obj
 0001:0001d082       __rtindfnpop               1001e082     libucrt:87disp.obj
 0001:0001d093       __rttosnpopde              1001e093     libucrt:87disp.obj
 0001:0001d0a0       __rtatan2inf               1001e0a0 f   libucrt:87disp.obj
 0001:0001d0bd       __rtchsifneg               1001e0bd     libucrt:87disp.obj
 0001:0001d0d0       __twoToTOS                 1001e0d0 f   libucrt:common.obj
 0001:0001d0e5       __load_CW                  1001e0e5 f   libucrt:common.obj
 0001:0001d0fc       __convertTOStoQNaN         1001e0fc f   libucrt:common.obj
 0001:0001d115       __fload_withFB             1001e115 f   libucrt:common.obj
 0001:0001d158       __checkTOS_withFB          1001e158 f   libucrt:common.obj
 0001:0001d16e       __fast_exit                1001e16e f   libucrt:common.obj
 0001:0001d17b       __math_exit                1001e17b f   libucrt:common.obj
 0001:0001d1a5       __check_overflow_exit      1001e1a5 f   libucrt:common.obj
 0001:0001d1b9       __check_range_exit         1001e1b9 f   libucrt:common.obj
 0001:0001d260       __startTwoArgErrorHandling 1001e260 f   libucrt:genexcep.obj
 0001:0001d277       __startOneArgErrorHandling 1001e277 f   libucrt:genexcep.obj
 0001:0001d2b3       ___libm_error_support      1001e2b3 f   libucrt:libm_error.obj
 0001:0001d4a7       __ceil_default             1001e4a7 f   libucrt:ceil.obj
 0001:0001d5ed       __close_internal           1001e5ed f   libucrt:close.obj
 0001:0001d690       __close_nolock_internal    1001e690 f   libucrt:close.obj
 0001:0001d730       ?__acrt_stdio_free_stream@@YAXV__crt_stdio_stream@@@Z 1001e730 f   libucrt:stream.obj
 0001:0001d770       ___ascii_strnicmp          1001e770 f   libucrt:_strnicm.obj
 0001:0001d7f0       ___dcrt_lowio_ensure_console_output_initialized 1001e7f0 f   libucrt:initcon.obj
 0001:0001d80f       ___dcrt_terminate_console_output 1001e80f f   libucrt:initcon.obj
 0001:0001d826       ___dcrt_write_console      1001e826 f   libucrt:initcon.obj
 0001:0001d87b       ___set_fpsr_sse2           1001e87b f   libucrt:fpctrl.obj
 0001:0001d8fb       __clrfp                    1001e8fb f   libucrt:fpctrl.obj
 0001:0001d90c       __ctrlfp                   1001e90c f   libucrt:fpctrl.obj
 0001:0001d936       __set_statfp               1001e936 f   libucrt:fpctrl.obj
 0001:0001d98f       __statfp                   1001e98f f   libucrt:fpctrl.obj
 0001:0001d99f       __d_inttype                1001e99f f   libucrt:powhlp.obj
 0001:0001da07       __powhlp                   1001ea07 f   libucrt:powhlp.obj
 0001:0001db32       __87except                 1001eb32 f   libucrt:87except.obj
 0001:0001dc3c       __frnd                     1001ec3c f   libucrt:frnd.obj
 0001:0001dc50       __errcode                  1001ec50 f   libucrt:fpexcept.obj
 0001:0001dc84       __except1                  1001ec84 f   libucrt:fpexcept.obj
 0001:0001dd52       __handle_exc               1001ed52 f   libucrt:fpexcept.obj
 0001:0001dfcb       __raise_exc                1001efcb f   libucrt:fpexcept.obj
 0001:0001dfee       __raise_exc_ex             1001efee f   libucrt:fpexcept.obj
 0001:0001e2e4       __set_errno_from_matherr   1001f2e4 f   libucrt:fpexcept.obj
 0001:0001e313       __umatherr                 1001f313 f   libucrt:fpexcept.obj
 0001:0001e3b3       __decomp                   1001f3b3 f   libucrt:util.obj
 0001:0001e485       __set_exp                  1001f485 f   libucrt:util.obj
 0001:0001e4b2       __sptype                   1001f4b2 f   libucrt:util.obj
 0001:0001e510       __fpclass                  1001f510 f   libucrt:ieeemisc.obj
 0001:0001e5c0       __FindPESection            1001f5c0 f   LIBCMT:pesect.obj
 0001:0001e610       __IsNonwritableInCurrentImage 1001f610 f   LIBCMT:pesect.obj
 0001:0001e6d0       __ValidateImageBase        1001f6d0 f   LIBCMT:pesect.obj
 0001:0001e701       __EH_epilog3               1001f701 f   LIBCMT:ehprolg3.obj
 0001:0001e715       __EH_prolog3               1001f715 f   LIBCMT:ehprolg3.obj
 0001:0001e748       __EH_prolog3_catch         1001f748 f   LIBCMT:ehprolg3.obj
 0001:0001e780       __aulldvrm                 1001f780 f   LIBCMT:ulldvrm.obj
 0001:0001e820       __allmul                   1001f820 f   LIBCMT:llmul.obj
 0001:0001e860       __alldvrm                  1001f860 f   LIBCMT:lldvrm.obj
 0001:0001e940       __allshl                   1001f940 f   LIBCMT:llshl.obj
 0001:0001e960       __aullshr                  1001f960 f   LIBCMT:ullshr.obj
 0001:0001e980       __ftol2_sse                1001f980 f   LIBCMT:ftol2.obj
 0001:0001e990       __ftoi2                    1001f990 f   LIBCMT:ftol2.obj
 0001:0001ea10       _strrchr                   1001fa10 f   libvcruntime:strrchr.obj
 0001:0001eb50       __filter_x86_sse2_floating_point_exception 1001fb50 f   LIBCMT:x86_exception_filter.obj
 0001:0001eb50       __filter_x86_sse2_floating_point_exception_default 1001fb50 f   LIBCMT:x86_exception_filter.obj
 0002:00000000       __imp__RegQueryValueExW@24 10020000     advapi32:ADVAPI32.dll
 0002:00000004       __imp__RegSetValueExW@24   10020004     advapi32:ADVAPI32.dll
 0002:00000008       __imp__RegQueryInfoKeyW@48 10020008     advapi32:ADVAPI32.dll
 0002:0000000c       __imp__RegOpenKeyExW@20    1002000c     advapi32:ADVAPI32.dll
 0002:00000010       __imp__RegEnumKeyExW@32    10020010     advapi32:ADVAPI32.dll
 0002:00000014       __imp__RegDeleteValueW@8   10020014     advapi32:ADVAPI32.dll
 0002:00000018       __imp__RegDeleteKeyW@8     10020018     advapi32:ADVAPI32.dll
 0002:0000001c       __imp__RegCreateKeyExW@36  1002001c     advapi32:ADVAPI32.dll
 0002:00000020       __imp__RegCloseKey@4       10020020     advapi32:ADVAPI32.dll
 0002:00000024       \177ADVAPI32_NULL_THUNK_DATA 10020024     advapi32:ADVAPI32.dll
 0002:00000028       __imp__GetObjectW@12       10020028     gdi32:GDI32.dll
 0002:0000002c       __imp__SelectObject@8      1002002c     gdi32:GDI32.dll
 0002:00000030       __imp__DeleteObject@4      10020030     gdi32:GDI32.dll
 0002:00000034       __imp__CreateCompatibleDC@4 10020034     gdi32:GDI32.dll
 0002:00000038       __imp__BitBlt@36           10020038     gdi32:GDI32.dll
 0002:0000003c       __imp__SetWindowOrgEx@16   1002003c     gdi32:GDI32.dll
 0002:00000040       __imp__SetWindowExtEx@16   10020040     gdi32:GDI32.dll
 0002:00000044       __imp__SetViewportOrgEx@16 10020044     gdi32:GDI32.dll
 0002:00000048       __imp__LPtoDP@12           10020048     gdi32:GDI32.dll
 0002:0000004c       __imp__SetMapMode@8        1002004c     gdi32:GDI32.dll
 0002:00000050       __imp__SaveDC@4            10020050     gdi32:GDI32.dll
 0002:00000054       __imp__RestoreDC@8         10020054     gdi32:GDI32.dll
 0002:00000058       __imp__GetDeviceCaps@8     10020058     gdi32:GDI32.dll
 0002:0000005c       __imp__DeleteMetaFile@4    1002005c     gdi32:GDI32.dll
 0002:00000060       __imp__DeleteDC@4          10020060     gdi32:GDI32.dll
 0002:00000064       __imp__CreateRectRgnIndirect@4 10020064     gdi32:GDI32.dll
 0002:00000068       __imp__CreateMetaFileW@4   10020068     gdi32:GDI32.dll
 0002:0000006c       __imp__CreateDCW@16        1002006c     gdi32:GDI32.dll
 0002:00000070       __imp__CloseMetaFile@4     10020070     gdi32:GDI32.dll
 0002:00000074       \177GDI32_NULL_THUNK_DATA  10020074     gdi32:GDI32.dll
 0002:00000078       __imp__CloseHandle@4       10020078     kernel32:KERNEL32.dll
 0002:0000007c       __imp__SetEvent@4          1002007c     kernel32:KERNEL32.dll
 0002:00000080       __imp__CreateMutexW@12     10020080     kernel32:KERNEL32.dll
 0002:00000084       __imp__CreateEventW@16     10020084     kernel32:KERNEL32.dll
 0002:00000088       __imp__GetCurrentProcessId@0 10020088     kernel32:KERNEL32.dll
 0002:0000008c       __imp__CreateFileW@28      1002008c     kernel32:KERNEL32.dll
 0002:00000090       __imp__GetConsoleMode@8    10020090     kernel32:KERNEL32.dll
 0002:00000094       __imp__GetConsoleOutputCP@0 10020094     kernel32:KERNEL32.dll
 0002:00000098       __imp__WriteFile@20        10020098     kernel32:KERNEL32.dll
 0002:0000009c       __imp__FlushFileBuffers@4  1002009c     kernel32:KERNEL32.dll
 0002:000000a0       __imp__SetStdHandle@8      100200a0     kernel32:KERNEL32.dll
 0002:000000a4       __imp__SetFilePointerEx@20 100200a4     kernel32:KERNEL32.dll
 0002:000000a8       __imp__GetStringTypeW@16   100200a8     kernel32:KERNEL32.dll
 0002:000000ac       __imp__FreeEnvironmentStringsW@4 100200ac     kernel32:KERNEL32.dll
 0002:000000b0       __imp__GetEnvironmentStringsW@0 100200b0     kernel32:KERNEL32.dll
 0002:000000b4       __imp__lstrcmpiW@8         100200b4     kernel32:KERNEL32.dll
 0002:000000b8       __imp__GetCommandLineA@0   100200b8     kernel32:KERNEL32.dll
 0002:000000bc       __imp__GetCPInfo@8         100200bc     kernel32:KERNEL32.dll
 0002:000000c0       __imp__GetOEMCP@0          100200c0     kernel32:KERNEL32.dll
 0002:000000c4       __imp__GetACP@0            100200c4     kernel32:KERNEL32.dll
 0002:000000c8       __imp__IsValidCodePage@4   100200c8     kernel32:KERNEL32.dll
 0002:000000cc       __imp__FindNextFileW@8     100200cc     kernel32:KERNEL32.dll
 0002:000000d0       __imp__FindFirstFileExW@24 100200d0     kernel32:KERNEL32.dll
 0002:000000d4       __imp__FindClose@4         100200d4     kernel32:KERNEL32.dll
 0002:000000d8       __imp__GetFileType@4       100200d8     kernel32:KERNEL32.dll
 0002:000000dc       __imp__GetStdHandle@4      100200dc     kernel32:KERNEL32.dll
 0002:000000e0       __imp__LCMapStringW@24     100200e0     kernel32:KERNEL32.dll
 0002:000000e4       __imp__HeapReAlloc@16      100200e4     kernel32:KERNEL32.dll
 0002:000000e8       __imp__HeapSize@12         100200e8     kernel32:KERNEL32.dll
 0002:000000ec       __imp__MulDiv@12           100200ec     kernel32:KERNEL32.dll
 0002:000000f0       __imp__GlobalLock@4        100200f0     kernel32:KERNEL32.dll
 0002:000000f4       __imp__GlobalUnlock@4      100200f4     kernel32:KERNEL32.dll
 0002:000000f8       __imp__GlobalAlloc@8       100200f8     kernel32:KERNEL32.dll
 0002:000000fc       __imp__FindResourceW@12    100200fc     kernel32:KERNEL32.dll
 0002:00000100       __imp__SizeofResource@8    10020100     kernel32:KERNEL32.dll
 0002:00000104       __imp__LoadResource@8      10020104     kernel32:KERNEL32.dll
 0002:00000108       __imp__LoadLibraryExW@12   10020108     kernel32:KERNEL32.dll
 0002:0000010c       __imp__GetProcAddress@8    1002010c     kernel32:KERNEL32.dll
 0002:00000110       __imp__GetModuleHandleW@4  10020110     kernel32:KERNEL32.dll
 0002:00000114       __imp__GetModuleFileNameW@12 10020114     kernel32:KERNEL32.dll
 0002:00000118       __imp__FreeLibrary@4       10020118     kernel32:KERNEL32.dll
 0002:0000011c       __imp__DisableThreadLibraryCalls@4 1002011c     kernel32:KERNEL32.dll
 0002:00000120       __imp__GetCurrentThreadId@0 10020120     kernel32:KERNEL32.dll
 0002:00000124       __imp__Sleep@4             10020124     kernel32:KERNEL32.dll
 0002:00000128       __imp__WaitForSingleObject@8 10020128     kernel32:KERNEL32.dll
 0002:0000012c       __imp__ReleaseMutex@4      1002012c     kernel32:KERNEL32.dll
 0002:00000130       __imp__ResetEvent@4        10020130     kernel32:KERNEL32.dll
 0002:00000134       __imp__EnterCriticalSection@4 10020134     kernel32:KERNEL32.dll
 0002:00000138       __imp__LeaveCriticalSection@4 10020138     kernel32:KERNEL32.dll
 0002:0000013c       __imp__SetLastError@4      1002013c     kernel32:KERNEL32.dll
 0002:00000140       __imp__EncodePointer@4     10020140     kernel32:KERNEL32.dll
 0002:00000144       __imp__DeleteCriticalSection@4 10020144     kernel32:KERNEL32.dll
 0002:00000148       __imp__InitializeCriticalSectionEx@12 10020148     kernel32:KERNEL32.dll
 0002:0000014c       __imp__GetLastError@0      1002014c     kernel32:KERNEL32.dll
 0002:00000150       __imp__RaiseException@16   10020150     kernel32:KERNEL32.dll
 0002:00000154       __imp__DecodePointer@4     10020154     kernel32:KERNEL32.dll
 0002:00000158       __imp__WideCharToMultiByte@32 10020158     kernel32:KERNEL32.dll
 0002:0000015c       __imp__GetCommandLineW@0   1002015c     kernel32:KERNEL32.dll
 0002:00000160       __imp__MultiByteToWideChar@24 10020160     kernel32:KERNEL32.dll
 0002:00000164       __imp__WriteConsoleW@20    10020164     kernel32:KERNEL32.dll
 0002:00000168       __imp__GetModuleHandleExW@12 10020168     kernel32:KERNEL32.dll
 0002:0000016c       __imp__ExitProcess@4       1002016c     kernel32:KERNEL32.dll
 0002:00000170       __imp__VirtualQuery@12     10020170     kernel32:KERNEL32.dll
 0002:00000174       __imp__VirtualProtect@16   10020174     kernel32:KERNEL32.dll
 0002:00000178       __imp__GetSystemInfo@4     10020178     kernel32:KERNEL32.dll
 0002:0000017c       __imp__TlsFree@4           1002017c     kernel32:KERNEL32.dll
 0002:00000180       __imp__TlsSetValue@8       10020180     kernel32:KERNEL32.dll
 0002:00000184       __imp__TlsGetValue@4       10020184     kernel32:KERNEL32.dll
 0002:00000188       __imp__TlsAlloc@0          10020188     kernel32:KERNEL32.dll
 0002:0000018c       __imp__InterlockedFlushSList@4 1002018c     kernel32:KERNEL32.dll
 0002:00000190       __imp__RtlUnwind@16        10020190     kernel32:KERNEL32.dll
 0002:00000194       __imp__LoadLibraryExA@12   10020194     kernel32:KERNEL32.dll
 0002:00000198       __imp__VirtualFree@12      10020198     kernel32:KERNEL32.dll
 0002:0000019c       __imp__VirtualAlloc@16     1002019c     kernel32:KERNEL32.dll
 0002:000001a0       __imp__FlushInstructionCache@12 100201a0     kernel32:KERNEL32.dll
 0002:000001a4       __imp__InterlockedPushEntrySList@8 100201a4     kernel32:KERNEL32.dll
 0002:000001a8       __imp__InterlockedPopEntrySList@4 100201a8     kernel32:KERNEL32.dll
 0002:000001ac       __imp__GetProcessHeap@0    100201ac     kernel32:KERNEL32.dll
 0002:000001b0       __imp__HeapFree@12         100201b0     kernel32:KERNEL32.dll
 0002:000001b4       __imp__HeapAlloc@12        100201b4     kernel32:KERNEL32.dll
 0002:000001b8       __imp__OutputDebugStringW@4 100201b8     kernel32:KERNEL32.dll
 0002:000001bc       __imp__InitializeSListHead@4 100201bc     kernel32:KERNEL32.dll
 0002:000001c0       __imp__GetSystemTimeAsFileTime@4 100201c0     kernel32:KERNEL32.dll
 0002:000001c4       __imp__QueryPerformanceCounter@4 100201c4     kernel32:KERNEL32.dll
 0002:000001c8       __imp__GetStartupInfoW@4   100201c8     kernel32:KERNEL32.dll
 0002:000001cc       __imp__IsDebuggerPresent@0 100201cc     kernel32:KERNEL32.dll
 0002:000001d0       __imp__IsProcessorFeaturePresent@4 100201d0     kernel32:KERNEL32.dll
 0002:000001d4       __imp__TerminateProcess@8  100201d4     kernel32:KERNEL32.dll
 0002:000001d8       __imp__GetCurrentProcess@0 100201d8     kernel32:KERNEL32.dll
 0002:000001dc       __imp__SetUnhandledExceptionFilter@4 100201dc     kernel32:KERNEL32.dll
 0002:000001e0       __imp__UnhandledExceptionFilter@4 100201e0     kernel32:KERNEL32.dll
 0002:000001e4       __imp__InitializeCriticalSectionAndSpinCount@8 100201e4     kernel32:KERNEL32.dll
 0002:000001e8       __imp__WaitForSingleObjectEx@12 100201e8     kernel32:KERNEL32.dll
 0002:000001ec       \177KERNEL32_NULL_THUNK_DATA 100201ec     kernel32:KERNEL32.dll
 0002:000001f0       __imp__OleCreatePropertyFrame@44 100201f0     oleaut32:OLEAUT32.dll
 0002:000001f4       __imp__UnRegisterTypeLib@20 100201f4     oleaut32:OLEAUT32.dll
 0002:000001f8       __imp__RegisterTypeLib@12  100201f8     oleaut32:OLEAUT32.dll
 0002:000001fc       __imp__LoadRegTypeLib@20   100201fc     oleaut32:OLEAUT32.dll
 0002:00000200       __imp__LoadTypeLib@8       10020200     oleaut32:OLEAUT32.dll
 0002:00000204       __imp__VarUI4FromStr@16    10020204     oleaut32:OLEAUT32.dll
 0002:00000208       __imp__VariantInit@4       10020208     oleaut32:OLEAUT32.dll
 0002:0000020c       __imp__SysAllocStringByteLen@8 1002020c     oleaut32:OLEAUT32.dll
 0002:00000210       __imp__SysStringByteLen@4  10020210     oleaut32:OLEAUT32.dll
 0002:00000214       __imp__VariantChangeType@16 10020214     oleaut32:OLEAUT32.dll
 0002:00000218       __imp__VariantClear@4      10020218     oleaut32:OLEAUT32.dll
 0002:0000021c       __imp__SysStringLen@4      1002021c     oleaut32:OLEAUT32.dll
 0002:00000220       __imp__SysFreeString@4     10020220     oleaut32:OLEAUT32.dll
 0002:00000224       __imp__SysAllocStringLen@8 10020224     oleaut32:OLEAUT32.dll
 0002:00000228       __imp__SysAllocString@4    10020228     oleaut32:OLEAUT32.dll
 0002:0000022c       \177OLEAUT32_NULL_THUNK_DATA 1002022c     oleaut32:OLEAUT32.dll
 0002:00000230       __imp__UnregisterClassW@8  10020230     user32:USER32.dll
 0002:00000234       __imp__PostMessageW@16     10020234     user32:USER32.dll
 0002:00000238       __imp__DefWindowProcW@16   10020238     user32:USER32.dll
 0002:0000023c       __imp__CallWindowProcW@20  1002023c     user32:USER32.dll
 0002:00000240       __imp__RegisterClassExW@4  10020240     user32:USER32.dll
 0002:00000244       __imp__GetClassInfoExW@12  10020244     user32:USER32.dll
 0002:00000248       __imp__CreateWindowExW@48  10020248     user32:USER32.dll
 0002:0000024c       __imp__IsWindow@4          1002024c     user32:USER32.dll
 0002:00000250       __imp__IsChild@8           10020250     user32:USER32.dll
 0002:00000254       __imp__DestroyWindow@4     10020254     user32:USER32.dll
 0002:00000258       __imp__ShowWindow@8        10020258     user32:USER32.dll
 0002:0000025c       __imp__SetWindowPos@28     1002025c     user32:USER32.dll
 0002:00000260       __imp__CharNextW@4         10020260     user32:USER32.dll
 0002:00000264       __imp__SetFocus@4          10020264     user32:USER32.dll
 0002:00000268       __imp__LoadBitmapW@8       10020268     user32:USER32.dll
 0002:0000026c       __imp__RegisterClassW@4    1002026c     user32:USER32.dll
 0002:00000270       __imp__PeekMessageW@20     10020270     user32:USER32.dll
 0002:00000274       __imp__LoadCursorW@8       10020274     user32:USER32.dll
 0002:00000278       __imp__GetParent@4         10020278     user32:USER32.dll
 0002:0000027c       __imp__SetWindowLongW@12   1002027c     user32:USER32.dll
 0002:00000280       __imp__GetWindowLongW@8    10020280     user32:USER32.dll
 0002:00000284       __imp__PtInRect@12         10020284     user32:USER32.dll
 0002:00000288       __imp__EqualRect@8         10020288     user32:USER32.dll
 0002:0000028c       __imp__OffsetRect@12       1002028c     user32:USER32.dll
 0002:00000290       __imp__UnionRect@12        10020290     user32:USER32.dll
 0002:00000294       __imp__IntersectRect@12    10020294     user32:USER32.dll
 0002:00000298       __imp__GetClientRect@8     10020298     user32:USER32.dll
 0002:0000029c       __imp__InvalidateRect@12   1002029c     user32:USER32.dll
 0002:000002a0       __imp__SetWindowRgn@12     100202a0     user32:USER32.dll
 0002:000002a4       __imp__EndPaint@8          100202a4     user32:USER32.dll
 0002:000002a8       __imp__BeginPaint@8        100202a8     user32:USER32.dll
 0002:000002ac       __imp__ReleaseDC@8         100202ac     user32:USER32.dll
 0002:000002b0       __imp__GetDC@4             100202b0     user32:USER32.dll
 0002:000002b4       __imp__GetKeyState@4       100202b4     user32:USER32.dll
 0002:000002b8       __imp__GetFocus@0          100202b8     user32:USER32.dll
 0002:000002bc       \177USER32_NULL_THUNK_DATA 100202bc     user32:USER32.dll
 0002:000002c0       __imp__StringFromGUID2@12  100202c0     ole32:ole32.dll
 0002:000002c4       __imp__CoTaskMemAlloc@4    100202c4     ole32:ole32.dll
 0002:000002c8       __imp__CoTaskMemRealloc@8  100202c8     ole32:ole32.dll
 0002:000002cc       __imp__CoTaskMemFree@4     100202cc     ole32:ole32.dll
 0002:000002d0       __imp__ReadClassStm@8      100202d0     ole32:ole32.dll
 0002:000002d4       __imp__WriteClassStm@8     100202d4     ole32:ole32.dll
 0002:000002d8       __imp__CreateDataAdviseHolder@4 100202d8     ole32:ole32.dll
 0002:000002dc       __imp__OleSaveToStream@8   100202dc     ole32:ole32.dll
 0002:000002e0       __imp__CreateOleAdviseHolder@4 100202e0     ole32:ole32.dll
 0002:000002e4       __imp__OleRegGetUserType@12 100202e4     ole32:ole32.dll
 0002:000002e8       __imp__OleRegGetMiscStatus@12 100202e8     ole32:ole32.dll
 0002:000002ec       __imp__OleRegEnumVerbs@8   100202ec     ole32:ole32.dll
 0002:000002f0       __imp__CLSIDFromProgID@8   100202f0     ole32:ole32.dll
 0002:000002f4       __imp__CoCreateInstance@20 100202f4     ole32:ole32.dll
 0002:000002f8       \177ole32_NULL_THUNK_DATA  100202f8     ole32:ole32.dll
 0002:000002fc       ___guard_check_icall_fptr  100202fc     LIBCMT:guard_support.obj
 0002:00000300       ___castguard_check_failure_os_handled_fptr 10020300     LIBCMT:guard_support.obj
 0002:00000304       ___xc_a                    10020304     LIBCMT:initializers.obj
 0002:0000031c       ___xc_z                    1002031c     LIBCMT:initializers.obj
 0002:00000320       ___xi_a                    10020320     LIBCMT:initializers.obj
 0002:00000328       ___acrt_stdio_initializer  10020328     libucrt:stdio_initializer.obj
 0002:0000032c       ___acrt_multibyte_initializer 1002032c     libucrt:multibyte_initializer.obj
 0002:00000330       ___acrt_tran_sse2_initializer 10020330     libucrt:sse2_initializer.obj
 0002:00000334       ___xi_z                    10020334     LIBCMT:initializers.obj
 0002:00000338       ___xl_a                    10020338     LIBCMT:tlssup.obj
 0002:0000033c       ___xl_z                    1002033c     LIBCMT:tlssup.obj
 0002:00000340       ___xp_a                    10020340     LIBCMT:initializers.obj
 0002:00000344       ___acrt_locale_terminator  10020344     libucrt:locale_initializer.obj
 0002:00000348       ___dcrt_console_output_terminator 10020348     libucrt:console_output_initializer.obj
 0002:0000034c       ___acrt_stdio_terminator   1002034c     libucrt:stdio_initializer.obj
 0002:00000350       ___xp_z                    10020350     LIBCMT:initializers.obj
 0002:00000354       ___xt_a                    10020354     LIBCMT:initializers.obj
 0002:00000358       ___xt_z                    10020358     LIBCMT:initializers.obj
 0002:00000360       ??_C@_13HADIAKP@?$AAS@     10020360     OposVariant.obj
 0002:00000364       ??_C@_13LHMFKAAD@?$AAM@    10020364     OposVariant.obj
 0002:00000368       ??_C@_13MKMNOPIJ@?$AAD@    10020368     OposVariant.obj
 0002:0000036c       ??_C@_13OPKGLAFF@?$AAB@    1002036c     OposVariant.obj
 0002:00000370       ??_C@_17LLMMEOJD@?$AAV?$AAa?$AAl@ 10020370     OposVariant.obj
 0002:00000378       ??_C@_1BI@JFAIJMHL@?$AAF?$AAo?$AAr?$AAc?$AAe?$AAR?$AAe?$AAm?$AAo?$AAv?$AAe@ 10020378     OposVariant.obj
 0002:00000390       ??_C@_1BC@GCKHIPE@?$AAN?$AAo?$AAR?$AAe?$AAm?$AAo?$AAv?$AAe@ 10020390     OposVariant.obj
 0002:000003a4       ??_C@_1O@JDLOHAN@?$AAD?$AAe?$AAl?$AAe?$AAt?$AAe@ 100203a4     OposVariant.obj
 0002:000003b4       ??_C@_11LOCGONAA@@         100203b4     OposVariant.obj
 0002:000003b8       __GUID_00020412_0000_0000_c000_000000000046 100203b8     DeviceMonitor.obj
 0002:000003c8       __GUID_00020401_0000_0000_c000_000000000046 100203c8     DeviceMonitor.obj
 0002:000003d8       ??_7?$CComObject@V?$CComEnum@UIEnumConnections@@$1?_GUID_b196b287_bab4_101a_b69c_00aa00341d07@@3U__s_GUID@@BUtagCONNECTDATA@@V?$_Copy@UtagCONNECTDATA@@@ATL@@VCComSingleThreadModel@6@@ATL@@@ATL@@6B@ 100203d8     DeviceMonitor.obj
 0002:000003f8       __GUID_55980ba0_35aa_11cf_b671_00aa004cd6d8 100203f8     DeviceMonitor.obj
 0002:00000408       __GUID_b196b28b_bab4_101a_b69c_00aa00341d07 10020408     DeviceMonitor.obj
 0002:00000418       ?_entries@?1??_GetEntries@?$CComEnum@UIEnumConnections@@$1?_GUID_b196b287_bab4_101a_b69c_00aa00341d07@@3U__s_GUID@@BUtagCONNECTDATA@@V?$_Copy@UtagCONNECTDATA@@@ATL@@VCComSingleThreadModel@6@@ATL@@SGPBU_ATL_INTMAP_ENTRY@3@XZ@4QBU43@B 10020418     DeviceMonitor.obj
 0002:00000430       ??_7CComClassFactory@ATL@@6B@ 10020430     DeviceMonitor.obj
 0002:00000448       ?_entries@?1??_GetEntries@CComClassFactory@ATL@@SGPBU_ATL_INTMAP_ENTRY@3@XZ@4QBU43@B 10020448     DeviceMonitor.obj
 0002:00000460       __GUID_00000001_0000_0000_c000_000000000046 10020460     DeviceMonitor.obj
 0002:00000470       _IID_IOPOSDeviceMonitor_1_16 10020470     DeviceMonitor.obj
 0002:00000480       ??_C@_1BK@BIGILECK@?$AAA?$AAd?$AAv?$AAa?$AAp?$AAi?$AA3?$AA2?$AA?4?$AAd?$AAl?$AAl@ 10020480     DeviceMonitor.obj
 0002:0000049c       ??_C@_0BI@MNCFCPFK@RegCreateKeyTransactedW@ 1002049c     DeviceMonitor.obj
 0002:000004b4       _IID_IOPOSDeviceMonitor    100204b4     DeviceMonitor.obj
 0002:000004c4       _LIBID_OposDeviceMonitor_CCO 100204c4     DeviceMonitor.obj
 0002:000004d4       _DIID__IOPOSDeviceMonitorEvents 100204d4     DeviceMonitor.obj
 0002:000004e4       _CLSID_OPOSDeviceMonitor   100204e4     DeviceMonitor.obj
 0002:000004f4       __GUID_b196b287_bab4_101a_b69c_00aa00341d07 100204f4     DeviceMonitor.obj
 0002:00000504       __GUID_b196b285_bab4_101a_b69c_00aa00341d07 10020504     DeviceMonitor.obj
 0002:00000514       __GUID_00000114_0000_0000_c000_000000000046 10020514     DeviceMonitor.obj
 0002:00000524       __GUID_a6bc3ac0_dbaa_11ce_9de3_00aa004bb851 10020524     DeviceMonitor.obj
 0002:00000534       __GUID_0000010c_0000_0000_c000_000000000046 10020534     DeviceMonitor.obj
 0002:00000544       __GUID_00000146_0000_0000_c000_000000000046 10020544     DeviceMonitor.obj
 0002:00000554       ??_7CComModule@ATL@@6B@    10020554     DeviceMonitor.obj
 0002:00000580       ?_entries@?1??_GetEntries@COPOSDeviceMonitor@@SGPBU_ATL_INTMAP_ENTRY@ATL@@XZ@4QBU34@B 10020580     DeviceMonitor.obj
 0002:000006a0       __GUID_00000000_0000_0000_c000_000000000046 100206a0     DeviceMonitor.obj
 0002:000006b0       __GUID_00020400_0000_0000_c000_000000000046 100206b0     DeviceMonitor.obj
 0002:000006c0       __GUID_cf51ed10_62fe_11cf_bf86_00a0c9034836 100206c0     DeviceMonitor.obj
 0002:000006d0       __GUID_0000010a_0000_0000_c000_000000000046 100206d0     DeviceMonitor.obj
 0002:000006e0       __GUID_b196b283_bab4_101a_b69c_00aa00341d07 100206e0     DeviceMonitor.obj
 0002:000006f0       __GUID_cb5bdc81_93c1_11cf_8f20_00805f2cd064 100206f0     DeviceMonitor.obj
 0002:00000700       ?pPropMap@?1??GetPropertyMap@COPOSDeviceMonitor@@SAPBUATL_PROPMAP_ENTRY@ATL@@XZ@4QBU34@B 10020700     DeviceMonitor.obj
 0002:0000076c       ??_C@_17DGDADEHL@?$AA_?$AAc?$AAx@ 1002076c     DeviceMonitor.obj
 0002:00000774       ??_C@_17IOIMFDBO@?$AA_?$AAc?$AAy@ 10020774     DeviceMonitor.obj
 0002:0000077c       __GUID_922eada0_3424_11cf_b670_00aa004cd6d8 1002077c     DeviceMonitor.obj
 0002:0000078c       __GUID_9c2cad80_3424_11cf_b670_00aa004cd6d8 1002078c     DeviceMonitor.obj
 0002:0000079c       __GUID_00000119_0000_0000_c000_000000000046 1002079c     DeviceMonitor.obj
 0002:000007ac       __GUID_b196b289_bab4_101a_b69c_00aa00341d07 100207ac     DeviceMonitor.obj
 0002:000007bc       ??_7?$CComObjectCached@VCComClassFactory@ATL@@@ATL@@6B@ 100207bc     DeviceMonitor.obj
 0002:000007d4       ??_C@_1CE@PGFMOFKI@?$AAS?$AAt?$AAa?$AAt?$AAu?$AAs?$AAU?$AAp?$AAd?$AAa?$AAt?$AAe?$AAE?$AAv?$AAe@ 100207d4     DeviceMonitor.obj
 0002:000007f8       ??_C@_1BG@LODEBHDD@?$AAE?$AAr?$AAr?$AAo?$AAr?$AAE?$AAv?$AAe?$AAn?$AAt@ 100207f8     DeviceMonitor.obj
 0002:00000810       ??_C@_1BM@CBGEBBBJ@?$AAD?$AAi?$AAr?$AAe?$AAc?$AAt?$AAI?$AAO?$AAE?$AAv?$AAe?$AAn?$AAt@ 10020810     DeviceMonitor.obj
 0002:0000082c       ??_C@_1BE@IEBMACEM@?$AAD?$AAa?$AAt?$AAa?$AAE?$AAv?$AAe?$AAn?$AAt@ 1002082c     DeviceMonitor.obj
 0002:00000840       __GUID_b196b286_bab4_101a_b69c_00aa00341d07 10020840     DeviceMonitor.obj
 0002:00000850       __GUID_00000117_0000_0000_c000_000000000046 10020850     DeviceMonitor.obj
 0002:00000860       ??_C@_1BC@ENICKDH@?$AAC?$AAo?$AAn?$AAt?$AAe?$AAn?$AAt?$AAs@ 10020860     DeviceMonitor.obj
 0002:00000874       ??_7?$CComObject@V?$CComEnum@UIEnumConnectionPoints@@$1?_GUID_b196b285_bab4_101a_b69c_00aa00341d07@@3U__s_GUID@@BPAUIConnectionPoint@@V?$_CopyInterface@UIConnectionPoint@@@ATL@@VCComSingleThreadModel@6@@ATL@@@ATL@@6B@ 10020874     DeviceMonitor.obj
 0002:00000894       ??_C@_1M@KANJNLFF@?$AAC?$AAL?$AAS?$AAI?$AAD@ 10020894     DeviceMonitor.obj
 0002:000008a0       ??_C@_1M@EJNEECMJ@?$AAA?$AAp?$AAp?$AAI?$AAD@ 100208a0     DeviceMonitor.obj
 0002:000008ac       ?rgszNeverDelete@CRegParser@ATL@@1QBQB_WB 100208ac     DeviceMonitor.obj
 0002:000008dc       ??_7CRegObject@ATL@@6B@    100208dc     DeviceMonitor.obj
 0002:000008f4       __GUID_0000010e_0000_0000_c000_000000000046 100208f4     DeviceMonitor.obj
 0002:00000904       __GUID_b196b288_bab4_101a_b69c_00aa00341d07 10020904     DeviceMonitor.obj
 0002:00000914       ??_C@_1CK@OEKPKBNA@?$AAC?$AAo?$AAm?$AAp?$AAo?$AAn?$AAe?$AAn?$AAt?$AA?5?$AAC?$AAa?$AAt?$AAe?$AAg@ 10020914     DeviceMonitor.obj
 0002:00000940       ??_C@_1BC@NKMMNMGL@?$AAF?$AAi?$AAl?$AAe?$AAT?$AAy?$AAp?$AAe@ 10020940     DeviceMonitor.obj
 0002:00000954       ??_C@_1BE@EKPAFMCP@?$AAI?$AAn?$AAt?$AAe?$AAr?$AAf?$AAa?$AAc?$AAe@ 10020954     DeviceMonitor.obj
 0002:00000968       ??_C@_1BC@MAICEHGI@?$AAH?$AAa?$AAr?$AAd?$AAw?$AAa?$AAr?$AAe@ 10020968     DeviceMonitor.obj
 0002:0000097c       ??_C@_19HLLLM@?$AAM?$AAi?$AAm?$AAe@ 1002097c     DeviceMonitor.obj
 0002:00000988       ??_C@_17OMAOINJK@?$AAS?$AAA?$AAM@ 10020988     DeviceMonitor.obj
 0002:00000990       ??_C@_1BC@IBECJAAI@?$AAS?$AAE?$AAC?$AAU?$AAR?$AAI?$AAT?$AAY@ 10020990     DeviceMonitor.obj
 0002:000009a4       ??_C@_1O@GBFINDKL@?$AAS?$AAY?$AAS?$AAT?$AAE?$AAM@ 100209a4     DeviceMonitor.obj
 0002:000009b4       ??_C@_1BC@EAHCMADO@?$AAS?$AAo?$AAf?$AAt?$AAw?$AAa?$AAr?$AAe@ 100209b4     DeviceMonitor.obj
 0002:000009c8       ??_C@_1BA@JIHHIEDE@?$AAT?$AAy?$AAp?$AAe?$AAL?$AAi?$AAb@ 100209c8     DeviceMonitor.obj
 0002:000009d8       ?map@?1??HKeyFromString@CRegParser@ATL@@KAPAUHKEY__@@PA_W@Z@4QBUkeymap@?1??123@KAPAU4@0@Z@B 100209d8     DeviceMonitor.obj
 0002:00000a48       ??_C@_19NCHLBIN@?$AAH?$AAK?$AAC?$AAR@ 10020a48     DeviceMonitor.obj
 0002:00000a54       ??_C@_19JAPAIJDE@?$AAH?$AAK?$AAC?$AAU@ 10020a54     DeviceMonitor.obj
 0002:00000a60       ??_C@_19PEALEEJB@?$AAH?$AAK?$AAL?$AAM@ 10020a60     DeviceMonitor.obj
 0002:00000a6c       ??_C@_17PJOJPMPB@?$AAH?$AAK?$AAU@ 10020a6c     DeviceMonitor.obj
 0002:00000a74       ??_C@_19PNBHMJPL@?$AAH?$AAK?$AAP?$AAD@ 10020a74     DeviceMonitor.obj
 0002:00000a80       ??_C@_19GFFAIJHG@?$AAH?$AAK?$AAD?$AAD@ 10020a80     DeviceMonitor.obj
 0002:00000a8c       ??_C@_19OFICIBHH@?$AAH?$AAK?$AAC?$AAC@ 10020a8c     DeviceMonitor.obj
 0002:00000a98       ??_C@_1CE@PACHPJFI@?$AAH?$AAK?$AAE?$AAY?$AA_?$AAC?$AAL?$AAA?$AAS?$AAS?$AAE?$AAS?$AA_?$AAR?$AAO@ 10020a98     DeviceMonitor.obj
 0002:00000abc       ??_C@_1CE@HLHNCBPM@?$AAH?$AAK?$AAE?$AAY?$AA_?$AAC?$AAU?$AAR?$AAR?$AAE?$AAN?$AAT?$AA_?$AAU?$AAS@ 10020abc     DeviceMonitor.obj
 0002:00000ae0       ??_C@_1CG@GFBEANJL@?$AAH?$AAK?$AAE?$AAY?$AA_?$AAL?$AAO?$AAC?$AAA?$AAL?$AA_?$AAM?$AAA?$AAC?$AAH@ 10020ae0     DeviceMonitor.obj
 0002:00000b08       ??_C@_1BG@BGODANIO@?$AAH?$AAK?$AAE?$AAY?$AA_?$AAU?$AAS?$AAE?$AAR?$AAS@ 10020b08     DeviceMonitor.obj
 0002:00000b20       ??_C@_1CM@KHNNAOIC@?$AAH?$AAK?$AAE?$AAY?$AA_?$AAP?$AAE?$AAR?$AAF?$AAO?$AAR?$AAM?$AAA?$AAN?$AAC@ 10020b20     DeviceMonitor.obj
 0002:00000b4c       ??_C@_1BM@HAGMMHIA@?$AAH?$AAK?$AAE?$AAY?$AA_?$AAD?$AAY?$AAN?$AA_?$AAD?$AAA?$AAT?$AAA@ 10020b4c     DeviceMonitor.obj
 0002:00000b68       ??_C@_1CI@BBJOACGG@?$AAH?$AAK?$AAE?$AAY?$AA_?$AAC?$AAU?$AAR?$AAR?$AAE?$AAN?$AAT?$AA_?$AAC?$AAO@ 10020b68     DeviceMonitor.obj
 0002:00000b90       __GUID_00000113_0000_0000_c000_000000000046 10020b90     DeviceMonitor.obj
 0002:00000ba0       __GUID_00000109_0000_0000_c000_000000000046 10020ba0     DeviceMonitor.obj
 0002:00000bb0       __GUID_7fd52380_4e07_101b_ae2d_08002b2ec713 10020bb0     DeviceMonitor.obj
 0002:00000bc0       __GUID_1c2056cc_5ef4_101b_8bc8_00aa003e3b29 10020bc0     DeviceMonitor.obj
 0002:00000bd0       ??_C@_1EA@NHKLICFA@?$AAH?$AAK?$AAC?$AAU?$AA?$AN?$AA?6?$AA?$HL?$AA?7?$AAS?$AAo?$AAf?$AAt?$AAw?$AAa?$AAr@ 10020bd0     DeviceMonitor.obj
 0002:00000c10       ??_C@_1BE@LJOLIMEM@?$AA?$AN?$AA?6?$AA?7?$AA?$HN?$AA?$AN?$AA?6?$AA?$HN?$AA?$AN?$AA?6@ 10020c10     DeviceMonitor.obj
 0002:00000c24       __GUID_00000112_0000_0000_c000_000000000046 10020c24     DeviceMonitor.obj
 0002:00000c34       ??_C@_1O@MNLDABAF@?$AAM?$AAo?$AAd?$AAu?$AAl?$AAe@ 10020c34     DeviceMonitor.obj
 0002:00000c44       ??_C@_1BG@JBACFMF@?$AAM?$AAo?$AAd?$AAu?$AAl?$AAe?$AA_?$AAR?$AAa?$AAw@ 10020c44     DeviceMonitor.obj
 0002:00000c5c       ??_C@_1BC@KAILKFFG@?$AAR?$AAE?$AAG?$AAI?$AAS?$AAT?$AAR?$AAY@ 10020c5c     DeviceMonitor.obj
 0002:00000c70       __GUID_3af24292_0c96_11ce_a0cf_00aa00600ab8 10020c70     DeviceMonitor.obj
 0002:00000c80       __GUID_00000127_0000_0000_c000_000000000046 10020c80     DeviceMonitor.obj
 0002:00000c90       __GUID_0000010d_0000_0000_c000_000000000046 10020c90     DeviceMonitor.obj
 0002:00000ca0       ??_C@_1M@PPPPCDEP@?$AAA?$AAP?$AAP?$AAI?$AAD@ 10020ca0     DeviceMonitor.obj
 0002:00000cac       ??_7?$CComContainedObject@VCOPOSDeviceMonitor@@@ATL@@6B?$IDispatchImpl@UIOPOSDeviceMonitor@@$1?IID_IOPOSDeviceMonitor@@3U_GUID@@B$1?LIBID_OposDeviceMonitor_CCO@@3U3@B$00$0A@VCComTypeInfoHolder@ATL@@@1@@ 10020cac     DeviceMonitor.obj
 0002:00000dac       ??_7?$CComContainedObject@VCOPOSDeviceMonitor@@@ATL@@6BCComControlBase@1@@ 10020dac     DeviceMonitor.obj
 0002:00000dc0       ??_7?$CComContainedObject@VCOPOSDeviceMonitor@@@ATL@@6B?$CWindowImpl@VCOPOSDeviceMonitor@@VCWindow@ATL@@V?$CWinTraits@$0FGAAAAAA@$0A@@3@@1@@ 10020dc0     DeviceMonitor.obj
 0002:00000dd0       ??_7?$CComContainedObject@VCOPOSDeviceMonitor@@@ATL@@6B?$IPersistStreamInitImpl@VCOPOSDeviceMonitor@@@1@@ 10020dd0     DeviceMonitor.obj
 0002:00000df4       ??_7?$CComContainedObject@VCOPOSDeviceMonitor@@@ATL@@6B?$IOleControlImpl@VCOPOSDeviceMonitor@@@1@@ 10020df4     DeviceMonitor.obj
 0002:00000e10       ??_7?$CComContainedObject@VCOPOSDeviceMonitor@@@ATL@@6B?$IOleObjectImpl@VCOPOSDeviceMonitor@@@1@@ 10020e10     DeviceMonitor.obj
 0002:00000e70       ??_7?$CComContainedObject@VCOPOSDeviceMonitor@@@ATL@@6B?$IOleInPlaceActiveObjectImpl@VCOPOSDeviceMonitor@@@1@@ 10020e70     DeviceMonitor.obj
 0002:00000e98       ??_7?$CComContainedObject@VCOPOSDeviceMonitor@@@ATL@@6B?$IViewObjectExImpl@VCOPOSDeviceMonitor@@@1@@ 10020e98     DeviceMonitor.obj
 0002:00000ed4       ??_7?$CComContainedObject@VCOPOSDeviceMonitor@@@ATL@@6B?$IOleInPlaceObjectWindowlessImpl@VCOPOSDeviceMonitor@@@1@@ 10020ed4     DeviceMonitor.obj
 0002:00000f00       ??_7?$CComContainedObject@VCOPOSDeviceMonitor@@@ATL@@6B?$IConnectionPointContainerImpl@VCOPOSDeviceMonitor@@@1@@ 10020f00     DeviceMonitor.obj
 0002:00000f14       ??_7?$CComContainedObject@VCOPOSDeviceMonitor@@@ATL@@6B?$IPersistStorageImpl@VCOPOSDeviceMonitor@@@1@@ 10020f14     DeviceMonitor.obj
 0002:00000f3c       ??_7?$CComContainedObject@VCOPOSDeviceMonitor@@@ATL@@6B?$ISpecifyPropertyPagesImpl@VCOPOSDeviceMonitor@@@1@@ 10020f3c     DeviceMonitor.obj
 0002:00000f4c       ??_7?$CComContainedObject@VCOPOSDeviceMonitor@@@ATL@@6B?$IQuickActivateImpl@VCOPOSDeviceMonitor@@@1@@ 10020f4c     DeviceMonitor.obj
 0002:00000f64       ??_7?$CComContainedObject@VCOPOSDeviceMonitor@@@ATL@@6B?$IDataObjectImpl@VCOPOSDeviceMonitor@@@1@@ 10020f64     DeviceMonitor.obj
 0002:00000f94       ??_7?$CComContainedObject@VCOPOSDeviceMonitor@@@ATL@@6B?$IProvideClassInfo2Impl@$1?CLSID_OPOSDeviceMonitor@@3U_GUID@@B$1?DIID__IOPOSDeviceMonitorEvents@@3U2@B$1?LIBID_OposDeviceMonitor_CCO@@3U2@B$00$0A@VCComTypeInfoHolder@ATL@@@1@@ 10020f94     DeviceMonitor.obj
 0002:00000fa8       ??_7?$CComContainedObject@VCOPOSDeviceMonitor@@@ATL@@6B?$IObjectSafetyImpl@VCOPOSDeviceMonitor@@$02@1@@ 10020fa8     DeviceMonitor.obj
 0002:00000fc0       ??_7?$CComContainedObject@VCOPOSDeviceMonitor@@@ATL@@6B?$IPropertyNotifySinkCP@VCOPOSDeviceMonitor@@VCComDynamicUnkArray@ATL@@@1@@ 10020fc0     DeviceMonitor.obj
 0002:00000fe0       ??_7?$CComContainedObject@VCOPOSDeviceMonitor@@@ATL@@6B?$CProxy_IOPOSEvents@VCOPOSDeviceMonitor@@@@@ 10020fe0     DeviceMonitor.obj
 0002:00001000       ??_7?$CComAggObject@VCOPOSDeviceMonitor@@@ATL@@6B@ 10021000     DeviceMonitor.obj
 0002:00001010       ??_7?$CComObject@VCOPOSDeviceMonitor@@@ATL@@6B?$IDispatchImpl@UIOPOSDeviceMonitor@@$1?IID_IOPOSDeviceMonitor@@3U_GUID@@B$1?LIBID_OposDeviceMonitor_CCO@@3U3@B$00$0A@VCComTypeInfoHolder@ATL@@@1@@ 10021010     DeviceMonitor.obj
 0002:00001110       ??_7?$CComObject@VCOPOSDeviceMonitor@@@ATL@@6BCComControlBase@1@@ 10021110     DeviceMonitor.obj
 0002:00001124       ??_7?$CComObject@VCOPOSDeviceMonitor@@@ATL@@6B?$CWindowImpl@VCOPOSDeviceMonitor@@VCWindow@ATL@@V?$CWinTraits@$0FGAAAAAA@$0A@@3@@1@@ 10021124     DeviceMonitor.obj
 0002:00001134       ??_7?$CComObject@VCOPOSDeviceMonitor@@@ATL@@6B?$IPersistStreamInitImpl@VCOPOSDeviceMonitor@@@1@@ 10021134     DeviceMonitor.obj
 0002:00001158       ??_7?$CComObject@VCOPOSDeviceMonitor@@@ATL@@6B?$IOleControlImpl@VCOPOSDeviceMonitor@@@1@@ 10021158     DeviceMonitor.obj
 0002:00001174       ??_7?$CComObject@VCOPOSDeviceMonitor@@@ATL@@6B?$IOleObjectImpl@VCOPOSDeviceMonitor@@@1@@ 10021174     DeviceMonitor.obj
 0002:000011d4       ??_7?$CComObject@VCOPOSDeviceMonitor@@@ATL@@6B?$IOleInPlaceActiveObjectImpl@VCOPOSDeviceMonitor@@@1@@ 100211d4     DeviceMonitor.obj
 0002:000011fc       ??_7?$CComObject@VCOPOSDeviceMonitor@@@ATL@@6B?$IViewObjectExImpl@VCOPOSDeviceMonitor@@@1@@ 100211fc     DeviceMonitor.obj
 0002:00001238       ??_7?$CComObject@VCOPOSDeviceMonitor@@@ATL@@6B?$IOleInPlaceObjectWindowlessImpl@VCOPOSDeviceMonitor@@@1@@ 10021238     DeviceMonitor.obj
 0002:00001264       ??_7?$CComObject@VCOPOSDeviceMonitor@@@ATL@@6B?$IConnectionPointContainerImpl@VCOPOSDeviceMonitor@@@1@@ 10021264     DeviceMonitor.obj
 0002:00001278       ??_7?$CComObject@VCOPOSDeviceMonitor@@@ATL@@6B?$IPersistStorageImpl@VCOPOSDeviceMonitor@@@1@@ 10021278     DeviceMonitor.obj
 0002:000012a0       ??_7?$CComObject@VCOPOSDeviceMonitor@@@ATL@@6B?$ISpecifyPropertyPagesImpl@VCOPOSDeviceMonitor@@@1@@ 100212a0     DeviceMonitor.obj
 0002:000012b0       ??_7?$CComObject@VCOPOSDeviceMonitor@@@ATL@@6B?$IQuickActivateImpl@VCOPOSDeviceMonitor@@@1@@ 100212b0     DeviceMonitor.obj
 0002:000012c8       ??_7?$CComObject@VCOPOSDeviceMonitor@@@ATL@@6B?$IDataObjectImpl@VCOPOSDeviceMonitor@@@1@@ 100212c8     DeviceMonitor.obj
 0002:000012f8       ??_7?$CComObject@VCOPOSDeviceMonitor@@@ATL@@6B?$IProvideClassInfo2Impl@$1?CLSID_OPOSDeviceMonitor@@3U_GUID@@B$1?DIID__IOPOSDeviceMonitorEvents@@3U2@B$1?LIBID_OposDeviceMonitor_CCO@@3U2@B$00$0A@VCComTypeInfoHolder@ATL@@@1@@ 100212f8     DeviceMonitor.obj
 0002:0000130c       ??_7?$CComObject@VCOPOSDeviceMonitor@@@ATL@@6B?$IObjectSafetyImpl@VCOPOSDeviceMonitor@@$02@1@@ 1002130c     DeviceMonitor.obj
 0002:00001324       ??_7?$CComObject@VCOPOSDeviceMonitor@@@ATL@@6B?$IPropertyNotifySinkCP@VCOPOSDeviceMonitor@@VCComDynamicUnkArray@ATL@@@1@@ 10021324     DeviceMonitor.obj
 0002:00001344       ??_7?$CComObject@VCOPOSDeviceMonitor@@@ATL@@6B?$CProxy_IOPOSEvents@VCOPOSDeviceMonitor@@@@@ 10021344     DeviceMonitor.obj
 0002:00001364       ??_C@_1O@GBFKGNEO@?$AAA?$AAT?$AAL?$AA?3?$AA?$CF?$AAp@ 10021364     DeviceMonitor.obj
 0002:00001374       __GUID_b196b284_bab4_101a_b69c_00aa00341d07 10021374     DeviceMonitor.obj
 0002:00001384       ??_C@_1BA@PICGEGJB@?$AAD?$AAI?$AAS?$AAP?$AAL?$AAA?$AAY@ 10021384     DeviceMonitor.obj
 0002:00001394       __GUID_9bfbbc02_eff1_101a_84ed_00aa00341d07 10021394     DeviceMonitor.obj
 0002:000013a4       ?_entries@?1??_GetEntries@?$CComEnum@UIEnumConnectionPoints@@$1?_GUID_b196b285_bab4_101a_b69c_00aa00341d07@@3U__s_GUID@@BPAUIConnectionPoint@@V?$_CopyInterface@UIConnectionPoint@@@ATL@@VCComSingleThreadModel@6@@ATL@@SGPBU_ATL_INTMAP_ENTRY@3@XZ@4QBU43@B 100213a4     DeviceMonitor.obj
 0002:000013bc       ??_C@_0BG@EKFFMJIO@RegOpenKeyTransactedW@ 100213bc     DeviceMonitor.obj
 0002:000013d4       ??_C@_0BI@HAKLOOGP@RegDeleteKeyTransactedW@ 100213d4     DeviceMonitor.obj
 0002:000013ec       ??_C@_0BA@LILAPHGE@RegDeleteKeyExW@ 100213ec     DeviceMonitor.obj
 0002:000013fc       ??_C@_19ILOCMLCJ@?$AA?4?$AAt?$AAl?$AAb@ 100213fc     DeviceMonitor.obj
 0002:00001408       __GUID_0002e012_0000_0000_c000_000000000046 10021408     DeviceMonitor.obj
 0002:00001418       ??_C@_1O@FHBGLCIO@?$AAC?$AAL?$AAS?$AAI?$AAD?$AA?2@ 10021418     DeviceMonitor.obj
 0002:00001428       ??_C@_1CK@IFBKBFAA@?$AA?2?$AAR?$AAe?$AAq?$AAu?$AAi?$AAr?$AAe?$AAd?$AA?5?$AAC?$AAa?$AAt?$AAe?$AAg@ 10021428     DeviceMonitor.obj
 0002:00001454       ??_C@_1DA@BIHALFED@?$AA?2?$AAI?$AAm?$AAp?$AAl?$AAe?$AAm?$AAe?$AAn?$AAt?$AAe?$AAd?$AA?5?$AAC?$AAa@ 10021454     DeviceMonitor.obj
 0002:00001484       ??_C@_1BK@EDKOLFBJ@?$AAO?$AAL?$AAE?$AAA?$AAU?$AAT?$AA3?$AA2?$AA?4?$AAD?$AAL?$AAL@ 10021484     DeviceMonitor.obj
 0002:000014a0       ??_C@_0BJ@CNLFOMHB@UnRegisterTypeLibForUser@ 100214a0     DeviceMonitor.obj
 0002:000014bc       ??_C@_0BH@LBOMMKPJ@RegisterTypeLibForUser@ 100214bc     DeviceMonitor.obj
 0002:000014d4       ??_C@_0P@MMNMMLGK@COFreezeEvents@ 100214d4     DeviceMonitorImpl.obj
 0002:000014e4       ??_C@_0BC@OGCGGIMP@GetPropertyNumber@ 100214e4     DeviceMonitorImpl.obj
 0002:000014f8       ??_C@_0BC@MDCNODNB@SetPropertyNumber@ 100214f8     DeviceMonitorImpl.obj
 0002:0000150c       ??_C@_0BC@CFCCMIMD@GetPropertyString@ 1002150c     DeviceMonitorImpl.obj
 0002:00001520       ??_C@_0BC@CJEDNN@SetPropertyString@ 10021520     DeviceMonitorImpl.obj
 0002:00001534       ??_C@_0M@LNPKKKDA@OpenService@ 10021534     DeviceMonitorImpl.obj
 0002:00001540       ??_C@_0M@PCMCHHMH@CheckHealth@ 10021540     DeviceMonitorImpl.obj
 0002:0000154c       ??_C@_0M@JGMIDNEK@ClaimDevice@ 1002154c     DeviceMonitorImpl.obj
 0002:00001558       ??_C@_0L@BNEIFEJC@ClearInput@ 10021558     DeviceMonitorImpl.obj
 0002:00001564       ??_C@_0N@DDFIIBMP@CloseService@ 10021564     DeviceMonitorImpl.obj
 0002:00001574       ??_C@_08EEIHICPC@DirectIO@ 10021574     DeviceMonitorImpl.obj
 0002:00001580       ??_C@_0O@BCPMENMJ@ReleaseDevice@ 10021580     DeviceMonitorImpl.obj
 0002:00001590       ??_C@_0BA@GFABKEEE@ResetStatistics@ 10021590     DeviceMonitorImpl.obj
 0002:000015a0       ??_C@_0BD@DPALHJGC@RetrieveStatistics@ 100215a0     DeviceMonitorImpl.obj
 0002:000015b4       ??_C@_0BB@KOHIKNFC@UpdateStatistics@ 100215b4     DeviceMonitorImpl.obj
 0002:000015c8       ??_C@_0BH@PBKBNMGB@CompareFirmwareVersion@ 100215c8     DeviceMonitorImpl.obj
 0002:000015e0       ??_C@_0P@FBPDPIPA@UpdateFirmware@ 100215e0     DeviceMonitorImpl.obj
 0002:000015f0       ??_C@_0BF@CMAPCJGM@ClearInputProperties@ 100215f0     DeviceMonitorImpl.obj
 0002:00001608       ??_C@_0BE@NEMFCMIH@AddMonitoringDevice@ 10021608     DeviceMonitorImpl.obj
 0002:0000161c       ??_C@_0BG@JOGJDLPM@ClearMonitoringDevice@ 1002161c     DeviceMonitorImpl.obj
 0002:00001634       ??_C@_0BH@FJFNDOHE@DeleteMonitoringDevice@ 10021634     DeviceMonitorImpl.obj
 0002:0000164c       ??_C@_0P@NALLAHBD@GetDeviceValue@ 1002164c     DeviceMonitorImpl.obj
 0002:0000165c       ??_7?$CProxy_IOPOSEvents@VCOPOSDeviceMonitor@@@@6B@ 1002165c     DeviceMonitorImpl.obj
 0002:0000167c       ??_C@_1BA@IFHENID@?$AA?$FL?$AAE?$AAr?$AAr?$AAo?$AAr?$AA?$FN@ 1002167c     DeviceMonitorImpl.obj
 0002:0000168c       ??_C@_0DA@HGCACNPB@SOFTWARE?2OLEforRetail?2ServiceOP@ 1002168c     DeviceMonitorImpl.obj
 0002:000016bc       ??_C@_1M@IAIJHCCH@?$AAC?$AAl?$AAo?$AAs?$AAe@ 100216bc     DeviceMonitorImpl.obj
 0002:000016c8       ??_C@_1M@PCPKGJAH@?$AAC?$AAl?$AAa?$AAi?$AAm@ 100216c8     DeviceMonitorImpl.obj
 0002:000016d4       ??_C@_1BA@NDFKIOCP@?$AAR?$AAe?$AAl?$AAe?$AAa?$AAs?$AAe@ 100216d4     DeviceMonitorImpl.obj
 0002:000016e4       ??_C@_0O@HKCCFACK@DeviceMonitor@ 100216e4     DeviceMonitorImpl.obj
 0002:000016f4       ??_C@_1BM@IJMNMBPK@?$AAG?$AAe?$AAt?$AAO?$AAp?$AAe?$AAn?$AAR?$AAe?$AAs?$AAu?$AAl?$AAt@ 100216f4     DeviceMonitorImpl.obj
 0002:00001710       _IID_IDispatch             10021710     uuid:oaidl_i.obj
 0002:00001720       _IID_IPropertyNotifySink   10021720     uuid:ocidl_i.obj
 0002:00001730       _GUID_NULL                 10021730     uuid:cguid_i.obj
 0002:00001740       _CLSID_StdGlobalInterfaceTable 10021740     uuid:cguid_i.obj
 0002:00001750       _CLSID_StdComponentCategoriesMgr 10021750     uuid:ieguids.obj
 0002:00001760       _IID_IUnknown              10021760     uuid:unknwn_i.obj
 0002:00001770       ??_C@_1EC@JIJBPKFM@?$AAa?$AAp?$AAi?$AA?9?$AAm?$AAs?$AA?9?$AAw?$AAi?$AAn?$AA?9?$AAc?$AAo?$AAr?$AAe@ 10021770     LIBCMT:thread_safe_statics.obj
 0002:000017b4       ??_C@_1BK@MGMFAEKH@?$AAk?$AAe?$AAr?$AAn?$AAe?$AAl?$AA3?$AA2?$AA?4?$AAd?$AAl?$AAl@ 100217b4     LIBCMT:thread_safe_statics.obj
 0002:000017d0       ??_C@_0BJ@JEBJOJFJ@SleepConditionVariableCS@ 100217d0     LIBCMT:thread_safe_statics.obj
 0002:000017ec       ??_C@_0BJ@PGPPEPCC@WakeAllConditionVariable@ 100217ec     LIBCMT:thread_safe_statics.obj
 0002:00001805       ?nothrow@std@@3Unothrow_t@1@B 10021805     LIBCMT:std_nothrow.obj
 0002:00001810       __pRawDllMain              10021810     LIBCMT:dll_dllmain.obj
 0002:00001810       __pDefaultRawDllMain       10021810     LIBCMT:dll_dllmain.obj
 0002:00001818       ??_7exception@std@@6B@     10021818     LIBCMT:throw_bad_alloc.obj
 0002:00001820       ??_C@_0BC@EOODALEL@Unknown?5exception@ 10021820     LIBCMT:throw_bad_alloc.obj
 0002:00001838       ??_7bad_alloc@std@@6B@     10021838     LIBCMT:throw_bad_alloc.obj
 0002:00001840       ??_C@_0P@GHFPNOJB@bad?5allocation@ 10021840     LIBCMT:throw_bad_alloc.obj
 0002:00001854       ??_7bad_array_new_length@std@@6B@ 10021854     LIBCMT:throw_bad_alloc.obj
 0002:0000185c       ??_C@_0BF@KINCDENJ@bad?5array?5new?5length@ 1002185c     LIBCMT:throw_bad_alloc.obj
 0002:00001878       ??_7type_info@@6B@         10021878     LIBCMT:std_type_info_static.obj
 0002:0000187c       _GUID_ATLVer110            1002187c     atls:atlbase.obj
 0002:00001890       ??_C@_1IC@ONKHOIDK@?$AAE?$AAR?$AAR?$AAO?$AAR?$AA?5?$AA?3?$AA?5?$AAU?$AAn?$AAa?$AAb?$AAl?$AAe?$AA?5@ 10021890     atls:atlbase.obj
 0002:00001914       ??_C@_0N@FJEPLCIH@atlthunk?4dll@ 10021914     atls:atlthunk.obj
 0002:00001924       ??_C@_0BG@GAKFHCBM@AtlThunk_AllocateData@ 10021924     atls:atlthunk.obj
 0002:0000193c       ??_C@_0BC@JKONFIAH@AtlThunk_InitData@ 1002193c     atls:atlthunk.obj
 0002:00001950       ??_C@_0BE@IAOEELAK@AtlThunk_DataToCode@ 10021950     atls:atlthunk.obj
 0002:00001964       ??_C@_0BC@GBGKAIPI@AtlThunk_FreeData@ 10021964     atls:atlthunk.obj
 0002:00001978       __pDestructExceptionObject 10021978     libvcruntime:ehhelpers.obj
 0002:00001980       ??_7bad_exception@std@@6B@ 10021980     libvcruntime:frame.obj
 0002:00001988       ??_C@_0O@DPKOEFFH@bad?5exception@ 10021988     libvcruntime:frame.obj
 0002:00001d20       ??_C@_08EHJDFFNH@__based?$CI@ 10021d20     libvcruntime:undname.obj
 0002:00001d2c       ??_C@_07KOLFKCDI@__cdecl@  10021d2c     libvcruntime:undname.obj
 0002:00001d34       ??_C@_08GHMPAG@__pascal@   10021d34     libvcruntime:undname.obj
 0002:00001d40       ??_C@_09IFJBGAPI@__stdcall@ 10021d40     libvcruntime:undname.obj
 0002:00001d4c       ??_C@_0L@NPHFGOKO@__thiscall@ 10021d4c     libvcruntime:undname.obj
 0002:00001d58       ??_C@_0L@JMKHOMEK@__fastcall@ 10021d58     libvcruntime:undname.obj
 0002:00001d64       ??_C@_0N@BCKKPABJ@__vectorcall@ 10021d64     libvcruntime:undname.obj
 0002:00001d74       ??_C@_09HIJEGCPM@__clrcall@ 10021d74     libvcruntime:undname.obj
 0002:00001d80       ??_C@_06GHPCKEAG@__eabi@   10021d80     libvcruntime:undname.obj
 0002:00001d88       ??_C@_09IOPIDJLG@__swift_1@ 10021d88     libvcruntime:undname.obj
 0002:00001d94       ??_C@_09KFNFGKHF@__swift_2@ 10021d94     libvcruntime:undname.obj
 0002:00001da0       ??_C@_09LMMOFLDE@__swift_3@ 10021da0     libvcruntime:undname.obj
 0002:00001dac       ??_C@_07JOMMBBKO@__ptr64@  10021dac     libvcruntime:undname.obj
 0002:00001db4       ??_C@_0L@PILCLIHE@__restrict@ 10021db4     libvcruntime:undname.obj
 0002:00001dc0       ??_C@_0M@GFIIJFMG@__unaligned@ 10021dc0     libvcruntime:undname.obj
 0002:00001dcc       ??_C@_09DHDLOLLB@restrict?$CI@ 10021dcc     libvcruntime:undname.obj
 0002:00001dd6       ??_C@_00CNPNBAHC@@         10021dd6     libvcruntime:undname.obj
 0002:00001dd8       ??_C@_04NIHEBCM@?5new@     10021dd8     libvcruntime:undname.obj
 0002:00001de0       ??_C@_07FPCDHGMM@?5delete@ 10021de0     libvcruntime:undname.obj
 0002:00001de8       ??_C@_01NEMOKFLO@?$DN@     10021de8     libvcruntime:undname.obj
 0002:00001dec       ??_C@_02GPIOPFAK@?$DO?$DO@ 10021dec     libvcruntime:undname.obj
 0002:00001df0       ??_C@_02FODMEDOG@?$DM?$DM@ 10021df0     libvcruntime:undname.obj
 0002:00001df4       ??_C@_01DCLJPIOD@?$CB@     10021df4     libvcruntime:undname.obj
 0002:00001df8       ??_C@_02EGOFBIJA@?$DN?$DN@ 10021df8     libvcruntime:undname.obj
 0002:00001dfc       ??_C@_02FDNJECIE@?$CB?$DN@ 10021dfc     libvcruntime:undname.obj
 0002:00001e00       ??_C@_02GPECMEKF@?$FL?$FN@ 10021e00     libvcruntime:undname.obj
 0002:00001e04       ??_C@_08LHJFAFGD@operator@ 10021e04     libvcruntime:undname.obj
 0002:00001e10       ??_C@_02HBOOOICD@?9?$DO@   10021e10     libvcruntime:undname.obj
 0002:00001e14       ??_C@_01NBENCBCI@?$CK@     10021e14     libvcruntime:undname.obj
 0002:00001e18       ??_C@_02ECNGHCIF@?$CL?$CL@ 10021e18     libvcruntime:undname.obj
 0002:00001e1c       ??_C@_02BAABKJLB@?9?9@     10021e1c     libvcruntime:undname.obj
 0002:00001e20       ??_C@_01JOAMLHOP@?9@       10021e20     libvcruntime:undname.obj
 0002:00001e24       ??_C@_01MIFGBAGJ@?$CL@     10021e24     libvcruntime:undname.obj
 0002:00001e28       ??_C@_01HNPIGOCE@?$CG@     10021e28     libvcruntime:undname.obj
 0002:00001e2c       ??_C@_03MNHNFDLC@?9?$DO?$CK@ 10021e2c     libvcruntime:undname.obj
 0002:00001e30       ??_C@_01KMDKNFGN@?1@       10021e30     libvcruntime:undname.obj
 0002:00001e34       ??_C@_01FGNFDNOH@?$CF@     10021e34     libvcruntime:undname.obj
 0002:00001e38       ??_C@_01MNNFJEPP@?$DM@     10021e38     libvcruntime:undname.obj
 0002:00001e3c       ??_C@_02EHCHHCKH@?$DM?$DN@ 10021e3c     libvcruntime:undname.obj
 0002:00001e40       ??_C@_01PPODPGHN@?$DO@     10021e40     libvcruntime:undname.obj
 0002:00001e44       ??_C@_02EEKDKGMJ@?$DO?$DN@ 10021e44     libvcruntime:undname.obj
 0002:00001e48       ??_C@_01IHBHIGKO@?0@       10021e48     libvcruntime:undname.obj
 0002:00001e4c       ??_C@_02HCKGKOFO@?$CI?$CJ@ 10021e4c     libvcruntime:undname.obj
 0002:00001e50       ??_C@_01PJKLJHI@?$HO@      10021e50     libvcruntime:undname.obj
 0002:00001e54       ??_C@_01JKBOJNNK@?$FO@     10021e54     libvcruntime:undname.obj
 0002:00001e58       ??_C@_01DNKMNLPK@?$HM@     10021e58     libvcruntime:undname.obj
 0002:00001e5c       ??_C@_02PPKAJPJL@?$CG?$CG@ 10021e5c     libvcruntime:undname.obj
 0002:00001e60       ??_C@_02NONPIBCD@?$HM?$HM@ 10021e60     libvcruntime:undname.obj
 0002:00001e64       ??_C@_02FPIMKNGF@?$CK?$DN@ 10021e64     libvcruntime:undname.obj
 0002:00001e68       ??_C@_02FOEOMHFC@?$CL?$DN@ 10021e68     libvcruntime:undname.obj
 0002:00001e6c       ??_C@_02FKMDLLOA@?9?$DN@   10021e6c     libvcruntime:undname.obj
 0002:00001e70       ??_C@_02FJEHGPIO@?1?$DN@   10021e70     libvcruntime:undname.obj
 0002:00001e74       ??_C@_02FENAOKFI@?$CF?$DN@ 10021e74     libvcruntime:undname.obj
 0002:00001e78       ??_C@_03IKFCCPFF@?$DO?$DO?$DN@ 10021e78     libvcruntime:undname.obj
 0002:00001e7c       ??_C@_03CDNPDDLA@?$DM?$DM?$DN@ 10021e7c     libvcruntime:undname.obj
 0002:00001e80       ??_C@_02FGJGFEAB@?$CG?$DN@ 10021e80     libvcruntime:undname.obj
 0002:00001e84       ??_C@_02DHLNPPGH@?$HM?$DN@ 10021e84     libvcruntime:undname.obj
 0002:00001e88       ??_C@_02MHEGNOJ@?$FO?$DN@  10021e88     libvcruntime:undname.obj
 0002:00001e8c       ??_C@_09IFPLHPGF@?$GAvftable?8@ 10021e8c     libvcruntime:undname.obj
 0002:00001e98       ??_C@_09BLBHBJP@?$GAvbtable?8@ 10021e98     libvcruntime:undname.obj
 0002:00001ea4       ??_C@_07FEEIOKP@?$GAvcall?8@ 10021ea4     libvcruntime:undname.obj
 0002:00001eac       ??_C@_08LLFFHHDJ@?$GAtypeof?8@ 10021eac     libvcruntime:undname.obj
 0002:00001eb8       ??_C@_0BF@KDPPACIK@?$GAlocal?5static?5guard?8@ 10021eb8     libvcruntime:undname.obj
 0002:00001ed0       ??_C@_08OBABFOLI@?$GAstring?8@ 10021ed0     libvcruntime:undname.obj
 0002:00001edc       ??_C@_0BD@JDLKDPAB@?$GAvbase?5destructor?8@ 10021edc     libvcruntime:undname.obj
 0002:00001ef0       ??_C@_0BN@DEGPLNFK@?$GAvector?5deleting?5destructor?8@ 10021ef0     libvcruntime:undname.obj
 0002:00001f10       ??_C@_0BO@OBMKPJIG@?$GAdefault?5constructor?5closure?8@ 10021f10     libvcruntime:undname.obj
 0002:00001f30       ??_C@_0BN@IMDCHIKM@?$GAscalar?5deleting?5destructor?8@ 10021f30     libvcruntime:undname.obj
 0002:00001f50       ??_C@_0BO@PFGOCPJJ@?$GAvector?5constructor?5iterator?8@ 10021f50     libvcruntime:undname.obj
 0002:00001f70       ??_C@_0BN@LFPFMEDL@?$GAvector?5destructor?5iterator?8@ 10021f70     libvcruntime:undname.obj
 0002:00001f90       ??_C@_0CE@IKBNEHA@?$GAvector?5vbase?5constructor?5itera@ 10021f90     libvcruntime:undname.obj
 0002:00001fb4       ??_C@_0BL@NILFHHPC@?$GAvirtual?5displacement?5map?8@ 10021fb4     libvcruntime:undname.obj
 0002:00001fd0       ??_C@_0CB@JONCMFFK@?$GAeh?5vector?5constructor?5iterator@ 10021fd0     libvcruntime:undname.obj
 0002:00001ff4       ??_C@_0CA@GCEOPDGL@?$GAeh?5vector?5destructor?5iterator?8@ 10021ff4     libvcruntime:undname.obj
 0002:00002014       ??_C@_0CH@OOJPLCPH@?$GAeh?5vector?5vbase?5constructor?5it@ 10022014     libvcruntime:undname.obj
 0002:0000203c       ??_C@_0BL@LLKPOHJI@?$GAcopy?5constructor?5closure?8@ 1002203c     libvcruntime:undname.obj
 0002:00002058       ??_C@_0BA@KBCDOMBN@?$GAudt?5returning?8@ 10022058     libvcruntime:undname.obj
 0002:00002068       ??_C@_03KLGMFNMG@?$GAEH@   10022068     libvcruntime:undname.obj
 0002:0000206c       ??_C@_05KHLCHHI@?$GARTTI@  1002206c     libvcruntime:undname.obj
 0002:00002074       ??_C@_0BA@KKLDJDLB@?$GAlocal?5vftable?8@ 10022074     libvcruntime:undname.obj
 0002:00002084       ??_C@_0CE@IIHCMGGL@?$GAlocal?5vftable?5constructor?5clos@ 10022084     libvcruntime:undname.obj
 0002:000020a8       ??_C@_06FHBGPFGH@?5new?$FL?$FN@ 100220a8     libvcruntime:undname.obj
 0002:000020b0       ??_C@_09LBNFPBCA@?5delete?$FL?$FN@ 100220b0     libvcruntime:undname.obj
 0002:000020bc       ??_C@_0P@HJKNJFNN@?$GAomni?5callsig?8@ 100220bc     libvcruntime:undname.obj
 0002:000020cc       ??_C@_0BL@CNOONJFP@?$GAplacement?5delete?5closure?8@ 100220cc     libvcruntime:undname.obj
 0002:000020e8       ??_C@_0BN@CKNJLHMB@?$GAplacement?5delete?$FL?$FN?5closure?8@ 100220e8     libvcruntime:undname.obj
 0002:00002108       ??_C@_0CG@CFDHKGGD@?$GAmanaged?5vector?5constructor?5ite@ 10022108     libvcruntime:undname.obj
 0002:00002130       ??_C@_0CF@IMGKMJNO@?$GAmanaged?5vector?5destructor?5iter@ 10022130     libvcruntime:undname.obj
 0002:00002158       ??_C@_0CG@HLDDJMAG@?$GAeh?5vector?5copy?5constructor?5ite@ 10022158     libvcruntime:undname.obj
 0002:00002180       ??_C@_0CM@FCBBDIGB@?$GAeh?5vector?5vbase?5copy?5construct@ 10022180     libvcruntime:undname.obj
 0002:000021ac       ??_C@_0BL@CLIPGLGB@?$GAdynamic?5initializer?5for?5?8@ 100221ac     libvcruntime:undname.obj
 0002:000021c8       ??_C@_0CB@PDBIFEP@?$GAdynamic?5atexit?5destructor?5for?5@ 100221c8     libvcruntime:undname.obj
 0002:000021ec       ??_C@_0CD@CGAJBKEJ@?$GAvector?5copy?5constructor?5iterat@ 100221ec     libvcruntime:undname.obj
 0002:00002210       ??_C@_0CJ@GJELGAMM@?$GAvector?5vbase?5copy?5constructor?5@ 10022210     libvcruntime:undname.obj
 0002:0000223c       ??_C@_0CL@FGIJHLCE@?$GAmanaged?5vector?5copy?5constructo@ 1002223c     libvcruntime:undname.obj
 0002:00002268       ??_C@_0BM@PMGGMLDN@?$GAlocal?5static?5thread?5guard?8@ 10022268     libvcruntime:undname.obj
 0002:00002284       ??_C@_0N@BDNMDMOL@operator?5?$CC?$CC?5@ 10022284     libvcruntime:undname.obj
 0002:00002294       ??_C@_0BC@GGEBGALA@operator?5co_await@ 10022294     libvcruntime:undname.obj
 0002:000022a8       ??_C@_0M@GAAIMMOH@operator?$DM?$DN?$DO@ 100222a8     libvcruntime:undname.obj
 0002:000022b4       ??_C@_0BC@DAFEJGAK@?5Type?5Descriptor?8@ 100222b4     libvcruntime:undname.obj
 0002:000022c8       ??_C@_0BM@LDKODKLH@?5Base?5Class?5Descriptor?5at?5?$CI@ 100222c8     libvcruntime:undname.obj
 0002:000022e4       ??_C@_0BD@LGICGFMM@?5Base?5Class?5Array?8@ 100222e4     libvcruntime:undname.obj
 0002:000022f8       ??_C@_0BN@MECKDCOJ@?5Class?5Hierarchy?5Descriptor?8@ 100222f8     libvcruntime:undname.obj
 0002:00002318       ??_C@_0BK@CFCOFLF@?5Complete?5Object?5Locator?8@ 10022318     libvcruntime:undname.obj
 0002:00002334       ??_C@_0BG@JNJLAMPM@?$GAanonymous?5namespace?8@ 10022334     libvcruntime:undname.obj
 0002:00002358       ??_C@_1DM@KHCHBNEB@?$AAa?$AAp?$AAi?$AA?9?$AAm?$AAs?$AA?9?$AAw?$AAi?$AAn?$AA?9?$AAc?$AAo?$AAr?$AAe@ 10022358     libvcruntime:winapi_downlevel.obj
 0002:00002394       ??_C@_1DK@LPPGFMPP@?$AAa?$AAp?$AAi?$AA?9?$AAm?$AAs?$AA?9?$AAw?$AAi?$AAn?$AA?9?$AAc?$AAo?$AAr?$AAe@ 10022394     libvcruntime:winapi_downlevel.obj
 0002:000023d0       ??_C@_1BC@GDMECMAK@?$AAk?$AAe?$AAr?$AAn?$AAe?$AAl?$AA3?$AA2@ 100223d0     libvcruntime:winapi_downlevel.obj
 0002:000023e4       ??_C@_1BA@PFFKHIOG@?$AAa?$AAp?$AAi?$AA?9?$AAm?$AAs?$AA?9@ 100223e4     libvcruntime:winapi_downlevel.obj
 0002:000023fc       ??_C@_08KNHFBNJ@FlsAlloc@  100223fc     libvcruntime:winapi_downlevel.obj
 0002:00002410       ??_C@_07PEJMOBNF@FlsFree@  10022410     libvcruntime:winapi_downlevel.obj
 0002:00002420       ??_C@_0M@GDNOONDI@FlsGetValue@ 10022420     libvcruntime:winapi_downlevel.obj
 0002:00002434       ??_C@_0M@JCPCPOEF@FlsSetValue@ 10022434     libvcruntime:winapi_downlevel.obj
 0002:00002448       ??_C@_0BM@HCFOFFN@InitializeCriticalSectionEx@ 10022448     libvcruntime:winapi_downlevel.obj
 0002:000025d0       ?format_validation_lookup_table_spectre@__crt_stdio_output@@3V?$spectre_mitigated_lookup_table@Ustate_transition_pair@__crt_stdio_output@@$0IA@@1@B 100225d0     libucrt:output.obj
 0002:000026d0       ??_C@_1O@CEDCILHN@?$AA?$CI?$AAn?$AAu?$AAl?$AAl?$AA?$CJ@ 100226d0     libucrt:output.obj
 0002:000026e0       ??_C@_06OJHGLDPL@?$CInull?$CJ@ 100226e0     libucrt:output.obj
 0002:000026e8       ___acrt_exception_action_table 100226e8     libucrt:exception_filter.obj
 0002:00002778       ___acrt_signal_action_table_count 10022778     libucrt:exception_filter.obj
 0002:0000277c       ___acrt_signal_action_first_fpe_index 1002277c     libucrt:exception_filter.obj
 0002:00002780       ___acrt_signal_action_fpe_count 10022780     libucrt:exception_filter.obj
 0002:00002784       ??_C@_1BI@BGOHAHKC@?$AAm?$AAs?$AAc?$AAo?$AAr?$AAe?$AAe?$AA?4?$AAd?$AAl?$AAl@ 10022784     libucrt:exit.obj
 0002:0000279c       ??_C@_0P@MIGLKIOC@CorExitProcess@ 1002279c     libucrt:exit.obj
 0002:00002830       ___lc_time_c               10022830     libucrt:nlsdata.obj
 0002:00002994       ??_C@_03KOEHGMDN@Sun@      10022994     libucrt:nlsdata.obj
 0002:00002998       ??_C@_03PDAGKDH@Mon@       10022998     libucrt:nlsdata.obj
 0002:0000299c       ??_C@_03NAGEINEP@Tue@      1002299c     libucrt:nlsdata.obj
 0002:000029a0       ??_C@_03MHOMLAJA@Wed@      100229a0     libucrt:nlsdata.obj
 0002:000029a4       ??_C@_03IOFIKPDN@Thu@      100229a4     libucrt:nlsdata.obj
 0002:000029a8       ??_C@_03IDIOELNC@Fri@      100229a8     libucrt:nlsdata.obj
 0002:000029ac       ??_C@_03FEFJNEK@Sat@       100229ac     libucrt:nlsdata.obj
 0002:000029b0       ??_C@_06OOPIFAJ@Sunday@    100229b0     libucrt:nlsdata.obj
 0002:000029b8       ??_C@_06JLEDEDGH@Monday@   100229b8     libucrt:nlsdata.obj
 0002:000029c0       ??_C@_07BAAGCFCM@Tuesday@  100229c0     libucrt:nlsdata.obj
 0002:000029c8       ??_C@_09DLIGFAKA@Wednesday@ 100229c8     libucrt:nlsdata.obj
 0002:000029d4       ??_C@_08HACCIKIA@Thursday@ 100229d4     libucrt:nlsdata.obj
 0002:000029e0       ??_C@_06JECMNKMI@Friday@   100229e0     libucrt:nlsdata.obj
 0002:000029e8       ??_C@_08INBOOONO@Saturday@ 100229e8     libucrt:nlsdata.obj
 0002:000029f4       ??_C@_03JIHJHPIE@Jan@      100229f4     libucrt:nlsdata.obj
 0002:000029f8       ??_C@_03HJBDCHOM@Feb@      100229f8     libucrt:nlsdata.obj
 0002:000029fc       ??_C@_03ODNJBKGA@Mar@      100229fc     libucrt:nlsdata.obj
 0002:00002a00       ??_C@_03LEOLGMJP@Apr@      10022a00     libucrt:nlsdata.obj
 0002:00002a04       ??_C@_03CNMDKL@May@        10022a04     libucrt:nlsdata.obj
 0002:00002a08       ??_C@_03IDFGHECI@Jun@      10022a08     libucrt:nlsdata.obj
 0002:00002a0c       ??_C@_03LBGABGKK@Jul@      10022a0c     libucrt:nlsdata.obj
 0002:00002a10       ??_C@_03IFJFEIGA@Aug@      10022a10     libucrt:nlsdata.obj
 0002:00002a14       ??_C@_03GGCAPAJC@Sep@      10022a14     libucrt:nlsdata.obj
 0002:00002a18       ??_C@_03BMAOKBAD@Oct@      10022a18     libucrt:nlsdata.obj
 0002:00002a1c       ??_C@_03JPJOFNIA@Nov@      10022a1c     libucrt:nlsdata.obj
 0002:00002a20       ??_C@_03MKABNOCG@Dec@      10022a20     libucrt:nlsdata.obj
 0002:00002a24       ??_C@_07CGJPFGJA@January@  10022a24     libucrt:nlsdata.obj
 0002:00002a2c       ??_C@_08GNJGEPFN@February@ 10022a2c     libucrt:nlsdata.obj
 0002:00002a38       ??_C@_05HPCKOFNC@March@    10022a38     libucrt:nlsdata.obj
 0002:00002a40       ??_C@_05DMJDNLEJ@April@    10022a40     libucrt:nlsdata.obj
 0002:00002a48       ??_C@_04CNLMGBGM@June@     10022a48     libucrt:nlsdata.obj
 0002:00002a50       ??_C@_04MIEPOIFP@July@     10022a50     libucrt:nlsdata.obj
 0002:00002a58       ??_C@_06LBBHFDDG@August@   10022a58     libucrt:nlsdata.obj
 0002:00002a60       ??_C@_09BHHEALKD@September@ 10022a60     libucrt:nlsdata.obj
 0002:00002a6c       ??_C@_07JJNFCEND@October@  10022a6c     libucrt:nlsdata.obj
 0002:00002a74       ??_C@_08HCHEGEOA@November@ 10022a74     libucrt:nlsdata.obj
 0002:00002a80       ??_C@_08EDHMEBNP@December@ 10022a80     libucrt:nlsdata.obj
 0002:00002a8c       ??_C@_02DEDBPAFC@AM@       10022a8c     libucrt:nlsdata.obj
 0002:00002a90       ??_C@_02CJNFDJBF@PM@       10022a90     libucrt:nlsdata.obj
 0002:00002a94       ??_C@_08BPBNCDIB@MM?1dd?1yy@ 10022a94     libucrt:nlsdata.obj
 0002:00002aa0       ??_C@_0BE@CKGJFCPC@dddd?0?5MMMM?5dd?0?5yyyy@ 10022aa0     libucrt:nlsdata.obj
 0002:00002ab4       ??_C@_08JCCMCCIL@HH?3mm?3ss@ 10022ab4     libucrt:nlsdata.obj
 0002:00002ac0       ??_C@_17MBGCMIPB@?$AAS?$AAu?$AAn@ 10022ac0     libucrt:nlsdata.obj
 0002:00002ac8       ??_C@_17KBOMKBF@?$AAM?$AAo?$AAn@ 10022ac8     libucrt:nlsdata.obj
 0002:00002ad0       ??_C@_17BMKGEGOJ@?$AAT?$AAu?$AAe@ 10022ad0     libucrt:nlsdata.obj
 0002:00002ad8       ??_C@_17CJEDCEPE@?$AAW?$AAe?$AAd@ 10022ad8     libucrt:nlsdata.obj
 0002:00002ae0       ??_C@_17PDPHAADD@?$AAT?$AAh?$AAu@ 10022ae0     libucrt:nlsdata.obj
 0002:00002ae8       ??_C@_17HFOLPPLP@?$AAF?$AAr?$AAi@ 10022ae8     libucrt:nlsdata.obj
 0002:00002af0       ??_C@_17GGIBDPIH@?$AAS?$AAa?$AAt@ 10022af0     libucrt:nlsdata.obj
 0002:00002af8       ??_C@_1O@IHNHDHPB@?$AAS?$AAu?$AAn?$AAd?$AAa?$AAy@ 10022af8     libucrt:nlsdata.obj
 0002:00002b08       ??_C@_1O@MMNBFLIA@?$AAM?$AAo?$AAn?$AAd?$AAa?$AAy@ 10022b08     libucrt:nlsdata.obj
 0002:00002b18       ??_C@_1BA@ENFBFFEK@?$AAT?$AAu?$AAe?$AAs?$AAd?$AAa?$AAy@ 10022b18     libucrt:nlsdata.obj
 0002:00002b28       ??_C@_1BE@EBOGMDOH@?$AAW?$AAe?$AAd?$AAn?$AAe?$AAs?$AAd?$AAa?$AAy@ 10022b28     libucrt:nlsdata.obj
 0002:00002b3c       ??_C@_1BC@HHMNLIHE@?$AAT?$AAh?$AAu?$AAr?$AAs?$AAd?$AAa?$AAy@ 10022b3c     libucrt:nlsdata.obj
 0002:00002b50       ??_C@_1O@PDICJHAG@?$AAF?$AAr?$AAi?$AAd?$AAa?$AAy@ 10022b50     libucrt:nlsdata.obj
 0002:00002b60       ??_C@_1BC@ENMNNPAJ@?$AAS?$AAa?$AAt?$AAu?$AAr?$AAd?$AAa?$AAy@ 10022b60     libucrt:nlsdata.obj
 0002:00002b74       ??_C@_17DKNBKCHM@?$AAJ?$AAa?$AAn@ 10022b74     libucrt:nlsdata.obj
 0002:00002b7c       ??_C@_17LMDJEKJN@?$AAF?$AAe?$AAb@ 10022b7c     libucrt:nlsdata.obj
 0002:00002b84       ??_C@_17CKNLEDEC@?$AAM?$AAa?$AAr@ 10022b84     libucrt:nlsdata.obj
 0002:00002b8c       ??_C@_17LFPOIHDD@?$AAA?$AAp?$AAr@ 10022b8c     libucrt:nlsdata.obj
 0002:00002b94       ??_C@_17PNNKMEED@?$AAM?$AAa?$AAy@ 10022b94     libucrt:nlsdata.obj
 0002:00002b9c       ??_C@_17KCJGOCPB@?$AAJ?$AAu?$AAn@ 10022b9c     libucrt:nlsdata.obj
 0002:00002ba4       ??_C@_17IJPCKHK@?$AAJ?$AAu?$AAl@ 10022ba4     libucrt:nlsdata.obj
 0002:00002bac       ??_C@_17ICPELBCN@?$AAA?$AAu?$AAg@ 10022bac     libucrt:nlsdata.obj
 0002:00002bb4       ??_C@_17HCHCOKMG@?$AAS?$AAe?$AAp@ 10022bb4     libucrt:nlsdata.obj
 0002:00002bbc       ??_C@_17FNLKOI@?$AAO?$AAc?$AAt@ 10022bbc     libucrt:nlsdata.obj
 0002:00002bc4       ??_C@_17BBDMLCIG@?$AAN?$AAo?$AAv@ 10022bc4     libucrt:nlsdata.obj
 0002:00002bcc       ??_C@_17EGKACKIF@?$AAD?$AAe?$AAc@ 10022bcc     libucrt:nlsdata.obj
 0002:00002bd4       ??_C@_1BA@EFMEIEBA@?$AAJ?$AAa?$AAn?$AAu?$AAa?$AAr?$AAy@ 10022bd4     libucrt:nlsdata.obj
 0002:00002be4       ??_C@_1BC@JGDDFFAM@?$AAF?$AAe?$AAb?$AAr?$AAu?$AAa?$AAr?$AAy@ 10022be4     libucrt:nlsdata.obj
 0002:00002bf8       ??_C@_1M@IKEENEDF@?$AAM?$AAa?$AAr?$AAc?$AAh@ 10022bf8     libucrt:nlsdata.obj
 0002:00002c04       ??_C@_1M@GJNLMHFD@?$AAA?$AAp?$AAr?$AAi?$AAl@ 10022c04     libucrt:nlsdata.obj
 0002:00002c10       ??_C@_19EPFLPGAP@?$AAJ?$AAu?$AAn?$AAe@ 10022c10     libucrt:nlsdata.obj
 0002:00002c1c       ??_C@_19BIFMLPCD@?$AAJ?$AAu?$AAl?$AAy@ 10022c1c     libucrt:nlsdata.obj
 0002:00002c28       ??_C@_1O@PAHLKOAC@?$AAA?$AAu?$AAg?$AAu?$AAs?$AAt@ 10022c28     libucrt:nlsdata.obj
 0002:00002c38       ??_C@_1BE@DKAAMBJL@?$AAS?$AAe?$AAp?$AAt?$AAe?$AAm?$AAb?$AAe?$AAr@ 10022c38     libucrt:nlsdata.obj
 0002:00002c4c       ??_C@_1BA@EPANDLNG@?$AAO?$AAc?$AAt?$AAo?$AAb?$AAe?$AAr@ 10022c4c     libucrt:nlsdata.obj
 0002:00002c5c       ??_C@_1BC@BGLIFPF@?$AAN?$AAo?$AAv?$AAe?$AAm?$AAb?$AAe?$AAr@ 10022c5c     libucrt:nlsdata.obj
 0002:00002c70       ??_C@_1BC@FEMKIFH@?$AAD?$AAe?$AAc?$AAe?$AAm?$AAb?$AAe?$AAr@ 10022c70     libucrt:nlsdata.obj
 0002:00002c84       ??_C@_15ODEHAHHF@?$AAA?$AAM@ 10022c84     libucrt:nlsdata.obj
 0002:00002c8c       ??_C@_15CLMNNGEL@?$AAP?$AAM@ 10022c8c     libucrt:nlsdata.obj
 0002:00002c94       ??_C@_1BC@IEBCMHCM@?$AAM?$AAM?$AA?1?$AAd?$AAd?$AA?1?$AAy?$AAy@ 10022c94     libucrt:nlsdata.obj
 0002:00002ca8       ??_C@_1CI@KNAKOEBC@?$AAd?$AAd?$AAd?$AAd?$AA?0?$AA?5?$AAM?$AAM?$AAM?$AAM?$AA?5?$AAd?$AAd?$AA?0?$AA?5@ 10022ca8     libucrt:nlsdata.obj
 0002:00002cd0       ??_C@_1BC@GDGBMEMK@?$AAH?$AAH?$AA?3?$AAm?$AAm?$AA?3?$AAs?$AAs@ 10022cd0     libucrt:nlsdata.obj
 0002:00002ce4       ??_C@_1M@BMHNFIME@?$AAe?$AAn?$AA?9?$AAU?$AAS@ 10022ce4     libucrt:nlsdata.obj
 0002:00002d40       ??_C@_1EA@JGEFHKEI@?$AAa?$AAp?$AAi?$AA?9?$AAm?$AAs?$AA?9?$AAw?$AAi?$AAn?$AA?9?$AAc?$AAo?$AAr?$AAe@ 10022d40     libucrt:winapi_thunks.obj
 0002:00002d80       ??_C@_1DI@IJCEHOCB@?$AAa?$AAp?$AAi?$AA?9?$AAm?$AAs?$AA?9?$AAw?$AAi?$AAn?$AA?9?$AAc?$AAo?$AAr?$AAe@ 10022d80     libucrt:winapi_thunks.obj
 0002:00002db8       ??_C@_1EI@MPIAOHOC@?$AAa?$AAp?$AAi?$AA?9?$AAm?$AAs?$AA?9?$AAw?$AAi?$AAn?$AA?9?$AAc?$AAo?$AAr?$AAe@ 10022db8     libucrt:winapi_thunks.obj
 0002:00002e00       ??_C@_1FK@FPHCKFIE@?$AAa?$AAp?$AAi?$AA?9?$AAm?$AAs?$AA?9?$AAw?$AAi?$AAn?$AA?9?$AAc?$AAo?$AAr?$AAe@ 10022e00     libucrt:winapi_thunks.obj
 0002:00002e60       ??_C@_1EM@DILCGIIO@?$AAa?$AAp?$AAi?$AA?9?$AAm?$AAs?$AA?9?$AAw?$AAi?$AAn?$AA?9?$AAc?$AAo?$AAr?$AAe@ 10022e60     libucrt:winapi_thunks.obj
 0002:00002eac       ??_C@_1DM@LNCGDDPN@?$AAa?$AAp?$AAi?$AA?9?$AAm?$AAs?$AA?9?$AAw?$AAi?$AAn?$AA?9?$AAc?$AAo?$AAr?$AAe@ 10022eac     libucrt:winapi_thunks.obj
 0002:00002ee8       ??_C@_1DO@FPAPJEMD@?$AAa?$AAp?$AAi?$AA?9?$AAm?$AAs?$AA?9?$AAw?$AAi?$AAn?$AA?9?$AAc?$AAo?$AAr?$AAe@ 10022ee8     libucrt:winapi_thunks.obj
 0002:00002f28       ??_C@_1DK@NDHNAHIO@?$AAa?$AAp?$AAi?$AA?9?$AAm?$AAs?$AA?9?$AAw?$AAi?$AAn?$AA?9?$AAc?$AAo?$AAr?$AAe@ 10022f28     libucrt:winapi_thunks.obj
 0002:00002f64       ??_C@_1DM@KGHDGBCM@?$AAa?$AAp?$AAi?$AA?9?$AAm?$AAs?$AA?9?$AAw?$AAi?$AAn?$AA?9?$AAc?$AAo?$AAr?$AAe@ 10022f64     libucrt:winapi_thunks.obj
 0002:00002fa0       ??_C@_1EO@IJIOEFOH@?$AAa?$AAp?$AAi?$AA?9?$AAm?$AAs?$AA?9?$AAw?$AAi?$AAn?$AA?9?$AAr?$AAt?$AAc?$AAo@ 10022fa0     libucrt:winapi_thunks.obj
 0002:00002ff0       ??_C@_1FG@HHGEKANL@?$AAa?$AAp?$AAi?$AA?9?$AAm?$AAs?$AA?9?$AAw?$AAi?$AAn?$AA?9?$AAs?$AAe?$AAc?$AAu@ 10022ff0     libucrt:winapi_thunks.obj
 0002:00003048       ??_C@_1EG@DBIOJECG@?$AAe?$AAx?$AAt?$AA?9?$AAm?$AAs?$AA?9?$AAw?$AAi?$AAn?$AA?9?$AAn?$AAt?$AAu?$AAs@ 10023048     libucrt:winapi_thunks.obj
 0002:00003090       ??_C@_1EO@FIHMJCLF@?$AAe?$AAx?$AAt?$AA?9?$AAm?$AAs?$AA?9?$AAw?$AAi?$AAn?$AA?9?$AAn?$AAt?$AAu?$AAs@ 10023090     libucrt:winapi_thunks.obj
 0002:000030e0       ??_C@_1BC@DNHGCMLG@?$AAa?$AAd?$AAv?$AAa?$AAp?$AAi?$AA3?$AA2@ 100230e0     libucrt:winapi_thunks.obj
 0002:000030f4       ??_C@_1M@OAIMIKLP@?$AAn?$AAt?$AAd?$AAl?$AAl@ 100230f4     libucrt:winapi_thunks.obj
 0002:00003100       ??_C@_1EG@DPGNFKGC@?$AAa?$AAp?$AAi?$AA?9?$AAm?$AAs?$AA?9?$AAw?$AAi?$AAn?$AA?9?$AAa?$AAp?$AAp?$AAm@ 10023100     libucrt:winapi_thunks.obj
 0002:00003148       ??_C@_1O@BCCLBEOE@?$AAu?$AAs?$AAe?$AAr?$AA3?$AA2@ 10023148     libucrt:winapi_thunks.obj
 0002:00003158       ??_C@_1DM@BPJLHKCE@?$AAa?$AAp?$AAi?$AA?9?$AAm?$AAs?$AA?9?$AAw?$AAi?$AAn?$AA?9?$AAc?$AAo?$AAr?$AAe@ 10023158     libucrt:winapi_thunks.obj
 0002:00003194       ??_C@_1BA@IAIFMGEF@?$AAe?$AAx?$AAt?$AA?9?$AAm?$AAs?$AA?9@ 10023194     libucrt:winapi_thunks.obj
 0002:000031a8       ??_C@_0BA@FHFNEAED@AreFileApisANSI@ 100231a8     libucrt:winapi_thunks.obj
 0002:000031c8       ??_C@_0O@KKBNKAPF@LCMapStringEx@ 100231c8     libucrt:winapi_thunks.obj
 0002:000031e0       ??_C@_0BB@HBDEELFH@LocaleNameToLCID@ 100231e0     libucrt:winapi_thunks.obj
 0002:000031f8       ??_C@_0CF@OJOFEIGO@AppPolicyGetProcessTerminationM@ 100231f8     libucrt:winapi_thunks.obj
 0002:00003228       ??_C@_0BI@BKLFFAPO@SetThreadStackGuarantee@ 10023228     libucrt:winapi_thunks.obj
 0002:000032a0       ??_C@_03OEIAHPBN@INF@      100232a0     libucrt:cvt.obj
 0002:000032a4       ??_C@_03OJHLLCGB@inf@      100232a4     libucrt:cvt.obj
 0002:000032a8       ??_C@_03LKNCIKJB@NAN@      100232a8     libucrt:cvt.obj
 0002:000032ac       ??_C@_03LHCJEHON@nan@      100232ac     libucrt:cvt.obj
 0002:000032b0       ??_C@_09OFJJIMPC@NAN?$CISNAN?$CJ@ 100232b0     libucrt:cvt.obj
 0002:000032bc       ??_C@_09IPFBKMDL@nan?$CIsnan?$CJ@ 100232bc     libucrt:cvt.obj
 0002:000032c8       ??_C@_08IKHNHAJ@NAN?$CIIND?$CJ@ 100232c8     libucrt:cvt.obj
 0002:000032d4       ??_C@_08OFCDMILK@nan?$CIind?$CJ@ 100232d4     libucrt:cvt.obj
 0002:000032e0       ??_C@_05KLBDPFGC@e?$CL000@ 100232e0     libucrt:cvt.obj
 0002:000032f8       ??_C@_1M@HPNHIDJI@?$AAj?$AAa?$AA?9?$AAJ?$AAP@ 100232f8     libucrt:mbctype.obj
 0002:00003304       ??_C@_1M@BIBDDEMK@?$AAz?$AAh?$AA?9?$AAC?$AAN@ 10023304     libucrt:mbctype.obj
 0002:00003310       ??_C@_1M@JLOOOEGK@?$AAk?$AAo?$AA?9?$AAK?$AAR@ 10023310     libucrt:mbctype.obj
 0002:0000331c       ??_C@_1M@CLNBBOPM@?$AAz?$AAh?$AA?9?$AAT?$AAW@ 1002331c     libucrt:mbctype.obj
 0002:00003328       ___newctype                10023328     libucrt:ctype.obj
 0002:00003628       ___newclmap                10023628     libucrt:ctype.obj
 0002:000037a8       ___newcumap                100237a8     libucrt:ctype.obj
 0002:00003928       ??_C@_15PJPFLCCM@?$AAu?$AAk@ 10023928     libucrt:get_qualified_locale.obj
 0002:00004050       ??_C@_15EMKDOKLE@?$AAa?$AAr@ 10024050     libucrt:lcidtoname_downlevel.obj
 0002:00004058       ??_C@_15KNPADPLH@?$AAb?$AAg@ 10024058     libucrt:lcidtoname_downlevel.obj
 0002:00004060       ??_C@_15EDMHLDMO@?$AAc?$AAa@ 10024060     libucrt:lcidtoname_downlevel.obj
 0002:00004068       ??_C@_1O@BPEAJADD@?$AAz?$AAh?$AA?9?$AAC?$AAH?$AAS@ 10024068     libucrt:lcidtoname_downlevel.obj
 0002:00004078       ??_C@_15LJNHCMNK@?$AAc?$AAs@ 10024078     libucrt:lcidtoname_downlevel.obj
 0002:00004080       ??_C@_15FOMCIDHG@?$AAd?$AAa@ 10024080     libucrt:lcidtoname_downlevel.obj
 0002:00004088       ??_C@_15NBKABECB@?$AAd?$AAe@ 10024088     libucrt:lcidtoname_downlevel.obj
 0002:00004090       ??_C@_15GHPEIIAO@?$AAe?$AAl@ 10024090     libucrt:lcidtoname_downlevel.obj
 0002:00004098       ??_C@_15MNPNEAIF@?$AAe?$AAn@ 10024098     libucrt:lcidtoname_downlevel.obj
 0002:000040a0       ??_C@_15GPIOMPMH@?$AAe?$AAs@ 100240a0     libucrt:lcidtoname_downlevel.obj
 0002:000040a8       ??_C@_15NGLOAKJC@?$AAf?$AAi@ 100240a8     libucrt:lcidtoname_downlevel.obj
 0002:000040b0       ??_C@_15FBKGNKAM@?$AAf?$AAr@ 100240b0     libucrt:lcidtoname_downlevel.obj
 0002:000040b8       ??_C@_15KGGCNEFK@?$AAh?$AAe@ 100240b8     libucrt:lcidtoname_downlevel.obj
 0002:000040c0       ??_C@_15PGHLIDMF@?$AAh?$AAu@ 100240c0     libucrt:lcidtoname_downlevel.obj
 0002:000040c8       ??_C@_15BIEMAPLM@?$AAi?$AAs@ 100240c8     libucrt:lcidtoname_downlevel.obj
 0002:000040d0       ??_C@_15IFJLDHAF@?$AAi?$AAt@ 100240d0     libucrt:lcidtoname_downlevel.obj
 0002:000040d8       ??_C@_15GEMIOCAG@?$AAj?$AAa@ 100240d8     libucrt:lcidtoname_downlevel.obj
 0002:000040e0       ??_C@_15EPELEGJA@?$AAk?$AAo@ 100240e0     libucrt:lcidtoname_downlevel.obj
 0002:000040e8       ??_C@_15NDDHIMN@?$AAn?$AAl@ 100240e8     libucrt:lcidtoname_downlevel.obj
 0002:000040f0       ??_C@_15BPIGNHCD@?$AAn?$AAo@ 100240f0     libucrt:lcidtoname_downlevel.obj
 0002:000040f8       ??_C@_15DEOPBLCG@?$AAp?$AAl@ 100240f8     libucrt:lcidtoname_downlevel.obj
 0002:00004100       ??_C@_15KBECGEFG@?$AAp?$AAt@ 10024100     libucrt:lcidtoname_downlevel.obj
 0002:00004108       ??_C@_15GLJCBFMD@?$AAr?$AAo@ 10024108     libucrt:lcidtoname_downlevel.obj
 0002:00004110       ??_C@_15FEDGKCDI@?$AAr?$AAu@ 10024110     libucrt:lcidtoname_downlevel.obj
 0002:00004118       ??_C@_15GLKMLLHM@?$AAh?$AAr@ 10024118     libucrt:lcidtoname_downlevel.obj
 0002:00004120       ??_C@_15CPKMFBDB@?$AAs?$AAk@ 10024120     libucrt:lcidtoname_downlevel.obj
 0002:00004128       ??_C@_15BAAIOGMK@?$AAs?$AAq@ 10024128     libucrt:lcidtoname_downlevel.obj
 0002:00004130       ??_C@_15INNPNOHD@?$AAs?$AAv@ 10024130     libucrt:lcidtoname_downlevel.obj
 0002:00004138       ??_C@_15CABMMOGH@?$AAt?$AAh@ 10024138     libucrt:lcidtoname_downlevel.obj
 0002:00004140       ??_C@_15BPLIHJJM@?$AAt?$AAr@ 10024140     libucrt:lcidtoname_downlevel.obj
 0002:00004148       ??_C@_15NEOEKKDJ@?$AAu?$AAr@ 10024148     libucrt:lcidtoname_downlevel.obj
 0002:00004150       ??_C@_15NFICGAJK@?$AAi?$AAd@ 10024150     libucrt:lcidtoname_downlevel.obj
 0002:00004158       ??_C@_15HPJPHDM@?$AAb?$AAe@ 10024158     libucrt:lcidtoname_downlevel.obj
 0002:00004160       ??_C@_15LCHLGJII@?$AAs?$AAl@ 10024160     libucrt:lcidtoname_downlevel.obj
 0002:00004168       ??_C@_15PCFJPHHO@?$AAe?$AAt@ 10024168     libucrt:lcidtoname_downlevel.obj
 0002:00004170       ??_C@_15HPFPGODN@?$AAl?$AAv@ 10024170     libucrt:lcidtoname_downlevel.obj
 0002:00004178       ??_C@_15NFFGKGLG@?$AAl?$AAt@ 10024178     libucrt:lcidtoname_downlevel.obj
 0002:00004180       ??_C@_15BDAKCCHN@?$AAf?$AAa@ 10024180     libucrt:lcidtoname_downlevel.obj
 0002:00004188       ??_C@_15NFGIAIAJ@?$AAv?$AAi@ 10024188     libucrt:lcidtoname_downlevel.obj
 0002:00004190       ??_C@_15LMKNDMHN@?$AAh?$AAy@ 10024190     libucrt:lcidtoname_downlevel.obj
 0002:00004198       ??_C@_15IJBHMCFL@?$AAa?$AAz@ 10024198     libucrt:lcidtoname_downlevel.obj
 0002:000041a0       ??_C@_15EKOFJABL@?$AAe?$AAu@ 100241a0     libucrt:lcidtoname_downlevel.obj
 0002:000041a8       ??_C@_15BGHADCNK@?$AAm?$AAk@ 100241a8     libucrt:lcidtoname_downlevel.obj
 0002:000041b0       ??_C@_15JDNICKHM@?$AAa?$AAf@ 100241b0     libucrt:lcidtoname_downlevel.obj
 0002:000041b8       ??_C@_15KPJEDBKD@?$AAk?$AAa@ 100241b8     libucrt:lcidtoname_downlevel.obj
 0002:000041c0       ??_C@_15PDNFFFEO@?$AAf?$AAo@ 100241c0     libucrt:lcidtoname_downlevel.obj
 0002:000041c8       ??_C@_15OMLEGLOC@?$AAh?$AAi@ 100241c8     libucrt:lcidtoname_downlevel.obj
 0002:000041d0       ??_C@_15IDNNENKK@?$AAm?$AAs@ 100241d0     libucrt:lcidtoname_downlevel.obj
 0002:000041d8       ??_C@_15MACJNBMH@?$AAk?$AAk@ 100241d8     libucrt:lcidtoname_downlevel.obj
 0002:000041e0       ??_C@_15DKDJEOND@?$AAk?$AAy@ 100241e0     libucrt:lcidtoname_downlevel.obj
 0002:000041e8       ??_C@_15DFGDLJBG@?$AAs?$AAw@ 100241e8     libucrt:lcidtoname_downlevel.obj
 0002:000041f0       ??_C@_15BBFAICNG@?$AAu?$AAz@ 100241f0     libucrt:lcidtoname_downlevel.obj
 0002:000041f8       ??_C@_15DKNDCGEA@?$AAt?$AAt@ 100241f8     libucrt:lcidtoname_downlevel.obj
 0002:00004200       ??_C@_15MGIFMDPL@?$AAp?$AAa@ 10024200     libucrt:lcidtoname_downlevel.obj
 0002:00004208       ??_C@_15HCNDBBA@?$AAg?$AAu@ 10024208     libucrt:lcidtoname_downlevel.obj
 0002:00004210       ??_C@_15FNBEIBON@?$AAt?$AAa@ 10024210     libucrt:lcidtoname_downlevel.obj
 0002:00004218       ??_C@_15NCHGBGLK@?$AAt?$AAe@ 10024218     libucrt:lcidtoname_downlevel.obj
 0002:00004220       ??_C@_15PHPHCBPF@?$AAk?$AAn@ 10024220     libucrt:lcidtoname_downlevel.obj
 0002:00004228       ??_C@_15DLGBCKMP@?$AAm?$AAr@ 10024228     libucrt:lcidtoname_downlevel.obj
 0002:00004230       ??_C@_15EABBLBFF@?$AAs?$AAa@ 10024230     libucrt:lcidtoname_downlevel.obj
 0002:00004238       ??_C@_15CBKOMCOI@?$AAm?$AAn@ 10024238     libucrt:lcidtoname_downlevel.obj
 0002:00004240       ??_C@_15CKDMCJAF@?$AAg?$AAl@ 10024240     libucrt:lcidtoname_downlevel.obj
 0002:00004248       ??_C@_17CNJFBPG@?$AAk?$AAo?$AAk@ 10024248     libucrt:lcidtoname_downlevel.obj
 0002:00004250       ??_C@_17FFBJICPL@?$AAs?$AAy?$AAr@ 10024250     libucrt:lcidtoname_downlevel.obj
 0002:00004258       ??_C@_17KPNDCPAF@?$AAd?$AAi?$AAv@ 10024258     libucrt:lcidtoname_downlevel.obj
 0002:00004260       ??_C@_1M@OKAHONE@?$AAa?$AAr?$AA?9?$AAS?$AAA@ 10024260     libucrt:lcidtoname_downlevel.obj
 0002:0000426c       ??_C@_1M@FFFIGIGK@?$AAb?$AAg?$AA?9?$AAB?$AAG@ 1002426c     libucrt:lcidtoname_downlevel.obj
 0002:00004278       ??_C@_1M@BJNKEDC@?$AAc?$AAa?$AA?9?$AAE?$AAS@ 10024278     libucrt:lcidtoname_downlevel.obj
 0002:00004284       ??_C@_1M@IJJHFJHA@?$AAc?$AAs?$AA?9?$AAC?$AAZ@ 10024284     libucrt:lcidtoname_downlevel.obj
 0002:00004290       ??_C@_1M@CLPEOBGI@?$AAd?$AAa?$AA?9?$AAD?$AAK@ 10024290     libucrt:lcidtoname_downlevel.obj
 0002:0000429c       ??_C@_1M@MCMADGCB@?$AAd?$AAe?$AA?9?$AAD?$AAE@ 1002429c     libucrt:lcidtoname_downlevel.obj
 0002:000042a8       ??_C@_1M@OOCKEMAM@?$AAe?$AAl?$AA?9?$AAG?$AAR@ 100242a8     libucrt:lcidtoname_downlevel.obj
 0002:000042b4       ??_C@_1M@DDNJFGID@?$AAf?$AAi?$AA?9?$AAF?$AAI@ 100242b4     libucrt:lcidtoname_downlevel.obj
 0002:000042c0       ??_C@_1M@GLIPPMAC@?$AAf?$AAr?$AA?9?$AAF?$AAR@ 100242c0     libucrt:lcidtoname_downlevel.obj
 0002:000042cc       ??_C@_1M@GFMCHPE@?$AAh?$AAe?$AA?9?$AAI?$AAL@ 100242cc     libucrt:lcidtoname_downlevel.obj
 0002:000042d8       ??_C@_1M@MHLPGNKM@?$AAh?$AAu?$AA?9?$AAH?$AAU@ 100242d8     libucrt:lcidtoname_downlevel.obj
 0002:000042e4       ??_C@_1M@LPDDNNPN@?$AAi?$AAs?$AA?9?$AAI?$AAS@ 100242e4     libucrt:lcidtoname_downlevel.obj
 0002:000042f0       ??_C@_1M@MADIPODN@?$AAi?$AAt?$AA?9?$AAI?$AAT@ 100242f0     libucrt:lcidtoname_downlevel.obj
 0002:000042fc       ??_C@_1M@IHBJJGG@?$AAn?$AAl?$AA?9?$AAN?$AAL@ 100242fc     libucrt:lcidtoname_downlevel.obj
 0002:00004308       ??_C@_1M@EANAGDL@?$AAn?$AAb?$AA?9?$AAN?$AAO@ 10024308     libucrt:lcidtoname_downlevel.obj
 0002:00004314       ??_C@_1M@NEIEMEGP@?$AAp?$AAl?$AA?9?$AAP?$AAL@ 10024314     libucrt:lcidtoname_downlevel.obj
 0002:00004320       ??_C@_1M@BOCFIGEP@?$AAp?$AAt?$AA?9?$AAB?$AAR@ 10024320     libucrt:lcidtoname_downlevel.obj
 0002:0000432c       ??_C@_1M@IMPFOPBG@?$AAr?$AAo?$AA?9?$AAR?$AAO@ 1002432c     libucrt:lcidtoname_downlevel.obj
 0002:00004338       ??_C@_1M@IDNNEJMM@?$AAr?$AAu?$AA?9?$AAR?$AAU@ 10024338     libucrt:lcidtoname_downlevel.obj
 0002:00004344       ??_C@_1M@LILEEOGM@?$AAh?$AAr?$AA?9?$AAH?$AAR@ 10024344     libucrt:lcidtoname_downlevel.obj
 0002:00004350       ??_C@_1M@FKIFEHPB@?$AAs?$AAk?$AA?9?$AAS?$AAK@ 10024350     libucrt:lcidtoname_downlevel.obj
 0002:0000435c       ??_C@_1M@LJMAMNPJ@?$AAs?$AAq?$AA?9?$AAA?$AAL@ 1002435c     libucrt:lcidtoname_downlevel.obj
 0002:00004368       ??_C@_1M@GIAKDKJK@?$AAs?$AAv?$AA?9?$AAS?$AAE@ 10024368     libucrt:lcidtoname_downlevel.obj
 0002:00004374       ??_C@_1M@MKJKIKCL@?$AAt?$AAh?$AA?9?$AAT?$AAH@ 10024374     libucrt:lcidtoname_downlevel.obj
 0002:00004380       ??_C@_1M@MFLCCMPB@?$AAt?$AAr?$AA?9?$AAT?$AAR@ 10024380     libucrt:lcidtoname_downlevel.obj
 0002:0000438c       ??_C@_1M@OIJHDKJN@?$AAu?$AAr?$AA?9?$AAP?$AAK@ 1002438c     libucrt:lcidtoname_downlevel.obj
 0002:00004398       ??_C@_1M@LHIPCIEK@?$AAi?$AAd?$AA?9?$AAI?$AAD@ 10024398     libucrt:lcidtoname_downlevel.obj
 0002:000043a4       ??_C@_1M@MFMOBGI@?$AAu?$AAk?$AA?9?$AAU?$AAA@ 100243a4     libucrt:lcidtoname_downlevel.obj
 0002:000043b0       ??_C@_1M@OBGLJIPL@?$AAb?$AAe?$AA?9?$AAB?$AAY@ 100243b0     libucrt:lcidtoname_downlevel.obj
 0002:000043bc       ??_C@_1M@BCFAJEAD@?$AAs?$AAl?$AA?9?$AAS?$AAI@ 100243bc     libucrt:lcidtoname_downlevel.obj
 0002:000043c8       ??_C@_1M@FKFFEDDN@?$AAe?$AAt?$AA?9?$AAE?$AAE@ 100243c8     libucrt:lcidtoname_downlevel.obj
 0002:000043d4       ??_C@_1M@KGKKAACI@?$AAl?$AAv?$AA?9?$AAL?$AAV@ 100243d4     libucrt:lcidtoname_downlevel.obj
 0002:000043e0       ??_C@_1M@IFGBIJO@?$AAl?$AAt?$AA?9?$AAL?$AAT@ 100243e0     libucrt:lcidtoname_downlevel.obj
 0002:000043ec       ??_C@_1M@FGEAHEDM@?$AAf?$AAa?$AA?9?$AAI?$AAR@ 100243ec     libucrt:lcidtoname_downlevel.obj
 0002:000043f8       ??_C@_1M@KBMAIBFN@?$AAv?$AAi?$AA?9?$AAV?$AAN@ 100243f8     libucrt:lcidtoname_downlevel.obj
 0002:00004404       ??_C@_1M@GPCBKDJK@?$AAh?$AAy?$AA?9?$AAA?$AAM@ 10024404     libucrt:lcidtoname_downlevel.obj
 0002:00004410       ??_C@_1BG@BECMDDJB@?$AAa?$AAz?$AA?9?$AAA?$AAZ?$AA?9?$AAL?$AAa?$AAt?$AAn@ 10024410     libucrt:lcidtoname_downlevel.obj
 0002:00004428       ??_C@_1M@MAOFCAEA@?$AAe?$AAu?$AA?9?$AAE?$AAS@ 10024428     libucrt:lcidtoname_downlevel.obj
 0002:00004434       ??_C@_1M@IGHABKPI@?$AAm?$AAk?$AA?9?$AAM?$AAK@ 10024434     libucrt:lcidtoname_downlevel.obj
 0002:00004440       ??_C@_1M@IAIGNEJG@?$AAt?$AAn?$AA?9?$AAZ?$AAA@ 10024440     libucrt:lcidtoname_downlevel.obj
 0002:0000444c       ??_C@_1M@IIJCOJFA@?$AAx?$AAh?$AA?9?$AAZ?$AAA@ 1002444c     libucrt:lcidtoname_downlevel.obj
 0002:00004458       ??_C@_1M@LGPJHNJH@?$AAz?$AAu?$AA?9?$AAZ?$AAA@ 10024458     libucrt:lcidtoname_downlevel.obj
 0002:00004464       ??_C@_1M@HOKAOIO@?$AAa?$AAf?$AA?9?$AAZ?$AAA@ 10024464     libucrt:lcidtoname_downlevel.obj
 0002:00004470       ??_C@_1M@DPCLHLIE@?$AAk?$AAa?$AA?9?$AAG?$AAE@ 10024470     libucrt:lcidtoname_downlevel.obj
 0002:0000447c       ??_C@_1M@BLKMHJBI@?$AAf?$AAo?$AA?9?$AAF?$AAO@ 1002447c     libucrt:lcidtoname_downlevel.obj
 0002:00004488       ??_C@_1M@LGGJAPPB@?$AAh?$AAi?$AA?9?$AAI?$AAN@ 10024488     libucrt:lcidtoname_downlevel.obj
 0002:00004494       ??_C@_1M@FIKPIHFE@?$AAm?$AAt?$AA?9?$AAM?$AAT@ 10024494     libucrt:lcidtoname_downlevel.obj
 0002:000044a0       ??_C@_1M@HEGGPBFA@?$AAs?$AAe?$AA?9?$AAN?$AAO@ 100244a0     libucrt:lcidtoname_downlevel.obj
 0002:000044ac       ??_C@_1M@EIBJEEPA@?$AAm?$AAs?$AA?9?$AAM?$AAY@ 100244ac     libucrt:lcidtoname_downlevel.obj
 0002:000044b8       ??_C@_1M@FHLBGMPP@?$AAk?$AAk?$AA?9?$AAK?$AAZ@ 100244b8     libucrt:lcidtoname_downlevel.obj
 0002:000044c4       ??_C@_1M@NGJJLCGI@?$AAk?$AAy?$AA?9?$AAK?$AAG@ 100244c4     libucrt:lcidtoname_downlevel.obj
 0002:000044d0       ??_C@_1M@GIENNBFC@?$AAs?$AAw?$AA?9?$AAK?$AAE@ 100244d0     libucrt:lcidtoname_downlevel.obj
 0002:000044dc       ??_C@_1BG@NDGMJIMJ@?$AAu?$AAz?$AA?9?$AAU?$AAZ?$AA?9?$AAL?$AAa?$AAt?$AAn@ 100244dc     libucrt:lcidtoname_downlevel.obj
 0002:000044f4       ??_C@_1M@IDCCIHBC@?$AAt?$AAt?$AA?9?$AAR?$AAU@ 100244f4     libucrt:lcidtoname_downlevel.obj
 0002:00004500       ??_C@_1M@LOICPMOJ@?$AAb?$AAn?$AA?9?$AAI?$AAN@ 10024500     libucrt:lcidtoname_downlevel.obj
 0002:0000450c       ??_C@_1M@KPKKNEAH@?$AAp?$AAa?$AA?9?$AAI?$AAN@ 1002450c     libucrt:lcidtoname_downlevel.obj
 0002:00004518       ??_C@_1M@PJGPPBOG@?$AAg?$AAu?$AA?9?$AAI?$AAN@ 10024518     libucrt:lcidtoname_downlevel.obj
 0002:00004524       ??_C@_1M@KMKMOPHI@?$AAt?$AAa?$AA?9?$AAI?$AAN@ 10024524     libucrt:lcidtoname_downlevel.obj
 0002:00004530       ??_C@_1M@KFEHEPAC@?$AAt?$AAe?$AA?9?$AAI?$AAN@ 10024530     libucrt:lcidtoname_downlevel.obj
 0002:0000453c       ??_C@_1M@CDCLMGHI@?$AAk?$AAn?$AA?9?$AAI?$AAN@ 1002453c     libucrt:lcidtoname_downlevel.obj
 0002:00004548       ??_C@_1M@MIODLDKF@?$AAm?$AAl?$AA?9?$AAI?$AAN@ 10024548     libucrt:lcidtoname_downlevel.obj
 0002:00004554       ??_C@_1M@PBIEACPO@?$AAm?$AAr?$AA?9?$AAI?$AAN@ 10024554     libucrt:lcidtoname_downlevel.obj
 0002:00004560       ??_C@_1M@NIDEAGPH@?$AAs?$AAa?$AA?9?$AAI?$AAN@ 10024560     libucrt:lcidtoname_downlevel.obj
 0002:0000456c       ??_C@_1M@FHIHCBIO@?$AAm?$AAn?$AA?9?$AAM?$AAN@ 1002456c     libucrt:lcidtoname_downlevel.obj
 0002:00004578       ??_C@_1M@JAIJPENP@?$AAc?$AAy?$AA?9?$AAG?$AAB@ 10024578     libucrt:lcidtoname_downlevel.obj
 0002:00004584       ??_C@_1M@PHGFBEPN@?$AAg?$AAl?$AA?9?$AAE?$AAS@ 10024584     libucrt:lcidtoname_downlevel.obj
 0002:00004590       ??_C@_1O@KPIPDNCP@?$AAk?$AAo?$AAk?$AA?9?$AAI?$AAN@ 10024590     libucrt:lcidtoname_downlevel.obj
 0002:000045a0       ??_C@_1O@KNHJLDJA@?$AAs?$AAy?$AAr?$AA?9?$AAS?$AAY@ 100245a0     libucrt:lcidtoname_downlevel.obj
 0002:000045b0       ??_C@_1O@MKEKBLAH@?$AAd?$AAi?$AAv?$AA?9?$AAM?$AAV@ 100245b0     libucrt:lcidtoname_downlevel.obj
 0002:000045c0       ??_C@_1O@OHDCKDDF@?$AAq?$AAu?$AAz?$AA?9?$AAB?$AAO@ 100245c0     libucrt:lcidtoname_downlevel.obj
 0002:000045d0       ??_C@_1M@LEPJNLFD@?$AAn?$AAs?$AA?9?$AAZ?$AAA@ 100245d0     libucrt:lcidtoname_downlevel.obj
 0002:000045dc       ??_C@_1M@OMLEIIJB@?$AAm?$AAi?$AA?9?$AAN?$AAZ@ 100245dc     libucrt:lcidtoname_downlevel.obj
 0002:000045e8       ??_C@_1M@PMPEAILG@?$AAa?$AAr?$AA?9?$AAI?$AAQ@ 100245e8     libucrt:lcidtoname_downlevel.obj
 0002:000045f4       ??_C@_1M@CNKPNOEE@?$AAd?$AAe?$AA?9?$AAC?$AAH@ 100245f4     libucrt:lcidtoname_downlevel.obj
 0002:00004600       ??_C@_1M@LKMGMLKO@?$AAe?$AAn?$AA?9?$AAG?$AAB@ 10024600     libucrt:lcidtoname_downlevel.obj
 0002:0000460c       ??_C@_1M@PGKJFFGL@?$AAe?$AAs?$AA?9?$AAM?$AAX@ 1002460c     libucrt:lcidtoname_downlevel.obj
 0002:00004618       ??_C@_1M@DNNANBDC@?$AAf?$AAr?$AA?9?$AAB?$AAE@ 10024618     libucrt:lcidtoname_downlevel.obj
 0002:00004624       ??_C@_1M@HLGMDFHM@?$AAi?$AAt?$AA?9?$AAC?$AAH@ 10024624     libucrt:lcidtoname_downlevel.obj
 0002:00004630       ??_C@_1M@CLLBGJH@?$AAn?$AAl?$AA?9?$AAB?$AAE@ 10024630     libucrt:lcidtoname_downlevel.obj
 0002:0000463c       ??_C@_1M@BODBOGLF@?$AAn?$AAn?$AA?9?$AAN?$AAO@ 1002463c     libucrt:lcidtoname_downlevel.obj
 0002:00004648       ??_C@_1M@HFFAHKAD@?$AAp?$AAt?$AA?9?$AAP?$AAT@ 10024648     libucrt:lcidtoname_downlevel.obj
 0002:00004654       ??_C@_1BG@LNOAKHIE@?$AAs?$AAr?$AA?9?$AAS?$AAP?$AA?9?$AAL?$AAa?$AAt?$AAn@ 10024654     libucrt:lcidtoname_downlevel.obj
 0002:0000466c       ??_C@_1M@HBMHBGAK@?$AAs?$AAv?$AA?9?$AAF?$AAI@ 1002466c     libucrt:lcidtoname_downlevel.obj
 0002:00004678       ??_C@_1BG@DGCJGJBE@?$AAa?$AAz?$AA?9?$AAA?$AAZ?$AA?9?$AAC?$AAy?$AAr?$AAl@ 10024678     libucrt:lcidtoname_downlevel.obj
 0002:00004690       ??_C@_1M@KEJDAAHB@?$AAs?$AAe?$AA?9?$AAS?$AAE@ 10024690     libucrt:lcidtoname_downlevel.obj
 0002:0000469c       ??_C@_1M@HEIBJJAD@?$AAm?$AAs?$AA?9?$AAB?$AAN@ 1002469c     libucrt:lcidtoname_downlevel.obj
 0002:000046a8       ??_C@_1BG@PBGJMCEM@?$AAu?$AAz?$AA?9?$AAU?$AAZ?$AA?9?$AAC?$AAy?$AAr?$AAl@ 100246a8     libucrt:lcidtoname_downlevel.obj
 0002:000046c0       ??_C@_1O@LAOBCMDF@?$AAq?$AAu?$AAz?$AA?9?$AAE?$AAC@ 100246c0     libucrt:lcidtoname_downlevel.obj
 0002:000046d0       ??_C@_1M@POEEMAIO@?$AAa?$AAr?$AA?9?$AAE?$AAG@ 100246d0     libucrt:lcidtoname_downlevel.obj
 0002:000046dc       ??_C@_1M@EFAKDEDL@?$AAz?$AAh?$AA?9?$AAH?$AAK@ 100246dc     libucrt:lcidtoname_downlevel.obj
 0002:000046e8       ??_C@_1M@HKKIJHGI@?$AAd?$AAe?$AA?9?$AAA?$AAT@ 100246e8     libucrt:lcidtoname_downlevel.obj
 0002:000046f4       ??_C@_1M@KBFBEHJF@?$AAe?$AAn?$AA?9?$AAA?$AAU@ 100246f4     libucrt:lcidtoname_downlevel.obj
 0002:00004700       ??_C@_1M@MNPLFAAH@?$AAe?$AAs?$AA?9?$AAE?$AAS@ 10024700     libucrt:lcidtoname_downlevel.obj
 0002:0000470c       ??_C@_1M@HJOOJFMA@?$AAf?$AAr?$AA?9?$AAC?$AAA@ 1002470c     libucrt:lcidtoname_downlevel.obj
 0002:00004718       ??_C@_1BG@JPOFPNAB@?$AAs?$AAr?$AA?9?$AAS?$AAP?$AA?9?$AAC?$AAy?$AAr?$AAl@ 10024718     libucrt:lcidtoname_downlevel.obj
 0002:00004730       ??_C@_1M@LNFOCMOB@?$AAs?$AAe?$AA?9?$AAF?$AAI@ 10024730     libucrt:lcidtoname_downlevel.obj
 0002:0000473c       ??_C@_1O@MGJBOAMB@?$AAq?$AAu?$AAz?$AA?9?$AAP?$AAE@ 1002473c     libucrt:lcidtoname_downlevel.obj
 0002:0000474c       ??_C@_1M@GJINLBOK@?$AAa?$AAr?$AA?9?$AAL?$AAY@ 1002474c     libucrt:lcidtoname_downlevel.obj
 0002:00004758       ??_C@_1M@GGMNHJNL@?$AAz?$AAh?$AA?9?$AAS?$AAG@ 10024758     libucrt:lcidtoname_downlevel.obj
 0002:00004764       ??_C@_1M@HOIKODND@?$AAd?$AAe?$AA?9?$AAL?$AAU@ 10024764     libucrt:lcidtoname_downlevel.obj
 0002:00004770       ??_C@_1M@DDOCCGFG@?$AAe?$AAn?$AA?9?$AAC?$AAA@ 10024770     libucrt:lcidtoname_downlevel.obj
 0002:0000477c       ??_C@_1M@BNOEMJLF@?$AAe?$AAs?$AA?9?$AAG?$AAT@ 1002477c     libucrt:lcidtoname_downlevel.obj
 0002:00004788       ??_C@_1M@EOGNKEK@?$AAf?$AAr?$AA?9?$AAC?$AAH@ 10024788     libucrt:lcidtoname_downlevel.obj
 0002:00004794       ??_C@_1M@FLIDJFHL@?$AAh?$AAr?$AA?9?$AAB?$AAA@ 10024794     libucrt:lcidtoname_downlevel.obj
 0002:000047a0       ??_C@_1O@FMCELNAJ@?$AAs?$AAm?$AAj?$AA?9?$AAN?$AAO@ 100247a0     libucrt:lcidtoname_downlevel.obj
 0002:000047b0       ??_C@_1M@JHGLJMGJ@?$AAa?$AAr?$AA?9?$AAD?$AAZ@ 100247b0     libucrt:lcidtoname_downlevel.obj
 0002:000047bc       ??_C@_1M@JKKFDCNP@?$AAz?$AAh?$AA?9?$AAM?$AAO@ 100247bc     libucrt:lcidtoname_downlevel.obj
 0002:000047c8       ??_C@_1M@GEEFALPE@?$AAd?$AAe?$AA?9?$AAL?$AAI@ 100247c8     libucrt:lcidtoname_downlevel.obj
 0002:000047d4       ??_C@_1M@IGEOFBG@?$AAe?$AAn?$AA?9?$AAN?$AAZ@ 100247d4     libucrt:lcidtoname_downlevel.obj
 0002:000047e0       ??_C@_1M@KDBONEHP@?$AAe?$AAs?$AA?9?$AAC?$AAR@ 100247e0     libucrt:lcidtoname_downlevel.obj
 0002:000047ec       ??_C@_1M@FHMDOHNN@?$AAf?$AAr?$AA?9?$AAL?$AAU@ 100247ec     libucrt:lcidtoname_downlevel.obj
 0002:000047f8       ??_C@_1BG@NFKKMAFG@?$AAb?$AAs?$AA?9?$AAB?$AAA?$AA?9?$AAL?$AAa?$AAt?$AAn@ 100247f8     libucrt:lcidtoname_downlevel.obj
 0002:00004810       ??_C@_1O@IMNBEMCI@?$AAs?$AAm?$AAj?$AA?9?$AAS?$AAE@ 10024810     libucrt:lcidtoname_downlevel.obj
 0002:00004820       ??_C@_1M@DHHMBNDP@?$AAa?$AAr?$AA?9?$AAM?$AAA@ 10024820     libucrt:lcidtoname_downlevel.obj
 0002:0000482c       ??_C@_1M@BNBLJCGH@?$AAe?$AAn?$AA?9?$AAI?$AAE@ 1002482c     libucrt:lcidtoname_downlevel.obj
 0002:00004838       ??_C@_1M@GEPAFMDL@?$AAe?$AAs?$AA?9?$AAP?$AAA@ 10024838     libucrt:lcidtoname_downlevel.obj
 0002:00004844       ??_C@_1M@OJONDMDL@?$AAf?$AAr?$AA?9?$AAM?$AAC@ 10024844     libucrt:lcidtoname_downlevel.obj
 0002:00004850       ??_C@_1BG@OBCNFJB@?$AAs?$AAr?$AA?9?$AAB?$AAA?$AA?9?$AAL?$AAa?$AAt?$AAn@ 10024850     libucrt:lcidtoname_downlevel.obj
 0002:00004868       ??_C@_1O@KEMEEGPO@?$AAs?$AAm?$AAa?$AA?9?$AAN?$AAO@ 10024868     libucrt:lcidtoname_downlevel.obj
 0002:00004878       ??_C@_1M@ELMGFODK@?$AAa?$AAr?$AA?9?$AAT?$AAN@ 10024878     libucrt:lcidtoname_downlevel.obj
 0002:00004884       ??_C@_1M@BHDLHFAF@?$AAe?$AAn?$AA?9?$AAZ?$AAA@ 10024884     libucrt:lcidtoname_downlevel.obj
 0002:00004890       ??_C@_1M@BMGIGLIF@?$AAe?$AAs?$AA?9?$AAD?$AAO@ 10024890     libucrt:lcidtoname_downlevel.obj
 0002:0000489c       ??_C@_1BG@CMBHIPBE@?$AAs?$AAr?$AA?9?$AAB?$AAA?$AA?9?$AAC?$AAy?$AAr?$AAl@ 1002489c     libucrt:lcidtoname_downlevel.obj
 0002:000048b4       ??_C@_1O@HEDBLHNP@?$AAs?$AAm?$AAa?$AA?9?$AAS?$AAE@ 100248b4     libucrt:lcidtoname_downlevel.obj
 0002:000048c4       ??_C@_1M@DAGCADIM@?$AAa?$AAr?$AA?9?$AAO?$AAM@ 100248c4     libucrt:lcidtoname_downlevel.obj
 0002:000048d0       ??_C@_1M@FODLMICG@?$AAe?$AAn?$AA?9?$AAJ?$AAM@ 100248d0     libucrt:lcidtoname_downlevel.obj
 0002:000048dc       ??_C@_1M@DNMLCIHB@?$AAe?$AAs?$AA?9?$AAV?$AAE@ 100248dc     libucrt:lcidtoname_downlevel.obj
 0002:000048e8       ??_C@_1O@EOKHMKJK@?$AAs?$AAm?$AAs?$AA?9?$AAF?$AAI@ 100248e8     libucrt:lcidtoname_downlevel.obj
 0002:000048f8       ??_C@_1M@CAFJMKOF@?$AAa?$AAr?$AA?9?$AAY?$AAE@ 100248f8     libucrt:lcidtoname_downlevel.obj
 0002:00004904       ??_C@_1M@CBFHIJLI@?$AAe?$AAn?$AA?9?$AAC?$AAB@ 10024904     libucrt:lcidtoname_downlevel.obj
 0002:00004910       ??_C@_1M@BGNFLDN@?$AAe?$AAs?$AA?9?$AAC?$AAO@ 10024910     libucrt:lcidtoname_downlevel.obj
 0002:0000491c       ??_C@_1O@JMPHMAMC@?$AAs?$AAm?$AAn?$AA?9?$AAF?$AAI@ 1002491c     libucrt:lcidtoname_downlevel.obj
 0002:0000492c       ??_C@_1M@JLANABKE@?$AAa?$AAr?$AA?9?$AAS?$AAY@ 1002492c     libucrt:lcidtoname_downlevel.obj
 0002:00004938       ??_C@_1M@HPKGCFGN@?$AAe?$AAn?$AA?9?$AAB?$AAZ@ 10024938     libucrt:lcidtoname_downlevel.obj
 0002:00004944       ??_C@_1M@OLJCMLGM@?$AAe?$AAs?$AA?9?$AAP?$AAE@ 10024944     libucrt:lcidtoname_downlevel.obj
 0002:00004950       ??_C@_1M@MKKGFKLE@?$AAa?$AAr?$AA?9?$AAJ?$AAO@ 10024950     libucrt:lcidtoname_downlevel.obj
 0002:0000495c       ??_C@_1M@EKPGLDNI@?$AAe?$AAn?$AA?9?$AAT?$AAT@ 1002495c     libucrt:lcidtoname_downlevel.obj
 0002:00004968       ??_C@_1M@OONGHFHE@?$AAe?$AAs?$AA?9?$AAA?$AAR@ 10024968     libucrt:lcidtoname_downlevel.obj
 0002:00004974       ??_C@_1M@OOJFGBHE@?$AAa?$AAr?$AA?9?$AAL?$AAB@ 10024974     libucrt:lcidtoname_downlevel.obj
 0002:00004980       ??_C@_1M@GCEJHNEG@?$AAe?$AAn?$AA?9?$AAZ?$AAW@ 10024980     libucrt:lcidtoname_downlevel.obj
 0002:0000498c       ??_C@_1M@JNOCAHJI@?$AAe?$AAs?$AA?9?$AAE?$AAC@ 1002498c     libucrt:lcidtoname_downlevel.obj
 0002:00004998       ??_C@_1M@JEFHPGGB@?$AAa?$AAr?$AA?9?$AAK?$AAW@ 10024998     libucrt:lcidtoname_downlevel.obj
 0002:000049a4       ??_C@_1M@MLKIBJOJ@?$AAe?$AAn?$AA?9?$AAP?$AAH@ 100249a4     libucrt:lcidtoname_downlevel.obj
 0002:000049b0       ??_C@_1M@BDNIPEND@?$AAe?$AAs?$AA?9?$AAC?$AAL@ 100249b0     libucrt:lcidtoname_downlevel.obj
 0002:000049bc       ??_C@_1M@MPNMEKBD@?$AAa?$AAr?$AA?9?$AAA?$AAE@ 100249bc     libucrt:lcidtoname_downlevel.obj
 0002:000049c8       ??_C@_1M@KBJALCPI@?$AAe?$AAs?$AA?9?$AAU?$AAY@ 100249c8     libucrt:lcidtoname_downlevel.obj
 0002:000049d4       ??_C@_1M@LLCCOAGA@?$AAa?$AAr?$AA?9?$AAB?$AAH@ 100249d4     libucrt:lcidtoname_downlevel.obj
 0002:000049e0       ??_C@_1M@PBFNCDEL@?$AAe?$AAs?$AA?9?$AAP?$AAY@ 100249e0     libucrt:lcidtoname_downlevel.obj
 0002:000049ec       ??_C@_1M@EDGINPNP@?$AAa?$AAr?$AA?9?$AAQ?$AAA@ 100249ec     libucrt:lcidtoname_downlevel.obj
 0002:000049f8       ??_C@_1M@MKDBIIJI@?$AAe?$AAs?$AA?9?$AAB?$AAO@ 100249f8     libucrt:lcidtoname_downlevel.obj
 0002:00004a04       ??_C@_1M@CPKKEBLD@?$AAe?$AAs?$AA?9?$AAS?$AAV@ 10024a04     libucrt:lcidtoname_downlevel.obj
 0002:00004a10       ??_C@_1M@NDBGMMJL@?$AAe?$AAs?$AA?9?$AAH?$AAN@ 10024a10     libucrt:lcidtoname_downlevel.obj
 0002:00004a1c       ??_C@_1M@JIJIBHDP@?$AAe?$AAs?$AA?9?$AAN?$AAI@ 10024a1c     libucrt:lcidtoname_downlevel.obj
 0002:00004a28       ??_C@_1M@CGFMKEEK@?$AAe?$AAs?$AA?9?$AAP?$AAR@ 10024a28     libucrt:lcidtoname_downlevel.obj
 0002:00004a34       ??_C@_1O@ICJHKIIK@?$AAz?$AAh?$AA?9?$AAC?$AAH?$AAT@ 10024a34     libucrt:lcidtoname_downlevel.obj
 0002:00004a44       ??_C@_15CLNEJCE@?$AAs?$AAr@ 10024a44     libucrt:lcidtoname_downlevel.obj
 0002:00005170       ??_C@_1M@KAHEKEIG@?$AAa?$AAf?$AA?9?$AAz?$AAa@ 10025170     libucrt:lcidtoname_downlevel.obj
 0002:0000517c       ??_C@_1M@GIECOABL@?$AAa?$AAr?$AA?9?$AAa?$AAe@ 1002517c     libucrt:lcidtoname_downlevel.obj
 0002:00005188       ??_C@_1M@BMLMEKGI@?$AAa?$AAr?$AA?9?$AAb?$AAh@ 10025188     libucrt:lcidtoname_downlevel.obj
 0002:00005194       ??_C@_1M@DAPFDGGB@?$AAa?$AAr?$AA?9?$AAd?$AAz@ 10025194     libucrt:lcidtoname_downlevel.obj
 0002:000051a0       ??_C@_1M@FJNKGKIG@?$AAa?$AAr?$AA?9?$AAe?$AAg@ 100251a0     libucrt:lcidtoname_downlevel.obj
 0002:000051ac       ??_C@_1M@FLGKKCLO@?$AAa?$AAr?$AA?9?$AAi?$AAq@ 100251ac     libucrt:lcidtoname_downlevel.obj
 0002:000051b8       ??_C@_1M@GNDIPALM@?$AAa?$AAr?$AA?9?$AAj?$AAo@ 100251b8     libucrt:lcidtoname_downlevel.obj
 0002:000051c4       ??_C@_1M@DDMJFMGJ@?$AAa?$AAr?$AA?9?$AAk?$AAw@ 100251c4     libucrt:lcidtoname_downlevel.obj
 0002:000051d0       ??_C@_1M@EJALMLHM@?$AAa?$AAr?$AA?9?$AAl?$AAb@ 100251d0     libucrt:lcidtoname_downlevel.obj
 0002:000051dc       ??_C@_1M@MOBDBLOC@?$AAa?$AAr?$AA?9?$AAl?$AAy@ 100251dc     libucrt:lcidtoname_downlevel.obj
 0002:000051e8       ??_C@_1M@JAOCLHDH@?$AAa?$AAr?$AA?9?$AAm?$AAa@ 100251e8     libucrt:lcidtoname_downlevel.obj
 0002:000051f4       ??_C@_1M@JHPMKJIE@?$AAa?$AAr?$AA?9?$AAo?$AAm@ 100251f4     libucrt:lcidtoname_downlevel.obj
 0002:00005200       ??_C@_1M@OEPGHFNH@?$AAa?$AAr?$AA?9?$AAq?$AAa@ 10025200     libucrt:lcidtoname_downlevel.obj
 0002:0000520c       ??_C@_1M@KJDONENM@?$AAa?$AAr?$AA?9?$AAs?$AAa@ 1002520c     libucrt:lcidtoname_downlevel.obj
 0002:00005218       ??_C@_1M@DMJDKLKM@?$AAa?$AAr?$AA?9?$AAs?$AAy@ 10025218     libucrt:lcidtoname_downlevel.obj
 0002:00005224       ??_C@_1M@OMFIPEDC@?$AAa?$AAr?$AA?9?$AAt?$AAn@ 10025224     libucrt:lcidtoname_downlevel.obj
 0002:00005230       ??_C@_1M@IHMHGAON@?$AAa?$AAr?$AA?9?$AAy?$AAe@ 10025230     libucrt:lcidtoname_downlevel.obj
 0002:0000523c       ??_C@_1BG@KDCPGJGB@?$AAa?$AAz?$AA?9?$AAa?$AAz?$AA?9?$AAc?$AAy?$AAr?$AAl@ 1002523c     libucrt:lcidtoname_downlevel.obj
 0002:00005254       ??_C@_1BG@IBCKDDOE@?$AAa?$AAz?$AA?9?$AAa?$AAz?$AA?9?$AAl?$AAa?$AAt?$AAn@ 10025254     libucrt:lcidtoname_downlevel.obj
 0002:0000526c       ??_C@_1M@EGPFDCPD@?$AAb?$AAe?$AA?9?$AAb?$AAy@ 1002526c     libucrt:lcidtoname_downlevel.obj
 0002:00005278       ??_C@_1M@PCMGMCGC@?$AAb?$AAg?$AA?9?$AAb?$AAg@ 10025278     libucrt:lcidtoname_downlevel.obj
 0002:00005284       ??_C@_1M@BJBMFGOB@?$AAb?$AAn?$AA?9?$AAi?$AAn@ 10025284     libucrt:lcidtoname_downlevel.obj
 0002:00005290       ??_C@_1BG@EAKMMACD@?$AAb?$AAs?$AA?9?$AAb?$AAa?$AA?9?$AAl?$AAa?$AAt?$AAn@ 10025290     libucrt:lcidtoname_downlevel.obj
 0002:000052a8       ??_C@_1M@KGADAODK@?$AAc?$AAa?$AA?9?$AAe?$AAs@ 100252a8     libucrt:lcidtoname_downlevel.obj
 0002:000052b4       ??_C@_1M@COAJPDHI@?$AAc?$AAs?$AA?9?$AAc?$AAz@ 100252b4     libucrt:lcidtoname_downlevel.obj
 0002:000052c0       ??_C@_1M@DHBHFONH@?$AAc?$AAy?$AA?9?$AAg?$AAb@ 100252c0     libucrt:lcidtoname_downlevel.obj
 0002:000052cc       ??_C@_1M@IMGKELGA@?$AAd?$AAa?$AA?9?$AAd?$AAk@ 100252cc     libucrt:lcidtoname_downlevel.obj
 0002:000052d8       ??_C@_1M@NNDGDNGA@?$AAd?$AAe?$AA?9?$AAa?$AAt@ 100252d8     libucrt:lcidtoname_downlevel.obj
 0002:000052e4       ??_C@_1M@IKDBHEEM@?$AAd?$AAe?$AA?9?$AAc?$AAh@ 100252e4     libucrt:lcidtoname_downlevel.obj
 0002:000052f0       ??_C@_1M@GFFOJMCJ@?$AAd?$AAe?$AA?9?$AAd?$AAe@ 100252f0     libucrt:lcidtoname_downlevel.obj
 0002:000052fc       ??_C@_1M@MDNLKBPM@?$AAd?$AAe?$AA?9?$AAl?$AAi@ 100252fc     libucrt:lcidtoname_downlevel.obj
 0002:00005308       ??_C@_1M@NJBEEJNL@?$AAd?$AAe?$AA?9?$AAl?$AAu@ 10025308     libucrt:lcidtoname_downlevel.obj
 0002:00005314       ??_C@_1O@GNNELBAP@?$AAd?$AAi?$AAv?$AA?9?$AAm?$AAv@ 10025314     libucrt:lcidtoname_downlevel.obj
 0002:00005324       ??_C@_1M@EJLEOGAE@?$AAe?$AAl?$AA?9?$AAg?$AAr@ 10025324     libucrt:lcidtoname_downlevel.obj
 0002:00005330       ??_C@_1M@GMPONJN@?$AAe?$AAn?$AA?9?$AAa?$AAu@ 10025330     libucrt:lcidtoname_downlevel.obj
 0002:0000533c       ??_C@_1M@NIDIIPGF@?$AAe?$AAn?$AA?9?$AAb?$AAz@ 1002533c     libucrt:lcidtoname_downlevel.obj
 0002:00005348       ??_C@_1M@JEHMIMFO@?$AAe?$AAn?$AA?9?$AAc?$AAa@ 10025348     libucrt:lcidtoname_downlevel.obj
 0002:00005354       ??_C@_1M@IGMJCDLA@?$AAe?$AAn?$AA?9?$AAc?$AAb@ 10025354     libucrt:lcidtoname_downlevel.obj
 0002:00005360       ??_C@_1M@BNFIGBKG@?$AAe?$AAn?$AA?9?$AAg?$AAb@ 10025360     libucrt:lcidtoname_downlevel.obj
 0002:0000536c       ??_C@_1M@LKIFDIGP@?$AAe?$AAn?$AA?9?$AAi?$AAe@ 1002536c     libucrt:lcidtoname_downlevel.obj
 0002:00005378       ??_C@_1M@PJKFGCCO@?$AAe?$AAn?$AA?9?$AAj?$AAm@ 10025378     libucrt:lcidtoname_downlevel.obj
 0002:00005384       ??_C@_1M@KPPKEPBO@?$AAe?$AAn?$AA?9?$AAn?$AAz@ 10025384     libucrt:lcidtoname_downlevel.obj
 0002:00005390       ??_C@_1M@GMDGLDOB@?$AAe?$AAn?$AA?9?$AAp?$AAh@ 10025390     libucrt:lcidtoname_downlevel.obj
 0002:0000539c       ??_C@_1M@ONGIBJNA@?$AAe?$AAn?$AA?9?$AAt?$AAt@ 1002539c     libucrt:lcidtoname_downlevel.obj
 0002:000053a8       ??_C@_1M@LLODPCMM@?$AAe?$AAn?$AA?9?$AAu?$AAs@ 100253a8     libucrt:lcidtoname_downlevel.obj
 0002:000053b4       ??_C@_1M@LAKFNPAN@?$AAe?$AAn?$AA?9?$AAz?$AAa@ 100253b4     libucrt:lcidtoname_downlevel.obj
 0002:000053c0       ??_C@_1M@MFNHNHEO@?$AAe?$AAn?$AA?9?$AAz?$AAw@ 100253c0     libucrt:lcidtoname_downlevel.obj
 0002:000053cc       ??_C@_1M@EJEINPHM@?$AAe?$AAs?$AA?9?$AAa?$AAr@ 100253cc     libucrt:lcidtoname_downlevel.obj
 0002:000053d8       ??_C@_1M@GNKPCCJA@?$AAe?$AAs?$AA?9?$AAb?$AAo@ 100253d8     libucrt:lcidtoname_downlevel.obj
 0002:000053e4       ??_C@_1M@LEEGFONL@?$AAe?$AAs?$AA?9?$AAc?$AAl@ 100253e4     libucrt:lcidtoname_downlevel.obj
 0002:000053f0       ??_C@_1M@KGPDPBDF@?$AAe?$AAs?$AA?9?$AAc?$AAo@ 100253f0     libucrt:lcidtoname_downlevel.obj
 0002:000053fc       ??_C@_1M@EIAHOHH@?$AAe?$AAs?$AA?9?$AAc?$AAr@ 100253fc     libucrt:lcidtoname_downlevel.obj
 0002:00005408       ??_C@_1M@LLPGMBIN@?$AAe?$AAs?$AA?9?$AAd?$AAo@ 10025408     libucrt:lcidtoname_downlevel.obj
 0002:00005414       ??_C@_1M@DKHMKNJA@?$AAe?$AAs?$AA?9?$AAe?$AAc@ 10025414     libucrt:lcidtoname_downlevel.obj
 0002:00005420       ??_C@_1M@GKGFPKAP@?$AAe?$AAs?$AA?9?$AAe?$AAs@ 10025420     libucrt:lcidtoname_downlevel.obj
 0002:0000542c       ??_C@_1M@LKHKGDLN@?$AAe?$AAs?$AA?9?$AAg?$AAt@ 1002542c     libucrt:lcidtoname_downlevel.obj
 0002:00005438       ??_C@_1M@HEIIGGJD@?$AAe?$AAs?$AA?9?$AAh?$AAn@ 10025438     libucrt:lcidtoname_downlevel.obj
 0002:00005444       ??_C@_1M@FBDHPPGD@?$AAe?$AAs?$AA?9?$AAm?$AAx@ 10025444     libucrt:lcidtoname_downlevel.obj
 0002:00005450       ??_C@_1M@DPAGLNDH@?$AAe?$AAs?$AA?9?$AAn?$AAi@ 10025450     libucrt:lcidtoname_downlevel.obj
 0002:0000545c       ??_C@_1M@MDGOPGDD@?$AAe?$AAs?$AA?9?$AAp?$AAa@ 1002545c     libucrt:lcidtoname_downlevel.obj
 0002:00005468       ??_C@_1M@EMAMGBGE@?$AAe?$AAs?$AA?9?$AAp?$AAe@ 10025468     libucrt:lcidtoname_downlevel.obj
 0002:00005474       ??_C@_1M@IBMCAOEC@?$AAe?$AAs?$AA?9?$AAp?$AAr@ 10025474     libucrt:lcidtoname_downlevel.obj
 0002:00005480       ??_C@_1M@FGMDIJED@?$AAe?$AAs?$AA?9?$AAp?$AAy@ 10025480     libucrt:lcidtoname_downlevel.obj
 0002:0000548c       ??_C@_1M@IIDEOLLL@?$AAe?$AAs?$AA?9?$AAs?$AAv@ 1002548c     libucrt:lcidtoname_downlevel.obj
 0002:00005498       ??_C@_1M@GAOBIPA@?$AAe?$AAs?$AA?9?$AAu?$AAy@ 10025498     libucrt:lcidtoname_downlevel.obj
 0002:000054a4       ??_C@_1M@JKFFICHJ@?$AAe?$AAs?$AA?9?$AAv?$AAe@ 100254a4     libucrt:lcidtoname_downlevel.obj
 0002:000054b0       ??_C@_1M@PNMLOJDF@?$AAe?$AAt?$AA?9?$AAe?$AAe@ 100254b0     libucrt:lcidtoname_downlevel.obj
 0002:000054bc       ??_C@_1M@GHHLIKEI@?$AAe?$AAu?$AA?9?$AAe?$AAs@ 100254bc     libucrt:lcidtoname_downlevel.obj
 0002:000054c8       ??_C@_1M@PBNONODE@?$AAf?$AAa?$AA?9?$AAi?$AAr@ 100254c8     libucrt:lcidtoname_downlevel.obj
 0002:000054d4       ??_C@_1M@JEEHPMIL@?$AAf?$AAi?$AA?9?$AAf?$AAi@ 100254d4     libucrt:lcidtoname_downlevel.obj
 0002:000054e0       ??_C@_1M@LMDCNDBA@?$AAf?$AAo?$AA?9?$AAf?$AAo@ 100254e0     libucrt:lcidtoname_downlevel.obj
 0002:000054ec       ??_C@_1M@JKEOHLDK@?$AAf?$AAr?$AA?9?$AAb?$AAe@ 100254ec     libucrt:lcidtoname_downlevel.obj
 0002:000054f8       ??_C@_1M@NOHADPMI@?$AAf?$AAr?$AA?9?$AAc?$AAa@ 100254f8     libucrt:lcidtoname_downlevel.obj
 0002:00005504       ??_C@_1M@KDHIHAEC@?$AAf?$AAr?$AA?9?$AAc?$AAh@ 10025504     libucrt:lcidtoname_downlevel.obj
 0002:00005510       ??_C@_1M@MMBBFGAK@?$AAf?$AAr?$AA?9?$AAf?$AAr@ 10025510     libucrt:lcidtoname_downlevel.obj
 0002:0000551c       ??_C@_1M@PAFNENNF@?$AAf?$AAr?$AA?9?$AAl?$AAu@ 1002551c     libucrt:lcidtoname_downlevel.obj
 0002:00005528       ??_C@_1M@EOHDJGDD@?$AAf?$AAr?$AA?9?$AAm?$AAc@ 10025528     libucrt:lcidtoname_downlevel.obj
 0002:00005534       ??_C@_1M@FAPLLOPF@?$AAg?$AAl?$AA?9?$AAe?$AAs@ 10025534     libucrt:lcidtoname_downlevel.obj
 0002:00005540       ??_C@_1M@FOPBFLOO@?$AAg?$AAu?$AA?9?$AAi?$AAn@ 10025540     libucrt:lcidtoname_downlevel.obj
 0002:0000554c       ??_C@_1M@KBMCINPM@?$AAh?$AAe?$AA?9?$AAi?$AAl@ 1002554c     libucrt:lcidtoname_downlevel.obj
 0002:00005558       ??_C@_1M@BBPHKFPJ@?$AAh?$AAi?$AA?9?$AAi?$AAn@ 10025558     libucrt:lcidtoname_downlevel.obj
 0002:00005564       ??_C@_1M@PMBNDPHD@?$AAh?$AAr?$AA?9?$AAb?$AAa@ 10025564     libucrt:lcidtoname_downlevel.obj
 0002:00005570       ??_C@_1M@BPCKOEGE@?$AAh?$AAr?$AA?9?$AAh?$AAr@ 10025570     libucrt:lcidtoname_downlevel.obj
 0002:0000557c       ??_C@_1M@GACBMHKE@?$AAh?$AAu?$AA?9?$AAh?$AAu@ 1002557c     libucrt:lcidtoname_downlevel.obj
 0002:00005588       ??_C@_1M@MILPAJJC@?$AAh?$AAy?$AA?9?$AAa?$AAm@ 10025588     libucrt:lcidtoname_downlevel.obj
 0002:00005594       ??_C@_1M@BABBICEC@?$AAi?$AAd?$AA?9?$AAi?$AAd@ 10025594     libucrt:lcidtoname_downlevel.obj
 0002:000055a0       ??_C@_1M@BIKNHHPF@?$AAi?$AAs?$AA?9?$AAi?$AAs@ 100255a0     libucrt:lcidtoname_downlevel.obj
 0002:000055ac       ??_C@_1M@NMPCJPHE@?$AAi?$AAt?$AA?9?$AAc?$AAh@ 100255ac     libucrt:lcidtoname_downlevel.obj
 0002:000055b8       ??_C@_1M@GHKGFEDF@?$AAi?$AAt?$AA?9?$AAi?$AAt@ 100255b8     libucrt:lcidtoname_downlevel.obj
 0002:000055c4       ??_C@_1M@NIEJCJJA@?$AAj?$AAa?$AA?9?$AAj?$AAp@ 100255c4     libucrt:lcidtoname_downlevel.obj
 0002:000055d0       ??_C@_1M@JILFNBIM@?$AAk?$AAa?$AA?9?$AAg?$AAe@ 100255d0     libucrt:lcidtoname_downlevel.obj
 0002:000055dc       ??_C@_1M@PACPMGPH@?$AAk?$AAk?$AA?9?$AAk?$AAz@ 100255dc     libucrt:lcidtoname_downlevel.obj
 0002:000055e8       ??_C@_1M@IELFGMHA@?$AAk?$AAn?$AA?9?$AAi?$AAn@ 100255e8     libucrt:lcidtoname_downlevel.obj
 0002:000055f4       ??_C@_1O@IBBJHCH@?$AAk?$AAo?$AAk?$AA?9?$AAi?$AAn@ 100255f4     libucrt:lcidtoname_downlevel.obj
 0002:00005604       ??_C@_1M@DMHAEOGC@?$AAk?$AAo?$AA?9?$AAk?$AAr@ 10025604     libucrt:lcidtoname_downlevel.obj
 0002:00005610       ??_C@_1M@HBAHBIGA@?$AAk?$AAy?$AA?9?$AAk?$AAg@ 10025610     libucrt:lcidtoname_downlevel.obj
 0002:0000561c       ??_C@_1M@KPMILCJG@?$AAl?$AAt?$AA?9?$AAl?$AAt@ 1002561c     libucrt:lcidtoname_downlevel.obj
 0002:00005628       ??_C@_1M@BDEKKCA@?$AAl?$AAv?$AA?9?$AAl?$AAv@ 10025628     libucrt:lcidtoname_downlevel.obj
 0002:00005634       ??_C@_1M@ELCKCCJJ@?$AAm?$AAi?$AA?9?$AAn?$AAz@ 10025634     libucrt:lcidtoname_downlevel.obj
 0002:00005640       ??_C@_1M@CBOOLAPA@?$AAm?$AAk?$AA?9?$AAm?$AAk@ 10025640     libucrt:lcidtoname_downlevel.obj
 0002:0000564c       ??_C@_1M@GPHNBJKN@?$AAm?$AAl?$AA?9?$AAi?$AAn@ 1002564c     libucrt:lcidtoname_downlevel.obj
 0002:00005658       ??_C@_1M@PABJILIG@?$AAm?$AAn?$AA?9?$AAm?$AAn@ 10025658     libucrt:lcidtoname_downlevel.obj
 0002:00005664       ??_C@_1M@FGBKKIPG@?$AAm?$AAr?$AA?9?$AAi?$AAn@ 10025664     libucrt:lcidtoname_downlevel.obj
 0002:00005670       ??_C@_1M@NDBPDDAL@?$AAm?$AAs?$AA?9?$AAb?$AAn@ 10025670     libucrt:lcidtoname_downlevel.obj
 0002:0000567c       ??_C@_1M@OPIHOOPI@?$AAm?$AAs?$AA?9?$AAm?$AAy@ 1002567c     libucrt:lcidtoname_downlevel.obj
 0002:00005688       ??_C@_1M@PPDBCNFM@?$AAm?$AAt?$AA?9?$AAm?$AAt@ 10025688     libucrt:lcidtoname_downlevel.obj
 0002:00005694       ??_C@_1M@KDJDKMDD@?$AAn?$AAb?$AA?9?$AAn?$AAo@ 10025694     libucrt:lcidtoname_downlevel.obj
 0002:000056a0       ??_C@_1M@KFCFLMJP@?$AAn?$AAl?$AA?9?$AAb?$AAe@ 100256a0     libucrt:lcidtoname_downlevel.obj
 0002:000056ac       ??_C@_1M@KPOPDDGO@?$AAn?$AAl?$AA?9?$AAn?$AAl@ 100256ac     libucrt:lcidtoname_downlevel.obj
 0002:000056b8       ??_C@_1M@LJKPEMLN@?$AAn?$AAn?$AA?9?$AAn?$AAo@ 100256b8     libucrt:lcidtoname_downlevel.obj
 0002:000056c4       ??_C@_1M@BDGHHBFL@?$AAn?$AAs?$AA?9?$AAz?$AAa@ 100256c4     libucrt:lcidtoname_downlevel.obj
 0002:000056d0       ??_C@_1M@IDEHOAP@?$AAp?$AAa?$AA?9?$AAi?$AAn@ 100256d0     libucrt:lcidtoname_downlevel.obj
 0002:000056dc       ??_C@_1M@HDBKGOGH@?$AAp?$AAl?$AA?9?$AAp?$AAl@ 100256dc     libucrt:lcidtoname_downlevel.obj
 0002:000056e8       ??_C@_1M@LJLLCMEH@?$AAp?$AAt?$AA?9?$AAb?$AAr@ 100256e8     libucrt:lcidtoname_downlevel.obj
 0002:000056f4       ??_C@_1M@NCMONAAL@?$AAp?$AAt?$AA?9?$AAp?$AAt@ 100256f4     libucrt:lcidtoname_downlevel.obj
 0002:00005700       ??_C@_1O@EAKMAJDN@?$AAq?$AAu?$AAz?$AA?9?$AAb?$AAo@ 10025700     libucrt:lcidtoname_downlevel.obj
 0002:00005710       ??_C@_1O@BHHPIGDN@?$AAq?$AAu?$AAz?$AA?9?$AAe?$AAc@ 10025710     libucrt:lcidtoname_downlevel.obj
 0002:00005720       ??_C@_1O@GBAPEKMJ@?$AAq?$AAu?$AAz?$AA?9?$AAp?$AAe@ 10025720     libucrt:lcidtoname_downlevel.obj
 0002:00005730       ??_C@_1M@CLGLEFBO@?$AAr?$AAo?$AA?9?$AAr?$AAo@ 10025730     libucrt:lcidtoname_downlevel.obj
 0002:0000573c       ??_C@_1M@CEEDODME@?$AAr?$AAu?$AA?9?$AAr?$AAu@ 1002573c     libucrt:lcidtoname_downlevel.obj
 0002:00005748       ??_C@_1M@HPKKKMPP@?$AAs?$AAa?$AA?9?$AAi?$AAn@ 10025748     libucrt:lcidtoname_downlevel.obj
 0002:00005754       ??_C@_1M@BKMAIGOJ@?$AAs?$AAe?$AA?9?$AAf?$AAi@ 10025754     libucrt:lcidtoname_downlevel.obj
 0002:00005760       ??_C@_1M@NDPIFLFI@?$AAs?$AAe?$AA?9?$AAn?$AAo@ 10025760     libucrt:lcidtoname_downlevel.obj
 0002:0000576c       ??_C@_1M@DANKKHJ@?$AAs?$AAe?$AA?9?$AAs?$AAe@ 1002576c     libucrt:lcidtoname_downlevel.obj
 0002:00005778       ??_C@_1M@PNBLONPJ@?$AAs?$AAk?$AA?9?$AAs?$AAk@ 10025778     libucrt:lcidtoname_downlevel.obj
 0002:00005784       ??_C@_1M@LFMODOAL@?$AAs?$AAl?$AA?9?$AAs?$AAi@ 10025784     libucrt:lcidtoname_downlevel.obj
 0002:00005790       ??_C@_1O@DFKOMPG@?$AAs?$AAm?$AAa?$AA?9?$AAn?$AAo@ 10025790     libucrt:lcidtoname_downlevel.obj
 0002:000057a0       ??_C@_1O@NDKPBNNH@?$AAs?$AAm?$AAa?$AA?9?$AAs?$AAe@ 100257a0     libucrt:lcidtoname_downlevel.obj
 0002:000057b0       ??_C@_1O@PLLKBHAB@?$AAs?$AAm?$AAj?$AA?9?$AAn?$AAo@ 100257b0     libucrt:lcidtoname_downlevel.obj
 0002:000057c0       ??_C@_1O@CLEPOGCA@?$AAs?$AAm?$AAj?$AA?9?$AAs?$AAe@ 100257c0     libucrt:lcidtoname_downlevel.obj
 0002:000057d0       ??_C@_1O@DLGJGKMK@?$AAs?$AAm?$AAn?$AA?9?$AAf?$AAi@ 100257d0     libucrt:lcidtoname_downlevel.obj
 0002:000057e0       ??_C@_1O@OJDJGAJC@?$AAs?$AAm?$AAs?$AA?9?$AAf?$AAi@ 100257e0     libucrt:lcidtoname_downlevel.obj
 0002:000057f0       ??_C@_1M@BOFOGHPB@?$AAs?$AAq?$AA?9?$AAa?$AAl@ 100257f0     libucrt:lcidtoname_downlevel.obj
 0002:000057fc       ??_C@_1BG@LJBBIPGB@?$AAs?$AAr?$AA?9?$AAb?$AAa?$AA?9?$AAc?$AAy?$AAr?$AAl@ 100257fc     libucrt:lcidtoname_downlevel.obj
 0002:00005814       ??_C@_1BG@JLBENFOE@?$AAs?$AAr?$AA?9?$AAb?$AAa?$AA?9?$AAl?$AAa?$AAt?$AAn@ 10025814     libucrt:lcidtoname_downlevel.obj
 0002:0000582c       ??_C@_1BG@KODPNHE@?$AAs?$AAr?$AA?9?$AAs?$AAp?$AA?9?$AAc?$AAy?$AAr?$AAl@ 1002582c     libucrt:lcidtoname_downlevel.obj
 0002:00005844       ??_C@_1BG@CIOGKHPB@?$AAs?$AAr?$AA?9?$AAs?$AAp?$AA?9?$AAl?$AAa?$AAt?$AAn@ 10025844     libucrt:lcidtoname_downlevel.obj
 0002:0000585c       ??_C@_1M@NGFJLMAC@?$AAs?$AAv?$AA?9?$AAf?$AAi@ 1002585c     libucrt:lcidtoname_downlevel.obj
 0002:00005868       ??_C@_1M@MPJEJAJC@?$AAs?$AAv?$AA?9?$AAs?$AAe@ 10025868     libucrt:lcidtoname_downlevel.obj
 0002:00005874       ??_C@_1M@MPNDHLFK@?$AAs?$AAw?$AA?9?$AAk?$AAe@ 10025874     libucrt:lcidtoname_downlevel.obj
 0002:00005880       ??_C@_1O@KOHBJJI@?$AAs?$AAy?$AAr?$AA?9?$AAs?$AAy@ 10025880     libucrt:lcidtoname_downlevel.obj
 0002:00005890       ??_C@_1M@LDCEFHA@?$AAt?$AAa?$AA?9?$AAi?$AAn@ 10025890     libucrt:lcidtoname_downlevel.obj
 0002:0000589c       ??_C@_1M@CNJOFAK@?$AAt?$AAe?$AA?9?$AAi?$AAn@ 1002589c     libucrt:lcidtoname_downlevel.obj
 0002:000058a8       ??_C@_1M@GNAECACD@?$AAt?$AAh?$AA?9?$AAt?$AAh@ 100258a8     libucrt:lcidtoname_downlevel.obj
 0002:000058b4       ??_C@_1M@CHBIHOJO@?$AAt?$AAn?$AA?9?$AAz?$AAa@ 100258b4     libucrt:lcidtoname_downlevel.obj
 0002:000058c0       ??_C@_1M@GCCMIGPJ@?$AAt?$AAr?$AA?9?$AAt?$AAr@ 100258c0     libucrt:lcidtoname_downlevel.obj
 0002:000058cc       ??_C@_1M@CELMCNBK@?$AAt?$AAt?$AA?9?$AAr?$AAu@ 100258cc     libucrt:lcidtoname_downlevel.obj
 0002:000058d8       ??_C@_1M@KLMCELGA@?$AAu?$AAk?$AA?9?$AAu?$AAa@ 100258d8     libucrt:lcidtoname_downlevel.obj
 0002:000058e4       ??_C@_1M@EPAJJAJF@?$AAu?$AAr?$AA?9?$AAp?$AAk@ 100258e4     libucrt:lcidtoname_downlevel.obj
 0002:000058f0       ??_C@_1BG@GEGPMCDJ@?$AAu?$AAz?$AA?9?$AAu?$AAz?$AA?9?$AAc?$AAy?$AAr?$AAl@ 100258f0     libucrt:lcidtoname_downlevel.obj
 0002:00005908       ??_C@_1BG@EGGKJILM@?$AAu?$AAz?$AA?9?$AAu?$AAz?$AA?9?$AAl?$AAa?$AAt?$AAn@ 10025908     libucrt:lcidtoname_downlevel.obj
 0002:00005920       ??_C@_1M@GFOCLFF@?$AAv?$AAi?$AA?9?$AAv?$AAn@ 10025920     libucrt:lcidtoname_downlevel.obj
 0002:0000592c       ??_C@_1M@CPAMEDFI@?$AAx?$AAh?$AA?9?$AAz?$AAa@ 1002592c     libucrt:lcidtoname_downlevel.obj
 0002:00005938       ??_C@_1O@EBKIFIGN@?$AAz?$AAh?$AA?9?$AAc?$AAh?$AAs@ 10025938     libucrt:lcidtoname_downlevel.obj
 0002:00005948       ??_C@_1O@NMHPGANE@?$AAz?$AAh?$AA?9?$AAc?$AAh?$AAt@ 10025948     libucrt:lcidtoname_downlevel.obj
 0002:00005958       ??_C@_1M@LPINJOMC@?$AAz?$AAh?$AA?9?$AAc?$AAn@ 10025958     libucrt:lcidtoname_downlevel.obj
 0002:00005964       ??_C@_1M@OCJEJODD@?$AAz?$AAh?$AA?9?$AAh?$AAk@ 10025964     libucrt:lcidtoname_downlevel.obj
 0002:00005970       ??_C@_1M@DNDLJINH@?$AAz?$AAh?$AA?9?$AAm?$AAo@ 10025970     libucrt:lcidtoname_downlevel.obj
 0002:0000597c       ??_C@_1M@MBFDNDND@?$AAz?$AAh?$AA?9?$AAs?$AAg@ 1002597c     libucrt:lcidtoname_downlevel.obj
 0002:00005988       ??_C@_1M@IMEPLEPE@?$AAz?$AAh?$AA?9?$AAt?$AAw@ 10025988     libucrt:lcidtoname_downlevel.obj
 0002:00005994       ??_C@_1M@BBGHNHJP@?$AAz?$AAu?$AA?9?$AAz?$AAa@ 10025994     libucrt:lcidtoname_downlevel.obj
 0002:000059a0       ?large_power_data@?1??multiply_by_power_of_ten@__crt_strtox@@YA_NAAUbig_integer@2@I@Z@4QBIB 100259a0     libucrt:cfout.obj
 0002:000062a8       ?large_power_indices@?1??multiply_by_power_of_ten@__crt_strtox@@YA_NAAUbig_integer@2@I@Z@4QBUunpack_index@?1??12@YA_N0I@Z@B 100262a8     libucrt:cfout.obj
 0002:00006340       ?small_powers_of_ten@?1??multiply_by_power_of_ten@__crt_strtox@@YA_NAAUbig_integer@2@I@Z@4QBIB 10026340     libucrt:cfout.obj
 0002:00006364       ??_C@_01GBGANLPD@0@        10026364     libucrt:cfout.obj
 0002:00006368       ??_C@_05DNEBIAHO@1?$CDINF@ 10026368     libucrt:cfout.obj
 0002:00006370       ??_C@_06IMKFLFPG@1?$CDQNAN@ 10026370     libucrt:cfout.obj
 0002:00006378       ??_C@_06PGGFOGJG@1?$CDSNAN@ 10026378     libucrt:cfout.obj
 0002:00006380       ??_C@_05PHHOCPM@1?$CDIND@  10026380     libucrt:cfout.obj
 0002:000064f0       __infinity                 100264f0     libucrt:87tran.obj
 0002:000064fa       __minfinity                100264fa     libucrt:87tran.obj
 0002:00006504       __logemax                  10026504     libucrt:87tran.obj
 0002:0000652a       __OP_EXPjmptab             1002652a     libucrt:87tran.obj
 0002:00006550       __indefinite               10026550     libucrt:87disp.obj
 0002:0000655a       __piby2                    1002655a     libucrt:87disp.obj
 0002:00006564       __piby4                    10026564     libucrt:87disp.obj
 0002:00006598       __DEFAULT_CW_in_mem        10026598     libucrt:common.obj
 0002:0000659a       __pi_by_2_to_61            1002659a     libucrt:common.obj
 0002:000065d4       ??_C@_03MGHMBJCF@log@      100265d4     libucrt:libm_error.obj
 0002:000065d8       ??_C@_05HGHHAHAP@log10@    100265d8     libucrt:libm_error.obj
 0002:000065e0       ??_C@_03KHJOGHMM@exp@      100265e0     libucrt:libm_error.obj
 0002:000065e4       ??_C@_03JGHBODFD@pow@      100265e4     libucrt:libm_error.obj
 0002:000065e8       ??_C@_04FIHNOPOL@asin@     100265e8     libucrt:libm_error.obj
 0002:000065f0       ??_C@_04PDIFKINK@acos@     100265f0     libucrt:libm_error.obj
 0002:000065f8       ??_C@_04EIAKFFMI@sqrt@     100265f8     libucrt:libm_error.obj
 0002:00006600       __real@3ff0000000000000    10026600     libucrt:libm_error.obj
 0002:00006608       ??_C@_1BA@BALFACEM@?$AAC?$AAO?$AAN?$AAO?$AAU?$AAT?$AA$@ 10026608     libucrt:initcon.obj
 0002:00006630       ___acrt_log10_table_t      10026630     libucrt:log10_tables.obj
 0002:00006a40       ___acrt_log10_table_cb     10026a40     libucrt:log10_tables.obj
 0002:00006e50       __real@3fe0000000000000    10026e50     libucrt:powhlp.obj
 0002:00006f40       ??_C@_04COOMCNPB@sinh@     10026f40     libucrt:fpexcept.obj
 0002:00006f48       ??_C@_04HPJJNFIM@cosh@     10026f48     libucrt:fpexcept.obj
 0002:00006f50       ??_C@_04FJHINJAO@tanh@     10026f50     libucrt:fpexcept.obj
 0002:00006f58       ??_C@_04MLLJIGOK@atan@     10026f58     libucrt:fpexcept.obj
 0002:00006f60       ??_C@_05KNGEOGJB@atan2@    10026f60     libucrt:fpexcept.obj
 0002:00006f68       ??_C@_03BLEJJJBH@sin@      10026f68     libucrt:fpexcept.obj
 0002:00006f6c       ??_C@_03LALBNOCG@cos@      10026f6c     libucrt:fpexcept.obj
 0002:00006f70       ??_C@_03IIINPABG@tan@      10026f70     libucrt:fpexcept.obj
 0002:00006f74       ??_C@_04GFPJNGEK@ceil@     10026f74     libucrt:fpexcept.obj
 0002:00006f7c       ??_C@_05PBJFFIGL@floor@    10026f7c     libucrt:fpexcept.obj
 0002:00006f84       ??_C@_04ODHECPBC@fabs@     10026f84     libucrt:fpexcept.obj
 0002:00006f8c       ??_C@_04EHEDPDJG@modf@     10026f8c     libucrt:fpexcept.obj
 0002:00006f94       ??_C@_05CEJMAHNP@ldexp@    10026f94     libucrt:fpexcept.obj
 0002:00006f9c       ??_C@_05KBKMEMPO@_cabs@    10026f9c     libucrt:fpexcept.obj
 0002:00006fa4       ??_C@_06MEIMCGCF@_hypot@   10026fa4     libucrt:fpexcept.obj
 0002:00006fac       ??_C@_04KEPJIHGP@fmod@     10026fac     libucrt:fpexcept.obj
 0002:00006fb4       ??_C@_05GKKHEGJL@frexp@    10026fb4     libucrt:fpexcept.obj
 0002:00006fbc       ??_C@_03MJLDFKDL@_y0@      10026fbc     libucrt:fpexcept.obj
 0002:00006fc0       ??_C@_03NAKIGLHK@_y1@      10026fc0     libucrt:fpexcept.obj
 0002:00006fc4       ??_C@_03ONILCKOB@_yn@      10026fc4     libucrt:fpexcept.obj
 0002:00006fc8       ??_C@_05JGDBENOH@_logb@    10026fc8     libucrt:fpexcept.obj
 0002:00006fd0       ??_C@_0L@KDOEJCKC@_nextafter@ 10026fd0     libucrt:fpexcept.obj
 0002:00006fe0       __d_inf                    10026fe0     libucrt:util.obj
 0002:00006fe8       __d_max                    10026fe8     libucrt:util.obj
 0002:00006ff0       __d_mzero                  10026ff0     libucrt:util.obj
 0002:00007060       __load_config_used         10027060     LIBCMT:loadcfg.obj
 0002:00007140       __tls_used                 10027140     LIBCMT:tlssup.obj
 0002:00007158       ??_R4exception@std@@6B@    10027158     LIBCMT:throw_bad_alloc.obj
 0002:0000716c       ??_R3exception@std@@8      1002716c     LIBCMT:throw_bad_alloc.obj
 0002:0000717c       ??_R2exception@std@@8      1002717c     LIBCMT:throw_bad_alloc.obj
 0002:00007184       ??_R1A@?0A@EA@exception@std@@8 10027184     LIBCMT:throw_bad_alloc.obj
 0002:000071a0       ??_R4bad_alloc@std@@6B@    100271a0     LIBCMT:throw_bad_alloc.obj
 0002:000071b4       ??_R3bad_alloc@std@@8      100271b4     LIBCMT:throw_bad_alloc.obj
 0002:000071c4       ??_R2bad_alloc@std@@8      100271c4     LIBCMT:throw_bad_alloc.obj
 0002:000071d0       ??_R1A@?0A@EA@bad_alloc@std@@8 100271d0     LIBCMT:throw_bad_alloc.obj
 0002:000071ec       ??_R4bad_array_new_length@std@@6B@ 100271ec     LIBCMT:throw_bad_alloc.obj
 0002:00007200       ??_R3bad_array_new_length@std@@8 10027200     LIBCMT:throw_bad_alloc.obj
 0002:00007210       ??_R2bad_array_new_length@std@@8 10027210     LIBCMT:throw_bad_alloc.obj
 0002:00007220       ??_R1A@?0A@EA@bad_array_new_length@std@@8 10027220     LIBCMT:throw_bad_alloc.obj
 0002:0000723c       ??_R4type_info@@6B@        1002723c     LIBCMT:std_type_info_static.obj
 0002:00007250       ??_R3type_info@@8          10027250     LIBCMT:std_type_info_static.obj
 0002:00007260       ??_R2type_info@@8          10027260     LIBCMT:std_type_info_static.obj
 0002:00007268       ??_R1A@?0A@EA@type_info@@8 10027268     LIBCMT:std_type_info_static.obj
 0002:00007284       ??_R4bad_exception@std@@6B@ 10027284     libvcruntime:frame.obj
 0002:00007298       ??_R3bad_exception@std@@8  10027298     libvcruntime:frame.obj
 0002:000072a8       ??_R2bad_exception@std@@8  100272a8     libvcruntime:frame.obj
 0002:000072b4       ??_R1A@?0A@EA@bad_exception@std@@8 100272b4     libvcruntime:frame.obj
 0002:000072d0       ___safe_se_handler_table   100272d0     <linker-defined>
 0002:000072fc       ___volatile_metadata       100272fc     <linker-defined>
 0002:00007738       ___rtc_iaa                 10027738     LIBCMT:initsect.obj
 0002:0000773c       ___rtc_izz                 1002773c     LIBCMT:initsect.obj
 0002:00007740       ___rtc_taa                 10027740     LIBCMT:initsect.obj
 0002:00007744       ___rtc_tzz                 10027744     LIBCMT:initsect.obj
 0002:00007748       __tls_start                10027748     LIBCMT:tlssup.obj
 0002:0000774c       __Init_thread_epoch        1002774c     LIBCMT:thread_safe_statics.obj
 0002:00007750       __tls_end                  10027750     LIBCMT:tlssup.obj
 0002:00007854       __TI2?AVbad_alloc@std@@    10027854     LIBCMT:throw_bad_alloc.obj
 0002:00007864       __CTA2?AVbad_alloc@std@@   10027864     LIBCMT:throw_bad_alloc.obj
 0002:00007870       __CT??_R0?AVbad_alloc@std@@@8??0bad_alloc@std@@QAE@ABV01@@Z12 10027870     LIBCMT:throw_bad_alloc.obj
 0002:0000788c       __CT??_R0?AVexception@std@@@8??0exception@std@@QAE@ABV01@@Z12 1002788c     LIBCMT:throw_bad_alloc.obj
 0002:000078a8       __TI3?AVbad_array_new_length@std@@ 100278a8     LIBCMT:throw_bad_alloc.obj
 0002:000078b8       __CTA3?AVbad_array_new_length@std@@ 100278b8     LIBCMT:throw_bad_alloc.obj
 0002:000078c8       __CT??_R0?AVbad_array_new_length@std@@@8??0bad_array_new_length@std@@QAE@ABV01@@Z12 100278c8     LIBCMT:throw_bad_alloc.obj
 0002:000079ec       __TI2?AVbad_exception@std@@ 100279ec     libvcruntime:frame.obj
 0002:000079fc       __CTA2?AVbad_exception@std@@ 100279fc     libvcruntime:frame.obj
 0002:00007a08       __CT??_R0?AVbad_exception@std@@@8??0bad_exception@std@@QAE@ABV01@@Z12 10027a08     libvcruntime:frame.obj
 0002:00007e34       ___pobjMapEntryFirst       10027e34     OposVariant.obj
 0002:00007e38       ___pobjMapEntryLast        10027e38     OposVariant.obj
 0002:00007ef0       __IMPORT_DESCRIPTOR_KERNEL32 10027ef0     kernel32:KERNEL32.dll
 0002:00007f04       __IMPORT_DESCRIPTOR_USER32 10027f04     user32:USER32.dll
 0002:00007f18       __IMPORT_DESCRIPTOR_GDI32  10027f18     gdi32:GDI32.dll
 0002:00007f2c       __IMPORT_DESCRIPTOR_ADVAPI32 10027f2c     advapi32:ADVAPI32.dll
 0002:00007f40       __IMPORT_DESCRIPTOR_ole32  10027f40     ole32:ole32.dll
 0002:00007f54       __IMPORT_DESCRIPTOR_OLEAUT32 10027f54     oleaut32:OLEAUT32.dll
 0002:00007f68       __NULL_IMPORT_DESCRIPTOR   10027f68     kernel32:KERNEL32.dll
 0003:00000000       ?rcDefault@CWindow@ATL@@2UtagRECT@@A 10029000     DeviceMonitor.obj
 0003:00000010       ?s_Claim@?7??GetIDsOfNames@CComTypeInfoHolder@ATL@@QAEJABU_GUID@@PAPA_WIKPAJ@Z@4PA_WA 10029010     DeviceMonitor.obj
 0003:00000028       ?s_Release@?7??GetIDsOfNames@CComTypeInfoHolder@ATL@@QAEJABU_GUID@@PAPA_WIKPAJ@Z@4PA_WA 10029028     DeviceMonitor.obj
 0003:00000044       ?_tih@?$IDispatchImpl@UIOPOSDeviceMonitor@@$1?IID_IOPOSDeviceMonitor@@3U_GUID@@B$1?LIBID_OposDeviceMonitor_CCO@@3U3@B$00$0A@VCComTypeInfoHolder@ATL@@@ATL@@1VCComTypeInfoHolder@2@A 10029044     DeviceMonitor.obj
 0003:00000060       ?_tih@?$IProvideClassInfo2Impl@$1?CLSID_OPOSDeviceMonitor@@3U_GUID@@B$1?DIID__IOPOSDeviceMonitorEvents@@3U2@B$1?LIBID_OposDeviceMonitor_CCO@@3U2@B$00$0A@VCComTypeInfoHolder@ATL@@@ATL@@1VCComTypeInfoHolder@2@A 10029060     DeviceMonitor.obj
 0003:0000007c       ?vszContents@?6??Save@?$IPersistStorageImpl@VCOPOSDeviceMonitor@@@ATL@@UAGJPAUIStorage@@H@Z@4PB_WB 1002907c     DeviceMonitor.obj
 0003:00000080       ?wc@?1??GetWndClassInfo@?$CWindowImpl@VCOPOSDeviceMonitor@@VCWindow@ATL@@V?$CWinTraits@$0FGAAAAAA@$0A@@3@@ATL@@SAAAU_ATL_WNDCLASSINFOW@3@XZ@4U43@A 10029080     DeviceMonitor.obj
 0003:00000158       ?g_WindowName@@3PA_WA      10029158     DeviceMonitorImpl.obj
 0003:00000184       ?g_ControlDescription@@3PADA 10029184     DeviceMonitorImpl.obj
 0003:000001b8       ?g_ControlVersion@@3JA     100291b8     DeviceMonitorImpl.obj
 0003:0000021c       ___scrt_native_dllmain_reason 1002921c     LIBCMT:utility.obj
 0003:00000220       __Init_global_epoch        10029220     LIBCMT:thread_safe_statics.obj
 0003:00000230       ___security_cookie_complement 10029230     LIBCMT:gs_cookie.obj
 0003:00000234       ___security_cookie         10029234     LIBCMT:gs_cookie.obj
 0003:00000238       ___isa_enabled             10029238     LIBCMT:cpu_disp.obj
 0003:00000250       __NLG_Destination          10029250     libvcruntime:exsup.obj
 0003:00000268       ___abort_behavior          10029268     libucrt:abort.obj
 0003:00000278       ___acrt_initial_locale_data 10029278     libucrt:nlsdata.obj
 0003:00000330       ___acrt_initial_locale_pointers 10029330     libucrt:nlsdata.obj
 0003:00000338       ___acrt_wide_c_locale_string 10029338     libucrt:nlsdata.obj
 0003:00000340       __iob                      10029340     libucrt:_file.obj
 0003:000003e8       ___acrt_initial_multibyte_data 100293e8     libucrt:mbctype.obj
 0003:00000908       ___acrt_lconv_c            10029908     libucrt:localeconv.obj
 0003:00000958       ___acrt_lconv_static_decimal 10029958     libucrt:localeconv.obj
 0003:0000095c       ___acrt_lconv_static_W_decimal 1002995c     libucrt:localeconv.obj
 0003:00000960       ___globallocalestatus      10029960     libucrt:glstatus.obj
 0003:00000970       __lookuptrailbytes         10029970     libucrt:read.obj
 0003:00000a80       __fltused                  10029a80     LIBCMT:fltused.obj
 0003:00000a90       ??_R0?AVbad_alloc@std@@@8  10029a90     LIBCMT:throw_bad_alloc.obj
 0003:00000aac       ??_R0?AVexception@std@@@8  10029aac     LIBCMT:throw_bad_alloc.obj
 0003:00000ac8       ??_R0?AVbad_array_new_length@std@@@8 10029ac8     LIBCMT:throw_bad_alloc.obj
 0003:00000af0       ??_R0?AVbad_exception@std@@@8 10029af0     libvcruntime:frame.obj
 0003:00000b10       ??_R0?AVtype_info@@@8      10029b10     LIBCMT:std_type_info_static.obj
 0003:00000b28       ?m_bInitFailed@CAtlBaseModule@ATL@@2_NA 10029b28     OposVariant.obj
 0003:00000b2c       ?_pPerfRegFunc@ATL@@3P6AJPAUHINSTANCE__@@@ZA 10029b2c     OposVariant.obj
 0003:00000b30       ?_pPerfUnRegFunc@ATL@@3P6AJXZA 10029b30     OposVariant.obj
 0003:00000b34       ?_AtlRegisterPerUser@ATL@@3_NA 10029b34     OposVariant.obj
 0003:00000b38       ?_pAtlModule@ATL@@3PAVCAtlModule@1@A 10029b38     OposVariant.obj
 0003:00000b3c       ?_pModule@ATL@@3PAVCComModule@1@A 10029b3c     OposVariant.obj
 0003:00000b40       ?_AtlComModule@ATL@@3VCAtlComModule@1@A 10029b40     OposVariant.obj
 0003:00000b68       ?_AtlWinModule@ATL@@3VCAtlWinModule@1@A 10029b68     OposVariant.obj
 0003:00000b94       ?m_libid@CAtlModule@ATL@@2U_GUID@@A 10029b94     DeviceMonitor.obj
 0003:00000ba4       ?_entries@?1??GetConnMap@COPOSDeviceMonitor@@SAPBU_ATL_CONNMAP_ENTRY@ATL@@PAH@Z@4QBU34@B 10029ba4     DeviceMonitor.obj
 0003:00000bb0       ?$TSS0@?1??GetConnMap@COPOSDeviceMonitor@@SAPBU_ATL_CONNMAP_ENTRY@ATL@@PAH@Z@4HA 10029bb0     DeviceMonitor.obj
 0003:00000bb8       ?_OptionsStorage@?1??__local_stdio_printf_options@@9@4_KA 10029bb8     DeviceMonitor.obj
 0003:00000bc0       ?pfnRegDeleteKeyEx@?1??DeleteSubKey@CRegKey@ATL@@QAEJPB_W@Z@4P6GJPAUHKEY__@@0KK@ZA 10029bc0     DeviceMonitor.obj
 0003:00000bc4       ?bInitialized@?1??DeleteSubKey@CRegKey@ATL@@QAEJPB_W@Z@4_NA 10029bc4     DeviceMonitor.obj
 0003:00000bc8       ?_Module@@3VCComModule@ATL@@A 10029bc8     DeviceMonitor.obj
 0003:00000bf8       ?pConnMap@?$IConnectionPointContainerImpl@VCOPOSDeviceMonitor@@@ATL@@0PBU_ATL_CONNMAP_ENTRY@2@B 10029bf8     DeviceMonitor.obj
 0003:00000bfc       ?s_nInstances@COPOSDeviceMonitor@@1HA 10029bfc     DeviceMonitorImpl.obj
 0003:00000c00       ___scrt_current_native_startup_state 10029c00     LIBCMT:utility.obj
 0003:00000c04       ___scrt_native_startup_lock 10029c04     LIBCMT:utility.obj
 0003:00000f6c       __tls_index                10029f6c     LIBCMT:tlssup.obj
 0003:00000f74       ___isa_available           10029f74     LIBCMT:cpu_disp.obj
 0003:00000f78       ___favor                   10029f78     LIBCMT:cpu_disp.obj
 0003:00000f7c       ___scrt_debugger_hook_flag 10029f7c     LIBCMT:utility_desktop.obj
 0003:00000f80       ?__type_info_root_node@@3U__type_info_node@@A 10029f80     LIBCMT:tncleanup.obj
 0003:00000f88       ?_OptionsStorage@?1??__local_stdio_scanf_options@@9@4_KA 10029f88     LIBCMT:default_local_stdio_options.obj
 0003:00000f90       ?_AtlBaseModule@ATL@@3VCAtlBaseModule@1@A 10029f90     atls:atlbase.obj
 0003:00000fc8       ?__AtlThunkPool@@3PAT_SLIST_HEADER@@A 10029fc8     atls:atlthunk.obj
 0003:00000fe0       ___@@_PchSym_@00@UzABUPdlipUBAUhUrmgvinvwrzgvUexgllohUzgohOmzgrevkilqPBACIAJCBDBUlyqiUcIGUhgwzucOlyq@4B2008FD98C1DD4 10029fe0     atls:stdafx.obj
 0003:00000fe4       ?__WinRTOutOfMemoryExceptionCallback@@3P6GPAXXZA 10029fe4     libvcruntime:ehhelpers.obj
 0003:00000fe8       ___pPurecall               10029fe8     libvcruntime:purevirt_data.obj
 0003:00001030       ?m_pGetParameter@UnDecorator@@0P6APADJ@ZA 1002a030     libvcruntime:undname.obj
 0003:00001034       ?m_CHPENameOffset@UnDecorator@@0KA 1002a034     libvcruntime:undname.obj
 0003:00001038       ?m_recursionLevel@UnDecorator@@0KA 1002a038     libvcruntime:undname.obj
 0003:0000103c       ?pArgList@UnDecorator@@0PAVReplicator@@A 1002a03c     libvcruntime:undname.obj
 0003:00001040       ?pZNameList@UnDecorator@@0PAVReplicator@@A 1002a040     libvcruntime:undname.obj
 0003:00001044       ?pTemplateArgList@UnDecorator@@0PAVReplicator@@A 1002a044     libvcruntime:undname.obj
 0003:00001048       ?gName@UnDecorator@@0PBDB  1002a048     libvcruntime:undname.obj
 0003:0000104c       ?name@UnDecorator@@0PBDB   1002a04c     libvcruntime:undname.obj
 0003:00001050       ?disableFlags@UnDecorator@@0KA 1002a050     libvcruntime:undname.obj
 0003:00001054       ?fExplicitTemplateParams@UnDecorator@@0_NA 1002a054     libvcruntime:undname.obj
 0003:00001055       ?fGetTemplateArgumentList@UnDecorator@@0_NA 1002a055     libvcruntime:undname.obj
 0003:00001098       ?c_exit_complete@?1???R<lambda_6e4b09c48022b2350581041d5f6b0c4c>@@QBE@XZ@4_NA 1002a098     libucrt:exit.obj
 0003:000011a8       __environ_table            1002a1a8     libucrt:environment_initialization.obj
 0003:000011ac       __wenviron_table           1002a1ac     libucrt:environment_initialization.obj
 0003:000011b0       ___dcrt_initial_wide_environment 1002a1b0     libucrt:environment_initialization.obj
 0003:000011b4       ___dcrt_initial_narrow_environment 1002a1b4     libucrt:environment_initialization.obj
 0003:000011b8       ___acrt_atexit_table       1002a1b8     libucrt:onexit.obj
 0003:000011c4       ___acrt_at_quick_exit_table 1002a1c4     libucrt:onexit.obj
 0003:000011d4       ___acrt_locale_changed_data 1002a1d4     libucrt:wsetlocale.obj
 0003:000011d8       ___acrt_current_locale_data 1002a1d8     libucrt:nlsdata.obj
 0003:000012c0       __nstream                  1002a2c0     libucrt:_file.obj
 0003:000012c4       ___piob                    1002a2c4     libucrt:_file.obj
 0003:000012cc       ___acrt_stdout_buffer      1002a2cc     libucrt:_sftbuf.obj
 0003:000012d0       ___acrt_stderr_buffer      1002a2d0     libucrt:_sftbuf.obj
 0003:000012d8       ___pioinfo                 1002a2d8     libucrt:ioinit.obj
 0003:000014d8       __nhandle                  1002a4d8     libucrt:ioinit.obj
 0003:00001634       __mbctype                  1002a634     libucrt:mbctype.obj
 0003:00001638       __mbcasemap                1002a638     libucrt:mbctype.obj
 0003:0000163c       ___acrt_current_multibyte_data 1002a63c     libucrt:mbctype.obj
 0003:00001648       __pgmptr                   1002a648     libucrt:argv_data.obj
 0003:0000164c       ___argc                    1002a64c     libucrt:argv_data.obj
 0003:00001650       ___argv                    1002a650     libucrt:argv_data.obj
 0003:00001654       ___wargv                   1002a654     libucrt:argv_data.obj
 0003:00001658       __acmdln                   1002a658     libucrt:argv_data.obj
 0003:0000165c       __wcmdln                   1002a65c     libucrt:argv_data.obj
 0003:00001660       ___acrt_heap               1002a660     libucrt:heap_handle.obj
 0003:00001678       ___acrt_lconv_static_null  1002a678     libucrt:localeconv.obj
 0003:0000167c       ___acrt_lconv_static_W_null 1002a67c     libucrt:localeconv.obj
 0003:00001690       ___fastflag                1002a690     libucrt:fp_flags.obj
 0003:00001698       ___dyn_tls_init_callback   1002a698     <common>
 0003:0000169c       ___scrt_ucrt_dll_is_in_use 1002a69c     <common>
 0003:000016a0       __pmatherr                 1002a6a0     <common>
 0003:000016a4       ___use_sse2_mathfcns       1002a6a4     <common>

 entry point at        0001:0000bdeb

 Static symbols

 0000:fffcf000       .debug$S                   10000000     OPOSDeviceMonitor.exp
 0000:fffcf000       .debug$S                   10000000     advapi32:ADVAPI32.dll
 0000:fffcf000       .debug$S                   10000000     advapi32:ADVAPI32.dll
 0000:fffcf000       .debug$S                   10000000     advapi32:ADVAPI32.dll
 0000:fffcf000       .debug$S                   10000000     advapi32:ADVAPI32.dll
 0000:fffcf000       .debug$S                   10000000     advapi32:ADVAPI32.dll
 0000:fffcf000       .debug$S                   10000000     advapi32:ADVAPI32.dll
 0000:fffcf000       .debug$S                   10000000     advapi32:ADVAPI32.dll
 0000:fffcf000       .debug$S                   10000000     advapi32:ADVAPI32.dll
 0000:fffcf000       .debug$S                   10000000     advapi32:ADVAPI32.dll
 0000:fffcf000       .debug$S                   10000000     gdi32:GDI32.dll
 0000:fffcf000       .debug$S                   10000000     gdi32:GDI32.dll
 0000:fffcf000       .debug$S                   10000000     gdi32:GDI32.dll
 0000:fffcf000       .debug$S                   10000000     gdi32:GDI32.dll
 0000:fffcf000       .debug$S                   10000000     gdi32:GDI32.dll
 0000:fffcf000       .debug$S                   10000000     gdi32:GDI32.dll
 0000:fffcf000       .debug$S                   10000000     gdi32:GDI32.dll
 0000:fffcf000       .debug$S                   10000000     gdi32:GDI32.dll
 0000:fffcf000       .debug$S                   10000000     gdi32:GDI32.dll
 0000:fffcf000       .debug$S                   10000000     gdi32:GDI32.dll
 0000:fffcf000       .debug$S                   10000000     gdi32:GDI32.dll
 0000:fffcf000       .debug$S                   10000000     gdi32:GDI32.dll
 0000:fffcf000       .debug$S                   10000000     gdi32:GDI32.dll
 0000:fffcf000       .debug$S                   10000000     gdi32:GDI32.dll
 0000:fffcf000       .debug$S                   10000000     gdi32:GDI32.dll
 0000:fffcf000       .debug$S                   10000000     gdi32:GDI32.dll
 0000:fffcf000       .debug$S                   10000000     gdi32:GDI32.dll
 0000:fffcf000       .debug$S                   10000000     gdi32:GDI32.dll
 0000:fffcf000       .debug$S                   10000000     gdi32:GDI32.dll
 0000:fffcf000       .debug$S                   10000000     kernel32:KERNEL32.dll
 0000:fffcf000       .debug$S                   10000000     kernel32:KERNEL32.dll
 0000:fffcf000       .debug$S                   10000000     kernel32:KERNEL32.dll
 0000:fffcf000       .debug$S                   10000000     kernel32:KERNEL32.dll
 0000:fffcf000       .debug$S                   10000000     kernel32:KERNEL32.dll
 0000:fffcf000       .debug$S                   10000000     kernel32:KERNEL32.dll
 0000:fffcf000       .debug$S                   10000000     kernel32:KERNEL32.dll
 0000:fffcf000       .debug$S                   10000000     kernel32:KERNEL32.dll
 0000:fffcf000       .debug$S                   10000000     kernel32:KERNEL32.dll
 0000:fffcf000       .debug$S                   10000000     kernel32:KERNEL32.dll
 0000:fffcf000       .debug$S                   10000000     kernel32:KERNEL32.dll
 0000:fffcf000       .debug$S                   10000000     kernel32:KERNEL32.dll
 0000:fffcf000       .debug$S                   10000000     kernel32:KERNEL32.dll
 0000:fffcf000       .debug$S                   10000000     kernel32:KERNEL32.dll
 0000:fffcf000       .debug$S                   10000000     kernel32:KERNEL32.dll
 0000:fffcf000       .debug$S                   10000000     kernel32:KERNEL32.dll
 0000:fffcf000       .debug$S                   10000000     kernel32:KERNEL32.dll
 0000:fffcf000       .debug$S                   10000000     kernel32:KERNEL32.dll
 0000:fffcf000       .debug$S                   10000000     kernel32:KERNEL32.dll
 0000:fffcf000       .debug$S                   10000000     kernel32:KERNEL32.dll
 0000:fffcf000       .debug$S                   10000000     kernel32:KERNEL32.dll
 0000:fffcf000       .debug$S                   10000000     kernel32:KERNEL32.dll
 0000:fffcf000       .debug$S                   10000000     kernel32:KERNEL32.dll
 0000:fffcf000       .debug$S                   10000000     kernel32:KERNEL32.dll
 0000:fffcf000       .debug$S                   10000000     kernel32:KERNEL32.dll
 0000:fffcf000       .debug$S                   10000000     kernel32:KERNEL32.dll
 0000:fffcf000       .debug$S                   10000000     kernel32:KERNEL32.dll
 0000:fffcf000       .debug$S                   10000000     kernel32:KERNEL32.dll
 0000:fffcf000       .debug$S                   10000000     kernel32:KERNEL32.dll
 0000:fffcf000       .debug$S                   10000000     kernel32:KERNEL32.dll
 0000:fffcf000       .debug$S                   10000000     kernel32:KERNEL32.dll
 0000:fffcf000       .debug$S                   10000000     kernel32:KERNEL32.dll
 0000:fffcf000       .debug$S                   10000000     kernel32:KERNEL32.dll
 0000:fffcf000       .debug$S                   10000000     kernel32:KERNEL32.dll
 0000:fffcf000       .debug$S                   10000000     kernel32:KERNEL32.dll
 0000:fffcf000       .debug$S                   10000000     kernel32:KERNEL32.dll
 0000:fffcf000       .debug$S                   10000000     kernel32:KERNEL32.dll
 0000:fffcf000       .debug$S                   10000000     kernel32:KERNEL32.dll
 0000:fffcf000       .debug$S                   10000000     kernel32:KERNEL32.dll
 0000:fffcf000       .debug$S                   10000000     kernel32:KERNEL32.dll
 0000:fffcf000       .debug$S                   10000000     kernel32:KERNEL32.dll
 0000:fffcf000       .debug$S                   10000000     kernel32:KERNEL32.dll
 0000:fffcf000       .debug$S                   10000000     kernel32:KERNEL32.dll
 0000:fffcf000       .debug$S                   10000000     kernel32:KERNEL32.dll
 0000:fffcf000       .debug$S                   10000000     kernel32:KERNEL32.dll
 0000:fffcf000       .debug$S                   10000000     kernel32:KERNEL32.dll
 0000:fffcf000       .debug$S                   10000000     kernel32:KERNEL32.dll
 0000:fffcf000       .debug$S                   10000000     kernel32:KERNEL32.dll
 0000:fffcf000       .debug$S                   10000000     kernel32:KERNEL32.dll
 0000:fffcf000       .debug$S                   10000000     kernel32:KERNEL32.dll
 0000:fffcf000       .debug$S                   10000000     kernel32:KERNEL32.dll
 0000:fffcf000       .debug$S                   10000000     kernel32:KERNEL32.dll
 0000:fffcf000       .debug$S                   10000000     kernel32:KERNEL32.dll
 0000:fffcf000       .debug$S                   10000000     kernel32:KERNEL32.dll
 0000:fffcf000       .debug$S                   10000000     kernel32:KERNEL32.dll
 0000:fffcf000       .debug$S                   10000000     kernel32:KERNEL32.dll
 0000:fffcf000       .debug$S                   10000000     kernel32:KERNEL32.dll
 0000:fffcf000       .debug$S                   10000000     kernel32:KERNEL32.dll
 0000:fffcf000       .debug$S                   10000000     kernel32:KERNEL32.dll
 0000:fffcf000       .debug$S                   10000000     kernel32:KERNEL32.dll
 0000:fffcf000       .debug$S                   10000000     kernel32:KERNEL32.dll
 0000:fffcf000       .debug$S                   10000000     kernel32:KERNEL32.dll
 0000:fffcf000       .debug$S                   10000000     kernel32:KERNEL32.dll
 0000:fffcf000       .debug$S                   10000000     kernel32:KERNEL32.dll
 0000:fffcf000       .debug$S                   10000000     kernel32:KERNEL32.dll
 0000:fffcf000       .debug$S                   10000000     kernel32:KERNEL32.dll
 0000:fffcf000       .debug$S                   10000000     kernel32:KERNEL32.dll
 0000:fffcf000       .debug$S                   10000000     kernel32:KERNEL32.dll
 0000:fffcf000       .debug$S                   10000000     kernel32:KERNEL32.dll
 0000:fffcf000       .debug$S                   10000000     kernel32:KERNEL32.dll
 0000:fffcf000       .debug$S                   10000000     kernel32:KERNEL32.dll
 0000:fffcf000       .debug$S                   10000000     kernel32:KERNEL32.dll
 0000:fffcf000       .debug$S                   10000000     kernel32:KERNEL32.dll
 0000:fffcf000       .debug$S                   10000000     kernel32:KERNEL32.dll
 0000:fffcf000       .debug$S                   10000000     kernel32:KERNEL32.dll
 0000:fffcf000       .debug$S                   10000000     kernel32:KERNEL32.dll
 0000:fffcf000       .debug$S                   10000000     kernel32:KERNEL32.dll
 0000:fffcf000       .debug$S                   10000000     kernel32:KERNEL32.dll
 0000:fffcf000       .debug$S                   10000000     kernel32:KERNEL32.dll
 0000:fffcf000       .debug$S                   10000000     kernel32:KERNEL32.dll
 0000:fffcf000       .debug$S                   10000000     kernel32:KERNEL32.dll
 0000:fffcf000       .debug$S                   10000000     kernel32:KERNEL32.dll
 0000:fffcf000       .debug$S                   10000000     kernel32:KERNEL32.dll
 0000:fffcf000       .debug$S                   10000000     kernel32:KERNEL32.dll
 0000:fffcf000       .debug$S                   10000000     kernel32:KERNEL32.dll
 0000:fffcf000       .debug$S                   10000000     kernel32:KERNEL32.dll
 0000:fffcf000       .debug$S                   10000000     kernel32:KERNEL32.dll
 0000:fffcf000       .debug$S                   10000000     kernel32:KERNEL32.dll
 0000:fffcf000       .debug$S                   10000000     kernel32:KERNEL32.dll
 0000:fffcf000       .debug$S                   10000000     kernel32:KERNEL32.dll
 0000:fffcf000       .debug$S                   10000000     kernel32:KERNEL32.dll
 0000:fffcf000       .debug$S                   10000000     kernel32:KERNEL32.dll
 0000:fffcf000       .debug$S                   10000000     kernel32:KERNEL32.dll
 0000:fffcf000       .debug$S                   10000000     kernel32:KERNEL32.dll
 0000:fffcf000       .debug$S                   10000000     kernel32:KERNEL32.dll
 0000:fffcf000       .debug$S                   10000000     kernel32:KERNEL32.dll
 0000:fffcf000       .debug$S                   10000000     kernel32:KERNEL32.dll
 0000:fffcf000       .debug$S                   10000000     kernel32:KERNEL32.dll
 0000:fffcf000       .debug$S                   10000000     kernel32:KERNEL32.dll
 0000:fffcf000       .debug$S                   10000000     kernel32:KERNEL32.dll
 0000:fffcf000       .debug$S                   10000000     kernel32:KERNEL32.dll
 0000:fffcf000       .debug$S                   10000000     kernel32:KERNEL32.dll
 0000:fffcf000       .debug$S                   10000000     kernel32:KERNEL32.dll
 0000:fffcf000       .debug$S                   10000000     kernel32:KERNEL32.dll
 0000:fffcf000       .debug$S                   10000000     kernel32:KERNEL32.dll
 0000:fffcf000       .debug$S                   10000000     kernel32:KERNEL32.dll
 0000:fffcf000       .debug$S                   10000000     ole32:ole32.dll
 0000:fffcf000       .debug$S                   10000000     ole32:ole32.dll
 0000:fffcf000       .debug$S                   10000000     ole32:ole32.dll
 0000:fffcf000       .debug$S                   10000000     ole32:ole32.dll
 0000:fffcf000       .debug$S                   10000000     ole32:ole32.dll
 0000:fffcf000       .debug$S                   10000000     ole32:ole32.dll
 0000:fffcf000       .debug$S                   10000000     ole32:ole32.dll
 0000:fffcf000       .debug$S                   10000000     ole32:ole32.dll
 0000:fffcf000       .debug$S                   10000000     ole32:ole32.dll
 0000:fffcf000       .debug$S                   10000000     ole32:ole32.dll
 0000:fffcf000       .debug$S                   10000000     ole32:ole32.dll
 0000:fffcf000       .debug$S                   10000000     ole32:ole32.dll
 0000:fffcf000       .debug$S                   10000000     ole32:ole32.dll
 0000:fffcf000       .debug$S                   10000000     ole32:ole32.dll
 0000:fffcf000       .debug$S                   10000000     oleaut32:OLEAUT32.dll
 0000:fffcf000       .debug$S                   10000000     oleaut32:OLEAUT32.dll
 0000:fffcf000       .debug$S                   10000000     oleaut32:OLEAUT32.dll
 0000:fffcf000       .debug$S                   10000000     oleaut32:OLEAUT32.dll
 0000:fffcf000       .debug$S                   10000000     oleaut32:OLEAUT32.dll
 0000:fffcf000       .debug$S                   10000000     oleaut32:OLEAUT32.dll
 0000:fffcf000       .debug$S                   10000000     oleaut32:OLEAUT32.dll
 0000:fffcf000       .debug$S                   10000000     oleaut32:OLEAUT32.dll
 0000:fffcf000       .debug$S                   10000000     oleaut32:OLEAUT32.dll
 0000:fffcf000       .debug$S                   10000000     oleaut32:OLEAUT32.dll
 0000:fffcf000       .debug$S                   10000000     oleaut32:OLEAUT32.dll
 0000:fffcf000       .debug$S                   10000000     oleaut32:OLEAUT32.dll
 0000:fffcf000       .debug$S                   10000000     oleaut32:OLEAUT32.dll
 0000:fffcf000       .debug$S                   10000000     oleaut32:OLEAUT32.dll
 0000:fffcf000       .debug$S                   10000000     oleaut32:OLEAUT32.dll
 0000:fffcf000       .debug$S                   10000000     oleaut32:OLEAUT32.dll
 0000:fffcf000       .debug$S                   10000000     user32:USER32.dll
 0000:fffcf000       .debug$S                   10000000     user32:USER32.dll
 0000:fffcf000       .debug$S                   10000000     user32:USER32.dll
 0000:fffcf000       .debug$S                   10000000     user32:USER32.dll
 0000:fffcf000       .debug$S                   10000000     user32:USER32.dll
 0000:fffcf000       .debug$S                   10000000     user32:USER32.dll
 0000:fffcf000       .debug$S                   10000000     user32:USER32.dll
 0000:fffcf000       .debug$S                   10000000     user32:USER32.dll
 0000:fffcf000       .debug$S                   10000000     user32:USER32.dll
 0000:fffcf000       .debug$S                   10000000     user32:USER32.dll
 0000:fffcf000       .debug$S                   10000000     user32:USER32.dll
 0000:fffcf000       .debug$S                   10000000     user32:USER32.dll
 0000:fffcf000       .debug$S                   10000000     user32:USER32.dll
 0000:fffcf000       .debug$S                   10000000     user32:USER32.dll
 0000:fffcf000       .debug$S                   10000000     user32:USER32.dll
 0000:fffcf000       .debug$S                   10000000     user32:USER32.dll
 0000:fffcf000       .debug$S                   10000000     user32:USER32.dll
 0000:fffcf000       .debug$S                   10000000     user32:USER32.dll
 0000:fffcf000       .debug$S                   10000000     user32:USER32.dll
 0000:fffcf000       .debug$S                   10000000     user32:USER32.dll
 0000:fffcf000       .debug$S                   10000000     user32:USER32.dll
 0000:fffcf000       .debug$S                   10000000     user32:USER32.dll
 0000:fffcf000       .debug$S                   10000000     user32:USER32.dll
 0000:fffcf000       .debug$S                   10000000     user32:USER32.dll
 0000:fffcf000       .debug$S                   10000000     user32:USER32.dll
 0000:fffcf000       .debug$S                   10000000     user32:USER32.dll
 0000:fffcf000       .debug$S                   10000000     user32:USER32.dll
 0000:fffcf000       .debug$S                   10000000     user32:USER32.dll
 0000:fffcf000       .debug$S                   10000000     user32:USER32.dll
 0000:fffcf000       .debug$S                   10000000     user32:USER32.dll
 0000:fffcf000       .debug$S                   10000000     user32:USER32.dll
 0000:fffcf000       .debug$S                   10000000     user32:USER32.dll
 0000:fffcf000       .debug$S                   10000000     user32:USER32.dll
 0000:fffcf000       .debug$S                   10000000     user32:USER32.dll
 0000:fffcf000       .debug$S                   10000000     user32:USER32.dll
 0001:00000000       ??__E_AtlComModule@ATL@@YAXXZ 10001000 f   OposVariant.obj
 0001:00000016       ??__E_AtlWinModule@ATL@@YAXXZ 10001016 f   OposVariant.obj
 0001:0000002c       ??__E?pConnMap@?$IConnectionPointContainerImpl@VCOPOSDeviceMonitor@@@ATL@@0PBU_ATL_CONNMAP_ENTRY@2@B@@YAXXZ 1000102c f   DeviceMonitor.obj
 0001:0000003a       ??__E_Module@@YAXXZ        1000103a f   DeviceMonitor.obj
 0001:00000064       ??__E_AtlBaseModule@ATL@@YAXXZ 10001064 f   atls:atlbase.obj
 0001:0000139c       $LN24                      1000239c     DeviceMonitor.obj
 0001:00004751       $LN31                      10005751     DeviceMonitor.obj
 0001:00004755       $LN30                      10005755     DeviceMonitor.obj
 0001:00005930       $LN60                      10006930     DeviceMonitor.obj
 0001:00005948       $LN59                      10006948     DeviceMonitor.obj
 0001:00007aea       $LN50                      10008aea     DeviceMonitor.obj
 0001:00007b02       $LN49                      10008b02     DeviceMonitor.obj
 0001:000091c9       $LN88                      1000a1c9     DeviceMonitor.obj
 0001:000091e1       $LN87                      1000a1e1     DeviceMonitor.obj
 0001:000095a1       _memcpy_s                  1000a5a1 f   DeviceMonitor.obj
 0001:0000b287       ?find_pe_section@@YAPAU_IMAGE_SECTION_HEADER@@QAEI@Z 1000c287 f   LIBCMT:utility.obj
 0001:0000b5a6       ?__scrt_initialize_thread_safe_statics@@YAHXZ 1000c5a6 f   LIBCMT:thread_safe_statics.obj
 0001:0000b5cd       ?__scrt_initialize_thread_safe_statics_platform_specific@@YAXXZ 1000c5cd f   LIBCMT:thread_safe_statics.obj
 0001:0000b64f       ?__scrt_uninitialize_thread_safe_statics@@YAXXZ 1000c64f f   LIBCMT:thread_safe_statics.obj
 0001:0000b9c0       __catch$??2@YAPAXIABUnothrow_t@std@@@Z$0 1000c9c0 f   LIBCMT:new_scalar_nothrow.obj
 0001:0000ba00       $$000000                   1000ca00     LIBCMT:sehprolg4gs.obj
 0001:0000ba50       $$000000                   1000ca50     LIBCMT:alloca16.obj
 0001:0000ba66       alloca_8                   1000ca66     LIBCMT:alloca16.obj
 0001:0000ba80       $$000000                   1000ca80     LIBCMT:chkstk.obj
 0001:0000ba94       cs10                       1000ca94     LIBCMT:chkstk.obj
 0001:0000baa2       cs20                       1000caa2     LIBCMT:chkstk.obj
 0001:0000baab       ?dllmain_crt_dispatch@@YGHQAUHINSTANCE__@@KQAX@Z 1000caab f   LIBCMT:dll_dllmain.obj
 0001:0000bafe       ?dllmain_crt_process_attach@@YAHQAUHINSTANCE__@@QAX@Z 1000cafe f   LIBCMT:dll_dllmain.obj
 0001:0000bc05       ?dllmain_crt_process_detach@@YAH_N@Z 1000cc05 f   LIBCMT:dll_dllmain.obj
 0001:0000bcb5       ?dllmain_dispatch@@YAHQAUHINSTANCE__@@KQAX@Z 1000ccb5 f   LIBCMT:dll_dllmain.obj
 0001:0000bdc0       ?dllmain_raw@@YGHQAUHINSTANCE__@@KQAX@Z 1000cdc0 f   LIBCMT:dll_dllmain.obj
 0001:0000c150       $$000000                   1000d150     LIBCMT:sehprolg4.obj
 0001:0000c198       ___get_entropy             1000d198 f   LIBCMT:gs_support.obj
 0001:0000c48f       ??$GetProcAddressAll@P6GP6GJPAUHWND__@@IIJ@ZPAUAtlThunkData_t@@@Z@@YAP6GP6GJPAUHWND__@@IIJ@ZPAUAtlThunkData_t@@@ZPAP6GP6GJ0IIJ@Z1@Z@Z 1000d48f f   atls:atlthunk.obj
 0001:0000c48f       ??$GetProcAddressAll@P6GPAUAtlThunkData_t@@XZ@@YAP6GPAUAtlThunkData_t@@XZPAP6GPAU0@XZ@Z 1000d48f f   atls:atlthunk.obj
 0001:0000c48f       ??$GetProcAddressAll@P6GXPAUAtlThunkData_t@@@Z@@YAP6GXPAUAtlThunkData_t@@@ZPAP6GX0@Z@Z 1000d48f f   atls:atlthunk.obj
 0001:0000c48f       ??$GetProcAddressAll@P6GXPAUAtlThunkData_t@@PAXI@Z@@YAP6GXPAUAtlThunkData_t@@PAXI@ZPAP6GX01I@Z@Z 1000d48f f   atls:atlthunk.obj
 0001:0000c53f       ?GetProcAddressSingle@@YA_NPAUHINSTANCE__@@PBDPAPAX@Z 1000d53f f   atls:atlthunk.obj
 0001:0000c691       ?__InitializeThunkPool@@YAHXZ 1000d691 f   atls:atlthunk.obj
 0001:0000caf0       _ValidateLocalCookies      1000daf0 f   libvcruntime:chandler4.obj
 0001:0000e28a       $LN1250                    1000f28a     libvcruntime:memcmp.obj
 0001:0000e310       $$000000                   1000f310     libvcruntime:memcpy.obj
 0001:0000e310       $$000000                   1000f310     libvcruntime:memmove.obj
 0001:0000e330       CopyUp                     1000f330     libvcruntime:memcpy.obj
 0001:0000e330       CopyUp                     1000f330     libvcruntime:memmove.obj
 0001:0000e354       CopyUpLargeMov             1000f354     libvcruntime:memcpy.obj
 0001:0000e354       CopyUpLargeMov             1000f354     libvcruntime:memmove.obj
 0001:0000e367       CopyUpSSE2Check            1000f367     libvcruntime:memcpy.obj
 0001:0000e367       CopyUpSSE2Check            1000f367     libvcruntime:memmove.obj
 0001:0000e380       AtomChk                    1000f380     libvcruntime:memcpy.obj
 0001:0000e380       AtomChk                    1000f380     libvcruntime:memmove.obj
 0001:0000e3a6       PalignHead4                1000f3a6     libvcruntime:memcpy.obj
 0001:0000e3a6       PalignHead4                1000f3a6     libvcruntime:memmove.obj
 0001:0000e3b9       PalignHead8                1000f3b9     libvcruntime:memcpy.obj
 0001:0000e3b9       PalignHead8                1000f3b9     libvcruntime:memmove.obj
 0001:0000e3d0       PalignLoop                 1000f3d0     libvcruntime:memcpy.obj
 0001:0000e3d0       PalignLoop                 1000f3d0     libvcruntime:memmove.obj
 0001:0000e3e2       MovPalign12                1000f3e2     libvcruntime:memcpy.obj
 0001:0000e3e2       MovPalign12                1000f3e2     libvcruntime:memmove.obj
 0001:0000e3ec       PalignLoop12               1000f3ec     libvcruntime:memcpy.obj
 0001:0000e3ec       PalignLoop12               1000f3ec     libvcruntime:memmove.obj
 0001:0000e43d       MovPalign8                 1000f43d     libvcruntime:memcpy.obj
 0001:0000e43d       MovPalign8                 1000f43d     libvcruntime:memmove.obj
 0001:0000e448       PalignLoop8                1000f448     libvcruntime:memcpy.obj
 0001:0000e448       PalignLoop8                1000f448     libvcruntime:memmove.obj
 0001:0000e496       MovPalign4                 1000f496     libvcruntime:memcpy.obj
 0001:0000e496       MovPalign4                 1000f496     libvcruntime:memmove.obj
 0001:0000e4a0       PalignLoop4                1000f4a0     libvcruntime:memcpy.obj
 0001:0000e4a0       PalignLoop4                1000f4a0     libvcruntime:memmove.obj
 0001:0000e4ec       PalignTail                 1000f4ec     libvcruntime:memcpy.obj
 0001:0000e4ec       PalignTail                 1000f4ec     libvcruntime:memmove.obj
 0001:0000e504       PalignTail4                1000f504     libvcruntime:memcpy.obj
 0001:0000e504       PalignTail4                1000f504     libvcruntime:memmove.obj
 0001:0000e517       PalignTail8                1000f517     libvcruntime:memcpy.obj
 0001:0000e517       PalignTail8                1000f517     libvcruntime:memmove.obj
 0001:0000e52e       PalignTailLE3              1000f52e     libvcruntime:memcpy.obj
 0001:0000e52e       PalignTailLE3              1000f52e     libvcruntime:memmove.obj
 0001:0000e537       Dword_align                1000f537     libvcruntime:memcpy.obj
 0001:0000e537       Dword_align                1000f537     libvcruntime:memmove.obj
 0001:0000e53f       Dword_up_align_loop        1000f53f     libvcruntime:memcpy.obj
 0001:0000e53f       Dword_up_align_loop        1000f53f     libvcruntime:memmove.obj
 0001:0000e552       Dword_align_Ok             1000f552     libvcruntime:memcpy.obj
 0001:0000e552       Dword_align_Ok             1000f552     libvcruntime:memmove.obj
 0001:0000e56c       ByteCopyUp                 1000f56c     libvcruntime:memcpy.obj
 0001:0000e56c       ByteCopyUp                 1000f56c     libvcruntime:memmove.obj
 0001:0000e574       TrailingUpVec              1000f574     libvcruntime:memcpy.obj
 0001:0000e574       TrailingUpVec              1000f574     libvcruntime:memmove.obj
 0001:0000e584       TrailingUp0                1000f584     libvcruntime:memcpy.obj
 0001:0000e584       TrailingUp0                1000f584     libvcruntime:memmove.obj
 0001:0000e58c       TrailingUp1                1000f58c     libvcruntime:memcpy.obj
 0001:0000e58c       TrailingUp1                1000f58c     libvcruntime:memmove.obj
 0001:0000e598       TrailingUp2                1000f598     libvcruntime:memcpy.obj
 0001:0000e598       TrailingUp2                1000f598     libvcruntime:memmove.obj
 0001:0000e5ac       TrailingUp3                1000f5ac     libvcruntime:memcpy.obj
 0001:0000e5ac       TrailingUp3                1000f5ac     libvcruntime:memmove.obj
 0001:0000e5c4       CopyDown                   1000f5c4     libvcruntime:memcpy.obj
 0001:0000e5c4       CopyDown                   1000f5c4     libvcruntime:memmove.obj
 0001:0000e5e9       CopyDownNotAligned         1000f5e9     libvcruntime:memcpy.obj
 0001:0000e5e9       CopyDownNotAligned         1000f5e9     libvcruntime:memmove.obj
 0001:0000e5f0       CopyDownAlignLoop          1000f5f0     libvcruntime:memcpy.obj
 0001:0000e5f0       CopyDownAlignLoop          1000f5f0     libvcruntime:memmove.obj
 0001:0000e5fd       CopyDownAligned            1000f5fd     libvcruntime:memcpy.obj
 0001:0000e5fd       CopyDownAligned            1000f5fd     libvcruntime:memmove.obj
 0001:0000e620       TrailingDownVec            1000f620     libvcruntime:memcpy.obj
 0001:0000e620       TrailingDownVec            1000f620     libvcruntime:memmove.obj
 0001:0000e630       TrailingDown0              1000f630     libvcruntime:memcpy.obj
 0001:0000e630       TrailingDown0              1000f630     libvcruntime:memmove.obj
 0001:0000e638       TrailingDown1              1000f638     libvcruntime:memcpy.obj
 0001:0000e638       TrailingDown1              1000f638     libvcruntime:memmove.obj
 0001:0000e648       TrailingDown2              1000f648     libvcruntime:memcpy.obj
 0001:0000e648       TrailingDown2              1000f648     libvcruntime:memmove.obj
 0001:0000e65c       TrailingDown3              1000f65c     libvcruntime:memcpy.obj
 0001:0000e65c       TrailingDown3              1000f65c     libvcruntime:memmove.obj
 0001:0000e675       XmmMovLargeAlignTest       1000f675     libvcruntime:memcpy.obj
 0001:0000e675       XmmMovLargeAlignTest       1000f675     libvcruntime:memmove.obj
 0001:0000e67d       XmmMovAlignLoop            1000f67d     libvcruntime:memcpy.obj
 0001:0000e67d       XmmMovAlignLoop            1000f67d     libvcruntime:memmove.obj
 0001:0000e68c       XmmMovLargeLoop            1000f68c     libvcruntime:memcpy.obj
 0001:0000e68c       XmmMovLargeLoop            1000f68c     libvcruntime:memmove.obj
 0001:0000e6fc       XmmMovSmallTest            1000f6fc     libvcruntime:memcpy.obj
 0001:0000e6fc       XmmMovSmallTest            1000f6fc     libvcruntime:memmove.obj
 0001:0000e701       XmmMovSmallLoop            1000f701     libvcruntime:memcpy.obj
 0001:0000e701       XmmMovSmallLoop            1000f701     libvcruntime:memmove.obj
 0001:0000e724       CopyDownSmall              1000f724     libvcruntime:memcpy.obj
 0001:0000e724       CopyDownSmall              1000f724     libvcruntime:memmove.obj
 0001:0000e72c       CopyDownDwordLoop          1000f72c     libvcruntime:memcpy.obj
 0001:0000e72c       CopyDownDwordLoop          1000f72c     libvcruntime:memmove.obj
 0001:0000e741       CopyDownByteTest           1000f741     libvcruntime:memcpy.obj
 0001:0000e741       CopyDownByteTest           1000f741     libvcruntime:memmove.obj
 0001:0000e745       CopyDownByteLoop           1000f745     libvcruntime:memcpy.obj
 0001:0000e745       CopyDownByteLoop           1000f745     libvcruntime:memmove.obj
 0001:0000e754       CopyDownReturn             1000f754     libvcruntime:memcpy.obj
 0001:0000e754       CopyDownReturn             1000f754     libvcruntime:memmove.obj
 0001:0000e760       XmmCopy                    1000f760     libvcruntime:memcpy.obj
 0001:0000e760       XmmCopy                    1000f760     libvcruntime:memmove.obj
 0001:0000e76d       XmmCopyAligned             1000f76d     libvcruntime:memcpy.obj
 0001:0000e76d       XmmCopyAligned             1000f76d     libvcruntime:memmove.obj
 0001:0000e780       XmmCopyLargeLoop           1000f780     libvcruntime:memcpy.obj
 0001:0000e780       XmmCopyLargeLoop           1000f780     libvcruntime:memmove.obj
 0001:0000e7dd       XmmCopySmallTest           1000f7dd     libvcruntime:memcpy.obj
 0001:0000e7dd       XmmCopySmallTest           1000f7dd     libvcruntime:memmove.obj
 0001:0000e7f0       XmmCopySmallLoop           1000f7f0     libvcruntime:memcpy.obj
 0001:0000e7f0       XmmCopySmallLoop           1000f7f0     libvcruntime:memmove.obj
 0001:0000e80b       CopyUpDwordMov             1000f80b     libvcruntime:memcpy.obj
 0001:0000e80b       CopyUpDwordMov             1000f80b     libvcruntime:memmove.obj
 0001:0000e810       CopyUpDwordTest            1000f810     libvcruntime:memcpy.obj
 0001:0000e810       CopyUpDwordTest            1000f810     libvcruntime:memmove.obj
 0001:0000e817       CopyUpDwordLoop            1000f817     libvcruntime:memcpy.obj
 0001:0000e817       CopyUpDwordLoop            1000f817     libvcruntime:memmove.obj
 0001:0000e826       CopyUpByteTest             1000f826     libvcruntime:memcpy.obj
 0001:0000e826       CopyUpByteTest             1000f826     libvcruntime:memmove.obj
 0001:0000e82d       CopyUpByteLoop             1000f82d     libvcruntime:memcpy.obj
 0001:0000e82d       CopyUpByteLoop             1000f82d     libvcruntime:memmove.obj
 0001:0000e840       CopyUpReturn               1000f840     libvcruntime:memcpy.obj
 0001:0000e840       CopyUpReturn               1000f840     libvcruntime:memmove.obj
 0001:0000e850       XmmCopyUnaligned           1000f850     libvcruntime:memcpy.obj
 0001:0000e850       XmmCopyUnaligned           1000f850     libvcruntime:memmove.obj
 0001:0000e863       XmmAlignByte               1000f863     libvcruntime:memcpy.obj
 0001:0000e863       XmmAlignByte               1000f863     libvcruntime:memmove.obj
 0001:0000e86c       XmmAlignDwordTest          1000f86c     libvcruntime:memcpy.obj
 0001:0000e86c       XmmAlignDwordTest          1000f86c     libvcruntime:memmove.obj
 0001:0000e871       XmmAlignDwordLoop          1000f871     libvcruntime:memcpy.obj
 0001:0000e871       XmmAlignDwordLoop          1000f871     libvcruntime:memmove.obj
 0001:0000e87e       XmmAlignAdjustCnt          1000f87e     libvcruntime:memcpy.obj
 0001:0000e87e       XmmAlignAdjustCnt          1000f87e     libvcruntime:memmove.obj
 0001:0000e890       $$000000                   1000f890     libvcruntime:memset.obj
 0001:0000e8d5       XMMMov                     1000f8d5     libvcruntime:memset.obj
 0001:0000e910       LargeRangeBytes            1000f910     libvcruntime:memset.obj
 0001:0000e94d       XmmMovSmall                1000f94d     libvcruntime:memset.obj
 0001:0000e960       XmmSmallLoop               1000f960     libvcruntime:memset.obj
 0001:0000e965       MidRangeBytes              1000f965     libvcruntime:memset.obj
 0001:0000e981       XMMTrailingBytes           1000f981     libvcruntime:memset.obj
 0001:0000e995       SmallMov                   1000f995     libvcruntime:memset.obj
 0001:0000e99d       ByteLoop                   1000f99d     libvcruntime:memset.obj
 0001:0000e9ab       DwordTest                  1000f9ab     libvcruntime:memset.obj
 0001:0000e9bb       QwordTest                  1000f9bb     libvcruntime:memset.obj
 0001:0000e9d0       QwordLoop                  1000f9d0     libvcruntime:memset.obj
 0001:0000e9e3       toend                      1000f9e3     libvcruntime:memset.obj
 0001:0000eea2       ?_FilterSetCurrentException@@YAKPAU_EXCEPTION_POINTERS@@E@Z 1000fea2 f   libvcruntime:ehhelpers.obj
 0001:0000f0f0       $$000000                   100100f0     libvcruntime:exsup4.obj
 0001:0000f122       _lu_top                    10010122     libvcruntime:exsup4.obj
 0001:0000f181       _lu_done                   10010181     libvcruntime:exsup4.obj
 0001:0000f190       $$000000                   10010190     libvcruntime:exsup4.obj
 0001:0000f190       __unwind_handler4          10010190 f   libvcruntime:exsup4.obj
 0001:0000f1e0       $$000000                   100101e0     libvcruntime:exsup4.obj
 0001:0000f200       $$000000                   10010200     libvcruntime:exsup4.obj
 0001:0000f220       $$000000                   10010220     libvcruntime:exsup4.obj
 0001:0000f235       ReturnPoint                10010235     libvcruntime:exsup4.obj
 0001:0000f240       $$000000                   10010240     libvcruntime:exsup4.obj
 0001:0000f432       ??$BuildCatchObjectHelperInternal@V__FrameHandler3@@@@YAHPAUEHExceptionRecord@@PAXPBU_s_HandlerType@@PBU_s_CatchableType@@@Z 10010432 f   libvcruntime:frame.obj
 0001:0000f570       ??$BuildCatchObjectInternal@V__FrameHandler3@@@@YAXPAUEHExceptionRecord@@PAXPBU_s_HandlerType@@PBU_s_CatchableType@@@Z 10010570 f   libvcruntime:frame.obj
 0001:0000f609       ??$CatchIt@V__FrameHandler3@@@@YAXPAUEHExceptionRecord@@PAUEHRegistrationNode@@PAU_CONTEXT@@PAXPBU_s_FuncInfo@@PBU_s_HandlerType@@PBU_s_CatchableType@@PBU_s_TryBlockMapEntry@@H1EE@Z 10010609 f   libvcruntime:frame.obj
 0001:0000f689       ??$FindHandler@V__FrameHandler3@@@@YAXPAUEHExceptionRecord@@PAUEHRegistrationNode@@PAU_CONTEXT@@PAXPBU_s_FuncInfo@@EH1@Z 10010689 f   libvcruntime:frame.obj
 0001:0000fa2e       ??$FindHandlerForForeignException@V__FrameHandler3@@@@YAXPAUEHExceptionRecord@@PAUEHRegistrationNode@@PAU_CONTEXT@@PAXPBU_s_FuncInfo@@HH1@Z 10010a2e f   libvcruntime:frame.obj
 0001:0000fd46       ?CallCatchBlock@@YAPAXPAUEHExceptionRecord@@PAUEHRegistrationNode@@PAU_CONTEXT@@PBU_s_FuncInfo@@PAXHK@Z 10010d46 f   libvcruntime:frame.obj
 0001:0000ff15       ?CallUnexpected@@YAXPBU_s_ESTypeList@@@Z 10010f15 f   libvcruntime:frame.obj
 0001:0000ff35       __catch$?CallUnexpected@@YAXPBU_s_ESTypeList@@@Z$0 10010f35 f   libvcruntime:frame.obj
 0001:0000ff54       ?ExFilterRethrow@@YAHPAU_EXCEPTION_POINTERS@@@Z 10010f54 f   libvcruntime:frame.obj
 0001:0001009e       ?IsInExceptionSpec@@YAEPAUEHExceptionRecord@@PBU_s_ESTypeList@@@Z 1001109e f   libvcruntime:frame.obj
 0001:00010170       $$000000                   10011170     libvcruntime:lowhelpr.obj
 0001:000101af       _NLG_Continue              100111af     libvcruntime:lowhelpr.obj
 0001:000101c0       $$000000                   100111c0     libvcruntime:exsup.obj
 0001:000101d0       $$000000                   100111d0     libvcruntime:exsup.obj
 0001:000101db       __NLG_Go                   100111db     libvcruntime:exsup.obj
 0001:000101f0       $$000000                   100111f0     libvcruntime:exsup.obj
 0001:000101f3       ?try_get_first_available_module@@YAPAUHINSTANCE__@@QBW4module_id@?A0x592e9a36@@0@Z 100111f3 f   libvcruntime:winapi_downlevel.obj
 0001:0001028e       ?try_get_function@@YAPAXW4function_id@?A0x592e9a36@@QBDQBW4module_id@2@2@Z 1001128e f   libvcruntime:winapi_downlevel.obj
 0001:000109c4       ??$common_tcscat_s@_W@@YAHQA_WIQB_W@Z 100119c4 f   libucrt:wcscat_s.obj
 0001:00010aab       ??$common_tcsncpy_s@_W@@YAHQA_WIQB_WI@Z 10011aab f   libucrt:wcsncpy_s.obj
 0001:00010b84       ??$common_vsprintf@Vformat_validation_base@__crt_stdio_output@@_W@@YAH_KQA_WIQB_WAAV__crt_cached_ptd_host@@QAD@Z 10011b84 f   libucrt:output.obj
 0001:00010d07       ??$common_vsprintf_s@_W@@YAH_KQA_WIQB_WAAV__crt_cached_ptd_host@@QAD@Z 10011d07 f   libucrt:output.obj
 0001:0001216f       $LN116                     1001316f     libucrt:output.obj
 0001:00012772       $LN18                      10013772     libucrt:output.obj
 0001:00012786       $LN17                      10013786     libucrt:output.obj
 0001:00012ec1       ??$?RV<lambda_03b1d95aef87969028cfba75ccab2455>@@AAV<lambda_6e4b09c48022b2350581041d5f6b0c4c>@@V<lambda_22bdf7517842c4b3e53723af5aa32b9e>@@@?$__crt_seh_guarded_call@X@@QAEX$$QAV<lambda_03b1d95aef87969028cfba75ccab2455>@@AAV<lambda_6e4b09c48022b2350581041d5f6b0c4c>@@$$QAV<lambda_22bdf7517842c4b3e53723af5aa32b9e>@@@Z 10013ec1 f   libucrt:exit.obj
 0001:00012f0e       ??R<lambda_6e4b09c48022b2350581041d5f6b0c4c>@@QBE@XZ 10013f0e f   libucrt:exit.obj
 0001:00012ff9       ?common_exit@@YAXHW4_crt_exit_cleanup_mode@@W4_crt_exit_return_mode@@@Z 10013ff9 f   libucrt:exit.obj
 0001:00013090       ?exit_or_terminate_process@@YAXI@Z 10014090 f   libucrt:exit.obj
 0001:000130c1       ?is_managed_app@@YA_NXZ    100140c1 f   libucrt:exit.obj
 0001:00013104       ?should_call_terminate_process@@YA_NXZ 10014104 f   libucrt:exit.obj
 0001:00013126       ?try_cor_exit_process@@YAXI@Z 10014126 f   libucrt:exit.obj
 0001:000131e3       ??$common_configure_argv@D@@YAHW4_crt_argv_mode@@@Z 100141e3 f   libucrt:argv_parsing.obj
 0001:00013320       ??$parse_command_line@D@@YAXPADPAPAD0PAI2@Z 10014320 f   libucrt:argv_parsing.obj
 0001:000134ee       ??$common_initialize_environment_nolock@D@@YAHXZ 100144ee f   libucrt:environment_initialization.obj
 0001:00013548       ??$create_environment@D@@YAQAPADQAD@Z 10014548 f   libucrt:environment_initialization.obj
 0001:0001362a       ??$free_environment@D@@YAXQAPAD@Z 1001462a f   libucrt:environment_initialization.obj
 0001:0001362a       ??$free_environment@_W@@YAXQAPA_W@Z 1001462a f   libucrt:environment_initialization.obj
 0001:00013659       ??$uninitialize_environment_internal@D@@YAXAAPAPAD@Z 10014659 f   libucrt:environment_initialization.obj
 0001:00013674       ??$uninitialize_environment_internal@_W@@YAXAAPAPA_W@Z 10014674 f   libucrt:environment_initialization.obj
 0001:000136e5       ??$?RV<lambda_69a2805e680e0e292e8ba93315fe43a8>@@AAV<lambda_f03950bc5685219e0bcd2087efbe011e>@@V<lambda_03fcd07e894ec930e3f35da366ca99d6>@@@?$__crt_seh_guarded_call@H@@QAEH$$QAV<lambda_69a2805e680e0e292e8ba93315fe43a8>@@AAV<lambda_f03950bc5685219e0bcd2087efbe011e>@@$$QAV<lambda_03fcd07e894ec930e3f35da366ca99d6>@@@Z 100146e5 f   libucrt:onexit.obj
 0001:00013740       ??$?RV<lambda_8e746cf0007f6ed984d6f78af1fec997>@@AAV<lambda_22ebabd17bc4fa466a2aca6d8deb888d>@@V<lambda_18ed0c0b38a6dc0daf1e7ac6d6adf05e>@@@?$__crt_seh_guarded_call@H@@QAEH$$QAV<lambda_8e746cf0007f6ed984d6f78af1fec997>@@AAV<lambda_22ebabd17bc4fa466a2aca6d8deb888d>@@$$QAV<lambda_18ed0c0b38a6dc0daf1e7ac6d6adf05e>@@@Z 10014740 f   libucrt:onexit.obj
 0001:000137ba       ??R<lambda_22ebabd17bc4fa466a2aca6d8deb888d>@@QBEHXZ 100147ba f   libucrt:onexit.obj
 0001:000138bc       ??R<lambda_f03950bc5685219e0bcd2087efbe011e>@@QBEHXZ 100148bc f   libucrt:onexit.obj
 0001:00013a46       _uninitialize_allocated_io_buffers 10014a46 f   libucrt:initialization.obj
 0001:00013a96       _initialize_environment    10014a96 f   libucrt:initialization.obj
 0001:00013a96       _initialize_global_state_isolation 10014a96 f   libucrt:initialization.obj
 0001:00013a96       _report_memory_leaks       10014a96 f   libucrt:initialization.obj
 0001:00013a96       _uninitialize_c            10014a96 f   libucrt:initialization.obj
 0001:00013a96       _uninitialize_global_state_isolation 10014a96 f   libucrt:initialization.obj
 0001:00013a99       _initialize_global_variables 10014a99 f   libucrt:initialization.obj
 0001:00013aa6       _initialize_c              10014aa6 f   libucrt:initialization.obj
 0001:00013ac0       _uninitialize_environment  10014ac0 f   libucrt:initialization.obj
 0001:00013ac8       _initialize_pointers       10014ac8 f   libucrt:initialization.obj
 0001:00013af6       _uninitialize_vcruntime    10014af6 f   libucrt:initialization.obj
 0001:00013aff       _uninitialize_allocated_memory 10014aff f   libucrt:initialization.obj
 0001:00013b16       ??R<lambda_af42a3ee9806e9a7305d451646e05244>@@QBEXAAPAU__crt_multibyte_data@@@Z 10014b16 f   libucrt:initialization.obj
 0001:00013d80       $$000000                   10014d80     libucrt:strncmp.obj
 0001:00013e6c       ??$?RV<lambda_15ade71b0218206bbe3333a0c9b79046>@@AAV<lambda_da44e0f8b0f19ba52fefafb335991732>@@V<lambda_207f2d024fc103971653565357d6cd41>@@@?$__crt_seh_guarded_call@X@@QAEX$$QAV<lambda_15ade71b0218206bbe3333a0c9b79046>@@AAV<lambda_da44e0f8b0f19ba52fefafb335991732>@@$$QAV<lambda_207f2d024fc103971653565357d6cd41>@@@Z 10014e6c f   libucrt:per_thread_data.obj
 0001:00013ebe       ??$?RV<lambda_38edbb1296d33220d7e4dd0ed76b244a>@@AAV<lambda_5ce1d447e08cb34b2473517608e21441>@@V<lambda_fb385d3da700c9147fc39e65dd577a8c>@@@?$__crt_seh_guarded_call@X@@QAEX$$QAV<lambda_38edbb1296d33220d7e4dd0ed76b244a>@@AAV<lambda_5ce1d447e08cb34b2473517608e21441>@@$$QAV<lambda_fb385d3da700c9147fc39e65dd577a8c>@@@Z 10014ebe f   libucrt:per_thread_data.obj
 0001:00013f29       ??$?RV<lambda_6affb1475c98b40b75cdec977db92e3c>@@AAV<lambda_b8d4b9c228a6ecc3f80208dbb4b4a104>@@V<lambda_608742c3c92a14382c1684fc64f96c88>@@@?$__crt_seh_guarded_call@X@@QAEX$$QAV<lambda_6affb1475c98b40b75cdec977db92e3c>@@AAV<lambda_b8d4b9c228a6ecc3f80208dbb4b4a104>@@$$QAV<lambda_608742c3c92a14382c1684fc64f96c88>@@@Z 10014f29 f   libucrt:per_thread_data.obj
 0001:00013f7e       ??$?RV<lambda_a7e850c220f1c8d1e6efeecdedd162c6>@@AAV<lambda_46720907175c18b6c9d2717bc0d2d362>@@V<lambda_9048902d66e8d99359bc9897bbb930a8>@@@?$__crt_seh_guarded_call@X@@QAEX$$QAV<lambda_a7e850c220f1c8d1e6efeecdedd162c6>@@AAV<lambda_46720907175c18b6c9d2717bc0d2d362>@@$$QAV<lambda_9048902d66e8d99359bc9897bbb930a8>@@@Z 10014f7e f   libucrt:per_thread_data.obj
 0001:00013fd8       ?construct_ptd@@YAXQAU__acrt_ptd@@QAPAU__crt_locale_data@@@Z 10014fd8 f   libucrt:per_thread_data.obj
 0001:00014071       ?destroy_fls@@YGXPAX@Z     10015071 f   libucrt:per_thread_data.obj
 0001:00014092       ?destroy_ptd@@YAXQAU__acrt_ptd@@@Z 10015092 f   libucrt:per_thread_data.obj
 0001:0001415f       ?replace_current_thread_locale_nolock@@YAXQAU__acrt_ptd@@QAU__crt_locale_data@@@Z 1001515f f   libucrt:per_thread_data.obj
 0001:000144c1       ??$?RV<lambda_e5124f882df8998aaf41531e079ba474>@@AAV<lambda_3e16ef9562a7dcce91392c22ab16ea36>@@V<lambda_e25ca0880e6ef98be67edffd8c599615>@@@?$__crt_seh_guarded_call@X@@QAEX$$QAV<lambda_e5124f882df8998aaf41531e079ba474>@@AAV<lambda_3e16ef9562a7dcce91392c22ab16ea36>@@$$QAV<lambda_e25ca0880e6ef98be67edffd8c599615>@@@Z 100154c1 f   libucrt:wsetlocale.obj
 0001:000146a8       ?try_get_AreFileApisANSI@@YAP6GHXZXZ 100156a8 f   libucrt:winapi_thunks.obj
 0001:000146c2       ?try_get_LCMapStringEx@@YAP6GHPB_WK0HPA_WHPAU_nlsversioninfo@@PAXJ@ZXZ 100156c2 f   libucrt:winapi_thunks.obj
 0001:000146dc       ?try_get_LocaleNameToLCID@@YAP6GKPB_WK@ZXZ 100156dc f   libucrt:winapi_thunks.obj
 0001:000146f6       ?try_get_first_available_module@@YAPAUHINSTANCE__@@QBW4module_id@?A0x391cf84c@@0@Z 100156f6 f   libucrt:winapi_thunks.obj
 0001:000147c1       ?try_get_function@@YAPAXW4function_id@?A0x391cf84c@@QBDQBW4module_id@2@2@Z 100157c1 f   libucrt:winapi_thunks.obj
 0001:00014dce       ?fe_to_nearest@@YA_NQBN_KF@Z 10015dce f   libucrt:cvt.obj
 0001:00014e71       ?fp_format_a@@YAHQBNPADIQADIH_NIW4__acrt_rounding_mode@@AAV__crt_cached_ptd_host@@@Z 10015e71 f   libucrt:cvt.obj
 0001:0001519d       ?fp_format_e@@YAHQBNQADI1IH_NIW4__acrt_rounding_mode@@AAV__crt_cached_ptd_host@@@Z 1001619d f   libucrt:cvt.obj
 0001:00015241       ?fp_format_e_internal@@YAHQADIH_NIQAU_strflt@@1AAV__crt_cached_ptd_host@@@Z 10016241 f   libucrt:cvt.obj
 0001:00015386       ?fp_format_f@@YAHQBNQADI1IHW4__acrt_rounding_mode@@AAV__crt_cached_ptd_host@@@Z 10016386 f   libucrt:cvt.obj
 0001:0001541c       ?fp_format_f_internal@@YAHQADIHQAU_strflt@@_NAAV__crt_cached_ptd_host@@@Z 1001641c f   libucrt:cvt.obj
 0001:0001550a       ?fp_format_g@@YAHQBNQADI1IH_NIW4__acrt_rounding_mode@@AAV__crt_cached_ptd_host@@@Z 1001650a f   libucrt:cvt.obj
 0001:000155d9       ?fp_format_nan_or_infinity@@YAHW4__acrt_fp_class@@_NPADI1@Z 100165d9 f   libucrt:cvt.obj
 0001:0001566e       ?shift_bytes@@YAXQADI0H@Z  1001666e f   libucrt:cvt.obj
 0001:000156a2       ?should_round_up@@YA_NQBN_KFW4__acrt_rounding_mode@@@Z 100166a2 f   libucrt:cvt.obj
 0001:00015b61       ?initialize_inherited_file_handles_nolock@@YAXXZ 10016b61 f   libucrt:ioinit.obj
 0001:00015c17       ?initialize_stdio_handles_nolock@@YAXXZ 10016c17 f   libucrt:ioinit.obj
 0001:00015e24       ?<lambda_invoker_cdecl>@<lambda_838c7f62c73c983481e27c09e84b0b5d>@@CAHPBX0@Z 10016e24 f   libucrt:argv_wildcards.obj
 0001:00015fd1       ??$common_expand_argv_wildcards@D@@YAHQAPADQAPAPAD@Z 10016fd1 f   libucrt:argv_wildcards.obj
 0001:0001614e       ??$copy_and_add_argument_to_buffer@D@@YAHQBD0IAAV?$argument_list@D@?A0x5f5c8891@@@Z 1001714e f   libucrt:argv_wildcards.obj
 0001:000161ff       ??$expand_argument_wildcards@D@@YAHQAD0AAV?$argument_list@D@?A0x5f5c8891@@@Z 100171ff f   libucrt:argv_wildcards.obj
 0001:00016506       ??1?$argument_list@D@?A0x5f5c8891@@QAE@XZ 10017506 f   libucrt:argv_wildcards.obj
 0001:00016646       ?expand_if_necessary@?$argument_list@D@?A0x5f5c8891@@AAEHXZ 10017646 f   libucrt:argv_wildcards.obj
 0001:00016876       ??$?RV<lambda_ceb1ee4838e85a9d631eb091e2fbe199>@@AAV<lambda_ae742caa10f662c28703da3d2ea5e57e>@@V<lambda_cd08b5d6af4937fe54fc07d0c9bf6b37>@@@?$__crt_seh_guarded_call@X@@QAEX$$QAV<lambda_ceb1ee4838e85a9d631eb091e2fbe199>@@AAV<lambda_ae742caa10f662c28703da3d2ea5e57e>@@$$QAV<lambda_cd08b5d6af4937fe54fc07d0c9bf6b37>@@@Z 10017876 f   libucrt:mbctype.obj
 0001:000168c3       ??R<lambda_ae742caa10f662c28703da3d2ea5e57e>@@QBEXXZ 100178c3 f   libucrt:mbctype.obj
 0001:00016946       ?CPtoLocaleName@@YAPB_WH@Z 10017946 f   libucrt:mbctype.obj
 0001:00016984       ?getSystemCP@@YAHH@Z       10017984 f   libucrt:mbctype.obj
 0001:000169f5       ?setSBCS@@YAXPAU__crt_multibyte_data@@@Z 100179f5 f   libucrt:mbctype.obj
 0001:00016a58       ?setSBUpLow@@YAXPAU__crt_multibyte_data@@@Z 10017a58 f   libucrt:mbctype.obj
 0001:00016c04       ?setmbcp_internal@@YAHH_NQAU__acrt_ptd@@QAPAU__crt_multibyte_data@@@Z 10017c04 f   libucrt:mbctype.obj
 0001:00016d59       ?update_thread_multibyte_data_internal@@YAPAU__crt_multibyte_data@@QAU__acrt_ptd@@QAPAU1@@Z 10017d59 f   libucrt:mbctype.obj
 0001:0001705c       _memcpy_s                  1001805c f   libucrt:cfout.obj
 0001:0001705c       _memcpy_s                  1001805c f   libucrt:mbctype.obj
 0001:000170dd       ?x_ismbbtype_l@@YAHPAU__crt_locale_pointers@@IHH@Z 100180dd f   libucrt:ismbbyte.obj
 0001:00017291       ?find_end_of_double_null_terminated_sequence@@YAPB_WQB_W@Z 10018291 f   libucrt:get_environment_from_os.obj
 0001:0001741c       ??$?RV<lambda_cbab9ec6f41b0180b23cc171c22676b0>@@AAV<lambda_44731a7d0e6d81c3e6aa82d741081786>@@V<lambda_4b292cb8dd18144e164572427af410ab>@@@?$__crt_seh_guarded_call@P6AXH@Z@@QAEP6AXH@Z$$QAV<lambda_cbab9ec6f41b0180b23cc171c22676b0>@@AAV<lambda_44731a7d0e6d81c3e6aa82d741081786>@@$$QAV<lambda_4b292cb8dd18144e164572427af410ab>@@@Z 1001841c f   libucrt:signal.obj
 0001:00017480       ?get_global_action_nolock@@YAPAP6AXH@ZH@Z 10018480 f   libucrt:signal.obj
 0001:000174c2       ?siglookup@@YAPAU__crt_signal_action_t@@HQAU1@@Z 100184c2 f   libucrt:signal.obj
 0001:0001777b       ??$?RV<lambda_2866be3712abc81a800a822484c830d8>@@AAV<lambda_39ca0ed439415581b5b15c265174cece>@@V<lambda_2b24c74d71094a6cd0cb82e44167d71b>@@@?$__crt_seh_guarded_call@X@@QAEX$$QAV<lambda_2866be3712abc81a800a822484c830d8>@@AAV<lambda_39ca0ed439415581b5b15c265174cece>@@$$QAV<lambda_2b24c74d71094a6cd0cb82e44167d71b>@@@Z 1001877b f   libucrt:fflush.obj
 0001:00017807       ??$?RV<lambda_2cc53f568c5a2bb6f192f930a45d44ea>@@AAV<lambda_ab61a845afdef5b7c387490eaf3616ee>@@V<lambda_c2ffc0b7726aa6be21d5f0026187e748>@@@?$__crt_seh_guarded_call@X@@QAEX$$QAV<lambda_2cc53f568c5a2bb6f192f930a45d44ea>@@AAV<lambda_ab61a845afdef5b7c387490eaf3616ee>@@$$QAV<lambda_c2ffc0b7726aa6be21d5f0026187e748>@@@Z 10018807 f   libucrt:fflush.obj
 0001:000178b3       ?common_flush_all@@YAH_N@Z 100188b3 f   libucrt:fflush.obj
 0001:00017900       ?common_flush_all_should_try_to_flush_stream@@YA_NV__crt_stdio_stream@@QAH@Z 10018900 f   libucrt:fflush.obj
 0001:00017933       ?is_stream_flushable_or_commitable@@YA_NJ@Z 10018933 f   libucrt:fflush.obj
 0001:00017f30       ?free_crt_array_internal@@YAXQAPBXI@Z 10018f30 f   libucrt:inittime.obj
 0001:00018169       ?GetTableIndexFromLocaleName@@YAHPB_W@Z 10019169 f   libucrt:lcidtoname_downlevel.obj
 0001:000181e5       ?should_round_up@@YA_NQBD0HW4__acrt_has_trailing_digits@@W4__acrt_rounding_mode@@@Z 100191e5 f   libucrt:_fptostr.obj
 0001:00019d2e       ??R<lambda_e96123212306c92459f955e8e4eac55d>@@QBEIPBD@Z 1001ad2e f   libucrt:mbrtowc.obj
 0001:0001a76e       ??$common_tcsncpy_s@D@@YAHQADIQBDI@Z 1001b76e f   libucrt:strncpy_s.obj
 0001:0001a830       $$000000                   1001b830     libucrt:strpbrk.obj
 0001:0001a914       ?__acrt_LCMapStringA_stat@@YAHPAU__crt_locale_pointers@@PB_WKPBDHPADHHH@Z 1001b914 f   libucrt:lcmapstringa.obj
 0001:0001ab4b       ?initialize_multibyte@@YAHXZ 1001bb4b f   libucrt:multibyte_initializer.obj
 0001:0001ab5a       ??$?RV<lambda_9e9de3de5fa147e2223d7db92bc10aa6>@@AAV<lambda_38ce7e780aa69e748d6df282ebc68efe>@@V<lambda_8ca6da459f0f6780f1cff60fdc3d00e5>@@@?$__crt_seh_guarded_call@H@@QAEH$$QAV<lambda_9e9de3de5fa147e2223d7db92bc10aa6>@@AAV<lambda_38ce7e780aa69e748d6df282ebc68efe>@@$$QAV<lambda_8ca6da459f0f6780f1cff60fdc3d00e5>@@@Z 1001bb5a f   libucrt:commit.obj
 0001:0001ac79       ?write_double_translated_ansi_nolock@@YA?AUwrite_result@?A0x17268360@@HQBDIAAV__crt_cached_ptd_host@@@Z 1001bc79 f   libucrt:write.obj
 0001:0001b04b       ?write_double_translated_unicode_nolock@@YA?AUwrite_result@?A0x17268360@@QBDI@Z 1001c04b f   libucrt:write.obj
 0001:0001b0b3       ?write_requires_double_translation_nolock@@YA_NHAAV__crt_cached_ptd_host@@@Z 1001c0b3 f   libucrt:write.obj
 0001:0001b131       ?write_text_ansi_nolock@@YA?AUwrite_result@?A0x17268360@@HQBDI@Z 1001c131 f   libucrt:write.obj
 0001:0001b20c       ?write_text_utf16le_nolock@@YA?AUwrite_result@?A0x17268360@@HQBDI@Z 1001c20c f   libucrt:write.obj
 0001:0001b2f5       ?write_text_utf8_nolock@@YA?AUwrite_result@?A0x17268360@@HQBDI@Z 1001c2f5 f   libucrt:write.obj
 0001:0001b8a0       $$000000                   1001c8a0     libucrt:log10_impl.obj
 0001:0001b9b0       $$000000                   1001c9b0     libucrt:ceil_pentium4.obj
 0001:0001bacd       ?to_abstract_control@@YA?AW4__acrt_fenv_abstract_control@@W4__acrt_fenv_machine_sse_control@@@Z 1001cacd f   libucrt:_fenvutils.obj
 0001:0001bb7d       ?to_abstract_control@@YA?AW4__acrt_fenv_abstract_control@@W4__acrt_fenv_machine_x87_control@@@Z 1001cb7d f   libucrt:_fenvutils.obj
 0001:0001bc2a       ?to_machine_sse_control@@YA?AW4__acrt_fenv_machine_sse_control@@W4__acrt_fenv_abstract_control@@@Z 1001cc2a f   libucrt:_fenvutils.obj
 0001:0001bce0       ?to_machine_x87_control@@YA?AW4__acrt_fenv_machine_x87_control@@W4__acrt_fenv_abstract_control@@@Z 1001cce0 f   libucrt:_fenvutils.obj
 0001:0001c24b       ?_fclose_internal@@YAHQAU_iobuf@@AAV__crt_cached_ptd_host@@@Z 1001d24b f   libucrt:fclose.obj
 0001:0001c2e2       ?_fclose_nolock_internal@@YAHQAU_iobuf@@AAV__crt_cached_ptd_host@@@Z 1001d2e2 f   libucrt:fclose.obj
 0001:0001c3a0       ??$common_lseek_nolock@_J@@YA_JH_JHAAV__crt_cached_ptd_host@@@Z 1001d3a0 f   libucrt:lseek.obj
 0001:0001c495       ___hw_cw_sse2              1001d495 f   libucrt:ieee87.obj
 0001:0001c91b       __hw_cw                    1001d91b f   libucrt:ieee87.obj
 0001:0001c9d0       $$000000                   1001d9d0     libucrt:log10_pentium4.obj
 0001:0001cc60       $$000000                   1001dc60     libucrt:87tran.obj
 0001:0001ce70       $$000000                   1001de70     libucrt:87disp.obj
 0001:0001d0d0       $$000000                   1001e0d0     libucrt:common.obj
 0001:0001d260       $$000000                   1001e260     libucrt:genexcep.obj
 0001:0001d55c       ??$?RV<lambda_d422a76eb4c3bf3ad751449ab71a6ea4>@@AAV<lambda_c9ba49e555ba839a7b07aa3fbecb7617>@@V<lambda_9476263c8ee91a25d21c55370bdb50de>@@@?$__crt_seh_guarded_call@H@@QAEH$$QAV<lambda_d422a76eb4c3bf3ad751449ab71a6ea4>@@AAV<lambda_c9ba49e555ba839a7b07aa3fbecb7617>@@$$QAV<lambda_9476263c8ee91a25d21c55370bdb50de>@@@Z 1001e55c f   libucrt:close.obj
 0001:0001d770       $$000000                   1001e770     libucrt:_strnicm.obj
 0001:0001d7d1       ?__dcrt_lowio_initialize_console_output@@YAXXZ 1001e7d1 f   libucrt:initcon.obj
 0001:0001e780       $$000000                   1001f780     LIBCMT:ulldvrm.obj
 0001:0001e7b1       L1                         1001f7b1     LIBCMT:ulldvrm.obj
 0001:0001e7bf       L3                         1001f7bf     LIBCMT:ulldvrm.obj
 0001:0001e7ed       L4                         1001f7ed     LIBCMT:ulldvrm.obj
 0001:0001e7f6       L5                         1001f7f6     LIBCMT:ulldvrm.obj
 0001:0001e7f8       L2                         1001f7f8     LIBCMT:ulldvrm.obj
 0001:0001e820       $$000000                   1001f820     LIBCMT:llmul.obj
 0001:0001e839       hard                       1001f839     LIBCMT:llmul.obj
 0001:0001e860       $$000000                   1001f860     LIBCMT:lldvrm.obj
 0001:0001e884       L1                         1001f884     LIBCMT:lldvrm.obj
 0001:0001e8a0       L2                         1001f8a0     LIBCMT:lldvrm.obj
 0001:0001e8cc       L3                         1001f8cc     LIBCMT:lldvrm.obj
 0001:0001e8da       L5                         1001f8da     LIBCMT:lldvrm.obj
 0001:0001e908       L6                         1001f908     LIBCMT:lldvrm.obj
 0001:0001e911       L7                         1001f911     LIBCMT:lldvrm.obj
 0001:0001e913       L4                         1001f913     LIBCMT:lldvrm.obj
 0001:0001e925       L9                         1001f925     LIBCMT:lldvrm.obj
 0001:0001e939       L8                         1001f939     LIBCMT:lldvrm.obj
 0001:0001e940       $$000000                   1001f940     LIBCMT:llshl.obj
 0001:0001e950       MORE32                     1001f950     LIBCMT:llshl.obj
 0001:0001e95a       RETZERO                    1001f95a     LIBCMT:llshl.obj
 0001:0001e960       $$000000                   1001f960     LIBCMT:ullshr.obj
 0001:0001e970       MORE32                     1001f970     LIBCMT:ullshr.obj
 0001:0001e97a       RETZERO                    1001f97a     LIBCMT:ullshr.obj
 0001:0001e980       $$000000                   1001f980     LIBCMT:ftol2.obj
 0001:0001e990       $$000000                   1001f990     LIBCMT:ftol2.obj
 0001:0001e9a1       L3B                        1001f9a1     LIBCMT:ftol2.obj
 0001:0001e9e4       L3F                        1001f9e4     LIBCMT:ftol2.obj
 0001:0001e9ec       L40                        1001f9ec     LIBCMT:ftol2.obj
 0001:0001e9ff       L41                        1001f9ff     LIBCMT:ftol2.obj
 0001:0001ea10       $$000000                   1001fa10     libvcruntime:strrchr.obj
 0001:0001ea4d       strrchr_sse_loop           1001fa4d     libvcruntime:strrchr.obj
 0001:0001ea7d       strrchr_sse_break          1001fa7d     libvcruntime:strrchr.obj
 0001:0001ea9d       strrchr_sttni              1001fa9d     libvcruntime:strrchr.obj
 0001:0001eaaf       strrchr_sttni_chars        1001faaf     libvcruntime:strrchr.obj
 0001:0001eac4       strrchr_sttni_aligned      1001fac4     libvcruntime:strrchr.obj
 0001:0001eac8       strrchr_sttni_xmm          1001fac8     libvcruntime:strrchr.obj
 0001:0001eadb       exit                       1001fadb     libvcruntime:strrchr.obj
 0001:0001eade       strrchr_zero               1001fade     libvcruntime:strrchr.obj
 0001:0001eb03       strchr_zero_loop           1001fb03     libvcruntime:strrchr.obj
 0001:0001eb17       strchr_zero_result         1001fb17     libvcruntime:strrchr.obj
 0001:0001eb1e       strrchr_no_sse             1001fb1e     libvcruntime:strrchr.obj
 0001:0001eb41       returndi                   1001fb41     libvcruntime:strrchr.obj
 0001:0001eb43       toend                      1001fb43     libvcruntime:strrchr.obj
 0001:0001ebc8       __ehhandler$??2@YAPAXIABUnothrow_t@std@@@Z 1001fbc8 f   LIBCMT:new_scalar_nothrow.obj
 0001:0001ebe5       __ehhandler$?CallUnexpected@@YAXPBU_s_ESTypeList@@@Z 1001fbe5 f   libvcruntime:frame.obj
 0001:0001ec02       __ehhandler$?common_exit@@YAXHW4_crt_exit_cleanup_mode@@W4_crt_exit_return_mode@@@Z 1001fc02 f   libucrt:exit.obj
 0001:0001ec1f       __ehhandler$?try_cor_exit_process@@YAXI@Z 1001fc1f f   libucrt:exit.obj
 0001:0001ec3c       __ehhandler$___dcrt_uninitialize_environments_nolock 1001fc3c f   libucrt:environment_initialization.obj
 0001:0001ec59       __ehhandler$__execute_onexit_table 1001fc59 f   libucrt:onexit.obj
 0001:0001ec76       __ehhandler$?write_double_translated_ansi_nolock@@YA?AUwrite_result@?A0x17268360@@HQBDIAAV__crt_cached_ptd_host@@@Z 1001fc76 f   libucrt:write.obj
 0001:0001eca0       ??__F_AtlComModule@ATL@@YAXXZ 1001fca0 f   OposVariant.obj
 0001:0001ecaa       ??__F_AtlWinModule@ATL@@YAXXZ 1001fcaa f   OposVariant.obj
 0001:0001ecc4       ??__F_Module@@YAXXZ        1001fcc4 f   DeviceMonitor.obj
 0001:0001ecd8       ??__F_AtlBaseModule@ATL@@YAXXZ 1001fcd8 f   atls:atlbase.obj
 0002:00000308       ?_AtlBaseModule$initializer$@ATL@@3P6AXXZA 10020308     atls:atlbase.obj
 0002:0000030c       ?_AtlComModule$initializer$@ATL@@3P6AXXZA 1002030c     OposVariant.obj
 0002:00000310       ?_AtlWinModule$initializer$@ATL@@3P6AXXZA 10020310     OposVariant.obj
 0002:00000314       ?_Module$initializer$@@3P6AXXZA 10020314     DeviceMonitor.obj
 0002:00000318       ??pConnMap$initializer$@?$IConnectionPointContainerImpl@VCOPOSDeviceMonitor@@@ATL@@0P6AXXZA@@3P6AXXZA 10020318     DeviceMonitor.obj
 0002:00000324       ?__scrt_initialize_tss_var@@3P6AHXZA 10020324     LIBCMT:thread_safe_statics.obj
 0002:00001808       _GS_ExceptionPointers      10021808     LIBCMT:gs_report.obj
 0002:00001998       ?tokenTable@@3QBUStringLiteral@@B 10021998     libvcruntime:undname.obj
 0002:00001a20       ?nameTable@@3QBUStringLiteral@@B 10021a20     libvcruntime:undname.obj
 0002:00001cb8       ?rttiTable@@3QBUStringLiteral@@B 10021cb8     libvcruntime:undname.obj
 0002:00001ce0       ?IndirectionName@@3QBUStringLiteral@@B 10021ce0     libvcruntime:undname.obj
 0002:00001d10       ?PrefixName@@3QBUStringLiteral@@B 10021d10     libvcruntime:undname.obj
 0002:0000234c       ?module_names@?A0x592e9a36@@3QBQB_WB 1002234c     libvcruntime:winapi_downlevel.obj
 0002:000023f4       ?candidate_modules@?1??try_get_FlsAlloc@@YAP6GKP6GXPAX@Z@ZXZ@4QBW4module_id@?A0x592e9a36@@B 100223f4     libvcruntime:winapi_downlevel.obj
 0002:00002408       ?candidate_modules@?1??try_get_FlsFree@@YAP6GHK@ZXZ@4QBW4module_id@?A0x592e9a36@@B 10022408     libvcruntime:winapi_downlevel.obj
 0002:00002418       ?candidate_modules@?1??try_get_FlsGetValue@@YAP6GPAXK@ZXZ@4QBW4module_id@?A0x592e9a36@@B 10022418     libvcruntime:winapi_downlevel.obj
 0002:0000242c       ?candidate_modules@?1??try_get_FlsSetValue@@YAP6GHKPAX@ZXZ@4QBW4module_id@?A0x592e9a36@@B 1002242c     libvcruntime:winapi_downlevel.obj
 0002:00002440       ?candidate_modules@?1??try_get_InitializeCriticalSectionEx@@YAP6GHPAU_RTL_CRITICAL_SECTION@@KK@ZXZ@4QBW4module_id@?A0x592e9a36@@B 10022440     libvcruntime:winapi_downlevel.obj
 0002:00002468       ?errtable@@3QBUerrentry@?A0x31fdb9ec@@B 10022468     libucrt:errno.obj
 0002:000027b0       ___acrt_initializers       100227b0     libucrt:initialization.obj
 0002:00002cf0       ?module_names@?A0x391cf84c@@3QBQB_WB 10022cf0     libucrt:winapi_thunks.obj
 0002:000031a4       ?candidate_modules@?1??try_get_AreFileApisANSI@@YAP6GHXZXZ@4QBW4module_id@?A0x391cf84c@@B 100231a4     libucrt:winapi_thunks.obj
 0002:000031b8       ?candidate_modules@?1??try_get_InitializeCriticalSectionEx@@YAP6GHPAU_RTL_CRITICAL_SECTION@@KK@ZXZ@4QBW4module_id@?A0x391cf84c@@B 100231b8     libucrt:winapi_thunks.obj
 0002:000031c0       ?candidate_modules@?1??try_get_LCMapStringEx@@YAP6GHPB_WK0HPA_WHPAU_nlsversioninfo@@PAXJ@ZXZ@4QBW4module_id@?A0x391cf84c@@B 100231c0     libucrt:winapi_thunks.obj
 0002:000031d8       ?candidate_modules@?1??try_get_LocaleNameToLCID@@YAP6GKPB_WK@ZXZ@4QBW4module_id@?A0x391cf84c@@B 100231d8     libucrt:winapi_thunks.obj
 0002:000031f4       ?candidate_modules@?1??try_get_AppPolicyGetProcessTerminationMethod@@YAP6GJPAXPAW4AppPolicyProcessTerminationMethod@@@ZXZ@4QBW4module_id@?A0x391cf84c@@B 100231f4     libucrt:winapi_thunks.obj
 0002:00003220       ?candidate_modules@?1??try_get_SetThreadStackGuarantee@@YAP6GHPAK@ZXZ@4QBW4module_id@?A0x391cf84c@@B 10023220     libucrt:winapi_thunks.obj
 0002:00003240       ?candidate_modules@?1??try_get_FlsAlloc@@YAP6GKP6GXPAX@Z@ZXZ@4QBW4module_id@?A0x391cf84c@@B 10023240     libucrt:winapi_thunks.obj
 0002:00003248       ?candidate_modules@?1??try_get_FlsFree@@YAP6GHK@ZXZ@4QBW4module_id@?A0x391cf84c@@B 10023248     libucrt:winapi_thunks.obj
 0002:00003250       ?candidate_modules@?1??try_get_FlsGetValue@@YAP6GPAXK@ZXZ@4QBW4module_id@?A0x391cf84c@@B 10023250     libucrt:winapi_thunks.obj
 0002:00003258       ?candidate_modules@?1??try_get_FlsSetValue@@YAP6GHKPAX@ZXZ@4QBW4module_id@?A0x391cf84c@@B 10023258     libucrt:winapi_thunks.obj
 0002:00003260       ?strings@?1??fp_format_nan_or_infinity@@YAHW4__acrt_fp_class@@_NPADI1@Z@4QAY03QBDA 10023260     libucrt:cvt.obj
 0002:000032e8       ?_mb_locale_names@@3QBQB_WB 100232e8     libucrt:mbctype.obj
 0002:00003930       ?LcidToLocaleNameTable@?A0x881e4c05@@3QBULcidToLocaleName@1@B 10023930     libucrt:lcidtoname_downlevel.obj
 0002:00004a50       ?LocaleNameToIndexTable@?A0x881e4c05@@3QBULocaleNameIndex@1@B 10024a50     libucrt:lcidtoname_downlevel.obj
 0002:00006390       LOG_name                   10026390     libucrt:log10_impl.obj
 0002:000063a0       _One                       100263a0     libucrt:ceil_pentium4.obj
 0002:000063b0       _Bns                       100263b0     libucrt:ceil_pentium4.obj
 0002:000063c0       _Zero                      100263c0     libucrt:ceil_pentium4.obj
 0002:000063d0       _S                         100263d0     libucrt:ceil_pentium4.obj
 0002:000063e0       _NegZero                   100263e0     libucrt:ceil_pentium4.obj
 0002:000063f0       emask                      100263f0     libucrt:log10_pentium4.obj
 0002:00006400       CC                         10026400     libucrt:log10_pentium4.obj
 0002:00006410       Magic                      10026410     libucrt:log10_pentium4.obj
 0002:00006420       hi_mask                    10026420     libucrt:log10_pentium4.obj
 0002:00006430       LOG10_2                    10026430     libucrt:log10_pentium4.obj
 0002:00006440       place_L                    10026440     libucrt:log10_pentium4.obj
 0002:00006460       One                        10026460     libucrt:log10_pentium4.obj
 0002:00006470       Zero                       10026470     libucrt:log10_pentium4.obj
 0002:00006480       Two52                      10026480     libucrt:log10_pentium4.obj
 0002:00006490       Infs                       10026490     libucrt:log10_pentium4.obj
 0002:000064a0       NaN                        100264a0     libucrt:log10_pentium4.obj
 0002:000064b0       coeff                      100264b0     libucrt:log10_pentium4.obj
 0002:0000650e       _log2max                   1002650e     libucrt:87tran.obj
 0002:00006518       _smallarg                  10026518     libucrt:87tran.obj
 0002:00006522       _half                      10026522     libucrt:87tran.obj
 0002:0000656e       One                        1002656e     libucrt:87disp.obj
 0002:00006576       Three                      10026576     libucrt:87disp.obj
 0002:0000657e       XAMtoTagTab                1002657e     libucrt:87disp.obj
 0002:00006590       One                        10026590     libucrt:common.obj
 0002:000065a4       DblMax                     100265a4     libucrt:common.obj
 0002:000065ac       DblMin                     100265ac     libucrt:common.obj
 0002:000065b4       IeeeAdjO                   100265b4     libucrt:common.obj
 0002:000065bc       IeeeAdjU                   100265bc     libucrt:common.obj
 0002:000065c4       _infinity                  100265c4     libucrt:common.obj
 0002:000065cc       _zero                      100265cc     libucrt:common.obj
 0002:00006618       _over                      10026618     libucrt:fpctrl.obj
 0002:00006624       _under                     10026624     libucrt:fpctrl.obj
 0002:00006e58       ?_names@?1??_get_fname@@9@4QBU<unnamed-type-_names>@?1??1@YAPADI@Z@B 10026e58     libucrt:fpexcept.obj
 0002:00007000       two32                      10027000     LIBCMT:ftol2.obj
 0002:00007004       two63                      10027004     LIBCMT:ftol2.obj
 0002:00007008       _NaN                       10027008     LIBCMT:ftol2.obj
 0002:00007758       __sehtable$?_AtlVerifyStackAvailable@_ATL_SAFE_ALLOCA_IMPL@ATL@@YA_NK@Z 10027758     DeviceMonitor.obj
 0002:00007778       __sehtable$___scrt_is_nonwritable_in_current_image 10027778     LIBCMT:utility.obj
 0002:00007794       __catchsym$??2@YAPAXIABUnothrow_t@std@@@Z$2 10027794     LIBCMT:new_scalar_nothrow.obj
 0002:000077a4       __unwindtable$??2@YAPAXIABUnothrow_t@std@@@Z 100277a4     LIBCMT:new_scalar_nothrow.obj
 0002:000077b4       __tryblocktable$??2@YAPAXIABUnothrow_t@std@@@Z 100277b4     LIBCMT:new_scalar_nothrow.obj
 0002:000077c8       __ehfuncinfo$??2@YAPAXIABUnothrow_t@std@@@Z 100277c8     LIBCMT:new_scalar_nothrow.obj
 0002:000077f0       __sehtable$?dllmain_crt_process_attach@@YAHQAUHINSTANCE__@@QAX@Z 100277f0     LIBCMT:dll_dllmain.obj
 0002:00007810       __sehtable$?dllmain_crt_process_detach@@YAH_N@Z 10027810     LIBCMT:dll_dllmain.obj
 0002:00007838       __sehtable$?dllmain_dispatch@@YAHQAUHINSTANCE__@@KQAX@Z 10027838     LIBCMT:dll_dllmain.obj
 0002:000078e8       __sehtable$___DestructExceptionObject 100278e8     libvcruntime:ehhelpers.obj
 0002:00007908       __sehtable$?FrameUnwindToState@__FrameHandler3@@SAXPAUEHRegistrationNode@@PAXPBU_s_FuncInfo@@H@Z 10027908     libvcruntime:frame.obj
 0002:00007930       __sehtable$?CallCatchBlock@@YAPAXPAUEHExceptionRecord@@PAUEHRegistrationNode@@PAU_CONTEXT@@PBU_s_FuncInfo@@PAXHK@Z 10027930     libvcruntime:frame.obj
 0002:00007958       __catchsym$?CallUnexpected@@YAXPBU_s_ESTypeList@@@Z$2 10027958     libvcruntime:frame.obj
 0002:00007968       __unwindtable$?CallUnexpected@@YAXPBU_s_ESTypeList@@@Z 10027968     libvcruntime:frame.obj
 0002:00007978       __tryblocktable$?CallUnexpected@@YAXPBU_s_ESTypeList@@@Z 10027978     libvcruntime:frame.obj
 0002:0000798c       __ehfuncinfo$?CallUnexpected@@YAXPBU_s_ESTypeList@@@Z 1002798c     libvcruntime:frame.obj
 0002:000079b0       __sehtable$??$BuildCatchObjectHelperInternal@V__FrameHandler3@@@@YAHPAUEHExceptionRecord@@PAXPBU_s_HandlerType@@PBU_s_CatchableType@@@Z 100279b0     libvcruntime:frame.obj
 0002:000079d0       __sehtable$??$BuildCatchObjectInternal@V__FrameHandler3@@@@YAXPAUEHExceptionRecord@@PAXPBU_s_HandlerType@@PBU_s_CatchableType@@@Z 100279d0     libvcruntime:frame.obj
 0002:00007a24       __ehfuncinfo$?write_double_translated_ansi_nolock@@YA?AUwrite_result@?A0x17268360@@HQBDIAAV__crt_cached_ptd_host@@@Z 10027a24     libucrt:write.obj
 0002:00007a24       __ehfuncinfo$?try_cor_exit_process@@YAXI@Z 10027a24     libucrt:exit.obj
 0002:00007a48       __unwindtable$?common_exit@@YAXHW4_crt_exit_cleanup_mode@@W4_crt_exit_return_mode@@@Z 10027a48     libucrt:exit.obj
 0002:00007a50       __ehfuncinfo$?common_exit@@YAXHW4_crt_exit_cleanup_mode@@W4_crt_exit_return_mode@@@Z 10027a50     libucrt:exit.obj
 0002:00007a78       __sehtable$??R<lambda_6e4b09c48022b2350581041d5f6b0c4c>@@QBE@XZ 10027a78     libucrt:exit.obj
 0002:00007a98       __sehtable$??$?RV<lambda_03b1d95aef87969028cfba75ccab2455>@@AAV<lambda_6e4b09c48022b2350581041d5f6b0c4c>@@V<lambda_22bdf7517842c4b3e53723af5aa32b9e>@@@?$__crt_seh_guarded_call@X@@QAEX$$QAV<lambda_03b1d95aef87969028cfba75ccab2455>@@AAV<lambda_6e4b09c48022b2350581041d5f6b0c4c>@@$$QAV<lambda_22bdf7517842c4b3e53723af5aa32b9e>@@@Z 10027a98     libucrt:exit.obj
 0002:00007ab4       __unwindtable$___dcrt_uninitialize_environments_nolock 10027ab4     libucrt:environment_initialization.obj
 0002:00007ac4       __ehfuncinfo$___dcrt_uninitialize_environments_nolock 10027ac4     libucrt:environment_initialization.obj
 0002:00007ae8       __unwindtable$__execute_onexit_table 10027ae8     libucrt:onexit.obj
 0002:00007af0       __ehfuncinfo$__execute_onexit_table 10027af0     libucrt:onexit.obj
 0002:00007b18       __sehtable$??$?RV<lambda_8e746cf0007f6ed984d6f78af1fec997>@@AAV<lambda_22ebabd17bc4fa466a2aca6d8deb888d>@@V<lambda_18ed0c0b38a6dc0daf1e7ac6d6adf05e>@@@?$__crt_seh_guarded_call@H@@QAEH$$QAV<lambda_8e746cf0007f6ed984d6f78af1fec997>@@AAV<lambda_22ebabd17bc4fa466a2aca6d8deb888d>@@$$QAV<lambda_18ed0c0b38a6dc0daf1e7ac6d6adf05e>@@@Z 10027b18     libucrt:onexit.obj
 0002:00007b38       __sehtable$??$?RV<lambda_69a2805e680e0e292e8ba93315fe43a8>@@AAV<lambda_f03950bc5685219e0bcd2087efbe011e>@@V<lambda_03fcd07e894ec930e3f35da366ca99d6>@@@?$__crt_seh_guarded_call@H@@QAEH$$QAV<lambda_69a2805e680e0e292e8ba93315fe43a8>@@AAV<lambda_f03950bc5685219e0bcd2087efbe011e>@@$$QAV<lambda_03fcd07e894ec930e3f35da366ca99d6>@@@Z 10027b38     libucrt:onexit.obj
 0002:00007b58       __sehtable$__query_new_handler 10027b58     libucrt:new_handler.obj
 0002:00007b78       __sehtable$_terminate      10027b78     libucrt:terminate.obj
 0002:00007b98       __sehtable$??$?RV<lambda_15ade71b0218206bbe3333a0c9b79046>@@AAV<lambda_da44e0f8b0f19ba52fefafb335991732>@@V<lambda_207f2d024fc103971653565357d6cd41>@@@?$__crt_seh_guarded_call@X@@QAEX$$QAV<lambda_15ade71b0218206bbe3333a0c9b79046>@@AAV<lambda_da44e0f8b0f19ba52fefafb335991732>@@$$QAV<lambda_207f2d024fc103971653565357d6cd41>@@@Z 10027b98     libucrt:per_thread_data.obj
 0002:00007bb8       __sehtable$??$?RV<lambda_a7e850c220f1c8d1e6efeecdedd162c6>@@AAV<lambda_46720907175c18b6c9d2717bc0d2d362>@@V<lambda_9048902d66e8d99359bc9897bbb930a8>@@@?$__crt_seh_guarded_call@X@@QAEX$$QAV<lambda_a7e850c220f1c8d1e6efeecdedd162c6>@@AAV<lambda_46720907175c18b6c9d2717bc0d2d362>@@$$QAV<lambda_9048902d66e8d99359bc9897bbb930a8>@@@Z 10027bb8     libucrt:per_thread_data.obj
 0002:00007bd8       __sehtable$??$?RV<lambda_38edbb1296d33220d7e4dd0ed76b244a>@@AAV<lambda_5ce1d447e08cb34b2473517608e21441>@@V<lambda_fb385d3da700c9147fc39e65dd577a8c>@@@?$__crt_seh_guarded_call@X@@QAEX$$QAV<lambda_38edbb1296d33220d7e4dd0ed76b244a>@@AAV<lambda_5ce1d447e08cb34b2473517608e21441>@@$$QAV<lambda_fb385d3da700c9147fc39e65dd577a8c>@@@Z 10027bd8     libucrt:per_thread_data.obj
 0002:00007bf8       __sehtable$??$?RV<lambda_6affb1475c98b40b75cdec977db92e3c>@@AAV<lambda_b8d4b9c228a6ecc3f80208dbb4b4a104>@@V<lambda_608742c3c92a14382c1684fc64f96c88>@@@?$__crt_seh_guarded_call@X@@QAEX$$QAV<lambda_6affb1475c98b40b75cdec977db92e3c>@@AAV<lambda_b8d4b9c228a6ecc3f80208dbb4b4a104>@@$$QAV<lambda_608742c3c92a14382c1684fc64f96c88>@@@Z 10027bf8     libucrt:per_thread_data.obj
 0002:00007c18       __sehtable$??$?RV<lambda_e5124f882df8998aaf41531e079ba474>@@AAV<lambda_3e16ef9562a7dcce91392c22ab16ea36>@@V<lambda_e25ca0880e6ef98be67edffd8c599615>@@@?$__crt_seh_guarded_call@X@@QAEX$$QAV<lambda_e5124f882df8998aaf41531e079ba474>@@AAV<lambda_3e16ef9562a7dcce91392c22ab16ea36>@@$$QAV<lambda_e25ca0880e6ef98be67edffd8c599615>@@@Z 10027c18     libucrt:wsetlocale.obj
 0002:00007c38       __sehtable$___acrt_initialize_lowio 10027c38     libucrt:ioinit.obj
 0002:00007c58       __sehtable$?update_thread_multibyte_data_internal@@YAPAU__crt_multibyte_data@@QAU__acrt_ptd@@QAPAU1@@Z 10027c58     libucrt:mbctype.obj
 0002:00007c78       __sehtable$??$?RV<lambda_ceb1ee4838e85a9d631eb091e2fbe199>@@AAV<lambda_ae742caa10f662c28703da3d2ea5e57e>@@V<lambda_cd08b5d6af4937fe54fc07d0c9bf6b37>@@@?$__crt_seh_guarded_call@X@@QAEX$$QAV<lambda_ceb1ee4838e85a9d631eb091e2fbe199>@@AAV<lambda_ae742caa10f662c28703da3d2ea5e57e>@@$$QAV<lambda_cd08b5d6af4937fe54fc07d0c9bf6b37>@@@Z 10027c78     libucrt:mbctype.obj
 0002:00007c98       __sehtable$_raise          10027c98     libucrt:signal.obj
 0002:00007cb8       __sehtable$??$?RV<lambda_cbab9ec6f41b0180b23cc171c22676b0>@@AAV<lambda_44731a7d0e6d81c3e6aa82d741081786>@@V<lambda_4b292cb8dd18144e164572427af410ab>@@@?$__crt_seh_guarded_call@P6AXH@Z@@QAEP6AXH@Z$$QAV<lambda_cbab9ec6f41b0180b23cc171c22676b0>@@AAV<lambda_44731a7d0e6d81c3e6aa82d741081786>@@$$QAV<lambda_4b292cb8dd18144e164572427af410ab>@@@Z 10027cb8     libucrt:signal.obj
 0002:00007cd8       __sehtable$??$?RV<lambda_2866be3712abc81a800a822484c830d8>@@AAV<lambda_39ca0ed439415581b5b15c265174cece>@@V<lambda_2b24c74d71094a6cd0cb82e44167d71b>@@@?$__crt_seh_guarded_call@X@@QAEX$$QAV<lambda_2866be3712abc81a800a822484c830d8>@@AAV<lambda_39ca0ed439415581b5b15c265174cece>@@$$QAV<lambda_2b24c74d71094a6cd0cb82e44167d71b>@@@Z 10027cd8     libucrt:fflush.obj
 0002:00007cf8       __sehtable$??$?RV<lambda_2cc53f568c5a2bb6f192f930a45d44ea>@@AAV<lambda_ab61a845afdef5b7c387490eaf3616ee>@@V<lambda_c2ffc0b7726aa6be21d5f0026187e748>@@@?$__crt_seh_guarded_call@X@@QAEX$$QAV<lambda_2cc53f568c5a2bb6f192f930a45d44ea>@@AAV<lambda_ab61a845afdef5b7c387490eaf3616ee>@@$$QAV<lambda_c2ffc0b7726aa6be21d5f0026187e748>@@@Z 10027cf8     libucrt:fflush.obj
 0002:00007d18       __sehtable$___acrt_update_thread_locale_data 10027d18     libucrt:locale_refcounting.obj
 0002:00007d38       __sehtable$__fcloseall     10027d38     libucrt:closeall.obj
 0002:00007d58       __sehtable$___acrt_lowio_ensure_fh_exists 10027d58     libucrt:osfinfo.obj
 0002:00007d78       __sehtable$??$?RV<lambda_9e9de3de5fa147e2223d7db92bc10aa6>@@AAV<lambda_38ce7e780aa69e748d6df282ebc68efe>@@V<lambda_8ca6da459f0f6780f1cff60fdc3d00e5>@@@?$__crt_seh_guarded_call@H@@QAEH$$QAV<lambda_9e9de3de5fa147e2223d7db92bc10aa6>@@AAV<lambda_38ce7e780aa69e748d6df282ebc68efe>@@$$QAV<lambda_8ca6da459f0f6780f1cff60fdc3d00e5>@@@Z 10027d78     libucrt:commit.obj
 0002:00007d98       __sehtable$__write_internal 10027d98     libucrt:write.obj
 0002:00007db8       __sehtable$?_fclose_internal@@YAHQAU_iobuf@@AAV__crt_cached_ptd_host@@@Z 10027db8     libucrt:fclose.obj
 0002:00007dd8       __sehtable$??$?RV<lambda_d422a76eb4c3bf3ad751449ab71a6ea4>@@AAV<lambda_c9ba49e555ba839a7b07aa3fbecb7617>@@V<lambda_9476263c8ee91a25d21c55370bdb50de>@@@?$__crt_seh_guarded_call@H@@QAEH$$QAV<lambda_d422a76eb4c3bf3ad751449ab71a6ea4>@@AAV<lambda_c9ba49e555ba839a7b07aa3fbecb7617>@@$$QAV<lambda_9476263c8ee91a25d21c55370bdb50de>@@@Z 10027dd8     libucrt:close.obj
 0002:00007df8       __sehtable$___set_fpsr_sse2 10027df8     libucrt:fpctrl.obj
 0002:00007e18       __sehtable$__IsNonwritableInCurrentImage 10027e18     LIBCMT:pesect.obj
 0002:00007e40       .edata                     10027e40     OPOSDeviceMonitor.exp
 0002:00007e68       rgpv                       10027e68     OPOSDeviceMonitor.exp
 0002:00007e78       rgszName                   10027e78     OPOSDeviceMonitor.exp
 0002:00007e88       rgwOrd                     10027e88     OPOSDeviceMonitor.exp
 0002:00007e90       szName                     10027e90     OPOSDeviceMonitor.exp
 0002:00007ea6       $N00001                    10027ea6     OPOSDeviceMonitor.exp
 0002:00007eb6       $N00002                    10027eb6     OPOSDeviceMonitor.exp
 0002:00007ec8       $N00003                    10027ec8     OPOSDeviceMonitor.exp
 0002:00007eda       $N00004                    10027eda     OPOSDeviceMonitor.exp
 0002:000084ea       .idata$6                   100284ea     kernel32:KERNEL32.dll
 0002:000086fe       .idata$6                   100286fe     user32:USER32.dll
 0002:00008832       .idata$6                   10028832     gdi32:GDI32.dll
 0002:000088d8       .idata$6                   100288d8     advapi32:ADVAPI32.dll
 0002:000089f4       .idata$6                   100289f4     ole32:ole32.dll
 0002:000089fe       .idata$6                   100289fe     oleaut32:OLEAUT32.dll
 0003:00000110       ?ObjectMap@@3PAU_ATL_OBJMAP_ENTRY30@ATL@@A 10029110     DeviceMonitor.obj
 0003:000001bc       ?s_RequiredMethodsPerRelease@@3PAHA 100291bc     DeviceMonitorImpl.obj
 0003:000001c0       ?s_SOMethodNames@@3PAPADA  100291c0     DeviceMonitorImpl.obj
 0003:00000240       ?__vcrt_flsindex@@3KA      10029240     libvcruntime:per_thread_data.obj
 0003:00000260       ?errno_no_memory@@3HA      10029260     libucrt:errno.obj
 0003:00000264       ?doserrno_no_memory@@3KA   10029264     libucrt:errno.obj
 0003:00000270       ?__acrt_flsindex@@3KA      10029270     libucrt:per_thread_data.obj
 0003:00000608       __mbctypes                 10029608     libucrt:mbctype.obj
 0003:00000710       __mbcasemaps               10029710     libucrt:mbctype.obj
 0003:00000810       ?__rgctypeflag@@3PADA      10029810     libucrt:mbctype.obj
 0003:00000818       ?__rgcode_page_info@@3PAUcode_page_info@@A 10029818     libucrt:mbctype.obj
 0003:00000a70       ?__dcrt_lowio_console_output_handle@@3PAXA 10029a70     libucrt:initcon.obj
 0003:00000a74       ?__DAZ_ENABLED@?1??__set_fpsr_sse2@@9@9 10029a74     libucrt:fpctrl.obj
 0003:00000c08       ?is_initialized_as_dll@@3_NA 10029c08     LIBCMT:utility.obj
 0003:00000c09       ?module_local_atexit_table_initialized@@3_NA 10029c09     LIBCMT:utility.obj
 0003:00000c0c       ?module_local_atexit_table@@3U_onexit_table_t@@A 10029c0c     LIBCMT:utility.obj
 0003:00000c18       ?module_local_at_quick_exit_table@@3U_onexit_table_t@@A 10029c18     LIBCMT:utility.obj
 0003:00000c24       ?g_tss_cv@@3U_RTL_CONDITION_VARIABLE@@A 10029c24     LIBCMT:thread_safe_statics.obj
 0003:00000c28       ?g_tss_event@@3PAXA        10029c28     LIBCMT:thread_safe_statics.obj
 0003:00000c2c       ?g_tss_mutex@@3U_RTL_CRITICAL_SECTION@@A 10029c2c     LIBCMT:thread_safe_statics.obj
 0003:00000c44       ?g_sleep_condition_variable_cs@@3P6GHPAU_RTL_CONDITION_VARIABLE@@PAU_RTL_CRITICAL_SECTION@@K@ZA 10029c44     LIBCMT:thread_safe_statics.obj
 0003:00000c48       ?g_wake_all_condition_variable@@3P6GXPAU_RTL_CONDITION_VARIABLE@@@ZA 10029c48     LIBCMT:thread_safe_statics.obj
 0003:00000c50       _GS_ExceptionRecord        10029c50     LIBCMT:gs_report.obj
 0003:00000ca0       _GS_ContextRecord          10029ca0     LIBCMT:gs_report.obj
 0003:00000f70       ?__proc_attached@@3HA      10029f70     LIBCMT:dll_dllmain.obj
 0003:00000fcc       ?AllocateData@@3P6GPAUAtlThunkData_t@@XZA 10029fcc     atls:atlthunk.obj
 0003:00000fd0       ?InitData@@3P6GXPAUAtlThunkData_t@@PAXI@ZA 10029fd0     atls:atlthunk.obj
 0003:00000fd4       ?DataToCode@@3P6GP6GJPAUHWND__@@IIJ@ZPAUAtlThunkData_t@@@ZA 10029fd4     atls:atlthunk.obj
 0003:00000fd8       ?FreeData@@3P6GXPAUAtlThunkData_t@@@ZA 10029fd8     atls:atlthunk.obj
 0003:00000fdc       ?Initialized@@3_NA         10029fdc     atls:atlthunk.obj
 0003:00000fec       ?__vcrt_startup_thread_ptd@@3U__vcrt_ptd@@A 10029fec     libvcruntime:per_thread_data.obj
 0003:00001014       ___vcrt_lock_table         1002a014     libvcruntime:locks.obj
 0003:0000102c       ___vcrt_locks_initialized  1002a02c     libvcruntime:locks.obj
 0003:00001058       ?heap@@3V_HeapManager@@A   1002a058     libvcruntime:undname.obj
 0003:0000106c       ?module_handles@@3PAPAUHINSTANCE__@@A 1002a06c     libvcruntime:winapi_downlevel.obj
 0003:00001078       ?function_pointers@@3PAPAXA 1002a078     libvcruntime:winapi_downlevel.obj
 0003:0000108c       ?__acrt_invalid_parameter_handler@@3V?$dual_state_global@P6AXPB_W00II@Z@__crt_state_management@@A 1002a08c     libucrt:invalid_parameter.obj
 0003:00001090       ?c_termination_complete@@3JA 1002a090     libucrt:exit.obj
 0003:00001094       ?thread_local_exit_callback_func@@3P6GXPAXK0@ZA 1002a094     libucrt:exit.obj
 0003:000010a0       ?program_name@?1???$common_configure_argv@D@@YAHW4_crt_argv_mode@@@Z@4PADA 1002a0a0     libucrt:argv_parsing.obj
 0003:000011d0       ?__acrt_new_handler@@3V?$dual_state_global@P6AHI@Z@__crt_state_management@@A 1002a1d0     libucrt:new_handler.obj
 0003:000011e0       ?module_handles@@3PAPAUHINSTANCE__@@A 1002a1e0     libucrt:winapi_thunks.obj
 0003:00001230       ?encoded_function_pointers@@3PAPAXA 1002a230     libucrt:winapi_thunks.obj
 0003:000012b8       ?internal_state@?1??_mbtowc_internal@@9@4U_Mbstatet@@A 1002a2b8     libucrt:mbtowc.obj
 0003:000012c8       ?enable_percent_n@@3IA     1002a2c8     libucrt:printf_count_output.obj
 0003:000014e0       ?__acrt_lock_table@@3PAU_RTL_CRITICAL_SECTION@@A 1002a4e0     libucrt:locks.obj
 0003:00001630       ?__acrt_locks_initialized@@3IA 1002a630     libucrt:locks.obj
 0003:00001640       ?fSystemSet@@3HA           1002a640     libucrt:mbctype.obj
 0003:00001644       ?initialized@?1??__acrt_initialize_multibyte@@9@4_NA 1002a644     libucrt:mbctype.obj
 0003:00001664       ?ctrlc_action@@3V?$dual_state_global@P6AXH@Z@__crt_state_management@@A 1002a664     libucrt:signal.obj
 0003:00001668       ?ctrlbreak_action@@3V?$dual_state_global@P6AXH@Z@__crt_state_management@@A 1002a668     libucrt:signal.obj
 0003:0000166c       ?abort_action@@3V?$dual_state_global@P6AXH@Z@__crt_state_management@@A 1002a66c     libucrt:signal.obj
 0003:00001670       ?term_action@@3V?$dual_state_global@P6AXH@Z@__crt_state_management@@A 1002a670     libucrt:signal.obj
 0003:00001674       ?user_matherr@@3V?$dual_state_global@P6AHPAU_exception@@@Z@__crt_state_management@@A 1002a674     libucrt:matherr.obj
 0003:00001680       ?__acrt_global_new_mode@@3V?$dual_state_global@J@__crt_state_management@@A 1002a680     libucrt:new_mode.obj
 0003:00001684       ?internal_pst@?1??__mbrtoc32_utf8@__crt_mbstring@@YAIPA_UPBDIPAU_Mbstatet@@AAV__crt_cached_ptd_host@@@Z@4U3@A 1002a684     libucrt:mbrtoc32.obj
 0003:0000168c       ?__acrt_app_type@@3W4_crt_app_type@@A 1002a68c     libucrt:report_runtime_error.obj
 0003:00001694       __pmatherr_set             1002a694     libucrt:libm_error.obj
 0004:00000220       $R000000                   1002b220     DeviceMonitor.res
 0004:00000b68       $R000948                   1002bb68     DeviceMonitor.res
 0004:00000c50       $R000A30                   1002bc50     DeviceMonitor.res
 0004:00000eb8       $R000C98                   1002beb8     DeviceMonitor.res
 0004:00001390       $R001170                   1002c390     DeviceMonitor.res
 0004:00003ba8       $R003988                   1002eba8     DeviceMonitor.res
 0004:00003be8       $R0039C8                   1002ebe8     DeviceMonitor.res
