 OPOSBillAcceptor

 Timestamp is 600f770c (Tue Jan 26 10:57:32 2021)

 Preferred load address is 10000000

 Start         Length     Name                   Class
 0001:00000000 00000080H .text$di                CODE
 0001:00000080 0001e2b3H .text$mn                CODE
 0001:0001e333 0000003aH .text$x                 CODE
 0001:0001e36d 00000042H .text$yd                CODE
 0002:00000000 000002fcH .idata$5                DATA
 0002:000002fc 00000004H .00cfg                  DATA
 0002:00000300 00000004H .CRT$XCA                DATA
 0002:00000304 00000004H .CRT$XCL                DATA
 0002:00000308 00000010H .CRT$XCU                DATA
 0002:00000318 00000004H .CRT$XCZ                DATA
 0002:0000031c 00000004H .CRT$XIA                DATA
 0002:00000320 00000010H .CRT$XIC                DATA
 0002:00000330 00000004H .CRT$XIZ                DATA
 0002:00000334 00000004H .CRT$XLA                DATA
 0002:00000338 00000004H .CRT$XLZ                DATA
 0002:0000033c 00000004H .CRT$XPA                DATA
 0002:00000340 00000008H .CRT$XPX                DATA
 0002:00000348 00000004H .CRT$XPXA               DATA
 0002:0000034c 00000004H .CRT$XPZ                DATA
 0002:00000350 00000004H .CRT$XTA                DATA
 0002:00000354 0000000cH .CRT$XTZ                DATA
 0002:00000358 00000000H .gfids$y                DATA
 0002:00000360 000072e0H .rdata                  DATA
 0002:00007640 00000000H .rdata$CastGuardVftablesA DATA
 0002:00007640 00000000H .rdata$CastGuardVftablesC DATA
 0002:00007640 00000018H .rdata$T                DATA
 0002:00007658 00000178H .rdata$r                DATA
 0002:000077d0 0000001cH .rdata$sxdata           DATA
 0002:000077ec 000003e0H .rdata$zzzdbg           DATA
 0002:00007bcc 00000004H .rtc$IAA                DATA
 0002:00007bd0 00000004H .rtc$IZZ                DATA
 0002:00007bd4 00000004H .rtc$TAA                DATA
 0002:00007bd8 00000004H .rtc$TZZ                DATA
 0002:00007bdc 00000004H .tls                    DATA
 0002:00007be0 00000004H .tls$                   DATA
 0002:00007be4 00000004H .tls$ZZZ                DATA
 0002:00007be8 0000062cH .xdata$x                DATA
 0002:00008214 00000004H ATL$__a                 DATA
 0002:00008218 00000008H ATL$__z                 DATA
 0002:00008220 000000b0H .edata                  DATA
 0002:000082d0 00000078H .idata$2                DATA
 0002:00008348 00000014H .idata$3                DATA
 0002:0000835c 000002fcH .idata$4                DATA
 0002:00008658 00000bceH .idata$6                DATA
 0003:00000000 00000aa0H .data                   DATA
 0003:00000aa0 00000098H .data$r                 DATA
 0003:00000b38 00000b88H .bss                    DATA
 0004:00000000 00000220H .rsrc$01                DATA
 0004:00000220 00004100H .rsrc$02                DATA

  Address         Publics by Value              Rva+Base       Lib:Object

 0000:00000000       ___guard_iat_table         00000000     <absolute>
 0000:00000000       ___arm64x_native_entrypoint 00000000     <absolute>
 0000:00000000       ___guard_longjmp_table     00000000     <absolute>
 0000:00000000       ___guard_eh_cont_table     00000000     <absolute>
 0000:00000000       ___volatile_metadata       00000000     <absolute>
 0000:00000000       ___arm64x_extra_rfe_table  00000000     <absolute>
 0000:00000000       ___arm64x_redirection_metadata 00000000     <absolute>
 0000:00000000       ___guard_eh_cont_count     00000000     <absolute>
 0000:00000000       ___guard_iat_count         00000000     <absolute>
 0000:00000000       __except_list              00000000     <absolute>
 0000:00000000       ___x64_code_ranges_to_entry_points_count 00000000     <absolute>
 0000:00000000       ___hybrid_code_map_count   00000000     <absolute>
 0000:00000000       ___x64_code_ranges_to_entry_points 00000000     <absolute>
 0000:00000000       ___guard_fids_count        00000000     <absolute>
 0000:00000000       ___hybrid_code_map         00000000     <absolute>
 0000:00000000       ___arm64x_extra_rfe_table_size 00000000     <absolute>
 0000:00000000       ___guard_longjmp_count     00000000     <absolute>
 0000:00000000       ___arm64x_redirection_metadata_count 00000000     <absolute>
 0000:00000000       ___hybrid_auxiliary_iat    00000000     <absolute>
 0000:00000000       ___dynamic_value_reloc_table 00000000     <absolute>
 0000:00000000       ___AbsoluteZero            00000000     <absolute>
 0000:00000000       ___enclave_config          00000000     <absolute>
 0000:00000000       ___guard_fids_table        00000000     <absolute>
 0000:00000007       ___safe_se_handler_count   00000007     <absolute>
 0000:0000002c       __tls_array                0000002c     <absolute>
 0000:00000100       ___guard_flags             00000100     <absolute>
 0000:00000000       ___ImageBase               10000000     <linker-defined>
 0001:00000080       ?DupWide@_CW@@AAEXXZ       10001080 f   CWString.obj
 0001:0000009c       ?cw_dup@@YGXPBDAAHAAPA_W1@Z 1000109c f   CWString.obj
 0001:00000124       ?cw_memcpy@@YGHPA_WPBDH@Z  10001124 f   CWString.obj
 0001:00000150       ?cw_strcpy@@YAHPA_WPBD@Z   10001150 f   CWString.obj
 0001:00000163       ?cw_strlen@@YAHPBD@Z       10001163 f   CWString.obj
 0001:0000017c       ??0CAtlComModule@ATL@@QAE@XZ 1000117c f i OposVariant.obj
 0001:000001c1       ??0CAtlWinModule@ATL@@QAE@XZ 100011c1 f i OposVariant.obj
 0001:000001f8       ??0OposDispParms@@QAE@PAVOposVariant@@H@Z 100011f8 f   OposVariant.obj
 0001:00000269       ??1OposDispParms@@QAE@XZ   10001269 f   OposVariant.obj
 0001:00000277       ??A?$CSimpleArray@GV?$CSimpleArrayEqualHelper@G@ATL@@@ATL@@QAEAAGH@Z 10001277 f i OposVariant.obj
 0001:0000029c       ??_Estringdispid@CComTypeInfoHolder@ATL@@QAEPAXI@Z 1000129c f i OposVariant.obj
 0001:00000308       ?AtlWinModuleInit@ATL@@YGJPAU_ATL_WIN_MODULE70@1@@Z 10001308 f i OposVariant.obj
 0001:0000032e       ?AtlWinModuleTerm@ATL@@YGJPAU_ATL_WIN_MODULE70@1@PAUHINSTANCE__@@@Z 1000132e f i OposVariant.obj
 0001:00000391       ?ChangeBSTR@OposVariant@@QAEXPAPA_WAAJ@Z 10001391 f   OposVariant.obj
 0001:000003d2       ?ChangeLONG@OposVariant@@QAEXPAJAAJ@Z 100013d2 f   OposVariant.obj
 0001:00000413       ?GetLONG@OposVariant@@QAEJXZ 10001413 f   OposVariant.obj
 0001:0000042e       ?Init@CComCriticalSection@ATL@@QAEJXZ 1000142e f i OposVariant.obj
 0001:00000456       ?RemoveAll@?$CSimpleArray@PAUHINSTANCE__@@V?$CSimpleArrayEqualHelper@PAUHINSTANCE__@@@ATL@@@ATL@@QAEXXZ 10001456 f i atls:atlbase.obj
 0001:00000456       ?RemoveAll@?$CSimpleArray@GV?$CSimpleArrayEqualHelper@G@ATL@@@ATL@@QAEXXZ 10001456 f i OposVariant.obj
 0001:00000473       ?SetBSTR@OposVariant@@QAEXPA_WAAJ@Z 10001473 f   OposVariant.obj
 0001:000004a7       ?SetBSTR_Copy@OposVariant@@QAEXPA_WAAJ@Z 100014a7 f   OposVariant.obj
 0001:000004f7       ?SetBSTR_InOutPtr@OposVariant@@QAE_NPAPA_WAAJ@Z 100014f7 f   OposVariant.obj
 0001:0000052e       ?SetBSTR_OutPtr@OposVariant@@QAE_NPAPA_WAAJ@Z 1000152e f   OposVariant.obj
 0001:0000054a       ?SetDispatch_Ptr@OposVariant@@QAEXPAUIDispatch@@AAJ@Z 1000154a f   OposVariant.obj
 0001:00000585       ?SetLONG@OposVariant@@QAEXJ@Z 10001585 f   OposVariant.obj
 0001:000005a7       ?SetLONG_Ptr@OposVariant@@QAEXPAJAAJ@Z 100015a7 f   OposVariant.obj
 0001:000005da       ?SetString@OposVariant@@QAEXPB_WAAJ@Z 100015da f   OposVariant.obj
 0001:00000620       ?SetVARIANT_BOOL@OposVariant@@QAEXF@Z 10001620 f   OposVariant.obj
 0001:0000064a       ?SetVARIANT_BOOL_Ptr@OposVariant@@QAEXPAFAAJ@Z 1000164a f   OposVariant.obj
 0001:0000067d       ?Term@CAtlComModule@ATL@@QAEXXZ 1000167d f i OposVariant.obj
 0001:000006c7       ?_AtlRaiseException@ATL@@YAXKK@Z 100016c7 f i OposVariant.obj
 0001:000006dc       ?AddRef@?$CComObject@VCOPOSBillAcceptor@@@ATL@@WII@AGKXZ 100016dc f i BillAcceptor.obj
 0001:000006e9       ?Release@?$CComObject@VCOPOSBillAcceptor@@@ATL@@WII@AGKXZ 100016e9 f i BillAcceptor.obj
 0001:000006f6       ?QueryInterface@?$CComObject@VCOPOSBillAcceptor@@@ATL@@WIM@AGJABU_GUID@@PAPAX@Z 100016f6 f i BillAcceptor.obj
 0001:00000703       ?AddRef@?$CComObject@VCOPOSBillAcceptor@@@ATL@@WIM@AGKXZ 10001703 f i BillAcceptor.obj
 0001:00000710       ?Release@?$CComObject@VCOPOSBillAcceptor@@@ATL@@WIM@AGKXZ 10001710 f i BillAcceptor.obj
 0001:0000071d       ?QueryInterface@?$CComObject@VCOPOSBillAcceptor@@@ATL@@WJA@AGJABU_GUID@@PAPAX@Z 1000171d f i BillAcceptor.obj
 0001:0000072a       ?AddRef@?$CComObject@VCOPOSBillAcceptor@@@ATL@@WJA@AGKXZ 1000172a f i BillAcceptor.obj
 0001:00000737       ?Release@?$CComObject@VCOPOSBillAcceptor@@@ATL@@WJA@AGKXZ 10001737 f i BillAcceptor.obj
 0001:00000744       ?QueryInterface@?$CComObject@VCOPOSBillAcceptor@@@ATL@@WJE@AGJABU_GUID@@PAPAX@Z 10001744 f i BillAcceptor.obj
 0001:00000751       ?AddRef@?$CComObject@VCOPOSBillAcceptor@@@ATL@@WJE@AGKXZ 10001751 f i BillAcceptor.obj
 0001:0000075e       ?Release@?$CComObject@VCOPOSBillAcceptor@@@ATL@@WJE@AGKXZ 1000175e f i BillAcceptor.obj
 0001:0000076b       ?QueryInterface@?$CComObject@VCOPOSBillAcceptor@@@ATL@@WJI@AGJABU_GUID@@PAPAX@Z 1000176b f i BillAcceptor.obj
 0001:00000778       ?AddRef@?$CComObject@VCOPOSBillAcceptor@@@ATL@@WJI@AGKXZ 10001778 f i BillAcceptor.obj
 0001:00000785       ?Release@?$CComObject@VCOPOSBillAcceptor@@@ATL@@WJI@AGKXZ 10001785 f i BillAcceptor.obj
 0001:00000792       ?QueryInterface@?$CComObject@VCOPOSBillAcceptor@@@ATL@@WJM@AGJABU_GUID@@PAPAX@Z 10001792 f i BillAcceptor.obj
 0001:0000079f       ?AddRef@?$CComObject@VCOPOSBillAcceptor@@@ATL@@WJM@AGKXZ 1000179f f i BillAcceptor.obj
 0001:000007ac       ?Release@?$CComObject@VCOPOSBillAcceptor@@@ATL@@WJM@AGKXZ 100017ac f i BillAcceptor.obj
 0001:000007b9       ?QueryInterface@?$CComObject@VCOPOSBillAcceptor@@@ATL@@WKA@AGJABU_GUID@@PAPAX@Z 100017b9 f i BillAcceptor.obj
 0001:000007c6       ?AddRef@?$CComObject@VCOPOSBillAcceptor@@@ATL@@WKA@AGKXZ 100017c6 f i BillAcceptor.obj
 0001:000007d3       ?Release@?$CComObject@VCOPOSBillAcceptor@@@ATL@@WKA@AGKXZ 100017d3 f i BillAcceptor.obj
 0001:000007e0       ?AddRef@?$CComObject@VCOPOSBillAcceptor@@@ATL@@WKI@AGKXZ 100017e0 f i BillAcceptor.obj
 0001:000007ed       ?Release@?$CComObject@VCOPOSBillAcceptor@@@ATL@@WKI@AGKXZ 100017ed f i BillAcceptor.obj
 0001:000007fa       ?AddRef@?$CComObject@VCOPOSBillAcceptor@@@ATL@@WLE@AGKXZ 100017fa f i BillAcceptor.obj
 0001:00000807       ?Release@?$CComObject@VCOPOSBillAcceptor@@@ATL@@WLE@AGKXZ 10001807 f i BillAcceptor.obj
 0001:00000814       ??_E?$CComContainedObject@VCOPOSBillAcceptor@@@ATL@@W3AEPAXI@Z 10001814 f i BillAcceptor.obj
 0001:0000081c       ??_E?$CComContainedObject@VCOPOSBillAcceptor@@@ATL@@WEM@AEPAXI@Z 1000181c f i BillAcceptor.obj
 0001:00000824       ?QueryInterface@?$CComContainedObject@VCOPOSBillAcceptor@@@ATL@@WHA@AGJABU_GUID@@PAPAX@Z 10001824 f i BillAcceptor.obj
 0001:0000082e       ?AddRef@?$CComContainedObject@VCOPOSBillAcceptor@@@ATL@@WHA@AGKXZ 1000182e f i BillAcceptor.obj
 0001:00000838       ?Release@?$CComContainedObject@VCOPOSBillAcceptor@@@ATL@@WHA@AGKXZ 10001838 f i BillAcceptor.obj
 0001:00000842       ?QueryInterface@?$CComContainedObject@VCOPOSBillAcceptor@@@ATL@@WHE@AGJABU_GUID@@PAPAX@Z 10001842 f i BillAcceptor.obj
 0001:0000084c       ?AddRef@?$CComContainedObject@VCOPOSBillAcceptor@@@ATL@@WHE@AGKXZ 1000184c f i BillAcceptor.obj
 0001:00000856       ?Release@?$CComContainedObject@VCOPOSBillAcceptor@@@ATL@@WHE@AGKXZ 10001856 f i BillAcceptor.obj
 0001:00000860       ?QueryInterface@?$CComContainedObject@VCOPOSBillAcceptor@@@ATL@@WHI@AGJABU_GUID@@PAPAX@Z 10001860 f i BillAcceptor.obj
 0001:0000086a       ?AddRef@?$CComContainedObject@VCOPOSBillAcceptor@@@ATL@@WHI@AGKXZ 1000186a f i BillAcceptor.obj
 0001:00000874       ?Release@?$CComContainedObject@VCOPOSBillAcceptor@@@ATL@@WHI@AGKXZ 10001874 f i BillAcceptor.obj
 0001:0000087e       ?QueryInterface@?$CComContainedObject@VCOPOSBillAcceptor@@@ATL@@WHM@AGJABU_GUID@@PAPAX@Z 1000187e f i BillAcceptor.obj
 0001:00000888       ?AddRef@?$CComContainedObject@VCOPOSBillAcceptor@@@ATL@@WHM@AGKXZ 10001888 f i BillAcceptor.obj
 0001:00000892       ?Release@?$CComContainedObject@VCOPOSBillAcceptor@@@ATL@@WHM@AGKXZ 10001892 f i BillAcceptor.obj
 0001:0000089c       ?QueryInterface@?$CComContainedObject@VCOPOSBillAcceptor@@@ATL@@WIA@AGJABU_GUID@@PAPAX@Z 1000189c f i BillAcceptor.obj
 0001:000008a9       ?AddRef@?$CComContainedObject@VCOPOSBillAcceptor@@@ATL@@WIA@AGKXZ 100018a9 f i BillAcceptor.obj
 0001:000008b6       ?Release@?$CComContainedObject@VCOPOSBillAcceptor@@@ATL@@WIA@AGKXZ 100018b6 f i BillAcceptor.obj
 0001:000008c3       ?QueryInterface@?$CComContainedObject@VCOPOSBillAcceptor@@@ATL@@WIE@AGJABU_GUID@@PAPAX@Z 100018c3 f i BillAcceptor.obj
 0001:000008d0       ?AddRef@?$CComContainedObject@VCOPOSBillAcceptor@@@ATL@@WIE@AGKXZ 100018d0 f i BillAcceptor.obj
 0001:000008dd       ?Release@?$CComContainedObject@VCOPOSBillAcceptor@@@ATL@@WIE@AGKXZ 100018dd f i BillAcceptor.obj
 0001:000008ea       ?QueryInterface@?$CComContainedObject@VCOPOSBillAcceptor@@@ATL@@WII@AGJABU_GUID@@PAPAX@Z 100018ea f i BillAcceptor.obj
 0001:000008f7       ?AddRef@?$CComContainedObject@VCOPOSBillAcceptor@@@ATL@@WII@AGKXZ 100018f7 f i BillAcceptor.obj
 0001:00000904       ?Release@?$CComContainedObject@VCOPOSBillAcceptor@@@ATL@@WII@AGKXZ 10001904 f i BillAcceptor.obj
 0001:00000911       ?QueryInterface@?$CComContainedObject@VCOPOSBillAcceptor@@@ATL@@WIM@AGJABU_GUID@@PAPAX@Z 10001911 f i BillAcceptor.obj
 0001:0000091e       ?AddRef@?$CComContainedObject@VCOPOSBillAcceptor@@@ATL@@WIM@AGKXZ 1000191e f i BillAcceptor.obj
 0001:0000092b       ?Release@?$CComContainedObject@VCOPOSBillAcceptor@@@ATL@@WIM@AGKXZ 1000192b f i BillAcceptor.obj
 0001:00000938       ?QueryInterface@?$CComContainedObject@VCOPOSBillAcceptor@@@ATL@@WJA@AGJABU_GUID@@PAPAX@Z 10001938 f i BillAcceptor.obj
 0001:00000945       ?AddRef@?$CComContainedObject@VCOPOSBillAcceptor@@@ATL@@WJA@AGKXZ 10001945 f i BillAcceptor.obj
 0001:00000952       ?Release@?$CComContainedObject@VCOPOSBillAcceptor@@@ATL@@WJA@AGKXZ 10001952 f i BillAcceptor.obj
 0001:0000095f       ?QueryInterface@?$CComContainedObject@VCOPOSBillAcceptor@@@ATL@@WJE@AGJABU_GUID@@PAPAX@Z 1000195f f i BillAcceptor.obj
 0001:0000096c       ?AddRef@?$CComContainedObject@VCOPOSBillAcceptor@@@ATL@@WJE@AGKXZ 1000196c f i BillAcceptor.obj
 0001:00000979       ?Release@?$CComContainedObject@VCOPOSBillAcceptor@@@ATL@@WJE@AGKXZ 10001979 f i BillAcceptor.obj
 0001:00000986       ?QueryInterface@?$CComContainedObject@VCOPOSBillAcceptor@@@ATL@@WJI@AGJABU_GUID@@PAPAX@Z 10001986 f i BillAcceptor.obj
 0001:00000993       ?AddRef@?$CComContainedObject@VCOPOSBillAcceptor@@@ATL@@WJI@AGKXZ 10001993 f i BillAcceptor.obj
 0001:000009a0       ?Release@?$CComContainedObject@VCOPOSBillAcceptor@@@ATL@@WJI@AGKXZ 100019a0 f i BillAcceptor.obj
 0001:000009ad       ?QueryInterface@?$CComContainedObject@VCOPOSBillAcceptor@@@ATL@@WJM@AGJABU_GUID@@PAPAX@Z 100019ad f i BillAcceptor.obj
 0001:000009ba       ?AddRef@?$CComContainedObject@VCOPOSBillAcceptor@@@ATL@@WJM@AGKXZ 100019ba f i BillAcceptor.obj
 0001:000009c7       ?Release@?$CComContainedObject@VCOPOSBillAcceptor@@@ATL@@WJM@AGKXZ 100019c7 f i BillAcceptor.obj
 0001:000009d4       ?QueryInterface@?$CComContainedObject@VCOPOSBillAcceptor@@@ATL@@WKA@AGJABU_GUID@@PAPAX@Z 100019d4 f i BillAcceptor.obj
 0001:000009e1       ?AddRef@?$CComContainedObject@VCOPOSBillAcceptor@@@ATL@@WKA@AGKXZ 100019e1 f i BillAcceptor.obj
 0001:000009ee       ?Release@?$CComContainedObject@VCOPOSBillAcceptor@@@ATL@@WKA@AGKXZ 100019ee f i BillAcceptor.obj
 0001:000009fb       ?AddRef@?$CComContainedObject@VCOPOSBillAcceptor@@@ATL@@WKI@AGKXZ 100019fb f i BillAcceptor.obj
 0001:00000a08       ?Release@?$CComContainedObject@VCOPOSBillAcceptor@@@ATL@@WKI@AGKXZ 10001a08 f i BillAcceptor.obj
 0001:00000a15       ?AddRef@?$CComContainedObject@VCOPOSBillAcceptor@@@ATL@@WLE@AGKXZ 10001a15 f i BillAcceptor.obj
 0001:00000a22       ?Release@?$CComContainedObject@VCOPOSBillAcceptor@@@ATL@@WLE@AGKXZ 10001a22 f i BillAcceptor.obj
 0001:00000a2f       ?CreateInstance@CComClassFactory@ATL@@UAGJPAUIUnknown@@ABU_GUID@@PAPAX@Z 10001a2f f i BillAcceptor.obj
 0001:00000a6d       ?LockServer@CComClassFactory@ATL@@UAGJH@Z 10001a6d f i BillAcceptor.obj
 0001:00000a8c       ??_GCComClassFactory@ATL@@UAEPAXI@Z 10001a8c f i BillAcceptor.obj
 0001:00000a8c       ??_ECComClassFactory@ATL@@UAEPAXI@Z 10001a8c f i BillAcceptor.obj
 0001:00000ab7       ?GetWindowProc@?$CWindowImplBaseT@VCWindow@ATL@@V?$CWinTraits@$0FGAAAAAA@$0A@@2@@ATL@@UAEP6GJPAUHWND__@@IIJ@ZXZ 10001ab7 f i BillAcceptor.obj
 0001:00000abd       ?StartWindowProc@?$CWindowImplBaseT@VCWindow@ATL@@V?$CWinTraits@$0FGAAAAAA@$0A@@2@@ATL@@SGJPAUHWND__@@IIJ@Z 10001abd f i BillAcceptor.obj
 0001:00000b11       ?ObjectMain@CComObjectRootBase@ATL@@SGX_N@Z 10001b11 f i BillAcceptor.obj
 0001:00000b11       ?OnFinalMessage@?$CWindowImplBaseT@VCWindow@ATL@@V?$CWinTraits@$0FGAAAAAA@$0A@@2@@ATL@@UAEXPAUHWND__@@@Z 10001b11 f i BillAcceptor.obj
 0001:00000b14       ?GetTypeInfoCount@?$IDispatchImpl@UIOPOSBillAcceptor@@$1?IID_IOPOSBillAcceptor@@3U_GUID@@B$1?LIBID_OposBillAcceptor_CCO@@3U3@B$00$0A@VCComTypeInfoHolder@ATL@@@ATL@@UAGJPAI@Z 10001b14 f i BillAcceptor.obj
 0001:00000b31       ?GetTypeInfo@?$IDispatchImpl@UIOPOSBillAcceptor@@$1?IID_IOPOSBillAcceptor@@3U_GUID@@B$1?LIBID_OposBillAcceptor_CCO@@3U3@B$00$0A@VCComTypeInfoHolder@ATL@@@ATL@@UAGJIKPAPAUITypeInfo@@@Z 10001b31 f i BillAcceptor.obj
 0001:00000b55       ?GetIDsOfNames@?$IDispatchImpl@UIOPOSBillAcceptor@@$1?IID_IOPOSBillAcceptor@@3U_GUID@@B$1?LIBID_OposBillAcceptor_CCO@@3U3@B$00$0A@VCComTypeInfoHolder@ATL@@@ATL@@UAGJABU_GUID@@PAPA_WIKPAJ@Z 10001b55 f i BillAcceptor.obj
 0001:00000b75       ?Invoke@?$IDispatchImpl@UIOPOSBillAcceptor@@$1?IID_IOPOSBillAcceptor@@3U_GUID@@B$1?LIBID_OposBillAcceptor_CCO@@3U3@B$00$0A@VCComTypeInfoHolder@ATL@@@ATL@@UAGJJABU_GUID@@KGPAUtagDISPPARAMS@@PAUtagVARIANT@@PAUtagEXCEPINFO@@PAI@Z 10001b75 f i BillAcceptor.obj
 0001:00000b83       ?CreateControlWindow@?$CComControl@VCOPOSBillAcceptor@@V?$CWindowImpl@VCOPOSBillAcceptor@@VCWindow@ATL@@V?$CWinTraits@$0FGAAAAAA@$0A@@3@@ATL@@@ATL@@UAEPAUHWND__@@PAU3@AAUtagRECT@@@Z 10001b83 f i BillAcceptor.obj
 0001:00000bb2       ?ControlQueryInterface@?$CComControl@VCOPOSBillAcceptor@@V?$CWindowImpl@VCOPOSBillAcceptor@@VCWindow@ATL@@V?$CWinTraits@$0FGAAAAAA@$0A@@3@@ATL@@@ATL@@UAEJABU_GUID@@PAPAX@Z 10001bb2 f i BillAcceptor.obj
 0001:00000bcd       ?GetClassID@?$IPersistStreamInitImpl@VCOPOSBillAcceptor@@@ATL@@UAGJPAU_GUID@@@Z 10001bcd f i BillAcceptor.obj
 0001:00000bcd       ?GetUserClassID@?$IOleObjectImpl@VCOPOSBillAcceptor@@@ATL@@UAGJPAU_GUID@@@Z 10001bcd f i BillAcceptor.obj
 0001:00000bcd       ?GetClassID@?$IPersistStorageImpl@VCOPOSBillAcceptor@@@ATL@@UAGJPAU_GUID@@@Z 10001bcd f i BillAcceptor.obj
 0001:00000bf1       ?IsDirty@?$IPersistStreamInitImpl@VCOPOSBillAcceptor@@@ATL@@UAGJXZ 10001bf1 f i BillAcceptor.obj
 0001:00000c10       ?Load@?$IPersistStreamInitImpl@VCOPOSBillAcceptor@@@ATL@@UAGJPAUIStream@@@Z 10001c10 f i BillAcceptor.obj
 0001:00000c2f       ?Save@?$IPersistStreamInitImpl@VCOPOSBillAcceptor@@@ATL@@UAGJPAUIStream@@H@Z 10001c2f f i BillAcceptor.obj
 0001:00000c51       ?GetSizeMax@?$IPersistStreamInitImpl@VCOPOSBillAcceptor@@@ATL@@UAGJPAT_ULARGE_INTEGER@@@Z 10001c51 f i BillAcceptor.obj
 0001:00000e30       ?InitNew@?$IPersistStreamInitImpl@VCOPOSBillAcceptor@@@ATL@@UAGJXZ 10001e30 f i BillAcceptor.obj
 0001:00000e4d       ?GetControlInfo@?$IOleControlImpl@VCOPOSBillAcceptor@@@ATL@@UAGJPAUtagCONTROLINFO@@@Z 10001e4d f i BillAcceptor.obj
 0001:00000e4d       ?ContextSensitiveHelp@?$IOleInPlaceObjectWindowlessImpl@VCOPOSBillAcceptor@@@ATL@@UAGJH@Z 10001e4d f i BillAcceptor.obj
 0001:00000e4d       ?SetColorScheme@?$IOleObjectImpl@VCOPOSBillAcceptor@@@ATL@@UAGJPAUtagLOGPALETTE@@@Z 10001e4d f i BillAcceptor.obj
 0001:00000e4d       ?Unfreeze@?$IViewObjectExImpl@VCOPOSBillAcceptor@@@ATL@@UAGJK@Z 10001e4d f i BillAcceptor.obj
 0001:00000e4d       ?GetDropTarget@?$IOleInPlaceObjectWindowlessImpl@VCOPOSBillAcceptor@@@ATL@@UAGJPAPAUIDropTarget@@@Z 10001e4d f i BillAcceptor.obj
 0001:00000e4d       ?ContextSensitiveHelp@?$IOleInPlaceActiveObjectImpl@VCOPOSBillAcceptor@@@ATL@@UAGJH@Z 10001e4d f i BillAcceptor.obj
 0001:00000e4d       ?OnMnemonic@?$IOleControlImpl@VCOPOSBillAcceptor@@@ATL@@UAGJPAUtagMSG@@@Z 10001e4d f i BillAcceptor.obj
 0001:00000e4d       ?SOOutputCompleteDummy@COPOSBillAcceptor@@MAGJJ@Z 10001e4d f i BillAcceptor.obj
 0001:00000e4d       ?QueryGetData@?$IDataObjectImpl@VCOPOSBillAcceptor@@@ATL@@UAGJPAUtagFORMATETC@@@Z 10001e4d f i BillAcceptor.obj
 0001:00000e55       ?OnAmbientPropertyChange@?$IOleControlImpl@VCOPOSBillAcceptor@@@ATL@@UAGJJ@Z 10001e55 f i BillAcceptor.obj
 0001:00000e55       ?EnableModeless@?$IOleInPlaceActiveObjectImpl@VCOPOSBillAcceptor@@@ATL@@UAGJH@Z 10001e55 f i BillAcceptor.obj
 0001:00000e55       ?OnFrameWindowActivate@?$IOleInPlaceActiveObjectImpl@VCOPOSBillAcceptor@@@ATL@@UAGJH@Z 10001e55 f i BillAcceptor.obj
 0001:00000e55       ?SaveCompleted@?$IPersistStorageImpl@VCOPOSBillAcceptor@@@ATL@@UAGJPAUIStorage@@@Z 10001e55 f i BillAcceptor.obj
 0001:00000e5a       ?SetClientSite@?$IOleObjectImpl@VCOPOSBillAcceptor@@@ATL@@UAGJPAUIOleClientSite@@@Z 10001e5a f i BillAcceptor.obj
 0001:00000e77       ?GetClientSite@?$IOleObjectImpl@VCOPOSBillAcceptor@@@ATL@@UAGJPAPAUIOleClientSite@@@Z 10001e77 f i BillAcceptor.obj
 0001:00000e94       ?SetHostNames@?$IOleObjectImpl@VCOPOSBillAcceptor@@@ATL@@UAGJPB_W0@Z 10001e94 f i BillAcceptor.obj
 0001:00000e99       ?Close@?$IOleObjectImpl@VCOPOSBillAcceptor@@@ATL@@UAGJK@Z 10001e99 f i BillAcceptor.obj
 0001:00000eb6       ?GetDataHere@?$IDataObjectImpl@VCOPOSBillAcceptor@@@ATL@@UAGJPAUtagFORMATETC@@PAUtagSTGMEDIUM@@@Z 10001eb6 f i BillAcceptor.obj
 0001:00000eb6       ?GetCanonicalFormatEtc@?$IDataObjectImpl@VCOPOSBillAcceptor@@@ATL@@UAGJPAUtagFORMATETC@@0@Z 10001eb6 f i BillAcceptor.obj
 0001:00000eb6       ?GetClipboardData@?$IOleObjectImpl@VCOPOSBillAcceptor@@@ATL@@UAGJKPAPAUIDataObject@@@Z 10001eb6 f i BillAcceptor.obj
 0001:00000eb6       ?SetMoniker@?$IOleObjectImpl@VCOPOSBillAcceptor@@@ATL@@UAGJKPAUIMoniker@@@Z 10001eb6 f i BillAcceptor.obj
 0001:00000eb6       ?GetRect@?$IViewObjectExImpl@VCOPOSBillAcceptor@@@ATL@@UAGJKPAU_RECTL@@@Z 10001eb6 f i BillAcceptor.obj
 0001:00000eb6       ?EnumFormatEtc@?$IDataObjectImpl@VCOPOSBillAcceptor@@@ATL@@UAGJKPAPAUIEnumFORMATETC@@@Z 10001eb6 f i BillAcceptor.obj
 0001:00000eb6       ?QueryInterface@CRegObject@ATL@@UAGJABU_GUID@@PAPAX@Z 10001eb6 f i BillAcceptor.obj
 0001:00000ebe       ?GetMoniker@?$IOleObjectImpl@VCOPOSBillAcceptor@@@ATL@@UAGJKKPAPAUIMoniker@@@Z 10001ebe f i BillAcceptor.obj
 0001:00000ebe       ?InitFromData@?$IOleObjectImpl@VCOPOSBillAcceptor@@@ATL@@UAGJPAUIDataObject@@HK@Z 10001ebe f i BillAcceptor.obj
 0001:00000ebe       ?SetData@?$IDataObjectImpl@VCOPOSBillAcceptor@@@ATL@@UAGJPAUtagFORMATETC@@PAUtagSTGMEDIUM@@H@Z 10001ebe f i BillAcceptor.obj
 0001:00000ec6       ?DoVerb@?$IOleObjectImpl@VCOPOSBillAcceptor@@@ATL@@UAGJJPAUtagMSG@@PAUIOleClientSite@@JPAUHWND__@@PBUtagRECT@@@Z 10001ec6 f i BillAcceptor.obj
 0001:00000fba       ?EnumVerbs@?$IOleObjectImpl@VCOPOSBillAcceptor@@@ATL@@UAGJPAPAUIEnumOLEVERB@@@Z 10001fba f i BillAcceptor.obj
 0001:00000fdc       ?HandsOffStorage@?$IPersistStorageImpl@VCOPOSBillAcceptor@@@ATL@@UAGJXZ 10001fdc f i BillAcceptor.obj
 0001:00000fdc       ?Release@CRegObject@ATL@@UAGKXZ 10001fdc f i BillAcceptor.obj
 0001:00000fdc       ?Update@?$IOleObjectImpl@VCOPOSBillAcceptor@@@ATL@@UAGJXZ 10001fdc f i BillAcceptor.obj
 0001:00000fdc       ?IsUpToDate@?$IOleObjectImpl@VCOPOSBillAcceptor@@@ATL@@UAGJXZ 10001fdc f i BillAcceptor.obj
 0001:00000fe1       ?GetUserType@?$IOleObjectImpl@VCOPOSBillAcceptor@@@ATL@@UAGJKPAPA_W@Z 10001fe1 f i BillAcceptor.obj
 0001:00000ff9       ?SetExtent@?$IOleObjectImpl@VCOPOSBillAcceptor@@@ATL@@UAGJKPAUtagSIZE@@@Z 10001ff9 f i BillAcceptor.obj
 0001:00001019       ?GetExtent@?$IOleObjectImpl@VCOPOSBillAcceptor@@@ATL@@UAGJKPAUtagSIZE@@@Z 10002019 f i BillAcceptor.obj
 0001:00001057       ?Advise@?$IOleObjectImpl@VCOPOSBillAcceptor@@@ATL@@UAGJPAUIAdviseSink@@PAK@Z 10002057 f i BillAcceptor.obj
 0001:00001077       ?Unadvise@?$IOleObjectImpl@VCOPOSBillAcceptor@@@ATL@@UAGJK@Z 10002077 f i BillAcceptor.obj
 0001:000010a6       ?EnumAdvise@?$IOleObjectImpl@VCOPOSBillAcceptor@@@ATL@@UAGJPAPAUIEnumSTATDATA@@@Z 100020a6 f i BillAcceptor.obj
 0001:000010e6       ?GetMiscStatus@?$IOleObjectImpl@VCOPOSBillAcceptor@@@ATL@@UAGJKPAK@Z 100020e6 f i BillAcceptor.obj
 0001:000010fe       ?GetWindow@?$IOleInPlaceActiveObjectImpl@VCOPOSBillAcceptor@@@ATL@@UAGJPAPAUHWND__@@@Z 100020fe f i BillAcceptor.obj
 0001:0000114b       ?TranslateAcceleratorW@?$IOleInPlaceActiveObjectImpl@VCOPOSBillAcceptor@@@ATL@@UAGJPAUtagMSG@@@Z 1000214b f i BillAcceptor.obj
 0001:000011f9       ?OnDocWindowActivate@?$IOleInPlaceActiveObjectImpl@VCOPOSBillAcceptor@@@ATL@@UAGJH@Z 100021f9 f i BillAcceptor.obj
 0001:0000121b       ?ResizeBorder@?$IOleInPlaceActiveObjectImpl@VCOPOSBillAcceptor@@@ATL@@UAGJPBUtagRECT@@PAUIOleInPlaceUIWindow@@H@Z 1000221b f i BillAcceptor.obj
 0001:00001220       ?Draw@?$IViewObjectExImpl@VCOPOSBillAcceptor@@@ATL@@UAGJKJPAXPAUtagDVTARGETDEVICE@@PAUHDC__@@2PBU_RECTL@@3P6GHK@ZK@Z 10002220 f i BillAcceptor.obj
 0001:00001252       ?GetColorSet@?$IViewObjectExImpl@VCOPOSBillAcceptor@@@ATL@@UAGJKJPAXPAUtagDVTARGETDEVICE@@PAUHDC__@@PAPAUtagLOGPALETTE@@@Z 10002252 f i BillAcceptor.obj
 0001:0000125a       ?SOErrorDummy@COPOSBillAcceptor@@MAGJJJJPAJ@Z 1000225a f i BillAcceptor.obj
 0001:0000125a       ?Freeze@?$IViewObjectExImpl@VCOPOSBillAcceptor@@@ATL@@UAGJKJPAXPAK@Z 1000225a f i BillAcceptor.obj
 0001:00001262       ?SetAdvise@?$IViewObjectExImpl@VCOPOSBillAcceptor@@@ATL@@UAGJKKPAUIAdviseSink@@@Z 10002262 f i BillAcceptor.obj
 0001:00001281       ?GetAdvise@?$IViewObjectExImpl@VCOPOSBillAcceptor@@@ATL@@UAGJPAK0PAPAUIAdviseSink@@@Z 10002281 f i BillAcceptor.obj
 0001:000012b6       ?GetExtent@?$IViewObjectExImpl@VCOPOSBillAcceptor@@@ATL@@UAGJKJPAUtagDVTARGETDEVICE@@PAUtagSIZE@@@Z 100022b6 f i BillAcceptor.obj
 0001:000012e7       ?GetViewStatus@?$IViewObjectExImpl@VCOPOSBillAcceptor@@@ATL@@UAGJPAK@Z 100022e7 f i BillAcceptor.obj
 0001:00001304       ?QueryHitPoint@?$IViewObjectExImpl@VCOPOSBillAcceptor@@@ATL@@UAGJKPBUtagRECT@@UtagPOINT@@JPAK@Z 10002304 f i BillAcceptor.obj
 0001:00001345       ?QueryHitRect@?$IViewObjectExImpl@VCOPOSBillAcceptor@@@ATL@@UAGJKPBUtagRECT@@0JPAK@Z 10002345 f i BillAcceptor.obj
 0001:000013a0       ?GetNaturalExtent@?$IViewObjectExImpl@VCOPOSBillAcceptor@@@ATL@@UAGJKJPAUtagDVTARGETDEVICE@@PAUHDC__@@PAUtagExtentInfo@@PAUtagSIZE@@@Z 100023a0 f i BillAcceptor.obj
 0001:000013eb       ?GetWindow@?$IOleInPlaceObjectWindowlessImpl@VCOPOSBillAcceptor@@@ATL@@UAGJPAPAUHWND__@@@Z 100023eb f i BillAcceptor.obj
 0001:00001438       ?InPlaceDeactivate@?$IOleInPlaceObjectWindowlessImpl@VCOPOSBillAcceptor@@@ATL@@UAGJXZ 10002438 f i BillAcceptor.obj
 0001:00001452       ?UIDeactivate@?$IOleInPlaceObjectWindowlessImpl@VCOPOSBillAcceptor@@@ATL@@UAGJXZ 10002452 f i BillAcceptor.obj
 0001:0000146c       ?SetObjectRects@?$IOleInPlaceObjectWindowlessImpl@VCOPOSBillAcceptor@@@ATL@@UAGJPBUtagRECT@@0@Z 1000246c f i BillAcceptor.obj
 0001:0000148c       ?ReactivateAndUndo@?$IOleInPlaceObjectWindowlessImpl@VCOPOSBillAcceptor@@@ATL@@UAGJXZ 1000248c f i BillAcceptor.obj
 0001:00001494       ?OnWindowMessage@?$IOleInPlaceObjectWindowlessImpl@VCOPOSBillAcceptor@@@ATL@@UAGJIIJPAJ@Z 10002494 f i BillAcceptor.obj
 0001:00001504       ?EnumConnectionPoints@?$IConnectionPointContainerImpl@VCOPOSBillAcceptor@@@ATL@@UAGJPAPAUIEnumConnectionPoints@@@Z 10002504 f i BillAcceptor.obj
 0001:00001690       ?FindConnectionPoint@?$IConnectionPointContainerImpl@VCOPOSBillAcceptor@@@ATL@@UAGJABU_GUID@@PAPAUIConnectionPoint@@@Z 10002690 f i BillAcceptor.obj
 0001:00001733       ?IsDirty@?$IPersistStorageImpl@VCOPOSBillAcceptor@@@ATL@@UAGJXZ 10002733 f i BillAcceptor.obj
 0001:00001763       ?InitNew@?$IPersistStorageImpl@VCOPOSBillAcceptor@@@ATL@@UAGJPAUIStorage@@@Z 10002763 f i BillAcceptor.obj
 0001:00001793       ?Load@?$IPersistStorageImpl@VCOPOSBillAcceptor@@@ATL@@UAGJPAUIStorage@@@Z 10002793 f i BillAcceptor.obj
 0001:000017ff       ?Save@?$IPersistStorageImpl@VCOPOSBillAcceptor@@@ATL@@UAGJPAUIStorage@@H@Z 100027ff f i BillAcceptor.obj
 0001:00001872       ?GetPages@?$ISpecifyPropertyPagesImpl@VCOPOSBillAcceptor@@@ATL@@UAGJPAUtagCAUUID@@@Z 10002872 f i BillAcceptor.obj
 0001:00001889       ?QuickActivate@?$IQuickActivateImpl@VCOPOSBillAcceptor@@@ATL@@UAGJPAUtagQACONTAINER@@PAUtagQACONTROL@@@Z 10002889 f i BillAcceptor.obj
 0001:000018ac       ?SetContentExtent@?$IQuickActivateImpl@VCOPOSBillAcceptor@@@ATL@@UAGJPAUtagSIZE@@@Z 100028ac f i BillAcceptor.obj
 0001:000018d8       ?GetContentExtent@?$IQuickActivateImpl@VCOPOSBillAcceptor@@@ATL@@UAGJPAUtagSIZE@@@Z 100028d8 f i BillAcceptor.obj
 0001:00001914       ?GetData@?$IDataObjectImpl@VCOPOSBillAcceptor@@@ATL@@UAGJPAUtagFORMATETC@@PAUtagSTGMEDIUM@@@Z 10002914 f i BillAcceptor.obj
 0001:00001937       ?DAdvise@?$IDataObjectImpl@VCOPOSBillAcceptor@@@ATL@@UAGJPAUtagFORMATETC@@KPAUIAdviseSink@@PAK@Z 10002937 f i BillAcceptor.obj
 0001:00001978       ?DUnadvise@?$IDataObjectImpl@VCOPOSBillAcceptor@@@ATL@@UAGJK@Z 10002978 f i BillAcceptor.obj
 0001:000019a6       ?EnumDAdvise@?$IDataObjectImpl@VCOPOSBillAcceptor@@@ATL@@UAGJPAPAUIEnumSTATDATA@@@Z 100029a6 f i BillAcceptor.obj
 0001:000019e5       ?GetClassInfoW@?$IProvideClassInfo2Impl@$1?CLSID_OPOSBillAcceptor@@3U_GUID@@B$1?DIID__IOPOSBillAcceptorEvents@@3U2@B$1?LIBID_OposBillAcceptor_CCO@@3U2@B$00$0A@VCComTypeInfoHolder@ATL@@@ATL@@UAGJPAPAUITypeInfo@@@Z 100029e5 f i BillAcceptor.obj
 0001:000019fb       ?GetGUID@?$IProvideClassInfo2Impl@$1?CLSID_OPOSBillAcceptor@@3U_GUID@@B$1?DIID__IOPOSBillAcceptorEvents@@3U2@B$1?LIBID_OposBillAcceptor_CCO@@3U2@B$00$0A@VCComTypeInfoHolder@ATL@@@ATL@@UAGJKPAU_GUID@@@Z 100029fb f i BillAcceptor.obj
 0001:00001a39       __get_startup_argv_mode    10002a39 f i LIBCMT:argv_mode.obj
 0001:00001a39       ?FAccessAllowed@?$IObjectSafetyImpl@VCOPOSBillAcceptor@@$02@ATL@@MAEHXZ 10002a39 f i BillAcceptor.obj
 0001:00001a3d       ?GetInterfaceSafetyOptions@?$IObjectSafetyImpl@VCOPOSBillAcceptor@@$02@ATL@@UAGJABU_GUID@@PAK1@Z 10002a3d f i BillAcceptor.obj
 0001:00001ab1       ?SetInterfaceSafetyOptions@?$IObjectSafetyImpl@VCOPOSBillAcceptor@@$02@ATL@@UAGJABU_GUID@@KK@Z 10002ab1 f i BillAcceptor.obj
 0001:00001b2b       ?_LocCPQueryInterface@?$IConnectionPointImpl@VCOPOSBillAcceptor@@$1?DIID__IOPOSBillAcceptorEvents@@3U_GUID@@BVCComDynamicUnkArray@ATL@@@ATL@@UAGJABU_GUID@@PAPAX@Z 10002b2b f i BillAcceptor.obj
 0001:00001b2b       ?_LocCPQueryInterface@?$IConnectionPointImpl@VCOPOSBillAcceptor@@$1?IID_IPropertyNotifySink@@3U_GUID@@BVCComDynamicUnkArray@ATL@@@ATL@@UAGJABU_GUID@@PAPAX@Z 10002b2b f i BillAcceptor.obj
 0001:00001b78       ?GetConnectionInterface@?$IConnectionPointImpl@VCOPOSBillAcceptor@@$1?IID_IPropertyNotifySink@@3U_GUID@@BVCComDynamicUnkArray@ATL@@@ATL@@UAGJPAU_GUID@@@Z 10002b78 f i BillAcceptor.obj
 0001:00001b9c       ?GetConnectionPointContainer@?$IConnectionPointImpl@VCOPOSBillAcceptor@@$1?IID_IPropertyNotifySink@@3U_GUID@@BVCComDynamicUnkArray@ATL@@@ATL@@UAGJPAPAUIConnectionPointContainer@@@Z 10002b9c f i BillAcceptor.obj
 0001:00001bbf       ?Advise@?$IConnectionPointImpl@VCOPOSBillAcceptor@@$1?IID_IPropertyNotifySink@@3U_GUID@@BVCComDynamicUnkArray@ATL@@@ATL@@UAGJPAUIUnknown@@PAK@Z 10002bbf f i BillAcceptor.obj
 0001:00001bbf       ?Advise@?$IConnectionPointImpl@VCOPOSBillAcceptor@@$1?DIID__IOPOSBillAcceptorEvents@@3U_GUID@@BVCComDynamicUnkArray@ATL@@@ATL@@UAGJPAUIUnknown@@PAK@Z 10002bbf f i BillAcceptor.obj
 0001:00001c5f       ?Unadvise@?$IConnectionPointImpl@VCOPOSBillAcceptor@@$1?IID_IPropertyNotifySink@@3U_GUID@@BVCComDynamicUnkArray@ATL@@@ATL@@UAGJK@Z 10002c5f f i BillAcceptor.obj
 0001:00001c5f       ?Unadvise@?$IConnectionPointImpl@VCOPOSBillAcceptor@@$1?DIID__IOPOSBillAcceptorEvents@@3U_GUID@@BVCComDynamicUnkArray@ATL@@@ATL@@UAGJK@Z 10002c5f f i BillAcceptor.obj
 0001:00001c9f       ?EnumConnections@?$IConnectionPointImpl@VCOPOSBillAcceptor@@$1?DIID__IOPOSBillAcceptorEvents@@3U_GUID@@BVCComDynamicUnkArray@ATL@@@ATL@@UAGJPAPAUIEnumConnections@@@Z 10002c9f f i BillAcceptor.obj
 0001:00001c9f       ?EnumConnections@?$IConnectionPointImpl@VCOPOSBillAcceptor@@$1?IID_IPropertyNotifySink@@3U_GUID@@BVCComDynamicUnkArray@ATL@@@ATL@@UAGJPAPAUIEnumConnections@@@Z 10002c9f f i BillAcceptor.obj
 0001:00001d9a       ?GetCategoryMap@CComObjectRootBase@ATL@@SAPBU_ATL_CATMAP_ENTRY@2@XZ 10002d9a f i BillAcceptor.obj
 0001:00001d9a       ?GetObjectDescription@?$CComCoClass@VCOPOSBillAcceptor@@$1?CLSID_OPOSBillAcceptor@@3U_GUID@@B@ATL@@SGPB_WXZ 10002d9a f i BillAcceptor.obj
 0001:00001d9d       ?GetConnectionInterface@?$IConnectionPointImpl@VCOPOSBillAcceptor@@$1?DIID__IOPOSBillAcceptorEvents@@3U_GUID@@BVCComDynamicUnkArray@ATL@@@ATL@@UAGJPAU_GUID@@@Z 10002d9d f i BillAcceptor.obj
 0001:00001dc1       ?GetConnectionPointContainer@?$IConnectionPointImpl@VCOPOSBillAcceptor@@$1?DIID__IOPOSBillAcceptorEvents@@3U_GUID@@BVCComDynamicUnkArray@ATL@@@ATL@@UAGJPAPAUIConnectionPointContainer@@@Z 10002dc1 f i BillAcceptor.obj
 0001:00001de4       ?UpdateRegistry@COPOSBillAcceptor@@SGJH@Z 10002de4 f i BillAcceptor.obj
 0001:00001dfc       ?ProcessWindowMessage@COPOSBillAcceptor@@UAEHPAUHWND__@@IIJAAJK@Z 10002dfc f i BillAcceptor.obj
 0001:00001e45       ?SOData@COPOSBillAcceptor@@MAGJJ@Z 10002e45 f i BillAcceptor.obj
 0001:00001e7e       ?SODirectIO@COPOSBillAcceptor@@MAGJJPAJPAPA_W@Z 10002e7e f i BillAcceptor.obj
 0001:00001ec7       ?SOStatusUpdate@COPOSBillAcceptor@@MAGJJ@Z 10002ec7 f i BillAcceptor.obj
 0001:00001f00       ?Lock@CAtlModule@ATL@@UAEJXZ 10002f00 f i BillAcceptor.obj
 0001:00001f0a       ?Unlock@CAtlModule@ATL@@UAEJXZ 10002f0a f i BillAcceptor.obj
 0001:00001f14       ?GetLockCount@CAtlModule@ATL@@UAEJXZ 10002f14 f i BillAcceptor.obj
 0001:00001f18       ?GetGITPtr@CAtlModule@ATL@@UAEJPAPAUIGlobalInterfaceTable@@@Z 10002f18 f i BillAcceptor.obj
 0001:00001f64       ?AddCommonRGSReplacements@?$CAtlModuleT@VCComModule@ATL@@@ATL@@UAEJPAUIRegistrarBase@@@Z 10002f64 f i BillAcceptor.obj
 0001:00001f7e       ?UpdateRegistryFromResourceD@CComModule@ATL@@UAGJPB_WHPAU_ATL_REGMAP_ENTRY@2@@Z 10002f7e f i BillAcceptor.obj
 0001:00001f7e       ?UpdateRegistryFromResourceD@CComModule@ATL@@UAGJIHPAU_ATL_REGMAP_ENTRY@2@@Z 10002f7e f i BillAcceptor.obj
 0001:00001f86       ?UpdateRegistryFromResource@CComModule@ATL@@UAGJPB_WHPAU_ATL_REGMAP_ENTRY@2@@Z 10002f86 f i BillAcceptor.obj
 0001:00001f8f       ?UpdateRegistryFromResource@CComModule@ATL@@UAGJIHPAU_ATL_REGMAP_ENTRY@2@@Z 10002f8f f i BillAcceptor.obj
 0001:00001f98       ??_GCComModule@ATL@@UAEPAXI@Z 10002f98 f i BillAcceptor.obj
 0001:00001f98       ??_ECComModule@ATL@@UAEPAXI@Z 10002f98 f i BillAcceptor.obj
 0001:00001fc0       ?CreateInstance@?$CComCreator@V?$CComObjectCached@VCComClassFactory@ATL@@@ATL@@@ATL@@SGJPAXABU_GUID@@PAPAX@Z 10002fc0 f i BillAcceptor.obj
 0001:00002060       ?CreateInstance@?$CComCreator2@V?$CComCreator@V?$CComObject@VCOPOSBillAcceptor@@@ATL@@@ATL@@V?$CComCreator@V?$CComAggObject@VCOPOSBillAcceptor@@@ATL@@@2@@ATL@@SGJPAXABU_GUID@@PAPAX@Z 10003060 f i BillAcceptor.obj
 0001:00002080       ?AddRef@?$CComObjectCached@VCComClassFactory@ATL@@@ATL@@UAGKXZ 10003080 f i BillAcceptor.obj
 0001:000020a7       ?Release@?$CComObjectCached@VCComClassFactory@ATL@@@ATL@@UAGKXZ 100030a7 f i BillAcceptor.obj
 0001:000020dd       ?QueryInterface@?$CComObjectCached@VCComClassFactory@ATL@@@ATL@@UAGJABU_GUID@@PAPAX@Z 100030dd f i BillAcceptor.obj
 0001:000020f7       ??_G?$CComObjectCached@VCComClassFactory@ATL@@@ATL@@UAEPAXI@Z 100030f7 f i BillAcceptor.obj
 0001:000020f7       ??_E?$CComObjectCached@VCComClassFactory@ATL@@@ATL@@UAEPAXI@Z 100030f7 f i BillAcceptor.obj
 0001:00002119       ?Next@?$CComEnumImpl@UIEnumConnectionPoints@@$1?_GUID_b196b285_bab4_101a_b69c_00aa00341d07@@3U__s_GUID@@BPAUIConnectionPoint@@V?$_CopyInterface@UIConnectionPoint@@@ATL@@@ATL@@UAGJKPAPAUIConnectionPoint@@PAK@Z 10003119 f i BillAcceptor.obj
 0001:000021f0       ?Skip@?$CComEnumImpl@UIEnumConnectionPoints@@$1?_GUID_b196b285_bab4_101a_b69c_00aa00341d07@@3U__s_GUID@@BPAUIConnectionPoint@@V?$_CopyInterface@UIConnectionPoint@@@ATL@@@ATL@@UAGJK@Z 100031f0 f i BillAcceptor.obj
 0001:0000221d       ?Reset@?$CComEnumImpl@UIEnumConnections@@$1?_GUID_b196b287_bab4_101a_b69c_00aa00341d07@@3U__s_GUID@@BUtagCONNECTDATA@@V?$_Copy@UtagCONNECTDATA@@@ATL@@@ATL@@UAGJXZ 1000321d f i BillAcceptor.obj
 0001:0000221d       ?Reset@?$CComEnumImpl@UIEnumConnectionPoints@@$1?_GUID_b196b285_bab4_101a_b69c_00aa00341d07@@3U__s_GUID@@BPAUIConnectionPoint@@V?$_CopyInterface@UIConnectionPoint@@@ATL@@@ATL@@UAGJXZ 1000321d f i BillAcceptor.obj
 0001:0000222f       ?Clone@?$CComEnumImpl@UIEnumConnectionPoints@@$1?_GUID_b196b285_bab4_101a_b69c_00aa00341d07@@3U__s_GUID@@BPAUIConnectionPoint@@V?$_CopyInterface@UIConnectionPoint@@@ATL@@@ATL@@UAGJPAPAUIEnumConnectionPoints@@@Z 1000322f f i BillAcceptor.obj
 0001:00002310       ?AddRef@?$CComObject@V?$CComEnum@UIEnumConnections@@$1?_GUID_b196b287_bab4_101a_b69c_00aa00341d07@@3U__s_GUID@@BUtagCONNECTDATA@@V?$_Copy@UtagCONNECTDATA@@@ATL@@VCComSingleThreadModel@6@@ATL@@@ATL@@UAGKXZ 10003310 f i BillAcceptor.obj
 0001:00002310       ?AddRef@?$CComObject@V?$CComEnum@UIEnumConnectionPoints@@$1?_GUID_b196b285_bab4_101a_b69c_00aa00341d07@@3U__s_GUID@@BPAUIConnectionPoint@@V?$_CopyInterface@UIConnectionPoint@@@ATL@@VCComSingleThreadModel@6@@ATL@@@ATL@@UAGKXZ 10003310 f i BillAcceptor.obj
 0001:00002321       ?Release@?$CComObject@V?$CComEnum@UIEnumConnections@@$1?_GUID_b196b287_bab4_101a_b69c_00aa00341d07@@3U__s_GUID@@BUtagCONNECTDATA@@V?$_Copy@UtagCONNECTDATA@@@ATL@@VCComSingleThreadModel@6@@ATL@@@ATL@@UAGKXZ 10003321 f i BillAcceptor.obj
 0001:00002321       ?Release@?$CComObject@V?$CComEnum@UIEnumConnectionPoints@@$1?_GUID_b196b285_bab4_101a_b69c_00aa00341d07@@3U__s_GUID@@BPAUIConnectionPoint@@V?$_CopyInterface@UIConnectionPoint@@@ATL@@VCComSingleThreadModel@6@@ATL@@@ATL@@UAGKXZ 10003321 f i BillAcceptor.obj
 0001:0000235d       ?QueryInterface@?$CComObject@V?$CComEnum@UIEnumConnectionPoints@@$1?_GUID_b196b285_bab4_101a_b69c_00aa00341d07@@3U__s_GUID@@BPAUIConnectionPoint@@V?$_CopyInterface@UIConnectionPoint@@@ATL@@VCComSingleThreadModel@6@@ATL@@@ATL@@UAGJABU_GUID@@PAPAX@Z 1000335d f i BillAcceptor.obj
 0001:00002377       ??_G?$CComObject@V?$CComEnum@UIEnumConnectionPoints@@$1?_GUID_b196b285_bab4_101a_b69c_00aa00341d07@@3U__s_GUID@@BPAUIConnectionPoint@@V?$_CopyInterface@UIConnectionPoint@@@ATL@@VCComSingleThreadModel@6@@ATL@@@ATL@@UAEPAXI@Z 10003377 f i BillAcceptor.obj
 0001:00002377       ??_E?$CComObject@V?$CComEnum@UIEnumConnectionPoints@@$1?_GUID_b196b285_bab4_101a_b69c_00aa00341d07@@3U__s_GUID@@BPAUIConnectionPoint@@V?$_CopyInterface@UIConnectionPoint@@@ATL@@VCComSingleThreadModel@6@@ATL@@@ATL@@UAEPAXI@Z 10003377 f i BillAcceptor.obj
 0001:00002399       ?AddRef@CRegObject@ATL@@UAGKXZ 10003399 f i BillAcceptor.obj
 0001:0000239f       ?AddReplacement@CRegObject@ATL@@UAGJPB_W0@Z 1000339f f i BillAcceptor.obj
 0001:000023d8       ?ClearReplacements@CRegObject@ATL@@UAGJXZ 100033d8 f i BillAcceptor.obj
 0001:000023ea       ??_ECRegObject@ATL@@UAEPAXI@Z 100033ea f i BillAcceptor.obj
 0001:000023ea       ??_GCRegObject@ATL@@UAEPAXI@Z 100033ea f i BillAcceptor.obj
 0001:0000240c       ?AddRef@?$CComAggObject@VCOPOSBillAcceptor@@@ATL@@UAGKXZ 1000340c f i BillAcceptor.obj
 0001:0000241d       ?Release@?$CComAggObject@VCOPOSBillAcceptor@@@ATL@@UAGKXZ 1000341d f i BillAcceptor.obj
 0001:00002459       ?QueryInterface@?$CComAggObject@VCOPOSBillAcceptor@@@ATL@@UAGJABU_GUID@@PAPAX@Z 10003459 f i BillAcceptor.obj
 0001:000024a8       ?AddRef@?$CComContainedObject@VCOPOSBillAcceptor@@@ATL@@UAGKXZ 100034a8 f i BillAcceptor.obj
 0001:000024be       ?Release@?$CComContainedObject@VCOPOSBillAcceptor@@@ATL@@UAGKXZ 100034be f i BillAcceptor.obj
 0001:000024d4       ?QueryInterface@?$CComContainedObject@VCOPOSBillAcceptor@@@ATL@@UAGJABU_GUID@@PAPAX@Z 100034d4 f i BillAcceptor.obj
 0001:000024ef       ??_E?$CComAggObject@VCOPOSBillAcceptor@@@ATL@@UAEPAXI@Z 100034ef f i BillAcceptor.obj
 0001:000024ef       ??_G?$CComAggObject@VCOPOSBillAcceptor@@@ATL@@UAEPAXI@Z 100034ef f i BillAcceptor.obj
 0001:00002514       ?AddRef@?$CComObject@VCOPOSBillAcceptor@@@ATL@@UAGKXZ 10003514 f i BillAcceptor.obj
 0001:0000252b       ?Release@?$CComObject@VCOPOSBillAcceptor@@@ATL@@UAGKXZ 1000352b f i BillAcceptor.obj
 0001:0000256d       ?QueryInterface@?$CComObject@VCOPOSBillAcceptor@@@ATL@@UAGJABU_GUID@@PAPAX@Z 1000356d f i BillAcceptor.obj
 0001:00002587       ?OnDrawAdvanced@CComControlBase@ATL@@UAEJAAUATL_DRAWINFO@@@Z 10003587 f i BillAcceptor.obj
 0001:0000267a       ?Next@?$CComEnumImpl@UIEnumConnections@@$1?_GUID_b196b287_bab4_101a_b69c_00aa00341d07@@3U__s_GUID@@BUtagCONNECTDATA@@V?$_Copy@UtagCONNECTDATA@@@ATL@@@ATL@@UAGJKPAUtagCONNECTDATA@@PAK@Z 1000367a f i BillAcceptor.obj
 0001:00002751       ?Skip@?$CComEnumImpl@UIEnumConnections@@$1?_GUID_b196b287_bab4_101a_b69c_00aa00341d07@@3U__s_GUID@@BUtagCONNECTDATA@@V?$_Copy@UtagCONNECTDATA@@@ATL@@@ATL@@UAGJK@Z 10003751 f i BillAcceptor.obj
 0001:0000277e       ?Clone@?$CComEnumImpl@UIEnumConnections@@$1?_GUID_b196b287_bab4_101a_b69c_00aa00341d07@@3U__s_GUID@@BUtagCONNECTDATA@@V?$_Copy@UtagCONNECTDATA@@@ATL@@@ATL@@UAGJPAPAUIEnumConnections@@@Z 1000377e f i BillAcceptor.obj
 0001:0000285f       ?QueryInterface@?$CComObject@V?$CComEnum@UIEnumConnections@@$1?_GUID_b196b287_bab4_101a_b69c_00aa00341d07@@3U__s_GUID@@BUtagCONNECTDATA@@V?$_Copy@UtagCONNECTDATA@@@ATL@@VCComSingleThreadModel@6@@ATL@@@ATL@@UAGJABU_GUID@@PAPAX@Z 1000385f f i BillAcceptor.obj
 0001:00002879       ??_G?$CComObject@V?$CComEnum@UIEnumConnections@@$1?_GUID_b196b287_bab4_101a_b69c_00aa00341d07@@3U__s_GUID@@BUtagCONNECTDATA@@V?$_Copy@UtagCONNECTDATA@@@ATL@@VCComSingleThreadModel@6@@ATL@@@ATL@@UAEPAXI@Z 10003879 f i BillAcceptor.obj
 0001:00002879       ??_E?$CComObject@V?$CComEnum@UIEnumConnections@@$1?_GUID_b196b287_bab4_101a_b69c_00aa00341d07@@3U__s_GUID@@BUtagCONNECTDATA@@V?$_Copy@UtagCONNECTDATA@@@ATL@@VCComSingleThreadModel@6@@ATL@@@ATL@@UAEPAXI@Z 10003879 f i BillAcceptor.obj
 0001:0000289b       ??_E?$CComObject@VCOPOSBillAcceptor@@@ATL@@W3AEPAXI@Z 1000389b f i BillAcceptor.obj
 0001:000028a3       ??_E?$CComObject@VCOPOSBillAcceptor@@@ATL@@WEM@AEPAXI@Z 100038a3 f i BillAcceptor.obj
 0001:000028ab       ?QueryInterface@?$CComObject@VCOPOSBillAcceptor@@@ATL@@WHA@AGJABU_GUID@@PAPAX@Z 100038ab f i BillAcceptor.obj
 0001:000028b5       ?AddRef@?$CComObject@VCOPOSBillAcceptor@@@ATL@@WHA@AGKXZ 100038b5 f i BillAcceptor.obj
 0001:000028bf       ?Release@?$CComObject@VCOPOSBillAcceptor@@@ATL@@WHA@AGKXZ 100038bf f i BillAcceptor.obj
 0001:000028c9       ?QueryInterface@?$CComObject@VCOPOSBillAcceptor@@@ATL@@WHE@AGJABU_GUID@@PAPAX@Z 100038c9 f i BillAcceptor.obj
 0001:000028d3       ?AddRef@?$CComObject@VCOPOSBillAcceptor@@@ATL@@WHE@AGKXZ 100038d3 f i BillAcceptor.obj
 0001:000028dd       ?Release@?$CComObject@VCOPOSBillAcceptor@@@ATL@@WHE@AGKXZ 100038dd f i BillAcceptor.obj
 0001:000028e7       ?QueryInterface@?$CComObject@VCOPOSBillAcceptor@@@ATL@@WHI@AGJABU_GUID@@PAPAX@Z 100038e7 f i BillAcceptor.obj
 0001:000028f1       ?AddRef@?$CComObject@VCOPOSBillAcceptor@@@ATL@@WHI@AGKXZ 100038f1 f i BillAcceptor.obj
 0001:000028fb       ?Release@?$CComObject@VCOPOSBillAcceptor@@@ATL@@WHI@AGKXZ 100038fb f i BillAcceptor.obj
 0001:00002905       ?QueryInterface@?$CComObject@VCOPOSBillAcceptor@@@ATL@@WHM@AGJABU_GUID@@PAPAX@Z 10003905 f i BillAcceptor.obj
 0001:0000290f       ?AddRef@?$CComObject@VCOPOSBillAcceptor@@@ATL@@WHM@AGKXZ 1000390f f i BillAcceptor.obj
 0001:00002919       ?Release@?$CComObject@VCOPOSBillAcceptor@@@ATL@@WHM@AGKXZ 10003919 f i BillAcceptor.obj
 0001:00002923       ?QueryInterface@?$CComObject@VCOPOSBillAcceptor@@@ATL@@WIA@AGJABU_GUID@@PAPAX@Z 10003923 f i BillAcceptor.obj
 0001:00002930       ?AddRef@?$CComObject@VCOPOSBillAcceptor@@@ATL@@WIA@AGKXZ 10003930 f i BillAcceptor.obj
 0001:0000293d       ?Release@?$CComObject@VCOPOSBillAcceptor@@@ATL@@WIA@AGKXZ 1000393d f i BillAcceptor.obj
 0001:0000294a       ?QueryInterface@?$CComObject@VCOPOSBillAcceptor@@@ATL@@WIE@AGJABU_GUID@@PAPAX@Z 1000394a f i BillAcceptor.obj
 0001:00002957       ?AddRef@?$CComObject@VCOPOSBillAcceptor@@@ATL@@WIE@AGKXZ 10003957 f i BillAcceptor.obj
 0001:00002964       ?Release@?$CComObject@VCOPOSBillAcceptor@@@ATL@@WIE@AGKXZ 10003964 f i BillAcceptor.obj
 0001:00002971       ?QueryInterface@?$CComObject@VCOPOSBillAcceptor@@@ATL@@WII@AGJABU_GUID@@PAPAX@Z 10003971 f i BillAcceptor.obj
 0001:0000297e       ??$?4UITypeInfo2@@@?$CComPtr@UITypeInfo@@@ATL@@QAEPAUITypeInfo@@ABV?$CComPtr@UITypeInfo2@@@1@@Z 1000397e f i BillAcceptor.obj
 0001:000029ab       ??$AtlAdd@K@ATL@@YAJPAKKK@Z 100039ab f i BillAcceptor.obj
 0001:000029ce       ??$AtlAdd@_K@ATL@@YAJPA_K_K1@Z 100039ce f i BillAcceptor.obj
 0001:00002a06       ??$AtlAddThrow@K@ATL@@YAKKK@Z 10003a06 f i BillAcceptor.obj
 0001:00002a2c       ??$AtlModuleRegisterWndClassInfoT@VAtlModuleRegisterWndClassInfoParamW@ATL@@@ATL@@YAGPAU_ATL_BASE_MODULE70@0@PAU_ATL_WIN_MODULE70@0@PAU_ATL_WNDCLASSINFOW@0@PAP6GJPAUHWND__@@IIJ@ZVAtlModuleRegisterWndClassInfoParamW@0@@Z 10003a2c f i BillAcceptor.obj
 0001:00002b7a       ??$AtlMultiply@H@ATL@@YAJPAHHH@Z 10003b7a f i BillAcceptor.obj
 0001:00002bb2       ??$AtlMultiply@K@ATL@@YAJPAKKK@Z 10003bb2 f i BillAcceptor.obj
 0001:00002bb2       ??$AtlMultiply@I@ATL@@YAJPAIII@Z 10003bb2 f i BillAcceptor.obj
 0001:00002bd4       ??$AtlMultiplyThrow@I@ATL@@YAIII@Z 10003bd4 f i BillAcceptor.obj
 0001:00002bfa       ??0?$CComAggObject@VCOPOSBillAcceptor@@@ATL@@QAE@PAX@Z 10003bfa f i BillAcceptor.obj
 0001:00002c27       ??0?$CComContainedObject@VCOPOSBillAcceptor@@@ATL@@QAE@PAX@Z 10003c27 f i BillAcceptor.obj
 0001:00002ce0       ??0?$CComObject@V?$CComEnum@UIEnumConnectionPoints@@$1?_GUID_b196b285_bab4_101a_b69c_00aa00341d07@@3U__s_GUID@@BPAUIConnectionPoint@@V?$_CopyInterface@UIConnectionPoint@@@ATL@@VCComSingleThreadModel@6@@ATL@@@ATL@@QAE@PAX@Z 10003ce0 f i BillAcceptor.obj
 0001:00002d0e       ??0?$CComObject@V?$CComEnum@UIEnumConnections@@$1?_GUID_b196b287_bab4_101a_b69c_00aa00341d07@@3U__s_GUID@@BUtagCONNECTDATA@@V?$_Copy@UtagCONNECTDATA@@@ATL@@VCComSingleThreadModel@6@@ATL@@@ATL@@QAE@PAX@Z 10003d0e f i BillAcceptor.obj
 0001:00002d3c       ??0?$CComObject@VCOPOSBillAcceptor@@@ATL@@QAE@PAX@Z 10003d3c f i BillAcceptor.obj
 0001:00002df3       ??0?$CComQIPtr@UIOleControlSite@@$1?_GUID_b196b289_bab4_101a_b69c_00aa00341d07@@3U__s_GUID@@B@ATL@@QAE@PAUIUnknown@@@Z 10003df3 f i BillAcceptor.obj
 0001:00002e1c       ??0CAtlModule@ATL@@QAE@XZ  10003e1c f i BillAcceptor.obj
 0001:00002e5d       ??0CParseBuffer@CRegParser@ATL@@QAE@H@Z 10003e5d f i BillAcceptor.obj
 0001:00002e93       ??0_ATL_MSG@ATL@@QAE@PAUHWND__@@IIJH@Z 10003e93 f i BillAcceptor.obj
 0001:00002ecb       ??1?$CComAggObject@VCOPOSBillAcceptor@@@ATL@@UAE@XZ 10003ecb f i BillAcceptor.obj
 0001:00002eef       ??1?$CComEnumImpl@UIEnumConnectionPoints@@$1?_GUID_b196b285_bab4_101a_b69c_00aa00341d07@@3U__s_GUID@@BPAUIConnectionPoint@@V?$_CopyInterface@UIConnectionPoint@@@ATL@@@ATL@@UAE@XZ 10003eef f i BillAcceptor.obj
 0001:00002f2f       ??1?$CComEnumImpl@UIEnumConnections@@$1?_GUID_b196b287_bab4_101a_b69c_00aa00341d07@@3U__s_GUID@@BUtagCONNECTDATA@@V?$_Copy@UtagCONNECTDATA@@@ATL@@@ATL@@UAE@XZ 10003f2f f i BillAcceptor.obj
 0001:00002f6f       ??1?$CComObject@V?$CComEnum@UIEnumConnectionPoints@@$1?_GUID_b196b285_bab4_101a_b69c_00aa00341d07@@3U__s_GUID@@BPAUIConnectionPoint@@V?$_CopyInterface@UIConnectionPoint@@@ATL@@VCComSingleThreadModel@6@@ATL@@@ATL@@UAE@XZ 10003f6f f i BillAcceptor.obj
 0001:00002f92       ??1?$CComObject@V?$CComEnum@UIEnumConnections@@$1?_GUID_b196b287_bab4_101a_b69c_00aa00341d07@@3U__s_GUID@@BUtagCONNECTDATA@@V?$_Copy@UtagCONNECTDATA@@@ATL@@VCComSingleThreadModel@6@@ATL@@@ATL@@UAE@XZ 10003f92 f i BillAcceptor.obj
 0001:00002fb5       ??1?$CComObject@VCOPOSBillAcceptor@@@ATL@@UAE@XZ 10003fb5 f i BillAcceptor.obj
 0001:00003073       ??1?$CComObjectCached@VCComClassFactory@ATL@@@ATL@@UAE@XZ 10004073 f i BillAcceptor.obj
 0001:00003089       ??1?$CComObjectRootEx@VCComMultiThreadModel@ATL@@@ATL@@QAE@XZ 10004089 f i BillAcceptor.obj
 0001:0000309e       ??1CRegObject@ATL@@UAE@XZ  1000409e f i BillAcceptor.obj
 0001:000030be       ??4?$CComPtr@UIOleClientSite@@@ATL@@QAEPAUIOleClientSite@@PAU2@@Z 100040be f i BillAcceptor.obj
 0001:000030be       ??4?$CComPtr@UIUnknown@@@ATL@@QAEPAUIUnknown@@PAU2@@Z 100040be f i BillAcceptor.obj
 0001:000030be       ??4?$CComPtr@UIAdviseSink@@@ATL@@QAEPAUIAdviseSink@@PAU2@@Z 100040be f i BillAcceptor.obj
 0001:000030f2       ??_G?$CComContainedObject@VCOPOSBillAcceptor@@@ATL@@UAEPAXI@Z 100040f2 f i BillAcceptor.obj
 0001:000030f2       ??_E?$CComContainedObject@VCOPOSBillAcceptor@@@ATL@@UAEPAXI@Z 100040f2 f i BillAcceptor.obj
 0001:00003117       ??_G?$CComObject@VCOPOSBillAcceptor@@@ATL@@UAEPAXI@Z 10004117 f i BillAcceptor.obj
 0001:00003117       ??_E?$CComObject@VCOPOSBillAcceptor@@@ATL@@UAEPAXI@Z 10004117 f i BillAcceptor.obj
 0001:0000313c       ?Add@?$CSimpleArray@GV?$CSimpleArrayEqualHelper@G@ATL@@@ATL@@QAEHABG@Z 1000413c f i BillAcceptor.obj
 0001:000031c0       ?Add@?$CSimpleMap@PA_WPA_WVCExpansionVectorEqualHelper@ATL@@@ATL@@QAEHABQA_W0@Z 100041c0 f i BillAcceptor.obj
 0001:00003215       ?Add@CComDynamicUnkArray@ATL@@QAEKPAUIUnknown@@@Z 10004215 f i BillAcceptor.obj
 0001:000032cb       ?Add@CExpansionVector@ATL@@QAEHPB_W0@Z 100042cb f i BillAcceptor.obj
 0001:000033d4       ?AddString@CParseBuffer@CRegParser@ATL@@QAEHPB_W@Z 100043d4 f i BillAcceptor.obj
 0001:00003409       ?AddTermFunc@CAtlModule@ATL@@QAEJP6GXK@ZK@Z 10004409 f i BillAcceptor.obj
 0001:0000346c       ?AddValue@CRegParser@ATL@@IAEJAAVCRegKey@2@PB_WPA_W@Z 1000446c f i BillAcceptor.obj
 0001:00003786       ?Allocate@?$CAtlSafeAllocBufferManager@VCCRTAllocator@ATL@@@_ATL_SAFE_ALLOCA_IMPL@ATL@@QAEPAXK@Z 10004786 f i BillAcceptor.obj
 0001:000037b3       ?Allocate@?$CTempBuffer@E$0BAA@VCCRTAllocator@ATL@@@ATL@@QAEPAEI@Z 100047b3 f i BillAcceptor.obj
 0001:000037e2       ?Allocate@?$CTempBuffer@_W$0BAA@VCCRTAllocator@ATL@@@ATL@@QAEPA_WI@Z 100047e2 f i BillAcceptor.obj
 0001:00003811       ?Allocate@?$CTempBuffer@_W$0EAA@VCCRTAllocator@ATL@@@ATL@@QAEPA_WI@Z 10004811 f i BillAcceptor.obj
 0001:00003840       ?AllocateHeap@?$CTempBuffer@E$0BAA@VCCRTAllocator@ATL@@@ATL@@AAEXI@Z 10004840 f i BillAcceptor.obj
 0001:00003840       ?AllocateHeap@?$CTempBuffer@_W$0BAA@VCCRTAllocator@ATL@@@ATL@@AAEXI@Z 10004840 f i BillAcceptor.obj
 0001:00003840       ?AllocateHeap@?$CTempBuffer@_W$0EAA@VCCRTAllocator@ATL@@@ATL@@AAEXI@Z 10004840 f i BillAcceptor.obj
 0001:00003865       ?Append@CParseBuffer@CRegParser@ATL@@QAEHPB_WH@Z 10004865 f i BillAcceptor.obj
 0001:000038f3       ?AtlCoTaskMemCAlloc@ATL@@YAPAXKK@Z 100048f3 f i BillAcceptor.obj
 0001:00003920       ?AtlCoTaskMemRecalloc@ATL@@YAPAXPAXKK@Z 10004920 f i BillAcceptor.obj
 0001:00003950       ?AtlComModuleGetClassObject@ATL@@YGJPAU_ATL_COM_MODULE70@1@ABU_GUID@@1PAPAX@Z 10004950 f i BillAcceptor.obj
 0001:00003a43       ?AtlComModuleRegisterServer@ATL@@YGJPAU_ATL_COM_MODULE70@1@HPBU_GUID@@@Z 10004a43 f i BillAcceptor.obj
 0001:00003acb       ?AtlComModuleUnregisterServer@ATL@@YGJPAU_ATL_COM_MODULE70@1@HPBU_GUID@@@Z 10004acb f i BillAcceptor.obj
 0001:00003b53       ?AtlComQIPtrAssign2@ATL@@YAXPAPAUIUnknown@@PAU2@ABU_GUID@@@Z 10004b53 f i BillAcceptor.obj
 0001:00003b82       ?AtlCreateTargetDC@ATL@@YGPAUHDC__@@PAU2@PAUtagDVTARGETDEVICE@@@Z 10004b82 f i BillAcceptor.obj
 0001:00003beb       ?AtlCrtErrorCheck@ATL@@YAHH@Z 10004beb f i BillAcceptor.obj
 0001:00003c26       ?AtlHiMetricToPixel@ATL@@YGXPBUtagSIZE@@PAU2@@Z 10004c26 f i BillAcceptor.obj
 0001:00003c9b       ?AtlHresultFromLastError@ATL@@YAJXZ 10004c9b f i BillAcceptor.obj
 0001:00003cb2       ?AtlHresultFromWin32@ATL@@YAJK@Z 10004cb2 f i BillAcceptor.obj
 0001:00003cc7       ?AtlInternalOleLoadFromStream@ATL@@YAJPAUIStream@@ABU_GUID@@PAPAXTClassesAllowedInStream@1@K@Z 10004cc7 f i BillAcceptor.obj
 0001:00003de5       ?AtlInternalQueryInterface@ATL@@YGJPAXPBU_ATL_INTMAP_ENTRY@1@ABU_GUID@@PAPAX@Z 10004de5 f i BillAcceptor.obj
 0001:00003e88       ?AtlLoadTypeLib@ATL@@YGJPAUHINSTANCE__@@PB_WPAPA_WPAPAUITypeLib@@@Z 10004e88 f i BillAcceptor.obj
 0001:00004066       ?AtlRegisterClassCategoriesHelper@ATL@@YGJABU_GUID@@PBU_ATL_CATMAP_ENTRY@1@H@Z 10005066 f i BillAcceptor.obj
 0001:00004362       ?AtlRegisterTypeLib@ATL@@YGJPAUHINSTANCE__@@PB_W@Z 10005362 f i BillAcceptor.obj
 0001:000044ea       ?AtlThrowImpl@ATL@@YGXJ@Z  100054ea f i BillAcceptor.obj
 0001:00004508       ?AtlUnRegisterTypeLib@ATL@@YGJPAUHINSTANCE__@@PB_W@Z 10005508 f i BillAcceptor.obj
 0001:000045b3       ?AtlWinModuleAddCreateWndData@ATL@@YGXPAU_ATL_WIN_MODULE70@1@PAU_AtlCreateWndData@1@PAX@Z 100055b3 f i BillAcceptor.obj
 0001:00004607       ?AtlWinModuleExtractCreateWndData@ATL@@YGPAXPAU_ATL_WIN_MODULE70@1@@Z 10005607 f i BillAcceptor.obj
 0001:0000466a       ?AtlWinModuleRegisterClassExW@ATL@@YGGPAU_ATL_WIN_MODULE70@1@PBUtagWNDCLASSEXW@@@Z 1000566a f i BillAcceptor.obj
 0001:000046a9       ?CanForceRemoveKey@CRegParser@ATL@@IAEHPB_W@Z 100056a9 f i BillAcceptor.obj
 0001:000046d8       ?ChToByte@CRegParser@ATL@@KAE_W@Z 100056d8 f i BillAcceptor.obj
 0001:0000470b       ?Cleanup@CComTypeInfoHolder@ATL@@SGXK@Z 1000570b f i BillAcceptor.obj
 0001:0000473e       ?ClearReplacements@CExpansionVector@ATL@@QAEJXZ 1000573e f i BillAcceptor.obj
 0001:0000477b       ?Close@CRegKey@ATL@@QAEJXZ 1000577b f i BillAcceptor.obj
 0001:00004795       ?CreateInstance@?$CComCreator@V?$CComAggObject@VCOPOSBillAcceptor@@@ATL@@@ATL@@SGJPAXABU_GUID@@PAPAX@Z 10005795 f i BillAcceptor.obj
 0001:0000480a       ?CreateInstance@?$CComCreator@V?$CComObject@VCOPOSBillAcceptor@@@ATL@@@ATL@@SGJPAXABU_GUID@@PAPAX@Z 1000580a f i BillAcceptor.obj
 0001:0000488a       ?CreateInstance@?$CComObject@V?$CComEnum@UIEnumConnectionPoints@@$1?_GUID_b196b285_bab4_101a_b69c_00aa00341d07@@3U__s_GUID@@BPAUIConnectionPoint@@V?$_CopyInterface@UIConnectionPoint@@@ATL@@VCComSingleThreadModel@6@@ATL@@@ATL@@SGJPAPAV12@@Z 1000588a f i BillAcceptor.obj
 0001:000048d4       ?CreateInstance@?$CComObject@V?$CComEnum@UIEnumConnections@@$1?_GUID_b196b287_bab4_101a_b69c_00aa00341d07@@3U__s_GUID@@BUtagCONNECTDATA@@V?$_Copy@UtagCONNECTDATA@@@ATL@@VCComSingleThreadModel@6@@ATL@@@ATL@@SGJPAPAV12@@Z 100058d4 f i BillAcceptor.obj
 0001:0000491e       ?DefaultReflectionHandler@?$CWindowImplRoot@VCWindow@ATL@@@ATL@@SAHPAUHWND__@@IIJAAJ@Z 1000591e f i BillAcceptor.obj
 0001:00004991       ?DeleteSubKey@CRegKey@ATL@@QAEJPB_W@Z 10005991 f i BillAcceptor.obj
 0001:00004a0a       ?DoEvent@COPOSBillAcceptor@@IAEXIIJ@Z 10005a0a f i BillAcceptor.obj
 0001:00004a8a       ?DoVerbHide@?$IOleObjectImpl@VCOPOSBillAcceptor@@@ATL@@QAEJPBUtagRECT@@PAUHWND__@@@Z 10005a8a f i BillAcceptor.obj
 0001:00004ac0       ?DoVerbInPlaceActivate@?$IOleObjectImpl@VCOPOSBillAcceptor@@@ATL@@QAEJPBUtagRECT@@PAUHWND__@@@Z 10005ac0 f i BillAcceptor.obj
 0001:00004af3       ?DoVerbPrimary@?$IOleObjectImpl@VCOPOSBillAcceptor@@@ATL@@QAEJPBUtagRECT@@PAUHWND__@@@Z 10005af3 f i BillAcceptor.obj
 0001:00004b7f       ?DoVerbProperties@CComControlBase@ATL@@QAEJPBUtagRECT@@PAUHWND__@@@Z 10005b7f f i BillAcceptor.obj
 0001:00004cfe       ?DoVerbUIActivate@?$IOleObjectImpl@VCOPOSBillAcceptor@@@ATL@@QAEJPBUtagRECT@@PAUHWND__@@@Z 10005cfe f i BillAcceptor.obj
 0001:00004d3b       ?DoesVerbActivate@CComControlBase@ATL@@QAEHJ@Z 10005d3b f i BillAcceptor.obj
 0001:00004d5c       ?DoesVerbUIActivate@CComControlBase@ATL@@QAEHJ@Z 10005d5c f i BillAcceptor.obj
 0001:00004d91       ?EndOfVar@CRegParser@ATL@@IAEHXZ 10005d91 f i BillAcceptor.obj
 0001:00004db1       ?EscapeSingleQuote@CAtlModule@ATL@@SAXPA_WIPB_W@Z 10005db1 f i BillAcceptor.obj
 0001:00004e00       ?FindKey@?$CSimpleMap@PA_WPA_WVCExpansionVectorEqualHelper@ATL@@@ATL@@QBEHABQA_W@Z 10005e00 f i BillAcceptor.obj
 0001:00004e37       ?FireTheEvent@?$CProxy_IOPOSEvents@VCOPOSBillAcceptor@@@@IAEXPAVOposVariant@@IAAJPB_WJ@Z 10005e37 f i BillAcceptor.obj
 0001:00004ec9       ?FireViewChange@CComControlBase@ATL@@QAEJXZ 10005ec9 f i BillAcceptor.obj
 0001:00004f12       ?Fire_DataEvent@?$CProxy_IOPOSEvents@VCOPOSBillAcceptor@@@@QAEXJ@Z 10005f12 f i BillAcceptor.obj
 0001:00004fa8       ?Fire_DirectIOEvent@?$CProxy_IOPOSEvents@VCOPOSBillAcceptor@@@@QAEXJPAJPAPA_W@Z 10005fa8 f i BillAcceptor.obj
 0001:00005094       ?Fire_StatusUpdateEvent@?$CProxy_IOPOSEvents@VCOPOSBillAcceptor@@@@QAEXJ@Z 10006094 f i BillAcceptor.obj
 0001:0000512a       ?FreeHeap@?$CTempBuffer@_W$0BAA@VCCRTAllocator@ATL@@@ATL@@AAEXXZ 1000612a f i BillAcceptor.obj
 0001:0000512a       ?FreeHeap@?$CTempBuffer@_W$0EAA@VCCRTAllocator@ATL@@@ATL@@AAEXXZ 1000612a f i BillAcceptor.obj
 0001:0000512a       ?FreeHeap@?$CTempBuffer@E$0BAA@VCCRTAllocator@ATL@@@ATL@@AAEXXZ 1000612a f i BillAcceptor.obj
 0001:00005133       ?GetAmbientLocaleID@CComControlBase@ATL@@QAEJAAK@Z 10006133 f i BillAcceptor.obj
 0001:0000518f       ?GetAmbientUserMode@CComControlBase@ATL@@QAEJAAH@Z 1000618f f i BillAcceptor.obj
 0001:000051ff       ?GetAt@CComDynamicUnkArray@ATL@@QAEPAUIUnknown@@H@Z 100061ff f i BillAcceptor.obj
 0001:0000521b       ?GetClassObject@CComModule@ATL@@QAEJABU_GUID@@0PAPAX@Z 1000621b f i BillAcceptor.obj
 0001:000052bd       ?GetConnMap@COPOSBillAcceptor@@SAPBU_ATL_CONNMAP_ENTRY@ATL@@PAH@Z 100062bd f i BillAcceptor.obj
 0001:0000532d       ?GetCookie@CComDynamicUnkArray@ATL@@QAGKPAPAUIUnknown@@@Z 1000632d f i BillAcceptor.obj
 0001:00005365       ?GetIDsOfNames@CComTypeInfoHolder@ATL@@QAEJABU_GUID@@PAPA_WIKPAJ@Z 10006365 f i BillAcceptor.obj
 0001:0000548c       ?GetKeyAt@?$CSimpleMap@PA_WPA_WVCExpansionVectorEqualHelper@ATL@@@ATL@@QBEAAPA_WH@Z 1000648c f i BillAcceptor.obj
 0001:000054b1       ?GetPagesHelper@?$ISpecifyPropertyPagesImpl@VCOPOSBillAcceptor@@@ATL@@IAEJPAUtagCAUUID@@PBUATL_PROPMAP_ENTRY@2@@Z 100064b1 f i BillAcceptor.obj
 0001:000055d8       ?GetProperty@?$CComPtr@UIDispatch@@@ATL@@SAJPAUIDispatch@@JPAUtagVARIANT@@@Z 100065d8 f i BillAcceptor.obj
 0001:00005627       ?GetSizeMax@CComVariant@ATL@@QBEJPAT_ULARGE_INTEGER@@@Z 10006627 f i BillAcceptor.obj
 0001:000057e9       ?GetTI@CComTypeInfoHolder@ATL@@QAEJK@Z 100067e9 f i BillAcceptor.obj
 0001:000059c8       ?GetTI@CComTypeInfoHolder@ATL@@QAEJKPAPAUITypeInfo@@@Z 100069c8 f i BillAcceptor.obj
 0001:00005a0a       ?GetUnknown@CComDynamicUnkArray@ATL@@QAGPAUIUnknown@@K@Z 10006a0a f i BillAcceptor.obj
 0001:00005a2b       ?GetValueAt@?$CSimpleMap@PA_WPA_WVCExpansionVectorEqualHelper@ATL@@@ATL@@QBEAAPA_WH@Z 10006a2b f i BillAcceptor.obj
 0001:00005a51       ?GetZoomInfo@CComControlBase@ATL@@QAEXAAUATL_DRAWINFO@@@Z 10006a51 f i BillAcceptor.obj
 0001:00005ae4       ?HKeyFromString@CRegParser@ATL@@KAPAUHKEY__@@PA_W@Z 10006ae4 f i BillAcceptor.obj
 0001:00005b12       ?HasSubKeys@CRegParser@ATL@@IAEHPAUHKEY__@@@Z 10006b12 f i BillAcceptor.obj
 0001:00005b47       ?IDataObject_GetData@CComControlBase@ATL@@QAEJPAUtagFORMATETC@@PAUtagSTGMEDIUM@@@Z 10006b47 f i BillAcceptor.obj
 0001:00005ced       ?IOleInPlaceObject_InPlaceDeactivate@CComControlBase@ATL@@QAEJXZ 10006ced f i BillAcceptor.obj
 0001:00005d74       ?IOleInPlaceObject_SetObjectRects@CComControlBase@ATL@@QAEJPBUtagRECT@@0@Z 10006d74 f i BillAcceptor.obj
 0001:00005e41       ?IOleInPlaceObject_UIDeactivate@CComControlBase@ATL@@QAEJXZ 10006e41 f i BillAcceptor.obj
 0001:00005f03       ?IOleObject_Advise@CComControlBase@ATL@@QAEJPAUIAdviseSink@@PAK@Z 10006f03 f i BillAcceptor.obj
 0001:00005f2d       ?IOleObject_Close@CComControlBase@ATL@@QAEJK@Z 10006f2d f i BillAcceptor.obj
 0001:00006011       ?IOleObject_GetClientSite@CComControlBase@ATL@@QAEJPAPAUIOleClientSite@@@Z 10007011 f i BillAcceptor.obj
 0001:0000603a       ?IOleObject_SetClientSite@CComControlBase@ATL@@QAEJPAUIOleClientSite@@@Z 1000703a f i BillAcceptor.obj
 0001:00006079       ?IOleObject_SetExtent@CComControlBase@ATL@@QAEJKPAUtagSIZE@@@Z 10007079 f i BillAcceptor.obj
 0001:0000612b       ?IPSI_GetIPersistStreamInit@?$IPersistStorageImpl@VCOPOSBillAcceptor@@@ATL@@AAEPAUIPersistStreamInit@@XZ 1000712b f i BillAcceptor.obj
 0001:000061d3       ?IPersistStreamInit_Load@?$IPersistStreamInitImpl@VCOPOSBillAcceptor@@@ATL@@QAEJPAUIStream@@PBUATL_PROPMAP_ENTRY@2@@Z 100071d3 f i BillAcceptor.obj
 0001:00006448       ?IPersistStreamInit_Save@?$IPersistStreamInitImpl@VCOPOSBillAcceptor@@@ATL@@QAEJPAUIStream@@HPBUATL_PROPMAP_ENTRY@2@@Z 10007448 f i BillAcceptor.obj
 0001:00006636       ?IQuickActivate_QuickActivate@CComControlBase@ATL@@QAEJPAUtagQACONTAINER@@PAUtagQACONTROL@@@Z 10007636 f i BillAcceptor.obj
 0001:00006878       ?IViewObject_Draw@CComControlBase@ATL@@QAEJKJPAXPAUtagDVTARGETDEVICE@@PAUHDC__@@2PBU_RECTL@@3@Z 10007878 f i BillAcceptor.obj
 0001:00006920       ?InPlaceActivate@CComControlBase@ATL@@QAEJJPBUtagRECT@@@Z 10007920 f i BillAcceptor.obj
 0001:00006b91       ?Init@?$CComEnumImpl@UIEnumConnectionPoints@@$1?_GUID_b196b285_bab4_101a_b69c_00aa00341d07@@3U__s_GUID@@BPAUIConnectionPoint@@V?$_CopyInterface@UIConnectionPoint@@@ATL@@@ATL@@QAEJPAPAUIConnectionPoint@@0PAUIUnknown@@W4CComEnumFlags@2@@Z 10007b91 f i BillAcceptor.obj
 0001:00006c70       ?Init@?$CComEnumImpl@UIEnumConnections@@$1?_GUID_b196b287_bab4_101a_b69c_00aa00341d07@@3U__s_GUID@@BUtagCONNECTDATA@@V?$_Copy@UtagCONNECTDATA@@@ATL@@@ATL@@QAEJPAUtagCONNECTDATA@@0PAUIUnknown@@W4CComEnumFlags@2@@Z 10007c70 f i BillAcceptor.obj
 0001:00006d4f       ?Init@CComModule@ATL@@QAEJPAU_ATL_OBJMAP_ENTRY30@2@PAUHINSTANCE__@@PBU_GUID@@@Z 10007d4f f i BillAcceptor.obj
 0001:00006dae       ?Init@CDynamicStdCallThunk2@ATL@@QAEHKPAX@Z 10007dae f i BillAcceptor.obj
 0001:00006dd9       ?InlineIsEqualUnknown@ATL@@YGHABU_GUID@@@Z 10007dd9 f i BillAcceptor.obj
 0001:00006e01       ?InternalSetAtIndex@?$CSimpleMap@PA_WPA_WVCExpansionVectorEqualHelper@ATL@@@ATL@@QAEXHABQA_W0@Z 10007e01 f i BillAcceptor.obj
 0001:00006e2b       ?Invoke@CComTypeInfoHolder@ATL@@QAEJPAUIDispatch@@JABU_GUID@@KGPAUtagDISPPARAMS@@PAUtagVARIANT@@PAUtagEXCEPINFO@@PAI@Z 10007e2b f i BillAcceptor.obj
 0001:00006e6e       ?IsEqualObject@?$CComPtrBase@UIOleClientSite@@@ATL@@QAE_NPAUIUnknown@@@Z 10007e6e f i BillAcceptor.obj
 0001:00006e6e       ?IsEqualObject@?$CComPtrBase@UITypeInfo@@@ATL@@QAE_NPAUIUnknown@@@Z 10007e6e f i BillAcceptor.obj
 0001:00006edb       ?IsSpace@CRegParser@ATL@@IAEH_W@Z 10007edb f i BillAcceptor.obj
 0001:00006f05       ?LoadNameCache@CComTypeInfoHolder@ATL@@QAEJPAUITypeInfo@@@Z 10007f05 f i BillAcceptor.obj
 0001:0000703a       ?Lookup@?$CSimpleMap@PA_WPA_WVCExpansionVectorEqualHelper@ATL@@@ATL@@QBEPA_WABQA_W@Z 1000803a f i BillAcceptor.obj
 0001:00007060       ?NextToken@CRegParser@ATL@@IAEJPA_W@Z 10008060 f i BillAcceptor.obj
 0001:00007198       ?OnKillFocus@CComControlBase@ATL@@QAEJIIJAAH@Z 10008198 f i BillAcceptor.obj
 0001:000071f3       ?OnMouseActivate@CComControlBase@ATL@@QAEJIIJAAH@Z 100081f3 f i BillAcceptor.obj
 0001:00007261       ?OnPaint@CComControlBase@ATL@@QAEJIIJAAH@Z 10008261 f i BillAcceptor.obj
 0001:00007313       ?OnSetFocus@CComControlBase@ATL@@QAEJIIJAAH@Z 10008313 f i BillAcceptor.obj
 0001:0000739c       ?Open@CRegKey@ATL@@QAEJPAUHKEY__@@PB_WK@Z 1000839c f i BillAcceptor.obj
 0001:000073f1       ?PreProcessBuffer@CRegParser@ATL@@QAEJPA_WPAPA_W@Z 100083f1 f i BillAcceptor.obj
 0001:00007660       ?ProcessWindowMessage@?$CComControl@VCOPOSBillAcceptor@@V?$CWindowImpl@VCOPOSBillAcceptor@@VCWindow@ATL@@V?$CWinTraits@$0FGAAAAAA@$0A@@3@@ATL@@@ATL@@UAEHPAUHWND__@@IIJAAJK@Z 10008660 f i BillAcceptor.obj
 0001:000076ff       ?ReadFromStream@CComBSTR@ATL@@QAEJPAUIStream@@@Z 100086ff f i BillAcceptor.obj
 0001:00007822       ?ReadFromStream@CComVariant@ATL@@QAEJPAUIStream@@GTClassesAllowedInStream@2@K@Z 10008822 f i BillAcceptor.obj
 0001:000079ac       ?RecurseDeleteKey@CRegKey@ATL@@QAEJPB_W@Z 100089ac f i BillAcceptor.obj
 0001:00007a9a       ?RegCreateKeyExW@CAtlTransactionManager@ATL@@QAEJPAUHKEY__@@PB_WKPA_WKKQAU_SECURITY_ATTRIBUTES@@PAPAU3@PAK@Z 10008a9a f i BillAcceptor.obj
 0001:00007afd       ?RegDeleteKeyW@CAtlTransactionManager@ATL@@QAEJPAUHKEY__@@PB_W@Z 10008afd f i BillAcceptor.obj
 0001:00007b4f       ?RegOpenKeyExW@CAtlTransactionManager@ATL@@QAEJPAUHKEY__@@PB_WKKPAPAU3@@Z 10008b4f f i BillAcceptor.obj
 0001:00007ba6       ?Register@_ATL_WNDCLASSINFOW@ATL@@QAEGPAP6GJPAUHWND__@@IIJ@Z@Z 10008ba6 f i BillAcceptor.obj
 0001:00007bc6       ?RegisterBuffer@CRegParser@ATL@@QAEJPA_WH@Z 10008bc6 f i BillAcceptor.obj
 0001:00007d0d       ?RegisterFromResource@CRegObject@ATL@@IAEJPB_W00H@Z 10008d0d f i BillAcceptor.obj
 0001:00007e43       ?RegisterServer@?$CAtlModuleT@VCComModule@ATL@@@ATL@@QAEJHPBU_GUID@@@Z 10008e43 f i BillAcceptor.obj
 0001:00007e71       ?RegisterServer@CComModule@ATL@@QAEJHPBU_GUID@@@Z 10008e71 f i BillAcceptor.obj
 0001:00007ee7       ?RegisterSubkeys@CRegParser@ATL@@IAEJPA_WPAUHKEY__@@HH@Z 10008ee7 f i BillAcceptor.obj
 0001:00008594       ?Remove@CComDynamicUnkArray@ATL@@QAEHK@Z 10009594 f i BillAcceptor.obj
 0001:000085bd       ?RemoveAll@?$CSimpleMap@PA_WPA_WVCExpansionVectorEqualHelper@ATL@@@ATL@@QAEXXZ 100095bd f i BillAcceptor.obj
 0001:000085e9       ?ResourceRegisterSz@CRegObject@ATL@@QAGJPB_W00@Z 100095e9 f i BillAcceptor.obj
 0001:00008616       ?ResourceUnregisterSz@CRegObject@ATL@@QAGJPB_W00@Z 10009616 f i BillAcceptor.obj
 0001:00008643       ?SendOnDataChange@CComControlBase@ATL@@QAEJK@Z 10009643 f i BillAcceptor.obj
 0001:00008690       ?SetControlFocus@CComControlBase@ATL@@QAEHH@Z 10009690 f i BillAcceptor.obj
 0001:0000872d       ?SetMultiStringValue@CRegKey@ATL@@QAEJPB_W0@Z 1000972d f i BillAcceptor.obj
 0001:00008789       ?SetStringValue@CRegKey@ATL@@QAEJPB_W0K@Z 10009789 f i BillAcceptor.obj
 0001:000087d2       ?SkipAssignment@CRegParser@ATL@@IAEJPA_W@Z 100097d2 f i BillAcceptor.obj
 0001:00008837       ?SkipWhiteSpace@CRegParser@ATL@@IAEXXZ 10009837 f i BillAcceptor.obj
 0001:00008859       ?StrChrW@CRegParser@ATL@@KAPA_WPA_W_W@Z 10009859 f i BillAcceptor.obj
 0001:00008896       ?Term@CAtlModule@ATL@@QAEXXZ 10009896 f i BillAcceptor.obj
 0001:000088e9       ?Term@CComModule@ATL@@QAEXXZ 100098e9 f i BillAcceptor.obj
 0001:00008941       ?UnregisterServer@?$CAtlModuleT@VCComModule@ATL@@@ATL@@QAEJHPBU_GUID@@@Z 10009941 f i BillAcceptor.obj
 0001:00008967       ?UnregisterServer@CComModule@ATL@@QAEJHPBU_GUID@@@Z 10009967 f i BillAcceptor.obj
 0001:000089dd       ?UpdateRegistryFromResource@CAtlModule@ATL@@QAGJIHPAU_ATL_REGMAP_ENTRY@2@@Z 100099dd f i BillAcceptor.obj
 0001:00008ba8       ?UpdateRegistryFromResource@CAtlModule@ATL@@QAGJPB_WHPAU_ATL_REGMAP_ENTRY@2@@Z 10009ba8 f i BillAcceptor.obj
 0001:00008d79       ?VTFromRegType@CRegParser@ATL@@KAHPB_WAAG@Z 10009d79 f i BillAcceptor.obj
 0001:00008de6       ?WindowProc@?$CWindowImplBaseT@VCWindow@ATL@@V?$CWinTraits@$0FGAAAAAA@$0A@@2@@ATL@@SGJPAUHWND__@@IIJ@Z 10009de6 f i BillAcceptor.obj
 0001:00008ed8       ?WriteToStream@CComBSTR@ATL@@QAEJPAUIStream@@@Z 10009ed8 f i BillAcceptor.obj
 0001:00008f3a       ?WriteToStream@CComVariant@ATL@@QAEJPAUIStream@@@Z 10009f3a f i BillAcceptor.obj
 0001:000090b4       ?WriteToStream@CComVariant@ATL@@QAEJPAUIStream@@G@Z 1000a0b4 f i BillAcceptor.obj
 0001:0000911d       ?_AtlInitialConstruct@?$CComObjectRootEx@VCComMultiThreadModel@ATL@@@ATL@@QAEJXZ 1000a11d f i BillAcceptor.obj
 0001:00009132       ?_AtlVerifyStackAvailable@_ATL_SAFE_ALLOCA_IMPL@ATL@@YA_NK@Z 1000a132 f i BillAcceptor.obj
 0001:000091b0       ?atlCreate@?$CWindowImpl@VCOPOSBillAcceptor@@VCWindow@ATL@@V?$CWinTraits@$0FGAAAAAA@$0A@@3@@ATL@@QAEPAUHWND__@@PAU3@V_U_RECT@2@PB_WKKV_U_MENUorID@2@PAX@Z 1000a1b0 f i BillAcceptor.obj
 0001:000091f4       ?atlCreate@?$CWindowImplBaseT@VCWindow@ATL@@V?$CWinTraits@$0FGAAAAAA@$0A@@2@@ATL@@QAEPAUHWND__@@PAU3@V_U_RECT@2@PB_WKKV_U_MENUorID@2@GPAX@Z 1000a1f4 f i BillAcceptor.obj
 0001:00009290       ?copy@?$_Copy@UtagCONNECTDATA@@@ATL@@SAJPAUtagCONNECTDATA@@PBU3@@Z 1000a290 f i BillAcceptor.obj
 0001:000092c6       ?copy@?$_CopyInterface@UIConnectionPoint@@@ATL@@SAJPAPAUIConnectionPoint@@PBQAU3@@Z 1000a2c6 f i BillAcceptor.obj
 0001:000092f4       ?memcpy_s@Checked@ATL@@YAXPAXIPBXI@Z 1000a2f4 f i BillAcceptor.obj
 0001:00009313       ?ocscpy_s@@YA_NPA_WIPB_W@Z 1000a313 f i BillAcceptor.obj
 0001:0000935d       ?wcscpy_s@Checked@ATL@@YAXPA_WIPB_W@Z 1000a35d f i BillAcceptor.obj
 0001:00009379       _DllCanUnloadNow@0         1000a379 f   BillAcceptor.obj
 0001:00009385       _DllGetClassObject@12      1000a385 f   BillAcceptor.obj
 0001:00009393       _DllMain@12                1000a393 f   BillAcceptor.obj
 0001:000093d5       _DllRegisterServer@0       1000a3d5 f   BillAcceptor.obj
 0001:000093e4       _DllUnregisterServer@0     1000a3e4 f   BillAcceptor.obj
 0001:000093f3       _InlineIsEqualGUID         1000a3f3 f i BillAcceptor.obj
 0001:00009423       ___local_stdio_printf_options 1000a423 f i BillAcceptor.obj
 0001:00009429       __vswprintf_s_l            1000a429 f i BillAcceptor.obj
 0001:000094d6       _swprintf_s                1000a4d6 f i BillAcceptor.obj
 0001:000094f2       ??0?$CComControl@VCOPOSBillAcceptor@@V?$CWindowImpl@VCOPOSBillAcceptor@@VCWindow@ATL@@V?$CWinTraits@$0FGAAAAAA@$0A@@3@@ATL@@@ATL@@QAE@XZ 1000a4f2 f i BillAcceptorImpl.obj
 0001:00009519       ??0CComControlBase@ATL@@QAE@AAPAUHWND__@@@Z 1000a519 f i BillAcceptorImpl.obj
 0001:00009569       ??0COPOSBillAcceptor@@QAE@XZ 1000a569 f   BillAcceptorImpl.obj
 0001:000095bf       ??1?$CComControl@VCOPOSBillAcceptor@@V?$CWindowImpl@VCOPOSBillAcceptor@@VCWindow@ATL@@V?$CWinTraits@$0FGAAAAAA@$0A@@3@@ATL@@@ATL@@UAE@XZ 1000a5bf f i BillAcceptorImpl.obj
 0001:000095d8       ??1?$IConnectionPointImpl@VCOPOSBillAcceptor@@$1?IID_IPropertyNotifySink@@3U_GUID@@BVCComDynamicUnkArray@ATL@@@ATL@@QAE@XZ 1000a5d8 f i BillAcceptorImpl.obj
 0001:000095d8       ??1?$IConnectionPointImpl@VCOPOSBillAcceptor@@$1?DIID__IOPOSBillAcceptorEvents@@3U_GUID@@BVCComDynamicUnkArray@ATL@@@ATL@@QAE@XZ 1000a5d8 f i BillAcceptorImpl.obj
 0001:00009615       ??1CComControlBase@ATL@@UAE@XZ 1000a615 f i BillAcceptorImpl.obj
 0001:00009678       ??1COPOSBillAcceptor@@UAE@XZ 1000a678 f   BillAcceptorImpl.obj
 0001:000096c0       ?AdjustCashCounts@COPOSBillAcceptor@@UAGJPA_WPAJ@Z 1000a6c0 f   BillAcceptorImpl.obj
 0001:00009717       ?BeginDeposit@COPOSBillAcceptor@@UAGJPAJ@Z 1000a717 f   BillAcceptorImpl.obj
 0001:00009732       ?CheckHealth@COPOSBillAcceptor@@UAGJJPAJ@Z 1000a732 f   BillAcceptorImpl.obj
 0001:00009781       ?ClaimDevice@COPOSBillAcceptor@@UAGJJPAJ@Z 1000a781 f   BillAcceptorImpl.obj
 0001:000097f6       ?ClearInput@COPOSBillAcceptor@@UAGJPAJ@Z 1000a7f6 f   BillAcceptorImpl.obj
 0001:00009811       ?Close@COPOSBillAcceptor@@UAGJPAJ@Z 1000a811 f   BillAcceptorImpl.obj
 0001:0000987f       ?CompareFirmwareVersion@COPOSBillAcceptor@@UAGJPA_WPAJ1@Z 1000a87f f   BillAcceptorImpl.obj
 0001:000098ff       ?DirectIO@COPOSBillAcceptor@@UAGJJPAJPAPA_W0@Z 1000a8ff f   BillAcceptorImpl.obj
 0001:000099ad       ?DoInvoke@COPOSBillAcceptor@@IAEJJPAVOposVariant@@IHPAJ_N@Z 1000a9ad f   BillAcceptorImpl.obj
 0001:00009a89       ?EndDeposit@COPOSBillAcceptor@@UAGJJPAJ@Z 1000aa89 f   BillAcceptorImpl.obj
 0001:00009ad8       ?EventClose@COPOSBillAcceptor@@IAEXXZ 1000aad8 f i BillAcceptorImpl.obj
 0001:00009b0b       ?EventInit@COPOSBillAcceptor@@IAEJXZ 1000ab0b f i BillAcceptorImpl.obj
 0001:00009bd7       ?EventUninit@COPOSBillAcceptor@@IAEXXZ 1000abd7 f i BillAcceptorImpl.obj
 0001:00009c29       ?EventWindowProc@COPOSBillAcceptor@@IAGJIIJ@Z 1000ac29 f i BillAcceptorImpl.obj
 0001:00009cc3       ?FinalConstruct@COPOSBillAcceptor@@QAEJXZ 1000acc3 f   BillAcceptorImpl.obj
 0001:00009cfc       ?FireEventCleanup@COPOSBillAcceptor@@IAEXXZ 1000acfc f i BillAcceptorImpl.obj
 0001:00009d12       ?FireEventSetup@COPOSBillAcceptor@@IAE_NXZ 1000ad12 f i BillAcceptorImpl.obj
 0001:00009d46       ?FixDeposit@COPOSBillAcceptor@@UAGJPAJ@Z 1000ad46 f   BillAcceptorImpl.obj
 0001:00009d61       ?FreezeEvents@COPOSBillAcceptor@@MAGJH@Z 1000ad61 f   BillAcceptorImpl.obj
 0001:00009db2       ?GetOposProp@COPOSBillAcceptor@@IAEJJPAFJ@Z 1000adb2 f   BillAcceptorImpl.obj
 0001:00009dd5       ?GetOposProp@COPOSBillAcceptor@@IAEJJPAJJ@Z 1000add5 f   BillAcceptorImpl.obj
 0001:00009ea4       ?GetOposProp@COPOSBillAcceptor@@IAEJJPAPA_WJ@Z 1000aea4 f   BillAcceptorImpl.obj
 0001:00009f80       ?OnDraw@COPOSBillAcceptor@@MAEJAAUATL_DRAWINFO@@@Z 1000af80 f   BillAcceptorImpl.obj
 0001:0000a020       ?Open@COPOSBillAcceptor@@UAGJPA_WPAJ@Z 1000b020 f   BillAcceptorImpl.obj
 0001:0000a862       ?PauseDeposit@COPOSBillAcceptor@@UAGJJPAJ@Z 1000b862 f   BillAcceptorImpl.obj
 0001:0000a8b1       ?ReadCashCounts@COPOSBillAcceptor@@UAGJPAPA_WPAFPAJ@Z 1000b8b1 f   BillAcceptorImpl.obj
 0001:0000a931       ?ReleaseDevice@COPOSBillAcceptor@@UAGJPAJ@Z 1000b931 f   BillAcceptorImpl.obj
 0001:0000a980       ?ResetStatistics@COPOSBillAcceptor@@UAGJPA_WPAJ@Z 1000b980 f   BillAcceptorImpl.obj
 0001:0000a9d7       ?RetrieveStatistics@COPOSBillAcceptor@@UAGJPAPA_WPAJ@Z 1000b9d7 f   BillAcceptorImpl.obj
 0001:0000aa2e       ?SOProcessID@COPOSBillAcceptor@@UAGJPAJ@Z 1000ba2e f   BillAcceptorImpl.obj
 0001:0000aa42       ?SetCOFreezeEvents@COPOSBillAcceptor@@IAEXF@Z 1000ba42 f   BillAcceptorImpl.obj
 0001:0000aae2       ?SetOposProp@COPOSBillAcceptor@@IAEJJJJ@Z 1000bae2 f   BillAcceptorImpl.obj
 0001:0000abd9       ?SetOposProp@COPOSBillAcceptor@@IAEJJPA_WJ@Z 1000bbd9 f   BillAcceptorImpl.obj
 0001:0000acda       ?UpdateFirmware@COPOSBillAcceptor@@UAGJPA_WPAJ@Z 1000bcda f   BillAcceptorImpl.obj
 0001:0000ad31       ?UpdateStatistics@COPOSBillAcceptor@@UAGJPA_WPAJ@Z 1000bd31 f   BillAcceptorImpl.obj
 0001:0000ad88       ?get_BinaryConversion@COPOSBillAcceptor@@UAGJPAJ@Z 1000bd88 f   BillAcceptorImpl.obj
 0001:0000ad9e       ?get_CapCompareFirmwareVersion@COPOSBillAcceptor@@UAGJPAF@Z 1000bd9e f   BillAcceptorImpl.obj
 0001:0000adb7       ?get_CapDiscrepancy@COPOSBillAcceptor@@UAGJPAF@Z 1000bdb7 f   BillAcceptorImpl.obj
 0001:0000add0       ?get_CapFullSensor@COPOSBillAcceptor@@UAGJPAF@Z 1000bdd0 f   BillAcceptorImpl.obj
 0001:0000ade9       ?get_CapJamSensor@COPOSBillAcceptor@@UAGJPAF@Z 1000bde9 f   BillAcceptorImpl.obj
 0001:0000ae02       ?get_CapNearFullSensor@COPOSBillAcceptor@@UAGJPAF@Z 1000be02 f   BillAcceptorImpl.obj
 0001:0000ae1b       ?get_CapPauseDeposit@COPOSBillAcceptor@@UAGJPAF@Z 1000be1b f   BillAcceptorImpl.obj
 0001:0000ae34       ?get_CapPowerReporting@COPOSBillAcceptor@@UAGJPAJ@Z 1000be34 f   BillAcceptorImpl.obj
 0001:0000ae4d       ?get_CapRealTimeData@COPOSBillAcceptor@@UAGJPAF@Z 1000be4d f   BillAcceptorImpl.obj
 0001:0000ae66       ?get_CapStatisticsReporting@COPOSBillAcceptor@@UAGJPAF@Z 1000be66 f   BillAcceptorImpl.obj
 0001:0000ae7f       ?get_CapUpdateFirmware@COPOSBillAcceptor@@UAGJPAF@Z 1000be7f f   BillAcceptorImpl.obj
 0001:0000ae98       ?get_CapUpdateStatistics@COPOSBillAcceptor@@UAGJPAF@Z 1000be98 f   BillAcceptorImpl.obj
 0001:0000aeb1       ?get_CheckHealthText@COPOSBillAcceptor@@UAGJPAPA_W@Z 1000beb1 f   BillAcceptorImpl.obj
 0001:0000aeca       ?get_Claimed@COPOSBillAcceptor@@UAGJPAF@Z 1000beca f   BillAcceptorImpl.obj
 0001:0000aee0       ?get_ControlObjectDescription@COPOSBillAcceptor@@UAGJPAPA_W@Z 1000bee0 f   BillAcceptorImpl.obj
 0001:0000af2e       ?get_ControlObjectVersion@COPOSBillAcceptor@@UAGJPAJ@Z 1000bf2e f   BillAcceptorImpl.obj
 0001:0000af41       ?get_CurrencyCode@COPOSBillAcceptor@@UAGJPAPA_W@Z 1000bf41 f   BillAcceptorImpl.obj
 0001:0000af5a       ?get_DataCount@COPOSBillAcceptor@@UAGJPAJ@Z 1000bf5a f   BillAcceptorImpl.obj
 0001:0000af70       ?get_DataEventEnabled@COPOSBillAcceptor@@UAGJPAF@Z 1000bf70 f   BillAcceptorImpl.obj
 0001:0000af86       ?get_DepositAmount@COPOSBillAcceptor@@UAGJPAJ@Z 1000bf86 f   BillAcceptorImpl.obj
 0001:0000af9f       ?get_DepositCashList@COPOSBillAcceptor@@UAGJPAPA_W@Z 1000bf9f f   BillAcceptorImpl.obj
 0001:0000afb8       ?get_DepositCodeList@COPOSBillAcceptor@@UAGJPAPA_W@Z 1000bfb8 f   BillAcceptorImpl.obj
 0001:0000afd1       ?get_DepositCounts@COPOSBillAcceptor@@UAGJPAPA_W@Z 1000bfd1 f   BillAcceptorImpl.obj
 0001:0000afea       ?get_DepositStatus@COPOSBillAcceptor@@UAGJPAJ@Z 1000bfea f   BillAcceptorImpl.obj
 0001:0000b003       ?get_DeviceDescription@COPOSBillAcceptor@@UAGJPAPA_W@Z 1000c003 f   BillAcceptorImpl.obj
 0001:0000b01c       ?get_DeviceEnabled@COPOSBillAcceptor@@UAGJPAF@Z 1000c01c f   BillAcceptorImpl.obj
 0001:0000b032       ?get_DeviceName@COPOSBillAcceptor@@UAGJPAPA_W@Z 1000c032 f   BillAcceptorImpl.obj
 0001:0000b04b       ?get_FreezeEvents@COPOSBillAcceptor@@UAGJPAF@Z 1000c04b f   BillAcceptorImpl.obj
 0001:0000b061       ?get_FullStatus@COPOSBillAcceptor@@UAGJPAJ@Z 1000c061 f   BillAcceptorImpl.obj
 0001:0000b07a       ?get_OpenResult@COPOSBillAcceptor@@UAGJPAJ@Z 1000c07a f   BillAcceptorImpl.obj
 0001:0000b091       ?get_PowerNotify@COPOSBillAcceptor@@UAGJPAJ@Z 1000c091 f   BillAcceptorImpl.obj
 0001:0000b0a7       ?get_PowerState@COPOSBillAcceptor@@UAGJPAJ@Z 1000c0a7 f   BillAcceptorImpl.obj
 0001:0000b0bd       ?get_RealTimeDataEnabled@COPOSBillAcceptor@@UAGJPAF@Z 1000c0bd f   BillAcceptorImpl.obj
 0001:0000b0d6       ?get_ResultCode@COPOSBillAcceptor@@UAGJPAJ@Z 1000c0d6 f   BillAcceptorImpl.obj
 0001:0000b114       ?get_ResultCodeExtended@COPOSBillAcceptor@@UAGJPAJ@Z 1000c114 f   BillAcceptorImpl.obj
 0001:0000b12a       ?get_ServiceObjectDescription@COPOSBillAcceptor@@UAGJPAPA_W@Z 1000c12a f   BillAcceptorImpl.obj
 0001:0000b143       ?get_ServiceObjectVersion@COPOSBillAcceptor@@UAGJPAJ@Z 1000c143 f   BillAcceptorImpl.obj
 0001:0000b159       ?get_State@COPOSBillAcceptor@@UAGJPAJ@Z 1000c159 f   BillAcceptorImpl.obj
 0001:0000b185       ?put_BinaryConversion@COPOSBillAcceptor@@UAGJJ@Z 1000c185 f   BillAcceptorImpl.obj
 0001:0000b19b       ?put_CurrencyCode@COPOSBillAcceptor@@UAGJPA_W@Z 1000c19b f   BillAcceptorImpl.obj
 0001:0000b1b4       ?put_DataEventEnabled@COPOSBillAcceptor@@UAGJF@Z 1000c1b4 f   BillAcceptorImpl.obj
 0001:0000b1d1       ?put_DeviceEnabled@COPOSBillAcceptor@@UAGJF@Z 1000c1d1 f   BillAcceptorImpl.obj
 0001:0000b1ee       ?put_FreezeEvents@COPOSBillAcceptor@@UAGJF@Z 1000c1ee f   BillAcceptorImpl.obj
 0001:0000b23a       ?put_PowerNotify@COPOSBillAcceptor@@UAGJJ@Z 1000c23a f   BillAcceptorImpl.obj
 0001:0000b250       ?put_RealTimeDataEnabled@COPOSBillAcceptor@@UAGJF@Z 1000c250 f   BillAcceptorImpl.obj
 0001:0000b270       ?s_EventWindowProc@COPOSBillAcceptor@@KGJPAUHWND__@@IIJ@Z 1000c270 f i BillAcceptorImpl.obj
 0001:0000b2c2       ??_U@YAPAXI@Z              1000c2c2 f   LIBCMT:new_array.obj
 0001:0000b2cb       ??3@YAXPAXI@Z              1000c2cb f   LIBCMT:delete_scalar_size.obj
 0001:0000b2d9       ??_V@YAXPAX@Z              1000c2d9 f   LIBCMT:delete_array.obj
 0001:0000b2de       ??_V@YAXPAXI@Z             1000c2de f   LIBCMT:delete_array_size.obj
 0001:0000b330       ___scrt_acquire_startup_lock 1000c330 f   LIBCMT:utility.obj
 0001:0000b362       ___scrt_dllmain_after_initialize_c 1000c362 f   LIBCMT:utility.obj
 0001:0000b38d       ___scrt_dllmain_before_initialize_c 1000c38d f   LIBCMT:utility.obj
 0001:0000b39b       ___scrt_dllmain_crt_thread_attach 1000c39b f   LIBCMT:utility.obj
 0001:0000b3ba       ___scrt_dllmain_crt_thread_detach 1000c3ba f   LIBCMT:utility.obj
 0001:0000b3c7       ___scrt_dllmain_exception_filter 1000c3c7 f   LIBCMT:utility.obj
 0001:0000b3fb       ___scrt_dllmain_uninitialize_c 1000c3fb f   LIBCMT:utility.obj
 0001:0000b41e       ___scrt_dllmain_uninitialize_critical 1000c41e f   LIBCMT:utility.obj
 0001:0000b42b       ___scrt_initialize_crt     1000c42b f   LIBCMT:utility.obj
 0001:0000b464       ___scrt_initialize_onexit_tables 1000c464 f   LIBCMT:utility.obj
 0001:0000b4eb       ___scrt_is_nonwritable_in_current_image 1000c4eb f   LIBCMT:utility.obj
 0001:0000b57f       ___scrt_release_startup_lock 1000c57f f   LIBCMT:utility.obj
 0001:0000b59c       ___scrt_uninitialize_crt   1000c59c f   LIBCMT:utility.obj
 0001:0000b5c4       __onexit                   1000c5c4 f   LIBCMT:utility.obj
 0001:0000b5f1       _atexit                    1000c5f1 f   LIBCMT:utility.obj
 0001:0000b606       ??3@YAXPAX@Z               1000c606 f   LIBCMT:delete_scalar.obj
 0001:0000b6d0       __Init_thread_footer       1000c6d0 f   LIBCMT:thread_safe_statics.obj
 0001:0000b71a       __Init_thread_header       1000c71a f   LIBCMT:thread_safe_statics.obj
 0001:0000b76c       __Init_thread_notify       1000c76c f   LIBCMT:thread_safe_statics.obj
 0001:0000b7a2       __Init_thread_wait         1000c7a2 f   LIBCMT:thread_safe_statics.obj
 0001:0000b7f0       ___raise_securityfailure   1000c7f0 f   LIBCMT:gs_report.obj
 0001:0000b818       ___report_gsfailure        1000c818 f   LIBCMT:gs_report.obj
 0001:0000b911       ___report_rangecheckfailure 1000c911 f   LIBCMT:gs_report.obj
 0001:0000b91d       ___report_securityfailure  1000c91d f   LIBCMT:gs_report.obj
 0001:0000b9eb       ??2@YAPAXIABUnothrow_t@std@@@Z 1000c9eb f   LIBCMT:new_scalar_nothrow.obj
 0001:0000ba40       ??_U@YAPAXIABUnothrow_t@std@@@Z 1000ca40 f   LIBCMT:new_array_nothrow.obj
 0001:0000ba49       @__security_check_cookie@4 1000ca49 f   LIBCMT:secchk.obj
 0001:0000ba60       __SEH_prolog4_GS           1000ca60 f   LIBCMT:sehprolg4gs.obj
 0001:0000baa7       __SEH_epilog4_GS           1000caa7 f   LIBCMT:sehprolg4gs.obj
 0001:0000bac0       __alloca_probe_16          1000cac0 f   LIBCMT:alloca16.obj
 0001:0000bad6       __alloca_probe_8           1000cad6     LIBCMT:alloca16.obj
 0001:0000baf0       __alloca_probe             1000caf0 f   LIBCMT:chkstk.obj
 0001:0000baf0       __chkstk                   1000caf0 f   LIBCMT:chkstk.obj
 0001:0000be5d       __DllMainCRTStartup@12     1000ce5d f   LIBCMT:dll_dllmain.obj
 0001:0000be80       ??2@YAPAXI@Z               1000ce80 f   LIBCMT:new_scalar.obj
 0001:0000beb0       ___isa_available_init      1000ceb0 f   LIBCMT:cpu_disp.obj
 0001:0000c080       ___scrt_is_ucrt_dll_in_use 1000d080 f   LIBCMT:ucrt_detection.obj
 0001:0000c08c       ___scrt_fastfail           1000d08c f   LIBCMT:utility_desktop.obj
 0001:0000c1a6       __crt_debugger_hook        1000d1a6 f   LIBCMT:utility_desktop.obj
 0001:0000c1b0       __SEH_prolog4              1000d1b0 f   LIBCMT:sehprolg4.obj
 0001:0000c1f4       __SEH_epilog4              1000d1f4 f   LIBCMT:sehprolg4.obj
 0001:0000c208       @_guard_check_icall_nop@4  1000d208 f i LIBCMT:guard_support.obj
 0001:0000c258       ___security_init_cookie    1000d258 f   LIBCMT:gs_support.obj
 0001:0000c2a3       ?__scrt_initialize_type_info@@YAXXZ 1000d2a3 f   LIBCMT:tncleanup.obj
 0001:0000c2af       ?__scrt_uninitialize_type_info@@YAXXZ 1000d2af f   LIBCMT:tncleanup.obj
 0001:0000c2bb       ___local_stdio_scanf_options 1000d2bb f i LIBCMT:default_local_stdio_options.obj
 0001:0000c2c1       ___scrt_initialize_default_local_stdio_options 1000d2c1 f   LIBCMT:default_local_stdio_options.obj
 0001:0000c2de       ___scrt_get_dyn_tls_init_callback 1000d2de f   LIBCMT:dyn_tls_init.obj
 0001:0000c2e4       __RTC_Initialize           1000d2e4 f   LIBCMT:initsect.obj
 0001:0000c310       __RTC_Terminate            1000d310 f   LIBCMT:initsect.obj
 0001:0000c33c       ??0bad_alloc@std@@QAE@ABV01@@Z 1000d33c f i LIBCMT:throw_bad_alloc.obj
 0001:0000c357       ??0bad_alloc@std@@QAE@XZ   1000d357 f i LIBCMT:throw_bad_alloc.obj
 0001:0000c36f       ??0bad_array_new_length@std@@QAE@ABV01@@Z 1000d36f f i LIBCMT:throw_bad_alloc.obj
 0001:0000c38a       ??0bad_array_new_length@std@@QAE@XZ 1000d38a f i LIBCMT:throw_bad_alloc.obj
 0001:0000c3a2       ??0exception@std@@QAE@ABV01@@Z 1000d3a2 f i LIBCMT:throw_bad_alloc.obj
 0001:0000c3ce       ??1bad_exception@std@@UAE@XZ 1000d3ce f i libvcruntime:frame.obj
 0001:0000c3ce       ??1bad_array_new_length@std@@UAE@XZ 1000d3ce f i LIBCMT:throw_bad_alloc.obj
 0001:0000c3ce       ??1bad_alloc@std@@UAE@XZ   1000d3ce f i LIBCMT:throw_bad_alloc.obj
 0001:0000c3df       ??_Gbad_exception@std@@UAEPAXI@Z 1000d3df f i libvcruntime:frame.obj
 0001:0000c3df       ??_Gbad_array_new_length@std@@UAEPAXI@Z 1000d3df f i LIBCMT:throw_bad_alloc.obj
 0001:0000c3df       ??_Ebad_alloc@std@@UAEPAXI@Z 1000d3df f i LIBCMT:throw_bad_alloc.obj
 0001:0000c3df       ??_Gbad_alloc@std@@UAEPAXI@Z 1000d3df f i LIBCMT:throw_bad_alloc.obj
 0001:0000c3df       ??_Ebad_array_new_length@std@@UAEPAXI@Z 1000d3df f i LIBCMT:throw_bad_alloc.obj
 0001:0000c3df       ??_Gexception@std@@UAEPAXI@Z 1000d3df f i LIBCMT:throw_bad_alloc.obj
 0001:0000c3df       ??_Eexception@std@@UAEPAXI@Z 1000d3df f i LIBCMT:throw_bad_alloc.obj
 0001:0000c3df       ??_Ebad_exception@std@@UAEPAXI@Z 1000d3df f i libvcruntime:frame.obj
 0001:0000c40c       ?__scrt_throw_std_bad_alloc@@YAXXZ 1000d40c f   LIBCMT:throw_bad_alloc.obj
 0001:0000c429       ?__scrt_throw_std_bad_array_new_length@@YAXXZ 1000d429 f   LIBCMT:throw_bad_alloc.obj
 0001:0000c446       ?what@exception@std@@UBEPBDXZ 1000d446 f i LIBCMT:throw_bad_alloc.obj
 0001:0000c453       ??_Gtype_info@@UAEPAXI@Z   1000d453 f i LIBCMT:std_type_info_static.obj
 0001:0000c453       ??_Etype_info@@UAEPAXI@Z   1000d453 f i LIBCMT:std_type_info_static.obj
 0001:0000c476       ??0CAtlBaseModule@ATL@@QAE@XZ 1000d476 f   atls:atlbase.obj
 0001:0000c4c9       ??0_ATL_BASE_MODULE70@ATL@@QAE@XZ 1000d4c9 f i atls:atlbase.obj
 0001:0000c4ec       ??1CAtlBaseModule@ATL@@QAE@XZ 1000d4ec f   atls:atlbase.obj
 0001:0000c5d9       ?Init@_stdcallthunk@ATL@@QAEHKPAX@Z 1000d5d9 f i atls:atlthunk.obj
 0001:0000c60e       ?__AllocStdCallThunk_cmn@@YAPAXXZ 1000d60e f   atls:atlthunk.obj
 0001:0000c6d4       ?__FreeStdCallThunk_cmn@@YAXPAX@Z 1000d6d4 f   atls:atlthunk.obj
 0001:0000c76f       _AtlThunk_AllocateData@0   1000d76f f   atls:atlthunk.obj
 0001:0000c7d4       _AtlThunk_DataToCode@4     1000d7d4 f   atls:atlthunk.obj
 0001:0000c81b       _AtlThunk_FreeData@4       1000d81b f   atls:atlthunk.obj
 0001:0000c871       _AtlThunk_InitData@12      1000d871 f   atls:atlthunk.obj
 0001:0000c8c0       __get_purecall_handler     1000d8c0 f   libvcruntime:purevirt.obj
 0001:0000c8c6       __purecall                 1000d8c6 f   libvcruntime:purevirt.obj
 0001:0000c8e2       _wcsstr                    1000d8e2 f   libvcruntime:wcsstr.obj
 0001:0000cb90       __except_handler4          1000db90 f   libvcruntime:chandler4.obj
 0001:0000ccee       _memcmp                    1000dcee f   libvcruntime:memcmp.obj
 0001:0000dc00       _memcpy                    1000ec00 f   libvcruntime:memcpy.obj
 0001:0000e180       _memset                    1000f180 f   libvcruntime:memset.obj
 0001:0000e2da       ___vcrt_initialize         1000f2da f   libvcruntime:initialization.obj
 0001:0000e2f9       ___vcrt_thread_attach      1000f2f9 f   libvcruntime:initialization.obj
 0001:0000e304       ___vcrt_thread_detach      1000f304 f   libvcruntime:initialization.obj
 0001:0000e30f       ___vcrt_uninitialize       1000f30f f   libvcruntime:initialization.obj
 0001:0000e326       ___vcrt_uninitialize_critical 1000f326 f   libvcruntime:initialization.obj
 0001:0000e32e       ?GetRangeOfTrysToCheck@__FrameHandler3@@SA?AU?$pair@Viterator@TryBlockMap@__FrameHandler3@@V123@@std@@AAVTryBlockMap@1@HPAXPBU_s_FuncInfo@@H@Z 1000f32e f   libvcruntime:trnsctrl.obj
 0001:0000e39e       ?_CallCatchBlock2@@YAPAXPAUEHRegistrationNode@@PBU_s_FuncInfo@@PAXHK@Z 1000f39e f   libvcruntime:trnsctrl.obj
 0001:0000e3fc       ?_CallSETranslator@@YAHPAUEHExceptionRecord@@PAUEHRegistrationNode@@PAX2PBU_s_FuncInfo@@H1@Z 1000f3fc f   libvcruntime:trnsctrl.obj
 0001:0000e4e2       ?_JumpToContinuation@@YGXPAXPAUEHRegistrationNode@@@Z 1000f4e2 f   libvcruntime:trnsctrl.obj
 0001:0000e512       ?_UnwindNestedFrames@@YGXPAUEHRegistrationNode@@PAUEHExceptionRecord@@@Z 1000f512 f   libvcruntime:trnsctrl.obj
 0001:0000e565       __CatchGuardHandler        1000f565 f   libvcruntime:trnsctrl.obj
 0001:0000e596       __CreateFrameInfo          1000f596 f   libvcruntime:trnsctrl.obj
 0001:0000e5ba       __FindAndUnlinkFrame       1000f5ba f   libvcruntime:trnsctrl.obj
 0001:0000e602       __TranslatorGuardHandler   1000f602 f   libvcruntime:trnsctrl.obj
 0001:0000e69f       ___CxxFrameHandler3        1000f69f f   libvcruntime:trnsctrl.obj
 0001:0000e6d5       ___DestructExceptionObject 1000f6d5 f   libvcruntime:ehhelpers.obj
 0001:0000e776       ?_CallMemberFunction0@@YGXQAX0@Z 1000f776 f i libvcruntime:ehhelpers.obj
 0001:0000e7db       __IsExceptionObjectToBeDestroyed 1000f7db f   libvcruntime:ehhelpers.obj
 0001:0000e801       ___AdjustPointer           1000f801 f   libvcruntime:ehhelpers.obj
 0001:0000e826       ___FrameUnwindFilter       1000f826 f   libvcruntime:ehhelpers.obj
 0001:0000e87c       ___std_type_info_compare   1000f87c f   libvcruntime:std_type_info.obj
 0001:0000e8b8       ___std_type_info_destroy_list 1000f8b8 f   libvcruntime:std_type_info.obj
 0001:0000e8db       ___std_exception_copy      1000f8db f   libvcruntime:std_exception.obj
 0001:0000e93e       ___std_exception_destroy   1000f93e f   libvcruntime:std_exception.obj
 0001:0000e95d       __CxxThrowException@8      1000f95d f   libvcruntime:throw.obj
 0001:0000e9d0       _memmove                   1000f9d0 f   libvcruntime:memmove.obj
 0001:0000ef50       __local_unwind4            1000ff50 f   libvcruntime:exsup4.obj
 0001:0000f024       __seh_longjmp_unwind4@4    10010024 f   libvcruntime:exsup4.obj
 0001:0000f04c       @_EH4_CallFilterFunc@8     1001004c f   libvcruntime:exsup4.obj
 0001:0000f064       @_EH4_TransferToHandler@8  10010064 f   libvcruntime:exsup4.obj
 0001:0000f080       @_EH4_GlobalUnwind2@8      10010080 f   libvcruntime:exsup4.obj
 0001:0000f09c       @_EH4_LocalUnwind@16       1001009c f   libvcruntime:exsup4.obj
 0001:0000f0b3       ___except_validate_context_record 100100b3 f   libvcruntime:jbcxrval.obj
 0001:0000f0e3       ___except_validate_jump_buffer 100100e3 f   libvcruntime:jbcxrval.obj
 0001:0000f110       ___vcrt_freefls@4          10010110 f   libvcruntime:per_thread_data.obj
 0001:0000f12c       ___vcrt_freeptd            1001012c f   libvcruntime:per_thread_data.obj
 0001:0000f162       ___vcrt_getptd             10010162 f   libvcruntime:per_thread_data.obj
 0001:0000f170       ___vcrt_getptd_noexit      10010170 f   libvcruntime:per_thread_data.obj
 0001:0000f202       ___vcrt_initialize_ptd     10010202 f   libvcruntime:per_thread_data.obj
 0001:0000f235       ___vcrt_uninitialize_ptd   10010235 f   libvcruntime:per_thread_data.obj
 0001:0000f250       ___vcrt_initialize_locks   10010250 f   libvcruntime:locks.obj
 0001:0000f28c       ___vcrt_uninitialize_locks 1001028c f   libvcruntime:locks.obj
 0001:0000f9fe       ??$TypeMatchHelper@V__FrameHandler3@@@@YAHPBU_s_HandlerType@@PBU_s_CatchableType@@PBU_s_ThrowInfo@@@Z 100109fe f i libvcruntime:frame.obj
 0001:0000fa8c       ??$__InternalCxxFrameHandler@V__FrameHandler3@@@@YA?AW4_EXCEPTION_DISPOSITION@@PAUEHExceptionRecord@@PAUEHRegistrationNode@@PAU_CONTEXT@@PAXPBU_s_FuncInfo@@H1E@Z 10010a8c f i libvcruntime:frame.obj
 0001:0000fb8e       ??0bad_exception@std@@QAE@ABV01@@Z 10010b8e f i libvcruntime:frame.obj
 0001:0000fba9       ??0bad_exception@std@@QAE@XZ 10010ba9 f i libvcruntime:frame.obj
 0001:0000fbc1       ??8type_info@@QBE_NABV0@@Z 10010bc1 f i libvcruntime:frame.obj
 0001:0000fe2d       ?FrameUnwindToEmptyState@__FrameHandler3@@SAXPAUEHRegistrationNode@@PAXPBU_s_FuncInfo@@@Z 10010e2d f   libvcruntime:frame.obj
 0001:0000fe45       ?FrameUnwindToState@__FrameHandler3@@SAXPAUEHRegistrationNode@@PAXPBU_s_FuncInfo@@H@Z 10010e45 f   libvcruntime:frame.obj
 0001:0000ffc7       ?_CallMemberFunction1@@YGXQAX00@Z 10010fc7 f i libvcruntime:frame.obj
 0001:0000ffd7       ?_CallMemberFunction2@@YGXQAX00H@Z 10010fd7 f i libvcruntime:frame.obj
 0001:0000ffea       ?getESTypes@__FrameHandler3@@SAPBU_s_ESTypeList@@PBU_s_FuncInfo@@@Z 10010fea f i libvcruntime:frame.obj
 0001:00010000       __CallSettingFrame@12      10011000 f   libvcruntime:lowhelpr.obj
 0001:00010027       __NLG_Return               10011027     libvcruntime:lowhelpr.obj
 0001:00010050       __global_unwind2           10011050 f   libvcruntime:exsup.obj
 0001:000100b6       __local_unwind2            100110b6 f   libvcruntime:exsup.obj
 0001:0001013a       __abnormal_termination     1001113a f   libvcruntime:exsup.obj
 0001:00010160       __NLG_Notify1              10011160 f   libvcruntime:exsup.obj
 0001:0001016c       __NLG_Notify               1001116c f   libvcruntime:exsup.obj
 0001:00010183       __NLG_Dispatch             10011183     libvcruntime:exsup.obj
 0001:00010183       __NLG_Dispatch2            10011183     libvcruntime:exsup.obj
 0001:0001018b       __NLG_Call                 1001118b f   libvcruntime:exsup.obj
 0001:0001018d       __NLG_Return2              1001118d     libvcruntime:exsup.obj
 0001:00010271       ___vcrt_FlsAlloc           10011271 f   libvcruntime:winapi_downlevel.obj
 0001:000102ac       ___vcrt_FlsFree            100112ac f   libvcruntime:winapi_downlevel.obj
 0001:000102e7       ___vcrt_FlsGetValue        100112e7 f   libvcruntime:winapi_downlevel.obj
 0001:00010322       ___vcrt_FlsSetValue        10011322 f   libvcruntime:winapi_downlevel.obj
 0001:00010360       ___vcrt_InitializeCriticalSectionEx 10011360 f   libvcruntime:winapi_downlevel.obj
 0001:000103a7       _unexpected                100113a7 f   libvcruntime:unexpected.obj
 0001:000103c4       ?GetCurrentState@__FrameHandler3@@SAHPAUEHRegistrationNode@@PAXPBU_s_FuncInfo@@@Z 100113c4 f   libvcruntime:ehstate.obj
 0001:000103e1       ?SetState@__FrameHandler3@@SAXPAUEHRegistrationNode@@PBU_s_FuncInfo@@H@Z 100113e1 f   libvcruntime:ehstate.obj
 0001:000103ef       _free                      100113ef f   libucrt:free.obj
 0001:0001040a       ___acrt_call_reportfault   1001140a f   libucrt:invalid_parameter.obj
 0001:00010543       ___acrt_initialize_invalid_parameter_handler 10011543 f   libucrt:invalid_parameter.obj
 0001:00010552       __invalid_parameter        10011552 f   libucrt:invalid_parameter.obj
 0001:000105b6       __invalid_parameter_noinfo 100115b6 f   libucrt:invalid_parameter.obj
 0001:000105c6       __invoke_watson            100115c6 f   libucrt:invalid_parameter.obj
 0001:000105fa       ___acrt_errno_from_os_error 100115fa f   libucrt:errno.obj
 0001:0001063d       ___acrt_errno_map_os_error 1001163d f   libucrt:errno.obj
 0001:00010660       ___doserrno                10011660 f   libucrt:errno.obj
 0001:00010673       __errno                    10011673 f   libucrt:errno.obj
 0001:00010686       _calloc                    10011686 f   libucrt:calloc.obj
 0001:00010691       _malloc                    10011691 f   libucrt:malloc.obj
 0001:0001069c       __recalloc                 1001169c f   libucrt:recalloc.obj
 0001:000106a7       __recalloc_base            100116a7 f   libucrt:recalloc.obj
 0001:00010714       __resetstkoflw             10011714 f   libucrt:resetstk.obj
 0001:000107d9       _wcscat_s                  100117d9 f   libucrt:wcscat_s.obj
 0001:0001084e       _wcscpy_s                  1001184e f   libucrt:wcscpy_s.obj
 0001:0001097d       _wcsncpy_s                 1001197d f   libucrt:wcsncpy_s.obj
 0001:00010b89       ??$count@D@formatting_buffer@__crt_stdio_output@@QBEIXZ 10011b89 f i libucrt:output.obj
 0001:00010ba1       ??$count@_W@formatting_buffer@__crt_stdio_output@@QBEIXZ 10011ba1 f i libucrt:output.obj
 0001:00010bba       ??$ensure_buffer_is_big_enough@D@formatting_buffer@__crt_stdio_output@@QAE_NI@Z 10011bba f i libucrt:output.obj
 0001:00010c37       ??$ensure_buffer_is_big_enough@_W@formatting_buffer@__crt_stdio_output@@QAE_NI@Z 10011c37 f i libucrt:output.obj
 0001:00010cb5       ??$is_wide_character_specifier@_W@__crt_stdio_output@@YA_N_K_WW4length_modifier@0@@Z 10011cb5 f i libucrt:output.obj
 0001:00010d03       ??$scratch_data@D@formatting_buffer@__crt_stdio_output@@QAEPADXZ 10011d03 f i libucrt:output.obj
 0001:00010d21       ??$type_case_integer_parse_into_buffer@I@?$output_processor@_WV?$string_output_adapter@_W@__crt_stdio_output@@V?$format_validation_base@_WV?$string_output_adapter@_W@__crt_stdio_output@@@2@@__crt_stdio_output@@AAEXII_N@Z 10011d21 f i libucrt:output.obj
 0001:00010da8       ??$type_case_integer_parse_into_buffer@_K@?$output_processor@_WV?$string_output_adapter@_W@__crt_stdio_output@@V?$format_validation_base@_WV?$string_output_adapter@_W@__crt_stdio_output@@@2@@__crt_stdio_output@@AAEX_KI_N@Z 10011da8 f i libucrt:output.obj
 0001:00010e4a       ??$write_multiple_characters@V?$string_output_adapter@_W@__crt_stdio_output@@D@__crt_stdio_output@@YAXABV?$string_output_adapter@_W@0@DHQAH@Z 10011e4a f i libucrt:output.obj
 0001:00010e7b       ??0?$common_data@_W@__crt_stdio_output@@IAE@XZ 10011e7b f i libucrt:output.obj
 0001:00010ec5       ??0?$output_adapter_data@_WV?$string_output_adapter@_W@__crt_stdio_output@@@__crt_stdio_output@@IAE@ABV?$string_output_adapter@_W@1@_KQB_WQAU__crt_locale_pointers@@QAD@Z 10011ec5 f i libucrt:output.obj
 0001:00010f01       ??0_LocaleUpdate@@QAE@QAU__crt_locale_pointers@@@Z 10011f01 f i libucrt:output.obj
 0001:00010f84       ??1formatting_buffer@__crt_stdio_output@@QAE@XZ 10011f84 f i libucrt:output.obj
 0001:00010f9e       ??4?$__crt_unique_heap_ptr@DU__crt_internal_free_policy@@@@QAEAAV0@$$QAV0@@Z 10011f9e f i libucrt:output.obj
 0001:00010fd0       ?crop_zeroes@__crt_stdio_output@@YAXPADQAU__crt_locale_pointers@@@Z 10011fd0 f i libucrt:output.obj
 0001:00011051       ?find_next_state@?$output_processor@_WV?$string_output_adapter@_W@__crt_stdio_output@@V?$format_validation_base@_WV?$string_output_adapter@_W@__crt_stdio_output@@@2@@__crt_stdio_output@@ABE?AW4state@2@_WW432@@Z 10012051 f i libucrt:output.obj
 0001:00011090       ?force_decimal_point@__crt_stdio_output@@YAXPADQAU__crt_locale_pointers@@@Z 10012090 f i libucrt:output.obj
 0001:000110f5       ?parse_int_from_format_string@?$output_processor@_WV?$string_output_adapter@_W@__crt_stdio_output@@V?$format_validation_base@_WV?$string_output_adapter@_W@__crt_stdio_output@@@2@@__crt_stdio_output@@AAE_NQAH@Z 100120f5 f i libucrt:output.obj
 0001:0001116b       ?process@?$output_processor@_WV?$string_output_adapter@_W@__crt_stdio_output@@V?$format_validation_base@_WV?$string_output_adapter@_W@__crt_stdio_output@@@2@@__crt_stdio_output@@QAEHXZ 1001216b f i libucrt:output.obj
 0001:00011293       ?state_case_flag@?$output_processor@_WV?$string_output_adapter@_W@__crt_stdio_output@@V?$format_validation_base@_WV?$string_output_adapter@_W@__crt_stdio_output@@@2@@__crt_stdio_output@@AAE_NXZ 10012293 f i libucrt:output.obj
 0001:000112d0       ?state_case_normal@?$output_processor@_WV?$string_output_adapter@_W@__crt_stdio_output@@V?$format_validation_base@_WV?$string_output_adapter@_W@__crt_stdio_output@@@2@@__crt_stdio_output@@AAE_NXZ 100122d0 f i libucrt:output.obj
 0001:000112ef       ?state_case_normal_common@?$output_processor@_WV?$string_output_adapter@_W@__crt_stdio_output@@V?$format_validation_base@_WV?$string_output_adapter@_W@__crt_stdio_output@@@2@@__crt_stdio_output@@AAE_NXZ 100122ef f i libucrt:output.obj
 0001:0001130a       ?state_case_precision@?$output_processor@_WV?$string_output_adapter@_W@__crt_stdio_output@@V?$format_validation_base@_WV?$string_output_adapter@_W@__crt_stdio_output@@@2@@__crt_stdio_output@@AAE_NXZ 1001230a f i libucrt:output.obj
 0001:00011331       ?state_case_size@?$output_processor@_WV?$string_output_adapter@_W@__crt_stdio_output@@V?$format_validation_base@_WV?$string_output_adapter@_W@__crt_stdio_output@@@2@@__crt_stdio_output@@AAE_NXZ 10012331 f i libucrt:output.obj
 0001:000114a9       ?state_case_type@?$output_processor@_WV?$string_output_adapter@_W@__crt_stdio_output@@V?$format_validation_base@_WV?$string_output_adapter@_W@__crt_stdio_output@@@2@@__crt_stdio_output@@AAE_NXZ 100124a9 f i libucrt:output.obj
 0001:00011706       ?state_case_width@?$output_processor@_WV?$string_output_adapter@_W@__crt_stdio_output@@V?$format_validation_base@_WV?$string_output_adapter@_W@__crt_stdio_output@@@2@@__crt_stdio_output@@AAE_NXZ 10012706 f i libucrt:output.obj
 0001:00011740       ?to_integer_size@__crt_stdio_output@@YAIW4length_modifier@1@@Z 10012740 f i libucrt:output.obj
 0001:0001179c       ?type_case_Z@?$output_processor@_WV?$string_output_adapter@_W@__crt_stdio_output@@V?$format_validation_base@_WV?$string_output_adapter@_W@__crt_stdio_output@@@2@@__crt_stdio_output@@AAE_NXZ 1001279c f i libucrt:output.obj
 0001:000117f6       ?type_case_a@?$output_processor@_WV?$string_output_adapter@_W@__crt_stdio_output@@V?$format_validation_base@_WV?$string_output_adapter@_W@__crt_stdio_output@@@2@@__crt_stdio_output@@AAE_NXZ 100127f6 f i libucrt:output.obj
 0001:0001195d       ?type_case_c_tchar@?$output_processor@_WV?$string_output_adapter@_W@__crt_stdio_output@@V?$format_validation_base@_WV?$string_output_adapter@_W@__crt_stdio_output@@@2@@__crt_stdio_output@@AAE_N_W@Z 1001295d f i libucrt:output.obj
 0001:000119f3       ?type_case_integer@?$output_processor@_WV?$string_output_adapter@_W@__crt_stdio_output@@V?$format_validation_base@_WV?$string_output_adapter@_W@__crt_stdio_output@@@2@@__crt_stdio_output@@AAE_NI_N@Z 100129f3 f i libucrt:output.obj
 0001:00011b48       ?type_case_n@?$output_processor@_WV?$string_output_adapter@_W@__crt_stdio_output@@V?$format_validation_base@_WV?$string_output_adapter@_W@__crt_stdio_output@@@2@@__crt_stdio_output@@AAE_NXZ 10012b48 f i libucrt:output.obj
 0001:00011bbc       ?type_case_o@?$output_processor@_WV?$string_output_adapter@_W@__crt_stdio_output@@V?$format_validation_base@_WV?$string_output_adapter@_W@__crt_stdio_output@@@2@@__crt_stdio_output@@AAE_NXZ 10012bbc f i libucrt:output.obj
 0001:00011bdb       ?type_case_p@?$output_processor@_WV?$string_output_adapter@_W@__crt_stdio_output@@V?$format_validation_base@_WV?$string_output_adapter@_W@__crt_stdio_output@@@2@@__crt_stdio_output@@AAE_NXZ 10012bdb f i libucrt:output.obj
 0001:00011bf3       ?type_case_s@?$output_processor@_WV?$string_output_adapter@_W@__crt_stdio_output@@V?$format_validation_base@_WV?$string_output_adapter@_W@__crt_stdio_output@@@2@@__crt_stdio_output@@AAE_NXZ 10012bf3 f i libucrt:output.obj
 0001:00011c66       ?type_case_s_compute_narrow_string_length@?$output_processor@_WV?$string_output_adapter@_W@__crt_stdio_output@@V?$format_validation_base@_WV?$string_output_adapter@_W@__crt_stdio_output@@@2@@__crt_stdio_output@@ABEHH_W@Z 10012c66 f i libucrt:output.obj
 0001:00011cad       ?validate@?$c_string_character_source@_W@__crt_strtox@@QBE_NXZ 10012cad f i libucrt:atox.obj
 0001:00011cad       ?validate@?$string_output_adapter@_W@__crt_stdio_output@@QBE_NXZ 10012cad f i libucrt:output.obj
 0001:00011cc8       ?validate_and_update_state_at_end_of_format_string@?$format_validation_base@_WV?$string_output_adapter@_W@__crt_stdio_output@@@__crt_stdio_output@@IBE_NXZ 10012cc8 f i libucrt:output.obj
 0001:00011cea       ?write_character@?$string_output_adapter@_W@__crt_stdio_output@@QBE_N_WQAH@Z 10012cea f i libucrt:output.obj
 0001:00011d2f       ?write_stored_string_tchar@?$output_processor@_WV?$string_output_adapter@_W@__crt_stdio_output@@V?$format_validation_base@_WV?$string_output_adapter@_W@__crt_stdio_output@@@2@@__crt_stdio_output@@AAE_N_W@Z 10012d2f f i libucrt:output.obj
 0001:00011dbc       ?write_string@?$string_output_adapter@_W@__crt_stdio_output@@QBEXQB_WHQAHAAV__crt_deferred_errno_cache@@@Z 10012dbc f i libucrt:output.obj
 0001:00011e2d       ___acrt_locale_get_ctype_array_value 10012e2d f i libucrt:output.obj
 0001:00011e4f       ___stdio_common_vswprintf_s 10012e4f f   libucrt:output.obj
 0001:00011e73       __seh_filter_dll           10012e73 f   libucrt:exception_filter.obj
 0001:00011e93       __seh_filter_exe           10012e93 f   libucrt:exception_filter.obj
 0001:00012261       ___acrt_initialize_thread_local_exit_callback 10013261 f   libucrt:exit.obj
 0001:00012270       __cexit                    10013270 f   libucrt:exit.obj
 0001:0001227f       __exit                     1001327f f   libucrt:exit.obj
 0001:00012295       __is_c_termination_complete 10013295 f   libucrt:exit.obj
 0001:00012546       ___acrt_allocate_buffer_for_argv 10013546 f   libucrt:argv_parsing.obj
 0001:00012595       __configure_narrow_argv    10013595 f   libucrt:argv_parsing.obj
 0001:000126f2       ??$uninitialize@A6AXAAPAPAD@Z@?$dual_state_global@PAPAD@__crt_state_management@@QAEXA6AXAAPAPAD@Z@Z 100136f2 f i libucrt:environment_initialization.obj
 0001:000126f2       ??$uninitialize@A6AXAAPAPA_W@Z@?$dual_state_global@PAPA_W@__crt_state_management@@QAEXA6AXAAPAPA_W@Z@Z 100136f2 f i libucrt:environment_initialization.obj
 0001:00012751       ___dcrt_uninitialize_environments_nolock 10013751 f   libucrt:environment_initialization.obj
 0001:00012788       __initialize_narrow_environment 10013788 f   libucrt:environment_initialization.obj
 0001:00012843       ??$__crt_fast_encode_pointer@PAP6AXXZ@@YAPAP6AXXZQAP6AXXZ@Z 10013843 f i libucrt:onexit.obj
 0001:00012843       ??$__crt_fast_encode_pointer@PAX@@YAPAXQAX@Z 10013843 f i libucrt:initialization.obj
 0001:00012843       ??$__crt_fast_encode_pointer@P6AHXZ@@YAP6AHXZQ6AHXZ@Z 10013843 f i libucrt:onexit.obj
 0001:00012a65       __crt_atexit               10013a65 f   libucrt:onexit.obj
 0001:00012a7b       __execute_onexit_table     10013a7b f   libucrt:onexit.obj
 0001:00012aa8       __initialize_onexit_table  10013aa8 f   libucrt:onexit.obj
 0001:00012ad1       __register_onexit_function 10013ad1 f   libucrt:onexit.obj
 0001:00012b2b       ___acrt_uninitialize_command_line 10013b2b f   libucrt:argv_data.obj
 0001:00012c02       ___acrt_initialize         10013c02 f   libucrt:initialization.obj
 0001:00012c14       ___acrt_thread_attach      10013c14 f   libucrt:initialization.obj
 0001:00012c1f       ___acrt_thread_detach      10013c1f f   libucrt:initialization.obj
 0001:00012c27       ___acrt_uninitialize       10013c27 f   libucrt:initialization.obj
 0001:00012c57       ___acrt_uninitialize_critical 10013c57 f   libucrt:initialization.obj
 0001:00012c69       __initterm                 10013c69 f   libucrt:initterm.obj
 0001:00012cae       __initterm_e               10013cae f   libucrt:initterm.obj
 0001:00012cdc       ___acrt_initialize_new_handler 10013cdc f   libucrt:new_handler.obj
 0001:00012ceb       __callnewh                 10013ceb f   libucrt:new_handler.obj
 0001:00012d18       __query_new_handler        10013d18 f   libucrt:new_handler.obj
 0001:00012d74       _terminate                 10013d74 f   libucrt:terminate.obj
 0001:00012db0       _abort                     10013db0 f   libucrt:abort.obj
 0001:00012df4       _strcpy_s                  10013df4 f   libucrt:strcpy_s.obj
 0001:00012e4e       ??$is_overflow_condition@K@__crt_strtox@@YA_NIK@Z 10013e4e f i libucrt:atox.obj
 0001:00012e7f       ??$parse_integer@KV?$c_string_character_source@_W@__crt_strtox@@@__crt_strtox@@YAKQAU__crt_locale_pointers@@V?$c_string_character_source@_W@0@H_N@Z 10013e7f f i libucrt:atox.obj
 0001:00013487       ?unget@?$c_string_character_source@_W@__crt_strtox@@QAEX_W@Z 10014487 f i libucrt:atox.obj
 0001:000134c0       _strncmp                   100144c0 f   libucrt:strncmp.obj
 0001:00013538       _wcsncmp                   10014538 f   libucrt:wcsncmp.obj
 0001:00013572       __free_base                10014572 f   libucrt:free_base.obj
 0001:000138ea       ___acrt_freeptd            100148ea f   libucrt:per_thread_data.obj
 0001:00013916       ___acrt_getptd             10014916 f   libucrt:per_thread_data.obj
 0001:000139d3       ___acrt_getptd_head        100149d3 f   libucrt:per_thread_data.obj
 0001:00013a6d       ___acrt_getptd_noexit      10014a6d f   libucrt:per_thread_data.obj
 0001:00013b22       ___acrt_initialize_ptd     10014b22 f   libucrt:per_thread_data.obj
 0001:00013b4e       ___acrt_uninitialize_ptd   10014b4e f   libucrt:per_thread_data.obj
 0001:00013b68       __calloc_base              10014b68 f   libucrt:calloc_base.obj
 0001:00013bc5       __malloc_base              10014bc5 f   libucrt:malloc_base.obj
 0001:00013c13       __msize_base               10014c13 f   libucrt:msize.obj
 0001:00013c46       __realloc_base             10014c46 f   libucrt:realloc_base.obj
 0001:00013e47       ___acrt_AppPolicyGetProcessTerminationMethodInternal@4 10014e47 f   libucrt:winapi_thunks.obj
 0001:00013e87       ___acrt_AreFileApisANSI@0  10014e87 f   libucrt:winapi_thunks.obj
 0001:00013ea6       ___acrt_FlsAlloc@4         10014ea6 f   libucrt:winapi_thunks.obj
 0001:00013ee5       ___acrt_FlsFree@4          10014ee5 f   libucrt:winapi_thunks.obj
 0001:00013f24       ___acrt_FlsGetValue@4      10014f24 f   libucrt:winapi_thunks.obj
 0001:00013f63       ___acrt_FlsSetValue@8      10014f63 f   libucrt:winapi_thunks.obj
 0001:00013fa5       ___acrt_InitializeCriticalSectionEx@12 10014fa5 f   libucrt:winapi_thunks.obj
 0001:00013ff0       ___acrt_LCMapStringEx@36   10014ff0 f   libucrt:winapi_thunks.obj
 0001:0001404d       ___acrt_LocaleNameToLCID@8 1001504d f   libucrt:winapi_thunks.obj
 0001:0001407e       ___acrt_SetThreadStackGuarantee@4 1001507e f   libucrt:winapi_thunks.obj
 0001:000140b9       ___acrt_initialize_winapi_thunks 100150b9 f   libucrt:winapi_thunks.obj
 0001:000140e4       ___acrt_uninitialize_winapi_thunks 100150e4 f   libucrt:winapi_thunks.obj
 0001:0001411a       ??$make_c_string_character_source@_WPAPA_W@__crt_strtox@@YA?AV?$c_string_character_source@_W@0@QB_WQAPA_W@Z 1001511a f i libucrt:strtox.obj
 0001:00014135       _wcstol                    10015135 f   libucrt:strtox.obj
 0001:0001415f       __mbtowc_l                 1001515f f   libucrt:mbtowc.obj
 0001:000142a1       _mbtowc                    100152a1 f   libucrt:mbtowc.obj
 0001:000142bb       _wcsnlen                   100152bb f   libucrt:strnlen.obj
 0001:0001446b       ___acrt_update_locale_info 1001546b f   libucrt:locale_update.obj
 0001:00014498       ___acrt_update_multibyte_info 10015498 f   libucrt:locale_update.obj
 0001:000144c5       ?__acrt_fp_classify@@YA?AW4__acrt_fp_class@@ABN@Z 100154c5 f i libucrt:cvt.obj
 0001:00014e77       ___acrt_fp_format          10015e77 f   libucrt:cvt.obj
 0001:00014fd5       __fileno                   10015fd5 f   libucrt:fileno.obj
 0001:00014ffc       ___acrt_initialize_stdio   10015ffc f   libucrt:_file.obj
 0001:000150c4       ___acrt_uninitialize_stdio 100160c4 f   libucrt:_file.obj
 0001:00015110       __lock_file                10016110 f   libucrt:_file.obj
 0001:00015124       __unlock_file              10016124 f   libucrt:_file.obj
 0001:00015138       __get_printf_count_output  10016138 f   libucrt:printf_count_output.obj
 0001:000151bb       ___acrt_set_locale_changed 100161bb f   libucrt:wsetlocale.obj
 0001:000151c6       ___acrt_uninitialize_locale 100161c6 f   libucrt:wsetlocale.obj
 0001:00015357       ___acrt_initialize_lowio   10016357 f   libucrt:ioinit.obj
 0001:000153b7       ___acrt_uninitialize_lowio 100163b7 f   libucrt:ioinit.obj
 0001:000153e3       ___acrt_initialize_locks   100163e3 f   libucrt:locks.obj
 0001:00015424       ___acrt_lock               10016424 f   libucrt:locks.obj
 0001:0001543b       ___acrt_uninitialize_locks 1001643b f   libucrt:locks.obj
 0001:0001546c       ___acrt_unlock             1001646c f   libucrt:locks.obj
 0001:00015483       ___acrt_get_process_end_policy 10016483 f   libucrt:win_policies.obj
 0001:0001564d       ??$__acrt_mbs_to_wcs_cp@U__crt_win32_buffer_internal_dynamic_resizing@@@@YAHQBDAAV?$__crt_win32_buffer@_WU__crt_win32_buffer_internal_dynamic_resizing@@@@I@Z 1001664d f i libucrt:argv_wildcards.obj
 0001:00015b61       ?__acrt_get_utf8_acp_compatibility_codepage@@YAIXZ 10016b61 f i libucrt:argv_wildcards.obj
 0001:00015ba0       ?_deallocate@?$__crt_win32_buffer@_WU__crt_win32_buffer_internal_dynamic_resizing@@@@AAEXXZ 10016ba0 f i libucrt:argv_wildcards.obj
 0001:00015ba0       ?_deallocate@?$__crt_win32_buffer@DU__crt_win32_buffer_internal_dynamic_resizing@@@@AAEXXZ 10016ba0 f i libucrt:argv_wildcards.obj
 0001:00015bba       ?allocate@?$__crt_win32_buffer@DU__crt_win32_buffer_internal_dynamic_resizing@@@@QAEHI@Z 10016bba f i libucrt:argv_wildcards.obj
 0001:00015bf6       ?allocate@?$__crt_win32_buffer@_WU__crt_win32_buffer_internal_dynamic_resizing@@@@QAEHI@Z 10016bf6 f i libucrt:argv_wildcards.obj
 0001:00015c35       ?allocate@__crt_win32_buffer_internal_dynamic_resizing@@SAHQAPAXIABV__crt_win32_buffer_empty_debug_info@@@Z 10016c35 f i libucrt:argv_wildcards.obj
 0001:00015cdb       ___acrt_expand_narrow_argv_wildcards 10016cdb f   libucrt:argv_wildcards.obj
 0001:00015dad       ?allocate@?$__crt_win32_buffer@DU__crt_win32_buffer_no_resizing@@@@QAEHI@Z 10016dad f i libucrt:getmodulefilenamea.obj
 0001:00015dd4       ?set_to_nullptr@?$__crt_win32_buffer@DU__crt_win32_buffer_no_resizing@@@@QAEXXZ 10016dd4 f i libucrt:getmodulefilenamea.obj
 0001:00015de8       ___acrt_GetModuleFileNameA 10016de8 f   libucrt:getmodulefilenamea.obj
 0001:000163a1       ___acrt_initialize_multibyte 100173a1 f   libucrt:mbctype.obj
 0001:000163e9       ___acrt_update_thread_multibyte_data 100173e9 f   libucrt:mbctype.obj
 0001:000163fc       __setmbcp_nolock           100173fc f   libucrt:mbctype.obj
 0001:000166c7       __ismbblead                100176c7 f   libucrt:ismbbyte.obj
 0001:000166df       ___acrt_initialize_command_line 100176df f   libucrt:argv_data.obj
 0001:000166f8       ___acrt_MultiByteToWideChar 100176f8 f   libucrt:multibytetowidechar.obj
 0001:00016774       ___acrt_WideCharToMultiByte 10017774 f   libucrt:widechartomultibyte.obj
 0001:00016862       ___dcrt_get_narrow_environment_from_os 10017862 f   libucrt:get_environment_from_os.obj
 0001:000168e6       ___acrt_initialize_heap    100178e6 f   libucrt:heap_handle.obj
 0001:000168f7       ___acrt_uninitialize_heap  100178f7 f   libucrt:heap_handle.obj
 0001:00016901       ___acrt_execute_initializers 10017901 f   libucrt:shared_initialization.obj
 0001:00016969       ___acrt_execute_uninitializers 10017969 f   libucrt:shared_initialization.obj
 0001:00016a68       ___acrt_get_sigabrt_handler 10017a68 f   libucrt:signal.obj
 0001:00016a8f       ___acrt_initialize_signal_handlers 10017a8f f   libucrt:signal.obj
 0001:00016aad       _raise                     10017aad f   libucrt:signal.obj
 0001:00016ca0       ___acrt_has_user_matherr   10017ca0 f   libucrt:matherr.obj
 0001:00016cb8       ___acrt_initialize_user_matherr 10017cb8 f   libucrt:matherr.obj
 0001:00016cc7       ___acrt_invoke_user_matherr 10017cc7 f   libucrt:matherr.obj
 0001:00016ed6       ___acrt_stdio_flush_nolock 10017ed6 f   libucrt:fflush.obj
 0001:00016f3b       __fflush_nolock            10017f3b f   libucrt:fflush.obj
 0001:00016f83       __flushall                 10017f83 f   libucrt:fflush.obj
 0001:00016f8c       ___pctype_func             10017f8c f   libucrt:ctype.obj
 0001:00016fb0       _iswctype                  10017fb0 f   libucrt:iswctype.obj
 0001:00017019       ___acrt_add_locale_ref     10018019 f   libucrt:locale_refcounting.obj
 0001:00017096       ___acrt_free_locale        10018096 f   libucrt:locale_refcounting.obj
 0001:000171de       ___acrt_locale_add_lc_time_reference 100181de f   libucrt:locale_refcounting.obj
 0001:00017207       ___acrt_locale_free_lc_time_if_unreferenced 10018207 f   libucrt:locale_refcounting.obj
 0001:00017238       ___acrt_locale_release_lc_time_reference 10018238 f   libucrt:locale_refcounting.obj
 0001:00017261       ___acrt_release_locale_ref 10018261 f   libucrt:locale_refcounting.obj
 0001:000172e2       ___acrt_update_thread_locale_data 100182e2 f   libucrt:locale_refcounting.obj
 0001:00017363       __updatetlocinfoEx_nolock  10018363 f   libucrt:locale_refcounting.obj
 0001:000173b3       __query_new_mode           100183b3 f   libucrt:new_mode.obj
 0001:0001740a       ___acrt_DownlevelLocaleNameToLCID 1001840a f   libucrt:lcidtoname_downlevel.obj
 0001:00017436       __isleadbyte_l             10018436 f i libucrt:_wctype.obj
 0001:0001749c       ?__mbrtowc_utf8@__crt_mbstring@@YAIPA_WPBDIPAU_Mbstatet@@@Z 1001849c f   libucrt:mbrtowc.obj
 0001:000174dc       ?__mbsrtowcs_utf8@__crt_mbstring@@YAIPA_WPAPBDIPAU_Mbstatet@@@Z 100184dc f   libucrt:mbrtowc.obj
 0001:000175d7       ?return_illegal_sequence@__crt_mbstring@@YAIPAU_Mbstatet@@@Z 100185d7 f i libucrt:c32rtomb.obj
 0001:00017661       ___acrt_fp_strflt_to_string 10018661 f   libucrt:_fptostr.obj
 0001:00017740       ?divide@__crt_strtox@@YA_KAAUbig_integer@1@ABU21@@Z 10018740 f i libucrt:cfout.obj
 0001:00017bd8       ___acrt_fltout             10018bd8 f   libucrt:cfout.obj
 0001:000190df       _fegetround                1001a0df f   libucrt:fegetround.obj
 0001:000190ec       __fcloseall                1001a0ec f   libucrt:closeall.obj
 0001:00019197       ___acrt_stdio_free_buffer_nolock 1001a197 f   libucrt:_freebuf.obj
 0001:000191d7       __isatty                   1001a1d7 f   libucrt:isatty.obj
 0001:0001922d       ___acrt_locale_free_monetary 1001a22d f   libucrt:initmon.obj
 0001:0001932b       ___acrt_locale_free_numeric 1001a32b f   libucrt:initnum.obj
 0001:000193cc       ___acrt_locale_free_time   1001a3cc f   libucrt:inittime.obj
 0001:000194b0       ___acrt_GetStringTypeA     1001a4b0 f   libucrt:getstringtypea.obj
 0001:000195b3       __freea_crt                1001a5b3 f i libucrt:getstringtypea.obj
 0001:000195d3       ___acrt_lowio_create_handle_array 1001a5d3 f   libucrt:osfinfo.obj
 0001:0001964e       ___acrt_lowio_destroy_handle_array 1001a64e f   libucrt:osfinfo.obj
 0001:00019683       ___acrt_lowio_ensure_fh_exists 1001a683 f   libucrt:osfinfo.obj
 0001:00019721       ___acrt_lowio_lock_fh      1001a721 f   libucrt:osfinfo.obj
 0001:00019744       ___acrt_lowio_unlock_fh    1001a744 f   libucrt:osfinfo.obj
 0001:00019767       __free_osfhnd              1001a767 f   libucrt:osfinfo.obj
 0001:000197f8       __get_osfhandle            1001a7f8 f   libucrt:osfinfo.obj
 0001:00019870       _qsort                     1001a870 f   libucrt:qsort.obj
 0001:00019e11       _strncpy_s                 1001ae11 f   libucrt:strncpy_s.obj
 0001:00019e20       _strpbrk                   1001ae20 f   libucrt:strpbrk.obj
 0001:00019e60       __mbsdec                   1001ae60 f   libucrt:mbsdec.obj
 0001:00019e77       __mbsdec_l                 1001ae77 f   libucrt:mbsdec.obj
 0001:0001a0ee       ___acrt_LCMapStringA       1001b0ee f   libucrt:lcmapstringa.obj
 0001:0001a1e8       __commit                   1001b1e8 f   libucrt:commit.obj
 0001:0001a9e0       __write                    1001b9e0 f   libucrt:write.obj
 0001:0001aad2       __write_nolock             1001bad2 f   libucrt:write.obj
 0001:0001acac       ___acrt_GetStringTypeW     1001bcac f   libucrt:getstringtypew.obj
 0001:0001acc5       ___ascii_wcsnicmp          1001bcc5 f   libucrt:wcsnicmp.obj
 0001:0001ad14       ?__mbrtoc32_utf8@__crt_mbstring@@YAIPA_UPBDIPAU_Mbstatet@@@Z 1001bd14 f   libucrt:mbrtoc32.obj
 0001:0001aebb       __controlfp_s              1001bebb f   libucrt:contrlfp.obj
 0001:0001af1a       _fegetenv                  1001bf1a f   libucrt:fegetenv.obj
 0001:0001af37       _fesetenv                  1001bf37 f   libucrt:fesetenv.obj
 0001:0001af82       _feholdexcept              1001bf82 f   libucrt:feholdexcept.obj
 0001:0001afd0       __CIlog10                  1001bfd0 f   libucrt:log10_impl.obj
 0001:0001b00b       __CIlog10_default          1001c00b f   libucrt:log10_impl.obj
 0001:0001b01f       __log10_default            1001c01f     libucrt:log10_impl.obj
 0001:0001b0e0       _ceil                      1001c0e0 f   libucrt:ceil_pentium4.obj
 0001:0001b120       __ceil_pentium4            1001c120 f   libucrt:ceil_pentium4.obj
 0001:0001b51a       ___acrt_fenv_get_common_round_control 1001c51a f   libucrt:_fenvutils.obj
 0001:0001b53c       ___acrt_fenv_get_control   1001c53c f   libucrt:_fenvutils.obj
 0001:0001b5bc       ___acrt_fenv_get_status    1001c5bc f   libucrt:_fenvutils.obj
 0001:0001b674       ___acrt_fenv_set_control   1001c674 f   libucrt:_fenvutils.obj
 0001:0001b6dc       ___acrt_fenv_set_status    1001c6dc f   libucrt:_fenvutils.obj
 0001:0001b84f       __lseeki64_nolock          1001c84f f   libucrt:lseek.obj
 0001:0001b86a       __fclose_nolock            1001c86a f   libucrt:fclose.obj
 0001:0001b8e1       _fclose                    1001c8e1 f   libucrt:fclose.obj
 0001:0001b965       __query_app_type           1001c965 f   libucrt:report_runtime_error.obj
 0001:0001b96b       ___strncnt                 1001c96b f   libucrt:strncnt.obj
 0001:0001b987       __putwch_nolock            1001c987 f   libucrt:putwch.obj
 0001:0001ba60       __clearfp                  1001ca60 f   libucrt:ieee87.obj
 0001:0001bb3e       __control87                1001cb3e f   libucrt:ieee87.obj
 0001:0001bedd       ___acrt_initialize_sse2    1001cedd f   libucrt:mathfcns.obj
 0001:0001bef0       __CIlog10_pentium4         1001cef0 f   libucrt:log10_pentium4.obj
 0001:0001bf08       __log10_pentium4           1001cf08     libucrt:log10_pentium4.obj
 0001:0001c1a0       __fFEXP                    1001d1a0 f   libucrt:87tran.obj
 0001:0001c1f7       __rtinfpopse               1001d1f7     libucrt:87tran.obj
 0001:0001c1f9       __rtinfnpopse              1001d1f9     libucrt:87tran.obj
 0001:0001c209       __fFLN                     1001d209     libucrt:87tran.obj
 0001:0001c2be       __rtinfpop                 1001d2be     libucrt:87tran.obj
 0001:0001c2c0       __rtinfnpop                1001d2c0     libucrt:87tran.obj
 0001:0001c2d0       __rtforexpinf              1001d2d0 f   libucrt:87tran.obj
 0001:0001c2dd       __ffexpm1                  1001d2dd     libucrt:87tran.obj
 0001:0001c390       __trandisp1                1001d390 f   libucrt:87disp.obj
 0001:0001c405       __trandisp2                1001d405 f   libucrt:87disp.obj
 0001:0001c49f       __rttospopde               1001d49f     libucrt:87disp.obj
 0001:0001c4a4       __rttospop                 1001d4a4     libucrt:87disp.obj
 0001:0001c4b0       __rtnospop                 1001d4b0 f   libucrt:87disp.obj
 0001:0001c4c0       __rttosnpop                1001d4c0 f   libucrt:87disp.obj
 0001:0001c4c1       __rtnospopde               1001d4c1     libucrt:87disp.obj
 0001:0001c4c8       __rtzeropop                1001d4c8     libucrt:87disp.obj
 0001:0001c4ca       __rtzeronpop               1001d4ca     libucrt:87disp.obj
 0001:0001c4d0       __rtzerospop               1001d4d0 f   libucrt:87disp.obj
 0001:0001c4dd       __rtonepop                 1001d4dd     libucrt:87disp.obj
 0001:0001c4e0       __rtonenpop                1001d4e0 f   libucrt:87disp.obj
 0001:0001c4f0       __tosnan1                  1001d4f0 f   libucrt:87disp.obj
 0001:0001c520       __nosnan2                  1001d520 f   libucrt:87disp.obj
 0001:0001c530       __tosnan2                  1001d530 f   libucrt:87disp.obj
 0001:0001c560       __nan2                     1001d560 f   libucrt:87disp.obj
 0001:0001c5a0       __rtindfpop                1001d5a0 f   libucrt:87disp.obj
 0001:0001c5a2       __rtindfnpop               1001d5a2     libucrt:87disp.obj
 0001:0001c5b3       __rttosnpopde              1001d5b3     libucrt:87disp.obj
 0001:0001c5c0       __rtatan2inf               1001d5c0 f   libucrt:87disp.obj
 0001:0001c5dd       __rtchsifneg               1001d5dd     libucrt:87disp.obj
 0001:0001c5f0       __twoToTOS                 1001d5f0 f   libucrt:common.obj
 0001:0001c605       __load_CW                  1001d605 f   libucrt:common.obj
 0001:0001c61c       __convertTOStoQNaN         1001d61c f   libucrt:common.obj
 0001:0001c635       __fload_withFB             1001d635 f   libucrt:common.obj
 0001:0001c678       __checkTOS_withFB          1001d678 f   libucrt:common.obj
 0001:0001c68e       __fast_exit                1001d68e f   libucrt:common.obj
 0001:0001c69b       __math_exit                1001d69b f   libucrt:common.obj
 0001:0001c6c5       __check_overflow_exit      1001d6c5 f   libucrt:common.obj
 0001:0001c6d9       __check_range_exit         1001d6d9 f   libucrt:common.obj
 0001:0001c780       __startTwoArgErrorHandling 1001d780 f   libucrt:genexcep.obj
 0001:0001c797       __startOneArgErrorHandling 1001d797 f   libucrt:genexcep.obj
 0001:0001c7d3       ___libm_error_support      1001d7d3 f   libucrt:libm_error.obj
 0001:0001c9c7       __ceil_default             1001d9c7 f   libucrt:ceil.obj
 0001:0001cb08       __close                    1001db08 f   libucrt:close.obj
 0001:0001cb95       __close_nolock             1001db95 f   libucrt:close.obj
 0001:0001cc31       ?__acrt_stdio_free_stream@@YAXV__crt_stdio_stream@@@Z 1001dc31 f   libucrt:stream.obj
 0001:0001cc70       ___ascii_strnicmp          1001dc70 f   libucrt:_strnicm.obj
 0001:0001ccf0       ___dcrt_lowio_ensure_console_output_initialized 1001dcf0 f   libucrt:initcon.obj
 0001:0001cd0f       ___dcrt_terminate_console_output 1001dd0f f   libucrt:initcon.obj
 0001:0001cd26       ___dcrt_write_console      1001dd26 f   libucrt:initcon.obj
 0001:0001cd7b       ___set_fpsr_sse2           1001dd7b f   libucrt:fpctrl.obj
 0001:0001cdfb       __clrfp                    1001ddfb f   libucrt:fpctrl.obj
 0001:0001ce0c       __ctrlfp                   1001de0c f   libucrt:fpctrl.obj
 0001:0001ce36       __set_statfp               1001de36 f   libucrt:fpctrl.obj
 0001:0001ce8f       __statfp                   1001de8f f   libucrt:fpctrl.obj
 0001:0001ce9f       __d_inttype                1001de9f f   libucrt:powhlp.obj
 0001:0001cf07       __powhlp                   1001df07 f   libucrt:powhlp.obj
 0001:0001d032       __87except                 1001e032 f   libucrt:87except.obj
 0001:0001d13c       __frnd                     1001e13c f   libucrt:frnd.obj
 0001:0001d150       __errcode                  1001e150 f   libucrt:fpexcept.obj
 0001:0001d184       __except1                  1001e184 f   libucrt:fpexcept.obj
 0001:0001d252       __handle_exc               1001e252 f   libucrt:fpexcept.obj
 0001:0001d43d       __raise_exc                1001e43d f   libucrt:fpexcept.obj
 0001:0001d460       __raise_exc_ex             1001e460 f   libucrt:fpexcept.obj
 0001:0001d756       __set_errno_from_matherr   1001e756 f   libucrt:fpexcept.obj
 0001:0001d785       __umatherr                 1001e785 f   libucrt:fpexcept.obj
 0001:0001d825       __decomp                   1001e825 f   libucrt:util.obj
 0001:0001d8f7       __set_exp                  1001e8f7 f   libucrt:util.obj
 0001:0001d924       __sptype                   1001e924 f   libucrt:util.obj
 0001:0001d982       __fpclass                  1001e982 f   libucrt:ieeemisc.obj
 0001:0001da26       _IsProcessorFeaturePresent@4 1001ea26 f   kernel32:KERNEL32.dll
 0001:0001da30       __FindPESection            1001ea30 f   LIBCMT:pesect.obj
 0001:0001da80       __IsNonwritableInCurrentImage 1001ea80 f   LIBCMT:pesect.obj
 0001:0001db40       __ValidateImageBase        1001eb40 f   LIBCMT:pesect.obj
 0001:0001db73       __EH_prolog3_catch         1001eb73 f   LIBCMT:ehprolg3.obj
 0001:0001dbb0       __aulldvrm                 1001ebb0 f   LIBCMT:ulldvrm.obj
 0001:0001dc50       __allmul                   1001ec50 f   LIBCMT:llmul.obj
 0001:0001dc90       __alldvrm                  1001ec90 f   LIBCMT:lldvrm.obj
 0001:0001dd70       __allshl                   1001ed70 f   LIBCMT:llshl.obj
 0001:0001dd90       __aullshr                  1001ed90 f   LIBCMT:ullshr.obj
 0001:0001ddb0       __ftol2_sse_excpt          1001edb0     LIBCMT:ftol2.obj
 0001:0001ddb0       __ftoi2                    1001edb0 f   LIBCMT:ftol2.obj
 0001:0001ddb0       __ftol2_sse                1001edb0     LIBCMT:ftol2.obj
 0001:0001de30       __ftoui2                   1001ee30 f   LIBCMT:ftol2.obj
 0001:0001dee0       __ftol2                    1001eee0 f   LIBCMT:ftol2.obj
 0001:0001df90       __ftoul2                   1001ef90 f   LIBCMT:ftol2.obj
 0001:0001e050       _strrchr                   1001f050 f   libvcruntime:strrchr.obj
 0001:0001e190       _strchr                    1001f190 f   libvcruntime:strchr.obj
 0001:0001e1fe       ___from_strstr_to_strchr   1001f1fe     libvcruntime:strchr.obj
 0001:0001e2bb       __filter_x86_sse2_floating_point_exception 1001f2bb f   LIBCMT:x86_exception_filter.obj
 0001:0001e2bb       __filter_x86_sse2_floating_point_exception_default 1001f2bb f   LIBCMT:x86_exception_filter.obj
 0002:00000000       __imp__RegQueryValueExW@24 10020000     advapi32:ADVAPI32.dll
 0002:00000004       __imp__RegSetValueExW@24   10020004     advapi32:ADVAPI32.dll
 0002:00000008       __imp__RegQueryInfoKeyW@48 10020008     advapi32:ADVAPI32.dll
 0002:0000000c       __imp__RegOpenKeyExW@20    1002000c     advapi32:ADVAPI32.dll
 0002:00000010       __imp__RegEnumKeyExW@32    10020010     advapi32:ADVAPI32.dll
 0002:00000014       __imp__RegDeleteValueW@8   10020014     advapi32:ADVAPI32.dll
 0002:00000018       __imp__RegDeleteKeyW@8     10020018     advapi32:ADVAPI32.dll
 0002:0000001c       __imp__RegCreateKeyExW@36  1002001c     advapi32:ADVAPI32.dll
 0002:00000020       __imp__RegCloseKey@4       10020020     advapi32:ADVAPI32.dll
 0002:00000024       \177ADVAPI32_NULL_THUNK_DATA 10020024     advapi32:ADVAPI32.dll
 0002:00000028       __imp__GetObjectW@12       10020028     gdi32:GDI32.dll
 0002:0000002c       __imp__SelectObject@8      1002002c     gdi32:GDI32.dll
 0002:00000030       __imp__DeleteObject@4      10020030     gdi32:GDI32.dll
 0002:00000034       __imp__CreateCompatibleDC@4 10020034     gdi32:GDI32.dll
 0002:00000038       __imp__BitBlt@36           10020038     gdi32:GDI32.dll
 0002:0000003c       __imp__SetWindowOrgEx@16   1002003c     gdi32:GDI32.dll
 0002:00000040       __imp__SetWindowExtEx@16   10020040     gdi32:GDI32.dll
 0002:00000044       __imp__SetViewportOrgEx@16 10020044     gdi32:GDI32.dll
 0002:00000048       __imp__LPtoDP@12           10020048     gdi32:GDI32.dll
 0002:0000004c       __imp__SetMapMode@8        1002004c     gdi32:GDI32.dll
 0002:00000050       __imp__SaveDC@4            10020050     gdi32:GDI32.dll
 0002:00000054       __imp__RestoreDC@8         10020054     gdi32:GDI32.dll
 0002:00000058       __imp__GetDeviceCaps@8     10020058     gdi32:GDI32.dll
 0002:0000005c       __imp__DeleteMetaFile@4    1002005c     gdi32:GDI32.dll
 0002:00000060       __imp__DeleteDC@4          10020060     gdi32:GDI32.dll
 0002:00000064       __imp__CreateRectRgnIndirect@4 10020064     gdi32:GDI32.dll
 0002:00000068       __imp__CreateMetaFileW@4   10020068     gdi32:GDI32.dll
 0002:0000006c       __imp__CreateDCW@16        1002006c     gdi32:GDI32.dll
 0002:00000070       __imp__CloseMetaFile@4     10020070     gdi32:GDI32.dll
 0002:00000074       \177GDI32_NULL_THUNK_DATA  10020074     gdi32:GDI32.dll
 0002:00000078       __imp__CloseHandle@4       10020078     kernel32:KERNEL32.dll
 0002:0000007c       __imp__SetEvent@4          1002007c     kernel32:KERNEL32.dll
 0002:00000080       __imp__CreateMutexW@12     10020080     kernel32:KERNEL32.dll
 0002:00000084       __imp__CreateEventW@16     10020084     kernel32:KERNEL32.dll
 0002:00000088       __imp__GetCurrentProcessId@0 10020088     kernel32:KERNEL32.dll
 0002:0000008c       __imp__CreateFileW@28      1002008c     kernel32:KERNEL32.dll
 0002:00000090       __imp__GetConsoleMode@8    10020090     kernel32:KERNEL32.dll
 0002:00000094       __imp__GetConsoleOutputCP@0 10020094     kernel32:KERNEL32.dll
 0002:00000098       __imp__WriteFile@20        10020098     kernel32:KERNEL32.dll
 0002:0000009c       __imp__FlushFileBuffers@4  1002009c     kernel32:KERNEL32.dll
 0002:000000a0       __imp__SetStdHandle@8      100200a0     kernel32:KERNEL32.dll
 0002:000000a4       __imp__GetStringTypeW@16   100200a4     kernel32:KERNEL32.dll
 0002:000000a8       __imp__SetFilePointerEx@20 100200a8     kernel32:KERNEL32.dll
 0002:000000ac       __imp__FreeEnvironmentStringsW@4 100200ac     kernel32:KERNEL32.dll
 0002:000000b0       __imp__GetEnvironmentStringsW@0 100200b0     kernel32:KERNEL32.dll
 0002:000000b4       __imp__lstrcmpiW@8         100200b4     kernel32:KERNEL32.dll
 0002:000000b8       __imp__GetCommandLineA@0   100200b8     kernel32:KERNEL32.dll
 0002:000000bc       __imp__GetCPInfo@8         100200bc     kernel32:KERNEL32.dll
 0002:000000c0       __imp__GetOEMCP@0          100200c0     kernel32:KERNEL32.dll
 0002:000000c4       __imp__GetACP@0            100200c4     kernel32:KERNEL32.dll
 0002:000000c8       __imp__IsValidCodePage@4   100200c8     kernel32:KERNEL32.dll
 0002:000000cc       __imp__FindNextFileW@8     100200cc     kernel32:KERNEL32.dll
 0002:000000d0       __imp__FindFirstFileExW@24 100200d0     kernel32:KERNEL32.dll
 0002:000000d4       __imp__FindClose@4         100200d4     kernel32:KERNEL32.dll
 0002:000000d8       __imp__GetFileType@4       100200d8     kernel32:KERNEL32.dll
 0002:000000dc       __imp__GetStdHandle@4      100200dc     kernel32:KERNEL32.dll
 0002:000000e0       __imp__LCMapStringW@24     100200e0     kernel32:KERNEL32.dll
 0002:000000e4       __imp__HeapReAlloc@16      100200e4     kernel32:KERNEL32.dll
 0002:000000e8       __imp__HeapSize@12         100200e8     kernel32:KERNEL32.dll
 0002:000000ec       __imp__MulDiv@12           100200ec     kernel32:KERNEL32.dll
 0002:000000f0       __imp__GlobalLock@4        100200f0     kernel32:KERNEL32.dll
 0002:000000f4       __imp__GlobalUnlock@4      100200f4     kernel32:KERNEL32.dll
 0002:000000f8       __imp__GlobalAlloc@8       100200f8     kernel32:KERNEL32.dll
 0002:000000fc       __imp__FindResourceW@12    100200fc     kernel32:KERNEL32.dll
 0002:00000100       __imp__SizeofResource@8    10020100     kernel32:KERNEL32.dll
 0002:00000104       __imp__LoadResource@8      10020104     kernel32:KERNEL32.dll
 0002:00000108       __imp__LoadLibraryExW@12   10020108     kernel32:KERNEL32.dll
 0002:0000010c       __imp__GetProcAddress@8    1002010c     kernel32:KERNEL32.dll
 0002:00000110       __imp__GetModuleHandleW@4  10020110     kernel32:KERNEL32.dll
 0002:00000114       __imp__GetModuleFileNameW@12 10020114     kernel32:KERNEL32.dll
 0002:00000118       __imp__FreeLibrary@4       10020118     kernel32:KERNEL32.dll
 0002:0000011c       __imp__DisableThreadLibraryCalls@4 1002011c     kernel32:KERNEL32.dll
 0002:00000120       __imp__GetCurrentThreadId@0 10020120     kernel32:KERNEL32.dll
 0002:00000124       __imp__Sleep@4             10020124     kernel32:KERNEL32.dll
 0002:00000128       __imp__WaitForSingleObject@8 10020128     kernel32:KERNEL32.dll
 0002:0000012c       __imp__ReleaseMutex@4      1002012c     kernel32:KERNEL32.dll
 0002:00000130       __imp__ResetEvent@4        10020130     kernel32:KERNEL32.dll
 0002:00000134       __imp__EnterCriticalSection@4 10020134     kernel32:KERNEL32.dll
 0002:00000138       __imp__LeaveCriticalSection@4 10020138     kernel32:KERNEL32.dll
 0002:0000013c       __imp__SetLastError@4      1002013c     kernel32:KERNEL32.dll
 0002:00000140       __imp__EncodePointer@4     10020140     kernel32:KERNEL32.dll
 0002:00000144       __imp__DeleteCriticalSection@4 10020144     kernel32:KERNEL32.dll
 0002:00000148       __imp__InitializeCriticalSectionEx@12 10020148     kernel32:KERNEL32.dll
 0002:0000014c       __imp__GetLastError@0      1002014c     kernel32:KERNEL32.dll
 0002:00000150       __imp__RaiseException@16   10020150     kernel32:KERNEL32.dll
 0002:00000154       __imp__DecodePointer@4     10020154     kernel32:KERNEL32.dll
 0002:00000158       __imp__WideCharToMultiByte@32 10020158     kernel32:KERNEL32.dll
 0002:0000015c       __imp__GetCommandLineW@0   1002015c     kernel32:KERNEL32.dll
 0002:00000160       __imp__MultiByteToWideChar@24 10020160     kernel32:KERNEL32.dll
 0002:00000164       __imp__WriteConsoleW@20    10020164     kernel32:KERNEL32.dll
 0002:00000168       __imp__GetModuleHandleExW@12 10020168     kernel32:KERNEL32.dll
 0002:0000016c       __imp__ExitProcess@4       1002016c     kernel32:KERNEL32.dll
 0002:00000170       __imp__VirtualQuery@12     10020170     kernel32:KERNEL32.dll
 0002:00000174       __imp__VirtualProtect@16   10020174     kernel32:KERNEL32.dll
 0002:00000178       __imp__GetSystemInfo@4     10020178     kernel32:KERNEL32.dll
 0002:0000017c       __imp__TlsFree@4           1002017c     kernel32:KERNEL32.dll
 0002:00000180       __imp__TlsSetValue@8       10020180     kernel32:KERNEL32.dll
 0002:00000184       __imp__TlsGetValue@4       10020184     kernel32:KERNEL32.dll
 0002:00000188       __imp__TlsAlloc@0          10020188     kernel32:KERNEL32.dll
 0002:0000018c       __imp__InterlockedFlushSList@4 1002018c     kernel32:KERNEL32.dll
 0002:00000190       __imp__RtlUnwind@16        10020190     kernel32:KERNEL32.dll
 0002:00000194       __imp__LoadLibraryExA@12   10020194     kernel32:KERNEL32.dll
 0002:00000198       __imp__VirtualFree@12      10020198     kernel32:KERNEL32.dll
 0002:0000019c       __imp__VirtualAlloc@16     1002019c     kernel32:KERNEL32.dll
 0002:000001a0       __imp__FlushInstructionCache@12 100201a0     kernel32:KERNEL32.dll
 0002:000001a4       __imp__InterlockedPushEntrySList@8 100201a4     kernel32:KERNEL32.dll
 0002:000001a8       __imp__InterlockedPopEntrySList@4 100201a8     kernel32:KERNEL32.dll
 0002:000001ac       __imp__GetProcessHeap@0    100201ac     kernel32:KERNEL32.dll
 0002:000001b0       __imp__HeapFree@12         100201b0     kernel32:KERNEL32.dll
 0002:000001b4       __imp__HeapAlloc@12        100201b4     kernel32:KERNEL32.dll
 0002:000001b8       __imp__OutputDebugStringW@4 100201b8     kernel32:KERNEL32.dll
 0002:000001bc       __imp__InitializeSListHead@4 100201bc     kernel32:KERNEL32.dll
 0002:000001c0       __imp__GetSystemTimeAsFileTime@4 100201c0     kernel32:KERNEL32.dll
 0002:000001c4       __imp__QueryPerformanceCounter@4 100201c4     kernel32:KERNEL32.dll
 0002:000001c8       __imp__GetStartupInfoW@4   100201c8     kernel32:KERNEL32.dll
 0002:000001cc       __imp__IsDebuggerPresent@0 100201cc     kernel32:KERNEL32.dll
 0002:000001d0       __imp__IsProcessorFeaturePresent@4 100201d0     kernel32:KERNEL32.dll
 0002:000001d4       __imp__TerminateProcess@8  100201d4     kernel32:KERNEL32.dll
 0002:000001d8       __imp__GetCurrentProcess@0 100201d8     kernel32:KERNEL32.dll
 0002:000001dc       __imp__SetUnhandledExceptionFilter@4 100201dc     kernel32:KERNEL32.dll
 0002:000001e0       __imp__UnhandledExceptionFilter@4 100201e0     kernel32:KERNEL32.dll
 0002:000001e4       __imp__InitializeCriticalSectionAndSpinCount@8 100201e4     kernel32:KERNEL32.dll
 0002:000001e8       __imp__WaitForSingleObjectEx@12 100201e8     kernel32:KERNEL32.dll
 0002:000001ec       \177KERNEL32_NULL_THUNK_DATA 100201ec     kernel32:KERNEL32.dll
 0002:000001f0       __imp__OleCreatePropertyFrame@44 100201f0     oleaut32:OLEAUT32.dll
 0002:000001f4       __imp__UnRegisterTypeLib@20 100201f4     oleaut32:OLEAUT32.dll
 0002:000001f8       __imp__RegisterTypeLib@12  100201f8     oleaut32:OLEAUT32.dll
 0002:000001fc       __imp__LoadRegTypeLib@20   100201fc     oleaut32:OLEAUT32.dll
 0002:00000200       __imp__LoadTypeLib@8       10020200     oleaut32:OLEAUT32.dll
 0002:00000204       __imp__VarUI4FromStr@16    10020204     oleaut32:OLEAUT32.dll
 0002:00000208       __imp__VariantInit@4       10020208     oleaut32:OLEAUT32.dll
 0002:0000020c       __imp__SysAllocStringByteLen@8 1002020c     oleaut32:OLEAUT32.dll
 0002:00000210       __imp__SysStringByteLen@4  10020210     oleaut32:OLEAUT32.dll
 0002:00000214       __imp__VariantChangeType@16 10020214     oleaut32:OLEAUT32.dll
 0002:00000218       __imp__VariantClear@4      10020218     oleaut32:OLEAUT32.dll
 0002:0000021c       __imp__SysStringLen@4      1002021c     oleaut32:OLEAUT32.dll
 0002:00000220       __imp__SysFreeString@4     10020220     oleaut32:OLEAUT32.dll
 0002:00000224       __imp__SysAllocStringLen@8 10020224     oleaut32:OLEAUT32.dll
 0002:00000228       __imp__SysAllocString@4    10020228     oleaut32:OLEAUT32.dll
 0002:0000022c       \177OLEAUT32_NULL_THUNK_DATA 1002022c     oleaut32:OLEAUT32.dll
 0002:00000230       __imp__UnregisterClassW@8  10020230     user32:USER32.dll
 0002:00000234       __imp__PostMessageW@16     10020234     user32:USER32.dll
 0002:00000238       __imp__DefWindowProcW@16   10020238     user32:USER32.dll
 0002:0000023c       __imp__CallWindowProcW@20  1002023c     user32:USER32.dll
 0002:00000240       __imp__RegisterClassExW@4  10020240     user32:USER32.dll
 0002:00000244       __imp__GetClassInfoExW@12  10020244     user32:USER32.dll
 0002:00000248       __imp__CreateWindowExW@48  10020248     user32:USER32.dll
 0002:0000024c       __imp__IsWindow@4          1002024c     user32:USER32.dll
 0002:00000250       __imp__IsChild@8           10020250     user32:USER32.dll
 0002:00000254       __imp__DestroyWindow@4     10020254     user32:USER32.dll
 0002:00000258       __imp__ShowWindow@8        10020258     user32:USER32.dll
 0002:0000025c       __imp__SetWindowPos@28     1002025c     user32:USER32.dll
 0002:00000260       __imp__CharNextW@4         10020260     user32:USER32.dll
 0002:00000264       __imp__SetFocus@4          10020264     user32:USER32.dll
 0002:00000268       __imp__LoadBitmapW@8       10020268     user32:USER32.dll
 0002:0000026c       __imp__RegisterClassW@4    1002026c     user32:USER32.dll
 0002:00000270       __imp__PeekMessageW@20     10020270     user32:USER32.dll
 0002:00000274       __imp__LoadCursorW@8       10020274     user32:USER32.dll
 0002:00000278       __imp__GetParent@4         10020278     user32:USER32.dll
 0002:0000027c       __imp__SetWindowLongW@12   1002027c     user32:USER32.dll
 0002:00000280       __imp__GetWindowLongW@8    10020280     user32:USER32.dll
 0002:00000284       __imp__PtInRect@12         10020284     user32:USER32.dll
 0002:00000288       __imp__EqualRect@8         10020288     user32:USER32.dll
 0002:0000028c       __imp__OffsetRect@12       1002028c     user32:USER32.dll
 0002:00000290       __imp__UnionRect@12        10020290     user32:USER32.dll
 0002:00000294       __imp__IntersectRect@12    10020294     user32:USER32.dll
 0002:00000298       __imp__GetClientRect@8     10020298     user32:USER32.dll
 0002:0000029c       __imp__InvalidateRect@12   1002029c     user32:USER32.dll
 0002:000002a0       __imp__SetWindowRgn@12     100202a0     user32:USER32.dll
 0002:000002a4       __imp__EndPaint@8          100202a4     user32:USER32.dll
 0002:000002a8       __imp__BeginPaint@8        100202a8     user32:USER32.dll
 0002:000002ac       __imp__ReleaseDC@8         100202ac     user32:USER32.dll
 0002:000002b0       __imp__GetDC@4             100202b0     user32:USER32.dll
 0002:000002b4       __imp__GetKeyState@4       100202b4     user32:USER32.dll
 0002:000002b8       __imp__GetFocus@0          100202b8     user32:USER32.dll
 0002:000002bc       \177USER32_NULL_THUNK_DATA 100202bc     user32:USER32.dll
 0002:000002c0       __imp__StringFromGUID2@12  100202c0     ole32:ole32.dll
 0002:000002c4       __imp__CoTaskMemAlloc@4    100202c4     ole32:ole32.dll
 0002:000002c8       __imp__CoTaskMemRealloc@8  100202c8     ole32:ole32.dll
 0002:000002cc       __imp__CoTaskMemFree@4     100202cc     ole32:ole32.dll
 0002:000002d0       __imp__ReadClassStm@8      100202d0     ole32:ole32.dll
 0002:000002d4       __imp__WriteClassStm@8     100202d4     ole32:ole32.dll
 0002:000002d8       __imp__CreateDataAdviseHolder@4 100202d8     ole32:ole32.dll
 0002:000002dc       __imp__OleSaveToStream@8   100202dc     ole32:ole32.dll
 0002:000002e0       __imp__CreateOleAdviseHolder@4 100202e0     ole32:ole32.dll
 0002:000002e4       __imp__OleRegGetUserType@12 100202e4     ole32:ole32.dll
 0002:000002e8       __imp__OleRegGetMiscStatus@12 100202e8     ole32:ole32.dll
 0002:000002ec       __imp__OleRegEnumVerbs@8   100202ec     ole32:ole32.dll
 0002:000002f0       __imp__CLSIDFromProgID@8   100202f0     ole32:ole32.dll
 0002:000002f4       __imp__CoCreateInstance@20 100202f4     ole32:ole32.dll
 0002:000002f8       \177ole32_NULL_THUNK_DATA  100202f8     ole32:ole32.dll
 0002:000002fc       ___guard_check_icall_fptr  100202fc     LIBCMT:guard_support.obj
 0002:00000300       ___xc_a                    10020300     LIBCMT:initializers.obj
 0002:00000318       ___xc_z                    10020318     LIBCMT:initializers.obj
 0002:0000031c       ___xi_a                    1002031c     LIBCMT:initializers.obj
 0002:00000324       ___acrt_stdio_initializer  10020324     libucrt:stdio_initializer.obj
 0002:00000328       ___acrt_multibyte_initializer 10020328     libucrt:multibyte_initializer.obj
 0002:0000032c       ___acrt_tran_sse2_initializer 1002032c     libucrt:sse2_initializer.obj
 0002:00000330       ___xi_z                    10020330     LIBCMT:initializers.obj
 0002:00000334       ___xl_a                    10020334     LIBCMT:tlssup.obj
 0002:00000338       ___xl_z                    10020338     LIBCMT:tlssup.obj
 0002:0000033c       ___xp_a                    1002033c     LIBCMT:initializers.obj
 0002:00000340       ___acrt_locale_terminator  10020340     libucrt:locale_initializer.obj
 0002:00000344       ___dcrt_console_output_terminator 10020344     libucrt:console_output_initializer.obj
 0002:00000348       ___acrt_stdio_terminator   10020348     libucrt:stdio_initializer.obj
 0002:0000034c       ___xp_z                    1002034c     LIBCMT:initializers.obj
 0002:00000350       ___xt_a                    10020350     LIBCMT:initializers.obj
 0002:00000354       ___xt_z                    10020354     LIBCMT:initializers.obj
 0002:00000360       ??_C@_13HADIAKP@?$AAS@     10020360     OposVariant.obj
 0002:00000364       ??_C@_13LHMFKAAD@?$AAM@    10020364     OposVariant.obj
 0002:00000368       ??_C@_13MKMNOPIJ@?$AAD@    10020368     OposVariant.obj
 0002:0000036c       ??_C@_13OPKGLAFF@?$AAB@    1002036c     OposVariant.obj
 0002:00000370       ??_C@_17LLMMEOJD@?$AAV?$AAa?$AAl@ 10020370     OposVariant.obj
 0002:00000378       ??_C@_1BI@JFAIJMHL@?$AAF?$AAo?$AAr?$AAc?$AAe?$AAR?$AAe?$AAm?$AAo?$AAv?$AAe@ 10020378     OposVariant.obj
 0002:00000390       ??_C@_1BC@GCKHIPE@?$AAN?$AAo?$AAR?$AAe?$AAm?$AAo?$AAv?$AAe@ 10020390     OposVariant.obj
 0002:000003a4       ??_C@_1O@JDLOHAN@?$AAD?$AAe?$AAl?$AAe?$AAt?$AAe@ 100203a4     OposVariant.obj
 0002:000003b4       ??_C@_11LOCGONAA@@         100203b4     OposVariant.obj
 0002:000003b8       ??_7CComClassFactory@ATL@@6B@ 100203b8     BillAcceptor.obj
 0002:000003d0       ?_entries@?1??_GetEntries@CComClassFactory@ATL@@SGPBU_ATL_INTMAP_ENTRY@3@XZ@4QBU43@B 100203d0     BillAcceptor.obj
 0002:000003e8       __GUID_00000001_0000_0000_c000_000000000046 100203e8     BillAcceptor.obj
 0002:000003f8       _IID_IOPOSBillAcceptor_1_11 100203f8     BillAcceptor.obj
 0002:00000408       _IID_IOPOSBillAcceptor     10020408     BillAcceptor.obj
 0002:00000418       _LIBID_OposBillAcceptor_CCO 10020418     BillAcceptor.obj
 0002:00000428       _DIID__IOPOSBillAcceptorEvents 10020428     BillAcceptor.obj
 0002:00000438       _CLSID_OPOSBillAcceptor    10020438     BillAcceptor.obj
 0002:00000448       ??_C@_1BK@BIGILECK@?$AAA?$AAd?$AAv?$AAa?$AAp?$AAi?$AA3?$AA2?$AA?4?$AAd?$AAl?$AAl@ 10020448     BillAcceptor.obj
 0002:00000464       __GUID_00000114_0000_0000_c000_000000000046 10020464     BillAcceptor.obj
 0002:00000474       ??_C@_0BI@MNCFCPFK@RegCreateKeyTransactedW@ 10020474     BillAcceptor.obj
 0002:0000048c       __GUID_b196b287_bab4_101a_b69c_00aa00341d07 1002048c     BillAcceptor.obj
 0002:0000049c       __GUID_b196b285_bab4_101a_b69c_00aa00341d07 1002049c     BillAcceptor.obj
 0002:000004ac       __GUID_a6bc3ac0_dbaa_11ce_9de3_00aa004bb851 100204ac     BillAcceptor.obj
 0002:000004bc       __GUID_0000010c_0000_0000_c000_000000000046 100204bc     BillAcceptor.obj
 0002:000004cc       __GUID_00000146_0000_0000_c000_000000000046 100204cc     BillAcceptor.obj
 0002:000004e0       ?_entries@?1??_GetEntries@COPOSBillAcceptor@@SGPBU_ATL_INTMAP_ENTRY@ATL@@XZ@4QBU34@B 100204e0     BillAcceptor.obj
 0002:00000600       __GUID_cf51ed10_62fe_11cf_bf86_00a0c9034836 10020600     BillAcceptor.obj
 0002:00000610       __GUID_0000010a_0000_0000_c000_000000000046 10020610     BillAcceptor.obj
 0002:00000620       __GUID_b196b283_bab4_101a_b69c_00aa00341d07 10020620     BillAcceptor.obj
 0002:00000630       __GUID_cb5bdc81_93c1_11cf_8f20_00805f2cd064 10020630     BillAcceptor.obj
 0002:00000640       ?pPropMap@?1??GetPropertyMap@COPOSBillAcceptor@@SAPBUATL_PROPMAP_ENTRY@ATL@@XZ@4QBU34@B 10020640     BillAcceptor.obj
 0002:000006ac       ??_C@_17DGDADEHL@?$AA_?$AAc?$AAx@ 100206ac     BillAcceptor.obj
 0002:000006b4       ??_C@_17IOIMFDBO@?$AA_?$AAc?$AAy@ 100206b4     BillAcceptor.obj
 0002:000006bc       ??_7CComModule@ATL@@6B@    100206bc     BillAcceptor.obj
 0002:000006e4       __GUID_922eada0_3424_11cf_b670_00aa004cd6d8 100206e4     BillAcceptor.obj
 0002:000006f4       __GUID_9c2cad80_3424_11cf_b670_00aa004cd6d8 100206f4     BillAcceptor.obj
 0002:00000704       __GUID_00000119_0000_0000_c000_000000000046 10020704     BillAcceptor.obj
 0002:00000714       __GUID_b196b289_bab4_101a_b69c_00aa00341d07 10020714     BillAcceptor.obj
 0002:00000724       __GUID_00000000_0000_0000_c000_000000000046 10020724     BillAcceptor.obj
 0002:00000734       ??_7?$CComObjectCached@VCComClassFactory@ATL@@@ATL@@6B@ 10020734     BillAcceptor.obj
 0002:0000074c       __GUID_00020400_0000_0000_c000_000000000046 1002074c     BillAcceptor.obj
 0002:0000075c       ??_C@_1CE@PGFMOFKI@?$AAS?$AAt?$AAa?$AAt?$AAu?$AAs?$AAU?$AAp?$AAd?$AAa?$AAt?$AAe?$AAE?$AAv?$AAe@ 1002075c     BillAcceptor.obj
 0002:00000780       ??_C@_1BM@CBGEBBBJ@?$AAD?$AAi?$AAr?$AAe?$AAc?$AAt?$AAI?$AAO?$AAE?$AAv?$AAe?$AAn?$AAt@ 10020780     BillAcceptor.obj
 0002:0000079c       ??_C@_1BE@IEBMACEM@?$AAD?$AAa?$AAt?$AAa?$AAE?$AAv?$AAe?$AAn?$AAt@ 1002079c     BillAcceptor.obj
 0002:000007b0       __GUID_b196b286_bab4_101a_b69c_00aa00341d07 100207b0     BillAcceptor.obj
 0002:000007c0       __GUID_00000117_0000_0000_c000_000000000046 100207c0     BillAcceptor.obj
 0002:000007d0       ??_C@_1BC@ENICKDH@?$AAC?$AAo?$AAn?$AAt?$AAe?$AAn?$AAt?$AAs@ 100207d0     BillAcceptor.obj
 0002:000007e4       ??_7?$CComObject@V?$CComEnum@UIEnumConnectionPoints@@$1?_GUID_b196b285_bab4_101a_b69c_00aa00341d07@@3U__s_GUID@@BPAUIConnectionPoint@@V?$_CopyInterface@UIConnectionPoint@@@ATL@@VCComSingleThreadModel@6@@ATL@@@ATL@@6B@ 100207e4     BillAcceptor.obj
 0002:00000804       ??_C@_1M@KANJNLFF@?$AAC?$AAL?$AAS?$AAI?$AAD@ 10020804     BillAcceptor.obj
 0002:00000810       ??_C@_1M@EJNEECMJ@?$AAA?$AAp?$AAp?$AAI?$AAD@ 10020810     BillAcceptor.obj
 0002:0000081c       __GUID_0000010e_0000_0000_c000_000000000046 1002081c     BillAcceptor.obj
 0002:0000082c       __GUID_b196b288_bab4_101a_b69c_00aa00341d07 1002082c     BillAcceptor.obj
 0002:0000083c       ?rgszNeverDelete@CRegParser@ATL@@1QBQB_WB 1002083c     BillAcceptor.obj
 0002:0000086c       ??_7CRegObject@ATL@@6B@    1002086c     BillAcceptor.obj
 0002:00000884       __GUID_00000113_0000_0000_c000_000000000046 10020884     BillAcceptor.obj
 0002:00000894       __GUID_1c2056cc_5ef4_101b_8bc8_00aa003e3b29 10020894     BillAcceptor.obj
 0002:000008a4       ??_C@_1CK@OEKPKBNA@?$AAC?$AAo?$AAm?$AAp?$AAo?$AAn?$AAe?$AAn?$AAt?$AA?5?$AAC?$AAa?$AAt?$AAe?$AAg@ 100208a4     BillAcceptor.obj
 0002:000008d0       ??_C@_1BC@NKMMNMGL@?$AAF?$AAi?$AAl?$AAe?$AAT?$AAy?$AAp?$AAe@ 100208d0     BillAcceptor.obj
 0002:000008e4       ??_C@_1BE@EKPAFMCP@?$AAI?$AAn?$AAt?$AAe?$AAr?$AAf?$AAa?$AAc?$AAe@ 100208e4     BillAcceptor.obj
 0002:000008f8       ??_C@_1BC@MAICEHGI@?$AAH?$AAa?$AAr?$AAd?$AAw?$AAa?$AAr?$AAe@ 100208f8     BillAcceptor.obj
 0002:0000090c       ??_C@_19HLLLM@?$AAM?$AAi?$AAm?$AAe@ 1002090c     BillAcceptor.obj
 0002:00000918       ??_C@_17OMAOINJK@?$AAS?$AAA?$AAM@ 10020918     BillAcceptor.obj
 0002:00000920       ??_C@_1BC@IBECJAAI@?$AAS?$AAE?$AAC?$AAU?$AAR?$AAI?$AAT?$AAY@ 10020920     BillAcceptor.obj
 0002:00000934       ??_C@_1O@GBFINDKL@?$AAS?$AAY?$AAS?$AAT?$AAE?$AAM@ 10020934     BillAcceptor.obj
 0002:00000944       ??_C@_1BC@EAHCMADO@?$AAS?$AAo?$AAf?$AAt?$AAw?$AAa?$AAr?$AAe@ 10020944     BillAcceptor.obj
 0002:00000958       ??_C@_1BA@JIHHIEDE@?$AAT?$AAy?$AAp?$AAe?$AAL?$AAi?$AAb@ 10020958     BillAcceptor.obj
 0002:00000968       ?map@?1??HKeyFromString@CRegParser@ATL@@KAPAUHKEY__@@PA_W@Z@4QBUkeymap@?1??123@KAPAU4@0@Z@B 10020968     BillAcceptor.obj
 0002:000009d8       ??_C@_19NCHLBIN@?$AAH?$AAK?$AAC?$AAR@ 100209d8     BillAcceptor.obj
 0002:000009e4       ??_C@_19JAPAIJDE@?$AAH?$AAK?$AAC?$AAU@ 100209e4     BillAcceptor.obj
 0002:000009f0       ??_C@_19PEALEEJB@?$AAH?$AAK?$AAL?$AAM@ 100209f0     BillAcceptor.obj
 0002:000009fc       ??_C@_17PJOJPMPB@?$AAH?$AAK?$AAU@ 100209fc     BillAcceptor.obj
 0002:00000a04       ??_C@_19PNBHMJPL@?$AAH?$AAK?$AAP?$AAD@ 10020a04     BillAcceptor.obj
 0002:00000a10       ??_C@_19GFFAIJHG@?$AAH?$AAK?$AAD?$AAD@ 10020a10     BillAcceptor.obj
 0002:00000a1c       ??_C@_19OFICIBHH@?$AAH?$AAK?$AAC?$AAC@ 10020a1c     BillAcceptor.obj
 0002:00000a28       ??_C@_1CE@PACHPJFI@?$AAH?$AAK?$AAE?$AAY?$AA_?$AAC?$AAL?$AAA?$AAS?$AAS?$AAE?$AAS?$AA_?$AAR?$AAO@ 10020a28     BillAcceptor.obj
 0002:00000a4c       ??_C@_1CE@HLHNCBPM@?$AAH?$AAK?$AAE?$AAY?$AA_?$AAC?$AAU?$AAR?$AAR?$AAE?$AAN?$AAT?$AA_?$AAU?$AAS@ 10020a4c     BillAcceptor.obj
 0002:00000a70       ??_C@_1CG@GFBEANJL@?$AAH?$AAK?$AAE?$AAY?$AA_?$AAL?$AAO?$AAC?$AAA?$AAL?$AA_?$AAM?$AAA?$AAC?$AAH@ 10020a70     BillAcceptor.obj
 0002:00000a98       ??_C@_1BG@BGODANIO@?$AAH?$AAK?$AAE?$AAY?$AA_?$AAU?$AAS?$AAE?$AAR?$AAS@ 10020a98     BillAcceptor.obj
 0002:00000ab0       ??_C@_1CM@KHNNAOIC@?$AAH?$AAK?$AAE?$AAY?$AA_?$AAP?$AAE?$AAR?$AAF?$AAO?$AAR?$AAM?$AAA?$AAN?$AAC@ 10020ab0     BillAcceptor.obj
 0002:00000adc       ??_C@_1BM@HAGMMHIA@?$AAH?$AAK?$AAE?$AAY?$AA_?$AAD?$AAY?$AAN?$AA_?$AAD?$AAA?$AAT?$AAA@ 10020adc     BillAcceptor.obj
 0002:00000af8       ??_C@_1CI@BBJOACGG@?$AAH?$AAK?$AAE?$AAY?$AA_?$AAC?$AAU?$AAR?$AAR?$AAE?$AAN?$AAT?$AA_?$AAC?$AAO@ 10020af8     BillAcceptor.obj
 0002:00000b20       __GUID_00000109_0000_0000_c000_000000000046 10020b20     BillAcceptor.obj
 0002:00000b30       __GUID_7fd52380_4e07_101b_ae2d_08002b2ec713 10020b30     BillAcceptor.obj
 0002:00000b40       __GUID_00000112_0000_0000_c000_000000000046 10020b40     BillAcceptor.obj
 0002:00000b50       __GUID_3af24292_0c96_11ce_a0cf_00aa00600ab8 10020b50     BillAcceptor.obj
 0002:00000b60       __GUID_00000127_0000_0000_c000_000000000046 10020b60     BillAcceptor.obj
 0002:00000b70       __GUID_0000010d_0000_0000_c000_000000000046 10020b70     BillAcceptor.obj
 0002:00000b80       ??_C@_1EA@NHKLICFA@?$AAH?$AAK?$AAC?$AAU?$AA?$AN?$AA?6?$AA?$HL?$AA?7?$AAS?$AAo?$AAf?$AAt?$AAw?$AAa?$AAr@ 10020b80     BillAcceptor.obj
 0002:00000bc0       ??_C@_1BE@LJOLIMEM@?$AA?$AN?$AA?6?$AA?7?$AA?$HN?$AA?$AN?$AA?6?$AA?$HN?$AA?$AN?$AA?6@ 10020bc0     BillAcceptor.obj
 0002:00000bd4       ??_C@_1M@PPPPCDEP@?$AAA?$AAP?$AAP?$AAI?$AAD@ 10020bd4     BillAcceptor.obj
 0002:00000be0       ??_C@_1O@MNLDABAF@?$AAM?$AAo?$AAd?$AAu?$AAl?$AAe@ 10020be0     BillAcceptor.obj
 0002:00000bf0       ??_C@_1BG@JBACFMF@?$AAM?$AAo?$AAd?$AAu?$AAl?$AAe?$AA_?$AAR?$AAa?$AAw@ 10020bf0     BillAcceptor.obj
 0002:00000c08       ??_C@_1BC@KAILKFFG@?$AAR?$AAE?$AAG?$AAI?$AAS?$AAT?$AAR?$AAY@ 10020c08     BillAcceptor.obj
 0002:00000c1c       ??_7?$CComContainedObject@VCOPOSBillAcceptor@@@ATL@@6B?$IDispatchImpl@UIOPOSBillAcceptor@@$1?IID_IOPOSBillAcceptor@@3U_GUID@@B$1?LIBID_OposBillAcceptor_CCO@@3U3@B$00$0A@VCComTypeInfoHolder@ATL@@@1@@ 10020c1c     BillAcceptor.obj
 0002:00000d4c       ??_7?$CComContainedObject@VCOPOSBillAcceptor@@@ATL@@6BCComControlBase@1@@ 10020d4c     BillAcceptor.obj
 0002:00000d60       ??_7?$CComContainedObject@VCOPOSBillAcceptor@@@ATL@@6B?$CWindowImpl@VCOPOSBillAcceptor@@VCWindow@ATL@@V?$CWinTraits@$0FGAAAAAA@$0A@@3@@1@@ 10020d60     BillAcceptor.obj
 0002:00000d70       ??_7?$CComContainedObject@VCOPOSBillAcceptor@@@ATL@@6B?$IPersistStreamInitImpl@VCOPOSBillAcceptor@@@1@@ 10020d70     BillAcceptor.obj
 0002:00000d94       ??_7?$CComContainedObject@VCOPOSBillAcceptor@@@ATL@@6B?$IOleControlImpl@VCOPOSBillAcceptor@@@1@@ 10020d94     BillAcceptor.obj
 0002:00000db0       ??_7?$CComContainedObject@VCOPOSBillAcceptor@@@ATL@@6B?$IOleObjectImpl@VCOPOSBillAcceptor@@@1@@ 10020db0     BillAcceptor.obj
 0002:00000e10       ??_7?$CComContainedObject@VCOPOSBillAcceptor@@@ATL@@6B?$IOleInPlaceActiveObjectImpl@VCOPOSBillAcceptor@@@1@@ 10020e10     BillAcceptor.obj
 0002:00000e38       ??_7?$CComContainedObject@VCOPOSBillAcceptor@@@ATL@@6B?$IViewObjectExImpl@VCOPOSBillAcceptor@@@1@@ 10020e38     BillAcceptor.obj
 0002:00000e74       ??_7?$CComContainedObject@VCOPOSBillAcceptor@@@ATL@@6B?$IOleInPlaceObjectWindowlessImpl@VCOPOSBillAcceptor@@@1@@ 10020e74     BillAcceptor.obj
 0002:00000ea0       ??_7?$CComContainedObject@VCOPOSBillAcceptor@@@ATL@@6B?$IConnectionPointContainerImpl@VCOPOSBillAcceptor@@@1@@ 10020ea0     BillAcceptor.obj
 0002:00000eb4       ??_7?$CComContainedObject@VCOPOSBillAcceptor@@@ATL@@6B?$IPersistStorageImpl@VCOPOSBillAcceptor@@@1@@ 10020eb4     BillAcceptor.obj
 0002:00000edc       ??_7?$CComContainedObject@VCOPOSBillAcceptor@@@ATL@@6B?$ISpecifyPropertyPagesImpl@VCOPOSBillAcceptor@@@1@@ 10020edc     BillAcceptor.obj
 0002:00000eec       ??_7?$CComContainedObject@VCOPOSBillAcceptor@@@ATL@@6B?$IQuickActivateImpl@VCOPOSBillAcceptor@@@1@@ 10020eec     BillAcceptor.obj
 0002:00000f04       ??_7?$CComContainedObject@VCOPOSBillAcceptor@@@ATL@@6B?$IDataObjectImpl@VCOPOSBillAcceptor@@@1@@ 10020f04     BillAcceptor.obj
 0002:00000f34       ??_7?$CComContainedObject@VCOPOSBillAcceptor@@@ATL@@6B?$IProvideClassInfo2Impl@$1?CLSID_OPOSBillAcceptor@@3U_GUID@@B$1?DIID__IOPOSBillAcceptorEvents@@3U2@B$1?LIBID_OposBillAcceptor_CCO@@3U2@B$00$0A@VCComTypeInfoHolder@ATL@@@1@@ 10020f34     BillAcceptor.obj
 0002:00000f48       ??_7?$CComContainedObject@VCOPOSBillAcceptor@@@ATL@@6B?$IObjectSafetyImpl@VCOPOSBillAcceptor@@$02@1@@ 10020f48     BillAcceptor.obj
 0002:00000f60       ??_7?$CComContainedObject@VCOPOSBillAcceptor@@@ATL@@6B?$IPropertyNotifySinkCP@VCOPOSBillAcceptor@@VCComDynamicUnkArray@ATL@@@1@@ 10020f60     BillAcceptor.obj
 0002:00000f80       ??_7?$CComContainedObject@VCOPOSBillAcceptor@@@ATL@@6B?$CProxy_IOPOSEvents@VCOPOSBillAcceptor@@@@@ 10020f80     BillAcceptor.obj
 0002:00000fa0       ??_7?$CComAggObject@VCOPOSBillAcceptor@@@ATL@@6B@ 10020fa0     BillAcceptor.obj
 0002:00000fb0       ??_7?$CComObject@VCOPOSBillAcceptor@@@ATL@@6B?$IDispatchImpl@UIOPOSBillAcceptor@@$1?IID_IOPOSBillAcceptor@@3U_GUID@@B$1?LIBID_OposBillAcceptor_CCO@@3U3@B$00$0A@VCComTypeInfoHolder@ATL@@@1@@ 10020fb0     BillAcceptor.obj
 0002:000010e0       ??_7?$CComObject@VCOPOSBillAcceptor@@@ATL@@6BCComControlBase@1@@ 100210e0     BillAcceptor.obj
 0002:000010f4       ??_7?$CComObject@VCOPOSBillAcceptor@@@ATL@@6B?$CWindowImpl@VCOPOSBillAcceptor@@VCWindow@ATL@@V?$CWinTraits@$0FGAAAAAA@$0A@@3@@1@@ 100210f4     BillAcceptor.obj
 0002:00001104       ??_7?$CComObject@VCOPOSBillAcceptor@@@ATL@@6B?$IPersistStreamInitImpl@VCOPOSBillAcceptor@@@1@@ 10021104     BillAcceptor.obj
 0002:00001128       ??_7?$CComObject@VCOPOSBillAcceptor@@@ATL@@6B?$IOleControlImpl@VCOPOSBillAcceptor@@@1@@ 10021128     BillAcceptor.obj
 0002:00001144       ??_7?$CComObject@VCOPOSBillAcceptor@@@ATL@@6B?$IOleObjectImpl@VCOPOSBillAcceptor@@@1@@ 10021144     BillAcceptor.obj
 0002:000011a4       ??_7?$CComObject@VCOPOSBillAcceptor@@@ATL@@6B?$IOleInPlaceActiveObjectImpl@VCOPOSBillAcceptor@@@1@@ 100211a4     BillAcceptor.obj
 0002:000011cc       ??_7?$CComObject@VCOPOSBillAcceptor@@@ATL@@6B?$IViewObjectExImpl@VCOPOSBillAcceptor@@@1@@ 100211cc     BillAcceptor.obj
 0002:00001208       ??_7?$CComObject@VCOPOSBillAcceptor@@@ATL@@6B?$IOleInPlaceObjectWindowlessImpl@VCOPOSBillAcceptor@@@1@@ 10021208     BillAcceptor.obj
 0002:00001234       ??_7?$CComObject@VCOPOSBillAcceptor@@@ATL@@6B?$IConnectionPointContainerImpl@VCOPOSBillAcceptor@@@1@@ 10021234     BillAcceptor.obj
 0002:00001248       ??_7?$CComObject@VCOPOSBillAcceptor@@@ATL@@6B?$IPersistStorageImpl@VCOPOSBillAcceptor@@@1@@ 10021248     BillAcceptor.obj
 0002:00001270       ??_7?$CComObject@VCOPOSBillAcceptor@@@ATL@@6B?$ISpecifyPropertyPagesImpl@VCOPOSBillAcceptor@@@1@@ 10021270     BillAcceptor.obj
 0002:00001280       ??_7?$CComObject@VCOPOSBillAcceptor@@@ATL@@6B?$IQuickActivateImpl@VCOPOSBillAcceptor@@@1@@ 10021280     BillAcceptor.obj
 0002:00001298       ??_7?$CComObject@VCOPOSBillAcceptor@@@ATL@@6B?$IDataObjectImpl@VCOPOSBillAcceptor@@@1@@ 10021298     BillAcceptor.obj
 0002:000012c8       ??_7?$CComObject@VCOPOSBillAcceptor@@@ATL@@6B?$IProvideClassInfo2Impl@$1?CLSID_OPOSBillAcceptor@@3U_GUID@@B$1?DIID__IOPOSBillAcceptorEvents@@3U2@B$1?LIBID_OposBillAcceptor_CCO@@3U2@B$00$0A@VCComTypeInfoHolder@ATL@@@1@@ 100212c8     BillAcceptor.obj
 0002:000012dc       ??_7?$CComObject@VCOPOSBillAcceptor@@@ATL@@6B?$IObjectSafetyImpl@VCOPOSBillAcceptor@@$02@1@@ 100212dc     BillAcceptor.obj
 0002:000012f4       ??_7?$CComObject@VCOPOSBillAcceptor@@@ATL@@6B?$IPropertyNotifySinkCP@VCOPOSBillAcceptor@@VCComDynamicUnkArray@ATL@@@1@@ 100212f4     BillAcceptor.obj
 0002:00001314       ??_7?$CComObject@VCOPOSBillAcceptor@@@ATL@@6B?$CProxy_IOPOSEvents@VCOPOSBillAcceptor@@@@@ 10021314     BillAcceptor.obj
 0002:00001334       ??_C@_1O@GBFKGNEO@?$AAA?$AAT?$AAL?$AA?3?$AA?$CF?$AAp@ 10021334     BillAcceptor.obj
 0002:00001344       ??_C@_1BA@PICGEGJB@?$AAD?$AAI?$AAS?$AAP?$AAL?$AAA?$AAY@ 10021344     BillAcceptor.obj
 0002:00001354       __GUID_9bfbbc02_eff1_101a_84ed_00aa00341d07 10021354     BillAcceptor.obj
 0002:00001364       __GUID_b196b284_bab4_101a_b69c_00aa00341d07 10021364     BillAcceptor.obj
 0002:00001374       ?_entries@?1??_GetEntries@?$CComEnum@UIEnumConnectionPoints@@$1?_GUID_b196b285_bab4_101a_b69c_00aa00341d07@@3U__s_GUID@@BPAUIConnectionPoint@@V?$_CopyInterface@UIConnectionPoint@@@ATL@@VCComSingleThreadModel@6@@ATL@@SGPBU_ATL_INTMAP_ENTRY@3@XZ@4QBU43@B 10021374     BillAcceptor.obj
 0002:0000138c       __GUID_00020412_0000_0000_c000_000000000046 1002138c     BillAcceptor.obj
 0002:0000139c       __GUID_00020401_0000_0000_c000_000000000046 1002139c     BillAcceptor.obj
 0002:000013ac       ??_7?$CComObject@V?$CComEnum@UIEnumConnections@@$1?_GUID_b196b287_bab4_101a_b69c_00aa00341d07@@3U__s_GUID@@BUtagCONNECTDATA@@V?$_Copy@UtagCONNECTDATA@@@ATL@@VCComSingleThreadModel@6@@ATL@@@ATL@@6B@ 100213ac     BillAcceptor.obj
 0002:000013cc       __GUID_55980ba0_35aa_11cf_b671_00aa004cd6d8 100213cc     BillAcceptor.obj
 0002:000013dc       __GUID_b196b28b_bab4_101a_b69c_00aa00341d07 100213dc     BillAcceptor.obj
 0002:000013ec       ?_entries@?1??_GetEntries@?$CComEnum@UIEnumConnections@@$1?_GUID_b196b287_bab4_101a_b69c_00aa00341d07@@3U__s_GUID@@BUtagCONNECTDATA@@V?$_Copy@UtagCONNECTDATA@@@ATL@@VCComSingleThreadModel@6@@ATL@@SGPBU_ATL_INTMAP_ENTRY@3@XZ@4QBU43@B 100213ec     BillAcceptor.obj
 0002:00001404       ??_C@_0BG@EKFFMJIO@RegOpenKeyTransactedW@ 10021404     BillAcceptor.obj
 0002:0000141c       ??_C@_0BI@HAKLOOGP@RegDeleteKeyTransactedW@ 1002141c     BillAcceptor.obj
 0002:00001434       ??_C@_0BA@LILAPHGE@RegDeleteKeyExW@ 10021434     BillAcceptor.obj
 0002:00001444       ??_C@_19ILOCMLCJ@?$AA?4?$AAt?$AAl?$AAb@ 10021444     BillAcceptor.obj
 0002:00001450       __GUID_0002e012_0000_0000_c000_000000000046 10021450     BillAcceptor.obj
 0002:00001460       ??_C@_1O@FHBGLCIO@?$AAC?$AAL?$AAS?$AAI?$AAD?$AA?2@ 10021460     BillAcceptor.obj
 0002:00001470       ??_C@_1CK@IFBKBFAA@?$AA?2?$AAR?$AAe?$AAq?$AAu?$AAi?$AAr?$AAe?$AAd?$AA?5?$AAC?$AAa?$AAt?$AAe?$AAg@ 10021470     BillAcceptor.obj
 0002:0000149c       ??_C@_1DA@BIHALFED@?$AA?2?$AAI?$AAm?$AAp?$AAl?$AAe?$AAm?$AAe?$AAn?$AAt?$AAe?$AAd?$AA?5?$AAC?$AAa@ 1002149c     BillAcceptor.obj
 0002:000014cc       ??_C@_1BK@EDKOLFBJ@?$AAO?$AAL?$AAE?$AAA?$AAU?$AAT?$AA3?$AA2?$AA?4?$AAD?$AAL?$AAL@ 100214cc     BillAcceptor.obj
 0002:000014e8       ??_C@_0BJ@CNLFOMHB@UnRegisterTypeLibForUser@ 100214e8     BillAcceptor.obj
 0002:00001504       ??_C@_0BH@LBOMMKPJ@RegisterTypeLibForUser@ 10021504     BillAcceptor.obj
 0002:0000151c       ??_C@_0P@MMNMMLGK@COFreezeEvents@ 1002151c     BillAcceptorImpl.obj
 0002:0000152c       ??_C@_0BC@OGCGGIMP@GetPropertyNumber@ 1002152c     BillAcceptorImpl.obj
 0002:00001540       ??_C@_0BC@MDCNODNB@SetPropertyNumber@ 10021540     BillAcceptorImpl.obj
 0002:00001554       ??_C@_0BC@CFCCMIMD@GetPropertyString@ 10021554     BillAcceptorImpl.obj
 0002:00001568       ??_C@_0BC@CJEDNN@SetPropertyString@ 10021568     BillAcceptorImpl.obj
 0002:0000157c       ??_C@_0M@LNPKKKDA@OpenService@ 1002157c     BillAcceptorImpl.obj
 0002:00001588       ??_C@_0M@PCMCHHMH@CheckHealth@ 10021588     BillAcceptorImpl.obj
 0002:00001594       ??_C@_0M@JGMIDNEK@ClaimDevice@ 10021594     BillAcceptorImpl.obj
 0002:000015a0       ??_C@_0L@BNEIFEJC@ClearInput@ 100215a0     BillAcceptorImpl.obj
 0002:000015ac       ??_C@_0N@DDFIIBMP@CloseService@ 100215ac     BillAcceptorImpl.obj
 0002:000015bc       ??_C@_08EEIHICPC@DirectIO@ 100215bc     BillAcceptorImpl.obj
 0002:000015c8       ??_C@_0O@BCPMENMJ@ReleaseDevice@ 100215c8     BillAcceptorImpl.obj
 0002:000015d8       ??_C@_0BA@GFABKEEE@ResetStatistics@ 100215d8     BillAcceptorImpl.obj
 0002:000015e8       ??_C@_0BD@DPALHJGC@RetrieveStatistics@ 100215e8     BillAcceptorImpl.obj
 0002:000015fc       ??_C@_0BB@KOHIKNFC@UpdateStatistics@ 100215fc     BillAcceptorImpl.obj
 0002:00001610       ??_C@_0BH@PBKBNMGB@CompareFirmwareVersion@ 10021610     BillAcceptorImpl.obj
 0002:00001628       ??_C@_0P@FBPDPIPA@UpdateFirmware@ 10021628     BillAcceptorImpl.obj
 0002:00001638       ??_C@_0BB@OAMAKNAK@AdjustCashCounts@ 10021638     BillAcceptorImpl.obj
 0002:0000164c       ??_C@_0N@EMNBHBJF@BeginDeposit@ 1002164c     BillAcceptorImpl.obj
 0002:0000165c       ??_C@_0L@OMAABOPC@EndDeposit@ 1002165c     BillAcceptorImpl.obj
 0002:00001668       ??_C@_0L@NNMKNCOP@FixDeposit@ 10021668     BillAcceptorImpl.obj
 0002:00001674       ??_C@_0N@NPMPKLIN@PauseDeposit@ 10021674     BillAcceptorImpl.obj
 0002:00001684       ??_C@_0P@HELDJPLA@ReadCashCounts@ 10021684     BillAcceptorImpl.obj
 0002:00001694       ??_7?$CProxy_IOPOSEvents@VCOPOSBillAcceptor@@@@6B@ 10021694     BillAcceptorImpl.obj
 0002:000016b4       ??_C@_1BA@IFHENID@?$AA?$FL?$AAE?$AAr?$AAr?$AAo?$AAr?$AA?$FN@ 100216b4     BillAcceptorImpl.obj
 0002:000016c4       ??_C@_0CP@ILDFPACO@SOFTWARE?2OLEforRetail?2ServiceOP@ 100216c4     BillAcceptorImpl.obj
 0002:000016f4       ??_C@_1M@IAIJHCCH@?$AAC?$AAl?$AAo?$AAs?$AAe@ 100216f4     BillAcceptorImpl.obj
 0002:00001700       ??_C@_1M@PCPKGJAH@?$AAC?$AAl?$AAa?$AAi?$AAm@ 10021700     BillAcceptorImpl.obj
 0002:0000170c       ??_C@_1BA@NDFKIOCP@?$AAR?$AAe?$AAl?$AAe?$AAa?$AAs?$AAe@ 1002170c     BillAcceptorImpl.obj
 0002:0000171c       ??_C@_0N@DPFDBDOF@BillAcceptor@ 1002171c     BillAcceptorImpl.obj
 0002:0000172c       ??_C@_1BM@IJMNMBPK@?$AAG?$AAe?$AAt?$AAO?$AAp?$AAe?$AAn?$AAR?$AAe?$AAs?$AAu?$AAl?$AAt@ 1002172c     BillAcceptorImpl.obj
 0002:00001748       _IID_IPropertyNotifySink   10021748     uuid:ocidl_i.obj
 0002:00001758       _GUID_NULL                 10021758     uuid:cguid_i.obj
 0002:00001768       _CLSID_StdGlobalInterfaceTable 10021768     uuid:cguid_i.obj
 0002:00001778       _IID_IDispatch             10021778     uuid:oaidl_i.obj
 0002:00001788       _CLSID_StdComponentCategoriesMgr 10021788     uuid:ieguids.obj
 0002:00001798       _IID_IUnknown              10021798     uuid:unknwn_i.obj
 0002:000017a8       ??_C@_1EC@JIJBPKFM@?$AAa?$AAp?$AAi?$AA?9?$AAm?$AAs?$AA?9?$AAw?$AAi?$AAn?$AA?9?$AAc?$AAo?$AAr?$AAe@ 100217a8     LIBCMT:thread_safe_statics.obj
 0002:000017ec       ??_C@_1BK@MGMFAEKH@?$AAk?$AAe?$AAr?$AAn?$AAe?$AAl?$AA3?$AA2?$AA?4?$AAd?$AAl?$AAl@ 100217ec     LIBCMT:thread_safe_statics.obj
 0002:00001808       ??_C@_0BJ@JEBJOJFJ@SleepConditionVariableCS@ 10021808     LIBCMT:thread_safe_statics.obj
 0002:00001824       ??_C@_0BJ@PGPPEPCC@WakeAllConditionVariable@ 10021824     LIBCMT:thread_safe_statics.obj
 0002:0000183d       ?nothrow@std@@3Unothrow_t@1@B 1002183d     LIBCMT:std_nothrow.obj
 0002:00001848       __pRawDllMain              10021848     LIBCMT:dll_dllmain.obj
 0002:00001848       __pDefaultRawDllMain       10021848     LIBCMT:dll_dllmain.obj
 0002:00001850       ??_7exception@std@@6B@     10021850     LIBCMT:throw_bad_alloc.obj
 0002:00001858       ??_C@_0BC@EOODALEL@Unknown?5exception@ 10021858     LIBCMT:throw_bad_alloc.obj
 0002:00001870       ??_7bad_alloc@std@@6B@     10021870     LIBCMT:throw_bad_alloc.obj
 0002:00001878       ??_C@_0P@GHFPNOJB@bad?5allocation@ 10021878     LIBCMT:throw_bad_alloc.obj
 0002:0000188c       ??_7bad_array_new_length@std@@6B@ 1002188c     LIBCMT:throw_bad_alloc.obj
 0002:00001894       ??_C@_0BF@KINCDENJ@bad?5array?5new?5length@ 10021894     LIBCMT:throw_bad_alloc.obj
 0002:000018b0       ??_7type_info@@6B@         100218b0     LIBCMT:std_type_info_static.obj
 0002:000018b4       _GUID_ATLVer110            100218b4     atls:atlbase.obj
 0002:000018c8       ??_C@_1IC@ONKHOIDK@?$AAE?$AAR?$AAR?$AAO?$AAR?$AA?5?$AA?3?$AA?5?$AAU?$AAn?$AAa?$AAb?$AAl?$AAe?$AA?5@ 100218c8     atls:atlbase.obj
 0002:0000194c       ??_C@_0N@FJEPLCIH@atlthunk?4dll@ 1002194c     atls:atlthunk.obj
 0002:0000195c       ??_C@_0BG@GAKFHCBM@AtlThunk_AllocateData@ 1002195c     atls:atlthunk.obj
 0002:00001974       ??_C@_0BC@JKONFIAH@AtlThunk_InitData@ 10021974     atls:atlthunk.obj
 0002:00001988       ??_C@_0BE@IAOEELAK@AtlThunk_DataToCode@ 10021988     atls:atlthunk.obj
 0002:0000199c       ??_C@_0BC@GBGKAIPI@AtlThunk_FreeData@ 1002199c     atls:atlthunk.obj
 0002:000019b0       __pDestructExceptionObject 100219b0     libvcruntime:ehhelpers.obj
 0002:000019b8       ??_7bad_exception@std@@6B@ 100219b8     libvcruntime:frame.obj
 0002:000019c0       ??_C@_0O@DPKOEFFH@bad?5exception@ 100219c0     libvcruntime:frame.obj
 0002:00001d50       ??_C@_08EHJDFFNH@__based?$CI@ 10021d50     libvcruntime:undname.obj
 0002:00001d5c       ??_C@_07KOLFKCDI@__cdecl@  10021d5c     libvcruntime:undname.obj
 0002:00001d64       ??_C@_08GHMPAG@__pascal@   10021d64     libvcruntime:undname.obj
 0002:00001d70       ??_C@_09IFJBGAPI@__stdcall@ 10021d70     libvcruntime:undname.obj
 0002:00001d7c       ??_C@_0L@NPHFGOKO@__thiscall@ 10021d7c     libvcruntime:undname.obj
 0002:00001d88       ??_C@_0L@JMKHOMEK@__fastcall@ 10021d88     libvcruntime:undname.obj
 0002:00001d94       ??_C@_0N@BCKKPABJ@__vectorcall@ 10021d94     libvcruntime:undname.obj
 0002:00001da4       ??_C@_09HIJEGCPM@__clrcall@ 10021da4     libvcruntime:undname.obj
 0002:00001db0       ??_C@_06GHPCKEAG@__eabi@   10021db0     libvcruntime:undname.obj
 0002:00001db8       ??_C@_09IOPIDJLG@__swift_1@ 10021db8     libvcruntime:undname.obj
 0002:00001dc4       ??_C@_09KFNFGKHF@__swift_2@ 10021dc4     libvcruntime:undname.obj
 0002:00001dd0       ??_C@_07JOMMBBKO@__ptr64@  10021dd0     libvcruntime:undname.obj
 0002:00001dd8       ??_C@_0L@PILCLIHE@__restrict@ 10021dd8     libvcruntime:undname.obj
 0002:00001de4       ??_C@_0M@GFIIJFMG@__unaligned@ 10021de4     libvcruntime:undname.obj
 0002:00001df0       ??_C@_09DHDLOLLB@restrict?$CI@ 10021df0     libvcruntime:undname.obj
 0002:00001dfa       ??_C@_00CNPNBAHC@@         10021dfa     libvcruntime:undname.obj
 0002:00001dfc       ??_C@_04NIHEBCM@?5new@     10021dfc     libvcruntime:undname.obj
 0002:00001e04       ??_C@_07FPCDHGMM@?5delete@ 10021e04     libvcruntime:undname.obj
 0002:00001e0c       ??_C@_01NEMOKFLO@?$DN@     10021e0c     libvcruntime:undname.obj
 0002:00001e10       ??_C@_02GPIOPFAK@?$DO?$DO@ 10021e10     libvcruntime:undname.obj
 0002:00001e14       ??_C@_02FODMEDOG@?$DM?$DM@ 10021e14     libvcruntime:undname.obj
 0002:00001e18       ??_C@_01DCLJPIOD@?$CB@     10021e18     libvcruntime:undname.obj
 0002:00001e1c       ??_C@_02EGOFBIJA@?$DN?$DN@ 10021e1c     libvcruntime:undname.obj
 0002:00001e20       ??_C@_02FDNJECIE@?$CB?$DN@ 10021e20     libvcruntime:undname.obj
 0002:00001e24       ??_C@_02GPECMEKF@?$FL?$FN@ 10021e24     libvcruntime:undname.obj
 0002:00001e28       ??_C@_08LHJFAFGD@operator@ 10021e28     libvcruntime:undname.obj
 0002:00001e34       ??_C@_02HBOOOICD@?9?$DO@   10021e34     libvcruntime:undname.obj
 0002:00001e38       ??_C@_01NBENCBCI@?$CK@     10021e38     libvcruntime:undname.obj
 0002:00001e3c       ??_C@_02ECNGHCIF@?$CL?$CL@ 10021e3c     libvcruntime:undname.obj
 0002:00001e40       ??_C@_02BAABKJLB@?9?9@     10021e40     libvcruntime:undname.obj
 0002:00001e44       ??_C@_01JOAMLHOP@?9@       10021e44     libvcruntime:undname.obj
 0002:00001e48       ??_C@_01MIFGBAGJ@?$CL@     10021e48     libvcruntime:undname.obj
 0002:00001e4c       ??_C@_01HNPIGOCE@?$CG@     10021e4c     libvcruntime:undname.obj
 0002:00001e50       ??_C@_03MNHNFDLC@?9?$DO?$CK@ 10021e50     libvcruntime:undname.obj
 0002:00001e54       ??_C@_01KMDKNFGN@?1@       10021e54     libvcruntime:undname.obj
 0002:00001e58       ??_C@_01FGNFDNOH@?$CF@     10021e58     libvcruntime:undname.obj
 0002:00001e5c       ??_C@_01MNNFJEPP@?$DM@     10021e5c     libvcruntime:undname.obj
 0002:00001e60       ??_C@_02EHCHHCKH@?$DM?$DN@ 10021e60     libvcruntime:undname.obj
 0002:00001e64       ??_C@_01PPODPGHN@?$DO@     10021e64     libvcruntime:undname.obj
 0002:00001e68       ??_C@_02EEKDKGMJ@?$DO?$DN@ 10021e68     libvcruntime:undname.obj
 0002:00001e6c       ??_C@_01IHBHIGKO@?0@       10021e6c     libvcruntime:undname.obj
 0002:00001e70       ??_C@_02HCKGKOFO@?$CI?$CJ@ 10021e70     libvcruntime:undname.obj
 0002:00001e74       ??_C@_01PJKLJHI@?$HO@      10021e74     libvcruntime:undname.obj
 0002:00001e78       ??_C@_01JKBOJNNK@?$FO@     10021e78     libvcruntime:undname.obj
 0002:00001e7c       ??_C@_01DNKMNLPK@?$HM@     10021e7c     libvcruntime:undname.obj
 0002:00001e80       ??_C@_02PPKAJPJL@?$CG?$CG@ 10021e80     libvcruntime:undname.obj
 0002:00001e84       ??_C@_02NONPIBCD@?$HM?$HM@ 10021e84     libvcruntime:undname.obj
 0002:00001e88       ??_C@_02FPIMKNGF@?$CK?$DN@ 10021e88     libvcruntime:undname.obj
 0002:00001e8c       ??_C@_02FOEOMHFC@?$CL?$DN@ 10021e8c     libvcruntime:undname.obj
 0002:00001e90       ??_C@_02FKMDLLOA@?9?$DN@   10021e90     libvcruntime:undname.obj
 0002:00001e94       ??_C@_02FJEHGPIO@?1?$DN@   10021e94     libvcruntime:undname.obj
 0002:00001e98       ??_C@_02FENAOKFI@?$CF?$DN@ 10021e98     libvcruntime:undname.obj
 0002:00001e9c       ??_C@_03IKFCCPFF@?$DO?$DO?$DN@ 10021e9c     libvcruntime:undname.obj
 0002:00001ea0       ??_C@_03CDNPDDLA@?$DM?$DM?$DN@ 10021ea0     libvcruntime:undname.obj
 0002:00001ea4       ??_C@_02FGJGFEAB@?$CG?$DN@ 10021ea4     libvcruntime:undname.obj
 0002:00001ea8       ??_C@_02DHLNPPGH@?$HM?$DN@ 10021ea8     libvcruntime:undname.obj
 0002:00001eac       ??_C@_02MHEGNOJ@?$FO?$DN@  10021eac     libvcruntime:undname.obj
 0002:00001eb0       ??_C@_09IFPLHPGF@?$GAvftable?8@ 10021eb0     libvcruntime:undname.obj
 0002:00001ebc       ??_C@_09BLBHBJP@?$GAvbtable?8@ 10021ebc     libvcruntime:undname.obj
 0002:00001ec8       ??_C@_07FEEIOKP@?$GAvcall?8@ 10021ec8     libvcruntime:undname.obj
 0002:00001ed0       ??_C@_08LLFFHHDJ@?$GAtypeof?8@ 10021ed0     libvcruntime:undname.obj
 0002:00001edc       ??_C@_0BF@KDPPACIK@?$GAlocal?5static?5guard?8@ 10021edc     libvcruntime:undname.obj
 0002:00001ef4       ??_C@_08OBABFOLI@?$GAstring?8@ 10021ef4     libvcruntime:undname.obj
 0002:00001f00       ??_C@_0BD@JDLKDPAB@?$GAvbase?5destructor?8@ 10021f00     libvcruntime:undname.obj
 0002:00001f14       ??_C@_0BN@DEGPLNFK@?$GAvector?5deleting?5destructor?8@ 10021f14     libvcruntime:undname.obj
 0002:00001f34       ??_C@_0BO@OBMKPJIG@?$GAdefault?5constructor?5closure?8@ 10021f34     libvcruntime:undname.obj
 0002:00001f54       ??_C@_0BN@IMDCHIKM@?$GAscalar?5deleting?5destructor?8@ 10021f54     libvcruntime:undname.obj
 0002:00001f74       ??_C@_0BO@PFGOCPJJ@?$GAvector?5constructor?5iterator?8@ 10021f74     libvcruntime:undname.obj
 0002:00001f94       ??_C@_0BN@LFPFMEDL@?$GAvector?5destructor?5iterator?8@ 10021f94     libvcruntime:undname.obj
 0002:00001fb4       ??_C@_0CE@IKBNEHA@?$GAvector?5vbase?5constructor?5itera@ 10021fb4     libvcruntime:undname.obj
 0002:00001fd8       ??_C@_0BL@NILFHHPC@?$GAvirtual?5displacement?5map?8@ 10021fd8     libvcruntime:undname.obj
 0002:00001ff4       ??_C@_0CB@JONCMFFK@?$GAeh?5vector?5constructor?5iterator@ 10021ff4     libvcruntime:undname.obj
 0002:00002018       ??_C@_0CA@GCEOPDGL@?$GAeh?5vector?5destructor?5iterator?8@ 10022018     libvcruntime:undname.obj
 0002:00002038       ??_C@_0CH@OOJPLCPH@?$GAeh?5vector?5vbase?5constructor?5it@ 10022038     libvcruntime:undname.obj
 0002:00002060       ??_C@_0BL@LLKPOHJI@?$GAcopy?5constructor?5closure?8@ 10022060     libvcruntime:undname.obj
 0002:0000207c       ??_C@_0BA@KBCDOMBN@?$GAudt?5returning?8@ 1002207c     libvcruntime:undname.obj
 0002:0000208c       ??_C@_03KLGMFNMG@?$GAEH@   1002208c     libvcruntime:undname.obj
 0002:00002090       ??_C@_05KHLCHHI@?$GARTTI@  10022090     libvcruntime:undname.obj
 0002:00002098       ??_C@_0BA@KKLDJDLB@?$GAlocal?5vftable?8@ 10022098     libvcruntime:undname.obj
 0002:000020a8       ??_C@_0CE@IIHCMGGL@?$GAlocal?5vftable?5constructor?5clos@ 100220a8     libvcruntime:undname.obj
 0002:000020cc       ??_C@_06FHBGPFGH@?5new?$FL?$FN@ 100220cc     libvcruntime:undname.obj
 0002:000020d4       ??_C@_09LBNFPBCA@?5delete?$FL?$FN@ 100220d4     libvcruntime:undname.obj
 0002:000020e0       ??_C@_0P@HJKNJFNN@?$GAomni?5callsig?8@ 100220e0     libvcruntime:undname.obj
 0002:000020f0       ??_C@_0BL@CNOONJFP@?$GAplacement?5delete?5closure?8@ 100220f0     libvcruntime:undname.obj
 0002:0000210c       ??_C@_0BN@CKNJLHMB@?$GAplacement?5delete?$FL?$FN?5closure?8@ 1002210c     libvcruntime:undname.obj
 0002:0000212c       ??_C@_0CG@CFDHKGGD@?$GAmanaged?5vector?5constructor?5ite@ 1002212c     libvcruntime:undname.obj
 0002:00002154       ??_C@_0CF@IMGKMJNO@?$GAmanaged?5vector?5destructor?5iter@ 10022154     libvcruntime:undname.obj
 0002:0000217c       ??_C@_0CG@HLDDJMAG@?$GAeh?5vector?5copy?5constructor?5ite@ 1002217c     libvcruntime:undname.obj
 0002:000021a4       ??_C@_0CM@FCBBDIGB@?$GAeh?5vector?5vbase?5copy?5construct@ 100221a4     libvcruntime:undname.obj
 0002:000021d0       ??_C@_0BL@CLIPGLGB@?$GAdynamic?5initializer?5for?5?8@ 100221d0     libvcruntime:undname.obj
 0002:000021ec       ??_C@_0CB@PDBIFEP@?$GAdynamic?5atexit?5destructor?5for?5@ 100221ec     libvcruntime:undname.obj
 0002:00002210       ??_C@_0CD@CGAJBKEJ@?$GAvector?5copy?5constructor?5iterat@ 10022210     libvcruntime:undname.obj
 0002:00002234       ??_C@_0CJ@GJELGAMM@?$GAvector?5vbase?5copy?5constructor?5@ 10022234     libvcruntime:undname.obj
 0002:00002260       ??_C@_0CL@FGIJHLCE@?$GAmanaged?5vector?5copy?5constructo@ 10022260     libvcruntime:undname.obj
 0002:0000228c       ??_C@_0BM@PMGGMLDN@?$GAlocal?5static?5thread?5guard?8@ 1002228c     libvcruntime:undname.obj
 0002:000022a8       ??_C@_0N@BDNMDMOL@operator?5?$CC?$CC?5@ 100222a8     libvcruntime:undname.obj
 0002:000022b8       ??_C@_0BC@GGEBGALA@operator?5co_await@ 100222b8     libvcruntime:undname.obj
 0002:000022cc       ??_C@_0M@GAAIMMOH@operator?$DM?$DN?$DO@ 100222cc     libvcruntime:undname.obj
 0002:000022d8       ??_C@_0BC@DAFEJGAK@?5Type?5Descriptor?8@ 100222d8     libvcruntime:undname.obj
 0002:000022ec       ??_C@_0BM@LDKODKLH@?5Base?5Class?5Descriptor?5at?5?$CI@ 100222ec     libvcruntime:undname.obj
 0002:00002308       ??_C@_0BD@LGICGFMM@?5Base?5Class?5Array?8@ 10022308     libvcruntime:undname.obj
 0002:0000231c       ??_C@_0BN@MECKDCOJ@?5Class?5Hierarchy?5Descriptor?8@ 1002231c     libvcruntime:undname.obj
 0002:0000233c       ??_C@_0BK@CFCOFLF@?5Complete?5Object?5Locator?8@ 1002233c     libvcruntime:undname.obj
 0002:00002358       ??_C@_0BG@JNJLAMPM@?$GAanonymous?5namespace?8@ 10022358     libvcruntime:undname.obj
 0002:0000237c       ??_C@_1DM@KHCHBNEB@?$AAa?$AAp?$AAi?$AA?9?$AAm?$AAs?$AA?9?$AAw?$AAi?$AAn?$AA?9?$AAc?$AAo?$AAr?$AAe@ 1002237c     libvcruntime:winapi_downlevel.obj
 0002:000023b8       ??_C@_1DK@LPPGFMPP@?$AAa?$AAp?$AAi?$AA?9?$AAm?$AAs?$AA?9?$AAw?$AAi?$AAn?$AA?9?$AAc?$AAo?$AAr?$AAe@ 100223b8     libvcruntime:winapi_downlevel.obj
 0002:000023f4       ??_C@_1BC@GDMECMAK@?$AAk?$AAe?$AAr?$AAn?$AAe?$AAl?$AA3?$AA2@ 100223f4     libvcruntime:winapi_downlevel.obj
 0002:00002408       ??_C@_1BA@PFFKHIOG@?$AAa?$AAp?$AAi?$AA?9?$AAm?$AAs?$AA?9@ 10022408     libvcruntime:winapi_downlevel.obj
 0002:00002420       ??_C@_08KNHFBNJ@FlsAlloc@  10022420     libvcruntime:winapi_downlevel.obj
 0002:00002434       ??_C@_07PEJMOBNF@FlsFree@  10022434     libvcruntime:winapi_downlevel.obj
 0002:00002444       ??_C@_0M@GDNOONDI@FlsGetValue@ 10022444     libvcruntime:winapi_downlevel.obj
 0002:00002458       ??_C@_0M@JCPCPOEF@FlsSetValue@ 10022458     libvcruntime:winapi_downlevel.obj
 0002:0000246c       ??_C@_0BM@HCFOFFN@InitializeCriticalSectionEx@ 1002246c     libvcruntime:winapi_downlevel.obj
 0002:000025f0       ?format_validation_lookup_table_spectre@__crt_stdio_output@@3V?$spectre_mitigated_lookup_table@Ustate_transition_pair@__crt_stdio_output@@$0IA@@1@B 100225f0     libucrt:output.obj
 0002:000029f0       ??_C@_1O@CEDCILHN@?$AA?$CI?$AAn?$AAu?$AAl?$AAl?$AA?$CJ@ 100229f0     libucrt:output.obj
 0002:00002a00       ??_C@_06OJHGLDPL@?$CInull?$CJ@ 10022a00     libucrt:output.obj
 0002:00002a08       ___acrt_exception_action_table 10022a08     libucrt:exception_filter.obj
 0002:00002a98       ___acrt_signal_action_table_count 10022a98     libucrt:exception_filter.obj
 0002:00002a9c       ___acrt_signal_action_first_fpe_index 10022a9c     libucrt:exception_filter.obj
 0002:00002aa0       ___acrt_signal_action_fpe_count 10022aa0     libucrt:exception_filter.obj
 0002:00002aa4       ??_C@_1BI@BGOHAHKC@?$AAm?$AAs?$AAc?$AAo?$AAr?$AAe?$AAe?$AA?4?$AAd?$AAl?$AAl@ 10022aa4     libucrt:exit.obj
 0002:00002abc       ??_C@_0P@MIGLKIOC@CorExitProcess@ 10022abc     libucrt:exit.obj
 0002:00002ba0       ??_C@_1EA@JGEFHKEI@?$AAa?$AAp?$AAi?$AA?9?$AAm?$AAs?$AA?9?$AAw?$AAi?$AAn?$AA?9?$AAc?$AAo?$AAr?$AAe@ 10022ba0     libucrt:winapi_thunks.obj
 0002:00002be0       ??_C@_1DI@IJCEHOCB@?$AAa?$AAp?$AAi?$AA?9?$AAm?$AAs?$AA?9?$AAw?$AAi?$AAn?$AA?9?$AAc?$AAo?$AAr?$AAe@ 10022be0     libucrt:winapi_thunks.obj
 0002:00002c18       ??_C@_1EI@MPIAOHOC@?$AAa?$AAp?$AAi?$AA?9?$AAm?$AAs?$AA?9?$AAw?$AAi?$AAn?$AA?9?$AAc?$AAo?$AAr?$AAe@ 10022c18     libucrt:winapi_thunks.obj
 0002:00002c60       ??_C@_1FK@FPHCKFIE@?$AAa?$AAp?$AAi?$AA?9?$AAm?$AAs?$AA?9?$AAw?$AAi?$AAn?$AA?9?$AAc?$AAo?$AAr?$AAe@ 10022c60     libucrt:winapi_thunks.obj
 0002:00002cc0       ??_C@_1EM@DILCGIIO@?$AAa?$AAp?$AAi?$AA?9?$AAm?$AAs?$AA?9?$AAw?$AAi?$AAn?$AA?9?$AAc?$AAo?$AAr?$AAe@ 10022cc0     libucrt:winapi_thunks.obj
 0002:00002d0c       ??_C@_1DM@LNCGDDPN@?$AAa?$AAp?$AAi?$AA?9?$AAm?$AAs?$AA?9?$AAw?$AAi?$AAn?$AA?9?$AAc?$AAo?$AAr?$AAe@ 10022d0c     libucrt:winapi_thunks.obj
 0002:00002d48       ??_C@_1DO@FPAPJEMD@?$AAa?$AAp?$AAi?$AA?9?$AAm?$AAs?$AA?9?$AAw?$AAi?$AAn?$AA?9?$AAc?$AAo?$AAr?$AAe@ 10022d48     libucrt:winapi_thunks.obj
 0002:00002d88       ??_C@_1DK@NDHNAHIO@?$AAa?$AAp?$AAi?$AA?9?$AAm?$AAs?$AA?9?$AAw?$AAi?$AAn?$AA?9?$AAc?$AAo?$AAr?$AAe@ 10022d88     libucrt:winapi_thunks.obj
 0002:00002dc4       ??_C@_1DM@KGHDGBCM@?$AAa?$AAp?$AAi?$AA?9?$AAm?$AAs?$AA?9?$AAw?$AAi?$AAn?$AA?9?$AAc?$AAo?$AAr?$AAe@ 10022dc4     libucrt:winapi_thunks.obj
 0002:00002e00       ??_C@_1EO@IJIOEFOH@?$AAa?$AAp?$AAi?$AA?9?$AAm?$AAs?$AA?9?$AAw?$AAi?$AAn?$AA?9?$AAr?$AAt?$AAc?$AAo@ 10022e00     libucrt:winapi_thunks.obj
 0002:00002e50       ??_C@_1FG@HHGEKANL@?$AAa?$AAp?$AAi?$AA?9?$AAm?$AAs?$AA?9?$AAw?$AAi?$AAn?$AA?9?$AAs?$AAe?$AAc?$AAu@ 10022e50     libucrt:winapi_thunks.obj
 0002:00002ea8       ??_C@_1EG@DBIOJECG@?$AAe?$AAx?$AAt?$AA?9?$AAm?$AAs?$AA?9?$AAw?$AAi?$AAn?$AA?9?$AAn?$AAt?$AAu?$AAs@ 10022ea8     libucrt:winapi_thunks.obj
 0002:00002ef0       ??_C@_1EO@FIHMJCLF@?$AAe?$AAx?$AAt?$AA?9?$AAm?$AAs?$AA?9?$AAw?$AAi?$AAn?$AA?9?$AAn?$AAt?$AAu?$AAs@ 10022ef0     libucrt:winapi_thunks.obj
 0002:00002f40       ??_C@_1BC@DNHGCMLG@?$AAa?$AAd?$AAv?$AAa?$AAp?$AAi?$AA3?$AA2@ 10022f40     libucrt:winapi_thunks.obj
 0002:00002f54       ??_C@_1M@OAIMIKLP@?$AAn?$AAt?$AAd?$AAl?$AAl@ 10022f54     libucrt:winapi_thunks.obj
 0002:00002f60       ??_C@_1EG@DPGNFKGC@?$AAa?$AAp?$AAi?$AA?9?$AAm?$AAs?$AA?9?$AAw?$AAi?$AAn?$AA?9?$AAa?$AAp?$AAp?$AAm@ 10022f60     libucrt:winapi_thunks.obj
 0002:00002fa8       ??_C@_1O@BCCLBEOE@?$AAu?$AAs?$AAe?$AAr?$AA3?$AA2@ 10022fa8     libucrt:winapi_thunks.obj
 0002:00002fb8       ??_C@_1BA@IAIFMGEF@?$AAe?$AAx?$AAt?$AA?9?$AAm?$AAs?$AA?9@ 10022fb8     libucrt:winapi_thunks.obj
 0002:00002fcc       ??_C@_0BA@FHFNEAED@AreFileApisANSI@ 10022fcc     libucrt:winapi_thunks.obj
 0002:0000300c       ??_C@_0O@KKBNKAPF@LCMapStringEx@ 1002300c     libucrt:winapi_thunks.obj
 0002:00003024       ??_C@_0BB@HBDEELFH@LocaleNameToLCID@ 10023024     libucrt:winapi_thunks.obj
 0002:0000303c       ??_C@_0CF@OJOFEIGO@AppPolicyGetProcessTerminationM@ 1002303c     libucrt:winapi_thunks.obj
 0002:0000306c       ??_C@_0BI@BKLFFAPO@SetThreadStackGuarantee@ 1002306c     libucrt:winapi_thunks.obj
 0002:000030c8       ??_C@_03OEIAHPBN@INF@      100230c8     libucrt:cvt.obj
 0002:000030cc       ??_C@_03OJHLLCGB@inf@      100230cc     libucrt:cvt.obj
 0002:000030d0       ??_C@_03LKNCIKJB@NAN@      100230d0     libucrt:cvt.obj
 0002:000030d4       ??_C@_03LHCJEHON@nan@      100230d4     libucrt:cvt.obj
 0002:000030d8       ??_C@_09OFJJIMPC@NAN?$CISNAN?$CJ@ 100230d8     libucrt:cvt.obj
 0002:000030e4       ??_C@_09IPFBKMDL@nan?$CIsnan?$CJ@ 100230e4     libucrt:cvt.obj
 0002:000030f0       ??_C@_08IKHNHAJ@NAN?$CIIND?$CJ@ 100230f0     libucrt:cvt.obj
 0002:000030fc       ??_C@_08OFCDMILK@nan?$CIind?$CJ@ 100230fc     libucrt:cvt.obj
 0002:00003108       ??_C@_05KLBDPFGC@e?$CL000@ 10023108     libucrt:cvt.obj
 0002:00003110       ___lc_time_c               10023110     libucrt:nlsdata.obj
 0002:00003274       ??_C@_03KOEHGMDN@Sun@      10023274     libucrt:nlsdata.obj
 0002:00003278       ??_C@_03PDAGKDH@Mon@       10023278     libucrt:nlsdata.obj
 0002:0000327c       ??_C@_03NAGEINEP@Tue@      1002327c     libucrt:nlsdata.obj
 0002:00003280       ??_C@_03MHOMLAJA@Wed@      10023280     libucrt:nlsdata.obj
 0002:00003284       ??_C@_03IOFIKPDN@Thu@      10023284     libucrt:nlsdata.obj
 0002:00003288       ??_C@_03IDIOELNC@Fri@      10023288     libucrt:nlsdata.obj
 0002:0000328c       ??_C@_03FEFJNEK@Sat@       1002328c     libucrt:nlsdata.obj
 0002:00003290       ??_C@_06OOPIFAJ@Sunday@    10023290     libucrt:nlsdata.obj
 0002:00003298       ??_C@_06JLEDEDGH@Monday@   10023298     libucrt:nlsdata.obj
 0002:000032a0       ??_C@_07BAAGCFCM@Tuesday@  100232a0     libucrt:nlsdata.obj
 0002:000032a8       ??_C@_09DLIGFAKA@Wednesday@ 100232a8     libucrt:nlsdata.obj
 0002:000032b4       ??_C@_08HACCIKIA@Thursday@ 100232b4     libucrt:nlsdata.obj
 0002:000032c0       ??_C@_06JECMNKMI@Friday@   100232c0     libucrt:nlsdata.obj
 0002:000032c8       ??_C@_08INBOOONO@Saturday@ 100232c8     libucrt:nlsdata.obj
 0002:000032d4       ??_C@_03JIHJHPIE@Jan@      100232d4     libucrt:nlsdata.obj
 0002:000032d8       ??_C@_03HJBDCHOM@Feb@      100232d8     libucrt:nlsdata.obj
 0002:000032dc       ??_C@_03ODNJBKGA@Mar@      100232dc     libucrt:nlsdata.obj
 0002:000032e0       ??_C@_03LEOLGMJP@Apr@      100232e0     libucrt:nlsdata.obj
 0002:000032e4       ??_C@_03CNMDKL@May@        100232e4     libucrt:nlsdata.obj
 0002:000032e8       ??_C@_03IDFGHECI@Jun@      100232e8     libucrt:nlsdata.obj
 0002:000032ec       ??_C@_03LBGABGKK@Jul@      100232ec     libucrt:nlsdata.obj
 0002:000032f0       ??_C@_03IFJFEIGA@Aug@      100232f0     libucrt:nlsdata.obj
 0002:000032f4       ??_C@_03GGCAPAJC@Sep@      100232f4     libucrt:nlsdata.obj
 0002:000032f8       ??_C@_03BMAOKBAD@Oct@      100232f8     libucrt:nlsdata.obj
 0002:000032fc       ??_C@_03JPJOFNIA@Nov@      100232fc     libucrt:nlsdata.obj
 0002:00003300       ??_C@_03MKABNOCG@Dec@      10023300     libucrt:nlsdata.obj
 0002:00003304       ??_C@_07CGJPFGJA@January@  10023304     libucrt:nlsdata.obj
 0002:0000330c       ??_C@_08GNJGEPFN@February@ 1002330c     libucrt:nlsdata.obj
 0002:00003318       ??_C@_05HPCKOFNC@March@    10023318     libucrt:nlsdata.obj
 0002:00003320       ??_C@_05DMJDNLEJ@April@    10023320     libucrt:nlsdata.obj
 0002:00003328       ??_C@_04CNLMGBGM@June@     10023328     libucrt:nlsdata.obj
 0002:00003330       ??_C@_04MIEPOIFP@July@     10023330     libucrt:nlsdata.obj
 0002:00003338       ??_C@_06LBBHFDDG@August@   10023338     libucrt:nlsdata.obj
 0002:00003340       ??_C@_09BHHEALKD@September@ 10023340     libucrt:nlsdata.obj
 0002:0000334c       ??_C@_07JJNFCEND@October@  1002334c     libucrt:nlsdata.obj
 0002:00003354       ??_C@_08HCHEGEOA@November@ 10023354     libucrt:nlsdata.obj
 0002:00003360       ??_C@_08EDHMEBNP@December@ 10023360     libucrt:nlsdata.obj
 0002:0000336c       ??_C@_02DEDBPAFC@AM@       1002336c     libucrt:nlsdata.obj
 0002:00003370       ??_C@_02CJNFDJBF@PM@       10023370     libucrt:nlsdata.obj
 0002:00003374       ??_C@_08BPBNCDIB@MM?1dd?1yy@ 10023374     libucrt:nlsdata.obj
 0002:00003380       ??_C@_0BE@CKGJFCPC@dddd?0?5MMMM?5dd?0?5yyyy@ 10023380     libucrt:nlsdata.obj
 0002:00003394       ??_C@_08JCCMCCIL@HH?3mm?3ss@ 10023394     libucrt:nlsdata.obj
 0002:000033a0       ??_C@_17MBGCMIPB@?$AAS?$AAu?$AAn@ 100233a0     libucrt:nlsdata.obj
 0002:000033a8       ??_C@_17KBOMKBF@?$AAM?$AAo?$AAn@ 100233a8     libucrt:nlsdata.obj
 0002:000033b0       ??_C@_17BMKGEGOJ@?$AAT?$AAu?$AAe@ 100233b0     libucrt:nlsdata.obj
 0002:000033b8       ??_C@_17CJEDCEPE@?$AAW?$AAe?$AAd@ 100233b8     libucrt:nlsdata.obj
 0002:000033c0       ??_C@_17PDPHAADD@?$AAT?$AAh?$AAu@ 100233c0     libucrt:nlsdata.obj
 0002:000033c8       ??_C@_17HFOLPPLP@?$AAF?$AAr?$AAi@ 100233c8     libucrt:nlsdata.obj
 0002:000033d0       ??_C@_17GGIBDPIH@?$AAS?$AAa?$AAt@ 100233d0     libucrt:nlsdata.obj
 0002:000033d8       ??_C@_1O@IHNHDHPB@?$AAS?$AAu?$AAn?$AAd?$AAa?$AAy@ 100233d8     libucrt:nlsdata.obj
 0002:000033e8       ??_C@_1O@MMNBFLIA@?$AAM?$AAo?$AAn?$AAd?$AAa?$AAy@ 100233e8     libucrt:nlsdata.obj
 0002:000033f8       ??_C@_1BA@ENFBFFEK@?$AAT?$AAu?$AAe?$AAs?$AAd?$AAa?$AAy@ 100233f8     libucrt:nlsdata.obj
 0002:00003408       ??_C@_1BE@EBOGMDOH@?$AAW?$AAe?$AAd?$AAn?$AAe?$AAs?$AAd?$AAa?$AAy@ 10023408     libucrt:nlsdata.obj
 0002:0000341c       ??_C@_1BC@HHMNLIHE@?$AAT?$AAh?$AAu?$AAr?$AAs?$AAd?$AAa?$AAy@ 1002341c     libucrt:nlsdata.obj
 0002:00003430       ??_C@_1O@PDICJHAG@?$AAF?$AAr?$AAi?$AAd?$AAa?$AAy@ 10023430     libucrt:nlsdata.obj
 0002:00003440       ??_C@_1BC@ENMNNPAJ@?$AAS?$AAa?$AAt?$AAu?$AAr?$AAd?$AAa?$AAy@ 10023440     libucrt:nlsdata.obj
 0002:00003454       ??_C@_17DKNBKCHM@?$AAJ?$AAa?$AAn@ 10023454     libucrt:nlsdata.obj
 0002:0000345c       ??_C@_17LMDJEKJN@?$AAF?$AAe?$AAb@ 1002345c     libucrt:nlsdata.obj
 0002:00003464       ??_C@_17CKNLEDEC@?$AAM?$AAa?$AAr@ 10023464     libucrt:nlsdata.obj
 0002:0000346c       ??_C@_17LFPOIHDD@?$AAA?$AAp?$AAr@ 1002346c     libucrt:nlsdata.obj
 0002:00003474       ??_C@_17PNNKMEED@?$AAM?$AAa?$AAy@ 10023474     libucrt:nlsdata.obj
 0002:0000347c       ??_C@_17KCJGOCPB@?$AAJ?$AAu?$AAn@ 1002347c     libucrt:nlsdata.obj
 0002:00003484       ??_C@_17IJPCKHK@?$AAJ?$AAu?$AAl@ 10023484     libucrt:nlsdata.obj
 0002:0000348c       ??_C@_17ICPELBCN@?$AAA?$AAu?$AAg@ 1002348c     libucrt:nlsdata.obj
 0002:00003494       ??_C@_17HCHCOKMG@?$AAS?$AAe?$AAp@ 10023494     libucrt:nlsdata.obj
 0002:0000349c       ??_C@_17FNLKOI@?$AAO?$AAc?$AAt@ 1002349c     libucrt:nlsdata.obj
 0002:000034a4       ??_C@_17BBDMLCIG@?$AAN?$AAo?$AAv@ 100234a4     libucrt:nlsdata.obj
 0002:000034ac       ??_C@_17EGKACKIF@?$AAD?$AAe?$AAc@ 100234ac     libucrt:nlsdata.obj
 0002:000034b4       ??_C@_1BA@EFMEIEBA@?$AAJ?$AAa?$AAn?$AAu?$AAa?$AAr?$AAy@ 100234b4     libucrt:nlsdata.obj
 0002:000034c4       ??_C@_1BC@JGDDFFAM@?$AAF?$AAe?$AAb?$AAr?$AAu?$AAa?$AAr?$AAy@ 100234c4     libucrt:nlsdata.obj
 0002:000034d8       ??_C@_1M@IKEENEDF@?$AAM?$AAa?$AAr?$AAc?$AAh@ 100234d8     libucrt:nlsdata.obj
 0002:000034e4       ??_C@_1M@GJNLMHFD@?$AAA?$AAp?$AAr?$AAi?$AAl@ 100234e4     libucrt:nlsdata.obj
 0002:000034f0       ??_C@_19EPFLPGAP@?$AAJ?$AAu?$AAn?$AAe@ 100234f0     libucrt:nlsdata.obj
 0002:000034fc       ??_C@_19BIFMLPCD@?$AAJ?$AAu?$AAl?$AAy@ 100234fc     libucrt:nlsdata.obj
 0002:00003508       ??_C@_1O@PAHLKOAC@?$AAA?$AAu?$AAg?$AAu?$AAs?$AAt@ 10023508     libucrt:nlsdata.obj
 0002:00003518       ??_C@_1BE@DKAAMBJL@?$AAS?$AAe?$AAp?$AAt?$AAe?$AAm?$AAb?$AAe?$AAr@ 10023518     libucrt:nlsdata.obj
 0002:0000352c       ??_C@_1BA@EPANDLNG@?$AAO?$AAc?$AAt?$AAo?$AAb?$AAe?$AAr@ 1002352c     libucrt:nlsdata.obj
 0002:0000353c       ??_C@_1BC@BGLIFPF@?$AAN?$AAo?$AAv?$AAe?$AAm?$AAb?$AAe?$AAr@ 1002353c     libucrt:nlsdata.obj
 0002:00003550       ??_C@_1BC@FEMKIFH@?$AAD?$AAe?$AAc?$AAe?$AAm?$AAb?$AAe?$AAr@ 10023550     libucrt:nlsdata.obj
 0002:00003564       ??_C@_15ODEHAHHF@?$AAA?$AAM@ 10023564     libucrt:nlsdata.obj
 0002:0000356c       ??_C@_15CLMNNGEL@?$AAP?$AAM@ 1002356c     libucrt:nlsdata.obj
 0002:00003574       ??_C@_1BC@IEBCMHCM@?$AAM?$AAM?$AA?1?$AAd?$AAd?$AA?1?$AAy?$AAy@ 10023574     libucrt:nlsdata.obj
 0002:00003588       ??_C@_1CI@KNAKOEBC@?$AAd?$AAd?$AAd?$AAd?$AA?0?$AA?5?$AAM?$AAM?$AAM?$AAM?$AA?5?$AAd?$AAd?$AA?0?$AA?5@ 10023588     libucrt:nlsdata.obj
 0002:000035b0       ??_C@_1BC@GDGBMEMK@?$AAH?$AAH?$AA?3?$AAm?$AAm?$AA?3?$AAs?$AAs@ 100235b0     libucrt:nlsdata.obj
 0002:000035c4       ??_C@_1M@BMHNFIME@?$AAe?$AAn?$AA?9?$AAU?$AAS@ 100235c4     libucrt:nlsdata.obj
 0002:000035e0       ??_C@_1M@HPNHIDJI@?$AAj?$AAa?$AA?9?$AAJ?$AAP@ 100235e0     libucrt:mbctype.obj
 0002:000035ec       ??_C@_1M@BIBDDEMK@?$AAz?$AAh?$AA?9?$AAC?$AAN@ 100235ec     libucrt:mbctype.obj
 0002:000035f8       ??_C@_1M@JLOOOEGK@?$AAk?$AAo?$AA?9?$AAK?$AAR@ 100235f8     libucrt:mbctype.obj
 0002:00003604       ??_C@_1M@CLNBBOPM@?$AAz?$AAh?$AA?9?$AAT?$AAW@ 10023604     libucrt:mbctype.obj
 0002:00003610       ___newctype                10023610     libucrt:ctype.obj
 0002:00003910       ___newclmap                10023910     libucrt:ctype.obj
 0002:00003a90       ___newcumap                10023a90     libucrt:ctype.obj
 0002:00003c10       __wctype                   10023c10     libucrt:ctype.obj
 0002:00004538       ??_C@_15EMKDOKLE@?$AAa?$AAr@ 10024538     libucrt:lcidtoname_downlevel.obj
 0002:00004540       ??_C@_15KNPADPLH@?$AAb?$AAg@ 10024540     libucrt:lcidtoname_downlevel.obj
 0002:00004548       ??_C@_15EDMHLDMO@?$AAc?$AAa@ 10024548     libucrt:lcidtoname_downlevel.obj
 0002:00004550       ??_C@_1O@BPEAJADD@?$AAz?$AAh?$AA?9?$AAC?$AAH?$AAS@ 10024550     libucrt:lcidtoname_downlevel.obj
 0002:00004560       ??_C@_15LJNHCMNK@?$AAc?$AAs@ 10024560     libucrt:lcidtoname_downlevel.obj
 0002:00004568       ??_C@_15FOMCIDHG@?$AAd?$AAa@ 10024568     libucrt:lcidtoname_downlevel.obj
 0002:00004570       ??_C@_15NBKABECB@?$AAd?$AAe@ 10024570     libucrt:lcidtoname_downlevel.obj
 0002:00004578       ??_C@_15GHPEIIAO@?$AAe?$AAl@ 10024578     libucrt:lcidtoname_downlevel.obj
 0002:00004580       ??_C@_15MNPNEAIF@?$AAe?$AAn@ 10024580     libucrt:lcidtoname_downlevel.obj
 0002:00004588       ??_C@_15GPIOMPMH@?$AAe?$AAs@ 10024588     libucrt:lcidtoname_downlevel.obj
 0002:00004590       ??_C@_15NGLOAKJC@?$AAf?$AAi@ 10024590     libucrt:lcidtoname_downlevel.obj
 0002:00004598       ??_C@_15FBKGNKAM@?$AAf?$AAr@ 10024598     libucrt:lcidtoname_downlevel.obj
 0002:000045a0       ??_C@_15KGGCNEFK@?$AAh?$AAe@ 100245a0     libucrt:lcidtoname_downlevel.obj
 0002:000045a8       ??_C@_15PGHLIDMF@?$AAh?$AAu@ 100245a8     libucrt:lcidtoname_downlevel.obj
 0002:000045b0       ??_C@_15BIEMAPLM@?$AAi?$AAs@ 100245b0     libucrt:lcidtoname_downlevel.obj
 0002:000045b8       ??_C@_15IFJLDHAF@?$AAi?$AAt@ 100245b8     libucrt:lcidtoname_downlevel.obj
 0002:000045c0       ??_C@_15GEMIOCAG@?$AAj?$AAa@ 100245c0     libucrt:lcidtoname_downlevel.obj
 0002:000045c8       ??_C@_15EPELEGJA@?$AAk?$AAo@ 100245c8     libucrt:lcidtoname_downlevel.obj
 0002:000045d0       ??_C@_15NDDHIMN@?$AAn?$AAl@ 100245d0     libucrt:lcidtoname_downlevel.obj
 0002:000045d8       ??_C@_15BPIGNHCD@?$AAn?$AAo@ 100245d8     libucrt:lcidtoname_downlevel.obj
 0002:000045e0       ??_C@_15DEOPBLCG@?$AAp?$AAl@ 100245e0     libucrt:lcidtoname_downlevel.obj
 0002:000045e8       ??_C@_15KBECGEFG@?$AAp?$AAt@ 100245e8     libucrt:lcidtoname_downlevel.obj
 0002:000045f0       ??_C@_15GLJCBFMD@?$AAr?$AAo@ 100245f0     libucrt:lcidtoname_downlevel.obj
 0002:000045f8       ??_C@_15FEDGKCDI@?$AAr?$AAu@ 100245f8     libucrt:lcidtoname_downlevel.obj
 0002:00004600       ??_C@_15GLKMLLHM@?$AAh?$AAr@ 10024600     libucrt:lcidtoname_downlevel.obj
 0002:00004608       ??_C@_15CPKMFBDB@?$AAs?$AAk@ 10024608     libucrt:lcidtoname_downlevel.obj
 0002:00004610       ??_C@_15BAAIOGMK@?$AAs?$AAq@ 10024610     libucrt:lcidtoname_downlevel.obj
 0002:00004618       ??_C@_15INNPNOHD@?$AAs?$AAv@ 10024618     libucrt:lcidtoname_downlevel.obj
 0002:00004620       ??_C@_15CABMMOGH@?$AAt?$AAh@ 10024620     libucrt:lcidtoname_downlevel.obj
 0002:00004628       ??_C@_15BPLIHJJM@?$AAt?$AAr@ 10024628     libucrt:lcidtoname_downlevel.obj
 0002:00004630       ??_C@_15NEOEKKDJ@?$AAu?$AAr@ 10024630     libucrt:lcidtoname_downlevel.obj
 0002:00004638       ??_C@_15NFICGAJK@?$AAi?$AAd@ 10024638     libucrt:lcidtoname_downlevel.obj
 0002:00004640       ??_C@_15PJPFLCCM@?$AAu?$AAk@ 10024640     libucrt:lcidtoname_downlevel.obj
 0002:00004648       ??_C@_15HPJPHDM@?$AAb?$AAe@ 10024648     libucrt:lcidtoname_downlevel.obj
 0002:00004650       ??_C@_15LCHLGJII@?$AAs?$AAl@ 10024650     libucrt:lcidtoname_downlevel.obj
 0002:00004658       ??_C@_15PCFJPHHO@?$AAe?$AAt@ 10024658     libucrt:lcidtoname_downlevel.obj
 0002:00004660       ??_C@_15HPFPGODN@?$AAl?$AAv@ 10024660     libucrt:lcidtoname_downlevel.obj
 0002:00004668       ??_C@_15NFFGKGLG@?$AAl?$AAt@ 10024668     libucrt:lcidtoname_downlevel.obj
 0002:00004670       ??_C@_15BDAKCCHN@?$AAf?$AAa@ 10024670     libucrt:lcidtoname_downlevel.obj
 0002:00004678       ??_C@_15NFGIAIAJ@?$AAv?$AAi@ 10024678     libucrt:lcidtoname_downlevel.obj
 0002:00004680       ??_C@_15LMKNDMHN@?$AAh?$AAy@ 10024680     libucrt:lcidtoname_downlevel.obj
 0002:00004688       ??_C@_15IJBHMCFL@?$AAa?$AAz@ 10024688     libucrt:lcidtoname_downlevel.obj
 0002:00004690       ??_C@_15EKOFJABL@?$AAe?$AAu@ 10024690     libucrt:lcidtoname_downlevel.obj
 0002:00004698       ??_C@_15BGHADCNK@?$AAm?$AAk@ 10024698     libucrt:lcidtoname_downlevel.obj
 0002:000046a0       ??_C@_15JDNICKHM@?$AAa?$AAf@ 100246a0     libucrt:lcidtoname_downlevel.obj
 0002:000046a8       ??_C@_15KPJEDBKD@?$AAk?$AAa@ 100246a8     libucrt:lcidtoname_downlevel.obj
 0002:000046b0       ??_C@_15PDNFFFEO@?$AAf?$AAo@ 100246b0     libucrt:lcidtoname_downlevel.obj
 0002:000046b8       ??_C@_15OMLEGLOC@?$AAh?$AAi@ 100246b8     libucrt:lcidtoname_downlevel.obj
 0002:000046c0       ??_C@_15IDNNENKK@?$AAm?$AAs@ 100246c0     libucrt:lcidtoname_downlevel.obj
 0002:000046c8       ??_C@_15MACJNBMH@?$AAk?$AAk@ 100246c8     libucrt:lcidtoname_downlevel.obj
 0002:000046d0       ??_C@_15DKDJEOND@?$AAk?$AAy@ 100246d0     libucrt:lcidtoname_downlevel.obj
 0002:000046d8       ??_C@_15DFGDLJBG@?$AAs?$AAw@ 100246d8     libucrt:lcidtoname_downlevel.obj
 0002:000046e0       ??_C@_15BBFAICNG@?$AAu?$AAz@ 100246e0     libucrt:lcidtoname_downlevel.obj
 0002:000046e8       ??_C@_15DKNDCGEA@?$AAt?$AAt@ 100246e8     libucrt:lcidtoname_downlevel.obj
 0002:000046f0       ??_C@_15MGIFMDPL@?$AAp?$AAa@ 100246f0     libucrt:lcidtoname_downlevel.obj
 0002:000046f8       ??_C@_15HCNDBBA@?$AAg?$AAu@ 100246f8     libucrt:lcidtoname_downlevel.obj
 0002:00004700       ??_C@_15FNBEIBON@?$AAt?$AAa@ 10024700     libucrt:lcidtoname_downlevel.obj
 0002:00004708       ??_C@_15NCHGBGLK@?$AAt?$AAe@ 10024708     libucrt:lcidtoname_downlevel.obj
 0002:00004710       ??_C@_15PHPHCBPF@?$AAk?$AAn@ 10024710     libucrt:lcidtoname_downlevel.obj
 0002:00004718       ??_C@_15DLGBCKMP@?$AAm?$AAr@ 10024718     libucrt:lcidtoname_downlevel.obj
 0002:00004720       ??_C@_15EABBLBFF@?$AAs?$AAa@ 10024720     libucrt:lcidtoname_downlevel.obj
 0002:00004728       ??_C@_15CBKOMCOI@?$AAm?$AAn@ 10024728     libucrt:lcidtoname_downlevel.obj
 0002:00004730       ??_C@_15CKDMCJAF@?$AAg?$AAl@ 10024730     libucrt:lcidtoname_downlevel.obj
 0002:00004738       ??_C@_17CNJFBPG@?$AAk?$AAo?$AAk@ 10024738     libucrt:lcidtoname_downlevel.obj
 0002:00004740       ??_C@_17FFBJICPL@?$AAs?$AAy?$AAr@ 10024740     libucrt:lcidtoname_downlevel.obj
 0002:00004748       ??_C@_17KPNDCPAF@?$AAd?$AAi?$AAv@ 10024748     libucrt:lcidtoname_downlevel.obj
 0002:00004750       ??_C@_1M@OKAHONE@?$AAa?$AAr?$AA?9?$AAS?$AAA@ 10024750     libucrt:lcidtoname_downlevel.obj
 0002:0000475c       ??_C@_1M@FFFIGIGK@?$AAb?$AAg?$AA?9?$AAB?$AAG@ 1002475c     libucrt:lcidtoname_downlevel.obj
 0002:00004768       ??_C@_1M@BJNKEDC@?$AAc?$AAa?$AA?9?$AAE?$AAS@ 10024768     libucrt:lcidtoname_downlevel.obj
 0002:00004774       ??_C@_1M@IJJHFJHA@?$AAc?$AAs?$AA?9?$AAC?$AAZ@ 10024774     libucrt:lcidtoname_downlevel.obj
 0002:00004780       ??_C@_1M@CLPEOBGI@?$AAd?$AAa?$AA?9?$AAD?$AAK@ 10024780     libucrt:lcidtoname_downlevel.obj
 0002:0000478c       ??_C@_1M@MCMADGCB@?$AAd?$AAe?$AA?9?$AAD?$AAE@ 1002478c     libucrt:lcidtoname_downlevel.obj
 0002:00004798       ??_C@_1M@OOCKEMAM@?$AAe?$AAl?$AA?9?$AAG?$AAR@ 10024798     libucrt:lcidtoname_downlevel.obj
 0002:000047a4       ??_C@_1M@DDNJFGID@?$AAf?$AAi?$AA?9?$AAF?$AAI@ 100247a4     libucrt:lcidtoname_downlevel.obj
 0002:000047b0       ??_C@_1M@GLIPPMAC@?$AAf?$AAr?$AA?9?$AAF?$AAR@ 100247b0     libucrt:lcidtoname_downlevel.obj
 0002:000047bc       ??_C@_1M@GFMCHPE@?$AAh?$AAe?$AA?9?$AAI?$AAL@ 100247bc     libucrt:lcidtoname_downlevel.obj
 0002:000047c8       ??_C@_1M@MHLPGNKM@?$AAh?$AAu?$AA?9?$AAH?$AAU@ 100247c8     libucrt:lcidtoname_downlevel.obj
 0002:000047d4       ??_C@_1M@LPDDNNPN@?$AAi?$AAs?$AA?9?$AAI?$AAS@ 100247d4     libucrt:lcidtoname_downlevel.obj
 0002:000047e0       ??_C@_1M@MADIPODN@?$AAi?$AAt?$AA?9?$AAI?$AAT@ 100247e0     libucrt:lcidtoname_downlevel.obj
 0002:000047ec       ??_C@_1M@IHBJJGG@?$AAn?$AAl?$AA?9?$AAN?$AAL@ 100247ec     libucrt:lcidtoname_downlevel.obj
 0002:000047f8       ??_C@_1M@EANAGDL@?$AAn?$AAb?$AA?9?$AAN?$AAO@ 100247f8     libucrt:lcidtoname_downlevel.obj
 0002:00004804       ??_C@_1M@NEIEMEGP@?$AAp?$AAl?$AA?9?$AAP?$AAL@ 10024804     libucrt:lcidtoname_downlevel.obj
 0002:00004810       ??_C@_1M@BOCFIGEP@?$AAp?$AAt?$AA?9?$AAB?$AAR@ 10024810     libucrt:lcidtoname_downlevel.obj
 0002:0000481c       ??_C@_1M@IMPFOPBG@?$AAr?$AAo?$AA?9?$AAR?$AAO@ 1002481c     libucrt:lcidtoname_downlevel.obj
 0002:00004828       ??_C@_1M@IDNNEJMM@?$AAr?$AAu?$AA?9?$AAR?$AAU@ 10024828     libucrt:lcidtoname_downlevel.obj
 0002:00004834       ??_C@_1M@LILEEOGM@?$AAh?$AAr?$AA?9?$AAH?$AAR@ 10024834     libucrt:lcidtoname_downlevel.obj
 0002:00004840       ??_C@_1M@FKIFEHPB@?$AAs?$AAk?$AA?9?$AAS?$AAK@ 10024840     libucrt:lcidtoname_downlevel.obj
 0002:0000484c       ??_C@_1M@LJMAMNPJ@?$AAs?$AAq?$AA?9?$AAA?$AAL@ 1002484c     libucrt:lcidtoname_downlevel.obj
 0002:00004858       ??_C@_1M@GIAKDKJK@?$AAs?$AAv?$AA?9?$AAS?$AAE@ 10024858     libucrt:lcidtoname_downlevel.obj
 0002:00004864       ??_C@_1M@MKJKIKCL@?$AAt?$AAh?$AA?9?$AAT?$AAH@ 10024864     libucrt:lcidtoname_downlevel.obj
 0002:00004870       ??_C@_1M@MFLCCMPB@?$AAt?$AAr?$AA?9?$AAT?$AAR@ 10024870     libucrt:lcidtoname_downlevel.obj
 0002:0000487c       ??_C@_1M@OIJHDKJN@?$AAu?$AAr?$AA?9?$AAP?$AAK@ 1002487c     libucrt:lcidtoname_downlevel.obj
 0002:00004888       ??_C@_1M@LHIPCIEK@?$AAi?$AAd?$AA?9?$AAI?$AAD@ 10024888     libucrt:lcidtoname_downlevel.obj
 0002:00004894       ??_C@_1M@MFMOBGI@?$AAu?$AAk?$AA?9?$AAU?$AAA@ 10024894     libucrt:lcidtoname_downlevel.obj
 0002:000048a0       ??_C@_1M@OBGLJIPL@?$AAb?$AAe?$AA?9?$AAB?$AAY@ 100248a0     libucrt:lcidtoname_downlevel.obj
 0002:000048ac       ??_C@_1M@BCFAJEAD@?$AAs?$AAl?$AA?9?$AAS?$AAI@ 100248ac     libucrt:lcidtoname_downlevel.obj
 0002:000048b8       ??_C@_1M@FKFFEDDN@?$AAe?$AAt?$AA?9?$AAE?$AAE@ 100248b8     libucrt:lcidtoname_downlevel.obj
 0002:000048c4       ??_C@_1M@KGKKAACI@?$AAl?$AAv?$AA?9?$AAL?$AAV@ 100248c4     libucrt:lcidtoname_downlevel.obj
 0002:000048d0       ??_C@_1M@IFGBIJO@?$AAl?$AAt?$AA?9?$AAL?$AAT@ 100248d0     libucrt:lcidtoname_downlevel.obj
 0002:000048dc       ??_C@_1M@FGEAHEDM@?$AAf?$AAa?$AA?9?$AAI?$AAR@ 100248dc     libucrt:lcidtoname_downlevel.obj
 0002:000048e8       ??_C@_1M@KBMAIBFN@?$AAv?$AAi?$AA?9?$AAV?$AAN@ 100248e8     libucrt:lcidtoname_downlevel.obj
 0002:000048f4       ??_C@_1M@GPCBKDJK@?$AAh?$AAy?$AA?9?$AAA?$AAM@ 100248f4     libucrt:lcidtoname_downlevel.obj
 0002:00004900       ??_C@_1BG@BECMDDJB@?$AAa?$AAz?$AA?9?$AAA?$AAZ?$AA?9?$AAL?$AAa?$AAt?$AAn@ 10024900     libucrt:lcidtoname_downlevel.obj
 0002:00004918       ??_C@_1M@MAOFCAEA@?$AAe?$AAu?$AA?9?$AAE?$AAS@ 10024918     libucrt:lcidtoname_downlevel.obj
 0002:00004924       ??_C@_1M@IGHABKPI@?$AAm?$AAk?$AA?9?$AAM?$AAK@ 10024924     libucrt:lcidtoname_downlevel.obj
 0002:00004930       ??_C@_1M@IAIGNEJG@?$AAt?$AAn?$AA?9?$AAZ?$AAA@ 10024930     libucrt:lcidtoname_downlevel.obj
 0002:0000493c       ??_C@_1M@IIJCOJFA@?$AAx?$AAh?$AA?9?$AAZ?$AAA@ 1002493c     libucrt:lcidtoname_downlevel.obj
 0002:00004948       ??_C@_1M@LGPJHNJH@?$AAz?$AAu?$AA?9?$AAZ?$AAA@ 10024948     libucrt:lcidtoname_downlevel.obj
 0002:00004954       ??_C@_1M@HOKAOIO@?$AAa?$AAf?$AA?9?$AAZ?$AAA@ 10024954     libucrt:lcidtoname_downlevel.obj
 0002:00004960       ??_C@_1M@DPCLHLIE@?$AAk?$AAa?$AA?9?$AAG?$AAE@ 10024960     libucrt:lcidtoname_downlevel.obj
 0002:0000496c       ??_C@_1M@BLKMHJBI@?$AAf?$AAo?$AA?9?$AAF?$AAO@ 1002496c     libucrt:lcidtoname_downlevel.obj
 0002:00004978       ??_C@_1M@LGGJAPPB@?$AAh?$AAi?$AA?9?$AAI?$AAN@ 10024978     libucrt:lcidtoname_downlevel.obj
 0002:00004984       ??_C@_1M@FIKPIHFE@?$AAm?$AAt?$AA?9?$AAM?$AAT@ 10024984     libucrt:lcidtoname_downlevel.obj
 0002:00004990       ??_C@_1M@HEGGPBFA@?$AAs?$AAe?$AA?9?$AAN?$AAO@ 10024990     libucrt:lcidtoname_downlevel.obj
 0002:0000499c       ??_C@_1M@EIBJEEPA@?$AAm?$AAs?$AA?9?$AAM?$AAY@ 1002499c     libucrt:lcidtoname_downlevel.obj
 0002:000049a8       ??_C@_1M@FHLBGMPP@?$AAk?$AAk?$AA?9?$AAK?$AAZ@ 100249a8     libucrt:lcidtoname_downlevel.obj
 0002:000049b4       ??_C@_1M@NGJJLCGI@?$AAk?$AAy?$AA?9?$AAK?$AAG@ 100249b4     libucrt:lcidtoname_downlevel.obj
 0002:000049c0       ??_C@_1M@GIENNBFC@?$AAs?$AAw?$AA?9?$AAK?$AAE@ 100249c0     libucrt:lcidtoname_downlevel.obj
 0002:000049cc       ??_C@_1BG@NDGMJIMJ@?$AAu?$AAz?$AA?9?$AAU?$AAZ?$AA?9?$AAL?$AAa?$AAt?$AAn@ 100249cc     libucrt:lcidtoname_downlevel.obj
 0002:000049e4       ??_C@_1M@IDCCIHBC@?$AAt?$AAt?$AA?9?$AAR?$AAU@ 100249e4     libucrt:lcidtoname_downlevel.obj
 0002:000049f0       ??_C@_1M@LOICPMOJ@?$AAb?$AAn?$AA?9?$AAI?$AAN@ 100249f0     libucrt:lcidtoname_downlevel.obj
 0002:000049fc       ??_C@_1M@KPKKNEAH@?$AAp?$AAa?$AA?9?$AAI?$AAN@ 100249fc     libucrt:lcidtoname_downlevel.obj
 0002:00004a08       ??_C@_1M@PJGPPBOG@?$AAg?$AAu?$AA?9?$AAI?$AAN@ 10024a08     libucrt:lcidtoname_downlevel.obj
 0002:00004a14       ??_C@_1M@KMKMOPHI@?$AAt?$AAa?$AA?9?$AAI?$AAN@ 10024a14     libucrt:lcidtoname_downlevel.obj
 0002:00004a20       ??_C@_1M@KFEHEPAC@?$AAt?$AAe?$AA?9?$AAI?$AAN@ 10024a20     libucrt:lcidtoname_downlevel.obj
 0002:00004a2c       ??_C@_1M@CDCLMGHI@?$AAk?$AAn?$AA?9?$AAI?$AAN@ 10024a2c     libucrt:lcidtoname_downlevel.obj
 0002:00004a38       ??_C@_1M@MIODLDKF@?$AAm?$AAl?$AA?9?$AAI?$AAN@ 10024a38     libucrt:lcidtoname_downlevel.obj
 0002:00004a44       ??_C@_1M@PBIEACPO@?$AAm?$AAr?$AA?9?$AAI?$AAN@ 10024a44     libucrt:lcidtoname_downlevel.obj
 0002:00004a50       ??_C@_1M@NIDEAGPH@?$AAs?$AAa?$AA?9?$AAI?$AAN@ 10024a50     libucrt:lcidtoname_downlevel.obj
 0002:00004a5c       ??_C@_1M@FHIHCBIO@?$AAm?$AAn?$AA?9?$AAM?$AAN@ 10024a5c     libucrt:lcidtoname_downlevel.obj
 0002:00004a68       ??_C@_1M@JAIJPENP@?$AAc?$AAy?$AA?9?$AAG?$AAB@ 10024a68     libucrt:lcidtoname_downlevel.obj
 0002:00004a74       ??_C@_1M@PHGFBEPN@?$AAg?$AAl?$AA?9?$AAE?$AAS@ 10024a74     libucrt:lcidtoname_downlevel.obj
 0002:00004a80       ??_C@_1O@KPIPDNCP@?$AAk?$AAo?$AAk?$AA?9?$AAI?$AAN@ 10024a80     libucrt:lcidtoname_downlevel.obj
 0002:00004a90       ??_C@_1O@KNHJLDJA@?$AAs?$AAy?$AAr?$AA?9?$AAS?$AAY@ 10024a90     libucrt:lcidtoname_downlevel.obj
 0002:00004aa0       ??_C@_1O@MKEKBLAH@?$AAd?$AAi?$AAv?$AA?9?$AAM?$AAV@ 10024aa0     libucrt:lcidtoname_downlevel.obj
 0002:00004ab0       ??_C@_1O@OHDCKDDF@?$AAq?$AAu?$AAz?$AA?9?$AAB?$AAO@ 10024ab0     libucrt:lcidtoname_downlevel.obj
 0002:00004ac0       ??_C@_1M@LEPJNLFD@?$AAn?$AAs?$AA?9?$AAZ?$AAA@ 10024ac0     libucrt:lcidtoname_downlevel.obj
 0002:00004acc       ??_C@_1M@OMLEIIJB@?$AAm?$AAi?$AA?9?$AAN?$AAZ@ 10024acc     libucrt:lcidtoname_downlevel.obj
 0002:00004ad8       ??_C@_1M@PMPEAILG@?$AAa?$AAr?$AA?9?$AAI?$AAQ@ 10024ad8     libucrt:lcidtoname_downlevel.obj
 0002:00004ae4       ??_C@_1M@CNKPNOEE@?$AAd?$AAe?$AA?9?$AAC?$AAH@ 10024ae4     libucrt:lcidtoname_downlevel.obj
 0002:00004af0       ??_C@_1M@LKMGMLKO@?$AAe?$AAn?$AA?9?$AAG?$AAB@ 10024af0     libucrt:lcidtoname_downlevel.obj
 0002:00004afc       ??_C@_1M@PGKJFFGL@?$AAe?$AAs?$AA?9?$AAM?$AAX@ 10024afc     libucrt:lcidtoname_downlevel.obj
 0002:00004b08       ??_C@_1M@DNNANBDC@?$AAf?$AAr?$AA?9?$AAB?$AAE@ 10024b08     libucrt:lcidtoname_downlevel.obj
 0002:00004b14       ??_C@_1M@HLGMDFHM@?$AAi?$AAt?$AA?9?$AAC?$AAH@ 10024b14     libucrt:lcidtoname_downlevel.obj
 0002:00004b20       ??_C@_1M@CLLBGJH@?$AAn?$AAl?$AA?9?$AAB?$AAE@ 10024b20     libucrt:lcidtoname_downlevel.obj
 0002:00004b2c       ??_C@_1M@BODBOGLF@?$AAn?$AAn?$AA?9?$AAN?$AAO@ 10024b2c     libucrt:lcidtoname_downlevel.obj
 0002:00004b38       ??_C@_1M@HFFAHKAD@?$AAp?$AAt?$AA?9?$AAP?$AAT@ 10024b38     libucrt:lcidtoname_downlevel.obj
 0002:00004b44       ??_C@_1BG@LNOAKHIE@?$AAs?$AAr?$AA?9?$AAS?$AAP?$AA?9?$AAL?$AAa?$AAt?$AAn@ 10024b44     libucrt:lcidtoname_downlevel.obj
 0002:00004b5c       ??_C@_1M@HBMHBGAK@?$AAs?$AAv?$AA?9?$AAF?$AAI@ 10024b5c     libucrt:lcidtoname_downlevel.obj
 0002:00004b68       ??_C@_1BG@DGCJGJBE@?$AAa?$AAz?$AA?9?$AAA?$AAZ?$AA?9?$AAC?$AAy?$AAr?$AAl@ 10024b68     libucrt:lcidtoname_downlevel.obj
 0002:00004b80       ??_C@_1M@KEJDAAHB@?$AAs?$AAe?$AA?9?$AAS?$AAE@ 10024b80     libucrt:lcidtoname_downlevel.obj
 0002:00004b8c       ??_C@_1M@HEIBJJAD@?$AAm?$AAs?$AA?9?$AAB?$AAN@ 10024b8c     libucrt:lcidtoname_downlevel.obj
 0002:00004b98       ??_C@_1BG@PBGJMCEM@?$AAu?$AAz?$AA?9?$AAU?$AAZ?$AA?9?$AAC?$AAy?$AAr?$AAl@ 10024b98     libucrt:lcidtoname_downlevel.obj
 0002:00004bb0       ??_C@_1O@LAOBCMDF@?$AAq?$AAu?$AAz?$AA?9?$AAE?$AAC@ 10024bb0     libucrt:lcidtoname_downlevel.obj
 0002:00004bc0       ??_C@_1M@POEEMAIO@?$AAa?$AAr?$AA?9?$AAE?$AAG@ 10024bc0     libucrt:lcidtoname_downlevel.obj
 0002:00004bcc       ??_C@_1M@EFAKDEDL@?$AAz?$AAh?$AA?9?$AAH?$AAK@ 10024bcc     libucrt:lcidtoname_downlevel.obj
 0002:00004bd8       ??_C@_1M@HKKIJHGI@?$AAd?$AAe?$AA?9?$AAA?$AAT@ 10024bd8     libucrt:lcidtoname_downlevel.obj
 0002:00004be4       ??_C@_1M@KBFBEHJF@?$AAe?$AAn?$AA?9?$AAA?$AAU@ 10024be4     libucrt:lcidtoname_downlevel.obj
 0002:00004bf0       ??_C@_1M@MNPLFAAH@?$AAe?$AAs?$AA?9?$AAE?$AAS@ 10024bf0     libucrt:lcidtoname_downlevel.obj
 0002:00004bfc       ??_C@_1M@HJOOJFMA@?$AAf?$AAr?$AA?9?$AAC?$AAA@ 10024bfc     libucrt:lcidtoname_downlevel.obj
 0002:00004c08       ??_C@_1BG@JPOFPNAB@?$AAs?$AAr?$AA?9?$AAS?$AAP?$AA?9?$AAC?$AAy?$AAr?$AAl@ 10024c08     libucrt:lcidtoname_downlevel.obj
 0002:00004c20       ??_C@_1M@LNFOCMOB@?$AAs?$AAe?$AA?9?$AAF?$AAI@ 10024c20     libucrt:lcidtoname_downlevel.obj
 0002:00004c2c       ??_C@_1O@MGJBOAMB@?$AAq?$AAu?$AAz?$AA?9?$AAP?$AAE@ 10024c2c     libucrt:lcidtoname_downlevel.obj
 0002:00004c3c       ??_C@_1M@GJINLBOK@?$AAa?$AAr?$AA?9?$AAL?$AAY@ 10024c3c     libucrt:lcidtoname_downlevel.obj
 0002:00004c48       ??_C@_1M@GGMNHJNL@?$AAz?$AAh?$AA?9?$AAS?$AAG@ 10024c48     libucrt:lcidtoname_downlevel.obj
 0002:00004c54       ??_C@_1M@HOIKODND@?$AAd?$AAe?$AA?9?$AAL?$AAU@ 10024c54     libucrt:lcidtoname_downlevel.obj
 0002:00004c60       ??_C@_1M@DDOCCGFG@?$AAe?$AAn?$AA?9?$AAC?$AAA@ 10024c60     libucrt:lcidtoname_downlevel.obj
 0002:00004c6c       ??_C@_1M@BNOEMJLF@?$AAe?$AAs?$AA?9?$AAG?$AAT@ 10024c6c     libucrt:lcidtoname_downlevel.obj
 0002:00004c78       ??_C@_1M@EOGNKEK@?$AAf?$AAr?$AA?9?$AAC?$AAH@ 10024c78     libucrt:lcidtoname_downlevel.obj
 0002:00004c84       ??_C@_1M@FLIDJFHL@?$AAh?$AAr?$AA?9?$AAB?$AAA@ 10024c84     libucrt:lcidtoname_downlevel.obj
 0002:00004c90       ??_C@_1O@FMCELNAJ@?$AAs?$AAm?$AAj?$AA?9?$AAN?$AAO@ 10024c90     libucrt:lcidtoname_downlevel.obj
 0002:00004ca0       ??_C@_1M@JHGLJMGJ@?$AAa?$AAr?$AA?9?$AAD?$AAZ@ 10024ca0     libucrt:lcidtoname_downlevel.obj
 0002:00004cac       ??_C@_1M@JKKFDCNP@?$AAz?$AAh?$AA?9?$AAM?$AAO@ 10024cac     libucrt:lcidtoname_downlevel.obj
 0002:00004cb8       ??_C@_1M@GEEFALPE@?$AAd?$AAe?$AA?9?$AAL?$AAI@ 10024cb8     libucrt:lcidtoname_downlevel.obj
 0002:00004cc4       ??_C@_1M@IGEOFBG@?$AAe?$AAn?$AA?9?$AAN?$AAZ@ 10024cc4     libucrt:lcidtoname_downlevel.obj
 0002:00004cd0       ??_C@_1M@KDBONEHP@?$AAe?$AAs?$AA?9?$AAC?$AAR@ 10024cd0     libucrt:lcidtoname_downlevel.obj
 0002:00004cdc       ??_C@_1M@FHMDOHNN@?$AAf?$AAr?$AA?9?$AAL?$AAU@ 10024cdc     libucrt:lcidtoname_downlevel.obj
 0002:00004ce8       ??_C@_1BG@NFKKMAFG@?$AAb?$AAs?$AA?9?$AAB?$AAA?$AA?9?$AAL?$AAa?$AAt?$AAn@ 10024ce8     libucrt:lcidtoname_downlevel.obj
 0002:00004d00       ??_C@_1O@IMNBEMCI@?$AAs?$AAm?$AAj?$AA?9?$AAS?$AAE@ 10024d00     libucrt:lcidtoname_downlevel.obj
 0002:00004d10       ??_C@_1M@DHHMBNDP@?$AAa?$AAr?$AA?9?$AAM?$AAA@ 10024d10     libucrt:lcidtoname_downlevel.obj
 0002:00004d1c       ??_C@_1M@BNBLJCGH@?$AAe?$AAn?$AA?9?$AAI?$AAE@ 10024d1c     libucrt:lcidtoname_downlevel.obj
 0002:00004d28       ??_C@_1M@GEPAFMDL@?$AAe?$AAs?$AA?9?$AAP?$AAA@ 10024d28     libucrt:lcidtoname_downlevel.obj
 0002:00004d34       ??_C@_1M@OJONDMDL@?$AAf?$AAr?$AA?9?$AAM?$AAC@ 10024d34     libucrt:lcidtoname_downlevel.obj
 0002:00004d40       ??_C@_1BG@OBCNFJB@?$AAs?$AAr?$AA?9?$AAB?$AAA?$AA?9?$AAL?$AAa?$AAt?$AAn@ 10024d40     libucrt:lcidtoname_downlevel.obj
 0002:00004d58       ??_C@_1O@KEMEEGPO@?$AAs?$AAm?$AAa?$AA?9?$AAN?$AAO@ 10024d58     libucrt:lcidtoname_downlevel.obj
 0002:00004d68       ??_C@_1M@ELMGFODK@?$AAa?$AAr?$AA?9?$AAT?$AAN@ 10024d68     libucrt:lcidtoname_downlevel.obj
 0002:00004d74       ??_C@_1M@BHDLHFAF@?$AAe?$AAn?$AA?9?$AAZ?$AAA@ 10024d74     libucrt:lcidtoname_downlevel.obj
 0002:00004d80       ??_C@_1M@BMGIGLIF@?$AAe?$AAs?$AA?9?$AAD?$AAO@ 10024d80     libucrt:lcidtoname_downlevel.obj
 0002:00004d8c       ??_C@_1BG@CMBHIPBE@?$AAs?$AAr?$AA?9?$AAB?$AAA?$AA?9?$AAC?$AAy?$AAr?$AAl@ 10024d8c     libucrt:lcidtoname_downlevel.obj
 0002:00004da4       ??_C@_1O@HEDBLHNP@?$AAs?$AAm?$AAa?$AA?9?$AAS?$AAE@ 10024da4     libucrt:lcidtoname_downlevel.obj
 0002:00004db4       ??_C@_1M@DAGCADIM@?$AAa?$AAr?$AA?9?$AAO?$AAM@ 10024db4     libucrt:lcidtoname_downlevel.obj
 0002:00004dc0       ??_C@_1M@FODLMICG@?$AAe?$AAn?$AA?9?$AAJ?$AAM@ 10024dc0     libucrt:lcidtoname_downlevel.obj
 0002:00004dcc       ??_C@_1M@DNMLCIHB@?$AAe?$AAs?$AA?9?$AAV?$AAE@ 10024dcc     libucrt:lcidtoname_downlevel.obj
 0002:00004dd8       ??_C@_1O@EOKHMKJK@?$AAs?$AAm?$AAs?$AA?9?$AAF?$AAI@ 10024dd8     libucrt:lcidtoname_downlevel.obj
 0002:00004de8       ??_C@_1M@CAFJMKOF@?$AAa?$AAr?$AA?9?$AAY?$AAE@ 10024de8     libucrt:lcidtoname_downlevel.obj
 0002:00004df4       ??_C@_1M@CBFHIJLI@?$AAe?$AAn?$AA?9?$AAC?$AAB@ 10024df4     libucrt:lcidtoname_downlevel.obj
 0002:00004e00       ??_C@_1M@BGNFLDN@?$AAe?$AAs?$AA?9?$AAC?$AAO@ 10024e00     libucrt:lcidtoname_downlevel.obj
 0002:00004e0c       ??_C@_1O@JMPHMAMC@?$AAs?$AAm?$AAn?$AA?9?$AAF?$AAI@ 10024e0c     libucrt:lcidtoname_downlevel.obj
 0002:00004e1c       ??_C@_1M@JLANABKE@?$AAa?$AAr?$AA?9?$AAS?$AAY@ 10024e1c     libucrt:lcidtoname_downlevel.obj
 0002:00004e28       ??_C@_1M@HPKGCFGN@?$AAe?$AAn?$AA?9?$AAB?$AAZ@ 10024e28     libucrt:lcidtoname_downlevel.obj
 0002:00004e34       ??_C@_1M@OLJCMLGM@?$AAe?$AAs?$AA?9?$AAP?$AAE@ 10024e34     libucrt:lcidtoname_downlevel.obj
 0002:00004e40       ??_C@_1M@MKKGFKLE@?$AAa?$AAr?$AA?9?$AAJ?$AAO@ 10024e40     libucrt:lcidtoname_downlevel.obj
 0002:00004e4c       ??_C@_1M@EKPGLDNI@?$AAe?$AAn?$AA?9?$AAT?$AAT@ 10024e4c     libucrt:lcidtoname_downlevel.obj
 0002:00004e58       ??_C@_1M@OONGHFHE@?$AAe?$AAs?$AA?9?$AAA?$AAR@ 10024e58     libucrt:lcidtoname_downlevel.obj
 0002:00004e64       ??_C@_1M@OOJFGBHE@?$AAa?$AAr?$AA?9?$AAL?$AAB@ 10024e64     libucrt:lcidtoname_downlevel.obj
 0002:00004e70       ??_C@_1M@GCEJHNEG@?$AAe?$AAn?$AA?9?$AAZ?$AAW@ 10024e70     libucrt:lcidtoname_downlevel.obj
 0002:00004e7c       ??_C@_1M@JNOCAHJI@?$AAe?$AAs?$AA?9?$AAE?$AAC@ 10024e7c     libucrt:lcidtoname_downlevel.obj
 0002:00004e88       ??_C@_1M@JEFHPGGB@?$AAa?$AAr?$AA?9?$AAK?$AAW@ 10024e88     libucrt:lcidtoname_downlevel.obj
 0002:00004e94       ??_C@_1M@MLKIBJOJ@?$AAe?$AAn?$AA?9?$AAP?$AAH@ 10024e94     libucrt:lcidtoname_downlevel.obj
 0002:00004ea0       ??_C@_1M@BDNIPEND@?$AAe?$AAs?$AA?9?$AAC?$AAL@ 10024ea0     libucrt:lcidtoname_downlevel.obj
 0002:00004eac       ??_C@_1M@MPNMEKBD@?$AAa?$AAr?$AA?9?$AAA?$AAE@ 10024eac     libucrt:lcidtoname_downlevel.obj
 0002:00004eb8       ??_C@_1M@KBJALCPI@?$AAe?$AAs?$AA?9?$AAU?$AAY@ 10024eb8     libucrt:lcidtoname_downlevel.obj
 0002:00004ec4       ??_C@_1M@LLCCOAGA@?$AAa?$AAr?$AA?9?$AAB?$AAH@ 10024ec4     libucrt:lcidtoname_downlevel.obj
 0002:00004ed0       ??_C@_1M@PBFNCDEL@?$AAe?$AAs?$AA?9?$AAP?$AAY@ 10024ed0     libucrt:lcidtoname_downlevel.obj
 0002:00004edc       ??_C@_1M@EDGINPNP@?$AAa?$AAr?$AA?9?$AAQ?$AAA@ 10024edc     libucrt:lcidtoname_downlevel.obj
 0002:00004ee8       ??_C@_1M@MKDBIIJI@?$AAe?$AAs?$AA?9?$AAB?$AAO@ 10024ee8     libucrt:lcidtoname_downlevel.obj
 0002:00004ef4       ??_C@_1M@CPKKEBLD@?$AAe?$AAs?$AA?9?$AAS?$AAV@ 10024ef4     libucrt:lcidtoname_downlevel.obj
 0002:00004f00       ??_C@_1M@NDBGMMJL@?$AAe?$AAs?$AA?9?$AAH?$AAN@ 10024f00     libucrt:lcidtoname_downlevel.obj
 0002:00004f0c       ??_C@_1M@JIJIBHDP@?$AAe?$AAs?$AA?9?$AAN?$AAI@ 10024f0c     libucrt:lcidtoname_downlevel.obj
 0002:00004f18       ??_C@_1M@CGFMKEEK@?$AAe?$AAs?$AA?9?$AAP?$AAR@ 10024f18     libucrt:lcidtoname_downlevel.obj
 0002:00004f24       ??_C@_1O@ICJHKIIK@?$AAz?$AAh?$AA?9?$AAC?$AAH?$AAT@ 10024f24     libucrt:lcidtoname_downlevel.obj
 0002:00004f34       ??_C@_15CLNEJCE@?$AAs?$AAr@ 10024f34     libucrt:lcidtoname_downlevel.obj
 0002:00005660       ??_C@_1M@KAHEKEIG@?$AAa?$AAf?$AA?9?$AAz?$AAa@ 10025660     libucrt:lcidtoname_downlevel.obj
 0002:0000566c       ??_C@_1M@GIECOABL@?$AAa?$AAr?$AA?9?$AAa?$AAe@ 1002566c     libucrt:lcidtoname_downlevel.obj
 0002:00005678       ??_C@_1M@BMLMEKGI@?$AAa?$AAr?$AA?9?$AAb?$AAh@ 10025678     libucrt:lcidtoname_downlevel.obj
 0002:00005684       ??_C@_1M@DAPFDGGB@?$AAa?$AAr?$AA?9?$AAd?$AAz@ 10025684     libucrt:lcidtoname_downlevel.obj
 0002:00005690       ??_C@_1M@FJNKGKIG@?$AAa?$AAr?$AA?9?$AAe?$AAg@ 10025690     libucrt:lcidtoname_downlevel.obj
 0002:0000569c       ??_C@_1M@FLGKKCLO@?$AAa?$AAr?$AA?9?$AAi?$AAq@ 1002569c     libucrt:lcidtoname_downlevel.obj
 0002:000056a8       ??_C@_1M@GNDIPALM@?$AAa?$AAr?$AA?9?$AAj?$AAo@ 100256a8     libucrt:lcidtoname_downlevel.obj
 0002:000056b4       ??_C@_1M@DDMJFMGJ@?$AAa?$AAr?$AA?9?$AAk?$AAw@ 100256b4     libucrt:lcidtoname_downlevel.obj
 0002:000056c0       ??_C@_1M@EJALMLHM@?$AAa?$AAr?$AA?9?$AAl?$AAb@ 100256c0     libucrt:lcidtoname_downlevel.obj
 0002:000056cc       ??_C@_1M@MOBDBLOC@?$AAa?$AAr?$AA?9?$AAl?$AAy@ 100256cc     libucrt:lcidtoname_downlevel.obj
 0002:000056d8       ??_C@_1M@JAOCLHDH@?$AAa?$AAr?$AA?9?$AAm?$AAa@ 100256d8     libucrt:lcidtoname_downlevel.obj
 0002:000056e4       ??_C@_1M@JHPMKJIE@?$AAa?$AAr?$AA?9?$AAo?$AAm@ 100256e4     libucrt:lcidtoname_downlevel.obj
 0002:000056f0       ??_C@_1M@OEPGHFNH@?$AAa?$AAr?$AA?9?$AAq?$AAa@ 100256f0     libucrt:lcidtoname_downlevel.obj
 0002:000056fc       ??_C@_1M@KJDONENM@?$AAa?$AAr?$AA?9?$AAs?$AAa@ 100256fc     libucrt:lcidtoname_downlevel.obj
 0002:00005708       ??_C@_1M@DMJDKLKM@?$AAa?$AAr?$AA?9?$AAs?$AAy@ 10025708     libucrt:lcidtoname_downlevel.obj
 0002:00005714       ??_C@_1M@OMFIPEDC@?$AAa?$AAr?$AA?9?$AAt?$AAn@ 10025714     libucrt:lcidtoname_downlevel.obj
 0002:00005720       ??_C@_1M@IHMHGAON@?$AAa?$AAr?$AA?9?$AAy?$AAe@ 10025720     libucrt:lcidtoname_downlevel.obj
 0002:0000572c       ??_C@_1BG@KDCPGJGB@?$AAa?$AAz?$AA?9?$AAa?$AAz?$AA?9?$AAc?$AAy?$AAr?$AAl@ 1002572c     libucrt:lcidtoname_downlevel.obj
 0002:00005744       ??_C@_1BG@IBCKDDOE@?$AAa?$AAz?$AA?9?$AAa?$AAz?$AA?9?$AAl?$AAa?$AAt?$AAn@ 10025744     libucrt:lcidtoname_downlevel.obj
 0002:0000575c       ??_C@_1M@EGPFDCPD@?$AAb?$AAe?$AA?9?$AAb?$AAy@ 1002575c     libucrt:lcidtoname_downlevel.obj
 0002:00005768       ??_C@_1M@PCMGMCGC@?$AAb?$AAg?$AA?9?$AAb?$AAg@ 10025768     libucrt:lcidtoname_downlevel.obj
 0002:00005774       ??_C@_1M@BJBMFGOB@?$AAb?$AAn?$AA?9?$AAi?$AAn@ 10025774     libucrt:lcidtoname_downlevel.obj
 0002:00005780       ??_C@_1BG@EAKMMACD@?$AAb?$AAs?$AA?9?$AAb?$AAa?$AA?9?$AAl?$AAa?$AAt?$AAn@ 10025780     libucrt:lcidtoname_downlevel.obj
 0002:00005798       ??_C@_1M@KGADAODK@?$AAc?$AAa?$AA?9?$AAe?$AAs@ 10025798     libucrt:lcidtoname_downlevel.obj
 0002:000057a4       ??_C@_1M@COAJPDHI@?$AAc?$AAs?$AA?9?$AAc?$AAz@ 100257a4     libucrt:lcidtoname_downlevel.obj
 0002:000057b0       ??_C@_1M@DHBHFONH@?$AAc?$AAy?$AA?9?$AAg?$AAb@ 100257b0     libucrt:lcidtoname_downlevel.obj
 0002:000057bc       ??_C@_1M@IMGKELGA@?$AAd?$AAa?$AA?9?$AAd?$AAk@ 100257bc     libucrt:lcidtoname_downlevel.obj
 0002:000057c8       ??_C@_1M@NNDGDNGA@?$AAd?$AAe?$AA?9?$AAa?$AAt@ 100257c8     libucrt:lcidtoname_downlevel.obj
 0002:000057d4       ??_C@_1M@IKDBHEEM@?$AAd?$AAe?$AA?9?$AAc?$AAh@ 100257d4     libucrt:lcidtoname_downlevel.obj
 0002:000057e0       ??_C@_1M@GFFOJMCJ@?$AAd?$AAe?$AA?9?$AAd?$AAe@ 100257e0     libucrt:lcidtoname_downlevel.obj
 0002:000057ec       ??_C@_1M@MDNLKBPM@?$AAd?$AAe?$AA?9?$AAl?$AAi@ 100257ec     libucrt:lcidtoname_downlevel.obj
 0002:000057f8       ??_C@_1M@NJBEEJNL@?$AAd?$AAe?$AA?9?$AAl?$AAu@ 100257f8     libucrt:lcidtoname_downlevel.obj
 0002:00005804       ??_C@_1O@GNNELBAP@?$AAd?$AAi?$AAv?$AA?9?$AAm?$AAv@ 10025804     libucrt:lcidtoname_downlevel.obj
 0002:00005814       ??_C@_1M@EJLEOGAE@?$AAe?$AAl?$AA?9?$AAg?$AAr@ 10025814     libucrt:lcidtoname_downlevel.obj
 0002:00005820       ??_C@_1M@GMPONJN@?$AAe?$AAn?$AA?9?$AAa?$AAu@ 10025820     libucrt:lcidtoname_downlevel.obj
 0002:0000582c       ??_C@_1M@NIDIIPGF@?$AAe?$AAn?$AA?9?$AAb?$AAz@ 1002582c     libucrt:lcidtoname_downlevel.obj
 0002:00005838       ??_C@_1M@JEHMIMFO@?$AAe?$AAn?$AA?9?$AAc?$AAa@ 10025838     libucrt:lcidtoname_downlevel.obj
 0002:00005844       ??_C@_1M@IGMJCDLA@?$AAe?$AAn?$AA?9?$AAc?$AAb@ 10025844     libucrt:lcidtoname_downlevel.obj
 0002:00005850       ??_C@_1M@BNFIGBKG@?$AAe?$AAn?$AA?9?$AAg?$AAb@ 10025850     libucrt:lcidtoname_downlevel.obj
 0002:0000585c       ??_C@_1M@LKIFDIGP@?$AAe?$AAn?$AA?9?$AAi?$AAe@ 1002585c     libucrt:lcidtoname_downlevel.obj
 0002:00005868       ??_C@_1M@PJKFGCCO@?$AAe?$AAn?$AA?9?$AAj?$AAm@ 10025868     libucrt:lcidtoname_downlevel.obj
 0002:00005874       ??_C@_1M@KPPKEPBO@?$AAe?$AAn?$AA?9?$AAn?$AAz@ 10025874     libucrt:lcidtoname_downlevel.obj
 0002:00005880       ??_C@_1M@GMDGLDOB@?$AAe?$AAn?$AA?9?$AAp?$AAh@ 10025880     libucrt:lcidtoname_downlevel.obj
 0002:0000588c       ??_C@_1M@ONGIBJNA@?$AAe?$AAn?$AA?9?$AAt?$AAt@ 1002588c     libucrt:lcidtoname_downlevel.obj
 0002:00005898       ??_C@_1M@LLODPCMM@?$AAe?$AAn?$AA?9?$AAu?$AAs@ 10025898     libucrt:lcidtoname_downlevel.obj
 0002:000058a4       ??_C@_1M@LAKFNPAN@?$AAe?$AAn?$AA?9?$AAz?$AAa@ 100258a4     libucrt:lcidtoname_downlevel.obj
 0002:000058b0       ??_C@_1M@MFNHNHEO@?$AAe?$AAn?$AA?9?$AAz?$AAw@ 100258b0     libucrt:lcidtoname_downlevel.obj
 0002:000058bc       ??_C@_1M@EJEINPHM@?$AAe?$AAs?$AA?9?$AAa?$AAr@ 100258bc     libucrt:lcidtoname_downlevel.obj
 0002:000058c8       ??_C@_1M@GNKPCCJA@?$AAe?$AAs?$AA?9?$AAb?$AAo@ 100258c8     libucrt:lcidtoname_downlevel.obj
 0002:000058d4       ??_C@_1M@LEEGFONL@?$AAe?$AAs?$AA?9?$AAc?$AAl@ 100258d4     libucrt:lcidtoname_downlevel.obj
 0002:000058e0       ??_C@_1M@KGPDPBDF@?$AAe?$AAs?$AA?9?$AAc?$AAo@ 100258e0     libucrt:lcidtoname_downlevel.obj
 0002:000058ec       ??_C@_1M@EIAHOHH@?$AAe?$AAs?$AA?9?$AAc?$AAr@ 100258ec     libucrt:lcidtoname_downlevel.obj
 0002:000058f8       ??_C@_1M@LLPGMBIN@?$AAe?$AAs?$AA?9?$AAd?$AAo@ 100258f8     libucrt:lcidtoname_downlevel.obj
 0002:00005904       ??_C@_1M@DKHMKNJA@?$AAe?$AAs?$AA?9?$AAe?$AAc@ 10025904     libucrt:lcidtoname_downlevel.obj
 0002:00005910       ??_C@_1M@GKGFPKAP@?$AAe?$AAs?$AA?9?$AAe?$AAs@ 10025910     libucrt:lcidtoname_downlevel.obj
 0002:0000591c       ??_C@_1M@LKHKGDLN@?$AAe?$AAs?$AA?9?$AAg?$AAt@ 1002591c     libucrt:lcidtoname_downlevel.obj
 0002:00005928       ??_C@_1M@HEIIGGJD@?$AAe?$AAs?$AA?9?$AAh?$AAn@ 10025928     libucrt:lcidtoname_downlevel.obj
 0002:00005934       ??_C@_1M@FBDHPPGD@?$AAe?$AAs?$AA?9?$AAm?$AAx@ 10025934     libucrt:lcidtoname_downlevel.obj
 0002:00005940       ??_C@_1M@DPAGLNDH@?$AAe?$AAs?$AA?9?$AAn?$AAi@ 10025940     libucrt:lcidtoname_downlevel.obj
 0002:0000594c       ??_C@_1M@MDGOPGDD@?$AAe?$AAs?$AA?9?$AAp?$AAa@ 1002594c     libucrt:lcidtoname_downlevel.obj
 0002:00005958       ??_C@_1M@EMAMGBGE@?$AAe?$AAs?$AA?9?$AAp?$AAe@ 10025958     libucrt:lcidtoname_downlevel.obj
 0002:00005964       ??_C@_1M@IBMCAOEC@?$AAe?$AAs?$AA?9?$AAp?$AAr@ 10025964     libucrt:lcidtoname_downlevel.obj
 0002:00005970       ??_C@_1M@FGMDIJED@?$AAe?$AAs?$AA?9?$AAp?$AAy@ 10025970     libucrt:lcidtoname_downlevel.obj
 0002:0000597c       ??_C@_1M@IIDEOLLL@?$AAe?$AAs?$AA?9?$AAs?$AAv@ 1002597c     libucrt:lcidtoname_downlevel.obj
 0002:00005988       ??_C@_1M@GAOBIPA@?$AAe?$AAs?$AA?9?$AAu?$AAy@ 10025988     libucrt:lcidtoname_downlevel.obj
 0002:00005994       ??_C@_1M@JKFFICHJ@?$AAe?$AAs?$AA?9?$AAv?$AAe@ 10025994     libucrt:lcidtoname_downlevel.obj
 0002:000059a0       ??_C@_1M@PNMLOJDF@?$AAe?$AAt?$AA?9?$AAe?$AAe@ 100259a0     libucrt:lcidtoname_downlevel.obj
 0002:000059ac       ??_C@_1M@GHHLIKEI@?$AAe?$AAu?$AA?9?$AAe?$AAs@ 100259ac     libucrt:lcidtoname_downlevel.obj
 0002:000059b8       ??_C@_1M@PBNONODE@?$AAf?$AAa?$AA?9?$AAi?$AAr@ 100259b8     libucrt:lcidtoname_downlevel.obj
 0002:000059c4       ??_C@_1M@JEEHPMIL@?$AAf?$AAi?$AA?9?$AAf?$AAi@ 100259c4     libucrt:lcidtoname_downlevel.obj
 0002:000059d0       ??_C@_1M@LMDCNDBA@?$AAf?$AAo?$AA?9?$AAf?$AAo@ 100259d0     libucrt:lcidtoname_downlevel.obj
 0002:000059dc       ??_C@_1M@JKEOHLDK@?$AAf?$AAr?$AA?9?$AAb?$AAe@ 100259dc     libucrt:lcidtoname_downlevel.obj
 0002:000059e8       ??_C@_1M@NOHADPMI@?$AAf?$AAr?$AA?9?$AAc?$AAa@ 100259e8     libucrt:lcidtoname_downlevel.obj
 0002:000059f4       ??_C@_1M@KDHIHAEC@?$AAf?$AAr?$AA?9?$AAc?$AAh@ 100259f4     libucrt:lcidtoname_downlevel.obj
 0002:00005a00       ??_C@_1M@MMBBFGAK@?$AAf?$AAr?$AA?9?$AAf?$AAr@ 10025a00     libucrt:lcidtoname_downlevel.obj
 0002:00005a0c       ??_C@_1M@PAFNENNF@?$AAf?$AAr?$AA?9?$AAl?$AAu@ 10025a0c     libucrt:lcidtoname_downlevel.obj
 0002:00005a18       ??_C@_1M@EOHDJGDD@?$AAf?$AAr?$AA?9?$AAm?$AAc@ 10025a18     libucrt:lcidtoname_downlevel.obj
 0002:00005a24       ??_C@_1M@FAPLLOPF@?$AAg?$AAl?$AA?9?$AAe?$AAs@ 10025a24     libucrt:lcidtoname_downlevel.obj
 0002:00005a30       ??_C@_1M@FOPBFLOO@?$AAg?$AAu?$AA?9?$AAi?$AAn@ 10025a30     libucrt:lcidtoname_downlevel.obj
 0002:00005a3c       ??_C@_1M@KBMCINPM@?$AAh?$AAe?$AA?9?$AAi?$AAl@ 10025a3c     libucrt:lcidtoname_downlevel.obj
 0002:00005a48       ??_C@_1M@BBPHKFPJ@?$AAh?$AAi?$AA?9?$AAi?$AAn@ 10025a48     libucrt:lcidtoname_downlevel.obj
 0002:00005a54       ??_C@_1M@PMBNDPHD@?$AAh?$AAr?$AA?9?$AAb?$AAa@ 10025a54     libucrt:lcidtoname_downlevel.obj
 0002:00005a60       ??_C@_1M@BPCKOEGE@?$AAh?$AAr?$AA?9?$AAh?$AAr@ 10025a60     libucrt:lcidtoname_downlevel.obj
 0002:00005a6c       ??_C@_1M@GACBMHKE@?$AAh?$AAu?$AA?9?$AAh?$AAu@ 10025a6c     libucrt:lcidtoname_downlevel.obj
 0002:00005a78       ??_C@_1M@MILPAJJC@?$AAh?$AAy?$AA?9?$AAa?$AAm@ 10025a78     libucrt:lcidtoname_downlevel.obj
 0002:00005a84       ??_C@_1M@BABBICEC@?$AAi?$AAd?$AA?9?$AAi?$AAd@ 10025a84     libucrt:lcidtoname_downlevel.obj
 0002:00005a90       ??_C@_1M@BIKNHHPF@?$AAi?$AAs?$AA?9?$AAi?$AAs@ 10025a90     libucrt:lcidtoname_downlevel.obj
 0002:00005a9c       ??_C@_1M@NMPCJPHE@?$AAi?$AAt?$AA?9?$AAc?$AAh@ 10025a9c     libucrt:lcidtoname_downlevel.obj
 0002:00005aa8       ??_C@_1M@GHKGFEDF@?$AAi?$AAt?$AA?9?$AAi?$AAt@ 10025aa8     libucrt:lcidtoname_downlevel.obj
 0002:00005ab4       ??_C@_1M@NIEJCJJA@?$AAj?$AAa?$AA?9?$AAj?$AAp@ 10025ab4     libucrt:lcidtoname_downlevel.obj
 0002:00005ac0       ??_C@_1M@JILFNBIM@?$AAk?$AAa?$AA?9?$AAg?$AAe@ 10025ac0     libucrt:lcidtoname_downlevel.obj
 0002:00005acc       ??_C@_1M@PACPMGPH@?$AAk?$AAk?$AA?9?$AAk?$AAz@ 10025acc     libucrt:lcidtoname_downlevel.obj
 0002:00005ad8       ??_C@_1M@IELFGMHA@?$AAk?$AAn?$AA?9?$AAi?$AAn@ 10025ad8     libucrt:lcidtoname_downlevel.obj
 0002:00005ae4       ??_C@_1O@IBBJHCH@?$AAk?$AAo?$AAk?$AA?9?$AAi?$AAn@ 10025ae4     libucrt:lcidtoname_downlevel.obj
 0002:00005af4       ??_C@_1M@DMHAEOGC@?$AAk?$AAo?$AA?9?$AAk?$AAr@ 10025af4     libucrt:lcidtoname_downlevel.obj
 0002:00005b00       ??_C@_1M@HBAHBIGA@?$AAk?$AAy?$AA?9?$AAk?$AAg@ 10025b00     libucrt:lcidtoname_downlevel.obj
 0002:00005b0c       ??_C@_1M@KPMILCJG@?$AAl?$AAt?$AA?9?$AAl?$AAt@ 10025b0c     libucrt:lcidtoname_downlevel.obj
 0002:00005b18       ??_C@_1M@BDEKKCA@?$AAl?$AAv?$AA?9?$AAl?$AAv@ 10025b18     libucrt:lcidtoname_downlevel.obj
 0002:00005b24       ??_C@_1M@ELCKCCJJ@?$AAm?$AAi?$AA?9?$AAn?$AAz@ 10025b24     libucrt:lcidtoname_downlevel.obj
 0002:00005b30       ??_C@_1M@CBOOLAPA@?$AAm?$AAk?$AA?9?$AAm?$AAk@ 10025b30     libucrt:lcidtoname_downlevel.obj
 0002:00005b3c       ??_C@_1M@GPHNBJKN@?$AAm?$AAl?$AA?9?$AAi?$AAn@ 10025b3c     libucrt:lcidtoname_downlevel.obj
 0002:00005b48       ??_C@_1M@PABJILIG@?$AAm?$AAn?$AA?9?$AAm?$AAn@ 10025b48     libucrt:lcidtoname_downlevel.obj
 0002:00005b54       ??_C@_1M@FGBKKIPG@?$AAm?$AAr?$AA?9?$AAi?$AAn@ 10025b54     libucrt:lcidtoname_downlevel.obj
 0002:00005b60       ??_C@_1M@NDBPDDAL@?$AAm?$AAs?$AA?9?$AAb?$AAn@ 10025b60     libucrt:lcidtoname_downlevel.obj
 0002:00005b6c       ??_C@_1M@OPIHOOPI@?$AAm?$AAs?$AA?9?$AAm?$AAy@ 10025b6c     libucrt:lcidtoname_downlevel.obj
 0002:00005b78       ??_C@_1M@PPDBCNFM@?$AAm?$AAt?$AA?9?$AAm?$AAt@ 10025b78     libucrt:lcidtoname_downlevel.obj
 0002:00005b84       ??_C@_1M@KDJDKMDD@?$AAn?$AAb?$AA?9?$AAn?$AAo@ 10025b84     libucrt:lcidtoname_downlevel.obj
 0002:00005b90       ??_C@_1M@KFCFLMJP@?$AAn?$AAl?$AA?9?$AAb?$AAe@ 10025b90     libucrt:lcidtoname_downlevel.obj
 0002:00005b9c       ??_C@_1M@KPOPDDGO@?$AAn?$AAl?$AA?9?$AAn?$AAl@ 10025b9c     libucrt:lcidtoname_downlevel.obj
 0002:00005ba8       ??_C@_1M@LJKPEMLN@?$AAn?$AAn?$AA?9?$AAn?$AAo@ 10025ba8     libucrt:lcidtoname_downlevel.obj
 0002:00005bb4       ??_C@_1M@BDGHHBFL@?$AAn?$AAs?$AA?9?$AAz?$AAa@ 10025bb4     libucrt:lcidtoname_downlevel.obj
 0002:00005bc0       ??_C@_1M@IDEHOAP@?$AAp?$AAa?$AA?9?$AAi?$AAn@ 10025bc0     libucrt:lcidtoname_downlevel.obj
 0002:00005bcc       ??_C@_1M@HDBKGOGH@?$AAp?$AAl?$AA?9?$AAp?$AAl@ 10025bcc     libucrt:lcidtoname_downlevel.obj
 0002:00005bd8       ??_C@_1M@LJLLCMEH@?$AAp?$AAt?$AA?9?$AAb?$AAr@ 10025bd8     libucrt:lcidtoname_downlevel.obj
 0002:00005be4       ??_C@_1M@NCMONAAL@?$AAp?$AAt?$AA?9?$AAp?$AAt@ 10025be4     libucrt:lcidtoname_downlevel.obj
 0002:00005bf0       ??_C@_1O@EAKMAJDN@?$AAq?$AAu?$AAz?$AA?9?$AAb?$AAo@ 10025bf0     libucrt:lcidtoname_downlevel.obj
 0002:00005c00       ??_C@_1O@BHHPIGDN@?$AAq?$AAu?$AAz?$AA?9?$AAe?$AAc@ 10025c00     libucrt:lcidtoname_downlevel.obj
 0002:00005c10       ??_C@_1O@GBAPEKMJ@?$AAq?$AAu?$AAz?$AA?9?$AAp?$AAe@ 10025c10     libucrt:lcidtoname_downlevel.obj
 0002:00005c20       ??_C@_1M@CLGLEFBO@?$AAr?$AAo?$AA?9?$AAr?$AAo@ 10025c20     libucrt:lcidtoname_downlevel.obj
 0002:00005c2c       ??_C@_1M@CEEDODME@?$AAr?$AAu?$AA?9?$AAr?$AAu@ 10025c2c     libucrt:lcidtoname_downlevel.obj
 0002:00005c38       ??_C@_1M@HPKKKMPP@?$AAs?$AAa?$AA?9?$AAi?$AAn@ 10025c38     libucrt:lcidtoname_downlevel.obj
 0002:00005c44       ??_C@_1M@BKMAIGOJ@?$AAs?$AAe?$AA?9?$AAf?$AAi@ 10025c44     libucrt:lcidtoname_downlevel.obj
 0002:00005c50       ??_C@_1M@NDPIFLFI@?$AAs?$AAe?$AA?9?$AAn?$AAo@ 10025c50     libucrt:lcidtoname_downlevel.obj
 0002:00005c5c       ??_C@_1M@DANKKHJ@?$AAs?$AAe?$AA?9?$AAs?$AAe@ 10025c5c     libucrt:lcidtoname_downlevel.obj
 0002:00005c68       ??_C@_1M@PNBLONPJ@?$AAs?$AAk?$AA?9?$AAs?$AAk@ 10025c68     libucrt:lcidtoname_downlevel.obj
 0002:00005c74       ??_C@_1M@LFMODOAL@?$AAs?$AAl?$AA?9?$AAs?$AAi@ 10025c74     libucrt:lcidtoname_downlevel.obj
 0002:00005c80       ??_C@_1O@DFKOMPG@?$AAs?$AAm?$AAa?$AA?9?$AAn?$AAo@ 10025c80     libucrt:lcidtoname_downlevel.obj
 0002:00005c90       ??_C@_1O@NDKPBNNH@?$AAs?$AAm?$AAa?$AA?9?$AAs?$AAe@ 10025c90     libucrt:lcidtoname_downlevel.obj
 0002:00005ca0       ??_C@_1O@PLLKBHAB@?$AAs?$AAm?$AAj?$AA?9?$AAn?$AAo@ 10025ca0     libucrt:lcidtoname_downlevel.obj
 0002:00005cb0       ??_C@_1O@CLEPOGCA@?$AAs?$AAm?$AAj?$AA?9?$AAs?$AAe@ 10025cb0     libucrt:lcidtoname_downlevel.obj
 0002:00005cc0       ??_C@_1O@DLGJGKMK@?$AAs?$AAm?$AAn?$AA?9?$AAf?$AAi@ 10025cc0     libucrt:lcidtoname_downlevel.obj
 0002:00005cd0       ??_C@_1O@OJDJGAJC@?$AAs?$AAm?$AAs?$AA?9?$AAf?$AAi@ 10025cd0     libucrt:lcidtoname_downlevel.obj
 0002:00005ce0       ??_C@_1M@BOFOGHPB@?$AAs?$AAq?$AA?9?$AAa?$AAl@ 10025ce0     libucrt:lcidtoname_downlevel.obj
 0002:00005cec       ??_C@_1BG@LJBBIPGB@?$AAs?$AAr?$AA?9?$AAb?$AAa?$AA?9?$AAc?$AAy?$AAr?$AAl@ 10025cec     libucrt:lcidtoname_downlevel.obj
 0002:00005d04       ??_C@_1BG@JLBENFOE@?$AAs?$AAr?$AA?9?$AAb?$AAa?$AA?9?$AAl?$AAa?$AAt?$AAn@ 10025d04     libucrt:lcidtoname_downlevel.obj
 0002:00005d1c       ??_C@_1BG@KODPNHE@?$AAs?$AAr?$AA?9?$AAs?$AAp?$AA?9?$AAc?$AAy?$AAr?$AAl@ 10025d1c     libucrt:lcidtoname_downlevel.obj
 0002:00005d34       ??_C@_1BG@CIOGKHPB@?$AAs?$AAr?$AA?9?$AAs?$AAp?$AA?9?$AAl?$AAa?$AAt?$AAn@ 10025d34     libucrt:lcidtoname_downlevel.obj
 0002:00005d4c       ??_C@_1M@NGFJLMAC@?$AAs?$AAv?$AA?9?$AAf?$AAi@ 10025d4c     libucrt:lcidtoname_downlevel.obj
 0002:00005d58       ??_C@_1M@MPJEJAJC@?$AAs?$AAv?$AA?9?$AAs?$AAe@ 10025d58     libucrt:lcidtoname_downlevel.obj
 0002:00005d64       ??_C@_1M@MPNDHLFK@?$AAs?$AAw?$AA?9?$AAk?$AAe@ 10025d64     libucrt:lcidtoname_downlevel.obj
 0002:00005d70       ??_C@_1O@KOHBJJI@?$AAs?$AAy?$AAr?$AA?9?$AAs?$AAy@ 10025d70     libucrt:lcidtoname_downlevel.obj
 0002:00005d80       ??_C@_1M@LDCEFHA@?$AAt?$AAa?$AA?9?$AAi?$AAn@ 10025d80     libucrt:lcidtoname_downlevel.obj
 0002:00005d8c       ??_C@_1M@CNJOFAK@?$AAt?$AAe?$AA?9?$AAi?$AAn@ 10025d8c     libucrt:lcidtoname_downlevel.obj
 0002:00005d98       ??_C@_1M@GNAECACD@?$AAt?$AAh?$AA?9?$AAt?$AAh@ 10025d98     libucrt:lcidtoname_downlevel.obj
 0002:00005da4       ??_C@_1M@CHBIHOJO@?$AAt?$AAn?$AA?9?$AAz?$AAa@ 10025da4     libucrt:lcidtoname_downlevel.obj
 0002:00005db0       ??_C@_1M@GCCMIGPJ@?$AAt?$AAr?$AA?9?$AAt?$AAr@ 10025db0     libucrt:lcidtoname_downlevel.obj
 0002:00005dbc       ??_C@_1M@CELMCNBK@?$AAt?$AAt?$AA?9?$AAr?$AAu@ 10025dbc     libucrt:lcidtoname_downlevel.obj
 0002:00005dc8       ??_C@_1M@KLMCELGA@?$AAu?$AAk?$AA?9?$AAu?$AAa@ 10025dc8     libucrt:lcidtoname_downlevel.obj
 0002:00005dd4       ??_C@_1M@EPAJJAJF@?$AAu?$AAr?$AA?9?$AAp?$AAk@ 10025dd4     libucrt:lcidtoname_downlevel.obj
 0002:00005de0       ??_C@_1BG@GEGPMCDJ@?$AAu?$AAz?$AA?9?$AAu?$AAz?$AA?9?$AAc?$AAy?$AAr?$AAl@ 10025de0     libucrt:lcidtoname_downlevel.obj
 0002:00005df8       ??_C@_1BG@EGGKJILM@?$AAu?$AAz?$AA?9?$AAu?$AAz?$AA?9?$AAl?$AAa?$AAt?$AAn@ 10025df8     libucrt:lcidtoname_downlevel.obj
 0002:00005e10       ??_C@_1M@GFOCLFF@?$AAv?$AAi?$AA?9?$AAv?$AAn@ 10025e10     libucrt:lcidtoname_downlevel.obj
 0002:00005e1c       ??_C@_1M@CPAMEDFI@?$AAx?$AAh?$AA?9?$AAz?$AAa@ 10025e1c     libucrt:lcidtoname_downlevel.obj
 0002:00005e28       ??_C@_1O@EBKIFIGN@?$AAz?$AAh?$AA?9?$AAc?$AAh?$AAs@ 10025e28     libucrt:lcidtoname_downlevel.obj
 0002:00005e38       ??_C@_1O@NMHPGANE@?$AAz?$AAh?$AA?9?$AAc?$AAh?$AAt@ 10025e38     libucrt:lcidtoname_downlevel.obj
 0002:00005e48       ??_C@_1M@LPINJOMC@?$AAz?$AAh?$AA?9?$AAc?$AAn@ 10025e48     libucrt:lcidtoname_downlevel.obj
 0002:00005e54       ??_C@_1M@OCJEJODD@?$AAz?$AAh?$AA?9?$AAh?$AAk@ 10025e54     libucrt:lcidtoname_downlevel.obj
 0002:00005e60       ??_C@_1M@DNDLJINH@?$AAz?$AAh?$AA?9?$AAm?$AAo@ 10025e60     libucrt:lcidtoname_downlevel.obj
 0002:00005e6c       ??_C@_1M@MBFDNDND@?$AAz?$AAh?$AA?9?$AAs?$AAg@ 10025e6c     libucrt:lcidtoname_downlevel.obj
 0002:00005e78       ??_C@_1M@IMEPLEPE@?$AAz?$AAh?$AA?9?$AAt?$AAw@ 10025e78     libucrt:lcidtoname_downlevel.obj
 0002:00005e84       ??_C@_1M@BBGHNHJP@?$AAz?$AAu?$AA?9?$AAz?$AAa@ 10025e84     libucrt:lcidtoname_downlevel.obj
 0002:00005e90       ?large_power_data@?1??multiply_by_power_of_ten@__crt_strtox@@YA_NAAUbig_integer@2@I@Z@4QBIB 10025e90     libucrt:cfout.obj
 0002:00006798       ?large_power_indices@?1??multiply_by_power_of_ten@__crt_strtox@@YA_NAAUbig_integer@2@I@Z@4QBUunpack_index@?1??12@YA_N0I@Z@B 10026798     libucrt:cfout.obj
 0002:00006830       ?small_powers_of_ten@?1??multiply_by_power_of_ten@__crt_strtox@@YA_NAAUbig_integer@2@I@Z@4QBIB 10026830     libucrt:cfout.obj
 0002:00006854       ??_C@_01GBGANLPD@0@        10026854     libucrt:cfout.obj
 0002:00006858       ??_C@_05DNEBIAHO@1?$CDINF@ 10026858     libucrt:cfout.obj
 0002:00006860       ??_C@_06IMKFLFPG@1?$CDQNAN@ 10026860     libucrt:cfout.obj
 0002:00006868       ??_C@_06PGGFOGJG@1?$CDSNAN@ 10026868     libucrt:cfout.obj
 0002:00006870       ??_C@_05PHHOCPM@1?$CDIND@  10026870     libucrt:cfout.obj
 0002:000069e0       __infinity                 100269e0     libucrt:87tran.obj
 0002:000069ea       __minfinity                100269ea     libucrt:87tran.obj
 0002:000069f4       __logemax                  100269f4     libucrt:87tran.obj
 0002:00006a1a       __OP_EXPjmptab             10026a1a     libucrt:87tran.obj
 0002:00006a40       __indefinite               10026a40     libucrt:87disp.obj
 0002:00006a4a       __piby2                    10026a4a     libucrt:87disp.obj
 0002:00006a54       __piby4                    10026a54     libucrt:87disp.obj
 0002:00006a88       __DEFAULT_CW_in_mem        10026a88     libucrt:common.obj
 0002:00006a8a       __pi_by_2_to_61            10026a8a     libucrt:common.obj
 0002:00006ac4       ??_C@_03MGHMBJCF@log@      10026ac4     libucrt:libm_error.obj
 0002:00006ac8       ??_C@_05HGHHAHAP@log10@    10026ac8     libucrt:libm_error.obj
 0002:00006ad0       ??_C@_03KHJOGHMM@exp@      10026ad0     libucrt:libm_error.obj
 0002:00006ad4       ??_C@_03JGHBODFD@pow@      10026ad4     libucrt:libm_error.obj
 0002:00006ad8       ??_C@_04FIHNOPOL@asin@     10026ad8     libucrt:libm_error.obj
 0002:00006ae0       ??_C@_04PDIFKINK@acos@     10026ae0     libucrt:libm_error.obj
 0002:00006ae8       ??_C@_04EIAKFFMI@sqrt@     10026ae8     libucrt:libm_error.obj
 0002:00006af0       __real@3ff0000000000000    10026af0     libucrt:libm_error.obj
 0002:00006af8       ??_C@_1BA@BALFACEM@?$AAC?$AAO?$AAN?$AAO?$AAU?$AAT?$AA$@ 10026af8     libucrt:initcon.obj
 0002:00006b20       ___acrt_log10_table_t      10026b20     libucrt:log10_tables.obj
 0002:00006f30       ___acrt_log10_table_cb     10026f30     libucrt:log10_tables.obj
 0002:00007340       __real@3fe0000000000000    10027340     libucrt:powhlp.obj
 0002:00007430       ??_C@_04COOMCNPB@sinh@     10027430     libucrt:fpexcept.obj
 0002:00007438       ??_C@_04HPJJNFIM@cosh@     10027438     libucrt:fpexcept.obj
 0002:00007440       ??_C@_04FJHINJAO@tanh@     10027440     libucrt:fpexcept.obj
 0002:00007448       ??_C@_04MLLJIGOK@atan@     10027448     libucrt:fpexcept.obj
 0002:00007450       ??_C@_05KNGEOGJB@atan2@    10027450     libucrt:fpexcept.obj
 0002:00007458       ??_C@_03BLEJJJBH@sin@      10027458     libucrt:fpexcept.obj
 0002:0000745c       ??_C@_03LALBNOCG@cos@      1002745c     libucrt:fpexcept.obj
 0002:00007460       ??_C@_03IIINPABG@tan@      10027460     libucrt:fpexcept.obj
 0002:00007464       ??_C@_04GFPJNGEK@ceil@     10027464     libucrt:fpexcept.obj
 0002:0000746c       ??_C@_05PBJFFIGL@floor@    1002746c     libucrt:fpexcept.obj
 0002:00007474       ??_C@_04ODHECPBC@fabs@     10027474     libucrt:fpexcept.obj
 0002:0000747c       ??_C@_04EHEDPDJG@modf@     1002747c     libucrt:fpexcept.obj
 0002:00007484       ??_C@_05CEJMAHNP@ldexp@    10027484     libucrt:fpexcept.obj
 0002:0000748c       ??_C@_05KBKMEMPO@_cabs@    1002748c     libucrt:fpexcept.obj
 0002:00007494       ??_C@_06MEIMCGCF@_hypot@   10027494     libucrt:fpexcept.obj
 0002:0000749c       ??_C@_04KEPJIHGP@fmod@     1002749c     libucrt:fpexcept.obj
 0002:000074a4       ??_C@_05GKKHEGJL@frexp@    100274a4     libucrt:fpexcept.obj
 0002:000074ac       ??_C@_03MJLDFKDL@_y0@      100274ac     libucrt:fpexcept.obj
 0002:000074b0       ??_C@_03NAKIGLHK@_y1@      100274b0     libucrt:fpexcept.obj
 0002:000074b4       ??_C@_03ONILCKOB@_yn@      100274b4     libucrt:fpexcept.obj
 0002:000074b8       ??_C@_05JGDBENOH@_logb@    100274b8     libucrt:fpexcept.obj
 0002:000074c0       ??_C@_0L@KDOEJCKC@_nextafter@ 100274c0     libucrt:fpexcept.obj
 0002:000074d0       __d_inf                    100274d0     libucrt:util.obj
 0002:000074d8       __d_max                    100274d8     libucrt:util.obj
 0002:000074e0       __d_mzero                  100274e0     libucrt:util.obj
 0002:00007550       __load_config_used         10027550     LIBCMT:loadcfg.obj
 0002:00007640       __tls_used                 10027640     LIBCMT:tlssup.obj
 0002:00007658       ??_R4exception@std@@6B@    10027658     LIBCMT:throw_bad_alloc.obj
 0002:0000766c       ??_R3exception@std@@8      1002766c     LIBCMT:throw_bad_alloc.obj
 0002:0000767c       ??_R2exception@std@@8      1002767c     LIBCMT:throw_bad_alloc.obj
 0002:00007684       ??_R1A@?0A@EA@exception@std@@8 10027684     LIBCMT:throw_bad_alloc.obj
 0002:000076a0       ??_R4bad_alloc@std@@6B@    100276a0     LIBCMT:throw_bad_alloc.obj
 0002:000076b4       ??_R3bad_alloc@std@@8      100276b4     LIBCMT:throw_bad_alloc.obj
 0002:000076c4       ??_R2bad_alloc@std@@8      100276c4     LIBCMT:throw_bad_alloc.obj
 0002:000076d0       ??_R1A@?0A@EA@bad_alloc@std@@8 100276d0     LIBCMT:throw_bad_alloc.obj
 0002:000076ec       ??_R4bad_array_new_length@std@@6B@ 100276ec     LIBCMT:throw_bad_alloc.obj
 0002:00007700       ??_R3bad_array_new_length@std@@8 10027700     LIBCMT:throw_bad_alloc.obj
 0002:00007710       ??_R2bad_array_new_length@std@@8 10027710     LIBCMT:throw_bad_alloc.obj
 0002:00007720       ??_R1A@?0A@EA@bad_array_new_length@std@@8 10027720     LIBCMT:throw_bad_alloc.obj
 0002:0000773c       ??_R4type_info@@6B@        1002773c     LIBCMT:std_type_info_static.obj
 0002:00007750       ??_R3type_info@@8          10027750     LIBCMT:std_type_info_static.obj
 0002:00007760       ??_R2type_info@@8          10027760     LIBCMT:std_type_info_static.obj
 0002:00007768       ??_R1A@?0A@EA@type_info@@8 10027768     LIBCMT:std_type_info_static.obj
 0002:00007784       ??_R4bad_exception@std@@6B@ 10027784     libvcruntime:frame.obj
 0002:00007798       ??_R3bad_exception@std@@8  10027798     libvcruntime:frame.obj
 0002:000077a8       ??_R2bad_exception@std@@8  100277a8     libvcruntime:frame.obj
 0002:000077b4       ??_R1A@?0A@EA@bad_exception@std@@8 100277b4     libvcruntime:frame.obj
 0002:000077d0       ___safe_se_handler_table   100277d0     <linker-defined>
 0002:00007bcc       ___rtc_iaa                 10027bcc     LIBCMT:initsect.obj
 0002:00007bd0       ___rtc_izz                 10027bd0     LIBCMT:initsect.obj
 0002:00007bd4       ___rtc_taa                 10027bd4     LIBCMT:initsect.obj
 0002:00007bd8       ___rtc_tzz                 10027bd8     LIBCMT:initsect.obj
 0002:00007bdc       __tls_start                10027bdc     LIBCMT:tlssup.obj
 0002:00007be0       __Init_thread_epoch        10027be0     LIBCMT:thread_safe_statics.obj
 0002:00007be4       __tls_end                  10027be4     LIBCMT:tlssup.obj
 0002:00007ce4       __TI2?AVbad_alloc@std@@    10027ce4     LIBCMT:throw_bad_alloc.obj
 0002:00007cf4       __CTA2?AVbad_alloc@std@@   10027cf4     LIBCMT:throw_bad_alloc.obj
 0002:00007d00       __CT??_R0?AVbad_alloc@std@@@8??0bad_alloc@std@@QAE@ABV01@@Z12 10027d00     LIBCMT:throw_bad_alloc.obj
 0002:00007d1c       __CT??_R0?AVexception@std@@@8??0exception@std@@QAE@ABV01@@Z12 10027d1c     LIBCMT:throw_bad_alloc.obj
 0002:00007d38       __TI3?AVbad_array_new_length@std@@ 10027d38     LIBCMT:throw_bad_alloc.obj
 0002:00007d48       __CTA3?AVbad_array_new_length@std@@ 10027d48     LIBCMT:throw_bad_alloc.obj
 0002:00007d58       __CT??_R0?AVbad_array_new_length@std@@@8??0bad_array_new_length@std@@QAE@ABV01@@Z12 10027d58     LIBCMT:throw_bad_alloc.obj
 0002:00007e7c       __TI2?AVbad_exception@std@@ 10027e7c     libvcruntime:frame.obj
 0002:00007e8c       __CTA2?AVbad_exception@std@@ 10027e8c     libvcruntime:frame.obj
 0002:00007e98       __CT??_R0?AVbad_exception@std@@@8??0bad_exception@std@@QAE@ABV01@@Z12 10027e98     libvcruntime:frame.obj
 0002:00008214       ___pobjMapEntryFirst       10028214     OposVariant.obj
 0002:00008218       ___pobjMapEntryLast        10028218     OposVariant.obj
 0002:000082d0       __IMPORT_DESCRIPTOR_KERNEL32 100282d0     kernel32:KERNEL32.dll
 0002:000082e4       __IMPORT_DESCRIPTOR_USER32 100282e4     user32:USER32.dll
 0002:000082f8       __IMPORT_DESCRIPTOR_GDI32  100282f8     gdi32:GDI32.dll
 0002:0000830c       __IMPORT_DESCRIPTOR_ADVAPI32 1002830c     advapi32:ADVAPI32.dll
 0002:00008320       __IMPORT_DESCRIPTOR_ole32  10028320     ole32:ole32.dll
 0002:00008334       __IMPORT_DESCRIPTOR_OLEAUT32 10028334     oleaut32:OLEAUT32.dll
 0002:00008348       __NULL_IMPORT_DESCRIPTOR   10028348     kernel32:KERNEL32.dll
 0003:00000000       ?s_Claim@?7??GetIDsOfNames@CComTypeInfoHolder@ATL@@QAEJABU_GUID@@PAPA_WIKPAJ@Z@4PA_WA 1002a000     BillAcceptor.obj
 0003:00000018       ?s_Release@?7??GetIDsOfNames@CComTypeInfoHolder@ATL@@QAEJABU_GUID@@PAPA_WIKPAJ@Z@4PA_WA 1002a018     BillAcceptor.obj
 0003:00000034       ?_tih@?$IDispatchImpl@UIOPOSBillAcceptor@@$1?IID_IOPOSBillAcceptor@@3U_GUID@@B$1?LIBID_OposBillAcceptor_CCO@@3U3@B$00$0A@VCComTypeInfoHolder@ATL@@@ATL@@1VCComTypeInfoHolder@2@A 1002a034     BillAcceptor.obj
 0003:00000050       ?_tih@?$IProvideClassInfo2Impl@$1?CLSID_OPOSBillAcceptor@@3U_GUID@@B$1?DIID__IOPOSBillAcceptorEvents@@3U2@B$1?LIBID_OposBillAcceptor_CCO@@3U2@B$00$0A@VCComTypeInfoHolder@ATL@@@ATL@@1VCComTypeInfoHolder@2@A 1002a050     BillAcceptor.obj
 0003:0000006c       ?vszContents@?6??Save@?$IPersistStorageImpl@VCOPOSBillAcceptor@@@ATL@@UAGJPAUIStorage@@H@Z@4PB_WB 1002a06c     BillAcceptor.obj
 0003:00000070       ?wc@?1??GetWndClassInfo@?$CWindowImpl@VCOPOSBillAcceptor@@VCWindow@ATL@@V?$CWinTraits@$0FGAAAAAA@$0A@@3@@ATL@@SAAAU_ATL_WNDCLASSINFOW@3@XZ@4U43@A 1002a070     BillAcceptor.obj
 0003:000000fc       ?rcDefault@CWindow@ATL@@2UtagRECT@@A 1002a0fc     BillAcceptor.obj
 0003:00000158       ?g_WindowName@@3PA_WA      1002a158     BillAcceptorImpl.obj
 0003:00000180       ?g_ControlDescription@@3PADA 1002a180     BillAcceptorImpl.obj
 0003:000001cc       ?g_ControlVersion@@3JA     1002a1cc     BillAcceptorImpl.obj
 0003:00000234       ___scrt_native_dllmain_reason 1002a234     LIBCMT:utility.obj
 0003:00000238       __Init_global_epoch        1002a238     LIBCMT:thread_safe_statics.obj
 0003:00000240       ___security_cookie_complement 1002a240     LIBCMT:gs_cookie.obj
 0003:00000244       ___security_cookie         1002a244     LIBCMT:gs_cookie.obj
 0003:00000248       ___isa_enabled             1002a248     LIBCMT:cpu_disp.obj
 0003:00000260       __NLG_Destination          1002a260     libvcruntime:exsup.obj
 0003:00000278       ___abort_behavior          1002a278     libucrt:abort.obj
 0003:00000288       __iob                      1002a288     libucrt:_file.obj
 0003:00000330       ___acrt_initial_locale_data 1002a330     libucrt:nlsdata.obj
 0003:000003e8       ___acrt_initial_locale_pointers 1002a3e8     libucrt:nlsdata.obj
 0003:000003f0       ___acrt_wide_c_locale_string 1002a3f0     libucrt:nlsdata.obj
 0003:000003f8       ___acrt_initial_multibyte_data 1002a3f8     libucrt:mbctype.obj
 0003:00000918       __pwctype                  1002a918     libucrt:ctype.obj
 0003:0000091c       ___globallocalestatus      1002a91c     libucrt:glstatus.obj
 0003:00000920       ___acrt_lconv_c            1002a920     libucrt:localeconv.obj
 0003:00000970       ___acrt_lconv_static_decimal 1002a970     libucrt:localeconv.obj
 0003:00000974       ___acrt_lconv_static_W_decimal 1002a974     libucrt:localeconv.obj
 0003:00000980       __lookuptrailbytes         1002a980     libucrt:read.obj
 0003:00000a90       __fltused                  1002aa90     LIBCMT:fltused.obj
 0003:00000aa0       ??_R0?AVbad_alloc@std@@@8  1002aaa0     LIBCMT:throw_bad_alloc.obj
 0003:00000abc       ??_R0?AVexception@std@@@8  1002aabc     LIBCMT:throw_bad_alloc.obj
 0003:00000ad8       ??_R0?AVbad_array_new_length@std@@@8 1002aad8     LIBCMT:throw_bad_alloc.obj
 0003:00000b00       ??_R0?AVtype_info@@@8      1002ab00     LIBCMT:std_type_info_static.obj
 0003:00000b18       ??_R0?AVbad_exception@std@@@8 1002ab18     libvcruntime:frame.obj
 0003:00000b38       ?m_bInitFailed@CAtlBaseModule@ATL@@2_NA 1002ab38     OposVariant.obj
 0003:00000b3c       ?_pPerfRegFunc@ATL@@3P6AJPAUHINSTANCE__@@@ZA 1002ab3c     OposVariant.obj
 0003:00000b40       ?_pPerfUnRegFunc@ATL@@3P6AJXZA 1002ab40     OposVariant.obj
 0003:00000b44       ?_AtlRegisterPerUser@ATL@@3_NA 1002ab44     OposVariant.obj
 0003:00000b48       ?_pAtlModule@ATL@@3PAVCAtlModule@1@A 1002ab48     OposVariant.obj
 0003:00000b4c       ?_pModule@ATL@@3PAVCComModule@1@A 1002ab4c     OposVariant.obj
 0003:00000b50       ?_AtlComModule@ATL@@3VCAtlComModule@1@A 1002ab50     OposVariant.obj
 0003:00000b78       ?_AtlWinModule@ATL@@3VCAtlWinModule@1@A 1002ab78     OposVariant.obj
 0003:00000ba4       ?m_libid@CAtlModule@ATL@@2U_GUID@@A 1002aba4     BillAcceptor.obj
 0003:00000bb4       ?_entries@?1??GetConnMap@COPOSBillAcceptor@@SAPBU_ATL_CONNMAP_ENTRY@ATL@@PAH@Z@4QBU34@B 1002abb4     BillAcceptor.obj
 0003:00000bc0       ?$TSS0@?1??GetConnMap@COPOSBillAcceptor@@SAPBU_ATL_CONNMAP_ENTRY@ATL@@PAH@Z@4HA 1002abc0     BillAcceptor.obj
 0003:00000bc8       ?_OptionsStorage@?1??__local_stdio_printf_options@@9@4_KA 1002abc8     BillAcceptor.obj
 0003:00000bd0       ?pfnRegDeleteKeyEx@?1??DeleteSubKey@CRegKey@ATL@@QAEJPB_W@Z@4P6GJPAUHKEY__@@0KK@ZA 1002abd0     BillAcceptor.obj
 0003:00000bd4       ?bInitialized@?1??DeleteSubKey@CRegKey@ATL@@QAEJPB_W@Z@4_NA 1002abd4     BillAcceptor.obj
 0003:00000bd8       ?_Module@@3VCComModule@ATL@@A 1002abd8     BillAcceptor.obj
 0003:00000c08       ?pConnMap@?$IConnectionPointContainerImpl@VCOPOSBillAcceptor@@@ATL@@0PBU_ATL_CONNMAP_ENTRY@2@B 1002ac08     BillAcceptor.obj
 0003:00000c0c       ?s_nInstances@COPOSBillAcceptor@@1HA 1002ac0c     BillAcceptorImpl.obj
 0003:00000c10       ___scrt_current_native_startup_state 1002ac10     LIBCMT:utility.obj
 0003:00000c14       ___scrt_native_startup_lock 1002ac14     LIBCMT:utility.obj
 0003:00000f7c       __tls_index                1002af7c     LIBCMT:tlssup.obj
 0003:00000f84       ___isa_available           1002af84     LIBCMT:cpu_disp.obj
 0003:00000f88       ___favor                   1002af88     LIBCMT:cpu_disp.obj
 0003:00000f8c       ___scrt_debugger_hook_flag 1002af8c     LIBCMT:utility_desktop.obj
 0003:00000f90       ___castguard_check_failure_os_handled_fptr 1002af90     LIBCMT:guard_support.obj
 0003:00000f98       ?__type_info_root_node@@3U__type_info_node@@A 1002af98     LIBCMT:tncleanup.obj
 0003:00000fa0       ?_OptionsStorage@?1??__local_stdio_scanf_options@@9@4_KA 1002afa0     LIBCMT:default_local_stdio_options.obj
 0003:00000fa8       ?_AtlBaseModule@ATL@@3VCAtlBaseModule@1@A 1002afa8     atls:atlbase.obj
 0003:00000fe0       ?__AtlThunkPool@@3PAT_SLIST_HEADER@@A 1002afe0     atls:atlthunk.obj
 0003:00000ff8       ___@@_PchSym_@00@UztvmgUPdlipUFHUhUrmgvinvwrzgvUexgllohUzgohOmzgrevkilqPBACIAJCBDBUlyqiUcIGUhgwzucOlyq@4B2008FD98C1DD4 1002aff8     atls:stdafx.obj
 0003:00000ffc       ?__WinRTOutOfMemoryExceptionCallback@@3P6GPAXXZA 1002affc     libvcruntime:ehhelpers.obj
 0003:00001000       ___pPurecall               1002b000     libvcruntime:purevirt_data.obj
 0003:00001048       ?pArgList@UnDecorator@@0PAVReplicator@@A 1002b048     libvcruntime:undname.obj
 0003:0000104c       ?pZNameList@UnDecorator@@0PAVReplicator@@A 1002b04c     libvcruntime:undname.obj
 0003:00001050       ?pTemplateArgList@UnDecorator@@0PAVReplicator@@A 1002b050     libvcruntime:undname.obj
 0003:00001054       ?gName@UnDecorator@@0PBDB  1002b054     libvcruntime:undname.obj
 0003:00001058       ?name@UnDecorator@@0PBDB   1002b058     libvcruntime:undname.obj
 0003:0000105c       ?disableFlags@UnDecorator@@0KA 1002b05c     libvcruntime:undname.obj
 0003:00001060       ?fExplicitTemplateParams@UnDecorator@@0_NA 1002b060     libvcruntime:undname.obj
 0003:00001061       ?fGetTemplateArgumentList@UnDecorator@@0_NA 1002b061     libvcruntime:undname.obj
 0003:00001064       ?m_pGetParameter@UnDecorator@@0P6APADJ@ZA 1002b064     libvcruntime:undname.obj
 0003:00001068       ?m_CHPENameOffset@UnDecorator@@0KA 1002b068     libvcruntime:undname.obj
 0003:0000106c       ?m_recursionLevel@UnDecorator@@0KA 1002b06c     libvcruntime:undname.obj
 0003:000010b0       ?c_exit_complete@?1???R<lambda_6e4b09c48022b2350581041d5f6b0c4c>@@QBE@XZ@4_NA 1002b0b0     libucrt:exit.obj
 0003:000011c0       __environ_table            1002b1c0     libucrt:environment_initialization.obj
 0003:000011c4       __wenviron_table           1002b1c4     libucrt:environment_initialization.obj
 0003:000011c8       ___dcrt_initial_wide_environment 1002b1c8     libucrt:environment_initialization.obj
 0003:000011cc       ___dcrt_initial_narrow_environment 1002b1cc     libucrt:environment_initialization.obj
 0003:000011d0       ___acrt_atexit_table       1002b1d0     libucrt:onexit.obj
 0003:000011dc       ___acrt_at_quick_exit_table 1002b1dc     libucrt:onexit.obj
 0003:000012d0       __nstream                  1002b2d0     libucrt:_file.obj
 0003:000012d4       ___piob                    1002b2d4     libucrt:_file.obj
 0003:000012dc       ___acrt_stdout_buffer      1002b2dc     libucrt:_sftbuf.obj
 0003:000012e0       ___acrt_stderr_buffer      1002b2e0     libucrt:_sftbuf.obj
 0003:000012e4       ___acrt_locale_changed_data 1002b2e4     libucrt:wsetlocale.obj
 0003:000012e8       ___acrt_current_locale_data 1002b2e8     libucrt:nlsdata.obj
 0003:000012f0       ___pioinfo                 1002b2f0     libucrt:ioinit.obj
 0003:000014f0       __nhandle                  1002b4f0     libucrt:ioinit.obj
 0003:0000164c       __mbctype                  1002b64c     libucrt:mbctype.obj
 0003:00001650       __mbcasemap                1002b650     libucrt:mbctype.obj
 0003:00001654       ___acrt_current_multibyte_data 1002b654     libucrt:mbctype.obj
 0003:00001660       __pgmptr                   1002b660     libucrt:argv_data.obj
 0003:00001664       ___argc                    1002b664     libucrt:argv_data.obj
 0003:00001668       ___argv                    1002b668     libucrt:argv_data.obj
 0003:0000166c       ___wargv                   1002b66c     libucrt:argv_data.obj
 0003:00001670       __acmdln                   1002b670     libucrt:argv_data.obj
 0003:00001674       __wcmdln                   1002b674     libucrt:argv_data.obj
 0003:00001678       ___acrt_heap               1002b678     libucrt:heap_handle.obj
 0003:00001694       ___acrt_lconv_static_null  1002b694     libucrt:localeconv.obj
 0003:00001698       ___acrt_lconv_static_W_null 1002b698     libucrt:localeconv.obj
 0003:000016a8       ___fastflag                1002b6a8     libucrt:fp_flags.obj
 0003:000016b0       ___dyn_tls_init_callback   1002b6b0     <common>
 0003:000016b4       ___scrt_ucrt_dll_is_in_use 1002b6b4     <common>
 0003:000016b8       __pmatherr                 1002b6b8     <common>
 0003:000016bc       ___use_sse2_mathfcns       1002b6bc     <common>

 entry point at        0001:0000be5d

 Static symbols

 0000:fffcd000       .debug$S                   10000000     OPOSBillAcceptor.exp
 0000:fffcd000       .debug$S                   10000000     advapi32:ADVAPI32.dll
 0000:fffcd000       .debug$S                   10000000     advapi32:ADVAPI32.dll
 0000:fffcd000       .debug$S                   10000000     advapi32:ADVAPI32.dll
 0000:fffcd000       .debug$S                   10000000     advapi32:ADVAPI32.dll
 0000:fffcd000       .debug$S                   10000000     advapi32:ADVAPI32.dll
 0000:fffcd000       .debug$S                   10000000     advapi32:ADVAPI32.dll
 0000:fffcd000       .debug$S                   10000000     advapi32:ADVAPI32.dll
 0000:fffcd000       .debug$S                   10000000     advapi32:ADVAPI32.dll
 0000:fffcd000       .debug$S                   10000000     advapi32:ADVAPI32.dll
 0000:fffcd000       .debug$S                   10000000     gdi32:GDI32.dll
 0000:fffcd000       .debug$S                   10000000     gdi32:GDI32.dll
 0000:fffcd000       .debug$S                   10000000     gdi32:GDI32.dll
 0000:fffcd000       .debug$S                   10000000     gdi32:GDI32.dll
 0000:fffcd000       .debug$S                   10000000     gdi32:GDI32.dll
 0000:fffcd000       .debug$S                   10000000     gdi32:GDI32.dll
 0000:fffcd000       .debug$S                   10000000     gdi32:GDI32.dll
 0000:fffcd000       .debug$S                   10000000     gdi32:GDI32.dll
 0000:fffcd000       .debug$S                   10000000     gdi32:GDI32.dll
 0000:fffcd000       .debug$S                   10000000     gdi32:GDI32.dll
 0000:fffcd000       .debug$S                   10000000     gdi32:GDI32.dll
 0000:fffcd000       .debug$S                   10000000     gdi32:GDI32.dll
 0000:fffcd000       .debug$S                   10000000     gdi32:GDI32.dll
 0000:fffcd000       .debug$S                   10000000     gdi32:GDI32.dll
 0000:fffcd000       .debug$S                   10000000     gdi32:GDI32.dll
 0000:fffcd000       .debug$S                   10000000     gdi32:GDI32.dll
 0000:fffcd000       .debug$S                   10000000     gdi32:GDI32.dll
 0000:fffcd000       .debug$S                   10000000     gdi32:GDI32.dll
 0000:fffcd000       .debug$S                   10000000     gdi32:GDI32.dll
 0000:fffcd000       .debug$S                   10000000     kernel32:KERNEL32.dll
 0000:fffcd000       .debug$S                   10000000     kernel32:KERNEL32.dll
 0000:fffcd000       .debug$S                   10000000     kernel32:KERNEL32.dll
 0000:fffcd000       .debug$S                   10000000     kernel32:KERNEL32.dll
 0000:fffcd000       .debug$S                   10000000     kernel32:KERNEL32.dll
 0000:fffcd000       .debug$S                   10000000     kernel32:KERNEL32.dll
 0000:fffcd000       .debug$S                   10000000     kernel32:KERNEL32.dll
 0000:fffcd000       .debug$S                   10000000     kernel32:KERNEL32.dll
 0000:fffcd000       .debug$S                   10000000     kernel32:KERNEL32.dll
 0000:fffcd000       .debug$S                   10000000     kernel32:KERNEL32.dll
 0000:fffcd000       .debug$S                   10000000     kernel32:KERNEL32.dll
 0000:fffcd000       .debug$S                   10000000     kernel32:KERNEL32.dll
 0000:fffcd000       .debug$S                   10000000     kernel32:KERNEL32.dll
 0000:fffcd000       .debug$S                   10000000     kernel32:KERNEL32.dll
 0000:fffcd000       .debug$S                   10000000     kernel32:KERNEL32.dll
 0000:fffcd000       .debug$S                   10000000     kernel32:KERNEL32.dll
 0000:fffcd000       .debug$S                   10000000     kernel32:KERNEL32.dll
 0000:fffcd000       .debug$S                   10000000     kernel32:KERNEL32.dll
 0000:fffcd000       .debug$S                   10000000     kernel32:KERNEL32.dll
 0000:fffcd000       .debug$S                   10000000     kernel32:KERNEL32.dll
 0000:fffcd000       .debug$S                   10000000     kernel32:KERNEL32.dll
 0000:fffcd000       .debug$S                   10000000     kernel32:KERNEL32.dll
 0000:fffcd000       .debug$S                   10000000     kernel32:KERNEL32.dll
 0000:fffcd000       .debug$S                   10000000     kernel32:KERNEL32.dll
 0000:fffcd000       .debug$S                   10000000     kernel32:KERNEL32.dll
 0000:fffcd000       .debug$S                   10000000     kernel32:KERNEL32.dll
 0000:fffcd000       .debug$S                   10000000     kernel32:KERNEL32.dll
 0000:fffcd000       .debug$S                   10000000     kernel32:KERNEL32.dll
 0000:fffcd000       .debug$S                   10000000     kernel32:KERNEL32.dll
 0000:fffcd000       .debug$S                   10000000     kernel32:KERNEL32.dll
 0000:fffcd000       .debug$S                   10000000     kernel32:KERNEL32.dll
 0000:fffcd000       .debug$S                   10000000     kernel32:KERNEL32.dll
 0000:fffcd000       .debug$S                   10000000     kernel32:KERNEL32.dll
 0000:fffcd000       .debug$S                   10000000     kernel32:KERNEL32.dll
 0000:fffcd000       .debug$S                   10000000     kernel32:KERNEL32.dll
 0000:fffcd000       .debug$S                   10000000     kernel32:KERNEL32.dll
 0000:fffcd000       .debug$S                   10000000     kernel32:KERNEL32.dll
 0000:fffcd000       .debug$S                   10000000     kernel32:KERNEL32.dll
 0000:fffcd000       .debug$S                   10000000     kernel32:KERNEL32.dll
 0000:fffcd000       .debug$S                   10000000     kernel32:KERNEL32.dll
 0000:fffcd000       .debug$S                   10000000     kernel32:KERNEL32.dll
 0000:fffcd000       .debug$S                   10000000     kernel32:KERNEL32.dll
 0000:fffcd000       .debug$S                   10000000     kernel32:KERNEL32.dll
 0000:fffcd000       .debug$S                   10000000     kernel32:KERNEL32.dll
 0000:fffcd000       .debug$S                   10000000     kernel32:KERNEL32.dll
 0000:fffcd000       .debug$S                   10000000     kernel32:KERNEL32.dll
 0000:fffcd000       .debug$S                   10000000     kernel32:KERNEL32.dll
 0000:fffcd000       .debug$S                   10000000     kernel32:KERNEL32.dll
 0000:fffcd000       .debug$S                   10000000     kernel32:KERNEL32.dll
 0000:fffcd000       .debug$S                   10000000     kernel32:KERNEL32.dll
 0000:fffcd000       .debug$S                   10000000     kernel32:KERNEL32.dll
 0000:fffcd000       .debug$S                   10000000     kernel32:KERNEL32.dll
 0000:fffcd000       .debug$S                   10000000     kernel32:KERNEL32.dll
 0000:fffcd000       .debug$S                   10000000     kernel32:KERNEL32.dll
 0000:fffcd000       .debug$S                   10000000     kernel32:KERNEL32.dll
 0000:fffcd000       .debug$S                   10000000     kernel32:KERNEL32.dll
 0000:fffcd000       .debug$S                   10000000     kernel32:KERNEL32.dll
 0000:fffcd000       .debug$S                   10000000     kernel32:KERNEL32.dll
 0000:fffcd000       .debug$S                   10000000     kernel32:KERNEL32.dll
 0000:fffcd000       .debug$S                   10000000     kernel32:KERNEL32.dll
 0000:fffcd000       .debug$S                   10000000     kernel32:KERNEL32.dll
 0000:fffcd000       .debug$S                   10000000     kernel32:KERNEL32.dll
 0000:fffcd000       .debug$S                   10000000     kernel32:KERNEL32.dll
 0000:fffcd000       .debug$S                   10000000     kernel32:KERNEL32.dll
 0000:fffcd000       .debug$S                   10000000     kernel32:KERNEL32.dll
 0000:fffcd000       .debug$S                   10000000     kernel32:KERNEL32.dll
 0000:fffcd000       .debug$S                   10000000     kernel32:KERNEL32.dll
 0000:fffcd000       .debug$S                   10000000     kernel32:KERNEL32.dll
 0000:fffcd000       .debug$S                   10000000     kernel32:KERNEL32.dll
 0000:fffcd000       .debug$S                   10000000     kernel32:KERNEL32.dll
 0000:fffcd000       .debug$S                   10000000     kernel32:KERNEL32.dll
 0000:fffcd000       .debug$S                   10000000     kernel32:KERNEL32.dll
 0000:fffcd000       .debug$S                   10000000     kernel32:KERNEL32.dll
 0000:fffcd000       .debug$S                   10000000     kernel32:KERNEL32.dll
 0000:fffcd000       .debug$S                   10000000     kernel32:KERNEL32.dll
 0000:fffcd000       .debug$S                   10000000     kernel32:KERNEL32.dll
 0000:fffcd000       .debug$S                   10000000     kernel32:KERNEL32.dll
 0000:fffcd000       .debug$S                   10000000     kernel32:KERNEL32.dll
 0000:fffcd000       .debug$S                   10000000     kernel32:KERNEL32.dll
 0000:fffcd000       .debug$S                   10000000     kernel32:KERNEL32.dll
 0000:fffcd000       .debug$S                   10000000     kernel32:KERNEL32.dll
 0000:fffcd000       .debug$S                   10000000     kernel32:KERNEL32.dll
 0000:fffcd000       .debug$S                   10000000     kernel32:KERNEL32.dll
 0000:fffcd000       .debug$S                   10000000     kernel32:KERNEL32.dll
 0000:fffcd000       .debug$S                   10000000     kernel32:KERNEL32.dll
 0000:fffcd000       .debug$S                   10000000     kernel32:KERNEL32.dll
 0000:fffcd000       .debug$S                   10000000     kernel32:KERNEL32.dll
 0000:fffcd000       .debug$S                   10000000     kernel32:KERNEL32.dll
 0000:fffcd000       .debug$S                   10000000     kernel32:KERNEL32.dll
 0000:fffcd000       .debug$S                   10000000     kernel32:KERNEL32.dll
 0000:fffcd000       .debug$S                   10000000     kernel32:KERNEL32.dll
 0000:fffcd000       .debug$S                   10000000     kernel32:KERNEL32.dll
 0000:fffcd000       .debug$S                   10000000     kernel32:KERNEL32.dll
 0000:fffcd000       .debug$S                   10000000     kernel32:KERNEL32.dll
 0000:fffcd000       .debug$S                   10000000     kernel32:KERNEL32.dll
 0000:fffcd000       .debug$S                   10000000     kernel32:KERNEL32.dll
 0000:fffcd000       .debug$S                   10000000     kernel32:KERNEL32.dll
 0000:fffcd000       .debug$S                   10000000     kernel32:KERNEL32.dll
 0000:fffcd000       .debug$S                   10000000     kernel32:KERNEL32.dll
 0000:fffcd000       .debug$S                   10000000     kernel32:KERNEL32.dll
 0000:fffcd000       .debug$S                   10000000     kernel32:KERNEL32.dll
 0000:fffcd000       .debug$S                   10000000     kernel32:KERNEL32.dll
 0000:fffcd000       .debug$S                   10000000     kernel32:KERNEL32.dll
 0000:fffcd000       .debug$S                   10000000     kernel32:KERNEL32.dll
 0000:fffcd000       .debug$S                   10000000     kernel32:KERNEL32.dll
 0000:fffcd000       .debug$S                   10000000     kernel32:KERNEL32.dll
 0000:fffcd000       .debug$S                   10000000     ole32:ole32.dll
 0000:fffcd000       .debug$S                   10000000     ole32:ole32.dll
 0000:fffcd000       .debug$S                   10000000     ole32:ole32.dll
 0000:fffcd000       .debug$S                   10000000     ole32:ole32.dll
 0000:fffcd000       .debug$S                   10000000     ole32:ole32.dll
 0000:fffcd000       .debug$S                   10000000     ole32:ole32.dll
 0000:fffcd000       .debug$S                   10000000     ole32:ole32.dll
 0000:fffcd000       .debug$S                   10000000     ole32:ole32.dll
 0000:fffcd000       .debug$S                   10000000     ole32:ole32.dll
 0000:fffcd000       .debug$S                   10000000     ole32:ole32.dll
 0000:fffcd000       .debug$S                   10000000     ole32:ole32.dll
 0000:fffcd000       .debug$S                   10000000     ole32:ole32.dll
 0000:fffcd000       .debug$S                   10000000     ole32:ole32.dll
 0000:fffcd000       .debug$S                   10000000     ole32:ole32.dll
 0000:fffcd000       .debug$S                   10000000     oleaut32:OLEAUT32.dll
 0000:fffcd000       .debug$S                   10000000     oleaut32:OLEAUT32.dll
 0000:fffcd000       .debug$S                   10000000     oleaut32:OLEAUT32.dll
 0000:fffcd000       .debug$S                   10000000     oleaut32:OLEAUT32.dll
 0000:fffcd000       .debug$S                   10000000     oleaut32:OLEAUT32.dll
 0000:fffcd000       .debug$S                   10000000     oleaut32:OLEAUT32.dll
 0000:fffcd000       .debug$S                   10000000     oleaut32:OLEAUT32.dll
 0000:fffcd000       .debug$S                   10000000     oleaut32:OLEAUT32.dll
 0000:fffcd000       .debug$S                   10000000     oleaut32:OLEAUT32.dll
 0000:fffcd000       .debug$S                   10000000     oleaut32:OLEAUT32.dll
 0000:fffcd000       .debug$S                   10000000     oleaut32:OLEAUT32.dll
 0000:fffcd000       .debug$S                   10000000     oleaut32:OLEAUT32.dll
 0000:fffcd000       .debug$S                   10000000     oleaut32:OLEAUT32.dll
 0000:fffcd000       .debug$S                   10000000     oleaut32:OLEAUT32.dll
 0000:fffcd000       .debug$S                   10000000     oleaut32:OLEAUT32.dll
 0000:fffcd000       .debug$S                   10000000     oleaut32:OLEAUT32.dll
 0000:fffcd000       .debug$S                   10000000     user32:USER32.dll
 0000:fffcd000       .debug$S                   10000000     user32:USER32.dll
 0000:fffcd000       .debug$S                   10000000     user32:USER32.dll
 0000:fffcd000       .debug$S                   10000000     user32:USER32.dll
 0000:fffcd000       .debug$S                   10000000     user32:USER32.dll
 0000:fffcd000       .debug$S                   10000000     user32:USER32.dll
 0000:fffcd000       .debug$S                   10000000     user32:USER32.dll
 0000:fffcd000       .debug$S                   10000000     user32:USER32.dll
 0000:fffcd000       .debug$S                   10000000     user32:USER32.dll
 0000:fffcd000       .debug$S                   10000000     user32:USER32.dll
 0000:fffcd000       .debug$S                   10000000     user32:USER32.dll
 0000:fffcd000       .debug$S                   10000000     user32:USER32.dll
 0000:fffcd000       .debug$S                   10000000     user32:USER32.dll
 0000:fffcd000       .debug$S                   10000000     user32:USER32.dll
 0000:fffcd000       .debug$S                   10000000     user32:USER32.dll
 0000:fffcd000       .debug$S                   10000000     user32:USER32.dll
 0000:fffcd000       .debug$S                   10000000     user32:USER32.dll
 0000:fffcd000       .debug$S                   10000000     user32:USER32.dll
 0000:fffcd000       .debug$S                   10000000     user32:USER32.dll
 0000:fffcd000       .debug$S                   10000000     user32:USER32.dll
 0000:fffcd000       .debug$S                   10000000     user32:USER32.dll
 0000:fffcd000       .debug$S                   10000000     user32:USER32.dll
 0000:fffcd000       .debug$S                   10000000     user32:USER32.dll
 0000:fffcd000       .debug$S                   10000000     user32:USER32.dll
 0000:fffcd000       .debug$S                   10000000     user32:USER32.dll
 0000:fffcd000       .debug$S                   10000000     user32:USER32.dll
 0000:fffcd000       .debug$S                   10000000     user32:USER32.dll
 0000:fffcd000       .debug$S                   10000000     user32:USER32.dll
 0000:fffcd000       .debug$S                   10000000     user32:USER32.dll
 0000:fffcd000       .debug$S                   10000000     user32:USER32.dll
 0000:fffcd000       .debug$S                   10000000     user32:USER32.dll
 0000:fffcd000       .debug$S                   10000000     user32:USER32.dll
 0000:fffcd000       .debug$S                   10000000     user32:USER32.dll
 0000:fffcd000       .debug$S                   10000000     user32:USER32.dll
 0000:fffcd000       .debug$S                   10000000     user32:USER32.dll
 0001:00000000       ??__E_AtlComModule@ATL@@YAXXZ 10001000 f   OposVariant.obj
 0001:00000016       ??__E_AtlWinModule@ATL@@YAXXZ 10001016 f   OposVariant.obj
 0001:0000002c       ??__E?pConnMap@?$IConnectionPointContainerImpl@VCOPOSBillAcceptor@@@ATL@@0PBU_ATL_CONNMAP_ENTRY@2@B@@YAXXZ 1000102c f   BillAcceptor.obj
 0001:0000003a       ??__E_Module@@YAXXZ        1000103a f   BillAcceptor.obj
 0001:00000064       ??__E_AtlBaseModule@ATL@@YAXXZ 10001064 f   atls:atlbase.obj
 0001:00000f9a       $LN24                      10001f9a     BillAcceptor.obj
 0001:000057bb       $LN48                      100067bb     BillAcceptor.obj
 0001:000057d3       $LN47                      100067d3     BillAcceptor.obj
 0001:0000797e       $LN38                      1000897e     BillAcceptor.obj
 0001:00007996       $LN37                      10008996     BillAcceptor.obj
 0001:00009086       $LN76                      1000a086     BillAcceptor.obj
 0001:0000909e       $LN75                      1000a09e     BillAcceptor.obj
 0001:00009457       _memcpy_s                  1000a457 f   BillAcceptor.obj
 0001:0000b2ec       ?find_pe_section@@YAPAU_IMAGE_SECTION_HEADER@@QAEI@Z 1000c2ec f   LIBCMT:utility.obj
 0001:0000b60b       ?__scrt_initialize_thread_safe_statics@@YAHXZ 1000c60b f   LIBCMT:thread_safe_statics.obj
 0001:0000b632       ?__scrt_initialize_thread_safe_statics_platform_specific@@YAXXZ 1000c632 f   LIBCMT:thread_safe_statics.obj
 0001:0000b6b4       ?__scrt_uninitialize_thread_safe_statics@@YAXXZ 1000c6b4 f   LIBCMT:thread_safe_statics.obj
 0001:0000ba23       __catch$??2@YAPAXIABUnothrow_t@std@@@Z$0 1000ca23 f   LIBCMT:new_scalar_nothrow.obj
 0001:0000ba60       $$000000                   1000ca60     LIBCMT:sehprolg4gs.obj
 0001:0000bac0       $$000000                   1000cac0     LIBCMT:alloca16.obj
 0001:0000baf0       $$000000                   1000caf0     LIBCMT:chkstk.obj
 0001:0000bb1d       ?dllmain_crt_dispatch@@YGHQAUHINSTANCE__@@KQAX@Z 1000cb1d f   LIBCMT:dll_dllmain.obj
 0001:0000bb70       ?dllmain_crt_process_attach@@YAHQAUHINSTANCE__@@QAX@Z 1000cb70 f   LIBCMT:dll_dllmain.obj
 0001:0000bc77       ?dllmain_crt_process_detach@@YAH_N@Z 1000cc77 f   LIBCMT:dll_dllmain.obj
 0001:0000bd27       ?dllmain_dispatch@@YAHQAUHINSTANCE__@@KQAX@Z 1000cd27 f   LIBCMT:dll_dllmain.obj
 0001:0000be32       ?dllmain_raw@@YGHQAUHINSTANCE__@@KQAX@Z 1000ce32 f   LIBCMT:dll_dllmain.obj
 0001:0000c1b0       $$000000                   1000d1b0     LIBCMT:sehprolg4.obj
 0001:0000c20b       ___get_entropy             1000d20b f   LIBCMT:gs_support.obj
 0001:0000c502       ??$GetProcAddressAll@P6GP6GJPAUHWND__@@IIJ@ZPAUAtlThunkData_t@@@Z@@YAP6GP6GJPAUHWND__@@IIJ@ZPAUAtlThunkData_t@@@ZPAP6GP6GJ0IIJ@Z1@Z@Z 1000d502 f   atls:atlthunk.obj
 0001:0000c502       ??$GetProcAddressAll@P6GPAUAtlThunkData_t@@XZ@@YAP6GPAUAtlThunkData_t@@XZPAP6GPAU0@XZ@Z 1000d502 f   atls:atlthunk.obj
 0001:0000c502       ??$GetProcAddressAll@P6GXPAUAtlThunkData_t@@@Z@@YAP6GXPAUAtlThunkData_t@@@ZPAP6GX0@Z@Z 1000d502 f   atls:atlthunk.obj
 0001:0000c502       ??$GetProcAddressAll@P6GXPAUAtlThunkData_t@@PAXI@Z@@YAP6GXPAUAtlThunkData_t@@PAXI@ZPAP6GX01I@Z@Z 1000d502 f   atls:atlthunk.obj
 0001:0000c5b2       ?GetProcAddressSingle@@YA_NPAUHINSTANCE__@@PBDPAPAX@Z 1000d5b2 f   atls:atlthunk.obj
 0001:0000c704       ?__InitializeThunkPool@@YAHXZ 1000d704 f   atls:atlthunk.obj
 0001:0000cb50       _ValidateLocalCookies      1000db50 f   libvcruntime:chandler4.obj
 0001:0000db7a       $LN1250                    1000eb7a     libvcruntime:memcmp.obj
 0001:0000dc00       $$000000                   1000ec00     libvcruntime:memcpy.obj
 0001:0000de64       TrailingUpVec              1000ee64     libvcruntime:memcpy.obj
 0001:0000df10       TrailingDownVec            1000ef10     libvcruntime:memcpy.obj
 0001:0000e180       $$000000                   1000f180     libvcruntime:memset.obj
 0001:0000e783       ?_FilterSetCurrentException@@YAKPAU_EXCEPTION_POINTERS@@E@Z 1000f783 f   libvcruntime:ehhelpers.obj
 0001:0000e9d0       $$000000                   1000f9d0     libvcruntime:memmove.obj
 0001:0000ec34       TrailingUpVec              1000fc34     libvcruntime:memmove.obj
 0001:0000ece0       TrailingDownVec            1000fce0     libvcruntime:memmove.obj
 0001:0000ef50       $$000000                   1000ff50     libvcruntime:exsup4.obj
 0001:0000efdd       __unwind_handler4          1000ffdd f   libvcruntime:exsup4.obj
 0001:0000f2bb       ??$BuildCatchObjectHelperInternal@V__FrameHandler3@@@@YAHPAUEHExceptionRecord@@PAXPBU_s_HandlerType@@PBU_s_CatchableType@@@Z 100102bb f   libvcruntime:frame.obj
 0001:0000f3f9       ??$BuildCatchObjectInternal@V__FrameHandler3@@@@YAXPAUEHExceptionRecord@@PAXPBU_s_HandlerType@@PBU_s_CatchableType@@@Z 100103f9 f   libvcruntime:frame.obj
 0001:0000f492       ??$CatchIt@V__FrameHandler3@@@@YAXPAUEHExceptionRecord@@PAUEHRegistrationNode@@PAU_CONTEXT@@PAXPBU_s_FuncInfo@@PBU_s_HandlerType@@PBU_s_CatchableType@@PBU_s_TryBlockMapEntry@@H1EE@Z 10010492 f   libvcruntime:frame.obj
 0001:0000f512       ??$FindHandler@V__FrameHandler3@@@@YAXPAUEHExceptionRecord@@PAUEHRegistrationNode@@PAU_CONTEXT@@PAXPBU_s_FuncInfo@@EH1@Z 10010512 f   libvcruntime:frame.obj
 0001:0000f8c8       ??$FindHandlerForForeignException@V__FrameHandler3@@@@YAXPAUEHExceptionRecord@@PAUEHRegistrationNode@@PAU_CONTEXT@@PAXPBU_s_FuncInfo@@HH1@Z 100108c8 f   libvcruntime:frame.obj
 0001:0000fbe0       ?CallCatchBlock@@YAPAXPAUEHExceptionRecord@@PAUEHRegistrationNode@@PAU_CONTEXT@@PBU_s_FuncInfo@@PAXHK@Z 10010be0 f   libvcruntime:frame.obj
 0001:0000fda4       ?CallUnexpected@@YAXPBU_s_ESTypeList@@@Z 10010da4 f   libvcruntime:frame.obj
 0001:0000fdc4       __catch$?CallUnexpected@@YAXPBU_s_ESTypeList@@@Z$0 10010dc4 f   libvcruntime:frame.obj
 0001:0000fde3       ?ExFilterRethrow@@YAHPAU_EXCEPTION_POINTERS@@@Z 10010de3 f   libvcruntime:frame.obj
 0001:0000ff2d       ?IsInExceptionSpec@@YAEPAUEHExceptionRecord@@PBU_s_ESTypeList@@@Z 10010f2d f   libvcruntime:frame.obj
 0001:00010000       $$000000                   10011000     libvcruntime:lowhelpr.obj
 0001:00010050       $$000000                   10011050     libvcruntime:exsup.obj
 0001:00010071       __unwind_handler           10011071 f   libvcruntime:exsup.obj
 0001:0001018e       ?try_get_first_available_module@@YAPAUHINSTANCE__@@QBW4module_id@?A0xb97aeec8@@0@Z 1001118e f   libvcruntime:winapi_downlevel.obj
 0001:00010228       ?try_get_function@@YAPAXW4function_id@?A0xb97aeec8@@QBDQBW4module_id@2@2@Z 10011228 f   libvcruntime:winapi_downlevel.obj
 0001:000108b2       ??$common_tcsncpy_s@_W@@YAHQA_WIQB_WI@Z 100118b2 f   libucrt:wcsncpy_s.obj
 0001:00010988       ??$common_vsprintf@Vformat_validation_base@__crt_stdio_output@@_W@@YAH_KQA_WIQB_WQAU__crt_locale_pointers@@QAD@Z 10011988 f   libucrt:output.obj
 0001:00010b0f       ??$common_vsprintf_s@_W@@YAH_KQA_WIQB_WQAU__crt_locale_pointers@@QAD@Z 10011b0f f   libucrt:output.obj
 0001:00011273       $LN48                      10012273     libucrt:output.obj
 0001:0001177c       $LN18                      1001277c     libucrt:output.obj
 0001:00011790       $LN17                      10012790     libucrt:output.obj
 0001:00011feb       ??$?RV<lambda_03b1d95aef87969028cfba75ccab2455>@@AAV<lambda_6e4b09c48022b2350581041d5f6b0c4c>@@V<lambda_22bdf7517842c4b3e53723af5aa32b9e>@@@?$__crt_seh_guarded_call@X@@QAEX$$QAV<lambda_03b1d95aef87969028cfba75ccab2455>@@AAV<lambda_6e4b09c48022b2350581041d5f6b0c4c>@@$$QAV<lambda_22bdf7517842c4b3e53723af5aa32b9e>@@@Z 10012feb f   libucrt:exit.obj
 0001:00012038       ??R<lambda_6e4b09c48022b2350581041d5f6b0c4c>@@QBE@XZ 10013038 f   libucrt:exit.obj
 0001:00012112       ?atexit_exception_filter@@YAHK@Z 10013112 f   libucrt:exit.obj
 0001:00012125       ?common_exit@@YAXHW4_crt_exit_cleanup_mode@@W4_crt_exit_return_mode@@@Z 10013125 f   libucrt:exit.obj
 0001:00012189       ?exit_or_terminate_process@@YAXI@Z 10013189 f   libucrt:exit.obj
 0001:000121cb       ?is_managed_app@@YA_NXZ    100131cb f   libucrt:exit.obj
 0001:0001220e       ?try_cor_exit_process@@YAXI@Z 1001320e f   libucrt:exit.obj
 0001:0001229c       ??$common_configure_argv@D@@YAHW4_crt_argv_mode@@@Z 1001329c f   libucrt:argv_parsing.obj
 0001:000123d2       ??$parse_command_line@D@@YAXPADPAPAD0PAI2@Z 100133d2 f   libucrt:argv_parsing.obj
 0001:000125a0       ??$common_initialize_environment_nolock@D@@YAHXZ 100135a0 f   libucrt:environment_initialization.obj
 0001:000125f3       ??$create_environment@D@@YAQAPADQAD@Z 100135f3 f   libucrt:environment_initialization.obj
 0001:000126c3       ??$free_environment@D@@YAXQAPAD@Z 100136c3 f   libucrt:environment_initialization.obj
 0001:000126c3       ??$free_environment@_W@@YAXQAPA_W@Z 100136c3 f   libucrt:environment_initialization.obj
 0001:0001271b       ??$uninitialize_environment_internal@D@@YAXAAPAPAD@Z 1001371b f   libucrt:environment_initialization.obj
 0001:00012736       ??$uninitialize_environment_internal@_W@@YAXAAPAPA_W@Z 10013736 f   libucrt:environment_initialization.obj
 0001:0001278d       ??$?RV<lambda_69a2805e680e0e292e8ba93315fe43a8>@@AAV<lambda_f03950bc5685219e0bcd2087efbe011e>@@V<lambda_03fcd07e894ec930e3f35da366ca99d6>@@@?$__crt_seh_guarded_call@H@@QAEH$$QAV<lambda_69a2805e680e0e292e8ba93315fe43a8>@@AAV<lambda_f03950bc5685219e0bcd2087efbe011e>@@$$QAV<lambda_03fcd07e894ec930e3f35da366ca99d6>@@@Z 1001378d f   libucrt:onexit.obj
 0001:000127e8       ??$?RV<lambda_8e746cf0007f6ed984d6f78af1fec997>@@AAV<lambda_22ebabd17bc4fa466a2aca6d8deb888d>@@V<lambda_18ed0c0b38a6dc0daf1e7ac6d6adf05e>@@@?$__crt_seh_guarded_call@H@@QAEH$$QAV<lambda_8e746cf0007f6ed984d6f78af1fec997>@@AAV<lambda_22ebabd17bc4fa466a2aca6d8deb888d>@@$$QAV<lambda_18ed0c0b38a6dc0daf1e7ac6d6adf05e>@@@Z 100137e8 f   libucrt:onexit.obj
 0001:00012862       ??R<lambda_22ebabd17bc4fa466a2aca6d8deb888d>@@QBEHXZ 10013862 f   libucrt:onexit.obj
 0001:0001298b       ??R<lambda_f03950bc5685219e0bcd2087efbe011e>@@QBEHXZ 1001398b f   libucrt:onexit.obj
 0001:00012b04       _initialize_global_variables 10013b04 f   libucrt:initialization.obj
 0001:00012b11       _initialize_c              10013b11 f   libucrt:initialization.obj
 0001:00012b2b       _initialize_environment    10013b2b f   libucrt:initialization.obj
 0001:00012b2b       _initialize_global_state_isolation 10013b2b f   libucrt:initialization.obj
 0001:00012b2b       _report_memory_leaks       10013b2b f   libucrt:initialization.obj
 0001:00012b2b       _uninitialize_c            10013b2b f   libucrt:initialization.obj
 0001:00012b2b       _uninitialize_global_state_isolation 10013b2b f   libucrt:initialization.obj
 0001:00012b2e       _uninitialize_environment  10013b2e f   libucrt:initialization.obj
 0001:00012b36       _initialize_pointers       10013b36 f   libucrt:initialization.obj
 0001:00012b64       _uninitialize_vcruntime    10013b64 f   libucrt:initialization.obj
 0001:00012b6d       _uninitialize_allocated_memory 10013b6d f   libucrt:initialization.obj
 0001:00012b84       _uninitialize_allocated_io_buffers 10013b84 f   libucrt:initialization.obj
 0001:00012bd4       ??R<lambda_af42a3ee9806e9a7305d451646e05244>@@QBEXAAPAU__crt_multibyte_data@@@Z 10013bd4 f   libucrt:initialization.obj
 0001:000134c0       $$000000                   100144c0     libucrt:strncmp.obj
 0001:000135ac       ??$?RV<lambda_15ade71b0218206bbe3333a0c9b79046>@@AAV<lambda_da44e0f8b0f19ba52fefafb335991732>@@V<lambda_207f2d024fc103971653565357d6cd41>@@@?$__crt_seh_guarded_call@X@@QAEX$$QAV<lambda_15ade71b0218206bbe3333a0c9b79046>@@AAV<lambda_da44e0f8b0f19ba52fefafb335991732>@@$$QAV<lambda_207f2d024fc103971653565357d6cd41>@@@Z 100145ac f   libucrt:per_thread_data.obj
 0001:000135fe       ??$?RV<lambda_38edbb1296d33220d7e4dd0ed76b244a>@@AAV<lambda_5ce1d447e08cb34b2473517608e21441>@@V<lambda_fb385d3da700c9147fc39e65dd577a8c>@@@?$__crt_seh_guarded_call@X@@QAEX$$QAV<lambda_38edbb1296d33220d7e4dd0ed76b244a>@@AAV<lambda_5ce1d447e08cb34b2473517608e21441>@@$$QAV<lambda_fb385d3da700c9147fc39e65dd577a8c>@@@Z 100145fe f   libucrt:per_thread_data.obj
 0001:00013669       ??$?RV<lambda_6affb1475c98b40b75cdec977db92e3c>@@AAV<lambda_b8d4b9c228a6ecc3f80208dbb4b4a104>@@V<lambda_608742c3c92a14382c1684fc64f96c88>@@@?$__crt_seh_guarded_call@X@@QAEX$$QAV<lambda_6affb1475c98b40b75cdec977db92e3c>@@AAV<lambda_b8d4b9c228a6ecc3f80208dbb4b4a104>@@$$QAV<lambda_608742c3c92a14382c1684fc64f96c88>@@@Z 10014669 f   libucrt:per_thread_data.obj
 0001:000136be       ??$?RV<lambda_a7e850c220f1c8d1e6efeecdedd162c6>@@AAV<lambda_46720907175c18b6c9d2717bc0d2d362>@@V<lambda_9048902d66e8d99359bc9897bbb930a8>@@@?$__crt_seh_guarded_call@X@@QAEX$$QAV<lambda_a7e850c220f1c8d1e6efeecdedd162c6>@@AAV<lambda_46720907175c18b6c9d2717bc0d2d362>@@$$QAV<lambda_9048902d66e8d99359bc9897bbb930a8>@@@Z 100146be f   libucrt:per_thread_data.obj
 0001:00013718       ?construct_ptd@@YAXQAU__acrt_ptd@@QAPAU__crt_locale_data@@@Z 10014718 f   libucrt:per_thread_data.obj
 0001:000137b1       ?destroy_fls@@YGXPAX@Z     100147b1 f   libucrt:per_thread_data.obj
 0001:000137d2       ?destroy_ptd@@YAXQAU__acrt_ptd@@@Z 100147d2 f   libucrt:per_thread_data.obj
 0001:0001389f       ?replace_current_thread_locale_nolock@@YAXQAU__acrt_ptd@@QAU__crt_locale_data@@@Z 1001489f f   libucrt:per_thread_data.obj
 0001:00013caf       ?try_get_AreFileApisANSI@@YAP6GHXZXZ 10014caf f   libucrt:winapi_thunks.obj
 0001:00013cc9       ?try_get_LCMapStringEx@@YAP6GHPB_WK0HPA_WHPAU_nlsversioninfo@@PAXJ@ZXZ 10014cc9 f   libucrt:winapi_thunks.obj
 0001:00013ce3       ?try_get_LocaleNameToLCID@@YAP6GKPB_WK@ZXZ 10014ce3 f   libucrt:winapi_thunks.obj
 0001:00013cfd       ?try_get_first_available_module@@YAPAUHINSTANCE__@@QBW4module_id@?A0x391cf84c@@0@Z 10014cfd f   libucrt:winapi_thunks.obj
 0001:00013dc4       ?try_get_function@@YAPAXW4function_id@?A0x391cf84c@@QBDQBW4module_id@2@2@Z 10014dc4 f   libucrt:winapi_thunks.obj
 0001:00014527       ?fe_to_nearest@@YA_NQBN_KF@Z 10015527 f   libucrt:cvt.obj
 0001:000145ca       ?fp_format_a@@YAHQBNPADIQADIH_NIQAU__crt_locale_pointers@@W4__acrt_rounding_mode@@@Z 100155ca f   libucrt:cvt.obj
 0001:000148d9       ?fp_format_e@@YAHQBNQADI1IH_NIQAU__crt_locale_pointers@@W4__acrt_rounding_mode@@@Z 100158d9 f   libucrt:cvt.obj
 0001:00014981       ?fp_format_e_internal@@YAHQADIH_NIQAU_strflt@@1QAU__crt_locale_pointers@@@Z 10015981 f   libucrt:cvt.obj
 0001:00014ac9       ?fp_format_f@@YAHQBNQADI1IHQAU__crt_locale_pointers@@W4__acrt_rounding_mode@@@Z 10015ac9 f   libucrt:cvt.obj
 0001:00014b5a       ?fp_format_f_internal@@YAHQADIHQAU_strflt@@_NQAU__crt_locale_pointers@@@Z 10015b5a f   libucrt:cvt.obj
 0001:00014c52       ?fp_format_g@@YAHQBNQADI1IH_NIQAU__crt_locale_pointers@@@Z 10015c52 f   libucrt:cvt.obj
 0001:00014d1b       ?fp_format_nan_or_infinity@@YAHW4__acrt_fp_class@@_NPADI1@Z 10015d1b f   libucrt:cvt.obj
 0001:00014db0       ?shift_bytes@@YAXQADI0H@Z  10015db0 f   libucrt:cvt.obj
 0001:00014de4       ?should_round_up@@YA_NQBN_KFW4__acrt_rounding_mode@@@Z 10015de4 f   libucrt:cvt.obj
 0001:0001514d       ??$?RV<lambda_e5124f882df8998aaf41531e079ba474>@@AAV<lambda_3e16ef9562a7dcce91392c22ab16ea36>@@V<lambda_e25ca0880e6ef98be67edffd8c599615>@@@?$__crt_seh_guarded_call@X@@QAEX$$QAV<lambda_e5124f882df8998aaf41531e079ba474>@@AAV<lambda_3e16ef9562a7dcce91392c22ab16ea36>@@$$QAV<lambda_e25ca0880e6ef98be67edffd8c599615>@@@Z 1001614d f   libucrt:wsetlocale.obj
 0001:000151ed       ?initialize_inherited_file_handles_nolock@@YAXXZ 100161ed f   libucrt:ioinit.obj
 0001:000152a3       ?initialize_stdio_handles_nolock@@YAXXZ 100162a3 f   libucrt:ioinit.obj
 0001:000154b4       ?<lambda_invoker_cdecl>@<lambda_838c7f62c73c983481e27c09e84b0b5d>@@CAHPBX0@Z 100164b4 f   libucrt:argv_wildcards.obj
 0001:000154cc       ??$__acrt_convert_wcs_mbs_cp@D_WV<lambda_62f6974d9771e494a5ea317cc32e971c>@@U__crt_win32_buffer_internal_dynamic_resizing@@@@YAHQBDAAV?$__crt_win32_buffer@_WU__crt_win32_buffer_internal_dynamic_resizing@@@@ABV<lambda_62f6974d9771e494a5ea317cc32e971c>@@I@Z 100164cc f   libucrt:argv_wildcards.obj
 0001:0001557e       ??$__acrt_convert_wcs_mbs_cp@_WDV<lambda_28bda7af82a03b66c1cb3803a755f95d>@@U__crt_win32_buffer_internal_dynamic_resizing@@@@YAHQB_WAAV?$__crt_win32_buffer@DU__crt_win32_buffer_internal_dynamic_resizing@@@@ABV<lambda_28bda7af82a03b66c1cb3803a755f95d>@@I@Z 1001657e f   libucrt:argv_wildcards.obj
 0001:0001566a       ??$common_expand_argv_wildcards@D@@YAHQAPADQAPAPAD@Z 1001666a f   libucrt:argv_wildcards.obj
 0001:00015859       ??$copy_and_add_argument_to_buffer@D@@YAHQBD0IAAV?$argument_list@D@?A0x5f5c8891@@@Z 10016859 f   libucrt:argv_wildcards.obj
 0001:0001590a       ??$expand_argument_wildcards@D@@YAHQAD0AAV?$argument_list@D@?A0x5f5c8891@@@Z 1001690a f   libucrt:argv_wildcards.obj
 0001:00015c54       ?expand_if_necessary@?$argument_list@D@?A0x5f5c8891@@AAEHXZ 10016c54 f   libucrt:argv_wildcards.obj
 0001:00015ce6       ??$__acrt_convert_wcs_mbs_cp@_WDV<lambda_0fec1a7b3f42a53036604e18c2d5e07e>@@U__crt_win32_buffer_no_resizing@@@@YAHQB_WAAV?$__crt_win32_buffer@DU__crt_win32_buffer_no_resizing@@@@ABV<lambda_0fec1a7b3f42a53036604e18c2d5e07e>@@I@Z 10016ce6 f   libucrt:getmodulefilenamea.obj
 0001:00015e89       ??$?RV<lambda_ceb1ee4838e85a9d631eb091e2fbe199>@@AAV<lambda_ae742caa10f662c28703da3d2ea5e57e>@@V<lambda_cd08b5d6af4937fe54fc07d0c9bf6b37>@@@?$__crt_seh_guarded_call@X@@QAEX$$QAV<lambda_ceb1ee4838e85a9d631eb091e2fbe199>@@AAV<lambda_ae742caa10f662c28703da3d2ea5e57e>@@$$QAV<lambda_cd08b5d6af4937fe54fc07d0c9bf6b37>@@@Z 10016e89 f   libucrt:mbctype.obj
 0001:00015ed6       ??R<lambda_ae742caa10f662c28703da3d2ea5e57e>@@QBEXXZ 10016ed6 f   libucrt:mbctype.obj
 0001:00015f59       ?CPtoLocaleName@@YAPB_WH@Z 10016f59 f   libucrt:mbctype.obj
 0001:00015f97       ?getSystemCP@@YAHH@Z       10016f97 f   libucrt:mbctype.obj
 0001:00016008       ?setSBCS@@YAXPAU__crt_multibyte_data@@@Z 10017008 f   libucrt:mbctype.obj
 0001:0001606d       ?setSBUpLow@@YAXPAU__crt_multibyte_data@@@Z 1001706d f   libucrt:mbctype.obj
 0001:000161ed       ?setmbcp_internal@@YAHH_NQAU__acrt_ptd@@QAPAU__crt_multibyte_data@@@Z 100171ed f   libucrt:mbctype.obj
 0001:00016301       ?update_thread_multibyte_data_internal@@YAPAU__crt_multibyte_data@@QAU__acrt_ptd@@QAPAU1@@Z 10017301 f   libucrt:mbctype.obj
 0001:000165ef       _memcpy_s                  100175ef f   libucrt:cfout.obj
 0001:000165ef       _memcpy_s                  100175ef f   libucrt:mbctype.obj
 0001:00016670       ?x_ismbbtype_l@@YAHPAU__crt_locale_pointers@@IHH@Z 10017670 f   libucrt:ismbbyte.obj
 0001:0001682b       ?find_end_of_double_null_terminated_sequence@@YAPB_WQB_W@Z 1001782b f   libucrt:get_environment_from_os.obj
 0001:0001699a       ??$?RV<lambda_cbab9ec6f41b0180b23cc171c22676b0>@@AAV<lambda_44731a7d0e6d81c3e6aa82d741081786>@@V<lambda_4b292cb8dd18144e164572427af410ab>@@@?$__crt_seh_guarded_call@P6AXH@Z@@QAEP6AXH@Z$$QAV<lambda_cbab9ec6f41b0180b23cc171c22676b0>@@AAV<lambda_44731a7d0e6d81c3e6aa82d741081786>@@$$QAV<lambda_4b292cb8dd18144e164572427af410ab>@@@Z 1001799a f   libucrt:signal.obj
 0001:000169fe       ?get_global_action_nolock@@YAPAP6AXH@ZH@Z 100179fe f   libucrt:signal.obj
 0001:00016a40       ?siglookup@@YAPAU__crt_signal_action_t@@HQAU1@@Z 10017a40 f   libucrt:signal.obj
 0001:00016cf9       ??$?RV<lambda_2866be3712abc81a800a822484c830d8>@@AAV<lambda_39ca0ed439415581b5b15c265174cece>@@V<lambda_2b24c74d71094a6cd0cb82e44167d71b>@@@?$__crt_seh_guarded_call@X@@QAEX$$QAV<lambda_2866be3712abc81a800a822484c830d8>@@AAV<lambda_39ca0ed439415581b5b15c265174cece>@@$$QAV<lambda_2b24c74d71094a6cd0cb82e44167d71b>@@@Z 10017cf9 f   libucrt:fflush.obj
 0001:00016d85       ??$?RV<lambda_2cc53f568c5a2bb6f192f930a45d44ea>@@AAV<lambda_ab61a845afdef5b7c387490eaf3616ee>@@V<lambda_c2ffc0b7726aa6be21d5f0026187e748>@@@?$__crt_seh_guarded_call@X@@QAEX$$QAV<lambda_2cc53f568c5a2bb6f192f930a45d44ea>@@AAV<lambda_ab61a845afdef5b7c387490eaf3616ee>@@$$QAV<lambda_c2ffc0b7726aa6be21d5f0026187e748>@@@Z 10017d85 f   libucrt:fflush.obj
 0001:00016e31       ?common_flush_all@@YAH_N@Z 10017e31 f   libucrt:fflush.obj
 0001:00016e7e       ?common_flush_all_should_try_to_flush_stream@@YA_NV__crt_stdio_stream@@QAH@Z 10017e7e f   libucrt:fflush.obj
 0001:00016eb1       ?is_stream_flushable_or_commitable@@YA_NJ@Z 10017eb1 f   libucrt:fflush.obj
 0001:000173ba       ?GetTableIndexFromLocaleName@@YAHPB_W@Z 100183ba f   libucrt:lcidtoname_downlevel.obj
 0001:00017470       ??R<lambda_3d301b9e52f5099be73030e1f0bf487e>@@QBEIPBD@Z 10018470 f   libucrt:mbrtowc.obj
 0001:000175f6       ?should_round_up@@YA_NQBDHW4__acrt_has_trailing_digits@@W4__acrt_rounding_mode@@@Z 100185f6 f   libucrt:_fptostr.obj
 0001:00019394       ?free_crt_array_internal@@YAXQAPBXI@Z 1001a394 f   libucrt:inittime.obj
 0001:00019d5e       ??$common_tcsncpy_s@D@@YAHQADIQBDI@Z 1001ad5e f   libucrt:strncpy_s.obj
 0001:00019e20       $$000000                   1001ae20     libucrt:strpbrk.obj
 0001:00019f04       ?__acrt_LCMapStringA_stat@@YAHPAU__crt_locale_pointers@@PB_WKPBDHPADHHH@Z 1001af04 f   libucrt:lcmapstringa.obj
 0001:0001a137       ?initialize_multibyte@@YAHXZ 1001b137 f   libucrt:multibyte_initializer.obj
 0001:0001a146       ??$?RV<lambda_9e9de3de5fa147e2223d7db92bc10aa6>@@AAV<lambda_38ce7e780aa69e748d6df282ebc68efe>@@V<lambda_8ca6da459f0f6780f1cff60fdc3d00e5>@@@?$__crt_seh_guarded_call@H@@QAEH$$QAV<lambda_9e9de3de5fa147e2223d7db92bc10aa6>@@AAV<lambda_38ce7e780aa69e748d6df282ebc68efe>@@$$QAV<lambda_8ca6da459f0f6780f1cff60fdc3d00e5>@@@Z 1001b146 f   libucrt:commit.obj
 0001:0001a265       ?write_double_translated_ansi_nolock@@YA?AUwrite_result@?A0x17268360@@HQBDI@Z 1001b265 f   libucrt:write.obj
 0001:0001a611       ?write_double_translated_unicode_nolock@@YA?AUwrite_result@?A0x17268360@@QBDI@Z 1001b611 f   libucrt:write.obj
 0001:0001a679       ?write_requires_double_translation_nolock@@YA_NH@Z 1001b679 f   libucrt:write.obj
 0001:0001a6ea       ?write_text_ansi_nolock@@YA?AUwrite_result@?A0x17268360@@HQBDI@Z 1001b6ea f   libucrt:write.obj
 0001:0001a7c5       ?write_text_utf16le_nolock@@YA?AUwrite_result@?A0x17268360@@HQBDI@Z 1001b7c5 f   libucrt:write.obj
 0001:0001a8ae       ?write_text_utf8_nolock@@YA?AUwrite_result@?A0x17268360@@HQBDI@Z 1001b8ae f   libucrt:write.obj
 0001:0001afd0       $$000000                   1001bfd0     libucrt:log10_impl.obj
 0001:0001b0e0       $$000000                   1001c0e0     libucrt:ceil_pentium4.obj
 0001:0001b1fd       ?to_abstract_control@@YA?AW4__acrt_fenv_abstract_control@@W4__acrt_fenv_machine_sse_control@@@Z 1001c1fd f   libucrt:_fenvutils.obj
 0001:0001b2b9       ?to_abstract_control@@YA?AW4__acrt_fenv_abstract_control@@W4__acrt_fenv_machine_x87_control@@@Z 1001c2b9 f   libucrt:_fenvutils.obj
 0001:0001b372       ?to_machine_sse_control@@YA?AW4__acrt_fenv_machine_sse_control@@W4__acrt_fenv_abstract_control@@@Z 1001c372 f   libucrt:_fenvutils.obj
 0001:0001b43f       ?to_machine_x87_control@@YA?AW4__acrt_fenv_machine_x87_control@@W4__acrt_fenv_abstract_control@@@Z 1001c43f f   libucrt:_fenvutils.obj
 0001:0001b7d3       ??$common_lseek_nolock@_J@@YA_JH_JH@Z 1001c7d3 f   libucrt:lseek.obj
 0001:0001b9b9       ___hw_cw_sse2              1001c9b9 f   libucrt:ieee87.obj
 0001:0001be3f       __hw_cw                    1001ce3f f   libucrt:ieee87.obj
 0001:0001bef0       $$000000                   1001cef0     libucrt:log10_pentium4.obj
 0001:0001c180       $$000000                   1001d180     libucrt:87tran.obj
 0001:0001c390       $$000000                   1001d390     libucrt:87disp.obj
 0001:0001c5f0       $$000000                   1001d5f0     libucrt:common.obj
 0001:0001c780       $$000000                   1001d780     libucrt:genexcep.obj
 0001:0001ca7c       ??$?RV<lambda_218ce3db14220d0be481dae8ef3383b6>@@AAV<lambda_628dfdc04ba53c8bfc02c9951375f3f5>@@V<lambda_57dc472bd5c9d5f3b2cbca59b8a843ae>@@@?$__crt_seh_guarded_call@H@@QAEH$$QAV<lambda_218ce3db14220d0be481dae8ef3383b6>@@AAV<lambda_628dfdc04ba53c8bfc02c9951375f3f5>@@$$QAV<lambda_57dc472bd5c9d5f3b2cbca59b8a843ae>@@@Z 1001da7c f   libucrt:close.obj
 0001:0001cc70       $$000000                   1001dc70     libucrt:_strnicm.obj
 0001:0001ccd1       ?__dcrt_lowio_initialize_console_output@@YAXXZ 1001dcd1 f   libucrt:initcon.obj
 0001:0001dbb0       $$000000                   1001ebb0     LIBCMT:ulldvrm.obj
 0001:0001dc50       $$000000                   1001ec50     LIBCMT:llmul.obj
 0001:0001dc90       $$000000                   1001ec90     LIBCMT:lldvrm.obj
 0001:0001dd70       $$000000                   1001ed70     LIBCMT:llshl.obj
 0001:0001dd90       $$000000                   1001ed90     LIBCMT:ullshr.obj
 0001:0001ddb0       $$000000                   1001edb0     LIBCMT:ftol2.obj
 0001:0001e050       $$000000                   1001f050     libvcruntime:strrchr.obj
 0001:0001e190       $$000000                   1001f190     libvcruntime:strchr.obj
 0001:0001e333       __ehhandler$??2@YAPAXIABUnothrow_t@std@@@Z 1001f333 f   LIBCMT:new_scalar_nothrow.obj
 0001:0001e350       __ehhandler$?CallUnexpected@@YAXPBU_s_ESTypeList@@@Z 1001f350 f   libvcruntime:frame.obj
 0001:0001e36d       ??__F_AtlComModule@ATL@@YAXXZ 1001f36d f   OposVariant.obj
 0001:0001e377       ??__F_AtlWinModule@ATL@@YAXXZ 1001f377 f   OposVariant.obj
 0001:0001e391       ??__F_Module@@YAXXZ        1001f391 f   BillAcceptor.obj
 0001:0001e3a5       ??__F_AtlBaseModule@ATL@@YAXXZ 1001f3a5 f   atls:atlbase.obj
 0002:00000304       ?_AtlBaseModule$initializer$@ATL@@3P6AXXZA 10020304     atls:atlbase.obj
 0002:00000308       ?_AtlComModule$initializer$@ATL@@3P6AXXZA 10020308     OposVariant.obj
 0002:0000030c       ?_AtlWinModule$initializer$@ATL@@3P6AXXZA 1002030c     OposVariant.obj
 0002:00000310       ?_Module$initializer$@@3P6AXXZA 10020310     BillAcceptor.obj
 0002:00000314       ??pConnMap$initializer$@?$IConnectionPointContainerImpl@VCOPOSBillAcceptor@@@ATL@@0P6AXXZA@@3P6AXXZA 10020314     BillAcceptor.obj
 0002:00000320       ?__scrt_initialize_tss_var@@3P6AHXZA 10020320     LIBCMT:thread_safe_statics.obj
 0002:00001840       _GS_ExceptionPointers      10021840     LIBCMT:gs_report.obj
 0002:000019d0       ?tokenTable@@3QBUStringLiteral@@B 100219d0     libvcruntime:undname.obj
 0002:00001a50       ?nameTable@@3QBUStringLiteral@@B 10021a50     libvcruntime:undname.obj
 0002:00001ce8       ?rttiTable@@3QBUStringLiteral@@B 10021ce8     libvcruntime:undname.obj
 0002:00001d10       ?IndirectionName@@3QBUStringLiteral@@B 10021d10     libvcruntime:undname.obj
 0002:00001d40       ?PrefixName@@3QBUStringLiteral@@B 10021d40     libvcruntime:undname.obj
 0002:00002370       ?module_names@?A0xb97aeec8@@3QBQB_WB 10022370     libvcruntime:winapi_downlevel.obj
 0002:00002418       ?candidate_modules@?1??try_get_FlsAlloc@@YAP6GKP6GXPAX@Z@ZXZ@4QBW4module_id@?A0xb97aeec8@@B 10022418     libvcruntime:winapi_downlevel.obj
 0002:0000242c       ?candidate_modules@?1??try_get_FlsFree@@YAP6GHK@ZXZ@4QBW4module_id@?A0xb97aeec8@@B 1002242c     libvcruntime:winapi_downlevel.obj
 0002:0000243c       ?candidate_modules@?1??try_get_FlsGetValue@@YAP6GPAXK@ZXZ@4QBW4module_id@?A0xb97aeec8@@B 1002243c     libvcruntime:winapi_downlevel.obj
 0002:00002450       ?candidate_modules@?1??try_get_FlsSetValue@@YAP6GHKPAX@ZXZ@4QBW4module_id@?A0xb97aeec8@@B 10022450     libvcruntime:winapi_downlevel.obj
 0002:00002464       ?candidate_modules@?1??try_get_InitializeCriticalSectionEx@@YAP6GHPAU_RTL_CRITICAL_SECTION@@KK@ZXZ@4QBW4module_id@?A0xb97aeec8@@B 10022464     libvcruntime:winapi_downlevel.obj
 0002:00002488       ?errtable@@3QBUerrentry@?A0x31fdb9ec@@B 10022488     libucrt:errno.obj
 0002:00002ad0       ___acrt_initializers       10022ad0     libucrt:initialization.obj
 0002:00002b50       ?module_names@?A0x391cf84c@@3QBQB_WB 10022b50     libucrt:winapi_thunks.obj
 0002:00002fc8       ?candidate_modules@?1??try_get_AreFileApisANSI@@YAP6GHXZXZ@4QBW4module_id@?A0x391cf84c@@B 10022fc8     libucrt:winapi_thunks.obj
 0002:00002fdc       ?candidate_modules@?1??try_get_FlsAlloc@@YAP6GKP6GXPAX@Z@ZXZ@4QBW4module_id@?A0x391cf84c@@B 10022fdc     libucrt:winapi_thunks.obj
 0002:00002fe4       ?candidate_modules@?1??try_get_FlsFree@@YAP6GHK@ZXZ@4QBW4module_id@?A0x391cf84c@@B 10022fe4     libucrt:winapi_thunks.obj
 0002:00002fec       ?candidate_modules@?1??try_get_FlsGetValue@@YAP6GPAXK@ZXZ@4QBW4module_id@?A0x391cf84c@@B 10022fec     libucrt:winapi_thunks.obj
 0002:00002ff4       ?candidate_modules@?1??try_get_FlsSetValue@@YAP6GHKPAX@ZXZ@4QBW4module_id@?A0x391cf84c@@B 10022ff4     libucrt:winapi_thunks.obj
 0002:00002ffc       ?candidate_modules@?1??try_get_InitializeCriticalSectionEx@@YAP6GHPAU_RTL_CRITICAL_SECTION@@KK@ZXZ@4QBW4module_id@?A0x391cf84c@@B 10022ffc     libucrt:winapi_thunks.obj
 0002:00003004       ?candidate_modules@?1??try_get_LCMapStringEx@@YAP6GHPB_WK0HPA_WHPAU_nlsversioninfo@@PAXJ@ZXZ@4QBW4module_id@?A0x391cf84c@@B 10023004     libucrt:winapi_thunks.obj
 0002:0000301c       ?candidate_modules@?1??try_get_LocaleNameToLCID@@YAP6GKPB_WK@ZXZ@4QBW4module_id@?A0x391cf84c@@B 1002301c     libucrt:winapi_thunks.obj
 0002:00003038       ?candidate_modules@?1??try_get_AppPolicyGetProcessTerminationMethod@@YAP6GJPAXPAW4AppPolicyProcessTerminationMethod@@@ZXZ@4QBW4module_id@?A0x391cf84c@@B 10023038     libucrt:winapi_thunks.obj
 0002:00003064       ?candidate_modules@?1??try_get_SetThreadStackGuarantee@@YAP6GHPAK@ZXZ@4QBW4module_id@?A0x391cf84c@@B 10023064     libucrt:winapi_thunks.obj
 0002:00003088       ?strings@?1??fp_format_nan_or_infinity@@YAHW4__acrt_fp_class@@_NPADI1@Z@4QAY03QBDA 10023088     libucrt:cvt.obj
 0002:000035d0       ?_mb_locale_names@@3QBQB_WB 100235d0     libucrt:mbctype.obj
 0002:00003e18       ?LcidToLocaleNameTable@?A0x881e4c05@@3QBULcidToLocaleName@1@B 10023e18     libucrt:lcidtoname_downlevel.obj
 0002:00004f40       ?LocaleNameToIndexTable@?A0x881e4c05@@3QBULocaleNameIndex@1@B 10024f40     libucrt:lcidtoname_downlevel.obj
 0002:00006880       LOG_name                   10026880     libucrt:log10_impl.obj
 0002:00006890       _One                       10026890     libucrt:ceil_pentium4.obj
 0002:000068a0       _Bns                       100268a0     libucrt:ceil_pentium4.obj
 0002:000068b0       _Zero                      100268b0     libucrt:ceil_pentium4.obj
 0002:000068c0       _S                         100268c0     libucrt:ceil_pentium4.obj
 0002:000068d0       _NegZero                   100268d0     libucrt:ceil_pentium4.obj
 0002:000068e0       emask                      100268e0     libucrt:log10_pentium4.obj
 0002:000068f0       CC                         100268f0     libucrt:log10_pentium4.obj
 0002:00006900       Magic                      10026900     libucrt:log10_pentium4.obj
 0002:00006910       hi_mask                    10026910     libucrt:log10_pentium4.obj
 0002:00006920       LOG10_2                    10026920     libucrt:log10_pentium4.obj
 0002:00006930       place_L                    10026930     libucrt:log10_pentium4.obj
 0002:00006950       One                        10026950     libucrt:log10_pentium4.obj
 0002:00006960       Zero                       10026960     libucrt:log10_pentium4.obj
 0002:00006970       Two52                      10026970     libucrt:log10_pentium4.obj
 0002:00006980       Infs                       10026980     libucrt:log10_pentium4.obj
 0002:00006990       NaN                        10026990     libucrt:log10_pentium4.obj
 0002:000069a0       coeff                      100269a0     libucrt:log10_pentium4.obj
 0002:000069fe       _log2max                   100269fe     libucrt:87tran.obj
 0002:00006a08       _smallarg                  10026a08     libucrt:87tran.obj
 0002:00006a12       _half                      10026a12     libucrt:87tran.obj
 0002:00006a5e       One                        10026a5e     libucrt:87disp.obj
 0002:00006a66       Three                      10026a66     libucrt:87disp.obj
 0002:00006a6e       XAMtoTagTab                10026a6e     libucrt:87disp.obj
 0002:00006a80       One                        10026a80     libucrt:common.obj
 0002:00006a94       DblMax                     10026a94     libucrt:common.obj
 0002:00006a9c       DblMin                     10026a9c     libucrt:common.obj
 0002:00006aa4       IeeeAdjO                   10026aa4     libucrt:common.obj
 0002:00006aac       IeeeAdjU                   10026aac     libucrt:common.obj
 0002:00006ab4       _infinity                  10026ab4     libucrt:common.obj
 0002:00006abc       _zero                      10026abc     libucrt:common.obj
 0002:00006b08       _over                      10026b08     libucrt:fpctrl.obj
 0002:00006b14       _under                     10026b14     libucrt:fpctrl.obj
 0002:00007348       ?_names@?1??_get_fname@@9@9 10027348     libucrt:fpexcept.obj
 0002:000074f0       two32                      100274f0     LIBCMT:ftol2.obj
 0002:000074f4       two63                      100274f4     LIBCMT:ftol2.obj
 0002:000074f8       _NaN                       100274f8     LIBCMT:ftol2.obj
 0002:00007be8       __sehtable$?_AtlVerifyStackAvailable@_ATL_SAFE_ALLOCA_IMPL@ATL@@YA_NK@Z 10027be8     BillAcceptor.obj
 0002:00007c08       __sehtable$___scrt_is_nonwritable_in_current_image 10027c08     LIBCMT:utility.obj
 0002:00007c24       __catchsym$??2@YAPAXIABUnothrow_t@std@@@Z$2 10027c24     LIBCMT:new_scalar_nothrow.obj
 0002:00007c34       __unwindtable$??2@YAPAXIABUnothrow_t@std@@@Z 10027c34     LIBCMT:new_scalar_nothrow.obj
 0002:00007c44       __tryblocktable$??2@YAPAXIABUnothrow_t@std@@@Z 10027c44     LIBCMT:new_scalar_nothrow.obj
 0002:00007c58       __ehfuncinfo$??2@YAPAXIABUnothrow_t@std@@@Z 10027c58     LIBCMT:new_scalar_nothrow.obj
 0002:00007c80       __sehtable$?dllmain_crt_process_attach@@YAHQAUHINSTANCE__@@QAX@Z 10027c80     LIBCMT:dll_dllmain.obj
 0002:00007ca0       __sehtable$?dllmain_crt_process_detach@@YAH_N@Z 10027ca0     LIBCMT:dll_dllmain.obj
 0002:00007cc8       __sehtable$?dllmain_dispatch@@YAHQAUHINSTANCE__@@KQAX@Z 10027cc8     LIBCMT:dll_dllmain.obj
 0002:00007d78       __sehtable$___DestructExceptionObject 10027d78     libvcruntime:ehhelpers.obj
 0002:00007d98       __sehtable$?FrameUnwindToState@__FrameHandler3@@SAXPAUEHRegistrationNode@@PAXPBU_s_FuncInfo@@H@Z 10027d98     libvcruntime:frame.obj
 0002:00007dc0       __sehtable$?CallCatchBlock@@YAPAXPAUEHExceptionRecord@@PAUEHRegistrationNode@@PAU_CONTEXT@@PBU_s_FuncInfo@@PAXHK@Z 10027dc0     libvcruntime:frame.obj
 0002:00007de8       __catchsym$?CallUnexpected@@YAXPBU_s_ESTypeList@@@Z$2 10027de8     libvcruntime:frame.obj
 0002:00007df8       __unwindtable$?CallUnexpected@@YAXPBU_s_ESTypeList@@@Z 10027df8     libvcruntime:frame.obj
 0002:00007e08       __tryblocktable$?CallUnexpected@@YAXPBU_s_ESTypeList@@@Z 10027e08     libvcruntime:frame.obj
 0002:00007e1c       __ehfuncinfo$?CallUnexpected@@YAXPBU_s_ESTypeList@@@Z 10027e1c     libvcruntime:frame.obj
 0002:00007e40       __sehtable$??$BuildCatchObjectHelperInternal@V__FrameHandler3@@@@YAHPAUEHExceptionRecord@@PAXPBU_s_HandlerType@@PBU_s_CatchableType@@@Z 10027e40     libvcruntime:frame.obj
 0002:00007e60       __sehtable$??$BuildCatchObjectInternal@V__FrameHandler3@@@@YAXPAUEHExceptionRecord@@PAXPBU_s_HandlerType@@PBU_s_CatchableType@@@Z 10027e60     libvcruntime:frame.obj
 0002:00007eb8       __sehtable$??R<lambda_6e4b09c48022b2350581041d5f6b0c4c>@@QBE@XZ 10027eb8     libucrt:exit.obj
 0002:00007ed8       __sehtable$??$?RV<lambda_03b1d95aef87969028cfba75ccab2455>@@AAV<lambda_6e4b09c48022b2350581041d5f6b0c4c>@@V<lambda_22bdf7517842c4b3e53723af5aa32b9e>@@@?$__crt_seh_guarded_call@X@@QAEX$$QAV<lambda_03b1d95aef87969028cfba75ccab2455>@@AAV<lambda_6e4b09c48022b2350581041d5f6b0c4c>@@$$QAV<lambda_22bdf7517842c4b3e53723af5aa32b9e>@@@Z 10027ed8     libucrt:exit.obj
 0002:00007ef8       __sehtable$??$?RV<lambda_8e746cf0007f6ed984d6f78af1fec997>@@AAV<lambda_22ebabd17bc4fa466a2aca6d8deb888d>@@V<lambda_18ed0c0b38a6dc0daf1e7ac6d6adf05e>@@@?$__crt_seh_guarded_call@H@@QAEH$$QAV<lambda_8e746cf0007f6ed984d6f78af1fec997>@@AAV<lambda_22ebabd17bc4fa466a2aca6d8deb888d>@@$$QAV<lambda_18ed0c0b38a6dc0daf1e7ac6d6adf05e>@@@Z 10027ef8     libucrt:onexit.obj
 0002:00007f18       __sehtable$??$?RV<lambda_69a2805e680e0e292e8ba93315fe43a8>@@AAV<lambda_f03950bc5685219e0bcd2087efbe011e>@@V<lambda_03fcd07e894ec930e3f35da366ca99d6>@@@?$__crt_seh_guarded_call@H@@QAEH$$QAV<lambda_69a2805e680e0e292e8ba93315fe43a8>@@AAV<lambda_f03950bc5685219e0bcd2087efbe011e>@@$$QAV<lambda_03fcd07e894ec930e3f35da366ca99d6>@@@Z 10027f18     libucrt:onexit.obj
 0002:00007f38       __sehtable$__query_new_handler 10027f38     libucrt:new_handler.obj
 0002:00007f58       __sehtable$_terminate      10027f58     libucrt:terminate.obj
 0002:00007f78       __sehtable$??$?RV<lambda_15ade71b0218206bbe3333a0c9b79046>@@AAV<lambda_da44e0f8b0f19ba52fefafb335991732>@@V<lambda_207f2d024fc103971653565357d6cd41>@@@?$__crt_seh_guarded_call@X@@QAEX$$QAV<lambda_15ade71b0218206bbe3333a0c9b79046>@@AAV<lambda_da44e0f8b0f19ba52fefafb335991732>@@$$QAV<lambda_207f2d024fc103971653565357d6cd41>@@@Z 10027f78     libucrt:per_thread_data.obj
 0002:00007f98       __sehtable$??$?RV<lambda_a7e850c220f1c8d1e6efeecdedd162c6>@@AAV<lambda_46720907175c18b6c9d2717bc0d2d362>@@V<lambda_9048902d66e8d99359bc9897bbb930a8>@@@?$__crt_seh_guarded_call@X@@QAEX$$QAV<lambda_a7e850c220f1c8d1e6efeecdedd162c6>@@AAV<lambda_46720907175c18b6c9d2717bc0d2d362>@@$$QAV<lambda_9048902d66e8d99359bc9897bbb930a8>@@@Z 10027f98     libucrt:per_thread_data.obj
 0002:00007fb8       __sehtable$??$?RV<lambda_38edbb1296d33220d7e4dd0ed76b244a>@@AAV<lambda_5ce1d447e08cb34b2473517608e21441>@@V<lambda_fb385d3da700c9147fc39e65dd577a8c>@@@?$__crt_seh_guarded_call@X@@QAEX$$QAV<lambda_38edbb1296d33220d7e4dd0ed76b244a>@@AAV<lambda_5ce1d447e08cb34b2473517608e21441>@@$$QAV<lambda_fb385d3da700c9147fc39e65dd577a8c>@@@Z 10027fb8     libucrt:per_thread_data.obj
 0002:00007fd8       __sehtable$??$?RV<lambda_6affb1475c98b40b75cdec977db92e3c>@@AAV<lambda_b8d4b9c228a6ecc3f80208dbb4b4a104>@@V<lambda_608742c3c92a14382c1684fc64f96c88>@@@?$__crt_seh_guarded_call@X@@QAEX$$QAV<lambda_6affb1475c98b40b75cdec977db92e3c>@@AAV<lambda_b8d4b9c228a6ecc3f80208dbb4b4a104>@@$$QAV<lambda_608742c3c92a14382c1684fc64f96c88>@@@Z 10027fd8     libucrt:per_thread_data.obj
 0002:00007ff8       __sehtable$??$?RV<lambda_e5124f882df8998aaf41531e079ba474>@@AAV<lambda_3e16ef9562a7dcce91392c22ab16ea36>@@V<lambda_e25ca0880e6ef98be67edffd8c599615>@@@?$__crt_seh_guarded_call@X@@QAEX$$QAV<lambda_e5124f882df8998aaf41531e079ba474>@@AAV<lambda_3e16ef9562a7dcce91392c22ab16ea36>@@$$QAV<lambda_e25ca0880e6ef98be67edffd8c599615>@@@Z 10027ff8     libucrt:wsetlocale.obj
 0002:00008018       __sehtable$___acrt_initialize_lowio 10028018     libucrt:ioinit.obj
 0002:00008038       __sehtable$?update_thread_multibyte_data_internal@@YAPAU__crt_multibyte_data@@QAU__acrt_ptd@@QAPAU1@@Z 10028038     libucrt:mbctype.obj
 0002:00008058       __sehtable$??$?RV<lambda_ceb1ee4838e85a9d631eb091e2fbe199>@@AAV<lambda_ae742caa10f662c28703da3d2ea5e57e>@@V<lambda_cd08b5d6af4937fe54fc07d0c9bf6b37>@@@?$__crt_seh_guarded_call@X@@QAEX$$QAV<lambda_ceb1ee4838e85a9d631eb091e2fbe199>@@AAV<lambda_ae742caa10f662c28703da3d2ea5e57e>@@$$QAV<lambda_cd08b5d6af4937fe54fc07d0c9bf6b37>@@@Z 10028058     libucrt:mbctype.obj
 0002:00008078       __sehtable$_raise          10028078     libucrt:signal.obj
 0002:00008098       __sehtable$??$?RV<lambda_cbab9ec6f41b0180b23cc171c22676b0>@@AAV<lambda_44731a7d0e6d81c3e6aa82d741081786>@@V<lambda_4b292cb8dd18144e164572427af410ab>@@@?$__crt_seh_guarded_call@P6AXH@Z@@QAEP6AXH@Z$$QAV<lambda_cbab9ec6f41b0180b23cc171c22676b0>@@AAV<lambda_44731a7d0e6d81c3e6aa82d741081786>@@$$QAV<lambda_4b292cb8dd18144e164572427af410ab>@@@Z 10028098     libucrt:signal.obj
 0002:000080b8       __sehtable$??$?RV<lambda_2866be3712abc81a800a822484c830d8>@@AAV<lambda_39ca0ed439415581b5b15c265174cece>@@V<lambda_2b24c74d71094a6cd0cb82e44167d71b>@@@?$__crt_seh_guarded_call@X@@QAEX$$QAV<lambda_2866be3712abc81a800a822484c830d8>@@AAV<lambda_39ca0ed439415581b5b15c265174cece>@@$$QAV<lambda_2b24c74d71094a6cd0cb82e44167d71b>@@@Z 100280b8     libucrt:fflush.obj
 0002:000080d8       __sehtable$??$?RV<lambda_2cc53f568c5a2bb6f192f930a45d44ea>@@AAV<lambda_ab61a845afdef5b7c387490eaf3616ee>@@V<lambda_c2ffc0b7726aa6be21d5f0026187e748>@@@?$__crt_seh_guarded_call@X@@QAEX$$QAV<lambda_2cc53f568c5a2bb6f192f930a45d44ea>@@AAV<lambda_ab61a845afdef5b7c387490eaf3616ee>@@$$QAV<lambda_c2ffc0b7726aa6be21d5f0026187e748>@@@Z 100280d8     libucrt:fflush.obj
 0002:000080f8       __sehtable$___acrt_update_thread_locale_data 100280f8     libucrt:locale_refcounting.obj
 0002:00008118       __sehtable$__fcloseall     10028118     libucrt:closeall.obj
 0002:00008138       __sehtable$___acrt_lowio_ensure_fh_exists 10028138     libucrt:osfinfo.obj
 0002:00008158       __sehtable$??$?RV<lambda_9e9de3de5fa147e2223d7db92bc10aa6>@@AAV<lambda_38ce7e780aa69e748d6df282ebc68efe>@@V<lambda_8ca6da459f0f6780f1cff60fdc3d00e5>@@@?$__crt_seh_guarded_call@H@@QAEH$$QAV<lambda_9e9de3de5fa147e2223d7db92bc10aa6>@@AAV<lambda_38ce7e780aa69e748d6df282ebc68efe>@@$$QAV<lambda_8ca6da459f0f6780f1cff60fdc3d00e5>@@@Z 10028158     libucrt:commit.obj
 0002:00008178       __sehtable$__write         10028178     libucrt:write.obj
 0002:00008198       __sehtable$_fclose         10028198     libucrt:fclose.obj
 0002:000081b8       __sehtable$??$?RV<lambda_218ce3db14220d0be481dae8ef3383b6>@@AAV<lambda_628dfdc04ba53c8bfc02c9951375f3f5>@@V<lambda_57dc472bd5c9d5f3b2cbca59b8a843ae>@@@?$__crt_seh_guarded_call@H@@QAEH$$QAV<lambda_218ce3db14220d0be481dae8ef3383b6>@@AAV<lambda_628dfdc04ba53c8bfc02c9951375f3f5>@@$$QAV<lambda_57dc472bd5c9d5f3b2cbca59b8a843ae>@@@Z 100281b8     libucrt:close.obj
 0002:000081d8       __sehtable$___set_fpsr_sse2 100281d8     libucrt:fpctrl.obj
 0002:000081f8       __sehtable$__IsNonwritableInCurrentImage 100281f8     LIBCMT:pesect.obj
 0002:00008220       .edata                     10028220     OPOSBillAcceptor.exp
 0002:00008248       rgpv                       10028248     OPOSBillAcceptor.exp
 0002:00008258       rgszName                   10028258     OPOSBillAcceptor.exp
 0002:00008268       rgwOrd                     10028268     OPOSBillAcceptor.exp
 0002:00008270       szName                     10028270     OPOSBillAcceptor.exp
 0002:00008285       $N00001                    10028285     OPOSBillAcceptor.exp
 0002:00008295       $N00002                    10028295     OPOSBillAcceptor.exp
 0002:000082a7       $N00003                    100282a7     OPOSBillAcceptor.exp
 0002:000082b9       $N00004                    100282b9     OPOSBillAcceptor.exp
 0002:000088ca       .idata$6                   100288ca     kernel32:KERNEL32.dll
 0002:00008ade       .idata$6                   10028ade     user32:USER32.dll
 0002:00008c12       .idata$6                   10028c12     gdi32:GDI32.dll
 0002:00008cb8       .idata$6                   10028cb8     advapi32:ADVAPI32.dll
 0002:00008dd4       .idata$6                   10028dd4     ole32:ole32.dll
 0002:00008dde       .idata$6                   10028dde     oleaut32:OLEAUT32.dll
 0003:00000110       ?ObjectMap@@3PAU_ATL_OBJMAP_ENTRY30@ATL@@A 1002a110     BillAcceptor.obj
 0003:000001d0       ?s_SOMethodNames@@3PAPADA  1002a1d0     BillAcceptorImpl.obj
 0003:00000230       ?s_RequiredMethodsPerRelease@@3PAHA 1002a230     BillAcceptorImpl.obj
 0003:00000250       ?__vcrt_flsindex@@3KA      1002a250     libvcruntime:per_thread_data.obj
 0003:00000270       ?errno_no_memory@@3HA      1002a270     libucrt:errno.obj
 0003:00000274       ?doserrno_no_memory@@3KA   1002a274     libucrt:errno.obj
 0003:00000280       ?__acrt_flsindex@@3KA      1002a280     libucrt:per_thread_data.obj
 0003:00000618       __mbctypes                 1002a618     libucrt:mbctype.obj
 0003:00000720       __mbcasemaps               1002a720     libucrt:mbctype.obj
 0003:00000820       ?__rgctypeflag@@3PADA      1002a820     libucrt:mbctype.obj
 0003:00000828       ?__rgcode_page_info@@3PAUcode_page_info@@A 1002a828     libucrt:mbctype.obj
 0003:00000a80       ?__dcrt_lowio_console_output_handle@@3PAXA 1002aa80     libucrt:initcon.obj
 0003:00000a84       ?__DAZ_ENABLED@?1??__set_fpsr_sse2@@9@9 1002aa84     libucrt:fpctrl.obj
 0003:00000c18       ?is_initialized_as_dll@@3_NA 1002ac18     LIBCMT:utility.obj
 0003:00000c19       ?module_local_atexit_table_initialized@@3_NA 1002ac19     LIBCMT:utility.obj
 0003:00000c1c       ?module_local_atexit_table@@3U_onexit_table_t@@A 1002ac1c     LIBCMT:utility.obj
 0003:00000c28       ?module_local_at_quick_exit_table@@3U_onexit_table_t@@A 1002ac28     LIBCMT:utility.obj
 0003:00000c34       ?g_tss_cv@@3U_RTL_CONDITION_VARIABLE@@A 1002ac34     LIBCMT:thread_safe_statics.obj
 0003:00000c38       ?g_tss_event@@3PAXA        1002ac38     LIBCMT:thread_safe_statics.obj
 0003:00000c3c       ?g_tss_mutex@@3U_RTL_CRITICAL_SECTION@@A 1002ac3c     LIBCMT:thread_safe_statics.obj
 0003:00000c54       ?g_sleep_condition_variable_cs@@3P6GHPAU_RTL_CONDITION_VARIABLE@@PAU_RTL_CRITICAL_SECTION@@K@ZA 1002ac54     LIBCMT:thread_safe_statics.obj
 0003:00000c58       ?g_wake_all_condition_variable@@3P6GXPAU_RTL_CONDITION_VARIABLE@@@ZA 1002ac58     LIBCMT:thread_safe_statics.obj
 0003:00000c60       _GS_ExceptionRecord        1002ac60     LIBCMT:gs_report.obj
 0003:00000cb0       _GS_ContextRecord          1002acb0     LIBCMT:gs_report.obj
 0003:00000f80       ?__proc_attached@@3HA      1002af80     LIBCMT:dll_dllmain.obj
 0003:00000fe4       ?AllocateData@@3P6GPAUAtlThunkData_t@@XZA 1002afe4     atls:atlthunk.obj
 0003:00000fe8       ?InitData@@3P6GXPAUAtlThunkData_t@@PAXI@ZA 1002afe8     atls:atlthunk.obj
 0003:00000fec       ?DataToCode@@3P6GP6GJPAUHWND__@@IIJ@ZPAUAtlThunkData_t@@@ZA 1002afec     atls:atlthunk.obj
 0003:00000ff0       ?FreeData@@3P6GXPAUAtlThunkData_t@@@ZA 1002aff0     atls:atlthunk.obj
 0003:00000ff4       ?Initialized@@3_NA         1002aff4     atls:atlthunk.obj
 0003:00001004       ?__vcrt_startup_thread_ptd@@3U__vcrt_ptd@@A 1002b004     libvcruntime:per_thread_data.obj
 0003:0000102c       ___vcrt_lock_table         1002b02c     libvcruntime:locks.obj
 0003:00001044       ___vcrt_locks_initialized  1002b044     libvcruntime:locks.obj
 0003:00001070       ?heap@@3V_HeapManager@@A   1002b070     libvcruntime:undname.obj
 0003:00001084       ?module_handles@@3PAPAUHINSTANCE__@@A 1002b084     libvcruntime:winapi_downlevel.obj
 0003:00001090       ?function_pointers@@3PAPAXA 1002b090     libvcruntime:winapi_downlevel.obj
 0003:000010a4       ?__acrt_invalid_parameter_handler@@3V?$dual_state_global@P6AXPB_W00II@Z@__crt_state_management@@A 1002b0a4     libucrt:invalid_parameter.obj
 0003:000010a8       ?c_termination_complete@@3JA 1002b0a8     libucrt:exit.obj
 0003:000010ac       ?thread_local_exit_callback_func@@3P6GXPAXK0@ZA 1002b0ac     libucrt:exit.obj
 0003:000010b8       ?program_name@?1???$common_configure_argv@D@@YAHW4_crt_argv_mode@@@Z@4PADA 1002b0b8     libucrt:argv_parsing.obj
 0003:000011e8       ?__acrt_new_handler@@3V?$dual_state_global@P6AHI@Z@__crt_state_management@@A 1002b1e8     libucrt:new_handler.obj
 0003:000011f0       ?module_handles@@3PAPAUHINSTANCE__@@A 1002b1f0     libucrt:winapi_thunks.obj
 0003:00001240       ?encoded_function_pointers@@3PAPAXA 1002b240     libucrt:winapi_thunks.obj
 0003:000012c8       ?internal_state@?1??_mbtowc_l@@9@4U_Mbstatet@@A 1002b2c8     libucrt:mbtowc.obj
 0003:000012d8       ?enable_percent_n@@3IA     1002b2d8     libucrt:printf_count_output.obj
 0003:000014f8       ?__acrt_lock_table@@3PAU_RTL_CRITICAL_SECTION@@A 1002b4f8     libucrt:locks.obj
 0003:00001648       ?__acrt_locks_initialized@@3IA 1002b648     libucrt:locks.obj
 0003:00001658       ?fSystemSet@@3HA           1002b658     libucrt:mbctype.obj
 0003:0000165c       ?initialized@?1??__acrt_initialize_multibyte@@9@4_NA 1002b65c     libucrt:mbctype.obj
 0003:0000167c       ?ctrlc_action@@3V?$dual_state_global@P6AXH@Z@__crt_state_management@@A 1002b67c     libucrt:signal.obj
 0003:00001680       ?ctrlbreak_action@@3V?$dual_state_global@P6AXH@Z@__crt_state_management@@A 1002b680     libucrt:signal.obj
 0003:00001684       ?abort_action@@3V?$dual_state_global@P6AXH@Z@__crt_state_management@@A 1002b684     libucrt:signal.obj
 0003:00001688       ?term_action@@3V?$dual_state_global@P6AXH@Z@__crt_state_management@@A 1002b688     libucrt:signal.obj
 0003:0000168c       ?user_matherr@@3V?$dual_state_global@P6AHPAU_exception@@@Z@__crt_state_management@@A 1002b68c     libucrt:matherr.obj
 0003:00001690       ?__acrt_global_new_mode@@3V?$dual_state_global@J@__crt_state_management@@A 1002b690     libucrt:new_mode.obj
 0003:0000169c       ?internal_pst@?1??__mbrtoc32_utf8@__crt_mbstring@@YAIPA_UPBDIPAU_Mbstatet@@@Z@4U3@A 1002b69c     libucrt:mbrtoc32.obj
 0003:000016a4       ?__acrt_app_type@@3W4_crt_app_type@@A 1002b6a4     libucrt:report_runtime_error.obj
 0003:000016ac       __pmatherr_set             1002b6ac     libucrt:libm_error.obj
 0004:00000220       $R000000                   1002c220     BillAcceptor.res
 0004:00000bc8       $R0009A8                   1002cbc8     BillAcceptor.res
 0004:00000cb0       $R000A90                   1002ccb0     BillAcceptor.res
 0004:00000f18       $R000CF8                   1002cf18     BillAcceptor.res
 0004:00001430       $R001210                   1002d430     BillAcceptor.res
 0004:00004168       $R003F48                   10030168     BillAcceptor.res
 0004:000041a0       $R003F80                   100301a0     BillAcceptor.res
