 OPOSScanner

 Timestamp is 600f7a88 (Tue Jan 26 11:12:24 2021)

 Preferred load address is 10000000

 Start         Length     Name                   Class
 0001:00000000 00000080H .text$di                CODE
 0001:00000080 0001e083H .text$mn                CODE
 0001:0001e103 0000003aH .text$x                 CODE
 0001:0001e13d 00000042H .text$yd                CODE
 0002:00000000 000002fcH .idata$5                DATA
 0002:000002fc 00000004H .00cfg                  DATA
 0002:00000300 00000004H .CRT$XCA                DATA
 0002:00000304 00000004H .CRT$XCL                DATA
 0002:00000308 00000010H .CRT$XCU                DATA
 0002:00000318 00000004H .CRT$XCZ                DATA
 0002:0000031c 00000004H .CRT$XIA                DATA
 0002:00000320 00000010H .CRT$XIC                DATA
 0002:00000330 00000004H .CRT$XIZ                DATA
 0002:00000334 00000004H .CRT$XLA                DATA
 0002:00000338 00000004H .CRT$XLZ                DATA
 0002:0000033c 00000004H .CRT$XPA                DATA
 0002:00000340 00000008H .CRT$XPX                DATA
 0002:00000348 00000004H .CRT$XPXA               DATA
 0002:0000034c 00000004H .CRT$XPZ                DATA
 0002:00000350 00000004H .CRT$XTA                DATA
 0002:00000354 0000000cH .CRT$XTZ                DATA
 0002:00000358 00000000H .gfids$y                DATA
 0002:00000360 00007260H .rdata                  DATA
 0002:000075c0 00000000H .rdata$CastGuardVftablesA DATA
 0002:000075c0 00000000H .rdata$CastGuardVftablesC DATA
 0002:000075c0 00000018H .rdata$T                DATA
 0002:000075d8 00000178H .rdata$r                DATA
 0002:00007750 0000001cH .rdata$sxdata           DATA
 0002:0000776c 000003dcH .rdata$zzzdbg           DATA
 0002:00007b48 00000004H .rtc$IAA                DATA
 0002:00007b4c 00000004H .rtc$IZZ                DATA
 0002:00007b50 00000004H .rtc$TAA                DATA
 0002:00007b54 00000004H .rtc$TZZ                DATA
 0002:00007b58 00000004H .tls                    DATA
 0002:00007b5c 00000004H .tls$                   DATA
 0002:00007b60 00000008H .tls$ZZZ                DATA
 0002:00007b68 0000062cH .xdata$x                DATA
 0002:00008194 00000004H ATL$__a                 DATA
 0002:00008198 00000008H ATL$__z                 DATA
 0002:000081a0 000000a8H .edata                  DATA
 0002:00008248 00000078H .idata$2                DATA
 0002:000082c0 00000014H .idata$3                DATA
 0002:000082d4 000002fcH .idata$4                DATA
 0002:000085d0 00000bceH .idata$6                DATA
 0003:00000000 00000ab0H .data                   DATA
 0003:00000ab0 00000098H .data$r                 DATA
 0003:00000b48 00000b88H .bss                    DATA
 0004:00000000 00000220H .rsrc$01                DATA
 0004:00000220 00003c10H .rsrc$02                DATA

  Address         Publics by Value              Rva+Base       Lib:Object

 0000:00000000       ___guard_fids_count        00000000     <absolute>
 0000:00000000       ___guard_eh_cont_table     00000000     <absolute>
 0000:00000000       ___guard_longjmp_table     00000000     <absolute>
 0000:00000000       ___volatile_metadata       00000000     <absolute>
 0000:00000000       ___arm64x_extra_rfe_table  00000000     <absolute>
 0000:00000000       ___arm64x_redirection_metadata 00000000     <absolute>
 0000:00000000       ___guard_iat_count         00000000     <absolute>
 0000:00000000       ___guard_eh_cont_count     00000000     <absolute>
 0000:00000000       __except_list              00000000     <absolute>
 0000:00000000       ___x64_code_ranges_to_entry_points_count 00000000     <absolute>
 0000:00000000       ___hybrid_code_map_count   00000000     <absolute>
 0000:00000000       ___x64_code_ranges_to_entry_points 00000000     <absolute>
 0000:00000000       ___guard_iat_table         00000000     <absolute>
 0000:00000000       ___arm64x_native_entrypoint 00000000     <absolute>
 0000:00000000       ___hybrid_code_map         00000000     <absolute>
 0000:00000000       ___arm64x_extra_rfe_table_size 00000000     <absolute>
 0000:00000000       ___guard_longjmp_count     00000000     <absolute>
 0000:00000000       ___arm64x_redirection_metadata_count 00000000     <absolute>
 0000:00000000       ___hybrid_auxiliary_iat    00000000     <absolute>
 0000:00000000       ___dynamic_value_reloc_table 00000000     <absolute>
 0000:00000000       ___AbsoluteZero            00000000     <absolute>
 0000:00000000       ___enclave_config          00000000     <absolute>
 0000:00000000       ___guard_fids_table        00000000     <absolute>
 0000:00000007       ___safe_se_handler_count   00000007     <absolute>
 0000:0000002c       __tls_array                0000002c     <absolute>
 0000:00000100       ___guard_flags             00000100     <absolute>
 0000:00000000       ___ImageBase               10000000     <linker-defined>
 0001:00000080       ?DupWide@_CW@@AAEXXZ       10001080 f   CWString.obj
 0001:0000009c       ?cw_dup@@YGXPBDAAHAAPA_W1@Z 1000109c f   CWString.obj
 0001:00000124       ?cw_memcpy@@YGHPA_WPBDH@Z  10001124 f   CWString.obj
 0001:00000150       ?cw_strcpy@@YAHPA_WPBD@Z   10001150 f   CWString.obj
 0001:00000163       ?cw_strlen@@YAHPBD@Z       10001163 f   CWString.obj
 0001:0000017c       ??0CAtlComModule@ATL@@QAE@XZ 1000117c f i OposVariant.obj
 0001:000001c1       ??0CAtlWinModule@ATL@@QAE@XZ 100011c1 f i OposVariant.obj
 0001:000001f8       ??0OposDispParms@@QAE@PAVOposVariant@@H@Z 100011f8 f   OposVariant.obj
 0001:00000269       ??1OposDispParms@@QAE@XZ   10001269 f   OposVariant.obj
 0001:00000277       ??A?$CSimpleArray@GV?$CSimpleArrayEqualHelper@G@ATL@@@ATL@@QAEAAGH@Z 10001277 f i OposVariant.obj
 0001:0000029c       ??_Estringdispid@CComTypeInfoHolder@ATL@@QAEPAXI@Z 1000129c f i OposVariant.obj
 0001:00000308       ?AtlWinModuleInit@ATL@@YGJPAU_ATL_WIN_MODULE70@1@@Z 10001308 f i OposVariant.obj
 0001:0000032e       ?AtlWinModuleTerm@ATL@@YGJPAU_ATL_WIN_MODULE70@1@PAUHINSTANCE__@@@Z 1000132e f i OposVariant.obj
 0001:00000391       ?ChangeBSTR@OposVariant@@QAEXPAPA_WAAJ@Z 10001391 f   OposVariant.obj
 0001:000003d2       ?ChangeLONG@OposVariant@@QAEXPAJAAJ@Z 100013d2 f   OposVariant.obj
 0001:00000413       ?GetLONG@OposVariant@@QAEJXZ 10001413 f   OposVariant.obj
 0001:0000042e       ?Init@CComCriticalSection@ATL@@QAEJXZ 1000142e f i OposVariant.obj
 0001:00000456       ?RemoveAll@?$CSimpleArray@GV?$CSimpleArrayEqualHelper@G@ATL@@@ATL@@QAEXXZ 10001456 f i OposVariant.obj
 0001:00000456       ?RemoveAll@?$CSimpleArray@PAUHINSTANCE__@@V?$CSimpleArrayEqualHelper@PAUHINSTANCE__@@@ATL@@@ATL@@QAEXXZ 10001456 f i atls:atlbase.obj
 0001:00000473       ?SetBSTR@OposVariant@@QAEXPA_WAAJ@Z 10001473 f   OposVariant.obj
 0001:000004a7       ?SetBSTR_Copy@OposVariant@@QAEXPA_WAAJ@Z 100014a7 f   OposVariant.obj
 0001:000004f7       ?SetBSTR_InOutPtr@OposVariant@@QAE_NPAPA_WAAJ@Z 100014f7 f   OposVariant.obj
 0001:0000052e       ?SetDispatch_Ptr@OposVariant@@QAEXPAUIDispatch@@AAJ@Z 1000152e f   OposVariant.obj
 0001:00000569       ?SetLONG@OposVariant@@QAEXJ@Z 10001569 f   OposVariant.obj
 0001:0000058b       ?SetLONG_Ptr@OposVariant@@QAEXPAJAAJ@Z 1000158b f   OposVariant.obj
 0001:000005be       ?SetString@OposVariant@@QAEXPB_WAAJ@Z 100015be f   OposVariant.obj
 0001:00000604       ?SetVARIANT_BOOL@OposVariant@@QAEXF@Z 10001604 f   OposVariant.obj
 0001:0000062e       ?Term@CAtlComModule@ATL@@QAEXXZ 1000162e f i OposVariant.obj
 0001:00000678       ?_AtlRaiseException@ATL@@YAXKK@Z 10001678 f i OposVariant.obj
 0001:0000068d       ??_E?$CComObject@VCOPOSScanner@@@ATL@@W3AEPAXI@Z 1000168d f i Scanner.obj
 0001:00000695       ??_E?$CComObject@VCOPOSScanner@@@ATL@@WEM@AEPAXI@Z 10001695 f i Scanner.obj
 0001:0000069d       ?QueryInterface@?$CComObject@VCOPOSScanner@@@ATL@@WHA@AGJABU_GUID@@PAPAX@Z 1000169d f i Scanner.obj
 0001:000006a7       ?AddRef@?$CComObject@VCOPOSScanner@@@ATL@@WHA@AGKXZ 100016a7 f i Scanner.obj
 0001:000006b1       ?Release@?$CComObject@VCOPOSScanner@@@ATL@@WHA@AGKXZ 100016b1 f i Scanner.obj
 0001:000006bb       ?QueryInterface@?$CComObject@VCOPOSScanner@@@ATL@@WHE@AGJABU_GUID@@PAPAX@Z 100016bb f i Scanner.obj
 0001:000006c5       ?AddRef@?$CComObject@VCOPOSScanner@@@ATL@@WHE@AGKXZ 100016c5 f i Scanner.obj
 0001:000006cf       ?Release@?$CComObject@VCOPOSScanner@@@ATL@@WHE@AGKXZ 100016cf f i Scanner.obj
 0001:000006d9       ?QueryInterface@?$CComObject@VCOPOSScanner@@@ATL@@WHI@AGJABU_GUID@@PAPAX@Z 100016d9 f i Scanner.obj
 0001:000006e3       ?AddRef@?$CComObject@VCOPOSScanner@@@ATL@@WHI@AGKXZ 100016e3 f i Scanner.obj
 0001:000006ed       ?Release@?$CComObject@VCOPOSScanner@@@ATL@@WHI@AGKXZ 100016ed f i Scanner.obj
 0001:000006f7       ?QueryInterface@?$CComObject@VCOPOSScanner@@@ATL@@WHM@AGJABU_GUID@@PAPAX@Z 100016f7 f i Scanner.obj
 0001:00000701       ?AddRef@?$CComObject@VCOPOSScanner@@@ATL@@WHM@AGKXZ 10001701 f i Scanner.obj
 0001:0000070b       ?Release@?$CComObject@VCOPOSScanner@@@ATL@@WHM@AGKXZ 1000170b f i Scanner.obj
 0001:00000715       ?QueryInterface@?$CComObject@VCOPOSScanner@@@ATL@@WIA@AGJABU_GUID@@PAPAX@Z 10001715 f i Scanner.obj
 0001:00000722       ?AddRef@?$CComObject@VCOPOSScanner@@@ATL@@WIA@AGKXZ 10001722 f i Scanner.obj
 0001:0000072f       ?Release@?$CComObject@VCOPOSScanner@@@ATL@@WIA@AGKXZ 1000172f f i Scanner.obj
 0001:0000073c       ?QueryInterface@?$CComObject@VCOPOSScanner@@@ATL@@WIE@AGJABU_GUID@@PAPAX@Z 1000173c f i Scanner.obj
 0001:00000749       ?AddRef@?$CComObject@VCOPOSScanner@@@ATL@@WIE@AGKXZ 10001749 f i Scanner.obj
 0001:00000756       ?Release@?$CComObject@VCOPOSScanner@@@ATL@@WIE@AGKXZ 10001756 f i Scanner.obj
 0001:00000763       ?QueryInterface@?$CComObject@VCOPOSScanner@@@ATL@@WII@AGJABU_GUID@@PAPAX@Z 10001763 f i Scanner.obj
 0001:00000770       ?AddRef@?$CComObject@VCOPOSScanner@@@ATL@@WII@AGKXZ 10001770 f i Scanner.obj
 0001:0000077d       ?Release@?$CComObject@VCOPOSScanner@@@ATL@@WII@AGKXZ 1000177d f i Scanner.obj
 0001:0000078a       ?QueryInterface@?$CComObject@VCOPOSScanner@@@ATL@@WIM@AGJABU_GUID@@PAPAX@Z 1000178a f i Scanner.obj
 0001:00000797       ?AddRef@?$CComObject@VCOPOSScanner@@@ATL@@WIM@AGKXZ 10001797 f i Scanner.obj
 0001:000007a4       ?Release@?$CComObject@VCOPOSScanner@@@ATL@@WIM@AGKXZ 100017a4 f i Scanner.obj
 0001:000007b1       ?QueryInterface@?$CComObject@VCOPOSScanner@@@ATL@@WJA@AGJABU_GUID@@PAPAX@Z 100017b1 f i Scanner.obj
 0001:000007be       ?AddRef@?$CComObject@VCOPOSScanner@@@ATL@@WJA@AGKXZ 100017be f i Scanner.obj
 0001:000007cb       ?Release@?$CComObject@VCOPOSScanner@@@ATL@@WJA@AGKXZ 100017cb f i Scanner.obj
 0001:000007d8       ?QueryInterface@?$CComObject@VCOPOSScanner@@@ATL@@WJE@AGJABU_GUID@@PAPAX@Z 100017d8 f i Scanner.obj
 0001:000007e5       ?AddRef@?$CComObject@VCOPOSScanner@@@ATL@@WJE@AGKXZ 100017e5 f i Scanner.obj
 0001:000007f2       ?Release@?$CComObject@VCOPOSScanner@@@ATL@@WJE@AGKXZ 100017f2 f i Scanner.obj
 0001:000007ff       ?QueryInterface@?$CComObject@VCOPOSScanner@@@ATL@@WJI@AGJABU_GUID@@PAPAX@Z 100017ff f i Scanner.obj
 0001:0000080c       ?AddRef@?$CComObject@VCOPOSScanner@@@ATL@@WJI@AGKXZ 1000180c f i Scanner.obj
 0001:00000819       ?Release@?$CComObject@VCOPOSScanner@@@ATL@@WJI@AGKXZ 10001819 f i Scanner.obj
 0001:00000826       ?QueryInterface@?$CComObject@VCOPOSScanner@@@ATL@@WJM@AGJABU_GUID@@PAPAX@Z 10001826 f i Scanner.obj
 0001:00000833       ?AddRef@?$CComObject@VCOPOSScanner@@@ATL@@WJM@AGKXZ 10001833 f i Scanner.obj
 0001:00000840       ?Release@?$CComObject@VCOPOSScanner@@@ATL@@WJM@AGKXZ 10001840 f i Scanner.obj
 0001:0000084d       ?QueryInterface@?$CComObject@VCOPOSScanner@@@ATL@@WKA@AGJABU_GUID@@PAPAX@Z 1000184d f i Scanner.obj
 0001:0000085a       ?AddRef@?$CComObject@VCOPOSScanner@@@ATL@@WKA@AGKXZ 1000185a f i Scanner.obj
 0001:00000867       ?Release@?$CComObject@VCOPOSScanner@@@ATL@@WKA@AGKXZ 10001867 f i Scanner.obj
 0001:00000874       ?AddRef@?$CComObject@VCOPOSScanner@@@ATL@@WKI@AGKXZ 10001874 f i Scanner.obj
 0001:00000881       ?Release@?$CComObject@VCOPOSScanner@@@ATL@@WKI@AGKXZ 10001881 f i Scanner.obj
 0001:0000088e       ?AddRef@?$CComObject@VCOPOSScanner@@@ATL@@WLE@AGKXZ 1000188e f i Scanner.obj
 0001:0000089b       ?Release@?$CComObject@VCOPOSScanner@@@ATL@@WLE@AGKXZ 1000189b f i Scanner.obj
 0001:000008a8       ??_E?$CComContainedObject@VCOPOSScanner@@@ATL@@W3AEPAXI@Z 100018a8 f i Scanner.obj
 0001:000008b0       ??_E?$CComContainedObject@VCOPOSScanner@@@ATL@@WEM@AEPAXI@Z 100018b0 f i Scanner.obj
 0001:000008b8       ?QueryInterface@?$CComContainedObject@VCOPOSScanner@@@ATL@@WHA@AGJABU_GUID@@PAPAX@Z 100018b8 f i Scanner.obj
 0001:000008c2       ?AddRef@?$CComContainedObject@VCOPOSScanner@@@ATL@@WHA@AGKXZ 100018c2 f i Scanner.obj
 0001:000008cc       ?Release@?$CComContainedObject@VCOPOSScanner@@@ATL@@WHA@AGKXZ 100018cc f i Scanner.obj
 0001:000008d6       ?QueryInterface@?$CComContainedObject@VCOPOSScanner@@@ATL@@WHE@AGJABU_GUID@@PAPAX@Z 100018d6 f i Scanner.obj
 0001:000008e0       ?AddRef@?$CComContainedObject@VCOPOSScanner@@@ATL@@WHE@AGKXZ 100018e0 f i Scanner.obj
 0001:000008ea       ?Release@?$CComContainedObject@VCOPOSScanner@@@ATL@@WHE@AGKXZ 100018ea f i Scanner.obj
 0001:000008f4       ?QueryInterface@?$CComContainedObject@VCOPOSScanner@@@ATL@@WHI@AGJABU_GUID@@PAPAX@Z 100018f4 f i Scanner.obj
 0001:000008fe       ?AddRef@?$CComContainedObject@VCOPOSScanner@@@ATL@@WHI@AGKXZ 100018fe f i Scanner.obj
 0001:00000908       ?Release@?$CComContainedObject@VCOPOSScanner@@@ATL@@WHI@AGKXZ 10001908 f i Scanner.obj
 0001:00000912       ?QueryInterface@?$CComContainedObject@VCOPOSScanner@@@ATL@@WHM@AGJABU_GUID@@PAPAX@Z 10001912 f i Scanner.obj
 0001:0000091c       ?AddRef@?$CComContainedObject@VCOPOSScanner@@@ATL@@WHM@AGKXZ 1000191c f i Scanner.obj
 0001:00000926       ?Release@?$CComContainedObject@VCOPOSScanner@@@ATL@@WHM@AGKXZ 10001926 f i Scanner.obj
 0001:00000930       ?QueryInterface@?$CComContainedObject@VCOPOSScanner@@@ATL@@WIA@AGJABU_GUID@@PAPAX@Z 10001930 f i Scanner.obj
 0001:0000093d       ?AddRef@?$CComContainedObject@VCOPOSScanner@@@ATL@@WIA@AGKXZ 1000193d f i Scanner.obj
 0001:0000094a       ?Release@?$CComContainedObject@VCOPOSScanner@@@ATL@@WIA@AGKXZ 1000194a f i Scanner.obj
 0001:00000957       ?QueryInterface@?$CComContainedObject@VCOPOSScanner@@@ATL@@WIE@AGJABU_GUID@@PAPAX@Z 10001957 f i Scanner.obj
 0001:00000964       ?AddRef@?$CComContainedObject@VCOPOSScanner@@@ATL@@WIE@AGKXZ 10001964 f i Scanner.obj
 0001:00000971       ?Release@?$CComContainedObject@VCOPOSScanner@@@ATL@@WIE@AGKXZ 10001971 f i Scanner.obj
 0001:0000097e       ?QueryInterface@?$CComContainedObject@VCOPOSScanner@@@ATL@@WII@AGJABU_GUID@@PAPAX@Z 1000197e f i Scanner.obj
 0001:0000098b       ?AddRef@?$CComContainedObject@VCOPOSScanner@@@ATL@@WII@AGKXZ 1000198b f i Scanner.obj
 0001:00000998       ?Release@?$CComContainedObject@VCOPOSScanner@@@ATL@@WII@AGKXZ 10001998 f i Scanner.obj
 0001:000009a5       ?QueryInterface@?$CComContainedObject@VCOPOSScanner@@@ATL@@WIM@AGJABU_GUID@@PAPAX@Z 100019a5 f i Scanner.obj
 0001:000009b2       ?AddRef@?$CComContainedObject@VCOPOSScanner@@@ATL@@WIM@AGKXZ 100019b2 f i Scanner.obj
 0001:000009bf       ?Release@?$CComContainedObject@VCOPOSScanner@@@ATL@@WIM@AGKXZ 100019bf f i Scanner.obj
 0001:000009cc       ?QueryInterface@?$CComContainedObject@VCOPOSScanner@@@ATL@@WJA@AGJABU_GUID@@PAPAX@Z 100019cc f i Scanner.obj
 0001:000009d9       ?AddRef@?$CComContainedObject@VCOPOSScanner@@@ATL@@WJA@AGKXZ 100019d9 f i Scanner.obj
 0001:000009e6       ?Release@?$CComContainedObject@VCOPOSScanner@@@ATL@@WJA@AGKXZ 100019e6 f i Scanner.obj
 0001:000009f3       ?QueryInterface@?$CComContainedObject@VCOPOSScanner@@@ATL@@WJE@AGJABU_GUID@@PAPAX@Z 100019f3 f i Scanner.obj
 0001:00000a00       ?AddRef@?$CComContainedObject@VCOPOSScanner@@@ATL@@WJE@AGKXZ 10001a00 f i Scanner.obj
 0001:00000a0d       ?Release@?$CComContainedObject@VCOPOSScanner@@@ATL@@WJE@AGKXZ 10001a0d f i Scanner.obj
 0001:00000a1a       ?QueryInterface@?$CComContainedObject@VCOPOSScanner@@@ATL@@WJI@AGJABU_GUID@@PAPAX@Z 10001a1a f i Scanner.obj
 0001:00000a27       ?AddRef@?$CComContainedObject@VCOPOSScanner@@@ATL@@WJI@AGKXZ 10001a27 f i Scanner.obj
 0001:00000a34       ?Release@?$CComContainedObject@VCOPOSScanner@@@ATL@@WJI@AGKXZ 10001a34 f i Scanner.obj
 0001:00000a41       ?QueryInterface@?$CComContainedObject@VCOPOSScanner@@@ATL@@WJM@AGJABU_GUID@@PAPAX@Z 10001a41 f i Scanner.obj
 0001:00000a4e       ?AddRef@?$CComContainedObject@VCOPOSScanner@@@ATL@@WJM@AGKXZ 10001a4e f i Scanner.obj
 0001:00000a5b       ?Release@?$CComContainedObject@VCOPOSScanner@@@ATL@@WJM@AGKXZ 10001a5b f i Scanner.obj
 0001:00000a68       ?QueryInterface@?$CComContainedObject@VCOPOSScanner@@@ATL@@WKA@AGJABU_GUID@@PAPAX@Z 10001a68 f i Scanner.obj
 0001:00000a75       ?AddRef@?$CComContainedObject@VCOPOSScanner@@@ATL@@WKA@AGKXZ 10001a75 f i Scanner.obj
 0001:00000a82       ?Release@?$CComContainedObject@VCOPOSScanner@@@ATL@@WKA@AGKXZ 10001a82 f i Scanner.obj
 0001:00000a8f       ?AddRef@?$CComContainedObject@VCOPOSScanner@@@ATL@@WKI@AGKXZ 10001a8f f i Scanner.obj
 0001:00000a9c       ?Release@?$CComContainedObject@VCOPOSScanner@@@ATL@@WKI@AGKXZ 10001a9c f i Scanner.obj
 0001:00000aa9       ?AddRef@?$CComContainedObject@VCOPOSScanner@@@ATL@@WLE@AGKXZ 10001aa9 f i Scanner.obj
 0001:00000ab6       ?Release@?$CComContainedObject@VCOPOSScanner@@@ATL@@WLE@AGKXZ 10001ab6 f i Scanner.obj
 0001:00000ac3       ?CreateInstance@CComClassFactory@ATL@@UAGJPAUIUnknown@@ABU_GUID@@PAPAX@Z 10001ac3 f i Scanner.obj
 0001:00000b01       ?LockServer@CComClassFactory@ATL@@UAGJH@Z 10001b01 f i Scanner.obj
 0001:00000b20       ??_ECComClassFactory@ATL@@UAEPAXI@Z 10001b20 f i Scanner.obj
 0001:00000b20       ??_GCComClassFactory@ATL@@UAEPAXI@Z 10001b20 f i Scanner.obj
 0001:00000b4b       ?GetWindowProc@?$CWindowImplBaseT@VCWindow@ATL@@V?$CWinTraits@$0FGAAAAAA@$0A@@2@@ATL@@UAEP6GJPAUHWND__@@IIJ@ZXZ 10001b4b f i Scanner.obj
 0001:00000b51       ?StartWindowProc@?$CWindowImplBaseT@VCWindow@ATL@@V?$CWinTraits@$0FGAAAAAA@$0A@@2@@ATL@@SGJPAUHWND__@@IIJ@Z 10001b51 f i Scanner.obj
 0001:00000ba5       ?ObjectMain@CComObjectRootBase@ATL@@SGX_N@Z 10001ba5 f i Scanner.obj
 0001:00000ba5       ?OnFinalMessage@?$CWindowImplBaseT@VCWindow@ATL@@V?$CWinTraits@$0FGAAAAAA@$0A@@2@@ATL@@UAEXPAUHWND__@@@Z 10001ba5 f i Scanner.obj
 0001:00000ba8       ?GetTypeInfoCount@?$IDispatchImpl@UIOPOSScanner@@$1?IID_IOPOSScanner@@3U_GUID@@B$1?LIBID_OposScanner_CCO@@3U3@B$00$0A@VCComTypeInfoHolder@ATL@@@ATL@@UAGJPAI@Z 10001ba8 f i Scanner.obj
 0001:00000bc5       ?GetTypeInfo@?$IDispatchImpl@UIOPOSScanner@@$1?IID_IOPOSScanner@@3U_GUID@@B$1?LIBID_OposScanner_CCO@@3U3@B$00$0A@VCComTypeInfoHolder@ATL@@@ATL@@UAGJIKPAPAUITypeInfo@@@Z 10001bc5 f i Scanner.obj
 0001:00000be9       ?GetIDsOfNames@?$IDispatchImpl@UIOPOSScanner@@$1?IID_IOPOSScanner@@3U_GUID@@B$1?LIBID_OposScanner_CCO@@3U3@B$00$0A@VCComTypeInfoHolder@ATL@@@ATL@@UAGJABU_GUID@@PAPA_WIKPAJ@Z 10001be9 f i Scanner.obj
 0001:00000c09       ?Invoke@?$IDispatchImpl@UIOPOSScanner@@$1?IID_IOPOSScanner@@3U_GUID@@B$1?LIBID_OposScanner_CCO@@3U3@B$00$0A@VCComTypeInfoHolder@ATL@@@ATL@@UAGJJABU_GUID@@KGPAUtagDISPPARAMS@@PAUtagVARIANT@@PAUtagEXCEPINFO@@PAI@Z 10001c09 f i Scanner.obj
 0001:00000c17       ?CreateControlWindow@?$CComControl@VCOPOSScanner@@V?$CWindowImpl@VCOPOSScanner@@VCWindow@ATL@@V?$CWinTraits@$0FGAAAAAA@$0A@@3@@ATL@@@ATL@@UAEPAUHWND__@@PAU3@AAUtagRECT@@@Z 10001c17 f i Scanner.obj
 0001:00000c46       ?ControlQueryInterface@?$CComControl@VCOPOSScanner@@V?$CWindowImpl@VCOPOSScanner@@VCWindow@ATL@@V?$CWinTraits@$0FGAAAAAA@$0A@@3@@ATL@@@ATL@@UAEJABU_GUID@@PAPAX@Z 10001c46 f i Scanner.obj
 0001:00000c61       ?GetUserClassID@?$IOleObjectImpl@VCOPOSScanner@@@ATL@@UAGJPAU_GUID@@@Z 10001c61 f i Scanner.obj
 0001:00000c61       ?GetClassID@?$IPersistStreamInitImpl@VCOPOSScanner@@@ATL@@UAGJPAU_GUID@@@Z 10001c61 f i Scanner.obj
 0001:00000c61       ?GetClassID@?$IPersistStorageImpl@VCOPOSScanner@@@ATL@@UAGJPAU_GUID@@@Z 10001c61 f i Scanner.obj
 0001:00000c85       ?IsDirty@?$IPersistStreamInitImpl@VCOPOSScanner@@@ATL@@UAGJXZ 10001c85 f i Scanner.obj
 0001:00000ca4       ?Load@?$IPersistStreamInitImpl@VCOPOSScanner@@@ATL@@UAGJPAUIStream@@@Z 10001ca4 f i Scanner.obj
 0001:00000cc3       ?Save@?$IPersistStreamInitImpl@VCOPOSScanner@@@ATL@@UAGJPAUIStream@@H@Z 10001cc3 f i Scanner.obj
 0001:00000ce5       ?GetSizeMax@?$IPersistStreamInitImpl@VCOPOSScanner@@@ATL@@UAGJPAT_ULARGE_INTEGER@@@Z 10001ce5 f i Scanner.obj
 0001:00000ec4       ?InitNew@?$IPersistStreamInitImpl@VCOPOSScanner@@@ATL@@UAGJXZ 10001ec4 f i Scanner.obj
 0001:00000ee1       ?QueryGetData@?$IDataObjectImpl@VCOPOSScanner@@@ATL@@UAGJPAUtagFORMATETC@@@Z 10001ee1 f i Scanner.obj
 0001:00000ee1       ?GetDropTarget@?$IOleInPlaceObjectWindowlessImpl@VCOPOSScanner@@@ATL@@UAGJPAPAUIDropTarget@@@Z 10001ee1 f i Scanner.obj
 0001:00000ee1       ?SOOutputCompleteDummy@COPOSScanner@@MAGJJ@Z 10001ee1 f i Scanner.obj
 0001:00000ee1       ?SetColorScheme@?$IOleObjectImpl@VCOPOSScanner@@@ATL@@UAGJPAUtagLOGPALETTE@@@Z 10001ee1 f i Scanner.obj
 0001:00000ee1       ?OnMnemonic@?$IOleControlImpl@VCOPOSScanner@@@ATL@@UAGJPAUtagMSG@@@Z 10001ee1 f i Scanner.obj
 0001:00000ee1       ?ContextSensitiveHelp@?$IOleInPlaceActiveObjectImpl@VCOPOSScanner@@@ATL@@UAGJH@Z 10001ee1 f i Scanner.obj
 0001:00000ee1       ?Unfreeze@?$IViewObjectExImpl@VCOPOSScanner@@@ATL@@UAGJK@Z 10001ee1 f i Scanner.obj
 0001:00000ee1       ?ContextSensitiveHelp@?$IOleInPlaceObjectWindowlessImpl@VCOPOSScanner@@@ATL@@UAGJH@Z 10001ee1 f i Scanner.obj
 0001:00000ee1       ?GetControlInfo@?$IOleControlImpl@VCOPOSScanner@@@ATL@@UAGJPAUtagCONTROLINFO@@@Z 10001ee1 f i Scanner.obj
 0001:00000ee9       ?OnFrameWindowActivate@?$IOleInPlaceActiveObjectImpl@VCOPOSScanner@@@ATL@@UAGJH@Z 10001ee9 f i Scanner.obj
 0001:00000ee9       ?SaveCompleted@?$IPersistStorageImpl@VCOPOSScanner@@@ATL@@UAGJPAUIStorage@@@Z 10001ee9 f i Scanner.obj
 0001:00000ee9       ?OnAmbientPropertyChange@?$IOleControlImpl@VCOPOSScanner@@@ATL@@UAGJJ@Z 10001ee9 f i Scanner.obj
 0001:00000ee9       ?EnableModeless@?$IOleInPlaceActiveObjectImpl@VCOPOSScanner@@@ATL@@UAGJH@Z 10001ee9 f i Scanner.obj
 0001:00000eee       ?SetClientSite@?$IOleObjectImpl@VCOPOSScanner@@@ATL@@UAGJPAUIOleClientSite@@@Z 10001eee f i Scanner.obj
 0001:00000f0b       ?GetClientSite@?$IOleObjectImpl@VCOPOSScanner@@@ATL@@UAGJPAPAUIOleClientSite@@@Z 10001f0b f i Scanner.obj
 0001:00000f28       ?SetHostNames@?$IOleObjectImpl@VCOPOSScanner@@@ATL@@UAGJPB_W0@Z 10001f28 f i Scanner.obj
 0001:00000f2d       ?Close@?$IOleObjectImpl@VCOPOSScanner@@@ATL@@UAGJK@Z 10001f2d f i Scanner.obj
 0001:00000f4a       ?EnumFormatEtc@?$IDataObjectImpl@VCOPOSScanner@@@ATL@@UAGJKPAPAUIEnumFORMATETC@@@Z 10001f4a f i Scanner.obj
 0001:00000f4a       ?SetMoniker@?$IOleObjectImpl@VCOPOSScanner@@@ATL@@UAGJKPAUIMoniker@@@Z 10001f4a f i Scanner.obj
 0001:00000f4a       ?GetCanonicalFormatEtc@?$IDataObjectImpl@VCOPOSScanner@@@ATL@@UAGJPAUtagFORMATETC@@0@Z 10001f4a f i Scanner.obj
 0001:00000f4a       ?GetDataHere@?$IDataObjectImpl@VCOPOSScanner@@@ATL@@UAGJPAUtagFORMATETC@@PAUtagSTGMEDIUM@@@Z 10001f4a f i Scanner.obj
 0001:00000f4a       ?QueryInterface@CRegObject@ATL@@UAGJABU_GUID@@PAPAX@Z 10001f4a f i Scanner.obj
 0001:00000f4a       ?GetRect@?$IViewObjectExImpl@VCOPOSScanner@@@ATL@@UAGJKPAU_RECTL@@@Z 10001f4a f i Scanner.obj
 0001:00000f4a       ?GetClipboardData@?$IOleObjectImpl@VCOPOSScanner@@@ATL@@UAGJKPAPAUIDataObject@@@Z 10001f4a f i Scanner.obj
 0001:00000f52       ?GetMoniker@?$IOleObjectImpl@VCOPOSScanner@@@ATL@@UAGJKKPAPAUIMoniker@@@Z 10001f52 f i Scanner.obj
 0001:00000f52       ?SetData@?$IDataObjectImpl@VCOPOSScanner@@@ATL@@UAGJPAUtagFORMATETC@@PAUtagSTGMEDIUM@@H@Z 10001f52 f i Scanner.obj
 0001:00000f52       ?InitFromData@?$IOleObjectImpl@VCOPOSScanner@@@ATL@@UAGJPAUIDataObject@@HK@Z 10001f52 f i Scanner.obj
 0001:00000f5a       ?DoVerb@?$IOleObjectImpl@VCOPOSScanner@@@ATL@@UAGJJPAUtagMSG@@PAUIOleClientSite@@JPAUHWND__@@PBUtagRECT@@@Z 10001f5a f i Scanner.obj
 0001:0000104e       ?EnumVerbs@?$IOleObjectImpl@VCOPOSScanner@@@ATL@@UAGJPAPAUIEnumOLEVERB@@@Z 1000204e f i Scanner.obj
 0001:00001070       ?IsUpToDate@?$IOleObjectImpl@VCOPOSScanner@@@ATL@@UAGJXZ 10002070 f i Scanner.obj
 0001:00001070       ?Release@CRegObject@ATL@@UAGKXZ 10002070 f i Scanner.obj
 0001:00001070       ?HandsOffStorage@?$IPersistStorageImpl@VCOPOSScanner@@@ATL@@UAGJXZ 10002070 f i Scanner.obj
 0001:00001070       ?Update@?$IOleObjectImpl@VCOPOSScanner@@@ATL@@UAGJXZ 10002070 f i Scanner.obj
 0001:00001075       ?GetUserType@?$IOleObjectImpl@VCOPOSScanner@@@ATL@@UAGJKPAPA_W@Z 10002075 f i Scanner.obj
 0001:0000108d       ?SetExtent@?$IOleObjectImpl@VCOPOSScanner@@@ATL@@UAGJKPAUtagSIZE@@@Z 1000208d f i Scanner.obj
 0001:000010ad       ?GetExtent@?$IOleObjectImpl@VCOPOSScanner@@@ATL@@UAGJKPAUtagSIZE@@@Z 100020ad f i Scanner.obj
 0001:000010eb       ?Advise@?$IOleObjectImpl@VCOPOSScanner@@@ATL@@UAGJPAUIAdviseSink@@PAK@Z 100020eb f i Scanner.obj
 0001:0000110b       ?Unadvise@?$IOleObjectImpl@VCOPOSScanner@@@ATL@@UAGJK@Z 1000210b f i Scanner.obj
 0001:0000113a       ?EnumAdvise@?$IOleObjectImpl@VCOPOSScanner@@@ATL@@UAGJPAPAUIEnumSTATDATA@@@Z 1000213a f i Scanner.obj
 0001:0000117a       ?GetMiscStatus@?$IOleObjectImpl@VCOPOSScanner@@@ATL@@UAGJKPAK@Z 1000217a f i Scanner.obj
 0001:00001192       ?GetWindow@?$IOleInPlaceActiveObjectImpl@VCOPOSScanner@@@ATL@@UAGJPAPAUHWND__@@@Z 10002192 f i Scanner.obj
 0001:000011df       ?TranslateAcceleratorW@?$IOleInPlaceActiveObjectImpl@VCOPOSScanner@@@ATL@@UAGJPAUtagMSG@@@Z 100021df f i Scanner.obj
 0001:0000128d       ?OnDocWindowActivate@?$IOleInPlaceActiveObjectImpl@VCOPOSScanner@@@ATL@@UAGJH@Z 1000228d f i Scanner.obj
 0001:000012af       ?ResizeBorder@?$IOleInPlaceActiveObjectImpl@VCOPOSScanner@@@ATL@@UAGJPBUtagRECT@@PAUIOleInPlaceUIWindow@@H@Z 100022af f i Scanner.obj
 0001:000012b4       ?Draw@?$IViewObjectExImpl@VCOPOSScanner@@@ATL@@UAGJKJPAXPAUtagDVTARGETDEVICE@@PAUHDC__@@2PBU_RECTL@@3P6GHK@ZK@Z 100022b4 f i Scanner.obj
 0001:000012e6       ?GetColorSet@?$IViewObjectExImpl@VCOPOSScanner@@@ATL@@UAGJKJPAXPAUtagDVTARGETDEVICE@@PAUHDC__@@PAPAUtagLOGPALETTE@@@Z 100022e6 f i Scanner.obj
 0001:000012ee       ?Freeze@?$IViewObjectExImpl@VCOPOSScanner@@@ATL@@UAGJKJPAXPAK@Z 100022ee f i Scanner.obj
 0001:000012f6       ?SetAdvise@?$IViewObjectExImpl@VCOPOSScanner@@@ATL@@UAGJKKPAUIAdviseSink@@@Z 100022f6 f i Scanner.obj
 0001:00001315       ?GetAdvise@?$IViewObjectExImpl@VCOPOSScanner@@@ATL@@UAGJPAK0PAPAUIAdviseSink@@@Z 10002315 f i Scanner.obj
 0001:0000134a       ?GetExtent@?$IViewObjectExImpl@VCOPOSScanner@@@ATL@@UAGJKJPAUtagDVTARGETDEVICE@@PAUtagSIZE@@@Z 1000234a f i Scanner.obj
 0001:0000137b       ?GetViewStatus@?$IViewObjectExImpl@VCOPOSScanner@@@ATL@@UAGJPAK@Z 1000237b f i Scanner.obj
 0001:00001398       ?QueryHitPoint@?$IViewObjectExImpl@VCOPOSScanner@@@ATL@@UAGJKPBUtagRECT@@UtagPOINT@@JPAK@Z 10002398 f i Scanner.obj
 0001:000013d9       ?QueryHitRect@?$IViewObjectExImpl@VCOPOSScanner@@@ATL@@UAGJKPBUtagRECT@@0JPAK@Z 100023d9 f i Scanner.obj
 0001:00001434       ?GetNaturalExtent@?$IViewObjectExImpl@VCOPOSScanner@@@ATL@@UAGJKJPAUtagDVTARGETDEVICE@@PAUHDC__@@PAUtagExtentInfo@@PAUtagSIZE@@@Z 10002434 f i Scanner.obj
 0001:0000147f       ?GetWindow@?$IOleInPlaceObjectWindowlessImpl@VCOPOSScanner@@@ATL@@UAGJPAPAUHWND__@@@Z 1000247f f i Scanner.obj
 0001:000014cc       ?InPlaceDeactivate@?$IOleInPlaceObjectWindowlessImpl@VCOPOSScanner@@@ATL@@UAGJXZ 100024cc f i Scanner.obj
 0001:000014e6       ?UIDeactivate@?$IOleInPlaceObjectWindowlessImpl@VCOPOSScanner@@@ATL@@UAGJXZ 100024e6 f i Scanner.obj
 0001:00001500       ?SetObjectRects@?$IOleInPlaceObjectWindowlessImpl@VCOPOSScanner@@@ATL@@UAGJPBUtagRECT@@0@Z 10002500 f i Scanner.obj
 0001:00001520       ?ReactivateAndUndo@?$IOleInPlaceObjectWindowlessImpl@VCOPOSScanner@@@ATL@@UAGJXZ 10002520 f i Scanner.obj
 0001:00001528       ?OnWindowMessage@?$IOleInPlaceObjectWindowlessImpl@VCOPOSScanner@@@ATL@@UAGJIIJPAJ@Z 10002528 f i Scanner.obj
 0001:00001598       ?EnumConnectionPoints@?$IConnectionPointContainerImpl@VCOPOSScanner@@@ATL@@UAGJPAPAUIEnumConnectionPoints@@@Z 10002598 f i Scanner.obj
 0001:00001724       ?FindConnectionPoint@?$IConnectionPointContainerImpl@VCOPOSScanner@@@ATL@@UAGJABU_GUID@@PAPAUIConnectionPoint@@@Z 10002724 f i Scanner.obj
 0001:000017c7       ?IsDirty@?$IPersistStorageImpl@VCOPOSScanner@@@ATL@@UAGJXZ 100027c7 f i Scanner.obj
 0001:000017f7       ?InitNew@?$IPersistStorageImpl@VCOPOSScanner@@@ATL@@UAGJPAUIStorage@@@Z 100027f7 f i Scanner.obj
 0001:00001827       ?Load@?$IPersistStorageImpl@VCOPOSScanner@@@ATL@@UAGJPAUIStorage@@@Z 10002827 f i Scanner.obj
 0001:00001893       ?Save@?$IPersistStorageImpl@VCOPOSScanner@@@ATL@@UAGJPAUIStorage@@H@Z 10002893 f i Scanner.obj
 0001:00001906       ?GetPages@?$ISpecifyPropertyPagesImpl@VCOPOSScanner@@@ATL@@UAGJPAUtagCAUUID@@@Z 10002906 f i Scanner.obj
 0001:0000191d       ?QuickActivate@?$IQuickActivateImpl@VCOPOSScanner@@@ATL@@UAGJPAUtagQACONTAINER@@PAUtagQACONTROL@@@Z 1000291d f i Scanner.obj
 0001:00001940       ?SetContentExtent@?$IQuickActivateImpl@VCOPOSScanner@@@ATL@@UAGJPAUtagSIZE@@@Z 10002940 f i Scanner.obj
 0001:0000196c       ?GetContentExtent@?$IQuickActivateImpl@VCOPOSScanner@@@ATL@@UAGJPAUtagSIZE@@@Z 1000296c f i Scanner.obj
 0001:000019a8       ?GetData@?$IDataObjectImpl@VCOPOSScanner@@@ATL@@UAGJPAUtagFORMATETC@@PAUtagSTGMEDIUM@@@Z 100029a8 f i Scanner.obj
 0001:000019cb       ?DAdvise@?$IDataObjectImpl@VCOPOSScanner@@@ATL@@UAGJPAUtagFORMATETC@@KPAUIAdviseSink@@PAK@Z 100029cb f i Scanner.obj
 0001:00001a0c       ?DUnadvise@?$IDataObjectImpl@VCOPOSScanner@@@ATL@@UAGJK@Z 10002a0c f i Scanner.obj
 0001:00001a3a       ?EnumDAdvise@?$IDataObjectImpl@VCOPOSScanner@@@ATL@@UAGJPAPAUIEnumSTATDATA@@@Z 10002a3a f i Scanner.obj
 0001:00001a79       ?GetClassInfoW@?$IProvideClassInfo2Impl@$1?CLSID_OPOSScanner@@3U_GUID@@B$1?DIID__IOPOSScannerEvents@@3U2@B$1?LIBID_OposScanner_CCO@@3U2@B$00$0A@VCComTypeInfoHolder@ATL@@@ATL@@UAGJPAPAUITypeInfo@@@Z 10002a79 f i Scanner.obj
 0001:00001a8f       ?GetGUID@?$IProvideClassInfo2Impl@$1?CLSID_OPOSScanner@@3U_GUID@@B$1?DIID__IOPOSScannerEvents@@3U2@B$1?LIBID_OposScanner_CCO@@3U2@B$00$0A@VCComTypeInfoHolder@ATL@@@ATL@@UAGJKPAU_GUID@@@Z 10002a8f f i Scanner.obj
 0001:00001acd       __get_startup_argv_mode    10002acd f i LIBCMT:argv_mode.obj
 0001:00001acd       ?FAccessAllowed@?$IObjectSafetyImpl@VCOPOSScanner@@$02@ATL@@MAEHXZ 10002acd f i Scanner.obj
 0001:00001ad1       ?GetInterfaceSafetyOptions@?$IObjectSafetyImpl@VCOPOSScanner@@$02@ATL@@UAGJABU_GUID@@PAK1@Z 10002ad1 f i Scanner.obj
 0001:00001b45       ?SetInterfaceSafetyOptions@?$IObjectSafetyImpl@VCOPOSScanner@@$02@ATL@@UAGJABU_GUID@@KK@Z 10002b45 f i Scanner.obj
 0001:00001bbf       ?_LocCPQueryInterface@?$IConnectionPointImpl@VCOPOSScanner@@$1?IID_IPropertyNotifySink@@3U_GUID@@BVCComDynamicUnkArray@ATL@@@ATL@@UAGJABU_GUID@@PAPAX@Z 10002bbf f i Scanner.obj
 0001:00001bbf       ?_LocCPQueryInterface@?$IConnectionPointImpl@VCOPOSScanner@@$1?DIID__IOPOSScannerEvents@@3U_GUID@@BVCComDynamicUnkArray@ATL@@@ATL@@UAGJABU_GUID@@PAPAX@Z 10002bbf f i Scanner.obj
 0001:00001c0c       ?GetConnectionInterface@?$IConnectionPointImpl@VCOPOSScanner@@$1?IID_IPropertyNotifySink@@3U_GUID@@BVCComDynamicUnkArray@ATL@@@ATL@@UAGJPAU_GUID@@@Z 10002c0c f i Scanner.obj
 0001:00001c30       ?GetConnectionPointContainer@?$IConnectionPointImpl@VCOPOSScanner@@$1?IID_IPropertyNotifySink@@3U_GUID@@BVCComDynamicUnkArray@ATL@@@ATL@@UAGJPAPAUIConnectionPointContainer@@@Z 10002c30 f i Scanner.obj
 0001:00001c53       ?Advise@?$IConnectionPointImpl@VCOPOSScanner@@$1?IID_IPropertyNotifySink@@3U_GUID@@BVCComDynamicUnkArray@ATL@@@ATL@@UAGJPAUIUnknown@@PAK@Z 10002c53 f i Scanner.obj
 0001:00001c53       ?Advise@?$IConnectionPointImpl@VCOPOSScanner@@$1?DIID__IOPOSScannerEvents@@3U_GUID@@BVCComDynamicUnkArray@ATL@@@ATL@@UAGJPAUIUnknown@@PAK@Z 10002c53 f i Scanner.obj
 0001:00001cf3       ?Unadvise@?$IConnectionPointImpl@VCOPOSScanner@@$1?IID_IPropertyNotifySink@@3U_GUID@@BVCComDynamicUnkArray@ATL@@@ATL@@UAGJK@Z 10002cf3 f i Scanner.obj
 0001:00001cf3       ?Unadvise@?$IConnectionPointImpl@VCOPOSScanner@@$1?DIID__IOPOSScannerEvents@@3U_GUID@@BVCComDynamicUnkArray@ATL@@@ATL@@UAGJK@Z 10002cf3 f i Scanner.obj
 0001:00001d33       ?EnumConnections@?$IConnectionPointImpl@VCOPOSScanner@@$1?IID_IPropertyNotifySink@@3U_GUID@@BVCComDynamicUnkArray@ATL@@@ATL@@UAGJPAPAUIEnumConnections@@@Z 10002d33 f i Scanner.obj
 0001:00001d33       ?EnumConnections@?$IConnectionPointImpl@VCOPOSScanner@@$1?DIID__IOPOSScannerEvents@@3U_GUID@@BVCComDynamicUnkArray@ATL@@@ATL@@UAGJPAPAUIEnumConnections@@@Z 10002d33 f i Scanner.obj
 0001:00001e2e       ?GetCategoryMap@CComObjectRootBase@ATL@@SAPBU_ATL_CATMAP_ENTRY@2@XZ 10002e2e f i Scanner.obj
 0001:00001e2e       ?GetObjectDescription@?$CComCoClass@VCOPOSScanner@@$1?CLSID_OPOSScanner@@3U_GUID@@B@ATL@@SGPB_WXZ 10002e2e f i Scanner.obj
 0001:00001e31       ?GetConnectionInterface@?$IConnectionPointImpl@VCOPOSScanner@@$1?DIID__IOPOSScannerEvents@@3U_GUID@@BVCComDynamicUnkArray@ATL@@@ATL@@UAGJPAU_GUID@@@Z 10002e31 f i Scanner.obj
 0001:00001e55       ?GetConnectionPointContainer@?$IConnectionPointImpl@VCOPOSScanner@@$1?DIID__IOPOSScannerEvents@@3U_GUID@@BVCComDynamicUnkArray@ATL@@@ATL@@UAGJPAPAUIConnectionPointContainer@@@Z 10002e55 f i Scanner.obj
 0001:00001e78       ?UpdateRegistry@COPOSScanner@@SGJH@Z 10002e78 f i Scanner.obj
 0001:00001e90       ?ProcessWindowMessage@COPOSScanner@@UAEHPAUHWND__@@IIJAAJK@Z 10002e90 f i Scanner.obj
 0001:00001ed9       ?SOData@COPOSScanner@@MAGJJ@Z 10002ed9 f i Scanner.obj
 0001:00001f12       ?SODirectIO@COPOSScanner@@MAGJJPAJPAPA_W@Z 10002f12 f i Scanner.obj
 0001:00001f5b       ?Lock@CAtlModule@ATL@@UAEJXZ 10002f5b f i Scanner.obj
 0001:00001f65       ?Unlock@CAtlModule@ATL@@UAEJXZ 10002f65 f i Scanner.obj
 0001:00001f6f       ?GetLockCount@CAtlModule@ATL@@UAEJXZ 10002f6f f i Scanner.obj
 0001:00001f73       ?SOError@COPOSScanner@@MAGJJJJPAJ@Z 10002f73 f i Scanner.obj
 0001:00001fc8       ?GetGITPtr@CAtlModule@ATL@@UAEJPAPAUIGlobalInterfaceTable@@@Z 10002fc8 f i Scanner.obj
 0001:00002014       ?SOStatusUpdate@COPOSScanner@@MAGJJ@Z 10003014 f i Scanner.obj
 0001:0000204d       ?AddCommonRGSReplacements@?$CAtlModuleT@VCComModule@ATL@@@ATL@@UAEJPAUIRegistrarBase@@@Z 1000304d f i Scanner.obj
 0001:00002067       ?UpdateRegistryFromResourceD@CComModule@ATL@@UAGJPB_WHPAU_ATL_REGMAP_ENTRY@2@@Z 10003067 f i Scanner.obj
 0001:00002067       ?UpdateRegistryFromResourceD@CComModule@ATL@@UAGJIHPAU_ATL_REGMAP_ENTRY@2@@Z 10003067 f i Scanner.obj
 0001:0000206f       ?UpdateRegistryFromResource@CComModule@ATL@@UAGJPB_WHPAU_ATL_REGMAP_ENTRY@2@@Z 1000306f f i Scanner.obj
 0001:00002078       ?UpdateRegistryFromResource@CComModule@ATL@@UAGJIHPAU_ATL_REGMAP_ENTRY@2@@Z 10003078 f i Scanner.obj
 0001:00002081       ??_GCComModule@ATL@@UAEPAXI@Z 10003081 f i Scanner.obj
 0001:00002081       ??_ECComModule@ATL@@UAEPAXI@Z 10003081 f i Scanner.obj
 0001:000020a9       ?CreateInstance@?$CComCreator@V?$CComObjectCached@VCComClassFactory@ATL@@@ATL@@@ATL@@SGJPAXABU_GUID@@PAPAX@Z 100030a9 f i Scanner.obj
 0001:00002149       ?CreateInstance@?$CComCreator2@V?$CComCreator@V?$CComObject@VCOPOSScanner@@@ATL@@@ATL@@V?$CComCreator@V?$CComAggObject@VCOPOSScanner@@@ATL@@@2@@ATL@@SGJPAXABU_GUID@@PAPAX@Z 10003149 f i Scanner.obj
 0001:00002169       ?AddRef@?$CComObjectCached@VCComClassFactory@ATL@@@ATL@@UAGKXZ 10003169 f i Scanner.obj
 0001:00002190       ?Release@?$CComObjectCached@VCComClassFactory@ATL@@@ATL@@UAGKXZ 10003190 f i Scanner.obj
 0001:000021c6       ?QueryInterface@?$CComObjectCached@VCComClassFactory@ATL@@@ATL@@UAGJABU_GUID@@PAPAX@Z 100031c6 f i Scanner.obj
 0001:000021e0       ??_E?$CComObjectCached@VCComClassFactory@ATL@@@ATL@@UAEPAXI@Z 100031e0 f i Scanner.obj
 0001:000021e0       ??_G?$CComObjectCached@VCComClassFactory@ATL@@@ATL@@UAEPAXI@Z 100031e0 f i Scanner.obj
 0001:00002202       ?Next@?$CComEnumImpl@UIEnumConnectionPoints@@$1?_GUID_b196b285_bab4_101a_b69c_00aa00341d07@@3U__s_GUID@@BPAUIConnectionPoint@@V?$_CopyInterface@UIConnectionPoint@@@ATL@@@ATL@@UAGJKPAPAUIConnectionPoint@@PAK@Z 10003202 f i Scanner.obj
 0001:000022d9       ?Skip@?$CComEnumImpl@UIEnumConnectionPoints@@$1?_GUID_b196b285_bab4_101a_b69c_00aa00341d07@@3U__s_GUID@@BPAUIConnectionPoint@@V?$_CopyInterface@UIConnectionPoint@@@ATL@@@ATL@@UAGJK@Z 100032d9 f i Scanner.obj
 0001:00002306       ?Reset@?$CComEnumImpl@UIEnumConnections@@$1?_GUID_b196b287_bab4_101a_b69c_00aa00341d07@@3U__s_GUID@@BUtagCONNECTDATA@@V?$_Copy@UtagCONNECTDATA@@@ATL@@@ATL@@UAGJXZ 10003306 f i Scanner.obj
 0001:00002306       ?Reset@?$CComEnumImpl@UIEnumConnectionPoints@@$1?_GUID_b196b285_bab4_101a_b69c_00aa00341d07@@3U__s_GUID@@BPAUIConnectionPoint@@V?$_CopyInterface@UIConnectionPoint@@@ATL@@@ATL@@UAGJXZ 10003306 f i Scanner.obj
 0001:00002318       ?Clone@?$CComEnumImpl@UIEnumConnectionPoints@@$1?_GUID_b196b285_bab4_101a_b69c_00aa00341d07@@3U__s_GUID@@BPAUIConnectionPoint@@V?$_CopyInterface@UIConnectionPoint@@@ATL@@@ATL@@UAGJPAPAUIEnumConnectionPoints@@@Z 10003318 f i Scanner.obj
 0001:000023f9       ?AddRef@?$CComObject@V?$CComEnum@UIEnumConnectionPoints@@$1?_GUID_b196b285_bab4_101a_b69c_00aa00341d07@@3U__s_GUID@@BPAUIConnectionPoint@@V?$_CopyInterface@UIConnectionPoint@@@ATL@@VCComSingleThreadModel@6@@ATL@@@ATL@@UAGKXZ 100033f9 f i Scanner.obj
 0001:000023f9       ?AddRef@?$CComObject@V?$CComEnum@UIEnumConnections@@$1?_GUID_b196b287_bab4_101a_b69c_00aa00341d07@@3U__s_GUID@@BUtagCONNECTDATA@@V?$_Copy@UtagCONNECTDATA@@@ATL@@VCComSingleThreadModel@6@@ATL@@@ATL@@UAGKXZ 100033f9 f i Scanner.obj
 0001:0000240a       ?Release@?$CComObject@V?$CComEnum@UIEnumConnections@@$1?_GUID_b196b287_bab4_101a_b69c_00aa00341d07@@3U__s_GUID@@BUtagCONNECTDATA@@V?$_Copy@UtagCONNECTDATA@@@ATL@@VCComSingleThreadModel@6@@ATL@@@ATL@@UAGKXZ 1000340a f i Scanner.obj
 0001:0000240a       ?Release@?$CComObject@V?$CComEnum@UIEnumConnectionPoints@@$1?_GUID_b196b285_bab4_101a_b69c_00aa00341d07@@3U__s_GUID@@BPAUIConnectionPoint@@V?$_CopyInterface@UIConnectionPoint@@@ATL@@VCComSingleThreadModel@6@@ATL@@@ATL@@UAGKXZ 1000340a f i Scanner.obj
 0001:00002446       ?QueryInterface@?$CComObject@V?$CComEnum@UIEnumConnectionPoints@@$1?_GUID_b196b285_bab4_101a_b69c_00aa00341d07@@3U__s_GUID@@BPAUIConnectionPoint@@V?$_CopyInterface@UIConnectionPoint@@@ATL@@VCComSingleThreadModel@6@@ATL@@@ATL@@UAGJABU_GUID@@PAPAX@Z 10003446 f i Scanner.obj
 0001:00002460       ??_E?$CComObject@V?$CComEnum@UIEnumConnectionPoints@@$1?_GUID_b196b285_bab4_101a_b69c_00aa00341d07@@3U__s_GUID@@BPAUIConnectionPoint@@V?$_CopyInterface@UIConnectionPoint@@@ATL@@VCComSingleThreadModel@6@@ATL@@@ATL@@UAEPAXI@Z 10003460 f i Scanner.obj
 0001:00002460       ??_G?$CComObject@V?$CComEnum@UIEnumConnectionPoints@@$1?_GUID_b196b285_bab4_101a_b69c_00aa00341d07@@3U__s_GUID@@BPAUIConnectionPoint@@V?$_CopyInterface@UIConnectionPoint@@@ATL@@VCComSingleThreadModel@6@@ATL@@@ATL@@UAEPAXI@Z 10003460 f i Scanner.obj
 0001:00002482       ?AddRef@CRegObject@ATL@@UAGKXZ 10003482 f i Scanner.obj
 0001:00002488       ?AddReplacement@CRegObject@ATL@@UAGJPB_W0@Z 10003488 f i Scanner.obj
 0001:000024c1       ?ClearReplacements@CRegObject@ATL@@UAGJXZ 100034c1 f i Scanner.obj
 0001:000024d3       ??_ECRegObject@ATL@@UAEPAXI@Z 100034d3 f i Scanner.obj
 0001:000024d3       ??_GCRegObject@ATL@@UAEPAXI@Z 100034d3 f i Scanner.obj
 0001:000024f5       ?AddRef@?$CComAggObject@VCOPOSScanner@@@ATL@@UAGKXZ 100034f5 f i Scanner.obj
 0001:00002506       ?Release@?$CComAggObject@VCOPOSScanner@@@ATL@@UAGKXZ 10003506 f i Scanner.obj
 0001:00002542       ?QueryInterface@?$CComAggObject@VCOPOSScanner@@@ATL@@UAGJABU_GUID@@PAPAX@Z 10003542 f i Scanner.obj
 0001:00002591       ?AddRef@?$CComContainedObject@VCOPOSScanner@@@ATL@@UAGKXZ 10003591 f i Scanner.obj
 0001:000025a7       ?Release@?$CComContainedObject@VCOPOSScanner@@@ATL@@UAGKXZ 100035a7 f i Scanner.obj
 0001:000025bd       ?QueryInterface@?$CComContainedObject@VCOPOSScanner@@@ATL@@UAGJABU_GUID@@PAPAX@Z 100035bd f i Scanner.obj
 0001:000025d8       ??_G?$CComAggObject@VCOPOSScanner@@@ATL@@UAEPAXI@Z 100035d8 f i Scanner.obj
 0001:000025d8       ??_E?$CComAggObject@VCOPOSScanner@@@ATL@@UAEPAXI@Z 100035d8 f i Scanner.obj
 0001:000025fd       ?AddRef@?$CComObject@VCOPOSScanner@@@ATL@@UAGKXZ 100035fd f i Scanner.obj
 0001:00002614       ?Release@?$CComObject@VCOPOSScanner@@@ATL@@UAGKXZ 10003614 f i Scanner.obj
 0001:00002656       ?QueryInterface@?$CComObject@VCOPOSScanner@@@ATL@@UAGJABU_GUID@@PAPAX@Z 10003656 f i Scanner.obj
 0001:00002670       ?OnDrawAdvanced@CComControlBase@ATL@@UAEJAAUATL_DRAWINFO@@@Z 10003670 f i Scanner.obj
 0001:00002763       ?Next@?$CComEnumImpl@UIEnumConnections@@$1?_GUID_b196b287_bab4_101a_b69c_00aa00341d07@@3U__s_GUID@@BUtagCONNECTDATA@@V?$_Copy@UtagCONNECTDATA@@@ATL@@@ATL@@UAGJKPAUtagCONNECTDATA@@PAK@Z 10003763 f i Scanner.obj
 0001:0000283a       ?Skip@?$CComEnumImpl@UIEnumConnections@@$1?_GUID_b196b287_bab4_101a_b69c_00aa00341d07@@3U__s_GUID@@BUtagCONNECTDATA@@V?$_Copy@UtagCONNECTDATA@@@ATL@@@ATL@@UAGJK@Z 1000383a f i Scanner.obj
 0001:00002867       ?Clone@?$CComEnumImpl@UIEnumConnections@@$1?_GUID_b196b287_bab4_101a_b69c_00aa00341d07@@3U__s_GUID@@BUtagCONNECTDATA@@V?$_Copy@UtagCONNECTDATA@@@ATL@@@ATL@@UAGJPAPAUIEnumConnections@@@Z 10003867 f i Scanner.obj
 0001:00002948       ?QueryInterface@?$CComObject@V?$CComEnum@UIEnumConnections@@$1?_GUID_b196b287_bab4_101a_b69c_00aa00341d07@@3U__s_GUID@@BUtagCONNECTDATA@@V?$_Copy@UtagCONNECTDATA@@@ATL@@VCComSingleThreadModel@6@@ATL@@@ATL@@UAGJABU_GUID@@PAPAX@Z 10003948 f i Scanner.obj
 0001:00002962       ??_G?$CComObject@V?$CComEnum@UIEnumConnections@@$1?_GUID_b196b287_bab4_101a_b69c_00aa00341d07@@3U__s_GUID@@BUtagCONNECTDATA@@V?$_Copy@UtagCONNECTDATA@@@ATL@@VCComSingleThreadModel@6@@ATL@@@ATL@@UAEPAXI@Z 10003962 f i Scanner.obj
 0001:00002962       ??_E?$CComObject@V?$CComEnum@UIEnumConnections@@$1?_GUID_b196b287_bab4_101a_b69c_00aa00341d07@@3U__s_GUID@@BUtagCONNECTDATA@@V?$_Copy@UtagCONNECTDATA@@@ATL@@VCComSingleThreadModel@6@@ATL@@@ATL@@UAEPAXI@Z 10003962 f i Scanner.obj
 0001:00002984       ??$?4UITypeInfo2@@@?$CComPtr@UITypeInfo@@@ATL@@QAEPAUITypeInfo@@ABV?$CComPtr@UITypeInfo2@@@1@@Z 10003984 f i Scanner.obj
 0001:000029b1       ??$AtlAdd@K@ATL@@YAJPAKKK@Z 100039b1 f i Scanner.obj
 0001:000029d4       ??$AtlAdd@_K@ATL@@YAJPA_K_K1@Z 100039d4 f i Scanner.obj
 0001:00002a0c       ??$AtlAddThrow@K@ATL@@YAKKK@Z 10003a0c f i Scanner.obj
 0001:00002a32       ??$AtlModuleRegisterWndClassInfoT@VAtlModuleRegisterWndClassInfoParamW@ATL@@@ATL@@YAGPAU_ATL_BASE_MODULE70@0@PAU_ATL_WIN_MODULE70@0@PAU_ATL_WNDCLASSINFOW@0@PAP6GJPAUHWND__@@IIJ@ZVAtlModuleRegisterWndClassInfoParamW@0@@Z 10003a32 f i Scanner.obj
 0001:00002b80       ??$AtlMultiply@H@ATL@@YAJPAHHH@Z 10003b80 f i Scanner.obj
 0001:00002bb8       ??$AtlMultiply@I@ATL@@YAJPAIII@Z 10003bb8 f i Scanner.obj
 0001:00002bb8       ??$AtlMultiply@K@ATL@@YAJPAKKK@Z 10003bb8 f i Scanner.obj
 0001:00002bda       ??$AtlMultiplyThrow@I@ATL@@YAIII@Z 10003bda f i Scanner.obj
 0001:00002c00       ??0?$CComAggObject@VCOPOSScanner@@@ATL@@QAE@PAX@Z 10003c00 f i Scanner.obj
 0001:00002c2d       ??0?$CComContainedObject@VCOPOSScanner@@@ATL@@QAE@PAX@Z 10003c2d f i Scanner.obj
 0001:00002ce6       ??0?$CComObject@V?$CComEnum@UIEnumConnectionPoints@@$1?_GUID_b196b285_bab4_101a_b69c_00aa00341d07@@3U__s_GUID@@BPAUIConnectionPoint@@V?$_CopyInterface@UIConnectionPoint@@@ATL@@VCComSingleThreadModel@6@@ATL@@@ATL@@QAE@PAX@Z 10003ce6 f i Scanner.obj
 0001:00002d14       ??0?$CComObject@V?$CComEnum@UIEnumConnections@@$1?_GUID_b196b287_bab4_101a_b69c_00aa00341d07@@3U__s_GUID@@BUtagCONNECTDATA@@V?$_Copy@UtagCONNECTDATA@@@ATL@@VCComSingleThreadModel@6@@ATL@@@ATL@@QAE@PAX@Z 10003d14 f i Scanner.obj
 0001:00002d42       ??0?$CComObject@VCOPOSScanner@@@ATL@@QAE@PAX@Z 10003d42 f i Scanner.obj
 0001:00002df9       ??0?$CComQIPtr@UIOleControlSite@@$1?_GUID_b196b289_bab4_101a_b69c_00aa00341d07@@3U__s_GUID@@B@ATL@@QAE@PAUIUnknown@@@Z 10003df9 f i Scanner.obj
 0001:00002e22       ??0CAtlModule@ATL@@QAE@XZ  10003e22 f i Scanner.obj
 0001:00002e63       ??0CParseBuffer@CRegParser@ATL@@QAE@H@Z 10003e63 f i Scanner.obj
 0001:00002e99       ??0_ATL_MSG@ATL@@QAE@PAUHWND__@@IIJH@Z 10003e99 f i Scanner.obj
 0001:00002ed1       ??1?$CComAggObject@VCOPOSScanner@@@ATL@@UAE@XZ 10003ed1 f i Scanner.obj
 0001:00002ef5       ??1?$CComEnumImpl@UIEnumConnectionPoints@@$1?_GUID_b196b285_bab4_101a_b69c_00aa00341d07@@3U__s_GUID@@BPAUIConnectionPoint@@V?$_CopyInterface@UIConnectionPoint@@@ATL@@@ATL@@UAE@XZ 10003ef5 f i Scanner.obj
 0001:00002f35       ??1?$CComEnumImpl@UIEnumConnections@@$1?_GUID_b196b287_bab4_101a_b69c_00aa00341d07@@3U__s_GUID@@BUtagCONNECTDATA@@V?$_Copy@UtagCONNECTDATA@@@ATL@@@ATL@@UAE@XZ 10003f35 f i Scanner.obj
 0001:00002f75       ??1?$CComObject@V?$CComEnum@UIEnumConnectionPoints@@$1?_GUID_b196b285_bab4_101a_b69c_00aa00341d07@@3U__s_GUID@@BPAUIConnectionPoint@@V?$_CopyInterface@UIConnectionPoint@@@ATL@@VCComSingleThreadModel@6@@ATL@@@ATL@@UAE@XZ 10003f75 f i Scanner.obj
 0001:00002f98       ??1?$CComObject@V?$CComEnum@UIEnumConnections@@$1?_GUID_b196b287_bab4_101a_b69c_00aa00341d07@@3U__s_GUID@@BUtagCONNECTDATA@@V?$_Copy@UtagCONNECTDATA@@@ATL@@VCComSingleThreadModel@6@@ATL@@@ATL@@UAE@XZ 10003f98 f i Scanner.obj
 0001:00002fbb       ??1?$CComObject@VCOPOSScanner@@@ATL@@UAE@XZ 10003fbb f i Scanner.obj
 0001:00003079       ??1?$CComObjectCached@VCComClassFactory@ATL@@@ATL@@UAE@XZ 10004079 f i Scanner.obj
 0001:0000308f       ??1?$CComObjectRootEx@VCComMultiThreadModel@ATL@@@ATL@@QAE@XZ 1000408f f i Scanner.obj
 0001:000030a4       ??1CRegObject@ATL@@UAE@XZ  100040a4 f i Scanner.obj
 0001:000030c4       ??4?$CComPtr@UIUnknown@@@ATL@@QAEPAUIUnknown@@PAU2@@Z 100040c4 f i Scanner.obj
 0001:000030c4       ??4?$CComPtr@UIAdviseSink@@@ATL@@QAEPAUIAdviseSink@@PAU2@@Z 100040c4 f i Scanner.obj
 0001:000030c4       ??4?$CComPtr@UIOleClientSite@@@ATL@@QAEPAUIOleClientSite@@PAU2@@Z 100040c4 f i Scanner.obj
 0001:000030f8       ??_E?$CComContainedObject@VCOPOSScanner@@@ATL@@UAEPAXI@Z 100040f8 f i Scanner.obj
 0001:000030f8       ??_G?$CComContainedObject@VCOPOSScanner@@@ATL@@UAEPAXI@Z 100040f8 f i Scanner.obj
 0001:0000311d       ??_E?$CComObject@VCOPOSScanner@@@ATL@@UAEPAXI@Z 1000411d f i Scanner.obj
 0001:0000311d       ??_G?$CComObject@VCOPOSScanner@@@ATL@@UAEPAXI@Z 1000411d f i Scanner.obj
 0001:00003142       ?Add@?$CSimpleArray@GV?$CSimpleArrayEqualHelper@G@ATL@@@ATL@@QAEHABG@Z 10004142 f i Scanner.obj
 0001:000031c6       ?Add@?$CSimpleMap@PA_WPA_WVCExpansionVectorEqualHelper@ATL@@@ATL@@QAEHABQA_W0@Z 100041c6 f i Scanner.obj
 0001:0000321b       ?Add@CComDynamicUnkArray@ATL@@QAEKPAUIUnknown@@@Z 1000421b f i Scanner.obj
 0001:000032d1       ?Add@CExpansionVector@ATL@@QAEHPB_W0@Z 100042d1 f i Scanner.obj
 0001:000033da       ?AddString@CParseBuffer@CRegParser@ATL@@QAEHPB_W@Z 100043da f i Scanner.obj
 0001:0000340f       ?AddTermFunc@CAtlModule@ATL@@QAEJP6GXK@ZK@Z 1000440f f i Scanner.obj
 0001:00003472       ?AddValue@CRegParser@ATL@@IAEJAAVCRegKey@2@PB_WPA_W@Z 10004472 f i Scanner.obj
 0001:0000378c       ?Allocate@?$CAtlSafeAllocBufferManager@VCCRTAllocator@ATL@@@_ATL_SAFE_ALLOCA_IMPL@ATL@@QAEPAXK@Z 1000478c f i Scanner.obj
 0001:000037b9       ?Allocate@?$CTempBuffer@E$0BAA@VCCRTAllocator@ATL@@@ATL@@QAEPAEI@Z 100047b9 f i Scanner.obj
 0001:000037e8       ?Allocate@?$CTempBuffer@_W$0BAA@VCCRTAllocator@ATL@@@ATL@@QAEPA_WI@Z 100047e8 f i Scanner.obj
 0001:00003817       ?Allocate@?$CTempBuffer@_W$0EAA@VCCRTAllocator@ATL@@@ATL@@QAEPA_WI@Z 10004817 f i Scanner.obj
 0001:00003846       ?AllocateHeap@?$CTempBuffer@_W$0EAA@VCCRTAllocator@ATL@@@ATL@@AAEXI@Z 10004846 f i Scanner.obj
 0001:00003846       ?AllocateHeap@?$CTempBuffer@_W$0BAA@VCCRTAllocator@ATL@@@ATL@@AAEXI@Z 10004846 f i Scanner.obj
 0001:00003846       ?AllocateHeap@?$CTempBuffer@E$0BAA@VCCRTAllocator@ATL@@@ATL@@AAEXI@Z 10004846 f i Scanner.obj
 0001:0000386b       ?Append@CParseBuffer@CRegParser@ATL@@QAEHPB_WH@Z 1000486b f i Scanner.obj
 0001:000038f9       ?AtlCoTaskMemCAlloc@ATL@@YAPAXKK@Z 100048f9 f i Scanner.obj
 0001:00003926       ?AtlCoTaskMemRecalloc@ATL@@YAPAXPAXKK@Z 10004926 f i Scanner.obj
 0001:00003956       ?AtlComModuleGetClassObject@ATL@@YGJPAU_ATL_COM_MODULE70@1@ABU_GUID@@1PAPAX@Z 10004956 f i Scanner.obj
 0001:00003a49       ?AtlComModuleRegisterServer@ATL@@YGJPAU_ATL_COM_MODULE70@1@HPBU_GUID@@@Z 10004a49 f i Scanner.obj
 0001:00003ad1       ?AtlComModuleUnregisterServer@ATL@@YGJPAU_ATL_COM_MODULE70@1@HPBU_GUID@@@Z 10004ad1 f i Scanner.obj
 0001:00003b59       ?AtlComQIPtrAssign2@ATL@@YAXPAPAUIUnknown@@PAU2@ABU_GUID@@@Z 10004b59 f i Scanner.obj
 0001:00003b88       ?AtlCreateTargetDC@ATL@@YGPAUHDC__@@PAU2@PAUtagDVTARGETDEVICE@@@Z 10004b88 f i Scanner.obj
 0001:00003bf1       ?AtlCrtErrorCheck@ATL@@YAHH@Z 10004bf1 f i Scanner.obj
 0001:00003c2c       ?AtlHiMetricToPixel@ATL@@YGXPBUtagSIZE@@PAU2@@Z 10004c2c f i Scanner.obj
 0001:00003ca1       ?AtlHresultFromLastError@ATL@@YAJXZ 10004ca1 f i Scanner.obj
 0001:00003cb8       ?AtlHresultFromWin32@ATL@@YAJK@Z 10004cb8 f i Scanner.obj
 0001:00003ccd       ?AtlInternalOleLoadFromStream@ATL@@YAJPAUIStream@@ABU_GUID@@PAPAXTClassesAllowedInStream@1@K@Z 10004ccd f i Scanner.obj
 0001:00003deb       ?AtlInternalQueryInterface@ATL@@YGJPAXPBU_ATL_INTMAP_ENTRY@1@ABU_GUID@@PAPAX@Z 10004deb f i Scanner.obj
 0001:00003e8e       ?AtlLoadTypeLib@ATL@@YGJPAUHINSTANCE__@@PB_WPAPA_WPAPAUITypeLib@@@Z 10004e8e f i Scanner.obj
 0001:0000406c       ?AtlRegisterClassCategoriesHelper@ATL@@YGJABU_GUID@@PBU_ATL_CATMAP_ENTRY@1@H@Z 1000506c f i Scanner.obj
 0001:00004368       ?AtlRegisterTypeLib@ATL@@YGJPAUHINSTANCE__@@PB_W@Z 10005368 f i Scanner.obj
 0001:000044f0       ?AtlThrowImpl@ATL@@YGXJ@Z  100054f0 f i Scanner.obj
 0001:0000450e       ?AtlUnRegisterTypeLib@ATL@@YGJPAUHINSTANCE__@@PB_W@Z 1000550e f i Scanner.obj
 0001:000045b9       ?AtlWinModuleAddCreateWndData@ATL@@YGXPAU_ATL_WIN_MODULE70@1@PAU_AtlCreateWndData@1@PAX@Z 100055b9 f i Scanner.obj
 0001:0000460d       ?AtlWinModuleExtractCreateWndData@ATL@@YGPAXPAU_ATL_WIN_MODULE70@1@@Z 1000560d f i Scanner.obj
 0001:00004670       ?AtlWinModuleRegisterClassExW@ATL@@YGGPAU_ATL_WIN_MODULE70@1@PBUtagWNDCLASSEXW@@@Z 10005670 f i Scanner.obj
 0001:000046af       ?CanForceRemoveKey@CRegParser@ATL@@IAEHPB_W@Z 100056af f i Scanner.obj
 0001:000046de       ?ChToByte@CRegParser@ATL@@KAE_W@Z 100056de f i Scanner.obj
 0001:00004711       ?Cleanup@CComTypeInfoHolder@ATL@@SGXK@Z 10005711 f i Scanner.obj
 0001:00004744       ?ClearReplacements@CExpansionVector@ATL@@QAEJXZ 10005744 f i Scanner.obj
 0001:00004781       ?Close@CRegKey@ATL@@QAEJXZ 10005781 f i Scanner.obj
 0001:0000479b       ?CreateInstance@?$CComCreator@V?$CComAggObject@VCOPOSScanner@@@ATL@@@ATL@@SGJPAXABU_GUID@@PAPAX@Z 1000579b f i Scanner.obj
 0001:00004810       ?CreateInstance@?$CComCreator@V?$CComObject@VCOPOSScanner@@@ATL@@@ATL@@SGJPAXABU_GUID@@PAPAX@Z 10005810 f i Scanner.obj
 0001:00004890       ?CreateInstance@?$CComObject@V?$CComEnum@UIEnumConnectionPoints@@$1?_GUID_b196b285_bab4_101a_b69c_00aa00341d07@@3U__s_GUID@@BPAUIConnectionPoint@@V?$_CopyInterface@UIConnectionPoint@@@ATL@@VCComSingleThreadModel@6@@ATL@@@ATL@@SGJPAPAV12@@Z 10005890 f i Scanner.obj
 0001:000048da       ?CreateInstance@?$CComObject@V?$CComEnum@UIEnumConnections@@$1?_GUID_b196b287_bab4_101a_b69c_00aa00341d07@@3U__s_GUID@@BUtagCONNECTDATA@@V?$_Copy@UtagCONNECTDATA@@@ATL@@VCComSingleThreadModel@6@@ATL@@@ATL@@SGJPAPAV12@@Z 100058da f i Scanner.obj
 0001:00004924       ?DefaultReflectionHandler@?$CWindowImplRoot@VCWindow@ATL@@@ATL@@SAHPAUHWND__@@IIJAAJ@Z 10005924 f i Scanner.obj
 0001:00004997       ?DeleteSubKey@CRegKey@ATL@@QAEJPB_W@Z 10005997 f i Scanner.obj
 0001:00004a10       ?DoEvent@COPOSScanner@@IAEXIIJ@Z 10005a10 f i Scanner.obj
 0001:00004a90       ?DoVerbHide@?$IOleObjectImpl@VCOPOSScanner@@@ATL@@QAEJPBUtagRECT@@PAUHWND__@@@Z 10005a90 f i Scanner.obj
 0001:00004ac6       ?DoVerbInPlaceActivate@?$IOleObjectImpl@VCOPOSScanner@@@ATL@@QAEJPBUtagRECT@@PAUHWND__@@@Z 10005ac6 f i Scanner.obj
 0001:00004af9       ?DoVerbPrimary@?$IOleObjectImpl@VCOPOSScanner@@@ATL@@QAEJPBUtagRECT@@PAUHWND__@@@Z 10005af9 f i Scanner.obj
 0001:00004b85       ?DoVerbProperties@CComControlBase@ATL@@QAEJPBUtagRECT@@PAUHWND__@@@Z 10005b85 f i Scanner.obj
 0001:00004d04       ?DoVerbUIActivate@?$IOleObjectImpl@VCOPOSScanner@@@ATL@@QAEJPBUtagRECT@@PAUHWND__@@@Z 10005d04 f i Scanner.obj
 0001:00004d41       ?DoesVerbActivate@CComControlBase@ATL@@QAEHJ@Z 10005d41 f i Scanner.obj
 0001:00004d62       ?DoesVerbUIActivate@CComControlBase@ATL@@QAEHJ@Z 10005d62 f i Scanner.obj
 0001:00004d97       ?EndOfVar@CRegParser@ATL@@IAEHXZ 10005d97 f i Scanner.obj
 0001:00004db7       ?EscapeSingleQuote@CAtlModule@ATL@@SAXPA_WIPB_W@Z 10005db7 f i Scanner.obj
 0001:00004e06       ?FindKey@?$CSimpleMap@PA_WPA_WVCExpansionVectorEqualHelper@ATL@@@ATL@@QBEHABQA_W@Z 10005e06 f i Scanner.obj
 0001:00004e3d       ?FireTheEvent@?$CProxy_IOPOSEvents@VCOPOSScanner@@@@IAEXPAVOposVariant@@IAAJPB_WJ@Z 10005e3d f i Scanner.obj
 0001:00004ecf       ?FireViewChange@CComControlBase@ATL@@QAEJXZ 10005ecf f i Scanner.obj
 0001:00004f18       ?Fire_DataEvent@?$CProxy_IOPOSEvents@VCOPOSScanner@@@@QAEXJ@Z 10005f18 f i Scanner.obj
 0001:00004fae       ?Fire_DirectIOEvent@?$CProxy_IOPOSEvents@VCOPOSScanner@@@@QAEXJPAJPAPA_W@Z 10005fae f i Scanner.obj
 0001:0000509a       ?Fire_ErrorEvent@?$CProxy_IOPOSEvents@VCOPOSScanner@@@@QAEXJJJPAJ@Z 1000609a f i Scanner.obj
 0001:0000518b       ?Fire_StatusUpdateEvent@?$CProxy_IOPOSEvents@VCOPOSScanner@@@@QAEXJ@Z 1000618b f i Scanner.obj
 0001:00005221       ?FreeHeap@?$CTempBuffer@E$0BAA@VCCRTAllocator@ATL@@@ATL@@AAEXXZ 10006221 f i Scanner.obj
 0001:00005221       ?FreeHeap@?$CTempBuffer@_W$0EAA@VCCRTAllocator@ATL@@@ATL@@AAEXXZ 10006221 f i Scanner.obj
 0001:00005221       ?FreeHeap@?$CTempBuffer@_W$0BAA@VCCRTAllocator@ATL@@@ATL@@AAEXXZ 10006221 f i Scanner.obj
 0001:0000522a       ?GetAmbientLocaleID@CComControlBase@ATL@@QAEJAAK@Z 1000622a f i Scanner.obj
 0001:00005286       ?GetAmbientUserMode@CComControlBase@ATL@@QAEJAAH@Z 10006286 f i Scanner.obj
 0001:000052f6       ?GetAt@CComDynamicUnkArray@ATL@@QAEPAUIUnknown@@H@Z 100062f6 f i Scanner.obj
 0001:00005312       ?GetClassObject@CComModule@ATL@@QAEJABU_GUID@@0PAPAX@Z 10006312 f i Scanner.obj
 0001:000053b4       ?GetConnMap@COPOSScanner@@SAPBU_ATL_CONNMAP_ENTRY@ATL@@PAH@Z 100063b4 f i Scanner.obj
 0001:00005424       ?GetCookie@CComDynamicUnkArray@ATL@@QAGKPAPAUIUnknown@@@Z 10006424 f i Scanner.obj
 0001:0000545c       ?GetIDsOfNames@CComTypeInfoHolder@ATL@@QAEJABU_GUID@@PAPA_WIKPAJ@Z 1000645c f i Scanner.obj
 0001:00005583       ?GetKeyAt@?$CSimpleMap@PA_WPA_WVCExpansionVectorEqualHelper@ATL@@@ATL@@QBEAAPA_WH@Z 10006583 f i Scanner.obj
 0001:000055a8       ?GetPagesHelper@?$ISpecifyPropertyPagesImpl@VCOPOSScanner@@@ATL@@IAEJPAUtagCAUUID@@PBUATL_PROPMAP_ENTRY@2@@Z 100065a8 f i Scanner.obj
 0001:000056cf       ?GetProperty@?$CComPtr@UIDispatch@@@ATL@@SAJPAUIDispatch@@JPAUtagVARIANT@@@Z 100066cf f i Scanner.obj
 0001:0000571e       ?GetSizeMax@CComVariant@ATL@@QBEJPAT_ULARGE_INTEGER@@@Z 1000671e f i Scanner.obj
 0001:000058e0       ?GetTI@CComTypeInfoHolder@ATL@@QAEJK@Z 100068e0 f i Scanner.obj
 0001:00005abf       ?GetTI@CComTypeInfoHolder@ATL@@QAEJKPAPAUITypeInfo@@@Z 10006abf f i Scanner.obj
 0001:00005b01       ?GetUnknown@CComDynamicUnkArray@ATL@@QAGPAUIUnknown@@K@Z 10006b01 f i Scanner.obj
 0001:00005b22       ?GetValueAt@?$CSimpleMap@PA_WPA_WVCExpansionVectorEqualHelper@ATL@@@ATL@@QBEAAPA_WH@Z 10006b22 f i Scanner.obj
 0001:00005b48       ?GetZoomInfo@CComControlBase@ATL@@QAEXAAUATL_DRAWINFO@@@Z 10006b48 f i Scanner.obj
 0001:00005bdb       ?HKeyFromString@CRegParser@ATL@@KAPAUHKEY__@@PA_W@Z 10006bdb f i Scanner.obj
 0001:00005c09       ?HasSubKeys@CRegParser@ATL@@IAEHPAUHKEY__@@@Z 10006c09 f i Scanner.obj
 0001:00005c3e       ?IDataObject_GetData@CComControlBase@ATL@@QAEJPAUtagFORMATETC@@PAUtagSTGMEDIUM@@@Z 10006c3e f i Scanner.obj
 0001:00005de4       ?IOleInPlaceObject_InPlaceDeactivate@CComControlBase@ATL@@QAEJXZ 10006de4 f i Scanner.obj
 0001:00005e6b       ?IOleInPlaceObject_SetObjectRects@CComControlBase@ATL@@QAEJPBUtagRECT@@0@Z 10006e6b f i Scanner.obj
 0001:00005f38       ?IOleInPlaceObject_UIDeactivate@CComControlBase@ATL@@QAEJXZ 10006f38 f i Scanner.obj
 0001:00005ffa       ?IOleObject_Advise@CComControlBase@ATL@@QAEJPAUIAdviseSink@@PAK@Z 10006ffa f i Scanner.obj
 0001:00006024       ?IOleObject_Close@CComControlBase@ATL@@QAEJK@Z 10007024 f i Scanner.obj
 0001:00006108       ?IOleObject_GetClientSite@CComControlBase@ATL@@QAEJPAPAUIOleClientSite@@@Z 10007108 f i Scanner.obj
 0001:00006131       ?IOleObject_SetClientSite@CComControlBase@ATL@@QAEJPAUIOleClientSite@@@Z 10007131 f i Scanner.obj
 0001:00006170       ?IOleObject_SetExtent@CComControlBase@ATL@@QAEJKPAUtagSIZE@@@Z 10007170 f i Scanner.obj
 0001:00006222       ?IPSI_GetIPersistStreamInit@?$IPersistStorageImpl@VCOPOSScanner@@@ATL@@AAEPAUIPersistStreamInit@@XZ 10007222 f i Scanner.obj
 0001:000062ca       ?IPersistStreamInit_Load@?$IPersistStreamInitImpl@VCOPOSScanner@@@ATL@@QAEJPAUIStream@@PBUATL_PROPMAP_ENTRY@2@@Z 100072ca f i Scanner.obj
 0001:0000653f       ?IPersistStreamInit_Save@?$IPersistStreamInitImpl@VCOPOSScanner@@@ATL@@QAEJPAUIStream@@HPBUATL_PROPMAP_ENTRY@2@@Z 1000753f f i Scanner.obj
 0001:0000672d       ?IQuickActivate_QuickActivate@CComControlBase@ATL@@QAEJPAUtagQACONTAINER@@PAUtagQACONTROL@@@Z 1000772d f i Scanner.obj
 0001:0000696f       ?IViewObject_Draw@CComControlBase@ATL@@QAEJKJPAXPAUtagDVTARGETDEVICE@@PAUHDC__@@2PBU_RECTL@@3@Z 1000796f f i Scanner.obj
 0001:00006a17       ?InPlaceActivate@CComControlBase@ATL@@QAEJJPBUtagRECT@@@Z 10007a17 f i Scanner.obj
 0001:00006c88       ?Init@?$CComEnumImpl@UIEnumConnectionPoints@@$1?_GUID_b196b285_bab4_101a_b69c_00aa00341d07@@3U__s_GUID@@BPAUIConnectionPoint@@V?$_CopyInterface@UIConnectionPoint@@@ATL@@@ATL@@QAEJPAPAUIConnectionPoint@@0PAUIUnknown@@W4CComEnumFlags@2@@Z 10007c88 f i Scanner.obj
 0001:00006d67       ?Init@?$CComEnumImpl@UIEnumConnections@@$1?_GUID_b196b287_bab4_101a_b69c_00aa00341d07@@3U__s_GUID@@BUtagCONNECTDATA@@V?$_Copy@UtagCONNECTDATA@@@ATL@@@ATL@@QAEJPAUtagCONNECTDATA@@0PAUIUnknown@@W4CComEnumFlags@2@@Z 10007d67 f i Scanner.obj
 0001:00006e46       ?Init@CComModule@ATL@@QAEJPAU_ATL_OBJMAP_ENTRY30@2@PAUHINSTANCE__@@PBU_GUID@@@Z 10007e46 f i Scanner.obj
 0001:00006ea5       ?Init@CDynamicStdCallThunk2@ATL@@QAEHKPAX@Z 10007ea5 f i Scanner.obj
 0001:00006ed0       ?InlineIsEqualUnknown@ATL@@YGHABU_GUID@@@Z 10007ed0 f i Scanner.obj
 0001:00006ef8       ?InternalSetAtIndex@?$CSimpleMap@PA_WPA_WVCExpansionVectorEqualHelper@ATL@@@ATL@@QAEXHABQA_W0@Z 10007ef8 f i Scanner.obj
 0001:00006f22       ?Invoke@CComTypeInfoHolder@ATL@@QAEJPAUIDispatch@@JABU_GUID@@KGPAUtagDISPPARAMS@@PAUtagVARIANT@@PAUtagEXCEPINFO@@PAI@Z 10007f22 f i Scanner.obj
 0001:00006f65       ?IsEqualObject@?$CComPtrBase@UIOleClientSite@@@ATL@@QAE_NPAUIUnknown@@@Z 10007f65 f i Scanner.obj
 0001:00006f65       ?IsEqualObject@?$CComPtrBase@UITypeInfo@@@ATL@@QAE_NPAUIUnknown@@@Z 10007f65 f i Scanner.obj
 0001:00006fd2       ?IsSpace@CRegParser@ATL@@IAEH_W@Z 10007fd2 f i Scanner.obj
 0001:00006ffc       ?LoadNameCache@CComTypeInfoHolder@ATL@@QAEJPAUITypeInfo@@@Z 10007ffc f i Scanner.obj
 0001:00007131       ?Lookup@?$CSimpleMap@PA_WPA_WVCExpansionVectorEqualHelper@ATL@@@ATL@@QBEPA_WABQA_W@Z 10008131 f i Scanner.obj
 0001:00007157       ?NextToken@CRegParser@ATL@@IAEJPA_W@Z 10008157 f i Scanner.obj
 0001:0000728f       ?OnKillFocus@CComControlBase@ATL@@QAEJIIJAAH@Z 1000828f f i Scanner.obj
 0001:000072ea       ?OnMouseActivate@CComControlBase@ATL@@QAEJIIJAAH@Z 100082ea f i Scanner.obj
 0001:00007358       ?OnPaint@CComControlBase@ATL@@QAEJIIJAAH@Z 10008358 f i Scanner.obj
 0001:0000740a       ?OnSetFocus@CComControlBase@ATL@@QAEJIIJAAH@Z 1000840a f i Scanner.obj
 0001:00007493       ?Open@CRegKey@ATL@@QAEJPAUHKEY__@@PB_WK@Z 10008493 f i Scanner.obj
 0001:000074e8       ?PreProcessBuffer@CRegParser@ATL@@QAEJPA_WPAPA_W@Z 100084e8 f i Scanner.obj
 0001:00007757       ?ProcessWindowMessage@?$CComControl@VCOPOSScanner@@V?$CWindowImpl@VCOPOSScanner@@VCWindow@ATL@@V?$CWinTraits@$0FGAAAAAA@$0A@@3@@ATL@@@ATL@@UAEHPAUHWND__@@IIJAAJK@Z 10008757 f i Scanner.obj
 0001:000077f6       ?ReadFromStream@CComBSTR@ATL@@QAEJPAUIStream@@@Z 100087f6 f i Scanner.obj
 0001:00007919       ?ReadFromStream@CComVariant@ATL@@QAEJPAUIStream@@GTClassesAllowedInStream@2@K@Z 10008919 f i Scanner.obj
 0001:00007aa3       ?RecurseDeleteKey@CRegKey@ATL@@QAEJPB_W@Z 10008aa3 f i Scanner.obj
 0001:00007b91       ?RegCreateKeyExW@CAtlTransactionManager@ATL@@QAEJPAUHKEY__@@PB_WKPA_WKKQAU_SECURITY_ATTRIBUTES@@PAPAU3@PAK@Z 10008b91 f i Scanner.obj
 0001:00007bf4       ?RegDeleteKeyW@CAtlTransactionManager@ATL@@QAEJPAUHKEY__@@PB_W@Z 10008bf4 f i Scanner.obj
 0001:00007c46       ?RegOpenKeyExW@CAtlTransactionManager@ATL@@QAEJPAUHKEY__@@PB_WKKPAPAU3@@Z 10008c46 f i Scanner.obj
 0001:00007c9d       ?Register@_ATL_WNDCLASSINFOW@ATL@@QAEGPAP6GJPAUHWND__@@IIJ@Z@Z 10008c9d f i Scanner.obj
 0001:00007cbd       ?RegisterBuffer@CRegParser@ATL@@QAEJPA_WH@Z 10008cbd f i Scanner.obj
 0001:00007e04       ?RegisterFromResource@CRegObject@ATL@@IAEJPB_W00H@Z 10008e04 f i Scanner.obj
 0001:00007f3a       ?RegisterServer@?$CAtlModuleT@VCComModule@ATL@@@ATL@@QAEJHPBU_GUID@@@Z 10008f3a f i Scanner.obj
 0001:00007f68       ?RegisterServer@CComModule@ATL@@QAEJHPBU_GUID@@@Z 10008f68 f i Scanner.obj
 0001:00007fde       ?RegisterSubkeys@CRegParser@ATL@@IAEJPA_WPAUHKEY__@@HH@Z 10008fde f i Scanner.obj
 0001:0000868b       ?Remove@CComDynamicUnkArray@ATL@@QAEHK@Z 1000968b f i Scanner.obj
 0001:000086b4       ?RemoveAll@?$CSimpleMap@PA_WPA_WVCExpansionVectorEqualHelper@ATL@@@ATL@@QAEXXZ 100096b4 f i Scanner.obj
 0001:000086e0       ?ResourceRegisterSz@CRegObject@ATL@@QAGJPB_W00@Z 100096e0 f i Scanner.obj
 0001:0000870d       ?ResourceUnregisterSz@CRegObject@ATL@@QAGJPB_W00@Z 1000970d f i Scanner.obj
 0001:0000873a       ?SendOnDataChange@CComControlBase@ATL@@QAEJK@Z 1000973a f i Scanner.obj
 0001:00008787       ?SetControlFocus@CComControlBase@ATL@@QAEHH@Z 10009787 f i Scanner.obj
 0001:00008824       ?SetMultiStringValue@CRegKey@ATL@@QAEJPB_W0@Z 10009824 f i Scanner.obj
 0001:00008880       ?SetStringValue@CRegKey@ATL@@QAEJPB_W0K@Z 10009880 f i Scanner.obj
 0001:000088c9       ?SkipAssignment@CRegParser@ATL@@IAEJPA_W@Z 100098c9 f i Scanner.obj
 0001:0000892e       ?SkipWhiteSpace@CRegParser@ATL@@IAEXXZ 1000992e f i Scanner.obj
 0001:00008950       ?StrChrW@CRegParser@ATL@@KAPA_WPA_W_W@Z 10009950 f i Scanner.obj
 0001:0000898d       ?Term@CAtlModule@ATL@@QAEXXZ 1000998d f i Scanner.obj
 0001:000089e0       ?Term@CComModule@ATL@@QAEXXZ 100099e0 f i Scanner.obj
 0001:00008a38       ?UnregisterServer@?$CAtlModuleT@VCComModule@ATL@@@ATL@@QAEJHPBU_GUID@@@Z 10009a38 f i Scanner.obj
 0001:00008a5e       ?UnregisterServer@CComModule@ATL@@QAEJHPBU_GUID@@@Z 10009a5e f i Scanner.obj
 0001:00008ad4       ?UpdateRegistryFromResource@CAtlModule@ATL@@QAGJIHPAU_ATL_REGMAP_ENTRY@2@@Z 10009ad4 f i Scanner.obj
 0001:00008c9f       ?UpdateRegistryFromResource@CAtlModule@ATL@@QAGJPB_WHPAU_ATL_REGMAP_ENTRY@2@@Z 10009c9f f i Scanner.obj
 0001:00008e70       ?VTFromRegType@CRegParser@ATL@@KAHPB_WAAG@Z 10009e70 f i Scanner.obj
 0001:00008edd       ?WindowProc@?$CWindowImplBaseT@VCWindow@ATL@@V?$CWinTraits@$0FGAAAAAA@$0A@@2@@ATL@@SGJPAUHWND__@@IIJ@Z 10009edd f i Scanner.obj
 0001:00008fcf       ?WriteToStream@CComBSTR@ATL@@QAEJPAUIStream@@@Z 10009fcf f i Scanner.obj
 0001:00009031       ?WriteToStream@CComVariant@ATL@@QAEJPAUIStream@@@Z 1000a031 f i Scanner.obj
 0001:000091ab       ?WriteToStream@CComVariant@ATL@@QAEJPAUIStream@@G@Z 1000a1ab f i Scanner.obj
 0001:00009214       ?_AtlInitialConstruct@?$CComObjectRootEx@VCComMultiThreadModel@ATL@@@ATL@@QAEJXZ 1000a214 f i Scanner.obj
 0001:00009229       ?_AtlVerifyStackAvailable@_ATL_SAFE_ALLOCA_IMPL@ATL@@YA_NK@Z 1000a229 f i Scanner.obj
 0001:000092a7       ?atlCreate@?$CWindowImpl@VCOPOSScanner@@VCWindow@ATL@@V?$CWinTraits@$0FGAAAAAA@$0A@@3@@ATL@@QAEPAUHWND__@@PAU3@V_U_RECT@2@PB_WKKV_U_MENUorID@2@PAX@Z 1000a2a7 f i Scanner.obj
 0001:000092eb       ?atlCreate@?$CWindowImplBaseT@VCWindow@ATL@@V?$CWinTraits@$0FGAAAAAA@$0A@@2@@ATL@@QAEPAUHWND__@@PAU3@V_U_RECT@2@PB_WKKV_U_MENUorID@2@GPAX@Z 1000a2eb f i Scanner.obj
 0001:00009387       ?copy@?$_Copy@UtagCONNECTDATA@@@ATL@@SAJPAUtagCONNECTDATA@@PBU3@@Z 1000a387 f i Scanner.obj
 0001:000093bd       ?copy@?$_CopyInterface@UIConnectionPoint@@@ATL@@SAJPAPAUIConnectionPoint@@PBQAU3@@Z 1000a3bd f i Scanner.obj
 0001:000093eb       ?memcpy_s@Checked@ATL@@YAXPAXIPBXI@Z 1000a3eb f i Scanner.obj
 0001:0000940a       ?ocscpy_s@@YA_NPA_WIPB_W@Z 1000a40a f i Scanner.obj
 0001:00009454       ?wcscpy_s@Checked@ATL@@YAXPA_WIPB_W@Z 1000a454 f i Scanner.obj
 0001:00009470       _DllCanUnloadNow@0         1000a470 f   Scanner.obj
 0001:0000947c       _DllGetClassObject@12      1000a47c f   Scanner.obj
 0001:0000948a       _DllMain@12                1000a48a f   Scanner.obj
 0001:000094cc       _DllRegisterServer@0       1000a4cc f   Scanner.obj
 0001:000094db       _DllUnregisterServer@0     1000a4db f   Scanner.obj
 0001:000094ea       _InlineIsEqualGUID         1000a4ea f i Scanner.obj
 0001:0000951a       ___local_stdio_printf_options 1000a51a f i Scanner.obj
 0001:00009520       __vswprintf_s_l            1000a520 f i Scanner.obj
 0001:000095cd       _swprintf_s                1000a5cd f i Scanner.obj
 0001:000095e9       ??0?$CComControl@VCOPOSScanner@@V?$CWindowImpl@VCOPOSScanner@@VCWindow@ATL@@V?$CWinTraits@$0FGAAAAAA@$0A@@3@@ATL@@@ATL@@QAE@XZ 1000a5e9 f i ScannerImpl.obj
 0001:00009610       ??0?$CProxy_IOPOSEvents@VCOPOSScanner@@@@QAE@XZ 1000a610 f i ScannerImpl.obj
 0001:00009630       ??0CComControlBase@ATL@@QAE@AAPAUHWND__@@@Z 1000a630 f i ScannerImpl.obj
 0001:00009680       ??0COPOSScanner@@QAE@XZ    1000a680 f   ScannerImpl.obj
 0001:000096b6       ??1?$CComControl@VCOPOSScanner@@V?$CWindowImpl@VCOPOSScanner@@VCWindow@ATL@@V?$CWinTraits@$0FGAAAAAA@$0A@@3@@ATL@@@ATL@@UAE@XZ 1000a6b6 f i ScannerImpl.obj
 0001:000096cf       ??1?$IConnectionPointImpl@VCOPOSScanner@@$1?DIID__IOPOSScannerEvents@@3U_GUID@@BVCComDynamicUnkArray@ATL@@@ATL@@QAE@XZ 1000a6cf f i ScannerImpl.obj
 0001:000096cf       ??1?$IConnectionPointImpl@VCOPOSScanner@@$1?IID_IPropertyNotifySink@@3U_GUID@@BVCComDynamicUnkArray@ATL@@@ATL@@QAE@XZ 1000a6cf f i ScannerImpl.obj
 0001:0000970c       ??1CComControlBase@ATL@@UAE@XZ 1000a70c f i ScannerImpl.obj
 0001:0000976f       ??1COPOSScanner@@UAE@XZ    1000a76f f   ScannerImpl.obj
 0001:000097b7       ?CheckHealth@COPOSScanner@@UAGJJPAJ@Z 1000a7b7 f   ScannerImpl.obj
 0001:00009806       ?ClaimDevice@COPOSScanner@@UAGJJPAJ@Z 1000a806 f   ScannerImpl.obj
 0001:0000987b       ?ClearInput@COPOSScanner@@UAGJPAJ@Z 1000a87b f   ScannerImpl.obj
 0001:00009896       ?ClearInputProperties@COPOSScanner@@UAGJPAJ@Z 1000a896 f   ScannerImpl.obj
 0001:000098b1       ?Close@COPOSScanner@@UAGJPAJ@Z 1000a8b1 f   ScannerImpl.obj
 0001:0000991f       ?CompareFirmwareVersion@COPOSScanner@@UAGJPA_WPAJ1@Z 1000a91f f   ScannerImpl.obj
 0001:0000999f       ?DirectIO@COPOSScanner@@UAGJJPAJPAPA_W0@Z 1000a99f f   ScannerImpl.obj
 0001:00009a4d       ?DoInvoke@COPOSScanner@@IAEJJPAVOposVariant@@IHPAJ_N@Z 1000aa4d f   ScannerImpl.obj
 0001:00009b29       ?EventClose@COPOSScanner@@IAEXXZ 1000ab29 f i ScannerImpl.obj
 0001:00009b5c       ?EventInit@COPOSScanner@@IAEJXZ 1000ab5c f i ScannerImpl.obj
 0001:00009c28       ?EventUninit@COPOSScanner@@IAEXXZ 1000ac28 f i ScannerImpl.obj
 0001:00009c7a       ?EventWindowProc@COPOSScanner@@IAGJIIJ@Z 1000ac7a f i ScannerImpl.obj
 0001:00009d4e       ?FinalConstruct@COPOSScanner@@QAEJXZ 1000ad4e f   ScannerImpl.obj
 0001:00009d87       ?FireEventCleanup@COPOSScanner@@IAEXXZ 1000ad87 f i ScannerImpl.obj
 0001:00009d9d       ?FireEventSetup@COPOSScanner@@IAE_NXZ 1000ad9d f i ScannerImpl.obj
 0001:00009dd1       ?FreezeEvents@COPOSScanner@@MAGJH@Z 1000add1 f   ScannerImpl.obj
 0001:00009e31       ?GetOposProp@COPOSScanner@@IAEJJPAFJ@Z 1000ae31 f   ScannerImpl.obj
 0001:00009e54       ?GetOposProp@COPOSScanner@@IAEJJPAJJ@Z 1000ae54 f   ScannerImpl.obj
 0001:00009f23       ?GetOposProp@COPOSScanner@@IAEJJPAPA_WJ@Z 1000af23 f   ScannerImpl.obj
 0001:00009fff       ?OnDraw@COPOSScanner@@MAEJAAUATL_DRAWINFO@@@Z 1000afff f   ScannerImpl.obj
 0001:0000a09f       ?Open@COPOSScanner@@UAGJPA_WPAJ@Z 1000b09f f   ScannerImpl.obj
 0001:0000a8e2       ?ReleaseDevice@COPOSScanner@@UAGJPAJ@Z 1000b8e2 f   ScannerImpl.obj
 0001:0000a931       ?ResetStatistics@COPOSScanner@@UAGJPA_WPAJ@Z 1000b931 f   ScannerImpl.obj
 0001:0000a988       ?RetrieveStatistics@COPOSScanner@@UAGJPAPA_WPAJ@Z 1000b988 f   ScannerImpl.obj
 0001:0000a9df       ?SOProcessID@COPOSScanner@@UAGJPAJ@Z 1000b9df f   ScannerImpl.obj
 0001:0000a9f3       ?SetCOFreezeEvents@COPOSScanner@@IAEXF@Z 1000b9f3 f   ScannerImpl.obj
 0001:0000aa93       ?SetOposProp@COPOSScanner@@IAEJJJJ@Z 1000ba93 f   ScannerImpl.obj
 0001:0000ab8a       ?UpdateFirmware@COPOSScanner@@UAGJPA_WPAJ@Z 1000bb8a f   ScannerImpl.obj
 0001:0000abe1       ?UpdateStatistics@COPOSScanner@@UAGJPA_WPAJ@Z 1000bbe1 f   ScannerImpl.obj
 0001:0000ac38       ?get_AutoDisable@COPOSScanner@@UAGJPAF@Z 1000bc38 f   ScannerImpl.obj
 0001:0000ac4e       ?get_BinaryConversion@COPOSScanner@@UAGJPAJ@Z 1000bc4e f   ScannerImpl.obj
 0001:0000ac64       ?get_CapCompareFirmwareVersion@COPOSScanner@@UAGJPAF@Z 1000bc64 f   ScannerImpl.obj
 0001:0000ac7d       ?get_CapPowerReporting@COPOSScanner@@UAGJPAJ@Z 1000bc7d f   ScannerImpl.obj
 0001:0000ac96       ?get_CapStatisticsReporting@COPOSScanner@@UAGJPAF@Z 1000bc96 f   ScannerImpl.obj
 0001:0000acaf       ?get_CapUpdateFirmware@COPOSScanner@@UAGJPAF@Z 1000bcaf f   ScannerImpl.obj
 0001:0000acc8       ?get_CapUpdateStatistics@COPOSScanner@@UAGJPAF@Z 1000bcc8 f   ScannerImpl.obj
 0001:0000ace1       ?get_CheckHealthText@COPOSScanner@@UAGJPAPA_W@Z 1000bce1 f   ScannerImpl.obj
 0001:0000acfa       ?get_Claimed@COPOSScanner@@UAGJPAF@Z 1000bcfa f   ScannerImpl.obj
 0001:0000ad10       ?get_ControlObjectDescription@COPOSScanner@@UAGJPAPA_W@Z 1000bd10 f   ScannerImpl.obj
 0001:0000ad5e       ?get_ControlObjectVersion@COPOSScanner@@UAGJPAJ@Z 1000bd5e f   ScannerImpl.obj
 0001:0000ad71       ?get_DataCount@COPOSScanner@@UAGJPAJ@Z 1000bd71 f   ScannerImpl.obj
 0001:0000ad87       ?get_DataEventEnabled@COPOSScanner@@UAGJPAF@Z 1000bd87 f   ScannerImpl.obj
 0001:0000ad9d       ?get_DecodeData@COPOSScanner@@UAGJPAF@Z 1000bd9d f   ScannerImpl.obj
 0001:0000adb6       ?get_DeviceDescription@COPOSScanner@@UAGJPAPA_W@Z 1000bdb6 f   ScannerImpl.obj
 0001:0000adcf       ?get_DeviceEnabled@COPOSScanner@@UAGJPAF@Z 1000bdcf f   ScannerImpl.obj
 0001:0000ade5       ?get_DeviceName@COPOSScanner@@UAGJPAPA_W@Z 1000bde5 f   ScannerImpl.obj
 0001:0000adfe       ?get_FreezeEvents@COPOSScanner@@UAGJPAF@Z 1000bdfe f   ScannerImpl.obj
 0001:0000ae14       ?get_OpenResult@COPOSScanner@@UAGJPAJ@Z 1000be14 f   ScannerImpl.obj
 0001:0000ae2b       ?get_PowerNotify@COPOSScanner@@UAGJPAJ@Z 1000be2b f   ScannerImpl.obj
 0001:0000ae41       ?get_PowerState@COPOSScanner@@UAGJPAJ@Z 1000be41 f   ScannerImpl.obj
 0001:0000ae57       ?get_ResultCode@COPOSScanner@@UAGJPAJ@Z 1000be57 f   ScannerImpl.obj
 0001:0000ae95       ?get_ResultCodeExtended@COPOSScanner@@UAGJPAJ@Z 1000be95 f   ScannerImpl.obj
 0001:0000aeab       ?get_ScanData@COPOSScanner@@UAGJPAPA_W@Z 1000beab f   ScannerImpl.obj
 0001:0000aec4       ?get_ScanDataLabel@COPOSScanner@@UAGJPAPA_W@Z 1000bec4 f   ScannerImpl.obj
 0001:0000aedd       ?get_ScanDataType@COPOSScanner@@UAGJPAJ@Z 1000bedd f   ScannerImpl.obj
 0001:0000aef6       ?get_ServiceObjectDescription@COPOSScanner@@UAGJPAPA_W@Z 1000bef6 f   ScannerImpl.obj
 0001:0000af0f       ?get_ServiceObjectVersion@COPOSScanner@@UAGJPAJ@Z 1000bf0f f   ScannerImpl.obj
 0001:0000af25       ?get_State@COPOSScanner@@UAGJPAJ@Z 1000bf25 f   ScannerImpl.obj
 0001:0000af51       ?put_AutoDisable@COPOSScanner@@UAGJF@Z 1000bf51 f   ScannerImpl.obj
 0001:0000af6e       ?put_BinaryConversion@COPOSScanner@@UAGJJ@Z 1000bf6e f   ScannerImpl.obj
 0001:0000af84       ?put_DataEventEnabled@COPOSScanner@@UAGJF@Z 1000bf84 f   ScannerImpl.obj
 0001:0000afa1       ?put_DecodeData@COPOSScanner@@UAGJF@Z 1000bfa1 f   ScannerImpl.obj
 0001:0000afc1       ?put_DeviceEnabled@COPOSScanner@@UAGJF@Z 1000bfc1 f   ScannerImpl.obj
 0001:0000afde       ?put_FreezeEvents@COPOSScanner@@UAGJF@Z 1000bfde f   ScannerImpl.obj
 0001:0000b02a       ?put_PowerNotify@COPOSScanner@@UAGJJ@Z 1000c02a f   ScannerImpl.obj
 0001:0000b040       ?s_EventWindowProc@COPOSScanner@@KGJPAUHWND__@@IIJ@Z 1000c040 f i ScannerImpl.obj
 0001:0000b092       ??_U@YAPAXI@Z              1000c092 f   LIBCMT:new_array.obj
 0001:0000b09b       ??3@YAXPAXI@Z              1000c09b f   LIBCMT:delete_scalar_size.obj
 0001:0000b0a9       ??_V@YAXPAX@Z              1000c0a9 f   LIBCMT:delete_array.obj
 0001:0000b0ae       ??_V@YAXPAXI@Z             1000c0ae f   LIBCMT:delete_array_size.obj
 0001:0000b100       ___scrt_acquire_startup_lock 1000c100 f   LIBCMT:utility.obj
 0001:0000b132       ___scrt_dllmain_after_initialize_c 1000c132 f   LIBCMT:utility.obj
 0001:0000b15d       ___scrt_dllmain_before_initialize_c 1000c15d f   LIBCMT:utility.obj
 0001:0000b16b       ___scrt_dllmain_crt_thread_attach 1000c16b f   LIBCMT:utility.obj
 0001:0000b18a       ___scrt_dllmain_crt_thread_detach 1000c18a f   LIBCMT:utility.obj
 0001:0000b197       ___scrt_dllmain_exception_filter 1000c197 f   LIBCMT:utility.obj
 0001:0000b1cb       ___scrt_dllmain_uninitialize_c 1000c1cb f   LIBCMT:utility.obj
 0001:0000b1ee       ___scrt_dllmain_uninitialize_critical 1000c1ee f   LIBCMT:utility.obj
 0001:0000b1fb       ___scrt_initialize_crt     1000c1fb f   LIBCMT:utility.obj
 0001:0000b234       ___scrt_initialize_onexit_tables 1000c234 f   LIBCMT:utility.obj
 0001:0000b2bb       ___scrt_is_nonwritable_in_current_image 1000c2bb f   LIBCMT:utility.obj
 0001:0000b34f       ___scrt_release_startup_lock 1000c34f f   LIBCMT:utility.obj
 0001:0000b36c       ___scrt_uninitialize_crt   1000c36c f   LIBCMT:utility.obj
 0001:0000b394       __onexit                   1000c394 f   LIBCMT:utility.obj
 0001:0000b3c1       _atexit                    1000c3c1 f   LIBCMT:utility.obj
 0001:0000b3d6       ??3@YAXPAX@Z               1000c3d6 f   LIBCMT:delete_scalar.obj
 0001:0000b4a0       __Init_thread_footer       1000c4a0 f   LIBCMT:thread_safe_statics.obj
 0001:0000b4ea       __Init_thread_header       1000c4ea f   LIBCMT:thread_safe_statics.obj
 0001:0000b53c       __Init_thread_notify       1000c53c f   LIBCMT:thread_safe_statics.obj
 0001:0000b572       __Init_thread_wait         1000c572 f   LIBCMT:thread_safe_statics.obj
 0001:0000b5c0       ___raise_securityfailure   1000c5c0 f   LIBCMT:gs_report.obj
 0001:0000b5e8       ___report_gsfailure        1000c5e8 f   LIBCMT:gs_report.obj
 0001:0000b6e1       ___report_rangecheckfailure 1000c6e1 f   LIBCMT:gs_report.obj
 0001:0000b6ed       ___report_securityfailure  1000c6ed f   LIBCMT:gs_report.obj
 0001:0000b7bb       ??2@YAPAXIABUnothrow_t@std@@@Z 1000c7bb f   LIBCMT:new_scalar_nothrow.obj
 0001:0000b810       ??_U@YAPAXIABUnothrow_t@std@@@Z 1000c810 f   LIBCMT:new_array_nothrow.obj
 0001:0000b819       @__security_check_cookie@4 1000c819 f   LIBCMT:secchk.obj
 0001:0000b830       __SEH_prolog4_GS           1000c830 f   LIBCMT:sehprolg4gs.obj
 0001:0000b877       __SEH_epilog4_GS           1000c877 f   LIBCMT:sehprolg4gs.obj
 0001:0000b890       __alloca_probe_16          1000c890 f   LIBCMT:alloca16.obj
 0001:0000b8a6       __alloca_probe_8           1000c8a6     LIBCMT:alloca16.obj
 0001:0000b8c0       __chkstk                   1000c8c0 f   LIBCMT:chkstk.obj
 0001:0000b8c0       __alloca_probe             1000c8c0 f   LIBCMT:chkstk.obj
 0001:0000bc2d       __DllMainCRTStartup@12     1000cc2d f   LIBCMT:dll_dllmain.obj
 0001:0000bc50       ??2@YAPAXI@Z               1000cc50 f   LIBCMT:new_scalar.obj
 0001:0000bc80       ___isa_available_init      1000cc80 f   LIBCMT:cpu_disp.obj
 0001:0000be50       ___scrt_is_ucrt_dll_in_use 1000ce50 f   LIBCMT:ucrt_detection.obj
 0001:0000be5c       ___scrt_fastfail           1000ce5c f   LIBCMT:utility_desktop.obj
 0001:0000bf76       __crt_debugger_hook        1000cf76 f   LIBCMT:utility_desktop.obj
 0001:0000bf80       __SEH_prolog4              1000cf80 f   LIBCMT:sehprolg4.obj
 0001:0000bfc4       __SEH_epilog4              1000cfc4 f   LIBCMT:sehprolg4.obj
 0001:0000bfd8       @_guard_check_icall_nop@4  1000cfd8 f i LIBCMT:guard_support.obj
 0001:0000c028       ___security_init_cookie    1000d028 f   LIBCMT:gs_support.obj
 0001:0000c073       ?__scrt_initialize_type_info@@YAXXZ 1000d073 f   LIBCMT:tncleanup.obj
 0001:0000c07f       ?__scrt_uninitialize_type_info@@YAXXZ 1000d07f f   LIBCMT:tncleanup.obj
 0001:0000c08b       ___local_stdio_scanf_options 1000d08b f i LIBCMT:default_local_stdio_options.obj
 0001:0000c091       ___scrt_initialize_default_local_stdio_options 1000d091 f   LIBCMT:default_local_stdio_options.obj
 0001:0000c0ae       ___scrt_get_dyn_tls_init_callback 1000d0ae f   LIBCMT:dyn_tls_init.obj
 0001:0000c0b4       __RTC_Initialize           1000d0b4 f   LIBCMT:initsect.obj
 0001:0000c0e0       __RTC_Terminate            1000d0e0 f   LIBCMT:initsect.obj
 0001:0000c10c       ??0bad_alloc@std@@QAE@ABV01@@Z 1000d10c f i LIBCMT:throw_bad_alloc.obj
 0001:0000c127       ??0bad_alloc@std@@QAE@XZ   1000d127 f i LIBCMT:throw_bad_alloc.obj
 0001:0000c13f       ??0bad_array_new_length@std@@QAE@ABV01@@Z 1000d13f f i LIBCMT:throw_bad_alloc.obj
 0001:0000c15a       ??0bad_array_new_length@std@@QAE@XZ 1000d15a f i LIBCMT:throw_bad_alloc.obj
 0001:0000c172       ??0exception@std@@QAE@ABV01@@Z 1000d172 f i LIBCMT:throw_bad_alloc.obj
 0001:0000c19e       ??1bad_alloc@std@@UAE@XZ   1000d19e f i LIBCMT:throw_bad_alloc.obj
 0001:0000c19e       ??1bad_exception@std@@UAE@XZ 1000d19e f i libvcruntime:frame.obj
 0001:0000c19e       ??1bad_array_new_length@std@@UAE@XZ 1000d19e f i LIBCMT:throw_bad_alloc.obj
 0001:0000c1af       ??_Ebad_alloc@std@@UAEPAXI@Z 1000d1af f i LIBCMT:throw_bad_alloc.obj
 0001:0000c1af       ??_Gbad_exception@std@@UAEPAXI@Z 1000d1af f i libvcruntime:frame.obj
 0001:0000c1af       ??_Ebad_exception@std@@UAEPAXI@Z 1000d1af f i libvcruntime:frame.obj
 0001:0000c1af       ??_Gbad_alloc@std@@UAEPAXI@Z 1000d1af f i LIBCMT:throw_bad_alloc.obj
 0001:0000c1af       ??_Gexception@std@@UAEPAXI@Z 1000d1af f i LIBCMT:throw_bad_alloc.obj
 0001:0000c1af       ??_Gbad_array_new_length@std@@UAEPAXI@Z 1000d1af f i LIBCMT:throw_bad_alloc.obj
 0001:0000c1af       ??_Eexception@std@@UAEPAXI@Z 1000d1af f i LIBCMT:throw_bad_alloc.obj
 0001:0000c1af       ??_Ebad_array_new_length@std@@UAEPAXI@Z 1000d1af f i LIBCMT:throw_bad_alloc.obj
 0001:0000c1dc       ?__scrt_throw_std_bad_alloc@@YAXXZ 1000d1dc f   LIBCMT:throw_bad_alloc.obj
 0001:0000c1f9       ?__scrt_throw_std_bad_array_new_length@@YAXXZ 1000d1f9 f   LIBCMT:throw_bad_alloc.obj
 0001:0000c216       ?what@exception@std@@UBEPBDXZ 1000d216 f i LIBCMT:throw_bad_alloc.obj
 0001:0000c223       ??_Gtype_info@@UAEPAXI@Z   1000d223 f i LIBCMT:std_type_info_static.obj
 0001:0000c223       ??_Etype_info@@UAEPAXI@Z   1000d223 f i LIBCMT:std_type_info_static.obj
 0001:0000c246       ??0CAtlBaseModule@ATL@@QAE@XZ 1000d246 f   atls:atlbase.obj
 0001:0000c299       ??0_ATL_BASE_MODULE70@ATL@@QAE@XZ 1000d299 f i atls:atlbase.obj
 0001:0000c2bc       ??1CAtlBaseModule@ATL@@QAE@XZ 1000d2bc f   atls:atlbase.obj
 0001:0000c3a9       ?Init@_stdcallthunk@ATL@@QAEHKPAX@Z 1000d3a9 f i atls:atlthunk.obj
 0001:0000c3de       ?__AllocStdCallThunk_cmn@@YAPAXXZ 1000d3de f   atls:atlthunk.obj
 0001:0000c4a4       ?__FreeStdCallThunk_cmn@@YAXPAX@Z 1000d4a4 f   atls:atlthunk.obj
 0001:0000c53f       _AtlThunk_AllocateData@0   1000d53f f   atls:atlthunk.obj
 0001:0000c5a4       _AtlThunk_DataToCode@4     1000d5a4 f   atls:atlthunk.obj
 0001:0000c5eb       _AtlThunk_FreeData@4       1000d5eb f   atls:atlthunk.obj
 0001:0000c641       _AtlThunk_InitData@12      1000d641 f   atls:atlthunk.obj
 0001:0000c690       __get_purecall_handler     1000d690 f   libvcruntime:purevirt.obj
 0001:0000c696       __purecall                 1000d696 f   libvcruntime:purevirt.obj
 0001:0000c6b2       _wcsstr                    1000d6b2 f   libvcruntime:wcsstr.obj
 0001:0000c960       __except_handler4          1000d960 f   libvcruntime:chandler4.obj
 0001:0000cabe       _memcmp                    1000dabe f   libvcruntime:memcmp.obj
 0001:0000d9d0       _memcpy                    1000e9d0 f   libvcruntime:memcpy.obj
 0001:0000df50       _memset                    1000ef50 f   libvcruntime:memset.obj
 0001:0000e0aa       ___vcrt_initialize         1000f0aa f   libvcruntime:initialization.obj
 0001:0000e0c9       ___vcrt_thread_attach      1000f0c9 f   libvcruntime:initialization.obj
 0001:0000e0d4       ___vcrt_thread_detach      1000f0d4 f   libvcruntime:initialization.obj
 0001:0000e0df       ___vcrt_uninitialize       1000f0df f   libvcruntime:initialization.obj
 0001:0000e0f6       ___vcrt_uninitialize_critical 1000f0f6 f   libvcruntime:initialization.obj
 0001:0000e0fe       ?GetRangeOfTrysToCheck@__FrameHandler3@@SA?AU?$pair@Viterator@TryBlockMap@__FrameHandler3@@V123@@std@@AAVTryBlockMap@1@HPAXPBU_s_FuncInfo@@H@Z 1000f0fe f   libvcruntime:trnsctrl.obj
 0001:0000e16e       ?_CallCatchBlock2@@YAPAXPAUEHRegistrationNode@@PBU_s_FuncInfo@@PAXHK@Z 1000f16e f   libvcruntime:trnsctrl.obj
 0001:0000e1cc       ?_CallSETranslator@@YAHPAUEHExceptionRecord@@PAUEHRegistrationNode@@PAX2PBU_s_FuncInfo@@H1@Z 1000f1cc f   libvcruntime:trnsctrl.obj
 0001:0000e2b2       ?_JumpToContinuation@@YGXPAXPAUEHRegistrationNode@@@Z 1000f2b2 f   libvcruntime:trnsctrl.obj
 0001:0000e2e2       ?_UnwindNestedFrames@@YGXPAUEHRegistrationNode@@PAUEHExceptionRecord@@@Z 1000f2e2 f   libvcruntime:trnsctrl.obj
 0001:0000e335       __CatchGuardHandler        1000f335 f   libvcruntime:trnsctrl.obj
 0001:0000e366       __CreateFrameInfo          1000f366 f   libvcruntime:trnsctrl.obj
 0001:0000e38a       __FindAndUnlinkFrame       1000f38a f   libvcruntime:trnsctrl.obj
 0001:0000e3d2       __TranslatorGuardHandler   1000f3d2 f   libvcruntime:trnsctrl.obj
 0001:0000e46f       ___CxxFrameHandler3        1000f46f f   libvcruntime:trnsctrl.obj
 0001:0000e4a5       ___DestructExceptionObject 1000f4a5 f   libvcruntime:ehhelpers.obj
 0001:0000e546       ?_CallMemberFunction0@@YGXQAX0@Z 1000f546 f i libvcruntime:ehhelpers.obj
 0001:0000e5ab       __IsExceptionObjectToBeDestroyed 1000f5ab f   libvcruntime:ehhelpers.obj
 0001:0000e5d1       ___AdjustPointer           1000f5d1 f   libvcruntime:ehhelpers.obj
 0001:0000e5f6       ___FrameUnwindFilter       1000f5f6 f   libvcruntime:ehhelpers.obj
 0001:0000e64c       ___std_type_info_compare   1000f64c f   libvcruntime:std_type_info.obj
 0001:0000e688       ___std_type_info_destroy_list 1000f688 f   libvcruntime:std_type_info.obj
 0001:0000e6ab       ___std_exception_copy      1000f6ab f   libvcruntime:std_exception.obj
 0001:0000e70e       ___std_exception_destroy   1000f70e f   libvcruntime:std_exception.obj
 0001:0000e72d       __CxxThrowException@8      1000f72d f   libvcruntime:throw.obj
 0001:0000e7a0       _memmove                   1000f7a0 f   libvcruntime:memmove.obj
 0001:0000ed20       __local_unwind4            1000fd20 f   libvcruntime:exsup4.obj
 0001:0000edf4       __seh_longjmp_unwind4@4    1000fdf4 f   libvcruntime:exsup4.obj
 0001:0000ee1c       @_EH4_CallFilterFunc@8     1000fe1c f   libvcruntime:exsup4.obj
 0001:0000ee34       @_EH4_TransferToHandler@8  1000fe34 f   libvcruntime:exsup4.obj
 0001:0000ee50       @_EH4_GlobalUnwind2@8      1000fe50 f   libvcruntime:exsup4.obj
 0001:0000ee6c       @_EH4_LocalUnwind@16       1000fe6c f   libvcruntime:exsup4.obj
 0001:0000ee83       ___except_validate_context_record 1000fe83 f   libvcruntime:jbcxrval.obj
 0001:0000eeb3       ___except_validate_jump_buffer 1000feb3 f   libvcruntime:jbcxrval.obj
 0001:0000eee0       ___vcrt_freefls@4          1000fee0 f   libvcruntime:per_thread_data.obj
 0001:0000eefc       ___vcrt_freeptd            1000fefc f   libvcruntime:per_thread_data.obj
 0001:0000ef32       ___vcrt_getptd             1000ff32 f   libvcruntime:per_thread_data.obj
 0001:0000ef40       ___vcrt_getptd_noexit      1000ff40 f   libvcruntime:per_thread_data.obj
 0001:0000efd2       ___vcrt_initialize_ptd     1000ffd2 f   libvcruntime:per_thread_data.obj
 0001:0000f005       ___vcrt_uninitialize_ptd   10010005 f   libvcruntime:per_thread_data.obj
 0001:0000f020       ___vcrt_initialize_locks   10010020 f   libvcruntime:locks.obj
 0001:0000f05c       ___vcrt_uninitialize_locks 1001005c f   libvcruntime:locks.obj
 0001:0000f7ce       ??$TypeMatchHelper@V__FrameHandler3@@@@YAHPBU_s_HandlerType@@PBU_s_CatchableType@@PBU_s_ThrowInfo@@@Z 100107ce f i libvcruntime:frame.obj
 0001:0000f85c       ??$__InternalCxxFrameHandler@V__FrameHandler3@@@@YA?AW4_EXCEPTION_DISPOSITION@@PAUEHExceptionRecord@@PAUEHRegistrationNode@@PAU_CONTEXT@@PAXPBU_s_FuncInfo@@H1E@Z 1001085c f i libvcruntime:frame.obj
 0001:0000f95e       ??0bad_exception@std@@QAE@ABV01@@Z 1001095e f i libvcruntime:frame.obj
 0001:0000f979       ??0bad_exception@std@@QAE@XZ 10010979 f i libvcruntime:frame.obj
 0001:0000f991       ??8type_info@@QBE_NABV0@@Z 10010991 f i libvcruntime:frame.obj
 0001:0000fbfd       ?FrameUnwindToEmptyState@__FrameHandler3@@SAXPAUEHRegistrationNode@@PAXPBU_s_FuncInfo@@@Z 10010bfd f   libvcruntime:frame.obj
 0001:0000fc15       ?FrameUnwindToState@__FrameHandler3@@SAXPAUEHRegistrationNode@@PAXPBU_s_FuncInfo@@H@Z 10010c15 f   libvcruntime:frame.obj
 0001:0000fd97       ?_CallMemberFunction1@@YGXQAX00@Z 10010d97 f i libvcruntime:frame.obj
 0001:0000fda7       ?_CallMemberFunction2@@YGXQAX00H@Z 10010da7 f i libvcruntime:frame.obj
 0001:0000fdba       ?getESTypes@__FrameHandler3@@SAPBU_s_ESTypeList@@PBU_s_FuncInfo@@@Z 10010dba f i libvcruntime:frame.obj
 0001:0000fdd0       __CallSettingFrame@12      10010dd0 f   libvcruntime:lowhelpr.obj
 0001:0000fdf7       __NLG_Return               10010df7     libvcruntime:lowhelpr.obj
 0001:0000fe20       __global_unwind2           10010e20 f   libvcruntime:exsup.obj
 0001:0000fe86       __local_unwind2            10010e86 f   libvcruntime:exsup.obj
 0001:0000ff0a       __abnormal_termination     10010f0a f   libvcruntime:exsup.obj
 0001:0000ff30       __NLG_Notify1              10010f30 f   libvcruntime:exsup.obj
 0001:0000ff3c       __NLG_Notify               10010f3c f   libvcruntime:exsup.obj
 0001:0000ff53       __NLG_Dispatch2            10010f53     libvcruntime:exsup.obj
 0001:0000ff53       __NLG_Dispatch             10010f53     libvcruntime:exsup.obj
 0001:0000ff5b       __NLG_Call                 10010f5b f   libvcruntime:exsup.obj
 0001:0000ff5d       __NLG_Return2              10010f5d     libvcruntime:exsup.obj
 0001:00010041       ___vcrt_FlsAlloc           10011041 f   libvcruntime:winapi_downlevel.obj
 0001:0001007c       ___vcrt_FlsFree            1001107c f   libvcruntime:winapi_downlevel.obj
 0001:000100b7       ___vcrt_FlsGetValue        100110b7 f   libvcruntime:winapi_downlevel.obj
 0001:000100f2       ___vcrt_FlsSetValue        100110f2 f   libvcruntime:winapi_downlevel.obj
 0001:00010130       ___vcrt_InitializeCriticalSectionEx 10011130 f   libvcruntime:winapi_downlevel.obj
 0001:00010177       _unexpected                10011177 f   libvcruntime:unexpected.obj
 0001:00010194       ?GetCurrentState@__FrameHandler3@@SAHPAUEHRegistrationNode@@PAXPBU_s_FuncInfo@@@Z 10011194 f   libvcruntime:ehstate.obj
 0001:000101b1       ?SetState@__FrameHandler3@@SAXPAUEHRegistrationNode@@PBU_s_FuncInfo@@H@Z 100111b1 f   libvcruntime:ehstate.obj
 0001:000101bf       _free                      100111bf f   libucrt:free.obj
 0001:000101da       ___acrt_call_reportfault   100111da f   libucrt:invalid_parameter.obj
 0001:00010313       ___acrt_initialize_invalid_parameter_handler 10011313 f   libucrt:invalid_parameter.obj
 0001:00010322       __invalid_parameter        10011322 f   libucrt:invalid_parameter.obj
 0001:00010386       __invalid_parameter_noinfo 10011386 f   libucrt:invalid_parameter.obj
 0001:00010396       __invoke_watson            10011396 f   libucrt:invalid_parameter.obj
 0001:000103ca       ___acrt_errno_from_os_error 100113ca f   libucrt:errno.obj
 0001:0001040d       ___acrt_errno_map_os_error 1001140d f   libucrt:errno.obj
 0001:00010430       ___doserrno                10011430 f   libucrt:errno.obj
 0001:00010443       __errno                    10011443 f   libucrt:errno.obj
 0001:00010456       _calloc                    10011456 f   libucrt:calloc.obj
 0001:00010461       _malloc                    10011461 f   libucrt:malloc.obj
 0001:0001046c       __recalloc                 1001146c f   libucrt:recalloc.obj
 0001:00010477       __recalloc_base            10011477 f   libucrt:recalloc.obj
 0001:000104e4       __resetstkoflw             100114e4 f   libucrt:resetstk.obj
 0001:000105a9       _wcscat_s                  100115a9 f   libucrt:wcscat_s.obj
 0001:0001061e       _wcscpy_s                  1001161e f   libucrt:wcscpy_s.obj
 0001:0001074d       _wcsncpy_s                 1001174d f   libucrt:wcsncpy_s.obj
 0001:00010959       ??$count@D@formatting_buffer@__crt_stdio_output@@QBEIXZ 10011959 f i libucrt:output.obj
 0001:00010971       ??$count@_W@formatting_buffer@__crt_stdio_output@@QBEIXZ 10011971 f i libucrt:output.obj
 0001:0001098a       ??$ensure_buffer_is_big_enough@D@formatting_buffer@__crt_stdio_output@@QAE_NI@Z 1001198a f i libucrt:output.obj
 0001:00010a07       ??$ensure_buffer_is_big_enough@_W@formatting_buffer@__crt_stdio_output@@QAE_NI@Z 10011a07 f i libucrt:output.obj
 0001:00010a85       ??$is_wide_character_specifier@_W@__crt_stdio_output@@YA_N_K_WW4length_modifier@0@@Z 10011a85 f i libucrt:output.obj
 0001:00010ad3       ??$scratch_data@D@formatting_buffer@__crt_stdio_output@@QAEPADXZ 10011ad3 f i libucrt:output.obj
 0001:00010af1       ??$type_case_integer_parse_into_buffer@I@?$output_processor@_WV?$string_output_adapter@_W@__crt_stdio_output@@V?$format_validation_base@_WV?$string_output_adapter@_W@__crt_stdio_output@@@2@@__crt_stdio_output@@AAEXII_N@Z 10011af1 f i libucrt:output.obj
 0001:00010b78       ??$type_case_integer_parse_into_buffer@_K@?$output_processor@_WV?$string_output_adapter@_W@__crt_stdio_output@@V?$format_validation_base@_WV?$string_output_adapter@_W@__crt_stdio_output@@@2@@__crt_stdio_output@@AAEX_KI_N@Z 10011b78 f i libucrt:output.obj
 0001:00010c1a       ??$write_multiple_characters@V?$string_output_adapter@_W@__crt_stdio_output@@D@__crt_stdio_output@@YAXABV?$string_output_adapter@_W@0@DHQAH@Z 10011c1a f i libucrt:output.obj
 0001:00010c4b       ??0?$common_data@_W@__crt_stdio_output@@IAE@XZ 10011c4b f i libucrt:output.obj
 0001:00010c95       ??0?$output_adapter_data@_WV?$string_output_adapter@_W@__crt_stdio_output@@@__crt_stdio_output@@IAE@ABV?$string_output_adapter@_W@1@_KQB_WQAU__crt_locale_pointers@@QAD@Z 10011c95 f i libucrt:output.obj
 0001:00010cd1       ??0_LocaleUpdate@@QAE@QAU__crt_locale_pointers@@@Z 10011cd1 f i libucrt:output.obj
 0001:00010d54       ??1formatting_buffer@__crt_stdio_output@@QAE@XZ 10011d54 f i libucrt:output.obj
 0001:00010d6e       ??4?$__crt_unique_heap_ptr@DU__crt_internal_free_policy@@@@QAEAAV0@$$QAV0@@Z 10011d6e f i libucrt:output.obj
 0001:00010da0       ?crop_zeroes@__crt_stdio_output@@YAXPADQAU__crt_locale_pointers@@@Z 10011da0 f i libucrt:output.obj
 0001:00010e21       ?find_next_state@?$output_processor@_WV?$string_output_adapter@_W@__crt_stdio_output@@V?$format_validation_base@_WV?$string_output_adapter@_W@__crt_stdio_output@@@2@@__crt_stdio_output@@ABE?AW4state@2@_WW432@@Z 10011e21 f i libucrt:output.obj
 0001:00010e60       ?force_decimal_point@__crt_stdio_output@@YAXPADQAU__crt_locale_pointers@@@Z 10011e60 f i libucrt:output.obj
 0001:00010ec5       ?parse_int_from_format_string@?$output_processor@_WV?$string_output_adapter@_W@__crt_stdio_output@@V?$format_validation_base@_WV?$string_output_adapter@_W@__crt_stdio_output@@@2@@__crt_stdio_output@@AAE_NQAH@Z 10011ec5 f i libucrt:output.obj
 0001:00010f3b       ?process@?$output_processor@_WV?$string_output_adapter@_W@__crt_stdio_output@@V?$format_validation_base@_WV?$string_output_adapter@_W@__crt_stdio_output@@@2@@__crt_stdio_output@@QAEHXZ 10011f3b f i libucrt:output.obj
 0001:00011063       ?state_case_flag@?$output_processor@_WV?$string_output_adapter@_W@__crt_stdio_output@@V?$format_validation_base@_WV?$string_output_adapter@_W@__crt_stdio_output@@@2@@__crt_stdio_output@@AAE_NXZ 10012063 f i libucrt:output.obj
 0001:000110a0       ?state_case_normal@?$output_processor@_WV?$string_output_adapter@_W@__crt_stdio_output@@V?$format_validation_base@_WV?$string_output_adapter@_W@__crt_stdio_output@@@2@@__crt_stdio_output@@AAE_NXZ 100120a0 f i libucrt:output.obj
 0001:000110bf       ?state_case_normal_common@?$output_processor@_WV?$string_output_adapter@_W@__crt_stdio_output@@V?$format_validation_base@_WV?$string_output_adapter@_W@__crt_stdio_output@@@2@@__crt_stdio_output@@AAE_NXZ 100120bf f i libucrt:output.obj
 0001:000110da       ?state_case_precision@?$output_processor@_WV?$string_output_adapter@_W@__crt_stdio_output@@V?$format_validation_base@_WV?$string_output_adapter@_W@__crt_stdio_output@@@2@@__crt_stdio_output@@AAE_NXZ 100120da f i libucrt:output.obj
 0001:00011101       ?state_case_size@?$output_processor@_WV?$string_output_adapter@_W@__crt_stdio_output@@V?$format_validation_base@_WV?$string_output_adapter@_W@__crt_stdio_output@@@2@@__crt_stdio_output@@AAE_NXZ 10012101 f i libucrt:output.obj
 0001:00011279       ?state_case_type@?$output_processor@_WV?$string_output_adapter@_W@__crt_stdio_output@@V?$format_validation_base@_WV?$string_output_adapter@_W@__crt_stdio_output@@@2@@__crt_stdio_output@@AAE_NXZ 10012279 f i libucrt:output.obj
 0001:000114d6       ?state_case_width@?$output_processor@_WV?$string_output_adapter@_W@__crt_stdio_output@@V?$format_validation_base@_WV?$string_output_adapter@_W@__crt_stdio_output@@@2@@__crt_stdio_output@@AAE_NXZ 100124d6 f i libucrt:output.obj
 0001:00011510       ?to_integer_size@__crt_stdio_output@@YAIW4length_modifier@1@@Z 10012510 f i libucrt:output.obj
 0001:0001156c       ?type_case_Z@?$output_processor@_WV?$string_output_adapter@_W@__crt_stdio_output@@V?$format_validation_base@_WV?$string_output_adapter@_W@__crt_stdio_output@@@2@@__crt_stdio_output@@AAE_NXZ 1001256c f i libucrt:output.obj
 0001:000115c6       ?type_case_a@?$output_processor@_WV?$string_output_adapter@_W@__crt_stdio_output@@V?$format_validation_base@_WV?$string_output_adapter@_W@__crt_stdio_output@@@2@@__crt_stdio_output@@AAE_NXZ 100125c6 f i libucrt:output.obj
 0001:0001172d       ?type_case_c_tchar@?$output_processor@_WV?$string_output_adapter@_W@__crt_stdio_output@@V?$format_validation_base@_WV?$string_output_adapter@_W@__crt_stdio_output@@@2@@__crt_stdio_output@@AAE_N_W@Z 1001272d f i libucrt:output.obj
 0001:000117c3       ?type_case_integer@?$output_processor@_WV?$string_output_adapter@_W@__crt_stdio_output@@V?$format_validation_base@_WV?$string_output_adapter@_W@__crt_stdio_output@@@2@@__crt_stdio_output@@AAE_NI_N@Z 100127c3 f i libucrt:output.obj
 0001:00011918       ?type_case_n@?$output_processor@_WV?$string_output_adapter@_W@__crt_stdio_output@@V?$format_validation_base@_WV?$string_output_adapter@_W@__crt_stdio_output@@@2@@__crt_stdio_output@@AAE_NXZ 10012918 f i libucrt:output.obj
 0001:0001198c       ?type_case_o@?$output_processor@_WV?$string_output_adapter@_W@__crt_stdio_output@@V?$format_validation_base@_WV?$string_output_adapter@_W@__crt_stdio_output@@@2@@__crt_stdio_output@@AAE_NXZ 1001298c f i libucrt:output.obj
 0001:000119ab       ?type_case_p@?$output_processor@_WV?$string_output_adapter@_W@__crt_stdio_output@@V?$format_validation_base@_WV?$string_output_adapter@_W@__crt_stdio_output@@@2@@__crt_stdio_output@@AAE_NXZ 100129ab f i libucrt:output.obj
 0001:000119c3       ?type_case_s@?$output_processor@_WV?$string_output_adapter@_W@__crt_stdio_output@@V?$format_validation_base@_WV?$string_output_adapter@_W@__crt_stdio_output@@@2@@__crt_stdio_output@@AAE_NXZ 100129c3 f i libucrt:output.obj
 0001:00011a36       ?type_case_s_compute_narrow_string_length@?$output_processor@_WV?$string_output_adapter@_W@__crt_stdio_output@@V?$format_validation_base@_WV?$string_output_adapter@_W@__crt_stdio_output@@@2@@__crt_stdio_output@@ABEHH_W@Z 10012a36 f i libucrt:output.obj
 0001:00011a7d       ?validate@?$c_string_character_source@_W@__crt_strtox@@QBE_NXZ 10012a7d f i libucrt:atox.obj
 0001:00011a7d       ?validate@?$string_output_adapter@_W@__crt_stdio_output@@QBE_NXZ 10012a7d f i libucrt:output.obj
 0001:00011a98       ?validate_and_update_state_at_end_of_format_string@?$format_validation_base@_WV?$string_output_adapter@_W@__crt_stdio_output@@@__crt_stdio_output@@IBE_NXZ 10012a98 f i libucrt:output.obj
 0001:00011aba       ?write_character@?$string_output_adapter@_W@__crt_stdio_output@@QBE_N_WQAH@Z 10012aba f i libucrt:output.obj
 0001:00011aff       ?write_stored_string_tchar@?$output_processor@_WV?$string_output_adapter@_W@__crt_stdio_output@@V?$format_validation_base@_WV?$string_output_adapter@_W@__crt_stdio_output@@@2@@__crt_stdio_output@@AAE_N_W@Z 10012aff f i libucrt:output.obj
 0001:00011b8c       ?write_string@?$string_output_adapter@_W@__crt_stdio_output@@QBEXQB_WHQAHAAV__crt_deferred_errno_cache@@@Z 10012b8c f i libucrt:output.obj
 0001:00011bfd       ___acrt_locale_get_ctype_array_value 10012bfd f i libucrt:output.obj
 0001:00011c1f       ___stdio_common_vswprintf_s 10012c1f f   libucrt:output.obj
 0001:00011c43       __seh_filter_dll           10012c43 f   libucrt:exception_filter.obj
 0001:00011c63       __seh_filter_exe           10012c63 f   libucrt:exception_filter.obj
 0001:00012031       ___acrt_initialize_thread_local_exit_callback 10013031 f   libucrt:exit.obj
 0001:00012040       __cexit                    10013040 f   libucrt:exit.obj
 0001:0001204f       __exit                     1001304f f   libucrt:exit.obj
 0001:00012065       __is_c_termination_complete 10013065 f   libucrt:exit.obj
 0001:00012316       ___acrt_allocate_buffer_for_argv 10013316 f   libucrt:argv_parsing.obj
 0001:00012365       __configure_narrow_argv    10013365 f   libucrt:argv_parsing.obj
 0001:000124c2       ??$uninitialize@A6AXAAPAPAD@Z@?$dual_state_global@PAPAD@__crt_state_management@@QAEXA6AXAAPAPAD@Z@Z 100134c2 f i libucrt:environment_initialization.obj
 0001:000124c2       ??$uninitialize@A6AXAAPAPA_W@Z@?$dual_state_global@PAPA_W@__crt_state_management@@QAEXA6AXAAPAPA_W@Z@Z 100134c2 f i libucrt:environment_initialization.obj
 0001:00012521       ___dcrt_uninitialize_environments_nolock 10013521 f   libucrt:environment_initialization.obj
 0001:00012558       __initialize_narrow_environment 10013558 f   libucrt:environment_initialization.obj
 0001:00012613       ??$__crt_fast_encode_pointer@P6AHXZ@@YAP6AHXZQ6AHXZ@Z 10013613 f i libucrt:onexit.obj
 0001:00012613       ??$__crt_fast_encode_pointer@PAX@@YAPAXQAX@Z 10013613 f i libucrt:initialization.obj
 0001:00012613       ??$__crt_fast_encode_pointer@PAP6AXXZ@@YAPAP6AXXZQAP6AXXZ@Z 10013613 f i libucrt:onexit.obj
 0001:00012835       __crt_atexit               10013835 f   libucrt:onexit.obj
 0001:0001284b       __execute_onexit_table     1001384b f   libucrt:onexit.obj
 0001:00012878       __initialize_onexit_table  10013878 f   libucrt:onexit.obj
 0001:000128a1       __register_onexit_function 100138a1 f   libucrt:onexit.obj
 0001:000128fb       ___acrt_uninitialize_command_line 100138fb f   libucrt:argv_data.obj
 0001:000129d2       ___acrt_initialize         100139d2 f   libucrt:initialization.obj
 0001:000129e4       ___acrt_thread_attach      100139e4 f   libucrt:initialization.obj
 0001:000129ef       ___acrt_thread_detach      100139ef f   libucrt:initialization.obj
 0001:000129f7       ___acrt_uninitialize       100139f7 f   libucrt:initialization.obj
 0001:00012a27       ___acrt_uninitialize_critical 10013a27 f   libucrt:initialization.obj
 0001:00012a39       __initterm                 10013a39 f   libucrt:initterm.obj
 0001:00012a7e       __initterm_e               10013a7e f   libucrt:initterm.obj
 0001:00012aac       ___acrt_initialize_new_handler 10013aac f   libucrt:new_handler.obj
 0001:00012abb       __callnewh                 10013abb f   libucrt:new_handler.obj
 0001:00012ae8       __query_new_handler        10013ae8 f   libucrt:new_handler.obj
 0001:00012b44       _terminate                 10013b44 f   libucrt:terminate.obj
 0001:00012b80       _abort                     10013b80 f   libucrt:abort.obj
 0001:00012bc4       _strcpy_s                  10013bc4 f   libucrt:strcpy_s.obj
 0001:00012c1e       ??$is_overflow_condition@K@__crt_strtox@@YA_NIK@Z 10013c1e f i libucrt:atox.obj
 0001:00012c4f       ??$parse_integer@KV?$c_string_character_source@_W@__crt_strtox@@@__crt_strtox@@YAKQAU__crt_locale_pointers@@V?$c_string_character_source@_W@0@H_N@Z 10013c4f f i libucrt:atox.obj
 0001:00013257       ?unget@?$c_string_character_source@_W@__crt_strtox@@QAEX_W@Z 10014257 f i libucrt:atox.obj
 0001:00013290       _strncmp                   10014290 f   libucrt:strncmp.obj
 0001:00013308       _wcsncmp                   10014308 f   libucrt:wcsncmp.obj
 0001:00013342       __free_base                10014342 f   libucrt:free_base.obj
 0001:000136ba       ___acrt_freeptd            100146ba f   libucrt:per_thread_data.obj
 0001:000136e6       ___acrt_getptd             100146e6 f   libucrt:per_thread_data.obj
 0001:000137a3       ___acrt_getptd_head        100147a3 f   libucrt:per_thread_data.obj
 0001:0001383d       ___acrt_getptd_noexit      1001483d f   libucrt:per_thread_data.obj
 0001:000138f2       ___acrt_initialize_ptd     100148f2 f   libucrt:per_thread_data.obj
 0001:0001391e       ___acrt_uninitialize_ptd   1001491e f   libucrt:per_thread_data.obj
 0001:00013938       __calloc_base              10014938 f   libucrt:calloc_base.obj
 0001:00013995       __malloc_base              10014995 f   libucrt:malloc_base.obj
 0001:000139e3       __msize_base               100149e3 f   libucrt:msize.obj
 0001:00013a16       __realloc_base             10014a16 f   libucrt:realloc_base.obj
 0001:00013c17       ___acrt_AppPolicyGetProcessTerminationMethodInternal@4 10014c17 f   libucrt:winapi_thunks.obj
 0001:00013c57       ___acrt_AreFileApisANSI@0  10014c57 f   libucrt:winapi_thunks.obj
 0001:00013c76       ___acrt_FlsAlloc@4         10014c76 f   libucrt:winapi_thunks.obj
 0001:00013cb5       ___acrt_FlsFree@4          10014cb5 f   libucrt:winapi_thunks.obj
 0001:00013cf4       ___acrt_FlsGetValue@4      10014cf4 f   libucrt:winapi_thunks.obj
 0001:00013d33       ___acrt_FlsSetValue@8      10014d33 f   libucrt:winapi_thunks.obj
 0001:00013d75       ___acrt_InitializeCriticalSectionEx@12 10014d75 f   libucrt:winapi_thunks.obj
 0001:00013dc0       ___acrt_LCMapStringEx@36   10014dc0 f   libucrt:winapi_thunks.obj
 0001:00013e1d       ___acrt_LocaleNameToLCID@8 10014e1d f   libucrt:winapi_thunks.obj
 0001:00013e4e       ___acrt_SetThreadStackGuarantee@4 10014e4e f   libucrt:winapi_thunks.obj
 0001:00013e89       ___acrt_initialize_winapi_thunks 10014e89 f   libucrt:winapi_thunks.obj
 0001:00013eb4       ___acrt_uninitialize_winapi_thunks 10014eb4 f   libucrt:winapi_thunks.obj
 0001:00013eea       ??$make_c_string_character_source@_WPAPA_W@__crt_strtox@@YA?AV?$c_string_character_source@_W@0@QB_WQAPA_W@Z 10014eea f i libucrt:strtox.obj
 0001:00013f05       _wcstol                    10014f05 f   libucrt:strtox.obj
 0001:00013f2f       __mbtowc_l                 10014f2f f   libucrt:mbtowc.obj
 0001:00014071       _mbtowc                    10015071 f   libucrt:mbtowc.obj
 0001:0001408b       _wcsnlen                   1001508b f   libucrt:strnlen.obj
 0001:0001423b       ___acrt_update_locale_info 1001523b f   libucrt:locale_update.obj
 0001:00014268       ___acrt_update_multibyte_info 10015268 f   libucrt:locale_update.obj
 0001:00014295       ?__acrt_fp_classify@@YA?AW4__acrt_fp_class@@ABN@Z 10015295 f i libucrt:cvt.obj
 0001:00014c47       ___acrt_fp_format          10015c47 f   libucrt:cvt.obj
 0001:00014da5       __fileno                   10015da5 f   libucrt:fileno.obj
 0001:00014dcc       ___acrt_initialize_stdio   10015dcc f   libucrt:_file.obj
 0001:00014e94       ___acrt_uninitialize_stdio 10015e94 f   libucrt:_file.obj
 0001:00014ee0       __lock_file                10015ee0 f   libucrt:_file.obj
 0001:00014ef4       __unlock_file              10015ef4 f   libucrt:_file.obj
 0001:00014f08       __get_printf_count_output  10015f08 f   libucrt:printf_count_output.obj
 0001:00014f8b       ___acrt_set_locale_changed 10015f8b f   libucrt:wsetlocale.obj
 0001:00014f96       ___acrt_uninitialize_locale 10015f96 f   libucrt:wsetlocale.obj
 0001:00015127       ___acrt_initialize_lowio   10016127 f   libucrt:ioinit.obj
 0001:00015187       ___acrt_uninitialize_lowio 10016187 f   libucrt:ioinit.obj
 0001:000151b3       ___acrt_initialize_locks   100161b3 f   libucrt:locks.obj
 0001:000151f4       ___acrt_lock               100161f4 f   libucrt:locks.obj
 0001:0001520b       ___acrt_uninitialize_locks 1001620b f   libucrt:locks.obj
 0001:0001523c       ___acrt_unlock             1001623c f   libucrt:locks.obj
 0001:00015253       ___acrt_get_process_end_policy 10016253 f   libucrt:win_policies.obj
 0001:0001541d       ??$__acrt_mbs_to_wcs_cp@U__crt_win32_buffer_internal_dynamic_resizing@@@@YAHQBDAAV?$__crt_win32_buffer@_WU__crt_win32_buffer_internal_dynamic_resizing@@@@I@Z 1001641d f i libucrt:argv_wildcards.obj
 0001:00015931       ?__acrt_get_utf8_acp_compatibility_codepage@@YAIXZ 10016931 f i libucrt:argv_wildcards.obj
 0001:00015970       ?_deallocate@?$__crt_win32_buffer@_WU__crt_win32_buffer_internal_dynamic_resizing@@@@AAEXXZ 10016970 f i libucrt:argv_wildcards.obj
 0001:00015970       ?_deallocate@?$__crt_win32_buffer@DU__crt_win32_buffer_internal_dynamic_resizing@@@@AAEXXZ 10016970 f i libucrt:argv_wildcards.obj
 0001:0001598a       ?allocate@?$__crt_win32_buffer@DU__crt_win32_buffer_internal_dynamic_resizing@@@@QAEHI@Z 1001698a f i libucrt:argv_wildcards.obj
 0001:000159c6       ?allocate@?$__crt_win32_buffer@_WU__crt_win32_buffer_internal_dynamic_resizing@@@@QAEHI@Z 100169c6 f i libucrt:argv_wildcards.obj
 0001:00015a05       ?allocate@__crt_win32_buffer_internal_dynamic_resizing@@SAHQAPAXIABV__crt_win32_buffer_empty_debug_info@@@Z 10016a05 f i libucrt:argv_wildcards.obj
 0001:00015aab       ___acrt_expand_narrow_argv_wildcards 10016aab f   libucrt:argv_wildcards.obj
 0001:00015b7d       ?allocate@?$__crt_win32_buffer@DU__crt_win32_buffer_no_resizing@@@@QAEHI@Z 10016b7d f i libucrt:getmodulefilenamea.obj
 0001:00015ba4       ?set_to_nullptr@?$__crt_win32_buffer@DU__crt_win32_buffer_no_resizing@@@@QAEXXZ 10016ba4 f i libucrt:getmodulefilenamea.obj
 0001:00015bb8       ___acrt_GetModuleFileNameA 10016bb8 f   libucrt:getmodulefilenamea.obj
 0001:00016171       ___acrt_initialize_multibyte 10017171 f   libucrt:mbctype.obj
 0001:000161b9       ___acrt_update_thread_multibyte_data 100171b9 f   libucrt:mbctype.obj
 0001:000161cc       __setmbcp_nolock           100171cc f   libucrt:mbctype.obj
 0001:00016497       __ismbblead                10017497 f   libucrt:ismbbyte.obj
 0001:000164af       ___acrt_initialize_command_line 100174af f   libucrt:argv_data.obj
 0001:000164c8       ___acrt_MultiByteToWideChar 100174c8 f   libucrt:multibytetowidechar.obj
 0001:00016544       ___acrt_WideCharToMultiByte 10017544 f   libucrt:widechartomultibyte.obj
 0001:00016632       ___dcrt_get_narrow_environment_from_os 10017632 f   libucrt:get_environment_from_os.obj
 0001:000166b6       ___acrt_initialize_heap    100176b6 f   libucrt:heap_handle.obj
 0001:000166c7       ___acrt_uninitialize_heap  100176c7 f   libucrt:heap_handle.obj
 0001:000166d1       ___acrt_execute_initializers 100176d1 f   libucrt:shared_initialization.obj
 0001:00016739       ___acrt_execute_uninitializers 10017739 f   libucrt:shared_initialization.obj
 0001:00016838       ___acrt_get_sigabrt_handler 10017838 f   libucrt:signal.obj
 0001:0001685f       ___acrt_initialize_signal_handlers 1001785f f   libucrt:signal.obj
 0001:0001687d       _raise                     1001787d f   libucrt:signal.obj
 0001:00016a70       ___acrt_has_user_matherr   10017a70 f   libucrt:matherr.obj
 0001:00016a88       ___acrt_initialize_user_matherr 10017a88 f   libucrt:matherr.obj
 0001:00016a97       ___acrt_invoke_user_matherr 10017a97 f   libucrt:matherr.obj
 0001:00016ca6       ___acrt_stdio_flush_nolock 10017ca6 f   libucrt:fflush.obj
 0001:00016d0b       __fflush_nolock            10017d0b f   libucrt:fflush.obj
 0001:00016d53       __flushall                 10017d53 f   libucrt:fflush.obj
 0001:00016d5c       ___pctype_func             10017d5c f   libucrt:ctype.obj
 0001:00016d80       _iswctype                  10017d80 f   libucrt:iswctype.obj
 0001:00016de9       ___acrt_add_locale_ref     10017de9 f   libucrt:locale_refcounting.obj
 0001:00016e66       ___acrt_free_locale        10017e66 f   libucrt:locale_refcounting.obj
 0001:00016fae       ___acrt_locale_add_lc_time_reference 10017fae f   libucrt:locale_refcounting.obj
 0001:00016fd7       ___acrt_locale_free_lc_time_if_unreferenced 10017fd7 f   libucrt:locale_refcounting.obj
 0001:00017008       ___acrt_locale_release_lc_time_reference 10018008 f   libucrt:locale_refcounting.obj
 0001:00017031       ___acrt_release_locale_ref 10018031 f   libucrt:locale_refcounting.obj
 0001:000170b2       ___acrt_update_thread_locale_data 100180b2 f   libucrt:locale_refcounting.obj
 0001:00017133       __updatetlocinfoEx_nolock  10018133 f   libucrt:locale_refcounting.obj
 0001:00017183       __query_new_mode           10018183 f   libucrt:new_mode.obj
 0001:000171da       ___acrt_DownlevelLocaleNameToLCID 100181da f   libucrt:lcidtoname_downlevel.obj
 0001:00017206       __isleadbyte_l             10018206 f i libucrt:_wctype.obj
 0001:0001726c       ?__mbrtowc_utf8@__crt_mbstring@@YAIPA_WPBDIPAU_Mbstatet@@@Z 1001826c f   libucrt:mbrtowc.obj
 0001:000172ac       ?__mbsrtowcs_utf8@__crt_mbstring@@YAIPA_WPAPBDIPAU_Mbstatet@@@Z 100182ac f   libucrt:mbrtowc.obj
 0001:000173a7       ?return_illegal_sequence@__crt_mbstring@@YAIPAU_Mbstatet@@@Z 100183a7 f i libucrt:c32rtomb.obj
 0001:00017431       ___acrt_fp_strflt_to_string 10018431 f   libucrt:_fptostr.obj
 0001:00017510       ?divide@__crt_strtox@@YA_KAAUbig_integer@1@ABU21@@Z 10018510 f i libucrt:cfout.obj
 0001:000179a8       ___acrt_fltout             100189a8 f   libucrt:cfout.obj
 0001:00018eaf       _fegetround                10019eaf f   libucrt:fegetround.obj
 0001:00018ebc       __fcloseall                10019ebc f   libucrt:closeall.obj
 0001:00018f67       ___acrt_stdio_free_buffer_nolock 10019f67 f   libucrt:_freebuf.obj
 0001:00018fa7       __isatty                   10019fa7 f   libucrt:isatty.obj
 0001:00018ffd       ___acrt_locale_free_monetary 10019ffd f   libucrt:initmon.obj
 0001:000190fb       ___acrt_locale_free_numeric 1001a0fb f   libucrt:initnum.obj
 0001:0001919c       ___acrt_locale_free_time   1001a19c f   libucrt:inittime.obj
 0001:00019280       ___acrt_GetStringTypeA     1001a280 f   libucrt:getstringtypea.obj
 0001:00019383       __freea_crt                1001a383 f i libucrt:getstringtypea.obj
 0001:000193a3       ___acrt_lowio_create_handle_array 1001a3a3 f   libucrt:osfinfo.obj
 0001:0001941e       ___acrt_lowio_destroy_handle_array 1001a41e f   libucrt:osfinfo.obj
 0001:00019453       ___acrt_lowio_ensure_fh_exists 1001a453 f   libucrt:osfinfo.obj
 0001:000194f1       ___acrt_lowio_lock_fh      1001a4f1 f   libucrt:osfinfo.obj
 0001:00019514       ___acrt_lowio_unlock_fh    1001a514 f   libucrt:osfinfo.obj
 0001:00019537       __free_osfhnd              1001a537 f   libucrt:osfinfo.obj
 0001:000195c8       __get_osfhandle            1001a5c8 f   libucrt:osfinfo.obj
 0001:00019640       _qsort                     1001a640 f   libucrt:qsort.obj
 0001:00019be1       _strncpy_s                 1001abe1 f   libucrt:strncpy_s.obj
 0001:00019bf0       _strpbrk                   1001abf0 f   libucrt:strpbrk.obj
 0001:00019c30       __mbsdec                   1001ac30 f   libucrt:mbsdec.obj
 0001:00019c47       __mbsdec_l                 1001ac47 f   libucrt:mbsdec.obj
 0001:00019ebe       ___acrt_LCMapStringA       1001aebe f   libucrt:lcmapstringa.obj
 0001:00019fb8       __commit                   1001afb8 f   libucrt:commit.obj
 0001:0001a7b0       __write                    1001b7b0 f   libucrt:write.obj
 0001:0001a8a2       __write_nolock             1001b8a2 f   libucrt:write.obj
 0001:0001aa7c       ___acrt_GetStringTypeW     1001ba7c f   libucrt:getstringtypew.obj
 0001:0001aa95       ___ascii_wcsnicmp          1001ba95 f   libucrt:wcsnicmp.obj
 0001:0001aae4       ?__mbrtoc32_utf8@__crt_mbstring@@YAIPA_UPBDIPAU_Mbstatet@@@Z 1001bae4 f   libucrt:mbrtoc32.obj
 0001:0001ac8b       __controlfp_s              1001bc8b f   libucrt:contrlfp.obj
 0001:0001acea       _fegetenv                  1001bcea f   libucrt:fegetenv.obj
 0001:0001ad07       _fesetenv                  1001bd07 f   libucrt:fesetenv.obj
 0001:0001ad52       _feholdexcept              1001bd52 f   libucrt:feholdexcept.obj
 0001:0001ada0       __CIlog10                  1001bda0 f   libucrt:log10_impl.obj
 0001:0001addb       __CIlog10_default          1001bddb f   libucrt:log10_impl.obj
 0001:0001adef       __log10_default            1001bdef     libucrt:log10_impl.obj
 0001:0001aeb0       _ceil                      1001beb0 f   libucrt:ceil_pentium4.obj
 0001:0001aef0       __ceil_pentium4            1001bef0 f   libucrt:ceil_pentium4.obj
 0001:0001b2ea       ___acrt_fenv_get_common_round_control 1001c2ea f   libucrt:_fenvutils.obj
 0001:0001b30c       ___acrt_fenv_get_control   1001c30c f   libucrt:_fenvutils.obj
 0001:0001b38c       ___acrt_fenv_get_status    1001c38c f   libucrt:_fenvutils.obj
 0001:0001b444       ___acrt_fenv_set_control   1001c444 f   libucrt:_fenvutils.obj
 0001:0001b4ac       ___acrt_fenv_set_status    1001c4ac f   libucrt:_fenvutils.obj
 0001:0001b61f       __lseeki64_nolock          1001c61f f   libucrt:lseek.obj
 0001:0001b63a       __fclose_nolock            1001c63a f   libucrt:fclose.obj
 0001:0001b6b1       _fclose                    1001c6b1 f   libucrt:fclose.obj
 0001:0001b735       __query_app_type           1001c735 f   libucrt:report_runtime_error.obj
 0001:0001b73b       ___strncnt                 1001c73b f   libucrt:strncnt.obj
 0001:0001b757       __putwch_nolock            1001c757 f   libucrt:putwch.obj
 0001:0001b830       __clearfp                  1001c830 f   libucrt:ieee87.obj
 0001:0001b90e       __control87                1001c90e f   libucrt:ieee87.obj
 0001:0001bcad       ___acrt_initialize_sse2    1001ccad f   libucrt:mathfcns.obj
 0001:0001bcc0       __CIlog10_pentium4         1001ccc0 f   libucrt:log10_pentium4.obj
 0001:0001bcd8       __log10_pentium4           1001ccd8     libucrt:log10_pentium4.obj
 0001:0001bf70       __fFEXP                    1001cf70 f   libucrt:87tran.obj
 0001:0001bfc7       __rtinfpopse               1001cfc7     libucrt:87tran.obj
 0001:0001bfc9       __rtinfnpopse              1001cfc9     libucrt:87tran.obj
 0001:0001bfd9       __fFLN                     1001cfd9     libucrt:87tran.obj
 0001:0001c08e       __rtinfpop                 1001d08e     libucrt:87tran.obj
 0001:0001c090       __rtinfnpop                1001d090     libucrt:87tran.obj
 0001:0001c0a0       __rtforexpinf              1001d0a0 f   libucrt:87tran.obj
 0001:0001c0ad       __ffexpm1                  1001d0ad     libucrt:87tran.obj
 0001:0001c160       __trandisp1                1001d160 f   libucrt:87disp.obj
 0001:0001c1d5       __trandisp2                1001d1d5 f   libucrt:87disp.obj
 0001:0001c26f       __rttospopde               1001d26f     libucrt:87disp.obj
 0001:0001c274       __rttospop                 1001d274     libucrt:87disp.obj
 0001:0001c280       __rtnospop                 1001d280 f   libucrt:87disp.obj
 0001:0001c290       __rttosnpop                1001d290 f   libucrt:87disp.obj
 0001:0001c291       __rtnospopde               1001d291     libucrt:87disp.obj
 0001:0001c298       __rtzeropop                1001d298     libucrt:87disp.obj
 0001:0001c29a       __rtzeronpop               1001d29a     libucrt:87disp.obj
 0001:0001c2a0       __rtzerospop               1001d2a0 f   libucrt:87disp.obj
 0001:0001c2ad       __rtonepop                 1001d2ad     libucrt:87disp.obj
 0001:0001c2b0       __rtonenpop                1001d2b0 f   libucrt:87disp.obj
 0001:0001c2c0       __tosnan1                  1001d2c0 f   libucrt:87disp.obj
 0001:0001c2f0       __nosnan2                  1001d2f0 f   libucrt:87disp.obj
 0001:0001c300       __tosnan2                  1001d300 f   libucrt:87disp.obj
 0001:0001c330       __nan2                     1001d330 f   libucrt:87disp.obj
 0001:0001c370       __rtindfpop                1001d370 f   libucrt:87disp.obj
 0001:0001c372       __rtindfnpop               1001d372     libucrt:87disp.obj
 0001:0001c383       __rttosnpopde              1001d383     libucrt:87disp.obj
 0001:0001c390       __rtatan2inf               1001d390 f   libucrt:87disp.obj
 0001:0001c3ad       __rtchsifneg               1001d3ad     libucrt:87disp.obj
 0001:0001c3c0       __twoToTOS                 1001d3c0 f   libucrt:common.obj
 0001:0001c3d5       __load_CW                  1001d3d5 f   libucrt:common.obj
 0001:0001c3ec       __convertTOStoQNaN         1001d3ec f   libucrt:common.obj
 0001:0001c405       __fload_withFB             1001d405 f   libucrt:common.obj
 0001:0001c448       __checkTOS_withFB          1001d448 f   libucrt:common.obj
 0001:0001c45e       __fast_exit                1001d45e f   libucrt:common.obj
 0001:0001c46b       __math_exit                1001d46b f   libucrt:common.obj
 0001:0001c495       __check_overflow_exit      1001d495 f   libucrt:common.obj
 0001:0001c4a9       __check_range_exit         1001d4a9 f   libucrt:common.obj
 0001:0001c550       __startTwoArgErrorHandling 1001d550 f   libucrt:genexcep.obj
 0001:0001c567       __startOneArgErrorHandling 1001d567 f   libucrt:genexcep.obj
 0001:0001c5a3       ___libm_error_support      1001d5a3 f   libucrt:libm_error.obj
 0001:0001c797       __ceil_default             1001d797 f   libucrt:ceil.obj
 0001:0001c8d8       __close                    1001d8d8 f   libucrt:close.obj
 0001:0001c965       __close_nolock             1001d965 f   libucrt:close.obj
 0001:0001ca01       ?__acrt_stdio_free_stream@@YAXV__crt_stdio_stream@@@Z 1001da01 f   libucrt:stream.obj
 0001:0001ca40       ___ascii_strnicmp          1001da40 f   libucrt:_strnicm.obj
 0001:0001cac0       ___dcrt_lowio_ensure_console_output_initialized 1001dac0 f   libucrt:initcon.obj
 0001:0001cadf       ___dcrt_terminate_console_output 1001dadf f   libucrt:initcon.obj
 0001:0001caf6       ___dcrt_write_console      1001daf6 f   libucrt:initcon.obj
 0001:0001cb4b       ___set_fpsr_sse2           1001db4b f   libucrt:fpctrl.obj
 0001:0001cbcb       __clrfp                    1001dbcb f   libucrt:fpctrl.obj
 0001:0001cbdc       __ctrlfp                   1001dbdc f   libucrt:fpctrl.obj
 0001:0001cc06       __set_statfp               1001dc06 f   libucrt:fpctrl.obj
 0001:0001cc5f       __statfp                   1001dc5f f   libucrt:fpctrl.obj
 0001:0001cc6f       __d_inttype                1001dc6f f   libucrt:powhlp.obj
 0001:0001ccd7       __powhlp                   1001dcd7 f   libucrt:powhlp.obj
 0001:0001ce02       __87except                 1001de02 f   libucrt:87except.obj
 0001:0001cf0c       __frnd                     1001df0c f   libucrt:frnd.obj
 0001:0001cf20       __errcode                  1001df20 f   libucrt:fpexcept.obj
 0001:0001cf54       __except1                  1001df54 f   libucrt:fpexcept.obj
 0001:0001d022       __handle_exc               1001e022 f   libucrt:fpexcept.obj
 0001:0001d20d       __raise_exc                1001e20d f   libucrt:fpexcept.obj
 0001:0001d230       __raise_exc_ex             1001e230 f   libucrt:fpexcept.obj
 0001:0001d526       __set_errno_from_matherr   1001e526 f   libucrt:fpexcept.obj
 0001:0001d555       __umatherr                 1001e555 f   libucrt:fpexcept.obj
 0001:0001d5f5       __decomp                   1001e5f5 f   libucrt:util.obj
 0001:0001d6c7       __set_exp                  1001e6c7 f   libucrt:util.obj
 0001:0001d6f4       __sptype                   1001e6f4 f   libucrt:util.obj
 0001:0001d752       __fpclass                  1001e752 f   libucrt:ieeemisc.obj
 0001:0001d7f6       _IsProcessorFeaturePresent@4 1001e7f6 f   kernel32:KERNEL32.dll
 0001:0001d800       __FindPESection            1001e800 f   LIBCMT:pesect.obj
 0001:0001d850       __IsNonwritableInCurrentImage 1001e850 f   LIBCMT:pesect.obj
 0001:0001d910       __ValidateImageBase        1001e910 f   LIBCMT:pesect.obj
 0001:0001d943       __EH_prolog3_catch         1001e943 f   LIBCMT:ehprolg3.obj
 0001:0001d980       __aulldvrm                 1001e980 f   LIBCMT:ulldvrm.obj
 0001:0001da20       __allmul                   1001ea20 f   LIBCMT:llmul.obj
 0001:0001da60       __alldvrm                  1001ea60 f   LIBCMT:lldvrm.obj
 0001:0001db40       __allshl                   1001eb40 f   LIBCMT:llshl.obj
 0001:0001db60       __aullshr                  1001eb60 f   LIBCMT:ullshr.obj
 0001:0001db80       __ftol2_sse_excpt          1001eb80     LIBCMT:ftol2.obj
 0001:0001db80       __ftoi2                    1001eb80 f   LIBCMT:ftol2.obj
 0001:0001db80       __ftol2_sse                1001eb80     LIBCMT:ftol2.obj
 0001:0001dc00       __ftoui2                   1001ec00 f   LIBCMT:ftol2.obj
 0001:0001dcb0       __ftol2                    1001ecb0 f   LIBCMT:ftol2.obj
 0001:0001dd60       __ftoul2                   1001ed60 f   LIBCMT:ftol2.obj
 0001:0001de20       _strrchr                   1001ee20 f   libvcruntime:strrchr.obj
 0001:0001df60       _strchr                    1001ef60 f   libvcruntime:strchr.obj
 0001:0001dfce       ___from_strstr_to_strchr   1001efce     libvcruntime:strchr.obj
 0001:0001e08b       __filter_x86_sse2_floating_point_exception 1001f08b f   LIBCMT:x86_exception_filter.obj
 0001:0001e08b       __filter_x86_sse2_floating_point_exception_default 1001f08b f   LIBCMT:x86_exception_filter.obj
 0002:00000000       __imp__RegQueryValueExW@24 10020000     advapi32:ADVAPI32.dll
 0002:00000004       __imp__RegSetValueExW@24   10020004     advapi32:ADVAPI32.dll
 0002:00000008       __imp__RegQueryInfoKeyW@48 10020008     advapi32:ADVAPI32.dll
 0002:0000000c       __imp__RegOpenKeyExW@20    1002000c     advapi32:ADVAPI32.dll
 0002:00000010       __imp__RegEnumKeyExW@32    10020010     advapi32:ADVAPI32.dll
 0002:00000014       __imp__RegDeleteValueW@8   10020014     advapi32:ADVAPI32.dll
 0002:00000018       __imp__RegDeleteKeyW@8     10020018     advapi32:ADVAPI32.dll
 0002:0000001c       __imp__RegCreateKeyExW@36  1002001c     advapi32:ADVAPI32.dll
 0002:00000020       __imp__RegCloseKey@4       10020020     advapi32:ADVAPI32.dll
 0002:00000024       \177ADVAPI32_NULL_THUNK_DATA 10020024     advapi32:ADVAPI32.dll
 0002:00000028       __imp__GetObjectW@12       10020028     gdi32:GDI32.dll
 0002:0000002c       __imp__SelectObject@8      1002002c     gdi32:GDI32.dll
 0002:00000030       __imp__DeleteObject@4      10020030     gdi32:GDI32.dll
 0002:00000034       __imp__CreateCompatibleDC@4 10020034     gdi32:GDI32.dll
 0002:00000038       __imp__BitBlt@36           10020038     gdi32:GDI32.dll
 0002:0000003c       __imp__SetWindowOrgEx@16   1002003c     gdi32:GDI32.dll
 0002:00000040       __imp__SetWindowExtEx@16   10020040     gdi32:GDI32.dll
 0002:00000044       __imp__SetViewportOrgEx@16 10020044     gdi32:GDI32.dll
 0002:00000048       __imp__LPtoDP@12           10020048     gdi32:GDI32.dll
 0002:0000004c       __imp__SetMapMode@8        1002004c     gdi32:GDI32.dll
 0002:00000050       __imp__SaveDC@4            10020050     gdi32:GDI32.dll
 0002:00000054       __imp__RestoreDC@8         10020054     gdi32:GDI32.dll
 0002:00000058       __imp__GetDeviceCaps@8     10020058     gdi32:GDI32.dll
 0002:0000005c       __imp__DeleteMetaFile@4    1002005c     gdi32:GDI32.dll
 0002:00000060       __imp__DeleteDC@4          10020060     gdi32:GDI32.dll
 0002:00000064       __imp__CreateRectRgnIndirect@4 10020064     gdi32:GDI32.dll
 0002:00000068       __imp__CreateMetaFileW@4   10020068     gdi32:GDI32.dll
 0002:0000006c       __imp__CreateDCW@16        1002006c     gdi32:GDI32.dll
 0002:00000070       __imp__CloseMetaFile@4     10020070     gdi32:GDI32.dll
 0002:00000074       \177GDI32_NULL_THUNK_DATA  10020074     gdi32:GDI32.dll
 0002:00000078       __imp__CloseHandle@4       10020078     kernel32:KERNEL32.dll
 0002:0000007c       __imp__SetEvent@4          1002007c     kernel32:KERNEL32.dll
 0002:00000080       __imp__CreateMutexW@12     10020080     kernel32:KERNEL32.dll
 0002:00000084       __imp__CreateEventW@16     10020084     kernel32:KERNEL32.dll
 0002:00000088       __imp__GetCurrentProcessId@0 10020088     kernel32:KERNEL32.dll
 0002:0000008c       __imp__CreateFileW@28      1002008c     kernel32:KERNEL32.dll
 0002:00000090       __imp__GetConsoleMode@8    10020090     kernel32:KERNEL32.dll
 0002:00000094       __imp__GetConsoleOutputCP@0 10020094     kernel32:KERNEL32.dll
 0002:00000098       __imp__WriteFile@20        10020098     kernel32:KERNEL32.dll
 0002:0000009c       __imp__FlushFileBuffers@4  1002009c     kernel32:KERNEL32.dll
 0002:000000a0       __imp__SetStdHandle@8      100200a0     kernel32:KERNEL32.dll
 0002:000000a4       __imp__GetStringTypeW@16   100200a4     kernel32:KERNEL32.dll
 0002:000000a8       __imp__SetFilePointerEx@20 100200a8     kernel32:KERNEL32.dll
 0002:000000ac       __imp__FreeEnvironmentStringsW@4 100200ac     kernel32:KERNEL32.dll
 0002:000000b0       __imp__GetEnvironmentStringsW@0 100200b0     kernel32:KERNEL32.dll
 0002:000000b4       __imp__lstrcmpiW@8         100200b4     kernel32:KERNEL32.dll
 0002:000000b8       __imp__GetCommandLineA@0   100200b8     kernel32:KERNEL32.dll
 0002:000000bc       __imp__GetCPInfo@8         100200bc     kernel32:KERNEL32.dll
 0002:000000c0       __imp__GetOEMCP@0          100200c0     kernel32:KERNEL32.dll
 0002:000000c4       __imp__GetACP@0            100200c4     kernel32:KERNEL32.dll
 0002:000000c8       __imp__IsValidCodePage@4   100200c8     kernel32:KERNEL32.dll
 0002:000000cc       __imp__FindNextFileW@8     100200cc     kernel32:KERNEL32.dll
 0002:000000d0       __imp__FindFirstFileExW@24 100200d0     kernel32:KERNEL32.dll
 0002:000000d4       __imp__FindClose@4         100200d4     kernel32:KERNEL32.dll
 0002:000000d8       __imp__GetFileType@4       100200d8     kernel32:KERNEL32.dll
 0002:000000dc       __imp__GetStdHandle@4      100200dc     kernel32:KERNEL32.dll
 0002:000000e0       __imp__LCMapStringW@24     100200e0     kernel32:KERNEL32.dll
 0002:000000e4       __imp__HeapReAlloc@16      100200e4     kernel32:KERNEL32.dll
 0002:000000e8       __imp__HeapSize@12         100200e8     kernel32:KERNEL32.dll
 0002:000000ec       __imp__MulDiv@12           100200ec     kernel32:KERNEL32.dll
 0002:000000f0       __imp__GlobalLock@4        100200f0     kernel32:KERNEL32.dll
 0002:000000f4       __imp__GlobalUnlock@4      100200f4     kernel32:KERNEL32.dll
 0002:000000f8       __imp__GlobalAlloc@8       100200f8     kernel32:KERNEL32.dll
 0002:000000fc       __imp__FindResourceW@12    100200fc     kernel32:KERNEL32.dll
 0002:00000100       __imp__SizeofResource@8    10020100     kernel32:KERNEL32.dll
 0002:00000104       __imp__LoadResource@8      10020104     kernel32:KERNEL32.dll
 0002:00000108       __imp__LoadLibraryExW@12   10020108     kernel32:KERNEL32.dll
 0002:0000010c       __imp__GetProcAddress@8    1002010c     kernel32:KERNEL32.dll
 0002:00000110       __imp__GetModuleHandleW@4  10020110     kernel32:KERNEL32.dll
 0002:00000114       __imp__GetModuleFileNameW@12 10020114     kernel32:KERNEL32.dll
 0002:00000118       __imp__FreeLibrary@4       10020118     kernel32:KERNEL32.dll
 0002:0000011c       __imp__DisableThreadLibraryCalls@4 1002011c     kernel32:KERNEL32.dll
 0002:00000120       __imp__GetCurrentThreadId@0 10020120     kernel32:KERNEL32.dll
 0002:00000124       __imp__Sleep@4             10020124     kernel32:KERNEL32.dll
 0002:00000128       __imp__WaitForSingleObject@8 10020128     kernel32:KERNEL32.dll
 0002:0000012c       __imp__ReleaseMutex@4      1002012c     kernel32:KERNEL32.dll
 0002:00000130       __imp__ResetEvent@4        10020130     kernel32:KERNEL32.dll
 0002:00000134       __imp__EnterCriticalSection@4 10020134     kernel32:KERNEL32.dll
 0002:00000138       __imp__LeaveCriticalSection@4 10020138     kernel32:KERNEL32.dll
 0002:0000013c       __imp__SetLastError@4      1002013c     kernel32:KERNEL32.dll
 0002:00000140       __imp__EncodePointer@4     10020140     kernel32:KERNEL32.dll
 0002:00000144       __imp__DeleteCriticalSection@4 10020144     kernel32:KERNEL32.dll
 0002:00000148       __imp__InitializeCriticalSectionEx@12 10020148     kernel32:KERNEL32.dll
 0002:0000014c       __imp__GetLastError@0      1002014c     kernel32:KERNEL32.dll
 0002:00000150       __imp__RaiseException@16   10020150     kernel32:KERNEL32.dll
 0002:00000154       __imp__DecodePointer@4     10020154     kernel32:KERNEL32.dll
 0002:00000158       __imp__WideCharToMultiByte@32 10020158     kernel32:KERNEL32.dll
 0002:0000015c       __imp__GetCommandLineW@0   1002015c     kernel32:KERNEL32.dll
 0002:00000160       __imp__MultiByteToWideChar@24 10020160     kernel32:KERNEL32.dll
 0002:00000164       __imp__WriteConsoleW@20    10020164     kernel32:KERNEL32.dll
 0002:00000168       __imp__GetModuleHandleExW@12 10020168     kernel32:KERNEL32.dll
 0002:0000016c       __imp__ExitProcess@4       1002016c     kernel32:KERNEL32.dll
 0002:00000170       __imp__VirtualQuery@12     10020170     kernel32:KERNEL32.dll
 0002:00000174       __imp__VirtualProtect@16   10020174     kernel32:KERNEL32.dll
 0002:00000178       __imp__GetSystemInfo@4     10020178     kernel32:KERNEL32.dll
 0002:0000017c       __imp__TlsFree@4           1002017c     kernel32:KERNEL32.dll
 0002:00000180       __imp__TlsSetValue@8       10020180     kernel32:KERNEL32.dll
 0002:00000184       __imp__TlsGetValue@4       10020184     kernel32:KERNEL32.dll
 0002:00000188       __imp__TlsAlloc@0          10020188     kernel32:KERNEL32.dll
 0002:0000018c       __imp__InterlockedFlushSList@4 1002018c     kernel32:KERNEL32.dll
 0002:00000190       __imp__RtlUnwind@16        10020190     kernel32:KERNEL32.dll
 0002:00000194       __imp__LoadLibraryExA@12   10020194     kernel32:KERNEL32.dll
 0002:00000198       __imp__VirtualFree@12      10020198     kernel32:KERNEL32.dll
 0002:0000019c       __imp__VirtualAlloc@16     1002019c     kernel32:KERNEL32.dll
 0002:000001a0       __imp__FlushInstructionCache@12 100201a0     kernel32:KERNEL32.dll
 0002:000001a4       __imp__InterlockedPushEntrySList@8 100201a4     kernel32:KERNEL32.dll
 0002:000001a8       __imp__InterlockedPopEntrySList@4 100201a8     kernel32:KERNEL32.dll
 0002:000001ac       __imp__GetProcessHeap@0    100201ac     kernel32:KERNEL32.dll
 0002:000001b0       __imp__HeapFree@12         100201b0     kernel32:KERNEL32.dll
 0002:000001b4       __imp__HeapAlloc@12        100201b4     kernel32:KERNEL32.dll
 0002:000001b8       __imp__OutputDebugStringW@4 100201b8     kernel32:KERNEL32.dll
 0002:000001bc       __imp__InitializeSListHead@4 100201bc     kernel32:KERNEL32.dll
 0002:000001c0       __imp__GetSystemTimeAsFileTime@4 100201c0     kernel32:KERNEL32.dll
 0002:000001c4       __imp__QueryPerformanceCounter@4 100201c4     kernel32:KERNEL32.dll
 0002:000001c8       __imp__GetStartupInfoW@4   100201c8     kernel32:KERNEL32.dll
 0002:000001cc       __imp__IsDebuggerPresent@0 100201cc     kernel32:KERNEL32.dll
 0002:000001d0       __imp__IsProcessorFeaturePresent@4 100201d0     kernel32:KERNEL32.dll
 0002:000001d4       __imp__TerminateProcess@8  100201d4     kernel32:KERNEL32.dll
 0002:000001d8       __imp__GetCurrentProcess@0 100201d8     kernel32:KERNEL32.dll
 0002:000001dc       __imp__SetUnhandledExceptionFilter@4 100201dc     kernel32:KERNEL32.dll
 0002:000001e0       __imp__UnhandledExceptionFilter@4 100201e0     kernel32:KERNEL32.dll
 0002:000001e4       __imp__InitializeCriticalSectionAndSpinCount@8 100201e4     kernel32:KERNEL32.dll
 0002:000001e8       __imp__WaitForSingleObjectEx@12 100201e8     kernel32:KERNEL32.dll
 0002:000001ec       \177KERNEL32_NULL_THUNK_DATA 100201ec     kernel32:KERNEL32.dll
 0002:000001f0       __imp__OleCreatePropertyFrame@44 100201f0     oleaut32:OLEAUT32.dll
 0002:000001f4       __imp__UnRegisterTypeLib@20 100201f4     oleaut32:OLEAUT32.dll
 0002:000001f8       __imp__RegisterTypeLib@12  100201f8     oleaut32:OLEAUT32.dll
 0002:000001fc       __imp__LoadRegTypeLib@20   100201fc     oleaut32:OLEAUT32.dll
 0002:00000200       __imp__LoadTypeLib@8       10020200     oleaut32:OLEAUT32.dll
 0002:00000204       __imp__VarUI4FromStr@16    10020204     oleaut32:OLEAUT32.dll
 0002:00000208       __imp__VariantInit@4       10020208     oleaut32:OLEAUT32.dll
 0002:0000020c       __imp__SysAllocStringByteLen@8 1002020c     oleaut32:OLEAUT32.dll
 0002:00000210       __imp__SysStringByteLen@4  10020210     oleaut32:OLEAUT32.dll
 0002:00000214       __imp__VariantChangeType@16 10020214     oleaut32:OLEAUT32.dll
 0002:00000218       __imp__VariantClear@4      10020218     oleaut32:OLEAUT32.dll
 0002:0000021c       __imp__SysStringLen@4      1002021c     oleaut32:OLEAUT32.dll
 0002:00000220       __imp__SysFreeString@4     10020220     oleaut32:OLEAUT32.dll
 0002:00000224       __imp__SysAllocStringLen@8 10020224     oleaut32:OLEAUT32.dll
 0002:00000228       __imp__SysAllocString@4    10020228     oleaut32:OLEAUT32.dll
 0002:0000022c       \177OLEAUT32_NULL_THUNK_DATA 1002022c     oleaut32:OLEAUT32.dll
 0002:00000230       __imp__UnregisterClassW@8  10020230     user32:USER32.dll
 0002:00000234       __imp__PostMessageW@16     10020234     user32:USER32.dll
 0002:00000238       __imp__DefWindowProcW@16   10020238     user32:USER32.dll
 0002:0000023c       __imp__CallWindowProcW@20  1002023c     user32:USER32.dll
 0002:00000240       __imp__RegisterClassExW@4  10020240     user32:USER32.dll
 0002:00000244       __imp__GetClassInfoExW@12  10020244     user32:USER32.dll
 0002:00000248       __imp__CreateWindowExW@48  10020248     user32:USER32.dll
 0002:0000024c       __imp__IsWindow@4          1002024c     user32:USER32.dll
 0002:00000250       __imp__IsChild@8           10020250     user32:USER32.dll
 0002:00000254       __imp__DestroyWindow@4     10020254     user32:USER32.dll
 0002:00000258       __imp__ShowWindow@8        10020258     user32:USER32.dll
 0002:0000025c       __imp__SetWindowPos@28     1002025c     user32:USER32.dll
 0002:00000260       __imp__CharNextW@4         10020260     user32:USER32.dll
 0002:00000264       __imp__SetFocus@4          10020264     user32:USER32.dll
 0002:00000268       __imp__LoadBitmapW@8       10020268     user32:USER32.dll
 0002:0000026c       __imp__RegisterClassW@4    1002026c     user32:USER32.dll
 0002:00000270       __imp__PeekMessageW@20     10020270     user32:USER32.dll
 0002:00000274       __imp__LoadCursorW@8       10020274     user32:USER32.dll
 0002:00000278       __imp__GetParent@4         10020278     user32:USER32.dll
 0002:0000027c       __imp__SetWindowLongW@12   1002027c     user32:USER32.dll
 0002:00000280       __imp__GetWindowLongW@8    10020280     user32:USER32.dll
 0002:00000284       __imp__PtInRect@12         10020284     user32:USER32.dll
 0002:00000288       __imp__EqualRect@8         10020288     user32:USER32.dll
 0002:0000028c       __imp__OffsetRect@12       1002028c     user32:USER32.dll
 0002:00000290       __imp__UnionRect@12        10020290     user32:USER32.dll
 0002:00000294       __imp__IntersectRect@12    10020294     user32:USER32.dll
 0002:00000298       __imp__GetClientRect@8     10020298     user32:USER32.dll
 0002:0000029c       __imp__InvalidateRect@12   1002029c     user32:USER32.dll
 0002:000002a0       __imp__SetWindowRgn@12     100202a0     user32:USER32.dll
 0002:000002a4       __imp__EndPaint@8          100202a4     user32:USER32.dll
 0002:000002a8       __imp__BeginPaint@8        100202a8     user32:USER32.dll
 0002:000002ac       __imp__ReleaseDC@8         100202ac     user32:USER32.dll
 0002:000002b0       __imp__GetDC@4             100202b0     user32:USER32.dll
 0002:000002b4       __imp__GetKeyState@4       100202b4     user32:USER32.dll
 0002:000002b8       __imp__GetFocus@0          100202b8     user32:USER32.dll
 0002:000002bc       \177USER32_NULL_THUNK_DATA 100202bc     user32:USER32.dll
 0002:000002c0       __imp__StringFromGUID2@12  100202c0     ole32:ole32.dll
 0002:000002c4       __imp__CoTaskMemAlloc@4    100202c4     ole32:ole32.dll
 0002:000002c8       __imp__CoTaskMemRealloc@8  100202c8     ole32:ole32.dll
 0002:000002cc       __imp__CoTaskMemFree@4     100202cc     ole32:ole32.dll
 0002:000002d0       __imp__ReadClassStm@8      100202d0     ole32:ole32.dll
 0002:000002d4       __imp__WriteClassStm@8     100202d4     ole32:ole32.dll
 0002:000002d8       __imp__CreateDataAdviseHolder@4 100202d8     ole32:ole32.dll
 0002:000002dc       __imp__OleSaveToStream@8   100202dc     ole32:ole32.dll
 0002:000002e0       __imp__CreateOleAdviseHolder@4 100202e0     ole32:ole32.dll
 0002:000002e4       __imp__OleRegGetUserType@12 100202e4     ole32:ole32.dll
 0002:000002e8       __imp__OleRegGetMiscStatus@12 100202e8     ole32:ole32.dll
 0002:000002ec       __imp__OleRegEnumVerbs@8   100202ec     ole32:ole32.dll
 0002:000002f0       __imp__CLSIDFromProgID@8   100202f0     ole32:ole32.dll
 0002:000002f4       __imp__CoCreateInstance@20 100202f4     ole32:ole32.dll
 0002:000002f8       \177ole32_NULL_THUNK_DATA  100202f8     ole32:ole32.dll
 0002:000002fc       ___guard_check_icall_fptr  100202fc     LIBCMT:guard_support.obj
 0002:00000300       ___xc_a                    10020300     LIBCMT:initializers.obj
 0002:00000318       ___xc_z                    10020318     LIBCMT:initializers.obj
 0002:0000031c       ___xi_a                    1002031c     LIBCMT:initializers.obj
 0002:00000324       ___acrt_stdio_initializer  10020324     libucrt:stdio_initializer.obj
 0002:00000328       ___acrt_multibyte_initializer 10020328     libucrt:multibyte_initializer.obj
 0002:0000032c       ___acrt_tran_sse2_initializer 1002032c     libucrt:sse2_initializer.obj
 0002:00000330       ___xi_z                    10020330     LIBCMT:initializers.obj
 0002:00000334       ___xl_a                    10020334     LIBCMT:tlssup.obj
 0002:00000338       ___xl_z                    10020338     LIBCMT:tlssup.obj
 0002:0000033c       ___xp_a                    1002033c     LIBCMT:initializers.obj
 0002:00000340       ___acrt_locale_terminator  10020340     libucrt:locale_initializer.obj
 0002:00000344       ___dcrt_console_output_terminator 10020344     libucrt:console_output_initializer.obj
 0002:00000348       ___acrt_stdio_terminator   10020348     libucrt:stdio_initializer.obj
 0002:0000034c       ___xp_z                    1002034c     LIBCMT:initializers.obj
 0002:00000350       ___xt_a                    10020350     LIBCMT:initializers.obj
 0002:00000354       ___xt_z                    10020354     LIBCMT:initializers.obj
 0002:00000360       ??_C@_13HADIAKP@?$AAS@     10020360     OposVariant.obj
 0002:00000364       ??_C@_13LHMFKAAD@?$AAM@    10020364     OposVariant.obj
 0002:00000368       ??_C@_13MKMNOPIJ@?$AAD@    10020368     OposVariant.obj
 0002:0000036c       ??_C@_13OPKGLAFF@?$AAB@    1002036c     OposVariant.obj
 0002:00000370       ??_C@_17LLMMEOJD@?$AAV?$AAa?$AAl@ 10020370     OposVariant.obj
 0002:00000378       ??_C@_1BI@JFAIJMHL@?$AAF?$AAo?$AAr?$AAc?$AAe?$AAR?$AAe?$AAm?$AAo?$AAv?$AAe@ 10020378     OposVariant.obj
 0002:00000390       ??_C@_1BC@GCKHIPE@?$AAN?$AAo?$AAR?$AAe?$AAm?$AAo?$AAv?$AAe@ 10020390     OposVariant.obj
 0002:000003a4       ??_C@_1O@JDLOHAN@?$AAD?$AAe?$AAl?$AAe?$AAt?$AAe@ 100203a4     OposVariant.obj
 0002:000003b4       ??_C@_11LOCGONAA@@         100203b4     OposVariant.obj
 0002:000003b8       ??_7CComClassFactory@ATL@@6B@ 100203b8     Scanner.obj
 0002:000003d0       ?_entries@?1??_GetEntries@CComClassFactory@ATL@@SGPBU_ATL_INTMAP_ENTRY@3@XZ@4QBU43@B 100203d0     Scanner.obj
 0002:000003e8       __GUID_00000001_0000_0000_c000_000000000046 100203e8     Scanner.obj
 0002:000003f8       _IID_IOPOSScanner_1_5      100203f8     Scanner.obj
 0002:00000408       _IID_IOPOSScanner_1_8      10020408     Scanner.obj
 0002:00000418       _IID_IOPOSScanner_1_9      10020418     Scanner.obj
 0002:00000428       _IID_IOPOSScanner_1_10     10020428     Scanner.obj
 0002:00000438       _IID_IOPOSScanner          10020438     Scanner.obj
 0002:00000448       _LIBID_OposScanner_CCO     10020448     Scanner.obj
 0002:00000458       _DIID__IOPOSScannerEvents  10020458     Scanner.obj
 0002:00000468       _CLSID_OPOSScanner         10020468     Scanner.obj
 0002:00000478       ??_C@_1BK@BIGILECK@?$AAA?$AAd?$AAv?$AAa?$AAp?$AAi?$AA3?$AA2?$AA?4?$AAd?$AAl?$AAl@ 10020478     Scanner.obj
 0002:00000494       __GUID_00000114_0000_0000_c000_000000000046 10020494     Scanner.obj
 0002:000004a4       ??_C@_0BI@MNCFCPFK@RegCreateKeyTransactedW@ 100204a4     Scanner.obj
 0002:000004bc       __GUID_b196b287_bab4_101a_b69c_00aa00341d07 100204bc     Scanner.obj
 0002:000004cc       __GUID_b196b285_bab4_101a_b69c_00aa00341d07 100204cc     Scanner.obj
 0002:000004dc       __GUID_a6bc3ac0_dbaa_11ce_9de3_00aa004bb851 100204dc     Scanner.obj
 0002:000004ec       __GUID_0000010c_0000_0000_c000_000000000046 100204ec     Scanner.obj
 0002:000004fc       __GUID_00000146_0000_0000_c000_000000000046 100204fc     Scanner.obj
 0002:00000510       ?_entries@?1??_GetEntries@COPOSScanner@@SGPBU_ATL_INTMAP_ENTRY@ATL@@XZ@4QBU34@B 10020510     Scanner.obj
 0002:00000654       __GUID_cf51ed10_62fe_11cf_bf86_00a0c9034836 10020654     Scanner.obj
 0002:00000664       __GUID_0000010a_0000_0000_c000_000000000046 10020664     Scanner.obj
 0002:00000674       __GUID_b196b283_bab4_101a_b69c_00aa00341d07 10020674     Scanner.obj
 0002:00000684       __GUID_cb5bdc81_93c1_11cf_8f20_00805f2cd064 10020684     Scanner.obj
 0002:00000698       ?pPropMap@?1??GetPropertyMap@COPOSScanner@@SAPBUATL_PROPMAP_ENTRY@ATL@@XZ@4QBU34@B 10020698     Scanner.obj
 0002:00000704       ??_C@_17DGDADEHL@?$AA_?$AAc?$AAx@ 10020704     Scanner.obj
 0002:0000070c       ??_C@_17IOIMFDBO@?$AA_?$AAc?$AAy@ 1002070c     Scanner.obj
 0002:00000714       ??_7CComModule@ATL@@6B@    10020714     Scanner.obj
 0002:0000073c       __GUID_922eada0_3424_11cf_b670_00aa004cd6d8 1002073c     Scanner.obj
 0002:0000074c       __GUID_9c2cad80_3424_11cf_b670_00aa004cd6d8 1002074c     Scanner.obj
 0002:0000075c       __GUID_00000119_0000_0000_c000_000000000046 1002075c     Scanner.obj
 0002:0000076c       __GUID_b196b289_bab4_101a_b69c_00aa00341d07 1002076c     Scanner.obj
 0002:0000077c       __GUID_00000000_0000_0000_c000_000000000046 1002077c     Scanner.obj
 0002:0000078c       ??_7?$CComObjectCached@VCComClassFactory@ATL@@@ATL@@6B@ 1002078c     Scanner.obj
 0002:000007a4       __GUID_00020400_0000_0000_c000_000000000046 100207a4     Scanner.obj
 0002:000007b4       ??_C@_1CE@PGFMOFKI@?$AAS?$AAt?$AAa?$AAt?$AAu?$AAs?$AAU?$AAp?$AAd?$AAa?$AAt?$AAe?$AAE?$AAv?$AAe@ 100207b4     Scanner.obj
 0002:000007d8       ??_C@_1BG@LODEBHDD@?$AAE?$AAr?$AAr?$AAo?$AAr?$AAE?$AAv?$AAe?$AAn?$AAt@ 100207d8     Scanner.obj
 0002:000007f0       ??_C@_1BM@CBGEBBBJ@?$AAD?$AAi?$AAr?$AAe?$AAc?$AAt?$AAI?$AAO?$AAE?$AAv?$AAe?$AAn?$AAt@ 100207f0     Scanner.obj
 0002:0000080c       ??_C@_1BE@IEBMACEM@?$AAD?$AAa?$AAt?$AAa?$AAE?$AAv?$AAe?$AAn?$AAt@ 1002080c     Scanner.obj
 0002:00000820       __GUID_b196b286_bab4_101a_b69c_00aa00341d07 10020820     Scanner.obj
 0002:00000830       __GUID_00000117_0000_0000_c000_000000000046 10020830     Scanner.obj
 0002:00000840       ??_C@_1BC@ENICKDH@?$AAC?$AAo?$AAn?$AAt?$AAe?$AAn?$AAt?$AAs@ 10020840     Scanner.obj
 0002:00000854       ??_7?$CComObject@V?$CComEnum@UIEnumConnectionPoints@@$1?_GUID_b196b285_bab4_101a_b69c_00aa00341d07@@3U__s_GUID@@BPAUIConnectionPoint@@V?$_CopyInterface@UIConnectionPoint@@@ATL@@VCComSingleThreadModel@6@@ATL@@@ATL@@6B@ 10020854     Scanner.obj
 0002:00000874       ??_C@_1M@KANJNLFF@?$AAC?$AAL?$AAS?$AAI?$AAD@ 10020874     Scanner.obj
 0002:00000880       ??_C@_1M@EJNEECMJ@?$AAA?$AAp?$AAp?$AAI?$AAD@ 10020880     Scanner.obj
 0002:0000088c       __GUID_0000010e_0000_0000_c000_000000000046 1002088c     Scanner.obj
 0002:0000089c       __GUID_b196b288_bab4_101a_b69c_00aa00341d07 1002089c     Scanner.obj
 0002:000008ac       ?rgszNeverDelete@CRegParser@ATL@@1QBQB_WB 100208ac     Scanner.obj
 0002:000008dc       ??_7CRegObject@ATL@@6B@    100208dc     Scanner.obj
 0002:000008f4       __GUID_00000113_0000_0000_c000_000000000046 100208f4     Scanner.obj
 0002:00000904       __GUID_1c2056cc_5ef4_101b_8bc8_00aa003e3b29 10020904     Scanner.obj
 0002:00000914       ??_C@_1CK@OEKPKBNA@?$AAC?$AAo?$AAm?$AAp?$AAo?$AAn?$AAe?$AAn?$AAt?$AA?5?$AAC?$AAa?$AAt?$AAe?$AAg@ 10020914     Scanner.obj
 0002:00000940       ??_C@_1BC@NKMMNMGL@?$AAF?$AAi?$AAl?$AAe?$AAT?$AAy?$AAp?$AAe@ 10020940     Scanner.obj
 0002:00000954       ??_C@_1BE@EKPAFMCP@?$AAI?$AAn?$AAt?$AAe?$AAr?$AAf?$AAa?$AAc?$AAe@ 10020954     Scanner.obj
 0002:00000968       ??_C@_1BC@MAICEHGI@?$AAH?$AAa?$AAr?$AAd?$AAw?$AAa?$AAr?$AAe@ 10020968     Scanner.obj
 0002:0000097c       ??_C@_19HLLLM@?$AAM?$AAi?$AAm?$AAe@ 1002097c     Scanner.obj
 0002:00000988       ??_C@_17OMAOINJK@?$AAS?$AAA?$AAM@ 10020988     Scanner.obj
 0002:00000990       ??_C@_1BC@IBECJAAI@?$AAS?$AAE?$AAC?$AAU?$AAR?$AAI?$AAT?$AAY@ 10020990     Scanner.obj
 0002:000009a4       ??_C@_1O@GBFINDKL@?$AAS?$AAY?$AAS?$AAT?$AAE?$AAM@ 100209a4     Scanner.obj
 0002:000009b4       ??_C@_1BC@EAHCMADO@?$AAS?$AAo?$AAf?$AAt?$AAw?$AAa?$AAr?$AAe@ 100209b4     Scanner.obj
 0002:000009c8       ??_C@_1BA@JIHHIEDE@?$AAT?$AAy?$AAp?$AAe?$AAL?$AAi?$AAb@ 100209c8     Scanner.obj
 0002:000009d8       ?map@?1??HKeyFromString@CRegParser@ATL@@KAPAUHKEY__@@PA_W@Z@4QBUkeymap@?1??123@KAPAU4@0@Z@B 100209d8     Scanner.obj
 0002:00000a48       ??_C@_19NCHLBIN@?$AAH?$AAK?$AAC?$AAR@ 10020a48     Scanner.obj
 0002:00000a54       ??_C@_19JAPAIJDE@?$AAH?$AAK?$AAC?$AAU@ 10020a54     Scanner.obj
 0002:00000a60       ??_C@_19PEALEEJB@?$AAH?$AAK?$AAL?$AAM@ 10020a60     Scanner.obj
 0002:00000a6c       ??_C@_17PJOJPMPB@?$AAH?$AAK?$AAU@ 10020a6c     Scanner.obj
 0002:00000a74       ??_C@_19PNBHMJPL@?$AAH?$AAK?$AAP?$AAD@ 10020a74     Scanner.obj
 0002:00000a80       ??_C@_19GFFAIJHG@?$AAH?$AAK?$AAD?$AAD@ 10020a80     Scanner.obj
 0002:00000a8c       ??_C@_19OFICIBHH@?$AAH?$AAK?$AAC?$AAC@ 10020a8c     Scanner.obj
 0002:00000a98       ??_C@_1CE@PACHPJFI@?$AAH?$AAK?$AAE?$AAY?$AA_?$AAC?$AAL?$AAA?$AAS?$AAS?$AAE?$AAS?$AA_?$AAR?$AAO@ 10020a98     Scanner.obj
 0002:00000abc       ??_C@_1CE@HLHNCBPM@?$AAH?$AAK?$AAE?$AAY?$AA_?$AAC?$AAU?$AAR?$AAR?$AAE?$AAN?$AAT?$AA_?$AAU?$AAS@ 10020abc     Scanner.obj
 0002:00000ae0       ??_C@_1CG@GFBEANJL@?$AAH?$AAK?$AAE?$AAY?$AA_?$AAL?$AAO?$AAC?$AAA?$AAL?$AA_?$AAM?$AAA?$AAC?$AAH@ 10020ae0     Scanner.obj
 0002:00000b08       ??_C@_1BG@BGODANIO@?$AAH?$AAK?$AAE?$AAY?$AA_?$AAU?$AAS?$AAE?$AAR?$AAS@ 10020b08     Scanner.obj
 0002:00000b20       ??_C@_1CM@KHNNAOIC@?$AAH?$AAK?$AAE?$AAY?$AA_?$AAP?$AAE?$AAR?$AAF?$AAO?$AAR?$AAM?$AAA?$AAN?$AAC@ 10020b20     Scanner.obj
 0002:00000b4c       ??_C@_1BM@HAGMMHIA@?$AAH?$AAK?$AAE?$AAY?$AA_?$AAD?$AAY?$AAN?$AA_?$AAD?$AAA?$AAT?$AAA@ 10020b4c     Scanner.obj
 0002:00000b68       ??_C@_1CI@BBJOACGG@?$AAH?$AAK?$AAE?$AAY?$AA_?$AAC?$AAU?$AAR?$AAR?$AAE?$AAN?$AAT?$AA_?$AAC?$AAO@ 10020b68     Scanner.obj
 0002:00000b90       __GUID_00000109_0000_0000_c000_000000000046 10020b90     Scanner.obj
 0002:00000ba0       __GUID_7fd52380_4e07_101b_ae2d_08002b2ec713 10020ba0     Scanner.obj
 0002:00000bb0       __GUID_00000112_0000_0000_c000_000000000046 10020bb0     Scanner.obj
 0002:00000bc0       __GUID_3af24292_0c96_11ce_a0cf_00aa00600ab8 10020bc0     Scanner.obj
 0002:00000bd0       __GUID_00000127_0000_0000_c000_000000000046 10020bd0     Scanner.obj
 0002:00000be0       __GUID_0000010d_0000_0000_c000_000000000046 10020be0     Scanner.obj
 0002:00000bf0       ??_C@_1EA@NHKLICFA@?$AAH?$AAK?$AAC?$AAU?$AA?$AN?$AA?6?$AA?$HL?$AA?7?$AAS?$AAo?$AAf?$AAt?$AAw?$AAa?$AAr@ 10020bf0     Scanner.obj
 0002:00000c30       ??_C@_1BE@LJOLIMEM@?$AA?$AN?$AA?6?$AA?7?$AA?$HN?$AA?$AN?$AA?6?$AA?$HN?$AA?$AN?$AA?6@ 10020c30     Scanner.obj
 0002:00000c44       ??_C@_1M@PPPPCDEP@?$AAA?$AAP?$AAP?$AAI?$AAD@ 10020c44     Scanner.obj
 0002:00000c50       ??_C@_1O@MNLDABAF@?$AAM?$AAo?$AAd?$AAu?$AAl?$AAe@ 10020c50     Scanner.obj
 0002:00000c60       ??_C@_1BG@JBACFMF@?$AAM?$AAo?$AAd?$AAu?$AAl?$AAe?$AA_?$AAR?$AAa?$AAw@ 10020c60     Scanner.obj
 0002:00000c78       ??_C@_1BC@KAILKFFG@?$AAR?$AAE?$AAG?$AAI?$AAS?$AAT?$AAR?$AAY@ 10020c78     Scanner.obj
 0002:00000c8c       ??_7?$CComContainedObject@VCOPOSScanner@@@ATL@@6B?$IDispatchImpl@UIOPOSScanner@@$1?IID_IOPOSScanner@@3U_GUID@@B$1?LIBID_OposScanner_CCO@@3U3@B$00$0A@VCComTypeInfoHolder@ATL@@@1@@ 10020c8c     Scanner.obj
 0002:00000d84       ??_7?$CComContainedObject@VCOPOSScanner@@@ATL@@6BCComControlBase@1@@ 10020d84     Scanner.obj
 0002:00000d98       ??_7?$CComContainedObject@VCOPOSScanner@@@ATL@@6B?$CWindowImpl@VCOPOSScanner@@VCWindow@ATL@@V?$CWinTraits@$0FGAAAAAA@$0A@@3@@1@@ 10020d98     Scanner.obj
 0002:00000da8       ??_7?$CComContainedObject@VCOPOSScanner@@@ATL@@6B?$IPersistStreamInitImpl@VCOPOSScanner@@@1@@ 10020da8     Scanner.obj
 0002:00000dcc       ??_7?$CComContainedObject@VCOPOSScanner@@@ATL@@6B?$IOleControlImpl@VCOPOSScanner@@@1@@ 10020dcc     Scanner.obj
 0002:00000de8       ??_7?$CComContainedObject@VCOPOSScanner@@@ATL@@6B?$IOleObjectImpl@VCOPOSScanner@@@1@@ 10020de8     Scanner.obj
 0002:00000e48       ??_7?$CComContainedObject@VCOPOSScanner@@@ATL@@6B?$IOleInPlaceActiveObjectImpl@VCOPOSScanner@@@1@@ 10020e48     Scanner.obj
 0002:00000e70       ??_7?$CComContainedObject@VCOPOSScanner@@@ATL@@6B?$IViewObjectExImpl@VCOPOSScanner@@@1@@ 10020e70     Scanner.obj
 0002:00000eac       ??_7?$CComContainedObject@VCOPOSScanner@@@ATL@@6B?$IOleInPlaceObjectWindowlessImpl@VCOPOSScanner@@@1@@ 10020eac     Scanner.obj
 0002:00000ed8       ??_7?$CComContainedObject@VCOPOSScanner@@@ATL@@6B?$IConnectionPointContainerImpl@VCOPOSScanner@@@1@@ 10020ed8     Scanner.obj
 0002:00000eec       ??_7?$CComContainedObject@VCOPOSScanner@@@ATL@@6B?$IPersistStorageImpl@VCOPOSScanner@@@1@@ 10020eec     Scanner.obj
 0002:00000f14       ??_7?$CComContainedObject@VCOPOSScanner@@@ATL@@6B?$ISpecifyPropertyPagesImpl@VCOPOSScanner@@@1@@ 10020f14     Scanner.obj
 0002:00000f24       ??_7?$CComContainedObject@VCOPOSScanner@@@ATL@@6B?$IQuickActivateImpl@VCOPOSScanner@@@1@@ 10020f24     Scanner.obj
 0002:00000f3c       ??_7?$CComContainedObject@VCOPOSScanner@@@ATL@@6B?$IDataObjectImpl@VCOPOSScanner@@@1@@ 10020f3c     Scanner.obj
 0002:00000f6c       ??_7?$CComContainedObject@VCOPOSScanner@@@ATL@@6B?$IProvideClassInfo2Impl@$1?CLSID_OPOSScanner@@3U_GUID@@B$1?DIID__IOPOSScannerEvents@@3U2@B$1?LIBID_OposScanner_CCO@@3U2@B$00$0A@VCComTypeInfoHolder@ATL@@@1@@ 10020f6c     Scanner.obj
 0002:00000f80       ??_7?$CComContainedObject@VCOPOSScanner@@@ATL@@6B?$IObjectSafetyImpl@VCOPOSScanner@@$02@1@@ 10020f80     Scanner.obj
 0002:00000f98       ??_7?$CComContainedObject@VCOPOSScanner@@@ATL@@6B?$IPropertyNotifySinkCP@VCOPOSScanner@@VCComDynamicUnkArray@ATL@@@1@@ 10020f98     Scanner.obj
 0002:00000fb8       ??_7?$CComContainedObject@VCOPOSScanner@@@ATL@@6B?$CProxy_IOPOSEvents@VCOPOSScanner@@@@@ 10020fb8     Scanner.obj
 0002:00000fd8       ??_7?$CComAggObject@VCOPOSScanner@@@ATL@@6B@ 10020fd8     Scanner.obj
 0002:00000fe8       ??_7?$CComObject@VCOPOSScanner@@@ATL@@6B?$IDispatchImpl@UIOPOSScanner@@$1?IID_IOPOSScanner@@3U_GUID@@B$1?LIBID_OposScanner_CCO@@3U3@B$00$0A@VCComTypeInfoHolder@ATL@@@1@@ 10020fe8     Scanner.obj
 0002:000010e0       ??_7?$CComObject@VCOPOSScanner@@@ATL@@6BCComControlBase@1@@ 100210e0     Scanner.obj
 0002:000010f4       ??_7?$CComObject@VCOPOSScanner@@@ATL@@6B?$CWindowImpl@VCOPOSScanner@@VCWindow@ATL@@V?$CWinTraits@$0FGAAAAAA@$0A@@3@@1@@ 100210f4     Scanner.obj
 0002:00001104       ??_7?$CComObject@VCOPOSScanner@@@ATL@@6B?$IPersistStreamInitImpl@VCOPOSScanner@@@1@@ 10021104     Scanner.obj
 0002:00001128       ??_7?$CComObject@VCOPOSScanner@@@ATL@@6B?$IOleControlImpl@VCOPOSScanner@@@1@@ 10021128     Scanner.obj
 0002:00001144       ??_7?$CComObject@VCOPOSScanner@@@ATL@@6B?$IOleObjectImpl@VCOPOSScanner@@@1@@ 10021144     Scanner.obj
 0002:000011a4       ??_7?$CComObject@VCOPOSScanner@@@ATL@@6B?$IOleInPlaceActiveObjectImpl@VCOPOSScanner@@@1@@ 100211a4     Scanner.obj
 0002:000011cc       ??_7?$CComObject@VCOPOSScanner@@@ATL@@6B?$IViewObjectExImpl@VCOPOSScanner@@@1@@ 100211cc     Scanner.obj
 0002:00001208       ??_7?$CComObject@VCOPOSScanner@@@ATL@@6B?$IOleInPlaceObjectWindowlessImpl@VCOPOSScanner@@@1@@ 10021208     Scanner.obj
 0002:00001234       ??_7?$CComObject@VCOPOSScanner@@@ATL@@6B?$IConnectionPointContainerImpl@VCOPOSScanner@@@1@@ 10021234     Scanner.obj
 0002:00001248       ??_7?$CComObject@VCOPOSScanner@@@ATL@@6B?$IPersistStorageImpl@VCOPOSScanner@@@1@@ 10021248     Scanner.obj
 0002:00001270       ??_7?$CComObject@VCOPOSScanner@@@ATL@@6B?$ISpecifyPropertyPagesImpl@VCOPOSScanner@@@1@@ 10021270     Scanner.obj
 0002:00001280       ??_7?$CComObject@VCOPOSScanner@@@ATL@@6B?$IQuickActivateImpl@VCOPOSScanner@@@1@@ 10021280     Scanner.obj
 0002:00001298       ??_7?$CComObject@VCOPOSScanner@@@ATL@@6B?$IDataObjectImpl@VCOPOSScanner@@@1@@ 10021298     Scanner.obj
 0002:000012c8       ??_7?$CComObject@VCOPOSScanner@@@ATL@@6B?$IProvideClassInfo2Impl@$1?CLSID_OPOSScanner@@3U_GUID@@B$1?DIID__IOPOSScannerEvents@@3U2@B$1?LIBID_OposScanner_CCO@@3U2@B$00$0A@VCComTypeInfoHolder@ATL@@@1@@ 100212c8     Scanner.obj
 0002:000012dc       ??_7?$CComObject@VCOPOSScanner@@@ATL@@6B?$IObjectSafetyImpl@VCOPOSScanner@@$02@1@@ 100212dc     Scanner.obj
 0002:000012f4       ??_7?$CComObject@VCOPOSScanner@@@ATL@@6B?$IPropertyNotifySinkCP@VCOPOSScanner@@VCComDynamicUnkArray@ATL@@@1@@ 100212f4     Scanner.obj
 0002:00001314       ??_7?$CComObject@VCOPOSScanner@@@ATL@@6B?$CProxy_IOPOSEvents@VCOPOSScanner@@@@@ 10021314     Scanner.obj
 0002:00001334       ??_C@_1O@GBFKGNEO@?$AAA?$AAT?$AAL?$AA?3?$AA?$CF?$AAp@ 10021334     Scanner.obj
 0002:00001344       ??_C@_1BA@PICGEGJB@?$AAD?$AAI?$AAS?$AAP?$AAL?$AAA?$AAY@ 10021344     Scanner.obj
 0002:00001354       __GUID_9bfbbc02_eff1_101a_84ed_00aa00341d07 10021354     Scanner.obj
 0002:00001364       __GUID_b196b284_bab4_101a_b69c_00aa00341d07 10021364     Scanner.obj
 0002:00001374       ?_entries@?1??_GetEntries@?$CComEnum@UIEnumConnectionPoints@@$1?_GUID_b196b285_bab4_101a_b69c_00aa00341d07@@3U__s_GUID@@BPAUIConnectionPoint@@V?$_CopyInterface@UIConnectionPoint@@@ATL@@VCComSingleThreadModel@6@@ATL@@SGPBU_ATL_INTMAP_ENTRY@3@XZ@4QBU43@B 10021374     Scanner.obj
 0002:0000138c       __GUID_00020412_0000_0000_c000_000000000046 1002138c     Scanner.obj
 0002:0000139c       __GUID_00020401_0000_0000_c000_000000000046 1002139c     Scanner.obj
 0002:000013ac       ??_7?$CComObject@V?$CComEnum@UIEnumConnections@@$1?_GUID_b196b287_bab4_101a_b69c_00aa00341d07@@3U__s_GUID@@BUtagCONNECTDATA@@V?$_Copy@UtagCONNECTDATA@@@ATL@@VCComSingleThreadModel@6@@ATL@@@ATL@@6B@ 100213ac     Scanner.obj
 0002:000013cc       __GUID_55980ba0_35aa_11cf_b671_00aa004cd6d8 100213cc     Scanner.obj
 0002:000013dc       __GUID_b196b28b_bab4_101a_b69c_00aa00341d07 100213dc     Scanner.obj
 0002:000013ec       ?_entries@?1??_GetEntries@?$CComEnum@UIEnumConnections@@$1?_GUID_b196b287_bab4_101a_b69c_00aa00341d07@@3U__s_GUID@@BUtagCONNECTDATA@@V?$_Copy@UtagCONNECTDATA@@@ATL@@VCComSingleThreadModel@6@@ATL@@SGPBU_ATL_INTMAP_ENTRY@3@XZ@4QBU43@B 100213ec     Scanner.obj
 0002:00001404       ??_C@_0BG@EKFFMJIO@RegOpenKeyTransactedW@ 10021404     Scanner.obj
 0002:0000141c       ??_C@_0BI@HAKLOOGP@RegDeleteKeyTransactedW@ 1002141c     Scanner.obj
 0002:00001434       ??_C@_0BA@LILAPHGE@RegDeleteKeyExW@ 10021434     Scanner.obj
 0002:00001444       ??_C@_19ILOCMLCJ@?$AA?4?$AAt?$AAl?$AAb@ 10021444     Scanner.obj
 0002:00001450       __GUID_0002e012_0000_0000_c000_000000000046 10021450     Scanner.obj
 0002:00001460       ??_C@_1O@FHBGLCIO@?$AAC?$AAL?$AAS?$AAI?$AAD?$AA?2@ 10021460     Scanner.obj
 0002:00001470       ??_C@_1CK@IFBKBFAA@?$AA?2?$AAR?$AAe?$AAq?$AAu?$AAi?$AAr?$AAe?$AAd?$AA?5?$AAC?$AAa?$AAt?$AAe?$AAg@ 10021470     Scanner.obj
 0002:0000149c       ??_C@_1DA@BIHALFED@?$AA?2?$AAI?$AAm?$AAp?$AAl?$AAe?$AAm?$AAe?$AAn?$AAt?$AAe?$AAd?$AA?5?$AAC?$AAa@ 1002149c     Scanner.obj
 0002:000014cc       ??_C@_1BK@EDKOLFBJ@?$AAO?$AAL?$AAE?$AAA?$AAU?$AAT?$AA3?$AA2?$AA?4?$AAD?$AAL?$AAL@ 100214cc     Scanner.obj
 0002:000014e8       ??_C@_0BJ@CNLFOMHB@UnRegisterTypeLibForUser@ 100214e8     Scanner.obj
 0002:00001504       ??_C@_0BH@LBOMMKPJ@RegisterTypeLibForUser@ 10021504     Scanner.obj
 0002:0000151c       ??_C@_0P@MMNMMLGK@COFreezeEvents@ 1002151c     ScannerImpl.obj
 0002:0000152c       ??_C@_0BC@OGCGGIMP@GetPropertyNumber@ 1002152c     ScannerImpl.obj
 0002:00001540       ??_C@_0BC@MDCNODNB@SetPropertyNumber@ 10021540     ScannerImpl.obj
 0002:00001554       ??_C@_0BC@CFCCMIMD@GetPropertyString@ 10021554     ScannerImpl.obj
 0002:00001568       ??_C@_0BC@CJEDNN@SetPropertyString@ 10021568     ScannerImpl.obj
 0002:0000157c       ??_C@_0M@LNPKKKDA@OpenService@ 1002157c     ScannerImpl.obj
 0002:00001588       ??_C@_0M@PCMCHHMH@CheckHealth@ 10021588     ScannerImpl.obj
 0002:00001594       ??_C@_0M@JGMIDNEK@ClaimDevice@ 10021594     ScannerImpl.obj
 0002:000015a0       ??_C@_0L@BNEIFEJC@ClearInput@ 100215a0     ScannerImpl.obj
 0002:000015ac       ??_C@_0N@DDFIIBMP@CloseService@ 100215ac     ScannerImpl.obj
 0002:000015bc       ??_C@_08EEIHICPC@DirectIO@ 100215bc     ScannerImpl.obj
 0002:000015c8       ??_C@_0O@BCPMENMJ@ReleaseDevice@ 100215c8     ScannerImpl.obj
 0002:000015d8       ??_C@_0BA@GFABKEEE@ResetStatistics@ 100215d8     ScannerImpl.obj
 0002:000015e8       ??_C@_0BD@DPALHJGC@RetrieveStatistics@ 100215e8     ScannerImpl.obj
 0002:000015fc       ??_C@_0BB@KOHIKNFC@UpdateStatistics@ 100215fc     ScannerImpl.obj
 0002:00001610       ??_C@_0BH@PBKBNMGB@CompareFirmwareVersion@ 10021610     ScannerImpl.obj
 0002:00001628       ??_C@_0P@FBPDPIPA@UpdateFirmware@ 10021628     ScannerImpl.obj
 0002:00001638       ??_C@_0BF@CMAPCJGM@ClearInputProperties@ 10021638     ScannerImpl.obj
 0002:00001650       ??_7?$CProxy_IOPOSEvents@VCOPOSScanner@@@@6B@ 10021650     ScannerImpl.obj
 0002:00001670       ??_C@_1BA@IFHENID@?$AA?$FL?$AAE?$AAr?$AAr?$AAo?$AAr?$AA?$FN@ 10021670     ScannerImpl.obj
 0002:00001680       ??_C@_0CK@NBHIBMJG@SOFTWARE?2OLEforRetail?2ServiceOP@ 10021680     ScannerImpl.obj
 0002:000016ac       ??_C@_1M@IAIJHCCH@?$AAC?$AAl?$AAo?$AAs?$AAe@ 100216ac     ScannerImpl.obj
 0002:000016b8       ??_C@_1M@PCPKGJAH@?$AAC?$AAl?$AAa?$AAi?$AAm@ 100216b8     ScannerImpl.obj
 0002:000016c4       ??_C@_1BA@NDFKIOCP@?$AAR?$AAe?$AAl?$AAe?$AAa?$AAs?$AAe@ 100216c4     ScannerImpl.obj
 0002:000016d4       ??_C@_07JGGMAFJH@Scanner@  100216d4     ScannerImpl.obj
 0002:000016dc       ??_C@_1BM@IJMNMBPK@?$AAG?$AAe?$AAt?$AAO?$AAp?$AAe?$AAn?$AAR?$AAe?$AAs?$AAu?$AAl?$AAt@ 100216dc     ScannerImpl.obj
 0002:000016f8       _IID_IPropertyNotifySink   100216f8     uuid:ocidl_i.obj
 0002:00001708       _GUID_NULL                 10021708     uuid:cguid_i.obj
 0002:00001718       _CLSID_StdGlobalInterfaceTable 10021718     uuid:cguid_i.obj
 0002:00001728       _IID_IDispatch             10021728     uuid:oaidl_i.obj
 0002:00001738       _CLSID_StdComponentCategoriesMgr 10021738     uuid:ieguids.obj
 0002:00001748       _IID_IUnknown              10021748     uuid:unknwn_i.obj
 0002:00001758       ??_C@_1EC@JIJBPKFM@?$AAa?$AAp?$AAi?$AA?9?$AAm?$AAs?$AA?9?$AAw?$AAi?$AAn?$AA?9?$AAc?$AAo?$AAr?$AAe@ 10021758     LIBCMT:thread_safe_statics.obj
 0002:0000179c       ??_C@_1BK@MGMFAEKH@?$AAk?$AAe?$AAr?$AAn?$AAe?$AAl?$AA3?$AA2?$AA?4?$AAd?$AAl?$AAl@ 1002179c     LIBCMT:thread_safe_statics.obj
 0002:000017b8       ??_C@_0BJ@JEBJOJFJ@SleepConditionVariableCS@ 100217b8     LIBCMT:thread_safe_statics.obj
 0002:000017d4       ??_C@_0BJ@PGPPEPCC@WakeAllConditionVariable@ 100217d4     LIBCMT:thread_safe_statics.obj
 0002:000017ed       ?nothrow@std@@3Unothrow_t@1@B 100217ed     LIBCMT:std_nothrow.obj
 0002:000017f8       __pDefaultRawDllMain       100217f8     LIBCMT:dll_dllmain.obj
 0002:000017f8       __pRawDllMain              100217f8     LIBCMT:dll_dllmain.obj
 0002:00001800       ??_7exception@std@@6B@     10021800     LIBCMT:throw_bad_alloc.obj
 0002:00001808       ??_C@_0BC@EOODALEL@Unknown?5exception@ 10021808     LIBCMT:throw_bad_alloc.obj
 0002:00001820       ??_7bad_alloc@std@@6B@     10021820     LIBCMT:throw_bad_alloc.obj
 0002:00001828       ??_C@_0P@GHFPNOJB@bad?5allocation@ 10021828     LIBCMT:throw_bad_alloc.obj
 0002:0000183c       ??_7bad_array_new_length@std@@6B@ 1002183c     LIBCMT:throw_bad_alloc.obj
 0002:00001844       ??_C@_0BF@KINCDENJ@bad?5array?5new?5length@ 10021844     LIBCMT:throw_bad_alloc.obj
 0002:00001860       ??_7type_info@@6B@         10021860     LIBCMT:std_type_info_static.obj
 0002:00001864       _GUID_ATLVer110            10021864     atls:atlbase.obj
 0002:00001878       ??_C@_1IC@ONKHOIDK@?$AAE?$AAR?$AAR?$AAO?$AAR?$AA?5?$AA?3?$AA?5?$AAU?$AAn?$AAa?$AAb?$AAl?$AAe?$AA?5@ 10021878     atls:atlbase.obj
 0002:000018fc       ??_C@_0N@FJEPLCIH@atlthunk?4dll@ 100218fc     atls:atlthunk.obj
 0002:0000190c       ??_C@_0BG@GAKFHCBM@AtlThunk_AllocateData@ 1002190c     atls:atlthunk.obj
 0002:00001924       ??_C@_0BC@JKONFIAH@AtlThunk_InitData@ 10021924     atls:atlthunk.obj
 0002:00001938       ??_C@_0BE@IAOEELAK@AtlThunk_DataToCode@ 10021938     atls:atlthunk.obj
 0002:0000194c       ??_C@_0BC@GBGKAIPI@AtlThunk_FreeData@ 1002194c     atls:atlthunk.obj
 0002:00001960       __pDestructExceptionObject 10021960     libvcruntime:ehhelpers.obj
 0002:00001968       ??_7bad_exception@std@@6B@ 10021968     libvcruntime:frame.obj
 0002:00001970       ??_C@_0O@DPKOEFFH@bad?5exception@ 10021970     libvcruntime:frame.obj
 0002:00001d00       ??_C@_08EHJDFFNH@__based?$CI@ 10021d00     libvcruntime:undname.obj
 0002:00001d0c       ??_C@_07KOLFKCDI@__cdecl@  10021d0c     libvcruntime:undname.obj
 0002:00001d14       ??_C@_08GHMPAG@__pascal@   10021d14     libvcruntime:undname.obj
 0002:00001d20       ??_C@_09IFJBGAPI@__stdcall@ 10021d20     libvcruntime:undname.obj
 0002:00001d2c       ??_C@_0L@NPHFGOKO@__thiscall@ 10021d2c     libvcruntime:undname.obj
 0002:00001d38       ??_C@_0L@JMKHOMEK@__fastcall@ 10021d38     libvcruntime:undname.obj
 0002:00001d44       ??_C@_0N@BCKKPABJ@__vectorcall@ 10021d44     libvcruntime:undname.obj
 0002:00001d54       ??_C@_09HIJEGCPM@__clrcall@ 10021d54     libvcruntime:undname.obj
 0002:00001d60       ??_C@_06GHPCKEAG@__eabi@   10021d60     libvcruntime:undname.obj
 0002:00001d68       ??_C@_09IOPIDJLG@__swift_1@ 10021d68     libvcruntime:undname.obj
 0002:00001d74       ??_C@_09KFNFGKHF@__swift_2@ 10021d74     libvcruntime:undname.obj
 0002:00001d80       ??_C@_07JOMMBBKO@__ptr64@  10021d80     libvcruntime:undname.obj
 0002:00001d88       ??_C@_0L@PILCLIHE@__restrict@ 10021d88     libvcruntime:undname.obj
 0002:00001d94       ??_C@_0M@GFIIJFMG@__unaligned@ 10021d94     libvcruntime:undname.obj
 0002:00001da0       ??_C@_09DHDLOLLB@restrict?$CI@ 10021da0     libvcruntime:undname.obj
 0002:00001daa       ??_C@_00CNPNBAHC@@         10021daa     libvcruntime:undname.obj
 0002:00001dac       ??_C@_04NIHEBCM@?5new@     10021dac     libvcruntime:undname.obj
 0002:00001db4       ??_C@_07FPCDHGMM@?5delete@ 10021db4     libvcruntime:undname.obj
 0002:00001dbc       ??_C@_01NEMOKFLO@?$DN@     10021dbc     libvcruntime:undname.obj
 0002:00001dc0       ??_C@_02GPIOPFAK@?$DO?$DO@ 10021dc0     libvcruntime:undname.obj
 0002:00001dc4       ??_C@_02FODMEDOG@?$DM?$DM@ 10021dc4     libvcruntime:undname.obj
 0002:00001dc8       ??_C@_01DCLJPIOD@?$CB@     10021dc8     libvcruntime:undname.obj
 0002:00001dcc       ??_C@_02EGOFBIJA@?$DN?$DN@ 10021dcc     libvcruntime:undname.obj
 0002:00001dd0       ??_C@_02FDNJECIE@?$CB?$DN@ 10021dd0     libvcruntime:undname.obj
 0002:00001dd4       ??_C@_02GPECMEKF@?$FL?$FN@ 10021dd4     libvcruntime:undname.obj
 0002:00001dd8       ??_C@_08LHJFAFGD@operator@ 10021dd8     libvcruntime:undname.obj
 0002:00001de4       ??_C@_02HBOOOICD@?9?$DO@   10021de4     libvcruntime:undname.obj
 0002:00001de8       ??_C@_01NBENCBCI@?$CK@     10021de8     libvcruntime:undname.obj
 0002:00001dec       ??_C@_02ECNGHCIF@?$CL?$CL@ 10021dec     libvcruntime:undname.obj
 0002:00001df0       ??_C@_02BAABKJLB@?9?9@     10021df0     libvcruntime:undname.obj
 0002:00001df4       ??_C@_01JOAMLHOP@?9@       10021df4     libvcruntime:undname.obj
 0002:00001df8       ??_C@_01MIFGBAGJ@?$CL@     10021df8     libvcruntime:undname.obj
 0002:00001dfc       ??_C@_01HNPIGOCE@?$CG@     10021dfc     libvcruntime:undname.obj
 0002:00001e00       ??_C@_03MNHNFDLC@?9?$DO?$CK@ 10021e00     libvcruntime:undname.obj
 0002:00001e04       ??_C@_01KMDKNFGN@?1@       10021e04     libvcruntime:undname.obj
 0002:00001e08       ??_C@_01FGNFDNOH@?$CF@     10021e08     libvcruntime:undname.obj
 0002:00001e0c       ??_C@_01MNNFJEPP@?$DM@     10021e0c     libvcruntime:undname.obj
 0002:00001e10       ??_C@_02EHCHHCKH@?$DM?$DN@ 10021e10     libvcruntime:undname.obj
 0002:00001e14       ??_C@_01PPODPGHN@?$DO@     10021e14     libvcruntime:undname.obj
 0002:00001e18       ??_C@_02EEKDKGMJ@?$DO?$DN@ 10021e18     libvcruntime:undname.obj
 0002:00001e1c       ??_C@_01IHBHIGKO@?0@       10021e1c     libvcruntime:undname.obj
 0002:00001e20       ??_C@_02HCKGKOFO@?$CI?$CJ@ 10021e20     libvcruntime:undname.obj
 0002:00001e24       ??_C@_01PJKLJHI@?$HO@      10021e24     libvcruntime:undname.obj
 0002:00001e28       ??_C@_01JKBOJNNK@?$FO@     10021e28     libvcruntime:undname.obj
 0002:00001e2c       ??_C@_01DNKMNLPK@?$HM@     10021e2c     libvcruntime:undname.obj
 0002:00001e30       ??_C@_02PPKAJPJL@?$CG?$CG@ 10021e30     libvcruntime:undname.obj
 0002:00001e34       ??_C@_02NONPIBCD@?$HM?$HM@ 10021e34     libvcruntime:undname.obj
 0002:00001e38       ??_C@_02FPIMKNGF@?$CK?$DN@ 10021e38     libvcruntime:undname.obj
 0002:00001e3c       ??_C@_02FOEOMHFC@?$CL?$DN@ 10021e3c     libvcruntime:undname.obj
 0002:00001e40       ??_C@_02FKMDLLOA@?9?$DN@   10021e40     libvcruntime:undname.obj
 0002:00001e44       ??_C@_02FJEHGPIO@?1?$DN@   10021e44     libvcruntime:undname.obj
 0002:00001e48       ??_C@_02FENAOKFI@?$CF?$DN@ 10021e48     libvcruntime:undname.obj
 0002:00001e4c       ??_C@_03IKFCCPFF@?$DO?$DO?$DN@ 10021e4c     libvcruntime:undname.obj
 0002:00001e50       ??_C@_03CDNPDDLA@?$DM?$DM?$DN@ 10021e50     libvcruntime:undname.obj
 0002:00001e54       ??_C@_02FGJGFEAB@?$CG?$DN@ 10021e54     libvcruntime:undname.obj
 0002:00001e58       ??_C@_02DHLNPPGH@?$HM?$DN@ 10021e58     libvcruntime:undname.obj
 0002:00001e5c       ??_C@_02MHEGNOJ@?$FO?$DN@  10021e5c     libvcruntime:undname.obj
 0002:00001e60       ??_C@_09IFPLHPGF@?$GAvftable?8@ 10021e60     libvcruntime:undname.obj
 0002:00001e6c       ??_C@_09BLBHBJP@?$GAvbtable?8@ 10021e6c     libvcruntime:undname.obj
 0002:00001e78       ??_C@_07FEEIOKP@?$GAvcall?8@ 10021e78     libvcruntime:undname.obj
 0002:00001e80       ??_C@_08LLFFHHDJ@?$GAtypeof?8@ 10021e80     libvcruntime:undname.obj
 0002:00001e8c       ??_C@_0BF@KDPPACIK@?$GAlocal?5static?5guard?8@ 10021e8c     libvcruntime:undname.obj
 0002:00001ea4       ??_C@_08OBABFOLI@?$GAstring?8@ 10021ea4     libvcruntime:undname.obj
 0002:00001eb0       ??_C@_0BD@JDLKDPAB@?$GAvbase?5destructor?8@ 10021eb0     libvcruntime:undname.obj
 0002:00001ec4       ??_C@_0BN@DEGPLNFK@?$GAvector?5deleting?5destructor?8@ 10021ec4     libvcruntime:undname.obj
 0002:00001ee4       ??_C@_0BO@OBMKPJIG@?$GAdefault?5constructor?5closure?8@ 10021ee4     libvcruntime:undname.obj
 0002:00001f04       ??_C@_0BN@IMDCHIKM@?$GAscalar?5deleting?5destructor?8@ 10021f04     libvcruntime:undname.obj
 0002:00001f24       ??_C@_0BO@PFGOCPJJ@?$GAvector?5constructor?5iterator?8@ 10021f24     libvcruntime:undname.obj
 0002:00001f44       ??_C@_0BN@LFPFMEDL@?$GAvector?5destructor?5iterator?8@ 10021f44     libvcruntime:undname.obj
 0002:00001f64       ??_C@_0CE@IKBNEHA@?$GAvector?5vbase?5constructor?5itera@ 10021f64     libvcruntime:undname.obj
 0002:00001f88       ??_C@_0BL@NILFHHPC@?$GAvirtual?5displacement?5map?8@ 10021f88     libvcruntime:undname.obj
 0002:00001fa4       ??_C@_0CB@JONCMFFK@?$GAeh?5vector?5constructor?5iterator@ 10021fa4     libvcruntime:undname.obj
 0002:00001fc8       ??_C@_0CA@GCEOPDGL@?$GAeh?5vector?5destructor?5iterator?8@ 10021fc8     libvcruntime:undname.obj
 0002:00001fe8       ??_C@_0CH@OOJPLCPH@?$GAeh?5vector?5vbase?5constructor?5it@ 10021fe8     libvcruntime:undname.obj
 0002:00002010       ??_C@_0BL@LLKPOHJI@?$GAcopy?5constructor?5closure?8@ 10022010     libvcruntime:undname.obj
 0002:0000202c       ??_C@_0BA@KBCDOMBN@?$GAudt?5returning?8@ 1002202c     libvcruntime:undname.obj
 0002:0000203c       ??_C@_03KLGMFNMG@?$GAEH@   1002203c     libvcruntime:undname.obj
 0002:00002040       ??_C@_05KHLCHHI@?$GARTTI@  10022040     libvcruntime:undname.obj
 0002:00002048       ??_C@_0BA@KKLDJDLB@?$GAlocal?5vftable?8@ 10022048     libvcruntime:undname.obj
 0002:00002058       ??_C@_0CE@IIHCMGGL@?$GAlocal?5vftable?5constructor?5clos@ 10022058     libvcruntime:undname.obj
 0002:0000207c       ??_C@_06FHBGPFGH@?5new?$FL?$FN@ 1002207c     libvcruntime:undname.obj
 0002:00002084       ??_C@_09LBNFPBCA@?5delete?$FL?$FN@ 10022084     libvcruntime:undname.obj
 0002:00002090       ??_C@_0P@HJKNJFNN@?$GAomni?5callsig?8@ 10022090     libvcruntime:undname.obj
 0002:000020a0       ??_C@_0BL@CNOONJFP@?$GAplacement?5delete?5closure?8@ 100220a0     libvcruntime:undname.obj
 0002:000020bc       ??_C@_0BN@CKNJLHMB@?$GAplacement?5delete?$FL?$FN?5closure?8@ 100220bc     libvcruntime:undname.obj
 0002:000020dc       ??_C@_0CG@CFDHKGGD@?$GAmanaged?5vector?5constructor?5ite@ 100220dc     libvcruntime:undname.obj
 0002:00002104       ??_C@_0CF@IMGKMJNO@?$GAmanaged?5vector?5destructor?5iter@ 10022104     libvcruntime:undname.obj
 0002:0000212c       ??_C@_0CG@HLDDJMAG@?$GAeh?5vector?5copy?5constructor?5ite@ 1002212c     libvcruntime:undname.obj
 0002:00002154       ??_C@_0CM@FCBBDIGB@?$GAeh?5vector?5vbase?5copy?5construct@ 10022154     libvcruntime:undname.obj
 0002:00002180       ??_C@_0BL@CLIPGLGB@?$GAdynamic?5initializer?5for?5?8@ 10022180     libvcruntime:undname.obj
 0002:0000219c       ??_C@_0CB@PDBIFEP@?$GAdynamic?5atexit?5destructor?5for?5@ 1002219c     libvcruntime:undname.obj
 0002:000021c0       ??_C@_0CD@CGAJBKEJ@?$GAvector?5copy?5constructor?5iterat@ 100221c0     libvcruntime:undname.obj
 0002:000021e4       ??_C@_0CJ@GJELGAMM@?$GAvector?5vbase?5copy?5constructor?5@ 100221e4     libvcruntime:undname.obj
 0002:00002210       ??_C@_0CL@FGIJHLCE@?$GAmanaged?5vector?5copy?5constructo@ 10022210     libvcruntime:undname.obj
 0002:0000223c       ??_C@_0BM@PMGGMLDN@?$GAlocal?5static?5thread?5guard?8@ 1002223c     libvcruntime:undname.obj
 0002:00002258       ??_C@_0N@BDNMDMOL@operator?5?$CC?$CC?5@ 10022258     libvcruntime:undname.obj
 0002:00002268       ??_C@_0BC@GGEBGALA@operator?5co_await@ 10022268     libvcruntime:undname.obj
 0002:0000227c       ??_C@_0M@GAAIMMOH@operator?$DM?$DN?$DO@ 1002227c     libvcruntime:undname.obj
 0002:00002288       ??_C@_0BC@DAFEJGAK@?5Type?5Descriptor?8@ 10022288     libvcruntime:undname.obj
 0002:0000229c       ??_C@_0BM@LDKODKLH@?5Base?5Class?5Descriptor?5at?5?$CI@ 1002229c     libvcruntime:undname.obj
 0002:000022b8       ??_C@_0BD@LGICGFMM@?5Base?5Class?5Array?8@ 100222b8     libvcruntime:undname.obj
 0002:000022cc       ??_C@_0BN@MECKDCOJ@?5Class?5Hierarchy?5Descriptor?8@ 100222cc     libvcruntime:undname.obj
 0002:000022ec       ??_C@_0BK@CFCOFLF@?5Complete?5Object?5Locator?8@ 100222ec     libvcruntime:undname.obj
 0002:00002308       ??_C@_0BG@JNJLAMPM@?$GAanonymous?5namespace?8@ 10022308     libvcruntime:undname.obj
 0002:0000232c       ??_C@_1DM@KHCHBNEB@?$AAa?$AAp?$AAi?$AA?9?$AAm?$AAs?$AA?9?$AAw?$AAi?$AAn?$AA?9?$AAc?$AAo?$AAr?$AAe@ 1002232c     libvcruntime:winapi_downlevel.obj
 0002:00002368       ??_C@_1DK@LPPGFMPP@?$AAa?$AAp?$AAi?$AA?9?$AAm?$AAs?$AA?9?$AAw?$AAi?$AAn?$AA?9?$AAc?$AAo?$AAr?$AAe@ 10022368     libvcruntime:winapi_downlevel.obj
 0002:000023a4       ??_C@_1BC@GDMECMAK@?$AAk?$AAe?$AAr?$AAn?$AAe?$AAl?$AA3?$AA2@ 100223a4     libvcruntime:winapi_downlevel.obj
 0002:000023b8       ??_C@_1BA@PFFKHIOG@?$AAa?$AAp?$AAi?$AA?9?$AAm?$AAs?$AA?9@ 100223b8     libvcruntime:winapi_downlevel.obj
 0002:000023d0       ??_C@_08KNHFBNJ@FlsAlloc@  100223d0     libvcruntime:winapi_downlevel.obj
 0002:000023e4       ??_C@_07PEJMOBNF@FlsFree@  100223e4     libvcruntime:winapi_downlevel.obj
 0002:000023f4       ??_C@_0M@GDNOONDI@FlsGetValue@ 100223f4     libvcruntime:winapi_downlevel.obj
 0002:00002408       ??_C@_0M@JCPCPOEF@FlsSetValue@ 10022408     libvcruntime:winapi_downlevel.obj
 0002:0000241c       ??_C@_0BM@HCFOFFN@InitializeCriticalSectionEx@ 1002241c     libvcruntime:winapi_downlevel.obj
 0002:000025a0       ?format_validation_lookup_table_spectre@__crt_stdio_output@@3V?$spectre_mitigated_lookup_table@Ustate_transition_pair@__crt_stdio_output@@$0IA@@1@B 100225a0     libucrt:output.obj
 0002:000029a0       ??_C@_1O@CEDCILHN@?$AA?$CI?$AAn?$AAu?$AAl?$AAl?$AA?$CJ@ 100229a0     libucrt:output.obj
 0002:000029b0       ??_C@_06OJHGLDPL@?$CInull?$CJ@ 100229b0     libucrt:output.obj
 0002:000029b8       ___acrt_exception_action_table 100229b8     libucrt:exception_filter.obj
 0002:00002a48       ___acrt_signal_action_table_count 10022a48     libucrt:exception_filter.obj
 0002:00002a4c       ___acrt_signal_action_first_fpe_index 10022a4c     libucrt:exception_filter.obj
 0002:00002a50       ___acrt_signal_action_fpe_count 10022a50     libucrt:exception_filter.obj
 0002:00002a54       ??_C@_1BI@BGOHAHKC@?$AAm?$AAs?$AAc?$AAo?$AAr?$AAe?$AAe?$AA?4?$AAd?$AAl?$AAl@ 10022a54     libucrt:exit.obj
 0002:00002a6c       ??_C@_0P@MIGLKIOC@CorExitProcess@ 10022a6c     libucrt:exit.obj
 0002:00002b50       ??_C@_1EA@JGEFHKEI@?$AAa?$AAp?$AAi?$AA?9?$AAm?$AAs?$AA?9?$AAw?$AAi?$AAn?$AA?9?$AAc?$AAo?$AAr?$AAe@ 10022b50     libucrt:winapi_thunks.obj
 0002:00002b90       ??_C@_1DI@IJCEHOCB@?$AAa?$AAp?$AAi?$AA?9?$AAm?$AAs?$AA?9?$AAw?$AAi?$AAn?$AA?9?$AAc?$AAo?$AAr?$AAe@ 10022b90     libucrt:winapi_thunks.obj
 0002:00002bc8       ??_C@_1EI@MPIAOHOC@?$AAa?$AAp?$AAi?$AA?9?$AAm?$AAs?$AA?9?$AAw?$AAi?$AAn?$AA?9?$AAc?$AAo?$AAr?$AAe@ 10022bc8     libucrt:winapi_thunks.obj
 0002:00002c10       ??_C@_1FK@FPHCKFIE@?$AAa?$AAp?$AAi?$AA?9?$AAm?$AAs?$AA?9?$AAw?$AAi?$AAn?$AA?9?$AAc?$AAo?$AAr?$AAe@ 10022c10     libucrt:winapi_thunks.obj
 0002:00002c70       ??_C@_1EM@DILCGIIO@?$AAa?$AAp?$AAi?$AA?9?$AAm?$AAs?$AA?9?$AAw?$AAi?$AAn?$AA?9?$AAc?$AAo?$AAr?$AAe@ 10022c70     libucrt:winapi_thunks.obj
 0002:00002cbc       ??_C@_1DM@LNCGDDPN@?$AAa?$AAp?$AAi?$AA?9?$AAm?$AAs?$AA?9?$AAw?$AAi?$AAn?$AA?9?$AAc?$AAo?$AAr?$AAe@ 10022cbc     libucrt:winapi_thunks.obj
 0002:00002cf8       ??_C@_1DO@FPAPJEMD@?$AAa?$AAp?$AAi?$AA?9?$AAm?$AAs?$AA?9?$AAw?$AAi?$AAn?$AA?9?$AAc?$AAo?$AAr?$AAe@ 10022cf8     libucrt:winapi_thunks.obj
 0002:00002d38       ??_C@_1DK@NDHNAHIO@?$AAa?$AAp?$AAi?$AA?9?$AAm?$AAs?$AA?9?$AAw?$AAi?$AAn?$AA?9?$AAc?$AAo?$AAr?$AAe@ 10022d38     libucrt:winapi_thunks.obj
 0002:00002d74       ??_C@_1DM@KGHDGBCM@?$AAa?$AAp?$AAi?$AA?9?$AAm?$AAs?$AA?9?$AAw?$AAi?$AAn?$AA?9?$AAc?$AAo?$AAr?$AAe@ 10022d74     libucrt:winapi_thunks.obj
 0002:00002db0       ??_C@_1EO@IJIOEFOH@?$AAa?$AAp?$AAi?$AA?9?$AAm?$AAs?$AA?9?$AAw?$AAi?$AAn?$AA?9?$AAr?$AAt?$AAc?$AAo@ 10022db0     libucrt:winapi_thunks.obj
 0002:00002e00       ??_C@_1FG@HHGEKANL@?$AAa?$AAp?$AAi?$AA?9?$AAm?$AAs?$AA?9?$AAw?$AAi?$AAn?$AA?9?$AAs?$AAe?$AAc?$AAu@ 10022e00     libucrt:winapi_thunks.obj
 0002:00002e58       ??_C@_1EG@DBIOJECG@?$AAe?$AAx?$AAt?$AA?9?$AAm?$AAs?$AA?9?$AAw?$AAi?$AAn?$AA?9?$AAn?$AAt?$AAu?$AAs@ 10022e58     libucrt:winapi_thunks.obj
 0002:00002ea0       ??_C@_1EO@FIHMJCLF@?$AAe?$AAx?$AAt?$AA?9?$AAm?$AAs?$AA?9?$AAw?$AAi?$AAn?$AA?9?$AAn?$AAt?$AAu?$AAs@ 10022ea0     libucrt:winapi_thunks.obj
 0002:00002ef0       ??_C@_1BC@DNHGCMLG@?$AAa?$AAd?$AAv?$AAa?$AAp?$AAi?$AA3?$AA2@ 10022ef0     libucrt:winapi_thunks.obj
 0002:00002f04       ??_C@_1M@OAIMIKLP@?$AAn?$AAt?$AAd?$AAl?$AAl@ 10022f04     libucrt:winapi_thunks.obj
 0002:00002f10       ??_C@_1EG@DPGNFKGC@?$AAa?$AAp?$AAi?$AA?9?$AAm?$AAs?$AA?9?$AAw?$AAi?$AAn?$AA?9?$AAa?$AAp?$AAp?$AAm@ 10022f10     libucrt:winapi_thunks.obj
 0002:00002f58       ??_C@_1O@BCCLBEOE@?$AAu?$AAs?$AAe?$AAr?$AA3?$AA2@ 10022f58     libucrt:winapi_thunks.obj
 0002:00002f68       ??_C@_1BA@IAIFMGEF@?$AAe?$AAx?$AAt?$AA?9?$AAm?$AAs?$AA?9@ 10022f68     libucrt:winapi_thunks.obj
 0002:00002f7c       ??_C@_0BA@FHFNEAED@AreFileApisANSI@ 10022f7c     libucrt:winapi_thunks.obj
 0002:00002fbc       ??_C@_0O@KKBNKAPF@LCMapStringEx@ 10022fbc     libucrt:winapi_thunks.obj
 0002:00002fd4       ??_C@_0BB@HBDEELFH@LocaleNameToLCID@ 10022fd4     libucrt:winapi_thunks.obj
 0002:00002fec       ??_C@_0CF@OJOFEIGO@AppPolicyGetProcessTerminationM@ 10022fec     libucrt:winapi_thunks.obj
 0002:0000301c       ??_C@_0BI@BKLFFAPO@SetThreadStackGuarantee@ 1002301c     libucrt:winapi_thunks.obj
 0002:00003078       ??_C@_03OEIAHPBN@INF@      10023078     libucrt:cvt.obj
 0002:0000307c       ??_C@_03OJHLLCGB@inf@      1002307c     libucrt:cvt.obj
 0002:00003080       ??_C@_03LKNCIKJB@NAN@      10023080     libucrt:cvt.obj
 0002:00003084       ??_C@_03LHCJEHON@nan@      10023084     libucrt:cvt.obj
 0002:00003088       ??_C@_09OFJJIMPC@NAN?$CISNAN?$CJ@ 10023088     libucrt:cvt.obj
 0002:00003094       ??_C@_09IPFBKMDL@nan?$CIsnan?$CJ@ 10023094     libucrt:cvt.obj
 0002:000030a0       ??_C@_08IKHNHAJ@NAN?$CIIND?$CJ@ 100230a0     libucrt:cvt.obj
 0002:000030ac       ??_C@_08OFCDMILK@nan?$CIind?$CJ@ 100230ac     libucrt:cvt.obj
 0002:000030b8       ??_C@_05KLBDPFGC@e?$CL000@ 100230b8     libucrt:cvt.obj
 0002:000030c0       ___lc_time_c               100230c0     libucrt:nlsdata.obj
 0002:00003224       ??_C@_03KOEHGMDN@Sun@      10023224     libucrt:nlsdata.obj
 0002:00003228       ??_C@_03PDAGKDH@Mon@       10023228     libucrt:nlsdata.obj
 0002:0000322c       ??_C@_03NAGEINEP@Tue@      1002322c     libucrt:nlsdata.obj
 0002:00003230       ??_C@_03MHOMLAJA@Wed@      10023230     libucrt:nlsdata.obj
 0002:00003234       ??_C@_03IOFIKPDN@Thu@      10023234     libucrt:nlsdata.obj
 0002:00003238       ??_C@_03IDIOELNC@Fri@      10023238     libucrt:nlsdata.obj
 0002:0000323c       ??_C@_03FEFJNEK@Sat@       1002323c     libucrt:nlsdata.obj
 0002:00003240       ??_C@_06OOPIFAJ@Sunday@    10023240     libucrt:nlsdata.obj
 0002:00003248       ??_C@_06JLEDEDGH@Monday@   10023248     libucrt:nlsdata.obj
 0002:00003250       ??_C@_07BAAGCFCM@Tuesday@  10023250     libucrt:nlsdata.obj
 0002:00003258       ??_C@_09DLIGFAKA@Wednesday@ 10023258     libucrt:nlsdata.obj
 0002:00003264       ??_C@_08HACCIKIA@Thursday@ 10023264     libucrt:nlsdata.obj
 0002:00003270       ??_C@_06JECMNKMI@Friday@   10023270     libucrt:nlsdata.obj
 0002:00003278       ??_C@_08INBOOONO@Saturday@ 10023278     libucrt:nlsdata.obj
 0002:00003284       ??_C@_03JIHJHPIE@Jan@      10023284     libucrt:nlsdata.obj
 0002:00003288       ??_C@_03HJBDCHOM@Feb@      10023288     libucrt:nlsdata.obj
 0002:0000328c       ??_C@_03ODNJBKGA@Mar@      1002328c     libucrt:nlsdata.obj
 0002:00003290       ??_C@_03LEOLGMJP@Apr@      10023290     libucrt:nlsdata.obj
 0002:00003294       ??_C@_03CNMDKL@May@        10023294     libucrt:nlsdata.obj
 0002:00003298       ??_C@_03IDFGHECI@Jun@      10023298     libucrt:nlsdata.obj
 0002:0000329c       ??_C@_03LBGABGKK@Jul@      1002329c     libucrt:nlsdata.obj
 0002:000032a0       ??_C@_03IFJFEIGA@Aug@      100232a0     libucrt:nlsdata.obj
 0002:000032a4       ??_C@_03GGCAPAJC@Sep@      100232a4     libucrt:nlsdata.obj
 0002:000032a8       ??_C@_03BMAOKBAD@Oct@      100232a8     libucrt:nlsdata.obj
 0002:000032ac       ??_C@_03JPJOFNIA@Nov@      100232ac     libucrt:nlsdata.obj
 0002:000032b0       ??_C@_03MKABNOCG@Dec@      100232b0     libucrt:nlsdata.obj
 0002:000032b4       ??_C@_07CGJPFGJA@January@  100232b4     libucrt:nlsdata.obj
 0002:000032bc       ??_C@_08GNJGEPFN@February@ 100232bc     libucrt:nlsdata.obj
 0002:000032c8       ??_C@_05HPCKOFNC@March@    100232c8     libucrt:nlsdata.obj
 0002:000032d0       ??_C@_05DMJDNLEJ@April@    100232d0     libucrt:nlsdata.obj
 0002:000032d8       ??_C@_04CNLMGBGM@June@     100232d8     libucrt:nlsdata.obj
 0002:000032e0       ??_C@_04MIEPOIFP@July@     100232e0     libucrt:nlsdata.obj
 0002:000032e8       ??_C@_06LBBHFDDG@August@   100232e8     libucrt:nlsdata.obj
 0002:000032f0       ??_C@_09BHHEALKD@September@ 100232f0     libucrt:nlsdata.obj
 0002:000032fc       ??_C@_07JJNFCEND@October@  100232fc     libucrt:nlsdata.obj
 0002:00003304       ??_C@_08HCHEGEOA@November@ 10023304     libucrt:nlsdata.obj
 0002:00003310       ??_C@_08EDHMEBNP@December@ 10023310     libucrt:nlsdata.obj
 0002:0000331c       ??_C@_02DEDBPAFC@AM@       1002331c     libucrt:nlsdata.obj
 0002:00003320       ??_C@_02CJNFDJBF@PM@       10023320     libucrt:nlsdata.obj
 0002:00003324       ??_C@_08BPBNCDIB@MM?1dd?1yy@ 10023324     libucrt:nlsdata.obj
 0002:00003330       ??_C@_0BE@CKGJFCPC@dddd?0?5MMMM?5dd?0?5yyyy@ 10023330     libucrt:nlsdata.obj
 0002:00003344       ??_C@_08JCCMCCIL@HH?3mm?3ss@ 10023344     libucrt:nlsdata.obj
 0002:00003350       ??_C@_17MBGCMIPB@?$AAS?$AAu?$AAn@ 10023350     libucrt:nlsdata.obj
 0002:00003358       ??_C@_17KBOMKBF@?$AAM?$AAo?$AAn@ 10023358     libucrt:nlsdata.obj
 0002:00003360       ??_C@_17BMKGEGOJ@?$AAT?$AAu?$AAe@ 10023360     libucrt:nlsdata.obj
 0002:00003368       ??_C@_17CJEDCEPE@?$AAW?$AAe?$AAd@ 10023368     libucrt:nlsdata.obj
 0002:00003370       ??_C@_17PDPHAADD@?$AAT?$AAh?$AAu@ 10023370     libucrt:nlsdata.obj
 0002:00003378       ??_C@_17HFOLPPLP@?$AAF?$AAr?$AAi@ 10023378     libucrt:nlsdata.obj
 0002:00003380       ??_C@_17GGIBDPIH@?$AAS?$AAa?$AAt@ 10023380     libucrt:nlsdata.obj
 0002:00003388       ??_C@_1O@IHNHDHPB@?$AAS?$AAu?$AAn?$AAd?$AAa?$AAy@ 10023388     libucrt:nlsdata.obj
 0002:00003398       ??_C@_1O@MMNBFLIA@?$AAM?$AAo?$AAn?$AAd?$AAa?$AAy@ 10023398     libucrt:nlsdata.obj
 0002:000033a8       ??_C@_1BA@ENFBFFEK@?$AAT?$AAu?$AAe?$AAs?$AAd?$AAa?$AAy@ 100233a8     libucrt:nlsdata.obj
 0002:000033b8       ??_C@_1BE@EBOGMDOH@?$AAW?$AAe?$AAd?$AAn?$AAe?$AAs?$AAd?$AAa?$AAy@ 100233b8     libucrt:nlsdata.obj
 0002:000033cc       ??_C@_1BC@HHMNLIHE@?$AAT?$AAh?$AAu?$AAr?$AAs?$AAd?$AAa?$AAy@ 100233cc     libucrt:nlsdata.obj
 0002:000033e0       ??_C@_1O@PDICJHAG@?$AAF?$AAr?$AAi?$AAd?$AAa?$AAy@ 100233e0     libucrt:nlsdata.obj
 0002:000033f0       ??_C@_1BC@ENMNNPAJ@?$AAS?$AAa?$AAt?$AAu?$AAr?$AAd?$AAa?$AAy@ 100233f0     libucrt:nlsdata.obj
 0002:00003404       ??_C@_17DKNBKCHM@?$AAJ?$AAa?$AAn@ 10023404     libucrt:nlsdata.obj
 0002:0000340c       ??_C@_17LMDJEKJN@?$AAF?$AAe?$AAb@ 1002340c     libucrt:nlsdata.obj
 0002:00003414       ??_C@_17CKNLEDEC@?$AAM?$AAa?$AAr@ 10023414     libucrt:nlsdata.obj
 0002:0000341c       ??_C@_17LFPOIHDD@?$AAA?$AAp?$AAr@ 1002341c     libucrt:nlsdata.obj
 0002:00003424       ??_C@_17PNNKMEED@?$AAM?$AAa?$AAy@ 10023424     libucrt:nlsdata.obj
 0002:0000342c       ??_C@_17KCJGOCPB@?$AAJ?$AAu?$AAn@ 1002342c     libucrt:nlsdata.obj
 0002:00003434       ??_C@_17IJPCKHK@?$AAJ?$AAu?$AAl@ 10023434     libucrt:nlsdata.obj
 0002:0000343c       ??_C@_17ICPELBCN@?$AAA?$AAu?$AAg@ 1002343c     libucrt:nlsdata.obj
 0002:00003444       ??_C@_17HCHCOKMG@?$AAS?$AAe?$AAp@ 10023444     libucrt:nlsdata.obj
 0002:0000344c       ??_C@_17FNLKOI@?$AAO?$AAc?$AAt@ 1002344c     libucrt:nlsdata.obj
 0002:00003454       ??_C@_17BBDMLCIG@?$AAN?$AAo?$AAv@ 10023454     libucrt:nlsdata.obj
 0002:0000345c       ??_C@_17EGKACKIF@?$AAD?$AAe?$AAc@ 1002345c     libucrt:nlsdata.obj
 0002:00003464       ??_C@_1BA@EFMEIEBA@?$AAJ?$AAa?$AAn?$AAu?$AAa?$AAr?$AAy@ 10023464     libucrt:nlsdata.obj
 0002:00003474       ??_C@_1BC@JGDDFFAM@?$AAF?$AAe?$AAb?$AAr?$AAu?$AAa?$AAr?$AAy@ 10023474     libucrt:nlsdata.obj
 0002:00003488       ??_C@_1M@IKEENEDF@?$AAM?$AAa?$AAr?$AAc?$AAh@ 10023488     libucrt:nlsdata.obj
 0002:00003494       ??_C@_1M@GJNLMHFD@?$AAA?$AAp?$AAr?$AAi?$AAl@ 10023494     libucrt:nlsdata.obj
 0002:000034a0       ??_C@_19EPFLPGAP@?$AAJ?$AAu?$AAn?$AAe@ 100234a0     libucrt:nlsdata.obj
 0002:000034ac       ??_C@_19BIFMLPCD@?$AAJ?$AAu?$AAl?$AAy@ 100234ac     libucrt:nlsdata.obj
 0002:000034b8       ??_C@_1O@PAHLKOAC@?$AAA?$AAu?$AAg?$AAu?$AAs?$AAt@ 100234b8     libucrt:nlsdata.obj
 0002:000034c8       ??_C@_1BE@DKAAMBJL@?$AAS?$AAe?$AAp?$AAt?$AAe?$AAm?$AAb?$AAe?$AAr@ 100234c8     libucrt:nlsdata.obj
 0002:000034dc       ??_C@_1BA@EPANDLNG@?$AAO?$AAc?$AAt?$AAo?$AAb?$AAe?$AAr@ 100234dc     libucrt:nlsdata.obj
 0002:000034ec       ??_C@_1BC@BGLIFPF@?$AAN?$AAo?$AAv?$AAe?$AAm?$AAb?$AAe?$AAr@ 100234ec     libucrt:nlsdata.obj
 0002:00003500       ??_C@_1BC@FEMKIFH@?$AAD?$AAe?$AAc?$AAe?$AAm?$AAb?$AAe?$AAr@ 10023500     libucrt:nlsdata.obj
 0002:00003514       ??_C@_15ODEHAHHF@?$AAA?$AAM@ 10023514     libucrt:nlsdata.obj
 0002:0000351c       ??_C@_15CLMNNGEL@?$AAP?$AAM@ 1002351c     libucrt:nlsdata.obj
 0002:00003524       ??_C@_1BC@IEBCMHCM@?$AAM?$AAM?$AA?1?$AAd?$AAd?$AA?1?$AAy?$AAy@ 10023524     libucrt:nlsdata.obj
 0002:00003538       ??_C@_1CI@KNAKOEBC@?$AAd?$AAd?$AAd?$AAd?$AA?0?$AA?5?$AAM?$AAM?$AAM?$AAM?$AA?5?$AAd?$AAd?$AA?0?$AA?5@ 10023538     libucrt:nlsdata.obj
 0002:00003560       ??_C@_1BC@GDGBMEMK@?$AAH?$AAH?$AA?3?$AAm?$AAm?$AA?3?$AAs?$AAs@ 10023560     libucrt:nlsdata.obj
 0002:00003574       ??_C@_1M@BMHNFIME@?$AAe?$AAn?$AA?9?$AAU?$AAS@ 10023574     libucrt:nlsdata.obj
 0002:00003590       ??_C@_1M@HPNHIDJI@?$AAj?$AAa?$AA?9?$AAJ?$AAP@ 10023590     libucrt:mbctype.obj
 0002:0000359c       ??_C@_1M@BIBDDEMK@?$AAz?$AAh?$AA?9?$AAC?$AAN@ 1002359c     libucrt:mbctype.obj
 0002:000035a8       ??_C@_1M@JLOOOEGK@?$AAk?$AAo?$AA?9?$AAK?$AAR@ 100235a8     libucrt:mbctype.obj
 0002:000035b4       ??_C@_1M@CLNBBOPM@?$AAz?$AAh?$AA?9?$AAT?$AAW@ 100235b4     libucrt:mbctype.obj
 0002:000035c0       ___newctype                100235c0     libucrt:ctype.obj
 0002:000038c0       ___newclmap                100238c0     libucrt:ctype.obj
 0002:00003a40       ___newcumap                10023a40     libucrt:ctype.obj
 0002:00003bc0       __wctype                   10023bc0     libucrt:ctype.obj
 0002:000044e8       ??_C@_15EMKDOKLE@?$AAa?$AAr@ 100244e8     libucrt:lcidtoname_downlevel.obj
 0002:000044f0       ??_C@_15KNPADPLH@?$AAb?$AAg@ 100244f0     libucrt:lcidtoname_downlevel.obj
 0002:000044f8       ??_C@_15EDMHLDMO@?$AAc?$AAa@ 100244f8     libucrt:lcidtoname_downlevel.obj
 0002:00004500       ??_C@_1O@BPEAJADD@?$AAz?$AAh?$AA?9?$AAC?$AAH?$AAS@ 10024500     libucrt:lcidtoname_downlevel.obj
 0002:00004510       ??_C@_15LJNHCMNK@?$AAc?$AAs@ 10024510     libucrt:lcidtoname_downlevel.obj
 0002:00004518       ??_C@_15FOMCIDHG@?$AAd?$AAa@ 10024518     libucrt:lcidtoname_downlevel.obj
 0002:00004520       ??_C@_15NBKABECB@?$AAd?$AAe@ 10024520     libucrt:lcidtoname_downlevel.obj
 0002:00004528       ??_C@_15GHPEIIAO@?$AAe?$AAl@ 10024528     libucrt:lcidtoname_downlevel.obj
 0002:00004530       ??_C@_15MNPNEAIF@?$AAe?$AAn@ 10024530     libucrt:lcidtoname_downlevel.obj
 0002:00004538       ??_C@_15GPIOMPMH@?$AAe?$AAs@ 10024538     libucrt:lcidtoname_downlevel.obj
 0002:00004540       ??_C@_15NGLOAKJC@?$AAf?$AAi@ 10024540     libucrt:lcidtoname_downlevel.obj
 0002:00004548       ??_C@_15FBKGNKAM@?$AAf?$AAr@ 10024548     libucrt:lcidtoname_downlevel.obj
 0002:00004550       ??_C@_15KGGCNEFK@?$AAh?$AAe@ 10024550     libucrt:lcidtoname_downlevel.obj
 0002:00004558       ??_C@_15PGHLIDMF@?$AAh?$AAu@ 10024558     libucrt:lcidtoname_downlevel.obj
 0002:00004560       ??_C@_15BIEMAPLM@?$AAi?$AAs@ 10024560     libucrt:lcidtoname_downlevel.obj
 0002:00004568       ??_C@_15IFJLDHAF@?$AAi?$AAt@ 10024568     libucrt:lcidtoname_downlevel.obj
 0002:00004570       ??_C@_15GEMIOCAG@?$AAj?$AAa@ 10024570     libucrt:lcidtoname_downlevel.obj
 0002:00004578       ??_C@_15EPELEGJA@?$AAk?$AAo@ 10024578     libucrt:lcidtoname_downlevel.obj
 0002:00004580       ??_C@_15NDDHIMN@?$AAn?$AAl@ 10024580     libucrt:lcidtoname_downlevel.obj
 0002:00004588       ??_C@_15BPIGNHCD@?$AAn?$AAo@ 10024588     libucrt:lcidtoname_downlevel.obj
 0002:00004590       ??_C@_15DEOPBLCG@?$AAp?$AAl@ 10024590     libucrt:lcidtoname_downlevel.obj
 0002:00004598       ??_C@_15KBECGEFG@?$AAp?$AAt@ 10024598     libucrt:lcidtoname_downlevel.obj
 0002:000045a0       ??_C@_15GLJCBFMD@?$AAr?$AAo@ 100245a0     libucrt:lcidtoname_downlevel.obj
 0002:000045a8       ??_C@_15FEDGKCDI@?$AAr?$AAu@ 100245a8     libucrt:lcidtoname_downlevel.obj
 0002:000045b0       ??_C@_15GLKMLLHM@?$AAh?$AAr@ 100245b0     libucrt:lcidtoname_downlevel.obj
 0002:000045b8       ??_C@_15CPKMFBDB@?$AAs?$AAk@ 100245b8     libucrt:lcidtoname_downlevel.obj
 0002:000045c0       ??_C@_15BAAIOGMK@?$AAs?$AAq@ 100245c0     libucrt:lcidtoname_downlevel.obj
 0002:000045c8       ??_C@_15INNPNOHD@?$AAs?$AAv@ 100245c8     libucrt:lcidtoname_downlevel.obj
 0002:000045d0       ??_C@_15CABMMOGH@?$AAt?$AAh@ 100245d0     libucrt:lcidtoname_downlevel.obj
 0002:000045d8       ??_C@_15BPLIHJJM@?$AAt?$AAr@ 100245d8     libucrt:lcidtoname_downlevel.obj
 0002:000045e0       ??_C@_15NEOEKKDJ@?$AAu?$AAr@ 100245e0     libucrt:lcidtoname_downlevel.obj
 0002:000045e8       ??_C@_15NFICGAJK@?$AAi?$AAd@ 100245e8     libucrt:lcidtoname_downlevel.obj
 0002:000045f0       ??_C@_15PJPFLCCM@?$AAu?$AAk@ 100245f0     libucrt:lcidtoname_downlevel.obj
 0002:000045f8       ??_C@_15HPJPHDM@?$AAb?$AAe@ 100245f8     libucrt:lcidtoname_downlevel.obj
 0002:00004600       ??_C@_15LCHLGJII@?$AAs?$AAl@ 10024600     libucrt:lcidtoname_downlevel.obj
 0002:00004608       ??_C@_15PCFJPHHO@?$AAe?$AAt@ 10024608     libucrt:lcidtoname_downlevel.obj
 0002:00004610       ??_C@_15HPFPGODN@?$AAl?$AAv@ 10024610     libucrt:lcidtoname_downlevel.obj
 0002:00004618       ??_C@_15NFFGKGLG@?$AAl?$AAt@ 10024618     libucrt:lcidtoname_downlevel.obj
 0002:00004620       ??_C@_15BDAKCCHN@?$AAf?$AAa@ 10024620     libucrt:lcidtoname_downlevel.obj
 0002:00004628       ??_C@_15NFGIAIAJ@?$AAv?$AAi@ 10024628     libucrt:lcidtoname_downlevel.obj
 0002:00004630       ??_C@_15LMKNDMHN@?$AAh?$AAy@ 10024630     libucrt:lcidtoname_downlevel.obj
 0002:00004638       ??_C@_15IJBHMCFL@?$AAa?$AAz@ 10024638     libucrt:lcidtoname_downlevel.obj
 0002:00004640       ??_C@_15EKOFJABL@?$AAe?$AAu@ 10024640     libucrt:lcidtoname_downlevel.obj
 0002:00004648       ??_C@_15BGHADCNK@?$AAm?$AAk@ 10024648     libucrt:lcidtoname_downlevel.obj
 0002:00004650       ??_C@_15JDNICKHM@?$AAa?$AAf@ 10024650     libucrt:lcidtoname_downlevel.obj
 0002:00004658       ??_C@_15KPJEDBKD@?$AAk?$AAa@ 10024658     libucrt:lcidtoname_downlevel.obj
 0002:00004660       ??_C@_15PDNFFFEO@?$AAf?$AAo@ 10024660     libucrt:lcidtoname_downlevel.obj
 0002:00004668       ??_C@_15OMLEGLOC@?$AAh?$AAi@ 10024668     libucrt:lcidtoname_downlevel.obj
 0002:00004670       ??_C@_15IDNNENKK@?$AAm?$AAs@ 10024670     libucrt:lcidtoname_downlevel.obj
 0002:00004678       ??_C@_15MACJNBMH@?$AAk?$AAk@ 10024678     libucrt:lcidtoname_downlevel.obj
 0002:00004680       ??_C@_15DKDJEOND@?$AAk?$AAy@ 10024680     libucrt:lcidtoname_downlevel.obj
 0002:00004688       ??_C@_15DFGDLJBG@?$AAs?$AAw@ 10024688     libucrt:lcidtoname_downlevel.obj
 0002:00004690       ??_C@_15BBFAICNG@?$AAu?$AAz@ 10024690     libucrt:lcidtoname_downlevel.obj
 0002:00004698       ??_C@_15DKNDCGEA@?$AAt?$AAt@ 10024698     libucrt:lcidtoname_downlevel.obj
 0002:000046a0       ??_C@_15MGIFMDPL@?$AAp?$AAa@ 100246a0     libucrt:lcidtoname_downlevel.obj
 0002:000046a8       ??_C@_15HCNDBBA@?$AAg?$AAu@ 100246a8     libucrt:lcidtoname_downlevel.obj
 0002:000046b0       ??_C@_15FNBEIBON@?$AAt?$AAa@ 100246b0     libucrt:lcidtoname_downlevel.obj
 0002:000046b8       ??_C@_15NCHGBGLK@?$AAt?$AAe@ 100246b8     libucrt:lcidtoname_downlevel.obj
 0002:000046c0       ??_C@_15PHPHCBPF@?$AAk?$AAn@ 100246c0     libucrt:lcidtoname_downlevel.obj
 0002:000046c8       ??_C@_15DLGBCKMP@?$AAm?$AAr@ 100246c8     libucrt:lcidtoname_downlevel.obj
 0002:000046d0       ??_C@_15EABBLBFF@?$AAs?$AAa@ 100246d0     libucrt:lcidtoname_downlevel.obj
 0002:000046d8       ??_C@_15CBKOMCOI@?$AAm?$AAn@ 100246d8     libucrt:lcidtoname_downlevel.obj
 0002:000046e0       ??_C@_15CKDMCJAF@?$AAg?$AAl@ 100246e0     libucrt:lcidtoname_downlevel.obj
 0002:000046e8       ??_C@_17CNJFBPG@?$AAk?$AAo?$AAk@ 100246e8     libucrt:lcidtoname_downlevel.obj
 0002:000046f0       ??_C@_17FFBJICPL@?$AAs?$AAy?$AAr@ 100246f0     libucrt:lcidtoname_downlevel.obj
 0002:000046f8       ??_C@_17KPNDCPAF@?$AAd?$AAi?$AAv@ 100246f8     libucrt:lcidtoname_downlevel.obj
 0002:00004700       ??_C@_1M@OKAHONE@?$AAa?$AAr?$AA?9?$AAS?$AAA@ 10024700     libucrt:lcidtoname_downlevel.obj
 0002:0000470c       ??_C@_1M@FFFIGIGK@?$AAb?$AAg?$AA?9?$AAB?$AAG@ 1002470c     libucrt:lcidtoname_downlevel.obj
 0002:00004718       ??_C@_1M@BJNKEDC@?$AAc?$AAa?$AA?9?$AAE?$AAS@ 10024718     libucrt:lcidtoname_downlevel.obj
 0002:00004724       ??_C@_1M@IJJHFJHA@?$AAc?$AAs?$AA?9?$AAC?$AAZ@ 10024724     libucrt:lcidtoname_downlevel.obj
 0002:00004730       ??_C@_1M@CLPEOBGI@?$AAd?$AAa?$AA?9?$AAD?$AAK@ 10024730     libucrt:lcidtoname_downlevel.obj
 0002:0000473c       ??_C@_1M@MCMADGCB@?$AAd?$AAe?$AA?9?$AAD?$AAE@ 1002473c     libucrt:lcidtoname_downlevel.obj
 0002:00004748       ??_C@_1M@OOCKEMAM@?$AAe?$AAl?$AA?9?$AAG?$AAR@ 10024748     libucrt:lcidtoname_downlevel.obj
 0002:00004754       ??_C@_1M@DDNJFGID@?$AAf?$AAi?$AA?9?$AAF?$AAI@ 10024754     libucrt:lcidtoname_downlevel.obj
 0002:00004760       ??_C@_1M@GLIPPMAC@?$AAf?$AAr?$AA?9?$AAF?$AAR@ 10024760     libucrt:lcidtoname_downlevel.obj
 0002:0000476c       ??_C@_1M@GFMCHPE@?$AAh?$AAe?$AA?9?$AAI?$AAL@ 1002476c     libucrt:lcidtoname_downlevel.obj
 0002:00004778       ??_C@_1M@MHLPGNKM@?$AAh?$AAu?$AA?9?$AAH?$AAU@ 10024778     libucrt:lcidtoname_downlevel.obj
 0002:00004784       ??_C@_1M@LPDDNNPN@?$AAi?$AAs?$AA?9?$AAI?$AAS@ 10024784     libucrt:lcidtoname_downlevel.obj
 0002:00004790       ??_C@_1M@MADIPODN@?$AAi?$AAt?$AA?9?$AAI?$AAT@ 10024790     libucrt:lcidtoname_downlevel.obj
 0002:0000479c       ??_C@_1M@IHBJJGG@?$AAn?$AAl?$AA?9?$AAN?$AAL@ 1002479c     libucrt:lcidtoname_downlevel.obj
 0002:000047a8       ??_C@_1M@EANAGDL@?$AAn?$AAb?$AA?9?$AAN?$AAO@ 100247a8     libucrt:lcidtoname_downlevel.obj
 0002:000047b4       ??_C@_1M@NEIEMEGP@?$AAp?$AAl?$AA?9?$AAP?$AAL@ 100247b4     libucrt:lcidtoname_downlevel.obj
 0002:000047c0       ??_C@_1M@BOCFIGEP@?$AAp?$AAt?$AA?9?$AAB?$AAR@ 100247c0     libucrt:lcidtoname_downlevel.obj
 0002:000047cc       ??_C@_1M@IMPFOPBG@?$AAr?$AAo?$AA?9?$AAR?$AAO@ 100247cc     libucrt:lcidtoname_downlevel.obj
 0002:000047d8       ??_C@_1M@IDNNEJMM@?$AAr?$AAu?$AA?9?$AAR?$AAU@ 100247d8     libucrt:lcidtoname_downlevel.obj
 0002:000047e4       ??_C@_1M@LILEEOGM@?$AAh?$AAr?$AA?9?$AAH?$AAR@ 100247e4     libucrt:lcidtoname_downlevel.obj
 0002:000047f0       ??_C@_1M@FKIFEHPB@?$AAs?$AAk?$AA?9?$AAS?$AAK@ 100247f0     libucrt:lcidtoname_downlevel.obj
 0002:000047fc       ??_C@_1M@LJMAMNPJ@?$AAs?$AAq?$AA?9?$AAA?$AAL@ 100247fc     libucrt:lcidtoname_downlevel.obj
 0002:00004808       ??_C@_1M@GIAKDKJK@?$AAs?$AAv?$AA?9?$AAS?$AAE@ 10024808     libucrt:lcidtoname_downlevel.obj
 0002:00004814       ??_C@_1M@MKJKIKCL@?$AAt?$AAh?$AA?9?$AAT?$AAH@ 10024814     libucrt:lcidtoname_downlevel.obj
 0002:00004820       ??_C@_1M@MFLCCMPB@?$AAt?$AAr?$AA?9?$AAT?$AAR@ 10024820     libucrt:lcidtoname_downlevel.obj
 0002:0000482c       ??_C@_1M@OIJHDKJN@?$AAu?$AAr?$AA?9?$AAP?$AAK@ 1002482c     libucrt:lcidtoname_downlevel.obj
 0002:00004838       ??_C@_1M@LHIPCIEK@?$AAi?$AAd?$AA?9?$AAI?$AAD@ 10024838     libucrt:lcidtoname_downlevel.obj
 0002:00004844       ??_C@_1M@MFMOBGI@?$AAu?$AAk?$AA?9?$AAU?$AAA@ 10024844     libucrt:lcidtoname_downlevel.obj
 0002:00004850       ??_C@_1M@OBGLJIPL@?$AAb?$AAe?$AA?9?$AAB?$AAY@ 10024850     libucrt:lcidtoname_downlevel.obj
 0002:0000485c       ??_C@_1M@BCFAJEAD@?$AAs?$AAl?$AA?9?$AAS?$AAI@ 1002485c     libucrt:lcidtoname_downlevel.obj
 0002:00004868       ??_C@_1M@FKFFEDDN@?$AAe?$AAt?$AA?9?$AAE?$AAE@ 10024868     libucrt:lcidtoname_downlevel.obj
 0002:00004874       ??_C@_1M@KGKKAACI@?$AAl?$AAv?$AA?9?$AAL?$AAV@ 10024874     libucrt:lcidtoname_downlevel.obj
 0002:00004880       ??_C@_1M@IFGBIJO@?$AAl?$AAt?$AA?9?$AAL?$AAT@ 10024880     libucrt:lcidtoname_downlevel.obj
 0002:0000488c       ??_C@_1M@FGEAHEDM@?$AAf?$AAa?$AA?9?$AAI?$AAR@ 1002488c     libucrt:lcidtoname_downlevel.obj
 0002:00004898       ??_C@_1M@KBMAIBFN@?$AAv?$AAi?$AA?9?$AAV?$AAN@ 10024898     libucrt:lcidtoname_downlevel.obj
 0002:000048a4       ??_C@_1M@GPCBKDJK@?$AAh?$AAy?$AA?9?$AAA?$AAM@ 100248a4     libucrt:lcidtoname_downlevel.obj
 0002:000048b0       ??_C@_1BG@BECMDDJB@?$AAa?$AAz?$AA?9?$AAA?$AAZ?$AA?9?$AAL?$AAa?$AAt?$AAn@ 100248b0     libucrt:lcidtoname_downlevel.obj
 0002:000048c8       ??_C@_1M@MAOFCAEA@?$AAe?$AAu?$AA?9?$AAE?$AAS@ 100248c8     libucrt:lcidtoname_downlevel.obj
 0002:000048d4       ??_C@_1M@IGHABKPI@?$AAm?$AAk?$AA?9?$AAM?$AAK@ 100248d4     libucrt:lcidtoname_downlevel.obj
 0002:000048e0       ??_C@_1M@IAIGNEJG@?$AAt?$AAn?$AA?9?$AAZ?$AAA@ 100248e0     libucrt:lcidtoname_downlevel.obj
 0002:000048ec       ??_C@_1M@IIJCOJFA@?$AAx?$AAh?$AA?9?$AAZ?$AAA@ 100248ec     libucrt:lcidtoname_downlevel.obj
 0002:000048f8       ??_C@_1M@LGPJHNJH@?$AAz?$AAu?$AA?9?$AAZ?$AAA@ 100248f8     libucrt:lcidtoname_downlevel.obj
 0002:00004904       ??_C@_1M@HOKAOIO@?$AAa?$AAf?$AA?9?$AAZ?$AAA@ 10024904     libucrt:lcidtoname_downlevel.obj
 0002:00004910       ??_C@_1M@DPCLHLIE@?$AAk?$AAa?$AA?9?$AAG?$AAE@ 10024910     libucrt:lcidtoname_downlevel.obj
 0002:0000491c       ??_C@_1M@BLKMHJBI@?$AAf?$AAo?$AA?9?$AAF?$AAO@ 1002491c     libucrt:lcidtoname_downlevel.obj
 0002:00004928       ??_C@_1M@LGGJAPPB@?$AAh?$AAi?$AA?9?$AAI?$AAN@ 10024928     libucrt:lcidtoname_downlevel.obj
 0002:00004934       ??_C@_1M@FIKPIHFE@?$AAm?$AAt?$AA?9?$AAM?$AAT@ 10024934     libucrt:lcidtoname_downlevel.obj
 0002:00004940       ??_C@_1M@HEGGPBFA@?$AAs?$AAe?$AA?9?$AAN?$AAO@ 10024940     libucrt:lcidtoname_downlevel.obj
 0002:0000494c       ??_C@_1M@EIBJEEPA@?$AAm?$AAs?$AA?9?$AAM?$AAY@ 1002494c     libucrt:lcidtoname_downlevel.obj
 0002:00004958       ??_C@_1M@FHLBGMPP@?$AAk?$AAk?$AA?9?$AAK?$AAZ@ 10024958     libucrt:lcidtoname_downlevel.obj
 0002:00004964       ??_C@_1M@NGJJLCGI@?$AAk?$AAy?$AA?9?$AAK?$AAG@ 10024964     libucrt:lcidtoname_downlevel.obj
 0002:00004970       ??_C@_1M@GIENNBFC@?$AAs?$AAw?$AA?9?$AAK?$AAE@ 10024970     libucrt:lcidtoname_downlevel.obj
 0002:0000497c       ??_C@_1BG@NDGMJIMJ@?$AAu?$AAz?$AA?9?$AAU?$AAZ?$AA?9?$AAL?$AAa?$AAt?$AAn@ 1002497c     libucrt:lcidtoname_downlevel.obj
 0002:00004994       ??_C@_1M@IDCCIHBC@?$AAt?$AAt?$AA?9?$AAR?$AAU@ 10024994     libucrt:lcidtoname_downlevel.obj
 0002:000049a0       ??_C@_1M@LOICPMOJ@?$AAb?$AAn?$AA?9?$AAI?$AAN@ 100249a0     libucrt:lcidtoname_downlevel.obj
 0002:000049ac       ??_C@_1M@KPKKNEAH@?$AAp?$AAa?$AA?9?$AAI?$AAN@ 100249ac     libucrt:lcidtoname_downlevel.obj
 0002:000049b8       ??_C@_1M@PJGPPBOG@?$AAg?$AAu?$AA?9?$AAI?$AAN@ 100249b8     libucrt:lcidtoname_downlevel.obj
 0002:000049c4       ??_C@_1M@KMKMOPHI@?$AAt?$AAa?$AA?9?$AAI?$AAN@ 100249c4     libucrt:lcidtoname_downlevel.obj
 0002:000049d0       ??_C@_1M@KFEHEPAC@?$AAt?$AAe?$AA?9?$AAI?$AAN@ 100249d0     libucrt:lcidtoname_downlevel.obj
 0002:000049dc       ??_C@_1M@CDCLMGHI@?$AAk?$AAn?$AA?9?$AAI?$AAN@ 100249dc     libucrt:lcidtoname_downlevel.obj
 0002:000049e8       ??_C@_1M@MIODLDKF@?$AAm?$AAl?$AA?9?$AAI?$AAN@ 100249e8     libucrt:lcidtoname_downlevel.obj
 0002:000049f4       ??_C@_1M@PBIEACPO@?$AAm?$AAr?$AA?9?$AAI?$AAN@ 100249f4     libucrt:lcidtoname_downlevel.obj
 0002:00004a00       ??_C@_1M@NIDEAGPH@?$AAs?$AAa?$AA?9?$AAI?$AAN@ 10024a00     libucrt:lcidtoname_downlevel.obj
 0002:00004a0c       ??_C@_1M@FHIHCBIO@?$AAm?$AAn?$AA?9?$AAM?$AAN@ 10024a0c     libucrt:lcidtoname_downlevel.obj
 0002:00004a18       ??_C@_1M@JAIJPENP@?$AAc?$AAy?$AA?9?$AAG?$AAB@ 10024a18     libucrt:lcidtoname_downlevel.obj
 0002:00004a24       ??_C@_1M@PHGFBEPN@?$AAg?$AAl?$AA?9?$AAE?$AAS@ 10024a24     libucrt:lcidtoname_downlevel.obj
 0002:00004a30       ??_C@_1O@KPIPDNCP@?$AAk?$AAo?$AAk?$AA?9?$AAI?$AAN@ 10024a30     libucrt:lcidtoname_downlevel.obj
 0002:00004a40       ??_C@_1O@KNHJLDJA@?$AAs?$AAy?$AAr?$AA?9?$AAS?$AAY@ 10024a40     libucrt:lcidtoname_downlevel.obj
 0002:00004a50       ??_C@_1O@MKEKBLAH@?$AAd?$AAi?$AAv?$AA?9?$AAM?$AAV@ 10024a50     libucrt:lcidtoname_downlevel.obj
 0002:00004a60       ??_C@_1O@OHDCKDDF@?$AAq?$AAu?$AAz?$AA?9?$AAB?$AAO@ 10024a60     libucrt:lcidtoname_downlevel.obj
 0002:00004a70       ??_C@_1M@LEPJNLFD@?$AAn?$AAs?$AA?9?$AAZ?$AAA@ 10024a70     libucrt:lcidtoname_downlevel.obj
 0002:00004a7c       ??_C@_1M@OMLEIIJB@?$AAm?$AAi?$AA?9?$AAN?$AAZ@ 10024a7c     libucrt:lcidtoname_downlevel.obj
 0002:00004a88       ??_C@_1M@PMPEAILG@?$AAa?$AAr?$AA?9?$AAI?$AAQ@ 10024a88     libucrt:lcidtoname_downlevel.obj
 0002:00004a94       ??_C@_1M@CNKPNOEE@?$AAd?$AAe?$AA?9?$AAC?$AAH@ 10024a94     libucrt:lcidtoname_downlevel.obj
 0002:00004aa0       ??_C@_1M@LKMGMLKO@?$AAe?$AAn?$AA?9?$AAG?$AAB@ 10024aa0     libucrt:lcidtoname_downlevel.obj
 0002:00004aac       ??_C@_1M@PGKJFFGL@?$AAe?$AAs?$AA?9?$AAM?$AAX@ 10024aac     libucrt:lcidtoname_downlevel.obj
 0002:00004ab8       ??_C@_1M@DNNANBDC@?$AAf?$AAr?$AA?9?$AAB?$AAE@ 10024ab8     libucrt:lcidtoname_downlevel.obj
 0002:00004ac4       ??_C@_1M@HLGMDFHM@?$AAi?$AAt?$AA?9?$AAC?$AAH@ 10024ac4     libucrt:lcidtoname_downlevel.obj
 0002:00004ad0       ??_C@_1M@CLLBGJH@?$AAn?$AAl?$AA?9?$AAB?$AAE@ 10024ad0     libucrt:lcidtoname_downlevel.obj
 0002:00004adc       ??_C@_1M@BODBOGLF@?$AAn?$AAn?$AA?9?$AAN?$AAO@ 10024adc     libucrt:lcidtoname_downlevel.obj
 0002:00004ae8       ??_C@_1M@HFFAHKAD@?$AAp?$AAt?$AA?9?$AAP?$AAT@ 10024ae8     libucrt:lcidtoname_downlevel.obj
 0002:00004af4       ??_C@_1BG@LNOAKHIE@?$AAs?$AAr?$AA?9?$AAS?$AAP?$AA?9?$AAL?$AAa?$AAt?$AAn@ 10024af4     libucrt:lcidtoname_downlevel.obj
 0002:00004b0c       ??_C@_1M@HBMHBGAK@?$AAs?$AAv?$AA?9?$AAF?$AAI@ 10024b0c     libucrt:lcidtoname_downlevel.obj
 0002:00004b18       ??_C@_1BG@DGCJGJBE@?$AAa?$AAz?$AA?9?$AAA?$AAZ?$AA?9?$AAC?$AAy?$AAr?$AAl@ 10024b18     libucrt:lcidtoname_downlevel.obj
 0002:00004b30       ??_C@_1M@KEJDAAHB@?$AAs?$AAe?$AA?9?$AAS?$AAE@ 10024b30     libucrt:lcidtoname_downlevel.obj
 0002:00004b3c       ??_C@_1M@HEIBJJAD@?$AAm?$AAs?$AA?9?$AAB?$AAN@ 10024b3c     libucrt:lcidtoname_downlevel.obj
 0002:00004b48       ??_C@_1BG@PBGJMCEM@?$AAu?$AAz?$AA?9?$AAU?$AAZ?$AA?9?$AAC?$AAy?$AAr?$AAl@ 10024b48     libucrt:lcidtoname_downlevel.obj
 0002:00004b60       ??_C@_1O@LAOBCMDF@?$AAq?$AAu?$AAz?$AA?9?$AAE?$AAC@ 10024b60     libucrt:lcidtoname_downlevel.obj
 0002:00004b70       ??_C@_1M@POEEMAIO@?$AAa?$AAr?$AA?9?$AAE?$AAG@ 10024b70     libucrt:lcidtoname_downlevel.obj
 0002:00004b7c       ??_C@_1M@EFAKDEDL@?$AAz?$AAh?$AA?9?$AAH?$AAK@ 10024b7c     libucrt:lcidtoname_downlevel.obj
 0002:00004b88       ??_C@_1M@HKKIJHGI@?$AAd?$AAe?$AA?9?$AAA?$AAT@ 10024b88     libucrt:lcidtoname_downlevel.obj
 0002:00004b94       ??_C@_1M@KBFBEHJF@?$AAe?$AAn?$AA?9?$AAA?$AAU@ 10024b94     libucrt:lcidtoname_downlevel.obj
 0002:00004ba0       ??_C@_1M@MNPLFAAH@?$AAe?$AAs?$AA?9?$AAE?$AAS@ 10024ba0     libucrt:lcidtoname_downlevel.obj
 0002:00004bac       ??_C@_1M@HJOOJFMA@?$AAf?$AAr?$AA?9?$AAC?$AAA@ 10024bac     libucrt:lcidtoname_downlevel.obj
 0002:00004bb8       ??_C@_1BG@JPOFPNAB@?$AAs?$AAr?$AA?9?$AAS?$AAP?$AA?9?$AAC?$AAy?$AAr?$AAl@ 10024bb8     libucrt:lcidtoname_downlevel.obj
 0002:00004bd0       ??_C@_1M@LNFOCMOB@?$AAs?$AAe?$AA?9?$AAF?$AAI@ 10024bd0     libucrt:lcidtoname_downlevel.obj
 0002:00004bdc       ??_C@_1O@MGJBOAMB@?$AAq?$AAu?$AAz?$AA?9?$AAP?$AAE@ 10024bdc     libucrt:lcidtoname_downlevel.obj
 0002:00004bec       ??_C@_1M@GJINLBOK@?$AAa?$AAr?$AA?9?$AAL?$AAY@ 10024bec     libucrt:lcidtoname_downlevel.obj
 0002:00004bf8       ??_C@_1M@GGMNHJNL@?$AAz?$AAh?$AA?9?$AAS?$AAG@ 10024bf8     libucrt:lcidtoname_downlevel.obj
 0002:00004c04       ??_C@_1M@HOIKODND@?$AAd?$AAe?$AA?9?$AAL?$AAU@ 10024c04     libucrt:lcidtoname_downlevel.obj
 0002:00004c10       ??_C@_1M@DDOCCGFG@?$AAe?$AAn?$AA?9?$AAC?$AAA@ 10024c10     libucrt:lcidtoname_downlevel.obj
 0002:00004c1c       ??_C@_1M@BNOEMJLF@?$AAe?$AAs?$AA?9?$AAG?$AAT@ 10024c1c     libucrt:lcidtoname_downlevel.obj
 0002:00004c28       ??_C@_1M@EOGNKEK@?$AAf?$AAr?$AA?9?$AAC?$AAH@ 10024c28     libucrt:lcidtoname_downlevel.obj
 0002:00004c34       ??_C@_1M@FLIDJFHL@?$AAh?$AAr?$AA?9?$AAB?$AAA@ 10024c34     libucrt:lcidtoname_downlevel.obj
 0002:00004c40       ??_C@_1O@FMCELNAJ@?$AAs?$AAm?$AAj?$AA?9?$AAN?$AAO@ 10024c40     libucrt:lcidtoname_downlevel.obj
 0002:00004c50       ??_C@_1M@JHGLJMGJ@?$AAa?$AAr?$AA?9?$AAD?$AAZ@ 10024c50     libucrt:lcidtoname_downlevel.obj
 0002:00004c5c       ??_C@_1M@JKKFDCNP@?$AAz?$AAh?$AA?9?$AAM?$AAO@ 10024c5c     libucrt:lcidtoname_downlevel.obj
 0002:00004c68       ??_C@_1M@GEEFALPE@?$AAd?$AAe?$AA?9?$AAL?$AAI@ 10024c68     libucrt:lcidtoname_downlevel.obj
 0002:00004c74       ??_C@_1M@IGEOFBG@?$AAe?$AAn?$AA?9?$AAN?$AAZ@ 10024c74     libucrt:lcidtoname_downlevel.obj
 0002:00004c80       ??_C@_1M@KDBONEHP@?$AAe?$AAs?$AA?9?$AAC?$AAR@ 10024c80     libucrt:lcidtoname_downlevel.obj
 0002:00004c8c       ??_C@_1M@FHMDOHNN@?$AAf?$AAr?$AA?9?$AAL?$AAU@ 10024c8c     libucrt:lcidtoname_downlevel.obj
 0002:00004c98       ??_C@_1BG@NFKKMAFG@?$AAb?$AAs?$AA?9?$AAB?$AAA?$AA?9?$AAL?$AAa?$AAt?$AAn@ 10024c98     libucrt:lcidtoname_downlevel.obj
 0002:00004cb0       ??_C@_1O@IMNBEMCI@?$AAs?$AAm?$AAj?$AA?9?$AAS?$AAE@ 10024cb0     libucrt:lcidtoname_downlevel.obj
 0002:00004cc0       ??_C@_1M@DHHMBNDP@?$AAa?$AAr?$AA?9?$AAM?$AAA@ 10024cc0     libucrt:lcidtoname_downlevel.obj
 0002:00004ccc       ??_C@_1M@BNBLJCGH@?$AAe?$AAn?$AA?9?$AAI?$AAE@ 10024ccc     libucrt:lcidtoname_downlevel.obj
 0002:00004cd8       ??_C@_1M@GEPAFMDL@?$AAe?$AAs?$AA?9?$AAP?$AAA@ 10024cd8     libucrt:lcidtoname_downlevel.obj
 0002:00004ce4       ??_C@_1M@OJONDMDL@?$AAf?$AAr?$AA?9?$AAM?$AAC@ 10024ce4     libucrt:lcidtoname_downlevel.obj
 0002:00004cf0       ??_C@_1BG@OBCNFJB@?$AAs?$AAr?$AA?9?$AAB?$AAA?$AA?9?$AAL?$AAa?$AAt?$AAn@ 10024cf0     libucrt:lcidtoname_downlevel.obj
 0002:00004d08       ??_C@_1O@KEMEEGPO@?$AAs?$AAm?$AAa?$AA?9?$AAN?$AAO@ 10024d08     libucrt:lcidtoname_downlevel.obj
 0002:00004d18       ??_C@_1M@ELMGFODK@?$AAa?$AAr?$AA?9?$AAT?$AAN@ 10024d18     libucrt:lcidtoname_downlevel.obj
 0002:00004d24       ??_C@_1M@BHDLHFAF@?$AAe?$AAn?$AA?9?$AAZ?$AAA@ 10024d24     libucrt:lcidtoname_downlevel.obj
 0002:00004d30       ??_C@_1M@BMGIGLIF@?$AAe?$AAs?$AA?9?$AAD?$AAO@ 10024d30     libucrt:lcidtoname_downlevel.obj
 0002:00004d3c       ??_C@_1BG@CMBHIPBE@?$AAs?$AAr?$AA?9?$AAB?$AAA?$AA?9?$AAC?$AAy?$AAr?$AAl@ 10024d3c     libucrt:lcidtoname_downlevel.obj
 0002:00004d54       ??_C@_1O@HEDBLHNP@?$AAs?$AAm?$AAa?$AA?9?$AAS?$AAE@ 10024d54     libucrt:lcidtoname_downlevel.obj
 0002:00004d64       ??_C@_1M@DAGCADIM@?$AAa?$AAr?$AA?9?$AAO?$AAM@ 10024d64     libucrt:lcidtoname_downlevel.obj
 0002:00004d70       ??_C@_1M@FODLMICG@?$AAe?$AAn?$AA?9?$AAJ?$AAM@ 10024d70     libucrt:lcidtoname_downlevel.obj
 0002:00004d7c       ??_C@_1M@DNMLCIHB@?$AAe?$AAs?$AA?9?$AAV?$AAE@ 10024d7c     libucrt:lcidtoname_downlevel.obj
 0002:00004d88       ??_C@_1O@EOKHMKJK@?$AAs?$AAm?$AAs?$AA?9?$AAF?$AAI@ 10024d88     libucrt:lcidtoname_downlevel.obj
 0002:00004d98       ??_C@_1M@CAFJMKOF@?$AAa?$AAr?$AA?9?$AAY?$AAE@ 10024d98     libucrt:lcidtoname_downlevel.obj
 0002:00004da4       ??_C@_1M@CBFHIJLI@?$AAe?$AAn?$AA?9?$AAC?$AAB@ 10024da4     libucrt:lcidtoname_downlevel.obj
 0002:00004db0       ??_C@_1M@BGNFLDN@?$AAe?$AAs?$AA?9?$AAC?$AAO@ 10024db0     libucrt:lcidtoname_downlevel.obj
 0002:00004dbc       ??_C@_1O@JMPHMAMC@?$AAs?$AAm?$AAn?$AA?9?$AAF?$AAI@ 10024dbc     libucrt:lcidtoname_downlevel.obj
 0002:00004dcc       ??_C@_1M@JLANABKE@?$AAa?$AAr?$AA?9?$AAS?$AAY@ 10024dcc     libucrt:lcidtoname_downlevel.obj
 0002:00004dd8       ??_C@_1M@HPKGCFGN@?$AAe?$AAn?$AA?9?$AAB?$AAZ@ 10024dd8     libucrt:lcidtoname_downlevel.obj
 0002:00004de4       ??_C@_1M@OLJCMLGM@?$AAe?$AAs?$AA?9?$AAP?$AAE@ 10024de4     libucrt:lcidtoname_downlevel.obj
 0002:00004df0       ??_C@_1M@MKKGFKLE@?$AAa?$AAr?$AA?9?$AAJ?$AAO@ 10024df0     libucrt:lcidtoname_downlevel.obj
 0002:00004dfc       ??_C@_1M@EKPGLDNI@?$AAe?$AAn?$AA?9?$AAT?$AAT@ 10024dfc     libucrt:lcidtoname_downlevel.obj
 0002:00004e08       ??_C@_1M@OONGHFHE@?$AAe?$AAs?$AA?9?$AAA?$AAR@ 10024e08     libucrt:lcidtoname_downlevel.obj
 0002:00004e14       ??_C@_1M@OOJFGBHE@?$AAa?$AAr?$AA?9?$AAL?$AAB@ 10024e14     libucrt:lcidtoname_downlevel.obj
 0002:00004e20       ??_C@_1M@GCEJHNEG@?$AAe?$AAn?$AA?9?$AAZ?$AAW@ 10024e20     libucrt:lcidtoname_downlevel.obj
 0002:00004e2c       ??_C@_1M@JNOCAHJI@?$AAe?$AAs?$AA?9?$AAE?$AAC@ 10024e2c     libucrt:lcidtoname_downlevel.obj
 0002:00004e38       ??_C@_1M@JEFHPGGB@?$AAa?$AAr?$AA?9?$AAK?$AAW@ 10024e38     libucrt:lcidtoname_downlevel.obj
 0002:00004e44       ??_C@_1M@MLKIBJOJ@?$AAe?$AAn?$AA?9?$AAP?$AAH@ 10024e44     libucrt:lcidtoname_downlevel.obj
 0002:00004e50       ??_C@_1M@BDNIPEND@?$AAe?$AAs?$AA?9?$AAC?$AAL@ 10024e50     libucrt:lcidtoname_downlevel.obj
 0002:00004e5c       ??_C@_1M@MPNMEKBD@?$AAa?$AAr?$AA?9?$AAA?$AAE@ 10024e5c     libucrt:lcidtoname_downlevel.obj
 0002:00004e68       ??_C@_1M@KBJALCPI@?$AAe?$AAs?$AA?9?$AAU?$AAY@ 10024e68     libucrt:lcidtoname_downlevel.obj
 0002:00004e74       ??_C@_1M@LLCCOAGA@?$AAa?$AAr?$AA?9?$AAB?$AAH@ 10024e74     libucrt:lcidtoname_downlevel.obj
 0002:00004e80       ??_C@_1M@PBFNCDEL@?$AAe?$AAs?$AA?9?$AAP?$AAY@ 10024e80     libucrt:lcidtoname_downlevel.obj
 0002:00004e8c       ??_C@_1M@EDGINPNP@?$AAa?$AAr?$AA?9?$AAQ?$AAA@ 10024e8c     libucrt:lcidtoname_downlevel.obj
 0002:00004e98       ??_C@_1M@MKDBIIJI@?$AAe?$AAs?$AA?9?$AAB?$AAO@ 10024e98     libucrt:lcidtoname_downlevel.obj
 0002:00004ea4       ??_C@_1M@CPKKEBLD@?$AAe?$AAs?$AA?9?$AAS?$AAV@ 10024ea4     libucrt:lcidtoname_downlevel.obj
 0002:00004eb0       ??_C@_1M@NDBGMMJL@?$AAe?$AAs?$AA?9?$AAH?$AAN@ 10024eb0     libucrt:lcidtoname_downlevel.obj
 0002:00004ebc       ??_C@_1M@JIJIBHDP@?$AAe?$AAs?$AA?9?$AAN?$AAI@ 10024ebc     libucrt:lcidtoname_downlevel.obj
 0002:00004ec8       ??_C@_1M@CGFMKEEK@?$AAe?$AAs?$AA?9?$AAP?$AAR@ 10024ec8     libucrt:lcidtoname_downlevel.obj
 0002:00004ed4       ??_C@_1O@ICJHKIIK@?$AAz?$AAh?$AA?9?$AAC?$AAH?$AAT@ 10024ed4     libucrt:lcidtoname_downlevel.obj
 0002:00004ee4       ??_C@_15CLNEJCE@?$AAs?$AAr@ 10024ee4     libucrt:lcidtoname_downlevel.obj
 0002:00005610       ??_C@_1M@KAHEKEIG@?$AAa?$AAf?$AA?9?$AAz?$AAa@ 10025610     libucrt:lcidtoname_downlevel.obj
 0002:0000561c       ??_C@_1M@GIECOABL@?$AAa?$AAr?$AA?9?$AAa?$AAe@ 1002561c     libucrt:lcidtoname_downlevel.obj
 0002:00005628       ??_C@_1M@BMLMEKGI@?$AAa?$AAr?$AA?9?$AAb?$AAh@ 10025628     libucrt:lcidtoname_downlevel.obj
 0002:00005634       ??_C@_1M@DAPFDGGB@?$AAa?$AAr?$AA?9?$AAd?$AAz@ 10025634     libucrt:lcidtoname_downlevel.obj
 0002:00005640       ??_C@_1M@FJNKGKIG@?$AAa?$AAr?$AA?9?$AAe?$AAg@ 10025640     libucrt:lcidtoname_downlevel.obj
 0002:0000564c       ??_C@_1M@FLGKKCLO@?$AAa?$AAr?$AA?9?$AAi?$AAq@ 1002564c     libucrt:lcidtoname_downlevel.obj
 0002:00005658       ??_C@_1M@GNDIPALM@?$AAa?$AAr?$AA?9?$AAj?$AAo@ 10025658     libucrt:lcidtoname_downlevel.obj
 0002:00005664       ??_C@_1M@DDMJFMGJ@?$AAa?$AAr?$AA?9?$AAk?$AAw@ 10025664     libucrt:lcidtoname_downlevel.obj
 0002:00005670       ??_C@_1M@EJALMLHM@?$AAa?$AAr?$AA?9?$AAl?$AAb@ 10025670     libucrt:lcidtoname_downlevel.obj
 0002:0000567c       ??_C@_1M@MOBDBLOC@?$AAa?$AAr?$AA?9?$AAl?$AAy@ 1002567c     libucrt:lcidtoname_downlevel.obj
 0002:00005688       ??_C@_1M@JAOCLHDH@?$AAa?$AAr?$AA?9?$AAm?$AAa@ 10025688     libucrt:lcidtoname_downlevel.obj
 0002:00005694       ??_C@_1M@JHPMKJIE@?$AAa?$AAr?$AA?9?$AAo?$AAm@ 10025694     libucrt:lcidtoname_downlevel.obj
 0002:000056a0       ??_C@_1M@OEPGHFNH@?$AAa?$AAr?$AA?9?$AAq?$AAa@ 100256a0     libucrt:lcidtoname_downlevel.obj
 0002:000056ac       ??_C@_1M@KJDONENM@?$AAa?$AAr?$AA?9?$AAs?$AAa@ 100256ac     libucrt:lcidtoname_downlevel.obj
 0002:000056b8       ??_C@_1M@DMJDKLKM@?$AAa?$AAr?$AA?9?$AAs?$AAy@ 100256b8     libucrt:lcidtoname_downlevel.obj
 0002:000056c4       ??_C@_1M@OMFIPEDC@?$AAa?$AAr?$AA?9?$AAt?$AAn@ 100256c4     libucrt:lcidtoname_downlevel.obj
 0002:000056d0       ??_C@_1M@IHMHGAON@?$AAa?$AAr?$AA?9?$AAy?$AAe@ 100256d0     libucrt:lcidtoname_downlevel.obj
 0002:000056dc       ??_C@_1BG@KDCPGJGB@?$AAa?$AAz?$AA?9?$AAa?$AAz?$AA?9?$AAc?$AAy?$AAr?$AAl@ 100256dc     libucrt:lcidtoname_downlevel.obj
 0002:000056f4       ??_C@_1BG@IBCKDDOE@?$AAa?$AAz?$AA?9?$AAa?$AAz?$AA?9?$AAl?$AAa?$AAt?$AAn@ 100256f4     libucrt:lcidtoname_downlevel.obj
 0002:0000570c       ??_C@_1M@EGPFDCPD@?$AAb?$AAe?$AA?9?$AAb?$AAy@ 1002570c     libucrt:lcidtoname_downlevel.obj
 0002:00005718       ??_C@_1M@PCMGMCGC@?$AAb?$AAg?$AA?9?$AAb?$AAg@ 10025718     libucrt:lcidtoname_downlevel.obj
 0002:00005724       ??_C@_1M@BJBMFGOB@?$AAb?$AAn?$AA?9?$AAi?$AAn@ 10025724     libucrt:lcidtoname_downlevel.obj
 0002:00005730       ??_C@_1BG@EAKMMACD@?$AAb?$AAs?$AA?9?$AAb?$AAa?$AA?9?$AAl?$AAa?$AAt?$AAn@ 10025730     libucrt:lcidtoname_downlevel.obj
 0002:00005748       ??_C@_1M@KGADAODK@?$AAc?$AAa?$AA?9?$AAe?$AAs@ 10025748     libucrt:lcidtoname_downlevel.obj
 0002:00005754       ??_C@_1M@COAJPDHI@?$AAc?$AAs?$AA?9?$AAc?$AAz@ 10025754     libucrt:lcidtoname_downlevel.obj
 0002:00005760       ??_C@_1M@DHBHFONH@?$AAc?$AAy?$AA?9?$AAg?$AAb@ 10025760     libucrt:lcidtoname_downlevel.obj
 0002:0000576c       ??_C@_1M@IMGKELGA@?$AAd?$AAa?$AA?9?$AAd?$AAk@ 1002576c     libucrt:lcidtoname_downlevel.obj
 0002:00005778       ??_C@_1M@NNDGDNGA@?$AAd?$AAe?$AA?9?$AAa?$AAt@ 10025778     libucrt:lcidtoname_downlevel.obj
 0002:00005784       ??_C@_1M@IKDBHEEM@?$AAd?$AAe?$AA?9?$AAc?$AAh@ 10025784     libucrt:lcidtoname_downlevel.obj
 0002:00005790       ??_C@_1M@GFFOJMCJ@?$AAd?$AAe?$AA?9?$AAd?$AAe@ 10025790     libucrt:lcidtoname_downlevel.obj
 0002:0000579c       ??_C@_1M@MDNLKBPM@?$AAd?$AAe?$AA?9?$AAl?$AAi@ 1002579c     libucrt:lcidtoname_downlevel.obj
 0002:000057a8       ??_C@_1M@NJBEEJNL@?$AAd?$AAe?$AA?9?$AAl?$AAu@ 100257a8     libucrt:lcidtoname_downlevel.obj
 0002:000057b4       ??_C@_1O@GNNELBAP@?$AAd?$AAi?$AAv?$AA?9?$AAm?$AAv@ 100257b4     libucrt:lcidtoname_downlevel.obj
 0002:000057c4       ??_C@_1M@EJLEOGAE@?$AAe?$AAl?$AA?9?$AAg?$AAr@ 100257c4     libucrt:lcidtoname_downlevel.obj
 0002:000057d0       ??_C@_1M@GMPONJN@?$AAe?$AAn?$AA?9?$AAa?$AAu@ 100257d0     libucrt:lcidtoname_downlevel.obj
 0002:000057dc       ??_C@_1M@NIDIIPGF@?$AAe?$AAn?$AA?9?$AAb?$AAz@ 100257dc     libucrt:lcidtoname_downlevel.obj
 0002:000057e8       ??_C@_1M@JEHMIMFO@?$AAe?$AAn?$AA?9?$AAc?$AAa@ 100257e8     libucrt:lcidtoname_downlevel.obj
 0002:000057f4       ??_C@_1M@IGMJCDLA@?$AAe?$AAn?$AA?9?$AAc?$AAb@ 100257f4     libucrt:lcidtoname_downlevel.obj
 0002:00005800       ??_C@_1M@BNFIGBKG@?$AAe?$AAn?$AA?9?$AAg?$AAb@ 10025800     libucrt:lcidtoname_downlevel.obj
 0002:0000580c       ??_C@_1M@LKIFDIGP@?$AAe?$AAn?$AA?9?$AAi?$AAe@ 1002580c     libucrt:lcidtoname_downlevel.obj
 0002:00005818       ??_C@_1M@PJKFGCCO@?$AAe?$AAn?$AA?9?$AAj?$AAm@ 10025818     libucrt:lcidtoname_downlevel.obj
 0002:00005824       ??_C@_1M@KPPKEPBO@?$AAe?$AAn?$AA?9?$AAn?$AAz@ 10025824     libucrt:lcidtoname_downlevel.obj
 0002:00005830       ??_C@_1M@GMDGLDOB@?$AAe?$AAn?$AA?9?$AAp?$AAh@ 10025830     libucrt:lcidtoname_downlevel.obj
 0002:0000583c       ??_C@_1M@ONGIBJNA@?$AAe?$AAn?$AA?9?$AAt?$AAt@ 1002583c     libucrt:lcidtoname_downlevel.obj
 0002:00005848       ??_C@_1M@LLODPCMM@?$AAe?$AAn?$AA?9?$AAu?$AAs@ 10025848     libucrt:lcidtoname_downlevel.obj
 0002:00005854       ??_C@_1M@LAKFNPAN@?$AAe?$AAn?$AA?9?$AAz?$AAa@ 10025854     libucrt:lcidtoname_downlevel.obj
 0002:00005860       ??_C@_1M@MFNHNHEO@?$AAe?$AAn?$AA?9?$AAz?$AAw@ 10025860     libucrt:lcidtoname_downlevel.obj
 0002:0000586c       ??_C@_1M@EJEINPHM@?$AAe?$AAs?$AA?9?$AAa?$AAr@ 1002586c     libucrt:lcidtoname_downlevel.obj
 0002:00005878       ??_C@_1M@GNKPCCJA@?$AAe?$AAs?$AA?9?$AAb?$AAo@ 10025878     libucrt:lcidtoname_downlevel.obj
 0002:00005884       ??_C@_1M@LEEGFONL@?$AAe?$AAs?$AA?9?$AAc?$AAl@ 10025884     libucrt:lcidtoname_downlevel.obj
 0002:00005890       ??_C@_1M@KGPDPBDF@?$AAe?$AAs?$AA?9?$AAc?$AAo@ 10025890     libucrt:lcidtoname_downlevel.obj
 0002:0000589c       ??_C@_1M@EIAHOHH@?$AAe?$AAs?$AA?9?$AAc?$AAr@ 1002589c     libucrt:lcidtoname_downlevel.obj
 0002:000058a8       ??_C@_1M@LLPGMBIN@?$AAe?$AAs?$AA?9?$AAd?$AAo@ 100258a8     libucrt:lcidtoname_downlevel.obj
 0002:000058b4       ??_C@_1M@DKHMKNJA@?$AAe?$AAs?$AA?9?$AAe?$AAc@ 100258b4     libucrt:lcidtoname_downlevel.obj
 0002:000058c0       ??_C@_1M@GKGFPKAP@?$AAe?$AAs?$AA?9?$AAe?$AAs@ 100258c0     libucrt:lcidtoname_downlevel.obj
 0002:000058cc       ??_C@_1M@LKHKGDLN@?$AAe?$AAs?$AA?9?$AAg?$AAt@ 100258cc     libucrt:lcidtoname_downlevel.obj
 0002:000058d8       ??_C@_1M@HEIIGGJD@?$AAe?$AAs?$AA?9?$AAh?$AAn@ 100258d8     libucrt:lcidtoname_downlevel.obj
 0002:000058e4       ??_C@_1M@FBDHPPGD@?$AAe?$AAs?$AA?9?$AAm?$AAx@ 100258e4     libucrt:lcidtoname_downlevel.obj
 0002:000058f0       ??_C@_1M@DPAGLNDH@?$AAe?$AAs?$AA?9?$AAn?$AAi@ 100258f0     libucrt:lcidtoname_downlevel.obj
 0002:000058fc       ??_C@_1M@MDGOPGDD@?$AAe?$AAs?$AA?9?$AAp?$AAa@ 100258fc     libucrt:lcidtoname_downlevel.obj
 0002:00005908       ??_C@_1M@EMAMGBGE@?$AAe?$AAs?$AA?9?$AAp?$AAe@ 10025908     libucrt:lcidtoname_downlevel.obj
 0002:00005914       ??_C@_1M@IBMCAOEC@?$AAe?$AAs?$AA?9?$AAp?$AAr@ 10025914     libucrt:lcidtoname_downlevel.obj
 0002:00005920       ??_C@_1M@FGMDIJED@?$AAe?$AAs?$AA?9?$AAp?$AAy@ 10025920     libucrt:lcidtoname_downlevel.obj
 0002:0000592c       ??_C@_1M@IIDEOLLL@?$AAe?$AAs?$AA?9?$AAs?$AAv@ 1002592c     libucrt:lcidtoname_downlevel.obj
 0002:00005938       ??_C@_1M@GAOBIPA@?$AAe?$AAs?$AA?9?$AAu?$AAy@ 10025938     libucrt:lcidtoname_downlevel.obj
 0002:00005944       ??_C@_1M@JKFFICHJ@?$AAe?$AAs?$AA?9?$AAv?$AAe@ 10025944     libucrt:lcidtoname_downlevel.obj
 0002:00005950       ??_C@_1M@PNMLOJDF@?$AAe?$AAt?$AA?9?$AAe?$AAe@ 10025950     libucrt:lcidtoname_downlevel.obj
 0002:0000595c       ??_C@_1M@GHHLIKEI@?$AAe?$AAu?$AA?9?$AAe?$AAs@ 1002595c     libucrt:lcidtoname_downlevel.obj
 0002:00005968       ??_C@_1M@PBNONODE@?$AAf?$AAa?$AA?9?$AAi?$AAr@ 10025968     libucrt:lcidtoname_downlevel.obj
 0002:00005974       ??_C@_1M@JEEHPMIL@?$AAf?$AAi?$AA?9?$AAf?$AAi@ 10025974     libucrt:lcidtoname_downlevel.obj
 0002:00005980       ??_C@_1M@LMDCNDBA@?$AAf?$AAo?$AA?9?$AAf?$AAo@ 10025980     libucrt:lcidtoname_downlevel.obj
 0002:0000598c       ??_C@_1M@JKEOHLDK@?$AAf?$AAr?$AA?9?$AAb?$AAe@ 1002598c     libucrt:lcidtoname_downlevel.obj
 0002:00005998       ??_C@_1M@NOHADPMI@?$AAf?$AAr?$AA?9?$AAc?$AAa@ 10025998     libucrt:lcidtoname_downlevel.obj
 0002:000059a4       ??_C@_1M@KDHIHAEC@?$AAf?$AAr?$AA?9?$AAc?$AAh@ 100259a4     libucrt:lcidtoname_downlevel.obj
 0002:000059b0       ??_C@_1M@MMBBFGAK@?$AAf?$AAr?$AA?9?$AAf?$AAr@ 100259b0     libucrt:lcidtoname_downlevel.obj
 0002:000059bc       ??_C@_1M@PAFNENNF@?$AAf?$AAr?$AA?9?$AAl?$AAu@ 100259bc     libucrt:lcidtoname_downlevel.obj
 0002:000059c8       ??_C@_1M@EOHDJGDD@?$AAf?$AAr?$AA?9?$AAm?$AAc@ 100259c8     libucrt:lcidtoname_downlevel.obj
 0002:000059d4       ??_C@_1M@FAPLLOPF@?$AAg?$AAl?$AA?9?$AAe?$AAs@ 100259d4     libucrt:lcidtoname_downlevel.obj
 0002:000059e0       ??_C@_1M@FOPBFLOO@?$AAg?$AAu?$AA?9?$AAi?$AAn@ 100259e0     libucrt:lcidtoname_downlevel.obj
 0002:000059ec       ??_C@_1M@KBMCINPM@?$AAh?$AAe?$AA?9?$AAi?$AAl@ 100259ec     libucrt:lcidtoname_downlevel.obj
 0002:000059f8       ??_C@_1M@BBPHKFPJ@?$AAh?$AAi?$AA?9?$AAi?$AAn@ 100259f8     libucrt:lcidtoname_downlevel.obj
 0002:00005a04       ??_C@_1M@PMBNDPHD@?$AAh?$AAr?$AA?9?$AAb?$AAa@ 10025a04     libucrt:lcidtoname_downlevel.obj
 0002:00005a10       ??_C@_1M@BPCKOEGE@?$AAh?$AAr?$AA?9?$AAh?$AAr@ 10025a10     libucrt:lcidtoname_downlevel.obj
 0002:00005a1c       ??_C@_1M@GACBMHKE@?$AAh?$AAu?$AA?9?$AAh?$AAu@ 10025a1c     libucrt:lcidtoname_downlevel.obj
 0002:00005a28       ??_C@_1M@MILPAJJC@?$AAh?$AAy?$AA?9?$AAa?$AAm@ 10025a28     libucrt:lcidtoname_downlevel.obj
 0002:00005a34       ??_C@_1M@BABBICEC@?$AAi?$AAd?$AA?9?$AAi?$AAd@ 10025a34     libucrt:lcidtoname_downlevel.obj
 0002:00005a40       ??_C@_1M@BIKNHHPF@?$AAi?$AAs?$AA?9?$AAi?$AAs@ 10025a40     libucrt:lcidtoname_downlevel.obj
 0002:00005a4c       ??_C@_1M@NMPCJPHE@?$AAi?$AAt?$AA?9?$AAc?$AAh@ 10025a4c     libucrt:lcidtoname_downlevel.obj
 0002:00005a58       ??_C@_1M@GHKGFEDF@?$AAi?$AAt?$AA?9?$AAi?$AAt@ 10025a58     libucrt:lcidtoname_downlevel.obj
 0002:00005a64       ??_C@_1M@NIEJCJJA@?$AAj?$AAa?$AA?9?$AAj?$AAp@ 10025a64     libucrt:lcidtoname_downlevel.obj
 0002:00005a70       ??_C@_1M@JILFNBIM@?$AAk?$AAa?$AA?9?$AAg?$AAe@ 10025a70     libucrt:lcidtoname_downlevel.obj
 0002:00005a7c       ??_C@_1M@PACPMGPH@?$AAk?$AAk?$AA?9?$AAk?$AAz@ 10025a7c     libucrt:lcidtoname_downlevel.obj
 0002:00005a88       ??_C@_1M@IELFGMHA@?$AAk?$AAn?$AA?9?$AAi?$AAn@ 10025a88     libucrt:lcidtoname_downlevel.obj
 0002:00005a94       ??_C@_1O@IBBJHCH@?$AAk?$AAo?$AAk?$AA?9?$AAi?$AAn@ 10025a94     libucrt:lcidtoname_downlevel.obj
 0002:00005aa4       ??_C@_1M@DMHAEOGC@?$AAk?$AAo?$AA?9?$AAk?$AAr@ 10025aa4     libucrt:lcidtoname_downlevel.obj
 0002:00005ab0       ??_C@_1M@HBAHBIGA@?$AAk?$AAy?$AA?9?$AAk?$AAg@ 10025ab0     libucrt:lcidtoname_downlevel.obj
 0002:00005abc       ??_C@_1M@KPMILCJG@?$AAl?$AAt?$AA?9?$AAl?$AAt@ 10025abc     libucrt:lcidtoname_downlevel.obj
 0002:00005ac8       ??_C@_1M@BDEKKCA@?$AAl?$AAv?$AA?9?$AAl?$AAv@ 10025ac8     libucrt:lcidtoname_downlevel.obj
 0002:00005ad4       ??_C@_1M@ELCKCCJJ@?$AAm?$AAi?$AA?9?$AAn?$AAz@ 10025ad4     libucrt:lcidtoname_downlevel.obj
 0002:00005ae0       ??_C@_1M@CBOOLAPA@?$AAm?$AAk?$AA?9?$AAm?$AAk@ 10025ae0     libucrt:lcidtoname_downlevel.obj
 0002:00005aec       ??_C@_1M@GPHNBJKN@?$AAm?$AAl?$AA?9?$AAi?$AAn@ 10025aec     libucrt:lcidtoname_downlevel.obj
 0002:00005af8       ??_C@_1M@PABJILIG@?$AAm?$AAn?$AA?9?$AAm?$AAn@ 10025af8     libucrt:lcidtoname_downlevel.obj
 0002:00005b04       ??_C@_1M@FGBKKIPG@?$AAm?$AAr?$AA?9?$AAi?$AAn@ 10025b04     libucrt:lcidtoname_downlevel.obj
 0002:00005b10       ??_C@_1M@NDBPDDAL@?$AAm?$AAs?$AA?9?$AAb?$AAn@ 10025b10     libucrt:lcidtoname_downlevel.obj
 0002:00005b1c       ??_C@_1M@OPIHOOPI@?$AAm?$AAs?$AA?9?$AAm?$AAy@ 10025b1c     libucrt:lcidtoname_downlevel.obj
 0002:00005b28       ??_C@_1M@PPDBCNFM@?$AAm?$AAt?$AA?9?$AAm?$AAt@ 10025b28     libucrt:lcidtoname_downlevel.obj
 0002:00005b34       ??_C@_1M@KDJDKMDD@?$AAn?$AAb?$AA?9?$AAn?$AAo@ 10025b34     libucrt:lcidtoname_downlevel.obj
 0002:00005b40       ??_C@_1M@KFCFLMJP@?$AAn?$AAl?$AA?9?$AAb?$AAe@ 10025b40     libucrt:lcidtoname_downlevel.obj
 0002:00005b4c       ??_C@_1M@KPOPDDGO@?$AAn?$AAl?$AA?9?$AAn?$AAl@ 10025b4c     libucrt:lcidtoname_downlevel.obj
 0002:00005b58       ??_C@_1M@LJKPEMLN@?$AAn?$AAn?$AA?9?$AAn?$AAo@ 10025b58     libucrt:lcidtoname_downlevel.obj
 0002:00005b64       ??_C@_1M@BDGHHBFL@?$AAn?$AAs?$AA?9?$AAz?$AAa@ 10025b64     libucrt:lcidtoname_downlevel.obj
 0002:00005b70       ??_C@_1M@IDEHOAP@?$AAp?$AAa?$AA?9?$AAi?$AAn@ 10025b70     libucrt:lcidtoname_downlevel.obj
 0002:00005b7c       ??_C@_1M@HDBKGOGH@?$AAp?$AAl?$AA?9?$AAp?$AAl@ 10025b7c     libucrt:lcidtoname_downlevel.obj
 0002:00005b88       ??_C@_1M@LJLLCMEH@?$AAp?$AAt?$AA?9?$AAb?$AAr@ 10025b88     libucrt:lcidtoname_downlevel.obj
 0002:00005b94       ??_C@_1M@NCMONAAL@?$AAp?$AAt?$AA?9?$AAp?$AAt@ 10025b94     libucrt:lcidtoname_downlevel.obj
 0002:00005ba0       ??_C@_1O@EAKMAJDN@?$AAq?$AAu?$AAz?$AA?9?$AAb?$AAo@ 10025ba0     libucrt:lcidtoname_downlevel.obj
 0002:00005bb0       ??_C@_1O@BHHPIGDN@?$AAq?$AAu?$AAz?$AA?9?$AAe?$AAc@ 10025bb0     libucrt:lcidtoname_downlevel.obj
 0002:00005bc0       ??_C@_1O@GBAPEKMJ@?$AAq?$AAu?$AAz?$AA?9?$AAp?$AAe@ 10025bc0     libucrt:lcidtoname_downlevel.obj
 0002:00005bd0       ??_C@_1M@CLGLEFBO@?$AAr?$AAo?$AA?9?$AAr?$AAo@ 10025bd0     libucrt:lcidtoname_downlevel.obj
 0002:00005bdc       ??_C@_1M@CEEDODME@?$AAr?$AAu?$AA?9?$AAr?$AAu@ 10025bdc     libucrt:lcidtoname_downlevel.obj
 0002:00005be8       ??_C@_1M@HPKKKMPP@?$AAs?$AAa?$AA?9?$AAi?$AAn@ 10025be8     libucrt:lcidtoname_downlevel.obj
 0002:00005bf4       ??_C@_1M@BKMAIGOJ@?$AAs?$AAe?$AA?9?$AAf?$AAi@ 10025bf4     libucrt:lcidtoname_downlevel.obj
 0002:00005c00       ??_C@_1M@NDPIFLFI@?$AAs?$AAe?$AA?9?$AAn?$AAo@ 10025c00     libucrt:lcidtoname_downlevel.obj
 0002:00005c0c       ??_C@_1M@DANKKHJ@?$AAs?$AAe?$AA?9?$AAs?$AAe@ 10025c0c     libucrt:lcidtoname_downlevel.obj
 0002:00005c18       ??_C@_1M@PNBLONPJ@?$AAs?$AAk?$AA?9?$AAs?$AAk@ 10025c18     libucrt:lcidtoname_downlevel.obj
 0002:00005c24       ??_C@_1M@LFMODOAL@?$AAs?$AAl?$AA?9?$AAs?$AAi@ 10025c24     libucrt:lcidtoname_downlevel.obj
 0002:00005c30       ??_C@_1O@DFKOMPG@?$AAs?$AAm?$AAa?$AA?9?$AAn?$AAo@ 10025c30     libucrt:lcidtoname_downlevel.obj
 0002:00005c40       ??_C@_1O@NDKPBNNH@?$AAs?$AAm?$AAa?$AA?9?$AAs?$AAe@ 10025c40     libucrt:lcidtoname_downlevel.obj
 0002:00005c50       ??_C@_1O@PLLKBHAB@?$AAs?$AAm?$AAj?$AA?9?$AAn?$AAo@ 10025c50     libucrt:lcidtoname_downlevel.obj
 0002:00005c60       ??_C@_1O@CLEPOGCA@?$AAs?$AAm?$AAj?$AA?9?$AAs?$AAe@ 10025c60     libucrt:lcidtoname_downlevel.obj
 0002:00005c70       ??_C@_1O@DLGJGKMK@?$AAs?$AAm?$AAn?$AA?9?$AAf?$AAi@ 10025c70     libucrt:lcidtoname_downlevel.obj
 0002:00005c80       ??_C@_1O@OJDJGAJC@?$AAs?$AAm?$AAs?$AA?9?$AAf?$AAi@ 10025c80     libucrt:lcidtoname_downlevel.obj
 0002:00005c90       ??_C@_1M@BOFOGHPB@?$AAs?$AAq?$AA?9?$AAa?$AAl@ 10025c90     libucrt:lcidtoname_downlevel.obj
 0002:00005c9c       ??_C@_1BG@LJBBIPGB@?$AAs?$AAr?$AA?9?$AAb?$AAa?$AA?9?$AAc?$AAy?$AAr?$AAl@ 10025c9c     libucrt:lcidtoname_downlevel.obj
 0002:00005cb4       ??_C@_1BG@JLBENFOE@?$AAs?$AAr?$AA?9?$AAb?$AAa?$AA?9?$AAl?$AAa?$AAt?$AAn@ 10025cb4     libucrt:lcidtoname_downlevel.obj
 0002:00005ccc       ??_C@_1BG@KODPNHE@?$AAs?$AAr?$AA?9?$AAs?$AAp?$AA?9?$AAc?$AAy?$AAr?$AAl@ 10025ccc     libucrt:lcidtoname_downlevel.obj
 0002:00005ce4       ??_C@_1BG@CIOGKHPB@?$AAs?$AAr?$AA?9?$AAs?$AAp?$AA?9?$AAl?$AAa?$AAt?$AAn@ 10025ce4     libucrt:lcidtoname_downlevel.obj
 0002:00005cfc       ??_C@_1M@NGFJLMAC@?$AAs?$AAv?$AA?9?$AAf?$AAi@ 10025cfc     libucrt:lcidtoname_downlevel.obj
 0002:00005d08       ??_C@_1M@MPJEJAJC@?$AAs?$AAv?$AA?9?$AAs?$AAe@ 10025d08     libucrt:lcidtoname_downlevel.obj
 0002:00005d14       ??_C@_1M@MPNDHLFK@?$AAs?$AAw?$AA?9?$AAk?$AAe@ 10025d14     libucrt:lcidtoname_downlevel.obj
 0002:00005d20       ??_C@_1O@KOHBJJI@?$AAs?$AAy?$AAr?$AA?9?$AAs?$AAy@ 10025d20     libucrt:lcidtoname_downlevel.obj
 0002:00005d30       ??_C@_1M@LDCEFHA@?$AAt?$AAa?$AA?9?$AAi?$AAn@ 10025d30     libucrt:lcidtoname_downlevel.obj
 0002:00005d3c       ??_C@_1M@CNJOFAK@?$AAt?$AAe?$AA?9?$AAi?$AAn@ 10025d3c     libucrt:lcidtoname_downlevel.obj
 0002:00005d48       ??_C@_1M@GNAECACD@?$AAt?$AAh?$AA?9?$AAt?$AAh@ 10025d48     libucrt:lcidtoname_downlevel.obj
 0002:00005d54       ??_C@_1M@CHBIHOJO@?$AAt?$AAn?$AA?9?$AAz?$AAa@ 10025d54     libucrt:lcidtoname_downlevel.obj
 0002:00005d60       ??_C@_1M@GCCMIGPJ@?$AAt?$AAr?$AA?9?$AAt?$AAr@ 10025d60     libucrt:lcidtoname_downlevel.obj
 0002:00005d6c       ??_C@_1M@CELMCNBK@?$AAt?$AAt?$AA?9?$AAr?$AAu@ 10025d6c     libucrt:lcidtoname_downlevel.obj
 0002:00005d78       ??_C@_1M@KLMCELGA@?$AAu?$AAk?$AA?9?$AAu?$AAa@ 10025d78     libucrt:lcidtoname_downlevel.obj
 0002:00005d84       ??_C@_1M@EPAJJAJF@?$AAu?$AAr?$AA?9?$AAp?$AAk@ 10025d84     libucrt:lcidtoname_downlevel.obj
 0002:00005d90       ??_C@_1BG@GEGPMCDJ@?$AAu?$AAz?$AA?9?$AAu?$AAz?$AA?9?$AAc?$AAy?$AAr?$AAl@ 10025d90     libucrt:lcidtoname_downlevel.obj
 0002:00005da8       ??_C@_1BG@EGGKJILM@?$AAu?$AAz?$AA?9?$AAu?$AAz?$AA?9?$AAl?$AAa?$AAt?$AAn@ 10025da8     libucrt:lcidtoname_downlevel.obj
 0002:00005dc0       ??_C@_1M@GFOCLFF@?$AAv?$AAi?$AA?9?$AAv?$AAn@ 10025dc0     libucrt:lcidtoname_downlevel.obj
 0002:00005dcc       ??_C@_1M@CPAMEDFI@?$AAx?$AAh?$AA?9?$AAz?$AAa@ 10025dcc     libucrt:lcidtoname_downlevel.obj
 0002:00005dd8       ??_C@_1O@EBKIFIGN@?$AAz?$AAh?$AA?9?$AAc?$AAh?$AAs@ 10025dd8     libucrt:lcidtoname_downlevel.obj
 0002:00005de8       ??_C@_1O@NMHPGANE@?$AAz?$AAh?$AA?9?$AAc?$AAh?$AAt@ 10025de8     libucrt:lcidtoname_downlevel.obj
 0002:00005df8       ??_C@_1M@LPINJOMC@?$AAz?$AAh?$AA?9?$AAc?$AAn@ 10025df8     libucrt:lcidtoname_downlevel.obj
 0002:00005e04       ??_C@_1M@OCJEJODD@?$AAz?$AAh?$AA?9?$AAh?$AAk@ 10025e04     libucrt:lcidtoname_downlevel.obj
 0002:00005e10       ??_C@_1M@DNDLJINH@?$AAz?$AAh?$AA?9?$AAm?$AAo@ 10025e10     libucrt:lcidtoname_downlevel.obj
 0002:00005e1c       ??_C@_1M@MBFDNDND@?$AAz?$AAh?$AA?9?$AAs?$AAg@ 10025e1c     libucrt:lcidtoname_downlevel.obj
 0002:00005e28       ??_C@_1M@IMEPLEPE@?$AAz?$AAh?$AA?9?$AAt?$AAw@ 10025e28     libucrt:lcidtoname_downlevel.obj
 0002:00005e34       ??_C@_1M@BBGHNHJP@?$AAz?$AAu?$AA?9?$AAz?$AAa@ 10025e34     libucrt:lcidtoname_downlevel.obj
 0002:00005e40       ?large_power_data@?1??multiply_by_power_of_ten@__crt_strtox@@YA_NAAUbig_integer@2@I@Z@4QBIB 10025e40     libucrt:cfout.obj
 0002:00006748       ?large_power_indices@?1??multiply_by_power_of_ten@__crt_strtox@@YA_NAAUbig_integer@2@I@Z@4QBUunpack_index@?1??12@YA_N0I@Z@B 10026748     libucrt:cfout.obj
 0002:000067e0       ?small_powers_of_ten@?1??multiply_by_power_of_ten@__crt_strtox@@YA_NAAUbig_integer@2@I@Z@4QBIB 100267e0     libucrt:cfout.obj
 0002:00006804       ??_C@_01GBGANLPD@0@        10026804     libucrt:cfout.obj
 0002:00006808       ??_C@_05DNEBIAHO@1?$CDINF@ 10026808     libucrt:cfout.obj
 0002:00006810       ??_C@_06IMKFLFPG@1?$CDQNAN@ 10026810     libucrt:cfout.obj
 0002:00006818       ??_C@_06PGGFOGJG@1?$CDSNAN@ 10026818     libucrt:cfout.obj
 0002:00006820       ??_C@_05PHHOCPM@1?$CDIND@  10026820     libucrt:cfout.obj
 0002:00006990       __infinity                 10026990     libucrt:87tran.obj
 0002:0000699a       __minfinity                1002699a     libucrt:87tran.obj
 0002:000069a4       __logemax                  100269a4     libucrt:87tran.obj
 0002:000069ca       __OP_EXPjmptab             100269ca     libucrt:87tran.obj
 0002:000069f0       __indefinite               100269f0     libucrt:87disp.obj
 0002:000069fa       __piby2                    100269fa     libucrt:87disp.obj
 0002:00006a04       __piby4                    10026a04     libucrt:87disp.obj
 0002:00006a38       __DEFAULT_CW_in_mem        10026a38     libucrt:common.obj
 0002:00006a3a       __pi_by_2_to_61            10026a3a     libucrt:common.obj
 0002:00006a74       ??_C@_03MGHMBJCF@log@      10026a74     libucrt:libm_error.obj
 0002:00006a78       ??_C@_05HGHHAHAP@log10@    10026a78     libucrt:libm_error.obj
 0002:00006a80       ??_C@_03KHJOGHMM@exp@      10026a80     libucrt:libm_error.obj
 0002:00006a84       ??_C@_03JGHBODFD@pow@      10026a84     libucrt:libm_error.obj
 0002:00006a88       ??_C@_04FIHNOPOL@asin@     10026a88     libucrt:libm_error.obj
 0002:00006a90       ??_C@_04PDIFKINK@acos@     10026a90     libucrt:libm_error.obj
 0002:00006a98       ??_C@_04EIAKFFMI@sqrt@     10026a98     libucrt:libm_error.obj
 0002:00006aa0       __real@3ff0000000000000    10026aa0     libucrt:libm_error.obj
 0002:00006aa8       ??_C@_1BA@BALFACEM@?$AAC?$AAO?$AAN?$AAO?$AAU?$AAT?$AA$@ 10026aa8     libucrt:initcon.obj
 0002:00006ad0       ___acrt_log10_table_t      10026ad0     libucrt:log10_tables.obj
 0002:00006ee0       ___acrt_log10_table_cb     10026ee0     libucrt:log10_tables.obj
 0002:000072f0       __real@3fe0000000000000    100272f0     libucrt:powhlp.obj
 0002:000073e0       ??_C@_04COOMCNPB@sinh@     100273e0     libucrt:fpexcept.obj
 0002:000073e8       ??_C@_04HPJJNFIM@cosh@     100273e8     libucrt:fpexcept.obj
 0002:000073f0       ??_C@_04FJHINJAO@tanh@     100273f0     libucrt:fpexcept.obj
 0002:000073f8       ??_C@_04MLLJIGOK@atan@     100273f8     libucrt:fpexcept.obj
 0002:00007400       ??_C@_05KNGEOGJB@atan2@    10027400     libucrt:fpexcept.obj
 0002:00007408       ??_C@_03BLEJJJBH@sin@      10027408     libucrt:fpexcept.obj
 0002:0000740c       ??_C@_03LALBNOCG@cos@      1002740c     libucrt:fpexcept.obj
 0002:00007410       ??_C@_03IIINPABG@tan@      10027410     libucrt:fpexcept.obj
 0002:00007414       ??_C@_04GFPJNGEK@ceil@     10027414     libucrt:fpexcept.obj
 0002:0000741c       ??_C@_05PBJFFIGL@floor@    1002741c     libucrt:fpexcept.obj
 0002:00007424       ??_C@_04ODHECPBC@fabs@     10027424     libucrt:fpexcept.obj
 0002:0000742c       ??_C@_04EHEDPDJG@modf@     1002742c     libucrt:fpexcept.obj
 0002:00007434       ??_C@_05CEJMAHNP@ldexp@    10027434     libucrt:fpexcept.obj
 0002:0000743c       ??_C@_05KBKMEMPO@_cabs@    1002743c     libucrt:fpexcept.obj
 0002:00007444       ??_C@_06MEIMCGCF@_hypot@   10027444     libucrt:fpexcept.obj
 0002:0000744c       ??_C@_04KEPJIHGP@fmod@     1002744c     libucrt:fpexcept.obj
 0002:00007454       ??_C@_05GKKHEGJL@frexp@    10027454     libucrt:fpexcept.obj
 0002:0000745c       ??_C@_03MJLDFKDL@_y0@      1002745c     libucrt:fpexcept.obj
 0002:00007460       ??_C@_03NAKIGLHK@_y1@      10027460     libucrt:fpexcept.obj
 0002:00007464       ??_C@_03ONILCKOB@_yn@      10027464     libucrt:fpexcept.obj
 0002:00007468       ??_C@_05JGDBENOH@_logb@    10027468     libucrt:fpexcept.obj
 0002:00007470       ??_C@_0L@KDOEJCKC@_nextafter@ 10027470     libucrt:fpexcept.obj
 0002:00007480       __d_inf                    10027480     libucrt:util.obj
 0002:00007488       __d_max                    10027488     libucrt:util.obj
 0002:00007490       __d_mzero                  10027490     libucrt:util.obj
 0002:00007500       __load_config_used         10027500     LIBCMT:loadcfg.obj
 0002:000075c0       __tls_used                 100275c0     LIBCMT:tlssup.obj
 0002:000075d8       ??_R4exception@std@@6B@    100275d8     LIBCMT:throw_bad_alloc.obj
 0002:000075ec       ??_R3exception@std@@8      100275ec     LIBCMT:throw_bad_alloc.obj
 0002:000075fc       ??_R2exception@std@@8      100275fc     LIBCMT:throw_bad_alloc.obj
 0002:00007604       ??_R1A@?0A@EA@exception@std@@8 10027604     LIBCMT:throw_bad_alloc.obj
 0002:00007620       ??_R4bad_alloc@std@@6B@    10027620     LIBCMT:throw_bad_alloc.obj
 0002:00007634       ??_R3bad_alloc@std@@8      10027634     LIBCMT:throw_bad_alloc.obj
 0002:00007644       ??_R2bad_alloc@std@@8      10027644     LIBCMT:throw_bad_alloc.obj
 0002:00007650       ??_R1A@?0A@EA@bad_alloc@std@@8 10027650     LIBCMT:throw_bad_alloc.obj
 0002:0000766c       ??_R4bad_array_new_length@std@@6B@ 1002766c     LIBCMT:throw_bad_alloc.obj
 0002:00007680       ??_R3bad_array_new_length@std@@8 10027680     LIBCMT:throw_bad_alloc.obj
 0002:00007690       ??_R2bad_array_new_length@std@@8 10027690     LIBCMT:throw_bad_alloc.obj
 0002:000076a0       ??_R1A@?0A@EA@bad_array_new_length@std@@8 100276a0     LIBCMT:throw_bad_alloc.obj
 0002:000076bc       ??_R4type_info@@6B@        100276bc     LIBCMT:std_type_info_static.obj
 0002:000076d0       ??_R3type_info@@8          100276d0     LIBCMT:std_type_info_static.obj
 0002:000076e0       ??_R2type_info@@8          100276e0     LIBCMT:std_type_info_static.obj
 0002:000076e8       ??_R1A@?0A@EA@type_info@@8 100276e8     LIBCMT:std_type_info_static.obj
 0002:00007704       ??_R4bad_exception@std@@6B@ 10027704     libvcruntime:frame.obj
 0002:00007718       ??_R3bad_exception@std@@8  10027718     libvcruntime:frame.obj
 0002:00007728       ??_R2bad_exception@std@@8  10027728     libvcruntime:frame.obj
 0002:00007734       ??_R1A@?0A@EA@bad_exception@std@@8 10027734     libvcruntime:frame.obj
 0002:00007750       ___safe_se_handler_table   10027750     <linker-defined>
 0002:00007b48       ___rtc_iaa                 10027b48     LIBCMT:initsect.obj
 0002:00007b4c       ___rtc_izz                 10027b4c     LIBCMT:initsect.obj
 0002:00007b50       ___rtc_taa                 10027b50     LIBCMT:initsect.obj
 0002:00007b54       ___rtc_tzz                 10027b54     LIBCMT:initsect.obj
 0002:00007b58       __tls_start                10027b58     LIBCMT:tlssup.obj
 0002:00007b5c       __Init_thread_epoch        10027b5c     LIBCMT:thread_safe_statics.obj
 0002:00007b60       __tls_end                  10027b60     LIBCMT:tlssup.obj
 0002:00007c64       __TI2?AVbad_alloc@std@@    10027c64     LIBCMT:throw_bad_alloc.obj
 0002:00007c74       __CTA2?AVbad_alloc@std@@   10027c74     LIBCMT:throw_bad_alloc.obj
 0002:00007c80       __CT??_R0?AVbad_alloc@std@@@8??0bad_alloc@std@@QAE@ABV01@@Z12 10027c80     LIBCMT:throw_bad_alloc.obj
 0002:00007c9c       __CT??_R0?AVexception@std@@@8??0exception@std@@QAE@ABV01@@Z12 10027c9c     LIBCMT:throw_bad_alloc.obj
 0002:00007cb8       __TI3?AVbad_array_new_length@std@@ 10027cb8     LIBCMT:throw_bad_alloc.obj
 0002:00007cc8       __CTA3?AVbad_array_new_length@std@@ 10027cc8     LIBCMT:throw_bad_alloc.obj
 0002:00007cd8       __CT??_R0?AVbad_array_new_length@std@@@8??0bad_array_new_length@std@@QAE@ABV01@@Z12 10027cd8     LIBCMT:throw_bad_alloc.obj
 0002:00007dfc       __TI2?AVbad_exception@std@@ 10027dfc     libvcruntime:frame.obj
 0002:00007e0c       __CTA2?AVbad_exception@std@@ 10027e0c     libvcruntime:frame.obj
 0002:00007e18       __CT??_R0?AVbad_exception@std@@@8??0bad_exception@std@@QAE@ABV01@@Z12 10027e18     libvcruntime:frame.obj
 0002:00008194       ___pobjMapEntryFirst       10028194     OposVariant.obj
 0002:00008198       ___pobjMapEntryLast        10028198     OposVariant.obj
 0002:00008248       __IMPORT_DESCRIPTOR_KERNEL32 10028248     kernel32:KERNEL32.dll
 0002:0000825c       __IMPORT_DESCRIPTOR_USER32 1002825c     user32:USER32.dll
 0002:00008270       __IMPORT_DESCRIPTOR_GDI32  10028270     gdi32:GDI32.dll
 0002:00008284       __IMPORT_DESCRIPTOR_ADVAPI32 10028284     advapi32:ADVAPI32.dll
 0002:00008298       __IMPORT_DESCRIPTOR_ole32  10028298     ole32:ole32.dll
 0002:000082ac       __IMPORT_DESCRIPTOR_OLEAUT32 100282ac     oleaut32:OLEAUT32.dll
 0002:000082c0       __NULL_IMPORT_DESCRIPTOR   100282c0     kernel32:KERNEL32.dll
 0003:00000000       ?s_Claim@?7??GetIDsOfNames@CComTypeInfoHolder@ATL@@QAEJABU_GUID@@PAPA_WIKPAJ@Z@4PA_WA 1002a000     Scanner.obj
 0003:00000018       ?s_Release@?7??GetIDsOfNames@CComTypeInfoHolder@ATL@@QAEJABU_GUID@@PAPA_WIKPAJ@Z@4PA_WA 1002a018     Scanner.obj
 0003:00000034       ?_tih@?$IDispatchImpl@UIOPOSScanner@@$1?IID_IOPOSScanner@@3U_GUID@@B$1?LIBID_OposScanner_CCO@@3U3@B$00$0A@VCComTypeInfoHolder@ATL@@@ATL@@1VCComTypeInfoHolder@2@A 1002a034     Scanner.obj
 0003:00000050       ?_tih@?$IProvideClassInfo2Impl@$1?CLSID_OPOSScanner@@3U_GUID@@B$1?DIID__IOPOSScannerEvents@@3U2@B$1?LIBID_OposScanner_CCO@@3U2@B$00$0A@VCComTypeInfoHolder@ATL@@@ATL@@1VCComTypeInfoHolder@2@A 1002a050     Scanner.obj
 0003:0000006c       ?vszContents@?6??Save@?$IPersistStorageImpl@VCOPOSScanner@@@ATL@@UAGJPAUIStorage@@H@Z@4PB_WB 1002a06c     Scanner.obj
 0003:00000070       ?wc@?1??GetWndClassInfo@?$CWindowImpl@VCOPOSScanner@@VCWindow@ATL@@V?$CWinTraits@$0FGAAAAAA@$0A@@3@@ATL@@SAAAU_ATL_WNDCLASSINFOW@3@XZ@4U43@A 1002a070     Scanner.obj
 0003:000000fc       ?rcDefault@CWindow@ATL@@2UtagRECT@@A 1002a0fc     Scanner.obj
 0003:00000158       ?g_WindowName@@3PA_WA      1002a158     ScannerImpl.obj
 0003:00000178       ?g_ControlDescription@@3PADA 1002a178     ScannerImpl.obj
 0003:000001c0       ?g_ControlVersion@@3JA     1002a1c0     ScannerImpl.obj
 0003:0000023c       ___scrt_native_dllmain_reason 1002a23c     LIBCMT:utility.obj
 0003:00000240       __Init_global_epoch        1002a240     LIBCMT:thread_safe_statics.obj
 0003:00000250       ___security_cookie_complement 1002a250     LIBCMT:gs_cookie.obj
 0003:00000254       ___security_cookie         1002a254     LIBCMT:gs_cookie.obj
 0003:00000258       ___isa_enabled             1002a258     LIBCMT:cpu_disp.obj
 0003:00000270       __NLG_Destination          1002a270     libvcruntime:exsup.obj
 0003:00000288       ___abort_behavior          1002a288     libucrt:abort.obj
 0003:00000298       __iob                      1002a298     libucrt:_file.obj
 0003:00000340       ___acrt_initial_locale_data 1002a340     libucrt:nlsdata.obj
 0003:000003f8       ___acrt_initial_locale_pointers 1002a3f8     libucrt:nlsdata.obj
 0003:00000400       ___acrt_wide_c_locale_string 1002a400     libucrt:nlsdata.obj
 0003:00000408       ___acrt_initial_multibyte_data 1002a408     libucrt:mbctype.obj
 0003:00000928       __pwctype                  1002a928     libucrt:ctype.obj
 0003:0000092c       ___globallocalestatus      1002a92c     libucrt:glstatus.obj
 0003:00000930       ___acrt_lconv_c            1002a930     libucrt:localeconv.obj
 0003:00000980       ___acrt_lconv_static_decimal 1002a980     libucrt:localeconv.obj
 0003:00000984       ___acrt_lconv_static_W_decimal 1002a984     libucrt:localeconv.obj
 0003:00000990       __lookuptrailbytes         1002a990     libucrt:read.obj
 0003:00000aa0       __fltused                  1002aaa0     LIBCMT:fltused.obj
 0003:00000ab0       ??_R0?AVbad_alloc@std@@@8  1002aab0     LIBCMT:throw_bad_alloc.obj
 0003:00000acc       ??_R0?AVexception@std@@@8  1002aacc     LIBCMT:throw_bad_alloc.obj
 0003:00000ae8       ??_R0?AVbad_array_new_length@std@@@8 1002aae8     LIBCMT:throw_bad_alloc.obj
 0003:00000b10       ??_R0?AVtype_info@@@8      1002ab10     LIBCMT:std_type_info_static.obj
 0003:00000b28       ??_R0?AVbad_exception@std@@@8 1002ab28     libvcruntime:frame.obj
 0003:00000b48       ?m_bInitFailed@CAtlBaseModule@ATL@@2_NA 1002ab48     OposVariant.obj
 0003:00000b4c       ?_pPerfRegFunc@ATL@@3P6AJPAUHINSTANCE__@@@ZA 1002ab4c     OposVariant.obj
 0003:00000b50       ?_pPerfUnRegFunc@ATL@@3P6AJXZA 1002ab50     OposVariant.obj
 0003:00000b54       ?_AtlRegisterPerUser@ATL@@3_NA 1002ab54     OposVariant.obj
 0003:00000b58       ?_pAtlModule@ATL@@3PAVCAtlModule@1@A 1002ab58     OposVariant.obj
 0003:00000b5c       ?_pModule@ATL@@3PAVCComModule@1@A 1002ab5c     OposVariant.obj
 0003:00000b60       ?_AtlComModule@ATL@@3VCAtlComModule@1@A 1002ab60     OposVariant.obj
 0003:00000b88       ?_AtlWinModule@ATL@@3VCAtlWinModule@1@A 1002ab88     OposVariant.obj
 0003:00000bb4       ?m_libid@CAtlModule@ATL@@2U_GUID@@A 1002abb4     Scanner.obj
 0003:00000bc4       ?_entries@?1??GetConnMap@COPOSScanner@@SAPBU_ATL_CONNMAP_ENTRY@ATL@@PAH@Z@4QBU34@B 1002abc4     Scanner.obj
 0003:00000bd0       ?$TSS0@?1??GetConnMap@COPOSScanner@@SAPBU_ATL_CONNMAP_ENTRY@ATL@@PAH@Z@4HA 1002abd0     Scanner.obj
 0003:00000bd8       ?_OptionsStorage@?1??__local_stdio_printf_options@@9@4_KA 1002abd8     Scanner.obj
 0003:00000be0       ?pfnRegDeleteKeyEx@?1??DeleteSubKey@CRegKey@ATL@@QAEJPB_W@Z@4P6GJPAUHKEY__@@0KK@ZA 1002abe0     Scanner.obj
 0003:00000be4       ?bInitialized@?1??DeleteSubKey@CRegKey@ATL@@QAEJPB_W@Z@4_NA 1002abe4     Scanner.obj
 0003:00000be8       ?_Module@@3VCComModule@ATL@@A 1002abe8     Scanner.obj
 0003:00000c18       ?pConnMap@?$IConnectionPointContainerImpl@VCOPOSScanner@@@ATL@@0PBU_ATL_CONNMAP_ENTRY@2@B 1002ac18     Scanner.obj
 0003:00000c1c       ?s_nInstances@COPOSScanner@@1HA 1002ac1c     ScannerImpl.obj
 0003:00000c20       ___scrt_current_native_startup_state 1002ac20     LIBCMT:utility.obj
 0003:00000c24       ___scrt_native_startup_lock 1002ac24     LIBCMT:utility.obj
 0003:00000f8c       __tls_index                1002af8c     LIBCMT:tlssup.obj
 0003:00000f94       ___isa_available           1002af94     LIBCMT:cpu_disp.obj
 0003:00000f98       ___favor                   1002af98     LIBCMT:cpu_disp.obj
 0003:00000f9c       ___scrt_debugger_hook_flag 1002af9c     LIBCMT:utility_desktop.obj
 0003:00000fa0       ___castguard_check_failure_os_handled_fptr 1002afa0     LIBCMT:guard_support.obj
 0003:00000fa8       ?__type_info_root_node@@3U__type_info_node@@A 1002afa8     LIBCMT:tncleanup.obj
 0003:00000fb0       ?_OptionsStorage@?1??__local_stdio_scanf_options@@9@4_KA 1002afb0     LIBCMT:default_local_stdio_options.obj
 0003:00000fb8       ?_AtlBaseModule@ATL@@3VCAtlBaseModule@1@A 1002afb8     atls:atlbase.obj
 0003:00000ff0       ?__AtlThunkPool@@3PAT_SLIST_HEADER@@A 1002aff0     atls:atlthunk.obj
 0003:00001008       ___@@_PchSym_@00@UztvmgUPdlipUFHUhUrmgvinvwrzgvUexgllohUzgohOmzgrevkilqPBACIAJCBDBUlyqiUcIGUhgwzucOlyq@4B2008FD98C1DD4 1002b008     atls:stdafx.obj
 0003:0000100c       ?__WinRTOutOfMemoryExceptionCallback@@3P6GPAXXZA 1002b00c     libvcruntime:ehhelpers.obj
 0003:00001010       ___pPurecall               1002b010     libvcruntime:purevirt_data.obj
 0003:00001058       ?pArgList@UnDecorator@@0PAVReplicator@@A 1002b058     libvcruntime:undname.obj
 0003:0000105c       ?pZNameList@UnDecorator@@0PAVReplicator@@A 1002b05c     libvcruntime:undname.obj
 0003:00001060       ?pTemplateArgList@UnDecorator@@0PAVReplicator@@A 1002b060     libvcruntime:undname.obj
 0003:00001064       ?gName@UnDecorator@@0PBDB  1002b064     libvcruntime:undname.obj
 0003:00001068       ?name@UnDecorator@@0PBDB   1002b068     libvcruntime:undname.obj
 0003:0000106c       ?disableFlags@UnDecorator@@0KA 1002b06c     libvcruntime:undname.obj
 0003:00001070       ?fExplicitTemplateParams@UnDecorator@@0_NA 1002b070     libvcruntime:undname.obj
 0003:00001071       ?fGetTemplateArgumentList@UnDecorator@@0_NA 1002b071     libvcruntime:undname.obj
 0003:00001074       ?m_pGetParameter@UnDecorator@@0P6APADJ@ZA 1002b074     libvcruntime:undname.obj
 0003:00001078       ?m_CHPENameOffset@UnDecorator@@0KA 1002b078     libvcruntime:undname.obj
 0003:0000107c       ?m_recursionLevel@UnDecorator@@0KA 1002b07c     libvcruntime:undname.obj
 0003:000010c0       ?c_exit_complete@?1???R<lambda_6e4b09c48022b2350581041d5f6b0c4c>@@QBE@XZ@4_NA 1002b0c0     libucrt:exit.obj
 0003:000011d0       __environ_table            1002b1d0     libucrt:environment_initialization.obj
 0003:000011d4       __wenviron_table           1002b1d4     libucrt:environment_initialization.obj
 0003:000011d8       ___dcrt_initial_wide_environment 1002b1d8     libucrt:environment_initialization.obj
 0003:000011dc       ___dcrt_initial_narrow_environment 1002b1dc     libucrt:environment_initialization.obj
 0003:000011e0       ___acrt_atexit_table       1002b1e0     libucrt:onexit.obj
 0003:000011ec       ___acrt_at_quick_exit_table 1002b1ec     libucrt:onexit.obj
 0003:000012e0       __nstream                  1002b2e0     libucrt:_file.obj
 0003:000012e4       ___piob                    1002b2e4     libucrt:_file.obj
 0003:000012ec       ___acrt_stdout_buffer      1002b2ec     libucrt:_sftbuf.obj
 0003:000012f0       ___acrt_stderr_buffer      1002b2f0     libucrt:_sftbuf.obj
 0003:000012f4       ___acrt_locale_changed_data 1002b2f4     libucrt:wsetlocale.obj
 0003:000012f8       ___acrt_current_locale_data 1002b2f8     libucrt:nlsdata.obj
 0003:00001300       ___pioinfo                 1002b300     libucrt:ioinit.obj
 0003:00001500       __nhandle                  1002b500     libucrt:ioinit.obj
 0003:0000165c       __mbctype                  1002b65c     libucrt:mbctype.obj
 0003:00001660       __mbcasemap                1002b660     libucrt:mbctype.obj
 0003:00001664       ___acrt_current_multibyte_data 1002b664     libucrt:mbctype.obj
 0003:00001670       __pgmptr                   1002b670     libucrt:argv_data.obj
 0003:00001674       ___argc                    1002b674     libucrt:argv_data.obj
 0003:00001678       ___argv                    1002b678     libucrt:argv_data.obj
 0003:0000167c       ___wargv                   1002b67c     libucrt:argv_data.obj
 0003:00001680       __acmdln                   1002b680     libucrt:argv_data.obj
 0003:00001684       __wcmdln                   1002b684     libucrt:argv_data.obj
 0003:00001688       ___acrt_heap               1002b688     libucrt:heap_handle.obj
 0003:000016a4       ___acrt_lconv_static_null  1002b6a4     libucrt:localeconv.obj
 0003:000016a8       ___acrt_lconv_static_W_null 1002b6a8     libucrt:localeconv.obj
 0003:000016b8       ___fastflag                1002b6b8     libucrt:fp_flags.obj
 0003:000016c0       ___dyn_tls_init_callback   1002b6c0     <common>
 0003:000016c4       ___scrt_ucrt_dll_is_in_use 1002b6c4     <common>
 0003:000016c8       __pmatherr                 1002b6c8     <common>
 0003:000016cc       ___use_sse2_mathfcns       1002b6cc     <common>

 entry point at        0001:0000bc2d

 Static symbols

 0000:fffce000       .debug$S                   10000000     OPOSScanner.exp
 0000:fffce000       .debug$S                   10000000     advapi32:ADVAPI32.dll
 0000:fffce000       .debug$S                   10000000     advapi32:ADVAPI32.dll
 0000:fffce000       .debug$S                   10000000     advapi32:ADVAPI32.dll
 0000:fffce000       .debug$S                   10000000     advapi32:ADVAPI32.dll
 0000:fffce000       .debug$S                   10000000     advapi32:ADVAPI32.dll
 0000:fffce000       .debug$S                   10000000     advapi32:ADVAPI32.dll
 0000:fffce000       .debug$S                   10000000     advapi32:ADVAPI32.dll
 0000:fffce000       .debug$S                   10000000     advapi32:ADVAPI32.dll
 0000:fffce000       .debug$S                   10000000     advapi32:ADVAPI32.dll
 0000:fffce000       .debug$S                   10000000     gdi32:GDI32.dll
 0000:fffce000       .debug$S                   10000000     gdi32:GDI32.dll
 0000:fffce000       .debug$S                   10000000     gdi32:GDI32.dll
 0000:fffce000       .debug$S                   10000000     gdi32:GDI32.dll
 0000:fffce000       .debug$S                   10000000     gdi32:GDI32.dll
 0000:fffce000       .debug$S                   10000000     gdi32:GDI32.dll
 0000:fffce000       .debug$S                   10000000     gdi32:GDI32.dll
 0000:fffce000       .debug$S                   10000000     gdi32:GDI32.dll
 0000:fffce000       .debug$S                   10000000     gdi32:GDI32.dll
 0000:fffce000       .debug$S                   10000000     gdi32:GDI32.dll
 0000:fffce000       .debug$S                   10000000     gdi32:GDI32.dll
 0000:fffce000       .debug$S                   10000000     gdi32:GDI32.dll
 0000:fffce000       .debug$S                   10000000     gdi32:GDI32.dll
 0000:fffce000       .debug$S                   10000000     gdi32:GDI32.dll
 0000:fffce000       .debug$S                   10000000     gdi32:GDI32.dll
 0000:fffce000       .debug$S                   10000000     gdi32:GDI32.dll
 0000:fffce000       .debug$S                   10000000     gdi32:GDI32.dll
 0000:fffce000       .debug$S                   10000000     gdi32:GDI32.dll
 0000:fffce000       .debug$S                   10000000     gdi32:GDI32.dll
 0000:fffce000       .debug$S                   10000000     kernel32:KERNEL32.dll
 0000:fffce000       .debug$S                   10000000     kernel32:KERNEL32.dll
 0000:fffce000       .debug$S                   10000000     kernel32:KERNEL32.dll
 0000:fffce000       .debug$S                   10000000     kernel32:KERNEL32.dll
 0000:fffce000       .debug$S                   10000000     kernel32:KERNEL32.dll
 0000:fffce000       .debug$S                   10000000     kernel32:KERNEL32.dll
 0000:fffce000       .debug$S                   10000000     kernel32:KERNEL32.dll
 0000:fffce000       .debug$S                   10000000     kernel32:KERNEL32.dll
 0000:fffce000       .debug$S                   10000000     kernel32:KERNEL32.dll
 0000:fffce000       .debug$S                   10000000     kernel32:KERNEL32.dll
 0000:fffce000       .debug$S                   10000000     kernel32:KERNEL32.dll
 0000:fffce000       .debug$S                   10000000     kernel32:KERNEL32.dll
 0000:fffce000       .debug$S                   10000000     kernel32:KERNEL32.dll
 0000:fffce000       .debug$S                   10000000     kernel32:KERNEL32.dll
 0000:fffce000       .debug$S                   10000000     kernel32:KERNEL32.dll
 0000:fffce000       .debug$S                   10000000     kernel32:KERNEL32.dll
 0000:fffce000       .debug$S                   10000000     kernel32:KERNEL32.dll
 0000:fffce000       .debug$S                   10000000     kernel32:KERNEL32.dll
 0000:fffce000       .debug$S                   10000000     kernel32:KERNEL32.dll
 0000:fffce000       .debug$S                   10000000     kernel32:KERNEL32.dll
 0000:fffce000       .debug$S                   10000000     kernel32:KERNEL32.dll
 0000:fffce000       .debug$S                   10000000     kernel32:KERNEL32.dll
 0000:fffce000       .debug$S                   10000000     kernel32:KERNEL32.dll
 0000:fffce000       .debug$S                   10000000     kernel32:KERNEL32.dll
 0000:fffce000       .debug$S                   10000000     kernel32:KERNEL32.dll
 0000:fffce000       .debug$S                   10000000     kernel32:KERNEL32.dll
 0000:fffce000       .debug$S                   10000000     kernel32:KERNEL32.dll
 0000:fffce000       .debug$S                   10000000     kernel32:KERNEL32.dll
 0000:fffce000       .debug$S                   10000000     kernel32:KERNEL32.dll
 0000:fffce000       .debug$S                   10000000     kernel32:KERNEL32.dll
 0000:fffce000       .debug$S                   10000000     kernel32:KERNEL32.dll
 0000:fffce000       .debug$S                   10000000     kernel32:KERNEL32.dll
 0000:fffce000       .debug$S                   10000000     kernel32:KERNEL32.dll
 0000:fffce000       .debug$S                   10000000     kernel32:KERNEL32.dll
 0000:fffce000       .debug$S                   10000000     kernel32:KERNEL32.dll
 0000:fffce000       .debug$S                   10000000     kernel32:KERNEL32.dll
 0000:fffce000       .debug$S                   10000000     kernel32:KERNEL32.dll
 0000:fffce000       .debug$S                   10000000     kernel32:KERNEL32.dll
 0000:fffce000       .debug$S                   10000000     kernel32:KERNEL32.dll
 0000:fffce000       .debug$S                   10000000     kernel32:KERNEL32.dll
 0000:fffce000       .debug$S                   10000000     kernel32:KERNEL32.dll
 0000:fffce000       .debug$S                   10000000     kernel32:KERNEL32.dll
 0000:fffce000       .debug$S                   10000000     kernel32:KERNEL32.dll
 0000:fffce000       .debug$S                   10000000     kernel32:KERNEL32.dll
 0000:fffce000       .debug$S                   10000000     kernel32:KERNEL32.dll
 0000:fffce000       .debug$S                   10000000     kernel32:KERNEL32.dll
 0000:fffce000       .debug$S                   10000000     kernel32:KERNEL32.dll
 0000:fffce000       .debug$S                   10000000     kernel32:KERNEL32.dll
 0000:fffce000       .debug$S                   10000000     kernel32:KERNEL32.dll
 0000:fffce000       .debug$S                   10000000     kernel32:KERNEL32.dll
 0000:fffce000       .debug$S                   10000000     kernel32:KERNEL32.dll
 0000:fffce000       .debug$S                   10000000     kernel32:KERNEL32.dll
 0000:fffce000       .debug$S                   10000000     kernel32:KERNEL32.dll
 0000:fffce000       .debug$S                   10000000     kernel32:KERNEL32.dll
 0000:fffce000       .debug$S                   10000000     kernel32:KERNEL32.dll
 0000:fffce000       .debug$S                   10000000     kernel32:KERNEL32.dll
 0000:fffce000       .debug$S                   10000000     kernel32:KERNEL32.dll
 0000:fffce000       .debug$S                   10000000     kernel32:KERNEL32.dll
 0000:fffce000       .debug$S                   10000000     kernel32:KERNEL32.dll
 0000:fffce000       .debug$S                   10000000     kernel32:KERNEL32.dll
 0000:fffce000       .debug$S                   10000000     kernel32:KERNEL32.dll
 0000:fffce000       .debug$S                   10000000     kernel32:KERNEL32.dll
 0000:fffce000       .debug$S                   10000000     kernel32:KERNEL32.dll
 0000:fffce000       .debug$S                   10000000     kernel32:KERNEL32.dll
 0000:fffce000       .debug$S                   10000000     kernel32:KERNEL32.dll
 0000:fffce000       .debug$S                   10000000     kernel32:KERNEL32.dll
 0000:fffce000       .debug$S                   10000000     kernel32:KERNEL32.dll
 0000:fffce000       .debug$S                   10000000     kernel32:KERNEL32.dll
 0000:fffce000       .debug$S                   10000000     kernel32:KERNEL32.dll
 0000:fffce000       .debug$S                   10000000     kernel32:KERNEL32.dll
 0000:fffce000       .debug$S                   10000000     kernel32:KERNEL32.dll
 0000:fffce000       .debug$S                   10000000     kernel32:KERNEL32.dll
 0000:fffce000       .debug$S                   10000000     kernel32:KERNEL32.dll
 0000:fffce000       .debug$S                   10000000     kernel32:KERNEL32.dll
 0000:fffce000       .debug$S                   10000000     kernel32:KERNEL32.dll
 0000:fffce000       .debug$S                   10000000     kernel32:KERNEL32.dll
 0000:fffce000       .debug$S                   10000000     kernel32:KERNEL32.dll
 0000:fffce000       .debug$S                   10000000     kernel32:KERNEL32.dll
 0000:fffce000       .debug$S                   10000000     kernel32:KERNEL32.dll
 0000:fffce000       .debug$S                   10000000     kernel32:KERNEL32.dll
 0000:fffce000       .debug$S                   10000000     kernel32:KERNEL32.dll
 0000:fffce000       .debug$S                   10000000     kernel32:KERNEL32.dll
 0000:fffce000       .debug$S                   10000000     kernel32:KERNEL32.dll
 0000:fffce000       .debug$S                   10000000     kernel32:KERNEL32.dll
 0000:fffce000       .debug$S                   10000000     kernel32:KERNEL32.dll
 0000:fffce000       .debug$S                   10000000     kernel32:KERNEL32.dll
 0000:fffce000       .debug$S                   10000000     kernel32:KERNEL32.dll
 0000:fffce000       .debug$S                   10000000     kernel32:KERNEL32.dll
 0000:fffce000       .debug$S                   10000000     kernel32:KERNEL32.dll
 0000:fffce000       .debug$S                   10000000     kernel32:KERNEL32.dll
 0000:fffce000       .debug$S                   10000000     kernel32:KERNEL32.dll
 0000:fffce000       .debug$S                   10000000     kernel32:KERNEL32.dll
 0000:fffce000       .debug$S                   10000000     kernel32:KERNEL32.dll
 0000:fffce000       .debug$S                   10000000     kernel32:KERNEL32.dll
 0000:fffce000       .debug$S                   10000000     kernel32:KERNEL32.dll
 0000:fffce000       .debug$S                   10000000     kernel32:KERNEL32.dll
 0000:fffce000       .debug$S                   10000000     kernel32:KERNEL32.dll
 0000:fffce000       .debug$S                   10000000     kernel32:KERNEL32.dll
 0000:fffce000       .debug$S                   10000000     kernel32:KERNEL32.dll
 0000:fffce000       .debug$S                   10000000     kernel32:KERNEL32.dll
 0000:fffce000       .debug$S                   10000000     kernel32:KERNEL32.dll
 0000:fffce000       .debug$S                   10000000     kernel32:KERNEL32.dll
 0000:fffce000       .debug$S                   10000000     kernel32:KERNEL32.dll
 0000:fffce000       .debug$S                   10000000     kernel32:KERNEL32.dll
 0000:fffce000       .debug$S                   10000000     kernel32:KERNEL32.dll
 0000:fffce000       .debug$S                   10000000     kernel32:KERNEL32.dll
 0000:fffce000       .debug$S                   10000000     ole32:ole32.dll
 0000:fffce000       .debug$S                   10000000     ole32:ole32.dll
 0000:fffce000       .debug$S                   10000000     ole32:ole32.dll
 0000:fffce000       .debug$S                   10000000     ole32:ole32.dll
 0000:fffce000       .debug$S                   10000000     ole32:ole32.dll
 0000:fffce000       .debug$S                   10000000     ole32:ole32.dll
 0000:fffce000       .debug$S                   10000000     ole32:ole32.dll
 0000:fffce000       .debug$S                   10000000     ole32:ole32.dll
 0000:fffce000       .debug$S                   10000000     ole32:ole32.dll
 0000:fffce000       .debug$S                   10000000     ole32:ole32.dll
 0000:fffce000       .debug$S                   10000000     ole32:ole32.dll
 0000:fffce000       .debug$S                   10000000     ole32:ole32.dll
 0000:fffce000       .debug$S                   10000000     ole32:ole32.dll
 0000:fffce000       .debug$S                   10000000     ole32:ole32.dll
 0000:fffce000       .debug$S                   10000000     oleaut32:OLEAUT32.dll
 0000:fffce000       .debug$S                   10000000     oleaut32:OLEAUT32.dll
 0000:fffce000       .debug$S                   10000000     oleaut32:OLEAUT32.dll
 0000:fffce000       .debug$S                   10000000     oleaut32:OLEAUT32.dll
 0000:fffce000       .debug$S                   10000000     oleaut32:OLEAUT32.dll
 0000:fffce000       .debug$S                   10000000     oleaut32:OLEAUT32.dll
 0000:fffce000       .debug$S                   10000000     oleaut32:OLEAUT32.dll
 0000:fffce000       .debug$S                   10000000     oleaut32:OLEAUT32.dll
 0000:fffce000       .debug$S                   10000000     oleaut32:OLEAUT32.dll
 0000:fffce000       .debug$S                   10000000     oleaut32:OLEAUT32.dll
 0000:fffce000       .debug$S                   10000000     oleaut32:OLEAUT32.dll
 0000:fffce000       .debug$S                   10000000     oleaut32:OLEAUT32.dll
 0000:fffce000       .debug$S                   10000000     oleaut32:OLEAUT32.dll
 0000:fffce000       .debug$S                   10000000     oleaut32:OLEAUT32.dll
 0000:fffce000       .debug$S                   10000000     oleaut32:OLEAUT32.dll
 0000:fffce000       .debug$S                   10000000     oleaut32:OLEAUT32.dll
 0000:fffce000       .debug$S                   10000000     user32:USER32.dll
 0000:fffce000       .debug$S                   10000000     user32:USER32.dll
 0000:fffce000       .debug$S                   10000000     user32:USER32.dll
 0000:fffce000       .debug$S                   10000000     user32:USER32.dll
 0000:fffce000       .debug$S                   10000000     user32:USER32.dll
 0000:fffce000       .debug$S                   10000000     user32:USER32.dll
 0000:fffce000       .debug$S                   10000000     user32:USER32.dll
 0000:fffce000       .debug$S                   10000000     user32:USER32.dll
 0000:fffce000       .debug$S                   10000000     user32:USER32.dll
 0000:fffce000       .debug$S                   10000000     user32:USER32.dll
 0000:fffce000       .debug$S                   10000000     user32:USER32.dll
 0000:fffce000       .debug$S                   10000000     user32:USER32.dll
 0000:fffce000       .debug$S                   10000000     user32:USER32.dll
 0000:fffce000       .debug$S                   10000000     user32:USER32.dll
 0000:fffce000       .debug$S                   10000000     user32:USER32.dll
 0000:fffce000       .debug$S                   10000000     user32:USER32.dll
 0000:fffce000       .debug$S                   10000000     user32:USER32.dll
 0000:fffce000       .debug$S                   10000000     user32:USER32.dll
 0000:fffce000       .debug$S                   10000000     user32:USER32.dll
 0000:fffce000       .debug$S                   10000000     user32:USER32.dll
 0000:fffce000       .debug$S                   10000000     user32:USER32.dll
 0000:fffce000       .debug$S                   10000000     user32:USER32.dll
 0000:fffce000       .debug$S                   10000000     user32:USER32.dll
 0000:fffce000       .debug$S                   10000000     user32:USER32.dll
 0000:fffce000       .debug$S                   10000000     user32:USER32.dll
 0000:fffce000       .debug$S                   10000000     user32:USER32.dll
 0000:fffce000       .debug$S                   10000000     user32:USER32.dll
 0000:fffce000       .debug$S                   10000000     user32:USER32.dll
 0000:fffce000       .debug$S                   10000000     user32:USER32.dll
 0000:fffce000       .debug$S                   10000000     user32:USER32.dll
 0000:fffce000       .debug$S                   10000000     user32:USER32.dll
 0000:fffce000       .debug$S                   10000000     user32:USER32.dll
 0000:fffce000       .debug$S                   10000000     user32:USER32.dll
 0000:fffce000       .debug$S                   10000000     user32:USER32.dll
 0000:fffce000       .debug$S                   10000000     user32:USER32.dll
 0001:00000000       ??__E_AtlComModule@ATL@@YAXXZ 10001000 f   OposVariant.obj
 0001:00000016       ??__E_AtlWinModule@ATL@@YAXXZ 10001016 f   OposVariant.obj
 0001:0000002c       ??__E?pConnMap@?$IConnectionPointContainerImpl@VCOPOSScanner@@@ATL@@0PBU_ATL_CONNMAP_ENTRY@2@B@@YAXXZ 1000102c f   Scanner.obj
 0001:0000003a       ??__E_Module@@YAXXZ        1000103a f   Scanner.obj
 0001:00000064       ??__E_AtlBaseModule@ATL@@YAXXZ 10001064 f   atls:atlbase.obj
 0001:0000102e       $LN24                      1000202e     Scanner.obj
 0001:000058b2       $LN48                      100068b2     Scanner.obj
 0001:000058ca       $LN47                      100068ca     Scanner.obj
 0001:00007a75       $LN38                      10008a75     Scanner.obj
 0001:00007a8d       $LN37                      10008a8d     Scanner.obj
 0001:0000917d       $LN76                      1000a17d     Scanner.obj
 0001:00009195       $LN75                      1000a195     Scanner.obj
 0001:0000954e       _memcpy_s                  1000a54e f   Scanner.obj
 0001:0000b0bc       ?find_pe_section@@YAPAU_IMAGE_SECTION_HEADER@@QAEI@Z 1000c0bc f   LIBCMT:utility.obj
 0001:0000b3db       ?__scrt_initialize_thread_safe_statics@@YAHXZ 1000c3db f   LIBCMT:thread_safe_statics.obj
 0001:0000b402       ?__scrt_initialize_thread_safe_statics_platform_specific@@YAXXZ 1000c402 f   LIBCMT:thread_safe_statics.obj
 0001:0000b484       ?__scrt_uninitialize_thread_safe_statics@@YAXXZ 1000c484 f   LIBCMT:thread_safe_statics.obj
 0001:0000b7f3       __catch$??2@YAPAXIABUnothrow_t@std@@@Z$0 1000c7f3 f   LIBCMT:new_scalar_nothrow.obj
 0001:0000b830       $$000000                   1000c830     LIBCMT:sehprolg4gs.obj
 0001:0000b890       $$000000                   1000c890     LIBCMT:alloca16.obj
 0001:0000b8c0       $$000000                   1000c8c0     LIBCMT:chkstk.obj
 0001:0000b8ed       ?dllmain_crt_dispatch@@YGHQAUHINSTANCE__@@KQAX@Z 1000c8ed f   LIBCMT:dll_dllmain.obj
 0001:0000b940       ?dllmain_crt_process_attach@@YAHQAUHINSTANCE__@@QAX@Z 1000c940 f   LIBCMT:dll_dllmain.obj
 0001:0000ba47       ?dllmain_crt_process_detach@@YAH_N@Z 1000ca47 f   LIBCMT:dll_dllmain.obj
 0001:0000baf7       ?dllmain_dispatch@@YAHQAUHINSTANCE__@@KQAX@Z 1000caf7 f   LIBCMT:dll_dllmain.obj
 0001:0000bc02       ?dllmain_raw@@YGHQAUHINSTANCE__@@KQAX@Z 1000cc02 f   LIBCMT:dll_dllmain.obj
 0001:0000bf80       $$000000                   1000cf80     LIBCMT:sehprolg4.obj
 0001:0000bfdb       ___get_entropy             1000cfdb f   LIBCMT:gs_support.obj
 0001:0000c2d2       ??$GetProcAddressAll@P6GP6GJPAUHWND__@@IIJ@ZPAUAtlThunkData_t@@@Z@@YAP6GP6GJPAUHWND__@@IIJ@ZPAUAtlThunkData_t@@@ZPAP6GP6GJ0IIJ@Z1@Z@Z 1000d2d2 f   atls:atlthunk.obj
 0001:0000c2d2       ??$GetProcAddressAll@P6GPAUAtlThunkData_t@@XZ@@YAP6GPAUAtlThunkData_t@@XZPAP6GPAU0@XZ@Z 1000d2d2 f   atls:atlthunk.obj
 0001:0000c2d2       ??$GetProcAddressAll@P6GXPAUAtlThunkData_t@@@Z@@YAP6GXPAUAtlThunkData_t@@@ZPAP6GX0@Z@Z 1000d2d2 f   atls:atlthunk.obj
 0001:0000c2d2       ??$GetProcAddressAll@P6GXPAUAtlThunkData_t@@PAXI@Z@@YAP6GXPAUAtlThunkData_t@@PAXI@ZPAP6GX01I@Z@Z 1000d2d2 f   atls:atlthunk.obj
 0001:0000c382       ?GetProcAddressSingle@@YA_NPAUHINSTANCE__@@PBDPAPAX@Z 1000d382 f   atls:atlthunk.obj
 0001:0000c4d4       ?__InitializeThunkPool@@YAHXZ 1000d4d4 f   atls:atlthunk.obj
 0001:0000c920       _ValidateLocalCookies      1000d920 f   libvcruntime:chandler4.obj
 0001:0000d94a       $LN1250                    1000e94a     libvcruntime:memcmp.obj
 0001:0000d9d0       $$000000                   1000e9d0     libvcruntime:memcpy.obj
 0001:0000dc34       TrailingUpVec              1000ec34     libvcruntime:memcpy.obj
 0001:0000dce0       TrailingDownVec            1000ece0     libvcruntime:memcpy.obj
 0001:0000df50       $$000000                   1000ef50     libvcruntime:memset.obj
 0001:0000e553       ?_FilterSetCurrentException@@YAKPAU_EXCEPTION_POINTERS@@E@Z 1000f553 f   libvcruntime:ehhelpers.obj
 0001:0000e7a0       $$000000                   1000f7a0     libvcruntime:memmove.obj
 0001:0000ea04       TrailingUpVec              1000fa04     libvcruntime:memmove.obj
 0001:0000eab0       TrailingDownVec            1000fab0     libvcruntime:memmove.obj
 0001:0000ed20       $$000000                   1000fd20     libvcruntime:exsup4.obj
 0001:0000edad       __unwind_handler4          1000fdad f   libvcruntime:exsup4.obj
 0001:0000f08b       ??$BuildCatchObjectHelperInternal@V__FrameHandler3@@@@YAHPAUEHExceptionRecord@@PAXPBU_s_HandlerType@@PBU_s_CatchableType@@@Z 1001008b f   libvcruntime:frame.obj
 0001:0000f1c9       ??$BuildCatchObjectInternal@V__FrameHandler3@@@@YAXPAUEHExceptionRecord@@PAXPBU_s_HandlerType@@PBU_s_CatchableType@@@Z 100101c9 f   libvcruntime:frame.obj
 0001:0000f262       ??$CatchIt@V__FrameHandler3@@@@YAXPAUEHExceptionRecord@@PAUEHRegistrationNode@@PAU_CONTEXT@@PAXPBU_s_FuncInfo@@PBU_s_HandlerType@@PBU_s_CatchableType@@PBU_s_TryBlockMapEntry@@H1EE@Z 10010262 f   libvcruntime:frame.obj
 0001:0000f2e2       ??$FindHandler@V__FrameHandler3@@@@YAXPAUEHExceptionRecord@@PAUEHRegistrationNode@@PAU_CONTEXT@@PAXPBU_s_FuncInfo@@EH1@Z 100102e2 f   libvcruntime:frame.obj
 0001:0000f698       ??$FindHandlerForForeignException@V__FrameHandler3@@@@YAXPAUEHExceptionRecord@@PAUEHRegistrationNode@@PAU_CONTEXT@@PAXPBU_s_FuncInfo@@HH1@Z 10010698 f   libvcruntime:frame.obj
 0001:0000f9b0       ?CallCatchBlock@@YAPAXPAUEHExceptionRecord@@PAUEHRegistrationNode@@PAU_CONTEXT@@PBU_s_FuncInfo@@PAXHK@Z 100109b0 f   libvcruntime:frame.obj
 0001:0000fb74       ?CallUnexpected@@YAXPBU_s_ESTypeList@@@Z 10010b74 f   libvcruntime:frame.obj
 0001:0000fb94       __catch$?CallUnexpected@@YAXPBU_s_ESTypeList@@@Z$0 10010b94 f   libvcruntime:frame.obj
 0001:0000fbb3       ?ExFilterRethrow@@YAHPAU_EXCEPTION_POINTERS@@@Z 10010bb3 f   libvcruntime:frame.obj
 0001:0000fcfd       ?IsInExceptionSpec@@YAEPAUEHExceptionRecord@@PBU_s_ESTypeList@@@Z 10010cfd f   libvcruntime:frame.obj
 0001:0000fdd0       $$000000                   10010dd0     libvcruntime:lowhelpr.obj
 0001:0000fe20       $$000000                   10010e20     libvcruntime:exsup.obj
 0001:0000fe41       __unwind_handler           10010e41 f   libvcruntime:exsup.obj
 0001:0000ff5e       ?try_get_first_available_module@@YAPAUHINSTANCE__@@QBW4module_id@?A0xb97aeec8@@0@Z 10010f5e f   libvcruntime:winapi_downlevel.obj
 0001:0000fff8       ?try_get_function@@YAPAXW4function_id@?A0xb97aeec8@@QBDQBW4module_id@2@2@Z 10010ff8 f   libvcruntime:winapi_downlevel.obj
 0001:00010682       ??$common_tcsncpy_s@_W@@YAHQA_WIQB_WI@Z 10011682 f   libucrt:wcsncpy_s.obj
 0001:00010758       ??$common_vsprintf@Vformat_validation_base@__crt_stdio_output@@_W@@YAH_KQA_WIQB_WQAU__crt_locale_pointers@@QAD@Z 10011758 f   libucrt:output.obj
 0001:000108df       ??$common_vsprintf_s@_W@@YAH_KQA_WIQB_WQAU__crt_locale_pointers@@QAD@Z 100118df f   libucrt:output.obj
 0001:00011043       $LN48                      10012043     libucrt:output.obj
 0001:0001154c       $LN18                      1001254c     libucrt:output.obj
 0001:00011560       $LN17                      10012560     libucrt:output.obj
 0001:00011dbb       ??$?RV<lambda_03b1d95aef87969028cfba75ccab2455>@@AAV<lambda_6e4b09c48022b2350581041d5f6b0c4c>@@V<lambda_22bdf7517842c4b3e53723af5aa32b9e>@@@?$__crt_seh_guarded_call@X@@QAEX$$QAV<lambda_03b1d95aef87969028cfba75ccab2455>@@AAV<lambda_6e4b09c48022b2350581041d5f6b0c4c>@@$$QAV<lambda_22bdf7517842c4b3e53723af5aa32b9e>@@@Z 10012dbb f   libucrt:exit.obj
 0001:00011e08       ??R<lambda_6e4b09c48022b2350581041d5f6b0c4c>@@QBE@XZ 10012e08 f   libucrt:exit.obj
 0001:00011ee2       ?atexit_exception_filter@@YAHK@Z 10012ee2 f   libucrt:exit.obj
 0001:00011ef5       ?common_exit@@YAXHW4_crt_exit_cleanup_mode@@W4_crt_exit_return_mode@@@Z 10012ef5 f   libucrt:exit.obj
 0001:00011f59       ?exit_or_terminate_process@@YAXI@Z 10012f59 f   libucrt:exit.obj
 0001:00011f9b       ?is_managed_app@@YA_NXZ    10012f9b f   libucrt:exit.obj
 0001:00011fde       ?try_cor_exit_process@@YAXI@Z 10012fde f   libucrt:exit.obj
 0001:0001206c       ??$common_configure_argv@D@@YAHW4_crt_argv_mode@@@Z 1001306c f   libucrt:argv_parsing.obj
 0001:000121a2       ??$parse_command_line@D@@YAXPADPAPAD0PAI2@Z 100131a2 f   libucrt:argv_parsing.obj
 0001:00012370       ??$common_initialize_environment_nolock@D@@YAHXZ 10013370 f   libucrt:environment_initialization.obj
 0001:000123c3       ??$create_environment@D@@YAQAPADQAD@Z 100133c3 f   libucrt:environment_initialization.obj
 0001:00012493       ??$free_environment@D@@YAXQAPAD@Z 10013493 f   libucrt:environment_initialization.obj
 0001:00012493       ??$free_environment@_W@@YAXQAPA_W@Z 10013493 f   libucrt:environment_initialization.obj
 0001:000124eb       ??$uninitialize_environment_internal@D@@YAXAAPAPAD@Z 100134eb f   libucrt:environment_initialization.obj
 0001:00012506       ??$uninitialize_environment_internal@_W@@YAXAAPAPA_W@Z 10013506 f   libucrt:environment_initialization.obj
 0001:0001255d       ??$?RV<lambda_69a2805e680e0e292e8ba93315fe43a8>@@AAV<lambda_f03950bc5685219e0bcd2087efbe011e>@@V<lambda_03fcd07e894ec930e3f35da366ca99d6>@@@?$__crt_seh_guarded_call@H@@QAEH$$QAV<lambda_69a2805e680e0e292e8ba93315fe43a8>@@AAV<lambda_f03950bc5685219e0bcd2087efbe011e>@@$$QAV<lambda_03fcd07e894ec930e3f35da366ca99d6>@@@Z 1001355d f   libucrt:onexit.obj
 0001:000125b8       ??$?RV<lambda_8e746cf0007f6ed984d6f78af1fec997>@@AAV<lambda_22ebabd17bc4fa466a2aca6d8deb888d>@@V<lambda_18ed0c0b38a6dc0daf1e7ac6d6adf05e>@@@?$__crt_seh_guarded_call@H@@QAEH$$QAV<lambda_8e746cf0007f6ed984d6f78af1fec997>@@AAV<lambda_22ebabd17bc4fa466a2aca6d8deb888d>@@$$QAV<lambda_18ed0c0b38a6dc0daf1e7ac6d6adf05e>@@@Z 100135b8 f   libucrt:onexit.obj
 0001:00012632       ??R<lambda_22ebabd17bc4fa466a2aca6d8deb888d>@@QBEHXZ 10013632 f   libucrt:onexit.obj
 0001:0001275b       ??R<lambda_f03950bc5685219e0bcd2087efbe011e>@@QBEHXZ 1001375b f   libucrt:onexit.obj
 0001:000128d4       _initialize_global_variables 100138d4 f   libucrt:initialization.obj
 0001:000128e1       _initialize_c              100138e1 f   libucrt:initialization.obj
 0001:000128fb       _initialize_environment    100138fb f   libucrt:initialization.obj
 0001:000128fb       _initialize_global_state_isolation 100138fb f   libucrt:initialization.obj
 0001:000128fb       _report_memory_leaks       100138fb f   libucrt:initialization.obj
 0001:000128fb       _uninitialize_c            100138fb f   libucrt:initialization.obj
 0001:000128fb       _uninitialize_global_state_isolation 100138fb f   libucrt:initialization.obj
 0001:000128fe       _uninitialize_environment  100138fe f   libucrt:initialization.obj
 0001:00012906       _initialize_pointers       10013906 f   libucrt:initialization.obj
 0001:00012934       _uninitialize_vcruntime    10013934 f   libucrt:initialization.obj
 0001:0001293d       _uninitialize_allocated_memory 1001393d f   libucrt:initialization.obj
 0001:00012954       _uninitialize_allocated_io_buffers 10013954 f   libucrt:initialization.obj
 0001:000129a4       ??R<lambda_af42a3ee9806e9a7305d451646e05244>@@QBEXAAPAU__crt_multibyte_data@@@Z 100139a4 f   libucrt:initialization.obj
 0001:00013290       $$000000                   10014290     libucrt:strncmp.obj
 0001:0001337c       ??$?RV<lambda_15ade71b0218206bbe3333a0c9b79046>@@AAV<lambda_da44e0f8b0f19ba52fefafb335991732>@@V<lambda_207f2d024fc103971653565357d6cd41>@@@?$__crt_seh_guarded_call@X@@QAEX$$QAV<lambda_15ade71b0218206bbe3333a0c9b79046>@@AAV<lambda_da44e0f8b0f19ba52fefafb335991732>@@$$QAV<lambda_207f2d024fc103971653565357d6cd41>@@@Z 1001437c f   libucrt:per_thread_data.obj
 0001:000133ce       ??$?RV<lambda_38edbb1296d33220d7e4dd0ed76b244a>@@AAV<lambda_5ce1d447e08cb34b2473517608e21441>@@V<lambda_fb385d3da700c9147fc39e65dd577a8c>@@@?$__crt_seh_guarded_call@X@@QAEX$$QAV<lambda_38edbb1296d33220d7e4dd0ed76b244a>@@AAV<lambda_5ce1d447e08cb34b2473517608e21441>@@$$QAV<lambda_fb385d3da700c9147fc39e65dd577a8c>@@@Z 100143ce f   libucrt:per_thread_data.obj
 0001:00013439       ??$?RV<lambda_6affb1475c98b40b75cdec977db92e3c>@@AAV<lambda_b8d4b9c228a6ecc3f80208dbb4b4a104>@@V<lambda_608742c3c92a14382c1684fc64f96c88>@@@?$__crt_seh_guarded_call@X@@QAEX$$QAV<lambda_6affb1475c98b40b75cdec977db92e3c>@@AAV<lambda_b8d4b9c228a6ecc3f80208dbb4b4a104>@@$$QAV<lambda_608742c3c92a14382c1684fc64f96c88>@@@Z 10014439 f   libucrt:per_thread_data.obj
 0001:0001348e       ??$?RV<lambda_a7e850c220f1c8d1e6efeecdedd162c6>@@AAV<lambda_46720907175c18b6c9d2717bc0d2d362>@@V<lambda_9048902d66e8d99359bc9897bbb930a8>@@@?$__crt_seh_guarded_call@X@@QAEX$$QAV<lambda_a7e850c220f1c8d1e6efeecdedd162c6>@@AAV<lambda_46720907175c18b6c9d2717bc0d2d362>@@$$QAV<lambda_9048902d66e8d99359bc9897bbb930a8>@@@Z 1001448e f   libucrt:per_thread_data.obj
 0001:000134e8       ?construct_ptd@@YAXQAU__acrt_ptd@@QAPAU__crt_locale_data@@@Z 100144e8 f   libucrt:per_thread_data.obj
 0001:00013581       ?destroy_fls@@YGXPAX@Z     10014581 f   libucrt:per_thread_data.obj
 0001:000135a2       ?destroy_ptd@@YAXQAU__acrt_ptd@@@Z 100145a2 f   libucrt:per_thread_data.obj
 0001:0001366f       ?replace_current_thread_locale_nolock@@YAXQAU__acrt_ptd@@QAU__crt_locale_data@@@Z 1001466f f   libucrt:per_thread_data.obj
 0001:00013a7f       ?try_get_AreFileApisANSI@@YAP6GHXZXZ 10014a7f f   libucrt:winapi_thunks.obj
 0001:00013a99       ?try_get_LCMapStringEx@@YAP6GHPB_WK0HPA_WHPAU_nlsversioninfo@@PAXJ@ZXZ 10014a99 f   libucrt:winapi_thunks.obj
 0001:00013ab3       ?try_get_LocaleNameToLCID@@YAP6GKPB_WK@ZXZ 10014ab3 f   libucrt:winapi_thunks.obj
 0001:00013acd       ?try_get_first_available_module@@YAPAUHINSTANCE__@@QBW4module_id@?A0x391cf84c@@0@Z 10014acd f   libucrt:winapi_thunks.obj
 0001:00013b94       ?try_get_function@@YAPAXW4function_id@?A0x391cf84c@@QBDQBW4module_id@2@2@Z 10014b94 f   libucrt:winapi_thunks.obj
 0001:000142f7       ?fe_to_nearest@@YA_NQBN_KF@Z 100152f7 f   libucrt:cvt.obj
 0001:0001439a       ?fp_format_a@@YAHQBNPADIQADIH_NIQAU__crt_locale_pointers@@W4__acrt_rounding_mode@@@Z 1001539a f   libucrt:cvt.obj
 0001:000146a9       ?fp_format_e@@YAHQBNQADI1IH_NIQAU__crt_locale_pointers@@W4__acrt_rounding_mode@@@Z 100156a9 f   libucrt:cvt.obj
 0001:00014751       ?fp_format_e_internal@@YAHQADIH_NIQAU_strflt@@1QAU__crt_locale_pointers@@@Z 10015751 f   libucrt:cvt.obj
 0001:00014899       ?fp_format_f@@YAHQBNQADI1IHQAU__crt_locale_pointers@@W4__acrt_rounding_mode@@@Z 10015899 f   libucrt:cvt.obj
 0001:0001492a       ?fp_format_f_internal@@YAHQADIHQAU_strflt@@_NQAU__crt_locale_pointers@@@Z 1001592a f   libucrt:cvt.obj
 0001:00014a22       ?fp_format_g@@YAHQBNQADI1IH_NIQAU__crt_locale_pointers@@@Z 10015a22 f   libucrt:cvt.obj
 0001:00014aeb       ?fp_format_nan_or_infinity@@YAHW4__acrt_fp_class@@_NPADI1@Z 10015aeb f   libucrt:cvt.obj
 0001:00014b80       ?shift_bytes@@YAXQADI0H@Z  10015b80 f   libucrt:cvt.obj
 0001:00014bb4       ?should_round_up@@YA_NQBN_KFW4__acrt_rounding_mode@@@Z 10015bb4 f   libucrt:cvt.obj
 0001:00014f1d       ??$?RV<lambda_e5124f882df8998aaf41531e079ba474>@@AAV<lambda_3e16ef9562a7dcce91392c22ab16ea36>@@V<lambda_e25ca0880e6ef98be67edffd8c599615>@@@?$__crt_seh_guarded_call@X@@QAEX$$QAV<lambda_e5124f882df8998aaf41531e079ba474>@@AAV<lambda_3e16ef9562a7dcce91392c22ab16ea36>@@$$QAV<lambda_e25ca0880e6ef98be67edffd8c599615>@@@Z 10015f1d f   libucrt:wsetlocale.obj
 0001:00014fbd       ?initialize_inherited_file_handles_nolock@@YAXXZ 10015fbd f   libucrt:ioinit.obj
 0001:00015073       ?initialize_stdio_handles_nolock@@YAXXZ 10016073 f   libucrt:ioinit.obj
 0001:00015284       ?<lambda_invoker_cdecl>@<lambda_838c7f62c73c983481e27c09e84b0b5d>@@CAHPBX0@Z 10016284 f   libucrt:argv_wildcards.obj
 0001:0001529c       ??$__acrt_convert_wcs_mbs_cp@D_WV<lambda_62f6974d9771e494a5ea317cc32e971c>@@U__crt_win32_buffer_internal_dynamic_resizing@@@@YAHQBDAAV?$__crt_win32_buffer@_WU__crt_win32_buffer_internal_dynamic_resizing@@@@ABV<lambda_62f6974d9771e494a5ea317cc32e971c>@@I@Z 1001629c f   libucrt:argv_wildcards.obj
 0001:0001534e       ??$__acrt_convert_wcs_mbs_cp@_WDV<lambda_28bda7af82a03b66c1cb3803a755f95d>@@U__crt_win32_buffer_internal_dynamic_resizing@@@@YAHQB_WAAV?$__crt_win32_buffer@DU__crt_win32_buffer_internal_dynamic_resizing@@@@ABV<lambda_28bda7af82a03b66c1cb3803a755f95d>@@I@Z 1001634e f   libucrt:argv_wildcards.obj
 0001:0001543a       ??$common_expand_argv_wildcards@D@@YAHQAPADQAPAPAD@Z 1001643a f   libucrt:argv_wildcards.obj
 0001:00015629       ??$copy_and_add_argument_to_buffer@D@@YAHQBD0IAAV?$argument_list@D@?A0x5f5c8891@@@Z 10016629 f   libucrt:argv_wildcards.obj
 0001:000156da       ??$expand_argument_wildcards@D@@YAHQAD0AAV?$argument_list@D@?A0x5f5c8891@@@Z 100166da f   libucrt:argv_wildcards.obj
 0001:00015a24       ?expand_if_necessary@?$argument_list@D@?A0x5f5c8891@@AAEHXZ 10016a24 f   libucrt:argv_wildcards.obj
 0001:00015ab6       ??$__acrt_convert_wcs_mbs_cp@_WDV<lambda_0fec1a7b3f42a53036604e18c2d5e07e>@@U__crt_win32_buffer_no_resizing@@@@YAHQB_WAAV?$__crt_win32_buffer@DU__crt_win32_buffer_no_resizing@@@@ABV<lambda_0fec1a7b3f42a53036604e18c2d5e07e>@@I@Z 10016ab6 f   libucrt:getmodulefilenamea.obj
 0001:00015c59       ??$?RV<lambda_ceb1ee4838e85a9d631eb091e2fbe199>@@AAV<lambda_ae742caa10f662c28703da3d2ea5e57e>@@V<lambda_cd08b5d6af4937fe54fc07d0c9bf6b37>@@@?$__crt_seh_guarded_call@X@@QAEX$$QAV<lambda_ceb1ee4838e85a9d631eb091e2fbe199>@@AAV<lambda_ae742caa10f662c28703da3d2ea5e57e>@@$$QAV<lambda_cd08b5d6af4937fe54fc07d0c9bf6b37>@@@Z 10016c59 f   libucrt:mbctype.obj
 0001:00015ca6       ??R<lambda_ae742caa10f662c28703da3d2ea5e57e>@@QBEXXZ 10016ca6 f   libucrt:mbctype.obj
 0001:00015d29       ?CPtoLocaleName@@YAPB_WH@Z 10016d29 f   libucrt:mbctype.obj
 0001:00015d67       ?getSystemCP@@YAHH@Z       10016d67 f   libucrt:mbctype.obj
 0001:00015dd8       ?setSBCS@@YAXPAU__crt_multibyte_data@@@Z 10016dd8 f   libucrt:mbctype.obj
 0001:00015e3d       ?setSBUpLow@@YAXPAU__crt_multibyte_data@@@Z 10016e3d f   libucrt:mbctype.obj
 0001:00015fbd       ?setmbcp_internal@@YAHH_NQAU__acrt_ptd@@QAPAU__crt_multibyte_data@@@Z 10016fbd f   libucrt:mbctype.obj
 0001:000160d1       ?update_thread_multibyte_data_internal@@YAPAU__crt_multibyte_data@@QAU__acrt_ptd@@QAPAU1@@Z 100170d1 f   libucrt:mbctype.obj
 0001:000163bf       _memcpy_s                  100173bf f   libucrt:cfout.obj
 0001:000163bf       _memcpy_s                  100173bf f   libucrt:mbctype.obj
 0001:00016440       ?x_ismbbtype_l@@YAHPAU__crt_locale_pointers@@IHH@Z 10017440 f   libucrt:ismbbyte.obj
 0001:000165fb       ?find_end_of_double_null_terminated_sequence@@YAPB_WQB_W@Z 100175fb f   libucrt:get_environment_from_os.obj
 0001:0001676a       ??$?RV<lambda_cbab9ec6f41b0180b23cc171c22676b0>@@AAV<lambda_44731a7d0e6d81c3e6aa82d741081786>@@V<lambda_4b292cb8dd18144e164572427af410ab>@@@?$__crt_seh_guarded_call@P6AXH@Z@@QAEP6AXH@Z$$QAV<lambda_cbab9ec6f41b0180b23cc171c22676b0>@@AAV<lambda_44731a7d0e6d81c3e6aa82d741081786>@@$$QAV<lambda_4b292cb8dd18144e164572427af410ab>@@@Z 1001776a f   libucrt:signal.obj
 0001:000167ce       ?get_global_action_nolock@@YAPAP6AXH@ZH@Z 100177ce f   libucrt:signal.obj
 0001:00016810       ?siglookup@@YAPAU__crt_signal_action_t@@HQAU1@@Z 10017810 f   libucrt:signal.obj
 0001:00016ac9       ??$?RV<lambda_2866be3712abc81a800a822484c830d8>@@AAV<lambda_39ca0ed439415581b5b15c265174cece>@@V<lambda_2b24c74d71094a6cd0cb82e44167d71b>@@@?$__crt_seh_guarded_call@X@@QAEX$$QAV<lambda_2866be3712abc81a800a822484c830d8>@@AAV<lambda_39ca0ed439415581b5b15c265174cece>@@$$QAV<lambda_2b24c74d71094a6cd0cb82e44167d71b>@@@Z 10017ac9 f   libucrt:fflush.obj
 0001:00016b55       ??$?RV<lambda_2cc53f568c5a2bb6f192f930a45d44ea>@@AAV<lambda_ab61a845afdef5b7c387490eaf3616ee>@@V<lambda_c2ffc0b7726aa6be21d5f0026187e748>@@@?$__crt_seh_guarded_call@X@@QAEX$$QAV<lambda_2cc53f568c5a2bb6f192f930a45d44ea>@@AAV<lambda_ab61a845afdef5b7c387490eaf3616ee>@@$$QAV<lambda_c2ffc0b7726aa6be21d5f0026187e748>@@@Z 10017b55 f   libucrt:fflush.obj
 0001:00016c01       ?common_flush_all@@YAH_N@Z 10017c01 f   libucrt:fflush.obj
 0001:00016c4e       ?common_flush_all_should_try_to_flush_stream@@YA_NV__crt_stdio_stream@@QAH@Z 10017c4e f   libucrt:fflush.obj
 0001:00016c81       ?is_stream_flushable_or_commitable@@YA_NJ@Z 10017c81 f   libucrt:fflush.obj
 0001:0001718a       ?GetTableIndexFromLocaleName@@YAHPB_W@Z 1001818a f   libucrt:lcidtoname_downlevel.obj
 0001:00017240       ??R<lambda_3d301b9e52f5099be73030e1f0bf487e>@@QBEIPBD@Z 10018240 f   libucrt:mbrtowc.obj
 0001:000173c6       ?should_round_up@@YA_NQBDHW4__acrt_has_trailing_digits@@W4__acrt_rounding_mode@@@Z 100183c6 f   libucrt:_fptostr.obj
 0001:00019164       ?free_crt_array_internal@@YAXQAPBXI@Z 1001a164 f   libucrt:inittime.obj
 0001:00019b2e       ??$common_tcsncpy_s@D@@YAHQADIQBDI@Z 1001ab2e f   libucrt:strncpy_s.obj
 0001:00019bf0       $$000000                   1001abf0     libucrt:strpbrk.obj
 0001:00019cd4       ?__acrt_LCMapStringA_stat@@YAHPAU__crt_locale_pointers@@PB_WKPBDHPADHHH@Z 1001acd4 f   libucrt:lcmapstringa.obj
 0001:00019f07       ?initialize_multibyte@@YAHXZ 1001af07 f   libucrt:multibyte_initializer.obj
 0001:00019f16       ??$?RV<lambda_9e9de3de5fa147e2223d7db92bc10aa6>@@AAV<lambda_38ce7e780aa69e748d6df282ebc68efe>@@V<lambda_8ca6da459f0f6780f1cff60fdc3d00e5>@@@?$__crt_seh_guarded_call@H@@QAEH$$QAV<lambda_9e9de3de5fa147e2223d7db92bc10aa6>@@AAV<lambda_38ce7e780aa69e748d6df282ebc68efe>@@$$QAV<lambda_8ca6da459f0f6780f1cff60fdc3d00e5>@@@Z 1001af16 f   libucrt:commit.obj
 0001:0001a035       ?write_double_translated_ansi_nolock@@YA?AUwrite_result@?A0x17268360@@HQBDI@Z 1001b035 f   libucrt:write.obj
 0001:0001a3e1       ?write_double_translated_unicode_nolock@@YA?AUwrite_result@?A0x17268360@@QBDI@Z 1001b3e1 f   libucrt:write.obj
 0001:0001a449       ?write_requires_double_translation_nolock@@YA_NH@Z 1001b449 f   libucrt:write.obj
 0001:0001a4ba       ?write_text_ansi_nolock@@YA?AUwrite_result@?A0x17268360@@HQBDI@Z 1001b4ba f   libucrt:write.obj
 0001:0001a595       ?write_text_utf16le_nolock@@YA?AUwrite_result@?A0x17268360@@HQBDI@Z 1001b595 f   libucrt:write.obj
 0001:0001a67e       ?write_text_utf8_nolock@@YA?AUwrite_result@?A0x17268360@@HQBDI@Z 1001b67e f   libucrt:write.obj
 0001:0001ada0       $$000000                   1001bda0     libucrt:log10_impl.obj
 0001:0001aeb0       $$000000                   1001beb0     libucrt:ceil_pentium4.obj
 0001:0001afcd       ?to_abstract_control@@YA?AW4__acrt_fenv_abstract_control@@W4__acrt_fenv_machine_sse_control@@@Z 1001bfcd f   libucrt:_fenvutils.obj
 0001:0001b089       ?to_abstract_control@@YA?AW4__acrt_fenv_abstract_control@@W4__acrt_fenv_machine_x87_control@@@Z 1001c089 f   libucrt:_fenvutils.obj
 0001:0001b142       ?to_machine_sse_control@@YA?AW4__acrt_fenv_machine_sse_control@@W4__acrt_fenv_abstract_control@@@Z 1001c142 f   libucrt:_fenvutils.obj
 0001:0001b20f       ?to_machine_x87_control@@YA?AW4__acrt_fenv_machine_x87_control@@W4__acrt_fenv_abstract_control@@@Z 1001c20f f   libucrt:_fenvutils.obj
 0001:0001b5a3       ??$common_lseek_nolock@_J@@YA_JH_JH@Z 1001c5a3 f   libucrt:lseek.obj
 0001:0001b789       ___hw_cw_sse2              1001c789 f   libucrt:ieee87.obj
 0001:0001bc0f       __hw_cw                    1001cc0f f   libucrt:ieee87.obj
 0001:0001bcc0       $$000000                   1001ccc0     libucrt:log10_pentium4.obj
 0001:0001bf50       $$000000                   1001cf50     libucrt:87tran.obj
 0001:0001c160       $$000000                   1001d160     libucrt:87disp.obj
 0001:0001c3c0       $$000000                   1001d3c0     libucrt:common.obj
 0001:0001c550       $$000000                   1001d550     libucrt:genexcep.obj
 0001:0001c84c       ??$?RV<lambda_218ce3db14220d0be481dae8ef3383b6>@@AAV<lambda_628dfdc04ba53c8bfc02c9951375f3f5>@@V<lambda_57dc472bd5c9d5f3b2cbca59b8a843ae>@@@?$__crt_seh_guarded_call@H@@QAEH$$QAV<lambda_218ce3db14220d0be481dae8ef3383b6>@@AAV<lambda_628dfdc04ba53c8bfc02c9951375f3f5>@@$$QAV<lambda_57dc472bd5c9d5f3b2cbca59b8a843ae>@@@Z 1001d84c f   libucrt:close.obj
 0001:0001ca40       $$000000                   1001da40     libucrt:_strnicm.obj
 0001:0001caa1       ?__dcrt_lowio_initialize_console_output@@YAXXZ 1001daa1 f   libucrt:initcon.obj
 0001:0001d980       $$000000                   1001e980     LIBCMT:ulldvrm.obj
 0001:0001da20       $$000000                   1001ea20     LIBCMT:llmul.obj
 0001:0001da60       $$000000                   1001ea60     LIBCMT:lldvrm.obj
 0001:0001db40       $$000000                   1001eb40     LIBCMT:llshl.obj
 0001:0001db60       $$000000                   1001eb60     LIBCMT:ullshr.obj
 0001:0001db80       $$000000                   1001eb80     LIBCMT:ftol2.obj
 0001:0001de20       $$000000                   1001ee20     libvcruntime:strrchr.obj
 0001:0001df60       $$000000                   1001ef60     libvcruntime:strchr.obj
 0001:0001e103       __ehhandler$??2@YAPAXIABUnothrow_t@std@@@Z 1001f103 f   LIBCMT:new_scalar_nothrow.obj
 0001:0001e120       __ehhandler$?CallUnexpected@@YAXPBU_s_ESTypeList@@@Z 1001f120 f   libvcruntime:frame.obj
 0001:0001e13d       ??__F_AtlComModule@ATL@@YAXXZ 1001f13d f   OposVariant.obj
 0001:0001e147       ??__F_AtlWinModule@ATL@@YAXXZ 1001f147 f   OposVariant.obj
 0001:0001e161       ??__F_Module@@YAXXZ        1001f161 f   Scanner.obj
 0001:0001e175       ??__F_AtlBaseModule@ATL@@YAXXZ 1001f175 f   atls:atlbase.obj
 0002:00000304       ?_AtlBaseModule$initializer$@ATL@@3P6AXXZA 10020304     atls:atlbase.obj
 0002:00000308       ?_AtlComModule$initializer$@ATL@@3P6AXXZA 10020308     OposVariant.obj
 0002:0000030c       ?_AtlWinModule$initializer$@ATL@@3P6AXXZA 1002030c     OposVariant.obj
 0002:00000310       ?_Module$initializer$@@3P6AXXZA 10020310     Scanner.obj
 0002:00000314       ??pConnMap$initializer$@?$IConnectionPointContainerImpl@VCOPOSScanner@@@ATL@@0P6AXXZA@@3P6AXXZA 10020314     Scanner.obj
 0002:00000320       ?__scrt_initialize_tss_var@@3P6AHXZA 10020320     LIBCMT:thread_safe_statics.obj
 0002:000017f0       _GS_ExceptionPointers      100217f0     LIBCMT:gs_report.obj
 0002:00001980       ?tokenTable@@3QBUStringLiteral@@B 10021980     libvcruntime:undname.obj
 0002:00001a00       ?nameTable@@3QBUStringLiteral@@B 10021a00     libvcruntime:undname.obj
 0002:00001c98       ?rttiTable@@3QBUStringLiteral@@B 10021c98     libvcruntime:undname.obj
 0002:00001cc0       ?IndirectionName@@3QBUStringLiteral@@B 10021cc0     libvcruntime:undname.obj
 0002:00001cf0       ?PrefixName@@3QBUStringLiteral@@B 10021cf0     libvcruntime:undname.obj
 0002:00002320       ?module_names@?A0xb97aeec8@@3QBQB_WB 10022320     libvcruntime:winapi_downlevel.obj
 0002:000023c8       ?candidate_modules@?1??try_get_FlsAlloc@@YAP6GKP6GXPAX@Z@ZXZ@4QBW4module_id@?A0xb97aeec8@@B 100223c8     libvcruntime:winapi_downlevel.obj
 0002:000023dc       ?candidate_modules@?1??try_get_FlsFree@@YAP6GHK@ZXZ@4QBW4module_id@?A0xb97aeec8@@B 100223dc     libvcruntime:winapi_downlevel.obj
 0002:000023ec       ?candidate_modules@?1??try_get_FlsGetValue@@YAP6GPAXK@ZXZ@4QBW4module_id@?A0xb97aeec8@@B 100223ec     libvcruntime:winapi_downlevel.obj
 0002:00002400       ?candidate_modules@?1??try_get_FlsSetValue@@YAP6GHKPAX@ZXZ@4QBW4module_id@?A0xb97aeec8@@B 10022400     libvcruntime:winapi_downlevel.obj
 0002:00002414       ?candidate_modules@?1??try_get_InitializeCriticalSectionEx@@YAP6GHPAU_RTL_CRITICAL_SECTION@@KK@ZXZ@4QBW4module_id@?A0xb97aeec8@@B 10022414     libvcruntime:winapi_downlevel.obj
 0002:00002438       ?errtable@@3QBUerrentry@?A0x31fdb9ec@@B 10022438     libucrt:errno.obj
 0002:00002a80       ___acrt_initializers       10022a80     libucrt:initialization.obj
 0002:00002b00       ?module_names@?A0x391cf84c@@3QBQB_WB 10022b00     libucrt:winapi_thunks.obj
 0002:00002f78       ?candidate_modules@?1??try_get_AreFileApisANSI@@YAP6GHXZXZ@4QBW4module_id@?A0x391cf84c@@B 10022f78     libucrt:winapi_thunks.obj
 0002:00002f8c       ?candidate_modules@?1??try_get_FlsAlloc@@YAP6GKP6GXPAX@Z@ZXZ@4QBW4module_id@?A0x391cf84c@@B 10022f8c     libucrt:winapi_thunks.obj
 0002:00002f94       ?candidate_modules@?1??try_get_FlsFree@@YAP6GHK@ZXZ@4QBW4module_id@?A0x391cf84c@@B 10022f94     libucrt:winapi_thunks.obj
 0002:00002f9c       ?candidate_modules@?1??try_get_FlsGetValue@@YAP6GPAXK@ZXZ@4QBW4module_id@?A0x391cf84c@@B 10022f9c     libucrt:winapi_thunks.obj
 0002:00002fa4       ?candidate_modules@?1??try_get_FlsSetValue@@YAP6GHKPAX@ZXZ@4QBW4module_id@?A0x391cf84c@@B 10022fa4     libucrt:winapi_thunks.obj
 0002:00002fac       ?candidate_modules@?1??try_get_InitializeCriticalSectionEx@@YAP6GHPAU_RTL_CRITICAL_SECTION@@KK@ZXZ@4QBW4module_id@?A0x391cf84c@@B 10022fac     libucrt:winapi_thunks.obj
 0002:00002fb4       ?candidate_modules@?1??try_get_LCMapStringEx@@YAP6GHPB_WK0HPA_WHPAU_nlsversioninfo@@PAXJ@ZXZ@4QBW4module_id@?A0x391cf84c@@B 10022fb4     libucrt:winapi_thunks.obj
 0002:00002fcc       ?candidate_modules@?1??try_get_LocaleNameToLCID@@YAP6GKPB_WK@ZXZ@4QBW4module_id@?A0x391cf84c@@B 10022fcc     libucrt:winapi_thunks.obj
 0002:00002fe8       ?candidate_modules@?1??try_get_AppPolicyGetProcessTerminationMethod@@YAP6GJPAXPAW4AppPolicyProcessTerminationMethod@@@ZXZ@4QBW4module_id@?A0x391cf84c@@B 10022fe8     libucrt:winapi_thunks.obj
 0002:00003014       ?candidate_modules@?1??try_get_SetThreadStackGuarantee@@YAP6GHPAK@ZXZ@4QBW4module_id@?A0x391cf84c@@B 10023014     libucrt:winapi_thunks.obj
 0002:00003038       ?strings@?1??fp_format_nan_or_infinity@@YAHW4__acrt_fp_class@@_NPADI1@Z@4QAY03QBDA 10023038     libucrt:cvt.obj
 0002:00003580       ?_mb_locale_names@@3QBQB_WB 10023580     libucrt:mbctype.obj
 0002:00003dc8       ?LcidToLocaleNameTable@?A0x881e4c05@@3QBULcidToLocaleName@1@B 10023dc8     libucrt:lcidtoname_downlevel.obj
 0002:00004ef0       ?LocaleNameToIndexTable@?A0x881e4c05@@3QBULocaleNameIndex@1@B 10024ef0     libucrt:lcidtoname_downlevel.obj
 0002:00006830       LOG_name                   10026830     libucrt:log10_impl.obj
 0002:00006840       _One                       10026840     libucrt:ceil_pentium4.obj
 0002:00006850       _Bns                       10026850     libucrt:ceil_pentium4.obj
 0002:00006860       _Zero                      10026860     libucrt:ceil_pentium4.obj
 0002:00006870       _S                         10026870     libucrt:ceil_pentium4.obj
 0002:00006880       _NegZero                   10026880     libucrt:ceil_pentium4.obj
 0002:00006890       emask                      10026890     libucrt:log10_pentium4.obj
 0002:000068a0       CC                         100268a0     libucrt:log10_pentium4.obj
 0002:000068b0       Magic                      100268b0     libucrt:log10_pentium4.obj
 0002:000068c0       hi_mask                    100268c0     libucrt:log10_pentium4.obj
 0002:000068d0       LOG10_2                    100268d0     libucrt:log10_pentium4.obj
 0002:000068e0       place_L                    100268e0     libucrt:log10_pentium4.obj
 0002:00006900       One                        10026900     libucrt:log10_pentium4.obj
 0002:00006910       Zero                       10026910     libucrt:log10_pentium4.obj
 0002:00006920       Two52                      10026920     libucrt:log10_pentium4.obj
 0002:00006930       Infs                       10026930     libucrt:log10_pentium4.obj
 0002:00006940       NaN                        10026940     libucrt:log10_pentium4.obj
 0002:00006950       coeff                      10026950     libucrt:log10_pentium4.obj
 0002:000069ae       _log2max                   100269ae     libucrt:87tran.obj
 0002:000069b8       _smallarg                  100269b8     libucrt:87tran.obj
 0002:000069c2       _half                      100269c2     libucrt:87tran.obj
 0002:00006a0e       One                        10026a0e     libucrt:87disp.obj
 0002:00006a16       Three                      10026a16     libucrt:87disp.obj
 0002:00006a1e       XAMtoTagTab                10026a1e     libucrt:87disp.obj
 0002:00006a30       One                        10026a30     libucrt:common.obj
 0002:00006a44       DblMax                     10026a44     libucrt:common.obj
 0002:00006a4c       DblMin                     10026a4c     libucrt:common.obj
 0002:00006a54       IeeeAdjO                   10026a54     libucrt:common.obj
 0002:00006a5c       IeeeAdjU                   10026a5c     libucrt:common.obj
 0002:00006a64       _infinity                  10026a64     libucrt:common.obj
 0002:00006a6c       _zero                      10026a6c     libucrt:common.obj
 0002:00006ab8       _over                      10026ab8     libucrt:fpctrl.obj
 0002:00006ac4       _under                     10026ac4     libucrt:fpctrl.obj
 0002:000072f8       ?_names@?1??_get_fname@@9@9 100272f8     libucrt:fpexcept.obj
 0002:000074a0       two32                      100274a0     LIBCMT:ftol2.obj
 0002:000074a4       two63                      100274a4     LIBCMT:ftol2.obj
 0002:000074a8       _NaN                       100274a8     LIBCMT:ftol2.obj
 0002:00007b68       __sehtable$?_AtlVerifyStackAvailable@_ATL_SAFE_ALLOCA_IMPL@ATL@@YA_NK@Z 10027b68     Scanner.obj
 0002:00007b88       __sehtable$___scrt_is_nonwritable_in_current_image 10027b88     LIBCMT:utility.obj
 0002:00007ba4       __catchsym$??2@YAPAXIABUnothrow_t@std@@@Z$2 10027ba4     LIBCMT:new_scalar_nothrow.obj
 0002:00007bb4       __unwindtable$??2@YAPAXIABUnothrow_t@std@@@Z 10027bb4     LIBCMT:new_scalar_nothrow.obj
 0002:00007bc4       __tryblocktable$??2@YAPAXIABUnothrow_t@std@@@Z 10027bc4     LIBCMT:new_scalar_nothrow.obj
 0002:00007bd8       __ehfuncinfo$??2@YAPAXIABUnothrow_t@std@@@Z 10027bd8     LIBCMT:new_scalar_nothrow.obj
 0002:00007c00       __sehtable$?dllmain_crt_process_attach@@YAHQAUHINSTANCE__@@QAX@Z 10027c00     LIBCMT:dll_dllmain.obj
 0002:00007c20       __sehtable$?dllmain_crt_process_detach@@YAH_N@Z 10027c20     LIBCMT:dll_dllmain.obj
 0002:00007c48       __sehtable$?dllmain_dispatch@@YAHQAUHINSTANCE__@@KQAX@Z 10027c48     LIBCMT:dll_dllmain.obj
 0002:00007cf8       __sehtable$___DestructExceptionObject 10027cf8     libvcruntime:ehhelpers.obj
 0002:00007d18       __sehtable$?FrameUnwindToState@__FrameHandler3@@SAXPAUEHRegistrationNode@@PAXPBU_s_FuncInfo@@H@Z 10027d18     libvcruntime:frame.obj
 0002:00007d40       __sehtable$?CallCatchBlock@@YAPAXPAUEHExceptionRecord@@PAUEHRegistrationNode@@PAU_CONTEXT@@PBU_s_FuncInfo@@PAXHK@Z 10027d40     libvcruntime:frame.obj
 0002:00007d68       __catchsym$?CallUnexpected@@YAXPBU_s_ESTypeList@@@Z$2 10027d68     libvcruntime:frame.obj
 0002:00007d78       __unwindtable$?CallUnexpected@@YAXPBU_s_ESTypeList@@@Z 10027d78     libvcruntime:frame.obj
 0002:00007d88       __tryblocktable$?CallUnexpected@@YAXPBU_s_ESTypeList@@@Z 10027d88     libvcruntime:frame.obj
 0002:00007d9c       __ehfuncinfo$?CallUnexpected@@YAXPBU_s_ESTypeList@@@Z 10027d9c     libvcruntime:frame.obj
 0002:00007dc0       __sehtable$??$BuildCatchObjectHelperInternal@V__FrameHandler3@@@@YAHPAUEHExceptionRecord@@PAXPBU_s_HandlerType@@PBU_s_CatchableType@@@Z 10027dc0     libvcruntime:frame.obj
 0002:00007de0       __sehtable$??$BuildCatchObjectInternal@V__FrameHandler3@@@@YAXPAUEHExceptionRecord@@PAXPBU_s_HandlerType@@PBU_s_CatchableType@@@Z 10027de0     libvcruntime:frame.obj
 0002:00007e38       __sehtable$??R<lambda_6e4b09c48022b2350581041d5f6b0c4c>@@QBE@XZ 10027e38     libucrt:exit.obj
 0002:00007e58       __sehtable$??$?RV<lambda_03b1d95aef87969028cfba75ccab2455>@@AAV<lambda_6e4b09c48022b2350581041d5f6b0c4c>@@V<lambda_22bdf7517842c4b3e53723af5aa32b9e>@@@?$__crt_seh_guarded_call@X@@QAEX$$QAV<lambda_03b1d95aef87969028cfba75ccab2455>@@AAV<lambda_6e4b09c48022b2350581041d5f6b0c4c>@@$$QAV<lambda_22bdf7517842c4b3e53723af5aa32b9e>@@@Z 10027e58     libucrt:exit.obj
 0002:00007e78       __sehtable$??$?RV<lambda_8e746cf0007f6ed984d6f78af1fec997>@@AAV<lambda_22ebabd17bc4fa466a2aca6d8deb888d>@@V<lambda_18ed0c0b38a6dc0daf1e7ac6d6adf05e>@@@?$__crt_seh_guarded_call@H@@QAEH$$QAV<lambda_8e746cf0007f6ed984d6f78af1fec997>@@AAV<lambda_22ebabd17bc4fa466a2aca6d8deb888d>@@$$QAV<lambda_18ed0c0b38a6dc0daf1e7ac6d6adf05e>@@@Z 10027e78     libucrt:onexit.obj
 0002:00007e98       __sehtable$??$?RV<lambda_69a2805e680e0e292e8ba93315fe43a8>@@AAV<lambda_f03950bc5685219e0bcd2087efbe011e>@@V<lambda_03fcd07e894ec930e3f35da366ca99d6>@@@?$__crt_seh_guarded_call@H@@QAEH$$QAV<lambda_69a2805e680e0e292e8ba93315fe43a8>@@AAV<lambda_f03950bc5685219e0bcd2087efbe011e>@@$$QAV<lambda_03fcd07e894ec930e3f35da366ca99d6>@@@Z 10027e98     libucrt:onexit.obj
 0002:00007eb8       __sehtable$__query_new_handler 10027eb8     libucrt:new_handler.obj
 0002:00007ed8       __sehtable$_terminate      10027ed8     libucrt:terminate.obj
 0002:00007ef8       __sehtable$??$?RV<lambda_15ade71b0218206bbe3333a0c9b79046>@@AAV<lambda_da44e0f8b0f19ba52fefafb335991732>@@V<lambda_207f2d024fc103971653565357d6cd41>@@@?$__crt_seh_guarded_call@X@@QAEX$$QAV<lambda_15ade71b0218206bbe3333a0c9b79046>@@AAV<lambda_da44e0f8b0f19ba52fefafb335991732>@@$$QAV<lambda_207f2d024fc103971653565357d6cd41>@@@Z 10027ef8     libucrt:per_thread_data.obj
 0002:00007f18       __sehtable$??$?RV<lambda_a7e850c220f1c8d1e6efeecdedd162c6>@@AAV<lambda_46720907175c18b6c9d2717bc0d2d362>@@V<lambda_9048902d66e8d99359bc9897bbb930a8>@@@?$__crt_seh_guarded_call@X@@QAEX$$QAV<lambda_a7e850c220f1c8d1e6efeecdedd162c6>@@AAV<lambda_46720907175c18b6c9d2717bc0d2d362>@@$$QAV<lambda_9048902d66e8d99359bc9897bbb930a8>@@@Z 10027f18     libucrt:per_thread_data.obj
 0002:00007f38       __sehtable$??$?RV<lambda_38edbb1296d33220d7e4dd0ed76b244a>@@AAV<lambda_5ce1d447e08cb34b2473517608e21441>@@V<lambda_fb385d3da700c9147fc39e65dd577a8c>@@@?$__crt_seh_guarded_call@X@@QAEX$$QAV<lambda_38edbb1296d33220d7e4dd0ed76b244a>@@AAV<lambda_5ce1d447e08cb34b2473517608e21441>@@$$QAV<lambda_fb385d3da700c9147fc39e65dd577a8c>@@@Z 10027f38     libucrt:per_thread_data.obj
 0002:00007f58       __sehtable$??$?RV<lambda_6affb1475c98b40b75cdec977db92e3c>@@AAV<lambda_b8d4b9c228a6ecc3f80208dbb4b4a104>@@V<lambda_608742c3c92a14382c1684fc64f96c88>@@@?$__crt_seh_guarded_call@X@@QAEX$$QAV<lambda_6affb1475c98b40b75cdec977db92e3c>@@AAV<lambda_b8d4b9c228a6ecc3f80208dbb4b4a104>@@$$QAV<lambda_608742c3c92a14382c1684fc64f96c88>@@@Z 10027f58     libucrt:per_thread_data.obj
 0002:00007f78       __sehtable$??$?RV<lambda_e5124f882df8998aaf41531e079ba474>@@AAV<lambda_3e16ef9562a7dcce91392c22ab16ea36>@@V<lambda_e25ca0880e6ef98be67edffd8c599615>@@@?$__crt_seh_guarded_call@X@@QAEX$$QAV<lambda_e5124f882df8998aaf41531e079ba474>@@AAV<lambda_3e16ef9562a7dcce91392c22ab16ea36>@@$$QAV<lambda_e25ca0880e6ef98be67edffd8c599615>@@@Z 10027f78     libucrt:wsetlocale.obj
 0002:00007f98       __sehtable$___acrt_initialize_lowio 10027f98     libucrt:ioinit.obj
 0002:00007fb8       __sehtable$?update_thread_multibyte_data_internal@@YAPAU__crt_multibyte_data@@QAU__acrt_ptd@@QAPAU1@@Z 10027fb8     libucrt:mbctype.obj
 0002:00007fd8       __sehtable$??$?RV<lambda_ceb1ee4838e85a9d631eb091e2fbe199>@@AAV<lambda_ae742caa10f662c28703da3d2ea5e57e>@@V<lambda_cd08b5d6af4937fe54fc07d0c9bf6b37>@@@?$__crt_seh_guarded_call@X@@QAEX$$QAV<lambda_ceb1ee4838e85a9d631eb091e2fbe199>@@AAV<lambda_ae742caa10f662c28703da3d2ea5e57e>@@$$QAV<lambda_cd08b5d6af4937fe54fc07d0c9bf6b37>@@@Z 10027fd8     libucrt:mbctype.obj
 0002:00007ff8       __sehtable$_raise          10027ff8     libucrt:signal.obj
 0002:00008018       __sehtable$??$?RV<lambda_cbab9ec6f41b0180b23cc171c22676b0>@@AAV<lambda_44731a7d0e6d81c3e6aa82d741081786>@@V<lambda_4b292cb8dd18144e164572427af410ab>@@@?$__crt_seh_guarded_call@P6AXH@Z@@QAEP6AXH@Z$$QAV<lambda_cbab9ec6f41b0180b23cc171c22676b0>@@AAV<lambda_44731a7d0e6d81c3e6aa82d741081786>@@$$QAV<lambda_4b292cb8dd18144e164572427af410ab>@@@Z 10028018     libucrt:signal.obj
 0002:00008038       __sehtable$??$?RV<lambda_2866be3712abc81a800a822484c830d8>@@AAV<lambda_39ca0ed439415581b5b15c265174cece>@@V<lambda_2b24c74d71094a6cd0cb82e44167d71b>@@@?$__crt_seh_guarded_call@X@@QAEX$$QAV<lambda_2866be3712abc81a800a822484c830d8>@@AAV<lambda_39ca0ed439415581b5b15c265174cece>@@$$QAV<lambda_2b24c74d71094a6cd0cb82e44167d71b>@@@Z 10028038     libucrt:fflush.obj
 0002:00008058       __sehtable$??$?RV<lambda_2cc53f568c5a2bb6f192f930a45d44ea>@@AAV<lambda_ab61a845afdef5b7c387490eaf3616ee>@@V<lambda_c2ffc0b7726aa6be21d5f0026187e748>@@@?$__crt_seh_guarded_call@X@@QAEX$$QAV<lambda_2cc53f568c5a2bb6f192f930a45d44ea>@@AAV<lambda_ab61a845afdef5b7c387490eaf3616ee>@@$$QAV<lambda_c2ffc0b7726aa6be21d5f0026187e748>@@@Z 10028058     libucrt:fflush.obj
 0002:00008078       __sehtable$___acrt_update_thread_locale_data 10028078     libucrt:locale_refcounting.obj
 0002:00008098       __sehtable$__fcloseall     10028098     libucrt:closeall.obj
 0002:000080b8       __sehtable$___acrt_lowio_ensure_fh_exists 100280b8     libucrt:osfinfo.obj
 0002:000080d8       __sehtable$??$?RV<lambda_9e9de3de5fa147e2223d7db92bc10aa6>@@AAV<lambda_38ce7e780aa69e748d6df282ebc68efe>@@V<lambda_8ca6da459f0f6780f1cff60fdc3d00e5>@@@?$__crt_seh_guarded_call@H@@QAEH$$QAV<lambda_9e9de3de5fa147e2223d7db92bc10aa6>@@AAV<lambda_38ce7e780aa69e748d6df282ebc68efe>@@$$QAV<lambda_8ca6da459f0f6780f1cff60fdc3d00e5>@@@Z 100280d8     libucrt:commit.obj
 0002:000080f8       __sehtable$__write         100280f8     libucrt:write.obj
 0002:00008118       __sehtable$_fclose         10028118     libucrt:fclose.obj
 0002:00008138       __sehtable$??$?RV<lambda_218ce3db14220d0be481dae8ef3383b6>@@AAV<lambda_628dfdc04ba53c8bfc02c9951375f3f5>@@V<lambda_57dc472bd5c9d5f3b2cbca59b8a843ae>@@@?$__crt_seh_guarded_call@H@@QAEH$$QAV<lambda_218ce3db14220d0be481dae8ef3383b6>@@AAV<lambda_628dfdc04ba53c8bfc02c9951375f3f5>@@$$QAV<lambda_57dc472bd5c9d5f3b2cbca59b8a843ae>@@@Z 10028138     libucrt:close.obj
 0002:00008158       __sehtable$___set_fpsr_sse2 10028158     libucrt:fpctrl.obj
 0002:00008178       __sehtable$__IsNonwritableInCurrentImage 10028178     LIBCMT:pesect.obj
 0002:000081a0       .edata                     100281a0     OPOSScanner.exp
 0002:000081c8       rgpv                       100281c8     OPOSScanner.exp
 0002:000081d8       rgszName                   100281d8     OPOSScanner.exp
 0002:000081e8       rgwOrd                     100281e8     OPOSScanner.exp
 0002:000081f0       szName                     100281f0     OPOSScanner.exp
 0002:00008200       $N00001                    10028200     OPOSScanner.exp
 0002:00008210       $N00002                    10028210     OPOSScanner.exp
 0002:00008222       $N00003                    10028222     OPOSScanner.exp
 0002:00008234       $N00004                    10028234     OPOSScanner.exp
 0002:00008842       .idata$6                   10028842     kernel32:KERNEL32.dll
 0002:00008a56       .idata$6                   10028a56     user32:USER32.dll
 0002:00008b8a       .idata$6                   10028b8a     gdi32:GDI32.dll
 0002:00008c30       .idata$6                   10028c30     advapi32:ADVAPI32.dll
 0002:00008d4c       .idata$6                   10028d4c     ole32:ole32.dll
 0002:00008d56       .idata$6                   10028d56     oleaut32:OLEAUT32.dll
 0003:00000110       ?ObjectMap@@3PAU_ATL_OBJMAP_ENTRY30@ATL@@A 1002a110     Scanner.obj
 0003:000001c4       ?s_RequiredMethodsPerRelease@@3PAHA 1002a1c4     ScannerImpl.obj
 0003:000001f0       ?s_SOMethodNames@@3PAPADA  1002a1f0     ScannerImpl.obj
 0003:00000260       ?__vcrt_flsindex@@3KA      1002a260     libvcruntime:per_thread_data.obj
 0003:00000280       ?errno_no_memory@@3HA      1002a280     libucrt:errno.obj
 0003:00000284       ?doserrno_no_memory@@3KA   1002a284     libucrt:errno.obj
 0003:00000290       ?__acrt_flsindex@@3KA      1002a290     libucrt:per_thread_data.obj
 0003:00000628       __mbctypes                 1002a628     libucrt:mbctype.obj
 0003:00000730       __mbcasemaps               1002a730     libucrt:mbctype.obj
 0003:00000830       ?__rgctypeflag@@3PADA      1002a830     libucrt:mbctype.obj
 0003:00000838       ?__rgcode_page_info@@3PAUcode_page_info@@A 1002a838     libucrt:mbctype.obj
 0003:00000a90       ?__dcrt_lowio_console_output_handle@@3PAXA 1002aa90     libucrt:initcon.obj
 0003:00000a94       ?__DAZ_ENABLED@?1??__set_fpsr_sse2@@9@9 1002aa94     libucrt:fpctrl.obj
 0003:00000c28       ?is_initialized_as_dll@@3_NA 1002ac28     LIBCMT:utility.obj
 0003:00000c29       ?module_local_atexit_table_initialized@@3_NA 1002ac29     LIBCMT:utility.obj
 0003:00000c2c       ?module_local_atexit_table@@3U_onexit_table_t@@A 1002ac2c     LIBCMT:utility.obj
 0003:00000c38       ?module_local_at_quick_exit_table@@3U_onexit_table_t@@A 1002ac38     LIBCMT:utility.obj
 0003:00000c44       ?g_tss_cv@@3U_RTL_CONDITION_VARIABLE@@A 1002ac44     LIBCMT:thread_safe_statics.obj
 0003:00000c48       ?g_tss_event@@3PAXA        1002ac48     LIBCMT:thread_safe_statics.obj
 0003:00000c4c       ?g_tss_mutex@@3U_RTL_CRITICAL_SECTION@@A 1002ac4c     LIBCMT:thread_safe_statics.obj
 0003:00000c64       ?g_sleep_condition_variable_cs@@3P6GHPAU_RTL_CONDITION_VARIABLE@@PAU_RTL_CRITICAL_SECTION@@K@ZA 1002ac64     LIBCMT:thread_safe_statics.obj
 0003:00000c68       ?g_wake_all_condition_variable@@3P6GXPAU_RTL_CONDITION_VARIABLE@@@ZA 1002ac68     LIBCMT:thread_safe_statics.obj
 0003:00000c70       _GS_ExceptionRecord        1002ac70     LIBCMT:gs_report.obj
 0003:00000cc0       _GS_ContextRecord          1002acc0     LIBCMT:gs_report.obj
 0003:00000f90       ?__proc_attached@@3HA      1002af90     LIBCMT:dll_dllmain.obj
 0003:00000ff4       ?AllocateData@@3P6GPAUAtlThunkData_t@@XZA 1002aff4     atls:atlthunk.obj
 0003:00000ff8       ?InitData@@3P6GXPAUAtlThunkData_t@@PAXI@ZA 1002aff8     atls:atlthunk.obj
 0003:00000ffc       ?DataToCode@@3P6GP6GJPAUHWND__@@IIJ@ZPAUAtlThunkData_t@@@ZA 1002affc     atls:atlthunk.obj
 0003:00001000       ?FreeData@@3P6GXPAUAtlThunkData_t@@@ZA 1002b000     atls:atlthunk.obj
 0003:00001004       ?Initialized@@3_NA         1002b004     atls:atlthunk.obj
 0003:00001014       ?__vcrt_startup_thread_ptd@@3U__vcrt_ptd@@A 1002b014     libvcruntime:per_thread_data.obj
 0003:0000103c       ___vcrt_lock_table         1002b03c     libvcruntime:locks.obj
 0003:00001054       ___vcrt_locks_initialized  1002b054     libvcruntime:locks.obj
 0003:00001080       ?heap@@3V_HeapManager@@A   1002b080     libvcruntime:undname.obj
 0003:00001094       ?module_handles@@3PAPAUHINSTANCE__@@A 1002b094     libvcruntime:winapi_downlevel.obj
 0003:000010a0       ?function_pointers@@3PAPAXA 1002b0a0     libvcruntime:winapi_downlevel.obj
 0003:000010b4       ?__acrt_invalid_parameter_handler@@3V?$dual_state_global@P6AXPB_W00II@Z@__crt_state_management@@A 1002b0b4     libucrt:invalid_parameter.obj
 0003:000010b8       ?c_termination_complete@@3JA 1002b0b8     libucrt:exit.obj
 0003:000010bc       ?thread_local_exit_callback_func@@3P6GXPAXK0@ZA 1002b0bc     libucrt:exit.obj
 0003:000010c8       ?program_name@?1???$common_configure_argv@D@@YAHW4_crt_argv_mode@@@Z@4PADA 1002b0c8     libucrt:argv_parsing.obj
 0003:000011f8       ?__acrt_new_handler@@3V?$dual_state_global@P6AHI@Z@__crt_state_management@@A 1002b1f8     libucrt:new_handler.obj
 0003:00001200       ?module_handles@@3PAPAUHINSTANCE__@@A 1002b200     libucrt:winapi_thunks.obj
 0003:00001250       ?encoded_function_pointers@@3PAPAXA 1002b250     libucrt:winapi_thunks.obj
 0003:000012d8       ?internal_state@?1??_mbtowc_l@@9@4U_Mbstatet@@A 1002b2d8     libucrt:mbtowc.obj
 0003:000012e8       ?enable_percent_n@@3IA     1002b2e8     libucrt:printf_count_output.obj
 0003:00001508       ?__acrt_lock_table@@3PAU_RTL_CRITICAL_SECTION@@A 1002b508     libucrt:locks.obj
 0003:00001658       ?__acrt_locks_initialized@@3IA 1002b658     libucrt:locks.obj
 0003:00001668       ?fSystemSet@@3HA           1002b668     libucrt:mbctype.obj
 0003:0000166c       ?initialized@?1??__acrt_initialize_multibyte@@9@4_NA 1002b66c     libucrt:mbctype.obj
 0003:0000168c       ?ctrlc_action@@3V?$dual_state_global@P6AXH@Z@__crt_state_management@@A 1002b68c     libucrt:signal.obj
 0003:00001690       ?ctrlbreak_action@@3V?$dual_state_global@P6AXH@Z@__crt_state_management@@A 1002b690     libucrt:signal.obj
 0003:00001694       ?abort_action@@3V?$dual_state_global@P6AXH@Z@__crt_state_management@@A 1002b694     libucrt:signal.obj
 0003:00001698       ?term_action@@3V?$dual_state_global@P6AXH@Z@__crt_state_management@@A 1002b698     libucrt:signal.obj
 0003:0000169c       ?user_matherr@@3V?$dual_state_global@P6AHPAU_exception@@@Z@__crt_state_management@@A 1002b69c     libucrt:matherr.obj
 0003:000016a0       ?__acrt_global_new_mode@@3V?$dual_state_global@J@__crt_state_management@@A 1002b6a0     libucrt:new_mode.obj
 0003:000016ac       ?internal_pst@?1??__mbrtoc32_utf8@__crt_mbstring@@YAIPA_UPBDIPAU_Mbstatet@@@Z@4U3@A 1002b6ac     libucrt:mbrtoc32.obj
 0003:000016b4       ?__acrt_app_type@@3W4_crt_app_type@@A 1002b6b4     libucrt:report_runtime_error.obj
 0003:000016bc       __pmatherr_set             1002b6bc     libucrt:libm_error.obj
 0004:00000220       $R000000                   1002c220     Scanner.res
 0004:00000ba8       $R000988                   1002cba8     Scanner.res
 0004:00000c90       $R000A70                   1002cc90     Scanner.res
 0004:00000ef8       $R000CD8                   1002cef8     Scanner.res
 0004:00001448       $R001228                   1002d448     Scanner.res
 0004:00003c80       $R003A60                   1002fc80     Scanner.res
 0004:00003cb0       $R003A90                   1002fcb0     Scanner.res
