 OPOSScale

 Timestamp is 5ed459b5 (Mon Jun  1 10:28:21 2020)

 Preferred load address is 10000000

 Start         Length     Name                   Class
 0001:00000000 00000080H .text$di                CODE
 0001:00000080 0001ea43H .text$mn                CODE
 0001:0001eac3 00000036H .text$x                 CODE
 0001:0001eaf9 00000042H .text$yd                CODE
 0002:00000000 000002fcH .idata$5                DATA
 0002:000002fc 00000004H .00cfg                  DATA
 0002:00000300 00000004H .CRT$XCA                DATA
 0002:00000304 00000004H .CRT$XCL                DATA
 0002:00000308 00000010H .CRT$XCU                DATA
 0002:00000318 00000004H .CRT$XCZ                DATA
 0002:0000031c 00000004H .CRT$XIA                DATA
 0002:00000320 00000010H .CRT$XIC                DATA
 0002:00000330 00000004H .CRT$XIZ                DATA
 0002:00000334 00000004H .CRT$XLA                DATA
 0002:00000338 00000004H .CRT$XLZ                DATA
 0002:0000033c 00000004H .CRT$XPA                DATA
 0002:00000340 00000008H .CRT$XPX                DATA
 0002:00000348 00000004H .CRT$XPXA               DATA
 0002:0000034c 00000004H .CRT$XPZ                DATA
 0002:00000350 00000004H .CRT$XTA                DATA
 0002:00000354 0000000cH .CRT$XTZ                DATA
 0002:00000358 00000000H .gfids$y                DATA
 0002:00000360 00007478H .rdata                  DATA
 0002:000077d8 00000018H .rdata$T                DATA
 0002:000077f0 00000178H .rdata$r                DATA
 0002:00007968 0000001cH .rdata$sxdata           DATA
 0002:00007984 000003d8H .rdata$zzzdbg           DATA
 0002:00007d5c 00000004H .rtc$IAA                DATA
 0002:00007d60 00000004H .rtc$IZZ                DATA
 0002:00007d64 00000004H .rtc$TAA                DATA
 0002:00007d68 00000004H .rtc$TZZ                DATA
 0002:00007d6c 00000004H .tls                    DATA
 0002:00007d70 00000004H .tls$                   DATA
 0002:00007d74 00000004H .tls$ZZZ                DATA
 0002:00007d78 0000062cH .xdata$x                DATA
 0002:000083a4 00000004H ATL$__a                 DATA
 0002:000083a8 00000008H ATL$__z                 DATA
 0002:000083b0 000000a8H .edata                  DATA
 0002:00008458 00000078H .idata$2                DATA
 0002:000084d0 00000014H .idata$3                DATA
 0002:000084e4 000002fcH .idata$4                DATA
 0002:000087e0 00000bceH .idata$6                DATA
 0003:00000000 00000af0H .data                   DATA
 0003:00000af0 00000098H .data$r                 DATA
 0003:00000b88 00000b80H .bss                    DATA
 0004:00000000 00000220H .rsrc$01                DATA
 0004:00000220 000050b0H .rsrc$02                DATA

  Address         Publics by Value              Rva+Base       Lib:Object

 0000:00000000       ___arm64x_redirection_metadata 00000000     <absolute>
 0000:00000000       ___x64_code_ranges_to_entry_points 00000000     <absolute>
 0000:00000000       ___guard_fids_count        00000000     <absolute>
 0000:00000000       ___guard_longjmp_table     00000000     <absolute>
 0000:00000000       ___hybrid_code_map_count   00000000     <absolute>
 0000:00000000       ___guard_iat_count         00000000     <absolute>
 0000:00000000       ___hybrid_auxiliary_iat    00000000     <absolute>
 0000:00000000       ___arm64x_native_entrypoint 00000000     <absolute>
 0000:00000000       ___volatile_metadata       00000000     <absolute>
 0000:00000000       ___dynamic_value_reloc_table 00000000     <absolute>
 0000:00000000       ___guard_longjmp_count     00000000     <absolute>
 0000:00000000       ___guard_fids_table        00000000     <absolute>
 0000:00000000       ___guard_eh_cont_count     00000000     <absolute>
 0000:00000000       ___AbsoluteZero            00000000     <absolute>
 0000:00000000       ___guard_iat_table         00000000     <absolute>
 0000:00000000       __except_list              00000000     <absolute>
 0000:00000000       ___enclave_config          00000000     <absolute>
 0000:00000000       ___guard_eh_cont_table     00000000     <absolute>
 0000:00000000       ___hybrid_code_map         00000000     <absolute>
 0000:00000007       ___safe_se_handler_count   00000007     <absolute>
 0000:0000002c       __tls_array                0000002c     <absolute>
 0000:00000100       ___guard_flags             00000100     <absolute>
 0000:00000000       ___ImageBase               10000000     <linker-defined>
 0001:00000080       ?DupWide@_CW@@AAEXXZ       10001080 f   CWString.obj
 0001:0000009c       ?cw_dup@@YGXPBDAAHAAPA_W1@Z 1000109c f   CWString.obj
 0001:00000124       ?cw_memcpy@@YGHPA_WPBDH@Z  10001124 f   CWString.obj
 0001:00000150       ?cw_strcpy@@YAHPA_WPBD@Z   10001150 f   CWString.obj
 0001:00000163       ?cw_strlen@@YAHPBD@Z       10001163 f   CWString.obj
 0001:0000017c       ??0CAtlComModule@ATL@@QAE@XZ 1000117c f i OposVariant.obj
 0001:000001c1       ??0CAtlWinModule@ATL@@QAE@XZ 100011c1 f i OposVariant.obj
 0001:000001f8       ??0OposDispParms@@QAE@PAVOposVariant@@H@Z 100011f8 f   OposVariant.obj
 0001:00000269       ??1OposDispParms@@QAE@XZ   10001269 f   OposVariant.obj
 0001:00000277       ??A?$CSimpleArray@GV?$CSimpleArrayEqualHelper@G@ATL@@@ATL@@QAEAAGH@Z 10001277 f i OposVariant.obj
 0001:0000029c       ??_Estringdispid@CComTypeInfoHolder@ATL@@QAEPAXI@Z 1000129c f i OposVariant.obj
 0001:00000308       ?AtlWinModuleInit@ATL@@YGJPAU_ATL_WIN_MODULE70@1@@Z 10001308 f i OposVariant.obj
 0001:0000032e       ?AtlWinModuleTerm@ATL@@YGJPAU_ATL_WIN_MODULE70@1@PAUHINSTANCE__@@@Z 1000132e f i OposVariant.obj
 0001:00000391       ?ChangeBSTR@OposVariant@@QAEXPAPA_WAAJ@Z 10001391 f   OposVariant.obj
 0001:000003d2       ?ChangeCURRENCY@OposVariant@@QAEXPATtagCY@@AAJ@Z 100013d2 f   OposVariant.obj
 0001:00000421       ?ChangeLONG@OposVariant@@QAEXPAJAAJ@Z 10001421 f   OposVariant.obj
 0001:00000462       ?GetLONG@OposVariant@@QAEJXZ 10001462 f   OposVariant.obj
 0001:0000047d       ?Init@CComCriticalSection@ATL@@QAEJXZ 1000147d f i OposVariant.obj
 0001:000004a5       ?RemoveAll@?$CSimpleArray@PAUHINSTANCE__@@V?$CSimpleArrayEqualHelper@PAUHINSTANCE__@@@ATL@@@ATL@@QAEXXZ 100014a5 f i atls:atlbase.obj
 0001:000004a5       ?RemoveAll@?$CSimpleArray@GV?$CSimpleArrayEqualHelper@G@ATL@@@ATL@@QAEXXZ 100014a5 f i OposVariant.obj
 0001:000004c2       ?SetBSTR@OposVariant@@QAEXPA_WAAJ@Z 100014c2 f   OposVariant.obj
 0001:000004f6       ?SetBSTR_Copy@OposVariant@@QAEXPA_WAAJ@Z 100014f6 f   OposVariant.obj
 0001:00000546       ?SetBSTR_InOutPtr@OposVariant@@QAE_NPAPA_WAAJ@Z 10001546 f   OposVariant.obj
 0001:0000057d       ?SetCURRENCY@OposVariant@@QAEXTtagCY@@@Z 1000157d f   OposVariant.obj
 0001:000005a5       ?SetCURRENCY_Ptr@OposVariant@@QAEXPATtagCY@@AAJ@Z 100015a5 f   OposVariant.obj
 0001:000005d8       ?SetDispatch_Ptr@OposVariant@@QAEXPAUIDispatch@@AAJ@Z 100015d8 f   OposVariant.obj
 0001:00000613       ?SetLONG@OposVariant@@QAEXJ@Z 10001613 f   OposVariant.obj
 0001:00000635       ?SetLONG_Ptr@OposVariant@@QAEXPAJAAJ@Z 10001635 f   OposVariant.obj
 0001:00000668       ?SetString@OposVariant@@QAEXPB_WAAJ@Z 10001668 f   OposVariant.obj
 0001:000006ae       ?SetVARIANT_BOOL@OposVariant@@QAEXF@Z 100016ae f   OposVariant.obj
 0001:000006d8       ?Term@CAtlComModule@ATL@@QAEXXZ 100016d8 f i OposVariant.obj
 0001:00000722       ?_AtlRaiseException@ATL@@YAXKK@Z 10001722 f i OposVariant.obj
 0001:00000737       ??_E?$CComObject@VCOPOSScale@@@ATL@@W3AEPAXI@Z 10001737 f i Scale.obj
 0001:0000073f       ??_E?$CComObject@VCOPOSScale@@@ATL@@WEM@AEPAXI@Z 1000173f f i Scale.obj
 0001:00000747       ?QueryInterface@?$CComObject@VCOPOSScale@@@ATL@@WHA@AGJABU_GUID@@PAPAX@Z 10001747 f i Scale.obj
 0001:00000751       ?AddRef@?$CComObject@VCOPOSScale@@@ATL@@WHA@AGKXZ 10001751 f i Scale.obj
 0001:0000075b       ?Release@?$CComObject@VCOPOSScale@@@ATL@@WHA@AGKXZ 1000175b f i Scale.obj
 0001:00000765       ?QueryInterface@?$CComObject@VCOPOSScale@@@ATL@@WHE@AGJABU_GUID@@PAPAX@Z 10001765 f i Scale.obj
 0001:0000076f       ?AddRef@?$CComObject@VCOPOSScale@@@ATL@@WHE@AGKXZ 1000176f f i Scale.obj
 0001:00000779       ?Release@?$CComObject@VCOPOSScale@@@ATL@@WHE@AGKXZ 10001779 f i Scale.obj
 0001:00000783       ?QueryInterface@?$CComObject@VCOPOSScale@@@ATL@@WHI@AGJABU_GUID@@PAPAX@Z 10001783 f i Scale.obj
 0001:0000078d       ?AddRef@?$CComObject@VCOPOSScale@@@ATL@@WHI@AGKXZ 1000178d f i Scale.obj
 0001:00000797       ?Release@?$CComObject@VCOPOSScale@@@ATL@@WHI@AGKXZ 10001797 f i Scale.obj
 0001:000007a1       ?QueryInterface@?$CComObject@VCOPOSScale@@@ATL@@WHM@AGJABU_GUID@@PAPAX@Z 100017a1 f i Scale.obj
 0001:000007ab       ?AddRef@?$CComObject@VCOPOSScale@@@ATL@@WHM@AGKXZ 100017ab f i Scale.obj
 0001:000007b5       ?Release@?$CComObject@VCOPOSScale@@@ATL@@WHM@AGKXZ 100017b5 f i Scale.obj
 0001:000007bf       ?QueryInterface@?$CComObject@VCOPOSScale@@@ATL@@WIA@AGJABU_GUID@@PAPAX@Z 100017bf f i Scale.obj
 0001:000007cc       ?AddRef@?$CComObject@VCOPOSScale@@@ATL@@WIA@AGKXZ 100017cc f i Scale.obj
 0001:000007d9       ?Release@?$CComObject@VCOPOSScale@@@ATL@@WIA@AGKXZ 100017d9 f i Scale.obj
 0001:000007e6       ?QueryInterface@?$CComObject@VCOPOSScale@@@ATL@@WIE@AGJABU_GUID@@PAPAX@Z 100017e6 f i Scale.obj
 0001:000007f3       ?AddRef@?$CComObject@VCOPOSScale@@@ATL@@WIE@AGKXZ 100017f3 f i Scale.obj
 0001:00000800       ?Release@?$CComObject@VCOPOSScale@@@ATL@@WIE@AGKXZ 10001800 f i Scale.obj
 0001:0000080d       ?QueryInterface@?$CComObject@VCOPOSScale@@@ATL@@WII@AGJABU_GUID@@PAPAX@Z 1000180d f i Scale.obj
 0001:0000081a       ?AddRef@?$CComObject@VCOPOSScale@@@ATL@@WII@AGKXZ 1000181a f i Scale.obj
 0001:00000827       ?Release@?$CComObject@VCOPOSScale@@@ATL@@WII@AGKXZ 10001827 f i Scale.obj
 0001:00000834       ?QueryInterface@?$CComObject@VCOPOSScale@@@ATL@@WIM@AGJABU_GUID@@PAPAX@Z 10001834 f i Scale.obj
 0001:00000841       ?AddRef@?$CComObject@VCOPOSScale@@@ATL@@WIM@AGKXZ 10001841 f i Scale.obj
 0001:0000084e       ?Release@?$CComObject@VCOPOSScale@@@ATL@@WIM@AGKXZ 1000184e f i Scale.obj
 0001:0000085b       ?QueryInterface@?$CComObject@VCOPOSScale@@@ATL@@WJA@AGJABU_GUID@@PAPAX@Z 1000185b f i Scale.obj
 0001:00000868       ?AddRef@?$CComObject@VCOPOSScale@@@ATL@@WJA@AGKXZ 10001868 f i Scale.obj
 0001:00000875       ?Release@?$CComObject@VCOPOSScale@@@ATL@@WJA@AGKXZ 10001875 f i Scale.obj
 0001:00000882       ?QueryInterface@?$CComObject@VCOPOSScale@@@ATL@@WJE@AGJABU_GUID@@PAPAX@Z 10001882 f i Scale.obj
 0001:0000088f       ?AddRef@?$CComObject@VCOPOSScale@@@ATL@@WJE@AGKXZ 1000188f f i Scale.obj
 0001:0000089c       ?Release@?$CComObject@VCOPOSScale@@@ATL@@WJE@AGKXZ 1000189c f i Scale.obj
 0001:000008a9       ?QueryInterface@?$CComObject@VCOPOSScale@@@ATL@@WJI@AGJABU_GUID@@PAPAX@Z 100018a9 f i Scale.obj
 0001:000008b6       ?AddRef@?$CComObject@VCOPOSScale@@@ATL@@WJI@AGKXZ 100018b6 f i Scale.obj
 0001:000008c3       ?Release@?$CComObject@VCOPOSScale@@@ATL@@WJI@AGKXZ 100018c3 f i Scale.obj
 0001:000008d0       ?QueryInterface@?$CComObject@VCOPOSScale@@@ATL@@WJM@AGJABU_GUID@@PAPAX@Z 100018d0 f i Scale.obj
 0001:000008dd       ?AddRef@?$CComObject@VCOPOSScale@@@ATL@@WJM@AGKXZ 100018dd f i Scale.obj
 0001:000008ea       ?Release@?$CComObject@VCOPOSScale@@@ATL@@WJM@AGKXZ 100018ea f i Scale.obj
 0001:000008f7       ?QueryInterface@?$CComObject@VCOPOSScale@@@ATL@@WKA@AGJABU_GUID@@PAPAX@Z 100018f7 f i Scale.obj
 0001:00000904       ?AddRef@?$CComObject@VCOPOSScale@@@ATL@@WKA@AGKXZ 10001904 f i Scale.obj
 0001:00000911       ?Release@?$CComObject@VCOPOSScale@@@ATL@@WKA@AGKXZ 10001911 f i Scale.obj
 0001:0000091e       ?AddRef@?$CComObject@VCOPOSScale@@@ATL@@WKI@AGKXZ 1000191e f i Scale.obj
 0001:0000092b       ?Release@?$CComObject@VCOPOSScale@@@ATL@@WKI@AGKXZ 1000192b f i Scale.obj
 0001:00000938       ?AddRef@?$CComObject@VCOPOSScale@@@ATL@@WLE@AGKXZ 10001938 f i Scale.obj
 0001:00000945       ?Release@?$CComObject@VCOPOSScale@@@ATL@@WLE@AGKXZ 10001945 f i Scale.obj
 0001:00000952       ?CreateInstance@CComClassFactory@ATL@@UAGJPAUIUnknown@@ABU_GUID@@PAPAX@Z 10001952 f i Scale.obj
 0001:00000990       ?LockServer@CComClassFactory@ATL@@UAGJH@Z 10001990 f i Scale.obj
 0001:000009af       ??_E?$CComContainedObject@VCOPOSScale@@@ATL@@W3AEPAXI@Z 100019af f i Scale.obj
 0001:000009b7       ??_E?$CComContainedObject@VCOPOSScale@@@ATL@@WEM@AEPAXI@Z 100019b7 f i Scale.obj
 0001:000009bf       ?QueryInterface@?$CComContainedObject@VCOPOSScale@@@ATL@@WHA@AGJABU_GUID@@PAPAX@Z 100019bf f i Scale.obj
 0001:000009c9       ?AddRef@?$CComContainedObject@VCOPOSScale@@@ATL@@WHA@AGKXZ 100019c9 f i Scale.obj
 0001:000009d3       ?Release@?$CComContainedObject@VCOPOSScale@@@ATL@@WHA@AGKXZ 100019d3 f i Scale.obj
 0001:000009dd       ?QueryInterface@?$CComContainedObject@VCOPOSScale@@@ATL@@WHE@AGJABU_GUID@@PAPAX@Z 100019dd f i Scale.obj
 0001:000009e7       ?AddRef@?$CComContainedObject@VCOPOSScale@@@ATL@@WHE@AGKXZ 100019e7 f i Scale.obj
 0001:000009f1       ?Release@?$CComContainedObject@VCOPOSScale@@@ATL@@WHE@AGKXZ 100019f1 f i Scale.obj
 0001:000009fb       ??_GCComClassFactory@ATL@@UAEPAXI@Z 100019fb f i Scale.obj
 0001:000009fb       ??_ECComClassFactory@ATL@@UAEPAXI@Z 100019fb f i Scale.obj
 0001:00000a26       ?QueryInterface@?$CComContainedObject@VCOPOSScale@@@ATL@@WHI@AGJABU_GUID@@PAPAX@Z 10001a26 f i Scale.obj
 0001:00000a30       ?AddRef@?$CComContainedObject@VCOPOSScale@@@ATL@@WHI@AGKXZ 10001a30 f i Scale.obj
 0001:00000a3a       ?Release@?$CComContainedObject@VCOPOSScale@@@ATL@@WHI@AGKXZ 10001a3a f i Scale.obj
 0001:00000a44       ?QueryInterface@?$CComContainedObject@VCOPOSScale@@@ATL@@WHM@AGJABU_GUID@@PAPAX@Z 10001a44 f i Scale.obj
 0001:00000a4e       ?AddRef@?$CComContainedObject@VCOPOSScale@@@ATL@@WHM@AGKXZ 10001a4e f i Scale.obj
 0001:00000a58       ?Release@?$CComContainedObject@VCOPOSScale@@@ATL@@WHM@AGKXZ 10001a58 f i Scale.obj
 0001:00000a62       ?QueryInterface@?$CComContainedObject@VCOPOSScale@@@ATL@@WIA@AGJABU_GUID@@PAPAX@Z 10001a62 f i Scale.obj
 0001:00000a6f       ?AddRef@?$CComContainedObject@VCOPOSScale@@@ATL@@WIA@AGKXZ 10001a6f f i Scale.obj
 0001:00000a7c       ?Release@?$CComContainedObject@VCOPOSScale@@@ATL@@WIA@AGKXZ 10001a7c f i Scale.obj
 0001:00000a89       ?QueryInterface@?$CComContainedObject@VCOPOSScale@@@ATL@@WIE@AGJABU_GUID@@PAPAX@Z 10001a89 f i Scale.obj
 0001:00000a96       ?AddRef@?$CComContainedObject@VCOPOSScale@@@ATL@@WIE@AGKXZ 10001a96 f i Scale.obj
 0001:00000aa3       ?Release@?$CComContainedObject@VCOPOSScale@@@ATL@@WIE@AGKXZ 10001aa3 f i Scale.obj
 0001:00000ab0       ?QueryInterface@?$CComContainedObject@VCOPOSScale@@@ATL@@WII@AGJABU_GUID@@PAPAX@Z 10001ab0 f i Scale.obj
 0001:00000abd       ?AddRef@?$CComContainedObject@VCOPOSScale@@@ATL@@WII@AGKXZ 10001abd f i Scale.obj
 0001:00000aca       ?Release@?$CComContainedObject@VCOPOSScale@@@ATL@@WII@AGKXZ 10001aca f i Scale.obj
 0001:00000ad7       ?QueryInterface@?$CComContainedObject@VCOPOSScale@@@ATL@@WIM@AGJABU_GUID@@PAPAX@Z 10001ad7 f i Scale.obj
 0001:00000ae4       ?AddRef@?$CComContainedObject@VCOPOSScale@@@ATL@@WIM@AGKXZ 10001ae4 f i Scale.obj
 0001:00000af1       ?Release@?$CComContainedObject@VCOPOSScale@@@ATL@@WIM@AGKXZ 10001af1 f i Scale.obj
 0001:00000afe       ?QueryInterface@?$CComContainedObject@VCOPOSScale@@@ATL@@WJA@AGJABU_GUID@@PAPAX@Z 10001afe f i Scale.obj
 0001:00000b0b       ?AddRef@?$CComContainedObject@VCOPOSScale@@@ATL@@WJA@AGKXZ 10001b0b f i Scale.obj
 0001:00000b18       ?Release@?$CComContainedObject@VCOPOSScale@@@ATL@@WJA@AGKXZ 10001b18 f i Scale.obj
 0001:00000b25       ?QueryInterface@?$CComContainedObject@VCOPOSScale@@@ATL@@WJE@AGJABU_GUID@@PAPAX@Z 10001b25 f i Scale.obj
 0001:00000b32       ?AddRef@?$CComContainedObject@VCOPOSScale@@@ATL@@WJE@AGKXZ 10001b32 f i Scale.obj
 0001:00000b3f       ?Release@?$CComContainedObject@VCOPOSScale@@@ATL@@WJE@AGKXZ 10001b3f f i Scale.obj
 0001:00000b4c       ?QueryInterface@?$CComContainedObject@VCOPOSScale@@@ATL@@WJI@AGJABU_GUID@@PAPAX@Z 10001b4c f i Scale.obj
 0001:00000b59       ?AddRef@?$CComContainedObject@VCOPOSScale@@@ATL@@WJI@AGKXZ 10001b59 f i Scale.obj
 0001:00000b66       ?Release@?$CComContainedObject@VCOPOSScale@@@ATL@@WJI@AGKXZ 10001b66 f i Scale.obj
 0001:00000b73       ?QueryInterface@?$CComContainedObject@VCOPOSScale@@@ATL@@WJM@AGJABU_GUID@@PAPAX@Z 10001b73 f i Scale.obj
 0001:00000b80       ?AddRef@?$CComContainedObject@VCOPOSScale@@@ATL@@WJM@AGKXZ 10001b80 f i Scale.obj
 0001:00000b8d       ?Release@?$CComContainedObject@VCOPOSScale@@@ATL@@WJM@AGKXZ 10001b8d f i Scale.obj
 0001:00000b9a       ?QueryInterface@?$CComContainedObject@VCOPOSScale@@@ATL@@WKA@AGJABU_GUID@@PAPAX@Z 10001b9a f i Scale.obj
 0001:00000ba7       ?AddRef@?$CComContainedObject@VCOPOSScale@@@ATL@@WKA@AGKXZ 10001ba7 f i Scale.obj
 0001:00000bb4       ?Release@?$CComContainedObject@VCOPOSScale@@@ATL@@WKA@AGKXZ 10001bb4 f i Scale.obj
 0001:00000bc1       ?AddRef@?$CComContainedObject@VCOPOSScale@@@ATL@@WKI@AGKXZ 10001bc1 f i Scale.obj
 0001:00000bce       ?Release@?$CComContainedObject@VCOPOSScale@@@ATL@@WKI@AGKXZ 10001bce f i Scale.obj
 0001:00000bdb       ?AddRef@?$CComContainedObject@VCOPOSScale@@@ATL@@WLE@AGKXZ 10001bdb f i Scale.obj
 0001:00000be8       ?Release@?$CComContainedObject@VCOPOSScale@@@ATL@@WLE@AGKXZ 10001be8 f i Scale.obj
 0001:00000bf5       ?GetWindowProc@?$CWindowImplBaseT@VCWindow@ATL@@V?$CWinTraits@$0FGAAAAAA@$0A@@2@@ATL@@UAEP6GJPAUHWND__@@IIJ@ZXZ 10001bf5 f i Scale.obj
 0001:00000bfb       ?StartWindowProc@?$CWindowImplBaseT@VCWindow@ATL@@V?$CWinTraits@$0FGAAAAAA@$0A@@2@@ATL@@SGJPAUHWND__@@IIJ@Z 10001bfb f i Scale.obj
 0001:00000c4f       ?ObjectMain@CComObjectRootBase@ATL@@SGX_N@Z 10001c4f f i Scale.obj
 0001:00000c4f       ?OnFinalMessage@?$CWindowImplBaseT@VCWindow@ATL@@V?$CWinTraits@$0FGAAAAAA@$0A@@2@@ATL@@UAEXPAUHWND__@@@Z 10001c4f f i Scale.obj
 0001:00000c52       ?GetTypeInfoCount@?$IDispatchImpl@UIOPOSScale@@$1?IID_IOPOSScale@@3U_GUID@@B$1?LIBID_OposScale_CCO@@3U3@B$00$0A@VCComTypeInfoHolder@ATL@@@ATL@@UAGJPAI@Z 10001c52 f i Scale.obj
 0001:00000c6f       ?GetTypeInfo@?$IDispatchImpl@UIOPOSScale@@$1?IID_IOPOSScale@@3U_GUID@@B$1?LIBID_OposScale_CCO@@3U3@B$00$0A@VCComTypeInfoHolder@ATL@@@ATL@@UAGJIKPAPAUITypeInfo@@@Z 10001c6f f i Scale.obj
 0001:00000c93       ?GetIDsOfNames@?$IDispatchImpl@UIOPOSScale@@$1?IID_IOPOSScale@@3U_GUID@@B$1?LIBID_OposScale_CCO@@3U3@B$00$0A@VCComTypeInfoHolder@ATL@@@ATL@@UAGJABU_GUID@@PAPA_WIKPAJ@Z 10001c93 f i Scale.obj
 0001:00000cb3       ?Invoke@?$IDispatchImpl@UIOPOSScale@@$1?IID_IOPOSScale@@3U_GUID@@B$1?LIBID_OposScale_CCO@@3U3@B$00$0A@VCComTypeInfoHolder@ATL@@@ATL@@UAGJJABU_GUID@@KGPAUtagDISPPARAMS@@PAUtagVARIANT@@PAUtagEXCEPINFO@@PAI@Z 10001cb3 f i Scale.obj
 0001:00000cc1       ?CreateControlWindow@?$CComControl@VCOPOSScale@@V?$CWindowImpl@VCOPOSScale@@VCWindow@ATL@@V?$CWinTraits@$0FGAAAAAA@$0A@@3@@ATL@@@ATL@@UAEPAUHWND__@@PAU3@AAUtagRECT@@@Z 10001cc1 f i Scale.obj
 0001:00000cf0       ?ControlQueryInterface@?$CComControl@VCOPOSScale@@V?$CWindowImpl@VCOPOSScale@@VCWindow@ATL@@V?$CWinTraits@$0FGAAAAAA@$0A@@3@@ATL@@@ATL@@UAEJABU_GUID@@PAPAX@Z 10001cf0 f i Scale.obj
 0001:00000d0b       ?GetClassID@?$IPersistStreamInitImpl@VCOPOSScale@@@ATL@@UAGJPAU_GUID@@@Z 10001d0b f i Scale.obj
 0001:00000d0b       ?GetClassID@?$IPersistStorageImpl@VCOPOSScale@@@ATL@@UAGJPAU_GUID@@@Z 10001d0b f i Scale.obj
 0001:00000d0b       ?GetUserClassID@?$IOleObjectImpl@VCOPOSScale@@@ATL@@UAGJPAU_GUID@@@Z 10001d0b f i Scale.obj
 0001:00000d2f       ?IsDirty@?$IPersistStreamInitImpl@VCOPOSScale@@@ATL@@UAGJXZ 10001d2f f i Scale.obj
 0001:00000d4e       ?Load@?$IPersistStreamInitImpl@VCOPOSScale@@@ATL@@UAGJPAUIStream@@@Z 10001d4e f i Scale.obj
 0001:00000d6d       ?Save@?$IPersistStreamInitImpl@VCOPOSScale@@@ATL@@UAGJPAUIStream@@H@Z 10001d6d f i Scale.obj
 0001:00000d8f       ?GetSizeMax@?$IPersistStreamInitImpl@VCOPOSScale@@@ATL@@UAGJPAT_ULARGE_INTEGER@@@Z 10001d8f f i Scale.obj
 0001:00000f6e       ?InitNew@?$IPersistStreamInitImpl@VCOPOSScale@@@ATL@@UAGJXZ 10001f6e f i Scale.obj
 0001:00000f8b       ?Unfreeze@?$IViewObjectExImpl@VCOPOSScale@@@ATL@@UAGJK@Z 10001f8b f i Scale.obj
 0001:00000f8b       ?ContextSensitiveHelp@?$IOleInPlaceObjectWindowlessImpl@VCOPOSScale@@@ATL@@UAGJH@Z 10001f8b f i Scale.obj
 0001:00000f8b       ?GetDropTarget@?$IOleInPlaceObjectWindowlessImpl@VCOPOSScale@@@ATL@@UAGJPAPAUIDropTarget@@@Z 10001f8b f i Scale.obj
 0001:00000f8b       ?GetControlInfo@?$IOleControlImpl@VCOPOSScale@@@ATL@@UAGJPAUtagCONTROLINFO@@@Z 10001f8b f i Scale.obj
 0001:00000f8b       ?ContextSensitiveHelp@?$IOleInPlaceActiveObjectImpl@VCOPOSScale@@@ATL@@UAGJH@Z 10001f8b f i Scale.obj
 0001:00000f8b       ?SetColorScheme@?$IOleObjectImpl@VCOPOSScale@@@ATL@@UAGJPAUtagLOGPALETTE@@@Z 10001f8b f i Scale.obj
 0001:00000f8b       ?QueryGetData@?$IDataObjectImpl@VCOPOSScale@@@ATL@@UAGJPAUtagFORMATETC@@@Z 10001f8b f i Scale.obj
 0001:00000f8b       ?SOOutputCompleteDummy@COPOSScale@@MAGJJ@Z 10001f8b f i Scale.obj
 0001:00000f8b       ?OnMnemonic@?$IOleControlImpl@VCOPOSScale@@@ATL@@UAGJPAUtagMSG@@@Z 10001f8b f i Scale.obj
 0001:00000f93       ?SaveCompleted@?$IPersistStorageImpl@VCOPOSScale@@@ATL@@UAGJPAUIStorage@@@Z 10001f93 f i Scale.obj
 0001:00000f93       ?OnAmbientPropertyChange@?$IOleControlImpl@VCOPOSScale@@@ATL@@UAGJJ@Z 10001f93 f i Scale.obj
 0001:00000f93       ?EnableModeless@?$IOleInPlaceActiveObjectImpl@VCOPOSScale@@@ATL@@UAGJH@Z 10001f93 f i Scale.obj
 0001:00000f93       ?OnFrameWindowActivate@?$IOleInPlaceActiveObjectImpl@VCOPOSScale@@@ATL@@UAGJH@Z 10001f93 f i Scale.obj
 0001:00000f98       ?SetClientSite@?$IOleObjectImpl@VCOPOSScale@@@ATL@@UAGJPAUIOleClientSite@@@Z 10001f98 f i Scale.obj
 0001:00000fb5       ?GetClientSite@?$IOleObjectImpl@VCOPOSScale@@@ATL@@UAGJPAPAUIOleClientSite@@@Z 10001fb5 f i Scale.obj
 0001:00000fd2       ?SetHostNames@?$IOleObjectImpl@VCOPOSScale@@@ATL@@UAGJPB_W0@Z 10001fd2 f i Scale.obj
 0001:00000fd7       ?Close@?$IOleObjectImpl@VCOPOSScale@@@ATL@@UAGJK@Z 10001fd7 f i Scale.obj
 0001:00000ff4       ?GetCanonicalFormatEtc@?$IDataObjectImpl@VCOPOSScale@@@ATL@@UAGJPAUtagFORMATETC@@0@Z 10001ff4 f i Scale.obj
 0001:00000ff4       ?GetClipboardData@?$IOleObjectImpl@VCOPOSScale@@@ATL@@UAGJKPAPAUIDataObject@@@Z 10001ff4 f i Scale.obj
 0001:00000ff4       ?SetMoniker@?$IOleObjectImpl@VCOPOSScale@@@ATL@@UAGJKPAUIMoniker@@@Z 10001ff4 f i Scale.obj
 0001:00000ff4       ?QueryInterface@CRegObject@ATL@@UAGJABU_GUID@@PAPAX@Z 10001ff4 f i Scale.obj
 0001:00000ff4       ?GetDataHere@?$IDataObjectImpl@VCOPOSScale@@@ATL@@UAGJPAUtagFORMATETC@@PAUtagSTGMEDIUM@@@Z 10001ff4 f i Scale.obj
 0001:00000ff4       ?GetRect@?$IViewObjectExImpl@VCOPOSScale@@@ATL@@UAGJKPAU_RECTL@@@Z 10001ff4 f i Scale.obj
 0001:00000ff4       ?EnumFormatEtc@?$IDataObjectImpl@VCOPOSScale@@@ATL@@UAGJKPAPAUIEnumFORMATETC@@@Z 10001ff4 f i Scale.obj
 0001:00000ffc       ?InitFromData@?$IOleObjectImpl@VCOPOSScale@@@ATL@@UAGJPAUIDataObject@@HK@Z 10001ffc f i Scale.obj
 0001:00000ffc       ?GetMoniker@?$IOleObjectImpl@VCOPOSScale@@@ATL@@UAGJKKPAPAUIMoniker@@@Z 10001ffc f i Scale.obj
 0001:00000ffc       ?SetData@?$IDataObjectImpl@VCOPOSScale@@@ATL@@UAGJPAUtagFORMATETC@@PAUtagSTGMEDIUM@@H@Z 10001ffc f i Scale.obj
 0001:00001004       ?DoVerb@?$IOleObjectImpl@VCOPOSScale@@@ATL@@UAGJJPAUtagMSG@@PAUIOleClientSite@@JPAUHWND__@@PBUtagRECT@@@Z 10002004 f i Scale.obj
 0001:000010f8       ?EnumVerbs@?$IOleObjectImpl@VCOPOSScale@@@ATL@@UAGJPAPAUIEnumOLEVERB@@@Z 100020f8 f i Scale.obj
 0001:0000111a       ?IsUpToDate@?$IOleObjectImpl@VCOPOSScale@@@ATL@@UAGJXZ 1000211a f i Scale.obj
 0001:0000111a       ?Update@?$IOleObjectImpl@VCOPOSScale@@@ATL@@UAGJXZ 1000211a f i Scale.obj
 0001:0000111a       ?HandsOffStorage@?$IPersistStorageImpl@VCOPOSScale@@@ATL@@UAGJXZ 1000211a f i Scale.obj
 0001:0000111a       ?Release@CRegObject@ATL@@UAGKXZ 1000211a f i Scale.obj
 0001:0000111f       ?GetUserType@?$IOleObjectImpl@VCOPOSScale@@@ATL@@UAGJKPAPA_W@Z 1000211f f i Scale.obj
 0001:00001137       ?SetExtent@?$IOleObjectImpl@VCOPOSScale@@@ATL@@UAGJKPAUtagSIZE@@@Z 10002137 f i Scale.obj
 0001:00001157       ?GetExtent@?$IOleObjectImpl@VCOPOSScale@@@ATL@@UAGJKPAUtagSIZE@@@Z 10002157 f i Scale.obj
 0001:00001195       ?Advise@?$IOleObjectImpl@VCOPOSScale@@@ATL@@UAGJPAUIAdviseSink@@PAK@Z 10002195 f i Scale.obj
 0001:000011b5       ?Unadvise@?$IOleObjectImpl@VCOPOSScale@@@ATL@@UAGJK@Z 100021b5 f i Scale.obj
 0001:000011e4       ?EnumAdvise@?$IOleObjectImpl@VCOPOSScale@@@ATL@@UAGJPAPAUIEnumSTATDATA@@@Z 100021e4 f i Scale.obj
 0001:00001224       ?GetMiscStatus@?$IOleObjectImpl@VCOPOSScale@@@ATL@@UAGJKPAK@Z 10002224 f i Scale.obj
 0001:0000123c       ?GetWindow@?$IOleInPlaceActiveObjectImpl@VCOPOSScale@@@ATL@@UAGJPAPAUHWND__@@@Z 1000223c f i Scale.obj
 0001:00001289       ?TranslateAcceleratorW@?$IOleInPlaceActiveObjectImpl@VCOPOSScale@@@ATL@@UAGJPAUtagMSG@@@Z 10002289 f i Scale.obj
 0001:00001337       ?OnDocWindowActivate@?$IOleInPlaceActiveObjectImpl@VCOPOSScale@@@ATL@@UAGJH@Z 10002337 f i Scale.obj
 0001:00001359       ?ResizeBorder@?$IOleInPlaceActiveObjectImpl@VCOPOSScale@@@ATL@@UAGJPBUtagRECT@@PAUIOleInPlaceUIWindow@@H@Z 10002359 f i Scale.obj
 0001:0000135e       ?Draw@?$IViewObjectExImpl@VCOPOSScale@@@ATL@@UAGJKJPAXPAUtagDVTARGETDEVICE@@PAUHDC__@@2PBU_RECTL@@3P6GHK@ZK@Z 1000235e f i Scale.obj
 0001:00001390       ?GetColorSet@?$IViewObjectExImpl@VCOPOSScale@@@ATL@@UAGJKJPAXPAUtagDVTARGETDEVICE@@PAUHDC__@@PAPAUtagLOGPALETTE@@@Z 10002390 f i Scale.obj
 0001:00001398       ?Freeze@?$IViewObjectExImpl@VCOPOSScale@@@ATL@@UAGJKJPAXPAK@Z 10002398 f i Scale.obj
 0001:000013a0       ?SetAdvise@?$IViewObjectExImpl@VCOPOSScale@@@ATL@@UAGJKKPAUIAdviseSink@@@Z 100023a0 f i Scale.obj
 0001:000013bf       ?GetAdvise@?$IViewObjectExImpl@VCOPOSScale@@@ATL@@UAGJPAK0PAPAUIAdviseSink@@@Z 100023bf f i Scale.obj
 0001:000013f4       ?GetExtent@?$IViewObjectExImpl@VCOPOSScale@@@ATL@@UAGJKJPAUtagDVTARGETDEVICE@@PAUtagSIZE@@@Z 100023f4 f i Scale.obj
 0001:00001425       ?GetViewStatus@?$IViewObjectExImpl@VCOPOSScale@@@ATL@@UAGJPAK@Z 10002425 f i Scale.obj
 0001:00001442       ?QueryHitPoint@?$IViewObjectExImpl@VCOPOSScale@@@ATL@@UAGJKPBUtagRECT@@UtagPOINT@@JPAK@Z 10002442 f i Scale.obj
 0001:00001483       ?QueryHitRect@?$IViewObjectExImpl@VCOPOSScale@@@ATL@@UAGJKPBUtagRECT@@0JPAK@Z 10002483 f i Scale.obj
 0001:000014de       ?GetNaturalExtent@?$IViewObjectExImpl@VCOPOSScale@@@ATL@@UAGJKJPAUtagDVTARGETDEVICE@@PAUHDC__@@PAUtagExtentInfo@@PAUtagSIZE@@@Z 100024de f i Scale.obj
 0001:00001529       ?GetWindow@?$IOleInPlaceObjectWindowlessImpl@VCOPOSScale@@@ATL@@UAGJPAPAUHWND__@@@Z 10002529 f i Scale.obj
 0001:00001576       ?InPlaceDeactivate@?$IOleInPlaceObjectWindowlessImpl@VCOPOSScale@@@ATL@@UAGJXZ 10002576 f i Scale.obj
 0001:00001590       ?UIDeactivate@?$IOleInPlaceObjectWindowlessImpl@VCOPOSScale@@@ATL@@UAGJXZ 10002590 f i Scale.obj
 0001:000015aa       ?SetObjectRects@?$IOleInPlaceObjectWindowlessImpl@VCOPOSScale@@@ATL@@UAGJPBUtagRECT@@0@Z 100025aa f i Scale.obj
 0001:000015ca       ?ReactivateAndUndo@?$IOleInPlaceObjectWindowlessImpl@VCOPOSScale@@@ATL@@UAGJXZ 100025ca f i Scale.obj
 0001:000015d2       ?OnWindowMessage@?$IOleInPlaceObjectWindowlessImpl@VCOPOSScale@@@ATL@@UAGJIIJPAJ@Z 100025d2 f i Scale.obj
 0001:00001642       ?EnumConnectionPoints@?$IConnectionPointContainerImpl@VCOPOSScale@@@ATL@@UAGJPAPAUIEnumConnectionPoints@@@Z 10002642 f i Scale.obj
 0001:000017ce       ?FindConnectionPoint@?$IConnectionPointContainerImpl@VCOPOSScale@@@ATL@@UAGJABU_GUID@@PAPAUIConnectionPoint@@@Z 100027ce f i Scale.obj
 0001:00001871       ?IsDirty@?$IPersistStorageImpl@VCOPOSScale@@@ATL@@UAGJXZ 10002871 f i Scale.obj
 0001:000018a1       ?InitNew@?$IPersistStorageImpl@VCOPOSScale@@@ATL@@UAGJPAUIStorage@@@Z 100028a1 f i Scale.obj
 0001:000018d1       ?Load@?$IPersistStorageImpl@VCOPOSScale@@@ATL@@UAGJPAUIStorage@@@Z 100028d1 f i Scale.obj
 0001:0000193d       ?Save@?$IPersistStorageImpl@VCOPOSScale@@@ATL@@UAGJPAUIStorage@@H@Z 1000293d f i Scale.obj
 0001:000019b0       ?GetPages@?$ISpecifyPropertyPagesImpl@VCOPOSScale@@@ATL@@UAGJPAUtagCAUUID@@@Z 100029b0 f i Scale.obj
 0001:000019c7       ?QuickActivate@?$IQuickActivateImpl@VCOPOSScale@@@ATL@@UAGJPAUtagQACONTAINER@@PAUtagQACONTROL@@@Z 100029c7 f i Scale.obj
 0001:000019ea       ?SetContentExtent@?$IQuickActivateImpl@VCOPOSScale@@@ATL@@UAGJPAUtagSIZE@@@Z 100029ea f i Scale.obj
 0001:00001a16       ?GetContentExtent@?$IQuickActivateImpl@VCOPOSScale@@@ATL@@UAGJPAUtagSIZE@@@Z 10002a16 f i Scale.obj
 0001:00001a50       ?GetData@?$IDataObjectImpl@VCOPOSScale@@@ATL@@UAGJPAUtagFORMATETC@@PAUtagSTGMEDIUM@@@Z 10002a50 f i Scale.obj
 0001:00001a73       ?DAdvise@?$IDataObjectImpl@VCOPOSScale@@@ATL@@UAGJPAUtagFORMATETC@@KPAUIAdviseSink@@PAK@Z 10002a73 f i Scale.obj
 0001:00001ab4       ?DUnadvise@?$IDataObjectImpl@VCOPOSScale@@@ATL@@UAGJK@Z 10002ab4 f i Scale.obj
 0001:00001ae2       ?EnumDAdvise@?$IDataObjectImpl@VCOPOSScale@@@ATL@@UAGJPAPAUIEnumSTATDATA@@@Z 10002ae2 f i Scale.obj
 0001:00001b21       ?GetClassInfoW@?$IProvideClassInfo2Impl@$1?CLSID_OPOSScale@@3U_GUID@@B$1?DIID__IOPOSScaleEvents@@3U2@B$1?LIBID_OposScale_CCO@@3U2@B$00$0A@VCComTypeInfoHolder@ATL@@@ATL@@UAGJPAPAUITypeInfo@@@Z 10002b21 f i Scale.obj
 0001:00001b37       ?GetGUID@?$IProvideClassInfo2Impl@$1?CLSID_OPOSScale@@3U_GUID@@B$1?DIID__IOPOSScaleEvents@@3U2@B$1?LIBID_OposScale_CCO@@3U2@B$00$0A@VCComTypeInfoHolder@ATL@@@ATL@@UAGJKPAU_GUID@@@Z 10002b37 f i Scale.obj
 0001:00001b75       ?FAccessAllowed@?$IObjectSafetyImpl@VCOPOSScale@@$02@ATL@@MAEHXZ 10002b75 f i Scale.obj
 0001:00001b75       __get_startup_argv_mode    10002b75 f i LIBCMT:argv_mode.obj
 0001:00001b79       ?GetInterfaceSafetyOptions@?$IObjectSafetyImpl@VCOPOSScale@@$02@ATL@@UAGJABU_GUID@@PAK1@Z 10002b79 f i Scale.obj
 0001:00001bed       ?SetInterfaceSafetyOptions@?$IObjectSafetyImpl@VCOPOSScale@@$02@ATL@@UAGJABU_GUID@@KK@Z 10002bed f i Scale.obj
 0001:00001c67       ?_LocCPQueryInterface@?$IConnectionPointImpl@VCOPOSScale@@$1?DIID__IOPOSScaleEvents@@3U_GUID@@BVCComDynamicUnkArray@ATL@@@ATL@@UAGJABU_GUID@@PAPAX@Z 10002c67 f i Scale.obj
 0001:00001c67       ?_LocCPQueryInterface@?$IConnectionPointImpl@VCOPOSScale@@$1?IID_IPropertyNotifySink@@3U_GUID@@BVCComDynamicUnkArray@ATL@@@ATL@@UAGJABU_GUID@@PAPAX@Z 10002c67 f i Scale.obj
 0001:00001cb4       ?GetConnectionInterface@?$IConnectionPointImpl@VCOPOSScale@@$1?IID_IPropertyNotifySink@@3U_GUID@@BVCComDynamicUnkArray@ATL@@@ATL@@UAGJPAU_GUID@@@Z 10002cb4 f i Scale.obj
 0001:00001cd8       ?GetConnectionPointContainer@?$IConnectionPointImpl@VCOPOSScale@@$1?IID_IPropertyNotifySink@@3U_GUID@@BVCComDynamicUnkArray@ATL@@@ATL@@UAGJPAPAUIConnectionPointContainer@@@Z 10002cd8 f i Scale.obj
 0001:00001cfb       ?Advise@?$IConnectionPointImpl@VCOPOSScale@@$1?DIID__IOPOSScaleEvents@@3U_GUID@@BVCComDynamicUnkArray@ATL@@@ATL@@UAGJPAUIUnknown@@PAK@Z 10002cfb f i Scale.obj
 0001:00001cfb       ?Advise@?$IConnectionPointImpl@VCOPOSScale@@$1?IID_IPropertyNotifySink@@3U_GUID@@BVCComDynamicUnkArray@ATL@@@ATL@@UAGJPAUIUnknown@@PAK@Z 10002cfb f i Scale.obj
 0001:00001d9b       ?Unadvise@?$IConnectionPointImpl@VCOPOSScale@@$1?IID_IPropertyNotifySink@@3U_GUID@@BVCComDynamicUnkArray@ATL@@@ATL@@UAGJK@Z 10002d9b f i Scale.obj
 0001:00001d9b       ?Unadvise@?$IConnectionPointImpl@VCOPOSScale@@$1?DIID__IOPOSScaleEvents@@3U_GUID@@BVCComDynamicUnkArray@ATL@@@ATL@@UAGJK@Z 10002d9b f i Scale.obj
 0001:00001ddb       ?EnumConnections@?$IConnectionPointImpl@VCOPOSScale@@$1?DIID__IOPOSScaleEvents@@3U_GUID@@BVCComDynamicUnkArray@ATL@@@ATL@@UAGJPAPAUIEnumConnections@@@Z 10002ddb f i Scale.obj
 0001:00001ddb       ?EnumConnections@?$IConnectionPointImpl@VCOPOSScale@@$1?IID_IPropertyNotifySink@@3U_GUID@@BVCComDynamicUnkArray@ATL@@@ATL@@UAGJPAPAUIEnumConnections@@@Z 10002ddb f i Scale.obj
 0001:00001ed6       ?GetCategoryMap@CComObjectRootBase@ATL@@SAPBU_ATL_CATMAP_ENTRY@2@XZ 10002ed6 f i Scale.obj
 0001:00001ed6       ?GetObjectDescription@?$CComCoClass@VCOPOSScale@@$1?CLSID_OPOSScale@@3U_GUID@@B@ATL@@SGPB_WXZ 10002ed6 f i Scale.obj
 0001:00001ed9       ?GetConnectionInterface@?$IConnectionPointImpl@VCOPOSScale@@$1?DIID__IOPOSScaleEvents@@3U_GUID@@BVCComDynamicUnkArray@ATL@@@ATL@@UAGJPAU_GUID@@@Z 10002ed9 f i Scale.obj
 0001:00001efd       ?GetConnectionPointContainer@?$IConnectionPointImpl@VCOPOSScale@@$1?DIID__IOPOSScaleEvents@@3U_GUID@@BVCComDynamicUnkArray@ATL@@@ATL@@UAGJPAPAUIConnectionPointContainer@@@Z 10002efd f i Scale.obj
 0001:00001f20       ?Lock@CAtlModule@ATL@@UAEJXZ 10002f20 f i Scale.obj
 0001:00001f2a       ?UpdateRegistry@COPOSScale@@SGJH@Z 10002f2a f i Scale.obj
 0001:00001f42       ?Unlock@CAtlModule@ATL@@UAEJXZ 10002f42 f i Scale.obj
 0001:00001f4c       ?GetLockCount@CAtlModule@ATL@@UAEJXZ 10002f4c f i Scale.obj
 0001:00001f50       ?GetGITPtr@CAtlModule@ATL@@UAEJPAPAUIGlobalInterfaceTable@@@Z 10002f50 f i Scale.obj
 0001:00001f9c       ?ProcessWindowMessage@COPOSScale@@UAEHPAUHWND__@@IIJAAJK@Z 10002f9c f i Scale.obj
 0001:00001fe5       ?SOData@COPOSScale@@MAGJJ@Z 10002fe5 f i Scale.obj
 0001:0000201e       ?SODirectIO@COPOSScale@@MAGJJPAJPAPA_W@Z 1000301e f i Scale.obj
 0001:00002067       ?SOError@COPOSScale@@MAGJJJJPAJ@Z 10003067 f i Scale.obj
 0001:000020bc       ?SOStatusUpdate@COPOSScale@@MAGJJ@Z 100030bc f i Scale.obj
 0001:000020f5       ?AddCommonRGSReplacements@?$CAtlModuleT@VCComModule@ATL@@@ATL@@UAEJPAUIRegistrarBase@@@Z 100030f5 f i Scale.obj
 0001:0000210f       ?UpdateRegistryFromResourceD@CComModule@ATL@@UAGJIHPAU_ATL_REGMAP_ENTRY@2@@Z 1000310f f i Scale.obj
 0001:0000210f       ?UpdateRegistryFromResourceD@CComModule@ATL@@UAGJPB_WHPAU_ATL_REGMAP_ENTRY@2@@Z 1000310f f i Scale.obj
 0001:00002117       ?UpdateRegistryFromResource@CComModule@ATL@@UAGJPB_WHPAU_ATL_REGMAP_ENTRY@2@@Z 10003117 f i Scale.obj
 0001:00002120       ?UpdateRegistryFromResource@CComModule@ATL@@UAGJIHPAU_ATL_REGMAP_ENTRY@2@@Z 10003120 f i Scale.obj
 0001:00002129       ??_GCComModule@ATL@@UAEPAXI@Z 10003129 f i Scale.obj
 0001:00002129       ??_ECComModule@ATL@@UAEPAXI@Z 10003129 f i Scale.obj
 0001:00002151       ?CreateInstance@?$CComCreator@V?$CComObjectCached@VCComClassFactory@ATL@@@ATL@@@ATL@@SGJPAXABU_GUID@@PAPAX@Z 10003151 f i Scale.obj
 0001:000021f1       ?CreateInstance@?$CComCreator2@V?$CComCreator@V?$CComObject@VCOPOSScale@@@ATL@@@ATL@@V?$CComCreator@V?$CComAggObject@VCOPOSScale@@@ATL@@@2@@ATL@@SGJPAXABU_GUID@@PAPAX@Z 100031f1 f i Scale.obj
 0001:00002211       ?AddRef@?$CComObjectCached@VCComClassFactory@ATL@@@ATL@@UAGKXZ 10003211 f i Scale.obj
 0001:00002238       ?Release@?$CComObjectCached@VCComClassFactory@ATL@@@ATL@@UAGKXZ 10003238 f i Scale.obj
 0001:0000226e       ?QueryInterface@?$CComObjectCached@VCComClassFactory@ATL@@@ATL@@UAGJABU_GUID@@PAPAX@Z 1000326e f i Scale.obj
 0001:00002288       ??_G?$CComObjectCached@VCComClassFactory@ATL@@@ATL@@UAEPAXI@Z 10003288 f i Scale.obj
 0001:00002288       ??_E?$CComObjectCached@VCComClassFactory@ATL@@@ATL@@UAEPAXI@Z 10003288 f i Scale.obj
 0001:000022aa       ?Next@?$CComEnumImpl@UIEnumConnectionPoints@@$1?_GUID_b196b285_bab4_101a_b69c_00aa00341d07@@3U__s_GUID@@BPAUIConnectionPoint@@V?$_CopyInterface@UIConnectionPoint@@@ATL@@@ATL@@UAGJKPAPAUIConnectionPoint@@PAK@Z 100032aa f i Scale.obj
 0001:00002381       ?Skip@?$CComEnumImpl@UIEnumConnectionPoints@@$1?_GUID_b196b285_bab4_101a_b69c_00aa00341d07@@3U__s_GUID@@BPAUIConnectionPoint@@V?$_CopyInterface@UIConnectionPoint@@@ATL@@@ATL@@UAGJK@Z 10003381 f i Scale.obj
 0001:000023ae       ?Reset@?$CComEnumImpl@UIEnumConnections@@$1?_GUID_b196b287_bab4_101a_b69c_00aa00341d07@@3U__s_GUID@@BUtagCONNECTDATA@@V?$_Copy@UtagCONNECTDATA@@@ATL@@@ATL@@UAGJXZ 100033ae f i Scale.obj
 0001:000023ae       ?Reset@?$CComEnumImpl@UIEnumConnectionPoints@@$1?_GUID_b196b285_bab4_101a_b69c_00aa00341d07@@3U__s_GUID@@BPAUIConnectionPoint@@V?$_CopyInterface@UIConnectionPoint@@@ATL@@@ATL@@UAGJXZ 100033ae f i Scale.obj
 0001:000023c0       ?Clone@?$CComEnumImpl@UIEnumConnectionPoints@@$1?_GUID_b196b285_bab4_101a_b69c_00aa00341d07@@3U__s_GUID@@BPAUIConnectionPoint@@V?$_CopyInterface@UIConnectionPoint@@@ATL@@@ATL@@UAGJPAPAUIEnumConnectionPoints@@@Z 100033c0 f i Scale.obj
 0001:000024a1       ?AddRef@?$CComObject@V?$CComEnum@UIEnumConnections@@$1?_GUID_b196b287_bab4_101a_b69c_00aa00341d07@@3U__s_GUID@@BUtagCONNECTDATA@@V?$_Copy@UtagCONNECTDATA@@@ATL@@VCComSingleThreadModel@6@@ATL@@@ATL@@UAGKXZ 100034a1 f i Scale.obj
 0001:000024a1       ?AddRef@?$CComObject@V?$CComEnum@UIEnumConnectionPoints@@$1?_GUID_b196b285_bab4_101a_b69c_00aa00341d07@@3U__s_GUID@@BPAUIConnectionPoint@@V?$_CopyInterface@UIConnectionPoint@@@ATL@@VCComSingleThreadModel@6@@ATL@@@ATL@@UAGKXZ 100034a1 f i Scale.obj
 0001:000024b2       ?Release@?$CComObject@V?$CComEnum@UIEnumConnectionPoints@@$1?_GUID_b196b285_bab4_101a_b69c_00aa00341d07@@3U__s_GUID@@BPAUIConnectionPoint@@V?$_CopyInterface@UIConnectionPoint@@@ATL@@VCComSingleThreadModel@6@@ATL@@@ATL@@UAGKXZ 100034b2 f i Scale.obj
 0001:000024b2       ?Release@?$CComObject@V?$CComEnum@UIEnumConnections@@$1?_GUID_b196b287_bab4_101a_b69c_00aa00341d07@@3U__s_GUID@@BUtagCONNECTDATA@@V?$_Copy@UtagCONNECTDATA@@@ATL@@VCComSingleThreadModel@6@@ATL@@@ATL@@UAGKXZ 100034b2 f i Scale.obj
 0001:000024ee       ?QueryInterface@?$CComObject@V?$CComEnum@UIEnumConnectionPoints@@$1?_GUID_b196b285_bab4_101a_b69c_00aa00341d07@@3U__s_GUID@@BPAUIConnectionPoint@@V?$_CopyInterface@UIConnectionPoint@@@ATL@@VCComSingleThreadModel@6@@ATL@@@ATL@@UAGJABU_GUID@@PAPAX@Z 100034ee f i Scale.obj
 0001:00002508       ??_G?$CComObject@V?$CComEnum@UIEnumConnectionPoints@@$1?_GUID_b196b285_bab4_101a_b69c_00aa00341d07@@3U__s_GUID@@BPAUIConnectionPoint@@V?$_CopyInterface@UIConnectionPoint@@@ATL@@VCComSingleThreadModel@6@@ATL@@@ATL@@UAEPAXI@Z 10003508 f i Scale.obj
 0001:00002508       ??_E?$CComObject@V?$CComEnum@UIEnumConnectionPoints@@$1?_GUID_b196b285_bab4_101a_b69c_00aa00341d07@@3U__s_GUID@@BPAUIConnectionPoint@@V?$_CopyInterface@UIConnectionPoint@@@ATL@@VCComSingleThreadModel@6@@ATL@@@ATL@@UAEPAXI@Z 10003508 f i Scale.obj
 0001:0000252a       ?AddRef@CRegObject@ATL@@UAGKXZ 1000352a f i Scale.obj
 0001:00002530       ?AddReplacement@CRegObject@ATL@@UAGJPB_W0@Z 10003530 f i Scale.obj
 0001:00002569       ?ClearReplacements@CRegObject@ATL@@UAGJXZ 10003569 f i Scale.obj
 0001:0000257b       ??_GCRegObject@ATL@@UAEPAXI@Z 1000357b f i Scale.obj
 0001:0000257b       ??_ECRegObject@ATL@@UAEPAXI@Z 1000357b f i Scale.obj
 0001:0000259d       ?AddRef@?$CComAggObject@VCOPOSScale@@@ATL@@UAGKXZ 1000359d f i Scale.obj
 0001:000025ae       ?Release@?$CComAggObject@VCOPOSScale@@@ATL@@UAGKXZ 100035ae f i Scale.obj
 0001:000025ea       ?QueryInterface@?$CComAggObject@VCOPOSScale@@@ATL@@UAGJABU_GUID@@PAPAX@Z 100035ea f i Scale.obj
 0001:00002639       ?AddRef@?$CComContainedObject@VCOPOSScale@@@ATL@@UAGKXZ 10003639 f i Scale.obj
 0001:0000264f       ?Release@?$CComContainedObject@VCOPOSScale@@@ATL@@UAGKXZ 1000364f f i Scale.obj
 0001:00002665       ?QueryInterface@?$CComContainedObject@VCOPOSScale@@@ATL@@UAGJABU_GUID@@PAPAX@Z 10003665 f i Scale.obj
 0001:00002680       ??_G?$CComAggObject@VCOPOSScale@@@ATL@@UAEPAXI@Z 10003680 f i Scale.obj
 0001:00002680       ??_E?$CComAggObject@VCOPOSScale@@@ATL@@UAEPAXI@Z 10003680 f i Scale.obj
 0001:000026a5       ?AddRef@?$CComObject@VCOPOSScale@@@ATL@@UAGKXZ 100036a5 f i Scale.obj
 0001:000026bc       ?Release@?$CComObject@VCOPOSScale@@@ATL@@UAGKXZ 100036bc f i Scale.obj
 0001:000026fe       ?QueryInterface@?$CComObject@VCOPOSScale@@@ATL@@UAGJABU_GUID@@PAPAX@Z 100036fe f i Scale.obj
 0001:00002718       ?OnDrawAdvanced@CComControlBase@ATL@@UAEJAAUATL_DRAWINFO@@@Z 10003718 f i Scale.obj
 0001:0000280b       ?Next@?$CComEnumImpl@UIEnumConnections@@$1?_GUID_b196b287_bab4_101a_b69c_00aa00341d07@@3U__s_GUID@@BUtagCONNECTDATA@@V?$_Copy@UtagCONNECTDATA@@@ATL@@@ATL@@UAGJKPAUtagCONNECTDATA@@PAK@Z 1000380b f i Scale.obj
 0001:000028e2       ?Skip@?$CComEnumImpl@UIEnumConnections@@$1?_GUID_b196b287_bab4_101a_b69c_00aa00341d07@@3U__s_GUID@@BUtagCONNECTDATA@@V?$_Copy@UtagCONNECTDATA@@@ATL@@@ATL@@UAGJK@Z 100038e2 f i Scale.obj
 0001:0000290f       ?Clone@?$CComEnumImpl@UIEnumConnections@@$1?_GUID_b196b287_bab4_101a_b69c_00aa00341d07@@3U__s_GUID@@BUtagCONNECTDATA@@V?$_Copy@UtagCONNECTDATA@@@ATL@@@ATL@@UAGJPAPAUIEnumConnections@@@Z 1000390f f i Scale.obj
 0001:000029f0       ?QueryInterface@?$CComObject@V?$CComEnum@UIEnumConnections@@$1?_GUID_b196b287_bab4_101a_b69c_00aa00341d07@@3U__s_GUID@@BUtagCONNECTDATA@@V?$_Copy@UtagCONNECTDATA@@@ATL@@VCComSingleThreadModel@6@@ATL@@@ATL@@UAGJABU_GUID@@PAPAX@Z 100039f0 f i Scale.obj
 0001:00002a0a       ??_G?$CComObject@V?$CComEnum@UIEnumConnections@@$1?_GUID_b196b287_bab4_101a_b69c_00aa00341d07@@3U__s_GUID@@BUtagCONNECTDATA@@V?$_Copy@UtagCONNECTDATA@@@ATL@@VCComSingleThreadModel@6@@ATL@@@ATL@@UAEPAXI@Z 10003a0a f i Scale.obj
 0001:00002a0a       ??_E?$CComObject@V?$CComEnum@UIEnumConnections@@$1?_GUID_b196b287_bab4_101a_b69c_00aa00341d07@@3U__s_GUID@@BUtagCONNECTDATA@@V?$_Copy@UtagCONNECTDATA@@@ATL@@VCComSingleThreadModel@6@@ATL@@@ATL@@UAEPAXI@Z 10003a0a f i Scale.obj
 0001:00002a2c       ??$?4UITypeInfo2@@@?$CComPtr@UITypeInfo@@@ATL@@QAEPAUITypeInfo@@ABV?$CComPtr@UITypeInfo2@@@1@@Z 10003a2c f i Scale.obj
 0001:00002a59       ??$AtlAdd@K@ATL@@YAJPAKKK@Z 10003a59 f i Scale.obj
 0001:00002a7c       ??$AtlAdd@_K@ATL@@YAJPA_K_K1@Z 10003a7c f i Scale.obj
 0001:00002ab4       ??$AtlAddThrow@K@ATL@@YAKKK@Z 10003ab4 f i Scale.obj
 0001:00002ada       ??$AtlModuleRegisterWndClassInfoT@VAtlModuleRegisterWndClassInfoParamW@ATL@@@ATL@@YAGPAU_ATL_BASE_MODULE70@0@PAU_ATL_WIN_MODULE70@0@PAU_ATL_WNDCLASSINFOW@0@PAP6GJPAUHWND__@@IIJ@ZVAtlModuleRegisterWndClassInfoParamW@0@@Z 10003ada f i Scale.obj
 0001:00002c28       ??$AtlMultiply@H@ATL@@YAJPAHHH@Z 10003c28 f i Scale.obj
 0001:00002c60       ??$AtlMultiply@I@ATL@@YAJPAIII@Z 10003c60 f i Scale.obj
 0001:00002c60       ??$AtlMultiply@K@ATL@@YAJPAKKK@Z 10003c60 f i Scale.obj
 0001:00002c82       ??$AtlMultiplyThrow@I@ATL@@YAIII@Z 10003c82 f i Scale.obj
 0001:00002ca8       ??0?$CComAggObject@VCOPOSScale@@@ATL@@QAE@PAX@Z 10003ca8 f i Scale.obj
 0001:00002cd5       ??0?$CComContainedObject@VCOPOSScale@@@ATL@@QAE@PAX@Z 10003cd5 f i Scale.obj
 0001:00002d8e       ??0?$CComObject@V?$CComEnum@UIEnumConnectionPoints@@$1?_GUID_b196b285_bab4_101a_b69c_00aa00341d07@@3U__s_GUID@@BPAUIConnectionPoint@@V?$_CopyInterface@UIConnectionPoint@@@ATL@@VCComSingleThreadModel@6@@ATL@@@ATL@@QAE@PAX@Z 10003d8e f i Scale.obj
 0001:00002dbc       ??0?$CComObject@V?$CComEnum@UIEnumConnections@@$1?_GUID_b196b287_bab4_101a_b69c_00aa00341d07@@3U__s_GUID@@BUtagCONNECTDATA@@V?$_Copy@UtagCONNECTDATA@@@ATL@@VCComSingleThreadModel@6@@ATL@@@ATL@@QAE@PAX@Z 10003dbc f i Scale.obj
 0001:00002dea       ??0?$CComObject@VCOPOSScale@@@ATL@@QAE@PAX@Z 10003dea f i Scale.obj
 0001:00002ea1       ??0?$CComQIPtr@UIOleControlSite@@$1?_GUID_b196b289_bab4_101a_b69c_00aa00341d07@@3U__s_GUID@@B@ATL@@QAE@PAUIUnknown@@@Z 10003ea1 f i Scale.obj
 0001:00002eca       ??0CAtlModule@ATL@@QAE@XZ  10003eca f i Scale.obj
 0001:00002f0b       ??0CParseBuffer@CRegParser@ATL@@QAE@H@Z 10003f0b f i Scale.obj
 0001:00002f41       ??0_ATL_MSG@ATL@@QAE@PAUHWND__@@IIJH@Z 10003f41 f i Scale.obj
 0001:00002f79       ??1?$CComAggObject@VCOPOSScale@@@ATL@@UAE@XZ 10003f79 f i Scale.obj
 0001:00002f9d       ??1?$CComEnumImpl@UIEnumConnectionPoints@@$1?_GUID_b196b285_bab4_101a_b69c_00aa00341d07@@3U__s_GUID@@BPAUIConnectionPoint@@V?$_CopyInterface@UIConnectionPoint@@@ATL@@@ATL@@UAE@XZ 10003f9d f i Scale.obj
 0001:00002fdd       ??1?$CComEnumImpl@UIEnumConnections@@$1?_GUID_b196b287_bab4_101a_b69c_00aa00341d07@@3U__s_GUID@@BUtagCONNECTDATA@@V?$_Copy@UtagCONNECTDATA@@@ATL@@@ATL@@UAE@XZ 10003fdd f i Scale.obj
 0001:0000301d       ??1?$CComObject@V?$CComEnum@UIEnumConnectionPoints@@$1?_GUID_b196b285_bab4_101a_b69c_00aa00341d07@@3U__s_GUID@@BPAUIConnectionPoint@@V?$_CopyInterface@UIConnectionPoint@@@ATL@@VCComSingleThreadModel@6@@ATL@@@ATL@@UAE@XZ 1000401d f i Scale.obj
 0001:00003040       ??1?$CComObject@V?$CComEnum@UIEnumConnections@@$1?_GUID_b196b287_bab4_101a_b69c_00aa00341d07@@3U__s_GUID@@BUtagCONNECTDATA@@V?$_Copy@UtagCONNECTDATA@@@ATL@@VCComSingleThreadModel@6@@ATL@@@ATL@@UAE@XZ 10004040 f i Scale.obj
 0001:00003063       ??1?$CComObject@VCOPOSScale@@@ATL@@UAE@XZ 10004063 f i Scale.obj
 0001:00003121       ??1?$CComObjectCached@VCComClassFactory@ATL@@@ATL@@UAE@XZ 10004121 f i Scale.obj
 0001:00003137       ??1?$CComObjectRootEx@VCComMultiThreadModel@ATL@@@ATL@@QAE@XZ 10004137 f i Scale.obj
 0001:0000314c       ??1CRegObject@ATL@@UAE@XZ  1000414c f i Scale.obj
 0001:0000316c       ??4?$CComPtr@UIOleClientSite@@@ATL@@QAEPAUIOleClientSite@@PAU2@@Z 1000416c f i Scale.obj
 0001:0000316c       ??4?$CComPtr@UIAdviseSink@@@ATL@@QAEPAUIAdviseSink@@PAU2@@Z 1000416c f i Scale.obj
 0001:0000316c       ??4?$CComPtr@UIUnknown@@@ATL@@QAEPAUIUnknown@@PAU2@@Z 1000416c f i Scale.obj
 0001:000031a0       ??_G?$CComContainedObject@VCOPOSScale@@@ATL@@UAEPAXI@Z 100041a0 f i Scale.obj
 0001:000031a0       ??_E?$CComContainedObject@VCOPOSScale@@@ATL@@UAEPAXI@Z 100041a0 f i Scale.obj
 0001:000031c5       ??_E?$CComObject@VCOPOSScale@@@ATL@@UAEPAXI@Z 100041c5 f i Scale.obj
 0001:000031c5       ??_G?$CComObject@VCOPOSScale@@@ATL@@UAEPAXI@Z 100041c5 f i Scale.obj
 0001:000031ea       ?Add@?$CSimpleArray@GV?$CSimpleArrayEqualHelper@G@ATL@@@ATL@@QAEHABG@Z 100041ea f i Scale.obj
 0001:0000326e       ?Add@?$CSimpleMap@PA_WPA_WVCExpansionVectorEqualHelper@ATL@@@ATL@@QAEHABQA_W0@Z 1000426e f i Scale.obj
 0001:000032c3       ?Add@CComDynamicUnkArray@ATL@@QAEKPAUIUnknown@@@Z 100042c3 f i Scale.obj
 0001:00003379       ?Add@CExpansionVector@ATL@@QAEHPB_W0@Z 10004379 f i Scale.obj
 0001:00003482       ?AddString@CParseBuffer@CRegParser@ATL@@QAEHPB_W@Z 10004482 f i Scale.obj
 0001:000034b7       ?AddTermFunc@CAtlModule@ATL@@QAEJP6GXK@ZK@Z 100044b7 f i Scale.obj
 0001:0000351a       ?AddValue@CRegParser@ATL@@IAEJAAVCRegKey@2@PB_WPA_W@Z 1000451a f i Scale.obj
 0001:00003834       ?Allocate@?$CAtlSafeAllocBufferManager@VCCRTAllocator@ATL@@@_ATL_SAFE_ALLOCA_IMPL@ATL@@QAEPAXK@Z 10004834 f i Scale.obj
 0001:00003861       ?Allocate@?$CTempBuffer@E$0BAA@VCCRTAllocator@ATL@@@ATL@@QAEPAEI@Z 10004861 f i Scale.obj
 0001:00003890       ?Allocate@?$CTempBuffer@_W$0BAA@VCCRTAllocator@ATL@@@ATL@@QAEPA_WI@Z 10004890 f i Scale.obj
 0001:000038bf       ?Allocate@?$CTempBuffer@_W$0EAA@VCCRTAllocator@ATL@@@ATL@@QAEPA_WI@Z 100048bf f i Scale.obj
 0001:000038ee       ?AllocateHeap@?$CTempBuffer@_W$0BAA@VCCRTAllocator@ATL@@@ATL@@AAEXI@Z 100048ee f i Scale.obj
 0001:000038ee       ?AllocateHeap@?$CTempBuffer@_W$0EAA@VCCRTAllocator@ATL@@@ATL@@AAEXI@Z 100048ee f i Scale.obj
 0001:000038ee       ?AllocateHeap@?$CTempBuffer@E$0BAA@VCCRTAllocator@ATL@@@ATL@@AAEXI@Z 100048ee f i Scale.obj
 0001:00003913       ?Append@CParseBuffer@CRegParser@ATL@@QAEHPB_WH@Z 10004913 f i Scale.obj
 0001:000039a1       ?AtlCoTaskMemCAlloc@ATL@@YAPAXKK@Z 100049a1 f i Scale.obj
 0001:000039ce       ?AtlCoTaskMemRecalloc@ATL@@YAPAXPAXKK@Z 100049ce f i Scale.obj
 0001:000039fe       ?AtlComModuleGetClassObject@ATL@@YGJPAU_ATL_COM_MODULE70@1@ABU_GUID@@1PAPAX@Z 100049fe f i Scale.obj
 0001:00003af1       ?AtlComModuleRegisterServer@ATL@@YGJPAU_ATL_COM_MODULE70@1@HPBU_GUID@@@Z 10004af1 f i Scale.obj
 0001:00003b79       ?AtlComModuleUnregisterServer@ATL@@YGJPAU_ATL_COM_MODULE70@1@HPBU_GUID@@@Z 10004b79 f i Scale.obj
 0001:00003c01       ?AtlComQIPtrAssign2@ATL@@YAXPAPAUIUnknown@@PAU2@ABU_GUID@@@Z 10004c01 f i Scale.obj
 0001:00003c30       ?AtlCreateTargetDC@ATL@@YGPAUHDC__@@PAU2@PAUtagDVTARGETDEVICE@@@Z 10004c30 f i Scale.obj
 0001:00003c99       ?AtlCrtErrorCheck@ATL@@YAHH@Z 10004c99 f i Scale.obj
 0001:00003cd4       ?AtlHiMetricToPixel@ATL@@YGXPBUtagSIZE@@PAU2@@Z 10004cd4 f i Scale.obj
 0001:00003d49       ?AtlHresultFromLastError@ATL@@YAJXZ 10004d49 f i Scale.obj
 0001:00003d60       ?AtlHresultFromWin32@ATL@@YAJK@Z 10004d60 f i Scale.obj
 0001:00003d75       ?AtlInternalOleLoadFromStream@ATL@@YAJPAUIStream@@ABU_GUID@@PAPAXTClassesAllowedInStream@1@K@Z 10004d75 f i Scale.obj
 0001:00003e93       ?AtlInternalQueryInterface@ATL@@YGJPAXPBU_ATL_INTMAP_ENTRY@1@ABU_GUID@@PAPAX@Z 10004e93 f i Scale.obj
 0001:00003f36       ?AtlLoadTypeLib@ATL@@YGJPAUHINSTANCE__@@PB_WPAPA_WPAPAUITypeLib@@@Z 10004f36 f i Scale.obj
 0001:00004114       ?AtlRegisterClassCategoriesHelper@ATL@@YGJABU_GUID@@PBU_ATL_CATMAP_ENTRY@1@H@Z 10005114 f i Scale.obj
 0001:00004410       ?AtlRegisterTypeLib@ATL@@YGJPAUHINSTANCE__@@PB_W@Z 10005410 f i Scale.obj
 0001:00004598       ?AtlThrowImpl@ATL@@YGXJ@Z  10005598 f i Scale.obj
 0001:000045b6       ?AtlUnRegisterTypeLib@ATL@@YGJPAUHINSTANCE__@@PB_W@Z 100055b6 f i Scale.obj
 0001:00004661       ?AtlWinModuleAddCreateWndData@ATL@@YGXPAU_ATL_WIN_MODULE70@1@PAU_AtlCreateWndData@1@PAX@Z 10005661 f i Scale.obj
 0001:000046b5       ?AtlWinModuleExtractCreateWndData@ATL@@YGPAXPAU_ATL_WIN_MODULE70@1@@Z 100056b5 f i Scale.obj
 0001:00004718       ?AtlWinModuleRegisterClassExW@ATL@@YGGPAU_ATL_WIN_MODULE70@1@PBUtagWNDCLASSEXW@@@Z 10005718 f i Scale.obj
 0001:00004757       ?CanForceRemoveKey@CRegParser@ATL@@IAEHPB_W@Z 10005757 f i Scale.obj
 0001:00004786       ?ChToByte@CRegParser@ATL@@KAE_W@Z 10005786 f i Scale.obj
 0001:000047b9       ?Cleanup@CComTypeInfoHolder@ATL@@SGXK@Z 100057b9 f i Scale.obj
 0001:000047ec       ?ClearReplacements@CExpansionVector@ATL@@QAEJXZ 100057ec f i Scale.obj
 0001:00004829       ?Close@CRegKey@ATL@@QAEJXZ 10005829 f i Scale.obj
 0001:00004843       ?CreateInstance@?$CComCreator@V?$CComAggObject@VCOPOSScale@@@ATL@@@ATL@@SGJPAXABU_GUID@@PAPAX@Z 10005843 f i Scale.obj
 0001:000048b8       ?CreateInstance@?$CComCreator@V?$CComObject@VCOPOSScale@@@ATL@@@ATL@@SGJPAXABU_GUID@@PAPAX@Z 100058b8 f i Scale.obj
 0001:00004938       ?CreateInstance@?$CComObject@V?$CComEnum@UIEnumConnectionPoints@@$1?_GUID_b196b285_bab4_101a_b69c_00aa00341d07@@3U__s_GUID@@BPAUIConnectionPoint@@V?$_CopyInterface@UIConnectionPoint@@@ATL@@VCComSingleThreadModel@6@@ATL@@@ATL@@SGJPAPAV12@@Z 10005938 f i Scale.obj
 0001:00004982       ?CreateInstance@?$CComObject@V?$CComEnum@UIEnumConnections@@$1?_GUID_b196b287_bab4_101a_b69c_00aa00341d07@@3U__s_GUID@@BUtagCONNECTDATA@@V?$_Copy@UtagCONNECTDATA@@@ATL@@VCComSingleThreadModel@6@@ATL@@@ATL@@SGJPAPAV12@@Z 10005982 f i Scale.obj
 0001:000049cc       ?DefaultReflectionHandler@?$CWindowImplRoot@VCWindow@ATL@@@ATL@@SAHPAUHWND__@@IIJAAJ@Z 100059cc f i Scale.obj
 0001:00004a3f       ?DeleteSubKey@CRegKey@ATL@@QAEJPB_W@Z 10005a3f f i Scale.obj
 0001:00004ab8       ?DoEvent@COPOSScale@@IAEXIIJ@Z 10005ab8 f i Scale.obj
 0001:00004b38       ?DoVerbHide@?$IOleObjectImpl@VCOPOSScale@@@ATL@@QAEJPBUtagRECT@@PAUHWND__@@@Z 10005b38 f i Scale.obj
 0001:00004b6e       ?DoVerbInPlaceActivate@?$IOleObjectImpl@VCOPOSScale@@@ATL@@QAEJPBUtagRECT@@PAUHWND__@@@Z 10005b6e f i Scale.obj
 0001:00004ba1       ?DoVerbPrimary@?$IOleObjectImpl@VCOPOSScale@@@ATL@@QAEJPBUtagRECT@@PAUHWND__@@@Z 10005ba1 f i Scale.obj
 0001:00004c2d       ?DoVerbProperties@CComControlBase@ATL@@QAEJPBUtagRECT@@PAUHWND__@@@Z 10005c2d f i Scale.obj
 0001:00004dac       ?DoVerbUIActivate@?$IOleObjectImpl@VCOPOSScale@@@ATL@@QAEJPBUtagRECT@@PAUHWND__@@@Z 10005dac f i Scale.obj
 0001:00004de9       ?DoesVerbActivate@CComControlBase@ATL@@QAEHJ@Z 10005de9 f i Scale.obj
 0001:00004e0a       ?DoesVerbUIActivate@CComControlBase@ATL@@QAEHJ@Z 10005e0a f i Scale.obj
 0001:00004e3f       ?EndOfVar@CRegParser@ATL@@IAEHXZ 10005e3f f i Scale.obj
 0001:00004e5f       ?EscapeSingleQuote@CAtlModule@ATL@@SAXPA_WIPB_W@Z 10005e5f f i Scale.obj
 0001:00004eae       ?FindKey@?$CSimpleMap@PA_WPA_WVCExpansionVectorEqualHelper@ATL@@@ATL@@QBEHABQA_W@Z 10005eae f i Scale.obj
 0001:00004ee5       ?FireTheEvent@?$CProxy_IOPOSEvents@VCOPOSScale@@@@IAEXPAVOposVariant@@IAAJPB_WJ@Z 10005ee5 f i Scale.obj
 0001:00004f77       ?FireViewChange@CComControlBase@ATL@@QAEJXZ 10005f77 f i Scale.obj
 0001:00004fc0       ?Fire_DataEvent@?$CProxy_IOPOSEvents@VCOPOSScale@@@@QAEXJ@Z 10005fc0 f i Scale.obj
 0001:00005056       ?Fire_DirectIOEvent@?$CProxy_IOPOSEvents@VCOPOSScale@@@@QAEXJPAJPAPA_W@Z 10006056 f i Scale.obj
 0001:00005142       ?Fire_ErrorEvent@?$CProxy_IOPOSEvents@VCOPOSScale@@@@QAEXJJJPAJ@Z 10006142 f i Scale.obj
 0001:00005233       ?Fire_StatusUpdateEvent@?$CProxy_IOPOSEvents@VCOPOSScale@@@@QAEXJ@Z 10006233 f i Scale.obj
 0001:000052c9       ?FreeHeap@?$CTempBuffer@E$0BAA@VCCRTAllocator@ATL@@@ATL@@AAEXXZ 100062c9 f i Scale.obj
 0001:000052c9       ?FreeHeap@?$CTempBuffer@_W$0BAA@VCCRTAllocator@ATL@@@ATL@@AAEXXZ 100062c9 f i Scale.obj
 0001:000052c9       ?FreeHeap@?$CTempBuffer@_W$0EAA@VCCRTAllocator@ATL@@@ATL@@AAEXXZ 100062c9 f i Scale.obj
 0001:000052d2       ?GetAmbientLocaleID@CComControlBase@ATL@@QAEJAAK@Z 100062d2 f i Scale.obj
 0001:0000532e       ?GetAmbientUserMode@CComControlBase@ATL@@QAEJAAH@Z 1000632e f i Scale.obj
 0001:0000539e       ?GetAt@CComDynamicUnkArray@ATL@@QAEPAUIUnknown@@H@Z 1000639e f i Scale.obj
 0001:000053ba       ?GetClassObject@CComModule@ATL@@QAEJABU_GUID@@0PAPAX@Z 100063ba f i Scale.obj
 0001:0000545c       ?GetConnMap@COPOSScale@@SAPBU_ATL_CONNMAP_ENTRY@ATL@@PAH@Z 1000645c f i Scale.obj
 0001:000054cc       ?GetCookie@CComDynamicUnkArray@ATL@@QAGKPAPAUIUnknown@@@Z 100064cc f i Scale.obj
 0001:00005504       ?GetIDsOfNames@CComTypeInfoHolder@ATL@@QAEJABU_GUID@@PAPA_WIKPAJ@Z 10006504 f i Scale.obj
 0001:0000562b       ?GetKeyAt@?$CSimpleMap@PA_WPA_WVCExpansionVectorEqualHelper@ATL@@@ATL@@QBEAAPA_WH@Z 1000662b f i Scale.obj
 0001:00005650       ?GetPagesHelper@?$ISpecifyPropertyPagesImpl@VCOPOSScale@@@ATL@@IAEJPAUtagCAUUID@@PBUATL_PROPMAP_ENTRY@2@@Z 10006650 f i Scale.obj
 0001:00005777       ?GetProperty@?$CComPtr@UIDispatch@@@ATL@@SAJPAUIDispatch@@JPAUtagVARIANT@@@Z 10006777 f i Scale.obj
 0001:000057c6       ?GetSizeMax@CComVariant@ATL@@QBEJPAT_ULARGE_INTEGER@@@Z 100067c6 f i Scale.obj
 0001:00005988       ?GetTI@CComTypeInfoHolder@ATL@@QAEJK@Z 10006988 f i Scale.obj
 0001:00005b67       ?GetTI@CComTypeInfoHolder@ATL@@QAEJKPAPAUITypeInfo@@@Z 10006b67 f i Scale.obj
 0001:00005ba9       ?GetUnknown@CComDynamicUnkArray@ATL@@QAGPAUIUnknown@@K@Z 10006ba9 f i Scale.obj
 0001:00005bca       ?GetValueAt@?$CSimpleMap@PA_WPA_WVCExpansionVectorEqualHelper@ATL@@@ATL@@QBEAAPA_WH@Z 10006bca f i Scale.obj
 0001:00005bf0       ?GetZoomInfo@CComControlBase@ATL@@QAEXAAUATL_DRAWINFO@@@Z 10006bf0 f i Scale.obj
 0001:00005c83       ?HKeyFromString@CRegParser@ATL@@KAPAUHKEY__@@PA_W@Z 10006c83 f i Scale.obj
 0001:00005cb1       ?HasSubKeys@CRegParser@ATL@@IAEHPAUHKEY__@@@Z 10006cb1 f i Scale.obj
 0001:00005ce6       ?IDataObject_GetData@CComControlBase@ATL@@QAEJPAUtagFORMATETC@@PAUtagSTGMEDIUM@@@Z 10006ce6 f i Scale.obj
 0001:00005e8c       ?IOleInPlaceObject_InPlaceDeactivate@CComControlBase@ATL@@QAEJXZ 10006e8c f i Scale.obj
 0001:00005f13       ?IOleInPlaceObject_SetObjectRects@CComControlBase@ATL@@QAEJPBUtagRECT@@0@Z 10006f13 f i Scale.obj
 0001:00005fe0       ?IOleInPlaceObject_UIDeactivate@CComControlBase@ATL@@QAEJXZ 10006fe0 f i Scale.obj
 0001:000060a2       ?IOleObject_Advise@CComControlBase@ATL@@QAEJPAUIAdviseSink@@PAK@Z 100070a2 f i Scale.obj
 0001:000060cc       ?IOleObject_Close@CComControlBase@ATL@@QAEJK@Z 100070cc f i Scale.obj
 0001:000061b0       ?IOleObject_GetClientSite@CComControlBase@ATL@@QAEJPAPAUIOleClientSite@@@Z 100071b0 f i Scale.obj
 0001:000061d9       ?IOleObject_SetClientSite@CComControlBase@ATL@@QAEJPAUIOleClientSite@@@Z 100071d9 f i Scale.obj
 0001:00006218       ?IOleObject_SetExtent@CComControlBase@ATL@@QAEJKPAUtagSIZE@@@Z 10007218 f i Scale.obj
 0001:000062cc       ?IPSI_GetIPersistStreamInit@?$IPersistStorageImpl@VCOPOSScale@@@ATL@@AAEPAUIPersistStreamInit@@XZ 100072cc f i Scale.obj
 0001:00006374       ?IPersistStreamInit_Load@?$IPersistStreamInitImpl@VCOPOSScale@@@ATL@@QAEJPAUIStream@@PBUATL_PROPMAP_ENTRY@2@@Z 10007374 f i Scale.obj
 0001:000065e9       ?IPersistStreamInit_Save@?$IPersistStreamInitImpl@VCOPOSScale@@@ATL@@QAEJPAUIStream@@HPBUATL_PROPMAP_ENTRY@2@@Z 100075e9 f i Scale.obj
 0001:000067d7       ?IQuickActivate_QuickActivate@CComControlBase@ATL@@QAEJPAUtagQACONTAINER@@PAUtagQACONTROL@@@Z 100077d7 f i Scale.obj
 0001:00006a19       ?IViewObject_Draw@CComControlBase@ATL@@QAEJKJPAXPAUtagDVTARGETDEVICE@@PAUHDC__@@2PBU_RECTL@@3@Z 10007a19 f i Scale.obj
 0001:00006ac1       ?InPlaceActivate@CComControlBase@ATL@@QAEJJPBUtagRECT@@@Z 10007ac1 f i Scale.obj
 0001:00006d32       ?Init@?$CComEnumImpl@UIEnumConnectionPoints@@$1?_GUID_b196b285_bab4_101a_b69c_00aa00341d07@@3U__s_GUID@@BPAUIConnectionPoint@@V?$_CopyInterface@UIConnectionPoint@@@ATL@@@ATL@@QAEJPAPAUIConnectionPoint@@0PAUIUnknown@@W4CComEnumFlags@2@@Z 10007d32 f i Scale.obj
 0001:00006e11       ?Init@?$CComEnumImpl@UIEnumConnections@@$1?_GUID_b196b287_bab4_101a_b69c_00aa00341d07@@3U__s_GUID@@BUtagCONNECTDATA@@V?$_Copy@UtagCONNECTDATA@@@ATL@@@ATL@@QAEJPAUtagCONNECTDATA@@0PAUIUnknown@@W4CComEnumFlags@2@@Z 10007e11 f i Scale.obj
 0001:00006ef0       ?Init@CComModule@ATL@@QAEJPAU_ATL_OBJMAP_ENTRY30@2@PAUHINSTANCE__@@PBU_GUID@@@Z 10007ef0 f i Scale.obj
 0001:00006f4f       ?Init@CDynamicStdCallThunk2@ATL@@QAEHKPAX@Z 10007f4f f i Scale.obj
 0001:00006f7a       ?InlineIsEqualUnknown@ATL@@YGHABU_GUID@@@Z 10007f7a f i Scale.obj
 0001:00006fa2       ?InternalSetAtIndex@?$CSimpleMap@PA_WPA_WVCExpansionVectorEqualHelper@ATL@@@ATL@@QAEXHABQA_W0@Z 10007fa2 f i Scale.obj
 0001:00006fcc       ?Invoke@CComTypeInfoHolder@ATL@@QAEJPAUIDispatch@@JABU_GUID@@KGPAUtagDISPPARAMS@@PAUtagVARIANT@@PAUtagEXCEPINFO@@PAI@Z 10007fcc f i Scale.obj
 0001:0000700f       ?IsEqualObject@?$CComPtrBase@UIOleClientSite@@@ATL@@QAE_NPAUIUnknown@@@Z 1000800f f i Scale.obj
 0001:0000700f       ?IsEqualObject@?$CComPtrBase@UITypeInfo@@@ATL@@QAE_NPAUIUnknown@@@Z 1000800f f i Scale.obj
 0001:0000707c       ?IsSpace@CRegParser@ATL@@IAEH_W@Z 1000807c f i Scale.obj
 0001:000070a6       ?LoadNameCache@CComTypeInfoHolder@ATL@@QAEJPAUITypeInfo@@@Z 100080a6 f i Scale.obj
 0001:000071db       ?Lookup@?$CSimpleMap@PA_WPA_WVCExpansionVectorEqualHelper@ATL@@@ATL@@QBEPA_WABQA_W@Z 100081db f i Scale.obj
 0001:00007201       ?NextToken@CRegParser@ATL@@IAEJPA_W@Z 10008201 f i Scale.obj
 0001:00007339       ?OnKillFocus@CComControlBase@ATL@@QAEJIIJAAH@Z 10008339 f i Scale.obj
 0001:00007394       ?OnMouseActivate@CComControlBase@ATL@@QAEJIIJAAH@Z 10008394 f i Scale.obj
 0001:00007402       ?OnPaint@CComControlBase@ATL@@QAEJIIJAAH@Z 10008402 f i Scale.obj
 0001:000074b4       ?OnSetFocus@CComControlBase@ATL@@QAEJIIJAAH@Z 100084b4 f i Scale.obj
 0001:0000753d       ?Open@CRegKey@ATL@@QAEJPAUHKEY__@@PB_WK@Z 1000853d f i Scale.obj
 0001:00007592       ?PreProcessBuffer@CRegParser@ATL@@QAEJPA_WPAPA_W@Z 10008592 f i Scale.obj
 0001:00007801       ?ProcessWindowMessage@?$CComControl@VCOPOSScale@@V?$CWindowImpl@VCOPOSScale@@VCWindow@ATL@@V?$CWinTraits@$0FGAAAAAA@$0A@@3@@ATL@@@ATL@@UAEHPAUHWND__@@IIJAAJK@Z 10008801 f i Scale.obj
 0001:000078a0       ?ReadFromStream@CComBSTR@ATL@@QAEJPAUIStream@@@Z 100088a0 f i Scale.obj
 0001:000079c3       ?ReadFromStream@CComVariant@ATL@@QAEJPAUIStream@@GTClassesAllowedInStream@2@K@Z 100089c3 f i Scale.obj
 0001:00007b4d       ?RecurseDeleteKey@CRegKey@ATL@@QAEJPB_W@Z 10008b4d f i Scale.obj
 0001:00007c3b       ?RegCreateKeyExW@CAtlTransactionManager@ATL@@QAEJPAUHKEY__@@PB_WKPA_WKKQAU_SECURITY_ATTRIBUTES@@PAPAU3@PAK@Z 10008c3b f i Scale.obj
 0001:00007c9e       ?RegDeleteKeyW@CAtlTransactionManager@ATL@@QAEJPAUHKEY__@@PB_W@Z 10008c9e f i Scale.obj
 0001:00007cf0       ?RegOpenKeyExW@CAtlTransactionManager@ATL@@QAEJPAUHKEY__@@PB_WKKPAPAU3@@Z 10008cf0 f i Scale.obj
 0001:00007d47       ?Register@_ATL_WNDCLASSINFOW@ATL@@QAEGPAP6GJPAUHWND__@@IIJ@Z@Z 10008d47 f i Scale.obj
 0001:00007d67       ?RegisterBuffer@CRegParser@ATL@@QAEJPA_WH@Z 10008d67 f i Scale.obj
 0001:00007eae       ?RegisterFromResource@CRegObject@ATL@@IAEJPB_W00H@Z 10008eae f i Scale.obj
 0001:00007fe4       ?RegisterServer@?$CAtlModuleT@VCComModule@ATL@@@ATL@@QAEJHPBU_GUID@@@Z 10008fe4 f i Scale.obj
 0001:00008012       ?RegisterServer@CComModule@ATL@@QAEJHPBU_GUID@@@Z 10009012 f i Scale.obj
 0001:00008088       ?RegisterSubkeys@CRegParser@ATL@@IAEJPA_WPAUHKEY__@@HH@Z 10009088 f i Scale.obj
 0001:00008735       ?Remove@CComDynamicUnkArray@ATL@@QAEHK@Z 10009735 f i Scale.obj
 0001:0000875e       ?RemoveAll@?$CSimpleMap@PA_WPA_WVCExpansionVectorEqualHelper@ATL@@@ATL@@QAEXXZ 1000975e f i Scale.obj
 0001:0000878a       ?ResourceRegisterSz@CRegObject@ATL@@QAGJPB_W00@Z 1000978a f i Scale.obj
 0001:000087b7       ?ResourceUnregisterSz@CRegObject@ATL@@QAGJPB_W00@Z 100097b7 f i Scale.obj
 0001:000087e4       ?SendOnDataChange@CComControlBase@ATL@@QAEJK@Z 100097e4 f i Scale.obj
 0001:00008831       ?SetControlFocus@CComControlBase@ATL@@QAEHH@Z 10009831 f i Scale.obj
 0001:000088ce       ?SetMultiStringValue@CRegKey@ATL@@QAEJPB_W0@Z 100098ce f i Scale.obj
 0001:0000892a       ?SetStringValue@CRegKey@ATL@@QAEJPB_W0K@Z 1000992a f i Scale.obj
 0001:00008973       ?SkipAssignment@CRegParser@ATL@@IAEJPA_W@Z 10009973 f i Scale.obj
 0001:000089d8       ?SkipWhiteSpace@CRegParser@ATL@@IAEXXZ 100099d8 f i Scale.obj
 0001:000089fa       ?StrChrW@CRegParser@ATL@@KAPA_WPA_W_W@Z 100099fa f i Scale.obj
 0001:00008a37       ?Term@CAtlModule@ATL@@QAEXXZ 10009a37 f i Scale.obj
 0001:00008a8a       ?Term@CComModule@ATL@@QAEXXZ 10009a8a f i Scale.obj
 0001:00008ae2       ?UnregisterServer@?$CAtlModuleT@VCComModule@ATL@@@ATL@@QAEJHPBU_GUID@@@Z 10009ae2 f i Scale.obj
 0001:00008b08       ?UnregisterServer@CComModule@ATL@@QAEJHPBU_GUID@@@Z 10009b08 f i Scale.obj
 0001:00008b7e       ?UpdateRegistryFromResource@CAtlModule@ATL@@QAGJIHPAU_ATL_REGMAP_ENTRY@2@@Z 10009b7e f i Scale.obj
 0001:00008d49       ?UpdateRegistryFromResource@CAtlModule@ATL@@QAGJPB_WHPAU_ATL_REGMAP_ENTRY@2@@Z 10009d49 f i Scale.obj
 0001:00008f1a       ?VTFromRegType@CRegParser@ATL@@KAHPB_WAAG@Z 10009f1a f i Scale.obj
 0001:00008f87       ?WindowProc@?$CWindowImplBaseT@VCWindow@ATL@@V?$CWinTraits@$0FGAAAAAA@$0A@@2@@ATL@@SGJPAUHWND__@@IIJ@Z 10009f87 f i Scale.obj
 0001:00009079       ?WriteToStream@CComBSTR@ATL@@QAEJPAUIStream@@@Z 1000a079 f i Scale.obj
 0001:000090db       ?WriteToStream@CComVariant@ATL@@QAEJPAUIStream@@@Z 1000a0db f i Scale.obj
 0001:00009255       ?WriteToStream@CComVariant@ATL@@QAEJPAUIStream@@G@Z 1000a255 f i Scale.obj
 0001:000092be       ?_AtlInitialConstruct@?$CComObjectRootEx@VCComMultiThreadModel@ATL@@@ATL@@QAEJXZ 1000a2be f i Scale.obj
 0001:000092d3       ?_AtlVerifyStackAvailable@_ATL_SAFE_ALLOCA_IMPL@ATL@@YA_NK@Z 1000a2d3 f i Scale.obj
 0001:00009351       ?atlCreate@?$CWindowImpl@VCOPOSScale@@VCWindow@ATL@@V?$CWinTraits@$0FGAAAAAA@$0A@@3@@ATL@@QAEPAUHWND__@@PAU3@V_U_RECT@2@PB_WKKV_U_MENUorID@2@PAX@Z 1000a351 f i Scale.obj
 0001:00009395       ?atlCreate@?$CWindowImplBaseT@VCWindow@ATL@@V?$CWinTraits@$0FGAAAAAA@$0A@@2@@ATL@@QAEPAUHWND__@@PAU3@V_U_RECT@2@PB_WKKV_U_MENUorID@2@GPAX@Z 1000a395 f i Scale.obj
 0001:00009431       ?copy@?$_Copy@UtagCONNECTDATA@@@ATL@@SAJPAUtagCONNECTDATA@@PBU3@@Z 1000a431 f i Scale.obj
 0001:00009467       ?copy@?$_CopyInterface@UIConnectionPoint@@@ATL@@SAJPAPAUIConnectionPoint@@PBQAU3@@Z 1000a467 f i Scale.obj
 0001:00009495       ?memcpy_s@Checked@ATL@@YAXPAXIPBXI@Z 1000a495 f i Scale.obj
 0001:000094b4       ?ocscpy_s@@YA_NPA_WIPB_W@Z 1000a4b4 f i Scale.obj
 0001:000094fe       ?wcscpy_s@Checked@ATL@@YAXPA_WIPB_W@Z 1000a4fe f i Scale.obj
 0001:0000951a       _DllCanUnloadNow@0         1000a51a f   Scale.obj
 0001:00009526       _DllGetClassObject@12      1000a526 f   Scale.obj
 0001:00009534       _DllMain@12                1000a534 f   Scale.obj
 0001:00009576       _DllRegisterServer@0       1000a576 f   Scale.obj
 0001:00009585       _DllUnregisterServer@0     1000a585 f   Scale.obj
 0001:00009594       _InlineIsEqualGUID         1000a594 f i Scale.obj
 0001:000095c4       ___local_stdio_printf_options 1000a5c4 f i Scale.obj
 0001:000095ca       __vswprintf_s_l            1000a5ca f i Scale.obj
 0001:00009677       _swprintf_s                1000a677 f i Scale.obj
 0001:00009693       ??0?$CComControl@VCOPOSScale@@V?$CWindowImpl@VCOPOSScale@@VCWindow@ATL@@V?$CWinTraits@$0FGAAAAAA@$0A@@3@@ATL@@@ATL@@QAE@XZ 1000a693 f i ScaleImpl.obj
 0001:000096ba       ??0?$CProxy_IOPOSEvents@VCOPOSScale@@@@QAE@XZ 1000a6ba f i ScaleImpl.obj
 0001:000096da       ??0CComControlBase@ATL@@QAE@AAPAUHWND__@@@Z 1000a6da f i ScaleImpl.obj
 0001:00009724       ??0COPOSScale@@QAE@XZ      1000a724 f   ScaleImpl.obj
 0001:0000975a       ??1?$CComControl@VCOPOSScale@@V?$CWindowImpl@VCOPOSScale@@VCWindow@ATL@@V?$CWinTraits@$0FGAAAAAA@$0A@@3@@ATL@@@ATL@@UAE@XZ 1000a75a f i ScaleImpl.obj
 0001:00009773       ??1?$IConnectionPointImpl@VCOPOSScale@@$1?DIID__IOPOSScaleEvents@@3U_GUID@@BVCComDynamicUnkArray@ATL@@@ATL@@QAE@XZ 1000a773 f i ScaleImpl.obj
 0001:00009773       ??1?$IConnectionPointImpl@VCOPOSScale@@$1?IID_IPropertyNotifySink@@3U_GUID@@BVCComDynamicUnkArray@ATL@@@ATL@@QAE@XZ 1000a773 f i ScaleImpl.obj
 0001:000097b0       ??1CComControlBase@ATL@@UAE@XZ 1000a7b0 f i ScaleImpl.obj
 0001:00009813       ??1COPOSScale@@UAE@XZ      1000a813 f   ScaleImpl.obj
 0001:0000985b       ?CheckHealth@COPOSScale@@UAGJJPAJ@Z 1000a85b f   ScaleImpl.obj
 0001:000098aa       ?ClaimDevice@COPOSScale@@UAGJJPAJ@Z 1000a8aa f   ScaleImpl.obj
 0001:0000991f       ?ClearInput@COPOSScale@@UAGJPAJ@Z 1000a91f f   ScaleImpl.obj
 0001:0000993a       ?Close@COPOSScale@@UAGJPAJ@Z 1000a93a f   ScaleImpl.obj
 0001:000099a8       ?CompareFirmwareVersion@COPOSScale@@UAGJPA_WPAJ1@Z 1000a9a8 f   ScaleImpl.obj
 0001:00009a28       ?DirectIO@COPOSScale@@UAGJJPAJPAPA_W0@Z 1000aa28 f   ScaleImpl.obj
 0001:00009ad6       ?DisplayText@COPOSScale@@UAGJPA_WPAJ@Z 1000aad6 f   ScaleImpl.obj
 0001:00009b2d       ?DoInvoke@COPOSScale@@IAEJJPAVOposVariant@@IHPAJ_N@Z 1000ab2d f   ScaleImpl.obj
 0001:00009c09       ?DoPriceCalculating@COPOSScale@@UAGJPAJ0PATtagCY@@10001J0@Z 1000ac09 f   ScaleImpl.obj
 0001:00009d98       ?EventClose@COPOSScale@@IAEXXZ 1000ad98 f i ScaleImpl.obj
 0001:00009dcb       ?EventInit@COPOSScale@@IAEJXZ 1000adcb f i ScaleImpl.obj
 0001:00009e97       ?EventUninit@COPOSScale@@IAEXXZ 1000ae97 f i ScaleImpl.obj
 0001:00009ee9       ?EventWindowProc@COPOSScale@@IAGJIIJ@Z 1000aee9 f i ScaleImpl.obj
 0001:00009fbd       ?FinalConstruct@COPOSScale@@QAEJXZ 1000afbd f   ScaleImpl.obj
 0001:00009ff6       ?FireEventCleanup@COPOSScale@@IAEXXZ 1000aff6 f i ScaleImpl.obj
 0001:0000a00c       ?FireEventSetup@COPOSScale@@IAE_NXZ 1000b00c f i ScaleImpl.obj
 0001:0000a040       ?FreezeEvents@COPOSScale@@MAGJH@Z 1000b040 f   ScaleImpl.obj
 0001:0000a0a0       ?FreezeValue@COPOSScale@@UAGJJFPAJ@Z 1000b0a0 f   ScaleImpl.obj
 0001:0000a114       ?GetOposProp@COPOSScale@@IAEJJPAFJ@Z 1000b114 f   ScaleImpl.obj
 0001:0000a137       ?GetOposProp@COPOSScale@@IAEJJPAJJ@Z 1000b137 f   ScaleImpl.obj
 0001:0000a206       ?GetOposProp@COPOSScale@@IAEJJPAPA_WJ@Z 1000b206 f   ScaleImpl.obj
 0001:0000a2e2       ?OnDraw@COPOSScale@@MAEJAAUATL_DRAWINFO@@@Z 1000b2e2 f   ScaleImpl.obj
 0001:0000a382       ?Open@COPOSScale@@UAGJPA_WPAJ@Z 1000b382 f   ScaleImpl.obj
 0001:0000abc5       ?ReadLiveWeightWithTare@COPOSScale@@UAGJPAJ0J0@Z 1000bbc5 f   ScaleImpl.obj
 0001:0000ac73       ?ReadWeight@COPOSScale@@UAGJPAJJ0@Z 1000bc73 f   ScaleImpl.obj
 0001:0000acef       ?ReleaseDevice@COPOSScale@@UAGJPAJ@Z 1000bcef f   ScaleImpl.obj
 0001:0000ad3e       ?ResetStatistics@COPOSScale@@UAGJPA_WPAJ@Z 1000bd3e f   ScaleImpl.obj
 0001:0000ad95       ?RetrieveStatistics@COPOSScale@@UAGJPAPA_WPAJ@Z 1000bd95 f   ScaleImpl.obj
 0001:0000adec       ?SOProcessID@COPOSScale@@UAGJPAJ@Z 1000bdec f   ScaleImpl.obj
 0001:0000ae00       ?SetCOFreezeEvents@COPOSScale@@IAEXF@Z 1000be00 f   ScaleImpl.obj
 0001:0000aea0       ?SetOposProp@COPOSScale@@IAEJJJJ@Z 1000bea0 f   ScaleImpl.obj
 0001:0000af97       ?SetPriceCalculationMode@COPOSScale@@UAGJJPAJ@Z 1000bf97 f   ScaleImpl.obj
 0001:0000afe6       ?SetSpecialTare@COPOSScale@@UAGJJJPAJ@Z 1000bfe6 f   ScaleImpl.obj
 0001:0000b05a       ?SetTarePriority@COPOSScale@@UAGJJPAJ@Z 1000c05a f   ScaleImpl.obj
 0001:0000b0a9       ?SetUnitPriceWithWeightUnit@COPOSScale@@UAGJTtagCY@@JJJPAJ@Z 1000c0a9 f   ScaleImpl.obj
 0001:0000b14d       ?UpdateFirmware@COPOSScale@@UAGJPA_WPAJ@Z 1000c14d f   ScaleImpl.obj
 0001:0000b1a4       ?UpdateStatistics@COPOSScale@@UAGJPA_WPAJ@Z 1000c1a4 f   ScaleImpl.obj
 0001:0000b1fb       ?ZeroScale@COPOSScale@@UAGJPAJ@Z 1000c1fb f   ScaleImpl.obj
 0001:0000b216       ?get_AsyncMode@COPOSScale@@UAGJPAF@Z 1000c216 f   ScaleImpl.obj
 0001:0000b22f       ?get_AutoDisable@COPOSScale@@UAGJPAF@Z 1000c22f f   ScaleImpl.obj
 0001:0000b245       ?get_BinaryConversion@COPOSScale@@UAGJPAJ@Z 1000c245 f   ScaleImpl.obj
 0001:0000b25b       ?get_CapCompareFirmwareVersion@COPOSScale@@UAGJPAF@Z 1000c25b f   ScaleImpl.obj
 0001:0000b274       ?get_CapDisplay@COPOSScale@@UAGJPAF@Z 1000c274 f   ScaleImpl.obj
 0001:0000b28d       ?get_CapDisplayText@COPOSScale@@UAGJPAF@Z 1000c28d f   ScaleImpl.obj
 0001:0000b2a6       ?get_CapFreezeValue@COPOSScale@@UAGJPAF@Z 1000c2a6 f   ScaleImpl.obj
 0001:0000b2bf       ?get_CapPowerReporting@COPOSScale@@UAGJPAJ@Z 1000c2bf f   ScaleImpl.obj
 0001:0000b2d8       ?get_CapPriceCalculating@COPOSScale@@UAGJPAF@Z 1000c2d8 f   ScaleImpl.obj
 0001:0000b2f1       ?get_CapReadLiveWeightWithTare@COPOSScale@@UAGJPAF@Z 1000c2f1 f   ScaleImpl.obj
 0001:0000b30a       ?get_CapSetPriceCalculationMode@COPOSScale@@UAGJPAF@Z 1000c30a f   ScaleImpl.obj
 0001:0000b323       ?get_CapSetUnitPriceWithWeightUnit@COPOSScale@@UAGJPAF@Z 1000c323 f   ScaleImpl.obj
 0001:0000b33c       ?get_CapSpecialTare@COPOSScale@@UAGJPAF@Z 1000c33c f   ScaleImpl.obj
 0001:0000b355       ?get_CapStatisticsReporting@COPOSScale@@UAGJPAF@Z 1000c355 f   ScaleImpl.obj
 0001:0000b36e       ?get_CapStatusUpdate@COPOSScale@@UAGJPAF@Z 1000c36e f   ScaleImpl.obj
 0001:0000b387       ?get_CapTarePriority@COPOSScale@@UAGJPAF@Z 1000c387 f   ScaleImpl.obj
 0001:0000b3a0       ?get_CapTareWeight@COPOSScale@@UAGJPAF@Z 1000c3a0 f   ScaleImpl.obj
 0001:0000b3b9       ?get_CapUpdateFirmware@COPOSScale@@UAGJPAF@Z 1000c3b9 f   ScaleImpl.obj
 0001:0000b3d2       ?get_CapUpdateStatistics@COPOSScale@@UAGJPAF@Z 1000c3d2 f   ScaleImpl.obj
 0001:0000b3eb       ?get_CapZeroScale@COPOSScale@@UAGJPAF@Z 1000c3eb f   ScaleImpl.obj
 0001:0000b404       ?get_CheckHealthText@COPOSScale@@UAGJPAPA_W@Z 1000c404 f   ScaleImpl.obj
 0001:0000b41d       ?get_Claimed@COPOSScale@@UAGJPAF@Z 1000c41d f   ScaleImpl.obj
 0001:0000b433       ?get_ControlObjectDescription@COPOSScale@@UAGJPAPA_W@Z 1000c433 f   ScaleImpl.obj
 0001:0000b481       ?get_ControlObjectVersion@COPOSScale@@UAGJPAJ@Z 1000c481 f   ScaleImpl.obj
 0001:0000b494       ?get_DataCount@COPOSScale@@UAGJPAJ@Z 1000c494 f   ScaleImpl.obj
 0001:0000b4aa       ?get_DataEventEnabled@COPOSScale@@UAGJPAF@Z 1000c4aa f   ScaleImpl.obj
 0001:0000b4c0       ?get_DeviceDescription@COPOSScale@@UAGJPAPA_W@Z 1000c4c0 f   ScaleImpl.obj
 0001:0000b4d9       ?get_DeviceEnabled@COPOSScale@@UAGJPAF@Z 1000c4d9 f   ScaleImpl.obj
 0001:0000b4ef       ?get_DeviceName@COPOSScale@@UAGJPAPA_W@Z 1000c4ef f   ScaleImpl.obj
 0001:0000b508       ?get_FreezeEvents@COPOSScale@@UAGJPAF@Z 1000c508 f   ScaleImpl.obj
 0001:0000b51e       ?get_MaxDisplayTextChars@COPOSScale@@UAGJPAJ@Z 1000c51e f   ScaleImpl.obj
 0001:0000b537       ?get_MaximumWeight@COPOSScale@@UAGJPAJ@Z 1000c537 f   ScaleImpl.obj
 0001:0000b550       ?get_MinimumWeight@COPOSScale@@UAGJPAJ@Z 1000c550 f   ScaleImpl.obj
 0001:0000b569       ?get_OpenResult@COPOSScale@@UAGJPAJ@Z 1000c569 f   ScaleImpl.obj
 0001:0000b580       ?get_PowerNotify@COPOSScale@@UAGJPAJ@Z 1000c580 f   ScaleImpl.obj
 0001:0000b596       ?get_PowerState@COPOSScale@@UAGJPAJ@Z 1000c596 f   ScaleImpl.obj
 0001:0000b5ac       ?get_ResultCode@COPOSScale@@UAGJPAJ@Z 1000c5ac f   ScaleImpl.obj
 0001:0000b5ea       ?get_ResultCodeExtended@COPOSScale@@UAGJPAJ@Z 1000c5ea f   ScaleImpl.obj
 0001:0000b600       ?get_SalesPrice@COPOSScale@@UAGJPATtagCY@@@Z 1000c600 f   ScaleImpl.obj
 0001:0000b69a       ?get_ScaleLiveWeight@COPOSScale@@UAGJPAJ@Z 1000c69a f   ScaleImpl.obj
 0001:0000b6b3       ?get_ServiceObjectDescription@COPOSScale@@UAGJPAPA_W@Z 1000c6b3 f   ScaleImpl.obj
 0001:0000b6cc       ?get_ServiceObjectVersion@COPOSScale@@UAGJPAJ@Z 1000c6cc f   ScaleImpl.obj
 0001:0000b6e2       ?get_State@COPOSScale@@UAGJPAJ@Z 1000c6e2 f   ScaleImpl.obj
 0001:0000b70e       ?get_StatusNotify@COPOSScale@@UAGJPAJ@Z 1000c70e f   ScaleImpl.obj
 0001:0000b727       ?get_TareWeight@COPOSScale@@UAGJPAJ@Z 1000c727 f   ScaleImpl.obj
 0001:0000b740       ?get_UnitPrice@COPOSScale@@UAGJPATtagCY@@@Z 1000c740 f   ScaleImpl.obj
 0001:0000b7da       ?get_WeightUnits@COPOSScale@@UAGJPAJ@Z 1000c7da f   ScaleImpl.obj
 0001:0000b7da       ?get_WeightUnit@COPOSScale@@UAGJPAJ@Z 1000c7da f   ScaleImpl.obj
 0001:0000b7f3       ?get_ZeroValid@COPOSScale@@UAGJPAF@Z 1000c7f3 f   ScaleImpl.obj
 0001:0000b80c       ?put_AsyncMode@COPOSScale@@UAGJF@Z 1000c80c f   ScaleImpl.obj
 0001:0000b82c       ?put_AutoDisable@COPOSScale@@UAGJF@Z 1000c82c f   ScaleImpl.obj
 0001:0000b849       ?put_BinaryConversion@COPOSScale@@UAGJJ@Z 1000c849 f   ScaleImpl.obj
 0001:0000b85f       ?put_DataEventEnabled@COPOSScale@@UAGJF@Z 1000c85f f   ScaleImpl.obj
 0001:0000b87c       ?put_DeviceEnabled@COPOSScale@@UAGJF@Z 1000c87c f   ScaleImpl.obj
 0001:0000b899       ?put_FreezeEvents@COPOSScale@@UAGJF@Z 1000c899 f   ScaleImpl.obj
 0001:0000b8e5       ?put_PowerNotify@COPOSScale@@UAGJJ@Z 1000c8e5 f   ScaleImpl.obj
 0001:0000b8fb       ?put_StatusNotify@COPOSScale@@UAGJJ@Z 1000c8fb f   ScaleImpl.obj
 0001:0000b914       ?put_TareWeight@COPOSScale@@UAGJJ@Z 1000c914 f   ScaleImpl.obj
 0001:0000b92d       ?put_UnitPrice@COPOSScale@@UAGJTtagCY@@@Z 1000c92d f   ScaleImpl.obj
 0001:0000b9e7       ?put_ZeroValid@COPOSScale@@UAGJF@Z 1000c9e7 f   ScaleImpl.obj
 0001:0000ba07       ?s_EventWindowProc@COPOSScale@@KGJPAUHWND__@@IIJ@Z 1000ca07 f i ScaleImpl.obj
 0001:0000ba59       ??_U@YAPAXI@Z              1000ca59 f   LIBCMT:new_array.obj
 0001:0000ba62       ??3@YAXPAXI@Z              1000ca62 f   LIBCMT:delete_scalar_size.obj
 0001:0000ba70       ??_V@YAXPAX@Z              1000ca70 f   LIBCMT:delete_array.obj
 0001:0000ba75       ??_V@YAXPAXI@Z             1000ca75 f   LIBCMT:delete_array_size.obj
 0001:0000bac7       ___scrt_acquire_startup_lock 1000cac7 f   LIBCMT:utility.obj
 0001:0000baf9       ___scrt_dllmain_after_initialize_c 1000caf9 f   LIBCMT:utility.obj
 0001:0000bb24       ___scrt_dllmain_before_initialize_c 1000cb24 f   LIBCMT:utility.obj
 0001:0000bb32       ___scrt_dllmain_crt_thread_attach 1000cb32 f   LIBCMT:utility.obj
 0001:0000bb51       ___scrt_dllmain_crt_thread_detach 1000cb51 f   LIBCMT:utility.obj
 0001:0000bb5e       ___scrt_dllmain_exception_filter 1000cb5e f   LIBCMT:utility.obj
 0001:0000bb92       ___scrt_dllmain_uninitialize_c 1000cb92 f   LIBCMT:utility.obj
 0001:0000bbb5       ___scrt_dllmain_uninitialize_critical 1000cbb5 f   LIBCMT:utility.obj
 0001:0000bbc2       ___scrt_initialize_crt     1000cbc2 f   LIBCMT:utility.obj
 0001:0000bbfb       ___scrt_initialize_onexit_tables 1000cbfb f   LIBCMT:utility.obj
 0001:0000bc82       ___scrt_is_nonwritable_in_current_image 1000cc82 f   LIBCMT:utility.obj
 0001:0000bd16       ___scrt_release_startup_lock 1000cd16 f   LIBCMT:utility.obj
 0001:0000bd33       ___scrt_uninitialize_crt   1000cd33 f   LIBCMT:utility.obj
 0001:0000bd5b       __onexit                   1000cd5b f   LIBCMT:utility.obj
 0001:0000bd88       _atexit                    1000cd88 f   LIBCMT:utility.obj
 0001:0000bd9d       ??3@YAXPAX@Z               1000cd9d f   LIBCMT:delete_scalar.obj
 0001:0000be67       __Init_thread_footer       1000ce67 f   LIBCMT:thread_safe_statics.obj
 0001:0000beb1       __Init_thread_header       1000ceb1 f   LIBCMT:thread_safe_statics.obj
 0001:0000bf03       __Init_thread_notify       1000cf03 f   LIBCMT:thread_safe_statics.obj
 0001:0000bf39       __Init_thread_wait         1000cf39 f   LIBCMT:thread_safe_statics.obj
 0001:0000bf87       ___raise_securityfailure   1000cf87 f   LIBCMT:gs_report.obj
 0001:0000bfaf       ___report_gsfailure        1000cfaf f   LIBCMT:gs_report.obj
 0001:0000c0a8       ___report_rangecheckfailure 1000d0a8 f   LIBCMT:gs_report.obj
 0001:0000c0b4       ___report_securityfailure  1000d0b4 f   LIBCMT:gs_report.obj
 0001:0000c182       ??2@YAPAXIABUnothrow_t@std@@@Z 1000d182 f   LIBCMT:new_scalar_nothrow.obj
 0001:0000c1d2       ??_U@YAPAXIABUnothrow_t@std@@@Z 1000d1d2 f   LIBCMT:new_array_nothrow.obj
 0001:0000c1db       @__security_check_cookie@4 1000d1db f   LIBCMT:secchk.obj
 0001:0000c1f0       __SEH_prolog4_GS           1000d1f0 f   LIBCMT:sehprolg4gs.obj
 0001:0000c239       __SEH_epilog4_GS           1000d239 f   LIBCMT:sehprolg4gs.obj
 0001:0000c250       __alloca_probe_16          1000d250 f   LIBCMT:alloca16.obj
 0001:0000c266       __alloca_probe_8           1000d266     LIBCMT:alloca16.obj
 0001:0000c280       __alloca_probe             1000d280 f   LIBCMT:chkstk.obj
 0001:0000c280       __chkstk                   1000d280 f   LIBCMT:chkstk.obj
 0001:0000c5ed       __DllMainCRTStartup@12     1000d5ed f   LIBCMT:dll_dllmain.obj
 0001:0000c610       ??2@YAPAXI@Z               1000d610 f   LIBCMT:new_scalar.obj
 0001:0000c640       ___isa_available_init      1000d640 f   LIBCMT:cpu_disp.obj
 0001:0000c810       ___scrt_is_ucrt_dll_in_use 1000d810 f   LIBCMT:ucrt_detection.obj
 0001:0000c81c       ___scrt_fastfail           1000d81c f   LIBCMT:utility_desktop.obj
 0001:0000c936       __crt_debugger_hook        1000d936 f   LIBCMT:utility_desktop.obj
 0001:0000c940       __SEH_prolog4              1000d940 f   LIBCMT:sehprolg4.obj
 0001:0000c986       __SEH_epilog4              1000d986 f   LIBCMT:sehprolg4.obj
 0001:0000c99b       @_guard_check_icall_nop@4  1000d99b f i LIBCMT:guard_support.obj
 0001:0000c9e9       ___security_init_cookie    1000d9e9 f   LIBCMT:gs_support.obj
 0001:0000ca34       ?__scrt_initialize_type_info@@YAXXZ 1000da34 f   LIBCMT:tncleanup.obj
 0001:0000ca40       ?__scrt_uninitialize_type_info@@YAXXZ 1000da40 f   LIBCMT:tncleanup.obj
 0001:0000ca4c       ___local_stdio_scanf_options 1000da4c f i LIBCMT:default_local_stdio_options.obj
 0001:0000ca52       ___scrt_initialize_default_local_stdio_options 1000da52 f   LIBCMT:default_local_stdio_options.obj
 0001:0000ca6f       ___scrt_get_dyn_tls_init_callback 1000da6f f   LIBCMT:dyn_tls_init.obj
 0001:0000ca75       __RTC_Initialize           1000da75 f   LIBCMT:initsect.obj
 0001:0000caa1       __RTC_Terminate            1000daa1 f   LIBCMT:initsect.obj
 0001:0000cacd       ??0bad_alloc@std@@QAE@ABV01@@Z 1000dacd f i LIBCMT:throw_bad_alloc.obj
 0001:0000cae8       ??0bad_alloc@std@@QAE@XZ   1000dae8 f i LIBCMT:throw_bad_alloc.obj
 0001:0000cb00       ??0bad_array_new_length@std@@QAE@ABV01@@Z 1000db00 f i LIBCMT:throw_bad_alloc.obj
 0001:0000cb1b       ??0bad_array_new_length@std@@QAE@XZ 1000db1b f i LIBCMT:throw_bad_alloc.obj
 0001:0000cb33       ??0exception@std@@QAE@ABV01@@Z 1000db33 f i LIBCMT:throw_bad_alloc.obj
 0001:0000cb5f       ??1bad_alloc@std@@UAE@XZ   1000db5f f i LIBCMT:throw_bad_alloc.obj
 0001:0000cb5f       ??1bad_exception@std@@UAE@XZ 1000db5f f i libvcruntime:frame.obj
 0001:0000cb5f       ??1bad_array_new_length@std@@UAE@XZ 1000db5f f i LIBCMT:throw_bad_alloc.obj
 0001:0000cb70       ??_Ebad_exception@std@@UAEPAXI@Z 1000db70 f i libvcruntime:frame.obj
 0001:0000cb70       ??_Ebad_alloc@std@@UAEPAXI@Z 1000db70 f i LIBCMT:throw_bad_alloc.obj
 0001:0000cb70       ??_Gexception@std@@UAEPAXI@Z 1000db70 f i LIBCMT:throw_bad_alloc.obj
 0001:0000cb70       ??_Gbad_alloc@std@@UAEPAXI@Z 1000db70 f i LIBCMT:throw_bad_alloc.obj
 0001:0000cb70       ??_Eexception@std@@UAEPAXI@Z 1000db70 f i LIBCMT:throw_bad_alloc.obj
 0001:0000cb70       ??_Ebad_array_new_length@std@@UAEPAXI@Z 1000db70 f i LIBCMT:throw_bad_alloc.obj
 0001:0000cb70       ??_Gbad_array_new_length@std@@UAEPAXI@Z 1000db70 f i LIBCMT:throw_bad_alloc.obj
 0001:0000cb70       ??_Gbad_exception@std@@UAEPAXI@Z 1000db70 f i libvcruntime:frame.obj
 0001:0000cb9d       ?__scrt_throw_std_bad_alloc@@YAXXZ 1000db9d f   LIBCMT:throw_bad_alloc.obj
 0001:0000cbba       ?__scrt_throw_std_bad_array_new_length@@YAXXZ 1000dbba f   LIBCMT:throw_bad_alloc.obj
 0001:0000cbd7       ?what@exception@std@@UBEPBDXZ 1000dbd7 f i LIBCMT:throw_bad_alloc.obj
 0001:0000cbe4       ??_Gtype_info@@UAEPAXI@Z   1000dbe4 f i LIBCMT:std_type_info_static.obj
 0001:0000cbe4       ??_Etype_info@@UAEPAXI@Z   1000dbe4 f i LIBCMT:std_type_info_static.obj
 0001:0000cc07       ??0CAtlBaseModule@ATL@@QAE@XZ 1000dc07 f   atls:atlbase.obj
 0001:0000cc5a       ??0_ATL_BASE_MODULE70@ATL@@QAE@XZ 1000dc5a f i atls:atlbase.obj
 0001:0000cc7d       ??1CAtlBaseModule@ATL@@QAE@XZ 1000dc7d f   atls:atlbase.obj
 0001:0000cd6a       ?Init@_stdcallthunk@ATL@@QAEHKPAX@Z 1000dd6a f i atls:atlthunk.obj
 0001:0000cd9f       ?__AllocStdCallThunk_cmn@@YAPAXXZ 1000dd9f f   atls:atlthunk.obj
 0001:0000ce65       ?__FreeStdCallThunk_cmn@@YAXPAX@Z 1000de65 f   atls:atlthunk.obj
 0001:0000cf00       _AtlThunk_AllocateData@0   1000df00 f   atls:atlthunk.obj
 0001:0000cf65       _AtlThunk_DataToCode@4     1000df65 f   atls:atlthunk.obj
 0001:0000cfac       _AtlThunk_FreeData@4       1000dfac f   atls:atlthunk.obj
 0001:0000d002       _AtlThunk_InitData@12      1000e002 f   atls:atlthunk.obj
 0001:0000d051       __get_purecall_handler     1000e051 f   libvcruntime:purevirt.obj
 0001:0000d057       __purecall                 1000e057 f   libvcruntime:purevirt.obj
 0001:0000d073       _wcsstr                    1000e073 f   libvcruntime:wcsstr.obj
 0001:0000d320       __except_handler4          1000e320 f   libvcruntime:chandler4.obj
 0001:0000d47e       _memcmp                    1000e47e f   libvcruntime:memcmp.obj
 0001:0000e390       _memcpy                    1000f390 f   libvcruntime:memcpy.obj
 0001:0000e910       _memset                    1000f910 f   libvcruntime:memset.obj
 0001:0000ea6a       ___vcrt_initialize         1000fa6a f   libvcruntime:initialization.obj
 0001:0000ea89       ___vcrt_thread_attach      1000fa89 f   libvcruntime:initialization.obj
 0001:0000ea94       ___vcrt_thread_detach      1000fa94 f   libvcruntime:initialization.obj
 0001:0000ea9f       ___vcrt_uninitialize       1000fa9f f   libvcruntime:initialization.obj
 0001:0000eab6       ___vcrt_uninitialize_critical 1000fab6 f   libvcruntime:initialization.obj
 0001:0000eabe       ?GetRangeOfTrysToCheck@__FrameHandler3@@SA?AU?$pair@Viterator@TryBlockMap@__FrameHandler3@@V123@@std@@AAVTryBlockMap@1@HPAXPBU_s_FuncInfo@@H@Z 1000fabe f   libvcruntime:trnsctrl.obj
 0001:0000eb2e       ?_CallCatchBlock2@@YAPAXPAUEHRegistrationNode@@PBU_s_FuncInfo@@PAXHK@Z 1000fb2e f   libvcruntime:trnsctrl.obj
 0001:0000eb8c       ?_CallSETranslator@@YAHPAUEHExceptionRecord@@PAUEHRegistrationNode@@PAX2PBU_s_FuncInfo@@H1@Z 1000fb8c f   libvcruntime:trnsctrl.obj
 0001:0000ec72       ?_JumpToContinuation@@YGXPAXPAUEHRegistrationNode@@@Z 1000fc72 f   libvcruntime:trnsctrl.obj
 0001:0000eca2       ?_UnwindNestedFrames@@YGXPAUEHRegistrationNode@@PAUEHExceptionRecord@@@Z 1000fca2 f   libvcruntime:trnsctrl.obj
 0001:0000ecf5       __CatchGuardHandler        1000fcf5 f   libvcruntime:trnsctrl.obj
 0001:0000ed26       __CreateFrameInfo          1000fd26 f   libvcruntime:trnsctrl.obj
 0001:0000ed4a       __FindAndUnlinkFrame       1000fd4a f   libvcruntime:trnsctrl.obj
 0001:0000ed92       __TranslatorGuardHandler   1000fd92 f   libvcruntime:trnsctrl.obj
 0001:0000ee2f       ___CxxFrameHandler3        1000fe2f f   libvcruntime:trnsctrl.obj
 0001:0000ee65       ___DestructExceptionObject 1000fe65 f   libvcruntime:ehhelpers.obj
 0001:0000ef06       ?_CallMemberFunction0@@YGXQAX0@Z 1000ff06 f i libvcruntime:ehhelpers.obj
 0001:0000ef6b       __IsExceptionObjectToBeDestroyed 1000ff6b f   libvcruntime:ehhelpers.obj
 0001:0000ef91       ___AdjustPointer           1000ff91 f   libvcruntime:ehhelpers.obj
 0001:0000efb6       ___FrameUnwindFilter       1000ffb6 f   libvcruntime:ehhelpers.obj
 0001:0000f00c       ___std_type_info_compare   1001000c f   libvcruntime:std_type_info.obj
 0001:0000f048       ___std_type_info_destroy_list 10010048 f   libvcruntime:std_type_info.obj
 0001:0000f06b       ___std_exception_copy      1001006b f   libvcruntime:std_exception.obj
 0001:0000f0ce       ___std_exception_destroy   100100ce f   libvcruntime:std_exception.obj
 0001:0000f0ed       __CxxThrowException@8      100100ed f   libvcruntime:throw.obj
 0001:0000f160       _memmove                   10010160 f   libvcruntime:memmove.obj
 0001:0000f6e0       __local_unwind4            100106e0 f   libvcruntime:exsup4.obj
 0001:0000f7b8       __seh_longjmp_unwind4@4    100107b8 f   libvcruntime:exsup4.obj
 0001:0000f7e0       @_EH4_CallFilterFunc@8     100107e0 f   libvcruntime:exsup4.obj
 0001:0000f7f8       @_EH4_TransferToHandler@8  100107f8 f   libvcruntime:exsup4.obj
 0001:0000f814       @_EH4_GlobalUnwind2@8      10010814 f   libvcruntime:exsup4.obj
 0001:0000f830       @_EH4_LocalUnwind@16       10010830 f   libvcruntime:exsup4.obj
 0001:0000f847       ___except_validate_context_record 10010847 f   libvcruntime:jbcxrval.obj
 0001:0000f877       ___except_validate_jump_buffer 10010877 f   libvcruntime:jbcxrval.obj
 0001:0000f8a4       ___vcrt_freefls@4          100108a4 f   libvcruntime:per_thread_data.obj
 0001:0000f8c0       ___vcrt_freeptd            100108c0 f   libvcruntime:per_thread_data.obj
 0001:0000f8f6       ___vcrt_getptd             100108f6 f   libvcruntime:per_thread_data.obj
 0001:0000f904       ___vcrt_getptd_noexit      10010904 f   libvcruntime:per_thread_data.obj
 0001:0000f996       ___vcrt_initialize_ptd     10010996 f   libvcruntime:per_thread_data.obj
 0001:0000f9c9       ___vcrt_uninitialize_ptd   100109c9 f   libvcruntime:per_thread_data.obj
 0001:0000f9e4       ___vcrt_initialize_locks   100109e4 f   libvcruntime:locks.obj
 0001:0000fa20       ___vcrt_uninitialize_locks 10010a20 f   libvcruntime:locks.obj
 0001:00010192       ??$TypeMatchHelper@V__FrameHandler3@@@@YAHPBU_s_HandlerType@@PBU_s_CatchableType@@PBU_s_ThrowInfo@@@Z 10011192 f i libvcruntime:frame.obj
 0001:00010220       ??$__InternalCxxFrameHandler@V__FrameHandler3@@@@YA?AW4_EXCEPTION_DISPOSITION@@PAUEHExceptionRecord@@PAUEHRegistrationNode@@PAU_CONTEXT@@PAXPBU_s_FuncInfo@@H1E@Z 10011220 f i libvcruntime:frame.obj
 0001:00010322       ??0bad_exception@std@@QAE@ABV01@@Z 10011322 f i libvcruntime:frame.obj
 0001:0001033d       ??0bad_exception@std@@QAE@XZ 1001133d f i libvcruntime:frame.obj
 0001:00010355       ??8type_info@@QBE_NABV0@@Z 10011355 f i libvcruntime:frame.obj
 0001:000105bc       ?FrameUnwindToEmptyState@__FrameHandler3@@SAXPAUEHRegistrationNode@@PAXPBU_s_FuncInfo@@@Z 100115bc f   libvcruntime:frame.obj
 0001:000105d4       ?FrameUnwindToState@__FrameHandler3@@SAXPAUEHRegistrationNode@@PAXPBU_s_FuncInfo@@H@Z 100115d4 f   libvcruntime:frame.obj
 0001:00010756       ?_CallMemberFunction1@@YGXQAX00@Z 10011756 f i libvcruntime:frame.obj
 0001:00010766       ?_CallMemberFunction2@@YGXQAX00H@Z 10011766 f i libvcruntime:frame.obj
 0001:00010779       ?getESTypes@__FrameHandler3@@SAPBU_s_ESTypeList@@PBU_s_FuncInfo@@@Z 10011779 f i libvcruntime:frame.obj
 0001:00010790       __CallSettingFrame@12      10011790 f   libvcruntime:lowhelpr.obj
 0001:000107b7       __NLG_Return               100117b7     libvcruntime:lowhelpr.obj
 0001:000107e0       __global_unwind2           100117e0 f   libvcruntime:exsup.obj
 0001:00010846       __local_unwind2            10011846 f   libvcruntime:exsup.obj
 0001:000108ca       __abnormal_termination     100118ca f   libvcruntime:exsup.obj
 0001:000108f0       __NLG_Notify1              100118f0 f   libvcruntime:exsup.obj
 0001:000108fc       __NLG_Notify               100118fc f   libvcruntime:exsup.obj
 0001:00010913       __NLG_Dispatch             10011913     libvcruntime:exsup.obj
 0001:00010913       __NLG_Dispatch2            10011913     libvcruntime:exsup.obj
 0001:0001091b       __NLG_Call                 1001191b f   libvcruntime:exsup.obj
 0001:0001091d       __NLG_Return2              1001191d     libvcruntime:exsup.obj
 0001:00010a01       ___vcrt_FlsAlloc           10011a01 f   libvcruntime:winapi_downlevel.obj
 0001:00010a3c       ___vcrt_FlsFree            10011a3c f   libvcruntime:winapi_downlevel.obj
 0001:00010a77       ___vcrt_FlsGetValue        10011a77 f   libvcruntime:winapi_downlevel.obj
 0001:00010ab2       ___vcrt_FlsSetValue        10011ab2 f   libvcruntime:winapi_downlevel.obj
 0001:00010af0       ___vcrt_InitializeCriticalSectionEx 10011af0 f   libvcruntime:winapi_downlevel.obj
 0001:00010b37       _unexpected                10011b37 f   libvcruntime:unexpected.obj
 0001:00010b54       ?GetCurrentState@__FrameHandler3@@SAHPAUEHRegistrationNode@@PAXPBU_s_FuncInfo@@@Z 10011b54 f   libvcruntime:ehstate.obj
 0001:00010b71       ?SetState@__FrameHandler3@@SAXPAUEHRegistrationNode@@PBU_s_FuncInfo@@H@Z 10011b71 f   libvcruntime:ehstate.obj
 0001:00010b7f       _free                      10011b7f f   libucrt:free.obj
 0001:00010b9a       ___acrt_call_reportfault   10011b9a f   libucrt:invalid_parameter.obj
 0001:00010cd3       ___acrt_initialize_invalid_parameter_handler 10011cd3 f   libucrt:invalid_parameter.obj
 0001:00010ce2       __invalid_parameter        10011ce2 f   libucrt:invalid_parameter.obj
 0001:00010d46       __invalid_parameter_noinfo 10011d46 f   libucrt:invalid_parameter.obj
 0001:00010d56       __invoke_watson            10011d56 f   libucrt:invalid_parameter.obj
 0001:00010d8a       ___acrt_errno_from_os_error 10011d8a f   libucrt:errno.obj
 0001:00010dcd       ___acrt_errno_map_os_error 10011dcd f   libucrt:errno.obj
 0001:00010df0       ___doserrno                10011df0 f   libucrt:errno.obj
 0001:00010e03       __errno                    10011e03 f   libucrt:errno.obj
 0001:00010e16       _calloc                    10011e16 f   libucrt:calloc.obj
 0001:00010e21       _malloc                    10011e21 f   libucrt:malloc.obj
 0001:00010e2c       __recalloc                 10011e2c f   libucrt:recalloc.obj
 0001:00010e37       __recalloc_base            10011e37 f   libucrt:recalloc.obj
 0001:00010ea4       __resetstkoflw             10011ea4 f   libucrt:resetstk.obj
 0001:00010f69       _wcscat_s                  10011f69 f   libucrt:wcscat_s.obj
 0001:00010fde       _wcscpy_s                  10011fde f   libucrt:wcscpy_s.obj
 0001:0001110d       _wcsncpy_s                 1001210d f   libucrt:wcsncpy_s.obj
 0001:00011319       ??$count@D@formatting_buffer@__crt_stdio_output@@QBEIXZ 10012319 f i libucrt:output.obj
 0001:00011331       ??$count@_W@formatting_buffer@__crt_stdio_output@@QBEIXZ 10012331 f i libucrt:output.obj
 0001:0001134a       ??$ensure_buffer_is_big_enough@D@formatting_buffer@__crt_stdio_output@@QAE_NI@Z 1001234a f i libucrt:output.obj
 0001:000113c7       ??$ensure_buffer_is_big_enough@_W@formatting_buffer@__crt_stdio_output@@QAE_NI@Z 100123c7 f i libucrt:output.obj
 0001:00011445       ??$is_wide_character_specifier@_W@__crt_stdio_output@@YA_N_K_WW4length_modifier@0@@Z 10012445 f i libucrt:output.obj
 0001:00011493       ??$scratch_data@D@formatting_buffer@__crt_stdio_output@@QAEPADXZ 10012493 f i libucrt:output.obj
 0001:000114b1       ??$type_case_integer_parse_into_buffer@I@?$output_processor@_WV?$string_output_adapter@_W@__crt_stdio_output@@V?$format_validation_base@_WV?$string_output_adapter@_W@__crt_stdio_output@@@2@@__crt_stdio_output@@AAEXII_N@Z 100124b1 f i libucrt:output.obj
 0001:00011538       ??$type_case_integer_parse_into_buffer@_K@?$output_processor@_WV?$string_output_adapter@_W@__crt_stdio_output@@V?$format_validation_base@_WV?$string_output_adapter@_W@__crt_stdio_output@@@2@@__crt_stdio_output@@AAEX_KI_N@Z 10012538 f i libucrt:output.obj
 0001:000115da       ??$write_multiple_characters@V?$string_output_adapter@_W@__crt_stdio_output@@D@__crt_stdio_output@@YAXABV?$string_output_adapter@_W@0@DHQAH@Z 100125da f i libucrt:output.obj
 0001:0001160b       ??0?$common_data@_W@__crt_stdio_output@@IAE@XZ 1001260b f i libucrt:output.obj
 0001:00011655       ??0?$output_adapter_data@_WV?$string_output_adapter@_W@__crt_stdio_output@@@__crt_stdio_output@@IAE@ABV?$string_output_adapter@_W@1@_KQB_WQAU__crt_locale_pointers@@QAD@Z 10012655 f i libucrt:output.obj
 0001:00011691       ??0_LocaleUpdate@@QAE@QAU__crt_locale_pointers@@@Z 10012691 f i libucrt:output.obj
 0001:00011714       ??1formatting_buffer@__crt_stdio_output@@QAE@XZ 10012714 f i libucrt:output.obj
 0001:0001172e       ??4?$__crt_unique_heap_ptr@DU__crt_internal_free_policy@@@@QAEAAV0@$$QAV0@@Z 1001272e f i libucrt:output.obj
 0001:00011760       ?crop_zeroes@__crt_stdio_output@@YAXPADQAU__crt_locale_pointers@@@Z 10012760 f i libucrt:output.obj
 0001:000117e1       ?find_next_state@?$output_processor@_WV?$string_output_adapter@_W@__crt_stdio_output@@V?$format_validation_base@_WV?$string_output_adapter@_W@__crt_stdio_output@@@2@@__crt_stdio_output@@ABE?AW4state@2@_WW432@@Z 100127e1 f i libucrt:output.obj
 0001:00011820       ?force_decimal_point@__crt_stdio_output@@YAXPADQAU__crt_locale_pointers@@@Z 10012820 f i libucrt:output.obj
 0001:00011885       ?parse_int_from_format_string@?$output_processor@_WV?$string_output_adapter@_W@__crt_stdio_output@@V?$format_validation_base@_WV?$string_output_adapter@_W@__crt_stdio_output@@@2@@__crt_stdio_output@@AAE_NQAH@Z 10012885 f i libucrt:output.obj
 0001:000118fb       ?process@?$output_processor@_WV?$string_output_adapter@_W@__crt_stdio_output@@V?$format_validation_base@_WV?$string_output_adapter@_W@__crt_stdio_output@@@2@@__crt_stdio_output@@QAEHXZ 100128fb f i libucrt:output.obj
 0001:00011a23       ?state_case_flag@?$output_processor@_WV?$string_output_adapter@_W@__crt_stdio_output@@V?$format_validation_base@_WV?$string_output_adapter@_W@__crt_stdio_output@@@2@@__crt_stdio_output@@AAE_NXZ 10012a23 f i libucrt:output.obj
 0001:00011a60       ?state_case_normal@?$output_processor@_WV?$string_output_adapter@_W@__crt_stdio_output@@V?$format_validation_base@_WV?$string_output_adapter@_W@__crt_stdio_output@@@2@@__crt_stdio_output@@AAE_NXZ 10012a60 f i libucrt:output.obj
 0001:00011a7f       ?state_case_normal_common@?$output_processor@_WV?$string_output_adapter@_W@__crt_stdio_output@@V?$format_validation_base@_WV?$string_output_adapter@_W@__crt_stdio_output@@@2@@__crt_stdio_output@@AAE_NXZ 10012a7f f i libucrt:output.obj
 0001:00011a9a       ?state_case_precision@?$output_processor@_WV?$string_output_adapter@_W@__crt_stdio_output@@V?$format_validation_base@_WV?$string_output_adapter@_W@__crt_stdio_output@@@2@@__crt_stdio_output@@AAE_NXZ 10012a9a f i libucrt:output.obj
 0001:00011ac1       ?state_case_size@?$output_processor@_WV?$string_output_adapter@_W@__crt_stdio_output@@V?$format_validation_base@_WV?$string_output_adapter@_W@__crt_stdio_output@@@2@@__crt_stdio_output@@AAE_NXZ 10012ac1 f i libucrt:output.obj
 0001:00011c39       ?state_case_type@?$output_processor@_WV?$string_output_adapter@_W@__crt_stdio_output@@V?$format_validation_base@_WV?$string_output_adapter@_W@__crt_stdio_output@@@2@@__crt_stdio_output@@AAE_NXZ 10012c39 f i libucrt:output.obj
 0001:00011e96       ?state_case_width@?$output_processor@_WV?$string_output_adapter@_W@__crt_stdio_output@@V?$format_validation_base@_WV?$string_output_adapter@_W@__crt_stdio_output@@@2@@__crt_stdio_output@@AAE_NXZ 10012e96 f i libucrt:output.obj
 0001:00011ed0       ?to_integer_size@__crt_stdio_output@@YAIW4length_modifier@1@@Z 10012ed0 f i libucrt:output.obj
 0001:00011f2c       ?type_case_Z@?$output_processor@_WV?$string_output_adapter@_W@__crt_stdio_output@@V?$format_validation_base@_WV?$string_output_adapter@_W@__crt_stdio_output@@@2@@__crt_stdio_output@@AAE_NXZ 10012f2c f i libucrt:output.obj
 0001:00011f86       ?type_case_a@?$output_processor@_WV?$string_output_adapter@_W@__crt_stdio_output@@V?$format_validation_base@_WV?$string_output_adapter@_W@__crt_stdio_output@@@2@@__crt_stdio_output@@AAE_NXZ 10012f86 f i libucrt:output.obj
 0001:000120ed       ?type_case_c_tchar@?$output_processor@_WV?$string_output_adapter@_W@__crt_stdio_output@@V?$format_validation_base@_WV?$string_output_adapter@_W@__crt_stdio_output@@@2@@__crt_stdio_output@@AAE_N_W@Z 100130ed f i libucrt:output.obj
 0001:00012183       ?type_case_integer@?$output_processor@_WV?$string_output_adapter@_W@__crt_stdio_output@@V?$format_validation_base@_WV?$string_output_adapter@_W@__crt_stdio_output@@@2@@__crt_stdio_output@@AAE_NI_N@Z 10013183 f i libucrt:output.obj
 0001:000122d8       ?type_case_n@?$output_processor@_WV?$string_output_adapter@_W@__crt_stdio_output@@V?$format_validation_base@_WV?$string_output_adapter@_W@__crt_stdio_output@@@2@@__crt_stdio_output@@AAE_NXZ 100132d8 f i libucrt:output.obj
 0001:0001234c       ?type_case_o@?$output_processor@_WV?$string_output_adapter@_W@__crt_stdio_output@@V?$format_validation_base@_WV?$string_output_adapter@_W@__crt_stdio_output@@@2@@__crt_stdio_output@@AAE_NXZ 1001334c f i libucrt:output.obj
 0001:0001236b       ?type_case_p@?$output_processor@_WV?$string_output_adapter@_W@__crt_stdio_output@@V?$format_validation_base@_WV?$string_output_adapter@_W@__crt_stdio_output@@@2@@__crt_stdio_output@@AAE_NXZ 1001336b f i libucrt:output.obj
 0001:00012383       ?type_case_s@?$output_processor@_WV?$string_output_adapter@_W@__crt_stdio_output@@V?$format_validation_base@_WV?$string_output_adapter@_W@__crt_stdio_output@@@2@@__crt_stdio_output@@AAE_NXZ 10013383 f i libucrt:output.obj
 0001:000123f6       ?type_case_s_compute_narrow_string_length@?$output_processor@_WV?$string_output_adapter@_W@__crt_stdio_output@@V?$format_validation_base@_WV?$string_output_adapter@_W@__crt_stdio_output@@@2@@__crt_stdio_output@@ABEHH_W@Z 100133f6 f i libucrt:output.obj
 0001:0001243d       ?validate@?$c_string_character_source@_W@__crt_strtox@@QBE_NXZ 1001343d f i libucrt:atox.obj
 0001:0001243d       ?validate@?$string_output_adapter@_W@__crt_stdio_output@@QBE_NXZ 1001343d f i libucrt:output.obj
 0001:00012458       ?validate_and_update_state_at_end_of_format_string@?$format_validation_base@_WV?$string_output_adapter@_W@__crt_stdio_output@@@__crt_stdio_output@@IBE_NXZ 10013458 f i libucrt:output.obj
 0001:0001247a       ?write_character@?$string_output_adapter@_W@__crt_stdio_output@@QBE_N_WQAH@Z 1001347a f i libucrt:output.obj
 0001:000124bf       ?write_stored_string_tchar@?$output_processor@_WV?$string_output_adapter@_W@__crt_stdio_output@@V?$format_validation_base@_WV?$string_output_adapter@_W@__crt_stdio_output@@@2@@__crt_stdio_output@@AAE_N_W@Z 100134bf f i libucrt:output.obj
 0001:0001254c       ?write_string@?$string_output_adapter@_W@__crt_stdio_output@@QBEXQB_WHQAHAAV__crt_deferred_errno_cache@@@Z 1001354c f i libucrt:output.obj
 0001:000125bd       ___acrt_locale_get_ctype_array_value 100135bd f i libucrt:output.obj
 0001:000125df       ___stdio_common_vswprintf_s 100135df f   libucrt:output.obj
 0001:00012603       __seh_filter_dll           10013603 f   libucrt:exception_filter.obj
 0001:00012623       __seh_filter_exe           10013623 f   libucrt:exception_filter.obj
 0001:000129f1       ___acrt_initialize_thread_local_exit_callback 100139f1 f   libucrt:exit.obj
 0001:00012a00       __cexit                    10013a00 f   libucrt:exit.obj
 0001:00012a0f       __exit                     10013a0f f   libucrt:exit.obj
 0001:00012a25       __is_c_termination_complete 10013a25 f   libucrt:exit.obj
 0001:00012cd6       ___acrt_allocate_buffer_for_argv 10013cd6 f   libucrt:argv_parsing.obj
 0001:00012d25       __configure_narrow_argv    10013d25 f   libucrt:argv_parsing.obj
 0001:00012e82       ??$uninitialize@A6AXAAPAPA_W@Z@?$dual_state_global@PAPA_W@__crt_state_management@@QAEXA6AXAAPAPA_W@Z@Z 10013e82 f i libucrt:environment_initialization.obj
 0001:00012e82       ??$uninitialize@A6AXAAPAPAD@Z@?$dual_state_global@PAPAD@__crt_state_management@@QAEXA6AXAAPAPAD@Z@Z 10013e82 f i libucrt:environment_initialization.obj
 0001:00012ee1       ___dcrt_uninitialize_environments_nolock 10013ee1 f   libucrt:environment_initialization.obj
 0001:00012f18       __initialize_narrow_environment 10013f18 f   libucrt:environment_initialization.obj
 0001:00012fd3       ??$__crt_fast_encode_pointer@PAP6AXXZ@@YAPAP6AXXZQAP6AXXZ@Z 10013fd3 f i libucrt:onexit.obj
 0001:00012fd3       ??$__crt_fast_encode_pointer@P6AHXZ@@YAP6AHXZQ6AHXZ@Z 10013fd3 f i libucrt:onexit.obj
 0001:00012fd3       ??$__crt_fast_encode_pointer@PAX@@YAPAXQAX@Z 10013fd3 f i libucrt:initialization.obj
 0001:000131f5       __crt_atexit               100141f5 f   libucrt:onexit.obj
 0001:0001320b       __execute_onexit_table     1001420b f   libucrt:onexit.obj
 0001:00013238       __initialize_onexit_table  10014238 f   libucrt:onexit.obj
 0001:00013261       __register_onexit_function 10014261 f   libucrt:onexit.obj
 0001:000132bb       ___acrt_uninitialize_command_line 100142bb f   libucrt:argv_data.obj
 0001:00013392       ___acrt_initialize         10014392 f   libucrt:initialization.obj
 0001:000133a4       ___acrt_thread_attach      100143a4 f   libucrt:initialization.obj
 0001:000133af       ___acrt_thread_detach      100143af f   libucrt:initialization.obj
 0001:000133b7       ___acrt_uninitialize       100143b7 f   libucrt:initialization.obj
 0001:000133e7       ___acrt_uninitialize_critical 100143e7 f   libucrt:initialization.obj
 0001:000133f9       __initterm                 100143f9 f   libucrt:initterm.obj
 0001:0001343e       __initterm_e               1001443e f   libucrt:initterm.obj
 0001:0001346c       ___acrt_initialize_new_handler 1001446c f   libucrt:new_handler.obj
 0001:0001347b       __callnewh                 1001447b f   libucrt:new_handler.obj
 0001:000134a8       __query_new_handler        100144a8 f   libucrt:new_handler.obj
 0001:00013504       _terminate                 10014504 f   libucrt:terminate.obj
 0001:00013540       _abort                     10014540 f   libucrt:abort.obj
 0001:00013584       _strcpy_s                  10014584 f   libucrt:strcpy_s.obj
 0001:000135de       ??$is_overflow_condition@K@__crt_strtox@@YA_NIK@Z 100145de f i libucrt:atox.obj
 0001:0001360f       ??$parse_integer@KV?$c_string_character_source@_W@__crt_strtox@@@__crt_strtox@@YAKQAU__crt_locale_pointers@@V?$c_string_character_source@_W@0@H_N@Z 1001460f f i libucrt:atox.obj
 0001:00013c17       ?unget@?$c_string_character_source@_W@__crt_strtox@@QAEX_W@Z 10014c17 f i libucrt:atox.obj
 0001:00013c50       _strncmp                   10014c50 f   libucrt:strncmp.obj
 0001:00013cc8       _wcsncmp                   10014cc8 f   libucrt:wcsncmp.obj
 0001:00013d02       __free_base                10014d02 f   libucrt:free_base.obj
 0001:0001407a       ___acrt_freeptd            1001507a f   libucrt:per_thread_data.obj
 0001:000140a6       ___acrt_getptd             100150a6 f   libucrt:per_thread_data.obj
 0001:00014163       ___acrt_getptd_head        10015163 f   libucrt:per_thread_data.obj
 0001:000141fd       ___acrt_getptd_noexit      100151fd f   libucrt:per_thread_data.obj
 0001:000142b2       ___acrt_initialize_ptd     100152b2 f   libucrt:per_thread_data.obj
 0001:000142de       ___acrt_uninitialize_ptd   100152de f   libucrt:per_thread_data.obj
 0001:000142f8       __calloc_base              100152f8 f   libucrt:calloc_base.obj
 0001:00014355       __malloc_base              10015355 f   libucrt:malloc_base.obj
 0001:000143a3       __msize_base               100153a3 f   libucrt:msize.obj
 0001:000143d6       __realloc_base             100153d6 f   libucrt:realloc_base.obj
 0001:000145d7       ___acrt_AppPolicyGetProcessTerminationMethodInternal@4 100155d7 f   libucrt:winapi_thunks.obj
 0001:00014617       ___acrt_AreFileApisANSI@0  10015617 f   libucrt:winapi_thunks.obj
 0001:00014636       ___acrt_FlsAlloc@4         10015636 f   libucrt:winapi_thunks.obj
 0001:00014675       ___acrt_FlsFree@4          10015675 f   libucrt:winapi_thunks.obj
 0001:000146b4       ___acrt_FlsGetValue@4      100156b4 f   libucrt:winapi_thunks.obj
 0001:000146f3       ___acrt_FlsSetValue@8      100156f3 f   libucrt:winapi_thunks.obj
 0001:00014735       ___acrt_InitializeCriticalSectionEx@12 10015735 f   libucrt:winapi_thunks.obj
 0001:00014780       ___acrt_LCMapStringEx@36   10015780 f   libucrt:winapi_thunks.obj
 0001:000147dd       ___acrt_LocaleNameToLCID@8 100157dd f   libucrt:winapi_thunks.obj
 0001:0001480e       ___acrt_SetThreadStackGuarantee@4 1001580e f   libucrt:winapi_thunks.obj
 0001:00014849       ___acrt_initialize_winapi_thunks 10015849 f   libucrt:winapi_thunks.obj
 0001:00014874       ___acrt_uninitialize_winapi_thunks 10015874 f   libucrt:winapi_thunks.obj
 0001:000148aa       ??$make_c_string_character_source@_WPAPA_W@__crt_strtox@@YA?AV?$c_string_character_source@_W@0@QB_WQAPA_W@Z 100158aa f i libucrt:strtox.obj
 0001:000148c5       _wcstol                    100158c5 f   libucrt:strtox.obj
 0001:000148ef       __mbtowc_l                 100158ef f   libucrt:mbtowc.obj
 0001:00014a31       _mbtowc                    10015a31 f   libucrt:mbtowc.obj
 0001:00014a4b       _wcsnlen                   10015a4b f   libucrt:strnlen.obj
 0001:00014bfb       ___acrt_update_locale_info 10015bfb f   libucrt:locale_update.obj
 0001:00014c28       ___acrt_update_multibyte_info 10015c28 f   libucrt:locale_update.obj
 0001:00014c55       ?__acrt_fp_classify@@YA?AW4__acrt_fp_class@@ABN@Z 10015c55 f i libucrt:cvt.obj
 0001:00015607       ___acrt_fp_format          10016607 f   libucrt:cvt.obj
 0001:00015765       __fileno                   10016765 f   libucrt:fileno.obj
 0001:0001578c       ___acrt_initialize_stdio   1001678c f   libucrt:_file.obj
 0001:00015854       ___acrt_uninitialize_stdio 10016854 f   libucrt:_file.obj
 0001:000158a0       __lock_file                100168a0 f   libucrt:_file.obj
 0001:000158b4       __unlock_file              100168b4 f   libucrt:_file.obj
 0001:000158c8       __get_printf_count_output  100168c8 f   libucrt:printf_count_output.obj
 0001:0001594b       ___acrt_set_locale_changed 1001694b f   libucrt:wsetlocale.obj
 0001:00015956       ___acrt_uninitialize_locale 10016956 f   libucrt:wsetlocale.obj
 0001:00015ae7       ___acrt_initialize_lowio   10016ae7 f   libucrt:ioinit.obj
 0001:00015b47       ___acrt_uninitialize_lowio 10016b47 f   libucrt:ioinit.obj
 0001:00015b73       ___acrt_initialize_locks   10016b73 f   libucrt:locks.obj
 0001:00015bb4       ___acrt_lock               10016bb4 f   libucrt:locks.obj
 0001:00015bcb       ___acrt_uninitialize_locks 10016bcb f   libucrt:locks.obj
 0001:00015bfc       ___acrt_unlock             10016bfc f   libucrt:locks.obj
 0001:00015c13       ___acrt_get_process_end_policy 10016c13 f   libucrt:win_policies.obj
 0001:00015ddd       ??$__acrt_mbs_to_wcs_cp@U__crt_win32_buffer_internal_dynamic_resizing@@@@YAHQBDAAV?$__crt_win32_buffer@_WU__crt_win32_buffer_internal_dynamic_resizing@@@@I@Z 10016ddd f i libucrt:argv_wildcards.obj
 0001:000162f1       ?__acrt_get_utf8_acp_compatibility_codepage@@YAIXZ 100172f1 f i libucrt:argv_wildcards.obj
 0001:00016330       ?_deallocate@?$__crt_win32_buffer@_WU__crt_win32_buffer_internal_dynamic_resizing@@@@AAEXXZ 10017330 f i libucrt:argv_wildcards.obj
 0001:00016330       ?_deallocate@?$__crt_win32_buffer@DU__crt_win32_buffer_internal_dynamic_resizing@@@@AAEXXZ 10017330 f i libucrt:argv_wildcards.obj
 0001:0001634a       ?allocate@?$__crt_win32_buffer@DU__crt_win32_buffer_internal_dynamic_resizing@@@@QAEHI@Z 1001734a f i libucrt:argv_wildcards.obj
 0001:00016386       ?allocate@?$__crt_win32_buffer@_WU__crt_win32_buffer_internal_dynamic_resizing@@@@QAEHI@Z 10017386 f i libucrt:argv_wildcards.obj
 0001:000163c5       ?allocate@__crt_win32_buffer_internal_dynamic_resizing@@SAHQAPAXIABV__crt_win32_buffer_empty_debug_info@@@Z 100173c5 f i libucrt:argv_wildcards.obj
 0001:0001646b       ___acrt_expand_narrow_argv_wildcards 1001746b f   libucrt:argv_wildcards.obj
 0001:0001653d       ?allocate@?$__crt_win32_buffer@DU__crt_win32_buffer_no_resizing@@@@QAEHI@Z 1001753d f i libucrt:getmodulefilenamea.obj
 0001:00016564       ?set_to_nullptr@?$__crt_win32_buffer@DU__crt_win32_buffer_no_resizing@@@@QAEXXZ 10017564 f i libucrt:getmodulefilenamea.obj
 0001:00016578       ___acrt_GetModuleFileNameA 10017578 f   libucrt:getmodulefilenamea.obj
 0001:00016b31       ___acrt_initialize_multibyte 10017b31 f   libucrt:mbctype.obj
 0001:00016b79       ___acrt_update_thread_multibyte_data 10017b79 f   libucrt:mbctype.obj
 0001:00016b8c       __setmbcp_nolock           10017b8c f   libucrt:mbctype.obj
 0001:00016e57       __ismbblead                10017e57 f   libucrt:ismbbyte.obj
 0001:00016e6f       ___acrt_initialize_command_line 10017e6f f   libucrt:argv_data.obj
 0001:00016e88       ___acrt_MultiByteToWideChar 10017e88 f   libucrt:multibytetowidechar.obj
 0001:00016f04       ___acrt_WideCharToMultiByte 10017f04 f   libucrt:widechartomultibyte.obj
 0001:00016ff2       ___dcrt_get_narrow_environment_from_os 10017ff2 f   libucrt:get_environment_from_os.obj
 0001:00017076       ___acrt_initialize_heap    10018076 f   libucrt:heap_handle.obj
 0001:00017087       ___acrt_uninitialize_heap  10018087 f   libucrt:heap_handle.obj
 0001:00017091       ___acrt_execute_initializers 10018091 f   libucrt:shared_initialization.obj
 0001:000170f9       ___acrt_execute_uninitializers 100180f9 f   libucrt:shared_initialization.obj
 0001:000171f8       ___acrt_get_sigabrt_handler 100181f8 f   libucrt:signal.obj
 0001:0001721f       ___acrt_initialize_signal_handlers 1001821f f   libucrt:signal.obj
 0001:0001723d       _raise                     1001823d f   libucrt:signal.obj
 0001:00017430       ___acrt_has_user_matherr   10018430 f   libucrt:matherr.obj
 0001:00017448       ___acrt_initialize_user_matherr 10018448 f   libucrt:matherr.obj
 0001:00017457       ___acrt_invoke_user_matherr 10018457 f   libucrt:matherr.obj
 0001:00017666       ___acrt_stdio_flush_nolock 10018666 f   libucrt:fflush.obj
 0001:000176cb       __fflush_nolock            100186cb f   libucrt:fflush.obj
 0001:00017713       __flushall                 10018713 f   libucrt:fflush.obj
 0001:0001771c       ___pctype_func             1001871c f   libucrt:ctype.obj
 0001:00017740       _iswctype                  10018740 f   libucrt:iswctype.obj
 0001:000177a9       ___acrt_add_locale_ref     100187a9 f   libucrt:locale_refcounting.obj
 0001:00017826       ___acrt_free_locale        10018826 f   libucrt:locale_refcounting.obj
 0001:0001796e       ___acrt_locale_add_lc_time_reference 1001896e f   libucrt:locale_refcounting.obj
 0001:00017997       ___acrt_locale_free_lc_time_if_unreferenced 10018997 f   libucrt:locale_refcounting.obj
 0001:000179c8       ___acrt_locale_release_lc_time_reference 100189c8 f   libucrt:locale_refcounting.obj
 0001:000179f1       ___acrt_release_locale_ref 100189f1 f   libucrt:locale_refcounting.obj
 0001:00017a72       ___acrt_update_thread_locale_data 10018a72 f   libucrt:locale_refcounting.obj
 0001:00017af3       __updatetlocinfoEx_nolock  10018af3 f   libucrt:locale_refcounting.obj
 0001:00017b43       __query_new_mode           10018b43 f   libucrt:new_mode.obj
 0001:00017b9a       ___acrt_DownlevelLocaleNameToLCID 10018b9a f   libucrt:lcidtoname_downlevel.obj
 0001:00017bc6       __isleadbyte_l             10018bc6 f i libucrt:_wctype.obj
 0001:00017c2c       ?__mbrtowc_utf8@__crt_mbstring@@YAIPA_WPBDIPAU_Mbstatet@@@Z 10018c2c f   libucrt:mbrtowc.obj
 0001:00017c6c       ?__mbsrtowcs_utf8@__crt_mbstring@@YAIPA_WPAPBDIPAU_Mbstatet@@@Z 10018c6c f   libucrt:mbrtowc.obj
 0001:00017d67       ?return_illegal_sequence@__crt_mbstring@@YAIPAU_Mbstatet@@@Z 10018d67 f i libucrt:c32rtomb.obj
 0001:00017df1       ___acrt_fp_strflt_to_string 10018df1 f   libucrt:_fptostr.obj
 0001:00017ed0       ?divide@__crt_strtox@@YA_KAAUbig_integer@1@ABU21@@Z 10018ed0 f i libucrt:cfout.obj
 0001:00018368       ___acrt_fltout             10019368 f   libucrt:cfout.obj
 0001:0001986f       _fegetround                1001a86f f   libucrt:fegetround.obj
 0001:0001987c       __fcloseall                1001a87c f   libucrt:closeall.obj
 0001:00019927       ___acrt_stdio_free_buffer_nolock 1001a927 f   libucrt:_freebuf.obj
 0001:00019967       __isatty                   1001a967 f   libucrt:isatty.obj
 0001:000199bd       ___acrt_locale_free_monetary 1001a9bd f   libucrt:initmon.obj
 0001:00019abb       ___acrt_locale_free_numeric 1001aabb f   libucrt:initnum.obj
 0001:00019b5c       ___acrt_locale_free_time   1001ab5c f   libucrt:inittime.obj
 0001:00019c40       ___acrt_GetStringTypeA     1001ac40 f   libucrt:getstringtypea.obj
 0001:00019d43       __freea_crt                1001ad43 f i libucrt:getstringtypea.obj
 0001:00019d63       ___acrt_lowio_create_handle_array 1001ad63 f   libucrt:osfinfo.obj
 0001:00019dde       ___acrt_lowio_destroy_handle_array 1001adde f   libucrt:osfinfo.obj
 0001:00019e13       ___acrt_lowio_ensure_fh_exists 1001ae13 f   libucrt:osfinfo.obj
 0001:00019eb1       ___acrt_lowio_lock_fh      1001aeb1 f   libucrt:osfinfo.obj
 0001:00019ed4       ___acrt_lowio_unlock_fh    1001aed4 f   libucrt:osfinfo.obj
 0001:00019ef7       __free_osfhnd              1001aef7 f   libucrt:osfinfo.obj
 0001:00019f88       __get_osfhandle            1001af88 f   libucrt:osfinfo.obj
 0001:0001a000       _qsort                     1001b000 f   libucrt:qsort.obj
 0001:0001a5a1       _strncpy_s                 1001b5a1 f   libucrt:strncpy_s.obj
 0001:0001a5b0       _strpbrk                   1001b5b0 f   libucrt:strpbrk.obj
 0001:0001a5f0       __mbsdec                   1001b5f0 f   libucrt:mbsdec.obj
 0001:0001a607       __mbsdec_l                 1001b607 f   libucrt:mbsdec.obj
 0001:0001a87e       ___acrt_LCMapStringA       1001b87e f   libucrt:lcmapstringa.obj
 0001:0001a978       __commit                   1001b978 f   libucrt:commit.obj
 0001:0001b170       __write                    1001c170 f   libucrt:write.obj
 0001:0001b262       __write_nolock             1001c262 f   libucrt:write.obj
 0001:0001b43c       ___acrt_GetStringTypeW     1001c43c f   libucrt:getstringtypew.obj
 0001:0001b455       ___ascii_wcsnicmp          1001c455 f   libucrt:wcsnicmp.obj
 0001:0001b4a4       ?__mbrtoc32_utf8@__crt_mbstring@@YAIPA_UPBDIPAU_Mbstatet@@@Z 1001c4a4 f   libucrt:mbrtoc32.obj
 0001:0001b64b       __controlfp_s              1001c64b f   libucrt:contrlfp.obj
 0001:0001b6aa       _fegetenv                  1001c6aa f   libucrt:fegetenv.obj
 0001:0001b6c7       _fesetenv                  1001c6c7 f   libucrt:fesetenv.obj
 0001:0001b712       _feholdexcept              1001c712 f   libucrt:feholdexcept.obj
 0001:0001b760       __CIlog10                  1001c760 f   libucrt:log10_impl.obj
 0001:0001b79b       __CIlog10_default          1001c79b f   libucrt:log10_impl.obj
 0001:0001b7af       __log10_default            1001c7af     libucrt:log10_impl.obj
 0001:0001b870       _ceil                      1001c870 f   libucrt:ceil_pentium4.obj
 0001:0001b8b0       __ceil_pentium4            1001c8b0 f   libucrt:ceil_pentium4.obj
 0001:0001bcaa       ___acrt_fenv_get_common_round_control 1001ccaa f   libucrt:_fenvutils.obj
 0001:0001bccc       ___acrt_fenv_get_control   1001cccc f   libucrt:_fenvutils.obj
 0001:0001bd4c       ___acrt_fenv_get_status    1001cd4c f   libucrt:_fenvutils.obj
 0001:0001be04       ___acrt_fenv_set_control   1001ce04 f   libucrt:_fenvutils.obj
 0001:0001be6c       ___acrt_fenv_set_status    1001ce6c f   libucrt:_fenvutils.obj
 0001:0001bfdf       __lseeki64_nolock          1001cfdf f   libucrt:lseek.obj
 0001:0001bffa       __fclose_nolock            1001cffa f   libucrt:fclose.obj
 0001:0001c071       _fclose                    1001d071 f   libucrt:fclose.obj
 0001:0001c0f5       __query_app_type           1001d0f5 f   libucrt:report_runtime_error.obj
 0001:0001c0fb       ___strncnt                 1001d0fb f   libucrt:strncnt.obj
 0001:0001c117       __putwch_nolock            1001d117 f   libucrt:putwch.obj
 0001:0001c1f0       __clearfp                  1001d1f0 f   libucrt:ieee87.obj
 0001:0001c2ce       __control87                1001d2ce f   libucrt:ieee87.obj
 0001:0001c66d       ___acrt_initialize_sse2    1001d66d f   libucrt:mathfcns.obj
 0001:0001c680       __CIlog10_pentium4         1001d680 f   libucrt:log10_pentium4.obj
 0001:0001c698       __log10_pentium4           1001d698     libucrt:log10_pentium4.obj
 0001:0001c930       __fFEXP                    1001d930 f   libucrt:87tran.obj
 0001:0001c987       __rtinfpopse               1001d987     libucrt:87tran.obj
 0001:0001c989       __rtinfnpopse              1001d989     libucrt:87tran.obj
 0001:0001c999       __fFLN                     1001d999     libucrt:87tran.obj
 0001:0001ca4e       __rtinfpop                 1001da4e     libucrt:87tran.obj
 0001:0001ca50       __rtinfnpop                1001da50     libucrt:87tran.obj
 0001:0001ca60       __rtforexpinf              1001da60 f   libucrt:87tran.obj
 0001:0001ca6d       __ffexpm1                  1001da6d     libucrt:87tran.obj
 0001:0001cb20       __trandisp1                1001db20 f   libucrt:87disp.obj
 0001:0001cb95       __trandisp2                1001db95 f   libucrt:87disp.obj
 0001:0001cc2f       __rttospopde               1001dc2f     libucrt:87disp.obj
 0001:0001cc34       __rttospop                 1001dc34     libucrt:87disp.obj
 0001:0001cc40       __rtnospop                 1001dc40 f   libucrt:87disp.obj
 0001:0001cc50       __rttosnpop                1001dc50 f   libucrt:87disp.obj
 0001:0001cc51       __rtnospopde               1001dc51     libucrt:87disp.obj
 0001:0001cc58       __rtzeropop                1001dc58     libucrt:87disp.obj
 0001:0001cc5a       __rtzeronpop               1001dc5a     libucrt:87disp.obj
 0001:0001cc60       __rtzerospop               1001dc60 f   libucrt:87disp.obj
 0001:0001cc6d       __rtonepop                 1001dc6d     libucrt:87disp.obj
 0001:0001cc70       __rtonenpop                1001dc70 f   libucrt:87disp.obj
 0001:0001cc80       __tosnan1                  1001dc80 f   libucrt:87disp.obj
 0001:0001ccb0       __nosnan2                  1001dcb0 f   libucrt:87disp.obj
 0001:0001ccc0       __tosnan2                  1001dcc0 f   libucrt:87disp.obj
 0001:0001ccf0       __nan2                     1001dcf0 f   libucrt:87disp.obj
 0001:0001cd30       __rtindfpop                1001dd30 f   libucrt:87disp.obj
 0001:0001cd32       __rtindfnpop               1001dd32     libucrt:87disp.obj
 0001:0001cd43       __rttosnpopde              1001dd43     libucrt:87disp.obj
 0001:0001cd50       __rtatan2inf               1001dd50 f   libucrt:87disp.obj
 0001:0001cd6d       __rtchsifneg               1001dd6d     libucrt:87disp.obj
 0001:0001cd80       __twoToTOS                 1001dd80 f   libucrt:common.obj
 0001:0001cd95       __load_CW                  1001dd95 f   libucrt:common.obj
 0001:0001cdac       __convertTOStoQNaN         1001ddac f   libucrt:common.obj
 0001:0001cdc5       __fload_withFB             1001ddc5 f   libucrt:common.obj
 0001:0001ce08       __checkTOS_withFB          1001de08 f   libucrt:common.obj
 0001:0001ce1e       __fast_exit                1001de1e f   libucrt:common.obj
 0001:0001ce2b       __math_exit                1001de2b f   libucrt:common.obj
 0001:0001ce55       __check_overflow_exit      1001de55 f   libucrt:common.obj
 0001:0001ce69       __check_range_exit         1001de69 f   libucrt:common.obj
 0001:0001cf10       __startTwoArgErrorHandling 1001df10 f   libucrt:genexcep.obj
 0001:0001cf27       __startOneArgErrorHandling 1001df27 f   libucrt:genexcep.obj
 0001:0001cf63       ___libm_error_support      1001df63 f   libucrt:libm_error.obj
 0001:0001d157       __ceil_default             1001e157 f   libucrt:ceil.obj
 0001:0001d298       __close                    1001e298 f   libucrt:close.obj
 0001:0001d325       __close_nolock             1001e325 f   libucrt:close.obj
 0001:0001d3c1       ?__acrt_stdio_free_stream@@YAXV__crt_stdio_stream@@@Z 1001e3c1 f   libucrt:stream.obj
 0001:0001d400       ___ascii_strnicmp          1001e400 f   libucrt:_strnicm.obj
 0001:0001d480       ___dcrt_lowio_ensure_console_output_initialized 1001e480 f   libucrt:initcon.obj
 0001:0001d49f       ___dcrt_terminate_console_output 1001e49f f   libucrt:initcon.obj
 0001:0001d4b6       ___dcrt_write_console      1001e4b6 f   libucrt:initcon.obj
 0001:0001d50b       ___set_fpsr_sse2           1001e50b f   libucrt:fpctrl.obj
 0001:0001d58b       __clrfp                    1001e58b f   libucrt:fpctrl.obj
 0001:0001d59c       __ctrlfp                   1001e59c f   libucrt:fpctrl.obj
 0001:0001d5c6       __set_statfp               1001e5c6 f   libucrt:fpctrl.obj
 0001:0001d61f       __statfp                   1001e61f f   libucrt:fpctrl.obj
 0001:0001d62f       __d_inttype                1001e62f f   libucrt:powhlp.obj
 0001:0001d697       __powhlp                   1001e697 f   libucrt:powhlp.obj
 0001:0001d7c2       __87except                 1001e7c2 f   libucrt:87except.obj
 0001:0001d8cc       __frnd                     1001e8cc f   libucrt:frnd.obj
 0001:0001d8e0       __errcode                  1001e8e0 f   libucrt:fpexcept.obj
 0001:0001d914       __except1                  1001e914 f   libucrt:fpexcept.obj
 0001:0001d9e2       __handle_exc               1001e9e2 f   libucrt:fpexcept.obj
 0001:0001dbcd       __raise_exc                1001ebcd f   libucrt:fpexcept.obj
 0001:0001dbf0       __raise_exc_ex             1001ebf0 f   libucrt:fpexcept.obj
 0001:0001dee6       __set_errno_from_matherr   1001eee6 f   libucrt:fpexcept.obj
 0001:0001df15       __umatherr                 1001ef15 f   libucrt:fpexcept.obj
 0001:0001dfb5       __decomp                   1001efb5 f   libucrt:util.obj
 0001:0001e087       __set_exp                  1001f087 f   libucrt:util.obj
 0001:0001e0b4       __sptype                   1001f0b4 f   libucrt:util.obj
 0001:0001e112       __fpclass                  1001f112 f   libucrt:ieeemisc.obj
 0001:0001e1b6       _IsProcessorFeaturePresent@4 1001f1b6 f   kernel32:KERNEL32.dll
 0001:0001e1c0       __FindPESection            1001f1c0 f   LIBCMT:pesect.obj
 0001:0001e210       __IsNonwritableInCurrentImage 1001f210 f   LIBCMT:pesect.obj
 0001:0001e2d0       __ValidateImageBase        1001f2d0 f   LIBCMT:pesect.obj
 0001:0001e303       __EH_prolog3_catch         1001f303 f   LIBCMT:ehprolg3.obj
 0001:0001e340       __aulldvrm                 1001f340 f   LIBCMT:ulldvrm.obj
 0001:0001e3e0       __allmul                   1001f3e0 f   LIBCMT:llmul.obj
 0001:0001e420       __alldvrm                  1001f420 f   LIBCMT:lldvrm.obj
 0001:0001e500       __allshl                   1001f500 f   LIBCMT:llshl.obj
 0001:0001e520       __aullshr                  1001f520 f   LIBCMT:ullshr.obj
 0001:0001e540       __ftol2_sse_excpt          1001f540     LIBCMT:ftol2.obj
 0001:0001e540       __ftol2_sse                1001f540     LIBCMT:ftol2.obj
 0001:0001e540       __ftoi2                    1001f540 f   LIBCMT:ftol2.obj
 0001:0001e5c0       __ftoui2                   1001f5c0 f   LIBCMT:ftol2.obj
 0001:0001e670       __ftol2                    1001f670 f   LIBCMT:ftol2.obj
 0001:0001e720       __ftoul2                   1001f720 f   LIBCMT:ftol2.obj
 0001:0001e7e0       _strrchr                   1001f7e0 f   libvcruntime:strrchr.obj
 0001:0001e920       _strchr                    1001f920 f   libvcruntime:strchr.obj
 0001:0001e98e       ___from_strstr_to_strchr   1001f98e     libvcruntime:strchr.obj
 0001:0001ea4b       __filter_x86_sse2_floating_point_exception 1001fa4b f   LIBCMT:x86_exception_filter.obj
 0001:0001ea4b       __filter_x86_sse2_floating_point_exception_default 1001fa4b f   LIBCMT:x86_exception_filter.obj
 0002:00000000       __imp__RegQueryValueExW@24 10020000     advapi32:ADVAPI32.dll
 0002:00000004       __imp__RegSetValueExW@24   10020004     advapi32:ADVAPI32.dll
 0002:00000008       __imp__RegQueryInfoKeyW@48 10020008     advapi32:ADVAPI32.dll
 0002:0000000c       __imp__RegOpenKeyExW@20    1002000c     advapi32:ADVAPI32.dll
 0002:00000010       __imp__RegEnumKeyExW@32    10020010     advapi32:ADVAPI32.dll
 0002:00000014       __imp__RegDeleteValueW@8   10020014     advapi32:ADVAPI32.dll
 0002:00000018       __imp__RegDeleteKeyW@8     10020018     advapi32:ADVAPI32.dll
 0002:0000001c       __imp__RegCreateKeyExW@36  1002001c     advapi32:ADVAPI32.dll
 0002:00000020       __imp__RegCloseKey@4       10020020     advapi32:ADVAPI32.dll
 0002:00000024       \177ADVAPI32_NULL_THUNK_DATA 10020024     advapi32:ADVAPI32.dll
 0002:00000028       __imp__GetObjectW@12       10020028     gdi32:GDI32.dll
 0002:0000002c       __imp__SelectObject@8      1002002c     gdi32:GDI32.dll
 0002:00000030       __imp__DeleteObject@4      10020030     gdi32:GDI32.dll
 0002:00000034       __imp__CreateCompatibleDC@4 10020034     gdi32:GDI32.dll
 0002:00000038       __imp__BitBlt@36           10020038     gdi32:GDI32.dll
 0002:0000003c       __imp__SetWindowOrgEx@16   1002003c     gdi32:GDI32.dll
 0002:00000040       __imp__SetWindowExtEx@16   10020040     gdi32:GDI32.dll
 0002:00000044       __imp__SetViewportOrgEx@16 10020044     gdi32:GDI32.dll
 0002:00000048       __imp__LPtoDP@12           10020048     gdi32:GDI32.dll
 0002:0000004c       __imp__SetMapMode@8        1002004c     gdi32:GDI32.dll
 0002:00000050       __imp__SaveDC@4            10020050     gdi32:GDI32.dll
 0002:00000054       __imp__RestoreDC@8         10020054     gdi32:GDI32.dll
 0002:00000058       __imp__GetDeviceCaps@8     10020058     gdi32:GDI32.dll
 0002:0000005c       __imp__DeleteMetaFile@4    1002005c     gdi32:GDI32.dll
 0002:00000060       __imp__DeleteDC@4          10020060     gdi32:GDI32.dll
 0002:00000064       __imp__CreateRectRgnIndirect@4 10020064     gdi32:GDI32.dll
 0002:00000068       __imp__CreateMetaFileW@4   10020068     gdi32:GDI32.dll
 0002:0000006c       __imp__CreateDCW@16        1002006c     gdi32:GDI32.dll
 0002:00000070       __imp__CloseMetaFile@4     10020070     gdi32:GDI32.dll
 0002:00000074       \177GDI32_NULL_THUNK_DATA  10020074     gdi32:GDI32.dll
 0002:00000078       __imp__CloseHandle@4       10020078     kernel32:KERNEL32.dll
 0002:0000007c       __imp__SetEvent@4          1002007c     kernel32:KERNEL32.dll
 0002:00000080       __imp__CreateMutexW@12     10020080     kernel32:KERNEL32.dll
 0002:00000084       __imp__CreateEventW@16     10020084     kernel32:KERNEL32.dll
 0002:00000088       __imp__GetCurrentProcessId@0 10020088     kernel32:KERNEL32.dll
 0002:0000008c       __imp__CreateFileW@28      1002008c     kernel32:KERNEL32.dll
 0002:00000090       __imp__GetConsoleMode@8    10020090     kernel32:KERNEL32.dll
 0002:00000094       __imp__GetConsoleOutputCP@0 10020094     kernel32:KERNEL32.dll
 0002:00000098       __imp__WriteFile@20        10020098     kernel32:KERNEL32.dll
 0002:0000009c       __imp__FlushFileBuffers@4  1002009c     kernel32:KERNEL32.dll
 0002:000000a0       __imp__SetStdHandle@8      100200a0     kernel32:KERNEL32.dll
 0002:000000a4       __imp__GetStringTypeW@16   100200a4     kernel32:KERNEL32.dll
 0002:000000a8       __imp__SetFilePointerEx@20 100200a8     kernel32:KERNEL32.dll
 0002:000000ac       __imp__FreeEnvironmentStringsW@4 100200ac     kernel32:KERNEL32.dll
 0002:000000b0       __imp__GetEnvironmentStringsW@0 100200b0     kernel32:KERNEL32.dll
 0002:000000b4       __imp__lstrcmpiW@8         100200b4     kernel32:KERNEL32.dll
 0002:000000b8       __imp__GetCommandLineA@0   100200b8     kernel32:KERNEL32.dll
 0002:000000bc       __imp__GetCPInfo@8         100200bc     kernel32:KERNEL32.dll
 0002:000000c0       __imp__GetOEMCP@0          100200c0     kernel32:KERNEL32.dll
 0002:000000c4       __imp__GetACP@0            100200c4     kernel32:KERNEL32.dll
 0002:000000c8       __imp__IsValidCodePage@4   100200c8     kernel32:KERNEL32.dll
 0002:000000cc       __imp__FindNextFileW@8     100200cc     kernel32:KERNEL32.dll
 0002:000000d0       __imp__FindFirstFileExW@24 100200d0     kernel32:KERNEL32.dll
 0002:000000d4       __imp__FindClose@4         100200d4     kernel32:KERNEL32.dll
 0002:000000d8       __imp__GetFileType@4       100200d8     kernel32:KERNEL32.dll
 0002:000000dc       __imp__GetStdHandle@4      100200dc     kernel32:KERNEL32.dll
 0002:000000e0       __imp__LCMapStringW@24     100200e0     kernel32:KERNEL32.dll
 0002:000000e4       __imp__HeapReAlloc@16      100200e4     kernel32:KERNEL32.dll
 0002:000000e8       __imp__HeapSize@12         100200e8     kernel32:KERNEL32.dll
 0002:000000ec       __imp__MulDiv@12           100200ec     kernel32:KERNEL32.dll
 0002:000000f0       __imp__GlobalLock@4        100200f0     kernel32:KERNEL32.dll
 0002:000000f4       __imp__GlobalUnlock@4      100200f4     kernel32:KERNEL32.dll
 0002:000000f8       __imp__GlobalAlloc@8       100200f8     kernel32:KERNEL32.dll
 0002:000000fc       __imp__FindResourceW@12    100200fc     kernel32:KERNEL32.dll
 0002:00000100       __imp__SizeofResource@8    10020100     kernel32:KERNEL32.dll
 0002:00000104       __imp__LoadResource@8      10020104     kernel32:KERNEL32.dll
 0002:00000108       __imp__LoadLibraryExW@12   10020108     kernel32:KERNEL32.dll
 0002:0000010c       __imp__GetProcAddress@8    1002010c     kernel32:KERNEL32.dll
 0002:00000110       __imp__GetModuleHandleW@4  10020110     kernel32:KERNEL32.dll
 0002:00000114       __imp__GetModuleFileNameW@12 10020114     kernel32:KERNEL32.dll
 0002:00000118       __imp__FreeLibrary@4       10020118     kernel32:KERNEL32.dll
 0002:0000011c       __imp__DisableThreadLibraryCalls@4 1002011c     kernel32:KERNEL32.dll
 0002:00000120       __imp__GetCurrentThreadId@0 10020120     kernel32:KERNEL32.dll
 0002:00000124       __imp__Sleep@4             10020124     kernel32:KERNEL32.dll
 0002:00000128       __imp__WaitForSingleObject@8 10020128     kernel32:KERNEL32.dll
 0002:0000012c       __imp__ReleaseMutex@4      1002012c     kernel32:KERNEL32.dll
 0002:00000130       __imp__ResetEvent@4        10020130     kernel32:KERNEL32.dll
 0002:00000134       __imp__EnterCriticalSection@4 10020134     kernel32:KERNEL32.dll
 0002:00000138       __imp__LeaveCriticalSection@4 10020138     kernel32:KERNEL32.dll
 0002:0000013c       __imp__SetLastError@4      1002013c     kernel32:KERNEL32.dll
 0002:00000140       __imp__EncodePointer@4     10020140     kernel32:KERNEL32.dll
 0002:00000144       __imp__DeleteCriticalSection@4 10020144     kernel32:KERNEL32.dll
 0002:00000148       __imp__InitializeCriticalSectionEx@12 10020148     kernel32:KERNEL32.dll
 0002:0000014c       __imp__GetLastError@0      1002014c     kernel32:KERNEL32.dll
 0002:00000150       __imp__RaiseException@16   10020150     kernel32:KERNEL32.dll
 0002:00000154       __imp__DecodePointer@4     10020154     kernel32:KERNEL32.dll
 0002:00000158       __imp__WideCharToMultiByte@32 10020158     kernel32:KERNEL32.dll
 0002:0000015c       __imp__GetCommandLineW@0   1002015c     kernel32:KERNEL32.dll
 0002:00000160       __imp__MultiByteToWideChar@24 10020160     kernel32:KERNEL32.dll
 0002:00000164       __imp__WriteConsoleW@20    10020164     kernel32:KERNEL32.dll
 0002:00000168       __imp__GetModuleHandleExW@12 10020168     kernel32:KERNEL32.dll
 0002:0000016c       __imp__ExitProcess@4       1002016c     kernel32:KERNEL32.dll
 0002:00000170       __imp__VirtualQuery@12     10020170     kernel32:KERNEL32.dll
 0002:00000174       __imp__VirtualProtect@16   10020174     kernel32:KERNEL32.dll
 0002:00000178       __imp__GetSystemInfo@4     10020178     kernel32:KERNEL32.dll
 0002:0000017c       __imp__TlsFree@4           1002017c     kernel32:KERNEL32.dll
 0002:00000180       __imp__TlsSetValue@8       10020180     kernel32:KERNEL32.dll
 0002:00000184       __imp__TlsGetValue@4       10020184     kernel32:KERNEL32.dll
 0002:00000188       __imp__TlsAlloc@0          10020188     kernel32:KERNEL32.dll
 0002:0000018c       __imp__InterlockedFlushSList@4 1002018c     kernel32:KERNEL32.dll
 0002:00000190       __imp__RtlUnwind@16        10020190     kernel32:KERNEL32.dll
 0002:00000194       __imp__LoadLibraryExA@12   10020194     kernel32:KERNEL32.dll
 0002:00000198       __imp__VirtualFree@12      10020198     kernel32:KERNEL32.dll
 0002:0000019c       __imp__VirtualAlloc@16     1002019c     kernel32:KERNEL32.dll
 0002:000001a0       __imp__FlushInstructionCache@12 100201a0     kernel32:KERNEL32.dll
 0002:000001a4       __imp__InterlockedPushEntrySList@8 100201a4     kernel32:KERNEL32.dll
 0002:000001a8       __imp__InterlockedPopEntrySList@4 100201a8     kernel32:KERNEL32.dll
 0002:000001ac       __imp__GetProcessHeap@0    100201ac     kernel32:KERNEL32.dll
 0002:000001b0       __imp__HeapFree@12         100201b0     kernel32:KERNEL32.dll
 0002:000001b4       __imp__HeapAlloc@12        100201b4     kernel32:KERNEL32.dll
 0002:000001b8       __imp__OutputDebugStringW@4 100201b8     kernel32:KERNEL32.dll
 0002:000001bc       __imp__InitializeSListHead@4 100201bc     kernel32:KERNEL32.dll
 0002:000001c0       __imp__GetSystemTimeAsFileTime@4 100201c0     kernel32:KERNEL32.dll
 0002:000001c4       __imp__QueryPerformanceCounter@4 100201c4     kernel32:KERNEL32.dll
 0002:000001c8       __imp__GetStartupInfoW@4   100201c8     kernel32:KERNEL32.dll
 0002:000001cc       __imp__IsDebuggerPresent@0 100201cc     kernel32:KERNEL32.dll
 0002:000001d0       __imp__IsProcessorFeaturePresent@4 100201d0     kernel32:KERNEL32.dll
 0002:000001d4       __imp__TerminateProcess@8  100201d4     kernel32:KERNEL32.dll
 0002:000001d8       __imp__GetCurrentProcess@0 100201d8     kernel32:KERNEL32.dll
 0002:000001dc       __imp__SetUnhandledExceptionFilter@4 100201dc     kernel32:KERNEL32.dll
 0002:000001e0       __imp__UnhandledExceptionFilter@4 100201e0     kernel32:KERNEL32.dll
 0002:000001e4       __imp__InitializeCriticalSectionAndSpinCount@8 100201e4     kernel32:KERNEL32.dll
 0002:000001e8       __imp__WaitForSingleObjectEx@12 100201e8     kernel32:KERNEL32.dll
 0002:000001ec       \177KERNEL32_NULL_THUNK_DATA 100201ec     kernel32:KERNEL32.dll
 0002:000001f0       __imp__OleCreatePropertyFrame@44 100201f0     oleaut32:OLEAUT32.dll
 0002:000001f4       __imp__UnRegisterTypeLib@20 100201f4     oleaut32:OLEAUT32.dll
 0002:000001f8       __imp__RegisterTypeLib@12  100201f8     oleaut32:OLEAUT32.dll
 0002:000001fc       __imp__LoadRegTypeLib@20   100201fc     oleaut32:OLEAUT32.dll
 0002:00000200       __imp__LoadTypeLib@8       10020200     oleaut32:OLEAUT32.dll
 0002:00000204       __imp__VarUI4FromStr@16    10020204     oleaut32:OLEAUT32.dll
 0002:00000208       __imp__VariantInit@4       10020208     oleaut32:OLEAUT32.dll
 0002:0000020c       __imp__SysAllocStringByteLen@8 1002020c     oleaut32:OLEAUT32.dll
 0002:00000210       __imp__SysStringByteLen@4  10020210     oleaut32:OLEAUT32.dll
 0002:00000214       __imp__VariantChangeType@16 10020214     oleaut32:OLEAUT32.dll
 0002:00000218       __imp__VariantClear@4      10020218     oleaut32:OLEAUT32.dll
 0002:0000021c       __imp__SysStringLen@4      1002021c     oleaut32:OLEAUT32.dll
 0002:00000220       __imp__SysFreeString@4     10020220     oleaut32:OLEAUT32.dll
 0002:00000224       __imp__SysAllocStringLen@8 10020224     oleaut32:OLEAUT32.dll
 0002:00000228       __imp__SysAllocString@4    10020228     oleaut32:OLEAUT32.dll
 0002:0000022c       \177OLEAUT32_NULL_THUNK_DATA 1002022c     oleaut32:OLEAUT32.dll
 0002:00000230       __imp__UnregisterClassW@8  10020230     user32:USER32.dll
 0002:00000234       __imp__PostMessageW@16     10020234     user32:USER32.dll
 0002:00000238       __imp__DefWindowProcW@16   10020238     user32:USER32.dll
 0002:0000023c       __imp__CallWindowProcW@20  1002023c     user32:USER32.dll
 0002:00000240       __imp__RegisterClassExW@4  10020240     user32:USER32.dll
 0002:00000244       __imp__GetClassInfoExW@12  10020244     user32:USER32.dll
 0002:00000248       __imp__CreateWindowExW@48  10020248     user32:USER32.dll
 0002:0000024c       __imp__IsWindow@4          1002024c     user32:USER32.dll
 0002:00000250       __imp__IsChild@8           10020250     user32:USER32.dll
 0002:00000254       __imp__DestroyWindow@4     10020254     user32:USER32.dll
 0002:00000258       __imp__ShowWindow@8        10020258     user32:USER32.dll
 0002:0000025c       __imp__SetWindowPos@28     1002025c     user32:USER32.dll
 0002:00000260       __imp__CharNextW@4         10020260     user32:USER32.dll
 0002:00000264       __imp__SetFocus@4          10020264     user32:USER32.dll
 0002:00000268       __imp__LoadBitmapW@8       10020268     user32:USER32.dll
 0002:0000026c       __imp__RegisterClassW@4    1002026c     user32:USER32.dll
 0002:00000270       __imp__PeekMessageW@20     10020270     user32:USER32.dll
 0002:00000274       __imp__LoadCursorW@8       10020274     user32:USER32.dll
 0002:00000278       __imp__GetParent@4         10020278     user32:USER32.dll
 0002:0000027c       __imp__SetWindowLongW@12   1002027c     user32:USER32.dll
 0002:00000280       __imp__GetWindowLongW@8    10020280     user32:USER32.dll
 0002:00000284       __imp__PtInRect@12         10020284     user32:USER32.dll
 0002:00000288       __imp__EqualRect@8         10020288     user32:USER32.dll
 0002:0000028c       __imp__OffsetRect@12       1002028c     user32:USER32.dll
 0002:00000290       __imp__UnionRect@12        10020290     user32:USER32.dll
 0002:00000294       __imp__IntersectRect@12    10020294     user32:USER32.dll
 0002:00000298       __imp__GetClientRect@8     10020298     user32:USER32.dll
 0002:0000029c       __imp__InvalidateRect@12   1002029c     user32:USER32.dll
 0002:000002a0       __imp__SetWindowRgn@12     100202a0     user32:USER32.dll
 0002:000002a4       __imp__EndPaint@8          100202a4     user32:USER32.dll
 0002:000002a8       __imp__BeginPaint@8        100202a8     user32:USER32.dll
 0002:000002ac       __imp__ReleaseDC@8         100202ac     user32:USER32.dll
 0002:000002b0       __imp__GetDC@4             100202b0     user32:USER32.dll
 0002:000002b4       __imp__GetKeyState@4       100202b4     user32:USER32.dll
 0002:000002b8       __imp__GetFocus@0          100202b8     user32:USER32.dll
 0002:000002bc       \177USER32_NULL_THUNK_DATA 100202bc     user32:USER32.dll
 0002:000002c0       __imp__StringFromGUID2@12  100202c0     ole32:ole32.dll
 0002:000002c4       __imp__CoTaskMemAlloc@4    100202c4     ole32:ole32.dll
 0002:000002c8       __imp__CoTaskMemRealloc@8  100202c8     ole32:ole32.dll
 0002:000002cc       __imp__CoTaskMemFree@4     100202cc     ole32:ole32.dll
 0002:000002d0       __imp__ReadClassStm@8      100202d0     ole32:ole32.dll
 0002:000002d4       __imp__WriteClassStm@8     100202d4     ole32:ole32.dll
 0002:000002d8       __imp__CreateDataAdviseHolder@4 100202d8     ole32:ole32.dll
 0002:000002dc       __imp__OleSaveToStream@8   100202dc     ole32:ole32.dll
 0002:000002e0       __imp__CreateOleAdviseHolder@4 100202e0     ole32:ole32.dll
 0002:000002e4       __imp__OleRegGetUserType@12 100202e4     ole32:ole32.dll
 0002:000002e8       __imp__OleRegGetMiscStatus@12 100202e8     ole32:ole32.dll
 0002:000002ec       __imp__OleRegEnumVerbs@8   100202ec     ole32:ole32.dll
 0002:000002f0       __imp__CLSIDFromProgID@8   100202f0     ole32:ole32.dll
 0002:000002f4       __imp__CoCreateInstance@20 100202f4     ole32:ole32.dll
 0002:000002f8       \177ole32_NULL_THUNK_DATA  100202f8     ole32:ole32.dll
 0002:000002fc       ___guard_check_icall_fptr  100202fc     LIBCMT:guard_support.obj
 0002:00000300       ___xc_a                    10020300     LIBCMT:initializers.obj
 0002:00000318       ___xc_z                    10020318     LIBCMT:initializers.obj
 0002:0000031c       ___xi_a                    1002031c     LIBCMT:initializers.obj
 0002:00000324       ___acrt_stdio_initializer  10020324     libucrt:stdio_initializer.obj
 0002:00000328       ___acrt_multibyte_initializer 10020328     libucrt:multibyte_initializer.obj
 0002:0000032c       ___acrt_tran_sse2_initializer 1002032c     libucrt:sse2_initializer.obj
 0002:00000330       ___xi_z                    10020330     LIBCMT:initializers.obj
 0002:00000334       ___xl_a                    10020334     LIBCMT:tlssup.obj
 0002:00000338       ___xl_z                    10020338     LIBCMT:tlssup.obj
 0002:0000033c       ___xp_a                    1002033c     LIBCMT:initializers.obj
 0002:00000340       ___acrt_locale_terminator  10020340     libucrt:locale_initializer.obj
 0002:00000344       ___dcrt_console_output_terminator 10020344     libucrt:console_output_initializer.obj
 0002:00000348       ___acrt_stdio_terminator   10020348     libucrt:stdio_initializer.obj
 0002:0000034c       ___xp_z                    1002034c     LIBCMT:initializers.obj
 0002:00000350       ___xt_a                    10020350     LIBCMT:initializers.obj
 0002:00000354       ___xt_z                    10020354     LIBCMT:initializers.obj
 0002:00000360       ??_C@_13HADIAKP@?$AAS@     10020360     OposVariant.obj
 0002:00000364       ??_C@_13LHMFKAAD@?$AAM@    10020364     OposVariant.obj
 0002:00000368       ??_C@_13MKMNOPIJ@?$AAD@    10020368     OposVariant.obj
 0002:0000036c       ??_C@_13OPKGLAFF@?$AAB@    1002036c     OposVariant.obj
 0002:00000370       ??_C@_17LLMMEOJD@?$AAV?$AAa?$AAl@ 10020370     OposVariant.obj
 0002:00000378       ??_C@_1BI@JFAIJMHL@?$AAF?$AAo?$AAr?$AAc?$AAe?$AAR?$AAe?$AAm?$AAo?$AAv?$AAe@ 10020378     OposVariant.obj
 0002:00000390       ??_C@_1BC@GCKHIPE@?$AAN?$AAo?$AAR?$AAe?$AAm?$AAo?$AAv?$AAe@ 10020390     OposVariant.obj
 0002:000003a4       ??_C@_1O@JDLOHAN@?$AAD?$AAe?$AAl?$AAe?$AAt?$AAe@ 100203a4     OposVariant.obj
 0002:000003b4       ??_C@_11LOCGONAA@@         100203b4     OposVariant.obj
 0002:000003b8       ??_7CComClassFactory@ATL@@6B@ 100203b8     Scale.obj
 0002:000003d0       ?_entries@?1??_GetEntries@CComClassFactory@ATL@@SGPBU_ATL_INTMAP_ENTRY@3@XZ@4QBU43@B 100203d0     Scale.obj
 0002:000003e8       __GUID_00000001_0000_0000_c000_000000000046 100203e8     Scale.obj
 0002:000003f8       _IID_IOPOSScale_1_5        100203f8     Scale.obj
 0002:00000408       _IID_IOPOSScale_1_8        10020408     Scale.obj
 0002:00000418       _IID_IOPOSScale_1_9        10020418     Scale.obj
 0002:00000428       _IID_IOPOSScale_1_9_zz     10020428     Scale.obj
 0002:00000438       _IID_IOPOSScale_1_13       10020438     Scale.obj
 0002:00000448       _IID_IOPOSScale_1_13_zz    10020448     Scale.obj
 0002:00000458       _IID_IOPOSScale_1_14       10020458     Scale.obj
 0002:00000468       _IID_IOPOSScale            10020468     Scale.obj
 0002:00000478       _LIBID_OposScale_CCO       10020478     Scale.obj
 0002:00000488       _DIID__IOPOSScaleEvents    10020488     Scale.obj
 0002:00000498       _CLSID_OPOSScale           10020498     Scale.obj
 0002:000004a8       __GUID_00000114_0000_0000_c000_000000000046 100204a8     Scale.obj
 0002:000004b8       ??_C@_1BK@BIGILECK@?$AAA?$AAd?$AAv?$AAa?$AAp?$AAi?$AA3?$AA2?$AA?4?$AAd?$AAl?$AAl@ 100204b8     Scale.obj
 0002:000004d4       ??_C@_0BI@MNCFCPFK@RegCreateKeyTransactedW@ 100204d4     Scale.obj
 0002:000004ec       __GUID_b196b287_bab4_101a_b69c_00aa00341d07 100204ec     Scale.obj
 0002:000004fc       __GUID_b196b285_bab4_101a_b69c_00aa00341d07 100204fc     Scale.obj
 0002:0000050c       __GUID_a6bc3ac0_dbaa_11ce_9de3_00aa004bb851 1002050c     Scale.obj
 0002:0000051c       __GUID_0000010c_0000_0000_c000_000000000046 1002051c     Scale.obj
 0002:0000052c       __GUID_00000146_0000_0000_c000_000000000046 1002052c     Scale.obj
 0002:00000540       ?_entries@?1??_GetEntries@COPOSScale@@SGPBU_ATL_INTMAP_ENTRY@ATL@@XZ@4QBU34@B 10020540     Scale.obj
 0002:000006a8       ??_7CComModule@ATL@@6B@    100206a8     Scale.obj
 0002:000006d0       __GUID_cf51ed10_62fe_11cf_bf86_00a0c9034836 100206d0     Scale.obj
 0002:000006e0       __GUID_0000010a_0000_0000_c000_000000000046 100206e0     Scale.obj
 0002:000006f0       __GUID_922eada0_3424_11cf_b670_00aa004cd6d8 100206f0     Scale.obj
 0002:00000700       __GUID_b196b283_bab4_101a_b69c_00aa00341d07 10020700     Scale.obj
 0002:00000710       __GUID_9c2cad80_3424_11cf_b670_00aa004cd6d8 10020710     Scale.obj
 0002:00000720       __GUID_00000119_0000_0000_c000_000000000046 10020720     Scale.obj
 0002:00000730       __GUID_cb5bdc81_93c1_11cf_8f20_00805f2cd064 10020730     Scale.obj
 0002:00000740       __GUID_b196b289_bab4_101a_b69c_00aa00341d07 10020740     Scale.obj
 0002:00000750       ?pPropMap@?1??GetPropertyMap@COPOSScale@@SAPBUATL_PROPMAP_ENTRY@ATL@@XZ@4QBU34@B 10020750     Scale.obj
 0002:000007bc       ??_C@_17DGDADEHL@?$AA_?$AAc?$AAx@ 100207bc     Scale.obj
 0002:000007c4       ??_C@_17IOIMFDBO@?$AA_?$AAc?$AAy@ 100207c4     Scale.obj
 0002:000007cc       __GUID_00000000_0000_0000_c000_000000000046 100207cc     Scale.obj
 0002:000007dc       __GUID_00020400_0000_0000_c000_000000000046 100207dc     Scale.obj
 0002:000007ec       __GUID_00000117_0000_0000_c000_000000000046 100207ec     Scale.obj
 0002:000007fc       ??_7?$CComObjectCached@VCComClassFactory@ATL@@@ATL@@6B@ 100207fc     Scale.obj
 0002:00000814       ??_C@_1CE@PGFMOFKI@?$AAS?$AAt?$AAa?$AAt?$AAu?$AAs?$AAU?$AAp?$AAd?$AAa?$AAt?$AAe?$AAE?$AAv?$AAe@ 10020814     Scale.obj
 0002:00000838       ??_C@_1BG@LODEBHDD@?$AAE?$AAr?$AAr?$AAo?$AAr?$AAE?$AAv?$AAe?$AAn?$AAt@ 10020838     Scale.obj
 0002:00000850       ??_C@_1BM@CBGEBBBJ@?$AAD?$AAi?$AAr?$AAe?$AAc?$AAt?$AAI?$AAO?$AAE?$AAv?$AAe?$AAn?$AAt@ 10020850     Scale.obj
 0002:0000086c       ??_C@_1BE@IEBMACEM@?$AAD?$AAa?$AAt?$AAa?$AAE?$AAv?$AAe?$AAn?$AAt@ 1002086c     Scale.obj
 0002:00000880       __GUID_b196b286_bab4_101a_b69c_00aa00341d07 10020880     Scale.obj
 0002:00000890       ??_C@_1BC@ENICKDH@?$AAC?$AAo?$AAn?$AAt?$AAe?$AAn?$AAt?$AAs@ 10020890     Scale.obj
 0002:000008a4       ??_7?$CComObject@V?$CComEnum@UIEnumConnectionPoints@@$1?_GUID_b196b285_bab4_101a_b69c_00aa00341d07@@3U__s_GUID@@BPAUIConnectionPoint@@V?$_CopyInterface@UIConnectionPoint@@@ATL@@VCComSingleThreadModel@6@@ATL@@@ATL@@6B@ 100208a4     Scale.obj
 0002:000008c4       ??_C@_1M@KANJNLFF@?$AAC?$AAL?$AAS?$AAI?$AAD@ 100208c4     Scale.obj
 0002:000008d0       ??_C@_1M@EJNEECMJ@?$AAA?$AAp?$AAp?$AAI?$AAD@ 100208d0     Scale.obj
 0002:000008dc       __GUID_0000010e_0000_0000_c000_000000000046 100208dc     Scale.obj
 0002:000008ec       __GUID_b196b288_bab4_101a_b69c_00aa00341d07 100208ec     Scale.obj
 0002:000008fc       ?rgszNeverDelete@CRegParser@ATL@@1QBQB_WB 100208fc     Scale.obj
 0002:0000092c       ??_7CRegObject@ATL@@6B@    1002092c     Scale.obj
 0002:00000944       __GUID_00000113_0000_0000_c000_000000000046 10020944     Scale.obj
 0002:00000954       __GUID_1c2056cc_5ef4_101b_8bc8_00aa003e3b29 10020954     Scale.obj
 0002:00000964       ??_C@_1CK@OEKPKBNA@?$AAC?$AAo?$AAm?$AAp?$AAo?$AAn?$AAe?$AAn?$AAt?$AA?5?$AAC?$AAa?$AAt?$AAe?$AAg@ 10020964     Scale.obj
 0002:00000990       ??_C@_1BC@NKMMNMGL@?$AAF?$AAi?$AAl?$AAe?$AAT?$AAy?$AAp?$AAe@ 10020990     Scale.obj
 0002:000009a4       ??_C@_1BE@EKPAFMCP@?$AAI?$AAn?$AAt?$AAe?$AAr?$AAf?$AAa?$AAc?$AAe@ 100209a4     Scale.obj
 0002:000009b8       ??_C@_1BC@MAICEHGI@?$AAH?$AAa?$AAr?$AAd?$AAw?$AAa?$AAr?$AAe@ 100209b8     Scale.obj
 0002:000009cc       ??_C@_19HLLLM@?$AAM?$AAi?$AAm?$AAe@ 100209cc     Scale.obj
 0002:000009d8       ??_C@_17OMAOINJK@?$AAS?$AAA?$AAM@ 100209d8     Scale.obj
 0002:000009e0       ??_C@_1BC@IBECJAAI@?$AAS?$AAE?$AAC?$AAU?$AAR?$AAI?$AAT?$AAY@ 100209e0     Scale.obj
 0002:000009f4       ??_C@_1O@GBFINDKL@?$AAS?$AAY?$AAS?$AAT?$AAE?$AAM@ 100209f4     Scale.obj
 0002:00000a04       ??_C@_1BC@EAHCMADO@?$AAS?$AAo?$AAf?$AAt?$AAw?$AAa?$AAr?$AAe@ 10020a04     Scale.obj
 0002:00000a18       ??_C@_1BA@JIHHIEDE@?$AAT?$AAy?$AAp?$AAe?$AAL?$AAi?$AAb@ 10020a18     Scale.obj
 0002:00000a28       ?map@?1??HKeyFromString@CRegParser@ATL@@KAPAUHKEY__@@PA_W@Z@4QBUkeymap@?1??123@KAPAU4@0@Z@B 10020a28     Scale.obj
 0002:00000a98       ??_C@_19NCHLBIN@?$AAH?$AAK?$AAC?$AAR@ 10020a98     Scale.obj
 0002:00000aa4       ??_C@_19JAPAIJDE@?$AAH?$AAK?$AAC?$AAU@ 10020aa4     Scale.obj
 0002:00000ab0       ??_C@_19PEALEEJB@?$AAH?$AAK?$AAL?$AAM@ 10020ab0     Scale.obj
 0002:00000abc       ??_C@_17PJOJPMPB@?$AAH?$AAK?$AAU@ 10020abc     Scale.obj
 0002:00000ac4       ??_C@_19PNBHMJPL@?$AAH?$AAK?$AAP?$AAD@ 10020ac4     Scale.obj
 0002:00000ad0       ??_C@_19GFFAIJHG@?$AAH?$AAK?$AAD?$AAD@ 10020ad0     Scale.obj
 0002:00000adc       ??_C@_19OFICIBHH@?$AAH?$AAK?$AAC?$AAC@ 10020adc     Scale.obj
 0002:00000ae8       ??_C@_1CE@PACHPJFI@?$AAH?$AAK?$AAE?$AAY?$AA_?$AAC?$AAL?$AAA?$AAS?$AAS?$AAE?$AAS?$AA_?$AAR?$AAO@ 10020ae8     Scale.obj
 0002:00000b0c       ??_C@_1CE@HLHNCBPM@?$AAH?$AAK?$AAE?$AAY?$AA_?$AAC?$AAU?$AAR?$AAR?$AAE?$AAN?$AAT?$AA_?$AAU?$AAS@ 10020b0c     Scale.obj
 0002:00000b30       ??_C@_1CG@GFBEANJL@?$AAH?$AAK?$AAE?$AAY?$AA_?$AAL?$AAO?$AAC?$AAA?$AAL?$AA_?$AAM?$AAA?$AAC?$AAH@ 10020b30     Scale.obj
 0002:00000b58       ??_C@_1BG@BGODANIO@?$AAH?$AAK?$AAE?$AAY?$AA_?$AAU?$AAS?$AAE?$AAR?$AAS@ 10020b58     Scale.obj
 0002:00000b70       ??_C@_1CM@KHNNAOIC@?$AAH?$AAK?$AAE?$AAY?$AA_?$AAP?$AAE?$AAR?$AAF?$AAO?$AAR?$AAM?$AAA?$AAN?$AAC@ 10020b70     Scale.obj
 0002:00000b9c       ??_C@_1BM@HAGMMHIA@?$AAH?$AAK?$AAE?$AAY?$AA_?$AAD?$AAY?$AAN?$AA_?$AAD?$AAA?$AAT?$AAA@ 10020b9c     Scale.obj
 0002:00000bb8       ??_C@_1CI@BBJOACGG@?$AAH?$AAK?$AAE?$AAY?$AA_?$AAC?$AAU?$AAR?$AAR?$AAE?$AAN?$AAT?$AA_?$AAC?$AAO@ 10020bb8     Scale.obj
 0002:00000be0       __GUID_00000112_0000_0000_c000_000000000046 10020be0     Scale.obj
 0002:00000bf0       __GUID_00000109_0000_0000_c000_000000000046 10020bf0     Scale.obj
 0002:00000c00       __GUID_7fd52380_4e07_101b_ae2d_08002b2ec713 10020c00     Scale.obj
 0002:00000c10       __GUID_3af24292_0c96_11ce_a0cf_00aa00600ab8 10020c10     Scale.obj
 0002:00000c20       __GUID_00000127_0000_0000_c000_000000000046 10020c20     Scale.obj
 0002:00000c30       __GUID_0000010d_0000_0000_c000_000000000046 10020c30     Scale.obj
 0002:00000c40       ??_C@_1EA@NHKLICFA@?$AAH?$AAK?$AAC?$AAU?$AA?$AN?$AA?6?$AA?$HL?$AA?7?$AAS?$AAo?$AAf?$AAt?$AAw?$AAa?$AAr@ 10020c40     Scale.obj
 0002:00000c80       ??_C@_1BE@LJOLIMEM@?$AA?$AN?$AA?6?$AA?7?$AA?$HN?$AA?$AN?$AA?6?$AA?$HN?$AA?$AN?$AA?6@ 10020c80     Scale.obj
 0002:00000c94       ??_C@_1O@MNLDABAF@?$AAM?$AAo?$AAd?$AAu?$AAl?$AAe@ 10020c94     Scale.obj
 0002:00000ca4       ??_C@_1BG@JBACFMF@?$AAM?$AAo?$AAd?$AAu?$AAl?$AAe?$AA_?$AAR?$AAa?$AAw@ 10020ca4     Scale.obj
 0002:00000cbc       ??_C@_1BC@KAILKFFG@?$AAR?$AAE?$AAG?$AAI?$AAS?$AAT?$AAR?$AAY@ 10020cbc     Scale.obj
 0002:00000cd0       ??_C@_1M@PPPPCDEP@?$AAA?$AAP?$AAP?$AAI?$AAD@ 10020cd0     Scale.obj
 0002:00000cdc       ??_7?$CComContainedObject@VCOPOSScale@@@ATL@@6B?$IDispatchImpl@UIOPOSScale@@$1?IID_IOPOSScale@@3U_GUID@@B$1?LIBID_OposScale_CCO@@3U3@B$00$0A@VCComTypeInfoHolder@ATL@@@1@@ 10020cdc     Scale.obj
 0002:00000e58       ??_7?$CComContainedObject@VCOPOSScale@@@ATL@@6BCComControlBase@1@@ 10020e58     Scale.obj
 0002:00000e6c       ??_7?$CComContainedObject@VCOPOSScale@@@ATL@@6B?$CWindowImpl@VCOPOSScale@@VCWindow@ATL@@V?$CWinTraits@$0FGAAAAAA@$0A@@3@@1@@ 10020e6c     Scale.obj
 0002:00000e7c       ??_7?$CComContainedObject@VCOPOSScale@@@ATL@@6B?$IPersistStreamInitImpl@VCOPOSScale@@@1@@ 10020e7c     Scale.obj
 0002:00000ea0       ??_7?$CComContainedObject@VCOPOSScale@@@ATL@@6B?$IOleControlImpl@VCOPOSScale@@@1@@ 10020ea0     Scale.obj
 0002:00000ebc       ??_7?$CComContainedObject@VCOPOSScale@@@ATL@@6B?$IOleObjectImpl@VCOPOSScale@@@1@@ 10020ebc     Scale.obj
 0002:00000f1c       ??_7?$CComContainedObject@VCOPOSScale@@@ATL@@6B?$IOleInPlaceActiveObjectImpl@VCOPOSScale@@@1@@ 10020f1c     Scale.obj
 0002:00000f44       ??_7?$CComContainedObject@VCOPOSScale@@@ATL@@6B?$IViewObjectExImpl@VCOPOSScale@@@1@@ 10020f44     Scale.obj
 0002:00000f80       ??_7?$CComContainedObject@VCOPOSScale@@@ATL@@6B?$IOleInPlaceObjectWindowlessImpl@VCOPOSScale@@@1@@ 10020f80     Scale.obj
 0002:00000fac       ??_7?$CComContainedObject@VCOPOSScale@@@ATL@@6B?$IConnectionPointContainerImpl@VCOPOSScale@@@1@@ 10020fac     Scale.obj
 0002:00000fc0       ??_7?$CComContainedObject@VCOPOSScale@@@ATL@@6B?$IPersistStorageImpl@VCOPOSScale@@@1@@ 10020fc0     Scale.obj
 0002:00000fe8       ??_7?$CComContainedObject@VCOPOSScale@@@ATL@@6B?$ISpecifyPropertyPagesImpl@VCOPOSScale@@@1@@ 10020fe8     Scale.obj
 0002:00000ff8       ??_7?$CComContainedObject@VCOPOSScale@@@ATL@@6B?$IQuickActivateImpl@VCOPOSScale@@@1@@ 10020ff8     Scale.obj
 0002:00001010       ??_7?$CComContainedObject@VCOPOSScale@@@ATL@@6B?$IDataObjectImpl@VCOPOSScale@@@1@@ 10021010     Scale.obj
 0002:00001040       ??_7?$CComContainedObject@VCOPOSScale@@@ATL@@6B?$IProvideClassInfo2Impl@$1?CLSID_OPOSScale@@3U_GUID@@B$1?DIID__IOPOSScaleEvents@@3U2@B$1?LIBID_OposScale_CCO@@3U2@B$00$0A@VCComTypeInfoHolder@ATL@@@1@@ 10021040     Scale.obj
 0002:00001054       ??_7?$CComContainedObject@VCOPOSScale@@@ATL@@6B?$IObjectSafetyImpl@VCOPOSScale@@$02@1@@ 10021054     Scale.obj
 0002:0000106c       ??_7?$CComContainedObject@VCOPOSScale@@@ATL@@6B?$IPropertyNotifySinkCP@VCOPOSScale@@VCComDynamicUnkArray@ATL@@@1@@ 1002106c     Scale.obj
 0002:0000108c       ??_7?$CComContainedObject@VCOPOSScale@@@ATL@@6B?$CProxy_IOPOSEvents@VCOPOSScale@@@@@ 1002108c     Scale.obj
 0002:000010ac       ??_7?$CComAggObject@VCOPOSScale@@@ATL@@6B@ 100210ac     Scale.obj
 0002:000010bc       ??_7?$CComObject@VCOPOSScale@@@ATL@@6B?$IDispatchImpl@UIOPOSScale@@$1?IID_IOPOSScale@@3U_GUID@@B$1?LIBID_OposScale_CCO@@3U3@B$00$0A@VCComTypeInfoHolder@ATL@@@1@@ 100210bc     Scale.obj
 0002:00001238       ??_7?$CComObject@VCOPOSScale@@@ATL@@6BCComControlBase@1@@ 10021238     Scale.obj
 0002:0000124c       ??_7?$CComObject@VCOPOSScale@@@ATL@@6B?$CWindowImpl@VCOPOSScale@@VCWindow@ATL@@V?$CWinTraits@$0FGAAAAAA@$0A@@3@@1@@ 1002124c     Scale.obj
 0002:0000125c       ??_7?$CComObject@VCOPOSScale@@@ATL@@6B?$IPersistStreamInitImpl@VCOPOSScale@@@1@@ 1002125c     Scale.obj
 0002:00001280       ??_7?$CComObject@VCOPOSScale@@@ATL@@6B?$IOleControlImpl@VCOPOSScale@@@1@@ 10021280     Scale.obj
 0002:0000129c       ??_7?$CComObject@VCOPOSScale@@@ATL@@6B?$IOleObjectImpl@VCOPOSScale@@@1@@ 1002129c     Scale.obj
 0002:000012fc       ??_7?$CComObject@VCOPOSScale@@@ATL@@6B?$IOleInPlaceActiveObjectImpl@VCOPOSScale@@@1@@ 100212fc     Scale.obj
 0002:00001324       ??_7?$CComObject@VCOPOSScale@@@ATL@@6B?$IViewObjectExImpl@VCOPOSScale@@@1@@ 10021324     Scale.obj
 0002:00001360       ??_7?$CComObject@VCOPOSScale@@@ATL@@6B?$IOleInPlaceObjectWindowlessImpl@VCOPOSScale@@@1@@ 10021360     Scale.obj
 0002:0000138c       ??_7?$CComObject@VCOPOSScale@@@ATL@@6B?$IConnectionPointContainerImpl@VCOPOSScale@@@1@@ 1002138c     Scale.obj
 0002:000013a0       ??_7?$CComObject@VCOPOSScale@@@ATL@@6B?$IPersistStorageImpl@VCOPOSScale@@@1@@ 100213a0     Scale.obj
 0002:000013c8       ??_7?$CComObject@VCOPOSScale@@@ATL@@6B?$ISpecifyPropertyPagesImpl@VCOPOSScale@@@1@@ 100213c8     Scale.obj
 0002:000013d8       ??_7?$CComObject@VCOPOSScale@@@ATL@@6B?$IQuickActivateImpl@VCOPOSScale@@@1@@ 100213d8     Scale.obj
 0002:000013f0       ??_7?$CComObject@VCOPOSScale@@@ATL@@6B?$IDataObjectImpl@VCOPOSScale@@@1@@ 100213f0     Scale.obj
 0002:00001420       ??_7?$CComObject@VCOPOSScale@@@ATL@@6B?$IProvideClassInfo2Impl@$1?CLSID_OPOSScale@@3U_GUID@@B$1?DIID__IOPOSScaleEvents@@3U2@B$1?LIBID_OposScale_CCO@@3U2@B$00$0A@VCComTypeInfoHolder@ATL@@@1@@ 10021420     Scale.obj
 0002:00001434       ??_7?$CComObject@VCOPOSScale@@@ATL@@6B?$IObjectSafetyImpl@VCOPOSScale@@$02@1@@ 10021434     Scale.obj
 0002:0000144c       ??_7?$CComObject@VCOPOSScale@@@ATL@@6B?$IPropertyNotifySinkCP@VCOPOSScale@@VCComDynamicUnkArray@ATL@@@1@@ 1002144c     Scale.obj
 0002:0000146c       ??_7?$CComObject@VCOPOSScale@@@ATL@@6B?$CProxy_IOPOSEvents@VCOPOSScale@@@@@ 1002146c     Scale.obj
 0002:0000148c       ??_C@_1O@GBFKGNEO@?$AAA?$AAT?$AAL?$AA?3?$AA?$CF?$AAp@ 1002148c     Scale.obj
 0002:0000149c       ??_C@_1BA@PICGEGJB@?$AAD?$AAI?$AAS?$AAP?$AAL?$AAA?$AAY@ 1002149c     Scale.obj
 0002:000014ac       __GUID_9bfbbc02_eff1_101a_84ed_00aa00341d07 100214ac     Scale.obj
 0002:000014bc       __GUID_b196b284_bab4_101a_b69c_00aa00341d07 100214bc     Scale.obj
 0002:000014cc       ?_entries@?1??_GetEntries@?$CComEnum@UIEnumConnectionPoints@@$1?_GUID_b196b285_bab4_101a_b69c_00aa00341d07@@3U__s_GUID@@BPAUIConnectionPoint@@V?$_CopyInterface@UIConnectionPoint@@@ATL@@VCComSingleThreadModel@6@@ATL@@SGPBU_ATL_INTMAP_ENTRY@3@XZ@4QBU43@B 100214cc     Scale.obj
 0002:000014e4       __GUID_00020412_0000_0000_c000_000000000046 100214e4     Scale.obj
 0002:000014f4       __GUID_00020401_0000_0000_c000_000000000046 100214f4     Scale.obj
 0002:00001504       __GUID_55980ba0_35aa_11cf_b671_00aa004cd6d8 10021504     Scale.obj
 0002:00001514       __GUID_b196b28b_bab4_101a_b69c_00aa00341d07 10021514     Scale.obj
 0002:00001524       ??_7?$CComObject@V?$CComEnum@UIEnumConnections@@$1?_GUID_b196b287_bab4_101a_b69c_00aa00341d07@@3U__s_GUID@@BUtagCONNECTDATA@@V?$_Copy@UtagCONNECTDATA@@@ATL@@VCComSingleThreadModel@6@@ATL@@@ATL@@6B@ 10021524     Scale.obj
 0002:00001544       ?_entries@?1??_GetEntries@?$CComEnum@UIEnumConnections@@$1?_GUID_b196b287_bab4_101a_b69c_00aa00341d07@@3U__s_GUID@@BUtagCONNECTDATA@@V?$_Copy@UtagCONNECTDATA@@@ATL@@VCComSingleThreadModel@6@@ATL@@SGPBU_ATL_INTMAP_ENTRY@3@XZ@4QBU43@B 10021544     Scale.obj
 0002:0000155c       ??_C@_0BG@EKFFMJIO@RegOpenKeyTransactedW@ 1002155c     Scale.obj
 0002:00001574       ??_C@_0BI@HAKLOOGP@RegDeleteKeyTransactedW@ 10021574     Scale.obj
 0002:0000158c       ??_C@_0BA@LILAPHGE@RegDeleteKeyExW@ 1002158c     Scale.obj
 0002:0000159c       ??_C@_19ILOCMLCJ@?$AA?4?$AAt?$AAl?$AAb@ 1002159c     Scale.obj
 0002:000015a8       __GUID_0002e012_0000_0000_c000_000000000046 100215a8     Scale.obj
 0002:000015b8       ??_C@_1O@FHBGLCIO@?$AAC?$AAL?$AAS?$AAI?$AAD?$AA?2@ 100215b8     Scale.obj
 0002:000015c8       ??_C@_1CK@IFBKBFAA@?$AA?2?$AAR?$AAe?$AAq?$AAu?$AAi?$AAr?$AAe?$AAd?$AA?5?$AAC?$AAa?$AAt?$AAe?$AAg@ 100215c8     Scale.obj
 0002:000015f4       ??_C@_1DA@BIHALFED@?$AA?2?$AAI?$AAm?$AAp?$AAl?$AAe?$AAm?$AAe?$AAn?$AAt?$AAe?$AAd?$AA?5?$AAC?$AAa@ 100215f4     Scale.obj
 0002:00001624       ??_C@_1BK@EDKOLFBJ@?$AAO?$AAL?$AAE?$AAA?$AAU?$AAT?$AA3?$AA2?$AA?4?$AAD?$AAL?$AAL@ 10021624     Scale.obj
 0002:00001640       ??_C@_0BJ@CNLFOMHB@UnRegisterTypeLibForUser@ 10021640     Scale.obj
 0002:0000165c       ??_C@_0BH@LBOMMKPJ@RegisterTypeLibForUser@ 1002165c     Scale.obj
 0002:00001674       ??_C@_0P@MMNMMLGK@COFreezeEvents@ 10021674     ScaleImpl.obj
 0002:00001684       ??_C@_0BC@OGCGGIMP@GetPropertyNumber@ 10021684     ScaleImpl.obj
 0002:00001698       ??_C@_0BC@MDCNODNB@SetPropertyNumber@ 10021698     ScaleImpl.obj
 0002:000016ac       ??_C@_0BC@CFCCMIMD@GetPropertyString@ 100216ac     ScaleImpl.obj
 0002:000016c0       ??_C@_0BC@CJEDNN@SetPropertyString@ 100216c0     ScaleImpl.obj
 0002:000016d4       ??_C@_0M@LNPKKKDA@OpenService@ 100216d4     ScaleImpl.obj
 0002:000016e0       ??_C@_0M@PCMCHHMH@CheckHealth@ 100216e0     ScaleImpl.obj
 0002:000016ec       ??_C@_0M@JGMIDNEK@ClaimDevice@ 100216ec     ScaleImpl.obj
 0002:000016f8       ??_C@_0N@DDFIIBMP@CloseService@ 100216f8     ScaleImpl.obj
 0002:00001708       ??_C@_08EEIHICPC@DirectIO@ 10021708     ScaleImpl.obj
 0002:00001714       ??_C@_0O@BCPMENMJ@ReleaseDevice@ 10021714     ScaleImpl.obj
 0002:00001724       ??_C@_0L@BNNCGLFI@ReadWeight@ 10021724     ScaleImpl.obj
 0002:00001730       ??_C@_0L@BNEIFEJC@ClearInput@ 10021730     ScaleImpl.obj
 0002:0000173c       ??_C@_0O@IFKMCDDH@GetSalesPrice@ 1002173c     ScaleImpl.obj
 0002:0000174c       ??_C@_0N@EJMJKFDP@GetUnitPrice@ 1002174c     ScaleImpl.obj
 0002:0000175c       ??_C@_0N@DNHHGJHD@SetUnitPrice@ 1002175c     ScaleImpl.obj
 0002:0000176c       ??_C@_0M@CHHJKFGA@DisplayText@ 1002176c     ScaleImpl.obj
 0002:00001778       ??_C@_09LJGJKFAG@ZeroScale@ 10021778     ScaleImpl.obj
 0002:00001784       ??_C@_0BA@GFABKEEE@ResetStatistics@ 10021784     ScaleImpl.obj
 0002:00001794       ??_C@_0BD@DPALHJGC@RetrieveStatistics@ 10021794     ScaleImpl.obj
 0002:000017a8       ??_C@_0BB@KOHIKNFC@UpdateStatistics@ 100217a8     ScaleImpl.obj
 0002:000017bc       ??_C@_0BH@PBKBNMGB@CompareFirmwareVersion@ 100217bc     ScaleImpl.obj
 0002:000017d4       ??_C@_0P@FBPDPIPA@UpdateFirmware@ 100217d4     ScaleImpl.obj
 0002:000017e4       ??_C@_0BD@GEMLLFJD@DoPriceCalculating@ 100217e4     ScaleImpl.obj
 0002:000017f8       ??_C@_0M@HNNLONIC@FreezeValue@ 100217f8     ScaleImpl.obj
 0002:00001804       ??_C@_0BH@DLLMBNFC@ReadLiveWeightWithTare@ 10021804     ScaleImpl.obj
 0002:0000181c       ??_C@_0BI@HLCJOBDD@SetPriceCalculationMode@ 1002181c     ScaleImpl.obj
 0002:00001834       ??_C@_0P@LOLJMEAO@SetSpecialTare@ 10021834     ScaleImpl.obj
 0002:00001844       ??_C@_0BA@IIHJDMLL@SetTarePriority@ 10021844     ScaleImpl.obj
 0002:00001854       ??_C@_0BL@IMFEOHKA@SetUnitPriceWithWeightUnit@ 10021854     ScaleImpl.obj
 0002:00001870       ??_7?$CProxy_IOPOSEvents@VCOPOSScale@@@@6B@ 10021870     ScaleImpl.obj
 0002:00001890       ??_C@_1BA@IFHENID@?$AA?$FL?$AAE?$AAr?$AAr?$AAo?$AAr?$AA?$FN@ 10021890     ScaleImpl.obj
 0002:000018a0       ??_C@_0CI@KKEBJNPN@SOFTWARE?2OLEforRetail?2ServiceOP@ 100218a0     ScaleImpl.obj
 0002:000018c8       ??_C@_1M@IAIJHCCH@?$AAC?$AAl?$AAo?$AAs?$AAe@ 100218c8     ScaleImpl.obj
 0002:000018d4       ??_C@_1M@PCPKGJAH@?$AAC?$AAl?$AAa?$AAi?$AAm@ 100218d4     ScaleImpl.obj
 0002:000018e0       ??_C@_1BA@NDFKIOCP@?$AAR?$AAe?$AAl?$AAe?$AAa?$AAs?$AAe@ 100218e0     ScaleImpl.obj
 0002:000018f0       ??_C@_05MAGIBEFI@Scale@    100218f0     ScaleImpl.obj
 0002:000018f8       ??_C@_1BM@IJMNMBPK@?$AAG?$AAe?$AAt?$AAO?$AAp?$AAe?$AAn?$AAR?$AAe?$AAs?$AAu?$AAl?$AAt@ 100218f8     ScaleImpl.obj
 0002:00001914       _IID_IPropertyNotifySink   10021914     uuid:ocidl_i.obj
 0002:00001924       _GUID_NULL                 10021924     uuid:cguid_i.obj
 0002:00001934       _CLSID_StdGlobalInterfaceTable 10021934     uuid:cguid_i.obj
 0002:00001944       _IID_IDispatch             10021944     uuid:oaidl_i.obj
 0002:00001954       _CLSID_StdComponentCategoriesMgr 10021954     uuid:ieguids.obj
 0002:00001964       _IID_IUnknown              10021964     uuid:unknwn_i.obj
 0002:00001978       ??_C@_1EC@JIJBPKFM@?$AAa?$AAp?$AAi?$AA?9?$AAm?$AAs?$AA?9?$AAw?$AAi?$AAn?$AA?9?$AAc?$AAo?$AAr?$AAe@ 10021978     LIBCMT:thread_safe_statics.obj
 0002:000019bc       ??_C@_1BK@MGMFAEKH@?$AAk?$AAe?$AAr?$AAn?$AAe?$AAl?$AA3?$AA2?$AA?4?$AAd?$AAl?$AAl@ 100219bc     LIBCMT:thread_safe_statics.obj
 0002:000019d8       ??_C@_0BJ@JEBJOJFJ@SleepConditionVariableCS@ 100219d8     LIBCMT:thread_safe_statics.obj
 0002:000019f4       ??_C@_0BJ@PGPPEPCC@WakeAllConditionVariable@ 100219f4     LIBCMT:thread_safe_statics.obj
 0002:00001a0d       ?nothrow@std@@3Unothrow_t@1@B 10021a0d     LIBCMT:std_nothrow.obj
 0002:00001a18       __pDefaultRawDllMain       10021a18     LIBCMT:dll_dllmain.obj
 0002:00001a18       __pRawDllMain              10021a18     LIBCMT:dll_dllmain.obj
 0002:00001a20       ??_7exception@std@@6B@     10021a20     LIBCMT:throw_bad_alloc.obj
 0002:00001a28       ??_C@_0BC@EOODALEL@Unknown?5exception@ 10021a28     LIBCMT:throw_bad_alloc.obj
 0002:00001a40       ??_7bad_alloc@std@@6B@     10021a40     LIBCMT:throw_bad_alloc.obj
 0002:00001a48       ??_C@_0P@GHFPNOJB@bad?5allocation@ 10021a48     LIBCMT:throw_bad_alloc.obj
 0002:00001a5c       ??_7bad_array_new_length@std@@6B@ 10021a5c     LIBCMT:throw_bad_alloc.obj
 0002:00001a64       ??_C@_0BF@KINCDENJ@bad?5array?5new?5length@ 10021a64     LIBCMT:throw_bad_alloc.obj
 0002:00001a80       ??_7type_info@@6B@         10021a80     LIBCMT:std_type_info_static.obj
 0002:00001a84       _GUID_ATLVer110            10021a84     atls:atlbase.obj
 0002:00001a98       ??_C@_1IC@ONKHOIDK@?$AAE?$AAR?$AAR?$AAO?$AAR?$AA?5?$AA?3?$AA?5?$AAU?$AAn?$AAa?$AAb?$AAl?$AAe?$AA?5@ 10021a98     atls:atlbase.obj
 0002:00001b1c       ??_C@_0N@FJEPLCIH@atlthunk?4dll@ 10021b1c     atls:atlthunk.obj
 0002:00001b2c       ??_C@_0BG@GAKFHCBM@AtlThunk_AllocateData@ 10021b2c     atls:atlthunk.obj
 0002:00001b44       ??_C@_0BC@JKONFIAH@AtlThunk_InitData@ 10021b44     atls:atlthunk.obj
 0002:00001b58       ??_C@_0BE@IAOEELAK@AtlThunk_DataToCode@ 10021b58     atls:atlthunk.obj
 0002:00001b6c       ??_C@_0BC@GBGKAIPI@AtlThunk_FreeData@ 10021b6c     atls:atlthunk.obj
 0002:00001b80       __pDestructExceptionObject 10021b80     libvcruntime:ehhelpers.obj
 0002:00001b88       ??_7bad_exception@std@@6B@ 10021b88     libvcruntime:frame.obj
 0002:00001b90       ??_C@_0O@DPKOEFFH@bad?5exception@ 10021b90     libvcruntime:frame.obj
 0002:00001f20       ??_C@_08EHJDFFNH@__based?$CI@ 10021f20     libvcruntime:undname.obj
 0002:00001f2c       ??_C@_07KOLFKCDI@__cdecl@  10021f2c     libvcruntime:undname.obj
 0002:00001f34       ??_C@_08GHMPAG@__pascal@   10021f34     libvcruntime:undname.obj
 0002:00001f40       ??_C@_09IFJBGAPI@__stdcall@ 10021f40     libvcruntime:undname.obj
 0002:00001f4c       ??_C@_0L@NPHFGOKO@__thiscall@ 10021f4c     libvcruntime:undname.obj
 0002:00001f58       ??_C@_0L@JMKHOMEK@__fastcall@ 10021f58     libvcruntime:undname.obj
 0002:00001f64       ??_C@_0N@BCKKPABJ@__vectorcall@ 10021f64     libvcruntime:undname.obj
 0002:00001f74       ??_C@_09HIJEGCPM@__clrcall@ 10021f74     libvcruntime:undname.obj
 0002:00001f80       ??_C@_06GHPCKEAG@__eabi@   10021f80     libvcruntime:undname.obj
 0002:00001f88       ??_C@_09IOPIDJLG@__swift_1@ 10021f88     libvcruntime:undname.obj
 0002:00001f94       ??_C@_09KFNFGKHF@__swift_2@ 10021f94     libvcruntime:undname.obj
 0002:00001fa0       ??_C@_07JOMMBBKO@__ptr64@  10021fa0     libvcruntime:undname.obj
 0002:00001fa8       ??_C@_0L@PILCLIHE@__restrict@ 10021fa8     libvcruntime:undname.obj
 0002:00001fb4       ??_C@_0M@GFIIJFMG@__unaligned@ 10021fb4     libvcruntime:undname.obj
 0002:00001fc0       ??_C@_09DHDLOLLB@restrict?$CI@ 10021fc0     libvcruntime:undname.obj
 0002:00001fca       ??_C@_00CNPNBAHC@@         10021fca     libvcruntime:undname.obj
 0002:00001fcc       ??_C@_04NIHEBCM@?5new@     10021fcc     libvcruntime:undname.obj
 0002:00001fd4       ??_C@_07FPCDHGMM@?5delete@ 10021fd4     libvcruntime:undname.obj
 0002:00001fdc       ??_C@_01NEMOKFLO@?$DN@     10021fdc     libvcruntime:undname.obj
 0002:00001fe0       ??_C@_02GPIOPFAK@?$DO?$DO@ 10021fe0     libvcruntime:undname.obj
 0002:00001fe4       ??_C@_02FODMEDOG@?$DM?$DM@ 10021fe4     libvcruntime:undname.obj
 0002:00001fe8       ??_C@_01DCLJPIOD@?$CB@     10021fe8     libvcruntime:undname.obj
 0002:00001fec       ??_C@_02EGOFBIJA@?$DN?$DN@ 10021fec     libvcruntime:undname.obj
 0002:00001ff0       ??_C@_02FDNJECIE@?$CB?$DN@ 10021ff0     libvcruntime:undname.obj
 0002:00001ff4       ??_C@_02GPECMEKF@?$FL?$FN@ 10021ff4     libvcruntime:undname.obj
 0002:00001ff8       ??_C@_08LHJFAFGD@operator@ 10021ff8     libvcruntime:undname.obj
 0002:00002004       ??_C@_02HBOOOICD@?9?$DO@   10022004     libvcruntime:undname.obj
 0002:00002008       ??_C@_01NBENCBCI@?$CK@     10022008     libvcruntime:undname.obj
 0002:0000200c       ??_C@_02ECNGHCIF@?$CL?$CL@ 1002200c     libvcruntime:undname.obj
 0002:00002010       ??_C@_02BAABKJLB@?9?9@     10022010     libvcruntime:undname.obj
 0002:00002014       ??_C@_01JOAMLHOP@?9@       10022014     libvcruntime:undname.obj
 0002:00002018       ??_C@_01MIFGBAGJ@?$CL@     10022018     libvcruntime:undname.obj
 0002:0000201c       ??_C@_01HNPIGOCE@?$CG@     1002201c     libvcruntime:undname.obj
 0002:00002020       ??_C@_03MNHNFDLC@?9?$DO?$CK@ 10022020     libvcruntime:undname.obj
 0002:00002024       ??_C@_01KMDKNFGN@?1@       10022024     libvcruntime:undname.obj
 0002:00002028       ??_C@_01FGNFDNOH@?$CF@     10022028     libvcruntime:undname.obj
 0002:0000202c       ??_C@_01MNNFJEPP@?$DM@     1002202c     libvcruntime:undname.obj
 0002:00002030       ??_C@_02EHCHHCKH@?$DM?$DN@ 10022030     libvcruntime:undname.obj
 0002:00002034       ??_C@_01PPODPGHN@?$DO@     10022034     libvcruntime:undname.obj
 0002:00002038       ??_C@_02EEKDKGMJ@?$DO?$DN@ 10022038     libvcruntime:undname.obj
 0002:0000203c       ??_C@_01IHBHIGKO@?0@       1002203c     libvcruntime:undname.obj
 0002:00002040       ??_C@_02HCKGKOFO@?$CI?$CJ@ 10022040     libvcruntime:undname.obj
 0002:00002044       ??_C@_01PJKLJHI@?$HO@      10022044     libvcruntime:undname.obj
 0002:00002048       ??_C@_01JKBOJNNK@?$FO@     10022048     libvcruntime:undname.obj
 0002:0000204c       ??_C@_01DNKMNLPK@?$HM@     1002204c     libvcruntime:undname.obj
 0002:00002050       ??_C@_02PPKAJPJL@?$CG?$CG@ 10022050     libvcruntime:undname.obj
 0002:00002054       ??_C@_02NONPIBCD@?$HM?$HM@ 10022054     libvcruntime:undname.obj
 0002:00002058       ??_C@_02FPIMKNGF@?$CK?$DN@ 10022058     libvcruntime:undname.obj
 0002:0000205c       ??_C@_02FOEOMHFC@?$CL?$DN@ 1002205c     libvcruntime:undname.obj
 0002:00002060       ??_C@_02FKMDLLOA@?9?$DN@   10022060     libvcruntime:undname.obj
 0002:00002064       ??_C@_02FJEHGPIO@?1?$DN@   10022064     libvcruntime:undname.obj
 0002:00002068       ??_C@_02FENAOKFI@?$CF?$DN@ 10022068     libvcruntime:undname.obj
 0002:0000206c       ??_C@_03IKFCCPFF@?$DO?$DO?$DN@ 1002206c     libvcruntime:undname.obj
 0002:00002070       ??_C@_03CDNPDDLA@?$DM?$DM?$DN@ 10022070     libvcruntime:undname.obj
 0002:00002074       ??_C@_02FGJGFEAB@?$CG?$DN@ 10022074     libvcruntime:undname.obj
 0002:00002078       ??_C@_02DHLNPPGH@?$HM?$DN@ 10022078     libvcruntime:undname.obj
 0002:0000207c       ??_C@_02MHEGNOJ@?$FO?$DN@  1002207c     libvcruntime:undname.obj
 0002:00002080       ??_C@_09IFPLHPGF@?$GAvftable?8@ 10022080     libvcruntime:undname.obj
 0002:0000208c       ??_C@_09BLBHBJP@?$GAvbtable?8@ 1002208c     libvcruntime:undname.obj
 0002:00002098       ??_C@_07FEEIOKP@?$GAvcall?8@ 10022098     libvcruntime:undname.obj
 0002:000020a0       ??_C@_08LLFFHHDJ@?$GAtypeof?8@ 100220a0     libvcruntime:undname.obj
 0002:000020ac       ??_C@_0BF@KDPPACIK@?$GAlocal?5static?5guard?8@ 100220ac     libvcruntime:undname.obj
 0002:000020c4       ??_C@_08OBABFOLI@?$GAstring?8@ 100220c4     libvcruntime:undname.obj
 0002:000020d0       ??_C@_0BD@JDLKDPAB@?$GAvbase?5destructor?8@ 100220d0     libvcruntime:undname.obj
 0002:000020e4       ??_C@_0BN@DEGPLNFK@?$GAvector?5deleting?5destructor?8@ 100220e4     libvcruntime:undname.obj
 0002:00002104       ??_C@_0BO@OBMKPJIG@?$GAdefault?5constructor?5closure?8@ 10022104     libvcruntime:undname.obj
 0002:00002124       ??_C@_0BN@IMDCHIKM@?$GAscalar?5deleting?5destructor?8@ 10022124     libvcruntime:undname.obj
 0002:00002144       ??_C@_0BO@PFGOCPJJ@?$GAvector?5constructor?5iterator?8@ 10022144     libvcruntime:undname.obj
 0002:00002164       ??_C@_0BN@LFPFMEDL@?$GAvector?5destructor?5iterator?8@ 10022164     libvcruntime:undname.obj
 0002:00002184       ??_C@_0CE@IKBNEHA@?$GAvector?5vbase?5constructor?5itera@ 10022184     libvcruntime:undname.obj
 0002:000021a8       ??_C@_0BL@NILFHHPC@?$GAvirtual?5displacement?5map?8@ 100221a8     libvcruntime:undname.obj
 0002:000021c4       ??_C@_0CB@JONCMFFK@?$GAeh?5vector?5constructor?5iterator@ 100221c4     libvcruntime:undname.obj
 0002:000021e8       ??_C@_0CA@GCEOPDGL@?$GAeh?5vector?5destructor?5iterator?8@ 100221e8     libvcruntime:undname.obj
 0002:00002208       ??_C@_0CH@OOJPLCPH@?$GAeh?5vector?5vbase?5constructor?5it@ 10022208     libvcruntime:undname.obj
 0002:00002230       ??_C@_0BL@LLKPOHJI@?$GAcopy?5constructor?5closure?8@ 10022230     libvcruntime:undname.obj
 0002:0000224c       ??_C@_0BA@KBCDOMBN@?$GAudt?5returning?8@ 1002224c     libvcruntime:undname.obj
 0002:0000225c       ??_C@_03KLGMFNMG@?$GAEH@   1002225c     libvcruntime:undname.obj
 0002:00002260       ??_C@_05KHLCHHI@?$GARTTI@  10022260     libvcruntime:undname.obj
 0002:00002268       ??_C@_0BA@KKLDJDLB@?$GAlocal?5vftable?8@ 10022268     libvcruntime:undname.obj
 0002:00002278       ??_C@_0CE@IIHCMGGL@?$GAlocal?5vftable?5constructor?5clos@ 10022278     libvcruntime:undname.obj
 0002:0000229c       ??_C@_06FHBGPFGH@?5new?$FL?$FN@ 1002229c     libvcruntime:undname.obj
 0002:000022a4       ??_C@_09LBNFPBCA@?5delete?$FL?$FN@ 100222a4     libvcruntime:undname.obj
 0002:000022b0       ??_C@_0P@HJKNJFNN@?$GAomni?5callsig?8@ 100222b0     libvcruntime:undname.obj
 0002:000022c0       ??_C@_0BL@CNOONJFP@?$GAplacement?5delete?5closure?8@ 100222c0     libvcruntime:undname.obj
 0002:000022dc       ??_C@_0BN@CKNJLHMB@?$GAplacement?5delete?$FL?$FN?5closure?8@ 100222dc     libvcruntime:undname.obj
 0002:000022fc       ??_C@_0CG@CFDHKGGD@?$GAmanaged?5vector?5constructor?5ite@ 100222fc     libvcruntime:undname.obj
 0002:00002324       ??_C@_0CF@IMGKMJNO@?$GAmanaged?5vector?5destructor?5iter@ 10022324     libvcruntime:undname.obj
 0002:0000234c       ??_C@_0CG@HLDDJMAG@?$GAeh?5vector?5copy?5constructor?5ite@ 1002234c     libvcruntime:undname.obj
 0002:00002374       ??_C@_0CM@FCBBDIGB@?$GAeh?5vector?5vbase?5copy?5construct@ 10022374     libvcruntime:undname.obj
 0002:000023a0       ??_C@_0BL@CLIPGLGB@?$GAdynamic?5initializer?5for?5?8@ 100223a0     libvcruntime:undname.obj
 0002:000023bc       ??_C@_0CB@PDBIFEP@?$GAdynamic?5atexit?5destructor?5for?5@ 100223bc     libvcruntime:undname.obj
 0002:000023e0       ??_C@_0CD@CGAJBKEJ@?$GAvector?5copy?5constructor?5iterat@ 100223e0     libvcruntime:undname.obj
 0002:00002404       ??_C@_0CJ@GJELGAMM@?$GAvector?5vbase?5copy?5constructor?5@ 10022404     libvcruntime:undname.obj
 0002:00002430       ??_C@_0CL@FGIJHLCE@?$GAmanaged?5vector?5copy?5constructo@ 10022430     libvcruntime:undname.obj
 0002:0000245c       ??_C@_0BM@PMGGMLDN@?$GAlocal?5static?5thread?5guard?8@ 1002245c     libvcruntime:undname.obj
 0002:00002478       ??_C@_0N@BDNMDMOL@operator?5?$CC?$CC?5@ 10022478     libvcruntime:undname.obj
 0002:00002488       ??_C@_0BC@GGEBGALA@operator?5co_await@ 10022488     libvcruntime:undname.obj
 0002:0000249c       ??_C@_0M@GAAIMMOH@operator?$DM?$DN?$DO@ 1002249c     libvcruntime:undname.obj
 0002:000024a8       ??_C@_0BC@DAFEJGAK@?5Type?5Descriptor?8@ 100224a8     libvcruntime:undname.obj
 0002:000024bc       ??_C@_0BM@LDKODKLH@?5Base?5Class?5Descriptor?5at?5?$CI@ 100224bc     libvcruntime:undname.obj
 0002:000024d8       ??_C@_0BD@LGICGFMM@?5Base?5Class?5Array?8@ 100224d8     libvcruntime:undname.obj
 0002:000024ec       ??_C@_0BN@MECKDCOJ@?5Class?5Hierarchy?5Descriptor?8@ 100224ec     libvcruntime:undname.obj
 0002:0000250c       ??_C@_0BK@CFCOFLF@?5Complete?5Object?5Locator?8@ 1002250c     libvcruntime:undname.obj
 0002:00002528       ??_C@_0BG@JNJLAMPM@?$GAanonymous?5namespace?8@ 10022528     libvcruntime:undname.obj
 0002:0000254c       ??_C@_1DM@KHCHBNEB@?$AAa?$AAp?$AAi?$AA?9?$AAm?$AAs?$AA?9?$AAw?$AAi?$AAn?$AA?9?$AAc?$AAo?$AAr?$AAe@ 1002254c     libvcruntime:winapi_downlevel.obj
 0002:00002588       ??_C@_1DK@LPPGFMPP@?$AAa?$AAp?$AAi?$AA?9?$AAm?$AAs?$AA?9?$AAw?$AAi?$AAn?$AA?9?$AAc?$AAo?$AAr?$AAe@ 10022588     libvcruntime:winapi_downlevel.obj
 0002:000025c4       ??_C@_1BC@GDMECMAK@?$AAk?$AAe?$AAr?$AAn?$AAe?$AAl?$AA3?$AA2@ 100225c4     libvcruntime:winapi_downlevel.obj
 0002:000025d8       ??_C@_1BA@PFFKHIOG@?$AAa?$AAp?$AAi?$AA?9?$AAm?$AAs?$AA?9@ 100225d8     libvcruntime:winapi_downlevel.obj
 0002:000025f0       ??_C@_08KNHFBNJ@FlsAlloc@  100225f0     libvcruntime:winapi_downlevel.obj
 0002:00002604       ??_C@_07PEJMOBNF@FlsFree@  10022604     libvcruntime:winapi_downlevel.obj
 0002:00002614       ??_C@_0M@GDNOONDI@FlsGetValue@ 10022614     libvcruntime:winapi_downlevel.obj
 0002:00002628       ??_C@_0M@JCPCPOEF@FlsSetValue@ 10022628     libvcruntime:winapi_downlevel.obj
 0002:0000263c       ??_C@_0BM@HCFOFFN@InitializeCriticalSectionEx@ 1002263c     libvcruntime:winapi_downlevel.obj
 0002:000027c0       ?format_validation_lookup_table_spectre@__crt_stdio_output@@3V?$spectre_mitigated_lookup_table@Ustate_transition_pair@__crt_stdio_output@@$0IA@@1@B 100227c0     libucrt:output.obj
 0002:00002bc0       ??_C@_1O@CEDCILHN@?$AA?$CI?$AAn?$AAu?$AAl?$AAl?$AA?$CJ@ 10022bc0     libucrt:output.obj
 0002:00002bd0       ??_C@_06OJHGLDPL@?$CInull?$CJ@ 10022bd0     libucrt:output.obj
 0002:00002bd8       ___acrt_exception_action_table 10022bd8     libucrt:exception_filter.obj
 0002:00002c68       ___acrt_signal_action_table_count 10022c68     libucrt:exception_filter.obj
 0002:00002c6c       ___acrt_signal_action_first_fpe_index 10022c6c     libucrt:exception_filter.obj
 0002:00002c70       ___acrt_signal_action_fpe_count 10022c70     libucrt:exception_filter.obj
 0002:00002c74       ??_C@_1BI@BGOHAHKC@?$AAm?$AAs?$AAc?$AAo?$AAr?$AAe?$AAe?$AA?4?$AAd?$AAl?$AAl@ 10022c74     libucrt:exit.obj
 0002:00002c8c       ??_C@_0P@MIGLKIOC@CorExitProcess@ 10022c8c     libucrt:exit.obj
 0002:00002d70       ??_C@_1EA@JGEFHKEI@?$AAa?$AAp?$AAi?$AA?9?$AAm?$AAs?$AA?9?$AAw?$AAi?$AAn?$AA?9?$AAc?$AAo?$AAr?$AAe@ 10022d70     libucrt:winapi_thunks.obj
 0002:00002db0       ??_C@_1DI@IJCEHOCB@?$AAa?$AAp?$AAi?$AA?9?$AAm?$AAs?$AA?9?$AAw?$AAi?$AAn?$AA?9?$AAc?$AAo?$AAr?$AAe@ 10022db0     libucrt:winapi_thunks.obj
 0002:00002de8       ??_C@_1EI@MPIAOHOC@?$AAa?$AAp?$AAi?$AA?9?$AAm?$AAs?$AA?9?$AAw?$AAi?$AAn?$AA?9?$AAc?$AAo?$AAr?$AAe@ 10022de8     libucrt:winapi_thunks.obj
 0002:00002e30       ??_C@_1FK@FPHCKFIE@?$AAa?$AAp?$AAi?$AA?9?$AAm?$AAs?$AA?9?$AAw?$AAi?$AAn?$AA?9?$AAc?$AAo?$AAr?$AAe@ 10022e30     libucrt:winapi_thunks.obj
 0002:00002e90       ??_C@_1EM@DILCGIIO@?$AAa?$AAp?$AAi?$AA?9?$AAm?$AAs?$AA?9?$AAw?$AAi?$AAn?$AA?9?$AAc?$AAo?$AAr?$AAe@ 10022e90     libucrt:winapi_thunks.obj
 0002:00002edc       ??_C@_1DM@LNCGDDPN@?$AAa?$AAp?$AAi?$AA?9?$AAm?$AAs?$AA?9?$AAw?$AAi?$AAn?$AA?9?$AAc?$AAo?$AAr?$AAe@ 10022edc     libucrt:winapi_thunks.obj
 0002:00002f18       ??_C@_1DO@FPAPJEMD@?$AAa?$AAp?$AAi?$AA?9?$AAm?$AAs?$AA?9?$AAw?$AAi?$AAn?$AA?9?$AAc?$AAo?$AAr?$AAe@ 10022f18     libucrt:winapi_thunks.obj
 0002:00002f58       ??_C@_1DK@NDHNAHIO@?$AAa?$AAp?$AAi?$AA?9?$AAm?$AAs?$AA?9?$AAw?$AAi?$AAn?$AA?9?$AAc?$AAo?$AAr?$AAe@ 10022f58     libucrt:winapi_thunks.obj
 0002:00002f94       ??_C@_1DM@KGHDGBCM@?$AAa?$AAp?$AAi?$AA?9?$AAm?$AAs?$AA?9?$AAw?$AAi?$AAn?$AA?9?$AAc?$AAo?$AAr?$AAe@ 10022f94     libucrt:winapi_thunks.obj
 0002:00002fd0       ??_C@_1EO@IJIOEFOH@?$AAa?$AAp?$AAi?$AA?9?$AAm?$AAs?$AA?9?$AAw?$AAi?$AAn?$AA?9?$AAr?$AAt?$AAc?$AAo@ 10022fd0     libucrt:winapi_thunks.obj
 0002:00003020       ??_C@_1FG@HHGEKANL@?$AAa?$AAp?$AAi?$AA?9?$AAm?$AAs?$AA?9?$AAw?$AAi?$AAn?$AA?9?$AAs?$AAe?$AAc?$AAu@ 10023020     libucrt:winapi_thunks.obj
 0002:00003078       ??_C@_1EG@DBIOJECG@?$AAe?$AAx?$AAt?$AA?9?$AAm?$AAs?$AA?9?$AAw?$AAi?$AAn?$AA?9?$AAn?$AAt?$AAu?$AAs@ 10023078     libucrt:winapi_thunks.obj
 0002:000030c0       ??_C@_1EO@FIHMJCLF@?$AAe?$AAx?$AAt?$AA?9?$AAm?$AAs?$AA?9?$AAw?$AAi?$AAn?$AA?9?$AAn?$AAt?$AAu?$AAs@ 100230c0     libucrt:winapi_thunks.obj
 0002:00003110       ??_C@_1BC@DNHGCMLG@?$AAa?$AAd?$AAv?$AAa?$AAp?$AAi?$AA3?$AA2@ 10023110     libucrt:winapi_thunks.obj
 0002:00003124       ??_C@_1M@OAIMIKLP@?$AAn?$AAt?$AAd?$AAl?$AAl@ 10023124     libucrt:winapi_thunks.obj
 0002:00003130       ??_C@_1EG@DPGNFKGC@?$AAa?$AAp?$AAi?$AA?9?$AAm?$AAs?$AA?9?$AAw?$AAi?$AAn?$AA?9?$AAa?$AAp?$AAp?$AAm@ 10023130     libucrt:winapi_thunks.obj
 0002:00003178       ??_C@_1O@BCCLBEOE@?$AAu?$AAs?$AAe?$AAr?$AA3?$AA2@ 10023178     libucrt:winapi_thunks.obj
 0002:00003188       ??_C@_1BA@IAIFMGEF@?$AAe?$AAx?$AAt?$AA?9?$AAm?$AAs?$AA?9@ 10023188     libucrt:winapi_thunks.obj
 0002:0000319c       ??_C@_0BA@FHFNEAED@AreFileApisANSI@ 1002319c     libucrt:winapi_thunks.obj
 0002:000031dc       ??_C@_0O@KKBNKAPF@LCMapStringEx@ 100231dc     libucrt:winapi_thunks.obj
 0002:000031f4       ??_C@_0BB@HBDEELFH@LocaleNameToLCID@ 100231f4     libucrt:winapi_thunks.obj
 0002:0000320c       ??_C@_0CF@OJOFEIGO@AppPolicyGetProcessTerminationM@ 1002320c     libucrt:winapi_thunks.obj
 0002:0000323c       ??_C@_0BI@BKLFFAPO@SetThreadStackGuarantee@ 1002323c     libucrt:winapi_thunks.obj
 0002:00003298       ??_C@_03OEIAHPBN@INF@      10023298     libucrt:cvt.obj
 0002:0000329c       ??_C@_03OJHLLCGB@inf@      1002329c     libucrt:cvt.obj
 0002:000032a0       ??_C@_03LKNCIKJB@NAN@      100232a0     libucrt:cvt.obj
 0002:000032a4       ??_C@_03LHCJEHON@nan@      100232a4     libucrt:cvt.obj
 0002:000032a8       ??_C@_09OFJJIMPC@NAN?$CISNAN?$CJ@ 100232a8     libucrt:cvt.obj
 0002:000032b4       ??_C@_09IPFBKMDL@nan?$CIsnan?$CJ@ 100232b4     libucrt:cvt.obj
 0002:000032c0       ??_C@_08IKHNHAJ@NAN?$CIIND?$CJ@ 100232c0     libucrt:cvt.obj
 0002:000032cc       ??_C@_08OFCDMILK@nan?$CIind?$CJ@ 100232cc     libucrt:cvt.obj
 0002:000032d8       ??_C@_05KLBDPFGC@e?$CL000@ 100232d8     libucrt:cvt.obj
 0002:000032e0       ___lc_time_c               100232e0     libucrt:nlsdata.obj
 0002:00003444       ??_C@_03KOEHGMDN@Sun@      10023444     libucrt:nlsdata.obj
 0002:00003448       ??_C@_03PDAGKDH@Mon@       10023448     libucrt:nlsdata.obj
 0002:0000344c       ??_C@_03NAGEINEP@Tue@      1002344c     libucrt:nlsdata.obj
 0002:00003450       ??_C@_03MHOMLAJA@Wed@      10023450     libucrt:nlsdata.obj
 0002:00003454       ??_C@_03IOFIKPDN@Thu@      10023454     libucrt:nlsdata.obj
 0002:00003458       ??_C@_03IDIOELNC@Fri@      10023458     libucrt:nlsdata.obj
 0002:0000345c       ??_C@_03FEFJNEK@Sat@       1002345c     libucrt:nlsdata.obj
 0002:00003460       ??_C@_06OOPIFAJ@Sunday@    10023460     libucrt:nlsdata.obj
 0002:00003468       ??_C@_06JLEDEDGH@Monday@   10023468     libucrt:nlsdata.obj
 0002:00003470       ??_C@_07BAAGCFCM@Tuesday@  10023470     libucrt:nlsdata.obj
 0002:00003478       ??_C@_09DLIGFAKA@Wednesday@ 10023478     libucrt:nlsdata.obj
 0002:00003484       ??_C@_08HACCIKIA@Thursday@ 10023484     libucrt:nlsdata.obj
 0002:00003490       ??_C@_06JECMNKMI@Friday@   10023490     libucrt:nlsdata.obj
 0002:00003498       ??_C@_08INBOOONO@Saturday@ 10023498     libucrt:nlsdata.obj
 0002:000034a4       ??_C@_03JIHJHPIE@Jan@      100234a4     libucrt:nlsdata.obj
 0002:000034a8       ??_C@_03HJBDCHOM@Feb@      100234a8     libucrt:nlsdata.obj
 0002:000034ac       ??_C@_03ODNJBKGA@Mar@      100234ac     libucrt:nlsdata.obj
 0002:000034b0       ??_C@_03LEOLGMJP@Apr@      100234b0     libucrt:nlsdata.obj
 0002:000034b4       ??_C@_03CNMDKL@May@        100234b4     libucrt:nlsdata.obj
 0002:000034b8       ??_C@_03IDFGHECI@Jun@      100234b8     libucrt:nlsdata.obj
 0002:000034bc       ??_C@_03LBGABGKK@Jul@      100234bc     libucrt:nlsdata.obj
 0002:000034c0       ??_C@_03IFJFEIGA@Aug@      100234c0     libucrt:nlsdata.obj
 0002:000034c4       ??_C@_03GGCAPAJC@Sep@      100234c4     libucrt:nlsdata.obj
 0002:000034c8       ??_C@_03BMAOKBAD@Oct@      100234c8     libucrt:nlsdata.obj
 0002:000034cc       ??_C@_03JPJOFNIA@Nov@      100234cc     libucrt:nlsdata.obj
 0002:000034d0       ??_C@_03MKABNOCG@Dec@      100234d0     libucrt:nlsdata.obj
 0002:000034d4       ??_C@_07CGJPFGJA@January@  100234d4     libucrt:nlsdata.obj
 0002:000034dc       ??_C@_08GNJGEPFN@February@ 100234dc     libucrt:nlsdata.obj
 0002:000034e8       ??_C@_05HPCKOFNC@March@    100234e8     libucrt:nlsdata.obj
 0002:000034f0       ??_C@_05DMJDNLEJ@April@    100234f0     libucrt:nlsdata.obj
 0002:000034f8       ??_C@_04CNLMGBGM@June@     100234f8     libucrt:nlsdata.obj
 0002:00003500       ??_C@_04MIEPOIFP@July@     10023500     libucrt:nlsdata.obj
 0002:00003508       ??_C@_06LBBHFDDG@August@   10023508     libucrt:nlsdata.obj
 0002:00003510       ??_C@_09BHHEALKD@September@ 10023510     libucrt:nlsdata.obj
 0002:0000351c       ??_C@_07JJNFCEND@October@  1002351c     libucrt:nlsdata.obj
 0002:00003524       ??_C@_08HCHEGEOA@November@ 10023524     libucrt:nlsdata.obj
 0002:00003530       ??_C@_08EDHMEBNP@December@ 10023530     libucrt:nlsdata.obj
 0002:0000353c       ??_C@_02DEDBPAFC@AM@       1002353c     libucrt:nlsdata.obj
 0002:00003540       ??_C@_02CJNFDJBF@PM@       10023540     libucrt:nlsdata.obj
 0002:00003544       ??_C@_08BPBNCDIB@MM?1dd?1yy@ 10023544     libucrt:nlsdata.obj
 0002:00003550       ??_C@_0BE@CKGJFCPC@dddd?0?5MMMM?5dd?0?5yyyy@ 10023550     libucrt:nlsdata.obj
 0002:00003564       ??_C@_08JCCMCCIL@HH?3mm?3ss@ 10023564     libucrt:nlsdata.obj
 0002:00003570       ??_C@_17MBGCMIPB@?$AAS?$AAu?$AAn@ 10023570     libucrt:nlsdata.obj
 0002:00003578       ??_C@_17KBOMKBF@?$AAM?$AAo?$AAn@ 10023578     libucrt:nlsdata.obj
 0002:00003580       ??_C@_17BMKGEGOJ@?$AAT?$AAu?$AAe@ 10023580     libucrt:nlsdata.obj
 0002:00003588       ??_C@_17CJEDCEPE@?$AAW?$AAe?$AAd@ 10023588     libucrt:nlsdata.obj
 0002:00003590       ??_C@_17PDPHAADD@?$AAT?$AAh?$AAu@ 10023590     libucrt:nlsdata.obj
 0002:00003598       ??_C@_17HFOLPPLP@?$AAF?$AAr?$AAi@ 10023598     libucrt:nlsdata.obj
 0002:000035a0       ??_C@_17GGIBDPIH@?$AAS?$AAa?$AAt@ 100235a0     libucrt:nlsdata.obj
 0002:000035a8       ??_C@_1O@IHNHDHPB@?$AAS?$AAu?$AAn?$AAd?$AAa?$AAy@ 100235a8     libucrt:nlsdata.obj
 0002:000035b8       ??_C@_1O@MMNBFLIA@?$AAM?$AAo?$AAn?$AAd?$AAa?$AAy@ 100235b8     libucrt:nlsdata.obj
 0002:000035c8       ??_C@_1BA@ENFBFFEK@?$AAT?$AAu?$AAe?$AAs?$AAd?$AAa?$AAy@ 100235c8     libucrt:nlsdata.obj
 0002:000035d8       ??_C@_1BE@EBOGMDOH@?$AAW?$AAe?$AAd?$AAn?$AAe?$AAs?$AAd?$AAa?$AAy@ 100235d8     libucrt:nlsdata.obj
 0002:000035ec       ??_C@_1BC@HHMNLIHE@?$AAT?$AAh?$AAu?$AAr?$AAs?$AAd?$AAa?$AAy@ 100235ec     libucrt:nlsdata.obj
 0002:00003600       ??_C@_1O@PDICJHAG@?$AAF?$AAr?$AAi?$AAd?$AAa?$AAy@ 10023600     libucrt:nlsdata.obj
 0002:00003610       ??_C@_1BC@ENMNNPAJ@?$AAS?$AAa?$AAt?$AAu?$AAr?$AAd?$AAa?$AAy@ 10023610     libucrt:nlsdata.obj
 0002:00003624       ??_C@_17DKNBKCHM@?$AAJ?$AAa?$AAn@ 10023624     libucrt:nlsdata.obj
 0002:0000362c       ??_C@_17LMDJEKJN@?$AAF?$AAe?$AAb@ 1002362c     libucrt:nlsdata.obj
 0002:00003634       ??_C@_17CKNLEDEC@?$AAM?$AAa?$AAr@ 10023634     libucrt:nlsdata.obj
 0002:0000363c       ??_C@_17LFPOIHDD@?$AAA?$AAp?$AAr@ 1002363c     libucrt:nlsdata.obj
 0002:00003644       ??_C@_17PNNKMEED@?$AAM?$AAa?$AAy@ 10023644     libucrt:nlsdata.obj
 0002:0000364c       ??_C@_17KCJGOCPB@?$AAJ?$AAu?$AAn@ 1002364c     libucrt:nlsdata.obj
 0002:00003654       ??_C@_17IJPCKHK@?$AAJ?$AAu?$AAl@ 10023654     libucrt:nlsdata.obj
 0002:0000365c       ??_C@_17ICPELBCN@?$AAA?$AAu?$AAg@ 1002365c     libucrt:nlsdata.obj
 0002:00003664       ??_C@_17HCHCOKMG@?$AAS?$AAe?$AAp@ 10023664     libucrt:nlsdata.obj
 0002:0000366c       ??_C@_17FNLKOI@?$AAO?$AAc?$AAt@ 1002366c     libucrt:nlsdata.obj
 0002:00003674       ??_C@_17BBDMLCIG@?$AAN?$AAo?$AAv@ 10023674     libucrt:nlsdata.obj
 0002:0000367c       ??_C@_17EGKACKIF@?$AAD?$AAe?$AAc@ 1002367c     libucrt:nlsdata.obj
 0002:00003684       ??_C@_1BA@EFMEIEBA@?$AAJ?$AAa?$AAn?$AAu?$AAa?$AAr?$AAy@ 10023684     libucrt:nlsdata.obj
 0002:00003694       ??_C@_1BC@JGDDFFAM@?$AAF?$AAe?$AAb?$AAr?$AAu?$AAa?$AAr?$AAy@ 10023694     libucrt:nlsdata.obj
 0002:000036a8       ??_C@_1M@IKEENEDF@?$AAM?$AAa?$AAr?$AAc?$AAh@ 100236a8     libucrt:nlsdata.obj
 0002:000036b4       ??_C@_1M@GJNLMHFD@?$AAA?$AAp?$AAr?$AAi?$AAl@ 100236b4     libucrt:nlsdata.obj
 0002:000036c0       ??_C@_19EPFLPGAP@?$AAJ?$AAu?$AAn?$AAe@ 100236c0     libucrt:nlsdata.obj
 0002:000036cc       ??_C@_19BIFMLPCD@?$AAJ?$AAu?$AAl?$AAy@ 100236cc     libucrt:nlsdata.obj
 0002:000036d8       ??_C@_1O@PAHLKOAC@?$AAA?$AAu?$AAg?$AAu?$AAs?$AAt@ 100236d8     libucrt:nlsdata.obj
 0002:000036e8       ??_C@_1BE@DKAAMBJL@?$AAS?$AAe?$AAp?$AAt?$AAe?$AAm?$AAb?$AAe?$AAr@ 100236e8     libucrt:nlsdata.obj
 0002:000036fc       ??_C@_1BA@EPANDLNG@?$AAO?$AAc?$AAt?$AAo?$AAb?$AAe?$AAr@ 100236fc     libucrt:nlsdata.obj
 0002:0000370c       ??_C@_1BC@BGLIFPF@?$AAN?$AAo?$AAv?$AAe?$AAm?$AAb?$AAe?$AAr@ 1002370c     libucrt:nlsdata.obj
 0002:00003720       ??_C@_1BC@FEMKIFH@?$AAD?$AAe?$AAc?$AAe?$AAm?$AAb?$AAe?$AAr@ 10023720     libucrt:nlsdata.obj
 0002:00003734       ??_C@_15ODEHAHHF@?$AAA?$AAM@ 10023734     libucrt:nlsdata.obj
 0002:0000373c       ??_C@_15CLMNNGEL@?$AAP?$AAM@ 1002373c     libucrt:nlsdata.obj
 0002:00003744       ??_C@_1BC@IEBCMHCM@?$AAM?$AAM?$AA?1?$AAd?$AAd?$AA?1?$AAy?$AAy@ 10023744     libucrt:nlsdata.obj
 0002:00003758       ??_C@_1CI@KNAKOEBC@?$AAd?$AAd?$AAd?$AAd?$AA?0?$AA?5?$AAM?$AAM?$AAM?$AAM?$AA?5?$AAd?$AAd?$AA?0?$AA?5@ 10023758     libucrt:nlsdata.obj
 0002:00003780       ??_C@_1BC@GDGBMEMK@?$AAH?$AAH?$AA?3?$AAm?$AAm?$AA?3?$AAs?$AAs@ 10023780     libucrt:nlsdata.obj
 0002:00003794       ??_C@_1M@BMHNFIME@?$AAe?$AAn?$AA?9?$AAU?$AAS@ 10023794     libucrt:nlsdata.obj
 0002:000037b0       ??_C@_1M@HPNHIDJI@?$AAj?$AAa?$AA?9?$AAJ?$AAP@ 100237b0     libucrt:mbctype.obj
 0002:000037bc       ??_C@_1M@BIBDDEMK@?$AAz?$AAh?$AA?9?$AAC?$AAN@ 100237bc     libucrt:mbctype.obj
 0002:000037c8       ??_C@_1M@JLOOOEGK@?$AAk?$AAo?$AA?9?$AAK?$AAR@ 100237c8     libucrt:mbctype.obj
 0002:000037d4       ??_C@_1M@CLNBBOPM@?$AAz?$AAh?$AA?9?$AAT?$AAW@ 100237d4     libucrt:mbctype.obj
 0002:000037e0       ___newctype                100237e0     libucrt:ctype.obj
 0002:00003ae0       ___newclmap                10023ae0     libucrt:ctype.obj
 0002:00003c60       ___newcumap                10023c60     libucrt:ctype.obj
 0002:00003de0       __wctype                   10023de0     libucrt:ctype.obj
 0002:00004708       ??_C@_15EMKDOKLE@?$AAa?$AAr@ 10024708     libucrt:lcidtoname_downlevel.obj
 0002:00004710       ??_C@_15KNPADPLH@?$AAb?$AAg@ 10024710     libucrt:lcidtoname_downlevel.obj
 0002:00004718       ??_C@_15EDMHLDMO@?$AAc?$AAa@ 10024718     libucrt:lcidtoname_downlevel.obj
 0002:00004720       ??_C@_1O@BPEAJADD@?$AAz?$AAh?$AA?9?$AAC?$AAH?$AAS@ 10024720     libucrt:lcidtoname_downlevel.obj
 0002:00004730       ??_C@_15LJNHCMNK@?$AAc?$AAs@ 10024730     libucrt:lcidtoname_downlevel.obj
 0002:00004738       ??_C@_15FOMCIDHG@?$AAd?$AAa@ 10024738     libucrt:lcidtoname_downlevel.obj
 0002:00004740       ??_C@_15NBKABECB@?$AAd?$AAe@ 10024740     libucrt:lcidtoname_downlevel.obj
 0002:00004748       ??_C@_15GHPEIIAO@?$AAe?$AAl@ 10024748     libucrt:lcidtoname_downlevel.obj
 0002:00004750       ??_C@_15MNPNEAIF@?$AAe?$AAn@ 10024750     libucrt:lcidtoname_downlevel.obj
 0002:00004758       ??_C@_15GPIOMPMH@?$AAe?$AAs@ 10024758     libucrt:lcidtoname_downlevel.obj
 0002:00004760       ??_C@_15NGLOAKJC@?$AAf?$AAi@ 10024760     libucrt:lcidtoname_downlevel.obj
 0002:00004768       ??_C@_15FBKGNKAM@?$AAf?$AAr@ 10024768     libucrt:lcidtoname_downlevel.obj
 0002:00004770       ??_C@_15KGGCNEFK@?$AAh?$AAe@ 10024770     libucrt:lcidtoname_downlevel.obj
 0002:00004778       ??_C@_15PGHLIDMF@?$AAh?$AAu@ 10024778     libucrt:lcidtoname_downlevel.obj
 0002:00004780       ??_C@_15BIEMAPLM@?$AAi?$AAs@ 10024780     libucrt:lcidtoname_downlevel.obj
 0002:00004788       ??_C@_15IFJLDHAF@?$AAi?$AAt@ 10024788     libucrt:lcidtoname_downlevel.obj
 0002:00004790       ??_C@_15GEMIOCAG@?$AAj?$AAa@ 10024790     libucrt:lcidtoname_downlevel.obj
 0002:00004798       ??_C@_15EPELEGJA@?$AAk?$AAo@ 10024798     libucrt:lcidtoname_downlevel.obj
 0002:000047a0       ??_C@_15NDDHIMN@?$AAn?$AAl@ 100247a0     libucrt:lcidtoname_downlevel.obj
 0002:000047a8       ??_C@_15BPIGNHCD@?$AAn?$AAo@ 100247a8     libucrt:lcidtoname_downlevel.obj
 0002:000047b0       ??_C@_15DEOPBLCG@?$AAp?$AAl@ 100247b0     libucrt:lcidtoname_downlevel.obj
 0002:000047b8       ??_C@_15KBECGEFG@?$AAp?$AAt@ 100247b8     libucrt:lcidtoname_downlevel.obj
 0002:000047c0       ??_C@_15GLJCBFMD@?$AAr?$AAo@ 100247c0     libucrt:lcidtoname_downlevel.obj
 0002:000047c8       ??_C@_15FEDGKCDI@?$AAr?$AAu@ 100247c8     libucrt:lcidtoname_downlevel.obj
 0002:000047d0       ??_C@_15GLKMLLHM@?$AAh?$AAr@ 100247d0     libucrt:lcidtoname_downlevel.obj
 0002:000047d8       ??_C@_15CPKMFBDB@?$AAs?$AAk@ 100247d8     libucrt:lcidtoname_downlevel.obj
 0002:000047e0       ??_C@_15BAAIOGMK@?$AAs?$AAq@ 100247e0     libucrt:lcidtoname_downlevel.obj
 0002:000047e8       ??_C@_15INNPNOHD@?$AAs?$AAv@ 100247e8     libucrt:lcidtoname_downlevel.obj
 0002:000047f0       ??_C@_15CABMMOGH@?$AAt?$AAh@ 100247f0     libucrt:lcidtoname_downlevel.obj
 0002:000047f8       ??_C@_15BPLIHJJM@?$AAt?$AAr@ 100247f8     libucrt:lcidtoname_downlevel.obj
 0002:00004800       ??_C@_15NEOEKKDJ@?$AAu?$AAr@ 10024800     libucrt:lcidtoname_downlevel.obj
 0002:00004808       ??_C@_15NFICGAJK@?$AAi?$AAd@ 10024808     libucrt:lcidtoname_downlevel.obj
 0002:00004810       ??_C@_15PJPFLCCM@?$AAu?$AAk@ 10024810     libucrt:lcidtoname_downlevel.obj
 0002:00004818       ??_C@_15HPJPHDM@?$AAb?$AAe@ 10024818     libucrt:lcidtoname_downlevel.obj
 0002:00004820       ??_C@_15LCHLGJII@?$AAs?$AAl@ 10024820     libucrt:lcidtoname_downlevel.obj
 0002:00004828       ??_C@_15PCFJPHHO@?$AAe?$AAt@ 10024828     libucrt:lcidtoname_downlevel.obj
 0002:00004830       ??_C@_15HPFPGODN@?$AAl?$AAv@ 10024830     libucrt:lcidtoname_downlevel.obj
 0002:00004838       ??_C@_15NFFGKGLG@?$AAl?$AAt@ 10024838     libucrt:lcidtoname_downlevel.obj
 0002:00004840       ??_C@_15BDAKCCHN@?$AAf?$AAa@ 10024840     libucrt:lcidtoname_downlevel.obj
 0002:00004848       ??_C@_15NFGIAIAJ@?$AAv?$AAi@ 10024848     libucrt:lcidtoname_downlevel.obj
 0002:00004850       ??_C@_15LMKNDMHN@?$AAh?$AAy@ 10024850     libucrt:lcidtoname_downlevel.obj
 0002:00004858       ??_C@_15IJBHMCFL@?$AAa?$AAz@ 10024858     libucrt:lcidtoname_downlevel.obj
 0002:00004860       ??_C@_15EKOFJABL@?$AAe?$AAu@ 10024860     libucrt:lcidtoname_downlevel.obj
 0002:00004868       ??_C@_15BGHADCNK@?$AAm?$AAk@ 10024868     libucrt:lcidtoname_downlevel.obj
 0002:00004870       ??_C@_15JDNICKHM@?$AAa?$AAf@ 10024870     libucrt:lcidtoname_downlevel.obj
 0002:00004878       ??_C@_15KPJEDBKD@?$AAk?$AAa@ 10024878     libucrt:lcidtoname_downlevel.obj
 0002:00004880       ??_C@_15PDNFFFEO@?$AAf?$AAo@ 10024880     libucrt:lcidtoname_downlevel.obj
 0002:00004888       ??_C@_15OMLEGLOC@?$AAh?$AAi@ 10024888     libucrt:lcidtoname_downlevel.obj
 0002:00004890       ??_C@_15IDNNENKK@?$AAm?$AAs@ 10024890     libucrt:lcidtoname_downlevel.obj
 0002:00004898       ??_C@_15MACJNBMH@?$AAk?$AAk@ 10024898     libucrt:lcidtoname_downlevel.obj
 0002:000048a0       ??_C@_15DKDJEOND@?$AAk?$AAy@ 100248a0     libucrt:lcidtoname_downlevel.obj
 0002:000048a8       ??_C@_15DFGDLJBG@?$AAs?$AAw@ 100248a8     libucrt:lcidtoname_downlevel.obj
 0002:000048b0       ??_C@_15BBFAICNG@?$AAu?$AAz@ 100248b0     libucrt:lcidtoname_downlevel.obj
 0002:000048b8       ??_C@_15DKNDCGEA@?$AAt?$AAt@ 100248b8     libucrt:lcidtoname_downlevel.obj
 0002:000048c0       ??_C@_15MGIFMDPL@?$AAp?$AAa@ 100248c0     libucrt:lcidtoname_downlevel.obj
 0002:000048c8       ??_C@_15HCNDBBA@?$AAg?$AAu@ 100248c8     libucrt:lcidtoname_downlevel.obj
 0002:000048d0       ??_C@_15FNBEIBON@?$AAt?$AAa@ 100248d0     libucrt:lcidtoname_downlevel.obj
 0002:000048d8       ??_C@_15NCHGBGLK@?$AAt?$AAe@ 100248d8     libucrt:lcidtoname_downlevel.obj
 0002:000048e0       ??_C@_15PHPHCBPF@?$AAk?$AAn@ 100248e0     libucrt:lcidtoname_downlevel.obj
 0002:000048e8       ??_C@_15DLGBCKMP@?$AAm?$AAr@ 100248e8     libucrt:lcidtoname_downlevel.obj
 0002:000048f0       ??_C@_15EABBLBFF@?$AAs?$AAa@ 100248f0     libucrt:lcidtoname_downlevel.obj
 0002:000048f8       ??_C@_15CBKOMCOI@?$AAm?$AAn@ 100248f8     libucrt:lcidtoname_downlevel.obj
 0002:00004900       ??_C@_15CKDMCJAF@?$AAg?$AAl@ 10024900     libucrt:lcidtoname_downlevel.obj
 0002:00004908       ??_C@_17CNJFBPG@?$AAk?$AAo?$AAk@ 10024908     libucrt:lcidtoname_downlevel.obj
 0002:00004910       ??_C@_17FFBJICPL@?$AAs?$AAy?$AAr@ 10024910     libucrt:lcidtoname_downlevel.obj
 0002:00004918       ??_C@_17KPNDCPAF@?$AAd?$AAi?$AAv@ 10024918     libucrt:lcidtoname_downlevel.obj
 0002:00004920       ??_C@_1M@OKAHONE@?$AAa?$AAr?$AA?9?$AAS?$AAA@ 10024920     libucrt:lcidtoname_downlevel.obj
 0002:0000492c       ??_C@_1M@FFFIGIGK@?$AAb?$AAg?$AA?9?$AAB?$AAG@ 1002492c     libucrt:lcidtoname_downlevel.obj
 0002:00004938       ??_C@_1M@BJNKEDC@?$AAc?$AAa?$AA?9?$AAE?$AAS@ 10024938     libucrt:lcidtoname_downlevel.obj
 0002:00004944       ??_C@_1M@IJJHFJHA@?$AAc?$AAs?$AA?9?$AAC?$AAZ@ 10024944     libucrt:lcidtoname_downlevel.obj
 0002:00004950       ??_C@_1M@CLPEOBGI@?$AAd?$AAa?$AA?9?$AAD?$AAK@ 10024950     libucrt:lcidtoname_downlevel.obj
 0002:0000495c       ??_C@_1M@MCMADGCB@?$AAd?$AAe?$AA?9?$AAD?$AAE@ 1002495c     libucrt:lcidtoname_downlevel.obj
 0002:00004968       ??_C@_1M@OOCKEMAM@?$AAe?$AAl?$AA?9?$AAG?$AAR@ 10024968     libucrt:lcidtoname_downlevel.obj
 0002:00004974       ??_C@_1M@DDNJFGID@?$AAf?$AAi?$AA?9?$AAF?$AAI@ 10024974     libucrt:lcidtoname_downlevel.obj
 0002:00004980       ??_C@_1M@GLIPPMAC@?$AAf?$AAr?$AA?9?$AAF?$AAR@ 10024980     libucrt:lcidtoname_downlevel.obj
 0002:0000498c       ??_C@_1M@GFMCHPE@?$AAh?$AAe?$AA?9?$AAI?$AAL@ 1002498c     libucrt:lcidtoname_downlevel.obj
 0002:00004998       ??_C@_1M@MHLPGNKM@?$AAh?$AAu?$AA?9?$AAH?$AAU@ 10024998     libucrt:lcidtoname_downlevel.obj
 0002:000049a4       ??_C@_1M@LPDDNNPN@?$AAi?$AAs?$AA?9?$AAI?$AAS@ 100249a4     libucrt:lcidtoname_downlevel.obj
 0002:000049b0       ??_C@_1M@MADIPODN@?$AAi?$AAt?$AA?9?$AAI?$AAT@ 100249b0     libucrt:lcidtoname_downlevel.obj
 0002:000049bc       ??_C@_1M@IHBJJGG@?$AAn?$AAl?$AA?9?$AAN?$AAL@ 100249bc     libucrt:lcidtoname_downlevel.obj
 0002:000049c8       ??_C@_1M@EANAGDL@?$AAn?$AAb?$AA?9?$AAN?$AAO@ 100249c8     libucrt:lcidtoname_downlevel.obj
 0002:000049d4       ??_C@_1M@NEIEMEGP@?$AAp?$AAl?$AA?9?$AAP?$AAL@ 100249d4     libucrt:lcidtoname_downlevel.obj
 0002:000049e0       ??_C@_1M@BOCFIGEP@?$AAp?$AAt?$AA?9?$AAB?$AAR@ 100249e0     libucrt:lcidtoname_downlevel.obj
 0002:000049ec       ??_C@_1M@IMPFOPBG@?$AAr?$AAo?$AA?9?$AAR?$AAO@ 100249ec     libucrt:lcidtoname_downlevel.obj
 0002:000049f8       ??_C@_1M@IDNNEJMM@?$AAr?$AAu?$AA?9?$AAR?$AAU@ 100249f8     libucrt:lcidtoname_downlevel.obj
 0002:00004a04       ??_C@_1M@LILEEOGM@?$AAh?$AAr?$AA?9?$AAH?$AAR@ 10024a04     libucrt:lcidtoname_downlevel.obj
 0002:00004a10       ??_C@_1M@FKIFEHPB@?$AAs?$AAk?$AA?9?$AAS?$AAK@ 10024a10     libucrt:lcidtoname_downlevel.obj
 0002:00004a1c       ??_C@_1M@LJMAMNPJ@?$AAs?$AAq?$AA?9?$AAA?$AAL@ 10024a1c     libucrt:lcidtoname_downlevel.obj
 0002:00004a28       ??_C@_1M@GIAKDKJK@?$AAs?$AAv?$AA?9?$AAS?$AAE@ 10024a28     libucrt:lcidtoname_downlevel.obj
 0002:00004a34       ??_C@_1M@MKJKIKCL@?$AAt?$AAh?$AA?9?$AAT?$AAH@ 10024a34     libucrt:lcidtoname_downlevel.obj
 0002:00004a40       ??_C@_1M@MFLCCMPB@?$AAt?$AAr?$AA?9?$AAT?$AAR@ 10024a40     libucrt:lcidtoname_downlevel.obj
 0002:00004a4c       ??_C@_1M@OIJHDKJN@?$AAu?$AAr?$AA?9?$AAP?$AAK@ 10024a4c     libucrt:lcidtoname_downlevel.obj
 0002:00004a58       ??_C@_1M@LHIPCIEK@?$AAi?$AAd?$AA?9?$AAI?$AAD@ 10024a58     libucrt:lcidtoname_downlevel.obj
 0002:00004a64       ??_C@_1M@MFMOBGI@?$AAu?$AAk?$AA?9?$AAU?$AAA@ 10024a64     libucrt:lcidtoname_downlevel.obj
 0002:00004a70       ??_C@_1M@OBGLJIPL@?$AAb?$AAe?$AA?9?$AAB?$AAY@ 10024a70     libucrt:lcidtoname_downlevel.obj
 0002:00004a7c       ??_C@_1M@BCFAJEAD@?$AAs?$AAl?$AA?9?$AAS?$AAI@ 10024a7c     libucrt:lcidtoname_downlevel.obj
 0002:00004a88       ??_C@_1M@FKFFEDDN@?$AAe?$AAt?$AA?9?$AAE?$AAE@ 10024a88     libucrt:lcidtoname_downlevel.obj
 0002:00004a94       ??_C@_1M@KGKKAACI@?$AAl?$AAv?$AA?9?$AAL?$AAV@ 10024a94     libucrt:lcidtoname_downlevel.obj
 0002:00004aa0       ??_C@_1M@IFGBIJO@?$AAl?$AAt?$AA?9?$AAL?$AAT@ 10024aa0     libucrt:lcidtoname_downlevel.obj
 0002:00004aac       ??_C@_1M@FGEAHEDM@?$AAf?$AAa?$AA?9?$AAI?$AAR@ 10024aac     libucrt:lcidtoname_downlevel.obj
 0002:00004ab8       ??_C@_1M@KBMAIBFN@?$AAv?$AAi?$AA?9?$AAV?$AAN@ 10024ab8     libucrt:lcidtoname_downlevel.obj
 0002:00004ac4       ??_C@_1M@GPCBKDJK@?$AAh?$AAy?$AA?9?$AAA?$AAM@ 10024ac4     libucrt:lcidtoname_downlevel.obj
 0002:00004ad0       ??_C@_1BG@BECMDDJB@?$AAa?$AAz?$AA?9?$AAA?$AAZ?$AA?9?$AAL?$AAa?$AAt?$AAn@ 10024ad0     libucrt:lcidtoname_downlevel.obj
 0002:00004ae8       ??_C@_1M@MAOFCAEA@?$AAe?$AAu?$AA?9?$AAE?$AAS@ 10024ae8     libucrt:lcidtoname_downlevel.obj
 0002:00004af4       ??_C@_1M@IGHABKPI@?$AAm?$AAk?$AA?9?$AAM?$AAK@ 10024af4     libucrt:lcidtoname_downlevel.obj
 0002:00004b00       ??_C@_1M@IAIGNEJG@?$AAt?$AAn?$AA?9?$AAZ?$AAA@ 10024b00     libucrt:lcidtoname_downlevel.obj
 0002:00004b0c       ??_C@_1M@IIJCOJFA@?$AAx?$AAh?$AA?9?$AAZ?$AAA@ 10024b0c     libucrt:lcidtoname_downlevel.obj
 0002:00004b18       ??_C@_1M@LGPJHNJH@?$AAz?$AAu?$AA?9?$AAZ?$AAA@ 10024b18     libucrt:lcidtoname_downlevel.obj
 0002:00004b24       ??_C@_1M@HOKAOIO@?$AAa?$AAf?$AA?9?$AAZ?$AAA@ 10024b24     libucrt:lcidtoname_downlevel.obj
 0002:00004b30       ??_C@_1M@DPCLHLIE@?$AAk?$AAa?$AA?9?$AAG?$AAE@ 10024b30     libucrt:lcidtoname_downlevel.obj
 0002:00004b3c       ??_C@_1M@BLKMHJBI@?$AAf?$AAo?$AA?9?$AAF?$AAO@ 10024b3c     libucrt:lcidtoname_downlevel.obj
 0002:00004b48       ??_C@_1M@LGGJAPPB@?$AAh?$AAi?$AA?9?$AAI?$AAN@ 10024b48     libucrt:lcidtoname_downlevel.obj
 0002:00004b54       ??_C@_1M@FIKPIHFE@?$AAm?$AAt?$AA?9?$AAM?$AAT@ 10024b54     libucrt:lcidtoname_downlevel.obj
 0002:00004b60       ??_C@_1M@HEGGPBFA@?$AAs?$AAe?$AA?9?$AAN?$AAO@ 10024b60     libucrt:lcidtoname_downlevel.obj
 0002:00004b6c       ??_C@_1M@EIBJEEPA@?$AAm?$AAs?$AA?9?$AAM?$AAY@ 10024b6c     libucrt:lcidtoname_downlevel.obj
 0002:00004b78       ??_C@_1M@FHLBGMPP@?$AAk?$AAk?$AA?9?$AAK?$AAZ@ 10024b78     libucrt:lcidtoname_downlevel.obj
 0002:00004b84       ??_C@_1M@NGJJLCGI@?$AAk?$AAy?$AA?9?$AAK?$AAG@ 10024b84     libucrt:lcidtoname_downlevel.obj
 0002:00004b90       ??_C@_1M@GIENNBFC@?$AAs?$AAw?$AA?9?$AAK?$AAE@ 10024b90     libucrt:lcidtoname_downlevel.obj
 0002:00004b9c       ??_C@_1BG@NDGMJIMJ@?$AAu?$AAz?$AA?9?$AAU?$AAZ?$AA?9?$AAL?$AAa?$AAt?$AAn@ 10024b9c     libucrt:lcidtoname_downlevel.obj
 0002:00004bb4       ??_C@_1M@IDCCIHBC@?$AAt?$AAt?$AA?9?$AAR?$AAU@ 10024bb4     libucrt:lcidtoname_downlevel.obj
 0002:00004bc0       ??_C@_1M@LOICPMOJ@?$AAb?$AAn?$AA?9?$AAI?$AAN@ 10024bc0     libucrt:lcidtoname_downlevel.obj
 0002:00004bcc       ??_C@_1M@KPKKNEAH@?$AAp?$AAa?$AA?9?$AAI?$AAN@ 10024bcc     libucrt:lcidtoname_downlevel.obj
 0002:00004bd8       ??_C@_1M@PJGPPBOG@?$AAg?$AAu?$AA?9?$AAI?$AAN@ 10024bd8     libucrt:lcidtoname_downlevel.obj
 0002:00004be4       ??_C@_1M@KMKMOPHI@?$AAt?$AAa?$AA?9?$AAI?$AAN@ 10024be4     libucrt:lcidtoname_downlevel.obj
 0002:00004bf0       ??_C@_1M@KFEHEPAC@?$AAt?$AAe?$AA?9?$AAI?$AAN@ 10024bf0     libucrt:lcidtoname_downlevel.obj
 0002:00004bfc       ??_C@_1M@CDCLMGHI@?$AAk?$AAn?$AA?9?$AAI?$AAN@ 10024bfc     libucrt:lcidtoname_downlevel.obj
 0002:00004c08       ??_C@_1M@MIODLDKF@?$AAm?$AAl?$AA?9?$AAI?$AAN@ 10024c08     libucrt:lcidtoname_downlevel.obj
 0002:00004c14       ??_C@_1M@PBIEACPO@?$AAm?$AAr?$AA?9?$AAI?$AAN@ 10024c14     libucrt:lcidtoname_downlevel.obj
 0002:00004c20       ??_C@_1M@NIDEAGPH@?$AAs?$AAa?$AA?9?$AAI?$AAN@ 10024c20     libucrt:lcidtoname_downlevel.obj
 0002:00004c2c       ??_C@_1M@FHIHCBIO@?$AAm?$AAn?$AA?9?$AAM?$AAN@ 10024c2c     libucrt:lcidtoname_downlevel.obj
 0002:00004c38       ??_C@_1M@JAIJPENP@?$AAc?$AAy?$AA?9?$AAG?$AAB@ 10024c38     libucrt:lcidtoname_downlevel.obj
 0002:00004c44       ??_C@_1M@PHGFBEPN@?$AAg?$AAl?$AA?9?$AAE?$AAS@ 10024c44     libucrt:lcidtoname_downlevel.obj
 0002:00004c50       ??_C@_1O@KPIPDNCP@?$AAk?$AAo?$AAk?$AA?9?$AAI?$AAN@ 10024c50     libucrt:lcidtoname_downlevel.obj
 0002:00004c60       ??_C@_1O@KNHJLDJA@?$AAs?$AAy?$AAr?$AA?9?$AAS?$AAY@ 10024c60     libucrt:lcidtoname_downlevel.obj
 0002:00004c70       ??_C@_1O@MKEKBLAH@?$AAd?$AAi?$AAv?$AA?9?$AAM?$AAV@ 10024c70     libucrt:lcidtoname_downlevel.obj
 0002:00004c80       ??_C@_1O@OHDCKDDF@?$AAq?$AAu?$AAz?$AA?9?$AAB?$AAO@ 10024c80     libucrt:lcidtoname_downlevel.obj
 0002:00004c90       ??_C@_1M@LEPJNLFD@?$AAn?$AAs?$AA?9?$AAZ?$AAA@ 10024c90     libucrt:lcidtoname_downlevel.obj
 0002:00004c9c       ??_C@_1M@OMLEIIJB@?$AAm?$AAi?$AA?9?$AAN?$AAZ@ 10024c9c     libucrt:lcidtoname_downlevel.obj
 0002:00004ca8       ??_C@_1M@PMPEAILG@?$AAa?$AAr?$AA?9?$AAI?$AAQ@ 10024ca8     libucrt:lcidtoname_downlevel.obj
 0002:00004cb4       ??_C@_1M@CNKPNOEE@?$AAd?$AAe?$AA?9?$AAC?$AAH@ 10024cb4     libucrt:lcidtoname_downlevel.obj
 0002:00004cc0       ??_C@_1M@LKMGMLKO@?$AAe?$AAn?$AA?9?$AAG?$AAB@ 10024cc0     libucrt:lcidtoname_downlevel.obj
 0002:00004ccc       ??_C@_1M@PGKJFFGL@?$AAe?$AAs?$AA?9?$AAM?$AAX@ 10024ccc     libucrt:lcidtoname_downlevel.obj
 0002:00004cd8       ??_C@_1M@DNNANBDC@?$AAf?$AAr?$AA?9?$AAB?$AAE@ 10024cd8     libucrt:lcidtoname_downlevel.obj
 0002:00004ce4       ??_C@_1M@HLGMDFHM@?$AAi?$AAt?$AA?9?$AAC?$AAH@ 10024ce4     libucrt:lcidtoname_downlevel.obj
 0002:00004cf0       ??_C@_1M@CLLBGJH@?$AAn?$AAl?$AA?9?$AAB?$AAE@ 10024cf0     libucrt:lcidtoname_downlevel.obj
 0002:00004cfc       ??_C@_1M@BODBOGLF@?$AAn?$AAn?$AA?9?$AAN?$AAO@ 10024cfc     libucrt:lcidtoname_downlevel.obj
 0002:00004d08       ??_C@_1M@HFFAHKAD@?$AAp?$AAt?$AA?9?$AAP?$AAT@ 10024d08     libucrt:lcidtoname_downlevel.obj
 0002:00004d14       ??_C@_1BG@LNOAKHIE@?$AAs?$AAr?$AA?9?$AAS?$AAP?$AA?9?$AAL?$AAa?$AAt?$AAn@ 10024d14     libucrt:lcidtoname_downlevel.obj
 0002:00004d2c       ??_C@_1M@HBMHBGAK@?$AAs?$AAv?$AA?9?$AAF?$AAI@ 10024d2c     libucrt:lcidtoname_downlevel.obj
 0002:00004d38       ??_C@_1BG@DGCJGJBE@?$AAa?$AAz?$AA?9?$AAA?$AAZ?$AA?9?$AAC?$AAy?$AAr?$AAl@ 10024d38     libucrt:lcidtoname_downlevel.obj
 0002:00004d50       ??_C@_1M@KEJDAAHB@?$AAs?$AAe?$AA?9?$AAS?$AAE@ 10024d50     libucrt:lcidtoname_downlevel.obj
 0002:00004d5c       ??_C@_1M@HEIBJJAD@?$AAm?$AAs?$AA?9?$AAB?$AAN@ 10024d5c     libucrt:lcidtoname_downlevel.obj
 0002:00004d68       ??_C@_1BG@PBGJMCEM@?$AAu?$AAz?$AA?9?$AAU?$AAZ?$AA?9?$AAC?$AAy?$AAr?$AAl@ 10024d68     libucrt:lcidtoname_downlevel.obj
 0002:00004d80       ??_C@_1O@LAOBCMDF@?$AAq?$AAu?$AAz?$AA?9?$AAE?$AAC@ 10024d80     libucrt:lcidtoname_downlevel.obj
 0002:00004d90       ??_C@_1M@POEEMAIO@?$AAa?$AAr?$AA?9?$AAE?$AAG@ 10024d90     libucrt:lcidtoname_downlevel.obj
 0002:00004d9c       ??_C@_1M@EFAKDEDL@?$AAz?$AAh?$AA?9?$AAH?$AAK@ 10024d9c     libucrt:lcidtoname_downlevel.obj
 0002:00004da8       ??_C@_1M@HKKIJHGI@?$AAd?$AAe?$AA?9?$AAA?$AAT@ 10024da8     libucrt:lcidtoname_downlevel.obj
 0002:00004db4       ??_C@_1M@KBFBEHJF@?$AAe?$AAn?$AA?9?$AAA?$AAU@ 10024db4     libucrt:lcidtoname_downlevel.obj
 0002:00004dc0       ??_C@_1M@MNPLFAAH@?$AAe?$AAs?$AA?9?$AAE?$AAS@ 10024dc0     libucrt:lcidtoname_downlevel.obj
 0002:00004dcc       ??_C@_1M@HJOOJFMA@?$AAf?$AAr?$AA?9?$AAC?$AAA@ 10024dcc     libucrt:lcidtoname_downlevel.obj
 0002:00004dd8       ??_C@_1BG@JPOFPNAB@?$AAs?$AAr?$AA?9?$AAS?$AAP?$AA?9?$AAC?$AAy?$AAr?$AAl@ 10024dd8     libucrt:lcidtoname_downlevel.obj
 0002:00004df0       ??_C@_1M@LNFOCMOB@?$AAs?$AAe?$AA?9?$AAF?$AAI@ 10024df0     libucrt:lcidtoname_downlevel.obj
 0002:00004dfc       ??_C@_1O@MGJBOAMB@?$AAq?$AAu?$AAz?$AA?9?$AAP?$AAE@ 10024dfc     libucrt:lcidtoname_downlevel.obj
 0002:00004e0c       ??_C@_1M@GJINLBOK@?$AAa?$AAr?$AA?9?$AAL?$AAY@ 10024e0c     libucrt:lcidtoname_downlevel.obj
 0002:00004e18       ??_C@_1M@GGMNHJNL@?$AAz?$AAh?$AA?9?$AAS?$AAG@ 10024e18     libucrt:lcidtoname_downlevel.obj
 0002:00004e24       ??_C@_1M@HOIKODND@?$AAd?$AAe?$AA?9?$AAL?$AAU@ 10024e24     libucrt:lcidtoname_downlevel.obj
 0002:00004e30       ??_C@_1M@DDOCCGFG@?$AAe?$AAn?$AA?9?$AAC?$AAA@ 10024e30     libucrt:lcidtoname_downlevel.obj
 0002:00004e3c       ??_C@_1M@BNOEMJLF@?$AAe?$AAs?$AA?9?$AAG?$AAT@ 10024e3c     libucrt:lcidtoname_downlevel.obj
 0002:00004e48       ??_C@_1M@EOGNKEK@?$AAf?$AAr?$AA?9?$AAC?$AAH@ 10024e48     libucrt:lcidtoname_downlevel.obj
 0002:00004e54       ??_C@_1M@FLIDJFHL@?$AAh?$AAr?$AA?9?$AAB?$AAA@ 10024e54     libucrt:lcidtoname_downlevel.obj
 0002:00004e60       ??_C@_1O@FMCELNAJ@?$AAs?$AAm?$AAj?$AA?9?$AAN?$AAO@ 10024e60     libucrt:lcidtoname_downlevel.obj
 0002:00004e70       ??_C@_1M@JHGLJMGJ@?$AAa?$AAr?$AA?9?$AAD?$AAZ@ 10024e70     libucrt:lcidtoname_downlevel.obj
 0002:00004e7c       ??_C@_1M@JKKFDCNP@?$AAz?$AAh?$AA?9?$AAM?$AAO@ 10024e7c     libucrt:lcidtoname_downlevel.obj
 0002:00004e88       ??_C@_1M@GEEFALPE@?$AAd?$AAe?$AA?9?$AAL?$AAI@ 10024e88     libucrt:lcidtoname_downlevel.obj
 0002:00004e94       ??_C@_1M@IGEOFBG@?$AAe?$AAn?$AA?9?$AAN?$AAZ@ 10024e94     libucrt:lcidtoname_downlevel.obj
 0002:00004ea0       ??_C@_1M@KDBONEHP@?$AAe?$AAs?$AA?9?$AAC?$AAR@ 10024ea0     libucrt:lcidtoname_downlevel.obj
 0002:00004eac       ??_C@_1M@FHMDOHNN@?$AAf?$AAr?$AA?9?$AAL?$AAU@ 10024eac     libucrt:lcidtoname_downlevel.obj
 0002:00004eb8       ??_C@_1BG@NFKKMAFG@?$AAb?$AAs?$AA?9?$AAB?$AAA?$AA?9?$AAL?$AAa?$AAt?$AAn@ 10024eb8     libucrt:lcidtoname_downlevel.obj
 0002:00004ed0       ??_C@_1O@IMNBEMCI@?$AAs?$AAm?$AAj?$AA?9?$AAS?$AAE@ 10024ed0     libucrt:lcidtoname_downlevel.obj
 0002:00004ee0       ??_C@_1M@DHHMBNDP@?$AAa?$AAr?$AA?9?$AAM?$AAA@ 10024ee0     libucrt:lcidtoname_downlevel.obj
 0002:00004eec       ??_C@_1M@BNBLJCGH@?$AAe?$AAn?$AA?9?$AAI?$AAE@ 10024eec     libucrt:lcidtoname_downlevel.obj
 0002:00004ef8       ??_C@_1M@GEPAFMDL@?$AAe?$AAs?$AA?9?$AAP?$AAA@ 10024ef8     libucrt:lcidtoname_downlevel.obj
 0002:00004f04       ??_C@_1M@OJONDMDL@?$AAf?$AAr?$AA?9?$AAM?$AAC@ 10024f04     libucrt:lcidtoname_downlevel.obj
 0002:00004f10       ??_C@_1BG@OBCNFJB@?$AAs?$AAr?$AA?9?$AAB?$AAA?$AA?9?$AAL?$AAa?$AAt?$AAn@ 10024f10     libucrt:lcidtoname_downlevel.obj
 0002:00004f28       ??_C@_1O@KEMEEGPO@?$AAs?$AAm?$AAa?$AA?9?$AAN?$AAO@ 10024f28     libucrt:lcidtoname_downlevel.obj
 0002:00004f38       ??_C@_1M@ELMGFODK@?$AAa?$AAr?$AA?9?$AAT?$AAN@ 10024f38     libucrt:lcidtoname_downlevel.obj
 0002:00004f44       ??_C@_1M@BHDLHFAF@?$AAe?$AAn?$AA?9?$AAZ?$AAA@ 10024f44     libucrt:lcidtoname_downlevel.obj
 0002:00004f50       ??_C@_1M@BMGIGLIF@?$AAe?$AAs?$AA?9?$AAD?$AAO@ 10024f50     libucrt:lcidtoname_downlevel.obj
 0002:00004f5c       ??_C@_1BG@CMBHIPBE@?$AAs?$AAr?$AA?9?$AAB?$AAA?$AA?9?$AAC?$AAy?$AAr?$AAl@ 10024f5c     libucrt:lcidtoname_downlevel.obj
 0002:00004f74       ??_C@_1O@HEDBLHNP@?$AAs?$AAm?$AAa?$AA?9?$AAS?$AAE@ 10024f74     libucrt:lcidtoname_downlevel.obj
 0002:00004f84       ??_C@_1M@DAGCADIM@?$AAa?$AAr?$AA?9?$AAO?$AAM@ 10024f84     libucrt:lcidtoname_downlevel.obj
 0002:00004f90       ??_C@_1M@FODLMICG@?$AAe?$AAn?$AA?9?$AAJ?$AAM@ 10024f90     libucrt:lcidtoname_downlevel.obj
 0002:00004f9c       ??_C@_1M@DNMLCIHB@?$AAe?$AAs?$AA?9?$AAV?$AAE@ 10024f9c     libucrt:lcidtoname_downlevel.obj
 0002:00004fa8       ??_C@_1O@EOKHMKJK@?$AAs?$AAm?$AAs?$AA?9?$AAF?$AAI@ 10024fa8     libucrt:lcidtoname_downlevel.obj
 0002:00004fb8       ??_C@_1M@CAFJMKOF@?$AAa?$AAr?$AA?9?$AAY?$AAE@ 10024fb8     libucrt:lcidtoname_downlevel.obj
 0002:00004fc4       ??_C@_1M@CBFHIJLI@?$AAe?$AAn?$AA?9?$AAC?$AAB@ 10024fc4     libucrt:lcidtoname_downlevel.obj
 0002:00004fd0       ??_C@_1M@BGNFLDN@?$AAe?$AAs?$AA?9?$AAC?$AAO@ 10024fd0     libucrt:lcidtoname_downlevel.obj
 0002:00004fdc       ??_C@_1O@JMPHMAMC@?$AAs?$AAm?$AAn?$AA?9?$AAF?$AAI@ 10024fdc     libucrt:lcidtoname_downlevel.obj
 0002:00004fec       ??_C@_1M@JLANABKE@?$AAa?$AAr?$AA?9?$AAS?$AAY@ 10024fec     libucrt:lcidtoname_downlevel.obj
 0002:00004ff8       ??_C@_1M@HPKGCFGN@?$AAe?$AAn?$AA?9?$AAB?$AAZ@ 10024ff8     libucrt:lcidtoname_downlevel.obj
 0002:00005004       ??_C@_1M@OLJCMLGM@?$AAe?$AAs?$AA?9?$AAP?$AAE@ 10025004     libucrt:lcidtoname_downlevel.obj
 0002:00005010       ??_C@_1M@MKKGFKLE@?$AAa?$AAr?$AA?9?$AAJ?$AAO@ 10025010     libucrt:lcidtoname_downlevel.obj
 0002:0000501c       ??_C@_1M@EKPGLDNI@?$AAe?$AAn?$AA?9?$AAT?$AAT@ 1002501c     libucrt:lcidtoname_downlevel.obj
 0002:00005028       ??_C@_1M@OONGHFHE@?$AAe?$AAs?$AA?9?$AAA?$AAR@ 10025028     libucrt:lcidtoname_downlevel.obj
 0002:00005034       ??_C@_1M@OOJFGBHE@?$AAa?$AAr?$AA?9?$AAL?$AAB@ 10025034     libucrt:lcidtoname_downlevel.obj
 0002:00005040       ??_C@_1M@GCEJHNEG@?$AAe?$AAn?$AA?9?$AAZ?$AAW@ 10025040     libucrt:lcidtoname_downlevel.obj
 0002:0000504c       ??_C@_1M@JNOCAHJI@?$AAe?$AAs?$AA?9?$AAE?$AAC@ 1002504c     libucrt:lcidtoname_downlevel.obj
 0002:00005058       ??_C@_1M@JEFHPGGB@?$AAa?$AAr?$AA?9?$AAK?$AAW@ 10025058     libucrt:lcidtoname_downlevel.obj
 0002:00005064       ??_C@_1M@MLKIBJOJ@?$AAe?$AAn?$AA?9?$AAP?$AAH@ 10025064     libucrt:lcidtoname_downlevel.obj
 0002:00005070       ??_C@_1M@BDNIPEND@?$AAe?$AAs?$AA?9?$AAC?$AAL@ 10025070     libucrt:lcidtoname_downlevel.obj
 0002:0000507c       ??_C@_1M@MPNMEKBD@?$AAa?$AAr?$AA?9?$AAA?$AAE@ 1002507c     libucrt:lcidtoname_downlevel.obj
 0002:00005088       ??_C@_1M@KBJALCPI@?$AAe?$AAs?$AA?9?$AAU?$AAY@ 10025088     libucrt:lcidtoname_downlevel.obj
 0002:00005094       ??_C@_1M@LLCCOAGA@?$AAa?$AAr?$AA?9?$AAB?$AAH@ 10025094     libucrt:lcidtoname_downlevel.obj
 0002:000050a0       ??_C@_1M@PBFNCDEL@?$AAe?$AAs?$AA?9?$AAP?$AAY@ 100250a0     libucrt:lcidtoname_downlevel.obj
 0002:000050ac       ??_C@_1M@EDGINPNP@?$AAa?$AAr?$AA?9?$AAQ?$AAA@ 100250ac     libucrt:lcidtoname_downlevel.obj
 0002:000050b8       ??_C@_1M@MKDBIIJI@?$AAe?$AAs?$AA?9?$AAB?$AAO@ 100250b8     libucrt:lcidtoname_downlevel.obj
 0002:000050c4       ??_C@_1M@CPKKEBLD@?$AAe?$AAs?$AA?9?$AAS?$AAV@ 100250c4     libucrt:lcidtoname_downlevel.obj
 0002:000050d0       ??_C@_1M@NDBGMMJL@?$AAe?$AAs?$AA?9?$AAH?$AAN@ 100250d0     libucrt:lcidtoname_downlevel.obj
 0002:000050dc       ??_C@_1M@JIJIBHDP@?$AAe?$AAs?$AA?9?$AAN?$AAI@ 100250dc     libucrt:lcidtoname_downlevel.obj
 0002:000050e8       ??_C@_1M@CGFMKEEK@?$AAe?$AAs?$AA?9?$AAP?$AAR@ 100250e8     libucrt:lcidtoname_downlevel.obj
 0002:000050f4       ??_C@_1O@ICJHKIIK@?$AAz?$AAh?$AA?9?$AAC?$AAH?$AAT@ 100250f4     libucrt:lcidtoname_downlevel.obj
 0002:00005104       ??_C@_15CLNEJCE@?$AAs?$AAr@ 10025104     libucrt:lcidtoname_downlevel.obj
 0002:00005830       ??_C@_1M@KAHEKEIG@?$AAa?$AAf?$AA?9?$AAz?$AAa@ 10025830     libucrt:lcidtoname_downlevel.obj
 0002:0000583c       ??_C@_1M@GIECOABL@?$AAa?$AAr?$AA?9?$AAa?$AAe@ 1002583c     libucrt:lcidtoname_downlevel.obj
 0002:00005848       ??_C@_1M@BMLMEKGI@?$AAa?$AAr?$AA?9?$AAb?$AAh@ 10025848     libucrt:lcidtoname_downlevel.obj
 0002:00005854       ??_C@_1M@DAPFDGGB@?$AAa?$AAr?$AA?9?$AAd?$AAz@ 10025854     libucrt:lcidtoname_downlevel.obj
 0002:00005860       ??_C@_1M@FJNKGKIG@?$AAa?$AAr?$AA?9?$AAe?$AAg@ 10025860     libucrt:lcidtoname_downlevel.obj
 0002:0000586c       ??_C@_1M@FLGKKCLO@?$AAa?$AAr?$AA?9?$AAi?$AAq@ 1002586c     libucrt:lcidtoname_downlevel.obj
 0002:00005878       ??_C@_1M@GNDIPALM@?$AAa?$AAr?$AA?9?$AAj?$AAo@ 10025878     libucrt:lcidtoname_downlevel.obj
 0002:00005884       ??_C@_1M@DDMJFMGJ@?$AAa?$AAr?$AA?9?$AAk?$AAw@ 10025884     libucrt:lcidtoname_downlevel.obj
 0002:00005890       ??_C@_1M@EJALMLHM@?$AAa?$AAr?$AA?9?$AAl?$AAb@ 10025890     libucrt:lcidtoname_downlevel.obj
 0002:0000589c       ??_C@_1M@MOBDBLOC@?$AAa?$AAr?$AA?9?$AAl?$AAy@ 1002589c     libucrt:lcidtoname_downlevel.obj
 0002:000058a8       ??_C@_1M@JAOCLHDH@?$AAa?$AAr?$AA?9?$AAm?$AAa@ 100258a8     libucrt:lcidtoname_downlevel.obj
 0002:000058b4       ??_C@_1M@JHPMKJIE@?$AAa?$AAr?$AA?9?$AAo?$AAm@ 100258b4     libucrt:lcidtoname_downlevel.obj
 0002:000058c0       ??_C@_1M@OEPGHFNH@?$AAa?$AAr?$AA?9?$AAq?$AAa@ 100258c0     libucrt:lcidtoname_downlevel.obj
 0002:000058cc       ??_C@_1M@KJDONENM@?$AAa?$AAr?$AA?9?$AAs?$AAa@ 100258cc     libucrt:lcidtoname_downlevel.obj
 0002:000058d8       ??_C@_1M@DMJDKLKM@?$AAa?$AAr?$AA?9?$AAs?$AAy@ 100258d8     libucrt:lcidtoname_downlevel.obj
 0002:000058e4       ??_C@_1M@OMFIPEDC@?$AAa?$AAr?$AA?9?$AAt?$AAn@ 100258e4     libucrt:lcidtoname_downlevel.obj
 0002:000058f0       ??_C@_1M@IHMHGAON@?$AAa?$AAr?$AA?9?$AAy?$AAe@ 100258f0     libucrt:lcidtoname_downlevel.obj
 0002:000058fc       ??_C@_1BG@KDCPGJGB@?$AAa?$AAz?$AA?9?$AAa?$AAz?$AA?9?$AAc?$AAy?$AAr?$AAl@ 100258fc     libucrt:lcidtoname_downlevel.obj
 0002:00005914       ??_C@_1BG@IBCKDDOE@?$AAa?$AAz?$AA?9?$AAa?$AAz?$AA?9?$AAl?$AAa?$AAt?$AAn@ 10025914     libucrt:lcidtoname_downlevel.obj
 0002:0000592c       ??_C@_1M@EGPFDCPD@?$AAb?$AAe?$AA?9?$AAb?$AAy@ 1002592c     libucrt:lcidtoname_downlevel.obj
 0002:00005938       ??_C@_1M@PCMGMCGC@?$AAb?$AAg?$AA?9?$AAb?$AAg@ 10025938     libucrt:lcidtoname_downlevel.obj
 0002:00005944       ??_C@_1M@BJBMFGOB@?$AAb?$AAn?$AA?9?$AAi?$AAn@ 10025944     libucrt:lcidtoname_downlevel.obj
 0002:00005950       ??_C@_1BG@EAKMMACD@?$AAb?$AAs?$AA?9?$AAb?$AAa?$AA?9?$AAl?$AAa?$AAt?$AAn@ 10025950     libucrt:lcidtoname_downlevel.obj
 0002:00005968       ??_C@_1M@KGADAODK@?$AAc?$AAa?$AA?9?$AAe?$AAs@ 10025968     libucrt:lcidtoname_downlevel.obj
 0002:00005974       ??_C@_1M@COAJPDHI@?$AAc?$AAs?$AA?9?$AAc?$AAz@ 10025974     libucrt:lcidtoname_downlevel.obj
 0002:00005980       ??_C@_1M@DHBHFONH@?$AAc?$AAy?$AA?9?$AAg?$AAb@ 10025980     libucrt:lcidtoname_downlevel.obj
 0002:0000598c       ??_C@_1M@IMGKELGA@?$AAd?$AAa?$AA?9?$AAd?$AAk@ 1002598c     libucrt:lcidtoname_downlevel.obj
 0002:00005998       ??_C@_1M@NNDGDNGA@?$AAd?$AAe?$AA?9?$AAa?$AAt@ 10025998     libucrt:lcidtoname_downlevel.obj
 0002:000059a4       ??_C@_1M@IKDBHEEM@?$AAd?$AAe?$AA?9?$AAc?$AAh@ 100259a4     libucrt:lcidtoname_downlevel.obj
 0002:000059b0       ??_C@_1M@GFFOJMCJ@?$AAd?$AAe?$AA?9?$AAd?$AAe@ 100259b0     libucrt:lcidtoname_downlevel.obj
 0002:000059bc       ??_C@_1M@MDNLKBPM@?$AAd?$AAe?$AA?9?$AAl?$AAi@ 100259bc     libucrt:lcidtoname_downlevel.obj
 0002:000059c8       ??_C@_1M@NJBEEJNL@?$AAd?$AAe?$AA?9?$AAl?$AAu@ 100259c8     libucrt:lcidtoname_downlevel.obj
 0002:000059d4       ??_C@_1O@GNNELBAP@?$AAd?$AAi?$AAv?$AA?9?$AAm?$AAv@ 100259d4     libucrt:lcidtoname_downlevel.obj
 0002:000059e4       ??_C@_1M@EJLEOGAE@?$AAe?$AAl?$AA?9?$AAg?$AAr@ 100259e4     libucrt:lcidtoname_downlevel.obj
 0002:000059f0       ??_C@_1M@GMPONJN@?$AAe?$AAn?$AA?9?$AAa?$AAu@ 100259f0     libucrt:lcidtoname_downlevel.obj
 0002:000059fc       ??_C@_1M@NIDIIPGF@?$AAe?$AAn?$AA?9?$AAb?$AAz@ 100259fc     libucrt:lcidtoname_downlevel.obj
 0002:00005a08       ??_C@_1M@JEHMIMFO@?$AAe?$AAn?$AA?9?$AAc?$AAa@ 10025a08     libucrt:lcidtoname_downlevel.obj
 0002:00005a14       ??_C@_1M@IGMJCDLA@?$AAe?$AAn?$AA?9?$AAc?$AAb@ 10025a14     libucrt:lcidtoname_downlevel.obj
 0002:00005a20       ??_C@_1M@BNFIGBKG@?$AAe?$AAn?$AA?9?$AAg?$AAb@ 10025a20     libucrt:lcidtoname_downlevel.obj
 0002:00005a2c       ??_C@_1M@LKIFDIGP@?$AAe?$AAn?$AA?9?$AAi?$AAe@ 10025a2c     libucrt:lcidtoname_downlevel.obj
 0002:00005a38       ??_C@_1M@PJKFGCCO@?$AAe?$AAn?$AA?9?$AAj?$AAm@ 10025a38     libucrt:lcidtoname_downlevel.obj
 0002:00005a44       ??_C@_1M@KPPKEPBO@?$AAe?$AAn?$AA?9?$AAn?$AAz@ 10025a44     libucrt:lcidtoname_downlevel.obj
 0002:00005a50       ??_C@_1M@GMDGLDOB@?$AAe?$AAn?$AA?9?$AAp?$AAh@ 10025a50     libucrt:lcidtoname_downlevel.obj
 0002:00005a5c       ??_C@_1M@ONGIBJNA@?$AAe?$AAn?$AA?9?$AAt?$AAt@ 10025a5c     libucrt:lcidtoname_downlevel.obj
 0002:00005a68       ??_C@_1M@LLODPCMM@?$AAe?$AAn?$AA?9?$AAu?$AAs@ 10025a68     libucrt:lcidtoname_downlevel.obj
 0002:00005a74       ??_C@_1M@LAKFNPAN@?$AAe?$AAn?$AA?9?$AAz?$AAa@ 10025a74     libucrt:lcidtoname_downlevel.obj
 0002:00005a80       ??_C@_1M@MFNHNHEO@?$AAe?$AAn?$AA?9?$AAz?$AAw@ 10025a80     libucrt:lcidtoname_downlevel.obj
 0002:00005a8c       ??_C@_1M@EJEINPHM@?$AAe?$AAs?$AA?9?$AAa?$AAr@ 10025a8c     libucrt:lcidtoname_downlevel.obj
 0002:00005a98       ??_C@_1M@GNKPCCJA@?$AAe?$AAs?$AA?9?$AAb?$AAo@ 10025a98     libucrt:lcidtoname_downlevel.obj
 0002:00005aa4       ??_C@_1M@LEEGFONL@?$AAe?$AAs?$AA?9?$AAc?$AAl@ 10025aa4     libucrt:lcidtoname_downlevel.obj
 0002:00005ab0       ??_C@_1M@KGPDPBDF@?$AAe?$AAs?$AA?9?$AAc?$AAo@ 10025ab0     libucrt:lcidtoname_downlevel.obj
 0002:00005abc       ??_C@_1M@EIAHOHH@?$AAe?$AAs?$AA?9?$AAc?$AAr@ 10025abc     libucrt:lcidtoname_downlevel.obj
 0002:00005ac8       ??_C@_1M@LLPGMBIN@?$AAe?$AAs?$AA?9?$AAd?$AAo@ 10025ac8     libucrt:lcidtoname_downlevel.obj
 0002:00005ad4       ??_C@_1M@DKHMKNJA@?$AAe?$AAs?$AA?9?$AAe?$AAc@ 10025ad4     libucrt:lcidtoname_downlevel.obj
 0002:00005ae0       ??_C@_1M@GKGFPKAP@?$AAe?$AAs?$AA?9?$AAe?$AAs@ 10025ae0     libucrt:lcidtoname_downlevel.obj
 0002:00005aec       ??_C@_1M@LKHKGDLN@?$AAe?$AAs?$AA?9?$AAg?$AAt@ 10025aec     libucrt:lcidtoname_downlevel.obj
 0002:00005af8       ??_C@_1M@HEIIGGJD@?$AAe?$AAs?$AA?9?$AAh?$AAn@ 10025af8     libucrt:lcidtoname_downlevel.obj
 0002:00005b04       ??_C@_1M@FBDHPPGD@?$AAe?$AAs?$AA?9?$AAm?$AAx@ 10025b04     libucrt:lcidtoname_downlevel.obj
 0002:00005b10       ??_C@_1M@DPAGLNDH@?$AAe?$AAs?$AA?9?$AAn?$AAi@ 10025b10     libucrt:lcidtoname_downlevel.obj
 0002:00005b1c       ??_C@_1M@MDGOPGDD@?$AAe?$AAs?$AA?9?$AAp?$AAa@ 10025b1c     libucrt:lcidtoname_downlevel.obj
 0002:00005b28       ??_C@_1M@EMAMGBGE@?$AAe?$AAs?$AA?9?$AAp?$AAe@ 10025b28     libucrt:lcidtoname_downlevel.obj
 0002:00005b34       ??_C@_1M@IBMCAOEC@?$AAe?$AAs?$AA?9?$AAp?$AAr@ 10025b34     libucrt:lcidtoname_downlevel.obj
 0002:00005b40       ??_C@_1M@FGMDIJED@?$AAe?$AAs?$AA?9?$AAp?$AAy@ 10025b40     libucrt:lcidtoname_downlevel.obj
 0002:00005b4c       ??_C@_1M@IIDEOLLL@?$AAe?$AAs?$AA?9?$AAs?$AAv@ 10025b4c     libucrt:lcidtoname_downlevel.obj
 0002:00005b58       ??_C@_1M@GAOBIPA@?$AAe?$AAs?$AA?9?$AAu?$AAy@ 10025b58     libucrt:lcidtoname_downlevel.obj
 0002:00005b64       ??_C@_1M@JKFFICHJ@?$AAe?$AAs?$AA?9?$AAv?$AAe@ 10025b64     libucrt:lcidtoname_downlevel.obj
 0002:00005b70       ??_C@_1M@PNMLOJDF@?$AAe?$AAt?$AA?9?$AAe?$AAe@ 10025b70     libucrt:lcidtoname_downlevel.obj
 0002:00005b7c       ??_C@_1M@GHHLIKEI@?$AAe?$AAu?$AA?9?$AAe?$AAs@ 10025b7c     libucrt:lcidtoname_downlevel.obj
 0002:00005b88       ??_C@_1M@PBNONODE@?$AAf?$AAa?$AA?9?$AAi?$AAr@ 10025b88     libucrt:lcidtoname_downlevel.obj
 0002:00005b94       ??_C@_1M@JEEHPMIL@?$AAf?$AAi?$AA?9?$AAf?$AAi@ 10025b94     libucrt:lcidtoname_downlevel.obj
 0002:00005ba0       ??_C@_1M@LMDCNDBA@?$AAf?$AAo?$AA?9?$AAf?$AAo@ 10025ba0     libucrt:lcidtoname_downlevel.obj
 0002:00005bac       ??_C@_1M@JKEOHLDK@?$AAf?$AAr?$AA?9?$AAb?$AAe@ 10025bac     libucrt:lcidtoname_downlevel.obj
 0002:00005bb8       ??_C@_1M@NOHADPMI@?$AAf?$AAr?$AA?9?$AAc?$AAa@ 10025bb8     libucrt:lcidtoname_downlevel.obj
 0002:00005bc4       ??_C@_1M@KDHIHAEC@?$AAf?$AAr?$AA?9?$AAc?$AAh@ 10025bc4     libucrt:lcidtoname_downlevel.obj
 0002:00005bd0       ??_C@_1M@MMBBFGAK@?$AAf?$AAr?$AA?9?$AAf?$AAr@ 10025bd0     libucrt:lcidtoname_downlevel.obj
 0002:00005bdc       ??_C@_1M@PAFNENNF@?$AAf?$AAr?$AA?9?$AAl?$AAu@ 10025bdc     libucrt:lcidtoname_downlevel.obj
 0002:00005be8       ??_C@_1M@EOHDJGDD@?$AAf?$AAr?$AA?9?$AAm?$AAc@ 10025be8     libucrt:lcidtoname_downlevel.obj
 0002:00005bf4       ??_C@_1M@FAPLLOPF@?$AAg?$AAl?$AA?9?$AAe?$AAs@ 10025bf4     libucrt:lcidtoname_downlevel.obj
 0002:00005c00       ??_C@_1M@FOPBFLOO@?$AAg?$AAu?$AA?9?$AAi?$AAn@ 10025c00     libucrt:lcidtoname_downlevel.obj
 0002:00005c0c       ??_C@_1M@KBMCINPM@?$AAh?$AAe?$AA?9?$AAi?$AAl@ 10025c0c     libucrt:lcidtoname_downlevel.obj
 0002:00005c18       ??_C@_1M@BBPHKFPJ@?$AAh?$AAi?$AA?9?$AAi?$AAn@ 10025c18     libucrt:lcidtoname_downlevel.obj
 0002:00005c24       ??_C@_1M@PMBNDPHD@?$AAh?$AAr?$AA?9?$AAb?$AAa@ 10025c24     libucrt:lcidtoname_downlevel.obj
 0002:00005c30       ??_C@_1M@BPCKOEGE@?$AAh?$AAr?$AA?9?$AAh?$AAr@ 10025c30     libucrt:lcidtoname_downlevel.obj
 0002:00005c3c       ??_C@_1M@GACBMHKE@?$AAh?$AAu?$AA?9?$AAh?$AAu@ 10025c3c     libucrt:lcidtoname_downlevel.obj
 0002:00005c48       ??_C@_1M@MILPAJJC@?$AAh?$AAy?$AA?9?$AAa?$AAm@ 10025c48     libucrt:lcidtoname_downlevel.obj
 0002:00005c54       ??_C@_1M@BABBICEC@?$AAi?$AAd?$AA?9?$AAi?$AAd@ 10025c54     libucrt:lcidtoname_downlevel.obj
 0002:00005c60       ??_C@_1M@BIKNHHPF@?$AAi?$AAs?$AA?9?$AAi?$AAs@ 10025c60     libucrt:lcidtoname_downlevel.obj
 0002:00005c6c       ??_C@_1M@NMPCJPHE@?$AAi?$AAt?$AA?9?$AAc?$AAh@ 10025c6c     libucrt:lcidtoname_downlevel.obj
 0002:00005c78       ??_C@_1M@GHKGFEDF@?$AAi?$AAt?$AA?9?$AAi?$AAt@ 10025c78     libucrt:lcidtoname_downlevel.obj
 0002:00005c84       ??_C@_1M@NIEJCJJA@?$AAj?$AAa?$AA?9?$AAj?$AAp@ 10025c84     libucrt:lcidtoname_downlevel.obj
 0002:00005c90       ??_C@_1M@JILFNBIM@?$AAk?$AAa?$AA?9?$AAg?$AAe@ 10025c90     libucrt:lcidtoname_downlevel.obj
 0002:00005c9c       ??_C@_1M@PACPMGPH@?$AAk?$AAk?$AA?9?$AAk?$AAz@ 10025c9c     libucrt:lcidtoname_downlevel.obj
 0002:00005ca8       ??_C@_1M@IELFGMHA@?$AAk?$AAn?$AA?9?$AAi?$AAn@ 10025ca8     libucrt:lcidtoname_downlevel.obj
 0002:00005cb4       ??_C@_1O@IBBJHCH@?$AAk?$AAo?$AAk?$AA?9?$AAi?$AAn@ 10025cb4     libucrt:lcidtoname_downlevel.obj
 0002:00005cc4       ??_C@_1M@DMHAEOGC@?$AAk?$AAo?$AA?9?$AAk?$AAr@ 10025cc4     libucrt:lcidtoname_downlevel.obj
 0002:00005cd0       ??_C@_1M@HBAHBIGA@?$AAk?$AAy?$AA?9?$AAk?$AAg@ 10025cd0     libucrt:lcidtoname_downlevel.obj
 0002:00005cdc       ??_C@_1M@KPMILCJG@?$AAl?$AAt?$AA?9?$AAl?$AAt@ 10025cdc     libucrt:lcidtoname_downlevel.obj
 0002:00005ce8       ??_C@_1M@BDEKKCA@?$AAl?$AAv?$AA?9?$AAl?$AAv@ 10025ce8     libucrt:lcidtoname_downlevel.obj
 0002:00005cf4       ??_C@_1M@ELCKCCJJ@?$AAm?$AAi?$AA?9?$AAn?$AAz@ 10025cf4     libucrt:lcidtoname_downlevel.obj
 0002:00005d00       ??_C@_1M@CBOOLAPA@?$AAm?$AAk?$AA?9?$AAm?$AAk@ 10025d00     libucrt:lcidtoname_downlevel.obj
 0002:00005d0c       ??_C@_1M@GPHNBJKN@?$AAm?$AAl?$AA?9?$AAi?$AAn@ 10025d0c     libucrt:lcidtoname_downlevel.obj
 0002:00005d18       ??_C@_1M@PABJILIG@?$AAm?$AAn?$AA?9?$AAm?$AAn@ 10025d18     libucrt:lcidtoname_downlevel.obj
 0002:00005d24       ??_C@_1M@FGBKKIPG@?$AAm?$AAr?$AA?9?$AAi?$AAn@ 10025d24     libucrt:lcidtoname_downlevel.obj
 0002:00005d30       ??_C@_1M@NDBPDDAL@?$AAm?$AAs?$AA?9?$AAb?$AAn@ 10025d30     libucrt:lcidtoname_downlevel.obj
 0002:00005d3c       ??_C@_1M@OPIHOOPI@?$AAm?$AAs?$AA?9?$AAm?$AAy@ 10025d3c     libucrt:lcidtoname_downlevel.obj
 0002:00005d48       ??_C@_1M@PPDBCNFM@?$AAm?$AAt?$AA?9?$AAm?$AAt@ 10025d48     libucrt:lcidtoname_downlevel.obj
 0002:00005d54       ??_C@_1M@KDJDKMDD@?$AAn?$AAb?$AA?9?$AAn?$AAo@ 10025d54     libucrt:lcidtoname_downlevel.obj
 0002:00005d60       ??_C@_1M@KFCFLMJP@?$AAn?$AAl?$AA?9?$AAb?$AAe@ 10025d60     libucrt:lcidtoname_downlevel.obj
 0002:00005d6c       ??_C@_1M@KPOPDDGO@?$AAn?$AAl?$AA?9?$AAn?$AAl@ 10025d6c     libucrt:lcidtoname_downlevel.obj
 0002:00005d78       ??_C@_1M@LJKPEMLN@?$AAn?$AAn?$AA?9?$AAn?$AAo@ 10025d78     libucrt:lcidtoname_downlevel.obj
 0002:00005d84       ??_C@_1M@BDGHHBFL@?$AAn?$AAs?$AA?9?$AAz?$AAa@ 10025d84     libucrt:lcidtoname_downlevel.obj
 0002:00005d90       ??_C@_1M@IDEHOAP@?$AAp?$AAa?$AA?9?$AAi?$AAn@ 10025d90     libucrt:lcidtoname_downlevel.obj
 0002:00005d9c       ??_C@_1M@HDBKGOGH@?$AAp?$AAl?$AA?9?$AAp?$AAl@ 10025d9c     libucrt:lcidtoname_downlevel.obj
 0002:00005da8       ??_C@_1M@LJLLCMEH@?$AAp?$AAt?$AA?9?$AAb?$AAr@ 10025da8     libucrt:lcidtoname_downlevel.obj
 0002:00005db4       ??_C@_1M@NCMONAAL@?$AAp?$AAt?$AA?9?$AAp?$AAt@ 10025db4     libucrt:lcidtoname_downlevel.obj
 0002:00005dc0       ??_C@_1O@EAKMAJDN@?$AAq?$AAu?$AAz?$AA?9?$AAb?$AAo@ 10025dc0     libucrt:lcidtoname_downlevel.obj
 0002:00005dd0       ??_C@_1O@BHHPIGDN@?$AAq?$AAu?$AAz?$AA?9?$AAe?$AAc@ 10025dd0     libucrt:lcidtoname_downlevel.obj
 0002:00005de0       ??_C@_1O@GBAPEKMJ@?$AAq?$AAu?$AAz?$AA?9?$AAp?$AAe@ 10025de0     libucrt:lcidtoname_downlevel.obj
 0002:00005df0       ??_C@_1M@CLGLEFBO@?$AAr?$AAo?$AA?9?$AAr?$AAo@ 10025df0     libucrt:lcidtoname_downlevel.obj
 0002:00005dfc       ??_C@_1M@CEEDODME@?$AAr?$AAu?$AA?9?$AAr?$AAu@ 10025dfc     libucrt:lcidtoname_downlevel.obj
 0002:00005e08       ??_C@_1M@HPKKKMPP@?$AAs?$AAa?$AA?9?$AAi?$AAn@ 10025e08     libucrt:lcidtoname_downlevel.obj
 0002:00005e14       ??_C@_1M@BKMAIGOJ@?$AAs?$AAe?$AA?9?$AAf?$AAi@ 10025e14     libucrt:lcidtoname_downlevel.obj
 0002:00005e20       ??_C@_1M@NDPIFLFI@?$AAs?$AAe?$AA?9?$AAn?$AAo@ 10025e20     libucrt:lcidtoname_downlevel.obj
 0002:00005e2c       ??_C@_1M@DANKKHJ@?$AAs?$AAe?$AA?9?$AAs?$AAe@ 10025e2c     libucrt:lcidtoname_downlevel.obj
 0002:00005e38       ??_C@_1M@PNBLONPJ@?$AAs?$AAk?$AA?9?$AAs?$AAk@ 10025e38     libucrt:lcidtoname_downlevel.obj
 0002:00005e44       ??_C@_1M@LFMODOAL@?$AAs?$AAl?$AA?9?$AAs?$AAi@ 10025e44     libucrt:lcidtoname_downlevel.obj
 0002:00005e50       ??_C@_1O@DFKOMPG@?$AAs?$AAm?$AAa?$AA?9?$AAn?$AAo@ 10025e50     libucrt:lcidtoname_downlevel.obj
 0002:00005e60       ??_C@_1O@NDKPBNNH@?$AAs?$AAm?$AAa?$AA?9?$AAs?$AAe@ 10025e60     libucrt:lcidtoname_downlevel.obj
 0002:00005e70       ??_C@_1O@PLLKBHAB@?$AAs?$AAm?$AAj?$AA?9?$AAn?$AAo@ 10025e70     libucrt:lcidtoname_downlevel.obj
 0002:00005e80       ??_C@_1O@CLEPOGCA@?$AAs?$AAm?$AAj?$AA?9?$AAs?$AAe@ 10025e80     libucrt:lcidtoname_downlevel.obj
 0002:00005e90       ??_C@_1O@DLGJGKMK@?$AAs?$AAm?$AAn?$AA?9?$AAf?$AAi@ 10025e90     libucrt:lcidtoname_downlevel.obj
 0002:00005ea0       ??_C@_1O@OJDJGAJC@?$AAs?$AAm?$AAs?$AA?9?$AAf?$AAi@ 10025ea0     libucrt:lcidtoname_downlevel.obj
 0002:00005eb0       ??_C@_1M@BOFOGHPB@?$AAs?$AAq?$AA?9?$AAa?$AAl@ 10025eb0     libucrt:lcidtoname_downlevel.obj
 0002:00005ebc       ??_C@_1BG@LJBBIPGB@?$AAs?$AAr?$AA?9?$AAb?$AAa?$AA?9?$AAc?$AAy?$AAr?$AAl@ 10025ebc     libucrt:lcidtoname_downlevel.obj
 0002:00005ed4       ??_C@_1BG@JLBENFOE@?$AAs?$AAr?$AA?9?$AAb?$AAa?$AA?9?$AAl?$AAa?$AAt?$AAn@ 10025ed4     libucrt:lcidtoname_downlevel.obj
 0002:00005eec       ??_C@_1BG@KODPNHE@?$AAs?$AAr?$AA?9?$AAs?$AAp?$AA?9?$AAc?$AAy?$AAr?$AAl@ 10025eec     libucrt:lcidtoname_downlevel.obj
 0002:00005f04       ??_C@_1BG@CIOGKHPB@?$AAs?$AAr?$AA?9?$AAs?$AAp?$AA?9?$AAl?$AAa?$AAt?$AAn@ 10025f04     libucrt:lcidtoname_downlevel.obj
 0002:00005f1c       ??_C@_1M@NGFJLMAC@?$AAs?$AAv?$AA?9?$AAf?$AAi@ 10025f1c     libucrt:lcidtoname_downlevel.obj
 0002:00005f28       ??_C@_1M@MPJEJAJC@?$AAs?$AAv?$AA?9?$AAs?$AAe@ 10025f28     libucrt:lcidtoname_downlevel.obj
 0002:00005f34       ??_C@_1M@MPNDHLFK@?$AAs?$AAw?$AA?9?$AAk?$AAe@ 10025f34     libucrt:lcidtoname_downlevel.obj
 0002:00005f40       ??_C@_1O@KOHBJJI@?$AAs?$AAy?$AAr?$AA?9?$AAs?$AAy@ 10025f40     libucrt:lcidtoname_downlevel.obj
 0002:00005f50       ??_C@_1M@LDCEFHA@?$AAt?$AAa?$AA?9?$AAi?$AAn@ 10025f50     libucrt:lcidtoname_downlevel.obj
 0002:00005f5c       ??_C@_1M@CNJOFAK@?$AAt?$AAe?$AA?9?$AAi?$AAn@ 10025f5c     libucrt:lcidtoname_downlevel.obj
 0002:00005f68       ??_C@_1M@GNAECACD@?$AAt?$AAh?$AA?9?$AAt?$AAh@ 10025f68     libucrt:lcidtoname_downlevel.obj
 0002:00005f74       ??_C@_1M@CHBIHOJO@?$AAt?$AAn?$AA?9?$AAz?$AAa@ 10025f74     libucrt:lcidtoname_downlevel.obj
 0002:00005f80       ??_C@_1M@GCCMIGPJ@?$AAt?$AAr?$AA?9?$AAt?$AAr@ 10025f80     libucrt:lcidtoname_downlevel.obj
 0002:00005f8c       ??_C@_1M@CELMCNBK@?$AAt?$AAt?$AA?9?$AAr?$AAu@ 10025f8c     libucrt:lcidtoname_downlevel.obj
 0002:00005f98       ??_C@_1M@KLMCELGA@?$AAu?$AAk?$AA?9?$AAu?$AAa@ 10025f98     libucrt:lcidtoname_downlevel.obj
 0002:00005fa4       ??_C@_1M@EPAJJAJF@?$AAu?$AAr?$AA?9?$AAp?$AAk@ 10025fa4     libucrt:lcidtoname_downlevel.obj
 0002:00005fb0       ??_C@_1BG@GEGPMCDJ@?$AAu?$AAz?$AA?9?$AAu?$AAz?$AA?9?$AAc?$AAy?$AAr?$AAl@ 10025fb0     libucrt:lcidtoname_downlevel.obj
 0002:00005fc8       ??_C@_1BG@EGGKJILM@?$AAu?$AAz?$AA?9?$AAu?$AAz?$AA?9?$AAl?$AAa?$AAt?$AAn@ 10025fc8     libucrt:lcidtoname_downlevel.obj
 0002:00005fe0       ??_C@_1M@GFOCLFF@?$AAv?$AAi?$AA?9?$AAv?$AAn@ 10025fe0     libucrt:lcidtoname_downlevel.obj
 0002:00005fec       ??_C@_1M@CPAMEDFI@?$AAx?$AAh?$AA?9?$AAz?$AAa@ 10025fec     libucrt:lcidtoname_downlevel.obj
 0002:00005ff8       ??_C@_1O@EBKIFIGN@?$AAz?$AAh?$AA?9?$AAc?$AAh?$AAs@ 10025ff8     libucrt:lcidtoname_downlevel.obj
 0002:00006008       ??_C@_1O@NMHPGANE@?$AAz?$AAh?$AA?9?$AAc?$AAh?$AAt@ 10026008     libucrt:lcidtoname_downlevel.obj
 0002:00006018       ??_C@_1M@LPINJOMC@?$AAz?$AAh?$AA?9?$AAc?$AAn@ 10026018     libucrt:lcidtoname_downlevel.obj
 0002:00006024       ??_C@_1M@OCJEJODD@?$AAz?$AAh?$AA?9?$AAh?$AAk@ 10026024     libucrt:lcidtoname_downlevel.obj
 0002:00006030       ??_C@_1M@DNDLJINH@?$AAz?$AAh?$AA?9?$AAm?$AAo@ 10026030     libucrt:lcidtoname_downlevel.obj
 0002:0000603c       ??_C@_1M@MBFDNDND@?$AAz?$AAh?$AA?9?$AAs?$AAg@ 1002603c     libucrt:lcidtoname_downlevel.obj
 0002:00006048       ??_C@_1M@IMEPLEPE@?$AAz?$AAh?$AA?9?$AAt?$AAw@ 10026048     libucrt:lcidtoname_downlevel.obj
 0002:00006054       ??_C@_1M@BBGHNHJP@?$AAz?$AAu?$AA?9?$AAz?$AAa@ 10026054     libucrt:lcidtoname_downlevel.obj
 0002:00006060       ?large_power_data@?1??multiply_by_power_of_ten@__crt_strtox@@YA_NAAUbig_integer@2@I@Z@4QBIB 10026060     libucrt:cfout.obj
 0002:00006968       ?large_power_indices@?1??multiply_by_power_of_ten@__crt_strtox@@YA_NAAUbig_integer@2@I@Z@4QBUunpack_index@?1??12@YA_N0I@Z@B 10026968     libucrt:cfout.obj
 0002:00006a00       ?small_powers_of_ten@?1??multiply_by_power_of_ten@__crt_strtox@@YA_NAAUbig_integer@2@I@Z@4QBIB 10026a00     libucrt:cfout.obj
 0002:00006a24       ??_C@_01GBGANLPD@0@        10026a24     libucrt:cfout.obj
 0002:00006a28       ??_C@_05DNEBIAHO@1?$CDINF@ 10026a28     libucrt:cfout.obj
 0002:00006a30       ??_C@_06IMKFLFPG@1?$CDQNAN@ 10026a30     libucrt:cfout.obj
 0002:00006a38       ??_C@_06PGGFOGJG@1?$CDSNAN@ 10026a38     libucrt:cfout.obj
 0002:00006a40       ??_C@_05PHHOCPM@1?$CDIND@  10026a40     libucrt:cfout.obj
 0002:00006bb0       __infinity                 10026bb0     libucrt:87tran.obj
 0002:00006bba       __minfinity                10026bba     libucrt:87tran.obj
 0002:00006bc4       __logemax                  10026bc4     libucrt:87tran.obj
 0002:00006bea       __OP_EXPjmptab             10026bea     libucrt:87tran.obj
 0002:00006c10       __indefinite               10026c10     libucrt:87disp.obj
 0002:00006c1a       __piby2                    10026c1a     libucrt:87disp.obj
 0002:00006c24       __piby4                    10026c24     libucrt:87disp.obj
 0002:00006c58       __DEFAULT_CW_in_mem        10026c58     libucrt:common.obj
 0002:00006c5a       __pi_by_2_to_61            10026c5a     libucrt:common.obj
 0002:00006c94       ??_C@_03MGHMBJCF@log@      10026c94     libucrt:libm_error.obj
 0002:00006c98       ??_C@_05HGHHAHAP@log10@    10026c98     libucrt:libm_error.obj
 0002:00006ca0       ??_C@_03KHJOGHMM@exp@      10026ca0     libucrt:libm_error.obj
 0002:00006ca4       ??_C@_03JGHBODFD@pow@      10026ca4     libucrt:libm_error.obj
 0002:00006ca8       ??_C@_04FIHNOPOL@asin@     10026ca8     libucrt:libm_error.obj
 0002:00006cb0       ??_C@_04PDIFKINK@acos@     10026cb0     libucrt:libm_error.obj
 0002:00006cb8       ??_C@_04EIAKFFMI@sqrt@     10026cb8     libucrt:libm_error.obj
 0002:00006cc0       __real@3ff0000000000000    10026cc0     libucrt:libm_error.obj
 0002:00006cc8       ??_C@_1BA@BALFACEM@?$AAC?$AAO?$AAN?$AAO?$AAU?$AAT?$AA$@ 10026cc8     libucrt:initcon.obj
 0002:00006cf0       ___acrt_log10_table_t      10026cf0     libucrt:log10_tables.obj
 0002:00007100       ___acrt_log10_table_cb     10027100     libucrt:log10_tables.obj
 0002:00007510       __real@3fe0000000000000    10027510     libucrt:powhlp.obj
 0002:00007600       ??_C@_04COOMCNPB@sinh@     10027600     libucrt:fpexcept.obj
 0002:00007608       ??_C@_04HPJJNFIM@cosh@     10027608     libucrt:fpexcept.obj
 0002:00007610       ??_C@_04FJHINJAO@tanh@     10027610     libucrt:fpexcept.obj
 0002:00007618       ??_C@_04MLLJIGOK@atan@     10027618     libucrt:fpexcept.obj
 0002:00007620       ??_C@_05KNGEOGJB@atan2@    10027620     libucrt:fpexcept.obj
 0002:00007628       ??_C@_03BLEJJJBH@sin@      10027628     libucrt:fpexcept.obj
 0002:0000762c       ??_C@_03LALBNOCG@cos@      1002762c     libucrt:fpexcept.obj
 0002:00007630       ??_C@_03IIINPABG@tan@      10027630     libucrt:fpexcept.obj
 0002:00007634       ??_C@_04GFPJNGEK@ceil@     10027634     libucrt:fpexcept.obj
 0002:0000763c       ??_C@_05PBJFFIGL@floor@    1002763c     libucrt:fpexcept.obj
 0002:00007644       ??_C@_04ODHECPBC@fabs@     10027644     libucrt:fpexcept.obj
 0002:0000764c       ??_C@_04EHEDPDJG@modf@     1002764c     libucrt:fpexcept.obj
 0002:00007654       ??_C@_05CEJMAHNP@ldexp@    10027654     libucrt:fpexcept.obj
 0002:0000765c       ??_C@_05KBKMEMPO@_cabs@    1002765c     libucrt:fpexcept.obj
 0002:00007664       ??_C@_06MEIMCGCF@_hypot@   10027664     libucrt:fpexcept.obj
 0002:0000766c       ??_C@_04KEPJIHGP@fmod@     1002766c     libucrt:fpexcept.obj
 0002:00007674       ??_C@_05GKKHEGJL@frexp@    10027674     libucrt:fpexcept.obj
 0002:0000767c       ??_C@_03MJLDFKDL@_y0@      1002767c     libucrt:fpexcept.obj
 0002:00007680       ??_C@_03NAKIGLHK@_y1@      10027680     libucrt:fpexcept.obj
 0002:00007684       ??_C@_03ONILCKOB@_yn@      10027684     libucrt:fpexcept.obj
 0002:00007688       ??_C@_05JGDBENOH@_logb@    10027688     libucrt:fpexcept.obj
 0002:00007690       ??_C@_0L@KDOEJCKC@_nextafter@ 10027690     libucrt:fpexcept.obj
 0002:000076a0       __d_inf                    100276a0     libucrt:util.obj
 0002:000076a8       __d_max                    100276a8     libucrt:util.obj
 0002:000076b0       __d_mzero                  100276b0     libucrt:util.obj
 0002:00007720       __load_config_used         10027720     LIBCMT:loadcfg.obj
 0002:000077d8       __tls_used                 100277d8     LIBCMT:tlssup.obj
 0002:000077f0       ??_R4exception@std@@6B@    100277f0     LIBCMT:throw_bad_alloc.obj
 0002:00007804       ??_R3exception@std@@8      10027804     LIBCMT:throw_bad_alloc.obj
 0002:00007814       ??_R2exception@std@@8      10027814     LIBCMT:throw_bad_alloc.obj
 0002:0000781c       ??_R1A@?0A@EA@exception@std@@8 1002781c     LIBCMT:throw_bad_alloc.obj
 0002:00007838       ??_R4bad_alloc@std@@6B@    10027838     LIBCMT:throw_bad_alloc.obj
 0002:0000784c       ??_R3bad_alloc@std@@8      1002784c     LIBCMT:throw_bad_alloc.obj
 0002:0000785c       ??_R2bad_alloc@std@@8      1002785c     LIBCMT:throw_bad_alloc.obj
 0002:00007868       ??_R1A@?0A@EA@bad_alloc@std@@8 10027868     LIBCMT:throw_bad_alloc.obj
 0002:00007884       ??_R4bad_array_new_length@std@@6B@ 10027884     LIBCMT:throw_bad_alloc.obj
 0002:00007898       ??_R3bad_array_new_length@std@@8 10027898     LIBCMT:throw_bad_alloc.obj
 0002:000078a8       ??_R2bad_array_new_length@std@@8 100278a8     LIBCMT:throw_bad_alloc.obj
 0002:000078b8       ??_R1A@?0A@EA@bad_array_new_length@std@@8 100278b8     LIBCMT:throw_bad_alloc.obj
 0002:000078d4       ??_R4type_info@@6B@        100278d4     LIBCMT:std_type_info_static.obj
 0002:000078e8       ??_R3type_info@@8          100278e8     LIBCMT:std_type_info_static.obj
 0002:000078f8       ??_R2type_info@@8          100278f8     LIBCMT:std_type_info_static.obj
 0002:00007900       ??_R1A@?0A@EA@type_info@@8 10027900     LIBCMT:std_type_info_static.obj
 0002:0000791c       ??_R4bad_exception@std@@6B@ 1002791c     libvcruntime:frame.obj
 0002:00007930       ??_R3bad_exception@std@@8  10027930     libvcruntime:frame.obj
 0002:00007940       ??_R2bad_exception@std@@8  10027940     libvcruntime:frame.obj
 0002:0000794c       ??_R1A@?0A@EA@bad_exception@std@@8 1002794c     libvcruntime:frame.obj
 0002:00007968       ___safe_se_handler_table   10027968     <linker-defined>
 0002:00007d5c       ___rtc_iaa                 10027d5c     LIBCMT:initsect.obj
 0002:00007d60       ___rtc_izz                 10027d60     LIBCMT:initsect.obj
 0002:00007d64       ___rtc_taa                 10027d64     LIBCMT:initsect.obj
 0002:00007d68       ___rtc_tzz                 10027d68     LIBCMT:initsect.obj
 0002:00007d6c       __tls_start                10027d6c     LIBCMT:tlssup.obj
 0002:00007d70       __Init_thread_epoch        10027d70     LIBCMT:thread_safe_statics.obj
 0002:00007d74       __tls_end                  10027d74     LIBCMT:tlssup.obj
 0002:00007e74       __TI2?AVbad_alloc@std@@    10027e74     LIBCMT:throw_bad_alloc.obj
 0002:00007e84       __CTA2?AVbad_alloc@std@@   10027e84     LIBCMT:throw_bad_alloc.obj
 0002:00007e90       __CT??_R0?AVbad_alloc@std@@@8??0bad_alloc@std@@QAE@ABV01@@Z12 10027e90     LIBCMT:throw_bad_alloc.obj
 0002:00007eac       __CT??_R0?AVexception@std@@@8??0exception@std@@QAE@ABV01@@Z12 10027eac     LIBCMT:throw_bad_alloc.obj
 0002:00007ec8       __TI3?AVbad_array_new_length@std@@ 10027ec8     LIBCMT:throw_bad_alloc.obj
 0002:00007ed8       __CTA3?AVbad_array_new_length@std@@ 10027ed8     LIBCMT:throw_bad_alloc.obj
 0002:00007ee8       __CT??_R0?AVbad_array_new_length@std@@@8??0bad_array_new_length@std@@QAE@ABV01@@Z12 10027ee8     LIBCMT:throw_bad_alloc.obj
 0002:0000800c       __TI2?AVbad_exception@std@@ 1002800c     libvcruntime:frame.obj
 0002:0000801c       __CTA2?AVbad_exception@std@@ 1002801c     libvcruntime:frame.obj
 0002:00008028       __CT??_R0?AVbad_exception@std@@@8??0bad_exception@std@@QAE@ABV01@@Z12 10028028     libvcruntime:frame.obj
 0002:000083a4       ___pobjMapEntryFirst       100283a4     OposVariant.obj
 0002:000083a8       ___pobjMapEntryLast        100283a8     OposVariant.obj
 0002:00008458       __IMPORT_DESCRIPTOR_KERNEL32 10028458     kernel32:KERNEL32.dll
 0002:0000846c       __IMPORT_DESCRIPTOR_USER32 1002846c     user32:USER32.dll
 0002:00008480       __IMPORT_DESCRIPTOR_GDI32  10028480     gdi32:GDI32.dll
 0002:00008494       __IMPORT_DESCRIPTOR_ADVAPI32 10028494     advapi32:ADVAPI32.dll
 0002:000084a8       __IMPORT_DESCRIPTOR_ole32  100284a8     ole32:ole32.dll
 0002:000084bc       __IMPORT_DESCRIPTOR_OLEAUT32 100284bc     oleaut32:OLEAUT32.dll
 0002:000084d0       __NULL_IMPORT_DESCRIPTOR   100284d0     kernel32:KERNEL32.dll
 0003:00000000       ?s_Claim@?7??GetIDsOfNames@CComTypeInfoHolder@ATL@@QAEJABU_GUID@@PAPA_WIKPAJ@Z@4PA_WA 1002a000     Scale.obj
 0003:00000018       ?s_Release@?7??GetIDsOfNames@CComTypeInfoHolder@ATL@@QAEJABU_GUID@@PAPA_WIKPAJ@Z@4PA_WA 1002a018     Scale.obj
 0003:00000034       ?_tih@?$IDispatchImpl@UIOPOSScale@@$1?IID_IOPOSScale@@3U_GUID@@B$1?LIBID_OposScale_CCO@@3U3@B$00$0A@VCComTypeInfoHolder@ATL@@@ATL@@1VCComTypeInfoHolder@2@A 1002a034     Scale.obj
 0003:00000050       ?_tih@?$IProvideClassInfo2Impl@$1?CLSID_OPOSScale@@3U_GUID@@B$1?DIID__IOPOSScaleEvents@@3U2@B$1?LIBID_OposScale_CCO@@3U2@B$00$0A@VCComTypeInfoHolder@ATL@@@ATL@@1VCComTypeInfoHolder@2@A 1002a050     Scale.obj
 0003:0000006c       ?vszContents@?6??Save@?$IPersistStorageImpl@VCOPOSScale@@@ATL@@UAGJPAUIStorage@@H@Z@4PB_WB 1002a06c     Scale.obj
 0003:00000070       ?wc@?1??GetWndClassInfo@?$CWindowImpl@VCOPOSScale@@VCWindow@ATL@@V?$CWinTraits@$0FGAAAAAA@$0A@@3@@ATL@@SAAAU_ATL_WNDCLASSINFOW@3@XZ@4U43@A 1002a070     Scale.obj
 0003:000000fc       ?rcDefault@CWindow@ATL@@2UtagRECT@@A 1002a0fc     Scale.obj
 0003:00000158       ?g_WindowName@@3PA_WA      1002a158     ScaleImpl.obj
 0003:00000178       ?g_ControlDescription@@3PADA 1002a178     ScaleImpl.obj
 0003:000001c0       ?g_ControlVersion@@3JA     1002a1c0     ScaleImpl.obj
 0003:0000027c       ___scrt_native_dllmain_reason 1002a27c     LIBCMT:utility.obj
 0003:00000280       __Init_global_epoch        1002a280     LIBCMT:thread_safe_statics.obj
 0003:00000290       ___security_cookie_complement 1002a290     LIBCMT:gs_cookie.obj
 0003:00000294       ___security_cookie         1002a294     LIBCMT:gs_cookie.obj
 0003:00000298       ___isa_enabled             1002a298     LIBCMT:cpu_disp.obj
 0003:000002b0       __NLG_Destination          1002a2b0     libvcruntime:exsup.obj
 0003:000002c8       ___abort_behavior          1002a2c8     libucrt:abort.obj
 0003:000002d8       __iob                      1002a2d8     libucrt:_file.obj
 0003:00000380       ___acrt_initial_locale_data 1002a380     libucrt:nlsdata.obj
 0003:00000438       ___acrt_initial_locale_pointers 1002a438     libucrt:nlsdata.obj
 0003:00000440       ___acrt_wide_c_locale_string 1002a440     libucrt:nlsdata.obj
 0003:00000448       ___acrt_initial_multibyte_data 1002a448     libucrt:mbctype.obj
 0003:00000968       __pwctype                  1002a968     libucrt:ctype.obj
 0003:0000096c       ___globallocalestatus      1002a96c     libucrt:glstatus.obj
 0003:00000970       ___acrt_lconv_c            1002a970     libucrt:localeconv.obj
 0003:000009c0       ___acrt_lconv_static_decimal 1002a9c0     libucrt:localeconv.obj
 0003:000009c4       ___acrt_lconv_static_W_decimal 1002a9c4     libucrt:localeconv.obj
 0003:000009d0       __lookuptrailbytes         1002a9d0     libucrt:read.obj
 0003:00000ae0       __fltused                  1002aae0     LIBCMT:fltused.obj
 0003:00000af0       ??_R0?AVbad_alloc@std@@@8  1002aaf0     LIBCMT:throw_bad_alloc.obj
 0003:00000b0c       ??_R0?AVexception@std@@@8  1002ab0c     LIBCMT:throw_bad_alloc.obj
 0003:00000b28       ??_R0?AVbad_array_new_length@std@@@8 1002ab28     LIBCMT:throw_bad_alloc.obj
 0003:00000b50       ??_R0?AVtype_info@@@8      1002ab50     LIBCMT:std_type_info_static.obj
 0003:00000b68       ??_R0?AVbad_exception@std@@@8 1002ab68     libvcruntime:frame.obj
 0003:00000b88       ?m_bInitFailed@CAtlBaseModule@ATL@@2_NA 1002ab88     OposVariant.obj
 0003:00000b8c       ?_pPerfRegFunc@ATL@@3P6AJPAUHINSTANCE__@@@ZA 1002ab8c     OposVariant.obj
 0003:00000b90       ?_pPerfUnRegFunc@ATL@@3P6AJXZA 1002ab90     OposVariant.obj
 0003:00000b94       ?_AtlRegisterPerUser@ATL@@3_NA 1002ab94     OposVariant.obj
 0003:00000b98       ?_pAtlModule@ATL@@3PAVCAtlModule@1@A 1002ab98     OposVariant.obj
 0003:00000b9c       ?_pModule@ATL@@3PAVCComModule@1@A 1002ab9c     OposVariant.obj
 0003:00000ba0       ?_AtlComModule@ATL@@3VCAtlComModule@1@A 1002aba0     OposVariant.obj
 0003:00000bc8       ?_AtlWinModule@ATL@@3VCAtlWinModule@1@A 1002abc8     OposVariant.obj
 0003:00000bf4       ?m_libid@CAtlModule@ATL@@2U_GUID@@A 1002abf4     Scale.obj
 0003:00000c04       ?_entries@?1??GetConnMap@COPOSScale@@SAPBU_ATL_CONNMAP_ENTRY@ATL@@PAH@Z@4QBU34@B 1002ac04     Scale.obj
 0003:00000c10       ?$TSS0@?1??GetConnMap@COPOSScale@@SAPBU_ATL_CONNMAP_ENTRY@ATL@@PAH@Z@4HA 1002ac10     Scale.obj
 0003:00000c18       ?_OptionsStorage@?1??__local_stdio_printf_options@@9@4_KA 1002ac18     Scale.obj
 0003:00000c20       ?pfnRegDeleteKeyEx@?1??DeleteSubKey@CRegKey@ATL@@QAEJPB_W@Z@4P6GJPAUHKEY__@@0KK@ZA 1002ac20     Scale.obj
 0003:00000c24       ?bInitialized@?1??DeleteSubKey@CRegKey@ATL@@QAEJPB_W@Z@4_NA 1002ac24     Scale.obj
 0003:00000c28       ?_Module@@3VCComModule@ATL@@A 1002ac28     Scale.obj
 0003:00000c58       ?pConnMap@?$IConnectionPointContainerImpl@VCOPOSScale@@@ATL@@0PBU_ATL_CONNMAP_ENTRY@2@B 1002ac58     Scale.obj
 0003:00000c5c       ?s_nInstances@COPOSScale@@1HA 1002ac5c     ScaleImpl.obj
 0003:00000c60       ___scrt_current_native_startup_state 1002ac60     LIBCMT:utility.obj
 0003:00000c64       ___scrt_native_startup_lock 1002ac64     LIBCMT:utility.obj
 0003:00000fcc       __tls_index                1002afcc     LIBCMT:tlssup.obj
 0003:00000fd4       ___isa_available           1002afd4     LIBCMT:cpu_disp.obj
 0003:00000fd8       ___favor                   1002afd8     LIBCMT:cpu_disp.obj
 0003:00000fdc       ___scrt_debugger_hook_flag 1002afdc     LIBCMT:utility_desktop.obj
 0003:00000fe0       ?__type_info_root_node@@3U__type_info_node@@A 1002afe0     LIBCMT:tncleanup.obj
 0003:00000fe8       ?_OptionsStorage@?1??__local_stdio_scanf_options@@9@4_KA 1002afe8     LIBCMT:default_local_stdio_options.obj
 0003:00000ff0       ?_AtlBaseModule@ATL@@3VCAtlBaseModule@1@A 1002aff0     atls:atlbase.obj
 0003:00001028       ?__AtlThunkPool@@3PAT_SLIST_HEADER@@A 1002b028     atls:atlthunk.obj
 0003:00001040       ___@@_PchSym_@00@UztvmgUPdlipUEUhUrmgvinvwrzgvUexgllohUzgohOmzgrevkilqPBACIAJCBDBUlyqiUcIGUhgwzucOlyq@4B2008FD98C1DD4 1002b040     atls:stdafx.obj
 0003:00001044       ?__WinRTOutOfMemoryExceptionCallback@@3P6GPAXXZA 1002b044     libvcruntime:ehhelpers.obj
 0003:00001048       ___pPurecall               1002b048     libvcruntime:purevirt_data.obj
 0003:00001090       ?pArgList@UnDecorator@@0PAVReplicator@@A 1002b090     libvcruntime:undname.obj
 0003:00001094       ?pZNameList@UnDecorator@@0PAVReplicator@@A 1002b094     libvcruntime:undname.obj
 0003:00001098       ?pTemplateArgList@UnDecorator@@0PAVReplicator@@A 1002b098     libvcruntime:undname.obj
 0003:0000109c       ?gName@UnDecorator@@0PBDB  1002b09c     libvcruntime:undname.obj
 0003:000010a0       ?name@UnDecorator@@0PBDB   1002b0a0     libvcruntime:undname.obj
 0003:000010a4       ?disableFlags@UnDecorator@@0KA 1002b0a4     libvcruntime:undname.obj
 0003:000010a8       ?fExplicitTemplateParams@UnDecorator@@0_NA 1002b0a8     libvcruntime:undname.obj
 0003:000010a9       ?fGetTemplateArgumentList@UnDecorator@@0_NA 1002b0a9     libvcruntime:undname.obj
 0003:000010ac       ?m_pGetParameter@UnDecorator@@0P6APADJ@ZA 1002b0ac     libvcruntime:undname.obj
 0003:000010b0       ?m_CHPENameOffset@UnDecorator@@0KA 1002b0b0     libvcruntime:undname.obj
 0003:000010b4       ?m_recursionLevel@UnDecorator@@0KA 1002b0b4     libvcruntime:undname.obj
 0003:000010f8       ?c_exit_complete@?1???R<lambda_6e4b09c48022b2350581041d5f6b0c4c>@@QBE@XZ@4_NA 1002b0f8     libucrt:exit.obj
 0003:00001208       __environ_table            1002b208     libucrt:environment_initialization.obj
 0003:0000120c       __wenviron_table           1002b20c     libucrt:environment_initialization.obj
 0003:00001210       ___dcrt_initial_wide_environment 1002b210     libucrt:environment_initialization.obj
 0003:00001214       ___dcrt_initial_narrow_environment 1002b214     libucrt:environment_initialization.obj
 0003:00001218       ___acrt_atexit_table       1002b218     libucrt:onexit.obj
 0003:00001224       ___acrt_at_quick_exit_table 1002b224     libucrt:onexit.obj
 0003:00001318       __nstream                  1002b318     libucrt:_file.obj
 0003:0000131c       ___piob                    1002b31c     libucrt:_file.obj
 0003:00001324       ___acrt_stdout_buffer      1002b324     libucrt:_sftbuf.obj
 0003:00001328       ___acrt_stderr_buffer      1002b328     libucrt:_sftbuf.obj
 0003:0000132c       ___acrt_locale_changed_data 1002b32c     libucrt:wsetlocale.obj
 0003:00001330       ___acrt_current_locale_data 1002b330     libucrt:nlsdata.obj
 0003:00001338       ___pioinfo                 1002b338     libucrt:ioinit.obj
 0003:00001538       __nhandle                  1002b538     libucrt:ioinit.obj
 0003:00001694       __mbctype                  1002b694     libucrt:mbctype.obj
 0003:00001698       __mbcasemap                1002b698     libucrt:mbctype.obj
 0003:0000169c       ___acrt_current_multibyte_data 1002b69c     libucrt:mbctype.obj
 0003:000016a8       __pgmptr                   1002b6a8     libucrt:argv_data.obj
 0003:000016ac       ___argc                    1002b6ac     libucrt:argv_data.obj
 0003:000016b0       ___argv                    1002b6b0     libucrt:argv_data.obj
 0003:000016b4       ___wargv                   1002b6b4     libucrt:argv_data.obj
 0003:000016b8       __acmdln                   1002b6b8     libucrt:argv_data.obj
 0003:000016bc       __wcmdln                   1002b6bc     libucrt:argv_data.obj
 0003:000016c0       ___acrt_heap               1002b6c0     libucrt:heap_handle.obj
 0003:000016dc       ___acrt_lconv_static_null  1002b6dc     libucrt:localeconv.obj
 0003:000016e0       ___acrt_lconv_static_W_null 1002b6e0     libucrt:localeconv.obj
 0003:000016f0       ___fastflag                1002b6f0     libucrt:fp_flags.obj
 0003:000016f8       ___dyn_tls_init_callback   1002b6f8     <common>
 0003:000016fc       ___scrt_ucrt_dll_is_in_use 1002b6fc     <common>
 0003:00001700       __pmatherr                 1002b700     <common>
 0003:00001704       ___use_sse2_mathfcns       1002b704     <common>

 entry point at        0001:0000c5ed

 Static symbols

 0000:fffcc000       .debug$S                   10000000     OPOSScale.exp
 0000:fffcc000       .debug$S                   10000000     advapi32:ADVAPI32.dll
 0000:fffcc000       .debug$S                   10000000     advapi32:ADVAPI32.dll
 0000:fffcc000       .debug$S                   10000000     advapi32:ADVAPI32.dll
 0000:fffcc000       .debug$S                   10000000     advapi32:ADVAPI32.dll
 0000:fffcc000       .debug$S                   10000000     advapi32:ADVAPI32.dll
 0000:fffcc000       .debug$S                   10000000     advapi32:ADVAPI32.dll
 0000:fffcc000       .debug$S                   10000000     advapi32:ADVAPI32.dll
 0000:fffcc000       .debug$S                   10000000     advapi32:ADVAPI32.dll
 0000:fffcc000       .debug$S                   10000000     advapi32:ADVAPI32.dll
 0000:fffcc000       .debug$S                   10000000     gdi32:GDI32.dll
 0000:fffcc000       .debug$S                   10000000     gdi32:GDI32.dll
 0000:fffcc000       .debug$S                   10000000     gdi32:GDI32.dll
 0000:fffcc000       .debug$S                   10000000     gdi32:GDI32.dll
 0000:fffcc000       .debug$S                   10000000     gdi32:GDI32.dll
 0000:fffcc000       .debug$S                   10000000     gdi32:GDI32.dll
 0000:fffcc000       .debug$S                   10000000     gdi32:GDI32.dll
 0000:fffcc000       .debug$S                   10000000     gdi32:GDI32.dll
 0000:fffcc000       .debug$S                   10000000     gdi32:GDI32.dll
 0000:fffcc000       .debug$S                   10000000     gdi32:GDI32.dll
 0000:fffcc000       .debug$S                   10000000     gdi32:GDI32.dll
 0000:fffcc000       .debug$S                   10000000     gdi32:GDI32.dll
 0000:fffcc000       .debug$S                   10000000     gdi32:GDI32.dll
 0000:fffcc000       .debug$S                   10000000     gdi32:GDI32.dll
 0000:fffcc000       .debug$S                   10000000     gdi32:GDI32.dll
 0000:fffcc000       .debug$S                   10000000     gdi32:GDI32.dll
 0000:fffcc000       .debug$S                   10000000     gdi32:GDI32.dll
 0000:fffcc000       .debug$S                   10000000     gdi32:GDI32.dll
 0000:fffcc000       .debug$S                   10000000     gdi32:GDI32.dll
 0000:fffcc000       .debug$S                   10000000     kernel32:KERNEL32.dll
 0000:fffcc000       .debug$S                   10000000     kernel32:KERNEL32.dll
 0000:fffcc000       .debug$S                   10000000     kernel32:KERNEL32.dll
 0000:fffcc000       .debug$S                   10000000     kernel32:KERNEL32.dll
 0000:fffcc000       .debug$S                   10000000     kernel32:KERNEL32.dll
 0000:fffcc000       .debug$S                   10000000     kernel32:KERNEL32.dll
 0000:fffcc000       .debug$S                   10000000     kernel32:KERNEL32.dll
 0000:fffcc000       .debug$S                   10000000     kernel32:KERNEL32.dll
 0000:fffcc000       .debug$S                   10000000     kernel32:KERNEL32.dll
 0000:fffcc000       .debug$S                   10000000     kernel32:KERNEL32.dll
 0000:fffcc000       .debug$S                   10000000     kernel32:KERNEL32.dll
 0000:fffcc000       .debug$S                   10000000     kernel32:KERNEL32.dll
 0000:fffcc000       .debug$S                   10000000     kernel32:KERNEL32.dll
 0000:fffcc000       .debug$S                   10000000     kernel32:KERNEL32.dll
 0000:fffcc000       .debug$S                   10000000     kernel32:KERNEL32.dll
 0000:fffcc000       .debug$S                   10000000     kernel32:KERNEL32.dll
 0000:fffcc000       .debug$S                   10000000     kernel32:KERNEL32.dll
 0000:fffcc000       .debug$S                   10000000     kernel32:KERNEL32.dll
 0000:fffcc000       .debug$S                   10000000     kernel32:KERNEL32.dll
 0000:fffcc000       .debug$S                   10000000     kernel32:KERNEL32.dll
 0000:fffcc000       .debug$S                   10000000     kernel32:KERNEL32.dll
 0000:fffcc000       .debug$S                   10000000     kernel32:KERNEL32.dll
 0000:fffcc000       .debug$S                   10000000     kernel32:KERNEL32.dll
 0000:fffcc000       .debug$S                   10000000     kernel32:KERNEL32.dll
 0000:fffcc000       .debug$S                   10000000     kernel32:KERNEL32.dll
 0000:fffcc000       .debug$S                   10000000     kernel32:KERNEL32.dll
 0000:fffcc000       .debug$S                   10000000     kernel32:KERNEL32.dll
 0000:fffcc000       .debug$S                   10000000     kernel32:KERNEL32.dll
 0000:fffcc000       .debug$S                   10000000     kernel32:KERNEL32.dll
 0000:fffcc000       .debug$S                   10000000     kernel32:KERNEL32.dll
 0000:fffcc000       .debug$S                   10000000     kernel32:KERNEL32.dll
 0000:fffcc000       .debug$S                   10000000     kernel32:KERNEL32.dll
 0000:fffcc000       .debug$S                   10000000     kernel32:KERNEL32.dll
 0000:fffcc000       .debug$S                   10000000     kernel32:KERNEL32.dll
 0000:fffcc000       .debug$S                   10000000     kernel32:KERNEL32.dll
 0000:fffcc000       .debug$S                   10000000     kernel32:KERNEL32.dll
 0000:fffcc000       .debug$S                   10000000     kernel32:KERNEL32.dll
 0000:fffcc000       .debug$S                   10000000     kernel32:KERNEL32.dll
 0000:fffcc000       .debug$S                   10000000     kernel32:KERNEL32.dll
 0000:fffcc000       .debug$S                   10000000     kernel32:KERNEL32.dll
 0000:fffcc000       .debug$S                   10000000     kernel32:KERNEL32.dll
 0000:fffcc000       .debug$S                   10000000     kernel32:KERNEL32.dll
 0000:fffcc000       .debug$S                   10000000     kernel32:KERNEL32.dll
 0000:fffcc000       .debug$S                   10000000     kernel32:KERNEL32.dll
 0000:fffcc000       .debug$S                   10000000     kernel32:KERNEL32.dll
 0000:fffcc000       .debug$S                   10000000     kernel32:KERNEL32.dll
 0000:fffcc000       .debug$S                   10000000     kernel32:KERNEL32.dll
 0000:fffcc000       .debug$S                   10000000     kernel32:KERNEL32.dll
 0000:fffcc000       .debug$S                   10000000     kernel32:KERNEL32.dll
 0000:fffcc000       .debug$S                   10000000     kernel32:KERNEL32.dll
 0000:fffcc000       .debug$S                   10000000     kernel32:KERNEL32.dll
 0000:fffcc000       .debug$S                   10000000     kernel32:KERNEL32.dll
 0000:fffcc000       .debug$S                   10000000     kernel32:KERNEL32.dll
 0000:fffcc000       .debug$S                   10000000     kernel32:KERNEL32.dll
 0000:fffcc000       .debug$S                   10000000     kernel32:KERNEL32.dll
 0000:fffcc000       .debug$S                   10000000     kernel32:KERNEL32.dll
 0000:fffcc000       .debug$S                   10000000     kernel32:KERNEL32.dll
 0000:fffcc000       .debug$S                   10000000     kernel32:KERNEL32.dll
 0000:fffcc000       .debug$S                   10000000     kernel32:KERNEL32.dll
 0000:fffcc000       .debug$S                   10000000     kernel32:KERNEL32.dll
 0000:fffcc000       .debug$S                   10000000     kernel32:KERNEL32.dll
 0000:fffcc000       .debug$S                   10000000     kernel32:KERNEL32.dll
 0000:fffcc000       .debug$S                   10000000     kernel32:KERNEL32.dll
 0000:fffcc000       .debug$S                   10000000     kernel32:KERNEL32.dll
 0000:fffcc000       .debug$S                   10000000     kernel32:KERNEL32.dll
 0000:fffcc000       .debug$S                   10000000     kernel32:KERNEL32.dll
 0000:fffcc000       .debug$S                   10000000     kernel32:KERNEL32.dll
 0000:fffcc000       .debug$S                   10000000     kernel32:KERNEL32.dll
 0000:fffcc000       .debug$S                   10000000     kernel32:KERNEL32.dll
 0000:fffcc000       .debug$S                   10000000     kernel32:KERNEL32.dll
 0000:fffcc000       .debug$S                   10000000     kernel32:KERNEL32.dll
 0000:fffcc000       .debug$S                   10000000     kernel32:KERNEL32.dll
 0000:fffcc000       .debug$S                   10000000     kernel32:KERNEL32.dll
 0000:fffcc000       .debug$S                   10000000     kernel32:KERNEL32.dll
 0000:fffcc000       .debug$S                   10000000     kernel32:KERNEL32.dll
 0000:fffcc000       .debug$S                   10000000     kernel32:KERNEL32.dll
 0000:fffcc000       .debug$S                   10000000     kernel32:KERNEL32.dll
 0000:fffcc000       .debug$S                   10000000     kernel32:KERNEL32.dll
 0000:fffcc000       .debug$S                   10000000     kernel32:KERNEL32.dll
 0000:fffcc000       .debug$S                   10000000     kernel32:KERNEL32.dll
 0000:fffcc000       .debug$S                   10000000     kernel32:KERNEL32.dll
 0000:fffcc000       .debug$S                   10000000     kernel32:KERNEL32.dll
 0000:fffcc000       .debug$S                   10000000     kernel32:KERNEL32.dll
 0000:fffcc000       .debug$S                   10000000     kernel32:KERNEL32.dll
 0000:fffcc000       .debug$S                   10000000     kernel32:KERNEL32.dll
 0000:fffcc000       .debug$S                   10000000     kernel32:KERNEL32.dll
 0000:fffcc000       .debug$S                   10000000     kernel32:KERNEL32.dll
 0000:fffcc000       .debug$S                   10000000     kernel32:KERNEL32.dll
 0000:fffcc000       .debug$S                   10000000     kernel32:KERNEL32.dll
 0000:fffcc000       .debug$S                   10000000     kernel32:KERNEL32.dll
 0000:fffcc000       .debug$S                   10000000     kernel32:KERNEL32.dll
 0000:fffcc000       .debug$S                   10000000     kernel32:KERNEL32.dll
 0000:fffcc000       .debug$S                   10000000     kernel32:KERNEL32.dll
 0000:fffcc000       .debug$S                   10000000     kernel32:KERNEL32.dll
 0000:fffcc000       .debug$S                   10000000     kernel32:KERNEL32.dll
 0000:fffcc000       .debug$S                   10000000     kernel32:KERNEL32.dll
 0000:fffcc000       .debug$S                   10000000     kernel32:KERNEL32.dll
 0000:fffcc000       .debug$S                   10000000     kernel32:KERNEL32.dll
 0000:fffcc000       .debug$S                   10000000     kernel32:KERNEL32.dll
 0000:fffcc000       .debug$S                   10000000     kernel32:KERNEL32.dll
 0000:fffcc000       .debug$S                   10000000     kernel32:KERNEL32.dll
 0000:fffcc000       .debug$S                   10000000     kernel32:KERNEL32.dll
 0000:fffcc000       .debug$S                   10000000     kernel32:KERNEL32.dll
 0000:fffcc000       .debug$S                   10000000     kernel32:KERNEL32.dll
 0000:fffcc000       .debug$S                   10000000     kernel32:KERNEL32.dll
 0000:fffcc000       .debug$S                   10000000     kernel32:KERNEL32.dll
 0000:fffcc000       .debug$S                   10000000     ole32:ole32.dll
 0000:fffcc000       .debug$S                   10000000     ole32:ole32.dll
 0000:fffcc000       .debug$S                   10000000     ole32:ole32.dll
 0000:fffcc000       .debug$S                   10000000     ole32:ole32.dll
 0000:fffcc000       .debug$S                   10000000     ole32:ole32.dll
 0000:fffcc000       .debug$S                   10000000     ole32:ole32.dll
 0000:fffcc000       .debug$S                   10000000     ole32:ole32.dll
 0000:fffcc000       .debug$S                   10000000     ole32:ole32.dll
 0000:fffcc000       .debug$S                   10000000     ole32:ole32.dll
 0000:fffcc000       .debug$S                   10000000     ole32:ole32.dll
 0000:fffcc000       .debug$S                   10000000     ole32:ole32.dll
 0000:fffcc000       .debug$S                   10000000     ole32:ole32.dll
 0000:fffcc000       .debug$S                   10000000     ole32:ole32.dll
 0000:fffcc000       .debug$S                   10000000     ole32:ole32.dll
 0000:fffcc000       .debug$S                   10000000     oleaut32:OLEAUT32.dll
 0000:fffcc000       .debug$S                   10000000     oleaut32:OLEAUT32.dll
 0000:fffcc000       .debug$S                   10000000     oleaut32:OLEAUT32.dll
 0000:fffcc000       .debug$S                   10000000     oleaut32:OLEAUT32.dll
 0000:fffcc000       .debug$S                   10000000     oleaut32:OLEAUT32.dll
 0000:fffcc000       .debug$S                   10000000     oleaut32:OLEAUT32.dll
 0000:fffcc000       .debug$S                   10000000     oleaut32:OLEAUT32.dll
 0000:fffcc000       .debug$S                   10000000     oleaut32:OLEAUT32.dll
 0000:fffcc000       .debug$S                   10000000     oleaut32:OLEAUT32.dll
 0000:fffcc000       .debug$S                   10000000     oleaut32:OLEAUT32.dll
 0000:fffcc000       .debug$S                   10000000     oleaut32:OLEAUT32.dll
 0000:fffcc000       .debug$S                   10000000     oleaut32:OLEAUT32.dll
 0000:fffcc000       .debug$S                   10000000     oleaut32:OLEAUT32.dll
 0000:fffcc000       .debug$S                   10000000     oleaut32:OLEAUT32.dll
 0000:fffcc000       .debug$S                   10000000     oleaut32:OLEAUT32.dll
 0000:fffcc000       .debug$S                   10000000     oleaut32:OLEAUT32.dll
 0000:fffcc000       .debug$S                   10000000     user32:USER32.dll
 0000:fffcc000       .debug$S                   10000000     user32:USER32.dll
 0000:fffcc000       .debug$S                   10000000     user32:USER32.dll
 0000:fffcc000       .debug$S                   10000000     user32:USER32.dll
 0000:fffcc000       .debug$S                   10000000     user32:USER32.dll
 0000:fffcc000       .debug$S                   10000000     user32:USER32.dll
 0000:fffcc000       .debug$S                   10000000     user32:USER32.dll
 0000:fffcc000       .debug$S                   10000000     user32:USER32.dll
 0000:fffcc000       .debug$S                   10000000     user32:USER32.dll
 0000:fffcc000       .debug$S                   10000000     user32:USER32.dll
 0000:fffcc000       .debug$S                   10000000     user32:USER32.dll
 0000:fffcc000       .debug$S                   10000000     user32:USER32.dll
 0000:fffcc000       .debug$S                   10000000     user32:USER32.dll
 0000:fffcc000       .debug$S                   10000000     user32:USER32.dll
 0000:fffcc000       .debug$S                   10000000     user32:USER32.dll
 0000:fffcc000       .debug$S                   10000000     user32:USER32.dll
 0000:fffcc000       .debug$S                   10000000     user32:USER32.dll
 0000:fffcc000       .debug$S                   10000000     user32:USER32.dll
 0000:fffcc000       .debug$S                   10000000     user32:USER32.dll
 0000:fffcc000       .debug$S                   10000000     user32:USER32.dll
 0000:fffcc000       .debug$S                   10000000     user32:USER32.dll
 0000:fffcc000       .debug$S                   10000000     user32:USER32.dll
 0000:fffcc000       .debug$S                   10000000     user32:USER32.dll
 0000:fffcc000       .debug$S                   10000000     user32:USER32.dll
 0000:fffcc000       .debug$S                   10000000     user32:USER32.dll
 0000:fffcc000       .debug$S                   10000000     user32:USER32.dll
 0000:fffcc000       .debug$S                   10000000     user32:USER32.dll
 0000:fffcc000       .debug$S                   10000000     user32:USER32.dll
 0000:fffcc000       .debug$S                   10000000     user32:USER32.dll
 0000:fffcc000       .debug$S                   10000000     user32:USER32.dll
 0000:fffcc000       .debug$S                   10000000     user32:USER32.dll
 0000:fffcc000       .debug$S                   10000000     user32:USER32.dll
 0000:fffcc000       .debug$S                   10000000     user32:USER32.dll
 0000:fffcc000       .debug$S                   10000000     user32:USER32.dll
 0000:fffcc000       .debug$S                   10000000     user32:USER32.dll
 0001:00000000       ??__E_AtlComModule@ATL@@YAXXZ 10001000 f   OposVariant.obj
 0001:00000016       ??__E_AtlWinModule@ATL@@YAXXZ 10001016 f   OposVariant.obj
 0001:0000002c       ??__E?pConnMap@?$IConnectionPointContainerImpl@VCOPOSScale@@@ATL@@0PBU_ATL_CONNMAP_ENTRY@2@B@@YAXXZ 1000102c f   Scale.obj
 0001:0000003a       ??__E_Module@@YAXXZ        1000103a f   Scale.obj
 0001:00000064       ??__E_AtlBaseModule@ATL@@YAXXZ 10001064 f   atls:atlbase.obj
 0001:000010d8       $LN24                      100020d8     Scale.obj
 0001:0000595a       $LN48                      1000695a     Scale.obj
 0001:00005972       $LN47                      10006972     Scale.obj
 0001:00007b1f       $LN38                      10008b1f     Scale.obj
 0001:00007b37       $LN37                      10008b37     Scale.obj
 0001:00009227       $LN76                      1000a227     Scale.obj
 0001:0000923f       $LN75                      1000a23f     Scale.obj
 0001:000095f8       _memcpy_s                  1000a5f8 f   Scale.obj
 0001:0000ba83       ?find_pe_section@@YAPAU_IMAGE_SECTION_HEADER@@QAEI@Z 1000ca83 f   LIBCMT:utility.obj
 0001:0000bda2       ?__scrt_initialize_thread_safe_statics@@YAHXZ 1000cda2 f   LIBCMT:thread_safe_statics.obj
 0001:0000bdc9       ?__scrt_initialize_thread_safe_statics_platform_specific@@YAXXZ 1000cdc9 f   LIBCMT:thread_safe_statics.obj
 0001:0000be4b       ?__scrt_uninitialize_thread_safe_statics@@YAXXZ 1000ce4b f   LIBCMT:thread_safe_statics.obj
 0001:0000c1ba       __catch$??2@YAPAXIABUnothrow_t@std@@@Z$0 1000d1ba f   LIBCMT:new_scalar_nothrow.obj
 0001:0000c1f0       $$000000                   1000d1f0     LIBCMT:sehprolg4gs.obj
 0001:0000c250       $$000000                   1000d250     LIBCMT:alloca16.obj
 0001:0000c280       $$000000                   1000d280     LIBCMT:chkstk.obj
 0001:0000c2ad       ?dllmain_crt_dispatch@@YGHQAUHINSTANCE__@@KQAX@Z 1000d2ad f   LIBCMT:dll_dllmain.obj
 0001:0000c300       ?dllmain_crt_process_attach@@YAHQAUHINSTANCE__@@QAX@Z 1000d300 f   LIBCMT:dll_dllmain.obj
 0001:0000c407       ?dllmain_crt_process_detach@@YAH_N@Z 1000d407 f   LIBCMT:dll_dllmain.obj
 0001:0000c4b7       ?dllmain_dispatch@@YAHQAUHINSTANCE__@@KQAX@Z 1000d4b7 f   LIBCMT:dll_dllmain.obj
 0001:0000c5c2       ?dllmain_raw@@YGHQAUHINSTANCE__@@KQAX@Z 1000d5c2 f   LIBCMT:dll_dllmain.obj
 0001:0000c940       $$000000                   1000d940     LIBCMT:sehprolg4.obj
 0001:0000c99c       ___get_entropy             1000d99c f   LIBCMT:gs_support.obj
 0001:0000cc93       ??$GetProcAddressAll@P6GP6GJPAUHWND__@@IIJ@ZPAUAtlThunkData_t@@@Z@@YAP6GP6GJPAUHWND__@@IIJ@ZPAUAtlThunkData_t@@@ZPAP6GP6GJ0IIJ@Z1@Z@Z 1000dc93 f   atls:atlthunk.obj
 0001:0000cc93       ??$GetProcAddressAll@P6GPAUAtlThunkData_t@@XZ@@YAP6GPAUAtlThunkData_t@@XZPAP6GPAU0@XZ@Z 1000dc93 f   atls:atlthunk.obj
 0001:0000cc93       ??$GetProcAddressAll@P6GXPAUAtlThunkData_t@@@Z@@YAP6GXPAUAtlThunkData_t@@@ZPAP6GX0@Z@Z 1000dc93 f   atls:atlthunk.obj
 0001:0000cc93       ??$GetProcAddressAll@P6GXPAUAtlThunkData_t@@PAXI@Z@@YAP6GXPAUAtlThunkData_t@@PAXI@ZPAP6GX01I@Z@Z 1000dc93 f   atls:atlthunk.obj
 0001:0000cd43       ?GetProcAddressSingle@@YA_NPAUHINSTANCE__@@PBDPAPAX@Z 1000dd43 f   atls:atlthunk.obj
 0001:0000ce95       ?__InitializeThunkPool@@YAHXZ 1000de95 f   atls:atlthunk.obj
 0001:0000d2e0       _ValidateLocalCookies      1000e2e0 f   libvcruntime:chandler4.obj
 0001:0000e30a       $LN1250                    1000f30a     libvcruntime:memcmp.obj
 0001:0000e390       $$000000                   1000f390     libvcruntime:memcpy.obj
 0001:0000e5f4       TrailingUpVec              1000f5f4     libvcruntime:memcpy.obj
 0001:0000e6a0       TrailingDownVec            1000f6a0     libvcruntime:memcpy.obj
 0001:0000e910       $$000000                   1000f910     libvcruntime:memset.obj
 0001:0000ef13       ?_FilterSetCurrentException@@YAKPAU_EXCEPTION_POINTERS@@E@Z 1000ff13 f   libvcruntime:ehhelpers.obj
 0001:0000f160       $$000000                   10010160     libvcruntime:memmove.obj
 0001:0000f3c4       TrailingUpVec              100103c4     libvcruntime:memmove.obj
 0001:0000f470       TrailingDownVec            10010470     libvcruntime:memmove.obj
 0001:0000f6e0       $$000000                   100106e0     libvcruntime:exsup4.obj
 0001:0000f770       __unwind_handler4          10010770 f   libvcruntime:exsup4.obj
 0001:0000fa4f       ??$BuildCatchObjectHelperInternal@V__FrameHandler3@@@@YAHPAUEHExceptionRecord@@PAXPBU_s_HandlerType@@PBU_s_CatchableType@@@Z 10010a4f f   libvcruntime:frame.obj
 0001:0000fb8d       ??$BuildCatchObjectInternal@V__FrameHandler3@@@@YAXPAUEHExceptionRecord@@PAXPBU_s_HandlerType@@PBU_s_CatchableType@@@Z 10010b8d f   libvcruntime:frame.obj
 0001:0000fc26       ??$CatchIt@V__FrameHandler3@@@@YAXPAUEHExceptionRecord@@PAUEHRegistrationNode@@PAU_CONTEXT@@PAXPBU_s_FuncInfo@@PBU_s_HandlerType@@PBU_s_CatchableType@@PBU_s_TryBlockMapEntry@@H1EE@Z 10010c26 f   libvcruntime:frame.obj
 0001:0000fca6       ??$FindHandler@V__FrameHandler3@@@@YAXPAUEHExceptionRecord@@PAUEHRegistrationNode@@PAU_CONTEXT@@PAXPBU_s_FuncInfo@@EH1@Z 10010ca6 f   libvcruntime:frame.obj
 0001:0001005c       ??$FindHandlerForForeignException@V__FrameHandler3@@@@YAXPAUEHExceptionRecord@@PAUEHRegistrationNode@@PAU_CONTEXT@@PAXPBU_s_FuncInfo@@HH1@Z 1001105c f   libvcruntime:frame.obj
 0001:00010374       ?CallCatchBlock@@YAPAXPAUEHExceptionRecord@@PAUEHRegistrationNode@@PAU_CONTEXT@@PBU_s_FuncInfo@@PAXHK@Z 10011374 f   libvcruntime:frame.obj
 0001:00010538       ?CallUnexpected@@YAXPBU_s_ESTypeList@@@Z 10011538 f   libvcruntime:frame.obj
 0001:00010558       __catch$?CallUnexpected@@YAXPBU_s_ESTypeList@@@Z$0 10011558 f   libvcruntime:frame.obj
 0001:00010572       ?ExFilterRethrow@@YAHPAU_EXCEPTION_POINTERS@@@Z 10011572 f   libvcruntime:frame.obj
 0001:000106bc       ?IsInExceptionSpec@@YAEPAUEHExceptionRecord@@PBU_s_ESTypeList@@@Z 100116bc f   libvcruntime:frame.obj
 0001:00010790       $$000000                   10011790     libvcruntime:lowhelpr.obj
 0001:000107e0       $$000000                   100117e0     libvcruntime:exsup.obj
 0001:00010801       __unwind_handler           10011801 f   libvcruntime:exsup.obj
 0001:0001091e       ?try_get_first_available_module@@YAPAUHINSTANCE__@@QBW4module_id@?A0x9d0f8d90@@0@Z 1001191e f   libvcruntime:winapi_downlevel.obj
 0001:000109b8       ?try_get_function@@YAPAXW4function_id@?A0x9d0f8d90@@QBDQBW4module_id@2@2@Z 100119b8 f   libvcruntime:winapi_downlevel.obj
 0001:00011042       ??$common_tcsncpy_s@_W@@YAHQA_WIQB_WI@Z 10012042 f   libucrt:wcsncpy_s.obj
 0001:00011118       ??$common_vsprintf@Vformat_validation_base@__crt_stdio_output@@_W@@YAH_KQA_WIQB_WQAU__crt_locale_pointers@@QAD@Z 10012118 f   libucrt:output.obj
 0001:0001129f       ??$common_vsprintf_s@_W@@YAH_KQA_WIQB_WQAU__crt_locale_pointers@@QAD@Z 1001229f f   libucrt:output.obj
 0001:00011a03       $LN48                      10012a03     libucrt:output.obj
 0001:00011f0c       $LN18                      10012f0c     libucrt:output.obj
 0001:00011f20       $LN17                      10012f20     libucrt:output.obj
 0001:0001277b       ??$?RV<lambda_03b1d95aef87969028cfba75ccab2455>@@AAV<lambda_6e4b09c48022b2350581041d5f6b0c4c>@@V<lambda_22bdf7517842c4b3e53723af5aa32b9e>@@@?$__crt_seh_guarded_call@X@@QAEX$$QAV<lambda_03b1d95aef87969028cfba75ccab2455>@@AAV<lambda_6e4b09c48022b2350581041d5f6b0c4c>@@$$QAV<lambda_22bdf7517842c4b3e53723af5aa32b9e>@@@Z 1001377b f   libucrt:exit.obj
 0001:000127c8       ??R<lambda_6e4b09c48022b2350581041d5f6b0c4c>@@QBE@XZ 100137c8 f   libucrt:exit.obj
 0001:000128a2       ?atexit_exception_filter@@YAHK@Z 100138a2 f   libucrt:exit.obj
 0001:000128b5       ?common_exit@@YAXHW4_crt_exit_cleanup_mode@@W4_crt_exit_return_mode@@@Z 100138b5 f   libucrt:exit.obj
 0001:00012919       ?exit_or_terminate_process@@YAXI@Z 10013919 f   libucrt:exit.obj
 0001:0001295b       ?is_managed_app@@YA_NXZ    1001395b f   libucrt:exit.obj
 0001:0001299e       ?try_cor_exit_process@@YAXI@Z 1001399e f   libucrt:exit.obj
 0001:00012a2c       ??$common_configure_argv@D@@YAHW4_crt_argv_mode@@@Z 10013a2c f   libucrt:argv_parsing.obj
 0001:00012b62       ??$parse_command_line@D@@YAXPADPAPAD0PAI2@Z 10013b62 f   libucrt:argv_parsing.obj
 0001:00012d30       ??$common_initialize_environment_nolock@D@@YAHXZ 10013d30 f   libucrt:environment_initialization.obj
 0001:00012d83       ??$create_environment@D@@YAQAPADQAD@Z 10013d83 f   libucrt:environment_initialization.obj
 0001:00012e53       ??$free_environment@D@@YAXQAPAD@Z 10013e53 f   libucrt:environment_initialization.obj
 0001:00012e53       ??$free_environment@_W@@YAXQAPA_W@Z 10013e53 f   libucrt:environment_initialization.obj
 0001:00012eab       ??$uninitialize_environment_internal@D@@YAXAAPAPAD@Z 10013eab f   libucrt:environment_initialization.obj
 0001:00012ec6       ??$uninitialize_environment_internal@_W@@YAXAAPAPA_W@Z 10013ec6 f   libucrt:environment_initialization.obj
 0001:00012f1d       ??$?RV<lambda_69a2805e680e0e292e8ba93315fe43a8>@@AAV<lambda_f03950bc5685219e0bcd2087efbe011e>@@V<lambda_03fcd07e894ec930e3f35da366ca99d6>@@@?$__crt_seh_guarded_call@H@@QAEH$$QAV<lambda_69a2805e680e0e292e8ba93315fe43a8>@@AAV<lambda_f03950bc5685219e0bcd2087efbe011e>@@$$QAV<lambda_03fcd07e894ec930e3f35da366ca99d6>@@@Z 10013f1d f   libucrt:onexit.obj
 0001:00012f78       ??$?RV<lambda_8e746cf0007f6ed984d6f78af1fec997>@@AAV<lambda_22ebabd17bc4fa466a2aca6d8deb888d>@@V<lambda_18ed0c0b38a6dc0daf1e7ac6d6adf05e>@@@?$__crt_seh_guarded_call@H@@QAEH$$QAV<lambda_8e746cf0007f6ed984d6f78af1fec997>@@AAV<lambda_22ebabd17bc4fa466a2aca6d8deb888d>@@$$QAV<lambda_18ed0c0b38a6dc0daf1e7ac6d6adf05e>@@@Z 10013f78 f   libucrt:onexit.obj
 0001:00012ff2       ??R<lambda_22ebabd17bc4fa466a2aca6d8deb888d>@@QBEHXZ 10013ff2 f   libucrt:onexit.obj
 0001:0001311b       ??R<lambda_f03950bc5685219e0bcd2087efbe011e>@@QBEHXZ 1001411b f   libucrt:onexit.obj
 0001:00013294       _initialize_global_variables 10014294 f   libucrt:initialization.obj
 0001:000132a1       _initialize_c              100142a1 f   libucrt:initialization.obj
 0001:000132bb       _initialize_environment    100142bb f   libucrt:initialization.obj
 0001:000132bb       _initialize_global_state_isolation 100142bb f   libucrt:initialization.obj
 0001:000132bb       _report_memory_leaks       100142bb f   libucrt:initialization.obj
 0001:000132bb       _uninitialize_c            100142bb f   libucrt:initialization.obj
 0001:000132bb       _uninitialize_global_state_isolation 100142bb f   libucrt:initialization.obj
 0001:000132be       _uninitialize_environment  100142be f   libucrt:initialization.obj
 0001:000132c6       _initialize_pointers       100142c6 f   libucrt:initialization.obj
 0001:000132f4       _uninitialize_vcruntime    100142f4 f   libucrt:initialization.obj
 0001:000132fd       _uninitialize_allocated_memory 100142fd f   libucrt:initialization.obj
 0001:00013314       _uninitialize_allocated_io_buffers 10014314 f   libucrt:initialization.obj
 0001:00013364       ??R<lambda_af42a3ee9806e9a7305d451646e05244>@@QBEXAAPAU__crt_multibyte_data@@@Z 10014364 f   libucrt:initialization.obj
 0001:00013c50       $$000000                   10014c50     libucrt:strncmp.obj
 0001:00013d3c       ??$?RV<lambda_15ade71b0218206bbe3333a0c9b79046>@@AAV<lambda_da44e0f8b0f19ba52fefafb335991732>@@V<lambda_207f2d024fc103971653565357d6cd41>@@@?$__crt_seh_guarded_call@X@@QAEX$$QAV<lambda_15ade71b0218206bbe3333a0c9b79046>@@AAV<lambda_da44e0f8b0f19ba52fefafb335991732>@@$$QAV<lambda_207f2d024fc103971653565357d6cd41>@@@Z 10014d3c f   libucrt:per_thread_data.obj
 0001:00013d8e       ??$?RV<lambda_38edbb1296d33220d7e4dd0ed76b244a>@@AAV<lambda_5ce1d447e08cb34b2473517608e21441>@@V<lambda_fb385d3da700c9147fc39e65dd577a8c>@@@?$__crt_seh_guarded_call@X@@QAEX$$QAV<lambda_38edbb1296d33220d7e4dd0ed76b244a>@@AAV<lambda_5ce1d447e08cb34b2473517608e21441>@@$$QAV<lambda_fb385d3da700c9147fc39e65dd577a8c>@@@Z 10014d8e f   libucrt:per_thread_data.obj
 0001:00013df9       ??$?RV<lambda_6affb1475c98b40b75cdec977db92e3c>@@AAV<lambda_b8d4b9c228a6ecc3f80208dbb4b4a104>@@V<lambda_608742c3c92a14382c1684fc64f96c88>@@@?$__crt_seh_guarded_call@X@@QAEX$$QAV<lambda_6affb1475c98b40b75cdec977db92e3c>@@AAV<lambda_b8d4b9c228a6ecc3f80208dbb4b4a104>@@$$QAV<lambda_608742c3c92a14382c1684fc64f96c88>@@@Z 10014df9 f   libucrt:per_thread_data.obj
 0001:00013e4e       ??$?RV<lambda_a7e850c220f1c8d1e6efeecdedd162c6>@@AAV<lambda_46720907175c18b6c9d2717bc0d2d362>@@V<lambda_9048902d66e8d99359bc9897bbb930a8>@@@?$__crt_seh_guarded_call@X@@QAEX$$QAV<lambda_a7e850c220f1c8d1e6efeecdedd162c6>@@AAV<lambda_46720907175c18b6c9d2717bc0d2d362>@@$$QAV<lambda_9048902d66e8d99359bc9897bbb930a8>@@@Z 10014e4e f   libucrt:per_thread_data.obj
 0001:00013ea8       ?construct_ptd@@YAXQAU__acrt_ptd@@QAPAU__crt_locale_data@@@Z 10014ea8 f   libucrt:per_thread_data.obj
 0001:00013f41       ?destroy_fls@@YGXPAX@Z     10014f41 f   libucrt:per_thread_data.obj
 0001:00013f62       ?destroy_ptd@@YAXQAU__acrt_ptd@@@Z 10014f62 f   libucrt:per_thread_data.obj
 0001:0001402f       ?replace_current_thread_locale_nolock@@YAXQAU__acrt_ptd@@QAU__crt_locale_data@@@Z 1001502f f   libucrt:per_thread_data.obj
 0001:0001443f       ?try_get_AreFileApisANSI@@YAP6GHXZXZ 1001543f f   libucrt:winapi_thunks.obj
 0001:00014459       ?try_get_LCMapStringEx@@YAP6GHPB_WK0HPA_WHPAU_nlsversioninfo@@PAXJ@ZXZ 10015459 f   libucrt:winapi_thunks.obj
 0001:00014473       ?try_get_LocaleNameToLCID@@YAP6GKPB_WK@ZXZ 10015473 f   libucrt:winapi_thunks.obj
 0001:0001448d       ?try_get_first_available_module@@YAPAUHINSTANCE__@@QBW4module_id@?A0x391cf84c@@0@Z 1001548d f   libucrt:winapi_thunks.obj
 0001:00014554       ?try_get_function@@YAPAXW4function_id@?A0x391cf84c@@QBDQBW4module_id@2@2@Z 10015554 f   libucrt:winapi_thunks.obj
 0001:00014cb7       ?fe_to_nearest@@YA_NQBN_KF@Z 10015cb7 f   libucrt:cvt.obj
 0001:00014d5a       ?fp_format_a@@YAHQBNPADIQADIH_NIQAU__crt_locale_pointers@@W4__acrt_rounding_mode@@@Z 10015d5a f   libucrt:cvt.obj
 0001:00015069       ?fp_format_e@@YAHQBNQADI1IH_NIQAU__crt_locale_pointers@@W4__acrt_rounding_mode@@@Z 10016069 f   libucrt:cvt.obj
 0001:00015111       ?fp_format_e_internal@@YAHQADIH_NIQAU_strflt@@1QAU__crt_locale_pointers@@@Z 10016111 f   libucrt:cvt.obj
 0001:00015259       ?fp_format_f@@YAHQBNQADI1IHQAU__crt_locale_pointers@@W4__acrt_rounding_mode@@@Z 10016259 f   libucrt:cvt.obj
 0001:000152ea       ?fp_format_f_internal@@YAHQADIHQAU_strflt@@_NQAU__crt_locale_pointers@@@Z 100162ea f   libucrt:cvt.obj
 0001:000153e2       ?fp_format_g@@YAHQBNQADI1IH_NIQAU__crt_locale_pointers@@@Z 100163e2 f   libucrt:cvt.obj
 0001:000154ab       ?fp_format_nan_or_infinity@@YAHW4__acrt_fp_class@@_NPADI1@Z 100164ab f   libucrt:cvt.obj
 0001:00015540       ?shift_bytes@@YAXQADI0H@Z  10016540 f   libucrt:cvt.obj
 0001:00015574       ?should_round_up@@YA_NQBN_KFW4__acrt_rounding_mode@@@Z 10016574 f   libucrt:cvt.obj
 0001:000158dd       ??$?RV<lambda_e5124f882df8998aaf41531e079ba474>@@AAV<lambda_3e16ef9562a7dcce91392c22ab16ea36>@@V<lambda_e25ca0880e6ef98be67edffd8c599615>@@@?$__crt_seh_guarded_call@X@@QAEX$$QAV<lambda_e5124f882df8998aaf41531e079ba474>@@AAV<lambda_3e16ef9562a7dcce91392c22ab16ea36>@@$$QAV<lambda_e25ca0880e6ef98be67edffd8c599615>@@@Z 100168dd f   libucrt:wsetlocale.obj
 0001:0001597d       ?initialize_inherited_file_handles_nolock@@YAXXZ 1001697d f   libucrt:ioinit.obj
 0001:00015a33       ?initialize_stdio_handles_nolock@@YAXXZ 10016a33 f   libucrt:ioinit.obj
 0001:00015c44       ?<lambda_invoker_cdecl>@<lambda_838c7f62c73c983481e27c09e84b0b5d>@@CAHPBX0@Z 10016c44 f   libucrt:argv_wildcards.obj
 0001:00015c5c       ??$__acrt_convert_wcs_mbs_cp@D_WV<lambda_62f6974d9771e494a5ea317cc32e971c>@@U__crt_win32_buffer_internal_dynamic_resizing@@@@YAHQBDAAV?$__crt_win32_buffer@_WU__crt_win32_buffer_internal_dynamic_resizing@@@@ABV<lambda_62f6974d9771e494a5ea317cc32e971c>@@I@Z 10016c5c f   libucrt:argv_wildcards.obj
 0001:00015d0e       ??$__acrt_convert_wcs_mbs_cp@_WDV<lambda_28bda7af82a03b66c1cb3803a755f95d>@@U__crt_win32_buffer_internal_dynamic_resizing@@@@YAHQB_WAAV?$__crt_win32_buffer@DU__crt_win32_buffer_internal_dynamic_resizing@@@@ABV<lambda_28bda7af82a03b66c1cb3803a755f95d>@@I@Z 10016d0e f   libucrt:argv_wildcards.obj
 0001:00015dfa       ??$common_expand_argv_wildcards@D@@YAHQAPADQAPAPAD@Z 10016dfa f   libucrt:argv_wildcards.obj
 0001:00015fe9       ??$copy_and_add_argument_to_buffer@D@@YAHQBD0IAAV?$argument_list@D@?A0x5f5c8891@@@Z 10016fe9 f   libucrt:argv_wildcards.obj
 0001:0001609a       ??$expand_argument_wildcards@D@@YAHQAD0AAV?$argument_list@D@?A0x5f5c8891@@@Z 1001709a f   libucrt:argv_wildcards.obj
 0001:000163e4       ?expand_if_necessary@?$argument_list@D@?A0x5f5c8891@@AAEHXZ 100173e4 f   libucrt:argv_wildcards.obj
 0001:00016476       ??$__acrt_convert_wcs_mbs_cp@_WDV<lambda_0fec1a7b3f42a53036604e18c2d5e07e>@@U__crt_win32_buffer_no_resizing@@@@YAHQB_WAAV?$__crt_win32_buffer@DU__crt_win32_buffer_no_resizing@@@@ABV<lambda_0fec1a7b3f42a53036604e18c2d5e07e>@@I@Z 10017476 f   libucrt:getmodulefilenamea.obj
 0001:00016619       ??$?RV<lambda_ceb1ee4838e85a9d631eb091e2fbe199>@@AAV<lambda_ae742caa10f662c28703da3d2ea5e57e>@@V<lambda_cd08b5d6af4937fe54fc07d0c9bf6b37>@@@?$__crt_seh_guarded_call@X@@QAEX$$QAV<lambda_ceb1ee4838e85a9d631eb091e2fbe199>@@AAV<lambda_ae742caa10f662c28703da3d2ea5e57e>@@$$QAV<lambda_cd08b5d6af4937fe54fc07d0c9bf6b37>@@@Z 10017619 f   libucrt:mbctype.obj
 0001:00016666       ??R<lambda_ae742caa10f662c28703da3d2ea5e57e>@@QBEXXZ 10017666 f   libucrt:mbctype.obj
 0001:000166e9       ?CPtoLocaleName@@YAPB_WH@Z 100176e9 f   libucrt:mbctype.obj
 0001:00016727       ?getSystemCP@@YAHH@Z       10017727 f   libucrt:mbctype.obj
 0001:00016798       ?setSBCS@@YAXPAU__crt_multibyte_data@@@Z 10017798 f   libucrt:mbctype.obj
 0001:000167fd       ?setSBUpLow@@YAXPAU__crt_multibyte_data@@@Z 100177fd f   libucrt:mbctype.obj
 0001:0001697d       ?setmbcp_internal@@YAHH_NQAU__acrt_ptd@@QAPAU__crt_multibyte_data@@@Z 1001797d f   libucrt:mbctype.obj
 0001:00016a91       ?update_thread_multibyte_data_internal@@YAPAU__crt_multibyte_data@@QAU__acrt_ptd@@QAPAU1@@Z 10017a91 f   libucrt:mbctype.obj
 0001:00016d7f       _memcpy_s                  10017d7f f   libucrt:cfout.obj
 0001:00016d7f       _memcpy_s                  10017d7f f   libucrt:mbctype.obj
 0001:00016e00       ?x_ismbbtype_l@@YAHPAU__crt_locale_pointers@@IHH@Z 10017e00 f   libucrt:ismbbyte.obj
 0001:00016fbb       ?find_end_of_double_null_terminated_sequence@@YAPB_WQB_W@Z 10017fbb f   libucrt:get_environment_from_os.obj
 0001:0001712a       ??$?RV<lambda_cbab9ec6f41b0180b23cc171c22676b0>@@AAV<lambda_44731a7d0e6d81c3e6aa82d741081786>@@V<lambda_4b292cb8dd18144e164572427af410ab>@@@?$__crt_seh_guarded_call@P6AXH@Z@@QAEP6AXH@Z$$QAV<lambda_cbab9ec6f41b0180b23cc171c22676b0>@@AAV<lambda_44731a7d0e6d81c3e6aa82d741081786>@@$$QAV<lambda_4b292cb8dd18144e164572427af410ab>@@@Z 1001812a f   libucrt:signal.obj
 0001:0001718e       ?get_global_action_nolock@@YAPAP6AXH@ZH@Z 1001818e f   libucrt:signal.obj
 0001:000171d0       ?siglookup@@YAPAU__crt_signal_action_t@@HQAU1@@Z 100181d0 f   libucrt:signal.obj
 0001:00017489       ??$?RV<lambda_2866be3712abc81a800a822484c830d8>@@AAV<lambda_39ca0ed439415581b5b15c265174cece>@@V<lambda_2b24c74d71094a6cd0cb82e44167d71b>@@@?$__crt_seh_guarded_call@X@@QAEX$$QAV<lambda_2866be3712abc81a800a822484c830d8>@@AAV<lambda_39ca0ed439415581b5b15c265174cece>@@$$QAV<lambda_2b24c74d71094a6cd0cb82e44167d71b>@@@Z 10018489 f   libucrt:fflush.obj
 0001:00017515       ??$?RV<lambda_2cc53f568c5a2bb6f192f930a45d44ea>@@AAV<lambda_ab61a845afdef5b7c387490eaf3616ee>@@V<lambda_c2ffc0b7726aa6be21d5f0026187e748>@@@?$__crt_seh_guarded_call@X@@QAEX$$QAV<lambda_2cc53f568c5a2bb6f192f930a45d44ea>@@AAV<lambda_ab61a845afdef5b7c387490eaf3616ee>@@$$QAV<lambda_c2ffc0b7726aa6be21d5f0026187e748>@@@Z 10018515 f   libucrt:fflush.obj
 0001:000175c1       ?common_flush_all@@YAH_N@Z 100185c1 f   libucrt:fflush.obj
 0001:0001760e       ?common_flush_all_should_try_to_flush_stream@@YA_NV__crt_stdio_stream@@QAH@Z 1001860e f   libucrt:fflush.obj
 0001:00017641       ?is_stream_flushable_or_commitable@@YA_NJ@Z 10018641 f   libucrt:fflush.obj
 0001:00017b4a       ?GetTableIndexFromLocaleName@@YAHPB_W@Z 10018b4a f   libucrt:lcidtoname_downlevel.obj
 0001:00017c00       ??R<lambda_3d301b9e52f5099be73030e1f0bf487e>@@QBEIPBD@Z 10018c00 f   libucrt:mbrtowc.obj
 0001:00017d86       ?should_round_up@@YA_NQBDHW4__acrt_has_trailing_digits@@W4__acrt_rounding_mode@@@Z 10018d86 f   libucrt:_fptostr.obj
 0001:00019b24       ?free_crt_array_internal@@YAXQAPBXI@Z 1001ab24 f   libucrt:inittime.obj
 0001:0001a4ee       ??$common_tcsncpy_s@D@@YAHQADIQBDI@Z 1001b4ee f   libucrt:strncpy_s.obj
 0001:0001a5b0       $$000000                   1001b5b0     libucrt:strpbrk.obj
 0001:0001a694       ?__acrt_LCMapStringA_stat@@YAHPAU__crt_locale_pointers@@PB_WKPBDHPADHHH@Z 1001b694 f   libucrt:lcmapstringa.obj
 0001:0001a8c7       ?initialize_multibyte@@YAHXZ 1001b8c7 f   libucrt:multibyte_initializer.obj
 0001:0001a8d6       ??$?RV<lambda_9e9de3de5fa147e2223d7db92bc10aa6>@@AAV<lambda_38ce7e780aa69e748d6df282ebc68efe>@@V<lambda_8ca6da459f0f6780f1cff60fdc3d00e5>@@@?$__crt_seh_guarded_call@H@@QAEH$$QAV<lambda_9e9de3de5fa147e2223d7db92bc10aa6>@@AAV<lambda_38ce7e780aa69e748d6df282ebc68efe>@@$$QAV<lambda_8ca6da459f0f6780f1cff60fdc3d00e5>@@@Z 1001b8d6 f   libucrt:commit.obj
 0001:0001a9f5       ?write_double_translated_ansi_nolock@@YA?AUwrite_result@?A0x17268360@@HQBDI@Z 1001b9f5 f   libucrt:write.obj
 0001:0001ada1       ?write_double_translated_unicode_nolock@@YA?AUwrite_result@?A0x17268360@@QBDI@Z 1001bda1 f   libucrt:write.obj
 0001:0001ae09       ?write_requires_double_translation_nolock@@YA_NH@Z 1001be09 f   libucrt:write.obj
 0001:0001ae7a       ?write_text_ansi_nolock@@YA?AUwrite_result@?A0x17268360@@HQBDI@Z 1001be7a f   libucrt:write.obj
 0001:0001af55       ?write_text_utf16le_nolock@@YA?AUwrite_result@?A0x17268360@@HQBDI@Z 1001bf55 f   libucrt:write.obj
 0001:0001b03e       ?write_text_utf8_nolock@@YA?AUwrite_result@?A0x17268360@@HQBDI@Z 1001c03e f   libucrt:write.obj
 0001:0001b760       $$000000                   1001c760     libucrt:log10_impl.obj
 0001:0001b870       $$000000                   1001c870     libucrt:ceil_pentium4.obj
 0001:0001b98d       ?to_abstract_control@@YA?AW4__acrt_fenv_abstract_control@@W4__acrt_fenv_machine_sse_control@@@Z 1001c98d f   libucrt:_fenvutils.obj
 0001:0001ba49       ?to_abstract_control@@YA?AW4__acrt_fenv_abstract_control@@W4__acrt_fenv_machine_x87_control@@@Z 1001ca49 f   libucrt:_fenvutils.obj
 0001:0001bb02       ?to_machine_sse_control@@YA?AW4__acrt_fenv_machine_sse_control@@W4__acrt_fenv_abstract_control@@@Z 1001cb02 f   libucrt:_fenvutils.obj
 0001:0001bbcf       ?to_machine_x87_control@@YA?AW4__acrt_fenv_machine_x87_control@@W4__acrt_fenv_abstract_control@@@Z 1001cbcf f   libucrt:_fenvutils.obj
 0001:0001bf63       ??$common_lseek_nolock@_J@@YA_JH_JH@Z 1001cf63 f   libucrt:lseek.obj
 0001:0001c149       ___hw_cw_sse2              1001d149 f   libucrt:ieee87.obj
 0001:0001c5cf       __hw_cw                    1001d5cf f   libucrt:ieee87.obj
 0001:0001c680       $$000000                   1001d680     libucrt:log10_pentium4.obj
 0001:0001c910       $$000000                   1001d910     libucrt:87tran.obj
 0001:0001cb20       $$000000                   1001db20     libucrt:87disp.obj
 0001:0001cd80       $$000000                   1001dd80     libucrt:common.obj
 0001:0001cf10       $$000000                   1001df10     libucrt:genexcep.obj
 0001:0001d20c       ??$?RV<lambda_218ce3db14220d0be481dae8ef3383b6>@@AAV<lambda_628dfdc04ba53c8bfc02c9951375f3f5>@@V<lambda_57dc472bd5c9d5f3b2cbca59b8a843ae>@@@?$__crt_seh_guarded_call@H@@QAEH$$QAV<lambda_218ce3db14220d0be481dae8ef3383b6>@@AAV<lambda_628dfdc04ba53c8bfc02c9951375f3f5>@@$$QAV<lambda_57dc472bd5c9d5f3b2cbca59b8a843ae>@@@Z 1001e20c f   libucrt:close.obj
 0001:0001d400       $$000000                   1001e400     libucrt:_strnicm.obj
 0001:0001d461       ?__dcrt_lowio_initialize_console_output@@YAXXZ 1001e461 f   libucrt:initcon.obj
 0001:0001e340       $$000000                   1001f340     LIBCMT:ulldvrm.obj
 0001:0001e3e0       $$000000                   1001f3e0     LIBCMT:llmul.obj
 0001:0001e420       $$000000                   1001f420     LIBCMT:lldvrm.obj
 0001:0001e500       $$000000                   1001f500     LIBCMT:llshl.obj
 0001:0001e520       $$000000                   1001f520     LIBCMT:ullshr.obj
 0001:0001e540       $$000000                   1001f540     LIBCMT:ftol2.obj
 0001:0001e7e0       $$000000                   1001f7e0     libvcruntime:strrchr.obj
 0001:0001e920       $$000000                   1001f920     libvcruntime:strchr.obj
 0001:0001eac3       __ehhandler$??2@YAPAXIABUnothrow_t@std@@@Z 1001fac3 f   LIBCMT:new_scalar_nothrow.obj
 0001:0001eade       __ehhandler$?CallUnexpected@@YAXPBU_s_ESTypeList@@@Z 1001fade f   libvcruntime:frame.obj
 0001:0001eaf9       ??__F_AtlComModule@ATL@@YAXXZ 1001faf9 f   OposVariant.obj
 0001:0001eb03       ??__F_AtlWinModule@ATL@@YAXXZ 1001fb03 f   OposVariant.obj
 0001:0001eb1d       ??__F_Module@@YAXXZ        1001fb1d f   Scale.obj
 0001:0001eb31       ??__F_AtlBaseModule@ATL@@YAXXZ 1001fb31 f   atls:atlbase.obj
 0002:00000304       ?_AtlBaseModule$initializer$@ATL@@3P6AXXZA 10020304     atls:atlbase.obj
 0002:00000308       ?_AtlComModule$initializer$@ATL@@3P6AXXZA 10020308     OposVariant.obj
 0002:0000030c       ?_AtlWinModule$initializer$@ATL@@3P6AXXZA 1002030c     OposVariant.obj
 0002:00000310       ?_Module$initializer$@@3P6AXXZA 10020310     Scale.obj
 0002:00000314       ??pConnMap$initializer$@?$IConnectionPointContainerImpl@VCOPOSScale@@@ATL@@0P6AXXZA@@3P6AXXZA 10020314     Scale.obj
 0002:00000320       ?__scrt_initialize_tss_var@@3P6AHXZA 10020320     LIBCMT:thread_safe_statics.obj
 0002:00001a10       _GS_ExceptionPointers      10021a10     LIBCMT:gs_report.obj
 0002:00001ba0       ?tokenTable@@3QBUStringLiteral@@B 10021ba0     libvcruntime:undname.obj
 0002:00001c20       ?nameTable@@3QBUStringLiteral@@B 10021c20     libvcruntime:undname.obj
 0002:00001eb8       ?rttiTable@@3QBUStringLiteral@@B 10021eb8     libvcruntime:undname.obj
 0002:00001ee0       ?IndirectionName@@3QBUStringLiteral@@B 10021ee0     libvcruntime:undname.obj
 0002:00001f10       ?PrefixName@@3QBUStringLiteral@@B 10021f10     libvcruntime:undname.obj
 0002:00002540       ?module_names@?A0x9d0f8d90@@3QBQB_WB 10022540     libvcruntime:winapi_downlevel.obj
 0002:000025e8       ?candidate_modules@?1??try_get_FlsAlloc@@YAP6GKP6GXPAX@Z@ZXZ@4QBW4module_id@?A0x9d0f8d90@@B 100225e8     libvcruntime:winapi_downlevel.obj
 0002:000025fc       ?candidate_modules@?1??try_get_FlsFree@@YAP6GHK@ZXZ@4QBW4module_id@?A0x9d0f8d90@@B 100225fc     libvcruntime:winapi_downlevel.obj
 0002:0000260c       ?candidate_modules@?1??try_get_FlsGetValue@@YAP6GPAXK@ZXZ@4QBW4module_id@?A0x9d0f8d90@@B 1002260c     libvcruntime:winapi_downlevel.obj
 0002:00002620       ?candidate_modules@?1??try_get_FlsSetValue@@YAP6GHKPAX@ZXZ@4QBW4module_id@?A0x9d0f8d90@@B 10022620     libvcruntime:winapi_downlevel.obj
 0002:00002634       ?candidate_modules@?1??try_get_InitializeCriticalSectionEx@@YAP6GHPAU_RTL_CRITICAL_SECTION@@KK@ZXZ@4QBW4module_id@?A0x9d0f8d90@@B 10022634     libvcruntime:winapi_downlevel.obj
 0002:00002658       ?errtable@@3QBUerrentry@?A0x31fdb9ec@@B 10022658     libucrt:errno.obj
 0002:00002ca0       ___acrt_initializers       10022ca0     libucrt:initialization.obj
 0002:00002d20       ?module_names@?A0x391cf84c@@3QBQB_WB 10022d20     libucrt:winapi_thunks.obj
 0002:00003198       ?candidate_modules@?1??try_get_AreFileApisANSI@@YAP6GHXZXZ@4QBW4module_id@?A0x391cf84c@@B 10023198     libucrt:winapi_thunks.obj
 0002:000031ac       ?candidate_modules@?1??try_get_FlsAlloc@@YAP6GKP6GXPAX@Z@ZXZ@4QBW4module_id@?A0x391cf84c@@B 100231ac     libucrt:winapi_thunks.obj
 0002:000031b4       ?candidate_modules@?1??try_get_FlsFree@@YAP6GHK@ZXZ@4QBW4module_id@?A0x391cf84c@@B 100231b4     libucrt:winapi_thunks.obj
 0002:000031bc       ?candidate_modules@?1??try_get_FlsGetValue@@YAP6GPAXK@ZXZ@4QBW4module_id@?A0x391cf84c@@B 100231bc     libucrt:winapi_thunks.obj
 0002:000031c4       ?candidate_modules@?1??try_get_FlsSetValue@@YAP6GHKPAX@ZXZ@4QBW4module_id@?A0x391cf84c@@B 100231c4     libucrt:winapi_thunks.obj
 0002:000031cc       ?candidate_modules@?1??try_get_InitializeCriticalSectionEx@@YAP6GHPAU_RTL_CRITICAL_SECTION@@KK@ZXZ@4QBW4module_id@?A0x391cf84c@@B 100231cc     libucrt:winapi_thunks.obj
 0002:000031d4       ?candidate_modules@?1??try_get_LCMapStringEx@@YAP6GHPB_WK0HPA_WHPAU_nlsversioninfo@@PAXJ@ZXZ@4QBW4module_id@?A0x391cf84c@@B 100231d4     libucrt:winapi_thunks.obj
 0002:000031ec       ?candidate_modules@?1??try_get_LocaleNameToLCID@@YAP6GKPB_WK@ZXZ@4QBW4module_id@?A0x391cf84c@@B 100231ec     libucrt:winapi_thunks.obj
 0002:00003208       ?candidate_modules@?1??try_get_AppPolicyGetProcessTerminationMethod@@YAP6GJPAXPAW4AppPolicyProcessTerminationMethod@@@ZXZ@4QBW4module_id@?A0x391cf84c@@B 10023208     libucrt:winapi_thunks.obj
 0002:00003234       ?candidate_modules@?1??try_get_SetThreadStackGuarantee@@YAP6GHPAK@ZXZ@4QBW4module_id@?A0x391cf84c@@B 10023234     libucrt:winapi_thunks.obj
 0002:00003258       ?strings@?1??fp_format_nan_or_infinity@@YAHW4__acrt_fp_class@@_NPADI1@Z@4QAY03QBDA 10023258     libucrt:cvt.obj
 0002:000037a0       ?_mb_locale_names@@3QBQB_WB 100237a0     libucrt:mbctype.obj
 0002:00003fe8       ?LcidToLocaleNameTable@?A0x881e4c05@@3QBULcidToLocaleName@1@B 10023fe8     libucrt:lcidtoname_downlevel.obj
 0002:00005110       ?LocaleNameToIndexTable@?A0x881e4c05@@3QBULocaleNameIndex@1@B 10025110     libucrt:lcidtoname_downlevel.obj
 0002:00006a50       LOG_name                   10026a50     libucrt:log10_impl.obj
 0002:00006a60       _One                       10026a60     libucrt:ceil_pentium4.obj
 0002:00006a70       _Bns                       10026a70     libucrt:ceil_pentium4.obj
 0002:00006a80       _Zero                      10026a80     libucrt:ceil_pentium4.obj
 0002:00006a90       _S                         10026a90     libucrt:ceil_pentium4.obj
 0002:00006aa0       _NegZero                   10026aa0     libucrt:ceil_pentium4.obj
 0002:00006ab0       emask                      10026ab0     libucrt:log10_pentium4.obj
 0002:00006ac0       CC                         10026ac0     libucrt:log10_pentium4.obj
 0002:00006ad0       Magic                      10026ad0     libucrt:log10_pentium4.obj
 0002:00006ae0       hi_mask                    10026ae0     libucrt:log10_pentium4.obj
 0002:00006af0       LOG10_2                    10026af0     libucrt:log10_pentium4.obj
 0002:00006b00       place_L                    10026b00     libucrt:log10_pentium4.obj
 0002:00006b20       One                        10026b20     libucrt:log10_pentium4.obj
 0002:00006b30       Zero                       10026b30     libucrt:log10_pentium4.obj
 0002:00006b40       Two52                      10026b40     libucrt:log10_pentium4.obj
 0002:00006b50       Infs                       10026b50     libucrt:log10_pentium4.obj
 0002:00006b60       NaN                        10026b60     libucrt:log10_pentium4.obj
 0002:00006b70       coeff                      10026b70     libucrt:log10_pentium4.obj
 0002:00006bce       _log2max                   10026bce     libucrt:87tran.obj
 0002:00006bd8       _smallarg                  10026bd8     libucrt:87tran.obj
 0002:00006be2       _half                      10026be2     libucrt:87tran.obj
 0002:00006c2e       One                        10026c2e     libucrt:87disp.obj
 0002:00006c36       Three                      10026c36     libucrt:87disp.obj
 0002:00006c3e       XAMtoTagTab                10026c3e     libucrt:87disp.obj
 0002:00006c50       One                        10026c50     libucrt:common.obj
 0002:00006c64       DblMax                     10026c64     libucrt:common.obj
 0002:00006c6c       DblMin                     10026c6c     libucrt:common.obj
 0002:00006c74       IeeeAdjO                   10026c74     libucrt:common.obj
 0002:00006c7c       IeeeAdjU                   10026c7c     libucrt:common.obj
 0002:00006c84       _infinity                  10026c84     libucrt:common.obj
 0002:00006c8c       _zero                      10026c8c     libucrt:common.obj
 0002:00006cd8       _over                      10026cd8     libucrt:fpctrl.obj
 0002:00006ce4       _under                     10026ce4     libucrt:fpctrl.obj
 0002:00007518       ?_names@?1??_get_fname@@9@9 10027518     libucrt:fpexcept.obj
 0002:000076c0       two32                      100276c0     LIBCMT:ftol2.obj
 0002:000076c4       two63                      100276c4     LIBCMT:ftol2.obj
 0002:000076c8       _NaN                       100276c8     LIBCMT:ftol2.obj
 0002:00007d78       __sehtable$?_AtlVerifyStackAvailable@_ATL_SAFE_ALLOCA_IMPL@ATL@@YA_NK@Z 10027d78     Scale.obj
 0002:00007d98       __sehtable$___scrt_is_nonwritable_in_current_image 10027d98     LIBCMT:utility.obj
 0002:00007db4       __catchsym$??2@YAPAXIABUnothrow_t@std@@@Z$2 10027db4     LIBCMT:new_scalar_nothrow.obj
 0002:00007dc4       __unwindtable$??2@YAPAXIABUnothrow_t@std@@@Z 10027dc4     LIBCMT:new_scalar_nothrow.obj
 0002:00007dd4       __tryblocktable$??2@YAPAXIABUnothrow_t@std@@@Z 10027dd4     LIBCMT:new_scalar_nothrow.obj
 0002:00007de8       __ehfuncinfo$??2@YAPAXIABUnothrow_t@std@@@Z 10027de8     LIBCMT:new_scalar_nothrow.obj
 0002:00007e10       __sehtable$?dllmain_crt_process_attach@@YAHQAUHINSTANCE__@@QAX@Z 10027e10     LIBCMT:dll_dllmain.obj
 0002:00007e30       __sehtable$?dllmain_crt_process_detach@@YAH_N@Z 10027e30     LIBCMT:dll_dllmain.obj
 0002:00007e58       __sehtable$?dllmain_dispatch@@YAHQAUHINSTANCE__@@KQAX@Z 10027e58     LIBCMT:dll_dllmain.obj
 0002:00007f08       __sehtable$___DestructExceptionObject 10027f08     libvcruntime:ehhelpers.obj
 0002:00007f28       __sehtable$?FrameUnwindToState@__FrameHandler3@@SAXPAUEHRegistrationNode@@PAXPBU_s_FuncInfo@@H@Z 10027f28     libvcruntime:frame.obj
 0002:00007f50       __sehtable$?CallCatchBlock@@YAPAXPAUEHExceptionRecord@@PAUEHRegistrationNode@@PAU_CONTEXT@@PBU_s_FuncInfo@@PAXHK@Z 10027f50     libvcruntime:frame.obj
 0002:00007f78       __catchsym$?CallUnexpected@@YAXPBU_s_ESTypeList@@@Z$2 10027f78     libvcruntime:frame.obj
 0002:00007f88       __unwindtable$?CallUnexpected@@YAXPBU_s_ESTypeList@@@Z 10027f88     libvcruntime:frame.obj
 0002:00007f98       __tryblocktable$?CallUnexpected@@YAXPBU_s_ESTypeList@@@Z 10027f98     libvcruntime:frame.obj
 0002:00007fac       __ehfuncinfo$?CallUnexpected@@YAXPBU_s_ESTypeList@@@Z 10027fac     libvcruntime:frame.obj
 0002:00007fd0       __sehtable$??$BuildCatchObjectHelperInternal@V__FrameHandler3@@@@YAHPAUEHExceptionRecord@@PAXPBU_s_HandlerType@@PBU_s_CatchableType@@@Z 10027fd0     libvcruntime:frame.obj
 0002:00007ff0       __sehtable$??$BuildCatchObjectInternal@V__FrameHandler3@@@@YAXPAUEHExceptionRecord@@PAXPBU_s_HandlerType@@PBU_s_CatchableType@@@Z 10027ff0     libvcruntime:frame.obj
 0002:00008048       __sehtable$??R<lambda_6e4b09c48022b2350581041d5f6b0c4c>@@QBE@XZ 10028048     libucrt:exit.obj
 0002:00008068       __sehtable$??$?RV<lambda_03b1d95aef87969028cfba75ccab2455>@@AAV<lambda_6e4b09c48022b2350581041d5f6b0c4c>@@V<lambda_22bdf7517842c4b3e53723af5aa32b9e>@@@?$__crt_seh_guarded_call@X@@QAEX$$QAV<lambda_03b1d95aef87969028cfba75ccab2455>@@AAV<lambda_6e4b09c48022b2350581041d5f6b0c4c>@@$$QAV<lambda_22bdf7517842c4b3e53723af5aa32b9e>@@@Z 10028068     libucrt:exit.obj
 0002:00008088       __sehtable$??$?RV<lambda_8e746cf0007f6ed984d6f78af1fec997>@@AAV<lambda_22ebabd17bc4fa466a2aca6d8deb888d>@@V<lambda_18ed0c0b38a6dc0daf1e7ac6d6adf05e>@@@?$__crt_seh_guarded_call@H@@QAEH$$QAV<lambda_8e746cf0007f6ed984d6f78af1fec997>@@AAV<lambda_22ebabd17bc4fa466a2aca6d8deb888d>@@$$QAV<lambda_18ed0c0b38a6dc0daf1e7ac6d6adf05e>@@@Z 10028088     libucrt:onexit.obj
 0002:000080a8       __sehtable$??$?RV<lambda_69a2805e680e0e292e8ba93315fe43a8>@@AAV<lambda_f03950bc5685219e0bcd2087efbe011e>@@V<lambda_03fcd07e894ec930e3f35da366ca99d6>@@@?$__crt_seh_guarded_call@H@@QAEH$$QAV<lambda_69a2805e680e0e292e8ba93315fe43a8>@@AAV<lambda_f03950bc5685219e0bcd2087efbe011e>@@$$QAV<lambda_03fcd07e894ec930e3f35da366ca99d6>@@@Z 100280a8     libucrt:onexit.obj
 0002:000080c8       __sehtable$__query_new_handler 100280c8     libucrt:new_handler.obj
 0002:000080e8       __sehtable$_terminate      100280e8     libucrt:terminate.obj
 0002:00008108       __sehtable$??$?RV<lambda_15ade71b0218206bbe3333a0c9b79046>@@AAV<lambda_da44e0f8b0f19ba52fefafb335991732>@@V<lambda_207f2d024fc103971653565357d6cd41>@@@?$__crt_seh_guarded_call@X@@QAEX$$QAV<lambda_15ade71b0218206bbe3333a0c9b79046>@@AAV<lambda_da44e0f8b0f19ba52fefafb335991732>@@$$QAV<lambda_207f2d024fc103971653565357d6cd41>@@@Z 10028108     libucrt:per_thread_data.obj
 0002:00008128       __sehtable$??$?RV<lambda_a7e850c220f1c8d1e6efeecdedd162c6>@@AAV<lambda_46720907175c18b6c9d2717bc0d2d362>@@V<lambda_9048902d66e8d99359bc9897bbb930a8>@@@?$__crt_seh_guarded_call@X@@QAEX$$QAV<lambda_a7e850c220f1c8d1e6efeecdedd162c6>@@AAV<lambda_46720907175c18b6c9d2717bc0d2d362>@@$$QAV<lambda_9048902d66e8d99359bc9897bbb930a8>@@@Z 10028128     libucrt:per_thread_data.obj
 0002:00008148       __sehtable$??$?RV<lambda_38edbb1296d33220d7e4dd0ed76b244a>@@AAV<lambda_5ce1d447e08cb34b2473517608e21441>@@V<lambda_fb385d3da700c9147fc39e65dd577a8c>@@@?$__crt_seh_guarded_call@X@@QAEX$$QAV<lambda_38edbb1296d33220d7e4dd0ed76b244a>@@AAV<lambda_5ce1d447e08cb34b2473517608e21441>@@$$QAV<lambda_fb385d3da700c9147fc39e65dd577a8c>@@@Z 10028148     libucrt:per_thread_data.obj
 0002:00008168       __sehtable$??$?RV<lambda_6affb1475c98b40b75cdec977db92e3c>@@AAV<lambda_b8d4b9c228a6ecc3f80208dbb4b4a104>@@V<lambda_608742c3c92a14382c1684fc64f96c88>@@@?$__crt_seh_guarded_call@X@@QAEX$$QAV<lambda_6affb1475c98b40b75cdec977db92e3c>@@AAV<lambda_b8d4b9c228a6ecc3f80208dbb4b4a104>@@$$QAV<lambda_608742c3c92a14382c1684fc64f96c88>@@@Z 10028168     libucrt:per_thread_data.obj
 0002:00008188       __sehtable$??$?RV<lambda_e5124f882df8998aaf41531e079ba474>@@AAV<lambda_3e16ef9562a7dcce91392c22ab16ea36>@@V<lambda_e25ca0880e6ef98be67edffd8c599615>@@@?$__crt_seh_guarded_call@X@@QAEX$$QAV<lambda_e5124f882df8998aaf41531e079ba474>@@AAV<lambda_3e16ef9562a7dcce91392c22ab16ea36>@@$$QAV<lambda_e25ca0880e6ef98be67edffd8c599615>@@@Z 10028188     libucrt:wsetlocale.obj
 0002:000081a8       __sehtable$___acrt_initialize_lowio 100281a8     libucrt:ioinit.obj
 0002:000081c8       __sehtable$?update_thread_multibyte_data_internal@@YAPAU__crt_multibyte_data@@QAU__acrt_ptd@@QAPAU1@@Z 100281c8     libucrt:mbctype.obj
 0002:000081e8       __sehtable$??$?RV<lambda_ceb1ee4838e85a9d631eb091e2fbe199>@@AAV<lambda_ae742caa10f662c28703da3d2ea5e57e>@@V<lambda_cd08b5d6af4937fe54fc07d0c9bf6b37>@@@?$__crt_seh_guarded_call@X@@QAEX$$QAV<lambda_ceb1ee4838e85a9d631eb091e2fbe199>@@AAV<lambda_ae742caa10f662c28703da3d2ea5e57e>@@$$QAV<lambda_cd08b5d6af4937fe54fc07d0c9bf6b37>@@@Z 100281e8     libucrt:mbctype.obj
 0002:00008208       __sehtable$_raise          10028208     libucrt:signal.obj
 0002:00008228       __sehtable$??$?RV<lambda_cbab9ec6f41b0180b23cc171c22676b0>@@AAV<lambda_44731a7d0e6d81c3e6aa82d741081786>@@V<lambda_4b292cb8dd18144e164572427af410ab>@@@?$__crt_seh_guarded_call@P6AXH@Z@@QAEP6AXH@Z$$QAV<lambda_cbab9ec6f41b0180b23cc171c22676b0>@@AAV<lambda_44731a7d0e6d81c3e6aa82d741081786>@@$$QAV<lambda_4b292cb8dd18144e164572427af410ab>@@@Z 10028228     libucrt:signal.obj
 0002:00008248       __sehtable$??$?RV<lambda_2866be3712abc81a800a822484c830d8>@@AAV<lambda_39ca0ed439415581b5b15c265174cece>@@V<lambda_2b24c74d71094a6cd0cb82e44167d71b>@@@?$__crt_seh_guarded_call@X@@QAEX$$QAV<lambda_2866be3712abc81a800a822484c830d8>@@AAV<lambda_39ca0ed439415581b5b15c265174cece>@@$$QAV<lambda_2b24c74d71094a6cd0cb82e44167d71b>@@@Z 10028248     libucrt:fflush.obj
 0002:00008268       __sehtable$??$?RV<lambda_2cc53f568c5a2bb6f192f930a45d44ea>@@AAV<lambda_ab61a845afdef5b7c387490eaf3616ee>@@V<lambda_c2ffc0b7726aa6be21d5f0026187e748>@@@?$__crt_seh_guarded_call@X@@QAEX$$QAV<lambda_2cc53f568c5a2bb6f192f930a45d44ea>@@AAV<lambda_ab61a845afdef5b7c387490eaf3616ee>@@$$QAV<lambda_c2ffc0b7726aa6be21d5f0026187e748>@@@Z 10028268     libucrt:fflush.obj
 0002:00008288       __sehtable$___acrt_update_thread_locale_data 10028288     libucrt:locale_refcounting.obj
 0002:000082a8       __sehtable$__fcloseall     100282a8     libucrt:closeall.obj
 0002:000082c8       __sehtable$___acrt_lowio_ensure_fh_exists 100282c8     libucrt:osfinfo.obj
 0002:000082e8       __sehtable$??$?RV<lambda_9e9de3de5fa147e2223d7db92bc10aa6>@@AAV<lambda_38ce7e780aa69e748d6df282ebc68efe>@@V<lambda_8ca6da459f0f6780f1cff60fdc3d00e5>@@@?$__crt_seh_guarded_call@H@@QAEH$$QAV<lambda_9e9de3de5fa147e2223d7db92bc10aa6>@@AAV<lambda_38ce7e780aa69e748d6df282ebc68efe>@@$$QAV<lambda_8ca6da459f0f6780f1cff60fdc3d00e5>@@@Z 100282e8     libucrt:commit.obj
 0002:00008308       __sehtable$__write         10028308     libucrt:write.obj
 0002:00008328       __sehtable$_fclose         10028328     libucrt:fclose.obj
 0002:00008348       __sehtable$??$?RV<lambda_218ce3db14220d0be481dae8ef3383b6>@@AAV<lambda_628dfdc04ba53c8bfc02c9951375f3f5>@@V<lambda_57dc472bd5c9d5f3b2cbca59b8a843ae>@@@?$__crt_seh_guarded_call@H@@QAEH$$QAV<lambda_218ce3db14220d0be481dae8ef3383b6>@@AAV<lambda_628dfdc04ba53c8bfc02c9951375f3f5>@@$$QAV<lambda_57dc472bd5c9d5f3b2cbca59b8a843ae>@@@Z 10028348     libucrt:close.obj
 0002:00008368       __sehtable$___set_fpsr_sse2 10028368     libucrt:fpctrl.obj
 0002:00008388       __sehtable$__IsNonwritableInCurrentImage 10028388     LIBCMT:pesect.obj
 0002:000083b0       .edata                     100283b0     OPOSScale.exp
 0002:000083d8       rgpv                       100283d8     OPOSScale.exp
 0002:000083e8       rgszName                   100283e8     OPOSScale.exp
 0002:000083f8       rgwOrd                     100283f8     OPOSScale.exp
 0002:00008400       szName                     10028400     OPOSScale.exp
 0002:0000840e       $N00001                    1002840e     OPOSScale.exp
 0002:0000841e       $N00002                    1002841e     OPOSScale.exp
 0002:00008430       $N00003                    10028430     OPOSScale.exp
 0002:00008442       $N00004                    10028442     OPOSScale.exp
 0002:00008a52       .idata$6                   10028a52     kernel32:KERNEL32.dll
 0002:00008c66       .idata$6                   10028c66     user32:USER32.dll
 0002:00008d9a       .idata$6                   10028d9a     gdi32:GDI32.dll
 0002:00008e40       .idata$6                   10028e40     advapi32:ADVAPI32.dll
 0002:00008f5c       .idata$6                   10028f5c     ole32:ole32.dll
 0002:00008f66       .idata$6                   10028f66     oleaut32:OLEAUT32.dll
 0003:00000110       ?ObjectMap@@3PAU_ATL_OBJMAP_ENTRY30@ATL@@A 1002a110     Scale.obj
 0003:000001c4       ?s_RequiredMethodsPerRelease@@3PAHA 1002a1c4     ScaleImpl.obj
 0003:00000200       ?s_SOMethodNames@@3PAPADA  1002a200     ScaleImpl.obj
 0003:000002a0       ?__vcrt_flsindex@@3KA      1002a2a0     libvcruntime:per_thread_data.obj
 0003:000002c0       ?errno_no_memory@@3HA      1002a2c0     libucrt:errno.obj
 0003:000002c4       ?doserrno_no_memory@@3KA   1002a2c4     libucrt:errno.obj
 0003:000002d0       ?__acrt_flsindex@@3KA      1002a2d0     libucrt:per_thread_data.obj
 0003:00000668       __mbctypes                 1002a668     libucrt:mbctype.obj
 0003:00000770       __mbcasemaps               1002a770     libucrt:mbctype.obj
 0003:00000870       ?__rgctypeflag@@3PADA      1002a870     libucrt:mbctype.obj
 0003:00000878       ?__rgcode_page_info@@3PAUcode_page_info@@A 1002a878     libucrt:mbctype.obj
 0003:00000ad0       ?__dcrt_lowio_console_output_handle@@3PAXA 1002aad0     libucrt:initcon.obj
 0003:00000ad4       ?__DAZ_ENABLED@?1??__set_fpsr_sse2@@9@9 1002aad4     libucrt:fpctrl.obj
 0003:00000c68       ?is_initialized_as_dll@@3_NA 1002ac68     LIBCMT:utility.obj
 0003:00000c69       ?module_local_atexit_table_initialized@@3_NA 1002ac69     LIBCMT:utility.obj
 0003:00000c6c       ?module_local_atexit_table@@3U_onexit_table_t@@A 1002ac6c     LIBCMT:utility.obj
 0003:00000c78       ?module_local_at_quick_exit_table@@3U_onexit_table_t@@A 1002ac78     LIBCMT:utility.obj
 0003:00000c84       ?g_tss_cv@@3U_RTL_CONDITION_VARIABLE@@A 1002ac84     LIBCMT:thread_safe_statics.obj
 0003:00000c88       ?g_tss_event@@3PAXA        1002ac88     LIBCMT:thread_safe_statics.obj
 0003:00000c8c       ?g_tss_mutex@@3U_RTL_CRITICAL_SECTION@@A 1002ac8c     LIBCMT:thread_safe_statics.obj
 0003:00000ca4       ?g_sleep_condition_variable_cs@@3P6GHPAU_RTL_CONDITION_VARIABLE@@PAU_RTL_CRITICAL_SECTION@@K@ZA 1002aca4     LIBCMT:thread_safe_statics.obj
 0003:00000ca8       ?g_wake_all_condition_variable@@3P6GXPAU_RTL_CONDITION_VARIABLE@@@ZA 1002aca8     LIBCMT:thread_safe_statics.obj
 0003:00000cb0       _GS_ExceptionRecord        1002acb0     LIBCMT:gs_report.obj
 0003:00000d00       _GS_ContextRecord          1002ad00     LIBCMT:gs_report.obj
 0003:00000fd0       ?__proc_attached@@3HA      1002afd0     LIBCMT:dll_dllmain.obj
 0003:0000102c       ?AllocateData@@3P6GPAUAtlThunkData_t@@XZA 1002b02c     atls:atlthunk.obj
 0003:00001030       ?InitData@@3P6GXPAUAtlThunkData_t@@PAXI@ZA 1002b030     atls:atlthunk.obj
 0003:00001034       ?DataToCode@@3P6GP6GJPAUHWND__@@IIJ@ZPAUAtlThunkData_t@@@ZA 1002b034     atls:atlthunk.obj
 0003:00001038       ?FreeData@@3P6GXPAUAtlThunkData_t@@@ZA 1002b038     atls:atlthunk.obj
 0003:0000103c       ?Initialized@@3_NA         1002b03c     atls:atlthunk.obj
 0003:0000104c       ?__vcrt_startup_thread_ptd@@3U__vcrt_ptd@@A 1002b04c     libvcruntime:per_thread_data.obj
 0003:00001074       ___vcrt_lock_table         1002b074     libvcruntime:locks.obj
 0003:0000108c       ___vcrt_locks_initialized  1002b08c     libvcruntime:locks.obj
 0003:000010b8       ?heap@@3V_HeapManager@@A   1002b0b8     libvcruntime:undname.obj
 0003:000010cc       ?module_handles@@3PAPAUHINSTANCE__@@A 1002b0cc     libvcruntime:winapi_downlevel.obj
 0003:000010d8       ?function_pointers@@3PAPAXA 1002b0d8     libvcruntime:winapi_downlevel.obj
 0003:000010ec       ?__acrt_invalid_parameter_handler@@3V?$dual_state_global@P6AXPB_W00II@Z@__crt_state_management@@A 1002b0ec     libucrt:invalid_parameter.obj
 0003:000010f0       ?c_termination_complete@@3JA 1002b0f0     libucrt:exit.obj
 0003:000010f4       ?thread_local_exit_callback_func@@3P6GXPAXK0@ZA 1002b0f4     libucrt:exit.obj
 0003:00001100       ?program_name@?1???$common_configure_argv@D@@YAHW4_crt_argv_mode@@@Z@4PADA 1002b100     libucrt:argv_parsing.obj
 0003:00001230       ?__acrt_new_handler@@3V?$dual_state_global@P6AHI@Z@__crt_state_management@@A 1002b230     libucrt:new_handler.obj
 0003:00001238       ?module_handles@@3PAPAUHINSTANCE__@@A 1002b238     libucrt:winapi_thunks.obj
 0003:00001288       ?encoded_function_pointers@@3PAPAXA 1002b288     libucrt:winapi_thunks.obj
 0003:00001310       ?internal_state@?1??_mbtowc_l@@9@4U_Mbstatet@@A 1002b310     libucrt:mbtowc.obj
 0003:00001320       ?enable_percent_n@@3IA     1002b320     libucrt:printf_count_output.obj
 0003:00001540       ?__acrt_lock_table@@3PAU_RTL_CRITICAL_SECTION@@A 1002b540     libucrt:locks.obj
 0003:00001690       ?__acrt_locks_initialized@@3IA 1002b690     libucrt:locks.obj
 0003:000016a0       ?fSystemSet@@3HA           1002b6a0     libucrt:mbctype.obj
 0003:000016a4       ?initialized@?1??__acrt_initialize_multibyte@@9@4_NA 1002b6a4     libucrt:mbctype.obj
 0003:000016c4       ?ctrlc_action@@3V?$dual_state_global@P6AXH@Z@__crt_state_management@@A 1002b6c4     libucrt:signal.obj
 0003:000016c8       ?ctrlbreak_action@@3V?$dual_state_global@P6AXH@Z@__crt_state_management@@A 1002b6c8     libucrt:signal.obj
 0003:000016cc       ?abort_action@@3V?$dual_state_global@P6AXH@Z@__crt_state_management@@A 1002b6cc     libucrt:signal.obj
 0003:000016d0       ?term_action@@3V?$dual_state_global@P6AXH@Z@__crt_state_management@@A 1002b6d0     libucrt:signal.obj
 0003:000016d4       ?user_matherr@@3V?$dual_state_global@P6AHPAU_exception@@@Z@__crt_state_management@@A 1002b6d4     libucrt:matherr.obj
 0003:000016d8       ?__acrt_global_new_mode@@3V?$dual_state_global@J@__crt_state_management@@A 1002b6d8     libucrt:new_mode.obj
 0003:000016e4       ?internal_pst@?1??__mbrtoc32_utf8@__crt_mbstring@@YAIPA_UPBDIPAU_Mbstatet@@@Z@4U3@A 1002b6e4     libucrt:mbrtoc32.obj
 0003:000016ec       ?__acrt_app_type@@3W4_crt_app_type@@A 1002b6ec     libucrt:report_runtime_error.obj
 0003:000016f4       __pmatherr_set             1002b6f4     libucrt:libm_error.obj
 0004:00000220       $R000000                   1002c220     Scale.res
 0004:00000b98       $R000978                   1002cb98     Scale.res
 0004:00000c80       $R000A60                   1002cc80     Scale.res
 0004:00000ee8       $R000CC8                   1002cee8     Scale.res
 0004:00001428       $R001208                   1002d428     Scale.res
 0004:00005120       $R004F00                   10031120     Scale.res
 0004:00005150       $R004F30                   10031150     Scale.res
