 OPOSTotals

 Timestamp is 61a75a91 (Wed Dec  1 20:20:49 2021)

 Preferred load address is 10000000

 Start         Length     Name                   Class
 0001:00000000 00000080H .text$di                CODE
 0001:00000080 0001ecf8H .text$mn                CODE
 0001:0001ed78 000000d8H .text$x                 CODE
 0001:0001ee50 00000042H .text$yd                CODE
 0002:00000000 000002fcH .idata$5                DATA
 0002:000002fc 00000008H .00cfg                  DATA
 0002:00000304 00000004H .CRT$XCA                DATA
 0002:00000308 00000004H .CRT$XCL                DATA
 0002:0000030c 00000010H .CRT$XCU                DATA
 0002:0000031c 00000004H .CRT$XCZ                DATA
 0002:00000320 00000004H .CRT$XIA                DATA
 0002:00000324 00000010H .CRT$XIC                DATA
 0002:00000334 00000004H .CRT$XIZ                DATA
 0002:00000338 00000004H .CRT$XLA                DATA
 0002:0000033c 00000004H .CRT$XLZ                DATA
 0002:00000340 00000004H .CRT$XPA                DATA
 0002:00000344 00000008H .CRT$XPX                DATA
 0002:0000034c 00000004H .CRT$XPXA               DATA
 0002:00000350 00000004H .CRT$XPZ                DATA
 0002:00000354 00000004H .CRT$XTA                DATA
 0002:00000358 00000008H .CRT$XTZ                DATA
 0002:0000035c 00000000H .gfids$y                DATA
 0002:00000360 00006e60H .rdata                  DATA
 0002:000071c0 00000000H .rdata$CastGuardVftablesA DATA
 0002:000071c0 00000000H .rdata$CastGuardVftablesC DATA
 0002:000071c0 00000018H .rdata$T                DATA
 0002:000071d8 00000178H .rdata$r                DATA
 0002:00007350 0000002cH .rdata$sxdata           DATA
 0002:0000737c 00000030H .rdata$voltmd           DATA
 0002:000073ac 00000408H .rdata$zzzdbg           DATA
 0002:000077b4 00000004H .rtc$IAA                DATA
 0002:000077b8 00000004H .rtc$IZZ                DATA
 0002:000077bc 00000004H .rtc$TAA                DATA
 0002:000077c0 00000004H .rtc$TZZ                DATA
 0002:000077c4 00000004H .tls                    DATA
 0002:000077c8 00000004H .tls$                   DATA
 0002:000077cc 00000004H .tls$ZZZ                DATA
 0002:000077d0 000006dcH .xdata$x                DATA
 0002:00007eac 00000004H ATL$__a                 DATA
 0002:00007eb0 00000010H ATL$__z                 DATA
 0002:00007ec0 000000a8H .edata                  DATA
 0002:00007f68 00000078H .idata$2                DATA
 0002:00007fe0 00000014H .idata$3                DATA
 0002:00007ff4 000002fcH .idata$4                DATA
 0002:000082f0 00000bceH .idata$6                DATA
 0003:00000000 00000ad0H .data                   DATA
 0003:00000ad0 00000080H .data$r                 DATA
 0003:00000b50 00000018H .data$rs                DATA
 0003:00000b68 00000b80H .bss                    DATA
 0004:00000000 00000220H .rsrc$01                DATA
 0004:00000220 000040f0H .rsrc$02                DATA

  Address         Publics by Value              Rva+Base       Lib:Object

 0000:00000000       ___guard_fids_count        00000000     <absolute>
 0000:00000000       ___guard_eh_cont_table     00000000     <absolute>
 0000:00000000       ___guard_longjmp_table     00000000     <absolute>
 0000:00000000       ___arm64x_extra_rfe_table  00000000     <absolute>
 0000:00000000       ___arm64x_redirection_metadata 00000000     <absolute>
 0000:00000000       ___guard_iat_count         00000000     <absolute>
 0000:00000000       ___guard_eh_cont_count     00000000     <absolute>
 0000:00000000       __except_list              00000000     <absolute>
 0000:00000000       ___x64_code_ranges_to_entry_points_count 00000000     <absolute>
 0000:00000000       ___hybrid_code_map_count   00000000     <absolute>
 0000:00000000       ___x64_code_ranges_to_entry_points 00000000     <absolute>
 0000:00000000       ___guard_iat_table         00000000     <absolute>
 0000:00000000       ___arm64x_native_entrypoint 00000000     <absolute>
 0000:00000000       ___hybrid_code_map         00000000     <absolute>
 0000:00000000       ___arm64x_extra_rfe_table_size 00000000     <absolute>
 0000:00000000       ___guard_longjmp_count     00000000     <absolute>
 0000:00000000       ___guard_check_icall_a64n_fptr 00000000     <absolute>
 0000:00000000       ___arm64x_redirection_metadata_count 00000000     <absolute>
 0000:00000000       ___hybrid_auxiliary_iat    00000000     <absolute>
 0000:00000000       ___dynamic_value_reloc_table 00000000     <absolute>
 0000:00000000       ___AbsoluteZero            00000000     <absolute>
 0000:00000000       ___enclave_config          00000000     <absolute>
 0000:00000000       ___guard_fids_table        00000000     <absolute>
 0000:00000000       ___hybrid_auxiliary_iat_copy 00000000     <absolute>
 0000:0000000b       ___safe_se_handler_count   0000000b     <absolute>
 0000:0000002c       __tls_array                0000002c     <absolute>
 0000:00000100       ___guard_flags             00000100     <absolute>
 0000:00000000       ___ImageBase               10000000     <linker-defined>
 0001:00000080       ?DupWide@_CW@@AAEXXZ       10001080 f   CWString.obj
 0001:0000009c       ?cw_dup@@YGXPBDAAHAAPA_W1@Z 1000109c f   CWString.obj
 0001:00000124       ?cw_memcpy@@YGHPA_WPBDH@Z  10001124 f   CWString.obj
 0001:00000150       ?cw_strcpy@@YAHPA_WPBD@Z   10001150 f   CWString.obj
 0001:00000163       ?cw_strlen@@YAHPBD@Z       10001163 f   CWString.obj
 0001:0000017c       ??0CAtlComModule@ATL@@QAE@XZ 1000117c f i OposVariant.obj
 0001:000001c1       ??0CAtlWinModule@ATL@@QAE@XZ 100011c1 f i OposVariant.obj
 0001:000001f8       ??0OposDispParms@@QAE@PAVOposVariant@@H@Z 100011f8 f   OposVariant.obj
 0001:00000269       ??1OposDispParms@@QAE@XZ   10001269 f   OposVariant.obj
 0001:00000277       ??A?$CSimpleArray@GV?$CSimpleArrayEqualHelper@G@ATL@@@ATL@@QAEAAGH@Z 10001277 f i OposVariant.obj
 0001:0000029c       ??_Estringdispid@CComTypeInfoHolder@ATL@@QAEPAXI@Z 1000129c f i OposVariant.obj
 0001:00000308       ?AtlWinModuleInit@ATL@@YGJPAU_ATL_WIN_MODULE70@1@@Z 10001308 f i OposVariant.obj
 0001:0000032e       ?AtlWinModuleTerm@ATL@@YGJPAU_ATL_WIN_MODULE70@1@PAUHINSTANCE__@@@Z 1000132e f i OposVariant.obj
 0001:00000391       ?ChangeBSTR@OposVariant@@QAEXPAPA_WAAJ@Z 10001391 f   OposVariant.obj
 0001:000003d2       ?ChangeLONG@OposVariant@@QAEXPAJAAJ@Z 100013d2 f   OposVariant.obj
 0001:00000413       ?GetLONG@OposVariant@@QAEJXZ 10001413 f   OposVariant.obj
 0001:0000042e       ?Init@CComCriticalSection@ATL@@QAEJXZ 1000142e f i OposVariant.obj
 0001:00000456       ?RemoveAll@?$CSimpleArray@GV?$CSimpleArrayEqualHelper@G@ATL@@@ATL@@QAEXXZ 10001456 f i OposVariant.obj
 0001:00000456       ?RemoveAll@?$CSimpleArray@PAUHINSTANCE__@@V?$CSimpleArrayEqualHelper@PAUHINSTANCE__@@@ATL@@@ATL@@QAEXXZ 10001456 f i atls:atlbase.obj
 0001:00000473       ?SetBSTR@OposVariant@@QAEXPA_WAAJ@Z 10001473 f   OposVariant.obj
 0001:000004a7       ?SetBSTR_Copy@OposVariant@@QAEXPA_WAAJ@Z 100014a7 f   OposVariant.obj
 0001:000004f7       ?SetBSTR_InOutPtr@OposVariant@@QAE_NPAPA_WAAJ@Z 100014f7 f   OposVariant.obj
 0001:0000052e       ?SetBSTR_OutPtr@OposVariant@@QAE_NPAPA_WAAJ@Z 1000152e f   OposVariant.obj
 0001:0000054a       ?SetDispatch_Ptr@OposVariant@@QAEXPAUIDispatch@@AAJ@Z 1000154a f   OposVariant.obj
 0001:00000585       ?SetLONG@OposVariant@@QAEXJ@Z 10001585 f   OposVariant.obj
 0001:000005a7       ?SetLONG_Ptr@OposVariant@@QAEXPAJAAJ@Z 100015a7 f   OposVariant.obj
 0001:000005da       ?SetString@OposVariant@@QAEXPB_WAAJ@Z 100015da f   OposVariant.obj
 0001:00000620       ?SetVARIANT_BOOL@OposVariant@@QAEXF@Z 10001620 f   OposVariant.obj
 0001:0000064a       ?Term@CAtlComModule@ATL@@QAEXXZ 1000164a f i OposVariant.obj
 0001:00000694       ?_AtlRaiseException@ATL@@YAXKK@Z 10001694 f i OposVariant.obj
 0001:000006a9       ?OnDrawAdvanced@CComControlBase@ATL@@UAEJAAUATL_DRAWINFO@@@Z 100016a9 f i Totals.obj
 0001:0000079c       ?Next@?$CComEnumImpl@UIEnumConnections@@$1?_GUID_b196b287_bab4_101a_b69c_00aa00341d07@@3U__s_GUID@@BUtagCONNECTDATA@@V?$_Copy@UtagCONNECTDATA@@@ATL@@@ATL@@UAGJKPAUtagCONNECTDATA@@PAK@Z 1000179c f i Totals.obj
 0001:0000086b       ?Skip@?$CComEnumImpl@UIEnumConnections@@$1?_GUID_b196b287_bab4_101a_b69c_00aa00341d07@@3U__s_GUID@@BUtagCONNECTDATA@@V?$_Copy@UtagCONNECTDATA@@@ATL@@@ATL@@UAGJK@Z 1000186b f i Totals.obj
 0001:00000898       ?Reset@?$CComEnumImpl@UIEnumConnectionPoints@@$1?_GUID_b196b285_bab4_101a_b69c_00aa00341d07@@3U__s_GUID@@BPAUIConnectionPoint@@V?$_CopyInterface@UIConnectionPoint@@@ATL@@@ATL@@UAGJXZ 10001898 f i Totals.obj
 0001:00000898       ?Reset@?$CComEnumImpl@UIEnumConnections@@$1?_GUID_b196b287_bab4_101a_b69c_00aa00341d07@@3U__s_GUID@@BUtagCONNECTDATA@@V?$_Copy@UtagCONNECTDATA@@@ATL@@@ATL@@UAGJXZ 10001898 f i Totals.obj
 0001:000008aa       ?Clone@?$CComEnumImpl@UIEnumConnections@@$1?_GUID_b196b287_bab4_101a_b69c_00aa00341d07@@3U__s_GUID@@BUtagCONNECTDATA@@V?$_Copy@UtagCONNECTDATA@@@ATL@@@ATL@@UAGJPAPAUIEnumConnections@@@Z 100018aa f i Totals.obj
 0001:0000098b       ?AddRef@?$CComObject@V?$CComEnum@UIEnumConnectionPoints@@$1?_GUID_b196b285_bab4_101a_b69c_00aa00341d07@@3U__s_GUID@@BPAUIConnectionPoint@@V?$_CopyInterface@UIConnectionPoint@@@ATL@@VCComSingleThreadModel@6@@ATL@@@ATL@@UAGKXZ 1000198b f i Totals.obj
 0001:0000098b       ?AddRef@?$CComObject@V?$CComEnum@UIEnumConnections@@$1?_GUID_b196b287_bab4_101a_b69c_00aa00341d07@@3U__s_GUID@@BUtagCONNECTDATA@@V?$_Copy@UtagCONNECTDATA@@@ATL@@VCComSingleThreadModel@6@@ATL@@@ATL@@UAGKXZ 1000198b f i Totals.obj
 0001:0000099c       ?Release@?$CComObject@V?$CComEnum@UIEnumConnections@@$1?_GUID_b196b287_bab4_101a_b69c_00aa00341d07@@3U__s_GUID@@BUtagCONNECTDATA@@V?$_Copy@UtagCONNECTDATA@@@ATL@@VCComSingleThreadModel@6@@ATL@@@ATL@@UAGKXZ 1000199c f i Totals.obj
 0001:0000099c       ?Release@?$CComObject@V?$CComEnum@UIEnumConnectionPoints@@$1?_GUID_b196b285_bab4_101a_b69c_00aa00341d07@@3U__s_GUID@@BPAUIConnectionPoint@@V?$_CopyInterface@UIConnectionPoint@@@ATL@@VCComSingleThreadModel@6@@ATL@@@ATL@@UAGKXZ 1000199c f i Totals.obj
 0001:000009d8       ?QueryInterface@?$CComObject@V?$CComEnum@UIEnumConnections@@$1?_GUID_b196b287_bab4_101a_b69c_00aa00341d07@@3U__s_GUID@@BUtagCONNECTDATA@@V?$_Copy@UtagCONNECTDATA@@@ATL@@VCComSingleThreadModel@6@@ATL@@@ATL@@UAGJABU_GUID@@PAPAX@Z 100019d8 f i Totals.obj
 0001:000009f2       ??_G?$CComObject@V?$CComEnum@UIEnumConnections@@$1?_GUID_b196b287_bab4_101a_b69c_00aa00341d07@@3U__s_GUID@@BUtagCONNECTDATA@@V?$_Copy@UtagCONNECTDATA@@@ATL@@VCComSingleThreadModel@6@@ATL@@@ATL@@UAEPAXI@Z 100019f2 f i Totals.obj
 0001:000009f2       ??_E?$CComObject@V?$CComEnum@UIEnumConnections@@$1?_GUID_b196b287_bab4_101a_b69c_00aa00341d07@@3U__s_GUID@@BUtagCONNECTDATA@@V?$_Copy@UtagCONNECTDATA@@@ATL@@VCComSingleThreadModel@6@@ATL@@@ATL@@UAEPAXI@Z 100019f2 f i Totals.obj
 0001:00000a14       ?OnFinalMessage@?$CWindowImplBaseT@VCWindow@ATL@@V?$CWinTraits@$0FGAAAAAA@$0A@@2@@ATL@@UAEXPAUHWND__@@@Z 10001a14 f i Totals.obj
 0001:00000a14       ?ObjectMain@CComObjectRootBase@ATL@@SGX_N@Z 10001a14 f i Totals.obj
 0001:00000a17       ?GetObjectDescription@?$CComCoClass@VCOPOSTotals@@$1?CLSID_OPOSTotals@@3U_GUID@@B@ATL@@SGPB_WXZ 10001a17 f i Totals.obj
 0001:00000a17       ?GetCategoryMap@CComObjectRootBase@ATL@@SAPBU_ATL_CATMAP_ENTRY@2@XZ 10001a17 f i Totals.obj
 0001:00000a1a       ?CreateInstance@CComClassFactory@ATL@@UAGJPAUIUnknown@@ABU_GUID@@PAPAX@Z 10001a1a f i Totals.obj
 0001:00000a58       ?LockServer@CComClassFactory@ATL@@UAGJH@Z 10001a58 f i Totals.obj
 0001:00000a77       ??_ECComClassFactory@ATL@@UAEPAXI@Z 10001a77 f i Totals.obj
 0001:00000a77       ??_GCComClassFactory@ATL@@UAEPAXI@Z 10001a77 f i Totals.obj
 0001:00000aa2       ??_E?$CComObject@VCOPOSTotals@@@ATL@@W3AEPAXI@Z 10001aa2 f i Totals.obj
 0001:00000aaa       ??_E?$CComObject@VCOPOSTotals@@@ATL@@WEM@AEPAXI@Z 10001aaa f i Totals.obj
 0001:00000ab2       ?QueryInterface@?$CComObject@VCOPOSTotals@@@ATL@@WHA@AGJABU_GUID@@PAPAX@Z 10001ab2 f i Totals.obj
 0001:00000abc       ?AddRef@?$CComObject@VCOPOSTotals@@@ATL@@WHA@AGKXZ 10001abc f i Totals.obj
 0001:00000ac6       ?Release@?$CComObject@VCOPOSTotals@@@ATL@@WHA@AGKXZ 10001ac6 f i Totals.obj
 0001:00000ad0       ?QueryInterface@?$CComObject@VCOPOSTotals@@@ATL@@WHE@AGJABU_GUID@@PAPAX@Z 10001ad0 f i Totals.obj
 0001:00000ada       ?AddRef@?$CComObject@VCOPOSTotals@@@ATL@@WHE@AGKXZ 10001ada f i Totals.obj
 0001:00000ae4       ?Release@?$CComObject@VCOPOSTotals@@@ATL@@WHE@AGKXZ 10001ae4 f i Totals.obj
 0001:00000aee       ?QueryInterface@?$CComObject@VCOPOSTotals@@@ATL@@WHI@AGJABU_GUID@@PAPAX@Z 10001aee f i Totals.obj
 0001:00000af8       ?AddRef@?$CComObject@VCOPOSTotals@@@ATL@@WHI@AGKXZ 10001af8 f i Totals.obj
 0001:00000b02       ?Release@?$CComObject@VCOPOSTotals@@@ATL@@WHI@AGKXZ 10001b02 f i Totals.obj
 0001:00000b0c       ?QueryInterface@?$CComObject@VCOPOSTotals@@@ATL@@WHM@AGJABU_GUID@@PAPAX@Z 10001b0c f i Totals.obj
 0001:00000b16       ?AddRef@?$CComObject@VCOPOSTotals@@@ATL@@WHM@AGKXZ 10001b16 f i Totals.obj
 0001:00000b20       ?Release@?$CComObject@VCOPOSTotals@@@ATL@@WHM@AGKXZ 10001b20 f i Totals.obj
 0001:00000b2a       ?QueryInterface@?$CComObject@VCOPOSTotals@@@ATL@@WIA@AGJABU_GUID@@PAPAX@Z 10001b2a f i Totals.obj
 0001:00000b37       ?AddRef@?$CComObject@VCOPOSTotals@@@ATL@@WIA@AGKXZ 10001b37 f i Totals.obj
 0001:00000b44       ?Release@?$CComObject@VCOPOSTotals@@@ATL@@WIA@AGKXZ 10001b44 f i Totals.obj
 0001:00000b51       ?QueryInterface@?$CComObject@VCOPOSTotals@@@ATL@@WIE@AGJABU_GUID@@PAPAX@Z 10001b51 f i Totals.obj
 0001:00000b5e       ?AddRef@?$CComObject@VCOPOSTotals@@@ATL@@WIE@AGKXZ 10001b5e f i Totals.obj
 0001:00000b6b       ?Release@?$CComObject@VCOPOSTotals@@@ATL@@WIE@AGKXZ 10001b6b f i Totals.obj
 0001:00000b78       ?QueryInterface@?$CComObject@VCOPOSTotals@@@ATL@@WII@AGJABU_GUID@@PAPAX@Z 10001b78 f i Totals.obj
 0001:00000b85       ?AddRef@?$CComObject@VCOPOSTotals@@@ATL@@WII@AGKXZ 10001b85 f i Totals.obj
 0001:00000b92       ?Release@?$CComObject@VCOPOSTotals@@@ATL@@WII@AGKXZ 10001b92 f i Totals.obj
 0001:00000b9f       ?QueryInterface@?$CComObject@VCOPOSTotals@@@ATL@@WIM@AGJABU_GUID@@PAPAX@Z 10001b9f f i Totals.obj
 0001:00000bac       ?AddRef@?$CComObject@VCOPOSTotals@@@ATL@@WIM@AGKXZ 10001bac f i Totals.obj
 0001:00000bb9       ?Release@?$CComObject@VCOPOSTotals@@@ATL@@WIM@AGKXZ 10001bb9 f i Totals.obj
 0001:00000bc6       ?QueryInterface@?$CComObject@VCOPOSTotals@@@ATL@@WJA@AGJABU_GUID@@PAPAX@Z 10001bc6 f i Totals.obj
 0001:00000bd3       ?AddRef@?$CComObject@VCOPOSTotals@@@ATL@@WJA@AGKXZ 10001bd3 f i Totals.obj
 0001:00000be0       ?Release@?$CComObject@VCOPOSTotals@@@ATL@@WJA@AGKXZ 10001be0 f i Totals.obj
 0001:00000bed       ?QueryInterface@?$CComObject@VCOPOSTotals@@@ATL@@WJE@AGJABU_GUID@@PAPAX@Z 10001bed f i Totals.obj
 0001:00000bfa       ?AddRef@?$CComObject@VCOPOSTotals@@@ATL@@WJE@AGKXZ 10001bfa f i Totals.obj
 0001:00000c07       ?Release@?$CComObject@VCOPOSTotals@@@ATL@@WJE@AGKXZ 10001c07 f i Totals.obj
 0001:00000c14       ?QueryInterface@?$CComObject@VCOPOSTotals@@@ATL@@WJI@AGJABU_GUID@@PAPAX@Z 10001c14 f i Totals.obj
 0001:00000c21       ?AddRef@?$CComObject@VCOPOSTotals@@@ATL@@WJI@AGKXZ 10001c21 f i Totals.obj
 0001:00000c2e       ?Release@?$CComObject@VCOPOSTotals@@@ATL@@WJI@AGKXZ 10001c2e f i Totals.obj
 0001:00000c3b       ?QueryInterface@?$CComObject@VCOPOSTotals@@@ATL@@WJM@AGJABU_GUID@@PAPAX@Z 10001c3b f i Totals.obj
 0001:00000c48       ?AddRef@?$CComObject@VCOPOSTotals@@@ATL@@WJM@AGKXZ 10001c48 f i Totals.obj
 0001:00000c55       ?Release@?$CComObject@VCOPOSTotals@@@ATL@@WJM@AGKXZ 10001c55 f i Totals.obj
 0001:00000c62       ?QueryInterface@?$CComObject@VCOPOSTotals@@@ATL@@WKA@AGJABU_GUID@@PAPAX@Z 10001c62 f i Totals.obj
 0001:00000c6f       ?AddRef@?$CComObject@VCOPOSTotals@@@ATL@@WKA@AGKXZ 10001c6f f i Totals.obj
 0001:00000c7c       ?Release@?$CComObject@VCOPOSTotals@@@ATL@@WKA@AGKXZ 10001c7c f i Totals.obj
 0001:00000c89       ?AddRef@?$CComObject@VCOPOSTotals@@@ATL@@WKI@AGKXZ 10001c89 f i Totals.obj
 0001:00000c96       ?Release@?$CComObject@VCOPOSTotals@@@ATL@@WKI@AGKXZ 10001c96 f i Totals.obj
 0001:00000ca3       ?AddRef@?$CComObject@VCOPOSTotals@@@ATL@@WLE@AGKXZ 10001ca3 f i Totals.obj
 0001:00000cb0       ?Release@?$CComObject@VCOPOSTotals@@@ATL@@WLE@AGKXZ 10001cb0 f i Totals.obj
 0001:00000cbd       ??_E?$CComContainedObject@VCOPOSTotals@@@ATL@@W3AEPAXI@Z 10001cbd f i Totals.obj
 0001:00000cc5       ??_E?$CComContainedObject@VCOPOSTotals@@@ATL@@WEM@AEPAXI@Z 10001cc5 f i Totals.obj
 0001:00000ccd       ?QueryInterface@?$CComContainedObject@VCOPOSTotals@@@ATL@@WHA@AGJABU_GUID@@PAPAX@Z 10001ccd f i Totals.obj
 0001:00000cd7       ?AddRef@?$CComContainedObject@VCOPOSTotals@@@ATL@@WHA@AGKXZ 10001cd7 f i Totals.obj
 0001:00000ce1       ?Release@?$CComContainedObject@VCOPOSTotals@@@ATL@@WHA@AGKXZ 10001ce1 f i Totals.obj
 0001:00000ceb       ?QueryInterface@?$CComContainedObject@VCOPOSTotals@@@ATL@@WHE@AGJABU_GUID@@PAPAX@Z 10001ceb f i Totals.obj
 0001:00000cf5       ?AddRef@?$CComContainedObject@VCOPOSTotals@@@ATL@@WHE@AGKXZ 10001cf5 f i Totals.obj
 0001:00000cff       ?Release@?$CComContainedObject@VCOPOSTotals@@@ATL@@WHE@AGKXZ 10001cff f i Totals.obj
 0001:00000d09       ?QueryInterface@?$CComContainedObject@VCOPOSTotals@@@ATL@@WHI@AGJABU_GUID@@PAPAX@Z 10001d09 f i Totals.obj
 0001:00000d13       ?AddRef@?$CComContainedObject@VCOPOSTotals@@@ATL@@WHI@AGKXZ 10001d13 f i Totals.obj
 0001:00000d1d       ?Release@?$CComContainedObject@VCOPOSTotals@@@ATL@@WHI@AGKXZ 10001d1d f i Totals.obj
 0001:00000d27       ?QueryInterface@?$CComContainedObject@VCOPOSTotals@@@ATL@@WHM@AGJABU_GUID@@PAPAX@Z 10001d27 f i Totals.obj
 0001:00000d31       ?AddRef@?$CComContainedObject@VCOPOSTotals@@@ATL@@WHM@AGKXZ 10001d31 f i Totals.obj
 0001:00000d3b       ?Release@?$CComContainedObject@VCOPOSTotals@@@ATL@@WHM@AGKXZ 10001d3b f i Totals.obj
 0001:00000d45       ?QueryInterface@?$CComContainedObject@VCOPOSTotals@@@ATL@@WIA@AGJABU_GUID@@PAPAX@Z 10001d45 f i Totals.obj
 0001:00000d52       ?AddRef@?$CComContainedObject@VCOPOSTotals@@@ATL@@WIA@AGKXZ 10001d52 f i Totals.obj
 0001:00000d5f       ?Release@?$CComContainedObject@VCOPOSTotals@@@ATL@@WIA@AGKXZ 10001d5f f i Totals.obj
 0001:00000d6c       ?QueryInterface@?$CComContainedObject@VCOPOSTotals@@@ATL@@WIE@AGJABU_GUID@@PAPAX@Z 10001d6c f i Totals.obj
 0001:00000d79       ?AddRef@?$CComContainedObject@VCOPOSTotals@@@ATL@@WIE@AGKXZ 10001d79 f i Totals.obj
 0001:00000d86       ?Release@?$CComContainedObject@VCOPOSTotals@@@ATL@@WIE@AGKXZ 10001d86 f i Totals.obj
 0001:00000d93       ?QueryInterface@?$CComContainedObject@VCOPOSTotals@@@ATL@@WII@AGJABU_GUID@@PAPAX@Z 10001d93 f i Totals.obj
 0001:00000da0       ?AddRef@?$CComContainedObject@VCOPOSTotals@@@ATL@@WII@AGKXZ 10001da0 f i Totals.obj
 0001:00000dad       ?Release@?$CComContainedObject@VCOPOSTotals@@@ATL@@WII@AGKXZ 10001dad f i Totals.obj
 0001:00000dba       ?QueryInterface@?$CComContainedObject@VCOPOSTotals@@@ATL@@WIM@AGJABU_GUID@@PAPAX@Z 10001dba f i Totals.obj
 0001:00000dc7       ?AddRef@?$CComContainedObject@VCOPOSTotals@@@ATL@@WIM@AGKXZ 10001dc7 f i Totals.obj
 0001:00000dd4       ?Release@?$CComContainedObject@VCOPOSTotals@@@ATL@@WIM@AGKXZ 10001dd4 f i Totals.obj
 0001:00000de1       ?QueryInterface@?$CComContainedObject@VCOPOSTotals@@@ATL@@WJA@AGJABU_GUID@@PAPAX@Z 10001de1 f i Totals.obj
 0001:00000dee       ?AddRef@?$CComContainedObject@VCOPOSTotals@@@ATL@@WJA@AGKXZ 10001dee f i Totals.obj
 0001:00000dfb       ?Release@?$CComContainedObject@VCOPOSTotals@@@ATL@@WJA@AGKXZ 10001dfb f i Totals.obj
 0001:00000e08       ?QueryInterface@?$CComContainedObject@VCOPOSTotals@@@ATL@@WJE@AGJABU_GUID@@PAPAX@Z 10001e08 f i Totals.obj
 0001:00000e15       ?AddRef@?$CComContainedObject@VCOPOSTotals@@@ATL@@WJE@AGKXZ 10001e15 f i Totals.obj
 0001:00000e22       ?Release@?$CComContainedObject@VCOPOSTotals@@@ATL@@WJE@AGKXZ 10001e22 f i Totals.obj
 0001:00000e2f       ?QueryInterface@?$CComContainedObject@VCOPOSTotals@@@ATL@@WJI@AGJABU_GUID@@PAPAX@Z 10001e2f f i Totals.obj
 0001:00000e3c       ?AddRef@?$CComContainedObject@VCOPOSTotals@@@ATL@@WJI@AGKXZ 10001e3c f i Totals.obj
 0001:00000e49       ?Release@?$CComContainedObject@VCOPOSTotals@@@ATL@@WJI@AGKXZ 10001e49 f i Totals.obj
 0001:00000e56       ?QueryInterface@?$CComContainedObject@VCOPOSTotals@@@ATL@@WJM@AGJABU_GUID@@PAPAX@Z 10001e56 f i Totals.obj
 0001:00000e63       ?AddRef@?$CComContainedObject@VCOPOSTotals@@@ATL@@WJM@AGKXZ 10001e63 f i Totals.obj
 0001:00000e70       ?Release@?$CComContainedObject@VCOPOSTotals@@@ATL@@WJM@AGKXZ 10001e70 f i Totals.obj
 0001:00000e7d       ?QueryInterface@?$CComContainedObject@VCOPOSTotals@@@ATL@@WKA@AGJABU_GUID@@PAPAX@Z 10001e7d f i Totals.obj
 0001:00000e8a       ?AddRef@?$CComContainedObject@VCOPOSTotals@@@ATL@@WKA@AGKXZ 10001e8a f i Totals.obj
 0001:00000e97       ?Release@?$CComContainedObject@VCOPOSTotals@@@ATL@@WKA@AGKXZ 10001e97 f i Totals.obj
 0001:00000ea4       ?AddRef@?$CComContainedObject@VCOPOSTotals@@@ATL@@WKI@AGKXZ 10001ea4 f i Totals.obj
 0001:00000eb1       ?Release@?$CComContainedObject@VCOPOSTotals@@@ATL@@WKI@AGKXZ 10001eb1 f i Totals.obj
 0001:00000ebe       ?AddRef@?$CComContainedObject@VCOPOSTotals@@@ATL@@WLE@AGKXZ 10001ebe f i Totals.obj
 0001:00000ecb       ?Release@?$CComContainedObject@VCOPOSTotals@@@ATL@@WLE@AGKXZ 10001ecb f i Totals.obj
 0001:00000ed8       ?GetWindowProc@?$CWindowImplBaseT@VCWindow@ATL@@V?$CWinTraits@$0FGAAAAAA@$0A@@2@@ATL@@UAEP6GJPAUHWND__@@IIJ@ZXZ 10001ed8 f i Totals.obj
 0001:00000ede       ?StartWindowProc@?$CWindowImplBaseT@VCWindow@ATL@@V?$CWinTraits@$0FGAAAAAA@$0A@@2@@ATL@@SGJPAUHWND__@@IIJ@Z 10001ede f i Totals.obj
 0001:00000f32       ?GetTypeInfoCount@?$IDispatchImpl@UIOPOSTotals@@$1?IID_IOPOSTotals@@3U_GUID@@B$1?LIBID_OposTotals_CCO@@3U3@B$00$0A@VCComTypeInfoHolder@ATL@@@ATL@@UAGJPAI@Z 10001f32 f i Totals.obj
 0001:00000f4f       ?GetTypeInfo@?$IDispatchImpl@UIOPOSTotals@@$1?IID_IOPOSTotals@@3U_GUID@@B$1?LIBID_OposTotals_CCO@@3U3@B$00$0A@VCComTypeInfoHolder@ATL@@@ATL@@UAGJIKPAPAUITypeInfo@@@Z 10001f4f f i Totals.obj
 0001:00000f73       ?GetIDsOfNames@?$IDispatchImpl@UIOPOSTotals@@$1?IID_IOPOSTotals@@3U_GUID@@B$1?LIBID_OposTotals_CCO@@3U3@B$00$0A@VCComTypeInfoHolder@ATL@@@ATL@@UAGJABU_GUID@@PAPA_WIKPAJ@Z 10001f73 f i Totals.obj
 0001:00000f93       ?Invoke@?$IDispatchImpl@UIOPOSTotals@@$1?IID_IOPOSTotals@@3U_GUID@@B$1?LIBID_OposTotals_CCO@@3U3@B$00$0A@VCComTypeInfoHolder@ATL@@@ATL@@UAGJJABU_GUID@@KGPAUtagDISPPARAMS@@PAUtagVARIANT@@PAUtagEXCEPINFO@@PAI@Z 10001f93 f i Totals.obj
 0001:00000fa1       ?CreateControlWindow@?$CComControl@VCOPOSTotals@@V?$CWindowImpl@VCOPOSTotals@@VCWindow@ATL@@V?$CWinTraits@$0FGAAAAAA@$0A@@3@@ATL@@@ATL@@UAEPAUHWND__@@PAU3@AAUtagRECT@@@Z 10001fa1 f i Totals.obj
 0001:00000fd0       ?ControlQueryInterface@?$CComControl@VCOPOSTotals@@V?$CWindowImpl@VCOPOSTotals@@VCWindow@ATL@@V?$CWinTraits@$0FGAAAAAA@$0A@@3@@ATL@@@ATL@@UAEJABU_GUID@@PAPAX@Z 10001fd0 f i Totals.obj
 0001:00000feb       ?GetUserClassID@?$IOleObjectImpl@VCOPOSTotals@@@ATL@@UAGJPAU_GUID@@@Z 10001feb f i Totals.obj
 0001:00000feb       ?GetClassID@?$IPersistStreamInitImpl@VCOPOSTotals@@@ATL@@UAGJPAU_GUID@@@Z 10001feb f i Totals.obj
 0001:00000feb       ?GetClassID@?$IPersistStorageImpl@VCOPOSTotals@@@ATL@@UAGJPAU_GUID@@@Z 10001feb f i Totals.obj
 0001:0000100f       ?IsDirty@?$IPersistStreamInitImpl@VCOPOSTotals@@@ATL@@UAGJXZ 1000200f f i Totals.obj
 0001:0000102e       ?Load@?$IPersistStreamInitImpl@VCOPOSTotals@@@ATL@@UAGJPAUIStream@@@Z 1000202e f i Totals.obj
 0001:0000104d       ?Save@?$IPersistStreamInitImpl@VCOPOSTotals@@@ATL@@UAGJPAUIStream@@H@Z 1000204d f i Totals.obj
 0001:0000106f       ?GetSizeMax@?$IPersistStreamInitImpl@VCOPOSTotals@@@ATL@@UAGJPAT_ULARGE_INTEGER@@@Z 1000206f f i Totals.obj
 0001:0000124e       ?InitNew@?$IPersistStreamInitImpl@VCOPOSTotals@@@ATL@@UAGJXZ 1000224e f i Totals.obj
 0001:0000126b       ?Unfreeze@?$IViewObjectExImpl@VCOPOSTotals@@@ATL@@UAGJK@Z 1000226b f i Totals.obj
 0001:0000126b       ?SetColorScheme@?$IOleObjectImpl@VCOPOSTotals@@@ATL@@UAGJPAUtagLOGPALETTE@@@Z 1000226b f i Totals.obj
 0001:0000126b       ?QueryGetData@?$IDataObjectImpl@VCOPOSTotals@@@ATL@@UAGJPAUtagFORMATETC@@@Z 1000226b f i Totals.obj
 0001:0000126b       ?GetDropTarget@?$IOleInPlaceObjectWindowlessImpl@VCOPOSTotals@@@ATL@@UAGJPAPAUIDropTarget@@@Z 1000226b f i Totals.obj
 0001:0000126b       ?ContextSensitiveHelp@?$IOleInPlaceActiveObjectImpl@VCOPOSTotals@@@ATL@@UAGJH@Z 1000226b f i Totals.obj
 0001:0000126b       ?ContextSensitiveHelp@?$IOleInPlaceObjectWindowlessImpl@VCOPOSTotals@@@ATL@@UAGJH@Z 1000226b f i Totals.obj
 0001:0000126b       ?OnMnemonic@?$IOleControlImpl@VCOPOSTotals@@@ATL@@UAGJPAUtagMSG@@@Z 1000226b f i Totals.obj
 0001:0000126b       ?GetControlInfo@?$IOleControlImpl@VCOPOSTotals@@@ATL@@UAGJPAUtagCONTROLINFO@@@Z 1000226b f i Totals.obj
 0001:0000126b       ?SOOutputCompleteDummy@COPOSTotals@@MAGJJ@Z 1000226b f i Totals.obj
 0001:0000126b       ?SODataDummy@COPOSTotals@@MAGJJ@Z 1000226b f i Totals.obj
 0001:00001273       ?OnAmbientPropertyChange@?$IOleControlImpl@VCOPOSTotals@@@ATL@@UAGJJ@Z 10002273 f i Totals.obj
 0001:00001273       ?EnableModeless@?$IOleInPlaceActiveObjectImpl@VCOPOSTotals@@@ATL@@UAGJH@Z 10002273 f i Totals.obj
 0001:00001273       ?OnFrameWindowActivate@?$IOleInPlaceActiveObjectImpl@VCOPOSTotals@@@ATL@@UAGJH@Z 10002273 f i Totals.obj
 0001:00001273       ?SaveCompleted@?$IPersistStorageImpl@VCOPOSTotals@@@ATL@@UAGJPAUIStorage@@@Z 10002273 f i Totals.obj
 0001:00001278       ?SetClientSite@?$IOleObjectImpl@VCOPOSTotals@@@ATL@@UAGJPAUIOleClientSite@@@Z 10002278 f i Totals.obj
 0001:00001295       ?GetClientSite@?$IOleObjectImpl@VCOPOSTotals@@@ATL@@UAGJPAPAUIOleClientSite@@@Z 10002295 f i Totals.obj
 0001:000012b2       ?SetHostNames@?$IOleObjectImpl@VCOPOSTotals@@@ATL@@UAGJPB_W0@Z 100022b2 f i Totals.obj
 0001:000012b7       ?Close@?$IOleObjectImpl@VCOPOSTotals@@@ATL@@UAGJK@Z 100022b7 f i Totals.obj
 0001:000012d4       ?SetMoniker@?$IOleObjectImpl@VCOPOSTotals@@@ATL@@UAGJKPAUIMoniker@@@Z 100022d4 f i Totals.obj
 0001:000012d4       ?EnumFormatEtc@?$IDataObjectImpl@VCOPOSTotals@@@ATL@@UAGJKPAPAUIEnumFORMATETC@@@Z 100022d4 f i Totals.obj
 0001:000012d4       ?GetRect@?$IViewObjectExImpl@VCOPOSTotals@@@ATL@@UAGJKPAU_RECTL@@@Z 100022d4 f i Totals.obj
 0001:000012d4       ?GetClipboardData@?$IOleObjectImpl@VCOPOSTotals@@@ATL@@UAGJKPAPAUIDataObject@@@Z 100022d4 f i Totals.obj
 0001:000012d4       ?QueryInterface@CRegObject@ATL@@UAGJABU_GUID@@PAPAX@Z 100022d4 f i Totals.obj
 0001:000012d4       ?GetDataHere@?$IDataObjectImpl@VCOPOSTotals@@@ATL@@UAGJPAUtagFORMATETC@@PAUtagSTGMEDIUM@@@Z 100022d4 f i Totals.obj
 0001:000012d4       ?GetCanonicalFormatEtc@?$IDataObjectImpl@VCOPOSTotals@@@ATL@@UAGJPAUtagFORMATETC@@0@Z 100022d4 f i Totals.obj
 0001:000012dc       ?GetMoniker@?$IOleObjectImpl@VCOPOSTotals@@@ATL@@UAGJKKPAPAUIMoniker@@@Z 100022dc f i Totals.obj
 0001:000012dc       ?InitFromData@?$IOleObjectImpl@VCOPOSTotals@@@ATL@@UAGJPAUIDataObject@@HK@Z 100022dc f i Totals.obj
 0001:000012dc       ?SetData@?$IDataObjectImpl@VCOPOSTotals@@@ATL@@UAGJPAUtagFORMATETC@@PAUtagSTGMEDIUM@@H@Z 100022dc f i Totals.obj
 0001:000012e4       ?DoVerb@?$IOleObjectImpl@VCOPOSTotals@@@ATL@@UAGJJPAUtagMSG@@PAUIOleClientSite@@JPAUHWND__@@PBUtagRECT@@@Z 100022e4 f i Totals.obj
 0001:000013d8       ?EnumVerbs@?$IOleObjectImpl@VCOPOSTotals@@@ATL@@UAGJPAPAUIEnumOLEVERB@@@Z 100023d8 f i Totals.obj
 0001:000013fa       ?HandsOffStorage@?$IPersistStorageImpl@VCOPOSTotals@@@ATL@@UAGJXZ 100023fa f i Totals.obj
 0001:000013fa       ?Update@?$IOleObjectImpl@VCOPOSTotals@@@ATL@@UAGJXZ 100023fa f i Totals.obj
 0001:000013fa       ?IsUpToDate@?$IOleObjectImpl@VCOPOSTotals@@@ATL@@UAGJXZ 100023fa f i Totals.obj
 0001:000013fa       ?Release@CRegObject@ATL@@UAGKXZ 100023fa f i Totals.obj
 0001:000013ff       ?GetUserType@?$IOleObjectImpl@VCOPOSTotals@@@ATL@@UAGJKPAPA_W@Z 100023ff f i Totals.obj
 0001:00001417       ?SetExtent@?$IOleObjectImpl@VCOPOSTotals@@@ATL@@UAGJKPAUtagSIZE@@@Z 10002417 f i Totals.obj
 0001:00001437       ?GetExtent@?$IOleObjectImpl@VCOPOSTotals@@@ATL@@UAGJKPAUtagSIZE@@@Z 10002437 f i Totals.obj
 0001:00001475       ?Advise@?$IOleObjectImpl@VCOPOSTotals@@@ATL@@UAGJPAUIAdviseSink@@PAK@Z 10002475 f i Totals.obj
 0001:00001495       ?Unadvise@?$IOleObjectImpl@VCOPOSTotals@@@ATL@@UAGJK@Z 10002495 f i Totals.obj
 0001:000014c4       ?EnumAdvise@?$IOleObjectImpl@VCOPOSTotals@@@ATL@@UAGJPAPAUIEnumSTATDATA@@@Z 100024c4 f i Totals.obj
 0001:00001504       ?GetMiscStatus@?$IOleObjectImpl@VCOPOSTotals@@@ATL@@UAGJKPAK@Z 10002504 f i Totals.obj
 0001:0000151c       ?GetWindow@?$IOleInPlaceActiveObjectImpl@VCOPOSTotals@@@ATL@@UAGJPAPAUHWND__@@@Z 1000251c f i Totals.obj
 0001:00001569       ?TranslateAcceleratorW@?$IOleInPlaceActiveObjectImpl@VCOPOSTotals@@@ATL@@UAGJPAUtagMSG@@@Z 10002569 f i Totals.obj
 0001:00001617       ?OnDocWindowActivate@?$IOleInPlaceActiveObjectImpl@VCOPOSTotals@@@ATL@@UAGJH@Z 10002617 f i Totals.obj
 0001:00001639       ?ResizeBorder@?$IOleInPlaceActiveObjectImpl@VCOPOSTotals@@@ATL@@UAGJPBUtagRECT@@PAUIOleInPlaceUIWindow@@H@Z 10002639 f i Totals.obj
 0001:0000163e       ?Draw@?$IViewObjectExImpl@VCOPOSTotals@@@ATL@@UAGJKJPAXPAUtagDVTARGETDEVICE@@PAUHDC__@@2PBU_RECTL@@3P6GHK@ZK@Z 1000263e f i Totals.obj
 0001:00001670       ?GetColorSet@?$IViewObjectExImpl@VCOPOSTotals@@@ATL@@UAGJKJPAXPAUtagDVTARGETDEVICE@@PAUHDC__@@PAPAUtagLOGPALETTE@@@Z 10002670 f i Totals.obj
 0001:00001678       ?SOErrorDummy@COPOSTotals@@MAGJJJJPAJ@Z 10002678 f i Totals.obj
 0001:00001678       ?Freeze@?$IViewObjectExImpl@VCOPOSTotals@@@ATL@@UAGJKJPAXPAK@Z 10002678 f i Totals.obj
 0001:00001680       ?SetAdvise@?$IViewObjectExImpl@VCOPOSTotals@@@ATL@@UAGJKKPAUIAdviseSink@@@Z 10002680 f i Totals.obj
 0001:0000169f       ?GetAdvise@?$IViewObjectExImpl@VCOPOSTotals@@@ATL@@UAGJPAK0PAPAUIAdviseSink@@@Z 1000269f f i Totals.obj
 0001:000016d4       ?GetExtent@?$IViewObjectExImpl@VCOPOSTotals@@@ATL@@UAGJKJPAUtagDVTARGETDEVICE@@PAUtagSIZE@@@Z 100026d4 f i Totals.obj
 0001:00001705       ?GetViewStatus@?$IViewObjectExImpl@VCOPOSTotals@@@ATL@@UAGJPAK@Z 10002705 f i Totals.obj
 0001:00001722       ?QueryHitPoint@?$IViewObjectExImpl@VCOPOSTotals@@@ATL@@UAGJKPBUtagRECT@@UtagPOINT@@JPAK@Z 10002722 f i Totals.obj
 0001:00001763       ?QueryHitRect@?$IViewObjectExImpl@VCOPOSTotals@@@ATL@@UAGJKPBUtagRECT@@0JPAK@Z 10002763 f i Totals.obj
 0001:000017be       ?GetNaturalExtent@?$IViewObjectExImpl@VCOPOSTotals@@@ATL@@UAGJKJPAUtagDVTARGETDEVICE@@PAUHDC__@@PAUtagExtentInfo@@PAUtagSIZE@@@Z 100027be f i Totals.obj
 0001:00001809       ?GetWindow@?$IOleInPlaceObjectWindowlessImpl@VCOPOSTotals@@@ATL@@UAGJPAPAUHWND__@@@Z 10002809 f i Totals.obj
 0001:00001856       ?InPlaceDeactivate@?$IOleInPlaceObjectWindowlessImpl@VCOPOSTotals@@@ATL@@UAGJXZ 10002856 f i Totals.obj
 0001:00001870       ?UIDeactivate@?$IOleInPlaceObjectWindowlessImpl@VCOPOSTotals@@@ATL@@UAGJXZ 10002870 f i Totals.obj
 0001:0000188a       ?SetObjectRects@?$IOleInPlaceObjectWindowlessImpl@VCOPOSTotals@@@ATL@@UAGJPBUtagRECT@@0@Z 1000288a f i Totals.obj
 0001:000018aa       ?ReactivateAndUndo@?$IOleInPlaceObjectWindowlessImpl@VCOPOSTotals@@@ATL@@UAGJXZ 100028aa f i Totals.obj
 0001:000018b2       ?OnWindowMessage@?$IOleInPlaceObjectWindowlessImpl@VCOPOSTotals@@@ATL@@UAGJIIJPAJ@Z 100028b2 f i Totals.obj
 0001:00001922       ?EnumConnectionPoints@?$IConnectionPointContainerImpl@VCOPOSTotals@@@ATL@@UAGJPAPAUIEnumConnectionPoints@@@Z 10002922 f i Totals.obj
 0001:00001ab2       ?FindConnectionPoint@?$IConnectionPointContainerImpl@VCOPOSTotals@@@ATL@@UAGJABU_GUID@@PAPAUIConnectionPoint@@@Z 10002ab2 f i Totals.obj
 0001:00001b55       ?IsDirty@?$IPersistStorageImpl@VCOPOSTotals@@@ATL@@UAGJXZ 10002b55 f i Totals.obj
 0001:00001b85       ?InitNew@?$IPersistStorageImpl@VCOPOSTotals@@@ATL@@UAGJPAUIStorage@@@Z 10002b85 f i Totals.obj
 0001:00001bb5       ?Load@?$IPersistStorageImpl@VCOPOSTotals@@@ATL@@UAGJPAUIStorage@@@Z 10002bb5 f i Totals.obj
 0001:00001c21       ?Save@?$IPersistStorageImpl@VCOPOSTotals@@@ATL@@UAGJPAUIStorage@@H@Z 10002c21 f i Totals.obj
 0001:00001c94       ?GetPages@?$ISpecifyPropertyPagesImpl@VCOPOSTotals@@@ATL@@UAGJPAUtagCAUUID@@@Z 10002c94 f i Totals.obj
 0001:00001cab       ?QuickActivate@?$IQuickActivateImpl@VCOPOSTotals@@@ATL@@UAGJPAUtagQACONTAINER@@PAUtagQACONTROL@@@Z 10002cab f i Totals.obj
 0001:00001cce       ?SetContentExtent@?$IQuickActivateImpl@VCOPOSTotals@@@ATL@@UAGJPAUtagSIZE@@@Z 10002cce f i Totals.obj
 0001:00001cfa       ?GetContentExtent@?$IQuickActivateImpl@VCOPOSTotals@@@ATL@@UAGJPAUtagSIZE@@@Z 10002cfa f i Totals.obj
 0001:00001d36       ?GetData@?$IDataObjectImpl@VCOPOSTotals@@@ATL@@UAGJPAUtagFORMATETC@@PAUtagSTGMEDIUM@@@Z 10002d36 f i Totals.obj
 0001:00001d59       ?DAdvise@?$IDataObjectImpl@VCOPOSTotals@@@ATL@@UAGJPAUtagFORMATETC@@KPAUIAdviseSink@@PAK@Z 10002d59 f i Totals.obj
 0001:00001d9a       ?DUnadvise@?$IDataObjectImpl@VCOPOSTotals@@@ATL@@UAGJK@Z 10002d9a f i Totals.obj
 0001:00001dc8       ?EnumDAdvise@?$IDataObjectImpl@VCOPOSTotals@@@ATL@@UAGJPAPAUIEnumSTATDATA@@@Z 10002dc8 f i Totals.obj
 0001:00001e07       ?GetClassInfoW@?$IProvideClassInfo2Impl@$1?CLSID_OPOSTotals@@3U_GUID@@B$1?DIID__IOPOSTotalsEvents@@3U2@B$1?LIBID_OposTotals_CCO@@3U2@B$00$0A@VCComTypeInfoHolder@ATL@@@ATL@@UAGJPAPAUITypeInfo@@@Z 10002e07 f i Totals.obj
 0001:00001e1d       ?GetGUID@?$IProvideClassInfo2Impl@$1?CLSID_OPOSTotals@@3U_GUID@@B$1?DIID__IOPOSTotalsEvents@@3U2@B$1?LIBID_OposTotals_CCO@@3U2@B$00$0A@VCComTypeInfoHolder@ATL@@@ATL@@UAGJKPAU_GUID@@@Z 10002e1d f i Totals.obj
 0001:00001e5b       __get_startup_argv_mode    10002e5b f i LIBCMT:argv_mode.obj
 0001:00001e5b       ?FAccessAllowed@?$IObjectSafetyImpl@VCOPOSTotals@@$02@ATL@@MAEHXZ 10002e5b f i Totals.obj
 0001:00001e5f       ?GetInterfaceSafetyOptions@?$IObjectSafetyImpl@VCOPOSTotals@@$02@ATL@@UAGJABU_GUID@@PAK1@Z 10002e5f f i Totals.obj
 0001:00001ed2       ?SetInterfaceSafetyOptions@?$IObjectSafetyImpl@VCOPOSTotals@@$02@ATL@@UAGJABU_GUID@@KK@Z 10002ed2 f i Totals.obj
 0001:00001f4c       ?Lock@CAtlModule@ATL@@UAEJXZ 10002f4c f i Totals.obj
 0001:00001f56       ?Unlock@CAtlModule@ATL@@UAEJXZ 10002f56 f i Totals.obj
 0001:00001f60       ?GetLockCount@CAtlModule@ATL@@UAEJXZ 10002f60 f i Totals.obj
 0001:00001f64       ?GetGITPtr@CAtlModule@ATL@@UAEJPAPAUIGlobalInterfaceTable@@@Z 10002f64 f i Totals.obj
 0001:00001fb0       ?_LocCPQueryInterface@?$IConnectionPointImpl@VCOPOSTotals@@$1?IID_IPropertyNotifySink@@3U_GUID@@BVCComDynamicUnkArray@ATL@@@ATL@@UAGJABU_GUID@@PAPAX@Z 10002fb0 f i Totals.obj
 0001:00001fb0       ?_LocCPQueryInterface@?$IConnectionPointImpl@VCOPOSTotals@@$1?DIID__IOPOSTotalsEvents@@3U_GUID@@BVCComDynamicUnkArray@ATL@@@ATL@@UAGJABU_GUID@@PAPAX@Z 10002fb0 f i Totals.obj
 0001:00001ffd       ?GetConnectionInterface@?$IConnectionPointImpl@VCOPOSTotals@@$1?IID_IPropertyNotifySink@@3U_GUID@@BVCComDynamicUnkArray@ATL@@@ATL@@UAGJPAU_GUID@@@Z 10002ffd f i Totals.obj
 0001:00002021       ?GetConnectionPointContainer@?$IConnectionPointImpl@VCOPOSTotals@@$1?IID_IPropertyNotifySink@@3U_GUID@@BVCComDynamicUnkArray@ATL@@@ATL@@UAGJPAPAUIConnectionPointContainer@@@Z 10003021 f i Totals.obj
 0001:00002044       ?Advise@?$IConnectionPointImpl@VCOPOSTotals@@$1?DIID__IOPOSTotalsEvents@@3U_GUID@@BVCComDynamicUnkArray@ATL@@@ATL@@UAGJPAUIUnknown@@PAK@Z 10003044 f i Totals.obj
 0001:00002044       ?Advise@?$IConnectionPointImpl@VCOPOSTotals@@$1?IID_IPropertyNotifySink@@3U_GUID@@BVCComDynamicUnkArray@ATL@@@ATL@@UAGJPAUIUnknown@@PAK@Z 10003044 f i Totals.obj
 0001:000020e4       ?Unadvise@?$IConnectionPointImpl@VCOPOSTotals@@$1?IID_IPropertyNotifySink@@3U_GUID@@BVCComDynamicUnkArray@ATL@@@ATL@@UAGJK@Z 100030e4 f i Totals.obj
 0001:000020e4       ?Unadvise@?$IConnectionPointImpl@VCOPOSTotals@@$1?DIID__IOPOSTotalsEvents@@3U_GUID@@BVCComDynamicUnkArray@ATL@@@ATL@@UAGJK@Z 100030e4 f i Totals.obj
 0001:00002124       ?EnumConnections@?$IConnectionPointImpl@VCOPOSTotals@@$1?IID_IPropertyNotifySink@@3U_GUID@@BVCComDynamicUnkArray@ATL@@@ATL@@UAGJPAPAUIEnumConnections@@@Z 10003124 f i Totals.obj
 0001:00002124       ?EnumConnections@?$IConnectionPointImpl@VCOPOSTotals@@$1?DIID__IOPOSTotalsEvents@@3U_GUID@@BVCComDynamicUnkArray@ATL@@@ATL@@UAGJPAPAUIEnumConnections@@@Z 10003124 f i Totals.obj
 0001:00002227       ?GetConnectionInterface@?$IConnectionPointImpl@VCOPOSTotals@@$1?DIID__IOPOSTotalsEvents@@3U_GUID@@BVCComDynamicUnkArray@ATL@@@ATL@@UAGJPAU_GUID@@@Z 10003227 f i Totals.obj
 0001:0000224b       ?GetConnectionPointContainer@?$IConnectionPointImpl@VCOPOSTotals@@$1?DIID__IOPOSTotalsEvents@@3U_GUID@@BVCComDynamicUnkArray@ATL@@@ATL@@UAGJPAPAUIConnectionPointContainer@@@Z 1000324b f i Totals.obj
 0001:0000226e       ?AddCommonRGSReplacements@?$CAtlModuleT@VCComModule@ATL@@@ATL@@UAEJPAUIRegistrarBase@@@Z 1000326e f i Totals.obj
 0001:00002288       ?UpdateRegistry@COPOSTotals@@SGJH@Z 10003288 f i Totals.obj
 0001:000022a0       ?ProcessWindowMessage@COPOSTotals@@UAEHPAUHWND__@@IIJAAJK@Z 100032a0 f i Totals.obj
 0001:000022ed       ?SODirectIO@COPOSTotals@@MAGJJPAJPAPA_W@Z 100032ed f i Totals.obj
 0001:00002336       ?SOStatusUpdate@COPOSTotals@@MAGJJ@Z 10003336 f i Totals.obj
 0001:0000236f       ?UpdateRegistryFromResourceD@CComModule@ATL@@UAGJPB_WHPAU_ATL_REGMAP_ENTRY@2@@Z 1000336f f i Totals.obj
 0001:0000236f       ?UpdateRegistryFromResourceD@CComModule@ATL@@UAGJIHPAU_ATL_REGMAP_ENTRY@2@@Z 1000336f f i Totals.obj
 0001:00002377       ?UpdateRegistryFromResource@CComModule@ATL@@UAGJPB_WHPAU_ATL_REGMAP_ENTRY@2@@Z 10003377 f i Totals.obj
 0001:00002380       ?UpdateRegistryFromResource@CComModule@ATL@@UAGJIHPAU_ATL_REGMAP_ENTRY@2@@Z 10003380 f i Totals.obj
 0001:00002389       ??_ECComModule@ATL@@UAEPAXI@Z 10003389 f i Totals.obj
 0001:00002389       ??_GCComModule@ATL@@UAEPAXI@Z 10003389 f i Totals.obj
 0001:000023b1       ?CreateInstance@?$CComCreator@V?$CComObjectCached@VCComClassFactory@ATL@@@ATL@@@ATL@@SGJPAXABU_GUID@@PAPAX@Z 100033b1 f i Totals.obj
 0001:00002452       ?CreateInstance@?$CComCreator2@V?$CComCreator@V?$CComObject@VCOPOSTotals@@@ATL@@@ATL@@V?$CComCreator@V?$CComAggObject@VCOPOSTotals@@@ATL@@@2@@ATL@@SGJPAXABU_GUID@@PAPAX@Z 10003452 f i Totals.obj
 0001:00002472       ?AddRef@?$CComObjectCached@VCComClassFactory@ATL@@@ATL@@UAGKXZ 10003472 f i Totals.obj
 0001:00002499       ?Release@?$CComObjectCached@VCComClassFactory@ATL@@@ATL@@UAGKXZ 10003499 f i Totals.obj
 0001:000024cf       ?QueryInterface@?$CComObjectCached@VCComClassFactory@ATL@@@ATL@@UAGJABU_GUID@@PAPAX@Z 100034cf f i Totals.obj
 0001:000024e9       ??_G?$CComObjectCached@VCComClassFactory@ATL@@@ATL@@UAEPAXI@Z 100034e9 f i Totals.obj
 0001:000024e9       ??_E?$CComObjectCached@VCComClassFactory@ATL@@@ATL@@UAEPAXI@Z 100034e9 f i Totals.obj
 0001:0000250b       ?Next@?$CComEnumImpl@UIEnumConnectionPoints@@$1?_GUID_b196b285_bab4_101a_b69c_00aa00341d07@@3U__s_GUID@@BPAUIConnectionPoint@@V?$_CopyInterface@UIConnectionPoint@@@ATL@@@ATL@@UAGJKPAPAUIConnectionPoint@@PAK@Z 1000350b f i Totals.obj
 0001:000025da       ?Skip@?$CComEnumImpl@UIEnumConnectionPoints@@$1?_GUID_b196b285_bab4_101a_b69c_00aa00341d07@@3U__s_GUID@@BPAUIConnectionPoint@@V?$_CopyInterface@UIConnectionPoint@@@ATL@@@ATL@@UAGJK@Z 100035da f i Totals.obj
 0001:00002607       ?Clone@?$CComEnumImpl@UIEnumConnectionPoints@@$1?_GUID_b196b285_bab4_101a_b69c_00aa00341d07@@3U__s_GUID@@BPAUIConnectionPoint@@V?$_CopyInterface@UIConnectionPoint@@@ATL@@@ATL@@UAGJPAPAUIEnumConnectionPoints@@@Z 10003607 f i Totals.obj
 0001:000026e8       ?QueryInterface@?$CComObject@V?$CComEnum@UIEnumConnectionPoints@@$1?_GUID_b196b285_bab4_101a_b69c_00aa00341d07@@3U__s_GUID@@BPAUIConnectionPoint@@V?$_CopyInterface@UIConnectionPoint@@@ATL@@VCComSingleThreadModel@6@@ATL@@@ATL@@UAGJABU_GUID@@PAPAX@Z 100036e8 f i Totals.obj
 0001:00002702       ??_G?$CComObject@V?$CComEnum@UIEnumConnectionPoints@@$1?_GUID_b196b285_bab4_101a_b69c_00aa00341d07@@3U__s_GUID@@BPAUIConnectionPoint@@V?$_CopyInterface@UIConnectionPoint@@@ATL@@VCComSingleThreadModel@6@@ATL@@@ATL@@UAEPAXI@Z 10003702 f i Totals.obj
 0001:00002702       ??_E?$CComObject@V?$CComEnum@UIEnumConnectionPoints@@$1?_GUID_b196b285_bab4_101a_b69c_00aa00341d07@@3U__s_GUID@@BPAUIConnectionPoint@@V?$_CopyInterface@UIConnectionPoint@@@ATL@@VCComSingleThreadModel@6@@ATL@@@ATL@@UAEPAXI@Z 10003702 f i Totals.obj
 0001:00002724       ?AddRef@CRegObject@ATL@@UAGKXZ 10003724 f i Totals.obj
 0001:0000272a       ?AddReplacement@CRegObject@ATL@@UAGJPB_W0@Z 1000372a f i Totals.obj
 0001:00002763       ?ClearReplacements@CRegObject@ATL@@UAGJXZ 10003763 f i Totals.obj
 0001:00002775       ??_GCRegObject@ATL@@UAEPAXI@Z 10003775 f i Totals.obj
 0001:00002775       ??_ECRegObject@ATL@@UAEPAXI@Z 10003775 f i Totals.obj
 0001:00002797       ?AddRef@?$CComAggObject@VCOPOSTotals@@@ATL@@UAGKXZ 10003797 f i Totals.obj
 0001:000027a8       ?Release@?$CComAggObject@VCOPOSTotals@@@ATL@@UAGKXZ 100037a8 f i Totals.obj
 0001:000027e4       ?QueryInterface@?$CComAggObject@VCOPOSTotals@@@ATL@@UAGJABU_GUID@@PAPAX@Z 100037e4 f i Totals.obj
 0001:00002833       ?AddRef@?$CComContainedObject@VCOPOSTotals@@@ATL@@UAGKXZ 10003833 f i Totals.obj
 0001:00002849       ?Release@?$CComContainedObject@VCOPOSTotals@@@ATL@@UAGKXZ 10003849 f i Totals.obj
 0001:0000285f       ?QueryInterface@?$CComContainedObject@VCOPOSTotals@@@ATL@@UAGJABU_GUID@@PAPAX@Z 1000385f f i Totals.obj
 0001:0000287a       ??_E?$CComAggObject@VCOPOSTotals@@@ATL@@UAEPAXI@Z 1000387a f i Totals.obj
 0001:0000287a       ??_G?$CComAggObject@VCOPOSTotals@@@ATL@@UAEPAXI@Z 1000387a f i Totals.obj
 0001:0000289f       ?AddRef@?$CComObject@VCOPOSTotals@@@ATL@@UAGKXZ 1000389f f i Totals.obj
 0001:000028b6       ?Release@?$CComObject@VCOPOSTotals@@@ATL@@UAGKXZ 100038b6 f i Totals.obj
 0001:000028f8       ?QueryInterface@?$CComObject@VCOPOSTotals@@@ATL@@UAGJABU_GUID@@PAPAX@Z 100038f8 f i Totals.obj
 0001:00002912       ??$?4UITypeInfo2@@@?$CComPtr@UITypeInfo@@@ATL@@QAEPAUITypeInfo@@ABV?$CComPtr@UITypeInfo2@@@1@@Z 10003912 f i Totals.obj
 0001:0000293f       ??$AtlAdd@K@ATL@@YAJPAKKK@Z 1000393f f i Totals.obj
 0001:00002962       ??$AtlAdd@_K@ATL@@YAJPA_K_K1@Z 10003962 f i Totals.obj
 0001:0000299a       ??$AtlAddThrow@K@ATL@@YAKKK@Z 1000399a f i Totals.obj
 0001:000029c0       ??$AtlModuleRegisterWndClassInfoT@VAtlModuleRegisterWndClassInfoParamW@ATL@@@ATL@@YAGPAU_ATL_BASE_MODULE70@0@PAU_ATL_WIN_MODULE70@0@PAU_ATL_WNDCLASSINFOW@0@PAP6GJPAUHWND__@@IIJ@ZVAtlModuleRegisterWndClassInfoParamW@0@@Z 100039c0 f i Totals.obj
 0001:00002b0d       ??$AtlMultiply@H@ATL@@YAJPAHHH@Z 10003b0d f i Totals.obj
 0001:00002b45       ??$AtlMultiply@I@ATL@@YAJPAIII@Z 10003b45 f i Totals.obj
 0001:00002b45       ??$AtlMultiply@K@ATL@@YAJPAKKK@Z 10003b45 f i Totals.obj
 0001:00002b67       ??$AtlMultiplyThrow@I@ATL@@YAIII@Z 10003b67 f i Totals.obj
 0001:00002b8d       ??0?$CComAggObject@VCOPOSTotals@@@ATL@@QAE@PAX@Z 10003b8d f i Totals.obj
 0001:00002bba       ??0?$CComContainedObject@VCOPOSTotals@@@ATL@@QAE@PAX@Z 10003bba f i Totals.obj
 0001:00002c73       ??0?$CComObject@V?$CComEnum@UIEnumConnectionPoints@@$1?_GUID_b196b285_bab4_101a_b69c_00aa00341d07@@3U__s_GUID@@BPAUIConnectionPoint@@V?$_CopyInterface@UIConnectionPoint@@@ATL@@VCComSingleThreadModel@6@@ATL@@@ATL@@QAE@PAX@Z 10003c73 f i Totals.obj
 0001:00002ca1       ??0?$CComObject@V?$CComEnum@UIEnumConnections@@$1?_GUID_b196b287_bab4_101a_b69c_00aa00341d07@@3U__s_GUID@@BUtagCONNECTDATA@@V?$_Copy@UtagCONNECTDATA@@@ATL@@VCComSingleThreadModel@6@@ATL@@@ATL@@QAE@PAX@Z 10003ca1 f i Totals.obj
 0001:00002ccf       ??0?$CComObject@VCOPOSTotals@@@ATL@@QAE@PAX@Z 10003ccf f i Totals.obj
 0001:00002d86       ??0?$CComQIPtr@UIOleControlSite@@$1?_GUID_b196b289_bab4_101a_b69c_00aa00341d07@@3U__s_GUID@@B@ATL@@QAE@PAUIUnknown@@@Z 10003d86 f i Totals.obj
 0001:00002daf       ??0CAtlModule@ATL@@QAE@XZ  10003daf f i Totals.obj
 0001:00002df0       ??0CParseBuffer@CRegParser@ATL@@QAE@H@Z 10003df0 f i Totals.obj
 0001:00002e26       ??0_ATL_MSG@ATL@@QAE@PAUHWND__@@IIJH@Z 10003e26 f i Totals.obj
 0001:00002e5e       ??1?$CComAggObject@VCOPOSTotals@@@ATL@@UAE@XZ 10003e5e f i Totals.obj
 0001:00002e82       ??1?$CComEnumImpl@UIEnumConnectionPoints@@$1?_GUID_b196b285_bab4_101a_b69c_00aa00341d07@@3U__s_GUID@@BPAUIConnectionPoint@@V?$_CopyInterface@UIConnectionPoint@@@ATL@@@ATL@@UAE@XZ 10003e82 f i Totals.obj
 0001:00002ebe       ??1?$CComEnumImpl@UIEnumConnections@@$1?_GUID_b196b287_bab4_101a_b69c_00aa00341d07@@3U__s_GUID@@BUtagCONNECTDATA@@V?$_Copy@UtagCONNECTDATA@@@ATL@@@ATL@@UAE@XZ 10003ebe f i Totals.obj
 0001:00002efa       ??1?$CComObject@V?$CComEnum@UIEnumConnectionPoints@@$1?_GUID_b196b285_bab4_101a_b69c_00aa00341d07@@3U__s_GUID@@BPAUIConnectionPoint@@V?$_CopyInterface@UIConnectionPoint@@@ATL@@VCComSingleThreadModel@6@@ATL@@@ATL@@UAE@XZ 10003efa f i Totals.obj
 0001:00002f1d       ??1?$CComObject@V?$CComEnum@UIEnumConnections@@$1?_GUID_b196b287_bab4_101a_b69c_00aa00341d07@@3U__s_GUID@@BUtagCONNECTDATA@@V?$_Copy@UtagCONNECTDATA@@@ATL@@VCComSingleThreadModel@6@@ATL@@@ATL@@UAE@XZ 10003f1d f i Totals.obj
 0001:00002f40       ??1?$CComObject@VCOPOSTotals@@@ATL@@UAE@XZ 10003f40 f i Totals.obj
 0001:00002ffe       ??1?$CComObjectCached@VCComClassFactory@ATL@@@ATL@@UAE@XZ 10003ffe f i Totals.obj
 0001:00003014       ??1?$CComObjectRootEx@VCComMultiThreadModel@ATL@@@ATL@@QAE@XZ 10004014 f i Totals.obj
 0001:00003029       ??1CRegObject@ATL@@UAE@XZ  10004029 f i Totals.obj
 0001:00003049       ??4?$CComPtr@UIOleClientSite@@@ATL@@QAEPAUIOleClientSite@@PAU2@@Z 10004049 f i Totals.obj
 0001:00003049       ??4?$CComPtr@UIAdviseSink@@@ATL@@QAEPAUIAdviseSink@@PAU2@@Z 10004049 f i Totals.obj
 0001:00003049       ??4?$CComPtr@UIUnknown@@@ATL@@QAEPAUIUnknown@@PAU2@@Z 10004049 f i Totals.obj
 0001:00003077       ??_G?$CComContainedObject@VCOPOSTotals@@@ATL@@UAEPAXI@Z 10004077 f i Totals.obj
 0001:00003077       ??_E?$CComContainedObject@VCOPOSTotals@@@ATL@@UAEPAXI@Z 10004077 f i Totals.obj
 0001:0000309c       ??_E?$CComObject@VCOPOSTotals@@@ATL@@UAEPAXI@Z 1000409c f i Totals.obj
 0001:0000309c       ??_G?$CComObject@VCOPOSTotals@@@ATL@@UAEPAXI@Z 1000409c f i Totals.obj
 0001:000030c1       ?Add@?$CSimpleArray@GV?$CSimpleArrayEqualHelper@G@ATL@@@ATL@@QAEHABG@Z 100040c1 f i Totals.obj
 0001:0000313b       ?Add@?$CSimpleMap@PA_WPA_WVCExpansionVectorEqualHelper@ATL@@@ATL@@QAEHABQA_W0@Z 1000413b f i Totals.obj
 0001:00003190       ?Add@CComDynamicUnkArray@ATL@@QAEKPAUIUnknown@@@Z 10004190 f i Totals.obj
 0001:00003241       ?Add@CExpansionVector@ATL@@QAEHPB_W0@Z 10004241 f i Totals.obj
 0001:0000334a       ?AddString@CParseBuffer@CRegParser@ATL@@QAEHPB_W@Z 1000434a f i Totals.obj
 0001:0000337f       ?AddTermFunc@CAtlModule@ATL@@QAEJP6GXK@ZK@Z 1000437f f i Totals.obj
 0001:000033eb       ?AddValue@CRegParser@ATL@@IAEJAAVCRegKey@2@PB_WPA_W@Z 100043eb f i Totals.obj
 0001:00003705       ?Allocate@?$CAtlSafeAllocBufferManager@VCCRTAllocator@ATL@@@_ATL_SAFE_ALLOCA_IMPL@ATL@@QAEPAXK@Z 10004705 f i Totals.obj
 0001:00003732       ?Allocate@?$CTempBuffer@E$0BAA@VCCRTAllocator@ATL@@@ATL@@QAEPAEI@Z 10004732 f i Totals.obj
 0001:00003761       ?Allocate@?$CTempBuffer@_W$0BAA@VCCRTAllocator@ATL@@@ATL@@QAEPA_WI@Z 10004761 f i Totals.obj
 0001:00003790       ?Allocate@?$CTempBuffer@_W$0EAA@VCCRTAllocator@ATL@@@ATL@@QAEPA_WI@Z 10004790 f i Totals.obj
 0001:000037bf       ?AllocateHeap@?$CTempBuffer@E$0BAA@VCCRTAllocator@ATL@@@ATL@@AAEXI@Z 100047bf f i Totals.obj
 0001:000037bf       ?AllocateHeap@?$CTempBuffer@_W$0BAA@VCCRTAllocator@ATL@@@ATL@@AAEXI@Z 100047bf f i Totals.obj
 0001:000037bf       ?AllocateHeap@?$CTempBuffer@_W$0EAA@VCCRTAllocator@ATL@@@ATL@@AAEXI@Z 100047bf f i Totals.obj
 0001:000037e4       ?Append@CParseBuffer@CRegParser@ATL@@QAEHPB_WH@Z 100047e4 f i Totals.obj
 0001:00003870       ?AtlCoTaskMemCAlloc@ATL@@YAPAXKK@Z 10004870 f i Totals.obj
 0001:0000389d       ?AtlCoTaskMemRecalloc@ATL@@YAPAXPAXKK@Z 1000489d f i Totals.obj
 0001:000038cd       ?AtlComModuleGetClassObject@ATL@@YGJPAU_ATL_COM_MODULE70@1@ABU_GUID@@1PAPAX@Z 100048cd f i Totals.obj
 0001:000039c2       ?AtlComModuleRegisterServer@ATL@@YGJPAU_ATL_COM_MODULE70@1@HPBU_GUID@@@Z 100049c2 f i Totals.obj
 0001:00003a4a       ?AtlComModuleUnregisterServer@ATL@@YGJPAU_ATL_COM_MODULE70@1@HPBU_GUID@@@Z 10004a4a f i Totals.obj
 0001:00003ad2       ?AtlComQIPtrAssign2@ATL@@YAXPAPAUIUnknown@@PAU2@ABU_GUID@@@Z 10004ad2 f i Totals.obj
 0001:00003b01       ?AtlCreateTargetDC@ATL@@YGPAUHDC__@@PAU2@PAUtagDVTARGETDEVICE@@@Z 10004b01 f i Totals.obj
 0001:00003b6a       ?AtlCrtErrorCheck@ATL@@YAHH@Z 10004b6a f i Totals.obj
 0001:00003ba5       ?AtlHiMetricToPixel@ATL@@YGXPBUtagSIZE@@PAU2@@Z 10004ba5 f i Totals.obj
 0001:00003c1a       ?AtlHresultFromLastError@ATL@@YAJXZ 10004c1a f i Totals.obj
 0001:00003c31       ?AtlHresultFromWin32@ATL@@YAJK@Z 10004c31 f i Totals.obj
 0001:00003c46       ?AtlInternalOleLoadFromStream@ATL@@YAJPAUIStream@@ABU_GUID@@PAPAXTClassesAllowedInStream@1@K@Z 10004c46 f i Totals.obj
 0001:00003d6f       ?AtlInternalQueryInterface@ATL@@YGJPAXPBU_ATL_INTMAP_ENTRY@1@ABU_GUID@@PAPAX@Z 10004d6f f i Totals.obj
 0001:00003e12       ?AtlLoadTypeLib@ATL@@YGJPAUHINSTANCE__@@PB_WPAPA_WPAPAUITypeLib@@@Z 10004e12 f i Totals.obj
 0001:00003ff0       ?AtlRegisterClassCategoriesHelper@ATL@@YGJABU_GUID@@PBU_ATL_CATMAP_ENTRY@1@H@Z 10004ff0 f i Totals.obj
 0001:000042ec       ?AtlRegisterTypeLib@ATL@@YGJPAUHINSTANCE__@@PB_W@Z 100052ec f i Totals.obj
 0001:00004474       ?AtlThrowImpl@ATL@@YGXJ@Z  10005474 f i Totals.obj
 0001:00004492       ?AtlUnRegisterTypeLib@ATL@@YGJPAUHINSTANCE__@@PB_W@Z 10005492 f i Totals.obj
 0001:0000453d       ?AtlWinModuleAddCreateWndData@ATL@@YGXPAU_ATL_WIN_MODULE70@1@PAU_AtlCreateWndData@1@PAX@Z 1000553d f i Totals.obj
 0001:00004591       ?AtlWinModuleExtractCreateWndData@ATL@@YGPAXPAU_ATL_WIN_MODULE70@1@@Z 10005591 f i Totals.obj
 0001:000045f5       ?AtlWinModuleRegisterClassExW@ATL@@YGGPAU_ATL_WIN_MODULE70@1@PBUtagWNDCLASSEXW@@@Z 100055f5 f i Totals.obj
 0001:00004634       ?CanForceRemoveKey@CRegParser@ATL@@IAEHPB_W@Z 10005634 f i Totals.obj
 0001:00004663       ?ChToByte@CRegParser@ATL@@KAE_W@Z 10005663 f i Totals.obj
 0001:000046eb       ?Cleanup@CComTypeInfoHolder@ATL@@SGXK@Z 100056eb f i Totals.obj
 0001:0000471e       ?ClearReplacements@CExpansionVector@ATL@@QAEJXZ 1000571e f i Totals.obj
 0001:0000475b       ?Close@CRegKey@ATL@@QAEJXZ 1000575b f i Totals.obj
 0001:00004775       ?CreateInstance@?$CComCreator@V?$CComAggObject@VCOPOSTotals@@@ATL@@@ATL@@SGJPAXABU_GUID@@PAPAX@Z 10005775 f i Totals.obj
 0001:000047ea       ?CreateInstance@?$CComCreator@V?$CComObject@VCOPOSTotals@@@ATL@@@ATL@@SGJPAXABU_GUID@@PAPAX@Z 100057ea f i Totals.obj
 0001:00004873       ?CreateInstance@?$CComObject@V?$CComEnum@UIEnumConnectionPoints@@$1?_GUID_b196b285_bab4_101a_b69c_00aa00341d07@@3U__s_GUID@@BPAUIConnectionPoint@@V?$_CopyInterface@UIConnectionPoint@@@ATL@@VCComSingleThreadModel@6@@ATL@@@ATL@@SGJPAPAV12@@Z 10005873 f i Totals.obj
 0001:000048bd       ?CreateInstance@?$CComObject@V?$CComEnum@UIEnumConnections@@$1?_GUID_b196b287_bab4_101a_b69c_00aa00341d07@@3U__s_GUID@@BUtagCONNECTDATA@@V?$_Copy@UtagCONNECTDATA@@@ATL@@VCComSingleThreadModel@6@@ATL@@@ATL@@SGJPAPAV12@@Z 100058bd f i Totals.obj
 0001:00004907       ?DefaultReflectionHandler@?$CWindowImplRoot@VCWindow@ATL@@@ATL@@SAHPAUHWND__@@IIJAAJ@Z 10005907 f i Totals.obj
 0001:000049a7       ?DeleteSubKey@CRegKey@ATL@@QAEJPB_W@Z 100059a7 f i Totals.obj
 0001:00004a20       ?DoEvent@COPOSTotals@@IAEXIIJ@Z 10005a20 f i Totals.obj
 0001:00004aa0       ?DoVerbHide@?$IOleObjectImpl@VCOPOSTotals@@@ATL@@QAEJPBUtagRECT@@PAUHWND__@@@Z 10005aa0 f i Totals.obj
 0001:00004ad6       ?DoVerbInPlaceActivate@?$IOleObjectImpl@VCOPOSTotals@@@ATL@@QAEJPBUtagRECT@@PAUHWND__@@@Z 10005ad6 f i Totals.obj
 0001:00004b09       ?DoVerbPrimary@?$IOleObjectImpl@VCOPOSTotals@@@ATL@@QAEJPBUtagRECT@@PAUHWND__@@@Z 10005b09 f i Totals.obj
 0001:00004b95       ?DoVerbProperties@CComControlBase@ATL@@QAEJPBUtagRECT@@PAUHWND__@@@Z 10005b95 f i Totals.obj
 0001:00004d14       ?DoVerbUIActivate@?$IOleObjectImpl@VCOPOSTotals@@@ATL@@QAEJPBUtagRECT@@PAUHWND__@@@Z 10005d14 f i Totals.obj
 0001:00004d51       ?DoesVerbActivate@CComControlBase@ATL@@QAEHJ@Z 10005d51 f i Totals.obj
 0001:00004d75       ?DoesVerbUIActivate@CComControlBase@ATL@@QAEHJ@Z 10005d75 f i Totals.obj
 0001:00004daa       ?EndOfVar@CRegParser@ATL@@IAEHXZ 10005daa f i Totals.obj
 0001:00004dca       ?EscapeSingleQuote@CAtlModule@ATL@@SAXPA_WIPB_W@Z 10005dca f i Totals.obj
 0001:00004e19       ?FindKey@?$CSimpleMap@PA_WPA_WVCExpansionVectorEqualHelper@ATL@@@ATL@@QBEHABQA_W@Z 10005e19 f i Totals.obj
 0001:00004e50       ?FireTheEvent@?$CProxy_IOPOSEvents@VCOPOSTotals@@@@IAEXPAVOposVariant@@IAAJPB_WJ@Z 10005e50 f i Totals.obj
 0001:00004ee2       ?FireViewChange@CComControlBase@ATL@@QAEJXZ 10005ee2 f i Totals.obj
 0001:00004f2b       ?Fire_DirectIOEvent@?$CProxy_IOPOSEvents@VCOPOSTotals@@@@QAEXJPAJPAPA_W@Z 10005f2b f i Totals.obj
 0001:00005017       ?Fire_StatusUpdateEvent@?$CProxy_IOPOSEvents@VCOPOSTotals@@@@QAEXJ@Z 10006017 f i Totals.obj
 0001:000050ad       ?FreeHeap@?$CTempBuffer@E$0BAA@VCCRTAllocator@ATL@@@ATL@@AAEXXZ 100060ad f i Totals.obj
 0001:000050ad       ?FreeHeap@?$CTempBuffer@_W$0EAA@VCCRTAllocator@ATL@@@ATL@@AAEXXZ 100060ad f i Totals.obj
 0001:000050ad       ?FreeHeap@?$CTempBuffer@_W$0BAA@VCCRTAllocator@ATL@@@ATL@@AAEXXZ 100060ad f i Totals.obj
 0001:000050b6       ?GetAmbientLocaleID@CComControlBase@ATL@@QAEJAAK@Z 100060b6 f i Totals.obj
 0001:00005112       ?GetAmbientUserMode@CComControlBase@ATL@@QAEJAAH@Z 10006112 f i Totals.obj
 0001:00005182       ?GetAt@CComDynamicUnkArray@ATL@@QAEPAUIUnknown@@H@Z 10006182 f i Totals.obj
 0001:0000519e       ?GetClassObject@CComModule@ATL@@QAEJABU_GUID@@0PAPAX@Z 1000619e f i Totals.obj
 0001:00005240       ?GetConnMap@COPOSTotals@@SAPBU_ATL_CONNMAP_ENTRY@ATL@@PAH@Z 10006240 f i Totals.obj
 0001:000052b0       ?GetCookie@CComDynamicUnkArray@ATL@@QAGKPAPAUIUnknown@@@Z 100062b0 f i Totals.obj
 0001:000052e8       ?GetIDsOfNames@CComTypeInfoHolder@ATL@@QAEJABU_GUID@@PAPA_WIKPAJ@Z 100062e8 f i Totals.obj
 0001:00005408       ?GetKeyAt@?$CSimpleMap@PA_WPA_WVCExpansionVectorEqualHelper@ATL@@@ATL@@QBEAAPA_WH@Z 10006408 f i Totals.obj
 0001:0000542d       ?GetPagesHelper@?$ISpecifyPropertyPagesImpl@VCOPOSTotals@@@ATL@@IAEJPAUtagCAUUID@@PBUATL_PROPMAP_ENTRY@2@@Z 1000642d f i Totals.obj
 0001:00005554       ?GetProperty@?$CComPtr@UIDispatch@@@ATL@@SAJPAUIDispatch@@JPAUtagVARIANT@@@Z 10006554 f i Totals.obj
 0001:000055a3       ?GetSizeMax@CComVariant@ATL@@QBEJPAT_ULARGE_INTEGER@@@Z 100065a3 f i Totals.obj
 0001:00005765       ?GetTI@CComTypeInfoHolder@ATL@@QAEJK@Z 10006765 f i Totals.obj
 0001:00005945       ?GetTI@CComTypeInfoHolder@ATL@@QAEJKPAPAUITypeInfo@@@Z 10006945 f i Totals.obj
 0001:00005983       ?GetUnknown@CComDynamicUnkArray@ATL@@QAGPAUIUnknown@@K@Z 10006983 f i Totals.obj
 0001:000059a4       ?GetValueAt@?$CSimpleMap@PA_WPA_WVCExpansionVectorEqualHelper@ATL@@@ATL@@QBEAAPA_WH@Z 100069a4 f i Totals.obj
 0001:000059ca       ?GetZoomInfo@CComControlBase@ATL@@QAEXAAUATL_DRAWINFO@@@Z 100069ca f i Totals.obj
 0001:00005a5d       ?HKeyFromString@CRegParser@ATL@@KAPAUHKEY__@@PA_W@Z 10006a5d f i Totals.obj
 0001:00005a8b       ?HasSubKeys@CRegParser@ATL@@IAEHPAUHKEY__@@@Z 10006a8b f i Totals.obj
 0001:00005ac0       ?IDataObject_GetData@CComControlBase@ATL@@QAEJPAUtagFORMATETC@@PAUtagSTGMEDIUM@@@Z 10006ac0 f i Totals.obj
 0001:00005c62       ?IOleInPlaceObject_InPlaceDeactivate@CComControlBase@ATL@@QAEJXZ 10006c62 f i Totals.obj
 0001:00005ce9       ?IOleInPlaceObject_SetObjectRects@CComControlBase@ATL@@QAEJPBUtagRECT@@0@Z 10006ce9 f i Totals.obj
 0001:00005db6       ?IOleInPlaceObject_UIDeactivate@CComControlBase@ATL@@QAEJXZ 10006db6 f i Totals.obj
 0001:00005e78       ?IOleObject_Advise@CComControlBase@ATL@@QAEJPAUIAdviseSink@@PAK@Z 10006e78 f i Totals.obj
 0001:00005ea2       ?IOleObject_Close@CComControlBase@ATL@@QAEJK@Z 10006ea2 f i Totals.obj
 0001:00005f86       ?IOleObject_GetClientSite@CComControlBase@ATL@@QAEJPAPAUIOleClientSite@@@Z 10006f86 f i Totals.obj
 0001:00005faf       ?IOleObject_SetClientSite@CComControlBase@ATL@@QAEJPAUIOleClientSite@@@Z 10006faf f i Totals.obj
 0001:00005fee       ?IOleObject_SetExtent@CComControlBase@ATL@@QAEJKPAUtagSIZE@@@Z 10006fee f i Totals.obj
 0001:000060a0       ?IPSI_GetIPersistStreamInit@?$IPersistStorageImpl@VCOPOSTotals@@@ATL@@AAEPAUIPersistStreamInit@@XZ 100070a0 f i Totals.obj
 0001:00006148       ?IPersistStreamInit_Load@?$IPersistStreamInitImpl@VCOPOSTotals@@@ATL@@QAEJPAUIStream@@PBUATL_PROPMAP_ENTRY@2@@Z 10007148 f i Totals.obj
 0001:000063be       ?IPersistStreamInit_Save@?$IPersistStreamInitImpl@VCOPOSTotals@@@ATL@@QAEJPAUIStream@@HPBUATL_PROPMAP_ENTRY@2@@Z 100073be f i Totals.obj
 0001:000065ad       ?IQuickActivate_QuickActivate@CComControlBase@ATL@@QAEJPAUtagQACONTAINER@@PAUtagQACONTROL@@@Z 100075ad f i Totals.obj
 0001:000067ef       ?IViewObject_Draw@CComControlBase@ATL@@QAEJKJPAXPAUtagDVTARGETDEVICE@@PAUHDC__@@2PBU_RECTL@@3@Z 100077ef f i Totals.obj
 0001:00006897       ?InPlaceActivate@CComControlBase@ATL@@QAEJJPBUtagRECT@@@Z 10007897 f i Totals.obj
 0001:00006b09       ?Init@?$CComEnumImpl@UIEnumConnectionPoints@@$1?_GUID_b196b285_bab4_101a_b69c_00aa00341d07@@3U__s_GUID@@BPAUIConnectionPoint@@V?$_CopyInterface@UIConnectionPoint@@@ATL@@@ATL@@QAEJPAPAUIConnectionPoint@@0PAUIUnknown@@W4CComEnumFlags@2@@Z 10007b09 f i Totals.obj
 0001:00006be5       ?Init@?$CComEnumImpl@UIEnumConnections@@$1?_GUID_b196b287_bab4_101a_b69c_00aa00341d07@@3U__s_GUID@@BUtagCONNECTDATA@@V?$_Copy@UtagCONNECTDATA@@@ATL@@@ATL@@QAEJPAUtagCONNECTDATA@@0PAUIUnknown@@W4CComEnumFlags@2@@Z 10007be5 f i Totals.obj
 0001:00006cc1       ?Init@CComModule@ATL@@QAEJPAU_ATL_OBJMAP_ENTRY30@2@PAUHINSTANCE__@@PBU_GUID@@@Z 10007cc1 f i Totals.obj
 0001:00006d20       ?Init@CDynamicStdCallThunk2@ATL@@QAEHKPAX@Z 10007d20 f i Totals.obj
 0001:00006d4b       ?InlineIsEqualUnknown@ATL@@YGHABU_GUID@@@Z 10007d4b f i Totals.obj
 0001:00006d73       ?InternalSetAtIndex@?$CSimpleMap@PA_WPA_WVCExpansionVectorEqualHelper@ATL@@@ATL@@QAEXHABQA_W0@Z 10007d73 f i Totals.obj
 0001:00006d9d       ?Invoke@CComTypeInfoHolder@ATL@@QAEJPAUIDispatch@@JABU_GUID@@KGPAUtagDISPPARAMS@@PAUtagVARIANT@@PAUtagEXCEPINFO@@PAI@Z 10007d9d f i Totals.obj
 0001:00006dde       ?IsEqualObject@?$CComPtrBase@UITypeInfo@@@ATL@@QAE_NPAUIUnknown@@@Z 10007dde f i Totals.obj
 0001:00006dde       ?IsEqualObject@?$CComPtrBase@UIOleClientSite@@@ATL@@QAE_NPAUIUnknown@@@Z 10007dde f i Totals.obj
 0001:00006e4a       ?IsSpace@CRegParser@ATL@@IAEH_W@Z 10007e4a f i Totals.obj
 0001:00006e70       ?LoadNameCache@CComTypeInfoHolder@ATL@@QAEJPAUITypeInfo@@@Z 10007e70 f i Totals.obj
 0001:00006fa5       ?Lookup@?$CSimpleMap@PA_WPA_WVCExpansionVectorEqualHelper@ATL@@@ATL@@QBEPA_WABQA_W@Z 10007fa5 f i Totals.obj
 0001:00006fcb       ?NextToken@CRegParser@ATL@@IAEJPA_W@Z 10007fcb f i Totals.obj
 0001:000070fa       ?OnKillFocus@CComControlBase@ATL@@QAEJIIJAAH@Z 100080fa f i Totals.obj
 0001:00007155       ?OnMouseActivate@CComControlBase@ATL@@QAEJIIJAAH@Z 10008155 f i Totals.obj
 0001:000071c3       ?OnPaint@CComControlBase@ATL@@QAEJIIJAAH@Z 100081c3 f i Totals.obj
 0001:0000727a       ?OnSetFocus@CComControlBase@ATL@@QAEJIIJAAH@Z 1000827a f i Totals.obj
 0001:00007305       ?Open@CRegKey@ATL@@QAEJPAUHKEY__@@PB_WK@Z 10008305 f i Totals.obj
 0001:0000735a       ?PreProcessBuffer@CRegParser@ATL@@QAEJPA_WPAPA_W@Z 1000835a f i Totals.obj
 0001:000075ca       ?ProcessWindowMessage@?$CComControl@VCOPOSTotals@@V?$CWindowImpl@VCOPOSTotals@@VCWindow@ATL@@V?$CWinTraits@$0FGAAAAAA@$0A@@3@@ATL@@@ATL@@UAEHPAUHWND__@@IIJAAJK@Z 100085ca f i Totals.obj
 0001:00007672       ?ReadFromStream@CComBSTR@ATL@@QAEJPAUIStream@@@Z 10008672 f i Totals.obj
 0001:00007795       ?ReadFromStream@CComVariant@ATL@@QAEJPAUIStream@@GTClassesAllowedInStream@2@K@Z 10008795 f i Totals.obj
 0001:0000791f       ?RecurseDeleteKey@CRegKey@ATL@@QAEJPB_W@Z 1000891f f i Totals.obj
 0001:00007a0d       ?RegCreateKeyExW@CAtlTransactionManager@ATL@@QAEJPAUHKEY__@@PB_WKPA_WKKQAU_SECURITY_ATTRIBUTES@@PAPAU3@PAK@Z 10008a0d f i Totals.obj
 0001:00007a70       ?RegDeleteKeyW@CAtlTransactionManager@ATL@@QAEJPAUHKEY__@@PB_W@Z 10008a70 f i Totals.obj
 0001:00007ac2       ?RegOpenKeyExW@CAtlTransactionManager@ATL@@QAEJPAUHKEY__@@PB_WKKPAPAU3@@Z 10008ac2 f i Totals.obj
 0001:00007b19       ?Register@_ATL_WNDCLASSINFOW@ATL@@QAEGPAP6GJPAUHWND__@@IIJ@Z@Z 10008b19 f i Totals.obj
 0001:00007b39       ?RegisterBuffer@CRegParser@ATL@@QAEJPA_WH@Z 10008b39 f i Totals.obj
 0001:00007c80       ?RegisterFromResource@CRegObject@ATL@@IAEJPB_W00H@Z 10008c80 f i Totals.obj
 0001:00007db6       ?RegisterServer@?$CAtlModuleT@VCComModule@ATL@@@ATL@@QAEJHPBU_GUID@@@Z 10008db6 f i Totals.obj
 0001:00007de4       ?RegisterServer@CComModule@ATL@@QAEJHPBU_GUID@@@Z 10008de4 f i Totals.obj
 0001:00007e55       ?RegisterSubkeys@CRegParser@ATL@@IAEJPA_WPAUHKEY__@@HH@Z 10008e55 f i Totals.obj
 0001:000084b1       ?Remove@CComDynamicUnkArray@ATL@@QAEHK@Z 100094b1 f i Totals.obj
 0001:000084da       ?RemoveAll@?$CSimpleMap@PA_WPA_WVCExpansionVectorEqualHelper@ATL@@@ATL@@QAEXXZ 100094da f i Totals.obj
 0001:00008506       ?ResourceRegisterSz@CRegObject@ATL@@QAGJPB_W00@Z 10009506 f i Totals.obj
 0001:00008533       ?ResourceUnregisterSz@CRegObject@ATL@@QAGJPB_W00@Z 10009533 f i Totals.obj
 0001:00008560       ?SendOnDataChange@CComControlBase@ATL@@QAEJK@Z 10009560 f i Totals.obj
 0001:000085ad       ?SetControlFocus@CComControlBase@ATL@@QAEHH@Z 100095ad f i Totals.obj
 0001:00008648       ?SetMultiStringValue@CRegKey@ATL@@QAEJPB_W0@Z 10009648 f i Totals.obj
 0001:000086a4       ?SetStringValue@CRegKey@ATL@@QAEJPB_W0K@Z 100096a4 f i Totals.obj
 0001:000086ed       ?SkipAssignment@CRegParser@ATL@@IAEJPA_W@Z 100096ed f i Totals.obj
 0001:00008759       ?SkipWhiteSpace@CRegParser@ATL@@IAEXXZ 10009759 f i Totals.obj
 0001:00008782       ?StrChrW@CRegParser@ATL@@KAPA_WPA_W_W@Z 10009782 f i Totals.obj
 0001:000087bf       ?Term@CAtlModule@ATL@@QAEXXZ 100097bf f i Totals.obj
 0001:0000883c       ?Term@CComModule@ATL@@QAEXXZ 1000983c f i Totals.obj
 0001:00008894       ?UnregisterServer@?$CAtlModuleT@VCComModule@ATL@@@ATL@@QAEJHPBU_GUID@@@Z 10009894 f i Totals.obj
 0001:000088ba       ?UnregisterServer@CComModule@ATL@@QAEJHPBU_GUID@@@Z 100098ba f i Totals.obj
 0001:0000892b       ?UpdateRegistryFromResource@CAtlModule@ATL@@QAGJIHPAU_ATL_REGMAP_ENTRY@2@@Z 1000992b f i Totals.obj
 0001:00008af6       ?UpdateRegistryFromResource@CAtlModule@ATL@@QAGJPB_WHPAU_ATL_REGMAP_ENTRY@2@@Z 10009af6 f i Totals.obj
 0001:00008cc7       ?VTFromRegType@CRegParser@ATL@@KAHPB_WAAG@Z 10009cc7 f i Totals.obj
 0001:00008d34       ?WindowProc@?$CWindowImplBaseT@VCWindow@ATL@@V?$CWinTraits@$0FGAAAAAA@$0A@@2@@ATL@@SGJPAUHWND__@@IIJ@Z 10009d34 f i Totals.obj
 0001:00008e22       ?WriteToStream@CComBSTR@ATL@@QAEJPAUIStream@@@Z 10009e22 f i Totals.obj
 0001:00008e84       ?WriteToStream@CComVariant@ATL@@QAEJPAUIStream@@@Z 10009e84 f i Totals.obj
 0001:00008ffe       ?WriteToStream@CComVariant@ATL@@QAEJPAUIStream@@G@Z 10009ffe f i Totals.obj
 0001:00009067       ?_AtlInitialConstruct@?$CComObjectRootEx@VCComMultiThreadModel@ATL@@@ATL@@QAEJXZ 1000a067 f i Totals.obj
 0001:0000907c       ?_AtlVerifyStackAvailable@_ATL_SAFE_ALLOCA_IMPL@ATL@@YA_NK@Z 1000a07c f i Totals.obj
 0001:000090fa       ?atlCreate@?$CWindowImpl@VCOPOSTotals@@VCWindow@ATL@@V?$CWinTraits@$0FGAAAAAA@$0A@@3@@ATL@@QAEPAUHWND__@@PAU3@V_U_RECT@2@PB_WKKV_U_MENUorID@2@PAX@Z 1000a0fa f i Totals.obj
 0001:00009145       ?atlCreate@?$CWindowImplBaseT@VCWindow@ATL@@V?$CWinTraits@$0FGAAAAAA@$0A@@2@@ATL@@QAEPAUHWND__@@PAU3@V_U_RECT@2@PB_WKKV_U_MENUorID@2@GPAX@Z 1000a145 f i Totals.obj
 0001:000091e1       ?copy@?$_Copy@UtagCONNECTDATA@@@ATL@@SAJPAUtagCONNECTDATA@@PBU3@@Z 1000a1e1 f i Totals.obj
 0001:00009217       ?copy@?$_CopyInterface@UIConnectionPoint@@@ATL@@SAJPAPAUIConnectionPoint@@PBQAU3@@Z 1000a217 f i Totals.obj
 0001:00009245       ?memcpy_s@Checked@ATL@@YAXPAXIPBXI@Z 1000a245 f i Totals.obj
 0001:00009264       ?ocscpy_s@@YA_NPA_WIPB_W@Z 1000a264 f i Totals.obj
 0001:000092ae       ?wcscpy_s@Checked@ATL@@YAXPA_WIPB_W@Z 1000a2ae f i Totals.obj
 0001:000092ca       _DllCanUnloadNow@0         1000a2ca f   Totals.obj
 0001:000092d6       _DllGetClassObject@12      1000a2d6 f   Totals.obj
 0001:000092e4       _DllMain@12                1000a2e4 f   Totals.obj
 0001:00009326       _DllRegisterServer@0       1000a326 f   Totals.obj
 0001:00009335       _DllUnregisterServer@0     1000a335 f   Totals.obj
 0001:00009344       _InlineIsEqualGUID         1000a344 f i Totals.obj
 0001:00009374       ___local_stdio_printf_options 1000a374 f i Totals.obj
 0001:0000937a       __vswprintf_s_l            1000a37a f i Totals.obj
 0001:00009427       _swprintf_s                1000a427 f i Totals.obj
 0001:00009443       ??0?$CComControl@VCOPOSTotals@@V?$CWindowImpl@VCOPOSTotals@@VCWindow@ATL@@V?$CWinTraits@$0FGAAAAAA@$0A@@3@@ATL@@@ATL@@QAE@XZ 1000a443 f i TotalsImpl.obj
 0001:0000946a       ??0CComControlBase@ATL@@QAE@AAPAUHWND__@@@Z 1000a46a f i TotalsImpl.obj
 0001:000094ba       ??0COPOSTotals@@QAE@XZ     1000a4ba f   TotalsImpl.obj
 0001:00009509       ??1?$CComControl@VCOPOSTotals@@V?$CWindowImpl@VCOPOSTotals@@VCWindow@ATL@@V?$CWinTraits@$0FGAAAAAA@$0A@@3@@ATL@@@ATL@@UAE@XZ 1000a509 f i TotalsImpl.obj
 0001:00009522       ??1?$IConnectionPointImpl@VCOPOSTotals@@$1?IID_IPropertyNotifySink@@3U_GUID@@BVCComDynamicUnkArray@ATL@@@ATL@@QAE@XZ 1000a522 f i TotalsImpl.obj
 0001:00009522       ??1?$IConnectionPointImpl@VCOPOSTotals@@$1?DIID__IOPOSTotalsEvents@@3U_GUID@@BVCComDynamicUnkArray@ATL@@@ATL@@QAE@XZ 1000a522 f i TotalsImpl.obj
 0001:0000955f       ??1CComControlBase@ATL@@UAE@XZ 1000a55f f i TotalsImpl.obj
 0001:000095c2       ??1COPOSTotals@@UAE@XZ     1000a5c2 f   TotalsImpl.obj
 0001:0000960a       ?BeginTrans@COPOSTotals@@UAGJPAJ@Z 1000a60a f   TotalsImpl.obj
 0001:00009625       ?CheckHealth@COPOSTotals@@UAGJJPAJ@Z 1000a625 f   TotalsImpl.obj
 0001:00009674       ?ClaimDevice@COPOSTotals@@UAGJJPAJ@Z 1000a674 f   TotalsImpl.obj
 0001:000096e2       ?ClaimFile@COPOSTotals@@UAGJJJPAJ@Z 1000a6e2 f   TotalsImpl.obj
 0001:00009756       ?Close@COPOSTotals@@UAGJPAJ@Z 1000a756 f   TotalsImpl.obj
 0001:000097c4       ?CommitTrans@COPOSTotals@@UAGJPAJ@Z 1000a7c4 f   TotalsImpl.obj
 0001:000097df       ?CompareFirmwareVersion@COPOSTotals@@UAGJPA_WPAJ1@Z 1000a7df f   TotalsImpl.obj
 0001:0000985f       ?Create@COPOSTotals@@UAGJPA_WPAJJF1@Z 1000a85f f   TotalsImpl.obj
 0001:00009918       ?Delete@COPOSTotals@@UAGJPA_WPAJ@Z 1000a918 f   TotalsImpl.obj
 0001:0000996f       ?DirectIO@COPOSTotals@@UAGJJPAJPAPA_W0@Z 1000a96f f   TotalsImpl.obj
 0001:00009a1d       ?DoInvoke@COPOSTotals@@IAEJJPAVOposVariant@@IHPAJ_N@Z 1000aa1d f   TotalsImpl.obj
 0001:00009af9       ?EventClose@COPOSTotals@@IAEXXZ 1000aaf9 f i TotalsImpl.obj
 0001:00009b2c       ?EventInit@COPOSTotals@@IAEJXZ 1000ab2c f i TotalsImpl.obj
 0001:00009c00       ?EventUninit@COPOSTotals@@IAEXXZ 1000ac00 f i TotalsImpl.obj
 0001:00009c52       ?EventWindowProc@COPOSTotals@@IAGJIIJ@Z 1000ac52 f i TotalsImpl.obj
 0001:00009cc9       ?FinalConstruct@COPOSTotals@@QAEJXZ 1000acc9 f   TotalsImpl.obj
 0001:00009d02       ?Find@COPOSTotals@@UAGJPA_WPAJ11@Z 1000ad02 f   TotalsImpl.obj
 0001:00009dba       ?FindByIndex@COPOSTotals@@UAGJJPAPA_WPAJ@Z 1000adba f   TotalsImpl.obj
 0001:00009e36       ?FireEventCleanup@COPOSTotals@@IAEXXZ 1000ae36 f i TotalsImpl.obj
 0001:00009e4c       ?FireEventSetup@COPOSTotals@@IAE_NXZ 1000ae4c f i TotalsImpl.obj
 0001:00009e80       ?FreezeEvents@COPOSTotals@@MAGJH@Z 1000ae80 f   TotalsImpl.obj
 0001:00009ecd       ?GetOposProp@COPOSTotals@@IAEJJPAFJ@Z 1000aecd f   TotalsImpl.obj
 0001:00009ef0       ?GetOposProp@COPOSTotals@@IAEJJPAJJ@Z 1000aef0 f   TotalsImpl.obj
 0001:00009fbf       ?GetOposProp@COPOSTotals@@IAEJJPAPA_WJ@Z 1000afbf f   TotalsImpl.obj
 0001:0000a09b       ?OnDraw@COPOSTotals@@MAEJAAUATL_DRAWINFO@@@Z 1000b09b f   TotalsImpl.obj
 0001:0000a13b       ?Open@COPOSTotals@@UAGJPA_WPAJ@Z 1000b13b f   TotalsImpl.obj
 0001:0000a974       ?Read@COPOSTotals@@UAGJJPAPA_WJJPAJ@Z 1000b974 f   TotalsImpl.obj
 0001:0000aa23       ?RecalculateValidationData@COPOSTotals@@UAGJJPAJ@Z 1000ba23 f   TotalsImpl.obj
 0001:0000aa72       ?ReleaseDevice@COPOSTotals@@UAGJPAJ@Z 1000ba72 f   TotalsImpl.obj
 0001:0000aaa9       ?ReleaseFile@COPOSTotals@@UAGJJPAJ@Z 1000baa9 f   TotalsImpl.obj
 0001:0000aaf8       ?Rename@COPOSTotals@@UAGJJPA_WPAJ@Z 1000baf8 f   TotalsImpl.obj
 0001:0000ab74       ?ResetStatistics@COPOSTotals@@UAGJPA_WPAJ@Z 1000bb74 f   TotalsImpl.obj
 0001:0000abcb       ?RetrieveStatistics@COPOSTotals@@UAGJPAPA_WPAJ@Z 1000bbcb f   TotalsImpl.obj
 0001:0000ac22       ?Rollback@COPOSTotals@@UAGJPAJ@Z 1000bc22 f   TotalsImpl.obj
 0001:0000ac3d       ?SOProcessID@COPOSTotals@@UAGJPAJ@Z 1000bc3d f   TotalsImpl.obj
 0001:0000ac51       ?SetAll@COPOSTotals@@UAGJJJPAJ@Z 1000bc51 f   TotalsImpl.obj
 0001:0000acc5       ?SetCOFreezeEvents@COPOSTotals@@IAEXF@Z 1000bcc5 f   TotalsImpl.obj
 0001:0000ad65       ?SetOposProp@COPOSTotals@@IAEJJJJ@Z 1000bd65 f   TotalsImpl.obj
 0001:0000ae5c       ?UpdateFirmware@COPOSTotals@@UAGJPA_WPAJ@Z 1000be5c f   TotalsImpl.obj
 0001:0000aeb3       ?UpdateStatistics@COPOSTotals@@UAGJPA_WPAJ@Z 1000beb3 f   TotalsImpl.obj
 0001:0000af0a       ?ValidateData@COPOSTotals@@UAGJJPAJ@Z 1000bf0a f   TotalsImpl.obj
 0001:0000af59       ?Write@COPOSTotals@@UAGJJPA_WJJPAJ@Z 1000bf59 f   TotalsImpl.obj
 0001:0000b008       ?get_BinaryConversion@COPOSTotals@@UAGJPAJ@Z 1000c008 f   TotalsImpl.obj
 0001:0000b01e       ?get_CapCompareFirmwareVersion@COPOSTotals@@UAGJPAF@Z 1000c01e f   TotalsImpl.obj
 0001:0000b037       ?get_CapErrorDetection@COPOSTotals@@UAGJPAF@Z 1000c037 f   TotalsImpl.obj
 0001:0000b050       ?get_CapPowerReporting@COPOSTotals@@UAGJPAJ@Z 1000c050 f   TotalsImpl.obj
 0001:0000b069       ?get_CapSingleFile@COPOSTotals@@UAGJPAF@Z 1000c069 f   TotalsImpl.obj
 0001:0000b082       ?get_CapStatisticsReporting@COPOSTotals@@UAGJPAF@Z 1000c082 f   TotalsImpl.obj
 0001:0000b09b       ?get_CapTransactions@COPOSTotals@@UAGJPAF@Z 1000c09b f   TotalsImpl.obj
 0001:0000b0b4       ?get_CapUpdateFirmware@COPOSTotals@@UAGJPAF@Z 1000c0b4 f   TotalsImpl.obj
 0001:0000b0cd       ?get_CapUpdateStatistics@COPOSTotals@@UAGJPAF@Z 1000c0cd f   TotalsImpl.obj
 0001:0000b0e6       ?get_CheckHealthText@COPOSTotals@@UAGJPAPA_W@Z 1000c0e6 f   TotalsImpl.obj
 0001:0000b0ff       ?get_Claimed@COPOSTotals@@UAGJPAF@Z 1000c0ff f   TotalsImpl.obj
 0001:0000b115       ?get_ControlObjectDescription@COPOSTotals@@UAGJPAPA_W@Z 1000c115 f   TotalsImpl.obj
 0001:0000b163       ?get_ControlObjectVersion@COPOSTotals@@UAGJPAJ@Z 1000c163 f   TotalsImpl.obj
 0001:0000b176       ?get_DeviceDescription@COPOSTotals@@UAGJPAPA_W@Z 1000c176 f   TotalsImpl.obj
 0001:0000b18f       ?get_DeviceEnabled@COPOSTotals@@UAGJPAF@Z 1000c18f f   TotalsImpl.obj
 0001:0000b1a5       ?get_DeviceName@COPOSTotals@@UAGJPAPA_W@Z 1000c1a5 f   TotalsImpl.obj
 0001:0000b1be       ?get_FreeData@COPOSTotals@@UAGJPAJ@Z 1000c1be f   TotalsImpl.obj
 0001:0000b1d7       ?get_FreezeEvents@COPOSTotals@@UAGJPAF@Z 1000c1d7 f   TotalsImpl.obj
 0001:0000b1ed       ?get_NumberOfFiles@COPOSTotals@@UAGJPAJ@Z 1000c1ed f   TotalsImpl.obj
 0001:0000b206       ?get_OpenResult@COPOSTotals@@UAGJPAJ@Z 1000c206 f   TotalsImpl.obj
 0001:0000b21d       ?get_PowerNotify@COPOSTotals@@UAGJPAJ@Z 1000c21d f   TotalsImpl.obj
 0001:0000b233       ?get_PowerState@COPOSTotals@@UAGJPAJ@Z 1000c233 f   TotalsImpl.obj
 0001:0000b249       ?get_ResultCode@COPOSTotals@@UAGJPAJ@Z 1000c249 f   TotalsImpl.obj
 0001:0000b287       ?get_ResultCodeExtended@COPOSTotals@@UAGJPAJ@Z 1000c287 f   TotalsImpl.obj
 0001:0000b29d       ?get_ServiceObjectDescription@COPOSTotals@@UAGJPAPA_W@Z 1000c29d f   TotalsImpl.obj
 0001:0000b2b6       ?get_ServiceObjectVersion@COPOSTotals@@UAGJPAJ@Z 1000c2b6 f   TotalsImpl.obj
 0001:0000b2cc       ?get_State@COPOSTotals@@UAGJPAJ@Z 1000c2cc f   TotalsImpl.obj
 0001:0000b2f8       ?get_TotalsSize@COPOSTotals@@UAGJPAJ@Z 1000c2f8 f   TotalsImpl.obj
 0001:0000b311       ?get_TransactionInProgress@COPOSTotals@@UAGJPAF@Z 1000c311 f   TotalsImpl.obj
 0001:0000b32a       ?put_BinaryConversion@COPOSTotals@@UAGJJ@Z 1000c32a f   TotalsImpl.obj
 0001:0000b340       ?put_DeviceEnabled@COPOSTotals@@UAGJF@Z 1000c340 f   TotalsImpl.obj
 0001:0000b35d       ?put_FreezeEvents@COPOSTotals@@UAGJF@Z 1000c35d f   TotalsImpl.obj
 0001:0000b3a9       ?put_PowerNotify@COPOSTotals@@UAGJJ@Z 1000c3a9 f   TotalsImpl.obj
 0001:0000b3bf       ?s_EventWindowProc@COPOSTotals@@KGJPAUHWND__@@IIJ@Z 1000c3bf f i TotalsImpl.obj
 0001:0000b411       ??_U@YAPAXI@Z              1000c411 f   LIBCMT:new_array.obj
 0001:0000b41a       ??3@YAXPAXI@Z              1000c41a f   LIBCMT:delete_scalar_size.obj
 0001:0000b428       ??_V@YAXPAX@Z              1000c428 f   LIBCMT:delete_array.obj
 0001:0000b42d       ??_V@YAXPAXI@Z             1000c42d f   LIBCMT:delete_array_size.obj
 0001:0000b47f       ___scrt_acquire_startup_lock 1000c47f f   LIBCMT:utility.obj
 0001:0000b4b1       ___scrt_dllmain_after_initialize_c 1000c4b1 f   LIBCMT:utility.obj
 0001:0000b4dc       ___scrt_dllmain_before_initialize_c 1000c4dc f   LIBCMT:utility.obj
 0001:0000b4ea       ___scrt_dllmain_crt_thread_attach 1000c4ea f   LIBCMT:utility.obj
 0001:0000b509       ___scrt_dllmain_crt_thread_detach 1000c509 f   LIBCMT:utility.obj
 0001:0000b516       ___scrt_dllmain_exception_filter 1000c516 f   LIBCMT:utility.obj
 0001:0000b54a       ___scrt_dllmain_uninitialize_c 1000c54a f   LIBCMT:utility.obj
 0001:0000b56d       ___scrt_dllmain_uninitialize_critical 1000c56d f   LIBCMT:utility.obj
 0001:0000b57a       ___scrt_initialize_crt     1000c57a f   LIBCMT:utility.obj
 0001:0000b5b3       ___scrt_initialize_onexit_tables 1000c5b3 f   LIBCMT:utility.obj
 0001:0000b63a       ___scrt_is_nonwritable_in_current_image 1000c63a f   LIBCMT:utility.obj
 0001:0000b6ce       ___scrt_release_startup_lock 1000c6ce f   LIBCMT:utility.obj
 0001:0000b6eb       ___scrt_uninitialize_crt   1000c6eb f   LIBCMT:utility.obj
 0001:0000b713       __onexit                   1000c713 f   LIBCMT:utility.obj
 0001:0000b740       _atexit                    1000c740 f   LIBCMT:utility.obj
 0001:0000b755       ??3@YAXPAX@Z               1000c755 f   LIBCMT:delete_scalar.obj
 0001:0000b81f       __Init_thread_footer       1000c81f f   LIBCMT:thread_safe_statics.obj
 0001:0000b869       __Init_thread_header       1000c869 f   LIBCMT:thread_safe_statics.obj
 0001:0000b8bb       __Init_thread_notify       1000c8bb f   LIBCMT:thread_safe_statics.obj
 0001:0000b8f1       __Init_thread_wait         1000c8f1 f   LIBCMT:thread_safe_statics.obj
 0001:0000b93f       ___raise_securityfailure   1000c93f f   LIBCMT:gs_report.obj
 0001:0000b967       ___report_gsfailure        1000c967 f   LIBCMT:gs_report.obj
 0001:0000ba61       ___report_rangecheckfailure 1000ca61 f   LIBCMT:gs_report.obj
 0001:0000ba6d       ___report_securityfailure  1000ca6d f   LIBCMT:gs_report.obj
 0001:0000bb3c       ??2@YAPAXIABUnothrow_t@std@@@Z 1000cb3c f   LIBCMT:new_scalar_nothrow.obj
 0001:0000bb91       ??_U@YAPAXIABUnothrow_t@std@@@Z 1000cb91 f   LIBCMT:new_array_nothrow.obj
 0001:0000bb9a       @__security_check_cookie@4 1000cb9a f   LIBCMT:secchk.obj
 0001:0000bbb0       __SEH_prolog4_GS           1000cbb0 f   LIBCMT:sehprolg4gs.obj
 0001:0000bc00       __alloca_probe_16          1000cc00 f   LIBCMT:alloca16.obj
 0001:0000bc16       __alloca_probe_8           1000cc16     LIBCMT:alloca16.obj
 0001:0000bc30       __alloca_probe             1000cc30 f   LIBCMT:chkstk.obj
 0001:0000bc30       __chkstk                   1000cc30 f   LIBCMT:chkstk.obj
 0001:0000bf9b       __DllMainCRTStartup@12     1000cf9b f   LIBCMT:dll_dllmain.obj
 0001:0000bfbe       ??2@YAPAXI@Z               1000cfbe f   LIBCMT:new_scalar.obj
 0001:0000bfee       ___isa_available_init      1000cfee f   LIBCMT:cpu_disp.obj
 0001:0000c1c2       ___scrt_is_ucrt_dll_in_use 1000d1c2 f   LIBCMT:ucrt_detection.obj
 0001:0000c1ce       ___scrt_fastfail           1000d1ce f   LIBCMT:utility_desktop.obj
 0001:0000c2e9       __crt_debugger_hook        1000d2e9 f   LIBCMT:utility_desktop.obj
 0001:0000c300       __SEH_prolog4              1000d300 f   LIBCMT:sehprolg4.obj
 0001:0000c345       @_guard_check_icall_nop@4  1000d345 f i LIBCMT:guard_support.obj
 0001:0000c395       ___security_init_cookie    1000d395 f   LIBCMT:gs_support.obj
 0001:0000c3e0       ?__scrt_initialize_type_info@@YAXXZ 1000d3e0 f   LIBCMT:tncleanup.obj
 0001:0000c3ec       ?__scrt_uninitialize_type_info@@YAXXZ 1000d3ec f   LIBCMT:tncleanup.obj
 0001:0000c3f8       ___local_stdio_scanf_options 1000d3f8 f i LIBCMT:default_local_stdio_options.obj
 0001:0000c3fe       ___scrt_initialize_default_local_stdio_options 1000d3fe f   LIBCMT:default_local_stdio_options.obj
 0001:0000c41b       ___scrt_get_dyn_tls_init_callback 1000d41b f   LIBCMT:dyn_tls_init.obj
 0001:0000c421       __RTC_Initialize           1000d421 f   LIBCMT:initsect.obj
 0001:0000c44d       __RTC_Terminate            1000d44d f   LIBCMT:initsect.obj
 0001:0000c479       ??0bad_alloc@std@@QAE@ABV01@@Z 1000d479 f i LIBCMT:throw_bad_alloc.obj
 0001:0000c494       ??0bad_alloc@std@@QAE@XZ   1000d494 f i LIBCMT:throw_bad_alloc.obj
 0001:0000c4ac       ??0bad_array_new_length@std@@QAE@ABV01@@Z 1000d4ac f i LIBCMT:throw_bad_alloc.obj
 0001:0000c4c7       ??0bad_array_new_length@std@@QAE@XZ 1000d4c7 f i LIBCMT:throw_bad_alloc.obj
 0001:0000c4df       ??0exception@std@@QAE@ABV01@@Z 1000d4df f i LIBCMT:throw_bad_alloc.obj
 0001:0000c50b       ??1bad_array_new_length@std@@UAE@XZ 1000d50b f i LIBCMT:throw_bad_alloc.obj
 0001:0000c50b       ??1bad_alloc@std@@UAE@XZ   1000d50b f i LIBCMT:throw_bad_alloc.obj
 0001:0000c50b       ??1bad_exception@std@@UAE@XZ 1000d50b f i libvcruntime:frame.obj
 0001:0000c51c       ??_Gbad_exception@std@@UAEPAXI@Z 1000d51c f i libvcruntime:frame.obj
 0001:0000c51c       ??_Gexception@std@@UAEPAXI@Z 1000d51c f i LIBCMT:throw_bad_alloc.obj
 0001:0000c51c       ??_Eexception@std@@UAEPAXI@Z 1000d51c f i LIBCMT:throw_bad_alloc.obj
 0001:0000c51c       ??_Gbad_array_new_length@std@@UAEPAXI@Z 1000d51c f i LIBCMT:throw_bad_alloc.obj
 0001:0000c51c       ??_Ebad_array_new_length@std@@UAEPAXI@Z 1000d51c f i LIBCMT:throw_bad_alloc.obj
 0001:0000c51c       ??_Ebad_exception@std@@UAEPAXI@Z 1000d51c f i libvcruntime:frame.obj
 0001:0000c51c       ??_Gbad_alloc@std@@UAEPAXI@Z 1000d51c f i LIBCMT:throw_bad_alloc.obj
 0001:0000c51c       ??_Ebad_alloc@std@@UAEPAXI@Z 1000d51c f i LIBCMT:throw_bad_alloc.obj
 0001:0000c549       ?__scrt_throw_std_bad_alloc@@YAXXZ 1000d549 f   LIBCMT:throw_bad_alloc.obj
 0001:0000c566       ?__scrt_throw_std_bad_array_new_length@@YAXXZ 1000d566 f   LIBCMT:throw_bad_alloc.obj
 0001:0000c583       ?what@exception@std@@UBEPBDXZ 1000d583 f i LIBCMT:throw_bad_alloc.obj
 0001:0000c590       ??_Gtype_info@@UAEPAXI@Z   1000d590 f i LIBCMT:std_type_info_static.obj
 0001:0000c590       ??_Etype_info@@UAEPAXI@Z   1000d590 f i LIBCMT:std_type_info_static.obj
 0001:0000c5b3       ??0CAtlBaseModule@ATL@@QAE@XZ 1000d5b3 f   atls:atlbase.obj
 0001:0000c606       ??0_ATL_BASE_MODULE70@ATL@@QAE@XZ 1000d606 f i atls:atlbase.obj
 0001:0000c629       ??1CAtlBaseModule@ATL@@QAE@XZ 1000d629 f   atls:atlbase.obj
 0001:0000c716       ?Init@_stdcallthunk@ATL@@QAEHKPAX@Z 1000d716 f i atls:atlthunk.obj
 0001:0000c74b       ?__AllocStdCallThunk_cmn@@YAPAXXZ 1000d74b f   atls:atlthunk.obj
 0001:0000c811       ?__FreeStdCallThunk_cmn@@YAXPAX@Z 1000d811 f   atls:atlthunk.obj
 0001:0000c8ad       _AtlThunk_AllocateData@0   1000d8ad f   atls:atlthunk.obj
 0001:0000c912       _AtlThunk_DataToCode@4     1000d912 f   atls:atlthunk.obj
 0001:0000c959       _AtlThunk_FreeData@4       1000d959 f   atls:atlthunk.obj
 0001:0000c9af       _AtlThunk_InitData@12      1000d9af f   atls:atlthunk.obj
 0001:0000c9fe       __get_purecall_handler     1000d9fe f   libvcruntime:purevirt.obj
 0001:0000ca05       __purecall                 1000da05 f   libvcruntime:purevirt.obj
 0001:0000ca21       _wcsstr                    1000da21 f   libvcruntime:wcsstr.obj
 0001:0000cce0       __except_handler4          1000dce0 f   libvcruntime:chandler4.obj
 0001:0000ce3e       _memcmp                    1000de3e f   libvcruntime:memcmp.obj
 0001:0000e4c0       _memmove                   1000f4c0 f   libvcruntime:memmove.obj
 0001:0000e4c0       _memcpy                    1000f4c0 f   libvcruntime:memcpy.obj
 0001:0000ea40       _memset                    1000fa40 f   libvcruntime:memset.obj
 0001:0000eb9a       ___vcrt_initialize         1000fb9a f   libvcruntime:initialization.obj
 0001:0000ebb9       ___vcrt_thread_attach      1000fbb9 f   libvcruntime:initialization.obj
 0001:0000ebc4       ___vcrt_thread_detach      1000fbc4 f   libvcruntime:initialization.obj
 0001:0000ebcf       ___vcrt_uninitialize       1000fbcf f   libvcruntime:initialization.obj
 0001:0000ebe6       ___vcrt_uninitialize_critical 1000fbe6 f   libvcruntime:initialization.obj
 0001:0000ebee       ?GetRangeOfTrysToCheck@__FrameHandler3@@SA?AU?$pair@Viterator@TryBlockMap@__FrameHandler3@@V123@@std@@AAVTryBlockMap@1@HPAXPBU_s_FuncInfo@@H@Z 1000fbee f   libvcruntime:trnsctrl.obj
 0001:0000ec5e       ?_CallCatchBlock2@@YAPAXPAUEHRegistrationNode@@PBU_s_FuncInfo@@PAXHK@Z 1000fc5e f   libvcruntime:trnsctrl.obj
 0001:0000ecbb       ?_CallSETranslator@@YAHPAUEHExceptionRecord@@PAUEHRegistrationNode@@PAX2PBU_s_FuncInfo@@H1@Z 1000fcbb f   libvcruntime:trnsctrl.obj
 0001:0000edb1       ?_JumpToContinuation@@YGXPAXPAUEHRegistrationNode@@@Z 1000fdb1 f   libvcruntime:trnsctrl.obj
 0001:0000ede1       ?_UnwindNestedFrames@@YGXPAUEHRegistrationNode@@PAUEHExceptionRecord@@@Z 1000fde1 f   libvcruntime:trnsctrl.obj
 0001:0000ee34       __CatchGuardHandler        1000fe34 f   libvcruntime:trnsctrl.obj
 0001:0000ee65       __CreateFrameInfo          1000fe65 f   libvcruntime:trnsctrl.obj
 0001:0000ee89       __FindAndUnlinkFrame       1000fe89 f   libvcruntime:trnsctrl.obj
 0001:0000eed1       __TranslatorGuardHandler   1000fed1 f   libvcruntime:trnsctrl.obj
 0001:0000ef6e       ___CxxFrameHandler3        1000ff6e f   libvcruntime:trnsctrl.obj
 0001:0000efa4       ___DestructExceptionObject 1000ffa4 f   libvcruntime:ehhelpers.obj
 0001:0000f045       ?_CallMemberFunction0@@YGXQAX0@Z 10010045 f i libvcruntime:ehhelpers.obj
 0001:0000f0aa       __IsExceptionObjectToBeDestroyed 100100aa f   libvcruntime:ehhelpers.obj
 0001:0000f0d0       ___AdjustPointer           100100d0 f   libvcruntime:ehhelpers.obj
 0001:0000f0f5       ___FrameUnwindFilter       100100f5 f   libvcruntime:ehhelpers.obj
 0001:0000f14b       ___std_terminate           1001014b f   libvcruntime:ehhelpers.obj
 0001:0000f150       ___std_type_info_compare   10010150 f   libvcruntime:std_type_info.obj
 0001:0000f18c       ___std_type_info_destroy_list 1001018c f   libvcruntime:std_type_info.obj
 0001:0000f1af       ___std_exception_copy      100101af f   libvcruntime:std_exception.obj
 0001:0000f212       ___std_exception_destroy   10010212 f   libvcruntime:std_exception.obj
 0001:0000f231       __CxxThrowException@8      10010231 f   libvcruntime:throw.obj
 0001:0000f2a0       __local_unwind4            100102a0 f   libvcruntime:exsup4.obj
 0001:0000f390       @_EH4_CallFilterFunc@8     10010390 f   libvcruntime:exsup4.obj
 0001:0000f3b0       @_EH4_TransferToHandler@8  100103b0 f   libvcruntime:exsup4.obj
 0001:0000f3d0       @_EH4_GlobalUnwind2@8      100103d0 f   libvcruntime:exsup4.obj
 0001:0000f3f0       @_EH4_LocalUnwind@16       100103f0 f   libvcruntime:exsup4.obj
 0001:0000f407       ___except_validate_context_record 10010407 f   libvcruntime:jbcxrval.obj
 0001:0000f437       ___vcrt_freefls@4          10010437 f   libvcruntime:per_thread_data.obj
 0001:0000f453       ___vcrt_freeptd            10010453 f   libvcruntime:per_thread_data.obj
 0001:0000f489       ___vcrt_getptd             10010489 f   libvcruntime:per_thread_data.obj
 0001:0000f497       ___vcrt_getptd_noexit      10010497 f   libvcruntime:per_thread_data.obj
 0001:0000f529       ___vcrt_initialize_ptd     10010529 f   libvcruntime:per_thread_data.obj
 0001:0000f55c       ___vcrt_uninitialize_ptd   1001055c f   libvcruntime:per_thread_data.obj
 0001:0000f577       ___vcrt_initialize_locks   10010577 f   libvcruntime:locks.obj
 0001:0000f5b3       ___vcrt_uninitialize_locks 100105b3 f   libvcruntime:locks.obj
 0001:0000fd14       ??$TypeMatchHelper@V__FrameHandler3@@@@YAHPBU_s_HandlerType@@PBU_s_CatchableType@@PBU_s_ThrowInfo@@@Z 10010d14 f i libvcruntime:frame.obj
 0001:0000fda2       ??$__InternalCxxFrameHandler@V__FrameHandler3@@@@YA?AW4_EXCEPTION_DISPOSITION@@PAUEHExceptionRecord@@PAUEHRegistrationNode@@PAU_CONTEXT@@PAXPBU_s_FuncInfo@@H1E@Z 10010da2 f i libvcruntime:frame.obj
 0001:0000fea4       ??0bad_exception@std@@QAE@ABV01@@Z 10010ea4 f i libvcruntime:frame.obj
 0001:0000febf       ??0bad_exception@std@@QAE@XZ 10010ebf f i libvcruntime:frame.obj
 0001:0000fed7       ??8type_info@@QBE_NABV0@@Z 10010ed7 f i libvcruntime:frame.obj
 0001:0001014e       ?FrameUnwindToEmptyState@__FrameHandler3@@SAXPAUEHRegistrationNode@@PAXPBU_s_FuncInfo@@@Z 1001114e f   libvcruntime:frame.obj
 0001:00010166       ?FrameUnwindToState@__FrameHandler3@@SAXPAUEHRegistrationNode@@PAXPBU_s_FuncInfo@@H@Z 10011166 f   libvcruntime:frame.obj
 0001:000102e8       ?_CallMemberFunction1@@YGXQAX00@Z 100112e8 f i libvcruntime:frame.obj
 0001:000102f8       ?_CallMemberFunction2@@YGXQAX00H@Z 100112f8 f i libvcruntime:frame.obj
 0001:0001030b       ?getESTypes@__FrameHandler3@@SAPBU_s_ESTypeList@@PBU_s_FuncInfo@@@Z 1001130b f i libvcruntime:frame.obj
 0001:00010320       __CallSettingFrame@12      10011320 f   libvcruntime:lowhelpr.obj
 0001:00010347       __NLG_Return               10011347     libvcruntime:lowhelpr.obj
 0001:00010370       __NLG_Notify1              10011370 f   libvcruntime:exsup.obj
 0001:00010380       __NLG_Notify               10011380 f   libvcruntime:exsup.obj
 0001:00010397       __NLG_Dispatch             10011397     libvcruntime:exsup.obj
 0001:00010397       __NLG_Dispatch2            10011397     libvcruntime:exsup.obj
 0001:000103a0       __NLG_Call                 100113a0 f   libvcruntime:exsup.obj
 0001:000103a2       __NLG_Return2              100113a2     libvcruntime:exsup.obj
 0001:00010488       ___vcrt_FlsAlloc           10011488 f   libvcruntime:winapi_downlevel.obj
 0001:000104c3       ___vcrt_FlsFree            100114c3 f   libvcruntime:winapi_downlevel.obj
 0001:000104fe       ___vcrt_FlsGetValue        100114fe f   libvcruntime:winapi_downlevel.obj
 0001:00010539       ___vcrt_FlsSetValue        10011539 f   libvcruntime:winapi_downlevel.obj
 0001:00010577       ___vcrt_InitializeCriticalSectionEx 10011577 f   libvcruntime:winapi_downlevel.obj
 0001:000105be       _unexpected                100115be f   libvcruntime:unexpected.obj
 0001:000105db       ?GetCurrentState@__FrameHandler3@@SAHPAUEHRegistrationNode@@PAXPBU_s_FuncInfo@@@Z 100115db f   libvcruntime:ehstate.obj
 0001:000105f8       ?SetState@__FrameHandler3@@SAXPAUEHRegistrationNode@@PBU_s_FuncInfo@@H@Z 100115f8 f   libvcruntime:ehstate.obj
 0001:00010606       _free                      10011606 f   libucrt:free.obj
 0001:00010621       ??0__crt_cached_ptd_host@@QAE@QAU__crt_locale_pointers@@@Z 10011621 f i libucrt:invalid_parameter.obj
 0001:00010669       ??1__crt_cached_ptd_host@@QAE@XZ 10011669 f i libucrt:invalid_parameter.obj
 0001:000106a5       ?check_synchronize_global_state_index@__crt_cached_ptd_host@@AAEIXZ 100116a5 f i libucrt:invalid_parameter.obj
 0001:000106ce       ?force_synchronize_per_thread_data@__crt_cached_ptd_host@@AAEPAU__acrt_ptd@@XZ 100116ce f i libucrt:invalid_parameter.obj
 0001:00010714       ?get_raw_ptd@__crt_cached_ptd_host@@QAEPAU__acrt_ptd@@XZ 10011714 f i libucrt:invalid_parameter.obj
 0001:00010731       ___acrt_call_reportfault   10011731 f   libucrt:invalid_parameter.obj
 0001:0001086a       ___acrt_initialize_invalid_parameter_handler 1001186a f   libucrt:invalid_parameter.obj
 0001:00010879       __invalid_parameter        10011879 f   libucrt:invalid_parameter.obj
 0001:000108b0       __invalid_parameter_internal 100118b0 f   libucrt:invalid_parameter.obj
 0001:0001092d       __invalid_parameter_noinfo 1001192d f   libucrt:invalid_parameter.obj
 0001:0001093d       __invoke_watson            1001193d f   libucrt:invalid_parameter.obj
 0001:00010971       ___acrt_errno_from_os_error 10011971 f   libucrt:errno.obj
 0001:000109b4       ___acrt_errno_map_os_error 100119b4 f   libucrt:errno.obj
 0001:000109d7       ___acrt_errno_map_os_error_ptd 100119d7 f   libucrt:errno.obj
 0001:000109fb       ___doserrno                100119fb f   libucrt:errno.obj
 0001:00010a0e       __errno                    10011a0e f   libucrt:errno.obj
 0001:00010a21       _calloc                    10011a21 f   libucrt:calloc.obj
 0001:00010a2c       _malloc                    10011a2c f   libucrt:malloc.obj
 0001:00010a37       __recalloc                 10011a37 f   libucrt:recalloc.obj
 0001:00010a42       __recalloc_base            10011a42 f   libucrt:recalloc.obj
 0001:00010aaf       __resetstkoflw             10011aaf f   libucrt:resetstk.obj
 0001:00010bec       _wcscat_s                  10011bec f   libucrt:wcscat_s.obj
 0001:00010bf7       _wcscpy_s                  10011bf7 f   libucrt:wcscpy_s.obj
 0001:00010d29       _wcsncpy_s                 10011d29 f   libucrt:wcsncpy_s.obj
 0001:00010f51       ??$count@D@formatting_buffer@__crt_stdio_output@@QBEIXZ 10011f51 f i libucrt:output.obj
 0001:00010f69       ??$count@_W@formatting_buffer@__crt_stdio_output@@QBEIXZ 10011f69 f i libucrt:output.obj
 0001:00010f82       ??$ensure_buffer_is_big_enough@D@formatting_buffer@__crt_stdio_output@@QAE_NIAAV__crt_cached_ptd_host@@@Z 10011f82 f i libucrt:output.obj
 0001:00011003       ??$ensure_buffer_is_big_enough@_W@formatting_buffer@__crt_stdio_output@@QAE_NIAAV__crt_cached_ptd_host@@@Z 10012003 f i libucrt:output.obj
 0001:00011085       ??$is_overflow_condition@K@__crt_strtox@@YA_NIK@Z 10012085 f i libucrt:output.obj
 0001:000110b6       ??$is_wide_character_specifier@_W@__crt_stdio_output@@YA_N_K_WW4length_modifier@0@@Z 100120b6 f i libucrt:output.obj
 0001:00011104       ??$parse_integer@KV?$c_string_character_source@_W@__crt_strtox@@$0A@@__crt_strtox@@YAKAAV__crt_cached_ptd_host@@V?$c_string_character_source@_W@0@H_N@Z 10012104 f i libucrt:output.obj
 0001:000116d3       ??$scratch_data@D@formatting_buffer@__crt_stdio_output@@QAEPADXZ 100126d3 f i libucrt:output.obj
 0001:000116f1       ??$type_case_integer@$07@?$output_processor@_WV?$string_output_adapter@_W@__crt_stdio_output@@V?$format_validation_base@_WV?$string_output_adapter@_W@__crt_stdio_output@@@2@@__crt_stdio_output@@AAE_N_N@Z 100126f1 f i libucrt:output.obj
 0001:00011873       ??$type_case_integer@$09@?$output_processor@_WV?$string_output_adapter@_W@__crt_stdio_output@@V?$format_validation_base@_WV?$string_output_adapter@_W@__crt_stdio_output@@@2@@__crt_stdio_output@@AAE_N_N@Z 10012873 f i libucrt:output.obj
 0001:000119f5       ??$type_case_integer@$0BA@@?$output_processor@_WV?$string_output_adapter@_W@__crt_stdio_output@@V?$format_validation_base@_WV?$string_output_adapter@_W@__crt_stdio_output@@@2@@__crt_stdio_output@@AAE_N_N@Z 100129f5 f i libucrt:output.obj
 0001:00011b77       ??$type_case_integer_parse_into_buffer@I$07@?$output_processor@_WV?$string_output_adapter@_W@__crt_stdio_output@@V?$format_validation_base@_WV?$string_output_adapter@_W@__crt_stdio_output@@@2@@__crt_stdio_output@@AAEXI_N@Z 10012b77 f i libucrt:output.obj
 0001:00011be4       ??$type_case_integer_parse_into_buffer@I$09@?$output_processor@_WV?$string_output_adapter@_W@__crt_stdio_output@@V?$format_validation_base@_WV?$string_output_adapter@_W@__crt_stdio_output@@@2@@__crt_stdio_output@@AAEXI_N@Z 10012be4 f i libucrt:output.obj
 0001:00011c73       ??$type_case_integer_parse_into_buffer@I$0BA@@?$output_processor@_WV?$string_output_adapter@_W@__crt_stdio_output@@V?$format_validation_base@_WV?$string_output_adapter@_W@__crt_stdio_output@@@2@@__crt_stdio_output@@AAEXI_N@Z 10012c73 f i libucrt:output.obj
 0001:00011d00       ??$type_case_integer_parse_into_buffer@_K$07@?$output_processor@_WV?$string_output_adapter@_W@__crt_stdio_output@@V?$format_validation_base@_WV?$string_output_adapter@_W@__crt_stdio_output@@@2@@__crt_stdio_output@@AAEX_K_N@Z 10012d00 f i libucrt:output.obj
 0001:00011d89       ??$type_case_integer_parse_into_buffer@_K$09@?$output_processor@_WV?$string_output_adapter@_W@__crt_stdio_output@@V?$format_validation_base@_WV?$string_output_adapter@_W@__crt_stdio_output@@@2@@__crt_stdio_output@@AAEX_K_N@Z 10012d89 f i libucrt:output.obj
 0001:00011e38       ??$type_case_integer_parse_into_buffer@_K$0BA@@?$output_processor@_WV?$string_output_adapter@_W@__crt_stdio_output@@V?$format_validation_base@_WV?$string_output_adapter@_W@__crt_stdio_output@@@2@@__crt_stdio_output@@AAEX_K_N@Z 10012e38 f i libucrt:output.obj
 0001:00011ed3       ??0?$output_adapter_data@_WV?$string_output_adapter@_W@__crt_stdio_output@@@__crt_stdio_output@@IAE@ABV?$string_output_adapter@_W@1@_KQB_WAAV__crt_cached_ptd_host@@QAD@Z 10012ed3 f i libucrt:output.obj
 0001:00011f3f       ??1formatting_buffer@__crt_stdio_output@@QAE@XZ 10012f3f f i libucrt:output.obj
 0001:00011f59       ??4?$__crt_unique_heap_ptr@DU__crt_internal_free_policy@@@@QAEAAV0@$$QAV0@@Z 10012f59 f i libucrt:output.obj
 0001:00011f7d       ?crop_zeroes@__crt_stdio_output@@YAXPADQAU__crt_locale_pointers@@@Z 10012f7d f i libucrt:output.obj
 0001:00011fdd       ?find_next_state@?$output_processor@_WV?$string_output_adapter@_W@__crt_stdio_output@@V?$format_validation_base@_WV?$string_output_adapter@_W@__crt_stdio_output@@@2@@__crt_stdio_output@@ABE?AW4state@2@_WW432@@Z 10012fdd f i libucrt:output.obj
 0001:00012019       ?force_decimal_point@__crt_stdio_output@@YAXPADQAU__crt_locale_pointers@@@Z 10013019 f i libucrt:output.obj
 0001:00012075       ?parse_int_from_format_string@?$output_processor@_WV?$string_output_adapter@_W@__crt_stdio_output@@V?$format_validation_base@_WV?$string_output_adapter@_W@__crt_stdio_output@@@2@@__crt_stdio_output@@AAE_NQAH@Z 10013075 f i libucrt:output.obj
 0001:000120ef       ?process@?$output_processor@_WV?$string_output_adapter@_W@__crt_stdio_output@@V?$format_validation_base@_WV?$string_output_adapter@_W@__crt_stdio_output@@@2@@__crt_stdio_output@@QAEHXZ 100130ef f i libucrt:output.obj
 0001:0001233f       ?state_case_size@?$output_processor@_WV?$string_output_adapter@_W@__crt_stdio_output@@V?$format_validation_base@_WV?$string_output_adapter@_W@__crt_stdio_output@@@2@@__crt_stdio_output@@AAE_NXZ 1001333f f i libucrt:output.obj
 0001:000124cd       ?state_case_type@?$output_processor@_WV?$string_output_adapter@_W@__crt_stdio_output@@V?$format_validation_base@_WV?$string_output_adapter@_W@__crt_stdio_output@@@2@@__crt_stdio_output@@AAE_NXZ 100134cd f i libucrt:output.obj
 0001:000128ee       ?to_integer_size@__crt_stdio_output@@YAIW4length_modifier@1@@Z 100138ee f i libucrt:output.obj
 0001:00012942       ?type_case_Z@?$output_processor@_WV?$string_output_adapter@_W@__crt_stdio_output@@V?$format_validation_base@_WV?$string_output_adapter@_W@__crt_stdio_output@@@2@@__crt_stdio_output@@AAE_NXZ 10013942 f i libucrt:output.obj
 0001:0001299c       ?type_case_a@?$output_processor@_WV?$string_output_adapter@_W@__crt_stdio_output@@V?$format_validation_base@_WV?$string_output_adapter@_W@__crt_stdio_output@@@2@@__crt_stdio_output@@AAE_NXZ 1001399c f i libucrt:output.obj
 0001:00012b3c       ?type_case_c_tchar@?$output_processor@_WV?$string_output_adapter@_W@__crt_stdio_output@@V?$format_validation_base@_WV?$string_output_adapter@_W@__crt_stdio_output@@@2@@__crt_stdio_output@@AAE_N_W@Z 10013b3c f i libucrt:output.obj
 0001:00012be3       ?type_case_n@?$output_processor@_WV?$string_output_adapter@_W@__crt_stdio_output@@V?$format_validation_base@_WV?$string_output_adapter@_W@__crt_stdio_output@@@2@@__crt_stdio_output@@AAE_NXZ 10013be3 f i libucrt:output.obj
 0001:00012c67       ?type_case_o@?$output_processor@_WV?$string_output_adapter@_W@__crt_stdio_output@@V?$format_validation_base@_WV?$string_output_adapter@_W@__crt_stdio_output@@@2@@__crt_stdio_output@@AAE_NXZ 10013c67 f i libucrt:output.obj
 0001:00012c84       ?type_case_p@?$output_processor@_WV?$string_output_adapter@_W@__crt_stdio_output@@V?$format_validation_base@_WV?$string_output_adapter@_W@__crt_stdio_output@@@2@@__crt_stdio_output@@AAE_NXZ 10013c84 f i libucrt:output.obj
 0001:00012c9a       ?type_case_s@?$output_processor@_WV?$string_output_adapter@_W@__crt_stdio_output@@V?$format_validation_base@_WV?$string_output_adapter@_W@__crt_stdio_output@@@2@@__crt_stdio_output@@AAE_NXZ 10013c9a f i libucrt:output.obj
 0001:00012d0d       ?type_case_s_compute_narrow_string_length@?$output_processor@_WV?$string_output_adapter@_W@__crt_stdio_output@@V?$format_validation_base@_WV?$string_output_adapter@_W@__crt_stdio_output@@@2@@__crt_stdio_output@@AAEHH_W@Z 10013d0d f i libucrt:output.obj
 0001:00012d62       ?unget@?$c_string_character_source@_W@__crt_strtox@@QAEX_W@Z 10013d62 f i libucrt:output.obj
 0001:00012d90       ?update_locale_slow@__crt_cached_ptd_host@@AAEXXZ 10013d90 f i libucrt:output.obj
 0001:00012deb       ?validate@?$c_string_character_source@_W@__crt_strtox@@QBE_NXZ 10013deb f i libucrt:output.obj
 0001:00012e06       ?validate@?$string_output_adapter@_W@__crt_stdio_output@@QBE_NAAV__crt_cached_ptd_host@@@Z 10013e06 f i libucrt:output.obj
 0001:00012e37       ?write_string@?$string_output_adapter@_W@__crt_stdio_output@@QBEXQB_WHQAHAAV__crt_cached_ptd_host@@@Z 10013e37 f i libucrt:output.obj
 0001:00012ea8       ___acrt_locale_get_ctype_array_value 10013ea8 f i libucrt:output.obj
 0001:00012eca       ___stdio_common_vswprintf_s 10013eca f   libucrt:output.obj
 0001:00012f0b       __seh_filter_dll           10013f0b f   libucrt:exception_filter.obj
 0001:00012f2b       __seh_filter_exe           10013f2b f   libucrt:exception_filter.obj
 0001:00013358       ___acrt_initialize_thread_local_exit_callback 10014358 f   libucrt:exit.obj
 0001:00013367       __cexit                    10014367 f   libucrt:exit.obj
 0001:00013376       __exit                     10014376 f   libucrt:exit.obj
 0001:0001338c       __is_c_termination_complete 1001438c f   libucrt:exit.obj
 0001:00013644       ___acrt_allocate_buffer_for_argv 10014644 f   libucrt:argv_parsing.obj
 0001:00013693       __configure_narrow_argv    10014693 f   libucrt:argv_parsing.obj
 0001:0001383f       ___dcrt_uninitialize_environments_nolock 1001483f f   libucrt:environment_initialization.obj
 0001:00013890       __initialize_narrow_environment 10014890 f   libucrt:environment_initialization.obj
 0001:0001394b       ??$__crt_fast_encode_pointer@PAP6AXXZ@@YAPAP6AXXZQAP6AXXZ@Z 1001494b f i libucrt:onexit.obj
 0001:0001394b       ??$__crt_fast_encode_pointer@PAX@@YAPAXQAX@Z 1001494b f i libucrt:initialization.obj
 0001:0001394b       ??$__crt_fast_encode_pointer@P6AHXZ@@YAP6AHXZQ6AHXZ@Z 1001494b f i libucrt:onexit.obj
 0001:00013b46       __crt_atexit               10014b46 f   libucrt:onexit.obj
 0001:00013b5c       __execute_onexit_table     10014b5c f   libucrt:onexit.obj
 0001:00013b9a       __initialize_onexit_table  10014b9a f   libucrt:onexit.obj
 0001:00013bc3       __register_onexit_function 10014bc3 f   libucrt:onexit.obj
 0001:00013c46       ___acrt_uninitialize_command_line 10014c46 f   libucrt:argv_data.obj
 0001:00013cf4       ___acrt_initialize         10014cf4 f   libucrt:initialization.obj
 0001:00013d06       ___acrt_thread_attach      10014d06 f   libucrt:initialization.obj
 0001:00013d11       ___acrt_thread_detach      10014d11 f   libucrt:initialization.obj
 0001:00013d19       ___acrt_uninitialize       10014d19 f   libucrt:initialization.obj
 0001:00013d49       ___acrt_uninitialize_critical 10014d49 f   libucrt:initialization.obj
 0001:00013d5b       __initterm                 10014d5b f   libucrt:initterm.obj
 0001:00013d86       __initterm_e               10014d86 f   libucrt:initterm.obj
 0001:00013db4       ___acrt_initialize_new_handler 10014db4 f   libucrt:new_handler.obj
 0001:00013dc3       __callnewh                 10014dc3 f   libucrt:new_handler.obj
 0001:00013df0       __query_new_handler        10014df0 f   libucrt:new_handler.obj
 0001:00013e4c       _terminate                 10014e4c f   libucrt:terminate.obj
 0001:00013e88       _abort                     10014e88 f   libucrt:abort.obj
 0001:00013ecc       _strcpy_s                  10014ecc f   libucrt:strcpy_s.obj
 0001:00013f30       _strncmp                   10014f30 f   libucrt:strncmp.obj
 0001:00013fa8       _wcsncmp                   10014fa8 f   libucrt:wcsncmp.obj
 0001:00013fe2       __free_base                10014fe2 f   libucrt:free_base.obj
 0001:0001435a       ___acrt_freeptd            1001535a f   libucrt:per_thread_data.obj
 0001:00014386       ___acrt_getptd             10015386 f   libucrt:per_thread_data.obj
 0001:00014441       ___acrt_getptd_head        10015441 f   libucrt:per_thread_data.obj
 0001:000144d7       ___acrt_getptd_noexit      100154d7 f   libucrt:per_thread_data.obj
 0001:00014588       ___acrt_getptd_noexit_explicit 10015588 f   libucrt:per_thread_data.obj
 0001:0001462b       ___acrt_initialize_ptd     1001562b f   libucrt:per_thread_data.obj
 0001:00014657       ___acrt_uninitialize_ptd   10015657 f   libucrt:per_thread_data.obj
 0001:000146df       ___acrt_set_locale_changed 100156df f   libucrt:wsetlocale.obj
 0001:000146ea       ___acrt_uninitialize_locale 100156ea f   libucrt:wsetlocale.obj
 0001:00014711       __calloc_base              10015711 f   libucrt:calloc_base.obj
 0001:0001476e       __malloc_base              1001576e f   libucrt:malloc_base.obj
 0001:000147bc       __msize_base               100157bc f   libucrt:msize.obj
 0001:000147ef       __realloc_base             100157ef f   libucrt:realloc_base.obj
 0001:000149f4       ___acrt_AppPolicyGetProcessTerminationMethodInternal@4 100159f4 f   libucrt:winapi_thunks.obj
 0001:00014a34       ___acrt_AreFileApisANSI@0  10015a34 f   libucrt:winapi_thunks.obj
 0001:00014a53       ___acrt_FlsAlloc@4         10015a53 f   libucrt:winapi_thunks.obj
 0001:00014a92       ___acrt_FlsFree@4          10015a92 f   libucrt:winapi_thunks.obj
 0001:00014ad1       ___acrt_FlsGetValue@4      10015ad1 f   libucrt:winapi_thunks.obj
 0001:00014b10       ___acrt_FlsSetValue@8      10015b10 f   libucrt:winapi_thunks.obj
 0001:00014b52       ___acrt_InitializeCriticalSectionEx@12 10015b52 f   libucrt:winapi_thunks.obj
 0001:00014b9d       ___acrt_LCMapStringEx@36   10015b9d f   libucrt:winapi_thunks.obj
 0001:00014bfa       ___acrt_LocaleNameToLCID@8 10015bfa f   libucrt:winapi_thunks.obj
 0001:00014c2b       ___acrt_SetThreadStackGuarantee@4 10015c2b f   libucrt:winapi_thunks.obj
 0001:00014c66       ___acrt_initialize_winapi_thunks 10015c66 f   libucrt:winapi_thunks.obj
 0001:00014c7a       ___acrt_uninitialize_winapi_thunks 10015c7a f   libucrt:winapi_thunks.obj
 0001:00014cb0       _wcsnlen                   10015cb0 f   libucrt:strnlen.obj
 0001:00014e60       ___acrt_update_locale_info 10015e60 f   libucrt:locale_update.obj
 0001:00014e8d       ___acrt_update_locale_info_explicit 10015e8d f   libucrt:locale_update.obj
 0001:00014ebe       ___acrt_update_multibyte_info 10015ebe f   libucrt:locale_update.obj
 0001:00014eeb       ___acrt_update_multibyte_info_explicit 10015eeb f   libucrt:locale_update.obj
 0001:00014f1c       ?__acrt_fp_classify@@YA?AW4__acrt_fp_class@@ABN@Z 10015f1c f i libucrt:cvt.obj
 0001:000158e5       ___acrt_fp_format          100168e5 f   libucrt:cvt.obj
 0001:00015a66       __mbtowc_internal          10016a66 f   libucrt:mbtowc.obj
 0001:00015b99       __fileno                   10016b99 f   libucrt:fileno.obj
 0001:00015bc0       ___acrt_initialize_stdio   10016bc0 f   libucrt:_file.obj
 0001:00015c88       ___acrt_uninitialize_stdio 10016c88 f   libucrt:_file.obj
 0001:00015cd4       __lock_file                10016cd4 f   libucrt:_file.obj
 0001:00015ce8       __unlock_file              10016ce8 f   libucrt:_file.obj
 0001:00015cfc       __get_printf_count_output  10016cfc f   libucrt:printf_count_output.obj
 0001:00015e77       ___acrt_initialize_lowio   10016e77 f   libucrt:ioinit.obj
 0001:00015ed7       ___acrt_uninitialize_lowio 10016ed7 f   libucrt:ioinit.obj
 0001:00015f03       ___acrt_initialize_locks   10016f03 f   libucrt:locks.obj
 0001:00015f44       ___acrt_lock               10016f44 f   libucrt:locks.obj
 0001:00015f5b       ___acrt_uninitialize_locks 10016f5b f   libucrt:locks.obj
 0001:00015f8c       ___acrt_unlock             10016f8c f   libucrt:locks.obj
 0001:00015fa3       ___acrt_get_process_end_policy 10016fa3 f   libucrt:win_policies.obj
 0001:00015fec       ??$__acrt_convert_wcs_mbs_cp@D_WV<lambda_62f6974d9771e494a5ea317cc32e971c>@@U__crt_win32_buffer_internal_dynamic_resizing@@@@YAHQBDAAV?$__crt_win32_buffer@_WU__crt_win32_buffer_internal_dynamic_resizing@@@@ABV<lambda_62f6974d9771e494a5ea317cc32e971c>@@I@Z 10016fec f i libucrt:argv_wildcards.obj
 0001:0001609e       ??$__acrt_convert_wcs_mbs_cp@_WDV<lambda_28bda7af82a03b66c1cb3803a755f95d>@@U__crt_win32_buffer_internal_dynamic_resizing@@@@YAHQB_WAAV?$__crt_win32_buffer@DU__crt_win32_buffer_internal_dynamic_resizing@@@@ABV<lambda_28bda7af82a03b66c1cb3803a755f95d>@@I@Z 1001709e f i libucrt:argv_wildcards.obj
 0001:00016164       ??$__acrt_mbs_to_wcs_cp@U__crt_win32_buffer_internal_dynamic_resizing@@@@YAHQBDAAV?$__crt_win32_buffer@_WU__crt_win32_buffer_internal_dynamic_resizing@@@@I@Z 10017164 f i libucrt:argv_wildcards.obj
 0001:00016634       ??0_LocaleUpdate@@QAE@QAU__crt_locale_pointers@@@Z 10017634 f i libucrt:argv_wildcards.obj
 0001:000166df       ??R<lambda_28bda7af82a03b66c1cb3803a755f95d>@@QBEHIQB_WQADI@Z 100176df f i libucrt:argv_wildcards.obj
 0001:000166df       ??R<lambda_0fec1a7b3f42a53036604e18c2d5e07e>@@QBEHIQB_WQADI@Z 100176df f i libucrt:getmodulefilenamea.obj
 0001:00016703       ?__acrt_get_utf8_acp_compatibility_codepage@@YAIXZ 10017703 f i libucrt:argv_wildcards.obj
 0001:00016742       ?_deallocate@?$__crt_win32_buffer@DU__crt_win32_buffer_internal_dynamic_resizing@@@@AAEXXZ 10017742 f i libucrt:argv_wildcards.obj
 0001:00016742       ?_deallocate@?$__crt_win32_buffer@_WU__crt_win32_buffer_internal_dynamic_resizing@@@@AAEXXZ 10017742 f i libucrt:argv_wildcards.obj
 0001:0001675c       ?allocate@?$__crt_win32_buffer@DU__crt_win32_buffer_internal_dynamic_resizing@@@@QAEHI@Z 1001775c f i libucrt:argv_wildcards.obj
 0001:00016798       ?allocate@?$__crt_win32_buffer@_WU__crt_win32_buffer_internal_dynamic_resizing@@@@QAEHI@Z 10017798 f i libucrt:argv_wildcards.obj
 0001:000167d7       ?allocate@__crt_win32_buffer_internal_dynamic_resizing@@SAHQAPAXIABV__crt_win32_buffer_empty_debug_info@@@Z 100177d7 f i libucrt:argv_wildcards.obj
 0001:0001687d       ___acrt_expand_narrow_argv_wildcards 1001787d f   libucrt:argv_wildcards.obj
 0001:00016888       ??$__acrt_convert_wcs_mbs_cp@_WDV<lambda_0fec1a7b3f42a53036604e18c2d5e07e>@@U__crt_win32_buffer_no_resizing@@@@YAHQB_WAAV?$__crt_win32_buffer@DU__crt_win32_buffer_no_resizing@@@@ABV<lambda_0fec1a7b3f42a53036604e18c2d5e07e>@@I@Z 10017888 f i libucrt:getmodulefilenamea.obj
 0001:0001694a       ?allocate@?$__crt_win32_buffer@DU__crt_win32_buffer_no_resizing@@@@QAEHI@Z 1001794a f i libucrt:getmodulefilenamea.obj
 0001:00016971       ?set_to_nullptr@?$__crt_win32_buffer@DU__crt_win32_buffer_no_resizing@@@@QAEXXZ 10017971 f i libucrt:getmodulefilenamea.obj
 0001:00016985       ___acrt_GetModuleFileNameA 10017985 f   libucrt:getmodulefilenamea.obj
 0001:00016fa9       ___acrt_initialize_multibyte 10017fa9 f   libucrt:mbctype.obj
 0001:00016ff1       ___acrt_update_thread_multibyte_data 10017ff1 f   libucrt:mbctype.obj
 0001:00017004       __setmbcp_nolock           10018004 f   libucrt:mbctype.obj
 0001:000172dd       __ismbblead                100182dd f   libucrt:ismbbyte.obj
 0001:000172f5       ___acrt_initialize_command_line 100182f5 f   libucrt:argv_data.obj
 0001:0001730e       ___acrt_MultiByteToWideChar 1001830e f   libucrt:multibytetowidechar.obj
 0001:0001738a       ___acrt_WideCharToMultiByte 1001838a f   libucrt:widechartomultibyte.obj
 0001:00017478       ___dcrt_get_narrow_environment_from_os 10018478 f   libucrt:get_environment_from_os.obj
 0001:00017518       ___acrt_initialize_heap    10018518 f   libucrt:heap_handle.obj
 0001:00017529       ___acrt_uninitialize_heap  10018529 f   libucrt:heap_handle.obj
 0001:00017533       ___acrt_execute_initializers 10018533 f   libucrt:shared_initialization.obj
 0001:0001759b       ___acrt_execute_uninitializers 1001859b f   libucrt:shared_initialization.obj
 0001:0001769a       ___acrt_get_sigabrt_handler 1001869a f   libucrt:signal.obj
 0001:000176c1       ___acrt_initialize_signal_handlers 100186c1 f   libucrt:signal.obj
 0001:000176df       _raise                     100186df f   libucrt:signal.obj
 0001:000178d2       ___acrt_has_user_matherr   100188d2 f   libucrt:matherr.obj
 0001:000178ea       ___acrt_initialize_user_matherr 100188ea f   libucrt:matherr.obj
 0001:000178f9       ___acrt_invoke_user_matherr 100188f9 f   libucrt:matherr.obj
 0001:00017b08       ___acrt_stdio_flush_nolock 10018b08 f   libucrt:fflush.obj
 0001:00017b71       __fflush_nolock            10018b71 f   libucrt:fflush.obj
 0001:00017bd6       __flushall                 10018bd6 f   libucrt:fflush.obj
 0001:00017bdf       ___acrt_add_locale_ref     10018bdf f   libucrt:locale_refcounting.obj
 0001:00017c5c       ___acrt_free_locale        10018c5c f   libucrt:locale_refcounting.obj
 0001:00017da4       ___acrt_locale_add_lc_time_reference 10018da4 f   libucrt:locale_refcounting.obj
 0001:00017dcd       ___acrt_locale_free_lc_time_if_unreferenced 10018dcd f   libucrt:locale_refcounting.obj
 0001:00017dfe       ___acrt_locale_release_lc_time_reference 10018dfe f   libucrt:locale_refcounting.obj
 0001:00017e27       ___acrt_release_locale_ref 10018e27 f   libucrt:locale_refcounting.obj
 0001:00017ea8       ___acrt_update_thread_locale_data 10018ea8 f   libucrt:locale_refcounting.obj
 0001:00017f29       __updatetlocinfoEx_nolock  10018f29 f   libucrt:locale_refcounting.obj
 0001:00017f79       ___acrt_locale_free_monetary 10018f79 f   libucrt:initmon.obj
 0001:00018077       ___acrt_locale_free_numeric 10019077 f   libucrt:initnum.obj
 0001:00018105       ___acrt_locale_free_time   10019105 f   libucrt:inittime.obj
 0001:000181e9       ___acrt_GetStringTypeA     100191e9 f   libucrt:getstringtypea.obj
 0001:000182f2       __freea_crt                100192f2 f i libucrt:getstringtypea.obj
 0001:00018312       __query_new_mode           10019312 f   libucrt:new_mode.obj
 0001:00018369       ___acrt_DownlevelLocaleNameToLCID 10019369 f   libucrt:lcidtoname_downlevel.obj
 0001:00018413       ___acrt_fp_strflt_to_string 10019413 f   libucrt:_fptostr.obj
 0001:00018510       ?divide@__crt_strtox@@YA_KAAUbig_integer@1@ABU21@@Z 10019510 f i libucrt:cfout.obj
 0001:00018998       ___acrt_fltout             10019998 f   libucrt:cfout.obj
 0001:00019ed1       _fegetround                1001aed1 f   libucrt:fegetround.obj
 0001:00019f0a       ?__mbrtowc_utf8@__crt_mbstring@@YAIPA_WPBDIPAU_Mbstatet@@AAV__crt_cached_ptd_host@@@Z 1001af0a f   libucrt:mbrtowc.obj
 0001:00019f4d       ?__mbsrtowcs_utf8@__crt_mbstring@@YAIPA_WPAPBDIPAU_Mbstatet@@AAV__crt_cached_ptd_host@@@Z 1001af4d f   libucrt:mbrtowc.obj
 0001:0001a055       __fcloseall                1001b055 f   libucrt:closeall.obj
 0001:0001a100       ___acrt_stdio_free_buffer_nolock 1001b100 f   libucrt:_freebuf.obj
 0001:0001a140       __isatty                   1001b140 f   libucrt:isatty.obj
 0001:0001a196       ___acrt_lowio_create_handle_array 1001b196 f   libucrt:osfinfo.obj
 0001:0001a211       ___acrt_lowio_destroy_handle_array 1001b211 f   libucrt:osfinfo.obj
 0001:0001a246       ___acrt_lowio_ensure_fh_exists 1001b246 f   libucrt:osfinfo.obj
 0001:0001a2e4       ___acrt_lowio_lock_fh      1001b2e4 f   libucrt:osfinfo.obj
 0001:0001a307       ___acrt_lowio_unlock_fh    1001b307 f   libucrt:osfinfo.obj
 0001:0001a32a       __free_osfhnd              1001b32a f   libucrt:osfinfo.obj
 0001:0001a3bb       __get_osfhandle            1001b3bb f   libucrt:osfinfo.obj
 0001:0001a430       _qsort                     1001b430 f   libucrt:qsort.obj
 0001:0001a9d5       _strncpy_s                 1001b9d5 f   libucrt:strncpy_s.obj
 0001:0001a9e0       _strpbrk                   1001b9e0 f   libucrt:strpbrk.obj
 0001:0001aa20       __mbsdec                   1001ba20 f   libucrt:mbsdec.obj
 0001:0001aa37       __mbsdec_l                 1001ba37 f   libucrt:mbsdec.obj
 0001:0001acb2       ___acrt_LCMapStringA       1001bcb2 f   libucrt:lcmapstringa.obj
 0001:0001adac       __commit                   1001bdac f   libucrt:commit.obj
 0001:0001b5d7       __write_internal           1001c5d7 f   libucrt:write.obj
 0001:0001b6df       __write_nolock             1001c6df f   libucrt:write.obj
 0001:0001b8df       ___ascii_wcsnicmp          1001c8df f   libucrt:wcsnicmp.obj
 0001:0001b92e       __controlfp_s              1001c92e f   libucrt:contrlfp.obj
 0001:0001b98d       _fegetenv                  1001c98d f   libucrt:fegetenv.obj
 0001:0001b9aa       _fesetenv                  1001c9aa f   libucrt:fesetenv.obj
 0001:0001b9f5       _feholdexcept              1001c9f5 f   libucrt:feholdexcept.obj
 0001:0001ba50       __CIlog10                  1001ca50 f   libucrt:log10_impl.obj
 0001:0001ba8b       __CIlog10_default          1001ca8b f   libucrt:log10_impl.obj
 0001:0001ba9f       __log10_default            1001ca9f     libucrt:log10_impl.obj
 0001:0001bb60       _ceil                      1001cb60 f   libucrt:ceil_pentium4.obj
 0001:0001bba0       __ceil_pentium4            1001cba0 f   libucrt:ceil_pentium4.obj
 0001:0001bf46       ___acrt_fenv_get_common_round_control 1001cf46 f   libucrt:_fenvutils.obj
 0001:0001bf68       ___acrt_fenv_get_control   1001cf68 f   libucrt:_fenvutils.obj
 0001:0001bfe8       ___acrt_fenv_get_status    1001cfe8 f   libucrt:_fenvutils.obj
 0001:0001c092       ___acrt_fenv_set_control   1001d092 f   libucrt:_fenvutils.obj
 0001:0001c10d       ___acrt_fenv_set_status    1001d10d f   libucrt:_fenvutils.obj
 0001:0001c207       ?reset_and_return@__crt_mbstring@@YAIIPAU_Mbstatet@@@Z 1001d207 f   libucrt:common_utf8.obj
 0001:0001c21b       ?return_illegal_sequence@__crt_mbstring@@YAIPAU_Mbstatet@@AAV__crt_cached_ptd_host@@@Z 1001d21b f   libucrt:common_utf8.obj
 0001:0001c23d       ?__mbrtoc32_utf8@__crt_mbstring@@YAIPA_UPBDIPAU_Mbstatet@@AAV__crt_cached_ptd_host@@@Z 1001d23d f   libucrt:mbrtoc32.obj
 0001:0001c520       _fclose                    1001d520 f   libucrt:fclose.obj
 0001:0001c5d3       __lseeki64_nolock_internal 1001d5d3 f   libucrt:lseek.obj
 0001:0001c5f1       __query_app_type           1001d5f1 f   libucrt:report_runtime_error.obj
 0001:0001c5f7       ___strncnt                 1001d5f7 f   libucrt:strncnt.obj
 0001:0001c613       __putwch_nolock            1001d613 f   libucrt:putwch.obj
 0001:0001c6ec       __clearfp                  1001d6ec f   libucrt:ieee87.obj
 0001:0001c7ca       __control87                1001d7ca f   libucrt:ieee87.obj
 0001:0001cb69       ___acrt_initialize_sse2    1001db69 f   libucrt:mathfcns.obj
 0001:0001cb80       __CIlog10_pentium4         1001db80 f   libucrt:log10_pentium4.obj
 0001:0001cb98       __log10_pentium4           1001db98     libucrt:log10_pentium4.obj
 0001:0001ce30       __fFEXP                    1001de30 f   libucrt:87tran.obj
 0001:0001ce87       __rtinfpopse               1001de87     libucrt:87tran.obj
 0001:0001ce89       __rtinfnpopse              1001de89     libucrt:87tran.obj
 0001:0001ce99       __fFLN                     1001de99     libucrt:87tran.obj
 0001:0001cf4e       __rtinfpop                 1001df4e     libucrt:87tran.obj
 0001:0001cf50       __rtinfnpop                1001df50     libucrt:87tran.obj
 0001:0001cf60       __rtforexpinf              1001df60 f   libucrt:87tran.obj
 0001:0001cf6d       __ffexpm1                  1001df6d     libucrt:87tran.obj
 0001:0001d020       __trandisp1                1001e020 f   libucrt:87disp.obj
 0001:0001d095       __trandisp2                1001e095 f   libucrt:87disp.obj
 0001:0001d12f       __rttospopde               1001e12f     libucrt:87disp.obj
 0001:0001d134       __rttospop                 1001e134     libucrt:87disp.obj
 0001:0001d140       __rtnospop                 1001e140 f   libucrt:87disp.obj
 0001:0001d150       __rttosnpop                1001e150 f   libucrt:87disp.obj
 0001:0001d151       __rtnospopde               1001e151     libucrt:87disp.obj
 0001:0001d158       __rtzeropop                1001e158     libucrt:87disp.obj
 0001:0001d15a       __rtzeronpop               1001e15a     libucrt:87disp.obj
 0001:0001d160       __rtzerospop               1001e160 f   libucrt:87disp.obj
 0001:0001d16d       __rtonepop                 1001e16d     libucrt:87disp.obj
 0001:0001d170       __rtonenpop                1001e170 f   libucrt:87disp.obj
 0001:0001d180       __tosnan1                  1001e180 f   libucrt:87disp.obj
 0001:0001d1b0       __nosnan2                  1001e1b0 f   libucrt:87disp.obj
 0001:0001d1c0       __tosnan2                  1001e1c0 f   libucrt:87disp.obj
 0001:0001d1f0       __nan2                     1001e1f0 f   libucrt:87disp.obj
 0001:0001d230       __rtindfpop                1001e230 f   libucrt:87disp.obj
 0001:0001d232       __rtindfnpop               1001e232     libucrt:87disp.obj
 0001:0001d243       __rttosnpopde              1001e243     libucrt:87disp.obj
 0001:0001d250       __rtatan2inf               1001e250 f   libucrt:87disp.obj
 0001:0001d26d       __rtchsifneg               1001e26d     libucrt:87disp.obj
 0001:0001d280       __twoToTOS                 1001e280 f   libucrt:common.obj
 0001:0001d295       __load_CW                  1001e295 f   libucrt:common.obj
 0001:0001d2ac       __convertTOStoQNaN         1001e2ac f   libucrt:common.obj
 0001:0001d2c5       __fload_withFB             1001e2c5 f   libucrt:common.obj
 0001:0001d308       __checkTOS_withFB          1001e308 f   libucrt:common.obj
 0001:0001d31e       __fast_exit                1001e31e f   libucrt:common.obj
 0001:0001d32b       __math_exit                1001e32b f   libucrt:common.obj
 0001:0001d355       __check_overflow_exit      1001e355 f   libucrt:common.obj
 0001:0001d369       __check_range_exit         1001e369 f   libucrt:common.obj
 0001:0001d410       __startTwoArgErrorHandling 1001e410 f   libucrt:genexcep.obj
 0001:0001d427       __startOneArgErrorHandling 1001e427 f   libucrt:genexcep.obj
 0001:0001d463       ___libm_error_support      1001e463 f   libucrt:libm_error.obj
 0001:0001d657       __ceil_default             1001e657 f   libucrt:ceil.obj
 0001:0001d79d       __close_internal           1001e79d f   libucrt:close.obj
 0001:0001d840       __close_nolock_internal    1001e840 f   libucrt:close.obj
 0001:0001d8e0       ?__acrt_stdio_free_stream@@YAXV__crt_stdio_stream@@@Z 1001e8e0 f   libucrt:stream.obj
 0001:0001d920       ___ascii_strnicmp          1001e920 f   libucrt:_strnicm.obj
 0001:0001d9a0       ___dcrt_lowio_ensure_console_output_initialized 1001e9a0 f   libucrt:initcon.obj
 0001:0001d9bf       ___dcrt_terminate_console_output 1001e9bf f   libucrt:initcon.obj
 0001:0001d9d6       ___dcrt_write_console      1001e9d6 f   libucrt:initcon.obj
 0001:0001da2b       ___set_fpsr_sse2           1001ea2b f   libucrt:fpctrl.obj
 0001:0001daab       __clrfp                    1001eaab f   libucrt:fpctrl.obj
 0001:0001dabc       __ctrlfp                   1001eabc f   libucrt:fpctrl.obj
 0001:0001dae6       __set_statfp               1001eae6 f   libucrt:fpctrl.obj
 0001:0001db3f       __statfp                   1001eb3f f   libucrt:fpctrl.obj
 0001:0001db4f       __d_inttype                1001eb4f f   libucrt:powhlp.obj
 0001:0001dbb7       __powhlp                   1001ebb7 f   libucrt:powhlp.obj
 0001:0001dce2       __87except                 1001ece2 f   libucrt:87except.obj
 0001:0001ddec       __frnd                     1001edec f   libucrt:frnd.obj
 0001:0001de00       __errcode                  1001ee00 f   libucrt:fpexcept.obj
 0001:0001de34       __except1                  1001ee34 f   libucrt:fpexcept.obj
 0001:0001df02       __handle_exc               1001ef02 f   libucrt:fpexcept.obj
 0001:0001e17b       __raise_exc                1001f17b f   libucrt:fpexcept.obj
 0001:0001e19e       __raise_exc_ex             1001f19e f   libucrt:fpexcept.obj
 0001:0001e494       __set_errno_from_matherr   1001f494 f   libucrt:fpexcept.obj
 0001:0001e4c3       __umatherr                 1001f4c3 f   libucrt:fpexcept.obj
 0001:0001e563       __decomp                   1001f563 f   libucrt:util.obj
 0001:0001e635       __set_exp                  1001f635 f   libucrt:util.obj
 0001:0001e662       __sptype                   1001f662 f   libucrt:util.obj
 0001:0001e6c0       __fpclass                  1001f6c0 f   libucrt:ieeemisc.obj
 0001:0001e770       __FindPESection            1001f770 f   LIBCMT:pesect.obj
 0001:0001e7c0       __IsNonwritableInCurrentImage 1001f7c0 f   LIBCMT:pesect.obj
 0001:0001e880       __ValidateImageBase        1001f880 f   LIBCMT:pesect.obj
 0001:0001e8b1       __EH_epilog3               1001f8b1 f   LIBCMT:ehprolg3.obj
 0001:0001e8c5       __EH_prolog3               1001f8c5 f   LIBCMT:ehprolg3.obj
 0001:0001e8f8       __EH_prolog3_catch         1001f8f8 f   LIBCMT:ehprolg3.obj
 0001:0001e930       __aulldvrm                 1001f930 f   LIBCMT:ulldvrm.obj
 0001:0001e9d0       __allmul                   1001f9d0 f   LIBCMT:llmul.obj
 0001:0001ea10       __alldvrm                  1001fa10 f   LIBCMT:lldvrm.obj
 0001:0001eaf0       __allshl                   1001faf0 f   LIBCMT:llshl.obj
 0001:0001eb10       __aullshr                  1001fb10 f   LIBCMT:ullshr.obj
 0001:0001eb30       __ftol2_sse                1001fb30 f   LIBCMT:ftol2.obj
 0001:0001eb40       __ftoi2                    1001fb40 f   LIBCMT:ftol2.obj
 0001:0001ebc0       _strrchr                   1001fbc0 f   libvcruntime:strrchr.obj
 0001:0001ed00       __filter_x86_sse2_floating_point_exception 1001fd00 f   LIBCMT:x86_exception_filter.obj
 0001:0001ed00       __filter_x86_sse2_floating_point_exception_default 1001fd00 f   LIBCMT:x86_exception_filter.obj
 0002:00000000       __imp__RegQueryValueExW@24 10020000     advapi32:ADVAPI32.dll
 0002:00000004       __imp__RegSetValueExW@24   10020004     advapi32:ADVAPI32.dll
 0002:00000008       __imp__RegQueryInfoKeyW@48 10020008     advapi32:ADVAPI32.dll
 0002:0000000c       __imp__RegOpenKeyExW@20    1002000c     advapi32:ADVAPI32.dll
 0002:00000010       __imp__RegEnumKeyExW@32    10020010     advapi32:ADVAPI32.dll
 0002:00000014       __imp__RegDeleteValueW@8   10020014     advapi32:ADVAPI32.dll
 0002:00000018       __imp__RegDeleteKeyW@8     10020018     advapi32:ADVAPI32.dll
 0002:0000001c       __imp__RegCreateKeyExW@36  1002001c     advapi32:ADVAPI32.dll
 0002:00000020       __imp__RegCloseKey@4       10020020     advapi32:ADVAPI32.dll
 0002:00000024       \177ADVAPI32_NULL_THUNK_DATA 10020024     advapi32:ADVAPI32.dll
 0002:00000028       __imp__GetObjectW@12       10020028     gdi32:GDI32.dll
 0002:0000002c       __imp__SelectObject@8      1002002c     gdi32:GDI32.dll
 0002:00000030       __imp__DeleteObject@4      10020030     gdi32:GDI32.dll
 0002:00000034       __imp__CreateCompatibleDC@4 10020034     gdi32:GDI32.dll
 0002:00000038       __imp__BitBlt@36           10020038     gdi32:GDI32.dll
 0002:0000003c       __imp__SetWindowOrgEx@16   1002003c     gdi32:GDI32.dll
 0002:00000040       __imp__SetWindowExtEx@16   10020040     gdi32:GDI32.dll
 0002:00000044       __imp__SetViewportOrgEx@16 10020044     gdi32:GDI32.dll
 0002:00000048       __imp__LPtoDP@12           10020048     gdi32:GDI32.dll
 0002:0000004c       __imp__SetMapMode@8        1002004c     gdi32:GDI32.dll
 0002:00000050       __imp__SaveDC@4            10020050     gdi32:GDI32.dll
 0002:00000054       __imp__RestoreDC@8         10020054     gdi32:GDI32.dll
 0002:00000058       __imp__GetDeviceCaps@8     10020058     gdi32:GDI32.dll
 0002:0000005c       __imp__DeleteMetaFile@4    1002005c     gdi32:GDI32.dll
 0002:00000060       __imp__DeleteDC@4          10020060     gdi32:GDI32.dll
 0002:00000064       __imp__CreateRectRgnIndirect@4 10020064     gdi32:GDI32.dll
 0002:00000068       __imp__CreateMetaFileW@4   10020068     gdi32:GDI32.dll
 0002:0000006c       __imp__CreateDCW@16        1002006c     gdi32:GDI32.dll
 0002:00000070       __imp__CloseMetaFile@4     10020070     gdi32:GDI32.dll
 0002:00000074       \177GDI32_NULL_THUNK_DATA  10020074     gdi32:GDI32.dll
 0002:00000078       __imp__CloseHandle@4       10020078     kernel32:KERNEL32.dll
 0002:0000007c       __imp__SetEvent@4          1002007c     kernel32:KERNEL32.dll
 0002:00000080       __imp__CreateMutexW@12     10020080     kernel32:KERNEL32.dll
 0002:00000084       __imp__CreateEventW@16     10020084     kernel32:KERNEL32.dll
 0002:00000088       __imp__GetCurrentProcessId@0 10020088     kernel32:KERNEL32.dll
 0002:0000008c       __imp__CreateFileW@28      1002008c     kernel32:KERNEL32.dll
 0002:00000090       __imp__GetConsoleMode@8    10020090     kernel32:KERNEL32.dll
 0002:00000094       __imp__GetConsoleOutputCP@0 10020094     kernel32:KERNEL32.dll
 0002:00000098       __imp__WriteFile@20        10020098     kernel32:KERNEL32.dll
 0002:0000009c       __imp__FlushFileBuffers@4  1002009c     kernel32:KERNEL32.dll
 0002:000000a0       __imp__SetStdHandle@8      100200a0     kernel32:KERNEL32.dll
 0002:000000a4       __imp__SetFilePointerEx@20 100200a4     kernel32:KERNEL32.dll
 0002:000000a8       __imp__GetStringTypeW@16   100200a8     kernel32:KERNEL32.dll
 0002:000000ac       __imp__FreeEnvironmentStringsW@4 100200ac     kernel32:KERNEL32.dll
 0002:000000b0       __imp__GetEnvironmentStringsW@0 100200b0     kernel32:KERNEL32.dll
 0002:000000b4       __imp__lstrcmpiW@8         100200b4     kernel32:KERNEL32.dll
 0002:000000b8       __imp__GetCommandLineA@0   100200b8     kernel32:KERNEL32.dll
 0002:000000bc       __imp__GetCPInfo@8         100200bc     kernel32:KERNEL32.dll
 0002:000000c0       __imp__GetOEMCP@0          100200c0     kernel32:KERNEL32.dll
 0002:000000c4       __imp__GetACP@0            100200c4     kernel32:KERNEL32.dll
 0002:000000c8       __imp__IsValidCodePage@4   100200c8     kernel32:KERNEL32.dll
 0002:000000cc       __imp__FindNextFileW@8     100200cc     kernel32:KERNEL32.dll
 0002:000000d0       __imp__FindFirstFileExW@24 100200d0     kernel32:KERNEL32.dll
 0002:000000d4       __imp__FindClose@4         100200d4     kernel32:KERNEL32.dll
 0002:000000d8       __imp__GetFileType@4       100200d8     kernel32:KERNEL32.dll
 0002:000000dc       __imp__GetStdHandle@4      100200dc     kernel32:KERNEL32.dll
 0002:000000e0       __imp__LCMapStringW@24     100200e0     kernel32:KERNEL32.dll
 0002:000000e4       __imp__HeapReAlloc@16      100200e4     kernel32:KERNEL32.dll
 0002:000000e8       __imp__HeapSize@12         100200e8     kernel32:KERNEL32.dll
 0002:000000ec       __imp__MulDiv@12           100200ec     kernel32:KERNEL32.dll
 0002:000000f0       __imp__GlobalLock@4        100200f0     kernel32:KERNEL32.dll
 0002:000000f4       __imp__GlobalUnlock@4      100200f4     kernel32:KERNEL32.dll
 0002:000000f8       __imp__GlobalAlloc@8       100200f8     kernel32:KERNEL32.dll
 0002:000000fc       __imp__FindResourceW@12    100200fc     kernel32:KERNEL32.dll
 0002:00000100       __imp__SizeofResource@8    10020100     kernel32:KERNEL32.dll
 0002:00000104       __imp__LoadResource@8      10020104     kernel32:KERNEL32.dll
 0002:00000108       __imp__LoadLibraryExW@12   10020108     kernel32:KERNEL32.dll
 0002:0000010c       __imp__GetProcAddress@8    1002010c     kernel32:KERNEL32.dll
 0002:00000110       __imp__GetModuleHandleW@4  10020110     kernel32:KERNEL32.dll
 0002:00000114       __imp__GetModuleFileNameW@12 10020114     kernel32:KERNEL32.dll
 0002:00000118       __imp__FreeLibrary@4       10020118     kernel32:KERNEL32.dll
 0002:0000011c       __imp__DisableThreadLibraryCalls@4 1002011c     kernel32:KERNEL32.dll
 0002:00000120       __imp__GetCurrentThreadId@0 10020120     kernel32:KERNEL32.dll
 0002:00000124       __imp__Sleep@4             10020124     kernel32:KERNEL32.dll
 0002:00000128       __imp__WaitForSingleObject@8 10020128     kernel32:KERNEL32.dll
 0002:0000012c       __imp__ReleaseMutex@4      1002012c     kernel32:KERNEL32.dll
 0002:00000130       __imp__ResetEvent@4        10020130     kernel32:KERNEL32.dll
 0002:00000134       __imp__EnterCriticalSection@4 10020134     kernel32:KERNEL32.dll
 0002:00000138       __imp__LeaveCriticalSection@4 10020138     kernel32:KERNEL32.dll
 0002:0000013c       __imp__SetLastError@4      1002013c     kernel32:KERNEL32.dll
 0002:00000140       __imp__EncodePointer@4     10020140     kernel32:KERNEL32.dll
 0002:00000144       __imp__DeleteCriticalSection@4 10020144     kernel32:KERNEL32.dll
 0002:00000148       __imp__InitializeCriticalSectionEx@12 10020148     kernel32:KERNEL32.dll
 0002:0000014c       __imp__GetLastError@0      1002014c     kernel32:KERNEL32.dll
 0002:00000150       __imp__RaiseException@16   10020150     kernel32:KERNEL32.dll
 0002:00000154       __imp__DecodePointer@4     10020154     kernel32:KERNEL32.dll
 0002:00000158       __imp__WideCharToMultiByte@32 10020158     kernel32:KERNEL32.dll
 0002:0000015c       __imp__GetCommandLineW@0   1002015c     kernel32:KERNEL32.dll
 0002:00000160       __imp__MultiByteToWideChar@24 10020160     kernel32:KERNEL32.dll
 0002:00000164       __imp__WriteConsoleW@20    10020164     kernel32:KERNEL32.dll
 0002:00000168       __imp__GetModuleHandleExW@12 10020168     kernel32:KERNEL32.dll
 0002:0000016c       __imp__ExitProcess@4       1002016c     kernel32:KERNEL32.dll
 0002:00000170       __imp__VirtualQuery@12     10020170     kernel32:KERNEL32.dll
 0002:00000174       __imp__VirtualProtect@16   10020174     kernel32:KERNEL32.dll
 0002:00000178       __imp__GetSystemInfo@4     10020178     kernel32:KERNEL32.dll
 0002:0000017c       __imp__TlsFree@4           1002017c     kernel32:KERNEL32.dll
 0002:00000180       __imp__TlsSetValue@8       10020180     kernel32:KERNEL32.dll
 0002:00000184       __imp__TlsGetValue@4       10020184     kernel32:KERNEL32.dll
 0002:00000188       __imp__TlsAlloc@0          10020188     kernel32:KERNEL32.dll
 0002:0000018c       __imp__InterlockedFlushSList@4 1002018c     kernel32:KERNEL32.dll
 0002:00000190       __imp__RtlUnwind@16        10020190     kernel32:KERNEL32.dll
 0002:00000194       __imp__LoadLibraryExA@12   10020194     kernel32:KERNEL32.dll
 0002:00000198       __imp__VirtualFree@12      10020198     kernel32:KERNEL32.dll
 0002:0000019c       __imp__VirtualAlloc@16     1002019c     kernel32:KERNEL32.dll
 0002:000001a0       __imp__FlushInstructionCache@12 100201a0     kernel32:KERNEL32.dll
 0002:000001a4       __imp__InterlockedPushEntrySList@8 100201a4     kernel32:KERNEL32.dll
 0002:000001a8       __imp__InterlockedPopEntrySList@4 100201a8     kernel32:KERNEL32.dll
 0002:000001ac       __imp__GetProcessHeap@0    100201ac     kernel32:KERNEL32.dll
 0002:000001b0       __imp__HeapFree@12         100201b0     kernel32:KERNEL32.dll
 0002:000001b4       __imp__HeapAlloc@12        100201b4     kernel32:KERNEL32.dll
 0002:000001b8       __imp__OutputDebugStringW@4 100201b8     kernel32:KERNEL32.dll
 0002:000001bc       __imp__InitializeSListHead@4 100201bc     kernel32:KERNEL32.dll
 0002:000001c0       __imp__GetSystemTimeAsFileTime@4 100201c0     kernel32:KERNEL32.dll
 0002:000001c4       __imp__QueryPerformanceCounter@4 100201c4     kernel32:KERNEL32.dll
 0002:000001c8       __imp__GetStartupInfoW@4   100201c8     kernel32:KERNEL32.dll
 0002:000001cc       __imp__IsDebuggerPresent@0 100201cc     kernel32:KERNEL32.dll
 0002:000001d0       __imp__IsProcessorFeaturePresent@4 100201d0     kernel32:KERNEL32.dll
 0002:000001d4       __imp__TerminateProcess@8  100201d4     kernel32:KERNEL32.dll
 0002:000001d8       __imp__GetCurrentProcess@0 100201d8     kernel32:KERNEL32.dll
 0002:000001dc       __imp__SetUnhandledExceptionFilter@4 100201dc     kernel32:KERNEL32.dll
 0002:000001e0       __imp__UnhandledExceptionFilter@4 100201e0     kernel32:KERNEL32.dll
 0002:000001e4       __imp__InitializeCriticalSectionAndSpinCount@8 100201e4     kernel32:KERNEL32.dll
 0002:000001e8       __imp__WaitForSingleObjectEx@12 100201e8     kernel32:KERNEL32.dll
 0002:000001ec       \177KERNEL32_NULL_THUNK_DATA 100201ec     kernel32:KERNEL32.dll
 0002:000001f0       __imp__OleCreatePropertyFrame@44 100201f0     oleaut32:OLEAUT32.dll
 0002:000001f4       __imp__UnRegisterTypeLib@20 100201f4     oleaut32:OLEAUT32.dll
 0002:000001f8       __imp__RegisterTypeLib@12  100201f8     oleaut32:OLEAUT32.dll
 0002:000001fc       __imp__LoadRegTypeLib@20   100201fc     oleaut32:OLEAUT32.dll
 0002:00000200       __imp__LoadTypeLib@8       10020200     oleaut32:OLEAUT32.dll
 0002:00000204       __imp__VarUI4FromStr@16    10020204     oleaut32:OLEAUT32.dll
 0002:00000208       __imp__VariantInit@4       10020208     oleaut32:OLEAUT32.dll
 0002:0000020c       __imp__SysAllocStringByteLen@8 1002020c     oleaut32:OLEAUT32.dll
 0002:00000210       __imp__SysStringByteLen@4  10020210     oleaut32:OLEAUT32.dll
 0002:00000214       __imp__VariantChangeType@16 10020214     oleaut32:OLEAUT32.dll
 0002:00000218       __imp__VariantClear@4      10020218     oleaut32:OLEAUT32.dll
 0002:0000021c       __imp__SysStringLen@4      1002021c     oleaut32:OLEAUT32.dll
 0002:00000220       __imp__SysFreeString@4     10020220     oleaut32:OLEAUT32.dll
 0002:00000224       __imp__SysAllocStringLen@8 10020224     oleaut32:OLEAUT32.dll
 0002:00000228       __imp__SysAllocString@4    10020228     oleaut32:OLEAUT32.dll
 0002:0000022c       \177OLEAUT32_NULL_THUNK_DATA 1002022c     oleaut32:OLEAUT32.dll
 0002:00000230       __imp__UnregisterClassW@8  10020230     user32:USER32.dll
 0002:00000234       __imp__PostMessageW@16     10020234     user32:USER32.dll
 0002:00000238       __imp__DefWindowProcW@16   10020238     user32:USER32.dll
 0002:0000023c       __imp__CallWindowProcW@20  1002023c     user32:USER32.dll
 0002:00000240       __imp__RegisterClassExW@4  10020240     user32:USER32.dll
 0002:00000244       __imp__GetClassInfoExW@12  10020244     user32:USER32.dll
 0002:00000248       __imp__CreateWindowExW@48  10020248     user32:USER32.dll
 0002:0000024c       __imp__IsWindow@4          1002024c     user32:USER32.dll
 0002:00000250       __imp__IsChild@8           10020250     user32:USER32.dll
 0002:00000254       __imp__DestroyWindow@4     10020254     user32:USER32.dll
 0002:00000258       __imp__ShowWindow@8        10020258     user32:USER32.dll
 0002:0000025c       __imp__SetWindowPos@28     1002025c     user32:USER32.dll
 0002:00000260       __imp__CharNextW@4         10020260     user32:USER32.dll
 0002:00000264       __imp__SetFocus@4          10020264     user32:USER32.dll
 0002:00000268       __imp__LoadBitmapW@8       10020268     user32:USER32.dll
 0002:0000026c       __imp__RegisterClassW@4    1002026c     user32:USER32.dll
 0002:00000270       __imp__PeekMessageW@20     10020270     user32:USER32.dll
 0002:00000274       __imp__LoadCursorW@8       10020274     user32:USER32.dll
 0002:00000278       __imp__GetParent@4         10020278     user32:USER32.dll
 0002:0000027c       __imp__SetWindowLongW@12   1002027c     user32:USER32.dll
 0002:00000280       __imp__GetWindowLongW@8    10020280     user32:USER32.dll
 0002:00000284       __imp__PtInRect@12         10020284     user32:USER32.dll
 0002:00000288       __imp__EqualRect@8         10020288     user32:USER32.dll
 0002:0000028c       __imp__OffsetRect@12       1002028c     user32:USER32.dll
 0002:00000290       __imp__UnionRect@12        10020290     user32:USER32.dll
 0002:00000294       __imp__IntersectRect@12    10020294     user32:USER32.dll
 0002:00000298       __imp__GetClientRect@8     10020298     user32:USER32.dll
 0002:0000029c       __imp__InvalidateRect@12   1002029c     user32:USER32.dll
 0002:000002a0       __imp__SetWindowRgn@12     100202a0     user32:USER32.dll
 0002:000002a4       __imp__EndPaint@8          100202a4     user32:USER32.dll
 0002:000002a8       __imp__BeginPaint@8        100202a8     user32:USER32.dll
 0002:000002ac       __imp__ReleaseDC@8         100202ac     user32:USER32.dll
 0002:000002b0       __imp__GetDC@4             100202b0     user32:USER32.dll
 0002:000002b4       __imp__GetKeyState@4       100202b4     user32:USER32.dll
 0002:000002b8       __imp__GetFocus@0          100202b8     user32:USER32.dll
 0002:000002bc       \177USER32_NULL_THUNK_DATA 100202bc     user32:USER32.dll
 0002:000002c0       __imp__StringFromGUID2@12  100202c0     ole32:ole32.dll
 0002:000002c4       __imp__CoTaskMemAlloc@4    100202c4     ole32:ole32.dll
 0002:000002c8       __imp__CoTaskMemRealloc@8  100202c8     ole32:ole32.dll
 0002:000002cc       __imp__CoTaskMemFree@4     100202cc     ole32:ole32.dll
 0002:000002d0       __imp__ReadClassStm@8      100202d0     ole32:ole32.dll
 0002:000002d4       __imp__WriteClassStm@8     100202d4     ole32:ole32.dll
 0002:000002d8       __imp__CreateDataAdviseHolder@4 100202d8     ole32:ole32.dll
 0002:000002dc       __imp__OleSaveToStream@8   100202dc     ole32:ole32.dll
 0002:000002e0       __imp__CreateOleAdviseHolder@4 100202e0     ole32:ole32.dll
 0002:000002e4       __imp__OleRegGetUserType@12 100202e4     ole32:ole32.dll
 0002:000002e8       __imp__OleRegGetMiscStatus@12 100202e8     ole32:ole32.dll
 0002:000002ec       __imp__OleRegEnumVerbs@8   100202ec     ole32:ole32.dll
 0002:000002f0       __imp__CLSIDFromProgID@8   100202f0     ole32:ole32.dll
 0002:000002f4       __imp__CoCreateInstance@20 100202f4     ole32:ole32.dll
 0002:000002f8       \177ole32_NULL_THUNK_DATA  100202f8     ole32:ole32.dll
 0002:000002fc       ___guard_check_icall_fptr  100202fc     LIBCMT:guard_support.obj
 0002:00000300       ___castguard_check_failure_os_handled_fptr 10020300     LIBCMT:guard_support.obj
 0002:00000304       ___xc_a                    10020304     LIBCMT:initializers.obj
 0002:0000031c       ___xc_z                    1002031c     LIBCMT:initializers.obj
 0002:00000320       ___xi_a                    10020320     LIBCMT:initializers.obj
 0002:00000328       ___acrt_stdio_initializer  10020328     libucrt:stdio_initializer.obj
 0002:0000032c       ___acrt_multibyte_initializer 1002032c     libucrt:multibyte_initializer.obj
 0002:00000330       ___acrt_tran_sse2_initializer 10020330     libucrt:sse2_initializer.obj
 0002:00000334       ___xi_z                    10020334     LIBCMT:initializers.obj
 0002:00000338       ___xl_a                    10020338     LIBCMT:tlssup.obj
 0002:0000033c       ___xl_z                    1002033c     LIBCMT:tlssup.obj
 0002:00000340       ___xp_a                    10020340     LIBCMT:initializers.obj
 0002:00000344       ___acrt_locale_terminator  10020344     libucrt:locale_initializer.obj
 0002:00000348       ___dcrt_console_output_terminator 10020348     libucrt:console_output_initializer.obj
 0002:0000034c       ___acrt_stdio_terminator   1002034c     libucrt:stdio_initializer.obj
 0002:00000350       ___xp_z                    10020350     LIBCMT:initializers.obj
 0002:00000354       ___xt_a                    10020354     LIBCMT:initializers.obj
 0002:00000358       ___xt_z                    10020358     LIBCMT:initializers.obj
 0002:00000360       ??_C@_13HADIAKP@?$AAS@     10020360     OposVariant.obj
 0002:00000364       ??_C@_13LHMFKAAD@?$AAM@    10020364     OposVariant.obj
 0002:00000368       ??_C@_13MKMNOPIJ@?$AAD@    10020368     OposVariant.obj
 0002:0000036c       ??_C@_13OPKGLAFF@?$AAB@    1002036c     OposVariant.obj
 0002:00000370       ??_C@_17LLMMEOJD@?$AAV?$AAa?$AAl@ 10020370     OposVariant.obj
 0002:00000378       ??_C@_1BI@JFAIJMHL@?$AAF?$AAo?$AAr?$AAc?$AAe?$AAR?$AAe?$AAm?$AAo?$AAv?$AAe@ 10020378     OposVariant.obj
 0002:00000390       ??_C@_1BC@GCKHIPE@?$AAN?$AAo?$AAR?$AAe?$AAm?$AAo?$AAv?$AAe@ 10020390     OposVariant.obj
 0002:000003a4       ??_C@_1O@JDLOHAN@?$AAD?$AAe?$AAl?$AAe?$AAt?$AAe@ 100203a4     OposVariant.obj
 0002:000003b4       ??_C@_11LOCGONAA@@         100203b4     OposVariant.obj
 0002:000003b8       __GUID_00020412_0000_0000_c000_000000000046 100203b8     Totals.obj
 0002:000003c8       __GUID_00020401_0000_0000_c000_000000000046 100203c8     Totals.obj
 0002:000003d8       ??_7?$CComObject@V?$CComEnum@UIEnumConnections@@$1?_GUID_b196b287_bab4_101a_b69c_00aa00341d07@@3U__s_GUID@@BUtagCONNECTDATA@@V?$_Copy@UtagCONNECTDATA@@@ATL@@VCComSingleThreadModel@6@@ATL@@@ATL@@6B@ 100203d8     Totals.obj
 0002:000003f8       __GUID_55980ba0_35aa_11cf_b671_00aa004cd6d8 100203f8     Totals.obj
 0002:00000408       __GUID_b196b28b_bab4_101a_b69c_00aa00341d07 10020408     Totals.obj
 0002:00000418       ?_entries@?1??_GetEntries@?$CComEnum@UIEnumConnections@@$1?_GUID_b196b287_bab4_101a_b69c_00aa00341d07@@3U__s_GUID@@BUtagCONNECTDATA@@V?$_Copy@UtagCONNECTDATA@@@ATL@@VCComSingleThreadModel@6@@ATL@@SGPBU_ATL_INTMAP_ENTRY@3@XZ@4QBU43@B 10020418     Totals.obj
 0002:00000430       ??_7CComClassFactory@ATL@@6B@ 10020430     Totals.obj
 0002:00000448       ?_entries@?1??_GetEntries@CComClassFactory@ATL@@SGPBU_ATL_INTMAP_ENTRY@3@XZ@4QBU43@B 10020448     Totals.obj
 0002:00000460       __GUID_00000001_0000_0000_c000_000000000046 10020460     Totals.obj
 0002:00000470       _IID_IOPOSTotals_1_5       10020470     Totals.obj
 0002:00000480       ??_C@_1BK@BIGILECK@?$AAA?$AAd?$AAv?$AAa?$AAp?$AAi?$AA3?$AA2?$AA?4?$AAd?$AAl?$AAl@ 10020480     Totals.obj
 0002:0000049c       ??_C@_0BI@MNCFCPFK@RegCreateKeyTransactedW@ 1002049c     Totals.obj
 0002:000004b4       _IID_IOPOSTotals_1_8       100204b4     Totals.obj
 0002:000004c4       _IID_IOPOSTotals_1_9       100204c4     Totals.obj
 0002:000004d4       _IID_IOPOSTotals           100204d4     Totals.obj
 0002:000004e4       _LIBID_OposTotals_CCO      100204e4     Totals.obj
 0002:000004f4       _DIID__IOPOSTotalsEvents   100204f4     Totals.obj
 0002:00000504       __GUID_b196b287_bab4_101a_b69c_00aa00341d07 10020504     Totals.obj
 0002:00000514       _CLSID_OPOSTotals          10020514     Totals.obj
 0002:00000524       __GUID_b196b285_bab4_101a_b69c_00aa00341d07 10020524     Totals.obj
 0002:00000534       __GUID_00000114_0000_0000_c000_000000000046 10020534     Totals.obj
 0002:00000544       __GUID_a6bc3ac0_dbaa_11ce_9de3_00aa004bb851 10020544     Totals.obj
 0002:00000554       __GUID_0000010c_0000_0000_c000_000000000046 10020554     Totals.obj
 0002:00000564       __GUID_00000146_0000_0000_c000_000000000046 10020564     Totals.obj
 0002:00000574       ??_7CComModule@ATL@@6B@    10020574     Totals.obj
 0002:0000059c       __GUID_00000000_0000_0000_c000_000000000046 1002059c     Totals.obj
 0002:000005ac       __GUID_00020400_0000_0000_c000_000000000046 100205ac     Totals.obj
 0002:000005c0       ?_entries@?1??_GetEntries@COPOSTotals@@SGPBU_ATL_INTMAP_ENTRY@ATL@@XZ@4QBU34@B 100205c0     Totals.obj
 0002:000006f8       __GUID_cf51ed10_62fe_11cf_bf86_00a0c9034836 100206f8     Totals.obj
 0002:00000708       __GUID_0000010a_0000_0000_c000_000000000046 10020708     Totals.obj
 0002:00000718       __GUID_b196b283_bab4_101a_b69c_00aa00341d07 10020718     Totals.obj
 0002:00000728       __GUID_cb5bdc81_93c1_11cf_8f20_00805f2cd064 10020728     Totals.obj
 0002:00000738       ?pPropMap@?1??GetPropertyMap@COPOSTotals@@SAPBUATL_PROPMAP_ENTRY@ATL@@XZ@4QBU34@B 10020738     Totals.obj
 0002:000007a4       ??_C@_17DGDADEHL@?$AA_?$AAc?$AAx@ 100207a4     Totals.obj
 0002:000007ac       ??_C@_17IOIMFDBO@?$AA_?$AAc?$AAy@ 100207ac     Totals.obj
 0002:000007b4       __GUID_922eada0_3424_11cf_b670_00aa004cd6d8 100207b4     Totals.obj
 0002:000007c4       __GUID_9c2cad80_3424_11cf_b670_00aa004cd6d8 100207c4     Totals.obj
 0002:000007d4       __GUID_00000119_0000_0000_c000_000000000046 100207d4     Totals.obj
 0002:000007e4       __GUID_b196b289_bab4_101a_b69c_00aa00341d07 100207e4     Totals.obj
 0002:000007f4       ??_7?$CComObjectCached@VCComClassFactory@ATL@@@ATL@@6B@ 100207f4     Totals.obj
 0002:0000080c       ??_C@_1CE@PGFMOFKI@?$AAS?$AAt?$AAa?$AAt?$AAu?$AAs?$AAU?$AAp?$AAd?$AAa?$AAt?$AAe?$AAE?$AAv?$AAe@ 1002080c     Totals.obj
 0002:00000830       ??_C@_1BM@CBGEBBBJ@?$AAD?$AAi?$AAr?$AAe?$AAc?$AAt?$AAI?$AAO?$AAE?$AAv?$AAe?$AAn?$AAt@ 10020830     Totals.obj
 0002:0000084c       __GUID_b196b286_bab4_101a_b69c_00aa00341d07 1002084c     Totals.obj
 0002:0000085c       __GUID_00000117_0000_0000_c000_000000000046 1002085c     Totals.obj
 0002:0000086c       ??_C@_1BC@ENICKDH@?$AAC?$AAo?$AAn?$AAt?$AAe?$AAn?$AAt?$AAs@ 1002086c     Totals.obj
 0002:00000880       ??_7?$CComObject@V?$CComEnum@UIEnumConnectionPoints@@$1?_GUID_b196b285_bab4_101a_b69c_00aa00341d07@@3U__s_GUID@@BPAUIConnectionPoint@@V?$_CopyInterface@UIConnectionPoint@@@ATL@@VCComSingleThreadModel@6@@ATL@@@ATL@@6B@ 10020880     Totals.obj
 0002:000008a0       ??_C@_1M@KANJNLFF@?$AAC?$AAL?$AAS?$AAI?$AAD@ 100208a0     Totals.obj
 0002:000008ac       ??_C@_1M@EJNEECMJ@?$AAA?$AAp?$AAp?$AAI?$AAD@ 100208ac     Totals.obj
 0002:000008b8       ?rgszNeverDelete@CRegParser@ATL@@1QBQB_WB 100208b8     Totals.obj
 0002:000008e8       ??_7CRegObject@ATL@@6B@    100208e8     Totals.obj
 0002:00000900       __GUID_0000010e_0000_0000_c000_000000000046 10020900     Totals.obj
 0002:00000910       __GUID_b196b288_bab4_101a_b69c_00aa00341d07 10020910     Totals.obj
 0002:00000920       ??_C@_1CK@OEKPKBNA@?$AAC?$AAo?$AAm?$AAp?$AAo?$AAn?$AAe?$AAn?$AAt?$AA?5?$AAC?$AAa?$AAt?$AAe?$AAg@ 10020920     Totals.obj
 0002:0000094c       ??_C@_1BC@NKMMNMGL@?$AAF?$AAi?$AAl?$AAe?$AAT?$AAy?$AAp?$AAe@ 1002094c     Totals.obj
 0002:00000960       ??_C@_1BE@EKPAFMCP@?$AAI?$AAn?$AAt?$AAe?$AAr?$AAf?$AAa?$AAc?$AAe@ 10020960     Totals.obj
 0002:00000974       ??_C@_1BC@MAICEHGI@?$AAH?$AAa?$AAr?$AAd?$AAw?$AAa?$AAr?$AAe@ 10020974     Totals.obj
 0002:00000988       ??_C@_19HLLLM@?$AAM?$AAi?$AAm?$AAe@ 10020988     Totals.obj
 0002:00000994       ??_C@_17OMAOINJK@?$AAS?$AAA?$AAM@ 10020994     Totals.obj
 0002:0000099c       ??_C@_1BC@IBECJAAI@?$AAS?$AAE?$AAC?$AAU?$AAR?$AAI?$AAT?$AAY@ 1002099c     Totals.obj
 0002:000009b0       ??_C@_1O@GBFINDKL@?$AAS?$AAY?$AAS?$AAT?$AAE?$AAM@ 100209b0     Totals.obj
 0002:000009c0       ??_C@_1BC@EAHCMADO@?$AAS?$AAo?$AAf?$AAt?$AAw?$AAa?$AAr?$AAe@ 100209c0     Totals.obj
 0002:000009d4       ??_C@_1BA@JIHHIEDE@?$AAT?$AAy?$AAp?$AAe?$AAL?$AAi?$AAb@ 100209d4     Totals.obj
 0002:000009e8       ?map@?1??HKeyFromString@CRegParser@ATL@@KAPAUHKEY__@@PA_W@Z@4QBUkeymap@?1??123@KAPAU4@0@Z@B 100209e8     Totals.obj
 0002:00000a58       ??_C@_19NCHLBIN@?$AAH?$AAK?$AAC?$AAR@ 10020a58     Totals.obj
 0002:00000a64       ??_C@_19JAPAIJDE@?$AAH?$AAK?$AAC?$AAU@ 10020a64     Totals.obj
 0002:00000a70       ??_C@_19PEALEEJB@?$AAH?$AAK?$AAL?$AAM@ 10020a70     Totals.obj
 0002:00000a7c       ??_C@_17PJOJPMPB@?$AAH?$AAK?$AAU@ 10020a7c     Totals.obj
 0002:00000a84       ??_C@_19PNBHMJPL@?$AAH?$AAK?$AAP?$AAD@ 10020a84     Totals.obj
 0002:00000a90       ??_C@_19GFFAIJHG@?$AAH?$AAK?$AAD?$AAD@ 10020a90     Totals.obj
 0002:00000a9c       ??_C@_19OFICIBHH@?$AAH?$AAK?$AAC?$AAC@ 10020a9c     Totals.obj
 0002:00000aa8       ??_C@_1CE@PACHPJFI@?$AAH?$AAK?$AAE?$AAY?$AA_?$AAC?$AAL?$AAA?$AAS?$AAS?$AAE?$AAS?$AA_?$AAR?$AAO@ 10020aa8     Totals.obj
 0002:00000acc       ??_C@_1CE@HLHNCBPM@?$AAH?$AAK?$AAE?$AAY?$AA_?$AAC?$AAU?$AAR?$AAR?$AAE?$AAN?$AAT?$AA_?$AAU?$AAS@ 10020acc     Totals.obj
 0002:00000af0       ??_C@_1CG@GFBEANJL@?$AAH?$AAK?$AAE?$AAY?$AA_?$AAL?$AAO?$AAC?$AAA?$AAL?$AA_?$AAM?$AAA?$AAC?$AAH@ 10020af0     Totals.obj
 0002:00000b18       ??_C@_1BG@BGODANIO@?$AAH?$AAK?$AAE?$AAY?$AA_?$AAU?$AAS?$AAE?$AAR?$AAS@ 10020b18     Totals.obj
 0002:00000b30       ??_C@_1CM@KHNNAOIC@?$AAH?$AAK?$AAE?$AAY?$AA_?$AAP?$AAE?$AAR?$AAF?$AAO?$AAR?$AAM?$AAA?$AAN?$AAC@ 10020b30     Totals.obj
 0002:00000b5c       ??_C@_1BM@HAGMMHIA@?$AAH?$AAK?$AAE?$AAY?$AA_?$AAD?$AAY?$AAN?$AA_?$AAD?$AAA?$AAT?$AAA@ 10020b5c     Totals.obj
 0002:00000b78       ??_C@_1CI@BBJOACGG@?$AAH?$AAK?$AAE?$AAY?$AA_?$AAC?$AAU?$AAR?$AAR?$AAE?$AAN?$AAT?$AA_?$AAC?$AAO@ 10020b78     Totals.obj
 0002:00000ba0       __GUID_00000113_0000_0000_c000_000000000046 10020ba0     Totals.obj
 0002:00000bb0       __GUID_00000109_0000_0000_c000_000000000046 10020bb0     Totals.obj
 0002:00000bc0       __GUID_7fd52380_4e07_101b_ae2d_08002b2ec713 10020bc0     Totals.obj
 0002:00000bd0       __GUID_1c2056cc_5ef4_101b_8bc8_00aa003e3b29 10020bd0     Totals.obj
 0002:00000be0       ??_C@_1EA@NHKLICFA@?$AAH?$AAK?$AAC?$AAU?$AA?$AN?$AA?6?$AA?$HL?$AA?7?$AAS?$AAo?$AAf?$AAt?$AAw?$AAa?$AAr@ 10020be0     Totals.obj
 0002:00000c20       ??_C@_1BE@LJOLIMEM@?$AA?$AN?$AA?6?$AA?7?$AA?$HN?$AA?$AN?$AA?6?$AA?$HN?$AA?$AN?$AA?6@ 10020c20     Totals.obj
 0002:00000c34       __GUID_00000112_0000_0000_c000_000000000046 10020c34     Totals.obj
 0002:00000c44       ??_C@_1O@MNLDABAF@?$AAM?$AAo?$AAd?$AAu?$AAl?$AAe@ 10020c44     Totals.obj
 0002:00000c54       ??_C@_1BG@JBACFMF@?$AAM?$AAo?$AAd?$AAu?$AAl?$AAe?$AA_?$AAR?$AAa?$AAw@ 10020c54     Totals.obj
 0002:00000c6c       ??_C@_1BC@KAILKFFG@?$AAR?$AAE?$AAG?$AAI?$AAS?$AAT?$AAR?$AAY@ 10020c6c     Totals.obj
 0002:00000c80       __GUID_3af24292_0c96_11ce_a0cf_00aa00600ab8 10020c80     Totals.obj
 0002:00000c90       __GUID_00000127_0000_0000_c000_000000000046 10020c90     Totals.obj
 0002:00000ca0       __GUID_0000010d_0000_0000_c000_000000000046 10020ca0     Totals.obj
 0002:00000cb0       ??_C@_1M@PPPPCDEP@?$AAA?$AAP?$AAP?$AAI?$AAD@ 10020cb0     Totals.obj
 0002:00000cbc       ??_7?$CComContainedObject@VCOPOSTotals@@@ATL@@6B?$IDispatchImpl@UIOPOSTotals@@$1?IID_IOPOSTotals@@3U_GUID@@B$1?LIBID_OposTotals_CCO@@3U3@B$00$0A@VCComTypeInfoHolder@ATL@@@1@@ 10020cbc     Totals.obj
 0002:00000ddc       ??_7?$CComContainedObject@VCOPOSTotals@@@ATL@@6BCComControlBase@1@@ 10020ddc     Totals.obj
 0002:00000df0       ??_7?$CComContainedObject@VCOPOSTotals@@@ATL@@6B?$CWindowImpl@VCOPOSTotals@@VCWindow@ATL@@V?$CWinTraits@$0FGAAAAAA@$0A@@3@@1@@ 10020df0     Totals.obj
 0002:00000e00       ??_7?$CComContainedObject@VCOPOSTotals@@@ATL@@6B?$IPersistStreamInitImpl@VCOPOSTotals@@@1@@ 10020e00     Totals.obj
 0002:00000e24       ??_7?$CComContainedObject@VCOPOSTotals@@@ATL@@6B?$IOleControlImpl@VCOPOSTotals@@@1@@ 10020e24     Totals.obj
 0002:00000e40       ??_7?$CComContainedObject@VCOPOSTotals@@@ATL@@6B?$IOleObjectImpl@VCOPOSTotals@@@1@@ 10020e40     Totals.obj
 0002:00000ea0       ??_7?$CComContainedObject@VCOPOSTotals@@@ATL@@6B?$IOleInPlaceActiveObjectImpl@VCOPOSTotals@@@1@@ 10020ea0     Totals.obj
 0002:00000ec8       ??_7?$CComContainedObject@VCOPOSTotals@@@ATL@@6B?$IViewObjectExImpl@VCOPOSTotals@@@1@@ 10020ec8     Totals.obj
 0002:00000f04       ??_7?$CComContainedObject@VCOPOSTotals@@@ATL@@6B?$IOleInPlaceObjectWindowlessImpl@VCOPOSTotals@@@1@@ 10020f04     Totals.obj
 0002:00000f30       ??_7?$CComContainedObject@VCOPOSTotals@@@ATL@@6B?$IConnectionPointContainerImpl@VCOPOSTotals@@@1@@ 10020f30     Totals.obj
 0002:00000f44       ??_7?$CComContainedObject@VCOPOSTotals@@@ATL@@6B?$IPersistStorageImpl@VCOPOSTotals@@@1@@ 10020f44     Totals.obj
 0002:00000f6c       ??_7?$CComContainedObject@VCOPOSTotals@@@ATL@@6B?$ISpecifyPropertyPagesImpl@VCOPOSTotals@@@1@@ 10020f6c     Totals.obj
 0002:00000f7c       ??_7?$CComContainedObject@VCOPOSTotals@@@ATL@@6B?$IQuickActivateImpl@VCOPOSTotals@@@1@@ 10020f7c     Totals.obj
 0002:00000f94       ??_7?$CComContainedObject@VCOPOSTotals@@@ATL@@6B?$IDataObjectImpl@VCOPOSTotals@@@1@@ 10020f94     Totals.obj
 0002:00000fc4       ??_7?$CComContainedObject@VCOPOSTotals@@@ATL@@6B?$IProvideClassInfo2Impl@$1?CLSID_OPOSTotals@@3U_GUID@@B$1?DIID__IOPOSTotalsEvents@@3U2@B$1?LIBID_OposTotals_CCO@@3U2@B$00$0A@VCComTypeInfoHolder@ATL@@@1@@ 10020fc4     Totals.obj
 0002:00000fd8       ??_7?$CComContainedObject@VCOPOSTotals@@@ATL@@6B?$IObjectSafetyImpl@VCOPOSTotals@@$02@1@@ 10020fd8     Totals.obj
 0002:00000ff0       ??_7?$CComContainedObject@VCOPOSTotals@@@ATL@@6B?$IPropertyNotifySinkCP@VCOPOSTotals@@VCComDynamicUnkArray@ATL@@@1@@ 10020ff0     Totals.obj
 0002:00001010       ??_7?$CComContainedObject@VCOPOSTotals@@@ATL@@6B?$CProxy_IOPOSEvents@VCOPOSTotals@@@@@ 10021010     Totals.obj
 0002:00001030       ??_7?$CComAggObject@VCOPOSTotals@@@ATL@@6B@ 10021030     Totals.obj
 0002:00001040       ??_7?$CComObject@VCOPOSTotals@@@ATL@@6B?$IDispatchImpl@UIOPOSTotals@@$1?IID_IOPOSTotals@@3U_GUID@@B$1?LIBID_OposTotals_CCO@@3U3@B$00$0A@VCComTypeInfoHolder@ATL@@@1@@ 10021040     Totals.obj
 0002:00001160       ??_7?$CComObject@VCOPOSTotals@@@ATL@@6BCComControlBase@1@@ 10021160     Totals.obj
 0002:00001174       ??_7?$CComObject@VCOPOSTotals@@@ATL@@6B?$CWindowImpl@VCOPOSTotals@@VCWindow@ATL@@V?$CWinTraits@$0FGAAAAAA@$0A@@3@@1@@ 10021174     Totals.obj
 0002:00001184       ??_7?$CComObject@VCOPOSTotals@@@ATL@@6B?$IPersistStreamInitImpl@VCOPOSTotals@@@1@@ 10021184     Totals.obj
 0002:000011a8       ??_7?$CComObject@VCOPOSTotals@@@ATL@@6B?$IOleControlImpl@VCOPOSTotals@@@1@@ 100211a8     Totals.obj
 0002:000011c4       ??_7?$CComObject@VCOPOSTotals@@@ATL@@6B?$IOleObjectImpl@VCOPOSTotals@@@1@@ 100211c4     Totals.obj
 0002:00001224       ??_7?$CComObject@VCOPOSTotals@@@ATL@@6B?$IOleInPlaceActiveObjectImpl@VCOPOSTotals@@@1@@ 10021224     Totals.obj
 0002:0000124c       ??_7?$CComObject@VCOPOSTotals@@@ATL@@6B?$IViewObjectExImpl@VCOPOSTotals@@@1@@ 1002124c     Totals.obj
 0002:00001288       ??_7?$CComObject@VCOPOSTotals@@@ATL@@6B?$IOleInPlaceObjectWindowlessImpl@VCOPOSTotals@@@1@@ 10021288     Totals.obj
 0002:000012b4       ??_7?$CComObject@VCOPOSTotals@@@ATL@@6B?$IConnectionPointContainerImpl@VCOPOSTotals@@@1@@ 100212b4     Totals.obj
 0002:000012c8       ??_7?$CComObject@VCOPOSTotals@@@ATL@@6B?$IPersistStorageImpl@VCOPOSTotals@@@1@@ 100212c8     Totals.obj
 0002:000012f0       ??_7?$CComObject@VCOPOSTotals@@@ATL@@6B?$ISpecifyPropertyPagesImpl@VCOPOSTotals@@@1@@ 100212f0     Totals.obj
 0002:00001300       ??_7?$CComObject@VCOPOSTotals@@@ATL@@6B?$IQuickActivateImpl@VCOPOSTotals@@@1@@ 10021300     Totals.obj
 0002:00001318       ??_7?$CComObject@VCOPOSTotals@@@ATL@@6B?$IDataObjectImpl@VCOPOSTotals@@@1@@ 10021318     Totals.obj
 0002:00001348       ??_7?$CComObject@VCOPOSTotals@@@ATL@@6B?$IProvideClassInfo2Impl@$1?CLSID_OPOSTotals@@3U_GUID@@B$1?DIID__IOPOSTotalsEvents@@3U2@B$1?LIBID_OposTotals_CCO@@3U2@B$00$0A@VCComTypeInfoHolder@ATL@@@1@@ 10021348     Totals.obj
 0002:0000135c       ??_7?$CComObject@VCOPOSTotals@@@ATL@@6B?$IObjectSafetyImpl@VCOPOSTotals@@$02@1@@ 1002135c     Totals.obj
 0002:00001374       ??_7?$CComObject@VCOPOSTotals@@@ATL@@6B?$IPropertyNotifySinkCP@VCOPOSTotals@@VCComDynamicUnkArray@ATL@@@1@@ 10021374     Totals.obj
 0002:00001394       ??_7?$CComObject@VCOPOSTotals@@@ATL@@6B?$CProxy_IOPOSEvents@VCOPOSTotals@@@@@ 10021394     Totals.obj
 0002:000013b4       ??_C@_1O@GBFKGNEO@?$AAA?$AAT?$AAL?$AA?3?$AA?$CF?$AAp@ 100213b4     Totals.obj
 0002:000013c4       __GUID_b196b284_bab4_101a_b69c_00aa00341d07 100213c4     Totals.obj
 0002:000013d4       ??_C@_1BA@PICGEGJB@?$AAD?$AAI?$AAS?$AAP?$AAL?$AAA?$AAY@ 100213d4     Totals.obj
 0002:000013e4       __GUID_9bfbbc02_eff1_101a_84ed_00aa00341d07 100213e4     Totals.obj
 0002:000013f4       ?_entries@?1??_GetEntries@?$CComEnum@UIEnumConnectionPoints@@$1?_GUID_b196b285_bab4_101a_b69c_00aa00341d07@@3U__s_GUID@@BPAUIConnectionPoint@@V?$_CopyInterface@UIConnectionPoint@@@ATL@@VCComSingleThreadModel@6@@ATL@@SGPBU_ATL_INTMAP_ENTRY@3@XZ@4QBU43@B 100213f4     Totals.obj
 0002:0000140c       ??_C@_0BG@EKFFMJIO@RegOpenKeyTransactedW@ 1002140c     Totals.obj
 0002:00001424       ??_C@_0BI@HAKLOOGP@RegDeleteKeyTransactedW@ 10021424     Totals.obj
 0002:0000143c       ??_C@_0BA@LILAPHGE@RegDeleteKeyExW@ 1002143c     Totals.obj
 0002:0000144c       ??_C@_19ILOCMLCJ@?$AA?4?$AAt?$AAl?$AAb@ 1002144c     Totals.obj
 0002:00001458       __GUID_0002e012_0000_0000_c000_000000000046 10021458     Totals.obj
 0002:00001468       ??_C@_1O@FHBGLCIO@?$AAC?$AAL?$AAS?$AAI?$AAD?$AA?2@ 10021468     Totals.obj
 0002:00001478       ??_C@_1CK@IFBKBFAA@?$AA?2?$AAR?$AAe?$AAq?$AAu?$AAi?$AAr?$AAe?$AAd?$AA?5?$AAC?$AAa?$AAt?$AAe?$AAg@ 10021478     Totals.obj
 0002:000014a4       ??_C@_1DA@BIHALFED@?$AA?2?$AAI?$AAm?$AAp?$AAl?$AAe?$AAm?$AAe?$AAn?$AAt?$AAe?$AAd?$AA?5?$AAC?$AAa@ 100214a4     Totals.obj
 0002:000014d4       ??_C@_1BK@EDKOLFBJ@?$AAO?$AAL?$AAE?$AAA?$AAU?$AAT?$AA3?$AA2?$AA?4?$AAD?$AAL?$AAL@ 100214d4     Totals.obj
 0002:000014f0       ??_C@_0BJ@CNLFOMHB@UnRegisterTypeLibForUser@ 100214f0     Totals.obj
 0002:0000150c       ??_C@_0BH@LBOMMKPJ@RegisterTypeLibForUser@ 1002150c     Totals.obj
 0002:00001524       ??_C@_0P@MMNMMLGK@COFreezeEvents@ 10021524     TotalsImpl.obj
 0002:00001534       ??_C@_0BC@OGCGGIMP@GetPropertyNumber@ 10021534     TotalsImpl.obj
 0002:00001548       ??_C@_0BC@MDCNODNB@SetPropertyNumber@ 10021548     TotalsImpl.obj
 0002:0000155c       ??_C@_0BC@CFCCMIMD@GetPropertyString@ 1002155c     TotalsImpl.obj
 0002:00001570       ??_C@_0BC@CJEDNN@SetPropertyString@ 10021570     TotalsImpl.obj
 0002:00001584       ??_C@_0M@LNPKKKDA@OpenService@ 10021584     TotalsImpl.obj
 0002:00001590       ??_C@_0M@PCMCHHMH@CheckHealth@ 10021590     TotalsImpl.obj
 0002:0000159c       ??_C@_0M@JGMIDNEK@ClaimDevice@ 1002159c     TotalsImpl.obj
 0002:000015a8       ??_C@_0N@DDFIIBMP@CloseService@ 100215a8     TotalsImpl.obj
 0002:000015b8       ??_C@_08EEIHICPC@DirectIO@ 100215b8     TotalsImpl.obj
 0002:000015c4       ??_C@_0O@BCPMENMJ@ReleaseDevice@ 100215c4     TotalsImpl.obj
 0002:000015d4       ??_C@_0L@NAHBOEHL@BeginTrans@ 100215d4     TotalsImpl.obj
 0002:000015e0       ??_C@_09KNHAFEML@ClaimFile@ 100215e0     TotalsImpl.obj
 0002:000015ec       ??_C@_0M@IPIBDNMC@CommitTrans@ 100215ec     TotalsImpl.obj
 0002:000015f8       ??_C@_06MIKANEJK@Create@   100215f8     TotalsImpl.obj
 0002:00001600       ??_C@_06JBKGCNBB@Delete@   10021600     TotalsImpl.obj
 0002:00001608       ??_C@_04OLJIFFAL@Find@     10021608     TotalsImpl.obj
 0002:00001610       ??_C@_0M@LPOPDPNH@FindByIndex@ 10021610     TotalsImpl.obj
 0002:0000161c       ??_C@_04DPHCJMMM@Read@     1002161c     TotalsImpl.obj
 0002:00001624       ??_C@_0BK@IAKPCNCB@RecalculateValidationData@ 10021624     TotalsImpl.obj
 0002:00001640       ??_C@_0M@PJOEKLNA@ReleaseFile@ 10021640     TotalsImpl.obj
 0002:0000164c       ??_C@_06HDPNNICN@Rename@   1002164c     TotalsImpl.obj
 0002:00001654       ??_C@_08NDEJKKFI@Rollback@ 10021654     TotalsImpl.obj
 0002:00001660       ??_C@_06IPOICCPK@SetAll@   10021660     TotalsImpl.obj
 0002:00001668       ??_C@_0N@MBAILECK@ValidateData@ 10021668     TotalsImpl.obj
 0002:00001678       ??_C@_05NBPIDCFL@Write@    10021678     TotalsImpl.obj
 0002:00001680       ??_C@_0BA@GFABKEEE@ResetStatistics@ 10021680     TotalsImpl.obj
 0002:00001690       ??_C@_0BD@DPALHJGC@RetrieveStatistics@ 10021690     TotalsImpl.obj
 0002:000016a4       ??_C@_0BB@KOHIKNFC@UpdateStatistics@ 100216a4     TotalsImpl.obj
 0002:000016b8       ??_C@_0BH@PBKBNMGB@CompareFirmwareVersion@ 100216b8     TotalsImpl.obj
 0002:000016d0       ??_C@_0P@FBPDPIPA@UpdateFirmware@ 100216d0     TotalsImpl.obj
 0002:000016e0       ??_7?$CProxy_IOPOSEvents@VCOPOSTotals@@@@6B@ 100216e0     TotalsImpl.obj
 0002:00001700       ??_C@_1BA@IFHENID@?$AA?$FL?$AAE?$AAr?$AAr?$AAo?$AAr?$AA?$FN@ 10021700     TotalsImpl.obj
 0002:00001710       ??_C@_0CN@CIBFDFMD@SOFTWARE?2OLEforRetail?2ServiceOP@ 10021710     TotalsImpl.obj
 0002:00001740       ??_C@_1M@IAIJHCCH@?$AAC?$AAl?$AAo?$AAs?$AAe@ 10021740     TotalsImpl.obj
 0002:0000174c       ??_C@_1M@PCPKGJAH@?$AAC?$AAl?$AAa?$AAi?$AAm@ 1002174c     TotalsImpl.obj
 0002:00001758       ??_C@_1BA@NDFKIOCP@?$AAR?$AAe?$AAl?$AAe?$AAa?$AAs?$AAe@ 10021758     TotalsImpl.obj
 0002:00001768       ??_C@_0L@KIANCCNG@HardTotals@ 10021768     TotalsImpl.obj
 0002:00001774       ??_C@_1BM@IJMNMBPK@?$AAG?$AAe?$AAt?$AAO?$AAp?$AAe?$AAn?$AAR?$AAe?$AAs?$AAu?$AAl?$AAt@ 10021774     TotalsImpl.obj
 0002:00001790       _IID_IDispatch             10021790     uuid:oaidl_i.obj
 0002:000017a0       _IID_IPropertyNotifySink   100217a0     uuid:ocidl_i.obj
 0002:000017b0       _GUID_NULL                 100217b0     uuid:cguid_i.obj
 0002:000017c0       _CLSID_StdGlobalInterfaceTable 100217c0     uuid:cguid_i.obj
 0002:000017d0       _CLSID_StdComponentCategoriesMgr 100217d0     uuid:ieguids.obj
 0002:000017e0       _IID_IUnknown              100217e0     uuid:unknwn_i.obj
 0002:000017f0       ??_C@_1EC@JIJBPKFM@?$AAa?$AAp?$AAi?$AA?9?$AAm?$AAs?$AA?9?$AAw?$AAi?$AAn?$AA?9?$AAc?$AAo?$AAr?$AAe@ 100217f0     LIBCMT:thread_safe_statics.obj
 0002:00001834       ??_C@_1BK@MGMFAEKH@?$AAk?$AAe?$AAr?$AAn?$AAe?$AAl?$AA3?$AA2?$AA?4?$AAd?$AAl?$AAl@ 10021834     LIBCMT:thread_safe_statics.obj
 0002:00001850       ??_C@_0BJ@JEBJOJFJ@SleepConditionVariableCS@ 10021850     LIBCMT:thread_safe_statics.obj
 0002:0000186c       ??_C@_0BJ@PGPPEPCC@WakeAllConditionVariable@ 1002186c     LIBCMT:thread_safe_statics.obj
 0002:00001885       ?nothrow@std@@3Unothrow_t@1@B 10021885     LIBCMT:std_nothrow.obj
 0002:00001890       __pRawDllMain              10021890     LIBCMT:dll_dllmain.obj
 0002:00001890       __pDefaultRawDllMain       10021890     LIBCMT:dll_dllmain.obj
 0002:00001898       ??_7exception@std@@6B@     10021898     LIBCMT:throw_bad_alloc.obj
 0002:000018a0       ??_C@_0BC@EOODALEL@Unknown?5exception@ 100218a0     LIBCMT:throw_bad_alloc.obj
 0002:000018b8       ??_7bad_alloc@std@@6B@     100218b8     LIBCMT:throw_bad_alloc.obj
 0002:000018c0       ??_C@_0P@GHFPNOJB@bad?5allocation@ 100218c0     LIBCMT:throw_bad_alloc.obj
 0002:000018d4       ??_7bad_array_new_length@std@@6B@ 100218d4     LIBCMT:throw_bad_alloc.obj
 0002:000018dc       ??_C@_0BF@KINCDENJ@bad?5array?5new?5length@ 100218dc     LIBCMT:throw_bad_alloc.obj
 0002:000018f8       ??_7type_info@@6B@         100218f8     LIBCMT:std_type_info_static.obj
 0002:000018fc       _GUID_ATLVer110            100218fc     atls:atlbase.obj
 0002:00001910       ??_C@_1IC@ONKHOIDK@?$AAE?$AAR?$AAR?$AAO?$AAR?$AA?5?$AA?3?$AA?5?$AAU?$AAn?$AAa?$AAb?$AAl?$AAe?$AA?5@ 10021910     atls:atlbase.obj
 0002:00001994       ??_C@_0N@FJEPLCIH@atlthunk?4dll@ 10021994     atls:atlthunk.obj
 0002:000019a4       ??_C@_0BG@GAKFHCBM@AtlThunk_AllocateData@ 100219a4     atls:atlthunk.obj
 0002:000019bc       ??_C@_0BC@JKONFIAH@AtlThunk_InitData@ 100219bc     atls:atlthunk.obj
 0002:000019d0       ??_C@_0BE@IAOEELAK@AtlThunk_DataToCode@ 100219d0     atls:atlthunk.obj
 0002:000019e4       ??_C@_0BC@GBGKAIPI@AtlThunk_FreeData@ 100219e4     atls:atlthunk.obj
 0002:000019f8       __pDestructExceptionObject 100219f8     libvcruntime:ehhelpers.obj
 0002:00001a00       ??_7bad_exception@std@@6B@ 10021a00     libvcruntime:frame.obj
 0002:00001a08       ??_C@_0O@DPKOEFFH@bad?5exception@ 10021a08     libvcruntime:frame.obj
 0002:00001da0       ??_C@_08EHJDFFNH@__based?$CI@ 10021da0     libvcruntime:undname.obj
 0002:00001dac       ??_C@_07KOLFKCDI@__cdecl@  10021dac     libvcruntime:undname.obj
 0002:00001db4       ??_C@_08GHMPAG@__pascal@   10021db4     libvcruntime:undname.obj
 0002:00001dc0       ??_C@_09IFJBGAPI@__stdcall@ 10021dc0     libvcruntime:undname.obj
 0002:00001dcc       ??_C@_0L@NPHFGOKO@__thiscall@ 10021dcc     libvcruntime:undname.obj
 0002:00001dd8       ??_C@_0L@JMKHOMEK@__fastcall@ 10021dd8     libvcruntime:undname.obj
 0002:00001de4       ??_C@_0N@BCKKPABJ@__vectorcall@ 10021de4     libvcruntime:undname.obj
 0002:00001df4       ??_C@_09HIJEGCPM@__clrcall@ 10021df4     libvcruntime:undname.obj
 0002:00001e00       ??_C@_06GHPCKEAG@__eabi@   10021e00     libvcruntime:undname.obj
 0002:00001e08       ??_C@_09IOPIDJLG@__swift_1@ 10021e08     libvcruntime:undname.obj
 0002:00001e14       ??_C@_09KFNFGKHF@__swift_2@ 10021e14     libvcruntime:undname.obj
 0002:00001e20       ??_C@_09LMMOFLDE@__swift_3@ 10021e20     libvcruntime:undname.obj
 0002:00001e2c       ??_C@_07JOMMBBKO@__ptr64@  10021e2c     libvcruntime:undname.obj
 0002:00001e34       ??_C@_0L@PILCLIHE@__restrict@ 10021e34     libvcruntime:undname.obj
 0002:00001e40       ??_C@_0M@GFIIJFMG@__unaligned@ 10021e40     libvcruntime:undname.obj
 0002:00001e4c       ??_C@_09DHDLOLLB@restrict?$CI@ 10021e4c     libvcruntime:undname.obj
 0002:00001e56       ??_C@_00CNPNBAHC@@         10021e56     libvcruntime:undname.obj
 0002:00001e58       ??_C@_04NIHEBCM@?5new@     10021e58     libvcruntime:undname.obj
 0002:00001e60       ??_C@_07FPCDHGMM@?5delete@ 10021e60     libvcruntime:undname.obj
 0002:00001e68       ??_C@_01NEMOKFLO@?$DN@     10021e68     libvcruntime:undname.obj
 0002:00001e6c       ??_C@_02GPIOPFAK@?$DO?$DO@ 10021e6c     libvcruntime:undname.obj
 0002:00001e70       ??_C@_02FODMEDOG@?$DM?$DM@ 10021e70     libvcruntime:undname.obj
 0002:00001e74       ??_C@_01DCLJPIOD@?$CB@     10021e74     libvcruntime:undname.obj
 0002:00001e78       ??_C@_02EGOFBIJA@?$DN?$DN@ 10021e78     libvcruntime:undname.obj
 0002:00001e7c       ??_C@_02FDNJECIE@?$CB?$DN@ 10021e7c     libvcruntime:undname.obj
 0002:00001e80       ??_C@_02GPECMEKF@?$FL?$FN@ 10021e80     libvcruntime:undname.obj
 0002:00001e84       ??_C@_08LHJFAFGD@operator@ 10021e84     libvcruntime:undname.obj
 0002:00001e90       ??_C@_02HBOOOICD@?9?$DO@   10021e90     libvcruntime:undname.obj
 0002:00001e94       ??_C@_01NBENCBCI@?$CK@     10021e94     libvcruntime:undname.obj
 0002:00001e98       ??_C@_02ECNGHCIF@?$CL?$CL@ 10021e98     libvcruntime:undname.obj
 0002:00001e9c       ??_C@_02BAABKJLB@?9?9@     10021e9c     libvcruntime:undname.obj
 0002:00001ea0       ??_C@_01JOAMLHOP@?9@       10021ea0     libvcruntime:undname.obj
 0002:00001ea4       ??_C@_01MIFGBAGJ@?$CL@     10021ea4     libvcruntime:undname.obj
 0002:00001ea8       ??_C@_01HNPIGOCE@?$CG@     10021ea8     libvcruntime:undname.obj
 0002:00001eac       ??_C@_03MNHNFDLC@?9?$DO?$CK@ 10021eac     libvcruntime:undname.obj
 0002:00001eb0       ??_C@_01KMDKNFGN@?1@       10021eb0     libvcruntime:undname.obj
 0002:00001eb4       ??_C@_01FGNFDNOH@?$CF@     10021eb4     libvcruntime:undname.obj
 0002:00001eb8       ??_C@_01MNNFJEPP@?$DM@     10021eb8     libvcruntime:undname.obj
 0002:00001ebc       ??_C@_02EHCHHCKH@?$DM?$DN@ 10021ebc     libvcruntime:undname.obj
 0002:00001ec0       ??_C@_01PPODPGHN@?$DO@     10021ec0     libvcruntime:undname.obj
 0002:00001ec4       ??_C@_02EEKDKGMJ@?$DO?$DN@ 10021ec4     libvcruntime:undname.obj
 0002:00001ec8       ??_C@_01IHBHIGKO@?0@       10021ec8     libvcruntime:undname.obj
 0002:00001ecc       ??_C@_02HCKGKOFO@?$CI?$CJ@ 10021ecc     libvcruntime:undname.obj
 0002:00001ed0       ??_C@_01PJKLJHI@?$HO@      10021ed0     libvcruntime:undname.obj
 0002:00001ed4       ??_C@_01JKBOJNNK@?$FO@     10021ed4     libvcruntime:undname.obj
 0002:00001ed8       ??_C@_01DNKMNLPK@?$HM@     10021ed8     libvcruntime:undname.obj
 0002:00001edc       ??_C@_02PPKAJPJL@?$CG?$CG@ 10021edc     libvcruntime:undname.obj
 0002:00001ee0       ??_C@_02NONPIBCD@?$HM?$HM@ 10021ee0     libvcruntime:undname.obj
 0002:00001ee4       ??_C@_02FPIMKNGF@?$CK?$DN@ 10021ee4     libvcruntime:undname.obj
 0002:00001ee8       ??_C@_02FOEOMHFC@?$CL?$DN@ 10021ee8     libvcruntime:undname.obj
 0002:00001eec       ??_C@_02FKMDLLOA@?9?$DN@   10021eec     libvcruntime:undname.obj
 0002:00001ef0       ??_C@_02FJEHGPIO@?1?$DN@   10021ef0     libvcruntime:undname.obj
 0002:00001ef4       ??_C@_02FENAOKFI@?$CF?$DN@ 10021ef4     libvcruntime:undname.obj
 0002:00001ef8       ??_C@_03IKFCCPFF@?$DO?$DO?$DN@ 10021ef8     libvcruntime:undname.obj
 0002:00001efc       ??_C@_03CDNPDDLA@?$DM?$DM?$DN@ 10021efc     libvcruntime:undname.obj
 0002:00001f00       ??_C@_02FGJGFEAB@?$CG?$DN@ 10021f00     libvcruntime:undname.obj
 0002:00001f04       ??_C@_02DHLNPPGH@?$HM?$DN@ 10021f04     libvcruntime:undname.obj
 0002:00001f08       ??_C@_02MHEGNOJ@?$FO?$DN@  10021f08     libvcruntime:undname.obj
 0002:00001f0c       ??_C@_09IFPLHPGF@?$GAvftable?8@ 10021f0c     libvcruntime:undname.obj
 0002:00001f18       ??_C@_09BLBHBJP@?$GAvbtable?8@ 10021f18     libvcruntime:undname.obj
 0002:00001f24       ??_C@_07FEEIOKP@?$GAvcall?8@ 10021f24     libvcruntime:undname.obj
 0002:00001f2c       ??_C@_08LLFFHHDJ@?$GAtypeof?8@ 10021f2c     libvcruntime:undname.obj
 0002:00001f38       ??_C@_0BF@KDPPACIK@?$GAlocal?5static?5guard?8@ 10021f38     libvcruntime:undname.obj
 0002:00001f50       ??_C@_08OBABFOLI@?$GAstring?8@ 10021f50     libvcruntime:undname.obj
 0002:00001f5c       ??_C@_0BD@JDLKDPAB@?$GAvbase?5destructor?8@ 10021f5c     libvcruntime:undname.obj
 0002:00001f70       ??_C@_0BN@DEGPLNFK@?$GAvector?5deleting?5destructor?8@ 10021f70     libvcruntime:undname.obj
 0002:00001f90       ??_C@_0BO@OBMKPJIG@?$GAdefault?5constructor?5closure?8@ 10021f90     libvcruntime:undname.obj
 0002:00001fb0       ??_C@_0BN@IMDCHIKM@?$GAscalar?5deleting?5destructor?8@ 10021fb0     libvcruntime:undname.obj
 0002:00001fd0       ??_C@_0BO@PFGOCPJJ@?$GAvector?5constructor?5iterator?8@ 10021fd0     libvcruntime:undname.obj
 0002:00001ff0       ??_C@_0BN@LFPFMEDL@?$GAvector?5destructor?5iterator?8@ 10021ff0     libvcruntime:undname.obj
 0002:00002010       ??_C@_0CE@IKBNEHA@?$GAvector?5vbase?5constructor?5itera@ 10022010     libvcruntime:undname.obj
 0002:00002034       ??_C@_0BL@NILFHHPC@?$GAvirtual?5displacement?5map?8@ 10022034     libvcruntime:undname.obj
 0002:00002050       ??_C@_0CB@JONCMFFK@?$GAeh?5vector?5constructor?5iterator@ 10022050     libvcruntime:undname.obj
 0002:00002074       ??_C@_0CA@GCEOPDGL@?$GAeh?5vector?5destructor?5iterator?8@ 10022074     libvcruntime:undname.obj
 0002:00002094       ??_C@_0CH@OOJPLCPH@?$GAeh?5vector?5vbase?5constructor?5it@ 10022094     libvcruntime:undname.obj
 0002:000020bc       ??_C@_0BL@LLKPOHJI@?$GAcopy?5constructor?5closure?8@ 100220bc     libvcruntime:undname.obj
 0002:000020d8       ??_C@_0BA@KBCDOMBN@?$GAudt?5returning?8@ 100220d8     libvcruntime:undname.obj
 0002:000020e8       ??_C@_03KLGMFNMG@?$GAEH@   100220e8     libvcruntime:undname.obj
 0002:000020ec       ??_C@_05KHLCHHI@?$GARTTI@  100220ec     libvcruntime:undname.obj
 0002:000020f4       ??_C@_0BA@KKLDJDLB@?$GAlocal?5vftable?8@ 100220f4     libvcruntime:undname.obj
 0002:00002104       ??_C@_0CE@IIHCMGGL@?$GAlocal?5vftable?5constructor?5clos@ 10022104     libvcruntime:undname.obj
 0002:00002128       ??_C@_06FHBGPFGH@?5new?$FL?$FN@ 10022128     libvcruntime:undname.obj
 0002:00002130       ??_C@_09LBNFPBCA@?5delete?$FL?$FN@ 10022130     libvcruntime:undname.obj
 0002:0000213c       ??_C@_0P@HJKNJFNN@?$GAomni?5callsig?8@ 1002213c     libvcruntime:undname.obj
 0002:0000214c       ??_C@_0BL@CNOONJFP@?$GAplacement?5delete?5closure?8@ 1002214c     libvcruntime:undname.obj
 0002:00002168       ??_C@_0BN@CKNJLHMB@?$GAplacement?5delete?$FL?$FN?5closure?8@ 10022168     libvcruntime:undname.obj
 0002:00002188       ??_C@_0CG@CFDHKGGD@?$GAmanaged?5vector?5constructor?5ite@ 10022188     libvcruntime:undname.obj
 0002:000021b0       ??_C@_0CF@IMGKMJNO@?$GAmanaged?5vector?5destructor?5iter@ 100221b0     libvcruntime:undname.obj
 0002:000021d8       ??_C@_0CG@HLDDJMAG@?$GAeh?5vector?5copy?5constructor?5ite@ 100221d8     libvcruntime:undname.obj
 0002:00002200       ??_C@_0CM@FCBBDIGB@?$GAeh?5vector?5vbase?5copy?5construct@ 10022200     libvcruntime:undname.obj
 0002:0000222c       ??_C@_0BL@CLIPGLGB@?$GAdynamic?5initializer?5for?5?8@ 1002222c     libvcruntime:undname.obj
 0002:00002248       ??_C@_0CB@PDBIFEP@?$GAdynamic?5atexit?5destructor?5for?5@ 10022248     libvcruntime:undname.obj
 0002:0000226c       ??_C@_0CD@CGAJBKEJ@?$GAvector?5copy?5constructor?5iterat@ 1002226c     libvcruntime:undname.obj
 0002:00002290       ??_C@_0CJ@GJELGAMM@?$GAvector?5vbase?5copy?5constructor?5@ 10022290     libvcruntime:undname.obj
 0002:000022bc       ??_C@_0CL@FGIJHLCE@?$GAmanaged?5vector?5copy?5constructo@ 100222bc     libvcruntime:undname.obj
 0002:000022e8       ??_C@_0BM@PMGGMLDN@?$GAlocal?5static?5thread?5guard?8@ 100222e8     libvcruntime:undname.obj
 0002:00002304       ??_C@_0N@BDNMDMOL@operator?5?$CC?$CC?5@ 10022304     libvcruntime:undname.obj
 0002:00002314       ??_C@_0BC@GGEBGALA@operator?5co_await@ 10022314     libvcruntime:undname.obj
 0002:00002328       ??_C@_0M@GAAIMMOH@operator?$DM?$DN?$DO@ 10022328     libvcruntime:undname.obj
 0002:00002334       ??_C@_0BC@DAFEJGAK@?5Type?5Descriptor?8@ 10022334     libvcruntime:undname.obj
 0002:00002348       ??_C@_0BM@LDKODKLH@?5Base?5Class?5Descriptor?5at?5?$CI@ 10022348     libvcruntime:undname.obj
 0002:00002364       ??_C@_0BD@LGICGFMM@?5Base?5Class?5Array?8@ 10022364     libvcruntime:undname.obj
 0002:00002378       ??_C@_0BN@MECKDCOJ@?5Class?5Hierarchy?5Descriptor?8@ 10022378     libvcruntime:undname.obj
 0002:00002398       ??_C@_0BK@CFCOFLF@?5Complete?5Object?5Locator?8@ 10022398     libvcruntime:undname.obj
 0002:000023b4       ??_C@_0BG@JNJLAMPM@?$GAanonymous?5namespace?8@ 100223b4     libvcruntime:undname.obj
 0002:000023d8       ??_C@_1DM@KHCHBNEB@?$AAa?$AAp?$AAi?$AA?9?$AAm?$AAs?$AA?9?$AAw?$AAi?$AAn?$AA?9?$AAc?$AAo?$AAr?$AAe@ 100223d8     libvcruntime:winapi_downlevel.obj
 0002:00002414       ??_C@_1DK@LPPGFMPP@?$AAa?$AAp?$AAi?$AA?9?$AAm?$AAs?$AA?9?$AAw?$AAi?$AAn?$AA?9?$AAc?$AAo?$AAr?$AAe@ 10022414     libvcruntime:winapi_downlevel.obj
 0002:00002450       ??_C@_1BC@GDMECMAK@?$AAk?$AAe?$AAr?$AAn?$AAe?$AAl?$AA3?$AA2@ 10022450     libvcruntime:winapi_downlevel.obj
 0002:00002464       ??_C@_1BA@PFFKHIOG@?$AAa?$AAp?$AAi?$AA?9?$AAm?$AAs?$AA?9@ 10022464     libvcruntime:winapi_downlevel.obj
 0002:0000247c       ??_C@_08KNHFBNJ@FlsAlloc@  1002247c     libvcruntime:winapi_downlevel.obj
 0002:00002490       ??_C@_07PEJMOBNF@FlsFree@  10022490     libvcruntime:winapi_downlevel.obj
 0002:000024a0       ??_C@_0M@GDNOONDI@FlsGetValue@ 100224a0     libvcruntime:winapi_downlevel.obj
 0002:000024b4       ??_C@_0M@JCPCPOEF@FlsSetValue@ 100224b4     libvcruntime:winapi_downlevel.obj
 0002:000024c8       ??_C@_0BM@HCFOFFN@InitializeCriticalSectionEx@ 100224c8     libvcruntime:winapi_downlevel.obj
 0002:00002650       ?format_validation_lookup_table_spectre@__crt_stdio_output@@3V?$spectre_mitigated_lookup_table@Ustate_transition_pair@__crt_stdio_output@@$0IA@@1@B 10022650     libucrt:output.obj
 0002:00002750       ??_C@_1O@CEDCILHN@?$AA?$CI?$AAn?$AAu?$AAl?$AAl?$AA?$CJ@ 10022750     libucrt:output.obj
 0002:00002760       ??_C@_06OJHGLDPL@?$CInull?$CJ@ 10022760     libucrt:output.obj
 0002:00002768       ___acrt_exception_action_table 10022768     libucrt:exception_filter.obj
 0002:000027f8       ___acrt_signal_action_table_count 100227f8     libucrt:exception_filter.obj
 0002:000027fc       ___acrt_signal_action_first_fpe_index 100227fc     libucrt:exception_filter.obj
 0002:00002800       ___acrt_signal_action_fpe_count 10022800     libucrt:exception_filter.obj
 0002:00002804       ??_C@_1BI@BGOHAHKC@?$AAm?$AAs?$AAc?$AAo?$AAr?$AAe?$AAe?$AA?4?$AAd?$AAl?$AAl@ 10022804     libucrt:exit.obj
 0002:0000281c       ??_C@_0P@MIGLKIOC@CorExitProcess@ 1002281c     libucrt:exit.obj
 0002:000028b0       ___lc_time_c               100228b0     libucrt:nlsdata.obj
 0002:00002a14       ??_C@_03KOEHGMDN@Sun@      10022a14     libucrt:nlsdata.obj
 0002:00002a18       ??_C@_03PDAGKDH@Mon@       10022a18     libucrt:nlsdata.obj
 0002:00002a1c       ??_C@_03NAGEINEP@Tue@      10022a1c     libucrt:nlsdata.obj
 0002:00002a20       ??_C@_03MHOMLAJA@Wed@      10022a20     libucrt:nlsdata.obj
 0002:00002a24       ??_C@_03IOFIKPDN@Thu@      10022a24     libucrt:nlsdata.obj
 0002:00002a28       ??_C@_03IDIOELNC@Fri@      10022a28     libucrt:nlsdata.obj
 0002:00002a2c       ??_C@_03FEFJNEK@Sat@       10022a2c     libucrt:nlsdata.obj
 0002:00002a30       ??_C@_06OOPIFAJ@Sunday@    10022a30     libucrt:nlsdata.obj
 0002:00002a38       ??_C@_06JLEDEDGH@Monday@   10022a38     libucrt:nlsdata.obj
 0002:00002a40       ??_C@_07BAAGCFCM@Tuesday@  10022a40     libucrt:nlsdata.obj
 0002:00002a48       ??_C@_09DLIGFAKA@Wednesday@ 10022a48     libucrt:nlsdata.obj
 0002:00002a54       ??_C@_08HACCIKIA@Thursday@ 10022a54     libucrt:nlsdata.obj
 0002:00002a60       ??_C@_06JECMNKMI@Friday@   10022a60     libucrt:nlsdata.obj
 0002:00002a68       ??_C@_08INBOOONO@Saturday@ 10022a68     libucrt:nlsdata.obj
 0002:00002a74       ??_C@_03JIHJHPIE@Jan@      10022a74     libucrt:nlsdata.obj
 0002:00002a78       ??_C@_03HJBDCHOM@Feb@      10022a78     libucrt:nlsdata.obj
 0002:00002a7c       ??_C@_03ODNJBKGA@Mar@      10022a7c     libucrt:nlsdata.obj
 0002:00002a80       ??_C@_03LEOLGMJP@Apr@      10022a80     libucrt:nlsdata.obj
 0002:00002a84       ??_C@_03CNMDKL@May@        10022a84     libucrt:nlsdata.obj
 0002:00002a88       ??_C@_03IDFGHECI@Jun@      10022a88     libucrt:nlsdata.obj
 0002:00002a8c       ??_C@_03LBGABGKK@Jul@      10022a8c     libucrt:nlsdata.obj
 0002:00002a90       ??_C@_03IFJFEIGA@Aug@      10022a90     libucrt:nlsdata.obj
 0002:00002a94       ??_C@_03GGCAPAJC@Sep@      10022a94     libucrt:nlsdata.obj
 0002:00002a98       ??_C@_03BMAOKBAD@Oct@      10022a98     libucrt:nlsdata.obj
 0002:00002a9c       ??_C@_03JPJOFNIA@Nov@      10022a9c     libucrt:nlsdata.obj
 0002:00002aa0       ??_C@_03MKABNOCG@Dec@      10022aa0     libucrt:nlsdata.obj
 0002:00002aa4       ??_C@_07CGJPFGJA@January@  10022aa4     libucrt:nlsdata.obj
 0002:00002aac       ??_C@_08GNJGEPFN@February@ 10022aac     libucrt:nlsdata.obj
 0002:00002ab8       ??_C@_05HPCKOFNC@March@    10022ab8     libucrt:nlsdata.obj
 0002:00002ac0       ??_C@_05DMJDNLEJ@April@    10022ac0     libucrt:nlsdata.obj
 0002:00002ac8       ??_C@_04CNLMGBGM@June@     10022ac8     libucrt:nlsdata.obj
 0002:00002ad0       ??_C@_04MIEPOIFP@July@     10022ad0     libucrt:nlsdata.obj
 0002:00002ad8       ??_C@_06LBBHFDDG@August@   10022ad8     libucrt:nlsdata.obj
 0002:00002ae0       ??_C@_09BHHEALKD@September@ 10022ae0     libucrt:nlsdata.obj
 0002:00002aec       ??_C@_07JJNFCEND@October@  10022aec     libucrt:nlsdata.obj
 0002:00002af4       ??_C@_08HCHEGEOA@November@ 10022af4     libucrt:nlsdata.obj
 0002:00002b00       ??_C@_08EDHMEBNP@December@ 10022b00     libucrt:nlsdata.obj
 0002:00002b0c       ??_C@_02DEDBPAFC@AM@       10022b0c     libucrt:nlsdata.obj
 0002:00002b10       ??_C@_02CJNFDJBF@PM@       10022b10     libucrt:nlsdata.obj
 0002:00002b14       ??_C@_08BPBNCDIB@MM?1dd?1yy@ 10022b14     libucrt:nlsdata.obj
 0002:00002b20       ??_C@_0BE@CKGJFCPC@dddd?0?5MMMM?5dd?0?5yyyy@ 10022b20     libucrt:nlsdata.obj
 0002:00002b34       ??_C@_08JCCMCCIL@HH?3mm?3ss@ 10022b34     libucrt:nlsdata.obj
 0002:00002b40       ??_C@_17MBGCMIPB@?$AAS?$AAu?$AAn@ 10022b40     libucrt:nlsdata.obj
 0002:00002b48       ??_C@_17KBOMKBF@?$AAM?$AAo?$AAn@ 10022b48     libucrt:nlsdata.obj
 0002:00002b50       ??_C@_17BMKGEGOJ@?$AAT?$AAu?$AAe@ 10022b50     libucrt:nlsdata.obj
 0002:00002b58       ??_C@_17CJEDCEPE@?$AAW?$AAe?$AAd@ 10022b58     libucrt:nlsdata.obj
 0002:00002b60       ??_C@_17PDPHAADD@?$AAT?$AAh?$AAu@ 10022b60     libucrt:nlsdata.obj
 0002:00002b68       ??_C@_17HFOLPPLP@?$AAF?$AAr?$AAi@ 10022b68     libucrt:nlsdata.obj
 0002:00002b70       ??_C@_17GGIBDPIH@?$AAS?$AAa?$AAt@ 10022b70     libucrt:nlsdata.obj
 0002:00002b78       ??_C@_1O@IHNHDHPB@?$AAS?$AAu?$AAn?$AAd?$AAa?$AAy@ 10022b78     libucrt:nlsdata.obj
 0002:00002b88       ??_C@_1O@MMNBFLIA@?$AAM?$AAo?$AAn?$AAd?$AAa?$AAy@ 10022b88     libucrt:nlsdata.obj
 0002:00002b98       ??_C@_1BA@ENFBFFEK@?$AAT?$AAu?$AAe?$AAs?$AAd?$AAa?$AAy@ 10022b98     libucrt:nlsdata.obj
 0002:00002ba8       ??_C@_1BE@EBOGMDOH@?$AAW?$AAe?$AAd?$AAn?$AAe?$AAs?$AAd?$AAa?$AAy@ 10022ba8     libucrt:nlsdata.obj
 0002:00002bbc       ??_C@_1BC@HHMNLIHE@?$AAT?$AAh?$AAu?$AAr?$AAs?$AAd?$AAa?$AAy@ 10022bbc     libucrt:nlsdata.obj
 0002:00002bd0       ??_C@_1O@PDICJHAG@?$AAF?$AAr?$AAi?$AAd?$AAa?$AAy@ 10022bd0     libucrt:nlsdata.obj
 0002:00002be0       ??_C@_1BC@ENMNNPAJ@?$AAS?$AAa?$AAt?$AAu?$AAr?$AAd?$AAa?$AAy@ 10022be0     libucrt:nlsdata.obj
 0002:00002bf4       ??_C@_17DKNBKCHM@?$AAJ?$AAa?$AAn@ 10022bf4     libucrt:nlsdata.obj
 0002:00002bfc       ??_C@_17LMDJEKJN@?$AAF?$AAe?$AAb@ 10022bfc     libucrt:nlsdata.obj
 0002:00002c04       ??_C@_17CKNLEDEC@?$AAM?$AAa?$AAr@ 10022c04     libucrt:nlsdata.obj
 0002:00002c0c       ??_C@_17LFPOIHDD@?$AAA?$AAp?$AAr@ 10022c0c     libucrt:nlsdata.obj
 0002:00002c14       ??_C@_17PNNKMEED@?$AAM?$AAa?$AAy@ 10022c14     libucrt:nlsdata.obj
 0002:00002c1c       ??_C@_17KCJGOCPB@?$AAJ?$AAu?$AAn@ 10022c1c     libucrt:nlsdata.obj
 0002:00002c24       ??_C@_17IJPCKHK@?$AAJ?$AAu?$AAl@ 10022c24     libucrt:nlsdata.obj
 0002:00002c2c       ??_C@_17ICPELBCN@?$AAA?$AAu?$AAg@ 10022c2c     libucrt:nlsdata.obj
 0002:00002c34       ??_C@_17HCHCOKMG@?$AAS?$AAe?$AAp@ 10022c34     libucrt:nlsdata.obj
 0002:00002c3c       ??_C@_17FNLKOI@?$AAO?$AAc?$AAt@ 10022c3c     libucrt:nlsdata.obj
 0002:00002c44       ??_C@_17BBDMLCIG@?$AAN?$AAo?$AAv@ 10022c44     libucrt:nlsdata.obj
 0002:00002c4c       ??_C@_17EGKACKIF@?$AAD?$AAe?$AAc@ 10022c4c     libucrt:nlsdata.obj
 0002:00002c54       ??_C@_1BA@EFMEIEBA@?$AAJ?$AAa?$AAn?$AAu?$AAa?$AAr?$AAy@ 10022c54     libucrt:nlsdata.obj
 0002:00002c64       ??_C@_1BC@JGDDFFAM@?$AAF?$AAe?$AAb?$AAr?$AAu?$AAa?$AAr?$AAy@ 10022c64     libucrt:nlsdata.obj
 0002:00002c78       ??_C@_1M@IKEENEDF@?$AAM?$AAa?$AAr?$AAc?$AAh@ 10022c78     libucrt:nlsdata.obj
 0002:00002c84       ??_C@_1M@GJNLMHFD@?$AAA?$AAp?$AAr?$AAi?$AAl@ 10022c84     libucrt:nlsdata.obj
 0002:00002c90       ??_C@_19EPFLPGAP@?$AAJ?$AAu?$AAn?$AAe@ 10022c90     libucrt:nlsdata.obj
 0002:00002c9c       ??_C@_19BIFMLPCD@?$AAJ?$AAu?$AAl?$AAy@ 10022c9c     libucrt:nlsdata.obj
 0002:00002ca8       ??_C@_1O@PAHLKOAC@?$AAA?$AAu?$AAg?$AAu?$AAs?$AAt@ 10022ca8     libucrt:nlsdata.obj
 0002:00002cb8       ??_C@_1BE@DKAAMBJL@?$AAS?$AAe?$AAp?$AAt?$AAe?$AAm?$AAb?$AAe?$AAr@ 10022cb8     libucrt:nlsdata.obj
 0002:00002ccc       ??_C@_1BA@EPANDLNG@?$AAO?$AAc?$AAt?$AAo?$AAb?$AAe?$AAr@ 10022ccc     libucrt:nlsdata.obj
 0002:00002cdc       ??_C@_1BC@BGLIFPF@?$AAN?$AAo?$AAv?$AAe?$AAm?$AAb?$AAe?$AAr@ 10022cdc     libucrt:nlsdata.obj
 0002:00002cf0       ??_C@_1BC@FEMKIFH@?$AAD?$AAe?$AAc?$AAe?$AAm?$AAb?$AAe?$AAr@ 10022cf0     libucrt:nlsdata.obj
 0002:00002d04       ??_C@_15ODEHAHHF@?$AAA?$AAM@ 10022d04     libucrt:nlsdata.obj
 0002:00002d0c       ??_C@_15CLMNNGEL@?$AAP?$AAM@ 10022d0c     libucrt:nlsdata.obj
 0002:00002d14       ??_C@_1BC@IEBCMHCM@?$AAM?$AAM?$AA?1?$AAd?$AAd?$AA?1?$AAy?$AAy@ 10022d14     libucrt:nlsdata.obj
 0002:00002d28       ??_C@_1CI@KNAKOEBC@?$AAd?$AAd?$AAd?$AAd?$AA?0?$AA?5?$AAM?$AAM?$AAM?$AAM?$AA?5?$AAd?$AAd?$AA?0?$AA?5@ 10022d28     libucrt:nlsdata.obj
 0002:00002d50       ??_C@_1BC@GDGBMEMK@?$AAH?$AAH?$AA?3?$AAm?$AAm?$AA?3?$AAs?$AAs@ 10022d50     libucrt:nlsdata.obj
 0002:00002d64       ??_C@_1M@BMHNFIME@?$AAe?$AAn?$AA?9?$AAU?$AAS@ 10022d64     libucrt:nlsdata.obj
 0002:00002dc0       ??_C@_1EA@JGEFHKEI@?$AAa?$AAp?$AAi?$AA?9?$AAm?$AAs?$AA?9?$AAw?$AAi?$AAn?$AA?9?$AAc?$AAo?$AAr?$AAe@ 10022dc0     libucrt:winapi_thunks.obj
 0002:00002e00       ??_C@_1DI@IJCEHOCB@?$AAa?$AAp?$AAi?$AA?9?$AAm?$AAs?$AA?9?$AAw?$AAi?$AAn?$AA?9?$AAc?$AAo?$AAr?$AAe@ 10022e00     libucrt:winapi_thunks.obj
 0002:00002e38       ??_C@_1EI@MPIAOHOC@?$AAa?$AAp?$AAi?$AA?9?$AAm?$AAs?$AA?9?$AAw?$AAi?$AAn?$AA?9?$AAc?$AAo?$AAr?$AAe@ 10022e38     libucrt:winapi_thunks.obj
 0002:00002e80       ??_C@_1FK@FPHCKFIE@?$AAa?$AAp?$AAi?$AA?9?$AAm?$AAs?$AA?9?$AAw?$AAi?$AAn?$AA?9?$AAc?$AAo?$AAr?$AAe@ 10022e80     libucrt:winapi_thunks.obj
 0002:00002ee0       ??_C@_1EM@DILCGIIO@?$AAa?$AAp?$AAi?$AA?9?$AAm?$AAs?$AA?9?$AAw?$AAi?$AAn?$AA?9?$AAc?$AAo?$AAr?$AAe@ 10022ee0     libucrt:winapi_thunks.obj
 0002:00002f2c       ??_C@_1DM@LNCGDDPN@?$AAa?$AAp?$AAi?$AA?9?$AAm?$AAs?$AA?9?$AAw?$AAi?$AAn?$AA?9?$AAc?$AAo?$AAr?$AAe@ 10022f2c     libucrt:winapi_thunks.obj
 0002:00002f68       ??_C@_1DO@FPAPJEMD@?$AAa?$AAp?$AAi?$AA?9?$AAm?$AAs?$AA?9?$AAw?$AAi?$AAn?$AA?9?$AAc?$AAo?$AAr?$AAe@ 10022f68     libucrt:winapi_thunks.obj
 0002:00002fa8       ??_C@_1DK@NDHNAHIO@?$AAa?$AAp?$AAi?$AA?9?$AAm?$AAs?$AA?9?$AAw?$AAi?$AAn?$AA?9?$AAc?$AAo?$AAr?$AAe@ 10022fa8     libucrt:winapi_thunks.obj
 0002:00002fe4       ??_C@_1DM@KGHDGBCM@?$AAa?$AAp?$AAi?$AA?9?$AAm?$AAs?$AA?9?$AAw?$AAi?$AAn?$AA?9?$AAc?$AAo?$AAr?$AAe@ 10022fe4     libucrt:winapi_thunks.obj
 0002:00003020       ??_C@_1EO@IJIOEFOH@?$AAa?$AAp?$AAi?$AA?9?$AAm?$AAs?$AA?9?$AAw?$AAi?$AAn?$AA?9?$AAr?$AAt?$AAc?$AAo@ 10023020     libucrt:winapi_thunks.obj
 0002:00003070       ??_C@_1FG@HHGEKANL@?$AAa?$AAp?$AAi?$AA?9?$AAm?$AAs?$AA?9?$AAw?$AAi?$AAn?$AA?9?$AAs?$AAe?$AAc?$AAu@ 10023070     libucrt:winapi_thunks.obj
 0002:000030c8       ??_C@_1EG@DBIOJECG@?$AAe?$AAx?$AAt?$AA?9?$AAm?$AAs?$AA?9?$AAw?$AAi?$AAn?$AA?9?$AAn?$AAt?$AAu?$AAs@ 100230c8     libucrt:winapi_thunks.obj
 0002:00003110       ??_C@_1EO@FIHMJCLF@?$AAe?$AAx?$AAt?$AA?9?$AAm?$AAs?$AA?9?$AAw?$AAi?$AAn?$AA?9?$AAn?$AAt?$AAu?$AAs@ 10023110     libucrt:winapi_thunks.obj
 0002:00003160       ??_C@_1BC@DNHGCMLG@?$AAa?$AAd?$AAv?$AAa?$AAp?$AAi?$AA3?$AA2@ 10023160     libucrt:winapi_thunks.obj
 0002:00003174       ??_C@_1M@OAIMIKLP@?$AAn?$AAt?$AAd?$AAl?$AAl@ 10023174     libucrt:winapi_thunks.obj
 0002:00003180       ??_C@_1EG@DPGNFKGC@?$AAa?$AAp?$AAi?$AA?9?$AAm?$AAs?$AA?9?$AAw?$AAi?$AAn?$AA?9?$AAa?$AAp?$AAp?$AAm@ 10023180     libucrt:winapi_thunks.obj
 0002:000031c8       ??_C@_1O@BCCLBEOE@?$AAu?$AAs?$AAe?$AAr?$AA3?$AA2@ 100231c8     libucrt:winapi_thunks.obj
 0002:000031d8       ??_C@_1DM@BPJLHKCE@?$AAa?$AAp?$AAi?$AA?9?$AAm?$AAs?$AA?9?$AAw?$AAi?$AAn?$AA?9?$AAc?$AAo?$AAr?$AAe@ 100231d8     libucrt:winapi_thunks.obj
 0002:00003214       ??_C@_1BA@IAIFMGEF@?$AAe?$AAx?$AAt?$AA?9?$AAm?$AAs?$AA?9@ 10023214     libucrt:winapi_thunks.obj
 0002:00003228       ??_C@_0BA@FHFNEAED@AreFileApisANSI@ 10023228     libucrt:winapi_thunks.obj
 0002:00003248       ??_C@_0O@KKBNKAPF@LCMapStringEx@ 10023248     libucrt:winapi_thunks.obj
 0002:00003260       ??_C@_0BB@HBDEELFH@LocaleNameToLCID@ 10023260     libucrt:winapi_thunks.obj
 0002:00003278       ??_C@_0CF@OJOFEIGO@AppPolicyGetProcessTerminationM@ 10023278     libucrt:winapi_thunks.obj
 0002:000032a8       ??_C@_0BI@BKLFFAPO@SetThreadStackGuarantee@ 100232a8     libucrt:winapi_thunks.obj
 0002:00003320       ??_C@_03OEIAHPBN@INF@      10023320     libucrt:cvt.obj
 0002:00003324       ??_C@_03OJHLLCGB@inf@      10023324     libucrt:cvt.obj
 0002:00003328       ??_C@_03LKNCIKJB@NAN@      10023328     libucrt:cvt.obj
 0002:0000332c       ??_C@_03LHCJEHON@nan@      1002332c     libucrt:cvt.obj
 0002:00003330       ??_C@_09OFJJIMPC@NAN?$CISNAN?$CJ@ 10023330     libucrt:cvt.obj
 0002:0000333c       ??_C@_09IPFBKMDL@nan?$CIsnan?$CJ@ 1002333c     libucrt:cvt.obj
 0002:00003348       ??_C@_08IKHNHAJ@NAN?$CIIND?$CJ@ 10023348     libucrt:cvt.obj
 0002:00003354       ??_C@_08OFCDMILK@nan?$CIind?$CJ@ 10023354     libucrt:cvt.obj
 0002:00003360       ??_C@_05KLBDPFGC@e?$CL000@ 10023360     libucrt:cvt.obj
 0002:00003378       ??_C@_1M@HPNHIDJI@?$AAj?$AAa?$AA?9?$AAJ?$AAP@ 10023378     libucrt:mbctype.obj
 0002:00003384       ??_C@_1M@BIBDDEMK@?$AAz?$AAh?$AA?9?$AAC?$AAN@ 10023384     libucrt:mbctype.obj
 0002:00003390       ??_C@_1M@JLOOOEGK@?$AAk?$AAo?$AA?9?$AAK?$AAR@ 10023390     libucrt:mbctype.obj
 0002:0000339c       ??_C@_1M@CLNBBOPM@?$AAz?$AAh?$AA?9?$AAT?$AAW@ 1002339c     libucrt:mbctype.obj
 0002:000033a8       ___newctype                100233a8     libucrt:ctype.obj
 0002:000036a8       ___newclmap                100236a8     libucrt:ctype.obj
 0002:00003828       ___newcumap                10023828     libucrt:ctype.obj
 0002:000039a8       ??_C@_15PJPFLCCM@?$AAu?$AAk@ 100239a8     libucrt:get_qualified_locale.obj
 0002:000040d0       ??_C@_15EMKDOKLE@?$AAa?$AAr@ 100240d0     libucrt:lcidtoname_downlevel.obj
 0002:000040d8       ??_C@_15KNPADPLH@?$AAb?$AAg@ 100240d8     libucrt:lcidtoname_downlevel.obj
 0002:000040e0       ??_C@_15EDMHLDMO@?$AAc?$AAa@ 100240e0     libucrt:lcidtoname_downlevel.obj
 0002:000040e8       ??_C@_1O@BPEAJADD@?$AAz?$AAh?$AA?9?$AAC?$AAH?$AAS@ 100240e8     libucrt:lcidtoname_downlevel.obj
 0002:000040f8       ??_C@_15LJNHCMNK@?$AAc?$AAs@ 100240f8     libucrt:lcidtoname_downlevel.obj
 0002:00004100       ??_C@_15FOMCIDHG@?$AAd?$AAa@ 10024100     libucrt:lcidtoname_downlevel.obj
 0002:00004108       ??_C@_15NBKABECB@?$AAd?$AAe@ 10024108     libucrt:lcidtoname_downlevel.obj
 0002:00004110       ??_C@_15GHPEIIAO@?$AAe?$AAl@ 10024110     libucrt:lcidtoname_downlevel.obj
 0002:00004118       ??_C@_15MNPNEAIF@?$AAe?$AAn@ 10024118     libucrt:lcidtoname_downlevel.obj
 0002:00004120       ??_C@_15GPIOMPMH@?$AAe?$AAs@ 10024120     libucrt:lcidtoname_downlevel.obj
 0002:00004128       ??_C@_15NGLOAKJC@?$AAf?$AAi@ 10024128     libucrt:lcidtoname_downlevel.obj
 0002:00004130       ??_C@_15FBKGNKAM@?$AAf?$AAr@ 10024130     libucrt:lcidtoname_downlevel.obj
 0002:00004138       ??_C@_15KGGCNEFK@?$AAh?$AAe@ 10024138     libucrt:lcidtoname_downlevel.obj
 0002:00004140       ??_C@_15PGHLIDMF@?$AAh?$AAu@ 10024140     libucrt:lcidtoname_downlevel.obj
 0002:00004148       ??_C@_15BIEMAPLM@?$AAi?$AAs@ 10024148     libucrt:lcidtoname_downlevel.obj
 0002:00004150       ??_C@_15IFJLDHAF@?$AAi?$AAt@ 10024150     libucrt:lcidtoname_downlevel.obj
 0002:00004158       ??_C@_15GEMIOCAG@?$AAj?$AAa@ 10024158     libucrt:lcidtoname_downlevel.obj
 0002:00004160       ??_C@_15EPELEGJA@?$AAk?$AAo@ 10024160     libucrt:lcidtoname_downlevel.obj
 0002:00004168       ??_C@_15NDDHIMN@?$AAn?$AAl@ 10024168     libucrt:lcidtoname_downlevel.obj
 0002:00004170       ??_C@_15BPIGNHCD@?$AAn?$AAo@ 10024170     libucrt:lcidtoname_downlevel.obj
 0002:00004178       ??_C@_15DEOPBLCG@?$AAp?$AAl@ 10024178     libucrt:lcidtoname_downlevel.obj
 0002:00004180       ??_C@_15KBECGEFG@?$AAp?$AAt@ 10024180     libucrt:lcidtoname_downlevel.obj
 0002:00004188       ??_C@_15GLJCBFMD@?$AAr?$AAo@ 10024188     libucrt:lcidtoname_downlevel.obj
 0002:00004190       ??_C@_15FEDGKCDI@?$AAr?$AAu@ 10024190     libucrt:lcidtoname_downlevel.obj
 0002:00004198       ??_C@_15GLKMLLHM@?$AAh?$AAr@ 10024198     libucrt:lcidtoname_downlevel.obj
 0002:000041a0       ??_C@_15CPKMFBDB@?$AAs?$AAk@ 100241a0     libucrt:lcidtoname_downlevel.obj
 0002:000041a8       ??_C@_15BAAIOGMK@?$AAs?$AAq@ 100241a8     libucrt:lcidtoname_downlevel.obj
 0002:000041b0       ??_C@_15INNPNOHD@?$AAs?$AAv@ 100241b0     libucrt:lcidtoname_downlevel.obj
 0002:000041b8       ??_C@_15CABMMOGH@?$AAt?$AAh@ 100241b8     libucrt:lcidtoname_downlevel.obj
 0002:000041c0       ??_C@_15BPLIHJJM@?$AAt?$AAr@ 100241c0     libucrt:lcidtoname_downlevel.obj
 0002:000041c8       ??_C@_15NEOEKKDJ@?$AAu?$AAr@ 100241c8     libucrt:lcidtoname_downlevel.obj
 0002:000041d0       ??_C@_15NFICGAJK@?$AAi?$AAd@ 100241d0     libucrt:lcidtoname_downlevel.obj
 0002:000041d8       ??_C@_15HPJPHDM@?$AAb?$AAe@ 100241d8     libucrt:lcidtoname_downlevel.obj
 0002:000041e0       ??_C@_15LCHLGJII@?$AAs?$AAl@ 100241e0     libucrt:lcidtoname_downlevel.obj
 0002:000041e8       ??_C@_15PCFJPHHO@?$AAe?$AAt@ 100241e8     libucrt:lcidtoname_downlevel.obj
 0002:000041f0       ??_C@_15HPFPGODN@?$AAl?$AAv@ 100241f0     libucrt:lcidtoname_downlevel.obj
 0002:000041f8       ??_C@_15NFFGKGLG@?$AAl?$AAt@ 100241f8     libucrt:lcidtoname_downlevel.obj
 0002:00004200       ??_C@_15BDAKCCHN@?$AAf?$AAa@ 10024200     libucrt:lcidtoname_downlevel.obj
 0002:00004208       ??_C@_15NFGIAIAJ@?$AAv?$AAi@ 10024208     libucrt:lcidtoname_downlevel.obj
 0002:00004210       ??_C@_15LMKNDMHN@?$AAh?$AAy@ 10024210     libucrt:lcidtoname_downlevel.obj
 0002:00004218       ??_C@_15IJBHMCFL@?$AAa?$AAz@ 10024218     libucrt:lcidtoname_downlevel.obj
 0002:00004220       ??_C@_15EKOFJABL@?$AAe?$AAu@ 10024220     libucrt:lcidtoname_downlevel.obj
 0002:00004228       ??_C@_15BGHADCNK@?$AAm?$AAk@ 10024228     libucrt:lcidtoname_downlevel.obj
 0002:00004230       ??_C@_15JDNICKHM@?$AAa?$AAf@ 10024230     libucrt:lcidtoname_downlevel.obj
 0002:00004238       ??_C@_15KPJEDBKD@?$AAk?$AAa@ 10024238     libucrt:lcidtoname_downlevel.obj
 0002:00004240       ??_C@_15PDNFFFEO@?$AAf?$AAo@ 10024240     libucrt:lcidtoname_downlevel.obj
 0002:00004248       ??_C@_15OMLEGLOC@?$AAh?$AAi@ 10024248     libucrt:lcidtoname_downlevel.obj
 0002:00004250       ??_C@_15IDNNENKK@?$AAm?$AAs@ 10024250     libucrt:lcidtoname_downlevel.obj
 0002:00004258       ??_C@_15MACJNBMH@?$AAk?$AAk@ 10024258     libucrt:lcidtoname_downlevel.obj
 0002:00004260       ??_C@_15DKDJEOND@?$AAk?$AAy@ 10024260     libucrt:lcidtoname_downlevel.obj
 0002:00004268       ??_C@_15DFGDLJBG@?$AAs?$AAw@ 10024268     libucrt:lcidtoname_downlevel.obj
 0002:00004270       ??_C@_15BBFAICNG@?$AAu?$AAz@ 10024270     libucrt:lcidtoname_downlevel.obj
 0002:00004278       ??_C@_15DKNDCGEA@?$AAt?$AAt@ 10024278     libucrt:lcidtoname_downlevel.obj
 0002:00004280       ??_C@_15MGIFMDPL@?$AAp?$AAa@ 10024280     libucrt:lcidtoname_downlevel.obj
 0002:00004288       ??_C@_15HCNDBBA@?$AAg?$AAu@ 10024288     libucrt:lcidtoname_downlevel.obj
 0002:00004290       ??_C@_15FNBEIBON@?$AAt?$AAa@ 10024290     libucrt:lcidtoname_downlevel.obj
 0002:00004298       ??_C@_15NCHGBGLK@?$AAt?$AAe@ 10024298     libucrt:lcidtoname_downlevel.obj
 0002:000042a0       ??_C@_15PHPHCBPF@?$AAk?$AAn@ 100242a0     libucrt:lcidtoname_downlevel.obj
 0002:000042a8       ??_C@_15DLGBCKMP@?$AAm?$AAr@ 100242a8     libucrt:lcidtoname_downlevel.obj
 0002:000042b0       ??_C@_15EABBLBFF@?$AAs?$AAa@ 100242b0     libucrt:lcidtoname_downlevel.obj
 0002:000042b8       ??_C@_15CBKOMCOI@?$AAm?$AAn@ 100242b8     libucrt:lcidtoname_downlevel.obj
 0002:000042c0       ??_C@_15CKDMCJAF@?$AAg?$AAl@ 100242c0     libucrt:lcidtoname_downlevel.obj
 0002:000042c8       ??_C@_17CNJFBPG@?$AAk?$AAo?$AAk@ 100242c8     libucrt:lcidtoname_downlevel.obj
 0002:000042d0       ??_C@_17FFBJICPL@?$AAs?$AAy?$AAr@ 100242d0     libucrt:lcidtoname_downlevel.obj
 0002:000042d8       ??_C@_17KPNDCPAF@?$AAd?$AAi?$AAv@ 100242d8     libucrt:lcidtoname_downlevel.obj
 0002:000042e0       ??_C@_1M@OKAHONE@?$AAa?$AAr?$AA?9?$AAS?$AAA@ 100242e0     libucrt:lcidtoname_downlevel.obj
 0002:000042ec       ??_C@_1M@FFFIGIGK@?$AAb?$AAg?$AA?9?$AAB?$AAG@ 100242ec     libucrt:lcidtoname_downlevel.obj
 0002:000042f8       ??_C@_1M@BJNKEDC@?$AAc?$AAa?$AA?9?$AAE?$AAS@ 100242f8     libucrt:lcidtoname_downlevel.obj
 0002:00004304       ??_C@_1M@IJJHFJHA@?$AAc?$AAs?$AA?9?$AAC?$AAZ@ 10024304     libucrt:lcidtoname_downlevel.obj
 0002:00004310       ??_C@_1M@CLPEOBGI@?$AAd?$AAa?$AA?9?$AAD?$AAK@ 10024310     libucrt:lcidtoname_downlevel.obj
 0002:0000431c       ??_C@_1M@MCMADGCB@?$AAd?$AAe?$AA?9?$AAD?$AAE@ 1002431c     libucrt:lcidtoname_downlevel.obj
 0002:00004328       ??_C@_1M@OOCKEMAM@?$AAe?$AAl?$AA?9?$AAG?$AAR@ 10024328     libucrt:lcidtoname_downlevel.obj
 0002:00004334       ??_C@_1M@DDNJFGID@?$AAf?$AAi?$AA?9?$AAF?$AAI@ 10024334     libucrt:lcidtoname_downlevel.obj
 0002:00004340       ??_C@_1M@GLIPPMAC@?$AAf?$AAr?$AA?9?$AAF?$AAR@ 10024340     libucrt:lcidtoname_downlevel.obj
 0002:0000434c       ??_C@_1M@GFMCHPE@?$AAh?$AAe?$AA?9?$AAI?$AAL@ 1002434c     libucrt:lcidtoname_downlevel.obj
 0002:00004358       ??_C@_1M@MHLPGNKM@?$AAh?$AAu?$AA?9?$AAH?$AAU@ 10024358     libucrt:lcidtoname_downlevel.obj
 0002:00004364       ??_C@_1M@LPDDNNPN@?$AAi?$AAs?$AA?9?$AAI?$AAS@ 10024364     libucrt:lcidtoname_downlevel.obj
 0002:00004370       ??_C@_1M@MADIPODN@?$AAi?$AAt?$AA?9?$AAI?$AAT@ 10024370     libucrt:lcidtoname_downlevel.obj
 0002:0000437c       ??_C@_1M@IHBJJGG@?$AAn?$AAl?$AA?9?$AAN?$AAL@ 1002437c     libucrt:lcidtoname_downlevel.obj
 0002:00004388       ??_C@_1M@EANAGDL@?$AAn?$AAb?$AA?9?$AAN?$AAO@ 10024388     libucrt:lcidtoname_downlevel.obj
 0002:00004394       ??_C@_1M@NEIEMEGP@?$AAp?$AAl?$AA?9?$AAP?$AAL@ 10024394     libucrt:lcidtoname_downlevel.obj
 0002:000043a0       ??_C@_1M@BOCFIGEP@?$AAp?$AAt?$AA?9?$AAB?$AAR@ 100243a0     libucrt:lcidtoname_downlevel.obj
 0002:000043ac       ??_C@_1M@IMPFOPBG@?$AAr?$AAo?$AA?9?$AAR?$AAO@ 100243ac     libucrt:lcidtoname_downlevel.obj
 0002:000043b8       ??_C@_1M@IDNNEJMM@?$AAr?$AAu?$AA?9?$AAR?$AAU@ 100243b8     libucrt:lcidtoname_downlevel.obj
 0002:000043c4       ??_C@_1M@LILEEOGM@?$AAh?$AAr?$AA?9?$AAH?$AAR@ 100243c4     libucrt:lcidtoname_downlevel.obj
 0002:000043d0       ??_C@_1M@FKIFEHPB@?$AAs?$AAk?$AA?9?$AAS?$AAK@ 100243d0     libucrt:lcidtoname_downlevel.obj
 0002:000043dc       ??_C@_1M@LJMAMNPJ@?$AAs?$AAq?$AA?9?$AAA?$AAL@ 100243dc     libucrt:lcidtoname_downlevel.obj
 0002:000043e8       ??_C@_1M@GIAKDKJK@?$AAs?$AAv?$AA?9?$AAS?$AAE@ 100243e8     libucrt:lcidtoname_downlevel.obj
 0002:000043f4       ??_C@_1M@MKJKIKCL@?$AAt?$AAh?$AA?9?$AAT?$AAH@ 100243f4     libucrt:lcidtoname_downlevel.obj
 0002:00004400       ??_C@_1M@MFLCCMPB@?$AAt?$AAr?$AA?9?$AAT?$AAR@ 10024400     libucrt:lcidtoname_downlevel.obj
 0002:0000440c       ??_C@_1M@OIJHDKJN@?$AAu?$AAr?$AA?9?$AAP?$AAK@ 1002440c     libucrt:lcidtoname_downlevel.obj
 0002:00004418       ??_C@_1M@LHIPCIEK@?$AAi?$AAd?$AA?9?$AAI?$AAD@ 10024418     libucrt:lcidtoname_downlevel.obj
 0002:00004424       ??_C@_1M@MFMOBGI@?$AAu?$AAk?$AA?9?$AAU?$AAA@ 10024424     libucrt:lcidtoname_downlevel.obj
 0002:00004430       ??_C@_1M@OBGLJIPL@?$AAb?$AAe?$AA?9?$AAB?$AAY@ 10024430     libucrt:lcidtoname_downlevel.obj
 0002:0000443c       ??_C@_1M@BCFAJEAD@?$AAs?$AAl?$AA?9?$AAS?$AAI@ 1002443c     libucrt:lcidtoname_downlevel.obj
 0002:00004448       ??_C@_1M@FKFFEDDN@?$AAe?$AAt?$AA?9?$AAE?$AAE@ 10024448     libucrt:lcidtoname_downlevel.obj
 0002:00004454       ??_C@_1M@KGKKAACI@?$AAl?$AAv?$AA?9?$AAL?$AAV@ 10024454     libucrt:lcidtoname_downlevel.obj
 0002:00004460       ??_C@_1M@IFGBIJO@?$AAl?$AAt?$AA?9?$AAL?$AAT@ 10024460     libucrt:lcidtoname_downlevel.obj
 0002:0000446c       ??_C@_1M@FGEAHEDM@?$AAf?$AAa?$AA?9?$AAI?$AAR@ 1002446c     libucrt:lcidtoname_downlevel.obj
 0002:00004478       ??_C@_1M@KBMAIBFN@?$AAv?$AAi?$AA?9?$AAV?$AAN@ 10024478     libucrt:lcidtoname_downlevel.obj
 0002:00004484       ??_C@_1M@GPCBKDJK@?$AAh?$AAy?$AA?9?$AAA?$AAM@ 10024484     libucrt:lcidtoname_downlevel.obj
 0002:00004490       ??_C@_1BG@BECMDDJB@?$AAa?$AAz?$AA?9?$AAA?$AAZ?$AA?9?$AAL?$AAa?$AAt?$AAn@ 10024490     libucrt:lcidtoname_downlevel.obj
 0002:000044a8       ??_C@_1M@MAOFCAEA@?$AAe?$AAu?$AA?9?$AAE?$AAS@ 100244a8     libucrt:lcidtoname_downlevel.obj
 0002:000044b4       ??_C@_1M@IGHABKPI@?$AAm?$AAk?$AA?9?$AAM?$AAK@ 100244b4     libucrt:lcidtoname_downlevel.obj
 0002:000044c0       ??_C@_1M@IAIGNEJG@?$AAt?$AAn?$AA?9?$AAZ?$AAA@ 100244c0     libucrt:lcidtoname_downlevel.obj
 0002:000044cc       ??_C@_1M@IIJCOJFA@?$AAx?$AAh?$AA?9?$AAZ?$AAA@ 100244cc     libucrt:lcidtoname_downlevel.obj
 0002:000044d8       ??_C@_1M@LGPJHNJH@?$AAz?$AAu?$AA?9?$AAZ?$AAA@ 100244d8     libucrt:lcidtoname_downlevel.obj
 0002:000044e4       ??_C@_1M@HOKAOIO@?$AAa?$AAf?$AA?9?$AAZ?$AAA@ 100244e4     libucrt:lcidtoname_downlevel.obj
 0002:000044f0       ??_C@_1M@DPCLHLIE@?$AAk?$AAa?$AA?9?$AAG?$AAE@ 100244f0     libucrt:lcidtoname_downlevel.obj
 0002:000044fc       ??_C@_1M@BLKMHJBI@?$AAf?$AAo?$AA?9?$AAF?$AAO@ 100244fc     libucrt:lcidtoname_downlevel.obj
 0002:00004508       ??_C@_1M@LGGJAPPB@?$AAh?$AAi?$AA?9?$AAI?$AAN@ 10024508     libucrt:lcidtoname_downlevel.obj
 0002:00004514       ??_C@_1M@FIKPIHFE@?$AAm?$AAt?$AA?9?$AAM?$AAT@ 10024514     libucrt:lcidtoname_downlevel.obj
 0002:00004520       ??_C@_1M@HEGGPBFA@?$AAs?$AAe?$AA?9?$AAN?$AAO@ 10024520     libucrt:lcidtoname_downlevel.obj
 0002:0000452c       ??_C@_1M@EIBJEEPA@?$AAm?$AAs?$AA?9?$AAM?$AAY@ 1002452c     libucrt:lcidtoname_downlevel.obj
 0002:00004538       ??_C@_1M@FHLBGMPP@?$AAk?$AAk?$AA?9?$AAK?$AAZ@ 10024538     libucrt:lcidtoname_downlevel.obj
 0002:00004544       ??_C@_1M@NGJJLCGI@?$AAk?$AAy?$AA?9?$AAK?$AAG@ 10024544     libucrt:lcidtoname_downlevel.obj
 0002:00004550       ??_C@_1M@GIENNBFC@?$AAs?$AAw?$AA?9?$AAK?$AAE@ 10024550     libucrt:lcidtoname_downlevel.obj
 0002:0000455c       ??_C@_1BG@NDGMJIMJ@?$AAu?$AAz?$AA?9?$AAU?$AAZ?$AA?9?$AAL?$AAa?$AAt?$AAn@ 1002455c     libucrt:lcidtoname_downlevel.obj
 0002:00004574       ??_C@_1M@IDCCIHBC@?$AAt?$AAt?$AA?9?$AAR?$AAU@ 10024574     libucrt:lcidtoname_downlevel.obj
 0002:00004580       ??_C@_1M@LOICPMOJ@?$AAb?$AAn?$AA?9?$AAI?$AAN@ 10024580     libucrt:lcidtoname_downlevel.obj
 0002:0000458c       ??_C@_1M@KPKKNEAH@?$AAp?$AAa?$AA?9?$AAI?$AAN@ 1002458c     libucrt:lcidtoname_downlevel.obj
 0002:00004598       ??_C@_1M@PJGPPBOG@?$AAg?$AAu?$AA?9?$AAI?$AAN@ 10024598     libucrt:lcidtoname_downlevel.obj
 0002:000045a4       ??_C@_1M@KMKMOPHI@?$AAt?$AAa?$AA?9?$AAI?$AAN@ 100245a4     libucrt:lcidtoname_downlevel.obj
 0002:000045b0       ??_C@_1M@KFEHEPAC@?$AAt?$AAe?$AA?9?$AAI?$AAN@ 100245b0     libucrt:lcidtoname_downlevel.obj
 0002:000045bc       ??_C@_1M@CDCLMGHI@?$AAk?$AAn?$AA?9?$AAI?$AAN@ 100245bc     libucrt:lcidtoname_downlevel.obj
 0002:000045c8       ??_C@_1M@MIODLDKF@?$AAm?$AAl?$AA?9?$AAI?$AAN@ 100245c8     libucrt:lcidtoname_downlevel.obj
 0002:000045d4       ??_C@_1M@PBIEACPO@?$AAm?$AAr?$AA?9?$AAI?$AAN@ 100245d4     libucrt:lcidtoname_downlevel.obj
 0002:000045e0       ??_C@_1M@NIDEAGPH@?$AAs?$AAa?$AA?9?$AAI?$AAN@ 100245e0     libucrt:lcidtoname_downlevel.obj
 0002:000045ec       ??_C@_1M@FHIHCBIO@?$AAm?$AAn?$AA?9?$AAM?$AAN@ 100245ec     libucrt:lcidtoname_downlevel.obj
 0002:000045f8       ??_C@_1M@JAIJPENP@?$AAc?$AAy?$AA?9?$AAG?$AAB@ 100245f8     libucrt:lcidtoname_downlevel.obj
 0002:00004604       ??_C@_1M@PHGFBEPN@?$AAg?$AAl?$AA?9?$AAE?$AAS@ 10024604     libucrt:lcidtoname_downlevel.obj
 0002:00004610       ??_C@_1O@KPIPDNCP@?$AAk?$AAo?$AAk?$AA?9?$AAI?$AAN@ 10024610     libucrt:lcidtoname_downlevel.obj
 0002:00004620       ??_C@_1O@KNHJLDJA@?$AAs?$AAy?$AAr?$AA?9?$AAS?$AAY@ 10024620     libucrt:lcidtoname_downlevel.obj
 0002:00004630       ??_C@_1O@MKEKBLAH@?$AAd?$AAi?$AAv?$AA?9?$AAM?$AAV@ 10024630     libucrt:lcidtoname_downlevel.obj
 0002:00004640       ??_C@_1O@OHDCKDDF@?$AAq?$AAu?$AAz?$AA?9?$AAB?$AAO@ 10024640     libucrt:lcidtoname_downlevel.obj
 0002:00004650       ??_C@_1M@LEPJNLFD@?$AAn?$AAs?$AA?9?$AAZ?$AAA@ 10024650     libucrt:lcidtoname_downlevel.obj
 0002:0000465c       ??_C@_1M@OMLEIIJB@?$AAm?$AAi?$AA?9?$AAN?$AAZ@ 1002465c     libucrt:lcidtoname_downlevel.obj
 0002:00004668       ??_C@_1M@PMPEAILG@?$AAa?$AAr?$AA?9?$AAI?$AAQ@ 10024668     libucrt:lcidtoname_downlevel.obj
 0002:00004674       ??_C@_1M@CNKPNOEE@?$AAd?$AAe?$AA?9?$AAC?$AAH@ 10024674     libucrt:lcidtoname_downlevel.obj
 0002:00004680       ??_C@_1M@LKMGMLKO@?$AAe?$AAn?$AA?9?$AAG?$AAB@ 10024680     libucrt:lcidtoname_downlevel.obj
 0002:0000468c       ??_C@_1M@PGKJFFGL@?$AAe?$AAs?$AA?9?$AAM?$AAX@ 1002468c     libucrt:lcidtoname_downlevel.obj
 0002:00004698       ??_C@_1M@DNNANBDC@?$AAf?$AAr?$AA?9?$AAB?$AAE@ 10024698     libucrt:lcidtoname_downlevel.obj
 0002:000046a4       ??_C@_1M@HLGMDFHM@?$AAi?$AAt?$AA?9?$AAC?$AAH@ 100246a4     libucrt:lcidtoname_downlevel.obj
 0002:000046b0       ??_C@_1M@CLLBGJH@?$AAn?$AAl?$AA?9?$AAB?$AAE@ 100246b0     libucrt:lcidtoname_downlevel.obj
 0002:000046bc       ??_C@_1M@BODBOGLF@?$AAn?$AAn?$AA?9?$AAN?$AAO@ 100246bc     libucrt:lcidtoname_downlevel.obj
 0002:000046c8       ??_C@_1M@HFFAHKAD@?$AAp?$AAt?$AA?9?$AAP?$AAT@ 100246c8     libucrt:lcidtoname_downlevel.obj
 0002:000046d4       ??_C@_1BG@LNOAKHIE@?$AAs?$AAr?$AA?9?$AAS?$AAP?$AA?9?$AAL?$AAa?$AAt?$AAn@ 100246d4     libucrt:lcidtoname_downlevel.obj
 0002:000046ec       ??_C@_1M@HBMHBGAK@?$AAs?$AAv?$AA?9?$AAF?$AAI@ 100246ec     libucrt:lcidtoname_downlevel.obj
 0002:000046f8       ??_C@_1BG@DGCJGJBE@?$AAa?$AAz?$AA?9?$AAA?$AAZ?$AA?9?$AAC?$AAy?$AAr?$AAl@ 100246f8     libucrt:lcidtoname_downlevel.obj
 0002:00004710       ??_C@_1M@KEJDAAHB@?$AAs?$AAe?$AA?9?$AAS?$AAE@ 10024710     libucrt:lcidtoname_downlevel.obj
 0002:0000471c       ??_C@_1M@HEIBJJAD@?$AAm?$AAs?$AA?9?$AAB?$AAN@ 1002471c     libucrt:lcidtoname_downlevel.obj
 0002:00004728       ??_C@_1BG@PBGJMCEM@?$AAu?$AAz?$AA?9?$AAU?$AAZ?$AA?9?$AAC?$AAy?$AAr?$AAl@ 10024728     libucrt:lcidtoname_downlevel.obj
 0002:00004740       ??_C@_1O@LAOBCMDF@?$AAq?$AAu?$AAz?$AA?9?$AAE?$AAC@ 10024740     libucrt:lcidtoname_downlevel.obj
 0002:00004750       ??_C@_1M@POEEMAIO@?$AAa?$AAr?$AA?9?$AAE?$AAG@ 10024750     libucrt:lcidtoname_downlevel.obj
 0002:0000475c       ??_C@_1M@EFAKDEDL@?$AAz?$AAh?$AA?9?$AAH?$AAK@ 1002475c     libucrt:lcidtoname_downlevel.obj
 0002:00004768       ??_C@_1M@HKKIJHGI@?$AAd?$AAe?$AA?9?$AAA?$AAT@ 10024768     libucrt:lcidtoname_downlevel.obj
 0002:00004774       ??_C@_1M@KBFBEHJF@?$AAe?$AAn?$AA?9?$AAA?$AAU@ 10024774     libucrt:lcidtoname_downlevel.obj
 0002:00004780       ??_C@_1M@MNPLFAAH@?$AAe?$AAs?$AA?9?$AAE?$AAS@ 10024780     libucrt:lcidtoname_downlevel.obj
 0002:0000478c       ??_C@_1M@HJOOJFMA@?$AAf?$AAr?$AA?9?$AAC?$AAA@ 1002478c     libucrt:lcidtoname_downlevel.obj
 0002:00004798       ??_C@_1BG@JPOFPNAB@?$AAs?$AAr?$AA?9?$AAS?$AAP?$AA?9?$AAC?$AAy?$AAr?$AAl@ 10024798     libucrt:lcidtoname_downlevel.obj
 0002:000047b0       ??_C@_1M@LNFOCMOB@?$AAs?$AAe?$AA?9?$AAF?$AAI@ 100247b0     libucrt:lcidtoname_downlevel.obj
 0002:000047bc       ??_C@_1O@MGJBOAMB@?$AAq?$AAu?$AAz?$AA?9?$AAP?$AAE@ 100247bc     libucrt:lcidtoname_downlevel.obj
 0002:000047cc       ??_C@_1M@GJINLBOK@?$AAa?$AAr?$AA?9?$AAL?$AAY@ 100247cc     libucrt:lcidtoname_downlevel.obj
 0002:000047d8       ??_C@_1M@GGMNHJNL@?$AAz?$AAh?$AA?9?$AAS?$AAG@ 100247d8     libucrt:lcidtoname_downlevel.obj
 0002:000047e4       ??_C@_1M@HOIKODND@?$AAd?$AAe?$AA?9?$AAL?$AAU@ 100247e4     libucrt:lcidtoname_downlevel.obj
 0002:000047f0       ??_C@_1M@DDOCCGFG@?$AAe?$AAn?$AA?9?$AAC?$AAA@ 100247f0     libucrt:lcidtoname_downlevel.obj
 0002:000047fc       ??_C@_1M@BNOEMJLF@?$AAe?$AAs?$AA?9?$AAG?$AAT@ 100247fc     libucrt:lcidtoname_downlevel.obj
 0002:00004808       ??_C@_1M@EOGNKEK@?$AAf?$AAr?$AA?9?$AAC?$AAH@ 10024808     libucrt:lcidtoname_downlevel.obj
 0002:00004814       ??_C@_1M@FLIDJFHL@?$AAh?$AAr?$AA?9?$AAB?$AAA@ 10024814     libucrt:lcidtoname_downlevel.obj
 0002:00004820       ??_C@_1O@FMCELNAJ@?$AAs?$AAm?$AAj?$AA?9?$AAN?$AAO@ 10024820     libucrt:lcidtoname_downlevel.obj
 0002:00004830       ??_C@_1M@JHGLJMGJ@?$AAa?$AAr?$AA?9?$AAD?$AAZ@ 10024830     libucrt:lcidtoname_downlevel.obj
 0002:0000483c       ??_C@_1M@JKKFDCNP@?$AAz?$AAh?$AA?9?$AAM?$AAO@ 1002483c     libucrt:lcidtoname_downlevel.obj
 0002:00004848       ??_C@_1M@GEEFALPE@?$AAd?$AAe?$AA?9?$AAL?$AAI@ 10024848     libucrt:lcidtoname_downlevel.obj
 0002:00004854       ??_C@_1M@IGEOFBG@?$AAe?$AAn?$AA?9?$AAN?$AAZ@ 10024854     libucrt:lcidtoname_downlevel.obj
 0002:00004860       ??_C@_1M@KDBONEHP@?$AAe?$AAs?$AA?9?$AAC?$AAR@ 10024860     libucrt:lcidtoname_downlevel.obj
 0002:0000486c       ??_C@_1M@FHMDOHNN@?$AAf?$AAr?$AA?9?$AAL?$AAU@ 1002486c     libucrt:lcidtoname_downlevel.obj
 0002:00004878       ??_C@_1BG@NFKKMAFG@?$AAb?$AAs?$AA?9?$AAB?$AAA?$AA?9?$AAL?$AAa?$AAt?$AAn@ 10024878     libucrt:lcidtoname_downlevel.obj
 0002:00004890       ??_C@_1O@IMNBEMCI@?$AAs?$AAm?$AAj?$AA?9?$AAS?$AAE@ 10024890     libucrt:lcidtoname_downlevel.obj
 0002:000048a0       ??_C@_1M@DHHMBNDP@?$AAa?$AAr?$AA?9?$AAM?$AAA@ 100248a0     libucrt:lcidtoname_downlevel.obj
 0002:000048ac       ??_C@_1M@BNBLJCGH@?$AAe?$AAn?$AA?9?$AAI?$AAE@ 100248ac     libucrt:lcidtoname_downlevel.obj
 0002:000048b8       ??_C@_1M@GEPAFMDL@?$AAe?$AAs?$AA?9?$AAP?$AAA@ 100248b8     libucrt:lcidtoname_downlevel.obj
 0002:000048c4       ??_C@_1M@OJONDMDL@?$AAf?$AAr?$AA?9?$AAM?$AAC@ 100248c4     libucrt:lcidtoname_downlevel.obj
 0002:000048d0       ??_C@_1BG@OBCNFJB@?$AAs?$AAr?$AA?9?$AAB?$AAA?$AA?9?$AAL?$AAa?$AAt?$AAn@ 100248d0     libucrt:lcidtoname_downlevel.obj
 0002:000048e8       ??_C@_1O@KEMEEGPO@?$AAs?$AAm?$AAa?$AA?9?$AAN?$AAO@ 100248e8     libucrt:lcidtoname_downlevel.obj
 0002:000048f8       ??_C@_1M@ELMGFODK@?$AAa?$AAr?$AA?9?$AAT?$AAN@ 100248f8     libucrt:lcidtoname_downlevel.obj
 0002:00004904       ??_C@_1M@BHDLHFAF@?$AAe?$AAn?$AA?9?$AAZ?$AAA@ 10024904     libucrt:lcidtoname_downlevel.obj
 0002:00004910       ??_C@_1M@BMGIGLIF@?$AAe?$AAs?$AA?9?$AAD?$AAO@ 10024910     libucrt:lcidtoname_downlevel.obj
 0002:0000491c       ??_C@_1BG@CMBHIPBE@?$AAs?$AAr?$AA?9?$AAB?$AAA?$AA?9?$AAC?$AAy?$AAr?$AAl@ 1002491c     libucrt:lcidtoname_downlevel.obj
 0002:00004934       ??_C@_1O@HEDBLHNP@?$AAs?$AAm?$AAa?$AA?9?$AAS?$AAE@ 10024934     libucrt:lcidtoname_downlevel.obj
 0002:00004944       ??_C@_1M@DAGCADIM@?$AAa?$AAr?$AA?9?$AAO?$AAM@ 10024944     libucrt:lcidtoname_downlevel.obj
 0002:00004950       ??_C@_1M@FODLMICG@?$AAe?$AAn?$AA?9?$AAJ?$AAM@ 10024950     libucrt:lcidtoname_downlevel.obj
 0002:0000495c       ??_C@_1M@DNMLCIHB@?$AAe?$AAs?$AA?9?$AAV?$AAE@ 1002495c     libucrt:lcidtoname_downlevel.obj
 0002:00004968       ??_C@_1O@EOKHMKJK@?$AAs?$AAm?$AAs?$AA?9?$AAF?$AAI@ 10024968     libucrt:lcidtoname_downlevel.obj
 0002:00004978       ??_C@_1M@CAFJMKOF@?$AAa?$AAr?$AA?9?$AAY?$AAE@ 10024978     libucrt:lcidtoname_downlevel.obj
 0002:00004984       ??_C@_1M@CBFHIJLI@?$AAe?$AAn?$AA?9?$AAC?$AAB@ 10024984     libucrt:lcidtoname_downlevel.obj
 0002:00004990       ??_C@_1M@BGNFLDN@?$AAe?$AAs?$AA?9?$AAC?$AAO@ 10024990     libucrt:lcidtoname_downlevel.obj
 0002:0000499c       ??_C@_1O@JMPHMAMC@?$AAs?$AAm?$AAn?$AA?9?$AAF?$AAI@ 1002499c     libucrt:lcidtoname_downlevel.obj
 0002:000049ac       ??_C@_1M@JLANABKE@?$AAa?$AAr?$AA?9?$AAS?$AAY@ 100249ac     libucrt:lcidtoname_downlevel.obj
 0002:000049b8       ??_C@_1M@HPKGCFGN@?$AAe?$AAn?$AA?9?$AAB?$AAZ@ 100249b8     libucrt:lcidtoname_downlevel.obj
 0002:000049c4       ??_C@_1M@OLJCMLGM@?$AAe?$AAs?$AA?9?$AAP?$AAE@ 100249c4     libucrt:lcidtoname_downlevel.obj
 0002:000049d0       ??_C@_1M@MKKGFKLE@?$AAa?$AAr?$AA?9?$AAJ?$AAO@ 100249d0     libucrt:lcidtoname_downlevel.obj
 0002:000049dc       ??_C@_1M@EKPGLDNI@?$AAe?$AAn?$AA?9?$AAT?$AAT@ 100249dc     libucrt:lcidtoname_downlevel.obj
 0002:000049e8       ??_C@_1M@OONGHFHE@?$AAe?$AAs?$AA?9?$AAA?$AAR@ 100249e8     libucrt:lcidtoname_downlevel.obj
 0002:000049f4       ??_C@_1M@OOJFGBHE@?$AAa?$AAr?$AA?9?$AAL?$AAB@ 100249f4     libucrt:lcidtoname_downlevel.obj
 0002:00004a00       ??_C@_1M@GCEJHNEG@?$AAe?$AAn?$AA?9?$AAZ?$AAW@ 10024a00     libucrt:lcidtoname_downlevel.obj
 0002:00004a0c       ??_C@_1M@JNOCAHJI@?$AAe?$AAs?$AA?9?$AAE?$AAC@ 10024a0c     libucrt:lcidtoname_downlevel.obj
 0002:00004a18       ??_C@_1M@JEFHPGGB@?$AAa?$AAr?$AA?9?$AAK?$AAW@ 10024a18     libucrt:lcidtoname_downlevel.obj
 0002:00004a24       ??_C@_1M@MLKIBJOJ@?$AAe?$AAn?$AA?9?$AAP?$AAH@ 10024a24     libucrt:lcidtoname_downlevel.obj
 0002:00004a30       ??_C@_1M@BDNIPEND@?$AAe?$AAs?$AA?9?$AAC?$AAL@ 10024a30     libucrt:lcidtoname_downlevel.obj
 0002:00004a3c       ??_C@_1M@MPNMEKBD@?$AAa?$AAr?$AA?9?$AAA?$AAE@ 10024a3c     libucrt:lcidtoname_downlevel.obj
 0002:00004a48       ??_C@_1M@KBJALCPI@?$AAe?$AAs?$AA?9?$AAU?$AAY@ 10024a48     libucrt:lcidtoname_downlevel.obj
 0002:00004a54       ??_C@_1M@LLCCOAGA@?$AAa?$AAr?$AA?9?$AAB?$AAH@ 10024a54     libucrt:lcidtoname_downlevel.obj
 0002:00004a60       ??_C@_1M@PBFNCDEL@?$AAe?$AAs?$AA?9?$AAP?$AAY@ 10024a60     libucrt:lcidtoname_downlevel.obj
 0002:00004a6c       ??_C@_1M@EDGINPNP@?$AAa?$AAr?$AA?9?$AAQ?$AAA@ 10024a6c     libucrt:lcidtoname_downlevel.obj
 0002:00004a78       ??_C@_1M@MKDBIIJI@?$AAe?$AAs?$AA?9?$AAB?$AAO@ 10024a78     libucrt:lcidtoname_downlevel.obj
 0002:00004a84       ??_C@_1M@CPKKEBLD@?$AAe?$AAs?$AA?9?$AAS?$AAV@ 10024a84     libucrt:lcidtoname_downlevel.obj
 0002:00004a90       ??_C@_1M@NDBGMMJL@?$AAe?$AAs?$AA?9?$AAH?$AAN@ 10024a90     libucrt:lcidtoname_downlevel.obj
 0002:00004a9c       ??_C@_1M@JIJIBHDP@?$AAe?$AAs?$AA?9?$AAN?$AAI@ 10024a9c     libucrt:lcidtoname_downlevel.obj
 0002:00004aa8       ??_C@_1M@CGFMKEEK@?$AAe?$AAs?$AA?9?$AAP?$AAR@ 10024aa8     libucrt:lcidtoname_downlevel.obj
 0002:00004ab4       ??_C@_1O@ICJHKIIK@?$AAz?$AAh?$AA?9?$AAC?$AAH?$AAT@ 10024ab4     libucrt:lcidtoname_downlevel.obj
 0002:00004ac4       ??_C@_15CLNEJCE@?$AAs?$AAr@ 10024ac4     libucrt:lcidtoname_downlevel.obj
 0002:000051f0       ??_C@_1M@KAHEKEIG@?$AAa?$AAf?$AA?9?$AAz?$AAa@ 100251f0     libucrt:lcidtoname_downlevel.obj
 0002:000051fc       ??_C@_1M@GIECOABL@?$AAa?$AAr?$AA?9?$AAa?$AAe@ 100251fc     libucrt:lcidtoname_downlevel.obj
 0002:00005208       ??_C@_1M@BMLMEKGI@?$AAa?$AAr?$AA?9?$AAb?$AAh@ 10025208     libucrt:lcidtoname_downlevel.obj
 0002:00005214       ??_C@_1M@DAPFDGGB@?$AAa?$AAr?$AA?9?$AAd?$AAz@ 10025214     libucrt:lcidtoname_downlevel.obj
 0002:00005220       ??_C@_1M@FJNKGKIG@?$AAa?$AAr?$AA?9?$AAe?$AAg@ 10025220     libucrt:lcidtoname_downlevel.obj
 0002:0000522c       ??_C@_1M@FLGKKCLO@?$AAa?$AAr?$AA?9?$AAi?$AAq@ 1002522c     libucrt:lcidtoname_downlevel.obj
 0002:00005238       ??_C@_1M@GNDIPALM@?$AAa?$AAr?$AA?9?$AAj?$AAo@ 10025238     libucrt:lcidtoname_downlevel.obj
 0002:00005244       ??_C@_1M@DDMJFMGJ@?$AAa?$AAr?$AA?9?$AAk?$AAw@ 10025244     libucrt:lcidtoname_downlevel.obj
 0002:00005250       ??_C@_1M@EJALMLHM@?$AAa?$AAr?$AA?9?$AAl?$AAb@ 10025250     libucrt:lcidtoname_downlevel.obj
 0002:0000525c       ??_C@_1M@MOBDBLOC@?$AAa?$AAr?$AA?9?$AAl?$AAy@ 1002525c     libucrt:lcidtoname_downlevel.obj
 0002:00005268       ??_C@_1M@JAOCLHDH@?$AAa?$AAr?$AA?9?$AAm?$AAa@ 10025268     libucrt:lcidtoname_downlevel.obj
 0002:00005274       ??_C@_1M@JHPMKJIE@?$AAa?$AAr?$AA?9?$AAo?$AAm@ 10025274     libucrt:lcidtoname_downlevel.obj
 0002:00005280       ??_C@_1M@OEPGHFNH@?$AAa?$AAr?$AA?9?$AAq?$AAa@ 10025280     libucrt:lcidtoname_downlevel.obj
 0002:0000528c       ??_C@_1M@KJDONENM@?$AAa?$AAr?$AA?9?$AAs?$AAa@ 1002528c     libucrt:lcidtoname_downlevel.obj
 0002:00005298       ??_C@_1M@DMJDKLKM@?$AAa?$AAr?$AA?9?$AAs?$AAy@ 10025298     libucrt:lcidtoname_downlevel.obj
 0002:000052a4       ??_C@_1M@OMFIPEDC@?$AAa?$AAr?$AA?9?$AAt?$AAn@ 100252a4     libucrt:lcidtoname_downlevel.obj
 0002:000052b0       ??_C@_1M@IHMHGAON@?$AAa?$AAr?$AA?9?$AAy?$AAe@ 100252b0     libucrt:lcidtoname_downlevel.obj
 0002:000052bc       ??_C@_1BG@KDCPGJGB@?$AAa?$AAz?$AA?9?$AAa?$AAz?$AA?9?$AAc?$AAy?$AAr?$AAl@ 100252bc     libucrt:lcidtoname_downlevel.obj
 0002:000052d4       ??_C@_1BG@IBCKDDOE@?$AAa?$AAz?$AA?9?$AAa?$AAz?$AA?9?$AAl?$AAa?$AAt?$AAn@ 100252d4     libucrt:lcidtoname_downlevel.obj
 0002:000052ec       ??_C@_1M@EGPFDCPD@?$AAb?$AAe?$AA?9?$AAb?$AAy@ 100252ec     libucrt:lcidtoname_downlevel.obj
 0002:000052f8       ??_C@_1M@PCMGMCGC@?$AAb?$AAg?$AA?9?$AAb?$AAg@ 100252f8     libucrt:lcidtoname_downlevel.obj
 0002:00005304       ??_C@_1M@BJBMFGOB@?$AAb?$AAn?$AA?9?$AAi?$AAn@ 10025304     libucrt:lcidtoname_downlevel.obj
 0002:00005310       ??_C@_1BG@EAKMMACD@?$AAb?$AAs?$AA?9?$AAb?$AAa?$AA?9?$AAl?$AAa?$AAt?$AAn@ 10025310     libucrt:lcidtoname_downlevel.obj
 0002:00005328       ??_C@_1M@KGADAODK@?$AAc?$AAa?$AA?9?$AAe?$AAs@ 10025328     libucrt:lcidtoname_downlevel.obj
 0002:00005334       ??_C@_1M@COAJPDHI@?$AAc?$AAs?$AA?9?$AAc?$AAz@ 10025334     libucrt:lcidtoname_downlevel.obj
 0002:00005340       ??_C@_1M@DHBHFONH@?$AAc?$AAy?$AA?9?$AAg?$AAb@ 10025340     libucrt:lcidtoname_downlevel.obj
 0002:0000534c       ??_C@_1M@IMGKELGA@?$AAd?$AAa?$AA?9?$AAd?$AAk@ 1002534c     libucrt:lcidtoname_downlevel.obj
 0002:00005358       ??_C@_1M@NNDGDNGA@?$AAd?$AAe?$AA?9?$AAa?$AAt@ 10025358     libucrt:lcidtoname_downlevel.obj
 0002:00005364       ??_C@_1M@IKDBHEEM@?$AAd?$AAe?$AA?9?$AAc?$AAh@ 10025364     libucrt:lcidtoname_downlevel.obj
 0002:00005370       ??_C@_1M@GFFOJMCJ@?$AAd?$AAe?$AA?9?$AAd?$AAe@ 10025370     libucrt:lcidtoname_downlevel.obj
 0002:0000537c       ??_C@_1M@MDNLKBPM@?$AAd?$AAe?$AA?9?$AAl?$AAi@ 1002537c     libucrt:lcidtoname_downlevel.obj
 0002:00005388       ??_C@_1M@NJBEEJNL@?$AAd?$AAe?$AA?9?$AAl?$AAu@ 10025388     libucrt:lcidtoname_downlevel.obj
 0002:00005394       ??_C@_1O@GNNELBAP@?$AAd?$AAi?$AAv?$AA?9?$AAm?$AAv@ 10025394     libucrt:lcidtoname_downlevel.obj
 0002:000053a4       ??_C@_1M@EJLEOGAE@?$AAe?$AAl?$AA?9?$AAg?$AAr@ 100253a4     libucrt:lcidtoname_downlevel.obj
 0002:000053b0       ??_C@_1M@GMPONJN@?$AAe?$AAn?$AA?9?$AAa?$AAu@ 100253b0     libucrt:lcidtoname_downlevel.obj
 0002:000053bc       ??_C@_1M@NIDIIPGF@?$AAe?$AAn?$AA?9?$AAb?$AAz@ 100253bc     libucrt:lcidtoname_downlevel.obj
 0002:000053c8       ??_C@_1M@JEHMIMFO@?$AAe?$AAn?$AA?9?$AAc?$AAa@ 100253c8     libucrt:lcidtoname_downlevel.obj
 0002:000053d4       ??_C@_1M@IGMJCDLA@?$AAe?$AAn?$AA?9?$AAc?$AAb@ 100253d4     libucrt:lcidtoname_downlevel.obj
 0002:000053e0       ??_C@_1M@BNFIGBKG@?$AAe?$AAn?$AA?9?$AAg?$AAb@ 100253e0     libucrt:lcidtoname_downlevel.obj
 0002:000053ec       ??_C@_1M@LKIFDIGP@?$AAe?$AAn?$AA?9?$AAi?$AAe@ 100253ec     libucrt:lcidtoname_downlevel.obj
 0002:000053f8       ??_C@_1M@PJKFGCCO@?$AAe?$AAn?$AA?9?$AAj?$AAm@ 100253f8     libucrt:lcidtoname_downlevel.obj
 0002:00005404       ??_C@_1M@KPPKEPBO@?$AAe?$AAn?$AA?9?$AAn?$AAz@ 10025404     libucrt:lcidtoname_downlevel.obj
 0002:00005410       ??_C@_1M@GMDGLDOB@?$AAe?$AAn?$AA?9?$AAp?$AAh@ 10025410     libucrt:lcidtoname_downlevel.obj
 0002:0000541c       ??_C@_1M@ONGIBJNA@?$AAe?$AAn?$AA?9?$AAt?$AAt@ 1002541c     libucrt:lcidtoname_downlevel.obj
 0002:00005428       ??_C@_1M@LLODPCMM@?$AAe?$AAn?$AA?9?$AAu?$AAs@ 10025428     libucrt:lcidtoname_downlevel.obj
 0002:00005434       ??_C@_1M@LAKFNPAN@?$AAe?$AAn?$AA?9?$AAz?$AAa@ 10025434     libucrt:lcidtoname_downlevel.obj
 0002:00005440       ??_C@_1M@MFNHNHEO@?$AAe?$AAn?$AA?9?$AAz?$AAw@ 10025440     libucrt:lcidtoname_downlevel.obj
 0002:0000544c       ??_C@_1M@EJEINPHM@?$AAe?$AAs?$AA?9?$AAa?$AAr@ 1002544c     libucrt:lcidtoname_downlevel.obj
 0002:00005458       ??_C@_1M@GNKPCCJA@?$AAe?$AAs?$AA?9?$AAb?$AAo@ 10025458     libucrt:lcidtoname_downlevel.obj
 0002:00005464       ??_C@_1M@LEEGFONL@?$AAe?$AAs?$AA?9?$AAc?$AAl@ 10025464     libucrt:lcidtoname_downlevel.obj
 0002:00005470       ??_C@_1M@KGPDPBDF@?$AAe?$AAs?$AA?9?$AAc?$AAo@ 10025470     libucrt:lcidtoname_downlevel.obj
 0002:0000547c       ??_C@_1M@EIAHOHH@?$AAe?$AAs?$AA?9?$AAc?$AAr@ 1002547c     libucrt:lcidtoname_downlevel.obj
 0002:00005488       ??_C@_1M@LLPGMBIN@?$AAe?$AAs?$AA?9?$AAd?$AAo@ 10025488     libucrt:lcidtoname_downlevel.obj
 0002:00005494       ??_C@_1M@DKHMKNJA@?$AAe?$AAs?$AA?9?$AAe?$AAc@ 10025494     libucrt:lcidtoname_downlevel.obj
 0002:000054a0       ??_C@_1M@GKGFPKAP@?$AAe?$AAs?$AA?9?$AAe?$AAs@ 100254a0     libucrt:lcidtoname_downlevel.obj
 0002:000054ac       ??_C@_1M@LKHKGDLN@?$AAe?$AAs?$AA?9?$AAg?$AAt@ 100254ac     libucrt:lcidtoname_downlevel.obj
 0002:000054b8       ??_C@_1M@HEIIGGJD@?$AAe?$AAs?$AA?9?$AAh?$AAn@ 100254b8     libucrt:lcidtoname_downlevel.obj
 0002:000054c4       ??_C@_1M@FBDHPPGD@?$AAe?$AAs?$AA?9?$AAm?$AAx@ 100254c4     libucrt:lcidtoname_downlevel.obj
 0002:000054d0       ??_C@_1M@DPAGLNDH@?$AAe?$AAs?$AA?9?$AAn?$AAi@ 100254d0     libucrt:lcidtoname_downlevel.obj
 0002:000054dc       ??_C@_1M@MDGOPGDD@?$AAe?$AAs?$AA?9?$AAp?$AAa@ 100254dc     libucrt:lcidtoname_downlevel.obj
 0002:000054e8       ??_C@_1M@EMAMGBGE@?$AAe?$AAs?$AA?9?$AAp?$AAe@ 100254e8     libucrt:lcidtoname_downlevel.obj
 0002:000054f4       ??_C@_1M@IBMCAOEC@?$AAe?$AAs?$AA?9?$AAp?$AAr@ 100254f4     libucrt:lcidtoname_downlevel.obj
 0002:00005500       ??_C@_1M@FGMDIJED@?$AAe?$AAs?$AA?9?$AAp?$AAy@ 10025500     libucrt:lcidtoname_downlevel.obj
 0002:0000550c       ??_C@_1M@IIDEOLLL@?$AAe?$AAs?$AA?9?$AAs?$AAv@ 1002550c     libucrt:lcidtoname_downlevel.obj
 0002:00005518       ??_C@_1M@GAOBIPA@?$AAe?$AAs?$AA?9?$AAu?$AAy@ 10025518     libucrt:lcidtoname_downlevel.obj
 0002:00005524       ??_C@_1M@JKFFICHJ@?$AAe?$AAs?$AA?9?$AAv?$AAe@ 10025524     libucrt:lcidtoname_downlevel.obj
 0002:00005530       ??_C@_1M@PNMLOJDF@?$AAe?$AAt?$AA?9?$AAe?$AAe@ 10025530     libucrt:lcidtoname_downlevel.obj
 0002:0000553c       ??_C@_1M@GHHLIKEI@?$AAe?$AAu?$AA?9?$AAe?$AAs@ 1002553c     libucrt:lcidtoname_downlevel.obj
 0002:00005548       ??_C@_1M@PBNONODE@?$AAf?$AAa?$AA?9?$AAi?$AAr@ 10025548     libucrt:lcidtoname_downlevel.obj
 0002:00005554       ??_C@_1M@JEEHPMIL@?$AAf?$AAi?$AA?9?$AAf?$AAi@ 10025554     libucrt:lcidtoname_downlevel.obj
 0002:00005560       ??_C@_1M@LMDCNDBA@?$AAf?$AAo?$AA?9?$AAf?$AAo@ 10025560     libucrt:lcidtoname_downlevel.obj
 0002:0000556c       ??_C@_1M@JKEOHLDK@?$AAf?$AAr?$AA?9?$AAb?$AAe@ 1002556c     libucrt:lcidtoname_downlevel.obj
 0002:00005578       ??_C@_1M@NOHADPMI@?$AAf?$AAr?$AA?9?$AAc?$AAa@ 10025578     libucrt:lcidtoname_downlevel.obj
 0002:00005584       ??_C@_1M@KDHIHAEC@?$AAf?$AAr?$AA?9?$AAc?$AAh@ 10025584     libucrt:lcidtoname_downlevel.obj
 0002:00005590       ??_C@_1M@MMBBFGAK@?$AAf?$AAr?$AA?9?$AAf?$AAr@ 10025590     libucrt:lcidtoname_downlevel.obj
 0002:0000559c       ??_C@_1M@PAFNENNF@?$AAf?$AAr?$AA?9?$AAl?$AAu@ 1002559c     libucrt:lcidtoname_downlevel.obj
 0002:000055a8       ??_C@_1M@EOHDJGDD@?$AAf?$AAr?$AA?9?$AAm?$AAc@ 100255a8     libucrt:lcidtoname_downlevel.obj
 0002:000055b4       ??_C@_1M@FAPLLOPF@?$AAg?$AAl?$AA?9?$AAe?$AAs@ 100255b4     libucrt:lcidtoname_downlevel.obj
 0002:000055c0       ??_C@_1M@FOPBFLOO@?$AAg?$AAu?$AA?9?$AAi?$AAn@ 100255c0     libucrt:lcidtoname_downlevel.obj
 0002:000055cc       ??_C@_1M@KBMCINPM@?$AAh?$AAe?$AA?9?$AAi?$AAl@ 100255cc     libucrt:lcidtoname_downlevel.obj
 0002:000055d8       ??_C@_1M@BBPHKFPJ@?$AAh?$AAi?$AA?9?$AAi?$AAn@ 100255d8     libucrt:lcidtoname_downlevel.obj
 0002:000055e4       ??_C@_1M@PMBNDPHD@?$AAh?$AAr?$AA?9?$AAb?$AAa@ 100255e4     libucrt:lcidtoname_downlevel.obj
 0002:000055f0       ??_C@_1M@BPCKOEGE@?$AAh?$AAr?$AA?9?$AAh?$AAr@ 100255f0     libucrt:lcidtoname_downlevel.obj
 0002:000055fc       ??_C@_1M@GACBMHKE@?$AAh?$AAu?$AA?9?$AAh?$AAu@ 100255fc     libucrt:lcidtoname_downlevel.obj
 0002:00005608       ??_C@_1M@MILPAJJC@?$AAh?$AAy?$AA?9?$AAa?$AAm@ 10025608     libucrt:lcidtoname_downlevel.obj
 0002:00005614       ??_C@_1M@BABBICEC@?$AAi?$AAd?$AA?9?$AAi?$AAd@ 10025614     libucrt:lcidtoname_downlevel.obj
 0002:00005620       ??_C@_1M@BIKNHHPF@?$AAi?$AAs?$AA?9?$AAi?$AAs@ 10025620     libucrt:lcidtoname_downlevel.obj
 0002:0000562c       ??_C@_1M@NMPCJPHE@?$AAi?$AAt?$AA?9?$AAc?$AAh@ 1002562c     libucrt:lcidtoname_downlevel.obj
 0002:00005638       ??_C@_1M@GHKGFEDF@?$AAi?$AAt?$AA?9?$AAi?$AAt@ 10025638     libucrt:lcidtoname_downlevel.obj
 0002:00005644       ??_C@_1M@NIEJCJJA@?$AAj?$AAa?$AA?9?$AAj?$AAp@ 10025644     libucrt:lcidtoname_downlevel.obj
 0002:00005650       ??_C@_1M@JILFNBIM@?$AAk?$AAa?$AA?9?$AAg?$AAe@ 10025650     libucrt:lcidtoname_downlevel.obj
 0002:0000565c       ??_C@_1M@PACPMGPH@?$AAk?$AAk?$AA?9?$AAk?$AAz@ 1002565c     libucrt:lcidtoname_downlevel.obj
 0002:00005668       ??_C@_1M@IELFGMHA@?$AAk?$AAn?$AA?9?$AAi?$AAn@ 10025668     libucrt:lcidtoname_downlevel.obj
 0002:00005674       ??_C@_1O@IBBJHCH@?$AAk?$AAo?$AAk?$AA?9?$AAi?$AAn@ 10025674     libucrt:lcidtoname_downlevel.obj
 0002:00005684       ??_C@_1M@DMHAEOGC@?$AAk?$AAo?$AA?9?$AAk?$AAr@ 10025684     libucrt:lcidtoname_downlevel.obj
 0002:00005690       ??_C@_1M@HBAHBIGA@?$AAk?$AAy?$AA?9?$AAk?$AAg@ 10025690     libucrt:lcidtoname_downlevel.obj
 0002:0000569c       ??_C@_1M@KPMILCJG@?$AAl?$AAt?$AA?9?$AAl?$AAt@ 1002569c     libucrt:lcidtoname_downlevel.obj
 0002:000056a8       ??_C@_1M@BDEKKCA@?$AAl?$AAv?$AA?9?$AAl?$AAv@ 100256a8     libucrt:lcidtoname_downlevel.obj
 0002:000056b4       ??_C@_1M@ELCKCCJJ@?$AAm?$AAi?$AA?9?$AAn?$AAz@ 100256b4     libucrt:lcidtoname_downlevel.obj
 0002:000056c0       ??_C@_1M@CBOOLAPA@?$AAm?$AAk?$AA?9?$AAm?$AAk@ 100256c0     libucrt:lcidtoname_downlevel.obj
 0002:000056cc       ??_C@_1M@GPHNBJKN@?$AAm?$AAl?$AA?9?$AAi?$AAn@ 100256cc     libucrt:lcidtoname_downlevel.obj
 0002:000056d8       ??_C@_1M@PABJILIG@?$AAm?$AAn?$AA?9?$AAm?$AAn@ 100256d8     libucrt:lcidtoname_downlevel.obj
 0002:000056e4       ??_C@_1M@FGBKKIPG@?$AAm?$AAr?$AA?9?$AAi?$AAn@ 100256e4     libucrt:lcidtoname_downlevel.obj
 0002:000056f0       ??_C@_1M@NDBPDDAL@?$AAm?$AAs?$AA?9?$AAb?$AAn@ 100256f0     libucrt:lcidtoname_downlevel.obj
 0002:000056fc       ??_C@_1M@OPIHOOPI@?$AAm?$AAs?$AA?9?$AAm?$AAy@ 100256fc     libucrt:lcidtoname_downlevel.obj
 0002:00005708       ??_C@_1M@PPDBCNFM@?$AAm?$AAt?$AA?9?$AAm?$AAt@ 10025708     libucrt:lcidtoname_downlevel.obj
 0002:00005714       ??_C@_1M@KDJDKMDD@?$AAn?$AAb?$AA?9?$AAn?$AAo@ 10025714     libucrt:lcidtoname_downlevel.obj
 0002:00005720       ??_C@_1M@KFCFLMJP@?$AAn?$AAl?$AA?9?$AAb?$AAe@ 10025720     libucrt:lcidtoname_downlevel.obj
 0002:0000572c       ??_C@_1M@KPOPDDGO@?$AAn?$AAl?$AA?9?$AAn?$AAl@ 1002572c     libucrt:lcidtoname_downlevel.obj
 0002:00005738       ??_C@_1M@LJKPEMLN@?$AAn?$AAn?$AA?9?$AAn?$AAo@ 10025738     libucrt:lcidtoname_downlevel.obj
 0002:00005744       ??_C@_1M@BDGHHBFL@?$AAn?$AAs?$AA?9?$AAz?$AAa@ 10025744     libucrt:lcidtoname_downlevel.obj
 0002:00005750       ??_C@_1M@IDEHOAP@?$AAp?$AAa?$AA?9?$AAi?$AAn@ 10025750     libucrt:lcidtoname_downlevel.obj
 0002:0000575c       ??_C@_1M@HDBKGOGH@?$AAp?$AAl?$AA?9?$AAp?$AAl@ 1002575c     libucrt:lcidtoname_downlevel.obj
 0002:00005768       ??_C@_1M@LJLLCMEH@?$AAp?$AAt?$AA?9?$AAb?$AAr@ 10025768     libucrt:lcidtoname_downlevel.obj
 0002:00005774       ??_C@_1M@NCMONAAL@?$AAp?$AAt?$AA?9?$AAp?$AAt@ 10025774     libucrt:lcidtoname_downlevel.obj
 0002:00005780       ??_C@_1O@EAKMAJDN@?$AAq?$AAu?$AAz?$AA?9?$AAb?$AAo@ 10025780     libucrt:lcidtoname_downlevel.obj
 0002:00005790       ??_C@_1O@BHHPIGDN@?$AAq?$AAu?$AAz?$AA?9?$AAe?$AAc@ 10025790     libucrt:lcidtoname_downlevel.obj
 0002:000057a0       ??_C@_1O@GBAPEKMJ@?$AAq?$AAu?$AAz?$AA?9?$AAp?$AAe@ 100257a0     libucrt:lcidtoname_downlevel.obj
 0002:000057b0       ??_C@_1M@CLGLEFBO@?$AAr?$AAo?$AA?9?$AAr?$AAo@ 100257b0     libucrt:lcidtoname_downlevel.obj
 0002:000057bc       ??_C@_1M@CEEDODME@?$AAr?$AAu?$AA?9?$AAr?$AAu@ 100257bc     libucrt:lcidtoname_downlevel.obj
 0002:000057c8       ??_C@_1M@HPKKKMPP@?$AAs?$AAa?$AA?9?$AAi?$AAn@ 100257c8     libucrt:lcidtoname_downlevel.obj
 0002:000057d4       ??_C@_1M@BKMAIGOJ@?$AAs?$AAe?$AA?9?$AAf?$AAi@ 100257d4     libucrt:lcidtoname_downlevel.obj
 0002:000057e0       ??_C@_1M@NDPIFLFI@?$AAs?$AAe?$AA?9?$AAn?$AAo@ 100257e0     libucrt:lcidtoname_downlevel.obj
 0002:000057ec       ??_C@_1M@DANKKHJ@?$AAs?$AAe?$AA?9?$AAs?$AAe@ 100257ec     libucrt:lcidtoname_downlevel.obj
 0002:000057f8       ??_C@_1M@PNBLONPJ@?$AAs?$AAk?$AA?9?$AAs?$AAk@ 100257f8     libucrt:lcidtoname_downlevel.obj
 0002:00005804       ??_C@_1M@LFMODOAL@?$AAs?$AAl?$AA?9?$AAs?$AAi@ 10025804     libucrt:lcidtoname_downlevel.obj
 0002:00005810       ??_C@_1O@DFKOMPG@?$AAs?$AAm?$AAa?$AA?9?$AAn?$AAo@ 10025810     libucrt:lcidtoname_downlevel.obj
 0002:00005820       ??_C@_1O@NDKPBNNH@?$AAs?$AAm?$AAa?$AA?9?$AAs?$AAe@ 10025820     libucrt:lcidtoname_downlevel.obj
 0002:00005830       ??_C@_1O@PLLKBHAB@?$AAs?$AAm?$AAj?$AA?9?$AAn?$AAo@ 10025830     libucrt:lcidtoname_downlevel.obj
 0002:00005840       ??_C@_1O@CLEPOGCA@?$AAs?$AAm?$AAj?$AA?9?$AAs?$AAe@ 10025840     libucrt:lcidtoname_downlevel.obj
 0002:00005850       ??_C@_1O@DLGJGKMK@?$AAs?$AAm?$AAn?$AA?9?$AAf?$AAi@ 10025850     libucrt:lcidtoname_downlevel.obj
 0002:00005860       ??_C@_1O@OJDJGAJC@?$AAs?$AAm?$AAs?$AA?9?$AAf?$AAi@ 10025860     libucrt:lcidtoname_downlevel.obj
 0002:00005870       ??_C@_1M@BOFOGHPB@?$AAs?$AAq?$AA?9?$AAa?$AAl@ 10025870     libucrt:lcidtoname_downlevel.obj
 0002:0000587c       ??_C@_1BG@LJBBIPGB@?$AAs?$AAr?$AA?9?$AAb?$AAa?$AA?9?$AAc?$AAy?$AAr?$AAl@ 1002587c     libucrt:lcidtoname_downlevel.obj
 0002:00005894       ??_C@_1BG@JLBENFOE@?$AAs?$AAr?$AA?9?$AAb?$AAa?$AA?9?$AAl?$AAa?$AAt?$AAn@ 10025894     libucrt:lcidtoname_downlevel.obj
 0002:000058ac       ??_C@_1BG@KODPNHE@?$AAs?$AAr?$AA?9?$AAs?$AAp?$AA?9?$AAc?$AAy?$AAr?$AAl@ 100258ac     libucrt:lcidtoname_downlevel.obj
 0002:000058c4       ??_C@_1BG@CIOGKHPB@?$AAs?$AAr?$AA?9?$AAs?$AAp?$AA?9?$AAl?$AAa?$AAt?$AAn@ 100258c4     libucrt:lcidtoname_downlevel.obj
 0002:000058dc       ??_C@_1M@NGFJLMAC@?$AAs?$AAv?$AA?9?$AAf?$AAi@ 100258dc     libucrt:lcidtoname_downlevel.obj
 0002:000058e8       ??_C@_1M@MPJEJAJC@?$AAs?$AAv?$AA?9?$AAs?$AAe@ 100258e8     libucrt:lcidtoname_downlevel.obj
 0002:000058f4       ??_C@_1M@MPNDHLFK@?$AAs?$AAw?$AA?9?$AAk?$AAe@ 100258f4     libucrt:lcidtoname_downlevel.obj
 0002:00005900       ??_C@_1O@KOHBJJI@?$AAs?$AAy?$AAr?$AA?9?$AAs?$AAy@ 10025900     libucrt:lcidtoname_downlevel.obj
 0002:00005910       ??_C@_1M@LDCEFHA@?$AAt?$AAa?$AA?9?$AAi?$AAn@ 10025910     libucrt:lcidtoname_downlevel.obj
 0002:0000591c       ??_C@_1M@CNJOFAK@?$AAt?$AAe?$AA?9?$AAi?$AAn@ 1002591c     libucrt:lcidtoname_downlevel.obj
 0002:00005928       ??_C@_1M@GNAECACD@?$AAt?$AAh?$AA?9?$AAt?$AAh@ 10025928     libucrt:lcidtoname_downlevel.obj
 0002:00005934       ??_C@_1M@CHBIHOJO@?$AAt?$AAn?$AA?9?$AAz?$AAa@ 10025934     libucrt:lcidtoname_downlevel.obj
 0002:00005940       ??_C@_1M@GCCMIGPJ@?$AAt?$AAr?$AA?9?$AAt?$AAr@ 10025940     libucrt:lcidtoname_downlevel.obj
 0002:0000594c       ??_C@_1M@CELMCNBK@?$AAt?$AAt?$AA?9?$AAr?$AAu@ 1002594c     libucrt:lcidtoname_downlevel.obj
 0002:00005958       ??_C@_1M@KLMCELGA@?$AAu?$AAk?$AA?9?$AAu?$AAa@ 10025958     libucrt:lcidtoname_downlevel.obj
 0002:00005964       ??_C@_1M@EPAJJAJF@?$AAu?$AAr?$AA?9?$AAp?$AAk@ 10025964     libucrt:lcidtoname_downlevel.obj
 0002:00005970       ??_C@_1BG@GEGPMCDJ@?$AAu?$AAz?$AA?9?$AAu?$AAz?$AA?9?$AAc?$AAy?$AAr?$AAl@ 10025970     libucrt:lcidtoname_downlevel.obj
 0002:00005988       ??_C@_1BG@EGGKJILM@?$AAu?$AAz?$AA?9?$AAu?$AAz?$AA?9?$AAl?$AAa?$AAt?$AAn@ 10025988     libucrt:lcidtoname_downlevel.obj
 0002:000059a0       ??_C@_1M@GFOCLFF@?$AAv?$AAi?$AA?9?$AAv?$AAn@ 100259a0     libucrt:lcidtoname_downlevel.obj
 0002:000059ac       ??_C@_1M@CPAMEDFI@?$AAx?$AAh?$AA?9?$AAz?$AAa@ 100259ac     libucrt:lcidtoname_downlevel.obj
 0002:000059b8       ??_C@_1O@EBKIFIGN@?$AAz?$AAh?$AA?9?$AAc?$AAh?$AAs@ 100259b8     libucrt:lcidtoname_downlevel.obj
 0002:000059c8       ??_C@_1O@NMHPGANE@?$AAz?$AAh?$AA?9?$AAc?$AAh?$AAt@ 100259c8     libucrt:lcidtoname_downlevel.obj
 0002:000059d8       ??_C@_1M@LPINJOMC@?$AAz?$AAh?$AA?9?$AAc?$AAn@ 100259d8     libucrt:lcidtoname_downlevel.obj
 0002:000059e4       ??_C@_1M@OCJEJODD@?$AAz?$AAh?$AA?9?$AAh?$AAk@ 100259e4     libucrt:lcidtoname_downlevel.obj
 0002:000059f0       ??_C@_1M@DNDLJINH@?$AAz?$AAh?$AA?9?$AAm?$AAo@ 100259f0     libucrt:lcidtoname_downlevel.obj
 0002:000059fc       ??_C@_1M@MBFDNDND@?$AAz?$AAh?$AA?9?$AAs?$AAg@ 100259fc     libucrt:lcidtoname_downlevel.obj
 0002:00005a08       ??_C@_1M@IMEPLEPE@?$AAz?$AAh?$AA?9?$AAt?$AAw@ 10025a08     libucrt:lcidtoname_downlevel.obj
 0002:00005a14       ??_C@_1M@BBGHNHJP@?$AAz?$AAu?$AA?9?$AAz?$AAa@ 10025a14     libucrt:lcidtoname_downlevel.obj
 0002:00005a20       ?large_power_data@?1??multiply_by_power_of_ten@__crt_strtox@@YA_NAAUbig_integer@2@I@Z@4QBIB 10025a20     libucrt:cfout.obj
 0002:00006328       ?large_power_indices@?1??multiply_by_power_of_ten@__crt_strtox@@YA_NAAUbig_integer@2@I@Z@4QBUunpack_index@?1??12@YA_N0I@Z@B 10026328     libucrt:cfout.obj
 0002:000063c0       ?small_powers_of_ten@?1??multiply_by_power_of_ten@__crt_strtox@@YA_NAAUbig_integer@2@I@Z@4QBIB 100263c0     libucrt:cfout.obj
 0002:000063e4       ??_C@_01GBGANLPD@0@        100263e4     libucrt:cfout.obj
 0002:000063e8       ??_C@_05DNEBIAHO@1?$CDINF@ 100263e8     libucrt:cfout.obj
 0002:000063f0       ??_C@_06IMKFLFPG@1?$CDQNAN@ 100263f0     libucrt:cfout.obj
 0002:000063f8       ??_C@_06PGGFOGJG@1?$CDSNAN@ 100263f8     libucrt:cfout.obj
 0002:00006400       ??_C@_05PHHOCPM@1?$CDIND@  10026400     libucrt:cfout.obj
 0002:00006570       __infinity                 10026570     libucrt:87tran.obj
 0002:0000657a       __minfinity                1002657a     libucrt:87tran.obj
 0002:00006584       __logemax                  10026584     libucrt:87tran.obj
 0002:000065aa       __OP_EXPjmptab             100265aa     libucrt:87tran.obj
 0002:000065d0       __indefinite               100265d0     libucrt:87disp.obj
 0002:000065da       __piby2                    100265da     libucrt:87disp.obj
 0002:000065e4       __piby4                    100265e4     libucrt:87disp.obj
 0002:00006618       __DEFAULT_CW_in_mem        10026618     libucrt:common.obj
 0002:0000661a       __pi_by_2_to_61            1002661a     libucrt:common.obj
 0002:00006654       ??_C@_03MGHMBJCF@log@      10026654     libucrt:libm_error.obj
 0002:00006658       ??_C@_05HGHHAHAP@log10@    10026658     libucrt:libm_error.obj
 0002:00006660       ??_C@_03KHJOGHMM@exp@      10026660     libucrt:libm_error.obj
 0002:00006664       ??_C@_03JGHBODFD@pow@      10026664     libucrt:libm_error.obj
 0002:00006668       ??_C@_04FIHNOPOL@asin@     10026668     libucrt:libm_error.obj
 0002:00006670       ??_C@_04PDIFKINK@acos@     10026670     libucrt:libm_error.obj
 0002:00006678       ??_C@_04EIAKFFMI@sqrt@     10026678     libucrt:libm_error.obj
 0002:00006680       __real@3ff0000000000000    10026680     libucrt:libm_error.obj
 0002:00006688       ??_C@_1BA@BALFACEM@?$AAC?$AAO?$AAN?$AAO?$AAU?$AAT?$AA$@ 10026688     libucrt:initcon.obj
 0002:000066b0       ___acrt_log10_table_t      100266b0     libucrt:log10_tables.obj
 0002:00006ac0       ___acrt_log10_table_cb     10026ac0     libucrt:log10_tables.obj
 0002:00006ed0       __real@3fe0000000000000    10026ed0     libucrt:powhlp.obj
 0002:00006fc0       ??_C@_04COOMCNPB@sinh@     10026fc0     libucrt:fpexcept.obj
 0002:00006fc8       ??_C@_04HPJJNFIM@cosh@     10026fc8     libucrt:fpexcept.obj
 0002:00006fd0       ??_C@_04FJHINJAO@tanh@     10026fd0     libucrt:fpexcept.obj
 0002:00006fd8       ??_C@_04MLLJIGOK@atan@     10026fd8     libucrt:fpexcept.obj
 0002:00006fe0       ??_C@_05KNGEOGJB@atan2@    10026fe0     libucrt:fpexcept.obj
 0002:00006fe8       ??_C@_03BLEJJJBH@sin@      10026fe8     libucrt:fpexcept.obj
 0002:00006fec       ??_C@_03LALBNOCG@cos@      10026fec     libucrt:fpexcept.obj
 0002:00006ff0       ??_C@_03IIINPABG@tan@      10026ff0     libucrt:fpexcept.obj
 0002:00006ff4       ??_C@_04GFPJNGEK@ceil@     10026ff4     libucrt:fpexcept.obj
 0002:00006ffc       ??_C@_05PBJFFIGL@floor@    10026ffc     libucrt:fpexcept.obj
 0002:00007004       ??_C@_04ODHECPBC@fabs@     10027004     libucrt:fpexcept.obj
 0002:0000700c       ??_C@_04EHEDPDJG@modf@     1002700c     libucrt:fpexcept.obj
 0002:00007014       ??_C@_05CEJMAHNP@ldexp@    10027014     libucrt:fpexcept.obj
 0002:0000701c       ??_C@_05KBKMEMPO@_cabs@    1002701c     libucrt:fpexcept.obj
 0002:00007024       ??_C@_06MEIMCGCF@_hypot@   10027024     libucrt:fpexcept.obj
 0002:0000702c       ??_C@_04KEPJIHGP@fmod@     1002702c     libucrt:fpexcept.obj
 0002:00007034       ??_C@_05GKKHEGJL@frexp@    10027034     libucrt:fpexcept.obj
 0002:0000703c       ??_C@_03MJLDFKDL@_y0@      1002703c     libucrt:fpexcept.obj
 0002:00007040       ??_C@_03NAKIGLHK@_y1@      10027040     libucrt:fpexcept.obj
 0002:00007044       ??_C@_03ONILCKOB@_yn@      10027044     libucrt:fpexcept.obj
 0002:00007048       ??_C@_05JGDBENOH@_logb@    10027048     libucrt:fpexcept.obj
 0002:00007050       ??_C@_0L@KDOEJCKC@_nextafter@ 10027050     libucrt:fpexcept.obj
 0002:00007060       __d_inf                    10027060     libucrt:util.obj
 0002:00007068       __d_max                    10027068     libucrt:util.obj
 0002:00007070       __d_mzero                  10027070     libucrt:util.obj
 0002:000070e0       __load_config_used         100270e0     LIBCMT:loadcfg.obj
 0002:000071c0       __tls_used                 100271c0     LIBCMT:tlssup.obj
 0002:000071d8       ??_R4exception@std@@6B@    100271d8     LIBCMT:throw_bad_alloc.obj
 0002:000071ec       ??_R3exception@std@@8      100271ec     LIBCMT:throw_bad_alloc.obj
 0002:000071fc       ??_R2exception@std@@8      100271fc     LIBCMT:throw_bad_alloc.obj
 0002:00007204       ??_R1A@?0A@EA@exception@std@@8 10027204     LIBCMT:throw_bad_alloc.obj
 0002:00007220       ??_R4bad_alloc@std@@6B@    10027220     LIBCMT:throw_bad_alloc.obj
 0002:00007234       ??_R3bad_alloc@std@@8      10027234     LIBCMT:throw_bad_alloc.obj
 0002:00007244       ??_R2bad_alloc@std@@8      10027244     LIBCMT:throw_bad_alloc.obj
 0002:00007250       ??_R1A@?0A@EA@bad_alloc@std@@8 10027250     LIBCMT:throw_bad_alloc.obj
 0002:0000726c       ??_R4bad_array_new_length@std@@6B@ 1002726c     LIBCMT:throw_bad_alloc.obj
 0002:00007280       ??_R3bad_array_new_length@std@@8 10027280     LIBCMT:throw_bad_alloc.obj
 0002:00007290       ??_R2bad_array_new_length@std@@8 10027290     LIBCMT:throw_bad_alloc.obj
 0002:000072a0       ??_R1A@?0A@EA@bad_array_new_length@std@@8 100272a0     LIBCMT:throw_bad_alloc.obj
 0002:000072bc       ??_R4type_info@@6B@        100272bc     LIBCMT:std_type_info_static.obj
 0002:000072d0       ??_R3type_info@@8          100272d0     LIBCMT:std_type_info_static.obj
 0002:000072e0       ??_R2type_info@@8          100272e0     LIBCMT:std_type_info_static.obj
 0002:000072e8       ??_R1A@?0A@EA@type_info@@8 100272e8     LIBCMT:std_type_info_static.obj
 0002:00007304       ??_R4bad_exception@std@@6B@ 10027304     libvcruntime:frame.obj
 0002:00007318       ??_R3bad_exception@std@@8  10027318     libvcruntime:frame.obj
 0002:00007328       ??_R2bad_exception@std@@8  10027328     libvcruntime:frame.obj
 0002:00007334       ??_R1A@?0A@EA@bad_exception@std@@8 10027334     libvcruntime:frame.obj
 0002:00007350       ___safe_se_handler_table   10027350     <linker-defined>
 0002:0000737c       ___volatile_metadata       1002737c     <linker-defined>
 0002:000077b4       ___rtc_iaa                 100277b4     LIBCMT:initsect.obj
 0002:000077b8       ___rtc_izz                 100277b8     LIBCMT:initsect.obj
 0002:000077bc       ___rtc_taa                 100277bc     LIBCMT:initsect.obj
 0002:000077c0       ___rtc_tzz                 100277c0     LIBCMT:initsect.obj
 0002:000077c4       __tls_start                100277c4     LIBCMT:tlssup.obj
 0002:000077c8       __Init_thread_epoch        100277c8     LIBCMT:thread_safe_statics.obj
 0002:000077cc       __tls_end                  100277cc     LIBCMT:tlssup.obj
 0002:000078cc       __TI2?AVbad_alloc@std@@    100278cc     LIBCMT:throw_bad_alloc.obj
 0002:000078dc       __CTA2?AVbad_alloc@std@@   100278dc     LIBCMT:throw_bad_alloc.obj
 0002:000078e8       __CT??_R0?AVbad_alloc@std@@@8??0bad_alloc@std@@QAE@ABV01@@Z12 100278e8     LIBCMT:throw_bad_alloc.obj
 0002:00007904       __CT??_R0?AVexception@std@@@8??0exception@std@@QAE@ABV01@@Z12 10027904     LIBCMT:throw_bad_alloc.obj
 0002:00007920       __TI3?AVbad_array_new_length@std@@ 10027920     LIBCMT:throw_bad_alloc.obj
 0002:00007930       __CTA3?AVbad_array_new_length@std@@ 10027930     LIBCMT:throw_bad_alloc.obj
 0002:00007940       __CT??_R0?AVbad_array_new_length@std@@@8??0bad_array_new_length@std@@QAE@ABV01@@Z12 10027940     LIBCMT:throw_bad_alloc.obj
 0002:00007a64       __TI2?AVbad_exception@std@@ 10027a64     libvcruntime:frame.obj
 0002:00007a74       __CTA2?AVbad_exception@std@@ 10027a74     libvcruntime:frame.obj
 0002:00007a80       __CT??_R0?AVbad_exception@std@@@8??0bad_exception@std@@QAE@ABV01@@Z12 10027a80     libvcruntime:frame.obj
 0002:00007eac       ___pobjMapEntryFirst       10027eac     OposVariant.obj
 0002:00007eb0       ___pobjMapEntryLast        10027eb0     OposVariant.obj
 0002:00007f68       __IMPORT_DESCRIPTOR_KERNEL32 10027f68     kernel32:KERNEL32.dll
 0002:00007f7c       __IMPORT_DESCRIPTOR_USER32 10027f7c     user32:USER32.dll
 0002:00007f90       __IMPORT_DESCRIPTOR_GDI32  10027f90     gdi32:GDI32.dll
 0002:00007fa4       __IMPORT_DESCRIPTOR_ADVAPI32 10027fa4     advapi32:ADVAPI32.dll
 0002:00007fb8       __IMPORT_DESCRIPTOR_ole32  10027fb8     ole32:ole32.dll
 0002:00007fcc       __IMPORT_DESCRIPTOR_OLEAUT32 10027fcc     oleaut32:OLEAUT32.dll
 0002:00007fe0       __NULL_IMPORT_DESCRIPTOR   10027fe0     kernel32:KERNEL32.dll
 0003:00000000       ?rcDefault@CWindow@ATL@@2UtagRECT@@A 10029000     Totals.obj
 0003:00000010       ?s_Claim@?7??GetIDsOfNames@CComTypeInfoHolder@ATL@@QAEJABU_GUID@@PAPA_WIKPAJ@Z@4PA_WA 10029010     Totals.obj
 0003:00000028       ?s_Release@?7??GetIDsOfNames@CComTypeInfoHolder@ATL@@QAEJABU_GUID@@PAPA_WIKPAJ@Z@4PA_WA 10029028     Totals.obj
 0003:00000044       ?_tih@?$IDispatchImpl@UIOPOSTotals@@$1?IID_IOPOSTotals@@3U_GUID@@B$1?LIBID_OposTotals_CCO@@3U3@B$00$0A@VCComTypeInfoHolder@ATL@@@ATL@@1VCComTypeInfoHolder@2@A 10029044     Totals.obj
 0003:00000060       ?_tih@?$IProvideClassInfo2Impl@$1?CLSID_OPOSTotals@@3U_GUID@@B$1?DIID__IOPOSTotalsEvents@@3U2@B$1?LIBID_OposTotals_CCO@@3U2@B$00$0A@VCComTypeInfoHolder@ATL@@@ATL@@1VCComTypeInfoHolder@2@A 10029060     Totals.obj
 0003:0000007c       ?vszContents@?6??Save@?$IPersistStorageImpl@VCOPOSTotals@@@ATL@@UAGJPAUIStorage@@H@Z@4PB_WB 1002907c     Totals.obj
 0003:00000080       ?wc@?1??GetWndClassInfo@?$CWindowImpl@VCOPOSTotals@@VCWindow@ATL@@V?$CWinTraits@$0FGAAAAAA@$0A@@3@@ATL@@SAAAU_ATL_WNDCLASSINFOW@3@XZ@4U43@A 10029080     Totals.obj
 0003:00000158       ?g_WindowName@@3PA_WA      10029158     TotalsImpl.obj
 0003:00000174       ?g_ControlVersion@@3JA     10029174     TotalsImpl.obj
 0003:00000178       ?g_ControlDescription@@3PADA 10029178     TotalsImpl.obj
 0003:00000268       ___scrt_native_dllmain_reason 10029268     LIBCMT:utility.obj
 0003:0000026c       __Init_global_epoch        1002926c     LIBCMT:thread_safe_statics.obj
 0003:00000270       ___security_cookie_complement 10029270     LIBCMT:gs_cookie.obj
 0003:00000274       ___security_cookie         10029274     LIBCMT:gs_cookie.obj
 0003:00000278       ___isa_enabled             10029278     LIBCMT:cpu_disp.obj
 0003:00000290       __NLG_Destination          10029290     libvcruntime:exsup.obj
 0003:000002a8       ___abort_behavior          100292a8     libucrt:abort.obj
 0003:000002b8       ___acrt_initial_locale_data 100292b8     libucrt:nlsdata.obj
 0003:00000370       ___acrt_initial_locale_pointers 10029370     libucrt:nlsdata.obj
 0003:00000378       ___acrt_wide_c_locale_string 10029378     libucrt:nlsdata.obj
 0003:00000380       __iob                      10029380     libucrt:_file.obj
 0003:00000428       ___acrt_initial_multibyte_data 10029428     libucrt:mbctype.obj
 0003:00000948       ___acrt_lconv_c            10029948     libucrt:localeconv.obj
 0003:00000998       ___acrt_lconv_static_decimal 10029998     libucrt:localeconv.obj
 0003:0000099c       ___acrt_lconv_static_W_decimal 1002999c     libucrt:localeconv.obj
 0003:000009a0       ___globallocalestatus      100299a0     libucrt:glstatus.obj
 0003:000009b0       __lookuptrailbytes         100299b0     libucrt:read.obj
 0003:00000ac0       __fltused                  10029ac0     LIBCMT:fltused.obj
 0003:00000ad0       ??_R0?AVbad_alloc@std@@@8  10029ad0     LIBCMT:throw_bad_alloc.obj
 0003:00000aec       ??_R0?AVexception@std@@@8  10029aec     LIBCMT:throw_bad_alloc.obj
 0003:00000b08       ??_R0?AVbad_array_new_length@std@@@8 10029b08     LIBCMT:throw_bad_alloc.obj
 0003:00000b30       ??_R0?AVbad_exception@std@@@8 10029b30     libvcruntime:frame.obj
 0003:00000b50       ??_R0?AVtype_info@@@8      10029b50     LIBCMT:std_type_info_static.obj
 0003:00000b68       ?m_bInitFailed@CAtlBaseModule@ATL@@2_NA 10029b68     OposVariant.obj
 0003:00000b6c       ?_pPerfRegFunc@ATL@@3P6AJPAUHINSTANCE__@@@ZA 10029b6c     OposVariant.obj
 0003:00000b70       ?_pPerfUnRegFunc@ATL@@3P6AJXZA 10029b70     OposVariant.obj
 0003:00000b74       ?_AtlRegisterPerUser@ATL@@3_NA 10029b74     OposVariant.obj
 0003:00000b78       ?_pAtlModule@ATL@@3PAVCAtlModule@1@A 10029b78     OposVariant.obj
 0003:00000b7c       ?_pModule@ATL@@3PAVCComModule@1@A 10029b7c     OposVariant.obj
 0003:00000b80       ?_AtlComModule@ATL@@3VCAtlComModule@1@A 10029b80     OposVariant.obj
 0003:00000ba8       ?_AtlWinModule@ATL@@3VCAtlWinModule@1@A 10029ba8     OposVariant.obj
 0003:00000bd4       ?m_libid@CAtlModule@ATL@@2U_GUID@@A 10029bd4     Totals.obj
 0003:00000be4       ?_entries@?1??GetConnMap@COPOSTotals@@SAPBU_ATL_CONNMAP_ENTRY@ATL@@PAH@Z@4QBU34@B 10029be4     Totals.obj
 0003:00000bf0       ?$TSS0@?1??GetConnMap@COPOSTotals@@SAPBU_ATL_CONNMAP_ENTRY@ATL@@PAH@Z@4HA 10029bf0     Totals.obj
 0003:00000bf8       ?_OptionsStorage@?1??__local_stdio_printf_options@@9@4_KA 10029bf8     Totals.obj
 0003:00000c00       ?pfnRegDeleteKeyEx@?1??DeleteSubKey@CRegKey@ATL@@QAEJPB_W@Z@4P6GJPAUHKEY__@@0KK@ZA 10029c00     Totals.obj
 0003:00000c04       ?bInitialized@?1??DeleteSubKey@CRegKey@ATL@@QAEJPB_W@Z@4_NA 10029c04     Totals.obj
 0003:00000c08       ?_Module@@3VCComModule@ATL@@A 10029c08     Totals.obj
 0003:00000c38       ?pConnMap@?$IConnectionPointContainerImpl@VCOPOSTotals@@@ATL@@0PBU_ATL_CONNMAP_ENTRY@2@B 10029c38     Totals.obj
 0003:00000c3c       ?s_nInstances@COPOSTotals@@1HA 10029c3c     TotalsImpl.obj
 0003:00000c40       ___scrt_current_native_startup_state 10029c40     LIBCMT:utility.obj
 0003:00000c44       ___scrt_native_startup_lock 10029c44     LIBCMT:utility.obj
 0003:00000fac       __tls_index                10029fac     LIBCMT:tlssup.obj
 0003:00000fb4       ___isa_available           10029fb4     LIBCMT:cpu_disp.obj
 0003:00000fb8       ___favor                   10029fb8     LIBCMT:cpu_disp.obj
 0003:00000fbc       ___scrt_debugger_hook_flag 10029fbc     LIBCMT:utility_desktop.obj
 0003:00000fc0       ?__type_info_root_node@@3U__type_info_node@@A 10029fc0     LIBCMT:tncleanup.obj
 0003:00000fc8       ?_OptionsStorage@?1??__local_stdio_scanf_options@@9@4_KA 10029fc8     LIBCMT:default_local_stdio_options.obj
 0003:00000fd0       ?_AtlBaseModule@ATL@@3VCAtlBaseModule@1@A 10029fd0     atls:atlbase.obj
 0003:00001008       ?__AtlThunkPool@@3PAT_SLIST_HEADER@@A 1002a008     atls:atlthunk.obj
 0003:00001020       ___@@_PchSym_@00@UzABUPdlipUBAUhUrmgvinvwrzgvUexgllohUzgohOmzgrevkilqPBACIAJCBDBUlyqiUcIGUhgwzucOlyq@4B2008FD98C1DD4 1002a020     atls:stdafx.obj
 0003:00001024       ?__WinRTOutOfMemoryExceptionCallback@@3P6GPAXXZA 1002a024     libvcruntime:ehhelpers.obj
 0003:00001028       ___pPurecall               1002a028     libvcruntime:purevirt_data.obj
 0003:00001070       ?m_pGetParameter@UnDecorator@@0P6APADJ@ZA 1002a070     libvcruntime:undname.obj
 0003:00001074       ?m_CHPENameOffset@UnDecorator@@0KA 1002a074     libvcruntime:undname.obj
 0003:00001078       ?m_recursionLevel@UnDecorator@@0KA 1002a078     libvcruntime:undname.obj
 0003:0000107c       ?pArgList@UnDecorator@@0PAVReplicator@@A 1002a07c     libvcruntime:undname.obj
 0003:00001080       ?pZNameList@UnDecorator@@0PAVReplicator@@A 1002a080     libvcruntime:undname.obj
 0003:00001084       ?pTemplateArgList@UnDecorator@@0PAVReplicator@@A 1002a084     libvcruntime:undname.obj
 0003:00001088       ?gName@UnDecorator@@0PBDB  1002a088     libvcruntime:undname.obj
 0003:0000108c       ?name@UnDecorator@@0PBDB   1002a08c     libvcruntime:undname.obj
 0003:00001090       ?disableFlags@UnDecorator@@0KA 1002a090     libvcruntime:undname.obj
 0003:00001094       ?fExplicitTemplateParams@UnDecorator@@0_NA 1002a094     libvcruntime:undname.obj
 0003:00001095       ?fGetTemplateArgumentList@UnDecorator@@0_NA 1002a095     libvcruntime:undname.obj
 0003:000010d8       ?c_exit_complete@?1???R<lambda_6e4b09c48022b2350581041d5f6b0c4c>@@QBE@XZ@4_NA 1002a0d8     libucrt:exit.obj
 0003:000011e8       __environ_table            1002a1e8     libucrt:environment_initialization.obj
 0003:000011ec       __wenviron_table           1002a1ec     libucrt:environment_initialization.obj
 0003:000011f0       ___dcrt_initial_wide_environment 1002a1f0     libucrt:environment_initialization.obj
 0003:000011f4       ___dcrt_initial_narrow_environment 1002a1f4     libucrt:environment_initialization.obj
 0003:000011f8       ___acrt_atexit_table       1002a1f8     libucrt:onexit.obj
 0003:00001204       ___acrt_at_quick_exit_table 1002a204     libucrt:onexit.obj
 0003:00001214       ___acrt_locale_changed_data 1002a214     libucrt:wsetlocale.obj
 0003:00001218       ___acrt_current_locale_data 1002a218     libucrt:nlsdata.obj
 0003:00001300       __nstream                  1002a300     libucrt:_file.obj
 0003:00001304       ___piob                    1002a304     libucrt:_file.obj
 0003:0000130c       ___acrt_stdout_buffer      1002a30c     libucrt:_sftbuf.obj
 0003:00001310       ___acrt_stderr_buffer      1002a310     libucrt:_sftbuf.obj
 0003:00001318       ___pioinfo                 1002a318     libucrt:ioinit.obj
 0003:00001518       __nhandle                  1002a518     libucrt:ioinit.obj
 0003:00001674       __mbctype                  1002a674     libucrt:mbctype.obj
 0003:00001678       __mbcasemap                1002a678     libucrt:mbctype.obj
 0003:0000167c       ___acrt_current_multibyte_data 1002a67c     libucrt:mbctype.obj
 0003:00001688       __pgmptr                   1002a688     libucrt:argv_data.obj
 0003:0000168c       ___argc                    1002a68c     libucrt:argv_data.obj
 0003:00001690       ___argv                    1002a690     libucrt:argv_data.obj
 0003:00001694       ___wargv                   1002a694     libucrt:argv_data.obj
 0003:00001698       __acmdln                   1002a698     libucrt:argv_data.obj
 0003:0000169c       __wcmdln                   1002a69c     libucrt:argv_data.obj
 0003:000016a0       ___acrt_heap               1002a6a0     libucrt:heap_handle.obj
 0003:000016b8       ___acrt_lconv_static_null  1002a6b8     libucrt:localeconv.obj
 0003:000016bc       ___acrt_lconv_static_W_null 1002a6bc     libucrt:localeconv.obj
 0003:000016d0       ___fastflag                1002a6d0     libucrt:fp_flags.obj
 0003:000016d8       ___dyn_tls_init_callback   1002a6d8     <common>
 0003:000016dc       ___scrt_ucrt_dll_is_in_use 1002a6dc     <common>
 0003:000016e0       __pmatherr                 1002a6e0     <common>
 0003:000016e4       ___use_sse2_mathfcns       1002a6e4     <common>

 entry point at        0001:0000bf9b

 Static symbols

 0000:fffce000       .debug$S                   10000000     OPOSTotals.exp
 0000:fffce000       .debug$S                   10000000     advapi32:ADVAPI32.dll
 0000:fffce000       .debug$S                   10000000     advapi32:ADVAPI32.dll
 0000:fffce000       .debug$S                   10000000     advapi32:ADVAPI32.dll
 0000:fffce000       .debug$S                   10000000     advapi32:ADVAPI32.dll
 0000:fffce000       .debug$S                   10000000     advapi32:ADVAPI32.dll
 0000:fffce000       .debug$S                   10000000     advapi32:ADVAPI32.dll
 0000:fffce000       .debug$S                   10000000     advapi32:ADVAPI32.dll
 0000:fffce000       .debug$S                   10000000     advapi32:ADVAPI32.dll
 0000:fffce000       .debug$S                   10000000     advapi32:ADVAPI32.dll
 0000:fffce000       .debug$S                   10000000     gdi32:GDI32.dll
 0000:fffce000       .debug$S                   10000000     gdi32:GDI32.dll
 0000:fffce000       .debug$S                   10000000     gdi32:GDI32.dll
 0000:fffce000       .debug$S                   10000000     gdi32:GDI32.dll
 0000:fffce000       .debug$S                   10000000     gdi32:GDI32.dll
 0000:fffce000       .debug$S                   10000000     gdi32:GDI32.dll
 0000:fffce000       .debug$S                   10000000     gdi32:GDI32.dll
 0000:fffce000       .debug$S                   10000000     gdi32:GDI32.dll
 0000:fffce000       .debug$S                   10000000     gdi32:GDI32.dll
 0000:fffce000       .debug$S                   10000000     gdi32:GDI32.dll
 0000:fffce000       .debug$S                   10000000     gdi32:GDI32.dll
 0000:fffce000       .debug$S                   10000000     gdi32:GDI32.dll
 0000:fffce000       .debug$S                   10000000     gdi32:GDI32.dll
 0000:fffce000       .debug$S                   10000000     gdi32:GDI32.dll
 0000:fffce000       .debug$S                   10000000     gdi32:GDI32.dll
 0000:fffce000       .debug$S                   10000000     gdi32:GDI32.dll
 0000:fffce000       .debug$S                   10000000     gdi32:GDI32.dll
 0000:fffce000       .debug$S                   10000000     gdi32:GDI32.dll
 0000:fffce000       .debug$S                   10000000     gdi32:GDI32.dll
 0000:fffce000       .debug$S                   10000000     kernel32:KERNEL32.dll
 0000:fffce000       .debug$S                   10000000     kernel32:KERNEL32.dll
 0000:fffce000       .debug$S                   10000000     kernel32:KERNEL32.dll
 0000:fffce000       .debug$S                   10000000     kernel32:KERNEL32.dll
 0000:fffce000       .debug$S                   10000000     kernel32:KERNEL32.dll
 0000:fffce000       .debug$S                   10000000     kernel32:KERNEL32.dll
 0000:fffce000       .debug$S                   10000000     kernel32:KERNEL32.dll
 0000:fffce000       .debug$S                   10000000     kernel32:KERNEL32.dll
 0000:fffce000       .debug$S                   10000000     kernel32:KERNEL32.dll
 0000:fffce000       .debug$S                   10000000     kernel32:KERNEL32.dll
 0000:fffce000       .debug$S                   10000000     kernel32:KERNEL32.dll
 0000:fffce000       .debug$S                   10000000     kernel32:KERNEL32.dll
 0000:fffce000       .debug$S                   10000000     kernel32:KERNEL32.dll
 0000:fffce000       .debug$S                   10000000     kernel32:KERNEL32.dll
 0000:fffce000       .debug$S                   10000000     kernel32:KERNEL32.dll
 0000:fffce000       .debug$S                   10000000     kernel32:KERNEL32.dll
 0000:fffce000       .debug$S                   10000000     kernel32:KERNEL32.dll
 0000:fffce000       .debug$S                   10000000     kernel32:KERNEL32.dll
 0000:fffce000       .debug$S                   10000000     kernel32:KERNEL32.dll
 0000:fffce000       .debug$S                   10000000     kernel32:KERNEL32.dll
 0000:fffce000       .debug$S                   10000000     kernel32:KERNEL32.dll
 0000:fffce000       .debug$S                   10000000     kernel32:KERNEL32.dll
 0000:fffce000       .debug$S                   10000000     kernel32:KERNEL32.dll
 0000:fffce000       .debug$S                   10000000     kernel32:KERNEL32.dll
 0000:fffce000       .debug$S                   10000000     kernel32:KERNEL32.dll
 0000:fffce000       .debug$S                   10000000     kernel32:KERNEL32.dll
 0000:fffce000       .debug$S                   10000000     kernel32:KERNEL32.dll
 0000:fffce000       .debug$S                   10000000     kernel32:KERNEL32.dll
 0000:fffce000       .debug$S                   10000000     kernel32:KERNEL32.dll
 0000:fffce000       .debug$S                   10000000     kernel32:KERNEL32.dll
 0000:fffce000       .debug$S                   10000000     kernel32:KERNEL32.dll
 0000:fffce000       .debug$S                   10000000     kernel32:KERNEL32.dll
 0000:fffce000       .debug$S                   10000000     kernel32:KERNEL32.dll
 0000:fffce000       .debug$S                   10000000     kernel32:KERNEL32.dll
 0000:fffce000       .debug$S                   10000000     kernel32:KERNEL32.dll
 0000:fffce000       .debug$S                   10000000     kernel32:KERNEL32.dll
 0000:fffce000       .debug$S                   10000000     kernel32:KERNEL32.dll
 0000:fffce000       .debug$S                   10000000     kernel32:KERNEL32.dll
 0000:fffce000       .debug$S                   10000000     kernel32:KERNEL32.dll
 0000:fffce000       .debug$S                   10000000     kernel32:KERNEL32.dll
 0000:fffce000       .debug$S                   10000000     kernel32:KERNEL32.dll
 0000:fffce000       .debug$S                   10000000     kernel32:KERNEL32.dll
 0000:fffce000       .debug$S                   10000000     kernel32:KERNEL32.dll
 0000:fffce000       .debug$S                   10000000     kernel32:KERNEL32.dll
 0000:fffce000       .debug$S                   10000000     kernel32:KERNEL32.dll
 0000:fffce000       .debug$S                   10000000     kernel32:KERNEL32.dll
 0000:fffce000       .debug$S                   10000000     kernel32:KERNEL32.dll
 0000:fffce000       .debug$S                   10000000     kernel32:KERNEL32.dll
 0000:fffce000       .debug$S                   10000000     kernel32:KERNEL32.dll
 0000:fffce000       .debug$S                   10000000     kernel32:KERNEL32.dll
 0000:fffce000       .debug$S                   10000000     kernel32:KERNEL32.dll
 0000:fffce000       .debug$S                   10000000     kernel32:KERNEL32.dll
 0000:fffce000       .debug$S                   10000000     kernel32:KERNEL32.dll
 0000:fffce000       .debug$S                   10000000     kernel32:KERNEL32.dll
 0000:fffce000       .debug$S                   10000000     kernel32:KERNEL32.dll
 0000:fffce000       .debug$S                   10000000     kernel32:KERNEL32.dll
 0000:fffce000       .debug$S                   10000000     kernel32:KERNEL32.dll
 0000:fffce000       .debug$S                   10000000     kernel32:KERNEL32.dll
 0000:fffce000       .debug$S                   10000000     kernel32:KERNEL32.dll
 0000:fffce000       .debug$S                   10000000     kernel32:KERNEL32.dll
 0000:fffce000       .debug$S                   10000000     kernel32:KERNEL32.dll
 0000:fffce000       .debug$S                   10000000     kernel32:KERNEL32.dll
 0000:fffce000       .debug$S                   10000000     kernel32:KERNEL32.dll
 0000:fffce000       .debug$S                   10000000     kernel32:KERNEL32.dll
 0000:fffce000       .debug$S                   10000000     kernel32:KERNEL32.dll
 0000:fffce000       .debug$S                   10000000     kernel32:KERNEL32.dll
 0000:fffce000       .debug$S                   10000000     kernel32:KERNEL32.dll
 0000:fffce000       .debug$S                   10000000     kernel32:KERNEL32.dll
 0000:fffce000       .debug$S                   10000000     kernel32:KERNEL32.dll
 0000:fffce000       .debug$S                   10000000     kernel32:KERNEL32.dll
 0000:fffce000       .debug$S                   10000000     kernel32:KERNEL32.dll
 0000:fffce000       .debug$S                   10000000     kernel32:KERNEL32.dll
 0000:fffce000       .debug$S                   10000000     kernel32:KERNEL32.dll
 0000:fffce000       .debug$S                   10000000     kernel32:KERNEL32.dll
 0000:fffce000       .debug$S                   10000000     kernel32:KERNEL32.dll
 0000:fffce000       .debug$S                   10000000     kernel32:KERNEL32.dll
 0000:fffce000       .debug$S                   10000000     kernel32:KERNEL32.dll
 0000:fffce000       .debug$S                   10000000     kernel32:KERNEL32.dll
 0000:fffce000       .debug$S                   10000000     kernel32:KERNEL32.dll
 0000:fffce000       .debug$S                   10000000     kernel32:KERNEL32.dll
 0000:fffce000       .debug$S                   10000000     kernel32:KERNEL32.dll
 0000:fffce000       .debug$S                   10000000     kernel32:KERNEL32.dll
 0000:fffce000       .debug$S                   10000000     kernel32:KERNEL32.dll
 0000:fffce000       .debug$S                   10000000     kernel32:KERNEL32.dll
 0000:fffce000       .debug$S                   10000000     kernel32:KERNEL32.dll
 0000:fffce000       .debug$S                   10000000     kernel32:KERNEL32.dll
 0000:fffce000       .debug$S                   10000000     kernel32:KERNEL32.dll
 0000:fffce000       .debug$S                   10000000     kernel32:KERNEL32.dll
 0000:fffce000       .debug$S                   10000000     kernel32:KERNEL32.dll
 0000:fffce000       .debug$S                   10000000     kernel32:KERNEL32.dll
 0000:fffce000       .debug$S                   10000000     kernel32:KERNEL32.dll
 0000:fffce000       .debug$S                   10000000     kernel32:KERNEL32.dll
 0000:fffce000       .debug$S                   10000000     kernel32:KERNEL32.dll
 0000:fffce000       .debug$S                   10000000     kernel32:KERNEL32.dll
 0000:fffce000       .debug$S                   10000000     kernel32:KERNEL32.dll
 0000:fffce000       .debug$S                   10000000     kernel32:KERNEL32.dll
 0000:fffce000       .debug$S                   10000000     kernel32:KERNEL32.dll
 0000:fffce000       .debug$S                   10000000     kernel32:KERNEL32.dll
 0000:fffce000       .debug$S                   10000000     kernel32:KERNEL32.dll
 0000:fffce000       .debug$S                   10000000     kernel32:KERNEL32.dll
 0000:fffce000       .debug$S                   10000000     kernel32:KERNEL32.dll
 0000:fffce000       .debug$S                   10000000     kernel32:KERNEL32.dll
 0000:fffce000       .debug$S                   10000000     kernel32:KERNEL32.dll
 0000:fffce000       .debug$S                   10000000     kernel32:KERNEL32.dll
 0000:fffce000       .debug$S                   10000000     kernel32:KERNEL32.dll
 0000:fffce000       .debug$S                   10000000     kernel32:KERNEL32.dll
 0000:fffce000       .debug$S                   10000000     ole32:ole32.dll
 0000:fffce000       .debug$S                   10000000     ole32:ole32.dll
 0000:fffce000       .debug$S                   10000000     ole32:ole32.dll
 0000:fffce000       .debug$S                   10000000     ole32:ole32.dll
 0000:fffce000       .debug$S                   10000000     ole32:ole32.dll
 0000:fffce000       .debug$S                   10000000     ole32:ole32.dll
 0000:fffce000       .debug$S                   10000000     ole32:ole32.dll
 0000:fffce000       .debug$S                   10000000     ole32:ole32.dll
 0000:fffce000       .debug$S                   10000000     ole32:ole32.dll
 0000:fffce000       .debug$S                   10000000     ole32:ole32.dll
 0000:fffce000       .debug$S                   10000000     ole32:ole32.dll
 0000:fffce000       .debug$S                   10000000     ole32:ole32.dll
 0000:fffce000       .debug$S                   10000000     ole32:ole32.dll
 0000:fffce000       .debug$S                   10000000     ole32:ole32.dll
 0000:fffce000       .debug$S                   10000000     oleaut32:OLEAUT32.dll
 0000:fffce000       .debug$S                   10000000     oleaut32:OLEAUT32.dll
 0000:fffce000       .debug$S                   10000000     oleaut32:OLEAUT32.dll
 0000:fffce000       .debug$S                   10000000     oleaut32:OLEAUT32.dll
 0000:fffce000       .debug$S                   10000000     oleaut32:OLEAUT32.dll
 0000:fffce000       .debug$S                   10000000     oleaut32:OLEAUT32.dll
 0000:fffce000       .debug$S                   10000000     oleaut32:OLEAUT32.dll
 0000:fffce000       .debug$S                   10000000     oleaut32:OLEAUT32.dll
 0000:fffce000       .debug$S                   10000000     oleaut32:OLEAUT32.dll
 0000:fffce000       .debug$S                   10000000     oleaut32:OLEAUT32.dll
 0000:fffce000       .debug$S                   10000000     oleaut32:OLEAUT32.dll
 0000:fffce000       .debug$S                   10000000     oleaut32:OLEAUT32.dll
 0000:fffce000       .debug$S                   10000000     oleaut32:OLEAUT32.dll
 0000:fffce000       .debug$S                   10000000     oleaut32:OLEAUT32.dll
 0000:fffce000       .debug$S                   10000000     oleaut32:OLEAUT32.dll
 0000:fffce000       .debug$S                   10000000     oleaut32:OLEAUT32.dll
 0000:fffce000       .debug$S                   10000000     user32:USER32.dll
 0000:fffce000       .debug$S                   10000000     user32:USER32.dll
 0000:fffce000       .debug$S                   10000000     user32:USER32.dll
 0000:fffce000       .debug$S                   10000000     user32:USER32.dll
 0000:fffce000       .debug$S                   10000000     user32:USER32.dll
 0000:fffce000       .debug$S                   10000000     user32:USER32.dll
 0000:fffce000       .debug$S                   10000000     user32:USER32.dll
 0000:fffce000       .debug$S                   10000000     user32:USER32.dll
 0000:fffce000       .debug$S                   10000000     user32:USER32.dll
 0000:fffce000       .debug$S                   10000000     user32:USER32.dll
 0000:fffce000       .debug$S                   10000000     user32:USER32.dll
 0000:fffce000       .debug$S                   10000000     user32:USER32.dll
 0000:fffce000       .debug$S                   10000000     user32:USER32.dll
 0000:fffce000       .debug$S                   10000000     user32:USER32.dll
 0000:fffce000       .debug$S                   10000000     user32:USER32.dll
 0000:fffce000       .debug$S                   10000000     user32:USER32.dll
 0000:fffce000       .debug$S                   10000000     user32:USER32.dll
 0000:fffce000       .debug$S                   10000000     user32:USER32.dll
 0000:fffce000       .debug$S                   10000000     user32:USER32.dll
 0000:fffce000       .debug$S                   10000000     user32:USER32.dll
 0000:fffce000       .debug$S                   10000000     user32:USER32.dll
 0000:fffce000       .debug$S                   10000000     user32:USER32.dll
 0000:fffce000       .debug$S                   10000000     user32:USER32.dll
 0000:fffce000       .debug$S                   10000000     user32:USER32.dll
 0000:fffce000       .debug$S                   10000000     user32:USER32.dll
 0000:fffce000       .debug$S                   10000000     user32:USER32.dll
 0000:fffce000       .debug$S                   10000000     user32:USER32.dll
 0000:fffce000       .debug$S                   10000000     user32:USER32.dll
 0000:fffce000       .debug$S                   10000000     user32:USER32.dll
 0000:fffce000       .debug$S                   10000000     user32:USER32.dll
 0000:fffce000       .debug$S                   10000000     user32:USER32.dll
 0000:fffce000       .debug$S                   10000000     user32:USER32.dll
 0000:fffce000       .debug$S                   10000000     user32:USER32.dll
 0000:fffce000       .debug$S                   10000000     user32:USER32.dll
 0000:fffce000       .debug$S                   10000000     user32:USER32.dll
 0001:00000000       ??__E_AtlComModule@ATL@@YAXXZ 10001000 f   OposVariant.obj
 0001:00000016       ??__E_AtlWinModule@ATL@@YAXXZ 10001016 f   OposVariant.obj
 0001:0000002c       ??__E?pConnMap@?$IConnectionPointContainerImpl@VCOPOSTotals@@@ATL@@0PBU_ATL_CONNMAP_ENTRY@2@B@@YAXXZ 1000102c f   Totals.obj
 0001:0000003a       ??__E_Module@@YAXXZ        1000103a f   Totals.obj
 0001:00000064       ??__E_AtlBaseModule@ATL@@YAXXZ 10001064 f   atls:atlbase.obj
 0001:000013b8       $LN24                      100023b8     Totals.obj
 0001:000046df       $LN31                      100056df     Totals.obj
 0001:000046e3       $LN30                      100056e3     Totals.obj
 0001:00005737       $LN60                      10006737     Totals.obj
 0001:0000574f       $LN59                      1000674f     Totals.obj
 0001:000078f1       $LN50                      100088f1     Totals.obj
 0001:00007909       $LN49                      10008909     Totals.obj
 0001:00008fd0       $LN88                      10009fd0     Totals.obj
 0001:00008fe8       $LN87                      10009fe8     Totals.obj
 0001:000093a8       _memcpy_s                  1000a3a8 f   Totals.obj
 0001:0000b43b       ?find_pe_section@@YAPAU_IMAGE_SECTION_HEADER@@QAEI@Z 1000c43b f   LIBCMT:utility.obj
 0001:0000b75a       ?__scrt_initialize_thread_safe_statics@@YAHXZ 1000c75a f   LIBCMT:thread_safe_statics.obj
 0001:0000b781       ?__scrt_initialize_thread_safe_statics_platform_specific@@YAXXZ 1000c781 f   LIBCMT:thread_safe_statics.obj
 0001:0000b803       ?__scrt_uninitialize_thread_safe_statics@@YAXXZ 1000c803 f   LIBCMT:thread_safe_statics.obj
 0001:0000bb74       __catch$??2@YAPAXIABUnothrow_t@std@@@Z$0 1000cb74 f   LIBCMT:new_scalar_nothrow.obj
 0001:0000bbb0       $$000000                   1000cbb0     LIBCMT:sehprolg4gs.obj
 0001:0000bc00       $$000000                   1000cc00     LIBCMT:alloca16.obj
 0001:0000bc16       alloca_8                   1000cc16     LIBCMT:alloca16.obj
 0001:0000bc30       $$000000                   1000cc30     LIBCMT:chkstk.obj
 0001:0000bc44       cs10                       1000cc44     LIBCMT:chkstk.obj
 0001:0000bc52       cs20                       1000cc52     LIBCMT:chkstk.obj
 0001:0000bc5b       ?dllmain_crt_dispatch@@YGHQAUHINSTANCE__@@KQAX@Z 1000cc5b f   LIBCMT:dll_dllmain.obj
 0001:0000bcae       ?dllmain_crt_process_attach@@YAHQAUHINSTANCE__@@QAX@Z 1000ccae f   LIBCMT:dll_dllmain.obj
 0001:0000bdb5       ?dllmain_crt_process_detach@@YAH_N@Z 1000cdb5 f   LIBCMT:dll_dllmain.obj
 0001:0000be65       ?dllmain_dispatch@@YAHQAUHINSTANCE__@@KQAX@Z 1000ce65 f   LIBCMT:dll_dllmain.obj
 0001:0000bf70       ?dllmain_raw@@YGHQAUHINSTANCE__@@KQAX@Z 1000cf70 f   LIBCMT:dll_dllmain.obj
 0001:0000c300       $$000000                   1000d300     LIBCMT:sehprolg4.obj
 0001:0000c348       ___get_entropy             1000d348 f   LIBCMT:gs_support.obj
 0001:0000c63f       ??$GetProcAddressAll@P6GP6GJPAUHWND__@@IIJ@ZPAUAtlThunkData_t@@@Z@@YAP6GP6GJPAUHWND__@@IIJ@ZPAUAtlThunkData_t@@@ZPAP6GP6GJ0IIJ@Z1@Z@Z 1000d63f f   atls:atlthunk.obj
 0001:0000c63f       ??$GetProcAddressAll@P6GPAUAtlThunkData_t@@XZ@@YAP6GPAUAtlThunkData_t@@XZPAP6GPAU0@XZ@Z 1000d63f f   atls:atlthunk.obj
 0001:0000c63f       ??$GetProcAddressAll@P6GXPAUAtlThunkData_t@@@Z@@YAP6GXPAUAtlThunkData_t@@@ZPAP6GX0@Z@Z 1000d63f f   atls:atlthunk.obj
 0001:0000c63f       ??$GetProcAddressAll@P6GXPAUAtlThunkData_t@@PAXI@Z@@YAP6GXPAUAtlThunkData_t@@PAXI@ZPAP6GX01I@Z@Z 1000d63f f   atls:atlthunk.obj
 0001:0000c6ef       ?GetProcAddressSingle@@YA_NPAUHINSTANCE__@@PBDPAPAX@Z 1000d6ef f   atls:atlthunk.obj
 0001:0000c841       ?__InitializeThunkPool@@YAHXZ 1000d841 f   atls:atlthunk.obj
 0001:0000cca0       _ValidateLocalCookies      1000dca0 f   libvcruntime:chandler4.obj
 0001:0000e43a       $LN1250                    1000f43a     libvcruntime:memcmp.obj
 0001:0000e4c0       $$000000                   1000f4c0     libvcruntime:memcpy.obj
 0001:0000e4c0       $$000000                   1000f4c0     libvcruntime:memmove.obj
 0001:0000e4e0       CopyUp                     1000f4e0     libvcruntime:memcpy.obj
 0001:0000e4e0       CopyUp                     1000f4e0     libvcruntime:memmove.obj
 0001:0000e504       CopyUpLargeMov             1000f504     libvcruntime:memcpy.obj
 0001:0000e504       CopyUpLargeMov             1000f504     libvcruntime:memmove.obj
 0001:0000e517       CopyUpSSE2Check            1000f517     libvcruntime:memcpy.obj
 0001:0000e517       CopyUpSSE2Check            1000f517     libvcruntime:memmove.obj
 0001:0000e530       AtomChk                    1000f530     libvcruntime:memcpy.obj
 0001:0000e530       AtomChk                    1000f530     libvcruntime:memmove.obj
 0001:0000e556       PalignHead4                1000f556     libvcruntime:memcpy.obj
 0001:0000e556       PalignHead4                1000f556     libvcruntime:memmove.obj
 0001:0000e569       PalignHead8                1000f569     libvcruntime:memcpy.obj
 0001:0000e569       PalignHead8                1000f569     libvcruntime:memmove.obj
 0001:0000e580       PalignLoop                 1000f580     libvcruntime:memcpy.obj
 0001:0000e580       PalignLoop                 1000f580     libvcruntime:memmove.obj
 0001:0000e592       MovPalign12                1000f592     libvcruntime:memcpy.obj
 0001:0000e592       MovPalign12                1000f592     libvcruntime:memmove.obj
 0001:0000e59c       PalignLoop12               1000f59c     libvcruntime:memcpy.obj
 0001:0000e59c       PalignLoop12               1000f59c     libvcruntime:memmove.obj
 0001:0000e5ed       MovPalign8                 1000f5ed     libvcruntime:memcpy.obj
 0001:0000e5ed       MovPalign8                 1000f5ed     libvcruntime:memmove.obj
 0001:0000e5f8       PalignLoop8                1000f5f8     libvcruntime:memcpy.obj
 0001:0000e5f8       PalignLoop8                1000f5f8     libvcruntime:memmove.obj
 0001:0000e646       MovPalign4                 1000f646     libvcruntime:memcpy.obj
 0001:0000e646       MovPalign4                 1000f646     libvcruntime:memmove.obj
 0001:0000e650       PalignLoop4                1000f650     libvcruntime:memcpy.obj
 0001:0000e650       PalignLoop4                1000f650     libvcruntime:memmove.obj
 0001:0000e69c       PalignTail                 1000f69c     libvcruntime:memcpy.obj
 0001:0000e69c       PalignTail                 1000f69c     libvcruntime:memmove.obj
 0001:0000e6b4       PalignTail4                1000f6b4     libvcruntime:memcpy.obj
 0001:0000e6b4       PalignTail4                1000f6b4     libvcruntime:memmove.obj
 0001:0000e6c7       PalignTail8                1000f6c7     libvcruntime:memcpy.obj
 0001:0000e6c7       PalignTail8                1000f6c7     libvcruntime:memmove.obj
 0001:0000e6de       PalignTailLE3              1000f6de     libvcruntime:memcpy.obj
 0001:0000e6de       PalignTailLE3              1000f6de     libvcruntime:memmove.obj
 0001:0000e6e7       Dword_align                1000f6e7     libvcruntime:memcpy.obj
 0001:0000e6e7       Dword_align                1000f6e7     libvcruntime:memmove.obj
 0001:0000e6ef       Dword_up_align_loop        1000f6ef     libvcruntime:memcpy.obj
 0001:0000e6ef       Dword_up_align_loop        1000f6ef     libvcruntime:memmove.obj
 0001:0000e702       Dword_align_Ok             1000f702     libvcruntime:memcpy.obj
 0001:0000e702       Dword_align_Ok             1000f702     libvcruntime:memmove.obj
 0001:0000e71c       ByteCopyUp                 1000f71c     libvcruntime:memcpy.obj
 0001:0000e71c       ByteCopyUp                 1000f71c     libvcruntime:memmove.obj
 0001:0000e724       TrailingUpVec              1000f724     libvcruntime:memcpy.obj
 0001:0000e724       TrailingUpVec              1000f724     libvcruntime:memmove.obj
 0001:0000e734       TrailingUp0                1000f734     libvcruntime:memcpy.obj
 0001:0000e734       TrailingUp0                1000f734     libvcruntime:memmove.obj
 0001:0000e73c       TrailingUp1                1000f73c     libvcruntime:memcpy.obj
 0001:0000e73c       TrailingUp1                1000f73c     libvcruntime:memmove.obj
 0001:0000e748       TrailingUp2                1000f748     libvcruntime:memcpy.obj
 0001:0000e748       TrailingUp2                1000f748     libvcruntime:memmove.obj
 0001:0000e75c       TrailingUp3                1000f75c     libvcruntime:memcpy.obj
 0001:0000e75c       TrailingUp3                1000f75c     libvcruntime:memmove.obj
 0001:0000e774       CopyDown                   1000f774     libvcruntime:memcpy.obj
 0001:0000e774       CopyDown                   1000f774     libvcruntime:memmove.obj
 0001:0000e799       CopyDownNotAligned         1000f799     libvcruntime:memcpy.obj
 0001:0000e799       CopyDownNotAligned         1000f799     libvcruntime:memmove.obj
 0001:0000e7a0       CopyDownAlignLoop          1000f7a0     libvcruntime:memcpy.obj
 0001:0000e7a0       CopyDownAlignLoop          1000f7a0     libvcruntime:memmove.obj
 0001:0000e7ad       CopyDownAligned            1000f7ad     libvcruntime:memcpy.obj
 0001:0000e7ad       CopyDownAligned            1000f7ad     libvcruntime:memmove.obj
 0001:0000e7d0       TrailingDownVec            1000f7d0     libvcruntime:memcpy.obj
 0001:0000e7d0       TrailingDownVec            1000f7d0     libvcruntime:memmove.obj
 0001:0000e7e0       TrailingDown0              1000f7e0     libvcruntime:memcpy.obj
 0001:0000e7e0       TrailingDown0              1000f7e0     libvcruntime:memmove.obj
 0001:0000e7e8       TrailingDown1              1000f7e8     libvcruntime:memcpy.obj
 0001:0000e7e8       TrailingDown1              1000f7e8     libvcruntime:memmove.obj
 0001:0000e7f8       TrailingDown2              1000f7f8     libvcruntime:memcpy.obj
 0001:0000e7f8       TrailingDown2              1000f7f8     libvcruntime:memmove.obj
 0001:0000e80c       TrailingDown3              1000f80c     libvcruntime:memcpy.obj
 0001:0000e80c       TrailingDown3              1000f80c     libvcruntime:memmove.obj
 0001:0000e825       XmmMovLargeAlignTest       1000f825     libvcruntime:memcpy.obj
 0001:0000e825       XmmMovLargeAlignTest       1000f825     libvcruntime:memmove.obj
 0001:0000e82d       XmmMovAlignLoop            1000f82d     libvcruntime:memcpy.obj
 0001:0000e82d       XmmMovAlignLoop            1000f82d     libvcruntime:memmove.obj
 0001:0000e83c       XmmMovLargeLoop            1000f83c     libvcruntime:memcpy.obj
 0001:0000e83c       XmmMovLargeLoop            1000f83c     libvcruntime:memmove.obj
 0001:0000e8ac       XmmMovSmallTest            1000f8ac     libvcruntime:memcpy.obj
 0001:0000e8ac       XmmMovSmallTest            1000f8ac     libvcruntime:memmove.obj
 0001:0000e8b1       XmmMovSmallLoop            1000f8b1     libvcruntime:memcpy.obj
 0001:0000e8b1       XmmMovSmallLoop            1000f8b1     libvcruntime:memmove.obj
 0001:0000e8d4       CopyDownSmall              1000f8d4     libvcruntime:memcpy.obj
 0001:0000e8d4       CopyDownSmall              1000f8d4     libvcruntime:memmove.obj
 0001:0000e8dc       CopyDownDwordLoop          1000f8dc     libvcruntime:memcpy.obj
 0001:0000e8dc       CopyDownDwordLoop          1000f8dc     libvcruntime:memmove.obj
 0001:0000e8f1       CopyDownByteTest           1000f8f1     libvcruntime:memcpy.obj
 0001:0000e8f1       CopyDownByteTest           1000f8f1     libvcruntime:memmove.obj
 0001:0000e8f5       CopyDownByteLoop           1000f8f5     libvcruntime:memcpy.obj
 0001:0000e8f5       CopyDownByteLoop           1000f8f5     libvcruntime:memmove.obj
 0001:0000e904       CopyDownReturn             1000f904     libvcruntime:memcpy.obj
 0001:0000e904       CopyDownReturn             1000f904     libvcruntime:memmove.obj
 0001:0000e910       XmmCopy                    1000f910     libvcruntime:memcpy.obj
 0001:0000e910       XmmCopy                    1000f910     libvcruntime:memmove.obj
 0001:0000e91d       XmmCopyAligned             1000f91d     libvcruntime:memcpy.obj
 0001:0000e91d       XmmCopyAligned             1000f91d     libvcruntime:memmove.obj
 0001:0000e930       XmmCopyLargeLoop           1000f930     libvcruntime:memcpy.obj
 0001:0000e930       XmmCopyLargeLoop           1000f930     libvcruntime:memmove.obj
 0001:0000e98d       XmmCopySmallTest           1000f98d     libvcruntime:memcpy.obj
 0001:0000e98d       XmmCopySmallTest           1000f98d     libvcruntime:memmove.obj
 0001:0000e9a0       XmmCopySmallLoop           1000f9a0     libvcruntime:memcpy.obj
 0001:0000e9a0       XmmCopySmallLoop           1000f9a0     libvcruntime:memmove.obj
 0001:0000e9bb       CopyUpDwordMov             1000f9bb     libvcruntime:memcpy.obj
 0001:0000e9bb       CopyUpDwordMov             1000f9bb     libvcruntime:memmove.obj
 0001:0000e9c0       CopyUpDwordTest            1000f9c0     libvcruntime:memcpy.obj
 0001:0000e9c0       CopyUpDwordTest            1000f9c0     libvcruntime:memmove.obj
 0001:0000e9c7       CopyUpDwordLoop            1000f9c7     libvcruntime:memcpy.obj
 0001:0000e9c7       CopyUpDwordLoop            1000f9c7     libvcruntime:memmove.obj
 0001:0000e9d6       CopyUpByteTest             1000f9d6     libvcruntime:memcpy.obj
 0001:0000e9d6       CopyUpByteTest             1000f9d6     libvcruntime:memmove.obj
 0001:0000e9dd       CopyUpByteLoop             1000f9dd     libvcruntime:memcpy.obj
 0001:0000e9dd       CopyUpByteLoop             1000f9dd     libvcruntime:memmove.obj
 0001:0000e9f0       CopyUpReturn               1000f9f0     libvcruntime:memcpy.obj
 0001:0000e9f0       CopyUpReturn               1000f9f0     libvcruntime:memmove.obj
 0001:0000ea00       XmmCopyUnaligned           1000fa00     libvcruntime:memcpy.obj
 0001:0000ea00       XmmCopyUnaligned           1000fa00     libvcruntime:memmove.obj
 0001:0000ea13       XmmAlignByte               1000fa13     libvcruntime:memcpy.obj
 0001:0000ea13       XmmAlignByte               1000fa13     libvcruntime:memmove.obj
 0001:0000ea1c       XmmAlignDwordTest          1000fa1c     libvcruntime:memcpy.obj
 0001:0000ea1c       XmmAlignDwordTest          1000fa1c     libvcruntime:memmove.obj
 0001:0000ea21       XmmAlignDwordLoop          1000fa21     libvcruntime:memcpy.obj
 0001:0000ea21       XmmAlignDwordLoop          1000fa21     libvcruntime:memmove.obj
 0001:0000ea2e       XmmAlignAdjustCnt          1000fa2e     libvcruntime:memcpy.obj
 0001:0000ea2e       XmmAlignAdjustCnt          1000fa2e     libvcruntime:memmove.obj
 0001:0000ea40       $$000000                   1000fa40     libvcruntime:memset.obj
 0001:0000ea85       XMMMov                     1000fa85     libvcruntime:memset.obj
 0001:0000eac0       LargeRangeBytes            1000fac0     libvcruntime:memset.obj
 0001:0000eafd       XmmMovSmall                1000fafd     libvcruntime:memset.obj
 0001:0000eb10       XmmSmallLoop               1000fb10     libvcruntime:memset.obj
 0001:0000eb15       MidRangeBytes              1000fb15     libvcruntime:memset.obj
 0001:0000eb31       XMMTrailingBytes           1000fb31     libvcruntime:memset.obj
 0001:0000eb45       SmallMov                   1000fb45     libvcruntime:memset.obj
 0001:0000eb4d       ByteLoop                   1000fb4d     libvcruntime:memset.obj
 0001:0000eb5b       DwordTest                  1000fb5b     libvcruntime:memset.obj
 0001:0000eb6b       QwordTest                  1000fb6b     libvcruntime:memset.obj
 0001:0000eb80       QwordLoop                  1000fb80     libvcruntime:memset.obj
 0001:0000eb93       toend                      1000fb93     libvcruntime:memset.obj
 0001:0000f052       ?_FilterSetCurrentException@@YAKPAU_EXCEPTION_POINTERS@@E@Z 10010052 f   libvcruntime:ehhelpers.obj
 0001:0000f2a0       $$000000                   100102a0     libvcruntime:exsup4.obj
 0001:0000f2d2       _lu_top                    100102d2     libvcruntime:exsup4.obj
 0001:0000f331       _lu_done                   10010331     libvcruntime:exsup4.obj
 0001:0000f340       $$000000                   10010340     libvcruntime:exsup4.obj
 0001:0000f340       __unwind_handler4          10010340 f   libvcruntime:exsup4.obj
 0001:0000f390       $$000000                   10010390     libvcruntime:exsup4.obj
 0001:0000f3b0       $$000000                   100103b0     libvcruntime:exsup4.obj
 0001:0000f3d0       $$000000                   100103d0     libvcruntime:exsup4.obj
 0001:0000f3e5       ReturnPoint                100103e5     libvcruntime:exsup4.obj
 0001:0000f3f0       $$000000                   100103f0     libvcruntime:exsup4.obj
 0001:0000f5e2       ??$BuildCatchObjectHelperInternal@V__FrameHandler3@@@@YAHPAUEHExceptionRecord@@PAXPBU_s_HandlerType@@PBU_s_CatchableType@@@Z 100105e2 f   libvcruntime:frame.obj
 0001:0000f720       ??$BuildCatchObjectInternal@V__FrameHandler3@@@@YAXPAUEHExceptionRecord@@PAXPBU_s_HandlerType@@PBU_s_CatchableType@@@Z 10010720 f   libvcruntime:frame.obj
 0001:0000f7b9       ??$CatchIt@V__FrameHandler3@@@@YAXPAUEHExceptionRecord@@PAUEHRegistrationNode@@PAU_CONTEXT@@PAXPBU_s_FuncInfo@@PBU_s_HandlerType@@PBU_s_CatchableType@@PBU_s_TryBlockMapEntry@@H1EE@Z 100107b9 f   libvcruntime:frame.obj
 0001:0000f839       ??$FindHandler@V__FrameHandler3@@@@YAXPAUEHExceptionRecord@@PAUEHRegistrationNode@@PAU_CONTEXT@@PAXPBU_s_FuncInfo@@EH1@Z 10010839 f   libvcruntime:frame.obj
 0001:0000fbde       ??$FindHandlerForForeignException@V__FrameHandler3@@@@YAXPAUEHExceptionRecord@@PAUEHRegistrationNode@@PAU_CONTEXT@@PAXPBU_s_FuncInfo@@HH1@Z 10010bde f   libvcruntime:frame.obj
 0001:0000fef6       ?CallCatchBlock@@YAPAXPAUEHExceptionRecord@@PAUEHRegistrationNode@@PAU_CONTEXT@@PBU_s_FuncInfo@@PAXHK@Z 10010ef6 f   libvcruntime:frame.obj
 0001:000100c5       ?CallUnexpected@@YAXPBU_s_ESTypeList@@@Z 100110c5 f   libvcruntime:frame.obj
 0001:000100e5       __catch$?CallUnexpected@@YAXPBU_s_ESTypeList@@@Z$0 100110e5 f   libvcruntime:frame.obj
 0001:00010104       ?ExFilterRethrow@@YAHPAU_EXCEPTION_POINTERS@@@Z 10011104 f   libvcruntime:frame.obj
 0001:0001024e       ?IsInExceptionSpec@@YAEPAUEHExceptionRecord@@PBU_s_ESTypeList@@@Z 1001124e f   libvcruntime:frame.obj
 0001:00010320       $$000000                   10011320     libvcruntime:lowhelpr.obj
 0001:0001035f       _NLG_Continue              1001135f     libvcruntime:lowhelpr.obj
 0001:00010370       $$000000                   10011370     libvcruntime:exsup.obj
 0001:00010380       $$000000                   10011380     libvcruntime:exsup.obj
 0001:0001038b       __NLG_Go                   1001138b     libvcruntime:exsup.obj
 0001:000103a0       $$000000                   100113a0     libvcruntime:exsup.obj
 0001:000103a3       ?try_get_first_available_module@@YAPAUHINSTANCE__@@QBW4module_id@?A0x592e9a36@@0@Z 100113a3 f   libvcruntime:winapi_downlevel.obj
 0001:0001043e       ?try_get_function@@YAPAXW4function_id@?A0x592e9a36@@QBDQBW4module_id@2@2@Z 1001143e f   libvcruntime:winapi_downlevel.obj
 0001:00010b74       ??$common_tcscat_s@_W@@YAHQA_WIQB_W@Z 10011b74 f   libucrt:wcscat_s.obj
 0001:00010c5b       ??$common_tcsncpy_s@_W@@YAHQA_WIQB_WI@Z 10011c5b f   libucrt:wcsncpy_s.obj
 0001:00010d34       ??$common_vsprintf@Vformat_validation_base@__crt_stdio_output@@_W@@YAH_KQA_WIQB_WAAV__crt_cached_ptd_host@@QAD@Z 10011d34 f   libucrt:output.obj
 0001:00010eb7       ??$common_vsprintf_s@_W@@YAH_KQA_WIQB_WAAV__crt_cached_ptd_host@@QAD@Z 10011eb7 f   libucrt:output.obj
 0001:0001231f       $LN116                     1001331f     libucrt:output.obj
 0001:00012922       $LN18                      10013922     libucrt:output.obj
 0001:00012936       $LN17                      10013936     libucrt:output.obj
 0001:00013071       ??$?RV<lambda_03b1d95aef87969028cfba75ccab2455>@@AAV<lambda_6e4b09c48022b2350581041d5f6b0c4c>@@V<lambda_22bdf7517842c4b3e53723af5aa32b9e>@@@?$__crt_seh_guarded_call@X@@QAEX$$QAV<lambda_03b1d95aef87969028cfba75ccab2455>@@AAV<lambda_6e4b09c48022b2350581041d5f6b0c4c>@@$$QAV<lambda_22bdf7517842c4b3e53723af5aa32b9e>@@@Z 10014071 f   libucrt:exit.obj
 0001:000130be       ??R<lambda_6e4b09c48022b2350581041d5f6b0c4c>@@QBE@XZ 100140be f   libucrt:exit.obj
 0001:000131a9       ?common_exit@@YAXHW4_crt_exit_cleanup_mode@@W4_crt_exit_return_mode@@@Z 100141a9 f   libucrt:exit.obj
 0001:00013240       ?exit_or_terminate_process@@YAXI@Z 10014240 f   libucrt:exit.obj
 0001:00013271       ?is_managed_app@@YA_NXZ    10014271 f   libucrt:exit.obj
 0001:000132b4       ?should_call_terminate_process@@YA_NXZ 100142b4 f   libucrt:exit.obj
 0001:000132d6       ?try_cor_exit_process@@YAXI@Z 100142d6 f   libucrt:exit.obj
 0001:00013393       ??$common_configure_argv@D@@YAHW4_crt_argv_mode@@@Z 10014393 f   libucrt:argv_parsing.obj
 0001:000134d0       ??$parse_command_line@D@@YAXPADPAPAD0PAI2@Z 100144d0 f   libucrt:argv_parsing.obj
 0001:0001369e       ??$common_initialize_environment_nolock@D@@YAHXZ 1001469e f   libucrt:environment_initialization.obj
 0001:000136f8       ??$create_environment@D@@YAQAPADQAD@Z 100146f8 f   libucrt:environment_initialization.obj
 0001:000137da       ??$free_environment@D@@YAXQAPAD@Z 100147da f   libucrt:environment_initialization.obj
 0001:000137da       ??$free_environment@_W@@YAXQAPA_W@Z 100147da f   libucrt:environment_initialization.obj
 0001:00013809       ??$uninitialize_environment_internal@D@@YAXAAPAPAD@Z 10014809 f   libucrt:environment_initialization.obj
 0001:00013824       ??$uninitialize_environment_internal@_W@@YAXAAPAPA_W@Z 10014824 f   libucrt:environment_initialization.obj
 0001:00013895       ??$?RV<lambda_69a2805e680e0e292e8ba93315fe43a8>@@AAV<lambda_f03950bc5685219e0bcd2087efbe011e>@@V<lambda_03fcd07e894ec930e3f35da366ca99d6>@@@?$__crt_seh_guarded_call@H@@QAEH$$QAV<lambda_69a2805e680e0e292e8ba93315fe43a8>@@AAV<lambda_f03950bc5685219e0bcd2087efbe011e>@@$$QAV<lambda_03fcd07e894ec930e3f35da366ca99d6>@@@Z 10014895 f   libucrt:onexit.obj
 0001:000138f0       ??$?RV<lambda_8e746cf0007f6ed984d6f78af1fec997>@@AAV<lambda_22ebabd17bc4fa466a2aca6d8deb888d>@@V<lambda_18ed0c0b38a6dc0daf1e7ac6d6adf05e>@@@?$__crt_seh_guarded_call@H@@QAEH$$QAV<lambda_8e746cf0007f6ed984d6f78af1fec997>@@AAV<lambda_22ebabd17bc4fa466a2aca6d8deb888d>@@$$QAV<lambda_18ed0c0b38a6dc0daf1e7ac6d6adf05e>@@@Z 100148f0 f   libucrt:onexit.obj
 0001:0001396a       ??R<lambda_22ebabd17bc4fa466a2aca6d8deb888d>@@QBEHXZ 1001496a f   libucrt:onexit.obj
 0001:00013a6c       ??R<lambda_f03950bc5685219e0bcd2087efbe011e>@@QBEHXZ 10014a6c f   libucrt:onexit.obj
 0001:00013bf6       _uninitialize_allocated_io_buffers 10014bf6 f   libucrt:initialization.obj
 0001:00013c46       _initialize_environment    10014c46 f   libucrt:initialization.obj
 0001:00013c46       _initialize_global_state_isolation 10014c46 f   libucrt:initialization.obj
 0001:00013c46       _report_memory_leaks       10014c46 f   libucrt:initialization.obj
 0001:00013c46       _uninitialize_c            10014c46 f   libucrt:initialization.obj
 0001:00013c46       _uninitialize_global_state_isolation 10014c46 f   libucrt:initialization.obj
 0001:00013c49       _initialize_global_variables 10014c49 f   libucrt:initialization.obj
 0001:00013c56       _initialize_c              10014c56 f   libucrt:initialization.obj
 0001:00013c70       _uninitialize_environment  10014c70 f   libucrt:initialization.obj
 0001:00013c78       _initialize_pointers       10014c78 f   libucrt:initialization.obj
 0001:00013ca6       _uninitialize_vcruntime    10014ca6 f   libucrt:initialization.obj
 0001:00013caf       _uninitialize_allocated_memory 10014caf f   libucrt:initialization.obj
 0001:00013cc6       ??R<lambda_af42a3ee9806e9a7305d451646e05244>@@QBEXAAPAU__crt_multibyte_data@@@Z 10014cc6 f   libucrt:initialization.obj
 0001:00013f30       $$000000                   10014f30     libucrt:strncmp.obj
 0001:0001401c       ??$?RV<lambda_15ade71b0218206bbe3333a0c9b79046>@@AAV<lambda_da44e0f8b0f19ba52fefafb335991732>@@V<lambda_207f2d024fc103971653565357d6cd41>@@@?$__crt_seh_guarded_call@X@@QAEX$$QAV<lambda_15ade71b0218206bbe3333a0c9b79046>@@AAV<lambda_da44e0f8b0f19ba52fefafb335991732>@@$$QAV<lambda_207f2d024fc103971653565357d6cd41>@@@Z 1001501c f   libucrt:per_thread_data.obj
 0001:0001406e       ??$?RV<lambda_38edbb1296d33220d7e4dd0ed76b244a>@@AAV<lambda_5ce1d447e08cb34b2473517608e21441>@@V<lambda_fb385d3da700c9147fc39e65dd577a8c>@@@?$__crt_seh_guarded_call@X@@QAEX$$QAV<lambda_38edbb1296d33220d7e4dd0ed76b244a>@@AAV<lambda_5ce1d447e08cb34b2473517608e21441>@@$$QAV<lambda_fb385d3da700c9147fc39e65dd577a8c>@@@Z 1001506e f   libucrt:per_thread_data.obj
 0001:000140d9       ??$?RV<lambda_6affb1475c98b40b75cdec977db92e3c>@@AAV<lambda_b8d4b9c228a6ecc3f80208dbb4b4a104>@@V<lambda_608742c3c92a14382c1684fc64f96c88>@@@?$__crt_seh_guarded_call@X@@QAEX$$QAV<lambda_6affb1475c98b40b75cdec977db92e3c>@@AAV<lambda_b8d4b9c228a6ecc3f80208dbb4b4a104>@@$$QAV<lambda_608742c3c92a14382c1684fc64f96c88>@@@Z 100150d9 f   libucrt:per_thread_data.obj
 0001:0001412e       ??$?RV<lambda_a7e850c220f1c8d1e6efeecdedd162c6>@@AAV<lambda_46720907175c18b6c9d2717bc0d2d362>@@V<lambda_9048902d66e8d99359bc9897bbb930a8>@@@?$__crt_seh_guarded_call@X@@QAEX$$QAV<lambda_a7e850c220f1c8d1e6efeecdedd162c6>@@AAV<lambda_46720907175c18b6c9d2717bc0d2d362>@@$$QAV<lambda_9048902d66e8d99359bc9897bbb930a8>@@@Z 1001512e f   libucrt:per_thread_data.obj
 0001:00014188       ?construct_ptd@@YAXQAU__acrt_ptd@@QAPAU__crt_locale_data@@@Z 10015188 f   libucrt:per_thread_data.obj
 0001:00014221       ?destroy_fls@@YGXPAX@Z     10015221 f   libucrt:per_thread_data.obj
 0001:00014242       ?destroy_ptd@@YAXQAU__acrt_ptd@@@Z 10015242 f   libucrt:per_thread_data.obj
 0001:0001430f       ?replace_current_thread_locale_nolock@@YAXQAU__acrt_ptd@@QAU__crt_locale_data@@@Z 1001530f f   libucrt:per_thread_data.obj
 0001:00014671       ??$?RV<lambda_e5124f882df8998aaf41531e079ba474>@@AAV<lambda_3e16ef9562a7dcce91392c22ab16ea36>@@V<lambda_e25ca0880e6ef98be67edffd8c599615>@@@?$__crt_seh_guarded_call@X@@QAEX$$QAV<lambda_e5124f882df8998aaf41531e079ba474>@@AAV<lambda_3e16ef9562a7dcce91392c22ab16ea36>@@$$QAV<lambda_e25ca0880e6ef98be67edffd8c599615>@@@Z 10015671 f   libucrt:wsetlocale.obj
 0001:00014858       ?try_get_AreFileApisANSI@@YAP6GHXZXZ 10015858 f   libucrt:winapi_thunks.obj
 0001:00014872       ?try_get_LCMapStringEx@@YAP6GHPB_WK0HPA_WHPAU_nlsversioninfo@@PAXJ@ZXZ 10015872 f   libucrt:winapi_thunks.obj
 0001:0001488c       ?try_get_LocaleNameToLCID@@YAP6GKPB_WK@ZXZ 1001588c f   libucrt:winapi_thunks.obj
 0001:000148a6       ?try_get_first_available_module@@YAPAUHINSTANCE__@@QBW4module_id@?A0x391cf84c@@0@Z 100158a6 f   libucrt:winapi_thunks.obj
 0001:00014971       ?try_get_function@@YAPAXW4function_id@?A0x391cf84c@@QBDQBW4module_id@2@2@Z 10015971 f   libucrt:winapi_thunks.obj
 0001:00014f7e       ?fe_to_nearest@@YA_NQBN_KF@Z 10015f7e f   libucrt:cvt.obj
 0001:00015021       ?fp_format_a@@YAHQBNPADIQADIH_NIW4__acrt_rounding_mode@@AAV__crt_cached_ptd_host@@@Z 10016021 f   libucrt:cvt.obj
 0001:0001534d       ?fp_format_e@@YAHQBNQADI1IH_NIW4__acrt_rounding_mode@@AAV__crt_cached_ptd_host@@@Z 1001634d f   libucrt:cvt.obj
 0001:000153f1       ?fp_format_e_internal@@YAHQADIH_NIQAU_strflt@@1AAV__crt_cached_ptd_host@@@Z 100163f1 f   libucrt:cvt.obj
 0001:00015536       ?fp_format_f@@YAHQBNQADI1IHW4__acrt_rounding_mode@@AAV__crt_cached_ptd_host@@@Z 10016536 f   libucrt:cvt.obj
 0001:000155cc       ?fp_format_f_internal@@YAHQADIHQAU_strflt@@_NAAV__crt_cached_ptd_host@@@Z 100165cc f   libucrt:cvt.obj
 0001:000156ba       ?fp_format_g@@YAHQBNQADI1IH_NIW4__acrt_rounding_mode@@AAV__crt_cached_ptd_host@@@Z 100166ba f   libucrt:cvt.obj
 0001:00015789       ?fp_format_nan_or_infinity@@YAHW4__acrt_fp_class@@_NPADI1@Z 10016789 f   libucrt:cvt.obj
 0001:0001581e       ?shift_bytes@@YAXQADI0H@Z  1001681e f   libucrt:cvt.obj
 0001:00015852       ?should_round_up@@YA_NQBN_KFW4__acrt_rounding_mode@@@Z 10016852 f   libucrt:cvt.obj
 0001:00015d11       ?initialize_inherited_file_handles_nolock@@YAXXZ 10016d11 f   libucrt:ioinit.obj
 0001:00015dc7       ?initialize_stdio_handles_nolock@@YAXXZ 10016dc7 f   libucrt:ioinit.obj
 0001:00015fd4       ?<lambda_invoker_cdecl>@<lambda_838c7f62c73c983481e27c09e84b0b5d>@@CAHPBX0@Z 10016fd4 f   libucrt:argv_wildcards.obj
 0001:00016181       ??$common_expand_argv_wildcards@D@@YAHQAPADQAPAPAD@Z 10017181 f   libucrt:argv_wildcards.obj
 0001:000162fe       ??$copy_and_add_argument_to_buffer@D@@YAHQBD0IAAV?$argument_list@D@?A0x5f5c8891@@@Z 100172fe f   libucrt:argv_wildcards.obj
 0001:000163af       ??$expand_argument_wildcards@D@@YAHQAD0AAV?$argument_list@D@?A0x5f5c8891@@@Z 100173af f   libucrt:argv_wildcards.obj
 0001:000166b6       ??1?$argument_list@D@?A0x5f5c8891@@QAE@XZ 100176b6 f   libucrt:argv_wildcards.obj
 0001:000167f6       ?expand_if_necessary@?$argument_list@D@?A0x5f5c8891@@AAEHXZ 100177f6 f   libucrt:argv_wildcards.obj
 0001:00016a26       ??$?RV<lambda_ceb1ee4838e85a9d631eb091e2fbe199>@@AAV<lambda_ae742caa10f662c28703da3d2ea5e57e>@@V<lambda_cd08b5d6af4937fe54fc07d0c9bf6b37>@@@?$__crt_seh_guarded_call@X@@QAEX$$QAV<lambda_ceb1ee4838e85a9d631eb091e2fbe199>@@AAV<lambda_ae742caa10f662c28703da3d2ea5e57e>@@$$QAV<lambda_cd08b5d6af4937fe54fc07d0c9bf6b37>@@@Z 10017a26 f   libucrt:mbctype.obj
 0001:00016a73       ??R<lambda_ae742caa10f662c28703da3d2ea5e57e>@@QBEXXZ 10017a73 f   libucrt:mbctype.obj
 0001:00016af6       ?CPtoLocaleName@@YAPB_WH@Z 10017af6 f   libucrt:mbctype.obj
 0001:00016b34       ?getSystemCP@@YAHH@Z       10017b34 f   libucrt:mbctype.obj
 0001:00016ba5       ?setSBCS@@YAXPAU__crt_multibyte_data@@@Z 10017ba5 f   libucrt:mbctype.obj
 0001:00016c08       ?setSBUpLow@@YAXPAU__crt_multibyte_data@@@Z 10017c08 f   libucrt:mbctype.obj
 0001:00016db4       ?setmbcp_internal@@YAHH_NQAU__acrt_ptd@@QAPAU__crt_multibyte_data@@@Z 10017db4 f   libucrt:mbctype.obj
 0001:00016f09       ?update_thread_multibyte_data_internal@@YAPAU__crt_multibyte_data@@QAU__acrt_ptd@@QAPAU1@@Z 10017f09 f   libucrt:mbctype.obj
 0001:0001720c       _memcpy_s                  1001820c f   libucrt:cfout.obj
 0001:0001720c       _memcpy_s                  1001820c f   libucrt:mbctype.obj
 0001:0001728d       ?x_ismbbtype_l@@YAHPAU__crt_locale_pointers@@IHH@Z 1001828d f   libucrt:ismbbyte.obj
 0001:00017441       ?find_end_of_double_null_terminated_sequence@@YAPB_WQB_W@Z 10018441 f   libucrt:get_environment_from_os.obj
 0001:000175cc       ??$?RV<lambda_cbab9ec6f41b0180b23cc171c22676b0>@@AAV<lambda_44731a7d0e6d81c3e6aa82d741081786>@@V<lambda_4b292cb8dd18144e164572427af410ab>@@@?$__crt_seh_guarded_call@P6AXH@Z@@QAEP6AXH@Z$$QAV<lambda_cbab9ec6f41b0180b23cc171c22676b0>@@AAV<lambda_44731a7d0e6d81c3e6aa82d741081786>@@$$QAV<lambda_4b292cb8dd18144e164572427af410ab>@@@Z 100185cc f   libucrt:signal.obj
 0001:00017630       ?get_global_action_nolock@@YAPAP6AXH@ZH@Z 10018630 f   libucrt:signal.obj
 0001:00017672       ?siglookup@@YAPAU__crt_signal_action_t@@HQAU1@@Z 10018672 f   libucrt:signal.obj
 0001:0001792b       ??$?RV<lambda_2866be3712abc81a800a822484c830d8>@@AAV<lambda_39ca0ed439415581b5b15c265174cece>@@V<lambda_2b24c74d71094a6cd0cb82e44167d71b>@@@?$__crt_seh_guarded_call@X@@QAEX$$QAV<lambda_2866be3712abc81a800a822484c830d8>@@AAV<lambda_39ca0ed439415581b5b15c265174cece>@@$$QAV<lambda_2b24c74d71094a6cd0cb82e44167d71b>@@@Z 1001892b f   libucrt:fflush.obj
 0001:000179b7       ??$?RV<lambda_2cc53f568c5a2bb6f192f930a45d44ea>@@AAV<lambda_ab61a845afdef5b7c387490eaf3616ee>@@V<lambda_c2ffc0b7726aa6be21d5f0026187e748>@@@?$__crt_seh_guarded_call@X@@QAEX$$QAV<lambda_2cc53f568c5a2bb6f192f930a45d44ea>@@AAV<lambda_ab61a845afdef5b7c387490eaf3616ee>@@$$QAV<lambda_c2ffc0b7726aa6be21d5f0026187e748>@@@Z 100189b7 f   libucrt:fflush.obj
 0001:00017a63       ?common_flush_all@@YAH_N@Z 10018a63 f   libucrt:fflush.obj
 0001:00017ab0       ?common_flush_all_should_try_to_flush_stream@@YA_NV__crt_stdio_stream@@QAH@Z 10018ab0 f   libucrt:fflush.obj
 0001:00017ae3       ?is_stream_flushable_or_commitable@@YA_NJ@Z 10018ae3 f   libucrt:fflush.obj
 0001:000180e0       ?free_crt_array_internal@@YAXQAPBXI@Z 100190e0 f   libucrt:inittime.obj
 0001:00018319       ?GetTableIndexFromLocaleName@@YAHPB_W@Z 10019319 f   libucrt:lcidtoname_downlevel.obj
 0001:00018395       ?should_round_up@@YA_NQBD0HW4__acrt_has_trailing_digits@@W4__acrt_rounding_mode@@@Z 10019395 f   libucrt:_fptostr.obj
 0001:00019ede       ??R<lambda_e96123212306c92459f955e8e4eac55d>@@QBEIPBD@Z 1001aede f   libucrt:mbrtowc.obj
 0001:0001a91e       ??$common_tcsncpy_s@D@@YAHQADIQBDI@Z 1001b91e f   libucrt:strncpy_s.obj
 0001:0001a9e0       $$000000                   1001b9e0     libucrt:strpbrk.obj
 0001:0001aac4       ?__acrt_LCMapStringA_stat@@YAHPAU__crt_locale_pointers@@PB_WKPBDHPADHHH@Z 1001bac4 f   libucrt:lcmapstringa.obj
 0001:0001acfb       ?initialize_multibyte@@YAHXZ 1001bcfb f   libucrt:multibyte_initializer.obj
 0001:0001ad0a       ??$?RV<lambda_9e9de3de5fa147e2223d7db92bc10aa6>@@AAV<lambda_38ce7e780aa69e748d6df282ebc68efe>@@V<lambda_8ca6da459f0f6780f1cff60fdc3d00e5>@@@?$__crt_seh_guarded_call@H@@QAEH$$QAV<lambda_9e9de3de5fa147e2223d7db92bc10aa6>@@AAV<lambda_38ce7e780aa69e748d6df282ebc68efe>@@$$QAV<lambda_8ca6da459f0f6780f1cff60fdc3d00e5>@@@Z 1001bd0a f   libucrt:commit.obj
 0001:0001ae29       ?write_double_translated_ansi_nolock@@YA?AUwrite_result@?A0x17268360@@HQBDIAAV__crt_cached_ptd_host@@@Z 1001be29 f   libucrt:write.obj
 0001:0001b1fb       ?write_double_translated_unicode_nolock@@YA?AUwrite_result@?A0x17268360@@QBDI@Z 1001c1fb f   libucrt:write.obj
 0001:0001b263       ?write_requires_double_translation_nolock@@YA_NHAAV__crt_cached_ptd_host@@@Z 1001c263 f   libucrt:write.obj
 0001:0001b2e1       ?write_text_ansi_nolock@@YA?AUwrite_result@?A0x17268360@@HQBDI@Z 1001c2e1 f   libucrt:write.obj
 0001:0001b3bc       ?write_text_utf16le_nolock@@YA?AUwrite_result@?A0x17268360@@HQBDI@Z 1001c3bc f   libucrt:write.obj
 0001:0001b4a5       ?write_text_utf8_nolock@@YA?AUwrite_result@?A0x17268360@@HQBDI@Z 1001c4a5 f   libucrt:write.obj
 0001:0001ba50       $$000000                   1001ca50     libucrt:log10_impl.obj
 0001:0001bb60       $$000000                   1001cb60     libucrt:ceil_pentium4.obj
 0001:0001bc7d       ?to_abstract_control@@YA?AW4__acrt_fenv_abstract_control@@W4__acrt_fenv_machine_sse_control@@@Z 1001cc7d f   libucrt:_fenvutils.obj
 0001:0001bd2d       ?to_abstract_control@@YA?AW4__acrt_fenv_abstract_control@@W4__acrt_fenv_machine_x87_control@@@Z 1001cd2d f   libucrt:_fenvutils.obj
 0001:0001bdda       ?to_machine_sse_control@@YA?AW4__acrt_fenv_machine_sse_control@@W4__acrt_fenv_abstract_control@@@Z 1001cdda f   libucrt:_fenvutils.obj
 0001:0001be90       ?to_machine_x87_control@@YA?AW4__acrt_fenv_machine_x87_control@@W4__acrt_fenv_abstract_control@@@Z 1001ce90 f   libucrt:_fenvutils.obj
 0001:0001c3fb       ?_fclose_internal@@YAHQAU_iobuf@@AAV__crt_cached_ptd_host@@@Z 1001d3fb f   libucrt:fclose.obj
 0001:0001c492       ?_fclose_nolock_internal@@YAHQAU_iobuf@@AAV__crt_cached_ptd_host@@@Z 1001d492 f   libucrt:fclose.obj
 0001:0001c550       ??$common_lseek_nolock@_J@@YA_JH_JHAAV__crt_cached_ptd_host@@@Z 1001d550 f   libucrt:lseek.obj
 0001:0001c645       ___hw_cw_sse2              1001d645 f   libucrt:ieee87.obj
 0001:0001cacb       __hw_cw                    1001dacb f   libucrt:ieee87.obj
 0001:0001cb80       $$000000                   1001db80     libucrt:log10_pentium4.obj
 0001:0001ce10       $$000000                   1001de10     libucrt:87tran.obj
 0001:0001d020       $$000000                   1001e020     libucrt:87disp.obj
 0001:0001d280       $$000000                   1001e280     libucrt:common.obj
 0001:0001d410       $$000000                   1001e410     libucrt:genexcep.obj
 0001:0001d70c       ??$?RV<lambda_d422a76eb4c3bf3ad751449ab71a6ea4>@@AAV<lambda_c9ba49e555ba839a7b07aa3fbecb7617>@@V<lambda_9476263c8ee91a25d21c55370bdb50de>@@@?$__crt_seh_guarded_call@H@@QAEH$$QAV<lambda_d422a76eb4c3bf3ad751449ab71a6ea4>@@AAV<lambda_c9ba49e555ba839a7b07aa3fbecb7617>@@$$QAV<lambda_9476263c8ee91a25d21c55370bdb50de>@@@Z 1001e70c f   libucrt:close.obj
 0001:0001d920       $$000000                   1001e920     libucrt:_strnicm.obj
 0001:0001d981       ?__dcrt_lowio_initialize_console_output@@YAXXZ 1001e981 f   libucrt:initcon.obj
 0001:0001e930       $$000000                   1001f930     LIBCMT:ulldvrm.obj
 0001:0001e961       L1                         1001f961     LIBCMT:ulldvrm.obj
 0001:0001e96f       L3                         1001f96f     LIBCMT:ulldvrm.obj
 0001:0001e99d       L4                         1001f99d     LIBCMT:ulldvrm.obj
 0001:0001e9a6       L5                         1001f9a6     LIBCMT:ulldvrm.obj
 0001:0001e9a8       L2                         1001f9a8     LIBCMT:ulldvrm.obj
 0001:0001e9d0       $$000000                   1001f9d0     LIBCMT:llmul.obj
 0001:0001e9e9       hard                       1001f9e9     LIBCMT:llmul.obj
 0001:0001ea10       $$000000                   1001fa10     LIBCMT:lldvrm.obj
 0001:0001ea34       L1                         1001fa34     LIBCMT:lldvrm.obj
 0001:0001ea50       L2                         1001fa50     LIBCMT:lldvrm.obj
 0001:0001ea7c       L3                         1001fa7c     LIBCMT:lldvrm.obj
 0001:0001ea8a       L5                         1001fa8a     LIBCMT:lldvrm.obj
 0001:0001eab8       L6                         1001fab8     LIBCMT:lldvrm.obj
 0001:0001eac1       L7                         1001fac1     LIBCMT:lldvrm.obj
 0001:0001eac3       L4                         1001fac3     LIBCMT:lldvrm.obj
 0001:0001ead5       L9                         1001fad5     LIBCMT:lldvrm.obj
 0001:0001eae9       L8                         1001fae9     LIBCMT:lldvrm.obj
 0001:0001eaf0       $$000000                   1001faf0     LIBCMT:llshl.obj
 0001:0001eb00       MORE32                     1001fb00     LIBCMT:llshl.obj
 0001:0001eb0a       RETZERO                    1001fb0a     LIBCMT:llshl.obj
 0001:0001eb10       $$000000                   1001fb10     LIBCMT:ullshr.obj
 0001:0001eb20       MORE32                     1001fb20     LIBCMT:ullshr.obj
 0001:0001eb2a       RETZERO                    1001fb2a     LIBCMT:ullshr.obj
 0001:0001eb30       $$000000                   1001fb30     LIBCMT:ftol2.obj
 0001:0001eb40       $$000000                   1001fb40     LIBCMT:ftol2.obj
 0001:0001eb51       L3B                        1001fb51     LIBCMT:ftol2.obj
 0001:0001eb94       L3F                        1001fb94     LIBCMT:ftol2.obj
 0001:0001eb9c       L40                        1001fb9c     LIBCMT:ftol2.obj
 0001:0001ebaf       L41                        1001fbaf     LIBCMT:ftol2.obj
 0001:0001ebc0       $$000000                   1001fbc0     libvcruntime:strrchr.obj
 0001:0001ebfd       strrchr_sse_loop           1001fbfd     libvcruntime:strrchr.obj
 0001:0001ec2d       strrchr_sse_break          1001fc2d     libvcruntime:strrchr.obj
 0001:0001ec4d       strrchr_sttni              1001fc4d     libvcruntime:strrchr.obj
 0001:0001ec5f       strrchr_sttni_chars        1001fc5f     libvcruntime:strrchr.obj
 0001:0001ec74       strrchr_sttni_aligned      1001fc74     libvcruntime:strrchr.obj
 0001:0001ec78       strrchr_sttni_xmm          1001fc78     libvcruntime:strrchr.obj
 0001:0001ec8b       exit                       1001fc8b     libvcruntime:strrchr.obj
 0001:0001ec8e       strrchr_zero               1001fc8e     libvcruntime:strrchr.obj
 0001:0001ecb3       strchr_zero_loop           1001fcb3     libvcruntime:strrchr.obj
 0001:0001ecc7       strchr_zero_result         1001fcc7     libvcruntime:strrchr.obj
 0001:0001ecce       strrchr_no_sse             1001fcce     libvcruntime:strrchr.obj
 0001:0001ecf1       returndi                   1001fcf1     libvcruntime:strrchr.obj
 0001:0001ecf3       toend                      1001fcf3     libvcruntime:strrchr.obj
 0001:0001ed78       __ehhandler$??2@YAPAXIABUnothrow_t@std@@@Z 1001fd78 f   LIBCMT:new_scalar_nothrow.obj
 0001:0001ed95       __ehhandler$?CallUnexpected@@YAXPBU_s_ESTypeList@@@Z 1001fd95 f   libvcruntime:frame.obj
 0001:0001edb2       __ehhandler$?common_exit@@YAXHW4_crt_exit_cleanup_mode@@W4_crt_exit_return_mode@@@Z 1001fdb2 f   libucrt:exit.obj
 0001:0001edcf       __ehhandler$?try_cor_exit_process@@YAXI@Z 1001fdcf f   libucrt:exit.obj
 0001:0001edec       __ehhandler$___dcrt_uninitialize_environments_nolock 1001fdec f   libucrt:environment_initialization.obj
 0001:0001ee09       __ehhandler$__execute_onexit_table 1001fe09 f   libucrt:onexit.obj
 0001:0001ee26       __ehhandler$?write_double_translated_ansi_nolock@@YA?AUwrite_result@?A0x17268360@@HQBDIAAV__crt_cached_ptd_host@@@Z 1001fe26 f   libucrt:write.obj
 0001:0001ee50       ??__F_AtlComModule@ATL@@YAXXZ 1001fe50 f   OposVariant.obj
 0001:0001ee5a       ??__F_AtlWinModule@ATL@@YAXXZ 1001fe5a f   OposVariant.obj
 0001:0001ee74       ??__F_Module@@YAXXZ        1001fe74 f   Totals.obj
 0001:0001ee88       ??__F_AtlBaseModule@ATL@@YAXXZ 1001fe88 f   atls:atlbase.obj
 0002:00000308       ?_AtlBaseModule$initializer$@ATL@@3P6AXXZA 10020308     atls:atlbase.obj
 0002:0000030c       ?_AtlComModule$initializer$@ATL@@3P6AXXZA 1002030c     OposVariant.obj
 0002:00000310       ?_AtlWinModule$initializer$@ATL@@3P6AXXZA 10020310     OposVariant.obj
 0002:00000314       ?_Module$initializer$@@3P6AXXZA 10020314     Totals.obj
 0002:00000318       ??pConnMap$initializer$@?$IConnectionPointContainerImpl@VCOPOSTotals@@@ATL@@0P6AXXZA@@3P6AXXZA 10020318     Totals.obj
 0002:00000324       ?__scrt_initialize_tss_var@@3P6AHXZA 10020324     LIBCMT:thread_safe_statics.obj
 0002:00001888       _GS_ExceptionPointers      10021888     LIBCMT:gs_report.obj
 0002:00001a18       ?tokenTable@@3QBUStringLiteral@@B 10021a18     libvcruntime:undname.obj
 0002:00001aa0       ?nameTable@@3QBUStringLiteral@@B 10021aa0     libvcruntime:undname.obj
 0002:00001d38       ?rttiTable@@3QBUStringLiteral@@B 10021d38     libvcruntime:undname.obj
 0002:00001d60       ?IndirectionName@@3QBUStringLiteral@@B 10021d60     libvcruntime:undname.obj
 0002:00001d90       ?PrefixName@@3QBUStringLiteral@@B 10021d90     libvcruntime:undname.obj
 0002:000023cc       ?module_names@?A0x592e9a36@@3QBQB_WB 100223cc     libvcruntime:winapi_downlevel.obj
 0002:00002474       ?candidate_modules@?1??try_get_FlsAlloc@@YAP6GKP6GXPAX@Z@ZXZ@4QBW4module_id@?A0x592e9a36@@B 10022474     libvcruntime:winapi_downlevel.obj
 0002:00002488       ?candidate_modules@?1??try_get_FlsFree@@YAP6GHK@ZXZ@4QBW4module_id@?A0x592e9a36@@B 10022488     libvcruntime:winapi_downlevel.obj
 0002:00002498       ?candidate_modules@?1??try_get_FlsGetValue@@YAP6GPAXK@ZXZ@4QBW4module_id@?A0x592e9a36@@B 10022498     libvcruntime:winapi_downlevel.obj
 0002:000024ac       ?candidate_modules@?1??try_get_FlsSetValue@@YAP6GHKPAX@ZXZ@4QBW4module_id@?A0x592e9a36@@B 100224ac     libvcruntime:winapi_downlevel.obj
 0002:000024c0       ?candidate_modules@?1??try_get_InitializeCriticalSectionEx@@YAP6GHPAU_RTL_CRITICAL_SECTION@@KK@ZXZ@4QBW4module_id@?A0x592e9a36@@B 100224c0     libvcruntime:winapi_downlevel.obj
 0002:000024e8       ?errtable@@3QBUerrentry@?A0x31fdb9ec@@B 100224e8     libucrt:errno.obj
 0002:00002830       ___acrt_initializers       10022830     libucrt:initialization.obj
 0002:00002d70       ?module_names@?A0x391cf84c@@3QBQB_WB 10022d70     libucrt:winapi_thunks.obj
 0002:00003224       ?candidate_modules@?1??try_get_AreFileApisANSI@@YAP6GHXZXZ@4QBW4module_id@?A0x391cf84c@@B 10023224     libucrt:winapi_thunks.obj
 0002:00003238       ?candidate_modules@?1??try_get_InitializeCriticalSectionEx@@YAP6GHPAU_RTL_CRITICAL_SECTION@@KK@ZXZ@4QBW4module_id@?A0x391cf84c@@B 10023238     libucrt:winapi_thunks.obj
 0002:00003240       ?candidate_modules@?1??try_get_LCMapStringEx@@YAP6GHPB_WK0HPA_WHPAU_nlsversioninfo@@PAXJ@ZXZ@4QBW4module_id@?A0x391cf84c@@B 10023240     libucrt:winapi_thunks.obj
 0002:00003258       ?candidate_modules@?1??try_get_LocaleNameToLCID@@YAP6GKPB_WK@ZXZ@4QBW4module_id@?A0x391cf84c@@B 10023258     libucrt:winapi_thunks.obj
 0002:00003274       ?candidate_modules@?1??try_get_AppPolicyGetProcessTerminationMethod@@YAP6GJPAXPAW4AppPolicyProcessTerminationMethod@@@ZXZ@4QBW4module_id@?A0x391cf84c@@B 10023274     libucrt:winapi_thunks.obj
 0002:000032a0       ?candidate_modules@?1??try_get_SetThreadStackGuarantee@@YAP6GHPAK@ZXZ@4QBW4module_id@?A0x391cf84c@@B 100232a0     libucrt:winapi_thunks.obj
 0002:000032c0       ?candidate_modules@?1??try_get_FlsAlloc@@YAP6GKP6GXPAX@Z@ZXZ@4QBW4module_id@?A0x391cf84c@@B 100232c0     libucrt:winapi_thunks.obj
 0002:000032c8       ?candidate_modules@?1??try_get_FlsFree@@YAP6GHK@ZXZ@4QBW4module_id@?A0x391cf84c@@B 100232c8     libucrt:winapi_thunks.obj
 0002:000032d0       ?candidate_modules@?1??try_get_FlsGetValue@@YAP6GPAXK@ZXZ@4QBW4module_id@?A0x391cf84c@@B 100232d0     libucrt:winapi_thunks.obj
 0002:000032d8       ?candidate_modules@?1??try_get_FlsSetValue@@YAP6GHKPAX@ZXZ@4QBW4module_id@?A0x391cf84c@@B 100232d8     libucrt:winapi_thunks.obj
 0002:000032e0       ?strings@?1??fp_format_nan_or_infinity@@YAHW4__acrt_fp_class@@_NPADI1@Z@4QAY03QBDA 100232e0     libucrt:cvt.obj
 0002:00003368       ?_mb_locale_names@@3QBQB_WB 10023368     libucrt:mbctype.obj
 0002:000039b0       ?LcidToLocaleNameTable@?A0x881e4c05@@3QBULcidToLocaleName@1@B 100239b0     libucrt:lcidtoname_downlevel.obj
 0002:00004ad0       ?LocaleNameToIndexTable@?A0x881e4c05@@3QBULocaleNameIndex@1@B 10024ad0     libucrt:lcidtoname_downlevel.obj
 0002:00006410       LOG_name                   10026410     libucrt:log10_impl.obj
 0002:00006420       _One                       10026420     libucrt:ceil_pentium4.obj
 0002:00006430       _Bns                       10026430     libucrt:ceil_pentium4.obj
 0002:00006440       _Zero                      10026440     libucrt:ceil_pentium4.obj
 0002:00006450       _S                         10026450     libucrt:ceil_pentium4.obj
 0002:00006460       _NegZero                   10026460     libucrt:ceil_pentium4.obj
 0002:00006470       emask                      10026470     libucrt:log10_pentium4.obj
 0002:00006480       CC                         10026480     libucrt:log10_pentium4.obj
 0002:00006490       Magic                      10026490     libucrt:log10_pentium4.obj
 0002:000064a0       hi_mask                    100264a0     libucrt:log10_pentium4.obj
 0002:000064b0       LOG10_2                    100264b0     libucrt:log10_pentium4.obj
 0002:000064c0       place_L                    100264c0     libucrt:log10_pentium4.obj
 0002:000064e0       One                        100264e0     libucrt:log10_pentium4.obj
 0002:000064f0       Zero                       100264f0     libucrt:log10_pentium4.obj
 0002:00006500       Two52                      10026500     libucrt:log10_pentium4.obj
 0002:00006510       Infs                       10026510     libucrt:log10_pentium4.obj
 0002:00006520       NaN                        10026520     libucrt:log10_pentium4.obj
 0002:00006530       coeff                      10026530     libucrt:log10_pentium4.obj
 0002:0000658e       _log2max                   1002658e     libucrt:87tran.obj
 0002:00006598       _smallarg                  10026598     libucrt:87tran.obj
 0002:000065a2       _half                      100265a2     libucrt:87tran.obj
 0002:000065ee       One                        100265ee     libucrt:87disp.obj
 0002:000065f6       Three                      100265f6     libucrt:87disp.obj
 0002:000065fe       XAMtoTagTab                100265fe     libucrt:87disp.obj
 0002:00006610       One                        10026610     libucrt:common.obj
 0002:00006624       DblMax                     10026624     libucrt:common.obj
 0002:0000662c       DblMin                     1002662c     libucrt:common.obj
 0002:00006634       IeeeAdjO                   10026634     libucrt:common.obj
 0002:0000663c       IeeeAdjU                   1002663c     libucrt:common.obj
 0002:00006644       _infinity                  10026644     libucrt:common.obj
 0002:0000664c       _zero                      1002664c     libucrt:common.obj
 0002:00006698       _over                      10026698     libucrt:fpctrl.obj
 0002:000066a4       _under                     100266a4     libucrt:fpctrl.obj
 0002:00006ed8       ?_names@?1??_get_fname@@9@4QBU<unnamed-type-_names>@?1??1@YAPADI@Z@B 10026ed8     libucrt:fpexcept.obj
 0002:00007080       two32                      10027080     LIBCMT:ftol2.obj
 0002:00007084       two63                      10027084     LIBCMT:ftol2.obj
 0002:00007088       _NaN                       10027088     LIBCMT:ftol2.obj
 0002:000077d0       __sehtable$?_AtlVerifyStackAvailable@_ATL_SAFE_ALLOCA_IMPL@ATL@@YA_NK@Z 100277d0     Totals.obj
 0002:000077f0       __sehtable$___scrt_is_nonwritable_in_current_image 100277f0     LIBCMT:utility.obj
 0002:0000780c       __catchsym$??2@YAPAXIABUnothrow_t@std@@@Z$2 1002780c     LIBCMT:new_scalar_nothrow.obj
 0002:0000781c       __unwindtable$??2@YAPAXIABUnothrow_t@std@@@Z 1002781c     LIBCMT:new_scalar_nothrow.obj
 0002:0000782c       __tryblocktable$??2@YAPAXIABUnothrow_t@std@@@Z 1002782c     LIBCMT:new_scalar_nothrow.obj
 0002:00007840       __ehfuncinfo$??2@YAPAXIABUnothrow_t@std@@@Z 10027840     LIBCMT:new_scalar_nothrow.obj
 0002:00007868       __sehtable$?dllmain_crt_process_attach@@YAHQAUHINSTANCE__@@QAX@Z 10027868     LIBCMT:dll_dllmain.obj
 0002:00007888       __sehtable$?dllmain_crt_process_detach@@YAH_N@Z 10027888     LIBCMT:dll_dllmain.obj
 0002:000078b0       __sehtable$?dllmain_dispatch@@YAHQAUHINSTANCE__@@KQAX@Z 100278b0     LIBCMT:dll_dllmain.obj
 0002:00007960       __sehtable$___DestructExceptionObject 10027960     libvcruntime:ehhelpers.obj
 0002:00007980       __sehtable$?FrameUnwindToState@__FrameHandler3@@SAXPAUEHRegistrationNode@@PAXPBU_s_FuncInfo@@H@Z 10027980     libvcruntime:frame.obj
 0002:000079a8       __sehtable$?CallCatchBlock@@YAPAXPAUEHExceptionRecord@@PAUEHRegistrationNode@@PAU_CONTEXT@@PBU_s_FuncInfo@@PAXHK@Z 100279a8     libvcruntime:frame.obj
 0002:000079d0       __catchsym$?CallUnexpected@@YAXPBU_s_ESTypeList@@@Z$2 100279d0     libvcruntime:frame.obj
 0002:000079e0       __unwindtable$?CallUnexpected@@YAXPBU_s_ESTypeList@@@Z 100279e0     libvcruntime:frame.obj
 0002:000079f0       __tryblocktable$?CallUnexpected@@YAXPBU_s_ESTypeList@@@Z 100279f0     libvcruntime:frame.obj
 0002:00007a04       __ehfuncinfo$?CallUnexpected@@YAXPBU_s_ESTypeList@@@Z 10027a04     libvcruntime:frame.obj
 0002:00007a28       __sehtable$??$BuildCatchObjectHelperInternal@V__FrameHandler3@@@@YAHPAUEHExceptionRecord@@PAXPBU_s_HandlerType@@PBU_s_CatchableType@@@Z 10027a28     libvcruntime:frame.obj
 0002:00007a48       __sehtable$??$BuildCatchObjectInternal@V__FrameHandler3@@@@YAXPAUEHExceptionRecord@@PAXPBU_s_HandlerType@@PBU_s_CatchableType@@@Z 10027a48     libvcruntime:frame.obj
 0002:00007a9c       __ehfuncinfo$?write_double_translated_ansi_nolock@@YA?AUwrite_result@?A0x17268360@@HQBDIAAV__crt_cached_ptd_host@@@Z 10027a9c     libucrt:write.obj
 0002:00007a9c       __ehfuncinfo$?try_cor_exit_process@@YAXI@Z 10027a9c     libucrt:exit.obj
 0002:00007ac0       __unwindtable$?common_exit@@YAXHW4_crt_exit_cleanup_mode@@W4_crt_exit_return_mode@@@Z 10027ac0     libucrt:exit.obj
 0002:00007ac8       __ehfuncinfo$?common_exit@@YAXHW4_crt_exit_cleanup_mode@@W4_crt_exit_return_mode@@@Z 10027ac8     libucrt:exit.obj
 0002:00007af0       __sehtable$??R<lambda_6e4b09c48022b2350581041d5f6b0c4c>@@QBE@XZ 10027af0     libucrt:exit.obj
 0002:00007b10       __sehtable$??$?RV<lambda_03b1d95aef87969028cfba75ccab2455>@@AAV<lambda_6e4b09c48022b2350581041d5f6b0c4c>@@V<lambda_22bdf7517842c4b3e53723af5aa32b9e>@@@?$__crt_seh_guarded_call@X@@QAEX$$QAV<lambda_03b1d95aef87969028cfba75ccab2455>@@AAV<lambda_6e4b09c48022b2350581041d5f6b0c4c>@@$$QAV<lambda_22bdf7517842c4b3e53723af5aa32b9e>@@@Z 10027b10     libucrt:exit.obj
 0002:00007b2c       __unwindtable$___dcrt_uninitialize_environments_nolock 10027b2c     libucrt:environment_initialization.obj
 0002:00007b3c       __ehfuncinfo$___dcrt_uninitialize_environments_nolock 10027b3c     libucrt:environment_initialization.obj
 0002:00007b60       __unwindtable$__execute_onexit_table 10027b60     libucrt:onexit.obj
 0002:00007b68       __ehfuncinfo$__execute_onexit_table 10027b68     libucrt:onexit.obj
 0002:00007b90       __sehtable$??$?RV<lambda_8e746cf0007f6ed984d6f78af1fec997>@@AAV<lambda_22ebabd17bc4fa466a2aca6d8deb888d>@@V<lambda_18ed0c0b38a6dc0daf1e7ac6d6adf05e>@@@?$__crt_seh_guarded_call@H@@QAEH$$QAV<lambda_8e746cf0007f6ed984d6f78af1fec997>@@AAV<lambda_22ebabd17bc4fa466a2aca6d8deb888d>@@$$QAV<lambda_18ed0c0b38a6dc0daf1e7ac6d6adf05e>@@@Z 10027b90     libucrt:onexit.obj
 0002:00007bb0       __sehtable$??$?RV<lambda_69a2805e680e0e292e8ba93315fe43a8>@@AAV<lambda_f03950bc5685219e0bcd2087efbe011e>@@V<lambda_03fcd07e894ec930e3f35da366ca99d6>@@@?$__crt_seh_guarded_call@H@@QAEH$$QAV<lambda_69a2805e680e0e292e8ba93315fe43a8>@@AAV<lambda_f03950bc5685219e0bcd2087efbe011e>@@$$QAV<lambda_03fcd07e894ec930e3f35da366ca99d6>@@@Z 10027bb0     libucrt:onexit.obj
 0002:00007bd0       __sehtable$__query_new_handler 10027bd0     libucrt:new_handler.obj
 0002:00007bf0       __sehtable$_terminate      10027bf0     libucrt:terminate.obj
 0002:00007c10       __sehtable$??$?RV<lambda_15ade71b0218206bbe3333a0c9b79046>@@AAV<lambda_da44e0f8b0f19ba52fefafb335991732>@@V<lambda_207f2d024fc103971653565357d6cd41>@@@?$__crt_seh_guarded_call@X@@QAEX$$QAV<lambda_15ade71b0218206bbe3333a0c9b79046>@@AAV<lambda_da44e0f8b0f19ba52fefafb335991732>@@$$QAV<lambda_207f2d024fc103971653565357d6cd41>@@@Z 10027c10     libucrt:per_thread_data.obj
 0002:00007c30       __sehtable$??$?RV<lambda_a7e850c220f1c8d1e6efeecdedd162c6>@@AAV<lambda_46720907175c18b6c9d2717bc0d2d362>@@V<lambda_9048902d66e8d99359bc9897bbb930a8>@@@?$__crt_seh_guarded_call@X@@QAEX$$QAV<lambda_a7e850c220f1c8d1e6efeecdedd162c6>@@AAV<lambda_46720907175c18b6c9d2717bc0d2d362>@@$$QAV<lambda_9048902d66e8d99359bc9897bbb930a8>@@@Z 10027c30     libucrt:per_thread_data.obj
 0002:00007c50       __sehtable$??$?RV<lambda_38edbb1296d33220d7e4dd0ed76b244a>@@AAV<lambda_5ce1d447e08cb34b2473517608e21441>@@V<lambda_fb385d3da700c9147fc39e65dd577a8c>@@@?$__crt_seh_guarded_call@X@@QAEX$$QAV<lambda_38edbb1296d33220d7e4dd0ed76b244a>@@AAV<lambda_5ce1d447e08cb34b2473517608e21441>@@$$QAV<lambda_fb385d3da700c9147fc39e65dd577a8c>@@@Z 10027c50     libucrt:per_thread_data.obj
 0002:00007c70       __sehtable$??$?RV<lambda_6affb1475c98b40b75cdec977db92e3c>@@AAV<lambda_b8d4b9c228a6ecc3f80208dbb4b4a104>@@V<lambda_608742c3c92a14382c1684fc64f96c88>@@@?$__crt_seh_guarded_call@X@@QAEX$$QAV<lambda_6affb1475c98b40b75cdec977db92e3c>@@AAV<lambda_b8d4b9c228a6ecc3f80208dbb4b4a104>@@$$QAV<lambda_608742c3c92a14382c1684fc64f96c88>@@@Z 10027c70     libucrt:per_thread_data.obj
 0002:00007c90       __sehtable$??$?RV<lambda_e5124f882df8998aaf41531e079ba474>@@AAV<lambda_3e16ef9562a7dcce91392c22ab16ea36>@@V<lambda_e25ca0880e6ef98be67edffd8c599615>@@@?$__crt_seh_guarded_call@X@@QAEX$$QAV<lambda_e5124f882df8998aaf41531e079ba474>@@AAV<lambda_3e16ef9562a7dcce91392c22ab16ea36>@@$$QAV<lambda_e25ca0880e6ef98be67edffd8c599615>@@@Z 10027c90     libucrt:wsetlocale.obj
 0002:00007cb0       __sehtable$___acrt_initialize_lowio 10027cb0     libucrt:ioinit.obj
 0002:00007cd0       __sehtable$?update_thread_multibyte_data_internal@@YAPAU__crt_multibyte_data@@QAU__acrt_ptd@@QAPAU1@@Z 10027cd0     libucrt:mbctype.obj
 0002:00007cf0       __sehtable$??$?RV<lambda_ceb1ee4838e85a9d631eb091e2fbe199>@@AAV<lambda_ae742caa10f662c28703da3d2ea5e57e>@@V<lambda_cd08b5d6af4937fe54fc07d0c9bf6b37>@@@?$__crt_seh_guarded_call@X@@QAEX$$QAV<lambda_ceb1ee4838e85a9d631eb091e2fbe199>@@AAV<lambda_ae742caa10f662c28703da3d2ea5e57e>@@$$QAV<lambda_cd08b5d6af4937fe54fc07d0c9bf6b37>@@@Z 10027cf0     libucrt:mbctype.obj
 0002:00007d10       __sehtable$_raise          10027d10     libucrt:signal.obj
 0002:00007d30       __sehtable$??$?RV<lambda_cbab9ec6f41b0180b23cc171c22676b0>@@AAV<lambda_44731a7d0e6d81c3e6aa82d741081786>@@V<lambda_4b292cb8dd18144e164572427af410ab>@@@?$__crt_seh_guarded_call@P6AXH@Z@@QAEP6AXH@Z$$QAV<lambda_cbab9ec6f41b0180b23cc171c22676b0>@@AAV<lambda_44731a7d0e6d81c3e6aa82d741081786>@@$$QAV<lambda_4b292cb8dd18144e164572427af410ab>@@@Z 10027d30     libucrt:signal.obj
 0002:00007d50       __sehtable$??$?RV<lambda_2866be3712abc81a800a822484c830d8>@@AAV<lambda_39ca0ed439415581b5b15c265174cece>@@V<lambda_2b24c74d71094a6cd0cb82e44167d71b>@@@?$__crt_seh_guarded_call@X@@QAEX$$QAV<lambda_2866be3712abc81a800a822484c830d8>@@AAV<lambda_39ca0ed439415581b5b15c265174cece>@@$$QAV<lambda_2b24c74d71094a6cd0cb82e44167d71b>@@@Z 10027d50     libucrt:fflush.obj
 0002:00007d70       __sehtable$??$?RV<lambda_2cc53f568c5a2bb6f192f930a45d44ea>@@AAV<lambda_ab61a845afdef5b7c387490eaf3616ee>@@V<lambda_c2ffc0b7726aa6be21d5f0026187e748>@@@?$__crt_seh_guarded_call@X@@QAEX$$QAV<lambda_2cc53f568c5a2bb6f192f930a45d44ea>@@AAV<lambda_ab61a845afdef5b7c387490eaf3616ee>@@$$QAV<lambda_c2ffc0b7726aa6be21d5f0026187e748>@@@Z 10027d70     libucrt:fflush.obj
 0002:00007d90       __sehtable$___acrt_update_thread_locale_data 10027d90     libucrt:locale_refcounting.obj
 0002:00007db0       __sehtable$__fcloseall     10027db0     libucrt:closeall.obj
 0002:00007dd0       __sehtable$___acrt_lowio_ensure_fh_exists 10027dd0     libucrt:osfinfo.obj
 0002:00007df0       __sehtable$??$?RV<lambda_9e9de3de5fa147e2223d7db92bc10aa6>@@AAV<lambda_38ce7e780aa69e748d6df282ebc68efe>@@V<lambda_8ca6da459f0f6780f1cff60fdc3d00e5>@@@?$__crt_seh_guarded_call@H@@QAEH$$QAV<lambda_9e9de3de5fa147e2223d7db92bc10aa6>@@AAV<lambda_38ce7e780aa69e748d6df282ebc68efe>@@$$QAV<lambda_8ca6da459f0f6780f1cff60fdc3d00e5>@@@Z 10027df0     libucrt:commit.obj
 0002:00007e10       __sehtable$__write_internal 10027e10     libucrt:write.obj
 0002:00007e30       __sehtable$?_fclose_internal@@YAHQAU_iobuf@@AAV__crt_cached_ptd_host@@@Z 10027e30     libucrt:fclose.obj
 0002:00007e50       __sehtable$??$?RV<lambda_d422a76eb4c3bf3ad751449ab71a6ea4>@@AAV<lambda_c9ba49e555ba839a7b07aa3fbecb7617>@@V<lambda_9476263c8ee91a25d21c55370bdb50de>@@@?$__crt_seh_guarded_call@H@@QAEH$$QAV<lambda_d422a76eb4c3bf3ad751449ab71a6ea4>@@AAV<lambda_c9ba49e555ba839a7b07aa3fbecb7617>@@$$QAV<lambda_9476263c8ee91a25d21c55370bdb50de>@@@Z 10027e50     libucrt:close.obj
 0002:00007e70       __sehtable$___set_fpsr_sse2 10027e70     libucrt:fpctrl.obj
 0002:00007e90       __sehtable$__IsNonwritableInCurrentImage 10027e90     LIBCMT:pesect.obj
 0002:00007ec0       .edata                     10027ec0     OPOSTotals.exp
 0002:00007ee8       rgpv                       10027ee8     OPOSTotals.exp
 0002:00007ef8       rgszName                   10027ef8     OPOSTotals.exp
 0002:00007f08       rgwOrd                     10027f08     OPOSTotals.exp
 0002:00007f10       szName                     10027f10     OPOSTotals.exp
 0002:00007f1f       $N00001                    10027f1f     OPOSTotals.exp
 0002:00007f2f       $N00002                    10027f2f     OPOSTotals.exp
 0002:00007f41       $N00003                    10027f41     OPOSTotals.exp
 0002:00007f53       $N00004                    10027f53     OPOSTotals.exp
 0002:00008562       .idata$6                   10028562     kernel32:KERNEL32.dll
 0002:00008776       .idata$6                   10028776     user32:USER32.dll
 0002:000088aa       .idata$6                   100288aa     gdi32:GDI32.dll
 0002:00008950       .idata$6                   10028950     advapi32:ADVAPI32.dll
 0002:00008a6c       .idata$6                   10028a6c     ole32:ole32.dll
 0002:00008a76       .idata$6                   10028a76     oleaut32:OLEAUT32.dll
 0003:00000110       ?ObjectMap@@3PAU_ATL_OBJMAP_ENTRY30@ATL@@A 10029110     Totals.obj
 0003:000001c0       ?s_SOMethodNames@@3PAPADA  100291c0     TotalsImpl.obj
 0003:00000240       ?s_RequiredMethodsPerRelease@@3PAHA 10029240     TotalsImpl.obj
 0003:00000280       ?__vcrt_flsindex@@3KA      10029280     libvcruntime:per_thread_data.obj
 0003:000002a0       ?errno_no_memory@@3HA      100292a0     libucrt:errno.obj
 0003:000002a4       ?doserrno_no_memory@@3KA   100292a4     libucrt:errno.obj
 0003:000002b0       ?__acrt_flsindex@@3KA      100292b0     libucrt:per_thread_data.obj
 0003:00000648       __mbctypes                 10029648     libucrt:mbctype.obj
 0003:00000750       __mbcasemaps               10029750     libucrt:mbctype.obj
 0003:00000850       ?__rgctypeflag@@3PADA      10029850     libucrt:mbctype.obj
 0003:00000858       ?__rgcode_page_info@@3PAUcode_page_info@@A 10029858     libucrt:mbctype.obj
 0003:00000ab0       ?__dcrt_lowio_console_output_handle@@3PAXA 10029ab0     libucrt:initcon.obj
 0003:00000ab4       ?__DAZ_ENABLED@?1??__set_fpsr_sse2@@9@9 10029ab4     libucrt:fpctrl.obj
 0003:00000c48       ?is_initialized_as_dll@@3_NA 10029c48     LIBCMT:utility.obj
 0003:00000c49       ?module_local_atexit_table_initialized@@3_NA 10029c49     LIBCMT:utility.obj
 0003:00000c4c       ?module_local_atexit_table@@3U_onexit_table_t@@A 10029c4c     LIBCMT:utility.obj
 0003:00000c58       ?module_local_at_quick_exit_table@@3U_onexit_table_t@@A 10029c58     LIBCMT:utility.obj
 0003:00000c64       ?g_tss_cv@@3U_RTL_CONDITION_VARIABLE@@A 10029c64     LIBCMT:thread_safe_statics.obj
 0003:00000c68       ?g_tss_event@@3PAXA        10029c68     LIBCMT:thread_safe_statics.obj
 0003:00000c6c       ?g_tss_mutex@@3U_RTL_CRITICAL_SECTION@@A 10029c6c     LIBCMT:thread_safe_statics.obj
 0003:00000c84       ?g_sleep_condition_variable_cs@@3P6GHPAU_RTL_CONDITION_VARIABLE@@PAU_RTL_CRITICAL_SECTION@@K@ZA 10029c84     LIBCMT:thread_safe_statics.obj
 0003:00000c88       ?g_wake_all_condition_variable@@3P6GXPAU_RTL_CONDITION_VARIABLE@@@ZA 10029c88     LIBCMT:thread_safe_statics.obj
 0003:00000c90       _GS_ExceptionRecord        10029c90     LIBCMT:gs_report.obj
 0003:00000ce0       _GS_ContextRecord          10029ce0     LIBCMT:gs_report.obj
 0003:00000fb0       ?__proc_attached@@3HA      10029fb0     LIBCMT:dll_dllmain.obj
 0003:0000100c       ?AllocateData@@3P6GPAUAtlThunkData_t@@XZA 1002a00c     atls:atlthunk.obj
 0003:00001010       ?InitData@@3P6GXPAUAtlThunkData_t@@PAXI@ZA 1002a010     atls:atlthunk.obj
 0003:00001014       ?DataToCode@@3P6GP6GJPAUHWND__@@IIJ@ZPAUAtlThunkData_t@@@ZA 1002a014     atls:atlthunk.obj
 0003:00001018       ?FreeData@@3P6GXPAUAtlThunkData_t@@@ZA 1002a018     atls:atlthunk.obj
 0003:0000101c       ?Initialized@@3_NA         1002a01c     atls:atlthunk.obj
 0003:0000102c       ?__vcrt_startup_thread_ptd@@3U__vcrt_ptd@@A 1002a02c     libvcruntime:per_thread_data.obj
 0003:00001054       ___vcrt_lock_table         1002a054     libvcruntime:locks.obj
 0003:0000106c       ___vcrt_locks_initialized  1002a06c     libvcruntime:locks.obj
 0003:00001098       ?heap@@3V_HeapManager@@A   1002a098     libvcruntime:undname.obj
 0003:000010ac       ?module_handles@@3PAPAUHINSTANCE__@@A 1002a0ac     libvcruntime:winapi_downlevel.obj
 0003:000010b8       ?function_pointers@@3PAPAXA 1002a0b8     libvcruntime:winapi_downlevel.obj
 0003:000010cc       ?__acrt_invalid_parameter_handler@@3V?$dual_state_global@P6AXPB_W00II@Z@__crt_state_management@@A 1002a0cc     libucrt:invalid_parameter.obj
 0003:000010d0       ?c_termination_complete@@3JA 1002a0d0     libucrt:exit.obj
 0003:000010d4       ?thread_local_exit_callback_func@@3P6GXPAXK0@ZA 1002a0d4     libucrt:exit.obj
 0003:000010e0       ?program_name@?1???$common_configure_argv@D@@YAHW4_crt_argv_mode@@@Z@4PADA 1002a0e0     libucrt:argv_parsing.obj
 0003:00001210       ?__acrt_new_handler@@3V?$dual_state_global@P6AHI@Z@__crt_state_management@@A 1002a210     libucrt:new_handler.obj
 0003:00001220       ?module_handles@@3PAPAUHINSTANCE__@@A 1002a220     libucrt:winapi_thunks.obj
 0003:00001270       ?encoded_function_pointers@@3PAPAXA 1002a270     libucrt:winapi_thunks.obj
 0003:000012f8       ?internal_state@?1??_mbtowc_internal@@9@4U_Mbstatet@@A 1002a2f8     libucrt:mbtowc.obj
 0003:00001308       ?enable_percent_n@@3IA     1002a308     libucrt:printf_count_output.obj
 0003:00001520       ?__acrt_lock_table@@3PAU_RTL_CRITICAL_SECTION@@A 1002a520     libucrt:locks.obj
 0003:00001670       ?__acrt_locks_initialized@@3IA 1002a670     libucrt:locks.obj
 0003:00001680       ?fSystemSet@@3HA           1002a680     libucrt:mbctype.obj
 0003:00001684       ?initialized@?1??__acrt_initialize_multibyte@@9@4_NA 1002a684     libucrt:mbctype.obj
 0003:000016a4       ?ctrlc_action@@3V?$dual_state_global@P6AXH@Z@__crt_state_management@@A 1002a6a4     libucrt:signal.obj
 0003:000016a8       ?ctrlbreak_action@@3V?$dual_state_global@P6AXH@Z@__crt_state_management@@A 1002a6a8     libucrt:signal.obj
 0003:000016ac       ?abort_action@@3V?$dual_state_global@P6AXH@Z@__crt_state_management@@A 1002a6ac     libucrt:signal.obj
 0003:000016b0       ?term_action@@3V?$dual_state_global@P6AXH@Z@__crt_state_management@@A 1002a6b0     libucrt:signal.obj
 0003:000016b4       ?user_matherr@@3V?$dual_state_global@P6AHPAU_exception@@@Z@__crt_state_management@@A 1002a6b4     libucrt:matherr.obj
 0003:000016c0       ?__acrt_global_new_mode@@3V?$dual_state_global@J@__crt_state_management@@A 1002a6c0     libucrt:new_mode.obj
 0003:000016c4       ?internal_pst@?1??__mbrtoc32_utf8@__crt_mbstring@@YAIPA_UPBDIPAU_Mbstatet@@AAV__crt_cached_ptd_host@@@Z@4U3@A 1002a6c4     libucrt:mbrtoc32.obj
 0003:000016cc       ?__acrt_app_type@@3W4_crt_app_type@@A 1002a6cc     libucrt:report_runtime_error.obj
 0003:000016d4       __pmatherr_set             1002a6d4     libucrt:libm_error.obj
 0004:00000220       $R000000                   1002b220     Totals.res
 0004:00000ba0       $R000980                   1002bba0     Totals.res
 0004:00000c88       $R000A68                   1002bc88     Totals.res
 0004:00000ef0       $R000CD0                   1002bef0     Totals.res
 0004:00001438       $R001218                   1002c438     Totals.res
 0004:00004160       $R003F40                   1002f160     Totals.res
 0004:00004190       $R003F70                   1002f190     Totals.res
