 OPOSBumpBar

 Timestamp is 5c44372f (Sun Jan 20 17:54:07 2019)

 Preferred load address is 10000000

 Start         Length     Name                   Class
 0001:00000000 00000080H .text$di                CODE
 0001:00000080 0001ce9bH .text$mn                CODE
 0001:0001cf1b 00000051H .text$x                 CODE
 0001:0001cf6c 00000042H .text$yd                CODE
 0002:00000000 00000300H .idata$5                DATA
 0002:00000300 00000004H .00cfg                  DATA
 0002:00000304 00000004H .CRT$XCA                DATA
 0002:00000308 00000004H .CRT$XCL                DATA
 0002:0000030c 00000010H .CRT$XCU                DATA
 0002:0000031c 00000004H .CRT$XCZ                DATA
 0002:00000320 00000004H .CRT$XIA                DATA
 0002:00000324 00000010H .CRT$XIC                DATA
 0002:00000334 00000004H .CRT$XIZ                DATA
 0002:00000338 00000004H .CRT$XLA                DATA
 0002:0000033c 00000004H .CRT$XLZ                DATA
 0002:00000340 00000004H .CRT$XPA                DATA
 0002:00000344 00000008H .CRT$XPX                DATA
 0002:0000034c 00000004H .CRT$XPXA               DATA
 0002:00000350 00000004H .CRT$XPZ                DATA
 0002:00000354 00000004H .CRT$XTA                DATA
 0002:00000358 00000008H .CRT$XTZ                DATA
 0002:0000035c 00000000H .gfids$x                DATA
 0002:0000035c 00000000H .gfids$y                DATA
 0002:00000360 00006e28H .rdata                  DATA
 0002:00007188 00000018H .rdata$T                DATA
 0002:000071a0 00000180H .rdata$r                DATA
 0002:00007320 00000020H .rdata$sxdata           DATA
 0002:00007340 000003dcH .rdata$zzzdbg           DATA
 0002:0000771c 00000004H .rtc$IAA                DATA
 0002:00007720 00000004H .rtc$IZZ                DATA
 0002:00007724 00000004H .rtc$TAA                DATA
 0002:00007728 00000004H .rtc$TZZ                DATA
 0002:0000772c 00000004H .tls                    DATA
 0002:00007730 00000004H .tls$                   DATA
 0002:00007734 00000004H .tls$ZZZ                DATA
 0002:00007738 000005f4H .xdata$x                DATA
 0002:00007d2c 00000004H ATL$__a                 DATA
 0002:00007d30 00000010H ATL$__z                 DATA
 0002:00007d40 000000a8H .edata                  DATA
 0002:00007de8 00000078H .idata$2                DATA
 0002:00007e60 00000014H .idata$3                DATA
 0002:00007e74 00000300H .idata$4                DATA
 0002:00008174 00000bdeH .idata$6                DATA
 0003:00000000 00000990H .data                   DATA
 0003:00000990 00000098H .data$r                 DATA
 0003:00000a28 00000b5cH .bss                    DATA
 0004:00000000 00000220H .rsrc$01                DATA
 0004:00000220 00004270H .rsrc$02                DATA

  Address         Publics by Value              Rva+Base       Lib:Object

 0000:00000000       ___guard_fids_count        00000000     <absolute>
 0000:00000000       ___hybrid_code_map_count   00000000     <absolute>
 0000:00000000       ___hybrid_auxiliary_iat    00000000     <absolute>
 0000:00000000       ___guard_iat_count         00000000     <absolute>
 0000:00000000       ___guard_fids_table        00000000     <absolute>
 0000:00000000       ___guard_longjmp_table     00000000     <absolute>
 0000:00000000       ___volatile_metadata       00000000     <absolute>
 0000:00000000       ___guard_iat_table         00000000     <absolute>
 0000:00000000       __except_list              00000000     <absolute>
 0000:00000000       ___dynamic_value_reloc_table 00000000     <absolute>
 0000:00000000       ___enclave_config          00000000     <absolute>
 0000:00000000       ___guard_longjmp_count     00000000     <absolute>
 0000:00000000       ___hybrid_code_map         00000000     <absolute>
 0000:00000008       ___safe_se_handler_count   00000008     <absolute>
 0000:0000002c       __tls_array                0000002c     <absolute>
 0000:00000100       ___guard_flags             00000100     <absolute>
 0000:00000000       ___ImageBase               10000000     <linker-defined>
 0001:00000080       ?DupWide@_CW@@AAEXXZ       10001080 f   CWString.obj
 0001:0000009c       ?cw_dup@@YGXPBDAAHAAPA_W1@Z 1000109c f   CWString.obj
 0001:0000010b       ?cw_memcpy@@YGHPA_WPBDH@Z  1000110b f   CWString.obj
 0001:00000137       ?cw_strcpy@@YAHPA_WPBD@Z   10001137 f   CWString.obj
 0001:0000014a       ?cw_strlen@@YAHPBD@Z       1000114a f   CWString.obj
 0001:00000163       ??0CAtlComModule@ATL@@QAE@XZ 10001163 f i OposVariant.obj
 0001:000001a8       ??0CAtlWinModule@ATL@@QAE@XZ 100011a8 f i OposVariant.obj
 0001:000001df       ??0OposDispParms@@QAE@PAVOposVariant@@H@Z 100011df f   OposVariant.obj
 0001:00000250       ??1OposDispParms@@QAE@XZ   10001250 f   OposVariant.obj
 0001:0000025e       ??A?$CSimpleArray@GV?$CSimpleArrayEqualHelper@G@ATL@@@ATL@@QAEAAGH@Z 1000125e f i OposVariant.obj
 0001:00000283       ??_Estringdispid@CComTypeInfoHolder@ATL@@QAEPAXI@Z 10001283 f i OposVariant.obj
 0001:000002ef       ?AtlWinModuleInit@ATL@@YGJPAU_ATL_WIN_MODULE70@1@@Z 100012ef f i OposVariant.obj
 0001:00000315       ?AtlWinModuleTerm@ATL@@YGJPAU_ATL_WIN_MODULE70@1@PAUHINSTANCE__@@@Z 10001315 f i OposVariant.obj
 0001:00000378       ?ChangeBSTR@OposVariant@@QAEXPAPA_WAAJ@Z 10001378 f   OposVariant.obj
 0001:000003b9       ?ChangeLONG@OposVariant@@QAEXPAJAAJ@Z 100013b9 f   OposVariant.obj
 0001:000003fa       ?GetLONG@OposVariant@@QAEJXZ 100013fa f   OposVariant.obj
 0001:00000415       ?Init@CComCriticalSection@ATL@@QAEJXZ 10001415 f i OposVariant.obj
 0001:0000043d       ?RemoveAll@?$CSimpleArray@PAUHINSTANCE__@@V?$CSimpleArrayEqualHelper@PAUHINSTANCE__@@@ATL@@@ATL@@QAEXXZ 1000143d f i atls:atlbase.obj
 0001:0000043d       ?RemoveAll@?$CSimpleArray@GV?$CSimpleArrayEqualHelper@G@ATL@@@ATL@@QAEXXZ 1000143d f i OposVariant.obj
 0001:0000045a       ?SetBSTR@OposVariant@@QAEXPA_WAAJ@Z 1000145a f   OposVariant.obj
 0001:0000048e       ?SetBSTR_Copy@OposVariant@@QAEXPA_WAAJ@Z 1000148e f   OposVariant.obj
 0001:000004de       ?SetBSTR_InOutPtr@OposVariant@@QAE_NPAPA_WAAJ@Z 100014de f   OposVariant.obj
 0001:00000515       ?SetDispatch_Ptr@OposVariant@@QAEXPAUIDispatch@@AAJ@Z 10001515 f   OposVariant.obj
 0001:00000550       ?SetLONG@OposVariant@@QAEXJ@Z 10001550 f   OposVariant.obj
 0001:00000572       ?SetLONG_Ptr@OposVariant@@QAEXPAJAAJ@Z 10001572 f   OposVariant.obj
 0001:000005a5       ?SetString@OposVariant@@QAEXPB_WAAJ@Z 100015a5 f   OposVariant.obj
 0001:000005eb       ?SetVARIANT_BOOL@OposVariant@@QAEXF@Z 100015eb f   OposVariant.obj
 0001:00000615       ?Term@CAtlComModule@ATL@@QAEXXZ 10001615 f i OposVariant.obj
 0001:0000065f       ?_AtlRaiseException@ATL@@YAXKK@Z 1000165f f i OposVariant.obj
 0001:00000674       ?AddRef@?$CComObjectCached@VCComClassFactory@ATL@@@ATL@@UAGKXZ 10001674 f i BumpBar.obj
 0001:0000069b       ?Release@?$CComObjectCached@VCComClassFactory@ATL@@@ATL@@UAGKXZ 1000169b f i BumpBar.obj
 0001:000006d1       ?QueryInterface@?$CComObjectCached@VCComClassFactory@ATL@@@ATL@@UAGJABU_GUID@@PAPAX@Z 100016d1 f i BumpBar.obj
 0001:000006eb       ??_E?$CComObjectCached@VCComClassFactory@ATL@@@ATL@@UAEPAXI@Z 100016eb f i BumpBar.obj
 0001:000006eb       ??_G?$CComObjectCached@VCComClassFactory@ATL@@@ATL@@UAEPAXI@Z 100016eb f i BumpBar.obj
 0001:0000070d       ?AddRef@?$CComAggObject@VCOPOSBumpBar@@@ATL@@UAGKXZ 1000170d f i BumpBar.obj
 0001:0000071e       ?Release@?$CComAggObject@VCOPOSBumpBar@@@ATL@@UAGKXZ 1000171e f i BumpBar.obj
 0001:0000075a       ?QueryInterface@?$CComAggObject@VCOPOSBumpBar@@@ATL@@UAGJABU_GUID@@PAPAX@Z 1000175a f i BumpBar.obj
 0001:000007a9       ?AddRef@?$CComContainedObject@VCOPOSBumpBar@@@ATL@@UAGKXZ 100017a9 f i BumpBar.obj
 0001:000007bf       ?Release@?$CComContainedObject@VCOPOSBumpBar@@@ATL@@UAGKXZ 100017bf f i BumpBar.obj
 0001:000007d5       ?QueryInterface@?$CComContainedObject@VCOPOSBumpBar@@@ATL@@UAGJABU_GUID@@PAPAX@Z 100017d5 f i BumpBar.obj
 0001:000007f0       ??_E?$CComAggObject@VCOPOSBumpBar@@@ATL@@UAEPAXI@Z 100017f0 f i BumpBar.obj
 0001:000007f0       ??_G?$CComAggObject@VCOPOSBumpBar@@@ATL@@UAEPAXI@Z 100017f0 f i BumpBar.obj
 0001:00000815       ?AddRef@?$CComObject@VCOPOSBumpBar@@@ATL@@UAGKXZ 10001815 f i BumpBar.obj
 0001:0000082c       ?Release@?$CComObject@VCOPOSBumpBar@@@ATL@@UAGKXZ 1000182c f i BumpBar.obj
 0001:0000086e       ?QueryInterface@?$CComObject@VCOPOSBumpBar@@@ATL@@UAGJABU_GUID@@PAPAX@Z 1000186e f i BumpBar.obj
 0001:00000888       ?ObjectMain@CComObjectRootBase@ATL@@SGX_N@Z 10001888 f i BumpBar.obj
 0001:00000888       ?OnFinalMessage@?$CWindowImplBaseT@VCWindow@ATL@@V?$CWinTraits@$0FGAAAAAA@$0A@@2@@ATL@@UAEXPAUHWND__@@@Z 10001888 f i BumpBar.obj
 0001:0000088b       ?GetCategoryMap@CComObjectRootBase@ATL@@SAPBU_ATL_CATMAP_ENTRY@2@XZ 1000188b f i BumpBar.obj
 0001:0000088b       ?GetObjectDescription@?$CComCoClass@VCOPOSBumpBar@@$1?CLSID_OPOSBumpBar@@3U_GUID@@B@ATL@@SGPB_WXZ 1000188b f i BumpBar.obj
 0001:0000088e       ?CreateInstance@CComClassFactory@ATL@@UAGJPAUIUnknown@@ABU_GUID@@PAPAX@Z 1000188e f i BumpBar.obj
 0001:000008cc       ?LockServer@CComClassFactory@ATL@@UAGJH@Z 100018cc f i BumpBar.obj
 0001:000008eb       ??_ECComClassFactory@ATL@@UAEPAXI@Z 100018eb f i BumpBar.obj
 0001:000008eb       ??_GCComClassFactory@ATL@@UAEPAXI@Z 100018eb f i BumpBar.obj
 0001:00000916       ?OnDrawAdvanced@CComControlBase@ATL@@UAEJAAUATL_DRAWINFO@@@Z 10001916 f i BumpBar.obj
 0001:00000a05       ?Next@?$CComEnumImpl@UIEnumConnections@@$1?_GUID_b196b287_bab4_101a_b69c_00aa00341d07@@3U__s_GUID@@BUtagCONNECTDATA@@V?$_Copy@UtagCONNECTDATA@@@ATL@@@ATL@@UAGJKPAUtagCONNECTDATA@@PAK@Z 10001a05 f i BumpBar.obj
 0001:00000adc       ?Skip@?$CComEnumImpl@UIEnumConnections@@$1?_GUID_b196b287_bab4_101a_b69c_00aa00341d07@@3U__s_GUID@@BUtagCONNECTDATA@@V?$_Copy@UtagCONNECTDATA@@@ATL@@@ATL@@UAGJK@Z 10001adc f i BumpBar.obj
 0001:00000b09       ?Reset@?$CComEnumImpl@UIEnumConnectionPoints@@$1?_GUID_b196b285_bab4_101a_b69c_00aa00341d07@@3U__s_GUID@@BPAUIConnectionPoint@@V?$_CopyInterface@UIConnectionPoint@@@ATL@@@ATL@@UAGJXZ 10001b09 f i BumpBar.obj
 0001:00000b09       ?Reset@?$CComEnumImpl@UIEnumConnections@@$1?_GUID_b196b287_bab4_101a_b69c_00aa00341d07@@3U__s_GUID@@BUtagCONNECTDATA@@V?$_Copy@UtagCONNECTDATA@@@ATL@@@ATL@@UAGJXZ 10001b09 f i BumpBar.obj
 0001:00000b1b       ?Clone@?$CComEnumImpl@UIEnumConnections@@$1?_GUID_b196b287_bab4_101a_b69c_00aa00341d07@@3U__s_GUID@@BUtagCONNECTDATA@@V?$_Copy@UtagCONNECTDATA@@@ATL@@@ATL@@UAGJPAPAUIEnumConnections@@@Z 10001b1b f i BumpBar.obj
 0001:00000bfa       ?AddRef@?$CComObject@V?$CComEnum@UIEnumConnectionPoints@@$1?_GUID_b196b285_bab4_101a_b69c_00aa00341d07@@3U__s_GUID@@BPAUIConnectionPoint@@V?$_CopyInterface@UIConnectionPoint@@@ATL@@VCComSingleThreadModel@6@@ATL@@@ATL@@UAGKXZ 10001bfa f i BumpBar.obj
 0001:00000bfa       ?AddRef@?$CComObject@V?$CComEnum@UIEnumConnections@@$1?_GUID_b196b287_bab4_101a_b69c_00aa00341d07@@3U__s_GUID@@BUtagCONNECTDATA@@V?$_Copy@UtagCONNECTDATA@@@ATL@@VCComSingleThreadModel@6@@ATL@@@ATL@@UAGKXZ 10001bfa f i BumpBar.obj
 0001:00000c0b       ?Release@?$CComObject@V?$CComEnum@UIEnumConnectionPoints@@$1?_GUID_b196b285_bab4_101a_b69c_00aa00341d07@@3U__s_GUID@@BPAUIConnectionPoint@@V?$_CopyInterface@UIConnectionPoint@@@ATL@@VCComSingleThreadModel@6@@ATL@@@ATL@@UAGKXZ 10001c0b f i BumpBar.obj
 0001:00000c0b       ?Release@?$CComObject@V?$CComEnum@UIEnumConnections@@$1?_GUID_b196b287_bab4_101a_b69c_00aa00341d07@@3U__s_GUID@@BUtagCONNECTDATA@@V?$_Copy@UtagCONNECTDATA@@@ATL@@VCComSingleThreadModel@6@@ATL@@@ATL@@UAGKXZ 10001c0b f i BumpBar.obj
 0001:00000c47       ?QueryInterface@?$CComObject@V?$CComEnum@UIEnumConnections@@$1?_GUID_b196b287_bab4_101a_b69c_00aa00341d07@@3U__s_GUID@@BUtagCONNECTDATA@@V?$_Copy@UtagCONNECTDATA@@@ATL@@VCComSingleThreadModel@6@@ATL@@@ATL@@UAGJABU_GUID@@PAPAX@Z 10001c47 f i BumpBar.obj
 0001:00000c61       ??_E?$CComObject@V?$CComEnum@UIEnumConnections@@$1?_GUID_b196b287_bab4_101a_b69c_00aa00341d07@@3U__s_GUID@@BUtagCONNECTDATA@@V?$_Copy@UtagCONNECTDATA@@@ATL@@VCComSingleThreadModel@6@@ATL@@@ATL@@UAEPAXI@Z 10001c61 f i BumpBar.obj
 0001:00000c61       ??_G?$CComObject@V?$CComEnum@UIEnumConnections@@$1?_GUID_b196b287_bab4_101a_b69c_00aa00341d07@@3U__s_GUID@@BUtagCONNECTDATA@@V?$_Copy@UtagCONNECTDATA@@@ATL@@VCComSingleThreadModel@6@@ATL@@@ATL@@UAEPAXI@Z 10001c61 f i BumpBar.obj
 0001:00000c83       ??_E?$CComObject@VCOPOSBumpBar@@@ATL@@W3AEPAXI@Z 10001c83 f i BumpBar.obj
 0001:00000c8b       ??_E?$CComObject@VCOPOSBumpBar@@@ATL@@WEM@AEPAXI@Z 10001c8b f i BumpBar.obj
 0001:00000c93       ?QueryInterface@?$CComObject@VCOPOSBumpBar@@@ATL@@WHA@AGJABU_GUID@@PAPAX@Z 10001c93 f i BumpBar.obj
 0001:00000c9d       ?AddRef@?$CComObject@VCOPOSBumpBar@@@ATL@@WHA@AGKXZ 10001c9d f i BumpBar.obj
 0001:00000ca7       ?Release@?$CComObject@VCOPOSBumpBar@@@ATL@@WHA@AGKXZ 10001ca7 f i BumpBar.obj
 0001:00000cb1       ?QueryInterface@?$CComObject@VCOPOSBumpBar@@@ATL@@WHE@AGJABU_GUID@@PAPAX@Z 10001cb1 f i BumpBar.obj
 0001:00000cbb       ?AddRef@?$CComObject@VCOPOSBumpBar@@@ATL@@WHE@AGKXZ 10001cbb f i BumpBar.obj
 0001:00000cc5       ?Release@?$CComObject@VCOPOSBumpBar@@@ATL@@WHE@AGKXZ 10001cc5 f i BumpBar.obj
 0001:00000ccf       ?QueryInterface@?$CComObject@VCOPOSBumpBar@@@ATL@@WHI@AGJABU_GUID@@PAPAX@Z 10001ccf f i BumpBar.obj
 0001:00000cd9       ?AddRef@?$CComObject@VCOPOSBumpBar@@@ATL@@WHI@AGKXZ 10001cd9 f i BumpBar.obj
 0001:00000ce3       ?Release@?$CComObject@VCOPOSBumpBar@@@ATL@@WHI@AGKXZ 10001ce3 f i BumpBar.obj
 0001:00000ced       ?QueryInterface@?$CComObject@VCOPOSBumpBar@@@ATL@@WHM@AGJABU_GUID@@PAPAX@Z 10001ced f i BumpBar.obj
 0001:00000cf7       ?AddRef@?$CComObject@VCOPOSBumpBar@@@ATL@@WHM@AGKXZ 10001cf7 f i BumpBar.obj
 0001:00000d01       ?Release@?$CComObject@VCOPOSBumpBar@@@ATL@@WHM@AGKXZ 10001d01 f i BumpBar.obj
 0001:00000d0b       ?QueryInterface@?$CComObject@VCOPOSBumpBar@@@ATL@@WIA@AGJABU_GUID@@PAPAX@Z 10001d0b f i BumpBar.obj
 0001:00000d18       ?AddRef@?$CComObject@VCOPOSBumpBar@@@ATL@@WIA@AGKXZ 10001d18 f i BumpBar.obj
 0001:00000d25       ?Release@?$CComObject@VCOPOSBumpBar@@@ATL@@WIA@AGKXZ 10001d25 f i BumpBar.obj
 0001:00000d32       ?QueryInterface@?$CComObject@VCOPOSBumpBar@@@ATL@@WIE@AGJABU_GUID@@PAPAX@Z 10001d32 f i BumpBar.obj
 0001:00000d3f       ?AddRef@?$CComObject@VCOPOSBumpBar@@@ATL@@WIE@AGKXZ 10001d3f f i BumpBar.obj
 0001:00000d4c       ?Release@?$CComObject@VCOPOSBumpBar@@@ATL@@WIE@AGKXZ 10001d4c f i BumpBar.obj
 0001:00000d59       ?QueryInterface@?$CComObject@VCOPOSBumpBar@@@ATL@@WII@AGJABU_GUID@@PAPAX@Z 10001d59 f i BumpBar.obj
 0001:00000d66       ?AddRef@?$CComObject@VCOPOSBumpBar@@@ATL@@WII@AGKXZ 10001d66 f i BumpBar.obj
 0001:00000d73       ?Release@?$CComObject@VCOPOSBumpBar@@@ATL@@WII@AGKXZ 10001d73 f i BumpBar.obj
 0001:00000d80       ?QueryInterface@?$CComObject@VCOPOSBumpBar@@@ATL@@WIM@AGJABU_GUID@@PAPAX@Z 10001d80 f i BumpBar.obj
 0001:00000d8d       ?AddRef@?$CComObject@VCOPOSBumpBar@@@ATL@@WIM@AGKXZ 10001d8d f i BumpBar.obj
 0001:00000d9a       ?Release@?$CComObject@VCOPOSBumpBar@@@ATL@@WIM@AGKXZ 10001d9a f i BumpBar.obj
 0001:00000da7       ?QueryInterface@?$CComObject@VCOPOSBumpBar@@@ATL@@WJA@AGJABU_GUID@@PAPAX@Z 10001da7 f i BumpBar.obj
 0001:00000db4       ?AddRef@?$CComObject@VCOPOSBumpBar@@@ATL@@WJA@AGKXZ 10001db4 f i BumpBar.obj
 0001:00000dc1       ?Release@?$CComObject@VCOPOSBumpBar@@@ATL@@WJA@AGKXZ 10001dc1 f i BumpBar.obj
 0001:00000dce       ?QueryInterface@?$CComObject@VCOPOSBumpBar@@@ATL@@WJE@AGJABU_GUID@@PAPAX@Z 10001dce f i BumpBar.obj
 0001:00000ddb       ?AddRef@?$CComObject@VCOPOSBumpBar@@@ATL@@WJE@AGKXZ 10001ddb f i BumpBar.obj
 0001:00000de8       ?Release@?$CComObject@VCOPOSBumpBar@@@ATL@@WJE@AGKXZ 10001de8 f i BumpBar.obj
 0001:00000df5       ?QueryInterface@?$CComObject@VCOPOSBumpBar@@@ATL@@WJI@AGJABU_GUID@@PAPAX@Z 10001df5 f i BumpBar.obj
 0001:00000e02       ?AddRef@?$CComObject@VCOPOSBumpBar@@@ATL@@WJI@AGKXZ 10001e02 f i BumpBar.obj
 0001:00000e0f       ?Release@?$CComObject@VCOPOSBumpBar@@@ATL@@WJI@AGKXZ 10001e0f f i BumpBar.obj
 0001:00000e1c       ?QueryInterface@?$CComObject@VCOPOSBumpBar@@@ATL@@WJM@AGJABU_GUID@@PAPAX@Z 10001e1c f i BumpBar.obj
 0001:00000e29       ?AddRef@?$CComObject@VCOPOSBumpBar@@@ATL@@WJM@AGKXZ 10001e29 f i BumpBar.obj
 0001:00000e36       ?Release@?$CComObject@VCOPOSBumpBar@@@ATL@@WJM@AGKXZ 10001e36 f i BumpBar.obj
 0001:00000e43       ?QueryInterface@?$CComObject@VCOPOSBumpBar@@@ATL@@WKA@AGJABU_GUID@@PAPAX@Z 10001e43 f i BumpBar.obj
 0001:00000e50       ?AddRef@?$CComObject@VCOPOSBumpBar@@@ATL@@WKA@AGKXZ 10001e50 f i BumpBar.obj
 0001:00000e5d       ?Release@?$CComObject@VCOPOSBumpBar@@@ATL@@WKA@AGKXZ 10001e5d f i BumpBar.obj
 0001:00000e6a       ?AddRef@?$CComObject@VCOPOSBumpBar@@@ATL@@WKI@AGKXZ 10001e6a f i BumpBar.obj
 0001:00000e77       ?Release@?$CComObject@VCOPOSBumpBar@@@ATL@@WKI@AGKXZ 10001e77 f i BumpBar.obj
 0001:00000e84       ?AddRef@?$CComObject@VCOPOSBumpBar@@@ATL@@WLE@AGKXZ 10001e84 f i BumpBar.obj
 0001:00000e91       ?Release@?$CComObject@VCOPOSBumpBar@@@ATL@@WLE@AGKXZ 10001e91 f i BumpBar.obj
 0001:00000e9e       ??_E?$CComContainedObject@VCOPOSBumpBar@@@ATL@@W3AEPAXI@Z 10001e9e f i BumpBar.obj
 0001:00000ea6       ??_E?$CComContainedObject@VCOPOSBumpBar@@@ATL@@WEM@AEPAXI@Z 10001ea6 f i BumpBar.obj
 0001:00000eae       ?QueryInterface@?$CComContainedObject@VCOPOSBumpBar@@@ATL@@WHA@AGJABU_GUID@@PAPAX@Z 10001eae f i BumpBar.obj
 0001:00000eb8       ?AddRef@?$CComContainedObject@VCOPOSBumpBar@@@ATL@@WHA@AGKXZ 10001eb8 f i BumpBar.obj
 0001:00000ec2       ?Release@?$CComContainedObject@VCOPOSBumpBar@@@ATL@@WHA@AGKXZ 10001ec2 f i BumpBar.obj
 0001:00000ecc       ?QueryInterface@?$CComContainedObject@VCOPOSBumpBar@@@ATL@@WHE@AGJABU_GUID@@PAPAX@Z 10001ecc f i BumpBar.obj
 0001:00000ed6       ?AddRef@?$CComContainedObject@VCOPOSBumpBar@@@ATL@@WHE@AGKXZ 10001ed6 f i BumpBar.obj
 0001:00000ee0       ?Release@?$CComContainedObject@VCOPOSBumpBar@@@ATL@@WHE@AGKXZ 10001ee0 f i BumpBar.obj
 0001:00000eea       ?QueryInterface@?$CComContainedObject@VCOPOSBumpBar@@@ATL@@WHI@AGJABU_GUID@@PAPAX@Z 10001eea f i BumpBar.obj
 0001:00000ef4       ?AddRef@?$CComContainedObject@VCOPOSBumpBar@@@ATL@@WHI@AGKXZ 10001ef4 f i BumpBar.obj
 0001:00000efe       ?Release@?$CComContainedObject@VCOPOSBumpBar@@@ATL@@WHI@AGKXZ 10001efe f i BumpBar.obj
 0001:00000f08       ?QueryInterface@?$CComContainedObject@VCOPOSBumpBar@@@ATL@@WHM@AGJABU_GUID@@PAPAX@Z 10001f08 f i BumpBar.obj
 0001:00000f12       ?AddRef@?$CComContainedObject@VCOPOSBumpBar@@@ATL@@WHM@AGKXZ 10001f12 f i BumpBar.obj
 0001:00000f1c       ?Release@?$CComContainedObject@VCOPOSBumpBar@@@ATL@@WHM@AGKXZ 10001f1c f i BumpBar.obj
 0001:00000f26       ?QueryInterface@?$CComContainedObject@VCOPOSBumpBar@@@ATL@@WIA@AGJABU_GUID@@PAPAX@Z 10001f26 f i BumpBar.obj
 0001:00000f33       ?AddRef@?$CComContainedObject@VCOPOSBumpBar@@@ATL@@WIA@AGKXZ 10001f33 f i BumpBar.obj
 0001:00000f40       ?Release@?$CComContainedObject@VCOPOSBumpBar@@@ATL@@WIA@AGKXZ 10001f40 f i BumpBar.obj
 0001:00000f4d       ?QueryInterface@?$CComContainedObject@VCOPOSBumpBar@@@ATL@@WIE@AGJABU_GUID@@PAPAX@Z 10001f4d f i BumpBar.obj
 0001:00000f5a       ?AddRef@?$CComContainedObject@VCOPOSBumpBar@@@ATL@@WIE@AGKXZ 10001f5a f i BumpBar.obj
 0001:00000f67       ?Release@?$CComContainedObject@VCOPOSBumpBar@@@ATL@@WIE@AGKXZ 10001f67 f i BumpBar.obj
 0001:00000f74       ?QueryInterface@?$CComContainedObject@VCOPOSBumpBar@@@ATL@@WII@AGJABU_GUID@@PAPAX@Z 10001f74 f i BumpBar.obj
 0001:00000f81       ?AddRef@?$CComContainedObject@VCOPOSBumpBar@@@ATL@@WII@AGKXZ 10001f81 f i BumpBar.obj
 0001:00000f8e       ?Release@?$CComContainedObject@VCOPOSBumpBar@@@ATL@@WII@AGKXZ 10001f8e f i BumpBar.obj
 0001:00000f9b       ?QueryInterface@?$CComContainedObject@VCOPOSBumpBar@@@ATL@@WIM@AGJABU_GUID@@PAPAX@Z 10001f9b f i BumpBar.obj
 0001:00000fa8       ?AddRef@?$CComContainedObject@VCOPOSBumpBar@@@ATL@@WIM@AGKXZ 10001fa8 f i BumpBar.obj
 0001:00000fb5       ?Release@?$CComContainedObject@VCOPOSBumpBar@@@ATL@@WIM@AGKXZ 10001fb5 f i BumpBar.obj
 0001:00000fc2       ?QueryInterface@?$CComContainedObject@VCOPOSBumpBar@@@ATL@@WJA@AGJABU_GUID@@PAPAX@Z 10001fc2 f i BumpBar.obj
 0001:00000fcf       ?AddRef@?$CComContainedObject@VCOPOSBumpBar@@@ATL@@WJA@AGKXZ 10001fcf f i BumpBar.obj
 0001:00000fdc       ?Release@?$CComContainedObject@VCOPOSBumpBar@@@ATL@@WJA@AGKXZ 10001fdc f i BumpBar.obj
 0001:00000fe9       ?QueryInterface@?$CComContainedObject@VCOPOSBumpBar@@@ATL@@WJE@AGJABU_GUID@@PAPAX@Z 10001fe9 f i BumpBar.obj
 0001:00000ff6       ?AddRef@?$CComContainedObject@VCOPOSBumpBar@@@ATL@@WJE@AGKXZ 10001ff6 f i BumpBar.obj
 0001:00001003       ?Release@?$CComContainedObject@VCOPOSBumpBar@@@ATL@@WJE@AGKXZ 10002003 f i BumpBar.obj
 0001:00001010       ?QueryInterface@?$CComContainedObject@VCOPOSBumpBar@@@ATL@@WJI@AGJABU_GUID@@PAPAX@Z 10002010 f i BumpBar.obj
 0001:0000101d       ?AddRef@?$CComContainedObject@VCOPOSBumpBar@@@ATL@@WJI@AGKXZ 1000201d f i BumpBar.obj
 0001:0000102a       ?Release@?$CComContainedObject@VCOPOSBumpBar@@@ATL@@WJI@AGKXZ 1000202a f i BumpBar.obj
 0001:00001037       ?QueryInterface@?$CComContainedObject@VCOPOSBumpBar@@@ATL@@WJM@AGJABU_GUID@@PAPAX@Z 10002037 f i BumpBar.obj
 0001:00001044       ?AddRef@?$CComContainedObject@VCOPOSBumpBar@@@ATL@@WJM@AGKXZ 10002044 f i BumpBar.obj
 0001:00001051       ?Release@?$CComContainedObject@VCOPOSBumpBar@@@ATL@@WJM@AGKXZ 10002051 f i BumpBar.obj
 0001:0000105e       ?QueryInterface@?$CComContainedObject@VCOPOSBumpBar@@@ATL@@WKA@AGJABU_GUID@@PAPAX@Z 1000205e f i BumpBar.obj
 0001:0000106b       ?AddRef@?$CComContainedObject@VCOPOSBumpBar@@@ATL@@WKA@AGKXZ 1000206b f i BumpBar.obj
 0001:00001078       ?Release@?$CComContainedObject@VCOPOSBumpBar@@@ATL@@WKA@AGKXZ 10002078 f i BumpBar.obj
 0001:00001085       ?AddRef@?$CComContainedObject@VCOPOSBumpBar@@@ATL@@WKI@AGKXZ 10002085 f i BumpBar.obj
 0001:00001092       ?Release@?$CComContainedObject@VCOPOSBumpBar@@@ATL@@WKI@AGKXZ 10002092 f i BumpBar.obj
 0001:0000109f       ?AddRef@?$CComContainedObject@VCOPOSBumpBar@@@ATL@@WLE@AGKXZ 1000209f f i BumpBar.obj
 0001:000010ac       ?Release@?$CComContainedObject@VCOPOSBumpBar@@@ATL@@WLE@AGKXZ 100020ac f i BumpBar.obj
 0001:000010b9       ?Lock@CAtlModule@ATL@@UAEJXZ 100020b9 f i BumpBar.obj
 0001:000010c3       ?Unlock@CAtlModule@ATL@@UAEJXZ 100020c3 f i BumpBar.obj
 0001:000010cd       ?GetLockCount@CAtlModule@ATL@@UAEJXZ 100020cd f i BumpBar.obj
 0001:000010d1       ?GetGITPtr@CAtlModule@ATL@@UAEJPAPAUIGlobalInterfaceTable@@@Z 100020d1 f i BumpBar.obj
 0001:0000111d       ?AddCommonRGSReplacements@?$CAtlModuleT@VCComModule@ATL@@@ATL@@UAEJPAUIRegistrarBase@@@Z 1000211d f i BumpBar.obj
 0001:00001137       ?UpdateRegistryFromResourceD@CComModule@ATL@@UAGJIHPAU_ATL_REGMAP_ENTRY@2@@Z 10002137 f i BumpBar.obj
 0001:00001137       ?UpdateRegistryFromResourceD@CComModule@ATL@@UAGJPB_WHPAU_ATL_REGMAP_ENTRY@2@@Z 10002137 f i BumpBar.obj
 0001:0000113f       ?UpdateRegistryFromResource@CComModule@ATL@@UAGJPB_WHPAU_ATL_REGMAP_ENTRY@2@@Z 1000213f f i BumpBar.obj
 0001:00001148       ?UpdateRegistryFromResource@CComModule@ATL@@UAGJIHPAU_ATL_REGMAP_ENTRY@2@@Z 10002148 f i BumpBar.obj
 0001:00001151       ??_ECComModule@ATL@@UAEPAXI@Z 10002151 f i BumpBar.obj
 0001:00001151       ??_GCComModule@ATL@@UAEPAXI@Z 10002151 f i BumpBar.obj
 0001:00001179       ?GetWindowProc@?$CWindowImplBaseT@VCWindow@ATL@@V?$CWinTraits@$0FGAAAAAA@$0A@@2@@ATL@@UAEP6GJPAUHWND__@@IIJ@ZXZ 10002179 f i BumpBar.obj
 0001:0000117f       ?StartWindowProc@?$CWindowImplBaseT@VCWindow@ATL@@V?$CWinTraits@$0FGAAAAAA@$0A@@2@@ATL@@SGJPAUHWND__@@IIJ@Z 1000217f f i BumpBar.obj
 0001:000011d3       ?GetTypeInfoCount@?$IDispatchImpl@UIOPOSBumpBar@@$1?IID_IOPOSBumpBar@@3U_GUID@@B$1?LIBID_OposBumpBar_CCO@@3U3@B$00$0A@VCComTypeInfoHolder@ATL@@@ATL@@UAGJPAI@Z 100021d3 f i BumpBar.obj
 0001:000011f0       ?GetTypeInfo@?$IDispatchImpl@UIOPOSBumpBar@@$1?IID_IOPOSBumpBar@@3U_GUID@@B$1?LIBID_OposBumpBar_CCO@@3U3@B$00$0A@VCComTypeInfoHolder@ATL@@@ATL@@UAGJIKPAPAUITypeInfo@@@Z 100021f0 f i BumpBar.obj
 0001:00001214       ?GetIDsOfNames@?$IDispatchImpl@UIOPOSBumpBar@@$1?IID_IOPOSBumpBar@@3U_GUID@@B$1?LIBID_OposBumpBar_CCO@@3U3@B$00$0A@VCComTypeInfoHolder@ATL@@@ATL@@UAGJABU_GUID@@PAPA_WIKPAJ@Z 10002214 f i BumpBar.obj
 0001:00001234       ?Invoke@?$IDispatchImpl@UIOPOSBumpBar@@$1?IID_IOPOSBumpBar@@3U_GUID@@B$1?LIBID_OposBumpBar_CCO@@3U3@B$00$0A@VCComTypeInfoHolder@ATL@@@ATL@@UAGJJABU_GUID@@KGPAUtagDISPPARAMS@@PAUtagVARIANT@@PAUtagEXCEPINFO@@PAI@Z 10002234 f i BumpBar.obj
 0001:00001242       ?CreateControlWindow@?$CComControl@VCOPOSBumpBar@@V?$CWindowImpl@VCOPOSBumpBar@@VCWindow@ATL@@V?$CWinTraits@$0FGAAAAAA@$0A@@3@@ATL@@@ATL@@UAEPAUHWND__@@PAU3@AAUtagRECT@@@Z 10002242 f i BumpBar.obj
 0001:00001271       ?ControlQueryInterface@?$CComControl@VCOPOSBumpBar@@V?$CWindowImpl@VCOPOSBumpBar@@VCWindow@ATL@@V?$CWinTraits@$0FGAAAAAA@$0A@@3@@ATL@@@ATL@@UAEJABU_GUID@@PAPAX@Z 10002271 f i BumpBar.obj
 0001:0000128c       ?GetClassID@?$IPersistStorageImpl@VCOPOSBumpBar@@@ATL@@UAGJPAU_GUID@@@Z 1000228c f i BumpBar.obj
 0001:0000128c       ?GetClassID@?$IPersistStreamInitImpl@VCOPOSBumpBar@@@ATL@@UAGJPAU_GUID@@@Z 1000228c f i BumpBar.obj
 0001:0000128c       ?GetUserClassID@?$IOleObjectImpl@VCOPOSBumpBar@@@ATL@@UAGJPAU_GUID@@@Z 1000228c f i BumpBar.obj
 0001:000012b0       ?IsDirty@?$IPersistStreamInitImpl@VCOPOSBumpBar@@@ATL@@UAGJXZ 100022b0 f i BumpBar.obj
 0001:000012cf       ?Load@?$IPersistStreamInitImpl@VCOPOSBumpBar@@@ATL@@UAGJPAUIStream@@@Z 100022cf f i BumpBar.obj
 0001:000012ee       ?Save@?$IPersistStreamInitImpl@VCOPOSBumpBar@@@ATL@@UAGJPAUIStream@@H@Z 100022ee f i BumpBar.obj
 0001:00001310       ?GetSizeMax@?$IPersistStreamInitImpl@VCOPOSBumpBar@@@ATL@@UAGJPAT_ULARGE_INTEGER@@@Z 10002310 f i BumpBar.obj
 0001:000014c5       ?InitNew@?$IPersistStreamInitImpl@VCOPOSBumpBar@@@ATL@@UAGJXZ 100024c5 f i BumpBar.obj
 0001:000014e2       ?ContextSensitiveHelp@?$IOleInPlaceActiveObjectImpl@VCOPOSBumpBar@@@ATL@@UAGJH@Z 100024e2 f i BumpBar.obj
 0001:000014e2       ?SetColorScheme@?$IOleObjectImpl@VCOPOSBumpBar@@@ATL@@UAGJPAUtagLOGPALETTE@@@Z 100024e2 f i BumpBar.obj
 0001:000014e2       ?QueryGetData@?$IDataObjectImpl@VCOPOSBumpBar@@@ATL@@UAGJPAUtagFORMATETC@@@Z 100024e2 f i BumpBar.obj
 0001:000014e2       ?Unfreeze@?$IViewObjectExImpl@VCOPOSBumpBar@@@ATL@@UAGJK@Z 100024e2 f i BumpBar.obj
 0001:000014e2       ?GetDropTarget@?$IOleInPlaceObjectWindowlessImpl@VCOPOSBumpBar@@@ATL@@UAGJPAPAUIDropTarget@@@Z 100024e2 f i BumpBar.obj
 0001:000014e2       ?GetControlInfo@?$IOleControlImpl@VCOPOSBumpBar@@@ATL@@UAGJPAUtagCONTROLINFO@@@Z 100024e2 f i BumpBar.obj
 0001:000014e2       ?OnMnemonic@?$IOleControlImpl@VCOPOSBumpBar@@@ATL@@UAGJPAUtagMSG@@@Z 100024e2 f i BumpBar.obj
 0001:000014e2       ?ContextSensitiveHelp@?$IOleInPlaceObjectWindowlessImpl@VCOPOSBumpBar@@@ATL@@UAGJH@Z 100024e2 f i BumpBar.obj
 0001:000014ea       ?SaveCompleted@?$IPersistStorageImpl@VCOPOSBumpBar@@@ATL@@UAGJPAUIStorage@@@Z 100024ea f i BumpBar.obj
 0001:000014ea       ?OnFrameWindowActivate@?$IOleInPlaceActiveObjectImpl@VCOPOSBumpBar@@@ATL@@UAGJH@Z 100024ea f i BumpBar.obj
 0001:000014ea       ?EnableModeless@?$IOleInPlaceActiveObjectImpl@VCOPOSBumpBar@@@ATL@@UAGJH@Z 100024ea f i BumpBar.obj
 0001:000014ea       ?OnAmbientPropertyChange@?$IOleControlImpl@VCOPOSBumpBar@@@ATL@@UAGJJ@Z 100024ea f i BumpBar.obj
 0001:000014ef       ?SetClientSite@?$IOleObjectImpl@VCOPOSBumpBar@@@ATL@@UAGJPAUIOleClientSite@@@Z 100024ef f i BumpBar.obj
 0001:0000150c       ?GetClientSite@?$IOleObjectImpl@VCOPOSBumpBar@@@ATL@@UAGJPAPAUIOleClientSite@@@Z 1000250c f i BumpBar.obj
 0001:00001529       ?SetHostNames@?$IOleObjectImpl@VCOPOSBumpBar@@@ATL@@UAGJPB_W0@Z 10002529 f i BumpBar.obj
 0001:0000152e       ?Close@?$IOleObjectImpl@VCOPOSBumpBar@@@ATL@@UAGJK@Z 1000252e f i BumpBar.obj
 0001:0000154b       ?EnumFormatEtc@?$IDataObjectImpl@VCOPOSBumpBar@@@ATL@@UAGJKPAPAUIEnumFORMATETC@@@Z 1000254b f i BumpBar.obj
 0001:0000154b       ?GetCanonicalFormatEtc@?$IDataObjectImpl@VCOPOSBumpBar@@@ATL@@UAGJPAUtagFORMATETC@@0@Z 1000254b f i BumpBar.obj
 0001:0000154b       ?GetDataHere@?$IDataObjectImpl@VCOPOSBumpBar@@@ATL@@UAGJPAUtagFORMATETC@@PAUtagSTGMEDIUM@@@Z 1000254b f i BumpBar.obj
 0001:0000154b       ?SetMoniker@?$IOleObjectImpl@VCOPOSBumpBar@@@ATL@@UAGJKPAUIMoniker@@@Z 1000254b f i BumpBar.obj
 0001:0000154b       ?QueryInterface@CRegObject@ATL@@UAGJABU_GUID@@PAPAX@Z 1000254b f i BumpBar.obj
 0001:0000154b       ?GetClipboardData@?$IOleObjectImpl@VCOPOSBumpBar@@@ATL@@UAGJKPAPAUIDataObject@@@Z 1000254b f i BumpBar.obj
 0001:0000154b       ?GetRect@?$IViewObjectExImpl@VCOPOSBumpBar@@@ATL@@UAGJKPAU_RECTL@@@Z 1000254b f i BumpBar.obj
 0001:00001553       ?GetMoniker@?$IOleObjectImpl@VCOPOSBumpBar@@@ATL@@UAGJKKPAPAUIMoniker@@@Z 10002553 f i BumpBar.obj
 0001:00001553       ?SetData@?$IDataObjectImpl@VCOPOSBumpBar@@@ATL@@UAGJPAUtagFORMATETC@@PAUtagSTGMEDIUM@@H@Z 10002553 f i BumpBar.obj
 0001:00001553       ?InitFromData@?$IOleObjectImpl@VCOPOSBumpBar@@@ATL@@UAGJPAUIDataObject@@HK@Z 10002553 f i BumpBar.obj
 0001:0000155b       ?DoVerb@?$IOleObjectImpl@VCOPOSBumpBar@@@ATL@@UAGJJPAUtagMSG@@PAUIOleClientSite@@JPAUHWND__@@PBUtagRECT@@@Z 1000255b f i BumpBar.obj
 0001:00001673       ?EnumVerbs@?$IOleObjectImpl@VCOPOSBumpBar@@@ATL@@UAGJPAPAUIEnumOLEVERB@@@Z 10002673 f i BumpBar.obj
 0001:00001695       ?Update@?$IOleObjectImpl@VCOPOSBumpBar@@@ATL@@UAGJXZ 10002695 f i BumpBar.obj
 0001:00001695       ?IsUpToDate@?$IOleObjectImpl@VCOPOSBumpBar@@@ATL@@UAGJXZ 10002695 f i BumpBar.obj
 0001:00001695       ?Release@CRegObject@ATL@@UAGKXZ 10002695 f i BumpBar.obj
 0001:00001695       ?HandsOffStorage@?$IPersistStorageImpl@VCOPOSBumpBar@@@ATL@@UAGJXZ 10002695 f i BumpBar.obj
 0001:0000169a       ?GetUserType@?$IOleObjectImpl@VCOPOSBumpBar@@@ATL@@UAGJKPAPA_W@Z 1000269a f i BumpBar.obj
 0001:000016b2       ?SetExtent@?$IOleObjectImpl@VCOPOSBumpBar@@@ATL@@UAGJKPAUtagSIZE@@@Z 100026b2 f i BumpBar.obj
 0001:000016d2       ?GetExtent@?$IOleObjectImpl@VCOPOSBumpBar@@@ATL@@UAGJKPAUtagSIZE@@@Z 100026d2 f i BumpBar.obj
 0001:00001710       ?Advise@?$IOleObjectImpl@VCOPOSBumpBar@@@ATL@@UAGJPAUIAdviseSink@@PAK@Z 10002710 f i BumpBar.obj
 0001:00001730       ?Unadvise@?$IOleObjectImpl@VCOPOSBumpBar@@@ATL@@UAGJK@Z 10002730 f i BumpBar.obj
 0001:0000175f       ?EnumAdvise@?$IOleObjectImpl@VCOPOSBumpBar@@@ATL@@UAGJPAPAUIEnumSTATDATA@@@Z 1000275f f i BumpBar.obj
 0001:0000179f       ?GetMiscStatus@?$IOleObjectImpl@VCOPOSBumpBar@@@ATL@@UAGJKPAK@Z 1000279f f i BumpBar.obj
 0001:000017b7       ?GetWindow@?$IOleInPlaceActiveObjectImpl@VCOPOSBumpBar@@@ATL@@UAGJPAPAUHWND__@@@Z 100027b7 f i BumpBar.obj
 0001:00001804       ?TranslateAcceleratorW@?$IOleInPlaceActiveObjectImpl@VCOPOSBumpBar@@@ATL@@UAGJPAUtagMSG@@@Z 10002804 f i BumpBar.obj
 0001:000018a2       ?OnDocWindowActivate@?$IOleInPlaceActiveObjectImpl@VCOPOSBumpBar@@@ATL@@UAGJH@Z 100028a2 f i BumpBar.obj
 0001:000018c4       ?ResizeBorder@?$IOleInPlaceActiveObjectImpl@VCOPOSBumpBar@@@ATL@@UAGJPBUtagRECT@@PAUIOleInPlaceUIWindow@@H@Z 100028c4 f i BumpBar.obj
 0001:000018c9       ?Draw@?$IViewObjectExImpl@VCOPOSBumpBar@@@ATL@@UAGJKJPAXPAUtagDVTARGETDEVICE@@PAUHDC__@@2PBU_RECTL@@3P6GHK@ZK@Z 100028c9 f i BumpBar.obj
 0001:000018fb       ?GetColorSet@?$IViewObjectExImpl@VCOPOSBumpBar@@@ATL@@UAGJKJPAXPAUtagDVTARGETDEVICE@@PAUHDC__@@PAPAUtagLOGPALETTE@@@Z 100028fb f i BumpBar.obj
 0001:00001903       ?Freeze@?$IViewObjectExImpl@VCOPOSBumpBar@@@ATL@@UAGJKJPAXPAK@Z 10002903 f i BumpBar.obj
 0001:0000190b       ?SetAdvise@?$IViewObjectExImpl@VCOPOSBumpBar@@@ATL@@UAGJKKPAUIAdviseSink@@@Z 1000290b f i BumpBar.obj
 0001:0000192a       ?GetAdvise@?$IViewObjectExImpl@VCOPOSBumpBar@@@ATL@@UAGJPAK0PAPAUIAdviseSink@@@Z 1000292a f i BumpBar.obj
 0001:0000195f       ?GetExtent@?$IViewObjectExImpl@VCOPOSBumpBar@@@ATL@@UAGJKJPAUtagDVTARGETDEVICE@@PAUtagSIZE@@@Z 1000295f f i BumpBar.obj
 0001:00001990       ?GetViewStatus@?$IViewObjectExImpl@VCOPOSBumpBar@@@ATL@@UAGJPAK@Z 10002990 f i BumpBar.obj
 0001:000019ad       ?QueryHitPoint@?$IViewObjectExImpl@VCOPOSBumpBar@@@ATL@@UAGJKPBUtagRECT@@UtagPOINT@@JPAK@Z 100029ad f i BumpBar.obj
 0001:000019ee       ?QueryHitRect@?$IViewObjectExImpl@VCOPOSBumpBar@@@ATL@@UAGJKPBUtagRECT@@0JPAK@Z 100029ee f i BumpBar.obj
 0001:00001a49       ?GetNaturalExtent@?$IViewObjectExImpl@VCOPOSBumpBar@@@ATL@@UAGJKJPAUtagDVTARGETDEVICE@@PAUHDC__@@PAUtagExtentInfo@@PAUtagSIZE@@@Z 10002a49 f i BumpBar.obj
 0001:00001a94       ?GetWindow@?$IOleInPlaceObjectWindowlessImpl@VCOPOSBumpBar@@@ATL@@UAGJPAPAUHWND__@@@Z 10002a94 f i BumpBar.obj
 0001:00001ae1       ?InPlaceDeactivate@?$IOleInPlaceObjectWindowlessImpl@VCOPOSBumpBar@@@ATL@@UAGJXZ 10002ae1 f i BumpBar.obj
 0001:00001afb       ?UIDeactivate@?$IOleInPlaceObjectWindowlessImpl@VCOPOSBumpBar@@@ATL@@UAGJXZ 10002afb f i BumpBar.obj
 0001:00001b15       ?SetObjectRects@?$IOleInPlaceObjectWindowlessImpl@VCOPOSBumpBar@@@ATL@@UAGJPBUtagRECT@@0@Z 10002b15 f i BumpBar.obj
 0001:00001b35       ?ReactivateAndUndo@?$IOleInPlaceObjectWindowlessImpl@VCOPOSBumpBar@@@ATL@@UAGJXZ 10002b35 f i BumpBar.obj
 0001:00001b3d       ?OnWindowMessage@?$IOleInPlaceObjectWindowlessImpl@VCOPOSBumpBar@@@ATL@@UAGJIIJPAJ@Z 10002b3d f i BumpBar.obj
 0001:00001bad       ?EnumConnectionPoints@?$IConnectionPointContainerImpl@VCOPOSBumpBar@@@ATL@@UAGJPAPAUIEnumConnectionPoints@@@Z 10002bad f i BumpBar.obj
 0001:00001d27       ?FindConnectionPoint@?$IConnectionPointContainerImpl@VCOPOSBumpBar@@@ATL@@UAGJABU_GUID@@PAPAUIConnectionPoint@@@Z 10002d27 f i BumpBar.obj
 0001:00001dca       ?IsDirty@?$IPersistStorageImpl@VCOPOSBumpBar@@@ATL@@UAGJXZ 10002dca f i BumpBar.obj
 0001:00001dfe       ?InitNew@?$IPersistStorageImpl@VCOPOSBumpBar@@@ATL@@UAGJPAUIStorage@@@Z 10002dfe f i BumpBar.obj
 0001:00001e32       ?Load@?$IPersistStorageImpl@VCOPOSBumpBar@@@ATL@@UAGJPAUIStorage@@@Z 10002e32 f i BumpBar.obj
 0001:00001e9e       ?Save@?$IPersistStorageImpl@VCOPOSBumpBar@@@ATL@@UAGJPAUIStorage@@H@Z 10002e9e f i BumpBar.obj
 0001:00001f11       ?GetPages@?$ISpecifyPropertyPagesImpl@VCOPOSBumpBar@@@ATL@@UAGJPAUtagCAUUID@@@Z 10002f11 f i BumpBar.obj
 0001:00001f28       ?QuickActivate@?$IQuickActivateImpl@VCOPOSBumpBar@@@ATL@@UAGJPAUtagQACONTAINER@@PAUtagQACONTROL@@@Z 10002f28 f i BumpBar.obj
 0001:00001f4b       ?SetContentExtent@?$IQuickActivateImpl@VCOPOSBumpBar@@@ATL@@UAGJPAUtagSIZE@@@Z 10002f4b f i BumpBar.obj
 0001:00001f77       ?GetContentExtent@?$IQuickActivateImpl@VCOPOSBumpBar@@@ATL@@UAGJPAUtagSIZE@@@Z 10002f77 f i BumpBar.obj
 0001:00001f97       ?GetData@?$IDataObjectImpl@VCOPOSBumpBar@@@ATL@@UAGJPAUtagFORMATETC@@PAUtagSTGMEDIUM@@@Z 10002f97 f i BumpBar.obj
 0001:00001fba       ?DAdvise@?$IDataObjectImpl@VCOPOSBumpBar@@@ATL@@UAGJPAUtagFORMATETC@@KPAUIAdviseSink@@PAK@Z 10002fba f i BumpBar.obj
 0001:00001ffb       ?DUnadvise@?$IDataObjectImpl@VCOPOSBumpBar@@@ATL@@UAGJK@Z 10002ffb f i BumpBar.obj
 0001:00002029       ?EnumDAdvise@?$IDataObjectImpl@VCOPOSBumpBar@@@ATL@@UAGJPAPAUIEnumSTATDATA@@@Z 10003029 f i BumpBar.obj
 0001:00002068       ?GetClassInfoW@?$IProvideClassInfo2Impl@$1?CLSID_OPOSBumpBar@@3U_GUID@@B$1?DIID__IOPOSBumpBarEvents@@3U2@B$1?LIBID_OposBumpBar_CCO@@3U2@B$00$0A@VCComTypeInfoHolder@ATL@@@ATL@@UAGJPAPAUITypeInfo@@@Z 10003068 f i BumpBar.obj
 0001:0000207e       ?GetGUID@?$IProvideClassInfo2Impl@$1?CLSID_OPOSBumpBar@@3U_GUID@@B$1?DIID__IOPOSBumpBarEvents@@3U2@B$1?LIBID_OposBumpBar_CCO@@3U2@B$00$0A@VCComTypeInfoHolder@ATL@@@ATL@@UAGJKPAU_GUID@@@Z 1000307e f i BumpBar.obj
 0001:000020bc       __get_startup_argv_mode    100030bc f i LIBCMT:argv_mode.obj
 0001:000020bc       ?FAccessAllowed@?$IObjectSafetyImpl@VCOPOSBumpBar@@$02@ATL@@MAEHXZ 100030bc f i BumpBar.obj
 0001:000020c0       ?GetInterfaceSafetyOptions@?$IObjectSafetyImpl@VCOPOSBumpBar@@$02@ATL@@UAGJABU_GUID@@PAK1@Z 100030c0 f i BumpBar.obj
 0001:00002134       ?SetInterfaceSafetyOptions@?$IObjectSafetyImpl@VCOPOSBumpBar@@$02@ATL@@UAGJABU_GUID@@KK@Z 10003134 f i BumpBar.obj
 0001:000021ae       ?_LocCPQueryInterface@?$IConnectionPointImpl@VCOPOSBumpBar@@$1?DIID__IOPOSBumpBarEvents@@3U_GUID@@BVCComDynamicUnkArray@ATL@@@ATL@@UAGJABU_GUID@@PAPAX@Z 100031ae f i BumpBar.obj
 0001:000021ae       ?_LocCPQueryInterface@?$IConnectionPointImpl@VCOPOSBumpBar@@$1?IID_IPropertyNotifySink@@3U_GUID@@BVCComDynamicUnkArray@ATL@@@ATL@@UAGJABU_GUID@@PAPAX@Z 100031ae f i BumpBar.obj
 0001:000021fb       ?GetConnectionInterface@?$IConnectionPointImpl@VCOPOSBumpBar@@$1?IID_IPropertyNotifySink@@3U_GUID@@BVCComDynamicUnkArray@ATL@@@ATL@@UAGJPAU_GUID@@@Z 100031fb f i BumpBar.obj
 0001:0000221f       ?GetConnectionPointContainer@?$IConnectionPointImpl@VCOPOSBumpBar@@$1?IID_IPropertyNotifySink@@3U_GUID@@BVCComDynamicUnkArray@ATL@@@ATL@@UAGJPAPAUIConnectionPointContainer@@@Z 1000321f f i BumpBar.obj
 0001:00002242       ?Advise@?$IConnectionPointImpl@VCOPOSBumpBar@@$1?IID_IPropertyNotifySink@@3U_GUID@@BVCComDynamicUnkArray@ATL@@@ATL@@UAGJPAUIUnknown@@PAK@Z 10003242 f i BumpBar.obj
 0001:00002242       ?Advise@?$IConnectionPointImpl@VCOPOSBumpBar@@$1?DIID__IOPOSBumpBarEvents@@3U_GUID@@BVCComDynamicUnkArray@ATL@@@ATL@@UAGJPAUIUnknown@@PAK@Z 10003242 f i BumpBar.obj
 0001:000022e3       ?Unadvise@?$IConnectionPointImpl@VCOPOSBumpBar@@$1?IID_IPropertyNotifySink@@3U_GUID@@BVCComDynamicUnkArray@ATL@@@ATL@@UAGJK@Z 100032e3 f i BumpBar.obj
 0001:000022e3       ?Unadvise@?$IConnectionPointImpl@VCOPOSBumpBar@@$1?DIID__IOPOSBumpBarEvents@@3U_GUID@@BVCComDynamicUnkArray@ATL@@@ATL@@UAGJK@Z 100032e3 f i BumpBar.obj
 0001:00002323       ?EnumConnections@?$IConnectionPointImpl@VCOPOSBumpBar@@$1?DIID__IOPOSBumpBarEvents@@3U_GUID@@BVCComDynamicUnkArray@ATL@@@ATL@@UAGJPAPAUIEnumConnections@@@Z 10003323 f i BumpBar.obj
 0001:00002323       ?EnumConnections@?$IConnectionPointImpl@VCOPOSBumpBar@@$1?IID_IPropertyNotifySink@@3U_GUID@@BVCComDynamicUnkArray@ATL@@@ATL@@UAGJPAPAUIEnumConnections@@@Z 10003323 f i BumpBar.obj
 0001:00002429       ?GetConnectionInterface@?$IConnectionPointImpl@VCOPOSBumpBar@@$1?DIID__IOPOSBumpBarEvents@@3U_GUID@@BVCComDynamicUnkArray@ATL@@@ATL@@UAGJPAU_GUID@@@Z 10003429 f i BumpBar.obj
 0001:0000244d       ?GetConnectionPointContainer@?$IConnectionPointImpl@VCOPOSBumpBar@@$1?DIID__IOPOSBumpBarEvents@@3U_GUID@@BVCComDynamicUnkArray@ATL@@@ATL@@UAGJPAPAUIConnectionPointContainer@@@Z 1000344d f i BumpBar.obj
 0001:00002470       ?AddRef@CRegObject@ATL@@UAGKXZ 10003470 f i BumpBar.obj
 0001:00002476       ?AddReplacement@CRegObject@ATL@@UAGJPB_W0@Z 10003476 f i BumpBar.obj
 0001:000024af       ?ClearReplacements@CRegObject@ATL@@UAGJXZ 100034af f i BumpBar.obj
 0001:000024c1       ??_ECRegObject@ATL@@UAEPAXI@Z 100034c1 f i BumpBar.obj
 0001:000024c1       ??_GCRegObject@ATL@@UAEPAXI@Z 100034c1 f i BumpBar.obj
 0001:000024e3       ?UpdateRegistry@COPOSBumpBar@@SGJH@Z 100034e3 f i BumpBar.obj
 0001:000024fb       ?ProcessWindowMessage@COPOSBumpBar@@UAEHPAUHWND__@@IIJAAJK@Z 100034fb f i BumpBar.obj
 0001:00002544       ?SOData@COPOSBumpBar@@MAGJJ@Z 10003544 f i BumpBar.obj
 0001:0000257d       ?SODirectIO@COPOSBumpBar@@MAGJJPAJPAPA_W@Z 1000357d f i BumpBar.obj
 0001:000025c6       ?SOError@COPOSBumpBar@@MAGJJJJPAJ@Z 100035c6 f i BumpBar.obj
 0001:0000261b       ?SOOutputComplete@COPOSBumpBar@@MAGJJ@Z 1000361b f i BumpBar.obj
 0001:00002654       ?SOStatusUpdate@COPOSBumpBar@@MAGJJ@Z 10003654 f i BumpBar.obj
 0001:0000268d       ?CreateInstance@?$CComCreator@V?$CComObjectCached@VCComClassFactory@ATL@@@ATL@@@ATL@@SGJPAXABU_GUID@@PAPAX@Z 1000368d f i BumpBar.obj
 0001:00002720       ?CreateInstance@?$CComCreator2@V?$CComCreator@V?$CComObject@VCOPOSBumpBar@@@ATL@@@ATL@@V?$CComCreator@V?$CComAggObject@VCOPOSBumpBar@@@ATL@@@2@@ATL@@SGJPAXABU_GUID@@PAPAX@Z 10003720 f i BumpBar.obj
 0001:00002740       ?Next@?$CComEnumImpl@UIEnumConnectionPoints@@$1?_GUID_b196b285_bab4_101a_b69c_00aa00341d07@@3U__s_GUID@@BPAUIConnectionPoint@@V?$_CopyInterface@UIConnectionPoint@@@ATL@@@ATL@@UAGJKPAPAUIConnectionPoint@@PAK@Z 10003740 f i BumpBar.obj
 0001:00002817       ?Skip@?$CComEnumImpl@UIEnumConnectionPoints@@$1?_GUID_b196b285_bab4_101a_b69c_00aa00341d07@@3U__s_GUID@@BPAUIConnectionPoint@@V?$_CopyInterface@UIConnectionPoint@@@ATL@@@ATL@@UAGJK@Z 10003817 f i BumpBar.obj
 0001:00002844       ?Clone@?$CComEnumImpl@UIEnumConnectionPoints@@$1?_GUID_b196b285_bab4_101a_b69c_00aa00341d07@@3U__s_GUID@@BPAUIConnectionPoint@@V?$_CopyInterface@UIConnectionPoint@@@ATL@@@ATL@@UAGJPAPAUIEnumConnectionPoints@@@Z 10003844 f i BumpBar.obj
 0001:00002923       ?QueryInterface@?$CComObject@V?$CComEnum@UIEnumConnectionPoints@@$1?_GUID_b196b285_bab4_101a_b69c_00aa00341d07@@3U__s_GUID@@BPAUIConnectionPoint@@V?$_CopyInterface@UIConnectionPoint@@@ATL@@VCComSingleThreadModel@6@@ATL@@@ATL@@UAGJABU_GUID@@PAPAX@Z 10003923 f i BumpBar.obj
 0001:0000293d       ??_E?$CComObject@V?$CComEnum@UIEnumConnectionPoints@@$1?_GUID_b196b285_bab4_101a_b69c_00aa00341d07@@3U__s_GUID@@BPAUIConnectionPoint@@V?$_CopyInterface@UIConnectionPoint@@@ATL@@VCComSingleThreadModel@6@@ATL@@@ATL@@UAEPAXI@Z 1000393d f i BumpBar.obj
 0001:0000293d       ??_G?$CComObject@V?$CComEnum@UIEnumConnectionPoints@@$1?_GUID_b196b285_bab4_101a_b69c_00aa00341d07@@3U__s_GUID@@BPAUIConnectionPoint@@V?$_CopyInterface@UIConnectionPoint@@@ATL@@VCComSingleThreadModel@6@@ATL@@@ATL@@UAEPAXI@Z 1000393d f i BumpBar.obj
 0001:0000295f       ??$?4UITypeInfo2@@@?$CComPtr@UITypeInfo@@@ATL@@QAEPAUITypeInfo@@ABV?$CComPtr@UITypeInfo2@@@1@@Z 1000395f f i BumpBar.obj
 0001:0000298c       ??$AtlAdd@K@ATL@@YAJPAKKK@Z 1000398c f i BumpBar.obj
 0001:000029af       ??$AtlAdd@_K@ATL@@YAJPA_K_K1@Z 100039af f i BumpBar.obj
 0001:000029e7       ??$AtlAddThrow@K@ATL@@YAKKK@Z 100039e7 f i BumpBar.obj
 0001:00002a0d       ??$AtlModuleRegisterWndClassInfoT@VAtlModuleRegisterWndClassInfoParamW@ATL@@@ATL@@YAGPAU_ATL_BASE_MODULE70@0@PAU_ATL_WIN_MODULE70@0@PAU_ATL_WNDCLASSINFOW@0@PAP6GJPAUHWND__@@IIJ@ZVAtlModuleRegisterWndClassInfoParamW@0@@Z 10003a0d f i BumpBar.obj
 0001:00002b5b       ??$AtlMultiply@H@ATL@@YAJPAHHH@Z 10003b5b f i BumpBar.obj
 0001:00002b93       ??$AtlMultiply@I@ATL@@YAJPAIII@Z 10003b93 f i BumpBar.obj
 0001:00002b93       ??$AtlMultiply@K@ATL@@YAJPAKKK@Z 10003b93 f i BumpBar.obj
 0001:00002bb5       ??$AtlMultiplyThrow@I@ATL@@YAIII@Z 10003bb5 f i BumpBar.obj
 0001:00002bdb       ??0?$CComAggObject@VCOPOSBumpBar@@@ATL@@QAE@PAX@Z 10003bdb f i BumpBar.obj
 0001:00002c08       ??0?$CComContainedObject@VCOPOSBumpBar@@@ATL@@QAE@PAX@Z 10003c08 f i BumpBar.obj
 0001:00002cc1       ??0?$CComObject@V?$CComEnum@UIEnumConnectionPoints@@$1?_GUID_b196b285_bab4_101a_b69c_00aa00341d07@@3U__s_GUID@@BPAUIConnectionPoint@@V?$_CopyInterface@UIConnectionPoint@@@ATL@@VCComSingleThreadModel@6@@ATL@@@ATL@@QAE@PAX@Z 10003cc1 f i BumpBar.obj
 0001:00002cef       ??0?$CComObject@V?$CComEnum@UIEnumConnections@@$1?_GUID_b196b287_bab4_101a_b69c_00aa00341d07@@3U__s_GUID@@BUtagCONNECTDATA@@V?$_Copy@UtagCONNECTDATA@@@ATL@@VCComSingleThreadModel@6@@ATL@@@ATL@@QAE@PAX@Z 10003cef f i BumpBar.obj
 0001:00002d1d       ??0?$CComObject@VCOPOSBumpBar@@@ATL@@QAE@PAX@Z 10003d1d f i BumpBar.obj
 0001:00002dd4       ??0?$CComQIPtr@UIOleControlSite@@$1?_GUID_b196b289_bab4_101a_b69c_00aa00341d07@@3U__s_GUID@@B@ATL@@QAE@PAUIUnknown@@@Z 10003dd4 f i BumpBar.obj
 0001:00002dfd       ??0CAtlModule@ATL@@QAE@XZ  10003dfd f i BumpBar.obj
 0001:00002e3e       ??0CParseBuffer@CRegParser@ATL@@QAE@H@Z 10003e3e f i BumpBar.obj
 0001:00002e74       ??0_ATL_MSG@ATL@@QAE@PAUHWND__@@IIJH@Z 10003e74 f i BumpBar.obj
 0001:00002eac       ??1?$CComAggObject@VCOPOSBumpBar@@@ATL@@UAE@XZ 10003eac f i BumpBar.obj
 0001:00002ed0       ??1?$CComEnumImpl@UIEnumConnectionPoints@@$1?_GUID_b196b285_bab4_101a_b69c_00aa00341d07@@3U__s_GUID@@BPAUIConnectionPoint@@V?$_CopyInterface@UIConnectionPoint@@@ATL@@@ATL@@UAE@XZ 10003ed0 f i BumpBar.obj
 0001:00002f10       ??1?$CComEnumImpl@UIEnumConnections@@$1?_GUID_b196b287_bab4_101a_b69c_00aa00341d07@@3U__s_GUID@@BUtagCONNECTDATA@@V?$_Copy@UtagCONNECTDATA@@@ATL@@@ATL@@UAE@XZ 10003f10 f i BumpBar.obj
 0001:00002f50       ??1?$CComObject@V?$CComEnum@UIEnumConnectionPoints@@$1?_GUID_b196b285_bab4_101a_b69c_00aa00341d07@@3U__s_GUID@@BPAUIConnectionPoint@@V?$_CopyInterface@UIConnectionPoint@@@ATL@@VCComSingleThreadModel@6@@ATL@@@ATL@@UAE@XZ 10003f50 f i BumpBar.obj
 0001:00002f73       ??1?$CComObject@V?$CComEnum@UIEnumConnections@@$1?_GUID_b196b287_bab4_101a_b69c_00aa00341d07@@3U__s_GUID@@BUtagCONNECTDATA@@V?$_Copy@UtagCONNECTDATA@@@ATL@@VCComSingleThreadModel@6@@ATL@@@ATL@@UAE@XZ 10003f73 f i BumpBar.obj
 0001:00002f96       ??1?$CComObject@VCOPOSBumpBar@@@ATL@@UAE@XZ 10003f96 f i BumpBar.obj
 0001:00003054       ??1?$CComObjectCached@VCComClassFactory@ATL@@@ATL@@UAE@XZ 10004054 f i BumpBar.obj
 0001:0000306a       ??1?$CComObjectRootEx@VCComMultiThreadModel@ATL@@@ATL@@QAE@XZ 1000406a f i BumpBar.obj
 0001:0000307f       ??1CRegObject@ATL@@UAE@XZ  1000407f f i BumpBar.obj
 0001:0000309f       ??4?$CComPtr@UIUnknown@@@ATL@@QAEPAUIUnknown@@PAU2@@Z 1000409f f i BumpBar.obj
 0001:0000309f       ??4?$CComPtr@UIAdviseSink@@@ATL@@QAEPAUIAdviseSink@@PAU2@@Z 1000409f f i BumpBar.obj
 0001:0000309f       ??4?$CComPtr@UIOleClientSite@@@ATL@@QAEPAUIOleClientSite@@PAU2@@Z 1000409f f i BumpBar.obj
 0001:000030d3       ??4?$CComQIPtr@UIOleObject@@$1?_GUID_00000112_0000_0000_c000_000000000046@@3U__s_GUID@@B@ATL@@QAEPAUIOleObject@@PAUIUnknown@@@Z 100040d3 f i BumpBar.obj
 0001:000030f8       ??4?$CComQIPtr@UISpecifyPropertyPages@@$1?_GUID_b196b28b_bab4_101a_b69c_00aa00341d07@@3U__s_GUID@@B@ATL@@QAEPAUISpecifyPropertyPages@@PAUIUnknown@@@Z 100040f8 f i BumpBar.obj
 0001:0000311d       ??_E?$CComContainedObject@VCOPOSBumpBar@@@ATL@@UAEPAXI@Z 1000411d f i BumpBar.obj
 0001:0000311d       ??_G?$CComContainedObject@VCOPOSBumpBar@@@ATL@@UAEPAXI@Z 1000411d f i BumpBar.obj
 0001:00003142       ??_E?$CComObject@VCOPOSBumpBar@@@ATL@@UAEPAXI@Z 10004142 f i BumpBar.obj
 0001:00003142       ??_G?$CComObject@VCOPOSBumpBar@@@ATL@@UAEPAXI@Z 10004142 f i BumpBar.obj
 0001:00003167       ?Add@?$CSimpleArray@GV?$CSimpleArrayEqualHelper@G@ATL@@@ATL@@QAEHABG@Z 10004167 f i BumpBar.obj
 0001:000031eb       ?Add@?$CSimpleMap@PA_WPA_WVCExpansionVectorEqualHelper@ATL@@@ATL@@QAEHABQA_W0@Z 100041eb f i BumpBar.obj
 0001:00003240       ?Add@CComDynamicUnkArray@ATL@@QAEKPAUIUnknown@@@Z 10004240 f i BumpBar.obj
 0001:000032fb       ?Add@CExpansionVector@ATL@@QAEHPB_W0@Z 100042fb f i BumpBar.obj
 0001:000033ff       ?AddString@CParseBuffer@CRegParser@ATL@@QAEHPB_W@Z 100043ff f i BumpBar.obj
 0001:00003434       ?AddValue@CRegParser@ATL@@IAEJAAVCRegKey@2@PB_WPA_W@Z 10004434 f i BumpBar.obj
 0001:00003755       ?Allocate@?$CAtlSafeAllocBufferManager@VCCRTAllocator@ATL@@@_ATL_SAFE_ALLOCA_IMPL@ATL@@QAEPAXK@Z 10004755 f i BumpBar.obj
 0001:00003782       ?Allocate@?$CTempBuffer@E$0BAA@VCCRTAllocator@ATL@@@ATL@@QAEPAEI@Z 10004782 f i BumpBar.obj
 0001:000037b1       ?Allocate@?$CTempBuffer@_W$0BAA@VCCRTAllocator@ATL@@@ATL@@QAEPA_WI@Z 100047b1 f i BumpBar.obj
 0001:000037e0       ?Allocate@?$CTempBuffer@_W$0EAA@VCCRTAllocator@ATL@@@ATL@@QAEPA_WI@Z 100047e0 f i BumpBar.obj
 0001:0000380f       ?AllocateHeap@?$CTempBuffer@_W$0EAA@VCCRTAllocator@ATL@@@ATL@@AAEXI@Z 1000480f f i BumpBar.obj
 0001:0000380f       ?AllocateHeap@?$CTempBuffer@E$0BAA@VCCRTAllocator@ATL@@@ATL@@AAEXI@Z 1000480f f i BumpBar.obj
 0001:0000380f       ?AllocateHeap@?$CTempBuffer@_W$0BAA@VCCRTAllocator@ATL@@@ATL@@AAEXI@Z 1000480f f i BumpBar.obj
 0001:00003834       ?Append@CParseBuffer@CRegParser@ATL@@QAEHPB_WH@Z 10004834 f i BumpBar.obj
 0001:000038c2       ?AtlCallTermFunc@ATL@@YGXPAU_ATL_MODULE70@1@@Z 100048c2 f i BumpBar.obj
 0001:00003906       ?AtlCoTaskMemCAlloc@ATL@@YAPAXKK@Z 10004906 f i BumpBar.obj
 0001:00003933       ?AtlCoTaskMemRecalloc@ATL@@YAPAXPAXKK@Z 10004933 f i BumpBar.obj
 0001:00003963       ?AtlComModuleGetClassObject@ATL@@YGJPAU_ATL_COM_MODULE70@1@ABU_GUID@@1PAPAX@Z 10004963 f i BumpBar.obj
 0001:00003a56       ?AtlComModuleRegisterServer@ATL@@YGJPAU_ATL_COM_MODULE70@1@HPBU_GUID@@@Z 10004a56 f i BumpBar.obj
 0001:00003ade       ?AtlComModuleUnregisterServer@ATL@@YGJPAU_ATL_COM_MODULE70@1@HPBU_GUID@@@Z 10004ade f i BumpBar.obj
 0001:00003b66       ?AtlComQIPtrAssign2@ATL@@YAXPAPAUIUnknown@@PAU2@ABU_GUID@@@Z 10004b66 f i BumpBar.obj
 0001:00003b95       ?AtlCreateTargetDC@ATL@@YGPAUHDC__@@PAU2@PAUtagDVTARGETDEVICE@@@Z 10004b95 f i BumpBar.obj
 0001:00003bfe       ?AtlCrtErrorCheck@ATL@@YAHH@Z 10004bfe f i BumpBar.obj
 0001:00003c39       ?AtlHiMetricToPixel@ATL@@YGXPBUtagSIZE@@PAU2@@Z 10004c39 f i BumpBar.obj
 0001:00003cae       ?AtlHresultFromLastError@ATL@@YAJXZ 10004cae f i BumpBar.obj
 0001:00003cc5       ?AtlHresultFromWin32@ATL@@YAJK@Z 10004cc5 f i BumpBar.obj
 0001:00003cda       ?AtlIPersistStreamInit_Load@ATL@@YGJPAUIStream@@PBUATL_PROPMAP_ENTRY@1@PAXPAUIUnknown@@@Z 10004cda f i BumpBar.obj
 0001:00003eba       ?AtlIPersistStreamInit_Save@ATL@@YGJPAUIStream@@HPBUATL_PROPMAP_ENTRY@1@PAXPAUIUnknown@@@Z 10004eba f i BumpBar.obj
 0001:00004052       ?AtlInternalOleLoadFromStream@ATL@@YAJPAUIStream@@ABU_GUID@@PAPAXTClassesAllowedInStream@1@K@Z 10005052 f i BumpBar.obj
 0001:00004178       ?AtlInternalQueryInterface@ATL@@YGJPAXPBU_ATL_INTMAP_ENTRY@1@ABU_GUID@@PAPAX@Z 10005178 f i BumpBar.obj
 0001:0000421b       ?AtlLoadTypeLib@ATL@@YGJPAUHINSTANCE__@@PB_WPAPA_WPAPAUITypeLib@@@Z 1000521b f i BumpBar.obj
 0001:000043f9       ?AtlModuleAddTermFunc@ATL@@YGJPAU_ATL_MODULE70@1@P6GXK@ZK@Z 100053f9 f i BumpBar.obj
 0001:00004456       ?AtlRegisterClassCategoriesHelper@ATL@@YGJABU_GUID@@PBU_ATL_CATMAP_ENTRY@1@H@Z 10005456 f i BumpBar.obj
 0001:00004736       ?AtlRegisterTypeLib@ATL@@YGJPAUHINSTANCE__@@PB_W@Z 10005736 f i BumpBar.obj
 0001:000048be       ?AtlThrowImpl@ATL@@YGXJ@Z  100058be f i BumpBar.obj
 0001:000048dc       ?AtlUnRegisterTypeLib@ATL@@YGJPAUHINSTANCE__@@PB_W@Z 100058dc f i BumpBar.obj
 0001:00004987       ?AtlWinModuleAddCreateWndData@ATL@@YGXPAU_ATL_WIN_MODULE70@1@PAU_AtlCreateWndData@1@PAX@Z 10005987 f i BumpBar.obj
 0001:000049db       ?AtlWinModuleExtractCreateWndData@ATL@@YGPAXPAU_ATL_WIN_MODULE70@1@@Z 100059db f i BumpBar.obj
 0001:00004a3e       ?AtlWinModuleRegisterClassExW@ATL@@YGGPAU_ATL_WIN_MODULE70@1@PBUtagWNDCLASSEXW@@@Z 10005a3e f i BumpBar.obj
 0001:00004a7d       ?CanForceRemoveKey@CRegParser@ATL@@IAEHPB_W@Z 10005a7d f i BumpBar.obj
 0001:00004aac       ?ChToByte@CRegParser@ATL@@KAE_W@Z 10005aac f i BumpBar.obj
 0001:00004adf       ?Cleanup@CComTypeInfoHolder@ATL@@SGXK@Z 10005adf f i BumpBar.obj
 0001:00004b12       ?ClearReplacements@CExpansionVector@ATL@@QAEJXZ 10005b12 f i BumpBar.obj
 0001:00004b4f       ?Close@CRegKey@ATL@@QAEJXZ 10005b4f f i BumpBar.obj
 0001:00004b69       ?CreateInstance@?$CComCreator@V?$CComAggObject@VCOPOSBumpBar@@@ATL@@@ATL@@SGJPAXABU_GUID@@PAPAX@Z 10005b69 f i BumpBar.obj
 0001:00004bdf       ?CreateInstance@?$CComCreator@V?$CComObject@VCOPOSBumpBar@@@ATL@@@ATL@@SGJPAXABU_GUID@@PAPAX@Z 10005bdf f i BumpBar.obj
 0001:00004c60       ?CreateInstance@?$CComObject@V?$CComEnum@UIEnumConnectionPoints@@$1?_GUID_b196b285_bab4_101a_b69c_00aa00341d07@@3U__s_GUID@@BPAUIConnectionPoint@@V?$_CopyInterface@UIConnectionPoint@@@ATL@@VCComSingleThreadModel@6@@ATL@@@ATL@@SGJPAPAV12@@Z 10005c60 f i BumpBar.obj
 0001:00004ca7       ?CreateInstance@?$CComObject@V?$CComEnum@UIEnumConnections@@$1?_GUID_b196b287_bab4_101a_b69c_00aa00341d07@@3U__s_GUID@@BUtagCONNECTDATA@@V?$_Copy@UtagCONNECTDATA@@@ATL@@VCComSingleThreadModel@6@@ATL@@@ATL@@SGJPAPAV12@@Z 10005ca7 f i BumpBar.obj
 0001:00004cee       ?DefaultReflectionHandler@?$CWindowImplRoot@VCWindow@ATL@@@ATL@@SAHPAUHWND__@@IIJAAJ@Z 10005cee f i BumpBar.obj
 0001:00004d61       ?DeleteSubKey@CRegKey@ATL@@QAEJPB_W@Z 10005d61 f i BumpBar.obj
 0001:00004dda       ?DoEvent@COPOSBumpBar@@IAEXIIJ@Z 10005dda f i BumpBar.obj
 0001:00004e5a       ?DoVerbHide@?$IOleObjectImpl@VCOPOSBumpBar@@@ATL@@QAEJPBUtagRECT@@PAUHWND__@@@Z 10005e5a f i BumpBar.obj
 0001:00004e90       ?DoVerbInPlaceActivate@?$IOleObjectImpl@VCOPOSBumpBar@@@ATL@@QAEJPBUtagRECT@@PAUHWND__@@@Z 10005e90 f i BumpBar.obj
 0001:00004ec3       ?DoVerbPrimary@?$IOleObjectImpl@VCOPOSBumpBar@@@ATL@@QAEJPBUtagRECT@@PAUHWND__@@@Z 10005ec3 f i BumpBar.obj
 0001:00004f4f       ?DoVerbProperties@CComControlBase@ATL@@QAEJPBUtagRECT@@PAUHWND__@@@Z 10005f4f f i BumpBar.obj
 0001:00005076       ?DoVerbShow@?$IOleObjectImpl@VCOPOSBumpBar@@@ATL@@QAEJPBUtagRECT@@PAUHWND__@@@Z 10006076 f i BumpBar.obj
 0001:0000509b       ?DoVerbUIActivate@?$IOleObjectImpl@VCOPOSBumpBar@@@ATL@@QAEJPBUtagRECT@@PAUHWND__@@@Z 1000609b f i BumpBar.obj
 0001:000050d8       ?DoesVerbActivate@CComControlBase@ATL@@QAEHJ@Z 100060d8 f i BumpBar.obj
 0001:000050f9       ?DoesVerbUIActivate@CComControlBase@ATL@@QAEHJ@Z 100060f9 f i BumpBar.obj
 0001:0000512e       ?EndOfVar@CRegParser@ATL@@IAEHXZ 1000612e f i BumpBar.obj
 0001:0000514e       ?EscapeSingleQuote@CAtlModule@ATL@@SAXPA_WIPB_W@Z 1000614e f i BumpBar.obj
 0001:0000519d       ?FindKey@?$CSimpleMap@PA_WPA_WVCExpansionVectorEqualHelper@ATL@@@ATL@@QBEHABQA_W@Z 1000619d f i BumpBar.obj
 0001:000051d4       ?FireTheEvent@?$CProxy_IOPOSEvents@VCOPOSBumpBar@@@@IAEXPAVOposVariant@@IAAJPB_WJ@Z 100061d4 f i BumpBar.obj
 0001:00005266       ?FireViewChange@CComControlBase@ATL@@QAEJXZ 10006266 f i BumpBar.obj
 0001:000052af       ?Fire_DataEvent@?$CProxy_IOPOSEvents@VCOPOSBumpBar@@@@QAEXJ@Z 100062af f i BumpBar.obj
 0001:0000533b       ?Fire_DirectIOEvent@?$CProxy_IOPOSEvents@VCOPOSBumpBar@@@@QAEXJPAJPAPA_W@Z 1000633b f i BumpBar.obj
 0001:00005421       ?Fire_ErrorEvent@?$CProxy_IOPOSEvents@VCOPOSBumpBar@@@@QAEXJJJPAJ@Z 10006421 f i BumpBar.obj
 0001:00005508       ?Fire_OutputCompleteEvent@?$CProxy_IOPOSEvents@VCOPOSBumpBar@@@@QAEXJ@Z 10006508 f i BumpBar.obj
 0001:00005594       ?Fire_StatusUpdateEvent@?$CProxy_IOPOSEvents@VCOPOSBumpBar@@@@QAEXJ@Z 10006594 f i BumpBar.obj
 0001:00005620       ?FreeHeap@?$CTempBuffer@_W$0EAA@VCCRTAllocator@ATL@@@ATL@@AAEXXZ 10006620 f i BumpBar.obj
 0001:00005620       ?FreeHeap@?$CTempBuffer@E$0BAA@VCCRTAllocator@ATL@@@ATL@@AAEXXZ 10006620 f i BumpBar.obj
 0001:00005620       ?FreeHeap@?$CTempBuffer@_W$0BAA@VCCRTAllocator@ATL@@@ATL@@AAEXXZ 10006620 f i BumpBar.obj
 0001:00005629       ?GetAmbientLocaleID@CComControlBase@ATL@@QAEJAAK@Z 10006629 f i BumpBar.obj
 0001:00005685       ?GetAmbientUserMode@CComControlBase@ATL@@QAEJAAH@Z 10006685 f i BumpBar.obj
 0001:000056f5       ?GetAt@CComDynamicUnkArray@ATL@@QAEPAUIUnknown@@H@Z 100066f5 f i BumpBar.obj
 0001:00005711       ?GetClassObject@CComModule@ATL@@QAEJABU_GUID@@0PAPAX@Z 10006711 f i BumpBar.obj
 0001:000057b3       ?GetConnMap@COPOSBumpBar@@SAPBU_ATL_CONNMAP_ENTRY@ATL@@PAH@Z 100067b3 f i BumpBar.obj
 0001:00005823       ?GetCookie@CComDynamicUnkArray@ATL@@QAGKPAPAUIUnknown@@@Z 10006823 f i BumpBar.obj
 0001:0000585b       ?GetIDsOfNames@CComTypeInfoHolder@ATL@@QAEJABU_GUID@@PAPA_WIKPAJ@Z 1000685b f i BumpBar.obj
 0001:00005969       ?GetKeyAt@?$CSimpleMap@PA_WPA_WVCExpansionVectorEqualHelper@ATL@@@ATL@@QBEAAPA_WH@Z 10006969 f i BumpBar.obj
 0001:0000598e       ?GetPagesHelper@?$ISpecifyPropertyPagesImpl@VCOPOSBumpBar@@@ATL@@IAEJPAUtagCAUUID@@PBUATL_PROPMAP_ENTRY@2@@Z 1000698e f i BumpBar.obj
 0001:00005ab5       ?GetProperty@?$CComPtr@UIDispatch@@@ATL@@SAJPAUIDispatch@@JPAUtagVARIANT@@@Z 10006ab5 f i BumpBar.obj
 0001:00005b04       ?GetSizeMax@CComVariant@ATL@@QBEJPAT_ULARGE_INTEGER@@@Z 10006b04 f i BumpBar.obj
 0001:00005cbe       ?GetStreamSize@CComBSTR@ATL@@SAKPA_W@Z 10006cbe f i BumpBar.obj
 0001:00005cd8       ?GetTI@CComTypeInfoHolder@ATL@@QAEJK@Z 10006cd8 f i BumpBar.obj
 0001:00005ec1       ?GetTI@CComTypeInfoHolder@ATL@@QAEJKPAPAUITypeInfo@@@Z 10006ec1 f i BumpBar.obj
 0001:00005f03       ?GetUnknown@CComDynamicUnkArray@ATL@@QAGPAUIUnknown@@K@Z 10006f03 f i BumpBar.obj
 0001:00005f24       ?GetValueAt@?$CSimpleMap@PA_WPA_WVCExpansionVectorEqualHelper@ATL@@@ATL@@QBEAAPA_WH@Z 10006f24 f i BumpBar.obj
 0001:00005f4a       ?GetZoomInfo@CComControlBase@ATL@@QAEXAAUATL_DRAWINFO@@@Z 10006f4a f i BumpBar.obj
 0001:00005fdd       ?HKeyFromString@CRegParser@ATL@@KAPAUHKEY__@@PA_W@Z 10006fdd f i BumpBar.obj
 0001:0000600b       ?HasSubKeys@CRegParser@ATL@@IAEHPAUHKEY__@@@Z 1000700b f i BumpBar.obj
 0001:00006040       ?IDataObject_GetData@CComControlBase@ATL@@QAEJPAUtagFORMATETC@@PAUtagSTGMEDIUM@@@Z 10007040 f i BumpBar.obj
 0001:000061e6       ?IOleInPlaceObject_InPlaceDeactivate@CComControlBase@ATL@@QAEJXZ 100071e6 f i BumpBar.obj
 0001:0000626d       ?IOleInPlaceObject_SetObjectRects@CComControlBase@ATL@@QAEJPBUtagRECT@@0@Z 1000726d f i BumpBar.obj
 0001:0000633a       ?IOleInPlaceObject_UIDeactivate@CComControlBase@ATL@@QAEJXZ 1000733a f i BumpBar.obj
 0001:000063fc       ?IOleObject_Advise@CComControlBase@ATL@@QAEJPAUIAdviseSink@@PAK@Z 100073fc f i BumpBar.obj
 0001:00006426       ?IOleObject_Close@CComControlBase@ATL@@QAEJK@Z 10007426 f i BumpBar.obj
 0001:0000650a       ?IOleObject_GetClientSite@CComControlBase@ATL@@QAEJPAPAUIOleClientSite@@@Z 1000750a f i BumpBar.obj
 0001:00006533       ?IOleObject_SetClientSite@CComControlBase@ATL@@QAEJPAUIOleClientSite@@@Z 10007533 f i BumpBar.obj
 0001:00006572       ?IOleObject_SetExtent@CComControlBase@ATL@@QAEJKPAUtagSIZE@@@Z 10007572 f i BumpBar.obj
 0001:00006626       ?IPSI_GetIPersistStreamInit@?$IPersistStorageImpl@VCOPOSBumpBar@@@ATL@@AAEPAUIPersistStreamInit@@XZ 10007626 f i BumpBar.obj
 0001:00006668       ?IPersistStreamInit_Load@?$IPersistStreamInitImpl@VCOPOSBumpBar@@@ATL@@QAEJPAUIStream@@PBUATL_PROPMAP_ENTRY@2@@Z 10007668 f i BumpBar.obj
 0001:00006694       ?IPersistStreamInit_Save@?$IPersistStreamInitImpl@VCOPOSBumpBar@@@ATL@@QAEJPAUIStream@@HPBUATL_PROPMAP_ENTRY@2@@Z 10007694 f i BumpBar.obj
 0001:000066c9       ?IQuickActivate_QuickActivate@CComControlBase@ATL@@QAEJPAUtagQACONTAINER@@PAUtagQACONTROL@@@Z 100076c9 f i BumpBar.obj
 0001:0000690b       ?IViewObject_Draw@CComControlBase@ATL@@QAEJKJPAXPAUtagDVTARGETDEVICE@@PAUHDC__@@2PBU_RECTL@@3@Z 1000790b f i BumpBar.obj
 0001:000069b3       ?InPlaceActivate@CComControlBase@ATL@@QAEJJPBUtagRECT@@@Z 100079b3 f i BumpBar.obj
 0001:00006c24       ?Init@?$CComEnumImpl@UIEnumConnectionPoints@@$1?_GUID_b196b285_bab4_101a_b69c_00aa00341d07@@3U__s_GUID@@BPAUIConnectionPoint@@V?$_CopyInterface@UIConnectionPoint@@@ATL@@@ATL@@QAEJPAPAUIConnectionPoint@@0PAUIUnknown@@W4CComEnumFlags@2@@Z 10007c24 f i BumpBar.obj
 0001:00006d03       ?Init@?$CComEnumImpl@UIEnumConnections@@$1?_GUID_b196b287_bab4_101a_b69c_00aa00341d07@@3U__s_GUID@@BUtagCONNECTDATA@@V?$_Copy@UtagCONNECTDATA@@@ATL@@@ATL@@QAEJPAUtagCONNECTDATA@@0PAUIUnknown@@W4CComEnumFlags@2@@Z 10007d03 f i BumpBar.obj
 0001:00006de2       ?Init@CComModule@ATL@@QAEJPAU_ATL_OBJMAP_ENTRY30@2@PAUHINSTANCE__@@PBU_GUID@@@Z 10007de2 f i BumpBar.obj
 0001:00006e41       ?Init@CDynamicStdCallThunk2@ATL@@QAEHKPAX@Z 10007e41 f i BumpBar.obj
 0001:00006e6c       ?InlineIsEqualUnknown@ATL@@YGHABU_GUID@@@Z 10007e6c f i BumpBar.obj
 0001:00006e94       ?InternalGetSite@CComControlBase@ATL@@QAEJABU_GUID@@PAPAX@Z 10007e94 f i BumpBar.obj
 0001:00006ec2       ?InternalSetAtIndex@?$CSimpleMap@PA_WPA_WVCExpansionVectorEqualHelper@ATL@@@ATL@@QAEXHABQA_W0@Z 10007ec2 f i BumpBar.obj
 0001:00006eec       ?Invoke@CComTypeInfoHolder@ATL@@QAEJPAUIDispatch@@JABU_GUID@@KGPAUtagDISPPARAMS@@PAUtagVARIANT@@PAUtagEXCEPINFO@@PAI@Z 10007eec f i BumpBar.obj
 0001:00006f2f       ?IsEqualObject@?$CComPtrBase@UIOleClientSite@@@ATL@@QAE_NPAUIUnknown@@@Z 10007f2f f i BumpBar.obj
 0001:00006f2f       ?IsEqualObject@?$CComPtrBase@UITypeInfo@@@ATL@@QAE_NPAUIUnknown@@@Z 10007f2f f i BumpBar.obj
 0001:00006f9c       ?IsSpace@CRegParser@ATL@@IAEH_W@Z 10007f9c f i BumpBar.obj
 0001:00006fc6       ?LoadNameCache@CComTypeInfoHolder@ATL@@QAEJPAUITypeInfo@@@Z 10007fc6 f i BumpBar.obj
 0001:00007114       ?Lookup@?$CSimpleMap@PA_WPA_WVCExpansionVectorEqualHelper@ATL@@@ATL@@QBEPA_WABQA_W@Z 10008114 f i BumpBar.obj
 0001:0000713a       ?NextToken@CRegParser@ATL@@IAEJPA_W@Z 1000813a f i BumpBar.obj
 0001:00007272       ?OnKillFocus@CComControlBase@ATL@@QAEJIIJAAH@Z 10008272 f i BumpBar.obj
 0001:000072cd       ?OnMouseActivate@CComControlBase@ATL@@QAEJIIJAAH@Z 100082cd f i BumpBar.obj
 0001:0000733b       ?OnPaint@CComControlBase@ATL@@QAEJIIJAAH@Z 1000833b f i BumpBar.obj
 0001:000073ed       ?OnSetFocus@CComControlBase@ATL@@QAEJIIJAAH@Z 100083ed f i BumpBar.obj
 0001:00007476       ?Open@CRegKey@ATL@@QAEJPAUHKEY__@@PB_WK@Z 10008476 f i BumpBar.obj
 0001:000074cb       ?PreProcessBuffer@CRegParser@ATL@@QAEJPA_WPAPA_W@Z 100084cb f i BumpBar.obj
 0001:00007735       ?ProcessWindowMessage@?$CComControl@VCOPOSBumpBar@@V?$CWindowImpl@VCOPOSBumpBar@@VCWindow@ATL@@V?$CWinTraits@$0FGAAAAAA@$0A@@3@@ATL@@@ATL@@UAEHPAUHWND__@@IIJAAJK@Z 10008735 f i BumpBar.obj
 0001:000077d4       ?PutProperty@?$CComPtr@UIDispatch@@@ATL@@SAJPAUIDispatch@@JPAUtagVARIANT@@@Z 100087d4 f i BumpBar.obj
 0001:00007866       ?ReadFromStream@CComBSTR@ATL@@QAEJPAUIStream@@@Z 10008866 f i BumpBar.obj
 0001:00007994       ?ReadFromStream@CComVariant@ATL@@QAEJPAUIStream@@GTClassesAllowedInStream@2@K@Z 10008994 f i BumpBar.obj
 0001:00007b1a       ?RecurseDeleteKey@CRegKey@ATL@@QAEJPB_W@Z 10008b1a f i BumpBar.obj
 0001:00007bdc       ?RegCreateKeyExW@CAtlTransactionManager@ATL@@QAEJPAUHKEY__@@PB_WKPA_WKKQAU_SECURITY_ATTRIBUTES@@PAPAU3@PAK@Z 10008bdc f i BumpBar.obj
 0001:00007c3f       ?RegDeleteKeyW@CAtlTransactionManager@ATL@@QAEJPAUHKEY__@@PB_W@Z 10008c3f f i BumpBar.obj
 0001:00007c91       ?RegOpenKeyExW@CAtlTransactionManager@ATL@@QAEJPAUHKEY__@@PB_WKKPAPAU3@@Z 10008c91 f i BumpBar.obj
 0001:00007ce8       ?Register@_ATL_WNDCLASSINFOW@ATL@@QAEGPAP6GJPAUHWND__@@IIJ@Z@Z 10008ce8 f i BumpBar.obj
 0001:00007d08       ?RegisterBuffer@CRegParser@ATL@@QAEJPA_WH@Z 10008d08 f i BumpBar.obj
 0001:00007e41       ?RegisterFromResource@CRegObject@ATL@@IAEJPB_W00H@Z 10008e41 f i BumpBar.obj
 0001:00007f77       ?RegisterServer@?$CAtlModuleT@VCComModule@ATL@@@ATL@@QAEJHPBU_GUID@@@Z 10008f77 f i BumpBar.obj
 0001:00007fa5       ?RegisterServer@CComModule@ATL@@QAEJHPBU_GUID@@@Z 10008fa5 f i BumpBar.obj
 0001:0000801b       ?RegisterSubkeys@CRegParser@ATL@@IAEJPA_WPAUHKEY__@@HH@Z 1000901b f i BumpBar.obj
 0001:000085ea       ?Remove@CComDynamicUnkArray@ATL@@QAEHK@Z 100095ea f i BumpBar.obj
 0001:00008613       ?RemoveAll@?$CSimpleMap@PA_WPA_WVCExpansionVectorEqualHelper@ATL@@@ATL@@QAEXXZ 10009613 f i BumpBar.obj
 0001:0000863f       ?ResourceRegisterSz@CRegObject@ATL@@QAGJPB_W00@Z 1000963f f i BumpBar.obj
 0001:0000866c       ?ResourceUnregisterSz@CRegObject@ATL@@QAGJPB_W00@Z 1000966c f i BumpBar.obj
 0001:00008699       ?SendOnDataChange@CComControlBase@ATL@@QAEJK@Z 10009699 f i BumpBar.obj
 0001:000086e6       ?SetControlFocus@CComControlBase@ATL@@QAEHH@Z 100096e6 f i BumpBar.obj
 0001:00008783       ?SetMultiStringValue@CRegKey@ATL@@QAEJPB_W0@Z 10009783 f i BumpBar.obj
 0001:000087df       ?SetStringValue@CRegKey@ATL@@QAEJPB_W0K@Z 100097df f i BumpBar.obj
 0001:00008828       ?SkipAssignment@CRegParser@ATL@@IAEJPA_W@Z 10009828 f i BumpBar.obj
 0001:0000888d       ?SkipWhiteSpace@CRegParser@ATL@@IAEXXZ 1000988d f i BumpBar.obj
 0001:000088af       ?StrChrW@CRegParser@ATL@@KAPA_WPA_W_W@Z 100098af f i BumpBar.obj
 0001:000088ec       ?Term@CAtlModule@ATL@@QAEXXZ 100098ec f i BumpBar.obj
 0001:00008925       ?Term@CComModule@ATL@@QAEXXZ 10009925 f i BumpBar.obj
 0001:0000897d       ?UnregisterServer@?$CAtlModuleT@VCComModule@ATL@@@ATL@@QAEJHPBU_GUID@@@Z 1000997d f i BumpBar.obj
 0001:000089a3       ?UnregisterServer@CComModule@ATL@@QAEJHPBU_GUID@@@Z 100099a3 f i BumpBar.obj
 0001:00008a19       ?UpdateRegistryFromResource@CAtlModule@ATL@@QAGJIHPAU_ATL_REGMAP_ENTRY@2@@Z 10009a19 f i BumpBar.obj
 0001:00008be4       ?UpdateRegistryFromResource@CAtlModule@ATL@@QAGJPB_WHPAU_ATL_REGMAP_ENTRY@2@@Z 10009be4 f i BumpBar.obj
 0001:00008db5       ?VTFromRegType@CRegParser@ATL@@KAHPB_WAAG@Z 10009db5 f i BumpBar.obj
 0001:00008e22       ?WindowProc@?$CWindowImplBaseT@VCWindow@ATL@@V?$CWinTraits@$0FGAAAAAA@$0A@@2@@ATL@@SGJPAUHWND__@@IIJ@Z 10009e22 f i BumpBar.obj
 0001:00008f14       ?WriteToStream@CComBSTR@ATL@@QAEJPAUIStream@@@Z 10009f14 f i BumpBar.obj
 0001:00008f6b       ?WriteToStream@CComVariant@ATL@@QAEJPAUIStream@@@Z 10009f6b f i BumpBar.obj
 0001:000090e5       ?WriteToStream@CComVariant@ATL@@QAEJPAUIStream@@G@Z 1000a0e5 f i BumpBar.obj
 0001:0000914e       ?_AtlInitialConstruct@?$CComObjectRootEx@VCComMultiThreadModel@ATL@@@ATL@@QAEJXZ 1000a14e f i BumpBar.obj
 0001:00009163       ?_AtlVerifyStackAvailable@_ATL_SAFE_ALLOCA_IMPL@ATL@@YA_NK@Z 1000a163 f i BumpBar.obj
 0001:000091e1       ?atlCreate@?$CWindowImpl@VCOPOSBumpBar@@VCWindow@ATL@@V?$CWinTraits@$0FGAAAAAA@$0A@@3@@ATL@@QAEPAUHWND__@@PAU3@V_U_RECT@2@PB_WKKV_U_MENUorID@2@PAX@Z 1000a1e1 f i BumpBar.obj
 0001:00009225       ?atlCreate@?$CWindowImplBaseT@VCWindow@ATL@@V?$CWinTraits@$0FGAAAAAA@$0A@@2@@ATL@@QAEPAUHWND__@@PAU3@V_U_RECT@2@PB_WKKV_U_MENUorID@2@GPAX@Z 1000a225 f i BumpBar.obj
 0001:000092c1       ?atlCreate@CRegKey@ATL@@QAEJPAUHKEY__@@PB_WPA_WKKPAU_SECURITY_ATTRIBUTES@@PAK@Z 1000a2c1 f i BumpBar.obj
 0001:00009330       ?copy@?$_Copy@UtagCONNECTDATA@@@ATL@@SAJPAUtagCONNECTDATA@@PBU3@@Z 1000a330 f i BumpBar.obj
 0001:00009366       ?copy@?$_CopyInterface@UIConnectionPoint@@@ATL@@SAJPAPAUIConnectionPoint@@PBQAU3@@Z 1000a366 f i BumpBar.obj
 0001:00009394       ?memcpy_s@Checked@ATL@@YAXPAXIPBXI@Z 1000a394 f i BumpBar.obj
 0001:000093b3       ?ocscpy_s@@YA_NPA_WIPB_W@Z 1000a3b3 f i BumpBar.obj
 0001:000093e2       ?ocslen@@YAHPB_W@Z         1000a3e2 f i BumpBar.obj
 0001:00009402       ?wcscpy_s@Checked@ATL@@YAXPA_WIPB_W@Z 1000a402 f i BumpBar.obj
 0001:0000941e       _DllCanUnloadNow@0         1000a41e f   BumpBar.obj
 0001:0000942a       _DllGetClassObject@12      1000a42a f   BumpBar.obj
 0001:00009438       _DllMain@12                1000a438 f   BumpBar.obj
 0001:0000947a       _DllRegisterServer@0       1000a47a f   BumpBar.obj
 0001:00009489       _DllUnregisterServer@0     1000a489 f   BumpBar.obj
 0001:00009498       _InlineIsEqualGUID         1000a498 f i BumpBar.obj
 0001:000094c8       ___local_stdio_printf_options 1000a4c8 f i BumpBar.obj
 0001:000094ce       __vswprintf_s_l            1000a4ce f i BumpBar.obj
 0001:0000957b       _swprintf_s                1000a57b f i BumpBar.obj
 0001:00009597       ??0?$CComControl@VCOPOSBumpBar@@V?$CWindowImpl@VCOPOSBumpBar@@VCWindow@ATL@@V?$CWinTraits@$0FGAAAAAA@$0A@@3@@ATL@@@ATL@@QAE@XZ 1000a597 f i BumpBarImpl.obj
 0001:000095be       ??0?$CProxy_IOPOSEvents@VCOPOSBumpBar@@@@QAE@XZ 1000a5be f i BumpBarImpl.obj
 0001:000095e1       ??0CComControlBase@ATL@@QAE@AAPAUHWND__@@@Z 1000a5e1 f i BumpBarImpl.obj
 0001:0000962b       ??0COPOSBumpBar@@QAE@XZ    1000a62b f   BumpBarImpl.obj
 0001:00009661       ??1?$CComControl@VCOPOSBumpBar@@V?$CWindowImpl@VCOPOSBumpBar@@VCWindow@ATL@@V?$CWinTraits@$0FGAAAAAA@$0A@@3@@ATL@@@ATL@@UAE@XZ 1000a661 f i BumpBarImpl.obj
 0001:0000967a       ??1?$IConnectionPointImpl@VCOPOSBumpBar@@$1?IID_IPropertyNotifySink@@3U_GUID@@BVCComDynamicUnkArray@ATL@@@ATL@@QAE@XZ 1000a67a f i BumpBarImpl.obj
 0001:0000967a       ??1?$IConnectionPointImpl@VCOPOSBumpBar@@$1?DIID__IOPOSBumpBarEvents@@3U_GUID@@BVCComDynamicUnkArray@ATL@@@ATL@@QAE@XZ 1000a67a f i BumpBarImpl.obj
 0001:000096b7       ??1CComControlBase@ATL@@UAE@XZ 1000a6b7 f i BumpBarImpl.obj
 0001:0000971a       ??1COPOSBumpBar@@UAE@XZ    1000a71a f   BumpBarImpl.obj
 0001:00009762       ??1OposVariantResult@@QAE@XZ 1000a762 f i BumpBarImpl.obj
 0001:00009783       ??1_CW@@QAE@XZ             1000a783 f i BumpBarImpl.obj
 0001:0000979c       ?BumpBarSound@COPOSBumpBar@@UAGJJJJJJPAJ@Z 1000a79c f   BumpBarImpl.obj
 0001:00009848       ?CheckHealth@COPOSBumpBar@@UAGJJPAJ@Z 1000a848 f   BumpBarImpl.obj
 0001:00009897       ?ClaimDevice@COPOSBumpBar@@UAGJJPAJ@Z 1000a897 f   BumpBarImpl.obj
 0001:0000990c       ?ClearInput@COPOSBumpBar@@UAGJPAJ@Z 1000a90c f   BumpBarImpl.obj
 0001:00009927       ?ClearOutput@COPOSBumpBar@@UAGJPAJ@Z 1000a927 f   BumpBarImpl.obj
 0001:00009942       ?Close@COPOSBumpBar@@UAGJPAJ@Z 1000a942 f   BumpBarImpl.obj
 0001:000099b0       ?CompareFirmwareVersion@COPOSBumpBar@@UAGJPA_WPAJ1@Z 1000a9b0 f   BumpBarImpl.obj
 0001:00009a30       ?DirectIO@COPOSBumpBar@@UAGJJPAJPAPA_W0@Z 1000aa30 f   BumpBarImpl.obj
 0001:00009ade       ?DoInvoke@COPOSBumpBar@@IAEJJPAVOposVariant@@IHPAJ_N@Z 1000aade f   BumpBarImpl.obj
 0001:00009ba0       ?EventClose@COPOSBumpBar@@IAEXXZ 1000aba0 f i BumpBarImpl.obj
 0001:00009bd3       ?EventInit@COPOSBumpBar@@IAEJXZ 1000abd3 f i BumpBarImpl.obj
 0001:00009c9f       ?EventUninit@COPOSBumpBar@@IAEXXZ 1000ac9f f i BumpBarImpl.obj
 0001:00009cf1       ?EventWindowProc@COPOSBumpBar@@IAGJIIJ@Z 1000acf1 f i BumpBarImpl.obj
 0001:00009def       ?FinalConstruct@COPOSBumpBar@@QAEJXZ 1000adef f   BumpBarImpl.obj
 0001:00009e28       ?FireEventCleanup@COPOSBumpBar@@IAEXXZ 1000ae28 f i BumpBarImpl.obj
 0001:00009e3e       ?FireEventSetup@COPOSBumpBar@@IAE_NXZ 1000ae3e f i BumpBarImpl.obj
 0001:00009e72       ?FreezeEvents@COPOSBumpBar@@MAGJH@Z 1000ae72 f   BumpBarImpl.obj
 0001:00009ed2       ?GetOposProp@COPOSBumpBar@@IAEJJPAFJ@Z 1000aed2 f   BumpBarImpl.obj
 0001:00009ef5       ?GetOposProp@COPOSBumpBar@@IAEJJPAJJ@Z 1000aef5 f   BumpBarImpl.obj
 0001:00009fb3       ?GetOposProp@COPOSBumpBar@@IAEJJPAPA_WJ@Z 1000afb3 f   BumpBarImpl.obj
 0001:0000a07e       ?OnDraw@COPOSBumpBar@@MAEJAAUATL_DRAWINFO@@@Z 1000b07e f   BumpBarImpl.obj
 0001:0000a11e       ?Open@COPOSBumpBar@@UAGJPA_WPAJ@Z 1000b11e f   BumpBarImpl.obj
 0001:0000a8bb       ?ReleaseDevice@COPOSBumpBar@@UAGJPAJ@Z 1000b8bb f   BumpBarImpl.obj
 0001:0000a90a       ?ResetStatistics@COPOSBumpBar@@UAGJPA_WPAJ@Z 1000b90a f   BumpBarImpl.obj
 0001:0000a961       ?RetrieveStatistics@COPOSBumpBar@@UAGJPAPA_WPAJ@Z 1000b961 f   BumpBarImpl.obj
 0001:0000a9b8       ?SOProcessID@COPOSBumpBar@@UAGJPAJ@Z 1000b9b8 f   BumpBarImpl.obj
 0001:0000a9cc       ?SetCOFreezeEvents@COPOSBumpBar@@IAEXF@Z 1000b9cc f   BumpBarImpl.obj
 0001:0000aa57       ?SetKeyTranslation@COPOSBumpBar@@UAGJJJJPAJ@Z 1000ba57 f   BumpBarImpl.obj
 0001:0000aaed       ?SetOposProp@COPOSBumpBar@@IAEJJJJ@Z 1000baed f   BumpBarImpl.obj
 0001:0000abcb       ?UpdateFirmware@COPOSBumpBar@@UAGJPA_WPAJ@Z 1000bbcb f   BumpBarImpl.obj
 0001:0000ac22       ?UpdateStatistics@COPOSBumpBar@@UAGJPA_WPAJ@Z 1000bc22 f   BumpBarImpl.obj
 0001:0000ac79       ?get_AsyncMode@COPOSBumpBar@@UAGJPAF@Z 1000bc79 f   BumpBarImpl.obj
 0001:0000ac92       ?get_AutoToneDuration@COPOSBumpBar@@UAGJPAJ@Z 1000bc92 f   BumpBarImpl.obj
 0001:0000acab       ?get_AutoToneFrequency@COPOSBumpBar@@UAGJPAJ@Z 1000bcab f   BumpBarImpl.obj
 0001:0000acc4       ?get_BinaryConversion@COPOSBumpBar@@UAGJPAJ@Z 1000bcc4 f   BumpBarImpl.obj
 0001:0000acda       ?get_BumpBarDataCount@COPOSBumpBar@@UAGJPAJ@Z 1000bcda f   BumpBarImpl.obj
 0001:0000acf3       ?get_CapCompareFirmwareVersion@COPOSBumpBar@@UAGJPAF@Z 1000bcf3 f   BumpBarImpl.obj
 0001:0000ad0c       ?get_CapPowerReporting@COPOSBumpBar@@UAGJPAJ@Z 1000bd0c f   BumpBarImpl.obj
 0001:0000ad25       ?get_CapStatisticsReporting@COPOSBumpBar@@UAGJPAF@Z 1000bd25 f   BumpBarImpl.obj
 0001:0000ad3e       ?get_CapTone@COPOSBumpBar@@UAGJPAF@Z 1000bd3e f   BumpBarImpl.obj
 0001:0000ad57       ?get_CapUpdateFirmware@COPOSBumpBar@@UAGJPAF@Z 1000bd57 f   BumpBarImpl.obj
 0001:0000ad70       ?get_CapUpdateStatistics@COPOSBumpBar@@UAGJPAF@Z 1000bd70 f   BumpBarImpl.obj
 0001:0000ad89       ?get_CheckHealthText@COPOSBumpBar@@UAGJPAPA_W@Z 1000bd89 f   BumpBarImpl.obj
 0001:0000ada2       ?get_Claimed@COPOSBumpBar@@UAGJPAF@Z 1000bda2 f   BumpBarImpl.obj
 0001:0000adb8       ?get_ControlObjectDescription@COPOSBumpBar@@UAGJPAPA_W@Z 1000bdb8 f   BumpBarImpl.obj
 0001:0000adf5       ?get_ControlObjectVersion@COPOSBumpBar@@UAGJPAJ@Z 1000bdf5 f   BumpBarImpl.obj
 0001:0000ae08       ?get_CurrentUnitID@COPOSBumpBar@@UAGJPAJ@Z 1000be08 f   BumpBarImpl.obj
 0001:0000ae21       ?get_DataCount@COPOSBumpBar@@UAGJPAJ@Z 1000be21 f   BumpBarImpl.obj
 0001:0000ae37       ?get_DataEventEnabled@COPOSBumpBar@@UAGJPAF@Z 1000be37 f   BumpBarImpl.obj
 0001:0000ae4d       ?get_DeviceDescription@COPOSBumpBar@@UAGJPAPA_W@Z 1000be4d f   BumpBarImpl.obj
 0001:0000ae66       ?get_DeviceEnabled@COPOSBumpBar@@UAGJPAF@Z 1000be66 f   BumpBarImpl.obj
 0001:0000ae7c       ?get_DeviceName@COPOSBumpBar@@UAGJPAPA_W@Z 1000be7c f   BumpBarImpl.obj
 0001:0000ae95       ?get_ErrorString@COPOSBumpBar@@UAGJPAPA_W@Z 1000be95 f   BumpBarImpl.obj
 0001:0000aeae       ?get_ErrorUnits@COPOSBumpBar@@UAGJPAJ@Z 1000beae f   BumpBarImpl.obj
 0001:0000aec7       ?get_EventString@COPOSBumpBar@@UAGJPAPA_W@Z 1000bec7 f   BumpBarImpl.obj
 0001:0000aee0       ?get_EventUnitID@COPOSBumpBar@@UAGJPAJ@Z 1000bee0 f   BumpBarImpl.obj
 0001:0000aef9       ?get_EventUnits@COPOSBumpBar@@UAGJPAJ@Z 1000bef9 f   BumpBarImpl.obj
 0001:0000af12       ?get_FreezeEvents@COPOSBumpBar@@UAGJPAF@Z 1000bf12 f   BumpBarImpl.obj
 0001:0000af28       ?get_Keys@COPOSBumpBar@@UAGJPAJ@Z 1000bf28 f   BumpBarImpl.obj
 0001:0000af41       ?get_OpenResult@COPOSBumpBar@@UAGJPAJ@Z 1000bf41 f   BumpBarImpl.obj
 0001:0000af58       ?get_OutputID@COPOSBumpBar@@UAGJPAJ@Z 1000bf58 f   BumpBarImpl.obj
 0001:0000af6e       ?get_PowerNotify@COPOSBumpBar@@UAGJPAJ@Z 1000bf6e f   BumpBarImpl.obj
 0001:0000af84       ?get_PowerState@COPOSBumpBar@@UAGJPAJ@Z 1000bf84 f   BumpBarImpl.obj
 0001:0000af9a       ?get_ResultCode@COPOSBumpBar@@UAGJPAJ@Z 1000bf9a f   BumpBarImpl.obj
 0001:0000afd8       ?get_ResultCodeExtended@COPOSBumpBar@@UAGJPAJ@Z 1000bfd8 f   BumpBarImpl.obj
 0001:0000afee       ?get_ServiceObjectDescription@COPOSBumpBar@@UAGJPAPA_W@Z 1000bfee f   BumpBarImpl.obj
 0001:0000b007       ?get_ServiceObjectVersion@COPOSBumpBar@@UAGJPAJ@Z 1000c007 f   BumpBarImpl.obj
 0001:0000b01d       ?get_State@COPOSBumpBar@@UAGJPAJ@Z 1000c01d f   BumpBarImpl.obj
 0001:0000b049       ?get_Timeout@COPOSBumpBar@@UAGJPAJ@Z 1000c049 f   BumpBarImpl.obj
 0001:0000b062       ?get_UnitsOnline@COPOSBumpBar@@UAGJPAJ@Z 1000c062 f   BumpBarImpl.obj
 0001:0000b07b       ?put_AsyncMode@COPOSBumpBar@@UAGJF@Z 1000c07b f   BumpBarImpl.obj
 0001:0000b09b       ?put_AutoToneDuration@COPOSBumpBar@@UAGJJ@Z 1000c09b f   BumpBarImpl.obj
 0001:0000b0b4       ?put_AutoToneFrequency@COPOSBumpBar@@UAGJJ@Z 1000c0b4 f   BumpBarImpl.obj
 0001:0000b0cd       ?put_BinaryConversion@COPOSBumpBar@@UAGJJ@Z 1000c0cd f   BumpBarImpl.obj
 0001:0000b0e3       ?put_CurrentUnitID@COPOSBumpBar@@UAGJJ@Z 1000c0e3 f   BumpBarImpl.obj
 0001:0000b0fc       ?put_DataEventEnabled@COPOSBumpBar@@UAGJF@Z 1000c0fc f   BumpBarImpl.obj
 0001:0000b119       ?put_DeviceEnabled@COPOSBumpBar@@UAGJF@Z 1000c119 f   BumpBarImpl.obj
 0001:0000b136       ?put_FreezeEvents@COPOSBumpBar@@UAGJF@Z 1000c136 f   BumpBarImpl.obj
 0001:0000b182       ?put_PowerNotify@COPOSBumpBar@@UAGJJ@Z 1000c182 f   BumpBarImpl.obj
 0001:0000b198       ?put_Timeout@COPOSBumpBar@@UAGJJ@Z 1000c198 f   BumpBarImpl.obj
 0001:0000b1b1       ?s_EventWindowProc@COPOSBumpBar@@KGJPAUHWND__@@IIJ@Z 1000c1b1 f i BumpBarImpl.obj
 0001:0000b203       ??_U@YAPAXI@Z              1000c203 f   LIBCMT:new_array.obj
 0001:0000b20c       ??3@YAXPAXI@Z              1000c20c f   LIBCMT:delete_scalar_size.obj
 0001:0000b21a       ??_V@YAXPAX@Z              1000c21a f   LIBCMT:delete_array.obj
 0001:0000b21f       ??_V@YAXPAXI@Z             1000c21f f   LIBCMT:delete_array_size.obj
 0001:0000b22d       ??$__crt_fast_encode_pointer@PAP6AXXZ@@YAPAP6AXXZQAP6AXXZ@Z 1000c22d f i LIBCMT:utility.obj
 0001:0000b22d       ??$__crt_fast_encode_pointer@P6GXPAU_RTL_CONDITION_VARIABLE@@@Z@@YAP6GXPAU_RTL_CONDITION_VARIABLE@@@ZQ6GX0@Z@Z 1000c22d f i LIBCMT:thread_safe_statics.obj
 0001:0000b22d       ??$__crt_fast_encode_pointer@P6GHPAU_RTL_CONDITION_VARIABLE@@PAU_RTL_CRITICAL_SECTION@@K@Z@@YAP6GHPAU_RTL_CONDITION_VARIABLE@@PAU_RTL_CRITICAL_SECTION@@K@ZQ6GH01K@Z@Z 1000c22d f i LIBCMT:thread_safe_statics.obj
 0001:0000b22d       ??$__crt_fast_encode_pointer@PAX@@YAPAXQAX@Z 1000c22d f i libvcruntime:winapi_downlevel.obj
 0001:0000b28e       ___scrt_acquire_startup_lock 1000c28e f   LIBCMT:utility.obj
 0001:0000b2c0       ___scrt_dllmain_after_initialize_c 1000c2c0 f   LIBCMT:utility.obj
 0001:0000b2eb       ___scrt_dllmain_before_initialize_c 1000c2eb f   LIBCMT:utility.obj
 0001:0000b2f9       ___scrt_dllmain_crt_thread_attach 1000c2f9 f   LIBCMT:utility.obj
 0001:0000b318       ___scrt_dllmain_crt_thread_detach 1000c318 f   LIBCMT:utility.obj
 0001:0000b325       ___scrt_dllmain_exception_filter 1000c325 f   LIBCMT:utility.obj
 0001:0000b359       ___scrt_dllmain_uninitialize_c 1000c359 f   LIBCMT:utility.obj
 0001:0000b37c       ___scrt_dllmain_uninitialize_critical 1000c37c f   LIBCMT:utility.obj
 0001:0000b389       ___scrt_initialize_crt     1000c389 f   LIBCMT:utility.obj
 0001:0000b3c2       ___scrt_initialize_onexit_tables 1000c3c2 f   LIBCMT:utility.obj
 0001:0000b467       ___scrt_is_nonwritable_in_current_image 1000c467 f   LIBCMT:utility.obj
 0001:0000b4fb       ___scrt_release_startup_lock 1000c4fb f   LIBCMT:utility.obj
 0001:0000b518       ___scrt_uninitialize_crt   1000c518 f   LIBCMT:utility.obj
 0001:0000b540       __onexit                   1000c540 f   LIBCMT:utility.obj
 0001:0000b57b       _atexit                    1000c57b f   LIBCMT:utility.obj
 0001:0000b590       ??3@YAXPAX@Z               1000c590 f   LIBCMT:delete_scalar.obj
 0001:0000b6c7       __Init_thread_footer       1000c6c7 f   LIBCMT:thread_safe_statics.obj
 0001:0000b711       __Init_thread_header       1000c711 f   LIBCMT:thread_safe_statics.obj
 0001:0000b763       __Init_thread_notify       1000c763 f   LIBCMT:thread_safe_statics.obj
 0001:0000b7a5       __Init_thread_wait         1000c7a5 f   LIBCMT:thread_safe_statics.obj
 0001:0000b805       ___raise_securityfailure   1000c805 f   LIBCMT:gs_report.obj
 0001:0000b82d       ___report_gsfailure        1000c82d f   LIBCMT:gs_report.obj
 0001:0000b926       ___report_rangecheckfailure 1000c926 f   LIBCMT:gs_report.obj
 0001:0000b932       ___report_securityfailure  1000c932 f   LIBCMT:gs_report.obj
 0001:0000ba00       ??2@YAPAXIABUnothrow_t@std@@@Z 1000ca00 f   LIBCMT:new_scalar_nothrow.obj
 0001:0000ba50       ??_U@YAPAXIABUnothrow_t@std@@@Z 1000ca50 f   LIBCMT:new_array_nothrow.obj
 0001:0000ba59       @__security_check_cookie@4 1000ca59 f   LIBCMT:secchk.obj
 0001:0000ba70       __SEH_prolog4_GS           1000ca70 f   LIBCMT:sehprolg4gs.obj
 0001:0000bab9       __SEH_epilog4_GS           1000cab9 f   LIBCMT:sehprolg4gs.obj
 0001:0000bad0       __alloca_probe_16          1000cad0 f   LIBCMT:alloca16.obj
 0001:0000bae6       __alloca_probe_8           1000cae6     LIBCMT:alloca16.obj
 0001:0000bb00       __chkstk                   1000cb00 f   LIBCMT:chkstk.obj
 0001:0000bb00       __alloca_probe             1000cb00 f   LIBCMT:chkstk.obj
 0001:0000be4d       __DllMainCRTStartup@12     1000ce4d f   LIBCMT:dll_dllmain.obj
 0001:0000be70       ??2@YAPAXI@Z               1000ce70 f   LIBCMT:new_scalar.obj
 0001:0000bea0       ___isa_available_init      1000cea0 f   LIBCMT:cpu_disp.obj
 0001:0000c037       ___scrt_is_ucrt_dll_in_use 1000d037 f   LIBCMT:ucrt_detection.obj
 0001:0000c043       ___scrt_fastfail           1000d043 f   LIBCMT:utility_desktop.obj
 0001:0000c15d       __crt_debugger_hook        1000d15d f   LIBCMT:utility_desktop.obj
 0001:0000c170       __SEH_prolog4              1000d170 f   LIBCMT:sehprolg4.obj
 0001:0000c1b6       __SEH_epilog4              1000d1b6 f   LIBCMT:sehprolg4.obj
 0001:0000c1cb       @_guard_check_icall_nop@4  1000d1cb f i LIBCMT:guard_support.obj
 0001:0000c219       ___security_init_cookie    1000d219 f   LIBCMT:gs_support.obj
 0001:0000c264       ?__scrt_initialize_type_info@@YAXXZ 1000d264 f   LIBCMT:tncleanup.obj
 0001:0000c270       ?__scrt_uninitialize_type_info@@YAXXZ 1000d270 f   LIBCMT:tncleanup.obj
 0001:0000c27c       ___local_stdio_scanf_options 1000d27c f i LIBCMT:default_local_stdio_options.obj
 0001:0000c282       ___scrt_initialize_default_local_stdio_options 1000d282 f   LIBCMT:default_local_stdio_options.obj
 0001:0000c29f       ___scrt_get_dyn_tls_init_callback 1000d29f f   LIBCMT:dyn_tls_init.obj
 0001:0000c2a5       __RTC_Initialize           1000d2a5 f   LIBCMT:initsect.obj
 0001:0000c2d1       __RTC_Terminate            1000d2d1 f   LIBCMT:initsect.obj
 0001:0000c2fd       ??0bad_alloc@std@@QAE@ABV01@@Z 1000d2fd f i LIBCMT:throw_bad_alloc.obj
 0001:0000c318       ??0bad_alloc@std@@QAE@XZ   1000d318 f i LIBCMT:throw_bad_alloc.obj
 0001:0000c330       ??0bad_array_new_length@std@@QAE@ABV01@@Z 1000d330 f i LIBCMT:throw_bad_alloc.obj
 0001:0000c34b       ??0bad_array_new_length@std@@QAE@XZ 1000d34b f i LIBCMT:throw_bad_alloc.obj
 0001:0000c363       ??0exception@std@@QAE@ABV01@@Z 1000d363 f i LIBCMT:throw_bad_alloc.obj
 0001:0000c38f       ??1bad_array_new_length@std@@UAE@XZ 1000d38f f i LIBCMT:throw_bad_alloc.obj
 0001:0000c38f       ??1bad_exception@std@@UAE@XZ 1000d38f f i libvcruntime:frame.obj
 0001:0000c38f       ??1bad_alloc@std@@UAE@XZ   1000d38f f i LIBCMT:throw_bad_alloc.obj
 0001:0000c3a0       ??_Eexception@std@@UAEPAXI@Z 1000d3a0 f i LIBCMT:throw_bad_alloc.obj
 0001:0000c3a0       ??_Gbad_exception@std@@UAEPAXI@Z 1000d3a0 f i libvcruntime:frame.obj
 0001:0000c3a0       ??_Gexception@std@@UAEPAXI@Z 1000d3a0 f i LIBCMT:throw_bad_alloc.obj
 0001:0000c3a0       ??_Ebad_array_new_length@std@@UAEPAXI@Z 1000d3a0 f i LIBCMT:throw_bad_alloc.obj
 0001:0000c3a0       ??_Ebad_alloc@std@@UAEPAXI@Z 1000d3a0 f i LIBCMT:throw_bad_alloc.obj
 0001:0000c3a0       ??_Gbad_array_new_length@std@@UAEPAXI@Z 1000d3a0 f i LIBCMT:throw_bad_alloc.obj
 0001:0000c3a0       ??_Ebad_exception@std@@UAEPAXI@Z 1000d3a0 f i libvcruntime:frame.obj
 0001:0000c3a0       ??_Gbad_alloc@std@@UAEPAXI@Z 1000d3a0 f i LIBCMT:throw_bad_alloc.obj
 0001:0000c3cd       ?__scrt_throw_std_bad_alloc@@YAXXZ 1000d3cd f   LIBCMT:throw_bad_alloc.obj
 0001:0000c3ea       ?__scrt_throw_std_bad_array_new_length@@YAXXZ 1000d3ea f   LIBCMT:throw_bad_alloc.obj
 0001:0000c407       ?what@exception@std@@UBEPBDXZ 1000d407 f i LIBCMT:throw_bad_alloc.obj
 0001:0000c414       ??_Etype_info@@UAEPAXI@Z   1000d414 f i LIBCMT:std_type_info_static.obj
 0001:0000c414       ??_Gtype_info@@UAEPAXI@Z   1000d414 f i LIBCMT:std_type_info_static.obj
 0001:0000c437       ??0CAtlBaseModule@ATL@@QAE@XZ 1000d437 f   atls:atlbase.obj
 0001:0000c48a       ??0_ATL_BASE_MODULE70@ATL@@QAE@XZ 1000d48a f i atls:atlbase.obj
 0001:0000c4ad       ??1CAtlBaseModule@ATL@@QAE@XZ 1000d4ad f   atls:atlbase.obj
 0001:0000c59a       ?Init@_stdcallthunk@ATL@@QAEHKPAX@Z 1000d59a f i atls:atlthunk.obj
 0001:0000c5cf       ?__AllocStdCallThunk_cmn@@YAPAXXZ 1000d5cf f   atls:atlthunk.obj
 0001:0000c695       ?__FreeStdCallThunk_cmn@@YAXPAX@Z 1000d695 f   atls:atlthunk.obj
 0001:0000c730       _AtlThunk_AllocateData@0   1000d730 f   atls:atlthunk.obj
 0001:0000c795       _AtlThunk_DataToCode@4     1000d795 f   atls:atlthunk.obj
 0001:0000c7dc       _AtlThunk_FreeData@4       1000d7dc f   atls:atlthunk.obj
 0001:0000c832       _AtlThunk_InitData@12      1000d832 f   atls:atlthunk.obj
 0001:0000c881       __get_purecall_handler     1000d881 f   libvcruntime:purevirt.obj
 0001:0000c896       __purecall                 1000d896 f   libvcruntime:purevirt.obj
 0001:0000c8b2       _wcsstr                    1000d8b2 f   libvcruntime:wcsstr.obj
 0001:0000cb70       __except_handler4          1000db70 f   libvcruntime:chandler4.obj
 0001:0000ccc7       _memcmp                    1000dcc7 f   libvcruntime:memcmp.obj
 0001:0000dc70       _memcpy                    1000ec70 f   libvcruntime:memcpy.obj
 0001:0000e1f0       _memset                    1000f1f0 f   libvcruntime:memset.obj
 0001:0000e34a       ___vcrt_initialize         1000f34a f   libvcruntime:initialization.obj
 0001:0000e373       ___vcrt_thread_attach      1000f373 f   libvcruntime:initialization.obj
 0001:0000e37e       ___vcrt_thread_detach      1000f37e f   libvcruntime:initialization.obj
 0001:0000e389       ___vcrt_uninitialize       1000f389 f   libvcruntime:initialization.obj
 0001:0000e3a8       ___vcrt_uninitialize_critical 1000f3a8 f   libvcruntime:initialization.obj
 0001:0000e3b0       ?GetRangeOfTrysToCheck@__FrameHandler3@@SA?AU?$pair@Viterator@TryBlockMap@__FrameHandler3@@V123@@std@@AAVTryBlockMap@1@HH@Z 1000f3b0 f   libvcruntime:trnsctrl.obj
 0001:0000e432       ?_CallCatchBlock2@@YAPAXPAUEHRegistrationNode@@PBU_s_FuncInfo@@PAXHK@Z 1000f432 f   libvcruntime:trnsctrl.obj
 0001:0000e490       ?_CallSETranslator@@YAHPAUEHExceptionRecord@@PAUEHRegistrationNode@@PAX2PBU_s_FuncInfo@@H1@Z 1000f490 f   libvcruntime:trnsctrl.obj
 0001:0000e56b       ?_JumpToContinuation@@YGXPAXPAUEHRegistrationNode@@@Z 1000f56b f   libvcruntime:trnsctrl.obj
 0001:0000e59b       ?_UnwindNestedFrames@@YGXPAUEHRegistrationNode@@PAUEHExceptionRecord@@@Z 1000f59b f   libvcruntime:trnsctrl.obj
 0001:0000e5ee       __CatchGuardHandler        1000f5ee f   libvcruntime:trnsctrl.obj
 0001:0000e61f       __CreateFrameInfo          1000f61f f   libvcruntime:trnsctrl.obj
 0001:0000e643       __FindAndUnlinkFrame       1000f643 f   libvcruntime:trnsctrl.obj
 0001:0000e688       __TranslatorGuardHandler   1000f688 f   libvcruntime:trnsctrl.obj
 0001:0000e725       ___CxxFrameHandler3        1000f725 f   libvcruntime:trnsctrl.obj
 0001:0000e75b       ___std_type_info_compare   1000f75b f   libvcruntime:std_type_info.obj
 0001:0000e797       ___std_type_info_destroy_list 1000f797 f   libvcruntime:std_type_info.obj
 0001:0000e7ba       ___std_exception_copy      1000f7ba f   libvcruntime:std_exception.obj
 0001:0000e81d       ___std_exception_destroy   1000f81d f   libvcruntime:std_exception.obj
 0001:0000e83c       __CxxThrowException@8      1000f83c f   libvcruntime:throw.obj
 0001:0000e8b0       _memmove                   1000f8b0 f   libvcruntime:memmove.obj
 0001:0000ee24       ___vcrt_initialize_pure_virtual_call_handler 1000fe24 f   libvcruntime:purevirt_data.obj
 0001:0000ee30       __local_unwind4            1000fe30 f   libvcruntime:exsup4.obj
 0001:0000ef08       __seh_longjmp_unwind4@4    1000ff08 f   libvcruntime:exsup4.obj
 0001:0000ef30       @_EH4_CallFilterFunc@8     1000ff30 f   libvcruntime:exsup4.obj
 0001:0000ef48       @_EH4_TransferToHandler@8  1000ff48 f   libvcruntime:exsup4.obj
 0001:0000ef64       @_EH4_GlobalUnwind2@8      1000ff64 f   libvcruntime:exsup4.obj
 0001:0000ef80       @_EH4_LocalUnwind@16       1000ff80 f   libvcruntime:exsup4.obj
 0001:0000ef97       ___except_validate_context_record 1000ff97 f   libvcruntime:jbcxrval.obj
 0001:0000efc7       ___except_validate_jump_buffer 1000ffc7 f   libvcruntime:jbcxrval.obj
 0001:0000eff4       ___vcrt_freefls@4          1000fff4 f   libvcruntime:per_thread_data.obj
 0001:0000f010       ___vcrt_freeptd            10010010 f   libvcruntime:per_thread_data.obj
 0001:0000f046       ___vcrt_getptd             10010046 f   libvcruntime:per_thread_data.obj
 0001:0000f054       ___vcrt_getptd_noexit      10010054 f   libvcruntime:per_thread_data.obj
 0001:0000f0e6       ___vcrt_initialize_ptd     100100e6 f   libvcruntime:per_thread_data.obj
 0001:0000f119       ___vcrt_uninitialize_ptd   10010119 f   libvcruntime:per_thread_data.obj
 0001:0000f134       ___vcrt_initialize_locks   10010134 f   libvcruntime:locks.obj
 0001:0000f170       ___vcrt_uninitialize_locks 10010170 f   libvcruntime:locks.obj
 0001:0000f2d2       ___vcrt_FlsAlloc           100102d2 f   libvcruntime:winapi_downlevel.obj
 0001:0000f30d       ___vcrt_FlsFree            1001030d f   libvcruntime:winapi_downlevel.obj
 0001:0000f348       ___vcrt_FlsGetValue        10010348 f   libvcruntime:winapi_downlevel.obj
 0001:0000f383       ___vcrt_FlsSetValue        10010383 f   libvcruntime:winapi_downlevel.obj
 0001:0000f3c1       ___vcrt_InitializeCriticalSectionEx 100103c1 f   libvcruntime:winapi_downlevel.obj
 0001:0000f408       ___vcrt_initialize_winapi_thunks 10010408 f   libvcruntime:winapi_downlevel.obj
 0001:0000f431       ___vcrt_uninitialize_winapi_thunks 10010431 f   libvcruntime:winapi_downlevel.obj
 0001:0000fb5a       ??$TypeMatchHelper@V__FrameHandler3@@@@YAHPBU_s_HandlerType@@PBU_s_CatchableType@@PBU_s_ThrowInfo@@@Z 10010b5a f i libvcruntime:frame.obj
 0001:0000fbe8       ??$__InternalCxxFrameHandler@V__FrameHandler3@@@@YA?AW4_EXCEPTION_DISPOSITION@@PAUEHExceptionRecord@@PAUEHRegistrationNode@@PAU_CONTEXT@@PAXPBU_s_FuncInfo@@H1E@Z 10010be8 f i libvcruntime:frame.obj
 0001:0000fcea       ??0bad_exception@std@@QAE@ABV01@@Z 10010cea f i libvcruntime:frame.obj
 0001:0000fd05       ??0bad_exception@std@@QAE@XZ 10010d05 f i libvcruntime:frame.obj
 0001:0000fd1d       ??8type_info@@QBE_NABV0@@Z 10010d1d f i libvcruntime:frame.obj
 0001:0000ff84       ?FrameUnwindToEmptyState@__FrameHandler3@@SAXPAUEHRegistrationNode@@PAXPBU_s_FuncInfo@@@Z 10010f84 f   libvcruntime:frame.obj
 0001:0000ff9c       ?FrameUnwindToState@__FrameHandler3@@SAXPAUEHRegistrationNode@@PAXPBU_s_FuncInfo@@H@Z 10010f9c f   libvcruntime:frame.obj
 0001:0001011e       ?_CallMemberFunction1@@YGXQAX00@Z 1001111e f i libvcruntime:frame.obj
 0001:0001012e       ?_CallMemberFunction2@@YGXQAX00H@Z 1001112e f i libvcruntime:frame.obj
 0001:00010141       ?getESTypes@__FrameHandler3@@SAPBU_s_ESTypeList@@PBU_s_FuncInfo@@@Z 10011141 f i libvcruntime:frame.obj
 0001:00010150       __CallSettingFrame@12      10011150 f   libvcruntime:lowhelpr.obj
 0001:00010177       __NLG_Return               10011177     libvcruntime:lowhelpr.obj
 0001:000101a0       __global_unwind2           100111a0 f   libvcruntime:exsup.obj
 0001:00010206       __local_unwind2            10011206 f   libvcruntime:exsup.obj
 0001:0001028a       __abnormal_termination     1001128a f   libvcruntime:exsup.obj
 0001:000102b0       __NLG_Notify1              100112b0 f   libvcruntime:exsup.obj
 0001:000102bc       __NLG_Notify               100112bc f   libvcruntime:exsup.obj
 0001:000102d3       __NLG_Dispatch             100112d3     libvcruntime:exsup.obj
 0001:000102d3       __NLG_Dispatch2            100112d3     libvcruntime:exsup.obj
 0001:000102db       __NLG_Call                 100112db f   libvcruntime:exsup.obj
 0001:000102dd       __NLG_Return2              100112dd     libvcruntime:exsup.obj
 0001:000102de       _unexpected                100112de f   libvcruntime:unexpected.obj
 0001:000102fb       ?GetCurrentState@__FrameHandler3@@SAHPAUEHRegistrationNode@@PAXPBU_s_FuncInfo@@@Z 100112fb f   libvcruntime:ehstate.obj
 0001:00010318       ?SetState@__FrameHandler3@@SAXPAUEHRegistrationNode@@PBU_s_FuncInfo@@H@Z 10011318 f   libvcruntime:ehstate.obj
 0001:00010326       ___DestructExceptionObject 10011326 f   libvcruntime:ehhelpers.obj
 0001:000103c6       ?_CallMemberFunction0@@YGXQAX0@Z 100113c6 f i libvcruntime:ehhelpers.obj
 0001:000103d3       __IsExceptionObjectToBeDestroyed 100113d3 f   libvcruntime:ehhelpers.obj
 0001:000103f9       ___AdjustPointer           100113f9 f   libvcruntime:ehhelpers.obj
 0001:0001041e       ___FrameUnwindFilter       1001141e f   libvcruntime:ehhelpers.obj
 0001:00010463       _free                      10011463 f   libucrt:free.obj
 0001:00010468       ?initialize@?$dual_state_global@P6AXPB_W00II@Z@__crt_state_management@@QAEXQ6AXPB_W00II@Z@Z 10011468 f i libucrt:invalid_parameter.obj
 0001:00010468       ?initialize@?$dual_state_global@P6AXH@Z@__crt_state_management@@QAEXQ6AXH@Z@Z 10011468 f i libucrt:signal.obj
 0001:00010468       ?initialize@?$dual_state_global@PAU__crt_locale_data@@@__crt_state_management@@QAEXQAU__crt_locale_data@@@Z 10011468 f i libucrt:initialization.obj
 0001:00010468       ?initialize@?$dual_state_global@P6AHPAU_exception@@@Z@__crt_state_management@@QAEXQ6AHPAU_exception@@@Z@Z 10011468 f i libucrt:matherr.obj
 0001:00010468       ?initialize@?$dual_state_global@P6AHI@Z@__crt_state_management@@QAEXQ6AHI@Z@Z 10011468 f i libucrt:new_handler.obj
 0001:00010468       ?initialize@?$dual_state_global@PAPAD@__crt_state_management@@QAEXQAPAD@Z 10011468 f i libucrt:environment_initialization.obj
 0001:00010499       ___acrt_call_reportfault   10011499 f   libucrt:invalid_parameter.obj
 0001:000105d4       ___acrt_initialize_invalid_parameter_handler 100115d4 f   libucrt:invalid_parameter.obj
 0001:000105e8       __invalid_parameter        100115e8 f   libucrt:invalid_parameter.obj
 0001:00010663       __invalid_parameter_noinfo 10011663 f   libucrt:invalid_parameter.obj
 0001:00010673       __invoke_watson            10011673 f   libucrt:invalid_parameter.obj
 0001:000106a6       ___acrt_errno_from_os_error 100116a6 f   libucrt:errno.obj
 0001:000106e9       ___acrt_errno_map_os_error 100116e9 f   libucrt:errno.obj
 0001:0001070c       ___doserrno                1001170c f   libucrt:errno.obj
 0001:0001071f       __errno                    1001171f f   libucrt:errno.obj
 0001:00010732       _calloc                    10011732 f   libucrt:calloc.obj
 0001:0001073d       _malloc                    1001173d f   libucrt:malloc.obj
 0001:00010748       __recalloc                 10011748 f   libucrt:recalloc.obj
 0001:00010753       __recalloc_base            10011753 f   libucrt:recalloc.obj
 0001:000107c0       __resetstkoflw             100117c0 f   libucrt:resetstk.obj
 0001:00010891       _wcscat_s                  10011891 f   libucrt:wcscat_s.obj
 0001:00010906       _wcscpy_s                  10011906 f   libucrt:wcscpy_s.obj
 0001:00010a37       _wcsncpy_s                 10011a37 f   libucrt:wcsncpy_s.obj
 0001:00010c41       ??$count@D@formatting_buffer@__crt_stdio_output@@QBEIXZ 10011c41 f i libucrt:output.obj
 0001:00010c59       ??$ensure_buffer_is_big_enough@D@formatting_buffer@__crt_stdio_output@@QAE_NI@Z 10011c59 f i libucrt:output.obj
 0001:00010cdf       ??$is_wide_character_specifier@_W@__crt_stdio_output@@YA_N_K_WW4length_modifier@0@@Z 10011cdf f i libucrt:output.obj
 0001:00010d2e       ??$scratch_data@D@formatting_buffer@__crt_stdio_output@@QAEPADXZ 10011d2e f i libucrt:output.obj
 0001:00010d4c       ??$type_case_integer_parse_into_buffer@I@?$output_processor@_WV?$string_output_adapter@_W@__crt_stdio_output@@V?$format_validation_base@_WV?$string_output_adapter@_W@__crt_stdio_output@@@2@@__crt_stdio_output@@AAEXII_N@Z 10011d4c f i libucrt:output.obj
 0001:00010dc1       ??$type_case_integer_parse_into_buffer@_K@?$output_processor@_WV?$string_output_adapter@_W@__crt_stdio_output@@V?$format_validation_base@_WV?$string_output_adapter@_W@__crt_stdio_output@@@2@@__crt_stdio_output@@AAEX_KI_N@Z 10011dc1 f i libucrt:output.obj
 0001:00010e49       ??$write_multiple_characters@V?$string_output_adapter@_W@__crt_stdio_output@@D@__crt_stdio_output@@YAXABV?$string_output_adapter@_W@0@DHQAH@Z 10011e49 f i libucrt:output.obj
 0001:00010e7a       ??0?$common_data@_W@__crt_stdio_output@@IAE@XZ 10011e7a f i libucrt:output.obj
 0001:00010ec6       ??0?$output_adapter_data@_WV?$string_output_adapter@_W@__crt_stdio_output@@@__crt_stdio_output@@IAE@ABV?$string_output_adapter@_W@1@_KQB_WQAU__crt_locale_pointers@@QAD@Z 10011ec6 f i libucrt:output.obj
 0001:00010f02       ??0?$output_processor@_WV?$string_output_adapter@_W@__crt_stdio_output@@V?$format_validation_base@_WV?$string_output_adapter@_W@__crt_stdio_output@@@2@@__crt_stdio_output@@QAE@ABV?$string_output_adapter@_W@1@_KQB_WQAU__crt_locale_pointers@@QAD@Z 10011f02 f i libucrt:output.obj
 0001:00010f37       ??0_LocaleUpdate@@QAE@QAU__crt_locale_pointers@@@Z 10011f37 f i libucrt:output.obj
 0001:00010fba       ??1formatting_buffer@__crt_stdio_output@@QAE@XZ 10011fba f i libucrt:output.obj
 0001:00010fd4       ??4?$__crt_unique_heap_ptr@DU__crt_internal_free_policy@@@@QAEAAV0@$$QAV0@@Z 10011fd4 f i libucrt:output.obj
 0001:00010ff8       ?crop_zeroes@__crt_stdio_output@@YAXPADQAU__crt_locale_pointers@@@Z 10011ff8 f i libucrt:output.obj
 0001:0001104f       ?find_next_state@?$output_processor@_WV?$string_output_adapter@_W@__crt_stdio_output@@V?$format_validation_base@_WV?$string_output_adapter@_W@__crt_stdio_output@@@2@@__crt_stdio_output@@ABE?AW4state@2@_WW432@@Z 1001204f f i libucrt:output.obj
 0001:00011086       ?force_decimal_point@__crt_stdio_output@@YAXPADQAU__crt_locale_pointers@@@Z 10012086 f i libucrt:output.obj
 0001:000110e2       ?parse_int_from_format_string@?$output_processor@_WV?$string_output_adapter@_W@__crt_stdio_output@@V?$format_validation_base@_WV?$string_output_adapter@_W@__crt_stdio_output@@@2@@__crt_stdio_output@@AAE_NQAH@Z 100120e2 f i libucrt:output.obj
 0001:00011140       ?process@?$output_processor@_WV?$string_output_adapter@_W@__crt_stdio_output@@V?$format_validation_base@_WV?$string_output_adapter@_W@__crt_stdio_output@@@2@@__crt_stdio_output@@QAEHXZ 10012140 f i libucrt:output.obj
 0001:00011270       ?state_case_flag@?$output_processor@_WV?$string_output_adapter@_W@__crt_stdio_output@@V?$format_validation_base@_WV?$string_output_adapter@_W@__crt_stdio_output@@@2@@__crt_stdio_output@@AAE_NXZ 10012270 f i libucrt:output.obj
 0001:000112ad       ?state_case_normal@?$output_processor@_WV?$string_output_adapter@_W@__crt_stdio_output@@V?$format_validation_base@_WV?$string_output_adapter@_W@__crt_stdio_output@@@2@@__crt_stdio_output@@AAE_NXZ 100122ad f i libucrt:output.obj
 0001:000112cc       ?state_case_normal_common@?$output_processor@_WV?$string_output_adapter@_W@__crt_stdio_output@@V?$format_validation_base@_WV?$string_output_adapter@_W@__crt_stdio_output@@@2@@__crt_stdio_output@@AAE_NXZ 100122cc f i libucrt:output.obj
 0001:000112e7       ?state_case_precision@?$output_processor@_WV?$string_output_adapter@_W@__crt_stdio_output@@V?$format_validation_base@_WV?$string_output_adapter@_W@__crt_stdio_output@@@2@@__crt_stdio_output@@AAE_NXZ 100122e7 f i libucrt:output.obj
 0001:00011310       ?state_case_size@?$output_processor@_WV?$string_output_adapter@_W@__crt_stdio_output@@V?$format_validation_base@_WV?$string_output_adapter@_W@__crt_stdio_output@@@2@@__crt_stdio_output@@AAE_NXZ 10012310 f i libucrt:output.obj
 0001:0001148c       ?state_case_type@?$output_processor@_WV?$string_output_adapter@_W@__crt_stdio_output@@V?$format_validation_base@_WV?$string_output_adapter@_W@__crt_stdio_output@@@2@@__crt_stdio_output@@AAE_NXZ 1001248c f i libucrt:output.obj
 0001:000116e9       ?state_case_width@?$output_processor@_WV?$string_output_adapter@_W@__crt_stdio_output@@V?$format_validation_base@_WV?$string_output_adapter@_W@__crt_stdio_output@@@2@@__crt_stdio_output@@AAE_NXZ 100126e9 f i libucrt:output.obj
 0001:00011715       ?to_integer_size@__crt_stdio_output@@YAIW4length_modifier@1@@Z 10012715 f i libucrt:output.obj
 0001:00011771       ?type_case_Z@?$output_processor@_WV?$string_output_adapter@_W@__crt_stdio_output@@V?$format_validation_base@_WV?$string_output_adapter@_W@__crt_stdio_output@@@2@@__crt_stdio_output@@AAE_NXZ 10012771 f i libucrt:output.obj
 0001:000117d4       ?type_case_a@?$output_processor@_WV?$string_output_adapter@_W@__crt_stdio_output@@V?$format_validation_base@_WV?$string_output_adapter@_W@__crt_stdio_output@@@2@@__crt_stdio_output@@AAE_NXZ 100127d4 f i libucrt:output.obj
 0001:00011946       ?type_case_c_tchar@?$output_processor@_WV?$string_output_adapter@_W@__crt_stdio_output@@V?$format_validation_base@_WV?$string_output_adapter@_W@__crt_stdio_output@@@2@@__crt_stdio_output@@AAE_N_W@Z 10012946 f i libucrt:output.obj
 0001:000119de       ?type_case_integer@?$output_processor@_WV?$string_output_adapter@_W@__crt_stdio_output@@V?$format_validation_base@_WV?$string_output_adapter@_W@__crt_stdio_output@@@2@@__crt_stdio_output@@AAE_NI_N@Z 100129de f i libucrt:output.obj
 0001:00011b28       ?type_case_n@?$output_processor@_WV?$string_output_adapter@_W@__crt_stdio_output@@V?$format_validation_base@_WV?$string_output_adapter@_W@__crt_stdio_output@@@2@@__crt_stdio_output@@AAE_NXZ 10012b28 f i libucrt:output.obj
 0001:00011b9c       ?type_case_o@?$output_processor@_WV?$string_output_adapter@_W@__crt_stdio_output@@V?$format_validation_base@_WV?$string_output_adapter@_W@__crt_stdio_output@@@2@@__crt_stdio_output@@AAE_NXZ 10012b9c f i libucrt:output.obj
 0001:00011bbb       ?type_case_p@?$output_processor@_WV?$string_output_adapter@_W@__crt_stdio_output@@V?$format_validation_base@_WV?$string_output_adapter@_W@__crt_stdio_output@@@2@@__crt_stdio_output@@AAE_NXZ 10012bbb f i libucrt:output.obj
 0001:00011bd3       ?type_case_s@?$output_processor@_WV?$string_output_adapter@_W@__crt_stdio_output@@V?$format_validation_base@_WV?$string_output_adapter@_W@__crt_stdio_output@@@2@@__crt_stdio_output@@AAE_NXZ 10012bd3 f i libucrt:output.obj
 0001:00011c47       ?type_case_s_compute_narrow_string_length@?$output_processor@_WV?$string_output_adapter@_W@__crt_stdio_output@@V?$format_validation_base@_WV?$string_output_adapter@_W@__crt_stdio_output@@@2@@__crt_stdio_output@@ABEHH_W@Z 10012c47 f i libucrt:output.obj
 0001:00011c87       ?validate@?$string_output_adapter@_W@__crt_stdio_output@@QBE_NXZ 10012c87 f i libucrt:output.obj
 0001:00011c87       ?validate@?$c_string_character_source@_W@__crt_strtox@@QBE_NXZ 10012c87 f i libucrt:atox.obj
 0001:00011ca2       ?validate_and_update_state_at_end_of_format_string@?$format_validation_base@_WV?$string_output_adapter@_W@__crt_stdio_output@@@__crt_stdio_output@@IBE_NXZ 10012ca2 f i libucrt:output.obj
 0001:00011cc4       ?write_character@?$string_output_adapter@_W@__crt_stdio_output@@QBE_N_WQAH@Z 10012cc4 f i libucrt:output.obj
 0001:00011d09       ?write_stored_string_tchar@?$output_processor@_WV?$string_output_adapter@_W@__crt_stdio_output@@V?$format_validation_base@_WV?$string_output_adapter@_W@__crt_stdio_output@@@2@@__crt_stdio_output@@AAE_N_W@Z 10012d09 f i libucrt:output.obj
 0001:00011d94       ?write_string@?$string_output_adapter@_W@__crt_stdio_output@@QBEXQB_WHQAH1@Z 10012d94 f i libucrt:output.obj
 0001:00011e2e       ___stdio_common_vswprintf_s 10012e2e f   libucrt:output.obj
 0001:00011e52       __seh_filter_dll           10012e52 f   libucrt:exception_filter.obj
 0001:00011e72       __seh_filter_exe           10012e72 f   libucrt:exception_filter.obj
 0001:00012200       ___acrt_initialize_thread_local_exit_callback 10013200 f   libucrt:exit.obj
 0001:0001220f       __cexit                    1001320f f   libucrt:exit.obj
 0001:0001221e       __exit                     1001321e f   libucrt:exit.obj
 0001:00012234       __is_c_termination_complete 10013234 f   libucrt:exit.obj
 0001:000124d3       ___acrt_allocate_buffer_for_argv 100134d3 f   libucrt:argv_parsing.obj
 0001:00012528       __configure_narrow_argv    10013528 f   libucrt:argv_parsing.obj
 0001:0001268c       ??$uninitialize@A6AXAAPAPA_W@Z@?$dual_state_global@PAPA_W@__crt_state_management@@QAEXA6AXAAPAPA_W@Z@Z 1001368c f i libucrt:environment_initialization.obj
 0001:0001268c       ??$uninitialize@A6AXAAPAPAD@Z@?$dual_state_global@PAPAD@__crt_state_management@@QAEXA6AXAAPAPAD@Z@Z 1001368c f i libucrt:environment_initialization.obj
 0001:00012702       ___dcrt_uninitialize_environments_nolock 10013702 f   libucrt:environment_initialization.obj
 0001:00012739       __initialize_narrow_environment 10013739 f   libucrt:environment_initialization.obj
 0001:0001273e       ??$?RV<lambda_800076c951b434888f4765a74a194fcc>@@AAV<lambda_4e60a939b0d047cfe11ddc22648dfba9>@@V<lambda_6dbb1268764f43b569ce7b67e331d33a>@@@?$__crt_seh_guarded_call@H@@QAEH$$QAV<lambda_800076c951b434888f4765a74a194fcc>@@AAV<lambda_4e60a939b0d047cfe11ddc22648dfba9>@@$$QAV<lambda_6dbb1268764f43b569ce7b67e331d33a>@@@Z 1001373e f i libucrt:onexit.obj
 0001:0001278f       ??$?RV<lambda_995298e7d72eb4c2aab26c0585b3abe5>@@AAV<lambda_275893d493268fdec8709772e3fcec0e>@@V<lambda_293819299cbf9a7022e18b56a874bb5c>@@@?$__crt_seh_guarded_call@H@@QAEH$$QAV<lambda_995298e7d72eb4c2aab26c0585b3abe5>@@AAV<lambda_275893d493268fdec8709772e3fcec0e>@@$$QAV<lambda_293819299cbf9a7022e18b56a874bb5c>@@@Z 1001378f f i libucrt:onexit.obj
 0001:000127e0       ??$__acrt_lock_and_call@V<lambda_275893d493268fdec8709772e3fcec0e>@@@@YAHW4__acrt_lock_id@@$$QAV<lambda_275893d493268fdec8709772e3fcec0e>@@@Z 100137e0 f i libucrt:onexit.obj
 0001:00012808       ??$__acrt_lock_and_call@V<lambda_4e60a939b0d047cfe11ddc22648dfba9>@@@@YAHW4__acrt_lock_id@@$$QAV<lambda_4e60a939b0d047cfe11ddc22648dfba9>@@@Z 10013808 f i libucrt:onexit.obj
 0001:00012830       ??$__crt_fast_encode_pointer@P6AHXZ@@YAP6AHXZQ6AHXZ@Z 10013830 f i libucrt:onexit.obj
 0001:00012ab0       __crt_atexit               10013ab0 f   libucrt:onexit.obj
 0001:00012ac6       __execute_onexit_table     10013ac6 f   libucrt:onexit.obj
 0001:00012ae3       __initialize_onexit_table  10013ae3 f   libucrt:onexit.obj
 0001:00012b20       __register_onexit_function 10013b20 f   libucrt:onexit.obj
 0001:00012b70       ___acrt_uninitialize_command_line 10013b70 f   libucrt:argv_data.obj
 0001:00012c38       ___acrt_initialize         10013c38 f   libucrt:initialization.obj
 0001:00012c4a       ___acrt_thread_attach      10013c4a f   libucrt:initialization.obj
 0001:00012c55       ___acrt_thread_detach      10013c55 f   libucrt:initialization.obj
 0001:00012c5d       ___acrt_uninitialize       10013c5d f   libucrt:initialization.obj
 0001:00012c6f       ___acrt_uninitialize_critical 10013c6f f   libucrt:initialization.obj
 0001:00012c81       __initterm                 10013c81 f   libucrt:initterm.obj
 0001:00012cdd       __initterm_e               10013cdd f   libucrt:initterm.obj
 0001:00012d22       ___acrt_initialize_new_handler 10013d22 f   libucrt:new_handler.obj
 0001:00012d36       __callnewh                 10013d36 f   libucrt:new_handler.obj
 0001:00012d7a       __query_new_handler        10013d7a f   libucrt:new_handler.obj
 0001:00012dcc       _terminate                 10013dcc f   libucrt:terminate.obj
 0001:00012e08       _abort                     10013e08 f   libucrt:abort.obj
 0001:00012e4b       _strcpy_s                  10013e4b f   libucrt:strcpy_s.obj
 0001:00012ea5       _wcsncmp                   10013ea5 f   libucrt:wcsncmp.obj
 0001:00012edf       ??$is_overflow_condition@K@__crt_strtox@@YA_NIK@Z 10013edf f i libucrt:atox.obj
 0001:00012f12       ??$parse_integer@KV?$c_string_character_source@_W@__crt_strtox@@@__crt_strtox@@YAKQAU__crt_locale_pointers@@V?$c_string_character_source@_W@0@H_N@Z 10013f12 f i libucrt:atox.obj
 0001:000135f7       ?unget@?$c_string_character_source@_W@__crt_strtox@@QAEX_W@Z 100145f7 f i libucrt:atox.obj
 0001:00013623       __chvalidchk_l             10014623 f i libucrt:atox.obj
 0001:0001364d       __ischartype_l             1001464d f i libucrt:atox.obj
 0001:00013680       _strncmp                   10014680 f   libucrt:strncmp.obj
 0001:000136f8       __free_base                100146f8 f   libucrt:free_base.obj
 0001:00013732       ??$?RV<lambda_3518db117f0e7cdb002338c5d3c47b6c>@@AAV<lambda_b2ea41f6bbb362cd97d94c6828d90b61>@@V<lambda_abdedf541bb04549bc734292b4a045d4>@@@?$__crt_seh_guarded_call@X@@QAEX$$QAV<lambda_3518db117f0e7cdb002338c5d3c47b6c>@@AAV<lambda_b2ea41f6bbb362cd97d94c6828d90b61>@@$$QAV<lambda_abdedf541bb04549bc734292b4a045d4>@@@Z 10014732 f i libucrt:per_thread_data.obj
 0001:00013782       ??$?RV<lambda_51b6e8b1eb166f2a3faf91f424b38130>@@AAV<lambda_6250bd4b2a391816dd638c3bf72b0bcb>@@V<lambda_0b5a4a3e68152e1d9b943535f5f47bed>@@@?$__crt_seh_guarded_call@X@@QAEX$$QAV<lambda_51b6e8b1eb166f2a3faf91f424b38130>@@AAV<lambda_6250bd4b2a391816dd638c3bf72b0bcb>@@$$QAV<lambda_0b5a4a3e68152e1d9b943535f5f47bed>@@@Z 10014782 f i libucrt:per_thread_data.obj
 0001:000137e3       ??$?RV<lambda_5b71d36f03204c0beab531769a5b5694>@@AAV<lambda_be2b3da3f62db62e9dad5dc70221a656>@@V<lambda_8f9ce462984622f9bf76b59e2aaaf805>@@@?$__crt_seh_guarded_call@X@@QAEX$$QAV<lambda_5b71d36f03204c0beab531769a5b5694>@@AAV<lambda_be2b3da3f62db62e9dad5dc70221a656>@@$$QAV<lambda_8f9ce462984622f9bf76b59e2aaaf805>@@@Z 100147e3 f i libucrt:per_thread_data.obj
 0001:0001382e       ??$?RV<lambda_9df27f884b057bc3edfc946cb5b7cf47>@@AAV<lambda_e69574bed617af4e071282c136b37893>@@V<lambda_cc0d902bcbbeb830f749456577db4721>@@@?$__crt_seh_guarded_call@X@@QAEX$$QAV<lambda_9df27f884b057bc3edfc946cb5b7cf47>@@AAV<lambda_e69574bed617af4e071282c136b37893>@@$$QAV<lambda_cc0d902bcbbeb830f749456577db4721>@@@Z 1001482e f i libucrt:per_thread_data.obj
 0001:00013876       ??$__acrt_lock_and_call@V<lambda_6250bd4b2a391816dd638c3bf72b0bcb>@@@@YAXW4__acrt_lock_id@@$$QAV<lambda_6250bd4b2a391816dd638c3bf72b0bcb>@@@Z 10014876 f i libucrt:per_thread_data.obj
 0001:0001389e       ??$__acrt_lock_and_call@V<lambda_b2ea41f6bbb362cd97d94c6828d90b61>@@@@YAXW4__acrt_lock_id@@$$QAV<lambda_b2ea41f6bbb362cd97d94c6828d90b61>@@@Z 1001489e f i libucrt:per_thread_data.obj
 0001:000138c6       ??$__acrt_lock_and_call@V<lambda_be2b3da3f62db62e9dad5dc70221a656>@@@@YAXW4__acrt_lock_id@@$$QAV<lambda_be2b3da3f62db62e9dad5dc70221a656>@@@Z 100148c6 f i libucrt:per_thread_data.obj
 0001:000138ee       ??$__acrt_lock_and_call@V<lambda_e69574bed617af4e071282c136b37893>@@@@YAXW4__acrt_lock_id@@$$QAV<lambda_e69574bed617af4e071282c136b37893>@@@Z 100148ee f i libucrt:per_thread_data.obj
 0001:00013aa4       ___acrt_freeptd            10014aa4 f   libucrt:per_thread_data.obj
 0001:00013ad0       ___acrt_getptd             10014ad0 f   libucrt:per_thread_data.obj
 0001:00013b54       ___acrt_getptd_noexit      10014b54 f   libucrt:per_thread_data.obj
 0001:00013bd9       ___acrt_initialize_ptd     10014bd9 f   libucrt:per_thread_data.obj
 0001:00013c05       ___acrt_uninitialize_ptd   10014c05 f   libucrt:per_thread_data.obj
 0001:00013c1f       __calloc_base              10014c1f f   libucrt:calloc_base.obj
 0001:00013c7c       __malloc_base              10014c7c f   libucrt:malloc_base.obj
 0001:00013cca       __msize                    10014cca f   libucrt:msize.obj
 0001:00013cfd       __realloc_base             10014cfd f   libucrt:realloc_base.obj
 0001:00013e7d       ___acrt_FlsAlloc@4         10014e7d f   libucrt:winapi_thunks.obj
 0001:00013ed3       ___acrt_FlsFree@4          10014ed3 f   libucrt:winapi_thunks.obj
 0001:00013f29       ___acrt_FlsGetValue@4      10014f29 f   libucrt:winapi_thunks.obj
 0001:00013f7f       ___acrt_FlsSetValue@8      10014f7f f   libucrt:winapi_thunks.obj
 0001:00013fd8       ___acrt_InitializeCriticalSectionEx@12 10014fd8 f   libucrt:winapi_thunks.obj
 0001:0001403a       ___acrt_LCMapStringEx@36   1001503a f   libucrt:winapi_thunks.obj
 0001:000140c2       ___acrt_LocaleNameToLCID@8 100150c2 f   libucrt:winapi_thunks.obj
 0001:0001411e       ___acrt_SetThreadStackGuarantee@4 1001511e f   libucrt:winapi_thunks.obj
 0001:00014170       ___acrt_initialize_winapi_thunks 10015170 f   libucrt:winapi_thunks.obj
 0001:00014196       ___acrt_is_packaged_app    10015196 f   libucrt:winapi_thunks.obj
 0001:0001421d       ___acrt_uninitialize_winapi_thunks 1001521d f   libucrt:winapi_thunks.obj
 0001:00014253       __isdigit_l                10015253 f i libucrt:_ctype.obj
 0001:0001428b       _isdigit                   1001528b f i libucrt:_ctype.obj
 0001:0001441f       __tolower_l                1001541f f   libucrt:tolower_toupper.obj
 0001:00014439       _tolower                   10015439 f   libucrt:tolower_toupper.obj
 0001:00014469       ??$make_c_string_character_source@_WPAPA_W@__crt_strtox@@YA?AV?$c_string_character_source@_W@0@QB_WQAPA_W@Z 10015469 f i libucrt:strtox.obj
 0001:00014484       _wcstol                    10015484 f   libucrt:strtox.obj
 0001:000144b0       __mbtowc_l                 100154b0 f   libucrt:mbtowc.obj
 0001:000145aa       _mbtowc                    100155aa f   libucrt:mbtowc.obj
 0001:000145c4       _wcsnlen                   100155c4 f   libucrt:strnlen.obj
 0001:0001477b       ___acrt_update_locale_info 1001577b f   libucrt:locale_update.obj
 0001:000147a8       ___acrt_update_multibyte_info 100157a8 f   libucrt:locale_update.obj
 0001:000147d5       ?__acrt_fp_classify@@YA?AW4__acrt_fp_class@@ABN@Z 100157d5 f i libucrt:cvt.obj
 0001:00014841       ?__acrt_fp_is_negative@@YA_NABN@Z 10015841 f i libucrt:cvt.obj
 0001:000150a0       ___acrt_fp_format          100160a0 f   libucrt:cvt.obj
 0001:000151ea       __fileno                   100161ea f   libucrt:fileno.obj
 0001:00015210       ___acrt_initialize_stdio   10016210 f   libucrt:_file.obj
 0001:000152d8       ___acrt_uninitialize_stdio 100162d8 f   libucrt:_file.obj
 0001:00015324       __lock_file                10016324 f   libucrt:_file.obj
 0001:00015338       __unlock_file              10016338 f   libucrt:_file.obj
 0001:0001534c       __get_printf_count_output  1001634c f   libucrt:printf_count_output.obj
 0001:00015361       ___acrt_set_locale_changed 10016361 f   libucrt:wsetlocale.obj
 0001:0001536c       ___acrt_uninitialize_locale 1001636c f   libucrt:wsetlocale.obj
 0001:0001552a       ___acrt_initialize_lowio   1001652a f   libucrt:ioinit.obj
 0001:00015580       ___acrt_uninitialize_lowio 10016580 f   libucrt:ioinit.obj
 0001:000155ac       ___acrt_initialize_locks   100165ac f   libucrt:locks.obj
 0001:000155ed       ___acrt_lock               100165ed f   libucrt:locks.obj
 0001:00015604       ___acrt_uninitialize_locks 10016604 f   libucrt:locks.obj
 0001:00015635       ___acrt_unlock             10016635 f   libucrt:locks.obj
 0001:00015a0e       ??1?$argument_list@D@?A0xb0e4b824@@QAE@XZ 10016a0e f i libucrt:argv_wildcards.obj
 0001:00015a33       ?append@?$argument_list@D@?A0xb0e4b824@@QAEHQAD@Z 10016a33 f i libucrt:argv_wildcards.obj
 0001:00015a68       ?expand_if_necessary@?$argument_list@D@?A0xb0e4b824@@AAEHXZ 10016a68 f i libucrt:argv_wildcards.obj
 0001:00015aef       ___acrt_expand_narrow_argv_wildcards 10016aef f   libucrt:argv_wildcards.obj
 0001:00015afa       ??$?RV<lambda_978dc153c237d78434369da87b74ff60>@@AAV<lambda_ad1ced32f4ac17aa236e5ef05d6b3b7c>@@V<lambda_4a8533e2866a575feecb8298ce776b0d>@@@?$__crt_seh_guarded_call@X@@QAEX$$QAV<lambda_978dc153c237d78434369da87b74ff60>@@AAV<lambda_ad1ced32f4ac17aa236e5ef05d6b3b7c>@@$$QAV<lambda_4a8533e2866a575feecb8298ce776b0d>@@@Z 10016afa f i libucrt:mbctype.obj
 0001:00015b3d       ??$__acrt_lock_and_call@V<lambda_ad1ced32f4ac17aa236e5ef05d6b3b7c>@@@@YAXW4__acrt_lock_id@@$$QAV<lambda_ad1ced32f4ac17aa236e5ef05d6b3b7c>@@@Z 10016b3d f i libucrt:mbctype.obj
 0001:00015fd4       ___acrt_initialize_multibyte 10016fd4 f   libucrt:mbctype.obj
 0001:00015ff2       ___acrt_update_thread_multibyte_data 10016ff2 f   libucrt:mbctype.obj
 0001:00016094       __setmbcp_nolock           10017094 f   libucrt:mbctype.obj
 0001:0001635f       __ismbblead                1001735f f   libucrt:ismbbyte.obj
 0001:00016377       ___acrt_initialize_command_line 10017377 f   libucrt:argv_data.obj
 0001:000163c7       ___dcrt_get_narrow_environment_from_os 100173c7 f   libucrt:get_environment_from_os.obj
 0001:0001644a       ___acrt_initialize_heap    1001744a f   libucrt:heap_handle.obj
 0001:0001645b       ___acrt_uninitialize_heap  1001745b f   libucrt:heap_handle.obj
 0001:00016465       ___acrt_execute_initializers 10017465 f   libucrt:shared_initialization.obj
 0001:000164e8       ___acrt_execute_uninitializers 100174e8 f   libucrt:shared_initialization.obj
 0001:00016535       ??$?RV<lambda_a048d3beccc847880fc8490e18b82769>@@AAV<lambda_ec61778202f4f5fc7e7711acc23c3bca>@@V<lambda_f7496a158712204296dd6628a163878e>@@@?$__crt_seh_guarded_call@P6AXH@Z@@QAEP6AXH@Z$$QAV<lambda_a048d3beccc847880fc8490e18b82769>@@AAV<lambda_ec61778202f4f5fc7e7711acc23c3bca>@@$$QAV<lambda_f7496a158712204296dd6628a163878e>@@@Z 10017535 f i libucrt:signal.obj
 0001:0001658f       ??$__acrt_lock_and_call@V<lambda_ec61778202f4f5fc7e7711acc23c3bca>@@@@YAP6AXH@ZW4__acrt_lock_id@@$$QAV<lambda_ec61778202f4f5fc7e7711acc23c3bca>@@@Z 1001758f f i libucrt:signal.obj
 0001:00016621       ___acrt_get_sigabrt_handler 10017621 f   libucrt:signal.obj
 0001:00016638       ___acrt_initialize_signal_handlers 10017638 f   libucrt:signal.obj
 0001:00016673       ___fpecode                 10017673 f   libucrt:signal.obj
 0001:0001667c       _raise                     1001767c f   libucrt:signal.obj
 0001:00016884       ___acrt_has_user_matherr   10017884 f   libucrt:matherr.obj
 0001:0001689d       ___acrt_initialize_user_matherr 1001789d f   libucrt:matherr.obj
 0001:000168b1       ___acrt_invoke_user_matherr 100178b1 f   libucrt:matherr.obj
 0001:000168fa       ___pctype_func             100178fa f   libucrt:ctype.obj
 0001:00016920       _iswctype                  10017920 f   libucrt:iswctype.obj
 0001:0001697f       __isctype_l                1001797f f   libucrt:isctype.obj
 0001:00016a51       ___acrt_add_locale_ref     10017a51 f   libucrt:locale_refcounting.obj
 0001:00016ace       ___acrt_free_locale        10017ace f   libucrt:locale_refcounting.obj
 0001:00016c18       ___acrt_locale_add_lc_time_reference 10017c18 f   libucrt:locale_refcounting.obj
 0001:00016c41       ___acrt_locale_free_lc_time_if_unreferenced 10017c41 f   libucrt:locale_refcounting.obj
 0001:00016c71       ___acrt_locale_release_lc_time_reference 10017c71 f   libucrt:locale_refcounting.obj
 0001:00016c9a       ___acrt_release_locale_ref 10017c9a f   libucrt:locale_refcounting.obj
 0001:00016d1b       ___acrt_update_thread_locale_data 10017d1b f   libucrt:locale_refcounting.obj
 0001:00016d92       __updatetlocinfoEx_nolock  10017d92 f   libucrt:locale_refcounting.obj
 0001:00016de2       __query_new_mode           10017de2 f   libucrt:new_mode.obj
 0001:00016ea4       ___acrt_DownlevelLocaleNameToLCID 10017ea4 f   libucrt:lcidtoname_downlevel.obj
 0001:00016ed0       __isleadbyte_l             10017ed0 f i libucrt:_wctype.obj
 0001:00017126       ___acrt_LCMapStringA       10018126 f   libucrt:lcmapstringa.obj
 0001:00017171       __freea_crt                10018171 f i libucrt:lcmapstringa.obj
 0001:00017191       ___acrt_fp_strflt_to_string 10018191 f   libucrt:_fptostr.obj
 0001:0001724d       ??0scoped_fp_state_reset@?A0x48fbfdd4@@QAE@XZ 1001824d f i libucrt:cfout.obj
 0001:00017280       ?divide@__crt_strtox@@YA_KAAUbig_integer@1@ABU21@@Z 10018280 f i libucrt:cfout.obj
 0001:0001772e       ___acrt_fltout             1001872e f   libucrt:cfout.obj
 0001:00018aca       __fcloseall                10019aca f   libucrt:closeall.obj
 0001:00018b6a       ___acrt_stdio_flush_nolock 10019b6a f   libucrt:fflush.obj
 0001:00018bd0       __fflush_nolock            10019bd0 f   libucrt:fflush.obj
 0001:00018c17       __flushall                 10019c17 f   libucrt:fflush.obj
 0001:00018cf8       ___acrt_stdio_free_buffer_nolock 10019cf8 f   libucrt:_freebuf.obj
 0001:00018d36       __isatty                   10019d36 f   libucrt:isatty.obj
 0001:00018d8c       ___acrt_locale_free_monetary 10019d8c f   libucrt:initmon.obj
 0001:00018e8a       ___acrt_locale_free_numeric 10019e8a f   libucrt:initnum.obj
 0001:00018f2f       ___acrt_locale_free_time   10019f2f f   libucrt:inittime.obj
 0001:00019013       ___acrt_GetStringTypeA     1001a013 f   libucrt:getstringtypea.obj
 0001:00019130       ___acrt_lowio_create_handle_array 1001a130 f   libucrt:osfinfo.obj
 0001:000191aa       ___acrt_lowio_destroy_handle_array 1001a1aa f   libucrt:osfinfo.obj
 0001:000191df       ___acrt_lowio_ensure_fh_exists 1001a1df f   libucrt:osfinfo.obj
 0001:00019277       ___acrt_lowio_lock_fh      1001a277 f   libucrt:osfinfo.obj
 0001:0001929a       ___acrt_lowio_unlock_fh    1001a29a f   libucrt:osfinfo.obj
 0001:000192bd       __free_osfhnd              1001a2bd f   libucrt:osfinfo.obj
 0001:0001934e       __get_osfhandle            1001a34e f   libucrt:osfinfo.obj
 0001:000194a0       _qsort                     1001a4a0 f   libucrt:qsort.obj
 0001:000198eb       _strncpy_s                 1001a8eb f   libucrt:strncpy_s.obj
 0001:00019900       _strpbrk                   1001a900 f   libucrt:strpbrk.obj
 0001:00019940       __mbsdec                   1001a940 f   libucrt:mbsdec.obj
 0001:00019957       __mbsdec_l                 1001a957 f   libucrt:mbsdec.obj
 0001:000199f3       ___strncnt                 1001a9f3 f   libucrt:strncnt.obj
 0001:00019a0f       _fegetenv                  1001aa0f f   libucrt:fegetenv.obj
 0001:00019a2c       _fesetenv                  1001aa2c f   libucrt:fesetenv.obj
 0001:00019a75       _feholdexcept              1001aa75 f   libucrt:feholdexcept.obj
 0001:00019ad0       _log10                     1001aad0 f   libucrt:log10.obj
 0001:00019b10       __CIlog10                  1001ab10 f   libucrt:log10.obj
 0001:00019b4b       __CIlog10_default          1001ab4b f   libucrt:log10.obj
 0001:00019b5f       __log10_default            1001ab5f     libucrt:log10.obj
 0001:00019c20       _ceil                      1001ac20 f   libucrt:ceil_pentium4.obj
 0001:00019c60       __ceil_pentium4            1001ac60 f   libucrt:ceil_pentium4.obj
 0001:0001a2cd       __write                    1001b2cd f   libucrt:write.obj
 0001:0001a3b8       __write_nolock             1001b3b8 f   libucrt:write.obj
 0001:0001a642       __lseeki64_nolock          1001b642 f   libucrt:lseek.obj
 0001:0001a65d       __fclose_nolock            1001b65d f   libucrt:fclose.obj
 0001:0001a6d3       _fclose                    1001b6d3 f   libucrt:fclose.obj
 0001:0001a753       ??$?RV<lambda_61cee617f5178ae960314fd4d05640a0>@@AAV<lambda_6978c1fb23f02e42e1d9e99668cc68aa>@@V<lambda_9cd88cf8ad10232537feb2133f08c833>@@@?$__crt_seh_guarded_call@H@@QAEH$$QAV<lambda_61cee617f5178ae960314fd4d05640a0>@@AAV<lambda_6978c1fb23f02e42e1d9e99668cc68aa>@@$$QAV<lambda_9cd88cf8ad10232537feb2133f08c833>@@@Z 1001b753 f i libucrt:commit.obj
 0001:0001a7eb       ??$__acrt_lowio_lock_fh_and_call@V<lambda_6978c1fb23f02e42e1d9e99668cc68aa>@@@@YAHH$$QAV<lambda_6978c1fb23f02e42e1d9e99668cc68aa>@@@Z 1001b7eb f i libucrt:commit.obj
 0001:0001a813       __commit                   1001b813 f   libucrt:commit.obj
 0001:0001a882       __query_app_type           1001b882 f   libucrt:report_runtime_error.obj
 0001:0001ab2b       __getfpcontrolword         1001bb2b f   libucrt:_fenvutils.obj
 0001:0001ab6e       __getfpstatusword          1001bb6e f   libucrt:_fenvutils.obj
 0001:0001ac16       __setfpcontrolword         1001bc16 f   libucrt:_fenvutils.obj
 0001:0001ac96       __setfpstatusword          1001bc96 f   libucrt:_fenvutils.obj
 0001:0001ad16       __clearfp                  1001bd16 f   libucrt:ieee87.obj
 0001:0001adf4       ___acrt_initialize_sse2    1001bdf4 f   libucrt:mathfcns.obj
 0001:0001ae10       __CIlog10_pentium4         1001be10 f   libucrt:log10_pentium4.obj
 0001:0001ae28       __log10_pentium4           1001be28     libucrt:log10_pentium4.obj
 0001:0001b0b1       __fFEXP                    1001c0b1     libucrt:87tran.obj
 0001:0001b108       __rtinfpopse               1001c108     libucrt:87tran.obj
 0001:0001b10a       __rtinfnpopse              1001c10a     libucrt:87tran.obj
 0001:0001b11a       __fFLN                     1001c11a     libucrt:87tran.obj
 0001:0001b1cf       __rtinfpop                 1001c1cf     libucrt:87tran.obj
 0001:0001b1d1       __rtinfnpop                1001c1d1     libucrt:87tran.obj
 0001:0001b1ee       __ffexpm1                  1001c1ee     libucrt:87tran.obj
 0001:0001b2a0       __trandisp1                1001c2a0 f   libucrt:87disp.obj
 0001:0001b307       __trandisp2                1001c307 f   libucrt:87disp.obj
 0001:0001b393       __rttospopde               1001c393     libucrt:87disp.obj
 0001:0001b398       __rttospop                 1001c398     libucrt:87disp.obj
 0001:0001b39a       __rtnospop                 1001c39a     libucrt:87disp.obj
 0001:0001b39c       __rttosnpop                1001c39c     libucrt:87disp.obj
 0001:0001b39d       __rtnospopde               1001c39d     libucrt:87disp.obj
 0001:0001b3a4       __rtzeropop                1001c3a4     libucrt:87disp.obj
 0001:0001b3a6       __rtzeronpop               1001c3a6     libucrt:87disp.obj
 0001:0001b3ab       __rtzerospop               1001c3ab     libucrt:87disp.obj
 0001:0001b3b8       __rtonepop                 1001c3b8     libucrt:87disp.obj
 0001:0001b3ba       __rtonenpop                1001c3ba     libucrt:87disp.obj
 0001:0001b3bf       __tosnan1                  1001c3bf     libucrt:87disp.obj
 0001:0001b3ea       __nosnan2                  1001c3ea     libucrt:87disp.obj
 0001:0001b3ec       __tosnan2                  1001c3ec     libucrt:87disp.obj
 0001:0001b414       __nan2                     1001c414     libucrt:87disp.obj
 0001:0001b453       __rtindfpop                1001c453     libucrt:87disp.obj
 0001:0001b455       __rtindfnpop               1001c455     libucrt:87disp.obj
 0001:0001b466       __rttosnpopde              1001c466     libucrt:87disp.obj
 0001:0001b470       __rtatan2inf               1001c470     libucrt:87disp.obj
 0001:0001b48d       __rtchsifneg               1001c48d     libucrt:87disp.obj
 0001:0001b4a0       __twoToTOS                 1001c4a0 f   libucrt:common.obj
 0001:0001b4b5       __load_CW                  1001c4b5 f   libucrt:common.obj
 0001:0001b4cc       __convertTOStoQNaN         1001c4cc f   libucrt:common.obj
 0001:0001b4e5       __fload_withFB             1001c4e5 f   libucrt:common.obj
 0001:0001b528       __checkTOS_withFB          1001c528 f   libucrt:common.obj
 0001:0001b53e       __fast_exit                1001c53e f   libucrt:common.obj
 0001:0001b54b       __math_exit                1001c54b f   libucrt:common.obj
 0001:0001b575       __check_overflow_exit      1001c575 f   libucrt:common.obj
 0001:0001b589       __check_range_exit         1001c589 f   libucrt:common.obj
 0001:0001b630       __startTwoArgErrorHandling 1001c630 f   libucrt:genexcep.obj
 0001:0001b647       __startOneArgErrorHandling 1001c647 f   libucrt:genexcep.obj
 0001:0001b683       ___libm_error_support      1001c683 f   libucrt:libm_error.obj
 0001:0001b89b       __ceil_default             1001c89b f   libucrt:ceil.obj
 0001:0001b954       __putwch_nolock            1001c954 f   libucrt:putwch.obj
 0001:0001b999       ??$?RV<lambda_123407a5e2ac06da108355a851863b7a>@@AAV<lambda_2fe9b910cf3cbf4a0ab98a02ba45b3ec>@@V<lambda_ae55bdf541ad94d75914d381c370e64d>@@@?$__crt_seh_guarded_call@H@@QAEH$$QAV<lambda_123407a5e2ac06da108355a851863b7a>@@AAV<lambda_2fe9b910cf3cbf4a0ab98a02ba45b3ec>@@$$QAV<lambda_ae55bdf541ad94d75914d381c370e64d>@@@Z 1001c999 f i libucrt:close.obj
 0001:0001ba1b       ??$__acrt_lowio_lock_fh_and_call@V<lambda_2fe9b910cf3cbf4a0ab98a02ba45b3ec>@@@@YAHH$$QAV<lambda_2fe9b910cf3cbf4a0ab98a02ba45b3ec>@@@Z 1001ca1b f i libucrt:close.obj
 0001:0001ba43       __close                    1001ca43 f   libucrt:close.obj
 0001:0001bac2       __close_nolock             1001cac2 f   libucrt:close.obj
 0001:0001bb5e       ?__acrt_stdio_free_stream@@YAXV__crt_stdio_stream@@@Z 1001cb5e f   libucrt:stream.obj
 0001:0001bba0       ___ascii_strnicmp          1001cba0 f   libucrt:_strnicm.obj
 0001:0001bc01       __clrfp                    1001cc01 f   libucrt:fpctrl.obj
 0001:0001bc14       __ctrlfp                   1001cc14 f   libucrt:fpctrl.obj
 0001:0001bc40       __set_statfp               1001cc40 f   libucrt:fpctrl.obj
 0001:0001bc9b       __statfp                   1001cc9b f   libucrt:fpctrl.obj
 0001:0001bcad       __d_inttype                1001ccad f   libucrt:powhlp.obj
 0001:0001bd17       __powhlp                   1001cd17 f   libucrt:powhlp.obj
 0001:0001be42       __87except                 1001ce42 f   libucrt:87except.obj
 0001:0001bf4d       __frnd                     1001cf4d f   libucrt:frnd.obj
 0001:0001bf63       __errcode                  1001cf63 f   libucrt:fpexcept.obj
 0001:0001bf97       __except1                  1001cf97 f   libucrt:fpexcept.obj
 0001:0001c065       __handle_exc               1001d065 f   libucrt:fpexcept.obj
 0001:0001c245       __raise_exc                1001d245 f   libucrt:fpexcept.obj
 0001:0001c268       __raise_exc_ex             1001d268 f   libucrt:fpexcept.obj
 0001:0001c559       __set_errno_from_matherr   1001d559 f   libucrt:fpexcept.obj
 0001:0001c588       __umatherr                 1001d588 f   libucrt:fpexcept.obj
 0001:0001c62a       __decomp                   1001d62a f   libucrt:util.obj
 0001:0001c6fe       __set_exp                  1001d6fe f   libucrt:util.obj
 0001:0001c72d       __sptype                   1001d72d f   libucrt:util.obj
 0001:0001c78b       ___dcrt_lowio_initialize_console_output 1001d78b f   libucrt:initcon.obj
 0001:0001c7aa       ___dcrt_terminate_console_output 1001d7aa f   libucrt:initcon.obj
 0001:0001c7c1       __fpclass                  1001d7c1 f   libucrt:ieeemisc.obj
 0001:0001c865       _IsProcessorFeaturePresent@4 1001d865 f   kernel32:KERNEL32.dll
 0001:0001c870       __FindPESection            1001d870 f   LIBCMT:pesect.obj
 0001:0001c8c0       __IsNonwritableInCurrentImage 1001d8c0 f   LIBCMT:pesect.obj
 0001:0001c980       __ValidateImageBase        1001d980 f   LIBCMT:pesect.obj
 0001:0001c9b3       __EH_prolog3_catch         1001d9b3 f   LIBCMT:ehprolg3.obj
 0001:0001c9f0       __aulldvrm                 1001d9f0 f   LIBCMT:ulldvrm.obj
 0001:0001ca90       __allmul                   1001da90 f   LIBCMT:llmul.obj
 0001:0001cad0       __alldvrm                  1001dad0 f   LIBCMT:lldvrm.obj
 0001:0001cbb0       __aullshr                  1001dbb0 f   LIBCMT:ullshr.obj
 0001:0001cbd0       __allshl                   1001dbd0 f   LIBCMT:llshl.obj
 0001:0001cbf0       __ftol2_sse                1001dbf0 f   LIBCMT:ftol2.obj
 0001:0001cbf9       __ftol2_pentium4           1001dbf9 f   LIBCMT:ftol2.obj
 0001:0001cc0c       __ftol2_sse_excpt          1001dc0c f   LIBCMT:ftol2.obj
 0001:0001cc30       __ftol2                    1001dc30 f   LIBCMT:ftol2.obj
 0001:0001ccb0       _strrchr                   1001dcb0 f   libvcruntime:strrchr.obj
 0001:0001cdf0       _strchr                    1001ddf0 f   libvcruntime:strchr.obj
 0001:0001ce5e       ___from_strstr_to_strchr   1001de5e     libvcruntime:strchr.obj
 0002:00000000       __imp__RegQueryValueExW@24 1001e000     advapi32:ADVAPI32.dll
 0002:00000004       __imp__RegSetValueExW@24   1001e004     advapi32:ADVAPI32.dll
 0002:00000008       __imp__RegQueryInfoKeyW@48 1001e008     advapi32:ADVAPI32.dll
 0002:0000000c       __imp__RegOpenKeyExW@20    1001e00c     advapi32:ADVAPI32.dll
 0002:00000010       __imp__RegEnumKeyExW@32    1001e010     advapi32:ADVAPI32.dll
 0002:00000014       __imp__RegDeleteValueW@8   1001e014     advapi32:ADVAPI32.dll
 0002:00000018       __imp__RegDeleteKeyW@8     1001e018     advapi32:ADVAPI32.dll
 0002:0000001c       __imp__RegCreateKeyExW@36  1001e01c     advapi32:ADVAPI32.dll
 0002:00000020       __imp__RegCloseKey@4       1001e020     advapi32:ADVAPI32.dll
 0002:00000024       \177ADVAPI32_NULL_THUNK_DATA 1001e024     advapi32:ADVAPI32.dll
 0002:00000028       __imp__GetObjectW@12       1001e028     gdi32:GDI32.dll
 0002:0000002c       __imp__SelectObject@8      1001e02c     gdi32:GDI32.dll
 0002:00000030       __imp__DeleteObject@4      1001e030     gdi32:GDI32.dll
 0002:00000034       __imp__CreateCompatibleDC@4 1001e034     gdi32:GDI32.dll
 0002:00000038       __imp__BitBlt@36           1001e038     gdi32:GDI32.dll
 0002:0000003c       __imp__SetWindowOrgEx@16   1001e03c     gdi32:GDI32.dll
 0002:00000040       __imp__SetWindowExtEx@16   1001e040     gdi32:GDI32.dll
 0002:00000044       __imp__SetViewportOrgEx@16 1001e044     gdi32:GDI32.dll
 0002:00000048       __imp__LPtoDP@12           1001e048     gdi32:GDI32.dll
 0002:0000004c       __imp__SetMapMode@8        1001e04c     gdi32:GDI32.dll
 0002:00000050       __imp__SaveDC@4            1001e050     gdi32:GDI32.dll
 0002:00000054       __imp__RestoreDC@8         1001e054     gdi32:GDI32.dll
 0002:00000058       __imp__GetDeviceCaps@8     1001e058     gdi32:GDI32.dll
 0002:0000005c       __imp__DeleteMetaFile@4    1001e05c     gdi32:GDI32.dll
 0002:00000060       __imp__DeleteDC@4          1001e060     gdi32:GDI32.dll
 0002:00000064       __imp__CreateRectRgnIndirect@4 1001e064     gdi32:GDI32.dll
 0002:00000068       __imp__CreateMetaFileW@4   1001e068     gdi32:GDI32.dll
 0002:0000006c       __imp__CreateDCW@16        1001e06c     gdi32:GDI32.dll
 0002:00000070       __imp__CloseMetaFile@4     1001e070     gdi32:GDI32.dll
 0002:00000074       \177GDI32_NULL_THUNK_DATA  1001e074     gdi32:GDI32.dll
 0002:00000078       __imp__CloseHandle@4       1001e078     kernel32:KERNEL32.dll
 0002:0000007c       __imp__SetEvent@4          1001e07c     kernel32:KERNEL32.dll
 0002:00000080       __imp__CreateMutexW@12     1001e080     kernel32:KERNEL32.dll
 0002:00000084       __imp__CreateEventW@16     1001e084     kernel32:KERNEL32.dll
 0002:00000088       __imp__GetCurrentProcessId@0 1001e088     kernel32:KERNEL32.dll
 0002:0000008c       __imp__WriteConsoleW@20    1001e08c     kernel32:KERNEL32.dll
 0002:00000090       __imp__FlushFileBuffers@4  1001e090     kernel32:KERNEL32.dll
 0002:00000094       __imp__SetFilePointerEx@20 1001e094     kernel32:KERNEL32.dll
 0002:00000098       __imp__GetConsoleMode@8    1001e098     kernel32:KERNEL32.dll
 0002:0000009c       __imp__GetConsoleCP@0      1001e09c     kernel32:KERNEL32.dll
 0002:000000a0       __imp__WriteFile@20        1001e0a0     kernel32:KERNEL32.dll
 0002:000000a4       __imp__SetStdHandle@8      1001e0a4     kernel32:KERNEL32.dll
 0002:000000a8       __imp__GetStringTypeW@16   1001e0a8     kernel32:KERNEL32.dll
 0002:000000ac       __imp__FreeEnvironmentStringsW@4 1001e0ac     kernel32:KERNEL32.dll
 0002:000000b0       __imp__GetEnvironmentStringsW@0 1001e0b0     kernel32:KERNEL32.dll
 0002:000000b4       __imp__FindResourceW@12    1001e0b4     kernel32:KERNEL32.dll
 0002:000000b8       __imp__GetCommandLineA@0   1001e0b8     kernel32:KERNEL32.dll
 0002:000000bc       __imp__GetCPInfo@8         1001e0bc     kernel32:KERNEL32.dll
 0002:000000c0       __imp__GetOEMCP@0          1001e0c0     kernel32:KERNEL32.dll
 0002:000000c4       __imp__IsValidCodePage@4   1001e0c4     kernel32:KERNEL32.dll
 0002:000000c8       __imp__FindNextFileA@8     1001e0c8     kernel32:KERNEL32.dll
 0002:000000cc       __imp__FindFirstFileExA@24 1001e0cc     kernel32:KERNEL32.dll
 0002:000000d0       __imp__FindClose@4         1001e0d0     kernel32:KERNEL32.dll
 0002:000000d4       __imp__GetFileType@4       1001e0d4     kernel32:KERNEL32.dll
 0002:000000d8       __imp__GetStdHandle@4      1001e0d8     kernel32:KERNEL32.dll
 0002:000000dc       __imp__GetACP@0            1001e0dc     kernel32:KERNEL32.dll
 0002:000000e0       __imp__LCMapStringW@24     1001e0e0     kernel32:KERNEL32.dll
 0002:000000e4       __imp__HeapReAlloc@16      1001e0e4     kernel32:KERNEL32.dll
 0002:000000e8       __imp__lstrcmpiW@8         1001e0e8     kernel32:KERNEL32.dll
 0002:000000ec       __imp__MulDiv@12           1001e0ec     kernel32:KERNEL32.dll
 0002:000000f0       __imp__GlobalUnlock@4      1001e0f0     kernel32:KERNEL32.dll
 0002:000000f4       __imp__GlobalLock@4        1001e0f4     kernel32:KERNEL32.dll
 0002:000000f8       __imp__GlobalAlloc@8       1001e0f8     kernel32:KERNEL32.dll
 0002:000000fc       __imp__SizeofResource@8    1001e0fc     kernel32:KERNEL32.dll
 0002:00000100       __imp__LoadResource@8      1001e100     kernel32:KERNEL32.dll
 0002:00000104       __imp__LoadLibraryExW@12   1001e104     kernel32:KERNEL32.dll
 0002:00000108       __imp__GetProcAddress@8    1001e108     kernel32:KERNEL32.dll
 0002:0000010c       __imp__GetModuleHandleW@4  1001e10c     kernel32:KERNEL32.dll
 0002:00000110       __imp__GetModuleFileNameW@12 1001e110     kernel32:KERNEL32.dll
 0002:00000114       __imp__FreeLibrary@4       1001e114     kernel32:KERNEL32.dll
 0002:00000118       __imp__DisableThreadLibraryCalls@4 1001e118     kernel32:KERNEL32.dll
 0002:0000011c       __imp__GetCurrentThreadId@0 1001e11c     kernel32:KERNEL32.dll
 0002:00000120       __imp__Sleep@4             1001e120     kernel32:KERNEL32.dll
 0002:00000124       __imp__WaitForSingleObject@8 1001e124     kernel32:KERNEL32.dll
 0002:00000128       __imp__ReleaseMutex@4      1001e128     kernel32:KERNEL32.dll
 0002:0000012c       __imp__ResetEvent@4        1001e12c     kernel32:KERNEL32.dll
 0002:00000130       __imp__EnterCriticalSection@4 1001e130     kernel32:KERNEL32.dll
 0002:00000134       __imp__LeaveCriticalSection@4 1001e134     kernel32:KERNEL32.dll
 0002:00000138       __imp__SetLastError@4      1001e138     kernel32:KERNEL32.dll
 0002:0000013c       __imp__EncodePointer@4     1001e13c     kernel32:KERNEL32.dll
 0002:00000140       __imp__DeleteCriticalSection@4 1001e140     kernel32:KERNEL32.dll
 0002:00000144       __imp__InitializeCriticalSectionEx@12 1001e144     kernel32:KERNEL32.dll
 0002:00000148       __imp__GetLastError@0      1001e148     kernel32:KERNEL32.dll
 0002:0000014c       __imp__RaiseException@16   1001e14c     kernel32:KERNEL32.dll
 0002:00000150       __imp__DecodePointer@4     1001e150     kernel32:KERNEL32.dll
 0002:00000154       __imp__WideCharToMultiByte@32 1001e154     kernel32:KERNEL32.dll
 0002:00000158       __imp__GetCommandLineW@0   1001e158     kernel32:KERNEL32.dll
 0002:0000015c       __imp__MultiByteToWideChar@24 1001e15c     kernel32:KERNEL32.dll
 0002:00000160       __imp__HeapSize@12         1001e160     kernel32:KERNEL32.dll
 0002:00000164       __imp__CreateFileW@28      1001e164     kernel32:KERNEL32.dll
 0002:00000168       __imp__GetModuleFileNameA@12 1001e168     kernel32:KERNEL32.dll
 0002:0000016c       __imp__GetModuleHandleExW@12 1001e16c     kernel32:KERNEL32.dll
 0002:00000170       __imp__ExitProcess@4       1001e170     kernel32:KERNEL32.dll
 0002:00000174       __imp__VirtualQuery@12     1001e174     kernel32:KERNEL32.dll
 0002:00000178       __imp__VirtualProtect@16   1001e178     kernel32:KERNEL32.dll
 0002:0000017c       __imp__GetSystemInfo@4     1001e17c     kernel32:KERNEL32.dll
 0002:00000180       __imp__TlsFree@4           1001e180     kernel32:KERNEL32.dll
 0002:00000184       __imp__TlsSetValue@8       1001e184     kernel32:KERNEL32.dll
 0002:00000188       __imp__TlsGetValue@4       1001e188     kernel32:KERNEL32.dll
 0002:0000018c       __imp__TlsAlloc@0          1001e18c     kernel32:KERNEL32.dll
 0002:00000190       __imp__InterlockedFlushSList@4 1001e190     kernel32:KERNEL32.dll
 0002:00000194       __imp__RtlUnwind@16        1001e194     kernel32:KERNEL32.dll
 0002:00000198       __imp__LoadLibraryExA@12   1001e198     kernel32:KERNEL32.dll
 0002:0000019c       __imp__VirtualFree@12      1001e19c     kernel32:KERNEL32.dll
 0002:000001a0       __imp__VirtualAlloc@16     1001e1a0     kernel32:KERNEL32.dll
 0002:000001a4       __imp__FlushInstructionCache@12 1001e1a4     kernel32:KERNEL32.dll
 0002:000001a8       __imp__InterlockedPushEntrySList@8 1001e1a8     kernel32:KERNEL32.dll
 0002:000001ac       __imp__InterlockedPopEntrySList@4 1001e1ac     kernel32:KERNEL32.dll
 0002:000001b0       __imp__GetProcessHeap@0    1001e1b0     kernel32:KERNEL32.dll
 0002:000001b4       __imp__HeapFree@12         1001e1b4     kernel32:KERNEL32.dll
 0002:000001b8       __imp__HeapAlloc@12        1001e1b8     kernel32:KERNEL32.dll
 0002:000001bc       __imp__OutputDebugStringW@4 1001e1bc     kernel32:KERNEL32.dll
 0002:000001c0       __imp__InitializeSListHead@4 1001e1c0     kernel32:KERNEL32.dll
 0002:000001c4       __imp__GetSystemTimeAsFileTime@4 1001e1c4     kernel32:KERNEL32.dll
 0002:000001c8       __imp__QueryPerformanceCounter@4 1001e1c8     kernel32:KERNEL32.dll
 0002:000001cc       __imp__GetStartupInfoW@4   1001e1cc     kernel32:KERNEL32.dll
 0002:000001d0       __imp__IsDebuggerPresent@0 1001e1d0     kernel32:KERNEL32.dll
 0002:000001d4       __imp__IsProcessorFeaturePresent@4 1001e1d4     kernel32:KERNEL32.dll
 0002:000001d8       __imp__TerminateProcess@8  1001e1d8     kernel32:KERNEL32.dll
 0002:000001dc       __imp__InitializeCriticalSectionAndSpinCount@8 1001e1dc     kernel32:KERNEL32.dll
 0002:000001e0       __imp__WaitForSingleObjectEx@12 1001e1e0     kernel32:KERNEL32.dll
 0002:000001e4       __imp__UnhandledExceptionFilter@4 1001e1e4     kernel32:KERNEL32.dll
 0002:000001e8       __imp__SetUnhandledExceptionFilter@4 1001e1e8     kernel32:KERNEL32.dll
 0002:000001ec       __imp__GetCurrentProcess@0 1001e1ec     kernel32:KERNEL32.dll
 0002:000001f0       \177KERNEL32_NULL_THUNK_DATA 1001e1f0     kernel32:KERNEL32.dll
 0002:000001f4       __imp__OleCreatePropertyFrame@44 1001e1f4     oleaut32:OLEAUT32.dll
 0002:000001f8       __imp__UnRegisterTypeLib@20 1001e1f8     oleaut32:OLEAUT32.dll
 0002:000001fc       __imp__RegisterTypeLib@12  1001e1fc     oleaut32:OLEAUT32.dll
 0002:00000200       __imp__LoadRegTypeLib@20   1001e200     oleaut32:OLEAUT32.dll
 0002:00000204       __imp__LoadTypeLib@8       1001e204     oleaut32:OLEAUT32.dll
 0002:00000208       __imp__VarUI4FromStr@16    1001e208     oleaut32:OLEAUT32.dll
 0002:0000020c       __imp__VariantInit@4       1001e20c     oleaut32:OLEAUT32.dll
 0002:00000210       __imp__SysAllocStringByteLen@8 1001e210     oleaut32:OLEAUT32.dll
 0002:00000214       __imp__SysStringByteLen@4  1001e214     oleaut32:OLEAUT32.dll
 0002:00000218       __imp__VariantChangeType@16 1001e218     oleaut32:OLEAUT32.dll
 0002:0000021c       __imp__VariantClear@4      1001e21c     oleaut32:OLEAUT32.dll
 0002:00000220       __imp__SysStringLen@4      1001e220     oleaut32:OLEAUT32.dll
 0002:00000224       __imp__SysFreeString@4     1001e224     oleaut32:OLEAUT32.dll
 0002:00000228       __imp__SysAllocStringLen@8 1001e228     oleaut32:OLEAUT32.dll
 0002:0000022c       __imp__SysAllocString@4    1001e22c     oleaut32:OLEAUT32.dll
 0002:00000230       \177OLEAUT32_NULL_THUNK_DATA 1001e230     oleaut32:OLEAUT32.dll
 0002:00000234       __imp__UnregisterClassW@8  1001e234     user32:USER32.dll
 0002:00000238       __imp__PostMessageW@16     1001e238     user32:USER32.dll
 0002:0000023c       __imp__DefWindowProcW@16   1001e23c     user32:USER32.dll
 0002:00000240       __imp__CallWindowProcW@20  1001e240     user32:USER32.dll
 0002:00000244       __imp__RegisterClassExW@4  1001e244     user32:USER32.dll
 0002:00000248       __imp__GetClassInfoExW@12  1001e248     user32:USER32.dll
 0002:0000024c       __imp__CreateWindowExW@48  1001e24c     user32:USER32.dll
 0002:00000250       __imp__IsWindow@4          1001e250     user32:USER32.dll
 0002:00000254       __imp__IsChild@8           1001e254     user32:USER32.dll
 0002:00000258       __imp__DestroyWindow@4     1001e258     user32:USER32.dll
 0002:0000025c       __imp__ShowWindow@8        1001e25c     user32:USER32.dll
 0002:00000260       __imp__SetWindowPos@28     1001e260     user32:USER32.dll
 0002:00000264       __imp__CharNextW@4         1001e264     user32:USER32.dll
 0002:00000268       __imp__SetFocus@4          1001e268     user32:USER32.dll
 0002:0000026c       __imp__LoadBitmapW@8       1001e26c     user32:USER32.dll
 0002:00000270       __imp__RegisterClassW@4    1001e270     user32:USER32.dll
 0002:00000274       __imp__PeekMessageW@20     1001e274     user32:USER32.dll
 0002:00000278       __imp__LoadCursorW@8       1001e278     user32:USER32.dll
 0002:0000027c       __imp__GetParent@4         1001e27c     user32:USER32.dll
 0002:00000280       __imp__SetWindowLongW@12   1001e280     user32:USER32.dll
 0002:00000284       __imp__GetWindowLongW@8    1001e284     user32:USER32.dll
 0002:00000288       __imp__PtInRect@12         1001e288     user32:USER32.dll
 0002:0000028c       __imp__EqualRect@8         1001e28c     user32:USER32.dll
 0002:00000290       __imp__OffsetRect@12       1001e290     user32:USER32.dll
 0002:00000294       __imp__UnionRect@12        1001e294     user32:USER32.dll
 0002:00000298       __imp__IntersectRect@12    1001e298     user32:USER32.dll
 0002:0000029c       __imp__GetClientRect@8     1001e29c     user32:USER32.dll
 0002:000002a0       __imp__InvalidateRect@12   1001e2a0     user32:USER32.dll
 0002:000002a4       __imp__SetWindowRgn@12     1001e2a4     user32:USER32.dll
 0002:000002a8       __imp__EndPaint@8          1001e2a8     user32:USER32.dll
 0002:000002ac       __imp__BeginPaint@8        1001e2ac     user32:USER32.dll
 0002:000002b0       __imp__ReleaseDC@8         1001e2b0     user32:USER32.dll
 0002:000002b4       __imp__GetDC@4             1001e2b4     user32:USER32.dll
 0002:000002b8       __imp__GetKeyState@4       1001e2b8     user32:USER32.dll
 0002:000002bc       __imp__GetFocus@0          1001e2bc     user32:USER32.dll
 0002:000002c0       \177USER32_NULL_THUNK_DATA 1001e2c0     user32:USER32.dll
 0002:000002c4       __imp__CoCreateInstance@20 1001e2c4     ole32:ole32.dll
 0002:000002c8       __imp__StringFromGUID2@12  1001e2c8     ole32:ole32.dll
 0002:000002cc       __imp__CoTaskMemRealloc@8  1001e2cc     ole32:ole32.dll
 0002:000002d0       __imp__CoTaskMemFree@4     1001e2d0     ole32:ole32.dll
 0002:000002d4       __imp__CreateDataAdviseHolder@4 1001e2d4     ole32:ole32.dll
 0002:000002d8       __imp__ReadClassStm@8      1001e2d8     ole32:ole32.dll
 0002:000002dc       __imp__WriteClassStm@8     1001e2dc     ole32:ole32.dll
 0002:000002e0       __imp__OleSaveToStream@8   1001e2e0     ole32:ole32.dll
 0002:000002e4       __imp__CreateOleAdviseHolder@4 1001e2e4     ole32:ole32.dll
 0002:000002e8       __imp__OleRegGetUserType@12 1001e2e8     ole32:ole32.dll
 0002:000002ec       __imp__OleRegGetMiscStatus@12 1001e2ec     ole32:ole32.dll
 0002:000002f0       __imp__OleRegEnumVerbs@8   1001e2f0     ole32:ole32.dll
 0002:000002f4       __imp__CLSIDFromProgID@8   1001e2f4     ole32:ole32.dll
 0002:000002f8       __imp__CoTaskMemAlloc@4    1001e2f8     ole32:ole32.dll
 0002:000002fc       \177ole32_NULL_THUNK_DATA  1001e2fc     ole32:ole32.dll
 0002:00000300       ___guard_check_icall_fptr  1001e300     LIBCMT:guard_support.obj
 0002:00000304       ___xc_a                    1001e304     LIBCMT:initializers.obj
 0002:0000031c       ___xc_z                    1001e31c     LIBCMT:initializers.obj
 0002:00000320       ___xi_a                    1001e320     LIBCMT:initializers.obj
 0002:00000328       ___acrt_stdio_initializer  1001e328     libucrt:stdio_initializer.obj
 0002:0000032c       ___acrt_multibyte_initializer 1001e32c     libucrt:multibyte_initializer.obj
 0002:00000330       ___acrt_tran_sse2_initializer 1001e330     libucrt:sse2_initializer.obj
 0002:00000334       ___xi_z                    1001e334     LIBCMT:initializers.obj
 0002:00000338       ___xl_a                    1001e338     LIBCMT:tlssup.obj
 0002:0000033c       ___xl_z                    1001e33c     LIBCMT:tlssup.obj
 0002:00000340       ___xp_a                    1001e340     LIBCMT:initializers.obj
 0002:00000344       ___acrt_locale_terminator  1001e344     libucrt:locale_initializer.obj
 0002:00000348       ___dcrt_console_output_terminator 1001e348     libucrt:console_output_initializer.obj
 0002:0000034c       ___acrt_stdio_terminator   1001e34c     libucrt:stdio_initializer.obj
 0002:00000350       ___xp_z                    1001e350     LIBCMT:initializers.obj
 0002:00000354       ___xt_a                    1001e354     LIBCMT:initializers.obj
 0002:00000358       ___xt_z                    1001e358     LIBCMT:initializers.obj
 0002:00000360       ??_C@_13HADIAKP@?$AAS@     1001e360     OposVariant.obj
 0002:00000364       ??_C@_13LHMFKAAD@?$AAM@    1001e364     OposVariant.obj
 0002:00000368       ??_C@_13MKMNOPIJ@?$AAD@    1001e368     OposVariant.obj
 0002:0000036c       ??_C@_13OPKGLAFF@?$AAB@    1001e36c     OposVariant.obj
 0002:00000370       ??_C@_17LLMMEOJD@?$AAV?$AAa?$AAl@ 1001e370     OposVariant.obj
 0002:00000378       ??_C@_1BI@JFAIJMHL@?$AAF?$AAo?$AAr?$AAc?$AAe?$AAR?$AAe?$AAm?$AAo?$AAv?$AAe@ 1001e378     OposVariant.obj
 0002:00000390       ??_C@_1BC@GCKHIPE@?$AAN?$AAo?$AAR?$AAe?$AAm?$AAo?$AAv?$AAe@ 1001e390     OposVariant.obj
 0002:000003a4       ??_C@_1O@JDLOHAN@?$AAD?$AAe?$AAl?$AAe?$AAt?$AAe@ 1001e3a4     OposVariant.obj
 0002:000003b4       ??_C@_11LOCGONAA@@         1001e3b4     OposVariant.obj
 0002:000003b8       __GUID_b196b284_bab4_101a_b69c_00aa00341d07 1001e3b8     BumpBar.obj
 0002:000003c8       __GUID_00000113_0000_0000_c000_000000000046 1001e3c8     BumpBar.obj
 0002:000003d8       __GUID_1c2056cc_5ef4_101b_8bc8_00aa003e3b29 1001e3d8     BumpBar.obj
 0002:000003e8       __GUID_00000112_0000_0000_c000_000000000046 1001e3e8     BumpBar.obj
 0002:000003f8       ??_7?$CComObjectCached@VCComClassFactory@ATL@@@ATL@@6B@ 1001e3f8     BumpBar.obj
 0002:00000410       __GUID_3af24292_0c96_11ce_a0cf_00aa00600ab8 1001e410     BumpBar.obj
 0002:00000420       __GUID_00000127_0000_0000_c000_000000000046 1001e420     BumpBar.obj
 0002:00000430       __GUID_0000010d_0000_0000_c000_000000000046 1001e430     BumpBar.obj
 0002:00000440       ??_C@_1M@PPPPCDEP@?$AAA?$AAP?$AAP?$AAI?$AAD@ 1001e440     BumpBar.obj
 0002:0000044c       ??_7?$CComContainedObject@VCOPOSBumpBar@@@ATL@@6B?$IDispatchImpl@UIOPOSBumpBar@@$1?IID_IOPOSBumpBar@@3U_GUID@@B$1?LIBID_OposBumpBar_CCO@@3U3@B$00$0A@VCComTypeInfoHolder@ATL@@@1@@ 1001e44c     BumpBar.obj
 0002:00000580       ??_7?$CComContainedObject@VCOPOSBumpBar@@@ATL@@6BCComControlBase@1@@ 1001e580     BumpBar.obj
 0002:00000594       ??_7?$CComContainedObject@VCOPOSBumpBar@@@ATL@@6B?$CWindowImpl@VCOPOSBumpBar@@VCWindow@ATL@@V?$CWinTraits@$0FGAAAAAA@$0A@@3@@1@@ 1001e594     BumpBar.obj
 0002:000005a4       ??_7?$CComContainedObject@VCOPOSBumpBar@@@ATL@@6B?$IPersistStreamInitImpl@VCOPOSBumpBar@@@1@@ 1001e5a4     BumpBar.obj
 0002:000005c8       ??_7?$CComContainedObject@VCOPOSBumpBar@@@ATL@@6B?$IOleControlImpl@VCOPOSBumpBar@@@1@@ 1001e5c8     BumpBar.obj
 0002:000005e4       ??_7?$CComContainedObject@VCOPOSBumpBar@@@ATL@@6B?$IOleObjectImpl@VCOPOSBumpBar@@@1@@ 1001e5e4     BumpBar.obj
 0002:00000644       ??_7?$CComContainedObject@VCOPOSBumpBar@@@ATL@@6B?$IOleInPlaceActiveObjectImpl@VCOPOSBumpBar@@@1@@ 1001e644     BumpBar.obj
 0002:0000066c       ??_7?$CComContainedObject@VCOPOSBumpBar@@@ATL@@6B?$IViewObjectExImpl@VCOPOSBumpBar@@@1@@ 1001e66c     BumpBar.obj
 0002:000006a8       ??_7?$CComContainedObject@VCOPOSBumpBar@@@ATL@@6B?$IOleInPlaceObjectWindowlessImpl@VCOPOSBumpBar@@@1@@ 1001e6a8     BumpBar.obj
 0002:000006d4       ??_7?$CComContainedObject@VCOPOSBumpBar@@@ATL@@6B?$IConnectionPointContainerImpl@VCOPOSBumpBar@@@1@@ 1001e6d4     BumpBar.obj
 0002:000006e8       ??_7?$CComContainedObject@VCOPOSBumpBar@@@ATL@@6B?$IPersistStorageImpl@VCOPOSBumpBar@@@1@@ 1001e6e8     BumpBar.obj
 0002:00000710       ??_7?$CComContainedObject@VCOPOSBumpBar@@@ATL@@6B?$ISpecifyPropertyPagesImpl@VCOPOSBumpBar@@@1@@ 1001e710     BumpBar.obj
 0002:00000720       ??_7?$CComContainedObject@VCOPOSBumpBar@@@ATL@@6B?$IQuickActivateImpl@VCOPOSBumpBar@@@1@@ 1001e720     BumpBar.obj
 0002:00000738       ??_7?$CComContainedObject@VCOPOSBumpBar@@@ATL@@6B?$IDataObjectImpl@VCOPOSBumpBar@@@1@@ 1001e738     BumpBar.obj
 0002:00000768       ??_7?$CComContainedObject@VCOPOSBumpBar@@@ATL@@6B?$IProvideClassInfo2Impl@$1?CLSID_OPOSBumpBar@@3U_GUID@@B$1?DIID__IOPOSBumpBarEvents@@3U2@B$1?LIBID_OposBumpBar_CCO@@3U2@B$00$0A@VCComTypeInfoHolder@ATL@@@1@@ 1001e768     BumpBar.obj
 0002:0000077c       ??_7?$CComContainedObject@VCOPOSBumpBar@@@ATL@@6B?$IObjectSafetyImpl@VCOPOSBumpBar@@$02@1@@ 1001e77c     BumpBar.obj
 0002:00000794       ??_7?$CComContainedObject@VCOPOSBumpBar@@@ATL@@6B?$IPropertyNotifySinkCP@VCOPOSBumpBar@@VCComDynamicUnkArray@ATL@@@1@@ 1001e794     BumpBar.obj
 0002:000007b4       ??_7?$CComContainedObject@VCOPOSBumpBar@@@ATL@@6B?$CProxy_IOPOSEvents@VCOPOSBumpBar@@@@@ 1001e7b4     BumpBar.obj
 0002:000007d4       ??_7?$CComAggObject@VCOPOSBumpBar@@@ATL@@6B@ 1001e7d4     BumpBar.obj
 0002:000007e4       ??_7?$CComObject@VCOPOSBumpBar@@@ATL@@6B?$IDispatchImpl@UIOPOSBumpBar@@$1?IID_IOPOSBumpBar@@3U_GUID@@B$1?LIBID_OposBumpBar_CCO@@3U3@B$00$0A@VCComTypeInfoHolder@ATL@@@1@@ 1001e7e4     BumpBar.obj
 0002:00000918       ??_7?$CComObject@VCOPOSBumpBar@@@ATL@@6BCComControlBase@1@@ 1001e918     BumpBar.obj
 0002:0000092c       ??_7?$CComObject@VCOPOSBumpBar@@@ATL@@6B?$CWindowImpl@VCOPOSBumpBar@@VCWindow@ATL@@V?$CWinTraits@$0FGAAAAAA@$0A@@3@@1@@ 1001e92c     BumpBar.obj
 0002:0000093c       ??_7?$CComObject@VCOPOSBumpBar@@@ATL@@6B?$IPersistStreamInitImpl@VCOPOSBumpBar@@@1@@ 1001e93c     BumpBar.obj
 0002:00000960       ??_7?$CComObject@VCOPOSBumpBar@@@ATL@@6B?$IOleControlImpl@VCOPOSBumpBar@@@1@@ 1001e960     BumpBar.obj
 0002:0000097c       ??_7?$CComObject@VCOPOSBumpBar@@@ATL@@6B?$IOleObjectImpl@VCOPOSBumpBar@@@1@@ 1001e97c     BumpBar.obj
 0002:000009dc       ??_7?$CComObject@VCOPOSBumpBar@@@ATL@@6B?$IOleInPlaceActiveObjectImpl@VCOPOSBumpBar@@@1@@ 1001e9dc     BumpBar.obj
 0002:00000a04       ??_7?$CComObject@VCOPOSBumpBar@@@ATL@@6B?$IViewObjectExImpl@VCOPOSBumpBar@@@1@@ 1001ea04     BumpBar.obj
 0002:00000a40       ??_7?$CComObject@VCOPOSBumpBar@@@ATL@@6B?$IOleInPlaceObjectWindowlessImpl@VCOPOSBumpBar@@@1@@ 1001ea40     BumpBar.obj
 0002:00000a6c       ??_7?$CComObject@VCOPOSBumpBar@@@ATL@@6B?$IConnectionPointContainerImpl@VCOPOSBumpBar@@@1@@ 1001ea6c     BumpBar.obj
 0002:00000a80       ??_7?$CComObject@VCOPOSBumpBar@@@ATL@@6B?$IPersistStorageImpl@VCOPOSBumpBar@@@1@@ 1001ea80     BumpBar.obj
 0002:00000aa8       ??_7?$CComObject@VCOPOSBumpBar@@@ATL@@6B?$ISpecifyPropertyPagesImpl@VCOPOSBumpBar@@@1@@ 1001eaa8     BumpBar.obj
 0002:00000ab8       ??_7?$CComObject@VCOPOSBumpBar@@@ATL@@6B?$IQuickActivateImpl@VCOPOSBumpBar@@@1@@ 1001eab8     BumpBar.obj
 0002:00000ad0       ??_7?$CComObject@VCOPOSBumpBar@@@ATL@@6B?$IDataObjectImpl@VCOPOSBumpBar@@@1@@ 1001ead0     BumpBar.obj
 0002:00000b00       ??_7?$CComObject@VCOPOSBumpBar@@@ATL@@6B?$IProvideClassInfo2Impl@$1?CLSID_OPOSBumpBar@@3U_GUID@@B$1?DIID__IOPOSBumpBarEvents@@3U2@B$1?LIBID_OposBumpBar_CCO@@3U2@B$00$0A@VCComTypeInfoHolder@ATL@@@1@@ 1001eb00     BumpBar.obj
 0002:00000b14       ??_7?$CComObject@VCOPOSBumpBar@@@ATL@@6B?$IObjectSafetyImpl@VCOPOSBumpBar@@$02@1@@ 1001eb14     BumpBar.obj
 0002:00000b2c       ??_7?$CComObject@VCOPOSBumpBar@@@ATL@@6B?$IPropertyNotifySinkCP@VCOPOSBumpBar@@VCComDynamicUnkArray@ATL@@@1@@ 1001eb2c     BumpBar.obj
 0002:00000b4c       ??_7?$CComObject@VCOPOSBumpBar@@@ATL@@6B?$CProxy_IOPOSEvents@VCOPOSBumpBar@@@@@ 1001eb4c     BumpBar.obj
 0002:00000b6c       ??_C@_1O@GBFKGNEO@?$AAA?$AAT?$AAL?$AA?3?$AA?$CF?$AAp@ 1001eb6c     BumpBar.obj
 0002:00000b7c       ??_C@_1BA@PICGEGJB@?$AAD?$AAI?$AAS?$AAP?$AAL?$AAA?$AAY@ 1001eb7c     BumpBar.obj
 0002:00000b8c       __GUID_9bfbbc02_eff1_101a_84ed_00aa00341d07 1001eb8c     BumpBar.obj
 0002:00000b9c       ??_7CComClassFactory@ATL@@6B@ 1001eb9c     BumpBar.obj
 0002:00000bb4       ?_entries@?1??_GetEntries@CComClassFactory@ATL@@SGPBU_ATL_INTMAP_ENTRY@3@XZ@4QBU43@B 1001ebb4     BumpBar.obj
 0002:00000bcc       __GUID_00000001_0000_0000_c000_000000000046 1001ebcc     BumpBar.obj
 0002:00000bdc       ?_entries@?1??_GetEntries@?$CComEnum@UIEnumConnectionPoints@@$1?_GUID_b196b285_bab4_101a_b69c_00aa00341d07@@3U__s_GUID@@BPAUIConnectionPoint@@V?$_CopyInterface@UIConnectionPoint@@@ATL@@VCComSingleThreadModel@6@@ATL@@SGPBU_ATL_INTMAP_ENTRY@3@XZ@4QBU43@B 1001ebdc     BumpBar.obj
 0002:00000bf4       __GUID_00020412_0000_0000_c000_000000000046 1001ebf4     BumpBar.obj
 0002:00000c04       __GUID_00020401_0000_0000_c000_000000000046 1001ec04     BumpBar.obj
 0002:00000c14       __GUID_55980ba0_35aa_11cf_b671_00aa004cd6d8 1001ec14     BumpBar.obj
 0002:00000c24       ??_7?$CComObject@V?$CComEnum@UIEnumConnections@@$1?_GUID_b196b287_bab4_101a_b69c_00aa00341d07@@3U__s_GUID@@BUtagCONNECTDATA@@V?$_Copy@UtagCONNECTDATA@@@ATL@@VCComSingleThreadModel@6@@ATL@@@ATL@@6B@ 1001ec24     BumpBar.obj
 0002:00000c44       __GUID_b196b28b_bab4_101a_b69c_00aa00341d07 1001ec44     BumpBar.obj
 0002:00000c54       ??_C@_1BK@BIGILECK@?$AAA?$AAd?$AAv?$AAa?$AAp?$AAi?$AA3?$AA2?$AA?4?$AAd?$AAl?$AAl@ 1001ec54     BumpBar.obj
 0002:00000c70       ??_C@_0BI@MNCFCPFK@RegCreateKeyTransactedW@ 1001ec70     BumpBar.obj
 0002:00000c88       __GUID_b196b287_bab4_101a_b69c_00aa00341d07 1001ec88     BumpBar.obj
 0002:00000c98       __GUID_b196b285_bab4_101a_b69c_00aa00341d07 1001ec98     BumpBar.obj
 0002:00000ca8       ?_entries@?1??_GetEntries@?$CComEnum@UIEnumConnections@@$1?_GUID_b196b287_bab4_101a_b69c_00aa00341d07@@3U__s_GUID@@BUtagCONNECTDATA@@V?$_Copy@UtagCONNECTDATA@@@ATL@@VCComSingleThreadModel@6@@ATL@@SGPBU_ATL_INTMAP_ENTRY@3@XZ@4QBU43@B 1001eca8     BumpBar.obj
 0002:00000cc0       __GUID_a6bc3ac0_dbaa_11ce_9de3_00aa004bb851 1001ecc0     BumpBar.obj
 0002:00000cd0       __GUID_0000010c_0000_0000_c000_000000000046 1001ecd0     BumpBar.obj
 0002:00000ce0       __GUID_00000146_0000_0000_c000_000000000046 1001ece0     BumpBar.obj
 0002:00000cf0       ??_7CComModule@ATL@@6B@    1001ecf0     BumpBar.obj
 0002:00000d18       _IID_IOPOSBumpBar_1_5      1001ed18     BumpBar.obj
 0002:00000d28       _IID_IOPOSBumpBar_1_8      1001ed28     BumpBar.obj
 0002:00000d38       _IID_IOPOSBumpBar_1_9      1001ed38     BumpBar.obj
 0002:00000d48       _IID_IOPOSBumpBar          1001ed48     BumpBar.obj
 0002:00000d58       _LIBID_OposBumpBar_CCO     1001ed58     BumpBar.obj
 0002:00000d68       _DIID__IOPOSBumpBarEvents  1001ed68     BumpBar.obj
 0002:00000d78       _CLSID_OPOSBumpBar         1001ed78     BumpBar.obj
 0002:00000d88       __GUID_00000000_0000_0000_c000_000000000046 1001ed88     BumpBar.obj
 0002:00000d98       __GUID_00020400_0000_0000_c000_000000000046 1001ed98     BumpBar.obj
 0002:00000da8       __GUID_00000114_0000_0000_c000_000000000046 1001eda8     BumpBar.obj
 0002:00000db8       ??_C@_1M@KANJNLFF@?$AAC?$AAL?$AAS?$AAI?$AAD@ 1001edb8     BumpBar.obj
 0002:00000dc4       ??_C@_1M@EJNEECMJ@?$AAA?$AAp?$AAp?$AAI?$AAD@ 1001edc4     BumpBar.obj
 0002:00000dd0       ?rgszNeverDelete@CRegParser@ATL@@1QBQB_WB 1001edd0     BumpBar.obj
 0002:00000e00       ??_7CRegObject@ATL@@6B@    1001ee00     BumpBar.obj
 0002:00000e18       ??_C@_1CK@OEKPKBNA@?$AAC?$AAo?$AAm?$AAp?$AAo?$AAn?$AAe?$AAn?$AAt?$AA?5?$AAC?$AAa?$AAt?$AAe?$AAg@ 1001ee18     BumpBar.obj
 0002:00000e44       ??_C@_1BC@NKMMNMGL@?$AAF?$AAi?$AAl?$AAe?$AAT?$AAy?$AAp?$AAe@ 1001ee44     BumpBar.obj
 0002:00000e58       ??_C@_1BE@EKPAFMCP@?$AAI?$AAn?$AAt?$AAe?$AAr?$AAf?$AAa?$AAc?$AAe@ 1001ee58     BumpBar.obj
 0002:00000e6c       ??_C@_1BC@MAICEHGI@?$AAH?$AAa?$AAr?$AAd?$AAw?$AAa?$AAr?$AAe@ 1001ee6c     BumpBar.obj
 0002:00000e80       ??_C@_19HLLLM@?$AAM?$AAi?$AAm?$AAe@ 1001ee80     BumpBar.obj
 0002:00000e8c       ??_C@_17OMAOINJK@?$AAS?$AAA?$AAM@ 1001ee8c     BumpBar.obj
 0002:00000e94       ??_C@_1BC@IBECJAAI@?$AAS?$AAE?$AAC?$AAU?$AAR?$AAI?$AAT?$AAY@ 1001ee94     BumpBar.obj
 0002:00000ea8       ??_C@_1O@GBFINDKL@?$AAS?$AAY?$AAS?$AAT?$AAE?$AAM@ 1001eea8     BumpBar.obj
 0002:00000eb8       ??_C@_1BC@EAHCMADO@?$AAS?$AAo?$AAf?$AAt?$AAw?$AAa?$AAr?$AAe@ 1001eeb8     BumpBar.obj
 0002:00000ecc       ??_C@_1BA@JIHHIEDE@?$AAT?$AAy?$AAp?$AAe?$AAL?$AAi?$AAb@ 1001eecc     BumpBar.obj
 0002:00000ee0       ?_entries@?1??_GetEntries@COPOSBumpBar@@SGPBU_ATL_INTMAP_ENTRY@ATL@@XZ@4QBU34@B 1001eee0     BumpBar.obj
 0002:00001018       ?map@?1??HKeyFromString@CRegParser@ATL@@KAPAUHKEY__@@PA_W@Z@4QBUkeymap@?1??123@KAPAU4@0@Z@B 1001f018     BumpBar.obj
 0002:00001088       ??_C@_19NCHLBIN@?$AAH?$AAK?$AAC?$AAR@ 1001f088     BumpBar.obj
 0002:00001094       ??_C@_19JAPAIJDE@?$AAH?$AAK?$AAC?$AAU@ 1001f094     BumpBar.obj
 0002:000010a0       ??_C@_19PEALEEJB@?$AAH?$AAK?$AAL?$AAM@ 1001f0a0     BumpBar.obj
 0002:000010ac       ??_C@_17PJOJPMPB@?$AAH?$AAK?$AAU@ 1001f0ac     BumpBar.obj
 0002:000010b4       ??_C@_19PNBHMJPL@?$AAH?$AAK?$AAP?$AAD@ 1001f0b4     BumpBar.obj
 0002:000010c0       ??_C@_19GFFAIJHG@?$AAH?$AAK?$AAD?$AAD@ 1001f0c0     BumpBar.obj
 0002:000010cc       ??_C@_19OFICIBHH@?$AAH?$AAK?$AAC?$AAC@ 1001f0cc     BumpBar.obj
 0002:000010d8       ??_C@_1CE@PACHPJFI@?$AAH?$AAK?$AAE?$AAY?$AA_?$AAC?$AAL?$AAA?$AAS?$AAS?$AAE?$AAS?$AA_?$AAR?$AAO@ 1001f0d8     BumpBar.obj
 0002:000010fc       ??_C@_1CE@HLHNCBPM@?$AAH?$AAK?$AAE?$AAY?$AA_?$AAC?$AAU?$AAR?$AAR?$AAE?$AAN?$AAT?$AA_?$AAU?$AAS@ 1001f0fc     BumpBar.obj
 0002:00001120       ??_C@_1CG@GFBEANJL@?$AAH?$AAK?$AAE?$AAY?$AA_?$AAL?$AAO?$AAC?$AAA?$AAL?$AA_?$AAM?$AAA?$AAC?$AAH@ 1001f120     BumpBar.obj
 0002:00001148       ??_C@_1BG@BGODANIO@?$AAH?$AAK?$AAE?$AAY?$AA_?$AAU?$AAS?$AAE?$AAR?$AAS@ 1001f148     BumpBar.obj
 0002:00001160       ??_C@_1CM@KHNNAOIC@?$AAH?$AAK?$AAE?$AAY?$AA_?$AAP?$AAE?$AAR?$AAF?$AAO?$AAR?$AAM?$AAA?$AAN?$AAC@ 1001f160     BumpBar.obj
 0002:0000118c       ??_C@_1BM@HAGMMHIA@?$AAH?$AAK?$AAE?$AAY?$AA_?$AAD?$AAY?$AAN?$AA_?$AAD?$AAA?$AAT?$AAA@ 1001f18c     BumpBar.obj
 0002:000011a8       ??_C@_1CI@BBJOACGG@?$AAH?$AAK?$AAE?$AAY?$AA_?$AAC?$AAU?$AAR?$AAR?$AAE?$AAN?$AAT?$AA_?$AAC?$AAO@ 1001f1a8     BumpBar.obj
 0002:000011d0       __GUID_cf51ed10_62fe_11cf_bf86_00a0c9034836 1001f1d0     BumpBar.obj
 0002:000011e0       __GUID_0000010a_0000_0000_c000_000000000046 1001f1e0     BumpBar.obj
 0002:000011f0       __GUID_b196b283_bab4_101a_b69c_00aa00341d07 1001f1f0     BumpBar.obj
 0002:00001200       __GUID_cb5bdc81_93c1_11cf_8f20_00805f2cd064 1001f200     BumpBar.obj
 0002:00001210       __GUID_00000109_0000_0000_c000_000000000046 1001f210     BumpBar.obj
 0002:00001220       __GUID_7fd52380_4e07_101b_ae2d_08002b2ec713 1001f220     BumpBar.obj
 0002:00001230       ?pPropMap@?1??GetPropertyMap@COPOSBumpBar@@SAPBUATL_PROPMAP_ENTRY@ATL@@XZ@4QBU34@B 1001f230     BumpBar.obj
 0002:0000129c       ??_C@_17DGDADEHL@?$AA_?$AAc?$AAx@ 1001f29c     BumpBar.obj
 0002:000012a4       ??_C@_17IOIMFDBO@?$AA_?$AAc?$AAy@ 1001f2a4     BumpBar.obj
 0002:000012ac       __GUID_922eada0_3424_11cf_b670_00aa004cd6d8 1001f2ac     BumpBar.obj
 0002:000012bc       __GUID_9c2cad80_3424_11cf_b670_00aa004cd6d8 1001f2bc     BumpBar.obj
 0002:000012cc       __GUID_00000119_0000_0000_c000_000000000046 1001f2cc     BumpBar.obj
 0002:000012dc       __GUID_b196b289_bab4_101a_b69c_00aa00341d07 1001f2dc     BumpBar.obj
 0002:000012f0       ??_C@_1EA@NHKLICFA@?$AAH?$AAK?$AAC?$AAU?$AA?$AN?$AA?6?$AA?$HL?$AA?7?$AAS?$AAo?$AAf?$AAt?$AAw?$AAa?$AAr@ 1001f2f0     BumpBar.obj
 0002:00001330       ??_C@_1BE@LJOLIMEM@?$AA?$AN?$AA?6?$AA?7?$AA?$HN?$AA?$AN?$AA?6?$AA?$HN?$AA?$AN?$AA?6@ 1001f330     BumpBar.obj
 0002:00001344       __GUID_b196b286_bab4_101a_b69c_00aa00341d07 1001f344     BumpBar.obj
 0002:00001354       ??_C@_1CE@PGFMOFKI@?$AAS?$AAt?$AAa?$AAt?$AAu?$AAs?$AAU?$AAp?$AAd?$AAa?$AAt?$AAe?$AAE?$AAv?$AAe@ 1001f354     BumpBar.obj
 0002:00001378       ??_C@_1CI@HLBJDONE@?$AAO?$AAu?$AAt?$AAp?$AAu?$AAt?$AAC?$AAo?$AAm?$AAp?$AAl?$AAe?$AAt?$AAe?$AAE@ 1001f378     BumpBar.obj
 0002:000013a0       ??_C@_1BG@LODEBHDD@?$AAE?$AAr?$AAr?$AAo?$AAr?$AAE?$AAv?$AAe?$AAn?$AAt@ 1001f3a0     BumpBar.obj
 0002:000013b8       ??_C@_1BM@CBGEBBBJ@?$AAD?$AAi?$AAr?$AAe?$AAc?$AAt?$AAI?$AAO?$AAE?$AAv?$AAe?$AAn?$AAt@ 1001f3b8     BumpBar.obj
 0002:000013d4       ??_C@_1BE@IEBMACEM@?$AAD?$AAa?$AAt?$AAa?$AAE?$AAv?$AAe?$AAn?$AAt@ 1001f3d4     BumpBar.obj
 0002:000013e8       __GUID_00000117_0000_0000_c000_000000000046 1001f3e8     BumpBar.obj
 0002:000013f8       ??_C@_1O@MNLDABAF@?$AAM?$AAo?$AAd?$AAu?$AAl?$AAe@ 1001f3f8     BumpBar.obj
 0002:00001408       ??_C@_1BG@JBACFMF@?$AAM?$AAo?$AAd?$AAu?$AAl?$AAe?$AA_?$AAR?$AAa?$AAw@ 1001f408     BumpBar.obj
 0002:00001420       ??_C@_1BC@KAILKFFG@?$AAR?$AAE?$AAG?$AAI?$AAS?$AAT?$AAR?$AAY@ 1001f420     BumpBar.obj
 0002:00001434       ??_C@_1BC@ENICKDH@?$AAC?$AAo?$AAn?$AAt?$AAe?$AAn?$AAt?$AAs@ 1001f434     BumpBar.obj
 0002:00001448       ??_7?$CComObject@V?$CComEnum@UIEnumConnectionPoints@@$1?_GUID_b196b285_bab4_101a_b69c_00aa00341d07@@3U__s_GUID@@BPAUIConnectionPoint@@V?$_CopyInterface@UIConnectionPoint@@@ATL@@VCComSingleThreadModel@6@@ATL@@@ATL@@6B@ 1001f448     BumpBar.obj
 0002:00001468       __GUID_0000010e_0000_0000_c000_000000000046 1001f468     BumpBar.obj
 0002:00001478       __GUID_b196b288_bab4_101a_b69c_00aa00341d07 1001f478     BumpBar.obj
 0002:00001488       ??_C@_0BG@EKFFMJIO@RegOpenKeyTransactedW@ 1001f488     BumpBar.obj
 0002:000014a0       ??_C@_0BI@HAKLOOGP@RegDeleteKeyTransactedW@ 1001f4a0     BumpBar.obj
 0002:000014b8       ??_C@_0BA@LILAPHGE@RegDeleteKeyExW@ 1001f4b8     BumpBar.obj
 0002:000014c8       ??_C@_19ILOCMLCJ@?$AA?4?$AAt?$AAl?$AAb@ 1001f4c8     BumpBar.obj
 0002:000014d4       __GUID_0002e012_0000_0000_c000_000000000046 1001f4d4     BumpBar.obj
 0002:000014e4       ??_C@_1O@FHBGLCIO@?$AAC?$AAL?$AAS?$AAI?$AAD?$AA?2@ 1001f4e4     BumpBar.obj
 0002:000014f4       ??_C@_1CK@IFBKBFAA@?$AA?2?$AAR?$AAe?$AAq?$AAu?$AAi?$AAr?$AAe?$AAd?$AA?5?$AAC?$AAa?$AAt?$AAe?$AAg@ 1001f4f4     BumpBar.obj
 0002:00001520       ??_C@_1DA@BIHALFED@?$AA?2?$AAI?$AAm?$AAp?$AAl?$AAe?$AAm?$AAe?$AAn?$AAt?$AAe?$AAd?$AA?5?$AAC?$AAa@ 1001f520     BumpBar.obj
 0002:00001550       ??_C@_1BK@EDKOLFBJ@?$AAO?$AAL?$AAE?$AAA?$AAU?$AAT?$AA3?$AA2?$AA?4?$AAD?$AAL?$AAL@ 1001f550     BumpBar.obj
 0002:0000156c       ??_C@_0BJ@CNLFOMHB@UnRegisterTypeLibForUser@ 1001f56c     BumpBar.obj
 0002:00001588       ??_C@_0BH@LBOMMKPJ@RegisterTypeLibForUser@ 1001f588     BumpBar.obj
 0002:000015a0       ??_C@_0P@MMNMMLGK@COFreezeEvents@ 1001f5a0     BumpBarImpl.obj
 0002:000015b0       ??_C@_0BC@OGCGGIMP@GetPropertyNumber@ 1001f5b0     BumpBarImpl.obj
 0002:000015c4       ??_C@_0BC@MDCNODNB@SetPropertyNumber@ 1001f5c4     BumpBarImpl.obj
 0002:000015d8       ??_C@_0BC@CFCCMIMD@GetPropertyString@ 1001f5d8     BumpBarImpl.obj
 0002:000015ec       ??_C@_0BC@CJEDNN@SetPropertyString@ 1001f5ec     BumpBarImpl.obj
 0002:00001600       ??_C@_0M@LNPKKKDA@OpenService@ 1001f600     BumpBarImpl.obj
 0002:0000160c       ??_C@_0M@PCMCHHMH@CheckHealth@ 1001f60c     BumpBarImpl.obj
 0002:00001618       ??_C@_0M@JGMIDNEK@ClaimDevice@ 1001f618     BumpBarImpl.obj
 0002:00001624       ??_C@_0L@BNEIFEJC@ClearInput@ 1001f624     BumpBarImpl.obj
 0002:00001630       ??_C@_0M@JMBCPNGJ@ClearOutput@ 1001f630     BumpBarImpl.obj
 0002:0000163c       ??_C@_0N@DDFIIBMP@CloseService@ 1001f63c     BumpBarImpl.obj
 0002:0000164c       ??_C@_08EEIHICPC@DirectIO@ 1001f64c     BumpBarImpl.obj
 0002:00001658       ??_C@_0O@BCPMENMJ@ReleaseDevice@ 1001f658     BumpBarImpl.obj
 0002:00001668       ??_C@_0N@OFCJPNJK@BumpBarSound@ 1001f668     BumpBarImpl.obj
 0002:00001678       ??_C@_0BC@CHBPCIIJ@SetKeyTranslation@ 1001f678     BumpBarImpl.obj
 0002:0000168c       ??_C@_0BA@GFABKEEE@ResetStatistics@ 1001f68c     BumpBarImpl.obj
 0002:0000169c       ??_C@_0BD@DPALHJGC@RetrieveStatistics@ 1001f69c     BumpBarImpl.obj
 0002:000016b0       ??_C@_0BB@KOHIKNFC@UpdateStatistics@ 1001f6b0     BumpBarImpl.obj
 0002:000016c4       ??_C@_0BH@PBKBNMGB@CompareFirmwareVersion@ 1001f6c4     BumpBarImpl.obj
 0002:000016dc       ??_C@_0P@FBPDPIPA@UpdateFirmware@ 1001f6dc     BumpBarImpl.obj
 0002:000016ec       ??_7?$CProxy_IOPOSEvents@VCOPOSBumpBar@@@@6B@ 1001f6ec     BumpBarImpl.obj
 0002:0000170c       ??_C@_1BA@IFHENID@?$AA?$FL?$AAE?$AAr?$AAr?$AAo?$AAr?$AA?$FN@ 1001f70c     BumpBarImpl.obj
 0002:0000171c       ??_C@_0CK@CAJINFBF@SOFTWARE?2OLEforRetail?2ServiceOP@ 1001f71c     BumpBarImpl.obj
 0002:00001748       ??_C@_1M@IAIJHCCH@?$AAC?$AAl?$AAo?$AAs?$AAe@ 1001f748     BumpBarImpl.obj
 0002:00001754       ??_C@_1M@PCPKGJAH@?$AAC?$AAl?$AAa?$AAi?$AAm@ 1001f754     BumpBarImpl.obj
 0002:00001760       ??_C@_1BA@NDFKIOCP@?$AAR?$AAe?$AAl?$AAe?$AAa?$AAs?$AAe@ 1001f760     BumpBarImpl.obj
 0002:00001770       ??_C@_07GHIMMMBE@BumpBar@  1001f770     BumpBarImpl.obj
 0002:00001778       ??_C@_1BM@IJMNMBPK@?$AAG?$AAe?$AAt?$AAO?$AAp?$AAe?$AAn?$AAR?$AAe?$AAs?$AAu?$AAl?$AAt@ 1001f778     BumpBarImpl.obj
 0002:00001794       _IID_IPropertyNotifySink   1001f794     uuid:ocidl_i.obj
 0002:000017a4       _IID_IDispatch             1001f7a4     uuid:oaidl_i.obj
 0002:000017b4       _GUID_NULL                 1001f7b4     uuid:cguid_i.obj
 0002:000017c4       _CLSID_StdGlobalInterfaceTable 1001f7c4     uuid:cguid_i.obj
 0002:000017d4       _CLSID_StdComponentCategoriesMgr 1001f7d4     uuid:ieguids.obj
 0002:000017e4       _IID_IUnknown              1001f7e4     uuid:unknwn_i.obj
 0002:000017f8       ??_C@_1EC@JIJBPKFM@?$AAa?$AAp?$AAi?$AA?9?$AAm?$AAs?$AA?9?$AAw?$AAi?$AAn?$AA?9?$AAc?$AAo?$AAr?$AAe@ 1001f7f8     LIBCMT:thread_safe_statics.obj
 0002:0000183c       ??_C@_1BK@MGMFAEKH@?$AAk?$AAe?$AAr?$AAn?$AAe?$AAl?$AA3?$AA2?$AA?4?$AAd?$AAl?$AAl@ 1001f83c     LIBCMT:thread_safe_statics.obj
 0002:00001858       ??_C@_0BM@HLJJNPAH@InitializeConditionVariable@ 1001f858     LIBCMT:thread_safe_statics.obj
 0002:00001874       ??_C@_0BJ@JEBJOJFJ@SleepConditionVariableCS@ 1001f874     LIBCMT:thread_safe_statics.obj
 0002:00001890       ??_C@_0BJ@PGPPEPCC@WakeAllConditionVariable@ 1001f890     LIBCMT:thread_safe_statics.obj
 0002:000018a9       ?nothrow@std@@3Unothrow_t@1@B 1001f8a9     LIBCMT:std_nothrow.obj
 0002:000018b4       __pDefaultRawDllMain       1001f8b4     LIBCMT:dll_dllmain.obj
 0002:000018b4       __pRawDllMain              1001f8b4     LIBCMT:dll_dllmain.obj
 0002:000018bc       ??_7exception@std@@6B@     1001f8bc     LIBCMT:throw_bad_alloc.obj
 0002:000018c4       ??_C@_0BC@EOODALEL@Unknown?5exception@ 1001f8c4     LIBCMT:throw_bad_alloc.obj
 0002:000018dc       ??_7bad_alloc@std@@6B@     1001f8dc     LIBCMT:throw_bad_alloc.obj
 0002:000018e4       ??_C@_0P@GHFPNOJB@bad?5allocation@ 1001f8e4     LIBCMT:throw_bad_alloc.obj
 0002:000018f8       ??_7bad_array_new_length@std@@6B@ 1001f8f8     LIBCMT:throw_bad_alloc.obj
 0002:00001900       ??_C@_0BF@KINCDENJ@bad?5array?5new?5length@ 1001f900     LIBCMT:throw_bad_alloc.obj
 0002:0000191c       ??_7type_info@@6B@         1001f91c     LIBCMT:std_type_info_static.obj
 0002:00001920       _GUID_ATLVer110            1001f920     atls:atlbase.obj
 0002:00001930       ??_C@_1IC@ONKHOIDK@?$AAE?$AAR?$AAR?$AAO?$AAR?$AA?5?$AA?3?$AA?5?$AAU?$AAn?$AAa?$AAb?$AAl?$AAe?$AA?5@ 1001f930     atls:atlbase.obj
 0002:000019b4       ??_C@_0N@FJEPLCIH@atlthunk?4dll@ 1001f9b4     atls:atlthunk.obj
 0002:000019c4       ??_C@_0BG@GAKFHCBM@AtlThunk_AllocateData@ 1001f9c4     atls:atlthunk.obj
 0002:000019dc       ??_C@_0BC@JKONFIAH@AtlThunk_InitData@ 1001f9dc     atls:atlthunk.obj
 0002:000019f0       ??_C@_0BE@IAOEELAK@AtlThunk_DataToCode@ 1001f9f0     atls:atlthunk.obj
 0002:00001a04       ??_C@_0BC@GBGKAIPI@AtlThunk_FreeData@ 1001fa04     atls:atlthunk.obj
 0002:00001a44       ??_C@_1DM@KHCHBNEB@?$AAa?$AAp?$AAi?$AA?9?$AAm?$AAs?$AA?9?$AAw?$AAi?$AAn?$AA?9?$AAc?$AAo?$AAr?$AAe@ 1001fa44     libvcruntime:winapi_downlevel.obj
 0002:00001a80       ??_C@_1DK@LPPGFMPP@?$AAa?$AAp?$AAi?$AA?9?$AAm?$AAs?$AA?9?$AAw?$AAi?$AAn?$AA?9?$AAc?$AAo?$AAr?$AAe@ 1001fa80     libvcruntime:winapi_downlevel.obj
 0002:00001abc       ??_C@_1BC@GDMECMAK@?$AAk?$AAe?$AAr?$AAn?$AAe?$AAl?$AA3?$AA2@ 1001fabc     libvcruntime:winapi_downlevel.obj
 0002:00001ad0       ??_C@_1BA@PFFKHIOG@?$AAa?$AAp?$AAi?$AA?9?$AAm?$AAs?$AA?9@ 1001fad0     libvcruntime:winapi_downlevel.obj
 0002:00001ae0       ??_C@_1BA@IAIFMGEF@?$AAe?$AAx?$AAt?$AA?9?$AAm?$AAs?$AA?9@ 1001fae0     libvcruntime:winapi_downlevel.obj
 0002:00001af8       ??_C@_08KNHFBNJ@FlsAlloc@  1001faf8     libvcruntime:winapi_downlevel.obj
 0002:00001b0c       ??_C@_07PEJMOBNF@FlsFree@  1001fb0c     libvcruntime:winapi_downlevel.obj
 0002:00001b1c       ??_C@_0M@GDNOONDI@FlsGetValue@ 1001fb1c     libvcruntime:winapi_downlevel.obj
 0002:00001b30       ??_C@_0M@JCPCPOEF@FlsSetValue@ 1001fb30     libvcruntime:winapi_downlevel.obj
 0002:00001b44       ??_C@_0BM@HCFOFFN@InitializeCriticalSectionEx@ 1001fb44     libvcruntime:winapi_downlevel.obj
 0002:00001b64       ??_7bad_exception@std@@6B@ 1001fb64     libvcruntime:frame.obj
 0002:00001b6c       ??_C@_0O@DPKOEFFH@bad?5exception@ 1001fb6c     libvcruntime:frame.obj
 0002:00001d1c       ??_C@_08EHJDFFNH@__based?$CI@ 1001fd1c     libvcruntime:undname.obj
 0002:00001d28       ??_C@_07KOLFKCDI@__cdecl@  1001fd28     libvcruntime:undname.obj
 0002:00001d30       ??_C@_08GHMPAG@__pascal@   1001fd30     libvcruntime:undname.obj
 0002:00001d3c       ??_C@_09IFJBGAPI@__stdcall@ 1001fd3c     libvcruntime:undname.obj
 0002:00001d48       ??_C@_0L@NPHFGOKO@__thiscall@ 1001fd48     libvcruntime:undname.obj
 0002:00001d54       ??_C@_0L@JMKHOMEK@__fastcall@ 1001fd54     libvcruntime:undname.obj
 0002:00001d60       ??_C@_0N@BCKKPABJ@__vectorcall@ 1001fd60     libvcruntime:undname.obj
 0002:00001d70       ??_C@_09HIJEGCPM@__clrcall@ 1001fd70     libvcruntime:undname.obj
 0002:00001d7c       ??_C@_06GHPCKEAG@__eabi@   1001fd7c     libvcruntime:undname.obj
 0002:00001d84       ??_C@_09IOPIDJLG@__swift_1@ 1001fd84     libvcruntime:undname.obj
 0002:00001d90       ??_C@_09KFNFGKHF@__swift_2@ 1001fd90     libvcruntime:undname.obj
 0002:00001d9c       ??_C@_07JOMMBBKO@__ptr64@  1001fd9c     libvcruntime:undname.obj
 0002:00001da4       ??_C@_0L@PILCLIHE@__restrict@ 1001fda4     libvcruntime:undname.obj
 0002:00001db0       ??_C@_0M@GFIIJFMG@__unaligned@ 1001fdb0     libvcruntime:undname.obj
 0002:00001dbc       ??_C@_09DHDLOLLB@restrict?$CI@ 1001fdbc     libvcruntime:undname.obj
 0002:00001dc6       ??_C@_00CNPNBAHC@@         1001fdc6     libvcruntime:undname.obj
 0002:00001dc8       ??_C@_04NIHEBCM@?5new@     1001fdc8     libvcruntime:undname.obj
 0002:00001dd0       ??_C@_07FPCDHGMM@?5delete@ 1001fdd0     libvcruntime:undname.obj
 0002:00001dd8       ??_C@_01NEMOKFLO@?$DN@     1001fdd8     libvcruntime:undname.obj
 0002:00001ddc       ??_C@_02GPIOPFAK@?$DO?$DO@ 1001fddc     libvcruntime:undname.obj
 0002:00001de0       ??_C@_02FODMEDOG@?$DM?$DM@ 1001fde0     libvcruntime:undname.obj
 0002:00001de4       ??_C@_01DCLJPIOD@?$CB@     1001fde4     libvcruntime:undname.obj
 0002:00001de8       ??_C@_02EGOFBIJA@?$DN?$DN@ 1001fde8     libvcruntime:undname.obj
 0002:00001dec       ??_C@_02FDNJECIE@?$CB?$DN@ 1001fdec     libvcruntime:undname.obj
 0002:00001df0       ??_C@_02GPECMEKF@?$FL?$FN@ 1001fdf0     libvcruntime:undname.obj
 0002:00001df4       ??_C@_08LHJFAFGD@operator@ 1001fdf4     libvcruntime:undname.obj
 0002:00001e00       ??_C@_02HBOOOICD@?9?$DO@   1001fe00     libvcruntime:undname.obj
 0002:00001e04       ??_C@_01NBENCBCI@?$CK@     1001fe04     libvcruntime:undname.obj
 0002:00001e08       ??_C@_02ECNGHCIF@?$CL?$CL@ 1001fe08     libvcruntime:undname.obj
 0002:00001e0c       ??_C@_02BAABKJLB@?9?9@     1001fe0c     libvcruntime:undname.obj
 0002:00001e10       ??_C@_01JOAMLHOP@?9@       1001fe10     libvcruntime:undname.obj
 0002:00001e14       ??_C@_01MIFGBAGJ@?$CL@     1001fe14     libvcruntime:undname.obj
 0002:00001e18       ??_C@_01HNPIGOCE@?$CG@     1001fe18     libvcruntime:undname.obj
 0002:00001e1c       ??_C@_03MNHNFDLC@?9?$DO?$CK@ 1001fe1c     libvcruntime:undname.obj
 0002:00001e20       ??_C@_01KMDKNFGN@?1@       1001fe20     libvcruntime:undname.obj
 0002:00001e24       ??_C@_01FGNFDNOH@?$CF@     1001fe24     libvcruntime:undname.obj
 0002:00001e28       ??_C@_01MNNFJEPP@?$DM@     1001fe28     libvcruntime:undname.obj
 0002:00001e2c       ??_C@_02EHCHHCKH@?$DM?$DN@ 1001fe2c     libvcruntime:undname.obj
 0002:00001e30       ??_C@_01PPODPGHN@?$DO@     1001fe30     libvcruntime:undname.obj
 0002:00001e34       ??_C@_02EEKDKGMJ@?$DO?$DN@ 1001fe34     libvcruntime:undname.obj
 0002:00001e38       ??_C@_01IHBHIGKO@?0@       1001fe38     libvcruntime:undname.obj
 0002:00001e3c       ??_C@_02HCKGKOFO@?$CI?$CJ@ 1001fe3c     libvcruntime:undname.obj
 0002:00001e40       ??_C@_01PJKLJHI@?$HO@      1001fe40     libvcruntime:undname.obj
 0002:00001e44       ??_C@_01JKBOJNNK@?$FO@     1001fe44     libvcruntime:undname.obj
 0002:00001e48       ??_C@_01DNKMNLPK@?$HM@     1001fe48     libvcruntime:undname.obj
 0002:00001e4c       ??_C@_02PPKAJPJL@?$CG?$CG@ 1001fe4c     libvcruntime:undname.obj
 0002:00001e50       ??_C@_02NONPIBCD@?$HM?$HM@ 1001fe50     libvcruntime:undname.obj
 0002:00001e54       ??_C@_02FPIMKNGF@?$CK?$DN@ 1001fe54     libvcruntime:undname.obj
 0002:00001e58       ??_C@_02FOEOMHFC@?$CL?$DN@ 1001fe58     libvcruntime:undname.obj
 0002:00001e5c       ??_C@_02FKMDLLOA@?9?$DN@   1001fe5c     libvcruntime:undname.obj
 0002:00001e60       ??_C@_02FJEHGPIO@?1?$DN@   1001fe60     libvcruntime:undname.obj
 0002:00001e64       ??_C@_02FENAOKFI@?$CF?$DN@ 1001fe64     libvcruntime:undname.obj
 0002:00001e68       ??_C@_03IKFCCPFF@?$DO?$DO?$DN@ 1001fe68     libvcruntime:undname.obj
 0002:00001e6c       ??_C@_03CDNPDDLA@?$DM?$DM?$DN@ 1001fe6c     libvcruntime:undname.obj
 0002:00001e70       ??_C@_02FGJGFEAB@?$CG?$DN@ 1001fe70     libvcruntime:undname.obj
 0002:00001e74       ??_C@_02DHLNPPGH@?$HM?$DN@ 1001fe74     libvcruntime:undname.obj
 0002:00001e78       ??_C@_02MHEGNOJ@?$FO?$DN@  1001fe78     libvcruntime:undname.obj
 0002:00001e7c       ??_C@_09IFPLHPGF@?$GAvftable?8@ 1001fe7c     libvcruntime:undname.obj
 0002:00001e88       ??_C@_09BLBHBJP@?$GAvbtable?8@ 1001fe88     libvcruntime:undname.obj
 0002:00001e94       ??_C@_07FEEIOKP@?$GAvcall?8@ 1001fe94     libvcruntime:undname.obj
 0002:00001e9c       ??_C@_08LLFFHHDJ@?$GAtypeof?8@ 1001fe9c     libvcruntime:undname.obj
 0002:00001ea8       ??_C@_0BF@KDPPACIK@?$GAlocal?5static?5guard?8@ 1001fea8     libvcruntime:undname.obj
 0002:00001ec0       ??_C@_08OBABFOLI@?$GAstring?8@ 1001fec0     libvcruntime:undname.obj
 0002:00001ecc       ??_C@_0BD@JDLKDPAB@?$GAvbase?5destructor?8@ 1001fecc     libvcruntime:undname.obj
 0002:00001ee0       ??_C@_0BN@DEGPLNFK@?$GAvector?5deleting?5destructor?8@ 1001fee0     libvcruntime:undname.obj
 0002:00001f00       ??_C@_0BO@OBMKPJIG@?$GAdefault?5constructor?5closure?8@ 1001ff00     libvcruntime:undname.obj
 0002:00001f20       ??_C@_0BN@IMDCHIKM@?$GAscalar?5deleting?5destructor?8@ 1001ff20     libvcruntime:undname.obj
 0002:00001f40       ??_C@_0BO@PFGOCPJJ@?$GAvector?5constructor?5iterator?8@ 1001ff40     libvcruntime:undname.obj
 0002:00001f60       ??_C@_0BN@LFPFMEDL@?$GAvector?5destructor?5iterator?8@ 1001ff60     libvcruntime:undname.obj
 0002:00001f80       ??_C@_0CE@IKBNEHA@?$GAvector?5vbase?5constructor?5itera@ 1001ff80     libvcruntime:undname.obj
 0002:00001fa4       ??_C@_0BL@NILFHHPC@?$GAvirtual?5displacement?5map?8@ 1001ffa4     libvcruntime:undname.obj
 0002:00001fc0       ??_C@_0CB@JONCMFFK@?$GAeh?5vector?5constructor?5iterator@ 1001ffc0     libvcruntime:undname.obj
 0002:00001fe4       ??_C@_0CA@GCEOPDGL@?$GAeh?5vector?5destructor?5iterator?8@ 1001ffe4     libvcruntime:undname.obj
 0002:00002004       ??_C@_0CH@OOJPLCPH@?$GAeh?5vector?5vbase?5constructor?5it@ 10020004     libvcruntime:undname.obj
 0002:0000202c       ??_C@_0BL@LLKPOHJI@?$GAcopy?5constructor?5closure?8@ 1002002c     libvcruntime:undname.obj
 0002:00002048       ??_C@_0BA@KBCDOMBN@?$GAudt?5returning?8@ 10020048     libvcruntime:undname.obj
 0002:00002058       ??_C@_03KLGMFNMG@?$GAEH@   10020058     libvcruntime:undname.obj
 0002:0000205c       ??_C@_05KHLCHHI@?$GARTTI@  1002005c     libvcruntime:undname.obj
 0002:00002064       ??_C@_0BA@KKLDJDLB@?$GAlocal?5vftable?8@ 10020064     libvcruntime:undname.obj
 0002:00002074       ??_C@_0CE@IIHCMGGL@?$GAlocal?5vftable?5constructor?5clos@ 10020074     libvcruntime:undname.obj
 0002:00002098       ??_C@_06FHBGPFGH@?5new?$FL?$FN@ 10020098     libvcruntime:undname.obj
 0002:000020a0       ??_C@_09LBNFPBCA@?5delete?$FL?$FN@ 100200a0     libvcruntime:undname.obj
 0002:000020ac       ??_C@_0P@HJKNJFNN@?$GAomni?5callsig?8@ 100200ac     libvcruntime:undname.obj
 0002:000020bc       ??_C@_0BL@CNOONJFP@?$GAplacement?5delete?5closure?8@ 100200bc     libvcruntime:undname.obj
 0002:000020d8       ??_C@_0BN@CKNJLHMB@?$GAplacement?5delete?$FL?$FN?5closure?8@ 100200d8     libvcruntime:undname.obj
 0002:000020f8       ??_C@_0CG@CFDHKGGD@?$GAmanaged?5vector?5constructor?5ite@ 100200f8     libvcruntime:undname.obj
 0002:00002120       ??_C@_0CF@IMGKMJNO@?$GAmanaged?5vector?5destructor?5iter@ 10020120     libvcruntime:undname.obj
 0002:00002148       ??_C@_0CG@HLDDJMAG@?$GAeh?5vector?5copy?5constructor?5ite@ 10020148     libvcruntime:undname.obj
 0002:00002170       ??_C@_0CM@FCBBDIGB@?$GAeh?5vector?5vbase?5copy?5construct@ 10020170     libvcruntime:undname.obj
 0002:0000219c       ??_C@_0BL@CLIPGLGB@?$GAdynamic?5initializer?5for?5?8@ 1002019c     libvcruntime:undname.obj
 0002:000021b8       ??_C@_0CB@PDBIFEP@?$GAdynamic?5atexit?5destructor?5for?5@ 100201b8     libvcruntime:undname.obj
 0002:000021dc       ??_C@_0CD@CGAJBKEJ@?$GAvector?5copy?5constructor?5iterat@ 100201dc     libvcruntime:undname.obj
 0002:00002200       ??_C@_0CJ@GJELGAMM@?$GAvector?5vbase?5copy?5constructor?5@ 10020200     libvcruntime:undname.obj
 0002:0000222c       ??_C@_0CL@FGIJHLCE@?$GAmanaged?5vector?5copy?5constructo@ 1002022c     libvcruntime:undname.obj
 0002:00002258       ??_C@_0BM@PMGGMLDN@?$GAlocal?5static?5thread?5guard?8@ 10020258     libvcruntime:undname.obj
 0002:00002274       ??_C@_0N@BDNMDMOL@operator?5?$CC?$CC?5@ 10020274     libvcruntime:undname.obj
 0002:00002284       ??_C@_0BC@GGEBGALA@operator?5co_await@ 10020284     libvcruntime:undname.obj
 0002:00002298       ??_C@_0BC@DAFEJGAK@?5Type?5Descriptor?8@ 10020298     libvcruntime:undname.obj
 0002:000022ac       ??_C@_0BM@LDKODKLH@?5Base?5Class?5Descriptor?5at?5?$CI@ 100202ac     libvcruntime:undname.obj
 0002:000022c8       ??_C@_0BD@LGICGFMM@?5Base?5Class?5Array?8@ 100202c8     libvcruntime:undname.obj
 0002:000022dc       ??_C@_0BN@MECKDCOJ@?5Class?5Hierarchy?5Descriptor?8@ 100202dc     libvcruntime:undname.obj
 0002:000022fc       ??_C@_0BK@CFCOFLF@?5Complete?5Object?5Locator?8@ 100202fc     libvcruntime:undname.obj
 0002:00002318       __pDestructExceptionObject 10020318     libvcruntime:ehhelpers.obj
 0002:00002488       _format_validation_lookup_table 10020488     libucrt:output.obj
 0002:000024e4       ??_C@_06OJHGLDPL@?$CInull?$CJ?$AA@ 100204e4     libucrt:output.obj
 0002:000024ec       ??_C@_1O@CEDCILHN@?$AA?$CI?$AAn?$AAu?$AAl?$AAl?$AA?$CJ?$AA?$AA@ 100204ec     libucrt:output.obj
 0002:00002500       ___acrt_exception_action_table 10020500     libucrt:exception_filter.obj
 0002:00002590       ___acrt_signal_action_table_count 10020590     libucrt:exception_filter.obj
 0002:00002594       ___acrt_signal_action_first_fpe_index 10020594     libucrt:exception_filter.obj
 0002:00002598       ___acrt_signal_action_fpe_count 10020598     libucrt:exception_filter.obj
 0002:0000259c       ??_C@_1BI@BGOHAHKC@?$AAm?$AAs?$AAc?$AAo?$AAr?$AAe?$AAe?$AA?4?$AAd?$AAl?$AAl?$AA?$AA@ 1002059c     libucrt:exit.obj
 0002:000025b4       ??_C@_0P@MIGLKIOC@CorExitProcess?$AA@ 100205b4     libucrt:exit.obj
 0002:00002690       ??_C@_1EG@CNNIPFIM@?$AAa?$AAp?$AAi?$AA?9?$AAm?$AAs?$AA?9?$AAw?$AAi?$AAn?$AA?9?$AAa?$AAp?$AAp?$AAm?$AAo?$AAd?$AAe?$AAl?$AA?9?$AAr?$AAu?$AAn?$AAt?$AAi?$AAm?$AAe?$AA?9?$AAl?$AA1?$AA?9?$AA1@ 10020690     libucrt:winapi_thunks.obj
 0002:000026d8       ??_C@_1EA@JGEFHKEI@?$AAa?$AAp?$AAi?$AA?9?$AAm?$AAs?$AA?9?$AAw?$AAi?$AAn?$AA?9?$AAc?$AAo?$AAr?$AAe?$AA?9?$AAd?$AAa?$AAt?$AAe?$AAt?$AAi?$AAm?$AAe?$AA?9?$AAl?$AA1?$AA?9?$AA1?$AA?9?$AA1?$AA?$AA@ 100206d8     libucrt:winapi_thunks.obj
 0002:00002718       ??_C@_1DM@KHCHBNEB@?$AAa?$AAp?$AAi?$AA?9?$AAm?$AAs?$AA?9?$AAw?$AAi?$AAn?$AA?9?$AAc?$AAo?$AAr?$AAe?$AA?9?$AAf?$AAi?$AAb?$AAe?$AAr?$AAs?$AA?9?$AAl?$AA1?$AA?9?$AA1?$AA?9?$AA1?$AA?$AA@ 10020718     libucrt:winapi_thunks.obj
 0002:00002754       ??_C@_1DI@GCIAAENM@?$AAa?$AAp?$AAi?$AA?9?$AAm?$AAs?$AA?9?$AAw?$AAi?$AAn?$AA?9?$AAc?$AAo?$AAr?$AAe?$AA?9?$AAf?$AAi?$AAl?$AAe?$AA?9?$AAl?$AA2?$AA?9?$AA1?$AA?9?$AA1?$AA?$AA@ 10020754     libucrt:winapi_thunks.obj
 0002:00002790       ??_C@_1EI@MPIAOHOC@?$AAa?$AAp?$AAi?$AA?9?$AAm?$AAs?$AA?9?$AAw?$AAi?$AAn?$AA?9?$AAc?$AAo?$AAr?$AAe?$AA?9?$AAl?$AAo?$AAc?$AAa?$AAl?$AAi?$AAz?$AAa?$AAt?$AAi?$AAo?$AAn?$AA?9?$AAl?$AA1?$AA?9@ 10020790     libucrt:winapi_thunks.obj
 0002:000027d8       ??_C@_1FK@FPHCKFIE@?$AAa?$AAp?$AAi?$AA?9?$AAm?$AAs?$AA?9?$AAw?$AAi?$AAn?$AA?9?$AAc?$AAo?$AAr?$AAe?$AA?9?$AAl?$AAo?$AAc?$AAa?$AAl?$AAi?$AAz?$AAa?$AAt?$AAi?$AAo?$AAn?$AA?9?$AAo?$AAb?$AAs@ 100207d8     libucrt:winapi_thunks.obj
 0002:00002838       ??_C@_1EM@DILCGIIO@?$AAa?$AAp?$AAi?$AA?9?$AAm?$AAs?$AA?9?$AAw?$AAi?$AAn?$AA?9?$AAc?$AAo?$AAr?$AAe?$AA?9?$AAp?$AAr?$AAo?$AAc?$AAe?$AAs?$AAs?$AAt?$AAh?$AAr?$AAe?$AAa?$AAd?$AAs?$AA?9?$AAl@ 10020838     libucrt:winapi_thunks.obj
 0002:00002884       ??_C@_1DM@LNCGDDPN@?$AAa?$AAp?$AAi?$AA?9?$AAm?$AAs?$AA?9?$AAw?$AAi?$AAn?$AA?9?$AAc?$AAo?$AAr?$AAe?$AA?9?$AAs?$AAt?$AAr?$AAi?$AAn?$AAg?$AA?9?$AAl?$AA1?$AA?9?$AA1?$AA?9?$AA0?$AA?$AA@ 10020884     libucrt:winapi_thunks.obj
 0002:000028c0       ??_C@_1DK@LPPGFMPP@?$AAa?$AAp?$AAi?$AA?9?$AAm?$AAs?$AA?9?$AAw?$AAi?$AAn?$AA?9?$AAc?$AAo?$AAr?$AAe?$AA?9?$AAs?$AAy?$AAn?$AAc?$AAh?$AA?9?$AAl?$AA1?$AA?9?$AA2?$AA?9?$AA0?$AA?$AA@ 100208c0     libucrt:winapi_thunks.obj
 0002:000028fc       ??_C@_1DO@FPAPJEMD@?$AAa?$AAp?$AAi?$AA?9?$AAm?$AAs?$AA?9?$AAw?$AAi?$AAn?$AA?9?$AAc?$AAo?$AAr?$AAe?$AA?9?$AAs?$AAy?$AAs?$AAi?$AAn?$AAf?$AAo?$AA?9?$AAl?$AA1?$AA?9?$AA2?$AA?9?$AA1?$AA?$AA@ 100208fc     libucrt:winapi_thunks.obj
 0002:0000293c       ??_C@_1DK@NDHNAHIO@?$AAa?$AAp?$AAi?$AA?9?$AAm?$AAs?$AA?9?$AAw?$AAi?$AAn?$AA?9?$AAc?$AAo?$AAr?$AAe?$AA?9?$AAw?$AAi?$AAn?$AAr?$AAt?$AA?9?$AAl?$AA1?$AA?9?$AA1?$AA?9?$AA0?$AA?$AA@ 1002093c     libucrt:winapi_thunks.obj
 0002:00002978       ??_C@_1DM@KGHDGBCM@?$AAa?$AAp?$AAi?$AA?9?$AAm?$AAs?$AA?9?$AAw?$AAi?$AAn?$AA?9?$AAc?$AAo?$AAr?$AAe?$AA?9?$AAx?$AAs?$AAt?$AAa?$AAt?$AAe?$AA?9?$AAl?$AA2?$AA?9?$AA1?$AA?9?$AA0?$AA?$AA@ 10020978     libucrt:winapi_thunks.obj
 0002:000029b8       ??_C@_1EO@IJIOEFOH@?$AAa?$AAp?$AAi?$AA?9?$AAm?$AAs?$AA?9?$AAw?$AAi?$AAn?$AA?9?$AAr?$AAt?$AAc?$AAo?$AAr?$AAe?$AA?9?$AAn?$AAt?$AAu?$AAs?$AAe?$AAr?$AA?9?$AAw?$AAi?$AAn?$AAd?$AAo?$AAw?$AA?9@ 100209b8     libucrt:winapi_thunks.obj
 0002:00002a08       ??_C@_1FG@HHGEKANL@?$AAa?$AAp?$AAi?$AA?9?$AAm?$AAs?$AA?9?$AAw?$AAi?$AAn?$AA?9?$AAs?$AAe?$AAc?$AAu?$AAr?$AAi?$AAt?$AAy?$AA?9?$AAs?$AAy?$AAs?$AAt?$AAe?$AAm?$AAf?$AAu?$AAn?$AAc?$AAt?$AAi@ 10020a08     libucrt:winapi_thunks.obj
 0002:00002a60       ??_C@_1FG@NCKKOLKO@?$AAe?$AAx?$AAt?$AA?9?$AAm?$AAs?$AA?9?$AAw?$AAi?$AAn?$AA?9?$AAk?$AAe?$AAr?$AAn?$AAe?$AAl?$AA3?$AA2?$AA?9?$AAp?$AAa?$AAc?$AAk?$AAa?$AAg?$AAe?$AA?9?$AAc?$AAu?$AAr?$AAr@ 10020a60     libucrt:winapi_thunks.obj
 0002:00002ab8       ??_C@_1EG@DBIOJECG@?$AAe?$AAx?$AAt?$AA?9?$AAm?$AAs?$AA?9?$AAw?$AAi?$AAn?$AA?9?$AAn?$AAt?$AAu?$AAs?$AAe?$AAr?$AA?9?$AAd?$AAi?$AAa?$AAl?$AAo?$AAg?$AAb?$AAo?$AAx?$AA?9?$AAl?$AA1?$AA?9?$AA1@ 10020ab8     libucrt:winapi_thunks.obj
 0002:00002b00       ??_C@_1EO@FIHMJCLF@?$AAe?$AAx?$AAt?$AA?9?$AAm?$AAs?$AA?9?$AAw?$AAi?$AAn?$AA?9?$AAn?$AAt?$AAu?$AAs?$AAe?$AAr?$AA?9?$AAw?$AAi?$AAn?$AAd?$AAo?$AAw?$AAs?$AAt?$AAa?$AAt?$AAi?$AAo?$AAn?$AA?9@ 10020b00     libucrt:winapi_thunks.obj
 0002:00002b50       ??_C@_1BC@DNHGCMLG@?$AAa?$AAd?$AAv?$AAa?$AAp?$AAi?$AA3?$AA2?$AA?$AA@ 10020b50     libucrt:winapi_thunks.obj
 0002:00002b64       ??_C@_1BC@GDMECMAK@?$AAk?$AAe?$AAr?$AAn?$AAe?$AAl?$AA3?$AA2?$AA?$AA@ 10020b64     libucrt:winapi_thunks.obj
 0002:00002b78       ??_C@_1O@BCCLBEOE@?$AAu?$AAs?$AAe?$AAr?$AA3?$AA2?$AA?$AA@ 10020b78     libucrt:winapi_thunks.obj
 0002:00002b90       ??_C@_08KNHFBNJ@FlsAlloc?$AA@ 10020b90     libucrt:winapi_thunks.obj
 0002:00002ba4       ??_C@_07PEJMOBNF@FlsFree?$AA@ 10020ba4     libucrt:winapi_thunks.obj
 0002:00002bb4       ??_C@_0M@GDNOONDI@FlsGetValue?$AA@ 10020bb4     libucrt:winapi_thunks.obj
 0002:00002bc8       ??_C@_0M@JCPCPOEF@FlsSetValue?$AA@ 10020bc8     libucrt:winapi_thunks.obj
 0002:00002bdc       ??_C@_0BE@JOGNEJCI@GetCurrentPackageId?$AA@ 10020bdc     libucrt:winapi_thunks.obj
 0002:00002bf8       ??_C@_0BM@HCFOFFN@InitializeCriticalSectionEx?$AA@ 10020bf8     libucrt:winapi_thunks.obj
 0002:00002c1c       ??_C@_0O@KKBNKAPF@LCMapStringEx?$AA@ 10020c1c     libucrt:winapi_thunks.obj
 0002:00002c34       ??_C@_0BB@HBDEELFH@LocaleNameToLCID?$AA@ 10020c34     libucrt:winapi_thunks.obj
 0002:00002c50       ??_C@_0BI@BKLFFAPO@SetThreadStackGuarantee?$AA@ 10020c50     libucrt:winapi_thunks.obj
 0002:00002c68       ??_C@_03OEIAHPBN@INF?$AA@  10020c68     libucrt:cvt.obj
 0002:00002c6c       ??_C@_03OJHLLCGB@inf?$AA@  10020c6c     libucrt:cvt.obj
 0002:00002c70       ??_C@_03LKNCIKJB@NAN?$AA@  10020c70     libucrt:cvt.obj
 0002:00002c74       ??_C@_03LHCJEHON@nan?$AA@  10020c74     libucrt:cvt.obj
 0002:00002c78       ??_C@_09OFJJIMPC@NAN?$CISNAN?$CJ?$AA@ 10020c78     libucrt:cvt.obj
 0002:00002c84       ??_C@_09IPFBKMDL@nan?$CIsnan?$CJ?$AA@ 10020c84     libucrt:cvt.obj
 0002:00002c90       ??_C@_08IKHNHAJ@NAN?$CIIND?$CJ?$AA@ 10020c90     libucrt:cvt.obj
 0002:00002c9c       ??_C@_08OFCDMILK@nan?$CIind?$CJ?$AA@ 10020c9c     libucrt:cvt.obj
 0002:00002ca8       ??_C@_05KLBDPFGC@e?$CL000?$AA@ 10020ca8     libucrt:cvt.obj
 0002:00002cb0       ??_C@_03KOEHGMDN@Sun?$AA@  10020cb0     libucrt:nlsdata.obj
 0002:00002cb4       ??_C@_03PDAGKDH@Mon?$AA@   10020cb4     libucrt:nlsdata.obj
 0002:00002cb8       ??_C@_03NAGEINEP@Tue?$AA@  10020cb8     libucrt:nlsdata.obj
 0002:00002cbc       ??_C@_03MHOMLAJA@Wed?$AA@  10020cbc     libucrt:nlsdata.obj
 0002:00002cc0       ??_C@_03IOFIKPDN@Thu?$AA@  10020cc0     libucrt:nlsdata.obj
 0002:00002cc4       ??_C@_03IDIOELNC@Fri?$AA@  10020cc4     libucrt:nlsdata.obj
 0002:00002cc8       ??_C@_03FEFJNEK@Sat?$AA@   10020cc8     libucrt:nlsdata.obj
 0002:00002ccc       ??_C@_06OOPIFAJ@Sunday?$AA@ 10020ccc     libucrt:nlsdata.obj
 0002:00002cd4       ??_C@_06JLEDEDGH@Monday?$AA@ 10020cd4     libucrt:nlsdata.obj
 0002:00002cdc       ??_C@_07BAAGCFCM@Tuesday?$AA@ 10020cdc     libucrt:nlsdata.obj
 0002:00002ce4       ??_C@_09DLIGFAKA@Wednesday?$AA@ 10020ce4     libucrt:nlsdata.obj
 0002:00002cf0       ??_C@_08HACCIKIA@Thursday?$AA@ 10020cf0     libucrt:nlsdata.obj
 0002:00002cfc       ??_C@_06JECMNKMI@Friday?$AA@ 10020cfc     libucrt:nlsdata.obj
 0002:00002d04       ??_C@_08INBOOONO@Saturday?$AA@ 10020d04     libucrt:nlsdata.obj
 0002:00002d10       ??_C@_03JIHJHPIE@Jan?$AA@  10020d10     libucrt:nlsdata.obj
 0002:00002d14       ??_C@_03HJBDCHOM@Feb?$AA@  10020d14     libucrt:nlsdata.obj
 0002:00002d18       ??_C@_03ODNJBKGA@Mar?$AA@  10020d18     libucrt:nlsdata.obj
 0002:00002d1c       ??_C@_03LEOLGMJP@Apr?$AA@  10020d1c     libucrt:nlsdata.obj
 0002:00002d20       ??_C@_03CNMDKL@May?$AA@    10020d20     libucrt:nlsdata.obj
 0002:00002d24       ??_C@_03IDFGHECI@Jun?$AA@  10020d24     libucrt:nlsdata.obj
 0002:00002d28       ??_C@_03LBGABGKK@Jul?$AA@  10020d28     libucrt:nlsdata.obj
 0002:00002d2c       ??_C@_03IFJFEIGA@Aug?$AA@  10020d2c     libucrt:nlsdata.obj
 0002:00002d30       ??_C@_03GGCAPAJC@Sep?$AA@  10020d30     libucrt:nlsdata.obj
 0002:00002d34       ??_C@_03BMAOKBAD@Oct?$AA@  10020d34     libucrt:nlsdata.obj
 0002:00002d38       ??_C@_03JPJOFNIA@Nov?$AA@  10020d38     libucrt:nlsdata.obj
 0002:00002d3c       ??_C@_03MKABNOCG@Dec?$AA@  10020d3c     libucrt:nlsdata.obj
 0002:00002d40       ??_C@_07CGJPFGJA@January?$AA@ 10020d40     libucrt:nlsdata.obj
 0002:00002d48       ??_C@_08GNJGEPFN@February?$AA@ 10020d48     libucrt:nlsdata.obj
 0002:00002d54       ??_C@_05HPCKOFNC@March?$AA@ 10020d54     libucrt:nlsdata.obj
 0002:00002d5c       ??_C@_05DMJDNLEJ@April?$AA@ 10020d5c     libucrt:nlsdata.obj
 0002:00002d64       ??_C@_04CNLMGBGM@June?$AA@ 10020d64     libucrt:nlsdata.obj
 0002:00002d6c       ??_C@_04MIEPOIFP@July?$AA@ 10020d6c     libucrt:nlsdata.obj
 0002:00002d74       ??_C@_06LBBHFDDG@August?$AA@ 10020d74     libucrt:nlsdata.obj
 0002:00002d7c       ??_C@_09BHHEALKD@September?$AA@ 10020d7c     libucrt:nlsdata.obj
 0002:00002d88       ??_C@_07JJNFCEND@October?$AA@ 10020d88     libucrt:nlsdata.obj
 0002:00002d90       ??_C@_08HCHEGEOA@November?$AA@ 10020d90     libucrt:nlsdata.obj
 0002:00002d9c       ??_C@_08EDHMEBNP@December?$AA@ 10020d9c     libucrt:nlsdata.obj
 0002:00002da8       ??_C@_02DEDBPAFC@AM?$AA@   10020da8     libucrt:nlsdata.obj
 0002:00002dac       ??_C@_02CJNFDJBF@PM?$AA@   10020dac     libucrt:nlsdata.obj
 0002:00002db0       ??_C@_08BPBNCDIB@MM?1dd?1yy?$AA@ 10020db0     libucrt:nlsdata.obj
 0002:00002dbc       ??_C@_0BE@CKGJFCPC@dddd?0?5MMMM?5dd?0?5yyyy?$AA@ 10020dbc     libucrt:nlsdata.obj
 0002:00002dd0       ??_C@_08JCCMCCIL@HH?3mm?3ss?$AA@ 10020dd0     libucrt:nlsdata.obj
 0002:00002ddc       ??_C@_17MBGCMIPB@?$AAS?$AAu?$AAn?$AA?$AA@ 10020ddc     libucrt:nlsdata.obj
 0002:00002de4       ??_C@_17KBOMKBF@?$AAM?$AAo?$AAn?$AA?$AA@ 10020de4     libucrt:nlsdata.obj
 0002:00002dec       ??_C@_17BMKGEGOJ@?$AAT?$AAu?$AAe?$AA?$AA@ 10020dec     libucrt:nlsdata.obj
 0002:00002df4       ??_C@_17CJEDCEPE@?$AAW?$AAe?$AAd?$AA?$AA@ 10020df4     libucrt:nlsdata.obj
 0002:00002dfc       ??_C@_17PDPHAADD@?$AAT?$AAh?$AAu?$AA?$AA@ 10020dfc     libucrt:nlsdata.obj
 0002:00002e04       ??_C@_17HFOLPPLP@?$AAF?$AAr?$AAi?$AA?$AA@ 10020e04     libucrt:nlsdata.obj
 0002:00002e0c       ??_C@_17GGIBDPIH@?$AAS?$AAa?$AAt?$AA?$AA@ 10020e0c     libucrt:nlsdata.obj
 0002:00002e14       ??_C@_1O@IHNHDHPB@?$AAS?$AAu?$AAn?$AAd?$AAa?$AAy?$AA?$AA@ 10020e14     libucrt:nlsdata.obj
 0002:00002e24       ??_C@_1O@MMNBFLIA@?$AAM?$AAo?$AAn?$AAd?$AAa?$AAy?$AA?$AA@ 10020e24     libucrt:nlsdata.obj
 0002:00002e34       ??_C@_1BA@ENFBFFEK@?$AAT?$AAu?$AAe?$AAs?$AAd?$AAa?$AAy?$AA?$AA@ 10020e34     libucrt:nlsdata.obj
 0002:00002e44       ??_C@_1BE@EBOGMDOH@?$AAW?$AAe?$AAd?$AAn?$AAe?$AAs?$AAd?$AAa?$AAy?$AA?$AA@ 10020e44     libucrt:nlsdata.obj
 0002:00002e58       ??_C@_1BC@HHMNLIHE@?$AAT?$AAh?$AAu?$AAr?$AAs?$AAd?$AAa?$AAy?$AA?$AA@ 10020e58     libucrt:nlsdata.obj
 0002:00002e6c       ??_C@_1O@PDICJHAG@?$AAF?$AAr?$AAi?$AAd?$AAa?$AAy?$AA?$AA@ 10020e6c     libucrt:nlsdata.obj
 0002:00002e7c       ??_C@_1BC@ENMNNPAJ@?$AAS?$AAa?$AAt?$AAu?$AAr?$AAd?$AAa?$AAy?$AA?$AA@ 10020e7c     libucrt:nlsdata.obj
 0002:00002e90       ??_C@_17DKNBKCHM@?$AAJ?$AAa?$AAn?$AA?$AA@ 10020e90     libucrt:nlsdata.obj
 0002:00002e98       ??_C@_17LMDJEKJN@?$AAF?$AAe?$AAb?$AA?$AA@ 10020e98     libucrt:nlsdata.obj
 0002:00002ea0       ??_C@_17CKNLEDEC@?$AAM?$AAa?$AAr?$AA?$AA@ 10020ea0     libucrt:nlsdata.obj
 0002:00002ea8       ??_C@_17LFPOIHDD@?$AAA?$AAp?$AAr?$AA?$AA@ 10020ea8     libucrt:nlsdata.obj
 0002:00002eb0       ??_C@_17PNNKMEED@?$AAM?$AAa?$AAy?$AA?$AA@ 10020eb0     libucrt:nlsdata.obj
 0002:00002eb8       ??_C@_17KCJGOCPB@?$AAJ?$AAu?$AAn?$AA?$AA@ 10020eb8     libucrt:nlsdata.obj
 0002:00002ec0       ??_C@_17IJPCKHK@?$AAJ?$AAu?$AAl?$AA?$AA@ 10020ec0     libucrt:nlsdata.obj
 0002:00002ec8       ??_C@_17ICPELBCN@?$AAA?$AAu?$AAg?$AA?$AA@ 10020ec8     libucrt:nlsdata.obj
 0002:00002ed0       ??_C@_17HCHCOKMG@?$AAS?$AAe?$AAp?$AA?$AA@ 10020ed0     libucrt:nlsdata.obj
 0002:00002ed8       ??_C@_17FNLKOI@?$AAO?$AAc?$AAt?$AA?$AA@ 10020ed8     libucrt:nlsdata.obj
 0002:00002ee0       ??_C@_17BBDMLCIG@?$AAN?$AAo?$AAv?$AA?$AA@ 10020ee0     libucrt:nlsdata.obj
 0002:00002ee8       ??_C@_17EGKACKIF@?$AAD?$AAe?$AAc?$AA?$AA@ 10020ee8     libucrt:nlsdata.obj
 0002:00002ef0       ??_C@_1BA@EFMEIEBA@?$AAJ?$AAa?$AAn?$AAu?$AAa?$AAr?$AAy?$AA?$AA@ 10020ef0     libucrt:nlsdata.obj
 0002:00002f00       ??_C@_1BC@JGDDFFAM@?$AAF?$AAe?$AAb?$AAr?$AAu?$AAa?$AAr?$AAy?$AA?$AA@ 10020f00     libucrt:nlsdata.obj
 0002:00002f14       ??_C@_1M@IKEENEDF@?$AAM?$AAa?$AAr?$AAc?$AAh?$AA?$AA@ 10020f14     libucrt:nlsdata.obj
 0002:00002f20       ??_C@_1M@GJNLMHFD@?$AAA?$AAp?$AAr?$AAi?$AAl?$AA?$AA@ 10020f20     libucrt:nlsdata.obj
 0002:00002f2c       ??_C@_19EPFLPGAP@?$AAJ?$AAu?$AAn?$AAe?$AA?$AA@ 10020f2c     libucrt:nlsdata.obj
 0002:00002f38       ??_C@_19BIFMLPCD@?$AAJ?$AAu?$AAl?$AAy?$AA?$AA@ 10020f38     libucrt:nlsdata.obj
 0002:00002f44       ??_C@_1O@PAHLKOAC@?$AAA?$AAu?$AAg?$AAu?$AAs?$AAt?$AA?$AA@ 10020f44     libucrt:nlsdata.obj
 0002:00002f54       ??_C@_1BE@DKAAMBJL@?$AAS?$AAe?$AAp?$AAt?$AAe?$AAm?$AAb?$AAe?$AAr?$AA?$AA@ 10020f54     libucrt:nlsdata.obj
 0002:00002f68       ??_C@_1BA@EPANDLNG@?$AAO?$AAc?$AAt?$AAo?$AAb?$AAe?$AAr?$AA?$AA@ 10020f68     libucrt:nlsdata.obj
 0002:00002f78       ??_C@_1BC@BGLIFPF@?$AAN?$AAo?$AAv?$AAe?$AAm?$AAb?$AAe?$AAr?$AA?$AA@ 10020f78     libucrt:nlsdata.obj
 0002:00002f8c       ??_C@_1BC@FEMKIFH@?$AAD?$AAe?$AAc?$AAe?$AAm?$AAb?$AAe?$AAr?$AA?$AA@ 10020f8c     libucrt:nlsdata.obj
 0002:00002fa0       ??_C@_15ODEHAHHF@?$AAA?$AAM?$AA?$AA@ 10020fa0     libucrt:nlsdata.obj
 0002:00002fa8       ??_C@_15CLMNNGEL@?$AAP?$AAM?$AA?$AA@ 10020fa8     libucrt:nlsdata.obj
 0002:00002fb0       ??_C@_1BC@IEBCMHCM@?$AAM?$AAM?$AA?1?$AAd?$AAd?$AA?1?$AAy?$AAy?$AA?$AA@ 10020fb0     libucrt:nlsdata.obj
 0002:00002fc4       ??_C@_1CI@KNAKOEBC@?$AAd?$AAd?$AAd?$AAd?$AA?0?$AA?5?$AAM?$AAM?$AAM?$AAM?$AA?5?$AAd?$AAd?$AA?0?$AA?5?$AAy?$AAy?$AAy?$AAy?$AA?$AA@ 10020fc4     libucrt:nlsdata.obj
 0002:00002fec       ??_C@_1BC@GDGBMEMK@?$AAH?$AAH?$AA?3?$AAm?$AAm?$AA?3?$AAs?$AAs?$AA?$AA@ 10020fec     libucrt:nlsdata.obj
 0002:00003000       ??_C@_1M@BMHNFIME@?$AAe?$AAn?$AA?9?$AAU?$AAS?$AA?$AA@ 10021000     libucrt:nlsdata.obj
 0002:00003010       ___lc_time_c               10021010     libucrt:nlsdata.obj
 0002:00003184       ??_C@_1M@HPNHIDJI@?$AAj?$AAa?$AA?9?$AAJ?$AAP?$AA?$AA@ 10021184     libucrt:mbctype.obj
 0002:00003190       ??_C@_1M@BIBDDEMK@?$AAz?$AAh?$AA?9?$AAC?$AAN?$AA?$AA@ 10021190     libucrt:mbctype.obj
 0002:0000319c       ??_C@_1M@JLOOOEGK@?$AAk?$AAo?$AA?9?$AAK?$AAR?$AA?$AA@ 1002119c     libucrt:mbctype.obj
 0002:000031a8       ??_C@_1M@CLNBBOPM@?$AAz?$AAh?$AA?9?$AAT?$AAW?$AA?$AA@ 100211a8     libucrt:mbctype.obj
 0002:000031b8       __wctype                   100211b8     libucrt:ctype.obj
 0002:000033c0       ___newctype                100213c0     libucrt:ctype.obj
 0002:000036c0       ___newclmap                100216c0     libucrt:ctype.obj
 0002:00003840       ___newcumap                10021840     libucrt:ctype.obj
 0002:000040e0       ??_C@_15EMKDOKLE@?$AAa?$AAr?$AA?$AA@ 100220e0     libucrt:lcidtoname_downlevel.obj
 0002:000040e8       ??_C@_15KNPADPLH@?$AAb?$AAg?$AA?$AA@ 100220e8     libucrt:lcidtoname_downlevel.obj
 0002:000040f0       ??_C@_15EDMHLDMO@?$AAc?$AAa?$AA?$AA@ 100220f0     libucrt:lcidtoname_downlevel.obj
 0002:000040f8       ??_C@_1O@BPEAJADD@?$AAz?$AAh?$AA?9?$AAC?$AAH?$AAS?$AA?$AA@ 100220f8     libucrt:lcidtoname_downlevel.obj
 0002:00004108       ??_C@_15LJNHCMNK@?$AAc?$AAs?$AA?$AA@ 10022108     libucrt:lcidtoname_downlevel.obj
 0002:00004110       ??_C@_15FOMCIDHG@?$AAd?$AAa?$AA?$AA@ 10022110     libucrt:lcidtoname_downlevel.obj
 0002:00004118       ??_C@_15NBKABECB@?$AAd?$AAe?$AA?$AA@ 10022118     libucrt:lcidtoname_downlevel.obj
 0002:00004120       ??_C@_15GHPEIIAO@?$AAe?$AAl?$AA?$AA@ 10022120     libucrt:lcidtoname_downlevel.obj
 0002:00004128       ??_C@_15MNPNEAIF@?$AAe?$AAn?$AA?$AA@ 10022128     libucrt:lcidtoname_downlevel.obj
 0002:00004130       ??_C@_15GPIOMPMH@?$AAe?$AAs?$AA?$AA@ 10022130     libucrt:lcidtoname_downlevel.obj
 0002:00004138       ??_C@_15NGLOAKJC@?$AAf?$AAi?$AA?$AA@ 10022138     libucrt:lcidtoname_downlevel.obj
 0002:00004140       ??_C@_15FBKGNKAM@?$AAf?$AAr?$AA?$AA@ 10022140     libucrt:lcidtoname_downlevel.obj
 0002:00004148       ??_C@_15KGGCNEFK@?$AAh?$AAe?$AA?$AA@ 10022148     libucrt:lcidtoname_downlevel.obj
 0002:00004150       ??_C@_15PGHLIDMF@?$AAh?$AAu?$AA?$AA@ 10022150     libucrt:lcidtoname_downlevel.obj
 0002:00004158       ??_C@_15BIEMAPLM@?$AAi?$AAs?$AA?$AA@ 10022158     libucrt:lcidtoname_downlevel.obj
 0002:00004160       ??_C@_15IFJLDHAF@?$AAi?$AAt?$AA?$AA@ 10022160     libucrt:lcidtoname_downlevel.obj
 0002:00004168       ??_C@_15GEMIOCAG@?$AAj?$AAa?$AA?$AA@ 10022168     libucrt:lcidtoname_downlevel.obj
 0002:00004170       ??_C@_15EPELEGJA@?$AAk?$AAo?$AA?$AA@ 10022170     libucrt:lcidtoname_downlevel.obj
 0002:00004178       ??_C@_15NDDHIMN@?$AAn?$AAl?$AA?$AA@ 10022178     libucrt:lcidtoname_downlevel.obj
 0002:00004180       ??_C@_15BPIGNHCD@?$AAn?$AAo?$AA?$AA@ 10022180     libucrt:lcidtoname_downlevel.obj
 0002:00004188       ??_C@_15DEOPBLCG@?$AAp?$AAl?$AA?$AA@ 10022188     libucrt:lcidtoname_downlevel.obj
 0002:00004190       ??_C@_15KBECGEFG@?$AAp?$AAt?$AA?$AA@ 10022190     libucrt:lcidtoname_downlevel.obj
 0002:00004198       ??_C@_15GLJCBFMD@?$AAr?$AAo?$AA?$AA@ 10022198     libucrt:lcidtoname_downlevel.obj
 0002:000041a0       ??_C@_15FEDGKCDI@?$AAr?$AAu?$AA?$AA@ 100221a0     libucrt:lcidtoname_downlevel.obj
 0002:000041a8       ??_C@_15GLKMLLHM@?$AAh?$AAr?$AA?$AA@ 100221a8     libucrt:lcidtoname_downlevel.obj
 0002:000041b0       ??_C@_15CPKMFBDB@?$AAs?$AAk?$AA?$AA@ 100221b0     libucrt:lcidtoname_downlevel.obj
 0002:000041b8       ??_C@_15BAAIOGMK@?$AAs?$AAq?$AA?$AA@ 100221b8     libucrt:lcidtoname_downlevel.obj
 0002:000041c0       ??_C@_15INNPNOHD@?$AAs?$AAv?$AA?$AA@ 100221c0     libucrt:lcidtoname_downlevel.obj
 0002:000041c8       ??_C@_15CABMMOGH@?$AAt?$AAh?$AA?$AA@ 100221c8     libucrt:lcidtoname_downlevel.obj
 0002:000041d0       ??_C@_15BPLIHJJM@?$AAt?$AAr?$AA?$AA@ 100221d0     libucrt:lcidtoname_downlevel.obj
 0002:000041d8       ??_C@_15NEOEKKDJ@?$AAu?$AAr?$AA?$AA@ 100221d8     libucrt:lcidtoname_downlevel.obj
 0002:000041e0       ??_C@_15NFICGAJK@?$AAi?$AAd?$AA?$AA@ 100221e0     libucrt:lcidtoname_downlevel.obj
 0002:000041e8       ??_C@_15PJPFLCCM@?$AAu?$AAk?$AA?$AA@ 100221e8     libucrt:lcidtoname_downlevel.obj
 0002:000041f0       ??_C@_15HPJPHDM@?$AAb?$AAe?$AA?$AA@ 100221f0     libucrt:lcidtoname_downlevel.obj
 0002:000041f8       ??_C@_15LCHLGJII@?$AAs?$AAl?$AA?$AA@ 100221f8     libucrt:lcidtoname_downlevel.obj
 0002:00004200       ??_C@_15PCFJPHHO@?$AAe?$AAt?$AA?$AA@ 10022200     libucrt:lcidtoname_downlevel.obj
 0002:00004208       ??_C@_15HPFPGODN@?$AAl?$AAv?$AA?$AA@ 10022208     libucrt:lcidtoname_downlevel.obj
 0002:00004210       ??_C@_15NFFGKGLG@?$AAl?$AAt?$AA?$AA@ 10022210     libucrt:lcidtoname_downlevel.obj
 0002:00004218       ??_C@_15BDAKCCHN@?$AAf?$AAa?$AA?$AA@ 10022218     libucrt:lcidtoname_downlevel.obj
 0002:00004220       ??_C@_15NFGIAIAJ@?$AAv?$AAi?$AA?$AA@ 10022220     libucrt:lcidtoname_downlevel.obj
 0002:00004228       ??_C@_15LMKNDMHN@?$AAh?$AAy?$AA?$AA@ 10022228     libucrt:lcidtoname_downlevel.obj
 0002:00004230       ??_C@_15IJBHMCFL@?$AAa?$AAz?$AA?$AA@ 10022230     libucrt:lcidtoname_downlevel.obj
 0002:00004238       ??_C@_15EKOFJABL@?$AAe?$AAu?$AA?$AA@ 10022238     libucrt:lcidtoname_downlevel.obj
 0002:00004240       ??_C@_15BGHADCNK@?$AAm?$AAk?$AA?$AA@ 10022240     libucrt:lcidtoname_downlevel.obj
 0002:00004248       ??_C@_15JDNICKHM@?$AAa?$AAf?$AA?$AA@ 10022248     libucrt:lcidtoname_downlevel.obj
 0002:00004250       ??_C@_15KPJEDBKD@?$AAk?$AAa?$AA?$AA@ 10022250     libucrt:lcidtoname_downlevel.obj
 0002:00004258       ??_C@_15PDNFFFEO@?$AAf?$AAo?$AA?$AA@ 10022258     libucrt:lcidtoname_downlevel.obj
 0002:00004260       ??_C@_15OMLEGLOC@?$AAh?$AAi?$AA?$AA@ 10022260     libucrt:lcidtoname_downlevel.obj
 0002:00004268       ??_C@_15IDNNENKK@?$AAm?$AAs?$AA?$AA@ 10022268     libucrt:lcidtoname_downlevel.obj
 0002:00004270       ??_C@_15MACJNBMH@?$AAk?$AAk?$AA?$AA@ 10022270     libucrt:lcidtoname_downlevel.obj
 0002:00004278       ??_C@_15DKDJEOND@?$AAk?$AAy?$AA?$AA@ 10022278     libucrt:lcidtoname_downlevel.obj
 0002:00004280       ??_C@_15DFGDLJBG@?$AAs?$AAw?$AA?$AA@ 10022280     libucrt:lcidtoname_downlevel.obj
 0002:00004288       ??_C@_15BBFAICNG@?$AAu?$AAz?$AA?$AA@ 10022288     libucrt:lcidtoname_downlevel.obj
 0002:00004290       ??_C@_15DKNDCGEA@?$AAt?$AAt?$AA?$AA@ 10022290     libucrt:lcidtoname_downlevel.obj
 0002:00004298       ??_C@_15MGIFMDPL@?$AAp?$AAa?$AA?$AA@ 10022298     libucrt:lcidtoname_downlevel.obj
 0002:000042a0       ??_C@_15HCNDBBA@?$AAg?$AAu?$AA?$AA@ 100222a0     libucrt:lcidtoname_downlevel.obj
 0002:000042a8       ??_C@_15FNBEIBON@?$AAt?$AAa?$AA?$AA@ 100222a8     libucrt:lcidtoname_downlevel.obj
 0002:000042b0       ??_C@_15NCHGBGLK@?$AAt?$AAe?$AA?$AA@ 100222b0     libucrt:lcidtoname_downlevel.obj
 0002:000042b8       ??_C@_15PHPHCBPF@?$AAk?$AAn?$AA?$AA@ 100222b8     libucrt:lcidtoname_downlevel.obj
 0002:000042c0       ??_C@_15DLGBCKMP@?$AAm?$AAr?$AA?$AA@ 100222c0     libucrt:lcidtoname_downlevel.obj
 0002:000042c8       ??_C@_15EABBLBFF@?$AAs?$AAa?$AA?$AA@ 100222c8     libucrt:lcidtoname_downlevel.obj
 0002:000042d0       ??_C@_15CBKOMCOI@?$AAm?$AAn?$AA?$AA@ 100222d0     libucrt:lcidtoname_downlevel.obj
 0002:000042d8       ??_C@_15CKDMCJAF@?$AAg?$AAl?$AA?$AA@ 100222d8     libucrt:lcidtoname_downlevel.obj
 0002:000042e0       ??_C@_17CNJFBPG@?$AAk?$AAo?$AAk?$AA?$AA@ 100222e0     libucrt:lcidtoname_downlevel.obj
 0002:000042e8       ??_C@_17FFBJICPL@?$AAs?$AAy?$AAr?$AA?$AA@ 100222e8     libucrt:lcidtoname_downlevel.obj
 0002:000042f0       ??_C@_17KPNDCPAF@?$AAd?$AAi?$AAv?$AA?$AA@ 100222f0     libucrt:lcidtoname_downlevel.obj
 0002:000042f8       ??_C@_11LOCGONAA@?$AA?$AA@ 100222f8     libucrt:lcidtoname_downlevel.obj
 0002:000042fc       ??_C@_1M@OKAHONE@?$AAa?$AAr?$AA?9?$AAS?$AAA?$AA?$AA@ 100222fc     libucrt:lcidtoname_downlevel.obj
 0002:00004308       ??_C@_1M@FFFIGIGK@?$AAb?$AAg?$AA?9?$AAB?$AAG?$AA?$AA@ 10022308     libucrt:lcidtoname_downlevel.obj
 0002:00004314       ??_C@_1M@BJNKEDC@?$AAc?$AAa?$AA?9?$AAE?$AAS?$AA?$AA@ 10022314     libucrt:lcidtoname_downlevel.obj
 0002:00004320       ??_C@_1M@IJJHFJHA@?$AAc?$AAs?$AA?9?$AAC?$AAZ?$AA?$AA@ 10022320     libucrt:lcidtoname_downlevel.obj
 0002:0000432c       ??_C@_1M@CLPEOBGI@?$AAd?$AAa?$AA?9?$AAD?$AAK?$AA?$AA@ 1002232c     libucrt:lcidtoname_downlevel.obj
 0002:00004338       ??_C@_1M@MCMADGCB@?$AAd?$AAe?$AA?9?$AAD?$AAE?$AA?$AA@ 10022338     libucrt:lcidtoname_downlevel.obj
 0002:00004344       ??_C@_1M@OOCKEMAM@?$AAe?$AAl?$AA?9?$AAG?$AAR?$AA?$AA@ 10022344     libucrt:lcidtoname_downlevel.obj
 0002:00004350       ??_C@_1M@DDNJFGID@?$AAf?$AAi?$AA?9?$AAF?$AAI?$AA?$AA@ 10022350     libucrt:lcidtoname_downlevel.obj
 0002:0000435c       ??_C@_1M@GLIPPMAC@?$AAf?$AAr?$AA?9?$AAF?$AAR?$AA?$AA@ 1002235c     libucrt:lcidtoname_downlevel.obj
 0002:00004368       ??_C@_1M@GFMCHPE@?$AAh?$AAe?$AA?9?$AAI?$AAL?$AA?$AA@ 10022368     libucrt:lcidtoname_downlevel.obj
 0002:00004374       ??_C@_1M@MHLPGNKM@?$AAh?$AAu?$AA?9?$AAH?$AAU?$AA?$AA@ 10022374     libucrt:lcidtoname_downlevel.obj
 0002:00004380       ??_C@_1M@LPDDNNPN@?$AAi?$AAs?$AA?9?$AAI?$AAS?$AA?$AA@ 10022380     libucrt:lcidtoname_downlevel.obj
 0002:0000438c       ??_C@_1M@MADIPODN@?$AAi?$AAt?$AA?9?$AAI?$AAT?$AA?$AA@ 1002238c     libucrt:lcidtoname_downlevel.obj
 0002:00004398       ??_C@_1M@IHBJJGG@?$AAn?$AAl?$AA?9?$AAN?$AAL?$AA?$AA@ 10022398     libucrt:lcidtoname_downlevel.obj
 0002:000043a4       ??_C@_1M@EANAGDL@?$AAn?$AAb?$AA?9?$AAN?$AAO?$AA?$AA@ 100223a4     libucrt:lcidtoname_downlevel.obj
 0002:000043b0       ??_C@_1M@NEIEMEGP@?$AAp?$AAl?$AA?9?$AAP?$AAL?$AA?$AA@ 100223b0     libucrt:lcidtoname_downlevel.obj
 0002:000043bc       ??_C@_1M@BOCFIGEP@?$AAp?$AAt?$AA?9?$AAB?$AAR?$AA?$AA@ 100223bc     libucrt:lcidtoname_downlevel.obj
 0002:000043c8       ??_C@_1M@IMPFOPBG@?$AAr?$AAo?$AA?9?$AAR?$AAO?$AA?$AA@ 100223c8     libucrt:lcidtoname_downlevel.obj
 0002:000043d4       ??_C@_1M@IDNNEJMM@?$AAr?$AAu?$AA?9?$AAR?$AAU?$AA?$AA@ 100223d4     libucrt:lcidtoname_downlevel.obj
 0002:000043e0       ??_C@_1M@LILEEOGM@?$AAh?$AAr?$AA?9?$AAH?$AAR?$AA?$AA@ 100223e0     libucrt:lcidtoname_downlevel.obj
 0002:000043ec       ??_C@_1M@FKIFEHPB@?$AAs?$AAk?$AA?9?$AAS?$AAK?$AA?$AA@ 100223ec     libucrt:lcidtoname_downlevel.obj
 0002:000043f8       ??_C@_1M@LJMAMNPJ@?$AAs?$AAq?$AA?9?$AAA?$AAL?$AA?$AA@ 100223f8     libucrt:lcidtoname_downlevel.obj
 0002:00004404       ??_C@_1M@GIAKDKJK@?$AAs?$AAv?$AA?9?$AAS?$AAE?$AA?$AA@ 10022404     libucrt:lcidtoname_downlevel.obj
 0002:00004410       ??_C@_1M@MKJKIKCL@?$AAt?$AAh?$AA?9?$AAT?$AAH?$AA?$AA@ 10022410     libucrt:lcidtoname_downlevel.obj
 0002:0000441c       ??_C@_1M@MFLCCMPB@?$AAt?$AAr?$AA?9?$AAT?$AAR?$AA?$AA@ 1002241c     libucrt:lcidtoname_downlevel.obj
 0002:00004428       ??_C@_1M@OIJHDKJN@?$AAu?$AAr?$AA?9?$AAP?$AAK?$AA?$AA@ 10022428     libucrt:lcidtoname_downlevel.obj
 0002:00004434       ??_C@_1M@LHIPCIEK@?$AAi?$AAd?$AA?9?$AAI?$AAD?$AA?$AA@ 10022434     libucrt:lcidtoname_downlevel.obj
 0002:00004440       ??_C@_1M@MFMOBGI@?$AAu?$AAk?$AA?9?$AAU?$AAA?$AA?$AA@ 10022440     libucrt:lcidtoname_downlevel.obj
 0002:0000444c       ??_C@_1M@OBGLJIPL@?$AAb?$AAe?$AA?9?$AAB?$AAY?$AA?$AA@ 1002244c     libucrt:lcidtoname_downlevel.obj
 0002:00004458       ??_C@_1M@BCFAJEAD@?$AAs?$AAl?$AA?9?$AAS?$AAI?$AA?$AA@ 10022458     libucrt:lcidtoname_downlevel.obj
 0002:00004464       ??_C@_1M@FKFFEDDN@?$AAe?$AAt?$AA?9?$AAE?$AAE?$AA?$AA@ 10022464     libucrt:lcidtoname_downlevel.obj
 0002:00004470       ??_C@_1M@KGKKAACI@?$AAl?$AAv?$AA?9?$AAL?$AAV?$AA?$AA@ 10022470     libucrt:lcidtoname_downlevel.obj
 0002:0000447c       ??_C@_1M@IFGBIJO@?$AAl?$AAt?$AA?9?$AAL?$AAT?$AA?$AA@ 1002247c     libucrt:lcidtoname_downlevel.obj
 0002:00004488       ??_C@_1M@FGEAHEDM@?$AAf?$AAa?$AA?9?$AAI?$AAR?$AA?$AA@ 10022488     libucrt:lcidtoname_downlevel.obj
 0002:00004494       ??_C@_1M@KBMAIBFN@?$AAv?$AAi?$AA?9?$AAV?$AAN?$AA?$AA@ 10022494     libucrt:lcidtoname_downlevel.obj
 0002:000044a0       ??_C@_1M@GPCBKDJK@?$AAh?$AAy?$AA?9?$AAA?$AAM?$AA?$AA@ 100224a0     libucrt:lcidtoname_downlevel.obj
 0002:000044ac       ??_C@_1BG@BECMDDJB@?$AAa?$AAz?$AA?9?$AAA?$AAZ?$AA?9?$AAL?$AAa?$AAt?$AAn?$AA?$AA@ 100224ac     libucrt:lcidtoname_downlevel.obj
 0002:000044c4       ??_C@_1M@MAOFCAEA@?$AAe?$AAu?$AA?9?$AAE?$AAS?$AA?$AA@ 100224c4     libucrt:lcidtoname_downlevel.obj
 0002:000044d0       ??_C@_1M@IGHABKPI@?$AAm?$AAk?$AA?9?$AAM?$AAK?$AA?$AA@ 100224d0     libucrt:lcidtoname_downlevel.obj
 0002:000044dc       ??_C@_1M@IAIGNEJG@?$AAt?$AAn?$AA?9?$AAZ?$AAA?$AA?$AA@ 100224dc     libucrt:lcidtoname_downlevel.obj
 0002:000044e8       ??_C@_1M@IIJCOJFA@?$AAx?$AAh?$AA?9?$AAZ?$AAA?$AA?$AA@ 100224e8     libucrt:lcidtoname_downlevel.obj
 0002:000044f4       ??_C@_1M@LGPJHNJH@?$AAz?$AAu?$AA?9?$AAZ?$AAA?$AA?$AA@ 100224f4     libucrt:lcidtoname_downlevel.obj
 0002:00004500       ??_C@_1M@HOKAOIO@?$AAa?$AAf?$AA?9?$AAZ?$AAA?$AA?$AA@ 10022500     libucrt:lcidtoname_downlevel.obj
 0002:0000450c       ??_C@_1M@DPCLHLIE@?$AAk?$AAa?$AA?9?$AAG?$AAE?$AA?$AA@ 1002250c     libucrt:lcidtoname_downlevel.obj
 0002:00004518       ??_C@_1M@BLKMHJBI@?$AAf?$AAo?$AA?9?$AAF?$AAO?$AA?$AA@ 10022518     libucrt:lcidtoname_downlevel.obj
 0002:00004524       ??_C@_1M@LGGJAPPB@?$AAh?$AAi?$AA?9?$AAI?$AAN?$AA?$AA@ 10022524     libucrt:lcidtoname_downlevel.obj
 0002:00004530       ??_C@_1M@FIKPIHFE@?$AAm?$AAt?$AA?9?$AAM?$AAT?$AA?$AA@ 10022530     libucrt:lcidtoname_downlevel.obj
 0002:0000453c       ??_C@_1M@HEGGPBFA@?$AAs?$AAe?$AA?9?$AAN?$AAO?$AA?$AA@ 1002253c     libucrt:lcidtoname_downlevel.obj
 0002:00004548       ??_C@_1M@EIBJEEPA@?$AAm?$AAs?$AA?9?$AAM?$AAY?$AA?$AA@ 10022548     libucrt:lcidtoname_downlevel.obj
 0002:00004554       ??_C@_1M@FHLBGMPP@?$AAk?$AAk?$AA?9?$AAK?$AAZ?$AA?$AA@ 10022554     libucrt:lcidtoname_downlevel.obj
 0002:00004560       ??_C@_1M@NGJJLCGI@?$AAk?$AAy?$AA?9?$AAK?$AAG?$AA?$AA@ 10022560     libucrt:lcidtoname_downlevel.obj
 0002:0000456c       ??_C@_1M@GIENNBFC@?$AAs?$AAw?$AA?9?$AAK?$AAE?$AA?$AA@ 1002256c     libucrt:lcidtoname_downlevel.obj
 0002:00004578       ??_C@_1BG@NDGMJIMJ@?$AAu?$AAz?$AA?9?$AAU?$AAZ?$AA?9?$AAL?$AAa?$AAt?$AAn?$AA?$AA@ 10022578     libucrt:lcidtoname_downlevel.obj
 0002:00004590       ??_C@_1M@IDCCIHBC@?$AAt?$AAt?$AA?9?$AAR?$AAU?$AA?$AA@ 10022590     libucrt:lcidtoname_downlevel.obj
 0002:0000459c       ??_C@_1M@LOICPMOJ@?$AAb?$AAn?$AA?9?$AAI?$AAN?$AA?$AA@ 1002259c     libucrt:lcidtoname_downlevel.obj
 0002:000045a8       ??_C@_1M@KPKKNEAH@?$AAp?$AAa?$AA?9?$AAI?$AAN?$AA?$AA@ 100225a8     libucrt:lcidtoname_downlevel.obj
 0002:000045b4       ??_C@_1M@PJGPPBOG@?$AAg?$AAu?$AA?9?$AAI?$AAN?$AA?$AA@ 100225b4     libucrt:lcidtoname_downlevel.obj
 0002:000045c0       ??_C@_1M@KMKMOPHI@?$AAt?$AAa?$AA?9?$AAI?$AAN?$AA?$AA@ 100225c0     libucrt:lcidtoname_downlevel.obj
 0002:000045cc       ??_C@_1M@KFEHEPAC@?$AAt?$AAe?$AA?9?$AAI?$AAN?$AA?$AA@ 100225cc     libucrt:lcidtoname_downlevel.obj
 0002:000045d8       ??_C@_1M@CDCLMGHI@?$AAk?$AAn?$AA?9?$AAI?$AAN?$AA?$AA@ 100225d8     libucrt:lcidtoname_downlevel.obj
 0002:000045e4       ??_C@_1M@MIODLDKF@?$AAm?$AAl?$AA?9?$AAI?$AAN?$AA?$AA@ 100225e4     libucrt:lcidtoname_downlevel.obj
 0002:000045f0       ??_C@_1M@PBIEACPO@?$AAm?$AAr?$AA?9?$AAI?$AAN?$AA?$AA@ 100225f0     libucrt:lcidtoname_downlevel.obj
 0002:000045fc       ??_C@_1M@NIDEAGPH@?$AAs?$AAa?$AA?9?$AAI?$AAN?$AA?$AA@ 100225fc     libucrt:lcidtoname_downlevel.obj
 0002:00004608       ??_C@_1M@FHIHCBIO@?$AAm?$AAn?$AA?9?$AAM?$AAN?$AA?$AA@ 10022608     libucrt:lcidtoname_downlevel.obj
 0002:00004614       ??_C@_1M@JAIJPENP@?$AAc?$AAy?$AA?9?$AAG?$AAB?$AA?$AA@ 10022614     libucrt:lcidtoname_downlevel.obj
 0002:00004620       ??_C@_1M@PHGFBEPN@?$AAg?$AAl?$AA?9?$AAE?$AAS?$AA?$AA@ 10022620     libucrt:lcidtoname_downlevel.obj
 0002:0000462c       ??_C@_1O@KPIPDNCP@?$AAk?$AAo?$AAk?$AA?9?$AAI?$AAN?$AA?$AA@ 1002262c     libucrt:lcidtoname_downlevel.obj
 0002:0000463c       ??_C@_1O@KNHJLDJA@?$AAs?$AAy?$AAr?$AA?9?$AAS?$AAY?$AA?$AA@ 1002263c     libucrt:lcidtoname_downlevel.obj
 0002:0000464c       ??_C@_1O@MKEKBLAH@?$AAd?$AAi?$AAv?$AA?9?$AAM?$AAV?$AA?$AA@ 1002264c     libucrt:lcidtoname_downlevel.obj
 0002:0000465c       ??_C@_1O@OHDCKDDF@?$AAq?$AAu?$AAz?$AA?9?$AAB?$AAO?$AA?$AA@ 1002265c     libucrt:lcidtoname_downlevel.obj
 0002:0000466c       ??_C@_1M@LEPJNLFD@?$AAn?$AAs?$AA?9?$AAZ?$AAA?$AA?$AA@ 1002266c     libucrt:lcidtoname_downlevel.obj
 0002:00004678       ??_C@_1M@OMLEIIJB@?$AAm?$AAi?$AA?9?$AAN?$AAZ?$AA?$AA@ 10022678     libucrt:lcidtoname_downlevel.obj
 0002:00004684       ??_C@_1M@PMPEAILG@?$AAa?$AAr?$AA?9?$AAI?$AAQ?$AA?$AA@ 10022684     libucrt:lcidtoname_downlevel.obj
 0002:00004690       ??_C@_1M@CNKPNOEE@?$AAd?$AAe?$AA?9?$AAC?$AAH?$AA?$AA@ 10022690     libucrt:lcidtoname_downlevel.obj
 0002:0000469c       ??_C@_1M@LKMGMLKO@?$AAe?$AAn?$AA?9?$AAG?$AAB?$AA?$AA@ 1002269c     libucrt:lcidtoname_downlevel.obj
 0002:000046a8       ??_C@_1M@PGKJFFGL@?$AAe?$AAs?$AA?9?$AAM?$AAX?$AA?$AA@ 100226a8     libucrt:lcidtoname_downlevel.obj
 0002:000046b4       ??_C@_1M@DNNANBDC@?$AAf?$AAr?$AA?9?$AAB?$AAE?$AA?$AA@ 100226b4     libucrt:lcidtoname_downlevel.obj
 0002:000046c0       ??_C@_1M@HLGMDFHM@?$AAi?$AAt?$AA?9?$AAC?$AAH?$AA?$AA@ 100226c0     libucrt:lcidtoname_downlevel.obj
 0002:000046cc       ??_C@_1M@CLLBGJH@?$AAn?$AAl?$AA?9?$AAB?$AAE?$AA?$AA@ 100226cc     libucrt:lcidtoname_downlevel.obj
 0002:000046d8       ??_C@_1M@BODBOGLF@?$AAn?$AAn?$AA?9?$AAN?$AAO?$AA?$AA@ 100226d8     libucrt:lcidtoname_downlevel.obj
 0002:000046e4       ??_C@_1M@HFFAHKAD@?$AAp?$AAt?$AA?9?$AAP?$AAT?$AA?$AA@ 100226e4     libucrt:lcidtoname_downlevel.obj
 0002:000046f0       ??_C@_1BG@LNOAKHIE@?$AAs?$AAr?$AA?9?$AAS?$AAP?$AA?9?$AAL?$AAa?$AAt?$AAn?$AA?$AA@ 100226f0     libucrt:lcidtoname_downlevel.obj
 0002:00004708       ??_C@_1M@HBMHBGAK@?$AAs?$AAv?$AA?9?$AAF?$AAI?$AA?$AA@ 10022708     libucrt:lcidtoname_downlevel.obj
 0002:00004714       ??_C@_1BG@DGCJGJBE@?$AAa?$AAz?$AA?9?$AAA?$AAZ?$AA?9?$AAC?$AAy?$AAr?$AAl?$AA?$AA@ 10022714     libucrt:lcidtoname_downlevel.obj
 0002:0000472c       ??_C@_1M@KEJDAAHB@?$AAs?$AAe?$AA?9?$AAS?$AAE?$AA?$AA@ 1002272c     libucrt:lcidtoname_downlevel.obj
 0002:00004738       ??_C@_1M@HEIBJJAD@?$AAm?$AAs?$AA?9?$AAB?$AAN?$AA?$AA@ 10022738     libucrt:lcidtoname_downlevel.obj
 0002:00004744       ??_C@_1BG@PBGJMCEM@?$AAu?$AAz?$AA?9?$AAU?$AAZ?$AA?9?$AAC?$AAy?$AAr?$AAl?$AA?$AA@ 10022744     libucrt:lcidtoname_downlevel.obj
 0002:0000475c       ??_C@_1O@LAOBCMDF@?$AAq?$AAu?$AAz?$AA?9?$AAE?$AAC?$AA?$AA@ 1002275c     libucrt:lcidtoname_downlevel.obj
 0002:0000476c       ??_C@_1M@POEEMAIO@?$AAa?$AAr?$AA?9?$AAE?$AAG?$AA?$AA@ 1002276c     libucrt:lcidtoname_downlevel.obj
 0002:00004778       ??_C@_1M@EFAKDEDL@?$AAz?$AAh?$AA?9?$AAH?$AAK?$AA?$AA@ 10022778     libucrt:lcidtoname_downlevel.obj
 0002:00004784       ??_C@_1M@HKKIJHGI@?$AAd?$AAe?$AA?9?$AAA?$AAT?$AA?$AA@ 10022784     libucrt:lcidtoname_downlevel.obj
 0002:00004790       ??_C@_1M@KBFBEHJF@?$AAe?$AAn?$AA?9?$AAA?$AAU?$AA?$AA@ 10022790     libucrt:lcidtoname_downlevel.obj
 0002:0000479c       ??_C@_1M@MNPLFAAH@?$AAe?$AAs?$AA?9?$AAE?$AAS?$AA?$AA@ 1002279c     libucrt:lcidtoname_downlevel.obj
 0002:000047a8       ??_C@_1M@HJOOJFMA@?$AAf?$AAr?$AA?9?$AAC?$AAA?$AA?$AA@ 100227a8     libucrt:lcidtoname_downlevel.obj
 0002:000047b4       ??_C@_1BG@JPOFPNAB@?$AAs?$AAr?$AA?9?$AAS?$AAP?$AA?9?$AAC?$AAy?$AAr?$AAl?$AA?$AA@ 100227b4     libucrt:lcidtoname_downlevel.obj
 0002:000047cc       ??_C@_1M@LNFOCMOB@?$AAs?$AAe?$AA?9?$AAF?$AAI?$AA?$AA@ 100227cc     libucrt:lcidtoname_downlevel.obj
 0002:000047d8       ??_C@_1O@MGJBOAMB@?$AAq?$AAu?$AAz?$AA?9?$AAP?$AAE?$AA?$AA@ 100227d8     libucrt:lcidtoname_downlevel.obj
 0002:000047e8       ??_C@_1M@GJINLBOK@?$AAa?$AAr?$AA?9?$AAL?$AAY?$AA?$AA@ 100227e8     libucrt:lcidtoname_downlevel.obj
 0002:000047f4       ??_C@_1M@GGMNHJNL@?$AAz?$AAh?$AA?9?$AAS?$AAG?$AA?$AA@ 100227f4     libucrt:lcidtoname_downlevel.obj
 0002:00004800       ??_C@_1M@HOIKODND@?$AAd?$AAe?$AA?9?$AAL?$AAU?$AA?$AA@ 10022800     libucrt:lcidtoname_downlevel.obj
 0002:0000480c       ??_C@_1M@DDOCCGFG@?$AAe?$AAn?$AA?9?$AAC?$AAA?$AA?$AA@ 1002280c     libucrt:lcidtoname_downlevel.obj
 0002:00004818       ??_C@_1M@BNOEMJLF@?$AAe?$AAs?$AA?9?$AAG?$AAT?$AA?$AA@ 10022818     libucrt:lcidtoname_downlevel.obj
 0002:00004824       ??_C@_1M@EOGNKEK@?$AAf?$AAr?$AA?9?$AAC?$AAH?$AA?$AA@ 10022824     libucrt:lcidtoname_downlevel.obj
 0002:00004830       ??_C@_1M@FLIDJFHL@?$AAh?$AAr?$AA?9?$AAB?$AAA?$AA?$AA@ 10022830     libucrt:lcidtoname_downlevel.obj
 0002:0000483c       ??_C@_1O@FMCELNAJ@?$AAs?$AAm?$AAj?$AA?9?$AAN?$AAO?$AA?$AA@ 1002283c     libucrt:lcidtoname_downlevel.obj
 0002:0000484c       ??_C@_1M@JHGLJMGJ@?$AAa?$AAr?$AA?9?$AAD?$AAZ?$AA?$AA@ 1002284c     libucrt:lcidtoname_downlevel.obj
 0002:00004858       ??_C@_1M@JKKFDCNP@?$AAz?$AAh?$AA?9?$AAM?$AAO?$AA?$AA@ 10022858     libucrt:lcidtoname_downlevel.obj
 0002:00004864       ??_C@_1M@GEEFALPE@?$AAd?$AAe?$AA?9?$AAL?$AAI?$AA?$AA@ 10022864     libucrt:lcidtoname_downlevel.obj
 0002:00004870       ??_C@_1M@IGEOFBG@?$AAe?$AAn?$AA?9?$AAN?$AAZ?$AA?$AA@ 10022870     libucrt:lcidtoname_downlevel.obj
 0002:0000487c       ??_C@_1M@KDBONEHP@?$AAe?$AAs?$AA?9?$AAC?$AAR?$AA?$AA@ 1002287c     libucrt:lcidtoname_downlevel.obj
 0002:00004888       ??_C@_1M@FHMDOHNN@?$AAf?$AAr?$AA?9?$AAL?$AAU?$AA?$AA@ 10022888     libucrt:lcidtoname_downlevel.obj
 0002:00004894       ??_C@_1BG@NFKKMAFG@?$AAb?$AAs?$AA?9?$AAB?$AAA?$AA?9?$AAL?$AAa?$AAt?$AAn?$AA?$AA@ 10022894     libucrt:lcidtoname_downlevel.obj
 0002:000048ac       ??_C@_1O@IMNBEMCI@?$AAs?$AAm?$AAj?$AA?9?$AAS?$AAE?$AA?$AA@ 100228ac     libucrt:lcidtoname_downlevel.obj
 0002:000048bc       ??_C@_1M@DHHMBNDP@?$AAa?$AAr?$AA?9?$AAM?$AAA?$AA?$AA@ 100228bc     libucrt:lcidtoname_downlevel.obj
 0002:000048c8       ??_C@_1M@BNBLJCGH@?$AAe?$AAn?$AA?9?$AAI?$AAE?$AA?$AA@ 100228c8     libucrt:lcidtoname_downlevel.obj
 0002:000048d4       ??_C@_1M@GEPAFMDL@?$AAe?$AAs?$AA?9?$AAP?$AAA?$AA?$AA@ 100228d4     libucrt:lcidtoname_downlevel.obj
 0002:000048e0       ??_C@_1M@OJONDMDL@?$AAf?$AAr?$AA?9?$AAM?$AAC?$AA?$AA@ 100228e0     libucrt:lcidtoname_downlevel.obj
 0002:000048ec       ??_C@_1BG@OBCNFJB@?$AAs?$AAr?$AA?9?$AAB?$AAA?$AA?9?$AAL?$AAa?$AAt?$AAn?$AA?$AA@ 100228ec     libucrt:lcidtoname_downlevel.obj
 0002:00004904       ??_C@_1O@KEMEEGPO@?$AAs?$AAm?$AAa?$AA?9?$AAN?$AAO?$AA?$AA@ 10022904     libucrt:lcidtoname_downlevel.obj
 0002:00004914       ??_C@_1M@ELMGFODK@?$AAa?$AAr?$AA?9?$AAT?$AAN?$AA?$AA@ 10022914     libucrt:lcidtoname_downlevel.obj
 0002:00004920       ??_C@_1M@BHDLHFAF@?$AAe?$AAn?$AA?9?$AAZ?$AAA?$AA?$AA@ 10022920     libucrt:lcidtoname_downlevel.obj
 0002:0000492c       ??_C@_1M@BMGIGLIF@?$AAe?$AAs?$AA?9?$AAD?$AAO?$AA?$AA@ 1002292c     libucrt:lcidtoname_downlevel.obj
 0002:00004938       ??_C@_1BG@CMBHIPBE@?$AAs?$AAr?$AA?9?$AAB?$AAA?$AA?9?$AAC?$AAy?$AAr?$AAl?$AA?$AA@ 10022938     libucrt:lcidtoname_downlevel.obj
 0002:00004950       ??_C@_1O@HEDBLHNP@?$AAs?$AAm?$AAa?$AA?9?$AAS?$AAE?$AA?$AA@ 10022950     libucrt:lcidtoname_downlevel.obj
 0002:00004960       ??_C@_1M@DAGCADIM@?$AAa?$AAr?$AA?9?$AAO?$AAM?$AA?$AA@ 10022960     libucrt:lcidtoname_downlevel.obj
 0002:0000496c       ??_C@_1M@FODLMICG@?$AAe?$AAn?$AA?9?$AAJ?$AAM?$AA?$AA@ 1002296c     libucrt:lcidtoname_downlevel.obj
 0002:00004978       ??_C@_1M@DNMLCIHB@?$AAe?$AAs?$AA?9?$AAV?$AAE?$AA?$AA@ 10022978     libucrt:lcidtoname_downlevel.obj
 0002:00004984       ??_C@_1O@EOKHMKJK@?$AAs?$AAm?$AAs?$AA?9?$AAF?$AAI?$AA?$AA@ 10022984     libucrt:lcidtoname_downlevel.obj
 0002:00004994       ??_C@_1M@CAFJMKOF@?$AAa?$AAr?$AA?9?$AAY?$AAE?$AA?$AA@ 10022994     libucrt:lcidtoname_downlevel.obj
 0002:000049a0       ??_C@_1M@CBFHIJLI@?$AAe?$AAn?$AA?9?$AAC?$AAB?$AA?$AA@ 100229a0     libucrt:lcidtoname_downlevel.obj
 0002:000049ac       ??_C@_1M@BGNFLDN@?$AAe?$AAs?$AA?9?$AAC?$AAO?$AA?$AA@ 100229ac     libucrt:lcidtoname_downlevel.obj
 0002:000049b8       ??_C@_1O@JMPHMAMC@?$AAs?$AAm?$AAn?$AA?9?$AAF?$AAI?$AA?$AA@ 100229b8     libucrt:lcidtoname_downlevel.obj
 0002:000049c8       ??_C@_1M@JLANABKE@?$AAa?$AAr?$AA?9?$AAS?$AAY?$AA?$AA@ 100229c8     libucrt:lcidtoname_downlevel.obj
 0002:000049d4       ??_C@_1M@HPKGCFGN@?$AAe?$AAn?$AA?9?$AAB?$AAZ?$AA?$AA@ 100229d4     libucrt:lcidtoname_downlevel.obj
 0002:000049e0       ??_C@_1M@OLJCMLGM@?$AAe?$AAs?$AA?9?$AAP?$AAE?$AA?$AA@ 100229e0     libucrt:lcidtoname_downlevel.obj
 0002:000049ec       ??_C@_1M@MKKGFKLE@?$AAa?$AAr?$AA?9?$AAJ?$AAO?$AA?$AA@ 100229ec     libucrt:lcidtoname_downlevel.obj
 0002:000049f8       ??_C@_1M@EKPGLDNI@?$AAe?$AAn?$AA?9?$AAT?$AAT?$AA?$AA@ 100229f8     libucrt:lcidtoname_downlevel.obj
 0002:00004a04       ??_C@_1M@OONGHFHE@?$AAe?$AAs?$AA?9?$AAA?$AAR?$AA?$AA@ 10022a04     libucrt:lcidtoname_downlevel.obj
 0002:00004a10       ??_C@_1M@OOJFGBHE@?$AAa?$AAr?$AA?9?$AAL?$AAB?$AA?$AA@ 10022a10     libucrt:lcidtoname_downlevel.obj
 0002:00004a1c       ??_C@_1M@GCEJHNEG@?$AAe?$AAn?$AA?9?$AAZ?$AAW?$AA?$AA@ 10022a1c     libucrt:lcidtoname_downlevel.obj
 0002:00004a28       ??_C@_1M@JNOCAHJI@?$AAe?$AAs?$AA?9?$AAE?$AAC?$AA?$AA@ 10022a28     libucrt:lcidtoname_downlevel.obj
 0002:00004a34       ??_C@_1M@JEFHPGGB@?$AAa?$AAr?$AA?9?$AAK?$AAW?$AA?$AA@ 10022a34     libucrt:lcidtoname_downlevel.obj
 0002:00004a40       ??_C@_1M@MLKIBJOJ@?$AAe?$AAn?$AA?9?$AAP?$AAH?$AA?$AA@ 10022a40     libucrt:lcidtoname_downlevel.obj
 0002:00004a4c       ??_C@_1M@BDNIPEND@?$AAe?$AAs?$AA?9?$AAC?$AAL?$AA?$AA@ 10022a4c     libucrt:lcidtoname_downlevel.obj
 0002:00004a58       ??_C@_1M@MPNMEKBD@?$AAa?$AAr?$AA?9?$AAA?$AAE?$AA?$AA@ 10022a58     libucrt:lcidtoname_downlevel.obj
 0002:00004a64       ??_C@_1M@KBJALCPI@?$AAe?$AAs?$AA?9?$AAU?$AAY?$AA?$AA@ 10022a64     libucrt:lcidtoname_downlevel.obj
 0002:00004a70       ??_C@_1M@LLCCOAGA@?$AAa?$AAr?$AA?9?$AAB?$AAH?$AA?$AA@ 10022a70     libucrt:lcidtoname_downlevel.obj
 0002:00004a7c       ??_C@_1M@PBFNCDEL@?$AAe?$AAs?$AA?9?$AAP?$AAY?$AA?$AA@ 10022a7c     libucrt:lcidtoname_downlevel.obj
 0002:00004a88       ??_C@_1M@EDGINPNP@?$AAa?$AAr?$AA?9?$AAQ?$AAA?$AA?$AA@ 10022a88     libucrt:lcidtoname_downlevel.obj
 0002:00004a94       ??_C@_1M@MKDBIIJI@?$AAe?$AAs?$AA?9?$AAB?$AAO?$AA?$AA@ 10022a94     libucrt:lcidtoname_downlevel.obj
 0002:00004aa0       ??_C@_1M@CPKKEBLD@?$AAe?$AAs?$AA?9?$AAS?$AAV?$AA?$AA@ 10022aa0     libucrt:lcidtoname_downlevel.obj
 0002:00004aac       ??_C@_1M@NDBGMMJL@?$AAe?$AAs?$AA?9?$AAH?$AAN?$AA?$AA@ 10022aac     libucrt:lcidtoname_downlevel.obj
 0002:00004ab8       ??_C@_1M@JIJIBHDP@?$AAe?$AAs?$AA?9?$AAN?$AAI?$AA?$AA@ 10022ab8     libucrt:lcidtoname_downlevel.obj
 0002:00004ac4       ??_C@_1M@CGFMKEEK@?$AAe?$AAs?$AA?9?$AAP?$AAR?$AA?$AA@ 10022ac4     libucrt:lcidtoname_downlevel.obj
 0002:00004ad0       ??_C@_1O@ICJHKIIK@?$AAz?$AAh?$AA?9?$AAC?$AAH?$AAT?$AA?$AA@ 10022ad0     libucrt:lcidtoname_downlevel.obj
 0002:00004ae0       ??_C@_15CLNEJCE@?$AAs?$AAr?$AA?$AA@ 10022ae0     libucrt:lcidtoname_downlevel.obj
 0002:00005208       ??_C@_1M@KAHEKEIG@?$AAa?$AAf?$AA?9?$AAz?$AAa?$AA?$AA@ 10023208     libucrt:lcidtoname_downlevel.obj
 0002:00005214       ??_C@_1M@GIECOABL@?$AAa?$AAr?$AA?9?$AAa?$AAe?$AA?$AA@ 10023214     libucrt:lcidtoname_downlevel.obj
 0002:00005220       ??_C@_1M@BMLMEKGI@?$AAa?$AAr?$AA?9?$AAb?$AAh?$AA?$AA@ 10023220     libucrt:lcidtoname_downlevel.obj
 0002:0000522c       ??_C@_1M@DAPFDGGB@?$AAa?$AAr?$AA?9?$AAd?$AAz?$AA?$AA@ 1002322c     libucrt:lcidtoname_downlevel.obj
 0002:00005238       ??_C@_1M@FJNKGKIG@?$AAa?$AAr?$AA?9?$AAe?$AAg?$AA?$AA@ 10023238     libucrt:lcidtoname_downlevel.obj
 0002:00005244       ??_C@_1M@FLGKKCLO@?$AAa?$AAr?$AA?9?$AAi?$AAq?$AA?$AA@ 10023244     libucrt:lcidtoname_downlevel.obj
 0002:00005250       ??_C@_1M@GNDIPALM@?$AAa?$AAr?$AA?9?$AAj?$AAo?$AA?$AA@ 10023250     libucrt:lcidtoname_downlevel.obj
 0002:0000525c       ??_C@_1M@DDMJFMGJ@?$AAa?$AAr?$AA?9?$AAk?$AAw?$AA?$AA@ 1002325c     libucrt:lcidtoname_downlevel.obj
 0002:00005268       ??_C@_1M@EJALMLHM@?$AAa?$AAr?$AA?9?$AAl?$AAb?$AA?$AA@ 10023268     libucrt:lcidtoname_downlevel.obj
 0002:00005274       ??_C@_1M@MOBDBLOC@?$AAa?$AAr?$AA?9?$AAl?$AAy?$AA?$AA@ 10023274     libucrt:lcidtoname_downlevel.obj
 0002:00005280       ??_C@_1M@JAOCLHDH@?$AAa?$AAr?$AA?9?$AAm?$AAa?$AA?$AA@ 10023280     libucrt:lcidtoname_downlevel.obj
 0002:0000528c       ??_C@_1M@JHPMKJIE@?$AAa?$AAr?$AA?9?$AAo?$AAm?$AA?$AA@ 1002328c     libucrt:lcidtoname_downlevel.obj
 0002:00005298       ??_C@_1M@OEPGHFNH@?$AAa?$AAr?$AA?9?$AAq?$AAa?$AA?$AA@ 10023298     libucrt:lcidtoname_downlevel.obj
 0002:000052a4       ??_C@_1M@KJDONENM@?$AAa?$AAr?$AA?9?$AAs?$AAa?$AA?$AA@ 100232a4     libucrt:lcidtoname_downlevel.obj
 0002:000052b0       ??_C@_1M@DMJDKLKM@?$AAa?$AAr?$AA?9?$AAs?$AAy?$AA?$AA@ 100232b0     libucrt:lcidtoname_downlevel.obj
 0002:000052bc       ??_C@_1M@OMFIPEDC@?$AAa?$AAr?$AA?9?$AAt?$AAn?$AA?$AA@ 100232bc     libucrt:lcidtoname_downlevel.obj
 0002:000052c8       ??_C@_1M@IHMHGAON@?$AAa?$AAr?$AA?9?$AAy?$AAe?$AA?$AA@ 100232c8     libucrt:lcidtoname_downlevel.obj
 0002:000052d4       ??_C@_1BG@KDCPGJGB@?$AAa?$AAz?$AA?9?$AAa?$AAz?$AA?9?$AAc?$AAy?$AAr?$AAl?$AA?$AA@ 100232d4     libucrt:lcidtoname_downlevel.obj
 0002:000052ec       ??_C@_1BG@IBCKDDOE@?$AAa?$AAz?$AA?9?$AAa?$AAz?$AA?9?$AAl?$AAa?$AAt?$AAn?$AA?$AA@ 100232ec     libucrt:lcidtoname_downlevel.obj
 0002:00005304       ??_C@_1M@EGPFDCPD@?$AAb?$AAe?$AA?9?$AAb?$AAy?$AA?$AA@ 10023304     libucrt:lcidtoname_downlevel.obj
 0002:00005310       ??_C@_1M@PCMGMCGC@?$AAb?$AAg?$AA?9?$AAb?$AAg?$AA?$AA@ 10023310     libucrt:lcidtoname_downlevel.obj
 0002:0000531c       ??_C@_1M@BJBMFGOB@?$AAb?$AAn?$AA?9?$AAi?$AAn?$AA?$AA@ 1002331c     libucrt:lcidtoname_downlevel.obj
 0002:00005328       ??_C@_1BG@EAKMMACD@?$AAb?$AAs?$AA?9?$AAb?$AAa?$AA?9?$AAl?$AAa?$AAt?$AAn?$AA?$AA@ 10023328     libucrt:lcidtoname_downlevel.obj
 0002:00005340       ??_C@_1M@KGADAODK@?$AAc?$AAa?$AA?9?$AAe?$AAs?$AA?$AA@ 10023340     libucrt:lcidtoname_downlevel.obj
 0002:0000534c       ??_C@_1M@COAJPDHI@?$AAc?$AAs?$AA?9?$AAc?$AAz?$AA?$AA@ 1002334c     libucrt:lcidtoname_downlevel.obj
 0002:00005358       ??_C@_1M@DHBHFONH@?$AAc?$AAy?$AA?9?$AAg?$AAb?$AA?$AA@ 10023358     libucrt:lcidtoname_downlevel.obj
 0002:00005364       ??_C@_1M@IMGKELGA@?$AAd?$AAa?$AA?9?$AAd?$AAk?$AA?$AA@ 10023364     libucrt:lcidtoname_downlevel.obj
 0002:00005370       ??_C@_1M@NNDGDNGA@?$AAd?$AAe?$AA?9?$AAa?$AAt?$AA?$AA@ 10023370     libucrt:lcidtoname_downlevel.obj
 0002:0000537c       ??_C@_1M@IKDBHEEM@?$AAd?$AAe?$AA?9?$AAc?$AAh?$AA?$AA@ 1002337c     libucrt:lcidtoname_downlevel.obj
 0002:00005388       ??_C@_1M@GFFOJMCJ@?$AAd?$AAe?$AA?9?$AAd?$AAe?$AA?$AA@ 10023388     libucrt:lcidtoname_downlevel.obj
 0002:00005394       ??_C@_1M@MDNLKBPM@?$AAd?$AAe?$AA?9?$AAl?$AAi?$AA?$AA@ 10023394     libucrt:lcidtoname_downlevel.obj
 0002:000053a0       ??_C@_1M@NJBEEJNL@?$AAd?$AAe?$AA?9?$AAl?$AAu?$AA?$AA@ 100233a0     libucrt:lcidtoname_downlevel.obj
 0002:000053ac       ??_C@_1O@GNNELBAP@?$AAd?$AAi?$AAv?$AA?9?$AAm?$AAv?$AA?$AA@ 100233ac     libucrt:lcidtoname_downlevel.obj
 0002:000053bc       ??_C@_1M@EJLEOGAE@?$AAe?$AAl?$AA?9?$AAg?$AAr?$AA?$AA@ 100233bc     libucrt:lcidtoname_downlevel.obj
 0002:000053c8       ??_C@_1M@GMPONJN@?$AAe?$AAn?$AA?9?$AAa?$AAu?$AA?$AA@ 100233c8     libucrt:lcidtoname_downlevel.obj
 0002:000053d4       ??_C@_1M@NIDIIPGF@?$AAe?$AAn?$AA?9?$AAb?$AAz?$AA?$AA@ 100233d4     libucrt:lcidtoname_downlevel.obj
 0002:000053e0       ??_C@_1M@JEHMIMFO@?$AAe?$AAn?$AA?9?$AAc?$AAa?$AA?$AA@ 100233e0     libucrt:lcidtoname_downlevel.obj
 0002:000053ec       ??_C@_1M@IGMJCDLA@?$AAe?$AAn?$AA?9?$AAc?$AAb?$AA?$AA@ 100233ec     libucrt:lcidtoname_downlevel.obj
 0002:000053f8       ??_C@_1M@BNFIGBKG@?$AAe?$AAn?$AA?9?$AAg?$AAb?$AA?$AA@ 100233f8     libucrt:lcidtoname_downlevel.obj
 0002:00005404       ??_C@_1M@LKIFDIGP@?$AAe?$AAn?$AA?9?$AAi?$AAe?$AA?$AA@ 10023404     libucrt:lcidtoname_downlevel.obj
 0002:00005410       ??_C@_1M@PJKFGCCO@?$AAe?$AAn?$AA?9?$AAj?$AAm?$AA?$AA@ 10023410     libucrt:lcidtoname_downlevel.obj
 0002:0000541c       ??_C@_1M@KPPKEPBO@?$AAe?$AAn?$AA?9?$AAn?$AAz?$AA?$AA@ 1002341c     libucrt:lcidtoname_downlevel.obj
 0002:00005428       ??_C@_1M@GMDGLDOB@?$AAe?$AAn?$AA?9?$AAp?$AAh?$AA?$AA@ 10023428     libucrt:lcidtoname_downlevel.obj
 0002:00005434       ??_C@_1M@ONGIBJNA@?$AAe?$AAn?$AA?9?$AAt?$AAt?$AA?$AA@ 10023434     libucrt:lcidtoname_downlevel.obj
 0002:00005440       ??_C@_1M@LLODPCMM@?$AAe?$AAn?$AA?9?$AAu?$AAs?$AA?$AA@ 10023440     libucrt:lcidtoname_downlevel.obj
 0002:0000544c       ??_C@_1M@LAKFNPAN@?$AAe?$AAn?$AA?9?$AAz?$AAa?$AA?$AA@ 1002344c     libucrt:lcidtoname_downlevel.obj
 0002:00005458       ??_C@_1M@MFNHNHEO@?$AAe?$AAn?$AA?9?$AAz?$AAw?$AA?$AA@ 10023458     libucrt:lcidtoname_downlevel.obj
 0002:00005464       ??_C@_1M@EJEINPHM@?$AAe?$AAs?$AA?9?$AAa?$AAr?$AA?$AA@ 10023464     libucrt:lcidtoname_downlevel.obj
 0002:00005470       ??_C@_1M@GNKPCCJA@?$AAe?$AAs?$AA?9?$AAb?$AAo?$AA?$AA@ 10023470     libucrt:lcidtoname_downlevel.obj
 0002:0000547c       ??_C@_1M@LEEGFONL@?$AAe?$AAs?$AA?9?$AAc?$AAl?$AA?$AA@ 1002347c     libucrt:lcidtoname_downlevel.obj
 0002:00005488       ??_C@_1M@KGPDPBDF@?$AAe?$AAs?$AA?9?$AAc?$AAo?$AA?$AA@ 10023488     libucrt:lcidtoname_downlevel.obj
 0002:00005494       ??_C@_1M@EIAHOHH@?$AAe?$AAs?$AA?9?$AAc?$AAr?$AA?$AA@ 10023494     libucrt:lcidtoname_downlevel.obj
 0002:000054a0       ??_C@_1M@LLPGMBIN@?$AAe?$AAs?$AA?9?$AAd?$AAo?$AA?$AA@ 100234a0     libucrt:lcidtoname_downlevel.obj
 0002:000054ac       ??_C@_1M@DKHMKNJA@?$AAe?$AAs?$AA?9?$AAe?$AAc?$AA?$AA@ 100234ac     libucrt:lcidtoname_downlevel.obj
 0002:000054b8       ??_C@_1M@GKGFPKAP@?$AAe?$AAs?$AA?9?$AAe?$AAs?$AA?$AA@ 100234b8     libucrt:lcidtoname_downlevel.obj
 0002:000054c4       ??_C@_1M@LKHKGDLN@?$AAe?$AAs?$AA?9?$AAg?$AAt?$AA?$AA@ 100234c4     libucrt:lcidtoname_downlevel.obj
 0002:000054d0       ??_C@_1M@HEIIGGJD@?$AAe?$AAs?$AA?9?$AAh?$AAn?$AA?$AA@ 100234d0     libucrt:lcidtoname_downlevel.obj
 0002:000054dc       ??_C@_1M@FBDHPPGD@?$AAe?$AAs?$AA?9?$AAm?$AAx?$AA?$AA@ 100234dc     libucrt:lcidtoname_downlevel.obj
 0002:000054e8       ??_C@_1M@DPAGLNDH@?$AAe?$AAs?$AA?9?$AAn?$AAi?$AA?$AA@ 100234e8     libucrt:lcidtoname_downlevel.obj
 0002:000054f4       ??_C@_1M@MDGOPGDD@?$AAe?$AAs?$AA?9?$AAp?$AAa?$AA?$AA@ 100234f4     libucrt:lcidtoname_downlevel.obj
 0002:00005500       ??_C@_1M@EMAMGBGE@?$AAe?$AAs?$AA?9?$AAp?$AAe?$AA?$AA@ 10023500     libucrt:lcidtoname_downlevel.obj
 0002:0000550c       ??_C@_1M@IBMCAOEC@?$AAe?$AAs?$AA?9?$AAp?$AAr?$AA?$AA@ 1002350c     libucrt:lcidtoname_downlevel.obj
 0002:00005518       ??_C@_1M@FGMDIJED@?$AAe?$AAs?$AA?9?$AAp?$AAy?$AA?$AA@ 10023518     libucrt:lcidtoname_downlevel.obj
 0002:00005524       ??_C@_1M@IIDEOLLL@?$AAe?$AAs?$AA?9?$AAs?$AAv?$AA?$AA@ 10023524     libucrt:lcidtoname_downlevel.obj
 0002:00005530       ??_C@_1M@GAOBIPA@?$AAe?$AAs?$AA?9?$AAu?$AAy?$AA?$AA@ 10023530     libucrt:lcidtoname_downlevel.obj
 0002:0000553c       ??_C@_1M@JKFFICHJ@?$AAe?$AAs?$AA?9?$AAv?$AAe?$AA?$AA@ 1002353c     libucrt:lcidtoname_downlevel.obj
 0002:00005548       ??_C@_1M@PNMLOJDF@?$AAe?$AAt?$AA?9?$AAe?$AAe?$AA?$AA@ 10023548     libucrt:lcidtoname_downlevel.obj
 0002:00005554       ??_C@_1M@GHHLIKEI@?$AAe?$AAu?$AA?9?$AAe?$AAs?$AA?$AA@ 10023554     libucrt:lcidtoname_downlevel.obj
 0002:00005560       ??_C@_1M@PBNONODE@?$AAf?$AAa?$AA?9?$AAi?$AAr?$AA?$AA@ 10023560     libucrt:lcidtoname_downlevel.obj
 0002:0000556c       ??_C@_1M@JEEHPMIL@?$AAf?$AAi?$AA?9?$AAf?$AAi?$AA?$AA@ 1002356c     libucrt:lcidtoname_downlevel.obj
 0002:00005578       ??_C@_1M@LMDCNDBA@?$AAf?$AAo?$AA?9?$AAf?$AAo?$AA?$AA@ 10023578     libucrt:lcidtoname_downlevel.obj
 0002:00005584       ??_C@_1M@JKEOHLDK@?$AAf?$AAr?$AA?9?$AAb?$AAe?$AA?$AA@ 10023584     libucrt:lcidtoname_downlevel.obj
 0002:00005590       ??_C@_1M@NOHADPMI@?$AAf?$AAr?$AA?9?$AAc?$AAa?$AA?$AA@ 10023590     libucrt:lcidtoname_downlevel.obj
 0002:0000559c       ??_C@_1M@KDHIHAEC@?$AAf?$AAr?$AA?9?$AAc?$AAh?$AA?$AA@ 1002359c     libucrt:lcidtoname_downlevel.obj
 0002:000055a8       ??_C@_1M@MMBBFGAK@?$AAf?$AAr?$AA?9?$AAf?$AAr?$AA?$AA@ 100235a8     libucrt:lcidtoname_downlevel.obj
 0002:000055b4       ??_C@_1M@PAFNENNF@?$AAf?$AAr?$AA?9?$AAl?$AAu?$AA?$AA@ 100235b4     libucrt:lcidtoname_downlevel.obj
 0002:000055c0       ??_C@_1M@EOHDJGDD@?$AAf?$AAr?$AA?9?$AAm?$AAc?$AA?$AA@ 100235c0     libucrt:lcidtoname_downlevel.obj
 0002:000055cc       ??_C@_1M@FAPLLOPF@?$AAg?$AAl?$AA?9?$AAe?$AAs?$AA?$AA@ 100235cc     libucrt:lcidtoname_downlevel.obj
 0002:000055d8       ??_C@_1M@FOPBFLOO@?$AAg?$AAu?$AA?9?$AAi?$AAn?$AA?$AA@ 100235d8     libucrt:lcidtoname_downlevel.obj
 0002:000055e4       ??_C@_1M@KBMCINPM@?$AAh?$AAe?$AA?9?$AAi?$AAl?$AA?$AA@ 100235e4     libucrt:lcidtoname_downlevel.obj
 0002:000055f0       ??_C@_1M@BBPHKFPJ@?$AAh?$AAi?$AA?9?$AAi?$AAn?$AA?$AA@ 100235f0     libucrt:lcidtoname_downlevel.obj
 0002:000055fc       ??_C@_1M@PMBNDPHD@?$AAh?$AAr?$AA?9?$AAb?$AAa?$AA?$AA@ 100235fc     libucrt:lcidtoname_downlevel.obj
 0002:00005608       ??_C@_1M@BPCKOEGE@?$AAh?$AAr?$AA?9?$AAh?$AAr?$AA?$AA@ 10023608     libucrt:lcidtoname_downlevel.obj
 0002:00005614       ??_C@_1M@GACBMHKE@?$AAh?$AAu?$AA?9?$AAh?$AAu?$AA?$AA@ 10023614     libucrt:lcidtoname_downlevel.obj
 0002:00005620       ??_C@_1M@MILPAJJC@?$AAh?$AAy?$AA?9?$AAa?$AAm?$AA?$AA@ 10023620     libucrt:lcidtoname_downlevel.obj
 0002:0000562c       ??_C@_1M@BABBICEC@?$AAi?$AAd?$AA?9?$AAi?$AAd?$AA?$AA@ 1002362c     libucrt:lcidtoname_downlevel.obj
 0002:00005638       ??_C@_1M@BIKNHHPF@?$AAi?$AAs?$AA?9?$AAi?$AAs?$AA?$AA@ 10023638     libucrt:lcidtoname_downlevel.obj
 0002:00005644       ??_C@_1M@NMPCJPHE@?$AAi?$AAt?$AA?9?$AAc?$AAh?$AA?$AA@ 10023644     libucrt:lcidtoname_downlevel.obj
 0002:00005650       ??_C@_1M@GHKGFEDF@?$AAi?$AAt?$AA?9?$AAi?$AAt?$AA?$AA@ 10023650     libucrt:lcidtoname_downlevel.obj
 0002:0000565c       ??_C@_1M@NIEJCJJA@?$AAj?$AAa?$AA?9?$AAj?$AAp?$AA?$AA@ 1002365c     libucrt:lcidtoname_downlevel.obj
 0002:00005668       ??_C@_1M@JILFNBIM@?$AAk?$AAa?$AA?9?$AAg?$AAe?$AA?$AA@ 10023668     libucrt:lcidtoname_downlevel.obj
 0002:00005674       ??_C@_1M@PACPMGPH@?$AAk?$AAk?$AA?9?$AAk?$AAz?$AA?$AA@ 10023674     libucrt:lcidtoname_downlevel.obj
 0002:00005680       ??_C@_1M@IELFGMHA@?$AAk?$AAn?$AA?9?$AAi?$AAn?$AA?$AA@ 10023680     libucrt:lcidtoname_downlevel.obj
 0002:0000568c       ??_C@_1O@IBBJHCH@?$AAk?$AAo?$AAk?$AA?9?$AAi?$AAn?$AA?$AA@ 1002368c     libucrt:lcidtoname_downlevel.obj
 0002:0000569c       ??_C@_1M@DMHAEOGC@?$AAk?$AAo?$AA?9?$AAk?$AAr?$AA?$AA@ 1002369c     libucrt:lcidtoname_downlevel.obj
 0002:000056a8       ??_C@_1M@HBAHBIGA@?$AAk?$AAy?$AA?9?$AAk?$AAg?$AA?$AA@ 100236a8     libucrt:lcidtoname_downlevel.obj
 0002:000056b4       ??_C@_1M@KPMILCJG@?$AAl?$AAt?$AA?9?$AAl?$AAt?$AA?$AA@ 100236b4     libucrt:lcidtoname_downlevel.obj
 0002:000056c0       ??_C@_1M@BDEKKCA@?$AAl?$AAv?$AA?9?$AAl?$AAv?$AA?$AA@ 100236c0     libucrt:lcidtoname_downlevel.obj
 0002:000056cc       ??_C@_1M@ELCKCCJJ@?$AAm?$AAi?$AA?9?$AAn?$AAz?$AA?$AA@ 100236cc     libucrt:lcidtoname_downlevel.obj
 0002:000056d8       ??_C@_1M@CBOOLAPA@?$AAm?$AAk?$AA?9?$AAm?$AAk?$AA?$AA@ 100236d8     libucrt:lcidtoname_downlevel.obj
 0002:000056e4       ??_C@_1M@GPHNBJKN@?$AAm?$AAl?$AA?9?$AAi?$AAn?$AA?$AA@ 100236e4     libucrt:lcidtoname_downlevel.obj
 0002:000056f0       ??_C@_1M@PABJILIG@?$AAm?$AAn?$AA?9?$AAm?$AAn?$AA?$AA@ 100236f0     libucrt:lcidtoname_downlevel.obj
 0002:000056fc       ??_C@_1M@FGBKKIPG@?$AAm?$AAr?$AA?9?$AAi?$AAn?$AA?$AA@ 100236fc     libucrt:lcidtoname_downlevel.obj
 0002:00005708       ??_C@_1M@NDBPDDAL@?$AAm?$AAs?$AA?9?$AAb?$AAn?$AA?$AA@ 10023708     libucrt:lcidtoname_downlevel.obj
 0002:00005714       ??_C@_1M@OPIHOOPI@?$AAm?$AAs?$AA?9?$AAm?$AAy?$AA?$AA@ 10023714     libucrt:lcidtoname_downlevel.obj
 0002:00005720       ??_C@_1M@PPDBCNFM@?$AAm?$AAt?$AA?9?$AAm?$AAt?$AA?$AA@ 10023720     libucrt:lcidtoname_downlevel.obj
 0002:0000572c       ??_C@_1M@KDJDKMDD@?$AAn?$AAb?$AA?9?$AAn?$AAo?$AA?$AA@ 1002372c     libucrt:lcidtoname_downlevel.obj
 0002:00005738       ??_C@_1M@KFCFLMJP@?$AAn?$AAl?$AA?9?$AAb?$AAe?$AA?$AA@ 10023738     libucrt:lcidtoname_downlevel.obj
 0002:00005744       ??_C@_1M@KPOPDDGO@?$AAn?$AAl?$AA?9?$AAn?$AAl?$AA?$AA@ 10023744     libucrt:lcidtoname_downlevel.obj
 0002:00005750       ??_C@_1M@LJKPEMLN@?$AAn?$AAn?$AA?9?$AAn?$AAo?$AA?$AA@ 10023750     libucrt:lcidtoname_downlevel.obj
 0002:0000575c       ??_C@_1M@BDGHHBFL@?$AAn?$AAs?$AA?9?$AAz?$AAa?$AA?$AA@ 1002375c     libucrt:lcidtoname_downlevel.obj
 0002:00005768       ??_C@_1M@IDEHOAP@?$AAp?$AAa?$AA?9?$AAi?$AAn?$AA?$AA@ 10023768     libucrt:lcidtoname_downlevel.obj
 0002:00005774       ??_C@_1M@HDBKGOGH@?$AAp?$AAl?$AA?9?$AAp?$AAl?$AA?$AA@ 10023774     libucrt:lcidtoname_downlevel.obj
 0002:00005780       ??_C@_1M@LJLLCMEH@?$AAp?$AAt?$AA?9?$AAb?$AAr?$AA?$AA@ 10023780     libucrt:lcidtoname_downlevel.obj
 0002:0000578c       ??_C@_1M@NCMONAAL@?$AAp?$AAt?$AA?9?$AAp?$AAt?$AA?$AA@ 1002378c     libucrt:lcidtoname_downlevel.obj
 0002:00005798       ??_C@_1O@EAKMAJDN@?$AAq?$AAu?$AAz?$AA?9?$AAb?$AAo?$AA?$AA@ 10023798     libucrt:lcidtoname_downlevel.obj
 0002:000057a8       ??_C@_1O@BHHPIGDN@?$AAq?$AAu?$AAz?$AA?9?$AAe?$AAc?$AA?$AA@ 100237a8     libucrt:lcidtoname_downlevel.obj
 0002:000057b8       ??_C@_1O@GBAPEKMJ@?$AAq?$AAu?$AAz?$AA?9?$AAp?$AAe?$AA?$AA@ 100237b8     libucrt:lcidtoname_downlevel.obj
 0002:000057c8       ??_C@_1M@CLGLEFBO@?$AAr?$AAo?$AA?9?$AAr?$AAo?$AA?$AA@ 100237c8     libucrt:lcidtoname_downlevel.obj
 0002:000057d4       ??_C@_1M@CEEDODME@?$AAr?$AAu?$AA?9?$AAr?$AAu?$AA?$AA@ 100237d4     libucrt:lcidtoname_downlevel.obj
 0002:000057e0       ??_C@_1M@HPKKKMPP@?$AAs?$AAa?$AA?9?$AAi?$AAn?$AA?$AA@ 100237e0     libucrt:lcidtoname_downlevel.obj
 0002:000057ec       ??_C@_1M@BKMAIGOJ@?$AAs?$AAe?$AA?9?$AAf?$AAi?$AA?$AA@ 100237ec     libucrt:lcidtoname_downlevel.obj
 0002:000057f8       ??_C@_1M@NDPIFLFI@?$AAs?$AAe?$AA?9?$AAn?$AAo?$AA?$AA@ 100237f8     libucrt:lcidtoname_downlevel.obj
 0002:00005804       ??_C@_1M@DANKKHJ@?$AAs?$AAe?$AA?9?$AAs?$AAe?$AA?$AA@ 10023804     libucrt:lcidtoname_downlevel.obj
 0002:00005810       ??_C@_1M@PNBLONPJ@?$AAs?$AAk?$AA?9?$AAs?$AAk?$AA?$AA@ 10023810     libucrt:lcidtoname_downlevel.obj
 0002:0000581c       ??_C@_1M@LFMODOAL@?$AAs?$AAl?$AA?9?$AAs?$AAi?$AA?$AA@ 1002381c     libucrt:lcidtoname_downlevel.obj
 0002:00005828       ??_C@_1O@DFKOMPG@?$AAs?$AAm?$AAa?$AA?9?$AAn?$AAo?$AA?$AA@ 10023828     libucrt:lcidtoname_downlevel.obj
 0002:00005838       ??_C@_1O@NDKPBNNH@?$AAs?$AAm?$AAa?$AA?9?$AAs?$AAe?$AA?$AA@ 10023838     libucrt:lcidtoname_downlevel.obj
 0002:00005848       ??_C@_1O@PLLKBHAB@?$AAs?$AAm?$AAj?$AA?9?$AAn?$AAo?$AA?$AA@ 10023848     libucrt:lcidtoname_downlevel.obj
 0002:00005858       ??_C@_1O@CLEPOGCA@?$AAs?$AAm?$AAj?$AA?9?$AAs?$AAe?$AA?$AA@ 10023858     libucrt:lcidtoname_downlevel.obj
 0002:00005868       ??_C@_1O@DLGJGKMK@?$AAs?$AAm?$AAn?$AA?9?$AAf?$AAi?$AA?$AA@ 10023868     libucrt:lcidtoname_downlevel.obj
 0002:00005878       ??_C@_1O@OJDJGAJC@?$AAs?$AAm?$AAs?$AA?9?$AAf?$AAi?$AA?$AA@ 10023878     libucrt:lcidtoname_downlevel.obj
 0002:00005888       ??_C@_1M@BOFOGHPB@?$AAs?$AAq?$AA?9?$AAa?$AAl?$AA?$AA@ 10023888     libucrt:lcidtoname_downlevel.obj
 0002:00005894       ??_C@_1BG@LJBBIPGB@?$AAs?$AAr?$AA?9?$AAb?$AAa?$AA?9?$AAc?$AAy?$AAr?$AAl?$AA?$AA@ 10023894     libucrt:lcidtoname_downlevel.obj
 0002:000058ac       ??_C@_1BG@JLBENFOE@?$AAs?$AAr?$AA?9?$AAb?$AAa?$AA?9?$AAl?$AAa?$AAt?$AAn?$AA?$AA@ 100238ac     libucrt:lcidtoname_downlevel.obj
 0002:000058c4       ??_C@_1BG@KODPNHE@?$AAs?$AAr?$AA?9?$AAs?$AAp?$AA?9?$AAc?$AAy?$AAr?$AAl?$AA?$AA@ 100238c4     libucrt:lcidtoname_downlevel.obj
 0002:000058dc       ??_C@_1BG@CIOGKHPB@?$AAs?$AAr?$AA?9?$AAs?$AAp?$AA?9?$AAl?$AAa?$AAt?$AAn?$AA?$AA@ 100238dc     libucrt:lcidtoname_downlevel.obj
 0002:000058f4       ??_C@_1M@NGFJLMAC@?$AAs?$AAv?$AA?9?$AAf?$AAi?$AA?$AA@ 100238f4     libucrt:lcidtoname_downlevel.obj
 0002:00005900       ??_C@_1M@MPJEJAJC@?$AAs?$AAv?$AA?9?$AAs?$AAe?$AA?$AA@ 10023900     libucrt:lcidtoname_downlevel.obj
 0002:0000590c       ??_C@_1M@MPNDHLFK@?$AAs?$AAw?$AA?9?$AAk?$AAe?$AA?$AA@ 1002390c     libucrt:lcidtoname_downlevel.obj
 0002:00005918       ??_C@_1O@KOHBJJI@?$AAs?$AAy?$AAr?$AA?9?$AAs?$AAy?$AA?$AA@ 10023918     libucrt:lcidtoname_downlevel.obj
 0002:00005928       ??_C@_1M@LDCEFHA@?$AAt?$AAa?$AA?9?$AAi?$AAn?$AA?$AA@ 10023928     libucrt:lcidtoname_downlevel.obj
 0002:00005934       ??_C@_1M@CNJOFAK@?$AAt?$AAe?$AA?9?$AAi?$AAn?$AA?$AA@ 10023934     libucrt:lcidtoname_downlevel.obj
 0002:00005940       ??_C@_1M@GNAECACD@?$AAt?$AAh?$AA?9?$AAt?$AAh?$AA?$AA@ 10023940     libucrt:lcidtoname_downlevel.obj
 0002:0000594c       ??_C@_1M@CHBIHOJO@?$AAt?$AAn?$AA?9?$AAz?$AAa?$AA?$AA@ 1002394c     libucrt:lcidtoname_downlevel.obj
 0002:00005958       ??_C@_1M@GCCMIGPJ@?$AAt?$AAr?$AA?9?$AAt?$AAr?$AA?$AA@ 10023958     libucrt:lcidtoname_downlevel.obj
 0002:00005964       ??_C@_1M@CELMCNBK@?$AAt?$AAt?$AA?9?$AAr?$AAu?$AA?$AA@ 10023964     libucrt:lcidtoname_downlevel.obj
 0002:00005970       ??_C@_1M@KLMCELGA@?$AAu?$AAk?$AA?9?$AAu?$AAa?$AA?$AA@ 10023970     libucrt:lcidtoname_downlevel.obj
 0002:0000597c       ??_C@_1M@EPAJJAJF@?$AAu?$AAr?$AA?9?$AAp?$AAk?$AA?$AA@ 1002397c     libucrt:lcidtoname_downlevel.obj
 0002:00005988       ??_C@_1BG@GEGPMCDJ@?$AAu?$AAz?$AA?9?$AAu?$AAz?$AA?9?$AAc?$AAy?$AAr?$AAl?$AA?$AA@ 10023988     libucrt:lcidtoname_downlevel.obj
 0002:000059a0       ??_C@_1BG@EGGKJILM@?$AAu?$AAz?$AA?9?$AAu?$AAz?$AA?9?$AAl?$AAa?$AAt?$AAn?$AA?$AA@ 100239a0     libucrt:lcidtoname_downlevel.obj
 0002:000059b8       ??_C@_1M@GFOCLFF@?$AAv?$AAi?$AA?9?$AAv?$AAn?$AA?$AA@ 100239b8     libucrt:lcidtoname_downlevel.obj
 0002:000059c4       ??_C@_1M@CPAMEDFI@?$AAx?$AAh?$AA?9?$AAz?$AAa?$AA?$AA@ 100239c4     libucrt:lcidtoname_downlevel.obj
 0002:000059d0       ??_C@_1O@EBKIFIGN@?$AAz?$AAh?$AA?9?$AAc?$AAh?$AAs?$AA?$AA@ 100239d0     libucrt:lcidtoname_downlevel.obj
 0002:000059e0       ??_C@_1O@NMHPGANE@?$AAz?$AAh?$AA?9?$AAc?$AAh?$AAt?$AA?$AA@ 100239e0     libucrt:lcidtoname_downlevel.obj
 0002:000059f0       ??_C@_1M@LPINJOMC@?$AAz?$AAh?$AA?9?$AAc?$AAn?$AA?$AA@ 100239f0     libucrt:lcidtoname_downlevel.obj
 0002:000059fc       ??_C@_1M@OCJEJODD@?$AAz?$AAh?$AA?9?$AAh?$AAk?$AA?$AA@ 100239fc     libucrt:lcidtoname_downlevel.obj
 0002:00005a08       ??_C@_1M@DNDLJINH@?$AAz?$AAh?$AA?9?$AAm?$AAo?$AA?$AA@ 10023a08     libucrt:lcidtoname_downlevel.obj
 0002:00005a14       ??_C@_1M@MBFDNDND@?$AAz?$AAh?$AA?9?$AAs?$AAg?$AA?$AA@ 10023a14     libucrt:lcidtoname_downlevel.obj
 0002:00005a20       ??_C@_1M@IMEPLEPE@?$AAz?$AAh?$AA?9?$AAt?$AAw?$AA?$AA@ 10023a20     libucrt:lcidtoname_downlevel.obj
 0002:00005a2c       ??_C@_1M@BBGHNHJP@?$AAz?$AAu?$AA?9?$AAz?$AAa?$AA?$AA@ 10023a2c     libucrt:lcidtoname_downlevel.obj
 0002:00005a38       ?large_power_data@?1??multiply_by_power_of_ten@__crt_strtox@@YA_NAAUbig_integer@2@I@Z@4QBIB 10023a38     libucrt:cfout.obj
 0002:00006340       ?large_power_indices@?1??multiply_by_power_of_ten@__crt_strtox@@YA_NAAUbig_integer@2@I@Z@4QBUunpack_index@?1??12@YA_N0I@Z@B 10024340     libucrt:cfout.obj
 0002:000063d8       ?small_powers_of_ten@?6??multiply_by_power_of_ten@__crt_strtox@@YA_NAAUbig_integer@2@I@Z@4QBIB 100243d8     libucrt:cfout.obj
 0002:000063fc       ??_C@_01GBGANLPD@0?$AA@    100243fc     libucrt:cfout.obj
 0002:00006400       ??_C@_05DNEBIAHO@1?$CDINF?$AA@ 10024400     libucrt:cfout.obj
 0002:00006408       ??_C@_06IMKFLFPG@1?$CDQNAN?$AA@ 10024408     libucrt:cfout.obj
 0002:00006410       ??_C@_06PGGFOGJG@1?$CDSNAN?$AA@ 10024410     libucrt:cfout.obj
 0002:00006418       ??_C@_05PHHOCPM@1?$CDIND?$AA@ 10024418     libucrt:cfout.obj
 0002:00006580       __infinity                 10024580     libucrt:87tran.obj
 0002:0000658a       __minfinity                1002458a     libucrt:87tran.obj
 0002:00006594       __logemax                  10024594     libucrt:87tran.obj
 0002:000065ba       __OP_EXPjmptab             100245ba     libucrt:87tran.obj
 0002:000065e0       __indefinite               100245e0     libucrt:87disp.obj
 0002:000065ea       __piby2                    100245ea     libucrt:87disp.obj
 0002:000065f4       __piby4                    100245f4     libucrt:87disp.obj
 0002:00006628       __DEFAULT_CW_in_mem        10024628     libucrt:common.obj
 0002:0000662a       __pi_by_2_to_61            1002462a     libucrt:common.obj
 0002:00006664       ??_C@_03MGHMBJCF@log?$AA@  10024664     libucrt:libm_error.obj
 0002:00006668       ??_C@_05HGHHAHAP@log10?$AA@ 10024668     libucrt:libm_error.obj
 0002:00006670       ??_C@_03KHJOGHMM@exp?$AA@  10024670     libucrt:libm_error.obj
 0002:00006674       ??_C@_03JGHBODFD@pow?$AA@  10024674     libucrt:libm_error.obj
 0002:00006678       ??_C@_04FIHNOPOL@asin?$AA@ 10024678     libucrt:libm_error.obj
 0002:00006680       ??_C@_04PDIFKINK@acos?$AA@ 10024680     libucrt:libm_error.obj
 0002:00006688       ??_C@_04EIAKFFMI@sqrt?$AA@ 10024688     libucrt:libm_error.obj
 0002:00006690       __real@3ff0000000000000    10024690     libucrt:libm_error.obj
 0002:000066b0       ___acrt_log10_table_t      100246b0     libucrt:log10_tables.obj
 0002:00006ac0       ___acrt_log10_table_cb     10024ac0     libucrt:log10_tables.obj
 0002:00006ed0       __real@3fe0000000000000    10024ed0     libucrt:powhlp.obj
 0002:00006ed8       ??_C@_04FJHINJAO@tanh?$AA@ 10024ed8     libucrt:fpexcept.obj
 0002:00006ee0       ??_C@_04MLLJIGOK@atan?$AA@ 10024ee0     libucrt:fpexcept.obj
 0002:00006ee8       ??_C@_05KNGEOGJB@atan2?$AA@ 10024ee8     libucrt:fpexcept.obj
 0002:00006ef0       ??_C@_03BLEJJJBH@sin?$AA@  10024ef0     libucrt:fpexcept.obj
 0002:00006ef4       ??_C@_03LALBNOCG@cos?$AA@  10024ef4     libucrt:fpexcept.obj
 0002:00006ef8       ??_C@_03IIINPABG@tan?$AA@  10024ef8     libucrt:fpexcept.obj
 0002:00006efc       ??_C@_04GFPJNGEK@ceil?$AA@ 10024efc     libucrt:fpexcept.obj
 0002:00006f04       ??_C@_05PBJFFIGL@floor?$AA@ 10024f04     libucrt:fpexcept.obj
 0002:00006f0c       ??_C@_04ODHECPBC@fabs?$AA@ 10024f0c     libucrt:fpexcept.obj
 0002:00006f14       ??_C@_04EHEDPDJG@modf?$AA@ 10024f14     libucrt:fpexcept.obj
 0002:00006f1c       ??_C@_05CEJMAHNP@ldexp?$AA@ 10024f1c     libucrt:fpexcept.obj
 0002:00006f24       ??_C@_05KBKMEMPO@_cabs?$AA@ 10024f24     libucrt:fpexcept.obj
 0002:00006f2c       ??_C@_06MEIMCGCF@_hypot?$AA@ 10024f2c     libucrt:fpexcept.obj
 0002:00006f34       ??_C@_04KEPJIHGP@fmod?$AA@ 10024f34     libucrt:fpexcept.obj
 0002:00006f3c       ??_C@_05GKKHEGJL@frexp?$AA@ 10024f3c     libucrt:fpexcept.obj
 0002:00006f44       ??_C@_03MJLDFKDL@_y0?$AA@  10024f44     libucrt:fpexcept.obj
 0002:00006f48       ??_C@_03NAKIGLHK@_y1?$AA@  10024f48     libucrt:fpexcept.obj
 0002:00006f4c       ??_C@_03ONILCKOB@_yn?$AA@  10024f4c     libucrt:fpexcept.obj
 0002:00006f50       ??_C@_05JGDBENOH@_logb?$AA@ 10024f50     libucrt:fpexcept.obj
 0002:00006f58       ??_C@_0L@KDOEJCKC@_nextafter?$AA@ 10024f58     libucrt:fpexcept.obj
 0002:00007050       ??_C@_04COOMCNPB@sinh?$AA@ 10025050     libucrt:fpexcept.obj
 0002:00007058       ??_C@_04HPJJNFIM@cosh?$AA@ 10025058     libucrt:fpexcept.obj
 0002:00007060       __d_inf                    10025060     libucrt:util.obj
 0002:00007068       __d_max                    10025068     libucrt:util.obj
 0002:00007070       __d_mzero                  10025070     libucrt:util.obj
 0002:00007078       ??_C@_1BA@BALFACEM@?$AAC?$AAO?$AAN?$AAO?$AAU?$AAT?$AA$?$AA?$AA@ 10025078     libucrt:initcon.obj
 0002:000070e8       __load_config_used         100250e8     LIBCMT:loadcfg.obj
 0002:00007188       __tls_used                 10025188     LIBCMT:tlssup.obj
 0002:000071a0       ??_R4exception@std@@6B@    100251a0     LIBCMT:throw_bad_alloc.obj
 0002:000071b4       ??_R3exception@std@@8      100251b4     LIBCMT:throw_bad_alloc.obj
 0002:000071c4       ??_R2exception@std@@8      100251c4     LIBCMT:throw_bad_alloc.obj
 0002:000071cc       ??_R1A@?0A@EA@exception@std@@8 100251cc     LIBCMT:throw_bad_alloc.obj
 0002:000071e8       ??_R4bad_alloc@std@@6B@    100251e8     LIBCMT:throw_bad_alloc.obj
 0002:000071fc       ??_R3bad_alloc@std@@8      100251fc     LIBCMT:throw_bad_alloc.obj
 0002:0000720c       ??_R2bad_alloc@std@@8      1002520c     LIBCMT:throw_bad_alloc.obj
 0002:00007218       ??_R1A@?0A@EA@bad_alloc@std@@8 10025218     LIBCMT:throw_bad_alloc.obj
 0002:00007234       ??_R4bad_array_new_length@std@@6B@ 10025234     LIBCMT:throw_bad_alloc.obj
 0002:00007248       ??_R3bad_array_new_length@std@@8 10025248     LIBCMT:throw_bad_alloc.obj
 0002:00007258       ??_R2bad_array_new_length@std@@8 10025258     LIBCMT:throw_bad_alloc.obj
 0002:00007268       ??_R1A@?0A@EA@bad_array_new_length@std@@8 10025268     LIBCMT:throw_bad_alloc.obj
 0002:00007284       ??_R4type_info@@6B@        10025284     LIBCMT:std_type_info_static.obj
 0002:00007298       ??_R3type_info@@8          10025298     LIBCMT:std_type_info_static.obj
 0002:000072a8       ??_R2type_info@@8          100252a8     LIBCMT:std_type_info_static.obj
 0002:000072b0       ??_R1A@?0A@EA@type_info@@8 100252b0     LIBCMT:std_type_info_static.obj
 0002:000072cc       ??_R4bad_exception@std@@6B@ 100252cc     libvcruntime:frame.obj
 0002:000072e0       ??_R3bad_exception@std@@8  100252e0     libvcruntime:frame.obj
 0002:000072f0       ??_R2bad_exception@std@@8  100252f0     libvcruntime:frame.obj
 0002:000072fc       ??_R1A@?0A@EA@bad_exception@std@@8 100252fc     libvcruntime:frame.obj
 0002:00007320       ___safe_se_handler_table   10025320     <linker-defined>
 0002:0000771c       ___rtc_iaa                 1002571c     LIBCMT:initsect.obj
 0002:00007720       ___rtc_izz                 10025720     LIBCMT:initsect.obj
 0002:00007724       ___rtc_taa                 10025724     LIBCMT:initsect.obj
 0002:00007728       ___rtc_tzz                 10025728     LIBCMT:initsect.obj
 0002:0000772c       __tls_start                1002572c     LIBCMT:tlssup.obj
 0002:00007730       __Init_thread_epoch        10025730     LIBCMT:thread_safe_statics.obj
 0002:00007734       __tls_end                  10025734     LIBCMT:tlssup.obj
 0002:0000784c       __TI2?AVbad_alloc@std@@    1002584c     LIBCMT:throw_bad_alloc.obj
 0002:0000785c       __CTA2?AVbad_alloc@std@@   1002585c     LIBCMT:throw_bad_alloc.obj
 0002:00007868       __CT??_R0?AVbad_alloc@std@@@8??0bad_alloc@std@@QAE@ABV01@@Z12 10025868     LIBCMT:throw_bad_alloc.obj
 0002:00007884       __CT??_R0?AVexception@std@@@8??0exception@std@@QAE@ABV01@@Z12 10025884     LIBCMT:throw_bad_alloc.obj
 0002:000078a0       __TI3?AVbad_array_new_length@std@@ 100258a0     LIBCMT:throw_bad_alloc.obj
 0002:000078b0       __CTA3?AVbad_array_new_length@std@@ 100258b0     LIBCMT:throw_bad_alloc.obj
 0002:000078c0       __CT??_R0?AVbad_array_new_length@std@@@8??0bad_array_new_length@std@@QAE@ABV01@@Z12 100258c0     LIBCMT:throw_bad_alloc.obj
 0002:000079c4       __TI2?AVbad_exception@std@@ 100259c4     libvcruntime:frame.obj
 0002:000079d4       __CTA2?AVbad_exception@std@@ 100259d4     libvcruntime:frame.obj
 0002:000079e0       __CT??_R0?AVbad_exception@std@@@8??0bad_exception@std@@QAE@ABV01@@Z12 100259e0     libvcruntime:frame.obj
 0002:00007d2c       ___pobjMapEntryFirst       10025d2c     OposVariant.obj
 0002:00007d30       ___pobjMapEntryLast        10025d30     OposVariant.obj
 0002:00007de8       __IMPORT_DESCRIPTOR_KERNEL32 10025de8     kernel32:KERNEL32.dll
 0002:00007dfc       __IMPORT_DESCRIPTOR_USER32 10025dfc     user32:USER32.dll
 0002:00007e10       __IMPORT_DESCRIPTOR_GDI32  10025e10     gdi32:GDI32.dll
 0002:00007e24       __IMPORT_DESCRIPTOR_ADVAPI32 10025e24     advapi32:ADVAPI32.dll
 0002:00007e38       __IMPORT_DESCRIPTOR_ole32  10025e38     ole32:ole32.dll
 0002:00007e4c       __IMPORT_DESCRIPTOR_OLEAUT32 10025e4c     oleaut32:OLEAUT32.dll
 0002:00007e60       __NULL_IMPORT_DESCRIPTOR   10025e60     kernel32:KERNEL32.dll
 0003:00000000       ?wc@?1??GetWndClassInfo@?$CWindowImpl@VCOPOSBumpBar@@VCWindow@ATL@@V?$CWinTraits@$0FGAAAAAA@$0A@@3@@ATL@@SAAAU_ATL_WNDCLASSINFOW@3@XZ@4U43@A 10027000     BumpBar.obj
 0003:0000008c       ?s_Claim@?7??GetIDsOfNames@CComTypeInfoHolder@ATL@@QAEJABU_GUID@@PAPA_WIKPAJ@Z@4PA_WA 1002708c     BumpBar.obj
 0003:000000a4       ?s_Release@?7??GetIDsOfNames@CComTypeInfoHolder@ATL@@QAEJABU_GUID@@PAPA_WIKPAJ@Z@4PA_WA 100270a4     BumpBar.obj
 0003:000000c0       ?rcDefault@CWindow@ATL@@2UtagRECT@@A 100270c0     BumpBar.obj
 0003:000000d0       ?_tih@?$IDispatchImpl@UIOPOSBumpBar@@$1?IID_IOPOSBumpBar@@3U_GUID@@B$1?LIBID_OposBumpBar_CCO@@3U3@B$00$0A@VCComTypeInfoHolder@ATL@@@ATL@@1VCComTypeInfoHolder@2@A 100270d0     BumpBar.obj
 0003:000000ec       ?_tih@?$IProvideClassInfo2Impl@$1?CLSID_OPOSBumpBar@@3U_GUID@@B$1?DIID__IOPOSBumpBarEvents@@3U2@B$1?LIBID_OposBumpBar_CCO@@3U2@B$00$0A@VCComTypeInfoHolder@ATL@@@ATL@@1VCComTypeInfoHolder@2@A 100270ec     BumpBar.obj
 0003:00000108       ?vszContents@?6??Save@?$IPersistStorageImpl@VCOPOSBumpBar@@@ATL@@UAGJPAUIStorage@@H@Z@4PB_WB 10027108     BumpBar.obj
 0003:00000158       ?g_WindowName@@3PA_WA      10027158     BumpBarImpl.obj
 0003:00000178       ?g_ControlDescription@@3PADA 10027178     BumpBarImpl.obj
 0003:000001ac       ?g_ControlVersion@@3JA     100271ac     BumpBarImpl.obj
 0003:00000220       ___scrt_native_dllmain_reason 10027220     LIBCMT:utility.obj
 0003:00000224       __Init_global_epoch        10027224     LIBCMT:thread_safe_statics.obj
 0003:00000230       ___security_cookie_complement 10027230     LIBCMT:gs_cookie.obj
 0003:00000234       ___security_cookie         10027234     LIBCMT:gs_cookie.obj
 0003:00000238       ___isa_enabled             10027238     LIBCMT:cpu_disp.obj
 0003:00000250       __NLG_Destination          10027250     libvcruntime:exsup.obj
 0003:00000268       ___abort_behavior          10027268     libucrt:abort.obj
 0003:00000278       __iob                      10027278     libucrt:_file.obj
 0003:00000320       ___acrt_initial_locale_data 10027320     libucrt:nlsdata.obj
 0003:000003d8       ___acrt_initial_locale_pointers 100273d8     libucrt:nlsdata.obj
 0003:000003e0       ___acrt_wide_c_locale_string 100273e0     libucrt:nlsdata.obj
 0003:000004d8       __mbctype                  100274d8     libucrt:mbctype.obj
 0003:000005e0       __mbcasemap                100275e0     libucrt:mbctype.obj
 0003:000006e0       ___acrt_initial_multibyte_data 100276e0     libucrt:mbctype.obj
 0003:00000900       ___acrt_current_multibyte_data 10027900     libucrt:mbctype.obj
 0003:00000904       __pwctype                  10027904     libucrt:ctype.obj
 0003:00000908       ___globallocalestatus      10027908     libucrt:glstatus.obj
 0003:0000090c       ___acrt_lconv_static_decimal 1002790c     libucrt:localeconv.obj
 0003:00000910       ___acrt_lconv_static_W_decimal 10027910     libucrt:localeconv.obj
 0003:00000918       ___acrt_lconv_c            10027918     libucrt:localeconv.obj
 0003:00000970       ___dcrt_lowio_console_output_handle 10027970     libucrt:initcon.obj
 0003:00000980       __fltused                  10027980     LIBCMT:fltused.obj
 0003:00000990       ??_R0?AVbad_alloc@std@@@8  10027990     LIBCMT:throw_bad_alloc.obj
 0003:000009ac       ??_R0?AVexception@std@@@8  100279ac     LIBCMT:throw_bad_alloc.obj
 0003:000009c8       ??_R0?AVbad_array_new_length@std@@@8 100279c8     LIBCMT:throw_bad_alloc.obj
 0003:000009f0       ??_R0?AVtype_info@@@8      100279f0     LIBCMT:std_type_info_static.obj
 0003:00000a08       ??_R0?AVbad_exception@std@@@8 10027a08     libvcruntime:frame.obj
 0003:00000a28       ?m_bInitFailed@CAtlBaseModule@ATL@@2_NA 10027a28     OposVariant.obj
 0003:00000a2c       ?_pPerfRegFunc@ATL@@3P6AJPAUHINSTANCE__@@@ZA 10027a2c     OposVariant.obj
 0003:00000a30       ?_pPerfUnRegFunc@ATL@@3P6AJXZA 10027a30     OposVariant.obj
 0003:00000a34       ?_AtlRegisterPerUser@ATL@@3_NA 10027a34     OposVariant.obj
 0003:00000a38       ?_pAtlModule@ATL@@3PAVCAtlModule@1@A 10027a38     OposVariant.obj
 0003:00000a3c       ?_pModule@ATL@@3PAVCComModule@1@A 10027a3c     OposVariant.obj
 0003:00000a40       ?_AtlComModule@ATL@@3VCAtlComModule@1@A 10027a40     OposVariant.obj
 0003:00000a68       ?_AtlWinModule@ATL@@3VCAtlWinModule@1@A 10027a68     OposVariant.obj
 0003:00000a94       ?m_libid@CAtlModule@ATL@@2U_GUID@@A 10027a94     BumpBar.obj
 0003:00000aa4       ?_entries@?1??GetConnMap@COPOSBumpBar@@SAPBU_ATL_CONNMAP_ENTRY@ATL@@PAH@Z@4QBU34@B 10027aa4     BumpBar.obj
 0003:00000ab0       ?$TSS0@?1??GetConnMap@COPOSBumpBar@@SAPBU_ATL_CONNMAP_ENTRY@ATL@@PAH@Z@4HA 10027ab0     BumpBar.obj
 0003:00000ab8       ?_OptionsStorage@?1??__local_stdio_printf_options@@9@4_KA 10027ab8     BumpBar.obj
 0003:00000ac0       ?pfnRegDeleteKeyEx@?1??DeleteSubKey@CRegKey@ATL@@QAEJPB_W@Z@4P6GJPAUHKEY__@@0KK@ZA 10027ac0     BumpBar.obj
 0003:00000ac4       ?bInitialized@?1??DeleteSubKey@CRegKey@ATL@@QAEJPB_W@Z@4_NA 10027ac4     BumpBar.obj
 0003:00000ac8       ?_Module@@3VCComModule@ATL@@A 10027ac8     BumpBar.obj
 0003:00000af8       ?pConnMap@?$IConnectionPointContainerImpl@VCOPOSBumpBar@@@ATL@@0PBU_ATL_CONNMAP_ENTRY@2@B 10027af8     BumpBar.obj
 0003:00000afc       ?s_nInstances@COPOSBumpBar@@1HA 10027afc     BumpBarImpl.obj
 0003:00000b00       ___scrt_current_native_startup_state 10027b00     LIBCMT:utility.obj
 0003:00000b04       ___scrt_native_startup_lock 10027b04     LIBCMT:utility.obj
 0003:00000e6c       __tls_index                10027e6c     LIBCMT:tlssup.obj
 0003:00000e74       ___isa_available           10027e74     LIBCMT:cpu_disp.obj
 0003:00000e78       ___favor                   10027e78     LIBCMT:cpu_disp.obj
 0003:00000e7c       ___scrt_debugger_hook_flag 10027e7c     LIBCMT:utility_desktop.obj
 0003:00000e80       ?__type_info_root_node@@3U__type_info_node@@A 10027e80     LIBCMT:tncleanup.obj
 0003:00000e88       ?_OptionsStorage@?1??__local_stdio_scanf_options@@9@4_KA 10027e88     LIBCMT:default_local_stdio_options.obj
 0003:00000e90       ?_AtlBaseModule@ATL@@3VCAtlBaseModule@1@A 10027e90     atls:atlbase.obj
 0003:00000ec8       ?__AtlThunkPool@@3PAT_SLIST_HEADER@@A 10027ec8     atls:atlthunk.obj
 0003:00000ee0       ___@@_PchSym_@00@UztvmgUPdlipUDUhUrmgvinvwrzgvUexgllohUzgohOmzgrevkilqPBACIAJCBDBUlyqiUcIGUhgwzucOlyq@4B2008FD98C1DD4 10027ee0     atls:stdafx.obj
 0003:00000ee4       ___pPurecall               10027ee4     libvcruntime:purevirt_data.obj
 0003:00000f4c       ?pArgList@UnDecorator@@0PAVReplicator@@A 10027f4c     libvcruntime:undname.obj
 0003:00000f50       ?pZNameList@UnDecorator@@0PAVReplicator@@A 10027f50     libvcruntime:undname.obj
 0003:00000f54       ?pTemplateArgList@UnDecorator@@0PAVReplicator@@A 10027f54     libvcruntime:undname.obj
 0003:00000f58       ?gName@UnDecorator@@0PBDB  10027f58     libvcruntime:undname.obj
 0003:00000f5c       ?name@UnDecorator@@0PBDB   10027f5c     libvcruntime:undname.obj
 0003:00000f60       ?disableFlags@UnDecorator@@0KA 10027f60     libvcruntime:undname.obj
 0003:00000f64       ?fExplicitTemplateParams@UnDecorator@@0_NA 10027f64     libvcruntime:undname.obj
 0003:00000f65       ?fGetTemplateArgumentList@UnDecorator@@0_NA 10027f65     libvcruntime:undname.obj
 0003:00000f68       ?m_pGetParameter@UnDecorator@@0P6APADJ@ZA 10027f68     libvcruntime:undname.obj
 0003:00000f6c       ?m_CHPENameOffset@UnDecorator@@0KA 10027f6c     libvcruntime:undname.obj
 0003:00000f70       ?m_recursionLevel@UnDecorator@@0KA 10027f70     libvcruntime:undname.obj
 0003:00000f88       ?__WinRTOutOfMemoryExceptionCallback@@3P6GPAXXZA 10027f88     libvcruntime:ehhelpers.obj
 0003:000010a8       __environ_table            100280a8     libucrt:environment_initialization.obj
 0003:000010ac       __wenviron_table           100280ac     libucrt:environment_initialization.obj
 0003:000010b0       ___dcrt_initial_wide_environment 100280b0     libucrt:environment_initialization.obj
 0003:000010b4       ___dcrt_initial_narrow_environment 100280b4     libucrt:environment_initialization.obj
 0003:000010b8       ___acrt_atexit_table       100280b8     libucrt:onexit.obj
 0003:000010c4       ___acrt_at_quick_exit_table 100280c4     libucrt:onexit.obj
 0003:000011ac       __nstream                  100281ac     libucrt:_file.obj
 0003:000011b0       ___piob                    100281b0     libucrt:_file.obj
 0003:000011b8       ___acrt_stdout_buffer      100281b8     libucrt:_sftbuf.obj
 0003:000011bc       ___acrt_stderr_buffer      100281bc     libucrt:_sftbuf.obj
 0003:000011c0       ___acrt_locale_changed_data 100281c0     libucrt:wsetlocale.obj
 0003:000011c4       ___acrt_current_locale_data 100281c4     libucrt:nlsdata.obj
 0003:000011c8       ___pioinfo                 100281c8     libucrt:ioinit.obj
 0003:000013c8       __nhandle                  100283c8     libucrt:ioinit.obj
 0003:0000150c       ___mblocalename            1002850c     libucrt:mbctype.obj
 0003:00001510       ___mbcodepage              10028510     libucrt:mbctype.obj
 0003:00001514       ___ismbcodepage            10028514     libucrt:mbctype.obj
 0003:00001518       ___mbulinfo                10028518     libucrt:mbctype.obj
 0003:0000152c       ___argc                    1002852c     libucrt:argv_data.obj
 0003:00001530       ___argv                    10028530     libucrt:argv_data.obj
 0003:00001534       ___wargv                   10028534     libucrt:argv_data.obj
 0003:00001538       __acmdln                   10028538     libucrt:argv_data.obj
 0003:0000153c       __wcmdln                   1002853c     libucrt:argv_data.obj
 0003:00001540       __pgmptr                   10028540     libucrt:argv_data.obj
 0003:00001544       ___acrt_heap               10028544     libucrt:heap_handle.obj
 0003:00001560       ___acrt_lconv_static_null  10028560     libucrt:localeconv.obj
 0003:00001564       ___acrt_lconv_static_W_null 10028564     libucrt:localeconv.obj
 0003:0000156c       ___fastflag                1002856c     libucrt:fp_flags.obj
 0003:00001574       ___dyn_tls_init_callback   10028574     <common>
 0003:00001578       ___scrt_ucrt_dll_is_in_use 10028578     <common>
 0003:0000157c       __pmatherr                 1002857c     <common>
 0003:00001580       ___use_sse2_mathfcns       10028580     <common>

 entry point at        0001:0000be4d

 Static symbols

 0000:fffd0000       .debug$S                   10000000     gdi32:GDI32.dll
 0000:fffd0000       .debug$S                   10000000     gdi32:GDI32.dll
 0000:fffd0000       .debug$S                   10000000     gdi32:GDI32.dll
 0000:fffd0000       .debug$S                   10000000     gdi32:GDI32.dll
 0000:fffd0000       .debug$S                   10000000     gdi32:GDI32.dll
 0000:fffd0000       .debug$S                   10000000     gdi32:GDI32.dll
 0000:fffd0000       .debug$S                   10000000     gdi32:GDI32.dll
 0000:fffd0000       .debug$S                   10000000     gdi32:GDI32.dll
 0000:fffd0000       .debug$S                   10000000     gdi32:GDI32.dll
 0000:fffd0000       .debug$S                   10000000     gdi32:GDI32.dll
 0000:fffd0000       .debug$S                   10000000     gdi32:GDI32.dll
 0000:fffd0000       .debug$S                   10000000     gdi32:GDI32.dll
 0000:fffd0000       .debug$S                   10000000     gdi32:GDI32.dll
 0000:fffd0000       .debug$S                   10000000     gdi32:GDI32.dll
 0000:fffd0000       .debug$S                   10000000     gdi32:GDI32.dll
 0000:fffd0000       .debug$S                   10000000     OPOSBumpBar.exp
 0000:fffd0000       .debug$S                   10000000     gdi32:GDI32.dll
 0000:fffd0000       .debug$S                   10000000     advapi32:ADVAPI32.dll
 0000:fffd0000       .debug$S                   10000000     advapi32:ADVAPI32.dll
 0000:fffd0000       .debug$S                   10000000     advapi32:ADVAPI32.dll
 0000:fffd0000       .debug$S                   10000000     advapi32:ADVAPI32.dll
 0000:fffd0000       .debug$S                   10000000     advapi32:ADVAPI32.dll
 0000:fffd0000       .debug$S                   10000000     advapi32:ADVAPI32.dll
 0000:fffd0000       .debug$S                   10000000     advapi32:ADVAPI32.dll
 0000:fffd0000       .debug$S                   10000000     advapi32:ADVAPI32.dll
 0000:fffd0000       .debug$S                   10000000     advapi32:ADVAPI32.dll
 0000:fffd0000       .debug$S                   10000000     kernel32:KERNEL32.dll
 0000:fffd0000       .debug$S                   10000000     kernel32:KERNEL32.dll
 0000:fffd0000       .debug$S                   10000000     kernel32:KERNEL32.dll
 0000:fffd0000       .debug$S                   10000000     kernel32:KERNEL32.dll
 0000:fffd0000       .debug$S                   10000000     kernel32:KERNEL32.dll
 0000:fffd0000       .debug$S                   10000000     kernel32:KERNEL32.dll
 0000:fffd0000       .debug$S                   10000000     kernel32:KERNEL32.dll
 0000:fffd0000       .debug$S                   10000000     kernel32:KERNEL32.dll
 0000:fffd0000       .debug$S                   10000000     kernel32:KERNEL32.dll
 0000:fffd0000       .debug$S                   10000000     kernel32:KERNEL32.dll
 0000:fffd0000       .debug$S                   10000000     kernel32:KERNEL32.dll
 0000:fffd0000       .debug$S                   10000000     kernel32:KERNEL32.dll
 0000:fffd0000       .debug$S                   10000000     kernel32:KERNEL32.dll
 0000:fffd0000       .debug$S                   10000000     kernel32:KERNEL32.dll
 0000:fffd0000       .debug$S                   10000000     kernel32:KERNEL32.dll
 0000:fffd0000       .debug$S                   10000000     kernel32:KERNEL32.dll
 0000:fffd0000       .debug$S                   10000000     kernel32:KERNEL32.dll
 0000:fffd0000       .debug$S                   10000000     kernel32:KERNEL32.dll
 0000:fffd0000       .debug$S                   10000000     kernel32:KERNEL32.dll
 0000:fffd0000       .debug$S                   10000000     kernel32:KERNEL32.dll
 0000:fffd0000       .debug$S                   10000000     kernel32:KERNEL32.dll
 0000:fffd0000       .debug$S                   10000000     kernel32:KERNEL32.dll
 0000:fffd0000       .debug$S                   10000000     kernel32:KERNEL32.dll
 0000:fffd0000       .debug$S                   10000000     kernel32:KERNEL32.dll
 0000:fffd0000       .debug$S                   10000000     kernel32:KERNEL32.dll
 0000:fffd0000       .debug$S                   10000000     kernel32:KERNEL32.dll
 0000:fffd0000       .debug$S                   10000000     kernel32:KERNEL32.dll
 0000:fffd0000       .debug$S                   10000000     kernel32:KERNEL32.dll
 0000:fffd0000       .debug$S                   10000000     kernel32:KERNEL32.dll
 0000:fffd0000       .debug$S                   10000000     kernel32:KERNEL32.dll
 0000:fffd0000       .debug$S                   10000000     kernel32:KERNEL32.dll
 0000:fffd0000       .debug$S                   10000000     kernel32:KERNEL32.dll
 0000:fffd0000       .debug$S                   10000000     kernel32:KERNEL32.dll
 0000:fffd0000       .debug$S                   10000000     kernel32:KERNEL32.dll
 0000:fffd0000       .debug$S                   10000000     kernel32:KERNEL32.dll
 0000:fffd0000       .debug$S                   10000000     kernel32:KERNEL32.dll
 0000:fffd0000       .debug$S                   10000000     kernel32:KERNEL32.dll
 0000:fffd0000       .debug$S                   10000000     kernel32:KERNEL32.dll
 0000:fffd0000       .debug$S                   10000000     kernel32:KERNEL32.dll
 0000:fffd0000       .debug$S                   10000000     kernel32:KERNEL32.dll
 0000:fffd0000       .debug$S                   10000000     kernel32:KERNEL32.dll
 0000:fffd0000       .debug$S                   10000000     kernel32:KERNEL32.dll
 0000:fffd0000       .debug$S                   10000000     kernel32:KERNEL32.dll
 0000:fffd0000       .debug$S                   10000000     kernel32:KERNEL32.dll
 0000:fffd0000       .debug$S                   10000000     kernel32:KERNEL32.dll
 0000:fffd0000       .debug$S                   10000000     kernel32:KERNEL32.dll
 0000:fffd0000       .debug$S                   10000000     kernel32:KERNEL32.dll
 0000:fffd0000       .debug$S                   10000000     kernel32:KERNEL32.dll
 0000:fffd0000       .debug$S                   10000000     kernel32:KERNEL32.dll
 0000:fffd0000       .debug$S                   10000000     kernel32:KERNEL32.dll
 0000:fffd0000       .debug$S                   10000000     kernel32:KERNEL32.dll
 0000:fffd0000       .debug$S                   10000000     kernel32:KERNEL32.dll
 0000:fffd0000       .debug$S                   10000000     kernel32:KERNEL32.dll
 0000:fffd0000       .debug$S                   10000000     kernel32:KERNEL32.dll
 0000:fffd0000       .debug$S                   10000000     kernel32:KERNEL32.dll
 0000:fffd0000       .debug$S                   10000000     kernel32:KERNEL32.dll
 0000:fffd0000       .debug$S                   10000000     kernel32:KERNEL32.dll
 0000:fffd0000       .debug$S                   10000000     kernel32:KERNEL32.dll
 0000:fffd0000       .debug$S                   10000000     kernel32:KERNEL32.dll
 0000:fffd0000       .debug$S                   10000000     kernel32:KERNEL32.dll
 0000:fffd0000       .debug$S                   10000000     kernel32:KERNEL32.dll
 0000:fffd0000       .debug$S                   10000000     kernel32:KERNEL32.dll
 0000:fffd0000       .debug$S                   10000000     kernel32:KERNEL32.dll
 0000:fffd0000       .debug$S                   10000000     kernel32:KERNEL32.dll
 0000:fffd0000       .debug$S                   10000000     kernel32:KERNEL32.dll
 0000:fffd0000       .debug$S                   10000000     kernel32:KERNEL32.dll
 0000:fffd0000       .debug$S                   10000000     kernel32:KERNEL32.dll
 0000:fffd0000       .debug$S                   10000000     kernel32:KERNEL32.dll
 0000:fffd0000       .debug$S                   10000000     kernel32:KERNEL32.dll
 0000:fffd0000       .debug$S                   10000000     kernel32:KERNEL32.dll
 0000:fffd0000       .debug$S                   10000000     kernel32:KERNEL32.dll
 0000:fffd0000       .debug$S                   10000000     kernel32:KERNEL32.dll
 0000:fffd0000       .debug$S                   10000000     kernel32:KERNEL32.dll
 0000:fffd0000       .debug$S                   10000000     kernel32:KERNEL32.dll
 0000:fffd0000       .debug$S                   10000000     gdi32:GDI32.dll
 0000:fffd0000       .debug$S                   10000000     ole32:ole32.dll
 0000:fffd0000       .debug$S                   10000000     ole32:ole32.dll
 0000:fffd0000       .debug$S                   10000000     ole32:ole32.dll
 0000:fffd0000       .debug$S                   10000000     ole32:ole32.dll
 0000:fffd0000       .debug$S                   10000000     ole32:ole32.dll
 0000:fffd0000       .debug$S                   10000000     ole32:ole32.dll
 0000:fffd0000       .debug$S                   10000000     ole32:ole32.dll
 0000:fffd0000       .debug$S                   10000000     ole32:ole32.dll
 0000:fffd0000       .debug$S                   10000000     ole32:ole32.dll
 0000:fffd0000       .debug$S                   10000000     ole32:ole32.dll
 0000:fffd0000       .debug$S                   10000000     ole32:ole32.dll
 0000:fffd0000       .debug$S                   10000000     ole32:ole32.dll
 0000:fffd0000       .debug$S                   10000000     ole32:ole32.dll
 0000:fffd0000       .debug$S                   10000000     ole32:ole32.dll
 0000:fffd0000       .debug$S                   10000000     gdi32:GDI32.dll
 0000:fffd0000       .debug$S                   10000000     oleaut32:OLEAUT32.dll
 0000:fffd0000       .debug$S                   10000000     oleaut32:OLEAUT32.dll
 0000:fffd0000       .debug$S                   10000000     oleaut32:OLEAUT32.dll
 0000:fffd0000       .debug$S                   10000000     oleaut32:OLEAUT32.dll
 0000:fffd0000       .debug$S                   10000000     oleaut32:OLEAUT32.dll
 0000:fffd0000       .debug$S                   10000000     oleaut32:OLEAUT32.dll
 0000:fffd0000       .debug$S                   10000000     oleaut32:OLEAUT32.dll
 0000:fffd0000       .debug$S                   10000000     oleaut32:OLEAUT32.dll
 0000:fffd0000       .debug$S                   10000000     oleaut32:OLEAUT32.dll
 0000:fffd0000       .debug$S                   10000000     oleaut32:OLEAUT32.dll
 0000:fffd0000       .debug$S                   10000000     oleaut32:OLEAUT32.dll
 0000:fffd0000       .debug$S                   10000000     oleaut32:OLEAUT32.dll
 0000:fffd0000       .debug$S                   10000000     oleaut32:OLEAUT32.dll
 0000:fffd0000       .debug$S                   10000000     oleaut32:OLEAUT32.dll
 0000:fffd0000       .debug$S                   10000000     oleaut32:OLEAUT32.dll
 0000:fffd0000       .debug$S                   10000000     oleaut32:OLEAUT32.dll
 0000:fffd0000       .debug$S                   10000000     gdi32:GDI32.dll
 0000:fffd0000       .debug$S                   10000000     user32:USER32.dll
 0000:fffd0000       .debug$S                   10000000     user32:USER32.dll
 0000:fffd0000       .debug$S                   10000000     user32:USER32.dll
 0000:fffd0000       .debug$S                   10000000     user32:USER32.dll
 0000:fffd0000       .debug$S                   10000000     user32:USER32.dll
 0000:fffd0000       .debug$S                   10000000     user32:USER32.dll
 0000:fffd0000       .debug$S                   10000000     user32:USER32.dll
 0000:fffd0000       .debug$S                   10000000     user32:USER32.dll
 0000:fffd0000       .debug$S                   10000000     user32:USER32.dll
 0000:fffd0000       .debug$S                   10000000     user32:USER32.dll
 0000:fffd0000       .debug$S                   10000000     kernel32:KERNEL32.dll
 0000:fffd0000       .debug$S                   10000000     kernel32:KERNEL32.dll
 0000:fffd0000       .debug$S                   10000000     user32:USER32.dll
 0000:fffd0000       .debug$S                   10000000     kernel32:KERNEL32.dll
 0000:fffd0000       .debug$S                   10000000     user32:USER32.dll
 0000:fffd0000       .debug$S                   10000000     user32:USER32.dll
 0000:fffd0000       .debug$S                   10000000     user32:USER32.dll
 0000:fffd0000       .debug$S                   10000000     user32:USER32.dll
 0000:fffd0000       .debug$S                   10000000     user32:USER32.dll
 0000:fffd0000       .debug$S                   10000000     user32:USER32.dll
 0000:fffd0000       .debug$S                   10000000     user32:USER32.dll
 0000:fffd0000       .debug$S                   10000000     user32:USER32.dll
 0000:fffd0000       .debug$S                   10000000     user32:USER32.dll
 0000:fffd0000       .debug$S                   10000000     user32:USER32.dll
 0000:fffd0000       .debug$S                   10000000     user32:USER32.dll
 0000:fffd0000       .debug$S                   10000000     user32:USER32.dll
 0000:fffd0000       .debug$S                   10000000     user32:USER32.dll
 0000:fffd0000       .debug$S                   10000000     user32:USER32.dll
 0000:fffd0000       .debug$S                   10000000     user32:USER32.dll
 0000:fffd0000       .debug$S                   10000000     user32:USER32.dll
 0000:fffd0000       .debug$S                   10000000     user32:USER32.dll
 0000:fffd0000       .debug$S                   10000000     user32:USER32.dll
 0000:fffd0000       .debug$S                   10000000     user32:USER32.dll
 0000:fffd0000       .debug$S                   10000000     kernel32:KERNEL32.dll
 0000:fffd0000       .debug$S                   10000000     user32:USER32.dll
 0000:fffd0000       .debug$S                   10000000     kernel32:KERNEL32.dll
 0000:fffd0000       .debug$S                   10000000     user32:USER32.dll
 0000:fffd0000       .debug$S                   10000000     kernel32:KERNEL32.dll
 0000:fffd0000       .debug$S                   10000000     user32:USER32.dll
 0000:fffd0000       .debug$S                   10000000     user32:USER32.dll
 0000:fffd0000       .debug$S                   10000000     user32:USER32.dll
 0000:fffd0000       .debug$S                   10000000     kernel32:KERNEL32.dll
 0000:fffd0000       .debug$S                   10000000     kernel32:KERNEL32.dll
 0000:fffd0000       .debug$S                   10000000     kernel32:KERNEL32.dll
 0000:fffd0000       .debug$S                   10000000     kernel32:KERNEL32.dll
 0000:fffd0000       .debug$S                   10000000     kernel32:KERNEL32.dll
 0000:fffd0000       .debug$S                   10000000     kernel32:KERNEL32.dll
 0000:fffd0000       .debug$S                   10000000     kernel32:KERNEL32.dll
 0000:fffd0000       .debug$S                   10000000     kernel32:KERNEL32.dll
 0000:fffd0000       .debug$S                   10000000     kernel32:KERNEL32.dll
 0000:fffd0000       .debug$S                   10000000     kernel32:KERNEL32.dll
 0000:fffd0000       .debug$S                   10000000     kernel32:KERNEL32.dll
 0000:fffd0000       .debug$S                   10000000     kernel32:KERNEL32.dll
 0000:fffd0000       .debug$S                   10000000     kernel32:KERNEL32.dll
 0000:fffd0000       .debug$S                   10000000     kernel32:KERNEL32.dll
 0000:fffd0000       .debug$S                   10000000     kernel32:KERNEL32.dll
 0000:fffd0000       .debug$S                   10000000     kernel32:KERNEL32.dll
 0000:fffd0000       .debug$S                   10000000     kernel32:KERNEL32.dll
 0000:fffd0000       .debug$S                   10000000     kernel32:KERNEL32.dll
 0000:fffd0000       .debug$S                   10000000     kernel32:KERNEL32.dll
 0000:fffd0000       .debug$S                   10000000     kernel32:KERNEL32.dll
 0000:fffd0000       .debug$S                   10000000     kernel32:KERNEL32.dll
 0000:fffd0000       .debug$S                   10000000     kernel32:KERNEL32.dll
 0000:fffd0000       .debug$S                   10000000     kernel32:KERNEL32.dll
 0000:fffd0000       .debug$S                   10000000     kernel32:KERNEL32.dll
 0000:fffd0000       .debug$S                   10000000     kernel32:KERNEL32.dll
 0000:fffd0000       .debug$S                   10000000     kernel32:KERNEL32.dll
 0000:fffd0000       .debug$S                   10000000     kernel32:KERNEL32.dll
 0000:fffd0000       .debug$S                   10000000     kernel32:KERNEL32.dll
 0000:fffd0000       .debug$S                   10000000     kernel32:KERNEL32.dll
 0001:00000000       ??__E_AtlComModule@ATL@@YAXXZ 10001000 f   OposVariant.obj
 0001:00000016       ??__E_AtlWinModule@ATL@@YAXXZ 10001016 f   OposVariant.obj
 0001:0000002c       ??__E?pConnMap@?$IConnectionPointContainerImpl@VCOPOSBumpBar@@@ATL@@0PBU_ATL_CONNMAP_ENTRY@2@B@@YAXXZ 1000102c f   BumpBar.obj
 0001:0000003a       ??__E_Module@@YAXXZ        1000103a f   BumpBar.obj
 0001:00000064       ??__E_AtlBaseModule@ATL@@YAXXZ 10001064 f   atls:atlbase.obj
 0001:00001653       $LN37                      10002653     BumpBar.obj
 0001:00005c90       $LN53                      10006c90     BumpBar.obj
 0001:00005ca8       $LN49                      10006ca8     BumpBar.obj
 0001:00007aec       $LN45                      10008aec     BumpBar.obj
 0001:00007b04       $LN36                      10008b04     BumpBar.obj
 0001:000090b7       $LN87                      1000a0b7     BumpBar.obj
 0001:000090cf       $LN81                      1000a0cf     BumpBar.obj
 0001:000094fc       _memcpy_s                  1000a4fc f   BumpBar.obj
 0001:0000b24a       ?find_pe_section@@YAPAU_IMAGE_SECTION_HEADER@@QAEI@Z 1000c24a f   LIBCMT:utility.obj
 0001:0000b595       ?__scrt_initialize_thread_safe_statics@@YAHXZ 1000c595 f   LIBCMT:thread_safe_statics.obj
 0001:0000b5bc       ?__scrt_initialize_thread_safe_statics_platform_specific@@YAXXZ 1000c5bc f   LIBCMT:thread_safe_statics.obj
 0001:0000b6ab       ?__scrt_uninitialize_thread_safe_statics@@YAXXZ 1000c6ab f   LIBCMT:thread_safe_statics.obj
 0001:0000ba38       __catch$??2@YAPAXIABUnothrow_t@std@@@Z$0 1000ca38 f   LIBCMT:new_scalar_nothrow.obj
 0001:0000ba70       $$000000                   1000ca70     LIBCMT:sehprolg4gs.obj
 0001:0000bad0       $$000000                   1000cad0     LIBCMT:alloca16.obj
 0001:0000bb00       $$000000                   1000cb00     LIBCMT:chkstk.obj
 0001:0000bb2d       ?dllmain_crt_dispatch@@YGHQAUHINSTANCE__@@KQAX@Z 1000cb2d f   LIBCMT:dll_dllmain.obj
 0001:0000bb80       ?dllmain_crt_process_attach@@YAHQAUHINSTANCE__@@QAX@Z 1000cb80 f   LIBCMT:dll_dllmain.obj
 0001:0000bc8a       ?dllmain_crt_process_detach@@YAH_N@Z 1000cc8a f   LIBCMT:dll_dllmain.obj
 0001:0000bd1c       ?dllmain_dispatch@@YAHQAUHINSTANCE__@@KQAX@Z 1000cd1c f   LIBCMT:dll_dllmain.obj
 0001:0000be22       ?dllmain_raw@@YGHQAUHINSTANCE__@@KQAX@Z 1000ce22 f   LIBCMT:dll_dllmain.obj
 0001:0000c170       $$000000                   1000d170     LIBCMT:sehprolg4.obj
 0001:0000c1cc       ___get_entropy             1000d1cc f   LIBCMT:gs_support.obj
 0001:0000c4c3       ??$GetProcAddressAll@P6GXPAUAtlThunkData_t@@PAXI@Z@@YAP6GXPAUAtlThunkData_t@@PAXI@ZPAP6GX01I@Z@Z 1000d4c3 f   atls:atlthunk.obj
 0001:0000c4c3       ??$GetProcAddressAll@P6GP6GJPAUHWND__@@IIJ@ZPAUAtlThunkData_t@@@Z@@YAP6GP6GJPAUHWND__@@IIJ@ZPAUAtlThunkData_t@@@ZPAP6GP6GJ0IIJ@Z1@Z@Z 1000d4c3 f   atls:atlthunk.obj
 0001:0000c4c3       ??$GetProcAddressAll@P6GXPAUAtlThunkData_t@@@Z@@YAP6GXPAUAtlThunkData_t@@@ZPAP6GX0@Z@Z 1000d4c3 f   atls:atlthunk.obj
 0001:0000c4c3       ??$GetProcAddressAll@P6GPAUAtlThunkData_t@@XZ@@YAP6GPAUAtlThunkData_t@@XZPAP6GPAU0@XZ@Z 1000d4c3 f   atls:atlthunk.obj
 0001:0000c573       ?GetProcAddressSingle@@YA_NPAUHINSTANCE__@@PBDPAPAX@Z 1000d573 f   atls:atlthunk.obj
 0001:0000c6c5       ?__InitializeThunkPool@@YAHXZ 1000d6c5 f   atls:atlthunk.obj
 0001:0000cb30       _ValidateLocalCookies      1000db30 f   libvcruntime:chandler4.obj
 0001:0000dbeb       $LN1285                    1000ebeb     libvcruntime:memcmp.obj
 0001:0000dc70       $$000000                   1000ec70     libvcruntime:memcpy.obj
 0001:0000ded4       TrailingUpVec              1000eed4     libvcruntime:memcpy.obj
 0001:0000df80       TrailingDownVec            1000ef80     libvcruntime:memcpy.obj
 0001:0000e1f0       $$000000                   1000f1f0     libvcruntime:memset.obj
 0001:0000e8b0       $$000000                   1000f8b0     libvcruntime:memmove.obj
 0001:0000eb14       TrailingUpVec              1000fb14     libvcruntime:memmove.obj
 0001:0000ebc0       TrailingDownVec            1000fbc0     libvcruntime:memmove.obj
 0001:0000ee30       $$000000                   1000fe30     libvcruntime:exsup4.obj
 0001:0000eec0       __unwind_handler4          1000fec0 f   libvcruntime:exsup4.obj
 0001:0000f19f       ?try_get_first_available_module@@YAPAUHINSTANCE__@@QBW4module_id@?A0x5d2a34d3@@0@Z 1001019f f   libvcruntime:winapi_downlevel.obj
 0001:0000f263       ?try_get_function@@YAPAXW4function_id@?A0x5d2a34d3@@QBDQBW4module_id@2@2@Z 10010263 f   libvcruntime:winapi_downlevel.obj
 0001:0000f463       ??$BuildCatchObjectHelperInternal@V__FrameHandler3@@@@YAHPAUEHExceptionRecord@@PAXPBU_s_HandlerType@@PBU_s_CatchableType@@@Z 10010463 f   libvcruntime:frame.obj
 0001:0000f5a2       ??$BuildCatchObjectInternal@V__FrameHandler3@@@@YAXPAUEHExceptionRecord@@PAXPBU_s_HandlerType@@PBU_s_CatchableType@@@Z 100105a2 f   libvcruntime:frame.obj
 0001:0000f63b       ??$CatchIt@V__FrameHandler3@@@@YAXPAUEHExceptionRecord@@PAUEHRegistrationNode@@PAU_CONTEXT@@PAXPBU_s_FuncInfo@@PBU_s_HandlerType@@PBU_s_CatchableType@@PBU_s_TryBlockMapEntry@@H1E@Z 1001063b f   libvcruntime:frame.obj
 0001:0000f6bb       ??$FindHandler@V__FrameHandler3@@@@YAXPAUEHExceptionRecord@@PAUEHRegistrationNode@@PAU_CONTEXT@@PAXPBU_s_FuncInfo@@EH1@Z 100106bb f   libvcruntime:frame.obj
 0001:0000fa49       ??$FindHandlerForForeignException@V__FrameHandler3@@@@YAXPAUEHExceptionRecord@@PAUEHRegistrationNode@@PAU_CONTEXT@@PAXPBU_s_FuncInfo@@HH1@Z 10010a49 f   libvcruntime:frame.obj
 0001:0000fd3c       ?CallCatchBlock@@YAPAXPAUEHExceptionRecord@@PAUEHRegistrationNode@@PAU_CONTEXT@@PBU_s_FuncInfo@@PAXHK@Z 10010d3c f   libvcruntime:frame.obj
 0001:0000ff00       ?CallUnexpected@@YAXPBU_s_ESTypeList@@@Z 10010f00 f   libvcruntime:frame.obj
 0001:0000ff20       __catch$?CallUnexpected@@YAXPBU_s_ESTypeList@@@Z$0 10010f20 f   libvcruntime:frame.obj
 0001:0000ff3a       ?ExFilterRethrow@@YAHPAU_EXCEPTION_POINTERS@@@Z 10010f3a f   libvcruntime:frame.obj
 0001:00010084       ?IsInExceptionSpec@@YAEPAUEHExceptionRecord@@PBU_s_ESTypeList@@@Z 10011084 f   libvcruntime:frame.obj
 0001:00010150       $$000000                   10011150     libvcruntime:lowhelpr.obj
 0001:000101a0       $$000000                   100111a0     libvcruntime:exsup.obj
 0001:000101c1       __unwind_handler           100111c1 f   libvcruntime:exsup.obj
 0001:0001096a       ??$common_tcsncpy_s@_W@@YAHQA_WIQB_WI@Z 1001196a f   libucrt:wcsncpy_s.obj
 0001:00010a42       ??$common_vsprintf@Vformat_validation_base@__crt_stdio_output@@_W@@YAH_KQA_WIQB_WQAU__crt_locale_pointers@@QAD@Z 10011a42 f   libucrt:output.obj
 0001:00010bc7       ??$common_vsprintf_s@_W@@YAH_KQA_WIQB_WQAU__crt_locale_pointers@@QAD@Z 10011bc7 f   libucrt:output.obj
 0001:00011250       $LN52                      10012250     libucrt:output.obj
 0001:00011741       $LN19                      10012741     libucrt:output.obj
 0001:00011fe5       ?atexit_exception_filter@@YAHK@Z 10012fe5 f   libucrt:exit.obj
 0001:00011ff8       ?common_exit@@YAXHW4_crt_exit_cleanup_mode@@W4_crt_exit_return_mode@@@Z 10012ff8 f   libucrt:exit.obj
 0001:00012111       ?exit_or_terminate_process@@YAXI@Z 10013111 f   libucrt:exit.obj
 0001:00012152       ?is_managed_app@@YA_NXZ    10013152 f   libucrt:exit.obj
 0001:00012196       ?try_cor_exit_process@@YAXI@Z 10013196 f   libucrt:exit.obj
 0001:0001223a       ??$common_configure_argv@D@@YAHW4_crt_argv_mode@@@Z 1001323a f   libucrt:argv_parsing.obj
 0001:0001235e       ??$parse_command_line@D@@YAXPADPAPAD0PAI2@Z 1001335e f   libucrt:argv_parsing.obj
 0001:00012533       ??$common_initialize_environment_nolock@D@@YAHXZ 10013533 f   libucrt:environment_initialization.obj
 0001:0001258c       ??$create_environment@D@@YAQAPADQAD@Z 1001358c f   libucrt:environment_initialization.obj
 0001:0001265d       ??$free_environment@_W@@YAXQAPA_W@Z 1001365d f   libucrt:environment_initialization.obj
 0001:0001265d       ??$free_environment@D@@YAXQAPAD@Z 1001365d f   libucrt:environment_initialization.obj
 0001:000126cc       ??$uninitialize_environment_internal@D@@YAXAAPAPAD@Z 100136cc f   libucrt:environment_initialization.obj
 0001:000126e7       ??$uninitialize_environment_internal@_W@@YAXAAPAPA_W@Z 100136e7 f   libucrt:environment_initialization.obj
 0001:0001284f       ??R<lambda_275893d493268fdec8709772e3fcec0e>@@QBEHXZ 1001384f f   libucrt:onexit.obj
 0001:0001296f       ??R<lambda_4e60a939b0d047cfe11ddc22648dfba9>@@QBEHXZ 1001396f f   libucrt:onexit.obj
 0001:00012b44       _initialize_global_variables 10013b44 f   libucrt:initialization.obj
 0001:00012b56       _initialize_c              10013b56 f   libucrt:initialization.obj
 0001:00012b70       _initialize_global_state_isolation 10013b70 f   libucrt:initialization.obj
 0001:00012b70       _uninitialize_global_state_isolation 10013b70 f   libucrt:initialization.obj
 0001:00012b70       _report_memory_leaks       10013b70 f   libucrt:initialization.obj
 0001:00012b70       _uninitialize_c            10013b70 f   libucrt:initialization.obj
 0001:00012b70       _initialize_environment    10013b70 f   libucrt:initialization.obj
 0001:00012b73       _uninitialize_environment  10013b73 f   libucrt:initialization.obj
 0001:00012b7b       _initialize_pointers       10013b7b f   libucrt:initialization.obj
 0001:00012bb8       _uninitialize_vcruntime    10013bb8 f   libucrt:initialization.obj
 0001:00012bc1       _uninitialize_allocated_memory 10013bc1 f   libucrt:initialization.obj
 0001:00013680       $$000000                   10014680     libucrt:strncmp.obj
 0001:00013916       ?construct_ptd@@YAXQAU__acrt_ptd@@QAPAU__crt_locale_data@@@Z 10014916 f   libucrt:per_thread_data.obj
 0001:0001398f       ?destroy_fls@@YGXPAX@Z     1001498f f   libucrt:per_thread_data.obj
 0001:000139b0       ?destroy_ptd@@YAXQAU__acrt_ptd@@@Z 100149b0 f   libucrt:per_thread_data.obj
 0001:00013a59       ?replace_current_thread_locale_nolock@@YAXQAU__acrt_ptd@@QAU__crt_locale_data@@@Z 10014a59 f   libucrt:per_thread_data.obj
 0001:00013d66       ?try_get_function@@YAPAXW4function_id@?A0x352e5c4b@@QBDQBW4module_id@2@2@Z 10014d66 f   libucrt:winapi_thunks.obj
 0001:00013e02       ?try_get_module@@YAPAUHINSTANCE__@@W4module_id@?A0x352e5c4b@@@Z 10014e02 f   libucrt:winapi_thunks.obj
 0001:000142b8       ??$common_tox_l@$1?internal_isupper_l@@YA_NHQAU__crt_locale_pointers@@@Z$1?internal_map_lower@@YAHH0@Z@@YAHHKQAU__crt_locale_pointers@@@Z 100152b8 f   libucrt:tolower_toupper.obj
 0001:00014402       ?internal_isupper_l@@YA_NHQAU__crt_locale_pointers@@@Z 10015402 f   libucrt:tolower_toupper.obj
 0001:0001485f       ?fp_format_a@@YAHQBNPADIQADIH_NIQAU__crt_locale_pointers@@@Z 1001585f f   libucrt:cvt.obj
 0001:00014b62       ?fp_format_e@@YAHQBNQADI1IH_NIQAU__crt_locale_pointers@@@Z 10015b62 f   libucrt:cvt.obj
 0001:00014bfd       ?fp_format_e_internal@@YAHQADIH_NIQAU_strflt@@1QAU__crt_locale_pointers@@@Z 10015bfd f   libucrt:cvt.obj
 0001:00014d48       ?fp_format_f@@YAHQBNQADI1IHQAU__crt_locale_pointers@@@Z 10015d48 f   libucrt:cvt.obj
 0001:00014dd5       ?fp_format_f_internal@@YAHQADIHQAU_strflt@@_NQAU__crt_locale_pointers@@@Z 10015dd5 f   libucrt:cvt.obj
 0001:00014eac       ?fp_format_g@@YAHQBNQADI1IH_NIQAU__crt_locale_pointers@@@Z 10015eac f   libucrt:cvt.obj
 0001:00014f74       ?fp_format_nan_or_infinity@@YAHW4__acrt_fp_class@@_NPADI1@Z 10015f74 f   libucrt:cvt.obj
 0001:0001506c       ?shift_bytes@@YAXQADI0H@Z  1001606c f   libucrt:cvt.obj
 0001:000153be       ?initialize_inherited_file_handles_nolock@@YAXXZ 100163be f   libucrt:ioinit.obj
 0001:00015474       ?initialize_stdio_handles_nolock@@YAXXZ 10016474 f   libucrt:ioinit.obj
 0001:0001564c       ?<helper_func_cdecl>@<lambda_62bb7ecb46d0a77b591a051c43eb5ad1>@@CAHPBX0@Z 1001664c f   libucrt:argv_wildcards.obj
 0001:00015664       ??$common_expand_argv_wildcards@D@@YAHQAPADQAPAPAD@Z 10016664 f   libucrt:argv_wildcards.obj
 0001:000157f4       ??$copy_and_add_argument_to_buffer@D@@YAHQBD0IAAV?$argument_list@D@?A0xb0e4b824@@@Z 100167f4 f   libucrt:argv_wildcards.obj
 0001:0001588a       ??$expand_argument_wildcards@D@@YAHQAD0AAV?$argument_list@D@?A0xb0e4b824@@@Z 1001688a f   libucrt:argv_wildcards.obj
 0001:00015b65       ??R<lambda_ad1ced32f4ac17aa236e5ef05d6b3b7c>@@QBEXXZ 10016b65 f   libucrt:mbctype.obj
 0001:00015c29       ?CPtoLocaleName@@YAPB_WH@Z 10016c29 f   libucrt:mbctype.obj
 0001:00015c67       ?getSystemCP@@YAHH@Z       10016c67 f   libucrt:mbctype.obj
 0001:00015cda       ?setSBCS@@YAXPAU__crt_multibyte_data@@@Z 10016cda f   libucrt:mbctype.obj
 0001:00015d3f       ?setSBUpLow@@YAXPAU__crt_multibyte_data@@@Z 10016d3f f   libucrt:mbctype.obj
 0001:00015ed3       ?setmbcp_internal@@YAHH_N@Z 10016ed3 f   libucrt:mbctype.obj
 0001:00016285       _memcpy_s                  10017285 f   libucrt:mbctype.obj
 0001:00016285       _memcpy_s                  10017285 f   libucrt:cfout.obj
 0001:00016306       ?x_ismbbtype_l@@YAHPAU__crt_locale_pointers@@IHH@Z 10017306 f   libucrt:ismbbyte.obj
 0001:00016390       ?find_end_of_double_null_terminated_sequence@@YAPB_WQB_W@Z 10017390 f   libucrt:get_environment_from_os.obj
 0001:000165b7       ?get_global_action_nolock@@YAPAP6AXH@ZH@Z 100175b7 f   libucrt:signal.obj
 0001:000165f9       ?siglookup@@YAPAU__crt_signal_action_t@@HQAU1@@Z 100175f9 f   libucrt:signal.obj
 0001:00016de8       ?GetTableIndexFromLocaleName@@YAHPB_W@Z 10017de8 f   libucrt:lcidtoname_downlevel.obj
 0001:00016f09       ?__acrt_LCMapStringA_stat@@YAHPAU__crt_locale_pointers@@PB_WKPBDHPADHHH@Z 10017f09 f   libucrt:lcmapstringa.obj
 0001:00018c20       _common_flush_all          10019c20 f   libucrt:fflush.obj
 0001:00018ef3       ?free_crt_array_internal@@YAXQAPBXI@Z 10019ef3 f   libucrt:inittime.obj
 0001:000193c0       ?shortsort@@YAXPAD0IP6AHPBX1@Z@Z 1001a3c0 f   libucrt:qsort.obj
 0001:00019460       ?swap@@YAXPAD0I@Z          1001a460 f   libucrt:qsort.obj
 0001:0001983a       ??$common_tcsncpy_s@D@@YAHQADIQBDI@Z 1001a83a f   libucrt:strncpy_s.obj
 0001:00019900       $$000000                   1001a900     libucrt:strpbrk.obj
 0001:000199e4       ?initialize_multibyte@@YAHXZ 1001a9e4 f   libucrt:multibyte_initializer.obj
 0001:00019ad0       $$000000                   1001aad0     libucrt:log10.obj
 0001:00019c20       $$000000                   1001ac20     libucrt:ceil_pentium4.obj
 0001:00019d3d       ?write_double_translated_ansi_nolock@@YA?AUwrite_result@?A0x47fa6670@@HQBDI@Z 1001ad3d f   libucrt:write.obj
 0001:00019ef0       ?write_double_translated_unicode_nolock@@YA?AUwrite_result@?A0x47fa6670@@QBDI@Z 1001aef0 f   libucrt:write.obj
 0001:00019f5d       ?write_requires_double_translation_nolock@@YA_NH@Z 1001af5d f   libucrt:write.obj
 0001:00019fd3       ?write_text_ansi_nolock@@YA?AUwrite_result@?A0x47fa6670@@HQBDI@Z 1001afd3 f   libucrt:write.obj
 0001:0001a0b2       ?write_text_utf16le_nolock@@YA?AUwrite_result@?A0x47fa6670@@HQBDI@Z 1001b0b2 f   libucrt:write.obj
 0001:0001a1a0       ?write_text_utf8_nolock@@YA?AUwrite_result@?A0x47fa6670@@HQBDI@Z 1001b1a0 f   libucrt:write.obj
 0001:0001a5c4       ??$common_lseek_nolock@_J@@YA_JH_JH@Z 1001b5c4 f   libucrt:lseek.obj
 0001:0001a888       ___get_abstract_control_sse2 1001b888 f   libucrt:_fenvutils.obj
 0001:0001a905       ___get_abstract_control_x87 1001b905 f   libucrt:_fenvutils.obj
 0001:0001a978       ___get_machine_control     1001b978 f   libucrt:_fenvutils.obj
 0001:0001a9e9       ___get_machine_control_sse2 1001b9e9 f   libucrt:_fenvutils.obj
 0001:0001aa69       ___get_machine_status_sse2 1001ba69 f   libucrt:_fenvutils.obj
 0001:0001aaca       ___get_machine_status_x87  1001baca f   libucrt:_fenvutils.obj
 0001:0001ae10       $$000000                   1001be10     libucrt:log10_pentium4.obj
 0001:0001b0a0       $$000000                   1001c0a0     libucrt:87tran.obj
 0001:0001b2a0       $$000000                   1001c2a0     libucrt:87disp.obj
 0001:0001b4a0       $$000000                   1001c4a0     libucrt:common.obj
 0001:0001b630       $$000000                   1001c630     libucrt:genexcep.obj
 0001:0001bba0       $$000000                   1001cba0     libucrt:_strnicm.obj
 0001:0001c9f0       $$000000                   1001d9f0     LIBCMT:ulldvrm.obj
 0001:0001ca90       $$000000                   1001da90     LIBCMT:llmul.obj
 0001:0001cad0       $$000000                   1001dad0     LIBCMT:lldvrm.obj
 0001:0001cbb0       $$000000                   1001dbb0     LIBCMT:ullshr.obj
 0001:0001cbd0       $$000000                   1001dbd0     LIBCMT:llshl.obj
 0001:0001cbf0       $$000000                   1001dbf0     LIBCMT:ftol2.obj
 0001:0001ccb0       $$000000                   1001dcb0     libvcruntime:strrchr.obj
 0001:0001cdf0       $$000000                   1001ddf0     libvcruntime:strchr.obj
 0001:0001cf1b       __ehhandler$?__scrt_initialize_thread_safe_statics_platform_specific@@YAXXZ 1001df1b f   LIBCMT:thread_safe_statics.obj
 0001:0001cf36       __ehhandler$??2@YAPAXIABUnothrow_t@std@@@Z 1001df36 f   LIBCMT:new_scalar_nothrow.obj
 0001:0001cf51       __ehhandler$?CallUnexpected@@YAXPBU_s_ESTypeList@@@Z 1001df51 f   libvcruntime:frame.obj
 0001:0001cf6c       ??__F_AtlComModule@ATL@@YAXXZ 1001df6c f   OposVariant.obj
 0001:0001cf76       ??__F_AtlWinModule@ATL@@YAXXZ 1001df76 f   OposVariant.obj
 0001:0001cf90       ??__F_Module@@YAXXZ        1001df90 f   BumpBar.obj
 0001:0001cfa4       ??__F_AtlBaseModule@ATL@@YAXXZ 1001dfa4 f   atls:atlbase.obj
 0002:00000308       ?_AtlBaseModule$initializer$@ATL@@3P6AXXZA 1001e308     atls:atlbase.obj
 0002:0000030c       ?_AtlComModule$initializer$@ATL@@3P6AXXZA 1001e30c     OposVariant.obj
 0002:00000310       ?_AtlWinModule$initializer$@ATL@@3P6AXXZA 1001e310     OposVariant.obj
 0002:00000314       ?_Module$initializer$@@3P6AXXZA 1001e314     BumpBar.obj
 0002:00000318       ??pConnMap$initializer$@?$IConnectionPointContainerImpl@VCOPOSBumpBar@@@ATL@@0P6AXXZA@@3P6AXXZA 1001e318     BumpBar.obj
 0002:00000324       ?__scrt_initialize_tss_var@@3P6AHXZA 1001e324     LIBCMT:thread_safe_statics.obj
 0002:000018ac       _GS_ExceptionPointers      1001f8ac     LIBCMT:gs_report.obj
 0002:00001a18       ?ExceptionTemplate@?1??_CxxThrowException@@9@8@4UEHExceptionRecord@@B 1001fa18     libvcruntime:throw.obj
 0002:00001a38       ?module_names@?A0x5d2a34d3@@3QBQB_WB 1001fa38     libvcruntime:winapi_downlevel.obj
 0002:00001af0       ?candidate_modules@?1??try_get_FlsAlloc@@YAP6GKP6GXPAX@Z@ZXZ@4QBW4module_id@?A0x5d2a34d3@@B 1001faf0     libvcruntime:winapi_downlevel.obj
 0002:00001b04       ?candidate_modules@?1??try_get_FlsFree@@YAP6GHK@ZXZ@4QBW4module_id@?A0x5d2a34d3@@B 1001fb04     libvcruntime:winapi_downlevel.obj
 0002:00001b14       ?candidate_modules@?1??try_get_FlsGetValue@@YAP6GPAXK@ZXZ@4QBW4module_id@?A0x5d2a34d3@@B 1001fb14     libvcruntime:winapi_downlevel.obj
 0002:00001b28       ?candidate_modules@?1??try_get_FlsSetValue@@YAP6GHKPAX@ZXZ@4QBW4module_id@?A0x5d2a34d3@@B 1001fb28     libvcruntime:winapi_downlevel.obj
 0002:00001b3c       ?candidate_modules@?1??try_get_InitializeCriticalSectionEx@@YAP6GHPAU_RTL_CRITICAL_SECTION@@KK@ZXZ@4QBW4module_id@?A0x5d2a34d3@@B 1001fb3c     libvcruntime:winapi_downlevel.obj
 0002:00001b80       ?tokenTable@@3QBQBDB       1001fb80     libvcruntime:undname.obj
 0002:00001bc0       ?nameTable@@3QBQBDB        1001fbc0     libvcruntime:undname.obj
 0002:00001d08       ?rttiTable@@3QBQBDB        1001fd08     libvcruntime:undname.obj
 0002:00002320       _errtable                  10020320     libucrt:errno.obj
 0002:000025c8       ___acrt_initializers       100205c8     libucrt:initialization.obj
 0002:00002640       _module_names              10020640     libucrt:winapi_thunks.obj
 0002:00002b88       ?candidate_modules@?1??try_get_FlsAlloc@@YAP6GKP6GXPAX@Z@ZXZ@4QBW4module_id@?A0x352e5c4b@@B 10020b88     libucrt:winapi_thunks.obj
 0002:00002b9c       ?candidate_modules@?1??try_get_FlsFree@@YAP6GHK@ZXZ@4QBW4module_id@?A0x352e5c4b@@B 10020b9c     libucrt:winapi_thunks.obj
 0002:00002bac       ?candidate_modules@?1??try_get_FlsGetValue@@YAP6GPAXK@ZXZ@4QBW4module_id@?A0x352e5c4b@@B 10020bac     libucrt:winapi_thunks.obj
 0002:00002bc0       ?candidate_modules@?1??try_get_FlsSetValue@@YAP6GHKPAX@ZXZ@4QBW4module_id@?A0x352e5c4b@@B 10020bc0     libucrt:winapi_thunks.obj
 0002:00002bd4       ?candidate_modules@?1??try_get_GetCurrentPackageId@@YAP6GJPAIPAE@ZXZ@4QBW4module_id@?A0x352e5c4b@@B 10020bd4     libucrt:winapi_thunks.obj
 0002:00002bf0       ?candidate_modules@?1??try_get_InitializeCriticalSectionEx@@YAP6GHPAU_RTL_CRITICAL_SECTION@@KK@ZXZ@4QBW4module_id@?A0x352e5c4b@@B 10020bf0     libucrt:winapi_thunks.obj
 0002:00002c14       ?candidate_modules@?1??try_get_LCMapStringEx@@YAP6GHPB_WK0HPA_WHPAU_nlsversioninfo@@PAXJ@ZXZ@4QBW4module_id@?A0x352e5c4b@@B 10020c14     libucrt:winapi_thunks.obj
 0002:00002c2c       ?candidate_modules@?1??try_get_LocaleNameToLCID@@YAP6GKPB_WK@ZXZ@4QBW4module_id@?A0x352e5c4b@@B 10020c2c     libucrt:winapi_thunks.obj
 0002:00002c48       ?candidate_modules@?1??try_get_SetThreadStackGuarantee@@YAP6GHPAK@ZXZ@4QBW4module_id@?A0x352e5c4b@@B 10020c48     libucrt:winapi_thunks.obj
 0002:00003174       __mb_locale_names          10021174     libucrt:mbctype.obj
 0002:000039c0       _LcidToLocaleNameTable     100219c0     libucrt:lcidtoname_downlevel.obj
 0002:00004ae8       _LocaleNameToIndexTable    10022ae8     libucrt:lcidtoname_downlevel.obj
 0002:00006420       LOG_name                   10024420     libucrt:log10.obj
 0002:00006430       _One                       10024430     libucrt:ceil_pentium4.obj
 0002:00006440       _Bns                       10024440     libucrt:ceil_pentium4.obj
 0002:00006450       _Zero                      10024450     libucrt:ceil_pentium4.obj
 0002:00006460       _S                         10024460     libucrt:ceil_pentium4.obj
 0002:00006470       _NegZero                   10024470     libucrt:ceil_pentium4.obj
 0002:00006480       emask                      10024480     libucrt:log10_pentium4.obj
 0002:00006490       CC                         10024490     libucrt:log10_pentium4.obj
 0002:000064a0       Magic                      100244a0     libucrt:log10_pentium4.obj
 0002:000064b0       hi_mask                    100244b0     libucrt:log10_pentium4.obj
 0002:000064c0       LOG10_2                    100244c0     libucrt:log10_pentium4.obj
 0002:000064d0       place_L                    100244d0     libucrt:log10_pentium4.obj
 0002:000064f0       One                        100244f0     libucrt:log10_pentium4.obj
 0002:00006500       Zero                       10024500     libucrt:log10_pentium4.obj
 0002:00006510       Two52                      10024510     libucrt:log10_pentium4.obj
 0002:00006520       Infs                       10024520     libucrt:log10_pentium4.obj
 0002:00006530       NaN                        10024530     libucrt:log10_pentium4.obj
 0002:00006540       coeff                      10024540     libucrt:log10_pentium4.obj
 0002:0000659e       _log2max                   1002459e     libucrt:87tran.obj
 0002:000065a8       _smallarg                  100245a8     libucrt:87tran.obj
 0002:000065b2       _half                      100245b2     libucrt:87tran.obj
 0002:000065fe       One                        100245fe     libucrt:87disp.obj
 0002:00006606       Three                      10024606     libucrt:87disp.obj
 0002:0000660e       XAMtoTagTab                1002460e     libucrt:87disp.obj
 0002:00006620       One                        10024620     libucrt:common.obj
 0002:00006634       DblMax                     10024634     libucrt:common.obj
 0002:0000663c       DblMin                     1002463c     libucrt:common.obj
 0002:00006644       IeeeAdjO                   10024644     libucrt:common.obj
 0002:0000664c       IeeeAdjU                   1002464c     libucrt:common.obj
 0002:00006654       _infinity                  10024654     libucrt:common.obj
 0002:0000665c       _zero                      1002465c     libucrt:common.obj
 0002:00006698       _over                      10024698     libucrt:fpctrl.obj
 0002:000066a4       _under                     100246a4     libucrt:fpctrl.obj
 0002:00006f68       ?_names@?1??_get_fname@@9@9 10024f68     libucrt:fpexcept.obj
 0002:00007738       __sehtable$?_AtlVerifyStackAvailable@_ATL_SAFE_ALLOCA_IMPL@ATL@@YA_NK@Z 10025738     BumpBar.obj
 0002:00007758       __sehtable$___scrt_is_nonwritable_in_current_image 10025758     LIBCMT:utility.obj
 0002:00007774       __ehfuncinfo$?__scrt_initialize_thread_safe_statics_platform_specific@@YAXXZ 10025774     LIBCMT:thread_safe_statics.obj
 0002:00007798       __catchsym$??2@YAPAXIABUnothrow_t@std@@@Z$2 10025798     LIBCMT:new_scalar_nothrow.obj
 0002:000077a8       __unwindtable$??2@YAPAXIABUnothrow_t@std@@@Z 100257a8     LIBCMT:new_scalar_nothrow.obj
 0002:000077b8       __tryblocktable$??2@YAPAXIABUnothrow_t@std@@@Z 100257b8     LIBCMT:new_scalar_nothrow.obj
 0002:000077cc       __ehfuncinfo$??2@YAPAXIABUnothrow_t@std@@@Z 100257cc     LIBCMT:new_scalar_nothrow.obj
 0002:000077f0       __sehtable$?dllmain_crt_process_attach@@YAHQAUHINSTANCE__@@QAX@Z 100257f0     LIBCMT:dll_dllmain.obj
 0002:00007810       __sehtable$?dllmain_crt_process_detach@@YAH_N@Z 10025810     LIBCMT:dll_dllmain.obj
 0002:00007830       __sehtable$?dllmain_dispatch@@YAHQAUHINSTANCE__@@KQAX@Z 10025830     LIBCMT:dll_dllmain.obj
 0002:000078e0       __sehtable$?FrameUnwindToState@__FrameHandler3@@SAXPAUEHRegistrationNode@@PAXPBU_s_FuncInfo@@H@Z 100258e0     libvcruntime:frame.obj
 0002:00007908       __sehtable$?CallCatchBlock@@YAPAXPAUEHExceptionRecord@@PAUEHRegistrationNode@@PAU_CONTEXT@@PBU_s_FuncInfo@@PAXHK@Z 10025908     libvcruntime:frame.obj
 0002:00007930       __catchsym$?CallUnexpected@@YAXPBU_s_ESTypeList@@@Z$2 10025930     libvcruntime:frame.obj
 0002:00007940       __unwindtable$?CallUnexpected@@YAXPBU_s_ESTypeList@@@Z 10025940     libvcruntime:frame.obj
 0002:00007950       __tryblocktable$?CallUnexpected@@YAXPBU_s_ESTypeList@@@Z 10025950     libvcruntime:frame.obj
 0002:00007964       __ehfuncinfo$?CallUnexpected@@YAXPBU_s_ESTypeList@@@Z 10025964     libvcruntime:frame.obj
 0002:00007988       __sehtable$??$BuildCatchObjectHelperInternal@V__FrameHandler3@@@@YAHPAUEHExceptionRecord@@PAXPBU_s_HandlerType@@PBU_s_CatchableType@@@Z 10025988     libvcruntime:frame.obj
 0002:000079a8       __sehtable$??$BuildCatchObjectInternal@V__FrameHandler3@@@@YAXPAUEHExceptionRecord@@PAXPBU_s_HandlerType@@PBU_s_CatchableType@@@Z 100259a8     libvcruntime:frame.obj
 0002:00007a00       __sehtable$___DestructExceptionObject 10025a00     libvcruntime:ehhelpers.obj
 0002:00007a20       __sehtable$?common_exit@@YAXHW4_crt_exit_cleanup_mode@@W4_crt_exit_return_mode@@@Z 10025a20     libucrt:exit.obj
 0002:00007a48       __sehtable$??$?RV<lambda_800076c951b434888f4765a74a194fcc>@@AAV<lambda_4e60a939b0d047cfe11ddc22648dfba9>@@V<lambda_6dbb1268764f43b569ce7b67e331d33a>@@@?$__crt_seh_guarded_call@H@@QAEH$$QAV<lambda_800076c951b434888f4765a74a194fcc>@@AAV<lambda_4e60a939b0d047cfe11ddc22648dfba9>@@$$QAV<lambda_6dbb1268764f43b569ce7b67e331d33a>@@@Z 10025a48     libucrt:onexit.obj
 0002:00007a68       __sehtable$??$?RV<lambda_995298e7d72eb4c2aab26c0585b3abe5>@@AAV<lambda_275893d493268fdec8709772e3fcec0e>@@V<lambda_293819299cbf9a7022e18b56a874bb5c>@@@?$__crt_seh_guarded_call@H@@QAEH$$QAV<lambda_995298e7d72eb4c2aab26c0585b3abe5>@@AAV<lambda_275893d493268fdec8709772e3fcec0e>@@$$QAV<lambda_293819299cbf9a7022e18b56a874bb5c>@@@Z 10025a68     libucrt:onexit.obj
 0002:00007a88       __sehtable$__query_new_handler 10025a88     libucrt:new_handler.obj
 0002:00007aa8       __sehtable$_terminate      10025aa8     libucrt:terminate.obj
 0002:00007ac8       __sehtable$??$?RV<lambda_9df27f884b057bc3edfc946cb5b7cf47>@@AAV<lambda_e69574bed617af4e071282c136b37893>@@V<lambda_cc0d902bcbbeb830f749456577db4721>@@@?$__crt_seh_guarded_call@X@@QAEX$$QAV<lambda_9df27f884b057bc3edfc946cb5b7cf47>@@AAV<lambda_e69574bed617af4e071282c136b37893>@@$$QAV<lambda_cc0d902bcbbeb830f749456577db4721>@@@Z 10025ac8     libucrt:per_thread_data.obj
 0002:00007ae8       __sehtable$??$?RV<lambda_3518db117f0e7cdb002338c5d3c47b6c>@@AAV<lambda_b2ea41f6bbb362cd97d94c6828d90b61>@@V<lambda_abdedf541bb04549bc734292b4a045d4>@@@?$__crt_seh_guarded_call@X@@QAEX$$QAV<lambda_3518db117f0e7cdb002338c5d3c47b6c>@@AAV<lambda_b2ea41f6bbb362cd97d94c6828d90b61>@@$$QAV<lambda_abdedf541bb04549bc734292b4a045d4>@@@Z 10025ae8     libucrt:per_thread_data.obj
 0002:00007b08       __sehtable$??$?RV<lambda_51b6e8b1eb166f2a3faf91f424b38130>@@AAV<lambda_6250bd4b2a391816dd638c3bf72b0bcb>@@V<lambda_0b5a4a3e68152e1d9b943535f5f47bed>@@@?$__crt_seh_guarded_call@X@@QAEX$$QAV<lambda_51b6e8b1eb166f2a3faf91f424b38130>@@AAV<lambda_6250bd4b2a391816dd638c3bf72b0bcb>@@$$QAV<lambda_0b5a4a3e68152e1d9b943535f5f47bed>@@@Z 10025b08     libucrt:per_thread_data.obj
 0002:00007b28       __sehtable$??$?RV<lambda_5b71d36f03204c0beab531769a5b5694>@@AAV<lambda_be2b3da3f62db62e9dad5dc70221a656>@@V<lambda_8f9ce462984622f9bf76b59e2aaaf805>@@@?$__crt_seh_guarded_call@X@@QAEX$$QAV<lambda_5b71d36f03204c0beab531769a5b5694>@@AAV<lambda_be2b3da3f62db62e9dad5dc70221a656>@@$$QAV<lambda_8f9ce462984622f9bf76b59e2aaaf805>@@@Z 10025b28     libucrt:per_thread_data.obj
 0002:00007b48       __sehtable$___acrt_uninitialize_locale 10025b48     libucrt:wsetlocale.obj
 0002:00007b68       __sehtable$___acrt_initialize_lowio 10025b68     libucrt:ioinit.obj
 0002:00007b88       __sehtable$___acrt_update_thread_multibyte_data 10025b88     libucrt:mbctype.obj
 0002:00007ba8       __sehtable$??$?RV<lambda_978dc153c237d78434369da87b74ff60>@@AAV<lambda_ad1ced32f4ac17aa236e5ef05d6b3b7c>@@V<lambda_4a8533e2866a575feecb8298ce776b0d>@@@?$__crt_seh_guarded_call@X@@QAEX$$QAV<lambda_978dc153c237d78434369da87b74ff60>@@AAV<lambda_ad1ced32f4ac17aa236e5ef05d6b3b7c>@@$$QAV<lambda_4a8533e2866a575feecb8298ce776b0d>@@@Z 10025ba8     libucrt:mbctype.obj
 0002:00007bc8       __sehtable$_raise          10025bc8     libucrt:signal.obj
 0002:00007be8       __sehtable$??$?RV<lambda_a048d3beccc847880fc8490e18b82769>@@AAV<lambda_ec61778202f4f5fc7e7711acc23c3bca>@@V<lambda_f7496a158712204296dd6628a163878e>@@@?$__crt_seh_guarded_call@P6AXH@Z@@QAEP6AXH@Z$$QAV<lambda_a048d3beccc847880fc8490e18b82769>@@AAV<lambda_ec61778202f4f5fc7e7711acc23c3bca>@@$$QAV<lambda_f7496a158712204296dd6628a163878e>@@@Z 10025be8     libucrt:signal.obj
 0002:00007c08       __sehtable$___acrt_update_thread_locale_data 10025c08     libucrt:locale_refcounting.obj
 0002:00007c28       __sehtable$__fcloseall     10025c28     libucrt:closeall.obj
 0002:00007c48       __sehtable$_common_flush_all 10025c48     libucrt:fflush.obj
 0002:00007c70       __sehtable$___acrt_lowio_ensure_fh_exists 10025c70     libucrt:osfinfo.obj
 0002:00007c90       __sehtable$__write         10025c90     libucrt:write.obj
 0002:00007cb0       __sehtable$_fclose         10025cb0     libucrt:fclose.obj
 0002:00007cd0       __sehtable$??$?RV<lambda_61cee617f5178ae960314fd4d05640a0>@@AAV<lambda_6978c1fb23f02e42e1d9e99668cc68aa>@@V<lambda_9cd88cf8ad10232537feb2133f08c833>@@@?$__crt_seh_guarded_call@H@@QAEH$$QAV<lambda_61cee617f5178ae960314fd4d05640a0>@@AAV<lambda_6978c1fb23f02e42e1d9e99668cc68aa>@@$$QAV<lambda_9cd88cf8ad10232537feb2133f08c833>@@@Z 10025cd0     libucrt:commit.obj
 0002:00007cf0       __sehtable$??$?RV<lambda_123407a5e2ac06da108355a851863b7a>@@AAV<lambda_2fe9b910cf3cbf4a0ab98a02ba45b3ec>@@V<lambda_ae55bdf541ad94d75914d381c370e64d>@@@?$__crt_seh_guarded_call@H@@QAEH$$QAV<lambda_123407a5e2ac06da108355a851863b7a>@@AAV<lambda_2fe9b910cf3cbf4a0ab98a02ba45b3ec>@@$$QAV<lambda_ae55bdf541ad94d75914d381c370e64d>@@@Z 10025cf0     libucrt:close.obj
 0002:00007d10       __sehtable$__IsNonwritableInCurrentImage 10025d10     LIBCMT:pesect.obj
 0002:00007d40       .edata                     10025d40     OPOSBumpBar.exp
 0002:00007d68       rgpv                       10025d68     OPOSBumpBar.exp
 0002:00007d78       rgszName                   10025d78     OPOSBumpBar.exp
 0002:00007d88       rgwOrd                     10025d88     OPOSBumpBar.exp
 0002:00007d90       szName                     10025d90     OPOSBumpBar.exp
 0002:00007da0       $N00001                    10025da0     OPOSBumpBar.exp
 0002:00007db0       $N00002                    10025db0     OPOSBumpBar.exp
 0002:00007dc2       $N00003                    10025dc2     OPOSBumpBar.exp
 0002:00007dd4       $N00004                    10025dd4     OPOSBumpBar.exp
 0002:000083e6       .idata$6                   100263e6     kernel32:KERNEL32.dll
 0002:000085fa       .idata$6                   100265fa     user32:USER32.dll
 0002:0000872e       .idata$6                   1002672e     gdi32:GDI32.dll
 0002:000087d4       .idata$6                   100267d4     advapi32:ADVAPI32.dll
 0002:000088f0       .idata$6                   100268f0     ole32:ole32.dll
 0002:000088fa       .idata$6                   100268fa     oleaut32:OLEAUT32.dll
 0003:00000110       ?ObjectMap@@3PAU_ATL_OBJMAP_ENTRY30@ATL@@A 10027110     BumpBar.obj
 0003:000001b0       ?s_SOMethodNames@@3PAPADA  100271b0     BumpBarImpl.obj
 0003:00000204       ?s_RequiredMethodsPerRelease@@3PAHA 10027204     BumpBarImpl.obj
 0003:00000240       ?__vcrt_flsindex@@3KA      10027240     libvcruntime:per_thread_data.obj
 0003:00000260       _errno_no_memory           10027260     libucrt:errno.obj
 0003:00000264       _doserrno_no_memory        10027264     libucrt:errno.obj
 0003:00000270       ___acrt_flsindex           10027270     libucrt:per_thread_data.obj
 0003:000003e4       ___rgctypeflag             100273e4     libucrt:mbctype.obj
 0003:000003e8       ___rgcode_page_info        100273e8     libucrt:mbctype.obj
 0003:00000b08       ?is_initialized_as_dll@@3_NA 10027b08     LIBCMT:utility.obj
 0003:00000b09       ?module_local_atexit_table_initialized@@3_NA 10027b09     LIBCMT:utility.obj
 0003:00000b0c       ?module_local_atexit_table@@3U_onexit_table_t@@A 10027b0c     LIBCMT:utility.obj
 0003:00000b18       ?module_local_at_quick_exit_table@@3U_onexit_table_t@@A 10027b18     LIBCMT:utility.obj
 0003:00000b24       ?_Tss_mutex@@3U_RTL_CRITICAL_SECTION@@A 10027b24     LIBCMT:thread_safe_statics.obj
 0003:00000b3c       ?_Tss_cv@@3U_RTL_CONDITION_VARIABLE@@A 10027b3c     LIBCMT:thread_safe_statics.obj
 0003:00000b40       ?_Tss_event@@3PAXA         10027b40     LIBCMT:thread_safe_statics.obj
 0003:00000b44       ?encoded_sleep_condition_variable_cs@@3P6GHPAU_RTL_CONDITION_VARIABLE@@PAU_RTL_CRITICAL_SECTION@@K@ZA 10027b44     LIBCMT:thread_safe_statics.obj
 0003:00000b48       ?encoded_wake_all_condition_variable@@3P6GXPAU_RTL_CONDITION_VARIABLE@@@ZA 10027b48     LIBCMT:thread_safe_statics.obj
 0003:00000b50       _GS_ExceptionRecord        10027b50     LIBCMT:gs_report.obj
 0003:00000ba0       _GS_ContextRecord          10027ba0     LIBCMT:gs_report.obj
 0003:00000e70       ?__proc_attached@@3HA      10027e70     LIBCMT:dll_dllmain.obj
 0003:00000ecc       ?AllocateData@@3P6GPAUAtlThunkData_t@@XZA 10027ecc     atls:atlthunk.obj
 0003:00000ed0       ?InitData@@3P6GXPAUAtlThunkData_t@@PAXI@ZA 10027ed0     atls:atlthunk.obj
 0003:00000ed4       ?DataToCode@@3P6GP6GJPAUHWND__@@IIJ@ZPAUAtlThunkData_t@@@ZA 10027ed4     atls:atlthunk.obj
 0003:00000ed8       ?FreeData@@3P6GXPAUAtlThunkData_t@@@ZA 10027ed8     atls:atlthunk.obj
 0003:00000edc       ?Initialized@@3_NA         10027edc     atls:atlthunk.obj
 0003:00000ee8       ?__vcrt_startup_thread_ptd@@3U__vcrt_ptd@@A 10027ee8     libvcruntime:per_thread_data.obj
 0003:00000f10       ___vcrt_lock_table         10027f10     libvcruntime:locks.obj
 0003:00000f28       ___vcrt_locks_initialized  10027f28     libvcruntime:locks.obj
 0003:00000f2c       ?module_handles@@3PAPAUHINSTANCE__@@A 10027f2c     libvcruntime:winapi_downlevel.obj
 0003:00000f38       ?encoded_function_pointers@@3PAPAXA 10027f38     libvcruntime:winapi_downlevel.obj
 0003:00000f74       ?heap@@3V_HeapManager@@A   10027f74     libvcruntime:undname.obj
 0003:00000f8c       ___acrt_invalid_parameter_handler 10027f8c     libucrt:invalid_parameter.obj
 0003:00000f90       _c_termination_complete    10027f90     libucrt:exit.obj
 0003:00000f94       _thread_local_exit_callback_func 10027f94     libucrt:exit.obj
 0003:00000f98       ?c_exit_complete@?5??common_exit@@YAXHW4_crt_exit_cleanup_mode@@W4_crt_exit_return_mode@@@Z@4_NA 10027f98     libucrt:exit.obj
 0003:00000fa0       ?program_name@?5???$common_configure_argv@D@@YAHW4_crt_argv_mode@@@Z@4PADA 10027fa0     libucrt:argv_parsing.obj
 0003:000010d0       ___acrt_new_handler        100280d0     libucrt:new_handler.obj
 0003:000010d8       _module_handles            100280d8     libucrt:winapi_thunks.obj
 0003:00001128       _encoded_function_pointers 10028128     libucrt:winapi_thunks.obj
 0003:000011a8       ?state_cache@?1??__acrt_is_packaged_app@@9@4JA 100281a8     libucrt:winapi_thunks.obj
 0003:000011b4       _enable_percent_n          100281b4     libucrt:printf_count_output.obj
 0003:000013d0       ___acrt_lock_table         100283d0     libucrt:locks.obj
 0003:00001508       ___acrt_locks_initialized  10028508     libucrt:locks.obj
 0003:00001524       _fSystemSet                10028524     libucrt:mbctype.obj
 0003:00001528       ?initialized@?1??__acrt_initialize_multibyte@@9@4_NA 10028528     libucrt:mbctype.obj
 0003:00001548       _ctrlc_action              10028548     libucrt:signal.obj
 0003:0000154c       _ctrlbreak_action          1002854c     libucrt:signal.obj
 0003:00001550       _abort_action              10028550     libucrt:signal.obj
 0003:00001554       _term_action               10028554     libucrt:signal.obj
 0003:00001558       _user_matherr              10028558     libucrt:matherr.obj
 0003:0000155c       ___acrt_global_new_mode    1002855c     libucrt:new_mode.obj
 0003:00001568       ___acrt_app_type           10028568     libucrt:report_runtime_error.obj
 0003:00001570       __pmatherr_set             10028570     libucrt:libm_error.obj
 0004:00000220       $R000000                   10029220     BumpBar.res
 0004:00000b80       $R000960                   10029b80     BumpBar.res
 0004:00000c68       $R000A48                   10029c68     BumpBar.res
 0004:00000ed0       $R000CB0                   10029ed0     BumpBar.res
 0004:000013e0       $R0011C0                   1002a3e0     BumpBar.res
 0004:000042e0       $R0040C0                   1002d2e0     BumpBar.res
 0004:00004310       $R0040F0                   1002d310     BumpBar.res
