 OPOSCashDrawer

 Timestamp is 5defa884 (Tue Dec 10 23:15:32 2019)

 Preferred load address is 10000000

 Start         Length     Name                   Class
 0001:00000000 00000080H .text$di                CODE
 0001:00000080 0001d4d3H .text$mn                CODE
 0001:0001d553 00000036H .text$x                 CODE
 0001:0001d589 00000042H .text$yd                CODE
 0002:00000000 000002fcH .idata$5                DATA
 0002:000002fc 00000004H .00cfg                  DATA
 0002:00000300 00000004H .CRT$XCA                DATA
 0002:00000304 00000004H .CRT$XCL                DATA
 0002:00000308 00000010H .CRT$XCU                DATA
 0002:00000318 00000004H .CRT$XCZ                DATA
 0002:0000031c 00000004H .CRT$XIA                DATA
 0002:00000320 00000010H .CRT$XIC                DATA
 0002:00000330 00000004H .CRT$XIZ                DATA
 0002:00000334 00000004H .CRT$XLA                DATA
 0002:00000338 00000004H .CRT$XLZ                DATA
 0002:0000033c 00000004H .CRT$XPA                DATA
 0002:00000340 00000008H .CRT$XPX                DATA
 0002:00000348 00000004H .CRT$XPXA               DATA
 0002:0000034c 00000004H .CRT$XPZ                DATA
 0002:00000350 00000004H .CRT$XTA                DATA
 0002:00000354 0000000cH .CRT$XTZ                DATA
 0002:00000358 00000000H .gfids$y                DATA
 0002:00000360 00006e2cH .rdata                  DATA
 0002:0000718c 00000018H .rdata$T                DATA
 0002:000071a4 0000017cH .rdata$r                DATA
 0002:00007320 0000001cH .rdata$sxdata           DATA
 0002:0000733c 000003e0H .rdata$zzzdbg           DATA
 0002:0000771c 00000004H .rtc$IAA                DATA
 0002:00007720 00000004H .rtc$IZZ                DATA
 0002:00007724 00000004H .rtc$TAA                DATA
 0002:00007728 00000004H .rtc$TZZ                DATA
 0002:0000772c 00000004H .tls                    DATA
 0002:00007730 00000004H .tls$                   DATA
 0002:00007734 00000004H .tls$ZZZ                DATA
 0002:00007738 0000060cH .xdata$x                DATA
 0002:00007d44 00000004H ATL$__a                 DATA
 0002:00007d48 00000008H ATL$__z                 DATA
 0002:00007d50 000000acH .edata                  DATA
 0002:00007dfc 00000078H .idata$2                DATA
 0002:00007e74 00000014H .idata$3                DATA
 0002:00007e88 000002fcH .idata$4                DATA
 0002:00008184 00000bc8H .idata$6                DATA
 0003:00000000 00000ab0H .data                   DATA
 0003:00000ab0 00000098H .data$r                 DATA
 0003:00000b48 00000b80H .bss                    DATA
 0004:00000000 00000220H .rsrc$01                DATA
 0004:00000220 000038d0H .rsrc$02                DATA

  Address         Publics by Value              Rva+Base       Lib:Object

 0000:00000000       ___guard_iat_count         00000000     <absolute>
 0000:00000000       ___guard_longjmp_table     00000000     <absolute>
 0000:00000000       ___hybrid_code_map_count   00000000     <absolute>
 0000:00000000       ___dynamic_value_reloc_table 00000000     <absolute>
 0000:00000000       ___guard_longjmp_count     00000000     <absolute>
 0000:00000000       __except_list              00000000     <absolute>
 0000:00000000       ___guard_fids_table        00000000     <absolute>
 0000:00000000       ___guard_fids_count        00000000     <absolute>
 0000:00000000       ___hybrid_auxiliary_iat    00000000     <absolute>
 0000:00000000       ___guard_iat_table         00000000     <absolute>
 0000:00000000       ___volatile_metadata       00000000     <absolute>
 0000:00000000       ___enclave_config          00000000     <absolute>
 0000:00000000       ___AbsoluteZero            00000000     <absolute>
 0000:00000000       ___hybrid_code_map         00000000     <absolute>
 0000:00000007       ___safe_se_handler_count   00000007     <absolute>
 0000:0000002c       __tls_array                0000002c     <absolute>
 0000:00000100       ___guard_flags             00000100     <absolute>
 0000:00000000       ___ImageBase               10000000     <linker-defined>
 0001:00000080       ?DupWide@_CW@@AAEXXZ       10001080 f   CWString.obj
 0001:0000009c       ?cw_dup@@YGXPBDAAHAAPA_W1@Z 1000109c f   CWString.obj
 0001:00000124       ?cw_memcpy@@YGHPA_WPBDH@Z  10001124 f   CWString.obj
 0001:00000150       ?cw_strcpy@@YAHPA_WPBD@Z   10001150 f   CWString.obj
 0001:00000163       ?cw_strlen@@YAHPBD@Z       10001163 f   CWString.obj
 0001:0000017c       ??0CAtlComModule@ATL@@QAE@XZ 1000117c f i OposVariant.obj
 0001:000001c1       ??0CAtlWinModule@ATL@@QAE@XZ 100011c1 f i OposVariant.obj
 0001:000001f8       ??0OposDispParms@@QAE@PAVOposVariant@@H@Z 100011f8 f   OposVariant.obj
 0001:00000269       ??1OposDispParms@@QAE@XZ   10001269 f   OposVariant.obj
 0001:00000277       ??A?$CSimpleArray@GV?$CSimpleArrayEqualHelper@G@ATL@@@ATL@@QAEAAGH@Z 10001277 f i OposVariant.obj
 0001:0000029c       ??_Estringdispid@CComTypeInfoHolder@ATL@@QAEPAXI@Z 1000129c f i OposVariant.obj
 0001:00000308       ?AtlWinModuleInit@ATL@@YGJPAU_ATL_WIN_MODULE70@1@@Z 10001308 f i OposVariant.obj
 0001:0000032e       ?AtlWinModuleTerm@ATL@@YGJPAU_ATL_WIN_MODULE70@1@PAUHINSTANCE__@@@Z 1000132e f i OposVariant.obj
 0001:00000391       ?ChangeBSTR@OposVariant@@QAEXPAPA_WAAJ@Z 10001391 f   OposVariant.obj
 0001:000003d2       ?ChangeLONG@OposVariant@@QAEXPAJAAJ@Z 100013d2 f   OposVariant.obj
 0001:00000413       ?GetLONG@OposVariant@@QAEJXZ 10001413 f   OposVariant.obj
 0001:0000042e       ?Init@CComCriticalSection@ATL@@QAEJXZ 1000142e f i OposVariant.obj
 0001:00000456       ?RemoveAll@?$CSimpleArray@GV?$CSimpleArrayEqualHelper@G@ATL@@@ATL@@QAEXXZ 10001456 f i OposVariant.obj
 0001:00000456       ?RemoveAll@?$CSimpleArray@PAUHINSTANCE__@@V?$CSimpleArrayEqualHelper@PAUHINSTANCE__@@@ATL@@@ATL@@QAEXXZ 10001456 f i atls:atlbase.obj
 0001:00000473       ?SetBSTR@OposVariant@@QAEXPA_WAAJ@Z 10001473 f   OposVariant.obj
 0001:000004a7       ?SetBSTR_Copy@OposVariant@@QAEXPA_WAAJ@Z 100014a7 f   OposVariant.obj
 0001:000004f7       ?SetBSTR_InOutPtr@OposVariant@@QAE_NPAPA_WAAJ@Z 100014f7 f   OposVariant.obj
 0001:0000052e       ?SetDispatch_Ptr@OposVariant@@QAEXPAUIDispatch@@AAJ@Z 1000152e f   OposVariant.obj
 0001:00000569       ?SetLONG@OposVariant@@QAEXJ@Z 10001569 f   OposVariant.obj
 0001:0000058b       ?SetLONG_Ptr@OposVariant@@QAEXPAJAAJ@Z 1000158b f   OposVariant.obj
 0001:000005be       ?SetString@OposVariant@@QAEXPB_WAAJ@Z 100015be f   OposVariant.obj
 0001:00000604       ?SetVARIANT_BOOL@OposVariant@@QAEXF@Z 10001604 f   OposVariant.obj
 0001:0000062e       ?Term@CAtlComModule@ATL@@QAEXXZ 1000162e f i OposVariant.obj
 0001:00000678       ?_AtlRaiseException@ATL@@YAXKK@Z 10001678 f i OposVariant.obj
 0001:0000068d       ?CreateInstance@CComClassFactory@ATL@@UAGJPAUIUnknown@@ABU_GUID@@PAPAX@Z 1000168d f i CashDrawer.obj
 0001:000006cb       ?LockServer@CComClassFactory@ATL@@UAGJH@Z 100016cb f i CashDrawer.obj
 0001:000006ea       ??_GCComClassFactory@ATL@@UAEPAXI@Z 100016ea f i CashDrawer.obj
 0001:000006ea       ??_ECComClassFactory@ATL@@UAEPAXI@Z 100016ea f i CashDrawer.obj
 0001:00000715       ?GetWindowProc@?$CWindowImplBaseT@VCWindow@ATL@@V?$CWinTraits@$0FGAAAAAA@$0A@@2@@ATL@@UAEP6GJPAUHWND__@@IIJ@ZXZ 10001715 f i CashDrawer.obj
 0001:0000071b       ?StartWindowProc@?$CWindowImplBaseT@VCWindow@ATL@@V?$CWinTraits@$0FGAAAAAA@$0A@@2@@ATL@@SGJPAUHWND__@@IIJ@Z 1000171b f i CashDrawer.obj
 0001:0000076f       ?ObjectMain@CComObjectRootBase@ATL@@SGX_N@Z 1000176f f i CashDrawer.obj
 0001:0000076f       ?OnFinalMessage@?$CWindowImplBaseT@VCWindow@ATL@@V?$CWinTraits@$0FGAAAAAA@$0A@@2@@ATL@@UAEXPAUHWND__@@@Z 1000176f f i CashDrawer.obj
 0001:00000772       ?GetTypeInfoCount@?$IDispatchImpl@UIOPOSCashDrawer@@$1?IID_IOPOSCashDrawer@@3U_GUID@@B$1?LIBID_OposCashDrawer_CCO@@3U3@B$00$0A@VCComTypeInfoHolder@ATL@@@ATL@@UAGJPAI@Z 10001772 f i CashDrawer.obj
 0001:0000078f       ?GetTypeInfo@?$IDispatchImpl@UIOPOSCashDrawer@@$1?IID_IOPOSCashDrawer@@3U_GUID@@B$1?LIBID_OposCashDrawer_CCO@@3U3@B$00$0A@VCComTypeInfoHolder@ATL@@@ATL@@UAGJIKPAPAUITypeInfo@@@Z 1000178f f i CashDrawer.obj
 0001:000007b3       ?GetIDsOfNames@?$IDispatchImpl@UIOPOSCashDrawer@@$1?IID_IOPOSCashDrawer@@3U_GUID@@B$1?LIBID_OposCashDrawer_CCO@@3U3@B$00$0A@VCComTypeInfoHolder@ATL@@@ATL@@UAGJABU_GUID@@PAPA_WIKPAJ@Z 100017b3 f i CashDrawer.obj
 0001:000007d3       ?Invoke@?$IDispatchImpl@UIOPOSCashDrawer@@$1?IID_IOPOSCashDrawer@@3U_GUID@@B$1?LIBID_OposCashDrawer_CCO@@3U3@B$00$0A@VCComTypeInfoHolder@ATL@@@ATL@@UAGJJABU_GUID@@KGPAUtagDISPPARAMS@@PAUtagVARIANT@@PAUtagEXCEPINFO@@PAI@Z 100017d3 f i CashDrawer.obj
 0001:000007e1       ?CreateControlWindow@?$CComControl@VCOPOSCashDrawer@@V?$CWindowImpl@VCOPOSCashDrawer@@VCWindow@ATL@@V?$CWinTraits@$0FGAAAAAA@$0A@@3@@ATL@@@ATL@@UAEPAUHWND__@@PAU3@AAUtagRECT@@@Z 100017e1 f i CashDrawer.obj
 0001:00000810       ?ControlQueryInterface@?$CComControl@VCOPOSCashDrawer@@V?$CWindowImpl@VCOPOSCashDrawer@@VCWindow@ATL@@V?$CWinTraits@$0FGAAAAAA@$0A@@3@@ATL@@@ATL@@UAEJABU_GUID@@PAPAX@Z 10001810 f i CashDrawer.obj
 0001:0000082b       ?GetUserClassID@?$IOleObjectImpl@VCOPOSCashDrawer@@@ATL@@UAGJPAU_GUID@@@Z 1000182b f i CashDrawer.obj
 0001:0000082b       ?GetClassID@?$IPersistStorageImpl@VCOPOSCashDrawer@@@ATL@@UAGJPAU_GUID@@@Z 1000182b f i CashDrawer.obj
 0001:0000082b       ?GetClassID@?$IPersistStreamInitImpl@VCOPOSCashDrawer@@@ATL@@UAGJPAU_GUID@@@Z 1000182b f i CashDrawer.obj
 0001:0000084f       ?IsDirty@?$IPersistStreamInitImpl@VCOPOSCashDrawer@@@ATL@@UAGJXZ 1000184f f i CashDrawer.obj
 0001:0000086e       ?Load@?$IPersistStreamInitImpl@VCOPOSCashDrawer@@@ATL@@UAGJPAUIStream@@@Z 1000186e f i CashDrawer.obj
 0001:0000088d       ?Save@?$IPersistStreamInitImpl@VCOPOSCashDrawer@@@ATL@@UAGJPAUIStream@@H@Z 1000188d f i CashDrawer.obj
 0001:000008af       ?GetSizeMax@?$IPersistStreamInitImpl@VCOPOSCashDrawer@@@ATL@@UAGJPAT_ULARGE_INTEGER@@@Z 100018af f i CashDrawer.obj
 0001:00000a8e       ?InitNew@?$IPersistStreamInitImpl@VCOPOSCashDrawer@@@ATL@@UAGJXZ 10001a8e f i CashDrawer.obj
 0001:00000aab       ?ContextSensitiveHelp@?$IOleInPlaceObjectWindowlessImpl@VCOPOSCashDrawer@@@ATL@@UAGJH@Z 10001aab f i CashDrawer.obj
 0001:00000aab       ?GetControlInfo@?$IOleControlImpl@VCOPOSCashDrawer@@@ATL@@UAGJPAUtagCONTROLINFO@@@Z 10001aab f i CashDrawer.obj
 0001:00000aab       ?OnMnemonic@?$IOleControlImpl@VCOPOSCashDrawer@@@ATL@@UAGJPAUtagMSG@@@Z 10001aab f i CashDrawer.obj
 0001:00000aab       ?SODataDummy@COPOSCashDrawer@@MAGJJ@Z 10001aab f i CashDrawer.obj
 0001:00000aab       ?SOOutputCompleteDummy@COPOSCashDrawer@@MAGJJ@Z 10001aab f i CashDrawer.obj
 0001:00000aab       ?QueryGetData@?$IDataObjectImpl@VCOPOSCashDrawer@@@ATL@@UAGJPAUtagFORMATETC@@@Z 10001aab f i CashDrawer.obj
 0001:00000aab       ?GetDropTarget@?$IOleInPlaceObjectWindowlessImpl@VCOPOSCashDrawer@@@ATL@@UAGJPAPAUIDropTarget@@@Z 10001aab f i CashDrawer.obj
 0001:00000aab       ?SetColorScheme@?$IOleObjectImpl@VCOPOSCashDrawer@@@ATL@@UAGJPAUtagLOGPALETTE@@@Z 10001aab f i CashDrawer.obj
 0001:00000aab       ?Unfreeze@?$IViewObjectExImpl@VCOPOSCashDrawer@@@ATL@@UAGJK@Z 10001aab f i CashDrawer.obj
 0001:00000aab       ?ContextSensitiveHelp@?$IOleInPlaceActiveObjectImpl@VCOPOSCashDrawer@@@ATL@@UAGJH@Z 10001aab f i CashDrawer.obj
 0001:00000ab3       ?OnAmbientPropertyChange@?$IOleControlImpl@VCOPOSCashDrawer@@@ATL@@UAGJJ@Z 10001ab3 f i CashDrawer.obj
 0001:00000ab3       ?EnableModeless@?$IOleInPlaceActiveObjectImpl@VCOPOSCashDrawer@@@ATL@@UAGJH@Z 10001ab3 f i CashDrawer.obj
 0001:00000ab3       ?OnFrameWindowActivate@?$IOleInPlaceActiveObjectImpl@VCOPOSCashDrawer@@@ATL@@UAGJH@Z 10001ab3 f i CashDrawer.obj
 0001:00000ab3       ?SaveCompleted@?$IPersistStorageImpl@VCOPOSCashDrawer@@@ATL@@UAGJPAUIStorage@@@Z 10001ab3 f i CashDrawer.obj
 0001:00000ab8       ?SetClientSite@?$IOleObjectImpl@VCOPOSCashDrawer@@@ATL@@UAGJPAUIOleClientSite@@@Z 10001ab8 f i CashDrawer.obj
 0001:00000ad5       ?GetClientSite@?$IOleObjectImpl@VCOPOSCashDrawer@@@ATL@@UAGJPAPAUIOleClientSite@@@Z 10001ad5 f i CashDrawer.obj
 0001:00000af2       ?SetHostNames@?$IOleObjectImpl@VCOPOSCashDrawer@@@ATL@@UAGJPB_W0@Z 10001af2 f i CashDrawer.obj
 0001:00000af7       ?Close@?$IOleObjectImpl@VCOPOSCashDrawer@@@ATL@@UAGJK@Z 10001af7 f i CashDrawer.obj
 0001:00000b14       ?QueryInterface@CRegObject@ATL@@UAGJABU_GUID@@PAPAX@Z 10001b14 f i CashDrawer.obj
 0001:00000b14       ?GetCanonicalFormatEtc@?$IDataObjectImpl@VCOPOSCashDrawer@@@ATL@@UAGJPAUtagFORMATETC@@0@Z 10001b14 f i CashDrawer.obj
 0001:00000b14       ?SetMoniker@?$IOleObjectImpl@VCOPOSCashDrawer@@@ATL@@UAGJKPAUIMoniker@@@Z 10001b14 f i CashDrawer.obj
 0001:00000b14       ?GetClipboardData@?$IOleObjectImpl@VCOPOSCashDrawer@@@ATL@@UAGJKPAPAUIDataObject@@@Z 10001b14 f i CashDrawer.obj
 0001:00000b14       ?EnumFormatEtc@?$IDataObjectImpl@VCOPOSCashDrawer@@@ATL@@UAGJKPAPAUIEnumFORMATETC@@@Z 10001b14 f i CashDrawer.obj
 0001:00000b14       ?GetRect@?$IViewObjectExImpl@VCOPOSCashDrawer@@@ATL@@UAGJKPAU_RECTL@@@Z 10001b14 f i CashDrawer.obj
 0001:00000b14       ?GetDataHere@?$IDataObjectImpl@VCOPOSCashDrawer@@@ATL@@UAGJPAUtagFORMATETC@@PAUtagSTGMEDIUM@@@Z 10001b14 f i CashDrawer.obj
 0001:00000b1c       ?InitFromData@?$IOleObjectImpl@VCOPOSCashDrawer@@@ATL@@UAGJPAUIDataObject@@HK@Z 10001b1c f i CashDrawer.obj
 0001:00000b1c       ?GetMoniker@?$IOleObjectImpl@VCOPOSCashDrawer@@@ATL@@UAGJKKPAPAUIMoniker@@@Z 10001b1c f i CashDrawer.obj
 0001:00000b1c       ?SetData@?$IDataObjectImpl@VCOPOSCashDrawer@@@ATL@@UAGJPAUtagFORMATETC@@PAUtagSTGMEDIUM@@H@Z 10001b1c f i CashDrawer.obj
 0001:00000b24       ?DoVerb@?$IOleObjectImpl@VCOPOSCashDrawer@@@ATL@@UAGJJPAUtagMSG@@PAUIOleClientSite@@JPAUHWND__@@PBUtagRECT@@@Z 10001b24 f i CashDrawer.obj
 0001:00000c18       ?EnumVerbs@?$IOleObjectImpl@VCOPOSCashDrawer@@@ATL@@UAGJPAPAUIEnumOLEVERB@@@Z 10001c18 f i CashDrawer.obj
 0001:00000c3a       ?IsUpToDate@?$IOleObjectImpl@VCOPOSCashDrawer@@@ATL@@UAGJXZ 10001c3a f i CashDrawer.obj
 0001:00000c3a       ?Release@CRegObject@ATL@@UAGKXZ 10001c3a f i CashDrawer.obj
 0001:00000c3a       ?Update@?$IOleObjectImpl@VCOPOSCashDrawer@@@ATL@@UAGJXZ 10001c3a f i CashDrawer.obj
 0001:00000c3a       ?HandsOffStorage@?$IPersistStorageImpl@VCOPOSCashDrawer@@@ATL@@UAGJXZ 10001c3a f i CashDrawer.obj
 0001:00000c3f       ?GetUserType@?$IOleObjectImpl@VCOPOSCashDrawer@@@ATL@@UAGJKPAPA_W@Z 10001c3f f i CashDrawer.obj
 0001:00000c57       ?SetExtent@?$IOleObjectImpl@VCOPOSCashDrawer@@@ATL@@UAGJKPAUtagSIZE@@@Z 10001c57 f i CashDrawer.obj
 0001:00000c77       ?GetExtent@?$IOleObjectImpl@VCOPOSCashDrawer@@@ATL@@UAGJKPAUtagSIZE@@@Z 10001c77 f i CashDrawer.obj
 0001:00000cb5       ?Advise@?$IOleObjectImpl@VCOPOSCashDrawer@@@ATL@@UAGJPAUIAdviseSink@@PAK@Z 10001cb5 f i CashDrawer.obj
 0001:00000cd5       ?Unadvise@?$IOleObjectImpl@VCOPOSCashDrawer@@@ATL@@UAGJK@Z 10001cd5 f i CashDrawer.obj
 0001:00000d04       ?EnumAdvise@?$IOleObjectImpl@VCOPOSCashDrawer@@@ATL@@UAGJPAPAUIEnumSTATDATA@@@Z 10001d04 f i CashDrawer.obj
 0001:00000d44       ?GetMiscStatus@?$IOleObjectImpl@VCOPOSCashDrawer@@@ATL@@UAGJKPAK@Z 10001d44 f i CashDrawer.obj
 0001:00000d5c       ?GetWindow@?$IOleInPlaceActiveObjectImpl@VCOPOSCashDrawer@@@ATL@@UAGJPAPAUHWND__@@@Z 10001d5c f i CashDrawer.obj
 0001:00000da9       ?TranslateAcceleratorW@?$IOleInPlaceActiveObjectImpl@VCOPOSCashDrawer@@@ATL@@UAGJPAUtagMSG@@@Z 10001da9 f i CashDrawer.obj
 0001:00000e57       ?OnDocWindowActivate@?$IOleInPlaceActiveObjectImpl@VCOPOSCashDrawer@@@ATL@@UAGJH@Z 10001e57 f i CashDrawer.obj
 0001:00000e79       ?ResizeBorder@?$IOleInPlaceActiveObjectImpl@VCOPOSCashDrawer@@@ATL@@UAGJPBUtagRECT@@PAUIOleInPlaceUIWindow@@H@Z 10001e79 f i CashDrawer.obj
 0001:00000e7e       ?Draw@?$IViewObjectExImpl@VCOPOSCashDrawer@@@ATL@@UAGJKJPAXPAUtagDVTARGETDEVICE@@PAUHDC__@@2PBU_RECTL@@3P6GHK@ZK@Z 10001e7e f i CashDrawer.obj
 0001:00000eb0       ?GetColorSet@?$IViewObjectExImpl@VCOPOSCashDrawer@@@ATL@@UAGJKJPAXPAUtagDVTARGETDEVICE@@PAUHDC__@@PAPAUtagLOGPALETTE@@@Z 10001eb0 f i CashDrawer.obj
 0001:00000eb8       ?SOErrorDummy@COPOSCashDrawer@@MAGJJJJPAJ@Z 10001eb8 f i CashDrawer.obj
 0001:00000eb8       ?Freeze@?$IViewObjectExImpl@VCOPOSCashDrawer@@@ATL@@UAGJKJPAXPAK@Z 10001eb8 f i CashDrawer.obj
 0001:00000ec0       ?SetAdvise@?$IViewObjectExImpl@VCOPOSCashDrawer@@@ATL@@UAGJKKPAUIAdviseSink@@@Z 10001ec0 f i CashDrawer.obj
 0001:00000edf       ?GetAdvise@?$IViewObjectExImpl@VCOPOSCashDrawer@@@ATL@@UAGJPAK0PAPAUIAdviseSink@@@Z 10001edf f i CashDrawer.obj
 0001:00000f14       ?GetExtent@?$IViewObjectExImpl@VCOPOSCashDrawer@@@ATL@@UAGJKJPAUtagDVTARGETDEVICE@@PAUtagSIZE@@@Z 10001f14 f i CashDrawer.obj
 0001:00000f45       ?GetViewStatus@?$IViewObjectExImpl@VCOPOSCashDrawer@@@ATL@@UAGJPAK@Z 10001f45 f i CashDrawer.obj
 0001:00000f62       ?QueryHitPoint@?$IViewObjectExImpl@VCOPOSCashDrawer@@@ATL@@UAGJKPBUtagRECT@@UtagPOINT@@JPAK@Z 10001f62 f i CashDrawer.obj
 0001:00000fa3       ?QueryHitRect@?$IViewObjectExImpl@VCOPOSCashDrawer@@@ATL@@UAGJKPBUtagRECT@@0JPAK@Z 10001fa3 f i CashDrawer.obj
 0001:00000ffe       ?GetNaturalExtent@?$IViewObjectExImpl@VCOPOSCashDrawer@@@ATL@@UAGJKJPAUtagDVTARGETDEVICE@@PAUHDC__@@PAUtagExtentInfo@@PAUtagSIZE@@@Z 10001ffe f i CashDrawer.obj
 0001:00001049       ?GetWindow@?$IOleInPlaceObjectWindowlessImpl@VCOPOSCashDrawer@@@ATL@@UAGJPAPAUHWND__@@@Z 10002049 f i CashDrawer.obj
 0001:00001096       ?InPlaceDeactivate@?$IOleInPlaceObjectWindowlessImpl@VCOPOSCashDrawer@@@ATL@@UAGJXZ 10002096 f i CashDrawer.obj
 0001:000010b0       ?UIDeactivate@?$IOleInPlaceObjectWindowlessImpl@VCOPOSCashDrawer@@@ATL@@UAGJXZ 100020b0 f i CashDrawer.obj
 0001:000010ca       ?SetObjectRects@?$IOleInPlaceObjectWindowlessImpl@VCOPOSCashDrawer@@@ATL@@UAGJPBUtagRECT@@0@Z 100020ca f i CashDrawer.obj
 0001:000010ea       ?ReactivateAndUndo@?$IOleInPlaceObjectWindowlessImpl@VCOPOSCashDrawer@@@ATL@@UAGJXZ 100020ea f i CashDrawer.obj
 0001:000010f2       ?OnWindowMessage@?$IOleInPlaceObjectWindowlessImpl@VCOPOSCashDrawer@@@ATL@@UAGJIIJPAJ@Z 100020f2 f i CashDrawer.obj
 0001:00001162       ?EnumConnectionPoints@?$IConnectionPointContainerImpl@VCOPOSCashDrawer@@@ATL@@UAGJPAPAUIEnumConnectionPoints@@@Z 10002162 f i CashDrawer.obj
 0001:000012dc       ?FindConnectionPoint@?$IConnectionPointContainerImpl@VCOPOSCashDrawer@@@ATL@@UAGJABU_GUID@@PAPAUIConnectionPoint@@@Z 100022dc f i CashDrawer.obj
 0001:0000137f       ?IsDirty@?$IPersistStorageImpl@VCOPOSCashDrawer@@@ATL@@UAGJXZ 1000237f f i CashDrawer.obj
 0001:000013b3       ?InitNew@?$IPersistStorageImpl@VCOPOSCashDrawer@@@ATL@@UAGJPAUIStorage@@@Z 100023b3 f i CashDrawer.obj
 0001:000013e7       ?Load@?$IPersistStorageImpl@VCOPOSCashDrawer@@@ATL@@UAGJPAUIStorage@@@Z 100023e7 f i CashDrawer.obj
 0001:00001453       ?Save@?$IPersistStorageImpl@VCOPOSCashDrawer@@@ATL@@UAGJPAUIStorage@@H@Z 10002453 f i CashDrawer.obj
 0001:000014c6       ?GetPages@?$ISpecifyPropertyPagesImpl@VCOPOSCashDrawer@@@ATL@@UAGJPAUtagCAUUID@@@Z 100024c6 f i CashDrawer.obj
 0001:000014dd       ?QuickActivate@?$IQuickActivateImpl@VCOPOSCashDrawer@@@ATL@@UAGJPAUtagQACONTAINER@@PAUtagQACONTROL@@@Z 100024dd f i CashDrawer.obj
 0001:00001500       ?SetContentExtent@?$IQuickActivateImpl@VCOPOSCashDrawer@@@ATL@@UAGJPAUtagSIZE@@@Z 10002500 f i CashDrawer.obj
 0001:0000152c       ?GetContentExtent@?$IQuickActivateImpl@VCOPOSCashDrawer@@@ATL@@UAGJPAUtagSIZE@@@Z 1000252c f i CashDrawer.obj
 0001:00001566       ?GetData@?$IDataObjectImpl@VCOPOSCashDrawer@@@ATL@@UAGJPAUtagFORMATETC@@PAUtagSTGMEDIUM@@@Z 10002566 f i CashDrawer.obj
 0001:00001589       ?DAdvise@?$IDataObjectImpl@VCOPOSCashDrawer@@@ATL@@UAGJPAUtagFORMATETC@@KPAUIAdviseSink@@PAK@Z 10002589 f i CashDrawer.obj
 0001:000015ca       ?DUnadvise@?$IDataObjectImpl@VCOPOSCashDrawer@@@ATL@@UAGJK@Z 100025ca f i CashDrawer.obj
 0001:000015f8       ?EnumDAdvise@?$IDataObjectImpl@VCOPOSCashDrawer@@@ATL@@UAGJPAPAUIEnumSTATDATA@@@Z 100025f8 f i CashDrawer.obj
 0001:00001637       ?GetClassInfoW@?$IProvideClassInfo2Impl@$1?CLSID_OPOSCashDrawer@@3U_GUID@@B$1?DIID__IOPOSCashDrawerEvents@@3U2@B$1?LIBID_OposCashDrawer_CCO@@3U2@B$00$0A@VCComTypeInfoHolder@ATL@@@ATL@@UAGJPAPAUITypeInfo@@@Z 10002637 f i CashDrawer.obj
 0001:0000164d       ?GetGUID@?$IProvideClassInfo2Impl@$1?CLSID_OPOSCashDrawer@@3U_GUID@@B$1?DIID__IOPOSCashDrawerEvents@@3U2@B$1?LIBID_OposCashDrawer_CCO@@3U2@B$00$0A@VCComTypeInfoHolder@ATL@@@ATL@@UAGJKPAU_GUID@@@Z 1000264d f i CashDrawer.obj
 0001:0000168b       __get_startup_argv_mode    1000268b f i LIBCMT:argv_mode.obj
 0001:0000168b       ?FAccessAllowed@?$IObjectSafetyImpl@VCOPOSCashDrawer@@$02@ATL@@MAEHXZ 1000268b f i CashDrawer.obj
 0001:0000168f       ?GetInterfaceSafetyOptions@?$IObjectSafetyImpl@VCOPOSCashDrawer@@$02@ATL@@UAGJABU_GUID@@PAK1@Z 1000268f f i CashDrawer.obj
 0001:00001703       ?SetInterfaceSafetyOptions@?$IObjectSafetyImpl@VCOPOSCashDrawer@@$02@ATL@@UAGJABU_GUID@@KK@Z 10002703 f i CashDrawer.obj
 0001:0000177d       ?_LocCPQueryInterface@?$IConnectionPointImpl@VCOPOSCashDrawer@@$1?DIID__IOPOSCashDrawerEvents@@3U_GUID@@BVCComDynamicUnkArray@ATL@@@ATL@@UAGJABU_GUID@@PAPAX@Z 1000277d f i CashDrawer.obj
 0001:0000177d       ?_LocCPQueryInterface@?$IConnectionPointImpl@VCOPOSCashDrawer@@$1?IID_IPropertyNotifySink@@3U_GUID@@BVCComDynamicUnkArray@ATL@@@ATL@@UAGJABU_GUID@@PAPAX@Z 1000277d f i CashDrawer.obj
 0001:000017ca       ?GetConnectionInterface@?$IConnectionPointImpl@VCOPOSCashDrawer@@$1?IID_IPropertyNotifySink@@3U_GUID@@BVCComDynamicUnkArray@ATL@@@ATL@@UAGJPAU_GUID@@@Z 100027ca f i CashDrawer.obj
 0001:000017ee       ?GetConnectionPointContainer@?$IConnectionPointImpl@VCOPOSCashDrawer@@$1?IID_IPropertyNotifySink@@3U_GUID@@BVCComDynamicUnkArray@ATL@@@ATL@@UAGJPAPAUIConnectionPointContainer@@@Z 100027ee f i CashDrawer.obj
 0001:00001811       ?Advise@?$IConnectionPointImpl@VCOPOSCashDrawer@@$1?IID_IPropertyNotifySink@@3U_GUID@@BVCComDynamicUnkArray@ATL@@@ATL@@UAGJPAUIUnknown@@PAK@Z 10002811 f i CashDrawer.obj
 0001:00001811       ?Advise@?$IConnectionPointImpl@VCOPOSCashDrawer@@$1?DIID__IOPOSCashDrawerEvents@@3U_GUID@@BVCComDynamicUnkArray@ATL@@@ATL@@UAGJPAUIUnknown@@PAK@Z 10002811 f i CashDrawer.obj
 0001:000018b2       ?Unadvise@?$IConnectionPointImpl@VCOPOSCashDrawer@@$1?DIID__IOPOSCashDrawerEvents@@3U_GUID@@BVCComDynamicUnkArray@ATL@@@ATL@@UAGJK@Z 100028b2 f i CashDrawer.obj
 0001:000018b2       ?Unadvise@?$IConnectionPointImpl@VCOPOSCashDrawer@@$1?IID_IPropertyNotifySink@@3U_GUID@@BVCComDynamicUnkArray@ATL@@@ATL@@UAGJK@Z 100028b2 f i CashDrawer.obj
 0001:000018f2       ?EnumConnections@?$IConnectionPointImpl@VCOPOSCashDrawer@@$1?DIID__IOPOSCashDrawerEvents@@3U_GUID@@BVCComDynamicUnkArray@ATL@@@ATL@@UAGJPAPAUIEnumConnections@@@Z 100028f2 f i CashDrawer.obj
 0001:000018f2       ?EnumConnections@?$IConnectionPointImpl@VCOPOSCashDrawer@@$1?IID_IPropertyNotifySink@@3U_GUID@@BVCComDynamicUnkArray@ATL@@@ATL@@UAGJPAPAUIEnumConnections@@@Z 100028f2 f i CashDrawer.obj
 0001:000019f8       ?GetObjectDescription@?$CComCoClass@VCOPOSCashDrawer@@$1?CLSID_OPOSCashDrawer@@3U_GUID@@B@ATL@@SGPB_WXZ 100029f8 f i CashDrawer.obj
 0001:000019f8       ?GetCategoryMap@CComObjectRootBase@ATL@@SAPBU_ATL_CATMAP_ENTRY@2@XZ 100029f8 f i CashDrawer.obj
 0001:000019fb       ?GetConnectionInterface@?$IConnectionPointImpl@VCOPOSCashDrawer@@$1?DIID__IOPOSCashDrawerEvents@@3U_GUID@@BVCComDynamicUnkArray@ATL@@@ATL@@UAGJPAU_GUID@@@Z 100029fb f i CashDrawer.obj
 0001:00001a1f       ?GetConnectionPointContainer@?$IConnectionPointImpl@VCOPOSCashDrawer@@$1?DIID__IOPOSCashDrawerEvents@@3U_GUID@@BVCComDynamicUnkArray@ATL@@@ATL@@UAGJPAPAUIConnectionPointContainer@@@Z 10002a1f f i CashDrawer.obj
 0001:00001a42       ?UpdateRegistry@COPOSCashDrawer@@SGJH@Z 10002a42 f i CashDrawer.obj
 0001:00001a5a       ?ProcessWindowMessage@COPOSCashDrawer@@UAEHPAUHWND__@@IIJAAJK@Z 10002a5a f i CashDrawer.obj
 0001:00001aa3       ?SODirectIO@COPOSCashDrawer@@MAGJJPAJPAPA_W@Z 10002aa3 f i CashDrawer.obj
 0001:00001aec       ?SOStatusUpdate@COPOSCashDrawer@@MAGJJ@Z 10002aec f i CashDrawer.obj
 0001:00001b25       ?Lock@CAtlModule@ATL@@UAEJXZ 10002b25 f i CashDrawer.obj
 0001:00001b2f       ?Unlock@CAtlModule@ATL@@UAEJXZ 10002b2f f i CashDrawer.obj
 0001:00001b39       ?GetLockCount@CAtlModule@ATL@@UAEJXZ 10002b39 f i CashDrawer.obj
 0001:00001b3d       ?GetGITPtr@CAtlModule@ATL@@UAEJPAPAUIGlobalInterfaceTable@@@Z 10002b3d f i CashDrawer.obj
 0001:00001b89       ?AddCommonRGSReplacements@?$CAtlModuleT@VCComModule@ATL@@@ATL@@UAEJPAUIRegistrarBase@@@Z 10002b89 f i CashDrawer.obj
 0001:00001ba3       ?CreateInstance@?$CComCreator@V?$CComObjectCached@VCComClassFactory@ATL@@@ATL@@@ATL@@SGJPAXABU_GUID@@PAPAX@Z 10002ba3 f i CashDrawer.obj
 0001:00001c4f       ?CreateInstance@?$CComCreator2@V?$CComCreator@V?$CComObject@VCOPOSCashDrawer@@@ATL@@@ATL@@V?$CComCreator@V?$CComAggObject@VCOPOSCashDrawer@@@ATL@@@2@@ATL@@SGJPAXABU_GUID@@PAPAX@Z 10002c4f f i CashDrawer.obj
 0001:00001c6f       ?UpdateRegistryFromResourceD@CComModule@ATL@@UAGJPB_WHPAU_ATL_REGMAP_ENTRY@2@@Z 10002c6f f i CashDrawer.obj
 0001:00001c6f       ?UpdateRegistryFromResourceD@CComModule@ATL@@UAGJIHPAU_ATL_REGMAP_ENTRY@2@@Z 10002c6f f i CashDrawer.obj
 0001:00001c77       ?UpdateRegistryFromResource@CComModule@ATL@@UAGJPB_WHPAU_ATL_REGMAP_ENTRY@2@@Z 10002c77 f i CashDrawer.obj
 0001:00001c80       ?UpdateRegistryFromResource@CComModule@ATL@@UAGJIHPAU_ATL_REGMAP_ENTRY@2@@Z 10002c80 f i CashDrawer.obj
 0001:00001c89       ?AddRef@?$CComObjectCached@VCComClassFactory@ATL@@@ATL@@UAGKXZ 10002c89 f i CashDrawer.obj
 0001:00001cb0       ?Release@?$CComObjectCached@VCComClassFactory@ATL@@@ATL@@UAGKXZ 10002cb0 f i CashDrawer.obj
 0001:00001ce6       ?QueryInterface@?$CComObjectCached@VCComClassFactory@ATL@@@ATL@@UAGJABU_GUID@@PAPAX@Z 10002ce6 f i CashDrawer.obj
 0001:00001d00       ??_G?$CComObjectCached@VCComClassFactory@ATL@@@ATL@@UAEPAXI@Z 10002d00 f i CashDrawer.obj
 0001:00001d00       ??_E?$CComObjectCached@VCComClassFactory@ATL@@@ATL@@UAEPAXI@Z 10002d00 f i CashDrawer.obj
 0001:00001d22       ??_ECComModule@ATL@@UAEPAXI@Z 10002d22 f i CashDrawer.obj
 0001:00001d22       ??_GCComModule@ATL@@UAEPAXI@Z 10002d22 f i CashDrawer.obj
 0001:00001d4a       ?Next@?$CComEnumImpl@UIEnumConnectionPoints@@$1?_GUID_b196b285_bab4_101a_b69c_00aa00341d07@@3U__s_GUID@@BPAUIConnectionPoint@@V?$_CopyInterface@UIConnectionPoint@@@ATL@@@ATL@@UAGJKPAPAUIConnectionPoint@@PAK@Z 10002d4a f i CashDrawer.obj
 0001:00001e21       ?Skip@?$CComEnumImpl@UIEnumConnectionPoints@@$1?_GUID_b196b285_bab4_101a_b69c_00aa00341d07@@3U__s_GUID@@BPAUIConnectionPoint@@V?$_CopyInterface@UIConnectionPoint@@@ATL@@@ATL@@UAGJK@Z 10002e21 f i CashDrawer.obj
 0001:00001e4e       ?Reset@?$CComEnumImpl@UIEnumConnectionPoints@@$1?_GUID_b196b285_bab4_101a_b69c_00aa00341d07@@3U__s_GUID@@BPAUIConnectionPoint@@V?$_CopyInterface@UIConnectionPoint@@@ATL@@@ATL@@UAGJXZ 10002e4e f i CashDrawer.obj
 0001:00001e4e       ?Reset@?$CComEnumImpl@UIEnumConnections@@$1?_GUID_b196b287_bab4_101a_b69c_00aa00341d07@@3U__s_GUID@@BUtagCONNECTDATA@@V?$_Copy@UtagCONNECTDATA@@@ATL@@@ATL@@UAGJXZ 10002e4e f i CashDrawer.obj
 0001:00001e60       ?Clone@?$CComEnumImpl@UIEnumConnectionPoints@@$1?_GUID_b196b285_bab4_101a_b69c_00aa00341d07@@3U__s_GUID@@BPAUIConnectionPoint@@V?$_CopyInterface@UIConnectionPoint@@@ATL@@@ATL@@UAGJPAPAUIEnumConnectionPoints@@@Z 10002e60 f i CashDrawer.obj
 0001:00001f41       ?AddRef@?$CComObject@V?$CComEnum@UIEnumConnectionPoints@@$1?_GUID_b196b285_bab4_101a_b69c_00aa00341d07@@3U__s_GUID@@BPAUIConnectionPoint@@V?$_CopyInterface@UIConnectionPoint@@@ATL@@VCComSingleThreadModel@6@@ATL@@@ATL@@UAGKXZ 10002f41 f i CashDrawer.obj
 0001:00001f41       ?AddRef@?$CComObject@V?$CComEnum@UIEnumConnections@@$1?_GUID_b196b287_bab4_101a_b69c_00aa00341d07@@3U__s_GUID@@BUtagCONNECTDATA@@V?$_Copy@UtagCONNECTDATA@@@ATL@@VCComSingleThreadModel@6@@ATL@@@ATL@@UAGKXZ 10002f41 f i CashDrawer.obj
 0001:00001f52       ?Release@?$CComObject@V?$CComEnum@UIEnumConnectionPoints@@$1?_GUID_b196b285_bab4_101a_b69c_00aa00341d07@@3U__s_GUID@@BPAUIConnectionPoint@@V?$_CopyInterface@UIConnectionPoint@@@ATL@@VCComSingleThreadModel@6@@ATL@@@ATL@@UAGKXZ 10002f52 f i CashDrawer.obj
 0001:00001f52       ?Release@?$CComObject@V?$CComEnum@UIEnumConnections@@$1?_GUID_b196b287_bab4_101a_b69c_00aa00341d07@@3U__s_GUID@@BUtagCONNECTDATA@@V?$_Copy@UtagCONNECTDATA@@@ATL@@VCComSingleThreadModel@6@@ATL@@@ATL@@UAGKXZ 10002f52 f i CashDrawer.obj
 0001:00001f8e       ?QueryInterface@?$CComObject@V?$CComEnum@UIEnumConnectionPoints@@$1?_GUID_b196b285_bab4_101a_b69c_00aa00341d07@@3U__s_GUID@@BPAUIConnectionPoint@@V?$_CopyInterface@UIConnectionPoint@@@ATL@@VCComSingleThreadModel@6@@ATL@@@ATL@@UAGJABU_GUID@@PAPAX@Z 10002f8e f i CashDrawer.obj
 0001:00001fa8       ??_G?$CComObject@V?$CComEnum@UIEnumConnectionPoints@@$1?_GUID_b196b285_bab4_101a_b69c_00aa00341d07@@3U__s_GUID@@BPAUIConnectionPoint@@V?$_CopyInterface@UIConnectionPoint@@@ATL@@VCComSingleThreadModel@6@@ATL@@@ATL@@UAEPAXI@Z 10002fa8 f i CashDrawer.obj
 0001:00001fa8       ??_E?$CComObject@V?$CComEnum@UIEnumConnectionPoints@@$1?_GUID_b196b285_bab4_101a_b69c_00aa00341d07@@3U__s_GUID@@BPAUIConnectionPoint@@V?$_CopyInterface@UIConnectionPoint@@@ATL@@VCComSingleThreadModel@6@@ATL@@@ATL@@UAEPAXI@Z 10002fa8 f i CashDrawer.obj
 0001:00001fca       ?AddRef@CRegObject@ATL@@UAGKXZ 10002fca f i CashDrawer.obj
 0001:00001fd0       ?AddReplacement@CRegObject@ATL@@UAGJPB_W0@Z 10002fd0 f i CashDrawer.obj
 0001:00002009       ?ClearReplacements@CRegObject@ATL@@UAGJXZ 10003009 f i CashDrawer.obj
 0001:0000201b       ??_GCRegObject@ATL@@UAEPAXI@Z 1000301b f i CashDrawer.obj
 0001:0000201b       ??_ECRegObject@ATL@@UAEPAXI@Z 1000301b f i CashDrawer.obj
 0001:0000203d       ?AddRef@?$CComAggObject@VCOPOSCashDrawer@@@ATL@@UAGKXZ 1000303d f i CashDrawer.obj
 0001:0000204e       ?Release@?$CComAggObject@VCOPOSCashDrawer@@@ATL@@UAGKXZ 1000304e f i CashDrawer.obj
 0001:0000208a       ?QueryInterface@?$CComAggObject@VCOPOSCashDrawer@@@ATL@@UAGJABU_GUID@@PAPAX@Z 1000308a f i CashDrawer.obj
 0001:000020d9       ?AddRef@?$CComContainedObject@VCOPOSCashDrawer@@@ATL@@UAGKXZ 100030d9 f i CashDrawer.obj
 0001:000020ef       ?Release@?$CComContainedObject@VCOPOSCashDrawer@@@ATL@@UAGKXZ 100030ef f i CashDrawer.obj
 0001:00002105       ?QueryInterface@?$CComContainedObject@VCOPOSCashDrawer@@@ATL@@UAGJABU_GUID@@PAPAX@Z 10003105 f i CashDrawer.obj
 0001:00002120       ??_E?$CComAggObject@VCOPOSCashDrawer@@@ATL@@UAEPAXI@Z 10003120 f i CashDrawer.obj
 0001:00002120       ??_G?$CComAggObject@VCOPOSCashDrawer@@@ATL@@UAEPAXI@Z 10003120 f i CashDrawer.obj
 0001:00002145       ?AddRef@?$CComObject@VCOPOSCashDrawer@@@ATL@@UAGKXZ 10003145 f i CashDrawer.obj
 0001:0000215c       ?Release@?$CComObject@VCOPOSCashDrawer@@@ATL@@UAGKXZ 1000315c f i CashDrawer.obj
 0001:0000219e       ?QueryInterface@?$CComObject@VCOPOSCashDrawer@@@ATL@@UAGJABU_GUID@@PAPAX@Z 1000319e f i CashDrawer.obj
 0001:000021b8       ?OnDrawAdvanced@CComControlBase@ATL@@UAEJAAUATL_DRAWINFO@@@Z 100031b8 f i CashDrawer.obj
 0001:000022ab       ?Next@?$CComEnumImpl@UIEnumConnections@@$1?_GUID_b196b287_bab4_101a_b69c_00aa00341d07@@3U__s_GUID@@BUtagCONNECTDATA@@V?$_Copy@UtagCONNECTDATA@@@ATL@@@ATL@@UAGJKPAUtagCONNECTDATA@@PAK@Z 100032ab f i CashDrawer.obj
 0001:00002382       ?Skip@?$CComEnumImpl@UIEnumConnections@@$1?_GUID_b196b287_bab4_101a_b69c_00aa00341d07@@3U__s_GUID@@BUtagCONNECTDATA@@V?$_Copy@UtagCONNECTDATA@@@ATL@@@ATL@@UAGJK@Z 10003382 f i CashDrawer.obj
 0001:000023af       ?Clone@?$CComEnumImpl@UIEnumConnections@@$1?_GUID_b196b287_bab4_101a_b69c_00aa00341d07@@3U__s_GUID@@BUtagCONNECTDATA@@V?$_Copy@UtagCONNECTDATA@@@ATL@@@ATL@@UAGJPAPAUIEnumConnections@@@Z 100033af f i CashDrawer.obj
 0001:00002490       ?QueryInterface@?$CComObject@V?$CComEnum@UIEnumConnections@@$1?_GUID_b196b287_bab4_101a_b69c_00aa00341d07@@3U__s_GUID@@BUtagCONNECTDATA@@V?$_Copy@UtagCONNECTDATA@@@ATL@@VCComSingleThreadModel@6@@ATL@@@ATL@@UAGJABU_GUID@@PAPAX@Z 10003490 f i CashDrawer.obj
 0001:000024aa       ??_G?$CComObject@V?$CComEnum@UIEnumConnections@@$1?_GUID_b196b287_bab4_101a_b69c_00aa00341d07@@3U__s_GUID@@BUtagCONNECTDATA@@V?$_Copy@UtagCONNECTDATA@@@ATL@@VCComSingleThreadModel@6@@ATL@@@ATL@@UAEPAXI@Z 100034aa f i CashDrawer.obj
 0001:000024aa       ??_E?$CComObject@V?$CComEnum@UIEnumConnections@@$1?_GUID_b196b287_bab4_101a_b69c_00aa00341d07@@3U__s_GUID@@BUtagCONNECTDATA@@V?$_Copy@UtagCONNECTDATA@@@ATL@@VCComSingleThreadModel@6@@ATL@@@ATL@@UAEPAXI@Z 100034aa f i CashDrawer.obj
 0001:000024cc       ??_E?$CComObject@VCOPOSCashDrawer@@@ATL@@W3AEPAXI@Z 100034cc f i CashDrawer.obj
 0001:000024d4       ??_E?$CComObject@VCOPOSCashDrawer@@@ATL@@WEM@AEPAXI@Z 100034d4 f i CashDrawer.obj
 0001:000024dc       ?QueryInterface@?$CComObject@VCOPOSCashDrawer@@@ATL@@WHA@AGJABU_GUID@@PAPAX@Z 100034dc f i CashDrawer.obj
 0001:000024e6       ?AddRef@?$CComObject@VCOPOSCashDrawer@@@ATL@@WHA@AGKXZ 100034e6 f i CashDrawer.obj
 0001:000024f0       ?Release@?$CComObject@VCOPOSCashDrawer@@@ATL@@WHA@AGKXZ 100034f0 f i CashDrawer.obj
 0001:000024fa       ?QueryInterface@?$CComObject@VCOPOSCashDrawer@@@ATL@@WHE@AGJABU_GUID@@PAPAX@Z 100034fa f i CashDrawer.obj
 0001:00002504       ?AddRef@?$CComObject@VCOPOSCashDrawer@@@ATL@@WHE@AGKXZ 10003504 f i CashDrawer.obj
 0001:0000250e       ?Release@?$CComObject@VCOPOSCashDrawer@@@ATL@@WHE@AGKXZ 1000350e f i CashDrawer.obj
 0001:00002518       ?QueryInterface@?$CComObject@VCOPOSCashDrawer@@@ATL@@WHI@AGJABU_GUID@@PAPAX@Z 10003518 f i CashDrawer.obj
 0001:00002522       ?AddRef@?$CComObject@VCOPOSCashDrawer@@@ATL@@WHI@AGKXZ 10003522 f i CashDrawer.obj
 0001:0000252c       ?Release@?$CComObject@VCOPOSCashDrawer@@@ATL@@WHI@AGKXZ 1000352c f i CashDrawer.obj
 0001:00002536       ?QueryInterface@?$CComObject@VCOPOSCashDrawer@@@ATL@@WHM@AGJABU_GUID@@PAPAX@Z 10003536 f i CashDrawer.obj
 0001:00002540       ?AddRef@?$CComObject@VCOPOSCashDrawer@@@ATL@@WHM@AGKXZ 10003540 f i CashDrawer.obj
 0001:0000254a       ?Release@?$CComObject@VCOPOSCashDrawer@@@ATL@@WHM@AGKXZ 1000354a f i CashDrawer.obj
 0001:00002554       ?QueryInterface@?$CComObject@VCOPOSCashDrawer@@@ATL@@WIA@AGJABU_GUID@@PAPAX@Z 10003554 f i CashDrawer.obj
 0001:00002561       ?AddRef@?$CComObject@VCOPOSCashDrawer@@@ATL@@WIA@AGKXZ 10003561 f i CashDrawer.obj
 0001:0000256e       ?Release@?$CComObject@VCOPOSCashDrawer@@@ATL@@WIA@AGKXZ 1000356e f i CashDrawer.obj
 0001:0000257b       ?QueryInterface@?$CComObject@VCOPOSCashDrawer@@@ATL@@WIE@AGJABU_GUID@@PAPAX@Z 1000357b f i CashDrawer.obj
 0001:00002588       ?AddRef@?$CComObject@VCOPOSCashDrawer@@@ATL@@WIE@AGKXZ 10003588 f i CashDrawer.obj
 0001:00002595       ?Release@?$CComObject@VCOPOSCashDrawer@@@ATL@@WIE@AGKXZ 10003595 f i CashDrawer.obj
 0001:000025a2       ?QueryInterface@?$CComObject@VCOPOSCashDrawer@@@ATL@@WII@AGJABU_GUID@@PAPAX@Z 100035a2 f i CashDrawer.obj
 0001:000025af       ?AddRef@?$CComObject@VCOPOSCashDrawer@@@ATL@@WII@AGKXZ 100035af f i CashDrawer.obj
 0001:000025bc       ?Release@?$CComObject@VCOPOSCashDrawer@@@ATL@@WII@AGKXZ 100035bc f i CashDrawer.obj
 0001:000025c9       ?QueryInterface@?$CComObject@VCOPOSCashDrawer@@@ATL@@WIM@AGJABU_GUID@@PAPAX@Z 100035c9 f i CashDrawer.obj
 0001:000025d6       ?AddRef@?$CComObject@VCOPOSCashDrawer@@@ATL@@WIM@AGKXZ 100035d6 f i CashDrawer.obj
 0001:000025e3       ?Release@?$CComObject@VCOPOSCashDrawer@@@ATL@@WIM@AGKXZ 100035e3 f i CashDrawer.obj
 0001:000025f0       ?QueryInterface@?$CComObject@VCOPOSCashDrawer@@@ATL@@WJA@AGJABU_GUID@@PAPAX@Z 100035f0 f i CashDrawer.obj
 0001:000025fd       ?AddRef@?$CComObject@VCOPOSCashDrawer@@@ATL@@WJA@AGKXZ 100035fd f i CashDrawer.obj
 0001:0000260a       ?Release@?$CComObject@VCOPOSCashDrawer@@@ATL@@WJA@AGKXZ 1000360a f i CashDrawer.obj
 0001:00002617       ?QueryInterface@?$CComObject@VCOPOSCashDrawer@@@ATL@@WJE@AGJABU_GUID@@PAPAX@Z 10003617 f i CashDrawer.obj
 0001:00002624       ?AddRef@?$CComObject@VCOPOSCashDrawer@@@ATL@@WJE@AGKXZ 10003624 f i CashDrawer.obj
 0001:00002631       ?Release@?$CComObject@VCOPOSCashDrawer@@@ATL@@WJE@AGKXZ 10003631 f i CashDrawer.obj
 0001:0000263e       ?QueryInterface@?$CComObject@VCOPOSCashDrawer@@@ATL@@WJI@AGJABU_GUID@@PAPAX@Z 1000363e f i CashDrawer.obj
 0001:0000264b       ?AddRef@?$CComObject@VCOPOSCashDrawer@@@ATL@@WJI@AGKXZ 1000364b f i CashDrawer.obj
 0001:00002658       ?Release@?$CComObject@VCOPOSCashDrawer@@@ATL@@WJI@AGKXZ 10003658 f i CashDrawer.obj
 0001:00002665       ?QueryInterface@?$CComObject@VCOPOSCashDrawer@@@ATL@@WJM@AGJABU_GUID@@PAPAX@Z 10003665 f i CashDrawer.obj
 0001:00002672       ?AddRef@?$CComObject@VCOPOSCashDrawer@@@ATL@@WJM@AGKXZ 10003672 f i CashDrawer.obj
 0001:0000267f       ?Release@?$CComObject@VCOPOSCashDrawer@@@ATL@@WJM@AGKXZ 1000367f f i CashDrawer.obj
 0001:0000268c       ?QueryInterface@?$CComObject@VCOPOSCashDrawer@@@ATL@@WKA@AGJABU_GUID@@PAPAX@Z 1000368c f i CashDrawer.obj
 0001:00002699       ?AddRef@?$CComObject@VCOPOSCashDrawer@@@ATL@@WKA@AGKXZ 10003699 f i CashDrawer.obj
 0001:000026a6       ?Release@?$CComObject@VCOPOSCashDrawer@@@ATL@@WKA@AGKXZ 100036a6 f i CashDrawer.obj
 0001:000026b3       ?AddRef@?$CComObject@VCOPOSCashDrawer@@@ATL@@WKI@AGKXZ 100036b3 f i CashDrawer.obj
 0001:000026c0       ?Release@?$CComObject@VCOPOSCashDrawer@@@ATL@@WKI@AGKXZ 100036c0 f i CashDrawer.obj
 0001:000026cd       ?AddRef@?$CComObject@VCOPOSCashDrawer@@@ATL@@WLE@AGKXZ 100036cd f i CashDrawer.obj
 0001:000026da       ?Release@?$CComObject@VCOPOSCashDrawer@@@ATL@@WLE@AGKXZ 100036da f i CashDrawer.obj
 0001:000026e7       ??_E?$CComContainedObject@VCOPOSCashDrawer@@@ATL@@W3AEPAXI@Z 100036e7 f i CashDrawer.obj
 0001:000026ef       ??_E?$CComContainedObject@VCOPOSCashDrawer@@@ATL@@WEM@AEPAXI@Z 100036ef f i CashDrawer.obj
 0001:000026f7       ?QueryInterface@?$CComContainedObject@VCOPOSCashDrawer@@@ATL@@WHA@AGJABU_GUID@@PAPAX@Z 100036f7 f i CashDrawer.obj
 0001:00002701       ?AddRef@?$CComContainedObject@VCOPOSCashDrawer@@@ATL@@WHA@AGKXZ 10003701 f i CashDrawer.obj
 0001:0000270b       ?Release@?$CComContainedObject@VCOPOSCashDrawer@@@ATL@@WHA@AGKXZ 1000370b f i CashDrawer.obj
 0001:00002715       ?QueryInterface@?$CComContainedObject@VCOPOSCashDrawer@@@ATL@@WHE@AGJABU_GUID@@PAPAX@Z 10003715 f i CashDrawer.obj
 0001:0000271f       ?AddRef@?$CComContainedObject@VCOPOSCashDrawer@@@ATL@@WHE@AGKXZ 1000371f f i CashDrawer.obj
 0001:00002729       ?Release@?$CComContainedObject@VCOPOSCashDrawer@@@ATL@@WHE@AGKXZ 10003729 f i CashDrawer.obj
 0001:00002733       ?QueryInterface@?$CComContainedObject@VCOPOSCashDrawer@@@ATL@@WHI@AGJABU_GUID@@PAPAX@Z 10003733 f i CashDrawer.obj
 0001:0000273d       ?AddRef@?$CComContainedObject@VCOPOSCashDrawer@@@ATL@@WHI@AGKXZ 1000373d f i CashDrawer.obj
 0001:00002747       ?Release@?$CComContainedObject@VCOPOSCashDrawer@@@ATL@@WHI@AGKXZ 10003747 f i CashDrawer.obj
 0001:00002751       ?QueryInterface@?$CComContainedObject@VCOPOSCashDrawer@@@ATL@@WHM@AGJABU_GUID@@PAPAX@Z 10003751 f i CashDrawer.obj
 0001:0000275b       ?AddRef@?$CComContainedObject@VCOPOSCashDrawer@@@ATL@@WHM@AGKXZ 1000375b f i CashDrawer.obj
 0001:00002765       ?Release@?$CComContainedObject@VCOPOSCashDrawer@@@ATL@@WHM@AGKXZ 10003765 f i CashDrawer.obj
 0001:0000276f       ?QueryInterface@?$CComContainedObject@VCOPOSCashDrawer@@@ATL@@WIA@AGJABU_GUID@@PAPAX@Z 1000376f f i CashDrawer.obj
 0001:0000277c       ?AddRef@?$CComContainedObject@VCOPOSCashDrawer@@@ATL@@WIA@AGKXZ 1000377c f i CashDrawer.obj
 0001:00002789       ?Release@?$CComContainedObject@VCOPOSCashDrawer@@@ATL@@WIA@AGKXZ 10003789 f i CashDrawer.obj
 0001:00002796       ?QueryInterface@?$CComContainedObject@VCOPOSCashDrawer@@@ATL@@WIE@AGJABU_GUID@@PAPAX@Z 10003796 f i CashDrawer.obj
 0001:000027a3       ?AddRef@?$CComContainedObject@VCOPOSCashDrawer@@@ATL@@WIE@AGKXZ 100037a3 f i CashDrawer.obj
 0001:000027b0       ?Release@?$CComContainedObject@VCOPOSCashDrawer@@@ATL@@WIE@AGKXZ 100037b0 f i CashDrawer.obj
 0001:000027bd       ?QueryInterface@?$CComContainedObject@VCOPOSCashDrawer@@@ATL@@WII@AGJABU_GUID@@PAPAX@Z 100037bd f i CashDrawer.obj
 0001:000027ca       ?AddRef@?$CComContainedObject@VCOPOSCashDrawer@@@ATL@@WII@AGKXZ 100037ca f i CashDrawer.obj
 0001:000027d7       ?Release@?$CComContainedObject@VCOPOSCashDrawer@@@ATL@@WII@AGKXZ 100037d7 f i CashDrawer.obj
 0001:000027e4       ?QueryInterface@?$CComContainedObject@VCOPOSCashDrawer@@@ATL@@WIM@AGJABU_GUID@@PAPAX@Z 100037e4 f i CashDrawer.obj
 0001:000027f1       ?AddRef@?$CComContainedObject@VCOPOSCashDrawer@@@ATL@@WIM@AGKXZ 100037f1 f i CashDrawer.obj
 0001:000027fe       ?Release@?$CComContainedObject@VCOPOSCashDrawer@@@ATL@@WIM@AGKXZ 100037fe f i CashDrawer.obj
 0001:0000280b       ?QueryInterface@?$CComContainedObject@VCOPOSCashDrawer@@@ATL@@WJA@AGJABU_GUID@@PAPAX@Z 1000380b f i CashDrawer.obj
 0001:00002818       ?AddRef@?$CComContainedObject@VCOPOSCashDrawer@@@ATL@@WJA@AGKXZ 10003818 f i CashDrawer.obj
 0001:00002825       ?Release@?$CComContainedObject@VCOPOSCashDrawer@@@ATL@@WJA@AGKXZ 10003825 f i CashDrawer.obj
 0001:00002832       ?QueryInterface@?$CComContainedObject@VCOPOSCashDrawer@@@ATL@@WJE@AGJABU_GUID@@PAPAX@Z 10003832 f i CashDrawer.obj
 0001:0000283f       ?AddRef@?$CComContainedObject@VCOPOSCashDrawer@@@ATL@@WJE@AGKXZ 1000383f f i CashDrawer.obj
 0001:0000284c       ?Release@?$CComContainedObject@VCOPOSCashDrawer@@@ATL@@WJE@AGKXZ 1000384c f i CashDrawer.obj
 0001:00002859       ?QueryInterface@?$CComContainedObject@VCOPOSCashDrawer@@@ATL@@WJI@AGJABU_GUID@@PAPAX@Z 10003859 f i CashDrawer.obj
 0001:00002866       ?AddRef@?$CComContainedObject@VCOPOSCashDrawer@@@ATL@@WJI@AGKXZ 10003866 f i CashDrawer.obj
 0001:00002873       ?Release@?$CComContainedObject@VCOPOSCashDrawer@@@ATL@@WJI@AGKXZ 10003873 f i CashDrawer.obj
 0001:00002880       ?QueryInterface@?$CComContainedObject@VCOPOSCashDrawer@@@ATL@@WJM@AGJABU_GUID@@PAPAX@Z 10003880 f i CashDrawer.obj
 0001:0000288d       ?AddRef@?$CComContainedObject@VCOPOSCashDrawer@@@ATL@@WJM@AGKXZ 1000388d f i CashDrawer.obj
 0001:0000289a       ?Release@?$CComContainedObject@VCOPOSCashDrawer@@@ATL@@WJM@AGKXZ 1000389a f i CashDrawer.obj
 0001:000028a7       ?QueryInterface@?$CComContainedObject@VCOPOSCashDrawer@@@ATL@@WKA@AGJABU_GUID@@PAPAX@Z 100038a7 f i CashDrawer.obj
 0001:000028b4       ?AddRef@?$CComContainedObject@VCOPOSCashDrawer@@@ATL@@WKA@AGKXZ 100038b4 f i CashDrawer.obj
 0001:000028c1       ?Release@?$CComContainedObject@VCOPOSCashDrawer@@@ATL@@WKA@AGKXZ 100038c1 f i CashDrawer.obj
 0001:000028ce       ?AddRef@?$CComContainedObject@VCOPOSCashDrawer@@@ATL@@WKI@AGKXZ 100038ce f i CashDrawer.obj
 0001:000028db       ?Release@?$CComContainedObject@VCOPOSCashDrawer@@@ATL@@WKI@AGKXZ 100038db f i CashDrawer.obj
 0001:000028e8       ?AddRef@?$CComContainedObject@VCOPOSCashDrawer@@@ATL@@WLE@AGKXZ 100038e8 f i CashDrawer.obj
 0001:000028f5       ?Release@?$CComContainedObject@VCOPOSCashDrawer@@@ATL@@WLE@AGKXZ 100038f5 f i CashDrawer.obj
 0001:00002902       ??$?4UITypeInfo2@@@?$CComPtr@UITypeInfo@@@ATL@@QAEPAUITypeInfo@@ABV?$CComPtr@UITypeInfo2@@@1@@Z 10003902 f i CashDrawer.obj
 0001:0000292f       ??$AtlAdd@K@ATL@@YAJPAKKK@Z 1000392f f i CashDrawer.obj
 0001:00002952       ??$AtlAdd@_K@ATL@@YAJPA_K_K1@Z 10003952 f i CashDrawer.obj
 0001:0000298a       ??$AtlAddThrow@K@ATL@@YAKKK@Z 1000398a f i CashDrawer.obj
 0001:000029b0       ??$AtlModuleRegisterWndClassInfoT@VAtlModuleRegisterWndClassInfoParamW@ATL@@@ATL@@YAGPAU_ATL_BASE_MODULE70@0@PAU_ATL_WIN_MODULE70@0@PAU_ATL_WNDCLASSINFOW@0@PAP6GJPAUHWND__@@IIJ@ZVAtlModuleRegisterWndClassInfoParamW@0@@Z 100039b0 f i CashDrawer.obj
 0001:00002afe       ??$AtlMultiply@H@ATL@@YAJPAHHH@Z 10003afe f i CashDrawer.obj
 0001:00002b36       ??$AtlMultiply@K@ATL@@YAJPAKKK@Z 10003b36 f i CashDrawer.obj
 0001:00002b36       ??$AtlMultiply@I@ATL@@YAJPAIII@Z 10003b36 f i CashDrawer.obj
 0001:00002b58       ??$AtlMultiplyThrow@I@ATL@@YAIII@Z 10003b58 f i CashDrawer.obj
 0001:00002b7e       ??0?$CComAggObject@VCOPOSCashDrawer@@@ATL@@QAE@PAX@Z 10003b7e f i CashDrawer.obj
 0001:00002bab       ??0?$CComContainedObject@VCOPOSCashDrawer@@@ATL@@QAE@PAX@Z 10003bab f i CashDrawer.obj
 0001:00002c64       ??0?$CComObject@V?$CComEnum@UIEnumConnectionPoints@@$1?_GUID_b196b285_bab4_101a_b69c_00aa00341d07@@3U__s_GUID@@BPAUIConnectionPoint@@V?$_CopyInterface@UIConnectionPoint@@@ATL@@VCComSingleThreadModel@6@@ATL@@@ATL@@QAE@PAX@Z 10003c64 f i CashDrawer.obj
 0001:00002c92       ??0?$CComObject@V?$CComEnum@UIEnumConnections@@$1?_GUID_b196b287_bab4_101a_b69c_00aa00341d07@@3U__s_GUID@@BUtagCONNECTDATA@@V?$_Copy@UtagCONNECTDATA@@@ATL@@VCComSingleThreadModel@6@@ATL@@@ATL@@QAE@PAX@Z 10003c92 f i CashDrawer.obj
 0001:00002cc0       ??0?$CComObject@VCOPOSCashDrawer@@@ATL@@QAE@PAX@Z 10003cc0 f i CashDrawer.obj
 0001:00002d77       ??0?$CComQIPtr@UIOleControlSite@@$1?_GUID_b196b289_bab4_101a_b69c_00aa00341d07@@3U__s_GUID@@B@ATL@@QAE@PAUIUnknown@@@Z 10003d77 f i CashDrawer.obj
 0001:00002da0       ??0CAtlModule@ATL@@QAE@XZ  10003da0 f i CashDrawer.obj
 0001:00002de1       ??0CParseBuffer@CRegParser@ATL@@QAE@H@Z 10003de1 f i CashDrawer.obj
 0001:00002e17       ??0_ATL_MSG@ATL@@QAE@PAUHWND__@@IIJH@Z 10003e17 f i CashDrawer.obj
 0001:00002e4f       ??1?$CComAggObject@VCOPOSCashDrawer@@@ATL@@UAE@XZ 10003e4f f i CashDrawer.obj
 0001:00002e73       ??1?$CComEnumImpl@UIEnumConnectionPoints@@$1?_GUID_b196b285_bab4_101a_b69c_00aa00341d07@@3U__s_GUID@@BPAUIConnectionPoint@@V?$_CopyInterface@UIConnectionPoint@@@ATL@@@ATL@@UAE@XZ 10003e73 f i CashDrawer.obj
 0001:00002eb3       ??1?$CComEnumImpl@UIEnumConnections@@$1?_GUID_b196b287_bab4_101a_b69c_00aa00341d07@@3U__s_GUID@@BUtagCONNECTDATA@@V?$_Copy@UtagCONNECTDATA@@@ATL@@@ATL@@UAE@XZ 10003eb3 f i CashDrawer.obj
 0001:00002ef3       ??1?$CComObject@V?$CComEnum@UIEnumConnectionPoints@@$1?_GUID_b196b285_bab4_101a_b69c_00aa00341d07@@3U__s_GUID@@BPAUIConnectionPoint@@V?$_CopyInterface@UIConnectionPoint@@@ATL@@VCComSingleThreadModel@6@@ATL@@@ATL@@UAE@XZ 10003ef3 f i CashDrawer.obj
 0001:00002f16       ??1?$CComObject@V?$CComEnum@UIEnumConnections@@$1?_GUID_b196b287_bab4_101a_b69c_00aa00341d07@@3U__s_GUID@@BUtagCONNECTDATA@@V?$_Copy@UtagCONNECTDATA@@@ATL@@VCComSingleThreadModel@6@@ATL@@@ATL@@UAE@XZ 10003f16 f i CashDrawer.obj
 0001:00002f39       ??1?$CComObject@VCOPOSCashDrawer@@@ATL@@UAE@XZ 10003f39 f i CashDrawer.obj
 0001:00002ff7       ??1?$CComObjectCached@VCComClassFactory@ATL@@@ATL@@UAE@XZ 10003ff7 f i CashDrawer.obj
 0001:0000300d       ??1?$CComObjectRootEx@VCComMultiThreadModel@ATL@@@ATL@@QAE@XZ 1000400d f i CashDrawer.obj
 0001:00003022       ??1CRegObject@ATL@@UAE@XZ  10004022 f i CashDrawer.obj
 0001:00003042       ??4?$CComPtr@UIAdviseSink@@@ATL@@QAEPAUIAdviseSink@@PAU2@@Z 10004042 f i CashDrawer.obj
 0001:00003042       ??4?$CComPtr@UIOleClientSite@@@ATL@@QAEPAUIOleClientSite@@PAU2@@Z 10004042 f i CashDrawer.obj
 0001:00003042       ??4?$CComPtr@UIUnknown@@@ATL@@QAEPAUIUnknown@@PAU2@@Z 10004042 f i CashDrawer.obj
 0001:00003076       ??_G?$CComContainedObject@VCOPOSCashDrawer@@@ATL@@UAEPAXI@Z 10004076 f i CashDrawer.obj
 0001:00003076       ??_E?$CComContainedObject@VCOPOSCashDrawer@@@ATL@@UAEPAXI@Z 10004076 f i CashDrawer.obj
 0001:0000309b       ??_E?$CComObject@VCOPOSCashDrawer@@@ATL@@UAEPAXI@Z 1000409b f i CashDrawer.obj
 0001:0000309b       ??_G?$CComObject@VCOPOSCashDrawer@@@ATL@@UAEPAXI@Z 1000409b f i CashDrawer.obj
 0001:000030c0       ?Add@?$CSimpleArray@GV?$CSimpleArrayEqualHelper@G@ATL@@@ATL@@QAEHABG@Z 100040c0 f i CashDrawer.obj
 0001:00003144       ?Add@?$CSimpleMap@PA_WPA_WVCExpansionVectorEqualHelper@ATL@@@ATL@@QAEHABQA_W0@Z 10004144 f i CashDrawer.obj
 0001:00003199       ?Add@CComDynamicUnkArray@ATL@@QAEKPAUIUnknown@@@Z 10004199 f i CashDrawer.obj
 0001:0000324f       ?Add@CExpansionVector@ATL@@QAEHPB_W0@Z 1000424f f i CashDrawer.obj
 0001:00003358       ?AddString@CParseBuffer@CRegParser@ATL@@QAEHPB_W@Z 10004358 f i CashDrawer.obj
 0001:0000338d       ?AddTermFunc@CAtlModule@ATL@@QAEJP6GXK@ZK@Z 1000438d f i CashDrawer.obj
 0001:000033f0       ?AddValue@CRegParser@ATL@@IAEJAAVCRegKey@2@PB_WPA_W@Z 100043f0 f i CashDrawer.obj
 0001:0000370a       ?Allocate@?$CAtlSafeAllocBufferManager@VCCRTAllocator@ATL@@@_ATL_SAFE_ALLOCA_IMPL@ATL@@QAEPAXK@Z 1000470a f i CashDrawer.obj
 0001:00003737       ?Allocate@?$CTempBuffer@E$0BAA@VCCRTAllocator@ATL@@@ATL@@QAEPAEI@Z 10004737 f i CashDrawer.obj
 0001:00003766       ?Allocate@?$CTempBuffer@_W$0BAA@VCCRTAllocator@ATL@@@ATL@@QAEPA_WI@Z 10004766 f i CashDrawer.obj
 0001:00003795       ?Allocate@?$CTempBuffer@_W$0EAA@VCCRTAllocator@ATL@@@ATL@@QAEPA_WI@Z 10004795 f i CashDrawer.obj
 0001:000037c4       ?AllocateHeap@?$CTempBuffer@_W$0EAA@VCCRTAllocator@ATL@@@ATL@@AAEXI@Z 100047c4 f i CashDrawer.obj
 0001:000037c4       ?AllocateHeap@?$CTempBuffer@E$0BAA@VCCRTAllocator@ATL@@@ATL@@AAEXI@Z 100047c4 f i CashDrawer.obj
 0001:000037c4       ?AllocateHeap@?$CTempBuffer@_W$0BAA@VCCRTAllocator@ATL@@@ATL@@AAEXI@Z 100047c4 f i CashDrawer.obj
 0001:000037e9       ?Append@CParseBuffer@CRegParser@ATL@@QAEHPB_WH@Z 100047e9 f i CashDrawer.obj
 0001:00003877       ?AtlCoTaskMemCAlloc@ATL@@YAPAXKK@Z 10004877 f i CashDrawer.obj
 0001:000038a4       ?AtlCoTaskMemRecalloc@ATL@@YAPAXPAXKK@Z 100048a4 f i CashDrawer.obj
 0001:000038d4       ?AtlComModuleGetClassObject@ATL@@YGJPAU_ATL_COM_MODULE70@1@ABU_GUID@@1PAPAX@Z 100048d4 f i CashDrawer.obj
 0001:000039c7       ?AtlComModuleRegisterServer@ATL@@YGJPAU_ATL_COM_MODULE70@1@HPBU_GUID@@@Z 100049c7 f i CashDrawer.obj
 0001:00003a4f       ?AtlComModuleUnregisterServer@ATL@@YGJPAU_ATL_COM_MODULE70@1@HPBU_GUID@@@Z 10004a4f f i CashDrawer.obj
 0001:00003ad7       ?AtlComQIPtrAssign2@ATL@@YAXPAPAUIUnknown@@PAU2@ABU_GUID@@@Z 10004ad7 f i CashDrawer.obj
 0001:00003b06       ?AtlCreateTargetDC@ATL@@YGPAUHDC__@@PAU2@PAUtagDVTARGETDEVICE@@@Z 10004b06 f i CashDrawer.obj
 0001:00003b6f       ?AtlCrtErrorCheck@ATL@@YAHH@Z 10004b6f f i CashDrawer.obj
 0001:00003baa       ?AtlHiMetricToPixel@ATL@@YGXPBUtagSIZE@@PAU2@@Z 10004baa f i CashDrawer.obj
 0001:00003c1f       ?AtlHresultFromLastError@ATL@@YAJXZ 10004c1f f i CashDrawer.obj
 0001:00003c36       ?AtlHresultFromWin32@ATL@@YAJK@Z 10004c36 f i CashDrawer.obj
 0001:00003c4b       ?AtlInternalOleLoadFromStream@ATL@@YAJPAUIStream@@ABU_GUID@@PAPAXTClassesAllowedInStream@1@K@Z 10004c4b f i CashDrawer.obj
 0001:00003d71       ?AtlInternalQueryInterface@ATL@@YGJPAXPBU_ATL_INTMAP_ENTRY@1@ABU_GUID@@PAPAX@Z 10004d71 f i CashDrawer.obj
 0001:00003e14       ?AtlLoadTypeLib@ATL@@YGJPAUHINSTANCE__@@PB_WPAPA_WPAPAUITypeLib@@@Z 10004e14 f i CashDrawer.obj
 0001:00003ff2       ?AtlRegisterClassCategoriesHelper@ATL@@YGJABU_GUID@@PBU_ATL_CATMAP_ENTRY@1@H@Z 10004ff2 f i CashDrawer.obj
 0001:000042ee       ?AtlRegisterTypeLib@ATL@@YGJPAUHINSTANCE__@@PB_W@Z 100052ee f i CashDrawer.obj
 0001:00004476       ?AtlThrowImpl@ATL@@YGXJ@Z  10005476 f i CashDrawer.obj
 0001:00004494       ?AtlUnRegisterTypeLib@ATL@@YGJPAUHINSTANCE__@@PB_W@Z 10005494 f i CashDrawer.obj
 0001:0000453f       ?AtlWinModuleAddCreateWndData@ATL@@YGXPAU_ATL_WIN_MODULE70@1@PAU_AtlCreateWndData@1@PAX@Z 1000553f f i CashDrawer.obj
 0001:00004593       ?AtlWinModuleExtractCreateWndData@ATL@@YGPAXPAU_ATL_WIN_MODULE70@1@@Z 10005593 f i CashDrawer.obj
 0001:000045f6       ?AtlWinModuleRegisterClassExW@ATL@@YGGPAU_ATL_WIN_MODULE70@1@PBUtagWNDCLASSEXW@@@Z 100055f6 f i CashDrawer.obj
 0001:00004635       ?CanForceRemoveKey@CRegParser@ATL@@IAEHPB_W@Z 10005635 f i CashDrawer.obj
 0001:00004664       ?ChToByte@CRegParser@ATL@@KAE_W@Z 10005664 f i CashDrawer.obj
 0001:00004697       ?Cleanup@CComTypeInfoHolder@ATL@@SGXK@Z 10005697 f i CashDrawer.obj
 0001:000046ca       ?ClearReplacements@CExpansionVector@ATL@@QAEJXZ 100056ca f i CashDrawer.obj
 0001:00004707       ?Close@CRegKey@ATL@@QAEJXZ 10005707 f i CashDrawer.obj
 0001:00004721       ?CreateInstance@?$CComCreator@V?$CComAggObject@VCOPOSCashDrawer@@@ATL@@@ATL@@SGJPAXABU_GUID@@PAPAX@Z 10005721 f i CashDrawer.obj
 0001:00004797       ?CreateInstance@?$CComCreator@V?$CComObject@VCOPOSCashDrawer@@@ATL@@@ATL@@SGJPAXABU_GUID@@PAPAX@Z 10005797 f i CashDrawer.obj
 0001:00004818       ?CreateInstance@?$CComObject@V?$CComEnum@UIEnumConnectionPoints@@$1?_GUID_b196b285_bab4_101a_b69c_00aa00341d07@@3U__s_GUID@@BPAUIConnectionPoint@@V?$_CopyInterface@UIConnectionPoint@@@ATL@@VCComSingleThreadModel@6@@ATL@@@ATL@@SGJPAPAV12@@Z 10005818 f i CashDrawer.obj
 0001:0000485f       ?CreateInstance@?$CComObject@V?$CComEnum@UIEnumConnections@@$1?_GUID_b196b287_bab4_101a_b69c_00aa00341d07@@3U__s_GUID@@BUtagCONNECTDATA@@V?$_Copy@UtagCONNECTDATA@@@ATL@@VCComSingleThreadModel@6@@ATL@@@ATL@@SGJPAPAV12@@Z 1000585f f i CashDrawer.obj
 0001:000048a6       ?DefaultReflectionHandler@?$CWindowImplRoot@VCWindow@ATL@@@ATL@@SAHPAUHWND__@@IIJAAJ@Z 100058a6 f i CashDrawer.obj
 0001:00004919       ?DeleteSubKey@CRegKey@ATL@@QAEJPB_W@Z 10005919 f i CashDrawer.obj
 0001:00004992       ?DoEvent@COPOSCashDrawer@@IAEXIIJ@Z 10005992 f i CashDrawer.obj
 0001:00004a12       ?DoVerbHide@?$IOleObjectImpl@VCOPOSCashDrawer@@@ATL@@QAEJPBUtagRECT@@PAUHWND__@@@Z 10005a12 f i CashDrawer.obj
 0001:00004a48       ?DoVerbInPlaceActivate@?$IOleObjectImpl@VCOPOSCashDrawer@@@ATL@@QAEJPBUtagRECT@@PAUHWND__@@@Z 10005a48 f i CashDrawer.obj
 0001:00004a7b       ?DoVerbPrimary@?$IOleObjectImpl@VCOPOSCashDrawer@@@ATL@@QAEJPBUtagRECT@@PAUHWND__@@@Z 10005a7b f i CashDrawer.obj
 0001:00004b07       ?DoVerbProperties@CComControlBase@ATL@@QAEJPBUtagRECT@@PAUHWND__@@@Z 10005b07 f i CashDrawer.obj
 0001:00004c86       ?DoVerbUIActivate@?$IOleObjectImpl@VCOPOSCashDrawer@@@ATL@@QAEJPBUtagRECT@@PAUHWND__@@@Z 10005c86 f i CashDrawer.obj
 0001:00004cc3       ?DoesVerbActivate@CComControlBase@ATL@@QAEHJ@Z 10005cc3 f i CashDrawer.obj
 0001:00004ce4       ?DoesVerbUIActivate@CComControlBase@ATL@@QAEHJ@Z 10005ce4 f i CashDrawer.obj
 0001:00004d19       ?EndOfVar@CRegParser@ATL@@IAEHXZ 10005d19 f i CashDrawer.obj
 0001:00004d39       ?EscapeSingleQuote@CAtlModule@ATL@@SAXPA_WIPB_W@Z 10005d39 f i CashDrawer.obj
 0001:00004d88       ?FindKey@?$CSimpleMap@PA_WPA_WVCExpansionVectorEqualHelper@ATL@@@ATL@@QBEHABQA_W@Z 10005d88 f i CashDrawer.obj
 0001:00004dbf       ?FireTheEvent@?$CProxy_IOPOSEvents@VCOPOSCashDrawer@@@@IAEXPAVOposVariant@@IAAJPB_WJ@Z 10005dbf f i CashDrawer.obj
 0001:00004e51       ?FireViewChange@CComControlBase@ATL@@QAEJXZ 10005e51 f i CashDrawer.obj
 0001:00004e9a       ?Fire_DirectIOEvent@?$CProxy_IOPOSEvents@VCOPOSCashDrawer@@@@QAEXJPAJPAPA_W@Z 10005e9a f i CashDrawer.obj
 0001:00004f83       ?Fire_StatusUpdateEvent@?$CProxy_IOPOSEvents@VCOPOSCashDrawer@@@@QAEXJ@Z 10005f83 f i CashDrawer.obj
 0001:00005016       ?FreeHeap@?$CTempBuffer@_W$0BAA@VCCRTAllocator@ATL@@@ATL@@AAEXXZ 10006016 f i CashDrawer.obj
 0001:00005016       ?FreeHeap@?$CTempBuffer@E$0BAA@VCCRTAllocator@ATL@@@ATL@@AAEXXZ 10006016 f i CashDrawer.obj
 0001:00005016       ?FreeHeap@?$CTempBuffer@_W$0EAA@VCCRTAllocator@ATL@@@ATL@@AAEXXZ 10006016 f i CashDrawer.obj
 0001:0000501f       ?GetAmbientLocaleID@CComControlBase@ATL@@QAEJAAK@Z 1000601f f i CashDrawer.obj
 0001:0000507b       ?GetAmbientUserMode@CComControlBase@ATL@@QAEJAAH@Z 1000607b f i CashDrawer.obj
 0001:000050eb       ?GetAt@CComDynamicUnkArray@ATL@@QAEPAUIUnknown@@H@Z 100060eb f i CashDrawer.obj
 0001:00005107       ?GetClassObject@CComModule@ATL@@QAEJABU_GUID@@0PAPAX@Z 10006107 f i CashDrawer.obj
 0001:000051a9       ?GetConnMap@COPOSCashDrawer@@SAPBU_ATL_CONNMAP_ENTRY@ATL@@PAH@Z 100061a9 f i CashDrawer.obj
 0001:00005219       ?GetCookie@CComDynamicUnkArray@ATL@@QAGKPAPAUIUnknown@@@Z 10006219 f i CashDrawer.obj
 0001:00005251       ?GetIDsOfNames@CComTypeInfoHolder@ATL@@QAEJABU_GUID@@PAPA_WIKPAJ@Z 10006251 f i CashDrawer.obj
 0001:00005378       ?GetKeyAt@?$CSimpleMap@PA_WPA_WVCExpansionVectorEqualHelper@ATL@@@ATL@@QBEAAPA_WH@Z 10006378 f i CashDrawer.obj
 0001:0000539d       ?GetPagesHelper@?$ISpecifyPropertyPagesImpl@VCOPOSCashDrawer@@@ATL@@IAEJPAUtagCAUUID@@PBUATL_PROPMAP_ENTRY@2@@Z 1000639d f i CashDrawer.obj
 0001:000054c4       ?GetProperty@?$CComPtr@UIDispatch@@@ATL@@SAJPAUIDispatch@@JPAUtagVARIANT@@@Z 100064c4 f i CashDrawer.obj
 0001:00005513       ?GetSizeMax@CComVariant@ATL@@QBEJPAT_ULARGE_INTEGER@@@Z 10006513 f i CashDrawer.obj
 0001:000056d9       ?GetTI@CComTypeInfoHolder@ATL@@QAEJK@Z 100066d9 f i CashDrawer.obj
 0001:000058b8       ?GetTI@CComTypeInfoHolder@ATL@@QAEJKPAPAUITypeInfo@@@Z 100068b8 f i CashDrawer.obj
 0001:000058fa       ?GetUnknown@CComDynamicUnkArray@ATL@@QAGPAUIUnknown@@K@Z 100068fa f i CashDrawer.obj
 0001:0000591b       ?GetValueAt@?$CSimpleMap@PA_WPA_WVCExpansionVectorEqualHelper@ATL@@@ATL@@QBEAAPA_WH@Z 1000691b f i CashDrawer.obj
 0001:00005941       ?GetZoomInfo@CComControlBase@ATL@@QAEXAAUATL_DRAWINFO@@@Z 10006941 f i CashDrawer.obj
 0001:000059d4       ?HKeyFromString@CRegParser@ATL@@KAPAUHKEY__@@PA_W@Z 100069d4 f i CashDrawer.obj
 0001:00005a02       ?HasSubKeys@CRegParser@ATL@@IAEHPAUHKEY__@@@Z 10006a02 f i CashDrawer.obj
 0001:00005a37       ?IDataObject_GetData@CComControlBase@ATL@@QAEJPAUtagFORMATETC@@PAUtagSTGMEDIUM@@@Z 10006a37 f i CashDrawer.obj
 0001:00005bdd       ?IOleInPlaceObject_InPlaceDeactivate@CComControlBase@ATL@@QAEJXZ 10006bdd f i CashDrawer.obj
 0001:00005c64       ?IOleInPlaceObject_SetObjectRects@CComControlBase@ATL@@QAEJPBUtagRECT@@0@Z 10006c64 f i CashDrawer.obj
 0001:00005d31       ?IOleInPlaceObject_UIDeactivate@CComControlBase@ATL@@QAEJXZ 10006d31 f i CashDrawer.obj
 0001:00005df3       ?IOleObject_Advise@CComControlBase@ATL@@QAEJPAUIAdviseSink@@PAK@Z 10006df3 f i CashDrawer.obj
 0001:00005e1d       ?IOleObject_Close@CComControlBase@ATL@@QAEJK@Z 10006e1d f i CashDrawer.obj
 0001:00005f01       ?IOleObject_GetClientSite@CComControlBase@ATL@@QAEJPAPAUIOleClientSite@@@Z 10006f01 f i CashDrawer.obj
 0001:00005f2a       ?IOleObject_SetClientSite@CComControlBase@ATL@@QAEJPAUIOleClientSite@@@Z 10006f2a f i CashDrawer.obj
 0001:00005f69       ?IOleObject_SetExtent@CComControlBase@ATL@@QAEJKPAUtagSIZE@@@Z 10006f69 f i CashDrawer.obj
 0001:0000601d       ?IPSI_GetIPersistStreamInit@?$IPersistStorageImpl@VCOPOSCashDrawer@@@ATL@@AAEPAUIPersistStreamInit@@XZ 1000701d f i CashDrawer.obj
 0001:000060c5       ?IPersistStreamInit_Load@?$IPersistStreamInitImpl@VCOPOSCashDrawer@@@ATL@@QAEJPAUIStream@@PBUATL_PROPMAP_ENTRY@2@@Z 100070c5 f i CashDrawer.obj
 0001:00006341       ?IPersistStreamInit_Save@?$IPersistStreamInitImpl@VCOPOSCashDrawer@@@ATL@@QAEJPAUIStream@@HPBUATL_PROPMAP_ENTRY@2@@Z 10007341 f i CashDrawer.obj
 0001:0000652f       ?IQuickActivate_QuickActivate@CComControlBase@ATL@@QAEJPAUtagQACONTAINER@@PAUtagQACONTROL@@@Z 1000752f f i CashDrawer.obj
 0001:00006771       ?IViewObject_Draw@CComControlBase@ATL@@QAEJKJPAXPAUtagDVTARGETDEVICE@@PAUHDC__@@2PBU_RECTL@@3@Z 10007771 f i CashDrawer.obj
 0001:00006819       ?InPlaceActivate@CComControlBase@ATL@@QAEJJPBUtagRECT@@@Z 10007819 f i CashDrawer.obj
 0001:00006a8a       ?Init@?$CComEnumImpl@UIEnumConnectionPoints@@$1?_GUID_b196b285_bab4_101a_b69c_00aa00341d07@@3U__s_GUID@@BPAUIConnectionPoint@@V?$_CopyInterface@UIConnectionPoint@@@ATL@@@ATL@@QAEJPAPAUIConnectionPoint@@0PAUIUnknown@@W4CComEnumFlags@2@@Z 10007a8a f i CashDrawer.obj
 0001:00006b69       ?Init@?$CComEnumImpl@UIEnumConnections@@$1?_GUID_b196b287_bab4_101a_b69c_00aa00341d07@@3U__s_GUID@@BUtagCONNECTDATA@@V?$_Copy@UtagCONNECTDATA@@@ATL@@@ATL@@QAEJPAUtagCONNECTDATA@@0PAUIUnknown@@W4CComEnumFlags@2@@Z 10007b69 f i CashDrawer.obj
 0001:00006c48       ?Init@CComModule@ATL@@QAEJPAU_ATL_OBJMAP_ENTRY30@2@PAUHINSTANCE__@@PBU_GUID@@@Z 10007c48 f i CashDrawer.obj
 0001:00006ca7       ?Init@CDynamicStdCallThunk2@ATL@@QAEHKPAX@Z 10007ca7 f i CashDrawer.obj
 0001:00006cd2       ?InlineIsEqualUnknown@ATL@@YGHABU_GUID@@@Z 10007cd2 f i CashDrawer.obj
 0001:00006cfa       ?InternalSetAtIndex@?$CSimpleMap@PA_WPA_WVCExpansionVectorEqualHelper@ATL@@@ATL@@QAEXHABQA_W0@Z 10007cfa f i CashDrawer.obj
 0001:00006d24       ?Invoke@CComTypeInfoHolder@ATL@@QAEJPAUIDispatch@@JABU_GUID@@KGPAUtagDISPPARAMS@@PAUtagVARIANT@@PAUtagEXCEPINFO@@PAI@Z 10007d24 f i CashDrawer.obj
 0001:00006d67       ?IsEqualObject@?$CComPtrBase@UITypeInfo@@@ATL@@QAE_NPAUIUnknown@@@Z 10007d67 f i CashDrawer.obj
 0001:00006d67       ?IsEqualObject@?$CComPtrBase@UIOleClientSite@@@ATL@@QAE_NPAUIUnknown@@@Z 10007d67 f i CashDrawer.obj
 0001:00006dd4       ?IsSpace@CRegParser@ATL@@IAEH_W@Z 10007dd4 f i CashDrawer.obj
 0001:00006dfe       ?LoadNameCache@CComTypeInfoHolder@ATL@@QAEJPAUITypeInfo@@@Z 10007dfe f i CashDrawer.obj
 0001:00006f4a       ?Lookup@?$CSimpleMap@PA_WPA_WVCExpansionVectorEqualHelper@ATL@@@ATL@@QBEPA_WABQA_W@Z 10007f4a f i CashDrawer.obj
 0001:00006f70       ?NextToken@CRegParser@ATL@@IAEJPA_W@Z 10007f70 f i CashDrawer.obj
 0001:000070a8       ?OnKillFocus@CComControlBase@ATL@@QAEJIIJAAH@Z 100080a8 f i CashDrawer.obj
 0001:00007103       ?OnMouseActivate@CComControlBase@ATL@@QAEJIIJAAH@Z 10008103 f i CashDrawer.obj
 0001:00007171       ?OnPaint@CComControlBase@ATL@@QAEJIIJAAH@Z 10008171 f i CashDrawer.obj
 0001:00007223       ?OnSetFocus@CComControlBase@ATL@@QAEJIIJAAH@Z 10008223 f i CashDrawer.obj
 0001:000072ac       ?Open@CRegKey@ATL@@QAEJPAUHKEY__@@PB_WK@Z 100082ac f i CashDrawer.obj
 0001:00007301       ?PreProcessBuffer@CRegParser@ATL@@QAEJPA_WPAPA_W@Z 10008301 f i CashDrawer.obj
 0001:0000756b       ?ProcessWindowMessage@?$CComControl@VCOPOSCashDrawer@@V?$CWindowImpl@VCOPOSCashDrawer@@VCWindow@ATL@@V?$CWinTraits@$0FGAAAAAA@$0A@@3@@ATL@@@ATL@@UAEHPAUHWND__@@IIJAAJK@Z 1000856b f i CashDrawer.obj
 0001:0000760a       ?ReadFromStream@CComBSTR@ATL@@QAEJPAUIStream@@@Z 1000860a f i CashDrawer.obj
 0001:00007738       ?ReadFromStream@CComVariant@ATL@@QAEJPAUIStream@@GTClassesAllowedInStream@2@K@Z 10008738 f i CashDrawer.obj
 0001:000078be       ?RecurseDeleteKey@CRegKey@ATL@@QAEJPB_W@Z 100088be f i CashDrawer.obj
 0001:000079ac       ?RegCreateKeyExW@CAtlTransactionManager@ATL@@QAEJPAUHKEY__@@PB_WKPA_WKKQAU_SECURITY_ATTRIBUTES@@PAPAU3@PAK@Z 100089ac f i CashDrawer.obj
 0001:00007a0f       ?RegDeleteKeyW@CAtlTransactionManager@ATL@@QAEJPAUHKEY__@@PB_W@Z 10008a0f f i CashDrawer.obj
 0001:00007a61       ?RegOpenKeyExW@CAtlTransactionManager@ATL@@QAEJPAUHKEY__@@PB_WKKPAPAU3@@Z 10008a61 f i CashDrawer.obj
 0001:00007ab8       ?Register@_ATL_WNDCLASSINFOW@ATL@@QAEGPAP6GJPAUHWND__@@IIJ@Z@Z 10008ab8 f i CashDrawer.obj
 0001:00007ad8       ?RegisterBuffer@CRegParser@ATL@@QAEJPA_WH@Z 10008ad8 f i CashDrawer.obj
 0001:00007c11       ?RegisterFromResource@CRegObject@ATL@@IAEJPB_W00H@Z 10008c11 f i CashDrawer.obj
 0001:00007d47       ?RegisterServer@?$CAtlModuleT@VCComModule@ATL@@@ATL@@QAEJHPBU_GUID@@@Z 10008d47 f i CashDrawer.obj
 0001:00007d75       ?RegisterServer@CComModule@ATL@@QAEJHPBU_GUID@@@Z 10008d75 f i CashDrawer.obj
 0001:00007deb       ?RegisterSubkeys@CRegParser@ATL@@IAEJPA_WPAUHKEY__@@HH@Z 10008deb f i CashDrawer.obj
 0001:00008492       ?Remove@CComDynamicUnkArray@ATL@@QAEHK@Z 10009492 f i CashDrawer.obj
 0001:000084bb       ?RemoveAll@?$CSimpleMap@PA_WPA_WVCExpansionVectorEqualHelper@ATL@@@ATL@@QAEXXZ 100094bb f i CashDrawer.obj
 0001:000084e7       ?ResourceRegisterSz@CRegObject@ATL@@QAGJPB_W00@Z 100094e7 f i CashDrawer.obj
 0001:00008514       ?ResourceUnregisterSz@CRegObject@ATL@@QAGJPB_W00@Z 10009514 f i CashDrawer.obj
 0001:00008541       ?SendOnDataChange@CComControlBase@ATL@@QAEJK@Z 10009541 f i CashDrawer.obj
 0001:0000858e       ?SetControlFocus@CComControlBase@ATL@@QAEHH@Z 1000958e f i CashDrawer.obj
 0001:0000862b       ?SetMultiStringValue@CRegKey@ATL@@QAEJPB_W0@Z 1000962b f i CashDrawer.obj
 0001:00008687       ?SetStringValue@CRegKey@ATL@@QAEJPB_W0K@Z 10009687 f i CashDrawer.obj
 0001:000086d0       ?SkipAssignment@CRegParser@ATL@@IAEJPA_W@Z 100096d0 f i CashDrawer.obj
 0001:00008735       ?SkipWhiteSpace@CRegParser@ATL@@IAEXXZ 10009735 f i CashDrawer.obj
 0001:00008757       ?StrChrW@CRegParser@ATL@@KAPA_WPA_W_W@Z 10009757 f i CashDrawer.obj
 0001:00008794       ?Term@CAtlModule@ATL@@QAEXXZ 10009794 f i CashDrawer.obj
 0001:000087e7       ?Term@CComModule@ATL@@QAEXXZ 100097e7 f i CashDrawer.obj
 0001:0000883f       ?UnregisterServer@?$CAtlModuleT@VCComModule@ATL@@@ATL@@QAEJHPBU_GUID@@@Z 1000983f f i CashDrawer.obj
 0001:00008865       ?UnregisterServer@CComModule@ATL@@QAEJHPBU_GUID@@@Z 10009865 f i CashDrawer.obj
 0001:000088db       ?UpdateRegistryFromResource@CAtlModule@ATL@@QAGJIHPAU_ATL_REGMAP_ENTRY@2@@Z 100098db f i CashDrawer.obj
 0001:00008aa6       ?UpdateRegistryFromResource@CAtlModule@ATL@@QAGJPB_WHPAU_ATL_REGMAP_ENTRY@2@@Z 10009aa6 f i CashDrawer.obj
 0001:00008c77       ?VTFromRegType@CRegParser@ATL@@KAHPB_WAAG@Z 10009c77 f i CashDrawer.obj
 0001:00008ce4       ?WindowProc@?$CWindowImplBaseT@VCWindow@ATL@@V?$CWinTraits@$0FGAAAAAA@$0A@@2@@ATL@@SGJPAUHWND__@@IIJ@Z 10009ce4 f i CashDrawer.obj
 0001:00008dd6       ?WriteToStream@CComBSTR@ATL@@QAEJPAUIStream@@@Z 10009dd6 f i CashDrawer.obj
 0001:00008e38       ?WriteToStream@CComVariant@ATL@@QAEJPAUIStream@@@Z 10009e38 f i CashDrawer.obj
 0001:00008fb2       ?WriteToStream@CComVariant@ATL@@QAEJPAUIStream@@G@Z 10009fb2 f i CashDrawer.obj
 0001:0000901b       ?_AtlInitialConstruct@?$CComObjectRootEx@VCComMultiThreadModel@ATL@@@ATL@@QAEJXZ 1000a01b f i CashDrawer.obj
 0001:00009030       ?_AtlVerifyStackAvailable@_ATL_SAFE_ALLOCA_IMPL@ATL@@YA_NK@Z 1000a030 f i CashDrawer.obj
 0001:000090ae       ?atlCreate@?$CWindowImpl@VCOPOSCashDrawer@@VCWindow@ATL@@V?$CWinTraits@$0FGAAAAAA@$0A@@3@@ATL@@QAEPAUHWND__@@PAU3@V_U_RECT@2@PB_WKKV_U_MENUorID@2@PAX@Z 1000a0ae f i CashDrawer.obj
 0001:000090f2       ?atlCreate@?$CWindowImplBaseT@VCWindow@ATL@@V?$CWinTraits@$0FGAAAAAA@$0A@@2@@ATL@@QAEPAUHWND__@@PAU3@V_U_RECT@2@PB_WKKV_U_MENUorID@2@GPAX@Z 1000a0f2 f i CashDrawer.obj
 0001:0000918e       ?copy@?$_Copy@UtagCONNECTDATA@@@ATL@@SAJPAUtagCONNECTDATA@@PBU3@@Z 1000a18e f i CashDrawer.obj
 0001:000091c4       ?copy@?$_CopyInterface@UIConnectionPoint@@@ATL@@SAJPAPAUIConnectionPoint@@PBQAU3@@Z 1000a1c4 f i CashDrawer.obj
 0001:000091f2       ?memcpy_s@Checked@ATL@@YAXPAXIPBXI@Z 1000a1f2 f i CashDrawer.obj
 0001:00009211       ?ocscpy_s@@YA_NPA_WIPB_W@Z 1000a211 f i CashDrawer.obj
 0001:0000925b       ?wcscpy_s@Checked@ATL@@YAXPA_WIPB_W@Z 1000a25b f i CashDrawer.obj
 0001:00009277       _DllCanUnloadNow@0         1000a277 f   CashDrawer.obj
 0001:00009283       _DllGetClassObject@12      1000a283 f   CashDrawer.obj
 0001:00009291       _DllMain@12                1000a291 f   CashDrawer.obj
 0001:000092d3       _DllRegisterServer@0       1000a2d3 f   CashDrawer.obj
 0001:000092e2       _DllUnregisterServer@0     1000a2e2 f   CashDrawer.obj
 0001:000092f1       _InlineIsEqualGUID         1000a2f1 f i CashDrawer.obj
 0001:00009321       ___local_stdio_printf_options 1000a321 f i CashDrawer.obj
 0001:00009327       __vswprintf_s_l            1000a327 f i CashDrawer.obj
 0001:000093d4       _swprintf_s                1000a3d4 f i CashDrawer.obj
 0001:000093f0       ??0?$CComControl@VCOPOSCashDrawer@@V?$CWindowImpl@VCOPOSCashDrawer@@VCWindow@ATL@@V?$CWinTraits@$0FGAAAAAA@$0A@@3@@ATL@@@ATL@@QAE@XZ 1000a3f0 f i CashDrawerImpl.obj
 0001:00009417       ??0CComControlBase@ATL@@QAE@AAPAUHWND__@@@Z 1000a417 f i CashDrawerImpl.obj
 0001:00009461       ??0COPOSCashDrawer@@QAE@XZ 1000a461 f   CashDrawerImpl.obj
 0001:000094b0       ??1?$CComControl@VCOPOSCashDrawer@@V?$CWindowImpl@VCOPOSCashDrawer@@VCWindow@ATL@@V?$CWinTraits@$0FGAAAAAA@$0A@@3@@ATL@@@ATL@@UAE@XZ 1000a4b0 f i CashDrawerImpl.obj
 0001:000094c9       ??1?$IConnectionPointImpl@VCOPOSCashDrawer@@$1?IID_IPropertyNotifySink@@3U_GUID@@BVCComDynamicUnkArray@ATL@@@ATL@@QAE@XZ 1000a4c9 f i CashDrawerImpl.obj
 0001:000094c9       ??1?$IConnectionPointImpl@VCOPOSCashDrawer@@$1?DIID__IOPOSCashDrawerEvents@@3U_GUID@@BVCComDynamicUnkArray@ATL@@@ATL@@QAE@XZ 1000a4c9 f i CashDrawerImpl.obj
 0001:00009506       ??1CComControlBase@ATL@@UAE@XZ 1000a506 f i CashDrawerImpl.obj
 0001:00009569       ??1COPOSCashDrawer@@UAE@XZ 1000a569 f   CashDrawerImpl.obj
 0001:000095b1       ?CheckHealth@COPOSCashDrawer@@UAGJJPAJ@Z 1000a5b1 f   CashDrawerImpl.obj
 0001:00009600       ?ClaimDevice@COPOSCashDrawer@@UAGJJPAJ@Z 1000a600 f   CashDrawerImpl.obj
 0001:0000966e       ?Close@COPOSCashDrawer@@UAGJPAJ@Z 1000a66e f   CashDrawerImpl.obj
 0001:000096dc       ?CompareFirmwareVersion@COPOSCashDrawer@@UAGJPA_WPAJ1@Z 1000a6dc f   CashDrawerImpl.obj
 0001:0000975c       ?DirectIO@COPOSCashDrawer@@UAGJJPAJPAPA_W0@Z 1000a75c f   CashDrawerImpl.obj
 0001:0000980a       ?DoInvoke@COPOSCashDrawer@@IAEJJPAVOposVariant@@IHPAJ_N@Z 1000a80a f   CashDrawerImpl.obj
 0001:000098e6       ?EventClose@COPOSCashDrawer@@IAEXXZ 1000a8e6 f i CashDrawerImpl.obj
 0001:00009919       ?EventInit@COPOSCashDrawer@@IAEJXZ 1000a919 f i CashDrawerImpl.obj
 0001:000099e5       ?EventUninit@COPOSCashDrawer@@IAEXXZ 1000a9e5 f i CashDrawerImpl.obj
 0001:00009a37       ?EventWindowProc@COPOSCashDrawer@@IAGJIIJ@Z 1000aa37 f i CashDrawerImpl.obj
 0001:00009aae       ?FinalConstruct@COPOSCashDrawer@@QAEJXZ 1000aaae f   CashDrawerImpl.obj
 0001:00009ae7       ?FireEventCleanup@COPOSCashDrawer@@IAEXXZ 1000aae7 f i CashDrawerImpl.obj
 0001:00009afd       ?FireEventSetup@COPOSCashDrawer@@IAE_NXZ 1000aafd f i CashDrawerImpl.obj
 0001:00009b31       ?FreezeEvents@COPOSCashDrawer@@MAGJH@Z 1000ab31 f   CashDrawerImpl.obj
 0001:00009b82       ?GetOposProp@COPOSCashDrawer@@IAEJJPAFJ@Z 1000ab82 f   CashDrawerImpl.obj
 0001:00009ba5       ?GetOposProp@COPOSCashDrawer@@IAEJJPAJJ@Z 1000aba5 f   CashDrawerImpl.obj
 0001:00009c74       ?GetOposProp@COPOSCashDrawer@@IAEJJPAPA_WJ@Z 1000ac74 f   CashDrawerImpl.obj
 0001:00009d50       ?OnDraw@COPOSCashDrawer@@MAEJAAUATL_DRAWINFO@@@Z 1000ad50 f   CashDrawerImpl.obj
 0001:00009df0       ?Open@COPOSCashDrawer@@UAGJPA_WPAJ@Z 1000adf0 f   CashDrawerImpl.obj
 0001:0000a630       ?OpenDrawer@COPOSCashDrawer@@UAGJPAJ@Z 1000b630 f   CashDrawerImpl.obj
 0001:0000a64b       ?ReleaseDevice@COPOSCashDrawer@@UAGJPAJ@Z 1000b64b f   CashDrawerImpl.obj
 0001:0000a682       ?ResetStatistics@COPOSCashDrawer@@UAGJPA_WPAJ@Z 1000b682 f   CashDrawerImpl.obj
 0001:0000a6d9       ?RetrieveStatistics@COPOSCashDrawer@@UAGJPAPA_WPAJ@Z 1000b6d9 f   CashDrawerImpl.obj
 0001:0000a730       ?SOProcessID@COPOSCashDrawer@@UAGJPAJ@Z 1000b730 f   CashDrawerImpl.obj
 0001:0000a744       ?SetCOFreezeEvents@COPOSCashDrawer@@IAEXF@Z 1000b744 f   CashDrawerImpl.obj
 0001:0000a7e4       ?SetOposProp@COPOSCashDrawer@@IAEJJJJ@Z 1000b7e4 f   CashDrawerImpl.obj
 0001:0000a8db       ?UpdateFirmware@COPOSCashDrawer@@UAGJPA_WPAJ@Z 1000b8db f   CashDrawerImpl.obj
 0001:0000a932       ?UpdateStatistics@COPOSCashDrawer@@UAGJPA_WPAJ@Z 1000b932 f   CashDrawerImpl.obj
 0001:0000a989       ?WaitForDrawerClose@COPOSCashDrawer@@UAGJJJJJPAJ@Z 1000b989 f   CashDrawerImpl.obj
 0001:0000aa2a       ?get_BinaryConversion@COPOSCashDrawer@@UAGJPAJ@Z 1000ba2a f   CashDrawerImpl.obj
 0001:0000aa40       ?get_CapCompareFirmwareVersion@COPOSCashDrawer@@UAGJPAF@Z 1000ba40 f   CashDrawerImpl.obj
 0001:0000aa59       ?get_CapPowerReporting@COPOSCashDrawer@@UAGJPAJ@Z 1000ba59 f   CashDrawerImpl.obj
 0001:0000aa72       ?get_CapStatisticsReporting@COPOSCashDrawer@@UAGJPAF@Z 1000ba72 f   CashDrawerImpl.obj
 0001:0000aa8b       ?get_CapStatus@COPOSCashDrawer@@UAGJPAF@Z 1000ba8b f   CashDrawerImpl.obj
 0001:0000aaa4       ?get_CapStatusMultiDrawerDetect@COPOSCashDrawer@@UAGJPAF@Z 1000baa4 f   CashDrawerImpl.obj
 0001:0000aabd       ?get_CapUpdateFirmware@COPOSCashDrawer@@UAGJPAF@Z 1000babd f   CashDrawerImpl.obj
 0001:0000aad6       ?get_CapUpdateStatistics@COPOSCashDrawer@@UAGJPAF@Z 1000bad6 f   CashDrawerImpl.obj
 0001:0000aaef       ?get_CheckHealthText@COPOSCashDrawer@@UAGJPAPA_W@Z 1000baef f   CashDrawerImpl.obj
 0001:0000ab08       ?get_Claimed@COPOSCashDrawer@@UAGJPAF@Z 1000bb08 f   CashDrawerImpl.obj
 0001:0000ab1e       ?get_ControlObjectDescription@COPOSCashDrawer@@UAGJPAPA_W@Z 1000bb1e f   CashDrawerImpl.obj
 0001:0000ab6c       ?get_ControlObjectVersion@COPOSCashDrawer@@UAGJPAJ@Z 1000bb6c f   CashDrawerImpl.obj
 0001:0000ab7f       ?get_DeviceDescription@COPOSCashDrawer@@UAGJPAPA_W@Z 1000bb7f f   CashDrawerImpl.obj
 0001:0000ab98       ?get_DeviceEnabled@COPOSCashDrawer@@UAGJPAF@Z 1000bb98 f   CashDrawerImpl.obj
 0001:0000abae       ?get_DeviceName@COPOSCashDrawer@@UAGJPAPA_W@Z 1000bbae f   CashDrawerImpl.obj
 0001:0000abc7       ?get_DrawerOpened@COPOSCashDrawer@@UAGJPAF@Z 1000bbc7 f   CashDrawerImpl.obj
 0001:0000abe0       ?get_FreezeEvents@COPOSCashDrawer@@UAGJPAF@Z 1000bbe0 f   CashDrawerImpl.obj
 0001:0000abf6       ?get_OpenResult@COPOSCashDrawer@@UAGJPAJ@Z 1000bbf6 f   CashDrawerImpl.obj
 0001:0000ac0d       ?get_PowerNotify@COPOSCashDrawer@@UAGJPAJ@Z 1000bc0d f   CashDrawerImpl.obj
 0001:0000ac23       ?get_PowerState@COPOSCashDrawer@@UAGJPAJ@Z 1000bc23 f   CashDrawerImpl.obj
 0001:0000ac39       ?get_ResultCode@COPOSCashDrawer@@UAGJPAJ@Z 1000bc39 f   CashDrawerImpl.obj
 0001:0000ac77       ?get_ResultCodeExtended@COPOSCashDrawer@@UAGJPAJ@Z 1000bc77 f   CashDrawerImpl.obj
 0001:0000ac8d       ?get_ServiceObjectDescription@COPOSCashDrawer@@UAGJPAPA_W@Z 1000bc8d f   CashDrawerImpl.obj
 0001:0000aca6       ?get_ServiceObjectVersion@COPOSCashDrawer@@UAGJPAJ@Z 1000bca6 f   CashDrawerImpl.obj
 0001:0000acbc       ?get_State@COPOSCashDrawer@@UAGJPAJ@Z 1000bcbc f   CashDrawerImpl.obj
 0001:0000ace8       ?put_BinaryConversion@COPOSCashDrawer@@UAGJJ@Z 1000bce8 f   CashDrawerImpl.obj
 0001:0000acfe       ?put_DeviceEnabled@COPOSCashDrawer@@UAGJF@Z 1000bcfe f   CashDrawerImpl.obj
 0001:0000ad1b       ?put_FreezeEvents@COPOSCashDrawer@@UAGJF@Z 1000bd1b f   CashDrawerImpl.obj
 0001:0000ad67       ?put_PowerNotify@COPOSCashDrawer@@UAGJJ@Z 1000bd67 f   CashDrawerImpl.obj
 0001:0000ad7d       ?s_EventWindowProc@COPOSCashDrawer@@KGJPAUHWND__@@IIJ@Z 1000bd7d f i CashDrawerImpl.obj
 0001:0000adcf       ??_U@YAPAXI@Z              1000bdcf f   LIBCMT:new_array.obj
 0001:0000add8       ??3@YAXPAXI@Z              1000bdd8 f   LIBCMT:delete_scalar_size.obj
 0001:0000ade6       ??_V@YAXPAX@Z              1000bde6 f   LIBCMT:delete_array.obj
 0001:0000adeb       ??_V@YAXPAXI@Z             1000bdeb f   LIBCMT:delete_array_size.obj
 0001:0000ae3d       ___scrt_acquire_startup_lock 1000be3d f   LIBCMT:utility.obj
 0001:0000ae6f       ___scrt_dllmain_after_initialize_c 1000be6f f   LIBCMT:utility.obj
 0001:0000ae9a       ___scrt_dllmain_before_initialize_c 1000be9a f   LIBCMT:utility.obj
 0001:0000aea8       ___scrt_dllmain_crt_thread_attach 1000bea8 f   LIBCMT:utility.obj
 0001:0000aec7       ___scrt_dllmain_crt_thread_detach 1000bec7 f   LIBCMT:utility.obj
 0001:0000aed4       ___scrt_dllmain_exception_filter 1000bed4 f   LIBCMT:utility.obj
 0001:0000af08       ___scrt_dllmain_uninitialize_c 1000bf08 f   LIBCMT:utility.obj
 0001:0000af2b       ___scrt_dllmain_uninitialize_critical 1000bf2b f   LIBCMT:utility.obj
 0001:0000af38       ___scrt_initialize_crt     1000bf38 f   LIBCMT:utility.obj
 0001:0000af71       ___scrt_initialize_onexit_tables 1000bf71 f   LIBCMT:utility.obj
 0001:0000aff8       ___scrt_is_nonwritable_in_current_image 1000bff8 f   LIBCMT:utility.obj
 0001:0000b08c       ___scrt_release_startup_lock 1000c08c f   LIBCMT:utility.obj
 0001:0000b0a9       ___scrt_uninitialize_crt   1000c0a9 f   LIBCMT:utility.obj
 0001:0000b0d1       __onexit                   1000c0d1 f   LIBCMT:utility.obj
 0001:0000b0fe       _atexit                    1000c0fe f   LIBCMT:utility.obj
 0001:0000b113       ??3@YAXPAX@Z               1000c113 f   LIBCMT:delete_scalar.obj
 0001:0000b1dd       __Init_thread_footer       1000c1dd f   LIBCMT:thread_safe_statics.obj
 0001:0000b227       __Init_thread_header       1000c227 f   LIBCMT:thread_safe_statics.obj
 0001:0000b279       __Init_thread_notify       1000c279 f   LIBCMT:thread_safe_statics.obj
 0001:0000b2af       __Init_thread_wait         1000c2af f   LIBCMT:thread_safe_statics.obj
 0001:0000b2fd       ___raise_securityfailure   1000c2fd f   LIBCMT:gs_report.obj
 0001:0000b325       ___report_gsfailure        1000c325 f   LIBCMT:gs_report.obj
 0001:0000b41e       ___report_rangecheckfailure 1000c41e f   LIBCMT:gs_report.obj
 0001:0000b42a       ___report_securityfailure  1000c42a f   LIBCMT:gs_report.obj
 0001:0000b4f8       ??2@YAPAXIABUnothrow_t@std@@@Z 1000c4f8 f   LIBCMT:new_scalar_nothrow.obj
 0001:0000b548       ??_U@YAPAXIABUnothrow_t@std@@@Z 1000c548 f   LIBCMT:new_array_nothrow.obj
 0001:0000b551       @__security_check_cookie@4 1000c551 f   LIBCMT:secchk.obj
 0001:0000b570       __SEH_prolog4_GS           1000c570 f   LIBCMT:sehprolg4gs.obj
 0001:0000b5b9       __SEH_epilog4_GS           1000c5b9 f   LIBCMT:sehprolg4gs.obj
 0001:0000b5d0       __alloca_probe_16          1000c5d0 f   LIBCMT:alloca16.obj
 0001:0000b5e6       __alloca_probe_8           1000c5e6     LIBCMT:alloca16.obj
 0001:0000b600       __chkstk                   1000c600 f   LIBCMT:chkstk.obj
 0001:0000b600       __alloca_probe             1000c600 f   LIBCMT:chkstk.obj
 0001:0000b968       __DllMainCRTStartup@12     1000c968 f   LIBCMT:dll_dllmain.obj
 0001:0000b98b       ??2@YAPAXI@Z               1000c98b f   LIBCMT:new_scalar.obj
 0001:0000b9bb       ___isa_available_init      1000c9bb f   LIBCMT:cpu_disp.obj
 0001:0000bb8b       ___scrt_is_ucrt_dll_in_use 1000cb8b f   LIBCMT:ucrt_detection.obj
 0001:0000bb97       ___scrt_fastfail           1000cb97 f   LIBCMT:utility_desktop.obj
 0001:0000bcb1       __crt_debugger_hook        1000ccb1 f   LIBCMT:utility_desktop.obj
 0001:0000bcc0       __SEH_prolog4              1000ccc0 f   LIBCMT:sehprolg4.obj
 0001:0000bd06       __SEH_epilog4              1000cd06 f   LIBCMT:sehprolg4.obj
 0001:0000bd1b       @_guard_check_icall_nop@4  1000cd1b f i LIBCMT:guard_support.obj
 0001:0000bd69       ___security_init_cookie    1000cd69 f   LIBCMT:gs_support.obj
 0001:0000bdb4       ?__scrt_initialize_type_info@@YAXXZ 1000cdb4 f   LIBCMT:tncleanup.obj
 0001:0000bdc0       ?__scrt_uninitialize_type_info@@YAXXZ 1000cdc0 f   LIBCMT:tncleanup.obj
 0001:0000bdcc       ___local_stdio_scanf_options 1000cdcc f i LIBCMT:default_local_stdio_options.obj
 0001:0000bdd2       ___scrt_initialize_default_local_stdio_options 1000cdd2 f   LIBCMT:default_local_stdio_options.obj
 0001:0000bdef       ___scrt_get_dyn_tls_init_callback 1000cdef f   LIBCMT:dyn_tls_init.obj
 0001:0000bdf5       __RTC_Initialize           1000cdf5 f   LIBCMT:initsect.obj
 0001:0000be21       __RTC_Terminate            1000ce21 f   LIBCMT:initsect.obj
 0001:0000be4d       ??0bad_alloc@std@@QAE@ABV01@@Z 1000ce4d f i LIBCMT:throw_bad_alloc.obj
 0001:0000be68       ??0bad_alloc@std@@QAE@XZ   1000ce68 f i LIBCMT:throw_bad_alloc.obj
 0001:0000be80       ??0bad_array_new_length@std@@QAE@ABV01@@Z 1000ce80 f i LIBCMT:throw_bad_alloc.obj
 0001:0000be9b       ??0bad_array_new_length@std@@QAE@XZ 1000ce9b f i LIBCMT:throw_bad_alloc.obj
 0001:0000beb3       ??0exception@std@@QAE@ABV01@@Z 1000ceb3 f i LIBCMT:throw_bad_alloc.obj
 0001:0000bedf       ??1bad_array_new_length@std@@UAE@XZ 1000cedf f i LIBCMT:throw_bad_alloc.obj
 0001:0000bedf       ??1bad_exception@std@@UAE@XZ 1000cedf f i libvcruntime:frame.obj
 0001:0000bedf       ??1bad_alloc@std@@UAE@XZ   1000cedf f i LIBCMT:throw_bad_alloc.obj
 0001:0000bef0       ??_Gbad_array_new_length@std@@UAEPAXI@Z 1000cef0 f i LIBCMT:throw_bad_alloc.obj
 0001:0000bef0       ??_Gbad_exception@std@@UAEPAXI@Z 1000cef0 f i libvcruntime:frame.obj
 0001:0000bef0       ??_Eexception@std@@UAEPAXI@Z 1000cef0 f i LIBCMT:throw_bad_alloc.obj
 0001:0000bef0       ??_Ebad_alloc@std@@UAEPAXI@Z 1000cef0 f i LIBCMT:throw_bad_alloc.obj
 0001:0000bef0       ??_Gexception@std@@UAEPAXI@Z 1000cef0 f i LIBCMT:throw_bad_alloc.obj
 0001:0000bef0       ??_Ebad_exception@std@@UAEPAXI@Z 1000cef0 f i libvcruntime:frame.obj
 0001:0000bef0       ??_Ebad_array_new_length@std@@UAEPAXI@Z 1000cef0 f i LIBCMT:throw_bad_alloc.obj
 0001:0000bef0       ??_Gbad_alloc@std@@UAEPAXI@Z 1000cef0 f i LIBCMT:throw_bad_alloc.obj
 0001:0000bf1d       ?__scrt_throw_std_bad_alloc@@YAXXZ 1000cf1d f   LIBCMT:throw_bad_alloc.obj
 0001:0000bf3a       ?__scrt_throw_std_bad_array_new_length@@YAXXZ 1000cf3a f   LIBCMT:throw_bad_alloc.obj
 0001:0000bf57       ?what@exception@std@@UBEPBDXZ 1000cf57 f i LIBCMT:throw_bad_alloc.obj
 0001:0000bf64       ??_Etype_info@@UAEPAXI@Z   1000cf64 f i LIBCMT:std_type_info_static.obj
 0001:0000bf64       ??_Gtype_info@@UAEPAXI@Z   1000cf64 f i LIBCMT:std_type_info_static.obj
 0001:0000bf87       ??0CAtlBaseModule@ATL@@QAE@XZ 1000cf87 f   atls:atlbase.obj
 0001:0000bfda       ??0_ATL_BASE_MODULE70@ATL@@QAE@XZ 1000cfda f i atls:atlbase.obj
 0001:0000bffd       ??1CAtlBaseModule@ATL@@QAE@XZ 1000cffd f   atls:atlbase.obj
 0001:0000c0ea       ?Init@_stdcallthunk@ATL@@QAEHKPAX@Z 1000d0ea f i atls:atlthunk.obj
 0001:0000c11f       ?__AllocStdCallThunk_cmn@@YAPAXXZ 1000d11f f   atls:atlthunk.obj
 0001:0000c1e5       ?__FreeStdCallThunk_cmn@@YAXPAX@Z 1000d1e5 f   atls:atlthunk.obj
 0001:0000c280       _AtlThunk_AllocateData@0   1000d280 f   atls:atlthunk.obj
 0001:0000c2e5       _AtlThunk_DataToCode@4     1000d2e5 f   atls:atlthunk.obj
 0001:0000c32c       _AtlThunk_FreeData@4       1000d32c f   atls:atlthunk.obj
 0001:0000c382       _AtlThunk_InitData@12      1000d382 f   atls:atlthunk.obj
 0001:0000c3d1       __get_purecall_handler     1000d3d1 f   libvcruntime:purevirt.obj
 0001:0000c3d7       __purecall                 1000d3d7 f   libvcruntime:purevirt.obj
 0001:0000c3f3       _wcsstr                    1000d3f3 f   libvcruntime:wcsstr.obj
 0001:0000c6b0       __except_handler4          1000d6b0 f   libvcruntime:chandler4.obj
 0001:0000c80e       _memcmp                    1000d80e f   libvcruntime:memcmp.obj
 0001:0000d7c0       _memcpy                    1000e7c0 f   libvcruntime:memcpy.obj
 0001:0000dd40       _memset                    1000ed40 f   libvcruntime:memset.obj
 0001:0000de9a       ___vcrt_initialize         1000ee9a f   libvcruntime:initialization.obj
 0001:0000deb9       ___vcrt_thread_attach      1000eeb9 f   libvcruntime:initialization.obj
 0001:0000dec4       ___vcrt_thread_detach      1000eec4 f   libvcruntime:initialization.obj
 0001:0000decf       ___vcrt_uninitialize       1000eecf f   libvcruntime:initialization.obj
 0001:0000dee6       ___vcrt_uninitialize_critical 1000eee6 f   libvcruntime:initialization.obj
 0001:0000deee       ?GetRangeOfTrysToCheck@__FrameHandler3@@SA?AU?$pair@Viterator@TryBlockMap@__FrameHandler3@@V123@@std@@AAVTryBlockMap@1@HPAXPBU_s_FuncInfo@@H@Z 1000eeee f   libvcruntime:trnsctrl.obj
 0001:0000df5e       ?_CallCatchBlock2@@YAPAXPAUEHRegistrationNode@@PBU_s_FuncInfo@@PAXHK@Z 1000ef5e f   libvcruntime:trnsctrl.obj
 0001:0000dfbc       ?_CallSETranslator@@YAHPAUEHExceptionRecord@@PAUEHRegistrationNode@@PAX2PBU_s_FuncInfo@@H1@Z 1000efbc f   libvcruntime:trnsctrl.obj
 0001:0000e0a2       ?_JumpToContinuation@@YGXPAXPAUEHRegistrationNode@@@Z 1000f0a2 f   libvcruntime:trnsctrl.obj
 0001:0000e0d2       ?_UnwindNestedFrames@@YGXPAUEHRegistrationNode@@PAUEHExceptionRecord@@@Z 1000f0d2 f   libvcruntime:trnsctrl.obj
 0001:0000e125       __CatchGuardHandler        1000f125 f   libvcruntime:trnsctrl.obj
 0001:0000e156       __CreateFrameInfo          1000f156 f   libvcruntime:trnsctrl.obj
 0001:0000e17a       __FindAndUnlinkFrame       1000f17a f   libvcruntime:trnsctrl.obj
 0001:0000e1c2       __TranslatorGuardHandler   1000f1c2 f   libvcruntime:trnsctrl.obj
 0001:0000e25f       ___CxxFrameHandler3        1000f25f f   libvcruntime:trnsctrl.obj
 0001:0000e295       ___DestructExceptionObject 1000f295 f   libvcruntime:ehhelpers.obj
 0001:0000e336       ?_CallMemberFunction0@@YGXQAX0@Z 1000f336 f i libvcruntime:ehhelpers.obj
 0001:0000e39b       __IsExceptionObjectToBeDestroyed 1000f39b f   libvcruntime:ehhelpers.obj
 0001:0000e3c1       ___AdjustPointer           1000f3c1 f   libvcruntime:ehhelpers.obj
 0001:0000e3e6       ___FrameUnwindFilter       1000f3e6 f   libvcruntime:ehhelpers.obj
 0001:0000e43c       ___std_type_info_compare   1000f43c f   libvcruntime:std_type_info.obj
 0001:0000e478       ___std_type_info_destroy_list 1000f478 f   libvcruntime:std_type_info.obj
 0001:0000e49b       ___std_exception_copy      1000f49b f   libvcruntime:std_exception.obj
 0001:0000e4fe       ___std_exception_destroy   1000f4fe f   libvcruntime:std_exception.obj
 0001:0000e51d       __CxxThrowException@8      1000f51d f   libvcruntime:throw.obj
 0001:0000e590       _memmove                   1000f590 f   libvcruntime:memmove.obj
 0001:0000eb10       __local_unwind4            1000fb10 f   libvcruntime:exsup4.obj
 0001:0000ebe8       __seh_longjmp_unwind4@4    1000fbe8 f   libvcruntime:exsup4.obj
 0001:0000ec10       @_EH4_CallFilterFunc@8     1000fc10 f   libvcruntime:exsup4.obj
 0001:0000ec28       @_EH4_TransferToHandler@8  1000fc28 f   libvcruntime:exsup4.obj
 0001:0000ec44       @_EH4_GlobalUnwind2@8      1000fc44 f   libvcruntime:exsup4.obj
 0001:0000ec60       @_EH4_LocalUnwind@16       1000fc60 f   libvcruntime:exsup4.obj
 0001:0000ec77       ___except_validate_context_record 1000fc77 f   libvcruntime:jbcxrval.obj
 0001:0000eca7       ___except_validate_jump_buffer 1000fca7 f   libvcruntime:jbcxrval.obj
 0001:0000ecd4       ___vcrt_freefls@4          1000fcd4 f   libvcruntime:per_thread_data.obj
 0001:0000ecf0       ___vcrt_freeptd            1000fcf0 f   libvcruntime:per_thread_data.obj
 0001:0000ed26       ___vcrt_getptd             1000fd26 f   libvcruntime:per_thread_data.obj
 0001:0000ed34       ___vcrt_getptd_noexit      1000fd34 f   libvcruntime:per_thread_data.obj
 0001:0000edc6       ___vcrt_initialize_ptd     1000fdc6 f   libvcruntime:per_thread_data.obj
 0001:0000edf9       ___vcrt_uninitialize_ptd   1000fdf9 f   libvcruntime:per_thread_data.obj
 0001:0000ee14       ___vcrt_initialize_locks   1000fe14 f   libvcruntime:locks.obj
 0001:0000ee50       ___vcrt_uninitialize_locks 1000fe50 f   libvcruntime:locks.obj
 0001:0000f5c2       ??$TypeMatchHelper@V__FrameHandler3@@@@YAHPBU_s_HandlerType@@PBU_s_CatchableType@@PBU_s_ThrowInfo@@@Z 100105c2 f i libvcruntime:frame.obj
 0001:0000f650       ??$__InternalCxxFrameHandler@V__FrameHandler3@@@@YA?AW4_EXCEPTION_DISPOSITION@@PAUEHExceptionRecord@@PAUEHRegistrationNode@@PAU_CONTEXT@@PAXPBU_s_FuncInfo@@H1E@Z 10010650 f i libvcruntime:frame.obj
 0001:0000f752       ??0bad_exception@std@@QAE@ABV01@@Z 10010752 f i libvcruntime:frame.obj
 0001:0000f76d       ??0bad_exception@std@@QAE@XZ 1001076d f i libvcruntime:frame.obj
 0001:0000f785       ??8type_info@@QBE_NABV0@@Z 10010785 f i libvcruntime:frame.obj
 0001:0000f9ec       ?FrameUnwindToEmptyState@__FrameHandler3@@SAXPAUEHRegistrationNode@@PAXPBU_s_FuncInfo@@@Z 100109ec f   libvcruntime:frame.obj
 0001:0000fa04       ?FrameUnwindToState@__FrameHandler3@@SAXPAUEHRegistrationNode@@PAXPBU_s_FuncInfo@@H@Z 10010a04 f   libvcruntime:frame.obj
 0001:0000fb86       ?_CallMemberFunction1@@YGXQAX00@Z 10010b86 f i libvcruntime:frame.obj
 0001:0000fb96       ?_CallMemberFunction2@@YGXQAX00H@Z 10010b96 f i libvcruntime:frame.obj
 0001:0000fba9       ?getESTypes@__FrameHandler3@@SAPBU_s_ESTypeList@@PBU_s_FuncInfo@@@Z 10010ba9 f i libvcruntime:frame.obj
 0001:0000fbc0       __CallSettingFrame@12      10010bc0 f   libvcruntime:lowhelpr.obj
 0001:0000fbe7       __NLG_Return               10010be7     libvcruntime:lowhelpr.obj
 0001:0000fc10       __global_unwind2           10010c10 f   libvcruntime:exsup.obj
 0001:0000fc76       __local_unwind2            10010c76 f   libvcruntime:exsup.obj
 0001:0000fcfa       __abnormal_termination     10010cfa f   libvcruntime:exsup.obj
 0001:0000fd20       __NLG_Notify1              10010d20 f   libvcruntime:exsup.obj
 0001:0000fd2c       __NLG_Notify               10010d2c f   libvcruntime:exsup.obj
 0001:0000fd43       __NLG_Dispatch             10010d43     libvcruntime:exsup.obj
 0001:0000fd43       __NLG_Dispatch2            10010d43     libvcruntime:exsup.obj
 0001:0000fd4b       __NLG_Call                 10010d4b f   libvcruntime:exsup.obj
 0001:0000fd4d       __NLG_Return2              10010d4d     libvcruntime:exsup.obj
 0001:0000fe43       ___vcrt_FlsAlloc           10010e43 f   libvcruntime:winapi_downlevel.obj
 0001:0000fe7e       ___vcrt_FlsFree            10010e7e f   libvcruntime:winapi_downlevel.obj
 0001:0000feb9       ___vcrt_FlsGetValue        10010eb9 f   libvcruntime:winapi_downlevel.obj
 0001:0000fef4       ___vcrt_FlsSetValue        10010ef4 f   libvcruntime:winapi_downlevel.obj
 0001:0000ff32       ___vcrt_InitializeCriticalSectionEx 10010f32 f   libvcruntime:winapi_downlevel.obj
 0001:0000ff79       _unexpected                10010f79 f   libvcruntime:unexpected.obj
 0001:0000ff96       ?GetCurrentState@__FrameHandler3@@SAHPAUEHRegistrationNode@@PAXPBU_s_FuncInfo@@@Z 10010f96 f   libvcruntime:ehstate.obj
 0001:0000ffb3       ?SetState@__FrameHandler3@@SAXPAUEHRegistrationNode@@PBU_s_FuncInfo@@H@Z 10010fb3 f   libvcruntime:ehstate.obj
 0001:0000ffc1       _free                      10010fc1 f   libucrt:free.obj
 0001:0000ffdc       ___acrt_call_reportfault   10010fdc f   libucrt:invalid_parameter.obj
 0001:00010115       ___acrt_initialize_invalid_parameter_handler 10011115 f   libucrt:invalid_parameter.obj
 0001:00010124       __invalid_parameter        10011124 f   libucrt:invalid_parameter.obj
 0001:00010188       __invalid_parameter_noinfo 10011188 f   libucrt:invalid_parameter.obj
 0001:00010198       __invoke_watson            10011198 f   libucrt:invalid_parameter.obj
 0001:000101cc       ___acrt_errno_from_os_error 100111cc f   libucrt:errno.obj
 0001:0001020f       ___acrt_errno_map_os_error 1001120f f   libucrt:errno.obj
 0001:00010232       ___doserrno                10011232 f   libucrt:errno.obj
 0001:00010245       __errno                    10011245 f   libucrt:errno.obj
 0001:00010258       _calloc                    10011258 f   libucrt:calloc.obj
 0001:00010263       _malloc                    10011263 f   libucrt:malloc.obj
 0001:0001026e       __recalloc                 1001126e f   libucrt:recalloc.obj
 0001:00010279       __recalloc_base            10011279 f   libucrt:recalloc.obj
 0001:000102e6       __resetstkoflw             100112e6 f   libucrt:resetstk.obj
 0001:000103ab       _wcscat_s                  100113ab f   libucrt:wcscat_s.obj
 0001:00010420       _wcscpy_s                  10011420 f   libucrt:wcscpy_s.obj
 0001:0001054f       _wcsncpy_s                 1001154f f   libucrt:wcsncpy_s.obj
 0001:0001075b       ??$count@D@formatting_buffer@__crt_stdio_output@@QBEIXZ 1001175b f i libucrt:output.obj
 0001:00010773       ??$count@_W@formatting_buffer@__crt_stdio_output@@QBEIXZ 10011773 f i libucrt:output.obj
 0001:0001078c       ??$ensure_buffer_is_big_enough@D@formatting_buffer@__crt_stdio_output@@QAE_NI@Z 1001178c f i libucrt:output.obj
 0001:00010809       ??$ensure_buffer_is_big_enough@_W@formatting_buffer@__crt_stdio_output@@QAE_NI@Z 10011809 f i libucrt:output.obj
 0001:00010887       ??$is_wide_character_specifier@_W@__crt_stdio_output@@YA_N_K_WW4length_modifier@0@@Z 10011887 f i libucrt:output.obj
 0001:000108d5       ??$scratch_data@D@formatting_buffer@__crt_stdio_output@@QAEPADXZ 100118d5 f i libucrt:output.obj
 0001:000108f3       ??$type_case_integer_parse_into_buffer@I@?$output_processor@_WV?$string_output_adapter@_W@__crt_stdio_output@@V?$format_validation_base@_WV?$string_output_adapter@_W@__crt_stdio_output@@@2@@__crt_stdio_output@@AAEXII_N@Z 100118f3 f i libucrt:output.obj
 0001:0001097a       ??$type_case_integer_parse_into_buffer@_K@?$output_processor@_WV?$string_output_adapter@_W@__crt_stdio_output@@V?$format_validation_base@_WV?$string_output_adapter@_W@__crt_stdio_output@@@2@@__crt_stdio_output@@AAEX_KI_N@Z 1001197a f i libucrt:output.obj
 0001:00010a1c       ??$write_multiple_characters@V?$string_output_adapter@_W@__crt_stdio_output@@D@__crt_stdio_output@@YAXABV?$string_output_adapter@_W@0@DHQAH@Z 10011a1c f i libucrt:output.obj
 0001:00010a4d       ??0?$common_data@_W@__crt_stdio_output@@IAE@XZ 10011a4d f i libucrt:output.obj
 0001:00010a97       ??0?$output_adapter_data@_WV?$string_output_adapter@_W@__crt_stdio_output@@@__crt_stdio_output@@IAE@ABV?$string_output_adapter@_W@1@_KQB_WQAU__crt_locale_pointers@@QAD@Z 10011a97 f i libucrt:output.obj
 0001:00010ad3       ??0_LocaleUpdate@@QAE@QAU__crt_locale_pointers@@@Z 10011ad3 f i libucrt:output.obj
 0001:00010b56       ??1formatting_buffer@__crt_stdio_output@@QAE@XZ 10011b56 f i libucrt:output.obj
 0001:00010b70       ??4?$__crt_unique_heap_ptr@DU__crt_internal_free_policy@@@@QAEAAV0@$$QAV0@@Z 10011b70 f i libucrt:output.obj
 0001:00010b94       ?crop_zeroes@__crt_stdio_output@@YAXPADQAU__crt_locale_pointers@@@Z 10011b94 f i libucrt:output.obj
 0001:00010bf4       ?find_next_state@?$output_processor@_WV?$string_output_adapter@_W@__crt_stdio_output@@V?$format_validation_base@_WV?$string_output_adapter@_W@__crt_stdio_output@@@2@@__crt_stdio_output@@ABE?AW4state@2@_WW432@@Z 10011bf4 f i libucrt:output.obj
 0001:00010c36       ?force_decimal_point@__crt_stdio_output@@YAXPADQAU__crt_locale_pointers@@@Z 10011c36 f i libucrt:output.obj
 0001:00010c92       ?parse_int_from_format_string@?$output_processor@_WV?$string_output_adapter@_W@__crt_stdio_output@@V?$format_validation_base@_WV?$string_output_adapter@_W@__crt_stdio_output@@@2@@__crt_stdio_output@@AAE_NQAH@Z 10011c92 f i libucrt:output.obj
 0001:00010d08       ?process@?$output_processor@_WV?$string_output_adapter@_W@__crt_stdio_output@@V?$format_validation_base@_WV?$string_output_adapter@_W@__crt_stdio_output@@@2@@__crt_stdio_output@@QAEHXZ 10011d08 f i libucrt:output.obj
 0001:00010e30       ?state_case_flag@?$output_processor@_WV?$string_output_adapter@_W@__crt_stdio_output@@V?$format_validation_base@_WV?$string_output_adapter@_W@__crt_stdio_output@@@2@@__crt_stdio_output@@AAE_NXZ 10011e30 f i libucrt:output.obj
 0001:00010e6d       ?state_case_normal@?$output_processor@_WV?$string_output_adapter@_W@__crt_stdio_output@@V?$format_validation_base@_WV?$string_output_adapter@_W@__crt_stdio_output@@@2@@__crt_stdio_output@@AAE_NXZ 10011e6d f i libucrt:output.obj
 0001:00010e8c       ?state_case_normal_common@?$output_processor@_WV?$string_output_adapter@_W@__crt_stdio_output@@V?$format_validation_base@_WV?$string_output_adapter@_W@__crt_stdio_output@@@2@@__crt_stdio_output@@AAE_NXZ 10011e8c f i libucrt:output.obj
 0001:00010ea7       ?state_case_precision@?$output_processor@_WV?$string_output_adapter@_W@__crt_stdio_output@@V?$format_validation_base@_WV?$string_output_adapter@_W@__crt_stdio_output@@@2@@__crt_stdio_output@@AAE_NXZ 10011ea7 f i libucrt:output.obj
 0001:00010ece       ?state_case_size@?$output_processor@_WV?$string_output_adapter@_W@__crt_stdio_output@@V?$format_validation_base@_WV?$string_output_adapter@_W@__crt_stdio_output@@@2@@__crt_stdio_output@@AAE_NXZ 10011ece f i libucrt:output.obj
 0001:00011046       ?state_case_type@?$output_processor@_WV?$string_output_adapter@_W@__crt_stdio_output@@V?$format_validation_base@_WV?$string_output_adapter@_W@__crt_stdio_output@@@2@@__crt_stdio_output@@AAE_NXZ 10012046 f i libucrt:output.obj
 0001:000112ab       ?state_case_width@?$output_processor@_WV?$string_output_adapter@_W@__crt_stdio_output@@V?$format_validation_base@_WV?$string_output_adapter@_W@__crt_stdio_output@@@2@@__crt_stdio_output@@AAE_NXZ 100122ab f i libucrt:output.obj
 0001:000112d7       ?to_integer_size@__crt_stdio_output@@YAIW4length_modifier@1@@Z 100122d7 f i libucrt:output.obj
 0001:0001132b       ?type_case_Z@?$output_processor@_WV?$string_output_adapter@_W@__crt_stdio_output@@V?$format_validation_base@_WV?$string_output_adapter@_W@__crt_stdio_output@@@2@@__crt_stdio_output@@AAE_NXZ 1001232b f i libucrt:output.obj
 0001:00011385       ?type_case_a@?$output_processor@_WV?$string_output_adapter@_W@__crt_stdio_output@@V?$format_validation_base@_WV?$string_output_adapter@_W@__crt_stdio_output@@@2@@__crt_stdio_output@@AAE_NXZ 10012385 f i libucrt:output.obj
 0001:000114ea       ?type_case_c_tchar@?$output_processor@_WV?$string_output_adapter@_W@__crt_stdio_output@@V?$format_validation_base@_WV?$string_output_adapter@_W@__crt_stdio_output@@@2@@__crt_stdio_output@@AAE_N_W@Z 100124ea f i libucrt:output.obj
 0001:00011580       ?type_case_integer@?$output_processor@_WV?$string_output_adapter@_W@__crt_stdio_output@@V?$format_validation_base@_WV?$string_output_adapter@_W@__crt_stdio_output@@@2@@__crt_stdio_output@@AAE_NI_N@Z 10012580 f i libucrt:output.obj
 0001:000116d5       ?type_case_n@?$output_processor@_WV?$string_output_adapter@_W@__crt_stdio_output@@V?$format_validation_base@_WV?$string_output_adapter@_W@__crt_stdio_output@@@2@@__crt_stdio_output@@AAE_NXZ 100126d5 f i libucrt:output.obj
 0001:00011749       ?type_case_o@?$output_processor@_WV?$string_output_adapter@_W@__crt_stdio_output@@V?$format_validation_base@_WV?$string_output_adapter@_W@__crt_stdio_output@@@2@@__crt_stdio_output@@AAE_NXZ 10012749 f i libucrt:output.obj
 0001:00011768       ?type_case_p@?$output_processor@_WV?$string_output_adapter@_W@__crt_stdio_output@@V?$format_validation_base@_WV?$string_output_adapter@_W@__crt_stdio_output@@@2@@__crt_stdio_output@@AAE_NXZ 10012768 f i libucrt:output.obj
 0001:00011780       ?type_case_s@?$output_processor@_WV?$string_output_adapter@_W@__crt_stdio_output@@V?$format_validation_base@_WV?$string_output_adapter@_W@__crt_stdio_output@@@2@@__crt_stdio_output@@AAE_NXZ 10012780 f i libucrt:output.obj
 0001:000117f3       ?type_case_s_compute_narrow_string_length@?$output_processor@_WV?$string_output_adapter@_W@__crt_stdio_output@@V?$format_validation_base@_WV?$string_output_adapter@_W@__crt_stdio_output@@@2@@__crt_stdio_output@@ABEHH_W@Z 100127f3 f i libucrt:output.obj
 0001:0001183a       ?validate@?$string_output_adapter@_W@__crt_stdio_output@@QBE_NXZ 1001283a f i libucrt:output.obj
 0001:0001183a       ?validate@?$c_string_character_source@_W@__crt_strtox@@QBE_NXZ 1001283a f i libucrt:atox.obj
 0001:00011855       ?validate_and_update_state_at_end_of_format_string@?$format_validation_base@_WV?$string_output_adapter@_W@__crt_stdio_output@@@__crt_stdio_output@@IBE_NXZ 10012855 f i libucrt:output.obj
 0001:00011877       ?write_character@?$string_output_adapter@_W@__crt_stdio_output@@QBE_N_WQAH@Z 10012877 f i libucrt:output.obj
 0001:000118bc       ?write_stored_string_tchar@?$output_processor@_WV?$string_output_adapter@_W@__crt_stdio_output@@V?$format_validation_base@_WV?$string_output_adapter@_W@__crt_stdio_output@@@2@@__crt_stdio_output@@AAE_N_W@Z 100128bc f i libucrt:output.obj
 0001:0001194f       ?write_string@?$string_output_adapter@_W@__crt_stdio_output@@QBEXQB_WHQAHAAV__crt_deferred_errno_cache@@@Z 1001294f f i libucrt:output.obj
 0001:000119c0       ___acrt_locale_get_ctype_array_value 100129c0 f i libucrt:output.obj
 0001:000119e2       ___stdio_common_vswprintf_s 100129e2 f   libucrt:output.obj
 0001:00011a06       __seh_filter_dll           10012a06 f   libucrt:exception_filter.obj
 0001:00011a26       __seh_filter_exe           10012a26 f   libucrt:exception_filter.obj
 0001:00011df4       ___acrt_initialize_thread_local_exit_callback 10012df4 f   libucrt:exit.obj
 0001:00011e03       __cexit                    10012e03 f   libucrt:exit.obj
 0001:00011e12       __exit                     10012e12 f   libucrt:exit.obj
 0001:00011e28       __is_c_termination_complete 10012e28 f   libucrt:exit.obj
 0001:000120dc       ___acrt_allocate_buffer_for_argv 100130dc f   libucrt:argv_parsing.obj
 0001:0001212b       __configure_narrow_argv    1001312b f   libucrt:argv_parsing.obj
 0001:00012288       ??$uninitialize@A6AXAAPAPAD@Z@?$dual_state_global@PAPAD@__crt_state_management@@QAEXA6AXAAPAPAD@Z@Z 10013288 f i libucrt:environment_initialization.obj
 0001:00012288       ??$uninitialize@A6AXAAPAPA_W@Z@?$dual_state_global@PAPA_W@__crt_state_management@@QAEXA6AXAAPAPA_W@Z@Z 10013288 f i libucrt:environment_initialization.obj
 0001:000122e7       ___dcrt_uninitialize_environments_nolock 100132e7 f   libucrt:environment_initialization.obj
 0001:0001231e       __initialize_narrow_environment 1001331e f   libucrt:environment_initialization.obj
 0001:000123d9       ??$__crt_fast_encode_pointer@PAP6AXXZ@@YAPAP6AXXZQAP6AXXZ@Z 100133d9 f i libucrt:onexit.obj
 0001:000123d9       ??$__crt_fast_encode_pointer@PAX@@YAPAXQAX@Z 100133d9 f i libucrt:initialization.obj
 0001:000123d9       ??$__crt_fast_encode_pointer@P6AHXZ@@YAP6AHXZQ6AHXZ@Z 100133d9 f i libucrt:onexit.obj
 0001:000125fb       __crt_atexit               100135fb f   libucrt:onexit.obj
 0001:00012611       __execute_onexit_table     10013611 f   libucrt:onexit.obj
 0001:0001263e       __initialize_onexit_table  1001363e f   libucrt:onexit.obj
 0001:00012667       __register_onexit_function 10013667 f   libucrt:onexit.obj
 0001:0001269a       ___acrt_uninitialize_command_line 1001369a f   libucrt:argv_data.obj
 0001:00012798       ___acrt_initialize         10013798 f   libucrt:initialization.obj
 0001:000127aa       ___acrt_thread_attach      100137aa f   libucrt:initialization.obj
 0001:000127b5       ___acrt_thread_detach      100137b5 f   libucrt:initialization.obj
 0001:000127bd       ___acrt_uninitialize       100137bd f   libucrt:initialization.obj
 0001:000127ed       ___acrt_uninitialize_critical 100137ed f   libucrt:initialization.obj
 0001:000127ff       __initterm                 100137ff f   libucrt:initterm.obj
 0001:00012844       __initterm_e               10013844 f   libucrt:initterm.obj
 0001:00012872       ___acrt_initialize_new_handler 10013872 f   libucrt:new_handler.obj
 0001:00012881       __callnewh                 10013881 f   libucrt:new_handler.obj
 0001:000128ae       __query_new_handler        100138ae f   libucrt:new_handler.obj
 0001:0001290a       _terminate                 1001390a f   libucrt:terminate.obj
 0001:00012946       _abort                     10013946 f   libucrt:abort.obj
 0001:0001298a       _strcpy_s                  1001398a f   libucrt:strcpy_s.obj
 0001:000129e4       ??$is_overflow_condition@K@__crt_strtox@@YA_NIK@Z 100139e4 f i libucrt:atox.obj
 0001:00012a15       ??$parse_integer@KV?$c_string_character_source@_W@__crt_strtox@@@__crt_strtox@@YAKQAU__crt_locale_pointers@@V?$c_string_character_source@_W@0@H_N@Z 10013a15 f i libucrt:atox.obj
 0001:0001301d       ?unget@?$c_string_character_source@_W@__crt_strtox@@QAEX_W@Z 1001401d f i libucrt:atox.obj
 0001:00013050       _strncmp                   10014050 f   libucrt:strncmp.obj
 0001:000130c8       _wcsncmp                   100140c8 f   libucrt:wcsncmp.obj
 0001:00013102       __free_base                10014102 f   libucrt:free_base.obj
 0001:0001347a       ___acrt_freeptd            1001447a f   libucrt:per_thread_data.obj
 0001:000134a6       ___acrt_getptd             100144a6 f   libucrt:per_thread_data.obj
 0001:00013563       ___acrt_getptd_head        10014563 f   libucrt:per_thread_data.obj
 0001:000135fd       ___acrt_getptd_noexit      100145fd f   libucrt:per_thread_data.obj
 0001:000136b2       ___acrt_initialize_ptd     100146b2 f   libucrt:per_thread_data.obj
 0001:000136de       ___acrt_uninitialize_ptd   100146de f   libucrt:per_thread_data.obj
 0001:000136f8       __calloc_base              100146f8 f   libucrt:calloc_base.obj
 0001:00013755       __malloc_base              10014755 f   libucrt:malloc_base.obj
 0001:000137a3       __msize_base               100147a3 f   libucrt:msize.obj
 0001:000137d6       __realloc_base             100147d6 f   libucrt:realloc_base.obj
 0001:000139d7       ___acrt_AppPolicyGetProcessTerminationMethodInternal@4 100149d7 f   libucrt:winapi_thunks.obj
 0001:00013a17       ___acrt_AreFileApisANSI@0  10014a17 f   libucrt:winapi_thunks.obj
 0001:00013a36       ___acrt_FlsAlloc@4         10014a36 f   libucrt:winapi_thunks.obj
 0001:00013a75       ___acrt_FlsFree@4          10014a75 f   libucrt:winapi_thunks.obj
 0001:00013ab4       ___acrt_FlsGetValue@4      10014ab4 f   libucrt:winapi_thunks.obj
 0001:00013af3       ___acrt_FlsSetValue@8      10014af3 f   libucrt:winapi_thunks.obj
 0001:00013b35       ___acrt_InitializeCriticalSectionEx@12 10014b35 f   libucrt:winapi_thunks.obj
 0001:00013b80       ___acrt_LCMapStringEx@36   10014b80 f   libucrt:winapi_thunks.obj
 0001:00013bdd       ___acrt_LocaleNameToLCID@8 10014bdd f   libucrt:winapi_thunks.obj
 0001:00013c0e       ___acrt_SetThreadStackGuarantee@4 10014c0e f   libucrt:winapi_thunks.obj
 0001:00013c49       ___acrt_initialize_winapi_thunks 10014c49 f   libucrt:winapi_thunks.obj
 0001:00013c74       ___acrt_uninitialize_winapi_thunks 10014c74 f   libucrt:winapi_thunks.obj
 0001:00013caa       ??$make_c_string_character_source@_WPAPA_W@__crt_strtox@@YA?AV?$c_string_character_source@_W@0@QB_WQAPA_W@Z 10014caa f i libucrt:strtox.obj
 0001:00013cc5       _wcstol                    10014cc5 f   libucrt:strtox.obj
 0001:00013cef       __mbtowc_l                 10014cef f   libucrt:mbtowc.obj
 0001:00013e31       _mbtowc                    10014e31 f   libucrt:mbtowc.obj
 0001:00013e4b       _wcsnlen                   10014e4b f   libucrt:strnlen.obj
 0001:00013ffb       ___acrt_update_locale_info 10014ffb f   libucrt:locale_update.obj
 0001:00014028       ___acrt_update_multibyte_info 10015028 f   libucrt:locale_update.obj
 0001:00014055       ?__acrt_fp_classify@@YA?AW4__acrt_fp_class@@ABN@Z 10015055 f i libucrt:cvt.obj
 0001:000148a0       ___acrt_fp_format          100158a0 f   libucrt:cvt.obj
 0001:000149db       __fileno                   100159db f   libucrt:fileno.obj
 0001:00014a02       ___acrt_initialize_stdio   10015a02 f   libucrt:_file.obj
 0001:00014aca       ___acrt_uninitialize_stdio 10015aca f   libucrt:_file.obj
 0001:00014b16       __lock_file                10015b16 f   libucrt:_file.obj
 0001:00014b2a       __unlock_file              10015b2a f   libucrt:_file.obj
 0001:00014b3e       __get_printf_count_output  10015b3e f   libucrt:printf_count_output.obj
 0001:00014bc1       ___acrt_set_locale_changed 10015bc1 f   libucrt:wsetlocale.obj
 0001:00014bcc       ___acrt_uninitialize_locale 10015bcc f   libucrt:wsetlocale.obj
 0001:00014d5d       ___acrt_initialize_lowio   10015d5d f   libucrt:ioinit.obj
 0001:00014dbd       ___acrt_uninitialize_lowio 10015dbd f   libucrt:ioinit.obj
 0001:00014de9       ___acrt_initialize_locks   10015de9 f   libucrt:locks.obj
 0001:00014e2a       ___acrt_lock               10015e2a f   libucrt:locks.obj
 0001:00014e41       ___acrt_uninitialize_locks 10015e41 f   libucrt:locks.obj
 0001:00014e72       ___acrt_unlock             10015e72 f   libucrt:locks.obj
 0001:00014e89       ___acrt_get_process_end_policy 10015e89 f   libucrt:win_policies.obj
 0001:00015053       ??$__acrt_mbs_to_wcs_cp@U__crt_win32_buffer_internal_dynamic_resizing@@@@YAHQBDAAV?$__crt_win32_buffer@_WU__crt_win32_buffer_internal_dynamic_resizing@@@@I@Z 10016053 f i libucrt:argv_wildcards.obj
 0001:00015567       ?__acrt_get_utf8_acp_compatibility_codepage@@YAIXZ 10016567 f i libucrt:argv_wildcards.obj
 0001:000155a6       ?_deallocate@?$__crt_win32_buffer@DU__crt_win32_buffer_internal_dynamic_resizing@@@@AAEXXZ 100165a6 f i libucrt:argv_wildcards.obj
 0001:000155a6       ?_deallocate@?$__crt_win32_buffer@_WU__crt_win32_buffer_internal_dynamic_resizing@@@@AAEXXZ 100165a6 f i libucrt:argv_wildcards.obj
 0001:000155c0       ?allocate@?$__crt_win32_buffer@DU__crt_win32_buffer_internal_dynamic_resizing@@@@QAEHI@Z 100165c0 f i libucrt:argv_wildcards.obj
 0001:000155fc       ?allocate@?$__crt_win32_buffer@_WU__crt_win32_buffer_internal_dynamic_resizing@@@@QAEHI@Z 100165fc f i libucrt:argv_wildcards.obj
 0001:0001563b       ?allocate@__crt_win32_buffer_internal_dynamic_resizing@@SAHQAPAXIABV__crt_win32_buffer_empty_debug_info@@@Z 1001663b f i libucrt:argv_wildcards.obj
 0001:000156e1       ___acrt_expand_narrow_argv_wildcards 100166e1 f   libucrt:argv_wildcards.obj
 0001:000157b3       ?allocate@?$__crt_win32_buffer@DU__crt_win32_buffer_no_resizing@@@@QAEHI@Z 100167b3 f i libucrt:getmodulefilenamea.obj
 0001:000157da       ?set_to_nullptr@?$__crt_win32_buffer@DU__crt_win32_buffer_no_resizing@@@@QAEXXZ 100167da f i libucrt:getmodulefilenamea.obj
 0001:000157ee       ___acrt_GetModuleFileNameA 100167ee f   libucrt:getmodulefilenamea.obj
 0001:00015dad       ___acrt_initialize_multibyte 10016dad f   libucrt:mbctype.obj
 0001:00015df5       ___acrt_update_thread_multibyte_data 10016df5 f   libucrt:mbctype.obj
 0001:00015e08       __setmbcp_nolock           10016e08 f   libucrt:mbctype.obj
 0001:000160d3       __ismbblead                100170d3 f   libucrt:ismbbyte.obj
 0001:000160eb       ___acrt_initialize_command_line 100170eb f   libucrt:argv_data.obj
 0001:00016104       ___acrt_MultiByteToWideChar 10017104 f   libucrt:multibytetowidechar.obj
 0001:00016180       ___acrt_WideCharToMultiByte 10017180 f   libucrt:widechartomultibyte.obj
 0001:00016264       ___dcrt_get_narrow_environment_from_os 10017264 f   libucrt:get_environment_from_os.obj
 0001:000162e8       ___acrt_initialize_heap    100172e8 f   libucrt:heap_handle.obj
 0001:000162f9       ___acrt_uninitialize_heap  100172f9 f   libucrt:heap_handle.obj
 0001:00016303       ___acrt_execute_initializers 10017303 f   libucrt:shared_initialization.obj
 0001:0001636b       ___acrt_execute_uninitializers 1001736b f   libucrt:shared_initialization.obj
 0001:0001646a       ___acrt_get_sigabrt_handler 1001746a f   libucrt:signal.obj
 0001:00016491       ___acrt_initialize_signal_handlers 10017491 f   libucrt:signal.obj
 0001:000164af       ___fpecode                 100174af f   libucrt:signal.obj
 0001:000164b8       _raise                     100174b8 f   libucrt:signal.obj
 0001:000166b3       ___acrt_has_user_matherr   100176b3 f   libucrt:matherr.obj
 0001:000166cb       ___acrt_initialize_user_matherr 100176cb f   libucrt:matherr.obj
 0001:000166da       ___acrt_invoke_user_matherr 100176da f   libucrt:matherr.obj
 0001:000168e9       ___acrt_stdio_flush_nolock 100178e9 f   libucrt:fflush.obj
 0001:0001694e       __fflush_nolock            1001794e f   libucrt:fflush.obj
 0001:00016996       __flushall                 10017996 f   libucrt:fflush.obj
 0001:0001699f       ___pctype_func             1001799f f   libucrt:ctype.obj
 0001:000169c3       _iswctype                  100179c3 f   libucrt:iswctype.obj
 0001:00016a2c       ___acrt_add_locale_ref     10017a2c f   libucrt:locale_refcounting.obj
 0001:00016aa9       ___acrt_free_locale        10017aa9 f   libucrt:locale_refcounting.obj
 0001:00016bf1       ___acrt_locale_add_lc_time_reference 10017bf1 f   libucrt:locale_refcounting.obj
 0001:00016c1a       ___acrt_locale_free_lc_time_if_unreferenced 10017c1a f   libucrt:locale_refcounting.obj
 0001:00016c4b       ___acrt_locale_release_lc_time_reference 10017c4b f   libucrt:locale_refcounting.obj
 0001:00016c74       ___acrt_release_locale_ref 10017c74 f   libucrt:locale_refcounting.obj
 0001:00016cf5       ___acrt_update_thread_locale_data 10017cf5 f   libucrt:locale_refcounting.obj
 0001:00016d76       __updatetlocinfoEx_nolock  10017d76 f   libucrt:locale_refcounting.obj
 0001:00016dc6       __query_new_mode           10017dc6 f   libucrt:new_mode.obj
 0001:00016e1d       ___acrt_DownlevelLocaleNameToLCID 10017e1d f   libucrt:lcidtoname_downlevel.obj
 0001:00016e49       __isleadbyte_l             10017e49 f i libucrt:_wctype.obj
 0001:00016eaf       ?__mbrtowc_utf8@__crt_mbstring@@YAIPA_WPBDIPAU_Mbstatet@@@Z 10017eaf f   libucrt:mbrtowc.obj
 0001:00016eef       ?__mbsrtowcs_utf8@__crt_mbstring@@YAIPA_WPAPBDIPAU_Mbstatet@@@Z 10017eef f   libucrt:mbrtowc.obj
 0001:00016fea       ?return_illegal_sequence@__crt_mbstring@@YAIPAU_Mbstatet@@@Z 10017fea f i libucrt:c32rtomb.obj
 0001:00017009       ___acrt_fp_strflt_to_string 10018009 f   libucrt:_fptostr.obj
 0001:000170d0       ?divide@__crt_strtox@@YA_KAAUbig_integer@1@ABU21@@Z 100180d0 f i libucrt:cfout.obj
 0001:00017568       ___acrt_fltout             10018568 f   libucrt:cfout.obj
 0001:000188b2       __fcloseall                100198b2 f   libucrt:closeall.obj
 0001:0001895d       ___acrt_stdio_free_buffer_nolock 1001995d f   libucrt:_freebuf.obj
 0001:0001899d       __isatty                   1001999d f   libucrt:isatty.obj
 0001:000189f3       ___acrt_locale_free_monetary 100199f3 f   libucrt:initmon.obj
 0001:00018af1       ___acrt_locale_free_numeric 10019af1 f   libucrt:initnum.obj
 0001:00018b92       ___acrt_locale_free_time   10019b92 f   libucrt:inittime.obj
 0001:00018c76       ___acrt_GetStringTypeA     10019c76 f   libucrt:getstringtypea.obj
 0001:00018d79       __freea_crt                10019d79 f i libucrt:getstringtypea.obj
 0001:00018d99       ___acrt_lowio_create_handle_array 10019d99 f   libucrt:osfinfo.obj
 0001:00018e14       ___acrt_lowio_destroy_handle_array 10019e14 f   libucrt:osfinfo.obj
 0001:00018e49       ___acrt_lowio_ensure_fh_exists 10019e49 f   libucrt:osfinfo.obj
 0001:00018ee7       ___acrt_lowio_lock_fh      10019ee7 f   libucrt:osfinfo.obj
 0001:00018f0a       ___acrt_lowio_unlock_fh    10019f0a f   libucrt:osfinfo.obj
 0001:00018f2d       __free_osfhnd              10019f2d f   libucrt:osfinfo.obj
 0001:00018fbe       __get_osfhandle            10019fbe f   libucrt:osfinfo.obj
 0001:00019070       _qsort                     1001a070 f   libucrt:qsort.obj
 0001:00019567       _strncpy_s                 1001a567 f   libucrt:strncpy_s.obj
 0001:00019580       _strpbrk                   1001a580 f   libucrt:strpbrk.obj
 0001:000195c0       __mbsdec                   1001a5c0 f   libucrt:mbsdec.obj
 0001:000195d7       __mbsdec_l                 1001a5d7 f   libucrt:mbsdec.obj
 0001:0001984e       ___acrt_LCMapStringA       1001a84e f   libucrt:lcmapstringa.obj
 0001:00019948       __commit                   1001a948 f   libucrt:commit.obj
 0001:0001a13e       __write                    1001b13e f   libucrt:write.obj
 0001:0001a230       __write_nolock             1001b230 f   libucrt:write.obj
 0001:0001a412       ___acrt_GetStringTypeW     1001b412 f   libucrt:getstringtypew.obj
 0001:0001a42b       ___ascii_wcsnicmp          1001b42b f   libucrt:wcsnicmp.obj
 0001:0001a47a       ?__mbrtoc32_utf8@__crt_mbstring@@YAIPA_UPBDIPAU_Mbstatet@@@Z 1001b47a f   libucrt:mbrtoc32.obj
 0001:0001a621       _fegetenv                  1001b621 f   libucrt:fegetenv.obj
 0001:0001a63e       _fesetenv                  1001b63e f   libucrt:fesetenv.obj
 0001:0001a689       _feholdexcept              1001b689 f   libucrt:feholdexcept.obj
 0001:0001a6e0       __CIlog10                  1001b6e0 f   libucrt:log10_impl.obj
 0001:0001a71b       __CIlog10_default          1001b71b f   libucrt:log10_impl.obj
 0001:0001a72f       __log10_default            1001b72f     libucrt:log10_impl.obj
 0001:0001a7f0       _ceil                      1001b7f0 f   libucrt:ceil_pentium4.obj
 0001:0001a830       __ceil_pentium4            1001b830 f   libucrt:ceil_pentium4.obj
 0001:0001a989       __lseeki64_nolock          1001b989 f   libucrt:lseek.obj
 0001:0001a9a4       __fclose_nolock            1001b9a4 f   libucrt:fclose.obj
 0001:0001aa1b       _fclose                    1001ba1b f   libucrt:fclose.obj
 0001:0001aa9f       __query_app_type           1001ba9f f   libucrt:report_runtime_error.obj
 0001:0001aaa5       ___strncnt                 1001baa5 f   libucrt:strncnt.obj
 0001:0001aac1       __putwch_nolock            1001bac1 f   libucrt:putwch.obj
 0001:0001ae00       ___acrt_fenv_get_control   1001be00 f   libucrt:_fenvutils.obj
 0001:0001ae80       ___acrt_fenv_get_status    1001be80 f   libucrt:_fenvutils.obj
 0001:0001af38       ___acrt_fenv_set_control   1001bf38 f   libucrt:_fenvutils.obj
 0001:0001afa0       ___acrt_fenv_set_status    1001bfa0 f   libucrt:_fenvutils.obj
 0001:0001b097       __clearfp                  1001c097 f   libucrt:ieee87.obj
 0001:0001b175       ___acrt_initialize_sse2    1001c175 f   libucrt:mathfcns.obj
 0001:0001b190       __CIlog10_pentium4         1001c190 f   libucrt:log10_pentium4.obj
 0001:0001b1a8       __log10_pentium4           1001c1a8     libucrt:log10_pentium4.obj
 0001:0001b440       __fFEXP                    1001c440 f   libucrt:87tran.obj
 0001:0001b497       __rtinfpopse               1001c497     libucrt:87tran.obj
 0001:0001b499       __rtinfnpopse              1001c499     libucrt:87tran.obj
 0001:0001b4a9       __fFLN                     1001c4a9     libucrt:87tran.obj
 0001:0001b55e       __rtinfpop                 1001c55e     libucrt:87tran.obj
 0001:0001b560       __rtinfnpop                1001c560     libucrt:87tran.obj
 0001:0001b570       __rtforexpinf              1001c570 f   libucrt:87tran.obj
 0001:0001b57d       __ffexpm1                  1001c57d     libucrt:87tran.obj
 0001:0001b630       __trandisp1                1001c630 f   libucrt:87disp.obj
 0001:0001b6a5       __trandisp2                1001c6a5 f   libucrt:87disp.obj
 0001:0001b73f       __rttospopde               1001c73f     libucrt:87disp.obj
 0001:0001b744       __rttospop                 1001c744     libucrt:87disp.obj
 0001:0001b750       __rtnospop                 1001c750 f   libucrt:87disp.obj
 0001:0001b760       __rttosnpop                1001c760 f   libucrt:87disp.obj
 0001:0001b761       __rtnospopde               1001c761     libucrt:87disp.obj
 0001:0001b768       __rtzeropop                1001c768     libucrt:87disp.obj
 0001:0001b76a       __rtzeronpop               1001c76a     libucrt:87disp.obj
 0001:0001b770       __rtzerospop               1001c770 f   libucrt:87disp.obj
 0001:0001b77d       __rtonepop                 1001c77d     libucrt:87disp.obj
 0001:0001b780       __rtonenpop                1001c780 f   libucrt:87disp.obj
 0001:0001b790       __tosnan1                  1001c790 f   libucrt:87disp.obj
 0001:0001b7c0       __nosnan2                  1001c7c0 f   libucrt:87disp.obj
 0001:0001b7d0       __tosnan2                  1001c7d0 f   libucrt:87disp.obj
 0001:0001b800       __nan2                     1001c800 f   libucrt:87disp.obj
 0001:0001b840       __rtindfpop                1001c840 f   libucrt:87disp.obj
 0001:0001b842       __rtindfnpop               1001c842     libucrt:87disp.obj
 0001:0001b853       __rttosnpopde              1001c853     libucrt:87disp.obj
 0001:0001b860       __rtatan2inf               1001c860 f   libucrt:87disp.obj
 0001:0001b87d       __rtchsifneg               1001c87d     libucrt:87disp.obj
 0001:0001b890       __twoToTOS                 1001c890 f   libucrt:common.obj
 0001:0001b8a5       __load_CW                  1001c8a5 f   libucrt:common.obj
 0001:0001b8bc       __convertTOStoQNaN         1001c8bc f   libucrt:common.obj
 0001:0001b8d5       __fload_withFB             1001c8d5 f   libucrt:common.obj
 0001:0001b918       __checkTOS_withFB          1001c918 f   libucrt:common.obj
 0001:0001b92e       __fast_exit                1001c92e f   libucrt:common.obj
 0001:0001b93b       __math_exit                1001c93b f   libucrt:common.obj
 0001:0001b965       __check_overflow_exit      1001c965 f   libucrt:common.obj
 0001:0001b979       __check_range_exit         1001c979 f   libucrt:common.obj
 0001:0001ba20       __startTwoArgErrorHandling 1001ca20 f   libucrt:genexcep.obj
 0001:0001ba37       __startOneArgErrorHandling 1001ca37 f   libucrt:genexcep.obj
 0001:0001ba73       ___libm_error_support      1001ca73 f   libucrt:libm_error.obj
 0001:0001bc67       __ceil_default             1001cc67 f   libucrt:ceil.obj
 0001:0001bda8       __close                    1001cda8 f   libucrt:close.obj
 0001:0001be35       __close_nolock             1001ce35 f   libucrt:close.obj
 0001:0001bed1       ?__acrt_stdio_free_stream@@YAXV__crt_stdio_stream@@@Z 1001ced1 f   libucrt:stream.obj
 0001:0001bf10       ___ascii_strnicmp          1001cf10 f   libucrt:_strnicm.obj
 0001:0001bf90       ___dcrt_lowio_ensure_console_output_initialized 1001cf90 f   libucrt:initcon.obj
 0001:0001bfaf       ___dcrt_terminate_console_output 1001cfaf f   libucrt:initcon.obj
 0001:0001bfc6       ___dcrt_write_console      1001cfc6 f   libucrt:initcon.obj
 0001:0001c01b       __clrfp                    1001d01b f   libucrt:fpctrl.obj
 0001:0001c02c       __ctrlfp                   1001d02c f   libucrt:fpctrl.obj
 0001:0001c056       __set_statfp               1001d056 f   libucrt:fpctrl.obj
 0001:0001c0af       __statfp                   1001d0af f   libucrt:fpctrl.obj
 0001:0001c0bf       __d_inttype                1001d0bf f   libucrt:powhlp.obj
 0001:0001c127       __powhlp                   1001d127 f   libucrt:powhlp.obj
 0001:0001c252       __87except                 1001d252 f   libucrt:87except.obj
 0001:0001c35c       __frnd                     1001d35c f   libucrt:frnd.obj
 0001:0001c370       __errcode                  1001d370 f   libucrt:fpexcept.obj
 0001:0001c3a4       __except1                  1001d3a4 f   libucrt:fpexcept.obj
 0001:0001c472       __handle_exc               1001d472 f   libucrt:fpexcept.obj
 0001:0001c65d       __raise_exc                1001d65d f   libucrt:fpexcept.obj
 0001:0001c680       __raise_exc_ex             1001d680 f   libucrt:fpexcept.obj
 0001:0001c976       __set_errno_from_matherr   1001d976 f   libucrt:fpexcept.obj
 0001:0001c9a5       __umatherr                 1001d9a5 f   libucrt:fpexcept.obj
 0001:0001ca45       __decomp                   1001da45 f   libucrt:util.obj
 0001:0001cb17       __set_exp                  1001db17 f   libucrt:util.obj
 0001:0001cb44       __sptype                   1001db44 f   libucrt:util.obj
 0001:0001cba2       __fpclass                  1001dba2 f   libucrt:ieeemisc.obj
 0001:0001cc46       _IsProcessorFeaturePresent@4 1001dc46 f   kernel32:KERNEL32.dll
 0001:0001cc50       __FindPESection            1001dc50 f   LIBCMT:pesect.obj
 0001:0001cca0       __IsNonwritableInCurrentImage 1001dca0 f   LIBCMT:pesect.obj
 0001:0001cd60       __ValidateImageBase        1001dd60 f   LIBCMT:pesect.obj
 0001:0001cd93       __EH_prolog3_catch         1001dd93 f   LIBCMT:ehprolg3.obj
 0001:0001cdd0       __aulldvrm                 1001ddd0 f   LIBCMT:ulldvrm.obj
 0001:0001ce70       __allmul                   1001de70 f   LIBCMT:llmul.obj
 0001:0001ceb0       __alldvrm                  1001deb0 f   LIBCMT:lldvrm.obj
 0001:0001cf90       __aullshr                  1001df90 f   LIBCMT:ullshr.obj
 0001:0001cfb0       __allshl                   1001dfb0 f   LIBCMT:llshl.obj
 0001:0001cfd0       __ftol2_sse                1001dfd0     LIBCMT:ftol2.obj
 0001:0001cfd0       __ftoi2                    1001dfd0 f   LIBCMT:ftol2.obj
 0001:0001cfd0       __ftol2_sse_excpt          1001dfd0     LIBCMT:ftol2.obj
 0001:0001d050       __ftoui2                   1001e050 f   LIBCMT:ftol2.obj
 0001:0001d100       __ftol2                    1001e100 f   LIBCMT:ftol2.obj
 0001:0001d1b0       __ftoul2                   1001e1b0 f   LIBCMT:ftol2.obj
 0001:0001d270       _strrchr                   1001e270 f   libvcruntime:strrchr.obj
 0001:0001d3b0       _strchr                    1001e3b0 f   libvcruntime:strchr.obj
 0001:0001d41e       ___from_strstr_to_strchr   1001e41e     libvcruntime:strchr.obj
 0001:0001d4db       __filter_x86_sse2_floating_point_exception 1001e4db f   LIBCMT:x86_exception_filter.obj
 0001:0001d4db       __filter_x86_sse2_floating_point_exception_default 1001e4db f   LIBCMT:x86_exception_filter.obj
 0002:00000000       __imp__RegQueryValueExW@24 1001f000     advapi32:ADVAPI32.dll
 0002:00000004       __imp__RegSetValueExW@24   1001f004     advapi32:ADVAPI32.dll
 0002:00000008       __imp__RegQueryInfoKeyW@48 1001f008     advapi32:ADVAPI32.dll
 0002:0000000c       __imp__RegOpenKeyExW@20    1001f00c     advapi32:ADVAPI32.dll
 0002:00000010       __imp__RegEnumKeyExW@32    1001f010     advapi32:ADVAPI32.dll
 0002:00000014       __imp__RegDeleteValueW@8   1001f014     advapi32:ADVAPI32.dll
 0002:00000018       __imp__RegDeleteKeyW@8     1001f018     advapi32:ADVAPI32.dll
 0002:0000001c       __imp__RegCreateKeyExW@36  1001f01c     advapi32:ADVAPI32.dll
 0002:00000020       __imp__RegCloseKey@4       1001f020     advapi32:ADVAPI32.dll
 0002:00000024       \177ADVAPI32_NULL_THUNK_DATA 1001f024     advapi32:ADVAPI32.dll
 0002:00000028       __imp__GetObjectW@12       1001f028     gdi32:GDI32.dll
 0002:0000002c       __imp__SelectObject@8      1001f02c     gdi32:GDI32.dll
 0002:00000030       __imp__DeleteObject@4      1001f030     gdi32:GDI32.dll
 0002:00000034       __imp__CreateCompatibleDC@4 1001f034     gdi32:GDI32.dll
 0002:00000038       __imp__BitBlt@36           1001f038     gdi32:GDI32.dll
 0002:0000003c       __imp__SetWindowOrgEx@16   1001f03c     gdi32:GDI32.dll
 0002:00000040       __imp__SetWindowExtEx@16   1001f040     gdi32:GDI32.dll
 0002:00000044       __imp__SetViewportOrgEx@16 1001f044     gdi32:GDI32.dll
 0002:00000048       __imp__LPtoDP@12           1001f048     gdi32:GDI32.dll
 0002:0000004c       __imp__SetMapMode@8        1001f04c     gdi32:GDI32.dll
 0002:00000050       __imp__SaveDC@4            1001f050     gdi32:GDI32.dll
 0002:00000054       __imp__RestoreDC@8         1001f054     gdi32:GDI32.dll
 0002:00000058       __imp__GetDeviceCaps@8     1001f058     gdi32:GDI32.dll
 0002:0000005c       __imp__DeleteMetaFile@4    1001f05c     gdi32:GDI32.dll
 0002:00000060       __imp__DeleteDC@4          1001f060     gdi32:GDI32.dll
 0002:00000064       __imp__CreateRectRgnIndirect@4 1001f064     gdi32:GDI32.dll
 0002:00000068       __imp__CreateMetaFileW@4   1001f068     gdi32:GDI32.dll
 0002:0000006c       __imp__CreateDCW@16        1001f06c     gdi32:GDI32.dll
 0002:00000070       __imp__CloseMetaFile@4     1001f070     gdi32:GDI32.dll
 0002:00000074       \177GDI32_NULL_THUNK_DATA  1001f074     gdi32:GDI32.dll
 0002:00000078       __imp__CloseHandle@4       1001f078     kernel32:KERNEL32.dll
 0002:0000007c       __imp__SetEvent@4          1001f07c     kernel32:KERNEL32.dll
 0002:00000080       __imp__CreateMutexW@12     1001f080     kernel32:KERNEL32.dll
 0002:00000084       __imp__CreateEventW@16     1001f084     kernel32:KERNEL32.dll
 0002:00000088       __imp__GetCurrentProcessId@0 1001f088     kernel32:KERNEL32.dll
 0002:0000008c       __imp__CreateFileW@28      1001f08c     kernel32:KERNEL32.dll
 0002:00000090       __imp__GetConsoleMode@8    1001f090     kernel32:KERNEL32.dll
 0002:00000094       __imp__GetConsoleCP@0      1001f094     kernel32:KERNEL32.dll
 0002:00000098       __imp__WriteFile@20        1001f098     kernel32:KERNEL32.dll
 0002:0000009c       __imp__FlushFileBuffers@4  1001f09c     kernel32:KERNEL32.dll
 0002:000000a0       __imp__SetStdHandle@8      1001f0a0     kernel32:KERNEL32.dll
 0002:000000a4       __imp__GetStringTypeW@16   1001f0a4     kernel32:KERNEL32.dll
 0002:000000a8       __imp__SetFilePointerEx@20 1001f0a8     kernel32:KERNEL32.dll
 0002:000000ac       __imp__FreeEnvironmentStringsW@4 1001f0ac     kernel32:KERNEL32.dll
 0002:000000b0       __imp__GetEnvironmentStringsW@0 1001f0b0     kernel32:KERNEL32.dll
 0002:000000b4       __imp__lstrcmpiW@8         1001f0b4     kernel32:KERNEL32.dll
 0002:000000b8       __imp__GetCommandLineA@0   1001f0b8     kernel32:KERNEL32.dll
 0002:000000bc       __imp__GetCPInfo@8         1001f0bc     kernel32:KERNEL32.dll
 0002:000000c0       __imp__GetOEMCP@0          1001f0c0     kernel32:KERNEL32.dll
 0002:000000c4       __imp__GetACP@0            1001f0c4     kernel32:KERNEL32.dll
 0002:000000c8       __imp__IsValidCodePage@4   1001f0c8     kernel32:KERNEL32.dll
 0002:000000cc       __imp__FindNextFileW@8     1001f0cc     kernel32:KERNEL32.dll
 0002:000000d0       __imp__FindFirstFileExW@24 1001f0d0     kernel32:KERNEL32.dll
 0002:000000d4       __imp__FindClose@4         1001f0d4     kernel32:KERNEL32.dll
 0002:000000d8       __imp__GetFileType@4       1001f0d8     kernel32:KERNEL32.dll
 0002:000000dc       __imp__GetStdHandle@4      1001f0dc     kernel32:KERNEL32.dll
 0002:000000e0       __imp__LCMapStringW@24     1001f0e0     kernel32:KERNEL32.dll
 0002:000000e4       __imp__HeapReAlloc@16      1001f0e4     kernel32:KERNEL32.dll
 0002:000000e8       __imp__HeapSize@12         1001f0e8     kernel32:KERNEL32.dll
 0002:000000ec       __imp__MulDiv@12           1001f0ec     kernel32:KERNEL32.dll
 0002:000000f0       __imp__GlobalLock@4        1001f0f0     kernel32:KERNEL32.dll
 0002:000000f4       __imp__GlobalUnlock@4      1001f0f4     kernel32:KERNEL32.dll
 0002:000000f8       __imp__GlobalAlloc@8       1001f0f8     kernel32:KERNEL32.dll
 0002:000000fc       __imp__FindResourceW@12    1001f0fc     kernel32:KERNEL32.dll
 0002:00000100       __imp__SizeofResource@8    1001f100     kernel32:KERNEL32.dll
 0002:00000104       __imp__LoadResource@8      1001f104     kernel32:KERNEL32.dll
 0002:00000108       __imp__LoadLibraryExW@12   1001f108     kernel32:KERNEL32.dll
 0002:0000010c       __imp__GetProcAddress@8    1001f10c     kernel32:KERNEL32.dll
 0002:00000110       __imp__GetModuleHandleW@4  1001f110     kernel32:KERNEL32.dll
 0002:00000114       __imp__GetModuleFileNameW@12 1001f114     kernel32:KERNEL32.dll
 0002:00000118       __imp__FreeLibrary@4       1001f118     kernel32:KERNEL32.dll
 0002:0000011c       __imp__DisableThreadLibraryCalls@4 1001f11c     kernel32:KERNEL32.dll
 0002:00000120       __imp__GetCurrentThreadId@0 1001f120     kernel32:KERNEL32.dll
 0002:00000124       __imp__Sleep@4             1001f124     kernel32:KERNEL32.dll
 0002:00000128       __imp__WaitForSingleObject@8 1001f128     kernel32:KERNEL32.dll
 0002:0000012c       __imp__ReleaseMutex@4      1001f12c     kernel32:KERNEL32.dll
 0002:00000130       __imp__ResetEvent@4        1001f130     kernel32:KERNEL32.dll
 0002:00000134       __imp__EnterCriticalSection@4 1001f134     kernel32:KERNEL32.dll
 0002:00000138       __imp__LeaveCriticalSection@4 1001f138     kernel32:KERNEL32.dll
 0002:0000013c       __imp__SetLastError@4      1001f13c     kernel32:KERNEL32.dll
 0002:00000140       __imp__EncodePointer@4     1001f140     kernel32:KERNEL32.dll
 0002:00000144       __imp__DeleteCriticalSection@4 1001f144     kernel32:KERNEL32.dll
 0002:00000148       __imp__InitializeCriticalSectionEx@12 1001f148     kernel32:KERNEL32.dll
 0002:0000014c       __imp__GetLastError@0      1001f14c     kernel32:KERNEL32.dll
 0002:00000150       __imp__RaiseException@16   1001f150     kernel32:KERNEL32.dll
 0002:00000154       __imp__DecodePointer@4     1001f154     kernel32:KERNEL32.dll
 0002:00000158       __imp__WideCharToMultiByte@32 1001f158     kernel32:KERNEL32.dll
 0002:0000015c       __imp__GetCommandLineW@0   1001f15c     kernel32:KERNEL32.dll
 0002:00000160       __imp__MultiByteToWideChar@24 1001f160     kernel32:KERNEL32.dll
 0002:00000164       __imp__WriteConsoleW@20    1001f164     kernel32:KERNEL32.dll
 0002:00000168       __imp__GetModuleHandleExW@12 1001f168     kernel32:KERNEL32.dll
 0002:0000016c       __imp__ExitProcess@4       1001f16c     kernel32:KERNEL32.dll
 0002:00000170       __imp__VirtualQuery@12     1001f170     kernel32:KERNEL32.dll
 0002:00000174       __imp__VirtualProtect@16   1001f174     kernel32:KERNEL32.dll
 0002:00000178       __imp__GetSystemInfo@4     1001f178     kernel32:KERNEL32.dll
 0002:0000017c       __imp__TlsFree@4           1001f17c     kernel32:KERNEL32.dll
 0002:00000180       __imp__TlsSetValue@8       1001f180     kernel32:KERNEL32.dll
 0002:00000184       __imp__TlsGetValue@4       1001f184     kernel32:KERNEL32.dll
 0002:00000188       __imp__TlsAlloc@0          1001f188     kernel32:KERNEL32.dll
 0002:0000018c       __imp__InterlockedFlushSList@4 1001f18c     kernel32:KERNEL32.dll
 0002:00000190       __imp__RtlUnwind@16        1001f190     kernel32:KERNEL32.dll
 0002:00000194       __imp__LoadLibraryExA@12   1001f194     kernel32:KERNEL32.dll
 0002:00000198       __imp__VirtualFree@12      1001f198     kernel32:KERNEL32.dll
 0002:0000019c       __imp__VirtualAlloc@16     1001f19c     kernel32:KERNEL32.dll
 0002:000001a0       __imp__FlushInstructionCache@12 1001f1a0     kernel32:KERNEL32.dll
 0002:000001a4       __imp__InterlockedPushEntrySList@8 1001f1a4     kernel32:KERNEL32.dll
 0002:000001a8       __imp__InterlockedPopEntrySList@4 1001f1a8     kernel32:KERNEL32.dll
 0002:000001ac       __imp__GetProcessHeap@0    1001f1ac     kernel32:KERNEL32.dll
 0002:000001b0       __imp__HeapFree@12         1001f1b0     kernel32:KERNEL32.dll
 0002:000001b4       __imp__HeapAlloc@12        1001f1b4     kernel32:KERNEL32.dll
 0002:000001b8       __imp__OutputDebugStringW@4 1001f1b8     kernel32:KERNEL32.dll
 0002:000001bc       __imp__InitializeSListHead@4 1001f1bc     kernel32:KERNEL32.dll
 0002:000001c0       __imp__GetSystemTimeAsFileTime@4 1001f1c0     kernel32:KERNEL32.dll
 0002:000001c4       __imp__QueryPerformanceCounter@4 1001f1c4     kernel32:KERNEL32.dll
 0002:000001c8       __imp__GetStartupInfoW@4   1001f1c8     kernel32:KERNEL32.dll
 0002:000001cc       __imp__IsDebuggerPresent@0 1001f1cc     kernel32:KERNEL32.dll
 0002:000001d0       __imp__IsProcessorFeaturePresent@4 1001f1d0     kernel32:KERNEL32.dll
 0002:000001d4       __imp__TerminateProcess@8  1001f1d4     kernel32:KERNEL32.dll
 0002:000001d8       __imp__GetCurrentProcess@0 1001f1d8     kernel32:KERNEL32.dll
 0002:000001dc       __imp__SetUnhandledExceptionFilter@4 1001f1dc     kernel32:KERNEL32.dll
 0002:000001e0       __imp__UnhandledExceptionFilter@4 1001f1e0     kernel32:KERNEL32.dll
 0002:000001e4       __imp__InitializeCriticalSectionAndSpinCount@8 1001f1e4     kernel32:KERNEL32.dll
 0002:000001e8       __imp__WaitForSingleObjectEx@12 1001f1e8     kernel32:KERNEL32.dll
 0002:000001ec       \177KERNEL32_NULL_THUNK_DATA 1001f1ec     kernel32:KERNEL32.dll
 0002:000001f0       __imp__OleCreatePropertyFrame@44 1001f1f0     oleaut32:OLEAUT32.dll
 0002:000001f4       __imp__UnRegisterTypeLib@20 1001f1f4     oleaut32:OLEAUT32.dll
 0002:000001f8       __imp__RegisterTypeLib@12  1001f1f8     oleaut32:OLEAUT32.dll
 0002:000001fc       __imp__LoadRegTypeLib@20   1001f1fc     oleaut32:OLEAUT32.dll
 0002:00000200       __imp__LoadTypeLib@8       1001f200     oleaut32:OLEAUT32.dll
 0002:00000204       __imp__VarUI4FromStr@16    1001f204     oleaut32:OLEAUT32.dll
 0002:00000208       __imp__VariantInit@4       1001f208     oleaut32:OLEAUT32.dll
 0002:0000020c       __imp__SysAllocStringByteLen@8 1001f20c     oleaut32:OLEAUT32.dll
 0002:00000210       __imp__SysStringByteLen@4  1001f210     oleaut32:OLEAUT32.dll
 0002:00000214       __imp__VariantChangeType@16 1001f214     oleaut32:OLEAUT32.dll
 0002:00000218       __imp__VariantClear@4      1001f218     oleaut32:OLEAUT32.dll
 0002:0000021c       __imp__SysStringLen@4      1001f21c     oleaut32:OLEAUT32.dll
 0002:00000220       __imp__SysFreeString@4     1001f220     oleaut32:OLEAUT32.dll
 0002:00000224       __imp__SysAllocStringLen@8 1001f224     oleaut32:OLEAUT32.dll
 0002:00000228       __imp__SysAllocString@4    1001f228     oleaut32:OLEAUT32.dll
 0002:0000022c       \177OLEAUT32_NULL_THUNK_DATA 1001f22c     oleaut32:OLEAUT32.dll
 0002:00000230       __imp__UnregisterClassW@8  1001f230     user32:USER32.dll
 0002:00000234       __imp__PostMessageW@16     1001f234     user32:USER32.dll
 0002:00000238       __imp__DefWindowProcW@16   1001f238     user32:USER32.dll
 0002:0000023c       __imp__CallWindowProcW@20  1001f23c     user32:USER32.dll
 0002:00000240       __imp__RegisterClassExW@4  1001f240     user32:USER32.dll
 0002:00000244       __imp__GetClassInfoExW@12  1001f244     user32:USER32.dll
 0002:00000248       __imp__CreateWindowExW@48  1001f248     user32:USER32.dll
 0002:0000024c       __imp__IsWindow@4          1001f24c     user32:USER32.dll
 0002:00000250       __imp__IsChild@8           1001f250     user32:USER32.dll
 0002:00000254       __imp__DestroyWindow@4     1001f254     user32:USER32.dll
 0002:00000258       __imp__ShowWindow@8        1001f258     user32:USER32.dll
 0002:0000025c       __imp__SetWindowPos@28     1001f25c     user32:USER32.dll
 0002:00000260       __imp__CharNextW@4         1001f260     user32:USER32.dll
 0002:00000264       __imp__SetFocus@4          1001f264     user32:USER32.dll
 0002:00000268       __imp__LoadBitmapW@8       1001f268     user32:USER32.dll
 0002:0000026c       __imp__RegisterClassW@4    1001f26c     user32:USER32.dll
 0002:00000270       __imp__PeekMessageW@20     1001f270     user32:USER32.dll
 0002:00000274       __imp__LoadCursorW@8       1001f274     user32:USER32.dll
 0002:00000278       __imp__GetParent@4         1001f278     user32:USER32.dll
 0002:0000027c       __imp__SetWindowLongW@12   1001f27c     user32:USER32.dll
 0002:00000280       __imp__GetWindowLongW@8    1001f280     user32:USER32.dll
 0002:00000284       __imp__PtInRect@12         1001f284     user32:USER32.dll
 0002:00000288       __imp__EqualRect@8         1001f288     user32:USER32.dll
 0002:0000028c       __imp__OffsetRect@12       1001f28c     user32:USER32.dll
 0002:00000290       __imp__UnionRect@12        1001f290     user32:USER32.dll
 0002:00000294       __imp__IntersectRect@12    1001f294     user32:USER32.dll
 0002:00000298       __imp__GetClientRect@8     1001f298     user32:USER32.dll
 0002:0000029c       __imp__InvalidateRect@12   1001f29c     user32:USER32.dll
 0002:000002a0       __imp__SetWindowRgn@12     1001f2a0     user32:USER32.dll
 0002:000002a4       __imp__EndPaint@8          1001f2a4     user32:USER32.dll
 0002:000002a8       __imp__BeginPaint@8        1001f2a8     user32:USER32.dll
 0002:000002ac       __imp__ReleaseDC@8         1001f2ac     user32:USER32.dll
 0002:000002b0       __imp__GetDC@4             1001f2b0     user32:USER32.dll
 0002:000002b4       __imp__GetKeyState@4       1001f2b4     user32:USER32.dll
 0002:000002b8       __imp__GetFocus@0          1001f2b8     user32:USER32.dll
 0002:000002bc       \177USER32_NULL_THUNK_DATA 1001f2bc     user32:USER32.dll
 0002:000002c0       __imp__StringFromGUID2@12  1001f2c0     ole32:ole32.dll
 0002:000002c4       __imp__CoTaskMemAlloc@4    1001f2c4     ole32:ole32.dll
 0002:000002c8       __imp__CoTaskMemRealloc@8  1001f2c8     ole32:ole32.dll
 0002:000002cc       __imp__CoTaskMemFree@4     1001f2cc     ole32:ole32.dll
 0002:000002d0       __imp__ReadClassStm@8      1001f2d0     ole32:ole32.dll
 0002:000002d4       __imp__WriteClassStm@8     1001f2d4     ole32:ole32.dll
 0002:000002d8       __imp__CreateDataAdviseHolder@4 1001f2d8     ole32:ole32.dll
 0002:000002dc       __imp__OleSaveToStream@8   1001f2dc     ole32:ole32.dll
 0002:000002e0       __imp__CreateOleAdviseHolder@4 1001f2e0     ole32:ole32.dll
 0002:000002e4       __imp__OleRegGetUserType@12 1001f2e4     ole32:ole32.dll
 0002:000002e8       __imp__OleRegGetMiscStatus@12 1001f2e8     ole32:ole32.dll
 0002:000002ec       __imp__OleRegEnumVerbs@8   1001f2ec     ole32:ole32.dll
 0002:000002f0       __imp__CLSIDFromProgID@8   1001f2f0     ole32:ole32.dll
 0002:000002f4       __imp__CoCreateInstance@20 1001f2f4     ole32:ole32.dll
 0002:000002f8       \177ole32_NULL_THUNK_DATA  1001f2f8     ole32:ole32.dll
 0002:000002fc       ___guard_check_icall_fptr  1001f2fc     LIBCMT:guard_support.obj
 0002:00000300       ___xc_a                    1001f300     LIBCMT:initializers.obj
 0002:00000318       ___xc_z                    1001f318     LIBCMT:initializers.obj
 0002:0000031c       ___xi_a                    1001f31c     LIBCMT:initializers.obj
 0002:00000324       ___acrt_stdio_initializer  1001f324     libucrt:stdio_initializer.obj
 0002:00000328       ___acrt_multibyte_initializer 1001f328     libucrt:multibyte_initializer.obj
 0002:0000032c       ___acrt_tran_sse2_initializer 1001f32c     libucrt:sse2_initializer.obj
 0002:00000330       ___xi_z                    1001f330     LIBCMT:initializers.obj
 0002:00000334       ___xl_a                    1001f334     LIBCMT:tlssup.obj
 0002:00000338       ___xl_z                    1001f338     LIBCMT:tlssup.obj
 0002:0000033c       ___xp_a                    1001f33c     LIBCMT:initializers.obj
 0002:00000340       ___acrt_locale_terminator  1001f340     libucrt:locale_initializer.obj
 0002:00000344       ___dcrt_console_output_terminator 1001f344     libucrt:console_output_initializer.obj
 0002:00000348       ___acrt_stdio_terminator   1001f348     libucrt:stdio_initializer.obj
 0002:0000034c       ___xp_z                    1001f34c     LIBCMT:initializers.obj
 0002:00000350       ___xt_a                    1001f350     LIBCMT:initializers.obj
 0002:00000354       ___xt_z                    1001f354     LIBCMT:initializers.obj
 0002:00000360       ??_C@_13HADIAKP@?$AAS@     1001f360     OposVariant.obj
 0002:00000364       ??_C@_13LHMFKAAD@?$AAM@    1001f364     OposVariant.obj
 0002:00000368       ??_C@_13MKMNOPIJ@?$AAD@    1001f368     OposVariant.obj
 0002:0000036c       ??_C@_13OPKGLAFF@?$AAB@    1001f36c     OposVariant.obj
 0002:00000370       ??_C@_17LLMMEOJD@?$AAV?$AAa?$AAl@ 1001f370     OposVariant.obj
 0002:00000378       ??_C@_1BI@JFAIJMHL@?$AAF?$AAo?$AAr?$AAc?$AAe?$AAR?$AAe?$AAm?$AAo?$AAv?$AAe@ 1001f378     OposVariant.obj
 0002:00000390       ??_C@_1BC@GCKHIPE@?$AAN?$AAo?$AAR?$AAe?$AAm?$AAo?$AAv?$AAe@ 1001f390     OposVariant.obj
 0002:000003a4       ??_C@_1O@JDLOHAN@?$AAD?$AAe?$AAl?$AAe?$AAt?$AAe@ 1001f3a4     OposVariant.obj
 0002:000003b4       ??_C@_11LOCGONAA@@         1001f3b4     OposVariant.obj
 0002:000003b8       ??_7CComClassFactory@ATL@@6B@ 1001f3b8     CashDrawer.obj
 0002:000003d0       ?_entries@?1??_GetEntries@CComClassFactory@ATL@@SGPBU_ATL_INTMAP_ENTRY@3@XZ@4QBU43@B 1001f3d0     CashDrawer.obj
 0002:000003e8       __GUID_00000001_0000_0000_c000_000000000046 1001f3e8     CashDrawer.obj
 0002:000003f8       _IID_IOPOSCashDrawer_1_5   1001f3f8     CashDrawer.obj
 0002:00000408       _IID_IOPOSCashDrawer_1_8   1001f408     CashDrawer.obj
 0002:00000418       _IID_IOPOSCashDrawer_1_9   1001f418     CashDrawer.obj
 0002:00000428       _IID_IOPOSCashDrawer       1001f428     CashDrawer.obj
 0002:00000438       _LIBID_OposCashDrawer_CCO  1001f438     CashDrawer.obj
 0002:00000448       _DIID__IOPOSCashDrawerEvents 1001f448     CashDrawer.obj
 0002:00000458       _CLSID_OPOSCashDrawer      1001f458     CashDrawer.obj
 0002:00000468       __GUID_00000114_0000_0000_c000_000000000046 1001f468     CashDrawer.obj
 0002:00000478       ??_C@_1BK@BIGILECK@?$AAA?$AAd?$AAv?$AAa?$AAp?$AAi?$AA3?$AA2?$AA?4?$AAd?$AAl?$AAl@ 1001f478     CashDrawer.obj
 0002:00000494       ??_C@_0BI@MNCFCPFK@RegCreateKeyTransactedW@ 1001f494     CashDrawer.obj
 0002:000004ac       __GUID_b196b287_bab4_101a_b69c_00aa00341d07 1001f4ac     CashDrawer.obj
 0002:000004bc       __GUID_b196b285_bab4_101a_b69c_00aa00341d07 1001f4bc     CashDrawer.obj
 0002:000004cc       __GUID_a6bc3ac0_dbaa_11ce_9de3_00aa004bb851 1001f4cc     CashDrawer.obj
 0002:000004dc       __GUID_0000010c_0000_0000_c000_000000000046 1001f4dc     CashDrawer.obj
 0002:000004f0       ?_entries@?1??_GetEntries@COPOSCashDrawer@@SGPBU_ATL_INTMAP_ENTRY@ATL@@XZ@4QBU34@B 1001f4f0     CashDrawer.obj
 0002:00000628       __GUID_00000146_0000_0000_c000_000000000046 1001f628     CashDrawer.obj
 0002:00000638       __GUID_cf51ed10_62fe_11cf_bf86_00a0c9034836 1001f638     CashDrawer.obj
 0002:00000648       __GUID_0000010a_0000_0000_c000_000000000046 1001f648     CashDrawer.obj
 0002:00000658       __GUID_b196b283_bab4_101a_b69c_00aa00341d07 1001f658     CashDrawer.obj
 0002:00000668       __GUID_cb5bdc81_93c1_11cf_8f20_00805f2cd064 1001f668     CashDrawer.obj
 0002:00000678       ?pPropMap@?1??GetPropertyMap@COPOSCashDrawer@@SAPBUATL_PROPMAP_ENTRY@ATL@@XZ@4QBU34@B 1001f678     CashDrawer.obj
 0002:000006e4       ??_C@_17DGDADEHL@?$AA_?$AAc?$AAx@ 1001f6e4     CashDrawer.obj
 0002:000006ec       ??_C@_17IOIMFDBO@?$AA_?$AAc?$AAy@ 1001f6ec     CashDrawer.obj
 0002:000006f4       ??_7?$CComObjectCached@VCComClassFactory@ATL@@@ATL@@6B@ 1001f6f4     CashDrawer.obj
 0002:0000070c       ??_7CComModule@ATL@@6B@    1001f70c     CashDrawer.obj
 0002:00000734       __GUID_922eada0_3424_11cf_b670_00aa004cd6d8 1001f734     CashDrawer.obj
 0002:00000744       __GUID_9c2cad80_3424_11cf_b670_00aa004cd6d8 1001f744     CashDrawer.obj
 0002:00000754       ??_C@_1CE@PGFMOFKI@?$AAS?$AAt?$AAa?$AAt?$AAu?$AAs?$AAU?$AAp?$AAd?$AAa?$AAt?$AAe?$AAE?$AAv?$AAe@ 1001f754     CashDrawer.obj
 0002:00000778       __GUID_00000119_0000_0000_c000_000000000046 1001f778     CashDrawer.obj
 0002:00000788       __GUID_b196b289_bab4_101a_b69c_00aa00341d07 1001f788     CashDrawer.obj
 0002:00000798       ??_C@_1BM@CBGEBBBJ@?$AAD?$AAi?$AAr?$AAe?$AAc?$AAt?$AAI?$AAO?$AAE?$AAv?$AAe?$AAn?$AAt@ 1001f798     CashDrawer.obj
 0002:000007b4       __GUID_b196b286_bab4_101a_b69c_00aa00341d07 1001f7b4     CashDrawer.obj
 0002:000007c4       __GUID_00000000_0000_0000_c000_000000000046 1001f7c4     CashDrawer.obj
 0002:000007d4       __GUID_00020400_0000_0000_c000_000000000046 1001f7d4     CashDrawer.obj
 0002:000007e4       __GUID_00000117_0000_0000_c000_000000000046 1001f7e4     CashDrawer.obj
 0002:000007f4       ??_C@_1BC@ENICKDH@?$AAC?$AAo?$AAn?$AAt?$AAe?$AAn?$AAt?$AAs@ 1001f7f4     CashDrawer.obj
 0002:00000808       ??_7?$CComObject@V?$CComEnum@UIEnumConnectionPoints@@$1?_GUID_b196b285_bab4_101a_b69c_00aa00341d07@@3U__s_GUID@@BPAUIConnectionPoint@@V?$_CopyInterface@UIConnectionPoint@@@ATL@@VCComSingleThreadModel@6@@ATL@@@ATL@@6B@ 1001f808     CashDrawer.obj
 0002:00000828       ??_C@_1M@KANJNLFF@?$AAC?$AAL?$AAS?$AAI?$AAD@ 1001f828     CashDrawer.obj
 0002:00000834       ??_C@_1M@EJNEECMJ@?$AAA?$AAp?$AAp?$AAI?$AAD@ 1001f834     CashDrawer.obj
 0002:00000840       __GUID_0000010e_0000_0000_c000_000000000046 1001f840     CashDrawer.obj
 0002:00000850       __GUID_b196b288_bab4_101a_b69c_00aa00341d07 1001f850     CashDrawer.obj
 0002:00000860       ?rgszNeverDelete@CRegParser@ATL@@1QBQB_WB 1001f860     CashDrawer.obj
 0002:00000890       ??_7CRegObject@ATL@@6B@    1001f890     CashDrawer.obj
 0002:000008a8       __GUID_00000113_0000_0000_c000_000000000046 1001f8a8     CashDrawer.obj
 0002:000008b8       __GUID_1c2056cc_5ef4_101b_8bc8_00aa003e3b29 1001f8b8     CashDrawer.obj
 0002:000008c8       ??_C@_1CK@OEKPKBNA@?$AAC?$AAo?$AAm?$AAp?$AAo?$AAn?$AAe?$AAn?$AAt?$AA?5?$AAC?$AAa?$AAt?$AAe?$AAg@ 1001f8c8     CashDrawer.obj
 0002:000008f4       ??_C@_1BC@NKMMNMGL@?$AAF?$AAi?$AAl?$AAe?$AAT?$AAy?$AAp?$AAe@ 1001f8f4     CashDrawer.obj
 0002:00000908       ??_C@_1BE@EKPAFMCP@?$AAI?$AAn?$AAt?$AAe?$AAr?$AAf?$AAa?$AAc?$AAe@ 1001f908     CashDrawer.obj
 0002:0000091c       ??_C@_1BC@MAICEHGI@?$AAH?$AAa?$AAr?$AAd?$AAw?$AAa?$AAr?$AAe@ 1001f91c     CashDrawer.obj
 0002:00000930       ??_C@_19HLLLM@?$AAM?$AAi?$AAm?$AAe@ 1001f930     CashDrawer.obj
 0002:0000093c       ??_C@_17OMAOINJK@?$AAS?$AAA?$AAM@ 1001f93c     CashDrawer.obj
 0002:00000944       ??_C@_1BC@IBECJAAI@?$AAS?$AAE?$AAC?$AAU?$AAR?$AAI?$AAT?$AAY@ 1001f944     CashDrawer.obj
 0002:00000958       ??_C@_1O@GBFINDKL@?$AAS?$AAY?$AAS?$AAT?$AAE?$AAM@ 1001f958     CashDrawer.obj
 0002:00000968       ??_C@_1BC@EAHCMADO@?$AAS?$AAo?$AAf?$AAt?$AAw?$AAa?$AAr?$AAe@ 1001f968     CashDrawer.obj
 0002:0000097c       ??_C@_1BA@JIHHIEDE@?$AAT?$AAy?$AAp?$AAe?$AAL?$AAi?$AAb@ 1001f97c     CashDrawer.obj
 0002:00000990       ?map@?1??HKeyFromString@CRegParser@ATL@@KAPAUHKEY__@@PA_W@Z@4QBUkeymap@?1??123@KAPAU4@0@Z@B 1001f990     CashDrawer.obj
 0002:00000a00       ??_C@_19NCHLBIN@?$AAH?$AAK?$AAC?$AAR@ 1001fa00     CashDrawer.obj
 0002:00000a0c       ??_C@_19JAPAIJDE@?$AAH?$AAK?$AAC?$AAU@ 1001fa0c     CashDrawer.obj
 0002:00000a18       ??_C@_19PEALEEJB@?$AAH?$AAK?$AAL?$AAM@ 1001fa18     CashDrawer.obj
 0002:00000a24       ??_C@_17PJOJPMPB@?$AAH?$AAK?$AAU@ 1001fa24     CashDrawer.obj
 0002:00000a2c       ??_C@_19PNBHMJPL@?$AAH?$AAK?$AAP?$AAD@ 1001fa2c     CashDrawer.obj
 0002:00000a38       ??_C@_19GFFAIJHG@?$AAH?$AAK?$AAD?$AAD@ 1001fa38     CashDrawer.obj
 0002:00000a44       ??_C@_19OFICIBHH@?$AAH?$AAK?$AAC?$AAC@ 1001fa44     CashDrawer.obj
 0002:00000a50       ??_C@_1CE@PACHPJFI@?$AAH?$AAK?$AAE?$AAY?$AA_?$AAC?$AAL?$AAA?$AAS?$AAS?$AAE?$AAS?$AA_?$AAR?$AAO@ 1001fa50     CashDrawer.obj
 0002:00000a74       ??_C@_1CE@HLHNCBPM@?$AAH?$AAK?$AAE?$AAY?$AA_?$AAC?$AAU?$AAR?$AAR?$AAE?$AAN?$AAT?$AA_?$AAU?$AAS@ 1001fa74     CashDrawer.obj
 0002:00000a98       ??_C@_1CG@GFBEANJL@?$AAH?$AAK?$AAE?$AAY?$AA_?$AAL?$AAO?$AAC?$AAA?$AAL?$AA_?$AAM?$AAA?$AAC?$AAH@ 1001fa98     CashDrawer.obj
 0002:00000ac0       ??_C@_1BG@BGODANIO@?$AAH?$AAK?$AAE?$AAY?$AA_?$AAU?$AAS?$AAE?$AAR?$AAS@ 1001fac0     CashDrawer.obj
 0002:00000ad8       ??_C@_1CM@KHNNAOIC@?$AAH?$AAK?$AAE?$AAY?$AA_?$AAP?$AAE?$AAR?$AAF?$AAO?$AAR?$AAM?$AAA?$AAN?$AAC@ 1001fad8     CashDrawer.obj
 0002:00000b04       ??_C@_1BM@HAGMMHIA@?$AAH?$AAK?$AAE?$AAY?$AA_?$AAD?$AAY?$AAN?$AA_?$AAD?$AAA?$AAT?$AAA@ 1001fb04     CashDrawer.obj
 0002:00000b20       ??_C@_1CI@BBJOACGG@?$AAH?$AAK?$AAE?$AAY?$AA_?$AAC?$AAU?$AAR?$AAR?$AAE?$AAN?$AAT?$AA_?$AAC?$AAO@ 1001fb20     CashDrawer.obj
 0002:00000b48       __GUID_00000112_0000_0000_c000_000000000046 1001fb48     CashDrawer.obj
 0002:00000b58       __GUID_00000109_0000_0000_c000_000000000046 1001fb58     CashDrawer.obj
 0002:00000b68       __GUID_7fd52380_4e07_101b_ae2d_08002b2ec713 1001fb68     CashDrawer.obj
 0002:00000b78       __GUID_3af24292_0c96_11ce_a0cf_00aa00600ab8 1001fb78     CashDrawer.obj
 0002:00000b88       __GUID_00000127_0000_0000_c000_000000000046 1001fb88     CashDrawer.obj
 0002:00000b98       __GUID_0000010d_0000_0000_c000_000000000046 1001fb98     CashDrawer.obj
 0002:00000ba8       ??_C@_1M@PPPPCDEP@?$AAA?$AAP?$AAP?$AAI?$AAD@ 1001fba8     CashDrawer.obj
 0002:00000bb8       ??_C@_1EA@NHKLICFA@?$AAH?$AAK?$AAC?$AAU?$AA?$AN?$AA?6?$AA?$HL?$AA?7?$AAS?$AAo?$AAf?$AAt?$AAw?$AAa?$AAr@ 1001fbb8     CashDrawer.obj
 0002:00000bf8       ??_C@_1BE@LJOLIMEM@?$AA?$AN?$AA?6?$AA?7?$AA?$HN?$AA?$AN?$AA?6?$AA?$HN?$AA?$AN?$AA?6@ 1001fbf8     CashDrawer.obj
 0002:00000c0c       ??_C@_1O@MNLDABAF@?$AAM?$AAo?$AAd?$AAu?$AAl?$AAe@ 1001fc0c     CashDrawer.obj
 0002:00000c1c       ??_C@_1BG@JBACFMF@?$AAM?$AAo?$AAd?$AAu?$AAl?$AAe?$AA_?$AAR?$AAa?$AAw@ 1001fc1c     CashDrawer.obj
 0002:00000c34       ??_C@_1BC@KAILKFFG@?$AAR?$AAE?$AAG?$AAI?$AAS?$AAT?$AAR?$AAY@ 1001fc34     CashDrawer.obj
 0002:00000c48       ??_7?$CComContainedObject@VCOPOSCashDrawer@@@ATL@@6B?$IDispatchImpl@UIOPOSCashDrawer@@$1?IID_IOPOSCashDrawer@@3U_GUID@@B$1?LIBID_OposCashDrawer_CCO@@3U3@B$00$0A@VCComTypeInfoHolder@ATL@@@1@@ 1001fc48     CashDrawer.obj
 0002:00000d24       ??_7?$CComContainedObject@VCOPOSCashDrawer@@@ATL@@6BCComControlBase@1@@ 1001fd24     CashDrawer.obj
 0002:00000d38       ??_7?$CComContainedObject@VCOPOSCashDrawer@@@ATL@@6B?$CWindowImpl@VCOPOSCashDrawer@@VCWindow@ATL@@V?$CWinTraits@$0FGAAAAAA@$0A@@3@@1@@ 1001fd38     CashDrawer.obj
 0002:00000d48       ??_7?$CComContainedObject@VCOPOSCashDrawer@@@ATL@@6B?$IPersistStreamInitImpl@VCOPOSCashDrawer@@@1@@ 1001fd48     CashDrawer.obj
 0002:00000d6c       ??_7?$CComContainedObject@VCOPOSCashDrawer@@@ATL@@6B?$IOleControlImpl@VCOPOSCashDrawer@@@1@@ 1001fd6c     CashDrawer.obj
 0002:00000d88       ??_7?$CComContainedObject@VCOPOSCashDrawer@@@ATL@@6B?$IOleObjectImpl@VCOPOSCashDrawer@@@1@@ 1001fd88     CashDrawer.obj
 0002:00000de8       ??_7?$CComContainedObject@VCOPOSCashDrawer@@@ATL@@6B?$IOleInPlaceActiveObjectImpl@VCOPOSCashDrawer@@@1@@ 1001fde8     CashDrawer.obj
 0002:00000e10       ??_7?$CComContainedObject@VCOPOSCashDrawer@@@ATL@@6B?$IViewObjectExImpl@VCOPOSCashDrawer@@@1@@ 1001fe10     CashDrawer.obj
 0002:00000e4c       ??_7?$CComContainedObject@VCOPOSCashDrawer@@@ATL@@6B?$IOleInPlaceObjectWindowlessImpl@VCOPOSCashDrawer@@@1@@ 1001fe4c     CashDrawer.obj
 0002:00000e78       ??_7?$CComContainedObject@VCOPOSCashDrawer@@@ATL@@6B?$IConnectionPointContainerImpl@VCOPOSCashDrawer@@@1@@ 1001fe78     CashDrawer.obj
 0002:00000e8c       ??_7?$CComContainedObject@VCOPOSCashDrawer@@@ATL@@6B?$IPersistStorageImpl@VCOPOSCashDrawer@@@1@@ 1001fe8c     CashDrawer.obj
 0002:00000eb4       ??_7?$CComContainedObject@VCOPOSCashDrawer@@@ATL@@6B?$ISpecifyPropertyPagesImpl@VCOPOSCashDrawer@@@1@@ 1001feb4     CashDrawer.obj
 0002:00000ec4       ??_7?$CComContainedObject@VCOPOSCashDrawer@@@ATL@@6B?$IQuickActivateImpl@VCOPOSCashDrawer@@@1@@ 1001fec4     CashDrawer.obj
 0002:00000edc       ??_7?$CComContainedObject@VCOPOSCashDrawer@@@ATL@@6B?$IDataObjectImpl@VCOPOSCashDrawer@@@1@@ 1001fedc     CashDrawer.obj
 0002:00000f0c       ??_7?$CComContainedObject@VCOPOSCashDrawer@@@ATL@@6B?$IProvideClassInfo2Impl@$1?CLSID_OPOSCashDrawer@@3U_GUID@@B$1?DIID__IOPOSCashDrawerEvents@@3U2@B$1?LIBID_OposCashDrawer_CCO@@3U2@B$00$0A@VCComTypeInfoHolder@ATL@@@1@@ 1001ff0c     CashDrawer.obj
 0002:00000f20       ??_7?$CComContainedObject@VCOPOSCashDrawer@@@ATL@@6B?$IObjectSafetyImpl@VCOPOSCashDrawer@@$02@1@@ 1001ff20     CashDrawer.obj
 0002:00000f38       ??_7?$CComContainedObject@VCOPOSCashDrawer@@@ATL@@6B?$IPropertyNotifySinkCP@VCOPOSCashDrawer@@VCComDynamicUnkArray@ATL@@@1@@ 1001ff38     CashDrawer.obj
 0002:00000f58       ??_7?$CComContainedObject@VCOPOSCashDrawer@@@ATL@@6B?$CProxy_IOPOSEvents@VCOPOSCashDrawer@@@@@ 1001ff58     CashDrawer.obj
 0002:00000f78       ??_7?$CComAggObject@VCOPOSCashDrawer@@@ATL@@6B@ 1001ff78     CashDrawer.obj
 0002:00000f88       ??_7?$CComObject@VCOPOSCashDrawer@@@ATL@@6B?$IDispatchImpl@UIOPOSCashDrawer@@$1?IID_IOPOSCashDrawer@@3U_GUID@@B$1?LIBID_OposCashDrawer_CCO@@3U3@B$00$0A@VCComTypeInfoHolder@ATL@@@1@@ 1001ff88     CashDrawer.obj
 0002:00001064       ??_7?$CComObject@VCOPOSCashDrawer@@@ATL@@6BCComControlBase@1@@ 10020064     CashDrawer.obj
 0002:00001078       ??_7?$CComObject@VCOPOSCashDrawer@@@ATL@@6B?$CWindowImpl@VCOPOSCashDrawer@@VCWindow@ATL@@V?$CWinTraits@$0FGAAAAAA@$0A@@3@@1@@ 10020078     CashDrawer.obj
 0002:00001088       ??_7?$CComObject@VCOPOSCashDrawer@@@ATL@@6B?$IPersistStreamInitImpl@VCOPOSCashDrawer@@@1@@ 10020088     CashDrawer.obj
 0002:000010ac       ??_7?$CComObject@VCOPOSCashDrawer@@@ATL@@6B?$IOleControlImpl@VCOPOSCashDrawer@@@1@@ 100200ac     CashDrawer.obj
 0002:000010c8       ??_7?$CComObject@VCOPOSCashDrawer@@@ATL@@6B?$IOleObjectImpl@VCOPOSCashDrawer@@@1@@ 100200c8     CashDrawer.obj
 0002:00001128       ??_7?$CComObject@VCOPOSCashDrawer@@@ATL@@6B?$IOleInPlaceActiveObjectImpl@VCOPOSCashDrawer@@@1@@ 10020128     CashDrawer.obj
 0002:00001150       ??_7?$CComObject@VCOPOSCashDrawer@@@ATL@@6B?$IViewObjectExImpl@VCOPOSCashDrawer@@@1@@ 10020150     CashDrawer.obj
 0002:0000118c       ??_7?$CComObject@VCOPOSCashDrawer@@@ATL@@6B?$IOleInPlaceObjectWindowlessImpl@VCOPOSCashDrawer@@@1@@ 1002018c     CashDrawer.obj
 0002:000011b8       ??_7?$CComObject@VCOPOSCashDrawer@@@ATL@@6B?$IConnectionPointContainerImpl@VCOPOSCashDrawer@@@1@@ 100201b8     CashDrawer.obj
 0002:000011cc       ??_7?$CComObject@VCOPOSCashDrawer@@@ATL@@6B?$IPersistStorageImpl@VCOPOSCashDrawer@@@1@@ 100201cc     CashDrawer.obj
 0002:000011f4       ??_7?$CComObject@VCOPOSCashDrawer@@@ATL@@6B?$ISpecifyPropertyPagesImpl@VCOPOSCashDrawer@@@1@@ 100201f4     CashDrawer.obj
 0002:00001204       ??_7?$CComObject@VCOPOSCashDrawer@@@ATL@@6B?$IQuickActivateImpl@VCOPOSCashDrawer@@@1@@ 10020204     CashDrawer.obj
 0002:0000121c       ??_7?$CComObject@VCOPOSCashDrawer@@@ATL@@6B?$IDataObjectImpl@VCOPOSCashDrawer@@@1@@ 1002021c     CashDrawer.obj
 0002:0000124c       ??_7?$CComObject@VCOPOSCashDrawer@@@ATL@@6B?$IProvideClassInfo2Impl@$1?CLSID_OPOSCashDrawer@@3U_GUID@@B$1?DIID__IOPOSCashDrawerEvents@@3U2@B$1?LIBID_OposCashDrawer_CCO@@3U2@B$00$0A@VCComTypeInfoHolder@ATL@@@1@@ 1002024c     CashDrawer.obj
 0002:00001260       ??_7?$CComObject@VCOPOSCashDrawer@@@ATL@@6B?$IObjectSafetyImpl@VCOPOSCashDrawer@@$02@1@@ 10020260     CashDrawer.obj
 0002:00001278       ??_7?$CComObject@VCOPOSCashDrawer@@@ATL@@6B?$IPropertyNotifySinkCP@VCOPOSCashDrawer@@VCComDynamicUnkArray@ATL@@@1@@ 10020278     CashDrawer.obj
 0002:00001298       ??_7?$CComObject@VCOPOSCashDrawer@@@ATL@@6B?$CProxy_IOPOSEvents@VCOPOSCashDrawer@@@@@ 10020298     CashDrawer.obj
 0002:000012b8       ??_C@_1O@GBFKGNEO@?$AAA?$AAT?$AAL?$AA?3?$AA?$CF?$AAp@ 100202b8     CashDrawer.obj
 0002:000012c8       ??_C@_1BA@PICGEGJB@?$AAD?$AAI?$AAS?$AAP?$AAL?$AAA?$AAY@ 100202c8     CashDrawer.obj
 0002:000012d8       __GUID_9bfbbc02_eff1_101a_84ed_00aa00341d07 100202d8     CashDrawer.obj
 0002:000012e8       ?_entries@?1??_GetEntries@?$CComEnum@UIEnumConnectionPoints@@$1?_GUID_b196b285_bab4_101a_b69c_00aa00341d07@@3U__s_GUID@@BPAUIConnectionPoint@@V?$_CopyInterface@UIConnectionPoint@@@ATL@@VCComSingleThreadModel@6@@ATL@@SGPBU_ATL_INTMAP_ENTRY@3@XZ@4QBU43@B 100202e8     CashDrawer.obj
 0002:00001300       __GUID_b196b284_bab4_101a_b69c_00aa00341d07 10020300     CashDrawer.obj
 0002:00001310       __GUID_00020412_0000_0000_c000_000000000046 10020310     CashDrawer.obj
 0002:00001320       __GUID_00020401_0000_0000_c000_000000000046 10020320     CashDrawer.obj
 0002:00001330       ??_7?$CComObject@V?$CComEnum@UIEnumConnections@@$1?_GUID_b196b287_bab4_101a_b69c_00aa00341d07@@3U__s_GUID@@BUtagCONNECTDATA@@V?$_Copy@UtagCONNECTDATA@@@ATL@@VCComSingleThreadModel@6@@ATL@@@ATL@@6B@ 10020330     CashDrawer.obj
 0002:00001350       __GUID_55980ba0_35aa_11cf_b671_00aa004cd6d8 10020350     CashDrawer.obj
 0002:00001360       __GUID_b196b28b_bab4_101a_b69c_00aa00341d07 10020360     CashDrawer.obj
 0002:00001370       ?_entries@?1??_GetEntries@?$CComEnum@UIEnumConnections@@$1?_GUID_b196b287_bab4_101a_b69c_00aa00341d07@@3U__s_GUID@@BUtagCONNECTDATA@@V?$_Copy@UtagCONNECTDATA@@@ATL@@VCComSingleThreadModel@6@@ATL@@SGPBU_ATL_INTMAP_ENTRY@3@XZ@4QBU43@B 10020370     CashDrawer.obj
 0002:00001388       ??_C@_0BG@EKFFMJIO@RegOpenKeyTransactedW@ 10020388     CashDrawer.obj
 0002:000013a0       ??_C@_0BI@HAKLOOGP@RegDeleteKeyTransactedW@ 100203a0     CashDrawer.obj
 0002:000013b8       ??_C@_0BA@LILAPHGE@RegDeleteKeyExW@ 100203b8     CashDrawer.obj
 0002:000013c8       ??_C@_19ILOCMLCJ@?$AA?4?$AAt?$AAl?$AAb@ 100203c8     CashDrawer.obj
 0002:000013d4       __GUID_0002e012_0000_0000_c000_000000000046 100203d4     CashDrawer.obj
 0002:000013e4       ??_C@_1O@FHBGLCIO@?$AAC?$AAL?$AAS?$AAI?$AAD?$AA?2@ 100203e4     CashDrawer.obj
 0002:000013f4       ??_C@_1CK@IFBKBFAA@?$AA?2?$AAR?$AAe?$AAq?$AAu?$AAi?$AAr?$AAe?$AAd?$AA?5?$AAC?$AAa?$AAt?$AAe?$AAg@ 100203f4     CashDrawer.obj
 0002:00001420       ??_C@_1DA@BIHALFED@?$AA?2?$AAI?$AAm?$AAp?$AAl?$AAe?$AAm?$AAe?$AAn?$AAt?$AAe?$AAd?$AA?5?$AAC?$AAa@ 10020420     CashDrawer.obj
 0002:00001450       ??_C@_1BK@EDKOLFBJ@?$AAO?$AAL?$AAE?$AAA?$AAU?$AAT?$AA3?$AA2?$AA?4?$AAD?$AAL?$AAL@ 10020450     CashDrawer.obj
 0002:0000146c       ??_C@_0BJ@CNLFOMHB@UnRegisterTypeLibForUser@ 1002046c     CashDrawer.obj
 0002:00001488       ??_C@_0BH@LBOMMKPJ@RegisterTypeLibForUser@ 10020488     CashDrawer.obj
 0002:000014a0       ??_C@_0P@MMNMMLGK@COFreezeEvents@ 100204a0     CashDrawerImpl.obj
 0002:000014b0       ??_C@_0BC@OGCGGIMP@GetPropertyNumber@ 100204b0     CashDrawerImpl.obj
 0002:000014c4       ??_C@_0BC@MDCNODNB@SetPropertyNumber@ 100204c4     CashDrawerImpl.obj
 0002:000014d8       ??_C@_0BC@CFCCMIMD@GetPropertyString@ 100204d8     CashDrawerImpl.obj
 0002:000014ec       ??_C@_0BC@CJEDNN@SetPropertyString@ 100204ec     CashDrawerImpl.obj
 0002:00001500       ??_C@_0M@LNPKKKDA@OpenService@ 10020500     CashDrawerImpl.obj
 0002:0000150c       ??_C@_0M@PCMCHHMH@CheckHealth@ 1002050c     CashDrawerImpl.obj
 0002:00001518       ??_C@_0M@JGMIDNEK@ClaimDevice@ 10020518     CashDrawerImpl.obj
 0002:00001524       ??_C@_0N@DDFIIBMP@CloseService@ 10020524     CashDrawerImpl.obj
 0002:00001534       ??_C@_08EEIHICPC@DirectIO@ 10020534     CashDrawerImpl.obj
 0002:00001540       ??_C@_0O@BCPMENMJ@ReleaseDevice@ 10020540     CashDrawerImpl.obj
 0002:00001550       ??_C@_0L@DBFHJAH@OpenDrawer@ 10020550     CashDrawerImpl.obj
 0002:0000155c       ??_C@_0BD@OMLIOAJI@WaitForDrawerClose@ 1002055c     CashDrawerImpl.obj
 0002:00001570       ??_C@_0BA@GFABKEEE@ResetStatistics@ 10020570     CashDrawerImpl.obj
 0002:00001580       ??_C@_0BD@DPALHJGC@RetrieveStatistics@ 10020580     CashDrawerImpl.obj
 0002:00001594       ??_C@_0BB@KOHIKNFC@UpdateStatistics@ 10020594     CashDrawerImpl.obj
 0002:000015a8       ??_C@_0BH@PBKBNMGB@CompareFirmwareVersion@ 100205a8     CashDrawerImpl.obj
 0002:000015c0       ??_C@_0P@FBPDPIPA@UpdateFirmware@ 100205c0     CashDrawerImpl.obj
 0002:000015d0       ??_7?$CProxy_IOPOSEvents@VCOPOSCashDrawer@@@@6B@ 100205d0     CashDrawerImpl.obj
 0002:000015f0       ??_C@_1BA@IFHENID@?$AA?$FL?$AAE?$AAr?$AAr?$AAo?$AAr?$AA?$FN@ 100205f0     CashDrawerImpl.obj
 0002:00001600       ??_C@_0CN@FIMOCEHP@SOFTWARE?2OLEforRetail?2ServiceOP@ 10020600     CashDrawerImpl.obj
 0002:00001630       ??_C@_1M@IAIJHCCH@?$AAC?$AAl?$AAo?$AAs?$AAe@ 10020630     CashDrawerImpl.obj
 0002:0000163c       ??_C@_1M@PCPKGJAH@?$AAC?$AAl?$AAa?$AAi?$AAm@ 1002063c     CashDrawerImpl.obj
 0002:00001648       ??_C@_1BA@NDFKIOCP@?$AAR?$AAe?$AAl?$AAe?$AAa?$AAs?$AAe@ 10020648     CashDrawerImpl.obj
 0002:00001658       ??_C@_0L@NINGDDGK@CashDrawer@ 10020658     CashDrawerImpl.obj
 0002:00001664       ??_C@_1BM@IJMNMBPK@?$AAG?$AAe?$AAt?$AAO?$AAp?$AAe?$AAn?$AAR?$AAe?$AAs?$AAu?$AAl?$AAt@ 10020664     CashDrawerImpl.obj
 0002:00001680       _IID_IPropertyNotifySink   10020680     uuid:ocidl_i.obj
 0002:00001690       _GUID_NULL                 10020690     uuid:cguid_i.obj
 0002:000016a0       _CLSID_StdGlobalInterfaceTable 100206a0     uuid:cguid_i.obj
 0002:000016b0       _IID_IDispatch             100206b0     uuid:oaidl_i.obj
 0002:000016c0       _CLSID_StdComponentCategoriesMgr 100206c0     uuid:ieguids.obj
 0002:000016d0       _IID_IUnknown              100206d0     uuid:unknwn_i.obj
 0002:000016e0       ??_C@_1EC@JIJBPKFM@?$AAa?$AAp?$AAi?$AA?9?$AAm?$AAs?$AA?9?$AAw?$AAi?$AAn?$AA?9?$AAc?$AAo?$AAr?$AAe@ 100206e0     LIBCMT:thread_safe_statics.obj
 0002:00001724       ??_C@_1BK@MGMFAEKH@?$AAk?$AAe?$AAr?$AAn?$AAe?$AAl?$AA3?$AA2?$AA?4?$AAd?$AAl?$AAl@ 10020724     LIBCMT:thread_safe_statics.obj
 0002:00001740       ??_C@_0BJ@JEBJOJFJ@SleepConditionVariableCS@ 10020740     LIBCMT:thread_safe_statics.obj
 0002:0000175c       ??_C@_0BJ@PGPPEPCC@WakeAllConditionVariable@ 1002075c     LIBCMT:thread_safe_statics.obj
 0002:00001775       ?nothrow@std@@3Unothrow_t@1@B 10020775     LIBCMT:std_nothrow.obj
 0002:00001780       __pRawDllMain              10020780     LIBCMT:dll_dllmain.obj
 0002:00001780       __pDefaultRawDllMain       10020780     LIBCMT:dll_dllmain.obj
 0002:00001788       ??_7exception@std@@6B@     10020788     LIBCMT:throw_bad_alloc.obj
 0002:00001790       ??_C@_0BC@EOODALEL@Unknown?5exception@ 10020790     LIBCMT:throw_bad_alloc.obj
 0002:000017a8       ??_7bad_alloc@std@@6B@     100207a8     LIBCMT:throw_bad_alloc.obj
 0002:000017b0       ??_C@_0P@GHFPNOJB@bad?5allocation@ 100207b0     LIBCMT:throw_bad_alloc.obj
 0002:000017c4       ??_7bad_array_new_length@std@@6B@ 100207c4     LIBCMT:throw_bad_alloc.obj
 0002:000017cc       ??_C@_0BF@KINCDENJ@bad?5array?5new?5length@ 100207cc     LIBCMT:throw_bad_alloc.obj
 0002:000017e8       ??_7type_info@@6B@         100207e8     LIBCMT:std_type_info_static.obj
 0002:000017ec       _GUID_ATLVer110            100207ec     atls:atlbase.obj
 0002:00001800       ??_C@_1IC@ONKHOIDK@?$AAE?$AAR?$AAR?$AAO?$AAR?$AA?5?$AA?3?$AA?5?$AAU?$AAn?$AAa?$AAb?$AAl?$AAe?$AA?5@ 10020800     atls:atlbase.obj
 0002:00001884       ??_C@_0N@FJEPLCIH@atlthunk?4dll@ 10020884     atls:atlthunk.obj
 0002:00001894       ??_C@_0BG@GAKFHCBM@AtlThunk_AllocateData@ 10020894     atls:atlthunk.obj
 0002:000018ac       ??_C@_0BC@JKONFIAH@AtlThunk_InitData@ 100208ac     atls:atlthunk.obj
 0002:000018c0       ??_C@_0BE@IAOEELAK@AtlThunk_DataToCode@ 100208c0     atls:atlthunk.obj
 0002:000018d4       ??_C@_0BC@GBGKAIPI@AtlThunk_FreeData@ 100208d4     atls:atlthunk.obj
 0002:000018e8       __pDestructExceptionObject 100208e8     libvcruntime:ehhelpers.obj
 0002:000018f0       ??_7bad_exception@std@@6B@ 100208f0     libvcruntime:frame.obj
 0002:000018f8       ??_C@_0O@DPKOEFFH@bad?5exception@ 100208f8     libvcruntime:frame.obj
 0002:00001c88       ??_C@_08EHJDFFNH@__based?$CI@ 10020c88     libvcruntime:undname.obj
 0002:00001c94       ??_C@_07KOLFKCDI@__cdecl@  10020c94     libvcruntime:undname.obj
 0002:00001c9c       ??_C@_08GHMPAG@__pascal@   10020c9c     libvcruntime:undname.obj
 0002:00001ca8       ??_C@_09IFJBGAPI@__stdcall@ 10020ca8     libvcruntime:undname.obj
 0002:00001cb4       ??_C@_0L@NPHFGOKO@__thiscall@ 10020cb4     libvcruntime:undname.obj
 0002:00001cc0       ??_C@_0L@JMKHOMEK@__fastcall@ 10020cc0     libvcruntime:undname.obj
 0002:00001ccc       ??_C@_0N@BCKKPABJ@__vectorcall@ 10020ccc     libvcruntime:undname.obj
 0002:00001cdc       ??_C@_09HIJEGCPM@__clrcall@ 10020cdc     libvcruntime:undname.obj
 0002:00001ce8       ??_C@_06GHPCKEAG@__eabi@   10020ce8     libvcruntime:undname.obj
 0002:00001cf0       ??_C@_09IOPIDJLG@__swift_1@ 10020cf0     libvcruntime:undname.obj
 0002:00001cfc       ??_C@_09KFNFGKHF@__swift_2@ 10020cfc     libvcruntime:undname.obj
 0002:00001d08       ??_C@_07JOMMBBKO@__ptr64@  10020d08     libvcruntime:undname.obj
 0002:00001d10       ??_C@_0L@PILCLIHE@__restrict@ 10020d10     libvcruntime:undname.obj
 0002:00001d1c       ??_C@_0M@GFIIJFMG@__unaligned@ 10020d1c     libvcruntime:undname.obj
 0002:00001d28       ??_C@_09DHDLOLLB@restrict?$CI@ 10020d28     libvcruntime:undname.obj
 0002:00001d32       ??_C@_00CNPNBAHC@@         10020d32     libvcruntime:undname.obj
 0002:00001d34       ??_C@_04NIHEBCM@?5new@     10020d34     libvcruntime:undname.obj
 0002:00001d3c       ??_C@_07FPCDHGMM@?5delete@ 10020d3c     libvcruntime:undname.obj
 0002:00001d44       ??_C@_01NEMOKFLO@?$DN@     10020d44     libvcruntime:undname.obj
 0002:00001d48       ??_C@_02GPIOPFAK@?$DO?$DO@ 10020d48     libvcruntime:undname.obj
 0002:00001d4c       ??_C@_02FODMEDOG@?$DM?$DM@ 10020d4c     libvcruntime:undname.obj
 0002:00001d50       ??_C@_01DCLJPIOD@?$CB@     10020d50     libvcruntime:undname.obj
 0002:00001d54       ??_C@_02EGOFBIJA@?$DN?$DN@ 10020d54     libvcruntime:undname.obj
 0002:00001d58       ??_C@_02FDNJECIE@?$CB?$DN@ 10020d58     libvcruntime:undname.obj
 0002:00001d5c       ??_C@_02GPECMEKF@?$FL?$FN@ 10020d5c     libvcruntime:undname.obj
 0002:00001d60       ??_C@_08LHJFAFGD@operator@ 10020d60     libvcruntime:undname.obj
 0002:00001d6c       ??_C@_02HBOOOICD@?9?$DO@   10020d6c     libvcruntime:undname.obj
 0002:00001d70       ??_C@_01NBENCBCI@?$CK@     10020d70     libvcruntime:undname.obj
 0002:00001d74       ??_C@_02ECNGHCIF@?$CL?$CL@ 10020d74     libvcruntime:undname.obj
 0002:00001d78       ??_C@_02BAABKJLB@?9?9@     10020d78     libvcruntime:undname.obj
 0002:00001d7c       ??_C@_01JOAMLHOP@?9@       10020d7c     libvcruntime:undname.obj
 0002:00001d80       ??_C@_01MIFGBAGJ@?$CL@     10020d80     libvcruntime:undname.obj
 0002:00001d84       ??_C@_01HNPIGOCE@?$CG@     10020d84     libvcruntime:undname.obj
 0002:00001d88       ??_C@_03MNHNFDLC@?9?$DO?$CK@ 10020d88     libvcruntime:undname.obj
 0002:00001d8c       ??_C@_01KMDKNFGN@?1@       10020d8c     libvcruntime:undname.obj
 0002:00001d90       ??_C@_01FGNFDNOH@?$CF@     10020d90     libvcruntime:undname.obj
 0002:00001d94       ??_C@_01MNNFJEPP@?$DM@     10020d94     libvcruntime:undname.obj
 0002:00001d98       ??_C@_02EHCHHCKH@?$DM?$DN@ 10020d98     libvcruntime:undname.obj
 0002:00001d9c       ??_C@_01PPODPGHN@?$DO@     10020d9c     libvcruntime:undname.obj
 0002:00001da0       ??_C@_02EEKDKGMJ@?$DO?$DN@ 10020da0     libvcruntime:undname.obj
 0002:00001da4       ??_C@_01IHBHIGKO@?0@       10020da4     libvcruntime:undname.obj
 0002:00001da8       ??_C@_02HCKGKOFO@?$CI?$CJ@ 10020da8     libvcruntime:undname.obj
 0002:00001dac       ??_C@_01PJKLJHI@?$HO@      10020dac     libvcruntime:undname.obj
 0002:00001db0       ??_C@_01JKBOJNNK@?$FO@     10020db0     libvcruntime:undname.obj
 0002:00001db4       ??_C@_01DNKMNLPK@?$HM@     10020db4     libvcruntime:undname.obj
 0002:00001db8       ??_C@_02PPKAJPJL@?$CG?$CG@ 10020db8     libvcruntime:undname.obj
 0002:00001dbc       ??_C@_02NONPIBCD@?$HM?$HM@ 10020dbc     libvcruntime:undname.obj
 0002:00001dc0       ??_C@_02FPIMKNGF@?$CK?$DN@ 10020dc0     libvcruntime:undname.obj
 0002:00001dc4       ??_C@_02FOEOMHFC@?$CL?$DN@ 10020dc4     libvcruntime:undname.obj
 0002:00001dc8       ??_C@_02FKMDLLOA@?9?$DN@   10020dc8     libvcruntime:undname.obj
 0002:00001dcc       ??_C@_02FJEHGPIO@?1?$DN@   10020dcc     libvcruntime:undname.obj
 0002:00001dd0       ??_C@_02FENAOKFI@?$CF?$DN@ 10020dd0     libvcruntime:undname.obj
 0002:00001dd4       ??_C@_03IKFCCPFF@?$DO?$DO?$DN@ 10020dd4     libvcruntime:undname.obj
 0002:00001dd8       ??_C@_03CDNPDDLA@?$DM?$DM?$DN@ 10020dd8     libvcruntime:undname.obj
 0002:00001ddc       ??_C@_02FGJGFEAB@?$CG?$DN@ 10020ddc     libvcruntime:undname.obj
 0002:00001de0       ??_C@_02DHLNPPGH@?$HM?$DN@ 10020de0     libvcruntime:undname.obj
 0002:00001de4       ??_C@_02MHEGNOJ@?$FO?$DN@  10020de4     libvcruntime:undname.obj
 0002:00001de8       ??_C@_09IFPLHPGF@?$GAvftable?8@ 10020de8     libvcruntime:undname.obj
 0002:00001df4       ??_C@_09BLBHBJP@?$GAvbtable?8@ 10020df4     libvcruntime:undname.obj
 0002:00001e00       ??_C@_07FEEIOKP@?$GAvcall?8@ 10020e00     libvcruntime:undname.obj
 0002:00001e08       ??_C@_08LLFFHHDJ@?$GAtypeof?8@ 10020e08     libvcruntime:undname.obj
 0002:00001e14       ??_C@_0BF@KDPPACIK@?$GAlocal?5static?5guard?8@ 10020e14     libvcruntime:undname.obj
 0002:00001e2c       ??_C@_08OBABFOLI@?$GAstring?8@ 10020e2c     libvcruntime:undname.obj
 0002:00001e38       ??_C@_0BD@JDLKDPAB@?$GAvbase?5destructor?8@ 10020e38     libvcruntime:undname.obj
 0002:00001e4c       ??_C@_0BN@DEGPLNFK@?$GAvector?5deleting?5destructor?8@ 10020e4c     libvcruntime:undname.obj
 0002:00001e6c       ??_C@_0BO@OBMKPJIG@?$GAdefault?5constructor?5closure?8@ 10020e6c     libvcruntime:undname.obj
 0002:00001e8c       ??_C@_0BN@IMDCHIKM@?$GAscalar?5deleting?5destructor?8@ 10020e8c     libvcruntime:undname.obj
 0002:00001eac       ??_C@_0BO@PFGOCPJJ@?$GAvector?5constructor?5iterator?8@ 10020eac     libvcruntime:undname.obj
 0002:00001ecc       ??_C@_0BN@LFPFMEDL@?$GAvector?5destructor?5iterator?8@ 10020ecc     libvcruntime:undname.obj
 0002:00001eec       ??_C@_0CE@IKBNEHA@?$GAvector?5vbase?5constructor?5itera@ 10020eec     libvcruntime:undname.obj
 0002:00001f10       ??_C@_0BL@NILFHHPC@?$GAvirtual?5displacement?5map?8@ 10020f10     libvcruntime:undname.obj
 0002:00001f2c       ??_C@_0CB@JONCMFFK@?$GAeh?5vector?5constructor?5iterator@ 10020f2c     libvcruntime:undname.obj
 0002:00001f50       ??_C@_0CA@GCEOPDGL@?$GAeh?5vector?5destructor?5iterator?8@ 10020f50     libvcruntime:undname.obj
 0002:00001f70       ??_C@_0CH@OOJPLCPH@?$GAeh?5vector?5vbase?5constructor?5it@ 10020f70     libvcruntime:undname.obj
 0002:00001f98       ??_C@_0BL@LLKPOHJI@?$GAcopy?5constructor?5closure?8@ 10020f98     libvcruntime:undname.obj
 0002:00001fb4       ??_C@_0BA@KBCDOMBN@?$GAudt?5returning?8@ 10020fb4     libvcruntime:undname.obj
 0002:00001fc4       ??_C@_03KLGMFNMG@?$GAEH@   10020fc4     libvcruntime:undname.obj
 0002:00001fc8       ??_C@_05KHLCHHI@?$GARTTI@  10020fc8     libvcruntime:undname.obj
 0002:00001fd0       ??_C@_0BA@KKLDJDLB@?$GAlocal?5vftable?8@ 10020fd0     libvcruntime:undname.obj
 0002:00001fe0       ??_C@_0CE@IIHCMGGL@?$GAlocal?5vftable?5constructor?5clos@ 10020fe0     libvcruntime:undname.obj
 0002:00002004       ??_C@_06FHBGPFGH@?5new?$FL?$FN@ 10021004     libvcruntime:undname.obj
 0002:0000200c       ??_C@_09LBNFPBCA@?5delete?$FL?$FN@ 1002100c     libvcruntime:undname.obj
 0002:00002018       ??_C@_0P@HJKNJFNN@?$GAomni?5callsig?8@ 10021018     libvcruntime:undname.obj
 0002:00002028       ??_C@_0BL@CNOONJFP@?$GAplacement?5delete?5closure?8@ 10021028     libvcruntime:undname.obj
 0002:00002044       ??_C@_0BN@CKNJLHMB@?$GAplacement?5delete?$FL?$FN?5closure?8@ 10021044     libvcruntime:undname.obj
 0002:00002064       ??_C@_0CG@CFDHKGGD@?$GAmanaged?5vector?5constructor?5ite@ 10021064     libvcruntime:undname.obj
 0002:0000208c       ??_C@_0CF@IMGKMJNO@?$GAmanaged?5vector?5destructor?5iter@ 1002108c     libvcruntime:undname.obj
 0002:000020b4       ??_C@_0CG@HLDDJMAG@?$GAeh?5vector?5copy?5constructor?5ite@ 100210b4     libvcruntime:undname.obj
 0002:000020dc       ??_C@_0CM@FCBBDIGB@?$GAeh?5vector?5vbase?5copy?5construct@ 100210dc     libvcruntime:undname.obj
 0002:00002108       ??_C@_0BL@CLIPGLGB@?$GAdynamic?5initializer?5for?5?8@ 10021108     libvcruntime:undname.obj
 0002:00002124       ??_C@_0CB@PDBIFEP@?$GAdynamic?5atexit?5destructor?5for?5@ 10021124     libvcruntime:undname.obj
 0002:00002148       ??_C@_0CD@CGAJBKEJ@?$GAvector?5copy?5constructor?5iterat@ 10021148     libvcruntime:undname.obj
 0002:0000216c       ??_C@_0CJ@GJELGAMM@?$GAvector?5vbase?5copy?5constructor?5@ 1002116c     libvcruntime:undname.obj
 0002:00002198       ??_C@_0CL@FGIJHLCE@?$GAmanaged?5vector?5copy?5constructo@ 10021198     libvcruntime:undname.obj
 0002:000021c4       ??_C@_0BM@PMGGMLDN@?$GAlocal?5static?5thread?5guard?8@ 100211c4     libvcruntime:undname.obj
 0002:000021e0       ??_C@_0N@BDNMDMOL@operator?5?$CC?$CC?5@ 100211e0     libvcruntime:undname.obj
 0002:000021f0       ??_C@_0BC@GGEBGALA@operator?5co_await@ 100211f0     libvcruntime:undname.obj
 0002:00002204       ??_C@_0M@GAAIMMOH@operator?$DM?$DN?$DO@ 10021204     libvcruntime:undname.obj
 0002:00002210       ??_C@_0BC@DAFEJGAK@?5Type?5Descriptor?8@ 10021210     libvcruntime:undname.obj
 0002:00002224       ??_C@_0BM@LDKODKLH@?5Base?5Class?5Descriptor?5at?5?$CI@ 10021224     libvcruntime:undname.obj
 0002:00002240       ??_C@_0BD@LGICGFMM@?5Base?5Class?5Array?8@ 10021240     libvcruntime:undname.obj
 0002:00002254       ??_C@_0BN@MECKDCOJ@?5Class?5Hierarchy?5Descriptor?8@ 10021254     libvcruntime:undname.obj
 0002:00002274       ??_C@_0BK@CFCOFLF@?5Complete?5Object?5Locator?8@ 10021274     libvcruntime:undname.obj
 0002:00002290       ??_C@_0BG@JNJLAMPM@?$GAanonymous?5namespace?8@ 10021290     libvcruntime:undname.obj
 0002:000022b4       ??_C@_1DM@KHCHBNEB@?$AAa?$AAp?$AAi?$AA?9?$AAm?$AAs?$AA?9?$AAw?$AAi?$AAn?$AA?9?$AAc?$AAo?$AAr?$AAe@ 100212b4     libvcruntime:winapi_downlevel.obj
 0002:000022f0       ??_C@_1DK@LPPGFMPP@?$AAa?$AAp?$AAi?$AA?9?$AAm?$AAs?$AA?9?$AAw?$AAi?$AAn?$AA?9?$AAc?$AAo?$AAr?$AAe@ 100212f0     libvcruntime:winapi_downlevel.obj
 0002:0000232c       ??_C@_1BC@GDMECMAK@?$AAk?$AAe?$AAr?$AAn?$AAe?$AAl?$AA3?$AA2@ 1002132c     libvcruntime:winapi_downlevel.obj
 0002:00002340       ??_C@_1BA@PFFKHIOG@?$AAa?$AAp?$AAi?$AA?9?$AAm?$AAs?$AA?9@ 10021340     libvcruntime:winapi_downlevel.obj
 0002:00002358       ??_C@_08KNHFBNJ@FlsAlloc@  10021358     libvcruntime:winapi_downlevel.obj
 0002:0000236c       ??_C@_07PEJMOBNF@FlsFree@  1002136c     libvcruntime:winapi_downlevel.obj
 0002:0000237c       ??_C@_0M@GDNOONDI@FlsGetValue@ 1002137c     libvcruntime:winapi_downlevel.obj
 0002:00002390       ??_C@_0M@JCPCPOEF@FlsSetValue@ 10021390     libvcruntime:winapi_downlevel.obj
 0002:000023a4       ??_C@_0BM@HCFOFFN@InitializeCriticalSectionEx@ 100213a4     libvcruntime:winapi_downlevel.obj
 0002:00002528       _format_validation_lookup_table 10021528     libucrt:output.obj
 0002:00002584       ??_C@_1O@CEDCILHN@?$AA?$CI?$AAn?$AAu?$AAl?$AAl?$AA?$CJ@ 10021584     libucrt:output.obj
 0002:00002594       ??_C@_06OJHGLDPL@?$CInull?$CJ@ 10021594     libucrt:output.obj
 0002:000025a0       ___acrt_exception_action_table 100215a0     libucrt:exception_filter.obj
 0002:00002630       ___acrt_signal_action_table_count 10021630     libucrt:exception_filter.obj
 0002:00002634       ___acrt_signal_action_first_fpe_index 10021634     libucrt:exception_filter.obj
 0002:00002638       ___acrt_signal_action_fpe_count 10021638     libucrt:exception_filter.obj
 0002:0000263c       ??_C@_1BI@BGOHAHKC@?$AAm?$AAs?$AAc?$AAo?$AAr?$AAe?$AAe?$AA?4?$AAd?$AAl?$AAl@ 1002163c     libucrt:exit.obj
 0002:00002654       ??_C@_0P@MIGLKIOC@CorExitProcess@ 10021654     libucrt:exit.obj
 0002:00002738       ??_C@_1EA@JGEFHKEI@?$AAa?$AAp?$AAi?$AA?9?$AAm?$AAs?$AA?9?$AAw?$AAi?$AAn?$AA?9?$AAc?$AAo?$AAr?$AAe@ 10021738     libucrt:winapi_thunks.obj
 0002:00002778       ??_C@_1DI@IJCEHOCB@?$AAa?$AAp?$AAi?$AA?9?$AAm?$AAs?$AA?9?$AAw?$AAi?$AAn?$AA?9?$AAc?$AAo?$AAr?$AAe@ 10021778     libucrt:winapi_thunks.obj
 0002:000027b0       ??_C@_1EI@MPIAOHOC@?$AAa?$AAp?$AAi?$AA?9?$AAm?$AAs?$AA?9?$AAw?$AAi?$AAn?$AA?9?$AAc?$AAo?$AAr?$AAe@ 100217b0     libucrt:winapi_thunks.obj
 0002:000027f8       ??_C@_1FK@FPHCKFIE@?$AAa?$AAp?$AAi?$AA?9?$AAm?$AAs?$AA?9?$AAw?$AAi?$AAn?$AA?9?$AAc?$AAo?$AAr?$AAe@ 100217f8     libucrt:winapi_thunks.obj
 0002:00002858       ??_C@_1EM@DILCGIIO@?$AAa?$AAp?$AAi?$AA?9?$AAm?$AAs?$AA?9?$AAw?$AAi?$AAn?$AA?9?$AAc?$AAo?$AAr?$AAe@ 10021858     libucrt:winapi_thunks.obj
 0002:000028a4       ??_C@_1DM@LNCGDDPN@?$AAa?$AAp?$AAi?$AA?9?$AAm?$AAs?$AA?9?$AAw?$AAi?$AAn?$AA?9?$AAc?$AAo?$AAr?$AAe@ 100218a4     libucrt:winapi_thunks.obj
 0002:000028e0       ??_C@_1DO@FPAPJEMD@?$AAa?$AAp?$AAi?$AA?9?$AAm?$AAs?$AA?9?$AAw?$AAi?$AAn?$AA?9?$AAc?$AAo?$AAr?$AAe@ 100218e0     libucrt:winapi_thunks.obj
 0002:00002920       ??_C@_1DK@NDHNAHIO@?$AAa?$AAp?$AAi?$AA?9?$AAm?$AAs?$AA?9?$AAw?$AAi?$AAn?$AA?9?$AAc?$AAo?$AAr?$AAe@ 10021920     libucrt:winapi_thunks.obj
 0002:0000295c       ??_C@_1DM@KGHDGBCM@?$AAa?$AAp?$AAi?$AA?9?$AAm?$AAs?$AA?9?$AAw?$AAi?$AAn?$AA?9?$AAc?$AAo?$AAr?$AAe@ 1002195c     libucrt:winapi_thunks.obj
 0002:00002998       ??_C@_1EO@IJIOEFOH@?$AAa?$AAp?$AAi?$AA?9?$AAm?$AAs?$AA?9?$AAw?$AAi?$AAn?$AA?9?$AAr?$AAt?$AAc?$AAo@ 10021998     libucrt:winapi_thunks.obj
 0002:000029e8       ??_C@_1FG@HHGEKANL@?$AAa?$AAp?$AAi?$AA?9?$AAm?$AAs?$AA?9?$AAw?$AAi?$AAn?$AA?9?$AAs?$AAe?$AAc?$AAu@ 100219e8     libucrt:winapi_thunks.obj
 0002:00002a40       ??_C@_1EG@DBIOJECG@?$AAe?$AAx?$AAt?$AA?9?$AAm?$AAs?$AA?9?$AAw?$AAi?$AAn?$AA?9?$AAn?$AAt?$AAu?$AAs@ 10021a40     libucrt:winapi_thunks.obj
 0002:00002a88       ??_C@_1EO@FIHMJCLF@?$AAe?$AAx?$AAt?$AA?9?$AAm?$AAs?$AA?9?$AAw?$AAi?$AAn?$AA?9?$AAn?$AAt?$AAu?$AAs@ 10021a88     libucrt:winapi_thunks.obj
 0002:00002ad8       ??_C@_1BC@DNHGCMLG@?$AAa?$AAd?$AAv?$AAa?$AAp?$AAi?$AA3?$AA2@ 10021ad8     libucrt:winapi_thunks.obj
 0002:00002aec       ??_C@_1M@OAIMIKLP@?$AAn?$AAt?$AAd?$AAl?$AAl@ 10021aec     libucrt:winapi_thunks.obj
 0002:00002af8       ??_C@_1EG@DPGNFKGC@?$AAa?$AAp?$AAi?$AA?9?$AAm?$AAs?$AA?9?$AAw?$AAi?$AAn?$AA?9?$AAa?$AAp?$AAp?$AAm@ 10021af8     libucrt:winapi_thunks.obj
 0002:00002b40       ??_C@_1O@BCCLBEOE@?$AAu?$AAs?$AAe?$AAr?$AA3?$AA2@ 10021b40     libucrt:winapi_thunks.obj
 0002:00002b50       ??_C@_1BA@IAIFMGEF@?$AAe?$AAx?$AAt?$AA?9?$AAm?$AAs?$AA?9@ 10021b50     libucrt:winapi_thunks.obj
 0002:00002b64       ??_C@_0BA@FHFNEAED@AreFileApisANSI@ 10021b64     libucrt:winapi_thunks.obj
 0002:00002ba4       ??_C@_0O@KKBNKAPF@LCMapStringEx@ 10021ba4     libucrt:winapi_thunks.obj
 0002:00002bbc       ??_C@_0BB@HBDEELFH@LocaleNameToLCID@ 10021bbc     libucrt:winapi_thunks.obj
 0002:00002bd4       ??_C@_0CF@OJOFEIGO@AppPolicyGetProcessTerminationM@ 10021bd4     libucrt:winapi_thunks.obj
 0002:00002c04       ??_C@_0BI@BKLFFAPO@SetThreadStackGuarantee@ 10021c04     libucrt:winapi_thunks.obj
 0002:00002c60       ??_C@_03OEIAHPBN@INF@      10021c60     libucrt:cvt.obj
 0002:00002c64       ??_C@_03OJHLLCGB@inf@      10021c64     libucrt:cvt.obj
 0002:00002c68       ??_C@_03LKNCIKJB@NAN@      10021c68     libucrt:cvt.obj
 0002:00002c6c       ??_C@_03LHCJEHON@nan@      10021c6c     libucrt:cvt.obj
 0002:00002c70       ??_C@_09OFJJIMPC@NAN?$CISNAN?$CJ@ 10021c70     libucrt:cvt.obj
 0002:00002c7c       ??_C@_09IPFBKMDL@nan?$CIsnan?$CJ@ 10021c7c     libucrt:cvt.obj
 0002:00002c88       ??_C@_08IKHNHAJ@NAN?$CIIND?$CJ@ 10021c88     libucrt:cvt.obj
 0002:00002c94       ??_C@_08OFCDMILK@nan?$CIind?$CJ@ 10021c94     libucrt:cvt.obj
 0002:00002ca0       ??_C@_05KLBDPFGC@e?$CL000@ 10021ca0     libucrt:cvt.obj
 0002:00002ca8       ___lc_time_c               10021ca8     libucrt:nlsdata.obj
 0002:00002e0c       ??_C@_03KOEHGMDN@Sun@      10021e0c     libucrt:nlsdata.obj
 0002:00002e10       ??_C@_03PDAGKDH@Mon@       10021e10     libucrt:nlsdata.obj
 0002:00002e14       ??_C@_03NAGEINEP@Tue@      10021e14     libucrt:nlsdata.obj
 0002:00002e18       ??_C@_03MHOMLAJA@Wed@      10021e18     libucrt:nlsdata.obj
 0002:00002e1c       ??_C@_03IOFIKPDN@Thu@      10021e1c     libucrt:nlsdata.obj
 0002:00002e20       ??_C@_03IDIOELNC@Fri@      10021e20     libucrt:nlsdata.obj
 0002:00002e24       ??_C@_03FEFJNEK@Sat@       10021e24     libucrt:nlsdata.obj
 0002:00002e28       ??_C@_06OOPIFAJ@Sunday@    10021e28     libucrt:nlsdata.obj
 0002:00002e30       ??_C@_06JLEDEDGH@Monday@   10021e30     libucrt:nlsdata.obj
 0002:00002e38       ??_C@_07BAAGCFCM@Tuesday@  10021e38     libucrt:nlsdata.obj
 0002:00002e40       ??_C@_09DLIGFAKA@Wednesday@ 10021e40     libucrt:nlsdata.obj
 0002:00002e4c       ??_C@_08HACCIKIA@Thursday@ 10021e4c     libucrt:nlsdata.obj
 0002:00002e58       ??_C@_06JECMNKMI@Friday@   10021e58     libucrt:nlsdata.obj
 0002:00002e60       ??_C@_08INBOOONO@Saturday@ 10021e60     libucrt:nlsdata.obj
 0002:00002e6c       ??_C@_03JIHJHPIE@Jan@      10021e6c     libucrt:nlsdata.obj
 0002:00002e70       ??_C@_03HJBDCHOM@Feb@      10021e70     libucrt:nlsdata.obj
 0002:00002e74       ??_C@_03ODNJBKGA@Mar@      10021e74     libucrt:nlsdata.obj
 0002:00002e78       ??_C@_03LEOLGMJP@Apr@      10021e78     libucrt:nlsdata.obj
 0002:00002e7c       ??_C@_03CNMDKL@May@        10021e7c     libucrt:nlsdata.obj
 0002:00002e80       ??_C@_03IDFGHECI@Jun@      10021e80     libucrt:nlsdata.obj
 0002:00002e84       ??_C@_03LBGABGKK@Jul@      10021e84     libucrt:nlsdata.obj
 0002:00002e88       ??_C@_03IFJFEIGA@Aug@      10021e88     libucrt:nlsdata.obj
 0002:00002e8c       ??_C@_03GGCAPAJC@Sep@      10021e8c     libucrt:nlsdata.obj
 0002:00002e90       ??_C@_03BMAOKBAD@Oct@      10021e90     libucrt:nlsdata.obj
 0002:00002e94       ??_C@_03JPJOFNIA@Nov@      10021e94     libucrt:nlsdata.obj
 0002:00002e98       ??_C@_03MKABNOCG@Dec@      10021e98     libucrt:nlsdata.obj
 0002:00002e9c       ??_C@_07CGJPFGJA@January@  10021e9c     libucrt:nlsdata.obj
 0002:00002ea4       ??_C@_08GNJGEPFN@February@ 10021ea4     libucrt:nlsdata.obj
 0002:00002eb0       ??_C@_05HPCKOFNC@March@    10021eb0     libucrt:nlsdata.obj
 0002:00002eb8       ??_C@_05DMJDNLEJ@April@    10021eb8     libucrt:nlsdata.obj
 0002:00002ec0       ??_C@_04CNLMGBGM@June@     10021ec0     libucrt:nlsdata.obj
 0002:00002ec8       ??_C@_04MIEPOIFP@July@     10021ec8     libucrt:nlsdata.obj
 0002:00002ed0       ??_C@_06LBBHFDDG@August@   10021ed0     libucrt:nlsdata.obj
 0002:00002ed8       ??_C@_09BHHEALKD@September@ 10021ed8     libucrt:nlsdata.obj
 0002:00002ee4       ??_C@_07JJNFCEND@October@  10021ee4     libucrt:nlsdata.obj
 0002:00002eec       ??_C@_08HCHEGEOA@November@ 10021eec     libucrt:nlsdata.obj
 0002:00002ef8       ??_C@_08EDHMEBNP@December@ 10021ef8     libucrt:nlsdata.obj
 0002:00002f04       ??_C@_02DEDBPAFC@AM@       10021f04     libucrt:nlsdata.obj
 0002:00002f08       ??_C@_02CJNFDJBF@PM@       10021f08     libucrt:nlsdata.obj
 0002:00002f0c       ??_C@_08BPBNCDIB@MM?1dd?1yy@ 10021f0c     libucrt:nlsdata.obj
 0002:00002f18       ??_C@_0BE@CKGJFCPC@dddd?0?5MMMM?5dd?0?5yyyy@ 10021f18     libucrt:nlsdata.obj
 0002:00002f2c       ??_C@_08JCCMCCIL@HH?3mm?3ss@ 10021f2c     libucrt:nlsdata.obj
 0002:00002f38       ??_C@_17MBGCMIPB@?$AAS?$AAu?$AAn@ 10021f38     libucrt:nlsdata.obj
 0002:00002f40       ??_C@_17KBOMKBF@?$AAM?$AAo?$AAn@ 10021f40     libucrt:nlsdata.obj
 0002:00002f48       ??_C@_17BMKGEGOJ@?$AAT?$AAu?$AAe@ 10021f48     libucrt:nlsdata.obj
 0002:00002f50       ??_C@_17CJEDCEPE@?$AAW?$AAe?$AAd@ 10021f50     libucrt:nlsdata.obj
 0002:00002f58       ??_C@_17PDPHAADD@?$AAT?$AAh?$AAu@ 10021f58     libucrt:nlsdata.obj
 0002:00002f60       ??_C@_17HFOLPPLP@?$AAF?$AAr?$AAi@ 10021f60     libucrt:nlsdata.obj
 0002:00002f68       ??_C@_17GGIBDPIH@?$AAS?$AAa?$AAt@ 10021f68     libucrt:nlsdata.obj
 0002:00002f70       ??_C@_1O@IHNHDHPB@?$AAS?$AAu?$AAn?$AAd?$AAa?$AAy@ 10021f70     libucrt:nlsdata.obj
 0002:00002f80       ??_C@_1O@MMNBFLIA@?$AAM?$AAo?$AAn?$AAd?$AAa?$AAy@ 10021f80     libucrt:nlsdata.obj
 0002:00002f90       ??_C@_1BA@ENFBFFEK@?$AAT?$AAu?$AAe?$AAs?$AAd?$AAa?$AAy@ 10021f90     libucrt:nlsdata.obj
 0002:00002fa0       ??_C@_1BE@EBOGMDOH@?$AAW?$AAe?$AAd?$AAn?$AAe?$AAs?$AAd?$AAa?$AAy@ 10021fa0     libucrt:nlsdata.obj
 0002:00002fb4       ??_C@_1BC@HHMNLIHE@?$AAT?$AAh?$AAu?$AAr?$AAs?$AAd?$AAa?$AAy@ 10021fb4     libucrt:nlsdata.obj
 0002:00002fc8       ??_C@_1O@PDICJHAG@?$AAF?$AAr?$AAi?$AAd?$AAa?$AAy@ 10021fc8     libucrt:nlsdata.obj
 0002:00002fd8       ??_C@_1BC@ENMNNPAJ@?$AAS?$AAa?$AAt?$AAu?$AAr?$AAd?$AAa?$AAy@ 10021fd8     libucrt:nlsdata.obj
 0002:00002fec       ??_C@_17DKNBKCHM@?$AAJ?$AAa?$AAn@ 10021fec     libucrt:nlsdata.obj
 0002:00002ff4       ??_C@_17LMDJEKJN@?$AAF?$AAe?$AAb@ 10021ff4     libucrt:nlsdata.obj
 0002:00002ffc       ??_C@_17CKNLEDEC@?$AAM?$AAa?$AAr@ 10021ffc     libucrt:nlsdata.obj
 0002:00003004       ??_C@_17LFPOIHDD@?$AAA?$AAp?$AAr@ 10022004     libucrt:nlsdata.obj
 0002:0000300c       ??_C@_17PNNKMEED@?$AAM?$AAa?$AAy@ 1002200c     libucrt:nlsdata.obj
 0002:00003014       ??_C@_17KCJGOCPB@?$AAJ?$AAu?$AAn@ 10022014     libucrt:nlsdata.obj
 0002:0000301c       ??_C@_17IJPCKHK@?$AAJ?$AAu?$AAl@ 1002201c     libucrt:nlsdata.obj
 0002:00003024       ??_C@_17ICPELBCN@?$AAA?$AAu?$AAg@ 10022024     libucrt:nlsdata.obj
 0002:0000302c       ??_C@_17HCHCOKMG@?$AAS?$AAe?$AAp@ 1002202c     libucrt:nlsdata.obj
 0002:00003034       ??_C@_17FNLKOI@?$AAO?$AAc?$AAt@ 10022034     libucrt:nlsdata.obj
 0002:0000303c       ??_C@_17BBDMLCIG@?$AAN?$AAo?$AAv@ 1002203c     libucrt:nlsdata.obj
 0002:00003044       ??_C@_17EGKACKIF@?$AAD?$AAe?$AAc@ 10022044     libucrt:nlsdata.obj
 0002:0000304c       ??_C@_1BA@EFMEIEBA@?$AAJ?$AAa?$AAn?$AAu?$AAa?$AAr?$AAy@ 1002204c     libucrt:nlsdata.obj
 0002:0000305c       ??_C@_1BC@JGDDFFAM@?$AAF?$AAe?$AAb?$AAr?$AAu?$AAa?$AAr?$AAy@ 1002205c     libucrt:nlsdata.obj
 0002:00003070       ??_C@_1M@IKEENEDF@?$AAM?$AAa?$AAr?$AAc?$AAh@ 10022070     libucrt:nlsdata.obj
 0002:0000307c       ??_C@_1M@GJNLMHFD@?$AAA?$AAp?$AAr?$AAi?$AAl@ 1002207c     libucrt:nlsdata.obj
 0002:00003088       ??_C@_19EPFLPGAP@?$AAJ?$AAu?$AAn?$AAe@ 10022088     libucrt:nlsdata.obj
 0002:00003094       ??_C@_19BIFMLPCD@?$AAJ?$AAu?$AAl?$AAy@ 10022094     libucrt:nlsdata.obj
 0002:000030a0       ??_C@_1O@PAHLKOAC@?$AAA?$AAu?$AAg?$AAu?$AAs?$AAt@ 100220a0     libucrt:nlsdata.obj
 0002:000030b0       ??_C@_1BE@DKAAMBJL@?$AAS?$AAe?$AAp?$AAt?$AAe?$AAm?$AAb?$AAe?$AAr@ 100220b0     libucrt:nlsdata.obj
 0002:000030c4       ??_C@_1BA@EPANDLNG@?$AAO?$AAc?$AAt?$AAo?$AAb?$AAe?$AAr@ 100220c4     libucrt:nlsdata.obj
 0002:000030d4       ??_C@_1BC@BGLIFPF@?$AAN?$AAo?$AAv?$AAe?$AAm?$AAb?$AAe?$AAr@ 100220d4     libucrt:nlsdata.obj
 0002:000030e8       ??_C@_1BC@FEMKIFH@?$AAD?$AAe?$AAc?$AAe?$AAm?$AAb?$AAe?$AAr@ 100220e8     libucrt:nlsdata.obj
 0002:000030fc       ??_C@_15ODEHAHHF@?$AAA?$AAM@ 100220fc     libucrt:nlsdata.obj
 0002:00003104       ??_C@_15CLMNNGEL@?$AAP?$AAM@ 10022104     libucrt:nlsdata.obj
 0002:0000310c       ??_C@_1BC@IEBCMHCM@?$AAM?$AAM?$AA?1?$AAd?$AAd?$AA?1?$AAy?$AAy@ 1002210c     libucrt:nlsdata.obj
 0002:00003120       ??_C@_1CI@KNAKOEBC@?$AAd?$AAd?$AAd?$AAd?$AA?0?$AA?5?$AAM?$AAM?$AAM?$AAM?$AA?5?$AAd?$AAd?$AA?0?$AA?5@ 10022120     libucrt:nlsdata.obj
 0002:00003148       ??_C@_1BC@GDGBMEMK@?$AAH?$AAH?$AA?3?$AAm?$AAm?$AA?3?$AAs?$AAs@ 10022148     libucrt:nlsdata.obj
 0002:0000315c       ??_C@_1M@BMHNFIME@?$AAe?$AAn?$AA?9?$AAU?$AAS@ 1002215c     libucrt:nlsdata.obj
 0002:00003178       ??_C@_1M@HPNHIDJI@?$AAj?$AAa?$AA?9?$AAJ?$AAP@ 10022178     libucrt:mbctype.obj
 0002:00003184       ??_C@_1M@BIBDDEMK@?$AAz?$AAh?$AA?9?$AAC?$AAN@ 10022184     libucrt:mbctype.obj
 0002:00003190       ??_C@_1M@JLOOOEGK@?$AAk?$AAo?$AA?9?$AAK?$AAR@ 10022190     libucrt:mbctype.obj
 0002:0000319c       ??_C@_1M@CLNBBOPM@?$AAz?$AAh?$AA?9?$AAT?$AAW@ 1002219c     libucrt:mbctype.obj
 0002:000031a8       ___newctype                100221a8     libucrt:ctype.obj
 0002:000034a8       ___newclmap                100224a8     libucrt:ctype.obj
 0002:00003628       ___newcumap                10022628     libucrt:ctype.obj
 0002:000037a8       __wctype                   100227a8     libucrt:ctype.obj
 0002:000040d0       ??_C@_15EMKDOKLE@?$AAa?$AAr@ 100230d0     libucrt:lcidtoname_downlevel.obj
 0002:000040d8       ??_C@_15KNPADPLH@?$AAb?$AAg@ 100230d8     libucrt:lcidtoname_downlevel.obj
 0002:000040e0       ??_C@_15EDMHLDMO@?$AAc?$AAa@ 100230e0     libucrt:lcidtoname_downlevel.obj
 0002:000040e8       ??_C@_1O@BPEAJADD@?$AAz?$AAh?$AA?9?$AAC?$AAH?$AAS@ 100230e8     libucrt:lcidtoname_downlevel.obj
 0002:000040f8       ??_C@_15LJNHCMNK@?$AAc?$AAs@ 100230f8     libucrt:lcidtoname_downlevel.obj
 0002:00004100       ??_C@_15FOMCIDHG@?$AAd?$AAa@ 10023100     libucrt:lcidtoname_downlevel.obj
 0002:00004108       ??_C@_15NBKABECB@?$AAd?$AAe@ 10023108     libucrt:lcidtoname_downlevel.obj
 0002:00004110       ??_C@_15GHPEIIAO@?$AAe?$AAl@ 10023110     libucrt:lcidtoname_downlevel.obj
 0002:00004118       ??_C@_15MNPNEAIF@?$AAe?$AAn@ 10023118     libucrt:lcidtoname_downlevel.obj
 0002:00004120       ??_C@_15GPIOMPMH@?$AAe?$AAs@ 10023120     libucrt:lcidtoname_downlevel.obj
 0002:00004128       ??_C@_15NGLOAKJC@?$AAf?$AAi@ 10023128     libucrt:lcidtoname_downlevel.obj
 0002:00004130       ??_C@_15FBKGNKAM@?$AAf?$AAr@ 10023130     libucrt:lcidtoname_downlevel.obj
 0002:00004138       ??_C@_15KGGCNEFK@?$AAh?$AAe@ 10023138     libucrt:lcidtoname_downlevel.obj
 0002:00004140       ??_C@_15PGHLIDMF@?$AAh?$AAu@ 10023140     libucrt:lcidtoname_downlevel.obj
 0002:00004148       ??_C@_15BIEMAPLM@?$AAi?$AAs@ 10023148     libucrt:lcidtoname_downlevel.obj
 0002:00004150       ??_C@_15IFJLDHAF@?$AAi?$AAt@ 10023150     libucrt:lcidtoname_downlevel.obj
 0002:00004158       ??_C@_15GEMIOCAG@?$AAj?$AAa@ 10023158     libucrt:lcidtoname_downlevel.obj
 0002:00004160       ??_C@_15EPELEGJA@?$AAk?$AAo@ 10023160     libucrt:lcidtoname_downlevel.obj
 0002:00004168       ??_C@_15NDDHIMN@?$AAn?$AAl@ 10023168     libucrt:lcidtoname_downlevel.obj
 0002:00004170       ??_C@_15BPIGNHCD@?$AAn?$AAo@ 10023170     libucrt:lcidtoname_downlevel.obj
 0002:00004178       ??_C@_15DEOPBLCG@?$AAp?$AAl@ 10023178     libucrt:lcidtoname_downlevel.obj
 0002:00004180       ??_C@_15KBECGEFG@?$AAp?$AAt@ 10023180     libucrt:lcidtoname_downlevel.obj
 0002:00004188       ??_C@_15GLJCBFMD@?$AAr?$AAo@ 10023188     libucrt:lcidtoname_downlevel.obj
 0002:00004190       ??_C@_15FEDGKCDI@?$AAr?$AAu@ 10023190     libucrt:lcidtoname_downlevel.obj
 0002:00004198       ??_C@_15GLKMLLHM@?$AAh?$AAr@ 10023198     libucrt:lcidtoname_downlevel.obj
 0002:000041a0       ??_C@_15CPKMFBDB@?$AAs?$AAk@ 100231a0     libucrt:lcidtoname_downlevel.obj
 0002:000041a8       ??_C@_15BAAIOGMK@?$AAs?$AAq@ 100231a8     libucrt:lcidtoname_downlevel.obj
 0002:000041b0       ??_C@_15INNPNOHD@?$AAs?$AAv@ 100231b0     libucrt:lcidtoname_downlevel.obj
 0002:000041b8       ??_C@_15CABMMOGH@?$AAt?$AAh@ 100231b8     libucrt:lcidtoname_downlevel.obj
 0002:000041c0       ??_C@_15BPLIHJJM@?$AAt?$AAr@ 100231c0     libucrt:lcidtoname_downlevel.obj
 0002:000041c8       ??_C@_15NEOEKKDJ@?$AAu?$AAr@ 100231c8     libucrt:lcidtoname_downlevel.obj
 0002:000041d0       ??_C@_15NFICGAJK@?$AAi?$AAd@ 100231d0     libucrt:lcidtoname_downlevel.obj
 0002:000041d8       ??_C@_15PJPFLCCM@?$AAu?$AAk@ 100231d8     libucrt:lcidtoname_downlevel.obj
 0002:000041e0       ??_C@_15HPJPHDM@?$AAb?$AAe@ 100231e0     libucrt:lcidtoname_downlevel.obj
 0002:000041e8       ??_C@_15LCHLGJII@?$AAs?$AAl@ 100231e8     libucrt:lcidtoname_downlevel.obj
 0002:000041f0       ??_C@_15PCFJPHHO@?$AAe?$AAt@ 100231f0     libucrt:lcidtoname_downlevel.obj
 0002:000041f8       ??_C@_15HPFPGODN@?$AAl?$AAv@ 100231f8     libucrt:lcidtoname_downlevel.obj
 0002:00004200       ??_C@_15NFFGKGLG@?$AAl?$AAt@ 10023200     libucrt:lcidtoname_downlevel.obj
 0002:00004208       ??_C@_15BDAKCCHN@?$AAf?$AAa@ 10023208     libucrt:lcidtoname_downlevel.obj
 0002:00004210       ??_C@_15NFGIAIAJ@?$AAv?$AAi@ 10023210     libucrt:lcidtoname_downlevel.obj
 0002:00004218       ??_C@_15LMKNDMHN@?$AAh?$AAy@ 10023218     libucrt:lcidtoname_downlevel.obj
 0002:00004220       ??_C@_15IJBHMCFL@?$AAa?$AAz@ 10023220     libucrt:lcidtoname_downlevel.obj
 0002:00004228       ??_C@_15EKOFJABL@?$AAe?$AAu@ 10023228     libucrt:lcidtoname_downlevel.obj
 0002:00004230       ??_C@_15BGHADCNK@?$AAm?$AAk@ 10023230     libucrt:lcidtoname_downlevel.obj
 0002:00004238       ??_C@_15JDNICKHM@?$AAa?$AAf@ 10023238     libucrt:lcidtoname_downlevel.obj
 0002:00004240       ??_C@_15KPJEDBKD@?$AAk?$AAa@ 10023240     libucrt:lcidtoname_downlevel.obj
 0002:00004248       ??_C@_15PDNFFFEO@?$AAf?$AAo@ 10023248     libucrt:lcidtoname_downlevel.obj
 0002:00004250       ??_C@_15OMLEGLOC@?$AAh?$AAi@ 10023250     libucrt:lcidtoname_downlevel.obj
 0002:00004258       ??_C@_15IDNNENKK@?$AAm?$AAs@ 10023258     libucrt:lcidtoname_downlevel.obj
 0002:00004260       ??_C@_15MACJNBMH@?$AAk?$AAk@ 10023260     libucrt:lcidtoname_downlevel.obj
 0002:00004268       ??_C@_15DKDJEOND@?$AAk?$AAy@ 10023268     libucrt:lcidtoname_downlevel.obj
 0002:00004270       ??_C@_15DFGDLJBG@?$AAs?$AAw@ 10023270     libucrt:lcidtoname_downlevel.obj
 0002:00004278       ??_C@_15BBFAICNG@?$AAu?$AAz@ 10023278     libucrt:lcidtoname_downlevel.obj
 0002:00004280       ??_C@_15DKNDCGEA@?$AAt?$AAt@ 10023280     libucrt:lcidtoname_downlevel.obj
 0002:00004288       ??_C@_15MGIFMDPL@?$AAp?$AAa@ 10023288     libucrt:lcidtoname_downlevel.obj
 0002:00004290       ??_C@_15HCNDBBA@?$AAg?$AAu@ 10023290     libucrt:lcidtoname_downlevel.obj
 0002:00004298       ??_C@_15FNBEIBON@?$AAt?$AAa@ 10023298     libucrt:lcidtoname_downlevel.obj
 0002:000042a0       ??_C@_15NCHGBGLK@?$AAt?$AAe@ 100232a0     libucrt:lcidtoname_downlevel.obj
 0002:000042a8       ??_C@_15PHPHCBPF@?$AAk?$AAn@ 100232a8     libucrt:lcidtoname_downlevel.obj
 0002:000042b0       ??_C@_15DLGBCKMP@?$AAm?$AAr@ 100232b0     libucrt:lcidtoname_downlevel.obj
 0002:000042b8       ??_C@_15EABBLBFF@?$AAs?$AAa@ 100232b8     libucrt:lcidtoname_downlevel.obj
 0002:000042c0       ??_C@_15CBKOMCOI@?$AAm?$AAn@ 100232c0     libucrt:lcidtoname_downlevel.obj
 0002:000042c8       ??_C@_15CKDMCJAF@?$AAg?$AAl@ 100232c8     libucrt:lcidtoname_downlevel.obj
 0002:000042d0       ??_C@_17CNJFBPG@?$AAk?$AAo?$AAk@ 100232d0     libucrt:lcidtoname_downlevel.obj
 0002:000042d8       ??_C@_17FFBJICPL@?$AAs?$AAy?$AAr@ 100232d8     libucrt:lcidtoname_downlevel.obj
 0002:000042e0       ??_C@_17KPNDCPAF@?$AAd?$AAi?$AAv@ 100232e0     libucrt:lcidtoname_downlevel.obj
 0002:000042e8       ??_C@_1M@OKAHONE@?$AAa?$AAr?$AA?9?$AAS?$AAA@ 100232e8     libucrt:lcidtoname_downlevel.obj
 0002:000042f4       ??_C@_1M@FFFIGIGK@?$AAb?$AAg?$AA?9?$AAB?$AAG@ 100232f4     libucrt:lcidtoname_downlevel.obj
 0002:00004300       ??_C@_1M@BJNKEDC@?$AAc?$AAa?$AA?9?$AAE?$AAS@ 10023300     libucrt:lcidtoname_downlevel.obj
 0002:0000430c       ??_C@_1M@IJJHFJHA@?$AAc?$AAs?$AA?9?$AAC?$AAZ@ 1002330c     libucrt:lcidtoname_downlevel.obj
 0002:00004318       ??_C@_1M@CLPEOBGI@?$AAd?$AAa?$AA?9?$AAD?$AAK@ 10023318     libucrt:lcidtoname_downlevel.obj
 0002:00004324       ??_C@_1M@MCMADGCB@?$AAd?$AAe?$AA?9?$AAD?$AAE@ 10023324     libucrt:lcidtoname_downlevel.obj
 0002:00004330       ??_C@_1M@OOCKEMAM@?$AAe?$AAl?$AA?9?$AAG?$AAR@ 10023330     libucrt:lcidtoname_downlevel.obj
 0002:0000433c       ??_C@_1M@DDNJFGID@?$AAf?$AAi?$AA?9?$AAF?$AAI@ 1002333c     libucrt:lcidtoname_downlevel.obj
 0002:00004348       ??_C@_1M@GLIPPMAC@?$AAf?$AAr?$AA?9?$AAF?$AAR@ 10023348     libucrt:lcidtoname_downlevel.obj
 0002:00004354       ??_C@_1M@GFMCHPE@?$AAh?$AAe?$AA?9?$AAI?$AAL@ 10023354     libucrt:lcidtoname_downlevel.obj
 0002:00004360       ??_C@_1M@MHLPGNKM@?$AAh?$AAu?$AA?9?$AAH?$AAU@ 10023360     libucrt:lcidtoname_downlevel.obj
 0002:0000436c       ??_C@_1M@LPDDNNPN@?$AAi?$AAs?$AA?9?$AAI?$AAS@ 1002336c     libucrt:lcidtoname_downlevel.obj
 0002:00004378       ??_C@_1M@MADIPODN@?$AAi?$AAt?$AA?9?$AAI?$AAT@ 10023378     libucrt:lcidtoname_downlevel.obj
 0002:00004384       ??_C@_1M@IHBJJGG@?$AAn?$AAl?$AA?9?$AAN?$AAL@ 10023384     libucrt:lcidtoname_downlevel.obj
 0002:00004390       ??_C@_1M@EANAGDL@?$AAn?$AAb?$AA?9?$AAN?$AAO@ 10023390     libucrt:lcidtoname_downlevel.obj
 0002:0000439c       ??_C@_1M@NEIEMEGP@?$AAp?$AAl?$AA?9?$AAP?$AAL@ 1002339c     libucrt:lcidtoname_downlevel.obj
 0002:000043a8       ??_C@_1M@BOCFIGEP@?$AAp?$AAt?$AA?9?$AAB?$AAR@ 100233a8     libucrt:lcidtoname_downlevel.obj
 0002:000043b4       ??_C@_1M@IMPFOPBG@?$AAr?$AAo?$AA?9?$AAR?$AAO@ 100233b4     libucrt:lcidtoname_downlevel.obj
 0002:000043c0       ??_C@_1M@IDNNEJMM@?$AAr?$AAu?$AA?9?$AAR?$AAU@ 100233c0     libucrt:lcidtoname_downlevel.obj
 0002:000043cc       ??_C@_1M@LILEEOGM@?$AAh?$AAr?$AA?9?$AAH?$AAR@ 100233cc     libucrt:lcidtoname_downlevel.obj
 0002:000043d8       ??_C@_1M@FKIFEHPB@?$AAs?$AAk?$AA?9?$AAS?$AAK@ 100233d8     libucrt:lcidtoname_downlevel.obj
 0002:000043e4       ??_C@_1M@LJMAMNPJ@?$AAs?$AAq?$AA?9?$AAA?$AAL@ 100233e4     libucrt:lcidtoname_downlevel.obj
 0002:000043f0       ??_C@_1M@GIAKDKJK@?$AAs?$AAv?$AA?9?$AAS?$AAE@ 100233f0     libucrt:lcidtoname_downlevel.obj
 0002:000043fc       ??_C@_1M@MKJKIKCL@?$AAt?$AAh?$AA?9?$AAT?$AAH@ 100233fc     libucrt:lcidtoname_downlevel.obj
 0002:00004408       ??_C@_1M@MFLCCMPB@?$AAt?$AAr?$AA?9?$AAT?$AAR@ 10023408     libucrt:lcidtoname_downlevel.obj
 0002:00004414       ??_C@_1M@OIJHDKJN@?$AAu?$AAr?$AA?9?$AAP?$AAK@ 10023414     libucrt:lcidtoname_downlevel.obj
 0002:00004420       ??_C@_1M@LHIPCIEK@?$AAi?$AAd?$AA?9?$AAI?$AAD@ 10023420     libucrt:lcidtoname_downlevel.obj
 0002:0000442c       ??_C@_1M@MFMOBGI@?$AAu?$AAk?$AA?9?$AAU?$AAA@ 1002342c     libucrt:lcidtoname_downlevel.obj
 0002:00004438       ??_C@_1M@OBGLJIPL@?$AAb?$AAe?$AA?9?$AAB?$AAY@ 10023438     libucrt:lcidtoname_downlevel.obj
 0002:00004444       ??_C@_1M@BCFAJEAD@?$AAs?$AAl?$AA?9?$AAS?$AAI@ 10023444     libucrt:lcidtoname_downlevel.obj
 0002:00004450       ??_C@_1M@FKFFEDDN@?$AAe?$AAt?$AA?9?$AAE?$AAE@ 10023450     libucrt:lcidtoname_downlevel.obj
 0002:0000445c       ??_C@_1M@KGKKAACI@?$AAl?$AAv?$AA?9?$AAL?$AAV@ 1002345c     libucrt:lcidtoname_downlevel.obj
 0002:00004468       ??_C@_1M@IFGBIJO@?$AAl?$AAt?$AA?9?$AAL?$AAT@ 10023468     libucrt:lcidtoname_downlevel.obj
 0002:00004474       ??_C@_1M@FGEAHEDM@?$AAf?$AAa?$AA?9?$AAI?$AAR@ 10023474     libucrt:lcidtoname_downlevel.obj
 0002:00004480       ??_C@_1M@KBMAIBFN@?$AAv?$AAi?$AA?9?$AAV?$AAN@ 10023480     libucrt:lcidtoname_downlevel.obj
 0002:0000448c       ??_C@_1M@GPCBKDJK@?$AAh?$AAy?$AA?9?$AAA?$AAM@ 1002348c     libucrt:lcidtoname_downlevel.obj
 0002:00004498       ??_C@_1BG@BECMDDJB@?$AAa?$AAz?$AA?9?$AAA?$AAZ?$AA?9?$AAL?$AAa?$AAt?$AAn@ 10023498     libucrt:lcidtoname_downlevel.obj
 0002:000044b0       ??_C@_1M@MAOFCAEA@?$AAe?$AAu?$AA?9?$AAE?$AAS@ 100234b0     libucrt:lcidtoname_downlevel.obj
 0002:000044bc       ??_C@_1M@IGHABKPI@?$AAm?$AAk?$AA?9?$AAM?$AAK@ 100234bc     libucrt:lcidtoname_downlevel.obj
 0002:000044c8       ??_C@_1M@IAIGNEJG@?$AAt?$AAn?$AA?9?$AAZ?$AAA@ 100234c8     libucrt:lcidtoname_downlevel.obj
 0002:000044d4       ??_C@_1M@IIJCOJFA@?$AAx?$AAh?$AA?9?$AAZ?$AAA@ 100234d4     libucrt:lcidtoname_downlevel.obj
 0002:000044e0       ??_C@_1M@LGPJHNJH@?$AAz?$AAu?$AA?9?$AAZ?$AAA@ 100234e0     libucrt:lcidtoname_downlevel.obj
 0002:000044ec       ??_C@_1M@HOKAOIO@?$AAa?$AAf?$AA?9?$AAZ?$AAA@ 100234ec     libucrt:lcidtoname_downlevel.obj
 0002:000044f8       ??_C@_1M@DPCLHLIE@?$AAk?$AAa?$AA?9?$AAG?$AAE@ 100234f8     libucrt:lcidtoname_downlevel.obj
 0002:00004504       ??_C@_1M@BLKMHJBI@?$AAf?$AAo?$AA?9?$AAF?$AAO@ 10023504     libucrt:lcidtoname_downlevel.obj
 0002:00004510       ??_C@_1M@LGGJAPPB@?$AAh?$AAi?$AA?9?$AAI?$AAN@ 10023510     libucrt:lcidtoname_downlevel.obj
 0002:0000451c       ??_C@_1M@FIKPIHFE@?$AAm?$AAt?$AA?9?$AAM?$AAT@ 1002351c     libucrt:lcidtoname_downlevel.obj
 0002:00004528       ??_C@_1M@HEGGPBFA@?$AAs?$AAe?$AA?9?$AAN?$AAO@ 10023528     libucrt:lcidtoname_downlevel.obj
 0002:00004534       ??_C@_1M@EIBJEEPA@?$AAm?$AAs?$AA?9?$AAM?$AAY@ 10023534     libucrt:lcidtoname_downlevel.obj
 0002:00004540       ??_C@_1M@FHLBGMPP@?$AAk?$AAk?$AA?9?$AAK?$AAZ@ 10023540     libucrt:lcidtoname_downlevel.obj
 0002:0000454c       ??_C@_1M@NGJJLCGI@?$AAk?$AAy?$AA?9?$AAK?$AAG@ 1002354c     libucrt:lcidtoname_downlevel.obj
 0002:00004558       ??_C@_1M@GIENNBFC@?$AAs?$AAw?$AA?9?$AAK?$AAE@ 10023558     libucrt:lcidtoname_downlevel.obj
 0002:00004564       ??_C@_1BG@NDGMJIMJ@?$AAu?$AAz?$AA?9?$AAU?$AAZ?$AA?9?$AAL?$AAa?$AAt?$AAn@ 10023564     libucrt:lcidtoname_downlevel.obj
 0002:0000457c       ??_C@_1M@IDCCIHBC@?$AAt?$AAt?$AA?9?$AAR?$AAU@ 1002357c     libucrt:lcidtoname_downlevel.obj
 0002:00004588       ??_C@_1M@LOICPMOJ@?$AAb?$AAn?$AA?9?$AAI?$AAN@ 10023588     libucrt:lcidtoname_downlevel.obj
 0002:00004594       ??_C@_1M@KPKKNEAH@?$AAp?$AAa?$AA?9?$AAI?$AAN@ 10023594     libucrt:lcidtoname_downlevel.obj
 0002:000045a0       ??_C@_1M@PJGPPBOG@?$AAg?$AAu?$AA?9?$AAI?$AAN@ 100235a0     libucrt:lcidtoname_downlevel.obj
 0002:000045ac       ??_C@_1M@KMKMOPHI@?$AAt?$AAa?$AA?9?$AAI?$AAN@ 100235ac     libucrt:lcidtoname_downlevel.obj
 0002:000045b8       ??_C@_1M@KFEHEPAC@?$AAt?$AAe?$AA?9?$AAI?$AAN@ 100235b8     libucrt:lcidtoname_downlevel.obj
 0002:000045c4       ??_C@_1M@CDCLMGHI@?$AAk?$AAn?$AA?9?$AAI?$AAN@ 100235c4     libucrt:lcidtoname_downlevel.obj
 0002:000045d0       ??_C@_1M@MIODLDKF@?$AAm?$AAl?$AA?9?$AAI?$AAN@ 100235d0     libucrt:lcidtoname_downlevel.obj
 0002:000045dc       ??_C@_1M@PBIEACPO@?$AAm?$AAr?$AA?9?$AAI?$AAN@ 100235dc     libucrt:lcidtoname_downlevel.obj
 0002:000045e8       ??_C@_1M@NIDEAGPH@?$AAs?$AAa?$AA?9?$AAI?$AAN@ 100235e8     libucrt:lcidtoname_downlevel.obj
 0002:000045f4       ??_C@_1M@FHIHCBIO@?$AAm?$AAn?$AA?9?$AAM?$AAN@ 100235f4     libucrt:lcidtoname_downlevel.obj
 0002:00004600       ??_C@_1M@JAIJPENP@?$AAc?$AAy?$AA?9?$AAG?$AAB@ 10023600     libucrt:lcidtoname_downlevel.obj
 0002:0000460c       ??_C@_1M@PHGFBEPN@?$AAg?$AAl?$AA?9?$AAE?$AAS@ 1002360c     libucrt:lcidtoname_downlevel.obj
 0002:00004618       ??_C@_1O@KPIPDNCP@?$AAk?$AAo?$AAk?$AA?9?$AAI?$AAN@ 10023618     libucrt:lcidtoname_downlevel.obj
 0002:00004628       ??_C@_1O@KNHJLDJA@?$AAs?$AAy?$AAr?$AA?9?$AAS?$AAY@ 10023628     libucrt:lcidtoname_downlevel.obj
 0002:00004638       ??_C@_1O@MKEKBLAH@?$AAd?$AAi?$AAv?$AA?9?$AAM?$AAV@ 10023638     libucrt:lcidtoname_downlevel.obj
 0002:00004648       ??_C@_1O@OHDCKDDF@?$AAq?$AAu?$AAz?$AA?9?$AAB?$AAO@ 10023648     libucrt:lcidtoname_downlevel.obj
 0002:00004658       ??_C@_1M@LEPJNLFD@?$AAn?$AAs?$AA?9?$AAZ?$AAA@ 10023658     libucrt:lcidtoname_downlevel.obj
 0002:00004664       ??_C@_1M@OMLEIIJB@?$AAm?$AAi?$AA?9?$AAN?$AAZ@ 10023664     libucrt:lcidtoname_downlevel.obj
 0002:00004670       ??_C@_1M@PMPEAILG@?$AAa?$AAr?$AA?9?$AAI?$AAQ@ 10023670     libucrt:lcidtoname_downlevel.obj
 0002:0000467c       ??_C@_1M@CNKPNOEE@?$AAd?$AAe?$AA?9?$AAC?$AAH@ 1002367c     libucrt:lcidtoname_downlevel.obj
 0002:00004688       ??_C@_1M@LKMGMLKO@?$AAe?$AAn?$AA?9?$AAG?$AAB@ 10023688     libucrt:lcidtoname_downlevel.obj
 0002:00004694       ??_C@_1M@PGKJFFGL@?$AAe?$AAs?$AA?9?$AAM?$AAX@ 10023694     libucrt:lcidtoname_downlevel.obj
 0002:000046a0       ??_C@_1M@DNNANBDC@?$AAf?$AAr?$AA?9?$AAB?$AAE@ 100236a0     libucrt:lcidtoname_downlevel.obj
 0002:000046ac       ??_C@_1M@HLGMDFHM@?$AAi?$AAt?$AA?9?$AAC?$AAH@ 100236ac     libucrt:lcidtoname_downlevel.obj
 0002:000046b8       ??_C@_1M@CLLBGJH@?$AAn?$AAl?$AA?9?$AAB?$AAE@ 100236b8     libucrt:lcidtoname_downlevel.obj
 0002:000046c4       ??_C@_1M@BODBOGLF@?$AAn?$AAn?$AA?9?$AAN?$AAO@ 100236c4     libucrt:lcidtoname_downlevel.obj
 0002:000046d0       ??_C@_1M@HFFAHKAD@?$AAp?$AAt?$AA?9?$AAP?$AAT@ 100236d0     libucrt:lcidtoname_downlevel.obj
 0002:000046dc       ??_C@_1BG@LNOAKHIE@?$AAs?$AAr?$AA?9?$AAS?$AAP?$AA?9?$AAL?$AAa?$AAt?$AAn@ 100236dc     libucrt:lcidtoname_downlevel.obj
 0002:000046f4       ??_C@_1M@HBMHBGAK@?$AAs?$AAv?$AA?9?$AAF?$AAI@ 100236f4     libucrt:lcidtoname_downlevel.obj
 0002:00004700       ??_C@_1BG@DGCJGJBE@?$AAa?$AAz?$AA?9?$AAA?$AAZ?$AA?9?$AAC?$AAy?$AAr?$AAl@ 10023700     libucrt:lcidtoname_downlevel.obj
 0002:00004718       ??_C@_1M@KEJDAAHB@?$AAs?$AAe?$AA?9?$AAS?$AAE@ 10023718     libucrt:lcidtoname_downlevel.obj
 0002:00004724       ??_C@_1M@HEIBJJAD@?$AAm?$AAs?$AA?9?$AAB?$AAN@ 10023724     libucrt:lcidtoname_downlevel.obj
 0002:00004730       ??_C@_1BG@PBGJMCEM@?$AAu?$AAz?$AA?9?$AAU?$AAZ?$AA?9?$AAC?$AAy?$AAr?$AAl@ 10023730     libucrt:lcidtoname_downlevel.obj
 0002:00004748       ??_C@_1O@LAOBCMDF@?$AAq?$AAu?$AAz?$AA?9?$AAE?$AAC@ 10023748     libucrt:lcidtoname_downlevel.obj
 0002:00004758       ??_C@_1M@POEEMAIO@?$AAa?$AAr?$AA?9?$AAE?$AAG@ 10023758     libucrt:lcidtoname_downlevel.obj
 0002:00004764       ??_C@_1M@EFAKDEDL@?$AAz?$AAh?$AA?9?$AAH?$AAK@ 10023764     libucrt:lcidtoname_downlevel.obj
 0002:00004770       ??_C@_1M@HKKIJHGI@?$AAd?$AAe?$AA?9?$AAA?$AAT@ 10023770     libucrt:lcidtoname_downlevel.obj
 0002:0000477c       ??_C@_1M@KBFBEHJF@?$AAe?$AAn?$AA?9?$AAA?$AAU@ 1002377c     libucrt:lcidtoname_downlevel.obj
 0002:00004788       ??_C@_1M@MNPLFAAH@?$AAe?$AAs?$AA?9?$AAE?$AAS@ 10023788     libucrt:lcidtoname_downlevel.obj
 0002:00004794       ??_C@_1M@HJOOJFMA@?$AAf?$AAr?$AA?9?$AAC?$AAA@ 10023794     libucrt:lcidtoname_downlevel.obj
 0002:000047a0       ??_C@_1BG@JPOFPNAB@?$AAs?$AAr?$AA?9?$AAS?$AAP?$AA?9?$AAC?$AAy?$AAr?$AAl@ 100237a0     libucrt:lcidtoname_downlevel.obj
 0002:000047b8       ??_C@_1M@LNFOCMOB@?$AAs?$AAe?$AA?9?$AAF?$AAI@ 100237b8     libucrt:lcidtoname_downlevel.obj
 0002:000047c4       ??_C@_1O@MGJBOAMB@?$AAq?$AAu?$AAz?$AA?9?$AAP?$AAE@ 100237c4     libucrt:lcidtoname_downlevel.obj
 0002:000047d4       ??_C@_1M@GJINLBOK@?$AAa?$AAr?$AA?9?$AAL?$AAY@ 100237d4     libucrt:lcidtoname_downlevel.obj
 0002:000047e0       ??_C@_1M@GGMNHJNL@?$AAz?$AAh?$AA?9?$AAS?$AAG@ 100237e0     libucrt:lcidtoname_downlevel.obj
 0002:000047ec       ??_C@_1M@HOIKODND@?$AAd?$AAe?$AA?9?$AAL?$AAU@ 100237ec     libucrt:lcidtoname_downlevel.obj
 0002:000047f8       ??_C@_1M@DDOCCGFG@?$AAe?$AAn?$AA?9?$AAC?$AAA@ 100237f8     libucrt:lcidtoname_downlevel.obj
 0002:00004804       ??_C@_1M@BNOEMJLF@?$AAe?$AAs?$AA?9?$AAG?$AAT@ 10023804     libucrt:lcidtoname_downlevel.obj
 0002:00004810       ??_C@_1M@EOGNKEK@?$AAf?$AAr?$AA?9?$AAC?$AAH@ 10023810     libucrt:lcidtoname_downlevel.obj
 0002:0000481c       ??_C@_1M@FLIDJFHL@?$AAh?$AAr?$AA?9?$AAB?$AAA@ 1002381c     libucrt:lcidtoname_downlevel.obj
 0002:00004828       ??_C@_1O@FMCELNAJ@?$AAs?$AAm?$AAj?$AA?9?$AAN?$AAO@ 10023828     libucrt:lcidtoname_downlevel.obj
 0002:00004838       ??_C@_1M@JHGLJMGJ@?$AAa?$AAr?$AA?9?$AAD?$AAZ@ 10023838     libucrt:lcidtoname_downlevel.obj
 0002:00004844       ??_C@_1M@JKKFDCNP@?$AAz?$AAh?$AA?9?$AAM?$AAO@ 10023844     libucrt:lcidtoname_downlevel.obj
 0002:00004850       ??_C@_1M@GEEFALPE@?$AAd?$AAe?$AA?9?$AAL?$AAI@ 10023850     libucrt:lcidtoname_downlevel.obj
 0002:0000485c       ??_C@_1M@IGEOFBG@?$AAe?$AAn?$AA?9?$AAN?$AAZ@ 1002385c     libucrt:lcidtoname_downlevel.obj
 0002:00004868       ??_C@_1M@KDBONEHP@?$AAe?$AAs?$AA?9?$AAC?$AAR@ 10023868     libucrt:lcidtoname_downlevel.obj
 0002:00004874       ??_C@_1M@FHMDOHNN@?$AAf?$AAr?$AA?9?$AAL?$AAU@ 10023874     libucrt:lcidtoname_downlevel.obj
 0002:00004880       ??_C@_1BG@NFKKMAFG@?$AAb?$AAs?$AA?9?$AAB?$AAA?$AA?9?$AAL?$AAa?$AAt?$AAn@ 10023880     libucrt:lcidtoname_downlevel.obj
 0002:00004898       ??_C@_1O@IMNBEMCI@?$AAs?$AAm?$AAj?$AA?9?$AAS?$AAE@ 10023898     libucrt:lcidtoname_downlevel.obj
 0002:000048a8       ??_C@_1M@DHHMBNDP@?$AAa?$AAr?$AA?9?$AAM?$AAA@ 100238a8     libucrt:lcidtoname_downlevel.obj
 0002:000048b4       ??_C@_1M@BNBLJCGH@?$AAe?$AAn?$AA?9?$AAI?$AAE@ 100238b4     libucrt:lcidtoname_downlevel.obj
 0002:000048c0       ??_C@_1M@GEPAFMDL@?$AAe?$AAs?$AA?9?$AAP?$AAA@ 100238c0     libucrt:lcidtoname_downlevel.obj
 0002:000048cc       ??_C@_1M@OJONDMDL@?$AAf?$AAr?$AA?9?$AAM?$AAC@ 100238cc     libucrt:lcidtoname_downlevel.obj
 0002:000048d8       ??_C@_1BG@OBCNFJB@?$AAs?$AAr?$AA?9?$AAB?$AAA?$AA?9?$AAL?$AAa?$AAt?$AAn@ 100238d8     libucrt:lcidtoname_downlevel.obj
 0002:000048f0       ??_C@_1O@KEMEEGPO@?$AAs?$AAm?$AAa?$AA?9?$AAN?$AAO@ 100238f0     libucrt:lcidtoname_downlevel.obj
 0002:00004900       ??_C@_1M@ELMGFODK@?$AAa?$AAr?$AA?9?$AAT?$AAN@ 10023900     libucrt:lcidtoname_downlevel.obj
 0002:0000490c       ??_C@_1M@BHDLHFAF@?$AAe?$AAn?$AA?9?$AAZ?$AAA@ 1002390c     libucrt:lcidtoname_downlevel.obj
 0002:00004918       ??_C@_1M@BMGIGLIF@?$AAe?$AAs?$AA?9?$AAD?$AAO@ 10023918     libucrt:lcidtoname_downlevel.obj
 0002:00004924       ??_C@_1BG@CMBHIPBE@?$AAs?$AAr?$AA?9?$AAB?$AAA?$AA?9?$AAC?$AAy?$AAr?$AAl@ 10023924     libucrt:lcidtoname_downlevel.obj
 0002:0000493c       ??_C@_1O@HEDBLHNP@?$AAs?$AAm?$AAa?$AA?9?$AAS?$AAE@ 1002393c     libucrt:lcidtoname_downlevel.obj
 0002:0000494c       ??_C@_1M@DAGCADIM@?$AAa?$AAr?$AA?9?$AAO?$AAM@ 1002394c     libucrt:lcidtoname_downlevel.obj
 0002:00004958       ??_C@_1M@FODLMICG@?$AAe?$AAn?$AA?9?$AAJ?$AAM@ 10023958     libucrt:lcidtoname_downlevel.obj
 0002:00004964       ??_C@_1M@DNMLCIHB@?$AAe?$AAs?$AA?9?$AAV?$AAE@ 10023964     libucrt:lcidtoname_downlevel.obj
 0002:00004970       ??_C@_1O@EOKHMKJK@?$AAs?$AAm?$AAs?$AA?9?$AAF?$AAI@ 10023970     libucrt:lcidtoname_downlevel.obj
 0002:00004980       ??_C@_1M@CAFJMKOF@?$AAa?$AAr?$AA?9?$AAY?$AAE@ 10023980     libucrt:lcidtoname_downlevel.obj
 0002:0000498c       ??_C@_1M@CBFHIJLI@?$AAe?$AAn?$AA?9?$AAC?$AAB@ 1002398c     libucrt:lcidtoname_downlevel.obj
 0002:00004998       ??_C@_1M@BGNFLDN@?$AAe?$AAs?$AA?9?$AAC?$AAO@ 10023998     libucrt:lcidtoname_downlevel.obj
 0002:000049a4       ??_C@_1O@JMPHMAMC@?$AAs?$AAm?$AAn?$AA?9?$AAF?$AAI@ 100239a4     libucrt:lcidtoname_downlevel.obj
 0002:000049b4       ??_C@_1M@JLANABKE@?$AAa?$AAr?$AA?9?$AAS?$AAY@ 100239b4     libucrt:lcidtoname_downlevel.obj
 0002:000049c0       ??_C@_1M@HPKGCFGN@?$AAe?$AAn?$AA?9?$AAB?$AAZ@ 100239c0     libucrt:lcidtoname_downlevel.obj
 0002:000049cc       ??_C@_1M@OLJCMLGM@?$AAe?$AAs?$AA?9?$AAP?$AAE@ 100239cc     libucrt:lcidtoname_downlevel.obj
 0002:000049d8       ??_C@_1M@MKKGFKLE@?$AAa?$AAr?$AA?9?$AAJ?$AAO@ 100239d8     libucrt:lcidtoname_downlevel.obj
 0002:000049e4       ??_C@_1M@EKPGLDNI@?$AAe?$AAn?$AA?9?$AAT?$AAT@ 100239e4     libucrt:lcidtoname_downlevel.obj
 0002:000049f0       ??_C@_1M@OONGHFHE@?$AAe?$AAs?$AA?9?$AAA?$AAR@ 100239f0     libucrt:lcidtoname_downlevel.obj
 0002:000049fc       ??_C@_1M@OOJFGBHE@?$AAa?$AAr?$AA?9?$AAL?$AAB@ 100239fc     libucrt:lcidtoname_downlevel.obj
 0002:00004a08       ??_C@_1M@GCEJHNEG@?$AAe?$AAn?$AA?9?$AAZ?$AAW@ 10023a08     libucrt:lcidtoname_downlevel.obj
 0002:00004a14       ??_C@_1M@JNOCAHJI@?$AAe?$AAs?$AA?9?$AAE?$AAC@ 10023a14     libucrt:lcidtoname_downlevel.obj
 0002:00004a20       ??_C@_1M@JEFHPGGB@?$AAa?$AAr?$AA?9?$AAK?$AAW@ 10023a20     libucrt:lcidtoname_downlevel.obj
 0002:00004a2c       ??_C@_1M@MLKIBJOJ@?$AAe?$AAn?$AA?9?$AAP?$AAH@ 10023a2c     libucrt:lcidtoname_downlevel.obj
 0002:00004a38       ??_C@_1M@BDNIPEND@?$AAe?$AAs?$AA?9?$AAC?$AAL@ 10023a38     libucrt:lcidtoname_downlevel.obj
 0002:00004a44       ??_C@_1M@MPNMEKBD@?$AAa?$AAr?$AA?9?$AAA?$AAE@ 10023a44     libucrt:lcidtoname_downlevel.obj
 0002:00004a50       ??_C@_1M@KBJALCPI@?$AAe?$AAs?$AA?9?$AAU?$AAY@ 10023a50     libucrt:lcidtoname_downlevel.obj
 0002:00004a5c       ??_C@_1M@LLCCOAGA@?$AAa?$AAr?$AA?9?$AAB?$AAH@ 10023a5c     libucrt:lcidtoname_downlevel.obj
 0002:00004a68       ??_C@_1M@PBFNCDEL@?$AAe?$AAs?$AA?9?$AAP?$AAY@ 10023a68     libucrt:lcidtoname_downlevel.obj
 0002:00004a74       ??_C@_1M@EDGINPNP@?$AAa?$AAr?$AA?9?$AAQ?$AAA@ 10023a74     libucrt:lcidtoname_downlevel.obj
 0002:00004a80       ??_C@_1M@MKDBIIJI@?$AAe?$AAs?$AA?9?$AAB?$AAO@ 10023a80     libucrt:lcidtoname_downlevel.obj
 0002:00004a8c       ??_C@_1M@CPKKEBLD@?$AAe?$AAs?$AA?9?$AAS?$AAV@ 10023a8c     libucrt:lcidtoname_downlevel.obj
 0002:00004a98       ??_C@_1M@NDBGMMJL@?$AAe?$AAs?$AA?9?$AAH?$AAN@ 10023a98     libucrt:lcidtoname_downlevel.obj
 0002:00004aa4       ??_C@_1M@JIJIBHDP@?$AAe?$AAs?$AA?9?$AAN?$AAI@ 10023aa4     libucrt:lcidtoname_downlevel.obj
 0002:00004ab0       ??_C@_1M@CGFMKEEK@?$AAe?$AAs?$AA?9?$AAP?$AAR@ 10023ab0     libucrt:lcidtoname_downlevel.obj
 0002:00004abc       ??_C@_1O@ICJHKIIK@?$AAz?$AAh?$AA?9?$AAC?$AAH?$AAT@ 10023abc     libucrt:lcidtoname_downlevel.obj
 0002:00004acc       ??_C@_15CLNEJCE@?$AAs?$AAr@ 10023acc     libucrt:lcidtoname_downlevel.obj
 0002:000051f8       ??_C@_1M@KAHEKEIG@?$AAa?$AAf?$AA?9?$AAz?$AAa@ 100241f8     libucrt:lcidtoname_downlevel.obj
 0002:00005204       ??_C@_1M@GIECOABL@?$AAa?$AAr?$AA?9?$AAa?$AAe@ 10024204     libucrt:lcidtoname_downlevel.obj
 0002:00005210       ??_C@_1M@BMLMEKGI@?$AAa?$AAr?$AA?9?$AAb?$AAh@ 10024210     libucrt:lcidtoname_downlevel.obj
 0002:0000521c       ??_C@_1M@DAPFDGGB@?$AAa?$AAr?$AA?9?$AAd?$AAz@ 1002421c     libucrt:lcidtoname_downlevel.obj
 0002:00005228       ??_C@_1M@FJNKGKIG@?$AAa?$AAr?$AA?9?$AAe?$AAg@ 10024228     libucrt:lcidtoname_downlevel.obj
 0002:00005234       ??_C@_1M@FLGKKCLO@?$AAa?$AAr?$AA?9?$AAi?$AAq@ 10024234     libucrt:lcidtoname_downlevel.obj
 0002:00005240       ??_C@_1M@GNDIPALM@?$AAa?$AAr?$AA?9?$AAj?$AAo@ 10024240     libucrt:lcidtoname_downlevel.obj
 0002:0000524c       ??_C@_1M@DDMJFMGJ@?$AAa?$AAr?$AA?9?$AAk?$AAw@ 1002424c     libucrt:lcidtoname_downlevel.obj
 0002:00005258       ??_C@_1M@EJALMLHM@?$AAa?$AAr?$AA?9?$AAl?$AAb@ 10024258     libucrt:lcidtoname_downlevel.obj
 0002:00005264       ??_C@_1M@MOBDBLOC@?$AAa?$AAr?$AA?9?$AAl?$AAy@ 10024264     libucrt:lcidtoname_downlevel.obj
 0002:00005270       ??_C@_1M@JAOCLHDH@?$AAa?$AAr?$AA?9?$AAm?$AAa@ 10024270     libucrt:lcidtoname_downlevel.obj
 0002:0000527c       ??_C@_1M@JHPMKJIE@?$AAa?$AAr?$AA?9?$AAo?$AAm@ 1002427c     libucrt:lcidtoname_downlevel.obj
 0002:00005288       ??_C@_1M@OEPGHFNH@?$AAa?$AAr?$AA?9?$AAq?$AAa@ 10024288     libucrt:lcidtoname_downlevel.obj
 0002:00005294       ??_C@_1M@KJDONENM@?$AAa?$AAr?$AA?9?$AAs?$AAa@ 10024294     libucrt:lcidtoname_downlevel.obj
 0002:000052a0       ??_C@_1M@DMJDKLKM@?$AAa?$AAr?$AA?9?$AAs?$AAy@ 100242a0     libucrt:lcidtoname_downlevel.obj
 0002:000052ac       ??_C@_1M@OMFIPEDC@?$AAa?$AAr?$AA?9?$AAt?$AAn@ 100242ac     libucrt:lcidtoname_downlevel.obj
 0002:000052b8       ??_C@_1M@IHMHGAON@?$AAa?$AAr?$AA?9?$AAy?$AAe@ 100242b8     libucrt:lcidtoname_downlevel.obj
 0002:000052c4       ??_C@_1BG@KDCPGJGB@?$AAa?$AAz?$AA?9?$AAa?$AAz?$AA?9?$AAc?$AAy?$AAr?$AAl@ 100242c4     libucrt:lcidtoname_downlevel.obj
 0002:000052dc       ??_C@_1BG@IBCKDDOE@?$AAa?$AAz?$AA?9?$AAa?$AAz?$AA?9?$AAl?$AAa?$AAt?$AAn@ 100242dc     libucrt:lcidtoname_downlevel.obj
 0002:000052f4       ??_C@_1M@EGPFDCPD@?$AAb?$AAe?$AA?9?$AAb?$AAy@ 100242f4     libucrt:lcidtoname_downlevel.obj
 0002:00005300       ??_C@_1M@PCMGMCGC@?$AAb?$AAg?$AA?9?$AAb?$AAg@ 10024300     libucrt:lcidtoname_downlevel.obj
 0002:0000530c       ??_C@_1M@BJBMFGOB@?$AAb?$AAn?$AA?9?$AAi?$AAn@ 1002430c     libucrt:lcidtoname_downlevel.obj
 0002:00005318       ??_C@_1BG@EAKMMACD@?$AAb?$AAs?$AA?9?$AAb?$AAa?$AA?9?$AAl?$AAa?$AAt?$AAn@ 10024318     libucrt:lcidtoname_downlevel.obj
 0002:00005330       ??_C@_1M@KGADAODK@?$AAc?$AAa?$AA?9?$AAe?$AAs@ 10024330     libucrt:lcidtoname_downlevel.obj
 0002:0000533c       ??_C@_1M@COAJPDHI@?$AAc?$AAs?$AA?9?$AAc?$AAz@ 1002433c     libucrt:lcidtoname_downlevel.obj
 0002:00005348       ??_C@_1M@DHBHFONH@?$AAc?$AAy?$AA?9?$AAg?$AAb@ 10024348     libucrt:lcidtoname_downlevel.obj
 0002:00005354       ??_C@_1M@IMGKELGA@?$AAd?$AAa?$AA?9?$AAd?$AAk@ 10024354     libucrt:lcidtoname_downlevel.obj
 0002:00005360       ??_C@_1M@NNDGDNGA@?$AAd?$AAe?$AA?9?$AAa?$AAt@ 10024360     libucrt:lcidtoname_downlevel.obj
 0002:0000536c       ??_C@_1M@IKDBHEEM@?$AAd?$AAe?$AA?9?$AAc?$AAh@ 1002436c     libucrt:lcidtoname_downlevel.obj
 0002:00005378       ??_C@_1M@GFFOJMCJ@?$AAd?$AAe?$AA?9?$AAd?$AAe@ 10024378     libucrt:lcidtoname_downlevel.obj
 0002:00005384       ??_C@_1M@MDNLKBPM@?$AAd?$AAe?$AA?9?$AAl?$AAi@ 10024384     libucrt:lcidtoname_downlevel.obj
 0002:00005390       ??_C@_1M@NJBEEJNL@?$AAd?$AAe?$AA?9?$AAl?$AAu@ 10024390     libucrt:lcidtoname_downlevel.obj
 0002:0000539c       ??_C@_1O@GNNELBAP@?$AAd?$AAi?$AAv?$AA?9?$AAm?$AAv@ 1002439c     libucrt:lcidtoname_downlevel.obj
 0002:000053ac       ??_C@_1M@EJLEOGAE@?$AAe?$AAl?$AA?9?$AAg?$AAr@ 100243ac     libucrt:lcidtoname_downlevel.obj
 0002:000053b8       ??_C@_1M@GMPONJN@?$AAe?$AAn?$AA?9?$AAa?$AAu@ 100243b8     libucrt:lcidtoname_downlevel.obj
 0002:000053c4       ??_C@_1M@NIDIIPGF@?$AAe?$AAn?$AA?9?$AAb?$AAz@ 100243c4     libucrt:lcidtoname_downlevel.obj
 0002:000053d0       ??_C@_1M@JEHMIMFO@?$AAe?$AAn?$AA?9?$AAc?$AAa@ 100243d0     libucrt:lcidtoname_downlevel.obj
 0002:000053dc       ??_C@_1M@IGMJCDLA@?$AAe?$AAn?$AA?9?$AAc?$AAb@ 100243dc     libucrt:lcidtoname_downlevel.obj
 0002:000053e8       ??_C@_1M@BNFIGBKG@?$AAe?$AAn?$AA?9?$AAg?$AAb@ 100243e8     libucrt:lcidtoname_downlevel.obj
 0002:000053f4       ??_C@_1M@LKIFDIGP@?$AAe?$AAn?$AA?9?$AAi?$AAe@ 100243f4     libucrt:lcidtoname_downlevel.obj
 0002:00005400       ??_C@_1M@PJKFGCCO@?$AAe?$AAn?$AA?9?$AAj?$AAm@ 10024400     libucrt:lcidtoname_downlevel.obj
 0002:0000540c       ??_C@_1M@KPPKEPBO@?$AAe?$AAn?$AA?9?$AAn?$AAz@ 1002440c     libucrt:lcidtoname_downlevel.obj
 0002:00005418       ??_C@_1M@GMDGLDOB@?$AAe?$AAn?$AA?9?$AAp?$AAh@ 10024418     libucrt:lcidtoname_downlevel.obj
 0002:00005424       ??_C@_1M@ONGIBJNA@?$AAe?$AAn?$AA?9?$AAt?$AAt@ 10024424     libucrt:lcidtoname_downlevel.obj
 0002:00005430       ??_C@_1M@LLODPCMM@?$AAe?$AAn?$AA?9?$AAu?$AAs@ 10024430     libucrt:lcidtoname_downlevel.obj
 0002:0000543c       ??_C@_1M@LAKFNPAN@?$AAe?$AAn?$AA?9?$AAz?$AAa@ 1002443c     libucrt:lcidtoname_downlevel.obj
 0002:00005448       ??_C@_1M@MFNHNHEO@?$AAe?$AAn?$AA?9?$AAz?$AAw@ 10024448     libucrt:lcidtoname_downlevel.obj
 0002:00005454       ??_C@_1M@EJEINPHM@?$AAe?$AAs?$AA?9?$AAa?$AAr@ 10024454     libucrt:lcidtoname_downlevel.obj
 0002:00005460       ??_C@_1M@GNKPCCJA@?$AAe?$AAs?$AA?9?$AAb?$AAo@ 10024460     libucrt:lcidtoname_downlevel.obj
 0002:0000546c       ??_C@_1M@LEEGFONL@?$AAe?$AAs?$AA?9?$AAc?$AAl@ 1002446c     libucrt:lcidtoname_downlevel.obj
 0002:00005478       ??_C@_1M@KGPDPBDF@?$AAe?$AAs?$AA?9?$AAc?$AAo@ 10024478     libucrt:lcidtoname_downlevel.obj
 0002:00005484       ??_C@_1M@EIAHOHH@?$AAe?$AAs?$AA?9?$AAc?$AAr@ 10024484     libucrt:lcidtoname_downlevel.obj
 0002:00005490       ??_C@_1M@LLPGMBIN@?$AAe?$AAs?$AA?9?$AAd?$AAo@ 10024490     libucrt:lcidtoname_downlevel.obj
 0002:0000549c       ??_C@_1M@DKHMKNJA@?$AAe?$AAs?$AA?9?$AAe?$AAc@ 1002449c     libucrt:lcidtoname_downlevel.obj
 0002:000054a8       ??_C@_1M@GKGFPKAP@?$AAe?$AAs?$AA?9?$AAe?$AAs@ 100244a8     libucrt:lcidtoname_downlevel.obj
 0002:000054b4       ??_C@_1M@LKHKGDLN@?$AAe?$AAs?$AA?9?$AAg?$AAt@ 100244b4     libucrt:lcidtoname_downlevel.obj
 0002:000054c0       ??_C@_1M@HEIIGGJD@?$AAe?$AAs?$AA?9?$AAh?$AAn@ 100244c0     libucrt:lcidtoname_downlevel.obj
 0002:000054cc       ??_C@_1M@FBDHPPGD@?$AAe?$AAs?$AA?9?$AAm?$AAx@ 100244cc     libucrt:lcidtoname_downlevel.obj
 0002:000054d8       ??_C@_1M@DPAGLNDH@?$AAe?$AAs?$AA?9?$AAn?$AAi@ 100244d8     libucrt:lcidtoname_downlevel.obj
 0002:000054e4       ??_C@_1M@MDGOPGDD@?$AAe?$AAs?$AA?9?$AAp?$AAa@ 100244e4     libucrt:lcidtoname_downlevel.obj
 0002:000054f0       ??_C@_1M@EMAMGBGE@?$AAe?$AAs?$AA?9?$AAp?$AAe@ 100244f0     libucrt:lcidtoname_downlevel.obj
 0002:000054fc       ??_C@_1M@IBMCAOEC@?$AAe?$AAs?$AA?9?$AAp?$AAr@ 100244fc     libucrt:lcidtoname_downlevel.obj
 0002:00005508       ??_C@_1M@FGMDIJED@?$AAe?$AAs?$AA?9?$AAp?$AAy@ 10024508     libucrt:lcidtoname_downlevel.obj
 0002:00005514       ??_C@_1M@IIDEOLLL@?$AAe?$AAs?$AA?9?$AAs?$AAv@ 10024514     libucrt:lcidtoname_downlevel.obj
 0002:00005520       ??_C@_1M@GAOBIPA@?$AAe?$AAs?$AA?9?$AAu?$AAy@ 10024520     libucrt:lcidtoname_downlevel.obj
 0002:0000552c       ??_C@_1M@JKFFICHJ@?$AAe?$AAs?$AA?9?$AAv?$AAe@ 1002452c     libucrt:lcidtoname_downlevel.obj
 0002:00005538       ??_C@_1M@PNMLOJDF@?$AAe?$AAt?$AA?9?$AAe?$AAe@ 10024538     libucrt:lcidtoname_downlevel.obj
 0002:00005544       ??_C@_1M@GHHLIKEI@?$AAe?$AAu?$AA?9?$AAe?$AAs@ 10024544     libucrt:lcidtoname_downlevel.obj
 0002:00005550       ??_C@_1M@PBNONODE@?$AAf?$AAa?$AA?9?$AAi?$AAr@ 10024550     libucrt:lcidtoname_downlevel.obj
 0002:0000555c       ??_C@_1M@JEEHPMIL@?$AAf?$AAi?$AA?9?$AAf?$AAi@ 1002455c     libucrt:lcidtoname_downlevel.obj
 0002:00005568       ??_C@_1M@LMDCNDBA@?$AAf?$AAo?$AA?9?$AAf?$AAo@ 10024568     libucrt:lcidtoname_downlevel.obj
 0002:00005574       ??_C@_1M@JKEOHLDK@?$AAf?$AAr?$AA?9?$AAb?$AAe@ 10024574     libucrt:lcidtoname_downlevel.obj
 0002:00005580       ??_C@_1M@NOHADPMI@?$AAf?$AAr?$AA?9?$AAc?$AAa@ 10024580     libucrt:lcidtoname_downlevel.obj
 0002:0000558c       ??_C@_1M@KDHIHAEC@?$AAf?$AAr?$AA?9?$AAc?$AAh@ 1002458c     libucrt:lcidtoname_downlevel.obj
 0002:00005598       ??_C@_1M@MMBBFGAK@?$AAf?$AAr?$AA?9?$AAf?$AAr@ 10024598     libucrt:lcidtoname_downlevel.obj
 0002:000055a4       ??_C@_1M@PAFNENNF@?$AAf?$AAr?$AA?9?$AAl?$AAu@ 100245a4     libucrt:lcidtoname_downlevel.obj
 0002:000055b0       ??_C@_1M@EOHDJGDD@?$AAf?$AAr?$AA?9?$AAm?$AAc@ 100245b0     libucrt:lcidtoname_downlevel.obj
 0002:000055bc       ??_C@_1M@FAPLLOPF@?$AAg?$AAl?$AA?9?$AAe?$AAs@ 100245bc     libucrt:lcidtoname_downlevel.obj
 0002:000055c8       ??_C@_1M@FOPBFLOO@?$AAg?$AAu?$AA?9?$AAi?$AAn@ 100245c8     libucrt:lcidtoname_downlevel.obj
 0002:000055d4       ??_C@_1M@KBMCINPM@?$AAh?$AAe?$AA?9?$AAi?$AAl@ 100245d4     libucrt:lcidtoname_downlevel.obj
 0002:000055e0       ??_C@_1M@BBPHKFPJ@?$AAh?$AAi?$AA?9?$AAi?$AAn@ 100245e0     libucrt:lcidtoname_downlevel.obj
 0002:000055ec       ??_C@_1M@PMBNDPHD@?$AAh?$AAr?$AA?9?$AAb?$AAa@ 100245ec     libucrt:lcidtoname_downlevel.obj
 0002:000055f8       ??_C@_1M@BPCKOEGE@?$AAh?$AAr?$AA?9?$AAh?$AAr@ 100245f8     libucrt:lcidtoname_downlevel.obj
 0002:00005604       ??_C@_1M@GACBMHKE@?$AAh?$AAu?$AA?9?$AAh?$AAu@ 10024604     libucrt:lcidtoname_downlevel.obj
 0002:00005610       ??_C@_1M@MILPAJJC@?$AAh?$AAy?$AA?9?$AAa?$AAm@ 10024610     libucrt:lcidtoname_downlevel.obj
 0002:0000561c       ??_C@_1M@BABBICEC@?$AAi?$AAd?$AA?9?$AAi?$AAd@ 1002461c     libucrt:lcidtoname_downlevel.obj
 0002:00005628       ??_C@_1M@BIKNHHPF@?$AAi?$AAs?$AA?9?$AAi?$AAs@ 10024628     libucrt:lcidtoname_downlevel.obj
 0002:00005634       ??_C@_1M@NMPCJPHE@?$AAi?$AAt?$AA?9?$AAc?$AAh@ 10024634     libucrt:lcidtoname_downlevel.obj
 0002:00005640       ??_C@_1M@GHKGFEDF@?$AAi?$AAt?$AA?9?$AAi?$AAt@ 10024640     libucrt:lcidtoname_downlevel.obj
 0002:0000564c       ??_C@_1M@NIEJCJJA@?$AAj?$AAa?$AA?9?$AAj?$AAp@ 1002464c     libucrt:lcidtoname_downlevel.obj
 0002:00005658       ??_C@_1M@JILFNBIM@?$AAk?$AAa?$AA?9?$AAg?$AAe@ 10024658     libucrt:lcidtoname_downlevel.obj
 0002:00005664       ??_C@_1M@PACPMGPH@?$AAk?$AAk?$AA?9?$AAk?$AAz@ 10024664     libucrt:lcidtoname_downlevel.obj
 0002:00005670       ??_C@_1M@IELFGMHA@?$AAk?$AAn?$AA?9?$AAi?$AAn@ 10024670     libucrt:lcidtoname_downlevel.obj
 0002:0000567c       ??_C@_1O@IBBJHCH@?$AAk?$AAo?$AAk?$AA?9?$AAi?$AAn@ 1002467c     libucrt:lcidtoname_downlevel.obj
 0002:0000568c       ??_C@_1M@DMHAEOGC@?$AAk?$AAo?$AA?9?$AAk?$AAr@ 1002468c     libucrt:lcidtoname_downlevel.obj
 0002:00005698       ??_C@_1M@HBAHBIGA@?$AAk?$AAy?$AA?9?$AAk?$AAg@ 10024698     libucrt:lcidtoname_downlevel.obj
 0002:000056a4       ??_C@_1M@KPMILCJG@?$AAl?$AAt?$AA?9?$AAl?$AAt@ 100246a4     libucrt:lcidtoname_downlevel.obj
 0002:000056b0       ??_C@_1M@BDEKKCA@?$AAl?$AAv?$AA?9?$AAl?$AAv@ 100246b0     libucrt:lcidtoname_downlevel.obj
 0002:000056bc       ??_C@_1M@ELCKCCJJ@?$AAm?$AAi?$AA?9?$AAn?$AAz@ 100246bc     libucrt:lcidtoname_downlevel.obj
 0002:000056c8       ??_C@_1M@CBOOLAPA@?$AAm?$AAk?$AA?9?$AAm?$AAk@ 100246c8     libucrt:lcidtoname_downlevel.obj
 0002:000056d4       ??_C@_1M@GPHNBJKN@?$AAm?$AAl?$AA?9?$AAi?$AAn@ 100246d4     libucrt:lcidtoname_downlevel.obj
 0002:000056e0       ??_C@_1M@PABJILIG@?$AAm?$AAn?$AA?9?$AAm?$AAn@ 100246e0     libucrt:lcidtoname_downlevel.obj
 0002:000056ec       ??_C@_1M@FGBKKIPG@?$AAm?$AAr?$AA?9?$AAi?$AAn@ 100246ec     libucrt:lcidtoname_downlevel.obj
 0002:000056f8       ??_C@_1M@NDBPDDAL@?$AAm?$AAs?$AA?9?$AAb?$AAn@ 100246f8     libucrt:lcidtoname_downlevel.obj
 0002:00005704       ??_C@_1M@OPIHOOPI@?$AAm?$AAs?$AA?9?$AAm?$AAy@ 10024704     libucrt:lcidtoname_downlevel.obj
 0002:00005710       ??_C@_1M@PPDBCNFM@?$AAm?$AAt?$AA?9?$AAm?$AAt@ 10024710     libucrt:lcidtoname_downlevel.obj
 0002:0000571c       ??_C@_1M@KDJDKMDD@?$AAn?$AAb?$AA?9?$AAn?$AAo@ 1002471c     libucrt:lcidtoname_downlevel.obj
 0002:00005728       ??_C@_1M@KFCFLMJP@?$AAn?$AAl?$AA?9?$AAb?$AAe@ 10024728     libucrt:lcidtoname_downlevel.obj
 0002:00005734       ??_C@_1M@KPOPDDGO@?$AAn?$AAl?$AA?9?$AAn?$AAl@ 10024734     libucrt:lcidtoname_downlevel.obj
 0002:00005740       ??_C@_1M@LJKPEMLN@?$AAn?$AAn?$AA?9?$AAn?$AAo@ 10024740     libucrt:lcidtoname_downlevel.obj
 0002:0000574c       ??_C@_1M@BDGHHBFL@?$AAn?$AAs?$AA?9?$AAz?$AAa@ 1002474c     libucrt:lcidtoname_downlevel.obj
 0002:00005758       ??_C@_1M@IDEHOAP@?$AAp?$AAa?$AA?9?$AAi?$AAn@ 10024758     libucrt:lcidtoname_downlevel.obj
 0002:00005764       ??_C@_1M@HDBKGOGH@?$AAp?$AAl?$AA?9?$AAp?$AAl@ 10024764     libucrt:lcidtoname_downlevel.obj
 0002:00005770       ??_C@_1M@LJLLCMEH@?$AAp?$AAt?$AA?9?$AAb?$AAr@ 10024770     libucrt:lcidtoname_downlevel.obj
 0002:0000577c       ??_C@_1M@NCMONAAL@?$AAp?$AAt?$AA?9?$AAp?$AAt@ 1002477c     libucrt:lcidtoname_downlevel.obj
 0002:00005788       ??_C@_1O@EAKMAJDN@?$AAq?$AAu?$AAz?$AA?9?$AAb?$AAo@ 10024788     libucrt:lcidtoname_downlevel.obj
 0002:00005798       ??_C@_1O@BHHPIGDN@?$AAq?$AAu?$AAz?$AA?9?$AAe?$AAc@ 10024798     libucrt:lcidtoname_downlevel.obj
 0002:000057a8       ??_C@_1O@GBAPEKMJ@?$AAq?$AAu?$AAz?$AA?9?$AAp?$AAe@ 100247a8     libucrt:lcidtoname_downlevel.obj
 0002:000057b8       ??_C@_1M@CLGLEFBO@?$AAr?$AAo?$AA?9?$AAr?$AAo@ 100247b8     libucrt:lcidtoname_downlevel.obj
 0002:000057c4       ??_C@_1M@CEEDODME@?$AAr?$AAu?$AA?9?$AAr?$AAu@ 100247c4     libucrt:lcidtoname_downlevel.obj
 0002:000057d0       ??_C@_1M@HPKKKMPP@?$AAs?$AAa?$AA?9?$AAi?$AAn@ 100247d0     libucrt:lcidtoname_downlevel.obj
 0002:000057dc       ??_C@_1M@BKMAIGOJ@?$AAs?$AAe?$AA?9?$AAf?$AAi@ 100247dc     libucrt:lcidtoname_downlevel.obj
 0002:000057e8       ??_C@_1M@NDPIFLFI@?$AAs?$AAe?$AA?9?$AAn?$AAo@ 100247e8     libucrt:lcidtoname_downlevel.obj
 0002:000057f4       ??_C@_1M@DANKKHJ@?$AAs?$AAe?$AA?9?$AAs?$AAe@ 100247f4     libucrt:lcidtoname_downlevel.obj
 0002:00005800       ??_C@_1M@PNBLONPJ@?$AAs?$AAk?$AA?9?$AAs?$AAk@ 10024800     libucrt:lcidtoname_downlevel.obj
 0002:0000580c       ??_C@_1M@LFMODOAL@?$AAs?$AAl?$AA?9?$AAs?$AAi@ 1002480c     libucrt:lcidtoname_downlevel.obj
 0002:00005818       ??_C@_1O@DFKOMPG@?$AAs?$AAm?$AAa?$AA?9?$AAn?$AAo@ 10024818     libucrt:lcidtoname_downlevel.obj
 0002:00005828       ??_C@_1O@NDKPBNNH@?$AAs?$AAm?$AAa?$AA?9?$AAs?$AAe@ 10024828     libucrt:lcidtoname_downlevel.obj
 0002:00005838       ??_C@_1O@PLLKBHAB@?$AAs?$AAm?$AAj?$AA?9?$AAn?$AAo@ 10024838     libucrt:lcidtoname_downlevel.obj
 0002:00005848       ??_C@_1O@CLEPOGCA@?$AAs?$AAm?$AAj?$AA?9?$AAs?$AAe@ 10024848     libucrt:lcidtoname_downlevel.obj
 0002:00005858       ??_C@_1O@DLGJGKMK@?$AAs?$AAm?$AAn?$AA?9?$AAf?$AAi@ 10024858     libucrt:lcidtoname_downlevel.obj
 0002:00005868       ??_C@_1O@OJDJGAJC@?$AAs?$AAm?$AAs?$AA?9?$AAf?$AAi@ 10024868     libucrt:lcidtoname_downlevel.obj
 0002:00005878       ??_C@_1M@BOFOGHPB@?$AAs?$AAq?$AA?9?$AAa?$AAl@ 10024878     libucrt:lcidtoname_downlevel.obj
 0002:00005884       ??_C@_1BG@LJBBIPGB@?$AAs?$AAr?$AA?9?$AAb?$AAa?$AA?9?$AAc?$AAy?$AAr?$AAl@ 10024884     libucrt:lcidtoname_downlevel.obj
 0002:0000589c       ??_C@_1BG@JLBENFOE@?$AAs?$AAr?$AA?9?$AAb?$AAa?$AA?9?$AAl?$AAa?$AAt?$AAn@ 1002489c     libucrt:lcidtoname_downlevel.obj
 0002:000058b4       ??_C@_1BG@KODPNHE@?$AAs?$AAr?$AA?9?$AAs?$AAp?$AA?9?$AAc?$AAy?$AAr?$AAl@ 100248b4     libucrt:lcidtoname_downlevel.obj
 0002:000058cc       ??_C@_1BG@CIOGKHPB@?$AAs?$AAr?$AA?9?$AAs?$AAp?$AA?9?$AAl?$AAa?$AAt?$AAn@ 100248cc     libucrt:lcidtoname_downlevel.obj
 0002:000058e4       ??_C@_1M@NGFJLMAC@?$AAs?$AAv?$AA?9?$AAf?$AAi@ 100248e4     libucrt:lcidtoname_downlevel.obj
 0002:000058f0       ??_C@_1M@MPJEJAJC@?$AAs?$AAv?$AA?9?$AAs?$AAe@ 100248f0     libucrt:lcidtoname_downlevel.obj
 0002:000058fc       ??_C@_1M@MPNDHLFK@?$AAs?$AAw?$AA?9?$AAk?$AAe@ 100248fc     libucrt:lcidtoname_downlevel.obj
 0002:00005908       ??_C@_1O@KOHBJJI@?$AAs?$AAy?$AAr?$AA?9?$AAs?$AAy@ 10024908     libucrt:lcidtoname_downlevel.obj
 0002:00005918       ??_C@_1M@LDCEFHA@?$AAt?$AAa?$AA?9?$AAi?$AAn@ 10024918     libucrt:lcidtoname_downlevel.obj
 0002:00005924       ??_C@_1M@CNJOFAK@?$AAt?$AAe?$AA?9?$AAi?$AAn@ 10024924     libucrt:lcidtoname_downlevel.obj
 0002:00005930       ??_C@_1M@GNAECACD@?$AAt?$AAh?$AA?9?$AAt?$AAh@ 10024930     libucrt:lcidtoname_downlevel.obj
 0002:0000593c       ??_C@_1M@CHBIHOJO@?$AAt?$AAn?$AA?9?$AAz?$AAa@ 1002493c     libucrt:lcidtoname_downlevel.obj
 0002:00005948       ??_C@_1M@GCCMIGPJ@?$AAt?$AAr?$AA?9?$AAt?$AAr@ 10024948     libucrt:lcidtoname_downlevel.obj
 0002:00005954       ??_C@_1M@CELMCNBK@?$AAt?$AAt?$AA?9?$AAr?$AAu@ 10024954     libucrt:lcidtoname_downlevel.obj
 0002:00005960       ??_C@_1M@KLMCELGA@?$AAu?$AAk?$AA?9?$AAu?$AAa@ 10024960     libucrt:lcidtoname_downlevel.obj
 0002:0000596c       ??_C@_1M@EPAJJAJF@?$AAu?$AAr?$AA?9?$AAp?$AAk@ 1002496c     libucrt:lcidtoname_downlevel.obj
 0002:00005978       ??_C@_1BG@GEGPMCDJ@?$AAu?$AAz?$AA?9?$AAu?$AAz?$AA?9?$AAc?$AAy?$AAr?$AAl@ 10024978     libucrt:lcidtoname_downlevel.obj
 0002:00005990       ??_C@_1BG@EGGKJILM@?$AAu?$AAz?$AA?9?$AAu?$AAz?$AA?9?$AAl?$AAa?$AAt?$AAn@ 10024990     libucrt:lcidtoname_downlevel.obj
 0002:000059a8       ??_C@_1M@GFOCLFF@?$AAv?$AAi?$AA?9?$AAv?$AAn@ 100249a8     libucrt:lcidtoname_downlevel.obj
 0002:000059b4       ??_C@_1M@CPAMEDFI@?$AAx?$AAh?$AA?9?$AAz?$AAa@ 100249b4     libucrt:lcidtoname_downlevel.obj
 0002:000059c0       ??_C@_1O@EBKIFIGN@?$AAz?$AAh?$AA?9?$AAc?$AAh?$AAs@ 100249c0     libucrt:lcidtoname_downlevel.obj
 0002:000059d0       ??_C@_1O@NMHPGANE@?$AAz?$AAh?$AA?9?$AAc?$AAh?$AAt@ 100249d0     libucrt:lcidtoname_downlevel.obj
 0002:000059e0       ??_C@_1M@LPINJOMC@?$AAz?$AAh?$AA?9?$AAc?$AAn@ 100249e0     libucrt:lcidtoname_downlevel.obj
 0002:000059ec       ??_C@_1M@OCJEJODD@?$AAz?$AAh?$AA?9?$AAh?$AAk@ 100249ec     libucrt:lcidtoname_downlevel.obj
 0002:000059f8       ??_C@_1M@DNDLJINH@?$AAz?$AAh?$AA?9?$AAm?$AAo@ 100249f8     libucrt:lcidtoname_downlevel.obj
 0002:00005a04       ??_C@_1M@MBFDNDND@?$AAz?$AAh?$AA?9?$AAs?$AAg@ 10024a04     libucrt:lcidtoname_downlevel.obj
 0002:00005a10       ??_C@_1M@IMEPLEPE@?$AAz?$AAh?$AA?9?$AAt?$AAw@ 10024a10     libucrt:lcidtoname_downlevel.obj
 0002:00005a1c       ??_C@_1M@BBGHNHJP@?$AAz?$AAu?$AA?9?$AAz?$AAa@ 10024a1c     libucrt:lcidtoname_downlevel.obj
 0002:00005a28       ?large_power_data@?1??multiply_by_power_of_ten@__crt_strtox@@YA_NAAUbig_integer@2@I@Z@4QBIB 10024a28     libucrt:cfout.obj
 0002:000063c8       ?small_powers_of_ten@?1??multiply_by_power_of_ten@__crt_strtox@@YA_NAAUbig_integer@2@I@Z@4QBIB 100253c8     libucrt:cfout.obj
 0002:000063ec       ??_C@_01GBGANLPD@0@        100253ec     libucrt:cfout.obj
 0002:000063f0       ??_C@_05DNEBIAHO@1?$CDINF@ 100253f0     libucrt:cfout.obj
 0002:000063f8       ??_C@_06IMKFLFPG@1?$CDQNAN@ 100253f8     libucrt:cfout.obj
 0002:00006400       ??_C@_06PGGFOGJG@1?$CDSNAN@ 10025400     libucrt:cfout.obj
 0002:00006408       ??_C@_05PHHOCPM@1?$CDIND@  10025408     libucrt:cfout.obj
 0002:00006570       __infinity                 10025570     libucrt:87tran.obj
 0002:0000657a       __minfinity                1002557a     libucrt:87tran.obj
 0002:00006584       __logemax                  10025584     libucrt:87tran.obj
 0002:000065aa       __OP_EXPjmptab             100255aa     libucrt:87tran.obj
 0002:000065d0       __indefinite               100255d0     libucrt:87disp.obj
 0002:000065da       __piby2                    100255da     libucrt:87disp.obj
 0002:000065e4       __piby4                    100255e4     libucrt:87disp.obj
 0002:00006618       __DEFAULT_CW_in_mem        10025618     libucrt:common.obj
 0002:0000661a       __pi_by_2_to_61            1002561a     libucrt:common.obj
 0002:00006654       ??_C@_03MGHMBJCF@log@      10025654     libucrt:libm_error.obj
 0002:00006658       ??_C@_05HGHHAHAP@log10@    10025658     libucrt:libm_error.obj
 0002:00006660       ??_C@_03KHJOGHMM@exp@      10025660     libucrt:libm_error.obj
 0002:00006664       ??_C@_03JGHBODFD@pow@      10025664     libucrt:libm_error.obj
 0002:00006668       ??_C@_04FIHNOPOL@asin@     10025668     libucrt:libm_error.obj
 0002:00006670       ??_C@_04PDIFKINK@acos@     10025670     libucrt:libm_error.obj
 0002:00006678       ??_C@_04EIAKFFMI@sqrt@     10025678     libucrt:libm_error.obj
 0002:00006680       __real@3ff0000000000000    10025680     libucrt:libm_error.obj
 0002:00006688       ??_C@_1BA@BALFACEM@?$AAC?$AAO?$AAN?$AAO?$AAU?$AAT?$AA$@ 10025688     libucrt:initcon.obj
 0002:000066b0       ___acrt_log10_table_t      100256b0     libucrt:log10_tables.obj
 0002:00006ac0       ___acrt_log10_table_cb     10025ac0     libucrt:log10_tables.obj
 0002:00006ed0       __real@3fe0000000000000    10025ed0     libucrt:powhlp.obj
 0002:00006fc0       ??_C@_04COOMCNPB@sinh@     10025fc0     libucrt:fpexcept.obj
 0002:00006fc8       ??_C@_04HPJJNFIM@cosh@     10025fc8     libucrt:fpexcept.obj
 0002:00006fd0       ??_C@_04FJHINJAO@tanh@     10025fd0     libucrt:fpexcept.obj
 0002:00006fd8       ??_C@_04MLLJIGOK@atan@     10025fd8     libucrt:fpexcept.obj
 0002:00006fe0       ??_C@_05KNGEOGJB@atan2@    10025fe0     libucrt:fpexcept.obj
 0002:00006fe8       ??_C@_03BLEJJJBH@sin@      10025fe8     libucrt:fpexcept.obj
 0002:00006fec       ??_C@_03LALBNOCG@cos@      10025fec     libucrt:fpexcept.obj
 0002:00006ff0       ??_C@_03IIINPABG@tan@      10025ff0     libucrt:fpexcept.obj
 0002:00006ff4       ??_C@_04GFPJNGEK@ceil@     10025ff4     libucrt:fpexcept.obj
 0002:00006ffc       ??_C@_05PBJFFIGL@floor@    10025ffc     libucrt:fpexcept.obj
 0002:00007004       ??_C@_04ODHECPBC@fabs@     10026004     libucrt:fpexcept.obj
 0002:0000700c       ??_C@_04EHEDPDJG@modf@     1002600c     libucrt:fpexcept.obj
 0002:00007014       ??_C@_05CEJMAHNP@ldexp@    10026014     libucrt:fpexcept.obj
 0002:0000701c       ??_C@_05KBKMEMPO@_cabs@    1002601c     libucrt:fpexcept.obj
 0002:00007024       ??_C@_06MEIMCGCF@_hypot@   10026024     libucrt:fpexcept.obj
 0002:0000702c       ??_C@_04KEPJIHGP@fmod@     1002602c     libucrt:fpexcept.obj
 0002:00007034       ??_C@_05GKKHEGJL@frexp@    10026034     libucrt:fpexcept.obj
 0002:0000703c       ??_C@_03MJLDFKDL@_y0@      1002603c     libucrt:fpexcept.obj
 0002:00007040       ??_C@_03NAKIGLHK@_y1@      10026040     libucrt:fpexcept.obj
 0002:00007044       ??_C@_03ONILCKOB@_yn@      10026044     libucrt:fpexcept.obj
 0002:00007048       ??_C@_05JGDBENOH@_logb@    10026048     libucrt:fpexcept.obj
 0002:00007050       ??_C@_0L@KDOEJCKC@_nextafter@ 10026050     libucrt:fpexcept.obj
 0002:00007060       __d_inf                    10026060     libucrt:util.obj
 0002:00007068       __d_max                    10026068     libucrt:util.obj
 0002:00007070       __d_mzero                  10026070     libucrt:util.obj
 0002:000070e8       __load_config_used         100260e8     LIBCMT:loadcfg.obj
 0002:0000718c       __tls_used                 1002618c     LIBCMT:tlssup.obj
 0002:000071a4       ??_R4exception@std@@6B@    100261a4     LIBCMT:throw_bad_alloc.obj
 0002:000071b8       ??_R3exception@std@@8      100261b8     LIBCMT:throw_bad_alloc.obj
 0002:000071c8       ??_R2exception@std@@8      100261c8     LIBCMT:throw_bad_alloc.obj
 0002:000071d0       ??_R1A@?0A@EA@exception@std@@8 100261d0     LIBCMT:throw_bad_alloc.obj
 0002:000071ec       ??_R4bad_alloc@std@@6B@    100261ec     LIBCMT:throw_bad_alloc.obj
 0002:00007200       ??_R3bad_alloc@std@@8      10026200     LIBCMT:throw_bad_alloc.obj
 0002:00007210       ??_R2bad_alloc@std@@8      10026210     LIBCMT:throw_bad_alloc.obj
 0002:0000721c       ??_R1A@?0A@EA@bad_alloc@std@@8 1002621c     LIBCMT:throw_bad_alloc.obj
 0002:00007238       ??_R4bad_array_new_length@std@@6B@ 10026238     LIBCMT:throw_bad_alloc.obj
 0002:0000724c       ??_R3bad_array_new_length@std@@8 1002624c     LIBCMT:throw_bad_alloc.obj
 0002:0000725c       ??_R2bad_array_new_length@std@@8 1002625c     LIBCMT:throw_bad_alloc.obj
 0002:0000726c       ??_R1A@?0A@EA@bad_array_new_length@std@@8 1002626c     LIBCMT:throw_bad_alloc.obj
 0002:00007288       ??_R4type_info@@6B@        10026288     LIBCMT:std_type_info_static.obj
 0002:0000729c       ??_R3type_info@@8          1002629c     LIBCMT:std_type_info_static.obj
 0002:000072ac       ??_R2type_info@@8          100262ac     LIBCMT:std_type_info_static.obj
 0002:000072b4       ??_R1A@?0A@EA@type_info@@8 100262b4     LIBCMT:std_type_info_static.obj
 0002:000072d0       ??_R4bad_exception@std@@6B@ 100262d0     libvcruntime:frame.obj
 0002:000072e4       ??_R3bad_exception@std@@8  100262e4     libvcruntime:frame.obj
 0002:000072f4       ??_R2bad_exception@std@@8  100262f4     libvcruntime:frame.obj
 0002:00007300       ??_R1A@?0A@EA@bad_exception@std@@8 10026300     libvcruntime:frame.obj
 0002:00007320       ___safe_se_handler_table   10026320     <linker-defined>
 0002:0000771c       ___rtc_iaa                 1002671c     LIBCMT:initsect.obj
 0002:00007720       ___rtc_izz                 10026720     LIBCMT:initsect.obj
 0002:00007724       ___rtc_taa                 10026724     LIBCMT:initsect.obj
 0002:00007728       ___rtc_tzz                 10026728     LIBCMT:initsect.obj
 0002:0000772c       __tls_start                1002672c     LIBCMT:tlssup.obj
 0002:00007730       __Init_thread_epoch        10026730     LIBCMT:thread_safe_statics.obj
 0002:00007734       __tls_end                  10026734     LIBCMT:tlssup.obj
 0002:00007834       __TI2?AVbad_alloc@std@@    10026834     LIBCMT:throw_bad_alloc.obj
 0002:00007844       __CTA2?AVbad_alloc@std@@   10026844     LIBCMT:throw_bad_alloc.obj
 0002:00007850       __CT??_R0?AVbad_alloc@std@@@8??0bad_alloc@std@@QAE@ABV01@@Z12 10026850     LIBCMT:throw_bad_alloc.obj
 0002:0000786c       __CT??_R0?AVexception@std@@@8??0exception@std@@QAE@ABV01@@Z12 1002686c     LIBCMT:throw_bad_alloc.obj
 0002:00007888       __TI3?AVbad_array_new_length@std@@ 10026888     LIBCMT:throw_bad_alloc.obj
 0002:00007898       __CTA3?AVbad_array_new_length@std@@ 10026898     LIBCMT:throw_bad_alloc.obj
 0002:000078a8       __CT??_R0?AVbad_array_new_length@std@@@8??0bad_array_new_length@std@@QAE@ABV01@@Z12 100268a8     LIBCMT:throw_bad_alloc.obj
 0002:000079cc       __TI2?AVbad_exception@std@@ 100269cc     libvcruntime:frame.obj
 0002:000079dc       __CTA2?AVbad_exception@std@@ 100269dc     libvcruntime:frame.obj
 0002:000079e8       __CT??_R0?AVbad_exception@std@@@8??0bad_exception@std@@QAE@ABV01@@Z12 100269e8     libvcruntime:frame.obj
 0002:00007d44       ___pobjMapEntryFirst       10026d44     OposVariant.obj
 0002:00007d48       ___pobjMapEntryLast        10026d48     OposVariant.obj
 0002:00007dfc       __IMPORT_DESCRIPTOR_KERNEL32 10026dfc     kernel32:KERNEL32.dll
 0002:00007e10       __IMPORT_DESCRIPTOR_USER32 10026e10     user32:USER32.dll
 0002:00007e24       __IMPORT_DESCRIPTOR_GDI32  10026e24     gdi32:GDI32.dll
 0002:00007e38       __IMPORT_DESCRIPTOR_ADVAPI32 10026e38     advapi32:ADVAPI32.dll
 0002:00007e4c       __IMPORT_DESCRIPTOR_ole32  10026e4c     ole32:ole32.dll
 0002:00007e60       __IMPORT_DESCRIPTOR_OLEAUT32 10026e60     oleaut32:OLEAUT32.dll
 0002:00007e74       __NULL_IMPORT_DESCRIPTOR   10026e74     kernel32:KERNEL32.dll
 0003:00000000       ?s_Claim@?7??GetIDsOfNames@CComTypeInfoHolder@ATL@@QAEJABU_GUID@@PAPA_WIKPAJ@Z@4PA_WA 10028000     CashDrawer.obj
 0003:00000018       ?s_Release@?7??GetIDsOfNames@CComTypeInfoHolder@ATL@@QAEJABU_GUID@@PAPA_WIKPAJ@Z@4PA_WA 10028018     CashDrawer.obj
 0003:00000034       ?_tih@?$IDispatchImpl@UIOPOSCashDrawer@@$1?IID_IOPOSCashDrawer@@3U_GUID@@B$1?LIBID_OposCashDrawer_CCO@@3U3@B$00$0A@VCComTypeInfoHolder@ATL@@@ATL@@1VCComTypeInfoHolder@2@A 10028034     CashDrawer.obj
 0003:00000050       ?_tih@?$IProvideClassInfo2Impl@$1?CLSID_OPOSCashDrawer@@3U_GUID@@B$1?DIID__IOPOSCashDrawerEvents@@3U2@B$1?LIBID_OposCashDrawer_CCO@@3U2@B$00$0A@VCComTypeInfoHolder@ATL@@@ATL@@1VCComTypeInfoHolder@2@A 10028050     CashDrawer.obj
 0003:0000006c       ?vszContents@?6??Save@?$IPersistStorageImpl@VCOPOSCashDrawer@@@ATL@@UAGJPAUIStorage@@H@Z@4PB_WB 1002806c     CashDrawer.obj
 0003:00000070       ?wc@?1??GetWndClassInfo@?$CWindowImpl@VCOPOSCashDrawer@@VCWindow@ATL@@V?$CWinTraits@$0FGAAAAAA@$0A@@3@@ATL@@SAAAU_ATL_WNDCLASSINFOW@3@XZ@4U43@A 10028070     CashDrawer.obj
 0003:000000fc       ?rcDefault@CWindow@ATL@@2UtagRECT@@A 100280fc     CashDrawer.obj
 0003:00000158       ?g_WindowName@@3PA_WA      10028158     CashDrawerImpl.obj
 0003:0000017c       ?g_ControlVersion@@3JA     1002817c     CashDrawerImpl.obj
 0003:00000180       ?g_ControlDescription@@3PADA 10028180     CashDrawerImpl.obj
 0003:00000244       ___scrt_native_dllmain_reason 10028244     LIBCMT:utility.obj
 0003:00000248       __Init_global_epoch        10028248     LIBCMT:thread_safe_statics.obj
 0003:00000250       ___security_cookie_complement 10028250     LIBCMT:gs_cookie.obj
 0003:00000254       ___security_cookie         10028254     LIBCMT:gs_cookie.obj
 0003:00000258       ___isa_enabled             10028258     LIBCMT:cpu_disp.obj
 0003:00000270       __NLG_Destination          10028270     libvcruntime:exsup.obj
 0003:00000288       ___abort_behavior          10028288     libucrt:abort.obj
 0003:00000298       __iob                      10028298     libucrt:_file.obj
 0003:00000340       ___acrt_initial_locale_data 10028340     libucrt:nlsdata.obj
 0003:000003f8       ___acrt_initial_locale_pointers 100283f8     libucrt:nlsdata.obj
 0003:00000400       ___acrt_wide_c_locale_string 10028400     libucrt:nlsdata.obj
 0003:00000408       ___acrt_initial_multibyte_data 10028408     libucrt:mbctype.obj
 0003:00000928       __pwctype                  10028928     libucrt:ctype.obj
 0003:0000092c       ___globallocalestatus      1002892c     libucrt:glstatus.obj
 0003:00000930       ___acrt_lconv_c            10028930     libucrt:localeconv.obj
 0003:00000980       ___acrt_lconv_static_decimal 10028980     libucrt:localeconv.obj
 0003:00000984       ___acrt_lconv_static_W_decimal 10028984     libucrt:localeconv.obj
 0003:00000990       __lookuptrailbytes         10028990     libucrt:read.obj
 0003:00000aa0       __fltused                  10028aa0     LIBCMT:fltused.obj
 0003:00000ab0       ??_R0?AVbad_alloc@std@@@8  10028ab0     LIBCMT:throw_bad_alloc.obj
 0003:00000acc       ??_R0?AVexception@std@@@8  10028acc     LIBCMT:throw_bad_alloc.obj
 0003:00000ae8       ??_R0?AVbad_array_new_length@std@@@8 10028ae8     LIBCMT:throw_bad_alloc.obj
 0003:00000b10       ??_R0?AVtype_info@@@8      10028b10     LIBCMT:std_type_info_static.obj
 0003:00000b28       ??_R0?AVbad_exception@std@@@8 10028b28     libvcruntime:frame.obj
 0003:00000b48       ?_pPerfRegFunc@ATL@@3P6AJPAUHINSTANCE__@@@ZA 10028b48     OposVariant.obj
 0003:00000b4c       ?_pPerfUnRegFunc@ATL@@3P6AJXZA 10028b4c     OposVariant.obj
 0003:00000b50       ?_AtlRegisterPerUser@ATL@@3_NA 10028b50     OposVariant.obj
 0003:00000b54       ?_pAtlModule@ATL@@3PAVCAtlModule@1@A 10028b54     OposVariant.obj
 0003:00000b58       ?_pModule@ATL@@3PAVCComModule@1@A 10028b58     OposVariant.obj
 0003:00000b5c       ?m_bInitFailed@CAtlBaseModule@ATL@@2_NA 10028b5c     OposVariant.obj
 0003:00000b60       ?_AtlComModule@ATL@@3VCAtlComModule@1@A 10028b60     OposVariant.obj
 0003:00000b88       ?_AtlWinModule@ATL@@3VCAtlWinModule@1@A 10028b88     OposVariant.obj
 0003:00000bb4       ?m_libid@CAtlModule@ATL@@2U_GUID@@A 10028bb4     CashDrawer.obj
 0003:00000bc4       ?_entries@?1??GetConnMap@COPOSCashDrawer@@SAPBU_ATL_CONNMAP_ENTRY@ATL@@PAH@Z@4QBU34@B 10028bc4     CashDrawer.obj
 0003:00000bd0       ?$TSS0@?1??GetConnMap@COPOSCashDrawer@@SAPBU_ATL_CONNMAP_ENTRY@ATL@@PAH@Z@4HA 10028bd0     CashDrawer.obj
 0003:00000bd8       ?_OptionsStorage@?1??__local_stdio_printf_options@@9@4_KA 10028bd8     CashDrawer.obj
 0003:00000be0       ?pfnRegDeleteKeyEx@?1??DeleteSubKey@CRegKey@ATL@@QAEJPB_W@Z@4P6GJPAUHKEY__@@0KK@ZA 10028be0     CashDrawer.obj
 0003:00000be4       ?bInitialized@?1??DeleteSubKey@CRegKey@ATL@@QAEJPB_W@Z@4_NA 10028be4     CashDrawer.obj
 0003:00000be8       ?_Module@@3VCComModule@ATL@@A 10028be8     CashDrawer.obj
 0003:00000c18       ?pConnMap@?$IConnectionPointContainerImpl@VCOPOSCashDrawer@@@ATL@@0PBU_ATL_CONNMAP_ENTRY@2@B 10028c18     CashDrawer.obj
 0003:00000c1c       ?s_nInstances@COPOSCashDrawer@@1HA 10028c1c     CashDrawerImpl.obj
 0003:00000c20       ___scrt_current_native_startup_state 10028c20     LIBCMT:utility.obj
 0003:00000c24       ___scrt_native_startup_lock 10028c24     LIBCMT:utility.obj
 0003:00000f8c       __tls_index                10028f8c     LIBCMT:tlssup.obj
 0003:00000f94       ___isa_available           10028f94     LIBCMT:cpu_disp.obj
 0003:00000f98       ___favor                   10028f98     LIBCMT:cpu_disp.obj
 0003:00000f9c       ___scrt_debugger_hook_flag 10028f9c     LIBCMT:utility_desktop.obj
 0003:00000fa0       ?__type_info_root_node@@3U__type_info_node@@A 10028fa0     LIBCMT:tncleanup.obj
 0003:00000fa8       ?_OptionsStorage@?1??__local_stdio_scanf_options@@9@4_KA 10028fa8     LIBCMT:default_local_stdio_options.obj
 0003:00000fb0       ?_AtlBaseModule@ATL@@3VCAtlBaseModule@1@A 10028fb0     atls:atlbase.obj
 0003:00000fe8       ?__AtlThunkPool@@3PAT_SLIST_HEADER@@A 10028fe8     atls:atlthunk.obj
 0003:00001000       ___@@_PchSym_@00@UztvmgUPdlipUGUhUrmgvinvwrzgvUexgllohUzgohOmzgrevkilqPBACIAJCBDBUlyqiUcIGUhgwzucOlyq@4B2008FD98C1DD4 10029000     atls:stdafx.obj
 0003:00001004       ?__WinRTOutOfMemoryExceptionCallback@@3P6GPAXXZA 10029004     libvcruntime:ehhelpers.obj
 0003:00001008       ___pPurecall               10029008     libvcruntime:purevirt_data.obj
 0003:00001050       ?pArgList@UnDecorator@@0PAVReplicator@@A 10029050     libvcruntime:undname.obj
 0003:00001054       ?pZNameList@UnDecorator@@0PAVReplicator@@A 10029054     libvcruntime:undname.obj
 0003:00001058       ?pTemplateArgList@UnDecorator@@0PAVReplicator@@A 10029058     libvcruntime:undname.obj
 0003:0000105c       ?gName@UnDecorator@@0PBDB  1002905c     libvcruntime:undname.obj
 0003:00001060       ?name@UnDecorator@@0PBDB   10029060     libvcruntime:undname.obj
 0003:00001064       ?disableFlags@UnDecorator@@0KA 10029064     libvcruntime:undname.obj
 0003:00001068       ?fExplicitTemplateParams@UnDecorator@@0_NA 10029068     libvcruntime:undname.obj
 0003:00001069       ?fGetTemplateArgumentList@UnDecorator@@0_NA 10029069     libvcruntime:undname.obj
 0003:0000106c       ?m_pGetParameter@UnDecorator@@0P6APADJ@ZA 1002906c     libvcruntime:undname.obj
 0003:00001070       ?m_CHPENameOffset@UnDecorator@@0KA 10029070     libvcruntime:undname.obj
 0003:00001074       ?m_recursionLevel@UnDecorator@@0KA 10029074     libvcruntime:undname.obj
 0003:000010b8       ?c_exit_complete@?1???R<lambda_6e4b09c48022b2350581041d5f6b0c4c>@@QBE@XZ@4_NA 100290b8     libucrt:exit.obj
 0003:000011c8       __environ_table            100291c8     libucrt:environment_initialization.obj
 0003:000011cc       __wenviron_table           100291cc     libucrt:environment_initialization.obj
 0003:000011d0       ___dcrt_initial_wide_environment 100291d0     libucrt:environment_initialization.obj
 0003:000011d4       ___dcrt_initial_narrow_environment 100291d4     libucrt:environment_initialization.obj
 0003:000011d8       ___acrt_atexit_table       100291d8     libucrt:onexit.obj
 0003:000011e4       ___acrt_at_quick_exit_table 100291e4     libucrt:onexit.obj
 0003:000012d8       __nstream                  100292d8     libucrt:_file.obj
 0003:000012dc       ___piob                    100292dc     libucrt:_file.obj
 0003:000012e4       ___acrt_stdout_buffer      100292e4     libucrt:_sftbuf.obj
 0003:000012e8       ___acrt_stderr_buffer      100292e8     libucrt:_sftbuf.obj
 0003:000012ec       ___acrt_locale_changed_data 100292ec     libucrt:wsetlocale.obj
 0003:000012f0       ___acrt_current_locale_data 100292f0     libucrt:nlsdata.obj
 0003:000012f8       ___pioinfo                 100292f8     libucrt:ioinit.obj
 0003:000014f8       __nhandle                  100294f8     libucrt:ioinit.obj
 0003:00001654       __mbctype                  10029654     libucrt:mbctype.obj
 0003:00001658       __mbcasemap                10029658     libucrt:mbctype.obj
 0003:0000165c       ___acrt_current_multibyte_data 1002965c     libucrt:mbctype.obj
 0003:00001668       __pgmptr                   10029668     libucrt:argv_data.obj
 0003:0000166c       ___argc                    1002966c     libucrt:argv_data.obj
 0003:00001670       ___argv                    10029670     libucrt:argv_data.obj
 0003:00001674       ___wargv                   10029674     libucrt:argv_data.obj
 0003:00001678       __acmdln                   10029678     libucrt:argv_data.obj
 0003:0000167c       __wcmdln                   1002967c     libucrt:argv_data.obj
 0003:00001680       ___acrt_heap               10029680     libucrt:heap_handle.obj
 0003:0000169c       ___acrt_lconv_static_null  1002969c     libucrt:localeconv.obj
 0003:000016a0       ___acrt_lconv_static_W_null 100296a0     libucrt:localeconv.obj
 0003:000016b0       ___fastflag                100296b0     libucrt:fp_flags.obj
 0003:000016b8       ___dyn_tls_init_callback   100296b8     <common>
 0003:000016bc       ___scrt_ucrt_dll_is_in_use 100296bc     <common>
 0003:000016c0       __pmatherr                 100296c0     <common>
 0003:000016c4       ___use_sse2_mathfcns       100296c4     <common>

 entry point at        0001:0000b968

 Static symbols

 0000:fffd0000       .debug$S                   10000000     OPOSCashDrawer.exp
 0000:fffd0000       .debug$S                   10000000     advapi32:ADVAPI32.dll
 0000:fffd0000       .debug$S                   10000000     advapi32:ADVAPI32.dll
 0000:fffd0000       .debug$S                   10000000     advapi32:ADVAPI32.dll
 0000:fffd0000       .debug$S                   10000000     advapi32:ADVAPI32.dll
 0000:fffd0000       .debug$S                   10000000     advapi32:ADVAPI32.dll
 0000:fffd0000       .debug$S                   10000000     advapi32:ADVAPI32.dll
 0000:fffd0000       .debug$S                   10000000     advapi32:ADVAPI32.dll
 0000:fffd0000       .debug$S                   10000000     advapi32:ADVAPI32.dll
 0000:fffd0000       .debug$S                   10000000     advapi32:ADVAPI32.dll
 0000:fffd0000       .debug$S                   10000000     gdi32:GDI32.dll
 0000:fffd0000       .debug$S                   10000000     gdi32:GDI32.dll
 0000:fffd0000       .debug$S                   10000000     gdi32:GDI32.dll
 0000:fffd0000       .debug$S                   10000000     gdi32:GDI32.dll
 0000:fffd0000       .debug$S                   10000000     gdi32:GDI32.dll
 0000:fffd0000       .debug$S                   10000000     gdi32:GDI32.dll
 0000:fffd0000       .debug$S                   10000000     gdi32:GDI32.dll
 0000:fffd0000       .debug$S                   10000000     gdi32:GDI32.dll
 0000:fffd0000       .debug$S                   10000000     gdi32:GDI32.dll
 0000:fffd0000       .debug$S                   10000000     gdi32:GDI32.dll
 0000:fffd0000       .debug$S                   10000000     gdi32:GDI32.dll
 0000:fffd0000       .debug$S                   10000000     gdi32:GDI32.dll
 0000:fffd0000       .debug$S                   10000000     gdi32:GDI32.dll
 0000:fffd0000       .debug$S                   10000000     gdi32:GDI32.dll
 0000:fffd0000       .debug$S                   10000000     gdi32:GDI32.dll
 0000:fffd0000       .debug$S                   10000000     gdi32:GDI32.dll
 0000:fffd0000       .debug$S                   10000000     gdi32:GDI32.dll
 0000:fffd0000       .debug$S                   10000000     gdi32:GDI32.dll
 0000:fffd0000       .debug$S                   10000000     gdi32:GDI32.dll
 0000:fffd0000       .debug$S                   10000000     kernel32:KERNEL32.dll
 0000:fffd0000       .debug$S                   10000000     kernel32:KERNEL32.dll
 0000:fffd0000       .debug$S                   10000000     kernel32:KERNEL32.dll
 0000:fffd0000       .debug$S                   10000000     kernel32:KERNEL32.dll
 0000:fffd0000       .debug$S                   10000000     kernel32:KERNEL32.dll
 0000:fffd0000       .debug$S                   10000000     kernel32:KERNEL32.dll
 0000:fffd0000       .debug$S                   10000000     kernel32:KERNEL32.dll
 0000:fffd0000       .debug$S                   10000000     kernel32:KERNEL32.dll
 0000:fffd0000       .debug$S                   10000000     kernel32:KERNEL32.dll
 0000:fffd0000       .debug$S                   10000000     kernel32:KERNEL32.dll
 0000:fffd0000       .debug$S                   10000000     kernel32:KERNEL32.dll
 0000:fffd0000       .debug$S                   10000000     kernel32:KERNEL32.dll
 0000:fffd0000       .debug$S                   10000000     kernel32:KERNEL32.dll
 0000:fffd0000       .debug$S                   10000000     kernel32:KERNEL32.dll
 0000:fffd0000       .debug$S                   10000000     kernel32:KERNEL32.dll
 0000:fffd0000       .debug$S                   10000000     kernel32:KERNEL32.dll
 0000:fffd0000       .debug$S                   10000000     kernel32:KERNEL32.dll
 0000:fffd0000       .debug$S                   10000000     kernel32:KERNEL32.dll
 0000:fffd0000       .debug$S                   10000000     kernel32:KERNEL32.dll
 0000:fffd0000       .debug$S                   10000000     kernel32:KERNEL32.dll
 0000:fffd0000       .debug$S                   10000000     kernel32:KERNEL32.dll
 0000:fffd0000       .debug$S                   10000000     kernel32:KERNEL32.dll
 0000:fffd0000       .debug$S                   10000000     kernel32:KERNEL32.dll
 0000:fffd0000       .debug$S                   10000000     kernel32:KERNEL32.dll
 0000:fffd0000       .debug$S                   10000000     kernel32:KERNEL32.dll
 0000:fffd0000       .debug$S                   10000000     kernel32:KERNEL32.dll
 0000:fffd0000       .debug$S                   10000000     kernel32:KERNEL32.dll
 0000:fffd0000       .debug$S                   10000000     kernel32:KERNEL32.dll
 0000:fffd0000       .debug$S                   10000000     kernel32:KERNEL32.dll
 0000:fffd0000       .debug$S                   10000000     kernel32:KERNEL32.dll
 0000:fffd0000       .debug$S                   10000000     kernel32:KERNEL32.dll
 0000:fffd0000       .debug$S                   10000000     kernel32:KERNEL32.dll
 0000:fffd0000       .debug$S                   10000000     kernel32:KERNEL32.dll
 0000:fffd0000       .debug$S                   10000000     kernel32:KERNEL32.dll
 0000:fffd0000       .debug$S                   10000000     kernel32:KERNEL32.dll
 0000:fffd0000       .debug$S                   10000000     kernel32:KERNEL32.dll
 0000:fffd0000       .debug$S                   10000000     kernel32:KERNEL32.dll
 0000:fffd0000       .debug$S                   10000000     kernel32:KERNEL32.dll
 0000:fffd0000       .debug$S                   10000000     kernel32:KERNEL32.dll
 0000:fffd0000       .debug$S                   10000000     kernel32:KERNEL32.dll
 0000:fffd0000       .debug$S                   10000000     kernel32:KERNEL32.dll
 0000:fffd0000       .debug$S                   10000000     kernel32:KERNEL32.dll
 0000:fffd0000       .debug$S                   10000000     kernel32:KERNEL32.dll
 0000:fffd0000       .debug$S                   10000000     kernel32:KERNEL32.dll
 0000:fffd0000       .debug$S                   10000000     kernel32:KERNEL32.dll
 0000:fffd0000       .debug$S                   10000000     kernel32:KERNEL32.dll
 0000:fffd0000       .debug$S                   10000000     kernel32:KERNEL32.dll
 0000:fffd0000       .debug$S                   10000000     kernel32:KERNEL32.dll
 0000:fffd0000       .debug$S                   10000000     kernel32:KERNEL32.dll
 0000:fffd0000       .debug$S                   10000000     kernel32:KERNEL32.dll
 0000:fffd0000       .debug$S                   10000000     kernel32:KERNEL32.dll
 0000:fffd0000       .debug$S                   10000000     kernel32:KERNEL32.dll
 0000:fffd0000       .debug$S                   10000000     kernel32:KERNEL32.dll
 0000:fffd0000       .debug$S                   10000000     kernel32:KERNEL32.dll
 0000:fffd0000       .debug$S                   10000000     kernel32:KERNEL32.dll
 0000:fffd0000       .debug$S                   10000000     kernel32:KERNEL32.dll
 0000:fffd0000       .debug$S                   10000000     kernel32:KERNEL32.dll
 0000:fffd0000       .debug$S                   10000000     kernel32:KERNEL32.dll
 0000:fffd0000       .debug$S                   10000000     kernel32:KERNEL32.dll
 0000:fffd0000       .debug$S                   10000000     kernel32:KERNEL32.dll
 0000:fffd0000       .debug$S                   10000000     kernel32:KERNEL32.dll
 0000:fffd0000       .debug$S                   10000000     kernel32:KERNEL32.dll
 0000:fffd0000       .debug$S                   10000000     kernel32:KERNEL32.dll
 0000:fffd0000       .debug$S                   10000000     kernel32:KERNEL32.dll
 0000:fffd0000       .debug$S                   10000000     kernel32:KERNEL32.dll
 0000:fffd0000       .debug$S                   10000000     kernel32:KERNEL32.dll
 0000:fffd0000       .debug$S                   10000000     kernel32:KERNEL32.dll
 0000:fffd0000       .debug$S                   10000000     kernel32:KERNEL32.dll
 0000:fffd0000       .debug$S                   10000000     kernel32:KERNEL32.dll
 0000:fffd0000       .debug$S                   10000000     kernel32:KERNEL32.dll
 0000:fffd0000       .debug$S                   10000000     kernel32:KERNEL32.dll
 0000:fffd0000       .debug$S                   10000000     kernel32:KERNEL32.dll
 0000:fffd0000       .debug$S                   10000000     kernel32:KERNEL32.dll
 0000:fffd0000       .debug$S                   10000000     kernel32:KERNEL32.dll
 0000:fffd0000       .debug$S                   10000000     kernel32:KERNEL32.dll
 0000:fffd0000       .debug$S                   10000000     kernel32:KERNEL32.dll
 0000:fffd0000       .debug$S                   10000000     kernel32:KERNEL32.dll
 0000:fffd0000       .debug$S                   10000000     kernel32:KERNEL32.dll
 0000:fffd0000       .debug$S                   10000000     kernel32:KERNEL32.dll
 0000:fffd0000       .debug$S                   10000000     kernel32:KERNEL32.dll
 0000:fffd0000       .debug$S                   10000000     kernel32:KERNEL32.dll
 0000:fffd0000       .debug$S                   10000000     kernel32:KERNEL32.dll
 0000:fffd0000       .debug$S                   10000000     kernel32:KERNEL32.dll
 0000:fffd0000       .debug$S                   10000000     kernel32:KERNEL32.dll
 0000:fffd0000       .debug$S                   10000000     kernel32:KERNEL32.dll
 0000:fffd0000       .debug$S                   10000000     kernel32:KERNEL32.dll
 0000:fffd0000       .debug$S                   10000000     kernel32:KERNEL32.dll
 0000:fffd0000       .debug$S                   10000000     kernel32:KERNEL32.dll
 0000:fffd0000       .debug$S                   10000000     kernel32:KERNEL32.dll
 0000:fffd0000       .debug$S                   10000000     kernel32:KERNEL32.dll
 0000:fffd0000       .debug$S                   10000000     kernel32:KERNEL32.dll
 0000:fffd0000       .debug$S                   10000000     kernel32:KERNEL32.dll
 0000:fffd0000       .debug$S                   10000000     kernel32:KERNEL32.dll
 0000:fffd0000       .debug$S                   10000000     kernel32:KERNEL32.dll
 0000:fffd0000       .debug$S                   10000000     kernel32:KERNEL32.dll
 0000:fffd0000       .debug$S                   10000000     kernel32:KERNEL32.dll
 0000:fffd0000       .debug$S                   10000000     kernel32:KERNEL32.dll
 0000:fffd0000       .debug$S                   10000000     kernel32:KERNEL32.dll
 0000:fffd0000       .debug$S                   10000000     kernel32:KERNEL32.dll
 0000:fffd0000       .debug$S                   10000000     kernel32:KERNEL32.dll
 0000:fffd0000       .debug$S                   10000000     kernel32:KERNEL32.dll
 0000:fffd0000       .debug$S                   10000000     kernel32:KERNEL32.dll
 0000:fffd0000       .debug$S                   10000000     kernel32:KERNEL32.dll
 0000:fffd0000       .debug$S                   10000000     kernel32:KERNEL32.dll
 0000:fffd0000       .debug$S                   10000000     kernel32:KERNEL32.dll
 0000:fffd0000       .debug$S                   10000000     kernel32:KERNEL32.dll
 0000:fffd0000       .debug$S                   10000000     ole32:ole32.dll
 0000:fffd0000       .debug$S                   10000000     ole32:ole32.dll
 0000:fffd0000       .debug$S                   10000000     ole32:ole32.dll
 0000:fffd0000       .debug$S                   10000000     ole32:ole32.dll
 0000:fffd0000       .debug$S                   10000000     ole32:ole32.dll
 0000:fffd0000       .debug$S                   10000000     ole32:ole32.dll
 0000:fffd0000       .debug$S                   10000000     ole32:ole32.dll
 0000:fffd0000       .debug$S                   10000000     ole32:ole32.dll
 0000:fffd0000       .debug$S                   10000000     ole32:ole32.dll
 0000:fffd0000       .debug$S                   10000000     ole32:ole32.dll
 0000:fffd0000       .debug$S                   10000000     ole32:ole32.dll
 0000:fffd0000       .debug$S                   10000000     ole32:ole32.dll
 0000:fffd0000       .debug$S                   10000000     ole32:ole32.dll
 0000:fffd0000       .debug$S                   10000000     ole32:ole32.dll
 0000:fffd0000       .debug$S                   10000000     oleaut32:OLEAUT32.dll
 0000:fffd0000       .debug$S                   10000000     oleaut32:OLEAUT32.dll
 0000:fffd0000       .debug$S                   10000000     oleaut32:OLEAUT32.dll
 0000:fffd0000       .debug$S                   10000000     oleaut32:OLEAUT32.dll
 0000:fffd0000       .debug$S                   10000000     oleaut32:OLEAUT32.dll
 0000:fffd0000       .debug$S                   10000000     oleaut32:OLEAUT32.dll
 0000:fffd0000       .debug$S                   10000000     oleaut32:OLEAUT32.dll
 0000:fffd0000       .debug$S                   10000000     oleaut32:OLEAUT32.dll
 0000:fffd0000       .debug$S                   10000000     oleaut32:OLEAUT32.dll
 0000:fffd0000       .debug$S                   10000000     oleaut32:OLEAUT32.dll
 0000:fffd0000       .debug$S                   10000000     oleaut32:OLEAUT32.dll
 0000:fffd0000       .debug$S                   10000000     oleaut32:OLEAUT32.dll
 0000:fffd0000       .debug$S                   10000000     oleaut32:OLEAUT32.dll
 0000:fffd0000       .debug$S                   10000000     oleaut32:OLEAUT32.dll
 0000:fffd0000       .debug$S                   10000000     oleaut32:OLEAUT32.dll
 0000:fffd0000       .debug$S                   10000000     oleaut32:OLEAUT32.dll
 0000:fffd0000       .debug$S                   10000000     user32:USER32.dll
 0000:fffd0000       .debug$S                   10000000     user32:USER32.dll
 0000:fffd0000       .debug$S                   10000000     user32:USER32.dll
 0000:fffd0000       .debug$S                   10000000     user32:USER32.dll
 0000:fffd0000       .debug$S                   10000000     user32:USER32.dll
 0000:fffd0000       .debug$S                   10000000     user32:USER32.dll
 0000:fffd0000       .debug$S                   10000000     user32:USER32.dll
 0000:fffd0000       .debug$S                   10000000     user32:USER32.dll
 0000:fffd0000       .debug$S                   10000000     user32:USER32.dll
 0000:fffd0000       .debug$S                   10000000     user32:USER32.dll
 0000:fffd0000       .debug$S                   10000000     user32:USER32.dll
 0000:fffd0000       .debug$S                   10000000     user32:USER32.dll
 0000:fffd0000       .debug$S                   10000000     user32:USER32.dll
 0000:fffd0000       .debug$S                   10000000     user32:USER32.dll
 0000:fffd0000       .debug$S                   10000000     user32:USER32.dll
 0000:fffd0000       .debug$S                   10000000     user32:USER32.dll
 0000:fffd0000       .debug$S                   10000000     user32:USER32.dll
 0000:fffd0000       .debug$S                   10000000     user32:USER32.dll
 0000:fffd0000       .debug$S                   10000000     user32:USER32.dll
 0000:fffd0000       .debug$S                   10000000     user32:USER32.dll
 0000:fffd0000       .debug$S                   10000000     user32:USER32.dll
 0000:fffd0000       .debug$S                   10000000     user32:USER32.dll
 0000:fffd0000       .debug$S                   10000000     user32:USER32.dll
 0000:fffd0000       .debug$S                   10000000     user32:USER32.dll
 0000:fffd0000       .debug$S                   10000000     user32:USER32.dll
 0000:fffd0000       .debug$S                   10000000     user32:USER32.dll
 0000:fffd0000       .debug$S                   10000000     user32:USER32.dll
 0000:fffd0000       .debug$S                   10000000     user32:USER32.dll
 0000:fffd0000       .debug$S                   10000000     user32:USER32.dll
 0000:fffd0000       .debug$S                   10000000     user32:USER32.dll
 0000:fffd0000       .debug$S                   10000000     user32:USER32.dll
 0000:fffd0000       .debug$S                   10000000     user32:USER32.dll
 0000:fffd0000       .debug$S                   10000000     user32:USER32.dll
 0000:fffd0000       .debug$S                   10000000     user32:USER32.dll
 0000:fffd0000       .debug$S                   10000000     user32:USER32.dll
 0001:00000000       ??__E_AtlComModule@ATL@@YAXXZ 10001000 f   OposVariant.obj
 0001:00000016       ??__E_AtlWinModule@ATL@@YAXXZ 10001016 f   OposVariant.obj
 0001:0000002c       ??__E?pConnMap@?$IConnectionPointContainerImpl@VCOPOSCashDrawer@@@ATL@@0PBU_ATL_CONNMAP_ENTRY@2@B@@YAXXZ 1000102c f   CashDrawer.obj
 0001:0000003a       ??__E_Module@@YAXXZ        1000103a f   CashDrawer.obj
 0001:00000064       ??__E_AtlBaseModule@ATL@@YAXXZ 10001064 f   atls:atlbase.obj
 0001:00000bf8       $LN24                      10001bf8     CashDrawer.obj
 0001:000056ab       $LN47                      100066ab     CashDrawer.obj
 0001:000056c3       $LN46                      100066c3     CashDrawer.obj
 0001:00007890       $LN37                      10008890     CashDrawer.obj
 0001:000078a8       $LN36                      100088a8     CashDrawer.obj
 0001:00008f84       $LN76                      10009f84     CashDrawer.obj
 0001:00008f9c       $LN75                      10009f9c     CashDrawer.obj
 0001:00009355       _memcpy_s                  1000a355 f   CashDrawer.obj
 0001:0000adf9       ?find_pe_section@@YAPAU_IMAGE_SECTION_HEADER@@QAEI@Z 1000bdf9 f   LIBCMT:utility.obj
 0001:0000b118       ?__scrt_initialize_thread_safe_statics@@YAHXZ 1000c118 f   LIBCMT:thread_safe_statics.obj
 0001:0000b13f       ?__scrt_initialize_thread_safe_statics_platform_specific@@YAXXZ 1000c13f f   LIBCMT:thread_safe_statics.obj
 0001:0000b1c1       ?__scrt_uninitialize_thread_safe_statics@@YAXXZ 1000c1c1 f   LIBCMT:thread_safe_statics.obj
 0001:0000b530       __catch$??2@YAPAXIABUnothrow_t@std@@@Z$0 1000c530 f   LIBCMT:new_scalar_nothrow.obj
 0001:0000b570       $$000000                   1000c570     LIBCMT:sehprolg4gs.obj
 0001:0000b5d0       $$000000                   1000c5d0     LIBCMT:alloca16.obj
 0001:0000b600       $$000000                   1000c600     LIBCMT:chkstk.obj
 0001:0000b62d       ?dllmain_crt_dispatch@@YGHQAUHINSTANCE__@@KQAX@Z 1000c62d f   LIBCMT:dll_dllmain.obj
 0001:0000b680       ?dllmain_crt_process_attach@@YAHQAUHINSTANCE__@@QAX@Z 1000c680 f   LIBCMT:dll_dllmain.obj
 0001:0000b787       ?dllmain_crt_process_detach@@YAH_N@Z 1000c787 f   LIBCMT:dll_dllmain.obj
 0001:0000b837       ?dllmain_dispatch@@YAHQAUHINSTANCE__@@KQAX@Z 1000c837 f   LIBCMT:dll_dllmain.obj
 0001:0000b93d       ?dllmain_raw@@YGHQAUHINSTANCE__@@KQAX@Z 1000c93d f   LIBCMT:dll_dllmain.obj
 0001:0000bcc0       $$000000                   1000ccc0     LIBCMT:sehprolg4.obj
 0001:0000bd1c       ___get_entropy             1000cd1c f   LIBCMT:gs_support.obj
 0001:0000c013       ??$GetProcAddressAll@P6GP6GJPAUHWND__@@IIJ@ZPAUAtlThunkData_t@@@Z@@YAP6GP6GJPAUHWND__@@IIJ@ZPAUAtlThunkData_t@@@ZPAP6GP6GJ0IIJ@Z1@Z@Z 1000d013 f   atls:atlthunk.obj
 0001:0000c013       ??$GetProcAddressAll@P6GPAUAtlThunkData_t@@XZ@@YAP6GPAUAtlThunkData_t@@XZPAP6GPAU0@XZ@Z 1000d013 f   atls:atlthunk.obj
 0001:0000c013       ??$GetProcAddressAll@P6GXPAUAtlThunkData_t@@@Z@@YAP6GXPAUAtlThunkData_t@@@ZPAP6GX0@Z@Z 1000d013 f   atls:atlthunk.obj
 0001:0000c013       ??$GetProcAddressAll@P6GXPAUAtlThunkData_t@@PAXI@Z@@YAP6GXPAUAtlThunkData_t@@PAXI@ZPAP6GX01I@Z@Z 1000d013 f   atls:atlthunk.obj
 0001:0000c0c3       ?GetProcAddressSingle@@YA_NPAUHINSTANCE__@@PBDPAPAX@Z 1000d0c3 f   atls:atlthunk.obj
 0001:0000c215       ?__InitializeThunkPool@@YAHXZ 1000d215 f   atls:atlthunk.obj
 0001:0000c670       _ValidateLocalCookies      1000d670 f   libvcruntime:chandler4.obj
 0001:0000d732       $LN1241                    1000e732     libvcruntime:memcmp.obj
 0001:0000d7c0       $$000000                   1000e7c0     libvcruntime:memcpy.obj
 0001:0000da24       TrailingUpVec              1000ea24     libvcruntime:memcpy.obj
 0001:0000dad0       TrailingDownVec            1000ead0     libvcruntime:memcpy.obj
 0001:0000dd40       $$000000                   1000ed40     libvcruntime:memset.obj
 0001:0000e343       ?_FilterSetCurrentException@@YAKPAU_EXCEPTION_POINTERS@@E@Z 1000f343 f   libvcruntime:ehhelpers.obj
 0001:0000e590       $$000000                   1000f590     libvcruntime:memmove.obj
 0001:0000e7f4       TrailingUpVec              1000f7f4     libvcruntime:memmove.obj
 0001:0000e8a0       TrailingDownVec            1000f8a0     libvcruntime:memmove.obj
 0001:0000eb10       $$000000                   1000fb10     libvcruntime:exsup4.obj
 0001:0000eba0       __unwind_handler4          1000fba0 f   libvcruntime:exsup4.obj
 0001:0000ee7f       ??$BuildCatchObjectHelperInternal@V__FrameHandler3@@@@YAHPAUEHExceptionRecord@@PAXPBU_s_HandlerType@@PBU_s_CatchableType@@@Z 1000fe7f f   libvcruntime:frame.obj
 0001:0000efbd       ??$BuildCatchObjectInternal@V__FrameHandler3@@@@YAXPAUEHExceptionRecord@@PAXPBU_s_HandlerType@@PBU_s_CatchableType@@@Z 1000ffbd f   libvcruntime:frame.obj
 0001:0000f056       ??$CatchIt@V__FrameHandler3@@@@YAXPAUEHExceptionRecord@@PAUEHRegistrationNode@@PAU_CONTEXT@@PAXPBU_s_FuncInfo@@PBU_s_HandlerType@@PBU_s_CatchableType@@PBU_s_TryBlockMapEntry@@H1EE@Z 10010056 f   libvcruntime:frame.obj
 0001:0000f0d6       ??$FindHandler@V__FrameHandler3@@@@YAXPAUEHExceptionRecord@@PAUEHRegistrationNode@@PAU_CONTEXT@@PAXPBU_s_FuncInfo@@EH1@Z 100100d6 f   libvcruntime:frame.obj
 0001:0000f48c       ??$FindHandlerForForeignException@V__FrameHandler3@@@@YAXPAUEHExceptionRecord@@PAUEHRegistrationNode@@PAU_CONTEXT@@PAXPBU_s_FuncInfo@@HH1@Z 1001048c f   libvcruntime:frame.obj
 0001:0000f7a4       ?CallCatchBlock@@YAPAXPAUEHExceptionRecord@@PAUEHRegistrationNode@@PAU_CONTEXT@@PBU_s_FuncInfo@@PAXHK@Z 100107a4 f   libvcruntime:frame.obj
 0001:0000f968       ?CallUnexpected@@YAXPBU_s_ESTypeList@@@Z 10010968 f   libvcruntime:frame.obj
 0001:0000f988       __catch$?CallUnexpected@@YAXPBU_s_ESTypeList@@@Z$0 10010988 f   libvcruntime:frame.obj
 0001:0000f9a2       ?ExFilterRethrow@@YAHPAU_EXCEPTION_POINTERS@@@Z 100109a2 f   libvcruntime:frame.obj
 0001:0000faec       ?IsInExceptionSpec@@YAEPAUEHExceptionRecord@@PBU_s_ESTypeList@@@Z 10010aec f   libvcruntime:frame.obj
 0001:0000fbc0       $$000000                   10010bc0     libvcruntime:lowhelpr.obj
 0001:0000fc10       $$000000                   10010c10     libvcruntime:exsup.obj
 0001:0000fc31       __unwind_handler           10010c31 f   libvcruntime:exsup.obj
 0001:0000fd4e       ?try_get_first_available_module@@YAPAUHINSTANCE__@@QBW4module_id@?A0x1172487b@@0@Z 10010d4e f   libvcruntime:winapi_downlevel.obj
 0001:0000fdfa       ?try_get_function@@YAPAXW4function_id@?A0x1172487b@@QBDQBW4module_id@2@2@Z 10010dfa f   libvcruntime:winapi_downlevel.obj
 0001:00010484       ??$common_tcsncpy_s@_W@@YAHQA_WIQB_WI@Z 10011484 f   libucrt:wcsncpy_s.obj
 0001:0001055a       ??$common_vsprintf@Vformat_validation_base@__crt_stdio_output@@_W@@YAH_KQA_WIQB_WQAU__crt_locale_pointers@@QAD@Z 1001155a f   libucrt:output.obj
 0001:000106e1       ??$common_vsprintf_s@_W@@YAH_KQA_WIQB_WQAU__crt_locale_pointers@@QAD@Z 100116e1 f   libucrt:output.obj
 0001:00010e10       $LN51                      10011e10     libucrt:output.obj
 0001:0001130b       $LN20                      1001230b     libucrt:output.obj
 0001:0001131f       $LN17                      1001231f     libucrt:output.obj
 0001:00011b7e       ??$?RV<lambda_03b1d95aef87969028cfba75ccab2455>@@AAV<lambda_6e4b09c48022b2350581041d5f6b0c4c>@@V<lambda_22bdf7517842c4b3e53723af5aa32b9e>@@@?$__crt_seh_guarded_call@X@@QAEX$$QAV<lambda_03b1d95aef87969028cfba75ccab2455>@@AAV<lambda_6e4b09c48022b2350581041d5f6b0c4c>@@$$QAV<lambda_22bdf7517842c4b3e53723af5aa32b9e>@@@Z 10012b7e f   libucrt:exit.obj
 0001:00011bcb       ??R<lambda_6e4b09c48022b2350581041d5f6b0c4c>@@QBE@XZ 10012bcb f   libucrt:exit.obj
 0001:00011ca5       ?atexit_exception_filter@@YAHK@Z 10012ca5 f   libucrt:exit.obj
 0001:00011cb8       ?common_exit@@YAXHW4_crt_exit_cleanup_mode@@W4_crt_exit_return_mode@@@Z 10012cb8 f   libucrt:exit.obj
 0001:00011d1c       ?exit_or_terminate_process@@YAXI@Z 10012d1c f   libucrt:exit.obj
 0001:00011d5e       ?is_managed_app@@YA_NXZ    10012d5e f   libucrt:exit.obj
 0001:00011da1       ?try_cor_exit_process@@YAXI@Z 10012da1 f   libucrt:exit.obj
 0001:00011e2f       ??$common_configure_argv@D@@YAHW4_crt_argv_mode@@@Z 10012e2f f   libucrt:argv_parsing.obj
 0001:00011f65       ??$parse_command_line@D@@YAXPADPAPAD0PAI2@Z 10012f65 f   libucrt:argv_parsing.obj
 0001:00012136       ??$common_initialize_environment_nolock@D@@YAHXZ 10013136 f   libucrt:environment_initialization.obj
 0001:00012189       ??$create_environment@D@@YAQAPADQAD@Z 10013189 f   libucrt:environment_initialization.obj
 0001:00012259       ??$free_environment@D@@YAXQAPAD@Z 10013259 f   libucrt:environment_initialization.obj
 0001:00012259       ??$free_environment@_W@@YAXQAPA_W@Z 10013259 f   libucrt:environment_initialization.obj
 0001:000122b1       ??$uninitialize_environment_internal@D@@YAXAAPAPAD@Z 100132b1 f   libucrt:environment_initialization.obj
 0001:000122cc       ??$uninitialize_environment_internal@_W@@YAXAAPAPA_W@Z 100132cc f   libucrt:environment_initialization.obj
 0001:00012323       ??$?RV<lambda_69a2805e680e0e292e8ba93315fe43a8>@@AAV<lambda_f03950bc5685219e0bcd2087efbe011e>@@V<lambda_03fcd07e894ec930e3f35da366ca99d6>@@@?$__crt_seh_guarded_call@H@@QAEH$$QAV<lambda_69a2805e680e0e292e8ba93315fe43a8>@@AAV<lambda_f03950bc5685219e0bcd2087efbe011e>@@$$QAV<lambda_03fcd07e894ec930e3f35da366ca99d6>@@@Z 10013323 f   libucrt:onexit.obj
 0001:0001237e       ??$?RV<lambda_8e746cf0007f6ed984d6f78af1fec997>@@AAV<lambda_22ebabd17bc4fa466a2aca6d8deb888d>@@V<lambda_18ed0c0b38a6dc0daf1e7ac6d6adf05e>@@@?$__crt_seh_guarded_call@H@@QAEH$$QAV<lambda_8e746cf0007f6ed984d6f78af1fec997>@@AAV<lambda_22ebabd17bc4fa466a2aca6d8deb888d>@@$$QAV<lambda_18ed0c0b38a6dc0daf1e7ac6d6adf05e>@@@Z 1001337e f   libucrt:onexit.obj
 0001:000123f8       ??R<lambda_22ebabd17bc4fa466a2aca6d8deb888d>@@QBEHXZ 100133f8 f   libucrt:onexit.obj
 0001:00012521       ??R<lambda_f03950bc5685219e0bcd2087efbe011e>@@QBEHXZ 10013521 f   libucrt:onexit.obj
 0001:0001269a       _initialize_environment    1001369a f   libucrt:initialization.obj
 0001:0001269a       _initialize_global_state_isolation 1001369a f   libucrt:initialization.obj
 0001:0001269a       _report_memory_leaks       1001369a f   libucrt:initialization.obj
 0001:0001269a       _uninitialize_c            1001369a f   libucrt:initialization.obj
 0001:0001269a       _uninitialize_global_state_isolation 1001369a f   libucrt:initialization.obj
 0001:0001269d       _initialize_global_variables 1001369d f   libucrt:initialization.obj
 0001:000126aa       _initialize_c              100136aa f   libucrt:initialization.obj
 0001:000126c4       _uninitialize_environment  100136c4 f   libucrt:initialization.obj
 0001:000126cc       _initialize_pointers       100136cc f   libucrt:initialization.obj
 0001:000126fa       _uninitialize_vcruntime    100136fa f   libucrt:initialization.obj
 0001:00012703       _uninitialize_allocated_memory 10013703 f   libucrt:initialization.obj
 0001:0001271a       _uninitialize_allocated_io_buffers 1001371a f   libucrt:initialization.obj
 0001:0001276a       ??R<lambda_af42a3ee9806e9a7305d451646e05244>@@QBEXAAPAU__crt_multibyte_data@@@Z 1001376a f   libucrt:initialization.obj
 0001:00013050       $$000000                   10014050     libucrt:strncmp.obj
 0001:0001313c       ??$?RV<lambda_15ade71b0218206bbe3333a0c9b79046>@@AAV<lambda_da44e0f8b0f19ba52fefafb335991732>@@V<lambda_207f2d024fc103971653565357d6cd41>@@@?$__crt_seh_guarded_call@X@@QAEX$$QAV<lambda_15ade71b0218206bbe3333a0c9b79046>@@AAV<lambda_da44e0f8b0f19ba52fefafb335991732>@@$$QAV<lambda_207f2d024fc103971653565357d6cd41>@@@Z 1001413c f   libucrt:per_thread_data.obj
 0001:0001318e       ??$?RV<lambda_38edbb1296d33220d7e4dd0ed76b244a>@@AAV<lambda_5ce1d447e08cb34b2473517608e21441>@@V<lambda_fb385d3da700c9147fc39e65dd577a8c>@@@?$__crt_seh_guarded_call@X@@QAEX$$QAV<lambda_38edbb1296d33220d7e4dd0ed76b244a>@@AAV<lambda_5ce1d447e08cb34b2473517608e21441>@@$$QAV<lambda_fb385d3da700c9147fc39e65dd577a8c>@@@Z 1001418e f   libucrt:per_thread_data.obj
 0001:000131f9       ??$?RV<lambda_6affb1475c98b40b75cdec977db92e3c>@@AAV<lambda_b8d4b9c228a6ecc3f80208dbb4b4a104>@@V<lambda_608742c3c92a14382c1684fc64f96c88>@@@?$__crt_seh_guarded_call@X@@QAEX$$QAV<lambda_6affb1475c98b40b75cdec977db92e3c>@@AAV<lambda_b8d4b9c228a6ecc3f80208dbb4b4a104>@@$$QAV<lambda_608742c3c92a14382c1684fc64f96c88>@@@Z 100141f9 f   libucrt:per_thread_data.obj
 0001:0001324e       ??$?RV<lambda_a7e850c220f1c8d1e6efeecdedd162c6>@@AAV<lambda_46720907175c18b6c9d2717bc0d2d362>@@V<lambda_9048902d66e8d99359bc9897bbb930a8>@@@?$__crt_seh_guarded_call@X@@QAEX$$QAV<lambda_a7e850c220f1c8d1e6efeecdedd162c6>@@AAV<lambda_46720907175c18b6c9d2717bc0d2d362>@@$$QAV<lambda_9048902d66e8d99359bc9897bbb930a8>@@@Z 1001424e f   libucrt:per_thread_data.obj
 0001:000132a8       ?construct_ptd@@YAXQAU__acrt_ptd@@QAPAU__crt_locale_data@@@Z 100142a8 f   libucrt:per_thread_data.obj
 0001:00013341       ?destroy_fls@@YGXPAX@Z     10014341 f   libucrt:per_thread_data.obj
 0001:00013362       ?destroy_ptd@@YAXQAU__acrt_ptd@@@Z 10014362 f   libucrt:per_thread_data.obj
 0001:0001342f       ?replace_current_thread_locale_nolock@@YAXQAU__acrt_ptd@@QAU__crt_locale_data@@@Z 1001442f f   libucrt:per_thread_data.obj
 0001:0001383f       ?try_get_AreFileApisANSI@@YAP6GHXZXZ 1001483f f   libucrt:winapi_thunks.obj
 0001:00013859       ?try_get_LCMapStringEx@@YAP6GHPB_WK0HPA_WHPAU_nlsversioninfo@@PAXJ@ZXZ 10014859 f   libucrt:winapi_thunks.obj
 0001:00013873       ?try_get_LocaleNameToLCID@@YAP6GKPB_WK@ZXZ 10014873 f   libucrt:winapi_thunks.obj
 0001:0001388d       ?try_get_first_available_module@@YAPAUHINSTANCE__@@QBW4module_id@?A0x391cf84c@@0@Z 1001488d f   libucrt:winapi_thunks.obj
 0001:00013954       ?try_get_function@@YAPAXW4function_id@?A0x391cf84c@@QBDQBW4module_id@2@2@Z 10014954 f   libucrt:winapi_thunks.obj
 0001:000140b7       ?fp_format_a@@YAHQBNPADIQADIH_NIQAU__crt_locale_pointers@@@Z 100150b7 f   libucrt:cvt.obj
 0001:000143d0       ?fp_format_e@@YAHQBNQADI1IH_NIQAU__crt_locale_pointers@@@Z 100153d0 f   libucrt:cvt.obj
 0001:00014472       ?fp_format_e_internal@@YAHQADIH_NIQAU_strflt@@1QAU__crt_locale_pointers@@@Z 10015472 f   libucrt:cvt.obj
 0001:000145ba       ?fp_format_f@@YAHQBNQADI1IHQAU__crt_locale_pointers@@@Z 100155ba f   libucrt:cvt.obj
 0001:00014645       ?fp_format_f_internal@@YAHQADIHQAU_strflt@@_NQAU__crt_locale_pointers@@@Z 10015645 f   libucrt:cvt.obj
 0001:00014716       ?fp_format_g@@YAHQBNQADI1IH_NIQAU__crt_locale_pointers@@@Z 10015716 f   libucrt:cvt.obj
 0001:000147d7       ?fp_format_nan_or_infinity@@YAHW4__acrt_fp_class@@_NPADI1@Z 100157d7 f   libucrt:cvt.obj
 0001:0001486c       ?shift_bytes@@YAXQADI0H@Z  1001586c f   libucrt:cvt.obj
 0001:00014b53       ??$?RV<lambda_e5124f882df8998aaf41531e079ba474>@@AAV<lambda_3e16ef9562a7dcce91392c22ab16ea36>@@V<lambda_e25ca0880e6ef98be67edffd8c599615>@@@?$__crt_seh_guarded_call@X@@QAEX$$QAV<lambda_e5124f882df8998aaf41531e079ba474>@@AAV<lambda_3e16ef9562a7dcce91392c22ab16ea36>@@$$QAV<lambda_e25ca0880e6ef98be67edffd8c599615>@@@Z 10015b53 f   libucrt:wsetlocale.obj
 0001:00014bf3       ?initialize_inherited_file_handles_nolock@@YAXXZ 10015bf3 f   libucrt:ioinit.obj
 0001:00014ca9       ?initialize_stdio_handles_nolock@@YAXXZ 10015ca9 f   libucrt:ioinit.obj
 0001:00014eba       ?<lambda_invoker_cdecl>@<lambda_838c7f62c73c983481e27c09e84b0b5d>@@CAHPBX0@Z 10015eba f   libucrt:argv_wildcards.obj
 0001:00014ed2       ??$__acrt_convert_wcs_mbs_cp@D_WV<lambda_62f6974d9771e494a5ea317cc32e971c>@@U__crt_win32_buffer_internal_dynamic_resizing@@@@YAHQBDAAV?$__crt_win32_buffer@_WU__crt_win32_buffer_internal_dynamic_resizing@@@@ABV<lambda_62f6974d9771e494a5ea317cc32e971c>@@I@Z 10015ed2 f   libucrt:argv_wildcards.obj
 0001:00014f84       ??$__acrt_convert_wcs_mbs_cp@_WDV<lambda_28bda7af82a03b66c1cb3803a755f95d>@@U__crt_win32_buffer_internal_dynamic_resizing@@@@YAHQB_WAAV?$__crt_win32_buffer@DU__crt_win32_buffer_internal_dynamic_resizing@@@@ABV<lambda_28bda7af82a03b66c1cb3803a755f95d>@@I@Z 10015f84 f   libucrt:argv_wildcards.obj
 0001:00015070       ??$common_expand_argv_wildcards@D@@YAHQAPADQAPAPAD@Z 10016070 f   libucrt:argv_wildcards.obj
 0001:0001525f       ??$copy_and_add_argument_to_buffer@D@@YAHQBD0IAAV?$argument_list@D@?A0x5f5c8891@@@Z 1001625f f   libucrt:argv_wildcards.obj
 0001:00015310       ??$expand_argument_wildcards@D@@YAHQAD0AAV?$argument_list@D@?A0x5f5c8891@@@Z 10016310 f   libucrt:argv_wildcards.obj
 0001:0001565a       ?expand_if_necessary@?$argument_list@D@?A0x5f5c8891@@AAEHXZ 1001665a f   libucrt:argv_wildcards.obj
 0001:000156ec       ??$__acrt_convert_wcs_mbs_cp@_WDV<lambda_0fec1a7b3f42a53036604e18c2d5e07e>@@U__crt_win32_buffer_no_resizing@@@@YAHQB_WAAV?$__crt_win32_buffer@DU__crt_win32_buffer_no_resizing@@@@ABV<lambda_0fec1a7b3f42a53036604e18c2d5e07e>@@I@Z 100166ec f   libucrt:getmodulefilenamea.obj
 0001:0001588f       ??$?RV<lambda_ceb1ee4838e85a9d631eb091e2fbe199>@@AAV<lambda_ae742caa10f662c28703da3d2ea5e57e>@@V<lambda_cd08b5d6af4937fe54fc07d0c9bf6b37>@@@?$__crt_seh_guarded_call@X@@QAEX$$QAV<lambda_ceb1ee4838e85a9d631eb091e2fbe199>@@AAV<lambda_ae742caa10f662c28703da3d2ea5e57e>@@$$QAV<lambda_cd08b5d6af4937fe54fc07d0c9bf6b37>@@@Z 1001688f f   libucrt:mbctype.obj
 0001:000158dc       ??R<lambda_ae742caa10f662c28703da3d2ea5e57e>@@QBEXXZ 100168dc f   libucrt:mbctype.obj
 0001:0001595f       ?CPtoLocaleName@@YAPB_WH@Z 1001695f f   libucrt:mbctype.obj
 0001:0001599d       ?getSystemCP@@YAHH@Z       1001699d f   libucrt:mbctype.obj
 0001:00015a0e       ?setSBCS@@YAXPAU__crt_multibyte_data@@@Z 10016a0e f   libucrt:mbctype.obj
 0001:00015a73       ?setSBUpLow@@YAXPAU__crt_multibyte_data@@@Z 10016a73 f   libucrt:mbctype.obj
 0001:00015bf4       ?setmbcp_internal@@YAHH_NQAU__acrt_ptd@@QAPAU__crt_multibyte_data@@@Z 10016bf4 f   libucrt:mbctype.obj
 0001:00015d0d       ?update_thread_multibyte_data_internal@@YAPAU__crt_multibyte_data@@QAU__acrt_ptd@@QAPAU1@@Z 10016d0d f   libucrt:mbctype.obj
 0001:00015ffb       _memcpy_s                  10016ffb f   libucrt:cfout.obj
 0001:00015ffb       _memcpy_s                  10016ffb f   libucrt:mbctype.obj
 0001:0001607c       ?x_ismbbtype_l@@YAHPAU__crt_locale_pointers@@IHH@Z 1001707c f   libucrt:ismbbyte.obj
 0001:0001622d       ?find_end_of_double_null_terminated_sequence@@YAPB_WQB_W@Z 1001722d f   libucrt:get_environment_from_os.obj
 0001:0001639c       ??$?RV<lambda_cbab9ec6f41b0180b23cc171c22676b0>@@AAV<lambda_44731a7d0e6d81c3e6aa82d741081786>@@V<lambda_4b292cb8dd18144e164572427af410ab>@@@?$__crt_seh_guarded_call@P6AXH@Z@@QAEP6AXH@Z$$QAV<lambda_cbab9ec6f41b0180b23cc171c22676b0>@@AAV<lambda_44731a7d0e6d81c3e6aa82d741081786>@@$$QAV<lambda_4b292cb8dd18144e164572427af410ab>@@@Z 1001739c f   libucrt:signal.obj
 0001:00016400       ?get_global_action_nolock@@YAPAP6AXH@ZH@Z 10017400 f   libucrt:signal.obj
 0001:00016442       ?siglookup@@YAPAU__crt_signal_action_t@@HQAU1@@Z 10017442 f   libucrt:signal.obj
 0001:0001670c       ??$?RV<lambda_2866be3712abc81a800a822484c830d8>@@AAV<lambda_39ca0ed439415581b5b15c265174cece>@@V<lambda_2b24c74d71094a6cd0cb82e44167d71b>@@@?$__crt_seh_guarded_call@X@@QAEX$$QAV<lambda_2866be3712abc81a800a822484c830d8>@@AAV<lambda_39ca0ed439415581b5b15c265174cece>@@$$QAV<lambda_2b24c74d71094a6cd0cb82e44167d71b>@@@Z 1001770c f   libucrt:fflush.obj
 0001:00016798       ??$?RV<lambda_2cc53f568c5a2bb6f192f930a45d44ea>@@AAV<lambda_ab61a845afdef5b7c387490eaf3616ee>@@V<lambda_c2ffc0b7726aa6be21d5f0026187e748>@@@?$__crt_seh_guarded_call@X@@QAEX$$QAV<lambda_2cc53f568c5a2bb6f192f930a45d44ea>@@AAV<lambda_ab61a845afdef5b7c387490eaf3616ee>@@$$QAV<lambda_c2ffc0b7726aa6be21d5f0026187e748>@@@Z 10017798 f   libucrt:fflush.obj
 0001:00016844       ?common_flush_all@@YAH_N@Z 10017844 f   libucrt:fflush.obj
 0001:00016891       ?common_flush_all_should_try_to_flush_stream@@YA_NV__crt_stdio_stream@@QAH@Z 10017891 f   libucrt:fflush.obj
 0001:000168c4       ?is_stream_flushable_or_commitable@@YA_NJ@Z 100178c4 f   libucrt:fflush.obj
 0001:00016dcd       ?GetTableIndexFromLocaleName@@YAHPB_W@Z 10017dcd f   libucrt:lcidtoname_downlevel.obj
 0001:00016e83       ??R<lambda_3d301b9e52f5099be73030e1f0bf487e>@@QBEIPBD@Z 10017e83 f   libucrt:mbrtowc.obj
 0001:00018b5a       ?free_crt_array_internal@@YAXQAPBXI@Z 10019b5a f   libucrt:inittime.obj
 0001:00019030       ?swap@@YAXPAD0I@Z          1001a030 f   libucrt:qsort.obj
 0001:000194b4       ??$common_tcsncpy_s@D@@YAHQADIQBDI@Z 1001a4b4 f   libucrt:strncpy_s.obj
 0001:00019580       $$000000                   1001a580     libucrt:strpbrk.obj
 0001:00019664       ?__acrt_LCMapStringA_stat@@YAHPAU__crt_locale_pointers@@PB_WKPBDHPADHHH@Z 1001a664 f   libucrt:lcmapstringa.obj
 0001:00019897       ?initialize_multibyte@@YAHXZ 1001a897 f   libucrt:multibyte_initializer.obj
 0001:000198a6       ??$?RV<lambda_9e9de3de5fa147e2223d7db92bc10aa6>@@AAV<lambda_38ce7e780aa69e748d6df282ebc68efe>@@V<lambda_8ca6da459f0f6780f1cff60fdc3d00e5>@@@?$__crt_seh_guarded_call@H@@QAEH$$QAV<lambda_9e9de3de5fa147e2223d7db92bc10aa6>@@AAV<lambda_38ce7e780aa69e748d6df282ebc68efe>@@$$QAV<lambda_8ca6da459f0f6780f1cff60fdc3d00e5>@@@Z 1001a8a6 f   libucrt:commit.obj
 0001:000199c5       ?write_double_translated_ansi_nolock@@YA?AUwrite_result@?A0x17268360@@HQBDI@Z 1001a9c5 f   libucrt:write.obj
 0001:00019d6f       ?write_double_translated_unicode_nolock@@YA?AUwrite_result@?A0x17268360@@QBDI@Z 1001ad6f f   libucrt:write.obj
 0001:00019dd7       ?write_requires_double_translation_nolock@@YA_NH@Z 1001add7 f   libucrt:write.obj
 0001:00019e48       ?write_text_ansi_nolock@@YA?AUwrite_result@?A0x17268360@@HQBDI@Z 1001ae48 f   libucrt:write.obj
 0001:00019f23       ?write_text_utf16le_nolock@@YA?AUwrite_result@?A0x17268360@@HQBDI@Z 1001af23 f   libucrt:write.obj
 0001:0001a00c       ?write_text_utf8_nolock@@YA?AUwrite_result@?A0x17268360@@HQBDI@Z 1001b00c f   libucrt:write.obj
 0001:0001a6e0       $$000000                   1001b6e0     libucrt:log10_impl.obj
 0001:0001a7f0       $$000000                   1001b7f0     libucrt:ceil_pentium4.obj
 0001:0001a90d       ??$common_lseek_nolock@_J@@YA_JH_JH@Z 1001b90d f   libucrt:lseek.obj
 0001:0001aaf3       ?to_abstract_control@@YA?AW4__acrt_fenv_abstract_control@@W4__acrt_fenv_machine_sse_control@@@Z 1001baf3 f   libucrt:_fenvutils.obj
 0001:0001abaf       ?to_abstract_control@@YA?AW4__acrt_fenv_abstract_control@@W4__acrt_fenv_machine_x87_control@@@Z 1001bbaf f   libucrt:_fenvutils.obj
 0001:0001ac68       ?to_machine_sse_control@@YA?AW4__acrt_fenv_machine_sse_control@@W4__acrt_fenv_abstract_control@@@Z 1001bc68 f   libucrt:_fenvutils.obj
 0001:0001ad35       ?to_machine_x87_control@@YA?AW4__acrt_fenv_machine_x87_control@@W4__acrt_fenv_abstract_control@@@Z 1001bd35 f   libucrt:_fenvutils.obj
 0001:0001b190       $$000000                   1001c190     libucrt:log10_pentium4.obj
 0001:0001b420       $$000000                   1001c420     libucrt:87tran.obj
 0001:0001b630       $$000000                   1001c630     libucrt:87disp.obj
 0001:0001b890       $$000000                   1001c890     libucrt:common.obj
 0001:0001ba20       $$000000                   1001ca20     libucrt:genexcep.obj
 0001:0001bd1c       ??$?RV<lambda_218ce3db14220d0be481dae8ef3383b6>@@AAV<lambda_628dfdc04ba53c8bfc02c9951375f3f5>@@V<lambda_57dc472bd5c9d5f3b2cbca59b8a843ae>@@@?$__crt_seh_guarded_call@H@@QAEH$$QAV<lambda_218ce3db14220d0be481dae8ef3383b6>@@AAV<lambda_628dfdc04ba53c8bfc02c9951375f3f5>@@$$QAV<lambda_57dc472bd5c9d5f3b2cbca59b8a843ae>@@@Z 1001cd1c f   libucrt:close.obj
 0001:0001bf10       $$000000                   1001cf10     libucrt:_strnicm.obj
 0001:0001bf71       ?__dcrt_lowio_initialize_console_output@@YAXXZ 1001cf71 f   libucrt:initcon.obj
 0001:0001cdd0       $$000000                   1001ddd0     LIBCMT:ulldvrm.obj
 0001:0001ce70       $$000000                   1001de70     LIBCMT:llmul.obj
 0001:0001ceb0       $$000000                   1001deb0     LIBCMT:lldvrm.obj
 0001:0001cf90       $$000000                   1001df90     LIBCMT:ullshr.obj
 0001:0001cfb0       $$000000                   1001dfb0     LIBCMT:llshl.obj
 0001:0001cfd0       $$000000                   1001dfd0     LIBCMT:ftol2.obj
 0001:0001d270       $$000000                   1001e270     libvcruntime:strrchr.obj
 0001:0001d3b0       $$000000                   1001e3b0     libvcruntime:strchr.obj
 0001:0001d553       __ehhandler$??2@YAPAXIABUnothrow_t@std@@@Z 1001e553 f   LIBCMT:new_scalar_nothrow.obj
 0001:0001d56e       __ehhandler$?CallUnexpected@@YAXPBU_s_ESTypeList@@@Z 1001e56e f   libvcruntime:frame.obj
 0001:0001d589       ??__F_AtlComModule@ATL@@YAXXZ 1001e589 f   OposVariant.obj
 0001:0001d593       ??__F_AtlWinModule@ATL@@YAXXZ 1001e593 f   OposVariant.obj
 0001:0001d5ad       ??__F_Module@@YAXXZ        1001e5ad f   CashDrawer.obj
 0001:0001d5c1       ??__F_AtlBaseModule@ATL@@YAXXZ 1001e5c1 f   atls:atlbase.obj
 0002:00000304       ?_AtlBaseModule$initializer$@ATL@@3P6AXXZA 1001f304     atls:atlbase.obj
 0002:00000308       ?_AtlComModule$initializer$@ATL@@3P6AXXZA 1001f308     OposVariant.obj
 0002:0000030c       ?_AtlWinModule$initializer$@ATL@@3P6AXXZA 1001f30c     OposVariant.obj
 0002:00000310       ?_Module$initializer$@@3P6AXXZA 1001f310     CashDrawer.obj
 0002:00000314       ??pConnMap$initializer$@?$IConnectionPointContainerImpl@VCOPOSCashDrawer@@@ATL@@0P6AXXZA@@3P6AXXZA 1001f314     CashDrawer.obj
 0002:00000320       ?__scrt_initialize_tss_var@@3P6AHXZA 1001f320     LIBCMT:thread_safe_statics.obj
 0002:00001778       _GS_ExceptionPointers      10020778     LIBCMT:gs_report.obj
 0002:00001908       ?tokenTable@@3QBUStringLiteral@@B 10020908     libvcruntime:undname.obj
 0002:00001988       ?nameTable@@3QBUStringLiteral@@B 10020988     libvcruntime:undname.obj
 0002:00001c20       ?rttiTable@@3QBUStringLiteral@@B 10020c20     libvcruntime:undname.obj
 0002:00001c48       ?IndirectionName@@3QBUStringLiteral@@B 10020c48     libvcruntime:undname.obj
 0002:00001c78       ?PrefixName@@3QBUStringLiteral@@B 10020c78     libvcruntime:undname.obj
 0002:000022a8       ?module_names@?A0x1172487b@@3QBQB_WB 100212a8     libvcruntime:winapi_downlevel.obj
 0002:00002350       ?candidate_modules@?1??try_get_FlsAlloc@@YAP6GKP6GXPAX@Z@ZXZ@4QBW4module_id@?A0x1172487b@@B 10021350     libvcruntime:winapi_downlevel.obj
 0002:00002364       ?candidate_modules@?1??try_get_FlsFree@@YAP6GHK@ZXZ@4QBW4module_id@?A0x1172487b@@B 10021364     libvcruntime:winapi_downlevel.obj
 0002:00002374       ?candidate_modules@?1??try_get_FlsGetValue@@YAP6GPAXK@ZXZ@4QBW4module_id@?A0x1172487b@@B 10021374     libvcruntime:winapi_downlevel.obj
 0002:00002388       ?candidate_modules@?1??try_get_FlsSetValue@@YAP6GHKPAX@ZXZ@4QBW4module_id@?A0x1172487b@@B 10021388     libvcruntime:winapi_downlevel.obj
 0002:0000239c       ?candidate_modules@?1??try_get_InitializeCriticalSectionEx@@YAP6GHPAU_RTL_CRITICAL_SECTION@@KK@ZXZ@4QBW4module_id@?A0x1172487b@@B 1002139c     libvcruntime:winapi_downlevel.obj
 0002:000023c0       ?errtable@@3QBUerrentry@?A0x31fdb9ec@@B 100213c0     libucrt:errno.obj
 0002:00002668       ___acrt_initializers       10021668     libucrt:initialization.obj
 0002:000026e8       ?module_names@?A0x391cf84c@@3QBQB_WB 100216e8     libucrt:winapi_thunks.obj
 0002:00002b60       ?candidate_modules@?1??try_get_AreFileApisANSI@@YAP6GHXZXZ@4QBW4module_id@?A0x391cf84c@@B 10021b60     libucrt:winapi_thunks.obj
 0002:00002b74       ?candidate_modules@?1??try_get_FlsAlloc@@YAP6GKP6GXPAX@Z@ZXZ@4QBW4module_id@?A0x391cf84c@@B 10021b74     libucrt:winapi_thunks.obj
 0002:00002b7c       ?candidate_modules@?1??try_get_FlsFree@@YAP6GHK@ZXZ@4QBW4module_id@?A0x391cf84c@@B 10021b7c     libucrt:winapi_thunks.obj
 0002:00002b84       ?candidate_modules@?1??try_get_FlsGetValue@@YAP6GPAXK@ZXZ@4QBW4module_id@?A0x391cf84c@@B 10021b84     libucrt:winapi_thunks.obj
 0002:00002b8c       ?candidate_modules@?1??try_get_FlsSetValue@@YAP6GHKPAX@ZXZ@4QBW4module_id@?A0x391cf84c@@B 10021b8c     libucrt:winapi_thunks.obj
 0002:00002b94       ?candidate_modules@?1??try_get_InitializeCriticalSectionEx@@YAP6GHPAU_RTL_CRITICAL_SECTION@@KK@ZXZ@4QBW4module_id@?A0x391cf84c@@B 10021b94     libucrt:winapi_thunks.obj
 0002:00002b9c       ?candidate_modules@?1??try_get_LCMapStringEx@@YAP6GHPB_WK0HPA_WHPAU_nlsversioninfo@@PAXJ@ZXZ@4QBW4module_id@?A0x391cf84c@@B 10021b9c     libucrt:winapi_thunks.obj
 0002:00002bb4       ?candidate_modules@?1??try_get_LocaleNameToLCID@@YAP6GKPB_WK@ZXZ@4QBW4module_id@?A0x391cf84c@@B 10021bb4     libucrt:winapi_thunks.obj
 0002:00002bd0       ?candidate_modules@?1??try_get_AppPolicyGetProcessTerminationMethod@@YAP6GJPAXPAW4AppPolicyProcessTerminationMethod@@@ZXZ@4QBW4module_id@?A0x391cf84c@@B 10021bd0     libucrt:winapi_thunks.obj
 0002:00002bfc       ?candidate_modules@?1??try_get_SetThreadStackGuarantee@@YAP6GHPAK@ZXZ@4QBW4module_id@?A0x391cf84c@@B 10021bfc     libucrt:winapi_thunks.obj
 0002:00002c20       ?strings@?1??fp_format_nan_or_infinity@@YAHW4__acrt_fp_class@@_NPADI1@Z@4QAY03QBDA 10021c20     libucrt:cvt.obj
 0002:00003168       ?_mb_locale_names@@3QBQB_WB 10022168     libucrt:mbctype.obj
 0002:000039b0       ?LcidToLocaleNameTable@?A0x881e4c05@@3QBULcidToLocaleName@1@B 100229b0     libucrt:lcidtoname_downlevel.obj
 0002:00004ad8       ?LocaleNameToIndexTable@?A0x881e4c05@@3QBULocaleNameIndex@1@B 10023ad8     libucrt:lcidtoname_downlevel.obj
 0002:00006330       ?large_power_indices@?1??multiply_by_power_of_ten@__crt_strtox@@YA_NAAUbig_integer@2@I@Z@4QBUunpack_index@?1??12@YA_N0I@Z@B 10025330     libucrt:cfout.obj
 0002:00006410       LOG_name                   10025410     libucrt:log10_impl.obj
 0002:00006420       _One                       10025420     libucrt:ceil_pentium4.obj
 0002:00006430       _Bns                       10025430     libucrt:ceil_pentium4.obj
 0002:00006440       _Zero                      10025440     libucrt:ceil_pentium4.obj
 0002:00006450       _S                         10025450     libucrt:ceil_pentium4.obj
 0002:00006460       _NegZero                   10025460     libucrt:ceil_pentium4.obj
 0002:00006470       emask                      10025470     libucrt:log10_pentium4.obj
 0002:00006480       CC                         10025480     libucrt:log10_pentium4.obj
 0002:00006490       Magic                      10025490     libucrt:log10_pentium4.obj
 0002:000064a0       hi_mask                    100254a0     libucrt:log10_pentium4.obj
 0002:000064b0       LOG10_2                    100254b0     libucrt:log10_pentium4.obj
 0002:000064c0       place_L                    100254c0     libucrt:log10_pentium4.obj
 0002:000064e0       One                        100254e0     libucrt:log10_pentium4.obj
 0002:000064f0       Zero                       100254f0     libucrt:log10_pentium4.obj
 0002:00006500       Two52                      10025500     libucrt:log10_pentium4.obj
 0002:00006510       Infs                       10025510     libucrt:log10_pentium4.obj
 0002:00006520       NaN                        10025520     libucrt:log10_pentium4.obj
 0002:00006530       coeff                      10025530     libucrt:log10_pentium4.obj
 0002:0000658e       _log2max                   1002558e     libucrt:87tran.obj
 0002:00006598       _smallarg                  10025598     libucrt:87tran.obj
 0002:000065a2       _half                      100255a2     libucrt:87tran.obj
 0002:000065ee       One                        100255ee     libucrt:87disp.obj
 0002:000065f6       Three                      100255f6     libucrt:87disp.obj
 0002:000065fe       XAMtoTagTab                100255fe     libucrt:87disp.obj
 0002:00006610       One                        10025610     libucrt:common.obj
 0002:00006624       DblMax                     10025624     libucrt:common.obj
 0002:0000662c       DblMin                     1002562c     libucrt:common.obj
 0002:00006634       IeeeAdjO                   10025634     libucrt:common.obj
 0002:0000663c       IeeeAdjU                   1002563c     libucrt:common.obj
 0002:00006644       _infinity                  10025644     libucrt:common.obj
 0002:0000664c       _zero                      1002564c     libucrt:common.obj
 0002:00006698       _over                      10025698     libucrt:fpctrl.obj
 0002:000066a4       _under                     100256a4     libucrt:fpctrl.obj
 0002:00006ed8       ?_names@?1??_get_fname@@9@9 10025ed8     libucrt:fpexcept.obj
 0002:00007080       two32                      10026080     LIBCMT:ftol2.obj
 0002:00007084       two63                      10026084     LIBCMT:ftol2.obj
 0002:00007088       _NaN                       10026088     LIBCMT:ftol2.obj
 0002:00007738       __sehtable$?_AtlVerifyStackAvailable@_ATL_SAFE_ALLOCA_IMPL@ATL@@YA_NK@Z 10026738     CashDrawer.obj
 0002:00007758       __sehtable$___scrt_is_nonwritable_in_current_image 10026758     LIBCMT:utility.obj
 0002:00007774       __catchsym$??2@YAPAXIABUnothrow_t@std@@@Z$2 10026774     LIBCMT:new_scalar_nothrow.obj
 0002:00007784       __unwindtable$??2@YAPAXIABUnothrow_t@std@@@Z 10026784     LIBCMT:new_scalar_nothrow.obj
 0002:00007794       __tryblocktable$??2@YAPAXIABUnothrow_t@std@@@Z 10026794     LIBCMT:new_scalar_nothrow.obj
 0002:000077a8       __ehfuncinfo$??2@YAPAXIABUnothrow_t@std@@@Z 100267a8     LIBCMT:new_scalar_nothrow.obj
 0002:000077d0       __sehtable$?dllmain_crt_process_attach@@YAHQAUHINSTANCE__@@QAX@Z 100267d0     LIBCMT:dll_dllmain.obj
 0002:000077f0       __sehtable$?dllmain_crt_process_detach@@YAH_N@Z 100267f0     LIBCMT:dll_dllmain.obj
 0002:00007818       __sehtable$?dllmain_dispatch@@YAHQAUHINSTANCE__@@KQAX@Z 10026818     LIBCMT:dll_dllmain.obj
 0002:000078c8       __sehtable$___DestructExceptionObject 100268c8     libvcruntime:ehhelpers.obj
 0002:000078e8       __sehtable$?FrameUnwindToState@__FrameHandler3@@SAXPAUEHRegistrationNode@@PAXPBU_s_FuncInfo@@H@Z 100268e8     libvcruntime:frame.obj
 0002:00007910       __sehtable$?CallCatchBlock@@YAPAXPAUEHExceptionRecord@@PAUEHRegistrationNode@@PAU_CONTEXT@@PBU_s_FuncInfo@@PAXHK@Z 10026910     libvcruntime:frame.obj
 0002:00007938       __catchsym$?CallUnexpected@@YAXPBU_s_ESTypeList@@@Z$2 10026938     libvcruntime:frame.obj
 0002:00007948       __unwindtable$?CallUnexpected@@YAXPBU_s_ESTypeList@@@Z 10026948     libvcruntime:frame.obj
 0002:00007958       __tryblocktable$?CallUnexpected@@YAXPBU_s_ESTypeList@@@Z 10026958     libvcruntime:frame.obj
 0002:0000796c       __ehfuncinfo$?CallUnexpected@@YAXPBU_s_ESTypeList@@@Z 1002696c     libvcruntime:frame.obj
 0002:00007990       __sehtable$??$BuildCatchObjectHelperInternal@V__FrameHandler3@@@@YAHPAUEHExceptionRecord@@PAXPBU_s_HandlerType@@PBU_s_CatchableType@@@Z 10026990     libvcruntime:frame.obj
 0002:000079b0       __sehtable$??$BuildCatchObjectInternal@V__FrameHandler3@@@@YAXPAUEHExceptionRecord@@PAXPBU_s_HandlerType@@PBU_s_CatchableType@@@Z 100269b0     libvcruntime:frame.obj
 0002:00007a08       __sehtable$??R<lambda_6e4b09c48022b2350581041d5f6b0c4c>@@QBE@XZ 10026a08     libucrt:exit.obj
 0002:00007a28       __sehtable$??$?RV<lambda_03b1d95aef87969028cfba75ccab2455>@@AAV<lambda_6e4b09c48022b2350581041d5f6b0c4c>@@V<lambda_22bdf7517842c4b3e53723af5aa32b9e>@@@?$__crt_seh_guarded_call@X@@QAEX$$QAV<lambda_03b1d95aef87969028cfba75ccab2455>@@AAV<lambda_6e4b09c48022b2350581041d5f6b0c4c>@@$$QAV<lambda_22bdf7517842c4b3e53723af5aa32b9e>@@@Z 10026a28     libucrt:exit.obj
 0002:00007a48       __sehtable$??$?RV<lambda_8e746cf0007f6ed984d6f78af1fec997>@@AAV<lambda_22ebabd17bc4fa466a2aca6d8deb888d>@@V<lambda_18ed0c0b38a6dc0daf1e7ac6d6adf05e>@@@?$__crt_seh_guarded_call@H@@QAEH$$QAV<lambda_8e746cf0007f6ed984d6f78af1fec997>@@AAV<lambda_22ebabd17bc4fa466a2aca6d8deb888d>@@$$QAV<lambda_18ed0c0b38a6dc0daf1e7ac6d6adf05e>@@@Z 10026a48     libucrt:onexit.obj
 0002:00007a68       __sehtable$??$?RV<lambda_69a2805e680e0e292e8ba93315fe43a8>@@AAV<lambda_f03950bc5685219e0bcd2087efbe011e>@@V<lambda_03fcd07e894ec930e3f35da366ca99d6>@@@?$__crt_seh_guarded_call@H@@QAEH$$QAV<lambda_69a2805e680e0e292e8ba93315fe43a8>@@AAV<lambda_f03950bc5685219e0bcd2087efbe011e>@@$$QAV<lambda_03fcd07e894ec930e3f35da366ca99d6>@@@Z 10026a68     libucrt:onexit.obj
 0002:00007a88       __sehtable$__query_new_handler 10026a88     libucrt:new_handler.obj
 0002:00007aa8       __sehtable$_terminate      10026aa8     libucrt:terminate.obj
 0002:00007ac8       __sehtable$??$?RV<lambda_15ade71b0218206bbe3333a0c9b79046>@@AAV<lambda_da44e0f8b0f19ba52fefafb335991732>@@V<lambda_207f2d024fc103971653565357d6cd41>@@@?$__crt_seh_guarded_call@X@@QAEX$$QAV<lambda_15ade71b0218206bbe3333a0c9b79046>@@AAV<lambda_da44e0f8b0f19ba52fefafb335991732>@@$$QAV<lambda_207f2d024fc103971653565357d6cd41>@@@Z 10026ac8     libucrt:per_thread_data.obj
 0002:00007ae8       __sehtable$??$?RV<lambda_a7e850c220f1c8d1e6efeecdedd162c6>@@AAV<lambda_46720907175c18b6c9d2717bc0d2d362>@@V<lambda_9048902d66e8d99359bc9897bbb930a8>@@@?$__crt_seh_guarded_call@X@@QAEX$$QAV<lambda_a7e850c220f1c8d1e6efeecdedd162c6>@@AAV<lambda_46720907175c18b6c9d2717bc0d2d362>@@$$QAV<lambda_9048902d66e8d99359bc9897bbb930a8>@@@Z 10026ae8     libucrt:per_thread_data.obj
 0002:00007b08       __sehtable$??$?RV<lambda_38edbb1296d33220d7e4dd0ed76b244a>@@AAV<lambda_5ce1d447e08cb34b2473517608e21441>@@V<lambda_fb385d3da700c9147fc39e65dd577a8c>@@@?$__crt_seh_guarded_call@X@@QAEX$$QAV<lambda_38edbb1296d33220d7e4dd0ed76b244a>@@AAV<lambda_5ce1d447e08cb34b2473517608e21441>@@$$QAV<lambda_fb385d3da700c9147fc39e65dd577a8c>@@@Z 10026b08     libucrt:per_thread_data.obj
 0002:00007b28       __sehtable$??$?RV<lambda_6affb1475c98b40b75cdec977db92e3c>@@AAV<lambda_b8d4b9c228a6ecc3f80208dbb4b4a104>@@V<lambda_608742c3c92a14382c1684fc64f96c88>@@@?$__crt_seh_guarded_call@X@@QAEX$$QAV<lambda_6affb1475c98b40b75cdec977db92e3c>@@AAV<lambda_b8d4b9c228a6ecc3f80208dbb4b4a104>@@$$QAV<lambda_608742c3c92a14382c1684fc64f96c88>@@@Z 10026b28     libucrt:per_thread_data.obj
 0002:00007b48       __sehtable$??$?RV<lambda_e5124f882df8998aaf41531e079ba474>@@AAV<lambda_3e16ef9562a7dcce91392c22ab16ea36>@@V<lambda_e25ca0880e6ef98be67edffd8c599615>@@@?$__crt_seh_guarded_call@X@@QAEX$$QAV<lambda_e5124f882df8998aaf41531e079ba474>@@AAV<lambda_3e16ef9562a7dcce91392c22ab16ea36>@@$$QAV<lambda_e25ca0880e6ef98be67edffd8c599615>@@@Z 10026b48     libucrt:wsetlocale.obj
 0002:00007b68       __sehtable$___acrt_initialize_lowio 10026b68     libucrt:ioinit.obj
 0002:00007b88       __sehtable$?update_thread_multibyte_data_internal@@YAPAU__crt_multibyte_data@@QAU__acrt_ptd@@QAPAU1@@Z 10026b88     libucrt:mbctype.obj
 0002:00007ba8       __sehtable$??$?RV<lambda_ceb1ee4838e85a9d631eb091e2fbe199>@@AAV<lambda_ae742caa10f662c28703da3d2ea5e57e>@@V<lambda_cd08b5d6af4937fe54fc07d0c9bf6b37>@@@?$__crt_seh_guarded_call@X@@QAEX$$QAV<lambda_ceb1ee4838e85a9d631eb091e2fbe199>@@AAV<lambda_ae742caa10f662c28703da3d2ea5e57e>@@$$QAV<lambda_cd08b5d6af4937fe54fc07d0c9bf6b37>@@@Z 10026ba8     libucrt:mbctype.obj
 0002:00007bc8       __sehtable$_raise          10026bc8     libucrt:signal.obj
 0002:00007be8       __sehtable$??$?RV<lambda_cbab9ec6f41b0180b23cc171c22676b0>@@AAV<lambda_44731a7d0e6d81c3e6aa82d741081786>@@V<lambda_4b292cb8dd18144e164572427af410ab>@@@?$__crt_seh_guarded_call@P6AXH@Z@@QAEP6AXH@Z$$QAV<lambda_cbab9ec6f41b0180b23cc171c22676b0>@@AAV<lambda_44731a7d0e6d81c3e6aa82d741081786>@@$$QAV<lambda_4b292cb8dd18144e164572427af410ab>@@@Z 10026be8     libucrt:signal.obj
 0002:00007c08       __sehtable$??$?RV<lambda_2866be3712abc81a800a822484c830d8>@@AAV<lambda_39ca0ed439415581b5b15c265174cece>@@V<lambda_2b24c74d71094a6cd0cb82e44167d71b>@@@?$__crt_seh_guarded_call@X@@QAEX$$QAV<lambda_2866be3712abc81a800a822484c830d8>@@AAV<lambda_39ca0ed439415581b5b15c265174cece>@@$$QAV<lambda_2b24c74d71094a6cd0cb82e44167d71b>@@@Z 10026c08     libucrt:fflush.obj
 0002:00007c28       __sehtable$??$?RV<lambda_2cc53f568c5a2bb6f192f930a45d44ea>@@AAV<lambda_ab61a845afdef5b7c387490eaf3616ee>@@V<lambda_c2ffc0b7726aa6be21d5f0026187e748>@@@?$__crt_seh_guarded_call@X@@QAEX$$QAV<lambda_2cc53f568c5a2bb6f192f930a45d44ea>@@AAV<lambda_ab61a845afdef5b7c387490eaf3616ee>@@$$QAV<lambda_c2ffc0b7726aa6be21d5f0026187e748>@@@Z 10026c28     libucrt:fflush.obj
 0002:00007c48       __sehtable$___acrt_update_thread_locale_data 10026c48     libucrt:locale_refcounting.obj
 0002:00007c68       __sehtable$__fcloseall     10026c68     libucrt:closeall.obj
 0002:00007c88       __sehtable$___acrt_lowio_ensure_fh_exists 10026c88     libucrt:osfinfo.obj
 0002:00007ca8       __sehtable$??$?RV<lambda_9e9de3de5fa147e2223d7db92bc10aa6>@@AAV<lambda_38ce7e780aa69e748d6df282ebc68efe>@@V<lambda_8ca6da459f0f6780f1cff60fdc3d00e5>@@@?$__crt_seh_guarded_call@H@@QAEH$$QAV<lambda_9e9de3de5fa147e2223d7db92bc10aa6>@@AAV<lambda_38ce7e780aa69e748d6df282ebc68efe>@@$$QAV<lambda_8ca6da459f0f6780f1cff60fdc3d00e5>@@@Z 10026ca8     libucrt:commit.obj
 0002:00007cc8       __sehtable$__write         10026cc8     libucrt:write.obj
 0002:00007ce8       __sehtable$_fclose         10026ce8     libucrt:fclose.obj
 0002:00007d08       __sehtable$??$?RV<lambda_218ce3db14220d0be481dae8ef3383b6>@@AAV<lambda_628dfdc04ba53c8bfc02c9951375f3f5>@@V<lambda_57dc472bd5c9d5f3b2cbca59b8a843ae>@@@?$__crt_seh_guarded_call@H@@QAEH$$QAV<lambda_218ce3db14220d0be481dae8ef3383b6>@@AAV<lambda_628dfdc04ba53c8bfc02c9951375f3f5>@@$$QAV<lambda_57dc472bd5c9d5f3b2cbca59b8a843ae>@@@Z 10026d08     libucrt:close.obj
 0002:00007d28       __sehtable$__IsNonwritableInCurrentImage 10026d28     LIBCMT:pesect.obj
 0002:00007d50       .edata                     10026d50     OPOSCashDrawer.exp
 0002:00007d78       rgpv                       10026d78     OPOSCashDrawer.exp
 0002:00007d88       rgszName                   10026d88     OPOSCashDrawer.exp
 0002:00007d98       rgwOrd                     10026d98     OPOSCashDrawer.exp
 0002:00007da0       szName                     10026da0     OPOSCashDrawer.exp
 0002:00007db3       $N00001                    10026db3     OPOSCashDrawer.exp
 0002:00007dc3       $N00002                    10026dc3     OPOSCashDrawer.exp
 0002:00007dd5       $N00003                    10026dd5     OPOSCashDrawer.exp
 0002:00007de7       $N00004                    10026de7     OPOSCashDrawer.exp
 0002:000083f6       .idata$6                   100273f6     kernel32:KERNEL32.dll
 0002:0000860a       .idata$6                   1002760a     user32:USER32.dll
 0002:0000873e       .idata$6                   1002773e     gdi32:GDI32.dll
 0002:000087e4       .idata$6                   100277e4     advapi32:ADVAPI32.dll
 0002:00008900       .idata$6                   10027900     ole32:ole32.dll
 0002:0000890a       .idata$6                   1002790a     oleaut32:OLEAUT32.dll
 0003:00000110       ?ObjectMap@@3PAU_ATL_OBJMAP_ENTRY30@ATL@@A 10028110     CashDrawer.obj
 0003:000001d0       ?s_SOMethodNames@@3PAPADA  100281d0     CashDrawerImpl.obj
 0003:0000021c       ?s_RequiredMethodsPerRelease@@3PAHA 1002821c     CashDrawerImpl.obj
 0003:00000260       ?__vcrt_flsindex@@3KA      10028260     libvcruntime:per_thread_data.obj
 0003:00000280       ?errno_no_memory@@3HA      10028280     libucrt:errno.obj
 0003:00000284       ?doserrno_no_memory@@3KA   10028284     libucrt:errno.obj
 0003:00000290       ?__acrt_flsindex@@3KA      10028290     libucrt:per_thread_data.obj
 0003:00000628       __mbctypes                 10028628     libucrt:mbctype.obj
 0003:00000730       __mbcasemaps               10028730     libucrt:mbctype.obj
 0003:00000830       ?__rgctypeflag@@3PADA      10028830     libucrt:mbctype.obj
 0003:00000838       ?__rgcode_page_info@@3PAUcode_page_info@@A 10028838     libucrt:mbctype.obj
 0003:00000a90       ?__dcrt_lowio_console_output_handle@@3PAXA 10028a90     libucrt:initcon.obj
 0003:00000c28       ?is_initialized_as_dll@@3_NA 10028c28     LIBCMT:utility.obj
 0003:00000c29       ?module_local_atexit_table_initialized@@3_NA 10028c29     LIBCMT:utility.obj
 0003:00000c2c       ?module_local_atexit_table@@3U_onexit_table_t@@A 10028c2c     LIBCMT:utility.obj
 0003:00000c38       ?module_local_at_quick_exit_table@@3U_onexit_table_t@@A 10028c38     LIBCMT:utility.obj
 0003:00000c44       ?g_tss_cv@@3U_RTL_CONDITION_VARIABLE@@A 10028c44     LIBCMT:thread_safe_statics.obj
 0003:00000c48       ?g_tss_event@@3PAXA        10028c48     LIBCMT:thread_safe_statics.obj
 0003:00000c4c       ?g_tss_mutex@@3U_RTL_CRITICAL_SECTION@@A 10028c4c     LIBCMT:thread_safe_statics.obj
 0003:00000c64       ?g_sleep_condition_variable_cs@@3P6GHPAU_RTL_CONDITION_VARIABLE@@PAU_RTL_CRITICAL_SECTION@@K@ZA 10028c64     LIBCMT:thread_safe_statics.obj
 0003:00000c68       ?g_wake_all_condition_variable@@3P6GXPAU_RTL_CONDITION_VARIABLE@@@ZA 10028c68     LIBCMT:thread_safe_statics.obj
 0003:00000c70       _GS_ExceptionRecord        10028c70     LIBCMT:gs_report.obj
 0003:00000cc0       _GS_ContextRecord          10028cc0     LIBCMT:gs_report.obj
 0003:00000f90       ?__proc_attached@@3HA      10028f90     LIBCMT:dll_dllmain.obj
 0003:00000fec       ?AllocateData@@3P6GPAUAtlThunkData_t@@XZA 10028fec     atls:atlthunk.obj
 0003:00000ff0       ?InitData@@3P6GXPAUAtlThunkData_t@@PAXI@ZA 10028ff0     atls:atlthunk.obj
 0003:00000ff4       ?DataToCode@@3P6GP6GJPAUHWND__@@IIJ@ZPAUAtlThunkData_t@@@ZA 10028ff4     atls:atlthunk.obj
 0003:00000ff8       ?FreeData@@3P6GXPAUAtlThunkData_t@@@ZA 10028ff8     atls:atlthunk.obj
 0003:00000ffc       ?Initialized@@3_NA         10028ffc     atls:atlthunk.obj
 0003:0000100c       ?__vcrt_startup_thread_ptd@@3U__vcrt_ptd@@A 1002900c     libvcruntime:per_thread_data.obj
 0003:00001034       ___vcrt_lock_table         10029034     libvcruntime:locks.obj
 0003:0000104c       ___vcrt_locks_initialized  1002904c     libvcruntime:locks.obj
 0003:00001078       ?heap@@3V_HeapManager@@A   10029078     libvcruntime:undname.obj
 0003:0000108c       ?module_handles@@3PAPAUHINSTANCE__@@A 1002908c     libvcruntime:winapi_downlevel.obj
 0003:00001098       ?function_pointers@@3PAPAXA 10029098     libvcruntime:winapi_downlevel.obj
 0003:000010ac       ?__acrt_invalid_parameter_handler@@3V?$dual_state_global@P6AXPB_W00II@Z@__crt_state_management@@A 100290ac     libucrt:invalid_parameter.obj
 0003:000010b0       ?c_termination_complete@@3JA 100290b0     libucrt:exit.obj
 0003:000010b4       ?thread_local_exit_callback_func@@3P6GXPAXK0@ZA 100290b4     libucrt:exit.obj
 0003:000010c0       ?program_name@?1???$common_configure_argv@D@@YAHW4_crt_argv_mode@@@Z@4PADA 100290c0     libucrt:argv_parsing.obj
 0003:000011f0       ?__acrt_new_handler@@3V?$dual_state_global@P6AHI@Z@__crt_state_management@@A 100291f0     libucrt:new_handler.obj
 0003:000011f8       ?module_handles@@3PAPAUHINSTANCE__@@A 100291f8     libucrt:winapi_thunks.obj
 0003:00001248       ?encoded_function_pointers@@3PAPAXA 10029248     libucrt:winapi_thunks.obj
 0003:000012d0       ?internal_state@?1??_mbtowc_l@@9@4U_Mbstatet@@A 100292d0     libucrt:mbtowc.obj
 0003:000012e0       ?enable_percent_n@@3IA     100292e0     libucrt:printf_count_output.obj
 0003:00001500       ?__acrt_lock_table@@3PAU_RTL_CRITICAL_SECTION@@A 10029500     libucrt:locks.obj
 0003:00001650       ?__acrt_locks_initialized@@3IA 10029650     libucrt:locks.obj
 0003:00001660       ?fSystemSet@@3HA           10029660     libucrt:mbctype.obj
 0003:00001664       ?initialized@?1??__acrt_initialize_multibyte@@9@4_NA 10029664     libucrt:mbctype.obj
 0003:00001684       ?ctrlc_action@@3V?$dual_state_global@P6AXH@Z@__crt_state_management@@A 10029684     libucrt:signal.obj
 0003:00001688       ?ctrlbreak_action@@3V?$dual_state_global@P6AXH@Z@__crt_state_management@@A 10029688     libucrt:signal.obj
 0003:0000168c       ?abort_action@@3V?$dual_state_global@P6AXH@Z@__crt_state_management@@A 1002968c     libucrt:signal.obj
 0003:00001690       ?term_action@@3V?$dual_state_global@P6AXH@Z@__crt_state_management@@A 10029690     libucrt:signal.obj
 0003:00001694       ?user_matherr@@3V?$dual_state_global@P6AHPAU_exception@@@Z@__crt_state_management@@A 10029694     libucrt:matherr.obj
 0003:00001698       ?__acrt_global_new_mode@@3V?$dual_state_global@J@__crt_state_management@@A 10029698     libucrt:new_mode.obj
 0003:000016a4       ?internal_pst@?1??__mbrtoc32_utf8@__crt_mbstring@@YAIPA_UPBDIPAU_Mbstatet@@@Z@4U3@A 100296a4     libucrt:mbrtoc32.obj
 0003:000016ac       ?__acrt_app_type@@3W4_crt_app_type@@A 100296ac     libucrt:report_runtime_error.obj
 0003:000016b4       __pmatherr_set             100296b4     libucrt:libm_error.obj
 0004:00000220       $R000000                   1002a220     CashDrawer.res
 0004:00000bb8       $R000998                   1002abb8     CashDrawer.res
 0004:00000ca0       $R000A80                   1002aca0     CashDrawer.res
 0004:00000f08       $R000CE8                   1002af08     CashDrawer.res
 0004:00001470       $R001250                   1002b470     CashDrawer.res
 0004:00003938       $R003718                   1002d938     CashDrawer.res
 0004:00003970       $R003750                   1002d970     CashDrawer.res
