 OPOSBelt

 Timestamp is 600f76ee (Tue Jan 26 10:57:02 2021)

 Preferred load address is 10000000

 Start         Length     Name                   Class
 0001:00000000 00000080H .text$di                CODE
 0001:00000080 0001e0f3H .text$mn                CODE
 0001:0001e173 0000003aH .text$x                 CODE
 0001:0001e1ad 00000042H .text$yd                CODE
 0002:00000000 000002fcH .idata$5                DATA
 0002:000002fc 00000004H .00cfg                  DATA
 0002:00000300 00000004H .CRT$XCA                DATA
 0002:00000304 00000004H .CRT$XCL                DATA
 0002:00000308 00000010H .CRT$XCU                DATA
 0002:00000318 00000004H .CRT$XCZ                DATA
 0002:0000031c 00000004H .CRT$XIA                DATA
 0002:00000320 00000010H .CRT$XIC                DATA
 0002:00000330 00000004H .CRT$XIZ                DATA
 0002:00000334 00000004H .CRT$XLA                DATA
 0002:00000338 00000004H .CRT$XLZ                DATA
 0002:0000033c 00000004H .CRT$XPA                DATA
 0002:00000340 00000008H .CRT$XPX                DATA
 0002:00000348 00000004H .CRT$XPXA               DATA
 0002:0000034c 00000004H .CRT$XPZ                DATA
 0002:00000350 00000004H .CRT$XTA                DATA
 0002:00000354 0000000cH .CRT$XTZ                DATA
 0002:00000358 00000000H .gfids$y                DATA
 0002:00000360 000072e0H .rdata                  DATA
 0002:00007640 00000000H .rdata$CastGuardVftablesA DATA
 0002:00007640 00000000H .rdata$CastGuardVftablesC DATA
 0002:00007640 00000018H .rdata$T                DATA
 0002:00007658 00000178H .rdata$r                DATA
 0002:000077d0 0000001cH .rdata$sxdata           DATA
 0002:000077ec 000003d8H .rdata$zzzdbg           DATA
 0002:00007bc4 00000004H .rtc$IAA                DATA
 0002:00007bc8 00000004H .rtc$IZZ                DATA
 0002:00007bcc 00000004H .rtc$TAA                DATA
 0002:00007bd0 00000004H .rtc$TZZ                DATA
 0002:00007bd4 00000004H .tls                    DATA
 0002:00007bd8 00000004H .tls$                   DATA
 0002:00007bdc 00000004H .tls$ZZZ                DATA
 0002:00007be0 0000062cH .xdata$x                DATA
 0002:0000820c 00000004H ATL$__a                 DATA
 0002:00008210 00000010H ATL$__z                 DATA
 0002:00008220 000000a8H .edata                  DATA
 0002:000082c8 00000078H .idata$2                DATA
 0002:00008340 00000014H .idata$3                DATA
 0002:00008354 000002fcH .idata$4                DATA
 0002:00008650 00000bceH .idata$6                DATA
 0003:00000000 00000a80H .data                   DATA
 0003:00000a80 00000098H .data$r                 DATA
 0003:00000b18 00000b88H .bss                    DATA
 0004:00000000 00000220H .rsrc$01                DATA
 0004:00000220 000044e0H .rsrc$02                DATA

  Address         Publics by Value              Rva+Base       Lib:Object

 0000:00000000       ___guard_fids_count        00000000     <absolute>
 0000:00000000       ___guard_longjmp_table     00000000     <absolute>
 0000:00000000       ___guard_eh_cont_table     00000000     <absolute>
 0000:00000000       ___volatile_metadata       00000000     <absolute>
 0000:00000000       ___arm64x_extra_rfe_table  00000000     <absolute>
 0000:00000000       ___arm64x_redirection_metadata 00000000     <absolute>
 0000:00000000       ___guard_eh_cont_count     00000000     <absolute>
 0000:00000000       ___guard_iat_count         00000000     <absolute>
 0000:00000000       __except_list              00000000     <absolute>
 0000:00000000       ___x64_code_ranges_to_entry_points_count 00000000     <absolute>
 0000:00000000       ___hybrid_code_map_count   00000000     <absolute>
 0000:00000000       ___x64_code_ranges_to_entry_points 00000000     <absolute>
 0000:00000000       ___guard_iat_table         00000000     <absolute>
 0000:00000000       ___arm64x_native_entrypoint 00000000     <absolute>
 0000:00000000       ___hybrid_code_map         00000000     <absolute>
 0000:00000000       ___arm64x_extra_rfe_table_size 00000000     <absolute>
 0000:00000000       ___guard_longjmp_count     00000000     <absolute>
 0000:00000000       ___arm64x_redirection_metadata_count 00000000     <absolute>
 0000:00000000       ___hybrid_auxiliary_iat    00000000     <absolute>
 0000:00000000       ___dynamic_value_reloc_table 00000000     <absolute>
 0000:00000000       ___AbsoluteZero            00000000     <absolute>
 0000:00000000       ___enclave_config          00000000     <absolute>
 0000:00000000       ___guard_fids_table        00000000     <absolute>
 0000:00000007       ___safe_se_handler_count   00000007     <absolute>
 0000:0000002c       __tls_array                0000002c     <absolute>
 0000:00000100       ___guard_flags             00000100     <absolute>
 0000:00000000       ___ImageBase               10000000     <linker-defined>
 0001:00000080       ?DupWide@_CW@@AAEXXZ       10001080 f   CWString.obj
 0001:0000009c       ?cw_dup@@YGXPBDAAHAAPA_W1@Z 1000109c f   CWString.obj
 0001:00000124       ?cw_memcpy@@YGHPA_WPBDH@Z  10001124 f   CWString.obj
 0001:00000150       ?cw_strcpy@@YAHPA_WPBD@Z   10001150 f   CWString.obj
 0001:00000163       ?cw_strlen@@YAHPBD@Z       10001163 f   CWString.obj
 0001:0000017c       ??0CAtlComModule@ATL@@QAE@XZ 1000117c f i OposVariant.obj
 0001:000001c1       ??0CAtlWinModule@ATL@@QAE@XZ 100011c1 f i OposVariant.obj
 0001:000001f8       ??0OposDispParms@@QAE@PAVOposVariant@@H@Z 100011f8 f   OposVariant.obj
 0001:00000269       ??1OposDispParms@@QAE@XZ   10001269 f   OposVariant.obj
 0001:00000277       ??A?$CSimpleArray@GV?$CSimpleArrayEqualHelper@G@ATL@@@ATL@@QAEAAGH@Z 10001277 f i OposVariant.obj
 0001:0000029c       ??_Estringdispid@CComTypeInfoHolder@ATL@@QAEPAXI@Z 1000129c f i OposVariant.obj
 0001:00000308       ?AtlWinModuleInit@ATL@@YGJPAU_ATL_WIN_MODULE70@1@@Z 10001308 f i OposVariant.obj
 0001:0000032e       ?AtlWinModuleTerm@ATL@@YGJPAU_ATL_WIN_MODULE70@1@PAUHINSTANCE__@@@Z 1000132e f i OposVariant.obj
 0001:00000391       ?ChangeBSTR@OposVariant@@QAEXPAPA_WAAJ@Z 10001391 f   OposVariant.obj
 0001:000003d2       ?ChangeLONG@OposVariant@@QAEXPAJAAJ@Z 100013d2 f   OposVariant.obj
 0001:00000413       ?GetLONG@OposVariant@@QAEJXZ 10001413 f   OposVariant.obj
 0001:0000042e       ?Init@CComCriticalSection@ATL@@QAEJXZ 1000142e f i OposVariant.obj
 0001:00000456       ?RemoveAll@?$CSimpleArray@PAUHINSTANCE__@@V?$CSimpleArrayEqualHelper@PAUHINSTANCE__@@@ATL@@@ATL@@QAEXXZ 10001456 f i atls:atlbase.obj
 0001:00000456       ?RemoveAll@?$CSimpleArray@GV?$CSimpleArrayEqualHelper@G@ATL@@@ATL@@QAEXXZ 10001456 f i OposVariant.obj
 0001:00000473       ?SetBSTR@OposVariant@@QAEXPA_WAAJ@Z 10001473 f   OposVariant.obj
 0001:000004a7       ?SetBSTR_Copy@OposVariant@@QAEXPA_WAAJ@Z 100014a7 f   OposVariant.obj
 0001:000004f7       ?SetBSTR_InOutPtr@OposVariant@@QAE_NPAPA_WAAJ@Z 100014f7 f   OposVariant.obj
 0001:0000052e       ?SetDispatch_Ptr@OposVariant@@QAEXPAUIDispatch@@AAJ@Z 1000152e f   OposVariant.obj
 0001:00000569       ?SetLONG@OposVariant@@QAEXJ@Z 10001569 f   OposVariant.obj
 0001:0000058b       ?SetLONG_Ptr@OposVariant@@QAEXPAJAAJ@Z 1000158b f   OposVariant.obj
 0001:000005be       ?SetString@OposVariant@@QAEXPB_WAAJ@Z 100015be f   OposVariant.obj
 0001:00000604       ?SetVARIANT_BOOL@OposVariant@@QAEXF@Z 10001604 f   OposVariant.obj
 0001:0000062e       ?Term@CAtlComModule@ATL@@QAEXXZ 1000162e f i OposVariant.obj
 0001:00000678       ?_AtlRaiseException@ATL@@YAXKK@Z 10001678 f i OposVariant.obj
 0001:0000068d       ?AddRef@?$CComObject@VCOPOSBelt@@@ATL@@WII@AGKXZ 1000168d f i Belt.obj
 0001:0000069a       ?Release@?$CComObject@VCOPOSBelt@@@ATL@@WII@AGKXZ 1000169a f i Belt.obj
 0001:000006a7       ?QueryInterface@?$CComObject@VCOPOSBelt@@@ATL@@WIM@AGJABU_GUID@@PAPAX@Z 100016a7 f i Belt.obj
 0001:000006b4       ?AddRef@?$CComObject@VCOPOSBelt@@@ATL@@WIM@AGKXZ 100016b4 f i Belt.obj
 0001:000006c1       ?Release@?$CComObject@VCOPOSBelt@@@ATL@@WIM@AGKXZ 100016c1 f i Belt.obj
 0001:000006ce       ?QueryInterface@?$CComObject@VCOPOSBelt@@@ATL@@WJA@AGJABU_GUID@@PAPAX@Z 100016ce f i Belt.obj
 0001:000006db       ?AddRef@?$CComObject@VCOPOSBelt@@@ATL@@WJA@AGKXZ 100016db f i Belt.obj
 0001:000006e8       ?Release@?$CComObject@VCOPOSBelt@@@ATL@@WJA@AGKXZ 100016e8 f i Belt.obj
 0001:000006f5       ?QueryInterface@?$CComObject@VCOPOSBelt@@@ATL@@WJE@AGJABU_GUID@@PAPAX@Z 100016f5 f i Belt.obj
 0001:00000702       ?AddRef@?$CComObject@VCOPOSBelt@@@ATL@@WJE@AGKXZ 10001702 f i Belt.obj
 0001:0000070f       ?Release@?$CComObject@VCOPOSBelt@@@ATL@@WJE@AGKXZ 1000170f f i Belt.obj
 0001:0000071c       ?QueryInterface@?$CComObject@VCOPOSBelt@@@ATL@@WJI@AGJABU_GUID@@PAPAX@Z 1000171c f i Belt.obj
 0001:00000729       ?AddRef@?$CComObject@VCOPOSBelt@@@ATL@@WJI@AGKXZ 10001729 f i Belt.obj
 0001:00000736       ?Release@?$CComObject@VCOPOSBelt@@@ATL@@WJI@AGKXZ 10001736 f i Belt.obj
 0001:00000743       ?QueryInterface@?$CComObject@VCOPOSBelt@@@ATL@@WJM@AGJABU_GUID@@PAPAX@Z 10001743 f i Belt.obj
 0001:00000750       ?AddRef@?$CComObject@VCOPOSBelt@@@ATL@@WJM@AGKXZ 10001750 f i Belt.obj
 0001:0000075d       ?Release@?$CComObject@VCOPOSBelt@@@ATL@@WJM@AGKXZ 1000175d f i Belt.obj
 0001:0000076a       ?QueryInterface@?$CComObject@VCOPOSBelt@@@ATL@@WKA@AGJABU_GUID@@PAPAX@Z 1000176a f i Belt.obj
 0001:00000777       ?AddRef@?$CComObject@VCOPOSBelt@@@ATL@@WKA@AGKXZ 10001777 f i Belt.obj
 0001:00000784       ?Release@?$CComObject@VCOPOSBelt@@@ATL@@WKA@AGKXZ 10001784 f i Belt.obj
 0001:00000791       ?AddRef@?$CComObject@VCOPOSBelt@@@ATL@@WKI@AGKXZ 10001791 f i Belt.obj
 0001:0000079e       ?Release@?$CComObject@VCOPOSBelt@@@ATL@@WKI@AGKXZ 1000179e f i Belt.obj
 0001:000007ab       ?AddRef@?$CComObject@VCOPOSBelt@@@ATL@@WLE@AGKXZ 100017ab f i Belt.obj
 0001:000007b8       ?Release@?$CComObject@VCOPOSBelt@@@ATL@@WLE@AGKXZ 100017b8 f i Belt.obj
 0001:000007c5       ??_E?$CComContainedObject@VCOPOSBelt@@@ATL@@W3AEPAXI@Z 100017c5 f i Belt.obj
 0001:000007cd       ??_E?$CComContainedObject@VCOPOSBelt@@@ATL@@WEM@AEPAXI@Z 100017cd f i Belt.obj
 0001:000007d5       ?QueryInterface@?$CComContainedObject@VCOPOSBelt@@@ATL@@WHA@AGJABU_GUID@@PAPAX@Z 100017d5 f i Belt.obj
 0001:000007df       ?AddRef@?$CComContainedObject@VCOPOSBelt@@@ATL@@WHA@AGKXZ 100017df f i Belt.obj
 0001:000007e9       ?Release@?$CComContainedObject@VCOPOSBelt@@@ATL@@WHA@AGKXZ 100017e9 f i Belt.obj
 0001:000007f3       ?QueryInterface@?$CComContainedObject@VCOPOSBelt@@@ATL@@WHE@AGJABU_GUID@@PAPAX@Z 100017f3 f i Belt.obj
 0001:000007fd       ?AddRef@?$CComContainedObject@VCOPOSBelt@@@ATL@@WHE@AGKXZ 100017fd f i Belt.obj
 0001:00000807       ?Release@?$CComContainedObject@VCOPOSBelt@@@ATL@@WHE@AGKXZ 10001807 f i Belt.obj
 0001:00000811       ?QueryInterface@?$CComContainedObject@VCOPOSBelt@@@ATL@@WHI@AGJABU_GUID@@PAPAX@Z 10001811 f i Belt.obj
 0001:0000081b       ?AddRef@?$CComContainedObject@VCOPOSBelt@@@ATL@@WHI@AGKXZ 1000181b f i Belt.obj
 0001:00000825       ?Release@?$CComContainedObject@VCOPOSBelt@@@ATL@@WHI@AGKXZ 10001825 f i Belt.obj
 0001:0000082f       ?QueryInterface@?$CComContainedObject@VCOPOSBelt@@@ATL@@WHM@AGJABU_GUID@@PAPAX@Z 1000182f f i Belt.obj
 0001:00000839       ?AddRef@?$CComContainedObject@VCOPOSBelt@@@ATL@@WHM@AGKXZ 10001839 f i Belt.obj
 0001:00000843       ?Release@?$CComContainedObject@VCOPOSBelt@@@ATL@@WHM@AGKXZ 10001843 f i Belt.obj
 0001:0000084d       ?QueryInterface@?$CComContainedObject@VCOPOSBelt@@@ATL@@WIA@AGJABU_GUID@@PAPAX@Z 1000184d f i Belt.obj
 0001:0000085a       ?AddRef@?$CComContainedObject@VCOPOSBelt@@@ATL@@WIA@AGKXZ 1000185a f i Belt.obj
 0001:00000867       ?Release@?$CComContainedObject@VCOPOSBelt@@@ATL@@WIA@AGKXZ 10001867 f i Belt.obj
 0001:00000874       ?QueryInterface@?$CComContainedObject@VCOPOSBelt@@@ATL@@WIE@AGJABU_GUID@@PAPAX@Z 10001874 f i Belt.obj
 0001:00000881       ?AddRef@?$CComContainedObject@VCOPOSBelt@@@ATL@@WIE@AGKXZ 10001881 f i Belt.obj
 0001:0000088e       ?Release@?$CComContainedObject@VCOPOSBelt@@@ATL@@WIE@AGKXZ 1000188e f i Belt.obj
 0001:0000089b       ?QueryInterface@?$CComContainedObject@VCOPOSBelt@@@ATL@@WII@AGJABU_GUID@@PAPAX@Z 1000189b f i Belt.obj
 0001:000008a8       ?AddRef@?$CComContainedObject@VCOPOSBelt@@@ATL@@WII@AGKXZ 100018a8 f i Belt.obj
 0001:000008b5       ?Release@?$CComContainedObject@VCOPOSBelt@@@ATL@@WII@AGKXZ 100018b5 f i Belt.obj
 0001:000008c2       ?QueryInterface@?$CComContainedObject@VCOPOSBelt@@@ATL@@WIM@AGJABU_GUID@@PAPAX@Z 100018c2 f i Belt.obj
 0001:000008cf       ?AddRef@?$CComContainedObject@VCOPOSBelt@@@ATL@@WIM@AGKXZ 100018cf f i Belt.obj
 0001:000008dc       ?Release@?$CComContainedObject@VCOPOSBelt@@@ATL@@WIM@AGKXZ 100018dc f i Belt.obj
 0001:000008e9       ?QueryInterface@?$CComContainedObject@VCOPOSBelt@@@ATL@@WJA@AGJABU_GUID@@PAPAX@Z 100018e9 f i Belt.obj
 0001:000008f6       ?AddRef@?$CComContainedObject@VCOPOSBelt@@@ATL@@WJA@AGKXZ 100018f6 f i Belt.obj
 0001:00000903       ?Release@?$CComContainedObject@VCOPOSBelt@@@ATL@@WJA@AGKXZ 10001903 f i Belt.obj
 0001:00000910       ?QueryInterface@?$CComContainedObject@VCOPOSBelt@@@ATL@@WJE@AGJABU_GUID@@PAPAX@Z 10001910 f i Belt.obj
 0001:0000091d       ?AddRef@?$CComContainedObject@VCOPOSBelt@@@ATL@@WJE@AGKXZ 1000191d f i Belt.obj
 0001:0000092a       ?Release@?$CComContainedObject@VCOPOSBelt@@@ATL@@WJE@AGKXZ 1000192a f i Belt.obj
 0001:00000937       ?QueryInterface@?$CComContainedObject@VCOPOSBelt@@@ATL@@WJI@AGJABU_GUID@@PAPAX@Z 10001937 f i Belt.obj
 0001:00000944       ?AddRef@?$CComContainedObject@VCOPOSBelt@@@ATL@@WJI@AGKXZ 10001944 f i Belt.obj
 0001:00000951       ?Release@?$CComContainedObject@VCOPOSBelt@@@ATL@@WJI@AGKXZ 10001951 f i Belt.obj
 0001:0000095e       ?QueryInterface@?$CComContainedObject@VCOPOSBelt@@@ATL@@WJM@AGJABU_GUID@@PAPAX@Z 1000195e f i Belt.obj
 0001:0000096b       ?AddRef@?$CComContainedObject@VCOPOSBelt@@@ATL@@WJM@AGKXZ 1000196b f i Belt.obj
 0001:00000978       ?Release@?$CComContainedObject@VCOPOSBelt@@@ATL@@WJM@AGKXZ 10001978 f i Belt.obj
 0001:00000985       ?QueryInterface@?$CComContainedObject@VCOPOSBelt@@@ATL@@WKA@AGJABU_GUID@@PAPAX@Z 10001985 f i Belt.obj
 0001:00000992       ?AddRef@?$CComContainedObject@VCOPOSBelt@@@ATL@@WKA@AGKXZ 10001992 f i Belt.obj
 0001:0000099f       ?Release@?$CComContainedObject@VCOPOSBelt@@@ATL@@WKA@AGKXZ 1000199f f i Belt.obj
 0001:000009ac       ?AddRef@?$CComContainedObject@VCOPOSBelt@@@ATL@@WKI@AGKXZ 100019ac f i Belt.obj
 0001:000009b9       ?Release@?$CComContainedObject@VCOPOSBelt@@@ATL@@WKI@AGKXZ 100019b9 f i Belt.obj
 0001:000009c6       ?AddRef@?$CComContainedObject@VCOPOSBelt@@@ATL@@WLE@AGKXZ 100019c6 f i Belt.obj
 0001:000009d3       ?Release@?$CComContainedObject@VCOPOSBelt@@@ATL@@WLE@AGKXZ 100019d3 f i Belt.obj
 0001:000009e0       ?CreateInstance@CComClassFactory@ATL@@UAGJPAUIUnknown@@ABU_GUID@@PAPAX@Z 100019e0 f i Belt.obj
 0001:00000a1e       ?LockServer@CComClassFactory@ATL@@UAGJH@Z 10001a1e f i Belt.obj
 0001:00000a3d       ??_ECComClassFactory@ATL@@UAEPAXI@Z 10001a3d f i Belt.obj
 0001:00000a3d       ??_GCComClassFactory@ATL@@UAEPAXI@Z 10001a3d f i Belt.obj
 0001:00000a68       ?GetWindowProc@?$CWindowImplBaseT@VCWindow@ATL@@V?$CWinTraits@$0FGAAAAAA@$0A@@2@@ATL@@UAEP6GJPAUHWND__@@IIJ@ZXZ 10001a68 f i Belt.obj
 0001:00000a6e       ?StartWindowProc@?$CWindowImplBaseT@VCWindow@ATL@@V?$CWinTraits@$0FGAAAAAA@$0A@@2@@ATL@@SGJPAUHWND__@@IIJ@Z 10001a6e f i Belt.obj
 0001:00000ac2       ?ObjectMain@CComObjectRootBase@ATL@@SGX_N@Z 10001ac2 f i Belt.obj
 0001:00000ac2       ?OnFinalMessage@?$CWindowImplBaseT@VCWindow@ATL@@V?$CWinTraits@$0FGAAAAAA@$0A@@2@@ATL@@UAEXPAUHWND__@@@Z 10001ac2 f i Belt.obj
 0001:00000ac5       ?GetTypeInfoCount@?$IDispatchImpl@UIOPOSBelt@@$1?IID_IOPOSBelt@@3U_GUID@@B$1?LIBID_OposBelt_CCO@@3U3@B$00$0A@VCComTypeInfoHolder@ATL@@@ATL@@UAGJPAI@Z 10001ac5 f i Belt.obj
 0001:00000ae2       ?GetTypeInfo@?$IDispatchImpl@UIOPOSBelt@@$1?IID_IOPOSBelt@@3U_GUID@@B$1?LIBID_OposBelt_CCO@@3U3@B$00$0A@VCComTypeInfoHolder@ATL@@@ATL@@UAGJIKPAPAUITypeInfo@@@Z 10001ae2 f i Belt.obj
 0001:00000b06       ?GetIDsOfNames@?$IDispatchImpl@UIOPOSBelt@@$1?IID_IOPOSBelt@@3U_GUID@@B$1?LIBID_OposBelt_CCO@@3U3@B$00$0A@VCComTypeInfoHolder@ATL@@@ATL@@UAGJABU_GUID@@PAPA_WIKPAJ@Z 10001b06 f i Belt.obj
 0001:00000b26       ?Invoke@?$IDispatchImpl@UIOPOSBelt@@$1?IID_IOPOSBelt@@3U_GUID@@B$1?LIBID_OposBelt_CCO@@3U3@B$00$0A@VCComTypeInfoHolder@ATL@@@ATL@@UAGJJABU_GUID@@KGPAUtagDISPPARAMS@@PAUtagVARIANT@@PAUtagEXCEPINFO@@PAI@Z 10001b26 f i Belt.obj
 0001:00000b34       ?CreateControlWindow@?$CComControl@VCOPOSBelt@@V?$CWindowImpl@VCOPOSBelt@@VCWindow@ATL@@V?$CWinTraits@$0FGAAAAAA@$0A@@3@@ATL@@@ATL@@UAEPAUHWND__@@PAU3@AAUtagRECT@@@Z 10001b34 f i Belt.obj
 0001:00000b63       ?ControlQueryInterface@?$CComControl@VCOPOSBelt@@V?$CWindowImpl@VCOPOSBelt@@VCWindow@ATL@@V?$CWinTraits@$0FGAAAAAA@$0A@@3@@ATL@@@ATL@@UAEJABU_GUID@@PAPAX@Z 10001b63 f i Belt.obj
 0001:00000b7e       ?GetClassID@?$IPersistStreamInitImpl@VCOPOSBelt@@@ATL@@UAGJPAU_GUID@@@Z 10001b7e f i Belt.obj
 0001:00000b7e       ?GetUserClassID@?$IOleObjectImpl@VCOPOSBelt@@@ATL@@UAGJPAU_GUID@@@Z 10001b7e f i Belt.obj
 0001:00000b7e       ?GetClassID@?$IPersistStorageImpl@VCOPOSBelt@@@ATL@@UAGJPAU_GUID@@@Z 10001b7e f i Belt.obj
 0001:00000ba2       ?IsDirty@?$IPersistStreamInitImpl@VCOPOSBelt@@@ATL@@UAGJXZ 10001ba2 f i Belt.obj
 0001:00000bc1       ?Load@?$IPersistStreamInitImpl@VCOPOSBelt@@@ATL@@UAGJPAUIStream@@@Z 10001bc1 f i Belt.obj
 0001:00000be0       ?Save@?$IPersistStreamInitImpl@VCOPOSBelt@@@ATL@@UAGJPAUIStream@@H@Z 10001be0 f i Belt.obj
 0001:00000c02       ?GetSizeMax@?$IPersistStreamInitImpl@VCOPOSBelt@@@ATL@@UAGJPAT_ULARGE_INTEGER@@@Z 10001c02 f i Belt.obj
 0001:00000de1       ?InitNew@?$IPersistStreamInitImpl@VCOPOSBelt@@@ATL@@UAGJXZ 10001de1 f i Belt.obj
 0001:00000dfe       ?SODataDummy@COPOSBelt@@MAGJJ@Z 10001dfe f i Belt.obj
 0001:00000dfe       ?SetColorScheme@?$IOleObjectImpl@VCOPOSBelt@@@ATL@@UAGJPAUtagLOGPALETTE@@@Z 10001dfe f i Belt.obj
 0001:00000dfe       ?GetControlInfo@?$IOleControlImpl@VCOPOSBelt@@@ATL@@UAGJPAUtagCONTROLINFO@@@Z 10001dfe f i Belt.obj
 0001:00000dfe       ?SOOutputCompleteDummy@COPOSBelt@@MAGJJ@Z 10001dfe f i Belt.obj
 0001:00000dfe       ?GetDropTarget@?$IOleInPlaceObjectWindowlessImpl@VCOPOSBelt@@@ATL@@UAGJPAPAUIDropTarget@@@Z 10001dfe f i Belt.obj
 0001:00000dfe       ?OnMnemonic@?$IOleControlImpl@VCOPOSBelt@@@ATL@@UAGJPAUtagMSG@@@Z 10001dfe f i Belt.obj
 0001:00000dfe       ?Unfreeze@?$IViewObjectExImpl@VCOPOSBelt@@@ATL@@UAGJK@Z 10001dfe f i Belt.obj
 0001:00000dfe       ?ContextSensitiveHelp@?$IOleInPlaceActiveObjectImpl@VCOPOSBelt@@@ATL@@UAGJH@Z 10001dfe f i Belt.obj
 0001:00000dfe       ?ContextSensitiveHelp@?$IOleInPlaceObjectWindowlessImpl@VCOPOSBelt@@@ATL@@UAGJH@Z 10001dfe f i Belt.obj
 0001:00000dfe       ?QueryGetData@?$IDataObjectImpl@VCOPOSBelt@@@ATL@@UAGJPAUtagFORMATETC@@@Z 10001dfe f i Belt.obj
 0001:00000e06       ?SaveCompleted@?$IPersistStorageImpl@VCOPOSBelt@@@ATL@@UAGJPAUIStorage@@@Z 10001e06 f i Belt.obj
 0001:00000e06       ?OnFrameWindowActivate@?$IOleInPlaceActiveObjectImpl@VCOPOSBelt@@@ATL@@UAGJH@Z 10001e06 f i Belt.obj
 0001:00000e06       ?EnableModeless@?$IOleInPlaceActiveObjectImpl@VCOPOSBelt@@@ATL@@UAGJH@Z 10001e06 f i Belt.obj
 0001:00000e06       ?OnAmbientPropertyChange@?$IOleControlImpl@VCOPOSBelt@@@ATL@@UAGJJ@Z 10001e06 f i Belt.obj
 0001:00000e0b       ?SetClientSite@?$IOleObjectImpl@VCOPOSBelt@@@ATL@@UAGJPAUIOleClientSite@@@Z 10001e0b f i Belt.obj
 0001:00000e28       ?GetClientSite@?$IOleObjectImpl@VCOPOSBelt@@@ATL@@UAGJPAPAUIOleClientSite@@@Z 10001e28 f i Belt.obj
 0001:00000e45       ?SetHostNames@?$IOleObjectImpl@VCOPOSBelt@@@ATL@@UAGJPB_W0@Z 10001e45 f i Belt.obj
 0001:00000e4a       ?Close@?$IOleObjectImpl@VCOPOSBelt@@@ATL@@UAGJK@Z 10001e4a f i Belt.obj
 0001:00000e67       ?SetMoniker@?$IOleObjectImpl@VCOPOSBelt@@@ATL@@UAGJKPAUIMoniker@@@Z 10001e67 f i Belt.obj
 0001:00000e67       ?GetCanonicalFormatEtc@?$IDataObjectImpl@VCOPOSBelt@@@ATL@@UAGJPAUtagFORMATETC@@0@Z 10001e67 f i Belt.obj
 0001:00000e67       ?EnumFormatEtc@?$IDataObjectImpl@VCOPOSBelt@@@ATL@@UAGJKPAPAUIEnumFORMATETC@@@Z 10001e67 f i Belt.obj
 0001:00000e67       ?GetClipboardData@?$IOleObjectImpl@VCOPOSBelt@@@ATL@@UAGJKPAPAUIDataObject@@@Z 10001e67 f i Belt.obj
 0001:00000e67       ?QueryInterface@CRegObject@ATL@@UAGJABU_GUID@@PAPAX@Z 10001e67 f i Belt.obj
 0001:00000e67       ?GetRect@?$IViewObjectExImpl@VCOPOSBelt@@@ATL@@UAGJKPAU_RECTL@@@Z 10001e67 f i Belt.obj
 0001:00000e67       ?GetDataHere@?$IDataObjectImpl@VCOPOSBelt@@@ATL@@UAGJPAUtagFORMATETC@@PAUtagSTGMEDIUM@@@Z 10001e67 f i Belt.obj
 0001:00000e6f       ?SetData@?$IDataObjectImpl@VCOPOSBelt@@@ATL@@UAGJPAUtagFORMATETC@@PAUtagSTGMEDIUM@@H@Z 10001e6f f i Belt.obj
 0001:00000e6f       ?InitFromData@?$IOleObjectImpl@VCOPOSBelt@@@ATL@@UAGJPAUIDataObject@@HK@Z 10001e6f f i Belt.obj
 0001:00000e6f       ?GetMoniker@?$IOleObjectImpl@VCOPOSBelt@@@ATL@@UAGJKKPAPAUIMoniker@@@Z 10001e6f f i Belt.obj
 0001:00000e77       ?DoVerb@?$IOleObjectImpl@VCOPOSBelt@@@ATL@@UAGJJPAUtagMSG@@PAUIOleClientSite@@JPAUHWND__@@PBUtagRECT@@@Z 10001e77 f i Belt.obj
 0001:00000f6b       ?EnumVerbs@?$IOleObjectImpl@VCOPOSBelt@@@ATL@@UAGJPAPAUIEnumOLEVERB@@@Z 10001f6b f i Belt.obj
 0001:00000f8d       ?IsUpToDate@?$IOleObjectImpl@VCOPOSBelt@@@ATL@@UAGJXZ 10001f8d f i Belt.obj
 0001:00000f8d       ?HandsOffStorage@?$IPersistStorageImpl@VCOPOSBelt@@@ATL@@UAGJXZ 10001f8d f i Belt.obj
 0001:00000f8d       ?Release@CRegObject@ATL@@UAGKXZ 10001f8d f i Belt.obj
 0001:00000f8d       ?Update@?$IOleObjectImpl@VCOPOSBelt@@@ATL@@UAGJXZ 10001f8d f i Belt.obj
 0001:00000f92       ?GetUserType@?$IOleObjectImpl@VCOPOSBelt@@@ATL@@UAGJKPAPA_W@Z 10001f92 f i Belt.obj
 0001:00000faa       ?SetExtent@?$IOleObjectImpl@VCOPOSBelt@@@ATL@@UAGJKPAUtagSIZE@@@Z 10001faa f i Belt.obj
 0001:00000fca       ?GetExtent@?$IOleObjectImpl@VCOPOSBelt@@@ATL@@UAGJKPAUtagSIZE@@@Z 10001fca f i Belt.obj
 0001:00001008       ?Advise@?$IOleObjectImpl@VCOPOSBelt@@@ATL@@UAGJPAUIAdviseSink@@PAK@Z 10002008 f i Belt.obj
 0001:00001028       ?Unadvise@?$IOleObjectImpl@VCOPOSBelt@@@ATL@@UAGJK@Z 10002028 f i Belt.obj
 0001:00001057       ?EnumAdvise@?$IOleObjectImpl@VCOPOSBelt@@@ATL@@UAGJPAPAUIEnumSTATDATA@@@Z 10002057 f i Belt.obj
 0001:00001097       ?GetMiscStatus@?$IOleObjectImpl@VCOPOSBelt@@@ATL@@UAGJKPAK@Z 10002097 f i Belt.obj
 0001:000010af       ?GetWindow@?$IOleInPlaceActiveObjectImpl@VCOPOSBelt@@@ATL@@UAGJPAPAUHWND__@@@Z 100020af f i Belt.obj
 0001:000010fc       ?TranslateAcceleratorW@?$IOleInPlaceActiveObjectImpl@VCOPOSBelt@@@ATL@@UAGJPAUtagMSG@@@Z 100020fc f i Belt.obj
 0001:000011aa       ?OnDocWindowActivate@?$IOleInPlaceActiveObjectImpl@VCOPOSBelt@@@ATL@@UAGJH@Z 100021aa f i Belt.obj
 0001:000011cc       ?ResizeBorder@?$IOleInPlaceActiveObjectImpl@VCOPOSBelt@@@ATL@@UAGJPBUtagRECT@@PAUIOleInPlaceUIWindow@@H@Z 100021cc f i Belt.obj
 0001:000011d1       ?Draw@?$IViewObjectExImpl@VCOPOSBelt@@@ATL@@UAGJKJPAXPAUtagDVTARGETDEVICE@@PAUHDC__@@2PBU_RECTL@@3P6GHK@ZK@Z 100021d1 f i Belt.obj
 0001:00001203       ?GetColorSet@?$IViewObjectExImpl@VCOPOSBelt@@@ATL@@UAGJKJPAXPAUtagDVTARGETDEVICE@@PAUHDC__@@PAPAUtagLOGPALETTE@@@Z 10002203 f i Belt.obj
 0001:0000120b       ?Freeze@?$IViewObjectExImpl@VCOPOSBelt@@@ATL@@UAGJKJPAXPAK@Z 1000220b f i Belt.obj
 0001:0000120b       ?SOErrorDummy@COPOSBelt@@MAGJJJJPAJ@Z 1000220b f i Belt.obj
 0001:00001213       ?SetAdvise@?$IViewObjectExImpl@VCOPOSBelt@@@ATL@@UAGJKKPAUIAdviseSink@@@Z 10002213 f i Belt.obj
 0001:00001232       ?GetAdvise@?$IViewObjectExImpl@VCOPOSBelt@@@ATL@@UAGJPAK0PAPAUIAdviseSink@@@Z 10002232 f i Belt.obj
 0001:00001267       ?GetExtent@?$IViewObjectExImpl@VCOPOSBelt@@@ATL@@UAGJKJPAUtagDVTARGETDEVICE@@PAUtagSIZE@@@Z 10002267 f i Belt.obj
 0001:00001298       ?GetViewStatus@?$IViewObjectExImpl@VCOPOSBelt@@@ATL@@UAGJPAK@Z 10002298 f i Belt.obj
 0001:000012b5       ?QueryHitPoint@?$IViewObjectExImpl@VCOPOSBelt@@@ATL@@UAGJKPBUtagRECT@@UtagPOINT@@JPAK@Z 100022b5 f i Belt.obj
 0001:000012f6       ?QueryHitRect@?$IViewObjectExImpl@VCOPOSBelt@@@ATL@@UAGJKPBUtagRECT@@0JPAK@Z 100022f6 f i Belt.obj
 0001:00001351       ?GetNaturalExtent@?$IViewObjectExImpl@VCOPOSBelt@@@ATL@@UAGJKJPAUtagDVTARGETDEVICE@@PAUHDC__@@PAUtagExtentInfo@@PAUtagSIZE@@@Z 10002351 f i Belt.obj
 0001:0000139c       ?GetWindow@?$IOleInPlaceObjectWindowlessImpl@VCOPOSBelt@@@ATL@@UAGJPAPAUHWND__@@@Z 1000239c f i Belt.obj
 0001:000013e9       ?InPlaceDeactivate@?$IOleInPlaceObjectWindowlessImpl@VCOPOSBelt@@@ATL@@UAGJXZ 100023e9 f i Belt.obj
 0001:00001403       ?UIDeactivate@?$IOleInPlaceObjectWindowlessImpl@VCOPOSBelt@@@ATL@@UAGJXZ 10002403 f i Belt.obj
 0001:0000141d       ?SetObjectRects@?$IOleInPlaceObjectWindowlessImpl@VCOPOSBelt@@@ATL@@UAGJPBUtagRECT@@0@Z 1000241d f i Belt.obj
 0001:0000143d       ?ReactivateAndUndo@?$IOleInPlaceObjectWindowlessImpl@VCOPOSBelt@@@ATL@@UAGJXZ 1000243d f i Belt.obj
 0001:00001445       ?OnWindowMessage@?$IOleInPlaceObjectWindowlessImpl@VCOPOSBelt@@@ATL@@UAGJIIJPAJ@Z 10002445 f i Belt.obj
 0001:000014b5       ?EnumConnectionPoints@?$IConnectionPointContainerImpl@VCOPOSBelt@@@ATL@@UAGJPAPAUIEnumConnectionPoints@@@Z 100024b5 f i Belt.obj
 0001:00001641       ?FindConnectionPoint@?$IConnectionPointContainerImpl@VCOPOSBelt@@@ATL@@UAGJABU_GUID@@PAPAUIConnectionPoint@@@Z 10002641 f i Belt.obj
 0001:000016e4       ?IsDirty@?$IPersistStorageImpl@VCOPOSBelt@@@ATL@@UAGJXZ 100026e4 f i Belt.obj
 0001:00001714       ?InitNew@?$IPersistStorageImpl@VCOPOSBelt@@@ATL@@UAGJPAUIStorage@@@Z 10002714 f i Belt.obj
 0001:00001744       ?Load@?$IPersistStorageImpl@VCOPOSBelt@@@ATL@@UAGJPAUIStorage@@@Z 10002744 f i Belt.obj
 0001:000017b0       ?Save@?$IPersistStorageImpl@VCOPOSBelt@@@ATL@@UAGJPAUIStorage@@H@Z 100027b0 f i Belt.obj
 0001:00001823       ?GetPages@?$ISpecifyPropertyPagesImpl@VCOPOSBelt@@@ATL@@UAGJPAUtagCAUUID@@@Z 10002823 f i Belt.obj
 0001:0000183a       ?QuickActivate@?$IQuickActivateImpl@VCOPOSBelt@@@ATL@@UAGJPAUtagQACONTAINER@@PAUtagQACONTROL@@@Z 1000283a f i Belt.obj
 0001:0000185d       ?SetContentExtent@?$IQuickActivateImpl@VCOPOSBelt@@@ATL@@UAGJPAUtagSIZE@@@Z 1000285d f i Belt.obj
 0001:00001889       ?GetContentExtent@?$IQuickActivateImpl@VCOPOSBelt@@@ATL@@UAGJPAUtagSIZE@@@Z 10002889 f i Belt.obj
 0001:000018c5       ?GetData@?$IDataObjectImpl@VCOPOSBelt@@@ATL@@UAGJPAUtagFORMATETC@@PAUtagSTGMEDIUM@@@Z 100028c5 f i Belt.obj
 0001:000018e8       ?DAdvise@?$IDataObjectImpl@VCOPOSBelt@@@ATL@@UAGJPAUtagFORMATETC@@KPAUIAdviseSink@@PAK@Z 100028e8 f i Belt.obj
 0001:00001929       ?DUnadvise@?$IDataObjectImpl@VCOPOSBelt@@@ATL@@UAGJK@Z 10002929 f i Belt.obj
 0001:00001957       ?EnumDAdvise@?$IDataObjectImpl@VCOPOSBelt@@@ATL@@UAGJPAPAUIEnumSTATDATA@@@Z 10002957 f i Belt.obj
 0001:00001996       ?GetClassInfoW@?$IProvideClassInfo2Impl@$1?CLSID_OPOSBelt@@3U_GUID@@B$1?DIID__IOPOSBeltEvents@@3U2@B$1?LIBID_OposBelt_CCO@@3U2@B$00$0A@VCComTypeInfoHolder@ATL@@@ATL@@UAGJPAPAUITypeInfo@@@Z 10002996 f i Belt.obj
 0001:000019ac       ?GetGUID@?$IProvideClassInfo2Impl@$1?CLSID_OPOSBelt@@3U_GUID@@B$1?DIID__IOPOSBeltEvents@@3U2@B$1?LIBID_OposBelt_CCO@@3U2@B$00$0A@VCComTypeInfoHolder@ATL@@@ATL@@UAGJKPAU_GUID@@@Z 100029ac f i Belt.obj
 0001:000019ea       __get_startup_argv_mode    100029ea f i LIBCMT:argv_mode.obj
 0001:000019ea       ?FAccessAllowed@?$IObjectSafetyImpl@VCOPOSBelt@@$02@ATL@@MAEHXZ 100029ea f i Belt.obj
 0001:000019ee       ?GetInterfaceSafetyOptions@?$IObjectSafetyImpl@VCOPOSBelt@@$02@ATL@@UAGJABU_GUID@@PAK1@Z 100029ee f i Belt.obj
 0001:00001a62       ?SetInterfaceSafetyOptions@?$IObjectSafetyImpl@VCOPOSBelt@@$02@ATL@@UAGJABU_GUID@@KK@Z 10002a62 f i Belt.obj
 0001:00001adc       ?_LocCPQueryInterface@?$IConnectionPointImpl@VCOPOSBelt@@$1?IID_IPropertyNotifySink@@3U_GUID@@BVCComDynamicUnkArray@ATL@@@ATL@@UAGJABU_GUID@@PAPAX@Z 10002adc f i Belt.obj
 0001:00001adc       ?_LocCPQueryInterface@?$IConnectionPointImpl@VCOPOSBelt@@$1?DIID__IOPOSBeltEvents@@3U_GUID@@BVCComDynamicUnkArray@ATL@@@ATL@@UAGJABU_GUID@@PAPAX@Z 10002adc f i Belt.obj
 0001:00001b29       ?GetConnectionInterface@?$IConnectionPointImpl@VCOPOSBelt@@$1?IID_IPropertyNotifySink@@3U_GUID@@BVCComDynamicUnkArray@ATL@@@ATL@@UAGJPAU_GUID@@@Z 10002b29 f i Belt.obj
 0001:00001b4d       ?GetConnectionPointContainer@?$IConnectionPointImpl@VCOPOSBelt@@$1?IID_IPropertyNotifySink@@3U_GUID@@BVCComDynamicUnkArray@ATL@@@ATL@@UAGJPAPAUIConnectionPointContainer@@@Z 10002b4d f i Belt.obj
 0001:00001b70       ?Advise@?$IConnectionPointImpl@VCOPOSBelt@@$1?DIID__IOPOSBeltEvents@@3U_GUID@@BVCComDynamicUnkArray@ATL@@@ATL@@UAGJPAUIUnknown@@PAK@Z 10002b70 f i Belt.obj
 0001:00001b70       ?Advise@?$IConnectionPointImpl@VCOPOSBelt@@$1?IID_IPropertyNotifySink@@3U_GUID@@BVCComDynamicUnkArray@ATL@@@ATL@@UAGJPAUIUnknown@@PAK@Z 10002b70 f i Belt.obj
 0001:00001c10       ?Unadvise@?$IConnectionPointImpl@VCOPOSBelt@@$1?IID_IPropertyNotifySink@@3U_GUID@@BVCComDynamicUnkArray@ATL@@@ATL@@UAGJK@Z 10002c10 f i Belt.obj
 0001:00001c10       ?Unadvise@?$IConnectionPointImpl@VCOPOSBelt@@$1?DIID__IOPOSBeltEvents@@3U_GUID@@BVCComDynamicUnkArray@ATL@@@ATL@@UAGJK@Z 10002c10 f i Belt.obj
 0001:00001c50       ?EnumConnections@?$IConnectionPointImpl@VCOPOSBelt@@$1?DIID__IOPOSBeltEvents@@3U_GUID@@BVCComDynamicUnkArray@ATL@@@ATL@@UAGJPAPAUIEnumConnections@@@Z 10002c50 f i Belt.obj
 0001:00001c50       ?EnumConnections@?$IConnectionPointImpl@VCOPOSBelt@@$1?IID_IPropertyNotifySink@@3U_GUID@@BVCComDynamicUnkArray@ATL@@@ATL@@UAGJPAPAUIEnumConnections@@@Z 10002c50 f i Belt.obj
 0001:00001d4b       ?GetCategoryMap@CComObjectRootBase@ATL@@SAPBU_ATL_CATMAP_ENTRY@2@XZ 10002d4b f i Belt.obj
 0001:00001d4b       ?GetObjectDescription@?$CComCoClass@VCOPOSBelt@@$1?CLSID_OPOSBelt@@3U_GUID@@B@ATL@@SGPB_WXZ 10002d4b f i Belt.obj
 0001:00001d4e       ?GetConnectionInterface@?$IConnectionPointImpl@VCOPOSBelt@@$1?DIID__IOPOSBeltEvents@@3U_GUID@@BVCComDynamicUnkArray@ATL@@@ATL@@UAGJPAU_GUID@@@Z 10002d4e f i Belt.obj
 0001:00001d72       ?GetConnectionPointContainer@?$IConnectionPointImpl@VCOPOSBelt@@$1?DIID__IOPOSBeltEvents@@3U_GUID@@BVCComDynamicUnkArray@ATL@@@ATL@@UAGJPAPAUIConnectionPointContainer@@@Z 10002d72 f i Belt.obj
 0001:00001d95       ?UpdateRegistry@COPOSBelt@@SGJH@Z 10002d95 f i Belt.obj
 0001:00001dad       ?ProcessWindowMessage@COPOSBelt@@UAEHPAUHWND__@@IIJAAJK@Z 10002dad f i Belt.obj
 0001:00001df6       ?SODirectIO@COPOSBelt@@MAGJJPAJPAPA_W@Z 10002df6 f i Belt.obj
 0001:00001e3f       ?SOStatusUpdate@COPOSBelt@@MAGJJ@Z 10002e3f f i Belt.obj
 0001:00001e78       ?Lock@CAtlModule@ATL@@UAEJXZ 10002e78 f i Belt.obj
 0001:00001e82       ?Unlock@CAtlModule@ATL@@UAEJXZ 10002e82 f i Belt.obj
 0001:00001e8c       ?GetLockCount@CAtlModule@ATL@@UAEJXZ 10002e8c f i Belt.obj
 0001:00001e90       ?GetGITPtr@CAtlModule@ATL@@UAEJPAPAUIGlobalInterfaceTable@@@Z 10002e90 f i Belt.obj
 0001:00001edc       ?AddCommonRGSReplacements@?$CAtlModuleT@VCComModule@ATL@@@ATL@@UAEJPAUIRegistrarBase@@@Z 10002edc f i Belt.obj
 0001:00001ef6       ?UpdateRegistryFromResourceD@CComModule@ATL@@UAGJPB_WHPAU_ATL_REGMAP_ENTRY@2@@Z 10002ef6 f i Belt.obj
 0001:00001ef6       ?UpdateRegistryFromResourceD@CComModule@ATL@@UAGJIHPAU_ATL_REGMAP_ENTRY@2@@Z 10002ef6 f i Belt.obj
 0001:00001efe       ?UpdateRegistryFromResource@CComModule@ATL@@UAGJPB_WHPAU_ATL_REGMAP_ENTRY@2@@Z 10002efe f i Belt.obj
 0001:00001f07       ?UpdateRegistryFromResource@CComModule@ATL@@UAGJIHPAU_ATL_REGMAP_ENTRY@2@@Z 10002f07 f i Belt.obj
 0001:00001f10       ??_GCComModule@ATL@@UAEPAXI@Z 10002f10 f i Belt.obj
 0001:00001f10       ??_ECComModule@ATL@@UAEPAXI@Z 10002f10 f i Belt.obj
 0001:00001f38       ?CreateInstance@?$CComCreator@V?$CComObjectCached@VCComClassFactory@ATL@@@ATL@@@ATL@@SGJPAXABU_GUID@@PAPAX@Z 10002f38 f i Belt.obj
 0001:00001fd8       ?CreateInstance@?$CComCreator2@V?$CComCreator@V?$CComObject@VCOPOSBelt@@@ATL@@@ATL@@V?$CComCreator@V?$CComAggObject@VCOPOSBelt@@@ATL@@@2@@ATL@@SGJPAXABU_GUID@@PAPAX@Z 10002fd8 f i Belt.obj
 0001:00001ff8       ?AddRef@?$CComObjectCached@VCComClassFactory@ATL@@@ATL@@UAGKXZ 10002ff8 f i Belt.obj
 0001:0000201f       ?Release@?$CComObjectCached@VCComClassFactory@ATL@@@ATL@@UAGKXZ 1000301f f i Belt.obj
 0001:00002055       ?QueryInterface@?$CComObjectCached@VCComClassFactory@ATL@@@ATL@@UAGJABU_GUID@@PAPAX@Z 10003055 f i Belt.obj
 0001:0000206f       ??_E?$CComObjectCached@VCComClassFactory@ATL@@@ATL@@UAEPAXI@Z 1000306f f i Belt.obj
 0001:0000206f       ??_G?$CComObjectCached@VCComClassFactory@ATL@@@ATL@@UAEPAXI@Z 1000306f f i Belt.obj
 0001:00002091       ?Next@?$CComEnumImpl@UIEnumConnectionPoints@@$1?_GUID_b196b285_bab4_101a_b69c_00aa00341d07@@3U__s_GUID@@BPAUIConnectionPoint@@V?$_CopyInterface@UIConnectionPoint@@@ATL@@@ATL@@UAGJKPAPAUIConnectionPoint@@PAK@Z 10003091 f i Belt.obj
 0001:00002168       ?Skip@?$CComEnumImpl@UIEnumConnectionPoints@@$1?_GUID_b196b285_bab4_101a_b69c_00aa00341d07@@3U__s_GUID@@BPAUIConnectionPoint@@V?$_CopyInterface@UIConnectionPoint@@@ATL@@@ATL@@UAGJK@Z 10003168 f i Belt.obj
 0001:00002195       ?Reset@?$CComEnumImpl@UIEnumConnectionPoints@@$1?_GUID_b196b285_bab4_101a_b69c_00aa00341d07@@3U__s_GUID@@BPAUIConnectionPoint@@V?$_CopyInterface@UIConnectionPoint@@@ATL@@@ATL@@UAGJXZ 10003195 f i Belt.obj
 0001:00002195       ?Reset@?$CComEnumImpl@UIEnumConnections@@$1?_GUID_b196b287_bab4_101a_b69c_00aa00341d07@@3U__s_GUID@@BUtagCONNECTDATA@@V?$_Copy@UtagCONNECTDATA@@@ATL@@@ATL@@UAGJXZ 10003195 f i Belt.obj
 0001:000021a7       ?Clone@?$CComEnumImpl@UIEnumConnectionPoints@@$1?_GUID_b196b285_bab4_101a_b69c_00aa00341d07@@3U__s_GUID@@BPAUIConnectionPoint@@V?$_CopyInterface@UIConnectionPoint@@@ATL@@@ATL@@UAGJPAPAUIEnumConnectionPoints@@@Z 100031a7 f i Belt.obj
 0001:00002288       ?AddRef@?$CComObject@V?$CComEnum@UIEnumConnectionPoints@@$1?_GUID_b196b285_bab4_101a_b69c_00aa00341d07@@3U__s_GUID@@BPAUIConnectionPoint@@V?$_CopyInterface@UIConnectionPoint@@@ATL@@VCComSingleThreadModel@6@@ATL@@@ATL@@UAGKXZ 10003288 f i Belt.obj
 0001:00002288       ?AddRef@?$CComObject@V?$CComEnum@UIEnumConnections@@$1?_GUID_b196b287_bab4_101a_b69c_00aa00341d07@@3U__s_GUID@@BUtagCONNECTDATA@@V?$_Copy@UtagCONNECTDATA@@@ATL@@VCComSingleThreadModel@6@@ATL@@@ATL@@UAGKXZ 10003288 f i Belt.obj
 0001:00002299       ?Release@?$CComObject@V?$CComEnum@UIEnumConnections@@$1?_GUID_b196b287_bab4_101a_b69c_00aa00341d07@@3U__s_GUID@@BUtagCONNECTDATA@@V?$_Copy@UtagCONNECTDATA@@@ATL@@VCComSingleThreadModel@6@@ATL@@@ATL@@UAGKXZ 10003299 f i Belt.obj
 0001:00002299       ?Release@?$CComObject@V?$CComEnum@UIEnumConnectionPoints@@$1?_GUID_b196b285_bab4_101a_b69c_00aa00341d07@@3U__s_GUID@@BPAUIConnectionPoint@@V?$_CopyInterface@UIConnectionPoint@@@ATL@@VCComSingleThreadModel@6@@ATL@@@ATL@@UAGKXZ 10003299 f i Belt.obj
 0001:000022d5       ?QueryInterface@?$CComObject@V?$CComEnum@UIEnumConnectionPoints@@$1?_GUID_b196b285_bab4_101a_b69c_00aa00341d07@@3U__s_GUID@@BPAUIConnectionPoint@@V?$_CopyInterface@UIConnectionPoint@@@ATL@@VCComSingleThreadModel@6@@ATL@@@ATL@@UAGJABU_GUID@@PAPAX@Z 100032d5 f i Belt.obj
 0001:000022ef       ??_G?$CComObject@V?$CComEnum@UIEnumConnectionPoints@@$1?_GUID_b196b285_bab4_101a_b69c_00aa00341d07@@3U__s_GUID@@BPAUIConnectionPoint@@V?$_CopyInterface@UIConnectionPoint@@@ATL@@VCComSingleThreadModel@6@@ATL@@@ATL@@UAEPAXI@Z 100032ef f i Belt.obj
 0001:000022ef       ??_E?$CComObject@V?$CComEnum@UIEnumConnectionPoints@@$1?_GUID_b196b285_bab4_101a_b69c_00aa00341d07@@3U__s_GUID@@BPAUIConnectionPoint@@V?$_CopyInterface@UIConnectionPoint@@@ATL@@VCComSingleThreadModel@6@@ATL@@@ATL@@UAEPAXI@Z 100032ef f i Belt.obj
 0001:00002311       ?AddRef@CRegObject@ATL@@UAGKXZ 10003311 f i Belt.obj
 0001:00002317       ?AddReplacement@CRegObject@ATL@@UAGJPB_W0@Z 10003317 f i Belt.obj
 0001:00002350       ?ClearReplacements@CRegObject@ATL@@UAGJXZ 10003350 f i Belt.obj
 0001:00002362       ??_ECRegObject@ATL@@UAEPAXI@Z 10003362 f i Belt.obj
 0001:00002362       ??_GCRegObject@ATL@@UAEPAXI@Z 10003362 f i Belt.obj
 0001:00002384       ?AddRef@?$CComAggObject@VCOPOSBelt@@@ATL@@UAGKXZ 10003384 f i Belt.obj
 0001:00002395       ?Release@?$CComAggObject@VCOPOSBelt@@@ATL@@UAGKXZ 10003395 f i Belt.obj
 0001:000023d1       ?QueryInterface@?$CComAggObject@VCOPOSBelt@@@ATL@@UAGJABU_GUID@@PAPAX@Z 100033d1 f i Belt.obj
 0001:00002420       ?AddRef@?$CComContainedObject@VCOPOSBelt@@@ATL@@UAGKXZ 10003420 f i Belt.obj
 0001:00002436       ?Release@?$CComContainedObject@VCOPOSBelt@@@ATL@@UAGKXZ 10003436 f i Belt.obj
 0001:0000244c       ?QueryInterface@?$CComContainedObject@VCOPOSBelt@@@ATL@@UAGJABU_GUID@@PAPAX@Z 1000344c f i Belt.obj
 0001:00002467       ??_E?$CComAggObject@VCOPOSBelt@@@ATL@@UAEPAXI@Z 10003467 f i Belt.obj
 0001:00002467       ??_G?$CComAggObject@VCOPOSBelt@@@ATL@@UAEPAXI@Z 10003467 f i Belt.obj
 0001:0000248c       ?AddRef@?$CComObject@VCOPOSBelt@@@ATL@@UAGKXZ 1000348c f i Belt.obj
 0001:000024a3       ?Release@?$CComObject@VCOPOSBelt@@@ATL@@UAGKXZ 100034a3 f i Belt.obj
 0001:000024e5       ?QueryInterface@?$CComObject@VCOPOSBelt@@@ATL@@UAGJABU_GUID@@PAPAX@Z 100034e5 f i Belt.obj
 0001:000024ff       ?OnDrawAdvanced@CComControlBase@ATL@@UAEJAAUATL_DRAWINFO@@@Z 100034ff f i Belt.obj
 0001:000025f2       ?Next@?$CComEnumImpl@UIEnumConnections@@$1?_GUID_b196b287_bab4_101a_b69c_00aa00341d07@@3U__s_GUID@@BUtagCONNECTDATA@@V?$_Copy@UtagCONNECTDATA@@@ATL@@@ATL@@UAGJKPAUtagCONNECTDATA@@PAK@Z 100035f2 f i Belt.obj
 0001:000026c9       ?Skip@?$CComEnumImpl@UIEnumConnections@@$1?_GUID_b196b287_bab4_101a_b69c_00aa00341d07@@3U__s_GUID@@BUtagCONNECTDATA@@V?$_Copy@UtagCONNECTDATA@@@ATL@@@ATL@@UAGJK@Z 100036c9 f i Belt.obj
 0001:000026f6       ?Clone@?$CComEnumImpl@UIEnumConnections@@$1?_GUID_b196b287_bab4_101a_b69c_00aa00341d07@@3U__s_GUID@@BUtagCONNECTDATA@@V?$_Copy@UtagCONNECTDATA@@@ATL@@@ATL@@UAGJPAPAUIEnumConnections@@@Z 100036f6 f i Belt.obj
 0001:000027d7       ?QueryInterface@?$CComObject@V?$CComEnum@UIEnumConnections@@$1?_GUID_b196b287_bab4_101a_b69c_00aa00341d07@@3U__s_GUID@@BUtagCONNECTDATA@@V?$_Copy@UtagCONNECTDATA@@@ATL@@VCComSingleThreadModel@6@@ATL@@@ATL@@UAGJABU_GUID@@PAPAX@Z 100037d7 f i Belt.obj
 0001:000027f1       ??_E?$CComObject@V?$CComEnum@UIEnumConnections@@$1?_GUID_b196b287_bab4_101a_b69c_00aa00341d07@@3U__s_GUID@@BUtagCONNECTDATA@@V?$_Copy@UtagCONNECTDATA@@@ATL@@VCComSingleThreadModel@6@@ATL@@@ATL@@UAEPAXI@Z 100037f1 f i Belt.obj
 0001:000027f1       ??_G?$CComObject@V?$CComEnum@UIEnumConnections@@$1?_GUID_b196b287_bab4_101a_b69c_00aa00341d07@@3U__s_GUID@@BUtagCONNECTDATA@@V?$_Copy@UtagCONNECTDATA@@@ATL@@VCComSingleThreadModel@6@@ATL@@@ATL@@UAEPAXI@Z 100037f1 f i Belt.obj
 0001:00002813       ??_E?$CComObject@VCOPOSBelt@@@ATL@@W3AEPAXI@Z 10003813 f i Belt.obj
 0001:0000281b       ??_E?$CComObject@VCOPOSBelt@@@ATL@@WEM@AEPAXI@Z 1000381b f i Belt.obj
 0001:00002823       ?QueryInterface@?$CComObject@VCOPOSBelt@@@ATL@@WHA@AGJABU_GUID@@PAPAX@Z 10003823 f i Belt.obj
 0001:0000282d       ?AddRef@?$CComObject@VCOPOSBelt@@@ATL@@WHA@AGKXZ 1000382d f i Belt.obj
 0001:00002837       ?Release@?$CComObject@VCOPOSBelt@@@ATL@@WHA@AGKXZ 10003837 f i Belt.obj
 0001:00002841       ?QueryInterface@?$CComObject@VCOPOSBelt@@@ATL@@WHE@AGJABU_GUID@@PAPAX@Z 10003841 f i Belt.obj
 0001:0000284b       ?AddRef@?$CComObject@VCOPOSBelt@@@ATL@@WHE@AGKXZ 1000384b f i Belt.obj
 0001:00002855       ?Release@?$CComObject@VCOPOSBelt@@@ATL@@WHE@AGKXZ 10003855 f i Belt.obj
 0001:0000285f       ?QueryInterface@?$CComObject@VCOPOSBelt@@@ATL@@WHI@AGJABU_GUID@@PAPAX@Z 1000385f f i Belt.obj
 0001:00002869       ?AddRef@?$CComObject@VCOPOSBelt@@@ATL@@WHI@AGKXZ 10003869 f i Belt.obj
 0001:00002873       ?Release@?$CComObject@VCOPOSBelt@@@ATL@@WHI@AGKXZ 10003873 f i Belt.obj
 0001:0000287d       ?QueryInterface@?$CComObject@VCOPOSBelt@@@ATL@@WHM@AGJABU_GUID@@PAPAX@Z 1000387d f i Belt.obj
 0001:00002887       ?AddRef@?$CComObject@VCOPOSBelt@@@ATL@@WHM@AGKXZ 10003887 f i Belt.obj
 0001:00002891       ?Release@?$CComObject@VCOPOSBelt@@@ATL@@WHM@AGKXZ 10003891 f i Belt.obj
 0001:0000289b       ?QueryInterface@?$CComObject@VCOPOSBelt@@@ATL@@WIA@AGJABU_GUID@@PAPAX@Z 1000389b f i Belt.obj
 0001:000028a8       ?AddRef@?$CComObject@VCOPOSBelt@@@ATL@@WIA@AGKXZ 100038a8 f i Belt.obj
 0001:000028b5       ?Release@?$CComObject@VCOPOSBelt@@@ATL@@WIA@AGKXZ 100038b5 f i Belt.obj
 0001:000028c2       ?QueryInterface@?$CComObject@VCOPOSBelt@@@ATL@@WIE@AGJABU_GUID@@PAPAX@Z 100038c2 f i Belt.obj
 0001:000028cf       ?AddRef@?$CComObject@VCOPOSBelt@@@ATL@@WIE@AGKXZ 100038cf f i Belt.obj
 0001:000028dc       ?Release@?$CComObject@VCOPOSBelt@@@ATL@@WIE@AGKXZ 100038dc f i Belt.obj
 0001:000028e9       ?QueryInterface@?$CComObject@VCOPOSBelt@@@ATL@@WII@AGJABU_GUID@@PAPAX@Z 100038e9 f i Belt.obj
 0001:000028f6       ??$?4UITypeInfo2@@@?$CComPtr@UITypeInfo@@@ATL@@QAEPAUITypeInfo@@ABV?$CComPtr@UITypeInfo2@@@1@@Z 100038f6 f i Belt.obj
 0001:00002923       ??$AtlAdd@K@ATL@@YAJPAKKK@Z 10003923 f i Belt.obj
 0001:00002946       ??$AtlAdd@_K@ATL@@YAJPA_K_K1@Z 10003946 f i Belt.obj
 0001:0000297e       ??$AtlAddThrow@K@ATL@@YAKKK@Z 1000397e f i Belt.obj
 0001:000029a4       ??$AtlModuleRegisterWndClassInfoT@VAtlModuleRegisterWndClassInfoParamW@ATL@@@ATL@@YAGPAU_ATL_BASE_MODULE70@0@PAU_ATL_WIN_MODULE70@0@PAU_ATL_WNDCLASSINFOW@0@PAP6GJPAUHWND__@@IIJ@ZVAtlModuleRegisterWndClassInfoParamW@0@@Z 100039a4 f i Belt.obj
 0001:00002af2       ??$AtlMultiply@H@ATL@@YAJPAHHH@Z 10003af2 f i Belt.obj
 0001:00002b2a       ??$AtlMultiply@K@ATL@@YAJPAKKK@Z 10003b2a f i Belt.obj
 0001:00002b2a       ??$AtlMultiply@I@ATL@@YAJPAIII@Z 10003b2a f i Belt.obj
 0001:00002b4c       ??$AtlMultiplyThrow@I@ATL@@YAIII@Z 10003b4c f i Belt.obj
 0001:00002b72       ??0?$CComAggObject@VCOPOSBelt@@@ATL@@QAE@PAX@Z 10003b72 f i Belt.obj
 0001:00002b9f       ??0?$CComContainedObject@VCOPOSBelt@@@ATL@@QAE@PAX@Z 10003b9f f i Belt.obj
 0001:00002c58       ??0?$CComObject@V?$CComEnum@UIEnumConnectionPoints@@$1?_GUID_b196b285_bab4_101a_b69c_00aa00341d07@@3U__s_GUID@@BPAUIConnectionPoint@@V?$_CopyInterface@UIConnectionPoint@@@ATL@@VCComSingleThreadModel@6@@ATL@@@ATL@@QAE@PAX@Z 10003c58 f i Belt.obj
 0001:00002c86       ??0?$CComObject@V?$CComEnum@UIEnumConnections@@$1?_GUID_b196b287_bab4_101a_b69c_00aa00341d07@@3U__s_GUID@@BUtagCONNECTDATA@@V?$_Copy@UtagCONNECTDATA@@@ATL@@VCComSingleThreadModel@6@@ATL@@@ATL@@QAE@PAX@Z 10003c86 f i Belt.obj
 0001:00002cb4       ??0?$CComObject@VCOPOSBelt@@@ATL@@QAE@PAX@Z 10003cb4 f i Belt.obj
 0001:00002d6b       ??0?$CComQIPtr@UIOleControlSite@@$1?_GUID_b196b289_bab4_101a_b69c_00aa00341d07@@3U__s_GUID@@B@ATL@@QAE@PAUIUnknown@@@Z 10003d6b f i Belt.obj
 0001:00002d94       ??0CAtlModule@ATL@@QAE@XZ  10003d94 f i Belt.obj
 0001:00002dd5       ??0CParseBuffer@CRegParser@ATL@@QAE@H@Z 10003dd5 f i Belt.obj
 0001:00002e0b       ??0_ATL_MSG@ATL@@QAE@PAUHWND__@@IIJH@Z 10003e0b f i Belt.obj
 0001:00002e43       ??1?$CComAggObject@VCOPOSBelt@@@ATL@@UAE@XZ 10003e43 f i Belt.obj
 0001:00002e67       ??1?$CComEnumImpl@UIEnumConnectionPoints@@$1?_GUID_b196b285_bab4_101a_b69c_00aa00341d07@@3U__s_GUID@@BPAUIConnectionPoint@@V?$_CopyInterface@UIConnectionPoint@@@ATL@@@ATL@@UAE@XZ 10003e67 f i Belt.obj
 0001:00002ea7       ??1?$CComEnumImpl@UIEnumConnections@@$1?_GUID_b196b287_bab4_101a_b69c_00aa00341d07@@3U__s_GUID@@BUtagCONNECTDATA@@V?$_Copy@UtagCONNECTDATA@@@ATL@@@ATL@@UAE@XZ 10003ea7 f i Belt.obj
 0001:00002ee7       ??1?$CComObject@V?$CComEnum@UIEnumConnectionPoints@@$1?_GUID_b196b285_bab4_101a_b69c_00aa00341d07@@3U__s_GUID@@BPAUIConnectionPoint@@V?$_CopyInterface@UIConnectionPoint@@@ATL@@VCComSingleThreadModel@6@@ATL@@@ATL@@UAE@XZ 10003ee7 f i Belt.obj
 0001:00002f0a       ??1?$CComObject@V?$CComEnum@UIEnumConnections@@$1?_GUID_b196b287_bab4_101a_b69c_00aa00341d07@@3U__s_GUID@@BUtagCONNECTDATA@@V?$_Copy@UtagCONNECTDATA@@@ATL@@VCComSingleThreadModel@6@@ATL@@@ATL@@UAE@XZ 10003f0a f i Belt.obj
 0001:00002f2d       ??1?$CComObject@VCOPOSBelt@@@ATL@@UAE@XZ 10003f2d f i Belt.obj
 0001:00002feb       ??1?$CComObjectCached@VCComClassFactory@ATL@@@ATL@@UAE@XZ 10003feb f i Belt.obj
 0001:00003001       ??1?$CComObjectRootEx@VCComMultiThreadModel@ATL@@@ATL@@QAE@XZ 10004001 f i Belt.obj
 0001:00003016       ??1CRegObject@ATL@@UAE@XZ  10004016 f i Belt.obj
 0001:00003036       ??4?$CComPtr@UIUnknown@@@ATL@@QAEPAUIUnknown@@PAU2@@Z 10004036 f i Belt.obj
 0001:00003036       ??4?$CComPtr@UIAdviseSink@@@ATL@@QAEPAUIAdviseSink@@PAU2@@Z 10004036 f i Belt.obj
 0001:00003036       ??4?$CComPtr@UIOleClientSite@@@ATL@@QAEPAUIOleClientSite@@PAU2@@Z 10004036 f i Belt.obj
 0001:0000306a       ??_E?$CComContainedObject@VCOPOSBelt@@@ATL@@UAEPAXI@Z 1000406a f i Belt.obj
 0001:0000306a       ??_G?$CComContainedObject@VCOPOSBelt@@@ATL@@UAEPAXI@Z 1000406a f i Belt.obj
 0001:0000308f       ??_E?$CComObject@VCOPOSBelt@@@ATL@@UAEPAXI@Z 1000408f f i Belt.obj
 0001:0000308f       ??_G?$CComObject@VCOPOSBelt@@@ATL@@UAEPAXI@Z 1000408f f i Belt.obj
 0001:000030b4       ?Add@?$CSimpleArray@GV?$CSimpleArrayEqualHelper@G@ATL@@@ATL@@QAEHABG@Z 100040b4 f i Belt.obj
 0001:00003138       ?Add@?$CSimpleMap@PA_WPA_WVCExpansionVectorEqualHelper@ATL@@@ATL@@QAEHABQA_W0@Z 10004138 f i Belt.obj
 0001:0000318d       ?Add@CComDynamicUnkArray@ATL@@QAEKPAUIUnknown@@@Z 1000418d f i Belt.obj
 0001:00003243       ?Add@CExpansionVector@ATL@@QAEHPB_W0@Z 10004243 f i Belt.obj
 0001:0000334c       ?AddString@CParseBuffer@CRegParser@ATL@@QAEHPB_W@Z 1000434c f i Belt.obj
 0001:00003381       ?AddTermFunc@CAtlModule@ATL@@QAEJP6GXK@ZK@Z 10004381 f i Belt.obj
 0001:000033e4       ?AddValue@CRegParser@ATL@@IAEJAAVCRegKey@2@PB_WPA_W@Z 100043e4 f i Belt.obj
 0001:000036fe       ?Allocate@?$CAtlSafeAllocBufferManager@VCCRTAllocator@ATL@@@_ATL_SAFE_ALLOCA_IMPL@ATL@@QAEPAXK@Z 100046fe f i Belt.obj
 0001:0000372b       ?Allocate@?$CTempBuffer@E$0BAA@VCCRTAllocator@ATL@@@ATL@@QAEPAEI@Z 1000472b f i Belt.obj
 0001:0000375a       ?Allocate@?$CTempBuffer@_W$0BAA@VCCRTAllocator@ATL@@@ATL@@QAEPA_WI@Z 1000475a f i Belt.obj
 0001:00003789       ?Allocate@?$CTempBuffer@_W$0EAA@VCCRTAllocator@ATL@@@ATL@@QAEPA_WI@Z 10004789 f i Belt.obj
 0001:000037b8       ?AllocateHeap@?$CTempBuffer@_W$0EAA@VCCRTAllocator@ATL@@@ATL@@AAEXI@Z 100047b8 f i Belt.obj
 0001:000037b8       ?AllocateHeap@?$CTempBuffer@E$0BAA@VCCRTAllocator@ATL@@@ATL@@AAEXI@Z 100047b8 f i Belt.obj
 0001:000037b8       ?AllocateHeap@?$CTempBuffer@_W$0BAA@VCCRTAllocator@ATL@@@ATL@@AAEXI@Z 100047b8 f i Belt.obj
 0001:000037dd       ?Append@CParseBuffer@CRegParser@ATL@@QAEHPB_WH@Z 100047dd f i Belt.obj
 0001:0000386b       ?AtlCoTaskMemCAlloc@ATL@@YAPAXKK@Z 1000486b f i Belt.obj
 0001:00003898       ?AtlCoTaskMemRecalloc@ATL@@YAPAXPAXKK@Z 10004898 f i Belt.obj
 0001:000038c8       ?AtlComModuleGetClassObject@ATL@@YGJPAU_ATL_COM_MODULE70@1@ABU_GUID@@1PAPAX@Z 100048c8 f i Belt.obj
 0001:000039bb       ?AtlComModuleRegisterServer@ATL@@YGJPAU_ATL_COM_MODULE70@1@HPBU_GUID@@@Z 100049bb f i Belt.obj
 0001:00003a43       ?AtlComModuleUnregisterServer@ATL@@YGJPAU_ATL_COM_MODULE70@1@HPBU_GUID@@@Z 10004a43 f i Belt.obj
 0001:00003acb       ?AtlComQIPtrAssign2@ATL@@YAXPAPAUIUnknown@@PAU2@ABU_GUID@@@Z 10004acb f i Belt.obj
 0001:00003afa       ?AtlCreateTargetDC@ATL@@YGPAUHDC__@@PAU2@PAUtagDVTARGETDEVICE@@@Z 10004afa f i Belt.obj
 0001:00003b63       ?AtlCrtErrorCheck@ATL@@YAHH@Z 10004b63 f i Belt.obj
 0001:00003b9e       ?AtlHiMetricToPixel@ATL@@YGXPBUtagSIZE@@PAU2@@Z 10004b9e f i Belt.obj
 0001:00003c13       ?AtlHresultFromLastError@ATL@@YAJXZ 10004c13 f i Belt.obj
 0001:00003c2a       ?AtlHresultFromWin32@ATL@@YAJK@Z 10004c2a f i Belt.obj
 0001:00003c3f       ?AtlInternalOleLoadFromStream@ATL@@YAJPAUIStream@@ABU_GUID@@PAPAXTClassesAllowedInStream@1@K@Z 10004c3f f i Belt.obj
 0001:00003d5d       ?AtlInternalQueryInterface@ATL@@YGJPAXPBU_ATL_INTMAP_ENTRY@1@ABU_GUID@@PAPAX@Z 10004d5d f i Belt.obj
 0001:00003e00       ?AtlLoadTypeLib@ATL@@YGJPAUHINSTANCE__@@PB_WPAPA_WPAPAUITypeLib@@@Z 10004e00 f i Belt.obj
 0001:00003fde       ?AtlRegisterClassCategoriesHelper@ATL@@YGJABU_GUID@@PBU_ATL_CATMAP_ENTRY@1@H@Z 10004fde f i Belt.obj
 0001:000042da       ?AtlRegisterTypeLib@ATL@@YGJPAUHINSTANCE__@@PB_W@Z 100052da f i Belt.obj
 0001:00004462       ?AtlThrowImpl@ATL@@YGXJ@Z  10005462 f i Belt.obj
 0001:00004480       ?AtlUnRegisterTypeLib@ATL@@YGJPAUHINSTANCE__@@PB_W@Z 10005480 f i Belt.obj
 0001:0000452b       ?AtlWinModuleAddCreateWndData@ATL@@YGXPAU_ATL_WIN_MODULE70@1@PAU_AtlCreateWndData@1@PAX@Z 1000552b f i Belt.obj
 0001:0000457f       ?AtlWinModuleExtractCreateWndData@ATL@@YGPAXPAU_ATL_WIN_MODULE70@1@@Z 1000557f f i Belt.obj
 0001:000045e2       ?AtlWinModuleRegisterClassExW@ATL@@YGGPAU_ATL_WIN_MODULE70@1@PBUtagWNDCLASSEXW@@@Z 100055e2 f i Belt.obj
 0001:00004621       ?CanForceRemoveKey@CRegParser@ATL@@IAEHPB_W@Z 10005621 f i Belt.obj
 0001:00004650       ?ChToByte@CRegParser@ATL@@KAE_W@Z 10005650 f i Belt.obj
 0001:00004683       ?Cleanup@CComTypeInfoHolder@ATL@@SGXK@Z 10005683 f i Belt.obj
 0001:000046b6       ?ClearReplacements@CExpansionVector@ATL@@QAEJXZ 100056b6 f i Belt.obj
 0001:000046f3       ?Close@CRegKey@ATL@@QAEJXZ 100056f3 f i Belt.obj
 0001:0000470d       ?CreateInstance@?$CComCreator@V?$CComAggObject@VCOPOSBelt@@@ATL@@@ATL@@SGJPAXABU_GUID@@PAPAX@Z 1000570d f i Belt.obj
 0001:00004782       ?CreateInstance@?$CComCreator@V?$CComObject@VCOPOSBelt@@@ATL@@@ATL@@SGJPAXABU_GUID@@PAPAX@Z 10005782 f i Belt.obj
 0001:00004802       ?CreateInstance@?$CComObject@V?$CComEnum@UIEnumConnectionPoints@@$1?_GUID_b196b285_bab4_101a_b69c_00aa00341d07@@3U__s_GUID@@BPAUIConnectionPoint@@V?$_CopyInterface@UIConnectionPoint@@@ATL@@VCComSingleThreadModel@6@@ATL@@@ATL@@SGJPAPAV12@@Z 10005802 f i Belt.obj
 0001:0000484c       ?CreateInstance@?$CComObject@V?$CComEnum@UIEnumConnections@@$1?_GUID_b196b287_bab4_101a_b69c_00aa00341d07@@3U__s_GUID@@BUtagCONNECTDATA@@V?$_Copy@UtagCONNECTDATA@@@ATL@@VCComSingleThreadModel@6@@ATL@@@ATL@@SGJPAPAV12@@Z 1000584c f i Belt.obj
 0001:00004896       ?DefaultReflectionHandler@?$CWindowImplRoot@VCWindow@ATL@@@ATL@@SAHPAUHWND__@@IIJAAJ@Z 10005896 f i Belt.obj
 0001:00004909       ?DeleteSubKey@CRegKey@ATL@@QAEJPB_W@Z 10005909 f i Belt.obj
 0001:00004982       ?DoEvent@COPOSBelt@@IAEXIIJ@Z 10005982 f i Belt.obj
 0001:00004a02       ?DoVerbHide@?$IOleObjectImpl@VCOPOSBelt@@@ATL@@QAEJPBUtagRECT@@PAUHWND__@@@Z 10005a02 f i Belt.obj
 0001:00004a38       ?DoVerbInPlaceActivate@?$IOleObjectImpl@VCOPOSBelt@@@ATL@@QAEJPBUtagRECT@@PAUHWND__@@@Z 10005a38 f i Belt.obj
 0001:00004a6b       ?DoVerbPrimary@?$IOleObjectImpl@VCOPOSBelt@@@ATL@@QAEJPBUtagRECT@@PAUHWND__@@@Z 10005a6b f i Belt.obj
 0001:00004af7       ?DoVerbProperties@CComControlBase@ATL@@QAEJPBUtagRECT@@PAUHWND__@@@Z 10005af7 f i Belt.obj
 0001:00004c76       ?DoVerbUIActivate@?$IOleObjectImpl@VCOPOSBelt@@@ATL@@QAEJPBUtagRECT@@PAUHWND__@@@Z 10005c76 f i Belt.obj
 0001:00004cb3       ?DoesVerbActivate@CComControlBase@ATL@@QAEHJ@Z 10005cb3 f i Belt.obj
 0001:00004cd4       ?DoesVerbUIActivate@CComControlBase@ATL@@QAEHJ@Z 10005cd4 f i Belt.obj
 0001:00004d09       ?EndOfVar@CRegParser@ATL@@IAEHXZ 10005d09 f i Belt.obj
 0001:00004d29       ?EscapeSingleQuote@CAtlModule@ATL@@SAXPA_WIPB_W@Z 10005d29 f i Belt.obj
 0001:00004d78       ?FindKey@?$CSimpleMap@PA_WPA_WVCExpansionVectorEqualHelper@ATL@@@ATL@@QBEHABQA_W@Z 10005d78 f i Belt.obj
 0001:00004daf       ?FireTheEvent@?$CProxy_IOPOSEvents@VCOPOSBelt@@@@IAEXPAVOposVariant@@IAAJPB_WJ@Z 10005daf f i Belt.obj
 0001:00004e41       ?FireViewChange@CComControlBase@ATL@@QAEJXZ 10005e41 f i Belt.obj
 0001:00004e8a       ?Fire_DirectIOEvent@?$CProxy_IOPOSEvents@VCOPOSBelt@@@@QAEXJPAJPAPA_W@Z 10005e8a f i Belt.obj
 0001:00004f76       ?Fire_StatusUpdateEvent@?$CProxy_IOPOSEvents@VCOPOSBelt@@@@QAEXJ@Z 10005f76 f i Belt.obj
 0001:0000500c       ?FreeHeap@?$CTempBuffer@E$0BAA@VCCRTAllocator@ATL@@@ATL@@AAEXXZ 1000600c f i Belt.obj
 0001:0000500c       ?FreeHeap@?$CTempBuffer@_W$0BAA@VCCRTAllocator@ATL@@@ATL@@AAEXXZ 1000600c f i Belt.obj
 0001:0000500c       ?FreeHeap@?$CTempBuffer@_W$0EAA@VCCRTAllocator@ATL@@@ATL@@AAEXXZ 1000600c f i Belt.obj
 0001:00005015       ?GetAmbientLocaleID@CComControlBase@ATL@@QAEJAAK@Z 10006015 f i Belt.obj
 0001:00005071       ?GetAmbientUserMode@CComControlBase@ATL@@QAEJAAH@Z 10006071 f i Belt.obj
 0001:000050e1       ?GetAt@CComDynamicUnkArray@ATL@@QAEPAUIUnknown@@H@Z 100060e1 f i Belt.obj
 0001:000050fd       ?GetClassObject@CComModule@ATL@@QAEJABU_GUID@@0PAPAX@Z 100060fd f i Belt.obj
 0001:0000519f       ?GetConnMap@COPOSBelt@@SAPBU_ATL_CONNMAP_ENTRY@ATL@@PAH@Z 1000619f f i Belt.obj
 0001:0000520f       ?GetCookie@CComDynamicUnkArray@ATL@@QAGKPAPAUIUnknown@@@Z 1000620f f i Belt.obj
 0001:00005247       ?GetIDsOfNames@CComTypeInfoHolder@ATL@@QAEJABU_GUID@@PAPA_WIKPAJ@Z 10006247 f i Belt.obj
 0001:0000536e       ?GetKeyAt@?$CSimpleMap@PA_WPA_WVCExpansionVectorEqualHelper@ATL@@@ATL@@QBEAAPA_WH@Z 1000636e f i Belt.obj
 0001:00005393       ?GetPagesHelper@?$ISpecifyPropertyPagesImpl@VCOPOSBelt@@@ATL@@IAEJPAUtagCAUUID@@PBUATL_PROPMAP_ENTRY@2@@Z 10006393 f i Belt.obj
 0001:000054ba       ?GetProperty@?$CComPtr@UIDispatch@@@ATL@@SAJPAUIDispatch@@JPAUtagVARIANT@@@Z 100064ba f i Belt.obj
 0001:00005509       ?GetSizeMax@CComVariant@ATL@@QBEJPAT_ULARGE_INTEGER@@@Z 10006509 f i Belt.obj
 0001:000056cb       ?GetTI@CComTypeInfoHolder@ATL@@QAEJK@Z 100066cb f i Belt.obj
 0001:000058aa       ?GetTI@CComTypeInfoHolder@ATL@@QAEJKPAPAUITypeInfo@@@Z 100068aa f i Belt.obj
 0001:000058ec       ?GetUnknown@CComDynamicUnkArray@ATL@@QAGPAUIUnknown@@K@Z 100068ec f i Belt.obj
 0001:0000590d       ?GetValueAt@?$CSimpleMap@PA_WPA_WVCExpansionVectorEqualHelper@ATL@@@ATL@@QBEAAPA_WH@Z 1000690d f i Belt.obj
 0001:00005933       ?GetZoomInfo@CComControlBase@ATL@@QAEXAAUATL_DRAWINFO@@@Z 10006933 f i Belt.obj
 0001:000059c6       ?HKeyFromString@CRegParser@ATL@@KAPAUHKEY__@@PA_W@Z 100069c6 f i Belt.obj
 0001:000059f4       ?HasSubKeys@CRegParser@ATL@@IAEHPAUHKEY__@@@Z 100069f4 f i Belt.obj
 0001:00005a29       ?IDataObject_GetData@CComControlBase@ATL@@QAEJPAUtagFORMATETC@@PAUtagSTGMEDIUM@@@Z 10006a29 f i Belt.obj
 0001:00005bcf       ?IOleInPlaceObject_InPlaceDeactivate@CComControlBase@ATL@@QAEJXZ 10006bcf f i Belt.obj
 0001:00005c56       ?IOleInPlaceObject_SetObjectRects@CComControlBase@ATL@@QAEJPBUtagRECT@@0@Z 10006c56 f i Belt.obj
 0001:00005d23       ?IOleInPlaceObject_UIDeactivate@CComControlBase@ATL@@QAEJXZ 10006d23 f i Belt.obj
 0001:00005de5       ?IOleObject_Advise@CComControlBase@ATL@@QAEJPAUIAdviseSink@@PAK@Z 10006de5 f i Belt.obj
 0001:00005e0f       ?IOleObject_Close@CComControlBase@ATL@@QAEJK@Z 10006e0f f i Belt.obj
 0001:00005ef3       ?IOleObject_GetClientSite@CComControlBase@ATL@@QAEJPAPAUIOleClientSite@@@Z 10006ef3 f i Belt.obj
 0001:00005f1c       ?IOleObject_SetClientSite@CComControlBase@ATL@@QAEJPAUIOleClientSite@@@Z 10006f1c f i Belt.obj
 0001:00005f5b       ?IOleObject_SetExtent@CComControlBase@ATL@@QAEJKPAUtagSIZE@@@Z 10006f5b f i Belt.obj
 0001:0000600d       ?IPSI_GetIPersistStreamInit@?$IPersistStorageImpl@VCOPOSBelt@@@ATL@@AAEPAUIPersistStreamInit@@XZ 1000700d f i Belt.obj
 0001:000060b5       ?IPersistStreamInit_Load@?$IPersistStreamInitImpl@VCOPOSBelt@@@ATL@@QAEJPAUIStream@@PBUATL_PROPMAP_ENTRY@2@@Z 100070b5 f i Belt.obj
 0001:0000632a       ?IPersistStreamInit_Save@?$IPersistStreamInitImpl@VCOPOSBelt@@@ATL@@QAEJPAUIStream@@HPBUATL_PROPMAP_ENTRY@2@@Z 1000732a f i Belt.obj
 0001:00006518       ?IQuickActivate_QuickActivate@CComControlBase@ATL@@QAEJPAUtagQACONTAINER@@PAUtagQACONTROL@@@Z 10007518 f i Belt.obj
 0001:0000675a       ?IViewObject_Draw@CComControlBase@ATL@@QAEJKJPAXPAUtagDVTARGETDEVICE@@PAUHDC__@@2PBU_RECTL@@3@Z 1000775a f i Belt.obj
 0001:00006802       ?InPlaceActivate@CComControlBase@ATL@@QAEJJPBUtagRECT@@@Z 10007802 f i Belt.obj
 0001:00006a73       ?Init@?$CComEnumImpl@UIEnumConnectionPoints@@$1?_GUID_b196b285_bab4_101a_b69c_00aa00341d07@@3U__s_GUID@@BPAUIConnectionPoint@@V?$_CopyInterface@UIConnectionPoint@@@ATL@@@ATL@@QAEJPAPAUIConnectionPoint@@0PAUIUnknown@@W4CComEnumFlags@2@@Z 10007a73 f i Belt.obj
 0001:00006b52       ?Init@?$CComEnumImpl@UIEnumConnections@@$1?_GUID_b196b287_bab4_101a_b69c_00aa00341d07@@3U__s_GUID@@BUtagCONNECTDATA@@V?$_Copy@UtagCONNECTDATA@@@ATL@@@ATL@@QAEJPAUtagCONNECTDATA@@0PAUIUnknown@@W4CComEnumFlags@2@@Z 10007b52 f i Belt.obj
 0001:00006c31       ?Init@CComModule@ATL@@QAEJPAU_ATL_OBJMAP_ENTRY30@2@PAUHINSTANCE__@@PBU_GUID@@@Z 10007c31 f i Belt.obj
 0001:00006c90       ?Init@CDynamicStdCallThunk2@ATL@@QAEHKPAX@Z 10007c90 f i Belt.obj
 0001:00006cbb       ?InlineIsEqualUnknown@ATL@@YGHABU_GUID@@@Z 10007cbb f i Belt.obj
 0001:00006ce3       ?InternalSetAtIndex@?$CSimpleMap@PA_WPA_WVCExpansionVectorEqualHelper@ATL@@@ATL@@QAEXHABQA_W0@Z 10007ce3 f i Belt.obj
 0001:00006d0d       ?Invoke@CComTypeInfoHolder@ATL@@QAEJPAUIDispatch@@JABU_GUID@@KGPAUtagDISPPARAMS@@PAUtagVARIANT@@PAUtagEXCEPINFO@@PAI@Z 10007d0d f i Belt.obj
 0001:00006d50       ?IsEqualObject@?$CComPtrBase@UITypeInfo@@@ATL@@QAE_NPAUIUnknown@@@Z 10007d50 f i Belt.obj
 0001:00006d50       ?IsEqualObject@?$CComPtrBase@UIOleClientSite@@@ATL@@QAE_NPAUIUnknown@@@Z 10007d50 f i Belt.obj
 0001:00006dbd       ?IsSpace@CRegParser@ATL@@IAEH_W@Z 10007dbd f i Belt.obj
 0001:00006de7       ?LoadNameCache@CComTypeInfoHolder@ATL@@QAEJPAUITypeInfo@@@Z 10007de7 f i Belt.obj
 0001:00006f1c       ?Lookup@?$CSimpleMap@PA_WPA_WVCExpansionVectorEqualHelper@ATL@@@ATL@@QBEPA_WABQA_W@Z 10007f1c f i Belt.obj
 0001:00006f42       ?NextToken@CRegParser@ATL@@IAEJPA_W@Z 10007f42 f i Belt.obj
 0001:0000707a       ?OnKillFocus@CComControlBase@ATL@@QAEJIIJAAH@Z 1000807a f i Belt.obj
 0001:000070d5       ?OnMouseActivate@CComControlBase@ATL@@QAEJIIJAAH@Z 100080d5 f i Belt.obj
 0001:00007143       ?OnPaint@CComControlBase@ATL@@QAEJIIJAAH@Z 10008143 f i Belt.obj
 0001:000071f5       ?OnSetFocus@CComControlBase@ATL@@QAEJIIJAAH@Z 100081f5 f i Belt.obj
 0001:0000727e       ?Open@CRegKey@ATL@@QAEJPAUHKEY__@@PB_WK@Z 1000827e f i Belt.obj
 0001:000072d3       ?PreProcessBuffer@CRegParser@ATL@@QAEJPA_WPAPA_W@Z 100082d3 f i Belt.obj
 0001:00007542       ?ProcessWindowMessage@?$CComControl@VCOPOSBelt@@V?$CWindowImpl@VCOPOSBelt@@VCWindow@ATL@@V?$CWinTraits@$0FGAAAAAA@$0A@@3@@ATL@@@ATL@@UAEHPAUHWND__@@IIJAAJK@Z 10008542 f i Belt.obj
 0001:000075e1       ?ReadFromStream@CComBSTR@ATL@@QAEJPAUIStream@@@Z 100085e1 f i Belt.obj
 0001:00007704       ?ReadFromStream@CComVariant@ATL@@QAEJPAUIStream@@GTClassesAllowedInStream@2@K@Z 10008704 f i Belt.obj
 0001:0000788e       ?RecurseDeleteKey@CRegKey@ATL@@QAEJPB_W@Z 1000888e f i Belt.obj
 0001:0000797c       ?RegCreateKeyExW@CAtlTransactionManager@ATL@@QAEJPAUHKEY__@@PB_WKPA_WKKQAU_SECURITY_ATTRIBUTES@@PAPAU3@PAK@Z 1000897c f i Belt.obj
 0001:000079df       ?RegDeleteKeyW@CAtlTransactionManager@ATL@@QAEJPAUHKEY__@@PB_W@Z 100089df f i Belt.obj
 0001:00007a31       ?RegOpenKeyExW@CAtlTransactionManager@ATL@@QAEJPAUHKEY__@@PB_WKKPAPAU3@@Z 10008a31 f i Belt.obj
 0001:00007a88       ?Register@_ATL_WNDCLASSINFOW@ATL@@QAEGPAP6GJPAUHWND__@@IIJ@Z@Z 10008a88 f i Belt.obj
 0001:00007aa8       ?RegisterBuffer@CRegParser@ATL@@QAEJPA_WH@Z 10008aa8 f i Belt.obj
 0001:00007bef       ?RegisterFromResource@CRegObject@ATL@@IAEJPB_W00H@Z 10008bef f i Belt.obj
 0001:00007d25       ?RegisterServer@?$CAtlModuleT@VCComModule@ATL@@@ATL@@QAEJHPBU_GUID@@@Z 10008d25 f i Belt.obj
 0001:00007d53       ?RegisterServer@CComModule@ATL@@QAEJHPBU_GUID@@@Z 10008d53 f i Belt.obj
 0001:00007dc9       ?RegisterSubkeys@CRegParser@ATL@@IAEJPA_WPAUHKEY__@@HH@Z 10008dc9 f i Belt.obj
 0001:00008476       ?Remove@CComDynamicUnkArray@ATL@@QAEHK@Z 10009476 f i Belt.obj
 0001:0000849f       ?RemoveAll@?$CSimpleMap@PA_WPA_WVCExpansionVectorEqualHelper@ATL@@@ATL@@QAEXXZ 1000949f f i Belt.obj
 0001:000084cb       ?ResourceRegisterSz@CRegObject@ATL@@QAGJPB_W00@Z 100094cb f i Belt.obj
 0001:000084f8       ?ResourceUnregisterSz@CRegObject@ATL@@QAGJPB_W00@Z 100094f8 f i Belt.obj
 0001:00008525       ?SendOnDataChange@CComControlBase@ATL@@QAEJK@Z 10009525 f i Belt.obj
 0001:00008572       ?SetControlFocus@CComControlBase@ATL@@QAEHH@Z 10009572 f i Belt.obj
 0001:0000860f       ?SetMultiStringValue@CRegKey@ATL@@QAEJPB_W0@Z 1000960f f i Belt.obj
 0001:0000866b       ?SetStringValue@CRegKey@ATL@@QAEJPB_W0K@Z 1000966b f i Belt.obj
 0001:000086b4       ?SkipAssignment@CRegParser@ATL@@IAEJPA_W@Z 100096b4 f i Belt.obj
 0001:00008719       ?SkipWhiteSpace@CRegParser@ATL@@IAEXXZ 10009719 f i Belt.obj
 0001:0000873b       ?StrChrW@CRegParser@ATL@@KAPA_WPA_W_W@Z 1000973b f i Belt.obj
 0001:00008778       ?Term@CAtlModule@ATL@@QAEXXZ 10009778 f i Belt.obj
 0001:000087cb       ?Term@CComModule@ATL@@QAEXXZ 100097cb f i Belt.obj
 0001:00008823       ?UnregisterServer@?$CAtlModuleT@VCComModule@ATL@@@ATL@@QAEJHPBU_GUID@@@Z 10009823 f i Belt.obj
 0001:00008849       ?UnregisterServer@CComModule@ATL@@QAEJHPBU_GUID@@@Z 10009849 f i Belt.obj
 0001:000088bf       ?UpdateRegistryFromResource@CAtlModule@ATL@@QAGJIHPAU_ATL_REGMAP_ENTRY@2@@Z 100098bf f i Belt.obj
 0001:00008a8a       ?UpdateRegistryFromResource@CAtlModule@ATL@@QAGJPB_WHPAU_ATL_REGMAP_ENTRY@2@@Z 10009a8a f i Belt.obj
 0001:00008c5b       ?VTFromRegType@CRegParser@ATL@@KAHPB_WAAG@Z 10009c5b f i Belt.obj
 0001:00008cc8       ?WindowProc@?$CWindowImplBaseT@VCWindow@ATL@@V?$CWinTraits@$0FGAAAAAA@$0A@@2@@ATL@@SGJPAUHWND__@@IIJ@Z 10009cc8 f i Belt.obj
 0001:00008dba       ?WriteToStream@CComBSTR@ATL@@QAEJPAUIStream@@@Z 10009dba f i Belt.obj
 0001:00008e1c       ?WriteToStream@CComVariant@ATL@@QAEJPAUIStream@@@Z 10009e1c f i Belt.obj
 0001:00008f96       ?WriteToStream@CComVariant@ATL@@QAEJPAUIStream@@G@Z 10009f96 f i Belt.obj
 0001:00008fff       ?_AtlInitialConstruct@?$CComObjectRootEx@VCComMultiThreadModel@ATL@@@ATL@@QAEJXZ 10009fff f i Belt.obj
 0001:00009014       ?_AtlVerifyStackAvailable@_ATL_SAFE_ALLOCA_IMPL@ATL@@YA_NK@Z 1000a014 f i Belt.obj
 0001:00009092       ?atlCreate@?$CWindowImpl@VCOPOSBelt@@VCWindow@ATL@@V?$CWinTraits@$0FGAAAAAA@$0A@@3@@ATL@@QAEPAUHWND__@@PAU3@V_U_RECT@2@PB_WKKV_U_MENUorID@2@PAX@Z 1000a092 f i Belt.obj
 0001:000090d6       ?atlCreate@?$CWindowImplBaseT@VCWindow@ATL@@V?$CWinTraits@$0FGAAAAAA@$0A@@2@@ATL@@QAEPAUHWND__@@PAU3@V_U_RECT@2@PB_WKKV_U_MENUorID@2@GPAX@Z 1000a0d6 f i Belt.obj
 0001:00009172       ?copy@?$_Copy@UtagCONNECTDATA@@@ATL@@SAJPAUtagCONNECTDATA@@PBU3@@Z 1000a172 f i Belt.obj
 0001:000091a8       ?copy@?$_CopyInterface@UIConnectionPoint@@@ATL@@SAJPAPAUIConnectionPoint@@PBQAU3@@Z 1000a1a8 f i Belt.obj
 0001:000091d6       ?memcpy_s@Checked@ATL@@YAXPAXIPBXI@Z 1000a1d6 f i Belt.obj
 0001:000091f5       ?ocscpy_s@@YA_NPA_WIPB_W@Z 1000a1f5 f i Belt.obj
 0001:0000923f       ?wcscpy_s@Checked@ATL@@YAXPA_WIPB_W@Z 1000a23f f i Belt.obj
 0001:0000925b       _DllCanUnloadNow@0         1000a25b f   Belt.obj
 0001:00009267       _DllGetClassObject@12      1000a267 f   Belt.obj
 0001:00009275       _DllMain@12                1000a275 f   Belt.obj
 0001:000092b7       _DllRegisterServer@0       1000a2b7 f   Belt.obj
 0001:000092c6       _DllUnregisterServer@0     1000a2c6 f   Belt.obj
 0001:000092d5       _InlineIsEqualGUID         1000a2d5 f i Belt.obj
 0001:00009305       ___local_stdio_printf_options 1000a305 f i Belt.obj
 0001:0000930b       __vswprintf_s_l            1000a30b f i Belt.obj
 0001:000093b8       _swprintf_s                1000a3b8 f i Belt.obj
 0001:000093d4       ??0?$CComControl@VCOPOSBelt@@V?$CWindowImpl@VCOPOSBelt@@VCWindow@ATL@@V?$CWinTraits@$0FGAAAAAA@$0A@@3@@ATL@@@ATL@@QAE@XZ 1000a3d4 f i BeltImpl.obj
 0001:000093fb       ??0CComControlBase@ATL@@QAE@AAPAUHWND__@@@Z 1000a3fb f i BeltImpl.obj
 0001:0000944b       ??0COPOSBelt@@QAE@XZ       1000a44b f   BeltImpl.obj
 0001:0000949a       ??1?$CComControl@VCOPOSBelt@@V?$CWindowImpl@VCOPOSBelt@@VCWindow@ATL@@V?$CWinTraits@$0FGAAAAAA@$0A@@3@@ATL@@@ATL@@UAE@XZ 1000a49a f i BeltImpl.obj
 0001:000094b3       ??1?$IConnectionPointImpl@VCOPOSBelt@@$1?DIID__IOPOSBeltEvents@@3U_GUID@@BVCComDynamicUnkArray@ATL@@@ATL@@QAE@XZ 1000a4b3 f i BeltImpl.obj
 0001:000094b3       ??1?$IConnectionPointImpl@VCOPOSBelt@@$1?IID_IPropertyNotifySink@@3U_GUID@@BVCComDynamicUnkArray@ATL@@@ATL@@QAE@XZ 1000a4b3 f i BeltImpl.obj
 0001:000094f0       ??1CComControlBase@ATL@@UAE@XZ 1000a4f0 f i BeltImpl.obj
 0001:00009553       ??1COPOSBelt@@UAE@XZ       1000a553 f   BeltImpl.obj
 0001:0000959b       ?AdjustItemCount@COPOSBelt@@UAGJJJPAJ@Z 1000a59b f   BeltImpl.obj
 0001:0000960f       ?CheckHealth@COPOSBelt@@UAGJJPAJ@Z 1000a60f f   BeltImpl.obj
 0001:0000965e       ?ClaimDevice@COPOSBelt@@UAGJJPAJ@Z 1000a65e f   BeltImpl.obj
 0001:000096d3       ?Close@COPOSBelt@@UAGJPAJ@Z 1000a6d3 f   BeltImpl.obj
 0001:00009741       ?CompareFirmwareVersion@COPOSBelt@@UAGJPA_WPAJ1@Z 1000a741 f   BeltImpl.obj
 0001:000097c1       ?DirectIO@COPOSBelt@@UAGJJPAJPAPA_W0@Z 1000a7c1 f   BeltImpl.obj
 0001:0000986f       ?DoInvoke@COPOSBelt@@IAEJJPAVOposVariant@@IHPAJ_N@Z 1000a86f f   BeltImpl.obj
 0001:0000994b       ?EventClose@COPOSBelt@@IAEXXZ 1000a94b f i BeltImpl.obj
 0001:0000997e       ?EventInit@COPOSBelt@@IAEJXZ 1000a97e f i BeltImpl.obj
 0001:00009a4a       ?EventUninit@COPOSBelt@@IAEXXZ 1000aa4a f i BeltImpl.obj
 0001:00009a9c       ?EventWindowProc@COPOSBelt@@IAGJIIJ@Z 1000aa9c f i BeltImpl.obj
 0001:00009b13       ?FinalConstruct@COPOSBelt@@QAEJXZ 1000ab13 f   BeltImpl.obj
 0001:00009b4c       ?FireEventCleanup@COPOSBelt@@IAEXXZ 1000ab4c f i BeltImpl.obj
 0001:00009b62       ?FireEventSetup@COPOSBelt@@IAE_NXZ 1000ab62 f i BeltImpl.obj
 0001:00009b96       ?FreezeEvents@COPOSBelt@@MAGJH@Z 1000ab96 f   BeltImpl.obj
 0001:00009be7       ?GetOposProp@COPOSBelt@@IAEJJPAFJ@Z 1000abe7 f   BeltImpl.obj
 0001:00009c0a       ?GetOposProp@COPOSBelt@@IAEJJPAJJ@Z 1000ac0a f   BeltImpl.obj
 0001:00009cd9       ?GetOposProp@COPOSBelt@@IAEJJPAPA_WJ@Z 1000acd9 f   BeltImpl.obj
 0001:00009db5       ?MoveBackward@COPOSBelt@@UAGJJPAJ@Z 1000adb5 f   BeltImpl.obj
 0001:00009e04       ?MoveForward@COPOSBelt@@UAGJJPAJ@Z 1000ae04 f   BeltImpl.obj
 0001:00009e53       ?OnDraw@COPOSBelt@@MAEJAAUATL_DRAWINFO@@@Z 1000ae53 f   BeltImpl.obj
 0001:00009ef3       ?Open@COPOSBelt@@UAGJPA_WPAJ@Z 1000aef3 f   BeltImpl.obj
 0001:0000a735       ?ReleaseDevice@COPOSBelt@@UAGJPAJ@Z 1000b735 f   BeltImpl.obj
 0001:0000a784       ?ResetBelt@COPOSBelt@@UAGJPAJ@Z 1000b784 f   BeltImpl.obj
 0001:0000a79f       ?ResetItemCount@COPOSBelt@@UAGJJPAJ@Z 1000b79f f   BeltImpl.obj
 0001:0000a7ee       ?ResetStatistics@COPOSBelt@@UAGJPA_WPAJ@Z 1000b7ee f   BeltImpl.obj
 0001:0000a845       ?RetrieveStatistics@COPOSBelt@@UAGJPAPA_WPAJ@Z 1000b845 f   BeltImpl.obj
 0001:0000a89c       ?SOProcessID@COPOSBelt@@UAGJPAJ@Z 1000b89c f   BeltImpl.obj
 0001:0000a8b0       ?SetCOFreezeEvents@COPOSBelt@@IAEXF@Z 1000b8b0 f   BeltImpl.obj
 0001:0000a950       ?SetOposProp@COPOSBelt@@IAEJJJJ@Z 1000b950 f   BeltImpl.obj
 0001:0000aa47       ?StopBelt@COPOSBelt@@UAGJPAJ@Z 1000ba47 f   BeltImpl.obj
 0001:0000aa62       ?UpdateFirmware@COPOSBelt@@UAGJPA_WPAJ@Z 1000ba62 f   BeltImpl.obj
 0001:0000aab9       ?UpdateStatistics@COPOSBelt@@UAGJPA_WPAJ@Z 1000bab9 f   BeltImpl.obj
 0001:0000ab10       ?get_AutoStopBackward@COPOSBelt@@UAGJPAF@Z 1000bb10 f   BeltImpl.obj
 0001:0000ab29       ?get_AutoStopBackwardDelayTime@COPOSBelt@@UAGJPAJ@Z 1000bb29 f   BeltImpl.obj
 0001:0000ab42       ?get_AutoStopBackwardItemCount@COPOSBelt@@UAGJPAJ@Z 1000bb42 f   BeltImpl.obj
 0001:0000ab5b       ?get_AutoStopForward@COPOSBelt@@UAGJPAF@Z 1000bb5b f   BeltImpl.obj
 0001:0000ab74       ?get_AutoStopForwardDelayTime@COPOSBelt@@UAGJPAJ@Z 1000bb74 f   BeltImpl.obj
 0001:0000ab8d       ?get_AutoStopForwardItemCount@COPOSBelt@@UAGJPAJ@Z 1000bb8d f   BeltImpl.obj
 0001:0000aba6       ?get_BinaryConversion@COPOSBelt@@UAGJPAJ@Z 1000bba6 f   BeltImpl.obj
 0001:0000abbc       ?get_CapAutoStopBackward@COPOSBelt@@UAGJPAF@Z 1000bbbc f   BeltImpl.obj
 0001:0000abd5       ?get_CapAutoStopBackwardItemCount@COPOSBelt@@UAGJPAF@Z 1000bbd5 f   BeltImpl.obj
 0001:0000abee       ?get_CapAutoStopForward@COPOSBelt@@UAGJPAF@Z 1000bbee f   BeltImpl.obj
 0001:0000ac07       ?get_CapAutoStopForwardItemCount@COPOSBelt@@UAGJPAF@Z 1000bc07 f   BeltImpl.obj
 0001:0000ac20       ?get_CapCompareFirmwareVersion@COPOSBelt@@UAGJPAF@Z 1000bc20 f   BeltImpl.obj
 0001:0000ac39       ?get_CapLightBarrierBackward@COPOSBelt@@UAGJPAF@Z 1000bc39 f   BeltImpl.obj
 0001:0000ac52       ?get_CapLightBarrierForward@COPOSBelt@@UAGJPAF@Z 1000bc52 f   BeltImpl.obj
 0001:0000ac6b       ?get_CapMoveBackward@COPOSBelt@@UAGJPAF@Z 1000bc6b f   BeltImpl.obj
 0001:0000ac84       ?get_CapPowerReporting@COPOSBelt@@UAGJPAJ@Z 1000bc84 f   BeltImpl.obj
 0001:0000ac9d       ?get_CapSecurityFlapBackward@COPOSBelt@@UAGJPAF@Z 1000bc9d f   BeltImpl.obj
 0001:0000acb6       ?get_CapSecurityFlapForward@COPOSBelt@@UAGJPAF@Z 1000bcb6 f   BeltImpl.obj
 0001:0000accf       ?get_CapSpeedStepsBackward@COPOSBelt@@UAGJPAJ@Z 1000bccf f   BeltImpl.obj
 0001:0000ace8       ?get_CapSpeedStepsForward@COPOSBelt@@UAGJPAJ@Z 1000bce8 f   BeltImpl.obj
 0001:0000ad01       ?get_CapStatisticsReporting@COPOSBelt@@UAGJPAF@Z 1000bd01 f   BeltImpl.obj
 0001:0000ad1a       ?get_CapUpdateFirmware@COPOSBelt@@UAGJPAF@Z 1000bd1a f   BeltImpl.obj
 0001:0000ad33       ?get_CapUpdateStatistics@COPOSBelt@@UAGJPAF@Z 1000bd33 f   BeltImpl.obj
 0001:0000ad4c       ?get_CheckHealthText@COPOSBelt@@UAGJPAPA_W@Z 1000bd4c f   BeltImpl.obj
 0001:0000ad65       ?get_Claimed@COPOSBelt@@UAGJPAF@Z 1000bd65 f   BeltImpl.obj
 0001:0000ad7b       ?get_ControlObjectDescription@COPOSBelt@@UAGJPAPA_W@Z 1000bd7b f   BeltImpl.obj
 0001:0000adc9       ?get_ControlObjectVersion@COPOSBelt@@UAGJPAJ@Z 1000bdc9 f   BeltImpl.obj
 0001:0000addc       ?get_DeviceDescription@COPOSBelt@@UAGJPAPA_W@Z 1000bddc f   BeltImpl.obj
 0001:0000adf5       ?get_DeviceEnabled@COPOSBelt@@UAGJPAF@Z 1000bdf5 f   BeltImpl.obj
 0001:0000ae0b       ?get_DeviceName@COPOSBelt@@UAGJPAPA_W@Z 1000be0b f   BeltImpl.obj
 0001:0000ae24       ?get_FreezeEvents@COPOSBelt@@UAGJPAF@Z 1000be24 f   BeltImpl.obj
 0001:0000ae3a       ?get_LightBarrierBackwardInterrupted@COPOSBelt@@UAGJPAF@Z 1000be3a f   BeltImpl.obj
 0001:0000ae53       ?get_LightBarrierForwardInterrupted@COPOSBelt@@UAGJPAF@Z 1000be53 f   BeltImpl.obj
 0001:0000ae6c       ?get_MotionStatus@COPOSBelt@@UAGJPAJ@Z 1000be6c f   BeltImpl.obj
 0001:0000ae85       ?get_OpenResult@COPOSBelt@@UAGJPAJ@Z 1000be85 f   BeltImpl.obj
 0001:0000ae9c       ?get_PowerNotify@COPOSBelt@@UAGJPAJ@Z 1000be9c f   BeltImpl.obj
 0001:0000aeb2       ?get_PowerState@COPOSBelt@@UAGJPAJ@Z 1000beb2 f   BeltImpl.obj
 0001:0000aec8       ?get_ResultCode@COPOSBelt@@UAGJPAJ@Z 1000bec8 f   BeltImpl.obj
 0001:0000af06       ?get_ResultCodeExtended@COPOSBelt@@UAGJPAJ@Z 1000bf06 f   BeltImpl.obj
 0001:0000af1c       ?get_SecurityFlapBackwardOpened@COPOSBelt@@UAGJPAF@Z 1000bf1c f   BeltImpl.obj
 0001:0000af35       ?get_SecurityFlapForwardOpened@COPOSBelt@@UAGJPAF@Z 1000bf35 f   BeltImpl.obj
 0001:0000af4e       ?get_ServiceObjectDescription@COPOSBelt@@UAGJPAPA_W@Z 1000bf4e f   BeltImpl.obj
 0001:0000af67       ?get_ServiceObjectVersion@COPOSBelt@@UAGJPAJ@Z 1000bf67 f   BeltImpl.obj
 0001:0000af7d       ?get_State@COPOSBelt@@UAGJPAJ@Z 1000bf7d f   BeltImpl.obj
 0001:0000afa9       ?put_AutoStopBackward@COPOSBelt@@UAGJF@Z 1000bfa9 f   BeltImpl.obj
 0001:0000afc9       ?put_AutoStopBackwardDelayTime@COPOSBelt@@UAGJJ@Z 1000bfc9 f   BeltImpl.obj
 0001:0000afe2       ?put_AutoStopForward@COPOSBelt@@UAGJF@Z 1000bfe2 f   BeltImpl.obj
 0001:0000b002       ?put_AutoStopForwardDelayTime@COPOSBelt@@UAGJJ@Z 1000c002 f   BeltImpl.obj
 0001:0000b01b       ?put_BinaryConversion@COPOSBelt@@UAGJJ@Z 1000c01b f   BeltImpl.obj
 0001:0000b031       ?put_DeviceEnabled@COPOSBelt@@UAGJF@Z 1000c031 f   BeltImpl.obj
 0001:0000b04e       ?put_FreezeEvents@COPOSBelt@@UAGJF@Z 1000c04e f   BeltImpl.obj
 0001:0000b09a       ?put_PowerNotify@COPOSBelt@@UAGJJ@Z 1000c09a f   BeltImpl.obj
 0001:0000b0b0       ?s_EventWindowProc@COPOSBelt@@KGJPAUHWND__@@IIJ@Z 1000c0b0 f i BeltImpl.obj
 0001:0000b102       ??_U@YAPAXI@Z              1000c102 f   LIBCMT:new_array.obj
 0001:0000b10b       ??3@YAXPAXI@Z              1000c10b f   LIBCMT:delete_scalar_size.obj
 0001:0000b119       ??_V@YAXPAX@Z              1000c119 f   LIBCMT:delete_array.obj
 0001:0000b11e       ??_V@YAXPAXI@Z             1000c11e f   LIBCMT:delete_array_size.obj
 0001:0000b170       ___scrt_acquire_startup_lock 1000c170 f   LIBCMT:utility.obj
 0001:0000b1a2       ___scrt_dllmain_after_initialize_c 1000c1a2 f   LIBCMT:utility.obj
 0001:0000b1cd       ___scrt_dllmain_before_initialize_c 1000c1cd f   LIBCMT:utility.obj
 0001:0000b1db       ___scrt_dllmain_crt_thread_attach 1000c1db f   LIBCMT:utility.obj
 0001:0000b1fa       ___scrt_dllmain_crt_thread_detach 1000c1fa f   LIBCMT:utility.obj
 0001:0000b207       ___scrt_dllmain_exception_filter 1000c207 f   LIBCMT:utility.obj
 0001:0000b23b       ___scrt_dllmain_uninitialize_c 1000c23b f   LIBCMT:utility.obj
 0001:0000b25e       ___scrt_dllmain_uninitialize_critical 1000c25e f   LIBCMT:utility.obj
 0001:0000b26b       ___scrt_initialize_crt     1000c26b f   LIBCMT:utility.obj
 0001:0000b2a4       ___scrt_initialize_onexit_tables 1000c2a4 f   LIBCMT:utility.obj
 0001:0000b32b       ___scrt_is_nonwritable_in_current_image 1000c32b f   LIBCMT:utility.obj
 0001:0000b3bf       ___scrt_release_startup_lock 1000c3bf f   LIBCMT:utility.obj
 0001:0000b3dc       ___scrt_uninitialize_crt   1000c3dc f   LIBCMT:utility.obj
 0001:0000b404       __onexit                   1000c404 f   LIBCMT:utility.obj
 0001:0000b431       _atexit                    1000c431 f   LIBCMT:utility.obj
 0001:0000b446       ??3@YAXPAX@Z               1000c446 f   LIBCMT:delete_scalar.obj
 0001:0000b510       __Init_thread_footer       1000c510 f   LIBCMT:thread_safe_statics.obj
 0001:0000b55a       __Init_thread_header       1000c55a f   LIBCMT:thread_safe_statics.obj
 0001:0000b5ac       __Init_thread_notify       1000c5ac f   LIBCMT:thread_safe_statics.obj
 0001:0000b5e2       __Init_thread_wait         1000c5e2 f   LIBCMT:thread_safe_statics.obj
 0001:0000b630       ___raise_securityfailure   1000c630 f   LIBCMT:gs_report.obj
 0001:0000b658       ___report_gsfailure        1000c658 f   LIBCMT:gs_report.obj
 0001:0000b751       ___report_rangecheckfailure 1000c751 f   LIBCMT:gs_report.obj
 0001:0000b75d       ___report_securityfailure  1000c75d f   LIBCMT:gs_report.obj
 0001:0000b82b       ??2@YAPAXIABUnothrow_t@std@@@Z 1000c82b f   LIBCMT:new_scalar_nothrow.obj
 0001:0000b880       ??_U@YAPAXIABUnothrow_t@std@@@Z 1000c880 f   LIBCMT:new_array_nothrow.obj
 0001:0000b889       @__security_check_cookie@4 1000c889 f   LIBCMT:secchk.obj
 0001:0000b8a0       __SEH_prolog4_GS           1000c8a0 f   LIBCMT:sehprolg4gs.obj
 0001:0000b8e7       __SEH_epilog4_GS           1000c8e7 f   LIBCMT:sehprolg4gs.obj
 0001:0000b900       __alloca_probe_16          1000c900 f   LIBCMT:alloca16.obj
 0001:0000b916       __alloca_probe_8           1000c916     LIBCMT:alloca16.obj
 0001:0000b930       __chkstk                   1000c930 f   LIBCMT:chkstk.obj
 0001:0000b930       __alloca_probe             1000c930 f   LIBCMT:chkstk.obj
 0001:0000bc9d       __DllMainCRTStartup@12     1000cc9d f   LIBCMT:dll_dllmain.obj
 0001:0000bcc0       ??2@YAPAXI@Z               1000ccc0 f   LIBCMT:new_scalar.obj
 0001:0000bcf0       ___isa_available_init      1000ccf0 f   LIBCMT:cpu_disp.obj
 0001:0000bec0       ___scrt_is_ucrt_dll_in_use 1000cec0 f   LIBCMT:ucrt_detection.obj
 0001:0000becc       ___scrt_fastfail           1000cecc f   LIBCMT:utility_desktop.obj
 0001:0000bfe6       __crt_debugger_hook        1000cfe6 f   LIBCMT:utility_desktop.obj
 0001:0000bff0       __SEH_prolog4              1000cff0 f   LIBCMT:sehprolg4.obj
 0001:0000c034       __SEH_epilog4              1000d034 f   LIBCMT:sehprolg4.obj
 0001:0000c048       @_guard_check_icall_nop@4  1000d048 f i LIBCMT:guard_support.obj
 0001:0000c098       ___security_init_cookie    1000d098 f   LIBCMT:gs_support.obj
 0001:0000c0e3       ?__scrt_initialize_type_info@@YAXXZ 1000d0e3 f   LIBCMT:tncleanup.obj
 0001:0000c0ef       ?__scrt_uninitialize_type_info@@YAXXZ 1000d0ef f   LIBCMT:tncleanup.obj
 0001:0000c0fb       ___local_stdio_scanf_options 1000d0fb f i LIBCMT:default_local_stdio_options.obj
 0001:0000c101       ___scrt_initialize_default_local_stdio_options 1000d101 f   LIBCMT:default_local_stdio_options.obj
 0001:0000c11e       ___scrt_get_dyn_tls_init_callback 1000d11e f   LIBCMT:dyn_tls_init.obj
 0001:0000c124       __RTC_Initialize           1000d124 f   LIBCMT:initsect.obj
 0001:0000c150       __RTC_Terminate            1000d150 f   LIBCMT:initsect.obj
 0001:0000c17c       ??0bad_alloc@std@@QAE@ABV01@@Z 1000d17c f i LIBCMT:throw_bad_alloc.obj
 0001:0000c197       ??0bad_alloc@std@@QAE@XZ   1000d197 f i LIBCMT:throw_bad_alloc.obj
 0001:0000c1af       ??0bad_array_new_length@std@@QAE@ABV01@@Z 1000d1af f i LIBCMT:throw_bad_alloc.obj
 0001:0000c1ca       ??0bad_array_new_length@std@@QAE@XZ 1000d1ca f i LIBCMT:throw_bad_alloc.obj
 0001:0000c1e2       ??0exception@std@@QAE@ABV01@@Z 1000d1e2 f i LIBCMT:throw_bad_alloc.obj
 0001:0000c20e       ??1bad_alloc@std@@UAE@XZ   1000d20e f i LIBCMT:throw_bad_alloc.obj
 0001:0000c20e       ??1bad_array_new_length@std@@UAE@XZ 1000d20e f i LIBCMT:throw_bad_alloc.obj
 0001:0000c20e       ??1bad_exception@std@@UAE@XZ 1000d20e f i libvcruntime:frame.obj
 0001:0000c21f       ??_Gbad_array_new_length@std@@UAEPAXI@Z 1000d21f f i LIBCMT:throw_bad_alloc.obj
 0001:0000c21f       ??_Eexception@std@@UAEPAXI@Z 1000d21f f i LIBCMT:throw_bad_alloc.obj
 0001:0000c21f       ??_Gexception@std@@UAEPAXI@Z 1000d21f f i LIBCMT:throw_bad_alloc.obj
 0001:0000c21f       ??_Gbad_exception@std@@UAEPAXI@Z 1000d21f f i libvcruntime:frame.obj
 0001:0000c21f       ??_Ebad_array_new_length@std@@UAEPAXI@Z 1000d21f f i LIBCMT:throw_bad_alloc.obj
 0001:0000c21f       ??_Gbad_alloc@std@@UAEPAXI@Z 1000d21f f i LIBCMT:throw_bad_alloc.obj
 0001:0000c21f       ??_Ebad_exception@std@@UAEPAXI@Z 1000d21f f i libvcruntime:frame.obj
 0001:0000c21f       ??_Ebad_alloc@std@@UAEPAXI@Z 1000d21f f i LIBCMT:throw_bad_alloc.obj
 0001:0000c24c       ?__scrt_throw_std_bad_alloc@@YAXXZ 1000d24c f   LIBCMT:throw_bad_alloc.obj
 0001:0000c269       ?__scrt_throw_std_bad_array_new_length@@YAXXZ 1000d269 f   LIBCMT:throw_bad_alloc.obj
 0001:0000c286       ?what@exception@std@@UBEPBDXZ 1000d286 f i LIBCMT:throw_bad_alloc.obj
 0001:0000c293       ??_Etype_info@@UAEPAXI@Z   1000d293 f i LIBCMT:std_type_info_static.obj
 0001:0000c293       ??_Gtype_info@@UAEPAXI@Z   1000d293 f i LIBCMT:std_type_info_static.obj
 0001:0000c2b6       ??0CAtlBaseModule@ATL@@QAE@XZ 1000d2b6 f   atls:atlbase.obj
 0001:0000c309       ??0_ATL_BASE_MODULE70@ATL@@QAE@XZ 1000d309 f i atls:atlbase.obj
 0001:0000c32c       ??1CAtlBaseModule@ATL@@QAE@XZ 1000d32c f   atls:atlbase.obj
 0001:0000c419       ?Init@_stdcallthunk@ATL@@QAEHKPAX@Z 1000d419 f i atls:atlthunk.obj
 0001:0000c44e       ?__AllocStdCallThunk_cmn@@YAPAXXZ 1000d44e f   atls:atlthunk.obj
 0001:0000c514       ?__FreeStdCallThunk_cmn@@YAXPAX@Z 1000d514 f   atls:atlthunk.obj
 0001:0000c5af       _AtlThunk_AllocateData@0   1000d5af f   atls:atlthunk.obj
 0001:0000c614       _AtlThunk_DataToCode@4     1000d614 f   atls:atlthunk.obj
 0001:0000c65b       _AtlThunk_FreeData@4       1000d65b f   atls:atlthunk.obj
 0001:0000c6b1       _AtlThunk_InitData@12      1000d6b1 f   atls:atlthunk.obj
 0001:0000c700       __get_purecall_handler     1000d700 f   libvcruntime:purevirt.obj
 0001:0000c706       __purecall                 1000d706 f   libvcruntime:purevirt.obj
 0001:0000c722       _wcsstr                    1000d722 f   libvcruntime:wcsstr.obj
 0001:0000c9d0       __except_handler4          1000d9d0 f   libvcruntime:chandler4.obj
 0001:0000cb2e       _memcmp                    1000db2e f   libvcruntime:memcmp.obj
 0001:0000da40       _memcpy                    1000ea40 f   libvcruntime:memcpy.obj
 0001:0000dfc0       _memset                    1000efc0 f   libvcruntime:memset.obj
 0001:0000e11a       ___vcrt_initialize         1000f11a f   libvcruntime:initialization.obj
 0001:0000e139       ___vcrt_thread_attach      1000f139 f   libvcruntime:initialization.obj
 0001:0000e144       ___vcrt_thread_detach      1000f144 f   libvcruntime:initialization.obj
 0001:0000e14f       ___vcrt_uninitialize       1000f14f f   libvcruntime:initialization.obj
 0001:0000e166       ___vcrt_uninitialize_critical 1000f166 f   libvcruntime:initialization.obj
 0001:0000e16e       ?GetRangeOfTrysToCheck@__FrameHandler3@@SA?AU?$pair@Viterator@TryBlockMap@__FrameHandler3@@V123@@std@@AAVTryBlockMap@1@HPAXPBU_s_FuncInfo@@H@Z 1000f16e f   libvcruntime:trnsctrl.obj
 0001:0000e1de       ?_CallCatchBlock2@@YAPAXPAUEHRegistrationNode@@PBU_s_FuncInfo@@PAXHK@Z 1000f1de f   libvcruntime:trnsctrl.obj
 0001:0000e23c       ?_CallSETranslator@@YAHPAUEHExceptionRecord@@PAUEHRegistrationNode@@PAX2PBU_s_FuncInfo@@H1@Z 1000f23c f   libvcruntime:trnsctrl.obj
 0001:0000e322       ?_JumpToContinuation@@YGXPAXPAUEHRegistrationNode@@@Z 1000f322 f   libvcruntime:trnsctrl.obj
 0001:0000e352       ?_UnwindNestedFrames@@YGXPAUEHRegistrationNode@@PAUEHExceptionRecord@@@Z 1000f352 f   libvcruntime:trnsctrl.obj
 0001:0000e3a5       __CatchGuardHandler        1000f3a5 f   libvcruntime:trnsctrl.obj
 0001:0000e3d6       __CreateFrameInfo          1000f3d6 f   libvcruntime:trnsctrl.obj
 0001:0000e3fa       __FindAndUnlinkFrame       1000f3fa f   libvcruntime:trnsctrl.obj
 0001:0000e442       __TranslatorGuardHandler   1000f442 f   libvcruntime:trnsctrl.obj
 0001:0000e4df       ___CxxFrameHandler3        1000f4df f   libvcruntime:trnsctrl.obj
 0001:0000e515       ___DestructExceptionObject 1000f515 f   libvcruntime:ehhelpers.obj
 0001:0000e5b6       ?_CallMemberFunction0@@YGXQAX0@Z 1000f5b6 f i libvcruntime:ehhelpers.obj
 0001:0000e61b       __IsExceptionObjectToBeDestroyed 1000f61b f   libvcruntime:ehhelpers.obj
 0001:0000e641       ___AdjustPointer           1000f641 f   libvcruntime:ehhelpers.obj
 0001:0000e666       ___FrameUnwindFilter       1000f666 f   libvcruntime:ehhelpers.obj
 0001:0000e6bc       ___std_type_info_compare   1000f6bc f   libvcruntime:std_type_info.obj
 0001:0000e6f8       ___std_type_info_destroy_list 1000f6f8 f   libvcruntime:std_type_info.obj
 0001:0000e71b       ___std_exception_copy      1000f71b f   libvcruntime:std_exception.obj
 0001:0000e77e       ___std_exception_destroy   1000f77e f   libvcruntime:std_exception.obj
 0001:0000e79d       __CxxThrowException@8      1000f79d f   libvcruntime:throw.obj
 0001:0000e810       _memmove                   1000f810 f   libvcruntime:memmove.obj
 0001:0000ed90       __local_unwind4            1000fd90 f   libvcruntime:exsup4.obj
 0001:0000ee64       __seh_longjmp_unwind4@4    1000fe64 f   libvcruntime:exsup4.obj
 0001:0000ee8c       @_EH4_CallFilterFunc@8     1000fe8c f   libvcruntime:exsup4.obj
 0001:0000eea4       @_EH4_TransferToHandler@8  1000fea4 f   libvcruntime:exsup4.obj
 0001:0000eec0       @_EH4_GlobalUnwind2@8      1000fec0 f   libvcruntime:exsup4.obj
 0001:0000eedc       @_EH4_LocalUnwind@16       1000fedc f   libvcruntime:exsup4.obj
 0001:0000eef3       ___except_validate_context_record 1000fef3 f   libvcruntime:jbcxrval.obj
 0001:0000ef23       ___except_validate_jump_buffer 1000ff23 f   libvcruntime:jbcxrval.obj
 0001:0000ef50       ___vcrt_freefls@4          1000ff50 f   libvcruntime:per_thread_data.obj
 0001:0000ef6c       ___vcrt_freeptd            1000ff6c f   libvcruntime:per_thread_data.obj
 0001:0000efa2       ___vcrt_getptd             1000ffa2 f   libvcruntime:per_thread_data.obj
 0001:0000efb0       ___vcrt_getptd_noexit      1000ffb0 f   libvcruntime:per_thread_data.obj
 0001:0000f042       ___vcrt_initialize_ptd     10010042 f   libvcruntime:per_thread_data.obj
 0001:0000f075       ___vcrt_uninitialize_ptd   10010075 f   libvcruntime:per_thread_data.obj
 0001:0000f090       ___vcrt_initialize_locks   10010090 f   libvcruntime:locks.obj
 0001:0000f0cc       ___vcrt_uninitialize_locks 100100cc f   libvcruntime:locks.obj
 0001:0000f83e       ??$TypeMatchHelper@V__FrameHandler3@@@@YAHPBU_s_HandlerType@@PBU_s_CatchableType@@PBU_s_ThrowInfo@@@Z 1001083e f i libvcruntime:frame.obj
 0001:0000f8cc       ??$__InternalCxxFrameHandler@V__FrameHandler3@@@@YA?AW4_EXCEPTION_DISPOSITION@@PAUEHExceptionRecord@@PAUEHRegistrationNode@@PAU_CONTEXT@@PAXPBU_s_FuncInfo@@H1E@Z 100108cc f i libvcruntime:frame.obj
 0001:0000f9ce       ??0bad_exception@std@@QAE@ABV01@@Z 100109ce f i libvcruntime:frame.obj
 0001:0000f9e9       ??0bad_exception@std@@QAE@XZ 100109e9 f i libvcruntime:frame.obj
 0001:0000fa01       ??8type_info@@QBE_NABV0@@Z 10010a01 f i libvcruntime:frame.obj
 0001:0000fc6d       ?FrameUnwindToEmptyState@__FrameHandler3@@SAXPAUEHRegistrationNode@@PAXPBU_s_FuncInfo@@@Z 10010c6d f   libvcruntime:frame.obj
 0001:0000fc85       ?FrameUnwindToState@__FrameHandler3@@SAXPAUEHRegistrationNode@@PAXPBU_s_FuncInfo@@H@Z 10010c85 f   libvcruntime:frame.obj
 0001:0000fe07       ?_CallMemberFunction1@@YGXQAX00@Z 10010e07 f i libvcruntime:frame.obj
 0001:0000fe17       ?_CallMemberFunction2@@YGXQAX00H@Z 10010e17 f i libvcruntime:frame.obj
 0001:0000fe2a       ?getESTypes@__FrameHandler3@@SAPBU_s_ESTypeList@@PBU_s_FuncInfo@@@Z 10010e2a f i libvcruntime:frame.obj
 0001:0000fe40       __CallSettingFrame@12      10010e40 f   libvcruntime:lowhelpr.obj
 0001:0000fe67       __NLG_Return               10010e67     libvcruntime:lowhelpr.obj
 0001:0000fe90       __global_unwind2           10010e90 f   libvcruntime:exsup.obj
 0001:0000fef6       __local_unwind2            10010ef6 f   libvcruntime:exsup.obj
 0001:0000ff7a       __abnormal_termination     10010f7a f   libvcruntime:exsup.obj
 0001:0000ffa0       __NLG_Notify1              10010fa0 f   libvcruntime:exsup.obj
 0001:0000ffac       __NLG_Notify               10010fac f   libvcruntime:exsup.obj
 0001:0000ffc3       __NLG_Dispatch             10010fc3     libvcruntime:exsup.obj
 0001:0000ffc3       __NLG_Dispatch2            10010fc3     libvcruntime:exsup.obj
 0001:0000ffcb       __NLG_Call                 10010fcb f   libvcruntime:exsup.obj
 0001:0000ffcd       __NLG_Return2              10010fcd     libvcruntime:exsup.obj
 0001:000100b1       ___vcrt_FlsAlloc           100110b1 f   libvcruntime:winapi_downlevel.obj
 0001:000100ec       ___vcrt_FlsFree            100110ec f   libvcruntime:winapi_downlevel.obj
 0001:00010127       ___vcrt_FlsGetValue        10011127 f   libvcruntime:winapi_downlevel.obj
 0001:00010162       ___vcrt_FlsSetValue        10011162 f   libvcruntime:winapi_downlevel.obj
 0001:000101a0       ___vcrt_InitializeCriticalSectionEx 100111a0 f   libvcruntime:winapi_downlevel.obj
 0001:000101e7       _unexpected                100111e7 f   libvcruntime:unexpected.obj
 0001:00010204       ?GetCurrentState@__FrameHandler3@@SAHPAUEHRegistrationNode@@PAXPBU_s_FuncInfo@@@Z 10011204 f   libvcruntime:ehstate.obj
 0001:00010221       ?SetState@__FrameHandler3@@SAXPAUEHRegistrationNode@@PBU_s_FuncInfo@@H@Z 10011221 f   libvcruntime:ehstate.obj
 0001:0001022f       _free                      1001122f f   libucrt:free.obj
 0001:0001024a       ___acrt_call_reportfault   1001124a f   libucrt:invalid_parameter.obj
 0001:00010383       ___acrt_initialize_invalid_parameter_handler 10011383 f   libucrt:invalid_parameter.obj
 0001:00010392       __invalid_parameter        10011392 f   libucrt:invalid_parameter.obj
 0001:000103f6       __invalid_parameter_noinfo 100113f6 f   libucrt:invalid_parameter.obj
 0001:00010406       __invoke_watson            10011406 f   libucrt:invalid_parameter.obj
 0001:0001043a       ___acrt_errno_from_os_error 1001143a f   libucrt:errno.obj
 0001:0001047d       ___acrt_errno_map_os_error 1001147d f   libucrt:errno.obj
 0001:000104a0       ___doserrno                100114a0 f   libucrt:errno.obj
 0001:000104b3       __errno                    100114b3 f   libucrt:errno.obj
 0001:000104c6       _calloc                    100114c6 f   libucrt:calloc.obj
 0001:000104d1       _malloc                    100114d1 f   libucrt:malloc.obj
 0001:000104dc       __recalloc                 100114dc f   libucrt:recalloc.obj
 0001:000104e7       __recalloc_base            100114e7 f   libucrt:recalloc.obj
 0001:00010554       __resetstkoflw             10011554 f   libucrt:resetstk.obj
 0001:00010619       _wcscat_s                  10011619 f   libucrt:wcscat_s.obj
 0001:0001068e       _wcscpy_s                  1001168e f   libucrt:wcscpy_s.obj
 0001:000107bd       _wcsncpy_s                 100117bd f   libucrt:wcsncpy_s.obj
 0001:000109c9       ??$count@D@formatting_buffer@__crt_stdio_output@@QBEIXZ 100119c9 f i libucrt:output.obj
 0001:000109e1       ??$count@_W@formatting_buffer@__crt_stdio_output@@QBEIXZ 100119e1 f i libucrt:output.obj
 0001:000109fa       ??$ensure_buffer_is_big_enough@D@formatting_buffer@__crt_stdio_output@@QAE_NI@Z 100119fa f i libucrt:output.obj
 0001:00010a77       ??$ensure_buffer_is_big_enough@_W@formatting_buffer@__crt_stdio_output@@QAE_NI@Z 10011a77 f i libucrt:output.obj
 0001:00010af5       ??$is_wide_character_specifier@_W@__crt_stdio_output@@YA_N_K_WW4length_modifier@0@@Z 10011af5 f i libucrt:output.obj
 0001:00010b43       ??$scratch_data@D@formatting_buffer@__crt_stdio_output@@QAEPADXZ 10011b43 f i libucrt:output.obj
 0001:00010b61       ??$type_case_integer_parse_into_buffer@I@?$output_processor@_WV?$string_output_adapter@_W@__crt_stdio_output@@V?$format_validation_base@_WV?$string_output_adapter@_W@__crt_stdio_output@@@2@@__crt_stdio_output@@AAEXII_N@Z 10011b61 f i libucrt:output.obj
 0001:00010be8       ??$type_case_integer_parse_into_buffer@_K@?$output_processor@_WV?$string_output_adapter@_W@__crt_stdio_output@@V?$format_validation_base@_WV?$string_output_adapter@_W@__crt_stdio_output@@@2@@__crt_stdio_output@@AAEX_KI_N@Z 10011be8 f i libucrt:output.obj
 0001:00010c8a       ??$write_multiple_characters@V?$string_output_adapter@_W@__crt_stdio_output@@D@__crt_stdio_output@@YAXABV?$string_output_adapter@_W@0@DHQAH@Z 10011c8a f i libucrt:output.obj
 0001:00010cbb       ??0?$common_data@_W@__crt_stdio_output@@IAE@XZ 10011cbb f i libucrt:output.obj
 0001:00010d05       ??0?$output_adapter_data@_WV?$string_output_adapter@_W@__crt_stdio_output@@@__crt_stdio_output@@IAE@ABV?$string_output_adapter@_W@1@_KQB_WQAU__crt_locale_pointers@@QAD@Z 10011d05 f i libucrt:output.obj
 0001:00010d41       ??0_LocaleUpdate@@QAE@QAU__crt_locale_pointers@@@Z 10011d41 f i libucrt:output.obj
 0001:00010dc4       ??1formatting_buffer@__crt_stdio_output@@QAE@XZ 10011dc4 f i libucrt:output.obj
 0001:00010dde       ??4?$__crt_unique_heap_ptr@DU__crt_internal_free_policy@@@@QAEAAV0@$$QAV0@@Z 10011dde f i libucrt:output.obj
 0001:00010e10       ?crop_zeroes@__crt_stdio_output@@YAXPADQAU__crt_locale_pointers@@@Z 10011e10 f i libucrt:output.obj
 0001:00010e91       ?find_next_state@?$output_processor@_WV?$string_output_adapter@_W@__crt_stdio_output@@V?$format_validation_base@_WV?$string_output_adapter@_W@__crt_stdio_output@@@2@@__crt_stdio_output@@ABE?AW4state@2@_WW432@@Z 10011e91 f i libucrt:output.obj
 0001:00010ed0       ?force_decimal_point@__crt_stdio_output@@YAXPADQAU__crt_locale_pointers@@@Z 10011ed0 f i libucrt:output.obj
 0001:00010f35       ?parse_int_from_format_string@?$output_processor@_WV?$string_output_adapter@_W@__crt_stdio_output@@V?$format_validation_base@_WV?$string_output_adapter@_W@__crt_stdio_output@@@2@@__crt_stdio_output@@AAE_NQAH@Z 10011f35 f i libucrt:output.obj
 0001:00010fab       ?process@?$output_processor@_WV?$string_output_adapter@_W@__crt_stdio_output@@V?$format_validation_base@_WV?$string_output_adapter@_W@__crt_stdio_output@@@2@@__crt_stdio_output@@QAEHXZ 10011fab f i libucrt:output.obj
 0001:000110d3       ?state_case_flag@?$output_processor@_WV?$string_output_adapter@_W@__crt_stdio_output@@V?$format_validation_base@_WV?$string_output_adapter@_W@__crt_stdio_output@@@2@@__crt_stdio_output@@AAE_NXZ 100120d3 f i libucrt:output.obj
 0001:00011110       ?state_case_normal@?$output_processor@_WV?$string_output_adapter@_W@__crt_stdio_output@@V?$format_validation_base@_WV?$string_output_adapter@_W@__crt_stdio_output@@@2@@__crt_stdio_output@@AAE_NXZ 10012110 f i libucrt:output.obj
 0001:0001112f       ?state_case_normal_common@?$output_processor@_WV?$string_output_adapter@_W@__crt_stdio_output@@V?$format_validation_base@_WV?$string_output_adapter@_W@__crt_stdio_output@@@2@@__crt_stdio_output@@AAE_NXZ 1001212f f i libucrt:output.obj
 0001:0001114a       ?state_case_precision@?$output_processor@_WV?$string_output_adapter@_W@__crt_stdio_output@@V?$format_validation_base@_WV?$string_output_adapter@_W@__crt_stdio_output@@@2@@__crt_stdio_output@@AAE_NXZ 1001214a f i libucrt:output.obj
 0001:00011171       ?state_case_size@?$output_processor@_WV?$string_output_adapter@_W@__crt_stdio_output@@V?$format_validation_base@_WV?$string_output_adapter@_W@__crt_stdio_output@@@2@@__crt_stdio_output@@AAE_NXZ 10012171 f i libucrt:output.obj
 0001:000112e9       ?state_case_type@?$output_processor@_WV?$string_output_adapter@_W@__crt_stdio_output@@V?$format_validation_base@_WV?$string_output_adapter@_W@__crt_stdio_output@@@2@@__crt_stdio_output@@AAE_NXZ 100122e9 f i libucrt:output.obj
 0001:00011546       ?state_case_width@?$output_processor@_WV?$string_output_adapter@_W@__crt_stdio_output@@V?$format_validation_base@_WV?$string_output_adapter@_W@__crt_stdio_output@@@2@@__crt_stdio_output@@AAE_NXZ 10012546 f i libucrt:output.obj
 0001:00011580       ?to_integer_size@__crt_stdio_output@@YAIW4length_modifier@1@@Z 10012580 f i libucrt:output.obj
 0001:000115dc       ?type_case_Z@?$output_processor@_WV?$string_output_adapter@_W@__crt_stdio_output@@V?$format_validation_base@_WV?$string_output_adapter@_W@__crt_stdio_output@@@2@@__crt_stdio_output@@AAE_NXZ 100125dc f i libucrt:output.obj
 0001:00011636       ?type_case_a@?$output_processor@_WV?$string_output_adapter@_W@__crt_stdio_output@@V?$format_validation_base@_WV?$string_output_adapter@_W@__crt_stdio_output@@@2@@__crt_stdio_output@@AAE_NXZ 10012636 f i libucrt:output.obj
 0001:0001179d       ?type_case_c_tchar@?$output_processor@_WV?$string_output_adapter@_W@__crt_stdio_output@@V?$format_validation_base@_WV?$string_output_adapter@_W@__crt_stdio_output@@@2@@__crt_stdio_output@@AAE_N_W@Z 1001279d f i libucrt:output.obj
 0001:00011833       ?type_case_integer@?$output_processor@_WV?$string_output_adapter@_W@__crt_stdio_output@@V?$format_validation_base@_WV?$string_output_adapter@_W@__crt_stdio_output@@@2@@__crt_stdio_output@@AAE_NI_N@Z 10012833 f i libucrt:output.obj
 0001:00011988       ?type_case_n@?$output_processor@_WV?$string_output_adapter@_W@__crt_stdio_output@@V?$format_validation_base@_WV?$string_output_adapter@_W@__crt_stdio_output@@@2@@__crt_stdio_output@@AAE_NXZ 10012988 f i libucrt:output.obj
 0001:000119fc       ?type_case_o@?$output_processor@_WV?$string_output_adapter@_W@__crt_stdio_output@@V?$format_validation_base@_WV?$string_output_adapter@_W@__crt_stdio_output@@@2@@__crt_stdio_output@@AAE_NXZ 100129fc f i libucrt:output.obj
 0001:00011a1b       ?type_case_p@?$output_processor@_WV?$string_output_adapter@_W@__crt_stdio_output@@V?$format_validation_base@_WV?$string_output_adapter@_W@__crt_stdio_output@@@2@@__crt_stdio_output@@AAE_NXZ 10012a1b f i libucrt:output.obj
 0001:00011a33       ?type_case_s@?$output_processor@_WV?$string_output_adapter@_W@__crt_stdio_output@@V?$format_validation_base@_WV?$string_output_adapter@_W@__crt_stdio_output@@@2@@__crt_stdio_output@@AAE_NXZ 10012a33 f i libucrt:output.obj
 0001:00011aa6       ?type_case_s_compute_narrow_string_length@?$output_processor@_WV?$string_output_adapter@_W@__crt_stdio_output@@V?$format_validation_base@_WV?$string_output_adapter@_W@__crt_stdio_output@@@2@@__crt_stdio_output@@ABEHH_W@Z 10012aa6 f i libucrt:output.obj
 0001:00011aed       ?validate@?$c_string_character_source@_W@__crt_strtox@@QBE_NXZ 10012aed f i libucrt:atox.obj
 0001:00011aed       ?validate@?$string_output_adapter@_W@__crt_stdio_output@@QBE_NXZ 10012aed f i libucrt:output.obj
 0001:00011b08       ?validate_and_update_state_at_end_of_format_string@?$format_validation_base@_WV?$string_output_adapter@_W@__crt_stdio_output@@@__crt_stdio_output@@IBE_NXZ 10012b08 f i libucrt:output.obj
 0001:00011b2a       ?write_character@?$string_output_adapter@_W@__crt_stdio_output@@QBE_N_WQAH@Z 10012b2a f i libucrt:output.obj
 0001:00011b6f       ?write_stored_string_tchar@?$output_processor@_WV?$string_output_adapter@_W@__crt_stdio_output@@V?$format_validation_base@_WV?$string_output_adapter@_W@__crt_stdio_output@@@2@@__crt_stdio_output@@AAE_N_W@Z 10012b6f f i libucrt:output.obj
 0001:00011bfc       ?write_string@?$string_output_adapter@_W@__crt_stdio_output@@QBEXQB_WHQAHAAV__crt_deferred_errno_cache@@@Z 10012bfc f i libucrt:output.obj
 0001:00011c6d       ___acrt_locale_get_ctype_array_value 10012c6d f i libucrt:output.obj
 0001:00011c8f       ___stdio_common_vswprintf_s 10012c8f f   libucrt:output.obj
 0001:00011cb3       __seh_filter_dll           10012cb3 f   libucrt:exception_filter.obj
 0001:00011cd3       __seh_filter_exe           10012cd3 f   libucrt:exception_filter.obj
 0001:000120a1       ___acrt_initialize_thread_local_exit_callback 100130a1 f   libucrt:exit.obj
 0001:000120b0       __cexit                    100130b0 f   libucrt:exit.obj
 0001:000120bf       __exit                     100130bf f   libucrt:exit.obj
 0001:000120d5       __is_c_termination_complete 100130d5 f   libucrt:exit.obj
 0001:00012386       ___acrt_allocate_buffer_for_argv 10013386 f   libucrt:argv_parsing.obj
 0001:000123d5       __configure_narrow_argv    100133d5 f   libucrt:argv_parsing.obj
 0001:00012532       ??$uninitialize@A6AXAAPAPAD@Z@?$dual_state_global@PAPAD@__crt_state_management@@QAEXA6AXAAPAPAD@Z@Z 10013532 f i libucrt:environment_initialization.obj
 0001:00012532       ??$uninitialize@A6AXAAPAPA_W@Z@?$dual_state_global@PAPA_W@__crt_state_management@@QAEXA6AXAAPAPA_W@Z@Z 10013532 f i libucrt:environment_initialization.obj
 0001:00012591       ___dcrt_uninitialize_environments_nolock 10013591 f   libucrt:environment_initialization.obj
 0001:000125c8       __initialize_narrow_environment 100135c8 f   libucrt:environment_initialization.obj
 0001:00012683       ??$__crt_fast_encode_pointer@PAX@@YAPAXQAX@Z 10013683 f i libucrt:initialization.obj
 0001:00012683       ??$__crt_fast_encode_pointer@P6AHXZ@@YAP6AHXZQ6AHXZ@Z 10013683 f i libucrt:onexit.obj
 0001:00012683       ??$__crt_fast_encode_pointer@PAP6AXXZ@@YAPAP6AXXZQAP6AXXZ@Z 10013683 f i libucrt:onexit.obj
 0001:000128a5       __crt_atexit               100138a5 f   libucrt:onexit.obj
 0001:000128bb       __execute_onexit_table     100138bb f   libucrt:onexit.obj
 0001:000128e8       __initialize_onexit_table  100138e8 f   libucrt:onexit.obj
 0001:00012911       __register_onexit_function 10013911 f   libucrt:onexit.obj
 0001:0001296b       ___acrt_uninitialize_command_line 1001396b f   libucrt:argv_data.obj
 0001:00012a42       ___acrt_initialize         10013a42 f   libucrt:initialization.obj
 0001:00012a54       ___acrt_thread_attach      10013a54 f   libucrt:initialization.obj
 0001:00012a5f       ___acrt_thread_detach      10013a5f f   libucrt:initialization.obj
 0001:00012a67       ___acrt_uninitialize       10013a67 f   libucrt:initialization.obj
 0001:00012a97       ___acrt_uninitialize_critical 10013a97 f   libucrt:initialization.obj
 0001:00012aa9       __initterm                 10013aa9 f   libucrt:initterm.obj
 0001:00012aee       __initterm_e               10013aee f   libucrt:initterm.obj
 0001:00012b1c       ___acrt_initialize_new_handler 10013b1c f   libucrt:new_handler.obj
 0001:00012b2b       __callnewh                 10013b2b f   libucrt:new_handler.obj
 0001:00012b58       __query_new_handler        10013b58 f   libucrt:new_handler.obj
 0001:00012bb4       _terminate                 10013bb4 f   libucrt:terminate.obj
 0001:00012bf0       _abort                     10013bf0 f   libucrt:abort.obj
 0001:00012c34       _strcpy_s                  10013c34 f   libucrt:strcpy_s.obj
 0001:00012c8e       ??$is_overflow_condition@K@__crt_strtox@@YA_NIK@Z 10013c8e f i libucrt:atox.obj
 0001:00012cbf       ??$parse_integer@KV?$c_string_character_source@_W@__crt_strtox@@@__crt_strtox@@YAKQAU__crt_locale_pointers@@V?$c_string_character_source@_W@0@H_N@Z 10013cbf f i libucrt:atox.obj
 0001:000132c7       ?unget@?$c_string_character_source@_W@__crt_strtox@@QAEX_W@Z 100142c7 f i libucrt:atox.obj
 0001:00013300       _strncmp                   10014300 f   libucrt:strncmp.obj
 0001:00013378       _wcsncmp                   10014378 f   libucrt:wcsncmp.obj
 0001:000133b2       __free_base                100143b2 f   libucrt:free_base.obj
 0001:0001372a       ___acrt_freeptd            1001472a f   libucrt:per_thread_data.obj
 0001:00013756       ___acrt_getptd             10014756 f   libucrt:per_thread_data.obj
 0001:00013813       ___acrt_getptd_head        10014813 f   libucrt:per_thread_data.obj
 0001:000138ad       ___acrt_getptd_noexit      100148ad f   libucrt:per_thread_data.obj
 0001:00013962       ___acrt_initialize_ptd     10014962 f   libucrt:per_thread_data.obj
 0001:0001398e       ___acrt_uninitialize_ptd   1001498e f   libucrt:per_thread_data.obj
 0001:000139a8       __calloc_base              100149a8 f   libucrt:calloc_base.obj
 0001:00013a05       __malloc_base              10014a05 f   libucrt:malloc_base.obj
 0001:00013a53       __msize_base               10014a53 f   libucrt:msize.obj
 0001:00013a86       __realloc_base             10014a86 f   libucrt:realloc_base.obj
 0001:00013c87       ___acrt_AppPolicyGetProcessTerminationMethodInternal@4 10014c87 f   libucrt:winapi_thunks.obj
 0001:00013cc7       ___acrt_AreFileApisANSI@0  10014cc7 f   libucrt:winapi_thunks.obj
 0001:00013ce6       ___acrt_FlsAlloc@4         10014ce6 f   libucrt:winapi_thunks.obj
 0001:00013d25       ___acrt_FlsFree@4          10014d25 f   libucrt:winapi_thunks.obj
 0001:00013d64       ___acrt_FlsGetValue@4      10014d64 f   libucrt:winapi_thunks.obj
 0001:00013da3       ___acrt_FlsSetValue@8      10014da3 f   libucrt:winapi_thunks.obj
 0001:00013de5       ___acrt_InitializeCriticalSectionEx@12 10014de5 f   libucrt:winapi_thunks.obj
 0001:00013e30       ___acrt_LCMapStringEx@36   10014e30 f   libucrt:winapi_thunks.obj
 0001:00013e8d       ___acrt_LocaleNameToLCID@8 10014e8d f   libucrt:winapi_thunks.obj
 0001:00013ebe       ___acrt_SetThreadStackGuarantee@4 10014ebe f   libucrt:winapi_thunks.obj
 0001:00013ef9       ___acrt_initialize_winapi_thunks 10014ef9 f   libucrt:winapi_thunks.obj
 0001:00013f24       ___acrt_uninitialize_winapi_thunks 10014f24 f   libucrt:winapi_thunks.obj
 0001:00013f5a       ??$make_c_string_character_source@_WPAPA_W@__crt_strtox@@YA?AV?$c_string_character_source@_W@0@QB_WQAPA_W@Z 10014f5a f i libucrt:strtox.obj
 0001:00013f75       _wcstol                    10014f75 f   libucrt:strtox.obj
 0001:00013f9f       __mbtowc_l                 10014f9f f   libucrt:mbtowc.obj
 0001:000140e1       _mbtowc                    100150e1 f   libucrt:mbtowc.obj
 0001:000140fb       _wcsnlen                   100150fb f   libucrt:strnlen.obj
 0001:000142ab       ___acrt_update_locale_info 100152ab f   libucrt:locale_update.obj
 0001:000142d8       ___acrt_update_multibyte_info 100152d8 f   libucrt:locale_update.obj
 0001:00014305       ?__acrt_fp_classify@@YA?AW4__acrt_fp_class@@ABN@Z 10015305 f i libucrt:cvt.obj
 0001:00014cb7       ___acrt_fp_format          10015cb7 f   libucrt:cvt.obj
 0001:00014e15       __fileno                   10015e15 f   libucrt:fileno.obj
 0001:00014e3c       ___acrt_initialize_stdio   10015e3c f   libucrt:_file.obj
 0001:00014f04       ___acrt_uninitialize_stdio 10015f04 f   libucrt:_file.obj
 0001:00014f50       __lock_file                10015f50 f   libucrt:_file.obj
 0001:00014f64       __unlock_file              10015f64 f   libucrt:_file.obj
 0001:00014f78       __get_printf_count_output  10015f78 f   libucrt:printf_count_output.obj
 0001:00014ffb       ___acrt_set_locale_changed 10015ffb f   libucrt:wsetlocale.obj
 0001:00015006       ___acrt_uninitialize_locale 10016006 f   libucrt:wsetlocale.obj
 0001:00015197       ___acrt_initialize_lowio   10016197 f   libucrt:ioinit.obj
 0001:000151f7       ___acrt_uninitialize_lowio 100161f7 f   libucrt:ioinit.obj
 0001:00015223       ___acrt_initialize_locks   10016223 f   libucrt:locks.obj
 0001:00015264       ___acrt_lock               10016264 f   libucrt:locks.obj
 0001:0001527b       ___acrt_uninitialize_locks 1001627b f   libucrt:locks.obj
 0001:000152ac       ___acrt_unlock             100162ac f   libucrt:locks.obj
 0001:000152c3       ___acrt_get_process_end_policy 100162c3 f   libucrt:win_policies.obj
 0001:0001548d       ??$__acrt_mbs_to_wcs_cp@U__crt_win32_buffer_internal_dynamic_resizing@@@@YAHQBDAAV?$__crt_win32_buffer@_WU__crt_win32_buffer_internal_dynamic_resizing@@@@I@Z 1001648d f i libucrt:argv_wildcards.obj
 0001:000159a1       ?__acrt_get_utf8_acp_compatibility_codepage@@YAIXZ 100169a1 f i libucrt:argv_wildcards.obj
 0001:000159e0       ?_deallocate@?$__crt_win32_buffer@_WU__crt_win32_buffer_internal_dynamic_resizing@@@@AAEXXZ 100169e0 f i libucrt:argv_wildcards.obj
 0001:000159e0       ?_deallocate@?$__crt_win32_buffer@DU__crt_win32_buffer_internal_dynamic_resizing@@@@AAEXXZ 100169e0 f i libucrt:argv_wildcards.obj
 0001:000159fa       ?allocate@?$__crt_win32_buffer@DU__crt_win32_buffer_internal_dynamic_resizing@@@@QAEHI@Z 100169fa f i libucrt:argv_wildcards.obj
 0001:00015a36       ?allocate@?$__crt_win32_buffer@_WU__crt_win32_buffer_internal_dynamic_resizing@@@@QAEHI@Z 10016a36 f i libucrt:argv_wildcards.obj
 0001:00015a75       ?allocate@__crt_win32_buffer_internal_dynamic_resizing@@SAHQAPAXIABV__crt_win32_buffer_empty_debug_info@@@Z 10016a75 f i libucrt:argv_wildcards.obj
 0001:00015b1b       ___acrt_expand_narrow_argv_wildcards 10016b1b f   libucrt:argv_wildcards.obj
 0001:00015bed       ?allocate@?$__crt_win32_buffer@DU__crt_win32_buffer_no_resizing@@@@QAEHI@Z 10016bed f i libucrt:getmodulefilenamea.obj
 0001:00015c14       ?set_to_nullptr@?$__crt_win32_buffer@DU__crt_win32_buffer_no_resizing@@@@QAEXXZ 10016c14 f i libucrt:getmodulefilenamea.obj
 0001:00015c28       ___acrt_GetModuleFileNameA 10016c28 f   libucrt:getmodulefilenamea.obj
 0001:000161e1       ___acrt_initialize_multibyte 100171e1 f   libucrt:mbctype.obj
 0001:00016229       ___acrt_update_thread_multibyte_data 10017229 f   libucrt:mbctype.obj
 0001:0001623c       __setmbcp_nolock           1001723c f   libucrt:mbctype.obj
 0001:00016507       __ismbblead                10017507 f   libucrt:ismbbyte.obj
 0001:0001651f       ___acrt_initialize_command_line 1001751f f   libucrt:argv_data.obj
 0001:00016538       ___acrt_MultiByteToWideChar 10017538 f   libucrt:multibytetowidechar.obj
 0001:000165b4       ___acrt_WideCharToMultiByte 100175b4 f   libucrt:widechartomultibyte.obj
 0001:000166a2       ___dcrt_get_narrow_environment_from_os 100176a2 f   libucrt:get_environment_from_os.obj
 0001:00016726       ___acrt_initialize_heap    10017726 f   libucrt:heap_handle.obj
 0001:00016737       ___acrt_uninitialize_heap  10017737 f   libucrt:heap_handle.obj
 0001:00016741       ___acrt_execute_initializers 10017741 f   libucrt:shared_initialization.obj
 0001:000167a9       ___acrt_execute_uninitializers 100177a9 f   libucrt:shared_initialization.obj
 0001:000168a8       ___acrt_get_sigabrt_handler 100178a8 f   libucrt:signal.obj
 0001:000168cf       ___acrt_initialize_signal_handlers 100178cf f   libucrt:signal.obj
 0001:000168ed       _raise                     100178ed f   libucrt:signal.obj
 0001:00016ae0       ___acrt_has_user_matherr   10017ae0 f   libucrt:matherr.obj
 0001:00016af8       ___acrt_initialize_user_matherr 10017af8 f   libucrt:matherr.obj
 0001:00016b07       ___acrt_invoke_user_matherr 10017b07 f   libucrt:matherr.obj
 0001:00016d16       ___acrt_stdio_flush_nolock 10017d16 f   libucrt:fflush.obj
 0001:00016d7b       __fflush_nolock            10017d7b f   libucrt:fflush.obj
 0001:00016dc3       __flushall                 10017dc3 f   libucrt:fflush.obj
 0001:00016dcc       ___pctype_func             10017dcc f   libucrt:ctype.obj
 0001:00016df0       _iswctype                  10017df0 f   libucrt:iswctype.obj
 0001:00016e59       ___acrt_add_locale_ref     10017e59 f   libucrt:locale_refcounting.obj
 0001:00016ed6       ___acrt_free_locale        10017ed6 f   libucrt:locale_refcounting.obj
 0001:0001701e       ___acrt_locale_add_lc_time_reference 1001801e f   libucrt:locale_refcounting.obj
 0001:00017047       ___acrt_locale_free_lc_time_if_unreferenced 10018047 f   libucrt:locale_refcounting.obj
 0001:00017078       ___acrt_locale_release_lc_time_reference 10018078 f   libucrt:locale_refcounting.obj
 0001:000170a1       ___acrt_release_locale_ref 100180a1 f   libucrt:locale_refcounting.obj
 0001:00017122       ___acrt_update_thread_locale_data 10018122 f   libucrt:locale_refcounting.obj
 0001:000171a3       __updatetlocinfoEx_nolock  100181a3 f   libucrt:locale_refcounting.obj
 0001:000171f3       __query_new_mode           100181f3 f   libucrt:new_mode.obj
 0001:0001724a       ___acrt_DownlevelLocaleNameToLCID 1001824a f   libucrt:lcidtoname_downlevel.obj
 0001:00017276       __isleadbyte_l             10018276 f i libucrt:_wctype.obj
 0001:000172dc       ?__mbrtowc_utf8@__crt_mbstring@@YAIPA_WPBDIPAU_Mbstatet@@@Z 100182dc f   libucrt:mbrtowc.obj
 0001:0001731c       ?__mbsrtowcs_utf8@__crt_mbstring@@YAIPA_WPAPBDIPAU_Mbstatet@@@Z 1001831c f   libucrt:mbrtowc.obj
 0001:00017417       ?return_illegal_sequence@__crt_mbstring@@YAIPAU_Mbstatet@@@Z 10018417 f i libucrt:c32rtomb.obj
 0001:000174a1       ___acrt_fp_strflt_to_string 100184a1 f   libucrt:_fptostr.obj
 0001:00017580       ?divide@__crt_strtox@@YA_KAAUbig_integer@1@ABU21@@Z 10018580 f i libucrt:cfout.obj
 0001:00017a18       ___acrt_fltout             10018a18 f   libucrt:cfout.obj
 0001:00018f1f       _fegetround                10019f1f f   libucrt:fegetround.obj
 0001:00018f2c       __fcloseall                10019f2c f   libucrt:closeall.obj
 0001:00018fd7       ___acrt_stdio_free_buffer_nolock 10019fd7 f   libucrt:_freebuf.obj
 0001:00019017       __isatty                   1001a017 f   libucrt:isatty.obj
 0001:0001906d       ___acrt_locale_free_monetary 1001a06d f   libucrt:initmon.obj
 0001:0001916b       ___acrt_locale_free_numeric 1001a16b f   libucrt:initnum.obj
 0001:0001920c       ___acrt_locale_free_time   1001a20c f   libucrt:inittime.obj
 0001:000192f0       ___acrt_GetStringTypeA     1001a2f0 f   libucrt:getstringtypea.obj
 0001:000193f3       __freea_crt                1001a3f3 f i libucrt:getstringtypea.obj
 0001:00019413       ___acrt_lowio_create_handle_array 1001a413 f   libucrt:osfinfo.obj
 0001:0001948e       ___acrt_lowio_destroy_handle_array 1001a48e f   libucrt:osfinfo.obj
 0001:000194c3       ___acrt_lowio_ensure_fh_exists 1001a4c3 f   libucrt:osfinfo.obj
 0001:00019561       ___acrt_lowio_lock_fh      1001a561 f   libucrt:osfinfo.obj
 0001:00019584       ___acrt_lowio_unlock_fh    1001a584 f   libucrt:osfinfo.obj
 0001:000195a7       __free_osfhnd              1001a5a7 f   libucrt:osfinfo.obj
 0001:00019638       __get_osfhandle            1001a638 f   libucrt:osfinfo.obj
 0001:000196b0       _qsort                     1001a6b0 f   libucrt:qsort.obj
 0001:00019c51       _strncpy_s                 1001ac51 f   libucrt:strncpy_s.obj
 0001:00019c60       _strpbrk                   1001ac60 f   libucrt:strpbrk.obj
 0001:00019ca0       __mbsdec                   1001aca0 f   libucrt:mbsdec.obj
 0001:00019cb7       __mbsdec_l                 1001acb7 f   libucrt:mbsdec.obj
 0001:00019f2e       ___acrt_LCMapStringA       1001af2e f   libucrt:lcmapstringa.obj
 0001:0001a028       __commit                   1001b028 f   libucrt:commit.obj
 0001:0001a820       __write                    1001b820 f   libucrt:write.obj
 0001:0001a912       __write_nolock             1001b912 f   libucrt:write.obj
 0001:0001aaec       ___acrt_GetStringTypeW     1001baec f   libucrt:getstringtypew.obj
 0001:0001ab05       ___ascii_wcsnicmp          1001bb05 f   libucrt:wcsnicmp.obj
 0001:0001ab54       ?__mbrtoc32_utf8@__crt_mbstring@@YAIPA_UPBDIPAU_Mbstatet@@@Z 1001bb54 f   libucrt:mbrtoc32.obj
 0001:0001acfb       __controlfp_s              1001bcfb f   libucrt:contrlfp.obj
 0001:0001ad5a       _fegetenv                  1001bd5a f   libucrt:fegetenv.obj
 0001:0001ad77       _fesetenv                  1001bd77 f   libucrt:fesetenv.obj
 0001:0001adc2       _feholdexcept              1001bdc2 f   libucrt:feholdexcept.obj
 0001:0001ae10       __CIlog10                  1001be10 f   libucrt:log10_impl.obj
 0001:0001ae4b       __CIlog10_default          1001be4b f   libucrt:log10_impl.obj
 0001:0001ae5f       __log10_default            1001be5f     libucrt:log10_impl.obj
 0001:0001af20       _ceil                      1001bf20 f   libucrt:ceil_pentium4.obj
 0001:0001af60       __ceil_pentium4            1001bf60 f   libucrt:ceil_pentium4.obj
 0001:0001b35a       ___acrt_fenv_get_common_round_control 1001c35a f   libucrt:_fenvutils.obj
 0001:0001b37c       ___acrt_fenv_get_control   1001c37c f   libucrt:_fenvutils.obj
 0001:0001b3fc       ___acrt_fenv_get_status    1001c3fc f   libucrt:_fenvutils.obj
 0001:0001b4b4       ___acrt_fenv_set_control   1001c4b4 f   libucrt:_fenvutils.obj
 0001:0001b51c       ___acrt_fenv_set_status    1001c51c f   libucrt:_fenvutils.obj
 0001:0001b68f       __lseeki64_nolock          1001c68f f   libucrt:lseek.obj
 0001:0001b6aa       __fclose_nolock            1001c6aa f   libucrt:fclose.obj
 0001:0001b721       _fclose                    1001c721 f   libucrt:fclose.obj
 0001:0001b7a5       __query_app_type           1001c7a5 f   libucrt:report_runtime_error.obj
 0001:0001b7ab       ___strncnt                 1001c7ab f   libucrt:strncnt.obj
 0001:0001b7c7       __putwch_nolock            1001c7c7 f   libucrt:putwch.obj
 0001:0001b8a0       __clearfp                  1001c8a0 f   libucrt:ieee87.obj
 0001:0001b97e       __control87                1001c97e f   libucrt:ieee87.obj
 0001:0001bd1d       ___acrt_initialize_sse2    1001cd1d f   libucrt:mathfcns.obj
 0001:0001bd30       __CIlog10_pentium4         1001cd30 f   libucrt:log10_pentium4.obj
 0001:0001bd48       __log10_pentium4           1001cd48     libucrt:log10_pentium4.obj
 0001:0001bfe0       __fFEXP                    1001cfe0 f   libucrt:87tran.obj
 0001:0001c037       __rtinfpopse               1001d037     libucrt:87tran.obj
 0001:0001c039       __rtinfnpopse              1001d039     libucrt:87tran.obj
 0001:0001c049       __fFLN                     1001d049     libucrt:87tran.obj
 0001:0001c0fe       __rtinfpop                 1001d0fe     libucrt:87tran.obj
 0001:0001c100       __rtinfnpop                1001d100     libucrt:87tran.obj
 0001:0001c110       __rtforexpinf              1001d110 f   libucrt:87tran.obj
 0001:0001c11d       __ffexpm1                  1001d11d     libucrt:87tran.obj
 0001:0001c1d0       __trandisp1                1001d1d0 f   libucrt:87disp.obj
 0001:0001c245       __trandisp2                1001d245 f   libucrt:87disp.obj
 0001:0001c2df       __rttospopde               1001d2df     libucrt:87disp.obj
 0001:0001c2e4       __rttospop                 1001d2e4     libucrt:87disp.obj
 0001:0001c2f0       __rtnospop                 1001d2f0 f   libucrt:87disp.obj
 0001:0001c300       __rttosnpop                1001d300 f   libucrt:87disp.obj
 0001:0001c301       __rtnospopde               1001d301     libucrt:87disp.obj
 0001:0001c308       __rtzeropop                1001d308     libucrt:87disp.obj
 0001:0001c30a       __rtzeronpop               1001d30a     libucrt:87disp.obj
 0001:0001c310       __rtzerospop               1001d310 f   libucrt:87disp.obj
 0001:0001c31d       __rtonepop                 1001d31d     libucrt:87disp.obj
 0001:0001c320       __rtonenpop                1001d320 f   libucrt:87disp.obj
 0001:0001c330       __tosnan1                  1001d330 f   libucrt:87disp.obj
 0001:0001c360       __nosnan2                  1001d360 f   libucrt:87disp.obj
 0001:0001c370       __tosnan2                  1001d370 f   libucrt:87disp.obj
 0001:0001c3a0       __nan2                     1001d3a0 f   libucrt:87disp.obj
 0001:0001c3e0       __rtindfpop                1001d3e0 f   libucrt:87disp.obj
 0001:0001c3e2       __rtindfnpop               1001d3e2     libucrt:87disp.obj
 0001:0001c3f3       __rttosnpopde              1001d3f3     libucrt:87disp.obj
 0001:0001c400       __rtatan2inf               1001d400 f   libucrt:87disp.obj
 0001:0001c41d       __rtchsifneg               1001d41d     libucrt:87disp.obj
 0001:0001c430       __twoToTOS                 1001d430 f   libucrt:common.obj
 0001:0001c445       __load_CW                  1001d445 f   libucrt:common.obj
 0001:0001c45c       __convertTOStoQNaN         1001d45c f   libucrt:common.obj
 0001:0001c475       __fload_withFB             1001d475 f   libucrt:common.obj
 0001:0001c4b8       __checkTOS_withFB          1001d4b8 f   libucrt:common.obj
 0001:0001c4ce       __fast_exit                1001d4ce f   libucrt:common.obj
 0001:0001c4db       __math_exit                1001d4db f   libucrt:common.obj
 0001:0001c505       __check_overflow_exit      1001d505 f   libucrt:common.obj
 0001:0001c519       __check_range_exit         1001d519 f   libucrt:common.obj
 0001:0001c5c0       __startTwoArgErrorHandling 1001d5c0 f   libucrt:genexcep.obj
 0001:0001c5d7       __startOneArgErrorHandling 1001d5d7 f   libucrt:genexcep.obj
 0001:0001c613       ___libm_error_support      1001d613 f   libucrt:libm_error.obj
 0001:0001c807       __ceil_default             1001d807 f   libucrt:ceil.obj
 0001:0001c948       __close                    1001d948 f   libucrt:close.obj
 0001:0001c9d5       __close_nolock             1001d9d5 f   libucrt:close.obj
 0001:0001ca71       ?__acrt_stdio_free_stream@@YAXV__crt_stdio_stream@@@Z 1001da71 f   libucrt:stream.obj
 0001:0001cab0       ___ascii_strnicmp          1001dab0 f   libucrt:_strnicm.obj
 0001:0001cb30       ___dcrt_lowio_ensure_console_output_initialized 1001db30 f   libucrt:initcon.obj
 0001:0001cb4f       ___dcrt_terminate_console_output 1001db4f f   libucrt:initcon.obj
 0001:0001cb66       ___dcrt_write_console      1001db66 f   libucrt:initcon.obj
 0001:0001cbbb       ___set_fpsr_sse2           1001dbbb f   libucrt:fpctrl.obj
 0001:0001cc3b       __clrfp                    1001dc3b f   libucrt:fpctrl.obj
 0001:0001cc4c       __ctrlfp                   1001dc4c f   libucrt:fpctrl.obj
 0001:0001cc76       __set_statfp               1001dc76 f   libucrt:fpctrl.obj
 0001:0001cccf       __statfp                   1001dccf f   libucrt:fpctrl.obj
 0001:0001ccdf       __d_inttype                1001dcdf f   libucrt:powhlp.obj
 0001:0001cd47       __powhlp                   1001dd47 f   libucrt:powhlp.obj
 0001:0001ce72       __87except                 1001de72 f   libucrt:87except.obj
 0001:0001cf7c       __frnd                     1001df7c f   libucrt:frnd.obj
 0001:0001cf90       __errcode                  1001df90 f   libucrt:fpexcept.obj
 0001:0001cfc4       __except1                  1001dfc4 f   libucrt:fpexcept.obj
 0001:0001d092       __handle_exc               1001e092 f   libucrt:fpexcept.obj
 0001:0001d27d       __raise_exc                1001e27d f   libucrt:fpexcept.obj
 0001:0001d2a0       __raise_exc_ex             1001e2a0 f   libucrt:fpexcept.obj
 0001:0001d596       __set_errno_from_matherr   1001e596 f   libucrt:fpexcept.obj
 0001:0001d5c5       __umatherr                 1001e5c5 f   libucrt:fpexcept.obj
 0001:0001d665       __decomp                   1001e665 f   libucrt:util.obj
 0001:0001d737       __set_exp                  1001e737 f   libucrt:util.obj
 0001:0001d764       __sptype                   1001e764 f   libucrt:util.obj
 0001:0001d7c2       __fpclass                  1001e7c2 f   libucrt:ieeemisc.obj
 0001:0001d866       _IsProcessorFeaturePresent@4 1001e866 f   kernel32:KERNEL32.dll
 0001:0001d870       __FindPESection            1001e870 f   LIBCMT:pesect.obj
 0001:0001d8c0       __IsNonwritableInCurrentImage 1001e8c0 f   LIBCMT:pesect.obj
 0001:0001d980       __ValidateImageBase        1001e980 f   LIBCMT:pesect.obj
 0001:0001d9b3       __EH_prolog3_catch         1001e9b3 f   LIBCMT:ehprolg3.obj
 0001:0001d9f0       __aulldvrm                 1001e9f0 f   LIBCMT:ulldvrm.obj
 0001:0001da90       __allmul                   1001ea90 f   LIBCMT:llmul.obj
 0001:0001dad0       __alldvrm                  1001ead0 f   LIBCMT:lldvrm.obj
 0001:0001dbb0       __allshl                   1001ebb0 f   LIBCMT:llshl.obj
 0001:0001dbd0       __aullshr                  1001ebd0 f   LIBCMT:ullshr.obj
 0001:0001dbf0       __ftol2_sse                1001ebf0     LIBCMT:ftol2.obj
 0001:0001dbf0       __ftol2_sse_excpt          1001ebf0     LIBCMT:ftol2.obj
 0001:0001dbf0       __ftoi2                    1001ebf0 f   LIBCMT:ftol2.obj
 0001:0001dc70       __ftoui2                   1001ec70 f   LIBCMT:ftol2.obj
 0001:0001dd20       __ftol2                    1001ed20 f   LIBCMT:ftol2.obj
 0001:0001ddd0       __ftoul2                   1001edd0 f   LIBCMT:ftol2.obj
 0001:0001de90       _strrchr                   1001ee90 f   libvcruntime:strrchr.obj
 0001:0001dfd0       _strchr                    1001efd0 f   libvcruntime:strchr.obj
 0001:0001e03e       ___from_strstr_to_strchr   1001f03e     libvcruntime:strchr.obj
 0001:0001e0fb       __filter_x86_sse2_floating_point_exception_default 1001f0fb f   LIBCMT:x86_exception_filter.obj
 0001:0001e0fb       __filter_x86_sse2_floating_point_exception 1001f0fb f   LIBCMT:x86_exception_filter.obj
 0002:00000000       __imp__RegQueryValueExW@24 10020000     advapi32:ADVAPI32.dll
 0002:00000004       __imp__RegSetValueExW@24   10020004     advapi32:ADVAPI32.dll
 0002:00000008       __imp__RegQueryInfoKeyW@48 10020008     advapi32:ADVAPI32.dll
 0002:0000000c       __imp__RegOpenKeyExW@20    1002000c     advapi32:ADVAPI32.dll
 0002:00000010       __imp__RegEnumKeyExW@32    10020010     advapi32:ADVAPI32.dll
 0002:00000014       __imp__RegDeleteValueW@8   10020014     advapi32:ADVAPI32.dll
 0002:00000018       __imp__RegDeleteKeyW@8     10020018     advapi32:ADVAPI32.dll
 0002:0000001c       __imp__RegCreateKeyExW@36  1002001c     advapi32:ADVAPI32.dll
 0002:00000020       __imp__RegCloseKey@4       10020020     advapi32:ADVAPI32.dll
 0002:00000024       \177ADVAPI32_NULL_THUNK_DATA 10020024     advapi32:ADVAPI32.dll
 0002:00000028       __imp__GetObjectW@12       10020028     gdi32:GDI32.dll
 0002:0000002c       __imp__SelectObject@8      1002002c     gdi32:GDI32.dll
 0002:00000030       __imp__DeleteObject@4      10020030     gdi32:GDI32.dll
 0002:00000034       __imp__CreateCompatibleDC@4 10020034     gdi32:GDI32.dll
 0002:00000038       __imp__BitBlt@36           10020038     gdi32:GDI32.dll
 0002:0000003c       __imp__SetWindowOrgEx@16   1002003c     gdi32:GDI32.dll
 0002:00000040       __imp__SetWindowExtEx@16   10020040     gdi32:GDI32.dll
 0002:00000044       __imp__SetViewportOrgEx@16 10020044     gdi32:GDI32.dll
 0002:00000048       __imp__LPtoDP@12           10020048     gdi32:GDI32.dll
 0002:0000004c       __imp__SetMapMode@8        1002004c     gdi32:GDI32.dll
 0002:00000050       __imp__SaveDC@4            10020050     gdi32:GDI32.dll
 0002:00000054       __imp__RestoreDC@8         10020054     gdi32:GDI32.dll
 0002:00000058       __imp__GetDeviceCaps@8     10020058     gdi32:GDI32.dll
 0002:0000005c       __imp__DeleteMetaFile@4    1002005c     gdi32:GDI32.dll
 0002:00000060       __imp__DeleteDC@4          10020060     gdi32:GDI32.dll
 0002:00000064       __imp__CreateRectRgnIndirect@4 10020064     gdi32:GDI32.dll
 0002:00000068       __imp__CreateMetaFileW@4   10020068     gdi32:GDI32.dll
 0002:0000006c       __imp__CreateDCW@16        1002006c     gdi32:GDI32.dll
 0002:00000070       __imp__CloseMetaFile@4     10020070     gdi32:GDI32.dll
 0002:00000074       \177GDI32_NULL_THUNK_DATA  10020074     gdi32:GDI32.dll
 0002:00000078       __imp__CloseHandle@4       10020078     kernel32:KERNEL32.dll
 0002:0000007c       __imp__SetEvent@4          1002007c     kernel32:KERNEL32.dll
 0002:00000080       __imp__CreateMutexW@12     10020080     kernel32:KERNEL32.dll
 0002:00000084       __imp__CreateEventW@16     10020084     kernel32:KERNEL32.dll
 0002:00000088       __imp__GetCurrentProcessId@0 10020088     kernel32:KERNEL32.dll
 0002:0000008c       __imp__CreateFileW@28      1002008c     kernel32:KERNEL32.dll
 0002:00000090       __imp__GetConsoleMode@8    10020090     kernel32:KERNEL32.dll
 0002:00000094       __imp__GetConsoleOutputCP@0 10020094     kernel32:KERNEL32.dll
 0002:00000098       __imp__WriteFile@20        10020098     kernel32:KERNEL32.dll
 0002:0000009c       __imp__FlushFileBuffers@4  1002009c     kernel32:KERNEL32.dll
 0002:000000a0       __imp__SetStdHandle@8      100200a0     kernel32:KERNEL32.dll
 0002:000000a4       __imp__GetStringTypeW@16   100200a4     kernel32:KERNEL32.dll
 0002:000000a8       __imp__SetFilePointerEx@20 100200a8     kernel32:KERNEL32.dll
 0002:000000ac       __imp__FreeEnvironmentStringsW@4 100200ac     kernel32:KERNEL32.dll
 0002:000000b0       __imp__GetEnvironmentStringsW@0 100200b0     kernel32:KERNEL32.dll
 0002:000000b4       __imp__lstrcmpiW@8         100200b4     kernel32:KERNEL32.dll
 0002:000000b8       __imp__GetCommandLineA@0   100200b8     kernel32:KERNEL32.dll
 0002:000000bc       __imp__GetCPInfo@8         100200bc     kernel32:KERNEL32.dll
 0002:000000c0       __imp__GetOEMCP@0          100200c0     kernel32:KERNEL32.dll
 0002:000000c4       __imp__GetACP@0            100200c4     kernel32:KERNEL32.dll
 0002:000000c8       __imp__IsValidCodePage@4   100200c8     kernel32:KERNEL32.dll
 0002:000000cc       __imp__FindNextFileW@8     100200cc     kernel32:KERNEL32.dll
 0002:000000d0       __imp__FindFirstFileExW@24 100200d0     kernel32:KERNEL32.dll
 0002:000000d4       __imp__FindClose@4         100200d4     kernel32:KERNEL32.dll
 0002:000000d8       __imp__GetFileType@4       100200d8     kernel32:KERNEL32.dll
 0002:000000dc       __imp__GetStdHandle@4      100200dc     kernel32:KERNEL32.dll
 0002:000000e0       __imp__LCMapStringW@24     100200e0     kernel32:KERNEL32.dll
 0002:000000e4       __imp__HeapReAlloc@16      100200e4     kernel32:KERNEL32.dll
 0002:000000e8       __imp__HeapSize@12         100200e8     kernel32:KERNEL32.dll
 0002:000000ec       __imp__MulDiv@12           100200ec     kernel32:KERNEL32.dll
 0002:000000f0       __imp__GlobalLock@4        100200f0     kernel32:KERNEL32.dll
 0002:000000f4       __imp__GlobalUnlock@4      100200f4     kernel32:KERNEL32.dll
 0002:000000f8       __imp__GlobalAlloc@8       100200f8     kernel32:KERNEL32.dll
 0002:000000fc       __imp__FindResourceW@12    100200fc     kernel32:KERNEL32.dll
 0002:00000100       __imp__SizeofResource@8    10020100     kernel32:KERNEL32.dll
 0002:00000104       __imp__LoadResource@8      10020104     kernel32:KERNEL32.dll
 0002:00000108       __imp__LoadLibraryExW@12   10020108     kernel32:KERNEL32.dll
 0002:0000010c       __imp__GetProcAddress@8    1002010c     kernel32:KERNEL32.dll
 0002:00000110       __imp__GetModuleHandleW@4  10020110     kernel32:KERNEL32.dll
 0002:00000114       __imp__GetModuleFileNameW@12 10020114     kernel32:KERNEL32.dll
 0002:00000118       __imp__FreeLibrary@4       10020118     kernel32:KERNEL32.dll
 0002:0000011c       __imp__DisableThreadLibraryCalls@4 1002011c     kernel32:KERNEL32.dll
 0002:00000120       __imp__GetCurrentThreadId@0 10020120     kernel32:KERNEL32.dll
 0002:00000124       __imp__Sleep@4             10020124     kernel32:KERNEL32.dll
 0002:00000128       __imp__WaitForSingleObject@8 10020128     kernel32:KERNEL32.dll
 0002:0000012c       __imp__ReleaseMutex@4      1002012c     kernel32:KERNEL32.dll
 0002:00000130       __imp__ResetEvent@4        10020130     kernel32:KERNEL32.dll
 0002:00000134       __imp__EnterCriticalSection@4 10020134     kernel32:KERNEL32.dll
 0002:00000138       __imp__LeaveCriticalSection@4 10020138     kernel32:KERNEL32.dll
 0002:0000013c       __imp__SetLastError@4      1002013c     kernel32:KERNEL32.dll
 0002:00000140       __imp__EncodePointer@4     10020140     kernel32:KERNEL32.dll
 0002:00000144       __imp__DeleteCriticalSection@4 10020144     kernel32:KERNEL32.dll
 0002:00000148       __imp__InitializeCriticalSectionEx@12 10020148     kernel32:KERNEL32.dll
 0002:0000014c       __imp__GetLastError@0      1002014c     kernel32:KERNEL32.dll
 0002:00000150       __imp__RaiseException@16   10020150     kernel32:KERNEL32.dll
 0002:00000154       __imp__DecodePointer@4     10020154     kernel32:KERNEL32.dll
 0002:00000158       __imp__WideCharToMultiByte@32 10020158     kernel32:KERNEL32.dll
 0002:0000015c       __imp__GetCommandLineW@0   1002015c     kernel32:KERNEL32.dll
 0002:00000160       __imp__MultiByteToWideChar@24 10020160     kernel32:KERNEL32.dll
 0002:00000164       __imp__WriteConsoleW@20    10020164     kernel32:KERNEL32.dll
 0002:00000168       __imp__GetModuleHandleExW@12 10020168     kernel32:KERNEL32.dll
 0002:0000016c       __imp__ExitProcess@4       1002016c     kernel32:KERNEL32.dll
 0002:00000170       __imp__VirtualQuery@12     10020170     kernel32:KERNEL32.dll
 0002:00000174       __imp__VirtualProtect@16   10020174     kernel32:KERNEL32.dll
 0002:00000178       __imp__GetSystemInfo@4     10020178     kernel32:KERNEL32.dll
 0002:0000017c       __imp__TlsFree@4           1002017c     kernel32:KERNEL32.dll
 0002:00000180       __imp__TlsSetValue@8       10020180     kernel32:KERNEL32.dll
 0002:00000184       __imp__TlsGetValue@4       10020184     kernel32:KERNEL32.dll
 0002:00000188       __imp__TlsAlloc@0          10020188     kernel32:KERNEL32.dll
 0002:0000018c       __imp__InterlockedFlushSList@4 1002018c     kernel32:KERNEL32.dll
 0002:00000190       __imp__RtlUnwind@16        10020190     kernel32:KERNEL32.dll
 0002:00000194       __imp__LoadLibraryExA@12   10020194     kernel32:KERNEL32.dll
 0002:00000198       __imp__VirtualFree@12      10020198     kernel32:KERNEL32.dll
 0002:0000019c       __imp__VirtualAlloc@16     1002019c     kernel32:KERNEL32.dll
 0002:000001a0       __imp__FlushInstructionCache@12 100201a0     kernel32:KERNEL32.dll
 0002:000001a4       __imp__InterlockedPushEntrySList@8 100201a4     kernel32:KERNEL32.dll
 0002:000001a8       __imp__InterlockedPopEntrySList@4 100201a8     kernel32:KERNEL32.dll
 0002:000001ac       __imp__GetProcessHeap@0    100201ac     kernel32:KERNEL32.dll
 0002:000001b0       __imp__HeapFree@12         100201b0     kernel32:KERNEL32.dll
 0002:000001b4       __imp__HeapAlloc@12        100201b4     kernel32:KERNEL32.dll
 0002:000001b8       __imp__OutputDebugStringW@4 100201b8     kernel32:KERNEL32.dll
 0002:000001bc       __imp__InitializeSListHead@4 100201bc     kernel32:KERNEL32.dll
 0002:000001c0       __imp__GetSystemTimeAsFileTime@4 100201c0     kernel32:KERNEL32.dll
 0002:000001c4       __imp__QueryPerformanceCounter@4 100201c4     kernel32:KERNEL32.dll
 0002:000001c8       __imp__GetStartupInfoW@4   100201c8     kernel32:KERNEL32.dll
 0002:000001cc       __imp__IsDebuggerPresent@0 100201cc     kernel32:KERNEL32.dll
 0002:000001d0       __imp__IsProcessorFeaturePresent@4 100201d0     kernel32:KERNEL32.dll
 0002:000001d4       __imp__TerminateProcess@8  100201d4     kernel32:KERNEL32.dll
 0002:000001d8       __imp__GetCurrentProcess@0 100201d8     kernel32:KERNEL32.dll
 0002:000001dc       __imp__SetUnhandledExceptionFilter@4 100201dc     kernel32:KERNEL32.dll
 0002:000001e0       __imp__UnhandledExceptionFilter@4 100201e0     kernel32:KERNEL32.dll
 0002:000001e4       __imp__InitializeCriticalSectionAndSpinCount@8 100201e4     kernel32:KERNEL32.dll
 0002:000001e8       __imp__WaitForSingleObjectEx@12 100201e8     kernel32:KERNEL32.dll
 0002:000001ec       \177KERNEL32_NULL_THUNK_DATA 100201ec     kernel32:KERNEL32.dll
 0002:000001f0       __imp__OleCreatePropertyFrame@44 100201f0     oleaut32:OLEAUT32.dll
 0002:000001f4       __imp__UnRegisterTypeLib@20 100201f4     oleaut32:OLEAUT32.dll
 0002:000001f8       __imp__RegisterTypeLib@12  100201f8     oleaut32:OLEAUT32.dll
 0002:000001fc       __imp__LoadRegTypeLib@20   100201fc     oleaut32:OLEAUT32.dll
 0002:00000200       __imp__LoadTypeLib@8       10020200     oleaut32:OLEAUT32.dll
 0002:00000204       __imp__VarUI4FromStr@16    10020204     oleaut32:OLEAUT32.dll
 0002:00000208       __imp__VariantInit@4       10020208     oleaut32:OLEAUT32.dll
 0002:0000020c       __imp__SysAllocStringByteLen@8 1002020c     oleaut32:OLEAUT32.dll
 0002:00000210       __imp__SysStringByteLen@4  10020210     oleaut32:OLEAUT32.dll
 0002:00000214       __imp__VariantChangeType@16 10020214     oleaut32:OLEAUT32.dll
 0002:00000218       __imp__VariantClear@4      10020218     oleaut32:OLEAUT32.dll
 0002:0000021c       __imp__SysStringLen@4      1002021c     oleaut32:OLEAUT32.dll
 0002:00000220       __imp__SysFreeString@4     10020220     oleaut32:OLEAUT32.dll
 0002:00000224       __imp__SysAllocStringLen@8 10020224     oleaut32:OLEAUT32.dll
 0002:00000228       __imp__SysAllocString@4    10020228     oleaut32:OLEAUT32.dll
 0002:0000022c       \177OLEAUT32_NULL_THUNK_DATA 1002022c     oleaut32:OLEAUT32.dll
 0002:00000230       __imp__UnregisterClassW@8  10020230     user32:USER32.dll
 0002:00000234       __imp__PostMessageW@16     10020234     user32:USER32.dll
 0002:00000238       __imp__DefWindowProcW@16   10020238     user32:USER32.dll
 0002:0000023c       __imp__CallWindowProcW@20  1002023c     user32:USER32.dll
 0002:00000240       __imp__RegisterClassExW@4  10020240     user32:USER32.dll
 0002:00000244       __imp__GetClassInfoExW@12  10020244     user32:USER32.dll
 0002:00000248       __imp__CreateWindowExW@48  10020248     user32:USER32.dll
 0002:0000024c       __imp__IsWindow@4          1002024c     user32:USER32.dll
 0002:00000250       __imp__IsChild@8           10020250     user32:USER32.dll
 0002:00000254       __imp__DestroyWindow@4     10020254     user32:USER32.dll
 0002:00000258       __imp__ShowWindow@8        10020258     user32:USER32.dll
 0002:0000025c       __imp__SetWindowPos@28     1002025c     user32:USER32.dll
 0002:00000260       __imp__CharNextW@4         10020260     user32:USER32.dll
 0002:00000264       __imp__SetFocus@4          10020264     user32:USER32.dll
 0002:00000268       __imp__LoadBitmapW@8       10020268     user32:USER32.dll
 0002:0000026c       __imp__RegisterClassW@4    1002026c     user32:USER32.dll
 0002:00000270       __imp__PeekMessageW@20     10020270     user32:USER32.dll
 0002:00000274       __imp__LoadCursorW@8       10020274     user32:USER32.dll
 0002:00000278       __imp__GetParent@4         10020278     user32:USER32.dll
 0002:0000027c       __imp__SetWindowLongW@12   1002027c     user32:USER32.dll
 0002:00000280       __imp__GetWindowLongW@8    10020280     user32:USER32.dll
 0002:00000284       __imp__PtInRect@12         10020284     user32:USER32.dll
 0002:00000288       __imp__EqualRect@8         10020288     user32:USER32.dll
 0002:0000028c       __imp__OffsetRect@12       1002028c     user32:USER32.dll
 0002:00000290       __imp__UnionRect@12        10020290     user32:USER32.dll
 0002:00000294       __imp__IntersectRect@12    10020294     user32:USER32.dll
 0002:00000298       __imp__GetClientRect@8     10020298     user32:USER32.dll
 0002:0000029c       __imp__InvalidateRect@12   1002029c     user32:USER32.dll
 0002:000002a0       __imp__SetWindowRgn@12     100202a0     user32:USER32.dll
 0002:000002a4       __imp__EndPaint@8          100202a4     user32:USER32.dll
 0002:000002a8       __imp__BeginPaint@8        100202a8     user32:USER32.dll
 0002:000002ac       __imp__ReleaseDC@8         100202ac     user32:USER32.dll
 0002:000002b0       __imp__GetDC@4             100202b0     user32:USER32.dll
 0002:000002b4       __imp__GetKeyState@4       100202b4     user32:USER32.dll
 0002:000002b8       __imp__GetFocus@0          100202b8     user32:USER32.dll
 0002:000002bc       \177USER32_NULL_THUNK_DATA 100202bc     user32:USER32.dll
 0002:000002c0       __imp__StringFromGUID2@12  100202c0     ole32:ole32.dll
 0002:000002c4       __imp__CoTaskMemAlloc@4    100202c4     ole32:ole32.dll
 0002:000002c8       __imp__CoTaskMemRealloc@8  100202c8     ole32:ole32.dll
 0002:000002cc       __imp__CoTaskMemFree@4     100202cc     ole32:ole32.dll
 0002:000002d0       __imp__ReadClassStm@8      100202d0     ole32:ole32.dll
 0002:000002d4       __imp__WriteClassStm@8     100202d4     ole32:ole32.dll
 0002:000002d8       __imp__CreateDataAdviseHolder@4 100202d8     ole32:ole32.dll
 0002:000002dc       __imp__OleSaveToStream@8   100202dc     ole32:ole32.dll
 0002:000002e0       __imp__CreateOleAdviseHolder@4 100202e0     ole32:ole32.dll
 0002:000002e4       __imp__OleRegGetUserType@12 100202e4     ole32:ole32.dll
 0002:000002e8       __imp__OleRegGetMiscStatus@12 100202e8     ole32:ole32.dll
 0002:000002ec       __imp__OleRegEnumVerbs@8   100202ec     ole32:ole32.dll
 0002:000002f0       __imp__CLSIDFromProgID@8   100202f0     ole32:ole32.dll
 0002:000002f4       __imp__CoCreateInstance@20 100202f4     ole32:ole32.dll
 0002:000002f8       \177ole32_NULL_THUNK_DATA  100202f8     ole32:ole32.dll
 0002:000002fc       ___guard_check_icall_fptr  100202fc     LIBCMT:guard_support.obj
 0002:00000300       ___xc_a                    10020300     LIBCMT:initializers.obj
 0002:00000318       ___xc_z                    10020318     LIBCMT:initializers.obj
 0002:0000031c       ___xi_a                    1002031c     LIBCMT:initializers.obj
 0002:00000324       ___acrt_stdio_initializer  10020324     libucrt:stdio_initializer.obj
 0002:00000328       ___acrt_multibyte_initializer 10020328     libucrt:multibyte_initializer.obj
 0002:0000032c       ___acrt_tran_sse2_initializer 1002032c     libucrt:sse2_initializer.obj
 0002:00000330       ___xi_z                    10020330     LIBCMT:initializers.obj
 0002:00000334       ___xl_a                    10020334     LIBCMT:tlssup.obj
 0002:00000338       ___xl_z                    10020338     LIBCMT:tlssup.obj
 0002:0000033c       ___xp_a                    1002033c     LIBCMT:initializers.obj
 0002:00000340       ___acrt_locale_terminator  10020340     libucrt:locale_initializer.obj
 0002:00000344       ___dcrt_console_output_terminator 10020344     libucrt:console_output_initializer.obj
 0002:00000348       ___acrt_stdio_terminator   10020348     libucrt:stdio_initializer.obj
 0002:0000034c       ___xp_z                    1002034c     LIBCMT:initializers.obj
 0002:00000350       ___xt_a                    10020350     LIBCMT:initializers.obj
 0002:00000354       ___xt_z                    10020354     LIBCMT:initializers.obj
 0002:00000360       ??_C@_13HADIAKP@?$AAS@     10020360     OposVariant.obj
 0002:00000364       ??_C@_13LHMFKAAD@?$AAM@    10020364     OposVariant.obj
 0002:00000368       ??_C@_13MKMNOPIJ@?$AAD@    10020368     OposVariant.obj
 0002:0000036c       ??_C@_13OPKGLAFF@?$AAB@    1002036c     OposVariant.obj
 0002:00000370       ??_C@_17LLMMEOJD@?$AAV?$AAa?$AAl@ 10020370     OposVariant.obj
 0002:00000378       ??_C@_1BI@JFAIJMHL@?$AAF?$AAo?$AAr?$AAc?$AAe?$AAR?$AAe?$AAm?$AAo?$AAv?$AAe@ 10020378     OposVariant.obj
 0002:00000390       ??_C@_1BC@GCKHIPE@?$AAN?$AAo?$AAR?$AAe?$AAm?$AAo?$AAv?$AAe@ 10020390     OposVariant.obj
 0002:000003a4       ??_C@_1O@JDLOHAN@?$AAD?$AAe?$AAl?$AAe?$AAt?$AAe@ 100203a4     OposVariant.obj
 0002:000003b4       ??_C@_11LOCGONAA@@         100203b4     OposVariant.obj
 0002:000003b8       ??_7CComClassFactory@ATL@@6B@ 100203b8     Belt.obj
 0002:000003d0       ?_entries@?1??_GetEntries@CComClassFactory@ATL@@SGPBU_ATL_INTMAP_ENTRY@3@XZ@4QBU43@B 100203d0     Belt.obj
 0002:000003e8       __GUID_00000001_0000_0000_c000_000000000046 100203e8     Belt.obj
 0002:000003f8       _IID_IOPOSBelt_1_12        100203f8     Belt.obj
 0002:00000408       _IID_IOPOSBelt             10020408     Belt.obj
 0002:00000418       _LIBID_OposBelt_CCO        10020418     Belt.obj
 0002:00000428       _DIID__IOPOSBeltEvents     10020428     Belt.obj
 0002:00000438       _CLSID_OPOSBelt            10020438     Belt.obj
 0002:00000448       ??_C@_1BK@BIGILECK@?$AAA?$AAd?$AAv?$AAa?$AAp?$AAi?$AA3?$AA2?$AA?4?$AAd?$AAl?$AAl@ 10020448     Belt.obj
 0002:00000464       __GUID_00000114_0000_0000_c000_000000000046 10020464     Belt.obj
 0002:00000474       ??_C@_0BI@MNCFCPFK@RegCreateKeyTransactedW@ 10020474     Belt.obj
 0002:0000048c       __GUID_b196b287_bab4_101a_b69c_00aa00341d07 1002048c     Belt.obj
 0002:0000049c       __GUID_b196b285_bab4_101a_b69c_00aa00341d07 1002049c     Belt.obj
 0002:000004ac       __GUID_a6bc3ac0_dbaa_11ce_9de3_00aa004bb851 100204ac     Belt.obj
 0002:000004bc       __GUID_0000010c_0000_0000_c000_000000000046 100204bc     Belt.obj
 0002:000004cc       __GUID_00000146_0000_0000_c000_000000000046 100204cc     Belt.obj
 0002:000004e0       ?_entries@?1??_GetEntries@COPOSBelt@@SGPBU_ATL_INTMAP_ENTRY@ATL@@XZ@4QBU34@B 100204e0     Belt.obj
 0002:00000600       __GUID_cf51ed10_62fe_11cf_bf86_00a0c9034836 10020600     Belt.obj
 0002:00000610       __GUID_0000010a_0000_0000_c000_000000000046 10020610     Belt.obj
 0002:00000620       __GUID_b196b283_bab4_101a_b69c_00aa00341d07 10020620     Belt.obj
 0002:00000630       __GUID_cb5bdc81_93c1_11cf_8f20_00805f2cd064 10020630     Belt.obj
 0002:00000640       ?pPropMap@?1??GetPropertyMap@COPOSBelt@@SAPBUATL_PROPMAP_ENTRY@ATL@@XZ@4QBU34@B 10020640     Belt.obj
 0002:000006ac       ??_C@_17DGDADEHL@?$AA_?$AAc?$AAx@ 100206ac     Belt.obj
 0002:000006b4       ??_C@_17IOIMFDBO@?$AA_?$AAc?$AAy@ 100206b4     Belt.obj
 0002:000006bc       ??_7CComModule@ATL@@6B@    100206bc     Belt.obj
 0002:000006e4       __GUID_922eada0_3424_11cf_b670_00aa004cd6d8 100206e4     Belt.obj
 0002:000006f4       __GUID_9c2cad80_3424_11cf_b670_00aa004cd6d8 100206f4     Belt.obj
 0002:00000704       __GUID_00000119_0000_0000_c000_000000000046 10020704     Belt.obj
 0002:00000714       __GUID_b196b289_bab4_101a_b69c_00aa00341d07 10020714     Belt.obj
 0002:00000724       __GUID_00000000_0000_0000_c000_000000000046 10020724     Belt.obj
 0002:00000734       ??_7?$CComObjectCached@VCComClassFactory@ATL@@@ATL@@6B@ 10020734     Belt.obj
 0002:0000074c       __GUID_00020400_0000_0000_c000_000000000046 1002074c     Belt.obj
 0002:0000075c       ??_C@_1CE@PGFMOFKI@?$AAS?$AAt?$AAa?$AAt?$AAu?$AAs?$AAU?$AAp?$AAd?$AAa?$AAt?$AAe?$AAE?$AAv?$AAe@ 1002075c     Belt.obj
 0002:00000780       ??_C@_1BM@CBGEBBBJ@?$AAD?$AAi?$AAr?$AAe?$AAc?$AAt?$AAI?$AAO?$AAE?$AAv?$AAe?$AAn?$AAt@ 10020780     Belt.obj
 0002:0000079c       __GUID_b196b286_bab4_101a_b69c_00aa00341d07 1002079c     Belt.obj
 0002:000007ac       __GUID_00000117_0000_0000_c000_000000000046 100207ac     Belt.obj
 0002:000007bc       ??_C@_1BC@ENICKDH@?$AAC?$AAo?$AAn?$AAt?$AAe?$AAn?$AAt?$AAs@ 100207bc     Belt.obj
 0002:000007d0       ??_7?$CComObject@V?$CComEnum@UIEnumConnectionPoints@@$1?_GUID_b196b285_bab4_101a_b69c_00aa00341d07@@3U__s_GUID@@BPAUIConnectionPoint@@V?$_CopyInterface@UIConnectionPoint@@@ATL@@VCComSingleThreadModel@6@@ATL@@@ATL@@6B@ 100207d0     Belt.obj
 0002:000007f0       ??_C@_1M@KANJNLFF@?$AAC?$AAL?$AAS?$AAI?$AAD@ 100207f0     Belt.obj
 0002:000007fc       ??_C@_1M@EJNEECMJ@?$AAA?$AAp?$AAp?$AAI?$AAD@ 100207fc     Belt.obj
 0002:00000808       __GUID_0000010e_0000_0000_c000_000000000046 10020808     Belt.obj
 0002:00000818       __GUID_b196b288_bab4_101a_b69c_00aa00341d07 10020818     Belt.obj
 0002:00000828       ?rgszNeverDelete@CRegParser@ATL@@1QBQB_WB 10020828     Belt.obj
 0002:00000858       ??_7CRegObject@ATL@@6B@    10020858     Belt.obj
 0002:00000870       __GUID_00000113_0000_0000_c000_000000000046 10020870     Belt.obj
 0002:00000880       __GUID_1c2056cc_5ef4_101b_8bc8_00aa003e3b29 10020880     Belt.obj
 0002:00000890       ??_C@_1CK@OEKPKBNA@?$AAC?$AAo?$AAm?$AAp?$AAo?$AAn?$AAe?$AAn?$AAt?$AA?5?$AAC?$AAa?$AAt?$AAe?$AAg@ 10020890     Belt.obj
 0002:000008bc       ??_C@_1BC@NKMMNMGL@?$AAF?$AAi?$AAl?$AAe?$AAT?$AAy?$AAp?$AAe@ 100208bc     Belt.obj
 0002:000008d0       ??_C@_1BE@EKPAFMCP@?$AAI?$AAn?$AAt?$AAe?$AAr?$AAf?$AAa?$AAc?$AAe@ 100208d0     Belt.obj
 0002:000008e4       ??_C@_1BC@MAICEHGI@?$AAH?$AAa?$AAr?$AAd?$AAw?$AAa?$AAr?$AAe@ 100208e4     Belt.obj
 0002:000008f8       ??_C@_19HLLLM@?$AAM?$AAi?$AAm?$AAe@ 100208f8     Belt.obj
 0002:00000904       ??_C@_17OMAOINJK@?$AAS?$AAA?$AAM@ 10020904     Belt.obj
 0002:0000090c       ??_C@_1BC@IBECJAAI@?$AAS?$AAE?$AAC?$AAU?$AAR?$AAI?$AAT?$AAY@ 1002090c     Belt.obj
 0002:00000920       ??_C@_1O@GBFINDKL@?$AAS?$AAY?$AAS?$AAT?$AAE?$AAM@ 10020920     Belt.obj
 0002:00000930       ??_C@_1BC@EAHCMADO@?$AAS?$AAo?$AAf?$AAt?$AAw?$AAa?$AAr?$AAe@ 10020930     Belt.obj
 0002:00000944       ??_C@_1BA@JIHHIEDE@?$AAT?$AAy?$AAp?$AAe?$AAL?$AAi?$AAb@ 10020944     Belt.obj
 0002:00000958       ?map@?1??HKeyFromString@CRegParser@ATL@@KAPAUHKEY__@@PA_W@Z@4QBUkeymap@?1??123@KAPAU4@0@Z@B 10020958     Belt.obj
 0002:000009c8       ??_C@_19NCHLBIN@?$AAH?$AAK?$AAC?$AAR@ 100209c8     Belt.obj
 0002:000009d4       ??_C@_19JAPAIJDE@?$AAH?$AAK?$AAC?$AAU@ 100209d4     Belt.obj
 0002:000009e0       ??_C@_19PEALEEJB@?$AAH?$AAK?$AAL?$AAM@ 100209e0     Belt.obj
 0002:000009ec       ??_C@_17PJOJPMPB@?$AAH?$AAK?$AAU@ 100209ec     Belt.obj
 0002:000009f4       ??_C@_19PNBHMJPL@?$AAH?$AAK?$AAP?$AAD@ 100209f4     Belt.obj
 0002:00000a00       ??_C@_19GFFAIJHG@?$AAH?$AAK?$AAD?$AAD@ 10020a00     Belt.obj
 0002:00000a0c       ??_C@_19OFICIBHH@?$AAH?$AAK?$AAC?$AAC@ 10020a0c     Belt.obj
 0002:00000a18       ??_C@_1CE@PACHPJFI@?$AAH?$AAK?$AAE?$AAY?$AA_?$AAC?$AAL?$AAA?$AAS?$AAS?$AAE?$AAS?$AA_?$AAR?$AAO@ 10020a18     Belt.obj
 0002:00000a3c       ??_C@_1CE@HLHNCBPM@?$AAH?$AAK?$AAE?$AAY?$AA_?$AAC?$AAU?$AAR?$AAR?$AAE?$AAN?$AAT?$AA_?$AAU?$AAS@ 10020a3c     Belt.obj
 0002:00000a60       ??_C@_1CG@GFBEANJL@?$AAH?$AAK?$AAE?$AAY?$AA_?$AAL?$AAO?$AAC?$AAA?$AAL?$AA_?$AAM?$AAA?$AAC?$AAH@ 10020a60     Belt.obj
 0002:00000a88       ??_C@_1BG@BGODANIO@?$AAH?$AAK?$AAE?$AAY?$AA_?$AAU?$AAS?$AAE?$AAR?$AAS@ 10020a88     Belt.obj
 0002:00000aa0       ??_C@_1CM@KHNNAOIC@?$AAH?$AAK?$AAE?$AAY?$AA_?$AAP?$AAE?$AAR?$AAF?$AAO?$AAR?$AAM?$AAA?$AAN?$AAC@ 10020aa0     Belt.obj
 0002:00000acc       ??_C@_1BM@HAGMMHIA@?$AAH?$AAK?$AAE?$AAY?$AA_?$AAD?$AAY?$AAN?$AA_?$AAD?$AAA?$AAT?$AAA@ 10020acc     Belt.obj
 0002:00000ae8       ??_C@_1CI@BBJOACGG@?$AAH?$AAK?$AAE?$AAY?$AA_?$AAC?$AAU?$AAR?$AAR?$AAE?$AAN?$AAT?$AA_?$AAC?$AAO@ 10020ae8     Belt.obj
 0002:00000b10       __GUID_00000109_0000_0000_c000_000000000046 10020b10     Belt.obj
 0002:00000b20       __GUID_7fd52380_4e07_101b_ae2d_08002b2ec713 10020b20     Belt.obj
 0002:00000b30       __GUID_00000112_0000_0000_c000_000000000046 10020b30     Belt.obj
 0002:00000b40       __GUID_3af24292_0c96_11ce_a0cf_00aa00600ab8 10020b40     Belt.obj
 0002:00000b50       __GUID_00000127_0000_0000_c000_000000000046 10020b50     Belt.obj
 0002:00000b60       __GUID_0000010d_0000_0000_c000_000000000046 10020b60     Belt.obj
 0002:00000b70       ??_C@_1EA@NHKLICFA@?$AAH?$AAK?$AAC?$AAU?$AA?$AN?$AA?6?$AA?$HL?$AA?7?$AAS?$AAo?$AAf?$AAt?$AAw?$AAa?$AAr@ 10020b70     Belt.obj
 0002:00000bb0       ??_C@_1BE@LJOLIMEM@?$AA?$AN?$AA?6?$AA?7?$AA?$HN?$AA?$AN?$AA?6?$AA?$HN?$AA?$AN?$AA?6@ 10020bb0     Belt.obj
 0002:00000bc4       ??_C@_1M@PPPPCDEP@?$AAA?$AAP?$AAP?$AAI?$AAD@ 10020bc4     Belt.obj
 0002:00000bd0       ??_C@_1O@MNLDABAF@?$AAM?$AAo?$AAd?$AAu?$AAl?$AAe@ 10020bd0     Belt.obj
 0002:00000be0       ??_C@_1BG@JBACFMF@?$AAM?$AAo?$AAd?$AAu?$AAl?$AAe?$AA_?$AAR?$AAa?$AAw@ 10020be0     Belt.obj
 0002:00000bf8       ??_C@_1BC@KAILKFFG@?$AAR?$AAE?$AAG?$AAI?$AAS?$AAT?$AAR?$AAY@ 10020bf8     Belt.obj
 0002:00000c0c       ??_7?$CComContainedObject@VCOPOSBelt@@@ATL@@6B?$IDispatchImpl@UIOPOSBelt@@$1?IID_IOPOSBelt@@3U_GUID@@B$1?LIBID_OposBelt_CCO@@3U3@B$00$0A@VCComTypeInfoHolder@ATL@@@1@@ 10020c0c     Belt.obj
 0002:00000d54       ??_7?$CComContainedObject@VCOPOSBelt@@@ATL@@6BCComControlBase@1@@ 10020d54     Belt.obj
 0002:00000d68       ??_7?$CComContainedObject@VCOPOSBelt@@@ATL@@6B?$CWindowImpl@VCOPOSBelt@@VCWindow@ATL@@V?$CWinTraits@$0FGAAAAAA@$0A@@3@@1@@ 10020d68     Belt.obj
 0002:00000d78       ??_7?$CComContainedObject@VCOPOSBelt@@@ATL@@6B?$IPersistStreamInitImpl@VCOPOSBelt@@@1@@ 10020d78     Belt.obj
 0002:00000d9c       ??_7?$CComContainedObject@VCOPOSBelt@@@ATL@@6B?$IOleControlImpl@VCOPOSBelt@@@1@@ 10020d9c     Belt.obj
 0002:00000db8       ??_7?$CComContainedObject@VCOPOSBelt@@@ATL@@6B?$IOleObjectImpl@VCOPOSBelt@@@1@@ 10020db8     Belt.obj
 0002:00000e18       ??_7?$CComContainedObject@VCOPOSBelt@@@ATL@@6B?$IOleInPlaceActiveObjectImpl@VCOPOSBelt@@@1@@ 10020e18     Belt.obj
 0002:00000e40       ??_7?$CComContainedObject@VCOPOSBelt@@@ATL@@6B?$IViewObjectExImpl@VCOPOSBelt@@@1@@ 10020e40     Belt.obj
 0002:00000e7c       ??_7?$CComContainedObject@VCOPOSBelt@@@ATL@@6B?$IOleInPlaceObjectWindowlessImpl@VCOPOSBelt@@@1@@ 10020e7c     Belt.obj
 0002:00000ea8       ??_7?$CComContainedObject@VCOPOSBelt@@@ATL@@6B?$IConnectionPointContainerImpl@VCOPOSBelt@@@1@@ 10020ea8     Belt.obj
 0002:00000ebc       ??_7?$CComContainedObject@VCOPOSBelt@@@ATL@@6B?$IPersistStorageImpl@VCOPOSBelt@@@1@@ 10020ebc     Belt.obj
 0002:00000ee4       ??_7?$CComContainedObject@VCOPOSBelt@@@ATL@@6B?$ISpecifyPropertyPagesImpl@VCOPOSBelt@@@1@@ 10020ee4     Belt.obj
 0002:00000ef4       ??_7?$CComContainedObject@VCOPOSBelt@@@ATL@@6B?$IQuickActivateImpl@VCOPOSBelt@@@1@@ 10020ef4     Belt.obj
 0002:00000f0c       ??_7?$CComContainedObject@VCOPOSBelt@@@ATL@@6B?$IDataObjectImpl@VCOPOSBelt@@@1@@ 10020f0c     Belt.obj
 0002:00000f3c       ??_7?$CComContainedObject@VCOPOSBelt@@@ATL@@6B?$IProvideClassInfo2Impl@$1?CLSID_OPOSBelt@@3U_GUID@@B$1?DIID__IOPOSBeltEvents@@3U2@B$1?LIBID_OposBelt_CCO@@3U2@B$00$0A@VCComTypeInfoHolder@ATL@@@1@@ 10020f3c     Belt.obj
 0002:00000f50       ??_7?$CComContainedObject@VCOPOSBelt@@@ATL@@6B?$IObjectSafetyImpl@VCOPOSBelt@@$02@1@@ 10020f50     Belt.obj
 0002:00000f68       ??_7?$CComContainedObject@VCOPOSBelt@@@ATL@@6B?$IPropertyNotifySinkCP@VCOPOSBelt@@VCComDynamicUnkArray@ATL@@@1@@ 10020f68     Belt.obj
 0002:00000f88       ??_7?$CComContainedObject@VCOPOSBelt@@@ATL@@6B?$CProxy_IOPOSEvents@VCOPOSBelt@@@@@ 10020f88     Belt.obj
 0002:00000fa8       ??_7?$CComAggObject@VCOPOSBelt@@@ATL@@6B@ 10020fa8     Belt.obj
 0002:00000fb8       ??_7?$CComObject@VCOPOSBelt@@@ATL@@6B?$IDispatchImpl@UIOPOSBelt@@$1?IID_IOPOSBelt@@3U_GUID@@B$1?LIBID_OposBelt_CCO@@3U3@B$00$0A@VCComTypeInfoHolder@ATL@@@1@@ 10020fb8     Belt.obj
 0002:00001100       ??_7?$CComObject@VCOPOSBelt@@@ATL@@6BCComControlBase@1@@ 10021100     Belt.obj
 0002:00001114       ??_7?$CComObject@VCOPOSBelt@@@ATL@@6B?$CWindowImpl@VCOPOSBelt@@VCWindow@ATL@@V?$CWinTraits@$0FGAAAAAA@$0A@@3@@1@@ 10021114     Belt.obj
 0002:00001124       ??_7?$CComObject@VCOPOSBelt@@@ATL@@6B?$IPersistStreamInitImpl@VCOPOSBelt@@@1@@ 10021124     Belt.obj
 0002:00001148       ??_7?$CComObject@VCOPOSBelt@@@ATL@@6B?$IOleControlImpl@VCOPOSBelt@@@1@@ 10021148     Belt.obj
 0002:00001164       ??_7?$CComObject@VCOPOSBelt@@@ATL@@6B?$IOleObjectImpl@VCOPOSBelt@@@1@@ 10021164     Belt.obj
 0002:000011c4       ??_7?$CComObject@VCOPOSBelt@@@ATL@@6B?$IOleInPlaceActiveObjectImpl@VCOPOSBelt@@@1@@ 100211c4     Belt.obj
 0002:000011ec       ??_7?$CComObject@VCOPOSBelt@@@ATL@@6B?$IViewObjectExImpl@VCOPOSBelt@@@1@@ 100211ec     Belt.obj
 0002:00001228       ??_7?$CComObject@VCOPOSBelt@@@ATL@@6B?$IOleInPlaceObjectWindowlessImpl@VCOPOSBelt@@@1@@ 10021228     Belt.obj
 0002:00001254       ??_7?$CComObject@VCOPOSBelt@@@ATL@@6B?$IConnectionPointContainerImpl@VCOPOSBelt@@@1@@ 10021254     Belt.obj
 0002:00001268       ??_7?$CComObject@VCOPOSBelt@@@ATL@@6B?$IPersistStorageImpl@VCOPOSBelt@@@1@@ 10021268     Belt.obj
 0002:00001290       ??_7?$CComObject@VCOPOSBelt@@@ATL@@6B?$ISpecifyPropertyPagesImpl@VCOPOSBelt@@@1@@ 10021290     Belt.obj
 0002:000012a0       ??_7?$CComObject@VCOPOSBelt@@@ATL@@6B?$IQuickActivateImpl@VCOPOSBelt@@@1@@ 100212a0     Belt.obj
 0002:000012b8       ??_7?$CComObject@VCOPOSBelt@@@ATL@@6B?$IDataObjectImpl@VCOPOSBelt@@@1@@ 100212b8     Belt.obj
 0002:000012e8       ??_7?$CComObject@VCOPOSBelt@@@ATL@@6B?$IProvideClassInfo2Impl@$1?CLSID_OPOSBelt@@3U_GUID@@B$1?DIID__IOPOSBeltEvents@@3U2@B$1?LIBID_OposBelt_CCO@@3U2@B$00$0A@VCComTypeInfoHolder@ATL@@@1@@ 100212e8     Belt.obj
 0002:000012fc       ??_7?$CComObject@VCOPOSBelt@@@ATL@@6B?$IObjectSafetyImpl@VCOPOSBelt@@$02@1@@ 100212fc     Belt.obj
 0002:00001314       ??_7?$CComObject@VCOPOSBelt@@@ATL@@6B?$IPropertyNotifySinkCP@VCOPOSBelt@@VCComDynamicUnkArray@ATL@@@1@@ 10021314     Belt.obj
 0002:00001334       ??_7?$CComObject@VCOPOSBelt@@@ATL@@6B?$CProxy_IOPOSEvents@VCOPOSBelt@@@@@ 10021334     Belt.obj
 0002:00001354       ??_C@_1O@GBFKGNEO@?$AAA?$AAT?$AAL?$AA?3?$AA?$CF?$AAp@ 10021354     Belt.obj
 0002:00001364       ??_C@_1BA@PICGEGJB@?$AAD?$AAI?$AAS?$AAP?$AAL?$AAA?$AAY@ 10021364     Belt.obj
 0002:00001374       __GUID_9bfbbc02_eff1_101a_84ed_00aa00341d07 10021374     Belt.obj
 0002:00001384       __GUID_b196b284_bab4_101a_b69c_00aa00341d07 10021384     Belt.obj
 0002:00001394       ?_entries@?1??_GetEntries@?$CComEnum@UIEnumConnectionPoints@@$1?_GUID_b196b285_bab4_101a_b69c_00aa00341d07@@3U__s_GUID@@BPAUIConnectionPoint@@V?$_CopyInterface@UIConnectionPoint@@@ATL@@VCComSingleThreadModel@6@@ATL@@SGPBU_ATL_INTMAP_ENTRY@3@XZ@4QBU43@B 10021394     Belt.obj
 0002:000013ac       __GUID_00020412_0000_0000_c000_000000000046 100213ac     Belt.obj
 0002:000013bc       __GUID_00020401_0000_0000_c000_000000000046 100213bc     Belt.obj
 0002:000013cc       ??_7?$CComObject@V?$CComEnum@UIEnumConnections@@$1?_GUID_b196b287_bab4_101a_b69c_00aa00341d07@@3U__s_GUID@@BUtagCONNECTDATA@@V?$_Copy@UtagCONNECTDATA@@@ATL@@VCComSingleThreadModel@6@@ATL@@@ATL@@6B@ 100213cc     Belt.obj
 0002:000013ec       __GUID_55980ba0_35aa_11cf_b671_00aa004cd6d8 100213ec     Belt.obj
 0002:000013fc       __GUID_b196b28b_bab4_101a_b69c_00aa00341d07 100213fc     Belt.obj
 0002:0000140c       ?_entries@?1??_GetEntries@?$CComEnum@UIEnumConnections@@$1?_GUID_b196b287_bab4_101a_b69c_00aa00341d07@@3U__s_GUID@@BUtagCONNECTDATA@@V?$_Copy@UtagCONNECTDATA@@@ATL@@VCComSingleThreadModel@6@@ATL@@SGPBU_ATL_INTMAP_ENTRY@3@XZ@4QBU43@B 1002140c     Belt.obj
 0002:00001424       ??_C@_0BG@EKFFMJIO@RegOpenKeyTransactedW@ 10021424     Belt.obj
 0002:0000143c       ??_C@_0BI@HAKLOOGP@RegDeleteKeyTransactedW@ 1002143c     Belt.obj
 0002:00001454       ??_C@_0BA@LILAPHGE@RegDeleteKeyExW@ 10021454     Belt.obj
 0002:00001464       ??_C@_19ILOCMLCJ@?$AA?4?$AAt?$AAl?$AAb@ 10021464     Belt.obj
 0002:00001470       __GUID_0002e012_0000_0000_c000_000000000046 10021470     Belt.obj
 0002:00001480       ??_C@_1O@FHBGLCIO@?$AAC?$AAL?$AAS?$AAI?$AAD?$AA?2@ 10021480     Belt.obj
 0002:00001490       ??_C@_1CK@IFBKBFAA@?$AA?2?$AAR?$AAe?$AAq?$AAu?$AAi?$AAr?$AAe?$AAd?$AA?5?$AAC?$AAa?$AAt?$AAe?$AAg@ 10021490     Belt.obj
 0002:000014bc       ??_C@_1DA@BIHALFED@?$AA?2?$AAI?$AAm?$AAp?$AAl?$AAe?$AAm?$AAe?$AAn?$AAt?$AAe?$AAd?$AA?5?$AAC?$AAa@ 100214bc     Belt.obj
 0002:000014ec       ??_C@_1BK@EDKOLFBJ@?$AAO?$AAL?$AAE?$AAA?$AAU?$AAT?$AA3?$AA2?$AA?4?$AAD?$AAL?$AAL@ 100214ec     Belt.obj
 0002:00001508       ??_C@_0BJ@CNLFOMHB@UnRegisterTypeLibForUser@ 10021508     Belt.obj
 0002:00001524       ??_C@_0BH@LBOMMKPJ@RegisterTypeLibForUser@ 10021524     Belt.obj
 0002:0000153c       ??_C@_0P@MMNMMLGK@COFreezeEvents@ 1002153c     BeltImpl.obj
 0002:0000154c       ??_C@_0BC@OGCGGIMP@GetPropertyNumber@ 1002154c     BeltImpl.obj
 0002:00001560       ??_C@_0BC@MDCNODNB@SetPropertyNumber@ 10021560     BeltImpl.obj
 0002:00001574       ??_C@_0BC@CFCCMIMD@GetPropertyString@ 10021574     BeltImpl.obj
 0002:00001588       ??_C@_0BC@CJEDNN@SetPropertyString@ 10021588     BeltImpl.obj
 0002:0000159c       ??_C@_0M@LNPKKKDA@OpenService@ 1002159c     BeltImpl.obj
 0002:000015a8       ??_C@_0M@PCMCHHMH@CheckHealth@ 100215a8     BeltImpl.obj
 0002:000015b4       ??_C@_0M@JGMIDNEK@ClaimDevice@ 100215b4     BeltImpl.obj
 0002:000015c0       ??_C@_0N@DDFIIBMP@CloseService@ 100215c0     BeltImpl.obj
 0002:000015d0       ??_C@_08EEIHICPC@DirectIO@ 100215d0     BeltImpl.obj
 0002:000015dc       ??_C@_0O@BCPMENMJ@ReleaseDevice@ 100215dc     BeltImpl.obj
 0002:000015ec       ??_C@_0BA@GFABKEEE@ResetStatistics@ 100215ec     BeltImpl.obj
 0002:000015fc       ??_C@_0BD@DPALHJGC@RetrieveStatistics@ 100215fc     BeltImpl.obj
 0002:00001610       ??_C@_0BB@KOHIKNFC@UpdateStatistics@ 10021610     BeltImpl.obj
 0002:00001624       ??_C@_0BH@PBKBNMGB@CompareFirmwareVersion@ 10021624     BeltImpl.obj
 0002:0000163c       ??_C@_0P@FBPDPIPA@UpdateFirmware@ 1002163c     BeltImpl.obj
 0002:0000164c       ??_C@_0BA@MFNBLEHA@AdjustItemCount@ 1002164c     BeltImpl.obj
 0002:0000165c       ??_C@_0N@NLHBHADE@MoveBackward@ 1002165c     BeltImpl.obj
 0002:0000166c       ??_C@_0M@EOADDJMM@MoveForward@ 1002166c     BeltImpl.obj
 0002:00001678       ??_C@_09PINHDNFP@ResetBelt@ 10021678     BeltImpl.obj
 0002:00001684       ??_C@_0P@IFKGMNLN@ResetItemCount@ 10021684     BeltImpl.obj
 0002:00001694       ??_C@_08CILKLKOL@StopBelt@ 10021694     BeltImpl.obj
 0002:000016a0       ??_7?$CProxy_IOPOSEvents@VCOPOSBelt@@@@6B@ 100216a0     BeltImpl.obj
 0002:000016c0       ??_C@_1BA@IFHENID@?$AA?$FL?$AAE?$AAr?$AAr?$AAo?$AAr?$AA?$FN@ 100216c0     BeltImpl.obj
 0002:000016d0       ??_C@_0CH@IECBNNFN@SOFTWARE?2OLEforRetail?2ServiceOP@ 100216d0     BeltImpl.obj
 0002:000016f8       ??_C@_1M@IAIJHCCH@?$AAC?$AAl?$AAo?$AAs?$AAe@ 100216f8     BeltImpl.obj
 0002:00001704       ??_C@_1M@PCPKGJAH@?$AAC?$AAl?$AAa?$AAi?$AAm@ 10021704     BeltImpl.obj
 0002:00001710       ??_C@_1BA@NDFKIOCP@?$AAR?$AAe?$AAl?$AAe?$AAa?$AAs?$AAe@ 10021710     BeltImpl.obj
 0002:00001720       ??_C@_04BNIIIKEM@Belt@     10021720     BeltImpl.obj
 0002:00001728       ??_C@_1BM@IJMNMBPK@?$AAG?$AAe?$AAt?$AAO?$AAp?$AAe?$AAn?$AAR?$AAe?$AAs?$AAu?$AAl?$AAt@ 10021728     BeltImpl.obj
 0002:00001744       _IID_IPropertyNotifySink   10021744     uuid:ocidl_i.obj
 0002:00001754       _GUID_NULL                 10021754     uuid:cguid_i.obj
 0002:00001764       _CLSID_StdGlobalInterfaceTable 10021764     uuid:cguid_i.obj
 0002:00001774       _IID_IDispatch             10021774     uuid:oaidl_i.obj
 0002:00001784       _CLSID_StdComponentCategoriesMgr 10021784     uuid:ieguids.obj
 0002:00001794       _IID_IUnknown              10021794     uuid:unknwn_i.obj
 0002:000017a8       ??_C@_1EC@JIJBPKFM@?$AAa?$AAp?$AAi?$AA?9?$AAm?$AAs?$AA?9?$AAw?$AAi?$AAn?$AA?9?$AAc?$AAo?$AAr?$AAe@ 100217a8     LIBCMT:thread_safe_statics.obj
 0002:000017ec       ??_C@_1BK@MGMFAEKH@?$AAk?$AAe?$AAr?$AAn?$AAe?$AAl?$AA3?$AA2?$AA?4?$AAd?$AAl?$AAl@ 100217ec     LIBCMT:thread_safe_statics.obj
 0002:00001808       ??_C@_0BJ@JEBJOJFJ@SleepConditionVariableCS@ 10021808     LIBCMT:thread_safe_statics.obj
 0002:00001824       ??_C@_0BJ@PGPPEPCC@WakeAllConditionVariable@ 10021824     LIBCMT:thread_safe_statics.obj
 0002:0000183d       ?nothrow@std@@3Unothrow_t@1@B 1002183d     LIBCMT:std_nothrow.obj
 0002:00001848       __pDefaultRawDllMain       10021848     LIBCMT:dll_dllmain.obj
 0002:00001848       __pRawDllMain              10021848     LIBCMT:dll_dllmain.obj
 0002:00001850       ??_7exception@std@@6B@     10021850     LIBCMT:throw_bad_alloc.obj
 0002:00001858       ??_C@_0BC@EOODALEL@Unknown?5exception@ 10021858     LIBCMT:throw_bad_alloc.obj
 0002:00001870       ??_7bad_alloc@std@@6B@     10021870     LIBCMT:throw_bad_alloc.obj
 0002:00001878       ??_C@_0P@GHFPNOJB@bad?5allocation@ 10021878     LIBCMT:throw_bad_alloc.obj
 0002:0000188c       ??_7bad_array_new_length@std@@6B@ 1002188c     LIBCMT:throw_bad_alloc.obj
 0002:00001894       ??_C@_0BF@KINCDENJ@bad?5array?5new?5length@ 10021894     LIBCMT:throw_bad_alloc.obj
 0002:000018b0       ??_7type_info@@6B@         100218b0     LIBCMT:std_type_info_static.obj
 0002:000018b4       _GUID_ATLVer110            100218b4     atls:atlbase.obj
 0002:000018c8       ??_C@_1IC@ONKHOIDK@?$AAE?$AAR?$AAR?$AAO?$AAR?$AA?5?$AA?3?$AA?5?$AAU?$AAn?$AAa?$AAb?$AAl?$AAe?$AA?5@ 100218c8     atls:atlbase.obj
 0002:0000194c       ??_C@_0N@FJEPLCIH@atlthunk?4dll@ 1002194c     atls:atlthunk.obj
 0002:0000195c       ??_C@_0BG@GAKFHCBM@AtlThunk_AllocateData@ 1002195c     atls:atlthunk.obj
 0002:00001974       ??_C@_0BC@JKONFIAH@AtlThunk_InitData@ 10021974     atls:atlthunk.obj
 0002:00001988       ??_C@_0BE@IAOEELAK@AtlThunk_DataToCode@ 10021988     atls:atlthunk.obj
 0002:0000199c       ??_C@_0BC@GBGKAIPI@AtlThunk_FreeData@ 1002199c     atls:atlthunk.obj
 0002:000019b0       __pDestructExceptionObject 100219b0     libvcruntime:ehhelpers.obj
 0002:000019b8       ??_7bad_exception@std@@6B@ 100219b8     libvcruntime:frame.obj
 0002:000019c0       ??_C@_0O@DPKOEFFH@bad?5exception@ 100219c0     libvcruntime:frame.obj
 0002:00001d50       ??_C@_08EHJDFFNH@__based?$CI@ 10021d50     libvcruntime:undname.obj
 0002:00001d5c       ??_C@_07KOLFKCDI@__cdecl@  10021d5c     libvcruntime:undname.obj
 0002:00001d64       ??_C@_08GHMPAG@__pascal@   10021d64     libvcruntime:undname.obj
 0002:00001d70       ??_C@_09IFJBGAPI@__stdcall@ 10021d70     libvcruntime:undname.obj
 0002:00001d7c       ??_C@_0L@NPHFGOKO@__thiscall@ 10021d7c     libvcruntime:undname.obj
 0002:00001d88       ??_C@_0L@JMKHOMEK@__fastcall@ 10021d88     libvcruntime:undname.obj
 0002:00001d94       ??_C@_0N@BCKKPABJ@__vectorcall@ 10021d94     libvcruntime:undname.obj
 0002:00001da4       ??_C@_09HIJEGCPM@__clrcall@ 10021da4     libvcruntime:undname.obj
 0002:00001db0       ??_C@_06GHPCKEAG@__eabi@   10021db0     libvcruntime:undname.obj
 0002:00001db8       ??_C@_09IOPIDJLG@__swift_1@ 10021db8     libvcruntime:undname.obj
 0002:00001dc4       ??_C@_09KFNFGKHF@__swift_2@ 10021dc4     libvcruntime:undname.obj
 0002:00001dd0       ??_C@_07JOMMBBKO@__ptr64@  10021dd0     libvcruntime:undname.obj
 0002:00001dd8       ??_C@_0L@PILCLIHE@__restrict@ 10021dd8     libvcruntime:undname.obj
 0002:00001de4       ??_C@_0M@GFIIJFMG@__unaligned@ 10021de4     libvcruntime:undname.obj
 0002:00001df0       ??_C@_09DHDLOLLB@restrict?$CI@ 10021df0     libvcruntime:undname.obj
 0002:00001dfa       ??_C@_00CNPNBAHC@@         10021dfa     libvcruntime:undname.obj
 0002:00001dfc       ??_C@_04NIHEBCM@?5new@     10021dfc     libvcruntime:undname.obj
 0002:00001e04       ??_C@_07FPCDHGMM@?5delete@ 10021e04     libvcruntime:undname.obj
 0002:00001e0c       ??_C@_01NEMOKFLO@?$DN@     10021e0c     libvcruntime:undname.obj
 0002:00001e10       ??_C@_02GPIOPFAK@?$DO?$DO@ 10021e10     libvcruntime:undname.obj
 0002:00001e14       ??_C@_02FODMEDOG@?$DM?$DM@ 10021e14     libvcruntime:undname.obj
 0002:00001e18       ??_C@_01DCLJPIOD@?$CB@     10021e18     libvcruntime:undname.obj
 0002:00001e1c       ??_C@_02EGOFBIJA@?$DN?$DN@ 10021e1c     libvcruntime:undname.obj
 0002:00001e20       ??_C@_02FDNJECIE@?$CB?$DN@ 10021e20     libvcruntime:undname.obj
 0002:00001e24       ??_C@_02GPECMEKF@?$FL?$FN@ 10021e24     libvcruntime:undname.obj
 0002:00001e28       ??_C@_08LHJFAFGD@operator@ 10021e28     libvcruntime:undname.obj
 0002:00001e34       ??_C@_02HBOOOICD@?9?$DO@   10021e34     libvcruntime:undname.obj
 0002:00001e38       ??_C@_01NBENCBCI@?$CK@     10021e38     libvcruntime:undname.obj
 0002:00001e3c       ??_C@_02ECNGHCIF@?$CL?$CL@ 10021e3c     libvcruntime:undname.obj
 0002:00001e40       ??_C@_02BAABKJLB@?9?9@     10021e40     libvcruntime:undname.obj
 0002:00001e44       ??_C@_01JOAMLHOP@?9@       10021e44     libvcruntime:undname.obj
 0002:00001e48       ??_C@_01MIFGBAGJ@?$CL@     10021e48     libvcruntime:undname.obj
 0002:00001e4c       ??_C@_01HNPIGOCE@?$CG@     10021e4c     libvcruntime:undname.obj
 0002:00001e50       ??_C@_03MNHNFDLC@?9?$DO?$CK@ 10021e50     libvcruntime:undname.obj
 0002:00001e54       ??_C@_01KMDKNFGN@?1@       10021e54     libvcruntime:undname.obj
 0002:00001e58       ??_C@_01FGNFDNOH@?$CF@     10021e58     libvcruntime:undname.obj
 0002:00001e5c       ??_C@_01MNNFJEPP@?$DM@     10021e5c     libvcruntime:undname.obj
 0002:00001e60       ??_C@_02EHCHHCKH@?$DM?$DN@ 10021e60     libvcruntime:undname.obj
 0002:00001e64       ??_C@_01PPODPGHN@?$DO@     10021e64     libvcruntime:undname.obj
 0002:00001e68       ??_C@_02EEKDKGMJ@?$DO?$DN@ 10021e68     libvcruntime:undname.obj
 0002:00001e6c       ??_C@_01IHBHIGKO@?0@       10021e6c     libvcruntime:undname.obj
 0002:00001e70       ??_C@_02HCKGKOFO@?$CI?$CJ@ 10021e70     libvcruntime:undname.obj
 0002:00001e74       ??_C@_01PJKLJHI@?$HO@      10021e74     libvcruntime:undname.obj
 0002:00001e78       ??_C@_01JKBOJNNK@?$FO@     10021e78     libvcruntime:undname.obj
 0002:00001e7c       ??_C@_01DNKMNLPK@?$HM@     10021e7c     libvcruntime:undname.obj
 0002:00001e80       ??_C@_02PPKAJPJL@?$CG?$CG@ 10021e80     libvcruntime:undname.obj
 0002:00001e84       ??_C@_02NONPIBCD@?$HM?$HM@ 10021e84     libvcruntime:undname.obj
 0002:00001e88       ??_C@_02FPIMKNGF@?$CK?$DN@ 10021e88     libvcruntime:undname.obj
 0002:00001e8c       ??_C@_02FOEOMHFC@?$CL?$DN@ 10021e8c     libvcruntime:undname.obj
 0002:00001e90       ??_C@_02FKMDLLOA@?9?$DN@   10021e90     libvcruntime:undname.obj
 0002:00001e94       ??_C@_02FJEHGPIO@?1?$DN@   10021e94     libvcruntime:undname.obj
 0002:00001e98       ??_C@_02FENAOKFI@?$CF?$DN@ 10021e98     libvcruntime:undname.obj
 0002:00001e9c       ??_C@_03IKFCCPFF@?$DO?$DO?$DN@ 10021e9c     libvcruntime:undname.obj
 0002:00001ea0       ??_C@_03CDNPDDLA@?$DM?$DM?$DN@ 10021ea0     libvcruntime:undname.obj
 0002:00001ea4       ??_C@_02FGJGFEAB@?$CG?$DN@ 10021ea4     libvcruntime:undname.obj
 0002:00001ea8       ??_C@_02DHLNPPGH@?$HM?$DN@ 10021ea8     libvcruntime:undname.obj
 0002:00001eac       ??_C@_02MHEGNOJ@?$FO?$DN@  10021eac     libvcruntime:undname.obj
 0002:00001eb0       ??_C@_09IFPLHPGF@?$GAvftable?8@ 10021eb0     libvcruntime:undname.obj
 0002:00001ebc       ??_C@_09BLBHBJP@?$GAvbtable?8@ 10021ebc     libvcruntime:undname.obj
 0002:00001ec8       ??_C@_07FEEIOKP@?$GAvcall?8@ 10021ec8     libvcruntime:undname.obj
 0002:00001ed0       ??_C@_08LLFFHHDJ@?$GAtypeof?8@ 10021ed0     libvcruntime:undname.obj
 0002:00001edc       ??_C@_0BF@KDPPACIK@?$GAlocal?5static?5guard?8@ 10021edc     libvcruntime:undname.obj
 0002:00001ef4       ??_C@_08OBABFOLI@?$GAstring?8@ 10021ef4     libvcruntime:undname.obj
 0002:00001f00       ??_C@_0BD@JDLKDPAB@?$GAvbase?5destructor?8@ 10021f00     libvcruntime:undname.obj
 0002:00001f14       ??_C@_0BN@DEGPLNFK@?$GAvector?5deleting?5destructor?8@ 10021f14     libvcruntime:undname.obj
 0002:00001f34       ??_C@_0BO@OBMKPJIG@?$GAdefault?5constructor?5closure?8@ 10021f34     libvcruntime:undname.obj
 0002:00001f54       ??_C@_0BN@IMDCHIKM@?$GAscalar?5deleting?5destructor?8@ 10021f54     libvcruntime:undname.obj
 0002:00001f74       ??_C@_0BO@PFGOCPJJ@?$GAvector?5constructor?5iterator?8@ 10021f74     libvcruntime:undname.obj
 0002:00001f94       ??_C@_0BN@LFPFMEDL@?$GAvector?5destructor?5iterator?8@ 10021f94     libvcruntime:undname.obj
 0002:00001fb4       ??_C@_0CE@IKBNEHA@?$GAvector?5vbase?5constructor?5itera@ 10021fb4     libvcruntime:undname.obj
 0002:00001fd8       ??_C@_0BL@NILFHHPC@?$GAvirtual?5displacement?5map?8@ 10021fd8     libvcruntime:undname.obj
 0002:00001ff4       ??_C@_0CB@JONCMFFK@?$GAeh?5vector?5constructor?5iterator@ 10021ff4     libvcruntime:undname.obj
 0002:00002018       ??_C@_0CA@GCEOPDGL@?$GAeh?5vector?5destructor?5iterator?8@ 10022018     libvcruntime:undname.obj
 0002:00002038       ??_C@_0CH@OOJPLCPH@?$GAeh?5vector?5vbase?5constructor?5it@ 10022038     libvcruntime:undname.obj
 0002:00002060       ??_C@_0BL@LLKPOHJI@?$GAcopy?5constructor?5closure?8@ 10022060     libvcruntime:undname.obj
 0002:0000207c       ??_C@_0BA@KBCDOMBN@?$GAudt?5returning?8@ 1002207c     libvcruntime:undname.obj
 0002:0000208c       ??_C@_03KLGMFNMG@?$GAEH@   1002208c     libvcruntime:undname.obj
 0002:00002090       ??_C@_05KHLCHHI@?$GARTTI@  10022090     libvcruntime:undname.obj
 0002:00002098       ??_C@_0BA@KKLDJDLB@?$GAlocal?5vftable?8@ 10022098     libvcruntime:undname.obj
 0002:000020a8       ??_C@_0CE@IIHCMGGL@?$GAlocal?5vftable?5constructor?5clos@ 100220a8     libvcruntime:undname.obj
 0002:000020cc       ??_C@_06FHBGPFGH@?5new?$FL?$FN@ 100220cc     libvcruntime:undname.obj
 0002:000020d4       ??_C@_09LBNFPBCA@?5delete?$FL?$FN@ 100220d4     libvcruntime:undname.obj
 0002:000020e0       ??_C@_0P@HJKNJFNN@?$GAomni?5callsig?8@ 100220e0     libvcruntime:undname.obj
 0002:000020f0       ??_C@_0BL@CNOONJFP@?$GAplacement?5delete?5closure?8@ 100220f0     libvcruntime:undname.obj
 0002:0000210c       ??_C@_0BN@CKNJLHMB@?$GAplacement?5delete?$FL?$FN?5closure?8@ 1002210c     libvcruntime:undname.obj
 0002:0000212c       ??_C@_0CG@CFDHKGGD@?$GAmanaged?5vector?5constructor?5ite@ 1002212c     libvcruntime:undname.obj
 0002:00002154       ??_C@_0CF@IMGKMJNO@?$GAmanaged?5vector?5destructor?5iter@ 10022154     libvcruntime:undname.obj
 0002:0000217c       ??_C@_0CG@HLDDJMAG@?$GAeh?5vector?5copy?5constructor?5ite@ 1002217c     libvcruntime:undname.obj
 0002:000021a4       ??_C@_0CM@FCBBDIGB@?$GAeh?5vector?5vbase?5copy?5construct@ 100221a4     libvcruntime:undname.obj
 0002:000021d0       ??_C@_0BL@CLIPGLGB@?$GAdynamic?5initializer?5for?5?8@ 100221d0     libvcruntime:undname.obj
 0002:000021ec       ??_C@_0CB@PDBIFEP@?$GAdynamic?5atexit?5destructor?5for?5@ 100221ec     libvcruntime:undname.obj
 0002:00002210       ??_C@_0CD@CGAJBKEJ@?$GAvector?5copy?5constructor?5iterat@ 10022210     libvcruntime:undname.obj
 0002:00002234       ??_C@_0CJ@GJELGAMM@?$GAvector?5vbase?5copy?5constructor?5@ 10022234     libvcruntime:undname.obj
 0002:00002260       ??_C@_0CL@FGIJHLCE@?$GAmanaged?5vector?5copy?5constructo@ 10022260     libvcruntime:undname.obj
 0002:0000228c       ??_C@_0BM@PMGGMLDN@?$GAlocal?5static?5thread?5guard?8@ 1002228c     libvcruntime:undname.obj
 0002:000022a8       ??_C@_0N@BDNMDMOL@operator?5?$CC?$CC?5@ 100222a8     libvcruntime:undname.obj
 0002:000022b8       ??_C@_0BC@GGEBGALA@operator?5co_await@ 100222b8     libvcruntime:undname.obj
 0002:000022cc       ??_C@_0M@GAAIMMOH@operator?$DM?$DN?$DO@ 100222cc     libvcruntime:undname.obj
 0002:000022d8       ??_C@_0BC@DAFEJGAK@?5Type?5Descriptor?8@ 100222d8     libvcruntime:undname.obj
 0002:000022ec       ??_C@_0BM@LDKODKLH@?5Base?5Class?5Descriptor?5at?5?$CI@ 100222ec     libvcruntime:undname.obj
 0002:00002308       ??_C@_0BD@LGICGFMM@?5Base?5Class?5Array?8@ 10022308     libvcruntime:undname.obj
 0002:0000231c       ??_C@_0BN@MECKDCOJ@?5Class?5Hierarchy?5Descriptor?8@ 1002231c     libvcruntime:undname.obj
 0002:0000233c       ??_C@_0BK@CFCOFLF@?5Complete?5Object?5Locator?8@ 1002233c     libvcruntime:undname.obj
 0002:00002358       ??_C@_0BG@JNJLAMPM@?$GAanonymous?5namespace?8@ 10022358     libvcruntime:undname.obj
 0002:0000237c       ??_C@_1DM@KHCHBNEB@?$AAa?$AAp?$AAi?$AA?9?$AAm?$AAs?$AA?9?$AAw?$AAi?$AAn?$AA?9?$AAc?$AAo?$AAr?$AAe@ 1002237c     libvcruntime:winapi_downlevel.obj
 0002:000023b8       ??_C@_1DK@LPPGFMPP@?$AAa?$AAp?$AAi?$AA?9?$AAm?$AAs?$AA?9?$AAw?$AAi?$AAn?$AA?9?$AAc?$AAo?$AAr?$AAe@ 100223b8     libvcruntime:winapi_downlevel.obj
 0002:000023f4       ??_C@_1BC@GDMECMAK@?$AAk?$AAe?$AAr?$AAn?$AAe?$AAl?$AA3?$AA2@ 100223f4     libvcruntime:winapi_downlevel.obj
 0002:00002408       ??_C@_1BA@PFFKHIOG@?$AAa?$AAp?$AAi?$AA?9?$AAm?$AAs?$AA?9@ 10022408     libvcruntime:winapi_downlevel.obj
 0002:00002420       ??_C@_08KNHFBNJ@FlsAlloc@  10022420     libvcruntime:winapi_downlevel.obj
 0002:00002434       ??_C@_07PEJMOBNF@FlsFree@  10022434     libvcruntime:winapi_downlevel.obj
 0002:00002444       ??_C@_0M@GDNOONDI@FlsGetValue@ 10022444     libvcruntime:winapi_downlevel.obj
 0002:00002458       ??_C@_0M@JCPCPOEF@FlsSetValue@ 10022458     libvcruntime:winapi_downlevel.obj
 0002:0000246c       ??_C@_0BM@HCFOFFN@InitializeCriticalSectionEx@ 1002246c     libvcruntime:winapi_downlevel.obj
 0002:000025f0       ?format_validation_lookup_table_spectre@__crt_stdio_output@@3V?$spectre_mitigated_lookup_table@Ustate_transition_pair@__crt_stdio_output@@$0IA@@1@B 100225f0     libucrt:output.obj
 0002:000029f0       ??_C@_1O@CEDCILHN@?$AA?$CI?$AAn?$AAu?$AAl?$AAl?$AA?$CJ@ 100229f0     libucrt:output.obj
 0002:00002a00       ??_C@_06OJHGLDPL@?$CInull?$CJ@ 10022a00     libucrt:output.obj
 0002:00002a08       ___acrt_exception_action_table 10022a08     libucrt:exception_filter.obj
 0002:00002a98       ___acrt_signal_action_table_count 10022a98     libucrt:exception_filter.obj
 0002:00002a9c       ___acrt_signal_action_first_fpe_index 10022a9c     libucrt:exception_filter.obj
 0002:00002aa0       ___acrt_signal_action_fpe_count 10022aa0     libucrt:exception_filter.obj
 0002:00002aa4       ??_C@_1BI@BGOHAHKC@?$AAm?$AAs?$AAc?$AAo?$AAr?$AAe?$AAe?$AA?4?$AAd?$AAl?$AAl@ 10022aa4     libucrt:exit.obj
 0002:00002abc       ??_C@_0P@MIGLKIOC@CorExitProcess@ 10022abc     libucrt:exit.obj
 0002:00002ba0       ??_C@_1EA@JGEFHKEI@?$AAa?$AAp?$AAi?$AA?9?$AAm?$AAs?$AA?9?$AAw?$AAi?$AAn?$AA?9?$AAc?$AAo?$AAr?$AAe@ 10022ba0     libucrt:winapi_thunks.obj
 0002:00002be0       ??_C@_1DI@IJCEHOCB@?$AAa?$AAp?$AAi?$AA?9?$AAm?$AAs?$AA?9?$AAw?$AAi?$AAn?$AA?9?$AAc?$AAo?$AAr?$AAe@ 10022be0     libucrt:winapi_thunks.obj
 0002:00002c18       ??_C@_1EI@MPIAOHOC@?$AAa?$AAp?$AAi?$AA?9?$AAm?$AAs?$AA?9?$AAw?$AAi?$AAn?$AA?9?$AAc?$AAo?$AAr?$AAe@ 10022c18     libucrt:winapi_thunks.obj
 0002:00002c60       ??_C@_1FK@FPHCKFIE@?$AAa?$AAp?$AAi?$AA?9?$AAm?$AAs?$AA?9?$AAw?$AAi?$AAn?$AA?9?$AAc?$AAo?$AAr?$AAe@ 10022c60     libucrt:winapi_thunks.obj
 0002:00002cc0       ??_C@_1EM@DILCGIIO@?$AAa?$AAp?$AAi?$AA?9?$AAm?$AAs?$AA?9?$AAw?$AAi?$AAn?$AA?9?$AAc?$AAo?$AAr?$AAe@ 10022cc0     libucrt:winapi_thunks.obj
 0002:00002d0c       ??_C@_1DM@LNCGDDPN@?$AAa?$AAp?$AAi?$AA?9?$AAm?$AAs?$AA?9?$AAw?$AAi?$AAn?$AA?9?$AAc?$AAo?$AAr?$AAe@ 10022d0c     libucrt:winapi_thunks.obj
 0002:00002d48       ??_C@_1DO@FPAPJEMD@?$AAa?$AAp?$AAi?$AA?9?$AAm?$AAs?$AA?9?$AAw?$AAi?$AAn?$AA?9?$AAc?$AAo?$AAr?$AAe@ 10022d48     libucrt:winapi_thunks.obj
 0002:00002d88       ??_C@_1DK@NDHNAHIO@?$AAa?$AAp?$AAi?$AA?9?$AAm?$AAs?$AA?9?$AAw?$AAi?$AAn?$AA?9?$AAc?$AAo?$AAr?$AAe@ 10022d88     libucrt:winapi_thunks.obj
 0002:00002dc4       ??_C@_1DM@KGHDGBCM@?$AAa?$AAp?$AAi?$AA?9?$AAm?$AAs?$AA?9?$AAw?$AAi?$AAn?$AA?9?$AAc?$AAo?$AAr?$AAe@ 10022dc4     libucrt:winapi_thunks.obj
 0002:00002e00       ??_C@_1EO@IJIOEFOH@?$AAa?$AAp?$AAi?$AA?9?$AAm?$AAs?$AA?9?$AAw?$AAi?$AAn?$AA?9?$AAr?$AAt?$AAc?$AAo@ 10022e00     libucrt:winapi_thunks.obj
 0002:00002e50       ??_C@_1FG@HHGEKANL@?$AAa?$AAp?$AAi?$AA?9?$AAm?$AAs?$AA?9?$AAw?$AAi?$AAn?$AA?9?$AAs?$AAe?$AAc?$AAu@ 10022e50     libucrt:winapi_thunks.obj
 0002:00002ea8       ??_C@_1EG@DBIOJECG@?$AAe?$AAx?$AAt?$AA?9?$AAm?$AAs?$AA?9?$AAw?$AAi?$AAn?$AA?9?$AAn?$AAt?$AAu?$AAs@ 10022ea8     libucrt:winapi_thunks.obj
 0002:00002ef0       ??_C@_1EO@FIHMJCLF@?$AAe?$AAx?$AAt?$AA?9?$AAm?$AAs?$AA?9?$AAw?$AAi?$AAn?$AA?9?$AAn?$AAt?$AAu?$AAs@ 10022ef0     libucrt:winapi_thunks.obj
 0002:00002f40       ??_C@_1BC@DNHGCMLG@?$AAa?$AAd?$AAv?$AAa?$AAp?$AAi?$AA3?$AA2@ 10022f40     libucrt:winapi_thunks.obj
 0002:00002f54       ??_C@_1M@OAIMIKLP@?$AAn?$AAt?$AAd?$AAl?$AAl@ 10022f54     libucrt:winapi_thunks.obj
 0002:00002f60       ??_C@_1EG@DPGNFKGC@?$AAa?$AAp?$AAi?$AA?9?$AAm?$AAs?$AA?9?$AAw?$AAi?$AAn?$AA?9?$AAa?$AAp?$AAp?$AAm@ 10022f60     libucrt:winapi_thunks.obj
 0002:00002fa8       ??_C@_1O@BCCLBEOE@?$AAu?$AAs?$AAe?$AAr?$AA3?$AA2@ 10022fa8     libucrt:winapi_thunks.obj
 0002:00002fb8       ??_C@_1BA@IAIFMGEF@?$AAe?$AAx?$AAt?$AA?9?$AAm?$AAs?$AA?9@ 10022fb8     libucrt:winapi_thunks.obj
 0002:00002fcc       ??_C@_0BA@FHFNEAED@AreFileApisANSI@ 10022fcc     libucrt:winapi_thunks.obj
 0002:0000300c       ??_C@_0O@KKBNKAPF@LCMapStringEx@ 1002300c     libucrt:winapi_thunks.obj
 0002:00003024       ??_C@_0BB@HBDEELFH@LocaleNameToLCID@ 10023024     libucrt:winapi_thunks.obj
 0002:0000303c       ??_C@_0CF@OJOFEIGO@AppPolicyGetProcessTerminationM@ 1002303c     libucrt:winapi_thunks.obj
 0002:0000306c       ??_C@_0BI@BKLFFAPO@SetThreadStackGuarantee@ 1002306c     libucrt:winapi_thunks.obj
 0002:000030c8       ??_C@_03OEIAHPBN@INF@      100230c8     libucrt:cvt.obj
 0002:000030cc       ??_C@_03OJHLLCGB@inf@      100230cc     libucrt:cvt.obj
 0002:000030d0       ??_C@_03LKNCIKJB@NAN@      100230d0     libucrt:cvt.obj
 0002:000030d4       ??_C@_03LHCJEHON@nan@      100230d4     libucrt:cvt.obj
 0002:000030d8       ??_C@_09OFJJIMPC@NAN?$CISNAN?$CJ@ 100230d8     libucrt:cvt.obj
 0002:000030e4       ??_C@_09IPFBKMDL@nan?$CIsnan?$CJ@ 100230e4     libucrt:cvt.obj
 0002:000030f0       ??_C@_08IKHNHAJ@NAN?$CIIND?$CJ@ 100230f0     libucrt:cvt.obj
 0002:000030fc       ??_C@_08OFCDMILK@nan?$CIind?$CJ@ 100230fc     libucrt:cvt.obj
 0002:00003108       ??_C@_05KLBDPFGC@e?$CL000@ 10023108     libucrt:cvt.obj
 0002:00003110       ___lc_time_c               10023110     libucrt:nlsdata.obj
 0002:00003274       ??_C@_03KOEHGMDN@Sun@      10023274     libucrt:nlsdata.obj
 0002:00003278       ??_C@_03PDAGKDH@Mon@       10023278     libucrt:nlsdata.obj
 0002:0000327c       ??_C@_03NAGEINEP@Tue@      1002327c     libucrt:nlsdata.obj
 0002:00003280       ??_C@_03MHOMLAJA@Wed@      10023280     libucrt:nlsdata.obj
 0002:00003284       ??_C@_03IOFIKPDN@Thu@      10023284     libucrt:nlsdata.obj
 0002:00003288       ??_C@_03IDIOELNC@Fri@      10023288     libucrt:nlsdata.obj
 0002:0000328c       ??_C@_03FEFJNEK@Sat@       1002328c     libucrt:nlsdata.obj
 0002:00003290       ??_C@_06OOPIFAJ@Sunday@    10023290     libucrt:nlsdata.obj
 0002:00003298       ??_C@_06JLEDEDGH@Monday@   10023298     libucrt:nlsdata.obj
 0002:000032a0       ??_C@_07BAAGCFCM@Tuesday@  100232a0     libucrt:nlsdata.obj
 0002:000032a8       ??_C@_09DLIGFAKA@Wednesday@ 100232a8     libucrt:nlsdata.obj
 0002:000032b4       ??_C@_08HACCIKIA@Thursday@ 100232b4     libucrt:nlsdata.obj
 0002:000032c0       ??_C@_06JECMNKMI@Friday@   100232c0     libucrt:nlsdata.obj
 0002:000032c8       ??_C@_08INBOOONO@Saturday@ 100232c8     libucrt:nlsdata.obj
 0002:000032d4       ??_C@_03JIHJHPIE@Jan@      100232d4     libucrt:nlsdata.obj
 0002:000032d8       ??_C@_03HJBDCHOM@Feb@      100232d8     libucrt:nlsdata.obj
 0002:000032dc       ??_C@_03ODNJBKGA@Mar@      100232dc     libucrt:nlsdata.obj
 0002:000032e0       ??_C@_03LEOLGMJP@Apr@      100232e0     libucrt:nlsdata.obj
 0002:000032e4       ??_C@_03CNMDKL@May@        100232e4     libucrt:nlsdata.obj
 0002:000032e8       ??_C@_03IDFGHECI@Jun@      100232e8     libucrt:nlsdata.obj
 0002:000032ec       ??_C@_03LBGABGKK@Jul@      100232ec     libucrt:nlsdata.obj
 0002:000032f0       ??_C@_03IFJFEIGA@Aug@      100232f0     libucrt:nlsdata.obj
 0002:000032f4       ??_C@_03GGCAPAJC@Sep@      100232f4     libucrt:nlsdata.obj
 0002:000032f8       ??_C@_03BMAOKBAD@Oct@      100232f8     libucrt:nlsdata.obj
 0002:000032fc       ??_C@_03JPJOFNIA@Nov@      100232fc     libucrt:nlsdata.obj
 0002:00003300       ??_C@_03MKABNOCG@Dec@      10023300     libucrt:nlsdata.obj
 0002:00003304       ??_C@_07CGJPFGJA@January@  10023304     libucrt:nlsdata.obj
 0002:0000330c       ??_C@_08GNJGEPFN@February@ 1002330c     libucrt:nlsdata.obj
 0002:00003318       ??_C@_05HPCKOFNC@March@    10023318     libucrt:nlsdata.obj
 0002:00003320       ??_C@_05DMJDNLEJ@April@    10023320     libucrt:nlsdata.obj
 0002:00003328       ??_C@_04CNLMGBGM@June@     10023328     libucrt:nlsdata.obj
 0002:00003330       ??_C@_04MIEPOIFP@July@     10023330     libucrt:nlsdata.obj
 0002:00003338       ??_C@_06LBBHFDDG@August@   10023338     libucrt:nlsdata.obj
 0002:00003340       ??_C@_09BHHEALKD@September@ 10023340     libucrt:nlsdata.obj
 0002:0000334c       ??_C@_07JJNFCEND@October@  1002334c     libucrt:nlsdata.obj
 0002:00003354       ??_C@_08HCHEGEOA@November@ 10023354     libucrt:nlsdata.obj
 0002:00003360       ??_C@_08EDHMEBNP@December@ 10023360     libucrt:nlsdata.obj
 0002:0000336c       ??_C@_02DEDBPAFC@AM@       1002336c     libucrt:nlsdata.obj
 0002:00003370       ??_C@_02CJNFDJBF@PM@       10023370     libucrt:nlsdata.obj
 0002:00003374       ??_C@_08BPBNCDIB@MM?1dd?1yy@ 10023374     libucrt:nlsdata.obj
 0002:00003380       ??_C@_0BE@CKGJFCPC@dddd?0?5MMMM?5dd?0?5yyyy@ 10023380     libucrt:nlsdata.obj
 0002:00003394       ??_C@_08JCCMCCIL@HH?3mm?3ss@ 10023394     libucrt:nlsdata.obj
 0002:000033a0       ??_C@_17MBGCMIPB@?$AAS?$AAu?$AAn@ 100233a0     libucrt:nlsdata.obj
 0002:000033a8       ??_C@_17KBOMKBF@?$AAM?$AAo?$AAn@ 100233a8     libucrt:nlsdata.obj
 0002:000033b0       ??_C@_17BMKGEGOJ@?$AAT?$AAu?$AAe@ 100233b0     libucrt:nlsdata.obj
 0002:000033b8       ??_C@_17CJEDCEPE@?$AAW?$AAe?$AAd@ 100233b8     libucrt:nlsdata.obj
 0002:000033c0       ??_C@_17PDPHAADD@?$AAT?$AAh?$AAu@ 100233c0     libucrt:nlsdata.obj
 0002:000033c8       ??_C@_17HFOLPPLP@?$AAF?$AAr?$AAi@ 100233c8     libucrt:nlsdata.obj
 0002:000033d0       ??_C@_17GGIBDPIH@?$AAS?$AAa?$AAt@ 100233d0     libucrt:nlsdata.obj
 0002:000033d8       ??_C@_1O@IHNHDHPB@?$AAS?$AAu?$AAn?$AAd?$AAa?$AAy@ 100233d8     libucrt:nlsdata.obj
 0002:000033e8       ??_C@_1O@MMNBFLIA@?$AAM?$AAo?$AAn?$AAd?$AAa?$AAy@ 100233e8     libucrt:nlsdata.obj
 0002:000033f8       ??_C@_1BA@ENFBFFEK@?$AAT?$AAu?$AAe?$AAs?$AAd?$AAa?$AAy@ 100233f8     libucrt:nlsdata.obj
 0002:00003408       ??_C@_1BE@EBOGMDOH@?$AAW?$AAe?$AAd?$AAn?$AAe?$AAs?$AAd?$AAa?$AAy@ 10023408     libucrt:nlsdata.obj
 0002:0000341c       ??_C@_1BC@HHMNLIHE@?$AAT?$AAh?$AAu?$AAr?$AAs?$AAd?$AAa?$AAy@ 1002341c     libucrt:nlsdata.obj
 0002:00003430       ??_C@_1O@PDICJHAG@?$AAF?$AAr?$AAi?$AAd?$AAa?$AAy@ 10023430     libucrt:nlsdata.obj
 0002:00003440       ??_C@_1BC@ENMNNPAJ@?$AAS?$AAa?$AAt?$AAu?$AAr?$AAd?$AAa?$AAy@ 10023440     libucrt:nlsdata.obj
 0002:00003454       ??_C@_17DKNBKCHM@?$AAJ?$AAa?$AAn@ 10023454     libucrt:nlsdata.obj
 0002:0000345c       ??_C@_17LMDJEKJN@?$AAF?$AAe?$AAb@ 1002345c     libucrt:nlsdata.obj
 0002:00003464       ??_C@_17CKNLEDEC@?$AAM?$AAa?$AAr@ 10023464     libucrt:nlsdata.obj
 0002:0000346c       ??_C@_17LFPOIHDD@?$AAA?$AAp?$AAr@ 1002346c     libucrt:nlsdata.obj
 0002:00003474       ??_C@_17PNNKMEED@?$AAM?$AAa?$AAy@ 10023474     libucrt:nlsdata.obj
 0002:0000347c       ??_C@_17KCJGOCPB@?$AAJ?$AAu?$AAn@ 1002347c     libucrt:nlsdata.obj
 0002:00003484       ??_C@_17IJPCKHK@?$AAJ?$AAu?$AAl@ 10023484     libucrt:nlsdata.obj
 0002:0000348c       ??_C@_17ICPELBCN@?$AAA?$AAu?$AAg@ 1002348c     libucrt:nlsdata.obj
 0002:00003494       ??_C@_17HCHCOKMG@?$AAS?$AAe?$AAp@ 10023494     libucrt:nlsdata.obj
 0002:0000349c       ??_C@_17FNLKOI@?$AAO?$AAc?$AAt@ 1002349c     libucrt:nlsdata.obj
 0002:000034a4       ??_C@_17BBDMLCIG@?$AAN?$AAo?$AAv@ 100234a4     libucrt:nlsdata.obj
 0002:000034ac       ??_C@_17EGKACKIF@?$AAD?$AAe?$AAc@ 100234ac     libucrt:nlsdata.obj
 0002:000034b4       ??_C@_1BA@EFMEIEBA@?$AAJ?$AAa?$AAn?$AAu?$AAa?$AAr?$AAy@ 100234b4     libucrt:nlsdata.obj
 0002:000034c4       ??_C@_1BC@JGDDFFAM@?$AAF?$AAe?$AAb?$AAr?$AAu?$AAa?$AAr?$AAy@ 100234c4     libucrt:nlsdata.obj
 0002:000034d8       ??_C@_1M@IKEENEDF@?$AAM?$AAa?$AAr?$AAc?$AAh@ 100234d8     libucrt:nlsdata.obj
 0002:000034e4       ??_C@_1M@GJNLMHFD@?$AAA?$AAp?$AAr?$AAi?$AAl@ 100234e4     libucrt:nlsdata.obj
 0002:000034f0       ??_C@_19EPFLPGAP@?$AAJ?$AAu?$AAn?$AAe@ 100234f0     libucrt:nlsdata.obj
 0002:000034fc       ??_C@_19BIFMLPCD@?$AAJ?$AAu?$AAl?$AAy@ 100234fc     libucrt:nlsdata.obj
 0002:00003508       ??_C@_1O@PAHLKOAC@?$AAA?$AAu?$AAg?$AAu?$AAs?$AAt@ 10023508     libucrt:nlsdata.obj
 0002:00003518       ??_C@_1BE@DKAAMBJL@?$AAS?$AAe?$AAp?$AAt?$AAe?$AAm?$AAb?$AAe?$AAr@ 10023518     libucrt:nlsdata.obj
 0002:0000352c       ??_C@_1BA@EPANDLNG@?$AAO?$AAc?$AAt?$AAo?$AAb?$AAe?$AAr@ 1002352c     libucrt:nlsdata.obj
 0002:0000353c       ??_C@_1BC@BGLIFPF@?$AAN?$AAo?$AAv?$AAe?$AAm?$AAb?$AAe?$AAr@ 1002353c     libucrt:nlsdata.obj
 0002:00003550       ??_C@_1BC@FEMKIFH@?$AAD?$AAe?$AAc?$AAe?$AAm?$AAb?$AAe?$AAr@ 10023550     libucrt:nlsdata.obj
 0002:00003564       ??_C@_15ODEHAHHF@?$AAA?$AAM@ 10023564     libucrt:nlsdata.obj
 0002:0000356c       ??_C@_15CLMNNGEL@?$AAP?$AAM@ 1002356c     libucrt:nlsdata.obj
 0002:00003574       ??_C@_1BC@IEBCMHCM@?$AAM?$AAM?$AA?1?$AAd?$AAd?$AA?1?$AAy?$AAy@ 10023574     libucrt:nlsdata.obj
 0002:00003588       ??_C@_1CI@KNAKOEBC@?$AAd?$AAd?$AAd?$AAd?$AA?0?$AA?5?$AAM?$AAM?$AAM?$AAM?$AA?5?$AAd?$AAd?$AA?0?$AA?5@ 10023588     libucrt:nlsdata.obj
 0002:000035b0       ??_C@_1BC@GDGBMEMK@?$AAH?$AAH?$AA?3?$AAm?$AAm?$AA?3?$AAs?$AAs@ 100235b0     libucrt:nlsdata.obj
 0002:000035c4       ??_C@_1M@BMHNFIME@?$AAe?$AAn?$AA?9?$AAU?$AAS@ 100235c4     libucrt:nlsdata.obj
 0002:000035e0       ??_C@_1M@HPNHIDJI@?$AAj?$AAa?$AA?9?$AAJ?$AAP@ 100235e0     libucrt:mbctype.obj
 0002:000035ec       ??_C@_1M@BIBDDEMK@?$AAz?$AAh?$AA?9?$AAC?$AAN@ 100235ec     libucrt:mbctype.obj
 0002:000035f8       ??_C@_1M@JLOOOEGK@?$AAk?$AAo?$AA?9?$AAK?$AAR@ 100235f8     libucrt:mbctype.obj
 0002:00003604       ??_C@_1M@CLNBBOPM@?$AAz?$AAh?$AA?9?$AAT?$AAW@ 10023604     libucrt:mbctype.obj
 0002:00003610       ___newctype                10023610     libucrt:ctype.obj
 0002:00003910       ___newclmap                10023910     libucrt:ctype.obj
 0002:00003a90       ___newcumap                10023a90     libucrt:ctype.obj
 0002:00003c10       __wctype                   10023c10     libucrt:ctype.obj
 0002:00004538       ??_C@_15EMKDOKLE@?$AAa?$AAr@ 10024538     libucrt:lcidtoname_downlevel.obj
 0002:00004540       ??_C@_15KNPADPLH@?$AAb?$AAg@ 10024540     libucrt:lcidtoname_downlevel.obj
 0002:00004548       ??_C@_15EDMHLDMO@?$AAc?$AAa@ 10024548     libucrt:lcidtoname_downlevel.obj
 0002:00004550       ??_C@_1O@BPEAJADD@?$AAz?$AAh?$AA?9?$AAC?$AAH?$AAS@ 10024550     libucrt:lcidtoname_downlevel.obj
 0002:00004560       ??_C@_15LJNHCMNK@?$AAc?$AAs@ 10024560     libucrt:lcidtoname_downlevel.obj
 0002:00004568       ??_C@_15FOMCIDHG@?$AAd?$AAa@ 10024568     libucrt:lcidtoname_downlevel.obj
 0002:00004570       ??_C@_15NBKABECB@?$AAd?$AAe@ 10024570     libucrt:lcidtoname_downlevel.obj
 0002:00004578       ??_C@_15GHPEIIAO@?$AAe?$AAl@ 10024578     libucrt:lcidtoname_downlevel.obj
 0002:00004580       ??_C@_15MNPNEAIF@?$AAe?$AAn@ 10024580     libucrt:lcidtoname_downlevel.obj
 0002:00004588       ??_C@_15GPIOMPMH@?$AAe?$AAs@ 10024588     libucrt:lcidtoname_downlevel.obj
 0002:00004590       ??_C@_15NGLOAKJC@?$AAf?$AAi@ 10024590     libucrt:lcidtoname_downlevel.obj
 0002:00004598       ??_C@_15FBKGNKAM@?$AAf?$AAr@ 10024598     libucrt:lcidtoname_downlevel.obj
 0002:000045a0       ??_C@_15KGGCNEFK@?$AAh?$AAe@ 100245a0     libucrt:lcidtoname_downlevel.obj
 0002:000045a8       ??_C@_15PGHLIDMF@?$AAh?$AAu@ 100245a8     libucrt:lcidtoname_downlevel.obj
 0002:000045b0       ??_C@_15BIEMAPLM@?$AAi?$AAs@ 100245b0     libucrt:lcidtoname_downlevel.obj
 0002:000045b8       ??_C@_15IFJLDHAF@?$AAi?$AAt@ 100245b8     libucrt:lcidtoname_downlevel.obj
 0002:000045c0       ??_C@_15GEMIOCAG@?$AAj?$AAa@ 100245c0     libucrt:lcidtoname_downlevel.obj
 0002:000045c8       ??_C@_15EPELEGJA@?$AAk?$AAo@ 100245c8     libucrt:lcidtoname_downlevel.obj
 0002:000045d0       ??_C@_15NDDHIMN@?$AAn?$AAl@ 100245d0     libucrt:lcidtoname_downlevel.obj
 0002:000045d8       ??_C@_15BPIGNHCD@?$AAn?$AAo@ 100245d8     libucrt:lcidtoname_downlevel.obj
 0002:000045e0       ??_C@_15DEOPBLCG@?$AAp?$AAl@ 100245e0     libucrt:lcidtoname_downlevel.obj
 0002:000045e8       ??_C@_15KBECGEFG@?$AAp?$AAt@ 100245e8     libucrt:lcidtoname_downlevel.obj
 0002:000045f0       ??_C@_15GLJCBFMD@?$AAr?$AAo@ 100245f0     libucrt:lcidtoname_downlevel.obj
 0002:000045f8       ??_C@_15FEDGKCDI@?$AAr?$AAu@ 100245f8     libucrt:lcidtoname_downlevel.obj
 0002:00004600       ??_C@_15GLKMLLHM@?$AAh?$AAr@ 10024600     libucrt:lcidtoname_downlevel.obj
 0002:00004608       ??_C@_15CPKMFBDB@?$AAs?$AAk@ 10024608     libucrt:lcidtoname_downlevel.obj
 0002:00004610       ??_C@_15BAAIOGMK@?$AAs?$AAq@ 10024610     libucrt:lcidtoname_downlevel.obj
 0002:00004618       ??_C@_15INNPNOHD@?$AAs?$AAv@ 10024618     libucrt:lcidtoname_downlevel.obj
 0002:00004620       ??_C@_15CABMMOGH@?$AAt?$AAh@ 10024620     libucrt:lcidtoname_downlevel.obj
 0002:00004628       ??_C@_15BPLIHJJM@?$AAt?$AAr@ 10024628     libucrt:lcidtoname_downlevel.obj
 0002:00004630       ??_C@_15NEOEKKDJ@?$AAu?$AAr@ 10024630     libucrt:lcidtoname_downlevel.obj
 0002:00004638       ??_C@_15NFICGAJK@?$AAi?$AAd@ 10024638     libucrt:lcidtoname_downlevel.obj
 0002:00004640       ??_C@_15PJPFLCCM@?$AAu?$AAk@ 10024640     libucrt:lcidtoname_downlevel.obj
 0002:00004648       ??_C@_15HPJPHDM@?$AAb?$AAe@ 10024648     libucrt:lcidtoname_downlevel.obj
 0002:00004650       ??_C@_15LCHLGJII@?$AAs?$AAl@ 10024650     libucrt:lcidtoname_downlevel.obj
 0002:00004658       ??_C@_15PCFJPHHO@?$AAe?$AAt@ 10024658     libucrt:lcidtoname_downlevel.obj
 0002:00004660       ??_C@_15HPFPGODN@?$AAl?$AAv@ 10024660     libucrt:lcidtoname_downlevel.obj
 0002:00004668       ??_C@_15NFFGKGLG@?$AAl?$AAt@ 10024668     libucrt:lcidtoname_downlevel.obj
 0002:00004670       ??_C@_15BDAKCCHN@?$AAf?$AAa@ 10024670     libucrt:lcidtoname_downlevel.obj
 0002:00004678       ??_C@_15NFGIAIAJ@?$AAv?$AAi@ 10024678     libucrt:lcidtoname_downlevel.obj
 0002:00004680       ??_C@_15LMKNDMHN@?$AAh?$AAy@ 10024680     libucrt:lcidtoname_downlevel.obj
 0002:00004688       ??_C@_15IJBHMCFL@?$AAa?$AAz@ 10024688     libucrt:lcidtoname_downlevel.obj
 0002:00004690       ??_C@_15EKOFJABL@?$AAe?$AAu@ 10024690     libucrt:lcidtoname_downlevel.obj
 0002:00004698       ??_C@_15BGHADCNK@?$AAm?$AAk@ 10024698     libucrt:lcidtoname_downlevel.obj
 0002:000046a0       ??_C@_15JDNICKHM@?$AAa?$AAf@ 100246a0     libucrt:lcidtoname_downlevel.obj
 0002:000046a8       ??_C@_15KPJEDBKD@?$AAk?$AAa@ 100246a8     libucrt:lcidtoname_downlevel.obj
 0002:000046b0       ??_C@_15PDNFFFEO@?$AAf?$AAo@ 100246b0     libucrt:lcidtoname_downlevel.obj
 0002:000046b8       ??_C@_15OMLEGLOC@?$AAh?$AAi@ 100246b8     libucrt:lcidtoname_downlevel.obj
 0002:000046c0       ??_C@_15IDNNENKK@?$AAm?$AAs@ 100246c0     libucrt:lcidtoname_downlevel.obj
 0002:000046c8       ??_C@_15MACJNBMH@?$AAk?$AAk@ 100246c8     libucrt:lcidtoname_downlevel.obj
 0002:000046d0       ??_C@_15DKDJEOND@?$AAk?$AAy@ 100246d0     libucrt:lcidtoname_downlevel.obj
 0002:000046d8       ??_C@_15DFGDLJBG@?$AAs?$AAw@ 100246d8     libucrt:lcidtoname_downlevel.obj
 0002:000046e0       ??_C@_15BBFAICNG@?$AAu?$AAz@ 100246e0     libucrt:lcidtoname_downlevel.obj
 0002:000046e8       ??_C@_15DKNDCGEA@?$AAt?$AAt@ 100246e8     libucrt:lcidtoname_downlevel.obj
 0002:000046f0       ??_C@_15MGIFMDPL@?$AAp?$AAa@ 100246f0     libucrt:lcidtoname_downlevel.obj
 0002:000046f8       ??_C@_15HCNDBBA@?$AAg?$AAu@ 100246f8     libucrt:lcidtoname_downlevel.obj
 0002:00004700       ??_C@_15FNBEIBON@?$AAt?$AAa@ 10024700     libucrt:lcidtoname_downlevel.obj
 0002:00004708       ??_C@_15NCHGBGLK@?$AAt?$AAe@ 10024708     libucrt:lcidtoname_downlevel.obj
 0002:00004710       ??_C@_15PHPHCBPF@?$AAk?$AAn@ 10024710     libucrt:lcidtoname_downlevel.obj
 0002:00004718       ??_C@_15DLGBCKMP@?$AAm?$AAr@ 10024718     libucrt:lcidtoname_downlevel.obj
 0002:00004720       ??_C@_15EABBLBFF@?$AAs?$AAa@ 10024720     libucrt:lcidtoname_downlevel.obj
 0002:00004728       ??_C@_15CBKOMCOI@?$AAm?$AAn@ 10024728     libucrt:lcidtoname_downlevel.obj
 0002:00004730       ??_C@_15CKDMCJAF@?$AAg?$AAl@ 10024730     libucrt:lcidtoname_downlevel.obj
 0002:00004738       ??_C@_17CNJFBPG@?$AAk?$AAo?$AAk@ 10024738     libucrt:lcidtoname_downlevel.obj
 0002:00004740       ??_C@_17FFBJICPL@?$AAs?$AAy?$AAr@ 10024740     libucrt:lcidtoname_downlevel.obj
 0002:00004748       ??_C@_17KPNDCPAF@?$AAd?$AAi?$AAv@ 10024748     libucrt:lcidtoname_downlevel.obj
 0002:00004750       ??_C@_1M@OKAHONE@?$AAa?$AAr?$AA?9?$AAS?$AAA@ 10024750     libucrt:lcidtoname_downlevel.obj
 0002:0000475c       ??_C@_1M@FFFIGIGK@?$AAb?$AAg?$AA?9?$AAB?$AAG@ 1002475c     libucrt:lcidtoname_downlevel.obj
 0002:00004768       ??_C@_1M@BJNKEDC@?$AAc?$AAa?$AA?9?$AAE?$AAS@ 10024768     libucrt:lcidtoname_downlevel.obj
 0002:00004774       ??_C@_1M@IJJHFJHA@?$AAc?$AAs?$AA?9?$AAC?$AAZ@ 10024774     libucrt:lcidtoname_downlevel.obj
 0002:00004780       ??_C@_1M@CLPEOBGI@?$AAd?$AAa?$AA?9?$AAD?$AAK@ 10024780     libucrt:lcidtoname_downlevel.obj
 0002:0000478c       ??_C@_1M@MCMADGCB@?$AAd?$AAe?$AA?9?$AAD?$AAE@ 1002478c     libucrt:lcidtoname_downlevel.obj
 0002:00004798       ??_C@_1M@OOCKEMAM@?$AAe?$AAl?$AA?9?$AAG?$AAR@ 10024798     libucrt:lcidtoname_downlevel.obj
 0002:000047a4       ??_C@_1M@DDNJFGID@?$AAf?$AAi?$AA?9?$AAF?$AAI@ 100247a4     libucrt:lcidtoname_downlevel.obj
 0002:000047b0       ??_C@_1M@GLIPPMAC@?$AAf?$AAr?$AA?9?$AAF?$AAR@ 100247b0     libucrt:lcidtoname_downlevel.obj
 0002:000047bc       ??_C@_1M@GFMCHPE@?$AAh?$AAe?$AA?9?$AAI?$AAL@ 100247bc     libucrt:lcidtoname_downlevel.obj
 0002:000047c8       ??_C@_1M@MHLPGNKM@?$AAh?$AAu?$AA?9?$AAH?$AAU@ 100247c8     libucrt:lcidtoname_downlevel.obj
 0002:000047d4       ??_C@_1M@LPDDNNPN@?$AAi?$AAs?$AA?9?$AAI?$AAS@ 100247d4     libucrt:lcidtoname_downlevel.obj
 0002:000047e0       ??_C@_1M@MADIPODN@?$AAi?$AAt?$AA?9?$AAI?$AAT@ 100247e0     libucrt:lcidtoname_downlevel.obj
 0002:000047ec       ??_C@_1M@IHBJJGG@?$AAn?$AAl?$AA?9?$AAN?$AAL@ 100247ec     libucrt:lcidtoname_downlevel.obj
 0002:000047f8       ??_C@_1M@EANAGDL@?$AAn?$AAb?$AA?9?$AAN?$AAO@ 100247f8     libucrt:lcidtoname_downlevel.obj
 0002:00004804       ??_C@_1M@NEIEMEGP@?$AAp?$AAl?$AA?9?$AAP?$AAL@ 10024804     libucrt:lcidtoname_downlevel.obj
 0002:00004810       ??_C@_1M@BOCFIGEP@?$AAp?$AAt?$AA?9?$AAB?$AAR@ 10024810     libucrt:lcidtoname_downlevel.obj
 0002:0000481c       ??_C@_1M@IMPFOPBG@?$AAr?$AAo?$AA?9?$AAR?$AAO@ 1002481c     libucrt:lcidtoname_downlevel.obj
 0002:00004828       ??_C@_1M@IDNNEJMM@?$AAr?$AAu?$AA?9?$AAR?$AAU@ 10024828     libucrt:lcidtoname_downlevel.obj
 0002:00004834       ??_C@_1M@LILEEOGM@?$AAh?$AAr?$AA?9?$AAH?$AAR@ 10024834     libucrt:lcidtoname_downlevel.obj
 0002:00004840       ??_C@_1M@FKIFEHPB@?$AAs?$AAk?$AA?9?$AAS?$AAK@ 10024840     libucrt:lcidtoname_downlevel.obj
 0002:0000484c       ??_C@_1M@LJMAMNPJ@?$AAs?$AAq?$AA?9?$AAA?$AAL@ 1002484c     libucrt:lcidtoname_downlevel.obj
 0002:00004858       ??_C@_1M@GIAKDKJK@?$AAs?$AAv?$AA?9?$AAS?$AAE@ 10024858     libucrt:lcidtoname_downlevel.obj
 0002:00004864       ??_C@_1M@MKJKIKCL@?$AAt?$AAh?$AA?9?$AAT?$AAH@ 10024864     libucrt:lcidtoname_downlevel.obj
 0002:00004870       ??_C@_1M@MFLCCMPB@?$AAt?$AAr?$AA?9?$AAT?$AAR@ 10024870     libucrt:lcidtoname_downlevel.obj
 0002:0000487c       ??_C@_1M@OIJHDKJN@?$AAu?$AAr?$AA?9?$AAP?$AAK@ 1002487c     libucrt:lcidtoname_downlevel.obj
 0002:00004888       ??_C@_1M@LHIPCIEK@?$AAi?$AAd?$AA?9?$AAI?$AAD@ 10024888     libucrt:lcidtoname_downlevel.obj
 0002:00004894       ??_C@_1M@MFMOBGI@?$AAu?$AAk?$AA?9?$AAU?$AAA@ 10024894     libucrt:lcidtoname_downlevel.obj
 0002:000048a0       ??_C@_1M@OBGLJIPL@?$AAb?$AAe?$AA?9?$AAB?$AAY@ 100248a0     libucrt:lcidtoname_downlevel.obj
 0002:000048ac       ??_C@_1M@BCFAJEAD@?$AAs?$AAl?$AA?9?$AAS?$AAI@ 100248ac     libucrt:lcidtoname_downlevel.obj
 0002:000048b8       ??_C@_1M@FKFFEDDN@?$AAe?$AAt?$AA?9?$AAE?$AAE@ 100248b8     libucrt:lcidtoname_downlevel.obj
 0002:000048c4       ??_C@_1M@KGKKAACI@?$AAl?$AAv?$AA?9?$AAL?$AAV@ 100248c4     libucrt:lcidtoname_downlevel.obj
 0002:000048d0       ??_C@_1M@IFGBIJO@?$AAl?$AAt?$AA?9?$AAL?$AAT@ 100248d0     libucrt:lcidtoname_downlevel.obj
 0002:000048dc       ??_C@_1M@FGEAHEDM@?$AAf?$AAa?$AA?9?$AAI?$AAR@ 100248dc     libucrt:lcidtoname_downlevel.obj
 0002:000048e8       ??_C@_1M@KBMAIBFN@?$AAv?$AAi?$AA?9?$AAV?$AAN@ 100248e8     libucrt:lcidtoname_downlevel.obj
 0002:000048f4       ??_C@_1M@GPCBKDJK@?$AAh?$AAy?$AA?9?$AAA?$AAM@ 100248f4     libucrt:lcidtoname_downlevel.obj
 0002:00004900       ??_C@_1BG@BECMDDJB@?$AAa?$AAz?$AA?9?$AAA?$AAZ?$AA?9?$AAL?$AAa?$AAt?$AAn@ 10024900     libucrt:lcidtoname_downlevel.obj
 0002:00004918       ??_C@_1M@MAOFCAEA@?$AAe?$AAu?$AA?9?$AAE?$AAS@ 10024918     libucrt:lcidtoname_downlevel.obj
 0002:00004924       ??_C@_1M@IGHABKPI@?$AAm?$AAk?$AA?9?$AAM?$AAK@ 10024924     libucrt:lcidtoname_downlevel.obj
 0002:00004930       ??_C@_1M@IAIGNEJG@?$AAt?$AAn?$AA?9?$AAZ?$AAA@ 10024930     libucrt:lcidtoname_downlevel.obj
 0002:0000493c       ??_C@_1M@IIJCOJFA@?$AAx?$AAh?$AA?9?$AAZ?$AAA@ 1002493c     libucrt:lcidtoname_downlevel.obj
 0002:00004948       ??_C@_1M@LGPJHNJH@?$AAz?$AAu?$AA?9?$AAZ?$AAA@ 10024948     libucrt:lcidtoname_downlevel.obj
 0002:00004954       ??_C@_1M@HOKAOIO@?$AAa?$AAf?$AA?9?$AAZ?$AAA@ 10024954     libucrt:lcidtoname_downlevel.obj
 0002:00004960       ??_C@_1M@DPCLHLIE@?$AAk?$AAa?$AA?9?$AAG?$AAE@ 10024960     libucrt:lcidtoname_downlevel.obj
 0002:0000496c       ??_C@_1M@BLKMHJBI@?$AAf?$AAo?$AA?9?$AAF?$AAO@ 1002496c     libucrt:lcidtoname_downlevel.obj
 0002:00004978       ??_C@_1M@LGGJAPPB@?$AAh?$AAi?$AA?9?$AAI?$AAN@ 10024978     libucrt:lcidtoname_downlevel.obj
 0002:00004984       ??_C@_1M@FIKPIHFE@?$AAm?$AAt?$AA?9?$AAM?$AAT@ 10024984     libucrt:lcidtoname_downlevel.obj
 0002:00004990       ??_C@_1M@HEGGPBFA@?$AAs?$AAe?$AA?9?$AAN?$AAO@ 10024990     libucrt:lcidtoname_downlevel.obj
 0002:0000499c       ??_C@_1M@EIBJEEPA@?$AAm?$AAs?$AA?9?$AAM?$AAY@ 1002499c     libucrt:lcidtoname_downlevel.obj
 0002:000049a8       ??_C@_1M@FHLBGMPP@?$AAk?$AAk?$AA?9?$AAK?$AAZ@ 100249a8     libucrt:lcidtoname_downlevel.obj
 0002:000049b4       ??_C@_1M@NGJJLCGI@?$AAk?$AAy?$AA?9?$AAK?$AAG@ 100249b4     libucrt:lcidtoname_downlevel.obj
 0002:000049c0       ??_C@_1M@GIENNBFC@?$AAs?$AAw?$AA?9?$AAK?$AAE@ 100249c0     libucrt:lcidtoname_downlevel.obj
 0002:000049cc       ??_C@_1BG@NDGMJIMJ@?$AAu?$AAz?$AA?9?$AAU?$AAZ?$AA?9?$AAL?$AAa?$AAt?$AAn@ 100249cc     libucrt:lcidtoname_downlevel.obj
 0002:000049e4       ??_C@_1M@IDCCIHBC@?$AAt?$AAt?$AA?9?$AAR?$AAU@ 100249e4     libucrt:lcidtoname_downlevel.obj
 0002:000049f0       ??_C@_1M@LOICPMOJ@?$AAb?$AAn?$AA?9?$AAI?$AAN@ 100249f0     libucrt:lcidtoname_downlevel.obj
 0002:000049fc       ??_C@_1M@KPKKNEAH@?$AAp?$AAa?$AA?9?$AAI?$AAN@ 100249fc     libucrt:lcidtoname_downlevel.obj
 0002:00004a08       ??_C@_1M@PJGPPBOG@?$AAg?$AAu?$AA?9?$AAI?$AAN@ 10024a08     libucrt:lcidtoname_downlevel.obj
 0002:00004a14       ??_C@_1M@KMKMOPHI@?$AAt?$AAa?$AA?9?$AAI?$AAN@ 10024a14     libucrt:lcidtoname_downlevel.obj
 0002:00004a20       ??_C@_1M@KFEHEPAC@?$AAt?$AAe?$AA?9?$AAI?$AAN@ 10024a20     libucrt:lcidtoname_downlevel.obj
 0002:00004a2c       ??_C@_1M@CDCLMGHI@?$AAk?$AAn?$AA?9?$AAI?$AAN@ 10024a2c     libucrt:lcidtoname_downlevel.obj
 0002:00004a38       ??_C@_1M@MIODLDKF@?$AAm?$AAl?$AA?9?$AAI?$AAN@ 10024a38     libucrt:lcidtoname_downlevel.obj
 0002:00004a44       ??_C@_1M@PBIEACPO@?$AAm?$AAr?$AA?9?$AAI?$AAN@ 10024a44     libucrt:lcidtoname_downlevel.obj
 0002:00004a50       ??_C@_1M@NIDEAGPH@?$AAs?$AAa?$AA?9?$AAI?$AAN@ 10024a50     libucrt:lcidtoname_downlevel.obj
 0002:00004a5c       ??_C@_1M@FHIHCBIO@?$AAm?$AAn?$AA?9?$AAM?$AAN@ 10024a5c     libucrt:lcidtoname_downlevel.obj
 0002:00004a68       ??_C@_1M@JAIJPENP@?$AAc?$AAy?$AA?9?$AAG?$AAB@ 10024a68     libucrt:lcidtoname_downlevel.obj
 0002:00004a74       ??_C@_1M@PHGFBEPN@?$AAg?$AAl?$AA?9?$AAE?$AAS@ 10024a74     libucrt:lcidtoname_downlevel.obj
 0002:00004a80       ??_C@_1O@KPIPDNCP@?$AAk?$AAo?$AAk?$AA?9?$AAI?$AAN@ 10024a80     libucrt:lcidtoname_downlevel.obj
 0002:00004a90       ??_C@_1O@KNHJLDJA@?$AAs?$AAy?$AAr?$AA?9?$AAS?$AAY@ 10024a90     libucrt:lcidtoname_downlevel.obj
 0002:00004aa0       ??_C@_1O@MKEKBLAH@?$AAd?$AAi?$AAv?$AA?9?$AAM?$AAV@ 10024aa0     libucrt:lcidtoname_downlevel.obj
 0002:00004ab0       ??_C@_1O@OHDCKDDF@?$AAq?$AAu?$AAz?$AA?9?$AAB?$AAO@ 10024ab0     libucrt:lcidtoname_downlevel.obj
 0002:00004ac0       ??_C@_1M@LEPJNLFD@?$AAn?$AAs?$AA?9?$AAZ?$AAA@ 10024ac0     libucrt:lcidtoname_downlevel.obj
 0002:00004acc       ??_C@_1M@OMLEIIJB@?$AAm?$AAi?$AA?9?$AAN?$AAZ@ 10024acc     libucrt:lcidtoname_downlevel.obj
 0002:00004ad8       ??_C@_1M@PMPEAILG@?$AAa?$AAr?$AA?9?$AAI?$AAQ@ 10024ad8     libucrt:lcidtoname_downlevel.obj
 0002:00004ae4       ??_C@_1M@CNKPNOEE@?$AAd?$AAe?$AA?9?$AAC?$AAH@ 10024ae4     libucrt:lcidtoname_downlevel.obj
 0002:00004af0       ??_C@_1M@LKMGMLKO@?$AAe?$AAn?$AA?9?$AAG?$AAB@ 10024af0     libucrt:lcidtoname_downlevel.obj
 0002:00004afc       ??_C@_1M@PGKJFFGL@?$AAe?$AAs?$AA?9?$AAM?$AAX@ 10024afc     libucrt:lcidtoname_downlevel.obj
 0002:00004b08       ??_C@_1M@DNNANBDC@?$AAf?$AAr?$AA?9?$AAB?$AAE@ 10024b08     libucrt:lcidtoname_downlevel.obj
 0002:00004b14       ??_C@_1M@HLGMDFHM@?$AAi?$AAt?$AA?9?$AAC?$AAH@ 10024b14     libucrt:lcidtoname_downlevel.obj
 0002:00004b20       ??_C@_1M@CLLBGJH@?$AAn?$AAl?$AA?9?$AAB?$AAE@ 10024b20     libucrt:lcidtoname_downlevel.obj
 0002:00004b2c       ??_C@_1M@BODBOGLF@?$AAn?$AAn?$AA?9?$AAN?$AAO@ 10024b2c     libucrt:lcidtoname_downlevel.obj
 0002:00004b38       ??_C@_1M@HFFAHKAD@?$AAp?$AAt?$AA?9?$AAP?$AAT@ 10024b38     libucrt:lcidtoname_downlevel.obj
 0002:00004b44       ??_C@_1BG@LNOAKHIE@?$AAs?$AAr?$AA?9?$AAS?$AAP?$AA?9?$AAL?$AAa?$AAt?$AAn@ 10024b44     libucrt:lcidtoname_downlevel.obj
 0002:00004b5c       ??_C@_1M@HBMHBGAK@?$AAs?$AAv?$AA?9?$AAF?$AAI@ 10024b5c     libucrt:lcidtoname_downlevel.obj
 0002:00004b68       ??_C@_1BG@DGCJGJBE@?$AAa?$AAz?$AA?9?$AAA?$AAZ?$AA?9?$AAC?$AAy?$AAr?$AAl@ 10024b68     libucrt:lcidtoname_downlevel.obj
 0002:00004b80       ??_C@_1M@KEJDAAHB@?$AAs?$AAe?$AA?9?$AAS?$AAE@ 10024b80     libucrt:lcidtoname_downlevel.obj
 0002:00004b8c       ??_C@_1M@HEIBJJAD@?$AAm?$AAs?$AA?9?$AAB?$AAN@ 10024b8c     libucrt:lcidtoname_downlevel.obj
 0002:00004b98       ??_C@_1BG@PBGJMCEM@?$AAu?$AAz?$AA?9?$AAU?$AAZ?$AA?9?$AAC?$AAy?$AAr?$AAl@ 10024b98     libucrt:lcidtoname_downlevel.obj
 0002:00004bb0       ??_C@_1O@LAOBCMDF@?$AAq?$AAu?$AAz?$AA?9?$AAE?$AAC@ 10024bb0     libucrt:lcidtoname_downlevel.obj
 0002:00004bc0       ??_C@_1M@POEEMAIO@?$AAa?$AAr?$AA?9?$AAE?$AAG@ 10024bc0     libucrt:lcidtoname_downlevel.obj
 0002:00004bcc       ??_C@_1M@EFAKDEDL@?$AAz?$AAh?$AA?9?$AAH?$AAK@ 10024bcc     libucrt:lcidtoname_downlevel.obj
 0002:00004bd8       ??_C@_1M@HKKIJHGI@?$AAd?$AAe?$AA?9?$AAA?$AAT@ 10024bd8     libucrt:lcidtoname_downlevel.obj
 0002:00004be4       ??_C@_1M@KBFBEHJF@?$AAe?$AAn?$AA?9?$AAA?$AAU@ 10024be4     libucrt:lcidtoname_downlevel.obj
 0002:00004bf0       ??_C@_1M@MNPLFAAH@?$AAe?$AAs?$AA?9?$AAE?$AAS@ 10024bf0     libucrt:lcidtoname_downlevel.obj
 0002:00004bfc       ??_C@_1M@HJOOJFMA@?$AAf?$AAr?$AA?9?$AAC?$AAA@ 10024bfc     libucrt:lcidtoname_downlevel.obj
 0002:00004c08       ??_C@_1BG@JPOFPNAB@?$AAs?$AAr?$AA?9?$AAS?$AAP?$AA?9?$AAC?$AAy?$AAr?$AAl@ 10024c08     libucrt:lcidtoname_downlevel.obj
 0002:00004c20       ??_C@_1M@LNFOCMOB@?$AAs?$AAe?$AA?9?$AAF?$AAI@ 10024c20     libucrt:lcidtoname_downlevel.obj
 0002:00004c2c       ??_C@_1O@MGJBOAMB@?$AAq?$AAu?$AAz?$AA?9?$AAP?$AAE@ 10024c2c     libucrt:lcidtoname_downlevel.obj
 0002:00004c3c       ??_C@_1M@GJINLBOK@?$AAa?$AAr?$AA?9?$AAL?$AAY@ 10024c3c     libucrt:lcidtoname_downlevel.obj
 0002:00004c48       ??_C@_1M@GGMNHJNL@?$AAz?$AAh?$AA?9?$AAS?$AAG@ 10024c48     libucrt:lcidtoname_downlevel.obj
 0002:00004c54       ??_C@_1M@HOIKODND@?$AAd?$AAe?$AA?9?$AAL?$AAU@ 10024c54     libucrt:lcidtoname_downlevel.obj
 0002:00004c60       ??_C@_1M@DDOCCGFG@?$AAe?$AAn?$AA?9?$AAC?$AAA@ 10024c60     libucrt:lcidtoname_downlevel.obj
 0002:00004c6c       ??_C@_1M@BNOEMJLF@?$AAe?$AAs?$AA?9?$AAG?$AAT@ 10024c6c     libucrt:lcidtoname_downlevel.obj
 0002:00004c78       ??_C@_1M@EOGNKEK@?$AAf?$AAr?$AA?9?$AAC?$AAH@ 10024c78     libucrt:lcidtoname_downlevel.obj
 0002:00004c84       ??_C@_1M@FLIDJFHL@?$AAh?$AAr?$AA?9?$AAB?$AAA@ 10024c84     libucrt:lcidtoname_downlevel.obj
 0002:00004c90       ??_C@_1O@FMCELNAJ@?$AAs?$AAm?$AAj?$AA?9?$AAN?$AAO@ 10024c90     libucrt:lcidtoname_downlevel.obj
 0002:00004ca0       ??_C@_1M@JHGLJMGJ@?$AAa?$AAr?$AA?9?$AAD?$AAZ@ 10024ca0     libucrt:lcidtoname_downlevel.obj
 0002:00004cac       ??_C@_1M@JKKFDCNP@?$AAz?$AAh?$AA?9?$AAM?$AAO@ 10024cac     libucrt:lcidtoname_downlevel.obj
 0002:00004cb8       ??_C@_1M@GEEFALPE@?$AAd?$AAe?$AA?9?$AAL?$AAI@ 10024cb8     libucrt:lcidtoname_downlevel.obj
 0002:00004cc4       ??_C@_1M@IGEOFBG@?$AAe?$AAn?$AA?9?$AAN?$AAZ@ 10024cc4     libucrt:lcidtoname_downlevel.obj
 0002:00004cd0       ??_C@_1M@KDBONEHP@?$AAe?$AAs?$AA?9?$AAC?$AAR@ 10024cd0     libucrt:lcidtoname_downlevel.obj
 0002:00004cdc       ??_C@_1M@FHMDOHNN@?$AAf?$AAr?$AA?9?$AAL?$AAU@ 10024cdc     libucrt:lcidtoname_downlevel.obj
 0002:00004ce8       ??_C@_1BG@NFKKMAFG@?$AAb?$AAs?$AA?9?$AAB?$AAA?$AA?9?$AAL?$AAa?$AAt?$AAn@ 10024ce8     libucrt:lcidtoname_downlevel.obj
 0002:00004d00       ??_C@_1O@IMNBEMCI@?$AAs?$AAm?$AAj?$AA?9?$AAS?$AAE@ 10024d00     libucrt:lcidtoname_downlevel.obj
 0002:00004d10       ??_C@_1M@DHHMBNDP@?$AAa?$AAr?$AA?9?$AAM?$AAA@ 10024d10     libucrt:lcidtoname_downlevel.obj
 0002:00004d1c       ??_C@_1M@BNBLJCGH@?$AAe?$AAn?$AA?9?$AAI?$AAE@ 10024d1c     libucrt:lcidtoname_downlevel.obj
 0002:00004d28       ??_C@_1M@GEPAFMDL@?$AAe?$AAs?$AA?9?$AAP?$AAA@ 10024d28     libucrt:lcidtoname_downlevel.obj
 0002:00004d34       ??_C@_1M@OJONDMDL@?$AAf?$AAr?$AA?9?$AAM?$AAC@ 10024d34     libucrt:lcidtoname_downlevel.obj
 0002:00004d40       ??_C@_1BG@OBCNFJB@?$AAs?$AAr?$AA?9?$AAB?$AAA?$AA?9?$AAL?$AAa?$AAt?$AAn@ 10024d40     libucrt:lcidtoname_downlevel.obj
 0002:00004d58       ??_C@_1O@KEMEEGPO@?$AAs?$AAm?$AAa?$AA?9?$AAN?$AAO@ 10024d58     libucrt:lcidtoname_downlevel.obj
 0002:00004d68       ??_C@_1M@ELMGFODK@?$AAa?$AAr?$AA?9?$AAT?$AAN@ 10024d68     libucrt:lcidtoname_downlevel.obj
 0002:00004d74       ??_C@_1M@BHDLHFAF@?$AAe?$AAn?$AA?9?$AAZ?$AAA@ 10024d74     libucrt:lcidtoname_downlevel.obj
 0002:00004d80       ??_C@_1M@BMGIGLIF@?$AAe?$AAs?$AA?9?$AAD?$AAO@ 10024d80     libucrt:lcidtoname_downlevel.obj
 0002:00004d8c       ??_C@_1BG@CMBHIPBE@?$AAs?$AAr?$AA?9?$AAB?$AAA?$AA?9?$AAC?$AAy?$AAr?$AAl@ 10024d8c     libucrt:lcidtoname_downlevel.obj
 0002:00004da4       ??_C@_1O@HEDBLHNP@?$AAs?$AAm?$AAa?$AA?9?$AAS?$AAE@ 10024da4     libucrt:lcidtoname_downlevel.obj
 0002:00004db4       ??_C@_1M@DAGCADIM@?$AAa?$AAr?$AA?9?$AAO?$AAM@ 10024db4     libucrt:lcidtoname_downlevel.obj
 0002:00004dc0       ??_C@_1M@FODLMICG@?$AAe?$AAn?$AA?9?$AAJ?$AAM@ 10024dc0     libucrt:lcidtoname_downlevel.obj
 0002:00004dcc       ??_C@_1M@DNMLCIHB@?$AAe?$AAs?$AA?9?$AAV?$AAE@ 10024dcc     libucrt:lcidtoname_downlevel.obj
 0002:00004dd8       ??_C@_1O@EOKHMKJK@?$AAs?$AAm?$AAs?$AA?9?$AAF?$AAI@ 10024dd8     libucrt:lcidtoname_downlevel.obj
 0002:00004de8       ??_C@_1M@CAFJMKOF@?$AAa?$AAr?$AA?9?$AAY?$AAE@ 10024de8     libucrt:lcidtoname_downlevel.obj
 0002:00004df4       ??_C@_1M@CBFHIJLI@?$AAe?$AAn?$AA?9?$AAC?$AAB@ 10024df4     libucrt:lcidtoname_downlevel.obj
 0002:00004e00       ??_C@_1M@BGNFLDN@?$AAe?$AAs?$AA?9?$AAC?$AAO@ 10024e00     libucrt:lcidtoname_downlevel.obj
 0002:00004e0c       ??_C@_1O@JMPHMAMC@?$AAs?$AAm?$AAn?$AA?9?$AAF?$AAI@ 10024e0c     libucrt:lcidtoname_downlevel.obj
 0002:00004e1c       ??_C@_1M@JLANABKE@?$AAa?$AAr?$AA?9?$AAS?$AAY@ 10024e1c     libucrt:lcidtoname_downlevel.obj
 0002:00004e28       ??_C@_1M@HPKGCFGN@?$AAe?$AAn?$AA?9?$AAB?$AAZ@ 10024e28     libucrt:lcidtoname_downlevel.obj
 0002:00004e34       ??_C@_1M@OLJCMLGM@?$AAe?$AAs?$AA?9?$AAP?$AAE@ 10024e34     libucrt:lcidtoname_downlevel.obj
 0002:00004e40       ??_C@_1M@MKKGFKLE@?$AAa?$AAr?$AA?9?$AAJ?$AAO@ 10024e40     libucrt:lcidtoname_downlevel.obj
 0002:00004e4c       ??_C@_1M@EKPGLDNI@?$AAe?$AAn?$AA?9?$AAT?$AAT@ 10024e4c     libucrt:lcidtoname_downlevel.obj
 0002:00004e58       ??_C@_1M@OONGHFHE@?$AAe?$AAs?$AA?9?$AAA?$AAR@ 10024e58     libucrt:lcidtoname_downlevel.obj
 0002:00004e64       ??_C@_1M@OOJFGBHE@?$AAa?$AAr?$AA?9?$AAL?$AAB@ 10024e64     libucrt:lcidtoname_downlevel.obj
 0002:00004e70       ??_C@_1M@GCEJHNEG@?$AAe?$AAn?$AA?9?$AAZ?$AAW@ 10024e70     libucrt:lcidtoname_downlevel.obj
 0002:00004e7c       ??_C@_1M@JNOCAHJI@?$AAe?$AAs?$AA?9?$AAE?$AAC@ 10024e7c     libucrt:lcidtoname_downlevel.obj
 0002:00004e88       ??_C@_1M@JEFHPGGB@?$AAa?$AAr?$AA?9?$AAK?$AAW@ 10024e88     libucrt:lcidtoname_downlevel.obj
 0002:00004e94       ??_C@_1M@MLKIBJOJ@?$AAe?$AAn?$AA?9?$AAP?$AAH@ 10024e94     libucrt:lcidtoname_downlevel.obj
 0002:00004ea0       ??_C@_1M@BDNIPEND@?$AAe?$AAs?$AA?9?$AAC?$AAL@ 10024ea0     libucrt:lcidtoname_downlevel.obj
 0002:00004eac       ??_C@_1M@MPNMEKBD@?$AAa?$AAr?$AA?9?$AAA?$AAE@ 10024eac     libucrt:lcidtoname_downlevel.obj
 0002:00004eb8       ??_C@_1M@KBJALCPI@?$AAe?$AAs?$AA?9?$AAU?$AAY@ 10024eb8     libucrt:lcidtoname_downlevel.obj
 0002:00004ec4       ??_C@_1M@LLCCOAGA@?$AAa?$AAr?$AA?9?$AAB?$AAH@ 10024ec4     libucrt:lcidtoname_downlevel.obj
 0002:00004ed0       ??_C@_1M@PBFNCDEL@?$AAe?$AAs?$AA?9?$AAP?$AAY@ 10024ed0     libucrt:lcidtoname_downlevel.obj
 0002:00004edc       ??_C@_1M@EDGINPNP@?$AAa?$AAr?$AA?9?$AAQ?$AAA@ 10024edc     libucrt:lcidtoname_downlevel.obj
 0002:00004ee8       ??_C@_1M@MKDBIIJI@?$AAe?$AAs?$AA?9?$AAB?$AAO@ 10024ee8     libucrt:lcidtoname_downlevel.obj
 0002:00004ef4       ??_C@_1M@CPKKEBLD@?$AAe?$AAs?$AA?9?$AAS?$AAV@ 10024ef4     libucrt:lcidtoname_downlevel.obj
 0002:00004f00       ??_C@_1M@NDBGMMJL@?$AAe?$AAs?$AA?9?$AAH?$AAN@ 10024f00     libucrt:lcidtoname_downlevel.obj
 0002:00004f0c       ??_C@_1M@JIJIBHDP@?$AAe?$AAs?$AA?9?$AAN?$AAI@ 10024f0c     libucrt:lcidtoname_downlevel.obj
 0002:00004f18       ??_C@_1M@CGFMKEEK@?$AAe?$AAs?$AA?9?$AAP?$AAR@ 10024f18     libucrt:lcidtoname_downlevel.obj
 0002:00004f24       ??_C@_1O@ICJHKIIK@?$AAz?$AAh?$AA?9?$AAC?$AAH?$AAT@ 10024f24     libucrt:lcidtoname_downlevel.obj
 0002:00004f34       ??_C@_15CLNEJCE@?$AAs?$AAr@ 10024f34     libucrt:lcidtoname_downlevel.obj
 0002:00005660       ??_C@_1M@KAHEKEIG@?$AAa?$AAf?$AA?9?$AAz?$AAa@ 10025660     libucrt:lcidtoname_downlevel.obj
 0002:0000566c       ??_C@_1M@GIECOABL@?$AAa?$AAr?$AA?9?$AAa?$AAe@ 1002566c     libucrt:lcidtoname_downlevel.obj
 0002:00005678       ??_C@_1M@BMLMEKGI@?$AAa?$AAr?$AA?9?$AAb?$AAh@ 10025678     libucrt:lcidtoname_downlevel.obj
 0002:00005684       ??_C@_1M@DAPFDGGB@?$AAa?$AAr?$AA?9?$AAd?$AAz@ 10025684     libucrt:lcidtoname_downlevel.obj
 0002:00005690       ??_C@_1M@FJNKGKIG@?$AAa?$AAr?$AA?9?$AAe?$AAg@ 10025690     libucrt:lcidtoname_downlevel.obj
 0002:0000569c       ??_C@_1M@FLGKKCLO@?$AAa?$AAr?$AA?9?$AAi?$AAq@ 1002569c     libucrt:lcidtoname_downlevel.obj
 0002:000056a8       ??_C@_1M@GNDIPALM@?$AAa?$AAr?$AA?9?$AAj?$AAo@ 100256a8     libucrt:lcidtoname_downlevel.obj
 0002:000056b4       ??_C@_1M@DDMJFMGJ@?$AAa?$AAr?$AA?9?$AAk?$AAw@ 100256b4     libucrt:lcidtoname_downlevel.obj
 0002:000056c0       ??_C@_1M@EJALMLHM@?$AAa?$AAr?$AA?9?$AAl?$AAb@ 100256c0     libucrt:lcidtoname_downlevel.obj
 0002:000056cc       ??_C@_1M@MOBDBLOC@?$AAa?$AAr?$AA?9?$AAl?$AAy@ 100256cc     libucrt:lcidtoname_downlevel.obj
 0002:000056d8       ??_C@_1M@JAOCLHDH@?$AAa?$AAr?$AA?9?$AAm?$AAa@ 100256d8     libucrt:lcidtoname_downlevel.obj
 0002:000056e4       ??_C@_1M@JHPMKJIE@?$AAa?$AAr?$AA?9?$AAo?$AAm@ 100256e4     libucrt:lcidtoname_downlevel.obj
 0002:000056f0       ??_C@_1M@OEPGHFNH@?$AAa?$AAr?$AA?9?$AAq?$AAa@ 100256f0     libucrt:lcidtoname_downlevel.obj
 0002:000056fc       ??_C@_1M@KJDONENM@?$AAa?$AAr?$AA?9?$AAs?$AAa@ 100256fc     libucrt:lcidtoname_downlevel.obj
 0002:00005708       ??_C@_1M@DMJDKLKM@?$AAa?$AAr?$AA?9?$AAs?$AAy@ 10025708     libucrt:lcidtoname_downlevel.obj
 0002:00005714       ??_C@_1M@OMFIPEDC@?$AAa?$AAr?$AA?9?$AAt?$AAn@ 10025714     libucrt:lcidtoname_downlevel.obj
 0002:00005720       ??_C@_1M@IHMHGAON@?$AAa?$AAr?$AA?9?$AAy?$AAe@ 10025720     libucrt:lcidtoname_downlevel.obj
 0002:0000572c       ??_C@_1BG@KDCPGJGB@?$AAa?$AAz?$AA?9?$AAa?$AAz?$AA?9?$AAc?$AAy?$AAr?$AAl@ 1002572c     libucrt:lcidtoname_downlevel.obj
 0002:00005744       ??_C@_1BG@IBCKDDOE@?$AAa?$AAz?$AA?9?$AAa?$AAz?$AA?9?$AAl?$AAa?$AAt?$AAn@ 10025744     libucrt:lcidtoname_downlevel.obj
 0002:0000575c       ??_C@_1M@EGPFDCPD@?$AAb?$AAe?$AA?9?$AAb?$AAy@ 1002575c     libucrt:lcidtoname_downlevel.obj
 0002:00005768       ??_C@_1M@PCMGMCGC@?$AAb?$AAg?$AA?9?$AAb?$AAg@ 10025768     libucrt:lcidtoname_downlevel.obj
 0002:00005774       ??_C@_1M@BJBMFGOB@?$AAb?$AAn?$AA?9?$AAi?$AAn@ 10025774     libucrt:lcidtoname_downlevel.obj
 0002:00005780       ??_C@_1BG@EAKMMACD@?$AAb?$AAs?$AA?9?$AAb?$AAa?$AA?9?$AAl?$AAa?$AAt?$AAn@ 10025780     libucrt:lcidtoname_downlevel.obj
 0002:00005798       ??_C@_1M@KGADAODK@?$AAc?$AAa?$AA?9?$AAe?$AAs@ 10025798     libucrt:lcidtoname_downlevel.obj
 0002:000057a4       ??_C@_1M@COAJPDHI@?$AAc?$AAs?$AA?9?$AAc?$AAz@ 100257a4     libucrt:lcidtoname_downlevel.obj
 0002:000057b0       ??_C@_1M@DHBHFONH@?$AAc?$AAy?$AA?9?$AAg?$AAb@ 100257b0     libucrt:lcidtoname_downlevel.obj
 0002:000057bc       ??_C@_1M@IMGKELGA@?$AAd?$AAa?$AA?9?$AAd?$AAk@ 100257bc     libucrt:lcidtoname_downlevel.obj
 0002:000057c8       ??_C@_1M@NNDGDNGA@?$AAd?$AAe?$AA?9?$AAa?$AAt@ 100257c8     libucrt:lcidtoname_downlevel.obj
 0002:000057d4       ??_C@_1M@IKDBHEEM@?$AAd?$AAe?$AA?9?$AAc?$AAh@ 100257d4     libucrt:lcidtoname_downlevel.obj
 0002:000057e0       ??_C@_1M@GFFOJMCJ@?$AAd?$AAe?$AA?9?$AAd?$AAe@ 100257e0     libucrt:lcidtoname_downlevel.obj
 0002:000057ec       ??_C@_1M@MDNLKBPM@?$AAd?$AAe?$AA?9?$AAl?$AAi@ 100257ec     libucrt:lcidtoname_downlevel.obj
 0002:000057f8       ??_C@_1M@NJBEEJNL@?$AAd?$AAe?$AA?9?$AAl?$AAu@ 100257f8     libucrt:lcidtoname_downlevel.obj
 0002:00005804       ??_C@_1O@GNNELBAP@?$AAd?$AAi?$AAv?$AA?9?$AAm?$AAv@ 10025804     libucrt:lcidtoname_downlevel.obj
 0002:00005814       ??_C@_1M@EJLEOGAE@?$AAe?$AAl?$AA?9?$AAg?$AAr@ 10025814     libucrt:lcidtoname_downlevel.obj
 0002:00005820       ??_C@_1M@GMPONJN@?$AAe?$AAn?$AA?9?$AAa?$AAu@ 10025820     libucrt:lcidtoname_downlevel.obj
 0002:0000582c       ??_C@_1M@NIDIIPGF@?$AAe?$AAn?$AA?9?$AAb?$AAz@ 1002582c     libucrt:lcidtoname_downlevel.obj
 0002:00005838       ??_C@_1M@JEHMIMFO@?$AAe?$AAn?$AA?9?$AAc?$AAa@ 10025838     libucrt:lcidtoname_downlevel.obj
 0002:00005844       ??_C@_1M@IGMJCDLA@?$AAe?$AAn?$AA?9?$AAc?$AAb@ 10025844     libucrt:lcidtoname_downlevel.obj
 0002:00005850       ??_C@_1M@BNFIGBKG@?$AAe?$AAn?$AA?9?$AAg?$AAb@ 10025850     libucrt:lcidtoname_downlevel.obj
 0002:0000585c       ??_C@_1M@LKIFDIGP@?$AAe?$AAn?$AA?9?$AAi?$AAe@ 1002585c     libucrt:lcidtoname_downlevel.obj
 0002:00005868       ??_C@_1M@PJKFGCCO@?$AAe?$AAn?$AA?9?$AAj?$AAm@ 10025868     libucrt:lcidtoname_downlevel.obj
 0002:00005874       ??_C@_1M@KPPKEPBO@?$AAe?$AAn?$AA?9?$AAn?$AAz@ 10025874     libucrt:lcidtoname_downlevel.obj
 0002:00005880       ??_C@_1M@GMDGLDOB@?$AAe?$AAn?$AA?9?$AAp?$AAh@ 10025880     libucrt:lcidtoname_downlevel.obj
 0002:0000588c       ??_C@_1M@ONGIBJNA@?$AAe?$AAn?$AA?9?$AAt?$AAt@ 1002588c     libucrt:lcidtoname_downlevel.obj
 0002:00005898       ??_C@_1M@LLODPCMM@?$AAe?$AAn?$AA?9?$AAu?$AAs@ 10025898     libucrt:lcidtoname_downlevel.obj
 0002:000058a4       ??_C@_1M@LAKFNPAN@?$AAe?$AAn?$AA?9?$AAz?$AAa@ 100258a4     libucrt:lcidtoname_downlevel.obj
 0002:000058b0       ??_C@_1M@MFNHNHEO@?$AAe?$AAn?$AA?9?$AAz?$AAw@ 100258b0     libucrt:lcidtoname_downlevel.obj
 0002:000058bc       ??_C@_1M@EJEINPHM@?$AAe?$AAs?$AA?9?$AAa?$AAr@ 100258bc     libucrt:lcidtoname_downlevel.obj
 0002:000058c8       ??_C@_1M@GNKPCCJA@?$AAe?$AAs?$AA?9?$AAb?$AAo@ 100258c8     libucrt:lcidtoname_downlevel.obj
 0002:000058d4       ??_C@_1M@LEEGFONL@?$AAe?$AAs?$AA?9?$AAc?$AAl@ 100258d4     libucrt:lcidtoname_downlevel.obj
 0002:000058e0       ??_C@_1M@KGPDPBDF@?$AAe?$AAs?$AA?9?$AAc?$AAo@ 100258e0     libucrt:lcidtoname_downlevel.obj
 0002:000058ec       ??_C@_1M@EIAHOHH@?$AAe?$AAs?$AA?9?$AAc?$AAr@ 100258ec     libucrt:lcidtoname_downlevel.obj
 0002:000058f8       ??_C@_1M@LLPGMBIN@?$AAe?$AAs?$AA?9?$AAd?$AAo@ 100258f8     libucrt:lcidtoname_downlevel.obj
 0002:00005904       ??_C@_1M@DKHMKNJA@?$AAe?$AAs?$AA?9?$AAe?$AAc@ 10025904     libucrt:lcidtoname_downlevel.obj
 0002:00005910       ??_C@_1M@GKGFPKAP@?$AAe?$AAs?$AA?9?$AAe?$AAs@ 10025910     libucrt:lcidtoname_downlevel.obj
 0002:0000591c       ??_C@_1M@LKHKGDLN@?$AAe?$AAs?$AA?9?$AAg?$AAt@ 1002591c     libucrt:lcidtoname_downlevel.obj
 0002:00005928       ??_C@_1M@HEIIGGJD@?$AAe?$AAs?$AA?9?$AAh?$AAn@ 10025928     libucrt:lcidtoname_downlevel.obj
 0002:00005934       ??_C@_1M@FBDHPPGD@?$AAe?$AAs?$AA?9?$AAm?$AAx@ 10025934     libucrt:lcidtoname_downlevel.obj
 0002:00005940       ??_C@_1M@DPAGLNDH@?$AAe?$AAs?$AA?9?$AAn?$AAi@ 10025940     libucrt:lcidtoname_downlevel.obj
 0002:0000594c       ??_C@_1M@MDGOPGDD@?$AAe?$AAs?$AA?9?$AAp?$AAa@ 1002594c     libucrt:lcidtoname_downlevel.obj
 0002:00005958       ??_C@_1M@EMAMGBGE@?$AAe?$AAs?$AA?9?$AAp?$AAe@ 10025958     libucrt:lcidtoname_downlevel.obj
 0002:00005964       ??_C@_1M@IBMCAOEC@?$AAe?$AAs?$AA?9?$AAp?$AAr@ 10025964     libucrt:lcidtoname_downlevel.obj
 0002:00005970       ??_C@_1M@FGMDIJED@?$AAe?$AAs?$AA?9?$AAp?$AAy@ 10025970     libucrt:lcidtoname_downlevel.obj
 0002:0000597c       ??_C@_1M@IIDEOLLL@?$AAe?$AAs?$AA?9?$AAs?$AAv@ 1002597c     libucrt:lcidtoname_downlevel.obj
 0002:00005988       ??_C@_1M@GAOBIPA@?$AAe?$AAs?$AA?9?$AAu?$AAy@ 10025988     libucrt:lcidtoname_downlevel.obj
 0002:00005994       ??_C@_1M@JKFFICHJ@?$AAe?$AAs?$AA?9?$AAv?$AAe@ 10025994     libucrt:lcidtoname_downlevel.obj
 0002:000059a0       ??_C@_1M@PNMLOJDF@?$AAe?$AAt?$AA?9?$AAe?$AAe@ 100259a0     libucrt:lcidtoname_downlevel.obj
 0002:000059ac       ??_C@_1M@GHHLIKEI@?$AAe?$AAu?$AA?9?$AAe?$AAs@ 100259ac     libucrt:lcidtoname_downlevel.obj
 0002:000059b8       ??_C@_1M@PBNONODE@?$AAf?$AAa?$AA?9?$AAi?$AAr@ 100259b8     libucrt:lcidtoname_downlevel.obj
 0002:000059c4       ??_C@_1M@JEEHPMIL@?$AAf?$AAi?$AA?9?$AAf?$AAi@ 100259c4     libucrt:lcidtoname_downlevel.obj
 0002:000059d0       ??_C@_1M@LMDCNDBA@?$AAf?$AAo?$AA?9?$AAf?$AAo@ 100259d0     libucrt:lcidtoname_downlevel.obj
 0002:000059dc       ??_C@_1M@JKEOHLDK@?$AAf?$AAr?$AA?9?$AAb?$AAe@ 100259dc     libucrt:lcidtoname_downlevel.obj
 0002:000059e8       ??_C@_1M@NOHADPMI@?$AAf?$AAr?$AA?9?$AAc?$AAa@ 100259e8     libucrt:lcidtoname_downlevel.obj
 0002:000059f4       ??_C@_1M@KDHIHAEC@?$AAf?$AAr?$AA?9?$AAc?$AAh@ 100259f4     libucrt:lcidtoname_downlevel.obj
 0002:00005a00       ??_C@_1M@MMBBFGAK@?$AAf?$AAr?$AA?9?$AAf?$AAr@ 10025a00     libucrt:lcidtoname_downlevel.obj
 0002:00005a0c       ??_C@_1M@PAFNENNF@?$AAf?$AAr?$AA?9?$AAl?$AAu@ 10025a0c     libucrt:lcidtoname_downlevel.obj
 0002:00005a18       ??_C@_1M@EOHDJGDD@?$AAf?$AAr?$AA?9?$AAm?$AAc@ 10025a18     libucrt:lcidtoname_downlevel.obj
 0002:00005a24       ??_C@_1M@FAPLLOPF@?$AAg?$AAl?$AA?9?$AAe?$AAs@ 10025a24     libucrt:lcidtoname_downlevel.obj
 0002:00005a30       ??_C@_1M@FOPBFLOO@?$AAg?$AAu?$AA?9?$AAi?$AAn@ 10025a30     libucrt:lcidtoname_downlevel.obj
 0002:00005a3c       ??_C@_1M@KBMCINPM@?$AAh?$AAe?$AA?9?$AAi?$AAl@ 10025a3c     libucrt:lcidtoname_downlevel.obj
 0002:00005a48       ??_C@_1M@BBPHKFPJ@?$AAh?$AAi?$AA?9?$AAi?$AAn@ 10025a48     libucrt:lcidtoname_downlevel.obj
 0002:00005a54       ??_C@_1M@PMBNDPHD@?$AAh?$AAr?$AA?9?$AAb?$AAa@ 10025a54     libucrt:lcidtoname_downlevel.obj
 0002:00005a60       ??_C@_1M@BPCKOEGE@?$AAh?$AAr?$AA?9?$AAh?$AAr@ 10025a60     libucrt:lcidtoname_downlevel.obj
 0002:00005a6c       ??_C@_1M@GACBMHKE@?$AAh?$AAu?$AA?9?$AAh?$AAu@ 10025a6c     libucrt:lcidtoname_downlevel.obj
 0002:00005a78       ??_C@_1M@MILPAJJC@?$AAh?$AAy?$AA?9?$AAa?$AAm@ 10025a78     libucrt:lcidtoname_downlevel.obj
 0002:00005a84       ??_C@_1M@BABBICEC@?$AAi?$AAd?$AA?9?$AAi?$AAd@ 10025a84     libucrt:lcidtoname_downlevel.obj
 0002:00005a90       ??_C@_1M@BIKNHHPF@?$AAi?$AAs?$AA?9?$AAi?$AAs@ 10025a90     libucrt:lcidtoname_downlevel.obj
 0002:00005a9c       ??_C@_1M@NMPCJPHE@?$AAi?$AAt?$AA?9?$AAc?$AAh@ 10025a9c     libucrt:lcidtoname_downlevel.obj
 0002:00005aa8       ??_C@_1M@GHKGFEDF@?$AAi?$AAt?$AA?9?$AAi?$AAt@ 10025aa8     libucrt:lcidtoname_downlevel.obj
 0002:00005ab4       ??_C@_1M@NIEJCJJA@?$AAj?$AAa?$AA?9?$AAj?$AAp@ 10025ab4     libucrt:lcidtoname_downlevel.obj
 0002:00005ac0       ??_C@_1M@JILFNBIM@?$AAk?$AAa?$AA?9?$AAg?$AAe@ 10025ac0     libucrt:lcidtoname_downlevel.obj
 0002:00005acc       ??_C@_1M@PACPMGPH@?$AAk?$AAk?$AA?9?$AAk?$AAz@ 10025acc     libucrt:lcidtoname_downlevel.obj
 0002:00005ad8       ??_C@_1M@IELFGMHA@?$AAk?$AAn?$AA?9?$AAi?$AAn@ 10025ad8     libucrt:lcidtoname_downlevel.obj
 0002:00005ae4       ??_C@_1O@IBBJHCH@?$AAk?$AAo?$AAk?$AA?9?$AAi?$AAn@ 10025ae4     libucrt:lcidtoname_downlevel.obj
 0002:00005af4       ??_C@_1M@DMHAEOGC@?$AAk?$AAo?$AA?9?$AAk?$AAr@ 10025af4     libucrt:lcidtoname_downlevel.obj
 0002:00005b00       ??_C@_1M@HBAHBIGA@?$AAk?$AAy?$AA?9?$AAk?$AAg@ 10025b00     libucrt:lcidtoname_downlevel.obj
 0002:00005b0c       ??_C@_1M@KPMILCJG@?$AAl?$AAt?$AA?9?$AAl?$AAt@ 10025b0c     libucrt:lcidtoname_downlevel.obj
 0002:00005b18       ??_C@_1M@BDEKKCA@?$AAl?$AAv?$AA?9?$AAl?$AAv@ 10025b18     libucrt:lcidtoname_downlevel.obj
 0002:00005b24       ??_C@_1M@ELCKCCJJ@?$AAm?$AAi?$AA?9?$AAn?$AAz@ 10025b24     libucrt:lcidtoname_downlevel.obj
 0002:00005b30       ??_C@_1M@CBOOLAPA@?$AAm?$AAk?$AA?9?$AAm?$AAk@ 10025b30     libucrt:lcidtoname_downlevel.obj
 0002:00005b3c       ??_C@_1M@GPHNBJKN@?$AAm?$AAl?$AA?9?$AAi?$AAn@ 10025b3c     libucrt:lcidtoname_downlevel.obj
 0002:00005b48       ??_C@_1M@PABJILIG@?$AAm?$AAn?$AA?9?$AAm?$AAn@ 10025b48     libucrt:lcidtoname_downlevel.obj
 0002:00005b54       ??_C@_1M@FGBKKIPG@?$AAm?$AAr?$AA?9?$AAi?$AAn@ 10025b54     libucrt:lcidtoname_downlevel.obj
 0002:00005b60       ??_C@_1M@NDBPDDAL@?$AAm?$AAs?$AA?9?$AAb?$AAn@ 10025b60     libucrt:lcidtoname_downlevel.obj
 0002:00005b6c       ??_C@_1M@OPIHOOPI@?$AAm?$AAs?$AA?9?$AAm?$AAy@ 10025b6c     libucrt:lcidtoname_downlevel.obj
 0002:00005b78       ??_C@_1M@PPDBCNFM@?$AAm?$AAt?$AA?9?$AAm?$AAt@ 10025b78     libucrt:lcidtoname_downlevel.obj
 0002:00005b84       ??_C@_1M@KDJDKMDD@?$AAn?$AAb?$AA?9?$AAn?$AAo@ 10025b84     libucrt:lcidtoname_downlevel.obj
 0002:00005b90       ??_C@_1M@KFCFLMJP@?$AAn?$AAl?$AA?9?$AAb?$AAe@ 10025b90     libucrt:lcidtoname_downlevel.obj
 0002:00005b9c       ??_C@_1M@KPOPDDGO@?$AAn?$AAl?$AA?9?$AAn?$AAl@ 10025b9c     libucrt:lcidtoname_downlevel.obj
 0002:00005ba8       ??_C@_1M@LJKPEMLN@?$AAn?$AAn?$AA?9?$AAn?$AAo@ 10025ba8     libucrt:lcidtoname_downlevel.obj
 0002:00005bb4       ??_C@_1M@BDGHHBFL@?$AAn?$AAs?$AA?9?$AAz?$AAa@ 10025bb4     libucrt:lcidtoname_downlevel.obj
 0002:00005bc0       ??_C@_1M@IDEHOAP@?$AAp?$AAa?$AA?9?$AAi?$AAn@ 10025bc0     libucrt:lcidtoname_downlevel.obj
 0002:00005bcc       ??_C@_1M@HDBKGOGH@?$AAp?$AAl?$AA?9?$AAp?$AAl@ 10025bcc     libucrt:lcidtoname_downlevel.obj
 0002:00005bd8       ??_C@_1M@LJLLCMEH@?$AAp?$AAt?$AA?9?$AAb?$AAr@ 10025bd8     libucrt:lcidtoname_downlevel.obj
 0002:00005be4       ??_C@_1M@NCMONAAL@?$AAp?$AAt?$AA?9?$AAp?$AAt@ 10025be4     libucrt:lcidtoname_downlevel.obj
 0002:00005bf0       ??_C@_1O@EAKMAJDN@?$AAq?$AAu?$AAz?$AA?9?$AAb?$AAo@ 10025bf0     libucrt:lcidtoname_downlevel.obj
 0002:00005c00       ??_C@_1O@BHHPIGDN@?$AAq?$AAu?$AAz?$AA?9?$AAe?$AAc@ 10025c00     libucrt:lcidtoname_downlevel.obj
 0002:00005c10       ??_C@_1O@GBAPEKMJ@?$AAq?$AAu?$AAz?$AA?9?$AAp?$AAe@ 10025c10     libucrt:lcidtoname_downlevel.obj
 0002:00005c20       ??_C@_1M@CLGLEFBO@?$AAr?$AAo?$AA?9?$AAr?$AAo@ 10025c20     libucrt:lcidtoname_downlevel.obj
 0002:00005c2c       ??_C@_1M@CEEDODME@?$AAr?$AAu?$AA?9?$AAr?$AAu@ 10025c2c     libucrt:lcidtoname_downlevel.obj
 0002:00005c38       ??_C@_1M@HPKKKMPP@?$AAs?$AAa?$AA?9?$AAi?$AAn@ 10025c38     libucrt:lcidtoname_downlevel.obj
 0002:00005c44       ??_C@_1M@BKMAIGOJ@?$AAs?$AAe?$AA?9?$AAf?$AAi@ 10025c44     libucrt:lcidtoname_downlevel.obj
 0002:00005c50       ??_C@_1M@NDPIFLFI@?$AAs?$AAe?$AA?9?$AAn?$AAo@ 10025c50     libucrt:lcidtoname_downlevel.obj
 0002:00005c5c       ??_C@_1M@DANKKHJ@?$AAs?$AAe?$AA?9?$AAs?$AAe@ 10025c5c     libucrt:lcidtoname_downlevel.obj
 0002:00005c68       ??_C@_1M@PNBLONPJ@?$AAs?$AAk?$AA?9?$AAs?$AAk@ 10025c68     libucrt:lcidtoname_downlevel.obj
 0002:00005c74       ??_C@_1M@LFMODOAL@?$AAs?$AAl?$AA?9?$AAs?$AAi@ 10025c74     libucrt:lcidtoname_downlevel.obj
 0002:00005c80       ??_C@_1O@DFKOMPG@?$AAs?$AAm?$AAa?$AA?9?$AAn?$AAo@ 10025c80     libucrt:lcidtoname_downlevel.obj
 0002:00005c90       ??_C@_1O@NDKPBNNH@?$AAs?$AAm?$AAa?$AA?9?$AAs?$AAe@ 10025c90     libucrt:lcidtoname_downlevel.obj
 0002:00005ca0       ??_C@_1O@PLLKBHAB@?$AAs?$AAm?$AAj?$AA?9?$AAn?$AAo@ 10025ca0     libucrt:lcidtoname_downlevel.obj
 0002:00005cb0       ??_C@_1O@CLEPOGCA@?$AAs?$AAm?$AAj?$AA?9?$AAs?$AAe@ 10025cb0     libucrt:lcidtoname_downlevel.obj
 0002:00005cc0       ??_C@_1O@DLGJGKMK@?$AAs?$AAm?$AAn?$AA?9?$AAf?$AAi@ 10025cc0     libucrt:lcidtoname_downlevel.obj
 0002:00005cd0       ??_C@_1O@OJDJGAJC@?$AAs?$AAm?$AAs?$AA?9?$AAf?$AAi@ 10025cd0     libucrt:lcidtoname_downlevel.obj
 0002:00005ce0       ??_C@_1M@BOFOGHPB@?$AAs?$AAq?$AA?9?$AAa?$AAl@ 10025ce0     libucrt:lcidtoname_downlevel.obj
 0002:00005cec       ??_C@_1BG@LJBBIPGB@?$AAs?$AAr?$AA?9?$AAb?$AAa?$AA?9?$AAc?$AAy?$AAr?$AAl@ 10025cec     libucrt:lcidtoname_downlevel.obj
 0002:00005d04       ??_C@_1BG@JLBENFOE@?$AAs?$AAr?$AA?9?$AAb?$AAa?$AA?9?$AAl?$AAa?$AAt?$AAn@ 10025d04     libucrt:lcidtoname_downlevel.obj
 0002:00005d1c       ??_C@_1BG@KODPNHE@?$AAs?$AAr?$AA?9?$AAs?$AAp?$AA?9?$AAc?$AAy?$AAr?$AAl@ 10025d1c     libucrt:lcidtoname_downlevel.obj
 0002:00005d34       ??_C@_1BG@CIOGKHPB@?$AAs?$AAr?$AA?9?$AAs?$AAp?$AA?9?$AAl?$AAa?$AAt?$AAn@ 10025d34     libucrt:lcidtoname_downlevel.obj
 0002:00005d4c       ??_C@_1M@NGFJLMAC@?$AAs?$AAv?$AA?9?$AAf?$AAi@ 10025d4c     libucrt:lcidtoname_downlevel.obj
 0002:00005d58       ??_C@_1M@MPJEJAJC@?$AAs?$AAv?$AA?9?$AAs?$AAe@ 10025d58     libucrt:lcidtoname_downlevel.obj
 0002:00005d64       ??_C@_1M@MPNDHLFK@?$AAs?$AAw?$AA?9?$AAk?$AAe@ 10025d64     libucrt:lcidtoname_downlevel.obj
 0002:00005d70       ??_C@_1O@KOHBJJI@?$AAs?$AAy?$AAr?$AA?9?$AAs?$AAy@ 10025d70     libucrt:lcidtoname_downlevel.obj
 0002:00005d80       ??_C@_1M@LDCEFHA@?$AAt?$AAa?$AA?9?$AAi?$AAn@ 10025d80     libucrt:lcidtoname_downlevel.obj
 0002:00005d8c       ??_C@_1M@CNJOFAK@?$AAt?$AAe?$AA?9?$AAi?$AAn@ 10025d8c     libucrt:lcidtoname_downlevel.obj
 0002:00005d98       ??_C@_1M@GNAECACD@?$AAt?$AAh?$AA?9?$AAt?$AAh@ 10025d98     libucrt:lcidtoname_downlevel.obj
 0002:00005da4       ??_C@_1M@CHBIHOJO@?$AAt?$AAn?$AA?9?$AAz?$AAa@ 10025da4     libucrt:lcidtoname_downlevel.obj
 0002:00005db0       ??_C@_1M@GCCMIGPJ@?$AAt?$AAr?$AA?9?$AAt?$AAr@ 10025db0     libucrt:lcidtoname_downlevel.obj
 0002:00005dbc       ??_C@_1M@CELMCNBK@?$AAt?$AAt?$AA?9?$AAr?$AAu@ 10025dbc     libucrt:lcidtoname_downlevel.obj
 0002:00005dc8       ??_C@_1M@KLMCELGA@?$AAu?$AAk?$AA?9?$AAu?$AAa@ 10025dc8     libucrt:lcidtoname_downlevel.obj
 0002:00005dd4       ??_C@_1M@EPAJJAJF@?$AAu?$AAr?$AA?9?$AAp?$AAk@ 10025dd4     libucrt:lcidtoname_downlevel.obj
 0002:00005de0       ??_C@_1BG@GEGPMCDJ@?$AAu?$AAz?$AA?9?$AAu?$AAz?$AA?9?$AAc?$AAy?$AAr?$AAl@ 10025de0     libucrt:lcidtoname_downlevel.obj
 0002:00005df8       ??_C@_1BG@EGGKJILM@?$AAu?$AAz?$AA?9?$AAu?$AAz?$AA?9?$AAl?$AAa?$AAt?$AAn@ 10025df8     libucrt:lcidtoname_downlevel.obj
 0002:00005e10       ??_C@_1M@GFOCLFF@?$AAv?$AAi?$AA?9?$AAv?$AAn@ 10025e10     libucrt:lcidtoname_downlevel.obj
 0002:00005e1c       ??_C@_1M@CPAMEDFI@?$AAx?$AAh?$AA?9?$AAz?$AAa@ 10025e1c     libucrt:lcidtoname_downlevel.obj
 0002:00005e28       ??_C@_1O@EBKIFIGN@?$AAz?$AAh?$AA?9?$AAc?$AAh?$AAs@ 10025e28     libucrt:lcidtoname_downlevel.obj
 0002:00005e38       ??_C@_1O@NMHPGANE@?$AAz?$AAh?$AA?9?$AAc?$AAh?$AAt@ 10025e38     libucrt:lcidtoname_downlevel.obj
 0002:00005e48       ??_C@_1M@LPINJOMC@?$AAz?$AAh?$AA?9?$AAc?$AAn@ 10025e48     libucrt:lcidtoname_downlevel.obj
 0002:00005e54       ??_C@_1M@OCJEJODD@?$AAz?$AAh?$AA?9?$AAh?$AAk@ 10025e54     libucrt:lcidtoname_downlevel.obj
 0002:00005e60       ??_C@_1M@DNDLJINH@?$AAz?$AAh?$AA?9?$AAm?$AAo@ 10025e60     libucrt:lcidtoname_downlevel.obj
 0002:00005e6c       ??_C@_1M@MBFDNDND@?$AAz?$AAh?$AA?9?$AAs?$AAg@ 10025e6c     libucrt:lcidtoname_downlevel.obj
 0002:00005e78       ??_C@_1M@IMEPLEPE@?$AAz?$AAh?$AA?9?$AAt?$AAw@ 10025e78     libucrt:lcidtoname_downlevel.obj
 0002:00005e84       ??_C@_1M@BBGHNHJP@?$AAz?$AAu?$AA?9?$AAz?$AAa@ 10025e84     libucrt:lcidtoname_downlevel.obj
 0002:00005e90       ?large_power_data@?1??multiply_by_power_of_ten@__crt_strtox@@YA_NAAUbig_integer@2@I@Z@4QBIB 10025e90     libucrt:cfout.obj
 0002:00006798       ?large_power_indices@?1??multiply_by_power_of_ten@__crt_strtox@@YA_NAAUbig_integer@2@I@Z@4QBUunpack_index@?1??12@YA_N0I@Z@B 10026798     libucrt:cfout.obj
 0002:00006830       ?small_powers_of_ten@?1??multiply_by_power_of_ten@__crt_strtox@@YA_NAAUbig_integer@2@I@Z@4QBIB 10026830     libucrt:cfout.obj
 0002:00006854       ??_C@_01GBGANLPD@0@        10026854     libucrt:cfout.obj
 0002:00006858       ??_C@_05DNEBIAHO@1?$CDINF@ 10026858     libucrt:cfout.obj
 0002:00006860       ??_C@_06IMKFLFPG@1?$CDQNAN@ 10026860     libucrt:cfout.obj
 0002:00006868       ??_C@_06PGGFOGJG@1?$CDSNAN@ 10026868     libucrt:cfout.obj
 0002:00006870       ??_C@_05PHHOCPM@1?$CDIND@  10026870     libucrt:cfout.obj
 0002:000069e0       __infinity                 100269e0     libucrt:87tran.obj
 0002:000069ea       __minfinity                100269ea     libucrt:87tran.obj
 0002:000069f4       __logemax                  100269f4     libucrt:87tran.obj
 0002:00006a1a       __OP_EXPjmptab             10026a1a     libucrt:87tran.obj
 0002:00006a40       __indefinite               10026a40     libucrt:87disp.obj
 0002:00006a4a       __piby2                    10026a4a     libucrt:87disp.obj
 0002:00006a54       __piby4                    10026a54     libucrt:87disp.obj
 0002:00006a88       __DEFAULT_CW_in_mem        10026a88     libucrt:common.obj
 0002:00006a8a       __pi_by_2_to_61            10026a8a     libucrt:common.obj
 0002:00006ac4       ??_C@_03MGHMBJCF@log@      10026ac4     libucrt:libm_error.obj
 0002:00006ac8       ??_C@_05HGHHAHAP@log10@    10026ac8     libucrt:libm_error.obj
 0002:00006ad0       ??_C@_03KHJOGHMM@exp@      10026ad0     libucrt:libm_error.obj
 0002:00006ad4       ??_C@_03JGHBODFD@pow@      10026ad4     libucrt:libm_error.obj
 0002:00006ad8       ??_C@_04FIHNOPOL@asin@     10026ad8     libucrt:libm_error.obj
 0002:00006ae0       ??_C@_04PDIFKINK@acos@     10026ae0     libucrt:libm_error.obj
 0002:00006ae8       ??_C@_04EIAKFFMI@sqrt@     10026ae8     libucrt:libm_error.obj
 0002:00006af0       __real@3ff0000000000000    10026af0     libucrt:libm_error.obj
 0002:00006af8       ??_C@_1BA@BALFACEM@?$AAC?$AAO?$AAN?$AAO?$AAU?$AAT?$AA$@ 10026af8     libucrt:initcon.obj
 0002:00006b20       ___acrt_log10_table_t      10026b20     libucrt:log10_tables.obj
 0002:00006f30       ___acrt_log10_table_cb     10026f30     libucrt:log10_tables.obj
 0002:00007340       __real@3fe0000000000000    10027340     libucrt:powhlp.obj
 0002:00007430       ??_C@_04COOMCNPB@sinh@     10027430     libucrt:fpexcept.obj
 0002:00007438       ??_C@_04HPJJNFIM@cosh@     10027438     libucrt:fpexcept.obj
 0002:00007440       ??_C@_04FJHINJAO@tanh@     10027440     libucrt:fpexcept.obj
 0002:00007448       ??_C@_04MLLJIGOK@atan@     10027448     libucrt:fpexcept.obj
 0002:00007450       ??_C@_05KNGEOGJB@atan2@    10027450     libucrt:fpexcept.obj
 0002:00007458       ??_C@_03BLEJJJBH@sin@      10027458     libucrt:fpexcept.obj
 0002:0000745c       ??_C@_03LALBNOCG@cos@      1002745c     libucrt:fpexcept.obj
 0002:00007460       ??_C@_03IIINPABG@tan@      10027460     libucrt:fpexcept.obj
 0002:00007464       ??_C@_04GFPJNGEK@ceil@     10027464     libucrt:fpexcept.obj
 0002:0000746c       ??_C@_05PBJFFIGL@floor@    1002746c     libucrt:fpexcept.obj
 0002:00007474       ??_C@_04ODHECPBC@fabs@     10027474     libucrt:fpexcept.obj
 0002:0000747c       ??_C@_04EHEDPDJG@modf@     1002747c     libucrt:fpexcept.obj
 0002:00007484       ??_C@_05CEJMAHNP@ldexp@    10027484     libucrt:fpexcept.obj
 0002:0000748c       ??_C@_05KBKMEMPO@_cabs@    1002748c     libucrt:fpexcept.obj
 0002:00007494       ??_C@_06MEIMCGCF@_hypot@   10027494     libucrt:fpexcept.obj
 0002:0000749c       ??_C@_04KEPJIHGP@fmod@     1002749c     libucrt:fpexcept.obj
 0002:000074a4       ??_C@_05GKKHEGJL@frexp@    100274a4     libucrt:fpexcept.obj
 0002:000074ac       ??_C@_03MJLDFKDL@_y0@      100274ac     libucrt:fpexcept.obj
 0002:000074b0       ??_C@_03NAKIGLHK@_y1@      100274b0     libucrt:fpexcept.obj
 0002:000074b4       ??_C@_03ONILCKOB@_yn@      100274b4     libucrt:fpexcept.obj
 0002:000074b8       ??_C@_05JGDBENOH@_logb@    100274b8     libucrt:fpexcept.obj
 0002:000074c0       ??_C@_0L@KDOEJCKC@_nextafter@ 100274c0     libucrt:fpexcept.obj
 0002:000074d0       __d_inf                    100274d0     libucrt:util.obj
 0002:000074d8       __d_max                    100274d8     libucrt:util.obj
 0002:000074e0       __d_mzero                  100274e0     libucrt:util.obj
 0002:00007550       __load_config_used         10027550     LIBCMT:loadcfg.obj
 0002:00007640       __tls_used                 10027640     LIBCMT:tlssup.obj
 0002:00007658       ??_R4exception@std@@6B@    10027658     LIBCMT:throw_bad_alloc.obj
 0002:0000766c       ??_R3exception@std@@8      1002766c     LIBCMT:throw_bad_alloc.obj
 0002:0000767c       ??_R2exception@std@@8      1002767c     LIBCMT:throw_bad_alloc.obj
 0002:00007684       ??_R1A@?0A@EA@exception@std@@8 10027684     LIBCMT:throw_bad_alloc.obj
 0002:000076a0       ??_R4bad_alloc@std@@6B@    100276a0     LIBCMT:throw_bad_alloc.obj
 0002:000076b4       ??_R3bad_alloc@std@@8      100276b4     LIBCMT:throw_bad_alloc.obj
 0002:000076c4       ??_R2bad_alloc@std@@8      100276c4     LIBCMT:throw_bad_alloc.obj
 0002:000076d0       ??_R1A@?0A@EA@bad_alloc@std@@8 100276d0     LIBCMT:throw_bad_alloc.obj
 0002:000076ec       ??_R4bad_array_new_length@std@@6B@ 100276ec     LIBCMT:throw_bad_alloc.obj
 0002:00007700       ??_R3bad_array_new_length@std@@8 10027700     LIBCMT:throw_bad_alloc.obj
 0002:00007710       ??_R2bad_array_new_length@std@@8 10027710     LIBCMT:throw_bad_alloc.obj
 0002:00007720       ??_R1A@?0A@EA@bad_array_new_length@std@@8 10027720     LIBCMT:throw_bad_alloc.obj
 0002:0000773c       ??_R4type_info@@6B@        1002773c     LIBCMT:std_type_info_static.obj
 0002:00007750       ??_R3type_info@@8          10027750     LIBCMT:std_type_info_static.obj
 0002:00007760       ??_R2type_info@@8          10027760     LIBCMT:std_type_info_static.obj
 0002:00007768       ??_R1A@?0A@EA@type_info@@8 10027768     LIBCMT:std_type_info_static.obj
 0002:00007784       ??_R4bad_exception@std@@6B@ 10027784     libvcruntime:frame.obj
 0002:00007798       ??_R3bad_exception@std@@8  10027798     libvcruntime:frame.obj
 0002:000077a8       ??_R2bad_exception@std@@8  100277a8     libvcruntime:frame.obj
 0002:000077b4       ??_R1A@?0A@EA@bad_exception@std@@8 100277b4     libvcruntime:frame.obj
 0002:000077d0       ___safe_se_handler_table   100277d0     <linker-defined>
 0002:00007bc4       ___rtc_iaa                 10027bc4     LIBCMT:initsect.obj
 0002:00007bc8       ___rtc_izz                 10027bc8     LIBCMT:initsect.obj
 0002:00007bcc       ___rtc_taa                 10027bcc     LIBCMT:initsect.obj
 0002:00007bd0       ___rtc_tzz                 10027bd0     LIBCMT:initsect.obj
 0002:00007bd4       __tls_start                10027bd4     LIBCMT:tlssup.obj
 0002:00007bd8       __Init_thread_epoch        10027bd8     LIBCMT:thread_safe_statics.obj
 0002:00007bdc       __tls_end                  10027bdc     LIBCMT:tlssup.obj
 0002:00007cdc       __TI2?AVbad_alloc@std@@    10027cdc     LIBCMT:throw_bad_alloc.obj
 0002:00007cec       __CTA2?AVbad_alloc@std@@   10027cec     LIBCMT:throw_bad_alloc.obj
 0002:00007cf8       __CT??_R0?AVbad_alloc@std@@@8??0bad_alloc@std@@QAE@ABV01@@Z12 10027cf8     LIBCMT:throw_bad_alloc.obj
 0002:00007d14       __CT??_R0?AVexception@std@@@8??0exception@std@@QAE@ABV01@@Z12 10027d14     LIBCMT:throw_bad_alloc.obj
 0002:00007d30       __TI3?AVbad_array_new_length@std@@ 10027d30     LIBCMT:throw_bad_alloc.obj
 0002:00007d40       __CTA3?AVbad_array_new_length@std@@ 10027d40     LIBCMT:throw_bad_alloc.obj
 0002:00007d50       __CT??_R0?AVbad_array_new_length@std@@@8??0bad_array_new_length@std@@QAE@ABV01@@Z12 10027d50     LIBCMT:throw_bad_alloc.obj
 0002:00007e74       __TI2?AVbad_exception@std@@ 10027e74     libvcruntime:frame.obj
 0002:00007e84       __CTA2?AVbad_exception@std@@ 10027e84     libvcruntime:frame.obj
 0002:00007e90       __CT??_R0?AVbad_exception@std@@@8??0bad_exception@std@@QAE@ABV01@@Z12 10027e90     libvcruntime:frame.obj
 0002:0000820c       ___pobjMapEntryFirst       1002820c     OposVariant.obj
 0002:00008210       ___pobjMapEntryLast        10028210     OposVariant.obj
 0002:000082c8       __IMPORT_DESCRIPTOR_KERNEL32 100282c8     kernel32:KERNEL32.dll
 0002:000082dc       __IMPORT_DESCRIPTOR_USER32 100282dc     user32:USER32.dll
 0002:000082f0       __IMPORT_DESCRIPTOR_GDI32  100282f0     gdi32:GDI32.dll
 0002:00008304       __IMPORT_DESCRIPTOR_ADVAPI32 10028304     advapi32:ADVAPI32.dll
 0002:00008318       __IMPORT_DESCRIPTOR_ole32  10028318     ole32:ole32.dll
 0002:0000832c       __IMPORT_DESCRIPTOR_OLEAUT32 1002832c     oleaut32:OLEAUT32.dll
 0002:00008340       __NULL_IMPORT_DESCRIPTOR   10028340     kernel32:KERNEL32.dll
 0003:00000000       ?s_Claim@?7??GetIDsOfNames@CComTypeInfoHolder@ATL@@QAEJABU_GUID@@PAPA_WIKPAJ@Z@4PA_WA 1002a000     Belt.obj
 0003:00000018       ?s_Release@?7??GetIDsOfNames@CComTypeInfoHolder@ATL@@QAEJABU_GUID@@PAPA_WIKPAJ@Z@4PA_WA 1002a018     Belt.obj
 0003:00000034       ?_tih@?$IDispatchImpl@UIOPOSBelt@@$1?IID_IOPOSBelt@@3U_GUID@@B$1?LIBID_OposBelt_CCO@@3U3@B$00$0A@VCComTypeInfoHolder@ATL@@@ATL@@1VCComTypeInfoHolder@2@A 1002a034     Belt.obj
 0003:00000050       ?_tih@?$IProvideClassInfo2Impl@$1?CLSID_OPOSBelt@@3U_GUID@@B$1?DIID__IOPOSBeltEvents@@3U2@B$1?LIBID_OposBelt_CCO@@3U2@B$00$0A@VCComTypeInfoHolder@ATL@@@ATL@@1VCComTypeInfoHolder@2@A 1002a050     Belt.obj
 0003:0000006c       ?vszContents@?6??Save@?$IPersistStorageImpl@VCOPOSBelt@@@ATL@@UAGJPAUIStorage@@H@Z@4PB_WB 1002a06c     Belt.obj
 0003:00000070       ?wc@?1??GetWndClassInfo@?$CWindowImpl@VCOPOSBelt@@VCWindow@ATL@@V?$CWinTraits@$0FGAAAAAA@$0A@@3@@ATL@@SAAAU_ATL_WNDCLASSINFOW@3@XZ@4U43@A 1002a070     Belt.obj
 0003:000000fc       ?rcDefault@CWindow@ATL@@2UtagRECT@@A 1002a0fc     Belt.obj
 0003:00000158       ?g_WindowName@@3PA_WA      1002a158     BeltImpl.obj
 0003:00000170       ?g_ControlDescription@@3PADA 1002a170     BeltImpl.obj
 0003:000001b4       ?g_ControlVersion@@3JA     1002a1b4     BeltImpl.obj
 0003:00000218       ___scrt_native_dllmain_reason 1002a218     LIBCMT:utility.obj
 0003:0000021c       __Init_global_epoch        1002a21c     LIBCMT:thread_safe_statics.obj
 0003:00000220       ___security_cookie_complement 1002a220     LIBCMT:gs_cookie.obj
 0003:00000224       ___security_cookie         1002a224     LIBCMT:gs_cookie.obj
 0003:00000228       ___isa_enabled             1002a228     LIBCMT:cpu_disp.obj
 0003:00000240       __NLG_Destination          1002a240     libvcruntime:exsup.obj
 0003:00000258       ___abort_behavior          1002a258     libucrt:abort.obj
 0003:00000268       __iob                      1002a268     libucrt:_file.obj
 0003:00000310       ___acrt_initial_locale_data 1002a310     libucrt:nlsdata.obj
 0003:000003c8       ___acrt_initial_locale_pointers 1002a3c8     libucrt:nlsdata.obj
 0003:000003d0       ___acrt_wide_c_locale_string 1002a3d0     libucrt:nlsdata.obj
 0003:000003d8       ___acrt_initial_multibyte_data 1002a3d8     libucrt:mbctype.obj
 0003:000008f8       __pwctype                  1002a8f8     libucrt:ctype.obj
 0003:000008fc       ___globallocalestatus      1002a8fc     libucrt:glstatus.obj
 0003:00000900       ___acrt_lconv_c            1002a900     libucrt:localeconv.obj
 0003:00000950       ___acrt_lconv_static_decimal 1002a950     libucrt:localeconv.obj
 0003:00000954       ___acrt_lconv_static_W_decimal 1002a954     libucrt:localeconv.obj
 0003:00000960       __lookuptrailbytes         1002a960     libucrt:read.obj
 0003:00000a70       __fltused                  1002aa70     LIBCMT:fltused.obj
 0003:00000a80       ??_R0?AVbad_alloc@std@@@8  1002aa80     LIBCMT:throw_bad_alloc.obj
 0003:00000a9c       ??_R0?AVexception@std@@@8  1002aa9c     LIBCMT:throw_bad_alloc.obj
 0003:00000ab8       ??_R0?AVbad_array_new_length@std@@@8 1002aab8     LIBCMT:throw_bad_alloc.obj
 0003:00000ae0       ??_R0?AVtype_info@@@8      1002aae0     LIBCMT:std_type_info_static.obj
 0003:00000af8       ??_R0?AVbad_exception@std@@@8 1002aaf8     libvcruntime:frame.obj
 0003:00000b18       ?m_bInitFailed@CAtlBaseModule@ATL@@2_NA 1002ab18     OposVariant.obj
 0003:00000b1c       ?_pPerfRegFunc@ATL@@3P6AJPAUHINSTANCE__@@@ZA 1002ab1c     OposVariant.obj
 0003:00000b20       ?_pPerfUnRegFunc@ATL@@3P6AJXZA 1002ab20     OposVariant.obj
 0003:00000b24       ?_AtlRegisterPerUser@ATL@@3_NA 1002ab24     OposVariant.obj
 0003:00000b28       ?_pAtlModule@ATL@@3PAVCAtlModule@1@A 1002ab28     OposVariant.obj
 0003:00000b2c       ?_pModule@ATL@@3PAVCComModule@1@A 1002ab2c     OposVariant.obj
 0003:00000b30       ?_AtlComModule@ATL@@3VCAtlComModule@1@A 1002ab30     OposVariant.obj
 0003:00000b58       ?_AtlWinModule@ATL@@3VCAtlWinModule@1@A 1002ab58     OposVariant.obj
 0003:00000b84       ?m_libid@CAtlModule@ATL@@2U_GUID@@A 1002ab84     Belt.obj
 0003:00000b94       ?_entries@?1??GetConnMap@COPOSBelt@@SAPBU_ATL_CONNMAP_ENTRY@ATL@@PAH@Z@4QBU34@B 1002ab94     Belt.obj
 0003:00000ba0       ?$TSS0@?1??GetConnMap@COPOSBelt@@SAPBU_ATL_CONNMAP_ENTRY@ATL@@PAH@Z@4HA 1002aba0     Belt.obj
 0003:00000ba8       ?_OptionsStorage@?1??__local_stdio_printf_options@@9@4_KA 1002aba8     Belt.obj
 0003:00000bb0       ?pfnRegDeleteKeyEx@?1??DeleteSubKey@CRegKey@ATL@@QAEJPB_W@Z@4P6GJPAUHKEY__@@0KK@ZA 1002abb0     Belt.obj
 0003:00000bb4       ?bInitialized@?1??DeleteSubKey@CRegKey@ATL@@QAEJPB_W@Z@4_NA 1002abb4     Belt.obj
 0003:00000bb8       ?_Module@@3VCComModule@ATL@@A 1002abb8     Belt.obj
 0003:00000be8       ?pConnMap@?$IConnectionPointContainerImpl@VCOPOSBelt@@@ATL@@0PBU_ATL_CONNMAP_ENTRY@2@B 1002abe8     Belt.obj
 0003:00000bec       ?s_nInstances@COPOSBelt@@1HA 1002abec     BeltImpl.obj
 0003:00000bf0       ___scrt_current_native_startup_state 1002abf0     LIBCMT:utility.obj
 0003:00000bf4       ___scrt_native_startup_lock 1002abf4     LIBCMT:utility.obj
 0003:00000f5c       __tls_index                1002af5c     LIBCMT:tlssup.obj
 0003:00000f64       ___isa_available           1002af64     LIBCMT:cpu_disp.obj
 0003:00000f68       ___favor                   1002af68     LIBCMT:cpu_disp.obj
 0003:00000f6c       ___scrt_debugger_hook_flag 1002af6c     LIBCMT:utility_desktop.obj
 0003:00000f70       ___castguard_check_failure_os_handled_fptr 1002af70     LIBCMT:guard_support.obj
 0003:00000f78       ?__type_info_root_node@@3U__type_info_node@@A 1002af78     LIBCMT:tncleanup.obj
 0003:00000f80       ?_OptionsStorage@?1??__local_stdio_scanf_options@@9@4_KA 1002af80     LIBCMT:default_local_stdio_options.obj
 0003:00000f88       ?_AtlBaseModule@ATL@@3VCAtlBaseModule@1@A 1002af88     atls:atlbase.obj
 0003:00000fc0       ?__AtlThunkPool@@3PAT_SLIST_HEADER@@A 1002afc0     atls:atlthunk.obj
 0003:00000fd8       ___@@_PchSym_@00@UztvmgUPdlipUFHUhUrmgvinvwrzgvUexgllohUzgohOmzgrevkilqPBACIAJCBDBUlyqiUcIGUhgwzucOlyq@4B2008FD98C1DD4 1002afd8     atls:stdafx.obj
 0003:00000fdc       ?__WinRTOutOfMemoryExceptionCallback@@3P6GPAXXZA 1002afdc     libvcruntime:ehhelpers.obj
 0003:00000fe0       ___pPurecall               1002afe0     libvcruntime:purevirt_data.obj
 0003:00001028       ?pArgList@UnDecorator@@0PAVReplicator@@A 1002b028     libvcruntime:undname.obj
 0003:0000102c       ?pZNameList@UnDecorator@@0PAVReplicator@@A 1002b02c     libvcruntime:undname.obj
 0003:00001030       ?pTemplateArgList@UnDecorator@@0PAVReplicator@@A 1002b030     libvcruntime:undname.obj
 0003:00001034       ?gName@UnDecorator@@0PBDB  1002b034     libvcruntime:undname.obj
 0003:00001038       ?name@UnDecorator@@0PBDB   1002b038     libvcruntime:undname.obj
 0003:0000103c       ?disableFlags@UnDecorator@@0KA 1002b03c     libvcruntime:undname.obj
 0003:00001040       ?fExplicitTemplateParams@UnDecorator@@0_NA 1002b040     libvcruntime:undname.obj
 0003:00001041       ?fGetTemplateArgumentList@UnDecorator@@0_NA 1002b041     libvcruntime:undname.obj
 0003:00001044       ?m_pGetParameter@UnDecorator@@0P6APADJ@ZA 1002b044     libvcruntime:undname.obj
 0003:00001048       ?m_CHPENameOffset@UnDecorator@@0KA 1002b048     libvcruntime:undname.obj
 0003:0000104c       ?m_recursionLevel@UnDecorator@@0KA 1002b04c     libvcruntime:undname.obj
 0003:00001090       ?c_exit_complete@?1???R<lambda_6e4b09c48022b2350581041d5f6b0c4c>@@QBE@XZ@4_NA 1002b090     libucrt:exit.obj
 0003:000011a0       __environ_table            1002b1a0     libucrt:environment_initialization.obj
 0003:000011a4       __wenviron_table           1002b1a4     libucrt:environment_initialization.obj
 0003:000011a8       ___dcrt_initial_wide_environment 1002b1a8     libucrt:environment_initialization.obj
 0003:000011ac       ___dcrt_initial_narrow_environment 1002b1ac     libucrt:environment_initialization.obj
 0003:000011b0       ___acrt_atexit_table       1002b1b0     libucrt:onexit.obj
 0003:000011bc       ___acrt_at_quick_exit_table 1002b1bc     libucrt:onexit.obj
 0003:000012b0       __nstream                  1002b2b0     libucrt:_file.obj
 0003:000012b4       ___piob                    1002b2b4     libucrt:_file.obj
 0003:000012bc       ___acrt_stdout_buffer      1002b2bc     libucrt:_sftbuf.obj
 0003:000012c0       ___acrt_stderr_buffer      1002b2c0     libucrt:_sftbuf.obj
 0003:000012c4       ___acrt_locale_changed_data 1002b2c4     libucrt:wsetlocale.obj
 0003:000012c8       ___acrt_current_locale_data 1002b2c8     libucrt:nlsdata.obj
 0003:000012d0       ___pioinfo                 1002b2d0     libucrt:ioinit.obj
 0003:000014d0       __nhandle                  1002b4d0     libucrt:ioinit.obj
 0003:0000162c       __mbctype                  1002b62c     libucrt:mbctype.obj
 0003:00001630       __mbcasemap                1002b630     libucrt:mbctype.obj
 0003:00001634       ___acrt_current_multibyte_data 1002b634     libucrt:mbctype.obj
 0003:00001640       __pgmptr                   1002b640     libucrt:argv_data.obj
 0003:00001644       ___argc                    1002b644     libucrt:argv_data.obj
 0003:00001648       ___argv                    1002b648     libucrt:argv_data.obj
 0003:0000164c       ___wargv                   1002b64c     libucrt:argv_data.obj
 0003:00001650       __acmdln                   1002b650     libucrt:argv_data.obj
 0003:00001654       __wcmdln                   1002b654     libucrt:argv_data.obj
 0003:00001658       ___acrt_heap               1002b658     libucrt:heap_handle.obj
 0003:00001674       ___acrt_lconv_static_null  1002b674     libucrt:localeconv.obj
 0003:00001678       ___acrt_lconv_static_W_null 1002b678     libucrt:localeconv.obj
 0003:00001688       ___fastflag                1002b688     libucrt:fp_flags.obj
 0003:00001690       ___dyn_tls_init_callback   1002b690     <common>
 0003:00001694       ___scrt_ucrt_dll_is_in_use 1002b694     <common>
 0003:00001698       __pmatherr                 1002b698     <common>
 0003:0000169c       ___use_sse2_mathfcns       1002b69c     <common>

 entry point at        0001:0000bc9d

 Static symbols

 0000:fffcd000       .debug$S                   10000000     OPOSBelt.exp
 0000:fffcd000       .debug$S                   10000000     advapi32:ADVAPI32.dll
 0000:fffcd000       .debug$S                   10000000     advapi32:ADVAPI32.dll
 0000:fffcd000       .debug$S                   10000000     advapi32:ADVAPI32.dll
 0000:fffcd000       .debug$S                   10000000     advapi32:ADVAPI32.dll
 0000:fffcd000       .debug$S                   10000000     advapi32:ADVAPI32.dll
 0000:fffcd000       .debug$S                   10000000     advapi32:ADVAPI32.dll
 0000:fffcd000       .debug$S                   10000000     advapi32:ADVAPI32.dll
 0000:fffcd000       .debug$S                   10000000     advapi32:ADVAPI32.dll
 0000:fffcd000       .debug$S                   10000000     advapi32:ADVAPI32.dll
 0000:fffcd000       .debug$S                   10000000     gdi32:GDI32.dll
 0000:fffcd000       .debug$S                   10000000     gdi32:GDI32.dll
 0000:fffcd000       .debug$S                   10000000     gdi32:GDI32.dll
 0000:fffcd000       .debug$S                   10000000     gdi32:GDI32.dll
 0000:fffcd000       .debug$S                   10000000     gdi32:GDI32.dll
 0000:fffcd000       .debug$S                   10000000     gdi32:GDI32.dll
 0000:fffcd000       .debug$S                   10000000     gdi32:GDI32.dll
 0000:fffcd000       .debug$S                   10000000     gdi32:GDI32.dll
 0000:fffcd000       .debug$S                   10000000     gdi32:GDI32.dll
 0000:fffcd000       .debug$S                   10000000     gdi32:GDI32.dll
 0000:fffcd000       .debug$S                   10000000     gdi32:GDI32.dll
 0000:fffcd000       .debug$S                   10000000     gdi32:GDI32.dll
 0000:fffcd000       .debug$S                   10000000     gdi32:GDI32.dll
 0000:fffcd000       .debug$S                   10000000     gdi32:GDI32.dll
 0000:fffcd000       .debug$S                   10000000     gdi32:GDI32.dll
 0000:fffcd000       .debug$S                   10000000     gdi32:GDI32.dll
 0000:fffcd000       .debug$S                   10000000     gdi32:GDI32.dll
 0000:fffcd000       .debug$S                   10000000     gdi32:GDI32.dll
 0000:fffcd000       .debug$S                   10000000     gdi32:GDI32.dll
 0000:fffcd000       .debug$S                   10000000     kernel32:KERNEL32.dll
 0000:fffcd000       .debug$S                   10000000     kernel32:KERNEL32.dll
 0000:fffcd000       .debug$S                   10000000     kernel32:KERNEL32.dll
 0000:fffcd000       .debug$S                   10000000     kernel32:KERNEL32.dll
 0000:fffcd000       .debug$S                   10000000     kernel32:KERNEL32.dll
 0000:fffcd000       .debug$S                   10000000     kernel32:KERNEL32.dll
 0000:fffcd000       .debug$S                   10000000     kernel32:KERNEL32.dll
 0000:fffcd000       .debug$S                   10000000     kernel32:KERNEL32.dll
 0000:fffcd000       .debug$S                   10000000     kernel32:KERNEL32.dll
 0000:fffcd000       .debug$S                   10000000     kernel32:KERNEL32.dll
 0000:fffcd000       .debug$S                   10000000     kernel32:KERNEL32.dll
 0000:fffcd000       .debug$S                   10000000     kernel32:KERNEL32.dll
 0000:fffcd000       .debug$S                   10000000     kernel32:KERNEL32.dll
 0000:fffcd000       .debug$S                   10000000     kernel32:KERNEL32.dll
 0000:fffcd000       .debug$S                   10000000     kernel32:KERNEL32.dll
 0000:fffcd000       .debug$S                   10000000     kernel32:KERNEL32.dll
 0000:fffcd000       .debug$S                   10000000     kernel32:KERNEL32.dll
 0000:fffcd000       .debug$S                   10000000     kernel32:KERNEL32.dll
 0000:fffcd000       .debug$S                   10000000     kernel32:KERNEL32.dll
 0000:fffcd000       .debug$S                   10000000     kernel32:KERNEL32.dll
 0000:fffcd000       .debug$S                   10000000     kernel32:KERNEL32.dll
 0000:fffcd000       .debug$S                   10000000     kernel32:KERNEL32.dll
 0000:fffcd000       .debug$S                   10000000     kernel32:KERNEL32.dll
 0000:fffcd000       .debug$S                   10000000     kernel32:KERNEL32.dll
 0000:fffcd000       .debug$S                   10000000     kernel32:KERNEL32.dll
 0000:fffcd000       .debug$S                   10000000     kernel32:KERNEL32.dll
 0000:fffcd000       .debug$S                   10000000     kernel32:KERNEL32.dll
 0000:fffcd000       .debug$S                   10000000     kernel32:KERNEL32.dll
 0000:fffcd000       .debug$S                   10000000     kernel32:KERNEL32.dll
 0000:fffcd000       .debug$S                   10000000     kernel32:KERNEL32.dll
 0000:fffcd000       .debug$S                   10000000     kernel32:KERNEL32.dll
 0000:fffcd000       .debug$S                   10000000     kernel32:KERNEL32.dll
 0000:fffcd000       .debug$S                   10000000     kernel32:KERNEL32.dll
 0000:fffcd000       .debug$S                   10000000     kernel32:KERNEL32.dll
 0000:fffcd000       .debug$S                   10000000     kernel32:KERNEL32.dll
 0000:fffcd000       .debug$S                   10000000     kernel32:KERNEL32.dll
 0000:fffcd000       .debug$S                   10000000     kernel32:KERNEL32.dll
 0000:fffcd000       .debug$S                   10000000     kernel32:KERNEL32.dll
 0000:fffcd000       .debug$S                   10000000     kernel32:KERNEL32.dll
 0000:fffcd000       .debug$S                   10000000     kernel32:KERNEL32.dll
 0000:fffcd000       .debug$S                   10000000     kernel32:KERNEL32.dll
 0000:fffcd000       .debug$S                   10000000     kernel32:KERNEL32.dll
 0000:fffcd000       .debug$S                   10000000     kernel32:KERNEL32.dll
 0000:fffcd000       .debug$S                   10000000     kernel32:KERNEL32.dll
 0000:fffcd000       .debug$S                   10000000     kernel32:KERNEL32.dll
 0000:fffcd000       .debug$S                   10000000     kernel32:KERNEL32.dll
 0000:fffcd000       .debug$S                   10000000     kernel32:KERNEL32.dll
 0000:fffcd000       .debug$S                   10000000     kernel32:KERNEL32.dll
 0000:fffcd000       .debug$S                   10000000     kernel32:KERNEL32.dll
 0000:fffcd000       .debug$S                   10000000     kernel32:KERNEL32.dll
 0000:fffcd000       .debug$S                   10000000     kernel32:KERNEL32.dll
 0000:fffcd000       .debug$S                   10000000     kernel32:KERNEL32.dll
 0000:fffcd000       .debug$S                   10000000     kernel32:KERNEL32.dll
 0000:fffcd000       .debug$S                   10000000     kernel32:KERNEL32.dll
 0000:fffcd000       .debug$S                   10000000     kernel32:KERNEL32.dll
 0000:fffcd000       .debug$S                   10000000     kernel32:KERNEL32.dll
 0000:fffcd000       .debug$S                   10000000     kernel32:KERNEL32.dll
 0000:fffcd000       .debug$S                   10000000     kernel32:KERNEL32.dll
 0000:fffcd000       .debug$S                   10000000     kernel32:KERNEL32.dll
 0000:fffcd000       .debug$S                   10000000     kernel32:KERNEL32.dll
 0000:fffcd000       .debug$S                   10000000     kernel32:KERNEL32.dll
 0000:fffcd000       .debug$S                   10000000     kernel32:KERNEL32.dll
 0000:fffcd000       .debug$S                   10000000     kernel32:KERNEL32.dll
 0000:fffcd000       .debug$S                   10000000     kernel32:KERNEL32.dll
 0000:fffcd000       .debug$S                   10000000     kernel32:KERNEL32.dll
 0000:fffcd000       .debug$S                   10000000     kernel32:KERNEL32.dll
 0000:fffcd000       .debug$S                   10000000     kernel32:KERNEL32.dll
 0000:fffcd000       .debug$S                   10000000     kernel32:KERNEL32.dll
 0000:fffcd000       .debug$S                   10000000     kernel32:KERNEL32.dll
 0000:fffcd000       .debug$S                   10000000     kernel32:KERNEL32.dll
 0000:fffcd000       .debug$S                   10000000     kernel32:KERNEL32.dll
 0000:fffcd000       .debug$S                   10000000     kernel32:KERNEL32.dll
 0000:fffcd000       .debug$S                   10000000     kernel32:KERNEL32.dll
 0000:fffcd000       .debug$S                   10000000     kernel32:KERNEL32.dll
 0000:fffcd000       .debug$S                   10000000     kernel32:KERNEL32.dll
 0000:fffcd000       .debug$S                   10000000     kernel32:KERNEL32.dll
 0000:fffcd000       .debug$S                   10000000     kernel32:KERNEL32.dll
 0000:fffcd000       .debug$S                   10000000     kernel32:KERNEL32.dll
 0000:fffcd000       .debug$S                   10000000     kernel32:KERNEL32.dll
 0000:fffcd000       .debug$S                   10000000     kernel32:KERNEL32.dll
 0000:fffcd000       .debug$S                   10000000     kernel32:KERNEL32.dll
 0000:fffcd000       .debug$S                   10000000     kernel32:KERNEL32.dll
 0000:fffcd000       .debug$S                   10000000     kernel32:KERNEL32.dll
 0000:fffcd000       .debug$S                   10000000     kernel32:KERNEL32.dll
 0000:fffcd000       .debug$S                   10000000     kernel32:KERNEL32.dll
 0000:fffcd000       .debug$S                   10000000     kernel32:KERNEL32.dll
 0000:fffcd000       .debug$S                   10000000     kernel32:KERNEL32.dll
 0000:fffcd000       .debug$S                   10000000     kernel32:KERNEL32.dll
 0000:fffcd000       .debug$S                   10000000     kernel32:KERNEL32.dll
 0000:fffcd000       .debug$S                   10000000     kernel32:KERNEL32.dll
 0000:fffcd000       .debug$S                   10000000     kernel32:KERNEL32.dll
 0000:fffcd000       .debug$S                   10000000     kernel32:KERNEL32.dll
 0000:fffcd000       .debug$S                   10000000     kernel32:KERNEL32.dll
 0000:fffcd000       .debug$S                   10000000     kernel32:KERNEL32.dll
 0000:fffcd000       .debug$S                   10000000     kernel32:KERNEL32.dll
 0000:fffcd000       .debug$S                   10000000     kernel32:KERNEL32.dll
 0000:fffcd000       .debug$S                   10000000     kernel32:KERNEL32.dll
 0000:fffcd000       .debug$S                   10000000     kernel32:KERNEL32.dll
 0000:fffcd000       .debug$S                   10000000     kernel32:KERNEL32.dll
 0000:fffcd000       .debug$S                   10000000     kernel32:KERNEL32.dll
 0000:fffcd000       .debug$S                   10000000     kernel32:KERNEL32.dll
 0000:fffcd000       .debug$S                   10000000     kernel32:KERNEL32.dll
 0000:fffcd000       .debug$S                   10000000     kernel32:KERNEL32.dll
 0000:fffcd000       .debug$S                   10000000     kernel32:KERNEL32.dll
 0000:fffcd000       .debug$S                   10000000     kernel32:KERNEL32.dll
 0000:fffcd000       .debug$S                   10000000     kernel32:KERNEL32.dll
 0000:fffcd000       .debug$S                   10000000     ole32:ole32.dll
 0000:fffcd000       .debug$S                   10000000     ole32:ole32.dll
 0000:fffcd000       .debug$S                   10000000     ole32:ole32.dll
 0000:fffcd000       .debug$S                   10000000     ole32:ole32.dll
 0000:fffcd000       .debug$S                   10000000     ole32:ole32.dll
 0000:fffcd000       .debug$S                   10000000     ole32:ole32.dll
 0000:fffcd000       .debug$S                   10000000     ole32:ole32.dll
 0000:fffcd000       .debug$S                   10000000     ole32:ole32.dll
 0000:fffcd000       .debug$S                   10000000     ole32:ole32.dll
 0000:fffcd000       .debug$S                   10000000     ole32:ole32.dll
 0000:fffcd000       .debug$S                   10000000     ole32:ole32.dll
 0000:fffcd000       .debug$S                   10000000     ole32:ole32.dll
 0000:fffcd000       .debug$S                   10000000     ole32:ole32.dll
 0000:fffcd000       .debug$S                   10000000     ole32:ole32.dll
 0000:fffcd000       .debug$S                   10000000     oleaut32:OLEAUT32.dll
 0000:fffcd000       .debug$S                   10000000     oleaut32:OLEAUT32.dll
 0000:fffcd000       .debug$S                   10000000     oleaut32:OLEAUT32.dll
 0000:fffcd000       .debug$S                   10000000     oleaut32:OLEAUT32.dll
 0000:fffcd000       .debug$S                   10000000     oleaut32:OLEAUT32.dll
 0000:fffcd000       .debug$S                   10000000     oleaut32:OLEAUT32.dll
 0000:fffcd000       .debug$S                   10000000     oleaut32:OLEAUT32.dll
 0000:fffcd000       .debug$S                   10000000     oleaut32:OLEAUT32.dll
 0000:fffcd000       .debug$S                   10000000     oleaut32:OLEAUT32.dll
 0000:fffcd000       .debug$S                   10000000     oleaut32:OLEAUT32.dll
 0000:fffcd000       .debug$S                   10000000     oleaut32:OLEAUT32.dll
 0000:fffcd000       .debug$S                   10000000     oleaut32:OLEAUT32.dll
 0000:fffcd000       .debug$S                   10000000     oleaut32:OLEAUT32.dll
 0000:fffcd000       .debug$S                   10000000     oleaut32:OLEAUT32.dll
 0000:fffcd000       .debug$S                   10000000     oleaut32:OLEAUT32.dll
 0000:fffcd000       .debug$S                   10000000     oleaut32:OLEAUT32.dll
 0000:fffcd000       .debug$S                   10000000     user32:USER32.dll
 0000:fffcd000       .debug$S                   10000000     user32:USER32.dll
 0000:fffcd000       .debug$S                   10000000     user32:USER32.dll
 0000:fffcd000       .debug$S                   10000000     user32:USER32.dll
 0000:fffcd000       .debug$S                   10000000     user32:USER32.dll
 0000:fffcd000       .debug$S                   10000000     user32:USER32.dll
 0000:fffcd000       .debug$S                   10000000     user32:USER32.dll
 0000:fffcd000       .debug$S                   10000000     user32:USER32.dll
 0000:fffcd000       .debug$S                   10000000     user32:USER32.dll
 0000:fffcd000       .debug$S                   10000000     user32:USER32.dll
 0000:fffcd000       .debug$S                   10000000     user32:USER32.dll
 0000:fffcd000       .debug$S                   10000000     user32:USER32.dll
 0000:fffcd000       .debug$S                   10000000     user32:USER32.dll
 0000:fffcd000       .debug$S                   10000000     user32:USER32.dll
 0000:fffcd000       .debug$S                   10000000     user32:USER32.dll
 0000:fffcd000       .debug$S                   10000000     user32:USER32.dll
 0000:fffcd000       .debug$S                   10000000     user32:USER32.dll
 0000:fffcd000       .debug$S                   10000000     user32:USER32.dll
 0000:fffcd000       .debug$S                   10000000     user32:USER32.dll
 0000:fffcd000       .debug$S                   10000000     user32:USER32.dll
 0000:fffcd000       .debug$S                   10000000     user32:USER32.dll
 0000:fffcd000       .debug$S                   10000000     user32:USER32.dll
 0000:fffcd000       .debug$S                   10000000     user32:USER32.dll
 0000:fffcd000       .debug$S                   10000000     user32:USER32.dll
 0000:fffcd000       .debug$S                   10000000     user32:USER32.dll
 0000:fffcd000       .debug$S                   10000000     user32:USER32.dll
 0000:fffcd000       .debug$S                   10000000     user32:USER32.dll
 0000:fffcd000       .debug$S                   10000000     user32:USER32.dll
 0000:fffcd000       .debug$S                   10000000     user32:USER32.dll
 0000:fffcd000       .debug$S                   10000000     user32:USER32.dll
 0000:fffcd000       .debug$S                   10000000     user32:USER32.dll
 0000:fffcd000       .debug$S                   10000000     user32:USER32.dll
 0000:fffcd000       .debug$S                   10000000     user32:USER32.dll
 0000:fffcd000       .debug$S                   10000000     user32:USER32.dll
 0000:fffcd000       .debug$S                   10000000     user32:USER32.dll
 0001:00000000       ??__E_AtlComModule@ATL@@YAXXZ 10001000 f   OposVariant.obj
 0001:00000016       ??__E_AtlWinModule@ATL@@YAXXZ 10001016 f   OposVariant.obj
 0001:0000002c       ??__E?pConnMap@?$IConnectionPointContainerImpl@VCOPOSBelt@@@ATL@@0PBU_ATL_CONNMAP_ENTRY@2@B@@YAXXZ 1000102c f   Belt.obj
 0001:0000003a       ??__E_Module@@YAXXZ        1000103a f   Belt.obj
 0001:00000064       ??__E_AtlBaseModule@ATL@@YAXXZ 10001064 f   atls:atlbase.obj
 0001:00000f4b       $LN24                      10001f4b     Belt.obj
 0001:0000569d       $LN48                      1000669d     Belt.obj
 0001:000056b5       $LN47                      100066b5     Belt.obj
 0001:00007860       $LN38                      10008860     Belt.obj
 0001:00007878       $LN37                      10008878     Belt.obj
 0001:00008f68       $LN76                      10009f68     Belt.obj
 0001:00008f80       $LN75                      10009f80     Belt.obj
 0001:00009339       _memcpy_s                  1000a339 f   Belt.obj
 0001:0000b12c       ?find_pe_section@@YAPAU_IMAGE_SECTION_HEADER@@QAEI@Z 1000c12c f   LIBCMT:utility.obj
 0001:0000b44b       ?__scrt_initialize_thread_safe_statics@@YAHXZ 1000c44b f   LIBCMT:thread_safe_statics.obj
 0001:0000b472       ?__scrt_initialize_thread_safe_statics_platform_specific@@YAXXZ 1000c472 f   LIBCMT:thread_safe_statics.obj
 0001:0000b4f4       ?__scrt_uninitialize_thread_safe_statics@@YAXXZ 1000c4f4 f   LIBCMT:thread_safe_statics.obj
 0001:0000b863       __catch$??2@YAPAXIABUnothrow_t@std@@@Z$0 1000c863 f   LIBCMT:new_scalar_nothrow.obj
 0001:0000b8a0       $$000000                   1000c8a0     LIBCMT:sehprolg4gs.obj
 0001:0000b900       $$000000                   1000c900     LIBCMT:alloca16.obj
 0001:0000b930       $$000000                   1000c930     LIBCMT:chkstk.obj
 0001:0000b95d       ?dllmain_crt_dispatch@@YGHQAUHINSTANCE__@@KQAX@Z 1000c95d f   LIBCMT:dll_dllmain.obj
 0001:0000b9b0       ?dllmain_crt_process_attach@@YAHQAUHINSTANCE__@@QAX@Z 1000c9b0 f   LIBCMT:dll_dllmain.obj
 0001:0000bab7       ?dllmain_crt_process_detach@@YAH_N@Z 1000cab7 f   LIBCMT:dll_dllmain.obj
 0001:0000bb67       ?dllmain_dispatch@@YAHQAUHINSTANCE__@@KQAX@Z 1000cb67 f   LIBCMT:dll_dllmain.obj
 0001:0000bc72       ?dllmain_raw@@YGHQAUHINSTANCE__@@KQAX@Z 1000cc72 f   LIBCMT:dll_dllmain.obj
 0001:0000bff0       $$000000                   1000cff0     LIBCMT:sehprolg4.obj
 0001:0000c04b       ___get_entropy             1000d04b f   LIBCMT:gs_support.obj
 0001:0000c342       ??$GetProcAddressAll@P6GP6GJPAUHWND__@@IIJ@ZPAUAtlThunkData_t@@@Z@@YAP6GP6GJPAUHWND__@@IIJ@ZPAUAtlThunkData_t@@@ZPAP6GP6GJ0IIJ@Z1@Z@Z 1000d342 f   atls:atlthunk.obj
 0001:0000c342       ??$GetProcAddressAll@P6GPAUAtlThunkData_t@@XZ@@YAP6GPAUAtlThunkData_t@@XZPAP6GPAU0@XZ@Z 1000d342 f   atls:atlthunk.obj
 0001:0000c342       ??$GetProcAddressAll@P6GXPAUAtlThunkData_t@@@Z@@YAP6GXPAUAtlThunkData_t@@@ZPAP6GX0@Z@Z 1000d342 f   atls:atlthunk.obj
 0001:0000c342       ??$GetProcAddressAll@P6GXPAUAtlThunkData_t@@PAXI@Z@@YAP6GXPAUAtlThunkData_t@@PAXI@ZPAP6GX01I@Z@Z 1000d342 f   atls:atlthunk.obj
 0001:0000c3f2       ?GetProcAddressSingle@@YA_NPAUHINSTANCE__@@PBDPAPAX@Z 1000d3f2 f   atls:atlthunk.obj
 0001:0000c544       ?__InitializeThunkPool@@YAHXZ 1000d544 f   atls:atlthunk.obj
 0001:0000c990       _ValidateLocalCookies      1000d990 f   libvcruntime:chandler4.obj
 0001:0000d9ba       $LN1250                    1000e9ba     libvcruntime:memcmp.obj
 0001:0000da40       $$000000                   1000ea40     libvcruntime:memcpy.obj
 0001:0000dca4       TrailingUpVec              1000eca4     libvcruntime:memcpy.obj
 0001:0000dd50       TrailingDownVec            1000ed50     libvcruntime:memcpy.obj
 0001:0000dfc0       $$000000                   1000efc0     libvcruntime:memset.obj
 0001:0000e5c3       ?_FilterSetCurrentException@@YAKPAU_EXCEPTION_POINTERS@@E@Z 1000f5c3 f   libvcruntime:ehhelpers.obj
 0001:0000e810       $$000000                   1000f810     libvcruntime:memmove.obj
 0001:0000ea74       TrailingUpVec              1000fa74     libvcruntime:memmove.obj
 0001:0000eb20       TrailingDownVec            1000fb20     libvcruntime:memmove.obj
 0001:0000ed90       $$000000                   1000fd90     libvcruntime:exsup4.obj
 0001:0000ee1d       __unwind_handler4          1000fe1d f   libvcruntime:exsup4.obj
 0001:0000f0fb       ??$BuildCatchObjectHelperInternal@V__FrameHandler3@@@@YAHPAUEHExceptionRecord@@PAXPBU_s_HandlerType@@PBU_s_CatchableType@@@Z 100100fb f   libvcruntime:frame.obj
 0001:0000f239       ??$BuildCatchObjectInternal@V__FrameHandler3@@@@YAXPAUEHExceptionRecord@@PAXPBU_s_HandlerType@@PBU_s_CatchableType@@@Z 10010239 f   libvcruntime:frame.obj
 0001:0000f2d2       ??$CatchIt@V__FrameHandler3@@@@YAXPAUEHExceptionRecord@@PAUEHRegistrationNode@@PAU_CONTEXT@@PAXPBU_s_FuncInfo@@PBU_s_HandlerType@@PBU_s_CatchableType@@PBU_s_TryBlockMapEntry@@H1EE@Z 100102d2 f   libvcruntime:frame.obj
 0001:0000f352       ??$FindHandler@V__FrameHandler3@@@@YAXPAUEHExceptionRecord@@PAUEHRegistrationNode@@PAU_CONTEXT@@PAXPBU_s_FuncInfo@@EH1@Z 10010352 f   libvcruntime:frame.obj
 0001:0000f708       ??$FindHandlerForForeignException@V__FrameHandler3@@@@YAXPAUEHExceptionRecord@@PAUEHRegistrationNode@@PAU_CONTEXT@@PAXPBU_s_FuncInfo@@HH1@Z 10010708 f   libvcruntime:frame.obj
 0001:0000fa20       ?CallCatchBlock@@YAPAXPAUEHExceptionRecord@@PAUEHRegistrationNode@@PAU_CONTEXT@@PBU_s_FuncInfo@@PAXHK@Z 10010a20 f   libvcruntime:frame.obj
 0001:0000fbe4       ?CallUnexpected@@YAXPBU_s_ESTypeList@@@Z 10010be4 f   libvcruntime:frame.obj
 0001:0000fc04       __catch$?CallUnexpected@@YAXPBU_s_ESTypeList@@@Z$0 10010c04 f   libvcruntime:frame.obj
 0001:0000fc23       ?ExFilterRethrow@@YAHPAU_EXCEPTION_POINTERS@@@Z 10010c23 f   libvcruntime:frame.obj
 0001:0000fd6d       ?IsInExceptionSpec@@YAEPAUEHExceptionRecord@@PBU_s_ESTypeList@@@Z 10010d6d f   libvcruntime:frame.obj
 0001:0000fe40       $$000000                   10010e40     libvcruntime:lowhelpr.obj
 0001:0000fe90       $$000000                   10010e90     libvcruntime:exsup.obj
 0001:0000feb1       __unwind_handler           10010eb1 f   libvcruntime:exsup.obj
 0001:0000ffce       ?try_get_first_available_module@@YAPAUHINSTANCE__@@QBW4module_id@?A0xb97aeec8@@0@Z 10010fce f   libvcruntime:winapi_downlevel.obj
 0001:00010068       ?try_get_function@@YAPAXW4function_id@?A0xb97aeec8@@QBDQBW4module_id@2@2@Z 10011068 f   libvcruntime:winapi_downlevel.obj
 0001:000106f2       ??$common_tcsncpy_s@_W@@YAHQA_WIQB_WI@Z 100116f2 f   libucrt:wcsncpy_s.obj
 0001:000107c8       ??$common_vsprintf@Vformat_validation_base@__crt_stdio_output@@_W@@YAH_KQA_WIQB_WQAU__crt_locale_pointers@@QAD@Z 100117c8 f   libucrt:output.obj
 0001:0001094f       ??$common_vsprintf_s@_W@@YAH_KQA_WIQB_WQAU__crt_locale_pointers@@QAD@Z 1001194f f   libucrt:output.obj
 0001:000110b3       $LN48                      100120b3     libucrt:output.obj
 0001:000115bc       $LN18                      100125bc     libucrt:output.obj
 0001:000115d0       $LN17                      100125d0     libucrt:output.obj
 0001:00011e2b       ??$?RV<lambda_03b1d95aef87969028cfba75ccab2455>@@AAV<lambda_6e4b09c48022b2350581041d5f6b0c4c>@@V<lambda_22bdf7517842c4b3e53723af5aa32b9e>@@@?$__crt_seh_guarded_call@X@@QAEX$$QAV<lambda_03b1d95aef87969028cfba75ccab2455>@@AAV<lambda_6e4b09c48022b2350581041d5f6b0c4c>@@$$QAV<lambda_22bdf7517842c4b3e53723af5aa32b9e>@@@Z 10012e2b f   libucrt:exit.obj
 0001:00011e78       ??R<lambda_6e4b09c48022b2350581041d5f6b0c4c>@@QBE@XZ 10012e78 f   libucrt:exit.obj
 0001:00011f52       ?atexit_exception_filter@@YAHK@Z 10012f52 f   libucrt:exit.obj
 0001:00011f65       ?common_exit@@YAXHW4_crt_exit_cleanup_mode@@W4_crt_exit_return_mode@@@Z 10012f65 f   libucrt:exit.obj
 0001:00011fc9       ?exit_or_terminate_process@@YAXI@Z 10012fc9 f   libucrt:exit.obj
 0001:0001200b       ?is_managed_app@@YA_NXZ    1001300b f   libucrt:exit.obj
 0001:0001204e       ?try_cor_exit_process@@YAXI@Z 1001304e f   libucrt:exit.obj
 0001:000120dc       ??$common_configure_argv@D@@YAHW4_crt_argv_mode@@@Z 100130dc f   libucrt:argv_parsing.obj
 0001:00012212       ??$parse_command_line@D@@YAXPADPAPAD0PAI2@Z 10013212 f   libucrt:argv_parsing.obj
 0001:000123e0       ??$common_initialize_environment_nolock@D@@YAHXZ 100133e0 f   libucrt:environment_initialization.obj
 0001:00012433       ??$create_environment@D@@YAQAPADQAD@Z 10013433 f   libucrt:environment_initialization.obj
 0001:00012503       ??$free_environment@D@@YAXQAPAD@Z 10013503 f   libucrt:environment_initialization.obj
 0001:00012503       ??$free_environment@_W@@YAXQAPA_W@Z 10013503 f   libucrt:environment_initialization.obj
 0001:0001255b       ??$uninitialize_environment_internal@D@@YAXAAPAPAD@Z 1001355b f   libucrt:environment_initialization.obj
 0001:00012576       ??$uninitialize_environment_internal@_W@@YAXAAPAPA_W@Z 10013576 f   libucrt:environment_initialization.obj
 0001:000125cd       ??$?RV<lambda_69a2805e680e0e292e8ba93315fe43a8>@@AAV<lambda_f03950bc5685219e0bcd2087efbe011e>@@V<lambda_03fcd07e894ec930e3f35da366ca99d6>@@@?$__crt_seh_guarded_call@H@@QAEH$$QAV<lambda_69a2805e680e0e292e8ba93315fe43a8>@@AAV<lambda_f03950bc5685219e0bcd2087efbe011e>@@$$QAV<lambda_03fcd07e894ec930e3f35da366ca99d6>@@@Z 100135cd f   libucrt:onexit.obj
 0001:00012628       ??$?RV<lambda_8e746cf0007f6ed984d6f78af1fec997>@@AAV<lambda_22ebabd17bc4fa466a2aca6d8deb888d>@@V<lambda_18ed0c0b38a6dc0daf1e7ac6d6adf05e>@@@?$__crt_seh_guarded_call@H@@QAEH$$QAV<lambda_8e746cf0007f6ed984d6f78af1fec997>@@AAV<lambda_22ebabd17bc4fa466a2aca6d8deb888d>@@$$QAV<lambda_18ed0c0b38a6dc0daf1e7ac6d6adf05e>@@@Z 10013628 f   libucrt:onexit.obj
 0001:000126a2       ??R<lambda_22ebabd17bc4fa466a2aca6d8deb888d>@@QBEHXZ 100136a2 f   libucrt:onexit.obj
 0001:000127cb       ??R<lambda_f03950bc5685219e0bcd2087efbe011e>@@QBEHXZ 100137cb f   libucrt:onexit.obj
 0001:00012944       _initialize_global_variables 10013944 f   libucrt:initialization.obj
 0001:00012951       _initialize_c              10013951 f   libucrt:initialization.obj
 0001:0001296b       _initialize_environment    1001396b f   libucrt:initialization.obj
 0001:0001296b       _initialize_global_state_isolation 1001396b f   libucrt:initialization.obj
 0001:0001296b       _report_memory_leaks       1001396b f   libucrt:initialization.obj
 0001:0001296b       _uninitialize_c            1001396b f   libucrt:initialization.obj
 0001:0001296b       _uninitialize_global_state_isolation 1001396b f   libucrt:initialization.obj
 0001:0001296e       _uninitialize_environment  1001396e f   libucrt:initialization.obj
 0001:00012976       _initialize_pointers       10013976 f   libucrt:initialization.obj
 0001:000129a4       _uninitialize_vcruntime    100139a4 f   libucrt:initialization.obj
 0001:000129ad       _uninitialize_allocated_memory 100139ad f   libucrt:initialization.obj
 0001:000129c4       _uninitialize_allocated_io_buffers 100139c4 f   libucrt:initialization.obj
 0001:00012a14       ??R<lambda_af42a3ee9806e9a7305d451646e05244>@@QBEXAAPAU__crt_multibyte_data@@@Z 10013a14 f   libucrt:initialization.obj
 0001:00013300       $$000000                   10014300     libucrt:strncmp.obj
 0001:000133ec       ??$?RV<lambda_15ade71b0218206bbe3333a0c9b79046>@@AAV<lambda_da44e0f8b0f19ba52fefafb335991732>@@V<lambda_207f2d024fc103971653565357d6cd41>@@@?$__crt_seh_guarded_call@X@@QAEX$$QAV<lambda_15ade71b0218206bbe3333a0c9b79046>@@AAV<lambda_da44e0f8b0f19ba52fefafb335991732>@@$$QAV<lambda_207f2d024fc103971653565357d6cd41>@@@Z 100143ec f   libucrt:per_thread_data.obj
 0001:0001343e       ??$?RV<lambda_38edbb1296d33220d7e4dd0ed76b244a>@@AAV<lambda_5ce1d447e08cb34b2473517608e21441>@@V<lambda_fb385d3da700c9147fc39e65dd577a8c>@@@?$__crt_seh_guarded_call@X@@QAEX$$QAV<lambda_38edbb1296d33220d7e4dd0ed76b244a>@@AAV<lambda_5ce1d447e08cb34b2473517608e21441>@@$$QAV<lambda_fb385d3da700c9147fc39e65dd577a8c>@@@Z 1001443e f   libucrt:per_thread_data.obj
 0001:000134a9       ??$?RV<lambda_6affb1475c98b40b75cdec977db92e3c>@@AAV<lambda_b8d4b9c228a6ecc3f80208dbb4b4a104>@@V<lambda_608742c3c92a14382c1684fc64f96c88>@@@?$__crt_seh_guarded_call@X@@QAEX$$QAV<lambda_6affb1475c98b40b75cdec977db92e3c>@@AAV<lambda_b8d4b9c228a6ecc3f80208dbb4b4a104>@@$$QAV<lambda_608742c3c92a14382c1684fc64f96c88>@@@Z 100144a9 f   libucrt:per_thread_data.obj
 0001:000134fe       ??$?RV<lambda_a7e850c220f1c8d1e6efeecdedd162c6>@@AAV<lambda_46720907175c18b6c9d2717bc0d2d362>@@V<lambda_9048902d66e8d99359bc9897bbb930a8>@@@?$__crt_seh_guarded_call@X@@QAEX$$QAV<lambda_a7e850c220f1c8d1e6efeecdedd162c6>@@AAV<lambda_46720907175c18b6c9d2717bc0d2d362>@@$$QAV<lambda_9048902d66e8d99359bc9897bbb930a8>@@@Z 100144fe f   libucrt:per_thread_data.obj
 0001:00013558       ?construct_ptd@@YAXQAU__acrt_ptd@@QAPAU__crt_locale_data@@@Z 10014558 f   libucrt:per_thread_data.obj
 0001:000135f1       ?destroy_fls@@YGXPAX@Z     100145f1 f   libucrt:per_thread_data.obj
 0001:00013612       ?destroy_ptd@@YAXQAU__acrt_ptd@@@Z 10014612 f   libucrt:per_thread_data.obj
 0001:000136df       ?replace_current_thread_locale_nolock@@YAXQAU__acrt_ptd@@QAU__crt_locale_data@@@Z 100146df f   libucrt:per_thread_data.obj
 0001:00013aef       ?try_get_AreFileApisANSI@@YAP6GHXZXZ 10014aef f   libucrt:winapi_thunks.obj
 0001:00013b09       ?try_get_LCMapStringEx@@YAP6GHPB_WK0HPA_WHPAU_nlsversioninfo@@PAXJ@ZXZ 10014b09 f   libucrt:winapi_thunks.obj
 0001:00013b23       ?try_get_LocaleNameToLCID@@YAP6GKPB_WK@ZXZ 10014b23 f   libucrt:winapi_thunks.obj
 0001:00013b3d       ?try_get_first_available_module@@YAPAUHINSTANCE__@@QBW4module_id@?A0x391cf84c@@0@Z 10014b3d f   libucrt:winapi_thunks.obj
 0001:00013c04       ?try_get_function@@YAPAXW4function_id@?A0x391cf84c@@QBDQBW4module_id@2@2@Z 10014c04 f   libucrt:winapi_thunks.obj
 0001:00014367       ?fe_to_nearest@@YA_NQBN_KF@Z 10015367 f   libucrt:cvt.obj
 0001:0001440a       ?fp_format_a@@YAHQBNPADIQADIH_NIQAU__crt_locale_pointers@@W4__acrt_rounding_mode@@@Z 1001540a f   libucrt:cvt.obj
 0001:00014719       ?fp_format_e@@YAHQBNQADI1IH_NIQAU__crt_locale_pointers@@W4__acrt_rounding_mode@@@Z 10015719 f   libucrt:cvt.obj
 0001:000147c1       ?fp_format_e_internal@@YAHQADIH_NIQAU_strflt@@1QAU__crt_locale_pointers@@@Z 100157c1 f   libucrt:cvt.obj
 0001:00014909       ?fp_format_f@@YAHQBNQADI1IHQAU__crt_locale_pointers@@W4__acrt_rounding_mode@@@Z 10015909 f   libucrt:cvt.obj
 0001:0001499a       ?fp_format_f_internal@@YAHQADIHQAU_strflt@@_NQAU__crt_locale_pointers@@@Z 1001599a f   libucrt:cvt.obj
 0001:00014a92       ?fp_format_g@@YAHQBNQADI1IH_NIQAU__crt_locale_pointers@@@Z 10015a92 f   libucrt:cvt.obj
 0001:00014b5b       ?fp_format_nan_or_infinity@@YAHW4__acrt_fp_class@@_NPADI1@Z 10015b5b f   libucrt:cvt.obj
 0001:00014bf0       ?shift_bytes@@YAXQADI0H@Z  10015bf0 f   libucrt:cvt.obj
 0001:00014c24       ?should_round_up@@YA_NQBN_KFW4__acrt_rounding_mode@@@Z 10015c24 f   libucrt:cvt.obj
 0001:00014f8d       ??$?RV<lambda_e5124f882df8998aaf41531e079ba474>@@AAV<lambda_3e16ef9562a7dcce91392c22ab16ea36>@@V<lambda_e25ca0880e6ef98be67edffd8c599615>@@@?$__crt_seh_guarded_call@X@@QAEX$$QAV<lambda_e5124f882df8998aaf41531e079ba474>@@AAV<lambda_3e16ef9562a7dcce91392c22ab16ea36>@@$$QAV<lambda_e25ca0880e6ef98be67edffd8c599615>@@@Z 10015f8d f   libucrt:wsetlocale.obj
 0001:0001502d       ?initialize_inherited_file_handles_nolock@@YAXXZ 1001602d f   libucrt:ioinit.obj
 0001:000150e3       ?initialize_stdio_handles_nolock@@YAXXZ 100160e3 f   libucrt:ioinit.obj
 0001:000152f4       ?<lambda_invoker_cdecl>@<lambda_838c7f62c73c983481e27c09e84b0b5d>@@CAHPBX0@Z 100162f4 f   libucrt:argv_wildcards.obj
 0001:0001530c       ??$__acrt_convert_wcs_mbs_cp@D_WV<lambda_62f6974d9771e494a5ea317cc32e971c>@@U__crt_win32_buffer_internal_dynamic_resizing@@@@YAHQBDAAV?$__crt_win32_buffer@_WU__crt_win32_buffer_internal_dynamic_resizing@@@@ABV<lambda_62f6974d9771e494a5ea317cc32e971c>@@I@Z 1001630c f   libucrt:argv_wildcards.obj
 0001:000153be       ??$__acrt_convert_wcs_mbs_cp@_WDV<lambda_28bda7af82a03b66c1cb3803a755f95d>@@U__crt_win32_buffer_internal_dynamic_resizing@@@@YAHQB_WAAV?$__crt_win32_buffer@DU__crt_win32_buffer_internal_dynamic_resizing@@@@ABV<lambda_28bda7af82a03b66c1cb3803a755f95d>@@I@Z 100163be f   libucrt:argv_wildcards.obj
 0001:000154aa       ??$common_expand_argv_wildcards@D@@YAHQAPADQAPAPAD@Z 100164aa f   libucrt:argv_wildcards.obj
 0001:00015699       ??$copy_and_add_argument_to_buffer@D@@YAHQBD0IAAV?$argument_list@D@?A0x5f5c8891@@@Z 10016699 f   libucrt:argv_wildcards.obj
 0001:0001574a       ??$expand_argument_wildcards@D@@YAHQAD0AAV?$argument_list@D@?A0x5f5c8891@@@Z 1001674a f   libucrt:argv_wildcards.obj
 0001:00015a94       ?expand_if_necessary@?$argument_list@D@?A0x5f5c8891@@AAEHXZ 10016a94 f   libucrt:argv_wildcards.obj
 0001:00015b26       ??$__acrt_convert_wcs_mbs_cp@_WDV<lambda_0fec1a7b3f42a53036604e18c2d5e07e>@@U__crt_win32_buffer_no_resizing@@@@YAHQB_WAAV?$__crt_win32_buffer@DU__crt_win32_buffer_no_resizing@@@@ABV<lambda_0fec1a7b3f42a53036604e18c2d5e07e>@@I@Z 10016b26 f   libucrt:getmodulefilenamea.obj
 0001:00015cc9       ??$?RV<lambda_ceb1ee4838e85a9d631eb091e2fbe199>@@AAV<lambda_ae742caa10f662c28703da3d2ea5e57e>@@V<lambda_cd08b5d6af4937fe54fc07d0c9bf6b37>@@@?$__crt_seh_guarded_call@X@@QAEX$$QAV<lambda_ceb1ee4838e85a9d631eb091e2fbe199>@@AAV<lambda_ae742caa10f662c28703da3d2ea5e57e>@@$$QAV<lambda_cd08b5d6af4937fe54fc07d0c9bf6b37>@@@Z 10016cc9 f   libucrt:mbctype.obj
 0001:00015d16       ??R<lambda_ae742caa10f662c28703da3d2ea5e57e>@@QBEXXZ 10016d16 f   libucrt:mbctype.obj
 0001:00015d99       ?CPtoLocaleName@@YAPB_WH@Z 10016d99 f   libucrt:mbctype.obj
 0001:00015dd7       ?getSystemCP@@YAHH@Z       10016dd7 f   libucrt:mbctype.obj
 0001:00015e48       ?setSBCS@@YAXPAU__crt_multibyte_data@@@Z 10016e48 f   libucrt:mbctype.obj
 0001:00015ead       ?setSBUpLow@@YAXPAU__crt_multibyte_data@@@Z 10016ead f   libucrt:mbctype.obj
 0001:0001602d       ?setmbcp_internal@@YAHH_NQAU__acrt_ptd@@QAPAU__crt_multibyte_data@@@Z 1001702d f   libucrt:mbctype.obj
 0001:00016141       ?update_thread_multibyte_data_internal@@YAPAU__crt_multibyte_data@@QAU__acrt_ptd@@QAPAU1@@Z 10017141 f   libucrt:mbctype.obj
 0001:0001642f       _memcpy_s                  1001742f f   libucrt:cfout.obj
 0001:0001642f       _memcpy_s                  1001742f f   libucrt:mbctype.obj
 0001:000164b0       ?x_ismbbtype_l@@YAHPAU__crt_locale_pointers@@IHH@Z 100174b0 f   libucrt:ismbbyte.obj
 0001:0001666b       ?find_end_of_double_null_terminated_sequence@@YAPB_WQB_W@Z 1001766b f   libucrt:get_environment_from_os.obj
 0001:000167da       ??$?RV<lambda_cbab9ec6f41b0180b23cc171c22676b0>@@AAV<lambda_44731a7d0e6d81c3e6aa82d741081786>@@V<lambda_4b292cb8dd18144e164572427af410ab>@@@?$__crt_seh_guarded_call@P6AXH@Z@@QAEP6AXH@Z$$QAV<lambda_cbab9ec6f41b0180b23cc171c22676b0>@@AAV<lambda_44731a7d0e6d81c3e6aa82d741081786>@@$$QAV<lambda_4b292cb8dd18144e164572427af410ab>@@@Z 100177da f   libucrt:signal.obj
 0001:0001683e       ?get_global_action_nolock@@YAPAP6AXH@ZH@Z 1001783e f   libucrt:signal.obj
 0001:00016880       ?siglookup@@YAPAU__crt_signal_action_t@@HQAU1@@Z 10017880 f   libucrt:signal.obj
 0001:00016b39       ??$?RV<lambda_2866be3712abc81a800a822484c830d8>@@AAV<lambda_39ca0ed439415581b5b15c265174cece>@@V<lambda_2b24c74d71094a6cd0cb82e44167d71b>@@@?$__crt_seh_guarded_call@X@@QAEX$$QAV<lambda_2866be3712abc81a800a822484c830d8>@@AAV<lambda_39ca0ed439415581b5b15c265174cece>@@$$QAV<lambda_2b24c74d71094a6cd0cb82e44167d71b>@@@Z 10017b39 f   libucrt:fflush.obj
 0001:00016bc5       ??$?RV<lambda_2cc53f568c5a2bb6f192f930a45d44ea>@@AAV<lambda_ab61a845afdef5b7c387490eaf3616ee>@@V<lambda_c2ffc0b7726aa6be21d5f0026187e748>@@@?$__crt_seh_guarded_call@X@@QAEX$$QAV<lambda_2cc53f568c5a2bb6f192f930a45d44ea>@@AAV<lambda_ab61a845afdef5b7c387490eaf3616ee>@@$$QAV<lambda_c2ffc0b7726aa6be21d5f0026187e748>@@@Z 10017bc5 f   libucrt:fflush.obj
 0001:00016c71       ?common_flush_all@@YAH_N@Z 10017c71 f   libucrt:fflush.obj
 0001:00016cbe       ?common_flush_all_should_try_to_flush_stream@@YA_NV__crt_stdio_stream@@QAH@Z 10017cbe f   libucrt:fflush.obj
 0001:00016cf1       ?is_stream_flushable_or_commitable@@YA_NJ@Z 10017cf1 f   libucrt:fflush.obj
 0001:000171fa       ?GetTableIndexFromLocaleName@@YAHPB_W@Z 100181fa f   libucrt:lcidtoname_downlevel.obj
 0001:000172b0       ??R<lambda_3d301b9e52f5099be73030e1f0bf487e>@@QBEIPBD@Z 100182b0 f   libucrt:mbrtowc.obj
 0001:00017436       ?should_round_up@@YA_NQBDHW4__acrt_has_trailing_digits@@W4__acrt_rounding_mode@@@Z 10018436 f   libucrt:_fptostr.obj
 0001:000191d4       ?free_crt_array_internal@@YAXQAPBXI@Z 1001a1d4 f   libucrt:inittime.obj
 0001:00019b9e       ??$common_tcsncpy_s@D@@YAHQADIQBDI@Z 1001ab9e f   libucrt:strncpy_s.obj
 0001:00019c60       $$000000                   1001ac60     libucrt:strpbrk.obj
 0001:00019d44       ?__acrt_LCMapStringA_stat@@YAHPAU__crt_locale_pointers@@PB_WKPBDHPADHHH@Z 1001ad44 f   libucrt:lcmapstringa.obj
 0001:00019f77       ?initialize_multibyte@@YAHXZ 1001af77 f   libucrt:multibyte_initializer.obj
 0001:00019f86       ??$?RV<lambda_9e9de3de5fa147e2223d7db92bc10aa6>@@AAV<lambda_38ce7e780aa69e748d6df282ebc68efe>@@V<lambda_8ca6da459f0f6780f1cff60fdc3d00e5>@@@?$__crt_seh_guarded_call@H@@QAEH$$QAV<lambda_9e9de3de5fa147e2223d7db92bc10aa6>@@AAV<lambda_38ce7e780aa69e748d6df282ebc68efe>@@$$QAV<lambda_8ca6da459f0f6780f1cff60fdc3d00e5>@@@Z 1001af86 f   libucrt:commit.obj
 0001:0001a0a5       ?write_double_translated_ansi_nolock@@YA?AUwrite_result@?A0x17268360@@HQBDI@Z 1001b0a5 f   libucrt:write.obj
 0001:0001a451       ?write_double_translated_unicode_nolock@@YA?AUwrite_result@?A0x17268360@@QBDI@Z 1001b451 f   libucrt:write.obj
 0001:0001a4b9       ?write_requires_double_translation_nolock@@YA_NH@Z 1001b4b9 f   libucrt:write.obj
 0001:0001a52a       ?write_text_ansi_nolock@@YA?AUwrite_result@?A0x17268360@@HQBDI@Z 1001b52a f   libucrt:write.obj
 0001:0001a605       ?write_text_utf16le_nolock@@YA?AUwrite_result@?A0x17268360@@HQBDI@Z 1001b605 f   libucrt:write.obj
 0001:0001a6ee       ?write_text_utf8_nolock@@YA?AUwrite_result@?A0x17268360@@HQBDI@Z 1001b6ee f   libucrt:write.obj
 0001:0001ae10       $$000000                   1001be10     libucrt:log10_impl.obj
 0001:0001af20       $$000000                   1001bf20     libucrt:ceil_pentium4.obj
 0001:0001b03d       ?to_abstract_control@@YA?AW4__acrt_fenv_abstract_control@@W4__acrt_fenv_machine_sse_control@@@Z 1001c03d f   libucrt:_fenvutils.obj
 0001:0001b0f9       ?to_abstract_control@@YA?AW4__acrt_fenv_abstract_control@@W4__acrt_fenv_machine_x87_control@@@Z 1001c0f9 f   libucrt:_fenvutils.obj
 0001:0001b1b2       ?to_machine_sse_control@@YA?AW4__acrt_fenv_machine_sse_control@@W4__acrt_fenv_abstract_control@@@Z 1001c1b2 f   libucrt:_fenvutils.obj
 0001:0001b27f       ?to_machine_x87_control@@YA?AW4__acrt_fenv_machine_x87_control@@W4__acrt_fenv_abstract_control@@@Z 1001c27f f   libucrt:_fenvutils.obj
 0001:0001b613       ??$common_lseek_nolock@_J@@YA_JH_JH@Z 1001c613 f   libucrt:lseek.obj
 0001:0001b7f9       ___hw_cw_sse2              1001c7f9 f   libucrt:ieee87.obj
 0001:0001bc7f       __hw_cw                    1001cc7f f   libucrt:ieee87.obj
 0001:0001bd30       $$000000                   1001cd30     libucrt:log10_pentium4.obj
 0001:0001bfc0       $$000000                   1001cfc0     libucrt:87tran.obj
 0001:0001c1d0       $$000000                   1001d1d0     libucrt:87disp.obj
 0001:0001c430       $$000000                   1001d430     libucrt:common.obj
 0001:0001c5c0       $$000000                   1001d5c0     libucrt:genexcep.obj
 0001:0001c8bc       ??$?RV<lambda_218ce3db14220d0be481dae8ef3383b6>@@AAV<lambda_628dfdc04ba53c8bfc02c9951375f3f5>@@V<lambda_57dc472bd5c9d5f3b2cbca59b8a843ae>@@@?$__crt_seh_guarded_call@H@@QAEH$$QAV<lambda_218ce3db14220d0be481dae8ef3383b6>@@AAV<lambda_628dfdc04ba53c8bfc02c9951375f3f5>@@$$QAV<lambda_57dc472bd5c9d5f3b2cbca59b8a843ae>@@@Z 1001d8bc f   libucrt:close.obj
 0001:0001cab0       $$000000                   1001dab0     libucrt:_strnicm.obj
 0001:0001cb11       ?__dcrt_lowio_initialize_console_output@@YAXXZ 1001db11 f   libucrt:initcon.obj
 0001:0001d9f0       $$000000                   1001e9f0     LIBCMT:ulldvrm.obj
 0001:0001da90       $$000000                   1001ea90     LIBCMT:llmul.obj
 0001:0001dad0       $$000000                   1001ead0     LIBCMT:lldvrm.obj
 0001:0001dbb0       $$000000                   1001ebb0     LIBCMT:llshl.obj
 0001:0001dbd0       $$000000                   1001ebd0     LIBCMT:ullshr.obj
 0001:0001dbf0       $$000000                   1001ebf0     LIBCMT:ftol2.obj
 0001:0001de90       $$000000                   1001ee90     libvcruntime:strrchr.obj
 0001:0001dfd0       $$000000                   1001efd0     libvcruntime:strchr.obj
 0001:0001e173       __ehhandler$??2@YAPAXIABUnothrow_t@std@@@Z 1001f173 f   LIBCMT:new_scalar_nothrow.obj
 0001:0001e190       __ehhandler$?CallUnexpected@@YAXPBU_s_ESTypeList@@@Z 1001f190 f   libvcruntime:frame.obj
 0001:0001e1ad       ??__F_AtlComModule@ATL@@YAXXZ 1001f1ad f   OposVariant.obj
 0001:0001e1b7       ??__F_AtlWinModule@ATL@@YAXXZ 1001f1b7 f   OposVariant.obj
 0001:0001e1d1       ??__F_Module@@YAXXZ        1001f1d1 f   Belt.obj
 0001:0001e1e5       ??__F_AtlBaseModule@ATL@@YAXXZ 1001f1e5 f   atls:atlbase.obj
 0002:00000304       ?_AtlBaseModule$initializer$@ATL@@3P6AXXZA 10020304     atls:atlbase.obj
 0002:00000308       ?_AtlComModule$initializer$@ATL@@3P6AXXZA 10020308     OposVariant.obj
 0002:0000030c       ?_AtlWinModule$initializer$@ATL@@3P6AXXZA 1002030c     OposVariant.obj
 0002:00000310       ?_Module$initializer$@@3P6AXXZA 10020310     Belt.obj
 0002:00000314       ??pConnMap$initializer$@?$IConnectionPointContainerImpl@VCOPOSBelt@@@ATL@@0P6AXXZA@@3P6AXXZA 10020314     Belt.obj
 0002:00000320       ?__scrt_initialize_tss_var@@3P6AHXZA 10020320     LIBCMT:thread_safe_statics.obj
 0002:00001840       _GS_ExceptionPointers      10021840     LIBCMT:gs_report.obj
 0002:000019d0       ?tokenTable@@3QBUStringLiteral@@B 100219d0     libvcruntime:undname.obj
 0002:00001a50       ?nameTable@@3QBUStringLiteral@@B 10021a50     libvcruntime:undname.obj
 0002:00001ce8       ?rttiTable@@3QBUStringLiteral@@B 10021ce8     libvcruntime:undname.obj
 0002:00001d10       ?IndirectionName@@3QBUStringLiteral@@B 10021d10     libvcruntime:undname.obj
 0002:00001d40       ?PrefixName@@3QBUStringLiteral@@B 10021d40     libvcruntime:undname.obj
 0002:00002370       ?module_names@?A0xb97aeec8@@3QBQB_WB 10022370     libvcruntime:winapi_downlevel.obj
 0002:00002418       ?candidate_modules@?1??try_get_FlsAlloc@@YAP6GKP6GXPAX@Z@ZXZ@4QBW4module_id@?A0xb97aeec8@@B 10022418     libvcruntime:winapi_downlevel.obj
 0002:0000242c       ?candidate_modules@?1??try_get_FlsFree@@YAP6GHK@ZXZ@4QBW4module_id@?A0xb97aeec8@@B 1002242c     libvcruntime:winapi_downlevel.obj
 0002:0000243c       ?candidate_modules@?1??try_get_FlsGetValue@@YAP6GPAXK@ZXZ@4QBW4module_id@?A0xb97aeec8@@B 1002243c     libvcruntime:winapi_downlevel.obj
 0002:00002450       ?candidate_modules@?1??try_get_FlsSetValue@@YAP6GHKPAX@ZXZ@4QBW4module_id@?A0xb97aeec8@@B 10022450     libvcruntime:winapi_downlevel.obj
 0002:00002464       ?candidate_modules@?1??try_get_InitializeCriticalSectionEx@@YAP6GHPAU_RTL_CRITICAL_SECTION@@KK@ZXZ@4QBW4module_id@?A0xb97aeec8@@B 10022464     libvcruntime:winapi_downlevel.obj
 0002:00002488       ?errtable@@3QBUerrentry@?A0x31fdb9ec@@B 10022488     libucrt:errno.obj
 0002:00002ad0       ___acrt_initializers       10022ad0     libucrt:initialization.obj
 0002:00002b50       ?module_names@?A0x391cf84c@@3QBQB_WB 10022b50     libucrt:winapi_thunks.obj
 0002:00002fc8       ?candidate_modules@?1??try_get_AreFileApisANSI@@YAP6GHXZXZ@4QBW4module_id@?A0x391cf84c@@B 10022fc8     libucrt:winapi_thunks.obj
 0002:00002fdc       ?candidate_modules@?1??try_get_FlsAlloc@@YAP6GKP6GXPAX@Z@ZXZ@4QBW4module_id@?A0x391cf84c@@B 10022fdc     libucrt:winapi_thunks.obj
 0002:00002fe4       ?candidate_modules@?1??try_get_FlsFree@@YAP6GHK@ZXZ@4QBW4module_id@?A0x391cf84c@@B 10022fe4     libucrt:winapi_thunks.obj
 0002:00002fec       ?candidate_modules@?1??try_get_FlsGetValue@@YAP6GPAXK@ZXZ@4QBW4module_id@?A0x391cf84c@@B 10022fec     libucrt:winapi_thunks.obj
 0002:00002ff4       ?candidate_modules@?1??try_get_FlsSetValue@@YAP6GHKPAX@ZXZ@4QBW4module_id@?A0x391cf84c@@B 10022ff4     libucrt:winapi_thunks.obj
 0002:00002ffc       ?candidate_modules@?1??try_get_InitializeCriticalSectionEx@@YAP6GHPAU_RTL_CRITICAL_SECTION@@KK@ZXZ@4QBW4module_id@?A0x391cf84c@@B 10022ffc     libucrt:winapi_thunks.obj
 0002:00003004       ?candidate_modules@?1??try_get_LCMapStringEx@@YAP6GHPB_WK0HPA_WHPAU_nlsversioninfo@@PAXJ@ZXZ@4QBW4module_id@?A0x391cf84c@@B 10023004     libucrt:winapi_thunks.obj
 0002:0000301c       ?candidate_modules@?1??try_get_LocaleNameToLCID@@YAP6GKPB_WK@ZXZ@4QBW4module_id@?A0x391cf84c@@B 1002301c     libucrt:winapi_thunks.obj
 0002:00003038       ?candidate_modules@?1??try_get_AppPolicyGetProcessTerminationMethod@@YAP6GJPAXPAW4AppPolicyProcessTerminationMethod@@@ZXZ@4QBW4module_id@?A0x391cf84c@@B 10023038     libucrt:winapi_thunks.obj
 0002:00003064       ?candidate_modules@?1??try_get_SetThreadStackGuarantee@@YAP6GHPAK@ZXZ@4QBW4module_id@?A0x391cf84c@@B 10023064     libucrt:winapi_thunks.obj
 0002:00003088       ?strings@?1??fp_format_nan_or_infinity@@YAHW4__acrt_fp_class@@_NPADI1@Z@4QAY03QBDA 10023088     libucrt:cvt.obj
 0002:000035d0       ?_mb_locale_names@@3QBQB_WB 100235d0     libucrt:mbctype.obj
 0002:00003e18       ?LcidToLocaleNameTable@?A0x881e4c05@@3QBULcidToLocaleName@1@B 10023e18     libucrt:lcidtoname_downlevel.obj
 0002:00004f40       ?LocaleNameToIndexTable@?A0x881e4c05@@3QBULocaleNameIndex@1@B 10024f40     libucrt:lcidtoname_downlevel.obj
 0002:00006880       LOG_name                   10026880     libucrt:log10_impl.obj
 0002:00006890       _One                       10026890     libucrt:ceil_pentium4.obj
 0002:000068a0       _Bns                       100268a0     libucrt:ceil_pentium4.obj
 0002:000068b0       _Zero                      100268b0     libucrt:ceil_pentium4.obj
 0002:000068c0       _S                         100268c0     libucrt:ceil_pentium4.obj
 0002:000068d0       _NegZero                   100268d0     libucrt:ceil_pentium4.obj
 0002:000068e0       emask                      100268e0     libucrt:log10_pentium4.obj
 0002:000068f0       CC                         100268f0     libucrt:log10_pentium4.obj
 0002:00006900       Magic                      10026900     libucrt:log10_pentium4.obj
 0002:00006910       hi_mask                    10026910     libucrt:log10_pentium4.obj
 0002:00006920       LOG10_2                    10026920     libucrt:log10_pentium4.obj
 0002:00006930       place_L                    10026930     libucrt:log10_pentium4.obj
 0002:00006950       One                        10026950     libucrt:log10_pentium4.obj
 0002:00006960       Zero                       10026960     libucrt:log10_pentium4.obj
 0002:00006970       Two52                      10026970     libucrt:log10_pentium4.obj
 0002:00006980       Infs                       10026980     libucrt:log10_pentium4.obj
 0002:00006990       NaN                        10026990     libucrt:log10_pentium4.obj
 0002:000069a0       coeff                      100269a0     libucrt:log10_pentium4.obj
 0002:000069fe       _log2max                   100269fe     libucrt:87tran.obj
 0002:00006a08       _smallarg                  10026a08     libucrt:87tran.obj
 0002:00006a12       _half                      10026a12     libucrt:87tran.obj
 0002:00006a5e       One                        10026a5e     libucrt:87disp.obj
 0002:00006a66       Three                      10026a66     libucrt:87disp.obj
 0002:00006a6e       XAMtoTagTab                10026a6e     libucrt:87disp.obj
 0002:00006a80       One                        10026a80     libucrt:common.obj
 0002:00006a94       DblMax                     10026a94     libucrt:common.obj
 0002:00006a9c       DblMin                     10026a9c     libucrt:common.obj
 0002:00006aa4       IeeeAdjO                   10026aa4     libucrt:common.obj
 0002:00006aac       IeeeAdjU                   10026aac     libucrt:common.obj
 0002:00006ab4       _infinity                  10026ab4     libucrt:common.obj
 0002:00006abc       _zero                      10026abc     libucrt:common.obj
 0002:00006b08       _over                      10026b08     libucrt:fpctrl.obj
 0002:00006b14       _under                     10026b14     libucrt:fpctrl.obj
 0002:00007348       ?_names@?1??_get_fname@@9@9 10027348     libucrt:fpexcept.obj
 0002:000074f0       two32                      100274f0     LIBCMT:ftol2.obj
 0002:000074f4       two63                      100274f4     LIBCMT:ftol2.obj
 0002:000074f8       _NaN                       100274f8     LIBCMT:ftol2.obj
 0002:00007be0       __sehtable$?_AtlVerifyStackAvailable@_ATL_SAFE_ALLOCA_IMPL@ATL@@YA_NK@Z 10027be0     Belt.obj
 0002:00007c00       __sehtable$___scrt_is_nonwritable_in_current_image 10027c00     LIBCMT:utility.obj
 0002:00007c1c       __catchsym$??2@YAPAXIABUnothrow_t@std@@@Z$2 10027c1c     LIBCMT:new_scalar_nothrow.obj
 0002:00007c2c       __unwindtable$??2@YAPAXIABUnothrow_t@std@@@Z 10027c2c     LIBCMT:new_scalar_nothrow.obj
 0002:00007c3c       __tryblocktable$??2@YAPAXIABUnothrow_t@std@@@Z 10027c3c     LIBCMT:new_scalar_nothrow.obj
 0002:00007c50       __ehfuncinfo$??2@YAPAXIABUnothrow_t@std@@@Z 10027c50     LIBCMT:new_scalar_nothrow.obj
 0002:00007c78       __sehtable$?dllmain_crt_process_attach@@YAHQAUHINSTANCE__@@QAX@Z 10027c78     LIBCMT:dll_dllmain.obj
 0002:00007c98       __sehtable$?dllmain_crt_process_detach@@YAH_N@Z 10027c98     LIBCMT:dll_dllmain.obj
 0002:00007cc0       __sehtable$?dllmain_dispatch@@YAHQAUHINSTANCE__@@KQAX@Z 10027cc0     LIBCMT:dll_dllmain.obj
 0002:00007d70       __sehtable$___DestructExceptionObject 10027d70     libvcruntime:ehhelpers.obj
 0002:00007d90       __sehtable$?FrameUnwindToState@__FrameHandler3@@SAXPAUEHRegistrationNode@@PAXPBU_s_FuncInfo@@H@Z 10027d90     libvcruntime:frame.obj
 0002:00007db8       __sehtable$?CallCatchBlock@@YAPAXPAUEHExceptionRecord@@PAUEHRegistrationNode@@PAU_CONTEXT@@PBU_s_FuncInfo@@PAXHK@Z 10027db8     libvcruntime:frame.obj
 0002:00007de0       __catchsym$?CallUnexpected@@YAXPBU_s_ESTypeList@@@Z$2 10027de0     libvcruntime:frame.obj
 0002:00007df0       __unwindtable$?CallUnexpected@@YAXPBU_s_ESTypeList@@@Z 10027df0     libvcruntime:frame.obj
 0002:00007e00       __tryblocktable$?CallUnexpected@@YAXPBU_s_ESTypeList@@@Z 10027e00     libvcruntime:frame.obj
 0002:00007e14       __ehfuncinfo$?CallUnexpected@@YAXPBU_s_ESTypeList@@@Z 10027e14     libvcruntime:frame.obj
 0002:00007e38       __sehtable$??$BuildCatchObjectHelperInternal@V__FrameHandler3@@@@YAHPAUEHExceptionRecord@@PAXPBU_s_HandlerType@@PBU_s_CatchableType@@@Z 10027e38     libvcruntime:frame.obj
 0002:00007e58       __sehtable$??$BuildCatchObjectInternal@V__FrameHandler3@@@@YAXPAUEHExceptionRecord@@PAXPBU_s_HandlerType@@PBU_s_CatchableType@@@Z 10027e58     libvcruntime:frame.obj
 0002:00007eb0       __sehtable$??R<lambda_6e4b09c48022b2350581041d5f6b0c4c>@@QBE@XZ 10027eb0     libucrt:exit.obj
 0002:00007ed0       __sehtable$??$?RV<lambda_03b1d95aef87969028cfba75ccab2455>@@AAV<lambda_6e4b09c48022b2350581041d5f6b0c4c>@@V<lambda_22bdf7517842c4b3e53723af5aa32b9e>@@@?$__crt_seh_guarded_call@X@@QAEX$$QAV<lambda_03b1d95aef87969028cfba75ccab2455>@@AAV<lambda_6e4b09c48022b2350581041d5f6b0c4c>@@$$QAV<lambda_22bdf7517842c4b3e53723af5aa32b9e>@@@Z 10027ed0     libucrt:exit.obj
 0002:00007ef0       __sehtable$??$?RV<lambda_8e746cf0007f6ed984d6f78af1fec997>@@AAV<lambda_22ebabd17bc4fa466a2aca6d8deb888d>@@V<lambda_18ed0c0b38a6dc0daf1e7ac6d6adf05e>@@@?$__crt_seh_guarded_call@H@@QAEH$$QAV<lambda_8e746cf0007f6ed984d6f78af1fec997>@@AAV<lambda_22ebabd17bc4fa466a2aca6d8deb888d>@@$$QAV<lambda_18ed0c0b38a6dc0daf1e7ac6d6adf05e>@@@Z 10027ef0     libucrt:onexit.obj
 0002:00007f10       __sehtable$??$?RV<lambda_69a2805e680e0e292e8ba93315fe43a8>@@AAV<lambda_f03950bc5685219e0bcd2087efbe011e>@@V<lambda_03fcd07e894ec930e3f35da366ca99d6>@@@?$__crt_seh_guarded_call@H@@QAEH$$QAV<lambda_69a2805e680e0e292e8ba93315fe43a8>@@AAV<lambda_f03950bc5685219e0bcd2087efbe011e>@@$$QAV<lambda_03fcd07e894ec930e3f35da366ca99d6>@@@Z 10027f10     libucrt:onexit.obj
 0002:00007f30       __sehtable$__query_new_handler 10027f30     libucrt:new_handler.obj
 0002:00007f50       __sehtable$_terminate      10027f50     libucrt:terminate.obj
 0002:00007f70       __sehtable$??$?RV<lambda_15ade71b0218206bbe3333a0c9b79046>@@AAV<lambda_da44e0f8b0f19ba52fefafb335991732>@@V<lambda_207f2d024fc103971653565357d6cd41>@@@?$__crt_seh_guarded_call@X@@QAEX$$QAV<lambda_15ade71b0218206bbe3333a0c9b79046>@@AAV<lambda_da44e0f8b0f19ba52fefafb335991732>@@$$QAV<lambda_207f2d024fc103971653565357d6cd41>@@@Z 10027f70     libucrt:per_thread_data.obj
 0002:00007f90       __sehtable$??$?RV<lambda_a7e850c220f1c8d1e6efeecdedd162c6>@@AAV<lambda_46720907175c18b6c9d2717bc0d2d362>@@V<lambda_9048902d66e8d99359bc9897bbb930a8>@@@?$__crt_seh_guarded_call@X@@QAEX$$QAV<lambda_a7e850c220f1c8d1e6efeecdedd162c6>@@AAV<lambda_46720907175c18b6c9d2717bc0d2d362>@@$$QAV<lambda_9048902d66e8d99359bc9897bbb930a8>@@@Z 10027f90     libucrt:per_thread_data.obj
 0002:00007fb0       __sehtable$??$?RV<lambda_38edbb1296d33220d7e4dd0ed76b244a>@@AAV<lambda_5ce1d447e08cb34b2473517608e21441>@@V<lambda_fb385d3da700c9147fc39e65dd577a8c>@@@?$__crt_seh_guarded_call@X@@QAEX$$QAV<lambda_38edbb1296d33220d7e4dd0ed76b244a>@@AAV<lambda_5ce1d447e08cb34b2473517608e21441>@@$$QAV<lambda_fb385d3da700c9147fc39e65dd577a8c>@@@Z 10027fb0     libucrt:per_thread_data.obj
 0002:00007fd0       __sehtable$??$?RV<lambda_6affb1475c98b40b75cdec977db92e3c>@@AAV<lambda_b8d4b9c228a6ecc3f80208dbb4b4a104>@@V<lambda_608742c3c92a14382c1684fc64f96c88>@@@?$__crt_seh_guarded_call@X@@QAEX$$QAV<lambda_6affb1475c98b40b75cdec977db92e3c>@@AAV<lambda_b8d4b9c228a6ecc3f80208dbb4b4a104>@@$$QAV<lambda_608742c3c92a14382c1684fc64f96c88>@@@Z 10027fd0     libucrt:per_thread_data.obj
 0002:00007ff0       __sehtable$??$?RV<lambda_e5124f882df8998aaf41531e079ba474>@@AAV<lambda_3e16ef9562a7dcce91392c22ab16ea36>@@V<lambda_e25ca0880e6ef98be67edffd8c599615>@@@?$__crt_seh_guarded_call@X@@QAEX$$QAV<lambda_e5124f882df8998aaf41531e079ba474>@@AAV<lambda_3e16ef9562a7dcce91392c22ab16ea36>@@$$QAV<lambda_e25ca0880e6ef98be67edffd8c599615>@@@Z 10027ff0     libucrt:wsetlocale.obj
 0002:00008010       __sehtable$___acrt_initialize_lowio 10028010     libucrt:ioinit.obj
 0002:00008030       __sehtable$?update_thread_multibyte_data_internal@@YAPAU__crt_multibyte_data@@QAU__acrt_ptd@@QAPAU1@@Z 10028030     libucrt:mbctype.obj
 0002:00008050       __sehtable$??$?RV<lambda_ceb1ee4838e85a9d631eb091e2fbe199>@@AAV<lambda_ae742caa10f662c28703da3d2ea5e57e>@@V<lambda_cd08b5d6af4937fe54fc07d0c9bf6b37>@@@?$__crt_seh_guarded_call@X@@QAEX$$QAV<lambda_ceb1ee4838e85a9d631eb091e2fbe199>@@AAV<lambda_ae742caa10f662c28703da3d2ea5e57e>@@$$QAV<lambda_cd08b5d6af4937fe54fc07d0c9bf6b37>@@@Z 10028050     libucrt:mbctype.obj
 0002:00008070       __sehtable$_raise          10028070     libucrt:signal.obj
 0002:00008090       __sehtable$??$?RV<lambda_cbab9ec6f41b0180b23cc171c22676b0>@@AAV<lambda_44731a7d0e6d81c3e6aa82d741081786>@@V<lambda_4b292cb8dd18144e164572427af410ab>@@@?$__crt_seh_guarded_call@P6AXH@Z@@QAEP6AXH@Z$$QAV<lambda_cbab9ec6f41b0180b23cc171c22676b0>@@AAV<lambda_44731a7d0e6d81c3e6aa82d741081786>@@$$QAV<lambda_4b292cb8dd18144e164572427af410ab>@@@Z 10028090     libucrt:signal.obj
 0002:000080b0       __sehtable$??$?RV<lambda_2866be3712abc81a800a822484c830d8>@@AAV<lambda_39ca0ed439415581b5b15c265174cece>@@V<lambda_2b24c74d71094a6cd0cb82e44167d71b>@@@?$__crt_seh_guarded_call@X@@QAEX$$QAV<lambda_2866be3712abc81a800a822484c830d8>@@AAV<lambda_39ca0ed439415581b5b15c265174cece>@@$$QAV<lambda_2b24c74d71094a6cd0cb82e44167d71b>@@@Z 100280b0     libucrt:fflush.obj
 0002:000080d0       __sehtable$??$?RV<lambda_2cc53f568c5a2bb6f192f930a45d44ea>@@AAV<lambda_ab61a845afdef5b7c387490eaf3616ee>@@V<lambda_c2ffc0b7726aa6be21d5f0026187e748>@@@?$__crt_seh_guarded_call@X@@QAEX$$QAV<lambda_2cc53f568c5a2bb6f192f930a45d44ea>@@AAV<lambda_ab61a845afdef5b7c387490eaf3616ee>@@$$QAV<lambda_c2ffc0b7726aa6be21d5f0026187e748>@@@Z 100280d0     libucrt:fflush.obj
 0002:000080f0       __sehtable$___acrt_update_thread_locale_data 100280f0     libucrt:locale_refcounting.obj
 0002:00008110       __sehtable$__fcloseall     10028110     libucrt:closeall.obj
 0002:00008130       __sehtable$___acrt_lowio_ensure_fh_exists 10028130     libucrt:osfinfo.obj
 0002:00008150       __sehtable$??$?RV<lambda_9e9de3de5fa147e2223d7db92bc10aa6>@@AAV<lambda_38ce7e780aa69e748d6df282ebc68efe>@@V<lambda_8ca6da459f0f6780f1cff60fdc3d00e5>@@@?$__crt_seh_guarded_call@H@@QAEH$$QAV<lambda_9e9de3de5fa147e2223d7db92bc10aa6>@@AAV<lambda_38ce7e780aa69e748d6df282ebc68efe>@@$$QAV<lambda_8ca6da459f0f6780f1cff60fdc3d00e5>@@@Z 10028150     libucrt:commit.obj
 0002:00008170       __sehtable$__write         10028170     libucrt:write.obj
 0002:00008190       __sehtable$_fclose         10028190     libucrt:fclose.obj
 0002:000081b0       __sehtable$??$?RV<lambda_218ce3db14220d0be481dae8ef3383b6>@@AAV<lambda_628dfdc04ba53c8bfc02c9951375f3f5>@@V<lambda_57dc472bd5c9d5f3b2cbca59b8a843ae>@@@?$__crt_seh_guarded_call@H@@QAEH$$QAV<lambda_218ce3db14220d0be481dae8ef3383b6>@@AAV<lambda_628dfdc04ba53c8bfc02c9951375f3f5>@@$$QAV<lambda_57dc472bd5c9d5f3b2cbca59b8a843ae>@@@Z 100281b0     libucrt:close.obj
 0002:000081d0       __sehtable$___set_fpsr_sse2 100281d0     libucrt:fpctrl.obj
 0002:000081f0       __sehtable$__IsNonwritableInCurrentImage 100281f0     LIBCMT:pesect.obj
 0002:00008220       .edata                     10028220     OPOSBelt.exp
 0002:00008248       rgpv                       10028248     OPOSBelt.exp
 0002:00008258       rgszName                   10028258     OPOSBelt.exp
 0002:00008268       rgwOrd                     10028268     OPOSBelt.exp
 0002:00008270       szName                     10028270     OPOSBelt.exp
 0002:0000827d       $N00001                    1002827d     OPOSBelt.exp
 0002:0000828d       $N00002                    1002828d     OPOSBelt.exp
 0002:0000829f       $N00003                    1002829f     OPOSBelt.exp
 0002:000082b1       $N00004                    100282b1     OPOSBelt.exp
 0002:000088c2       .idata$6                   100288c2     kernel32:KERNEL32.dll
 0002:00008ad6       .idata$6                   10028ad6     user32:USER32.dll
 0002:00008c0a       .idata$6                   10028c0a     gdi32:GDI32.dll
 0002:00008cb0       .idata$6                   10028cb0     advapi32:ADVAPI32.dll
 0002:00008dcc       .idata$6                   10028dcc     ole32:ole32.dll
 0002:00008dd6       .idata$6                   10028dd6     oleaut32:OLEAUT32.dll
 0003:00000110       ?ObjectMap@@3PAU_ATL_OBJMAP_ENTRY30@ATL@@A 1002a110     Belt.obj
 0003:000001b8       ?s_SOMethodNames@@3PAPADA  1002a1b8     BeltImpl.obj
 0003:00000214       ?s_RequiredMethodsPerRelease@@3PAHA 1002a214     BeltImpl.obj
 0003:00000230       ?__vcrt_flsindex@@3KA      1002a230     libvcruntime:per_thread_data.obj
 0003:00000250       ?errno_no_memory@@3HA      1002a250     libucrt:errno.obj
 0003:00000254       ?doserrno_no_memory@@3KA   1002a254     libucrt:errno.obj
 0003:00000260       ?__acrt_flsindex@@3KA      1002a260     libucrt:per_thread_data.obj
 0003:000005f8       __mbctypes                 1002a5f8     libucrt:mbctype.obj
 0003:00000700       __mbcasemaps               1002a700     libucrt:mbctype.obj
 0003:00000800       ?__rgctypeflag@@3PADA      1002a800     libucrt:mbctype.obj
 0003:00000808       ?__rgcode_page_info@@3PAUcode_page_info@@A 1002a808     libucrt:mbctype.obj
 0003:00000a60       ?__dcrt_lowio_console_output_handle@@3PAXA 1002aa60     libucrt:initcon.obj
 0003:00000a64       ?__DAZ_ENABLED@?1??__set_fpsr_sse2@@9@9 1002aa64     libucrt:fpctrl.obj
 0003:00000bf8       ?is_initialized_as_dll@@3_NA 1002abf8     LIBCMT:utility.obj
 0003:00000bf9       ?module_local_atexit_table_initialized@@3_NA 1002abf9     LIBCMT:utility.obj
 0003:00000bfc       ?module_local_atexit_table@@3U_onexit_table_t@@A 1002abfc     LIBCMT:utility.obj
 0003:00000c08       ?module_local_at_quick_exit_table@@3U_onexit_table_t@@A 1002ac08     LIBCMT:utility.obj
 0003:00000c14       ?g_tss_cv@@3U_RTL_CONDITION_VARIABLE@@A 1002ac14     LIBCMT:thread_safe_statics.obj
 0003:00000c18       ?g_tss_event@@3PAXA        1002ac18     LIBCMT:thread_safe_statics.obj
 0003:00000c1c       ?g_tss_mutex@@3U_RTL_CRITICAL_SECTION@@A 1002ac1c     LIBCMT:thread_safe_statics.obj
 0003:00000c34       ?g_sleep_condition_variable_cs@@3P6GHPAU_RTL_CONDITION_VARIABLE@@PAU_RTL_CRITICAL_SECTION@@K@ZA 1002ac34     LIBCMT:thread_safe_statics.obj
 0003:00000c38       ?g_wake_all_condition_variable@@3P6GXPAU_RTL_CONDITION_VARIABLE@@@ZA 1002ac38     LIBCMT:thread_safe_statics.obj
 0003:00000c40       _GS_ExceptionRecord        1002ac40     LIBCMT:gs_report.obj
 0003:00000c90       _GS_ContextRecord          1002ac90     LIBCMT:gs_report.obj
 0003:00000f60       ?__proc_attached@@3HA      1002af60     LIBCMT:dll_dllmain.obj
 0003:00000fc4       ?AllocateData@@3P6GPAUAtlThunkData_t@@XZA 1002afc4     atls:atlthunk.obj
 0003:00000fc8       ?InitData@@3P6GXPAUAtlThunkData_t@@PAXI@ZA 1002afc8     atls:atlthunk.obj
 0003:00000fcc       ?DataToCode@@3P6GP6GJPAUHWND__@@IIJ@ZPAUAtlThunkData_t@@@ZA 1002afcc     atls:atlthunk.obj
 0003:00000fd0       ?FreeData@@3P6GXPAUAtlThunkData_t@@@ZA 1002afd0     atls:atlthunk.obj
 0003:00000fd4       ?Initialized@@3_NA         1002afd4     atls:atlthunk.obj
 0003:00000fe4       ?__vcrt_startup_thread_ptd@@3U__vcrt_ptd@@A 1002afe4     libvcruntime:per_thread_data.obj
 0003:0000100c       ___vcrt_lock_table         1002b00c     libvcruntime:locks.obj
 0003:00001024       ___vcrt_locks_initialized  1002b024     libvcruntime:locks.obj
 0003:00001050       ?heap@@3V_HeapManager@@A   1002b050     libvcruntime:undname.obj
 0003:00001064       ?module_handles@@3PAPAUHINSTANCE__@@A 1002b064     libvcruntime:winapi_downlevel.obj
 0003:00001070       ?function_pointers@@3PAPAXA 1002b070     libvcruntime:winapi_downlevel.obj
 0003:00001084       ?__acrt_invalid_parameter_handler@@3V?$dual_state_global@P6AXPB_W00II@Z@__crt_state_management@@A 1002b084     libucrt:invalid_parameter.obj
 0003:00001088       ?c_termination_complete@@3JA 1002b088     libucrt:exit.obj
 0003:0000108c       ?thread_local_exit_callback_func@@3P6GXPAXK0@ZA 1002b08c     libucrt:exit.obj
 0003:00001098       ?program_name@?1???$common_configure_argv@D@@YAHW4_crt_argv_mode@@@Z@4PADA 1002b098     libucrt:argv_parsing.obj
 0003:000011c8       ?__acrt_new_handler@@3V?$dual_state_global@P6AHI@Z@__crt_state_management@@A 1002b1c8     libucrt:new_handler.obj
 0003:000011d0       ?module_handles@@3PAPAUHINSTANCE__@@A 1002b1d0     libucrt:winapi_thunks.obj
 0003:00001220       ?encoded_function_pointers@@3PAPAXA 1002b220     libucrt:winapi_thunks.obj
 0003:000012a8       ?internal_state@?1??_mbtowc_l@@9@4U_Mbstatet@@A 1002b2a8     libucrt:mbtowc.obj
 0003:000012b8       ?enable_percent_n@@3IA     1002b2b8     libucrt:printf_count_output.obj
 0003:000014d8       ?__acrt_lock_table@@3PAU_RTL_CRITICAL_SECTION@@A 1002b4d8     libucrt:locks.obj
 0003:00001628       ?__acrt_locks_initialized@@3IA 1002b628     libucrt:locks.obj
 0003:00001638       ?fSystemSet@@3HA           1002b638     libucrt:mbctype.obj
 0003:0000163c       ?initialized@?1??__acrt_initialize_multibyte@@9@4_NA 1002b63c     libucrt:mbctype.obj
 0003:0000165c       ?ctrlc_action@@3V?$dual_state_global@P6AXH@Z@__crt_state_management@@A 1002b65c     libucrt:signal.obj
 0003:00001660       ?ctrlbreak_action@@3V?$dual_state_global@P6AXH@Z@__crt_state_management@@A 1002b660     libucrt:signal.obj
 0003:00001664       ?abort_action@@3V?$dual_state_global@P6AXH@Z@__crt_state_management@@A 1002b664     libucrt:signal.obj
 0003:00001668       ?term_action@@3V?$dual_state_global@P6AXH@Z@__crt_state_management@@A 1002b668     libucrt:signal.obj
 0003:0000166c       ?user_matherr@@3V?$dual_state_global@P6AHPAU_exception@@@Z@__crt_state_management@@A 1002b66c     libucrt:matherr.obj
 0003:00001670       ?__acrt_global_new_mode@@3V?$dual_state_global@J@__crt_state_management@@A 1002b670     libucrt:new_mode.obj
 0003:0000167c       ?internal_pst@?1??__mbrtoc32_utf8@__crt_mbstring@@YAIPA_UPBDIPAU_Mbstatet@@@Z@4U3@A 1002b67c     libucrt:mbrtoc32.obj
 0003:00001684       ?__acrt_app_type@@3W4_crt_app_type@@A 1002b684     libucrt:report_runtime_error.obj
 0003:0000168c       __pmatherr_set             1002b68c     libucrt:libm_error.obj
 0004:00000220       $R000000                   1002c220     Belt.res
 0004:00000b98       $R000978                   1002cb98     Belt.res
 0004:00000c80       $R000A60                   1002cc80     Belt.res
 0004:00000ee8       $R000CC8                   1002cee8     Belt.res
 0004:000013c0       $R0011A0                   1002d3c0     Belt.res
 0004:00004558       $R004338                   10030558     Belt.res
 0004:00004580       $R004360                   10030580     Belt.res
