 OPOSCheckScanner

 Timestamp is 600f77da (Tue Jan 26 11:00:58 2021)

 Preferred load address is 10000000

 Start         Length     Name                   Class
 0001:00000000 00000080H .text$di                CODE
 0001:00000080 0001e7c3H .text$mn                CODE
 0001:0001e843 0000003aH .text$x                 CODE
 0001:0001e87d 00000042H .text$yd                CODE
 0002:00000000 000002fcH .idata$5                DATA
 0002:000002fc 00000004H .00cfg                  DATA
 0002:00000300 00000004H .CRT$XCA                DATA
 0002:00000304 00000004H .CRT$XCL                DATA
 0002:00000308 00000010H .CRT$XCU                DATA
 0002:00000318 00000004H .CRT$XCZ                DATA
 0002:0000031c 00000004H .CRT$XIA                DATA
 0002:00000320 00000010H .CRT$XIC                DATA
 0002:00000330 00000004H .CRT$XIZ                DATA
 0002:00000334 00000004H .CRT$XLA                DATA
 0002:00000338 00000004H .CRT$XLZ                DATA
 0002:0000033c 00000004H .CRT$XPA                DATA
 0002:00000340 00000008H .CRT$XPX                DATA
 0002:00000348 00000004H .CRT$XPXA               DATA
 0002:0000034c 00000004H .CRT$XPZ                DATA
 0002:00000350 00000004H .CRT$XTA                DATA
 0002:00000354 0000000cH .CRT$XTZ                DATA
 0002:00000358 00000000H .gfids$y                DATA
 0002:00000360 00007460H .rdata                  DATA
 0002:000077c0 00000000H .rdata$CastGuardVftablesA DATA
 0002:000077c0 00000000H .rdata$CastGuardVftablesC DATA
 0002:000077c0 00000018H .rdata$T                DATA
 0002:000077d8 00000178H .rdata$r                DATA
 0002:00007950 0000001cH .rdata$sxdata           DATA
 0002:0000796c 000003e0H .rdata$zzzdbg           DATA
 0002:00007d4c 00000004H .rtc$IAA                DATA
 0002:00007d50 00000004H .rtc$IZZ                DATA
 0002:00007d54 00000004H .rtc$TAA                DATA
 0002:00007d58 00000004H .rtc$TZZ                DATA
 0002:00007d5c 00000004H .tls                    DATA
 0002:00007d60 00000004H .tls$                   DATA
 0002:00007d64 00000004H .tls$ZZZ                DATA
 0002:00007d68 0000062cH .xdata$x                DATA
 0002:00008394 00000004H ATL$__a                 DATA
 0002:00008398 00000008H ATL$__z                 DATA
 0002:000083a0 000000b0H .edata                  DATA
 0002:00008450 00000078H .idata$2                DATA
 0002:000084c8 00000014H .idata$3                DATA
 0002:000084dc 000002fcH .idata$4                DATA
 0002:000087d8 00000bceH .idata$6                DATA
 0003:00000000 00000ac0H .data                   DATA
 0003:00000ac0 00000098H .data$r                 DATA
 0003:00000b58 00000b88H .bss                    DATA
 0004:00000000 00000220H .rsrc$01                DATA
 0004:00000220 00005110H .rsrc$02                DATA

  Address         Publics by Value              Rva+Base       Lib:Object

 0000:00000000       ___guard_fids_count        00000000     <absolute>
 0000:00000000       ___guard_longjmp_table     00000000     <absolute>
 0000:00000000       ___volatile_metadata       00000000     <absolute>
 0000:00000000       ___arm64x_extra_rfe_table  00000000     <absolute>
 0000:00000000       ___arm64x_redirection_metadata 00000000     <absolute>
 0000:00000000       ___guard_eh_cont_table     00000000     <absolute>
 0000:00000000       ___guard_eh_cont_count     00000000     <absolute>
 0000:00000000       ___guard_iat_count         00000000     <absolute>
 0000:00000000       __except_list              00000000     <absolute>
 0000:00000000       ___hybrid_code_map_count   00000000     <absolute>
 0000:00000000       ___x64_code_ranges_to_entry_points_count 00000000     <absolute>
 0000:00000000       ___x64_code_ranges_to_entry_points 00000000     <absolute>
 0000:00000000       ___guard_iat_table         00000000     <absolute>
 0000:00000000       ___arm64x_native_entrypoint 00000000     <absolute>
 0000:00000000       ___hybrid_code_map         00000000     <absolute>
 0000:00000000       ___arm64x_extra_rfe_table_size 00000000     <absolute>
 0000:00000000       ___guard_longjmp_count     00000000     <absolute>
 0000:00000000       ___arm64x_redirection_metadata_count 00000000     <absolute>
 0000:00000000       ___hybrid_auxiliary_iat    00000000     <absolute>
 0000:00000000       ___dynamic_value_reloc_table 00000000     <absolute>
 0000:00000000       ___AbsoluteZero            00000000     <absolute>
 0000:00000000       ___enclave_config          00000000     <absolute>
 0000:00000000       ___guard_fids_table        00000000     <absolute>
 0000:00000007       ___safe_se_handler_count   00000007     <absolute>
 0000:0000002c       __tls_array                0000002c     <absolute>
 0000:00000100       ___guard_flags             00000100     <absolute>
 0000:00000000       ___ImageBase               10000000     <linker-defined>
 0001:00000080       ?DupWide@_CW@@AAEXXZ       10001080 f   CWString.obj
 0001:0000009c       ?cw_dup@@YGXPBDAAHAAPA_W1@Z 1000109c f   CWString.obj
 0001:00000124       ?cw_memcpy@@YGHPA_WPBDH@Z  10001124 f   CWString.obj
 0001:00000150       ?cw_strcpy@@YAHPA_WPBD@Z   10001150 f   CWString.obj
 0001:00000163       ?cw_strlen@@YAHPBD@Z       10001163 f   CWString.obj
 0001:0000017c       ??0CAtlComModule@ATL@@QAE@XZ 1000117c f i OposVariant.obj
 0001:000001c1       ??0CAtlWinModule@ATL@@QAE@XZ 100011c1 f i OposVariant.obj
 0001:000001f8       ??0OposDispParms@@QAE@PAVOposVariant@@H@Z 100011f8 f   OposVariant.obj
 0001:00000269       ??1OposDispParms@@QAE@XZ   10001269 f   OposVariant.obj
 0001:00000277       ??A?$CSimpleArray@GV?$CSimpleArrayEqualHelper@G@ATL@@@ATL@@QAEAAGH@Z 10001277 f i OposVariant.obj
 0001:0000029c       ??_Estringdispid@CComTypeInfoHolder@ATL@@QAEPAXI@Z 1000129c f i OposVariant.obj
 0001:00000308       ?AtlWinModuleInit@ATL@@YGJPAU_ATL_WIN_MODULE70@1@@Z 10001308 f i OposVariant.obj
 0001:0000032e       ?AtlWinModuleTerm@ATL@@YGJPAU_ATL_WIN_MODULE70@1@PAUHINSTANCE__@@@Z 1000132e f i OposVariant.obj
 0001:00000391       ?ChangeBSTR@OposVariant@@QAEXPAPA_WAAJ@Z 10001391 f   OposVariant.obj
 0001:000003d2       ?ChangeLONG@OposVariant@@QAEXPAJAAJ@Z 100013d2 f   OposVariant.obj
 0001:00000413       ?GetLONG@OposVariant@@QAEJXZ 10001413 f   OposVariant.obj
 0001:0000042e       ?Init@CComCriticalSection@ATL@@QAEJXZ 1000142e f i OposVariant.obj
 0001:00000456       ?RemoveAll@?$CSimpleArray@GV?$CSimpleArrayEqualHelper@G@ATL@@@ATL@@QAEXXZ 10001456 f i OposVariant.obj
 0001:00000456       ?RemoveAll@?$CSimpleArray@PAUHINSTANCE__@@V?$CSimpleArrayEqualHelper@PAUHINSTANCE__@@@ATL@@@ATL@@QAEXXZ 10001456 f i atls:atlbase.obj
 0001:00000473       ?SetBSTR@OposVariant@@QAEXPA_WAAJ@Z 10001473 f   OposVariant.obj
 0001:000004a7       ?SetBSTR_Copy@OposVariant@@QAEXPA_WAAJ@Z 100014a7 f   OposVariant.obj
 0001:000004f7       ?SetBSTR_InOutPtr@OposVariant@@QAE_NPAPA_WAAJ@Z 100014f7 f   OposVariant.obj
 0001:0000052e       ?SetDispatch_Ptr@OposVariant@@QAEXPAUIDispatch@@AAJ@Z 1000152e f   OposVariant.obj
 0001:00000569       ?SetLONG@OposVariant@@QAEXJ@Z 10001569 f   OposVariant.obj
 0001:0000058b       ?SetLONG_Ptr@OposVariant@@QAEXPAJAAJ@Z 1000158b f   OposVariant.obj
 0001:000005be       ?SetString@OposVariant@@QAEXPB_WAAJ@Z 100015be f   OposVariant.obj
 0001:00000604       ?SetVARIANT_BOOL@OposVariant@@QAEXF@Z 10001604 f   OposVariant.obj
 0001:0000062e       ?Term@CAtlComModule@ATL@@QAEXXZ 1000162e f i OposVariant.obj
 0001:00000678       ?_AtlRaiseException@ATL@@YAXKK@Z 10001678 f i OposVariant.obj
 0001:0000068d       ??_E?$CComObject@VCOPOSCheckScanner@@@ATL@@W3AEPAXI@Z 1000168d f i CheckScanner.obj
 0001:00000695       ??_E?$CComObject@VCOPOSCheckScanner@@@ATL@@WEM@AEPAXI@Z 10001695 f i CheckScanner.obj
 0001:0000069d       ?QueryInterface@?$CComObject@VCOPOSCheckScanner@@@ATL@@WHA@AGJABU_GUID@@PAPAX@Z 1000169d f i CheckScanner.obj
 0001:000006a7       ?AddRef@?$CComObject@VCOPOSCheckScanner@@@ATL@@WHA@AGKXZ 100016a7 f i CheckScanner.obj
 0001:000006b1       ?Release@?$CComObject@VCOPOSCheckScanner@@@ATL@@WHA@AGKXZ 100016b1 f i CheckScanner.obj
 0001:000006bb       ?QueryInterface@?$CComObject@VCOPOSCheckScanner@@@ATL@@WHE@AGJABU_GUID@@PAPAX@Z 100016bb f i CheckScanner.obj
 0001:000006c5       ?AddRef@?$CComObject@VCOPOSCheckScanner@@@ATL@@WHE@AGKXZ 100016c5 f i CheckScanner.obj
 0001:000006cf       ?Release@?$CComObject@VCOPOSCheckScanner@@@ATL@@WHE@AGKXZ 100016cf f i CheckScanner.obj
 0001:000006d9       ?QueryInterface@?$CComObject@VCOPOSCheckScanner@@@ATL@@WHI@AGJABU_GUID@@PAPAX@Z 100016d9 f i CheckScanner.obj
 0001:000006e3       ?AddRef@?$CComObject@VCOPOSCheckScanner@@@ATL@@WHI@AGKXZ 100016e3 f i CheckScanner.obj
 0001:000006ed       ?Release@?$CComObject@VCOPOSCheckScanner@@@ATL@@WHI@AGKXZ 100016ed f i CheckScanner.obj
 0001:000006f7       ?QueryInterface@?$CComObject@VCOPOSCheckScanner@@@ATL@@WHM@AGJABU_GUID@@PAPAX@Z 100016f7 f i CheckScanner.obj
 0001:00000701       ?AddRef@?$CComObject@VCOPOSCheckScanner@@@ATL@@WHM@AGKXZ 10001701 f i CheckScanner.obj
 0001:0000070b       ?Release@?$CComObject@VCOPOSCheckScanner@@@ATL@@WHM@AGKXZ 1000170b f i CheckScanner.obj
 0001:00000715       ?QueryInterface@?$CComObject@VCOPOSCheckScanner@@@ATL@@WIA@AGJABU_GUID@@PAPAX@Z 10001715 f i CheckScanner.obj
 0001:00000722       ?AddRef@?$CComObject@VCOPOSCheckScanner@@@ATL@@WIA@AGKXZ 10001722 f i CheckScanner.obj
 0001:0000072f       ?Release@?$CComObject@VCOPOSCheckScanner@@@ATL@@WIA@AGKXZ 1000172f f i CheckScanner.obj
 0001:0000073c       ?QueryInterface@?$CComObject@VCOPOSCheckScanner@@@ATL@@WIE@AGJABU_GUID@@PAPAX@Z 1000173c f i CheckScanner.obj
 0001:00000749       ?AddRef@?$CComObject@VCOPOSCheckScanner@@@ATL@@WIE@AGKXZ 10001749 f i CheckScanner.obj
 0001:00000756       ?Release@?$CComObject@VCOPOSCheckScanner@@@ATL@@WIE@AGKXZ 10001756 f i CheckScanner.obj
 0001:00000763       ?QueryInterface@?$CComObject@VCOPOSCheckScanner@@@ATL@@WII@AGJABU_GUID@@PAPAX@Z 10001763 f i CheckScanner.obj
 0001:00000770       ?AddRef@?$CComObject@VCOPOSCheckScanner@@@ATL@@WII@AGKXZ 10001770 f i CheckScanner.obj
 0001:0000077d       ?Release@?$CComObject@VCOPOSCheckScanner@@@ATL@@WII@AGKXZ 1000177d f i CheckScanner.obj
 0001:0000078a       ?QueryInterface@?$CComObject@VCOPOSCheckScanner@@@ATL@@WIM@AGJABU_GUID@@PAPAX@Z 1000178a f i CheckScanner.obj
 0001:00000797       ?AddRef@?$CComObject@VCOPOSCheckScanner@@@ATL@@WIM@AGKXZ 10001797 f i CheckScanner.obj
 0001:000007a4       ?Release@?$CComObject@VCOPOSCheckScanner@@@ATL@@WIM@AGKXZ 100017a4 f i CheckScanner.obj
 0001:000007b1       ?QueryInterface@?$CComObject@VCOPOSCheckScanner@@@ATL@@WJA@AGJABU_GUID@@PAPAX@Z 100017b1 f i CheckScanner.obj
 0001:000007be       ?AddRef@?$CComObject@VCOPOSCheckScanner@@@ATL@@WJA@AGKXZ 100017be f i CheckScanner.obj
 0001:000007cb       ?Release@?$CComObject@VCOPOSCheckScanner@@@ATL@@WJA@AGKXZ 100017cb f i CheckScanner.obj
 0001:000007d8       ?QueryInterface@?$CComObject@VCOPOSCheckScanner@@@ATL@@WJE@AGJABU_GUID@@PAPAX@Z 100017d8 f i CheckScanner.obj
 0001:000007e5       ?AddRef@?$CComObject@VCOPOSCheckScanner@@@ATL@@WJE@AGKXZ 100017e5 f i CheckScanner.obj
 0001:000007f2       ?Release@?$CComObject@VCOPOSCheckScanner@@@ATL@@WJE@AGKXZ 100017f2 f i CheckScanner.obj
 0001:000007ff       ?QueryInterface@?$CComObject@VCOPOSCheckScanner@@@ATL@@WJI@AGJABU_GUID@@PAPAX@Z 100017ff f i CheckScanner.obj
 0001:0000080c       ?AddRef@?$CComObject@VCOPOSCheckScanner@@@ATL@@WJI@AGKXZ 1000180c f i CheckScanner.obj
 0001:00000819       ?Release@?$CComObject@VCOPOSCheckScanner@@@ATL@@WJI@AGKXZ 10001819 f i CheckScanner.obj
 0001:00000826       ?QueryInterface@?$CComObject@VCOPOSCheckScanner@@@ATL@@WJM@AGJABU_GUID@@PAPAX@Z 10001826 f i CheckScanner.obj
 0001:00000833       ?CreateInstance@CComClassFactory@ATL@@UAGJPAUIUnknown@@ABU_GUID@@PAPAX@Z 10001833 f i CheckScanner.obj
 0001:00000871       ?AddRef@?$CComObject@VCOPOSCheckScanner@@@ATL@@WJM@AGKXZ 10001871 f i CheckScanner.obj
 0001:0000087e       ?Release@?$CComObject@VCOPOSCheckScanner@@@ATL@@WJM@AGKXZ 1000187e f i CheckScanner.obj
 0001:0000088b       ?LockServer@CComClassFactory@ATL@@UAGJH@Z 1000188b f i CheckScanner.obj
 0001:000008aa       ?QueryInterface@?$CComObject@VCOPOSCheckScanner@@@ATL@@WKA@AGJABU_GUID@@PAPAX@Z 100018aa f i CheckScanner.obj
 0001:000008b7       ?AddRef@?$CComObject@VCOPOSCheckScanner@@@ATL@@WKA@AGKXZ 100018b7 f i CheckScanner.obj
 0001:000008c4       ?Release@?$CComObject@VCOPOSCheckScanner@@@ATL@@WKA@AGKXZ 100018c4 f i CheckScanner.obj
 0001:000008d1       ?AddRef@?$CComObject@VCOPOSCheckScanner@@@ATL@@WKI@AGKXZ 100018d1 f i CheckScanner.obj
 0001:000008de       ?Release@?$CComObject@VCOPOSCheckScanner@@@ATL@@WKI@AGKXZ 100018de f i CheckScanner.obj
 0001:000008eb       ?AddRef@?$CComObject@VCOPOSCheckScanner@@@ATL@@WLE@AGKXZ 100018eb f i CheckScanner.obj
 0001:000008f8       ?Release@?$CComObject@VCOPOSCheckScanner@@@ATL@@WLE@AGKXZ 100018f8 f i CheckScanner.obj
 0001:00000905       ??_ECComClassFactory@ATL@@UAEPAXI@Z 10001905 f i CheckScanner.obj
 0001:00000905       ??_GCComClassFactory@ATL@@UAEPAXI@Z 10001905 f i CheckScanner.obj
 0001:00000930       ??_E?$CComContainedObject@VCOPOSCheckScanner@@@ATL@@W3AEPAXI@Z 10001930 f i CheckScanner.obj
 0001:00000938       ??_E?$CComContainedObject@VCOPOSCheckScanner@@@ATL@@WEM@AEPAXI@Z 10001938 f i CheckScanner.obj
 0001:00000940       ?QueryInterface@?$CComContainedObject@VCOPOSCheckScanner@@@ATL@@WHA@AGJABU_GUID@@PAPAX@Z 10001940 f i CheckScanner.obj
 0001:0000094a       ?AddRef@?$CComContainedObject@VCOPOSCheckScanner@@@ATL@@WHA@AGKXZ 1000194a f i CheckScanner.obj
 0001:00000954       ?Release@?$CComContainedObject@VCOPOSCheckScanner@@@ATL@@WHA@AGKXZ 10001954 f i CheckScanner.obj
 0001:0000095e       ?QueryInterface@?$CComContainedObject@VCOPOSCheckScanner@@@ATL@@WHE@AGJABU_GUID@@PAPAX@Z 1000195e f i CheckScanner.obj
 0001:00000968       ?AddRef@?$CComContainedObject@VCOPOSCheckScanner@@@ATL@@WHE@AGKXZ 10001968 f i CheckScanner.obj
 0001:00000972       ?Release@?$CComContainedObject@VCOPOSCheckScanner@@@ATL@@WHE@AGKXZ 10001972 f i CheckScanner.obj
 0001:0000097c       ?QueryInterface@?$CComContainedObject@VCOPOSCheckScanner@@@ATL@@WHI@AGJABU_GUID@@PAPAX@Z 1000197c f i CheckScanner.obj
 0001:00000986       ?AddRef@?$CComContainedObject@VCOPOSCheckScanner@@@ATL@@WHI@AGKXZ 10001986 f i CheckScanner.obj
 0001:00000990       ?Release@?$CComContainedObject@VCOPOSCheckScanner@@@ATL@@WHI@AGKXZ 10001990 f i CheckScanner.obj
 0001:0000099a       ?QueryInterface@?$CComContainedObject@VCOPOSCheckScanner@@@ATL@@WHM@AGJABU_GUID@@PAPAX@Z 1000199a f i CheckScanner.obj
 0001:000009a4       ?AddRef@?$CComContainedObject@VCOPOSCheckScanner@@@ATL@@WHM@AGKXZ 100019a4 f i CheckScanner.obj
 0001:000009ae       ?Release@?$CComContainedObject@VCOPOSCheckScanner@@@ATL@@WHM@AGKXZ 100019ae f i CheckScanner.obj
 0001:000009b8       ?QueryInterface@?$CComContainedObject@VCOPOSCheckScanner@@@ATL@@WIA@AGJABU_GUID@@PAPAX@Z 100019b8 f i CheckScanner.obj
 0001:000009c5       ?AddRef@?$CComContainedObject@VCOPOSCheckScanner@@@ATL@@WIA@AGKXZ 100019c5 f i CheckScanner.obj
 0001:000009d2       ?Release@?$CComContainedObject@VCOPOSCheckScanner@@@ATL@@WIA@AGKXZ 100019d2 f i CheckScanner.obj
 0001:000009df       ?QueryInterface@?$CComContainedObject@VCOPOSCheckScanner@@@ATL@@WIE@AGJABU_GUID@@PAPAX@Z 100019df f i CheckScanner.obj
 0001:000009ec       ?AddRef@?$CComContainedObject@VCOPOSCheckScanner@@@ATL@@WIE@AGKXZ 100019ec f i CheckScanner.obj
 0001:000009f9       ?Release@?$CComContainedObject@VCOPOSCheckScanner@@@ATL@@WIE@AGKXZ 100019f9 f i CheckScanner.obj
 0001:00000a06       ?QueryInterface@?$CComContainedObject@VCOPOSCheckScanner@@@ATL@@WII@AGJABU_GUID@@PAPAX@Z 10001a06 f i CheckScanner.obj
 0001:00000a13       ?AddRef@?$CComContainedObject@VCOPOSCheckScanner@@@ATL@@WII@AGKXZ 10001a13 f i CheckScanner.obj
 0001:00000a20       ?Release@?$CComContainedObject@VCOPOSCheckScanner@@@ATL@@WII@AGKXZ 10001a20 f i CheckScanner.obj
 0001:00000a2d       ?QueryInterface@?$CComContainedObject@VCOPOSCheckScanner@@@ATL@@WIM@AGJABU_GUID@@PAPAX@Z 10001a2d f i CheckScanner.obj
 0001:00000a3a       ?AddRef@?$CComContainedObject@VCOPOSCheckScanner@@@ATL@@WIM@AGKXZ 10001a3a f i CheckScanner.obj
 0001:00000a47       ?Release@?$CComContainedObject@VCOPOSCheckScanner@@@ATL@@WIM@AGKXZ 10001a47 f i CheckScanner.obj
 0001:00000a54       ?QueryInterface@?$CComContainedObject@VCOPOSCheckScanner@@@ATL@@WJA@AGJABU_GUID@@PAPAX@Z 10001a54 f i CheckScanner.obj
 0001:00000a61       ?AddRef@?$CComContainedObject@VCOPOSCheckScanner@@@ATL@@WJA@AGKXZ 10001a61 f i CheckScanner.obj
 0001:00000a6e       ?Release@?$CComContainedObject@VCOPOSCheckScanner@@@ATL@@WJA@AGKXZ 10001a6e f i CheckScanner.obj
 0001:00000a7b       ?QueryInterface@?$CComContainedObject@VCOPOSCheckScanner@@@ATL@@WJE@AGJABU_GUID@@PAPAX@Z 10001a7b f i CheckScanner.obj
 0001:00000a88       ?AddRef@?$CComContainedObject@VCOPOSCheckScanner@@@ATL@@WJE@AGKXZ 10001a88 f i CheckScanner.obj
 0001:00000a95       ?Release@?$CComContainedObject@VCOPOSCheckScanner@@@ATL@@WJE@AGKXZ 10001a95 f i CheckScanner.obj
 0001:00000aa2       ?QueryInterface@?$CComContainedObject@VCOPOSCheckScanner@@@ATL@@WJI@AGJABU_GUID@@PAPAX@Z 10001aa2 f i CheckScanner.obj
 0001:00000aaf       ?AddRef@?$CComContainedObject@VCOPOSCheckScanner@@@ATL@@WJI@AGKXZ 10001aaf f i CheckScanner.obj
 0001:00000abc       ?Release@?$CComContainedObject@VCOPOSCheckScanner@@@ATL@@WJI@AGKXZ 10001abc f i CheckScanner.obj
 0001:00000ac9       ?QueryInterface@?$CComContainedObject@VCOPOSCheckScanner@@@ATL@@WJM@AGJABU_GUID@@PAPAX@Z 10001ac9 f i CheckScanner.obj
 0001:00000ad6       ?AddRef@?$CComContainedObject@VCOPOSCheckScanner@@@ATL@@WJM@AGKXZ 10001ad6 f i CheckScanner.obj
 0001:00000ae3       ?Release@?$CComContainedObject@VCOPOSCheckScanner@@@ATL@@WJM@AGKXZ 10001ae3 f i CheckScanner.obj
 0001:00000af0       ?QueryInterface@?$CComContainedObject@VCOPOSCheckScanner@@@ATL@@WKA@AGJABU_GUID@@PAPAX@Z 10001af0 f i CheckScanner.obj
 0001:00000afd       ?AddRef@?$CComContainedObject@VCOPOSCheckScanner@@@ATL@@WKA@AGKXZ 10001afd f i CheckScanner.obj
 0001:00000b0a       ?Release@?$CComContainedObject@VCOPOSCheckScanner@@@ATL@@WKA@AGKXZ 10001b0a f i CheckScanner.obj
 0001:00000b17       ?AddRef@?$CComContainedObject@VCOPOSCheckScanner@@@ATL@@WKI@AGKXZ 10001b17 f i CheckScanner.obj
 0001:00000b24       ?Release@?$CComContainedObject@VCOPOSCheckScanner@@@ATL@@WKI@AGKXZ 10001b24 f i CheckScanner.obj
 0001:00000b31       ?AddRef@?$CComContainedObject@VCOPOSCheckScanner@@@ATL@@WLE@AGKXZ 10001b31 f i CheckScanner.obj
 0001:00000b3e       ?Release@?$CComContainedObject@VCOPOSCheckScanner@@@ATL@@WLE@AGKXZ 10001b3e f i CheckScanner.obj
 0001:00000b4b       ?GetWindowProc@?$CWindowImplBaseT@VCWindow@ATL@@V?$CWinTraits@$0FGAAAAAA@$0A@@2@@ATL@@UAEP6GJPAUHWND__@@IIJ@ZXZ 10001b4b f i CheckScanner.obj
 0001:00000b51       ?StartWindowProc@?$CWindowImplBaseT@VCWindow@ATL@@V?$CWinTraits@$0FGAAAAAA@$0A@@2@@ATL@@SGJPAUHWND__@@IIJ@Z 10001b51 f i CheckScanner.obj
 0001:00000ba5       ?ObjectMain@CComObjectRootBase@ATL@@SGX_N@Z 10001ba5 f i CheckScanner.obj
 0001:00000ba5       ?OnFinalMessage@?$CWindowImplBaseT@VCWindow@ATL@@V?$CWinTraits@$0FGAAAAAA@$0A@@2@@ATL@@UAEXPAUHWND__@@@Z 10001ba5 f i CheckScanner.obj
 0001:00000ba8       ?GetTypeInfoCount@?$IDispatchImpl@UIOPOSCheckScanner@@$1?IID_IOPOSCheckScanner@@3U_GUID@@B$1?LIBID_OposCheckScanner_CCO@@3U3@B$00$0A@VCComTypeInfoHolder@ATL@@@ATL@@UAGJPAI@Z 10001ba8 f i CheckScanner.obj
 0001:00000bc5       ?GetTypeInfo@?$IDispatchImpl@UIOPOSCheckScanner@@$1?IID_IOPOSCheckScanner@@3U_GUID@@B$1?LIBID_OposCheckScanner_CCO@@3U3@B$00$0A@VCComTypeInfoHolder@ATL@@@ATL@@UAGJIKPAPAUITypeInfo@@@Z 10001bc5 f i CheckScanner.obj
 0001:00000be9       ?GetIDsOfNames@?$IDispatchImpl@UIOPOSCheckScanner@@$1?IID_IOPOSCheckScanner@@3U_GUID@@B$1?LIBID_OposCheckScanner_CCO@@3U3@B$00$0A@VCComTypeInfoHolder@ATL@@@ATL@@UAGJABU_GUID@@PAPA_WIKPAJ@Z 10001be9 f i CheckScanner.obj
 0001:00000c09       ?Invoke@?$IDispatchImpl@UIOPOSCheckScanner@@$1?IID_IOPOSCheckScanner@@3U_GUID@@B$1?LIBID_OposCheckScanner_CCO@@3U3@B$00$0A@VCComTypeInfoHolder@ATL@@@ATL@@UAGJJABU_GUID@@KGPAUtagDISPPARAMS@@PAUtagVARIANT@@PAUtagEXCEPINFO@@PAI@Z 10001c09 f i CheckScanner.obj
 0001:00000c17       ?CreateControlWindow@?$CComControl@VCOPOSCheckScanner@@V?$CWindowImpl@VCOPOSCheckScanner@@VCWindow@ATL@@V?$CWinTraits@$0FGAAAAAA@$0A@@3@@ATL@@@ATL@@UAEPAUHWND__@@PAU3@AAUtagRECT@@@Z 10001c17 f i CheckScanner.obj
 0001:00000c46       ?ControlQueryInterface@?$CComControl@VCOPOSCheckScanner@@V?$CWindowImpl@VCOPOSCheckScanner@@VCWindow@ATL@@V?$CWinTraits@$0FGAAAAAA@$0A@@3@@ATL@@@ATL@@UAEJABU_GUID@@PAPAX@Z 10001c46 f i CheckScanner.obj
 0001:00000c61       ?GetClassID@?$IPersistStorageImpl@VCOPOSCheckScanner@@@ATL@@UAGJPAU_GUID@@@Z 10001c61 f i CheckScanner.obj
 0001:00000c61       ?GetClassID@?$IPersistStreamInitImpl@VCOPOSCheckScanner@@@ATL@@UAGJPAU_GUID@@@Z 10001c61 f i CheckScanner.obj
 0001:00000c61       ?GetUserClassID@?$IOleObjectImpl@VCOPOSCheckScanner@@@ATL@@UAGJPAU_GUID@@@Z 10001c61 f i CheckScanner.obj
 0001:00000c85       ?IsDirty@?$IPersistStreamInitImpl@VCOPOSCheckScanner@@@ATL@@UAGJXZ 10001c85 f i CheckScanner.obj
 0001:00000ca4       ?Load@?$IPersistStreamInitImpl@VCOPOSCheckScanner@@@ATL@@UAGJPAUIStream@@@Z 10001ca4 f i CheckScanner.obj
 0001:00000cc3       ?Save@?$IPersistStreamInitImpl@VCOPOSCheckScanner@@@ATL@@UAGJPAUIStream@@H@Z 10001cc3 f i CheckScanner.obj
 0001:00000ce5       ?GetSizeMax@?$IPersistStreamInitImpl@VCOPOSCheckScanner@@@ATL@@UAGJPAT_ULARGE_INTEGER@@@Z 10001ce5 f i CheckScanner.obj
 0001:00000ec4       ?InitNew@?$IPersistStreamInitImpl@VCOPOSCheckScanner@@@ATL@@UAGJXZ 10001ec4 f i CheckScanner.obj
 0001:00000ee1       ?QueryGetData@?$IDataObjectImpl@VCOPOSCheckScanner@@@ATL@@UAGJPAUtagFORMATETC@@@Z 10001ee1 f i CheckScanner.obj
 0001:00000ee1       ?GetControlInfo@?$IOleControlImpl@VCOPOSCheckScanner@@@ATL@@UAGJPAUtagCONTROLINFO@@@Z 10001ee1 f i CheckScanner.obj
 0001:00000ee1       ?SOOutputCompleteDummy@COPOSCheckScanner@@MAGJJ@Z 10001ee1 f i CheckScanner.obj
 0001:00000ee1       ?GetDropTarget@?$IOleInPlaceObjectWindowlessImpl@VCOPOSCheckScanner@@@ATL@@UAGJPAPAUIDropTarget@@@Z 10001ee1 f i CheckScanner.obj
 0001:00000ee1       ?ContextSensitiveHelp@?$IOleInPlaceObjectWindowlessImpl@VCOPOSCheckScanner@@@ATL@@UAGJH@Z 10001ee1 f i CheckScanner.obj
 0001:00000ee1       ?SetColorScheme@?$IOleObjectImpl@VCOPOSCheckScanner@@@ATL@@UAGJPAUtagLOGPALETTE@@@Z 10001ee1 f i CheckScanner.obj
 0001:00000ee1       ?ContextSensitiveHelp@?$IOleInPlaceActiveObjectImpl@VCOPOSCheckScanner@@@ATL@@UAGJH@Z 10001ee1 f i CheckScanner.obj
 0001:00000ee1       ?Unfreeze@?$IViewObjectExImpl@VCOPOSCheckScanner@@@ATL@@UAGJK@Z 10001ee1 f i CheckScanner.obj
 0001:00000ee1       ?OnMnemonic@?$IOleControlImpl@VCOPOSCheckScanner@@@ATL@@UAGJPAUtagMSG@@@Z 10001ee1 f i CheckScanner.obj
 0001:00000ee9       ?EnableModeless@?$IOleInPlaceActiveObjectImpl@VCOPOSCheckScanner@@@ATL@@UAGJH@Z 10001ee9 f i CheckScanner.obj
 0001:00000ee9       ?SaveCompleted@?$IPersistStorageImpl@VCOPOSCheckScanner@@@ATL@@UAGJPAUIStorage@@@Z 10001ee9 f i CheckScanner.obj
 0001:00000ee9       ?OnFrameWindowActivate@?$IOleInPlaceActiveObjectImpl@VCOPOSCheckScanner@@@ATL@@UAGJH@Z 10001ee9 f i CheckScanner.obj
 0001:00000ee9       ?OnAmbientPropertyChange@?$IOleControlImpl@VCOPOSCheckScanner@@@ATL@@UAGJJ@Z 10001ee9 f i CheckScanner.obj
 0001:00000eee       ?SetClientSite@?$IOleObjectImpl@VCOPOSCheckScanner@@@ATL@@UAGJPAUIOleClientSite@@@Z 10001eee f i CheckScanner.obj
 0001:00000f0b       ?GetClientSite@?$IOleObjectImpl@VCOPOSCheckScanner@@@ATL@@UAGJPAPAUIOleClientSite@@@Z 10001f0b f i CheckScanner.obj
 0001:00000f28       ?SetHostNames@?$IOleObjectImpl@VCOPOSCheckScanner@@@ATL@@UAGJPB_W0@Z 10001f28 f i CheckScanner.obj
 0001:00000f2d       ?Close@?$IOleObjectImpl@VCOPOSCheckScanner@@@ATL@@UAGJK@Z 10001f2d f i CheckScanner.obj
 0001:00000f4a       ?GetCanonicalFormatEtc@?$IDataObjectImpl@VCOPOSCheckScanner@@@ATL@@UAGJPAUtagFORMATETC@@0@Z 10001f4a f i CheckScanner.obj
 0001:00000f4a       ?QueryInterface@CRegObject@ATL@@UAGJABU_GUID@@PAPAX@Z 10001f4a f i CheckScanner.obj
 0001:00000f4a       ?GetRect@?$IViewObjectExImpl@VCOPOSCheckScanner@@@ATL@@UAGJKPAU_RECTL@@@Z 10001f4a f i CheckScanner.obj
 0001:00000f4a       ?EnumFormatEtc@?$IDataObjectImpl@VCOPOSCheckScanner@@@ATL@@UAGJKPAPAUIEnumFORMATETC@@@Z 10001f4a f i CheckScanner.obj
 0001:00000f4a       ?GetClipboardData@?$IOleObjectImpl@VCOPOSCheckScanner@@@ATL@@UAGJKPAPAUIDataObject@@@Z 10001f4a f i CheckScanner.obj
 0001:00000f4a       ?SetMoniker@?$IOleObjectImpl@VCOPOSCheckScanner@@@ATL@@UAGJKPAUIMoniker@@@Z 10001f4a f i CheckScanner.obj
 0001:00000f4a       ?GetDataHere@?$IDataObjectImpl@VCOPOSCheckScanner@@@ATL@@UAGJPAUtagFORMATETC@@PAUtagSTGMEDIUM@@@Z 10001f4a f i CheckScanner.obj
 0001:00000f52       ?InitFromData@?$IOleObjectImpl@VCOPOSCheckScanner@@@ATL@@UAGJPAUIDataObject@@HK@Z 10001f52 f i CheckScanner.obj
 0001:00000f52       ?SetData@?$IDataObjectImpl@VCOPOSCheckScanner@@@ATL@@UAGJPAUtagFORMATETC@@PAUtagSTGMEDIUM@@H@Z 10001f52 f i CheckScanner.obj
 0001:00000f52       ?GetMoniker@?$IOleObjectImpl@VCOPOSCheckScanner@@@ATL@@UAGJKKPAPAUIMoniker@@@Z 10001f52 f i CheckScanner.obj
 0001:00000f5a       ?DoVerb@?$IOleObjectImpl@VCOPOSCheckScanner@@@ATL@@UAGJJPAUtagMSG@@PAUIOleClientSite@@JPAUHWND__@@PBUtagRECT@@@Z 10001f5a f i CheckScanner.obj
 0001:0000104e       ?EnumVerbs@?$IOleObjectImpl@VCOPOSCheckScanner@@@ATL@@UAGJPAPAUIEnumOLEVERB@@@Z 1000204e f i CheckScanner.obj
 0001:00001070       ?Release@CRegObject@ATL@@UAGKXZ 10002070 f i CheckScanner.obj
 0001:00001070       ?IsUpToDate@?$IOleObjectImpl@VCOPOSCheckScanner@@@ATL@@UAGJXZ 10002070 f i CheckScanner.obj
 0001:00001070       ?HandsOffStorage@?$IPersistStorageImpl@VCOPOSCheckScanner@@@ATL@@UAGJXZ 10002070 f i CheckScanner.obj
 0001:00001070       ?Update@?$IOleObjectImpl@VCOPOSCheckScanner@@@ATL@@UAGJXZ 10002070 f i CheckScanner.obj
 0001:00001075       ?GetUserType@?$IOleObjectImpl@VCOPOSCheckScanner@@@ATL@@UAGJKPAPA_W@Z 10002075 f i CheckScanner.obj
 0001:0000108d       ?SetExtent@?$IOleObjectImpl@VCOPOSCheckScanner@@@ATL@@UAGJKPAUtagSIZE@@@Z 1000208d f i CheckScanner.obj
 0001:000010ad       ?GetExtent@?$IOleObjectImpl@VCOPOSCheckScanner@@@ATL@@UAGJKPAUtagSIZE@@@Z 100020ad f i CheckScanner.obj
 0001:000010eb       ?Advise@?$IOleObjectImpl@VCOPOSCheckScanner@@@ATL@@UAGJPAUIAdviseSink@@PAK@Z 100020eb f i CheckScanner.obj
 0001:0000110b       ?Unadvise@?$IOleObjectImpl@VCOPOSCheckScanner@@@ATL@@UAGJK@Z 1000210b f i CheckScanner.obj
 0001:0000113a       ?EnumAdvise@?$IOleObjectImpl@VCOPOSCheckScanner@@@ATL@@UAGJPAPAUIEnumSTATDATA@@@Z 1000213a f i CheckScanner.obj
 0001:0000117a       ?GetMiscStatus@?$IOleObjectImpl@VCOPOSCheckScanner@@@ATL@@UAGJKPAK@Z 1000217a f i CheckScanner.obj
 0001:00001192       ?GetWindow@?$IOleInPlaceActiveObjectImpl@VCOPOSCheckScanner@@@ATL@@UAGJPAPAUHWND__@@@Z 10002192 f i CheckScanner.obj
 0001:000011df       ?TranslateAcceleratorW@?$IOleInPlaceActiveObjectImpl@VCOPOSCheckScanner@@@ATL@@UAGJPAUtagMSG@@@Z 100021df f i CheckScanner.obj
 0001:0000128d       ?OnDocWindowActivate@?$IOleInPlaceActiveObjectImpl@VCOPOSCheckScanner@@@ATL@@UAGJH@Z 1000228d f i CheckScanner.obj
 0001:000012af       ?ResizeBorder@?$IOleInPlaceActiveObjectImpl@VCOPOSCheckScanner@@@ATL@@UAGJPBUtagRECT@@PAUIOleInPlaceUIWindow@@H@Z 100022af f i CheckScanner.obj
 0001:000012b4       ?Draw@?$IViewObjectExImpl@VCOPOSCheckScanner@@@ATL@@UAGJKJPAXPAUtagDVTARGETDEVICE@@PAUHDC__@@2PBU_RECTL@@3P6GHK@ZK@Z 100022b4 f i CheckScanner.obj
 0001:000012e6       ?GetColorSet@?$IViewObjectExImpl@VCOPOSCheckScanner@@@ATL@@UAGJKJPAXPAUtagDVTARGETDEVICE@@PAUHDC__@@PAPAUtagLOGPALETTE@@@Z 100022e6 f i CheckScanner.obj
 0001:000012ee       ?Freeze@?$IViewObjectExImpl@VCOPOSCheckScanner@@@ATL@@UAGJKJPAXPAK@Z 100022ee f i CheckScanner.obj
 0001:000012f6       ?SetAdvise@?$IViewObjectExImpl@VCOPOSCheckScanner@@@ATL@@UAGJKKPAUIAdviseSink@@@Z 100022f6 f i CheckScanner.obj
 0001:00001315       ?GetAdvise@?$IViewObjectExImpl@VCOPOSCheckScanner@@@ATL@@UAGJPAK0PAPAUIAdviseSink@@@Z 10002315 f i CheckScanner.obj
 0001:0000134a       ?GetExtent@?$IViewObjectExImpl@VCOPOSCheckScanner@@@ATL@@UAGJKJPAUtagDVTARGETDEVICE@@PAUtagSIZE@@@Z 1000234a f i CheckScanner.obj
 0001:0000137b       ?GetViewStatus@?$IViewObjectExImpl@VCOPOSCheckScanner@@@ATL@@UAGJPAK@Z 1000237b f i CheckScanner.obj
 0001:00001398       ?QueryHitPoint@?$IViewObjectExImpl@VCOPOSCheckScanner@@@ATL@@UAGJKPBUtagRECT@@UtagPOINT@@JPAK@Z 10002398 f i CheckScanner.obj
 0001:000013d9       ?QueryHitRect@?$IViewObjectExImpl@VCOPOSCheckScanner@@@ATL@@UAGJKPBUtagRECT@@0JPAK@Z 100023d9 f i CheckScanner.obj
 0001:00001434       ?GetNaturalExtent@?$IViewObjectExImpl@VCOPOSCheckScanner@@@ATL@@UAGJKJPAUtagDVTARGETDEVICE@@PAUHDC__@@PAUtagExtentInfo@@PAUtagSIZE@@@Z 10002434 f i CheckScanner.obj
 0001:0000147f       ?GetWindow@?$IOleInPlaceObjectWindowlessImpl@VCOPOSCheckScanner@@@ATL@@UAGJPAPAUHWND__@@@Z 1000247f f i CheckScanner.obj
 0001:000014cc       ?InPlaceDeactivate@?$IOleInPlaceObjectWindowlessImpl@VCOPOSCheckScanner@@@ATL@@UAGJXZ 100024cc f i CheckScanner.obj
 0001:000014e6       ?UIDeactivate@?$IOleInPlaceObjectWindowlessImpl@VCOPOSCheckScanner@@@ATL@@UAGJXZ 100024e6 f i CheckScanner.obj
 0001:00001500       ?SetObjectRects@?$IOleInPlaceObjectWindowlessImpl@VCOPOSCheckScanner@@@ATL@@UAGJPBUtagRECT@@0@Z 10002500 f i CheckScanner.obj
 0001:00001520       ?ReactivateAndUndo@?$IOleInPlaceObjectWindowlessImpl@VCOPOSCheckScanner@@@ATL@@UAGJXZ 10002520 f i CheckScanner.obj
 0001:00001528       ?OnWindowMessage@?$IOleInPlaceObjectWindowlessImpl@VCOPOSCheckScanner@@@ATL@@UAGJIIJPAJ@Z 10002528 f i CheckScanner.obj
 0001:00001598       ?EnumConnectionPoints@?$IConnectionPointContainerImpl@VCOPOSCheckScanner@@@ATL@@UAGJPAPAUIEnumConnectionPoints@@@Z 10002598 f i CheckScanner.obj
 0001:00001724       ?FindConnectionPoint@?$IConnectionPointContainerImpl@VCOPOSCheckScanner@@@ATL@@UAGJABU_GUID@@PAPAUIConnectionPoint@@@Z 10002724 f i CheckScanner.obj
 0001:000017c7       ?IsDirty@?$IPersistStorageImpl@VCOPOSCheckScanner@@@ATL@@UAGJXZ 100027c7 f i CheckScanner.obj
 0001:000017f7       ?InitNew@?$IPersistStorageImpl@VCOPOSCheckScanner@@@ATL@@UAGJPAUIStorage@@@Z 100027f7 f i CheckScanner.obj
 0001:00001827       ?Load@?$IPersistStorageImpl@VCOPOSCheckScanner@@@ATL@@UAGJPAUIStorage@@@Z 10002827 f i CheckScanner.obj
 0001:00001893       ?Save@?$IPersistStorageImpl@VCOPOSCheckScanner@@@ATL@@UAGJPAUIStorage@@H@Z 10002893 f i CheckScanner.obj
 0001:00001906       ?GetPages@?$ISpecifyPropertyPagesImpl@VCOPOSCheckScanner@@@ATL@@UAGJPAUtagCAUUID@@@Z 10002906 f i CheckScanner.obj
 0001:0000191d       ?QuickActivate@?$IQuickActivateImpl@VCOPOSCheckScanner@@@ATL@@UAGJPAUtagQACONTAINER@@PAUtagQACONTROL@@@Z 1000291d f i CheckScanner.obj
 0001:00001940       ?SetContentExtent@?$IQuickActivateImpl@VCOPOSCheckScanner@@@ATL@@UAGJPAUtagSIZE@@@Z 10002940 f i CheckScanner.obj
 0001:0000196c       ?GetContentExtent@?$IQuickActivateImpl@VCOPOSCheckScanner@@@ATL@@UAGJPAUtagSIZE@@@Z 1000296c f i CheckScanner.obj
 0001:000019a8       ?GetData@?$IDataObjectImpl@VCOPOSCheckScanner@@@ATL@@UAGJPAUtagFORMATETC@@PAUtagSTGMEDIUM@@@Z 100029a8 f i CheckScanner.obj
 0001:000019cb       ?DAdvise@?$IDataObjectImpl@VCOPOSCheckScanner@@@ATL@@UAGJPAUtagFORMATETC@@KPAUIAdviseSink@@PAK@Z 100029cb f i CheckScanner.obj
 0001:00001a0c       ?DUnadvise@?$IDataObjectImpl@VCOPOSCheckScanner@@@ATL@@UAGJK@Z 10002a0c f i CheckScanner.obj
 0001:00001a3a       ?EnumDAdvise@?$IDataObjectImpl@VCOPOSCheckScanner@@@ATL@@UAGJPAPAUIEnumSTATDATA@@@Z 10002a3a f i CheckScanner.obj
 0001:00001a79       ?GetClassInfoW@?$IProvideClassInfo2Impl@$1?CLSID_OPOSCheckScanner@@3U_GUID@@B$1?DIID__IOPOSCheckScannerEvents@@3U2@B$1?LIBID_OposCheckScanner_CCO@@3U2@B$00$0A@VCComTypeInfoHolder@ATL@@@ATL@@UAGJPAPAUITypeInfo@@@Z 10002a79 f i CheckScanner.obj
 0001:00001a8f       ?GetGUID@?$IProvideClassInfo2Impl@$1?CLSID_OPOSCheckScanner@@3U_GUID@@B$1?DIID__IOPOSCheckScannerEvents@@3U2@B$1?LIBID_OposCheckScanner_CCO@@3U2@B$00$0A@VCComTypeInfoHolder@ATL@@@ATL@@UAGJKPAU_GUID@@@Z 10002a8f f i CheckScanner.obj
 0001:00001acd       ?FAccessAllowed@?$IObjectSafetyImpl@VCOPOSCheckScanner@@$02@ATL@@MAEHXZ 10002acd f i CheckScanner.obj
 0001:00001acd       __get_startup_argv_mode    10002acd f i LIBCMT:argv_mode.obj
 0001:00001ad1       ?GetInterfaceSafetyOptions@?$IObjectSafetyImpl@VCOPOSCheckScanner@@$02@ATL@@UAGJABU_GUID@@PAK1@Z 10002ad1 f i CheckScanner.obj
 0001:00001b45       ?SetInterfaceSafetyOptions@?$IObjectSafetyImpl@VCOPOSCheckScanner@@$02@ATL@@UAGJABU_GUID@@KK@Z 10002b45 f i CheckScanner.obj
 0001:00001bbf       ?_LocCPQueryInterface@?$IConnectionPointImpl@VCOPOSCheckScanner@@$1?DIID__IOPOSCheckScannerEvents@@3U_GUID@@BVCComDynamicUnkArray@ATL@@@ATL@@UAGJABU_GUID@@PAPAX@Z 10002bbf f i CheckScanner.obj
 0001:00001bbf       ?_LocCPQueryInterface@?$IConnectionPointImpl@VCOPOSCheckScanner@@$1?IID_IPropertyNotifySink@@3U_GUID@@BVCComDynamicUnkArray@ATL@@@ATL@@UAGJABU_GUID@@PAPAX@Z 10002bbf f i CheckScanner.obj
 0001:00001c0c       ?GetConnectionInterface@?$IConnectionPointImpl@VCOPOSCheckScanner@@$1?IID_IPropertyNotifySink@@3U_GUID@@BVCComDynamicUnkArray@ATL@@@ATL@@UAGJPAU_GUID@@@Z 10002c0c f i CheckScanner.obj
 0001:00001c30       ?GetConnectionPointContainer@?$IConnectionPointImpl@VCOPOSCheckScanner@@$1?IID_IPropertyNotifySink@@3U_GUID@@BVCComDynamicUnkArray@ATL@@@ATL@@UAGJPAPAUIConnectionPointContainer@@@Z 10002c30 f i CheckScanner.obj
 0001:00001c53       ?Advise@?$IConnectionPointImpl@VCOPOSCheckScanner@@$1?DIID__IOPOSCheckScannerEvents@@3U_GUID@@BVCComDynamicUnkArray@ATL@@@ATL@@UAGJPAUIUnknown@@PAK@Z 10002c53 f i CheckScanner.obj
 0001:00001c53       ?Advise@?$IConnectionPointImpl@VCOPOSCheckScanner@@$1?IID_IPropertyNotifySink@@3U_GUID@@BVCComDynamicUnkArray@ATL@@@ATL@@UAGJPAUIUnknown@@PAK@Z 10002c53 f i CheckScanner.obj
 0001:00001cf3       ?Unadvise@?$IConnectionPointImpl@VCOPOSCheckScanner@@$1?IID_IPropertyNotifySink@@3U_GUID@@BVCComDynamicUnkArray@ATL@@@ATL@@UAGJK@Z 10002cf3 f i CheckScanner.obj
 0001:00001cf3       ?Unadvise@?$IConnectionPointImpl@VCOPOSCheckScanner@@$1?DIID__IOPOSCheckScannerEvents@@3U_GUID@@BVCComDynamicUnkArray@ATL@@@ATL@@UAGJK@Z 10002cf3 f i CheckScanner.obj
 0001:00001d33       ?EnumConnections@?$IConnectionPointImpl@VCOPOSCheckScanner@@$1?IID_IPropertyNotifySink@@3U_GUID@@BVCComDynamicUnkArray@ATL@@@ATL@@UAGJPAPAUIEnumConnections@@@Z 10002d33 f i CheckScanner.obj
 0001:00001d33       ?EnumConnections@?$IConnectionPointImpl@VCOPOSCheckScanner@@$1?DIID__IOPOSCheckScannerEvents@@3U_GUID@@BVCComDynamicUnkArray@ATL@@@ATL@@UAGJPAPAUIEnumConnections@@@Z 10002d33 f i CheckScanner.obj
 0001:00001e2e       ?GetObjectDescription@?$CComCoClass@VCOPOSCheckScanner@@$1?CLSID_OPOSCheckScanner@@3U_GUID@@B@ATL@@SGPB_WXZ 10002e2e f i CheckScanner.obj
 0001:00001e2e       ?GetCategoryMap@CComObjectRootBase@ATL@@SAPBU_ATL_CATMAP_ENTRY@2@XZ 10002e2e f i CheckScanner.obj
 0001:00001e31       ?GetConnectionInterface@?$IConnectionPointImpl@VCOPOSCheckScanner@@$1?DIID__IOPOSCheckScannerEvents@@3U_GUID@@BVCComDynamicUnkArray@ATL@@@ATL@@UAGJPAU_GUID@@@Z 10002e31 f i CheckScanner.obj
 0001:00001e55       ?GetConnectionPointContainer@?$IConnectionPointImpl@VCOPOSCheckScanner@@$1?DIID__IOPOSCheckScannerEvents@@3U_GUID@@BVCComDynamicUnkArray@ATL@@@ATL@@UAGJPAPAUIConnectionPointContainer@@@Z 10002e55 f i CheckScanner.obj
 0001:00001e78       ?Lock@CAtlModule@ATL@@UAEJXZ 10002e78 f i CheckScanner.obj
 0001:00001e82       ?Unlock@CAtlModule@ATL@@UAEJXZ 10002e82 f i CheckScanner.obj
 0001:00001e8c       ?GetLockCount@CAtlModule@ATL@@UAEJXZ 10002e8c f i CheckScanner.obj
 0001:00001e90       ?GetGITPtr@CAtlModule@ATL@@UAEJPAPAUIGlobalInterfaceTable@@@Z 10002e90 f i CheckScanner.obj
 0001:00001edc       ?UpdateRegistry@COPOSCheckScanner@@SGJH@Z 10002edc f i CheckScanner.obj
 0001:00001ef4       ?ProcessWindowMessage@COPOSCheckScanner@@UAEHPAUHWND__@@IIJAAJK@Z 10002ef4 f i CheckScanner.obj
 0001:00001f3d       ?SOData@COPOSCheckScanner@@MAGJJ@Z 10002f3d f i CheckScanner.obj
 0001:00001f76       ?SODirectIO@COPOSCheckScanner@@MAGJJPAJPAPA_W@Z 10002f76 f i CheckScanner.obj
 0001:00001fbf       ?SOError@COPOSCheckScanner@@MAGJJJJPAJ@Z 10002fbf f i CheckScanner.obj
 0001:00002014       ?SOStatusUpdate@COPOSCheckScanner@@MAGJJ@Z 10003014 f i CheckScanner.obj
 0001:0000204d       ?AddCommonRGSReplacements@?$CAtlModuleT@VCComModule@ATL@@@ATL@@UAEJPAUIRegistrarBase@@@Z 1000304d f i CheckScanner.obj
 0001:00002067       ?UpdateRegistryFromResourceD@CComModule@ATL@@UAGJPB_WHPAU_ATL_REGMAP_ENTRY@2@@Z 10003067 f i CheckScanner.obj
 0001:00002067       ?UpdateRegistryFromResourceD@CComModule@ATL@@UAGJIHPAU_ATL_REGMAP_ENTRY@2@@Z 10003067 f i CheckScanner.obj
 0001:0000206f       ?UpdateRegistryFromResource@CComModule@ATL@@UAGJPB_WHPAU_ATL_REGMAP_ENTRY@2@@Z 1000306f f i CheckScanner.obj
 0001:00002078       ?UpdateRegistryFromResource@CComModule@ATL@@UAGJIHPAU_ATL_REGMAP_ENTRY@2@@Z 10003078 f i CheckScanner.obj
 0001:00002081       ??_ECComModule@ATL@@UAEPAXI@Z 10003081 f i CheckScanner.obj
 0001:00002081       ??_GCComModule@ATL@@UAEPAXI@Z 10003081 f i CheckScanner.obj
 0001:000020a9       ?CreateInstance@?$CComCreator@V?$CComObjectCached@VCComClassFactory@ATL@@@ATL@@@ATL@@SGJPAXABU_GUID@@PAPAX@Z 100030a9 f i CheckScanner.obj
 0001:00002149       ?CreateInstance@?$CComCreator2@V?$CComCreator@V?$CComObject@VCOPOSCheckScanner@@@ATL@@@ATL@@V?$CComCreator@V?$CComAggObject@VCOPOSCheckScanner@@@ATL@@@2@@ATL@@SGJPAXABU_GUID@@PAPAX@Z 10003149 f i CheckScanner.obj
 0001:00002169       ?AddRef@?$CComObjectCached@VCComClassFactory@ATL@@@ATL@@UAGKXZ 10003169 f i CheckScanner.obj
 0001:00002190       ?Release@?$CComObjectCached@VCComClassFactory@ATL@@@ATL@@UAGKXZ 10003190 f i CheckScanner.obj
 0001:000021c6       ?QueryInterface@?$CComObjectCached@VCComClassFactory@ATL@@@ATL@@UAGJABU_GUID@@PAPAX@Z 100031c6 f i CheckScanner.obj
 0001:000021e0       ??_G?$CComObjectCached@VCComClassFactory@ATL@@@ATL@@UAEPAXI@Z 100031e0 f i CheckScanner.obj
 0001:000021e0       ??_E?$CComObjectCached@VCComClassFactory@ATL@@@ATL@@UAEPAXI@Z 100031e0 f i CheckScanner.obj
 0001:00002202       ?Next@?$CComEnumImpl@UIEnumConnectionPoints@@$1?_GUID_b196b285_bab4_101a_b69c_00aa00341d07@@3U__s_GUID@@BPAUIConnectionPoint@@V?$_CopyInterface@UIConnectionPoint@@@ATL@@@ATL@@UAGJKPAPAUIConnectionPoint@@PAK@Z 10003202 f i CheckScanner.obj
 0001:000022d9       ?Skip@?$CComEnumImpl@UIEnumConnectionPoints@@$1?_GUID_b196b285_bab4_101a_b69c_00aa00341d07@@3U__s_GUID@@BPAUIConnectionPoint@@V?$_CopyInterface@UIConnectionPoint@@@ATL@@@ATL@@UAGJK@Z 100032d9 f i CheckScanner.obj
 0001:00002306       ?Reset@?$CComEnumImpl@UIEnumConnections@@$1?_GUID_b196b287_bab4_101a_b69c_00aa00341d07@@3U__s_GUID@@BUtagCONNECTDATA@@V?$_Copy@UtagCONNECTDATA@@@ATL@@@ATL@@UAGJXZ 10003306 f i CheckScanner.obj
 0001:00002306       ?Reset@?$CComEnumImpl@UIEnumConnectionPoints@@$1?_GUID_b196b285_bab4_101a_b69c_00aa00341d07@@3U__s_GUID@@BPAUIConnectionPoint@@V?$_CopyInterface@UIConnectionPoint@@@ATL@@@ATL@@UAGJXZ 10003306 f i CheckScanner.obj
 0001:00002318       ?Clone@?$CComEnumImpl@UIEnumConnectionPoints@@$1?_GUID_b196b285_bab4_101a_b69c_00aa00341d07@@3U__s_GUID@@BPAUIConnectionPoint@@V?$_CopyInterface@UIConnectionPoint@@@ATL@@@ATL@@UAGJPAPAUIEnumConnectionPoints@@@Z 10003318 f i CheckScanner.obj
 0001:000023f9       ?AddRef@?$CComObject@V?$CComEnum@UIEnumConnections@@$1?_GUID_b196b287_bab4_101a_b69c_00aa00341d07@@3U__s_GUID@@BUtagCONNECTDATA@@V?$_Copy@UtagCONNECTDATA@@@ATL@@VCComSingleThreadModel@6@@ATL@@@ATL@@UAGKXZ 100033f9 f i CheckScanner.obj
 0001:000023f9       ?AddRef@?$CComObject@V?$CComEnum@UIEnumConnectionPoints@@$1?_GUID_b196b285_bab4_101a_b69c_00aa00341d07@@3U__s_GUID@@BPAUIConnectionPoint@@V?$_CopyInterface@UIConnectionPoint@@@ATL@@VCComSingleThreadModel@6@@ATL@@@ATL@@UAGKXZ 100033f9 f i CheckScanner.obj
 0001:0000240a       ?Release@?$CComObject@V?$CComEnum@UIEnumConnectionPoints@@$1?_GUID_b196b285_bab4_101a_b69c_00aa00341d07@@3U__s_GUID@@BPAUIConnectionPoint@@V?$_CopyInterface@UIConnectionPoint@@@ATL@@VCComSingleThreadModel@6@@ATL@@@ATL@@UAGKXZ 1000340a f i CheckScanner.obj
 0001:0000240a       ?Release@?$CComObject@V?$CComEnum@UIEnumConnections@@$1?_GUID_b196b287_bab4_101a_b69c_00aa00341d07@@3U__s_GUID@@BUtagCONNECTDATA@@V?$_Copy@UtagCONNECTDATA@@@ATL@@VCComSingleThreadModel@6@@ATL@@@ATL@@UAGKXZ 1000340a f i CheckScanner.obj
 0001:00002446       ?QueryInterface@?$CComObject@V?$CComEnum@UIEnumConnectionPoints@@$1?_GUID_b196b285_bab4_101a_b69c_00aa00341d07@@3U__s_GUID@@BPAUIConnectionPoint@@V?$_CopyInterface@UIConnectionPoint@@@ATL@@VCComSingleThreadModel@6@@ATL@@@ATL@@UAGJABU_GUID@@PAPAX@Z 10003446 f i CheckScanner.obj
 0001:00002460       ??_E?$CComObject@V?$CComEnum@UIEnumConnectionPoints@@$1?_GUID_b196b285_bab4_101a_b69c_00aa00341d07@@3U__s_GUID@@BPAUIConnectionPoint@@V?$_CopyInterface@UIConnectionPoint@@@ATL@@VCComSingleThreadModel@6@@ATL@@@ATL@@UAEPAXI@Z 10003460 f i CheckScanner.obj
 0001:00002460       ??_G?$CComObject@V?$CComEnum@UIEnumConnectionPoints@@$1?_GUID_b196b285_bab4_101a_b69c_00aa00341d07@@3U__s_GUID@@BPAUIConnectionPoint@@V?$_CopyInterface@UIConnectionPoint@@@ATL@@VCComSingleThreadModel@6@@ATL@@@ATL@@UAEPAXI@Z 10003460 f i CheckScanner.obj
 0001:00002482       ?AddRef@CRegObject@ATL@@UAGKXZ 10003482 f i CheckScanner.obj
 0001:00002488       ?AddReplacement@CRegObject@ATL@@UAGJPB_W0@Z 10003488 f i CheckScanner.obj
 0001:000024c1       ?ClearReplacements@CRegObject@ATL@@UAGJXZ 100034c1 f i CheckScanner.obj
 0001:000024d3       ??_ECRegObject@ATL@@UAEPAXI@Z 100034d3 f i CheckScanner.obj
 0001:000024d3       ??_GCRegObject@ATL@@UAEPAXI@Z 100034d3 f i CheckScanner.obj
 0001:000024f5       ?AddRef@?$CComAggObject@VCOPOSCheckScanner@@@ATL@@UAGKXZ 100034f5 f i CheckScanner.obj
 0001:00002506       ?Release@?$CComAggObject@VCOPOSCheckScanner@@@ATL@@UAGKXZ 10003506 f i CheckScanner.obj
 0001:00002542       ?QueryInterface@?$CComAggObject@VCOPOSCheckScanner@@@ATL@@UAGJABU_GUID@@PAPAX@Z 10003542 f i CheckScanner.obj
 0001:00002591       ?AddRef@?$CComContainedObject@VCOPOSCheckScanner@@@ATL@@UAGKXZ 10003591 f i CheckScanner.obj
 0001:000025a7       ?Release@?$CComContainedObject@VCOPOSCheckScanner@@@ATL@@UAGKXZ 100035a7 f i CheckScanner.obj
 0001:000025bd       ?QueryInterface@?$CComContainedObject@VCOPOSCheckScanner@@@ATL@@UAGJABU_GUID@@PAPAX@Z 100035bd f i CheckScanner.obj
 0001:000025d8       ??_G?$CComAggObject@VCOPOSCheckScanner@@@ATL@@UAEPAXI@Z 100035d8 f i CheckScanner.obj
 0001:000025d8       ??_E?$CComAggObject@VCOPOSCheckScanner@@@ATL@@UAEPAXI@Z 100035d8 f i CheckScanner.obj
 0001:000025fd       ?AddRef@?$CComObject@VCOPOSCheckScanner@@@ATL@@UAGKXZ 100035fd f i CheckScanner.obj
 0001:00002614       ?Release@?$CComObject@VCOPOSCheckScanner@@@ATL@@UAGKXZ 10003614 f i CheckScanner.obj
 0001:00002656       ?QueryInterface@?$CComObject@VCOPOSCheckScanner@@@ATL@@UAGJABU_GUID@@PAPAX@Z 10003656 f i CheckScanner.obj
 0001:00002670       ?OnDrawAdvanced@CComControlBase@ATL@@UAEJAAUATL_DRAWINFO@@@Z 10003670 f i CheckScanner.obj
 0001:00002763       ?Next@?$CComEnumImpl@UIEnumConnections@@$1?_GUID_b196b287_bab4_101a_b69c_00aa00341d07@@3U__s_GUID@@BUtagCONNECTDATA@@V?$_Copy@UtagCONNECTDATA@@@ATL@@@ATL@@UAGJKPAUtagCONNECTDATA@@PAK@Z 10003763 f i CheckScanner.obj
 0001:0000283a       ?Skip@?$CComEnumImpl@UIEnumConnections@@$1?_GUID_b196b287_bab4_101a_b69c_00aa00341d07@@3U__s_GUID@@BUtagCONNECTDATA@@V?$_Copy@UtagCONNECTDATA@@@ATL@@@ATL@@UAGJK@Z 1000383a f i CheckScanner.obj
 0001:00002867       ?Clone@?$CComEnumImpl@UIEnumConnections@@$1?_GUID_b196b287_bab4_101a_b69c_00aa00341d07@@3U__s_GUID@@BUtagCONNECTDATA@@V?$_Copy@UtagCONNECTDATA@@@ATL@@@ATL@@UAGJPAPAUIEnumConnections@@@Z 10003867 f i CheckScanner.obj
 0001:00002948       ?QueryInterface@?$CComObject@V?$CComEnum@UIEnumConnections@@$1?_GUID_b196b287_bab4_101a_b69c_00aa00341d07@@3U__s_GUID@@BUtagCONNECTDATA@@V?$_Copy@UtagCONNECTDATA@@@ATL@@VCComSingleThreadModel@6@@ATL@@@ATL@@UAGJABU_GUID@@PAPAX@Z 10003948 f i CheckScanner.obj
 0001:00002962       ??_G?$CComObject@V?$CComEnum@UIEnumConnections@@$1?_GUID_b196b287_bab4_101a_b69c_00aa00341d07@@3U__s_GUID@@BUtagCONNECTDATA@@V?$_Copy@UtagCONNECTDATA@@@ATL@@VCComSingleThreadModel@6@@ATL@@@ATL@@UAEPAXI@Z 10003962 f i CheckScanner.obj
 0001:00002962       ??_E?$CComObject@V?$CComEnum@UIEnumConnections@@$1?_GUID_b196b287_bab4_101a_b69c_00aa00341d07@@3U__s_GUID@@BUtagCONNECTDATA@@V?$_Copy@UtagCONNECTDATA@@@ATL@@VCComSingleThreadModel@6@@ATL@@@ATL@@UAEPAXI@Z 10003962 f i CheckScanner.obj
 0001:00002984       ??$?4UITypeInfo2@@@?$CComPtr@UITypeInfo@@@ATL@@QAEPAUITypeInfo@@ABV?$CComPtr@UITypeInfo2@@@1@@Z 10003984 f i CheckScanner.obj
 0001:000029b1       ??$AtlAdd@K@ATL@@YAJPAKKK@Z 100039b1 f i CheckScanner.obj
 0001:000029d4       ??$AtlAdd@_K@ATL@@YAJPA_K_K1@Z 100039d4 f i CheckScanner.obj
 0001:00002a0c       ??$AtlAddThrow@K@ATL@@YAKKK@Z 10003a0c f i CheckScanner.obj
 0001:00002a32       ??$AtlModuleRegisterWndClassInfoT@VAtlModuleRegisterWndClassInfoParamW@ATL@@@ATL@@YAGPAU_ATL_BASE_MODULE70@0@PAU_ATL_WIN_MODULE70@0@PAU_ATL_WNDCLASSINFOW@0@PAP6GJPAUHWND__@@IIJ@ZVAtlModuleRegisterWndClassInfoParamW@0@@Z 10003a32 f i CheckScanner.obj
 0001:00002b80       ??$AtlMultiply@H@ATL@@YAJPAHHH@Z 10003b80 f i CheckScanner.obj
 0001:00002bb8       ??$AtlMultiply@I@ATL@@YAJPAIII@Z 10003bb8 f i CheckScanner.obj
 0001:00002bb8       ??$AtlMultiply@K@ATL@@YAJPAKKK@Z 10003bb8 f i CheckScanner.obj
 0001:00002bda       ??$AtlMultiplyThrow@I@ATL@@YAIII@Z 10003bda f i CheckScanner.obj
 0001:00002c00       ??0?$CComAggObject@VCOPOSCheckScanner@@@ATL@@QAE@PAX@Z 10003c00 f i CheckScanner.obj
 0001:00002c2d       ??0?$CComContainedObject@VCOPOSCheckScanner@@@ATL@@QAE@PAX@Z 10003c2d f i CheckScanner.obj
 0001:00002ce6       ??0?$CComObject@V?$CComEnum@UIEnumConnectionPoints@@$1?_GUID_b196b285_bab4_101a_b69c_00aa00341d07@@3U__s_GUID@@BPAUIConnectionPoint@@V?$_CopyInterface@UIConnectionPoint@@@ATL@@VCComSingleThreadModel@6@@ATL@@@ATL@@QAE@PAX@Z 10003ce6 f i CheckScanner.obj
 0001:00002d14       ??0?$CComObject@V?$CComEnum@UIEnumConnections@@$1?_GUID_b196b287_bab4_101a_b69c_00aa00341d07@@3U__s_GUID@@BUtagCONNECTDATA@@V?$_Copy@UtagCONNECTDATA@@@ATL@@VCComSingleThreadModel@6@@ATL@@@ATL@@QAE@PAX@Z 10003d14 f i CheckScanner.obj
 0001:00002d42       ??0?$CComObject@VCOPOSCheckScanner@@@ATL@@QAE@PAX@Z 10003d42 f i CheckScanner.obj
 0001:00002df9       ??0?$CComQIPtr@UIOleControlSite@@$1?_GUID_b196b289_bab4_101a_b69c_00aa00341d07@@3U__s_GUID@@B@ATL@@QAE@PAUIUnknown@@@Z 10003df9 f i CheckScanner.obj
 0001:00002e22       ??0CAtlModule@ATL@@QAE@XZ  10003e22 f i CheckScanner.obj
 0001:00002e63       ??0CParseBuffer@CRegParser@ATL@@QAE@H@Z 10003e63 f i CheckScanner.obj
 0001:00002e99       ??0_ATL_MSG@ATL@@QAE@PAUHWND__@@IIJH@Z 10003e99 f i CheckScanner.obj
 0001:00002ed1       ??1?$CComAggObject@VCOPOSCheckScanner@@@ATL@@UAE@XZ 10003ed1 f i CheckScanner.obj
 0001:00002ef5       ??1?$CComEnumImpl@UIEnumConnectionPoints@@$1?_GUID_b196b285_bab4_101a_b69c_00aa00341d07@@3U__s_GUID@@BPAUIConnectionPoint@@V?$_CopyInterface@UIConnectionPoint@@@ATL@@@ATL@@UAE@XZ 10003ef5 f i CheckScanner.obj
 0001:00002f35       ??1?$CComEnumImpl@UIEnumConnections@@$1?_GUID_b196b287_bab4_101a_b69c_00aa00341d07@@3U__s_GUID@@BUtagCONNECTDATA@@V?$_Copy@UtagCONNECTDATA@@@ATL@@@ATL@@UAE@XZ 10003f35 f i CheckScanner.obj
 0001:00002f75       ??1?$CComObject@V?$CComEnum@UIEnumConnectionPoints@@$1?_GUID_b196b285_bab4_101a_b69c_00aa00341d07@@3U__s_GUID@@BPAUIConnectionPoint@@V?$_CopyInterface@UIConnectionPoint@@@ATL@@VCComSingleThreadModel@6@@ATL@@@ATL@@UAE@XZ 10003f75 f i CheckScanner.obj
 0001:00002f98       ??1?$CComObject@V?$CComEnum@UIEnumConnections@@$1?_GUID_b196b287_bab4_101a_b69c_00aa00341d07@@3U__s_GUID@@BUtagCONNECTDATA@@V?$_Copy@UtagCONNECTDATA@@@ATL@@VCComSingleThreadModel@6@@ATL@@@ATL@@UAE@XZ 10003f98 f i CheckScanner.obj
 0001:00002fbb       ??1?$CComObject@VCOPOSCheckScanner@@@ATL@@UAE@XZ 10003fbb f i CheckScanner.obj
 0001:00003079       ??1?$CComObjectCached@VCComClassFactory@ATL@@@ATL@@UAE@XZ 10004079 f i CheckScanner.obj
 0001:0000308f       ??1?$CComObjectRootEx@VCComMultiThreadModel@ATL@@@ATL@@QAE@XZ 1000408f f i CheckScanner.obj
 0001:000030a4       ??1CRegObject@ATL@@UAE@XZ  100040a4 f i CheckScanner.obj
 0001:000030c4       ??4?$CComPtr@UIOleClientSite@@@ATL@@QAEPAUIOleClientSite@@PAU2@@Z 100040c4 f i CheckScanner.obj
 0001:000030c4       ??4?$CComPtr@UIUnknown@@@ATL@@QAEPAUIUnknown@@PAU2@@Z 100040c4 f i CheckScanner.obj
 0001:000030c4       ??4?$CComPtr@UIAdviseSink@@@ATL@@QAEPAUIAdviseSink@@PAU2@@Z 100040c4 f i CheckScanner.obj
 0001:000030f8       ??_G?$CComContainedObject@VCOPOSCheckScanner@@@ATL@@UAEPAXI@Z 100040f8 f i CheckScanner.obj
 0001:000030f8       ??_E?$CComContainedObject@VCOPOSCheckScanner@@@ATL@@UAEPAXI@Z 100040f8 f i CheckScanner.obj
 0001:0000311d       ??_E?$CComObject@VCOPOSCheckScanner@@@ATL@@UAEPAXI@Z 1000411d f i CheckScanner.obj
 0001:0000311d       ??_G?$CComObject@VCOPOSCheckScanner@@@ATL@@UAEPAXI@Z 1000411d f i CheckScanner.obj
 0001:00003142       ?Add@?$CSimpleArray@GV?$CSimpleArrayEqualHelper@G@ATL@@@ATL@@QAEHABG@Z 10004142 f i CheckScanner.obj
 0001:000031c6       ?Add@?$CSimpleMap@PA_WPA_WVCExpansionVectorEqualHelper@ATL@@@ATL@@QAEHABQA_W0@Z 100041c6 f i CheckScanner.obj
 0001:0000321b       ?Add@CComDynamicUnkArray@ATL@@QAEKPAUIUnknown@@@Z 1000421b f i CheckScanner.obj
 0001:000032d1       ?Add@CExpansionVector@ATL@@QAEHPB_W0@Z 100042d1 f i CheckScanner.obj
 0001:000033da       ?AddString@CParseBuffer@CRegParser@ATL@@QAEHPB_W@Z 100043da f i CheckScanner.obj
 0001:0000340f       ?AddTermFunc@CAtlModule@ATL@@QAEJP6GXK@ZK@Z 1000440f f i CheckScanner.obj
 0001:00003472       ?AddValue@CRegParser@ATL@@IAEJAAVCRegKey@2@PB_WPA_W@Z 10004472 f i CheckScanner.obj
 0001:0000378c       ?Allocate@?$CAtlSafeAllocBufferManager@VCCRTAllocator@ATL@@@_ATL_SAFE_ALLOCA_IMPL@ATL@@QAEPAXK@Z 1000478c f i CheckScanner.obj
 0001:000037b9       ?Allocate@?$CTempBuffer@E$0BAA@VCCRTAllocator@ATL@@@ATL@@QAEPAEI@Z 100047b9 f i CheckScanner.obj
 0001:000037e8       ?Allocate@?$CTempBuffer@_W$0BAA@VCCRTAllocator@ATL@@@ATL@@QAEPA_WI@Z 100047e8 f i CheckScanner.obj
 0001:00003817       ?Allocate@?$CTempBuffer@_W$0EAA@VCCRTAllocator@ATL@@@ATL@@QAEPA_WI@Z 10004817 f i CheckScanner.obj
 0001:00003846       ?AllocateHeap@?$CTempBuffer@E$0BAA@VCCRTAllocator@ATL@@@ATL@@AAEXI@Z 10004846 f i CheckScanner.obj
 0001:00003846       ?AllocateHeap@?$CTempBuffer@_W$0EAA@VCCRTAllocator@ATL@@@ATL@@AAEXI@Z 10004846 f i CheckScanner.obj
 0001:00003846       ?AllocateHeap@?$CTempBuffer@_W$0BAA@VCCRTAllocator@ATL@@@ATL@@AAEXI@Z 10004846 f i CheckScanner.obj
 0001:0000386b       ?Append@CParseBuffer@CRegParser@ATL@@QAEHPB_WH@Z 1000486b f i CheckScanner.obj
 0001:000038f9       ?AtlCoTaskMemCAlloc@ATL@@YAPAXKK@Z 100048f9 f i CheckScanner.obj
 0001:00003926       ?AtlCoTaskMemRecalloc@ATL@@YAPAXPAXKK@Z 10004926 f i CheckScanner.obj
 0001:00003956       ?AtlComModuleGetClassObject@ATL@@YGJPAU_ATL_COM_MODULE70@1@ABU_GUID@@1PAPAX@Z 10004956 f i CheckScanner.obj
 0001:00003a49       ?AtlComModuleRegisterServer@ATL@@YGJPAU_ATL_COM_MODULE70@1@HPBU_GUID@@@Z 10004a49 f i CheckScanner.obj
 0001:00003ad1       ?AtlComModuleUnregisterServer@ATL@@YGJPAU_ATL_COM_MODULE70@1@HPBU_GUID@@@Z 10004ad1 f i CheckScanner.obj
 0001:00003b59       ?AtlComQIPtrAssign2@ATL@@YAXPAPAUIUnknown@@PAU2@ABU_GUID@@@Z 10004b59 f i CheckScanner.obj
 0001:00003b88       ?AtlCreateTargetDC@ATL@@YGPAUHDC__@@PAU2@PAUtagDVTARGETDEVICE@@@Z 10004b88 f i CheckScanner.obj
 0001:00003bf1       ?AtlCrtErrorCheck@ATL@@YAHH@Z 10004bf1 f i CheckScanner.obj
 0001:00003c2c       ?AtlHiMetricToPixel@ATL@@YGXPBUtagSIZE@@PAU2@@Z 10004c2c f i CheckScanner.obj
 0001:00003ca1       ?AtlHresultFromLastError@ATL@@YAJXZ 10004ca1 f i CheckScanner.obj
 0001:00003cb8       ?AtlHresultFromWin32@ATL@@YAJK@Z 10004cb8 f i CheckScanner.obj
 0001:00003ccd       ?AtlInternalOleLoadFromStream@ATL@@YAJPAUIStream@@ABU_GUID@@PAPAXTClassesAllowedInStream@1@K@Z 10004ccd f i CheckScanner.obj
 0001:00003deb       ?AtlInternalQueryInterface@ATL@@YGJPAXPBU_ATL_INTMAP_ENTRY@1@ABU_GUID@@PAPAX@Z 10004deb f i CheckScanner.obj
 0001:00003e8e       ?AtlLoadTypeLib@ATL@@YGJPAUHINSTANCE__@@PB_WPAPA_WPAPAUITypeLib@@@Z 10004e8e f i CheckScanner.obj
 0001:0000406c       ?AtlRegisterClassCategoriesHelper@ATL@@YGJABU_GUID@@PBU_ATL_CATMAP_ENTRY@1@H@Z 1000506c f i CheckScanner.obj
 0001:00004368       ?AtlRegisterTypeLib@ATL@@YGJPAUHINSTANCE__@@PB_W@Z 10005368 f i CheckScanner.obj
 0001:000044f0       ?AtlThrowImpl@ATL@@YGXJ@Z  100054f0 f i CheckScanner.obj
 0001:0000450e       ?AtlUnRegisterTypeLib@ATL@@YGJPAUHINSTANCE__@@PB_W@Z 1000550e f i CheckScanner.obj
 0001:000045b9       ?AtlWinModuleAddCreateWndData@ATL@@YGXPAU_ATL_WIN_MODULE70@1@PAU_AtlCreateWndData@1@PAX@Z 100055b9 f i CheckScanner.obj
 0001:0000460d       ?AtlWinModuleExtractCreateWndData@ATL@@YGPAXPAU_ATL_WIN_MODULE70@1@@Z 1000560d f i CheckScanner.obj
 0001:00004670       ?AtlWinModuleRegisterClassExW@ATL@@YGGPAU_ATL_WIN_MODULE70@1@PBUtagWNDCLASSEXW@@@Z 10005670 f i CheckScanner.obj
 0001:000046af       ?CanForceRemoveKey@CRegParser@ATL@@IAEHPB_W@Z 100056af f i CheckScanner.obj
 0001:000046de       ?ChToByte@CRegParser@ATL@@KAE_W@Z 100056de f i CheckScanner.obj
 0001:00004711       ?Cleanup@CComTypeInfoHolder@ATL@@SGXK@Z 10005711 f i CheckScanner.obj
 0001:00004744       ?ClearReplacements@CExpansionVector@ATL@@QAEJXZ 10005744 f i CheckScanner.obj
 0001:00004781       ?Close@CRegKey@ATL@@QAEJXZ 10005781 f i CheckScanner.obj
 0001:0000479b       ?CreateInstance@?$CComCreator@V?$CComAggObject@VCOPOSCheckScanner@@@ATL@@@ATL@@SGJPAXABU_GUID@@PAPAX@Z 1000579b f i CheckScanner.obj
 0001:00004810       ?CreateInstance@?$CComCreator@V?$CComObject@VCOPOSCheckScanner@@@ATL@@@ATL@@SGJPAXABU_GUID@@PAPAX@Z 10005810 f i CheckScanner.obj
 0001:00004890       ?CreateInstance@?$CComObject@V?$CComEnum@UIEnumConnectionPoints@@$1?_GUID_b196b285_bab4_101a_b69c_00aa00341d07@@3U__s_GUID@@BPAUIConnectionPoint@@V?$_CopyInterface@UIConnectionPoint@@@ATL@@VCComSingleThreadModel@6@@ATL@@@ATL@@SGJPAPAV12@@Z 10005890 f i CheckScanner.obj
 0001:000048da       ?CreateInstance@?$CComObject@V?$CComEnum@UIEnumConnections@@$1?_GUID_b196b287_bab4_101a_b69c_00aa00341d07@@3U__s_GUID@@BUtagCONNECTDATA@@V?$_Copy@UtagCONNECTDATA@@@ATL@@VCComSingleThreadModel@6@@ATL@@@ATL@@SGJPAPAV12@@Z 100058da f i CheckScanner.obj
 0001:00004924       ?DefaultReflectionHandler@?$CWindowImplRoot@VCWindow@ATL@@@ATL@@SAHPAUHWND__@@IIJAAJ@Z 10005924 f i CheckScanner.obj
 0001:00004997       ?DeleteSubKey@CRegKey@ATL@@QAEJPB_W@Z 10005997 f i CheckScanner.obj
 0001:00004a10       ?DoEvent@COPOSCheckScanner@@IAEXIIJ@Z 10005a10 f i CheckScanner.obj
 0001:00004a90       ?DoVerbHide@?$IOleObjectImpl@VCOPOSCheckScanner@@@ATL@@QAEJPBUtagRECT@@PAUHWND__@@@Z 10005a90 f i CheckScanner.obj
 0001:00004ac6       ?DoVerbInPlaceActivate@?$IOleObjectImpl@VCOPOSCheckScanner@@@ATL@@QAEJPBUtagRECT@@PAUHWND__@@@Z 10005ac6 f i CheckScanner.obj
 0001:00004af9       ?DoVerbPrimary@?$IOleObjectImpl@VCOPOSCheckScanner@@@ATL@@QAEJPBUtagRECT@@PAUHWND__@@@Z 10005af9 f i CheckScanner.obj
 0001:00004b85       ?DoVerbProperties@CComControlBase@ATL@@QAEJPBUtagRECT@@PAUHWND__@@@Z 10005b85 f i CheckScanner.obj
 0001:00004d04       ?DoVerbUIActivate@?$IOleObjectImpl@VCOPOSCheckScanner@@@ATL@@QAEJPBUtagRECT@@PAUHWND__@@@Z 10005d04 f i CheckScanner.obj
 0001:00004d41       ?DoesVerbActivate@CComControlBase@ATL@@QAEHJ@Z 10005d41 f i CheckScanner.obj
 0001:00004d62       ?DoesVerbUIActivate@CComControlBase@ATL@@QAEHJ@Z 10005d62 f i CheckScanner.obj
 0001:00004d97       ?EndOfVar@CRegParser@ATL@@IAEHXZ 10005d97 f i CheckScanner.obj
 0001:00004db7       ?EscapeSingleQuote@CAtlModule@ATL@@SAXPA_WIPB_W@Z 10005db7 f i CheckScanner.obj
 0001:00004e06       ?FindKey@?$CSimpleMap@PA_WPA_WVCExpansionVectorEqualHelper@ATL@@@ATL@@QBEHABQA_W@Z 10005e06 f i CheckScanner.obj
 0001:00004e3d       ?FireTheEvent@?$CProxy_IOPOSEvents@VCOPOSCheckScanner@@@@IAEXPAVOposVariant@@IAAJPB_WJ@Z 10005e3d f i CheckScanner.obj
 0001:00004ecf       ?FireViewChange@CComControlBase@ATL@@QAEJXZ 10005ecf f i CheckScanner.obj
 0001:00004f18       ?Fire_DataEvent@?$CProxy_IOPOSEvents@VCOPOSCheckScanner@@@@QAEXJ@Z 10005f18 f i CheckScanner.obj
 0001:00004fae       ?Fire_DirectIOEvent@?$CProxy_IOPOSEvents@VCOPOSCheckScanner@@@@QAEXJPAJPAPA_W@Z 10005fae f i CheckScanner.obj
 0001:0000509a       ?Fire_ErrorEvent@?$CProxy_IOPOSEvents@VCOPOSCheckScanner@@@@QAEXJJJPAJ@Z 1000609a f i CheckScanner.obj
 0001:0000518b       ?Fire_StatusUpdateEvent@?$CProxy_IOPOSEvents@VCOPOSCheckScanner@@@@QAEXJ@Z 1000618b f i CheckScanner.obj
 0001:00005221       ?FreeHeap@?$CTempBuffer@_W$0BAA@VCCRTAllocator@ATL@@@ATL@@AAEXXZ 10006221 f i CheckScanner.obj
 0001:00005221       ?FreeHeap@?$CTempBuffer@E$0BAA@VCCRTAllocator@ATL@@@ATL@@AAEXXZ 10006221 f i CheckScanner.obj
 0001:00005221       ?FreeHeap@?$CTempBuffer@_W$0EAA@VCCRTAllocator@ATL@@@ATL@@AAEXXZ 10006221 f i CheckScanner.obj
 0001:0000522a       ?GetAmbientLocaleID@CComControlBase@ATL@@QAEJAAK@Z 1000622a f i CheckScanner.obj
 0001:00005286       ?GetAmbientUserMode@CComControlBase@ATL@@QAEJAAH@Z 10006286 f i CheckScanner.obj
 0001:000052f6       ?GetAt@CComDynamicUnkArray@ATL@@QAEPAUIUnknown@@H@Z 100062f6 f i CheckScanner.obj
 0001:00005312       ?GetClassObject@CComModule@ATL@@QAEJABU_GUID@@0PAPAX@Z 10006312 f i CheckScanner.obj
 0001:000053b4       ?GetConnMap@COPOSCheckScanner@@SAPBU_ATL_CONNMAP_ENTRY@ATL@@PAH@Z 100063b4 f i CheckScanner.obj
 0001:00005424       ?GetCookie@CComDynamicUnkArray@ATL@@QAGKPAPAUIUnknown@@@Z 10006424 f i CheckScanner.obj
 0001:0000545c       ?GetIDsOfNames@CComTypeInfoHolder@ATL@@QAEJABU_GUID@@PAPA_WIKPAJ@Z 1000645c f i CheckScanner.obj
 0001:00005583       ?GetKeyAt@?$CSimpleMap@PA_WPA_WVCExpansionVectorEqualHelper@ATL@@@ATL@@QBEAAPA_WH@Z 10006583 f i CheckScanner.obj
 0001:000055a8       ?GetPagesHelper@?$ISpecifyPropertyPagesImpl@VCOPOSCheckScanner@@@ATL@@IAEJPAUtagCAUUID@@PBUATL_PROPMAP_ENTRY@2@@Z 100065a8 f i CheckScanner.obj
 0001:000056cf       ?GetProperty@?$CComPtr@UIDispatch@@@ATL@@SAJPAUIDispatch@@JPAUtagVARIANT@@@Z 100066cf f i CheckScanner.obj
 0001:0000571e       ?GetSizeMax@CComVariant@ATL@@QBEJPAT_ULARGE_INTEGER@@@Z 1000671e f i CheckScanner.obj
 0001:000058e0       ?GetTI@CComTypeInfoHolder@ATL@@QAEJK@Z 100068e0 f i CheckScanner.obj
 0001:00005abf       ?GetTI@CComTypeInfoHolder@ATL@@QAEJKPAPAUITypeInfo@@@Z 10006abf f i CheckScanner.obj
 0001:00005b01       ?GetUnknown@CComDynamicUnkArray@ATL@@QAGPAUIUnknown@@K@Z 10006b01 f i CheckScanner.obj
 0001:00005b22       ?GetValueAt@?$CSimpleMap@PA_WPA_WVCExpansionVectorEqualHelper@ATL@@@ATL@@QBEAAPA_WH@Z 10006b22 f i CheckScanner.obj
 0001:00005b48       ?GetZoomInfo@CComControlBase@ATL@@QAEXAAUATL_DRAWINFO@@@Z 10006b48 f i CheckScanner.obj
 0001:00005bdb       ?HKeyFromString@CRegParser@ATL@@KAPAUHKEY__@@PA_W@Z 10006bdb f i CheckScanner.obj
 0001:00005c09       ?HasSubKeys@CRegParser@ATL@@IAEHPAUHKEY__@@@Z 10006c09 f i CheckScanner.obj
 0001:00005c3e       ?IDataObject_GetData@CComControlBase@ATL@@QAEJPAUtagFORMATETC@@PAUtagSTGMEDIUM@@@Z 10006c3e f i CheckScanner.obj
 0001:00005de4       ?IOleInPlaceObject_InPlaceDeactivate@CComControlBase@ATL@@QAEJXZ 10006de4 f i CheckScanner.obj
 0001:00005e6b       ?IOleInPlaceObject_SetObjectRects@CComControlBase@ATL@@QAEJPBUtagRECT@@0@Z 10006e6b f i CheckScanner.obj
 0001:00005f38       ?IOleInPlaceObject_UIDeactivate@CComControlBase@ATL@@QAEJXZ 10006f38 f i CheckScanner.obj
 0001:00005ffa       ?IOleObject_Advise@CComControlBase@ATL@@QAEJPAUIAdviseSink@@PAK@Z 10006ffa f i CheckScanner.obj
 0001:00006024       ?IOleObject_Close@CComControlBase@ATL@@QAEJK@Z 10007024 f i CheckScanner.obj
 0001:00006108       ?IOleObject_GetClientSite@CComControlBase@ATL@@QAEJPAPAUIOleClientSite@@@Z 10007108 f i CheckScanner.obj
 0001:00006131       ?IOleObject_SetClientSite@CComControlBase@ATL@@QAEJPAUIOleClientSite@@@Z 10007131 f i CheckScanner.obj
 0001:00006170       ?IOleObject_SetExtent@CComControlBase@ATL@@QAEJKPAUtagSIZE@@@Z 10007170 f i CheckScanner.obj
 0001:00006222       ?IPSI_GetIPersistStreamInit@?$IPersistStorageImpl@VCOPOSCheckScanner@@@ATL@@AAEPAUIPersistStreamInit@@XZ 10007222 f i CheckScanner.obj
 0001:000062ca       ?IPersistStreamInit_Load@?$IPersistStreamInitImpl@VCOPOSCheckScanner@@@ATL@@QAEJPAUIStream@@PBUATL_PROPMAP_ENTRY@2@@Z 100072ca f i CheckScanner.obj
 0001:0000653f       ?IPersistStreamInit_Save@?$IPersistStreamInitImpl@VCOPOSCheckScanner@@@ATL@@QAEJPAUIStream@@HPBUATL_PROPMAP_ENTRY@2@@Z 1000753f f i CheckScanner.obj
 0001:0000672d       ?IQuickActivate_QuickActivate@CComControlBase@ATL@@QAEJPAUtagQACONTAINER@@PAUtagQACONTROL@@@Z 1000772d f i CheckScanner.obj
 0001:0000696f       ?IViewObject_Draw@CComControlBase@ATL@@QAEJKJPAXPAUtagDVTARGETDEVICE@@PAUHDC__@@2PBU_RECTL@@3@Z 1000796f f i CheckScanner.obj
 0001:00006a17       ?InPlaceActivate@CComControlBase@ATL@@QAEJJPBUtagRECT@@@Z 10007a17 f i CheckScanner.obj
 0001:00006c88       ?Init@?$CComEnumImpl@UIEnumConnectionPoints@@$1?_GUID_b196b285_bab4_101a_b69c_00aa00341d07@@3U__s_GUID@@BPAUIConnectionPoint@@V?$_CopyInterface@UIConnectionPoint@@@ATL@@@ATL@@QAEJPAPAUIConnectionPoint@@0PAUIUnknown@@W4CComEnumFlags@2@@Z 10007c88 f i CheckScanner.obj
 0001:00006d67       ?Init@?$CComEnumImpl@UIEnumConnections@@$1?_GUID_b196b287_bab4_101a_b69c_00aa00341d07@@3U__s_GUID@@BUtagCONNECTDATA@@V?$_Copy@UtagCONNECTDATA@@@ATL@@@ATL@@QAEJPAUtagCONNECTDATA@@0PAUIUnknown@@W4CComEnumFlags@2@@Z 10007d67 f i CheckScanner.obj
 0001:00006e46       ?Init@CComModule@ATL@@QAEJPAU_ATL_OBJMAP_ENTRY30@2@PAUHINSTANCE__@@PBU_GUID@@@Z 10007e46 f i CheckScanner.obj
 0001:00006ea5       ?Init@CDynamicStdCallThunk2@ATL@@QAEHKPAX@Z 10007ea5 f i CheckScanner.obj
 0001:00006ed0       ?InlineIsEqualUnknown@ATL@@YGHABU_GUID@@@Z 10007ed0 f i CheckScanner.obj
 0001:00006ef8       ?InternalSetAtIndex@?$CSimpleMap@PA_WPA_WVCExpansionVectorEqualHelper@ATL@@@ATL@@QAEXHABQA_W0@Z 10007ef8 f i CheckScanner.obj
 0001:00006f22       ?Invoke@CComTypeInfoHolder@ATL@@QAEJPAUIDispatch@@JABU_GUID@@KGPAUtagDISPPARAMS@@PAUtagVARIANT@@PAUtagEXCEPINFO@@PAI@Z 10007f22 f i CheckScanner.obj
 0001:00006f65       ?IsEqualObject@?$CComPtrBase@UITypeInfo@@@ATL@@QAE_NPAUIUnknown@@@Z 10007f65 f i CheckScanner.obj
 0001:00006f65       ?IsEqualObject@?$CComPtrBase@UIOleClientSite@@@ATL@@QAE_NPAUIUnknown@@@Z 10007f65 f i CheckScanner.obj
 0001:00006fd2       ?IsSpace@CRegParser@ATL@@IAEH_W@Z 10007fd2 f i CheckScanner.obj
 0001:00006ffc       ?LoadNameCache@CComTypeInfoHolder@ATL@@QAEJPAUITypeInfo@@@Z 10007ffc f i CheckScanner.obj
 0001:00007131       ?Lookup@?$CSimpleMap@PA_WPA_WVCExpansionVectorEqualHelper@ATL@@@ATL@@QBEPA_WABQA_W@Z 10008131 f i CheckScanner.obj
 0001:00007157       ?NextToken@CRegParser@ATL@@IAEJPA_W@Z 10008157 f i CheckScanner.obj
 0001:0000728f       ?OnKillFocus@CComControlBase@ATL@@QAEJIIJAAH@Z 1000828f f i CheckScanner.obj
 0001:000072ea       ?OnMouseActivate@CComControlBase@ATL@@QAEJIIJAAH@Z 100082ea f i CheckScanner.obj
 0001:00007358       ?OnPaint@CComControlBase@ATL@@QAEJIIJAAH@Z 10008358 f i CheckScanner.obj
 0001:0000740a       ?OnSetFocus@CComControlBase@ATL@@QAEJIIJAAH@Z 1000840a f i CheckScanner.obj
 0001:00007493       ?Open@CRegKey@ATL@@QAEJPAUHKEY__@@PB_WK@Z 10008493 f i CheckScanner.obj
 0001:000074e8       ?PreProcessBuffer@CRegParser@ATL@@QAEJPA_WPAPA_W@Z 100084e8 f i CheckScanner.obj
 0001:00007757       ?ProcessWindowMessage@?$CComControl@VCOPOSCheckScanner@@V?$CWindowImpl@VCOPOSCheckScanner@@VCWindow@ATL@@V?$CWinTraits@$0FGAAAAAA@$0A@@3@@ATL@@@ATL@@UAEHPAUHWND__@@IIJAAJK@Z 10008757 f i CheckScanner.obj
 0001:000077f6       ?ReadFromStream@CComBSTR@ATL@@QAEJPAUIStream@@@Z 100087f6 f i CheckScanner.obj
 0001:00007919       ?ReadFromStream@CComVariant@ATL@@QAEJPAUIStream@@GTClassesAllowedInStream@2@K@Z 10008919 f i CheckScanner.obj
 0001:00007aa3       ?RecurseDeleteKey@CRegKey@ATL@@QAEJPB_W@Z 10008aa3 f i CheckScanner.obj
 0001:00007b91       ?RegCreateKeyExW@CAtlTransactionManager@ATL@@QAEJPAUHKEY__@@PB_WKPA_WKKQAU_SECURITY_ATTRIBUTES@@PAPAU3@PAK@Z 10008b91 f i CheckScanner.obj
 0001:00007bf4       ?RegDeleteKeyW@CAtlTransactionManager@ATL@@QAEJPAUHKEY__@@PB_W@Z 10008bf4 f i CheckScanner.obj
 0001:00007c46       ?RegOpenKeyExW@CAtlTransactionManager@ATL@@QAEJPAUHKEY__@@PB_WKKPAPAU3@@Z 10008c46 f i CheckScanner.obj
 0001:00007c9d       ?Register@_ATL_WNDCLASSINFOW@ATL@@QAEGPAP6GJPAUHWND__@@IIJ@Z@Z 10008c9d f i CheckScanner.obj
 0001:00007cbd       ?RegisterBuffer@CRegParser@ATL@@QAEJPA_WH@Z 10008cbd f i CheckScanner.obj
 0001:00007e04       ?RegisterFromResource@CRegObject@ATL@@IAEJPB_W00H@Z 10008e04 f i CheckScanner.obj
 0001:00007f3a       ?RegisterServer@?$CAtlModuleT@VCComModule@ATL@@@ATL@@QAEJHPBU_GUID@@@Z 10008f3a f i CheckScanner.obj
 0001:00007f68       ?RegisterServer@CComModule@ATL@@QAEJHPBU_GUID@@@Z 10008f68 f i CheckScanner.obj
 0001:00007fde       ?RegisterSubkeys@CRegParser@ATL@@IAEJPA_WPAUHKEY__@@HH@Z 10008fde f i CheckScanner.obj
 0001:0000868b       ?Remove@CComDynamicUnkArray@ATL@@QAEHK@Z 1000968b f i CheckScanner.obj
 0001:000086b4       ?RemoveAll@?$CSimpleMap@PA_WPA_WVCExpansionVectorEqualHelper@ATL@@@ATL@@QAEXXZ 100096b4 f i CheckScanner.obj
 0001:000086e0       ?ResourceRegisterSz@CRegObject@ATL@@QAGJPB_W00@Z 100096e0 f i CheckScanner.obj
 0001:0000870d       ?ResourceUnregisterSz@CRegObject@ATL@@QAGJPB_W00@Z 1000970d f i CheckScanner.obj
 0001:0000873a       ?SendOnDataChange@CComControlBase@ATL@@QAEJK@Z 1000973a f i CheckScanner.obj
 0001:00008787       ?SetControlFocus@CComControlBase@ATL@@QAEHH@Z 10009787 f i CheckScanner.obj
 0001:00008824       ?SetMultiStringValue@CRegKey@ATL@@QAEJPB_W0@Z 10009824 f i CheckScanner.obj
 0001:00008880       ?SetStringValue@CRegKey@ATL@@QAEJPB_W0K@Z 10009880 f i CheckScanner.obj
 0001:000088c9       ?SkipAssignment@CRegParser@ATL@@IAEJPA_W@Z 100098c9 f i CheckScanner.obj
 0001:0000892e       ?SkipWhiteSpace@CRegParser@ATL@@IAEXXZ 1000992e f i CheckScanner.obj
 0001:00008950       ?StrChrW@CRegParser@ATL@@KAPA_WPA_W_W@Z 10009950 f i CheckScanner.obj
 0001:0000898d       ?Term@CAtlModule@ATL@@QAEXXZ 1000998d f i CheckScanner.obj
 0001:000089e0       ?Term@CComModule@ATL@@QAEXXZ 100099e0 f i CheckScanner.obj
 0001:00008a38       ?UnregisterServer@?$CAtlModuleT@VCComModule@ATL@@@ATL@@QAEJHPBU_GUID@@@Z 10009a38 f i CheckScanner.obj
 0001:00008a5e       ?UnregisterServer@CComModule@ATL@@QAEJHPBU_GUID@@@Z 10009a5e f i CheckScanner.obj
 0001:00008ad4       ?UpdateRegistryFromResource@CAtlModule@ATL@@QAGJIHPAU_ATL_REGMAP_ENTRY@2@@Z 10009ad4 f i CheckScanner.obj
 0001:00008c9f       ?UpdateRegistryFromResource@CAtlModule@ATL@@QAGJPB_WHPAU_ATL_REGMAP_ENTRY@2@@Z 10009c9f f i CheckScanner.obj
 0001:00008e70       ?VTFromRegType@CRegParser@ATL@@KAHPB_WAAG@Z 10009e70 f i CheckScanner.obj
 0001:00008edd       ?WindowProc@?$CWindowImplBaseT@VCWindow@ATL@@V?$CWinTraits@$0FGAAAAAA@$0A@@2@@ATL@@SGJPAUHWND__@@IIJ@Z 10009edd f i CheckScanner.obj
 0001:00008fcf       ?WriteToStream@CComBSTR@ATL@@QAEJPAUIStream@@@Z 10009fcf f i CheckScanner.obj
 0001:00009031       ?WriteToStream@CComVariant@ATL@@QAEJPAUIStream@@@Z 1000a031 f i CheckScanner.obj
 0001:000091ab       ?WriteToStream@CComVariant@ATL@@QAEJPAUIStream@@G@Z 1000a1ab f i CheckScanner.obj
 0001:00009214       ?_AtlInitialConstruct@?$CComObjectRootEx@VCComMultiThreadModel@ATL@@@ATL@@QAEJXZ 1000a214 f i CheckScanner.obj
 0001:00009229       ?_AtlVerifyStackAvailable@_ATL_SAFE_ALLOCA_IMPL@ATL@@YA_NK@Z 1000a229 f i CheckScanner.obj
 0001:000092a7       ?atlCreate@?$CWindowImpl@VCOPOSCheckScanner@@VCWindow@ATL@@V?$CWinTraits@$0FGAAAAAA@$0A@@3@@ATL@@QAEPAUHWND__@@PAU3@V_U_RECT@2@PB_WKKV_U_MENUorID@2@PAX@Z 1000a2a7 f i CheckScanner.obj
 0001:000092eb       ?atlCreate@?$CWindowImplBaseT@VCWindow@ATL@@V?$CWinTraits@$0FGAAAAAA@$0A@@2@@ATL@@QAEPAUHWND__@@PAU3@V_U_RECT@2@PB_WKKV_U_MENUorID@2@GPAX@Z 1000a2eb f i CheckScanner.obj
 0001:00009387       ?copy@?$_Copy@UtagCONNECTDATA@@@ATL@@SAJPAUtagCONNECTDATA@@PBU3@@Z 1000a387 f i CheckScanner.obj
 0001:000093bd       ?copy@?$_CopyInterface@UIConnectionPoint@@@ATL@@SAJPAPAUIConnectionPoint@@PBQAU3@@Z 1000a3bd f i CheckScanner.obj
 0001:000093eb       ?memcpy_s@Checked@ATL@@YAXPAXIPBXI@Z 1000a3eb f i CheckScanner.obj
 0001:0000940a       ?ocscpy_s@@YA_NPA_WIPB_W@Z 1000a40a f i CheckScanner.obj
 0001:00009454       ?wcscpy_s@Checked@ATL@@YAXPA_WIPB_W@Z 1000a454 f i CheckScanner.obj
 0001:00009470       _DllCanUnloadNow@0         1000a470 f   CheckScanner.obj
 0001:0000947c       _DllGetClassObject@12      1000a47c f   CheckScanner.obj
 0001:0000948a       _DllMain@12                1000a48a f   CheckScanner.obj
 0001:000094cc       _DllRegisterServer@0       1000a4cc f   CheckScanner.obj
 0001:000094db       _DllUnregisterServer@0     1000a4db f   CheckScanner.obj
 0001:000094ea       _InlineIsEqualGUID         1000a4ea f i CheckScanner.obj
 0001:0000951a       ___local_stdio_printf_options 1000a51a f i CheckScanner.obj
 0001:00009520       __vswprintf_s_l            1000a520 f i CheckScanner.obj
 0001:000095cd       _swprintf_s                1000a5cd f i CheckScanner.obj
 0001:000095e9       ??0?$CComControl@VCOPOSCheckScanner@@V?$CWindowImpl@VCOPOSCheckScanner@@VCWindow@ATL@@V?$CWinTraits@$0FGAAAAAA@$0A@@3@@ATL@@@ATL@@QAE@XZ 1000a5e9 f i CheckScannerImpl.obj
 0001:00009610       ??0?$CProxy_IOPOSEvents@VCOPOSCheckScanner@@@@QAE@XZ 1000a610 f i CheckScannerImpl.obj
 0001:00009630       ??0CComControlBase@ATL@@QAE@AAPAUHWND__@@@Z 1000a630 f i CheckScannerImpl.obj
 0001:00009680       ??0COPOSCheckScanner@@QAE@XZ 1000a680 f   CheckScannerImpl.obj
 0001:000096b6       ??1?$CComControl@VCOPOSCheckScanner@@V?$CWindowImpl@VCOPOSCheckScanner@@VCWindow@ATL@@V?$CWinTraits@$0FGAAAAAA@$0A@@3@@ATL@@@ATL@@UAE@XZ 1000a6b6 f i CheckScannerImpl.obj
 0001:000096cf       ??1?$IConnectionPointImpl@VCOPOSCheckScanner@@$1?DIID__IOPOSCheckScannerEvents@@3U_GUID@@BVCComDynamicUnkArray@ATL@@@ATL@@QAE@XZ 1000a6cf f i CheckScannerImpl.obj
 0001:000096cf       ??1?$IConnectionPointImpl@VCOPOSCheckScanner@@$1?IID_IPropertyNotifySink@@3U_GUID@@BVCComDynamicUnkArray@ATL@@@ATL@@QAE@XZ 1000a6cf f i CheckScannerImpl.obj
 0001:0000970c       ??1CComControlBase@ATL@@UAE@XZ 1000a70c f i CheckScannerImpl.obj
 0001:0000976f       ??1COPOSCheckScanner@@UAE@XZ 1000a76f f   CheckScannerImpl.obj
 0001:000097b7       ?BeginInsertion@COPOSCheckScanner@@UAGJJPAJ@Z 1000a7b7 f   CheckScannerImpl.obj
 0001:00009806       ?BeginRemoval@COPOSCheckScanner@@UAGJJPAJ@Z 1000a806 f   CheckScannerImpl.obj
 0001:00009855       ?CheckHealth@COPOSCheckScanner@@UAGJJPAJ@Z 1000a855 f   CheckScannerImpl.obj
 0001:000098a4       ?ClaimDevice@COPOSCheckScanner@@UAGJJPAJ@Z 1000a8a4 f   CheckScannerImpl.obj
 0001:00009919       ?ClearImage@COPOSCheckScanner@@UAGJJPAJ@Z 1000a919 f   CheckScannerImpl.obj
 0001:00009968       ?ClearInput@COPOSCheckScanner@@UAGJPAJ@Z 1000a968 f   CheckScannerImpl.obj
 0001:00009983       ?ClearInputProperties@COPOSCheckScanner@@UAGJPAJ@Z 1000a983 f   CheckScannerImpl.obj
 0001:0000999e       ?Close@COPOSCheckScanner@@UAGJPAJ@Z 1000a99e f   CheckScannerImpl.obj
 0001:00009a0c       ?CompareFirmwareVersion@COPOSCheckScanner@@UAGJPA_WPAJ1@Z 1000aa0c f   CheckScannerImpl.obj
 0001:00009a8c       ?DefineCropArea@COPOSCheckScanner@@UAGJJJJJJPAJ@Z 1000aa8c f   CheckScannerImpl.obj
 0001:00009b38       ?DirectIO@COPOSCheckScanner@@UAGJJPAJPAPA_W0@Z 1000ab38 f   CheckScannerImpl.obj
 0001:00009be6       ?DoInvoke@COPOSCheckScanner@@IAEJJPAVOposVariant@@IHPAJ_N@Z 1000abe6 f   CheckScannerImpl.obj
 0001:00009cc2       ?EndInsertion@COPOSCheckScanner@@UAGJPAJ@Z 1000acc2 f   CheckScannerImpl.obj
 0001:00009cdd       ?EndRemoval@COPOSCheckScanner@@UAGJPAJ@Z 1000acdd f   CheckScannerImpl.obj
 0001:00009cf8       ?EventClose@COPOSCheckScanner@@IAEXXZ 1000acf8 f i CheckScannerImpl.obj
 0001:00009d2b       ?EventInit@COPOSCheckScanner@@IAEJXZ 1000ad2b f i CheckScannerImpl.obj
 0001:00009df7       ?EventUninit@COPOSCheckScanner@@IAEXXZ 1000adf7 f i CheckScannerImpl.obj
 0001:00009e49       ?EventWindowProc@COPOSCheckScanner@@IAGJIIJ@Z 1000ae49 f i CheckScannerImpl.obj
 0001:00009f1d       ?FinalConstruct@COPOSCheckScanner@@QAEJXZ 1000af1d f   CheckScannerImpl.obj
 0001:00009f56       ?FireEventCleanup@COPOSCheckScanner@@IAEXXZ 1000af56 f i CheckScannerImpl.obj
 0001:00009f6c       ?FireEventSetup@COPOSCheckScanner@@IAE_NXZ 1000af6c f i CheckScannerImpl.obj
 0001:00009fa0       ?FreezeEvents@COPOSCheckScanner@@MAGJH@Z 1000afa0 f   CheckScannerImpl.obj
 0001:0000a000       ?GetOposProp@COPOSCheckScanner@@IAEJJPAFJ@Z 1000b000 f   CheckScannerImpl.obj
 0001:0000a023       ?GetOposProp@COPOSCheckScanner@@IAEJJPAJJ@Z 1000b023 f   CheckScannerImpl.obj
 0001:0000a0f2       ?GetOposProp@COPOSCheckScanner@@IAEJJPAPA_WJ@Z 1000b0f2 f   CheckScannerImpl.obj
 0001:0000a1ce       ?OnDraw@COPOSCheckScanner@@MAEJAAUATL_DRAWINFO@@@Z 1000b1ce f   CheckScannerImpl.obj
 0001:0000a26e       ?Open@COPOSCheckScanner@@UAGJPA_WPAJ@Z 1000b26e f   CheckScannerImpl.obj
 0001:0000aab4       ?ReleaseDevice@COPOSCheckScanner@@UAGJPAJ@Z 1000bab4 f   CheckScannerImpl.obj
 0001:0000ab03       ?ResetStatistics@COPOSCheckScanner@@UAGJPA_WPAJ@Z 1000bb03 f   CheckScannerImpl.obj
 0001:0000ab5a       ?RetrieveImage@COPOSCheckScanner@@UAGJJPAJ@Z 1000bb5a f   CheckScannerImpl.obj
 0001:0000aba9       ?RetrieveMemory@COPOSCheckScanner@@UAGJJPAJ@Z 1000bba9 f   CheckScannerImpl.obj
 0001:0000abf8       ?RetrieveStatistics@COPOSCheckScanner@@UAGJPAPA_WPAJ@Z 1000bbf8 f   CheckScannerImpl.obj
 0001:0000ac4f       ?SOProcessID@COPOSCheckScanner@@UAGJPAJ@Z 1000bc4f f   CheckScannerImpl.obj
 0001:0000ac63       ?SetCOFreezeEvents@COPOSCheckScanner@@IAEXF@Z 1000bc63 f   CheckScannerImpl.obj
 0001:0000ad03       ?SetOposProp@COPOSCheckScanner@@IAEJJJJ@Z 1000bd03 f   CheckScannerImpl.obj
 0001:0000adfa       ?SetOposProp@COPOSCheckScanner@@IAEJJPA_WJ@Z 1000bdfa f   CheckScannerImpl.obj
 0001:0000aefb       ?StoreImage@COPOSCheckScanner@@UAGJJPAJ@Z 1000befb f   CheckScannerImpl.obj
 0001:0000af4a       ?UpdateFirmware@COPOSCheckScanner@@UAGJPA_WPAJ@Z 1000bf4a f   CheckScannerImpl.obj
 0001:0000afa1       ?UpdateStatistics@COPOSCheckScanner@@UAGJPA_WPAJ@Z 1000bfa1 f   CheckScannerImpl.obj
 0001:0000aff8       ?get_AutoDisable@COPOSCheckScanner@@UAGJPAF@Z 1000bff8 f   CheckScannerImpl.obj
 0001:0000b00e       ?get_BinaryConversion@COPOSCheckScanner@@UAGJPAJ@Z 1000c00e f   CheckScannerImpl.obj
 0001:0000b024       ?get_CapAutoContrast@COPOSCheckScanner@@UAGJPAF@Z 1000c024 f   CheckScannerImpl.obj
 0001:0000b03d       ?get_CapAutoGenerateFileID@COPOSCheckScanner@@UAGJPAF@Z 1000c03d f   CheckScannerImpl.obj
 0001:0000b056       ?get_CapAutoGenerateImageTagData@COPOSCheckScanner@@UAGJPAF@Z 1000c056 f   CheckScannerImpl.obj
 0001:0000b06f       ?get_CapAutoSize@COPOSCheckScanner@@UAGJPAF@Z 1000c06f f   CheckScannerImpl.obj
 0001:0000b088       ?get_CapColor@COPOSCheckScanner@@UAGJPAJ@Z 1000c088 f   CheckScannerImpl.obj
 0001:0000b0a1       ?get_CapCompareFirmwareVersion@COPOSCheckScanner@@UAGJPAF@Z 1000c0a1 f   CheckScannerImpl.obj
 0001:0000b0ba       ?get_CapConcurrentMICR@COPOSCheckScanner@@UAGJPAF@Z 1000c0ba f   CheckScannerImpl.obj
 0001:0000b0d3       ?get_CapContrast@COPOSCheckScanner@@UAGJPAF@Z 1000c0d3 f   CheckScannerImpl.obj
 0001:0000b0ec       ?get_CapDefineCropArea@COPOSCheckScanner@@UAGJPAF@Z 1000c0ec f   CheckScannerImpl.obj
 0001:0000b105       ?get_CapImageFormat@COPOSCheckScanner@@UAGJPAJ@Z 1000c105 f   CheckScannerImpl.obj
 0001:0000b11e       ?get_CapImageTagData@COPOSCheckScanner@@UAGJPAF@Z 1000c11e f   CheckScannerImpl.obj
 0001:0000b137       ?get_CapMICRDevice@COPOSCheckScanner@@UAGJPAF@Z 1000c137 f   CheckScannerImpl.obj
 0001:0000b150       ?get_CapPowerReporting@COPOSCheckScanner@@UAGJPAJ@Z 1000c150 f   CheckScannerImpl.obj
 0001:0000b169       ?get_CapStatisticsReporting@COPOSCheckScanner@@UAGJPAF@Z 1000c169 f   CheckScannerImpl.obj
 0001:0000b182       ?get_CapStoreImageFiles@COPOSCheckScanner@@UAGJPAF@Z 1000c182 f   CheckScannerImpl.obj
 0001:0000b19b       ?get_CapUpdateFirmware@COPOSCheckScanner@@UAGJPAF@Z 1000c19b f   CheckScannerImpl.obj
 0001:0000b1b4       ?get_CapUpdateStatistics@COPOSCheckScanner@@UAGJPAF@Z 1000c1b4 f   CheckScannerImpl.obj
 0001:0000b1cd       ?get_CapValidationDevice@COPOSCheckScanner@@UAGJPAF@Z 1000c1cd f   CheckScannerImpl.obj
 0001:0000b1e6       ?get_CheckHealthText@COPOSCheckScanner@@UAGJPAPA_W@Z 1000c1e6 f   CheckScannerImpl.obj
 0001:0000b1ff       ?get_Claimed@COPOSCheckScanner@@UAGJPAF@Z 1000c1ff f   CheckScannerImpl.obj
 0001:0000b215       ?get_Color@COPOSCheckScanner@@UAGJPAJ@Z 1000c215 f   CheckScannerImpl.obj
 0001:0000b22e       ?get_ConcurrentMICR@COPOSCheckScanner@@UAGJPAF@Z 1000c22e f   CheckScannerImpl.obj
 0001:0000b247       ?get_Contrast@COPOSCheckScanner@@UAGJPAJ@Z 1000c247 f   CheckScannerImpl.obj
 0001:0000b260       ?get_ControlObjectDescription@COPOSCheckScanner@@UAGJPAPA_W@Z 1000c260 f   CheckScannerImpl.obj
 0001:0000b2ae       ?get_ControlObjectVersion@COPOSCheckScanner@@UAGJPAJ@Z 1000c2ae f   CheckScannerImpl.obj
 0001:0000b2c1       ?get_CropAreaCount@COPOSCheckScanner@@UAGJPAJ@Z 1000c2c1 f   CheckScannerImpl.obj
 0001:0000b2da       ?get_DataCount@COPOSCheckScanner@@UAGJPAJ@Z 1000c2da f   CheckScannerImpl.obj
 0001:0000b2f0       ?get_DataEventEnabled@COPOSCheckScanner@@UAGJPAF@Z 1000c2f0 f   CheckScannerImpl.obj
 0001:0000b306       ?get_DeviceDescription@COPOSCheckScanner@@UAGJPAPA_W@Z 1000c306 f   CheckScannerImpl.obj
 0001:0000b31f       ?get_DeviceEnabled@COPOSCheckScanner@@UAGJPAF@Z 1000c31f f   CheckScannerImpl.obj
 0001:0000b335       ?get_DeviceName@COPOSCheckScanner@@UAGJPAPA_W@Z 1000c335 f   CheckScannerImpl.obj
 0001:0000b34e       ?get_DocumentHeight@COPOSCheckScanner@@UAGJPAJ@Z 1000c34e f   CheckScannerImpl.obj
 0001:0000b367       ?get_DocumentWidth@COPOSCheckScanner@@UAGJPAJ@Z 1000c367 f   CheckScannerImpl.obj
 0001:0000b380       ?get_FileID@COPOSCheckScanner@@UAGJPAPA_W@Z 1000c380 f   CheckScannerImpl.obj
 0001:0000b399       ?get_FileIndex@COPOSCheckScanner@@UAGJPAJ@Z 1000c399 f   CheckScannerImpl.obj
 0001:0000b3b2       ?get_FreezeEvents@COPOSCheckScanner@@UAGJPAF@Z 1000c3b2 f   CheckScannerImpl.obj
 0001:0000b3c8       ?get_ImageData@COPOSCheckScanner@@UAGJPAPA_W@Z 1000c3c8 f   CheckScannerImpl.obj
 0001:0000b3e1       ?get_ImageFormat@COPOSCheckScanner@@UAGJPAJ@Z 1000c3e1 f   CheckScannerImpl.obj
 0001:0000b3fa       ?get_ImageMemoryStatus@COPOSCheckScanner@@UAGJPAJ@Z 1000c3fa f   CheckScannerImpl.obj
 0001:0000b413       ?get_ImageTagData@COPOSCheckScanner@@UAGJPAPA_W@Z 1000c413 f   CheckScannerImpl.obj
 0001:0000b42c       ?get_MapMode@COPOSCheckScanner@@UAGJPAJ@Z 1000c42c f   CheckScannerImpl.obj
 0001:0000b445       ?get_MaxCropAreas@COPOSCheckScanner@@UAGJPAJ@Z 1000c445 f   CheckScannerImpl.obj
 0001:0000b45e       ?get_OpenResult@COPOSCheckScanner@@UAGJPAJ@Z 1000c45e f   CheckScannerImpl.obj
 0001:0000b475       ?get_PowerNotify@COPOSCheckScanner@@UAGJPAJ@Z 1000c475 f   CheckScannerImpl.obj
 0001:0000b48b       ?get_PowerState@COPOSCheckScanner@@UAGJPAJ@Z 1000c48b f   CheckScannerImpl.obj
 0001:0000b4a1       ?get_Quality@COPOSCheckScanner@@UAGJPAJ@Z 1000c4a1 f   CheckScannerImpl.obj
 0001:0000b4ba       ?get_QualityList@COPOSCheckScanner@@UAGJPAPA_W@Z 1000c4ba f   CheckScannerImpl.obj
 0001:0000b4d3       ?get_RemainingImagesEstimate@COPOSCheckScanner@@UAGJPAJ@Z 1000c4d3 f   CheckScannerImpl.obj
 0001:0000b4ec       ?get_ResultCode@COPOSCheckScanner@@UAGJPAJ@Z 1000c4ec f   CheckScannerImpl.obj
 0001:0000b52a       ?get_ResultCodeExtended@COPOSCheckScanner@@UAGJPAJ@Z 1000c52a f   CheckScannerImpl.obj
 0001:0000b540       ?get_ServiceObjectDescription@COPOSCheckScanner@@UAGJPAPA_W@Z 1000c540 f   CheckScannerImpl.obj
 0001:0000b559       ?get_ServiceObjectVersion@COPOSCheckScanner@@UAGJPAJ@Z 1000c559 f   CheckScannerImpl.obj
 0001:0000b56f       ?get_State@COPOSCheckScanner@@UAGJPAJ@Z 1000c56f f   CheckScannerImpl.obj
 0001:0000b59b       ?put_AutoDisable@COPOSCheckScanner@@UAGJF@Z 1000c59b f   CheckScannerImpl.obj
 0001:0000b5b8       ?put_BinaryConversion@COPOSCheckScanner@@UAGJJ@Z 1000c5b8 f   CheckScannerImpl.obj
 0001:0000b5ce       ?put_Color@COPOSCheckScanner@@UAGJJ@Z 1000c5ce f   CheckScannerImpl.obj
 0001:0000b5e7       ?put_ConcurrentMICR@COPOSCheckScanner@@UAGJF@Z 1000c5e7 f   CheckScannerImpl.obj
 0001:0000b607       ?put_Contrast@COPOSCheckScanner@@UAGJJ@Z 1000c607 f   CheckScannerImpl.obj
 0001:0000b620       ?put_DataEventEnabled@COPOSCheckScanner@@UAGJF@Z 1000c620 f   CheckScannerImpl.obj
 0001:0000b63d       ?put_DeviceEnabled@COPOSCheckScanner@@UAGJF@Z 1000c63d f   CheckScannerImpl.obj
 0001:0000b65a       ?put_DocumentHeight@COPOSCheckScanner@@UAGJJ@Z 1000c65a f   CheckScannerImpl.obj
 0001:0000b673       ?put_DocumentWidth@COPOSCheckScanner@@UAGJJ@Z 1000c673 f   CheckScannerImpl.obj
 0001:0000b68c       ?put_FileID@COPOSCheckScanner@@UAGJPA_W@Z 1000c68c f   CheckScannerImpl.obj
 0001:0000b6a5       ?put_FileIndex@COPOSCheckScanner@@UAGJJ@Z 1000c6a5 f   CheckScannerImpl.obj
 0001:0000b6be       ?put_FreezeEvents@COPOSCheckScanner@@UAGJF@Z 1000c6be f   CheckScannerImpl.obj
 0001:0000b70a       ?put_ImageFormat@COPOSCheckScanner@@UAGJJ@Z 1000c70a f   CheckScannerImpl.obj
 0001:0000b723       ?put_ImageTagData@COPOSCheckScanner@@UAGJPA_W@Z 1000c723 f   CheckScannerImpl.obj
 0001:0000b73c       ?put_MapMode@COPOSCheckScanner@@UAGJJ@Z 1000c73c f   CheckScannerImpl.obj
 0001:0000b755       ?put_PowerNotify@COPOSCheckScanner@@UAGJJ@Z 1000c755 f   CheckScannerImpl.obj
 0001:0000b76b       ?put_Quality@COPOSCheckScanner@@UAGJJ@Z 1000c76b f   CheckScannerImpl.obj
 0001:0000b784       ?s_EventWindowProc@COPOSCheckScanner@@KGJPAUHWND__@@IIJ@Z 1000c784 f i CheckScannerImpl.obj
 0001:0000b7d6       ??_U@YAPAXI@Z              1000c7d6 f   LIBCMT:new_array.obj
 0001:0000b7df       ??3@YAXPAXI@Z              1000c7df f   LIBCMT:delete_scalar_size.obj
 0001:0000b7ed       ??_V@YAXPAX@Z              1000c7ed f   LIBCMT:delete_array.obj
 0001:0000b7f2       ??_V@YAXPAXI@Z             1000c7f2 f   LIBCMT:delete_array_size.obj
 0001:0000b844       ___scrt_acquire_startup_lock 1000c844 f   LIBCMT:utility.obj
 0001:0000b876       ___scrt_dllmain_after_initialize_c 1000c876 f   LIBCMT:utility.obj
 0001:0000b8a1       ___scrt_dllmain_before_initialize_c 1000c8a1 f   LIBCMT:utility.obj
 0001:0000b8af       ___scrt_dllmain_crt_thread_attach 1000c8af f   LIBCMT:utility.obj
 0001:0000b8ce       ___scrt_dllmain_crt_thread_detach 1000c8ce f   LIBCMT:utility.obj
 0001:0000b8db       ___scrt_dllmain_exception_filter 1000c8db f   LIBCMT:utility.obj
 0001:0000b90f       ___scrt_dllmain_uninitialize_c 1000c90f f   LIBCMT:utility.obj
 0001:0000b932       ___scrt_dllmain_uninitialize_critical 1000c932 f   LIBCMT:utility.obj
 0001:0000b93f       ___scrt_initialize_crt     1000c93f f   LIBCMT:utility.obj
 0001:0000b978       ___scrt_initialize_onexit_tables 1000c978 f   LIBCMT:utility.obj
 0001:0000b9ff       ___scrt_is_nonwritable_in_current_image 1000c9ff f   LIBCMT:utility.obj
 0001:0000ba93       ___scrt_release_startup_lock 1000ca93 f   LIBCMT:utility.obj
 0001:0000bab0       ___scrt_uninitialize_crt   1000cab0 f   LIBCMT:utility.obj
 0001:0000bad8       __onexit                   1000cad8 f   LIBCMT:utility.obj
 0001:0000bb05       _atexit                    1000cb05 f   LIBCMT:utility.obj
 0001:0000bb1a       ??3@YAXPAX@Z               1000cb1a f   LIBCMT:delete_scalar.obj
 0001:0000bbe4       __Init_thread_footer       1000cbe4 f   LIBCMT:thread_safe_statics.obj
 0001:0000bc2e       __Init_thread_header       1000cc2e f   LIBCMT:thread_safe_statics.obj
 0001:0000bc80       __Init_thread_notify       1000cc80 f   LIBCMT:thread_safe_statics.obj
 0001:0000bcb6       __Init_thread_wait         1000ccb6 f   LIBCMT:thread_safe_statics.obj
 0001:0000bd04       ___raise_securityfailure   1000cd04 f   LIBCMT:gs_report.obj
 0001:0000bd2c       ___report_gsfailure        1000cd2c f   LIBCMT:gs_report.obj
 0001:0000be25       ___report_rangecheckfailure 1000ce25 f   LIBCMT:gs_report.obj
 0001:0000be31       ___report_securityfailure  1000ce31 f   LIBCMT:gs_report.obj
 0001:0000beff       ??2@YAPAXIABUnothrow_t@std@@@Z 1000ceff f   LIBCMT:new_scalar_nothrow.obj
 0001:0000bf54       ??_U@YAPAXIABUnothrow_t@std@@@Z 1000cf54 f   LIBCMT:new_array_nothrow.obj
 0001:0000bf5d       @__security_check_cookie@4 1000cf5d f   LIBCMT:secchk.obj
 0001:0000bf70       __SEH_prolog4_GS           1000cf70 f   LIBCMT:sehprolg4gs.obj
 0001:0000bfb7       __SEH_epilog4_GS           1000cfb7 f   LIBCMT:sehprolg4gs.obj
 0001:0000bfd0       __alloca_probe_16          1000cfd0 f   LIBCMT:alloca16.obj
 0001:0000bfe6       __alloca_probe_8           1000cfe6     LIBCMT:alloca16.obj
 0001:0000c000       __chkstk                   1000d000 f   LIBCMT:chkstk.obj
 0001:0000c000       __alloca_probe             1000d000 f   LIBCMT:chkstk.obj
 0001:0000c36d       __DllMainCRTStartup@12     1000d36d f   LIBCMT:dll_dllmain.obj
 0001:0000c390       ??2@YAPAXI@Z               1000d390 f   LIBCMT:new_scalar.obj
 0001:0000c3c0       ___isa_available_init      1000d3c0 f   LIBCMT:cpu_disp.obj
 0001:0000c590       ___scrt_is_ucrt_dll_in_use 1000d590 f   LIBCMT:ucrt_detection.obj
 0001:0000c59c       ___scrt_fastfail           1000d59c f   LIBCMT:utility_desktop.obj
 0001:0000c6b6       __crt_debugger_hook        1000d6b6 f   LIBCMT:utility_desktop.obj
 0001:0000c6c0       __SEH_prolog4              1000d6c0 f   LIBCMT:sehprolg4.obj
 0001:0000c704       __SEH_epilog4              1000d704 f   LIBCMT:sehprolg4.obj
 0001:0000c718       @_guard_check_icall_nop@4  1000d718 f i LIBCMT:guard_support.obj
 0001:0000c768       ___security_init_cookie    1000d768 f   LIBCMT:gs_support.obj
 0001:0000c7b3       ?__scrt_initialize_type_info@@YAXXZ 1000d7b3 f   LIBCMT:tncleanup.obj
 0001:0000c7bf       ?__scrt_uninitialize_type_info@@YAXXZ 1000d7bf f   LIBCMT:tncleanup.obj
 0001:0000c7cb       ___local_stdio_scanf_options 1000d7cb f i LIBCMT:default_local_stdio_options.obj
 0001:0000c7d1       ___scrt_initialize_default_local_stdio_options 1000d7d1 f   LIBCMT:default_local_stdio_options.obj
 0001:0000c7ee       ___scrt_get_dyn_tls_init_callback 1000d7ee f   LIBCMT:dyn_tls_init.obj
 0001:0000c7f4       __RTC_Initialize           1000d7f4 f   LIBCMT:initsect.obj
 0001:0000c820       __RTC_Terminate            1000d820 f   LIBCMT:initsect.obj
 0001:0000c84c       ??0bad_alloc@std@@QAE@ABV01@@Z 1000d84c f i LIBCMT:throw_bad_alloc.obj
 0001:0000c867       ??0bad_alloc@std@@QAE@XZ   1000d867 f i LIBCMT:throw_bad_alloc.obj
 0001:0000c87f       ??0bad_array_new_length@std@@QAE@ABV01@@Z 1000d87f f i LIBCMT:throw_bad_alloc.obj
 0001:0000c89a       ??0bad_array_new_length@std@@QAE@XZ 1000d89a f i LIBCMT:throw_bad_alloc.obj
 0001:0000c8b2       ??0exception@std@@QAE@ABV01@@Z 1000d8b2 f i LIBCMT:throw_bad_alloc.obj
 0001:0000c8de       ??1bad_alloc@std@@UAE@XZ   1000d8de f i LIBCMT:throw_bad_alloc.obj
 0001:0000c8de       ??1bad_array_new_length@std@@UAE@XZ 1000d8de f i LIBCMT:throw_bad_alloc.obj
 0001:0000c8de       ??1bad_exception@std@@UAE@XZ 1000d8de f i libvcruntime:frame.obj
 0001:0000c8ef       ??_Eexception@std@@UAEPAXI@Z 1000d8ef f i LIBCMT:throw_bad_alloc.obj
 0001:0000c8ef       ??_Ebad_alloc@std@@UAEPAXI@Z 1000d8ef f i LIBCMT:throw_bad_alloc.obj
 0001:0000c8ef       ??_Gbad_alloc@std@@UAEPAXI@Z 1000d8ef f i LIBCMT:throw_bad_alloc.obj
 0001:0000c8ef       ??_Ebad_exception@std@@UAEPAXI@Z 1000d8ef f i libvcruntime:frame.obj
 0001:0000c8ef       ??_Gexception@std@@UAEPAXI@Z 1000d8ef f i LIBCMT:throw_bad_alloc.obj
 0001:0000c8ef       ??_Gbad_exception@std@@UAEPAXI@Z 1000d8ef f i libvcruntime:frame.obj
 0001:0000c8ef       ??_Ebad_array_new_length@std@@UAEPAXI@Z 1000d8ef f i LIBCMT:throw_bad_alloc.obj
 0001:0000c8ef       ??_Gbad_array_new_length@std@@UAEPAXI@Z 1000d8ef f i LIBCMT:throw_bad_alloc.obj
 0001:0000c91c       ?__scrt_throw_std_bad_alloc@@YAXXZ 1000d91c f   LIBCMT:throw_bad_alloc.obj
 0001:0000c939       ?__scrt_throw_std_bad_array_new_length@@YAXXZ 1000d939 f   LIBCMT:throw_bad_alloc.obj
 0001:0000c956       ?what@exception@std@@UBEPBDXZ 1000d956 f i LIBCMT:throw_bad_alloc.obj
 0001:0000c963       ??_Etype_info@@UAEPAXI@Z   1000d963 f i LIBCMT:std_type_info_static.obj
 0001:0000c963       ??_Gtype_info@@UAEPAXI@Z   1000d963 f i LIBCMT:std_type_info_static.obj
 0001:0000c986       ??0CAtlBaseModule@ATL@@QAE@XZ 1000d986 f   atls:atlbase.obj
 0001:0000c9d9       ??0_ATL_BASE_MODULE70@ATL@@QAE@XZ 1000d9d9 f i atls:atlbase.obj
 0001:0000c9fc       ??1CAtlBaseModule@ATL@@QAE@XZ 1000d9fc f   atls:atlbase.obj
 0001:0000cae9       ?Init@_stdcallthunk@ATL@@QAEHKPAX@Z 1000dae9 f i atls:atlthunk.obj
 0001:0000cb1e       ?__AllocStdCallThunk_cmn@@YAPAXXZ 1000db1e f   atls:atlthunk.obj
 0001:0000cbe4       ?__FreeStdCallThunk_cmn@@YAXPAX@Z 1000dbe4 f   atls:atlthunk.obj
 0001:0000cc7f       _AtlThunk_AllocateData@0   1000dc7f f   atls:atlthunk.obj
 0001:0000cce4       _AtlThunk_DataToCode@4     1000dce4 f   atls:atlthunk.obj
 0001:0000cd2b       _AtlThunk_FreeData@4       1000dd2b f   atls:atlthunk.obj
 0001:0000cd81       _AtlThunk_InitData@12      1000dd81 f   atls:atlthunk.obj
 0001:0000cdd0       __get_purecall_handler     1000ddd0 f   libvcruntime:purevirt.obj
 0001:0000cdd6       __purecall                 1000ddd6 f   libvcruntime:purevirt.obj
 0001:0000cdf2       _wcsstr                    1000ddf2 f   libvcruntime:wcsstr.obj
 0001:0000d0a0       __except_handler4          1000e0a0 f   libvcruntime:chandler4.obj
 0001:0000d1fe       _memcmp                    1000e1fe f   libvcruntime:memcmp.obj
 0001:0000e110       _memcpy                    1000f110 f   libvcruntime:memcpy.obj
 0001:0000e690       _memset                    1000f690 f   libvcruntime:memset.obj
 0001:0000e7ea       ___vcrt_initialize         1000f7ea f   libvcruntime:initialization.obj
 0001:0000e809       ___vcrt_thread_attach      1000f809 f   libvcruntime:initialization.obj
 0001:0000e814       ___vcrt_thread_detach      1000f814 f   libvcruntime:initialization.obj
 0001:0000e81f       ___vcrt_uninitialize       1000f81f f   libvcruntime:initialization.obj
 0001:0000e836       ___vcrt_uninitialize_critical 1000f836 f   libvcruntime:initialization.obj
 0001:0000e83e       ?GetRangeOfTrysToCheck@__FrameHandler3@@SA?AU?$pair@Viterator@TryBlockMap@__FrameHandler3@@V123@@std@@AAVTryBlockMap@1@HPAXPBU_s_FuncInfo@@H@Z 1000f83e f   libvcruntime:trnsctrl.obj
 0001:0000e8ae       ?_CallCatchBlock2@@YAPAXPAUEHRegistrationNode@@PBU_s_FuncInfo@@PAXHK@Z 1000f8ae f   libvcruntime:trnsctrl.obj
 0001:0000e90c       ?_CallSETranslator@@YAHPAUEHExceptionRecord@@PAUEHRegistrationNode@@PAX2PBU_s_FuncInfo@@H1@Z 1000f90c f   libvcruntime:trnsctrl.obj
 0001:0000e9f2       ?_JumpToContinuation@@YGXPAXPAUEHRegistrationNode@@@Z 1000f9f2 f   libvcruntime:trnsctrl.obj
 0001:0000ea22       ?_UnwindNestedFrames@@YGXPAUEHRegistrationNode@@PAUEHExceptionRecord@@@Z 1000fa22 f   libvcruntime:trnsctrl.obj
 0001:0000ea75       __CatchGuardHandler        1000fa75 f   libvcruntime:trnsctrl.obj
 0001:0000eaa6       __CreateFrameInfo          1000faa6 f   libvcruntime:trnsctrl.obj
 0001:0000eaca       __FindAndUnlinkFrame       1000faca f   libvcruntime:trnsctrl.obj
 0001:0000eb12       __TranslatorGuardHandler   1000fb12 f   libvcruntime:trnsctrl.obj
 0001:0000ebaf       ___CxxFrameHandler3        1000fbaf f   libvcruntime:trnsctrl.obj
 0001:0000ebe5       ___DestructExceptionObject 1000fbe5 f   libvcruntime:ehhelpers.obj
 0001:0000ec86       ?_CallMemberFunction0@@YGXQAX0@Z 1000fc86 f i libvcruntime:ehhelpers.obj
 0001:0000eceb       __IsExceptionObjectToBeDestroyed 1000fceb f   libvcruntime:ehhelpers.obj
 0001:0000ed11       ___AdjustPointer           1000fd11 f   libvcruntime:ehhelpers.obj
 0001:0000ed36       ___FrameUnwindFilter       1000fd36 f   libvcruntime:ehhelpers.obj
 0001:0000ed8c       ___std_type_info_compare   1000fd8c f   libvcruntime:std_type_info.obj
 0001:0000edc8       ___std_type_info_destroy_list 1000fdc8 f   libvcruntime:std_type_info.obj
 0001:0000edeb       ___std_exception_copy      1000fdeb f   libvcruntime:std_exception.obj
 0001:0000ee4e       ___std_exception_destroy   1000fe4e f   libvcruntime:std_exception.obj
 0001:0000ee6d       __CxxThrowException@8      1000fe6d f   libvcruntime:throw.obj
 0001:0000eee0       _memmove                   1000fee0 f   libvcruntime:memmove.obj
 0001:0000f460       __local_unwind4            10010460 f   libvcruntime:exsup4.obj
 0001:0000f534       __seh_longjmp_unwind4@4    10010534 f   libvcruntime:exsup4.obj
 0001:0000f55c       @_EH4_CallFilterFunc@8     1001055c f   libvcruntime:exsup4.obj
 0001:0000f574       @_EH4_TransferToHandler@8  10010574 f   libvcruntime:exsup4.obj
 0001:0000f590       @_EH4_GlobalUnwind2@8      10010590 f   libvcruntime:exsup4.obj
 0001:0000f5ac       @_EH4_LocalUnwind@16       100105ac f   libvcruntime:exsup4.obj
 0001:0000f5c3       ___except_validate_context_record 100105c3 f   libvcruntime:jbcxrval.obj
 0001:0000f5f3       ___except_validate_jump_buffer 100105f3 f   libvcruntime:jbcxrval.obj
 0001:0000f620       ___vcrt_freefls@4          10010620 f   libvcruntime:per_thread_data.obj
 0001:0000f63c       ___vcrt_freeptd            1001063c f   libvcruntime:per_thread_data.obj
 0001:0000f672       ___vcrt_getptd             10010672 f   libvcruntime:per_thread_data.obj
 0001:0000f680       ___vcrt_getptd_noexit      10010680 f   libvcruntime:per_thread_data.obj
 0001:0000f712       ___vcrt_initialize_ptd     10010712 f   libvcruntime:per_thread_data.obj
 0001:0000f745       ___vcrt_uninitialize_ptd   10010745 f   libvcruntime:per_thread_data.obj
 0001:0000f760       ___vcrt_initialize_locks   10010760 f   libvcruntime:locks.obj
 0001:0000f79c       ___vcrt_uninitialize_locks 1001079c f   libvcruntime:locks.obj
 0001:0000ff0e       ??$TypeMatchHelper@V__FrameHandler3@@@@YAHPBU_s_HandlerType@@PBU_s_CatchableType@@PBU_s_ThrowInfo@@@Z 10010f0e f i libvcruntime:frame.obj
 0001:0000ff9c       ??$__InternalCxxFrameHandler@V__FrameHandler3@@@@YA?AW4_EXCEPTION_DISPOSITION@@PAUEHExceptionRecord@@PAUEHRegistrationNode@@PAU_CONTEXT@@PAXPBU_s_FuncInfo@@H1E@Z 10010f9c f i libvcruntime:frame.obj
 0001:0001009e       ??0bad_exception@std@@QAE@ABV01@@Z 1001109e f i libvcruntime:frame.obj
 0001:000100b9       ??0bad_exception@std@@QAE@XZ 100110b9 f i libvcruntime:frame.obj
 0001:000100d1       ??8type_info@@QBE_NABV0@@Z 100110d1 f i libvcruntime:frame.obj
 0001:0001033d       ?FrameUnwindToEmptyState@__FrameHandler3@@SAXPAUEHRegistrationNode@@PAXPBU_s_FuncInfo@@@Z 1001133d f   libvcruntime:frame.obj
 0001:00010355       ?FrameUnwindToState@__FrameHandler3@@SAXPAUEHRegistrationNode@@PAXPBU_s_FuncInfo@@H@Z 10011355 f   libvcruntime:frame.obj
 0001:000104d7       ?_CallMemberFunction1@@YGXQAX00@Z 100114d7 f i libvcruntime:frame.obj
 0001:000104e7       ?_CallMemberFunction2@@YGXQAX00H@Z 100114e7 f i libvcruntime:frame.obj
 0001:000104fa       ?getESTypes@__FrameHandler3@@SAPBU_s_ESTypeList@@PBU_s_FuncInfo@@@Z 100114fa f i libvcruntime:frame.obj
 0001:00010510       __CallSettingFrame@12      10011510 f   libvcruntime:lowhelpr.obj
 0001:00010537       __NLG_Return               10011537     libvcruntime:lowhelpr.obj
 0001:00010560       __global_unwind2           10011560 f   libvcruntime:exsup.obj
 0001:000105c6       __local_unwind2            100115c6 f   libvcruntime:exsup.obj
 0001:0001064a       __abnormal_termination     1001164a f   libvcruntime:exsup.obj
 0001:00010670       __NLG_Notify1              10011670 f   libvcruntime:exsup.obj
 0001:0001067c       __NLG_Notify               1001167c f   libvcruntime:exsup.obj
 0001:00010693       __NLG_Dispatch             10011693     libvcruntime:exsup.obj
 0001:00010693       __NLG_Dispatch2            10011693     libvcruntime:exsup.obj
 0001:0001069b       __NLG_Call                 1001169b f   libvcruntime:exsup.obj
 0001:0001069d       __NLG_Return2              1001169d     libvcruntime:exsup.obj
 0001:00010781       ___vcrt_FlsAlloc           10011781 f   libvcruntime:winapi_downlevel.obj
 0001:000107bc       ___vcrt_FlsFree            100117bc f   libvcruntime:winapi_downlevel.obj
 0001:000107f7       ___vcrt_FlsGetValue        100117f7 f   libvcruntime:winapi_downlevel.obj
 0001:00010832       ___vcrt_FlsSetValue        10011832 f   libvcruntime:winapi_downlevel.obj
 0001:00010870       ___vcrt_InitializeCriticalSectionEx 10011870 f   libvcruntime:winapi_downlevel.obj
 0001:000108b7       _unexpected                100118b7 f   libvcruntime:unexpected.obj
 0001:000108d4       ?GetCurrentState@__FrameHandler3@@SAHPAUEHRegistrationNode@@PAXPBU_s_FuncInfo@@@Z 100118d4 f   libvcruntime:ehstate.obj
 0001:000108f1       ?SetState@__FrameHandler3@@SAXPAUEHRegistrationNode@@PBU_s_FuncInfo@@H@Z 100118f1 f   libvcruntime:ehstate.obj
 0001:000108ff       _free                      100118ff f   libucrt:free.obj
 0001:0001091a       ___acrt_call_reportfault   1001191a f   libucrt:invalid_parameter.obj
 0001:00010a53       ___acrt_initialize_invalid_parameter_handler 10011a53 f   libucrt:invalid_parameter.obj
 0001:00010a62       __invalid_parameter        10011a62 f   libucrt:invalid_parameter.obj
 0001:00010ac6       __invalid_parameter_noinfo 10011ac6 f   libucrt:invalid_parameter.obj
 0001:00010ad6       __invoke_watson            10011ad6 f   libucrt:invalid_parameter.obj
 0001:00010b0a       ___acrt_errno_from_os_error 10011b0a f   libucrt:errno.obj
 0001:00010b4d       ___acrt_errno_map_os_error 10011b4d f   libucrt:errno.obj
 0001:00010b70       ___doserrno                10011b70 f   libucrt:errno.obj
 0001:00010b83       __errno                    10011b83 f   libucrt:errno.obj
 0001:00010b96       _calloc                    10011b96 f   libucrt:calloc.obj
 0001:00010ba1       _malloc                    10011ba1 f   libucrt:malloc.obj
 0001:00010bac       __recalloc                 10011bac f   libucrt:recalloc.obj
 0001:00010bb7       __recalloc_base            10011bb7 f   libucrt:recalloc.obj
 0001:00010c24       __resetstkoflw             10011c24 f   libucrt:resetstk.obj
 0001:00010ce9       _wcscat_s                  10011ce9 f   libucrt:wcscat_s.obj
 0001:00010d5e       _wcscpy_s                  10011d5e f   libucrt:wcscpy_s.obj
 0001:00010e8d       _wcsncpy_s                 10011e8d f   libucrt:wcsncpy_s.obj
 0001:00011099       ??$count@D@formatting_buffer@__crt_stdio_output@@QBEIXZ 10012099 f i libucrt:output.obj
 0001:000110b1       ??$count@_W@formatting_buffer@__crt_stdio_output@@QBEIXZ 100120b1 f i libucrt:output.obj
 0001:000110ca       ??$ensure_buffer_is_big_enough@D@formatting_buffer@__crt_stdio_output@@QAE_NI@Z 100120ca f i libucrt:output.obj
 0001:00011147       ??$ensure_buffer_is_big_enough@_W@formatting_buffer@__crt_stdio_output@@QAE_NI@Z 10012147 f i libucrt:output.obj
 0001:000111c5       ??$is_wide_character_specifier@_W@__crt_stdio_output@@YA_N_K_WW4length_modifier@0@@Z 100121c5 f i libucrt:output.obj
 0001:00011213       ??$scratch_data@D@formatting_buffer@__crt_stdio_output@@QAEPADXZ 10012213 f i libucrt:output.obj
 0001:00011231       ??$type_case_integer_parse_into_buffer@I@?$output_processor@_WV?$string_output_adapter@_W@__crt_stdio_output@@V?$format_validation_base@_WV?$string_output_adapter@_W@__crt_stdio_output@@@2@@__crt_stdio_output@@AAEXII_N@Z 10012231 f i libucrt:output.obj
 0001:000112b8       ??$type_case_integer_parse_into_buffer@_K@?$output_processor@_WV?$string_output_adapter@_W@__crt_stdio_output@@V?$format_validation_base@_WV?$string_output_adapter@_W@__crt_stdio_output@@@2@@__crt_stdio_output@@AAEX_KI_N@Z 100122b8 f i libucrt:output.obj
 0001:0001135a       ??$write_multiple_characters@V?$string_output_adapter@_W@__crt_stdio_output@@D@__crt_stdio_output@@YAXABV?$string_output_adapter@_W@0@DHQAH@Z 1001235a f i libucrt:output.obj
 0001:0001138b       ??0?$common_data@_W@__crt_stdio_output@@IAE@XZ 1001238b f i libucrt:output.obj
 0001:000113d5       ??0?$output_adapter_data@_WV?$string_output_adapter@_W@__crt_stdio_output@@@__crt_stdio_output@@IAE@ABV?$string_output_adapter@_W@1@_KQB_WQAU__crt_locale_pointers@@QAD@Z 100123d5 f i libucrt:output.obj
 0001:00011411       ??0_LocaleUpdate@@QAE@QAU__crt_locale_pointers@@@Z 10012411 f i libucrt:output.obj
 0001:00011494       ??1formatting_buffer@__crt_stdio_output@@QAE@XZ 10012494 f i libucrt:output.obj
 0001:000114ae       ??4?$__crt_unique_heap_ptr@DU__crt_internal_free_policy@@@@QAEAAV0@$$QAV0@@Z 100124ae f i libucrt:output.obj
 0001:000114e0       ?crop_zeroes@__crt_stdio_output@@YAXPADQAU__crt_locale_pointers@@@Z 100124e0 f i libucrt:output.obj
 0001:00011561       ?find_next_state@?$output_processor@_WV?$string_output_adapter@_W@__crt_stdio_output@@V?$format_validation_base@_WV?$string_output_adapter@_W@__crt_stdio_output@@@2@@__crt_stdio_output@@ABE?AW4state@2@_WW432@@Z 10012561 f i libucrt:output.obj
 0001:000115a0       ?force_decimal_point@__crt_stdio_output@@YAXPADQAU__crt_locale_pointers@@@Z 100125a0 f i libucrt:output.obj
 0001:00011605       ?parse_int_from_format_string@?$output_processor@_WV?$string_output_adapter@_W@__crt_stdio_output@@V?$format_validation_base@_WV?$string_output_adapter@_W@__crt_stdio_output@@@2@@__crt_stdio_output@@AAE_NQAH@Z 10012605 f i libucrt:output.obj
 0001:0001167b       ?process@?$output_processor@_WV?$string_output_adapter@_W@__crt_stdio_output@@V?$format_validation_base@_WV?$string_output_adapter@_W@__crt_stdio_output@@@2@@__crt_stdio_output@@QAEHXZ 1001267b f i libucrt:output.obj
 0001:000117a3       ?state_case_flag@?$output_processor@_WV?$string_output_adapter@_W@__crt_stdio_output@@V?$format_validation_base@_WV?$string_output_adapter@_W@__crt_stdio_output@@@2@@__crt_stdio_output@@AAE_NXZ 100127a3 f i libucrt:output.obj
 0001:000117e0       ?state_case_normal@?$output_processor@_WV?$string_output_adapter@_W@__crt_stdio_output@@V?$format_validation_base@_WV?$string_output_adapter@_W@__crt_stdio_output@@@2@@__crt_stdio_output@@AAE_NXZ 100127e0 f i libucrt:output.obj
 0001:000117ff       ?state_case_normal_common@?$output_processor@_WV?$string_output_adapter@_W@__crt_stdio_output@@V?$format_validation_base@_WV?$string_output_adapter@_W@__crt_stdio_output@@@2@@__crt_stdio_output@@AAE_NXZ 100127ff f i libucrt:output.obj
 0001:0001181a       ?state_case_precision@?$output_processor@_WV?$string_output_adapter@_W@__crt_stdio_output@@V?$format_validation_base@_WV?$string_output_adapter@_W@__crt_stdio_output@@@2@@__crt_stdio_output@@AAE_NXZ 1001281a f i libucrt:output.obj
 0001:00011841       ?state_case_size@?$output_processor@_WV?$string_output_adapter@_W@__crt_stdio_output@@V?$format_validation_base@_WV?$string_output_adapter@_W@__crt_stdio_output@@@2@@__crt_stdio_output@@AAE_NXZ 10012841 f i libucrt:output.obj
 0001:000119b9       ?state_case_type@?$output_processor@_WV?$string_output_adapter@_W@__crt_stdio_output@@V?$format_validation_base@_WV?$string_output_adapter@_W@__crt_stdio_output@@@2@@__crt_stdio_output@@AAE_NXZ 100129b9 f i libucrt:output.obj
 0001:00011c16       ?state_case_width@?$output_processor@_WV?$string_output_adapter@_W@__crt_stdio_output@@V?$format_validation_base@_WV?$string_output_adapter@_W@__crt_stdio_output@@@2@@__crt_stdio_output@@AAE_NXZ 10012c16 f i libucrt:output.obj
 0001:00011c50       ?to_integer_size@__crt_stdio_output@@YAIW4length_modifier@1@@Z 10012c50 f i libucrt:output.obj
 0001:00011cac       ?type_case_Z@?$output_processor@_WV?$string_output_adapter@_W@__crt_stdio_output@@V?$format_validation_base@_WV?$string_output_adapter@_W@__crt_stdio_output@@@2@@__crt_stdio_output@@AAE_NXZ 10012cac f i libucrt:output.obj
 0001:00011d06       ?type_case_a@?$output_processor@_WV?$string_output_adapter@_W@__crt_stdio_output@@V?$format_validation_base@_WV?$string_output_adapter@_W@__crt_stdio_output@@@2@@__crt_stdio_output@@AAE_NXZ 10012d06 f i libucrt:output.obj
 0001:00011e6d       ?type_case_c_tchar@?$output_processor@_WV?$string_output_adapter@_W@__crt_stdio_output@@V?$format_validation_base@_WV?$string_output_adapter@_W@__crt_stdio_output@@@2@@__crt_stdio_output@@AAE_N_W@Z 10012e6d f i libucrt:output.obj
 0001:00011f03       ?type_case_integer@?$output_processor@_WV?$string_output_adapter@_W@__crt_stdio_output@@V?$format_validation_base@_WV?$string_output_adapter@_W@__crt_stdio_output@@@2@@__crt_stdio_output@@AAE_NI_N@Z 10012f03 f i libucrt:output.obj
 0001:00012058       ?type_case_n@?$output_processor@_WV?$string_output_adapter@_W@__crt_stdio_output@@V?$format_validation_base@_WV?$string_output_adapter@_W@__crt_stdio_output@@@2@@__crt_stdio_output@@AAE_NXZ 10013058 f i libucrt:output.obj
 0001:000120cc       ?type_case_o@?$output_processor@_WV?$string_output_adapter@_W@__crt_stdio_output@@V?$format_validation_base@_WV?$string_output_adapter@_W@__crt_stdio_output@@@2@@__crt_stdio_output@@AAE_NXZ 100130cc f i libucrt:output.obj
 0001:000120eb       ?type_case_p@?$output_processor@_WV?$string_output_adapter@_W@__crt_stdio_output@@V?$format_validation_base@_WV?$string_output_adapter@_W@__crt_stdio_output@@@2@@__crt_stdio_output@@AAE_NXZ 100130eb f i libucrt:output.obj
 0001:00012103       ?type_case_s@?$output_processor@_WV?$string_output_adapter@_W@__crt_stdio_output@@V?$format_validation_base@_WV?$string_output_adapter@_W@__crt_stdio_output@@@2@@__crt_stdio_output@@AAE_NXZ 10013103 f i libucrt:output.obj
 0001:00012176       ?type_case_s_compute_narrow_string_length@?$output_processor@_WV?$string_output_adapter@_W@__crt_stdio_output@@V?$format_validation_base@_WV?$string_output_adapter@_W@__crt_stdio_output@@@2@@__crt_stdio_output@@ABEHH_W@Z 10013176 f i libucrt:output.obj
 0001:000121bd       ?validate@?$string_output_adapter@_W@__crt_stdio_output@@QBE_NXZ 100131bd f i libucrt:output.obj
 0001:000121bd       ?validate@?$c_string_character_source@_W@__crt_strtox@@QBE_NXZ 100131bd f i libucrt:atox.obj
 0001:000121d8       ?validate_and_update_state_at_end_of_format_string@?$format_validation_base@_WV?$string_output_adapter@_W@__crt_stdio_output@@@__crt_stdio_output@@IBE_NXZ 100131d8 f i libucrt:output.obj
 0001:000121fa       ?write_character@?$string_output_adapter@_W@__crt_stdio_output@@QBE_N_WQAH@Z 100131fa f i libucrt:output.obj
 0001:0001223f       ?write_stored_string_tchar@?$output_processor@_WV?$string_output_adapter@_W@__crt_stdio_output@@V?$format_validation_base@_WV?$string_output_adapter@_W@__crt_stdio_output@@@2@@__crt_stdio_output@@AAE_N_W@Z 1001323f f i libucrt:output.obj
 0001:000122cc       ?write_string@?$string_output_adapter@_W@__crt_stdio_output@@QBEXQB_WHQAHAAV__crt_deferred_errno_cache@@@Z 100132cc f i libucrt:output.obj
 0001:0001233d       ___acrt_locale_get_ctype_array_value 1001333d f i libucrt:output.obj
 0001:0001235f       ___stdio_common_vswprintf_s 1001335f f   libucrt:output.obj
 0001:00012383       __seh_filter_dll           10013383 f   libucrt:exception_filter.obj
 0001:000123a3       __seh_filter_exe           100133a3 f   libucrt:exception_filter.obj
 0001:00012771       ___acrt_initialize_thread_local_exit_callback 10013771 f   libucrt:exit.obj
 0001:00012780       __cexit                    10013780 f   libucrt:exit.obj
 0001:0001278f       __exit                     1001378f f   libucrt:exit.obj
 0001:000127a5       __is_c_termination_complete 100137a5 f   libucrt:exit.obj
 0001:00012a56       ___acrt_allocate_buffer_for_argv 10013a56 f   libucrt:argv_parsing.obj
 0001:00012aa5       __configure_narrow_argv    10013aa5 f   libucrt:argv_parsing.obj
 0001:00012c02       ??$uninitialize@A6AXAAPAPAD@Z@?$dual_state_global@PAPAD@__crt_state_management@@QAEXA6AXAAPAPAD@Z@Z 10013c02 f i libucrt:environment_initialization.obj
 0001:00012c02       ??$uninitialize@A6AXAAPAPA_W@Z@?$dual_state_global@PAPA_W@__crt_state_management@@QAEXA6AXAAPAPA_W@Z@Z 10013c02 f i libucrt:environment_initialization.obj
 0001:00012c61       ___dcrt_uninitialize_environments_nolock 10013c61 f   libucrt:environment_initialization.obj
 0001:00012c98       __initialize_narrow_environment 10013c98 f   libucrt:environment_initialization.obj
 0001:00012d53       ??$__crt_fast_encode_pointer@P6AHXZ@@YAP6AHXZQ6AHXZ@Z 10013d53 f i libucrt:onexit.obj
 0001:00012d53       ??$__crt_fast_encode_pointer@PAP6AXXZ@@YAPAP6AXXZQAP6AXXZ@Z 10013d53 f i libucrt:onexit.obj
 0001:00012d53       ??$__crt_fast_encode_pointer@PAX@@YAPAXQAX@Z 10013d53 f i libucrt:initialization.obj
 0001:00012f75       __crt_atexit               10013f75 f   libucrt:onexit.obj
 0001:00012f8b       __execute_onexit_table     10013f8b f   libucrt:onexit.obj
 0001:00012fb8       __initialize_onexit_table  10013fb8 f   libucrt:onexit.obj
 0001:00012fe1       __register_onexit_function 10013fe1 f   libucrt:onexit.obj
 0001:0001303b       ___acrt_uninitialize_command_line 1001403b f   libucrt:argv_data.obj
 0001:00013112       ___acrt_initialize         10014112 f   libucrt:initialization.obj
 0001:00013124       ___acrt_thread_attach      10014124 f   libucrt:initialization.obj
 0001:0001312f       ___acrt_thread_detach      1001412f f   libucrt:initialization.obj
 0001:00013137       ___acrt_uninitialize       10014137 f   libucrt:initialization.obj
 0001:00013167       ___acrt_uninitialize_critical 10014167 f   libucrt:initialization.obj
 0001:00013179       __initterm                 10014179 f   libucrt:initterm.obj
 0001:000131be       __initterm_e               100141be f   libucrt:initterm.obj
 0001:000131ec       ___acrt_initialize_new_handler 100141ec f   libucrt:new_handler.obj
 0001:000131fb       __callnewh                 100141fb f   libucrt:new_handler.obj
 0001:00013228       __query_new_handler        10014228 f   libucrt:new_handler.obj
 0001:00013284       _terminate                 10014284 f   libucrt:terminate.obj
 0001:000132c0       _abort                     100142c0 f   libucrt:abort.obj
 0001:00013304       _strcpy_s                  10014304 f   libucrt:strcpy_s.obj
 0001:0001335e       ??$is_overflow_condition@K@__crt_strtox@@YA_NIK@Z 1001435e f i libucrt:atox.obj
 0001:0001338f       ??$parse_integer@KV?$c_string_character_source@_W@__crt_strtox@@@__crt_strtox@@YAKQAU__crt_locale_pointers@@V?$c_string_character_source@_W@0@H_N@Z 1001438f f i libucrt:atox.obj
 0001:00013997       ?unget@?$c_string_character_source@_W@__crt_strtox@@QAEX_W@Z 10014997 f i libucrt:atox.obj
 0001:000139d0       _strncmp                   100149d0 f   libucrt:strncmp.obj
 0001:00013a48       _wcsncmp                   10014a48 f   libucrt:wcsncmp.obj
 0001:00013a82       __free_base                10014a82 f   libucrt:free_base.obj
 0001:00013dfa       ___acrt_freeptd            10014dfa f   libucrt:per_thread_data.obj
 0001:00013e26       ___acrt_getptd             10014e26 f   libucrt:per_thread_data.obj
 0001:00013ee3       ___acrt_getptd_head        10014ee3 f   libucrt:per_thread_data.obj
 0001:00013f7d       ___acrt_getptd_noexit      10014f7d f   libucrt:per_thread_data.obj
 0001:00014032       ___acrt_initialize_ptd     10015032 f   libucrt:per_thread_data.obj
 0001:0001405e       ___acrt_uninitialize_ptd   1001505e f   libucrt:per_thread_data.obj
 0001:00014078       __calloc_base              10015078 f   libucrt:calloc_base.obj
 0001:000140d5       __malloc_base              100150d5 f   libucrt:malloc_base.obj
 0001:00014123       __msize_base               10015123 f   libucrt:msize.obj
 0001:00014156       __realloc_base             10015156 f   libucrt:realloc_base.obj
 0001:00014357       ___acrt_AppPolicyGetProcessTerminationMethodInternal@4 10015357 f   libucrt:winapi_thunks.obj
 0001:00014397       ___acrt_AreFileApisANSI@0  10015397 f   libucrt:winapi_thunks.obj
 0001:000143b6       ___acrt_FlsAlloc@4         100153b6 f   libucrt:winapi_thunks.obj
 0001:000143f5       ___acrt_FlsFree@4          100153f5 f   libucrt:winapi_thunks.obj
 0001:00014434       ___acrt_FlsGetValue@4      10015434 f   libucrt:winapi_thunks.obj
 0001:00014473       ___acrt_FlsSetValue@8      10015473 f   libucrt:winapi_thunks.obj
 0001:000144b5       ___acrt_InitializeCriticalSectionEx@12 100154b5 f   libucrt:winapi_thunks.obj
 0001:00014500       ___acrt_LCMapStringEx@36   10015500 f   libucrt:winapi_thunks.obj
 0001:0001455d       ___acrt_LocaleNameToLCID@8 1001555d f   libucrt:winapi_thunks.obj
 0001:0001458e       ___acrt_SetThreadStackGuarantee@4 1001558e f   libucrt:winapi_thunks.obj
 0001:000145c9       ___acrt_initialize_winapi_thunks 100155c9 f   libucrt:winapi_thunks.obj
 0001:000145f4       ___acrt_uninitialize_winapi_thunks 100155f4 f   libucrt:winapi_thunks.obj
 0001:0001462a       ??$make_c_string_character_source@_WPAPA_W@__crt_strtox@@YA?AV?$c_string_character_source@_W@0@QB_WQAPA_W@Z 1001562a f i libucrt:strtox.obj
 0001:00014645       _wcstol                    10015645 f   libucrt:strtox.obj
 0001:0001466f       __mbtowc_l                 1001566f f   libucrt:mbtowc.obj
 0001:000147b1       _mbtowc                    100157b1 f   libucrt:mbtowc.obj
 0001:000147cb       _wcsnlen                   100157cb f   libucrt:strnlen.obj
 0001:0001497b       ___acrt_update_locale_info 1001597b f   libucrt:locale_update.obj
 0001:000149a8       ___acrt_update_multibyte_info 100159a8 f   libucrt:locale_update.obj
 0001:000149d5       ?__acrt_fp_classify@@YA?AW4__acrt_fp_class@@ABN@Z 100159d5 f i libucrt:cvt.obj
 0001:00015387       ___acrt_fp_format          10016387 f   libucrt:cvt.obj
 0001:000154e5       __fileno                   100164e5 f   libucrt:fileno.obj
 0001:0001550c       ___acrt_initialize_stdio   1001650c f   libucrt:_file.obj
 0001:000155d4       ___acrt_uninitialize_stdio 100165d4 f   libucrt:_file.obj
 0001:00015620       __lock_file                10016620 f   libucrt:_file.obj
 0001:00015634       __unlock_file              10016634 f   libucrt:_file.obj
 0001:00015648       __get_printf_count_output  10016648 f   libucrt:printf_count_output.obj
 0001:000156cb       ___acrt_set_locale_changed 100166cb f   libucrt:wsetlocale.obj
 0001:000156d6       ___acrt_uninitialize_locale 100166d6 f   libucrt:wsetlocale.obj
 0001:00015867       ___acrt_initialize_lowio   10016867 f   libucrt:ioinit.obj
 0001:000158c7       ___acrt_uninitialize_lowio 100168c7 f   libucrt:ioinit.obj
 0001:000158f3       ___acrt_initialize_locks   100168f3 f   libucrt:locks.obj
 0001:00015934       ___acrt_lock               10016934 f   libucrt:locks.obj
 0001:0001594b       ___acrt_uninitialize_locks 1001694b f   libucrt:locks.obj
 0001:0001597c       ___acrt_unlock             1001697c f   libucrt:locks.obj
 0001:00015993       ___acrt_get_process_end_policy 10016993 f   libucrt:win_policies.obj
 0001:00015b5d       ??$__acrt_mbs_to_wcs_cp@U__crt_win32_buffer_internal_dynamic_resizing@@@@YAHQBDAAV?$__crt_win32_buffer@_WU__crt_win32_buffer_internal_dynamic_resizing@@@@I@Z 10016b5d f i libucrt:argv_wildcards.obj
 0001:00016071       ?__acrt_get_utf8_acp_compatibility_codepage@@YAIXZ 10017071 f i libucrt:argv_wildcards.obj
 0001:000160b0       ?_deallocate@?$__crt_win32_buffer@DU__crt_win32_buffer_internal_dynamic_resizing@@@@AAEXXZ 100170b0 f i libucrt:argv_wildcards.obj
 0001:000160b0       ?_deallocate@?$__crt_win32_buffer@_WU__crt_win32_buffer_internal_dynamic_resizing@@@@AAEXXZ 100170b0 f i libucrt:argv_wildcards.obj
 0001:000160ca       ?allocate@?$__crt_win32_buffer@DU__crt_win32_buffer_internal_dynamic_resizing@@@@QAEHI@Z 100170ca f i libucrt:argv_wildcards.obj
 0001:00016106       ?allocate@?$__crt_win32_buffer@_WU__crt_win32_buffer_internal_dynamic_resizing@@@@QAEHI@Z 10017106 f i libucrt:argv_wildcards.obj
 0001:00016145       ?allocate@__crt_win32_buffer_internal_dynamic_resizing@@SAHQAPAXIABV__crt_win32_buffer_empty_debug_info@@@Z 10017145 f i libucrt:argv_wildcards.obj
 0001:000161eb       ___acrt_expand_narrow_argv_wildcards 100171eb f   libucrt:argv_wildcards.obj
 0001:000162bd       ?allocate@?$__crt_win32_buffer@DU__crt_win32_buffer_no_resizing@@@@QAEHI@Z 100172bd f i libucrt:getmodulefilenamea.obj
 0001:000162e4       ?set_to_nullptr@?$__crt_win32_buffer@DU__crt_win32_buffer_no_resizing@@@@QAEXXZ 100172e4 f i libucrt:getmodulefilenamea.obj
 0001:000162f8       ___acrt_GetModuleFileNameA 100172f8 f   libucrt:getmodulefilenamea.obj
 0001:000168b1       ___acrt_initialize_multibyte 100178b1 f   libucrt:mbctype.obj
 0001:000168f9       ___acrt_update_thread_multibyte_data 100178f9 f   libucrt:mbctype.obj
 0001:0001690c       __setmbcp_nolock           1001790c f   libucrt:mbctype.obj
 0001:00016bd7       __ismbblead                10017bd7 f   libucrt:ismbbyte.obj
 0001:00016bef       ___acrt_initialize_command_line 10017bef f   libucrt:argv_data.obj
 0001:00016c08       ___acrt_MultiByteToWideChar 10017c08 f   libucrt:multibytetowidechar.obj
 0001:00016c84       ___acrt_WideCharToMultiByte 10017c84 f   libucrt:widechartomultibyte.obj
 0001:00016d72       ___dcrt_get_narrow_environment_from_os 10017d72 f   libucrt:get_environment_from_os.obj
 0001:00016df6       ___acrt_initialize_heap    10017df6 f   libucrt:heap_handle.obj
 0001:00016e07       ___acrt_uninitialize_heap  10017e07 f   libucrt:heap_handle.obj
 0001:00016e11       ___acrt_execute_initializers 10017e11 f   libucrt:shared_initialization.obj
 0001:00016e79       ___acrt_execute_uninitializers 10017e79 f   libucrt:shared_initialization.obj
 0001:00016f78       ___acrt_get_sigabrt_handler 10017f78 f   libucrt:signal.obj
 0001:00016f9f       ___acrt_initialize_signal_handlers 10017f9f f   libucrt:signal.obj
 0001:00016fbd       _raise                     10017fbd f   libucrt:signal.obj
 0001:000171b0       ___acrt_has_user_matherr   100181b0 f   libucrt:matherr.obj
 0001:000171c8       ___acrt_initialize_user_matherr 100181c8 f   libucrt:matherr.obj
 0001:000171d7       ___acrt_invoke_user_matherr 100181d7 f   libucrt:matherr.obj
 0001:000173e6       ___acrt_stdio_flush_nolock 100183e6 f   libucrt:fflush.obj
 0001:0001744b       __fflush_nolock            1001844b f   libucrt:fflush.obj
 0001:00017493       __flushall                 10018493 f   libucrt:fflush.obj
 0001:0001749c       ___pctype_func             1001849c f   libucrt:ctype.obj
 0001:000174c0       _iswctype                  100184c0 f   libucrt:iswctype.obj
 0001:00017529       ___acrt_add_locale_ref     10018529 f   libucrt:locale_refcounting.obj
 0001:000175a6       ___acrt_free_locale        100185a6 f   libucrt:locale_refcounting.obj
 0001:000176ee       ___acrt_locale_add_lc_time_reference 100186ee f   libucrt:locale_refcounting.obj
 0001:00017717       ___acrt_locale_free_lc_time_if_unreferenced 10018717 f   libucrt:locale_refcounting.obj
 0001:00017748       ___acrt_locale_release_lc_time_reference 10018748 f   libucrt:locale_refcounting.obj
 0001:00017771       ___acrt_release_locale_ref 10018771 f   libucrt:locale_refcounting.obj
 0001:000177f2       ___acrt_update_thread_locale_data 100187f2 f   libucrt:locale_refcounting.obj
 0001:00017873       __updatetlocinfoEx_nolock  10018873 f   libucrt:locale_refcounting.obj
 0001:000178c3       __query_new_mode           100188c3 f   libucrt:new_mode.obj
 0001:0001791a       ___acrt_DownlevelLocaleNameToLCID 1001891a f   libucrt:lcidtoname_downlevel.obj
 0001:00017946       __isleadbyte_l             10018946 f i libucrt:_wctype.obj
 0001:000179ac       ?__mbrtowc_utf8@__crt_mbstring@@YAIPA_WPBDIPAU_Mbstatet@@@Z 100189ac f   libucrt:mbrtowc.obj
 0001:000179ec       ?__mbsrtowcs_utf8@__crt_mbstring@@YAIPA_WPAPBDIPAU_Mbstatet@@@Z 100189ec f   libucrt:mbrtowc.obj
 0001:00017ae7       ?return_illegal_sequence@__crt_mbstring@@YAIPAU_Mbstatet@@@Z 10018ae7 f i libucrt:c32rtomb.obj
 0001:00017b71       ___acrt_fp_strflt_to_string 10018b71 f   libucrt:_fptostr.obj
 0001:00017c50       ?divide@__crt_strtox@@YA_KAAUbig_integer@1@ABU21@@Z 10018c50 f i libucrt:cfout.obj
 0001:000180e8       ___acrt_fltout             100190e8 f   libucrt:cfout.obj
 0001:000195ef       _fegetround                1001a5ef f   libucrt:fegetround.obj
 0001:000195fc       __fcloseall                1001a5fc f   libucrt:closeall.obj
 0001:000196a7       ___acrt_stdio_free_buffer_nolock 1001a6a7 f   libucrt:_freebuf.obj
 0001:000196e7       __isatty                   1001a6e7 f   libucrt:isatty.obj
 0001:0001973d       ___acrt_locale_free_monetary 1001a73d f   libucrt:initmon.obj
 0001:0001983b       ___acrt_locale_free_numeric 1001a83b f   libucrt:initnum.obj
 0001:000198dc       ___acrt_locale_free_time   1001a8dc f   libucrt:inittime.obj
 0001:000199c0       ___acrt_GetStringTypeA     1001a9c0 f   libucrt:getstringtypea.obj
 0001:00019ac3       __freea_crt                1001aac3 f i libucrt:getstringtypea.obj
 0001:00019ae3       ___acrt_lowio_create_handle_array 1001aae3 f   libucrt:osfinfo.obj
 0001:00019b5e       ___acrt_lowio_destroy_handle_array 1001ab5e f   libucrt:osfinfo.obj
 0001:00019b93       ___acrt_lowio_ensure_fh_exists 1001ab93 f   libucrt:osfinfo.obj
 0001:00019c31       ___acrt_lowio_lock_fh      1001ac31 f   libucrt:osfinfo.obj
 0001:00019c54       ___acrt_lowio_unlock_fh    1001ac54 f   libucrt:osfinfo.obj
 0001:00019c77       __free_osfhnd              1001ac77 f   libucrt:osfinfo.obj
 0001:00019d08       __get_osfhandle            1001ad08 f   libucrt:osfinfo.obj
 0001:00019d80       _qsort                     1001ad80 f   libucrt:qsort.obj
 0001:0001a321       _strncpy_s                 1001b321 f   libucrt:strncpy_s.obj
 0001:0001a330       _strpbrk                   1001b330 f   libucrt:strpbrk.obj
 0001:0001a370       __mbsdec                   1001b370 f   libucrt:mbsdec.obj
 0001:0001a387       __mbsdec_l                 1001b387 f   libucrt:mbsdec.obj
 0001:0001a5fe       ___acrt_LCMapStringA       1001b5fe f   libucrt:lcmapstringa.obj
 0001:0001a6f8       __commit                   1001b6f8 f   libucrt:commit.obj
 0001:0001aef0       __write                    1001bef0 f   libucrt:write.obj
 0001:0001afe2       __write_nolock             1001bfe2 f   libucrt:write.obj
 0001:0001b1bc       ___acrt_GetStringTypeW     1001c1bc f   libucrt:getstringtypew.obj
 0001:0001b1d5       ___ascii_wcsnicmp          1001c1d5 f   libucrt:wcsnicmp.obj
 0001:0001b224       ?__mbrtoc32_utf8@__crt_mbstring@@YAIPA_UPBDIPAU_Mbstatet@@@Z 1001c224 f   libucrt:mbrtoc32.obj
 0001:0001b3cb       __controlfp_s              1001c3cb f   libucrt:contrlfp.obj
 0001:0001b42a       _fegetenv                  1001c42a f   libucrt:fegetenv.obj
 0001:0001b447       _fesetenv                  1001c447 f   libucrt:fesetenv.obj
 0001:0001b492       _feholdexcept              1001c492 f   libucrt:feholdexcept.obj
 0001:0001b4e0       __CIlog10                  1001c4e0 f   libucrt:log10_impl.obj
 0001:0001b51b       __CIlog10_default          1001c51b f   libucrt:log10_impl.obj
 0001:0001b52f       __log10_default            1001c52f     libucrt:log10_impl.obj
 0001:0001b5f0       _ceil                      1001c5f0 f   libucrt:ceil_pentium4.obj
 0001:0001b630       __ceil_pentium4            1001c630 f   libucrt:ceil_pentium4.obj
 0001:0001ba2a       ___acrt_fenv_get_common_round_control 1001ca2a f   libucrt:_fenvutils.obj
 0001:0001ba4c       ___acrt_fenv_get_control   1001ca4c f   libucrt:_fenvutils.obj
 0001:0001bacc       ___acrt_fenv_get_status    1001cacc f   libucrt:_fenvutils.obj
 0001:0001bb84       ___acrt_fenv_set_control   1001cb84 f   libucrt:_fenvutils.obj
 0001:0001bbec       ___acrt_fenv_set_status    1001cbec f   libucrt:_fenvutils.obj
 0001:0001bd5f       __lseeki64_nolock          1001cd5f f   libucrt:lseek.obj
 0001:0001bd7a       __fclose_nolock            1001cd7a f   libucrt:fclose.obj
 0001:0001bdf1       _fclose                    1001cdf1 f   libucrt:fclose.obj
 0001:0001be75       __query_app_type           1001ce75 f   libucrt:report_runtime_error.obj
 0001:0001be7b       ___strncnt                 1001ce7b f   libucrt:strncnt.obj
 0001:0001be97       __putwch_nolock            1001ce97 f   libucrt:putwch.obj
 0001:0001bf70       __clearfp                  1001cf70 f   libucrt:ieee87.obj
 0001:0001c04e       __control87                1001d04e f   libucrt:ieee87.obj
 0001:0001c3ed       ___acrt_initialize_sse2    1001d3ed f   libucrt:mathfcns.obj
 0001:0001c400       __CIlog10_pentium4         1001d400 f   libucrt:log10_pentium4.obj
 0001:0001c418       __log10_pentium4           1001d418     libucrt:log10_pentium4.obj
 0001:0001c6b0       __fFEXP                    1001d6b0 f   libucrt:87tran.obj
 0001:0001c707       __rtinfpopse               1001d707     libucrt:87tran.obj
 0001:0001c709       __rtinfnpopse              1001d709     libucrt:87tran.obj
 0001:0001c719       __fFLN                     1001d719     libucrt:87tran.obj
 0001:0001c7ce       __rtinfpop                 1001d7ce     libucrt:87tran.obj
 0001:0001c7d0       __rtinfnpop                1001d7d0     libucrt:87tran.obj
 0001:0001c7e0       __rtforexpinf              1001d7e0 f   libucrt:87tran.obj
 0001:0001c7ed       __ffexpm1                  1001d7ed     libucrt:87tran.obj
 0001:0001c8a0       __trandisp1                1001d8a0 f   libucrt:87disp.obj
 0001:0001c915       __trandisp2                1001d915 f   libucrt:87disp.obj
 0001:0001c9af       __rttospopde               1001d9af     libucrt:87disp.obj
 0001:0001c9b4       __rttospop                 1001d9b4     libucrt:87disp.obj
 0001:0001c9c0       __rtnospop                 1001d9c0 f   libucrt:87disp.obj
 0001:0001c9d0       __rttosnpop                1001d9d0 f   libucrt:87disp.obj
 0001:0001c9d1       __rtnospopde               1001d9d1     libucrt:87disp.obj
 0001:0001c9d8       __rtzeropop                1001d9d8     libucrt:87disp.obj
 0001:0001c9da       __rtzeronpop               1001d9da     libucrt:87disp.obj
 0001:0001c9e0       __rtzerospop               1001d9e0 f   libucrt:87disp.obj
 0001:0001c9ed       __rtonepop                 1001d9ed     libucrt:87disp.obj
 0001:0001c9f0       __rtonenpop                1001d9f0 f   libucrt:87disp.obj
 0001:0001ca00       __tosnan1                  1001da00 f   libucrt:87disp.obj
 0001:0001ca30       __nosnan2                  1001da30 f   libucrt:87disp.obj
 0001:0001ca40       __tosnan2                  1001da40 f   libucrt:87disp.obj
 0001:0001ca70       __nan2                     1001da70 f   libucrt:87disp.obj
 0001:0001cab0       __rtindfpop                1001dab0 f   libucrt:87disp.obj
 0001:0001cab2       __rtindfnpop               1001dab2     libucrt:87disp.obj
 0001:0001cac3       __rttosnpopde              1001dac3     libucrt:87disp.obj
 0001:0001cad0       __rtatan2inf               1001dad0 f   libucrt:87disp.obj
 0001:0001caed       __rtchsifneg               1001daed     libucrt:87disp.obj
 0001:0001cb00       __twoToTOS                 1001db00 f   libucrt:common.obj
 0001:0001cb15       __load_CW                  1001db15 f   libucrt:common.obj
 0001:0001cb2c       __convertTOStoQNaN         1001db2c f   libucrt:common.obj
 0001:0001cb45       __fload_withFB             1001db45 f   libucrt:common.obj
 0001:0001cb88       __checkTOS_withFB          1001db88 f   libucrt:common.obj
 0001:0001cb9e       __fast_exit                1001db9e f   libucrt:common.obj
 0001:0001cbab       __math_exit                1001dbab f   libucrt:common.obj
 0001:0001cbd5       __check_overflow_exit      1001dbd5 f   libucrt:common.obj
 0001:0001cbe9       __check_range_exit         1001dbe9 f   libucrt:common.obj
 0001:0001cc90       __startTwoArgErrorHandling 1001dc90 f   libucrt:genexcep.obj
 0001:0001cca7       __startOneArgErrorHandling 1001dca7 f   libucrt:genexcep.obj
 0001:0001cce3       ___libm_error_support      1001dce3 f   libucrt:libm_error.obj
 0001:0001ced7       __ceil_default             1001ded7 f   libucrt:ceil.obj
 0001:0001d018       __close                    1001e018 f   libucrt:close.obj
 0001:0001d0a5       __close_nolock             1001e0a5 f   libucrt:close.obj
 0001:0001d141       ?__acrt_stdio_free_stream@@YAXV__crt_stdio_stream@@@Z 1001e141 f   libucrt:stream.obj
 0001:0001d180       ___ascii_strnicmp          1001e180 f   libucrt:_strnicm.obj
 0001:0001d200       ___dcrt_lowio_ensure_console_output_initialized 1001e200 f   libucrt:initcon.obj
 0001:0001d21f       ___dcrt_terminate_console_output 1001e21f f   libucrt:initcon.obj
 0001:0001d236       ___dcrt_write_console      1001e236 f   libucrt:initcon.obj
 0001:0001d28b       ___set_fpsr_sse2           1001e28b f   libucrt:fpctrl.obj
 0001:0001d30b       __clrfp                    1001e30b f   libucrt:fpctrl.obj
 0001:0001d31c       __ctrlfp                   1001e31c f   libucrt:fpctrl.obj
 0001:0001d346       __set_statfp               1001e346 f   libucrt:fpctrl.obj
 0001:0001d39f       __statfp                   1001e39f f   libucrt:fpctrl.obj
 0001:0001d3af       __d_inttype                1001e3af f   libucrt:powhlp.obj
 0001:0001d417       __powhlp                   1001e417 f   libucrt:powhlp.obj
 0001:0001d542       __87except                 1001e542 f   libucrt:87except.obj
 0001:0001d64c       __frnd                     1001e64c f   libucrt:frnd.obj
 0001:0001d660       __errcode                  1001e660 f   libucrt:fpexcept.obj
 0001:0001d694       __except1                  1001e694 f   libucrt:fpexcept.obj
 0001:0001d762       __handle_exc               1001e762 f   libucrt:fpexcept.obj
 0001:0001d94d       __raise_exc                1001e94d f   libucrt:fpexcept.obj
 0001:0001d970       __raise_exc_ex             1001e970 f   libucrt:fpexcept.obj
 0001:0001dc66       __set_errno_from_matherr   1001ec66 f   libucrt:fpexcept.obj
 0001:0001dc95       __umatherr                 1001ec95 f   libucrt:fpexcept.obj
 0001:0001dd35       __decomp                   1001ed35 f   libucrt:util.obj
 0001:0001de07       __set_exp                  1001ee07 f   libucrt:util.obj
 0001:0001de34       __sptype                   1001ee34 f   libucrt:util.obj
 0001:0001de92       __fpclass                  1001ee92 f   libucrt:ieeemisc.obj
 0001:0001df36       _IsProcessorFeaturePresent@4 1001ef36 f   kernel32:KERNEL32.dll
 0001:0001df40       __FindPESection            1001ef40 f   LIBCMT:pesect.obj
 0001:0001df90       __IsNonwritableInCurrentImage 1001ef90 f   LIBCMT:pesect.obj
 0001:0001e050       __ValidateImageBase        1001f050 f   LIBCMT:pesect.obj
 0001:0001e083       __EH_prolog3_catch         1001f083 f   LIBCMT:ehprolg3.obj
 0001:0001e0c0       __aulldvrm                 1001f0c0 f   LIBCMT:ulldvrm.obj
 0001:0001e160       __allmul                   1001f160 f   LIBCMT:llmul.obj
 0001:0001e1a0       __alldvrm                  1001f1a0 f   LIBCMT:lldvrm.obj
 0001:0001e280       __allshl                   1001f280 f   LIBCMT:llshl.obj
 0001:0001e2a0       __aullshr                  1001f2a0 f   LIBCMT:ullshr.obj
 0001:0001e2c0       __ftoi2                    1001f2c0 f   LIBCMT:ftol2.obj
 0001:0001e2c0       __ftol2_sse_excpt          1001f2c0     LIBCMT:ftol2.obj
 0001:0001e2c0       __ftol2_sse                1001f2c0     LIBCMT:ftol2.obj
 0001:0001e340       __ftoui2                   1001f340 f   LIBCMT:ftol2.obj
 0001:0001e3f0       __ftol2                    1001f3f0 f   LIBCMT:ftol2.obj
 0001:0001e4a0       __ftoul2                   1001f4a0 f   LIBCMT:ftol2.obj
 0001:0001e560       _strrchr                   1001f560 f   libvcruntime:strrchr.obj
 0001:0001e6a0       _strchr                    1001f6a0 f   libvcruntime:strchr.obj
 0001:0001e70e       ___from_strstr_to_strchr   1001f70e     libvcruntime:strchr.obj
 0001:0001e7cb       __filter_x86_sse2_floating_point_exception 1001f7cb f   LIBCMT:x86_exception_filter.obj
 0001:0001e7cb       __filter_x86_sse2_floating_point_exception_default 1001f7cb f   LIBCMT:x86_exception_filter.obj
 0002:00000000       __imp__RegQueryValueExW@24 10020000     advapi32:ADVAPI32.dll
 0002:00000004       __imp__RegSetValueExW@24   10020004     advapi32:ADVAPI32.dll
 0002:00000008       __imp__RegQueryInfoKeyW@48 10020008     advapi32:ADVAPI32.dll
 0002:0000000c       __imp__RegOpenKeyExW@20    1002000c     advapi32:ADVAPI32.dll
 0002:00000010       __imp__RegEnumKeyExW@32    10020010     advapi32:ADVAPI32.dll
 0002:00000014       __imp__RegDeleteValueW@8   10020014     advapi32:ADVAPI32.dll
 0002:00000018       __imp__RegDeleteKeyW@8     10020018     advapi32:ADVAPI32.dll
 0002:0000001c       __imp__RegCreateKeyExW@36  1002001c     advapi32:ADVAPI32.dll
 0002:00000020       __imp__RegCloseKey@4       10020020     advapi32:ADVAPI32.dll
 0002:00000024       \177ADVAPI32_NULL_THUNK_DATA 10020024     advapi32:ADVAPI32.dll
 0002:00000028       __imp__GetObjectW@12       10020028     gdi32:GDI32.dll
 0002:0000002c       __imp__SelectObject@8      1002002c     gdi32:GDI32.dll
 0002:00000030       __imp__DeleteObject@4      10020030     gdi32:GDI32.dll
 0002:00000034       __imp__CreateCompatibleDC@4 10020034     gdi32:GDI32.dll
 0002:00000038       __imp__BitBlt@36           10020038     gdi32:GDI32.dll
 0002:0000003c       __imp__SetWindowOrgEx@16   1002003c     gdi32:GDI32.dll
 0002:00000040       __imp__SetWindowExtEx@16   10020040     gdi32:GDI32.dll
 0002:00000044       __imp__SetViewportOrgEx@16 10020044     gdi32:GDI32.dll
 0002:00000048       __imp__LPtoDP@12           10020048     gdi32:GDI32.dll
 0002:0000004c       __imp__SetMapMode@8        1002004c     gdi32:GDI32.dll
 0002:00000050       __imp__SaveDC@4            10020050     gdi32:GDI32.dll
 0002:00000054       __imp__RestoreDC@8         10020054     gdi32:GDI32.dll
 0002:00000058       __imp__GetDeviceCaps@8     10020058     gdi32:GDI32.dll
 0002:0000005c       __imp__DeleteMetaFile@4    1002005c     gdi32:GDI32.dll
 0002:00000060       __imp__DeleteDC@4          10020060     gdi32:GDI32.dll
 0002:00000064       __imp__CreateRectRgnIndirect@4 10020064     gdi32:GDI32.dll
 0002:00000068       __imp__CreateMetaFileW@4   10020068     gdi32:GDI32.dll
 0002:0000006c       __imp__CreateDCW@16        1002006c     gdi32:GDI32.dll
 0002:00000070       __imp__CloseMetaFile@4     10020070     gdi32:GDI32.dll
 0002:00000074       \177GDI32_NULL_THUNK_DATA  10020074     gdi32:GDI32.dll
 0002:00000078       __imp__CloseHandle@4       10020078     kernel32:KERNEL32.dll
 0002:0000007c       __imp__SetEvent@4          1002007c     kernel32:KERNEL32.dll
 0002:00000080       __imp__CreateMutexW@12     10020080     kernel32:KERNEL32.dll
 0002:00000084       __imp__CreateEventW@16     10020084     kernel32:KERNEL32.dll
 0002:00000088       __imp__GetCurrentProcessId@0 10020088     kernel32:KERNEL32.dll
 0002:0000008c       __imp__CreateFileW@28      1002008c     kernel32:KERNEL32.dll
 0002:00000090       __imp__GetConsoleMode@8    10020090     kernel32:KERNEL32.dll
 0002:00000094       __imp__GetConsoleOutputCP@0 10020094     kernel32:KERNEL32.dll
 0002:00000098       __imp__WriteFile@20        10020098     kernel32:KERNEL32.dll
 0002:0000009c       __imp__FlushFileBuffers@4  1002009c     kernel32:KERNEL32.dll
 0002:000000a0       __imp__SetStdHandle@8      100200a0     kernel32:KERNEL32.dll
 0002:000000a4       __imp__GetStringTypeW@16   100200a4     kernel32:KERNEL32.dll
 0002:000000a8       __imp__SetFilePointerEx@20 100200a8     kernel32:KERNEL32.dll
 0002:000000ac       __imp__FreeEnvironmentStringsW@4 100200ac     kernel32:KERNEL32.dll
 0002:000000b0       __imp__GetEnvironmentStringsW@0 100200b0     kernel32:KERNEL32.dll
 0002:000000b4       __imp__lstrcmpiW@8         100200b4     kernel32:KERNEL32.dll
 0002:000000b8       __imp__GetCommandLineA@0   100200b8     kernel32:KERNEL32.dll
 0002:000000bc       __imp__GetCPInfo@8         100200bc     kernel32:KERNEL32.dll
 0002:000000c0       __imp__GetOEMCP@0          100200c0     kernel32:KERNEL32.dll
 0002:000000c4       __imp__GetACP@0            100200c4     kernel32:KERNEL32.dll
 0002:000000c8       __imp__IsValidCodePage@4   100200c8     kernel32:KERNEL32.dll
 0002:000000cc       __imp__FindNextFileW@8     100200cc     kernel32:KERNEL32.dll
 0002:000000d0       __imp__FindFirstFileExW@24 100200d0     kernel32:KERNEL32.dll
 0002:000000d4       __imp__FindClose@4         100200d4     kernel32:KERNEL32.dll
 0002:000000d8       __imp__GetFileType@4       100200d8     kernel32:KERNEL32.dll
 0002:000000dc       __imp__GetStdHandle@4      100200dc     kernel32:KERNEL32.dll
 0002:000000e0       __imp__LCMapStringW@24     100200e0     kernel32:KERNEL32.dll
 0002:000000e4       __imp__HeapReAlloc@16      100200e4     kernel32:KERNEL32.dll
 0002:000000e8       __imp__HeapSize@12         100200e8     kernel32:KERNEL32.dll
 0002:000000ec       __imp__MulDiv@12           100200ec     kernel32:KERNEL32.dll
 0002:000000f0       __imp__GlobalLock@4        100200f0     kernel32:KERNEL32.dll
 0002:000000f4       __imp__GlobalUnlock@4      100200f4     kernel32:KERNEL32.dll
 0002:000000f8       __imp__GlobalAlloc@8       100200f8     kernel32:KERNEL32.dll
 0002:000000fc       __imp__FindResourceW@12    100200fc     kernel32:KERNEL32.dll
 0002:00000100       __imp__SizeofResource@8    10020100     kernel32:KERNEL32.dll
 0002:00000104       __imp__LoadResource@8      10020104     kernel32:KERNEL32.dll
 0002:00000108       __imp__LoadLibraryExW@12   10020108     kernel32:KERNEL32.dll
 0002:0000010c       __imp__GetProcAddress@8    1002010c     kernel32:KERNEL32.dll
 0002:00000110       __imp__GetModuleHandleW@4  10020110     kernel32:KERNEL32.dll
 0002:00000114       __imp__GetModuleFileNameW@12 10020114     kernel32:KERNEL32.dll
 0002:00000118       __imp__FreeLibrary@4       10020118     kernel32:KERNEL32.dll
 0002:0000011c       __imp__DisableThreadLibraryCalls@4 1002011c     kernel32:KERNEL32.dll
 0002:00000120       __imp__GetCurrentThreadId@0 10020120     kernel32:KERNEL32.dll
 0002:00000124       __imp__Sleep@4             10020124     kernel32:KERNEL32.dll
 0002:00000128       __imp__WaitForSingleObject@8 10020128     kernel32:KERNEL32.dll
 0002:0000012c       __imp__ReleaseMutex@4      1002012c     kernel32:KERNEL32.dll
 0002:00000130       __imp__ResetEvent@4        10020130     kernel32:KERNEL32.dll
 0002:00000134       __imp__EnterCriticalSection@4 10020134     kernel32:KERNEL32.dll
 0002:00000138       __imp__LeaveCriticalSection@4 10020138     kernel32:KERNEL32.dll
 0002:0000013c       __imp__SetLastError@4      1002013c     kernel32:KERNEL32.dll
 0002:00000140       __imp__EncodePointer@4     10020140     kernel32:KERNEL32.dll
 0002:00000144       __imp__DeleteCriticalSection@4 10020144     kernel32:KERNEL32.dll
 0002:00000148       __imp__InitializeCriticalSectionEx@12 10020148     kernel32:KERNEL32.dll
 0002:0000014c       __imp__GetLastError@0      1002014c     kernel32:KERNEL32.dll
 0002:00000150       __imp__RaiseException@16   10020150     kernel32:KERNEL32.dll
 0002:00000154       __imp__DecodePointer@4     10020154     kernel32:KERNEL32.dll
 0002:00000158       __imp__WideCharToMultiByte@32 10020158     kernel32:KERNEL32.dll
 0002:0000015c       __imp__GetCommandLineW@0   1002015c     kernel32:KERNEL32.dll
 0002:00000160       __imp__MultiByteToWideChar@24 10020160     kernel32:KERNEL32.dll
 0002:00000164       __imp__WriteConsoleW@20    10020164     kernel32:KERNEL32.dll
 0002:00000168       __imp__GetModuleHandleExW@12 10020168     kernel32:KERNEL32.dll
 0002:0000016c       __imp__ExitProcess@4       1002016c     kernel32:KERNEL32.dll
 0002:00000170       __imp__VirtualQuery@12     10020170     kernel32:KERNEL32.dll
 0002:00000174       __imp__VirtualProtect@16   10020174     kernel32:KERNEL32.dll
 0002:00000178       __imp__GetSystemInfo@4     10020178     kernel32:KERNEL32.dll
 0002:0000017c       __imp__TlsFree@4           1002017c     kernel32:KERNEL32.dll
 0002:00000180       __imp__TlsSetValue@8       10020180     kernel32:KERNEL32.dll
 0002:00000184       __imp__TlsGetValue@4       10020184     kernel32:KERNEL32.dll
 0002:00000188       __imp__TlsAlloc@0          10020188     kernel32:KERNEL32.dll
 0002:0000018c       __imp__InterlockedFlushSList@4 1002018c     kernel32:KERNEL32.dll
 0002:00000190       __imp__RtlUnwind@16        10020190     kernel32:KERNEL32.dll
 0002:00000194       __imp__LoadLibraryExA@12   10020194     kernel32:KERNEL32.dll
 0002:00000198       __imp__VirtualFree@12      10020198     kernel32:KERNEL32.dll
 0002:0000019c       __imp__VirtualAlloc@16     1002019c     kernel32:KERNEL32.dll
 0002:000001a0       __imp__FlushInstructionCache@12 100201a0     kernel32:KERNEL32.dll
 0002:000001a4       __imp__InterlockedPushEntrySList@8 100201a4     kernel32:KERNEL32.dll
 0002:000001a8       __imp__InterlockedPopEntrySList@4 100201a8     kernel32:KERNEL32.dll
 0002:000001ac       __imp__GetProcessHeap@0    100201ac     kernel32:KERNEL32.dll
 0002:000001b0       __imp__HeapFree@12         100201b0     kernel32:KERNEL32.dll
 0002:000001b4       __imp__HeapAlloc@12        100201b4     kernel32:KERNEL32.dll
 0002:000001b8       __imp__OutputDebugStringW@4 100201b8     kernel32:KERNEL32.dll
 0002:000001bc       __imp__InitializeSListHead@4 100201bc     kernel32:KERNEL32.dll
 0002:000001c0       __imp__GetSystemTimeAsFileTime@4 100201c0     kernel32:KERNEL32.dll
 0002:000001c4       __imp__QueryPerformanceCounter@4 100201c4     kernel32:KERNEL32.dll
 0002:000001c8       __imp__GetStartupInfoW@4   100201c8     kernel32:KERNEL32.dll
 0002:000001cc       __imp__IsDebuggerPresent@0 100201cc     kernel32:KERNEL32.dll
 0002:000001d0       __imp__IsProcessorFeaturePresent@4 100201d0     kernel32:KERNEL32.dll
 0002:000001d4       __imp__TerminateProcess@8  100201d4     kernel32:KERNEL32.dll
 0002:000001d8       __imp__GetCurrentProcess@0 100201d8     kernel32:KERNEL32.dll
 0002:000001dc       __imp__SetUnhandledExceptionFilter@4 100201dc     kernel32:KERNEL32.dll
 0002:000001e0       __imp__UnhandledExceptionFilter@4 100201e0     kernel32:KERNEL32.dll
 0002:000001e4       __imp__InitializeCriticalSectionAndSpinCount@8 100201e4     kernel32:KERNEL32.dll
 0002:000001e8       __imp__WaitForSingleObjectEx@12 100201e8     kernel32:KERNEL32.dll
 0002:000001ec       \177KERNEL32_NULL_THUNK_DATA 100201ec     kernel32:KERNEL32.dll
 0002:000001f0       __imp__OleCreatePropertyFrame@44 100201f0     oleaut32:OLEAUT32.dll
 0002:000001f4       __imp__UnRegisterTypeLib@20 100201f4     oleaut32:OLEAUT32.dll
 0002:000001f8       __imp__RegisterTypeLib@12  100201f8     oleaut32:OLEAUT32.dll
 0002:000001fc       __imp__LoadRegTypeLib@20   100201fc     oleaut32:OLEAUT32.dll
 0002:00000200       __imp__LoadTypeLib@8       10020200     oleaut32:OLEAUT32.dll
 0002:00000204       __imp__VarUI4FromStr@16    10020204     oleaut32:OLEAUT32.dll
 0002:00000208       __imp__VariantInit@4       10020208     oleaut32:OLEAUT32.dll
 0002:0000020c       __imp__SysAllocStringByteLen@8 1002020c     oleaut32:OLEAUT32.dll
 0002:00000210       __imp__SysStringByteLen@4  10020210     oleaut32:OLEAUT32.dll
 0002:00000214       __imp__VariantChangeType@16 10020214     oleaut32:OLEAUT32.dll
 0002:00000218       __imp__VariantClear@4      10020218     oleaut32:OLEAUT32.dll
 0002:0000021c       __imp__SysStringLen@4      1002021c     oleaut32:OLEAUT32.dll
 0002:00000220       __imp__SysFreeString@4     10020220     oleaut32:OLEAUT32.dll
 0002:00000224       __imp__SysAllocStringLen@8 10020224     oleaut32:OLEAUT32.dll
 0002:00000228       __imp__SysAllocString@4    10020228     oleaut32:OLEAUT32.dll
 0002:0000022c       \177OLEAUT32_NULL_THUNK_DATA 1002022c     oleaut32:OLEAUT32.dll
 0002:00000230       __imp__UnregisterClassW@8  10020230     user32:USER32.dll
 0002:00000234       __imp__PostMessageW@16     10020234     user32:USER32.dll
 0002:00000238       __imp__DefWindowProcW@16   10020238     user32:USER32.dll
 0002:0000023c       __imp__CallWindowProcW@20  1002023c     user32:USER32.dll
 0002:00000240       __imp__RegisterClassExW@4  10020240     user32:USER32.dll
 0002:00000244       __imp__GetClassInfoExW@12  10020244     user32:USER32.dll
 0002:00000248       __imp__CreateWindowExW@48  10020248     user32:USER32.dll
 0002:0000024c       __imp__IsWindow@4          1002024c     user32:USER32.dll
 0002:00000250       __imp__IsChild@8           10020250     user32:USER32.dll
 0002:00000254       __imp__DestroyWindow@4     10020254     user32:USER32.dll
 0002:00000258       __imp__ShowWindow@8        10020258     user32:USER32.dll
 0002:0000025c       __imp__SetWindowPos@28     1002025c     user32:USER32.dll
 0002:00000260       __imp__CharNextW@4         10020260     user32:USER32.dll
 0002:00000264       __imp__SetFocus@4          10020264     user32:USER32.dll
 0002:00000268       __imp__LoadBitmapW@8       10020268     user32:USER32.dll
 0002:0000026c       __imp__RegisterClassW@4    1002026c     user32:USER32.dll
 0002:00000270       __imp__PeekMessageW@20     10020270     user32:USER32.dll
 0002:00000274       __imp__LoadCursorW@8       10020274     user32:USER32.dll
 0002:00000278       __imp__GetParent@4         10020278     user32:USER32.dll
 0002:0000027c       __imp__SetWindowLongW@12   1002027c     user32:USER32.dll
 0002:00000280       __imp__GetWindowLongW@8    10020280     user32:USER32.dll
 0002:00000284       __imp__PtInRect@12         10020284     user32:USER32.dll
 0002:00000288       __imp__EqualRect@8         10020288     user32:USER32.dll
 0002:0000028c       __imp__OffsetRect@12       1002028c     user32:USER32.dll
 0002:00000290       __imp__UnionRect@12        10020290     user32:USER32.dll
 0002:00000294       __imp__IntersectRect@12    10020294     user32:USER32.dll
 0002:00000298       __imp__GetClientRect@8     10020298     user32:USER32.dll
 0002:0000029c       __imp__InvalidateRect@12   1002029c     user32:USER32.dll
 0002:000002a0       __imp__SetWindowRgn@12     100202a0     user32:USER32.dll
 0002:000002a4       __imp__EndPaint@8          100202a4     user32:USER32.dll
 0002:000002a8       __imp__BeginPaint@8        100202a8     user32:USER32.dll
 0002:000002ac       __imp__ReleaseDC@8         100202ac     user32:USER32.dll
 0002:000002b0       __imp__GetDC@4             100202b0     user32:USER32.dll
 0002:000002b4       __imp__GetKeyState@4       100202b4     user32:USER32.dll
 0002:000002b8       __imp__GetFocus@0          100202b8     user32:USER32.dll
 0002:000002bc       \177USER32_NULL_THUNK_DATA 100202bc     user32:USER32.dll
 0002:000002c0       __imp__StringFromGUID2@12  100202c0     ole32:ole32.dll
 0002:000002c4       __imp__CoTaskMemAlloc@4    100202c4     ole32:ole32.dll
 0002:000002c8       __imp__CoTaskMemRealloc@8  100202c8     ole32:ole32.dll
 0002:000002cc       __imp__CoTaskMemFree@4     100202cc     ole32:ole32.dll
 0002:000002d0       __imp__ReadClassStm@8      100202d0     ole32:ole32.dll
 0002:000002d4       __imp__WriteClassStm@8     100202d4     ole32:ole32.dll
 0002:000002d8       __imp__CreateDataAdviseHolder@4 100202d8     ole32:ole32.dll
 0002:000002dc       __imp__OleSaveToStream@8   100202dc     ole32:ole32.dll
 0002:000002e0       __imp__CreateOleAdviseHolder@4 100202e0     ole32:ole32.dll
 0002:000002e4       __imp__OleRegGetUserType@12 100202e4     ole32:ole32.dll
 0002:000002e8       __imp__OleRegGetMiscStatus@12 100202e8     ole32:ole32.dll
 0002:000002ec       __imp__OleRegEnumVerbs@8   100202ec     ole32:ole32.dll
 0002:000002f0       __imp__CLSIDFromProgID@8   100202f0     ole32:ole32.dll
 0002:000002f4       __imp__CoCreateInstance@20 100202f4     ole32:ole32.dll
 0002:000002f8       \177ole32_NULL_THUNK_DATA  100202f8     ole32:ole32.dll
 0002:000002fc       ___guard_check_icall_fptr  100202fc     LIBCMT:guard_support.obj
 0002:00000300       ___xc_a                    10020300     LIBCMT:initializers.obj
 0002:00000318       ___xc_z                    10020318     LIBCMT:initializers.obj
 0002:0000031c       ___xi_a                    1002031c     LIBCMT:initializers.obj
 0002:00000324       ___acrt_stdio_initializer  10020324     libucrt:stdio_initializer.obj
 0002:00000328       ___acrt_multibyte_initializer 10020328     libucrt:multibyte_initializer.obj
 0002:0000032c       ___acrt_tran_sse2_initializer 1002032c     libucrt:sse2_initializer.obj
 0002:00000330       ___xi_z                    10020330     LIBCMT:initializers.obj
 0002:00000334       ___xl_a                    10020334     LIBCMT:tlssup.obj
 0002:00000338       ___xl_z                    10020338     LIBCMT:tlssup.obj
 0002:0000033c       ___xp_a                    1002033c     LIBCMT:initializers.obj
 0002:00000340       ___acrt_locale_terminator  10020340     libucrt:locale_initializer.obj
 0002:00000344       ___dcrt_console_output_terminator 10020344     libucrt:console_output_initializer.obj
 0002:00000348       ___acrt_stdio_terminator   10020348     libucrt:stdio_initializer.obj
 0002:0000034c       ___xp_z                    1002034c     LIBCMT:initializers.obj
 0002:00000350       ___xt_a                    10020350     LIBCMT:initializers.obj
 0002:00000354       ___xt_z                    10020354     LIBCMT:initializers.obj
 0002:00000360       ??_C@_13HADIAKP@?$AAS@     10020360     OposVariant.obj
 0002:00000364       ??_C@_13LHMFKAAD@?$AAM@    10020364     OposVariant.obj
 0002:00000368       ??_C@_13MKMNOPIJ@?$AAD@    10020368     OposVariant.obj
 0002:0000036c       ??_C@_13OPKGLAFF@?$AAB@    1002036c     OposVariant.obj
 0002:00000370       ??_C@_17LLMMEOJD@?$AAV?$AAa?$AAl@ 10020370     OposVariant.obj
 0002:00000378       ??_C@_1BI@JFAIJMHL@?$AAF?$AAo?$AAr?$AAc?$AAe?$AAR?$AAe?$AAm?$AAo?$AAv?$AAe@ 10020378     OposVariant.obj
 0002:00000390       ??_C@_1BC@GCKHIPE@?$AAN?$AAo?$AAR?$AAe?$AAm?$AAo?$AAv?$AAe@ 10020390     OposVariant.obj
 0002:000003a4       ??_C@_1O@JDLOHAN@?$AAD?$AAe?$AAl?$AAe?$AAt?$AAe@ 100203a4     OposVariant.obj
 0002:000003b4       ??_C@_11LOCGONAA@@         100203b4     OposVariant.obj
 0002:000003b8       ??_7CComClassFactory@ATL@@6B@ 100203b8     CheckScanner.obj
 0002:000003d0       ?_entries@?1??_GetEntries@CComClassFactory@ATL@@SGPBU_ATL_INTMAP_ENTRY@3@XZ@4QBU43@B 100203d0     CheckScanner.obj
 0002:000003e8       __GUID_00000001_0000_0000_c000_000000000046 100203e8     CheckScanner.obj
 0002:000003f8       _IID_IOPOSCheckScanner_1_7 100203f8     CheckScanner.obj
 0002:00000408       _IID_IOPOSCheckScanner_1_8 10020408     CheckScanner.obj
 0002:00000418       _IID_IOPOSCheckScanner_1_9 10020418     CheckScanner.obj
 0002:00000428       _IID_IOPOSCheckScanner_1_10 10020428     CheckScanner.obj
 0002:00000438       _IID_IOPOSCheckScanner     10020438     CheckScanner.obj
 0002:00000448       _LIBID_OposCheckScanner_CCO 10020448     CheckScanner.obj
 0002:00000458       _DIID__IOPOSCheckScannerEvents 10020458     CheckScanner.obj
 0002:00000468       _CLSID_OPOSCheckScanner    10020468     CheckScanner.obj
 0002:00000478       ??_C@_1BK@BIGILECK@?$AAA?$AAd?$AAv?$AAa?$AAp?$AAi?$AA3?$AA2?$AA?4?$AAd?$AAl?$AAl@ 10020478     CheckScanner.obj
 0002:00000494       __GUID_00000114_0000_0000_c000_000000000046 10020494     CheckScanner.obj
 0002:000004a4       ??_C@_0BI@MNCFCPFK@RegCreateKeyTransactedW@ 100204a4     CheckScanner.obj
 0002:000004bc       __GUID_b196b287_bab4_101a_b69c_00aa00341d07 100204bc     CheckScanner.obj
 0002:000004cc       __GUID_b196b285_bab4_101a_b69c_00aa00341d07 100204cc     CheckScanner.obj
 0002:000004dc       __GUID_a6bc3ac0_dbaa_11ce_9de3_00aa004bb851 100204dc     CheckScanner.obj
 0002:000004ec       __GUID_0000010c_0000_0000_c000_000000000046 100204ec     CheckScanner.obj
 0002:000004fc       __GUID_00000146_0000_0000_c000_000000000046 100204fc     CheckScanner.obj
 0002:00000510       ?_entries@?1??_GetEntries@COPOSCheckScanner@@SGPBU_ATL_INTMAP_ENTRY@ATL@@XZ@4QBU34@B 10020510     CheckScanner.obj
 0002:00000654       ??_7CComModule@ATL@@6B@    10020654     CheckScanner.obj
 0002:0000067c       __GUID_cf51ed10_62fe_11cf_bf86_00a0c9034836 1002067c     CheckScanner.obj
 0002:0000068c       __GUID_0000010a_0000_0000_c000_000000000046 1002068c     CheckScanner.obj
 0002:0000069c       __GUID_b196b283_bab4_101a_b69c_00aa00341d07 1002069c     CheckScanner.obj
 0002:000006ac       __GUID_cb5bdc81_93c1_11cf_8f20_00805f2cd064 100206ac     CheckScanner.obj
 0002:000006c0       ?pPropMap@?1??GetPropertyMap@COPOSCheckScanner@@SAPBUATL_PROPMAP_ENTRY@ATL@@XZ@4QBU34@B 100206c0     CheckScanner.obj
 0002:0000072c       ??_C@_17DGDADEHL@?$AA_?$AAc?$AAx@ 1002072c     CheckScanner.obj
 0002:00000734       ??_C@_17IOIMFDBO@?$AA_?$AAc?$AAy@ 10020734     CheckScanner.obj
 0002:0000073c       __GUID_922eada0_3424_11cf_b670_00aa004cd6d8 1002073c     CheckScanner.obj
 0002:0000074c       __GUID_9c2cad80_3424_11cf_b670_00aa004cd6d8 1002074c     CheckScanner.obj
 0002:0000075c       __GUID_00000119_0000_0000_c000_000000000046 1002075c     CheckScanner.obj
 0002:0000076c       __GUID_b196b289_bab4_101a_b69c_00aa00341d07 1002076c     CheckScanner.obj
 0002:0000077c       __GUID_00000000_0000_0000_c000_000000000046 1002077c     CheckScanner.obj
 0002:0000078c       __GUID_00020400_0000_0000_c000_000000000046 1002078c     CheckScanner.obj
 0002:0000079c       __GUID_00000117_0000_0000_c000_000000000046 1002079c     CheckScanner.obj
 0002:000007ac       ??_7?$CComObjectCached@VCComClassFactory@ATL@@@ATL@@6B@ 100207ac     CheckScanner.obj
 0002:000007c4       ??_C@_1CE@PGFMOFKI@?$AAS?$AAt?$AAa?$AAt?$AAu?$AAs?$AAU?$AAp?$AAd?$AAa?$AAt?$AAe?$AAE?$AAv?$AAe@ 100207c4     CheckScanner.obj
 0002:000007e8       ??_C@_1BG@LODEBHDD@?$AAE?$AAr?$AAr?$AAo?$AAr?$AAE?$AAv?$AAe?$AAn?$AAt@ 100207e8     CheckScanner.obj
 0002:00000800       ??_C@_1BM@CBGEBBBJ@?$AAD?$AAi?$AAr?$AAe?$AAc?$AAt?$AAI?$AAO?$AAE?$AAv?$AAe?$AAn?$AAt@ 10020800     CheckScanner.obj
 0002:0000081c       ??_C@_1BE@IEBMACEM@?$AAD?$AAa?$AAt?$AAa?$AAE?$AAv?$AAe?$AAn?$AAt@ 1002081c     CheckScanner.obj
 0002:00000830       __GUID_b196b286_bab4_101a_b69c_00aa00341d07 10020830     CheckScanner.obj
 0002:00000840       ??_C@_1BC@ENICKDH@?$AAC?$AAo?$AAn?$AAt?$AAe?$AAn?$AAt?$AAs@ 10020840     CheckScanner.obj
 0002:00000854       ??_7?$CComObject@V?$CComEnum@UIEnumConnectionPoints@@$1?_GUID_b196b285_bab4_101a_b69c_00aa00341d07@@3U__s_GUID@@BPAUIConnectionPoint@@V?$_CopyInterface@UIConnectionPoint@@@ATL@@VCComSingleThreadModel@6@@ATL@@@ATL@@6B@ 10020854     CheckScanner.obj
 0002:00000874       ??_C@_1M@KANJNLFF@?$AAC?$AAL?$AAS?$AAI?$AAD@ 10020874     CheckScanner.obj
 0002:00000880       ??_C@_1M@EJNEECMJ@?$AAA?$AAp?$AAp?$AAI?$AAD@ 10020880     CheckScanner.obj
 0002:0000088c       __GUID_0000010e_0000_0000_c000_000000000046 1002088c     CheckScanner.obj
 0002:0000089c       __GUID_b196b288_bab4_101a_b69c_00aa00341d07 1002089c     CheckScanner.obj
 0002:000008ac       ?rgszNeverDelete@CRegParser@ATL@@1QBQB_WB 100208ac     CheckScanner.obj
 0002:000008dc       ??_7CRegObject@ATL@@6B@    100208dc     CheckScanner.obj
 0002:000008f4       __GUID_00000113_0000_0000_c000_000000000046 100208f4     CheckScanner.obj
 0002:00000904       __GUID_1c2056cc_5ef4_101b_8bc8_00aa003e3b29 10020904     CheckScanner.obj
 0002:00000914       ??_C@_1CK@OEKPKBNA@?$AAC?$AAo?$AAm?$AAp?$AAo?$AAn?$AAe?$AAn?$AAt?$AA?5?$AAC?$AAa?$AAt?$AAe?$AAg@ 10020914     CheckScanner.obj
 0002:00000940       ??_C@_1BC@NKMMNMGL@?$AAF?$AAi?$AAl?$AAe?$AAT?$AAy?$AAp?$AAe@ 10020940     CheckScanner.obj
 0002:00000954       ??_C@_1BE@EKPAFMCP@?$AAI?$AAn?$AAt?$AAe?$AAr?$AAf?$AAa?$AAc?$AAe@ 10020954     CheckScanner.obj
 0002:00000968       ??_C@_1BC@MAICEHGI@?$AAH?$AAa?$AAr?$AAd?$AAw?$AAa?$AAr?$AAe@ 10020968     CheckScanner.obj
 0002:0000097c       ??_C@_19HLLLM@?$AAM?$AAi?$AAm?$AAe@ 1002097c     CheckScanner.obj
 0002:00000988       ??_C@_17OMAOINJK@?$AAS?$AAA?$AAM@ 10020988     CheckScanner.obj
 0002:00000990       ??_C@_1BC@IBECJAAI@?$AAS?$AAE?$AAC?$AAU?$AAR?$AAI?$AAT?$AAY@ 10020990     CheckScanner.obj
 0002:000009a4       ??_C@_1O@GBFINDKL@?$AAS?$AAY?$AAS?$AAT?$AAE?$AAM@ 100209a4     CheckScanner.obj
 0002:000009b4       ??_C@_1BC@EAHCMADO@?$AAS?$AAo?$AAf?$AAt?$AAw?$AAa?$AAr?$AAe@ 100209b4     CheckScanner.obj
 0002:000009c8       ??_C@_1BA@JIHHIEDE@?$AAT?$AAy?$AAp?$AAe?$AAL?$AAi?$AAb@ 100209c8     CheckScanner.obj
 0002:000009d8       ?map@?1??HKeyFromString@CRegParser@ATL@@KAPAUHKEY__@@PA_W@Z@4QBUkeymap@?1??123@KAPAU4@0@Z@B 100209d8     CheckScanner.obj
 0002:00000a48       ??_C@_19NCHLBIN@?$AAH?$AAK?$AAC?$AAR@ 10020a48     CheckScanner.obj
 0002:00000a54       ??_C@_19JAPAIJDE@?$AAH?$AAK?$AAC?$AAU@ 10020a54     CheckScanner.obj
 0002:00000a60       ??_C@_19PEALEEJB@?$AAH?$AAK?$AAL?$AAM@ 10020a60     CheckScanner.obj
 0002:00000a6c       ??_C@_17PJOJPMPB@?$AAH?$AAK?$AAU@ 10020a6c     CheckScanner.obj
 0002:00000a74       ??_C@_19PNBHMJPL@?$AAH?$AAK?$AAP?$AAD@ 10020a74     CheckScanner.obj
 0002:00000a80       ??_C@_19GFFAIJHG@?$AAH?$AAK?$AAD?$AAD@ 10020a80     CheckScanner.obj
 0002:00000a8c       ??_C@_19OFICIBHH@?$AAH?$AAK?$AAC?$AAC@ 10020a8c     CheckScanner.obj
 0002:00000a98       ??_C@_1CE@PACHPJFI@?$AAH?$AAK?$AAE?$AAY?$AA_?$AAC?$AAL?$AAA?$AAS?$AAS?$AAE?$AAS?$AA_?$AAR?$AAO@ 10020a98     CheckScanner.obj
 0002:00000abc       ??_C@_1CE@HLHNCBPM@?$AAH?$AAK?$AAE?$AAY?$AA_?$AAC?$AAU?$AAR?$AAR?$AAE?$AAN?$AAT?$AA_?$AAU?$AAS@ 10020abc     CheckScanner.obj
 0002:00000ae0       ??_C@_1CG@GFBEANJL@?$AAH?$AAK?$AAE?$AAY?$AA_?$AAL?$AAO?$AAC?$AAA?$AAL?$AA_?$AAM?$AAA?$AAC?$AAH@ 10020ae0     CheckScanner.obj
 0002:00000b08       ??_C@_1BG@BGODANIO@?$AAH?$AAK?$AAE?$AAY?$AA_?$AAU?$AAS?$AAE?$AAR?$AAS@ 10020b08     CheckScanner.obj
 0002:00000b20       ??_C@_1CM@KHNNAOIC@?$AAH?$AAK?$AAE?$AAY?$AA_?$AAP?$AAE?$AAR?$AAF?$AAO?$AAR?$AAM?$AAA?$AAN?$AAC@ 10020b20     CheckScanner.obj
 0002:00000b4c       ??_C@_1BM@HAGMMHIA@?$AAH?$AAK?$AAE?$AAY?$AA_?$AAD?$AAY?$AAN?$AA_?$AAD?$AAA?$AAT?$AAA@ 10020b4c     CheckScanner.obj
 0002:00000b68       ??_C@_1CI@BBJOACGG@?$AAH?$AAK?$AAE?$AAY?$AA_?$AAC?$AAU?$AAR?$AAR?$AAE?$AAN?$AAT?$AA_?$AAC?$AAO@ 10020b68     CheckScanner.obj
 0002:00000b90       __GUID_00000109_0000_0000_c000_000000000046 10020b90     CheckScanner.obj
 0002:00000ba0       __GUID_7fd52380_4e07_101b_ae2d_08002b2ec713 10020ba0     CheckScanner.obj
 0002:00000bb0       __GUID_00000112_0000_0000_c000_000000000046 10020bb0     CheckScanner.obj
 0002:00000bc0       __GUID_3af24292_0c96_11ce_a0cf_00aa00600ab8 10020bc0     CheckScanner.obj
 0002:00000bd0       __GUID_00000127_0000_0000_c000_000000000046 10020bd0     CheckScanner.obj
 0002:00000be0       __GUID_0000010d_0000_0000_c000_000000000046 10020be0     CheckScanner.obj
 0002:00000bf0       ??_C@_1EA@NHKLICFA@?$AAH?$AAK?$AAC?$AAU?$AA?$AN?$AA?6?$AA?$HL?$AA?7?$AAS?$AAo?$AAf?$AAt?$AAw?$AAa?$AAr@ 10020bf0     CheckScanner.obj
 0002:00000c30       ??_C@_1BE@LJOLIMEM@?$AA?$AN?$AA?6?$AA?7?$AA?$HN?$AA?$AN?$AA?6?$AA?$HN?$AA?$AN?$AA?6@ 10020c30     CheckScanner.obj
 0002:00000c44       ??_C@_1O@MNLDABAF@?$AAM?$AAo?$AAd?$AAu?$AAl?$AAe@ 10020c44     CheckScanner.obj
 0002:00000c54       ??_C@_1BG@JBACFMF@?$AAM?$AAo?$AAd?$AAu?$AAl?$AAe?$AA_?$AAR?$AAa?$AAw@ 10020c54     CheckScanner.obj
 0002:00000c6c       ??_C@_1BC@KAILKFFG@?$AAR?$AAE?$AAG?$AAI?$AAS?$AAT?$AAR?$AAY@ 10020c6c     CheckScanner.obj
 0002:00000c80       ??_C@_1M@PPPPCDEP@?$AAA?$AAP?$AAP?$AAI?$AAD@ 10020c80     CheckScanner.obj
 0002:00000c8c       ??_7?$CComContainedObject@VCOPOSCheckScanner@@@ATL@@6B?$IDispatchImpl@UIOPOSCheckScanner@@$1?IID_IOPOSCheckScanner@@3U_GUID@@B$1?LIBID_OposCheckScanner_CCO@@3U3@B$00$0A@VCComTypeInfoHolder@ATL@@@1@@ 10020c8c     CheckScanner.obj
 0002:00000e38       ??_7?$CComContainedObject@VCOPOSCheckScanner@@@ATL@@6BCComControlBase@1@@ 10020e38     CheckScanner.obj
 0002:00000e4c       ??_7?$CComContainedObject@VCOPOSCheckScanner@@@ATL@@6B?$CWindowImpl@VCOPOSCheckScanner@@VCWindow@ATL@@V?$CWinTraits@$0FGAAAAAA@$0A@@3@@1@@ 10020e4c     CheckScanner.obj
 0002:00000e5c       ??_7?$CComContainedObject@VCOPOSCheckScanner@@@ATL@@6B?$IPersistStreamInitImpl@VCOPOSCheckScanner@@@1@@ 10020e5c     CheckScanner.obj
 0002:00000e80       ??_7?$CComContainedObject@VCOPOSCheckScanner@@@ATL@@6B?$IOleControlImpl@VCOPOSCheckScanner@@@1@@ 10020e80     CheckScanner.obj
 0002:00000e9c       ??_7?$CComContainedObject@VCOPOSCheckScanner@@@ATL@@6B?$IOleObjectImpl@VCOPOSCheckScanner@@@1@@ 10020e9c     CheckScanner.obj
 0002:00000efc       ??_7?$CComContainedObject@VCOPOSCheckScanner@@@ATL@@6B?$IOleInPlaceActiveObjectImpl@VCOPOSCheckScanner@@@1@@ 10020efc     CheckScanner.obj
 0002:00000f24       ??_7?$CComContainedObject@VCOPOSCheckScanner@@@ATL@@6B?$IViewObjectExImpl@VCOPOSCheckScanner@@@1@@ 10020f24     CheckScanner.obj
 0002:00000f60       ??_7?$CComContainedObject@VCOPOSCheckScanner@@@ATL@@6B?$IOleInPlaceObjectWindowlessImpl@VCOPOSCheckScanner@@@1@@ 10020f60     CheckScanner.obj
 0002:00000f8c       ??_7?$CComContainedObject@VCOPOSCheckScanner@@@ATL@@6B?$IConnectionPointContainerImpl@VCOPOSCheckScanner@@@1@@ 10020f8c     CheckScanner.obj
 0002:00000fa0       ??_7?$CComContainedObject@VCOPOSCheckScanner@@@ATL@@6B?$IPersistStorageImpl@VCOPOSCheckScanner@@@1@@ 10020fa0     CheckScanner.obj
 0002:00000fc8       ??_7?$CComContainedObject@VCOPOSCheckScanner@@@ATL@@6B?$ISpecifyPropertyPagesImpl@VCOPOSCheckScanner@@@1@@ 10020fc8     CheckScanner.obj
 0002:00000fd8       ??_7?$CComContainedObject@VCOPOSCheckScanner@@@ATL@@6B?$IQuickActivateImpl@VCOPOSCheckScanner@@@1@@ 10020fd8     CheckScanner.obj
 0002:00000ff0       ??_7?$CComContainedObject@VCOPOSCheckScanner@@@ATL@@6B?$IDataObjectImpl@VCOPOSCheckScanner@@@1@@ 10020ff0     CheckScanner.obj
 0002:00001020       ??_7?$CComContainedObject@VCOPOSCheckScanner@@@ATL@@6B?$IProvideClassInfo2Impl@$1?CLSID_OPOSCheckScanner@@3U_GUID@@B$1?DIID__IOPOSCheckScannerEvents@@3U2@B$1?LIBID_OposCheckScanner_CCO@@3U2@B$00$0A@VCComTypeInfoHolder@ATL@@@1@@ 10021020     CheckScanner.obj
 0002:00001034       ??_7?$CComContainedObject@VCOPOSCheckScanner@@@ATL@@6B?$IObjectSafetyImpl@VCOPOSCheckScanner@@$02@1@@ 10021034     CheckScanner.obj
 0002:0000104c       ??_7?$CComContainedObject@VCOPOSCheckScanner@@@ATL@@6B?$IPropertyNotifySinkCP@VCOPOSCheckScanner@@VCComDynamicUnkArray@ATL@@@1@@ 1002104c     CheckScanner.obj
 0002:0000106c       ??_7?$CComContainedObject@VCOPOSCheckScanner@@@ATL@@6B?$CProxy_IOPOSEvents@VCOPOSCheckScanner@@@@@ 1002106c     CheckScanner.obj
 0002:0000108c       ??_7?$CComAggObject@VCOPOSCheckScanner@@@ATL@@6B@ 1002108c     CheckScanner.obj
 0002:0000109c       ??_7?$CComObject@VCOPOSCheckScanner@@@ATL@@6B?$IDispatchImpl@UIOPOSCheckScanner@@$1?IID_IOPOSCheckScanner@@3U_GUID@@B$1?LIBID_OposCheckScanner_CCO@@3U3@B$00$0A@VCComTypeInfoHolder@ATL@@@1@@ 1002109c     CheckScanner.obj
 0002:00001248       ??_7?$CComObject@VCOPOSCheckScanner@@@ATL@@6BCComControlBase@1@@ 10021248     CheckScanner.obj
 0002:0000125c       ??_7?$CComObject@VCOPOSCheckScanner@@@ATL@@6B?$CWindowImpl@VCOPOSCheckScanner@@VCWindow@ATL@@V?$CWinTraits@$0FGAAAAAA@$0A@@3@@1@@ 1002125c     CheckScanner.obj
 0002:0000126c       ??_7?$CComObject@VCOPOSCheckScanner@@@ATL@@6B?$IPersistStreamInitImpl@VCOPOSCheckScanner@@@1@@ 1002126c     CheckScanner.obj
 0002:00001290       ??_7?$CComObject@VCOPOSCheckScanner@@@ATL@@6B?$IOleControlImpl@VCOPOSCheckScanner@@@1@@ 10021290     CheckScanner.obj
 0002:000012ac       ??_7?$CComObject@VCOPOSCheckScanner@@@ATL@@6B?$IOleObjectImpl@VCOPOSCheckScanner@@@1@@ 100212ac     CheckScanner.obj
 0002:0000130c       ??_7?$CComObject@VCOPOSCheckScanner@@@ATL@@6B?$IOleInPlaceActiveObjectImpl@VCOPOSCheckScanner@@@1@@ 1002130c     CheckScanner.obj
 0002:00001334       ??_7?$CComObject@VCOPOSCheckScanner@@@ATL@@6B?$IViewObjectExImpl@VCOPOSCheckScanner@@@1@@ 10021334     CheckScanner.obj
 0002:00001370       ??_7?$CComObject@VCOPOSCheckScanner@@@ATL@@6B?$IOleInPlaceObjectWindowlessImpl@VCOPOSCheckScanner@@@1@@ 10021370     CheckScanner.obj
 0002:0000139c       ??_7?$CComObject@VCOPOSCheckScanner@@@ATL@@6B?$IConnectionPointContainerImpl@VCOPOSCheckScanner@@@1@@ 1002139c     CheckScanner.obj
 0002:000013b0       ??_7?$CComObject@VCOPOSCheckScanner@@@ATL@@6B?$IPersistStorageImpl@VCOPOSCheckScanner@@@1@@ 100213b0     CheckScanner.obj
 0002:000013d8       ??_7?$CComObject@VCOPOSCheckScanner@@@ATL@@6B?$ISpecifyPropertyPagesImpl@VCOPOSCheckScanner@@@1@@ 100213d8     CheckScanner.obj
 0002:000013e8       ??_7?$CComObject@VCOPOSCheckScanner@@@ATL@@6B?$IQuickActivateImpl@VCOPOSCheckScanner@@@1@@ 100213e8     CheckScanner.obj
 0002:00001400       ??_7?$CComObject@VCOPOSCheckScanner@@@ATL@@6B?$IDataObjectImpl@VCOPOSCheckScanner@@@1@@ 10021400     CheckScanner.obj
 0002:00001430       ??_7?$CComObject@VCOPOSCheckScanner@@@ATL@@6B?$IProvideClassInfo2Impl@$1?CLSID_OPOSCheckScanner@@3U_GUID@@B$1?DIID__IOPOSCheckScannerEvents@@3U2@B$1?LIBID_OposCheckScanner_CCO@@3U2@B$00$0A@VCComTypeInfoHolder@ATL@@@1@@ 10021430     CheckScanner.obj
 0002:00001444       ??_7?$CComObject@VCOPOSCheckScanner@@@ATL@@6B?$IObjectSafetyImpl@VCOPOSCheckScanner@@$02@1@@ 10021444     CheckScanner.obj
 0002:0000145c       ??_7?$CComObject@VCOPOSCheckScanner@@@ATL@@6B?$IPropertyNotifySinkCP@VCOPOSCheckScanner@@VCComDynamicUnkArray@ATL@@@1@@ 1002145c     CheckScanner.obj
 0002:0000147c       ??_7?$CComObject@VCOPOSCheckScanner@@@ATL@@6B?$CProxy_IOPOSEvents@VCOPOSCheckScanner@@@@@ 1002147c     CheckScanner.obj
 0002:0000149c       ??_C@_1O@GBFKGNEO@?$AAA?$AAT?$AAL?$AA?3?$AA?$CF?$AAp@ 1002149c     CheckScanner.obj
 0002:000014ac       ??_C@_1BA@PICGEGJB@?$AAD?$AAI?$AAS?$AAP?$AAL?$AAA?$AAY@ 100214ac     CheckScanner.obj
 0002:000014bc       __GUID_9bfbbc02_eff1_101a_84ed_00aa00341d07 100214bc     CheckScanner.obj
 0002:000014cc       __GUID_b196b284_bab4_101a_b69c_00aa00341d07 100214cc     CheckScanner.obj
 0002:000014dc       ?_entries@?1??_GetEntries@?$CComEnum@UIEnumConnectionPoints@@$1?_GUID_b196b285_bab4_101a_b69c_00aa00341d07@@3U__s_GUID@@BPAUIConnectionPoint@@V?$_CopyInterface@UIConnectionPoint@@@ATL@@VCComSingleThreadModel@6@@ATL@@SGPBU_ATL_INTMAP_ENTRY@3@XZ@4QBU43@B 100214dc     CheckScanner.obj
 0002:000014f4       __GUID_00020412_0000_0000_c000_000000000046 100214f4     CheckScanner.obj
 0002:00001504       __GUID_00020401_0000_0000_c000_000000000046 10021504     CheckScanner.obj
 0002:00001514       __GUID_55980ba0_35aa_11cf_b671_00aa004cd6d8 10021514     CheckScanner.obj
 0002:00001524       __GUID_b196b28b_bab4_101a_b69c_00aa00341d07 10021524     CheckScanner.obj
 0002:00001534       ??_7?$CComObject@V?$CComEnum@UIEnumConnections@@$1?_GUID_b196b287_bab4_101a_b69c_00aa00341d07@@3U__s_GUID@@BUtagCONNECTDATA@@V?$_Copy@UtagCONNECTDATA@@@ATL@@VCComSingleThreadModel@6@@ATL@@@ATL@@6B@ 10021534     CheckScanner.obj
 0002:00001554       ?_entries@?1??_GetEntries@?$CComEnum@UIEnumConnections@@$1?_GUID_b196b287_bab4_101a_b69c_00aa00341d07@@3U__s_GUID@@BUtagCONNECTDATA@@V?$_Copy@UtagCONNECTDATA@@@ATL@@VCComSingleThreadModel@6@@ATL@@SGPBU_ATL_INTMAP_ENTRY@3@XZ@4QBU43@B 10021554     CheckScanner.obj
 0002:0000156c       ??_C@_0BG@EKFFMJIO@RegOpenKeyTransactedW@ 1002156c     CheckScanner.obj
 0002:00001584       ??_C@_0BI@HAKLOOGP@RegDeleteKeyTransactedW@ 10021584     CheckScanner.obj
 0002:0000159c       ??_C@_0BA@LILAPHGE@RegDeleteKeyExW@ 1002159c     CheckScanner.obj
 0002:000015ac       ??_C@_19ILOCMLCJ@?$AA?4?$AAt?$AAl?$AAb@ 100215ac     CheckScanner.obj
 0002:000015b8       __GUID_0002e012_0000_0000_c000_000000000046 100215b8     CheckScanner.obj
 0002:000015c8       ??_C@_1O@FHBGLCIO@?$AAC?$AAL?$AAS?$AAI?$AAD?$AA?2@ 100215c8     CheckScanner.obj
 0002:000015d8       ??_C@_1CK@IFBKBFAA@?$AA?2?$AAR?$AAe?$AAq?$AAu?$AAi?$AAr?$AAe?$AAd?$AA?5?$AAC?$AAa?$AAt?$AAe?$AAg@ 100215d8     CheckScanner.obj
 0002:00001604       ??_C@_1DA@BIHALFED@?$AA?2?$AAI?$AAm?$AAp?$AAl?$AAe?$AAm?$AAe?$AAn?$AAt?$AAe?$AAd?$AA?5?$AAC?$AAa@ 10021604     CheckScanner.obj
 0002:00001634       ??_C@_1BK@EDKOLFBJ@?$AAO?$AAL?$AAE?$AAA?$AAU?$AAT?$AA3?$AA2?$AA?4?$AAD?$AAL?$AAL@ 10021634     CheckScanner.obj
 0002:00001650       ??_C@_0BJ@CNLFOMHB@UnRegisterTypeLibForUser@ 10021650     CheckScanner.obj
 0002:0000166c       ??_C@_0BH@LBOMMKPJ@RegisterTypeLibForUser@ 1002166c     CheckScanner.obj
 0002:00001684       ??_C@_0P@MMNMMLGK@COFreezeEvents@ 10021684     CheckScannerImpl.obj
 0002:00001694       ??_C@_0BC@OGCGGIMP@GetPropertyNumber@ 10021694     CheckScannerImpl.obj
 0002:000016a8       ??_C@_0BC@MDCNODNB@SetPropertyNumber@ 100216a8     CheckScannerImpl.obj
 0002:000016bc       ??_C@_0BC@CFCCMIMD@GetPropertyString@ 100216bc     CheckScannerImpl.obj
 0002:000016d0       ??_C@_0BC@CJEDNN@SetPropertyString@ 100216d0     CheckScannerImpl.obj
 0002:000016e4       ??_C@_0M@LNPKKKDA@OpenService@ 100216e4     CheckScannerImpl.obj
 0002:000016f0       ??_C@_0M@PCMCHHMH@CheckHealth@ 100216f0     CheckScannerImpl.obj
 0002:000016fc       ??_C@_0M@JGMIDNEK@ClaimDevice@ 100216fc     CheckScannerImpl.obj
 0002:00001708       ??_C@_0L@BNEIFEJC@ClearInput@ 10021708     CheckScannerImpl.obj
 0002:00001714       ??_C@_0N@DDFIIBMP@CloseService@ 10021714     CheckScannerImpl.obj
 0002:00001724       ??_C@_08EEIHICPC@DirectIO@ 10021724     CheckScannerImpl.obj
 0002:00001730       ??_C@_0O@BCPMENMJ@ReleaseDevice@ 10021730     CheckScannerImpl.obj
 0002:00001740       ??_C@_0P@DPMKPLAE@BeginInsertion@ 10021740     CheckScannerImpl.obj
 0002:00001750       ??_C@_0N@PCJLGBKP@BeginRemoval@ 10021750     CheckScannerImpl.obj
 0002:00001760       ??_C@_0L@PODGEKLG@ClearImage@ 10021760     CheckScannerImpl.obj
 0002:0000176c       ??_C@_0P@KHLNPAHD@DefineCropArea@ 1002176c     CheckScannerImpl.obj
 0002:0000177c       ??_C@_0N@MIHLNKHM@EndInsertion@ 1002177c     CheckScannerImpl.obj
 0002:0000178c       ??_C@_0L@FCEKAOMI@EndRemoval@ 1002178c     CheckScannerImpl.obj
 0002:00001798       ??_C@_0O@GNDFJLIB@RetrieveImage@ 10021798     CheckScannerImpl.obj
 0002:000017a8       ??_C@_0P@GFBOJCPH@RetrieveMemory@ 100217a8     CheckScannerImpl.obj
 0002:000017b8       ??_C@_0L@KBNKFBHH@StoreImage@ 100217b8     CheckScannerImpl.obj
 0002:000017c4       ??_C@_0BA@GFABKEEE@ResetStatistics@ 100217c4     CheckScannerImpl.obj
 0002:000017d4       ??_C@_0BD@DPALHJGC@RetrieveStatistics@ 100217d4     CheckScannerImpl.obj
 0002:000017e8       ??_C@_0BB@KOHIKNFC@UpdateStatistics@ 100217e8     CheckScannerImpl.obj
 0002:000017fc       ??_C@_0BH@PBKBNMGB@CompareFirmwareVersion@ 100217fc     CheckScannerImpl.obj
 0002:00001814       ??_C@_0P@FBPDPIPA@UpdateFirmware@ 10021814     CheckScannerImpl.obj
 0002:00001824       ??_C@_0BF@CMAPCJGM@ClearInputProperties@ 10021824     CheckScannerImpl.obj
 0002:0000183c       ??_7?$CProxy_IOPOSEvents@VCOPOSCheckScanner@@@@6B@ 1002183c     CheckScannerImpl.obj
 0002:0000185c       ??_C@_1BA@IFHENID@?$AA?$FL?$AAE?$AAr?$AAr?$AAo?$AAr?$AA?$FN@ 1002185c     CheckScannerImpl.obj
 0002:0000186c       ??_C@_0CP@KDCAACFE@SOFTWARE?2OLEforRetail?2ServiceOP@ 1002186c     CheckScannerImpl.obj
 0002:0000189c       ??_C@_1M@IAIJHCCH@?$AAC?$AAl?$AAo?$AAs?$AAe@ 1002189c     CheckScannerImpl.obj
 0002:000018a8       ??_C@_1M@PCPKGJAH@?$AAC?$AAl?$AAa?$AAi?$AAm@ 100218a8     CheckScannerImpl.obj
 0002:000018b4       ??_C@_1BA@NDFKIOCP@?$AAR?$AAe?$AAl?$AAe?$AAa?$AAs?$AAe@ 100218b4     CheckScannerImpl.obj
 0002:000018c4       ??_C@_0N@BHEGOBJP@CheckScanner@ 100218c4     CheckScannerImpl.obj
 0002:000018d4       ??_C@_1BM@IJMNMBPK@?$AAG?$AAe?$AAt?$AAO?$AAp?$AAe?$AAn?$AAR?$AAe?$AAs?$AAu?$AAl?$AAt@ 100218d4     CheckScannerImpl.obj
 0002:000018f0       _IID_IPropertyNotifySink   100218f0     uuid:ocidl_i.obj
 0002:00001900       _GUID_NULL                 10021900     uuid:cguid_i.obj
 0002:00001910       _CLSID_StdGlobalInterfaceTable 10021910     uuid:cguid_i.obj
 0002:00001920       _IID_IDispatch             10021920     uuid:oaidl_i.obj
 0002:00001930       _CLSID_StdComponentCategoriesMgr 10021930     uuid:ieguids.obj
 0002:00001940       _IID_IUnknown              10021940     uuid:unknwn_i.obj
 0002:00001950       ??_C@_1EC@JIJBPKFM@?$AAa?$AAp?$AAi?$AA?9?$AAm?$AAs?$AA?9?$AAw?$AAi?$AAn?$AA?9?$AAc?$AAo?$AAr?$AAe@ 10021950     LIBCMT:thread_safe_statics.obj
 0002:00001994       ??_C@_1BK@MGMFAEKH@?$AAk?$AAe?$AAr?$AAn?$AAe?$AAl?$AA3?$AA2?$AA?4?$AAd?$AAl?$AAl@ 10021994     LIBCMT:thread_safe_statics.obj
 0002:000019b0       ??_C@_0BJ@JEBJOJFJ@SleepConditionVariableCS@ 100219b0     LIBCMT:thread_safe_statics.obj
 0002:000019cc       ??_C@_0BJ@PGPPEPCC@WakeAllConditionVariable@ 100219cc     LIBCMT:thread_safe_statics.obj
 0002:000019e5       ?nothrow@std@@3Unothrow_t@1@B 100219e5     LIBCMT:std_nothrow.obj
 0002:000019f0       __pDefaultRawDllMain       100219f0     LIBCMT:dll_dllmain.obj
 0002:000019f0       __pRawDllMain              100219f0     LIBCMT:dll_dllmain.obj
 0002:000019f8       ??_7exception@std@@6B@     100219f8     LIBCMT:throw_bad_alloc.obj
 0002:00001a00       ??_C@_0BC@EOODALEL@Unknown?5exception@ 10021a00     LIBCMT:throw_bad_alloc.obj
 0002:00001a18       ??_7bad_alloc@std@@6B@     10021a18     LIBCMT:throw_bad_alloc.obj
 0002:00001a20       ??_C@_0P@GHFPNOJB@bad?5allocation@ 10021a20     LIBCMT:throw_bad_alloc.obj
 0002:00001a34       ??_7bad_array_new_length@std@@6B@ 10021a34     LIBCMT:throw_bad_alloc.obj
 0002:00001a3c       ??_C@_0BF@KINCDENJ@bad?5array?5new?5length@ 10021a3c     LIBCMT:throw_bad_alloc.obj
 0002:00001a58       ??_7type_info@@6B@         10021a58     LIBCMT:std_type_info_static.obj
 0002:00001a5c       _GUID_ATLVer110            10021a5c     atls:atlbase.obj
 0002:00001a70       ??_C@_1IC@ONKHOIDK@?$AAE?$AAR?$AAR?$AAO?$AAR?$AA?5?$AA?3?$AA?5?$AAU?$AAn?$AAa?$AAb?$AAl?$AAe?$AA?5@ 10021a70     atls:atlbase.obj
 0002:00001af4       ??_C@_0N@FJEPLCIH@atlthunk?4dll@ 10021af4     atls:atlthunk.obj
 0002:00001b04       ??_C@_0BG@GAKFHCBM@AtlThunk_AllocateData@ 10021b04     atls:atlthunk.obj
 0002:00001b1c       ??_C@_0BC@JKONFIAH@AtlThunk_InitData@ 10021b1c     atls:atlthunk.obj
 0002:00001b30       ??_C@_0BE@IAOEELAK@AtlThunk_DataToCode@ 10021b30     atls:atlthunk.obj
 0002:00001b44       ??_C@_0BC@GBGKAIPI@AtlThunk_FreeData@ 10021b44     atls:atlthunk.obj
 0002:00001b58       __pDestructExceptionObject 10021b58     libvcruntime:ehhelpers.obj
 0002:00001b60       ??_7bad_exception@std@@6B@ 10021b60     libvcruntime:frame.obj
 0002:00001b68       ??_C@_0O@DPKOEFFH@bad?5exception@ 10021b68     libvcruntime:frame.obj
 0002:00001ef8       ??_C@_08EHJDFFNH@__based?$CI@ 10021ef8     libvcruntime:undname.obj
 0002:00001f04       ??_C@_07KOLFKCDI@__cdecl@  10021f04     libvcruntime:undname.obj
 0002:00001f0c       ??_C@_08GHMPAG@__pascal@   10021f0c     libvcruntime:undname.obj
 0002:00001f18       ??_C@_09IFJBGAPI@__stdcall@ 10021f18     libvcruntime:undname.obj
 0002:00001f24       ??_C@_0L@NPHFGOKO@__thiscall@ 10021f24     libvcruntime:undname.obj
 0002:00001f30       ??_C@_0L@JMKHOMEK@__fastcall@ 10021f30     libvcruntime:undname.obj
 0002:00001f3c       ??_C@_0N@BCKKPABJ@__vectorcall@ 10021f3c     libvcruntime:undname.obj
 0002:00001f4c       ??_C@_09HIJEGCPM@__clrcall@ 10021f4c     libvcruntime:undname.obj
 0002:00001f58       ??_C@_06GHPCKEAG@__eabi@   10021f58     libvcruntime:undname.obj
 0002:00001f60       ??_C@_09IOPIDJLG@__swift_1@ 10021f60     libvcruntime:undname.obj
 0002:00001f6c       ??_C@_09KFNFGKHF@__swift_2@ 10021f6c     libvcruntime:undname.obj
 0002:00001f78       ??_C@_07JOMMBBKO@__ptr64@  10021f78     libvcruntime:undname.obj
 0002:00001f80       ??_C@_0L@PILCLIHE@__restrict@ 10021f80     libvcruntime:undname.obj
 0002:00001f8c       ??_C@_0M@GFIIJFMG@__unaligned@ 10021f8c     libvcruntime:undname.obj
 0002:00001f98       ??_C@_09DHDLOLLB@restrict?$CI@ 10021f98     libvcruntime:undname.obj
 0002:00001fa2       ??_C@_00CNPNBAHC@@         10021fa2     libvcruntime:undname.obj
 0002:00001fa4       ??_C@_04NIHEBCM@?5new@     10021fa4     libvcruntime:undname.obj
 0002:00001fac       ??_C@_07FPCDHGMM@?5delete@ 10021fac     libvcruntime:undname.obj
 0002:00001fb4       ??_C@_01NEMOKFLO@?$DN@     10021fb4     libvcruntime:undname.obj
 0002:00001fb8       ??_C@_02GPIOPFAK@?$DO?$DO@ 10021fb8     libvcruntime:undname.obj
 0002:00001fbc       ??_C@_02FODMEDOG@?$DM?$DM@ 10021fbc     libvcruntime:undname.obj
 0002:00001fc0       ??_C@_01DCLJPIOD@?$CB@     10021fc0     libvcruntime:undname.obj
 0002:00001fc4       ??_C@_02EGOFBIJA@?$DN?$DN@ 10021fc4     libvcruntime:undname.obj
 0002:00001fc8       ??_C@_02FDNJECIE@?$CB?$DN@ 10021fc8     libvcruntime:undname.obj
 0002:00001fcc       ??_C@_02GPECMEKF@?$FL?$FN@ 10021fcc     libvcruntime:undname.obj
 0002:00001fd0       ??_C@_08LHJFAFGD@operator@ 10021fd0     libvcruntime:undname.obj
 0002:00001fdc       ??_C@_02HBOOOICD@?9?$DO@   10021fdc     libvcruntime:undname.obj
 0002:00001fe0       ??_C@_01NBENCBCI@?$CK@     10021fe0     libvcruntime:undname.obj
 0002:00001fe4       ??_C@_02ECNGHCIF@?$CL?$CL@ 10021fe4     libvcruntime:undname.obj
 0002:00001fe8       ??_C@_02BAABKJLB@?9?9@     10021fe8     libvcruntime:undname.obj
 0002:00001fec       ??_C@_01JOAMLHOP@?9@       10021fec     libvcruntime:undname.obj
 0002:00001ff0       ??_C@_01MIFGBAGJ@?$CL@     10021ff0     libvcruntime:undname.obj
 0002:00001ff4       ??_C@_01HNPIGOCE@?$CG@     10021ff4     libvcruntime:undname.obj
 0002:00001ff8       ??_C@_03MNHNFDLC@?9?$DO?$CK@ 10021ff8     libvcruntime:undname.obj
 0002:00001ffc       ??_C@_01KMDKNFGN@?1@       10021ffc     libvcruntime:undname.obj
 0002:00002000       ??_C@_01FGNFDNOH@?$CF@     10022000     libvcruntime:undname.obj
 0002:00002004       ??_C@_01MNNFJEPP@?$DM@     10022004     libvcruntime:undname.obj
 0002:00002008       ??_C@_02EHCHHCKH@?$DM?$DN@ 10022008     libvcruntime:undname.obj
 0002:0000200c       ??_C@_01PPODPGHN@?$DO@     1002200c     libvcruntime:undname.obj
 0002:00002010       ??_C@_02EEKDKGMJ@?$DO?$DN@ 10022010     libvcruntime:undname.obj
 0002:00002014       ??_C@_01IHBHIGKO@?0@       10022014     libvcruntime:undname.obj
 0002:00002018       ??_C@_02HCKGKOFO@?$CI?$CJ@ 10022018     libvcruntime:undname.obj
 0002:0000201c       ??_C@_01PJKLJHI@?$HO@      1002201c     libvcruntime:undname.obj
 0002:00002020       ??_C@_01JKBOJNNK@?$FO@     10022020     libvcruntime:undname.obj
 0002:00002024       ??_C@_01DNKMNLPK@?$HM@     10022024     libvcruntime:undname.obj
 0002:00002028       ??_C@_02PPKAJPJL@?$CG?$CG@ 10022028     libvcruntime:undname.obj
 0002:0000202c       ??_C@_02NONPIBCD@?$HM?$HM@ 1002202c     libvcruntime:undname.obj
 0002:00002030       ??_C@_02FPIMKNGF@?$CK?$DN@ 10022030     libvcruntime:undname.obj
 0002:00002034       ??_C@_02FOEOMHFC@?$CL?$DN@ 10022034     libvcruntime:undname.obj
 0002:00002038       ??_C@_02FKMDLLOA@?9?$DN@   10022038     libvcruntime:undname.obj
 0002:0000203c       ??_C@_02FJEHGPIO@?1?$DN@   1002203c     libvcruntime:undname.obj
 0002:00002040       ??_C@_02FENAOKFI@?$CF?$DN@ 10022040     libvcruntime:undname.obj
 0002:00002044       ??_C@_03IKFCCPFF@?$DO?$DO?$DN@ 10022044     libvcruntime:undname.obj
 0002:00002048       ??_C@_03CDNPDDLA@?$DM?$DM?$DN@ 10022048     libvcruntime:undname.obj
 0002:0000204c       ??_C@_02FGJGFEAB@?$CG?$DN@ 1002204c     libvcruntime:undname.obj
 0002:00002050       ??_C@_02DHLNPPGH@?$HM?$DN@ 10022050     libvcruntime:undname.obj
 0002:00002054       ??_C@_02MHEGNOJ@?$FO?$DN@  10022054     libvcruntime:undname.obj
 0002:00002058       ??_C@_09IFPLHPGF@?$GAvftable?8@ 10022058     libvcruntime:undname.obj
 0002:00002064       ??_C@_09BLBHBJP@?$GAvbtable?8@ 10022064     libvcruntime:undname.obj
 0002:00002070       ??_C@_07FEEIOKP@?$GAvcall?8@ 10022070     libvcruntime:undname.obj
 0002:00002078       ??_C@_08LLFFHHDJ@?$GAtypeof?8@ 10022078     libvcruntime:undname.obj
 0002:00002084       ??_C@_0BF@KDPPACIK@?$GAlocal?5static?5guard?8@ 10022084     libvcruntime:undname.obj
 0002:0000209c       ??_C@_08OBABFOLI@?$GAstring?8@ 1002209c     libvcruntime:undname.obj
 0002:000020a8       ??_C@_0BD@JDLKDPAB@?$GAvbase?5destructor?8@ 100220a8     libvcruntime:undname.obj
 0002:000020bc       ??_C@_0BN@DEGPLNFK@?$GAvector?5deleting?5destructor?8@ 100220bc     libvcruntime:undname.obj
 0002:000020dc       ??_C@_0BO@OBMKPJIG@?$GAdefault?5constructor?5closure?8@ 100220dc     libvcruntime:undname.obj
 0002:000020fc       ??_C@_0BN@IMDCHIKM@?$GAscalar?5deleting?5destructor?8@ 100220fc     libvcruntime:undname.obj
 0002:0000211c       ??_C@_0BO@PFGOCPJJ@?$GAvector?5constructor?5iterator?8@ 1002211c     libvcruntime:undname.obj
 0002:0000213c       ??_C@_0BN@LFPFMEDL@?$GAvector?5destructor?5iterator?8@ 1002213c     libvcruntime:undname.obj
 0002:0000215c       ??_C@_0CE@IKBNEHA@?$GAvector?5vbase?5constructor?5itera@ 1002215c     libvcruntime:undname.obj
 0002:00002180       ??_C@_0BL@NILFHHPC@?$GAvirtual?5displacement?5map?8@ 10022180     libvcruntime:undname.obj
 0002:0000219c       ??_C@_0CB@JONCMFFK@?$GAeh?5vector?5constructor?5iterator@ 1002219c     libvcruntime:undname.obj
 0002:000021c0       ??_C@_0CA@GCEOPDGL@?$GAeh?5vector?5destructor?5iterator?8@ 100221c0     libvcruntime:undname.obj
 0002:000021e0       ??_C@_0CH@OOJPLCPH@?$GAeh?5vector?5vbase?5constructor?5it@ 100221e0     libvcruntime:undname.obj
 0002:00002208       ??_C@_0BL@LLKPOHJI@?$GAcopy?5constructor?5closure?8@ 10022208     libvcruntime:undname.obj
 0002:00002224       ??_C@_0BA@KBCDOMBN@?$GAudt?5returning?8@ 10022224     libvcruntime:undname.obj
 0002:00002234       ??_C@_03KLGMFNMG@?$GAEH@   10022234     libvcruntime:undname.obj
 0002:00002238       ??_C@_05KHLCHHI@?$GARTTI@  10022238     libvcruntime:undname.obj
 0002:00002240       ??_C@_0BA@KKLDJDLB@?$GAlocal?5vftable?8@ 10022240     libvcruntime:undname.obj
 0002:00002250       ??_C@_0CE@IIHCMGGL@?$GAlocal?5vftable?5constructor?5clos@ 10022250     libvcruntime:undname.obj
 0002:00002274       ??_C@_06FHBGPFGH@?5new?$FL?$FN@ 10022274     libvcruntime:undname.obj
 0002:0000227c       ??_C@_09LBNFPBCA@?5delete?$FL?$FN@ 1002227c     libvcruntime:undname.obj
 0002:00002288       ??_C@_0P@HJKNJFNN@?$GAomni?5callsig?8@ 10022288     libvcruntime:undname.obj
 0002:00002298       ??_C@_0BL@CNOONJFP@?$GAplacement?5delete?5closure?8@ 10022298     libvcruntime:undname.obj
 0002:000022b4       ??_C@_0BN@CKNJLHMB@?$GAplacement?5delete?$FL?$FN?5closure?8@ 100222b4     libvcruntime:undname.obj
 0002:000022d4       ??_C@_0CG@CFDHKGGD@?$GAmanaged?5vector?5constructor?5ite@ 100222d4     libvcruntime:undname.obj
 0002:000022fc       ??_C@_0CF@IMGKMJNO@?$GAmanaged?5vector?5destructor?5iter@ 100222fc     libvcruntime:undname.obj
 0002:00002324       ??_C@_0CG@HLDDJMAG@?$GAeh?5vector?5copy?5constructor?5ite@ 10022324     libvcruntime:undname.obj
 0002:0000234c       ??_C@_0CM@FCBBDIGB@?$GAeh?5vector?5vbase?5copy?5construct@ 1002234c     libvcruntime:undname.obj
 0002:00002378       ??_C@_0BL@CLIPGLGB@?$GAdynamic?5initializer?5for?5?8@ 10022378     libvcruntime:undname.obj
 0002:00002394       ??_C@_0CB@PDBIFEP@?$GAdynamic?5atexit?5destructor?5for?5@ 10022394     libvcruntime:undname.obj
 0002:000023b8       ??_C@_0CD@CGAJBKEJ@?$GAvector?5copy?5constructor?5iterat@ 100223b8     libvcruntime:undname.obj
 0002:000023dc       ??_C@_0CJ@GJELGAMM@?$GAvector?5vbase?5copy?5constructor?5@ 100223dc     libvcruntime:undname.obj
 0002:00002408       ??_C@_0CL@FGIJHLCE@?$GAmanaged?5vector?5copy?5constructo@ 10022408     libvcruntime:undname.obj
 0002:00002434       ??_C@_0BM@PMGGMLDN@?$GAlocal?5static?5thread?5guard?8@ 10022434     libvcruntime:undname.obj
 0002:00002450       ??_C@_0N@BDNMDMOL@operator?5?$CC?$CC?5@ 10022450     libvcruntime:undname.obj
 0002:00002460       ??_C@_0BC@GGEBGALA@operator?5co_await@ 10022460     libvcruntime:undname.obj
 0002:00002474       ??_C@_0M@GAAIMMOH@operator?$DM?$DN?$DO@ 10022474     libvcruntime:undname.obj
 0002:00002480       ??_C@_0BC@DAFEJGAK@?5Type?5Descriptor?8@ 10022480     libvcruntime:undname.obj
 0002:00002494       ??_C@_0BM@LDKODKLH@?5Base?5Class?5Descriptor?5at?5?$CI@ 10022494     libvcruntime:undname.obj
 0002:000024b0       ??_C@_0BD@LGICGFMM@?5Base?5Class?5Array?8@ 100224b0     libvcruntime:undname.obj
 0002:000024c4       ??_C@_0BN@MECKDCOJ@?5Class?5Hierarchy?5Descriptor?8@ 100224c4     libvcruntime:undname.obj
 0002:000024e4       ??_C@_0BK@CFCOFLF@?5Complete?5Object?5Locator?8@ 100224e4     libvcruntime:undname.obj
 0002:00002500       ??_C@_0BG@JNJLAMPM@?$GAanonymous?5namespace?8@ 10022500     libvcruntime:undname.obj
 0002:00002524       ??_C@_1DM@KHCHBNEB@?$AAa?$AAp?$AAi?$AA?9?$AAm?$AAs?$AA?9?$AAw?$AAi?$AAn?$AA?9?$AAc?$AAo?$AAr?$AAe@ 10022524     libvcruntime:winapi_downlevel.obj
 0002:00002560       ??_C@_1DK@LPPGFMPP@?$AAa?$AAp?$AAi?$AA?9?$AAm?$AAs?$AA?9?$AAw?$AAi?$AAn?$AA?9?$AAc?$AAo?$AAr?$AAe@ 10022560     libvcruntime:winapi_downlevel.obj
 0002:0000259c       ??_C@_1BC@GDMECMAK@?$AAk?$AAe?$AAr?$AAn?$AAe?$AAl?$AA3?$AA2@ 1002259c     libvcruntime:winapi_downlevel.obj
 0002:000025b0       ??_C@_1BA@PFFKHIOG@?$AAa?$AAp?$AAi?$AA?9?$AAm?$AAs?$AA?9@ 100225b0     libvcruntime:winapi_downlevel.obj
 0002:000025c8       ??_C@_08KNHFBNJ@FlsAlloc@  100225c8     libvcruntime:winapi_downlevel.obj
 0002:000025dc       ??_C@_07PEJMOBNF@FlsFree@  100225dc     libvcruntime:winapi_downlevel.obj
 0002:000025ec       ??_C@_0M@GDNOONDI@FlsGetValue@ 100225ec     libvcruntime:winapi_downlevel.obj
 0002:00002600       ??_C@_0M@JCPCPOEF@FlsSetValue@ 10022600     libvcruntime:winapi_downlevel.obj
 0002:00002614       ??_C@_0BM@HCFOFFN@InitializeCriticalSectionEx@ 10022614     libvcruntime:winapi_downlevel.obj
 0002:00002798       ?format_validation_lookup_table_spectre@__crt_stdio_output@@3V?$spectre_mitigated_lookup_table@Ustate_transition_pair@__crt_stdio_output@@$0IA@@1@B 10022798     libucrt:output.obj
 0002:00002b98       ??_C@_1O@CEDCILHN@?$AA?$CI?$AAn?$AAu?$AAl?$AAl?$AA?$CJ@ 10022b98     libucrt:output.obj
 0002:00002ba8       ??_C@_06OJHGLDPL@?$CInull?$CJ@ 10022ba8     libucrt:output.obj
 0002:00002bb0       ___acrt_exception_action_table 10022bb0     libucrt:exception_filter.obj
 0002:00002c40       ___acrt_signal_action_table_count 10022c40     libucrt:exception_filter.obj
 0002:00002c44       ___acrt_signal_action_first_fpe_index 10022c44     libucrt:exception_filter.obj
 0002:00002c48       ___acrt_signal_action_fpe_count 10022c48     libucrt:exception_filter.obj
 0002:00002c4c       ??_C@_1BI@BGOHAHKC@?$AAm?$AAs?$AAc?$AAo?$AAr?$AAe?$AAe?$AA?4?$AAd?$AAl?$AAl@ 10022c4c     libucrt:exit.obj
 0002:00002c64       ??_C@_0P@MIGLKIOC@CorExitProcess@ 10022c64     libucrt:exit.obj
 0002:00002d48       ??_C@_1EA@JGEFHKEI@?$AAa?$AAp?$AAi?$AA?9?$AAm?$AAs?$AA?9?$AAw?$AAi?$AAn?$AA?9?$AAc?$AAo?$AAr?$AAe@ 10022d48     libucrt:winapi_thunks.obj
 0002:00002d88       ??_C@_1DI@IJCEHOCB@?$AAa?$AAp?$AAi?$AA?9?$AAm?$AAs?$AA?9?$AAw?$AAi?$AAn?$AA?9?$AAc?$AAo?$AAr?$AAe@ 10022d88     libucrt:winapi_thunks.obj
 0002:00002dc0       ??_C@_1EI@MPIAOHOC@?$AAa?$AAp?$AAi?$AA?9?$AAm?$AAs?$AA?9?$AAw?$AAi?$AAn?$AA?9?$AAc?$AAo?$AAr?$AAe@ 10022dc0     libucrt:winapi_thunks.obj
 0002:00002e08       ??_C@_1FK@FPHCKFIE@?$AAa?$AAp?$AAi?$AA?9?$AAm?$AAs?$AA?9?$AAw?$AAi?$AAn?$AA?9?$AAc?$AAo?$AAr?$AAe@ 10022e08     libucrt:winapi_thunks.obj
 0002:00002e68       ??_C@_1EM@DILCGIIO@?$AAa?$AAp?$AAi?$AA?9?$AAm?$AAs?$AA?9?$AAw?$AAi?$AAn?$AA?9?$AAc?$AAo?$AAr?$AAe@ 10022e68     libucrt:winapi_thunks.obj
 0002:00002eb4       ??_C@_1DM@LNCGDDPN@?$AAa?$AAp?$AAi?$AA?9?$AAm?$AAs?$AA?9?$AAw?$AAi?$AAn?$AA?9?$AAc?$AAo?$AAr?$AAe@ 10022eb4     libucrt:winapi_thunks.obj
 0002:00002ef0       ??_C@_1DO@FPAPJEMD@?$AAa?$AAp?$AAi?$AA?9?$AAm?$AAs?$AA?9?$AAw?$AAi?$AAn?$AA?9?$AAc?$AAo?$AAr?$AAe@ 10022ef0     libucrt:winapi_thunks.obj
 0002:00002f30       ??_C@_1DK@NDHNAHIO@?$AAa?$AAp?$AAi?$AA?9?$AAm?$AAs?$AA?9?$AAw?$AAi?$AAn?$AA?9?$AAc?$AAo?$AAr?$AAe@ 10022f30     libucrt:winapi_thunks.obj
 0002:00002f6c       ??_C@_1DM@KGHDGBCM@?$AAa?$AAp?$AAi?$AA?9?$AAm?$AAs?$AA?9?$AAw?$AAi?$AAn?$AA?9?$AAc?$AAo?$AAr?$AAe@ 10022f6c     libucrt:winapi_thunks.obj
 0002:00002fa8       ??_C@_1EO@IJIOEFOH@?$AAa?$AAp?$AAi?$AA?9?$AAm?$AAs?$AA?9?$AAw?$AAi?$AAn?$AA?9?$AAr?$AAt?$AAc?$AAo@ 10022fa8     libucrt:winapi_thunks.obj
 0002:00002ff8       ??_C@_1FG@HHGEKANL@?$AAa?$AAp?$AAi?$AA?9?$AAm?$AAs?$AA?9?$AAw?$AAi?$AAn?$AA?9?$AAs?$AAe?$AAc?$AAu@ 10022ff8     libucrt:winapi_thunks.obj
 0002:00003050       ??_C@_1EG@DBIOJECG@?$AAe?$AAx?$AAt?$AA?9?$AAm?$AAs?$AA?9?$AAw?$AAi?$AAn?$AA?9?$AAn?$AAt?$AAu?$AAs@ 10023050     libucrt:winapi_thunks.obj
 0002:00003098       ??_C@_1EO@FIHMJCLF@?$AAe?$AAx?$AAt?$AA?9?$AAm?$AAs?$AA?9?$AAw?$AAi?$AAn?$AA?9?$AAn?$AAt?$AAu?$AAs@ 10023098     libucrt:winapi_thunks.obj
 0002:000030e8       ??_C@_1BC@DNHGCMLG@?$AAa?$AAd?$AAv?$AAa?$AAp?$AAi?$AA3?$AA2@ 100230e8     libucrt:winapi_thunks.obj
 0002:000030fc       ??_C@_1M@OAIMIKLP@?$AAn?$AAt?$AAd?$AAl?$AAl@ 100230fc     libucrt:winapi_thunks.obj
 0002:00003108       ??_C@_1EG@DPGNFKGC@?$AAa?$AAp?$AAi?$AA?9?$AAm?$AAs?$AA?9?$AAw?$AAi?$AAn?$AA?9?$AAa?$AAp?$AAp?$AAm@ 10023108     libucrt:winapi_thunks.obj
 0002:00003150       ??_C@_1O@BCCLBEOE@?$AAu?$AAs?$AAe?$AAr?$AA3?$AA2@ 10023150     libucrt:winapi_thunks.obj
 0002:00003160       ??_C@_1BA@IAIFMGEF@?$AAe?$AAx?$AAt?$AA?9?$AAm?$AAs?$AA?9@ 10023160     libucrt:winapi_thunks.obj
 0002:00003174       ??_C@_0BA@FHFNEAED@AreFileApisANSI@ 10023174     libucrt:winapi_thunks.obj
 0002:000031b4       ??_C@_0O@KKBNKAPF@LCMapStringEx@ 100231b4     libucrt:winapi_thunks.obj
 0002:000031cc       ??_C@_0BB@HBDEELFH@LocaleNameToLCID@ 100231cc     libucrt:winapi_thunks.obj
 0002:000031e4       ??_C@_0CF@OJOFEIGO@AppPolicyGetProcessTerminationM@ 100231e4     libucrt:winapi_thunks.obj
 0002:00003214       ??_C@_0BI@BKLFFAPO@SetThreadStackGuarantee@ 10023214     libucrt:winapi_thunks.obj
 0002:00003270       ??_C@_03OEIAHPBN@INF@      10023270     libucrt:cvt.obj
 0002:00003274       ??_C@_03OJHLLCGB@inf@      10023274     libucrt:cvt.obj
 0002:00003278       ??_C@_03LKNCIKJB@NAN@      10023278     libucrt:cvt.obj
 0002:0000327c       ??_C@_03LHCJEHON@nan@      1002327c     libucrt:cvt.obj
 0002:00003280       ??_C@_09OFJJIMPC@NAN?$CISNAN?$CJ@ 10023280     libucrt:cvt.obj
 0002:0000328c       ??_C@_09IPFBKMDL@nan?$CIsnan?$CJ@ 1002328c     libucrt:cvt.obj
 0002:00003298       ??_C@_08IKHNHAJ@NAN?$CIIND?$CJ@ 10023298     libucrt:cvt.obj
 0002:000032a4       ??_C@_08OFCDMILK@nan?$CIind?$CJ@ 100232a4     libucrt:cvt.obj
 0002:000032b0       ??_C@_05KLBDPFGC@e?$CL000@ 100232b0     libucrt:cvt.obj
 0002:000032b8       ___lc_time_c               100232b8     libucrt:nlsdata.obj
 0002:0000341c       ??_C@_03KOEHGMDN@Sun@      1002341c     libucrt:nlsdata.obj
 0002:00003420       ??_C@_03PDAGKDH@Mon@       10023420     libucrt:nlsdata.obj
 0002:00003424       ??_C@_03NAGEINEP@Tue@      10023424     libucrt:nlsdata.obj
 0002:00003428       ??_C@_03MHOMLAJA@Wed@      10023428     libucrt:nlsdata.obj
 0002:0000342c       ??_C@_03IOFIKPDN@Thu@      1002342c     libucrt:nlsdata.obj
 0002:00003430       ??_C@_03IDIOELNC@Fri@      10023430     libucrt:nlsdata.obj
 0002:00003434       ??_C@_03FEFJNEK@Sat@       10023434     libucrt:nlsdata.obj
 0002:00003438       ??_C@_06OOPIFAJ@Sunday@    10023438     libucrt:nlsdata.obj
 0002:00003440       ??_C@_06JLEDEDGH@Monday@   10023440     libucrt:nlsdata.obj
 0002:00003448       ??_C@_07BAAGCFCM@Tuesday@  10023448     libucrt:nlsdata.obj
 0002:00003450       ??_C@_09DLIGFAKA@Wednesday@ 10023450     libucrt:nlsdata.obj
 0002:0000345c       ??_C@_08HACCIKIA@Thursday@ 1002345c     libucrt:nlsdata.obj
 0002:00003468       ??_C@_06JECMNKMI@Friday@   10023468     libucrt:nlsdata.obj
 0002:00003470       ??_C@_08INBOOONO@Saturday@ 10023470     libucrt:nlsdata.obj
 0002:0000347c       ??_C@_03JIHJHPIE@Jan@      1002347c     libucrt:nlsdata.obj
 0002:00003480       ??_C@_03HJBDCHOM@Feb@      10023480     libucrt:nlsdata.obj
 0002:00003484       ??_C@_03ODNJBKGA@Mar@      10023484     libucrt:nlsdata.obj
 0002:00003488       ??_C@_03LEOLGMJP@Apr@      10023488     libucrt:nlsdata.obj
 0002:0000348c       ??_C@_03CNMDKL@May@        1002348c     libucrt:nlsdata.obj
 0002:00003490       ??_C@_03IDFGHECI@Jun@      10023490     libucrt:nlsdata.obj
 0002:00003494       ??_C@_03LBGABGKK@Jul@      10023494     libucrt:nlsdata.obj
 0002:00003498       ??_C@_03IFJFEIGA@Aug@      10023498     libucrt:nlsdata.obj
 0002:0000349c       ??_C@_03GGCAPAJC@Sep@      1002349c     libucrt:nlsdata.obj
 0002:000034a0       ??_C@_03BMAOKBAD@Oct@      100234a0     libucrt:nlsdata.obj
 0002:000034a4       ??_C@_03JPJOFNIA@Nov@      100234a4     libucrt:nlsdata.obj
 0002:000034a8       ??_C@_03MKABNOCG@Dec@      100234a8     libucrt:nlsdata.obj
 0002:000034ac       ??_C@_07CGJPFGJA@January@  100234ac     libucrt:nlsdata.obj
 0002:000034b4       ??_C@_08GNJGEPFN@February@ 100234b4     libucrt:nlsdata.obj
 0002:000034c0       ??_C@_05HPCKOFNC@March@    100234c0     libucrt:nlsdata.obj
 0002:000034c8       ??_C@_05DMJDNLEJ@April@    100234c8     libucrt:nlsdata.obj
 0002:000034d0       ??_C@_04CNLMGBGM@June@     100234d0     libucrt:nlsdata.obj
 0002:000034d8       ??_C@_04MIEPOIFP@July@     100234d8     libucrt:nlsdata.obj
 0002:000034e0       ??_C@_06LBBHFDDG@August@   100234e0     libucrt:nlsdata.obj
 0002:000034e8       ??_C@_09BHHEALKD@September@ 100234e8     libucrt:nlsdata.obj
 0002:000034f4       ??_C@_07JJNFCEND@October@  100234f4     libucrt:nlsdata.obj
 0002:000034fc       ??_C@_08HCHEGEOA@November@ 100234fc     libucrt:nlsdata.obj
 0002:00003508       ??_C@_08EDHMEBNP@December@ 10023508     libucrt:nlsdata.obj
 0002:00003514       ??_C@_02DEDBPAFC@AM@       10023514     libucrt:nlsdata.obj
 0002:00003518       ??_C@_02CJNFDJBF@PM@       10023518     libucrt:nlsdata.obj
 0002:0000351c       ??_C@_08BPBNCDIB@MM?1dd?1yy@ 1002351c     libucrt:nlsdata.obj
 0002:00003528       ??_C@_0BE@CKGJFCPC@dddd?0?5MMMM?5dd?0?5yyyy@ 10023528     libucrt:nlsdata.obj
 0002:0000353c       ??_C@_08JCCMCCIL@HH?3mm?3ss@ 1002353c     libucrt:nlsdata.obj
 0002:00003548       ??_C@_17MBGCMIPB@?$AAS?$AAu?$AAn@ 10023548     libucrt:nlsdata.obj
 0002:00003550       ??_C@_17KBOMKBF@?$AAM?$AAo?$AAn@ 10023550     libucrt:nlsdata.obj
 0002:00003558       ??_C@_17BMKGEGOJ@?$AAT?$AAu?$AAe@ 10023558     libucrt:nlsdata.obj
 0002:00003560       ??_C@_17CJEDCEPE@?$AAW?$AAe?$AAd@ 10023560     libucrt:nlsdata.obj
 0002:00003568       ??_C@_17PDPHAADD@?$AAT?$AAh?$AAu@ 10023568     libucrt:nlsdata.obj
 0002:00003570       ??_C@_17HFOLPPLP@?$AAF?$AAr?$AAi@ 10023570     libucrt:nlsdata.obj
 0002:00003578       ??_C@_17GGIBDPIH@?$AAS?$AAa?$AAt@ 10023578     libucrt:nlsdata.obj
 0002:00003580       ??_C@_1O@IHNHDHPB@?$AAS?$AAu?$AAn?$AAd?$AAa?$AAy@ 10023580     libucrt:nlsdata.obj
 0002:00003590       ??_C@_1O@MMNBFLIA@?$AAM?$AAo?$AAn?$AAd?$AAa?$AAy@ 10023590     libucrt:nlsdata.obj
 0002:000035a0       ??_C@_1BA@ENFBFFEK@?$AAT?$AAu?$AAe?$AAs?$AAd?$AAa?$AAy@ 100235a0     libucrt:nlsdata.obj
 0002:000035b0       ??_C@_1BE@EBOGMDOH@?$AAW?$AAe?$AAd?$AAn?$AAe?$AAs?$AAd?$AAa?$AAy@ 100235b0     libucrt:nlsdata.obj
 0002:000035c4       ??_C@_1BC@HHMNLIHE@?$AAT?$AAh?$AAu?$AAr?$AAs?$AAd?$AAa?$AAy@ 100235c4     libucrt:nlsdata.obj
 0002:000035d8       ??_C@_1O@PDICJHAG@?$AAF?$AAr?$AAi?$AAd?$AAa?$AAy@ 100235d8     libucrt:nlsdata.obj
 0002:000035e8       ??_C@_1BC@ENMNNPAJ@?$AAS?$AAa?$AAt?$AAu?$AAr?$AAd?$AAa?$AAy@ 100235e8     libucrt:nlsdata.obj
 0002:000035fc       ??_C@_17DKNBKCHM@?$AAJ?$AAa?$AAn@ 100235fc     libucrt:nlsdata.obj
 0002:00003604       ??_C@_17LMDJEKJN@?$AAF?$AAe?$AAb@ 10023604     libucrt:nlsdata.obj
 0002:0000360c       ??_C@_17CKNLEDEC@?$AAM?$AAa?$AAr@ 1002360c     libucrt:nlsdata.obj
 0002:00003614       ??_C@_17LFPOIHDD@?$AAA?$AAp?$AAr@ 10023614     libucrt:nlsdata.obj
 0002:0000361c       ??_C@_17PNNKMEED@?$AAM?$AAa?$AAy@ 1002361c     libucrt:nlsdata.obj
 0002:00003624       ??_C@_17KCJGOCPB@?$AAJ?$AAu?$AAn@ 10023624     libucrt:nlsdata.obj
 0002:0000362c       ??_C@_17IJPCKHK@?$AAJ?$AAu?$AAl@ 1002362c     libucrt:nlsdata.obj
 0002:00003634       ??_C@_17ICPELBCN@?$AAA?$AAu?$AAg@ 10023634     libucrt:nlsdata.obj
 0002:0000363c       ??_C@_17HCHCOKMG@?$AAS?$AAe?$AAp@ 1002363c     libucrt:nlsdata.obj
 0002:00003644       ??_C@_17FNLKOI@?$AAO?$AAc?$AAt@ 10023644     libucrt:nlsdata.obj
 0002:0000364c       ??_C@_17BBDMLCIG@?$AAN?$AAo?$AAv@ 1002364c     libucrt:nlsdata.obj
 0002:00003654       ??_C@_17EGKACKIF@?$AAD?$AAe?$AAc@ 10023654     libucrt:nlsdata.obj
 0002:0000365c       ??_C@_1BA@EFMEIEBA@?$AAJ?$AAa?$AAn?$AAu?$AAa?$AAr?$AAy@ 1002365c     libucrt:nlsdata.obj
 0002:0000366c       ??_C@_1BC@JGDDFFAM@?$AAF?$AAe?$AAb?$AAr?$AAu?$AAa?$AAr?$AAy@ 1002366c     libucrt:nlsdata.obj
 0002:00003680       ??_C@_1M@IKEENEDF@?$AAM?$AAa?$AAr?$AAc?$AAh@ 10023680     libucrt:nlsdata.obj
 0002:0000368c       ??_C@_1M@GJNLMHFD@?$AAA?$AAp?$AAr?$AAi?$AAl@ 1002368c     libucrt:nlsdata.obj
 0002:00003698       ??_C@_19EPFLPGAP@?$AAJ?$AAu?$AAn?$AAe@ 10023698     libucrt:nlsdata.obj
 0002:000036a4       ??_C@_19BIFMLPCD@?$AAJ?$AAu?$AAl?$AAy@ 100236a4     libucrt:nlsdata.obj
 0002:000036b0       ??_C@_1O@PAHLKOAC@?$AAA?$AAu?$AAg?$AAu?$AAs?$AAt@ 100236b0     libucrt:nlsdata.obj
 0002:000036c0       ??_C@_1BE@DKAAMBJL@?$AAS?$AAe?$AAp?$AAt?$AAe?$AAm?$AAb?$AAe?$AAr@ 100236c0     libucrt:nlsdata.obj
 0002:000036d4       ??_C@_1BA@EPANDLNG@?$AAO?$AAc?$AAt?$AAo?$AAb?$AAe?$AAr@ 100236d4     libucrt:nlsdata.obj
 0002:000036e4       ??_C@_1BC@BGLIFPF@?$AAN?$AAo?$AAv?$AAe?$AAm?$AAb?$AAe?$AAr@ 100236e4     libucrt:nlsdata.obj
 0002:000036f8       ??_C@_1BC@FEMKIFH@?$AAD?$AAe?$AAc?$AAe?$AAm?$AAb?$AAe?$AAr@ 100236f8     libucrt:nlsdata.obj
 0002:0000370c       ??_C@_15ODEHAHHF@?$AAA?$AAM@ 1002370c     libucrt:nlsdata.obj
 0002:00003714       ??_C@_15CLMNNGEL@?$AAP?$AAM@ 10023714     libucrt:nlsdata.obj
 0002:0000371c       ??_C@_1BC@IEBCMHCM@?$AAM?$AAM?$AA?1?$AAd?$AAd?$AA?1?$AAy?$AAy@ 1002371c     libucrt:nlsdata.obj
 0002:00003730       ??_C@_1CI@KNAKOEBC@?$AAd?$AAd?$AAd?$AAd?$AA?0?$AA?5?$AAM?$AAM?$AAM?$AAM?$AA?5?$AAd?$AAd?$AA?0?$AA?5@ 10023730     libucrt:nlsdata.obj
 0002:00003758       ??_C@_1BC@GDGBMEMK@?$AAH?$AAH?$AA?3?$AAm?$AAm?$AA?3?$AAs?$AAs@ 10023758     libucrt:nlsdata.obj
 0002:0000376c       ??_C@_1M@BMHNFIME@?$AAe?$AAn?$AA?9?$AAU?$AAS@ 1002376c     libucrt:nlsdata.obj
 0002:00003788       ??_C@_1M@HPNHIDJI@?$AAj?$AAa?$AA?9?$AAJ?$AAP@ 10023788     libucrt:mbctype.obj
 0002:00003794       ??_C@_1M@BIBDDEMK@?$AAz?$AAh?$AA?9?$AAC?$AAN@ 10023794     libucrt:mbctype.obj
 0002:000037a0       ??_C@_1M@JLOOOEGK@?$AAk?$AAo?$AA?9?$AAK?$AAR@ 100237a0     libucrt:mbctype.obj
 0002:000037ac       ??_C@_1M@CLNBBOPM@?$AAz?$AAh?$AA?9?$AAT?$AAW@ 100237ac     libucrt:mbctype.obj
 0002:000037b8       ___newctype                100237b8     libucrt:ctype.obj
 0002:00003ab8       ___newclmap                10023ab8     libucrt:ctype.obj
 0002:00003c38       ___newcumap                10023c38     libucrt:ctype.obj
 0002:00003db8       __wctype                   10023db8     libucrt:ctype.obj
 0002:000046e0       ??_C@_15EMKDOKLE@?$AAa?$AAr@ 100246e0     libucrt:lcidtoname_downlevel.obj
 0002:000046e8       ??_C@_15KNPADPLH@?$AAb?$AAg@ 100246e8     libucrt:lcidtoname_downlevel.obj
 0002:000046f0       ??_C@_15EDMHLDMO@?$AAc?$AAa@ 100246f0     libucrt:lcidtoname_downlevel.obj
 0002:000046f8       ??_C@_1O@BPEAJADD@?$AAz?$AAh?$AA?9?$AAC?$AAH?$AAS@ 100246f8     libucrt:lcidtoname_downlevel.obj
 0002:00004708       ??_C@_15LJNHCMNK@?$AAc?$AAs@ 10024708     libucrt:lcidtoname_downlevel.obj
 0002:00004710       ??_C@_15FOMCIDHG@?$AAd?$AAa@ 10024710     libucrt:lcidtoname_downlevel.obj
 0002:00004718       ??_C@_15NBKABECB@?$AAd?$AAe@ 10024718     libucrt:lcidtoname_downlevel.obj
 0002:00004720       ??_C@_15GHPEIIAO@?$AAe?$AAl@ 10024720     libucrt:lcidtoname_downlevel.obj
 0002:00004728       ??_C@_15MNPNEAIF@?$AAe?$AAn@ 10024728     libucrt:lcidtoname_downlevel.obj
 0002:00004730       ??_C@_15GPIOMPMH@?$AAe?$AAs@ 10024730     libucrt:lcidtoname_downlevel.obj
 0002:00004738       ??_C@_15NGLOAKJC@?$AAf?$AAi@ 10024738     libucrt:lcidtoname_downlevel.obj
 0002:00004740       ??_C@_15FBKGNKAM@?$AAf?$AAr@ 10024740     libucrt:lcidtoname_downlevel.obj
 0002:00004748       ??_C@_15KGGCNEFK@?$AAh?$AAe@ 10024748     libucrt:lcidtoname_downlevel.obj
 0002:00004750       ??_C@_15PGHLIDMF@?$AAh?$AAu@ 10024750     libucrt:lcidtoname_downlevel.obj
 0002:00004758       ??_C@_15BIEMAPLM@?$AAi?$AAs@ 10024758     libucrt:lcidtoname_downlevel.obj
 0002:00004760       ??_C@_15IFJLDHAF@?$AAi?$AAt@ 10024760     libucrt:lcidtoname_downlevel.obj
 0002:00004768       ??_C@_15GEMIOCAG@?$AAj?$AAa@ 10024768     libucrt:lcidtoname_downlevel.obj
 0002:00004770       ??_C@_15EPELEGJA@?$AAk?$AAo@ 10024770     libucrt:lcidtoname_downlevel.obj
 0002:00004778       ??_C@_15NDDHIMN@?$AAn?$AAl@ 10024778     libucrt:lcidtoname_downlevel.obj
 0002:00004780       ??_C@_15BPIGNHCD@?$AAn?$AAo@ 10024780     libucrt:lcidtoname_downlevel.obj
 0002:00004788       ??_C@_15DEOPBLCG@?$AAp?$AAl@ 10024788     libucrt:lcidtoname_downlevel.obj
 0002:00004790       ??_C@_15KBECGEFG@?$AAp?$AAt@ 10024790     libucrt:lcidtoname_downlevel.obj
 0002:00004798       ??_C@_15GLJCBFMD@?$AAr?$AAo@ 10024798     libucrt:lcidtoname_downlevel.obj
 0002:000047a0       ??_C@_15FEDGKCDI@?$AAr?$AAu@ 100247a0     libucrt:lcidtoname_downlevel.obj
 0002:000047a8       ??_C@_15GLKMLLHM@?$AAh?$AAr@ 100247a8     libucrt:lcidtoname_downlevel.obj
 0002:000047b0       ??_C@_15CPKMFBDB@?$AAs?$AAk@ 100247b0     libucrt:lcidtoname_downlevel.obj
 0002:000047b8       ??_C@_15BAAIOGMK@?$AAs?$AAq@ 100247b8     libucrt:lcidtoname_downlevel.obj
 0002:000047c0       ??_C@_15INNPNOHD@?$AAs?$AAv@ 100247c0     libucrt:lcidtoname_downlevel.obj
 0002:000047c8       ??_C@_15CABMMOGH@?$AAt?$AAh@ 100247c8     libucrt:lcidtoname_downlevel.obj
 0002:000047d0       ??_C@_15BPLIHJJM@?$AAt?$AAr@ 100247d0     libucrt:lcidtoname_downlevel.obj
 0002:000047d8       ??_C@_15NEOEKKDJ@?$AAu?$AAr@ 100247d8     libucrt:lcidtoname_downlevel.obj
 0002:000047e0       ??_C@_15NFICGAJK@?$AAi?$AAd@ 100247e0     libucrt:lcidtoname_downlevel.obj
 0002:000047e8       ??_C@_15PJPFLCCM@?$AAu?$AAk@ 100247e8     libucrt:lcidtoname_downlevel.obj
 0002:000047f0       ??_C@_15HPJPHDM@?$AAb?$AAe@ 100247f0     libucrt:lcidtoname_downlevel.obj
 0002:000047f8       ??_C@_15LCHLGJII@?$AAs?$AAl@ 100247f8     libucrt:lcidtoname_downlevel.obj
 0002:00004800       ??_C@_15PCFJPHHO@?$AAe?$AAt@ 10024800     libucrt:lcidtoname_downlevel.obj
 0002:00004808       ??_C@_15HPFPGODN@?$AAl?$AAv@ 10024808     libucrt:lcidtoname_downlevel.obj
 0002:00004810       ??_C@_15NFFGKGLG@?$AAl?$AAt@ 10024810     libucrt:lcidtoname_downlevel.obj
 0002:00004818       ??_C@_15BDAKCCHN@?$AAf?$AAa@ 10024818     libucrt:lcidtoname_downlevel.obj
 0002:00004820       ??_C@_15NFGIAIAJ@?$AAv?$AAi@ 10024820     libucrt:lcidtoname_downlevel.obj
 0002:00004828       ??_C@_15LMKNDMHN@?$AAh?$AAy@ 10024828     libucrt:lcidtoname_downlevel.obj
 0002:00004830       ??_C@_15IJBHMCFL@?$AAa?$AAz@ 10024830     libucrt:lcidtoname_downlevel.obj
 0002:00004838       ??_C@_15EKOFJABL@?$AAe?$AAu@ 10024838     libucrt:lcidtoname_downlevel.obj
 0002:00004840       ??_C@_15BGHADCNK@?$AAm?$AAk@ 10024840     libucrt:lcidtoname_downlevel.obj
 0002:00004848       ??_C@_15JDNICKHM@?$AAa?$AAf@ 10024848     libucrt:lcidtoname_downlevel.obj
 0002:00004850       ??_C@_15KPJEDBKD@?$AAk?$AAa@ 10024850     libucrt:lcidtoname_downlevel.obj
 0002:00004858       ??_C@_15PDNFFFEO@?$AAf?$AAo@ 10024858     libucrt:lcidtoname_downlevel.obj
 0002:00004860       ??_C@_15OMLEGLOC@?$AAh?$AAi@ 10024860     libucrt:lcidtoname_downlevel.obj
 0002:00004868       ??_C@_15IDNNENKK@?$AAm?$AAs@ 10024868     libucrt:lcidtoname_downlevel.obj
 0002:00004870       ??_C@_15MACJNBMH@?$AAk?$AAk@ 10024870     libucrt:lcidtoname_downlevel.obj
 0002:00004878       ??_C@_15DKDJEOND@?$AAk?$AAy@ 10024878     libucrt:lcidtoname_downlevel.obj
 0002:00004880       ??_C@_15DFGDLJBG@?$AAs?$AAw@ 10024880     libucrt:lcidtoname_downlevel.obj
 0002:00004888       ??_C@_15BBFAICNG@?$AAu?$AAz@ 10024888     libucrt:lcidtoname_downlevel.obj
 0002:00004890       ??_C@_15DKNDCGEA@?$AAt?$AAt@ 10024890     libucrt:lcidtoname_downlevel.obj
 0002:00004898       ??_C@_15MGIFMDPL@?$AAp?$AAa@ 10024898     libucrt:lcidtoname_downlevel.obj
 0002:000048a0       ??_C@_15HCNDBBA@?$AAg?$AAu@ 100248a0     libucrt:lcidtoname_downlevel.obj
 0002:000048a8       ??_C@_15FNBEIBON@?$AAt?$AAa@ 100248a8     libucrt:lcidtoname_downlevel.obj
 0002:000048b0       ??_C@_15NCHGBGLK@?$AAt?$AAe@ 100248b0     libucrt:lcidtoname_downlevel.obj
 0002:000048b8       ??_C@_15PHPHCBPF@?$AAk?$AAn@ 100248b8     libucrt:lcidtoname_downlevel.obj
 0002:000048c0       ??_C@_15DLGBCKMP@?$AAm?$AAr@ 100248c0     libucrt:lcidtoname_downlevel.obj
 0002:000048c8       ??_C@_15EABBLBFF@?$AAs?$AAa@ 100248c8     libucrt:lcidtoname_downlevel.obj
 0002:000048d0       ??_C@_15CBKOMCOI@?$AAm?$AAn@ 100248d0     libucrt:lcidtoname_downlevel.obj
 0002:000048d8       ??_C@_15CKDMCJAF@?$AAg?$AAl@ 100248d8     libucrt:lcidtoname_downlevel.obj
 0002:000048e0       ??_C@_17CNJFBPG@?$AAk?$AAo?$AAk@ 100248e0     libucrt:lcidtoname_downlevel.obj
 0002:000048e8       ??_C@_17FFBJICPL@?$AAs?$AAy?$AAr@ 100248e8     libucrt:lcidtoname_downlevel.obj
 0002:000048f0       ??_C@_17KPNDCPAF@?$AAd?$AAi?$AAv@ 100248f0     libucrt:lcidtoname_downlevel.obj
 0002:000048f8       ??_C@_1M@OKAHONE@?$AAa?$AAr?$AA?9?$AAS?$AAA@ 100248f8     libucrt:lcidtoname_downlevel.obj
 0002:00004904       ??_C@_1M@FFFIGIGK@?$AAb?$AAg?$AA?9?$AAB?$AAG@ 10024904     libucrt:lcidtoname_downlevel.obj
 0002:00004910       ??_C@_1M@BJNKEDC@?$AAc?$AAa?$AA?9?$AAE?$AAS@ 10024910     libucrt:lcidtoname_downlevel.obj
 0002:0000491c       ??_C@_1M@IJJHFJHA@?$AAc?$AAs?$AA?9?$AAC?$AAZ@ 1002491c     libucrt:lcidtoname_downlevel.obj
 0002:00004928       ??_C@_1M@CLPEOBGI@?$AAd?$AAa?$AA?9?$AAD?$AAK@ 10024928     libucrt:lcidtoname_downlevel.obj
 0002:00004934       ??_C@_1M@MCMADGCB@?$AAd?$AAe?$AA?9?$AAD?$AAE@ 10024934     libucrt:lcidtoname_downlevel.obj
 0002:00004940       ??_C@_1M@OOCKEMAM@?$AAe?$AAl?$AA?9?$AAG?$AAR@ 10024940     libucrt:lcidtoname_downlevel.obj
 0002:0000494c       ??_C@_1M@DDNJFGID@?$AAf?$AAi?$AA?9?$AAF?$AAI@ 1002494c     libucrt:lcidtoname_downlevel.obj
 0002:00004958       ??_C@_1M@GLIPPMAC@?$AAf?$AAr?$AA?9?$AAF?$AAR@ 10024958     libucrt:lcidtoname_downlevel.obj
 0002:00004964       ??_C@_1M@GFMCHPE@?$AAh?$AAe?$AA?9?$AAI?$AAL@ 10024964     libucrt:lcidtoname_downlevel.obj
 0002:00004970       ??_C@_1M@MHLPGNKM@?$AAh?$AAu?$AA?9?$AAH?$AAU@ 10024970     libucrt:lcidtoname_downlevel.obj
 0002:0000497c       ??_C@_1M@LPDDNNPN@?$AAi?$AAs?$AA?9?$AAI?$AAS@ 1002497c     libucrt:lcidtoname_downlevel.obj
 0002:00004988       ??_C@_1M@MADIPODN@?$AAi?$AAt?$AA?9?$AAI?$AAT@ 10024988     libucrt:lcidtoname_downlevel.obj
 0002:00004994       ??_C@_1M@IHBJJGG@?$AAn?$AAl?$AA?9?$AAN?$AAL@ 10024994     libucrt:lcidtoname_downlevel.obj
 0002:000049a0       ??_C@_1M@EANAGDL@?$AAn?$AAb?$AA?9?$AAN?$AAO@ 100249a0     libucrt:lcidtoname_downlevel.obj
 0002:000049ac       ??_C@_1M@NEIEMEGP@?$AAp?$AAl?$AA?9?$AAP?$AAL@ 100249ac     libucrt:lcidtoname_downlevel.obj
 0002:000049b8       ??_C@_1M@BOCFIGEP@?$AAp?$AAt?$AA?9?$AAB?$AAR@ 100249b8     libucrt:lcidtoname_downlevel.obj
 0002:000049c4       ??_C@_1M@IMPFOPBG@?$AAr?$AAo?$AA?9?$AAR?$AAO@ 100249c4     libucrt:lcidtoname_downlevel.obj
 0002:000049d0       ??_C@_1M@IDNNEJMM@?$AAr?$AAu?$AA?9?$AAR?$AAU@ 100249d0     libucrt:lcidtoname_downlevel.obj
 0002:000049dc       ??_C@_1M@LILEEOGM@?$AAh?$AAr?$AA?9?$AAH?$AAR@ 100249dc     libucrt:lcidtoname_downlevel.obj
 0002:000049e8       ??_C@_1M@FKIFEHPB@?$AAs?$AAk?$AA?9?$AAS?$AAK@ 100249e8     libucrt:lcidtoname_downlevel.obj
 0002:000049f4       ??_C@_1M@LJMAMNPJ@?$AAs?$AAq?$AA?9?$AAA?$AAL@ 100249f4     libucrt:lcidtoname_downlevel.obj
 0002:00004a00       ??_C@_1M@GIAKDKJK@?$AAs?$AAv?$AA?9?$AAS?$AAE@ 10024a00     libucrt:lcidtoname_downlevel.obj
 0002:00004a0c       ??_C@_1M@MKJKIKCL@?$AAt?$AAh?$AA?9?$AAT?$AAH@ 10024a0c     libucrt:lcidtoname_downlevel.obj
 0002:00004a18       ??_C@_1M@MFLCCMPB@?$AAt?$AAr?$AA?9?$AAT?$AAR@ 10024a18     libucrt:lcidtoname_downlevel.obj
 0002:00004a24       ??_C@_1M@OIJHDKJN@?$AAu?$AAr?$AA?9?$AAP?$AAK@ 10024a24     libucrt:lcidtoname_downlevel.obj
 0002:00004a30       ??_C@_1M@LHIPCIEK@?$AAi?$AAd?$AA?9?$AAI?$AAD@ 10024a30     libucrt:lcidtoname_downlevel.obj
 0002:00004a3c       ??_C@_1M@MFMOBGI@?$AAu?$AAk?$AA?9?$AAU?$AAA@ 10024a3c     libucrt:lcidtoname_downlevel.obj
 0002:00004a48       ??_C@_1M@OBGLJIPL@?$AAb?$AAe?$AA?9?$AAB?$AAY@ 10024a48     libucrt:lcidtoname_downlevel.obj
 0002:00004a54       ??_C@_1M@BCFAJEAD@?$AAs?$AAl?$AA?9?$AAS?$AAI@ 10024a54     libucrt:lcidtoname_downlevel.obj
 0002:00004a60       ??_C@_1M@FKFFEDDN@?$AAe?$AAt?$AA?9?$AAE?$AAE@ 10024a60     libucrt:lcidtoname_downlevel.obj
 0002:00004a6c       ??_C@_1M@KGKKAACI@?$AAl?$AAv?$AA?9?$AAL?$AAV@ 10024a6c     libucrt:lcidtoname_downlevel.obj
 0002:00004a78       ??_C@_1M@IFGBIJO@?$AAl?$AAt?$AA?9?$AAL?$AAT@ 10024a78     libucrt:lcidtoname_downlevel.obj
 0002:00004a84       ??_C@_1M@FGEAHEDM@?$AAf?$AAa?$AA?9?$AAI?$AAR@ 10024a84     libucrt:lcidtoname_downlevel.obj
 0002:00004a90       ??_C@_1M@KBMAIBFN@?$AAv?$AAi?$AA?9?$AAV?$AAN@ 10024a90     libucrt:lcidtoname_downlevel.obj
 0002:00004a9c       ??_C@_1M@GPCBKDJK@?$AAh?$AAy?$AA?9?$AAA?$AAM@ 10024a9c     libucrt:lcidtoname_downlevel.obj
 0002:00004aa8       ??_C@_1BG@BECMDDJB@?$AAa?$AAz?$AA?9?$AAA?$AAZ?$AA?9?$AAL?$AAa?$AAt?$AAn@ 10024aa8     libucrt:lcidtoname_downlevel.obj
 0002:00004ac0       ??_C@_1M@MAOFCAEA@?$AAe?$AAu?$AA?9?$AAE?$AAS@ 10024ac0     libucrt:lcidtoname_downlevel.obj
 0002:00004acc       ??_C@_1M@IGHABKPI@?$AAm?$AAk?$AA?9?$AAM?$AAK@ 10024acc     libucrt:lcidtoname_downlevel.obj
 0002:00004ad8       ??_C@_1M@IAIGNEJG@?$AAt?$AAn?$AA?9?$AAZ?$AAA@ 10024ad8     libucrt:lcidtoname_downlevel.obj
 0002:00004ae4       ??_C@_1M@IIJCOJFA@?$AAx?$AAh?$AA?9?$AAZ?$AAA@ 10024ae4     libucrt:lcidtoname_downlevel.obj
 0002:00004af0       ??_C@_1M@LGPJHNJH@?$AAz?$AAu?$AA?9?$AAZ?$AAA@ 10024af0     libucrt:lcidtoname_downlevel.obj
 0002:00004afc       ??_C@_1M@HOKAOIO@?$AAa?$AAf?$AA?9?$AAZ?$AAA@ 10024afc     libucrt:lcidtoname_downlevel.obj
 0002:00004b08       ??_C@_1M@DPCLHLIE@?$AAk?$AAa?$AA?9?$AAG?$AAE@ 10024b08     libucrt:lcidtoname_downlevel.obj
 0002:00004b14       ??_C@_1M@BLKMHJBI@?$AAf?$AAo?$AA?9?$AAF?$AAO@ 10024b14     libucrt:lcidtoname_downlevel.obj
 0002:00004b20       ??_C@_1M@LGGJAPPB@?$AAh?$AAi?$AA?9?$AAI?$AAN@ 10024b20     libucrt:lcidtoname_downlevel.obj
 0002:00004b2c       ??_C@_1M@FIKPIHFE@?$AAm?$AAt?$AA?9?$AAM?$AAT@ 10024b2c     libucrt:lcidtoname_downlevel.obj
 0002:00004b38       ??_C@_1M@HEGGPBFA@?$AAs?$AAe?$AA?9?$AAN?$AAO@ 10024b38     libucrt:lcidtoname_downlevel.obj
 0002:00004b44       ??_C@_1M@EIBJEEPA@?$AAm?$AAs?$AA?9?$AAM?$AAY@ 10024b44     libucrt:lcidtoname_downlevel.obj
 0002:00004b50       ??_C@_1M@FHLBGMPP@?$AAk?$AAk?$AA?9?$AAK?$AAZ@ 10024b50     libucrt:lcidtoname_downlevel.obj
 0002:00004b5c       ??_C@_1M@NGJJLCGI@?$AAk?$AAy?$AA?9?$AAK?$AAG@ 10024b5c     libucrt:lcidtoname_downlevel.obj
 0002:00004b68       ??_C@_1M@GIENNBFC@?$AAs?$AAw?$AA?9?$AAK?$AAE@ 10024b68     libucrt:lcidtoname_downlevel.obj
 0002:00004b74       ??_C@_1BG@NDGMJIMJ@?$AAu?$AAz?$AA?9?$AAU?$AAZ?$AA?9?$AAL?$AAa?$AAt?$AAn@ 10024b74     libucrt:lcidtoname_downlevel.obj
 0002:00004b8c       ??_C@_1M@IDCCIHBC@?$AAt?$AAt?$AA?9?$AAR?$AAU@ 10024b8c     libucrt:lcidtoname_downlevel.obj
 0002:00004b98       ??_C@_1M@LOICPMOJ@?$AAb?$AAn?$AA?9?$AAI?$AAN@ 10024b98     libucrt:lcidtoname_downlevel.obj
 0002:00004ba4       ??_C@_1M@KPKKNEAH@?$AAp?$AAa?$AA?9?$AAI?$AAN@ 10024ba4     libucrt:lcidtoname_downlevel.obj
 0002:00004bb0       ??_C@_1M@PJGPPBOG@?$AAg?$AAu?$AA?9?$AAI?$AAN@ 10024bb0     libucrt:lcidtoname_downlevel.obj
 0002:00004bbc       ??_C@_1M@KMKMOPHI@?$AAt?$AAa?$AA?9?$AAI?$AAN@ 10024bbc     libucrt:lcidtoname_downlevel.obj
 0002:00004bc8       ??_C@_1M@KFEHEPAC@?$AAt?$AAe?$AA?9?$AAI?$AAN@ 10024bc8     libucrt:lcidtoname_downlevel.obj
 0002:00004bd4       ??_C@_1M@CDCLMGHI@?$AAk?$AAn?$AA?9?$AAI?$AAN@ 10024bd4     libucrt:lcidtoname_downlevel.obj
 0002:00004be0       ??_C@_1M@MIODLDKF@?$AAm?$AAl?$AA?9?$AAI?$AAN@ 10024be0     libucrt:lcidtoname_downlevel.obj
 0002:00004bec       ??_C@_1M@PBIEACPO@?$AAm?$AAr?$AA?9?$AAI?$AAN@ 10024bec     libucrt:lcidtoname_downlevel.obj
 0002:00004bf8       ??_C@_1M@NIDEAGPH@?$AAs?$AAa?$AA?9?$AAI?$AAN@ 10024bf8     libucrt:lcidtoname_downlevel.obj
 0002:00004c04       ??_C@_1M@FHIHCBIO@?$AAm?$AAn?$AA?9?$AAM?$AAN@ 10024c04     libucrt:lcidtoname_downlevel.obj
 0002:00004c10       ??_C@_1M@JAIJPENP@?$AAc?$AAy?$AA?9?$AAG?$AAB@ 10024c10     libucrt:lcidtoname_downlevel.obj
 0002:00004c1c       ??_C@_1M@PHGFBEPN@?$AAg?$AAl?$AA?9?$AAE?$AAS@ 10024c1c     libucrt:lcidtoname_downlevel.obj
 0002:00004c28       ??_C@_1O@KPIPDNCP@?$AAk?$AAo?$AAk?$AA?9?$AAI?$AAN@ 10024c28     libucrt:lcidtoname_downlevel.obj
 0002:00004c38       ??_C@_1O@KNHJLDJA@?$AAs?$AAy?$AAr?$AA?9?$AAS?$AAY@ 10024c38     libucrt:lcidtoname_downlevel.obj
 0002:00004c48       ??_C@_1O@MKEKBLAH@?$AAd?$AAi?$AAv?$AA?9?$AAM?$AAV@ 10024c48     libucrt:lcidtoname_downlevel.obj
 0002:00004c58       ??_C@_1O@OHDCKDDF@?$AAq?$AAu?$AAz?$AA?9?$AAB?$AAO@ 10024c58     libucrt:lcidtoname_downlevel.obj
 0002:00004c68       ??_C@_1M@LEPJNLFD@?$AAn?$AAs?$AA?9?$AAZ?$AAA@ 10024c68     libucrt:lcidtoname_downlevel.obj
 0002:00004c74       ??_C@_1M@OMLEIIJB@?$AAm?$AAi?$AA?9?$AAN?$AAZ@ 10024c74     libucrt:lcidtoname_downlevel.obj
 0002:00004c80       ??_C@_1M@PMPEAILG@?$AAa?$AAr?$AA?9?$AAI?$AAQ@ 10024c80     libucrt:lcidtoname_downlevel.obj
 0002:00004c8c       ??_C@_1M@CNKPNOEE@?$AAd?$AAe?$AA?9?$AAC?$AAH@ 10024c8c     libucrt:lcidtoname_downlevel.obj
 0002:00004c98       ??_C@_1M@LKMGMLKO@?$AAe?$AAn?$AA?9?$AAG?$AAB@ 10024c98     libucrt:lcidtoname_downlevel.obj
 0002:00004ca4       ??_C@_1M@PGKJFFGL@?$AAe?$AAs?$AA?9?$AAM?$AAX@ 10024ca4     libucrt:lcidtoname_downlevel.obj
 0002:00004cb0       ??_C@_1M@DNNANBDC@?$AAf?$AAr?$AA?9?$AAB?$AAE@ 10024cb0     libucrt:lcidtoname_downlevel.obj
 0002:00004cbc       ??_C@_1M@HLGMDFHM@?$AAi?$AAt?$AA?9?$AAC?$AAH@ 10024cbc     libucrt:lcidtoname_downlevel.obj
 0002:00004cc8       ??_C@_1M@CLLBGJH@?$AAn?$AAl?$AA?9?$AAB?$AAE@ 10024cc8     libucrt:lcidtoname_downlevel.obj
 0002:00004cd4       ??_C@_1M@BODBOGLF@?$AAn?$AAn?$AA?9?$AAN?$AAO@ 10024cd4     libucrt:lcidtoname_downlevel.obj
 0002:00004ce0       ??_C@_1M@HFFAHKAD@?$AAp?$AAt?$AA?9?$AAP?$AAT@ 10024ce0     libucrt:lcidtoname_downlevel.obj
 0002:00004cec       ??_C@_1BG@LNOAKHIE@?$AAs?$AAr?$AA?9?$AAS?$AAP?$AA?9?$AAL?$AAa?$AAt?$AAn@ 10024cec     libucrt:lcidtoname_downlevel.obj
 0002:00004d04       ??_C@_1M@HBMHBGAK@?$AAs?$AAv?$AA?9?$AAF?$AAI@ 10024d04     libucrt:lcidtoname_downlevel.obj
 0002:00004d10       ??_C@_1BG@DGCJGJBE@?$AAa?$AAz?$AA?9?$AAA?$AAZ?$AA?9?$AAC?$AAy?$AAr?$AAl@ 10024d10     libucrt:lcidtoname_downlevel.obj
 0002:00004d28       ??_C@_1M@KEJDAAHB@?$AAs?$AAe?$AA?9?$AAS?$AAE@ 10024d28     libucrt:lcidtoname_downlevel.obj
 0002:00004d34       ??_C@_1M@HEIBJJAD@?$AAm?$AAs?$AA?9?$AAB?$AAN@ 10024d34     libucrt:lcidtoname_downlevel.obj
 0002:00004d40       ??_C@_1BG@PBGJMCEM@?$AAu?$AAz?$AA?9?$AAU?$AAZ?$AA?9?$AAC?$AAy?$AAr?$AAl@ 10024d40     libucrt:lcidtoname_downlevel.obj
 0002:00004d58       ??_C@_1O@LAOBCMDF@?$AAq?$AAu?$AAz?$AA?9?$AAE?$AAC@ 10024d58     libucrt:lcidtoname_downlevel.obj
 0002:00004d68       ??_C@_1M@POEEMAIO@?$AAa?$AAr?$AA?9?$AAE?$AAG@ 10024d68     libucrt:lcidtoname_downlevel.obj
 0002:00004d74       ??_C@_1M@EFAKDEDL@?$AAz?$AAh?$AA?9?$AAH?$AAK@ 10024d74     libucrt:lcidtoname_downlevel.obj
 0002:00004d80       ??_C@_1M@HKKIJHGI@?$AAd?$AAe?$AA?9?$AAA?$AAT@ 10024d80     libucrt:lcidtoname_downlevel.obj
 0002:00004d8c       ??_C@_1M@KBFBEHJF@?$AAe?$AAn?$AA?9?$AAA?$AAU@ 10024d8c     libucrt:lcidtoname_downlevel.obj
 0002:00004d98       ??_C@_1M@MNPLFAAH@?$AAe?$AAs?$AA?9?$AAE?$AAS@ 10024d98     libucrt:lcidtoname_downlevel.obj
 0002:00004da4       ??_C@_1M@HJOOJFMA@?$AAf?$AAr?$AA?9?$AAC?$AAA@ 10024da4     libucrt:lcidtoname_downlevel.obj
 0002:00004db0       ??_C@_1BG@JPOFPNAB@?$AAs?$AAr?$AA?9?$AAS?$AAP?$AA?9?$AAC?$AAy?$AAr?$AAl@ 10024db0     libucrt:lcidtoname_downlevel.obj
 0002:00004dc8       ??_C@_1M@LNFOCMOB@?$AAs?$AAe?$AA?9?$AAF?$AAI@ 10024dc8     libucrt:lcidtoname_downlevel.obj
 0002:00004dd4       ??_C@_1O@MGJBOAMB@?$AAq?$AAu?$AAz?$AA?9?$AAP?$AAE@ 10024dd4     libucrt:lcidtoname_downlevel.obj
 0002:00004de4       ??_C@_1M@GJINLBOK@?$AAa?$AAr?$AA?9?$AAL?$AAY@ 10024de4     libucrt:lcidtoname_downlevel.obj
 0002:00004df0       ??_C@_1M@GGMNHJNL@?$AAz?$AAh?$AA?9?$AAS?$AAG@ 10024df0     libucrt:lcidtoname_downlevel.obj
 0002:00004dfc       ??_C@_1M@HOIKODND@?$AAd?$AAe?$AA?9?$AAL?$AAU@ 10024dfc     libucrt:lcidtoname_downlevel.obj
 0002:00004e08       ??_C@_1M@DDOCCGFG@?$AAe?$AAn?$AA?9?$AAC?$AAA@ 10024e08     libucrt:lcidtoname_downlevel.obj
 0002:00004e14       ??_C@_1M@BNOEMJLF@?$AAe?$AAs?$AA?9?$AAG?$AAT@ 10024e14     libucrt:lcidtoname_downlevel.obj
 0002:00004e20       ??_C@_1M@EOGNKEK@?$AAf?$AAr?$AA?9?$AAC?$AAH@ 10024e20     libucrt:lcidtoname_downlevel.obj
 0002:00004e2c       ??_C@_1M@FLIDJFHL@?$AAh?$AAr?$AA?9?$AAB?$AAA@ 10024e2c     libucrt:lcidtoname_downlevel.obj
 0002:00004e38       ??_C@_1O@FMCELNAJ@?$AAs?$AAm?$AAj?$AA?9?$AAN?$AAO@ 10024e38     libucrt:lcidtoname_downlevel.obj
 0002:00004e48       ??_C@_1M@JHGLJMGJ@?$AAa?$AAr?$AA?9?$AAD?$AAZ@ 10024e48     libucrt:lcidtoname_downlevel.obj
 0002:00004e54       ??_C@_1M@JKKFDCNP@?$AAz?$AAh?$AA?9?$AAM?$AAO@ 10024e54     libucrt:lcidtoname_downlevel.obj
 0002:00004e60       ??_C@_1M@GEEFALPE@?$AAd?$AAe?$AA?9?$AAL?$AAI@ 10024e60     libucrt:lcidtoname_downlevel.obj
 0002:00004e6c       ??_C@_1M@IGEOFBG@?$AAe?$AAn?$AA?9?$AAN?$AAZ@ 10024e6c     libucrt:lcidtoname_downlevel.obj
 0002:00004e78       ??_C@_1M@KDBONEHP@?$AAe?$AAs?$AA?9?$AAC?$AAR@ 10024e78     libucrt:lcidtoname_downlevel.obj
 0002:00004e84       ??_C@_1M@FHMDOHNN@?$AAf?$AAr?$AA?9?$AAL?$AAU@ 10024e84     libucrt:lcidtoname_downlevel.obj
 0002:00004e90       ??_C@_1BG@NFKKMAFG@?$AAb?$AAs?$AA?9?$AAB?$AAA?$AA?9?$AAL?$AAa?$AAt?$AAn@ 10024e90     libucrt:lcidtoname_downlevel.obj
 0002:00004ea8       ??_C@_1O@IMNBEMCI@?$AAs?$AAm?$AAj?$AA?9?$AAS?$AAE@ 10024ea8     libucrt:lcidtoname_downlevel.obj
 0002:00004eb8       ??_C@_1M@DHHMBNDP@?$AAa?$AAr?$AA?9?$AAM?$AAA@ 10024eb8     libucrt:lcidtoname_downlevel.obj
 0002:00004ec4       ??_C@_1M@BNBLJCGH@?$AAe?$AAn?$AA?9?$AAI?$AAE@ 10024ec4     libucrt:lcidtoname_downlevel.obj
 0002:00004ed0       ??_C@_1M@GEPAFMDL@?$AAe?$AAs?$AA?9?$AAP?$AAA@ 10024ed0     libucrt:lcidtoname_downlevel.obj
 0002:00004edc       ??_C@_1M@OJONDMDL@?$AAf?$AAr?$AA?9?$AAM?$AAC@ 10024edc     libucrt:lcidtoname_downlevel.obj
 0002:00004ee8       ??_C@_1BG@OBCNFJB@?$AAs?$AAr?$AA?9?$AAB?$AAA?$AA?9?$AAL?$AAa?$AAt?$AAn@ 10024ee8     libucrt:lcidtoname_downlevel.obj
 0002:00004f00       ??_C@_1O@KEMEEGPO@?$AAs?$AAm?$AAa?$AA?9?$AAN?$AAO@ 10024f00     libucrt:lcidtoname_downlevel.obj
 0002:00004f10       ??_C@_1M@ELMGFODK@?$AAa?$AAr?$AA?9?$AAT?$AAN@ 10024f10     libucrt:lcidtoname_downlevel.obj
 0002:00004f1c       ??_C@_1M@BHDLHFAF@?$AAe?$AAn?$AA?9?$AAZ?$AAA@ 10024f1c     libucrt:lcidtoname_downlevel.obj
 0002:00004f28       ??_C@_1M@BMGIGLIF@?$AAe?$AAs?$AA?9?$AAD?$AAO@ 10024f28     libucrt:lcidtoname_downlevel.obj
 0002:00004f34       ??_C@_1BG@CMBHIPBE@?$AAs?$AAr?$AA?9?$AAB?$AAA?$AA?9?$AAC?$AAy?$AAr?$AAl@ 10024f34     libucrt:lcidtoname_downlevel.obj
 0002:00004f4c       ??_C@_1O@HEDBLHNP@?$AAs?$AAm?$AAa?$AA?9?$AAS?$AAE@ 10024f4c     libucrt:lcidtoname_downlevel.obj
 0002:00004f5c       ??_C@_1M@DAGCADIM@?$AAa?$AAr?$AA?9?$AAO?$AAM@ 10024f5c     libucrt:lcidtoname_downlevel.obj
 0002:00004f68       ??_C@_1M@FODLMICG@?$AAe?$AAn?$AA?9?$AAJ?$AAM@ 10024f68     libucrt:lcidtoname_downlevel.obj
 0002:00004f74       ??_C@_1M@DNMLCIHB@?$AAe?$AAs?$AA?9?$AAV?$AAE@ 10024f74     libucrt:lcidtoname_downlevel.obj
 0002:00004f80       ??_C@_1O@EOKHMKJK@?$AAs?$AAm?$AAs?$AA?9?$AAF?$AAI@ 10024f80     libucrt:lcidtoname_downlevel.obj
 0002:00004f90       ??_C@_1M@CAFJMKOF@?$AAa?$AAr?$AA?9?$AAY?$AAE@ 10024f90     libucrt:lcidtoname_downlevel.obj
 0002:00004f9c       ??_C@_1M@CBFHIJLI@?$AAe?$AAn?$AA?9?$AAC?$AAB@ 10024f9c     libucrt:lcidtoname_downlevel.obj
 0002:00004fa8       ??_C@_1M@BGNFLDN@?$AAe?$AAs?$AA?9?$AAC?$AAO@ 10024fa8     libucrt:lcidtoname_downlevel.obj
 0002:00004fb4       ??_C@_1O@JMPHMAMC@?$AAs?$AAm?$AAn?$AA?9?$AAF?$AAI@ 10024fb4     libucrt:lcidtoname_downlevel.obj
 0002:00004fc4       ??_C@_1M@JLANABKE@?$AAa?$AAr?$AA?9?$AAS?$AAY@ 10024fc4     libucrt:lcidtoname_downlevel.obj
 0002:00004fd0       ??_C@_1M@HPKGCFGN@?$AAe?$AAn?$AA?9?$AAB?$AAZ@ 10024fd0     libucrt:lcidtoname_downlevel.obj
 0002:00004fdc       ??_C@_1M@OLJCMLGM@?$AAe?$AAs?$AA?9?$AAP?$AAE@ 10024fdc     libucrt:lcidtoname_downlevel.obj
 0002:00004fe8       ??_C@_1M@MKKGFKLE@?$AAa?$AAr?$AA?9?$AAJ?$AAO@ 10024fe8     libucrt:lcidtoname_downlevel.obj
 0002:00004ff4       ??_C@_1M@EKPGLDNI@?$AAe?$AAn?$AA?9?$AAT?$AAT@ 10024ff4     libucrt:lcidtoname_downlevel.obj
 0002:00005000       ??_C@_1M@OONGHFHE@?$AAe?$AAs?$AA?9?$AAA?$AAR@ 10025000     libucrt:lcidtoname_downlevel.obj
 0002:0000500c       ??_C@_1M@OOJFGBHE@?$AAa?$AAr?$AA?9?$AAL?$AAB@ 1002500c     libucrt:lcidtoname_downlevel.obj
 0002:00005018       ??_C@_1M@GCEJHNEG@?$AAe?$AAn?$AA?9?$AAZ?$AAW@ 10025018     libucrt:lcidtoname_downlevel.obj
 0002:00005024       ??_C@_1M@JNOCAHJI@?$AAe?$AAs?$AA?9?$AAE?$AAC@ 10025024     libucrt:lcidtoname_downlevel.obj
 0002:00005030       ??_C@_1M@JEFHPGGB@?$AAa?$AAr?$AA?9?$AAK?$AAW@ 10025030     libucrt:lcidtoname_downlevel.obj
 0002:0000503c       ??_C@_1M@MLKIBJOJ@?$AAe?$AAn?$AA?9?$AAP?$AAH@ 1002503c     libucrt:lcidtoname_downlevel.obj
 0002:00005048       ??_C@_1M@BDNIPEND@?$AAe?$AAs?$AA?9?$AAC?$AAL@ 10025048     libucrt:lcidtoname_downlevel.obj
 0002:00005054       ??_C@_1M@MPNMEKBD@?$AAa?$AAr?$AA?9?$AAA?$AAE@ 10025054     libucrt:lcidtoname_downlevel.obj
 0002:00005060       ??_C@_1M@KBJALCPI@?$AAe?$AAs?$AA?9?$AAU?$AAY@ 10025060     libucrt:lcidtoname_downlevel.obj
 0002:0000506c       ??_C@_1M@LLCCOAGA@?$AAa?$AAr?$AA?9?$AAB?$AAH@ 1002506c     libucrt:lcidtoname_downlevel.obj
 0002:00005078       ??_C@_1M@PBFNCDEL@?$AAe?$AAs?$AA?9?$AAP?$AAY@ 10025078     libucrt:lcidtoname_downlevel.obj
 0002:00005084       ??_C@_1M@EDGINPNP@?$AAa?$AAr?$AA?9?$AAQ?$AAA@ 10025084     libucrt:lcidtoname_downlevel.obj
 0002:00005090       ??_C@_1M@MKDBIIJI@?$AAe?$AAs?$AA?9?$AAB?$AAO@ 10025090     libucrt:lcidtoname_downlevel.obj
 0002:0000509c       ??_C@_1M@CPKKEBLD@?$AAe?$AAs?$AA?9?$AAS?$AAV@ 1002509c     libucrt:lcidtoname_downlevel.obj
 0002:000050a8       ??_C@_1M@NDBGMMJL@?$AAe?$AAs?$AA?9?$AAH?$AAN@ 100250a8     libucrt:lcidtoname_downlevel.obj
 0002:000050b4       ??_C@_1M@JIJIBHDP@?$AAe?$AAs?$AA?9?$AAN?$AAI@ 100250b4     libucrt:lcidtoname_downlevel.obj
 0002:000050c0       ??_C@_1M@CGFMKEEK@?$AAe?$AAs?$AA?9?$AAP?$AAR@ 100250c0     libucrt:lcidtoname_downlevel.obj
 0002:000050cc       ??_C@_1O@ICJHKIIK@?$AAz?$AAh?$AA?9?$AAC?$AAH?$AAT@ 100250cc     libucrt:lcidtoname_downlevel.obj
 0002:000050dc       ??_C@_15CLNEJCE@?$AAs?$AAr@ 100250dc     libucrt:lcidtoname_downlevel.obj
 0002:00005808       ??_C@_1M@KAHEKEIG@?$AAa?$AAf?$AA?9?$AAz?$AAa@ 10025808     libucrt:lcidtoname_downlevel.obj
 0002:00005814       ??_C@_1M@GIECOABL@?$AAa?$AAr?$AA?9?$AAa?$AAe@ 10025814     libucrt:lcidtoname_downlevel.obj
 0002:00005820       ??_C@_1M@BMLMEKGI@?$AAa?$AAr?$AA?9?$AAb?$AAh@ 10025820     libucrt:lcidtoname_downlevel.obj
 0002:0000582c       ??_C@_1M@DAPFDGGB@?$AAa?$AAr?$AA?9?$AAd?$AAz@ 1002582c     libucrt:lcidtoname_downlevel.obj
 0002:00005838       ??_C@_1M@FJNKGKIG@?$AAa?$AAr?$AA?9?$AAe?$AAg@ 10025838     libucrt:lcidtoname_downlevel.obj
 0002:00005844       ??_C@_1M@FLGKKCLO@?$AAa?$AAr?$AA?9?$AAi?$AAq@ 10025844     libucrt:lcidtoname_downlevel.obj
 0002:00005850       ??_C@_1M@GNDIPALM@?$AAa?$AAr?$AA?9?$AAj?$AAo@ 10025850     libucrt:lcidtoname_downlevel.obj
 0002:0000585c       ??_C@_1M@DDMJFMGJ@?$AAa?$AAr?$AA?9?$AAk?$AAw@ 1002585c     libucrt:lcidtoname_downlevel.obj
 0002:00005868       ??_C@_1M@EJALMLHM@?$AAa?$AAr?$AA?9?$AAl?$AAb@ 10025868     libucrt:lcidtoname_downlevel.obj
 0002:00005874       ??_C@_1M@MOBDBLOC@?$AAa?$AAr?$AA?9?$AAl?$AAy@ 10025874     libucrt:lcidtoname_downlevel.obj
 0002:00005880       ??_C@_1M@JAOCLHDH@?$AAa?$AAr?$AA?9?$AAm?$AAa@ 10025880     libucrt:lcidtoname_downlevel.obj
 0002:0000588c       ??_C@_1M@JHPMKJIE@?$AAa?$AAr?$AA?9?$AAo?$AAm@ 1002588c     libucrt:lcidtoname_downlevel.obj
 0002:00005898       ??_C@_1M@OEPGHFNH@?$AAa?$AAr?$AA?9?$AAq?$AAa@ 10025898     libucrt:lcidtoname_downlevel.obj
 0002:000058a4       ??_C@_1M@KJDONENM@?$AAa?$AAr?$AA?9?$AAs?$AAa@ 100258a4     libucrt:lcidtoname_downlevel.obj
 0002:000058b0       ??_C@_1M@DMJDKLKM@?$AAa?$AAr?$AA?9?$AAs?$AAy@ 100258b0     libucrt:lcidtoname_downlevel.obj
 0002:000058bc       ??_C@_1M@OMFIPEDC@?$AAa?$AAr?$AA?9?$AAt?$AAn@ 100258bc     libucrt:lcidtoname_downlevel.obj
 0002:000058c8       ??_C@_1M@IHMHGAON@?$AAa?$AAr?$AA?9?$AAy?$AAe@ 100258c8     libucrt:lcidtoname_downlevel.obj
 0002:000058d4       ??_C@_1BG@KDCPGJGB@?$AAa?$AAz?$AA?9?$AAa?$AAz?$AA?9?$AAc?$AAy?$AAr?$AAl@ 100258d4     libucrt:lcidtoname_downlevel.obj
 0002:000058ec       ??_C@_1BG@IBCKDDOE@?$AAa?$AAz?$AA?9?$AAa?$AAz?$AA?9?$AAl?$AAa?$AAt?$AAn@ 100258ec     libucrt:lcidtoname_downlevel.obj
 0002:00005904       ??_C@_1M@EGPFDCPD@?$AAb?$AAe?$AA?9?$AAb?$AAy@ 10025904     libucrt:lcidtoname_downlevel.obj
 0002:00005910       ??_C@_1M@PCMGMCGC@?$AAb?$AAg?$AA?9?$AAb?$AAg@ 10025910     libucrt:lcidtoname_downlevel.obj
 0002:0000591c       ??_C@_1M@BJBMFGOB@?$AAb?$AAn?$AA?9?$AAi?$AAn@ 1002591c     libucrt:lcidtoname_downlevel.obj
 0002:00005928       ??_C@_1BG@EAKMMACD@?$AAb?$AAs?$AA?9?$AAb?$AAa?$AA?9?$AAl?$AAa?$AAt?$AAn@ 10025928     libucrt:lcidtoname_downlevel.obj
 0002:00005940       ??_C@_1M@KGADAODK@?$AAc?$AAa?$AA?9?$AAe?$AAs@ 10025940     libucrt:lcidtoname_downlevel.obj
 0002:0000594c       ??_C@_1M@COAJPDHI@?$AAc?$AAs?$AA?9?$AAc?$AAz@ 1002594c     libucrt:lcidtoname_downlevel.obj
 0002:00005958       ??_C@_1M@DHBHFONH@?$AAc?$AAy?$AA?9?$AAg?$AAb@ 10025958     libucrt:lcidtoname_downlevel.obj
 0002:00005964       ??_C@_1M@IMGKELGA@?$AAd?$AAa?$AA?9?$AAd?$AAk@ 10025964     libucrt:lcidtoname_downlevel.obj
 0002:00005970       ??_C@_1M@NNDGDNGA@?$AAd?$AAe?$AA?9?$AAa?$AAt@ 10025970     libucrt:lcidtoname_downlevel.obj
 0002:0000597c       ??_C@_1M@IKDBHEEM@?$AAd?$AAe?$AA?9?$AAc?$AAh@ 1002597c     libucrt:lcidtoname_downlevel.obj
 0002:00005988       ??_C@_1M@GFFOJMCJ@?$AAd?$AAe?$AA?9?$AAd?$AAe@ 10025988     libucrt:lcidtoname_downlevel.obj
 0002:00005994       ??_C@_1M@MDNLKBPM@?$AAd?$AAe?$AA?9?$AAl?$AAi@ 10025994     libucrt:lcidtoname_downlevel.obj
 0002:000059a0       ??_C@_1M@NJBEEJNL@?$AAd?$AAe?$AA?9?$AAl?$AAu@ 100259a0     libucrt:lcidtoname_downlevel.obj
 0002:000059ac       ??_C@_1O@GNNELBAP@?$AAd?$AAi?$AAv?$AA?9?$AAm?$AAv@ 100259ac     libucrt:lcidtoname_downlevel.obj
 0002:000059bc       ??_C@_1M@EJLEOGAE@?$AAe?$AAl?$AA?9?$AAg?$AAr@ 100259bc     libucrt:lcidtoname_downlevel.obj
 0002:000059c8       ??_C@_1M@GMPONJN@?$AAe?$AAn?$AA?9?$AAa?$AAu@ 100259c8     libucrt:lcidtoname_downlevel.obj
 0002:000059d4       ??_C@_1M@NIDIIPGF@?$AAe?$AAn?$AA?9?$AAb?$AAz@ 100259d4     libucrt:lcidtoname_downlevel.obj
 0002:000059e0       ??_C@_1M@JEHMIMFO@?$AAe?$AAn?$AA?9?$AAc?$AAa@ 100259e0     libucrt:lcidtoname_downlevel.obj
 0002:000059ec       ??_C@_1M@IGMJCDLA@?$AAe?$AAn?$AA?9?$AAc?$AAb@ 100259ec     libucrt:lcidtoname_downlevel.obj
 0002:000059f8       ??_C@_1M@BNFIGBKG@?$AAe?$AAn?$AA?9?$AAg?$AAb@ 100259f8     libucrt:lcidtoname_downlevel.obj
 0002:00005a04       ??_C@_1M@LKIFDIGP@?$AAe?$AAn?$AA?9?$AAi?$AAe@ 10025a04     libucrt:lcidtoname_downlevel.obj
 0002:00005a10       ??_C@_1M@PJKFGCCO@?$AAe?$AAn?$AA?9?$AAj?$AAm@ 10025a10     libucrt:lcidtoname_downlevel.obj
 0002:00005a1c       ??_C@_1M@KPPKEPBO@?$AAe?$AAn?$AA?9?$AAn?$AAz@ 10025a1c     libucrt:lcidtoname_downlevel.obj
 0002:00005a28       ??_C@_1M@GMDGLDOB@?$AAe?$AAn?$AA?9?$AAp?$AAh@ 10025a28     libucrt:lcidtoname_downlevel.obj
 0002:00005a34       ??_C@_1M@ONGIBJNA@?$AAe?$AAn?$AA?9?$AAt?$AAt@ 10025a34     libucrt:lcidtoname_downlevel.obj
 0002:00005a40       ??_C@_1M@LLODPCMM@?$AAe?$AAn?$AA?9?$AAu?$AAs@ 10025a40     libucrt:lcidtoname_downlevel.obj
 0002:00005a4c       ??_C@_1M@LAKFNPAN@?$AAe?$AAn?$AA?9?$AAz?$AAa@ 10025a4c     libucrt:lcidtoname_downlevel.obj
 0002:00005a58       ??_C@_1M@MFNHNHEO@?$AAe?$AAn?$AA?9?$AAz?$AAw@ 10025a58     libucrt:lcidtoname_downlevel.obj
 0002:00005a64       ??_C@_1M@EJEINPHM@?$AAe?$AAs?$AA?9?$AAa?$AAr@ 10025a64     libucrt:lcidtoname_downlevel.obj
 0002:00005a70       ??_C@_1M@GNKPCCJA@?$AAe?$AAs?$AA?9?$AAb?$AAo@ 10025a70     libucrt:lcidtoname_downlevel.obj
 0002:00005a7c       ??_C@_1M@LEEGFONL@?$AAe?$AAs?$AA?9?$AAc?$AAl@ 10025a7c     libucrt:lcidtoname_downlevel.obj
 0002:00005a88       ??_C@_1M@KGPDPBDF@?$AAe?$AAs?$AA?9?$AAc?$AAo@ 10025a88     libucrt:lcidtoname_downlevel.obj
 0002:00005a94       ??_C@_1M@EIAHOHH@?$AAe?$AAs?$AA?9?$AAc?$AAr@ 10025a94     libucrt:lcidtoname_downlevel.obj
 0002:00005aa0       ??_C@_1M@LLPGMBIN@?$AAe?$AAs?$AA?9?$AAd?$AAo@ 10025aa0     libucrt:lcidtoname_downlevel.obj
 0002:00005aac       ??_C@_1M@DKHMKNJA@?$AAe?$AAs?$AA?9?$AAe?$AAc@ 10025aac     libucrt:lcidtoname_downlevel.obj
 0002:00005ab8       ??_C@_1M@GKGFPKAP@?$AAe?$AAs?$AA?9?$AAe?$AAs@ 10025ab8     libucrt:lcidtoname_downlevel.obj
 0002:00005ac4       ??_C@_1M@LKHKGDLN@?$AAe?$AAs?$AA?9?$AAg?$AAt@ 10025ac4     libucrt:lcidtoname_downlevel.obj
 0002:00005ad0       ??_C@_1M@HEIIGGJD@?$AAe?$AAs?$AA?9?$AAh?$AAn@ 10025ad0     libucrt:lcidtoname_downlevel.obj
 0002:00005adc       ??_C@_1M@FBDHPPGD@?$AAe?$AAs?$AA?9?$AAm?$AAx@ 10025adc     libucrt:lcidtoname_downlevel.obj
 0002:00005ae8       ??_C@_1M@DPAGLNDH@?$AAe?$AAs?$AA?9?$AAn?$AAi@ 10025ae8     libucrt:lcidtoname_downlevel.obj
 0002:00005af4       ??_C@_1M@MDGOPGDD@?$AAe?$AAs?$AA?9?$AAp?$AAa@ 10025af4     libucrt:lcidtoname_downlevel.obj
 0002:00005b00       ??_C@_1M@EMAMGBGE@?$AAe?$AAs?$AA?9?$AAp?$AAe@ 10025b00     libucrt:lcidtoname_downlevel.obj
 0002:00005b0c       ??_C@_1M@IBMCAOEC@?$AAe?$AAs?$AA?9?$AAp?$AAr@ 10025b0c     libucrt:lcidtoname_downlevel.obj
 0002:00005b18       ??_C@_1M@FGMDIJED@?$AAe?$AAs?$AA?9?$AAp?$AAy@ 10025b18     libucrt:lcidtoname_downlevel.obj
 0002:00005b24       ??_C@_1M@IIDEOLLL@?$AAe?$AAs?$AA?9?$AAs?$AAv@ 10025b24     libucrt:lcidtoname_downlevel.obj
 0002:00005b30       ??_C@_1M@GAOBIPA@?$AAe?$AAs?$AA?9?$AAu?$AAy@ 10025b30     libucrt:lcidtoname_downlevel.obj
 0002:00005b3c       ??_C@_1M@JKFFICHJ@?$AAe?$AAs?$AA?9?$AAv?$AAe@ 10025b3c     libucrt:lcidtoname_downlevel.obj
 0002:00005b48       ??_C@_1M@PNMLOJDF@?$AAe?$AAt?$AA?9?$AAe?$AAe@ 10025b48     libucrt:lcidtoname_downlevel.obj
 0002:00005b54       ??_C@_1M@GHHLIKEI@?$AAe?$AAu?$AA?9?$AAe?$AAs@ 10025b54     libucrt:lcidtoname_downlevel.obj
 0002:00005b60       ??_C@_1M@PBNONODE@?$AAf?$AAa?$AA?9?$AAi?$AAr@ 10025b60     libucrt:lcidtoname_downlevel.obj
 0002:00005b6c       ??_C@_1M@JEEHPMIL@?$AAf?$AAi?$AA?9?$AAf?$AAi@ 10025b6c     libucrt:lcidtoname_downlevel.obj
 0002:00005b78       ??_C@_1M@LMDCNDBA@?$AAf?$AAo?$AA?9?$AAf?$AAo@ 10025b78     libucrt:lcidtoname_downlevel.obj
 0002:00005b84       ??_C@_1M@JKEOHLDK@?$AAf?$AAr?$AA?9?$AAb?$AAe@ 10025b84     libucrt:lcidtoname_downlevel.obj
 0002:00005b90       ??_C@_1M@NOHADPMI@?$AAf?$AAr?$AA?9?$AAc?$AAa@ 10025b90     libucrt:lcidtoname_downlevel.obj
 0002:00005b9c       ??_C@_1M@KDHIHAEC@?$AAf?$AAr?$AA?9?$AAc?$AAh@ 10025b9c     libucrt:lcidtoname_downlevel.obj
 0002:00005ba8       ??_C@_1M@MMBBFGAK@?$AAf?$AAr?$AA?9?$AAf?$AAr@ 10025ba8     libucrt:lcidtoname_downlevel.obj
 0002:00005bb4       ??_C@_1M@PAFNENNF@?$AAf?$AAr?$AA?9?$AAl?$AAu@ 10025bb4     libucrt:lcidtoname_downlevel.obj
 0002:00005bc0       ??_C@_1M@EOHDJGDD@?$AAf?$AAr?$AA?9?$AAm?$AAc@ 10025bc0     libucrt:lcidtoname_downlevel.obj
 0002:00005bcc       ??_C@_1M@FAPLLOPF@?$AAg?$AAl?$AA?9?$AAe?$AAs@ 10025bcc     libucrt:lcidtoname_downlevel.obj
 0002:00005bd8       ??_C@_1M@FOPBFLOO@?$AAg?$AAu?$AA?9?$AAi?$AAn@ 10025bd8     libucrt:lcidtoname_downlevel.obj
 0002:00005be4       ??_C@_1M@KBMCINPM@?$AAh?$AAe?$AA?9?$AAi?$AAl@ 10025be4     libucrt:lcidtoname_downlevel.obj
 0002:00005bf0       ??_C@_1M@BBPHKFPJ@?$AAh?$AAi?$AA?9?$AAi?$AAn@ 10025bf0     libucrt:lcidtoname_downlevel.obj
 0002:00005bfc       ??_C@_1M@PMBNDPHD@?$AAh?$AAr?$AA?9?$AAb?$AAa@ 10025bfc     libucrt:lcidtoname_downlevel.obj
 0002:00005c08       ??_C@_1M@BPCKOEGE@?$AAh?$AAr?$AA?9?$AAh?$AAr@ 10025c08     libucrt:lcidtoname_downlevel.obj
 0002:00005c14       ??_C@_1M@GACBMHKE@?$AAh?$AAu?$AA?9?$AAh?$AAu@ 10025c14     libucrt:lcidtoname_downlevel.obj
 0002:00005c20       ??_C@_1M@MILPAJJC@?$AAh?$AAy?$AA?9?$AAa?$AAm@ 10025c20     libucrt:lcidtoname_downlevel.obj
 0002:00005c2c       ??_C@_1M@BABBICEC@?$AAi?$AAd?$AA?9?$AAi?$AAd@ 10025c2c     libucrt:lcidtoname_downlevel.obj
 0002:00005c38       ??_C@_1M@BIKNHHPF@?$AAi?$AAs?$AA?9?$AAi?$AAs@ 10025c38     libucrt:lcidtoname_downlevel.obj
 0002:00005c44       ??_C@_1M@NMPCJPHE@?$AAi?$AAt?$AA?9?$AAc?$AAh@ 10025c44     libucrt:lcidtoname_downlevel.obj
 0002:00005c50       ??_C@_1M@GHKGFEDF@?$AAi?$AAt?$AA?9?$AAi?$AAt@ 10025c50     libucrt:lcidtoname_downlevel.obj
 0002:00005c5c       ??_C@_1M@NIEJCJJA@?$AAj?$AAa?$AA?9?$AAj?$AAp@ 10025c5c     libucrt:lcidtoname_downlevel.obj
 0002:00005c68       ??_C@_1M@JILFNBIM@?$AAk?$AAa?$AA?9?$AAg?$AAe@ 10025c68     libucrt:lcidtoname_downlevel.obj
 0002:00005c74       ??_C@_1M@PACPMGPH@?$AAk?$AAk?$AA?9?$AAk?$AAz@ 10025c74     libucrt:lcidtoname_downlevel.obj
 0002:00005c80       ??_C@_1M@IELFGMHA@?$AAk?$AAn?$AA?9?$AAi?$AAn@ 10025c80     libucrt:lcidtoname_downlevel.obj
 0002:00005c8c       ??_C@_1O@IBBJHCH@?$AAk?$AAo?$AAk?$AA?9?$AAi?$AAn@ 10025c8c     libucrt:lcidtoname_downlevel.obj
 0002:00005c9c       ??_C@_1M@DMHAEOGC@?$AAk?$AAo?$AA?9?$AAk?$AAr@ 10025c9c     libucrt:lcidtoname_downlevel.obj
 0002:00005ca8       ??_C@_1M@HBAHBIGA@?$AAk?$AAy?$AA?9?$AAk?$AAg@ 10025ca8     libucrt:lcidtoname_downlevel.obj
 0002:00005cb4       ??_C@_1M@KPMILCJG@?$AAl?$AAt?$AA?9?$AAl?$AAt@ 10025cb4     libucrt:lcidtoname_downlevel.obj
 0002:00005cc0       ??_C@_1M@BDEKKCA@?$AAl?$AAv?$AA?9?$AAl?$AAv@ 10025cc0     libucrt:lcidtoname_downlevel.obj
 0002:00005ccc       ??_C@_1M@ELCKCCJJ@?$AAm?$AAi?$AA?9?$AAn?$AAz@ 10025ccc     libucrt:lcidtoname_downlevel.obj
 0002:00005cd8       ??_C@_1M@CBOOLAPA@?$AAm?$AAk?$AA?9?$AAm?$AAk@ 10025cd8     libucrt:lcidtoname_downlevel.obj
 0002:00005ce4       ??_C@_1M@GPHNBJKN@?$AAm?$AAl?$AA?9?$AAi?$AAn@ 10025ce4     libucrt:lcidtoname_downlevel.obj
 0002:00005cf0       ??_C@_1M@PABJILIG@?$AAm?$AAn?$AA?9?$AAm?$AAn@ 10025cf0     libucrt:lcidtoname_downlevel.obj
 0002:00005cfc       ??_C@_1M@FGBKKIPG@?$AAm?$AAr?$AA?9?$AAi?$AAn@ 10025cfc     libucrt:lcidtoname_downlevel.obj
 0002:00005d08       ??_C@_1M@NDBPDDAL@?$AAm?$AAs?$AA?9?$AAb?$AAn@ 10025d08     libucrt:lcidtoname_downlevel.obj
 0002:00005d14       ??_C@_1M@OPIHOOPI@?$AAm?$AAs?$AA?9?$AAm?$AAy@ 10025d14     libucrt:lcidtoname_downlevel.obj
 0002:00005d20       ??_C@_1M@PPDBCNFM@?$AAm?$AAt?$AA?9?$AAm?$AAt@ 10025d20     libucrt:lcidtoname_downlevel.obj
 0002:00005d2c       ??_C@_1M@KDJDKMDD@?$AAn?$AAb?$AA?9?$AAn?$AAo@ 10025d2c     libucrt:lcidtoname_downlevel.obj
 0002:00005d38       ??_C@_1M@KFCFLMJP@?$AAn?$AAl?$AA?9?$AAb?$AAe@ 10025d38     libucrt:lcidtoname_downlevel.obj
 0002:00005d44       ??_C@_1M@KPOPDDGO@?$AAn?$AAl?$AA?9?$AAn?$AAl@ 10025d44     libucrt:lcidtoname_downlevel.obj
 0002:00005d50       ??_C@_1M@LJKPEMLN@?$AAn?$AAn?$AA?9?$AAn?$AAo@ 10025d50     libucrt:lcidtoname_downlevel.obj
 0002:00005d5c       ??_C@_1M@BDGHHBFL@?$AAn?$AAs?$AA?9?$AAz?$AAa@ 10025d5c     libucrt:lcidtoname_downlevel.obj
 0002:00005d68       ??_C@_1M@IDEHOAP@?$AAp?$AAa?$AA?9?$AAi?$AAn@ 10025d68     libucrt:lcidtoname_downlevel.obj
 0002:00005d74       ??_C@_1M@HDBKGOGH@?$AAp?$AAl?$AA?9?$AAp?$AAl@ 10025d74     libucrt:lcidtoname_downlevel.obj
 0002:00005d80       ??_C@_1M@LJLLCMEH@?$AAp?$AAt?$AA?9?$AAb?$AAr@ 10025d80     libucrt:lcidtoname_downlevel.obj
 0002:00005d8c       ??_C@_1M@NCMONAAL@?$AAp?$AAt?$AA?9?$AAp?$AAt@ 10025d8c     libucrt:lcidtoname_downlevel.obj
 0002:00005d98       ??_C@_1O@EAKMAJDN@?$AAq?$AAu?$AAz?$AA?9?$AAb?$AAo@ 10025d98     libucrt:lcidtoname_downlevel.obj
 0002:00005da8       ??_C@_1O@BHHPIGDN@?$AAq?$AAu?$AAz?$AA?9?$AAe?$AAc@ 10025da8     libucrt:lcidtoname_downlevel.obj
 0002:00005db8       ??_C@_1O@GBAPEKMJ@?$AAq?$AAu?$AAz?$AA?9?$AAp?$AAe@ 10025db8     libucrt:lcidtoname_downlevel.obj
 0002:00005dc8       ??_C@_1M@CLGLEFBO@?$AAr?$AAo?$AA?9?$AAr?$AAo@ 10025dc8     libucrt:lcidtoname_downlevel.obj
 0002:00005dd4       ??_C@_1M@CEEDODME@?$AAr?$AAu?$AA?9?$AAr?$AAu@ 10025dd4     libucrt:lcidtoname_downlevel.obj
 0002:00005de0       ??_C@_1M@HPKKKMPP@?$AAs?$AAa?$AA?9?$AAi?$AAn@ 10025de0     libucrt:lcidtoname_downlevel.obj
 0002:00005dec       ??_C@_1M@BKMAIGOJ@?$AAs?$AAe?$AA?9?$AAf?$AAi@ 10025dec     libucrt:lcidtoname_downlevel.obj
 0002:00005df8       ??_C@_1M@NDPIFLFI@?$AAs?$AAe?$AA?9?$AAn?$AAo@ 10025df8     libucrt:lcidtoname_downlevel.obj
 0002:00005e04       ??_C@_1M@DANKKHJ@?$AAs?$AAe?$AA?9?$AAs?$AAe@ 10025e04     libucrt:lcidtoname_downlevel.obj
 0002:00005e10       ??_C@_1M@PNBLONPJ@?$AAs?$AAk?$AA?9?$AAs?$AAk@ 10025e10     libucrt:lcidtoname_downlevel.obj
 0002:00005e1c       ??_C@_1M@LFMODOAL@?$AAs?$AAl?$AA?9?$AAs?$AAi@ 10025e1c     libucrt:lcidtoname_downlevel.obj
 0002:00005e28       ??_C@_1O@DFKOMPG@?$AAs?$AAm?$AAa?$AA?9?$AAn?$AAo@ 10025e28     libucrt:lcidtoname_downlevel.obj
 0002:00005e38       ??_C@_1O@NDKPBNNH@?$AAs?$AAm?$AAa?$AA?9?$AAs?$AAe@ 10025e38     libucrt:lcidtoname_downlevel.obj
 0002:00005e48       ??_C@_1O@PLLKBHAB@?$AAs?$AAm?$AAj?$AA?9?$AAn?$AAo@ 10025e48     libucrt:lcidtoname_downlevel.obj
 0002:00005e58       ??_C@_1O@CLEPOGCA@?$AAs?$AAm?$AAj?$AA?9?$AAs?$AAe@ 10025e58     libucrt:lcidtoname_downlevel.obj
 0002:00005e68       ??_C@_1O@DLGJGKMK@?$AAs?$AAm?$AAn?$AA?9?$AAf?$AAi@ 10025e68     libucrt:lcidtoname_downlevel.obj
 0002:00005e78       ??_C@_1O@OJDJGAJC@?$AAs?$AAm?$AAs?$AA?9?$AAf?$AAi@ 10025e78     libucrt:lcidtoname_downlevel.obj
 0002:00005e88       ??_C@_1M@BOFOGHPB@?$AAs?$AAq?$AA?9?$AAa?$AAl@ 10025e88     libucrt:lcidtoname_downlevel.obj
 0002:00005e94       ??_C@_1BG@LJBBIPGB@?$AAs?$AAr?$AA?9?$AAb?$AAa?$AA?9?$AAc?$AAy?$AAr?$AAl@ 10025e94     libucrt:lcidtoname_downlevel.obj
 0002:00005eac       ??_C@_1BG@JLBENFOE@?$AAs?$AAr?$AA?9?$AAb?$AAa?$AA?9?$AAl?$AAa?$AAt?$AAn@ 10025eac     libucrt:lcidtoname_downlevel.obj
 0002:00005ec4       ??_C@_1BG@KODPNHE@?$AAs?$AAr?$AA?9?$AAs?$AAp?$AA?9?$AAc?$AAy?$AAr?$AAl@ 10025ec4     libucrt:lcidtoname_downlevel.obj
 0002:00005edc       ??_C@_1BG@CIOGKHPB@?$AAs?$AAr?$AA?9?$AAs?$AAp?$AA?9?$AAl?$AAa?$AAt?$AAn@ 10025edc     libucrt:lcidtoname_downlevel.obj
 0002:00005ef4       ??_C@_1M@NGFJLMAC@?$AAs?$AAv?$AA?9?$AAf?$AAi@ 10025ef4     libucrt:lcidtoname_downlevel.obj
 0002:00005f00       ??_C@_1M@MPJEJAJC@?$AAs?$AAv?$AA?9?$AAs?$AAe@ 10025f00     libucrt:lcidtoname_downlevel.obj
 0002:00005f0c       ??_C@_1M@MPNDHLFK@?$AAs?$AAw?$AA?9?$AAk?$AAe@ 10025f0c     libucrt:lcidtoname_downlevel.obj
 0002:00005f18       ??_C@_1O@KOHBJJI@?$AAs?$AAy?$AAr?$AA?9?$AAs?$AAy@ 10025f18     libucrt:lcidtoname_downlevel.obj
 0002:00005f28       ??_C@_1M@LDCEFHA@?$AAt?$AAa?$AA?9?$AAi?$AAn@ 10025f28     libucrt:lcidtoname_downlevel.obj
 0002:00005f34       ??_C@_1M@CNJOFAK@?$AAt?$AAe?$AA?9?$AAi?$AAn@ 10025f34     libucrt:lcidtoname_downlevel.obj
 0002:00005f40       ??_C@_1M@GNAECACD@?$AAt?$AAh?$AA?9?$AAt?$AAh@ 10025f40     libucrt:lcidtoname_downlevel.obj
 0002:00005f4c       ??_C@_1M@CHBIHOJO@?$AAt?$AAn?$AA?9?$AAz?$AAa@ 10025f4c     libucrt:lcidtoname_downlevel.obj
 0002:00005f58       ??_C@_1M@GCCMIGPJ@?$AAt?$AAr?$AA?9?$AAt?$AAr@ 10025f58     libucrt:lcidtoname_downlevel.obj
 0002:00005f64       ??_C@_1M@CELMCNBK@?$AAt?$AAt?$AA?9?$AAr?$AAu@ 10025f64     libucrt:lcidtoname_downlevel.obj
 0002:00005f70       ??_C@_1M@KLMCELGA@?$AAu?$AAk?$AA?9?$AAu?$AAa@ 10025f70     libucrt:lcidtoname_downlevel.obj
 0002:00005f7c       ??_C@_1M@EPAJJAJF@?$AAu?$AAr?$AA?9?$AAp?$AAk@ 10025f7c     libucrt:lcidtoname_downlevel.obj
 0002:00005f88       ??_C@_1BG@GEGPMCDJ@?$AAu?$AAz?$AA?9?$AAu?$AAz?$AA?9?$AAc?$AAy?$AAr?$AAl@ 10025f88     libucrt:lcidtoname_downlevel.obj
 0002:00005fa0       ??_C@_1BG@EGGKJILM@?$AAu?$AAz?$AA?9?$AAu?$AAz?$AA?9?$AAl?$AAa?$AAt?$AAn@ 10025fa0     libucrt:lcidtoname_downlevel.obj
 0002:00005fb8       ??_C@_1M@GFOCLFF@?$AAv?$AAi?$AA?9?$AAv?$AAn@ 10025fb8     libucrt:lcidtoname_downlevel.obj
 0002:00005fc4       ??_C@_1M@CPAMEDFI@?$AAx?$AAh?$AA?9?$AAz?$AAa@ 10025fc4     libucrt:lcidtoname_downlevel.obj
 0002:00005fd0       ??_C@_1O@EBKIFIGN@?$AAz?$AAh?$AA?9?$AAc?$AAh?$AAs@ 10025fd0     libucrt:lcidtoname_downlevel.obj
 0002:00005fe0       ??_C@_1O@NMHPGANE@?$AAz?$AAh?$AA?9?$AAc?$AAh?$AAt@ 10025fe0     libucrt:lcidtoname_downlevel.obj
 0002:00005ff0       ??_C@_1M@LPINJOMC@?$AAz?$AAh?$AA?9?$AAc?$AAn@ 10025ff0     libucrt:lcidtoname_downlevel.obj
 0002:00005ffc       ??_C@_1M@OCJEJODD@?$AAz?$AAh?$AA?9?$AAh?$AAk@ 10025ffc     libucrt:lcidtoname_downlevel.obj
 0002:00006008       ??_C@_1M@DNDLJINH@?$AAz?$AAh?$AA?9?$AAm?$AAo@ 10026008     libucrt:lcidtoname_downlevel.obj
 0002:00006014       ??_C@_1M@MBFDNDND@?$AAz?$AAh?$AA?9?$AAs?$AAg@ 10026014     libucrt:lcidtoname_downlevel.obj
 0002:00006020       ??_C@_1M@IMEPLEPE@?$AAz?$AAh?$AA?9?$AAt?$AAw@ 10026020     libucrt:lcidtoname_downlevel.obj
 0002:0000602c       ??_C@_1M@BBGHNHJP@?$AAz?$AAu?$AA?9?$AAz?$AAa@ 1002602c     libucrt:lcidtoname_downlevel.obj
 0002:00006038       ?large_power_data@?1??multiply_by_power_of_ten@__crt_strtox@@YA_NAAUbig_integer@2@I@Z@4QBIB 10026038     libucrt:cfout.obj
 0002:00006940       ?large_power_indices@?1??multiply_by_power_of_ten@__crt_strtox@@YA_NAAUbig_integer@2@I@Z@4QBUunpack_index@?1??12@YA_N0I@Z@B 10026940     libucrt:cfout.obj
 0002:000069d8       ?small_powers_of_ten@?1??multiply_by_power_of_ten@__crt_strtox@@YA_NAAUbig_integer@2@I@Z@4QBIB 100269d8     libucrt:cfout.obj
 0002:000069fc       ??_C@_01GBGANLPD@0@        100269fc     libucrt:cfout.obj
 0002:00006a00       ??_C@_05DNEBIAHO@1?$CDINF@ 10026a00     libucrt:cfout.obj
 0002:00006a08       ??_C@_06IMKFLFPG@1?$CDQNAN@ 10026a08     libucrt:cfout.obj
 0002:00006a10       ??_C@_06PGGFOGJG@1?$CDSNAN@ 10026a10     libucrt:cfout.obj
 0002:00006a18       ??_C@_05PHHOCPM@1?$CDIND@  10026a18     libucrt:cfout.obj
 0002:00006b80       __infinity                 10026b80     libucrt:87tran.obj
 0002:00006b8a       __minfinity                10026b8a     libucrt:87tran.obj
 0002:00006b94       __logemax                  10026b94     libucrt:87tran.obj
 0002:00006bba       __OP_EXPjmptab             10026bba     libucrt:87tran.obj
 0002:00006be0       __indefinite               10026be0     libucrt:87disp.obj
 0002:00006bea       __piby2                    10026bea     libucrt:87disp.obj
 0002:00006bf4       __piby4                    10026bf4     libucrt:87disp.obj
 0002:00006c28       __DEFAULT_CW_in_mem        10026c28     libucrt:common.obj
 0002:00006c2a       __pi_by_2_to_61            10026c2a     libucrt:common.obj
 0002:00006c64       ??_C@_03MGHMBJCF@log@      10026c64     libucrt:libm_error.obj
 0002:00006c68       ??_C@_05HGHHAHAP@log10@    10026c68     libucrt:libm_error.obj
 0002:00006c70       ??_C@_03KHJOGHMM@exp@      10026c70     libucrt:libm_error.obj
 0002:00006c74       ??_C@_03JGHBODFD@pow@      10026c74     libucrt:libm_error.obj
 0002:00006c78       ??_C@_04FIHNOPOL@asin@     10026c78     libucrt:libm_error.obj
 0002:00006c80       ??_C@_04PDIFKINK@acos@     10026c80     libucrt:libm_error.obj
 0002:00006c88       ??_C@_04EIAKFFMI@sqrt@     10026c88     libucrt:libm_error.obj
 0002:00006c90       __real@3ff0000000000000    10026c90     libucrt:libm_error.obj
 0002:00006c98       ??_C@_1BA@BALFACEM@?$AAC?$AAO?$AAN?$AAO?$AAU?$AAT?$AA$@ 10026c98     libucrt:initcon.obj
 0002:00006cc0       ___acrt_log10_table_t      10026cc0     libucrt:log10_tables.obj
 0002:000070d0       ___acrt_log10_table_cb     100270d0     libucrt:log10_tables.obj
 0002:000074e0       __real@3fe0000000000000    100274e0     libucrt:powhlp.obj
 0002:000075d0       ??_C@_04COOMCNPB@sinh@     100275d0     libucrt:fpexcept.obj
 0002:000075d8       ??_C@_04HPJJNFIM@cosh@     100275d8     libucrt:fpexcept.obj
 0002:000075e0       ??_C@_04FJHINJAO@tanh@     100275e0     libucrt:fpexcept.obj
 0002:000075e8       ??_C@_04MLLJIGOK@atan@     100275e8     libucrt:fpexcept.obj
 0002:000075f0       ??_C@_05KNGEOGJB@atan2@    100275f0     libucrt:fpexcept.obj
 0002:000075f8       ??_C@_03BLEJJJBH@sin@      100275f8     libucrt:fpexcept.obj
 0002:000075fc       ??_C@_03LALBNOCG@cos@      100275fc     libucrt:fpexcept.obj
 0002:00007600       ??_C@_03IIINPABG@tan@      10027600     libucrt:fpexcept.obj
 0002:00007604       ??_C@_04GFPJNGEK@ceil@     10027604     libucrt:fpexcept.obj
 0002:0000760c       ??_C@_05PBJFFIGL@floor@    1002760c     libucrt:fpexcept.obj
 0002:00007614       ??_C@_04ODHECPBC@fabs@     10027614     libucrt:fpexcept.obj
 0002:0000761c       ??_C@_04EHEDPDJG@modf@     1002761c     libucrt:fpexcept.obj
 0002:00007624       ??_C@_05CEJMAHNP@ldexp@    10027624     libucrt:fpexcept.obj
 0002:0000762c       ??_C@_05KBKMEMPO@_cabs@    1002762c     libucrt:fpexcept.obj
 0002:00007634       ??_C@_06MEIMCGCF@_hypot@   10027634     libucrt:fpexcept.obj
 0002:0000763c       ??_C@_04KEPJIHGP@fmod@     1002763c     libucrt:fpexcept.obj
 0002:00007644       ??_C@_05GKKHEGJL@frexp@    10027644     libucrt:fpexcept.obj
 0002:0000764c       ??_C@_03MJLDFKDL@_y0@      1002764c     libucrt:fpexcept.obj
 0002:00007650       ??_C@_03NAKIGLHK@_y1@      10027650     libucrt:fpexcept.obj
 0002:00007654       ??_C@_03ONILCKOB@_yn@      10027654     libucrt:fpexcept.obj
 0002:00007658       ??_C@_05JGDBENOH@_logb@    10027658     libucrt:fpexcept.obj
 0002:00007660       ??_C@_0L@KDOEJCKC@_nextafter@ 10027660     libucrt:fpexcept.obj
 0002:00007670       __d_inf                    10027670     libucrt:util.obj
 0002:00007678       __d_max                    10027678     libucrt:util.obj
 0002:00007680       __d_mzero                  10027680     libucrt:util.obj
 0002:000076f0       __load_config_used         100276f0     LIBCMT:loadcfg.obj
 0002:000077c0       __tls_used                 100277c0     LIBCMT:tlssup.obj
 0002:000077d8       ??_R4exception@std@@6B@    100277d8     LIBCMT:throw_bad_alloc.obj
 0002:000077ec       ??_R3exception@std@@8      100277ec     LIBCMT:throw_bad_alloc.obj
 0002:000077fc       ??_R2exception@std@@8      100277fc     LIBCMT:throw_bad_alloc.obj
 0002:00007804       ??_R1A@?0A@EA@exception@std@@8 10027804     LIBCMT:throw_bad_alloc.obj
 0002:00007820       ??_R4bad_alloc@std@@6B@    10027820     LIBCMT:throw_bad_alloc.obj
 0002:00007834       ??_R3bad_alloc@std@@8      10027834     LIBCMT:throw_bad_alloc.obj
 0002:00007844       ??_R2bad_alloc@std@@8      10027844     LIBCMT:throw_bad_alloc.obj
 0002:00007850       ??_R1A@?0A@EA@bad_alloc@std@@8 10027850     LIBCMT:throw_bad_alloc.obj
 0002:0000786c       ??_R4bad_array_new_length@std@@6B@ 1002786c     LIBCMT:throw_bad_alloc.obj
 0002:00007880       ??_R3bad_array_new_length@std@@8 10027880     LIBCMT:throw_bad_alloc.obj
 0002:00007890       ??_R2bad_array_new_length@std@@8 10027890     LIBCMT:throw_bad_alloc.obj
 0002:000078a0       ??_R1A@?0A@EA@bad_array_new_length@std@@8 100278a0     LIBCMT:throw_bad_alloc.obj
 0002:000078bc       ??_R4type_info@@6B@        100278bc     LIBCMT:std_type_info_static.obj
 0002:000078d0       ??_R3type_info@@8          100278d0     LIBCMT:std_type_info_static.obj
 0002:000078e0       ??_R2type_info@@8          100278e0     LIBCMT:std_type_info_static.obj
 0002:000078e8       ??_R1A@?0A@EA@type_info@@8 100278e8     LIBCMT:std_type_info_static.obj
 0002:00007904       ??_R4bad_exception@std@@6B@ 10027904     libvcruntime:frame.obj
 0002:00007918       ??_R3bad_exception@std@@8  10027918     libvcruntime:frame.obj
 0002:00007928       ??_R2bad_exception@std@@8  10027928     libvcruntime:frame.obj
 0002:00007934       ??_R1A@?0A@EA@bad_exception@std@@8 10027934     libvcruntime:frame.obj
 0002:00007950       ___safe_se_handler_table   10027950     <linker-defined>
 0002:00007d4c       ___rtc_iaa                 10027d4c     LIBCMT:initsect.obj
 0002:00007d50       ___rtc_izz                 10027d50     LIBCMT:initsect.obj
 0002:00007d54       ___rtc_taa                 10027d54     LIBCMT:initsect.obj
 0002:00007d58       ___rtc_tzz                 10027d58     LIBCMT:initsect.obj
 0002:00007d5c       __tls_start                10027d5c     LIBCMT:tlssup.obj
 0002:00007d60       __Init_thread_epoch        10027d60     LIBCMT:thread_safe_statics.obj
 0002:00007d64       __tls_end                  10027d64     LIBCMT:tlssup.obj
 0002:00007e64       __TI2?AVbad_alloc@std@@    10027e64     LIBCMT:throw_bad_alloc.obj
 0002:00007e74       __CTA2?AVbad_alloc@std@@   10027e74     LIBCMT:throw_bad_alloc.obj
 0002:00007e80       __CT??_R0?AVbad_alloc@std@@@8??0bad_alloc@std@@QAE@ABV01@@Z12 10027e80     LIBCMT:throw_bad_alloc.obj
 0002:00007e9c       __CT??_R0?AVexception@std@@@8??0exception@std@@QAE@ABV01@@Z12 10027e9c     LIBCMT:throw_bad_alloc.obj
 0002:00007eb8       __TI3?AVbad_array_new_length@std@@ 10027eb8     LIBCMT:throw_bad_alloc.obj
 0002:00007ec8       __CTA3?AVbad_array_new_length@std@@ 10027ec8     LIBCMT:throw_bad_alloc.obj
 0002:00007ed8       __CT??_R0?AVbad_array_new_length@std@@@8??0bad_array_new_length@std@@QAE@ABV01@@Z12 10027ed8     LIBCMT:throw_bad_alloc.obj
 0002:00007ffc       __TI2?AVbad_exception@std@@ 10027ffc     libvcruntime:frame.obj
 0002:0000800c       __CTA2?AVbad_exception@std@@ 1002800c     libvcruntime:frame.obj
 0002:00008018       __CT??_R0?AVbad_exception@std@@@8??0bad_exception@std@@QAE@ABV01@@Z12 10028018     libvcruntime:frame.obj
 0002:00008394       ___pobjMapEntryFirst       10028394     OposVariant.obj
 0002:00008398       ___pobjMapEntryLast        10028398     OposVariant.obj
 0002:00008450       __IMPORT_DESCRIPTOR_KERNEL32 10028450     kernel32:KERNEL32.dll
 0002:00008464       __IMPORT_DESCRIPTOR_USER32 10028464     user32:USER32.dll
 0002:00008478       __IMPORT_DESCRIPTOR_GDI32  10028478     gdi32:GDI32.dll
 0002:0000848c       __IMPORT_DESCRIPTOR_ADVAPI32 1002848c     advapi32:ADVAPI32.dll
 0002:000084a0       __IMPORT_DESCRIPTOR_ole32  100284a0     ole32:ole32.dll
 0002:000084b4       __IMPORT_DESCRIPTOR_OLEAUT32 100284b4     oleaut32:OLEAUT32.dll
 0002:000084c8       __NULL_IMPORT_DESCRIPTOR   100284c8     kernel32:KERNEL32.dll
 0003:00000000       ?s_Claim@?7??GetIDsOfNames@CComTypeInfoHolder@ATL@@QAEJABU_GUID@@PAPA_WIKPAJ@Z@4PA_WA 1002a000     CheckScanner.obj
 0003:00000018       ?s_Release@?7??GetIDsOfNames@CComTypeInfoHolder@ATL@@QAEJABU_GUID@@PAPA_WIKPAJ@Z@4PA_WA 1002a018     CheckScanner.obj
 0003:00000034       ?_tih@?$IDispatchImpl@UIOPOSCheckScanner@@$1?IID_IOPOSCheckScanner@@3U_GUID@@B$1?LIBID_OposCheckScanner_CCO@@3U3@B$00$0A@VCComTypeInfoHolder@ATL@@@ATL@@1VCComTypeInfoHolder@2@A 1002a034     CheckScanner.obj
 0003:00000050       ?_tih@?$IProvideClassInfo2Impl@$1?CLSID_OPOSCheckScanner@@3U_GUID@@B$1?DIID__IOPOSCheckScannerEvents@@3U2@B$1?LIBID_OposCheckScanner_CCO@@3U2@B$00$0A@VCComTypeInfoHolder@ATL@@@ATL@@1VCComTypeInfoHolder@2@A 1002a050     CheckScanner.obj
 0003:0000006c       ?vszContents@?6??Save@?$IPersistStorageImpl@VCOPOSCheckScanner@@@ATL@@UAGJPAUIStorage@@H@Z@4PB_WB 1002a06c     CheckScanner.obj
 0003:00000070       ?wc@?1??GetWndClassInfo@?$CWindowImpl@VCOPOSCheckScanner@@VCWindow@ATL@@V?$CWinTraits@$0FGAAAAAA@$0A@@3@@ATL@@SAAAU_ATL_WNDCLASSINFOW@3@XZ@4U43@A 1002a070     CheckScanner.obj
 0003:000000fc       ?rcDefault@CWindow@ATL@@2UtagRECT@@A 1002a0fc     CheckScanner.obj
 0003:00000158       ?g_WindowName@@3PA_WA      1002a158     CheckScannerImpl.obj
 0003:00000180       ?g_ControlDescription@@3PADA 1002a180     CheckScannerImpl.obj
 0003:000001cc       ?g_ControlVersion@@3JA     1002a1cc     CheckScannerImpl.obj
 0003:00000250       ___scrt_native_dllmain_reason 1002a250     LIBCMT:utility.obj
 0003:00000254       __Init_global_epoch        1002a254     LIBCMT:thread_safe_statics.obj
 0003:00000260       ___security_cookie_complement 1002a260     LIBCMT:gs_cookie.obj
 0003:00000264       ___security_cookie         1002a264     LIBCMT:gs_cookie.obj
 0003:00000268       ___isa_enabled             1002a268     LIBCMT:cpu_disp.obj
 0003:00000280       __NLG_Destination          1002a280     libvcruntime:exsup.obj
 0003:00000298       ___abort_behavior          1002a298     libucrt:abort.obj
 0003:000002a8       __iob                      1002a2a8     libucrt:_file.obj
 0003:00000350       ___acrt_initial_locale_data 1002a350     libucrt:nlsdata.obj
 0003:00000408       ___acrt_initial_locale_pointers 1002a408     libucrt:nlsdata.obj
 0003:00000410       ___acrt_wide_c_locale_string 1002a410     libucrt:nlsdata.obj
 0003:00000418       ___acrt_initial_multibyte_data 1002a418     libucrt:mbctype.obj
 0003:00000938       __pwctype                  1002a938     libucrt:ctype.obj
 0003:0000093c       ___globallocalestatus      1002a93c     libucrt:glstatus.obj
 0003:00000940       ___acrt_lconv_c            1002a940     libucrt:localeconv.obj
 0003:00000990       ___acrt_lconv_static_decimal 1002a990     libucrt:localeconv.obj
 0003:00000994       ___acrt_lconv_static_W_decimal 1002a994     libucrt:localeconv.obj
 0003:000009a0       __lookuptrailbytes         1002a9a0     libucrt:read.obj
 0003:00000ab0       __fltused                  1002aab0     LIBCMT:fltused.obj
 0003:00000ac0       ??_R0?AVbad_alloc@std@@@8  1002aac0     LIBCMT:throw_bad_alloc.obj
 0003:00000adc       ??_R0?AVexception@std@@@8  1002aadc     LIBCMT:throw_bad_alloc.obj
 0003:00000af8       ??_R0?AVbad_array_new_length@std@@@8 1002aaf8     LIBCMT:throw_bad_alloc.obj
 0003:00000b20       ??_R0?AVtype_info@@@8      1002ab20     LIBCMT:std_type_info_static.obj
 0003:00000b38       ??_R0?AVbad_exception@std@@@8 1002ab38     libvcruntime:frame.obj
 0003:00000b58       ?m_bInitFailed@CAtlBaseModule@ATL@@2_NA 1002ab58     OposVariant.obj
 0003:00000b5c       ?_pPerfRegFunc@ATL@@3P6AJPAUHINSTANCE__@@@ZA 1002ab5c     OposVariant.obj
 0003:00000b60       ?_pPerfUnRegFunc@ATL@@3P6AJXZA 1002ab60     OposVariant.obj
 0003:00000b64       ?_AtlRegisterPerUser@ATL@@3_NA 1002ab64     OposVariant.obj
 0003:00000b68       ?_pAtlModule@ATL@@3PAVCAtlModule@1@A 1002ab68     OposVariant.obj
 0003:00000b6c       ?_pModule@ATL@@3PAVCComModule@1@A 1002ab6c     OposVariant.obj
 0003:00000b70       ?_AtlComModule@ATL@@3VCAtlComModule@1@A 1002ab70     OposVariant.obj
 0003:00000b98       ?_AtlWinModule@ATL@@3VCAtlWinModule@1@A 1002ab98     OposVariant.obj
 0003:00000bc4       ?m_libid@CAtlModule@ATL@@2U_GUID@@A 1002abc4     CheckScanner.obj
 0003:00000bd4       ?_entries@?1??GetConnMap@COPOSCheckScanner@@SAPBU_ATL_CONNMAP_ENTRY@ATL@@PAH@Z@4QBU34@B 1002abd4     CheckScanner.obj
 0003:00000be0       ?$TSS0@?1??GetConnMap@COPOSCheckScanner@@SAPBU_ATL_CONNMAP_ENTRY@ATL@@PAH@Z@4HA 1002abe0     CheckScanner.obj
 0003:00000be8       ?_OptionsStorage@?1??__local_stdio_printf_options@@9@4_KA 1002abe8     CheckScanner.obj
 0003:00000bf0       ?pfnRegDeleteKeyEx@?1??DeleteSubKey@CRegKey@ATL@@QAEJPB_W@Z@4P6GJPAUHKEY__@@0KK@ZA 1002abf0     CheckScanner.obj
 0003:00000bf4       ?bInitialized@?1??DeleteSubKey@CRegKey@ATL@@QAEJPB_W@Z@4_NA 1002abf4     CheckScanner.obj
 0003:00000bf8       ?_Module@@3VCComModule@ATL@@A 1002abf8     CheckScanner.obj
 0003:00000c28       ?pConnMap@?$IConnectionPointContainerImpl@VCOPOSCheckScanner@@@ATL@@0PBU_ATL_CONNMAP_ENTRY@2@B 1002ac28     CheckScanner.obj
 0003:00000c2c       ?s_nInstances@COPOSCheckScanner@@1HA 1002ac2c     CheckScannerImpl.obj
 0003:00000c30       ___scrt_current_native_startup_state 1002ac30     LIBCMT:utility.obj
 0003:00000c34       ___scrt_native_startup_lock 1002ac34     LIBCMT:utility.obj
 0003:00000f9c       __tls_index                1002af9c     LIBCMT:tlssup.obj
 0003:00000fa4       ___isa_available           1002afa4     LIBCMT:cpu_disp.obj
 0003:00000fa8       ___favor                   1002afa8     LIBCMT:cpu_disp.obj
 0003:00000fac       ___scrt_debugger_hook_flag 1002afac     LIBCMT:utility_desktop.obj
 0003:00000fb0       ___castguard_check_failure_os_handled_fptr 1002afb0     LIBCMT:guard_support.obj
 0003:00000fb8       ?__type_info_root_node@@3U__type_info_node@@A 1002afb8     LIBCMT:tncleanup.obj
 0003:00000fc0       ?_OptionsStorage@?1??__local_stdio_scanf_options@@9@4_KA 1002afc0     LIBCMT:default_local_stdio_options.obj
 0003:00000fc8       ?_AtlBaseModule@ATL@@3VCAtlBaseModule@1@A 1002afc8     atls:atlbase.obj
 0003:00001000       ?__AtlThunkPool@@3PAT_SLIST_HEADER@@A 1002b000     atls:atlthunk.obj
 0003:00001018       ___@@_PchSym_@00@UztvmgUPdlipUFHUhUrmgvinvwrzgvUexgllohUzgohOmzgrevkilqPBACIAJCBDBUlyqiUcIGUhgwzucOlyq@4B2008FD98C1DD4 1002b018     atls:stdafx.obj
 0003:0000101c       ?__WinRTOutOfMemoryExceptionCallback@@3P6GPAXXZA 1002b01c     libvcruntime:ehhelpers.obj
 0003:00001020       ___pPurecall               1002b020     libvcruntime:purevirt_data.obj
 0003:00001068       ?pArgList@UnDecorator@@0PAVReplicator@@A 1002b068     libvcruntime:undname.obj
 0003:0000106c       ?pZNameList@UnDecorator@@0PAVReplicator@@A 1002b06c     libvcruntime:undname.obj
 0003:00001070       ?pTemplateArgList@UnDecorator@@0PAVReplicator@@A 1002b070     libvcruntime:undname.obj
 0003:00001074       ?gName@UnDecorator@@0PBDB  1002b074     libvcruntime:undname.obj
 0003:00001078       ?name@UnDecorator@@0PBDB   1002b078     libvcruntime:undname.obj
 0003:0000107c       ?disableFlags@UnDecorator@@0KA 1002b07c     libvcruntime:undname.obj
 0003:00001080       ?fExplicitTemplateParams@UnDecorator@@0_NA 1002b080     libvcruntime:undname.obj
 0003:00001081       ?fGetTemplateArgumentList@UnDecorator@@0_NA 1002b081     libvcruntime:undname.obj
 0003:00001084       ?m_pGetParameter@UnDecorator@@0P6APADJ@ZA 1002b084     libvcruntime:undname.obj
 0003:00001088       ?m_CHPENameOffset@UnDecorator@@0KA 1002b088     libvcruntime:undname.obj
 0003:0000108c       ?m_recursionLevel@UnDecorator@@0KA 1002b08c     libvcruntime:undname.obj
 0003:000010d0       ?c_exit_complete@?1???R<lambda_6e4b09c48022b2350581041d5f6b0c4c>@@QBE@XZ@4_NA 1002b0d0     libucrt:exit.obj
 0003:000011e0       __environ_table            1002b1e0     libucrt:environment_initialization.obj
 0003:000011e4       __wenviron_table           1002b1e4     libucrt:environment_initialization.obj
 0003:000011e8       ___dcrt_initial_wide_environment 1002b1e8     libucrt:environment_initialization.obj
 0003:000011ec       ___dcrt_initial_narrow_environment 1002b1ec     libucrt:environment_initialization.obj
 0003:000011f0       ___acrt_atexit_table       1002b1f0     libucrt:onexit.obj
 0003:000011fc       ___acrt_at_quick_exit_table 1002b1fc     libucrt:onexit.obj
 0003:000012f0       __nstream                  1002b2f0     libucrt:_file.obj
 0003:000012f4       ___piob                    1002b2f4     libucrt:_file.obj
 0003:000012fc       ___acrt_stdout_buffer      1002b2fc     libucrt:_sftbuf.obj
 0003:00001300       ___acrt_stderr_buffer      1002b300     libucrt:_sftbuf.obj
 0003:00001304       ___acrt_locale_changed_data 1002b304     libucrt:wsetlocale.obj
 0003:00001308       ___acrt_current_locale_data 1002b308     libucrt:nlsdata.obj
 0003:00001310       ___pioinfo                 1002b310     libucrt:ioinit.obj
 0003:00001510       __nhandle                  1002b510     libucrt:ioinit.obj
 0003:0000166c       __mbctype                  1002b66c     libucrt:mbctype.obj
 0003:00001670       __mbcasemap                1002b670     libucrt:mbctype.obj
 0003:00001674       ___acrt_current_multibyte_data 1002b674     libucrt:mbctype.obj
 0003:00001680       __pgmptr                   1002b680     libucrt:argv_data.obj
 0003:00001684       ___argc                    1002b684     libucrt:argv_data.obj
 0003:00001688       ___argv                    1002b688     libucrt:argv_data.obj
 0003:0000168c       ___wargv                   1002b68c     libucrt:argv_data.obj
 0003:00001690       __acmdln                   1002b690     libucrt:argv_data.obj
 0003:00001694       __wcmdln                   1002b694     libucrt:argv_data.obj
 0003:00001698       ___acrt_heap               1002b698     libucrt:heap_handle.obj
 0003:000016b4       ___acrt_lconv_static_null  1002b6b4     libucrt:localeconv.obj
 0003:000016b8       ___acrt_lconv_static_W_null 1002b6b8     libucrt:localeconv.obj
 0003:000016c8       ___fastflag                1002b6c8     libucrt:fp_flags.obj
 0003:000016d0       ___dyn_tls_init_callback   1002b6d0     <common>
 0003:000016d4       ___scrt_ucrt_dll_is_in_use 1002b6d4     <common>
 0003:000016d8       __pmatherr                 1002b6d8     <common>
 0003:000016dc       ___use_sse2_mathfcns       1002b6dc     <common>

 entry point at        0001:0000c36d

 Static symbols

 0000:fffcc000       .debug$S                   10000000     OPOSCheckScanner.exp
 0000:fffcc000       .debug$S                   10000000     advapi32:ADVAPI32.dll
 0000:fffcc000       .debug$S                   10000000     advapi32:ADVAPI32.dll
 0000:fffcc000       .debug$S                   10000000     advapi32:ADVAPI32.dll
 0000:fffcc000       .debug$S                   10000000     advapi32:ADVAPI32.dll
 0000:fffcc000       .debug$S                   10000000     advapi32:ADVAPI32.dll
 0000:fffcc000       .debug$S                   10000000     advapi32:ADVAPI32.dll
 0000:fffcc000       .debug$S                   10000000     advapi32:ADVAPI32.dll
 0000:fffcc000       .debug$S                   10000000     advapi32:ADVAPI32.dll
 0000:fffcc000       .debug$S                   10000000     advapi32:ADVAPI32.dll
 0000:fffcc000       .debug$S                   10000000     gdi32:GDI32.dll
 0000:fffcc000       .debug$S                   10000000     gdi32:GDI32.dll
 0000:fffcc000       .debug$S                   10000000     gdi32:GDI32.dll
 0000:fffcc000       .debug$S                   10000000     gdi32:GDI32.dll
 0000:fffcc000       .debug$S                   10000000     gdi32:GDI32.dll
 0000:fffcc000       .debug$S                   10000000     gdi32:GDI32.dll
 0000:fffcc000       .debug$S                   10000000     gdi32:GDI32.dll
 0000:fffcc000       .debug$S                   10000000     gdi32:GDI32.dll
 0000:fffcc000       .debug$S                   10000000     gdi32:GDI32.dll
 0000:fffcc000       .debug$S                   10000000     gdi32:GDI32.dll
 0000:fffcc000       .debug$S                   10000000     gdi32:GDI32.dll
 0000:fffcc000       .debug$S                   10000000     gdi32:GDI32.dll
 0000:fffcc000       .debug$S                   10000000     gdi32:GDI32.dll
 0000:fffcc000       .debug$S                   10000000     gdi32:GDI32.dll
 0000:fffcc000       .debug$S                   10000000     gdi32:GDI32.dll
 0000:fffcc000       .debug$S                   10000000     gdi32:GDI32.dll
 0000:fffcc000       .debug$S                   10000000     gdi32:GDI32.dll
 0000:fffcc000       .debug$S                   10000000     gdi32:GDI32.dll
 0000:fffcc000       .debug$S                   10000000     gdi32:GDI32.dll
 0000:fffcc000       .debug$S                   10000000     kernel32:KERNEL32.dll
 0000:fffcc000       .debug$S                   10000000     kernel32:KERNEL32.dll
 0000:fffcc000       .debug$S                   10000000     kernel32:KERNEL32.dll
 0000:fffcc000       .debug$S                   10000000     kernel32:KERNEL32.dll
 0000:fffcc000       .debug$S                   10000000     kernel32:KERNEL32.dll
 0000:fffcc000       .debug$S                   10000000     kernel32:KERNEL32.dll
 0000:fffcc000       .debug$S                   10000000     kernel32:KERNEL32.dll
 0000:fffcc000       .debug$S                   10000000     kernel32:KERNEL32.dll
 0000:fffcc000       .debug$S                   10000000     kernel32:KERNEL32.dll
 0000:fffcc000       .debug$S                   10000000     kernel32:KERNEL32.dll
 0000:fffcc000       .debug$S                   10000000     kernel32:KERNEL32.dll
 0000:fffcc000       .debug$S                   10000000     kernel32:KERNEL32.dll
 0000:fffcc000       .debug$S                   10000000     kernel32:KERNEL32.dll
 0000:fffcc000       .debug$S                   10000000     kernel32:KERNEL32.dll
 0000:fffcc000       .debug$S                   10000000     kernel32:KERNEL32.dll
 0000:fffcc000       .debug$S                   10000000     kernel32:KERNEL32.dll
 0000:fffcc000       .debug$S                   10000000     kernel32:KERNEL32.dll
 0000:fffcc000       .debug$S                   10000000     kernel32:KERNEL32.dll
 0000:fffcc000       .debug$S                   10000000     kernel32:KERNEL32.dll
 0000:fffcc000       .debug$S                   10000000     kernel32:KERNEL32.dll
 0000:fffcc000       .debug$S                   10000000     kernel32:KERNEL32.dll
 0000:fffcc000       .debug$S                   10000000     kernel32:KERNEL32.dll
 0000:fffcc000       .debug$S                   10000000     kernel32:KERNEL32.dll
 0000:fffcc000       .debug$S                   10000000     kernel32:KERNEL32.dll
 0000:fffcc000       .debug$S                   10000000     kernel32:KERNEL32.dll
 0000:fffcc000       .debug$S                   10000000     kernel32:KERNEL32.dll
 0000:fffcc000       .debug$S                   10000000     kernel32:KERNEL32.dll
 0000:fffcc000       .debug$S                   10000000     kernel32:KERNEL32.dll
 0000:fffcc000       .debug$S                   10000000     kernel32:KERNEL32.dll
 0000:fffcc000       .debug$S                   10000000     kernel32:KERNEL32.dll
 0000:fffcc000       .debug$S                   10000000     kernel32:KERNEL32.dll
 0000:fffcc000       .debug$S                   10000000     kernel32:KERNEL32.dll
 0000:fffcc000       .debug$S                   10000000     kernel32:KERNEL32.dll
 0000:fffcc000       .debug$S                   10000000     kernel32:KERNEL32.dll
 0000:fffcc000       .debug$S                   10000000     kernel32:KERNEL32.dll
 0000:fffcc000       .debug$S                   10000000     kernel32:KERNEL32.dll
 0000:fffcc000       .debug$S                   10000000     kernel32:KERNEL32.dll
 0000:fffcc000       .debug$S                   10000000     kernel32:KERNEL32.dll
 0000:fffcc000       .debug$S                   10000000     kernel32:KERNEL32.dll
 0000:fffcc000       .debug$S                   10000000     kernel32:KERNEL32.dll
 0000:fffcc000       .debug$S                   10000000     kernel32:KERNEL32.dll
 0000:fffcc000       .debug$S                   10000000     kernel32:KERNEL32.dll
 0000:fffcc000       .debug$S                   10000000     kernel32:KERNEL32.dll
 0000:fffcc000       .debug$S                   10000000     kernel32:KERNEL32.dll
 0000:fffcc000       .debug$S                   10000000     kernel32:KERNEL32.dll
 0000:fffcc000       .debug$S                   10000000     kernel32:KERNEL32.dll
 0000:fffcc000       .debug$S                   10000000     kernel32:KERNEL32.dll
 0000:fffcc000       .debug$S                   10000000     kernel32:KERNEL32.dll
 0000:fffcc000       .debug$S                   10000000     kernel32:KERNEL32.dll
 0000:fffcc000       .debug$S                   10000000     kernel32:KERNEL32.dll
 0000:fffcc000       .debug$S                   10000000     kernel32:KERNEL32.dll
 0000:fffcc000       .debug$S                   10000000     kernel32:KERNEL32.dll
 0000:fffcc000       .debug$S                   10000000     kernel32:KERNEL32.dll
 0000:fffcc000       .debug$S                   10000000     kernel32:KERNEL32.dll
 0000:fffcc000       .debug$S                   10000000     kernel32:KERNEL32.dll
 0000:fffcc000       .debug$S                   10000000     kernel32:KERNEL32.dll
 0000:fffcc000       .debug$S                   10000000     kernel32:KERNEL32.dll
 0000:fffcc000       .debug$S                   10000000     kernel32:KERNEL32.dll
 0000:fffcc000       .debug$S                   10000000     kernel32:KERNEL32.dll
 0000:fffcc000       .debug$S                   10000000     kernel32:KERNEL32.dll
 0000:fffcc000       .debug$S                   10000000     kernel32:KERNEL32.dll
 0000:fffcc000       .debug$S                   10000000     kernel32:KERNEL32.dll
 0000:fffcc000       .debug$S                   10000000     kernel32:KERNEL32.dll
 0000:fffcc000       .debug$S                   10000000     kernel32:KERNEL32.dll
 0000:fffcc000       .debug$S                   10000000     kernel32:KERNEL32.dll
 0000:fffcc000       .debug$S                   10000000     kernel32:KERNEL32.dll
 0000:fffcc000       .debug$S                   10000000     kernel32:KERNEL32.dll
 0000:fffcc000       .debug$S                   10000000     kernel32:KERNEL32.dll
 0000:fffcc000       .debug$S                   10000000     kernel32:KERNEL32.dll
 0000:fffcc000       .debug$S                   10000000     kernel32:KERNEL32.dll
 0000:fffcc000       .debug$S                   10000000     kernel32:KERNEL32.dll
 0000:fffcc000       .debug$S                   10000000     kernel32:KERNEL32.dll
 0000:fffcc000       .debug$S                   10000000     kernel32:KERNEL32.dll
 0000:fffcc000       .debug$S                   10000000     kernel32:KERNEL32.dll
 0000:fffcc000       .debug$S                   10000000     kernel32:KERNEL32.dll
 0000:fffcc000       .debug$S                   10000000     kernel32:KERNEL32.dll
 0000:fffcc000       .debug$S                   10000000     kernel32:KERNEL32.dll
 0000:fffcc000       .debug$S                   10000000     kernel32:KERNEL32.dll
 0000:fffcc000       .debug$S                   10000000     kernel32:KERNEL32.dll
 0000:fffcc000       .debug$S                   10000000     kernel32:KERNEL32.dll
 0000:fffcc000       .debug$S                   10000000     kernel32:KERNEL32.dll
 0000:fffcc000       .debug$S                   10000000     kernel32:KERNEL32.dll
 0000:fffcc000       .debug$S                   10000000     kernel32:KERNEL32.dll
 0000:fffcc000       .debug$S                   10000000     kernel32:KERNEL32.dll
 0000:fffcc000       .debug$S                   10000000     kernel32:KERNEL32.dll
 0000:fffcc000       .debug$S                   10000000     kernel32:KERNEL32.dll
 0000:fffcc000       .debug$S                   10000000     kernel32:KERNEL32.dll
 0000:fffcc000       .debug$S                   10000000     kernel32:KERNEL32.dll
 0000:fffcc000       .debug$S                   10000000     kernel32:KERNEL32.dll
 0000:fffcc000       .debug$S                   10000000     kernel32:KERNEL32.dll
 0000:fffcc000       .debug$S                   10000000     kernel32:KERNEL32.dll
 0000:fffcc000       .debug$S                   10000000     kernel32:KERNEL32.dll
 0000:fffcc000       .debug$S                   10000000     kernel32:KERNEL32.dll
 0000:fffcc000       .debug$S                   10000000     kernel32:KERNEL32.dll
 0000:fffcc000       .debug$S                   10000000     kernel32:KERNEL32.dll
 0000:fffcc000       .debug$S                   10000000     kernel32:KERNEL32.dll
 0000:fffcc000       .debug$S                   10000000     kernel32:KERNEL32.dll
 0000:fffcc000       .debug$S                   10000000     kernel32:KERNEL32.dll
 0000:fffcc000       .debug$S                   10000000     kernel32:KERNEL32.dll
 0000:fffcc000       .debug$S                   10000000     kernel32:KERNEL32.dll
 0000:fffcc000       .debug$S                   10000000     kernel32:KERNEL32.dll
 0000:fffcc000       .debug$S                   10000000     kernel32:KERNEL32.dll
 0000:fffcc000       .debug$S                   10000000     kernel32:KERNEL32.dll
 0000:fffcc000       .debug$S                   10000000     kernel32:KERNEL32.dll
 0000:fffcc000       .debug$S                   10000000     kernel32:KERNEL32.dll
 0000:fffcc000       .debug$S                   10000000     kernel32:KERNEL32.dll
 0000:fffcc000       .debug$S                   10000000     ole32:ole32.dll
 0000:fffcc000       .debug$S                   10000000     ole32:ole32.dll
 0000:fffcc000       .debug$S                   10000000     ole32:ole32.dll
 0000:fffcc000       .debug$S                   10000000     ole32:ole32.dll
 0000:fffcc000       .debug$S                   10000000     ole32:ole32.dll
 0000:fffcc000       .debug$S                   10000000     ole32:ole32.dll
 0000:fffcc000       .debug$S                   10000000     ole32:ole32.dll
 0000:fffcc000       .debug$S                   10000000     ole32:ole32.dll
 0000:fffcc000       .debug$S                   10000000     ole32:ole32.dll
 0000:fffcc000       .debug$S                   10000000     ole32:ole32.dll
 0000:fffcc000       .debug$S                   10000000     ole32:ole32.dll
 0000:fffcc000       .debug$S                   10000000     ole32:ole32.dll
 0000:fffcc000       .debug$S                   10000000     ole32:ole32.dll
 0000:fffcc000       .debug$S                   10000000     ole32:ole32.dll
 0000:fffcc000       .debug$S                   10000000     oleaut32:OLEAUT32.dll
 0000:fffcc000       .debug$S                   10000000     oleaut32:OLEAUT32.dll
 0000:fffcc000       .debug$S                   10000000     oleaut32:OLEAUT32.dll
 0000:fffcc000       .debug$S                   10000000     oleaut32:OLEAUT32.dll
 0000:fffcc000       .debug$S                   10000000     oleaut32:OLEAUT32.dll
 0000:fffcc000       .debug$S                   10000000     oleaut32:OLEAUT32.dll
 0000:fffcc000       .debug$S                   10000000     oleaut32:OLEAUT32.dll
 0000:fffcc000       .debug$S                   10000000     oleaut32:OLEAUT32.dll
 0000:fffcc000       .debug$S                   10000000     oleaut32:OLEAUT32.dll
 0000:fffcc000       .debug$S                   10000000     oleaut32:OLEAUT32.dll
 0000:fffcc000       .debug$S                   10000000     oleaut32:OLEAUT32.dll
 0000:fffcc000       .debug$S                   10000000     oleaut32:OLEAUT32.dll
 0000:fffcc000       .debug$S                   10000000     oleaut32:OLEAUT32.dll
 0000:fffcc000       .debug$S                   10000000     oleaut32:OLEAUT32.dll
 0000:fffcc000       .debug$S                   10000000     oleaut32:OLEAUT32.dll
 0000:fffcc000       .debug$S                   10000000     oleaut32:OLEAUT32.dll
 0000:fffcc000       .debug$S                   10000000     user32:USER32.dll
 0000:fffcc000       .debug$S                   10000000     user32:USER32.dll
 0000:fffcc000       .debug$S                   10000000     user32:USER32.dll
 0000:fffcc000       .debug$S                   10000000     user32:USER32.dll
 0000:fffcc000       .debug$S                   10000000     user32:USER32.dll
 0000:fffcc000       .debug$S                   10000000     user32:USER32.dll
 0000:fffcc000       .debug$S                   10000000     user32:USER32.dll
 0000:fffcc000       .debug$S                   10000000     user32:USER32.dll
 0000:fffcc000       .debug$S                   10000000     user32:USER32.dll
 0000:fffcc000       .debug$S                   10000000     user32:USER32.dll
 0000:fffcc000       .debug$S                   10000000     user32:USER32.dll
 0000:fffcc000       .debug$S                   10000000     user32:USER32.dll
 0000:fffcc000       .debug$S                   10000000     user32:USER32.dll
 0000:fffcc000       .debug$S                   10000000     user32:USER32.dll
 0000:fffcc000       .debug$S                   10000000     user32:USER32.dll
 0000:fffcc000       .debug$S                   10000000     user32:USER32.dll
 0000:fffcc000       .debug$S                   10000000     user32:USER32.dll
 0000:fffcc000       .debug$S                   10000000     user32:USER32.dll
 0000:fffcc000       .debug$S                   10000000     user32:USER32.dll
 0000:fffcc000       .debug$S                   10000000     user32:USER32.dll
 0000:fffcc000       .debug$S                   10000000     user32:USER32.dll
 0000:fffcc000       .debug$S                   10000000     user32:USER32.dll
 0000:fffcc000       .debug$S                   10000000     user32:USER32.dll
 0000:fffcc000       .debug$S                   10000000     user32:USER32.dll
 0000:fffcc000       .debug$S                   10000000     user32:USER32.dll
 0000:fffcc000       .debug$S                   10000000     user32:USER32.dll
 0000:fffcc000       .debug$S                   10000000     user32:USER32.dll
 0000:fffcc000       .debug$S                   10000000     user32:USER32.dll
 0000:fffcc000       .debug$S                   10000000     user32:USER32.dll
 0000:fffcc000       .debug$S                   10000000     user32:USER32.dll
 0000:fffcc000       .debug$S                   10000000     user32:USER32.dll
 0000:fffcc000       .debug$S                   10000000     user32:USER32.dll
 0000:fffcc000       .debug$S                   10000000     user32:USER32.dll
 0000:fffcc000       .debug$S                   10000000     user32:USER32.dll
 0000:fffcc000       .debug$S                   10000000     user32:USER32.dll
 0001:00000000       ??__E_AtlComModule@ATL@@YAXXZ 10001000 f   OposVariant.obj
 0001:00000016       ??__E_AtlWinModule@ATL@@YAXXZ 10001016 f   OposVariant.obj
 0001:0000002c       ??__E?pConnMap@?$IConnectionPointContainerImpl@VCOPOSCheckScanner@@@ATL@@0PBU_ATL_CONNMAP_ENTRY@2@B@@YAXXZ 1000102c f   CheckScanner.obj
 0001:0000003a       ??__E_Module@@YAXXZ        1000103a f   CheckScanner.obj
 0001:00000064       ??__E_AtlBaseModule@ATL@@YAXXZ 10001064 f   atls:atlbase.obj
 0001:0000102e       $LN24                      1000202e     CheckScanner.obj
 0001:000058b2       $LN48                      100068b2     CheckScanner.obj
 0001:000058ca       $LN47                      100068ca     CheckScanner.obj
 0001:00007a75       $LN38                      10008a75     CheckScanner.obj
 0001:00007a8d       $LN37                      10008a8d     CheckScanner.obj
 0001:0000917d       $LN76                      1000a17d     CheckScanner.obj
 0001:00009195       $LN75                      1000a195     CheckScanner.obj
 0001:0000954e       _memcpy_s                  1000a54e f   CheckScanner.obj
 0001:0000b800       ?find_pe_section@@YAPAU_IMAGE_SECTION_HEADER@@QAEI@Z 1000c800 f   LIBCMT:utility.obj
 0001:0000bb1f       ?__scrt_initialize_thread_safe_statics@@YAHXZ 1000cb1f f   LIBCMT:thread_safe_statics.obj
 0001:0000bb46       ?__scrt_initialize_thread_safe_statics_platform_specific@@YAXXZ 1000cb46 f   LIBCMT:thread_safe_statics.obj
 0001:0000bbc8       ?__scrt_uninitialize_thread_safe_statics@@YAXXZ 1000cbc8 f   LIBCMT:thread_safe_statics.obj
 0001:0000bf37       __catch$??2@YAPAXIABUnothrow_t@std@@@Z$0 1000cf37 f   LIBCMT:new_scalar_nothrow.obj
 0001:0000bf70       $$000000                   1000cf70     LIBCMT:sehprolg4gs.obj
 0001:0000bfd0       $$000000                   1000cfd0     LIBCMT:alloca16.obj
 0001:0000c000       $$000000                   1000d000     LIBCMT:chkstk.obj
 0001:0000c02d       ?dllmain_crt_dispatch@@YGHQAUHINSTANCE__@@KQAX@Z 1000d02d f   LIBCMT:dll_dllmain.obj
 0001:0000c080       ?dllmain_crt_process_attach@@YAHQAUHINSTANCE__@@QAX@Z 1000d080 f   LIBCMT:dll_dllmain.obj
 0001:0000c187       ?dllmain_crt_process_detach@@YAH_N@Z 1000d187 f   LIBCMT:dll_dllmain.obj
 0001:0000c237       ?dllmain_dispatch@@YAHQAUHINSTANCE__@@KQAX@Z 1000d237 f   LIBCMT:dll_dllmain.obj
 0001:0000c342       ?dllmain_raw@@YGHQAUHINSTANCE__@@KQAX@Z 1000d342 f   LIBCMT:dll_dllmain.obj
 0001:0000c6c0       $$000000                   1000d6c0     LIBCMT:sehprolg4.obj
 0001:0000c71b       ___get_entropy             1000d71b f   LIBCMT:gs_support.obj
 0001:0000ca12       ??$GetProcAddressAll@P6GP6GJPAUHWND__@@IIJ@ZPAUAtlThunkData_t@@@Z@@YAP6GP6GJPAUHWND__@@IIJ@ZPAUAtlThunkData_t@@@ZPAP6GP6GJ0IIJ@Z1@Z@Z 1000da12 f   atls:atlthunk.obj
 0001:0000ca12       ??$GetProcAddressAll@P6GPAUAtlThunkData_t@@XZ@@YAP6GPAUAtlThunkData_t@@XZPAP6GPAU0@XZ@Z 1000da12 f   atls:atlthunk.obj
 0001:0000ca12       ??$GetProcAddressAll@P6GXPAUAtlThunkData_t@@@Z@@YAP6GXPAUAtlThunkData_t@@@ZPAP6GX0@Z@Z 1000da12 f   atls:atlthunk.obj
 0001:0000ca12       ??$GetProcAddressAll@P6GXPAUAtlThunkData_t@@PAXI@Z@@YAP6GXPAUAtlThunkData_t@@PAXI@ZPAP6GX01I@Z@Z 1000da12 f   atls:atlthunk.obj
 0001:0000cac2       ?GetProcAddressSingle@@YA_NPAUHINSTANCE__@@PBDPAPAX@Z 1000dac2 f   atls:atlthunk.obj
 0001:0000cc14       ?__InitializeThunkPool@@YAHXZ 1000dc14 f   atls:atlthunk.obj
 0001:0000d060       _ValidateLocalCookies      1000e060 f   libvcruntime:chandler4.obj
 0001:0000e08a       $LN1250                    1000f08a     libvcruntime:memcmp.obj
 0001:0000e110       $$000000                   1000f110     libvcruntime:memcpy.obj
 0001:0000e374       TrailingUpVec              1000f374     libvcruntime:memcpy.obj
 0001:0000e420       TrailingDownVec            1000f420     libvcruntime:memcpy.obj
 0001:0000e690       $$000000                   1000f690     libvcruntime:memset.obj
 0001:0000ec93       ?_FilterSetCurrentException@@YAKPAU_EXCEPTION_POINTERS@@E@Z 1000fc93 f   libvcruntime:ehhelpers.obj
 0001:0000eee0       $$000000                   1000fee0     libvcruntime:memmove.obj
 0001:0000f144       TrailingUpVec              10010144     libvcruntime:memmove.obj
 0001:0000f1f0       TrailingDownVec            100101f0     libvcruntime:memmove.obj
 0001:0000f460       $$000000                   10010460     libvcruntime:exsup4.obj
 0001:0000f4ed       __unwind_handler4          100104ed f   libvcruntime:exsup4.obj
 0001:0000f7cb       ??$BuildCatchObjectHelperInternal@V__FrameHandler3@@@@YAHPAUEHExceptionRecord@@PAXPBU_s_HandlerType@@PBU_s_CatchableType@@@Z 100107cb f   libvcruntime:frame.obj
 0001:0000f909       ??$BuildCatchObjectInternal@V__FrameHandler3@@@@YAXPAUEHExceptionRecord@@PAXPBU_s_HandlerType@@PBU_s_CatchableType@@@Z 10010909 f   libvcruntime:frame.obj
 0001:0000f9a2       ??$CatchIt@V__FrameHandler3@@@@YAXPAUEHExceptionRecord@@PAUEHRegistrationNode@@PAU_CONTEXT@@PAXPBU_s_FuncInfo@@PBU_s_HandlerType@@PBU_s_CatchableType@@PBU_s_TryBlockMapEntry@@H1EE@Z 100109a2 f   libvcruntime:frame.obj
 0001:0000fa22       ??$FindHandler@V__FrameHandler3@@@@YAXPAUEHExceptionRecord@@PAUEHRegistrationNode@@PAU_CONTEXT@@PAXPBU_s_FuncInfo@@EH1@Z 10010a22 f   libvcruntime:frame.obj
 0001:0000fdd8       ??$FindHandlerForForeignException@V__FrameHandler3@@@@YAXPAUEHExceptionRecord@@PAUEHRegistrationNode@@PAU_CONTEXT@@PAXPBU_s_FuncInfo@@HH1@Z 10010dd8 f   libvcruntime:frame.obj
 0001:000100f0       ?CallCatchBlock@@YAPAXPAUEHExceptionRecord@@PAUEHRegistrationNode@@PAU_CONTEXT@@PBU_s_FuncInfo@@PAXHK@Z 100110f0 f   libvcruntime:frame.obj
 0001:000102b4       ?CallUnexpected@@YAXPBU_s_ESTypeList@@@Z 100112b4 f   libvcruntime:frame.obj
 0001:000102d4       __catch$?CallUnexpected@@YAXPBU_s_ESTypeList@@@Z$0 100112d4 f   libvcruntime:frame.obj
 0001:000102f3       ?ExFilterRethrow@@YAHPAU_EXCEPTION_POINTERS@@@Z 100112f3 f   libvcruntime:frame.obj
 0001:0001043d       ?IsInExceptionSpec@@YAEPAUEHExceptionRecord@@PBU_s_ESTypeList@@@Z 1001143d f   libvcruntime:frame.obj
 0001:00010510       $$000000                   10011510     libvcruntime:lowhelpr.obj
 0001:00010560       $$000000                   10011560     libvcruntime:exsup.obj
 0001:00010581       __unwind_handler           10011581 f   libvcruntime:exsup.obj
 0001:0001069e       ?try_get_first_available_module@@YAPAUHINSTANCE__@@QBW4module_id@?A0xb97aeec8@@0@Z 1001169e f   libvcruntime:winapi_downlevel.obj
 0001:00010738       ?try_get_function@@YAPAXW4function_id@?A0xb97aeec8@@QBDQBW4module_id@2@2@Z 10011738 f   libvcruntime:winapi_downlevel.obj
 0001:00010dc2       ??$common_tcsncpy_s@_W@@YAHQA_WIQB_WI@Z 10011dc2 f   libucrt:wcsncpy_s.obj
 0001:00010e98       ??$common_vsprintf@Vformat_validation_base@__crt_stdio_output@@_W@@YAH_KQA_WIQB_WQAU__crt_locale_pointers@@QAD@Z 10011e98 f   libucrt:output.obj
 0001:0001101f       ??$common_vsprintf_s@_W@@YAH_KQA_WIQB_WQAU__crt_locale_pointers@@QAD@Z 1001201f f   libucrt:output.obj
 0001:00011783       $LN48                      10012783     libucrt:output.obj
 0001:00011c8c       $LN18                      10012c8c     libucrt:output.obj
 0001:00011ca0       $LN17                      10012ca0     libucrt:output.obj
 0001:000124fb       ??$?RV<lambda_03b1d95aef87969028cfba75ccab2455>@@AAV<lambda_6e4b09c48022b2350581041d5f6b0c4c>@@V<lambda_22bdf7517842c4b3e53723af5aa32b9e>@@@?$__crt_seh_guarded_call@X@@QAEX$$QAV<lambda_03b1d95aef87969028cfba75ccab2455>@@AAV<lambda_6e4b09c48022b2350581041d5f6b0c4c>@@$$QAV<lambda_22bdf7517842c4b3e53723af5aa32b9e>@@@Z 100134fb f   libucrt:exit.obj
 0001:00012548       ??R<lambda_6e4b09c48022b2350581041d5f6b0c4c>@@QBE@XZ 10013548 f   libucrt:exit.obj
 0001:00012622       ?atexit_exception_filter@@YAHK@Z 10013622 f   libucrt:exit.obj
 0001:00012635       ?common_exit@@YAXHW4_crt_exit_cleanup_mode@@W4_crt_exit_return_mode@@@Z 10013635 f   libucrt:exit.obj
 0001:00012699       ?exit_or_terminate_process@@YAXI@Z 10013699 f   libucrt:exit.obj
 0001:000126db       ?is_managed_app@@YA_NXZ    100136db f   libucrt:exit.obj
 0001:0001271e       ?try_cor_exit_process@@YAXI@Z 1001371e f   libucrt:exit.obj
 0001:000127ac       ??$common_configure_argv@D@@YAHW4_crt_argv_mode@@@Z 100137ac f   libucrt:argv_parsing.obj
 0001:000128e2       ??$parse_command_line@D@@YAXPADPAPAD0PAI2@Z 100138e2 f   libucrt:argv_parsing.obj
 0001:00012ab0       ??$common_initialize_environment_nolock@D@@YAHXZ 10013ab0 f   libucrt:environment_initialization.obj
 0001:00012b03       ??$create_environment@D@@YAQAPADQAD@Z 10013b03 f   libucrt:environment_initialization.obj
 0001:00012bd3       ??$free_environment@D@@YAXQAPAD@Z 10013bd3 f   libucrt:environment_initialization.obj
 0001:00012bd3       ??$free_environment@_W@@YAXQAPA_W@Z 10013bd3 f   libucrt:environment_initialization.obj
 0001:00012c2b       ??$uninitialize_environment_internal@D@@YAXAAPAPAD@Z 10013c2b f   libucrt:environment_initialization.obj
 0001:00012c46       ??$uninitialize_environment_internal@_W@@YAXAAPAPA_W@Z 10013c46 f   libucrt:environment_initialization.obj
 0001:00012c9d       ??$?RV<lambda_69a2805e680e0e292e8ba93315fe43a8>@@AAV<lambda_f03950bc5685219e0bcd2087efbe011e>@@V<lambda_03fcd07e894ec930e3f35da366ca99d6>@@@?$__crt_seh_guarded_call@H@@QAEH$$QAV<lambda_69a2805e680e0e292e8ba93315fe43a8>@@AAV<lambda_f03950bc5685219e0bcd2087efbe011e>@@$$QAV<lambda_03fcd07e894ec930e3f35da366ca99d6>@@@Z 10013c9d f   libucrt:onexit.obj
 0001:00012cf8       ??$?RV<lambda_8e746cf0007f6ed984d6f78af1fec997>@@AAV<lambda_22ebabd17bc4fa466a2aca6d8deb888d>@@V<lambda_18ed0c0b38a6dc0daf1e7ac6d6adf05e>@@@?$__crt_seh_guarded_call@H@@QAEH$$QAV<lambda_8e746cf0007f6ed984d6f78af1fec997>@@AAV<lambda_22ebabd17bc4fa466a2aca6d8deb888d>@@$$QAV<lambda_18ed0c0b38a6dc0daf1e7ac6d6adf05e>@@@Z 10013cf8 f   libucrt:onexit.obj
 0001:00012d72       ??R<lambda_22ebabd17bc4fa466a2aca6d8deb888d>@@QBEHXZ 10013d72 f   libucrt:onexit.obj
 0001:00012e9b       ??R<lambda_f03950bc5685219e0bcd2087efbe011e>@@QBEHXZ 10013e9b f   libucrt:onexit.obj
 0001:00013014       _initialize_global_variables 10014014 f   libucrt:initialization.obj
 0001:00013021       _initialize_c              10014021 f   libucrt:initialization.obj
 0001:0001303b       _initialize_environment    1001403b f   libucrt:initialization.obj
 0001:0001303b       _initialize_global_state_isolation 1001403b f   libucrt:initialization.obj
 0001:0001303b       _report_memory_leaks       1001403b f   libucrt:initialization.obj
 0001:0001303b       _uninitialize_c            1001403b f   libucrt:initialization.obj
 0001:0001303b       _uninitialize_global_state_isolation 1001403b f   libucrt:initialization.obj
 0001:0001303e       _uninitialize_environment  1001403e f   libucrt:initialization.obj
 0001:00013046       _initialize_pointers       10014046 f   libucrt:initialization.obj
 0001:00013074       _uninitialize_vcruntime    10014074 f   libucrt:initialization.obj
 0001:0001307d       _uninitialize_allocated_memory 1001407d f   libucrt:initialization.obj
 0001:00013094       _uninitialize_allocated_io_buffers 10014094 f   libucrt:initialization.obj
 0001:000130e4       ??R<lambda_af42a3ee9806e9a7305d451646e05244>@@QBEXAAPAU__crt_multibyte_data@@@Z 100140e4 f   libucrt:initialization.obj
 0001:000139d0       $$000000                   100149d0     libucrt:strncmp.obj
 0001:00013abc       ??$?RV<lambda_15ade71b0218206bbe3333a0c9b79046>@@AAV<lambda_da44e0f8b0f19ba52fefafb335991732>@@V<lambda_207f2d024fc103971653565357d6cd41>@@@?$__crt_seh_guarded_call@X@@QAEX$$QAV<lambda_15ade71b0218206bbe3333a0c9b79046>@@AAV<lambda_da44e0f8b0f19ba52fefafb335991732>@@$$QAV<lambda_207f2d024fc103971653565357d6cd41>@@@Z 10014abc f   libucrt:per_thread_data.obj
 0001:00013b0e       ??$?RV<lambda_38edbb1296d33220d7e4dd0ed76b244a>@@AAV<lambda_5ce1d447e08cb34b2473517608e21441>@@V<lambda_fb385d3da700c9147fc39e65dd577a8c>@@@?$__crt_seh_guarded_call@X@@QAEX$$QAV<lambda_38edbb1296d33220d7e4dd0ed76b244a>@@AAV<lambda_5ce1d447e08cb34b2473517608e21441>@@$$QAV<lambda_fb385d3da700c9147fc39e65dd577a8c>@@@Z 10014b0e f   libucrt:per_thread_data.obj
 0001:00013b79       ??$?RV<lambda_6affb1475c98b40b75cdec977db92e3c>@@AAV<lambda_b8d4b9c228a6ecc3f80208dbb4b4a104>@@V<lambda_608742c3c92a14382c1684fc64f96c88>@@@?$__crt_seh_guarded_call@X@@QAEX$$QAV<lambda_6affb1475c98b40b75cdec977db92e3c>@@AAV<lambda_b8d4b9c228a6ecc3f80208dbb4b4a104>@@$$QAV<lambda_608742c3c92a14382c1684fc64f96c88>@@@Z 10014b79 f   libucrt:per_thread_data.obj
 0001:00013bce       ??$?RV<lambda_a7e850c220f1c8d1e6efeecdedd162c6>@@AAV<lambda_46720907175c18b6c9d2717bc0d2d362>@@V<lambda_9048902d66e8d99359bc9897bbb930a8>@@@?$__crt_seh_guarded_call@X@@QAEX$$QAV<lambda_a7e850c220f1c8d1e6efeecdedd162c6>@@AAV<lambda_46720907175c18b6c9d2717bc0d2d362>@@$$QAV<lambda_9048902d66e8d99359bc9897bbb930a8>@@@Z 10014bce f   libucrt:per_thread_data.obj
 0001:00013c28       ?construct_ptd@@YAXQAU__acrt_ptd@@QAPAU__crt_locale_data@@@Z 10014c28 f   libucrt:per_thread_data.obj
 0001:00013cc1       ?destroy_fls@@YGXPAX@Z     10014cc1 f   libucrt:per_thread_data.obj
 0001:00013ce2       ?destroy_ptd@@YAXQAU__acrt_ptd@@@Z 10014ce2 f   libucrt:per_thread_data.obj
 0001:00013daf       ?replace_current_thread_locale_nolock@@YAXQAU__acrt_ptd@@QAU__crt_locale_data@@@Z 10014daf f   libucrt:per_thread_data.obj
 0001:000141bf       ?try_get_AreFileApisANSI@@YAP6GHXZXZ 100151bf f   libucrt:winapi_thunks.obj
 0001:000141d9       ?try_get_LCMapStringEx@@YAP6GHPB_WK0HPA_WHPAU_nlsversioninfo@@PAXJ@ZXZ 100151d9 f   libucrt:winapi_thunks.obj
 0001:000141f3       ?try_get_LocaleNameToLCID@@YAP6GKPB_WK@ZXZ 100151f3 f   libucrt:winapi_thunks.obj
 0001:0001420d       ?try_get_first_available_module@@YAPAUHINSTANCE__@@QBW4module_id@?A0x391cf84c@@0@Z 1001520d f   libucrt:winapi_thunks.obj
 0001:000142d4       ?try_get_function@@YAPAXW4function_id@?A0x391cf84c@@QBDQBW4module_id@2@2@Z 100152d4 f   libucrt:winapi_thunks.obj
 0001:00014a37       ?fe_to_nearest@@YA_NQBN_KF@Z 10015a37 f   libucrt:cvt.obj
 0001:00014ada       ?fp_format_a@@YAHQBNPADIQADIH_NIQAU__crt_locale_pointers@@W4__acrt_rounding_mode@@@Z 10015ada f   libucrt:cvt.obj
 0001:00014de9       ?fp_format_e@@YAHQBNQADI1IH_NIQAU__crt_locale_pointers@@W4__acrt_rounding_mode@@@Z 10015de9 f   libucrt:cvt.obj
 0001:00014e91       ?fp_format_e_internal@@YAHQADIH_NIQAU_strflt@@1QAU__crt_locale_pointers@@@Z 10015e91 f   libucrt:cvt.obj
 0001:00014fd9       ?fp_format_f@@YAHQBNQADI1IHQAU__crt_locale_pointers@@W4__acrt_rounding_mode@@@Z 10015fd9 f   libucrt:cvt.obj
 0001:0001506a       ?fp_format_f_internal@@YAHQADIHQAU_strflt@@_NQAU__crt_locale_pointers@@@Z 1001606a f   libucrt:cvt.obj
 0001:00015162       ?fp_format_g@@YAHQBNQADI1IH_NIQAU__crt_locale_pointers@@@Z 10016162 f   libucrt:cvt.obj
 0001:0001522b       ?fp_format_nan_or_infinity@@YAHW4__acrt_fp_class@@_NPADI1@Z 1001622b f   libucrt:cvt.obj
 0001:000152c0       ?shift_bytes@@YAXQADI0H@Z  100162c0 f   libucrt:cvt.obj
 0001:000152f4       ?should_round_up@@YA_NQBN_KFW4__acrt_rounding_mode@@@Z 100162f4 f   libucrt:cvt.obj
 0001:0001565d       ??$?RV<lambda_e5124f882df8998aaf41531e079ba474>@@AAV<lambda_3e16ef9562a7dcce91392c22ab16ea36>@@V<lambda_e25ca0880e6ef98be67edffd8c599615>@@@?$__crt_seh_guarded_call@X@@QAEX$$QAV<lambda_e5124f882df8998aaf41531e079ba474>@@AAV<lambda_3e16ef9562a7dcce91392c22ab16ea36>@@$$QAV<lambda_e25ca0880e6ef98be67edffd8c599615>@@@Z 1001665d f   libucrt:wsetlocale.obj
 0001:000156fd       ?initialize_inherited_file_handles_nolock@@YAXXZ 100166fd f   libucrt:ioinit.obj
 0001:000157b3       ?initialize_stdio_handles_nolock@@YAXXZ 100167b3 f   libucrt:ioinit.obj
 0001:000159c4       ?<lambda_invoker_cdecl>@<lambda_838c7f62c73c983481e27c09e84b0b5d>@@CAHPBX0@Z 100169c4 f   libucrt:argv_wildcards.obj
 0001:000159dc       ??$__acrt_convert_wcs_mbs_cp@D_WV<lambda_62f6974d9771e494a5ea317cc32e971c>@@U__crt_win32_buffer_internal_dynamic_resizing@@@@YAHQBDAAV?$__crt_win32_buffer@_WU__crt_win32_buffer_internal_dynamic_resizing@@@@ABV<lambda_62f6974d9771e494a5ea317cc32e971c>@@I@Z 100169dc f   libucrt:argv_wildcards.obj
 0001:00015a8e       ??$__acrt_convert_wcs_mbs_cp@_WDV<lambda_28bda7af82a03b66c1cb3803a755f95d>@@U__crt_win32_buffer_internal_dynamic_resizing@@@@YAHQB_WAAV?$__crt_win32_buffer@DU__crt_win32_buffer_internal_dynamic_resizing@@@@ABV<lambda_28bda7af82a03b66c1cb3803a755f95d>@@I@Z 10016a8e f   libucrt:argv_wildcards.obj
 0001:00015b7a       ??$common_expand_argv_wildcards@D@@YAHQAPADQAPAPAD@Z 10016b7a f   libucrt:argv_wildcards.obj
 0001:00015d69       ??$copy_and_add_argument_to_buffer@D@@YAHQBD0IAAV?$argument_list@D@?A0x5f5c8891@@@Z 10016d69 f   libucrt:argv_wildcards.obj
 0001:00015e1a       ??$expand_argument_wildcards@D@@YAHQAD0AAV?$argument_list@D@?A0x5f5c8891@@@Z 10016e1a f   libucrt:argv_wildcards.obj
 0001:00016164       ?expand_if_necessary@?$argument_list@D@?A0x5f5c8891@@AAEHXZ 10017164 f   libucrt:argv_wildcards.obj
 0001:000161f6       ??$__acrt_convert_wcs_mbs_cp@_WDV<lambda_0fec1a7b3f42a53036604e18c2d5e07e>@@U__crt_win32_buffer_no_resizing@@@@YAHQB_WAAV?$__crt_win32_buffer@DU__crt_win32_buffer_no_resizing@@@@ABV<lambda_0fec1a7b3f42a53036604e18c2d5e07e>@@I@Z 100171f6 f   libucrt:getmodulefilenamea.obj
 0001:00016399       ??$?RV<lambda_ceb1ee4838e85a9d631eb091e2fbe199>@@AAV<lambda_ae742caa10f662c28703da3d2ea5e57e>@@V<lambda_cd08b5d6af4937fe54fc07d0c9bf6b37>@@@?$__crt_seh_guarded_call@X@@QAEX$$QAV<lambda_ceb1ee4838e85a9d631eb091e2fbe199>@@AAV<lambda_ae742caa10f662c28703da3d2ea5e57e>@@$$QAV<lambda_cd08b5d6af4937fe54fc07d0c9bf6b37>@@@Z 10017399 f   libucrt:mbctype.obj
 0001:000163e6       ??R<lambda_ae742caa10f662c28703da3d2ea5e57e>@@QBEXXZ 100173e6 f   libucrt:mbctype.obj
 0001:00016469       ?CPtoLocaleName@@YAPB_WH@Z 10017469 f   libucrt:mbctype.obj
 0001:000164a7       ?getSystemCP@@YAHH@Z       100174a7 f   libucrt:mbctype.obj
 0001:00016518       ?setSBCS@@YAXPAU__crt_multibyte_data@@@Z 10017518 f   libucrt:mbctype.obj
 0001:0001657d       ?setSBUpLow@@YAXPAU__crt_multibyte_data@@@Z 1001757d f   libucrt:mbctype.obj
 0001:000166fd       ?setmbcp_internal@@YAHH_NQAU__acrt_ptd@@QAPAU__crt_multibyte_data@@@Z 100176fd f   libucrt:mbctype.obj
 0001:00016811       ?update_thread_multibyte_data_internal@@YAPAU__crt_multibyte_data@@QAU__acrt_ptd@@QAPAU1@@Z 10017811 f   libucrt:mbctype.obj
 0001:00016aff       _memcpy_s                  10017aff f   libucrt:cfout.obj
 0001:00016aff       _memcpy_s                  10017aff f   libucrt:mbctype.obj
 0001:00016b80       ?x_ismbbtype_l@@YAHPAU__crt_locale_pointers@@IHH@Z 10017b80 f   libucrt:ismbbyte.obj
 0001:00016d3b       ?find_end_of_double_null_terminated_sequence@@YAPB_WQB_W@Z 10017d3b f   libucrt:get_environment_from_os.obj
 0001:00016eaa       ??$?RV<lambda_cbab9ec6f41b0180b23cc171c22676b0>@@AAV<lambda_44731a7d0e6d81c3e6aa82d741081786>@@V<lambda_4b292cb8dd18144e164572427af410ab>@@@?$__crt_seh_guarded_call@P6AXH@Z@@QAEP6AXH@Z$$QAV<lambda_cbab9ec6f41b0180b23cc171c22676b0>@@AAV<lambda_44731a7d0e6d81c3e6aa82d741081786>@@$$QAV<lambda_4b292cb8dd18144e164572427af410ab>@@@Z 10017eaa f   libucrt:signal.obj
 0001:00016f0e       ?get_global_action_nolock@@YAPAP6AXH@ZH@Z 10017f0e f   libucrt:signal.obj
 0001:00016f50       ?siglookup@@YAPAU__crt_signal_action_t@@HQAU1@@Z 10017f50 f   libucrt:signal.obj
 0001:00017209       ??$?RV<lambda_2866be3712abc81a800a822484c830d8>@@AAV<lambda_39ca0ed439415581b5b15c265174cece>@@V<lambda_2b24c74d71094a6cd0cb82e44167d71b>@@@?$__crt_seh_guarded_call@X@@QAEX$$QAV<lambda_2866be3712abc81a800a822484c830d8>@@AAV<lambda_39ca0ed439415581b5b15c265174cece>@@$$QAV<lambda_2b24c74d71094a6cd0cb82e44167d71b>@@@Z 10018209 f   libucrt:fflush.obj
 0001:00017295       ??$?RV<lambda_2cc53f568c5a2bb6f192f930a45d44ea>@@AAV<lambda_ab61a845afdef5b7c387490eaf3616ee>@@V<lambda_c2ffc0b7726aa6be21d5f0026187e748>@@@?$__crt_seh_guarded_call@X@@QAEX$$QAV<lambda_2cc53f568c5a2bb6f192f930a45d44ea>@@AAV<lambda_ab61a845afdef5b7c387490eaf3616ee>@@$$QAV<lambda_c2ffc0b7726aa6be21d5f0026187e748>@@@Z 10018295 f   libucrt:fflush.obj
 0001:00017341       ?common_flush_all@@YAH_N@Z 10018341 f   libucrt:fflush.obj
 0001:0001738e       ?common_flush_all_should_try_to_flush_stream@@YA_NV__crt_stdio_stream@@QAH@Z 1001838e f   libucrt:fflush.obj
 0001:000173c1       ?is_stream_flushable_or_commitable@@YA_NJ@Z 100183c1 f   libucrt:fflush.obj
 0001:000178ca       ?GetTableIndexFromLocaleName@@YAHPB_W@Z 100188ca f   libucrt:lcidtoname_downlevel.obj
 0001:00017980       ??R<lambda_3d301b9e52f5099be73030e1f0bf487e>@@QBEIPBD@Z 10018980 f   libucrt:mbrtowc.obj
 0001:00017b06       ?should_round_up@@YA_NQBDHW4__acrt_has_trailing_digits@@W4__acrt_rounding_mode@@@Z 10018b06 f   libucrt:_fptostr.obj
 0001:000198a4       ?free_crt_array_internal@@YAXQAPBXI@Z 1001a8a4 f   libucrt:inittime.obj
 0001:0001a26e       ??$common_tcsncpy_s@D@@YAHQADIQBDI@Z 1001b26e f   libucrt:strncpy_s.obj
 0001:0001a330       $$000000                   1001b330     libucrt:strpbrk.obj
 0001:0001a414       ?__acrt_LCMapStringA_stat@@YAHPAU__crt_locale_pointers@@PB_WKPBDHPADHHH@Z 1001b414 f   libucrt:lcmapstringa.obj
 0001:0001a647       ?initialize_multibyte@@YAHXZ 1001b647 f   libucrt:multibyte_initializer.obj
 0001:0001a656       ??$?RV<lambda_9e9de3de5fa147e2223d7db92bc10aa6>@@AAV<lambda_38ce7e780aa69e748d6df282ebc68efe>@@V<lambda_8ca6da459f0f6780f1cff60fdc3d00e5>@@@?$__crt_seh_guarded_call@H@@QAEH$$QAV<lambda_9e9de3de5fa147e2223d7db92bc10aa6>@@AAV<lambda_38ce7e780aa69e748d6df282ebc68efe>@@$$QAV<lambda_8ca6da459f0f6780f1cff60fdc3d00e5>@@@Z 1001b656 f   libucrt:commit.obj
 0001:0001a775       ?write_double_translated_ansi_nolock@@YA?AUwrite_result@?A0x17268360@@HQBDI@Z 1001b775 f   libucrt:write.obj
 0001:0001ab21       ?write_double_translated_unicode_nolock@@YA?AUwrite_result@?A0x17268360@@QBDI@Z 1001bb21 f   libucrt:write.obj
 0001:0001ab89       ?write_requires_double_translation_nolock@@YA_NH@Z 1001bb89 f   libucrt:write.obj
 0001:0001abfa       ?write_text_ansi_nolock@@YA?AUwrite_result@?A0x17268360@@HQBDI@Z 1001bbfa f   libucrt:write.obj
 0001:0001acd5       ?write_text_utf16le_nolock@@YA?AUwrite_result@?A0x17268360@@HQBDI@Z 1001bcd5 f   libucrt:write.obj
 0001:0001adbe       ?write_text_utf8_nolock@@YA?AUwrite_result@?A0x17268360@@HQBDI@Z 1001bdbe f   libucrt:write.obj
 0001:0001b4e0       $$000000                   1001c4e0     libucrt:log10_impl.obj
 0001:0001b5f0       $$000000                   1001c5f0     libucrt:ceil_pentium4.obj
 0001:0001b70d       ?to_abstract_control@@YA?AW4__acrt_fenv_abstract_control@@W4__acrt_fenv_machine_sse_control@@@Z 1001c70d f   libucrt:_fenvutils.obj
 0001:0001b7c9       ?to_abstract_control@@YA?AW4__acrt_fenv_abstract_control@@W4__acrt_fenv_machine_x87_control@@@Z 1001c7c9 f   libucrt:_fenvutils.obj
 0001:0001b882       ?to_machine_sse_control@@YA?AW4__acrt_fenv_machine_sse_control@@W4__acrt_fenv_abstract_control@@@Z 1001c882 f   libucrt:_fenvutils.obj
 0001:0001b94f       ?to_machine_x87_control@@YA?AW4__acrt_fenv_machine_x87_control@@W4__acrt_fenv_abstract_control@@@Z 1001c94f f   libucrt:_fenvutils.obj
 0001:0001bce3       ??$common_lseek_nolock@_J@@YA_JH_JH@Z 1001cce3 f   libucrt:lseek.obj
 0001:0001bec9       ___hw_cw_sse2              1001cec9 f   libucrt:ieee87.obj
 0001:0001c34f       __hw_cw                    1001d34f f   libucrt:ieee87.obj
 0001:0001c400       $$000000                   1001d400     libucrt:log10_pentium4.obj
 0001:0001c690       $$000000                   1001d690     libucrt:87tran.obj
 0001:0001c8a0       $$000000                   1001d8a0     libucrt:87disp.obj
 0001:0001cb00       $$000000                   1001db00     libucrt:common.obj
 0001:0001cc90       $$000000                   1001dc90     libucrt:genexcep.obj
 0001:0001cf8c       ??$?RV<lambda_218ce3db14220d0be481dae8ef3383b6>@@AAV<lambda_628dfdc04ba53c8bfc02c9951375f3f5>@@V<lambda_57dc472bd5c9d5f3b2cbca59b8a843ae>@@@?$__crt_seh_guarded_call@H@@QAEH$$QAV<lambda_218ce3db14220d0be481dae8ef3383b6>@@AAV<lambda_628dfdc04ba53c8bfc02c9951375f3f5>@@$$QAV<lambda_57dc472bd5c9d5f3b2cbca59b8a843ae>@@@Z 1001df8c f   libucrt:close.obj
 0001:0001d180       $$000000                   1001e180     libucrt:_strnicm.obj
 0001:0001d1e1       ?__dcrt_lowio_initialize_console_output@@YAXXZ 1001e1e1 f   libucrt:initcon.obj
 0001:0001e0c0       $$000000                   1001f0c0     LIBCMT:ulldvrm.obj
 0001:0001e160       $$000000                   1001f160     LIBCMT:llmul.obj
 0001:0001e1a0       $$000000                   1001f1a0     LIBCMT:lldvrm.obj
 0001:0001e280       $$000000                   1001f280     LIBCMT:llshl.obj
 0001:0001e2a0       $$000000                   1001f2a0     LIBCMT:ullshr.obj
 0001:0001e2c0       $$000000                   1001f2c0     LIBCMT:ftol2.obj
 0001:0001e560       $$000000                   1001f560     libvcruntime:strrchr.obj
 0001:0001e6a0       $$000000                   1001f6a0     libvcruntime:strchr.obj
 0001:0001e843       __ehhandler$??2@YAPAXIABUnothrow_t@std@@@Z 1001f843 f   LIBCMT:new_scalar_nothrow.obj
 0001:0001e860       __ehhandler$?CallUnexpected@@YAXPBU_s_ESTypeList@@@Z 1001f860 f   libvcruntime:frame.obj
 0001:0001e87d       ??__F_AtlComModule@ATL@@YAXXZ 1001f87d f   OposVariant.obj
 0001:0001e887       ??__F_AtlWinModule@ATL@@YAXXZ 1001f887 f   OposVariant.obj
 0001:0001e8a1       ??__F_Module@@YAXXZ        1001f8a1 f   CheckScanner.obj
 0001:0001e8b5       ??__F_AtlBaseModule@ATL@@YAXXZ 1001f8b5 f   atls:atlbase.obj
 0002:00000304       ?_AtlBaseModule$initializer$@ATL@@3P6AXXZA 10020304     atls:atlbase.obj
 0002:00000308       ?_AtlComModule$initializer$@ATL@@3P6AXXZA 10020308     OposVariant.obj
 0002:0000030c       ?_AtlWinModule$initializer$@ATL@@3P6AXXZA 1002030c     OposVariant.obj
 0002:00000310       ?_Module$initializer$@@3P6AXXZA 10020310     CheckScanner.obj
 0002:00000314       ??pConnMap$initializer$@?$IConnectionPointContainerImpl@VCOPOSCheckScanner@@@ATL@@0P6AXXZA@@3P6AXXZA 10020314     CheckScanner.obj
 0002:00000320       ?__scrt_initialize_tss_var@@3P6AHXZA 10020320     LIBCMT:thread_safe_statics.obj
 0002:000019e8       _GS_ExceptionPointers      100219e8     LIBCMT:gs_report.obj
 0002:00001b78       ?tokenTable@@3QBUStringLiteral@@B 10021b78     libvcruntime:undname.obj
 0002:00001bf8       ?nameTable@@3QBUStringLiteral@@B 10021bf8     libvcruntime:undname.obj
 0002:00001e90       ?rttiTable@@3QBUStringLiteral@@B 10021e90     libvcruntime:undname.obj
 0002:00001eb8       ?IndirectionName@@3QBUStringLiteral@@B 10021eb8     libvcruntime:undname.obj
 0002:00001ee8       ?PrefixName@@3QBUStringLiteral@@B 10021ee8     libvcruntime:undname.obj
 0002:00002518       ?module_names@?A0xb97aeec8@@3QBQB_WB 10022518     libvcruntime:winapi_downlevel.obj
 0002:000025c0       ?candidate_modules@?1??try_get_FlsAlloc@@YAP6GKP6GXPAX@Z@ZXZ@4QBW4module_id@?A0xb97aeec8@@B 100225c0     libvcruntime:winapi_downlevel.obj
 0002:000025d4       ?candidate_modules@?1??try_get_FlsFree@@YAP6GHK@ZXZ@4QBW4module_id@?A0xb97aeec8@@B 100225d4     libvcruntime:winapi_downlevel.obj
 0002:000025e4       ?candidate_modules@?1??try_get_FlsGetValue@@YAP6GPAXK@ZXZ@4QBW4module_id@?A0xb97aeec8@@B 100225e4     libvcruntime:winapi_downlevel.obj
 0002:000025f8       ?candidate_modules@?1??try_get_FlsSetValue@@YAP6GHKPAX@ZXZ@4QBW4module_id@?A0xb97aeec8@@B 100225f8     libvcruntime:winapi_downlevel.obj
 0002:0000260c       ?candidate_modules@?1??try_get_InitializeCriticalSectionEx@@YAP6GHPAU_RTL_CRITICAL_SECTION@@KK@ZXZ@4QBW4module_id@?A0xb97aeec8@@B 1002260c     libvcruntime:winapi_downlevel.obj
 0002:00002630       ?errtable@@3QBUerrentry@?A0x31fdb9ec@@B 10022630     libucrt:errno.obj
 0002:00002c78       ___acrt_initializers       10022c78     libucrt:initialization.obj
 0002:00002cf8       ?module_names@?A0x391cf84c@@3QBQB_WB 10022cf8     libucrt:winapi_thunks.obj
 0002:00003170       ?candidate_modules@?1??try_get_AreFileApisANSI@@YAP6GHXZXZ@4QBW4module_id@?A0x391cf84c@@B 10023170     libucrt:winapi_thunks.obj
 0002:00003184       ?candidate_modules@?1??try_get_FlsAlloc@@YAP6GKP6GXPAX@Z@ZXZ@4QBW4module_id@?A0x391cf84c@@B 10023184     libucrt:winapi_thunks.obj
 0002:0000318c       ?candidate_modules@?1??try_get_FlsFree@@YAP6GHK@ZXZ@4QBW4module_id@?A0x391cf84c@@B 1002318c     libucrt:winapi_thunks.obj
 0002:00003194       ?candidate_modules@?1??try_get_FlsGetValue@@YAP6GPAXK@ZXZ@4QBW4module_id@?A0x391cf84c@@B 10023194     libucrt:winapi_thunks.obj
 0002:0000319c       ?candidate_modules@?1??try_get_FlsSetValue@@YAP6GHKPAX@ZXZ@4QBW4module_id@?A0x391cf84c@@B 1002319c     libucrt:winapi_thunks.obj
 0002:000031a4       ?candidate_modules@?1??try_get_InitializeCriticalSectionEx@@YAP6GHPAU_RTL_CRITICAL_SECTION@@KK@ZXZ@4QBW4module_id@?A0x391cf84c@@B 100231a4     libucrt:winapi_thunks.obj
 0002:000031ac       ?candidate_modules@?1??try_get_LCMapStringEx@@YAP6GHPB_WK0HPA_WHPAU_nlsversioninfo@@PAXJ@ZXZ@4QBW4module_id@?A0x391cf84c@@B 100231ac     libucrt:winapi_thunks.obj
 0002:000031c4       ?candidate_modules@?1??try_get_LocaleNameToLCID@@YAP6GKPB_WK@ZXZ@4QBW4module_id@?A0x391cf84c@@B 100231c4     libucrt:winapi_thunks.obj
 0002:000031e0       ?candidate_modules@?1??try_get_AppPolicyGetProcessTerminationMethod@@YAP6GJPAXPAW4AppPolicyProcessTerminationMethod@@@ZXZ@4QBW4module_id@?A0x391cf84c@@B 100231e0     libucrt:winapi_thunks.obj
 0002:0000320c       ?candidate_modules@?1??try_get_SetThreadStackGuarantee@@YAP6GHPAK@ZXZ@4QBW4module_id@?A0x391cf84c@@B 1002320c     libucrt:winapi_thunks.obj
 0002:00003230       ?strings@?1??fp_format_nan_or_infinity@@YAHW4__acrt_fp_class@@_NPADI1@Z@4QAY03QBDA 10023230     libucrt:cvt.obj
 0002:00003778       ?_mb_locale_names@@3QBQB_WB 10023778     libucrt:mbctype.obj
 0002:00003fc0       ?LcidToLocaleNameTable@?A0x881e4c05@@3QBULcidToLocaleName@1@B 10023fc0     libucrt:lcidtoname_downlevel.obj
 0002:000050e8       ?LocaleNameToIndexTable@?A0x881e4c05@@3QBULocaleNameIndex@1@B 100250e8     libucrt:lcidtoname_downlevel.obj
 0002:00006a20       LOG_name                   10026a20     libucrt:log10_impl.obj
 0002:00006a30       _One                       10026a30     libucrt:ceil_pentium4.obj
 0002:00006a40       _Bns                       10026a40     libucrt:ceil_pentium4.obj
 0002:00006a50       _Zero                      10026a50     libucrt:ceil_pentium4.obj
 0002:00006a60       _S                         10026a60     libucrt:ceil_pentium4.obj
 0002:00006a70       _NegZero                   10026a70     libucrt:ceil_pentium4.obj
 0002:00006a80       emask                      10026a80     libucrt:log10_pentium4.obj
 0002:00006a90       CC                         10026a90     libucrt:log10_pentium4.obj
 0002:00006aa0       Magic                      10026aa0     libucrt:log10_pentium4.obj
 0002:00006ab0       hi_mask                    10026ab0     libucrt:log10_pentium4.obj
 0002:00006ac0       LOG10_2                    10026ac0     libucrt:log10_pentium4.obj
 0002:00006ad0       place_L                    10026ad0     libucrt:log10_pentium4.obj
 0002:00006af0       One                        10026af0     libucrt:log10_pentium4.obj
 0002:00006b00       Zero                       10026b00     libucrt:log10_pentium4.obj
 0002:00006b10       Two52                      10026b10     libucrt:log10_pentium4.obj
 0002:00006b20       Infs                       10026b20     libucrt:log10_pentium4.obj
 0002:00006b30       NaN                        10026b30     libucrt:log10_pentium4.obj
 0002:00006b40       coeff                      10026b40     libucrt:log10_pentium4.obj
 0002:00006b9e       _log2max                   10026b9e     libucrt:87tran.obj
 0002:00006ba8       _smallarg                  10026ba8     libucrt:87tran.obj
 0002:00006bb2       _half                      10026bb2     libucrt:87tran.obj
 0002:00006bfe       One                        10026bfe     libucrt:87disp.obj
 0002:00006c06       Three                      10026c06     libucrt:87disp.obj
 0002:00006c0e       XAMtoTagTab                10026c0e     libucrt:87disp.obj
 0002:00006c20       One                        10026c20     libucrt:common.obj
 0002:00006c34       DblMax                     10026c34     libucrt:common.obj
 0002:00006c3c       DblMin                     10026c3c     libucrt:common.obj
 0002:00006c44       IeeeAdjO                   10026c44     libucrt:common.obj
 0002:00006c4c       IeeeAdjU                   10026c4c     libucrt:common.obj
 0002:00006c54       _infinity                  10026c54     libucrt:common.obj
 0002:00006c5c       _zero                      10026c5c     libucrt:common.obj
 0002:00006ca8       _over                      10026ca8     libucrt:fpctrl.obj
 0002:00006cb4       _under                     10026cb4     libucrt:fpctrl.obj
 0002:000074e8       ?_names@?1??_get_fname@@9@9 100274e8     libucrt:fpexcept.obj
 0002:00007690       two32                      10027690     LIBCMT:ftol2.obj
 0002:00007694       two63                      10027694     LIBCMT:ftol2.obj
 0002:00007698       _NaN                       10027698     LIBCMT:ftol2.obj
 0002:00007d68       __sehtable$?_AtlVerifyStackAvailable@_ATL_SAFE_ALLOCA_IMPL@ATL@@YA_NK@Z 10027d68     CheckScanner.obj
 0002:00007d88       __sehtable$___scrt_is_nonwritable_in_current_image 10027d88     LIBCMT:utility.obj
 0002:00007da4       __catchsym$??2@YAPAXIABUnothrow_t@std@@@Z$2 10027da4     LIBCMT:new_scalar_nothrow.obj
 0002:00007db4       __unwindtable$??2@YAPAXIABUnothrow_t@std@@@Z 10027db4     LIBCMT:new_scalar_nothrow.obj
 0002:00007dc4       __tryblocktable$??2@YAPAXIABUnothrow_t@std@@@Z 10027dc4     LIBCMT:new_scalar_nothrow.obj
 0002:00007dd8       __ehfuncinfo$??2@YAPAXIABUnothrow_t@std@@@Z 10027dd8     LIBCMT:new_scalar_nothrow.obj
 0002:00007e00       __sehtable$?dllmain_crt_process_attach@@YAHQAUHINSTANCE__@@QAX@Z 10027e00     LIBCMT:dll_dllmain.obj
 0002:00007e20       __sehtable$?dllmain_crt_process_detach@@YAH_N@Z 10027e20     LIBCMT:dll_dllmain.obj
 0002:00007e48       __sehtable$?dllmain_dispatch@@YAHQAUHINSTANCE__@@KQAX@Z 10027e48     LIBCMT:dll_dllmain.obj
 0002:00007ef8       __sehtable$___DestructExceptionObject 10027ef8     libvcruntime:ehhelpers.obj
 0002:00007f18       __sehtable$?FrameUnwindToState@__FrameHandler3@@SAXPAUEHRegistrationNode@@PAXPBU_s_FuncInfo@@H@Z 10027f18     libvcruntime:frame.obj
 0002:00007f40       __sehtable$?CallCatchBlock@@YAPAXPAUEHExceptionRecord@@PAUEHRegistrationNode@@PAU_CONTEXT@@PBU_s_FuncInfo@@PAXHK@Z 10027f40     libvcruntime:frame.obj
 0002:00007f68       __catchsym$?CallUnexpected@@YAXPBU_s_ESTypeList@@@Z$2 10027f68     libvcruntime:frame.obj
 0002:00007f78       __unwindtable$?CallUnexpected@@YAXPBU_s_ESTypeList@@@Z 10027f78     libvcruntime:frame.obj
 0002:00007f88       __tryblocktable$?CallUnexpected@@YAXPBU_s_ESTypeList@@@Z 10027f88     libvcruntime:frame.obj
 0002:00007f9c       __ehfuncinfo$?CallUnexpected@@YAXPBU_s_ESTypeList@@@Z 10027f9c     libvcruntime:frame.obj
 0002:00007fc0       __sehtable$??$BuildCatchObjectHelperInternal@V__FrameHandler3@@@@YAHPAUEHExceptionRecord@@PAXPBU_s_HandlerType@@PBU_s_CatchableType@@@Z 10027fc0     libvcruntime:frame.obj
 0002:00007fe0       __sehtable$??$BuildCatchObjectInternal@V__FrameHandler3@@@@YAXPAUEHExceptionRecord@@PAXPBU_s_HandlerType@@PBU_s_CatchableType@@@Z 10027fe0     libvcruntime:frame.obj
 0002:00008038       __sehtable$??R<lambda_6e4b09c48022b2350581041d5f6b0c4c>@@QBE@XZ 10028038     libucrt:exit.obj
 0002:00008058       __sehtable$??$?RV<lambda_03b1d95aef87969028cfba75ccab2455>@@AAV<lambda_6e4b09c48022b2350581041d5f6b0c4c>@@V<lambda_22bdf7517842c4b3e53723af5aa32b9e>@@@?$__crt_seh_guarded_call@X@@QAEX$$QAV<lambda_03b1d95aef87969028cfba75ccab2455>@@AAV<lambda_6e4b09c48022b2350581041d5f6b0c4c>@@$$QAV<lambda_22bdf7517842c4b3e53723af5aa32b9e>@@@Z 10028058     libucrt:exit.obj
 0002:00008078       __sehtable$??$?RV<lambda_8e746cf0007f6ed984d6f78af1fec997>@@AAV<lambda_22ebabd17bc4fa466a2aca6d8deb888d>@@V<lambda_18ed0c0b38a6dc0daf1e7ac6d6adf05e>@@@?$__crt_seh_guarded_call@H@@QAEH$$QAV<lambda_8e746cf0007f6ed984d6f78af1fec997>@@AAV<lambda_22ebabd17bc4fa466a2aca6d8deb888d>@@$$QAV<lambda_18ed0c0b38a6dc0daf1e7ac6d6adf05e>@@@Z 10028078     libucrt:onexit.obj
 0002:00008098       __sehtable$??$?RV<lambda_69a2805e680e0e292e8ba93315fe43a8>@@AAV<lambda_f03950bc5685219e0bcd2087efbe011e>@@V<lambda_03fcd07e894ec930e3f35da366ca99d6>@@@?$__crt_seh_guarded_call@H@@QAEH$$QAV<lambda_69a2805e680e0e292e8ba93315fe43a8>@@AAV<lambda_f03950bc5685219e0bcd2087efbe011e>@@$$QAV<lambda_03fcd07e894ec930e3f35da366ca99d6>@@@Z 10028098     libucrt:onexit.obj
 0002:000080b8       __sehtable$__query_new_handler 100280b8     libucrt:new_handler.obj
 0002:000080d8       __sehtable$_terminate      100280d8     libucrt:terminate.obj
 0002:000080f8       __sehtable$??$?RV<lambda_15ade71b0218206bbe3333a0c9b79046>@@AAV<lambda_da44e0f8b0f19ba52fefafb335991732>@@V<lambda_207f2d024fc103971653565357d6cd41>@@@?$__crt_seh_guarded_call@X@@QAEX$$QAV<lambda_15ade71b0218206bbe3333a0c9b79046>@@AAV<lambda_da44e0f8b0f19ba52fefafb335991732>@@$$QAV<lambda_207f2d024fc103971653565357d6cd41>@@@Z 100280f8     libucrt:per_thread_data.obj
 0002:00008118       __sehtable$??$?RV<lambda_a7e850c220f1c8d1e6efeecdedd162c6>@@AAV<lambda_46720907175c18b6c9d2717bc0d2d362>@@V<lambda_9048902d66e8d99359bc9897bbb930a8>@@@?$__crt_seh_guarded_call@X@@QAEX$$QAV<lambda_a7e850c220f1c8d1e6efeecdedd162c6>@@AAV<lambda_46720907175c18b6c9d2717bc0d2d362>@@$$QAV<lambda_9048902d66e8d99359bc9897bbb930a8>@@@Z 10028118     libucrt:per_thread_data.obj
 0002:00008138       __sehtable$??$?RV<lambda_38edbb1296d33220d7e4dd0ed76b244a>@@AAV<lambda_5ce1d447e08cb34b2473517608e21441>@@V<lambda_fb385d3da700c9147fc39e65dd577a8c>@@@?$__crt_seh_guarded_call@X@@QAEX$$QAV<lambda_38edbb1296d33220d7e4dd0ed76b244a>@@AAV<lambda_5ce1d447e08cb34b2473517608e21441>@@$$QAV<lambda_fb385d3da700c9147fc39e65dd577a8c>@@@Z 10028138     libucrt:per_thread_data.obj
 0002:00008158       __sehtable$??$?RV<lambda_6affb1475c98b40b75cdec977db92e3c>@@AAV<lambda_b8d4b9c228a6ecc3f80208dbb4b4a104>@@V<lambda_608742c3c92a14382c1684fc64f96c88>@@@?$__crt_seh_guarded_call@X@@QAEX$$QAV<lambda_6affb1475c98b40b75cdec977db92e3c>@@AAV<lambda_b8d4b9c228a6ecc3f80208dbb4b4a104>@@$$QAV<lambda_608742c3c92a14382c1684fc64f96c88>@@@Z 10028158     libucrt:per_thread_data.obj
 0002:00008178       __sehtable$??$?RV<lambda_e5124f882df8998aaf41531e079ba474>@@AAV<lambda_3e16ef9562a7dcce91392c22ab16ea36>@@V<lambda_e25ca0880e6ef98be67edffd8c599615>@@@?$__crt_seh_guarded_call@X@@QAEX$$QAV<lambda_e5124f882df8998aaf41531e079ba474>@@AAV<lambda_3e16ef9562a7dcce91392c22ab16ea36>@@$$QAV<lambda_e25ca0880e6ef98be67edffd8c599615>@@@Z 10028178     libucrt:wsetlocale.obj
 0002:00008198       __sehtable$___acrt_initialize_lowio 10028198     libucrt:ioinit.obj
 0002:000081b8       __sehtable$?update_thread_multibyte_data_internal@@YAPAU__crt_multibyte_data@@QAU__acrt_ptd@@QAPAU1@@Z 100281b8     libucrt:mbctype.obj
 0002:000081d8       __sehtable$??$?RV<lambda_ceb1ee4838e85a9d631eb091e2fbe199>@@AAV<lambda_ae742caa10f662c28703da3d2ea5e57e>@@V<lambda_cd08b5d6af4937fe54fc07d0c9bf6b37>@@@?$__crt_seh_guarded_call@X@@QAEX$$QAV<lambda_ceb1ee4838e85a9d631eb091e2fbe199>@@AAV<lambda_ae742caa10f662c28703da3d2ea5e57e>@@$$QAV<lambda_cd08b5d6af4937fe54fc07d0c9bf6b37>@@@Z 100281d8     libucrt:mbctype.obj
 0002:000081f8       __sehtable$_raise          100281f8     libucrt:signal.obj
 0002:00008218       __sehtable$??$?RV<lambda_cbab9ec6f41b0180b23cc171c22676b0>@@AAV<lambda_44731a7d0e6d81c3e6aa82d741081786>@@V<lambda_4b292cb8dd18144e164572427af410ab>@@@?$__crt_seh_guarded_call@P6AXH@Z@@QAEP6AXH@Z$$QAV<lambda_cbab9ec6f41b0180b23cc171c22676b0>@@AAV<lambda_44731a7d0e6d81c3e6aa82d741081786>@@$$QAV<lambda_4b292cb8dd18144e164572427af410ab>@@@Z 10028218     libucrt:signal.obj
 0002:00008238       __sehtable$??$?RV<lambda_2866be3712abc81a800a822484c830d8>@@AAV<lambda_39ca0ed439415581b5b15c265174cece>@@V<lambda_2b24c74d71094a6cd0cb82e44167d71b>@@@?$__crt_seh_guarded_call@X@@QAEX$$QAV<lambda_2866be3712abc81a800a822484c830d8>@@AAV<lambda_39ca0ed439415581b5b15c265174cece>@@$$QAV<lambda_2b24c74d71094a6cd0cb82e44167d71b>@@@Z 10028238     libucrt:fflush.obj
 0002:00008258       __sehtable$??$?RV<lambda_2cc53f568c5a2bb6f192f930a45d44ea>@@AAV<lambda_ab61a845afdef5b7c387490eaf3616ee>@@V<lambda_c2ffc0b7726aa6be21d5f0026187e748>@@@?$__crt_seh_guarded_call@X@@QAEX$$QAV<lambda_2cc53f568c5a2bb6f192f930a45d44ea>@@AAV<lambda_ab61a845afdef5b7c387490eaf3616ee>@@$$QAV<lambda_c2ffc0b7726aa6be21d5f0026187e748>@@@Z 10028258     libucrt:fflush.obj
 0002:00008278       __sehtable$___acrt_update_thread_locale_data 10028278     libucrt:locale_refcounting.obj
 0002:00008298       __sehtable$__fcloseall     10028298     libucrt:closeall.obj
 0002:000082b8       __sehtable$___acrt_lowio_ensure_fh_exists 100282b8     libucrt:osfinfo.obj
 0002:000082d8       __sehtable$??$?RV<lambda_9e9de3de5fa147e2223d7db92bc10aa6>@@AAV<lambda_38ce7e780aa69e748d6df282ebc68efe>@@V<lambda_8ca6da459f0f6780f1cff60fdc3d00e5>@@@?$__crt_seh_guarded_call@H@@QAEH$$QAV<lambda_9e9de3de5fa147e2223d7db92bc10aa6>@@AAV<lambda_38ce7e780aa69e748d6df282ebc68efe>@@$$QAV<lambda_8ca6da459f0f6780f1cff60fdc3d00e5>@@@Z 100282d8     libucrt:commit.obj
 0002:000082f8       __sehtable$__write         100282f8     libucrt:write.obj
 0002:00008318       __sehtable$_fclose         10028318     libucrt:fclose.obj
 0002:00008338       __sehtable$??$?RV<lambda_218ce3db14220d0be481dae8ef3383b6>@@AAV<lambda_628dfdc04ba53c8bfc02c9951375f3f5>@@V<lambda_57dc472bd5c9d5f3b2cbca59b8a843ae>@@@?$__crt_seh_guarded_call@H@@QAEH$$QAV<lambda_218ce3db14220d0be481dae8ef3383b6>@@AAV<lambda_628dfdc04ba53c8bfc02c9951375f3f5>@@$$QAV<lambda_57dc472bd5c9d5f3b2cbca59b8a843ae>@@@Z 10028338     libucrt:close.obj
 0002:00008358       __sehtable$___set_fpsr_sse2 10028358     libucrt:fpctrl.obj
 0002:00008378       __sehtable$__IsNonwritableInCurrentImage 10028378     LIBCMT:pesect.obj
 0002:000083a0       .edata                     100283a0     OPOSCheckScanner.exp
 0002:000083c8       rgpv                       100283c8     OPOSCheckScanner.exp
 0002:000083d8       rgszName                   100283d8     OPOSCheckScanner.exp
 0002:000083e8       rgwOrd                     100283e8     OPOSCheckScanner.exp
 0002:000083f0       szName                     100283f0     OPOSCheckScanner.exp
 0002:00008405       $N00001                    10028405     OPOSCheckScanner.exp
 0002:00008415       $N00002                    10028415     OPOSCheckScanner.exp
 0002:00008427       $N00003                    10028427     OPOSCheckScanner.exp
 0002:00008439       $N00004                    10028439     OPOSCheckScanner.exp
 0002:00008a4a       .idata$6                   10028a4a     kernel32:KERNEL32.dll
 0002:00008c5e       .idata$6                   10028c5e     user32:USER32.dll
 0002:00008d92       .idata$6                   10028d92     gdi32:GDI32.dll
 0002:00008e38       .idata$6                   10028e38     advapi32:ADVAPI32.dll
 0002:00008f54       .idata$6                   10028f54     ole32:ole32.dll
 0002:00008f5e       .idata$6                   10028f5e     oleaut32:OLEAUT32.dll
 0003:00000110       ?ObjectMap@@3PAU_ATL_OBJMAP_ENTRY30@ATL@@A 1002a110     CheckScanner.obj
 0003:000001d0       ?s_SOMethodNames@@3PAPADA  1002a1d0     CheckScannerImpl.obj
 0003:00000240       ?s_RequiredMethodsPerRelease@@3PAHA 1002a240     CheckScannerImpl.obj
 0003:00000270       ?__vcrt_flsindex@@3KA      1002a270     libvcruntime:per_thread_data.obj
 0003:00000290       ?errno_no_memory@@3HA      1002a290     libucrt:errno.obj
 0003:00000294       ?doserrno_no_memory@@3KA   1002a294     libucrt:errno.obj
 0003:000002a0       ?__acrt_flsindex@@3KA      1002a2a0     libucrt:per_thread_data.obj
 0003:00000638       __mbctypes                 1002a638     libucrt:mbctype.obj
 0003:00000740       __mbcasemaps               1002a740     libucrt:mbctype.obj
 0003:00000840       ?__rgctypeflag@@3PADA      1002a840     libucrt:mbctype.obj
 0003:00000848       ?__rgcode_page_info@@3PAUcode_page_info@@A 1002a848     libucrt:mbctype.obj
 0003:00000aa0       ?__dcrt_lowio_console_output_handle@@3PAXA 1002aaa0     libucrt:initcon.obj
 0003:00000aa4       ?__DAZ_ENABLED@?1??__set_fpsr_sse2@@9@9 1002aaa4     libucrt:fpctrl.obj
 0003:00000c38       ?is_initialized_as_dll@@3_NA 1002ac38     LIBCMT:utility.obj
 0003:00000c39       ?module_local_atexit_table_initialized@@3_NA 1002ac39     LIBCMT:utility.obj
 0003:00000c3c       ?module_local_atexit_table@@3U_onexit_table_t@@A 1002ac3c     LIBCMT:utility.obj
 0003:00000c48       ?module_local_at_quick_exit_table@@3U_onexit_table_t@@A 1002ac48     LIBCMT:utility.obj
 0003:00000c54       ?g_tss_cv@@3U_RTL_CONDITION_VARIABLE@@A 1002ac54     LIBCMT:thread_safe_statics.obj
 0003:00000c58       ?g_tss_event@@3PAXA        1002ac58     LIBCMT:thread_safe_statics.obj
 0003:00000c5c       ?g_tss_mutex@@3U_RTL_CRITICAL_SECTION@@A 1002ac5c     LIBCMT:thread_safe_statics.obj
 0003:00000c74       ?g_sleep_condition_variable_cs@@3P6GHPAU_RTL_CONDITION_VARIABLE@@PAU_RTL_CRITICAL_SECTION@@K@ZA 1002ac74     LIBCMT:thread_safe_statics.obj
 0003:00000c78       ?g_wake_all_condition_variable@@3P6GXPAU_RTL_CONDITION_VARIABLE@@@ZA 1002ac78     LIBCMT:thread_safe_statics.obj
 0003:00000c80       _GS_ExceptionRecord        1002ac80     LIBCMT:gs_report.obj
 0003:00000cd0       _GS_ContextRecord          1002acd0     LIBCMT:gs_report.obj
 0003:00000fa0       ?__proc_attached@@3HA      1002afa0     LIBCMT:dll_dllmain.obj
 0003:00001004       ?AllocateData@@3P6GPAUAtlThunkData_t@@XZA 1002b004     atls:atlthunk.obj
 0003:00001008       ?InitData@@3P6GXPAUAtlThunkData_t@@PAXI@ZA 1002b008     atls:atlthunk.obj
 0003:0000100c       ?DataToCode@@3P6GP6GJPAUHWND__@@IIJ@ZPAUAtlThunkData_t@@@ZA 1002b00c     atls:atlthunk.obj
 0003:00001010       ?FreeData@@3P6GXPAUAtlThunkData_t@@@ZA 1002b010     atls:atlthunk.obj
 0003:00001014       ?Initialized@@3_NA         1002b014     atls:atlthunk.obj
 0003:00001024       ?__vcrt_startup_thread_ptd@@3U__vcrt_ptd@@A 1002b024     libvcruntime:per_thread_data.obj
 0003:0000104c       ___vcrt_lock_table         1002b04c     libvcruntime:locks.obj
 0003:00001064       ___vcrt_locks_initialized  1002b064     libvcruntime:locks.obj
 0003:00001090       ?heap@@3V_HeapManager@@A   1002b090     libvcruntime:undname.obj
 0003:000010a4       ?module_handles@@3PAPAUHINSTANCE__@@A 1002b0a4     libvcruntime:winapi_downlevel.obj
 0003:000010b0       ?function_pointers@@3PAPAXA 1002b0b0     libvcruntime:winapi_downlevel.obj
 0003:000010c4       ?__acrt_invalid_parameter_handler@@3V?$dual_state_global@P6AXPB_W00II@Z@__crt_state_management@@A 1002b0c4     libucrt:invalid_parameter.obj
 0003:000010c8       ?c_termination_complete@@3JA 1002b0c8     libucrt:exit.obj
 0003:000010cc       ?thread_local_exit_callback_func@@3P6GXPAXK0@ZA 1002b0cc     libucrt:exit.obj
 0003:000010d8       ?program_name@?1???$common_configure_argv@D@@YAHW4_crt_argv_mode@@@Z@4PADA 1002b0d8     libucrt:argv_parsing.obj
 0003:00001208       ?__acrt_new_handler@@3V?$dual_state_global@P6AHI@Z@__crt_state_management@@A 1002b208     libucrt:new_handler.obj
 0003:00001210       ?module_handles@@3PAPAUHINSTANCE__@@A 1002b210     libucrt:winapi_thunks.obj
 0003:00001260       ?encoded_function_pointers@@3PAPAXA 1002b260     libucrt:winapi_thunks.obj
 0003:000012e8       ?internal_state@?1??_mbtowc_l@@9@4U_Mbstatet@@A 1002b2e8     libucrt:mbtowc.obj
 0003:000012f8       ?enable_percent_n@@3IA     1002b2f8     libucrt:printf_count_output.obj
 0003:00001518       ?__acrt_lock_table@@3PAU_RTL_CRITICAL_SECTION@@A 1002b518     libucrt:locks.obj
 0003:00001668       ?__acrt_locks_initialized@@3IA 1002b668     libucrt:locks.obj
 0003:00001678       ?fSystemSet@@3HA           1002b678     libucrt:mbctype.obj
 0003:0000167c       ?initialized@?1??__acrt_initialize_multibyte@@9@4_NA 1002b67c     libucrt:mbctype.obj
 0003:0000169c       ?ctrlc_action@@3V?$dual_state_global@P6AXH@Z@__crt_state_management@@A 1002b69c     libucrt:signal.obj
 0003:000016a0       ?ctrlbreak_action@@3V?$dual_state_global@P6AXH@Z@__crt_state_management@@A 1002b6a0     libucrt:signal.obj
 0003:000016a4       ?abort_action@@3V?$dual_state_global@P6AXH@Z@__crt_state_management@@A 1002b6a4     libucrt:signal.obj
 0003:000016a8       ?term_action@@3V?$dual_state_global@P6AXH@Z@__crt_state_management@@A 1002b6a8     libucrt:signal.obj
 0003:000016ac       ?user_matherr@@3V?$dual_state_global@P6AHPAU_exception@@@Z@__crt_state_management@@A 1002b6ac     libucrt:matherr.obj
 0003:000016b0       ?__acrt_global_new_mode@@3V?$dual_state_global@J@__crt_state_management@@A 1002b6b0     libucrt:new_mode.obj
 0003:000016bc       ?internal_pst@?1??__mbrtoc32_utf8@__crt_mbstring@@YAIPA_UPBDIPAU_Mbstatet@@@Z@4U3@A 1002b6bc     libucrt:mbrtoc32.obj
 0003:000016c4       ?__acrt_app_type@@3W4_crt_app_type@@A 1002b6c4     libucrt:report_runtime_error.obj
 0003:000016cc       __pmatherr_set             1002b6cc     libucrt:libm_error.obj
 0004:00000220       $R000000                   1002c220     CheckScanner.res
 0004:00000bc8       $R0009A8                   1002cbc8     CheckScanner.res
 0004:00000cb0       $R000A90                   1002ccb0     CheckScanner.res
 0004:00000f18       $R000CF8                   1002cf18     CheckScanner.res
 0004:00001430       $R001210                   1002d430     CheckScanner.res
 0004:00005178       $R004F58                   10031178     CheckScanner.res
 0004:000051b0       $R004F90                   100311b0     CheckScanner.res
