 OPOSElectronicValueRW

 Timestamp is 5defa918 (Tue Dec 10 23:18:00 2019)

 Preferred load address is 10000000

 Start         Length     Name                   Class
 0001:00000000 00000080H .text$di                CODE
 0001:00000080 0001f863H .text$mn                CODE
 0001:0001f8e3 00000036H .text$x                 CODE
 0001:0001f919 00000042H .text$yd                CODE
 0002:00000000 000002fcH .idata$5                DATA
 0002:000002fc 00000004H .00cfg                  DATA
 0002:00000300 00000004H .CRT$XCA                DATA
 0002:00000304 00000004H .CRT$XCL                DATA
 0002:00000308 00000010H .CRT$XCU                DATA
 0002:00000318 00000004H .CRT$XCZ                DATA
 0002:0000031c 00000004H .CRT$XIA                DATA
 0002:00000320 00000010H .CRT$XIC                DATA
 0002:00000330 00000004H .CRT$XIZ                DATA
 0002:00000334 00000004H .CRT$XLA                DATA
 0002:00000338 00000004H .CRT$XLZ                DATA
 0002:0000033c 00000004H .CRT$XPA                DATA
 0002:00000340 00000008H .CRT$XPX                DATA
 0002:00000348 00000004H .CRT$XPXA               DATA
 0002:0000034c 00000004H .CRT$XPZ                DATA
 0002:00000350 00000004H .CRT$XTA                DATA
 0002:00000354 0000000cH .CRT$XTZ                DATA
 0002:00000358 00000000H .gfids$y                DATA
 0002:00000360 0000766cH .rdata                  DATA
 0002:000079cc 00000018H .rdata$T                DATA
 0002:000079e4 0000017cH .rdata$r                DATA
 0002:00007b60 0000001cH .rdata$sxdata           DATA
 0002:00007b7c 000003e4H .rdata$zzzdbg           DATA
 0002:00007f60 00000004H .rtc$IAA                DATA
 0002:00007f64 00000004H .rtc$IZZ                DATA
 0002:00007f68 00000004H .rtc$TAA                DATA
 0002:00007f6c 00000004H .rtc$TZZ                DATA
 0002:00007f70 00000004H .tls                    DATA
 0002:00007f74 00000004H .tls$                   DATA
 0002:00007f78 00000008H .tls$ZZZ                DATA
 0002:00007f80 0000060cH .xdata$x                DATA
 0002:0000858c 00000004H ATL$__a                 DATA
 0002:00008590 00000010H ATL$__z                 DATA
 0002:000085a0 000000b4H .edata                  DATA
 0002:00008654 00000078H .idata$2                DATA
 0002:000086cc 00000014H .idata$3                DATA
 0002:000086e0 000002fcH .idata$4                DATA
 0002:000089dc 00000bc8H .idata$6                DATA
 0003:00000000 00000b70H .data                   DATA
 0003:00000b70 00000098H .data$r                 DATA
 0003:00000c08 00000b80H .bss                    DATA
 0004:00000000 00000220H .rsrc$01                DATA
 0004:00000220 00007ef8H .rsrc$02                DATA

  Address         Publics by Value              Rva+Base       Lib:Object

 0000:00000000       ___guard_fids_count        00000000     <absolute>
 0000:00000000       ___hybrid_code_map_count   00000000     <absolute>
 0000:00000000       __except_list              00000000     <absolute>
 0000:00000000       ___hybrid_auxiliary_iat    00000000     <absolute>
 0000:00000000       ___guard_fids_table        00000000     <absolute>
 0000:00000000       ___guard_longjmp_table     00000000     <absolute>
 0000:00000000       ___guard_iat_table         00000000     <absolute>
 0000:00000000       ___volatile_metadata       00000000     <absolute>
 0000:00000000       ___guard_iat_count         00000000     <absolute>
 0000:00000000       ___AbsoluteZero            00000000     <absolute>
 0000:00000000       ___enclave_config          00000000     <absolute>
 0000:00000000       ___guard_longjmp_count     00000000     <absolute>
 0000:00000000       ___dynamic_value_reloc_table 00000000     <absolute>
 0000:00000000       ___hybrid_code_map         00000000     <absolute>
 0000:00000007       ___safe_se_handler_count   00000007     <absolute>
 0000:0000002c       __tls_array                0000002c     <absolute>
 0000:00000100       ___guard_flags             00000100     <absolute>
 0000:00000000       ___ImageBase               10000000     <linker-defined>
 0001:00000080       ?DupWide@_CW@@AAEXXZ       10001080 f   CWString.obj
 0001:0000009c       ?cw_dup@@YGXPBDAAHAAPA_W1@Z 1000109c f   CWString.obj
 0001:00000124       ?cw_memcpy@@YGHPA_WPBDH@Z  10001124 f   CWString.obj
 0001:00000150       ?cw_strcpy@@YAHPA_WPBD@Z   10001150 f   CWString.obj
 0001:00000163       ?cw_strlen@@YAHPBD@Z       10001163 f   CWString.obj
 0001:0000017c       ??0CAtlComModule@ATL@@QAE@XZ 1000117c f i OposVariant.obj
 0001:000001c1       ??0CAtlWinModule@ATL@@QAE@XZ 100011c1 f i OposVariant.obj
 0001:000001f8       ??0OposDispParms@@QAE@PAVOposVariant@@H@Z 100011f8 f   OposVariant.obj
 0001:00000269       ??1OposDispParms@@QAE@XZ   10001269 f   OposVariant.obj
 0001:00000277       ??A?$CSimpleArray@GV?$CSimpleArrayEqualHelper@G@ATL@@@ATL@@QAEAAGH@Z 10001277 f i OposVariant.obj
 0001:0000029c       ??_Estringdispid@CComTypeInfoHolder@ATL@@QAEPAXI@Z 1000129c f i OposVariant.obj
 0001:00000308       ?AtlWinModuleInit@ATL@@YGJPAU_ATL_WIN_MODULE70@1@@Z 10001308 f i OposVariant.obj
 0001:0000032e       ?AtlWinModuleTerm@ATL@@YGJPAU_ATL_WIN_MODULE70@1@PAUHINSTANCE__@@@Z 1000132e f i OposVariant.obj
 0001:00000391       ?ChangeBSTR@OposVariant@@QAEXPAPA_WAAJ@Z 10001391 f   OposVariant.obj
 0001:000003d2       ?ChangeCURRENCY@OposVariant@@QAEXPATtagCY@@AAJ@Z 100013d2 f   OposVariant.obj
 0001:00000421       ?ChangeLONG@OposVariant@@QAEXPAJAAJ@Z 10001421 f   OposVariant.obj
 0001:00000462       ?GetLONG@OposVariant@@QAEJXZ 10001462 f   OposVariant.obj
 0001:0000047d       ?Init@CComCriticalSection@ATL@@QAEJXZ 1000147d f i OposVariant.obj
 0001:000004a5       ?RemoveAll@?$CSimpleArray@PAUHINSTANCE__@@V?$CSimpleArrayEqualHelper@PAUHINSTANCE__@@@ATL@@@ATL@@QAEXXZ 100014a5 f i atls:atlbase.obj
 0001:000004a5       ?RemoveAll@?$CSimpleArray@GV?$CSimpleArrayEqualHelper@G@ATL@@@ATL@@QAEXXZ 100014a5 f i OposVariant.obj
 0001:000004c2       ?SetBSTR@OposVariant@@QAEXPA_WAAJ@Z 100014c2 f   OposVariant.obj
 0001:000004f6       ?SetBSTR_Copy@OposVariant@@QAEXPA_WAAJ@Z 100014f6 f   OposVariant.obj
 0001:00000546       ?SetBSTR_InOutPtr@OposVariant@@QAE_NPAPA_WAAJ@Z 10001546 f   OposVariant.obj
 0001:0000057d       ?SetCURRENCY@OposVariant@@QAEXTtagCY@@@Z 1000157d f   OposVariant.obj
 0001:000005a5       ?SetDispatch_Ptr@OposVariant@@QAEXPAUIDispatch@@AAJ@Z 100015a5 f   OposVariant.obj
 0001:000005e0       ?SetLONG@OposVariant@@QAEXJ@Z 100015e0 f   OposVariant.obj
 0001:00000602       ?SetLONG_Ptr@OposVariant@@QAEXPAJAAJ@Z 10001602 f   OposVariant.obj
 0001:00000635       ?SetString@OposVariant@@QAEXPB_WAAJ@Z 10001635 f   OposVariant.obj
 0001:0000067b       ?SetVARIANT_BOOL@OposVariant@@QAEXF@Z 1000167b f   OposVariant.obj
 0001:000006a5       ?Term@CAtlComModule@ATL@@QAEXXZ 100016a5 f i OposVariant.obj
 0001:000006ef       ?_AtlRaiseException@ATL@@YAXKK@Z 100016ef f i OposVariant.obj
 0001:00000704       ?CreateInstance@CComClassFactory@ATL@@UAGJPAUIUnknown@@ABU_GUID@@PAPAX@Z 10001704 f i ElectronicValueRW.obj
 0001:00000742       ?LockServer@CComClassFactory@ATL@@UAGJH@Z 10001742 f i ElectronicValueRW.obj
 0001:00000761       ??_ECComClassFactory@ATL@@UAEPAXI@Z 10001761 f i ElectronicValueRW.obj
 0001:00000761       ??_GCComClassFactory@ATL@@UAEPAXI@Z 10001761 f i ElectronicValueRW.obj
 0001:0000078c       ?Next@?$CComEnumImpl@UIEnumConnections@@$1?_GUID_b196b287_bab4_101a_b69c_00aa00341d07@@3U__s_GUID@@BUtagCONNECTDATA@@V?$_Copy@UtagCONNECTDATA@@@ATL@@@ATL@@UAGJKPAUtagCONNECTDATA@@PAK@Z 1000178c f i ElectronicValueRW.obj
 0001:00000863       ?Skip@?$CComEnumImpl@UIEnumConnections@@$1?_GUID_b196b287_bab4_101a_b69c_00aa00341d07@@3U__s_GUID@@BUtagCONNECTDATA@@V?$_Copy@UtagCONNECTDATA@@@ATL@@@ATL@@UAGJK@Z 10001863 f i ElectronicValueRW.obj
 0001:00000890       ?Reset@?$CComEnumImpl@UIEnumConnectionPoints@@$1?_GUID_b196b285_bab4_101a_b69c_00aa00341d07@@3U__s_GUID@@BPAUIConnectionPoint@@V?$_CopyInterface@UIConnectionPoint@@@ATL@@@ATL@@UAGJXZ 10001890 f i ElectronicValueRW.obj
 0001:00000890       ?Reset@?$CComEnumImpl@UIEnumConnections@@$1?_GUID_b196b287_bab4_101a_b69c_00aa00341d07@@3U__s_GUID@@BUtagCONNECTDATA@@V?$_Copy@UtagCONNECTDATA@@@ATL@@@ATL@@UAGJXZ 10001890 f i ElectronicValueRW.obj
 0001:000008a2       ?Clone@?$CComEnumImpl@UIEnumConnections@@$1?_GUID_b196b287_bab4_101a_b69c_00aa00341d07@@3U__s_GUID@@BUtagCONNECTDATA@@V?$_Copy@UtagCONNECTDATA@@@ATL@@@ATL@@UAGJPAPAUIEnumConnections@@@Z 100018a2 f i ElectronicValueRW.obj
 0001:00000983       ?AddRef@?$CComObject@V?$CComEnum@UIEnumConnectionPoints@@$1?_GUID_b196b285_bab4_101a_b69c_00aa00341d07@@3U__s_GUID@@BPAUIConnectionPoint@@V?$_CopyInterface@UIConnectionPoint@@@ATL@@VCComSingleThreadModel@6@@ATL@@@ATL@@UAGKXZ 10001983 f i ElectronicValueRW.obj
 0001:00000983       ?AddRef@?$CComObject@V?$CComEnum@UIEnumConnections@@$1?_GUID_b196b287_bab4_101a_b69c_00aa00341d07@@3U__s_GUID@@BUtagCONNECTDATA@@V?$_Copy@UtagCONNECTDATA@@@ATL@@VCComSingleThreadModel@6@@ATL@@@ATL@@UAGKXZ 10001983 f i ElectronicValueRW.obj
 0001:00000994       ?Release@?$CComObject@V?$CComEnum@UIEnumConnections@@$1?_GUID_b196b287_bab4_101a_b69c_00aa00341d07@@3U__s_GUID@@BUtagCONNECTDATA@@V?$_Copy@UtagCONNECTDATA@@@ATL@@VCComSingleThreadModel@6@@ATL@@@ATL@@UAGKXZ 10001994 f i ElectronicValueRW.obj
 0001:00000994       ?Release@?$CComObject@V?$CComEnum@UIEnumConnectionPoints@@$1?_GUID_b196b285_bab4_101a_b69c_00aa00341d07@@3U__s_GUID@@BPAUIConnectionPoint@@V?$_CopyInterface@UIConnectionPoint@@@ATL@@VCComSingleThreadModel@6@@ATL@@@ATL@@UAGKXZ 10001994 f i ElectronicValueRW.obj
 0001:000009d0       ?QueryInterface@?$CComObject@V?$CComEnum@UIEnumConnections@@$1?_GUID_b196b287_bab4_101a_b69c_00aa00341d07@@3U__s_GUID@@BUtagCONNECTDATA@@V?$_Copy@UtagCONNECTDATA@@@ATL@@VCComSingleThreadModel@6@@ATL@@@ATL@@UAGJABU_GUID@@PAPAX@Z 100019d0 f i ElectronicValueRW.obj
 0001:000009ea       ??_G?$CComObject@V?$CComEnum@UIEnumConnections@@$1?_GUID_b196b287_bab4_101a_b69c_00aa00341d07@@3U__s_GUID@@BUtagCONNECTDATA@@V?$_Copy@UtagCONNECTDATA@@@ATL@@VCComSingleThreadModel@6@@ATL@@@ATL@@UAEPAXI@Z 100019ea f i ElectronicValueRW.obj
 0001:000009ea       ??_E?$CComObject@V?$CComEnum@UIEnumConnections@@$1?_GUID_b196b287_bab4_101a_b69c_00aa00341d07@@3U__s_GUID@@BUtagCONNECTDATA@@V?$_Copy@UtagCONNECTDATA@@@ATL@@VCComSingleThreadModel@6@@ATL@@@ATL@@UAEPAXI@Z 100019ea f i ElectronicValueRW.obj
 0001:00000a0c       ?GetWindowProc@?$CWindowImplBaseT@VCWindow@ATL@@V?$CWinTraits@$0FGAAAAAA@$0A@@2@@ATL@@UAEP6GJPAUHWND__@@IIJ@ZXZ 10001a0c f i ElectronicValueRW.obj
 0001:00000a12       ?StartWindowProc@?$CWindowImplBaseT@VCWindow@ATL@@V?$CWinTraits@$0FGAAAAAA@$0A@@2@@ATL@@SGJPAUHWND__@@IIJ@Z 10001a12 f i ElectronicValueRW.obj
 0001:00000a66       ??_E?$CComObject@VCOPOSElectronicValueRW@@@ATL@@W3AEPAXI@Z 10001a66 f i ElectronicValueRW.obj
 0001:00000a6e       ??_E?$CComObject@VCOPOSElectronicValueRW@@@ATL@@WEM@AEPAXI@Z 10001a6e f i ElectronicValueRW.obj
 0001:00000a76       ?QueryInterface@?$CComObject@VCOPOSElectronicValueRW@@@ATL@@WHA@AGJABU_GUID@@PAPAX@Z 10001a76 f i ElectronicValueRW.obj
 0001:00000a80       ?AddRef@?$CComObject@VCOPOSElectronicValueRW@@@ATL@@WHA@AGKXZ 10001a80 f i ElectronicValueRW.obj
 0001:00000a8a       ?Release@?$CComObject@VCOPOSElectronicValueRW@@@ATL@@WHA@AGKXZ 10001a8a f i ElectronicValueRW.obj
 0001:00000a94       ?QueryInterface@?$CComObject@VCOPOSElectronicValueRW@@@ATL@@WHE@AGJABU_GUID@@PAPAX@Z 10001a94 f i ElectronicValueRW.obj
 0001:00000a9e       ?AddRef@?$CComObject@VCOPOSElectronicValueRW@@@ATL@@WHE@AGKXZ 10001a9e f i ElectronicValueRW.obj
 0001:00000aa8       ?Release@?$CComObject@VCOPOSElectronicValueRW@@@ATL@@WHE@AGKXZ 10001aa8 f i ElectronicValueRW.obj
 0001:00000ab2       ?QueryInterface@?$CComObject@VCOPOSElectronicValueRW@@@ATL@@WHI@AGJABU_GUID@@PAPAX@Z 10001ab2 f i ElectronicValueRW.obj
 0001:00000abc       ?AddRef@?$CComObject@VCOPOSElectronicValueRW@@@ATL@@WHI@AGKXZ 10001abc f i ElectronicValueRW.obj
 0001:00000ac6       ?Release@?$CComObject@VCOPOSElectronicValueRW@@@ATL@@WHI@AGKXZ 10001ac6 f i ElectronicValueRW.obj
 0001:00000ad0       ?QueryInterface@?$CComObject@VCOPOSElectronicValueRW@@@ATL@@WHM@AGJABU_GUID@@PAPAX@Z 10001ad0 f i ElectronicValueRW.obj
 0001:00000ada       ?AddRef@?$CComObject@VCOPOSElectronicValueRW@@@ATL@@WHM@AGKXZ 10001ada f i ElectronicValueRW.obj
 0001:00000ae4       ?OnFinalMessage@?$CWindowImplBaseT@VCWindow@ATL@@V?$CWinTraits@$0FGAAAAAA@$0A@@2@@ATL@@UAEXPAUHWND__@@@Z 10001ae4 f i ElectronicValueRW.obj
 0001:00000ae4       ?ObjectMain@CComObjectRootBase@ATL@@SGX_N@Z 10001ae4 f i ElectronicValueRW.obj
 0001:00000ae7       ?Release@?$CComObject@VCOPOSElectronicValueRW@@@ATL@@WHM@AGKXZ 10001ae7 f i ElectronicValueRW.obj
 0001:00000af1       ?QueryInterface@?$CComObject@VCOPOSElectronicValueRW@@@ATL@@WIA@AGJABU_GUID@@PAPAX@Z 10001af1 f i ElectronicValueRW.obj
 0001:00000afe       ?AddRef@?$CComObject@VCOPOSElectronicValueRW@@@ATL@@WIA@AGKXZ 10001afe f i ElectronicValueRW.obj
 0001:00000b0b       ?Release@?$CComObject@VCOPOSElectronicValueRW@@@ATL@@WIA@AGKXZ 10001b0b f i ElectronicValueRW.obj
 0001:00000b18       ?QueryInterface@?$CComObject@VCOPOSElectronicValueRW@@@ATL@@WIE@AGJABU_GUID@@PAPAX@Z 10001b18 f i ElectronicValueRW.obj
 0001:00000b25       ?AddRef@?$CComObject@VCOPOSElectronicValueRW@@@ATL@@WIE@AGKXZ 10001b25 f i ElectronicValueRW.obj
 0001:00000b32       ?Release@?$CComObject@VCOPOSElectronicValueRW@@@ATL@@WIE@AGKXZ 10001b32 f i ElectronicValueRW.obj
 0001:00000b3f       ?QueryInterface@?$CComObject@VCOPOSElectronicValueRW@@@ATL@@WII@AGJABU_GUID@@PAPAX@Z 10001b3f f i ElectronicValueRW.obj
 0001:00000b4c       ?AddRef@?$CComObject@VCOPOSElectronicValueRW@@@ATL@@WII@AGKXZ 10001b4c f i ElectronicValueRW.obj
 0001:00000b59       ?Release@?$CComObject@VCOPOSElectronicValueRW@@@ATL@@WII@AGKXZ 10001b59 f i ElectronicValueRW.obj
 0001:00000b66       ?QueryInterface@?$CComObject@VCOPOSElectronicValueRW@@@ATL@@WIM@AGJABU_GUID@@PAPAX@Z 10001b66 f i ElectronicValueRW.obj
 0001:00000b73       ?AddRef@?$CComObject@VCOPOSElectronicValueRW@@@ATL@@WIM@AGKXZ 10001b73 f i ElectronicValueRW.obj
 0001:00000b80       ?Release@?$CComObject@VCOPOSElectronicValueRW@@@ATL@@WIM@AGKXZ 10001b80 f i ElectronicValueRW.obj
 0001:00000b8d       ?QueryInterface@?$CComObject@VCOPOSElectronicValueRW@@@ATL@@WJA@AGJABU_GUID@@PAPAX@Z 10001b8d f i ElectronicValueRW.obj
 0001:00000b9a       ?AddRef@?$CComObject@VCOPOSElectronicValueRW@@@ATL@@WJA@AGKXZ 10001b9a f i ElectronicValueRW.obj
 0001:00000ba7       ?Release@?$CComObject@VCOPOSElectronicValueRW@@@ATL@@WJA@AGKXZ 10001ba7 f i ElectronicValueRW.obj
 0001:00000bb4       ?QueryInterface@?$CComObject@VCOPOSElectronicValueRW@@@ATL@@WJE@AGJABU_GUID@@PAPAX@Z 10001bb4 f i ElectronicValueRW.obj
 0001:00000bc1       ?AddRef@?$CComObject@VCOPOSElectronicValueRW@@@ATL@@WJE@AGKXZ 10001bc1 f i ElectronicValueRW.obj
 0001:00000bce       ?Release@?$CComObject@VCOPOSElectronicValueRW@@@ATL@@WJE@AGKXZ 10001bce f i ElectronicValueRW.obj
 0001:00000bdb       ?QueryInterface@?$CComObject@VCOPOSElectronicValueRW@@@ATL@@WJI@AGJABU_GUID@@PAPAX@Z 10001bdb f i ElectronicValueRW.obj
 0001:00000be8       ?AddRef@?$CComObject@VCOPOSElectronicValueRW@@@ATL@@WJI@AGKXZ 10001be8 f i ElectronicValueRW.obj
 0001:00000bf5       ?Release@?$CComObject@VCOPOSElectronicValueRW@@@ATL@@WJI@AGKXZ 10001bf5 f i ElectronicValueRW.obj
 0001:00000c02       ?QueryInterface@?$CComObject@VCOPOSElectronicValueRW@@@ATL@@WJM@AGJABU_GUID@@PAPAX@Z 10001c02 f i ElectronicValueRW.obj
 0001:00000c0f       ?AddRef@?$CComObject@VCOPOSElectronicValueRW@@@ATL@@WJM@AGKXZ 10001c0f f i ElectronicValueRW.obj
 0001:00000c1c       ?Release@?$CComObject@VCOPOSElectronicValueRW@@@ATL@@WJM@AGKXZ 10001c1c f i ElectronicValueRW.obj
 0001:00000c29       ?QueryInterface@?$CComObject@VCOPOSElectronicValueRW@@@ATL@@WKA@AGJABU_GUID@@PAPAX@Z 10001c29 f i ElectronicValueRW.obj
 0001:00000c36       ?AddRef@?$CComObject@VCOPOSElectronicValueRW@@@ATL@@WKA@AGKXZ 10001c36 f i ElectronicValueRW.obj
 0001:00000c43       ?Release@?$CComObject@VCOPOSElectronicValueRW@@@ATL@@WKA@AGKXZ 10001c43 f i ElectronicValueRW.obj
 0001:00000c50       ?AddRef@?$CComObject@VCOPOSElectronicValueRW@@@ATL@@WKI@AGKXZ 10001c50 f i ElectronicValueRW.obj
 0001:00000c5d       ?Release@?$CComObject@VCOPOSElectronicValueRW@@@ATL@@WKI@AGKXZ 10001c5d f i ElectronicValueRW.obj
 0001:00000c6a       ?AddRef@?$CComObject@VCOPOSElectronicValueRW@@@ATL@@WLE@AGKXZ 10001c6a f i ElectronicValueRW.obj
 0001:00000c77       ?Release@?$CComObject@VCOPOSElectronicValueRW@@@ATL@@WLE@AGKXZ 10001c77 f i ElectronicValueRW.obj
 0001:00000c84       ??_E?$CComContainedObject@VCOPOSElectronicValueRW@@@ATL@@W3AEPAXI@Z 10001c84 f i ElectronicValueRW.obj
 0001:00000c8c       ??_E?$CComContainedObject@VCOPOSElectronicValueRW@@@ATL@@WEM@AEPAXI@Z 10001c8c f i ElectronicValueRW.obj
 0001:00000c94       ?QueryInterface@?$CComContainedObject@VCOPOSElectronicValueRW@@@ATL@@WHA@AGJABU_GUID@@PAPAX@Z 10001c94 f i ElectronicValueRW.obj
 0001:00000c9e       ?AddRef@?$CComContainedObject@VCOPOSElectronicValueRW@@@ATL@@WHA@AGKXZ 10001c9e f i ElectronicValueRW.obj
 0001:00000ca8       ?Release@?$CComContainedObject@VCOPOSElectronicValueRW@@@ATL@@WHA@AGKXZ 10001ca8 f i ElectronicValueRW.obj
 0001:00000cb2       ?QueryInterface@?$CComContainedObject@VCOPOSElectronicValueRW@@@ATL@@WHE@AGJABU_GUID@@PAPAX@Z 10001cb2 f i ElectronicValueRW.obj
 0001:00000cbc       ?AddRef@?$CComContainedObject@VCOPOSElectronicValueRW@@@ATL@@WHE@AGKXZ 10001cbc f i ElectronicValueRW.obj
 0001:00000cc6       ?Release@?$CComContainedObject@VCOPOSElectronicValueRW@@@ATL@@WHE@AGKXZ 10001cc6 f i ElectronicValueRW.obj
 0001:00000cd0       ?QueryInterface@?$CComContainedObject@VCOPOSElectronicValueRW@@@ATL@@WHI@AGJABU_GUID@@PAPAX@Z 10001cd0 f i ElectronicValueRW.obj
 0001:00000cda       ?AddRef@?$CComContainedObject@VCOPOSElectronicValueRW@@@ATL@@WHI@AGKXZ 10001cda f i ElectronicValueRW.obj
 0001:00000ce4       ?Release@?$CComContainedObject@VCOPOSElectronicValueRW@@@ATL@@WHI@AGKXZ 10001ce4 f i ElectronicValueRW.obj
 0001:00000cee       ?QueryInterface@?$CComContainedObject@VCOPOSElectronicValueRW@@@ATL@@WHM@AGJABU_GUID@@PAPAX@Z 10001cee f i ElectronicValueRW.obj
 0001:00000cf8       ?AddRef@?$CComContainedObject@VCOPOSElectronicValueRW@@@ATL@@WHM@AGKXZ 10001cf8 f i ElectronicValueRW.obj
 0001:00000d02       ?Release@?$CComContainedObject@VCOPOSElectronicValueRW@@@ATL@@WHM@AGKXZ 10001d02 f i ElectronicValueRW.obj
 0001:00000d0c       ?QueryInterface@?$CComContainedObject@VCOPOSElectronicValueRW@@@ATL@@WIA@AGJABU_GUID@@PAPAX@Z 10001d0c f i ElectronicValueRW.obj
 0001:00000d19       ?AddRef@?$CComContainedObject@VCOPOSElectronicValueRW@@@ATL@@WIA@AGKXZ 10001d19 f i ElectronicValueRW.obj
 0001:00000d26       ?Release@?$CComContainedObject@VCOPOSElectronicValueRW@@@ATL@@WIA@AGKXZ 10001d26 f i ElectronicValueRW.obj
 0001:00000d33       ?QueryInterface@?$CComContainedObject@VCOPOSElectronicValueRW@@@ATL@@WIE@AGJABU_GUID@@PAPAX@Z 10001d33 f i ElectronicValueRW.obj
 0001:00000d40       ?AddRef@?$CComContainedObject@VCOPOSElectronicValueRW@@@ATL@@WIE@AGKXZ 10001d40 f i ElectronicValueRW.obj
 0001:00000d4d       ?Release@?$CComContainedObject@VCOPOSElectronicValueRW@@@ATL@@WIE@AGKXZ 10001d4d f i ElectronicValueRW.obj
 0001:00000d5a       ?QueryInterface@?$CComContainedObject@VCOPOSElectronicValueRW@@@ATL@@WII@AGJABU_GUID@@PAPAX@Z 10001d5a f i ElectronicValueRW.obj
 0001:00000d67       ?AddRef@?$CComContainedObject@VCOPOSElectronicValueRW@@@ATL@@WII@AGKXZ 10001d67 f i ElectronicValueRW.obj
 0001:00000d74       ?Release@?$CComContainedObject@VCOPOSElectronicValueRW@@@ATL@@WII@AGKXZ 10001d74 f i ElectronicValueRW.obj
 0001:00000d81       ?QueryInterface@?$CComContainedObject@VCOPOSElectronicValueRW@@@ATL@@WIM@AGJABU_GUID@@PAPAX@Z 10001d81 f i ElectronicValueRW.obj
 0001:00000d8e       ?AddRef@?$CComContainedObject@VCOPOSElectronicValueRW@@@ATL@@WIM@AGKXZ 10001d8e f i ElectronicValueRW.obj
 0001:00000d9b       ?Release@?$CComContainedObject@VCOPOSElectronicValueRW@@@ATL@@WIM@AGKXZ 10001d9b f i ElectronicValueRW.obj
 0001:00000da8       ?QueryInterface@?$CComContainedObject@VCOPOSElectronicValueRW@@@ATL@@WJA@AGJABU_GUID@@PAPAX@Z 10001da8 f i ElectronicValueRW.obj
 0001:00000db5       ?AddRef@?$CComContainedObject@VCOPOSElectronicValueRW@@@ATL@@WJA@AGKXZ 10001db5 f i ElectronicValueRW.obj
 0001:00000dc2       ?Release@?$CComContainedObject@VCOPOSElectronicValueRW@@@ATL@@WJA@AGKXZ 10001dc2 f i ElectronicValueRW.obj
 0001:00000dcf       ?QueryInterface@?$CComContainedObject@VCOPOSElectronicValueRW@@@ATL@@WJE@AGJABU_GUID@@PAPAX@Z 10001dcf f i ElectronicValueRW.obj
 0001:00000ddc       ?AddRef@?$CComContainedObject@VCOPOSElectronicValueRW@@@ATL@@WJE@AGKXZ 10001ddc f i ElectronicValueRW.obj
 0001:00000de9       ?Release@?$CComContainedObject@VCOPOSElectronicValueRW@@@ATL@@WJE@AGKXZ 10001de9 f i ElectronicValueRW.obj
 0001:00000df6       ?QueryInterface@?$CComContainedObject@VCOPOSElectronicValueRW@@@ATL@@WJI@AGJABU_GUID@@PAPAX@Z 10001df6 f i ElectronicValueRW.obj
 0001:00000e03       ?AddRef@?$CComContainedObject@VCOPOSElectronicValueRW@@@ATL@@WJI@AGKXZ 10001e03 f i ElectronicValueRW.obj
 0001:00000e10       ?Release@?$CComContainedObject@VCOPOSElectronicValueRW@@@ATL@@WJI@AGKXZ 10001e10 f i ElectronicValueRW.obj
 0001:00000e1d       ?QueryInterface@?$CComContainedObject@VCOPOSElectronicValueRW@@@ATL@@WJM@AGJABU_GUID@@PAPAX@Z 10001e1d f i ElectronicValueRW.obj
 0001:00000e2a       ?AddRef@?$CComContainedObject@VCOPOSElectronicValueRW@@@ATL@@WJM@AGKXZ 10001e2a f i ElectronicValueRW.obj
 0001:00000e37       ?Release@?$CComContainedObject@VCOPOSElectronicValueRW@@@ATL@@WJM@AGKXZ 10001e37 f i ElectronicValueRW.obj
 0001:00000e44       ?QueryInterface@?$CComContainedObject@VCOPOSElectronicValueRW@@@ATL@@WKA@AGJABU_GUID@@PAPAX@Z 10001e44 f i ElectronicValueRW.obj
 0001:00000e51       ?AddRef@?$CComContainedObject@VCOPOSElectronicValueRW@@@ATL@@WKA@AGKXZ 10001e51 f i ElectronicValueRW.obj
 0001:00000e5e       ?Release@?$CComContainedObject@VCOPOSElectronicValueRW@@@ATL@@WKA@AGKXZ 10001e5e f i ElectronicValueRW.obj
 0001:00000e6b       ?AddRef@?$CComContainedObject@VCOPOSElectronicValueRW@@@ATL@@WKI@AGKXZ 10001e6b f i ElectronicValueRW.obj
 0001:00000e78       ?Release@?$CComContainedObject@VCOPOSElectronicValueRW@@@ATL@@WKI@AGKXZ 10001e78 f i ElectronicValueRW.obj
 0001:00000e85       ?AddRef@?$CComContainedObject@VCOPOSElectronicValueRW@@@ATL@@WLE@AGKXZ 10001e85 f i ElectronicValueRW.obj
 0001:00000e92       ?Release@?$CComContainedObject@VCOPOSElectronicValueRW@@@ATL@@WLE@AGKXZ 10001e92 f i ElectronicValueRW.obj
 0001:00000e9f       ?GetTypeInfoCount@?$IDispatchImpl@UIOPOSElectronicValueRW@@$1?IID_IOPOSElectronicValueRW@@3U_GUID@@B$1?LIBID_OposElectronicValueRW_CCO@@3U3@B$00$0A@VCComTypeInfoHolder@ATL@@@ATL@@UAGJPAI@Z 10001e9f f i ElectronicValueRW.obj
 0001:00000ebc       ?GetTypeInfo@?$IDispatchImpl@UIOPOSElectronicValueRW@@$1?IID_IOPOSElectronicValueRW@@3U_GUID@@B$1?LIBID_OposElectronicValueRW_CCO@@3U3@B$00$0A@VCComTypeInfoHolder@ATL@@@ATL@@UAGJIKPAPAUITypeInfo@@@Z 10001ebc f i ElectronicValueRW.obj
 0001:00000ee0       ?GetIDsOfNames@?$IDispatchImpl@UIOPOSElectronicValueRW@@$1?IID_IOPOSElectronicValueRW@@3U_GUID@@B$1?LIBID_OposElectronicValueRW_CCO@@3U3@B$00$0A@VCComTypeInfoHolder@ATL@@@ATL@@UAGJABU_GUID@@PAPA_WIKPAJ@Z 10001ee0 f i ElectronicValueRW.obj
 0001:00000f00       ?Invoke@?$IDispatchImpl@UIOPOSElectronicValueRW@@$1?IID_IOPOSElectronicValueRW@@3U_GUID@@B$1?LIBID_OposElectronicValueRW_CCO@@3U3@B$00$0A@VCComTypeInfoHolder@ATL@@@ATL@@UAGJJABU_GUID@@KGPAUtagDISPPARAMS@@PAUtagVARIANT@@PAUtagEXCEPINFO@@PAI@Z 10001f00 f i ElectronicValueRW.obj
 0001:00000f0e       ?CreateControlWindow@?$CComControl@VCOPOSElectronicValueRW@@V?$CWindowImpl@VCOPOSElectronicValueRW@@VCWindow@ATL@@V?$CWinTraits@$0FGAAAAAA@$0A@@3@@ATL@@@ATL@@UAEPAUHWND__@@PAU3@AAUtagRECT@@@Z 10001f0e f i ElectronicValueRW.obj
 0001:00000f3d       ?ControlQueryInterface@?$CComControl@VCOPOSElectronicValueRW@@V?$CWindowImpl@VCOPOSElectronicValueRW@@VCWindow@ATL@@V?$CWinTraits@$0FGAAAAAA@$0A@@3@@ATL@@@ATL@@UAEJABU_GUID@@PAPAX@Z 10001f3d f i ElectronicValueRW.obj
 0001:00000f58       ?GetClassID@?$IPersistStreamInitImpl@VCOPOSElectronicValueRW@@@ATL@@UAGJPAU_GUID@@@Z 10001f58 f i ElectronicValueRW.obj
 0001:00000f58       ?GetUserClassID@?$IOleObjectImpl@VCOPOSElectronicValueRW@@@ATL@@UAGJPAU_GUID@@@Z 10001f58 f i ElectronicValueRW.obj
 0001:00000f58       ?GetClassID@?$IPersistStorageImpl@VCOPOSElectronicValueRW@@@ATL@@UAGJPAU_GUID@@@Z 10001f58 f i ElectronicValueRW.obj
 0001:00000f7c       ?IsDirty@?$IPersistStreamInitImpl@VCOPOSElectronicValueRW@@@ATL@@UAGJXZ 10001f7c f i ElectronicValueRW.obj
 0001:00000f9b       ?Load@?$IPersistStreamInitImpl@VCOPOSElectronicValueRW@@@ATL@@UAGJPAUIStream@@@Z 10001f9b f i ElectronicValueRW.obj
 0001:00000fba       ?Save@?$IPersistStreamInitImpl@VCOPOSElectronicValueRW@@@ATL@@UAGJPAUIStream@@H@Z 10001fba f i ElectronicValueRW.obj
 0001:00000fdc       ?GetSizeMax@?$IPersistStreamInitImpl@VCOPOSElectronicValueRW@@@ATL@@UAGJPAT_ULARGE_INTEGER@@@Z 10001fdc f i ElectronicValueRW.obj
 0001:000011bb       ?InitNew@?$IPersistStreamInitImpl@VCOPOSElectronicValueRW@@@ATL@@UAGJXZ 100021bb f i ElectronicValueRW.obj
 0001:000011d8       ?Unfreeze@?$IViewObjectExImpl@VCOPOSElectronicValueRW@@@ATL@@UAGJK@Z 100021d8 f i ElectronicValueRW.obj
 0001:000011d8       ?SetColorScheme@?$IOleObjectImpl@VCOPOSElectronicValueRW@@@ATL@@UAGJPAUtagLOGPALETTE@@@Z 100021d8 f i ElectronicValueRW.obj
 0001:000011d8       ?GetDropTarget@?$IOleInPlaceObjectWindowlessImpl@VCOPOSElectronicValueRW@@@ATL@@UAGJPAPAUIDropTarget@@@Z 100021d8 f i ElectronicValueRW.obj
 0001:000011d8       ?ContextSensitiveHelp@?$IOleInPlaceObjectWindowlessImpl@VCOPOSElectronicValueRW@@@ATL@@UAGJH@Z 100021d8 f i ElectronicValueRW.obj
 0001:000011d8       ?GetControlInfo@?$IOleControlImpl@VCOPOSElectronicValueRW@@@ATL@@UAGJPAUtagCONTROLINFO@@@Z 100021d8 f i ElectronicValueRW.obj
 0001:000011d8       ?ContextSensitiveHelp@?$IOleInPlaceActiveObjectImpl@VCOPOSElectronicValueRW@@@ATL@@UAGJH@Z 100021d8 f i ElectronicValueRW.obj
 0001:000011d8       ?OnMnemonic@?$IOleControlImpl@VCOPOSElectronicValueRW@@@ATL@@UAGJPAUtagMSG@@@Z 100021d8 f i ElectronicValueRW.obj
 0001:000011d8       ?QueryGetData@?$IDataObjectImpl@VCOPOSElectronicValueRW@@@ATL@@UAGJPAUtagFORMATETC@@@Z 100021d8 f i ElectronicValueRW.obj
 0001:000011e0       ?OnAmbientPropertyChange@?$IOleControlImpl@VCOPOSElectronicValueRW@@@ATL@@UAGJJ@Z 100021e0 f i ElectronicValueRW.obj
 0001:000011e0       ?EnableModeless@?$IOleInPlaceActiveObjectImpl@VCOPOSElectronicValueRW@@@ATL@@UAGJH@Z 100021e0 f i ElectronicValueRW.obj
 0001:000011e0       ?SaveCompleted@?$IPersistStorageImpl@VCOPOSElectronicValueRW@@@ATL@@UAGJPAUIStorage@@@Z 100021e0 f i ElectronicValueRW.obj
 0001:000011e0       ?OnFrameWindowActivate@?$IOleInPlaceActiveObjectImpl@VCOPOSElectronicValueRW@@@ATL@@UAGJH@Z 100021e0 f i ElectronicValueRW.obj
 0001:000011e5       ?SetClientSite@?$IOleObjectImpl@VCOPOSElectronicValueRW@@@ATL@@UAGJPAUIOleClientSite@@@Z 100021e5 f i ElectronicValueRW.obj
 0001:00001202       ?GetClientSite@?$IOleObjectImpl@VCOPOSElectronicValueRW@@@ATL@@UAGJPAPAUIOleClientSite@@@Z 10002202 f i ElectronicValueRW.obj
 0001:0000121f       ?SetHostNames@?$IOleObjectImpl@VCOPOSElectronicValueRW@@@ATL@@UAGJPB_W0@Z 1000221f f i ElectronicValueRW.obj
 0001:00001224       ?Close@?$IOleObjectImpl@VCOPOSElectronicValueRW@@@ATL@@UAGJK@Z 10002224 f i ElectronicValueRW.obj
 0001:00001241       ?GetDataHere@?$IDataObjectImpl@VCOPOSElectronicValueRW@@@ATL@@UAGJPAUtagFORMATETC@@PAUtagSTGMEDIUM@@@Z 10002241 f i ElectronicValueRW.obj
 0001:00001241       ?GetClipboardData@?$IOleObjectImpl@VCOPOSElectronicValueRW@@@ATL@@UAGJKPAPAUIDataObject@@@Z 10002241 f i ElectronicValueRW.obj
 0001:00001241       ?GetRect@?$IViewObjectExImpl@VCOPOSElectronicValueRW@@@ATL@@UAGJKPAU_RECTL@@@Z 10002241 f i ElectronicValueRW.obj
 0001:00001241       ?GetCanonicalFormatEtc@?$IDataObjectImpl@VCOPOSElectronicValueRW@@@ATL@@UAGJPAUtagFORMATETC@@0@Z 10002241 f i ElectronicValueRW.obj
 0001:00001241       ?QueryInterface@CRegObject@ATL@@UAGJABU_GUID@@PAPAX@Z 10002241 f i ElectronicValueRW.obj
 0001:00001241       ?EnumFormatEtc@?$IDataObjectImpl@VCOPOSElectronicValueRW@@@ATL@@UAGJKPAPAUIEnumFORMATETC@@@Z 10002241 f i ElectronicValueRW.obj
 0001:00001241       ?SetMoniker@?$IOleObjectImpl@VCOPOSElectronicValueRW@@@ATL@@UAGJKPAUIMoniker@@@Z 10002241 f i ElectronicValueRW.obj
 0001:00001249       ?Lock@CAtlModule@ATL@@UAEJXZ 10002249 f i ElectronicValueRW.obj
 0001:00001253       ?InitFromData@?$IOleObjectImpl@VCOPOSElectronicValueRW@@@ATL@@UAGJPAUIDataObject@@HK@Z 10002253 f i ElectronicValueRW.obj
 0001:00001253       ?GetMoniker@?$IOleObjectImpl@VCOPOSElectronicValueRW@@@ATL@@UAGJKKPAPAUIMoniker@@@Z 10002253 f i ElectronicValueRW.obj
 0001:00001253       ?SetData@?$IDataObjectImpl@VCOPOSElectronicValueRW@@@ATL@@UAGJPAUtagFORMATETC@@PAUtagSTGMEDIUM@@H@Z 10002253 f i ElectronicValueRW.obj
 0001:0000125b       ?Unlock@CAtlModule@ATL@@UAEJXZ 1000225b f i ElectronicValueRW.obj
 0001:00001265       ?GetLockCount@CAtlModule@ATL@@UAEJXZ 10002265 f i ElectronicValueRW.obj
 0001:00001269       ?GetGITPtr@CAtlModule@ATL@@UAEJPAPAUIGlobalInterfaceTable@@@Z 10002269 f i ElectronicValueRW.obj
 0001:000012b5       ?DoVerb@?$IOleObjectImpl@VCOPOSElectronicValueRW@@@ATL@@UAGJJPAUtagMSG@@PAUIOleClientSite@@JPAUHWND__@@PBUtagRECT@@@Z 100022b5 f i ElectronicValueRW.obj
 0001:000013a9       ?EnumVerbs@?$IOleObjectImpl@VCOPOSElectronicValueRW@@@ATL@@UAGJPAPAUIEnumOLEVERB@@@Z 100023a9 f i ElectronicValueRW.obj
 0001:000013cb       ?Update@?$IOleObjectImpl@VCOPOSElectronicValueRW@@@ATL@@UAGJXZ 100023cb f i ElectronicValueRW.obj
 0001:000013cb       ?IsUpToDate@?$IOleObjectImpl@VCOPOSElectronicValueRW@@@ATL@@UAGJXZ 100023cb f i ElectronicValueRW.obj
 0001:000013cb       ?Release@CRegObject@ATL@@UAGKXZ 100023cb f i ElectronicValueRW.obj
 0001:000013cb       ?HandsOffStorage@?$IPersistStorageImpl@VCOPOSElectronicValueRW@@@ATL@@UAGJXZ 100023cb f i ElectronicValueRW.obj
 0001:000013d0       ?GetUserType@?$IOleObjectImpl@VCOPOSElectronicValueRW@@@ATL@@UAGJKPAPA_W@Z 100023d0 f i ElectronicValueRW.obj
 0001:000013e8       ?SetExtent@?$IOleObjectImpl@VCOPOSElectronicValueRW@@@ATL@@UAGJKPAUtagSIZE@@@Z 100023e8 f i ElectronicValueRW.obj
 0001:00001408       ?GetExtent@?$IOleObjectImpl@VCOPOSElectronicValueRW@@@ATL@@UAGJKPAUtagSIZE@@@Z 10002408 f i ElectronicValueRW.obj
 0001:00001446       ?Advise@?$IOleObjectImpl@VCOPOSElectronicValueRW@@@ATL@@UAGJPAUIAdviseSink@@PAK@Z 10002446 f i ElectronicValueRW.obj
 0001:00001466       ?Unadvise@?$IOleObjectImpl@VCOPOSElectronicValueRW@@@ATL@@UAGJK@Z 10002466 f i ElectronicValueRW.obj
 0001:00001495       ?EnumAdvise@?$IOleObjectImpl@VCOPOSElectronicValueRW@@@ATL@@UAGJPAPAUIEnumSTATDATA@@@Z 10002495 f i ElectronicValueRW.obj
 0001:000014d5       ?GetMiscStatus@?$IOleObjectImpl@VCOPOSElectronicValueRW@@@ATL@@UAGJKPAK@Z 100024d5 f i ElectronicValueRW.obj
 0001:000014ed       ?GetWindow@?$IOleInPlaceActiveObjectImpl@VCOPOSElectronicValueRW@@@ATL@@UAGJPAPAUHWND__@@@Z 100024ed f i ElectronicValueRW.obj
 0001:0000153a       ?TranslateAcceleratorW@?$IOleInPlaceActiveObjectImpl@VCOPOSElectronicValueRW@@@ATL@@UAGJPAUtagMSG@@@Z 1000253a f i ElectronicValueRW.obj
 0001:000015e8       ?OnDocWindowActivate@?$IOleInPlaceActiveObjectImpl@VCOPOSElectronicValueRW@@@ATL@@UAGJH@Z 100025e8 f i ElectronicValueRW.obj
 0001:0000160a       ?ResizeBorder@?$IOleInPlaceActiveObjectImpl@VCOPOSElectronicValueRW@@@ATL@@UAGJPBUtagRECT@@PAUIOleInPlaceUIWindow@@H@Z 1000260a f i ElectronicValueRW.obj
 0001:0000160f       ?Draw@?$IViewObjectExImpl@VCOPOSElectronicValueRW@@@ATL@@UAGJKJPAXPAUtagDVTARGETDEVICE@@PAUHDC__@@2PBU_RECTL@@3P6GHK@ZK@Z 1000260f f i ElectronicValueRW.obj
 0001:00001641       ?GetColorSet@?$IViewObjectExImpl@VCOPOSElectronicValueRW@@@ATL@@UAGJKJPAXPAUtagDVTARGETDEVICE@@PAUHDC__@@PAPAUtagLOGPALETTE@@@Z 10002641 f i ElectronicValueRW.obj
 0001:00001649       ?Freeze@?$IViewObjectExImpl@VCOPOSElectronicValueRW@@@ATL@@UAGJKJPAXPAK@Z 10002649 f i ElectronicValueRW.obj
 0001:00001651       ?SetAdvise@?$IViewObjectExImpl@VCOPOSElectronicValueRW@@@ATL@@UAGJKKPAUIAdviseSink@@@Z 10002651 f i ElectronicValueRW.obj
 0001:00001670       ?GetAdvise@?$IViewObjectExImpl@VCOPOSElectronicValueRW@@@ATL@@UAGJPAK0PAPAUIAdviseSink@@@Z 10002670 f i ElectronicValueRW.obj
 0001:000016a5       ?GetExtent@?$IViewObjectExImpl@VCOPOSElectronicValueRW@@@ATL@@UAGJKJPAUtagDVTARGETDEVICE@@PAUtagSIZE@@@Z 100026a5 f i ElectronicValueRW.obj
 0001:000016d6       ?GetViewStatus@?$IViewObjectExImpl@VCOPOSElectronicValueRW@@@ATL@@UAGJPAK@Z 100026d6 f i ElectronicValueRW.obj
 0001:000016f3       ?QueryHitPoint@?$IViewObjectExImpl@VCOPOSElectronicValueRW@@@ATL@@UAGJKPBUtagRECT@@UtagPOINT@@JPAK@Z 100026f3 f i ElectronicValueRW.obj
 0001:00001734       ?QueryHitRect@?$IViewObjectExImpl@VCOPOSElectronicValueRW@@@ATL@@UAGJKPBUtagRECT@@0JPAK@Z 10002734 f i ElectronicValueRW.obj
 0001:0000178f       ?GetNaturalExtent@?$IViewObjectExImpl@VCOPOSElectronicValueRW@@@ATL@@UAGJKJPAUtagDVTARGETDEVICE@@PAUHDC__@@PAUtagExtentInfo@@PAUtagSIZE@@@Z 1000278f f i ElectronicValueRW.obj
 0001:000017da       ?GetWindow@?$IOleInPlaceObjectWindowlessImpl@VCOPOSElectronicValueRW@@@ATL@@UAGJPAPAUHWND__@@@Z 100027da f i ElectronicValueRW.obj
 0001:00001827       ?InPlaceDeactivate@?$IOleInPlaceObjectWindowlessImpl@VCOPOSElectronicValueRW@@@ATL@@UAGJXZ 10002827 f i ElectronicValueRW.obj
 0001:00001841       ?UIDeactivate@?$IOleInPlaceObjectWindowlessImpl@VCOPOSElectronicValueRW@@@ATL@@UAGJXZ 10002841 f i ElectronicValueRW.obj
 0001:0000185b       ?SetObjectRects@?$IOleInPlaceObjectWindowlessImpl@VCOPOSElectronicValueRW@@@ATL@@UAGJPBUtagRECT@@0@Z 1000285b f i ElectronicValueRW.obj
 0001:0000187b       ?ReactivateAndUndo@?$IOleInPlaceObjectWindowlessImpl@VCOPOSElectronicValueRW@@@ATL@@UAGJXZ 1000287b f i ElectronicValueRW.obj
 0001:00001883       ?OnWindowMessage@?$IOleInPlaceObjectWindowlessImpl@VCOPOSElectronicValueRW@@@ATL@@UAGJIIJPAJ@Z 10002883 f i ElectronicValueRW.obj
 0001:000018f3       ?EnumConnectionPoints@?$IConnectionPointContainerImpl@VCOPOSElectronicValueRW@@@ATL@@UAGJPAPAUIEnumConnectionPoints@@@Z 100028f3 f i ElectronicValueRW.obj
 0001:00001a6d       ?FindConnectionPoint@?$IConnectionPointContainerImpl@VCOPOSElectronicValueRW@@@ATL@@UAGJABU_GUID@@PAPAUIConnectionPoint@@@Z 10002a6d f i ElectronicValueRW.obj
 0001:00001b10       ?IsDirty@?$IPersistStorageImpl@VCOPOSElectronicValueRW@@@ATL@@UAGJXZ 10002b10 f i ElectronicValueRW.obj
 0001:00001b44       ?InitNew@?$IPersistStorageImpl@VCOPOSElectronicValueRW@@@ATL@@UAGJPAUIStorage@@@Z 10002b44 f i ElectronicValueRW.obj
 0001:00001b78       ?Load@?$IPersistStorageImpl@VCOPOSElectronicValueRW@@@ATL@@UAGJPAUIStorage@@@Z 10002b78 f i ElectronicValueRW.obj
 0001:00001be4       ?Save@?$IPersistStorageImpl@VCOPOSElectronicValueRW@@@ATL@@UAGJPAUIStorage@@H@Z 10002be4 f i ElectronicValueRW.obj
 0001:00001c57       ?AddCommonRGSReplacements@?$CAtlModuleT@VCComModule@ATL@@@ATL@@UAEJPAUIRegistrarBase@@@Z 10002c57 f i ElectronicValueRW.obj
 0001:00001c71       ?GetPages@?$ISpecifyPropertyPagesImpl@VCOPOSElectronicValueRW@@@ATL@@UAGJPAUtagCAUUID@@@Z 10002c71 f i ElectronicValueRW.obj
 0001:00001c88       ?QuickActivate@?$IQuickActivateImpl@VCOPOSElectronicValueRW@@@ATL@@UAGJPAUtagQACONTAINER@@PAUtagQACONTROL@@@Z 10002c88 f i ElectronicValueRW.obj
 0001:00001cab       ?SetContentExtent@?$IQuickActivateImpl@VCOPOSElectronicValueRW@@@ATL@@UAGJPAUtagSIZE@@@Z 10002cab f i ElectronicValueRW.obj
 0001:00001cd7       ?GetContentExtent@?$IQuickActivateImpl@VCOPOSElectronicValueRW@@@ATL@@UAGJPAUtagSIZE@@@Z 10002cd7 f i ElectronicValueRW.obj
 0001:00001d11       ?GetData@?$IDataObjectImpl@VCOPOSElectronicValueRW@@@ATL@@UAGJPAUtagFORMATETC@@PAUtagSTGMEDIUM@@@Z 10002d11 f i ElectronicValueRW.obj
 0001:00001d34       ?DAdvise@?$IDataObjectImpl@VCOPOSElectronicValueRW@@@ATL@@UAGJPAUtagFORMATETC@@KPAUIAdviseSink@@PAK@Z 10002d34 f i ElectronicValueRW.obj
 0001:00001d75       ?DUnadvise@?$IDataObjectImpl@VCOPOSElectronicValueRW@@@ATL@@UAGJK@Z 10002d75 f i ElectronicValueRW.obj
 0001:00001da3       ?EnumDAdvise@?$IDataObjectImpl@VCOPOSElectronicValueRW@@@ATL@@UAGJPAPAUIEnumSTATDATA@@@Z 10002da3 f i ElectronicValueRW.obj
 0001:00001de2       ?UpdateRegistryFromResourceD@CComModule@ATL@@UAGJIHPAU_ATL_REGMAP_ENTRY@2@@Z 10002de2 f i ElectronicValueRW.obj
 0001:00001de2       ?UpdateRegistryFromResourceD@CComModule@ATL@@UAGJPB_WHPAU_ATL_REGMAP_ENTRY@2@@Z 10002de2 f i ElectronicValueRW.obj
 0001:00001dea       ?UpdateRegistryFromResource@CComModule@ATL@@UAGJPB_WHPAU_ATL_REGMAP_ENTRY@2@@Z 10002dea f i ElectronicValueRW.obj
 0001:00001df3       ?GetClassInfoW@?$IProvideClassInfo2Impl@$1?CLSID_OPOSElectronicValueRW@@3U_GUID@@B$1?DIID__IOPOSElectronicValueRWEvents@@3U2@B$1?LIBID_OposElectronicValueRW_CCO@@3U2@B$00$0A@VCComTypeInfoHolder@ATL@@@ATL@@UAGJPAPAUITypeInfo@@@Z 10002df3 f i ElectronicValueRW.obj
 0001:00001e09       ?UpdateRegistryFromResource@CComModule@ATL@@UAGJIHPAU_ATL_REGMAP_ENTRY@2@@Z 10002e09 f i ElectronicValueRW.obj
 0001:00001e12       ?GetGUID@?$IProvideClassInfo2Impl@$1?CLSID_OPOSElectronicValueRW@@3U_GUID@@B$1?DIID__IOPOSElectronicValueRWEvents@@3U2@B$1?LIBID_OposElectronicValueRW_CCO@@3U2@B$00$0A@VCComTypeInfoHolder@ATL@@@ATL@@UAGJKPAU_GUID@@@Z 10002e12 f i ElectronicValueRW.obj
 0001:00001e50       __get_startup_argv_mode    10002e50 f i LIBCMT:argv_mode.obj
 0001:00001e50       ?FAccessAllowed@?$IObjectSafetyImpl@VCOPOSElectronicValueRW@@$02@ATL@@MAEHXZ 10002e50 f i ElectronicValueRW.obj
 0001:00001e54       ?GetInterfaceSafetyOptions@?$IObjectSafetyImpl@VCOPOSElectronicValueRW@@$02@ATL@@UAGJABU_GUID@@PAK1@Z 10002e54 f i ElectronicValueRW.obj
 0001:00001ec8       ?SetInterfaceSafetyOptions@?$IObjectSafetyImpl@VCOPOSElectronicValueRW@@$02@ATL@@UAGJABU_GUID@@KK@Z 10002ec8 f i ElectronicValueRW.obj
 0001:00001f42       ??_GCComModule@ATL@@UAEPAXI@Z 10002f42 f i ElectronicValueRW.obj
 0001:00001f42       ??_ECComModule@ATL@@UAEPAXI@Z 10002f42 f i ElectronicValueRW.obj
 0001:00001f6a       ?_LocCPQueryInterface@?$IConnectionPointImpl@VCOPOSElectronicValueRW@@$1?DIID__IOPOSElectronicValueRWEvents@@3U_GUID@@BVCComDynamicUnkArray@ATL@@@ATL@@UAGJABU_GUID@@PAPAX@Z 10002f6a f i ElectronicValueRW.obj
 0001:00001f6a       ?_LocCPQueryInterface@?$IConnectionPointImpl@VCOPOSElectronicValueRW@@$1?IID_IPropertyNotifySink@@3U_GUID@@BVCComDynamicUnkArray@ATL@@@ATL@@UAGJABU_GUID@@PAPAX@Z 10002f6a f i ElectronicValueRW.obj
 0001:00001fb7       ?GetConnectionInterface@?$IConnectionPointImpl@VCOPOSElectronicValueRW@@$1?IID_IPropertyNotifySink@@3U_GUID@@BVCComDynamicUnkArray@ATL@@@ATL@@UAGJPAU_GUID@@@Z 10002fb7 f i ElectronicValueRW.obj
 0001:00001fdb       ?GetConnectionPointContainer@?$IConnectionPointImpl@VCOPOSElectronicValueRW@@$1?IID_IPropertyNotifySink@@3U_GUID@@BVCComDynamicUnkArray@ATL@@@ATL@@UAGJPAPAUIConnectionPointContainer@@@Z 10002fdb f i ElectronicValueRW.obj
 0001:00001ffe       ?Advise@?$IConnectionPointImpl@VCOPOSElectronicValueRW@@$1?IID_IPropertyNotifySink@@3U_GUID@@BVCComDynamicUnkArray@ATL@@@ATL@@UAGJPAUIUnknown@@PAK@Z 10002ffe f i ElectronicValueRW.obj
 0001:00001ffe       ?Advise@?$IConnectionPointImpl@VCOPOSElectronicValueRW@@$1?DIID__IOPOSElectronicValueRWEvents@@3U_GUID@@BVCComDynamicUnkArray@ATL@@@ATL@@UAGJPAUIUnknown@@PAK@Z 10002ffe f i ElectronicValueRW.obj
 0001:0000209f       ?Unadvise@?$IConnectionPointImpl@VCOPOSElectronicValueRW@@$1?DIID__IOPOSElectronicValueRWEvents@@3U_GUID@@BVCComDynamicUnkArray@ATL@@@ATL@@UAGJK@Z 1000309f f i ElectronicValueRW.obj
 0001:0000209f       ?Unadvise@?$IConnectionPointImpl@VCOPOSElectronicValueRW@@$1?IID_IPropertyNotifySink@@3U_GUID@@BVCComDynamicUnkArray@ATL@@@ATL@@UAGJK@Z 1000309f f i ElectronicValueRW.obj
 0001:000020df       ?EnumConnections@?$IConnectionPointImpl@VCOPOSElectronicValueRW@@$1?IID_IPropertyNotifySink@@3U_GUID@@BVCComDynamicUnkArray@ATL@@@ATL@@UAGJPAPAUIEnumConnections@@@Z 100030df f i ElectronicValueRW.obj
 0001:000020df       ?EnumConnections@?$IConnectionPointImpl@VCOPOSElectronicValueRW@@$1?DIID__IOPOSElectronicValueRWEvents@@3U_GUID@@BVCComDynamicUnkArray@ATL@@@ATL@@UAGJPAPAUIEnumConnections@@@Z 100030df f i ElectronicValueRW.obj
 0001:000021e5       ?GetObjectDescription@?$CComCoClass@VCOPOSElectronicValueRW@@$1?CLSID_OPOSElectronicValueRW@@3U_GUID@@B@ATL@@SGPB_WXZ 100031e5 f i ElectronicValueRW.obj
 0001:000021e5       ?GetCategoryMap@CComObjectRootBase@ATL@@SAPBU_ATL_CATMAP_ENTRY@2@XZ 100031e5 f i ElectronicValueRW.obj
 0001:000021e8       ?GetConnectionInterface@?$IConnectionPointImpl@VCOPOSElectronicValueRW@@$1?DIID__IOPOSElectronicValueRWEvents@@3U_GUID@@BVCComDynamicUnkArray@ATL@@@ATL@@UAGJPAU_GUID@@@Z 100031e8 f i ElectronicValueRW.obj
 0001:0000220c       ?GetConnectionPointContainer@?$IConnectionPointImpl@VCOPOSElectronicValueRW@@$1?DIID__IOPOSElectronicValueRWEvents@@3U_GUID@@BVCComDynamicUnkArray@ATL@@@ATL@@UAGJPAPAUIConnectionPointContainer@@@Z 1000320c f i ElectronicValueRW.obj
 0001:0000222f       ?UpdateRegistry@COPOSElectronicValueRW@@SGJH@Z 1000322f f i ElectronicValueRW.obj
 0001:00002247       ?ProcessWindowMessage@COPOSElectronicValueRW@@UAEHPAUHWND__@@IIJAAJK@Z 10003247 f i ElectronicValueRW.obj
 0001:00002290       ?SOData@COPOSElectronicValueRW@@MAGJJ@Z 10003290 f i ElectronicValueRW.obj
 0001:000022c9       ?SODirectIO@COPOSElectronicValueRW@@MAGJJPAJPAPA_W@Z 100032c9 f i ElectronicValueRW.obj
 0001:00002312       ?SOError@COPOSElectronicValueRW@@MAGJJJJPAJ@Z 10003312 f i ElectronicValueRW.obj
 0001:00002367       ?SOOutputComplete@COPOSElectronicValueRW@@MAGJJ@Z 10003367 f i ElectronicValueRW.obj
 0001:000023a0       ?SOStatusUpdate@COPOSElectronicValueRW@@MAGJJ@Z 100033a0 f i ElectronicValueRW.obj
 0001:000023d9       ?SOTransition@COPOSElectronicValueRW@@MAGJJPAJPAPA_W@Z 100033d9 f i ElectronicValueRW.obj
 0001:00002422       ?CreateInstance@?$CComCreator@V?$CComObjectCached@VCComClassFactory@ATL@@@ATL@@@ATL@@SGJPAXABU_GUID@@PAPAX@Z 10003422 f i ElectronicValueRW.obj
 0001:000024ce       ?CreateInstance@?$CComCreator2@V?$CComCreator@V?$CComObject@VCOPOSElectronicValueRW@@@ATL@@@ATL@@V?$CComCreator@V?$CComAggObject@VCOPOSElectronicValueRW@@@ATL@@@2@@ATL@@SGJPAXABU_GUID@@PAPAX@Z 100034ce f i ElectronicValueRW.obj
 0001:000024ee       ?AddRef@?$CComObjectCached@VCComClassFactory@ATL@@@ATL@@UAGKXZ 100034ee f i ElectronicValueRW.obj
 0001:00002515       ?Release@?$CComObjectCached@VCComClassFactory@ATL@@@ATL@@UAGKXZ 10003515 f i ElectronicValueRW.obj
 0001:0000254b       ?QueryInterface@?$CComObjectCached@VCComClassFactory@ATL@@@ATL@@UAGJABU_GUID@@PAPAX@Z 1000354b f i ElectronicValueRW.obj
 0001:00002565       ??_G?$CComObjectCached@VCComClassFactory@ATL@@@ATL@@UAEPAXI@Z 10003565 f i ElectronicValueRW.obj
 0001:00002565       ??_E?$CComObjectCached@VCComClassFactory@ATL@@@ATL@@UAEPAXI@Z 10003565 f i ElectronicValueRW.obj
 0001:00002587       ?AddRef@CRegObject@ATL@@UAGKXZ 10003587 f i ElectronicValueRW.obj
 0001:0000258d       ?AddReplacement@CRegObject@ATL@@UAGJPB_W0@Z 1000358d f i ElectronicValueRW.obj
 0001:000025c6       ?ClearReplacements@CRegObject@ATL@@UAGJXZ 100035c6 f i ElectronicValueRW.obj
 0001:000025d8       ??_ECRegObject@ATL@@UAEPAXI@Z 100035d8 f i ElectronicValueRW.obj
 0001:000025d8       ??_GCRegObject@ATL@@UAEPAXI@Z 100035d8 f i ElectronicValueRW.obj
 0001:000025fa       ?Next@?$CComEnumImpl@UIEnumConnectionPoints@@$1?_GUID_b196b285_bab4_101a_b69c_00aa00341d07@@3U__s_GUID@@BPAUIConnectionPoint@@V?$_CopyInterface@UIConnectionPoint@@@ATL@@@ATL@@UAGJKPAPAUIConnectionPoint@@PAK@Z 100035fa f i ElectronicValueRW.obj
 0001:000026d1       ?Skip@?$CComEnumImpl@UIEnumConnectionPoints@@$1?_GUID_b196b285_bab4_101a_b69c_00aa00341d07@@3U__s_GUID@@BPAUIConnectionPoint@@V?$_CopyInterface@UIConnectionPoint@@@ATL@@@ATL@@UAGJK@Z 100036d1 f i ElectronicValueRW.obj
 0001:000026fe       ?Clone@?$CComEnumImpl@UIEnumConnectionPoints@@$1?_GUID_b196b285_bab4_101a_b69c_00aa00341d07@@3U__s_GUID@@BPAUIConnectionPoint@@V?$_CopyInterface@UIConnectionPoint@@@ATL@@@ATL@@UAGJPAPAUIEnumConnectionPoints@@@Z 100036fe f i ElectronicValueRW.obj
 0001:000027df       ?QueryInterface@?$CComObject@V?$CComEnum@UIEnumConnectionPoints@@$1?_GUID_b196b285_bab4_101a_b69c_00aa00341d07@@3U__s_GUID@@BPAUIConnectionPoint@@V?$_CopyInterface@UIConnectionPoint@@@ATL@@VCComSingleThreadModel@6@@ATL@@@ATL@@UAGJABU_GUID@@PAPAX@Z 100037df f i ElectronicValueRW.obj
 0001:000027f9       ??_G?$CComObject@V?$CComEnum@UIEnumConnectionPoints@@$1?_GUID_b196b285_bab4_101a_b69c_00aa00341d07@@3U__s_GUID@@BPAUIConnectionPoint@@V?$_CopyInterface@UIConnectionPoint@@@ATL@@VCComSingleThreadModel@6@@ATL@@@ATL@@UAEPAXI@Z 100037f9 f i ElectronicValueRW.obj
 0001:000027f9       ??_E?$CComObject@V?$CComEnum@UIEnumConnectionPoints@@$1?_GUID_b196b285_bab4_101a_b69c_00aa00341d07@@3U__s_GUID@@BPAUIConnectionPoint@@V?$_CopyInterface@UIConnectionPoint@@@ATL@@VCComSingleThreadModel@6@@ATL@@@ATL@@UAEPAXI@Z 100037f9 f i ElectronicValueRW.obj
 0001:0000281b       ?OnDrawAdvanced@CComControlBase@ATL@@UAEJAAUATL_DRAWINFO@@@Z 1000381b f i ElectronicValueRW.obj
 0001:0000290e       ?AddRef@?$CComAggObject@VCOPOSElectronicValueRW@@@ATL@@UAGKXZ 1000390e f i ElectronicValueRW.obj
 0001:0000291f       ?Release@?$CComAggObject@VCOPOSElectronicValueRW@@@ATL@@UAGKXZ 1000391f f i ElectronicValueRW.obj
 0001:0000295b       ?QueryInterface@?$CComAggObject@VCOPOSElectronicValueRW@@@ATL@@UAGJABU_GUID@@PAPAX@Z 1000395b f i ElectronicValueRW.obj
 0001:000029aa       ?AddRef@?$CComContainedObject@VCOPOSElectronicValueRW@@@ATL@@UAGKXZ 100039aa f i ElectronicValueRW.obj
 0001:000029c0       ?Release@?$CComContainedObject@VCOPOSElectronicValueRW@@@ATL@@UAGKXZ 100039c0 f i ElectronicValueRW.obj
 0001:000029d6       ?QueryInterface@?$CComContainedObject@VCOPOSElectronicValueRW@@@ATL@@UAGJABU_GUID@@PAPAX@Z 100039d6 f i ElectronicValueRW.obj
 0001:000029f1       ??_E?$CComAggObject@VCOPOSElectronicValueRW@@@ATL@@UAEPAXI@Z 100039f1 f i ElectronicValueRW.obj
 0001:000029f1       ??_G?$CComAggObject@VCOPOSElectronicValueRW@@@ATL@@UAEPAXI@Z 100039f1 f i ElectronicValueRW.obj
 0001:00002a16       ?AddRef@?$CComObject@VCOPOSElectronicValueRW@@@ATL@@UAGKXZ 10003a16 f i ElectronicValueRW.obj
 0001:00002a2d       ?Release@?$CComObject@VCOPOSElectronicValueRW@@@ATL@@UAGKXZ 10003a2d f i ElectronicValueRW.obj
 0001:00002a6f       ?QueryInterface@?$CComObject@VCOPOSElectronicValueRW@@@ATL@@UAGJABU_GUID@@PAPAX@Z 10003a6f f i ElectronicValueRW.obj
 0001:00002a89       ??$?4UITypeInfo2@@@?$CComPtr@UITypeInfo@@@ATL@@QAEPAUITypeInfo@@ABV?$CComPtr@UITypeInfo2@@@1@@Z 10003a89 f i ElectronicValueRW.obj
 0001:00002ab6       ??$AtlAdd@K@ATL@@YAJPAKKK@Z 10003ab6 f i ElectronicValueRW.obj
 0001:00002ad9       ??$AtlAdd@_K@ATL@@YAJPA_K_K1@Z 10003ad9 f i ElectronicValueRW.obj
 0001:00002b11       ??$AtlAddThrow@K@ATL@@YAKKK@Z 10003b11 f i ElectronicValueRW.obj
 0001:00002b37       ??$AtlModuleRegisterWndClassInfoT@VAtlModuleRegisterWndClassInfoParamW@ATL@@@ATL@@YAGPAU_ATL_BASE_MODULE70@0@PAU_ATL_WIN_MODULE70@0@PAU_ATL_WNDCLASSINFOW@0@PAP6GJPAUHWND__@@IIJ@ZVAtlModuleRegisterWndClassInfoParamW@0@@Z 10003b37 f i ElectronicValueRW.obj
 0001:00002c85       ??$AtlMultiply@H@ATL@@YAJPAHHH@Z 10003c85 f i ElectronicValueRW.obj
 0001:00002cbd       ??$AtlMultiply@K@ATL@@YAJPAKKK@Z 10003cbd f i ElectronicValueRW.obj
 0001:00002cbd       ??$AtlMultiply@I@ATL@@YAJPAIII@Z 10003cbd f i ElectronicValueRW.obj
 0001:00002cdf       ??$AtlMultiplyThrow@I@ATL@@YAIII@Z 10003cdf f i ElectronicValueRW.obj
 0001:00002d05       ??0?$CComAggObject@VCOPOSElectronicValueRW@@@ATL@@QAE@PAX@Z 10003d05 f i ElectronicValueRW.obj
 0001:00002d32       ??0?$CComContainedObject@VCOPOSElectronicValueRW@@@ATL@@QAE@PAX@Z 10003d32 f i ElectronicValueRW.obj
 0001:00002deb       ??0?$CComObject@V?$CComEnum@UIEnumConnectionPoints@@$1?_GUID_b196b285_bab4_101a_b69c_00aa00341d07@@3U__s_GUID@@BPAUIConnectionPoint@@V?$_CopyInterface@UIConnectionPoint@@@ATL@@VCComSingleThreadModel@6@@ATL@@@ATL@@QAE@PAX@Z 10003deb f i ElectronicValueRW.obj
 0001:00002e19       ??0?$CComObject@V?$CComEnum@UIEnumConnections@@$1?_GUID_b196b287_bab4_101a_b69c_00aa00341d07@@3U__s_GUID@@BUtagCONNECTDATA@@V?$_Copy@UtagCONNECTDATA@@@ATL@@VCComSingleThreadModel@6@@ATL@@@ATL@@QAE@PAX@Z 10003e19 f i ElectronicValueRW.obj
 0001:00002e47       ??0?$CComObject@VCOPOSElectronicValueRW@@@ATL@@QAE@PAX@Z 10003e47 f i ElectronicValueRW.obj
 0001:00002efe       ??0?$CComQIPtr@UIOleControlSite@@$1?_GUID_b196b289_bab4_101a_b69c_00aa00341d07@@3U__s_GUID@@B@ATL@@QAE@PAUIUnknown@@@Z 10003efe f i ElectronicValueRW.obj
 0001:00002f27       ??0CAtlModule@ATL@@QAE@XZ  10003f27 f i ElectronicValueRW.obj
 0001:00002f68       ??0CParseBuffer@CRegParser@ATL@@QAE@H@Z 10003f68 f i ElectronicValueRW.obj
 0001:00002f9e       ??0_ATL_MSG@ATL@@QAE@PAUHWND__@@IIJH@Z 10003f9e f i ElectronicValueRW.obj
 0001:00002fd6       ??1?$CComAggObject@VCOPOSElectronicValueRW@@@ATL@@UAE@XZ 10003fd6 f i ElectronicValueRW.obj
 0001:00002ffa       ??1?$CComEnumImpl@UIEnumConnectionPoints@@$1?_GUID_b196b285_bab4_101a_b69c_00aa00341d07@@3U__s_GUID@@BPAUIConnectionPoint@@V?$_CopyInterface@UIConnectionPoint@@@ATL@@@ATL@@UAE@XZ 10003ffa f i ElectronicValueRW.obj
 0001:0000303a       ??1?$CComEnumImpl@UIEnumConnections@@$1?_GUID_b196b287_bab4_101a_b69c_00aa00341d07@@3U__s_GUID@@BUtagCONNECTDATA@@V?$_Copy@UtagCONNECTDATA@@@ATL@@@ATL@@UAE@XZ 1000403a f i ElectronicValueRW.obj
 0001:0000307a       ??1?$CComObject@V?$CComEnum@UIEnumConnectionPoints@@$1?_GUID_b196b285_bab4_101a_b69c_00aa00341d07@@3U__s_GUID@@BPAUIConnectionPoint@@V?$_CopyInterface@UIConnectionPoint@@@ATL@@VCComSingleThreadModel@6@@ATL@@@ATL@@UAE@XZ 1000407a f i ElectronicValueRW.obj
 0001:0000309d       ??1?$CComObject@V?$CComEnum@UIEnumConnections@@$1?_GUID_b196b287_bab4_101a_b69c_00aa00341d07@@3U__s_GUID@@BUtagCONNECTDATA@@V?$_Copy@UtagCONNECTDATA@@@ATL@@VCComSingleThreadModel@6@@ATL@@@ATL@@UAE@XZ 1000409d f i ElectronicValueRW.obj
 0001:000030c0       ??1?$CComObject@VCOPOSElectronicValueRW@@@ATL@@UAE@XZ 100040c0 f i ElectronicValueRW.obj
 0001:0000317e       ??1?$CComObjectCached@VCComClassFactory@ATL@@@ATL@@UAE@XZ 1000417e f i ElectronicValueRW.obj
 0001:00003194       ??1?$CComObjectRootEx@VCComMultiThreadModel@ATL@@@ATL@@QAE@XZ 10004194 f i ElectronicValueRW.obj
 0001:000031a9       ??1CRegObject@ATL@@UAE@XZ  100041a9 f i ElectronicValueRW.obj
 0001:000031c9       ??4?$CComPtr@UIUnknown@@@ATL@@QAEPAUIUnknown@@PAU2@@Z 100041c9 f i ElectronicValueRW.obj
 0001:000031c9       ??4?$CComPtr@UIOleClientSite@@@ATL@@QAEPAUIOleClientSite@@PAU2@@Z 100041c9 f i ElectronicValueRW.obj
 0001:000031c9       ??4?$CComPtr@UIAdviseSink@@@ATL@@QAEPAUIAdviseSink@@PAU2@@Z 100041c9 f i ElectronicValueRW.obj
 0001:000031fd       ??_G?$CComContainedObject@VCOPOSElectronicValueRW@@@ATL@@UAEPAXI@Z 100041fd f i ElectronicValueRW.obj
 0001:000031fd       ??_E?$CComContainedObject@VCOPOSElectronicValueRW@@@ATL@@UAEPAXI@Z 100041fd f i ElectronicValueRW.obj
 0001:00003222       ??_G?$CComObject@VCOPOSElectronicValueRW@@@ATL@@UAEPAXI@Z 10004222 f i ElectronicValueRW.obj
 0001:00003222       ??_E?$CComObject@VCOPOSElectronicValueRW@@@ATL@@UAEPAXI@Z 10004222 f i ElectronicValueRW.obj
 0001:00003247       ?Add@?$CSimpleArray@GV?$CSimpleArrayEqualHelper@G@ATL@@@ATL@@QAEHABG@Z 10004247 f i ElectronicValueRW.obj
 0001:000032cb       ?Add@?$CSimpleMap@PA_WPA_WVCExpansionVectorEqualHelper@ATL@@@ATL@@QAEHABQA_W0@Z 100042cb f i ElectronicValueRW.obj
 0001:00003320       ?Add@CComDynamicUnkArray@ATL@@QAEKPAUIUnknown@@@Z 10004320 f i ElectronicValueRW.obj
 0001:000033d6       ?Add@CExpansionVector@ATL@@QAEHPB_W0@Z 100043d6 f i ElectronicValueRW.obj
 0001:000034df       ?AddString@CParseBuffer@CRegParser@ATL@@QAEHPB_W@Z 100044df f i ElectronicValueRW.obj
 0001:00003514       ?AddTermFunc@CAtlModule@ATL@@QAEJP6GXK@ZK@Z 10004514 f i ElectronicValueRW.obj
 0001:00003577       ?AddValue@CRegParser@ATL@@IAEJAAVCRegKey@2@PB_WPA_W@Z 10004577 f i ElectronicValueRW.obj
 0001:00003891       ?Allocate@?$CAtlSafeAllocBufferManager@VCCRTAllocator@ATL@@@_ATL_SAFE_ALLOCA_IMPL@ATL@@QAEPAXK@Z 10004891 f i ElectronicValueRW.obj
 0001:000038be       ?Allocate@?$CTempBuffer@E$0BAA@VCCRTAllocator@ATL@@@ATL@@QAEPAEI@Z 100048be f i ElectronicValueRW.obj
 0001:000038ed       ?Allocate@?$CTempBuffer@_W$0BAA@VCCRTAllocator@ATL@@@ATL@@QAEPA_WI@Z 100048ed f i ElectronicValueRW.obj
 0001:0000391c       ?Allocate@?$CTempBuffer@_W$0EAA@VCCRTAllocator@ATL@@@ATL@@QAEPA_WI@Z 1000491c f i ElectronicValueRW.obj
 0001:0000394b       ?AllocateHeap@?$CTempBuffer@_W$0EAA@VCCRTAllocator@ATL@@@ATL@@AAEXI@Z 1000494b f i ElectronicValueRW.obj
 0001:0000394b       ?AllocateHeap@?$CTempBuffer@E$0BAA@VCCRTAllocator@ATL@@@ATL@@AAEXI@Z 1000494b f i ElectronicValueRW.obj
 0001:0000394b       ?AllocateHeap@?$CTempBuffer@_W$0BAA@VCCRTAllocator@ATL@@@ATL@@AAEXI@Z 1000494b f i ElectronicValueRW.obj
 0001:00003970       ?Append@CParseBuffer@CRegParser@ATL@@QAEHPB_WH@Z 10004970 f i ElectronicValueRW.obj
 0001:000039fe       ?AtlCoTaskMemCAlloc@ATL@@YAPAXKK@Z 100049fe f i ElectronicValueRW.obj
 0001:00003a2b       ?AtlCoTaskMemRecalloc@ATL@@YAPAXPAXKK@Z 10004a2b f i ElectronicValueRW.obj
 0001:00003a5b       ?AtlComModuleGetClassObject@ATL@@YGJPAU_ATL_COM_MODULE70@1@ABU_GUID@@1PAPAX@Z 10004a5b f i ElectronicValueRW.obj
 0001:00003b4e       ?AtlComModuleRegisterServer@ATL@@YGJPAU_ATL_COM_MODULE70@1@HPBU_GUID@@@Z 10004b4e f i ElectronicValueRW.obj
 0001:00003bd6       ?AtlComModuleUnregisterServer@ATL@@YGJPAU_ATL_COM_MODULE70@1@HPBU_GUID@@@Z 10004bd6 f i ElectronicValueRW.obj
 0001:00003c5e       ?AtlComQIPtrAssign2@ATL@@YAXPAPAUIUnknown@@PAU2@ABU_GUID@@@Z 10004c5e f i ElectronicValueRW.obj
 0001:00003c8d       ?AtlCreateTargetDC@ATL@@YGPAUHDC__@@PAU2@PAUtagDVTARGETDEVICE@@@Z 10004c8d f i ElectronicValueRW.obj
 0001:00003cf6       ?AtlCrtErrorCheck@ATL@@YAHH@Z 10004cf6 f i ElectronicValueRW.obj
 0001:00003d31       ?AtlHiMetricToPixel@ATL@@YGXPBUtagSIZE@@PAU2@@Z 10004d31 f i ElectronicValueRW.obj
 0001:00003da6       ?AtlHresultFromLastError@ATL@@YAJXZ 10004da6 f i ElectronicValueRW.obj
 0001:00003dbd       ?AtlHresultFromWin32@ATL@@YAJK@Z 10004dbd f i ElectronicValueRW.obj
 0001:00003dd2       ?AtlInternalOleLoadFromStream@ATL@@YAJPAUIStream@@ABU_GUID@@PAPAXTClassesAllowedInStream@1@K@Z 10004dd2 f i ElectronicValueRW.obj
 0001:00003ef8       ?AtlInternalQueryInterface@ATL@@YGJPAXPBU_ATL_INTMAP_ENTRY@1@ABU_GUID@@PAPAX@Z 10004ef8 f i ElectronicValueRW.obj
 0001:00003f9b       ?AtlLoadTypeLib@ATL@@YGJPAUHINSTANCE__@@PB_WPAPA_WPAPAUITypeLib@@@Z 10004f9b f i ElectronicValueRW.obj
 0001:00004179       ?AtlRegisterClassCategoriesHelper@ATL@@YGJABU_GUID@@PBU_ATL_CATMAP_ENTRY@1@H@Z 10005179 f i ElectronicValueRW.obj
 0001:00004475       ?AtlRegisterTypeLib@ATL@@YGJPAUHINSTANCE__@@PB_W@Z 10005475 f i ElectronicValueRW.obj
 0001:000045fd       ?AtlThrowImpl@ATL@@YGXJ@Z  100055fd f i ElectronicValueRW.obj
 0001:0000461b       ?AtlUnRegisterTypeLib@ATL@@YGJPAUHINSTANCE__@@PB_W@Z 1000561b f i ElectronicValueRW.obj
 0001:000046c6       ?AtlWinModuleAddCreateWndData@ATL@@YGXPAU_ATL_WIN_MODULE70@1@PAU_AtlCreateWndData@1@PAX@Z 100056c6 f i ElectronicValueRW.obj
 0001:0000471a       ?AtlWinModuleExtractCreateWndData@ATL@@YGPAXPAU_ATL_WIN_MODULE70@1@@Z 1000571a f i ElectronicValueRW.obj
 0001:0000477d       ?AtlWinModuleRegisterClassExW@ATL@@YGGPAU_ATL_WIN_MODULE70@1@PBUtagWNDCLASSEXW@@@Z 1000577d f i ElectronicValueRW.obj
 0001:000047bc       ?CanForceRemoveKey@CRegParser@ATL@@IAEHPB_W@Z 100057bc f i ElectronicValueRW.obj
 0001:000047eb       ?ChToByte@CRegParser@ATL@@KAE_W@Z 100057eb f i ElectronicValueRW.obj
 0001:0000481e       ?Cleanup@CComTypeInfoHolder@ATL@@SGXK@Z 1000581e f i ElectronicValueRW.obj
 0001:00004851       ?ClearReplacements@CExpansionVector@ATL@@QAEJXZ 10005851 f i ElectronicValueRW.obj
 0001:0000488e       ?Close@CRegKey@ATL@@QAEJXZ 1000588e f i ElectronicValueRW.obj
 0001:000048a8       ?CreateInstance@?$CComCreator@V?$CComAggObject@VCOPOSElectronicValueRW@@@ATL@@@ATL@@SGJPAXABU_GUID@@PAPAX@Z 100058a8 f i ElectronicValueRW.obj
 0001:0000491e       ?CreateInstance@?$CComCreator@V?$CComObject@VCOPOSElectronicValueRW@@@ATL@@@ATL@@SGJPAXABU_GUID@@PAPAX@Z 1000591e f i ElectronicValueRW.obj
 0001:0000499f       ?CreateInstance@?$CComObject@V?$CComEnum@UIEnumConnectionPoints@@$1?_GUID_b196b285_bab4_101a_b69c_00aa00341d07@@3U__s_GUID@@BPAUIConnectionPoint@@V?$_CopyInterface@UIConnectionPoint@@@ATL@@VCComSingleThreadModel@6@@ATL@@@ATL@@SGJPAPAV12@@Z 1000599f f i ElectronicValueRW.obj
 0001:000049e6       ?CreateInstance@?$CComObject@V?$CComEnum@UIEnumConnections@@$1?_GUID_b196b287_bab4_101a_b69c_00aa00341d07@@3U__s_GUID@@BUtagCONNECTDATA@@V?$_Copy@UtagCONNECTDATA@@@ATL@@VCComSingleThreadModel@6@@ATL@@@ATL@@SGJPAPAV12@@Z 100059e6 f i ElectronicValueRW.obj
 0001:00004a2d       ?DefaultReflectionHandler@?$CWindowImplRoot@VCWindow@ATL@@@ATL@@SAHPAUHWND__@@IIJAAJ@Z 10005a2d f i ElectronicValueRW.obj
 0001:00004aa0       ?DeleteSubKey@CRegKey@ATL@@QAEJPB_W@Z 10005aa0 f i ElectronicValueRW.obj
 0001:00004b19       ?DoEvent@COPOSElectronicValueRW@@IAEXIIJ@Z 10005b19 f i ElectronicValueRW.obj
 0001:00004b99       ?DoVerbHide@?$IOleObjectImpl@VCOPOSElectronicValueRW@@@ATL@@QAEJPBUtagRECT@@PAUHWND__@@@Z 10005b99 f i ElectronicValueRW.obj
 0001:00004bcf       ?DoVerbInPlaceActivate@?$IOleObjectImpl@VCOPOSElectronicValueRW@@@ATL@@QAEJPBUtagRECT@@PAUHWND__@@@Z 10005bcf f i ElectronicValueRW.obj
 0001:00004c02       ?DoVerbPrimary@?$IOleObjectImpl@VCOPOSElectronicValueRW@@@ATL@@QAEJPBUtagRECT@@PAUHWND__@@@Z 10005c02 f i ElectronicValueRW.obj
 0001:00004c8e       ?DoVerbProperties@CComControlBase@ATL@@QAEJPBUtagRECT@@PAUHWND__@@@Z 10005c8e f i ElectronicValueRW.obj
 0001:00004e0d       ?DoVerbUIActivate@?$IOleObjectImpl@VCOPOSElectronicValueRW@@@ATL@@QAEJPBUtagRECT@@PAUHWND__@@@Z 10005e0d f i ElectronicValueRW.obj
 0001:00004e4a       ?DoesVerbActivate@CComControlBase@ATL@@QAEHJ@Z 10005e4a f i ElectronicValueRW.obj
 0001:00004e6b       ?DoesVerbUIActivate@CComControlBase@ATL@@QAEHJ@Z 10005e6b f i ElectronicValueRW.obj
 0001:00004ea0       ?EndOfVar@CRegParser@ATL@@IAEHXZ 10005ea0 f i ElectronicValueRW.obj
 0001:00004ec0       ?EscapeSingleQuote@CAtlModule@ATL@@SAXPA_WIPB_W@Z 10005ec0 f i ElectronicValueRW.obj
 0001:00004f0f       ?FindKey@?$CSimpleMap@PA_WPA_WVCExpansionVectorEqualHelper@ATL@@@ATL@@QBEHABQA_W@Z 10005f0f f i ElectronicValueRW.obj
 0001:00004f46       ?FireTheEvent@?$CProxy_IOPOSEvents@VCOPOSElectronicValueRW@@@@IAEXPAVOposVariant@@IAAJPB_WJ@Z 10005f46 f i ElectronicValueRW.obj
 0001:00004fd8       ?FireViewChange@CComControlBase@ATL@@QAEJXZ 10005fd8 f i ElectronicValueRW.obj
 0001:00005021       ?Fire_DataEvent@?$CProxy_IOPOSEvents@VCOPOSElectronicValueRW@@@@QAEXJ@Z 10006021 f i ElectronicValueRW.obj
 0001:000050b4       ?Fire_DirectIOEvent@?$CProxy_IOPOSEvents@VCOPOSElectronicValueRW@@@@QAEXJPAJPAPA_W@Z 100060b4 f i ElectronicValueRW.obj
 0001:0000519d       ?Fire_ErrorEvent@?$CProxy_IOPOSEvents@VCOPOSElectronicValueRW@@@@QAEXJJJPAJ@Z 1000619d f i ElectronicValueRW.obj
 0001:00005287       ?Fire_OutputCompleteEvent@?$CProxy_IOPOSEvents@VCOPOSElectronicValueRW@@@@QAEXJ@Z 10006287 f i ElectronicValueRW.obj
 0001:0000531a       ?Fire_StatusUpdateEvent@?$CProxy_IOPOSEvents@VCOPOSElectronicValueRW@@@@QAEXJ@Z 1000631a f i ElectronicValueRW.obj
 0001:000053ad       ?Fire_TransitionEvent@?$CProxy_IOPOSEvents@VCOPOSElectronicValueRW@@@@QAEXJPAJPAPA_W@Z 100063ad f i ElectronicValueRW.obj
 0001:00005496       ?FreeHeap@?$CTempBuffer@_W$0BAA@VCCRTAllocator@ATL@@@ATL@@AAEXXZ 10006496 f i ElectronicValueRW.obj
 0001:00005496       ?FreeHeap@?$CTempBuffer@_W$0EAA@VCCRTAllocator@ATL@@@ATL@@AAEXXZ 10006496 f i ElectronicValueRW.obj
 0001:00005496       ?FreeHeap@?$CTempBuffer@E$0BAA@VCCRTAllocator@ATL@@@ATL@@AAEXXZ 10006496 f i ElectronicValueRW.obj
 0001:0000549f       ?GetAmbientLocaleID@CComControlBase@ATL@@QAEJAAK@Z 1000649f f i ElectronicValueRW.obj
 0001:000054fb       ?GetAmbientUserMode@CComControlBase@ATL@@QAEJAAH@Z 100064fb f i ElectronicValueRW.obj
 0001:0000556b       ?GetAt@CComDynamicUnkArray@ATL@@QAEPAUIUnknown@@H@Z 1000656b f i ElectronicValueRW.obj
 0001:00005587       ?GetClassObject@CComModule@ATL@@QAEJABU_GUID@@0PAPAX@Z 10006587 f i ElectronicValueRW.obj
 0001:00005629       ?GetConnMap@COPOSElectronicValueRW@@SAPBU_ATL_CONNMAP_ENTRY@ATL@@PAH@Z 10006629 f i ElectronicValueRW.obj
 0001:00005699       ?GetCookie@CComDynamicUnkArray@ATL@@QAGKPAPAUIUnknown@@@Z 10006699 f i ElectronicValueRW.obj
 0001:000056d1       ?GetIDsOfNames@CComTypeInfoHolder@ATL@@QAEJABU_GUID@@PAPA_WIKPAJ@Z 100066d1 f i ElectronicValueRW.obj
 0001:000057f8       ?GetKeyAt@?$CSimpleMap@PA_WPA_WVCExpansionVectorEqualHelper@ATL@@@ATL@@QBEAAPA_WH@Z 100067f8 f i ElectronicValueRW.obj
 0001:0000581d       ?GetPagesHelper@?$ISpecifyPropertyPagesImpl@VCOPOSElectronicValueRW@@@ATL@@IAEJPAUtagCAUUID@@PBUATL_PROPMAP_ENTRY@2@@Z 1000681d f i ElectronicValueRW.obj
 0001:00005944       ?GetProperty@?$CComPtr@UIDispatch@@@ATL@@SAJPAUIDispatch@@JPAUtagVARIANT@@@Z 10006944 f i ElectronicValueRW.obj
 0001:00005993       ?GetSizeMax@CComVariant@ATL@@QBEJPAT_ULARGE_INTEGER@@@Z 10006993 f i ElectronicValueRW.obj
 0001:00005b59       ?GetTI@CComTypeInfoHolder@ATL@@QAEJK@Z 10006b59 f i ElectronicValueRW.obj
 0001:00005d38       ?GetTI@CComTypeInfoHolder@ATL@@QAEJKPAPAUITypeInfo@@@Z 10006d38 f i ElectronicValueRW.obj
 0001:00005d7a       ?GetUnknown@CComDynamicUnkArray@ATL@@QAGPAUIUnknown@@K@Z 10006d7a f i ElectronicValueRW.obj
 0001:00005d9b       ?GetValueAt@?$CSimpleMap@PA_WPA_WVCExpansionVectorEqualHelper@ATL@@@ATL@@QBEAAPA_WH@Z 10006d9b f i ElectronicValueRW.obj
 0001:00005dc1       ?GetZoomInfo@CComControlBase@ATL@@QAEXAAUATL_DRAWINFO@@@Z 10006dc1 f i ElectronicValueRW.obj
 0001:00005e54       ?HKeyFromString@CRegParser@ATL@@KAPAUHKEY__@@PA_W@Z 10006e54 f i ElectronicValueRW.obj
 0001:00005e82       ?HasSubKeys@CRegParser@ATL@@IAEHPAUHKEY__@@@Z 10006e82 f i ElectronicValueRW.obj
 0001:00005eb7       ?IDataObject_GetData@CComControlBase@ATL@@QAEJPAUtagFORMATETC@@PAUtagSTGMEDIUM@@@Z 10006eb7 f i ElectronicValueRW.obj
 0001:0000605d       ?IOleInPlaceObject_InPlaceDeactivate@CComControlBase@ATL@@QAEJXZ 1000705d f i ElectronicValueRW.obj
 0001:000060e4       ?IOleInPlaceObject_SetObjectRects@CComControlBase@ATL@@QAEJPBUtagRECT@@0@Z 100070e4 f i ElectronicValueRW.obj
 0001:000061b1       ?IOleInPlaceObject_UIDeactivate@CComControlBase@ATL@@QAEJXZ 100071b1 f i ElectronicValueRW.obj
 0001:00006273       ?IOleObject_Advise@CComControlBase@ATL@@QAEJPAUIAdviseSink@@PAK@Z 10007273 f i ElectronicValueRW.obj
 0001:0000629d       ?IOleObject_Close@CComControlBase@ATL@@QAEJK@Z 1000729d f i ElectronicValueRW.obj
 0001:00006381       ?IOleObject_GetClientSite@CComControlBase@ATL@@QAEJPAPAUIOleClientSite@@@Z 10007381 f i ElectronicValueRW.obj
 0001:000063aa       ?IOleObject_SetClientSite@CComControlBase@ATL@@QAEJPAUIOleClientSite@@@Z 100073aa f i ElectronicValueRW.obj
 0001:000063e9       ?IOleObject_SetExtent@CComControlBase@ATL@@QAEJKPAUtagSIZE@@@Z 100073e9 f i ElectronicValueRW.obj
 0001:0000649d       ?IPSI_GetIPersistStreamInit@?$IPersistStorageImpl@VCOPOSElectronicValueRW@@@ATL@@AAEPAUIPersistStreamInit@@XZ 1000749d f i ElectronicValueRW.obj
 0001:00006545       ?IPersistStreamInit_Load@?$IPersistStreamInitImpl@VCOPOSElectronicValueRW@@@ATL@@QAEJPAUIStream@@PBUATL_PROPMAP_ENTRY@2@@Z 10007545 f i ElectronicValueRW.obj
 0001:000067c1       ?IPersistStreamInit_Save@?$IPersistStreamInitImpl@VCOPOSElectronicValueRW@@@ATL@@QAEJPAUIStream@@HPBUATL_PROPMAP_ENTRY@2@@Z 100077c1 f i ElectronicValueRW.obj
 0001:000069af       ?IQuickActivate_QuickActivate@CComControlBase@ATL@@QAEJPAUtagQACONTAINER@@PAUtagQACONTROL@@@Z 100079af f i ElectronicValueRW.obj
 0001:00006bf1       ?IViewObject_Draw@CComControlBase@ATL@@QAEJKJPAXPAUtagDVTARGETDEVICE@@PAUHDC__@@2PBU_RECTL@@3@Z 10007bf1 f i ElectronicValueRW.obj
 0001:00006c99       ?InPlaceActivate@CComControlBase@ATL@@QAEJJPBUtagRECT@@@Z 10007c99 f i ElectronicValueRW.obj
 0001:00006f0a       ?Init@?$CComEnumImpl@UIEnumConnectionPoints@@$1?_GUID_b196b285_bab4_101a_b69c_00aa00341d07@@3U__s_GUID@@BPAUIConnectionPoint@@V?$_CopyInterface@UIConnectionPoint@@@ATL@@@ATL@@QAEJPAPAUIConnectionPoint@@0PAUIUnknown@@W4CComEnumFlags@2@@Z 10007f0a f i ElectronicValueRW.obj
 0001:00006fe9       ?Init@?$CComEnumImpl@UIEnumConnections@@$1?_GUID_b196b287_bab4_101a_b69c_00aa00341d07@@3U__s_GUID@@BUtagCONNECTDATA@@V?$_Copy@UtagCONNECTDATA@@@ATL@@@ATL@@QAEJPAUtagCONNECTDATA@@0PAUIUnknown@@W4CComEnumFlags@2@@Z 10007fe9 f i ElectronicValueRW.obj
 0001:000070c8       ?Init@CComModule@ATL@@QAEJPAU_ATL_OBJMAP_ENTRY30@2@PAUHINSTANCE__@@PBU_GUID@@@Z 100080c8 f i ElectronicValueRW.obj
 0001:00007127       ?Init@CDynamicStdCallThunk2@ATL@@QAEHKPAX@Z 10008127 f i ElectronicValueRW.obj
 0001:00007152       ?InlineIsEqualUnknown@ATL@@YGHABU_GUID@@@Z 10008152 f i ElectronicValueRW.obj
 0001:0000717a       ?InternalSetAtIndex@?$CSimpleMap@PA_WPA_WVCExpansionVectorEqualHelper@ATL@@@ATL@@QAEXHABQA_W0@Z 1000817a f i ElectronicValueRW.obj
 0001:000071a4       ?Invoke@CComTypeInfoHolder@ATL@@QAEJPAUIDispatch@@JABU_GUID@@KGPAUtagDISPPARAMS@@PAUtagVARIANT@@PAUtagEXCEPINFO@@PAI@Z 100081a4 f i ElectronicValueRW.obj
 0001:000071e7       ?IsEqualObject@?$CComPtrBase@UITypeInfo@@@ATL@@QAE_NPAUIUnknown@@@Z 100081e7 f i ElectronicValueRW.obj
 0001:000071e7       ?IsEqualObject@?$CComPtrBase@UIOleClientSite@@@ATL@@QAE_NPAUIUnknown@@@Z 100081e7 f i ElectronicValueRW.obj
 0001:00007254       ?IsSpace@CRegParser@ATL@@IAEH_W@Z 10008254 f i ElectronicValueRW.obj
 0001:0000727e       ?LoadNameCache@CComTypeInfoHolder@ATL@@QAEJPAUITypeInfo@@@Z 1000827e f i ElectronicValueRW.obj
 0001:000073ca       ?Lookup@?$CSimpleMap@PA_WPA_WVCExpansionVectorEqualHelper@ATL@@@ATL@@QBEPA_WABQA_W@Z 100083ca f i ElectronicValueRW.obj
 0001:000073f0       ?NextToken@CRegParser@ATL@@IAEJPA_W@Z 100083f0 f i ElectronicValueRW.obj
 0001:00007528       ?OnKillFocus@CComControlBase@ATL@@QAEJIIJAAH@Z 10008528 f i ElectronicValueRW.obj
 0001:00007583       ?OnMouseActivate@CComControlBase@ATL@@QAEJIIJAAH@Z 10008583 f i ElectronicValueRW.obj
 0001:000075f1       ?OnPaint@CComControlBase@ATL@@QAEJIIJAAH@Z 100085f1 f i ElectronicValueRW.obj
 0001:000076a3       ?OnSetFocus@CComControlBase@ATL@@QAEJIIJAAH@Z 100086a3 f i ElectronicValueRW.obj
 0001:0000772c       ?Open@CRegKey@ATL@@QAEJPAUHKEY__@@PB_WK@Z 1000872c f i ElectronicValueRW.obj
 0001:00007781       ?PreProcessBuffer@CRegParser@ATL@@QAEJPA_WPAPA_W@Z 10008781 f i ElectronicValueRW.obj
 0001:000079eb       ?ProcessWindowMessage@?$CComControl@VCOPOSElectronicValueRW@@V?$CWindowImpl@VCOPOSElectronicValueRW@@VCWindow@ATL@@V?$CWinTraits@$0FGAAAAAA@$0A@@3@@ATL@@@ATL@@UAEHPAUHWND__@@IIJAAJK@Z 100089eb f i ElectronicValueRW.obj
 0001:00007a8a       ?ReadFromStream@CComBSTR@ATL@@QAEJPAUIStream@@@Z 10008a8a f i ElectronicValueRW.obj
 0001:00007bb8       ?ReadFromStream@CComVariant@ATL@@QAEJPAUIStream@@GTClassesAllowedInStream@2@K@Z 10008bb8 f i ElectronicValueRW.obj
 0001:00007d3e       ?RecurseDeleteKey@CRegKey@ATL@@QAEJPB_W@Z 10008d3e f i ElectronicValueRW.obj
 0001:00007e2c       ?RegCreateKeyExW@CAtlTransactionManager@ATL@@QAEJPAUHKEY__@@PB_WKPA_WKKQAU_SECURITY_ATTRIBUTES@@PAPAU3@PAK@Z 10008e2c f i ElectronicValueRW.obj
 0001:00007e8f       ?RegDeleteKeyW@CAtlTransactionManager@ATL@@QAEJPAUHKEY__@@PB_W@Z 10008e8f f i ElectronicValueRW.obj
 0001:00007ee1       ?RegOpenKeyExW@CAtlTransactionManager@ATL@@QAEJPAUHKEY__@@PB_WKKPAPAU3@@Z 10008ee1 f i ElectronicValueRW.obj
 0001:00007f38       ?Register@_ATL_WNDCLASSINFOW@ATL@@QAEGPAP6GJPAUHWND__@@IIJ@Z@Z 10008f38 f i ElectronicValueRW.obj
 0001:00007f58       ?RegisterBuffer@CRegParser@ATL@@QAEJPA_WH@Z 10008f58 f i ElectronicValueRW.obj
 0001:00008091       ?RegisterFromResource@CRegObject@ATL@@IAEJPB_W00H@Z 10009091 f i ElectronicValueRW.obj
 0001:000081c7       ?RegisterServer@?$CAtlModuleT@VCComModule@ATL@@@ATL@@QAEJHPBU_GUID@@@Z 100091c7 f i ElectronicValueRW.obj
 0001:000081f5       ?RegisterServer@CComModule@ATL@@QAEJHPBU_GUID@@@Z 100091f5 f i ElectronicValueRW.obj
 0001:0000826b       ?RegisterSubkeys@CRegParser@ATL@@IAEJPA_WPAUHKEY__@@HH@Z 1000926b f i ElectronicValueRW.obj
 0001:00008912       ?Remove@CComDynamicUnkArray@ATL@@QAEHK@Z 10009912 f i ElectronicValueRW.obj
 0001:0000893b       ?RemoveAll@?$CSimpleMap@PA_WPA_WVCExpansionVectorEqualHelper@ATL@@@ATL@@QAEXXZ 1000993b f i ElectronicValueRW.obj
 0001:00008967       ?ResourceRegisterSz@CRegObject@ATL@@QAGJPB_W00@Z 10009967 f i ElectronicValueRW.obj
 0001:00008994       ?ResourceUnregisterSz@CRegObject@ATL@@QAGJPB_W00@Z 10009994 f i ElectronicValueRW.obj
 0001:000089c1       ?SendOnDataChange@CComControlBase@ATL@@QAEJK@Z 100099c1 f i ElectronicValueRW.obj
 0001:00008a0e       ?SetControlFocus@CComControlBase@ATL@@QAEHH@Z 10009a0e f i ElectronicValueRW.obj
 0001:00008aab       ?SetMultiStringValue@CRegKey@ATL@@QAEJPB_W0@Z 10009aab f i ElectronicValueRW.obj
 0001:00008b07       ?SetStringValue@CRegKey@ATL@@QAEJPB_W0K@Z 10009b07 f i ElectronicValueRW.obj
 0001:00008b50       ?SkipAssignment@CRegParser@ATL@@IAEJPA_W@Z 10009b50 f i ElectronicValueRW.obj
 0001:00008bb5       ?SkipWhiteSpace@CRegParser@ATL@@IAEXXZ 10009bb5 f i ElectronicValueRW.obj
 0001:00008bd7       ?StrChrW@CRegParser@ATL@@KAPA_WPA_W_W@Z 10009bd7 f i ElectronicValueRW.obj
 0001:00008c14       ?Term@CAtlModule@ATL@@QAEXXZ 10009c14 f i ElectronicValueRW.obj
 0001:00008c67       ?Term@CComModule@ATL@@QAEXXZ 10009c67 f i ElectronicValueRW.obj
 0001:00008cbf       ?UnregisterServer@?$CAtlModuleT@VCComModule@ATL@@@ATL@@QAEJHPBU_GUID@@@Z 10009cbf f i ElectronicValueRW.obj
 0001:00008ce5       ?UnregisterServer@CComModule@ATL@@QAEJHPBU_GUID@@@Z 10009ce5 f i ElectronicValueRW.obj
 0001:00008d5b       ?UpdateRegistryFromResource@CAtlModule@ATL@@QAGJIHPAU_ATL_REGMAP_ENTRY@2@@Z 10009d5b f i ElectronicValueRW.obj
 0001:00008f26       ?UpdateRegistryFromResource@CAtlModule@ATL@@QAGJPB_WHPAU_ATL_REGMAP_ENTRY@2@@Z 10009f26 f i ElectronicValueRW.obj
 0001:000090f7       ?VTFromRegType@CRegParser@ATL@@KAHPB_WAAG@Z 1000a0f7 f i ElectronicValueRW.obj
 0001:00009164       ?WindowProc@?$CWindowImplBaseT@VCWindow@ATL@@V?$CWinTraits@$0FGAAAAAA@$0A@@2@@ATL@@SGJPAUHWND__@@IIJ@Z 1000a164 f i ElectronicValueRW.obj
 0001:00009256       ?WriteToStream@CComBSTR@ATL@@QAEJPAUIStream@@@Z 1000a256 f i ElectronicValueRW.obj
 0001:000092b8       ?WriteToStream@CComVariant@ATL@@QAEJPAUIStream@@@Z 1000a2b8 f i ElectronicValueRW.obj
 0001:00009432       ?WriteToStream@CComVariant@ATL@@QAEJPAUIStream@@G@Z 1000a432 f i ElectronicValueRW.obj
 0001:0000949b       ?_AtlInitialConstruct@?$CComObjectRootEx@VCComMultiThreadModel@ATL@@@ATL@@QAEJXZ 1000a49b f i ElectronicValueRW.obj
 0001:000094b0       ?_AtlVerifyStackAvailable@_ATL_SAFE_ALLOCA_IMPL@ATL@@YA_NK@Z 1000a4b0 f i ElectronicValueRW.obj
 0001:0000952e       ?atlCreate@?$CWindowImpl@VCOPOSElectronicValueRW@@VCWindow@ATL@@V?$CWinTraits@$0FGAAAAAA@$0A@@3@@ATL@@QAEPAUHWND__@@PAU3@V_U_RECT@2@PB_WKKV_U_MENUorID@2@PAX@Z 1000a52e f i ElectronicValueRW.obj
 0001:00009572       ?atlCreate@?$CWindowImplBaseT@VCWindow@ATL@@V?$CWinTraits@$0FGAAAAAA@$0A@@2@@ATL@@QAEPAUHWND__@@PAU3@V_U_RECT@2@PB_WKKV_U_MENUorID@2@GPAX@Z 1000a572 f i ElectronicValueRW.obj
 0001:0000960e       ?copy@?$_Copy@UtagCONNECTDATA@@@ATL@@SAJPAUtagCONNECTDATA@@PBU3@@Z 1000a60e f i ElectronicValueRW.obj
 0001:00009644       ?copy@?$_CopyInterface@UIConnectionPoint@@@ATL@@SAJPAPAUIConnectionPoint@@PBQAU3@@Z 1000a644 f i ElectronicValueRW.obj
 0001:00009672       ?memcpy_s@Checked@ATL@@YAXPAXIPBXI@Z 1000a672 f i ElectronicValueRW.obj
 0001:00009691       ?ocscpy_s@@YA_NPA_WIPB_W@Z 1000a691 f i ElectronicValueRW.obj
 0001:000096db       ?wcscpy_s@Checked@ATL@@YAXPA_WIPB_W@Z 1000a6db f i ElectronicValueRW.obj
 0001:000096f7       _DllCanUnloadNow@0         1000a6f7 f   ElectronicValueRW.obj
 0001:00009703       _DllGetClassObject@12      1000a703 f   ElectronicValueRW.obj
 0001:00009711       _DllMain@12                1000a711 f   ElectronicValueRW.obj
 0001:00009753       _DllRegisterServer@0       1000a753 f   ElectronicValueRW.obj
 0001:00009762       _DllUnregisterServer@0     1000a762 f   ElectronicValueRW.obj
 0001:00009771       _InlineIsEqualGUID         1000a771 f i ElectronicValueRW.obj
 0001:000097a1       ___local_stdio_printf_options 1000a7a1 f i ElectronicValueRW.obj
 0001:000097a7       __vswprintf_s_l            1000a7a7 f i ElectronicValueRW.obj
 0001:00009854       _swprintf_s                1000a854 f i ElectronicValueRW.obj
 0001:00009870       ??0?$CComControl@VCOPOSElectronicValueRW@@V?$CWindowImpl@VCOPOSElectronicValueRW@@VCWindow@ATL@@V?$CWinTraits@$0FGAAAAAA@$0A@@3@@ATL@@@ATL@@QAE@XZ 1000a870 f i ElectronicValueRWImpl.obj
 0001:00009897       ??0?$CProxy_IOPOSEvents@VCOPOSElectronicValueRW@@@@QAE@XZ 1000a897 f i ElectronicValueRWImpl.obj
 0001:000098bd       ??0CComControlBase@ATL@@QAE@AAPAUHWND__@@@Z 1000a8bd f i ElectronicValueRWImpl.obj
 0001:00009907       ??0COPOSElectronicValueRW@@QAE@XZ 1000a907 f   ElectronicValueRWImpl.obj
 0001:0000993d       ??1?$CComControl@VCOPOSElectronicValueRW@@V?$CWindowImpl@VCOPOSElectronicValueRW@@VCWindow@ATL@@V?$CWinTraits@$0FGAAAAAA@$0A@@3@@ATL@@@ATL@@UAE@XZ 1000a93d f i ElectronicValueRWImpl.obj
 0001:00009956       ??1?$IConnectionPointImpl@VCOPOSElectronicValueRW@@$1?DIID__IOPOSElectronicValueRWEvents@@3U_GUID@@BVCComDynamicUnkArray@ATL@@@ATL@@QAE@XZ 1000a956 f i ElectronicValueRWImpl.obj
 0001:00009956       ??1?$IConnectionPointImpl@VCOPOSElectronicValueRW@@$1?IID_IPropertyNotifySink@@3U_GUID@@BVCComDynamicUnkArray@ATL@@@ATL@@QAE@XZ 1000a956 f i ElectronicValueRWImpl.obj
 0001:00009993       ??1CComControlBase@ATL@@UAE@XZ 1000a993 f i ElectronicValueRWImpl.obj
 0001:000099f6       ??1COPOSElectronicValueRW@@UAE@XZ 1000a9f6 f   ElectronicValueRWImpl.obj
 0001:00009a3e       ?AccessDailyLog@COPOSElectronicValueRW@@UAGJJJJPAJ@Z 1000aa3e f   ElectronicValueRWImpl.obj
 0001:00009ad4       ?AccessData@COPOSElectronicValueRW@@UAGJJPAJPAPA_W0@Z 1000aad4 f   ElectronicValueRWImpl.obj
 0001:00009b82       ?AccessLog@COPOSElectronicValueRW@@UAGJJJJPAJ@Z 1000ab82 f   ElectronicValueRWImpl.obj
 0001:00009c18       ?ActivateEVService@COPOSElectronicValueRW@@UAGJPAJPAPA_W0@Z 1000ac18 f   ElectronicValueRWImpl.obj
 0001:00009c98       ?ActivateService@COPOSElectronicValueRW@@UAGJPAJPAPA_W0@Z 1000ac98 f   ElectronicValueRWImpl.obj
 0001:00009d18       ?AddValue@COPOSElectronicValueRW@@UAGJJJPAJ@Z 1000ad18 f   ElectronicValueRWImpl.obj
 0001:00009d8c       ?AuthorizeCompletion@COPOSElectronicValueRW@@UAGJJTtagCY@@0JPAJ@Z 1000ad8c f   ElectronicValueRWImpl.obj
 0001:00009e33       ?AuthorizePreSales@COPOSElectronicValueRW@@UAGJJTtagCY@@0JPAJ@Z 1000ae33 f   ElectronicValueRWImpl.obj
 0001:00009eda       ?AuthorizeRefund@COPOSElectronicValueRW@@UAGJJTtagCY@@0JPAJ@Z 1000aeda f   ElectronicValueRWImpl.obj
 0001:00009f81       ?AuthorizeSales@COPOSElectronicValueRW@@UAGJJTtagCY@@0JPAJ@Z 1000af81 f   ElectronicValueRWImpl.obj
 0001:0000a028       ?AuthorizeVoid@COPOSElectronicValueRW@@UAGJJTtagCY@@0JPAJ@Z 1000b028 f   ElectronicValueRWImpl.obj
 0001:0000a0cf       ?AuthorizeVoidPreSales@COPOSElectronicValueRW@@UAGJJTtagCY@@0JPAJ@Z 1000b0cf f   ElectronicValueRWImpl.obj
 0001:0000a176       ?BeginDetection@COPOSElectronicValueRW@@UAGJJJPAJ@Z 1000b176 f   ElectronicValueRWImpl.obj
 0001:0000a1ea       ?BeginRemoval@COPOSElectronicValueRW@@UAGJJPAJ@Z 1000b1ea f   ElectronicValueRWImpl.obj
 0001:0000a239       ?CancelValue@COPOSElectronicValueRW@@UAGJJJPAJ@Z 1000b239 f   ElectronicValueRWImpl.obj
 0001:0000a2ad       ?CaptureCard@COPOSElectronicValueRW@@UAGJPAJ@Z 1000b2ad f   ElectronicValueRWImpl.obj
 0001:0000a2c8       ?CashDeposit@COPOSElectronicValueRW@@UAGJJTtagCY@@JPAJ@Z 1000b2c8 f   ElectronicValueRWImpl.obj
 0001:0000a361       ?CheckCard@COPOSElectronicValueRW@@UAGJJJPAJ@Z 1000b361 f   ElectronicValueRWImpl.obj
 0001:0000a3d5       ?CheckHealth@COPOSElectronicValueRW@@UAGJJPAJ@Z 1000b3d5 f   ElectronicValueRWImpl.obj
 0001:0000a424       ?CheckServiceRegistrationToMedium@COPOSElectronicValueRW@@UAGJJJPAJ@Z 1000b424 f   ElectronicValueRWImpl.obj
 0001:0000a498       ?ClaimDevice@COPOSElectronicValueRW@@UAGJJPAJ@Z 1000b498 f   ElectronicValueRWImpl.obj
 0001:0000a50d       ?ClearInput@COPOSElectronicValueRW@@UAGJPAJ@Z 1000b50d f   ElectronicValueRWImpl.obj
 0001:0000a528       ?ClearInputProperties@COPOSElectronicValueRW@@UAGJPAJ@Z 1000b528 f   ElectronicValueRWImpl.obj
 0001:0000a543       ?ClearOutput@COPOSElectronicValueRW@@UAGJPAJ@Z 1000b543 f   ElectronicValueRWImpl.obj
 0001:0000a55e       ?ClearParameterInformation@COPOSElectronicValueRW@@UAGJPAJ@Z 1000b55e f   ElectronicValueRWImpl.obj
 0001:0000a579       ?Close@COPOSElectronicValueRW@@UAGJPAJ@Z 1000b579 f   ElectronicValueRWImpl.obj
 0001:0000a5e7       ?CloseDailyEVService@COPOSElectronicValueRW@@UAGJPAJPAPA_W0@Z 1000b5e7 f   ElectronicValueRWImpl.obj
 0001:0000a667       ?CompareFirmwareVersion@COPOSElectronicValueRW@@UAGJPA_WPAJ1@Z 1000b667 f   ElectronicValueRWImpl.obj
 0001:0000a6e7       ?DeactivateEVService@COPOSElectronicValueRW@@UAGJPAJPAPA_W0@Z 1000b6e7 f   ElectronicValueRWImpl.obj
 0001:0000a767       ?DirectIO@COPOSElectronicValueRW@@UAGJJPAJPAPA_W0@Z 1000b767 f   ElectronicValueRWImpl.obj
 0001:0000a815       ?DoInvoke@COPOSElectronicValueRW@@IAEJJPAVOposVariant@@IHPAJ_N@Z 1000b815 f   ElectronicValueRWImpl.obj
 0001:0000a8f1       ?EndDetection@COPOSElectronicValueRW@@UAGJPAJ@Z 1000b8f1 f   ElectronicValueRWImpl.obj
 0001:0000a90c       ?EndRemoval@COPOSElectronicValueRW@@UAGJPAJ@Z 1000b90c f   ElectronicValueRWImpl.obj
 0001:0000a927       ?EnumerateCardServices@COPOSElectronicValueRW@@UAGJPAJ@Z 1000b927 f   ElectronicValueRWImpl.obj
 0001:0000a942       ?EventClose@COPOSElectronicValueRW@@IAEXXZ 1000b942 f i ElectronicValueRWImpl.obj
 0001:0000a975       ?EventInit@COPOSElectronicValueRW@@IAEJXZ 1000b975 f i ElectronicValueRWImpl.obj
 0001:0000aa41       ?EventUninit@COPOSElectronicValueRW@@IAEXXZ 1000ba41 f i ElectronicValueRWImpl.obj
 0001:0000aa93       ?EventWindowProc@COPOSElectronicValueRW@@IAGJIIJ@Z 1000ba93 f i ElectronicValueRWImpl.obj
 0001:0000abc8       ?FinalConstruct@COPOSElectronicValueRW@@QAEJXZ 1000bbc8 f   ElectronicValueRWImpl.obj
 0001:0000ac01       ?FireEventCleanup@COPOSElectronicValueRW@@IAEXXZ 1000bc01 f i ElectronicValueRWImpl.obj
 0001:0000ac17       ?FireEventSetup@COPOSElectronicValueRW@@IAE_NXZ 1000bc17 f i ElectronicValueRWImpl.obj
 0001:0000ac4b       ?FreezeEvents@COPOSElectronicValueRW@@MAGJH@Z 1000bc4b f   ElectronicValueRWImpl.obj
 0001:0000acab       ?GetOposProp@COPOSElectronicValueRW@@IAEJJPAFJ@Z 1000bcab f   ElectronicValueRWImpl.obj
 0001:0000acce       ?GetOposProp@COPOSElectronicValueRW@@IAEJJPAJJ@Z 1000bcce f   ElectronicValueRWImpl.obj
 0001:0000ad9d       ?GetOposProp@COPOSElectronicValueRW@@IAEJJPAPA_WJ@Z 1000bd9d f   ElectronicValueRWImpl.obj
 0001:0000ae79       ?LockTerminal@COPOSElectronicValueRW@@UAGJPAJ@Z 1000be79 f   ElectronicValueRWImpl.obj
 0001:0000ae94       ?OnDraw@COPOSElectronicValueRW@@MAEJAAUATL_DRAWINFO@@@Z 1000be94 f   ElectronicValueRWImpl.obj
 0001:0000af34       ?Open@COPOSElectronicValueRW@@UAGJPA_WPAJ@Z 1000bf34 f   ElectronicValueRWImpl.obj
 0001:0000b78e       ?OpenDailyEVService@COPOSElectronicValueRW@@UAGJPAJPAPA_W0@Z 1000c78e f   ElectronicValueRWImpl.obj
 0001:0000b80e       ?QueryLastSuccessfulTransactionResult@COPOSElectronicValueRW@@UAGJPAJ@Z 1000c80e f   ElectronicValueRWImpl.obj
 0001:0000b829       ?ReadValue@COPOSElectronicValueRW@@UAGJJJPAJ@Z 1000c829 f   ElectronicValueRWImpl.obj
 0001:0000b89d       ?RegisterServiceToMedium@COPOSElectronicValueRW@@UAGJJJPAJ@Z 1000c89d f   ElectronicValueRWImpl.obj
 0001:0000b911       ?ReleaseDevice@COPOSElectronicValueRW@@UAGJPAJ@Z 1000c911 f   ElectronicValueRWImpl.obj
 0001:0000b960       ?ResetStatistics@COPOSElectronicValueRW@@UAGJPA_WPAJ@Z 1000c960 f   ElectronicValueRWImpl.obj
 0001:0000b9b7       ?RetrieveResultInformation@COPOSElectronicValueRW@@UAGJPA_WPAPA_WPAJ@Z 1000c9b7 f   ElectronicValueRWImpl.obj
 0001:0000ba37       ?RetrieveStatistics@COPOSElectronicValueRW@@UAGJPAPA_WPAJ@Z 1000ca37 f   ElectronicValueRWImpl.obj
 0001:0000ba8e       ?SOProcessID@COPOSElectronicValueRW@@UAGJPAJ@Z 1000ca8e f   ElectronicValueRWImpl.obj
 0001:0000baa2       ?SetCOFreezeEvents@COPOSElectronicValueRW@@IAEXF@Z 1000caa2 f   ElectronicValueRWImpl.obj
 0001:0000bb42       ?SetOposProp@COPOSElectronicValueRW@@IAEJJJJ@Z 1000cb42 f   ElectronicValueRWImpl.obj
 0001:0000bc39       ?SetOposProp@COPOSElectronicValueRW@@IAEJJPA_WJ@Z 1000cc39 f   ElectronicValueRWImpl.obj
 0001:0000bd3a       ?SetParameterInformation@COPOSElectronicValueRW@@UAGJPA_W0PAJ@Z 1000cd3a f   ElectronicValueRWImpl.obj
 0001:0000bdba       ?SubtractValue@COPOSElectronicValueRW@@UAGJJJPAJ@Z 1000cdba f   ElectronicValueRWImpl.obj
 0001:0000be2e       ?TransactionAccess@COPOSElectronicValueRW@@UAGJJPAJ@Z 1000ce2e f   ElectronicValueRWImpl.obj
 0001:0000be7d       ?UnlockTerminal@COPOSElectronicValueRW@@UAGJPAJ@Z 1000ce7d f   ElectronicValueRWImpl.obj
 0001:0000be98       ?UnregisterServiceToMedium@COPOSElectronicValueRW@@UAGJJJPAJ@Z 1000ce98 f   ElectronicValueRWImpl.obj
 0001:0000bf0c       ?UpdateData@COPOSElectronicValueRW@@UAGJJPAJPAPA_W0@Z 1000cf0c f   ElectronicValueRWImpl.obj
 0001:0000bfba       ?UpdateFirmware@COPOSElectronicValueRW@@UAGJPA_WPAJ@Z 1000cfba f   ElectronicValueRWImpl.obj
 0001:0000c011       ?UpdateKey@COPOSElectronicValueRW@@UAGJPAJPAPA_W0@Z 1000d011 f   ElectronicValueRWImpl.obj
 0001:0000c091       ?UpdateStatistics@COPOSElectronicValueRW@@UAGJPA_WPAJ@Z 1000d091 f   ElectronicValueRWImpl.obj
 0001:0000c0e8       ?WriteValue@COPOSElectronicValueRW@@UAGJJJPAJ@Z 1000d0e8 f   ElectronicValueRWImpl.obj
 0001:0000c15c       ?get_AccountNumber@COPOSElectronicValueRW@@UAGJPAPA_W@Z 1000d15c f   ElectronicValueRWImpl.obj
 0001:0000c175       ?get_AdditionalSecurityInformation@COPOSElectronicValueRW@@UAGJPAPA_W@Z 1000d175 f   ElectronicValueRWImpl.obj
 0001:0000c18e       ?get_Amount@COPOSElectronicValueRW@@UAGJPATtagCY@@@Z 1000d18e f   ElectronicValueRWImpl.obj
 0001:0000c21f       ?get_ApprovalCode@COPOSElectronicValueRW@@UAGJPAPA_W@Z 1000d21f f   ElectronicValueRWImpl.obj
 0001:0000c238       ?get_AsyncMode@COPOSElectronicValueRW@@UAGJPAF@Z 1000d238 f   ElectronicValueRWImpl.obj
 0001:0000c251       ?get_AutoDisable@COPOSElectronicValueRW@@UAGJPAF@Z 1000d251 f   ElectronicValueRWImpl.obj
 0001:0000c267       ?get_Balance@COPOSElectronicValueRW@@UAGJPATtagCY@@@Z 1000d267 f   ElectronicValueRWImpl.obj
 0001:0000c2f8       ?get_BalanceOfPoint@COPOSElectronicValueRW@@UAGJPATtagCY@@@Z 1000d2f8 f   ElectronicValueRWImpl.obj
 0001:0000c389       ?get_BinaryConversion@COPOSElectronicValueRW@@UAGJPAJ@Z 1000d389 f   ElectronicValueRWImpl.obj
 0001:0000c39f       ?get_CapActivateService@COPOSElectronicValueRW@@UAGJPAF@Z 1000d39f f   ElectronicValueRWImpl.obj
 0001:0000c3b8       ?get_CapAddValue@COPOSElectronicValueRW@@UAGJPAF@Z 1000d3b8 f   ElectronicValueRWImpl.obj
 0001:0000c3d1       ?get_CapAdditionalSecurityInformation@COPOSElectronicValueRW@@UAGJPAF@Z 1000d3d1 f   ElectronicValueRWImpl.obj
 0001:0000c3ea       ?get_CapAuthorizeCompletion@COPOSElectronicValueRW@@UAGJPAF@Z 1000d3ea f   ElectronicValueRWImpl.obj
 0001:0000c403       ?get_CapAuthorizePreSales@COPOSElectronicValueRW@@UAGJPAF@Z 1000d403 f   ElectronicValueRWImpl.obj
 0001:0000c41c       ?get_CapAuthorizeRefund@COPOSElectronicValueRW@@UAGJPAF@Z 1000d41c f   ElectronicValueRWImpl.obj
 0001:0000c435       ?get_CapAuthorizeVoid@COPOSElectronicValueRW@@UAGJPAF@Z 1000d435 f   ElectronicValueRWImpl.obj
 0001:0000c44e       ?get_CapAuthorizeVoidPreSales@COPOSElectronicValueRW@@UAGJPAF@Z 1000d44e f   ElectronicValueRWImpl.obj
 0001:0000c467       ?get_CapCancelValue@COPOSElectronicValueRW@@UAGJPAF@Z 1000d467 f   ElectronicValueRWImpl.obj
 0001:0000c480       ?get_CapCardSensor@COPOSElectronicValueRW@@UAGJPAJ@Z 1000d480 f   ElectronicValueRWImpl.obj
 0001:0000c499       ?get_CapCashDeposit@COPOSElectronicValueRW@@UAGJPAF@Z 1000d499 f   ElectronicValueRWImpl.obj
 0001:0000c4b2       ?get_CapCenterResultCode@COPOSElectronicValueRW@@UAGJPAF@Z 1000d4b2 f   ElectronicValueRWImpl.obj
 0001:0000c4cb       ?get_CapCheckCard@COPOSElectronicValueRW@@UAGJPAF@Z 1000d4cb f   ElectronicValueRWImpl.obj
 0001:0000c4e4       ?get_CapCompareFirmwareVersion@COPOSElectronicValueRW@@UAGJPAF@Z 1000d4e4 f   ElectronicValueRWImpl.obj
 0001:0000c4fd       ?get_CapDailyLog@COPOSElectronicValueRW@@UAGJPAJ@Z 1000d4fd f   ElectronicValueRWImpl.obj
 0001:0000c516       ?get_CapDetectionControl@COPOSElectronicValueRW@@UAGJPAJ@Z 1000d516 f   ElectronicValueRWImpl.obj
 0001:0000c52f       ?get_CapElectronicMoney@COPOSElectronicValueRW@@UAGJPAF@Z 1000d52f f   ElectronicValueRWImpl.obj
 0001:0000c548       ?get_CapEnumerateCardServices@COPOSElectronicValueRW@@UAGJPAF@Z 1000d548 f   ElectronicValueRWImpl.obj
 0001:0000c561       ?get_CapIndirectTransactionLog@COPOSElectronicValueRW@@UAGJPAF@Z 1000d561 f   ElectronicValueRWImpl.obj
 0001:0000c57a       ?get_CapInstallments@COPOSElectronicValueRW@@UAGJPAF@Z 1000d57a f   ElectronicValueRWImpl.obj
 0001:0000c593       ?get_CapLockTerminal@COPOSElectronicValueRW@@UAGJPAF@Z 1000d593 f   ElectronicValueRWImpl.obj
 0001:0000c5ac       ?get_CapLogStatus@COPOSElectronicValueRW@@UAGJPAF@Z 1000d5ac f   ElectronicValueRWImpl.obj
 0001:0000c5c5       ?get_CapMediumID@COPOSElectronicValueRW@@UAGJPAF@Z 1000d5c5 f   ElectronicValueRWImpl.obj
 0001:0000c5de       ?get_CapMembershipCertificate@COPOSElectronicValueRW@@UAGJPAF@Z 1000d5de f   ElectronicValueRWImpl.obj
 0001:0000c5f7       ?get_CapPINDevice@COPOSElectronicValueRW@@UAGJPAF@Z 1000d5f7 f   ElectronicValueRWImpl.obj
 0001:0000c610       ?get_CapPaymentDetail@COPOSElectronicValueRW@@UAGJPAF@Z 1000d610 f   ElectronicValueRWImpl.obj
 0001:0000c629       ?get_CapPoint@COPOSElectronicValueRW@@UAGJPAF@Z 1000d629 f   ElectronicValueRWImpl.obj
 0001:0000c642       ?get_CapPowerReporting@COPOSElectronicValueRW@@UAGJPAJ@Z 1000d642 f   ElectronicValueRWImpl.obj
 0001:0000c65b       ?get_CapStatisticsReporting@COPOSElectronicValueRW@@UAGJPAF@Z 1000d65b f   ElectronicValueRWImpl.obj
 0001:0000c674       ?get_CapSubtractValue@COPOSElectronicValueRW@@UAGJPAF@Z 1000d674 f   ElectronicValueRWImpl.obj
 0001:0000c68d       ?get_CapTaxOthers@COPOSElectronicValueRW@@UAGJPAF@Z 1000d68d f   ElectronicValueRWImpl.obj
 0001:0000c6a6       ?get_CapTrainingMode@COPOSElectronicValueRW@@UAGJPAF@Z 1000d6a6 f   ElectronicValueRWImpl.obj
 0001:0000c6bf       ?get_CapTransaction@COPOSElectronicValueRW@@UAGJPAF@Z 1000d6bf f   ElectronicValueRWImpl.obj
 0001:0000c6d8       ?get_CapTransactionLog@COPOSElectronicValueRW@@UAGJPAF@Z 1000d6d8 f   ElectronicValueRWImpl.obj
 0001:0000c6f1       ?get_CapTransactionNumber@COPOSElectronicValueRW@@UAGJPAF@Z 1000d6f1 f   ElectronicValueRWImpl.obj
 0001:0000c70a       ?get_CapUnlockTerminal@COPOSElectronicValueRW@@UAGJPAF@Z 1000d70a f   ElectronicValueRWImpl.obj
 0001:0000c723       ?get_CapUpdateFirmware@COPOSElectronicValueRW@@UAGJPAF@Z 1000d723 f   ElectronicValueRWImpl.obj
 0001:0000c73c       ?get_CapUpdateKey@COPOSElectronicValueRW@@UAGJPAF@Z 1000d73c f   ElectronicValueRWImpl.obj
 0001:0000c755       ?get_CapUpdateStatistics@COPOSElectronicValueRW@@UAGJPAF@Z 1000d755 f   ElectronicValueRWImpl.obj
 0001:0000c76e       ?get_CapVoucher@COPOSElectronicValueRW@@UAGJPAF@Z 1000d76e f   ElectronicValueRWImpl.obj
 0001:0000c787       ?get_CapWriteValue@COPOSElectronicValueRW@@UAGJPAF@Z 1000d787 f   ElectronicValueRWImpl.obj
 0001:0000c7a0       ?get_CardCompanyID@COPOSElectronicValueRW@@UAGJPAPA_W@Z 1000d7a0 f   ElectronicValueRWImpl.obj
 0001:0000c7b9       ?get_CardServiceList@COPOSElectronicValueRW@@UAGJPAPA_W@Z 1000d7b9 f   ElectronicValueRWImpl.obj
 0001:0000c7d2       ?get_CenterResultCode@COPOSElectronicValueRW@@UAGJPAPA_W@Z 1000d7d2 f   ElectronicValueRWImpl.obj
 0001:0000c7eb       ?get_CheckHealthText@COPOSElectronicValueRW@@UAGJPAPA_W@Z 1000d7eb f   ElectronicValueRWImpl.obj
 0001:0000c804       ?get_Claimed@COPOSElectronicValueRW@@UAGJPAF@Z 1000d804 f   ElectronicValueRWImpl.obj
 0001:0000c81a       ?get_ControlObjectDescription@COPOSElectronicValueRW@@UAGJPAPA_W@Z 1000d81a f   ElectronicValueRWImpl.obj
 0001:0000c868       ?get_ControlObjectVersion@COPOSElectronicValueRW@@UAGJPAJ@Z 1000d868 f   ElectronicValueRWImpl.obj
 0001:0000c87b       ?get_CurrentService@COPOSElectronicValueRW@@UAGJPAPA_W@Z 1000d87b f   ElectronicValueRWImpl.obj
 0001:0000c894       ?get_DailyLog@COPOSElectronicValueRW@@UAGJPAPA_W@Z 1000d894 f   ElectronicValueRWImpl.obj
 0001:0000c8ad       ?get_DataCount@COPOSElectronicValueRW@@UAGJPAJ@Z 1000d8ad f   ElectronicValueRWImpl.obj
 0001:0000c8c3       ?get_DataEventEnabled@COPOSElectronicValueRW@@UAGJPAF@Z 1000d8c3 f   ElectronicValueRWImpl.obj
 0001:0000c8d9       ?get_DetectionControl@COPOSElectronicValueRW@@UAGJPAF@Z 1000d8d9 f   ElectronicValueRWImpl.obj
 0001:0000c8f2       ?get_DetectionStatus@COPOSElectronicValueRW@@UAGJPAJ@Z 1000d8f2 f   ElectronicValueRWImpl.obj
 0001:0000c90b       ?get_DeviceDescription@COPOSElectronicValueRW@@UAGJPAPA_W@Z 1000d90b f   ElectronicValueRWImpl.obj
 0001:0000c924       ?get_DeviceEnabled@COPOSElectronicValueRW@@UAGJPAF@Z 1000d924 f   ElectronicValueRWImpl.obj
 0001:0000c93a       ?get_DeviceName@COPOSElectronicValueRW@@UAGJPAPA_W@Z 1000d93a f   ElectronicValueRWImpl.obj
 0001:0000c953       ?get_ExpirationDate@COPOSElectronicValueRW@@UAGJPAPA_W@Z 1000d953 f   ElectronicValueRWImpl.obj
 0001:0000c96c       ?get_FreezeEvents@COPOSElectronicValueRW@@UAGJPAF@Z 1000d96c f   ElectronicValueRWImpl.obj
 0001:0000c982       ?get_LastUsedDate@COPOSElectronicValueRW@@UAGJPAPA_W@Z 1000d982 f   ElectronicValueRWImpl.obj
 0001:0000c99b       ?get_LogStatus@COPOSElectronicValueRW@@UAGJPAJ@Z 1000d99b f   ElectronicValueRWImpl.obj
 0001:0000c9b4       ?get_MediumID@COPOSElectronicValueRW@@UAGJPAPA_W@Z 1000d9b4 f   ElectronicValueRWImpl.obj
 0001:0000c9cd       ?get_OpenResult@COPOSElectronicValueRW@@UAGJPAJ@Z 1000d9cd f   ElectronicValueRWImpl.obj
 0001:0000c9e4       ?get_OutputID@COPOSElectronicValueRW@@UAGJPAJ@Z 1000d9e4 f   ElectronicValueRWImpl.obj
 0001:0000c9fa       ?get_PINEntry@COPOSElectronicValueRW@@UAGJPAJ@Z 1000d9fa f   ElectronicValueRWImpl.obj
 0001:0000ca13       ?get_PaymentCondition@COPOSElectronicValueRW@@UAGJPAJ@Z 1000da13 f   ElectronicValueRWImpl.obj
 0001:0000ca2c       ?get_PaymentDetail@COPOSElectronicValueRW@@UAGJPAPA_W@Z 1000da2c f   ElectronicValueRWImpl.obj
 0001:0000ca45       ?get_PaymentMedia@COPOSElectronicValueRW@@UAGJPAJ@Z 1000da45 f   ElectronicValueRWImpl.obj
 0001:0000ca5e       ?get_Point@COPOSElectronicValueRW@@UAGJPATtagCY@@@Z 1000da5e f   ElectronicValueRWImpl.obj
 0001:0000caef       ?get_PowerNotify@COPOSElectronicValueRW@@UAGJPAJ@Z 1000daef f   ElectronicValueRWImpl.obj
 0001:0000cb05       ?get_PowerState@COPOSElectronicValueRW@@UAGJPAJ@Z 1000db05 f   ElectronicValueRWImpl.obj
 0001:0000cb1b       ?get_ReaderWriterServiceList@COPOSElectronicValueRW@@UAGJPAPA_W@Z 1000db1b f   ElectronicValueRWImpl.obj
 0001:0000cb34       ?get_ResultCode@COPOSElectronicValueRW@@UAGJPAJ@Z 1000db34 f   ElectronicValueRWImpl.obj
 0001:0000cb72       ?get_ResultCodeExtended@COPOSElectronicValueRW@@UAGJPAJ@Z 1000db72 f   ElectronicValueRWImpl.obj
 0001:0000cb88       ?get_SequenceNumber@COPOSElectronicValueRW@@UAGJPAJ@Z 1000db88 f   ElectronicValueRWImpl.obj
 0001:0000cba1       ?get_ServiceObjectDescription@COPOSElectronicValueRW@@UAGJPAPA_W@Z 1000dba1 f   ElectronicValueRWImpl.obj
 0001:0000cbba       ?get_ServiceObjectVersion@COPOSElectronicValueRW@@UAGJPAJ@Z 1000dbba f   ElectronicValueRWImpl.obj
 0001:0000cbd0       ?get_ServiceType@COPOSElectronicValueRW@@UAGJPAJ@Z 1000dbd0 f   ElectronicValueRWImpl.obj
 0001:0000cbe9       ?get_SettledAmount@COPOSElectronicValueRW@@UAGJPATtagCY@@@Z 1000dbe9 f   ElectronicValueRWImpl.obj
 0001:0000cc7a       ?get_SettledPoint@COPOSElectronicValueRW@@UAGJPATtagCY@@@Z 1000dc7a f   ElectronicValueRWImpl.obj
 0001:0000cd0b       ?get_SlipNumber@COPOSElectronicValueRW@@UAGJPAPA_W@Z 1000dd0b f   ElectronicValueRWImpl.obj
 0001:0000cd24       ?get_State@COPOSElectronicValueRW@@UAGJPAJ@Z 1000dd24 f   ElectronicValueRWImpl.obj
 0001:0000cd50       ?get_TrainingModeState@COPOSElectronicValueRW@@UAGJPAJ@Z 1000dd50 f   ElectronicValueRWImpl.obj
 0001:0000cd69       ?get_TransactionLog@COPOSElectronicValueRW@@UAGJPAPA_W@Z 1000dd69 f   ElectronicValueRWImpl.obj
 0001:0000cd82       ?get_TransactionNumber@COPOSElectronicValueRW@@UAGJPAPA_W@Z 1000dd82 f   ElectronicValueRWImpl.obj
 0001:0000cd9b       ?get_TransactionType@COPOSElectronicValueRW@@UAGJPAJ@Z 1000dd9b f   ElectronicValueRWImpl.obj
 0001:0000cdb4       ?get_VoucherID@COPOSElectronicValueRW@@UAGJPAPA_W@Z 1000ddb4 f   ElectronicValueRWImpl.obj
 0001:0000cdcd       ?get_VoucherIDList@COPOSElectronicValueRW@@UAGJPAPA_W@Z 1000ddcd f   ElectronicValueRWImpl.obj
 0001:0000cde6       ?put_AdditionalSecurityInformation@COPOSElectronicValueRW@@UAGJPA_W@Z 1000dde6 f   ElectronicValueRWImpl.obj
 0001:0000cdff       ?put_Amount@COPOSElectronicValueRW@@UAGJTtagCY@@@Z 1000ddff f   ElectronicValueRWImpl.obj
 0001:0000cea0       ?put_ApprovalCode@COPOSElectronicValueRW@@UAGJPA_W@Z 1000dea0 f   ElectronicValueRWImpl.obj
 0001:0000ceb9       ?put_AsyncMode@COPOSElectronicValueRW@@UAGJF@Z 1000deb9 f   ElectronicValueRWImpl.obj
 0001:0000ced9       ?put_AutoDisable@COPOSElectronicValueRW@@UAGJF@Z 1000ded9 f   ElectronicValueRWImpl.obj
 0001:0000cef6       ?put_BinaryConversion@COPOSElectronicValueRW@@UAGJJ@Z 1000def6 f   ElectronicValueRWImpl.obj
 0001:0000cf0c       ?put_CurrentService@COPOSElectronicValueRW@@UAGJPA_W@Z 1000df0c f   ElectronicValueRWImpl.obj
 0001:0000cf25       ?put_DataEventEnabled@COPOSElectronicValueRW@@UAGJF@Z 1000df25 f   ElectronicValueRWImpl.obj
 0001:0000cf42       ?put_DetectionControl@COPOSElectronicValueRW@@UAGJF@Z 1000df42 f   ElectronicValueRWImpl.obj
 0001:0000cf62       ?put_DeviceEnabled@COPOSElectronicValueRW@@UAGJF@Z 1000df62 f   ElectronicValueRWImpl.obj
 0001:0000cf7f       ?put_FreezeEvents@COPOSElectronicValueRW@@UAGJF@Z 1000df7f f   ElectronicValueRWImpl.obj
 0001:0000cfcb       ?put_MediumID@COPOSElectronicValueRW@@UAGJPA_W@Z 1000dfcb f   ElectronicValueRWImpl.obj
 0001:0000cfe4       ?put_PINEntry@COPOSElectronicValueRW@@UAGJJ@Z 1000dfe4 f   ElectronicValueRWImpl.obj
 0001:0000cffd       ?put_PaymentMedia@COPOSElectronicValueRW@@UAGJJ@Z 1000dffd f   ElectronicValueRWImpl.obj
 0001:0000d016       ?put_Point@COPOSElectronicValueRW@@UAGJTtagCY@@@Z 1000e016 f   ElectronicValueRWImpl.obj
 0001:0000d0b7       ?put_PowerNotify@COPOSElectronicValueRW@@UAGJJ@Z 1000e0b7 f   ElectronicValueRWImpl.obj
 0001:0000d0cd       ?put_TrainingModeState@COPOSElectronicValueRW@@UAGJJ@Z 1000e0cd f   ElectronicValueRWImpl.obj
 0001:0000d0e6       ?put_VoucherID@COPOSElectronicValueRW@@UAGJPA_W@Z 1000e0e6 f   ElectronicValueRWImpl.obj
 0001:0000d0ff       ?put_VoucherIDList@COPOSElectronicValueRW@@UAGJPA_W@Z 1000e0ff f   ElectronicValueRWImpl.obj
 0001:0000d118       ?s_EventWindowProc@COPOSElectronicValueRW@@KGJPAUHWND__@@IIJ@Z 1000e118 f i ElectronicValueRWImpl.obj
 0001:0000d16a       ??_U@YAPAXI@Z              1000e16a f   LIBCMT:new_array.obj
 0001:0000d173       ??3@YAXPAXI@Z              1000e173 f   LIBCMT:delete_scalar_size.obj
 0001:0000d181       ??_V@YAXPAX@Z              1000e181 f   LIBCMT:delete_array.obj
 0001:0000d186       ??_V@YAXPAXI@Z             1000e186 f   LIBCMT:delete_array_size.obj
 0001:0000d1d8       ___scrt_acquire_startup_lock 1000e1d8 f   LIBCMT:utility.obj
 0001:0000d20a       ___scrt_dllmain_after_initialize_c 1000e20a f   LIBCMT:utility.obj
 0001:0000d235       ___scrt_dllmain_before_initialize_c 1000e235 f   LIBCMT:utility.obj
 0001:0000d243       ___scrt_dllmain_crt_thread_attach 1000e243 f   LIBCMT:utility.obj
 0001:0000d262       ___scrt_dllmain_crt_thread_detach 1000e262 f   LIBCMT:utility.obj
 0001:0000d26f       ___scrt_dllmain_exception_filter 1000e26f f   LIBCMT:utility.obj
 0001:0000d2a3       ___scrt_dllmain_uninitialize_c 1000e2a3 f   LIBCMT:utility.obj
 0001:0000d2c6       ___scrt_dllmain_uninitialize_critical 1000e2c6 f   LIBCMT:utility.obj
 0001:0000d2d3       ___scrt_initialize_crt     1000e2d3 f   LIBCMT:utility.obj
 0001:0000d30c       ___scrt_initialize_onexit_tables 1000e30c f   LIBCMT:utility.obj
 0001:0000d393       ___scrt_is_nonwritable_in_current_image 1000e393 f   LIBCMT:utility.obj
 0001:0000d427       ___scrt_release_startup_lock 1000e427 f   LIBCMT:utility.obj
 0001:0000d444       ___scrt_uninitialize_crt   1000e444 f   LIBCMT:utility.obj
 0001:0000d46c       __onexit                   1000e46c f   LIBCMT:utility.obj
 0001:0000d499       _atexit                    1000e499 f   LIBCMT:utility.obj
 0001:0000d4ae       ??3@YAXPAX@Z               1000e4ae f   LIBCMT:delete_scalar.obj
 0001:0000d578       __Init_thread_footer       1000e578 f   LIBCMT:thread_safe_statics.obj
 0001:0000d5c2       __Init_thread_header       1000e5c2 f   LIBCMT:thread_safe_statics.obj
 0001:0000d614       __Init_thread_notify       1000e614 f   LIBCMT:thread_safe_statics.obj
 0001:0000d64a       __Init_thread_wait         1000e64a f   LIBCMT:thread_safe_statics.obj
 0001:0000d698       ___raise_securityfailure   1000e698 f   LIBCMT:gs_report.obj
 0001:0000d6c0       ___report_gsfailure        1000e6c0 f   LIBCMT:gs_report.obj
 0001:0000d7b9       ___report_rangecheckfailure 1000e7b9 f   LIBCMT:gs_report.obj
 0001:0000d7c5       ___report_securityfailure  1000e7c5 f   LIBCMT:gs_report.obj
 0001:0000d893       ??2@YAPAXIABUnothrow_t@std@@@Z 1000e893 f   LIBCMT:new_scalar_nothrow.obj
 0001:0000d8e3       ??_U@YAPAXIABUnothrow_t@std@@@Z 1000e8e3 f   LIBCMT:new_array_nothrow.obj
 0001:0000d8ec       @__security_check_cookie@4 1000e8ec f   LIBCMT:secchk.obj
 0001:0000d900       __SEH_prolog4_GS           1000e900 f   LIBCMT:sehprolg4gs.obj
 0001:0000d949       __SEH_epilog4_GS           1000e949 f   LIBCMT:sehprolg4gs.obj
 0001:0000d960       __alloca_probe_16          1000e960 f   LIBCMT:alloca16.obj
 0001:0000d976       __alloca_probe_8           1000e976     LIBCMT:alloca16.obj
 0001:0000d990       __chkstk                   1000e990 f   LIBCMT:chkstk.obj
 0001:0000d990       __alloca_probe             1000e990 f   LIBCMT:chkstk.obj
 0001:0000dcf8       __DllMainCRTStartup@12     1000ecf8 f   LIBCMT:dll_dllmain.obj
 0001:0000dd1b       ??2@YAPAXI@Z               1000ed1b f   LIBCMT:new_scalar.obj
 0001:0000dd4b       ___isa_available_init      1000ed4b f   LIBCMT:cpu_disp.obj
 0001:0000df1b       ___scrt_is_ucrt_dll_in_use 1000ef1b f   LIBCMT:ucrt_detection.obj
 0001:0000df27       ___scrt_fastfail           1000ef27 f   LIBCMT:utility_desktop.obj
 0001:0000e041       __crt_debugger_hook        1000f041 f   LIBCMT:utility_desktop.obj
 0001:0000e050       __SEH_prolog4              1000f050 f   LIBCMT:sehprolg4.obj
 0001:0000e096       __SEH_epilog4              1000f096 f   LIBCMT:sehprolg4.obj
 0001:0000e0ab       @_guard_check_icall_nop@4  1000f0ab f i LIBCMT:guard_support.obj
 0001:0000e0f9       ___security_init_cookie    1000f0f9 f   LIBCMT:gs_support.obj
 0001:0000e144       ?__scrt_initialize_type_info@@YAXXZ 1000f144 f   LIBCMT:tncleanup.obj
 0001:0000e150       ?__scrt_uninitialize_type_info@@YAXXZ 1000f150 f   LIBCMT:tncleanup.obj
 0001:0000e15c       ___local_stdio_scanf_options 1000f15c f i LIBCMT:default_local_stdio_options.obj
 0001:0000e162       ___scrt_initialize_default_local_stdio_options 1000f162 f   LIBCMT:default_local_stdio_options.obj
 0001:0000e17f       ___scrt_get_dyn_tls_init_callback 1000f17f f   LIBCMT:dyn_tls_init.obj
 0001:0000e185       __RTC_Initialize           1000f185 f   LIBCMT:initsect.obj
 0001:0000e1b1       __RTC_Terminate            1000f1b1 f   LIBCMT:initsect.obj
 0001:0000e1dd       ??0bad_alloc@std@@QAE@ABV01@@Z 1000f1dd f i LIBCMT:throw_bad_alloc.obj
 0001:0000e1f8       ??0bad_alloc@std@@QAE@XZ   1000f1f8 f i LIBCMT:throw_bad_alloc.obj
 0001:0000e210       ??0bad_array_new_length@std@@QAE@ABV01@@Z 1000f210 f i LIBCMT:throw_bad_alloc.obj
 0001:0000e22b       ??0bad_array_new_length@std@@QAE@XZ 1000f22b f i LIBCMT:throw_bad_alloc.obj
 0001:0000e243       ??0exception@std@@QAE@ABV01@@Z 1000f243 f i LIBCMT:throw_bad_alloc.obj
 0001:0000e26f       ??1bad_alloc@std@@UAE@XZ   1000f26f f i LIBCMT:throw_bad_alloc.obj
 0001:0000e26f       ??1bad_exception@std@@UAE@XZ 1000f26f f i libvcruntime:frame.obj
 0001:0000e26f       ??1bad_array_new_length@std@@UAE@XZ 1000f26f f i LIBCMT:throw_bad_alloc.obj
 0001:0000e280       ??_Gbad_exception@std@@UAEPAXI@Z 1000f280 f i libvcruntime:frame.obj
 0001:0000e280       ??_Ebad_alloc@std@@UAEPAXI@Z 1000f280 f i LIBCMT:throw_bad_alloc.obj
 0001:0000e280       ??_Gexception@std@@UAEPAXI@Z 1000f280 f i LIBCMT:throw_bad_alloc.obj
 0001:0000e280       ??_Ebad_array_new_length@std@@UAEPAXI@Z 1000f280 f i LIBCMT:throw_bad_alloc.obj
 0001:0000e280       ??_Gbad_array_new_length@std@@UAEPAXI@Z 1000f280 f i LIBCMT:throw_bad_alloc.obj
 0001:0000e280       ??_Gbad_alloc@std@@UAEPAXI@Z 1000f280 f i LIBCMT:throw_bad_alloc.obj
 0001:0000e280       ??_Ebad_exception@std@@UAEPAXI@Z 1000f280 f i libvcruntime:frame.obj
 0001:0000e280       ??_Eexception@std@@UAEPAXI@Z 1000f280 f i LIBCMT:throw_bad_alloc.obj
 0001:0000e2ad       ?__scrt_throw_std_bad_alloc@@YAXXZ 1000f2ad f   LIBCMT:throw_bad_alloc.obj
 0001:0000e2ca       ?__scrt_throw_std_bad_array_new_length@@YAXXZ 1000f2ca f   LIBCMT:throw_bad_alloc.obj
 0001:0000e2e7       ?what@exception@std@@UBEPBDXZ 1000f2e7 f i LIBCMT:throw_bad_alloc.obj
 0001:0000e2f4       ??_Gtype_info@@UAEPAXI@Z   1000f2f4 f i LIBCMT:std_type_info_static.obj
 0001:0000e2f4       ??_Etype_info@@UAEPAXI@Z   1000f2f4 f i LIBCMT:std_type_info_static.obj
 0001:0000e317       ??0CAtlBaseModule@ATL@@QAE@XZ 1000f317 f   atls:atlbase.obj
 0001:0000e36a       ??0_ATL_BASE_MODULE70@ATL@@QAE@XZ 1000f36a f i atls:atlbase.obj
 0001:0000e38d       ??1CAtlBaseModule@ATL@@QAE@XZ 1000f38d f   atls:atlbase.obj
 0001:0000e47a       ?Init@_stdcallthunk@ATL@@QAEHKPAX@Z 1000f47a f i atls:atlthunk.obj
 0001:0000e4af       ?__AllocStdCallThunk_cmn@@YAPAXXZ 1000f4af f   atls:atlthunk.obj
 0001:0000e575       ?__FreeStdCallThunk_cmn@@YAXPAX@Z 1000f575 f   atls:atlthunk.obj
 0001:0000e610       _AtlThunk_AllocateData@0   1000f610 f   atls:atlthunk.obj
 0001:0000e675       _AtlThunk_DataToCode@4     1000f675 f   atls:atlthunk.obj
 0001:0000e6bc       _AtlThunk_FreeData@4       1000f6bc f   atls:atlthunk.obj
 0001:0000e712       _AtlThunk_InitData@12      1000f712 f   atls:atlthunk.obj
 0001:0000e761       __get_purecall_handler     1000f761 f   libvcruntime:purevirt.obj
 0001:0000e767       __purecall                 1000f767 f   libvcruntime:purevirt.obj
 0001:0000e783       _wcsstr                    1000f783 f   libvcruntime:wcsstr.obj
 0001:0000ea40       __except_handler4          1000fa40 f   libvcruntime:chandler4.obj
 0001:0000eb9e       _memcmp                    1000fb9e f   libvcruntime:memcmp.obj
 0001:0000fb50       _memcpy                    10010b50 f   libvcruntime:memcpy.obj
 0001:000100d0       _memset                    100110d0 f   libvcruntime:memset.obj
 0001:0001022a       ___vcrt_initialize         1001122a f   libvcruntime:initialization.obj
 0001:00010249       ___vcrt_thread_attach      10011249 f   libvcruntime:initialization.obj
 0001:00010254       ___vcrt_thread_detach      10011254 f   libvcruntime:initialization.obj
 0001:0001025f       ___vcrt_uninitialize       1001125f f   libvcruntime:initialization.obj
 0001:00010276       ___vcrt_uninitialize_critical 10011276 f   libvcruntime:initialization.obj
 0001:0001027e       ?GetRangeOfTrysToCheck@__FrameHandler3@@SA?AU?$pair@Viterator@TryBlockMap@__FrameHandler3@@V123@@std@@AAVTryBlockMap@1@HPAXPBU_s_FuncInfo@@H@Z 1001127e f   libvcruntime:trnsctrl.obj
 0001:000102ee       ?_CallCatchBlock2@@YAPAXPAUEHRegistrationNode@@PBU_s_FuncInfo@@PAXHK@Z 100112ee f   libvcruntime:trnsctrl.obj
 0001:0001034c       ?_CallSETranslator@@YAHPAUEHExceptionRecord@@PAUEHRegistrationNode@@PAX2PBU_s_FuncInfo@@H1@Z 1001134c f   libvcruntime:trnsctrl.obj
 0001:00010432       ?_JumpToContinuation@@YGXPAXPAUEHRegistrationNode@@@Z 10011432 f   libvcruntime:trnsctrl.obj
 0001:00010462       ?_UnwindNestedFrames@@YGXPAUEHRegistrationNode@@PAUEHExceptionRecord@@@Z 10011462 f   libvcruntime:trnsctrl.obj
 0001:000104b5       __CatchGuardHandler        100114b5 f   libvcruntime:trnsctrl.obj
 0001:000104e6       __CreateFrameInfo          100114e6 f   libvcruntime:trnsctrl.obj
 0001:0001050a       __FindAndUnlinkFrame       1001150a f   libvcruntime:trnsctrl.obj
 0001:00010552       __TranslatorGuardHandler   10011552 f   libvcruntime:trnsctrl.obj
 0001:000105ef       ___CxxFrameHandler3        100115ef f   libvcruntime:trnsctrl.obj
 0001:00010625       ___DestructExceptionObject 10011625 f   libvcruntime:ehhelpers.obj
 0001:000106c6       ?_CallMemberFunction0@@YGXQAX0@Z 100116c6 f i libvcruntime:ehhelpers.obj
 0001:0001072b       __IsExceptionObjectToBeDestroyed 1001172b f   libvcruntime:ehhelpers.obj
 0001:00010751       ___AdjustPointer           10011751 f   libvcruntime:ehhelpers.obj
 0001:00010776       ___FrameUnwindFilter       10011776 f   libvcruntime:ehhelpers.obj
 0001:000107cc       ___std_type_info_compare   100117cc f   libvcruntime:std_type_info.obj
 0001:00010808       ___std_type_info_destroy_list 10011808 f   libvcruntime:std_type_info.obj
 0001:0001082b       ___std_exception_copy      1001182b f   libvcruntime:std_exception.obj
 0001:0001088e       ___std_exception_destroy   1001188e f   libvcruntime:std_exception.obj
 0001:000108ad       __CxxThrowException@8      100118ad f   libvcruntime:throw.obj
 0001:00010920       _memmove                   10011920 f   libvcruntime:memmove.obj
 0001:00010ea0       __local_unwind4            10011ea0 f   libvcruntime:exsup4.obj
 0001:00010f78       __seh_longjmp_unwind4@4    10011f78 f   libvcruntime:exsup4.obj
 0001:00010fa0       @_EH4_CallFilterFunc@8     10011fa0 f   libvcruntime:exsup4.obj
 0001:00010fb8       @_EH4_TransferToHandler@8  10011fb8 f   libvcruntime:exsup4.obj
 0001:00010fd4       @_EH4_GlobalUnwind2@8      10011fd4 f   libvcruntime:exsup4.obj
 0001:00010ff0       @_EH4_LocalUnwind@16       10011ff0 f   libvcruntime:exsup4.obj
 0001:00011007       ___except_validate_context_record 10012007 f   libvcruntime:jbcxrval.obj
 0001:00011037       ___except_validate_jump_buffer 10012037 f   libvcruntime:jbcxrval.obj
 0001:00011064       ___vcrt_freefls@4          10012064 f   libvcruntime:per_thread_data.obj
 0001:00011080       ___vcrt_freeptd            10012080 f   libvcruntime:per_thread_data.obj
 0001:000110b6       ___vcrt_getptd             100120b6 f   libvcruntime:per_thread_data.obj
 0001:000110c4       ___vcrt_getptd_noexit      100120c4 f   libvcruntime:per_thread_data.obj
 0001:00011156       ___vcrt_initialize_ptd     10012156 f   libvcruntime:per_thread_data.obj
 0001:00011189       ___vcrt_uninitialize_ptd   10012189 f   libvcruntime:per_thread_data.obj
 0001:000111a4       ___vcrt_initialize_locks   100121a4 f   libvcruntime:locks.obj
 0001:000111e0       ___vcrt_uninitialize_locks 100121e0 f   libvcruntime:locks.obj
 0001:00011952       ??$TypeMatchHelper@V__FrameHandler3@@@@YAHPBU_s_HandlerType@@PBU_s_CatchableType@@PBU_s_ThrowInfo@@@Z 10012952 f i libvcruntime:frame.obj
 0001:000119e0       ??$__InternalCxxFrameHandler@V__FrameHandler3@@@@YA?AW4_EXCEPTION_DISPOSITION@@PAUEHExceptionRecord@@PAUEHRegistrationNode@@PAU_CONTEXT@@PAXPBU_s_FuncInfo@@H1E@Z 100129e0 f i libvcruntime:frame.obj
 0001:00011ae2       ??0bad_exception@std@@QAE@ABV01@@Z 10012ae2 f i libvcruntime:frame.obj
 0001:00011afd       ??0bad_exception@std@@QAE@XZ 10012afd f i libvcruntime:frame.obj
 0001:00011b15       ??8type_info@@QBE_NABV0@@Z 10012b15 f i libvcruntime:frame.obj
 0001:00011d7c       ?FrameUnwindToEmptyState@__FrameHandler3@@SAXPAUEHRegistrationNode@@PAXPBU_s_FuncInfo@@@Z 10012d7c f   libvcruntime:frame.obj
 0001:00011d94       ?FrameUnwindToState@__FrameHandler3@@SAXPAUEHRegistrationNode@@PAXPBU_s_FuncInfo@@H@Z 10012d94 f   libvcruntime:frame.obj
 0001:00011f16       ?_CallMemberFunction1@@YGXQAX00@Z 10012f16 f i libvcruntime:frame.obj
 0001:00011f26       ?_CallMemberFunction2@@YGXQAX00H@Z 10012f26 f i libvcruntime:frame.obj
 0001:00011f39       ?getESTypes@__FrameHandler3@@SAPBU_s_ESTypeList@@PBU_s_FuncInfo@@@Z 10012f39 f i libvcruntime:frame.obj
 0001:00011f50       __CallSettingFrame@12      10012f50 f   libvcruntime:lowhelpr.obj
 0001:00011f77       __NLG_Return               10012f77     libvcruntime:lowhelpr.obj
 0001:00011fa0       __global_unwind2           10012fa0 f   libvcruntime:exsup.obj
 0001:00012006       __local_unwind2            10013006 f   libvcruntime:exsup.obj
 0001:0001208a       __abnormal_termination     1001308a f   libvcruntime:exsup.obj
 0001:000120b0       __NLG_Notify1              100130b0 f   libvcruntime:exsup.obj
 0001:000120bc       __NLG_Notify               100130bc f   libvcruntime:exsup.obj
 0001:000120d3       __NLG_Dispatch             100130d3     libvcruntime:exsup.obj
 0001:000120d3       __NLG_Dispatch2            100130d3     libvcruntime:exsup.obj
 0001:000120db       __NLG_Call                 100130db f   libvcruntime:exsup.obj
 0001:000120dd       __NLG_Return2              100130dd     libvcruntime:exsup.obj
 0001:000121d3       ___vcrt_FlsAlloc           100131d3 f   libvcruntime:winapi_downlevel.obj
 0001:0001220e       ___vcrt_FlsFree            1001320e f   libvcruntime:winapi_downlevel.obj
 0001:00012249       ___vcrt_FlsGetValue        10013249 f   libvcruntime:winapi_downlevel.obj
 0001:00012284       ___vcrt_FlsSetValue        10013284 f   libvcruntime:winapi_downlevel.obj
 0001:000122c2       ___vcrt_InitializeCriticalSectionEx 100132c2 f   libvcruntime:winapi_downlevel.obj
 0001:00012309       _unexpected                10013309 f   libvcruntime:unexpected.obj
 0001:00012326       ?GetCurrentState@__FrameHandler3@@SAHPAUEHRegistrationNode@@PAXPBU_s_FuncInfo@@@Z 10013326 f   libvcruntime:ehstate.obj
 0001:00012343       ?SetState@__FrameHandler3@@SAXPAUEHRegistrationNode@@PBU_s_FuncInfo@@H@Z 10013343 f   libvcruntime:ehstate.obj
 0001:00012351       _free                      10013351 f   libucrt:free.obj
 0001:0001236c       ___acrt_call_reportfault   1001336c f   libucrt:invalid_parameter.obj
 0001:000124a5       ___acrt_initialize_invalid_parameter_handler 100134a5 f   libucrt:invalid_parameter.obj
 0001:000124b4       __invalid_parameter        100134b4 f   libucrt:invalid_parameter.obj
 0001:00012518       __invalid_parameter_noinfo 10013518 f   libucrt:invalid_parameter.obj
 0001:00012528       __invoke_watson            10013528 f   libucrt:invalid_parameter.obj
 0001:0001255c       ___acrt_errno_from_os_error 1001355c f   libucrt:errno.obj
 0001:0001259f       ___acrt_errno_map_os_error 1001359f f   libucrt:errno.obj
 0001:000125c2       ___doserrno                100135c2 f   libucrt:errno.obj
 0001:000125d5       __errno                    100135d5 f   libucrt:errno.obj
 0001:000125e8       _calloc                    100135e8 f   libucrt:calloc.obj
 0001:000125f3       _malloc                    100135f3 f   libucrt:malloc.obj
 0001:000125fe       __recalloc                 100135fe f   libucrt:recalloc.obj
 0001:00012609       __recalloc_base            10013609 f   libucrt:recalloc.obj
 0001:00012676       __resetstkoflw             10013676 f   libucrt:resetstk.obj
 0001:0001273b       _wcscat_s                  1001373b f   libucrt:wcscat_s.obj
 0001:000127b0       _wcscpy_s                  100137b0 f   libucrt:wcscpy_s.obj
 0001:000128df       _wcsncpy_s                 100138df f   libucrt:wcsncpy_s.obj
 0001:00012aeb       ??$count@D@formatting_buffer@__crt_stdio_output@@QBEIXZ 10013aeb f i libucrt:output.obj
 0001:00012b03       ??$count@_W@formatting_buffer@__crt_stdio_output@@QBEIXZ 10013b03 f i libucrt:output.obj
 0001:00012b1c       ??$ensure_buffer_is_big_enough@D@formatting_buffer@__crt_stdio_output@@QAE_NI@Z 10013b1c f i libucrt:output.obj
 0001:00012b99       ??$ensure_buffer_is_big_enough@_W@formatting_buffer@__crt_stdio_output@@QAE_NI@Z 10013b99 f i libucrt:output.obj
 0001:00012c17       ??$is_wide_character_specifier@_W@__crt_stdio_output@@YA_N_K_WW4length_modifier@0@@Z 10013c17 f i libucrt:output.obj
 0001:00012c65       ??$scratch_data@D@formatting_buffer@__crt_stdio_output@@QAEPADXZ 10013c65 f i libucrt:output.obj
 0001:00012c83       ??$type_case_integer_parse_into_buffer@I@?$output_processor@_WV?$string_output_adapter@_W@__crt_stdio_output@@V?$format_validation_base@_WV?$string_output_adapter@_W@__crt_stdio_output@@@2@@__crt_stdio_output@@AAEXII_N@Z 10013c83 f i libucrt:output.obj
 0001:00012d0a       ??$type_case_integer_parse_into_buffer@_K@?$output_processor@_WV?$string_output_adapter@_W@__crt_stdio_output@@V?$format_validation_base@_WV?$string_output_adapter@_W@__crt_stdio_output@@@2@@__crt_stdio_output@@AAEX_KI_N@Z 10013d0a f i libucrt:output.obj
 0001:00012dac       ??$write_multiple_characters@V?$string_output_adapter@_W@__crt_stdio_output@@D@__crt_stdio_output@@YAXABV?$string_output_adapter@_W@0@DHQAH@Z 10013dac f i libucrt:output.obj
 0001:00012ddd       ??0?$common_data@_W@__crt_stdio_output@@IAE@XZ 10013ddd f i libucrt:output.obj
 0001:00012e27       ??0?$output_adapter_data@_WV?$string_output_adapter@_W@__crt_stdio_output@@@__crt_stdio_output@@IAE@ABV?$string_output_adapter@_W@1@_KQB_WQAU__crt_locale_pointers@@QAD@Z 10013e27 f i libucrt:output.obj
 0001:00012e63       ??0_LocaleUpdate@@QAE@QAU__crt_locale_pointers@@@Z 10013e63 f i libucrt:output.obj
 0001:00012ee6       ??1formatting_buffer@__crt_stdio_output@@QAE@XZ 10013ee6 f i libucrt:output.obj
 0001:00012f00       ??4?$__crt_unique_heap_ptr@DU__crt_internal_free_policy@@@@QAEAAV0@$$QAV0@@Z 10013f00 f i libucrt:output.obj
 0001:00012f24       ?crop_zeroes@__crt_stdio_output@@YAXPADQAU__crt_locale_pointers@@@Z 10013f24 f i libucrt:output.obj
 0001:00012f84       ?find_next_state@?$output_processor@_WV?$string_output_adapter@_W@__crt_stdio_output@@V?$format_validation_base@_WV?$string_output_adapter@_W@__crt_stdio_output@@@2@@__crt_stdio_output@@ABE?AW4state@2@_WW432@@Z 10013f84 f i libucrt:output.obj
 0001:00012fc6       ?force_decimal_point@__crt_stdio_output@@YAXPADQAU__crt_locale_pointers@@@Z 10013fc6 f i libucrt:output.obj
 0001:00013022       ?parse_int_from_format_string@?$output_processor@_WV?$string_output_adapter@_W@__crt_stdio_output@@V?$format_validation_base@_WV?$string_output_adapter@_W@__crt_stdio_output@@@2@@__crt_stdio_output@@AAE_NQAH@Z 10014022 f i libucrt:output.obj
 0001:00013098       ?process@?$output_processor@_WV?$string_output_adapter@_W@__crt_stdio_output@@V?$format_validation_base@_WV?$string_output_adapter@_W@__crt_stdio_output@@@2@@__crt_stdio_output@@QAEHXZ 10014098 f i libucrt:output.obj
 0001:000131c0       ?state_case_flag@?$output_processor@_WV?$string_output_adapter@_W@__crt_stdio_output@@V?$format_validation_base@_WV?$string_output_adapter@_W@__crt_stdio_output@@@2@@__crt_stdio_output@@AAE_NXZ 100141c0 f i libucrt:output.obj
 0001:000131fd       ?state_case_normal@?$output_processor@_WV?$string_output_adapter@_W@__crt_stdio_output@@V?$format_validation_base@_WV?$string_output_adapter@_W@__crt_stdio_output@@@2@@__crt_stdio_output@@AAE_NXZ 100141fd f i libucrt:output.obj
 0001:0001321c       ?state_case_normal_common@?$output_processor@_WV?$string_output_adapter@_W@__crt_stdio_output@@V?$format_validation_base@_WV?$string_output_adapter@_W@__crt_stdio_output@@@2@@__crt_stdio_output@@AAE_NXZ 1001421c f i libucrt:output.obj
 0001:00013237       ?state_case_precision@?$output_processor@_WV?$string_output_adapter@_W@__crt_stdio_output@@V?$format_validation_base@_WV?$string_output_adapter@_W@__crt_stdio_output@@@2@@__crt_stdio_output@@AAE_NXZ 10014237 f i libucrt:output.obj
 0001:0001325e       ?state_case_size@?$output_processor@_WV?$string_output_adapter@_W@__crt_stdio_output@@V?$format_validation_base@_WV?$string_output_adapter@_W@__crt_stdio_output@@@2@@__crt_stdio_output@@AAE_NXZ 1001425e f i libucrt:output.obj
 0001:000133d6       ?state_case_type@?$output_processor@_WV?$string_output_adapter@_W@__crt_stdio_output@@V?$format_validation_base@_WV?$string_output_adapter@_W@__crt_stdio_output@@@2@@__crt_stdio_output@@AAE_NXZ 100143d6 f i libucrt:output.obj
 0001:0001363b       ?state_case_width@?$output_processor@_WV?$string_output_adapter@_W@__crt_stdio_output@@V?$format_validation_base@_WV?$string_output_adapter@_W@__crt_stdio_output@@@2@@__crt_stdio_output@@AAE_NXZ 1001463b f i libucrt:output.obj
 0001:00013667       ?to_integer_size@__crt_stdio_output@@YAIW4length_modifier@1@@Z 10014667 f i libucrt:output.obj
 0001:000136bb       ?type_case_Z@?$output_processor@_WV?$string_output_adapter@_W@__crt_stdio_output@@V?$format_validation_base@_WV?$string_output_adapter@_W@__crt_stdio_output@@@2@@__crt_stdio_output@@AAE_NXZ 100146bb f i libucrt:output.obj
 0001:00013715       ?type_case_a@?$output_processor@_WV?$string_output_adapter@_W@__crt_stdio_output@@V?$format_validation_base@_WV?$string_output_adapter@_W@__crt_stdio_output@@@2@@__crt_stdio_output@@AAE_NXZ 10014715 f i libucrt:output.obj
 0001:0001387a       ?type_case_c_tchar@?$output_processor@_WV?$string_output_adapter@_W@__crt_stdio_output@@V?$format_validation_base@_WV?$string_output_adapter@_W@__crt_stdio_output@@@2@@__crt_stdio_output@@AAE_N_W@Z 1001487a f i libucrt:output.obj
 0001:00013910       ?type_case_integer@?$output_processor@_WV?$string_output_adapter@_W@__crt_stdio_output@@V?$format_validation_base@_WV?$string_output_adapter@_W@__crt_stdio_output@@@2@@__crt_stdio_output@@AAE_NI_N@Z 10014910 f i libucrt:output.obj
 0001:00013a65       ?type_case_n@?$output_processor@_WV?$string_output_adapter@_W@__crt_stdio_output@@V?$format_validation_base@_WV?$string_output_adapter@_W@__crt_stdio_output@@@2@@__crt_stdio_output@@AAE_NXZ 10014a65 f i libucrt:output.obj
 0001:00013ad9       ?type_case_o@?$output_processor@_WV?$string_output_adapter@_W@__crt_stdio_output@@V?$format_validation_base@_WV?$string_output_adapter@_W@__crt_stdio_output@@@2@@__crt_stdio_output@@AAE_NXZ 10014ad9 f i libucrt:output.obj
 0001:00013af8       ?type_case_p@?$output_processor@_WV?$string_output_adapter@_W@__crt_stdio_output@@V?$format_validation_base@_WV?$string_output_adapter@_W@__crt_stdio_output@@@2@@__crt_stdio_output@@AAE_NXZ 10014af8 f i libucrt:output.obj
 0001:00013b10       ?type_case_s@?$output_processor@_WV?$string_output_adapter@_W@__crt_stdio_output@@V?$format_validation_base@_WV?$string_output_adapter@_W@__crt_stdio_output@@@2@@__crt_stdio_output@@AAE_NXZ 10014b10 f i libucrt:output.obj
 0001:00013b83       ?type_case_s_compute_narrow_string_length@?$output_processor@_WV?$string_output_adapter@_W@__crt_stdio_output@@V?$format_validation_base@_WV?$string_output_adapter@_W@__crt_stdio_output@@@2@@__crt_stdio_output@@ABEHH_W@Z 10014b83 f i libucrt:output.obj
 0001:00013bca       ?validate@?$string_output_adapter@_W@__crt_stdio_output@@QBE_NXZ 10014bca f i libucrt:output.obj
 0001:00013bca       ?validate@?$c_string_character_source@_W@__crt_strtox@@QBE_NXZ 10014bca f i libucrt:atox.obj
 0001:00013be5       ?validate_and_update_state_at_end_of_format_string@?$format_validation_base@_WV?$string_output_adapter@_W@__crt_stdio_output@@@__crt_stdio_output@@IBE_NXZ 10014be5 f i libucrt:output.obj
 0001:00013c07       ?write_character@?$string_output_adapter@_W@__crt_stdio_output@@QBE_N_WQAH@Z 10014c07 f i libucrt:output.obj
 0001:00013c4c       ?write_stored_string_tchar@?$output_processor@_WV?$string_output_adapter@_W@__crt_stdio_output@@V?$format_validation_base@_WV?$string_output_adapter@_W@__crt_stdio_output@@@2@@__crt_stdio_output@@AAE_N_W@Z 10014c4c f i libucrt:output.obj
 0001:00013cdf       ?write_string@?$string_output_adapter@_W@__crt_stdio_output@@QBEXQB_WHQAHAAV__crt_deferred_errno_cache@@@Z 10014cdf f i libucrt:output.obj
 0001:00013d50       ___acrt_locale_get_ctype_array_value 10014d50 f i libucrt:output.obj
 0001:00013d72       ___stdio_common_vswprintf_s 10014d72 f   libucrt:output.obj
 0001:00013d96       __seh_filter_dll           10014d96 f   libucrt:exception_filter.obj
 0001:00013db6       __seh_filter_exe           10014db6 f   libucrt:exception_filter.obj
 0001:00014184       ___acrt_initialize_thread_local_exit_callback 10015184 f   libucrt:exit.obj
 0001:00014193       __cexit                    10015193 f   libucrt:exit.obj
 0001:000141a2       __exit                     100151a2 f   libucrt:exit.obj
 0001:000141b8       __is_c_termination_complete 100151b8 f   libucrt:exit.obj
 0001:0001446c       ___acrt_allocate_buffer_for_argv 1001546c f   libucrt:argv_parsing.obj
 0001:000144bb       __configure_narrow_argv    100154bb f   libucrt:argv_parsing.obj
 0001:00014618       ??$uninitialize@A6AXAAPAPA_W@Z@?$dual_state_global@PAPA_W@__crt_state_management@@QAEXA6AXAAPAPA_W@Z@Z 10015618 f i libucrt:environment_initialization.obj
 0001:00014618       ??$uninitialize@A6AXAAPAPAD@Z@?$dual_state_global@PAPAD@__crt_state_management@@QAEXA6AXAAPAPAD@Z@Z 10015618 f i libucrt:environment_initialization.obj
 0001:00014677       ___dcrt_uninitialize_environments_nolock 10015677 f   libucrt:environment_initialization.obj
 0001:000146ae       __initialize_narrow_environment 100156ae f   libucrt:environment_initialization.obj
 0001:00014769       ??$__crt_fast_encode_pointer@PAP6AXXZ@@YAPAP6AXXZQAP6AXXZ@Z 10015769 f i libucrt:onexit.obj
 0001:00014769       ??$__crt_fast_encode_pointer@PAX@@YAPAXQAX@Z 10015769 f i libucrt:initialization.obj
 0001:00014769       ??$__crt_fast_encode_pointer@P6AHXZ@@YAP6AHXZQ6AHXZ@Z 10015769 f i libucrt:onexit.obj
 0001:0001498b       __crt_atexit               1001598b f   libucrt:onexit.obj
 0001:000149a1       __execute_onexit_table     100159a1 f   libucrt:onexit.obj
 0001:000149ce       __initialize_onexit_table  100159ce f   libucrt:onexit.obj
 0001:000149f7       __register_onexit_function 100159f7 f   libucrt:onexit.obj
 0001:00014a2a       ___acrt_uninitialize_command_line 10015a2a f   libucrt:argv_data.obj
 0001:00014b28       ___acrt_initialize         10015b28 f   libucrt:initialization.obj
 0001:00014b3a       ___acrt_thread_attach      10015b3a f   libucrt:initialization.obj
 0001:00014b45       ___acrt_thread_detach      10015b45 f   libucrt:initialization.obj
 0001:00014b4d       ___acrt_uninitialize       10015b4d f   libucrt:initialization.obj
 0001:00014b7d       ___acrt_uninitialize_critical 10015b7d f   libucrt:initialization.obj
 0001:00014b8f       __initterm                 10015b8f f   libucrt:initterm.obj
 0001:00014bd4       __initterm_e               10015bd4 f   libucrt:initterm.obj
 0001:00014c02       ___acrt_initialize_new_handler 10015c02 f   libucrt:new_handler.obj
 0001:00014c11       __callnewh                 10015c11 f   libucrt:new_handler.obj
 0001:00014c3e       __query_new_handler        10015c3e f   libucrt:new_handler.obj
 0001:00014c9a       _terminate                 10015c9a f   libucrt:terminate.obj
 0001:00014cd6       _abort                     10015cd6 f   libucrt:abort.obj
 0001:00014d1a       _strcpy_s                  10015d1a f   libucrt:strcpy_s.obj
 0001:00014d74       ??$is_overflow_condition@K@__crt_strtox@@YA_NIK@Z 10015d74 f i libucrt:atox.obj
 0001:00014da5       ??$parse_integer@KV?$c_string_character_source@_W@__crt_strtox@@@__crt_strtox@@YAKQAU__crt_locale_pointers@@V?$c_string_character_source@_W@0@H_N@Z 10015da5 f i libucrt:atox.obj
 0001:000153ad       ?unget@?$c_string_character_source@_W@__crt_strtox@@QAEX_W@Z 100163ad f i libucrt:atox.obj
 0001:000153e0       _strncmp                   100163e0 f   libucrt:strncmp.obj
 0001:00015458       _wcsncmp                   10016458 f   libucrt:wcsncmp.obj
 0001:00015492       __free_base                10016492 f   libucrt:free_base.obj
 0001:0001580a       ___acrt_freeptd            1001680a f   libucrt:per_thread_data.obj
 0001:00015836       ___acrt_getptd             10016836 f   libucrt:per_thread_data.obj
 0001:000158f3       ___acrt_getptd_head        100168f3 f   libucrt:per_thread_data.obj
 0001:0001598d       ___acrt_getptd_noexit      1001698d f   libucrt:per_thread_data.obj
 0001:00015a42       ___acrt_initialize_ptd     10016a42 f   libucrt:per_thread_data.obj
 0001:00015a6e       ___acrt_uninitialize_ptd   10016a6e f   libucrt:per_thread_data.obj
 0001:00015a88       __calloc_base              10016a88 f   libucrt:calloc_base.obj
 0001:00015ae5       __malloc_base              10016ae5 f   libucrt:malloc_base.obj
 0001:00015b33       __msize_base               10016b33 f   libucrt:msize.obj
 0001:00015b66       __realloc_base             10016b66 f   libucrt:realloc_base.obj
 0001:00015d67       ___acrt_AppPolicyGetProcessTerminationMethodInternal@4 10016d67 f   libucrt:winapi_thunks.obj
 0001:00015da7       ___acrt_AreFileApisANSI@0  10016da7 f   libucrt:winapi_thunks.obj
 0001:00015dc6       ___acrt_FlsAlloc@4         10016dc6 f   libucrt:winapi_thunks.obj
 0001:00015e05       ___acrt_FlsFree@4          10016e05 f   libucrt:winapi_thunks.obj
 0001:00015e44       ___acrt_FlsGetValue@4      10016e44 f   libucrt:winapi_thunks.obj
 0001:00015e83       ___acrt_FlsSetValue@8      10016e83 f   libucrt:winapi_thunks.obj
 0001:00015ec5       ___acrt_InitializeCriticalSectionEx@12 10016ec5 f   libucrt:winapi_thunks.obj
 0001:00015f10       ___acrt_LCMapStringEx@36   10016f10 f   libucrt:winapi_thunks.obj
 0001:00015f6d       ___acrt_LocaleNameToLCID@8 10016f6d f   libucrt:winapi_thunks.obj
 0001:00015f9e       ___acrt_SetThreadStackGuarantee@4 10016f9e f   libucrt:winapi_thunks.obj
 0001:00015fd9       ___acrt_initialize_winapi_thunks 10016fd9 f   libucrt:winapi_thunks.obj
 0001:00016004       ___acrt_uninitialize_winapi_thunks 10017004 f   libucrt:winapi_thunks.obj
 0001:0001603a       ??$make_c_string_character_source@_WPAPA_W@__crt_strtox@@YA?AV?$c_string_character_source@_W@0@QB_WQAPA_W@Z 1001703a f i libucrt:strtox.obj
 0001:00016055       _wcstol                    10017055 f   libucrt:strtox.obj
 0001:0001607f       __mbtowc_l                 1001707f f   libucrt:mbtowc.obj
 0001:000161c1       _mbtowc                    100171c1 f   libucrt:mbtowc.obj
 0001:000161db       _wcsnlen                   100171db f   libucrt:strnlen.obj
 0001:0001638b       ___acrt_update_locale_info 1001738b f   libucrt:locale_update.obj
 0001:000163b8       ___acrt_update_multibyte_info 100173b8 f   libucrt:locale_update.obj
 0001:000163e5       ?__acrt_fp_classify@@YA?AW4__acrt_fp_class@@ABN@Z 100173e5 f i libucrt:cvt.obj
 0001:00016c30       ___acrt_fp_format          10017c30 f   libucrt:cvt.obj
 0001:00016d6b       __fileno                   10017d6b f   libucrt:fileno.obj
 0001:00016d92       ___acrt_initialize_stdio   10017d92 f   libucrt:_file.obj
 0001:00016e5a       ___acrt_uninitialize_stdio 10017e5a f   libucrt:_file.obj
 0001:00016ea6       __lock_file                10017ea6 f   libucrt:_file.obj
 0001:00016eba       __unlock_file              10017eba f   libucrt:_file.obj
 0001:00016ece       __get_printf_count_output  10017ece f   libucrt:printf_count_output.obj
 0001:00016f51       ___acrt_set_locale_changed 10017f51 f   libucrt:wsetlocale.obj
 0001:00016f5c       ___acrt_uninitialize_locale 10017f5c f   libucrt:wsetlocale.obj
 0001:000170ed       ___acrt_initialize_lowio   100180ed f   libucrt:ioinit.obj
 0001:0001714d       ___acrt_uninitialize_lowio 1001814d f   libucrt:ioinit.obj
 0001:00017179       ___acrt_initialize_locks   10018179 f   libucrt:locks.obj
 0001:000171ba       ___acrt_lock               100181ba f   libucrt:locks.obj
 0001:000171d1       ___acrt_uninitialize_locks 100181d1 f   libucrt:locks.obj
 0001:00017202       ___acrt_unlock             10018202 f   libucrt:locks.obj
 0001:00017219       ___acrt_get_process_end_policy 10018219 f   libucrt:win_policies.obj
 0001:000173e3       ??$__acrt_mbs_to_wcs_cp@U__crt_win32_buffer_internal_dynamic_resizing@@@@YAHQBDAAV?$__crt_win32_buffer@_WU__crt_win32_buffer_internal_dynamic_resizing@@@@I@Z 100183e3 f i libucrt:argv_wildcards.obj
 0001:000178f7       ?__acrt_get_utf8_acp_compatibility_codepage@@YAIXZ 100188f7 f i libucrt:argv_wildcards.obj
 0001:00017936       ?_deallocate@?$__crt_win32_buffer@_WU__crt_win32_buffer_internal_dynamic_resizing@@@@AAEXXZ 10018936 f i libucrt:argv_wildcards.obj
 0001:00017936       ?_deallocate@?$__crt_win32_buffer@DU__crt_win32_buffer_internal_dynamic_resizing@@@@AAEXXZ 10018936 f i libucrt:argv_wildcards.obj
 0001:00017950       ?allocate@?$__crt_win32_buffer@DU__crt_win32_buffer_internal_dynamic_resizing@@@@QAEHI@Z 10018950 f i libucrt:argv_wildcards.obj
 0001:0001798c       ?allocate@?$__crt_win32_buffer@_WU__crt_win32_buffer_internal_dynamic_resizing@@@@QAEHI@Z 1001898c f i libucrt:argv_wildcards.obj
 0001:000179cb       ?allocate@__crt_win32_buffer_internal_dynamic_resizing@@SAHQAPAXIABV__crt_win32_buffer_empty_debug_info@@@Z 100189cb f i libucrt:argv_wildcards.obj
 0001:00017a71       ___acrt_expand_narrow_argv_wildcards 10018a71 f   libucrt:argv_wildcards.obj
 0001:00017b43       ?allocate@?$__crt_win32_buffer@DU__crt_win32_buffer_no_resizing@@@@QAEHI@Z 10018b43 f i libucrt:getmodulefilenamea.obj
 0001:00017b6a       ?set_to_nullptr@?$__crt_win32_buffer@DU__crt_win32_buffer_no_resizing@@@@QAEXXZ 10018b6a f i libucrt:getmodulefilenamea.obj
 0001:00017b7e       ___acrt_GetModuleFileNameA 10018b7e f   libucrt:getmodulefilenamea.obj
 0001:0001813d       ___acrt_initialize_multibyte 1001913d f   libucrt:mbctype.obj
 0001:00018185       ___acrt_update_thread_multibyte_data 10019185 f   libucrt:mbctype.obj
 0001:00018198       __setmbcp_nolock           10019198 f   libucrt:mbctype.obj
 0001:00018463       __ismbblead                10019463 f   libucrt:ismbbyte.obj
 0001:0001847b       ___acrt_initialize_command_line 1001947b f   libucrt:argv_data.obj
 0001:00018494       ___acrt_MultiByteToWideChar 10019494 f   libucrt:multibytetowidechar.obj
 0001:00018510       ___acrt_WideCharToMultiByte 10019510 f   libucrt:widechartomultibyte.obj
 0001:000185f4       ___dcrt_get_narrow_environment_from_os 100195f4 f   libucrt:get_environment_from_os.obj
 0001:00018678       ___acrt_initialize_heap    10019678 f   libucrt:heap_handle.obj
 0001:00018689       ___acrt_uninitialize_heap  10019689 f   libucrt:heap_handle.obj
 0001:00018693       ___acrt_execute_initializers 10019693 f   libucrt:shared_initialization.obj
 0001:000186fb       ___acrt_execute_uninitializers 100196fb f   libucrt:shared_initialization.obj
 0001:000187fa       ___acrt_get_sigabrt_handler 100197fa f   libucrt:signal.obj
 0001:00018821       ___acrt_initialize_signal_handlers 10019821 f   libucrt:signal.obj
 0001:0001883f       ___fpecode                 1001983f f   libucrt:signal.obj
 0001:00018848       _raise                     10019848 f   libucrt:signal.obj
 0001:00018a43       ___acrt_has_user_matherr   10019a43 f   libucrt:matherr.obj
 0001:00018a5b       ___acrt_initialize_user_matherr 10019a5b f   libucrt:matherr.obj
 0001:00018a6a       ___acrt_invoke_user_matherr 10019a6a f   libucrt:matherr.obj
 0001:00018c79       ___acrt_stdio_flush_nolock 10019c79 f   libucrt:fflush.obj
 0001:00018cde       __fflush_nolock            10019cde f   libucrt:fflush.obj
 0001:00018d26       __flushall                 10019d26 f   libucrt:fflush.obj
 0001:00018d2f       ___pctype_func             10019d2f f   libucrt:ctype.obj
 0001:00018d53       _iswctype                  10019d53 f   libucrt:iswctype.obj
 0001:00018dbc       ___acrt_add_locale_ref     10019dbc f   libucrt:locale_refcounting.obj
 0001:00018e39       ___acrt_free_locale        10019e39 f   libucrt:locale_refcounting.obj
 0001:00018f81       ___acrt_locale_add_lc_time_reference 10019f81 f   libucrt:locale_refcounting.obj
 0001:00018faa       ___acrt_locale_free_lc_time_if_unreferenced 10019faa f   libucrt:locale_refcounting.obj
 0001:00018fdb       ___acrt_locale_release_lc_time_reference 10019fdb f   libucrt:locale_refcounting.obj
 0001:00019004       ___acrt_release_locale_ref 1001a004 f   libucrt:locale_refcounting.obj
 0001:00019085       ___acrt_update_thread_locale_data 1001a085 f   libucrt:locale_refcounting.obj
 0001:00019106       __updatetlocinfoEx_nolock  1001a106 f   libucrt:locale_refcounting.obj
 0001:00019156       __query_new_mode           1001a156 f   libucrt:new_mode.obj
 0001:000191ad       ___acrt_DownlevelLocaleNameToLCID 1001a1ad f   libucrt:lcidtoname_downlevel.obj
 0001:000191d9       __isleadbyte_l             1001a1d9 f i libucrt:_wctype.obj
 0001:0001923f       ?__mbrtowc_utf8@__crt_mbstring@@YAIPA_WPBDIPAU_Mbstatet@@@Z 1001a23f f   libucrt:mbrtowc.obj
 0001:0001927f       ?__mbsrtowcs_utf8@__crt_mbstring@@YAIPA_WPAPBDIPAU_Mbstatet@@@Z 1001a27f f   libucrt:mbrtowc.obj
 0001:0001937a       ?return_illegal_sequence@__crt_mbstring@@YAIPAU_Mbstatet@@@Z 1001a37a f i libucrt:c32rtomb.obj
 0001:00019399       ___acrt_fp_strflt_to_string 1001a399 f   libucrt:_fptostr.obj
 0001:00019460       ?divide@__crt_strtox@@YA_KAAUbig_integer@1@ABU21@@Z 1001a460 f i libucrt:cfout.obj
 0001:000198f8       ___acrt_fltout             1001a8f8 f   libucrt:cfout.obj
 0001:0001ac42       __fcloseall                1001bc42 f   libucrt:closeall.obj
 0001:0001aced       ___acrt_stdio_free_buffer_nolock 1001bced f   libucrt:_freebuf.obj
 0001:0001ad2d       __isatty                   1001bd2d f   libucrt:isatty.obj
 0001:0001ad83       ___acrt_locale_free_monetary 1001bd83 f   libucrt:initmon.obj
 0001:0001ae81       ___acrt_locale_free_numeric 1001be81 f   libucrt:initnum.obj
 0001:0001af22       ___acrt_locale_free_time   1001bf22 f   libucrt:inittime.obj
 0001:0001b006       ___acrt_GetStringTypeA     1001c006 f   libucrt:getstringtypea.obj
 0001:0001b109       __freea_crt                1001c109 f i libucrt:getstringtypea.obj
 0001:0001b129       ___acrt_lowio_create_handle_array 1001c129 f   libucrt:osfinfo.obj
 0001:0001b1a4       ___acrt_lowio_destroy_handle_array 1001c1a4 f   libucrt:osfinfo.obj
 0001:0001b1d9       ___acrt_lowio_ensure_fh_exists 1001c1d9 f   libucrt:osfinfo.obj
 0001:0001b277       ___acrt_lowio_lock_fh      1001c277 f   libucrt:osfinfo.obj
 0001:0001b29a       ___acrt_lowio_unlock_fh    1001c29a f   libucrt:osfinfo.obj
 0001:0001b2bd       __free_osfhnd              1001c2bd f   libucrt:osfinfo.obj
 0001:0001b34e       __get_osfhandle            1001c34e f   libucrt:osfinfo.obj
 0001:0001b400       _qsort                     1001c400 f   libucrt:qsort.obj
 0001:0001b8f7       _strncpy_s                 1001c8f7 f   libucrt:strncpy_s.obj
 0001:0001b910       _strpbrk                   1001c910 f   libucrt:strpbrk.obj
 0001:0001b950       __mbsdec                   1001c950 f   libucrt:mbsdec.obj
 0001:0001b967       __mbsdec_l                 1001c967 f   libucrt:mbsdec.obj
 0001:0001bbde       ___acrt_LCMapStringA       1001cbde f   libucrt:lcmapstringa.obj
 0001:0001bcd8       __commit                   1001ccd8 f   libucrt:commit.obj
 0001:0001c4ce       __write                    1001d4ce f   libucrt:write.obj
 0001:0001c5c0       __write_nolock             1001d5c0 f   libucrt:write.obj
 0001:0001c7a2       ___acrt_GetStringTypeW     1001d7a2 f   libucrt:getstringtypew.obj
 0001:0001c7bb       ___ascii_wcsnicmp          1001d7bb f   libucrt:wcsnicmp.obj
 0001:0001c80a       ?__mbrtoc32_utf8@__crt_mbstring@@YAIPA_UPBDIPAU_Mbstatet@@@Z 1001d80a f   libucrt:mbrtoc32.obj
 0001:0001c9b1       _fegetenv                  1001d9b1 f   libucrt:fegetenv.obj
 0001:0001c9ce       _fesetenv                  1001d9ce f   libucrt:fesetenv.obj
 0001:0001ca19       _feholdexcept              1001da19 f   libucrt:feholdexcept.obj
 0001:0001ca70       __CIlog10                  1001da70 f   libucrt:log10_impl.obj
 0001:0001caab       __CIlog10_default          1001daab f   libucrt:log10_impl.obj
 0001:0001cabf       __log10_default            1001dabf     libucrt:log10_impl.obj
 0001:0001cb80       _ceil                      1001db80 f   libucrt:ceil_pentium4.obj
 0001:0001cbc0       __ceil_pentium4            1001dbc0 f   libucrt:ceil_pentium4.obj
 0001:0001cd19       __lseeki64_nolock          1001dd19 f   libucrt:lseek.obj
 0001:0001cd34       __fclose_nolock            1001dd34 f   libucrt:fclose.obj
 0001:0001cdab       _fclose                    1001ddab f   libucrt:fclose.obj
 0001:0001ce2f       __query_app_type           1001de2f f   libucrt:report_runtime_error.obj
 0001:0001ce35       ___strncnt                 1001de35 f   libucrt:strncnt.obj
 0001:0001ce51       __putwch_nolock            1001de51 f   libucrt:putwch.obj
 0001:0001d190       ___acrt_fenv_get_control   1001e190 f   libucrt:_fenvutils.obj
 0001:0001d210       ___acrt_fenv_get_status    1001e210 f   libucrt:_fenvutils.obj
 0001:0001d2c8       ___acrt_fenv_set_control   1001e2c8 f   libucrt:_fenvutils.obj
 0001:0001d330       ___acrt_fenv_set_status    1001e330 f   libucrt:_fenvutils.obj
 0001:0001d427       __clearfp                  1001e427 f   libucrt:ieee87.obj
 0001:0001d505       ___acrt_initialize_sse2    1001e505 f   libucrt:mathfcns.obj
 0001:0001d520       __CIlog10_pentium4         1001e520 f   libucrt:log10_pentium4.obj
 0001:0001d538       __log10_pentium4           1001e538     libucrt:log10_pentium4.obj
 0001:0001d7d0       __fFEXP                    1001e7d0 f   libucrt:87tran.obj
 0001:0001d827       __rtinfpopse               1001e827     libucrt:87tran.obj
 0001:0001d829       __rtinfnpopse              1001e829     libucrt:87tran.obj
 0001:0001d839       __fFLN                     1001e839     libucrt:87tran.obj
 0001:0001d8ee       __rtinfpop                 1001e8ee     libucrt:87tran.obj
 0001:0001d8f0       __rtinfnpop                1001e8f0     libucrt:87tran.obj
 0001:0001d900       __rtforexpinf              1001e900 f   libucrt:87tran.obj
 0001:0001d90d       __ffexpm1                  1001e90d     libucrt:87tran.obj
 0001:0001d9c0       __trandisp1                1001e9c0 f   libucrt:87disp.obj
 0001:0001da35       __trandisp2                1001ea35 f   libucrt:87disp.obj
 0001:0001dacf       __rttospopde               1001eacf     libucrt:87disp.obj
 0001:0001dad4       __rttospop                 1001ead4     libucrt:87disp.obj
 0001:0001dae0       __rtnospop                 1001eae0 f   libucrt:87disp.obj
 0001:0001daf0       __rttosnpop                1001eaf0 f   libucrt:87disp.obj
 0001:0001daf1       __rtnospopde               1001eaf1     libucrt:87disp.obj
 0001:0001daf8       __rtzeropop                1001eaf8     libucrt:87disp.obj
 0001:0001dafa       __rtzeronpop               1001eafa     libucrt:87disp.obj
 0001:0001db00       __rtzerospop               1001eb00 f   libucrt:87disp.obj
 0001:0001db0d       __rtonepop                 1001eb0d     libucrt:87disp.obj
 0001:0001db10       __rtonenpop                1001eb10 f   libucrt:87disp.obj
 0001:0001db20       __tosnan1                  1001eb20 f   libucrt:87disp.obj
 0001:0001db50       __nosnan2                  1001eb50 f   libucrt:87disp.obj
 0001:0001db60       __tosnan2                  1001eb60 f   libucrt:87disp.obj
 0001:0001db90       __nan2                     1001eb90 f   libucrt:87disp.obj
 0001:0001dbd0       __rtindfpop                1001ebd0 f   libucrt:87disp.obj
 0001:0001dbd2       __rtindfnpop               1001ebd2     libucrt:87disp.obj
 0001:0001dbe3       __rttosnpopde              1001ebe3     libucrt:87disp.obj
 0001:0001dbf0       __rtatan2inf               1001ebf0 f   libucrt:87disp.obj
 0001:0001dc0d       __rtchsifneg               1001ec0d     libucrt:87disp.obj
 0001:0001dc20       __twoToTOS                 1001ec20 f   libucrt:common.obj
 0001:0001dc35       __load_CW                  1001ec35 f   libucrt:common.obj
 0001:0001dc4c       __convertTOStoQNaN         1001ec4c f   libucrt:common.obj
 0001:0001dc65       __fload_withFB             1001ec65 f   libucrt:common.obj
 0001:0001dca8       __checkTOS_withFB          1001eca8 f   libucrt:common.obj
 0001:0001dcbe       __fast_exit                1001ecbe f   libucrt:common.obj
 0001:0001dccb       __math_exit                1001eccb f   libucrt:common.obj
 0001:0001dcf5       __check_overflow_exit      1001ecf5 f   libucrt:common.obj
 0001:0001dd09       __check_range_exit         1001ed09 f   libucrt:common.obj
 0001:0001ddb0       __startTwoArgErrorHandling 1001edb0 f   libucrt:genexcep.obj
 0001:0001ddc7       __startOneArgErrorHandling 1001edc7 f   libucrt:genexcep.obj
 0001:0001de03       ___libm_error_support      1001ee03 f   libucrt:libm_error.obj
 0001:0001dff7       __ceil_default             1001eff7 f   libucrt:ceil.obj
 0001:0001e138       __close                    1001f138 f   libucrt:close.obj
 0001:0001e1c5       __close_nolock             1001f1c5 f   libucrt:close.obj
 0001:0001e261       ?__acrt_stdio_free_stream@@YAXV__crt_stdio_stream@@@Z 1001f261 f   libucrt:stream.obj
 0001:0001e2a0       ___ascii_strnicmp          1001f2a0 f   libucrt:_strnicm.obj
 0001:0001e320       ___dcrt_lowio_ensure_console_output_initialized 1001f320 f   libucrt:initcon.obj
 0001:0001e33f       ___dcrt_terminate_console_output 1001f33f f   libucrt:initcon.obj
 0001:0001e356       ___dcrt_write_console      1001f356 f   libucrt:initcon.obj
 0001:0001e3ab       __clrfp                    1001f3ab f   libucrt:fpctrl.obj
 0001:0001e3bc       __ctrlfp                   1001f3bc f   libucrt:fpctrl.obj
 0001:0001e3e6       __set_statfp               1001f3e6 f   libucrt:fpctrl.obj
 0001:0001e43f       __statfp                   1001f43f f   libucrt:fpctrl.obj
 0001:0001e44f       __d_inttype                1001f44f f   libucrt:powhlp.obj
 0001:0001e4b7       __powhlp                   1001f4b7 f   libucrt:powhlp.obj
 0001:0001e5e2       __87except                 1001f5e2 f   libucrt:87except.obj
 0001:0001e6ec       __frnd                     1001f6ec f   libucrt:frnd.obj
 0001:0001e700       __errcode                  1001f700 f   libucrt:fpexcept.obj
 0001:0001e734       __except1                  1001f734 f   libucrt:fpexcept.obj
 0001:0001e802       __handle_exc               1001f802 f   libucrt:fpexcept.obj
 0001:0001e9ed       __raise_exc                1001f9ed f   libucrt:fpexcept.obj
 0001:0001ea10       __raise_exc_ex             1001fa10 f   libucrt:fpexcept.obj
 0001:0001ed06       __set_errno_from_matherr   1001fd06 f   libucrt:fpexcept.obj
 0001:0001ed35       __umatherr                 1001fd35 f   libucrt:fpexcept.obj
 0001:0001edd5       __decomp                   1001fdd5 f   libucrt:util.obj
 0001:0001eea7       __set_exp                  1001fea7 f   libucrt:util.obj
 0001:0001eed4       __sptype                   1001fed4 f   libucrt:util.obj
 0001:0001ef32       __fpclass                  1001ff32 f   libucrt:ieeemisc.obj
 0001:0001efd6       _IsProcessorFeaturePresent@4 1001ffd6 f   kernel32:KERNEL32.dll
 0001:0001efe0       __FindPESection            1001ffe0 f   LIBCMT:pesect.obj
 0001:0001f030       __IsNonwritableInCurrentImage 10020030 f   LIBCMT:pesect.obj
 0001:0001f0f0       __ValidateImageBase        100200f0 f   LIBCMT:pesect.obj
 0001:0001f123       __EH_prolog3_catch         10020123 f   LIBCMT:ehprolg3.obj
 0001:0001f160       __aulldvrm                 10020160 f   LIBCMT:ulldvrm.obj
 0001:0001f200       __allmul                   10020200 f   LIBCMT:llmul.obj
 0001:0001f240       __alldvrm                  10020240 f   LIBCMT:lldvrm.obj
 0001:0001f320       __aullshr                  10020320 f   LIBCMT:ullshr.obj
 0001:0001f340       __allshl                   10020340 f   LIBCMT:llshl.obj
 0001:0001f360       __ftol2_sse                10020360     LIBCMT:ftol2.obj
 0001:0001f360       __ftoi2                    10020360 f   LIBCMT:ftol2.obj
 0001:0001f360       __ftol2_sse_excpt          10020360     LIBCMT:ftol2.obj
 0001:0001f3e0       __ftoui2                   100203e0 f   LIBCMT:ftol2.obj
 0001:0001f490       __ftol2                    10020490 f   LIBCMT:ftol2.obj
 0001:0001f540       __ftoul2                   10020540 f   LIBCMT:ftol2.obj
 0001:0001f600       _strrchr                   10020600 f   libvcruntime:strrchr.obj
 0001:0001f740       _strchr                    10020740 f   libvcruntime:strchr.obj
 0001:0001f7ae       ___from_strstr_to_strchr   100207ae     libvcruntime:strchr.obj
 0001:0001f86b       __filter_x86_sse2_floating_point_exception_default 1002086b f   LIBCMT:x86_exception_filter.obj
 0001:0001f86b       __filter_x86_sse2_floating_point_exception 1002086b f   LIBCMT:x86_exception_filter.obj
 0002:00000000       __imp__RegQueryValueExW@24 10021000     advapi32:ADVAPI32.dll
 0002:00000004       __imp__RegSetValueExW@24   10021004     advapi32:ADVAPI32.dll
 0002:00000008       __imp__RegQueryInfoKeyW@48 10021008     advapi32:ADVAPI32.dll
 0002:0000000c       __imp__RegOpenKeyExW@20    1002100c     advapi32:ADVAPI32.dll
 0002:00000010       __imp__RegEnumKeyExW@32    10021010     advapi32:ADVAPI32.dll
 0002:00000014       __imp__RegDeleteValueW@8   10021014     advapi32:ADVAPI32.dll
 0002:00000018       __imp__RegDeleteKeyW@8     10021018     advapi32:ADVAPI32.dll
 0002:0000001c       __imp__RegCreateKeyExW@36  1002101c     advapi32:ADVAPI32.dll
 0002:00000020       __imp__RegCloseKey@4       10021020     advapi32:ADVAPI32.dll
 0002:00000024       \177ADVAPI32_NULL_THUNK_DATA 10021024     advapi32:ADVAPI32.dll
 0002:00000028       __imp__GetObjectW@12       10021028     gdi32:GDI32.dll
 0002:0000002c       __imp__SelectObject@8      1002102c     gdi32:GDI32.dll
 0002:00000030       __imp__DeleteObject@4      10021030     gdi32:GDI32.dll
 0002:00000034       __imp__CreateCompatibleDC@4 10021034     gdi32:GDI32.dll
 0002:00000038       __imp__BitBlt@36           10021038     gdi32:GDI32.dll
 0002:0000003c       __imp__SetWindowOrgEx@16   1002103c     gdi32:GDI32.dll
 0002:00000040       __imp__SetWindowExtEx@16   10021040     gdi32:GDI32.dll
 0002:00000044       __imp__SetViewportOrgEx@16 10021044     gdi32:GDI32.dll
 0002:00000048       __imp__LPtoDP@12           10021048     gdi32:GDI32.dll
 0002:0000004c       __imp__SetMapMode@8        1002104c     gdi32:GDI32.dll
 0002:00000050       __imp__SaveDC@4            10021050     gdi32:GDI32.dll
 0002:00000054       __imp__RestoreDC@8         10021054     gdi32:GDI32.dll
 0002:00000058       __imp__GetDeviceCaps@8     10021058     gdi32:GDI32.dll
 0002:0000005c       __imp__DeleteMetaFile@4    1002105c     gdi32:GDI32.dll
 0002:00000060       __imp__DeleteDC@4          10021060     gdi32:GDI32.dll
 0002:00000064       __imp__CreateRectRgnIndirect@4 10021064     gdi32:GDI32.dll
 0002:00000068       __imp__CreateMetaFileW@4   10021068     gdi32:GDI32.dll
 0002:0000006c       __imp__CreateDCW@16        1002106c     gdi32:GDI32.dll
 0002:00000070       __imp__CloseMetaFile@4     10021070     gdi32:GDI32.dll
 0002:00000074       \177GDI32_NULL_THUNK_DATA  10021074     gdi32:GDI32.dll
 0002:00000078       __imp__CloseHandle@4       10021078     kernel32:KERNEL32.dll
 0002:0000007c       __imp__SetEvent@4          1002107c     kernel32:KERNEL32.dll
 0002:00000080       __imp__CreateMutexW@12     10021080     kernel32:KERNEL32.dll
 0002:00000084       __imp__CreateEventW@16     10021084     kernel32:KERNEL32.dll
 0002:00000088       __imp__GetCurrentProcessId@0 10021088     kernel32:KERNEL32.dll
 0002:0000008c       __imp__CreateFileW@28      1002108c     kernel32:KERNEL32.dll
 0002:00000090       __imp__GetConsoleMode@8    10021090     kernel32:KERNEL32.dll
 0002:00000094       __imp__GetConsoleCP@0      10021094     kernel32:KERNEL32.dll
 0002:00000098       __imp__WriteFile@20        10021098     kernel32:KERNEL32.dll
 0002:0000009c       __imp__FlushFileBuffers@4  1002109c     kernel32:KERNEL32.dll
 0002:000000a0       __imp__SetStdHandle@8      100210a0     kernel32:KERNEL32.dll
 0002:000000a4       __imp__GetStringTypeW@16   100210a4     kernel32:KERNEL32.dll
 0002:000000a8       __imp__SetFilePointerEx@20 100210a8     kernel32:KERNEL32.dll
 0002:000000ac       __imp__FreeEnvironmentStringsW@4 100210ac     kernel32:KERNEL32.dll
 0002:000000b0       __imp__GetEnvironmentStringsW@0 100210b0     kernel32:KERNEL32.dll
 0002:000000b4       __imp__lstrcmpiW@8         100210b4     kernel32:KERNEL32.dll
 0002:000000b8       __imp__GetCommandLineA@0   100210b8     kernel32:KERNEL32.dll
 0002:000000bc       __imp__GetCPInfo@8         100210bc     kernel32:KERNEL32.dll
 0002:000000c0       __imp__GetOEMCP@0          100210c0     kernel32:KERNEL32.dll
 0002:000000c4       __imp__GetACP@0            100210c4     kernel32:KERNEL32.dll
 0002:000000c8       __imp__IsValidCodePage@4   100210c8     kernel32:KERNEL32.dll
 0002:000000cc       __imp__FindNextFileW@8     100210cc     kernel32:KERNEL32.dll
 0002:000000d0       __imp__FindFirstFileExW@24 100210d0     kernel32:KERNEL32.dll
 0002:000000d4       __imp__FindClose@4         100210d4     kernel32:KERNEL32.dll
 0002:000000d8       __imp__GetFileType@4       100210d8     kernel32:KERNEL32.dll
 0002:000000dc       __imp__GetStdHandle@4      100210dc     kernel32:KERNEL32.dll
 0002:000000e0       __imp__LCMapStringW@24     100210e0     kernel32:KERNEL32.dll
 0002:000000e4       __imp__HeapReAlloc@16      100210e4     kernel32:KERNEL32.dll
 0002:000000e8       __imp__HeapSize@12         100210e8     kernel32:KERNEL32.dll
 0002:000000ec       __imp__MulDiv@12           100210ec     kernel32:KERNEL32.dll
 0002:000000f0       __imp__GlobalLock@4        100210f0     kernel32:KERNEL32.dll
 0002:000000f4       __imp__GlobalUnlock@4      100210f4     kernel32:KERNEL32.dll
 0002:000000f8       __imp__GlobalAlloc@8       100210f8     kernel32:KERNEL32.dll
 0002:000000fc       __imp__FindResourceW@12    100210fc     kernel32:KERNEL32.dll
 0002:00000100       __imp__SizeofResource@8    10021100     kernel32:KERNEL32.dll
 0002:00000104       __imp__LoadResource@8      10021104     kernel32:KERNEL32.dll
 0002:00000108       __imp__LoadLibraryExW@12   10021108     kernel32:KERNEL32.dll
 0002:0000010c       __imp__GetProcAddress@8    1002110c     kernel32:KERNEL32.dll
 0002:00000110       __imp__GetModuleHandleW@4  10021110     kernel32:KERNEL32.dll
 0002:00000114       __imp__GetModuleFileNameW@12 10021114     kernel32:KERNEL32.dll
 0002:00000118       __imp__FreeLibrary@4       10021118     kernel32:KERNEL32.dll
 0002:0000011c       __imp__DisableThreadLibraryCalls@4 1002111c     kernel32:KERNEL32.dll
 0002:00000120       __imp__GetCurrentThreadId@0 10021120     kernel32:KERNEL32.dll
 0002:00000124       __imp__Sleep@4             10021124     kernel32:KERNEL32.dll
 0002:00000128       __imp__WaitForSingleObject@8 10021128     kernel32:KERNEL32.dll
 0002:0000012c       __imp__ReleaseMutex@4      1002112c     kernel32:KERNEL32.dll
 0002:00000130       __imp__ResetEvent@4        10021130     kernel32:KERNEL32.dll
 0002:00000134       __imp__EnterCriticalSection@4 10021134     kernel32:KERNEL32.dll
 0002:00000138       __imp__LeaveCriticalSection@4 10021138     kernel32:KERNEL32.dll
 0002:0000013c       __imp__SetLastError@4      1002113c     kernel32:KERNEL32.dll
 0002:00000140       __imp__EncodePointer@4     10021140     kernel32:KERNEL32.dll
 0002:00000144       __imp__DeleteCriticalSection@4 10021144     kernel32:KERNEL32.dll
 0002:00000148       __imp__InitializeCriticalSectionEx@12 10021148     kernel32:KERNEL32.dll
 0002:0000014c       __imp__GetLastError@0      1002114c     kernel32:KERNEL32.dll
 0002:00000150       __imp__RaiseException@16   10021150     kernel32:KERNEL32.dll
 0002:00000154       __imp__DecodePointer@4     10021154     kernel32:KERNEL32.dll
 0002:00000158       __imp__WideCharToMultiByte@32 10021158     kernel32:KERNEL32.dll
 0002:0000015c       __imp__GetCommandLineW@0   1002115c     kernel32:KERNEL32.dll
 0002:00000160       __imp__MultiByteToWideChar@24 10021160     kernel32:KERNEL32.dll
 0002:00000164       __imp__WriteConsoleW@20    10021164     kernel32:KERNEL32.dll
 0002:00000168       __imp__GetModuleHandleExW@12 10021168     kernel32:KERNEL32.dll
 0002:0000016c       __imp__ExitProcess@4       1002116c     kernel32:KERNEL32.dll
 0002:00000170       __imp__VirtualQuery@12     10021170     kernel32:KERNEL32.dll
 0002:00000174       __imp__VirtualProtect@16   10021174     kernel32:KERNEL32.dll
 0002:00000178       __imp__GetSystemInfo@4     10021178     kernel32:KERNEL32.dll
 0002:0000017c       __imp__TlsFree@4           1002117c     kernel32:KERNEL32.dll
 0002:00000180       __imp__TlsSetValue@8       10021180     kernel32:KERNEL32.dll
 0002:00000184       __imp__TlsGetValue@4       10021184     kernel32:KERNEL32.dll
 0002:00000188       __imp__TlsAlloc@0          10021188     kernel32:KERNEL32.dll
 0002:0000018c       __imp__InterlockedFlushSList@4 1002118c     kernel32:KERNEL32.dll
 0002:00000190       __imp__RtlUnwind@16        10021190     kernel32:KERNEL32.dll
 0002:00000194       __imp__LoadLibraryExA@12   10021194     kernel32:KERNEL32.dll
 0002:00000198       __imp__VirtualFree@12      10021198     kernel32:KERNEL32.dll
 0002:0000019c       __imp__VirtualAlloc@16     1002119c     kernel32:KERNEL32.dll
 0002:000001a0       __imp__FlushInstructionCache@12 100211a0     kernel32:KERNEL32.dll
 0002:000001a4       __imp__InterlockedPushEntrySList@8 100211a4     kernel32:KERNEL32.dll
 0002:000001a8       __imp__InterlockedPopEntrySList@4 100211a8     kernel32:KERNEL32.dll
 0002:000001ac       __imp__GetProcessHeap@0    100211ac     kernel32:KERNEL32.dll
 0002:000001b0       __imp__HeapFree@12         100211b0     kernel32:KERNEL32.dll
 0002:000001b4       __imp__HeapAlloc@12        100211b4     kernel32:KERNEL32.dll
 0002:000001b8       __imp__OutputDebugStringW@4 100211b8     kernel32:KERNEL32.dll
 0002:000001bc       __imp__InitializeSListHead@4 100211bc     kernel32:KERNEL32.dll
 0002:000001c0       __imp__GetSystemTimeAsFileTime@4 100211c0     kernel32:KERNEL32.dll
 0002:000001c4       __imp__QueryPerformanceCounter@4 100211c4     kernel32:KERNEL32.dll
 0002:000001c8       __imp__GetStartupInfoW@4   100211c8     kernel32:KERNEL32.dll
 0002:000001cc       __imp__IsDebuggerPresent@0 100211cc     kernel32:KERNEL32.dll
 0002:000001d0       __imp__IsProcessorFeaturePresent@4 100211d0     kernel32:KERNEL32.dll
 0002:000001d4       __imp__TerminateProcess@8  100211d4     kernel32:KERNEL32.dll
 0002:000001d8       __imp__GetCurrentProcess@0 100211d8     kernel32:KERNEL32.dll
 0002:000001dc       __imp__SetUnhandledExceptionFilter@4 100211dc     kernel32:KERNEL32.dll
 0002:000001e0       __imp__UnhandledExceptionFilter@4 100211e0     kernel32:KERNEL32.dll
 0002:000001e4       __imp__InitializeCriticalSectionAndSpinCount@8 100211e4     kernel32:KERNEL32.dll
 0002:000001e8       __imp__WaitForSingleObjectEx@12 100211e8     kernel32:KERNEL32.dll
 0002:000001ec       \177KERNEL32_NULL_THUNK_DATA 100211ec     kernel32:KERNEL32.dll
 0002:000001f0       __imp__OleCreatePropertyFrame@44 100211f0     oleaut32:OLEAUT32.dll
 0002:000001f4       __imp__UnRegisterTypeLib@20 100211f4     oleaut32:OLEAUT32.dll
 0002:000001f8       __imp__RegisterTypeLib@12  100211f8     oleaut32:OLEAUT32.dll
 0002:000001fc       __imp__LoadRegTypeLib@20   100211fc     oleaut32:OLEAUT32.dll
 0002:00000200       __imp__LoadTypeLib@8       10021200     oleaut32:OLEAUT32.dll
 0002:00000204       __imp__VarUI4FromStr@16    10021204     oleaut32:OLEAUT32.dll
 0002:00000208       __imp__VariantInit@4       10021208     oleaut32:OLEAUT32.dll
 0002:0000020c       __imp__SysAllocStringByteLen@8 1002120c     oleaut32:OLEAUT32.dll
 0002:00000210       __imp__SysStringByteLen@4  10021210     oleaut32:OLEAUT32.dll
 0002:00000214       __imp__VariantChangeType@16 10021214     oleaut32:OLEAUT32.dll
 0002:00000218       __imp__VariantClear@4      10021218     oleaut32:OLEAUT32.dll
 0002:0000021c       __imp__SysStringLen@4      1002121c     oleaut32:OLEAUT32.dll
 0002:00000220       __imp__SysFreeString@4     10021220     oleaut32:OLEAUT32.dll
 0002:00000224       __imp__SysAllocStringLen@8 10021224     oleaut32:OLEAUT32.dll
 0002:00000228       __imp__SysAllocString@4    10021228     oleaut32:OLEAUT32.dll
 0002:0000022c       \177OLEAUT32_NULL_THUNK_DATA 1002122c     oleaut32:OLEAUT32.dll
 0002:00000230       __imp__UnregisterClassW@8  10021230     user32:USER32.dll
 0002:00000234       __imp__PostMessageW@16     10021234     user32:USER32.dll
 0002:00000238       __imp__DefWindowProcW@16   10021238     user32:USER32.dll
 0002:0000023c       __imp__CallWindowProcW@20  1002123c     user32:USER32.dll
 0002:00000240       __imp__RegisterClassExW@4  10021240     user32:USER32.dll
 0002:00000244       __imp__GetClassInfoExW@12  10021244     user32:USER32.dll
 0002:00000248       __imp__CreateWindowExW@48  10021248     user32:USER32.dll
 0002:0000024c       __imp__IsWindow@4          1002124c     user32:USER32.dll
 0002:00000250       __imp__IsChild@8           10021250     user32:USER32.dll
 0002:00000254       __imp__DestroyWindow@4     10021254     user32:USER32.dll
 0002:00000258       __imp__ShowWindow@8        10021258     user32:USER32.dll
 0002:0000025c       __imp__SetWindowPos@28     1002125c     user32:USER32.dll
 0002:00000260       __imp__CharNextW@4         10021260     user32:USER32.dll
 0002:00000264       __imp__SetFocus@4          10021264     user32:USER32.dll
 0002:00000268       __imp__LoadBitmapW@8       10021268     user32:USER32.dll
 0002:0000026c       __imp__RegisterClassW@4    1002126c     user32:USER32.dll
 0002:00000270       __imp__PeekMessageW@20     10021270     user32:USER32.dll
 0002:00000274       __imp__LoadCursorW@8       10021274     user32:USER32.dll
 0002:00000278       __imp__GetParent@4         10021278     user32:USER32.dll
 0002:0000027c       __imp__SetWindowLongW@12   1002127c     user32:USER32.dll
 0002:00000280       __imp__GetWindowLongW@8    10021280     user32:USER32.dll
 0002:00000284       __imp__PtInRect@12         10021284     user32:USER32.dll
 0002:00000288       __imp__EqualRect@8         10021288     user32:USER32.dll
 0002:0000028c       __imp__OffsetRect@12       1002128c     user32:USER32.dll
 0002:00000290       __imp__UnionRect@12        10021290     user32:USER32.dll
 0002:00000294       __imp__IntersectRect@12    10021294     user32:USER32.dll
 0002:00000298       __imp__GetClientRect@8     10021298     user32:USER32.dll
 0002:0000029c       __imp__InvalidateRect@12   1002129c     user32:USER32.dll
 0002:000002a0       __imp__SetWindowRgn@12     100212a0     user32:USER32.dll
 0002:000002a4       __imp__EndPaint@8          100212a4     user32:USER32.dll
 0002:000002a8       __imp__BeginPaint@8        100212a8     user32:USER32.dll
 0002:000002ac       __imp__ReleaseDC@8         100212ac     user32:USER32.dll
 0002:000002b0       __imp__GetDC@4             100212b0     user32:USER32.dll
 0002:000002b4       __imp__GetKeyState@4       100212b4     user32:USER32.dll
 0002:000002b8       __imp__GetFocus@0          100212b8     user32:USER32.dll
 0002:000002bc       \177USER32_NULL_THUNK_DATA 100212bc     user32:USER32.dll
 0002:000002c0       __imp__StringFromGUID2@12  100212c0     ole32:ole32.dll
 0002:000002c4       __imp__CoTaskMemAlloc@4    100212c4     ole32:ole32.dll
 0002:000002c8       __imp__CoTaskMemRealloc@8  100212c8     ole32:ole32.dll
 0002:000002cc       __imp__CoTaskMemFree@4     100212cc     ole32:ole32.dll
 0002:000002d0       __imp__ReadClassStm@8      100212d0     ole32:ole32.dll
 0002:000002d4       __imp__WriteClassStm@8     100212d4     ole32:ole32.dll
 0002:000002d8       __imp__CreateDataAdviseHolder@4 100212d8     ole32:ole32.dll
 0002:000002dc       __imp__OleSaveToStream@8   100212dc     ole32:ole32.dll
 0002:000002e0       __imp__CreateOleAdviseHolder@4 100212e0     ole32:ole32.dll
 0002:000002e4       __imp__OleRegGetUserType@12 100212e4     ole32:ole32.dll
 0002:000002e8       __imp__OleRegGetMiscStatus@12 100212e8     ole32:ole32.dll
 0002:000002ec       __imp__OleRegEnumVerbs@8   100212ec     ole32:ole32.dll
 0002:000002f0       __imp__CLSIDFromProgID@8   100212f0     ole32:ole32.dll
 0002:000002f4       __imp__CoCreateInstance@20 100212f4     ole32:ole32.dll
 0002:000002f8       \177ole32_NULL_THUNK_DATA  100212f8     ole32:ole32.dll
 0002:000002fc       ___guard_check_icall_fptr  100212fc     LIBCMT:guard_support.obj
 0002:00000300       ___xc_a                    10021300     LIBCMT:initializers.obj
 0002:00000318       ___xc_z                    10021318     LIBCMT:initializers.obj
 0002:0000031c       ___xi_a                    1002131c     LIBCMT:initializers.obj
 0002:00000324       ___acrt_stdio_initializer  10021324     libucrt:stdio_initializer.obj
 0002:00000328       ___acrt_multibyte_initializer 10021328     libucrt:multibyte_initializer.obj
 0002:0000032c       ___acrt_tran_sse2_initializer 1002132c     libucrt:sse2_initializer.obj
 0002:00000330       ___xi_z                    10021330     LIBCMT:initializers.obj
 0002:00000334       ___xl_a                    10021334     LIBCMT:tlssup.obj
 0002:00000338       ___xl_z                    10021338     LIBCMT:tlssup.obj
 0002:0000033c       ___xp_a                    1002133c     LIBCMT:initializers.obj
 0002:00000340       ___acrt_locale_terminator  10021340     libucrt:locale_initializer.obj
 0002:00000344       ___dcrt_console_output_terminator 10021344     libucrt:console_output_initializer.obj
 0002:00000348       ___acrt_stdio_terminator   10021348     libucrt:stdio_initializer.obj
 0002:0000034c       ___xp_z                    1002134c     LIBCMT:initializers.obj
 0002:00000350       ___xt_a                    10021350     LIBCMT:initializers.obj
 0002:00000354       ___xt_z                    10021354     LIBCMT:initializers.obj
 0002:00000360       ??_C@_13HADIAKP@?$AAS@     10021360     OposVariant.obj
 0002:00000364       ??_C@_13LHMFKAAD@?$AAM@    10021364     OposVariant.obj
 0002:00000368       ??_C@_13MKMNOPIJ@?$AAD@    10021368     OposVariant.obj
 0002:0000036c       ??_C@_13OPKGLAFF@?$AAB@    1002136c     OposVariant.obj
 0002:00000370       ??_C@_17LLMMEOJD@?$AAV?$AAa?$AAl@ 10021370     OposVariant.obj
 0002:00000378       ??_C@_1BI@JFAIJMHL@?$AAF?$AAo?$AAr?$AAc?$AAe?$AAR?$AAe?$AAm?$AAo?$AAv?$AAe@ 10021378     OposVariant.obj
 0002:00000390       ??_C@_1BC@GCKHIPE@?$AAN?$AAo?$AAR?$AAe?$AAm?$AAo?$AAv?$AAe@ 10021390     OposVariant.obj
 0002:000003a4       ??_C@_1O@JDLOHAN@?$AAD?$AAe?$AAl?$AAe?$AAt?$AAe@ 100213a4     OposVariant.obj
 0002:000003b4       ??_C@_11LOCGONAA@@         100213b4     OposVariant.obj
 0002:000003b8       ??_7CComClassFactory@ATL@@6B@ 100213b8     ElectronicValueRW.obj
 0002:000003d0       ?_entries@?1??_GetEntries@CComClassFactory@ATL@@SGPBU_ATL_INTMAP_ENTRY@3@XZ@4QBU43@B 100213d0     ElectronicValueRW.obj
 0002:000003e8       __GUID_00000001_0000_0000_c000_000000000046 100213e8     ElectronicValueRW.obj
 0002:000003f8       ??_7?$CComObject@V?$CComEnum@UIEnumConnections@@$1?_GUID_b196b287_bab4_101a_b69c_00aa00341d07@@3U__s_GUID@@BUtagCONNECTDATA@@V?$_Copy@UtagCONNECTDATA@@@ATL@@VCComSingleThreadModel@6@@ATL@@@ATL@@6B@ 100213f8     ElectronicValueRW.obj
 0002:00000418       ?_entries@?1??_GetEntries@?$CComEnum@UIEnumConnections@@$1?_GUID_b196b287_bab4_101a_b69c_00aa00341d07@@3U__s_GUID@@BUtagCONNECTDATA@@V?$_Copy@UtagCONNECTDATA@@@ATL@@VCComSingleThreadModel@6@@ATL@@SGPBU_ATL_INTMAP_ENTRY@3@XZ@4QBU43@B 10021418     ElectronicValueRW.obj
 0002:00000430       _IID_IOPOSElectronicValueRW_1_12 10021430     ElectronicValueRW.obj
 0002:00000440       _IID_IOPOSElectronicValueRW_1_12_zz 10021440     ElectronicValueRW.obj
 0002:00000450       _IID_IOPOSElectronicValueRW_1_14 10021450     ElectronicValueRW.obj
 0002:00000460       __GUID_00000114_0000_0000_c000_000000000046 10021460     ElectronicValueRW.obj
 0002:00000470       ??_C@_1BK@BIGILECK@?$AAA?$AAd?$AAv?$AAa?$AAp?$AAi?$AA3?$AA2?$AA?4?$AAd?$AAl?$AAl@ 10021470     ElectronicValueRW.obj
 0002:0000048c       _IID_IOPOSElectronicValueRW_1_14_zz 1002148c     ElectronicValueRW.obj
 0002:0000049c       _IID_IOPOSElectronicValueRW_1_14_100 1002149c     ElectronicValueRW.obj
 0002:000004ac       ??_C@_0BI@MNCFCPFK@RegCreateKeyTransactedW@ 100214ac     ElectronicValueRW.obj
 0002:000004c4       _IID_IOPOSElectronicValueRW_1_14_100_zz 100214c4     ElectronicValueRW.obj
 0002:000004d4       __GUID_b196b287_bab4_101a_b69c_00aa00341d07 100214d4     ElectronicValueRW.obj
 0002:000004e4       _IID_IOPOSElectronicValueRW_1_15 100214e4     ElectronicValueRW.obj
 0002:000004f4       __GUID_b196b285_bab4_101a_b69c_00aa00341d07 100214f4     ElectronicValueRW.obj
 0002:00000504       _IID_IOPOSElectronicValueRW 10021504     ElectronicValueRW.obj
 0002:00000514       _LIBID_OposElectronicValueRW_CCO 10021514     ElectronicValueRW.obj
 0002:00000524       _DIID__IOPOSElectronicValueRWEvents 10021524     ElectronicValueRW.obj
 0002:00000534       _CLSID_OPOSElectronicValueRW 10021534     ElectronicValueRW.obj
 0002:00000544       __GUID_a6bc3ac0_dbaa_11ce_9de3_00aa004bb851 10021544     ElectronicValueRW.obj
 0002:00000554       __GUID_0000010c_0000_0000_c000_000000000046 10021554     ElectronicValueRW.obj
 0002:00000564       __GUID_00000146_0000_0000_c000_000000000046 10021564     ElectronicValueRW.obj
 0002:00000574       ??_7CComModule@ATL@@6B@    10021574     ElectronicValueRW.obj
 0002:0000059c       __GUID_922eada0_3424_11cf_b670_00aa004cd6d8 1002159c     ElectronicValueRW.obj
 0002:000005ac       __GUID_9c2cad80_3424_11cf_b670_00aa004cd6d8 100215ac     ElectronicValueRW.obj
 0002:000005bc       __GUID_00000119_0000_0000_c000_000000000046 100215bc     ElectronicValueRW.obj
 0002:000005cc       __GUID_b196b289_bab4_101a_b69c_00aa00341d07 100215cc     ElectronicValueRW.obj
 0002:000005dc       __GUID_00000000_0000_0000_c000_000000000046 100215dc     ElectronicValueRW.obj
 0002:000005ec       __GUID_00020400_0000_0000_c000_000000000046 100215ec     ElectronicValueRW.obj
 0002:000005fc       __GUID_00000117_0000_0000_c000_000000000046 100215fc     ElectronicValueRW.obj
 0002:00000610       ?_entries@?1??_GetEntries@COPOSElectronicValueRW@@SGPBU_ATL_INTMAP_ENTRY@ATL@@XZ@4QBU34@B 10021610     ElectronicValueRW.obj
 0002:00000778       ??_C@_1M@KANJNLFF@?$AAC?$AAL?$AAS?$AAI?$AAD@ 10021778     ElectronicValueRW.obj
 0002:00000784       ??_C@_1M@EJNEECMJ@?$AAA?$AAp?$AAp?$AAI?$AAD@ 10021784     ElectronicValueRW.obj
 0002:00000790       __GUID_cf51ed10_62fe_11cf_bf86_00a0c9034836 10021790     ElectronicValueRW.obj
 0002:000007a0       __GUID_0000010a_0000_0000_c000_000000000046 100217a0     ElectronicValueRW.obj
 0002:000007b0       __GUID_b196b283_bab4_101a_b69c_00aa00341d07 100217b0     ElectronicValueRW.obj
 0002:000007c0       __GUID_cb5bdc81_93c1_11cf_8f20_00805f2cd064 100217c0     ElectronicValueRW.obj
 0002:000007d0       ?pPropMap@?1??GetPropertyMap@COPOSElectronicValueRW@@SAPBUATL_PROPMAP_ENTRY@ATL@@XZ@4QBU34@B 100217d0     ElectronicValueRW.obj
 0002:0000083c       ??_C@_17DGDADEHL@?$AA_?$AAc?$AAx@ 1002183c     ElectronicValueRW.obj
 0002:00000844       ??_C@_17IOIMFDBO@?$AA_?$AAc?$AAy@ 10021844     ElectronicValueRW.obj
 0002:0000084c       __GUID_0000010e_0000_0000_c000_000000000046 1002184c     ElectronicValueRW.obj
 0002:0000085c       __GUID_b196b288_bab4_101a_b69c_00aa00341d07 1002185c     ElectronicValueRW.obj
 0002:0000086c       ?rgszNeverDelete@CRegParser@ATL@@1QBQB_WB 1002186c     ElectronicValueRW.obj
 0002:0000089c       ??_7?$CComObjectCached@VCComClassFactory@ATL@@@ATL@@6B@ 1002189c     ElectronicValueRW.obj
 0002:000008b4       ??_C@_1CA@BFAKJMNP@?$AAT?$AAr?$AAa?$AAn?$AAs?$AAi?$AAt?$AAi?$AAo?$AAn?$AAE?$AAv?$AAe?$AAn?$AAt@ 100218b4     ElectronicValueRW.obj
 0002:000008d4       ??_C@_1CE@PGFMOFKI@?$AAS?$AAt?$AAa?$AAt?$AAu?$AAs?$AAU?$AAp?$AAd?$AAa?$AAt?$AAe?$AAE?$AAv?$AAe@ 100218d4     ElectronicValueRW.obj
 0002:000008f8       ??_C@_1CI@HLBJDONE@?$AAO?$AAu?$AAt?$AAp?$AAu?$AAt?$AAC?$AAo?$AAm?$AAp?$AAl?$AAe?$AAt?$AAe?$AAE@ 100218f8     ElectronicValueRW.obj
 0002:00000920       ??_C@_1BG@LODEBHDD@?$AAE?$AAr?$AAr?$AAo?$AAr?$AAE?$AAv?$AAe?$AAn?$AAt@ 10021920     ElectronicValueRW.obj
 0002:00000938       ??_C@_1BM@CBGEBBBJ@?$AAD?$AAi?$AAr?$AAe?$AAc?$AAt?$AAI?$AAO?$AAE?$AAv?$AAe?$AAn?$AAt@ 10021938     ElectronicValueRW.obj
 0002:00000954       ??_C@_1BE@IEBMACEM@?$AAD?$AAa?$AAt?$AAa?$AAE?$AAv?$AAe?$AAn?$AAt@ 10021954     ElectronicValueRW.obj
 0002:00000968       ??_7CRegObject@ATL@@6B@    10021968     ElectronicValueRW.obj
 0002:00000980       __GUID_b196b286_bab4_101a_b69c_00aa00341d07 10021980     ElectronicValueRW.obj
 0002:00000990       __GUID_00000113_0000_0000_c000_000000000046 10021990     ElectronicValueRW.obj
 0002:000009a0       ??_C@_1BC@ENICKDH@?$AAC?$AAo?$AAn?$AAt?$AAe?$AAn?$AAt?$AAs@ 100219a0     ElectronicValueRW.obj
 0002:000009b4       __GUID_1c2056cc_5ef4_101b_8bc8_00aa003e3b29 100219b4     ElectronicValueRW.obj
 0002:000009c4       ??_C@_1CK@OEKPKBNA@?$AAC?$AAo?$AAm?$AAp?$AAo?$AAn?$AAe?$AAn?$AAt?$AA?5?$AAC?$AAa?$AAt?$AAe?$AAg@ 100219c4     ElectronicValueRW.obj
 0002:000009f0       ??_C@_1BC@NKMMNMGL@?$AAF?$AAi?$AAl?$AAe?$AAT?$AAy?$AAp?$AAe@ 100219f0     ElectronicValueRW.obj
 0002:00000a04       ??_C@_1BE@EKPAFMCP@?$AAI?$AAn?$AAt?$AAe?$AAr?$AAf?$AAa?$AAc?$AAe@ 10021a04     ElectronicValueRW.obj
 0002:00000a18       ??_C@_1BC@MAICEHGI@?$AAH?$AAa?$AAr?$AAd?$AAw?$AAa?$AAr?$AAe@ 10021a18     ElectronicValueRW.obj
 0002:00000a2c       ??_C@_19HLLLM@?$AAM?$AAi?$AAm?$AAe@ 10021a2c     ElectronicValueRW.obj
 0002:00000a38       ??_C@_17OMAOINJK@?$AAS?$AAA?$AAM@ 10021a38     ElectronicValueRW.obj
 0002:00000a40       ??_C@_1BC@IBECJAAI@?$AAS?$AAE?$AAC?$AAU?$AAR?$AAI?$AAT?$AAY@ 10021a40     ElectronicValueRW.obj
 0002:00000a54       ??_C@_1O@GBFINDKL@?$AAS?$AAY?$AAS?$AAT?$AAE?$AAM@ 10021a54     ElectronicValueRW.obj
 0002:00000a64       ??_C@_1BC@EAHCMADO@?$AAS?$AAo?$AAf?$AAt?$AAw?$AAa?$AAr?$AAe@ 10021a64     ElectronicValueRW.obj
 0002:00000a78       ??_C@_1BA@JIHHIEDE@?$AAT?$AAy?$AAp?$AAe?$AAL?$AAi?$AAb@ 10021a78     ElectronicValueRW.obj
 0002:00000a88       ??_7?$CComObject@V?$CComEnum@UIEnumConnectionPoints@@$1?_GUID_b196b285_bab4_101a_b69c_00aa00341d07@@3U__s_GUID@@BPAUIConnectionPoint@@V?$_CopyInterface@UIConnectionPoint@@@ATL@@VCComSingleThreadModel@6@@ATL@@@ATL@@6B@ 10021a88     ElectronicValueRW.obj
 0002:00000aa8       ?map@?1??HKeyFromString@CRegParser@ATL@@KAPAUHKEY__@@PA_W@Z@4QBUkeymap@?1??123@KAPAU4@0@Z@B 10021aa8     ElectronicValueRW.obj
 0002:00000b18       ??_C@_19NCHLBIN@?$AAH?$AAK?$AAC?$AAR@ 10021b18     ElectronicValueRW.obj
 0002:00000b24       ??_C@_19JAPAIJDE@?$AAH?$AAK?$AAC?$AAU@ 10021b24     ElectronicValueRW.obj
 0002:00000b30       ??_C@_19PEALEEJB@?$AAH?$AAK?$AAL?$AAM@ 10021b30     ElectronicValueRW.obj
 0002:00000b3c       ??_C@_17PJOJPMPB@?$AAH?$AAK?$AAU@ 10021b3c     ElectronicValueRW.obj
 0002:00000b44       ??_C@_19PNBHMJPL@?$AAH?$AAK?$AAP?$AAD@ 10021b44     ElectronicValueRW.obj
 0002:00000b50       ??_C@_19GFFAIJHG@?$AAH?$AAK?$AAD?$AAD@ 10021b50     ElectronicValueRW.obj
 0002:00000b5c       ??_C@_19OFICIBHH@?$AAH?$AAK?$AAC?$AAC@ 10021b5c     ElectronicValueRW.obj
 0002:00000b68       ??_C@_1CE@PACHPJFI@?$AAH?$AAK?$AAE?$AAY?$AA_?$AAC?$AAL?$AAA?$AAS?$AAS?$AAE?$AAS?$AA_?$AAR?$AAO@ 10021b68     ElectronicValueRW.obj
 0002:00000b8c       ??_C@_1CE@HLHNCBPM@?$AAH?$AAK?$AAE?$AAY?$AA_?$AAC?$AAU?$AAR?$AAR?$AAE?$AAN?$AAT?$AA_?$AAU?$AAS@ 10021b8c     ElectronicValueRW.obj
 0002:00000bb0       ??_C@_1CG@GFBEANJL@?$AAH?$AAK?$AAE?$AAY?$AA_?$AAL?$AAO?$AAC?$AAA?$AAL?$AA_?$AAM?$AAA?$AAC?$AAH@ 10021bb0     ElectronicValueRW.obj
 0002:00000bd8       ??_C@_1BG@BGODANIO@?$AAH?$AAK?$AAE?$AAY?$AA_?$AAU?$AAS?$AAE?$AAR?$AAS@ 10021bd8     ElectronicValueRW.obj
 0002:00000bf0       ??_C@_1CM@KHNNAOIC@?$AAH?$AAK?$AAE?$AAY?$AA_?$AAP?$AAE?$AAR?$AAF?$AAO?$AAR?$AAM?$AAA?$AAN?$AAC@ 10021bf0     ElectronicValueRW.obj
 0002:00000c1c       ??_C@_1BM@HAGMMHIA@?$AAH?$AAK?$AAE?$AAY?$AA_?$AAD?$AAY?$AAN?$AA_?$AAD?$AAA?$AAT?$AAA@ 10021c1c     ElectronicValueRW.obj
 0002:00000c38       ??_C@_1CI@BBJOACGG@?$AAH?$AAK?$AAE?$AAY?$AA_?$AAC?$AAU?$AAR?$AAR?$AAE?$AAN?$AAT?$AA_?$AAC?$AAO@ 10021c38     ElectronicValueRW.obj
 0002:00000c60       __GUID_00000112_0000_0000_c000_000000000046 10021c60     ElectronicValueRW.obj
 0002:00000c70       __GUID_00000109_0000_0000_c000_000000000046 10021c70     ElectronicValueRW.obj
 0002:00000c80       __GUID_7fd52380_4e07_101b_ae2d_08002b2ec713 10021c80     ElectronicValueRW.obj
 0002:00000c90       __GUID_3af24292_0c96_11ce_a0cf_00aa00600ab8 10021c90     ElectronicValueRW.obj
 0002:00000ca0       __GUID_00000127_0000_0000_c000_000000000046 10021ca0     ElectronicValueRW.obj
 0002:00000cb0       __GUID_0000010d_0000_0000_c000_000000000046 10021cb0     ElectronicValueRW.obj
 0002:00000cc0       ??_C@_1EA@NHKLICFA@?$AAH?$AAK?$AAC?$AAU?$AA?$AN?$AA?6?$AA?$HL?$AA?7?$AAS?$AAo?$AAf?$AAt?$AAw?$AAa?$AAr@ 10021cc0     ElectronicValueRW.obj
 0002:00000d00       ??_C@_1BE@LJOLIMEM@?$AA?$AN?$AA?6?$AA?7?$AA?$HN?$AA?$AN?$AA?6?$AA?$HN?$AA?$AN?$AA?6@ 10021d00     ElectronicValueRW.obj
 0002:00000d14       ??_C@_1O@MNLDABAF@?$AAM?$AAo?$AAd?$AAu?$AAl?$AAe@ 10021d14     ElectronicValueRW.obj
 0002:00000d24       ??_C@_1BG@JBACFMF@?$AAM?$AAo?$AAd?$AAu?$AAl?$AAe?$AA_?$AAR?$AAa?$AAw@ 10021d24     ElectronicValueRW.obj
 0002:00000d3c       ??_C@_1BC@KAILKFFG@?$AAR?$AAE?$AAG?$AAI?$AAS?$AAT?$AAR?$AAY@ 10021d3c     ElectronicValueRW.obj
 0002:00000d50       ??_C@_1O@GBFKGNEO@?$AAA?$AAT?$AAL?$AA?3?$AA?$CF?$AAp@ 10021d50     ElectronicValueRW.obj
 0002:00000d60       ??_C@_1BA@PICGEGJB@?$AAD?$AAI?$AAS?$AAP?$AAL?$AAA?$AAY@ 10021d60     ElectronicValueRW.obj
 0002:00000d70       __GUID_9bfbbc02_eff1_101a_84ed_00aa00341d07 10021d70     ElectronicValueRW.obj
 0002:00000d80       ??_C@_1M@PPPPCDEP@?$AAA?$AAP?$AAP?$AAI?$AAD@ 10021d80     ElectronicValueRW.obj
 0002:00000d8c       __GUID_b196b284_bab4_101a_b69c_00aa00341d07 10021d8c     ElectronicValueRW.obj
 0002:00000d9c       ??_7?$CComContainedObject@VCOPOSElectronicValueRW@@@ATL@@6B?$IDispatchImpl@UIOPOSElectronicValueRW@@$1?IID_IOPOSElectronicValueRW@@3U_GUID@@B$1?LIBID_OposElectronicValueRW_CCO@@3U3@B$00$0A@VCComTypeInfoHolder@ATL@@@1@@ 10021d9c     ElectronicValueRW.obj
 0002:00001078       ??_7?$CComContainedObject@VCOPOSElectronicValueRW@@@ATL@@6BCComControlBase@1@@ 10022078     ElectronicValueRW.obj
 0002:0000108c       ??_7?$CComContainedObject@VCOPOSElectronicValueRW@@@ATL@@6B?$CWindowImpl@VCOPOSElectronicValueRW@@VCWindow@ATL@@V?$CWinTraits@$0FGAAAAAA@$0A@@3@@1@@ 1002208c     ElectronicValueRW.obj
 0002:0000109c       ??_7?$CComContainedObject@VCOPOSElectronicValueRW@@@ATL@@6B?$IPersistStreamInitImpl@VCOPOSElectronicValueRW@@@1@@ 1002209c     ElectronicValueRW.obj
 0002:000010c0       ??_7?$CComContainedObject@VCOPOSElectronicValueRW@@@ATL@@6B?$IOleControlImpl@VCOPOSElectronicValueRW@@@1@@ 100220c0     ElectronicValueRW.obj
 0002:000010dc       ??_7?$CComContainedObject@VCOPOSElectronicValueRW@@@ATL@@6B?$IOleObjectImpl@VCOPOSElectronicValueRW@@@1@@ 100220dc     ElectronicValueRW.obj
 0002:0000113c       ??_7?$CComContainedObject@VCOPOSElectronicValueRW@@@ATL@@6B?$IOleInPlaceActiveObjectImpl@VCOPOSElectronicValueRW@@@1@@ 1002213c     ElectronicValueRW.obj
 0002:00001164       ??_7?$CComContainedObject@VCOPOSElectronicValueRW@@@ATL@@6B?$IViewObjectExImpl@VCOPOSElectronicValueRW@@@1@@ 10022164     ElectronicValueRW.obj
 0002:000011a0       ??_7?$CComContainedObject@VCOPOSElectronicValueRW@@@ATL@@6B?$IOleInPlaceObjectWindowlessImpl@VCOPOSElectronicValueRW@@@1@@ 100221a0     ElectronicValueRW.obj
 0002:000011cc       ??_7?$CComContainedObject@VCOPOSElectronicValueRW@@@ATL@@6B?$IConnectionPointContainerImpl@VCOPOSElectronicValueRW@@@1@@ 100221cc     ElectronicValueRW.obj
 0002:000011e0       ??_7?$CComContainedObject@VCOPOSElectronicValueRW@@@ATL@@6B?$IPersistStorageImpl@VCOPOSElectronicValueRW@@@1@@ 100221e0     ElectronicValueRW.obj
 0002:00001208       ??_7?$CComContainedObject@VCOPOSElectronicValueRW@@@ATL@@6B?$ISpecifyPropertyPagesImpl@VCOPOSElectronicValueRW@@@1@@ 10022208     ElectronicValueRW.obj
 0002:00001218       ??_7?$CComContainedObject@VCOPOSElectronicValueRW@@@ATL@@6B?$IQuickActivateImpl@VCOPOSElectronicValueRW@@@1@@ 10022218     ElectronicValueRW.obj
 0002:00001230       ??_7?$CComContainedObject@VCOPOSElectronicValueRW@@@ATL@@6B?$IDataObjectImpl@VCOPOSElectronicValueRW@@@1@@ 10022230     ElectronicValueRW.obj
 0002:00001260       ??_7?$CComContainedObject@VCOPOSElectronicValueRW@@@ATL@@6B?$IProvideClassInfo2Impl@$1?CLSID_OPOSElectronicValueRW@@3U_GUID@@B$1?DIID__IOPOSElectronicValueRWEvents@@3U2@B$1?LIBID_OposElectronicValueRW_CCO@@3U2@B$00$0A@VCComTypeInfoHolder@ATL@@@1@@ 10022260     ElectronicValueRW.obj
 0002:00001274       ??_7?$CComContainedObject@VCOPOSElectronicValueRW@@@ATL@@6B?$IObjectSafetyImpl@VCOPOSElectronicValueRW@@$02@1@@ 10022274     ElectronicValueRW.obj
 0002:0000128c       ??_7?$CComContainedObject@VCOPOSElectronicValueRW@@@ATL@@6B?$IPropertyNotifySinkCP@VCOPOSElectronicValueRW@@VCComDynamicUnkArray@ATL@@@1@@ 1002228c     ElectronicValueRW.obj
 0002:000012ac       ??_7?$CComContainedObject@VCOPOSElectronicValueRW@@@ATL@@6B?$CProxy_IOPOSEvents@VCOPOSElectronicValueRW@@@@@ 100222ac     ElectronicValueRW.obj
 0002:000012cc       ??_7?$CComAggObject@VCOPOSElectronicValueRW@@@ATL@@6B@ 100222cc     ElectronicValueRW.obj
 0002:000012dc       ??_7?$CComObject@VCOPOSElectronicValueRW@@@ATL@@6B?$IDispatchImpl@UIOPOSElectronicValueRW@@$1?IID_IOPOSElectronicValueRW@@3U_GUID@@B$1?LIBID_OposElectronicValueRW_CCO@@3U3@B$00$0A@VCComTypeInfoHolder@ATL@@@1@@ 100222dc     ElectronicValueRW.obj
 0002:000015b8       ??_7?$CComObject@VCOPOSElectronicValueRW@@@ATL@@6BCComControlBase@1@@ 100225b8     ElectronicValueRW.obj
 0002:000015cc       ??_7?$CComObject@VCOPOSElectronicValueRW@@@ATL@@6B?$CWindowImpl@VCOPOSElectronicValueRW@@VCWindow@ATL@@V?$CWinTraits@$0FGAAAAAA@$0A@@3@@1@@ 100225cc     ElectronicValueRW.obj
 0002:000015dc       ??_7?$CComObject@VCOPOSElectronicValueRW@@@ATL@@6B?$IPersistStreamInitImpl@VCOPOSElectronicValueRW@@@1@@ 100225dc     ElectronicValueRW.obj
 0002:00001600       ??_7?$CComObject@VCOPOSElectronicValueRW@@@ATL@@6B?$IOleControlImpl@VCOPOSElectronicValueRW@@@1@@ 10022600     ElectronicValueRW.obj
 0002:0000161c       ??_7?$CComObject@VCOPOSElectronicValueRW@@@ATL@@6B?$IOleObjectImpl@VCOPOSElectronicValueRW@@@1@@ 1002261c     ElectronicValueRW.obj
 0002:0000167c       ??_7?$CComObject@VCOPOSElectronicValueRW@@@ATL@@6B?$IOleInPlaceActiveObjectImpl@VCOPOSElectronicValueRW@@@1@@ 1002267c     ElectronicValueRW.obj
 0002:000016a4       ??_7?$CComObject@VCOPOSElectronicValueRW@@@ATL@@6B?$IViewObjectExImpl@VCOPOSElectronicValueRW@@@1@@ 100226a4     ElectronicValueRW.obj
 0002:000016e0       ??_7?$CComObject@VCOPOSElectronicValueRW@@@ATL@@6B?$IOleInPlaceObjectWindowlessImpl@VCOPOSElectronicValueRW@@@1@@ 100226e0     ElectronicValueRW.obj
 0002:0000170c       ??_7?$CComObject@VCOPOSElectronicValueRW@@@ATL@@6B?$IConnectionPointContainerImpl@VCOPOSElectronicValueRW@@@1@@ 1002270c     ElectronicValueRW.obj
 0002:00001720       ??_7?$CComObject@VCOPOSElectronicValueRW@@@ATL@@6B?$IPersistStorageImpl@VCOPOSElectronicValueRW@@@1@@ 10022720     ElectronicValueRW.obj
 0002:00001748       ??_7?$CComObject@VCOPOSElectronicValueRW@@@ATL@@6B?$ISpecifyPropertyPagesImpl@VCOPOSElectronicValueRW@@@1@@ 10022748     ElectronicValueRW.obj
 0002:00001758       ??_7?$CComObject@VCOPOSElectronicValueRW@@@ATL@@6B?$IQuickActivateImpl@VCOPOSElectronicValueRW@@@1@@ 10022758     ElectronicValueRW.obj
 0002:00001770       ??_7?$CComObject@VCOPOSElectronicValueRW@@@ATL@@6B?$IDataObjectImpl@VCOPOSElectronicValueRW@@@1@@ 10022770     ElectronicValueRW.obj
 0002:000017a0       ??_7?$CComObject@VCOPOSElectronicValueRW@@@ATL@@6B?$IProvideClassInfo2Impl@$1?CLSID_OPOSElectronicValueRW@@3U_GUID@@B$1?DIID__IOPOSElectronicValueRWEvents@@3U2@B$1?LIBID_OposElectronicValueRW_CCO@@3U2@B$00$0A@VCComTypeInfoHolder@ATL@@@1@@ 100227a0     ElectronicValueRW.obj
 0002:000017b4       ??_7?$CComObject@VCOPOSElectronicValueRW@@@ATL@@6B?$IObjectSafetyImpl@VCOPOSElectronicValueRW@@$02@1@@ 100227b4     ElectronicValueRW.obj
 0002:000017cc       ??_7?$CComObject@VCOPOSElectronicValueRW@@@ATL@@6B?$IPropertyNotifySinkCP@VCOPOSElectronicValueRW@@VCComDynamicUnkArray@ATL@@@1@@ 100227cc     ElectronicValueRW.obj
 0002:000017ec       ??_7?$CComObject@VCOPOSElectronicValueRW@@@ATL@@6B?$CProxy_IOPOSEvents@VCOPOSElectronicValueRW@@@@@ 100227ec     ElectronicValueRW.obj
 0002:0000180c       __GUID_55980ba0_35aa_11cf_b671_00aa004cd6d8 1002280c     ElectronicValueRW.obj
 0002:0000181c       __GUID_b196b28b_bab4_101a_b69c_00aa00341d07 1002281c     ElectronicValueRW.obj
 0002:0000182c       ?_entries@?1??_GetEntries@?$CComEnum@UIEnumConnectionPoints@@$1?_GUID_b196b285_bab4_101a_b69c_00aa00341d07@@3U__s_GUID@@BPAUIConnectionPoint@@V?$_CopyInterface@UIConnectionPoint@@@ATL@@VCComSingleThreadModel@6@@ATL@@SGPBU_ATL_INTMAP_ENTRY@3@XZ@4QBU43@B 1002282c     ElectronicValueRW.obj
 0002:00001844       __GUID_00020412_0000_0000_c000_000000000046 10022844     ElectronicValueRW.obj
 0002:00001854       __GUID_00020401_0000_0000_c000_000000000046 10022854     ElectronicValueRW.obj
 0002:00001864       ??_C@_0BG@EKFFMJIO@RegOpenKeyTransactedW@ 10022864     ElectronicValueRW.obj
 0002:0000187c       ??_C@_0BI@HAKLOOGP@RegDeleteKeyTransactedW@ 1002287c     ElectronicValueRW.obj
 0002:00001894       ??_C@_0BA@LILAPHGE@RegDeleteKeyExW@ 10022894     ElectronicValueRW.obj
 0002:000018a4       ??_C@_19ILOCMLCJ@?$AA?4?$AAt?$AAl?$AAb@ 100228a4     ElectronicValueRW.obj
 0002:000018b0       __GUID_0002e012_0000_0000_c000_000000000046 100228b0     ElectronicValueRW.obj
 0002:000018c0       ??_C@_1O@FHBGLCIO@?$AAC?$AAL?$AAS?$AAI?$AAD?$AA?2@ 100228c0     ElectronicValueRW.obj
 0002:000018d0       ??_C@_1CK@IFBKBFAA@?$AA?2?$AAR?$AAe?$AAq?$AAu?$AAi?$AAr?$AAe?$AAd?$AA?5?$AAC?$AAa?$AAt?$AAe?$AAg@ 100228d0     ElectronicValueRW.obj
 0002:000018fc       ??_C@_1DA@BIHALFED@?$AA?2?$AAI?$AAm?$AAp?$AAl?$AAe?$AAm?$AAe?$AAn?$AAt?$AAe?$AAd?$AA?5?$AAC?$AAa@ 100228fc     ElectronicValueRW.obj
 0002:0000192c       ??_C@_1BK@EDKOLFBJ@?$AAO?$AAL?$AAE?$AAA?$AAU?$AAT?$AA3?$AA2?$AA?4?$AAD?$AAL?$AAL@ 1002292c     ElectronicValueRW.obj
 0002:00001948       ??_C@_0BJ@CNLFOMHB@UnRegisterTypeLibForUser@ 10022948     ElectronicValueRW.obj
 0002:00001964       ??_C@_0BH@LBOMMKPJ@RegisterTypeLibForUser@ 10022964     ElectronicValueRW.obj
 0002:0000197c       ??_C@_0P@MMNMMLGK@COFreezeEvents@ 1002297c     ElectronicValueRWImpl.obj
 0002:0000198c       ??_C@_0BC@OGCGGIMP@GetPropertyNumber@ 1002298c     ElectronicValueRWImpl.obj
 0002:000019a0       ??_C@_0BC@MDCNODNB@SetPropertyNumber@ 100229a0     ElectronicValueRWImpl.obj
 0002:000019b4       ??_C@_0BC@CFCCMIMD@GetPropertyString@ 100229b4     ElectronicValueRWImpl.obj
 0002:000019c8       ??_C@_0BC@CJEDNN@SetPropertyString@ 100229c8     ElectronicValueRWImpl.obj
 0002:000019dc       ??_C@_0M@LNPKKKDA@OpenService@ 100229dc     ElectronicValueRWImpl.obj
 0002:000019e8       ??_C@_0M@PCMCHHMH@CheckHealth@ 100229e8     ElectronicValueRWImpl.obj
 0002:000019f4       ??_C@_0M@JGMIDNEK@ClaimDevice@ 100229f4     ElectronicValueRWImpl.obj
 0002:00001a00       ??_C@_0L@BNEIFEJC@ClearInput@ 10022a00     ElectronicValueRWImpl.obj
 0002:00001a0c       ??_C@_0M@JMBCPNGJ@ClearOutput@ 10022a0c     ElectronicValueRWImpl.obj
 0002:00001a18       ??_C@_0N@DDFIIBMP@CloseService@ 10022a18     ElectronicValueRWImpl.obj
 0002:00001a28       ??_C@_08EEIHICPC@DirectIO@ 10022a28     ElectronicValueRWImpl.obj
 0002:00001a34       ??_C@_0O@BCPMENMJ@ReleaseDevice@ 10022a34     ElectronicValueRWImpl.obj
 0002:00001a44       ??_C@_0BA@GFABKEEE@ResetStatistics@ 10022a44     ElectronicValueRWImpl.obj
 0002:00001a54       ??_C@_0BD@DPALHJGC@RetrieveStatistics@ 10022a54     ElectronicValueRWImpl.obj
 0002:00001a68       ??_C@_0BB@KOHIKNFC@UpdateStatistics@ 10022a68     ElectronicValueRWImpl.obj
 0002:00001a7c       ??_C@_0BH@PBKBNMGB@CompareFirmwareVersion@ 10022a7c     ElectronicValueRWImpl.obj
 0002:00001a94       ??_C@_0P@FBPDPIPA@UpdateFirmware@ 10022a94     ElectronicValueRWImpl.obj
 0002:00001aa4       ??_C@_0BF@CMAPCJGM@ClearInputProperties@ 10022aa4     ElectronicValueRWImpl.obj
 0002:00001abc       ??_C@_09EGHCFIHC@GetAmount@ 10022abc     ElectronicValueRWImpl.obj
 0002:00001ac8       ??_C@_09GIDHHJOA@SetAmount@ 10022ac8     ElectronicValueRWImpl.obj
 0002:00001ad4       ??_C@_0L@OFHFGGCE@GetBalance@ 10022ad4     ElectronicValueRWImpl.obj
 0002:00001ae0       ??_C@_0BC@HFMPIMNJ@GetBalanceOfPoint@ 10022ae0     ElectronicValueRWImpl.obj
 0002:00001af4       ??_C@_08HLPBNFEC@GetPoint@ 10022af4     ElectronicValueRWImpl.obj
 0002:00001b00       ??_C@_08IKNNMGDP@SetPoint@ 10022b00     ElectronicValueRWImpl.obj
 0002:00001b0c       ??_C@_0BB@DEPMOCKF@GetSettledAmount@ 10022b0c     ElectronicValueRWImpl.obj
 0002:00001b20       ??_C@_0BA@PCCMIHIE@GetSettledPoint@ 10022b20     ElectronicValueRWImpl.obj
 0002:00001b30       ??_C@_09EDIPBOE@AccessLog@ 10022b30     ElectronicValueRWImpl.obj
 0002:00001b3c       ??_C@_0BA@CPKFOAIG@ActivateService@ 10022b3c     ElectronicValueRWImpl.obj
 0002:00001b4c       ??_C@_08LOICPCFH@AddValue@ 10022b4c     ElectronicValueRWImpl.obj
 0002:00001b58       ??_C@_0P@IKCODGEO@BeginDetection@ 10022b58     ElectronicValueRWImpl.obj
 0002:00001b68       ??_C@_0N@PCJLGBKP@BeginRemoval@ 10022b68     ElectronicValueRWImpl.obj
 0002:00001b78       ??_C@_0M@GJJFNMHB@CancelValue@ 10022b78     ElectronicValueRWImpl.obj
 0002:00001b84       ??_C@_0M@ENIGCFE@CaptureCard@ 10022b84     ElectronicValueRWImpl.obj
 0002:00001b90       ??_C@_0N@HNJPBHDG@EndDetection@ 10022b90     ElectronicValueRWImpl.obj
 0002:00001ba0       ??_C@_0L@FCEKAOMI@EndRemoval@ 10022ba0     ElectronicValueRWImpl.obj
 0002:00001bac       ??_C@_0BG@DBMDMKJM@EnumerateCardServices@ 10022bac     ElectronicValueRWImpl.obj
 0002:00001bc4       ??_C@_0N@NKOFBOHJ@LockTerminal@ 10022bc4     ElectronicValueRWImpl.obj
 0002:00001bd4       ??_C@_09JBBNAFDB@ReadValue@ 10022bd4     ElectronicValueRWImpl.obj
 0002:00001be0       ??_C@_0O@OCEFCPNI@SubtractValue@ 10022be0     ElectronicValueRWImpl.obj
 0002:00001bf0       ??_C@_0BC@FMEIPINL@TransactionAccess@ 10022bf0     ElectronicValueRWImpl.obj
 0002:00001c04       ??_C@_0P@ELGEJAPJ@UnlockTerminal@ 10022c04     ElectronicValueRWImpl.obj
 0002:00001c14       ??_C@_09PHBOFDOC@UpdateKey@ 10022c14     ElectronicValueRWImpl.obj
 0002:00001c20       ??_C@_0L@HDNANADD@WriteValue@ 10022c20     ElectronicValueRWImpl.obj
 0002:00001c2c       ??_C@_0BK@JLGGNCBA@ClearParameterInformation@ 10022c2c     ElectronicValueRWImpl.obj
 0002:00001c48       ??_C@_0CF@BOMLKPAA@QueryLastSuccessfulTransactionR@ 10022c48     ElectronicValueRWImpl.obj
 0002:00001c70       ??_C@_0BK@ILMAJPBB@RetrieveResultInformation@ 10022c70     ElectronicValueRWImpl.obj
 0002:00001c8c       ??_C@_0BI@DOFOAILE@SetParameterInformation@ 10022c8c     ElectronicValueRWImpl.obj
 0002:00001ca4       ??_C@_0L@BFEKGFKN@AccessData@ 10022ca4     ElectronicValueRWImpl.obj
 0002:00001cb0       ??_C@_0BC@EKOJKELK@ActivateEVService@ 10022cb0     ElectronicValueRWImpl.obj
 0002:00001cc4       ??_C@_0CB@MMCGCA@CheckServiceRegistrationToMediu@ 10022cc4     ElectronicValueRWImpl.obj
 0002:00001ce8       ??_C@_0BE@KLAJMPGL@CloseDailyEVService@ 10022ce8     ElectronicValueRWImpl.obj
 0002:00001cfc       ??_C@_0BE@FBHCBEID@DeactivateEVService@ 10022cfc     ElectronicValueRWImpl.obj
 0002:00001d10       ??_C@_0BD@FDDFHNFA@OpenDailyEVService@ 10022d10     ElectronicValueRWImpl.obj
 0002:00001d24       ??_C@_0BI@MFJBMGKE@RegisterServiceToMedium@ 10022d24     ElectronicValueRWImpl.obj
 0002:00001d3c       ??_C@_0BK@NILIGKOK@UnregisterServiceToMedium@ 10022d3c     ElectronicValueRWImpl.obj
 0002:00001d58       ??_C@_0L@DHPPFEDE@UpdateData@ 10022d58     ElectronicValueRWImpl.obj
 0002:00001d64       ??_C@_0P@GAPGHBOB@AccessDailyLog@ 10022d64     ElectronicValueRWImpl.obj
 0002:00001d74       ??_C@_0BE@DCPICDJJ@AuthorizeCompletion@ 10022d74     ElectronicValueRWImpl.obj
 0002:00001d88       ??_C@_0BC@BFIHDIME@AuthorizePreSales@ 10022d88     ElectronicValueRWImpl.obj
 0002:00001d9c       ??_C@_0BA@MIHOKOFD@AuthorizeRefund@ 10022d9c     ElectronicValueRWImpl.obj
 0002:00001dac       ??_C@_0P@FBALCMBO@AuthorizeSales@ 10022dac     ElectronicValueRWImpl.obj
 0002:00001dbc       ??_C@_0O@CLMPAPFO@AuthorizeVoid@ 10022dbc     ElectronicValueRWImpl.obj
 0002:00001dcc       ??_C@_0BG@LAFENIFB@AuthorizeVoidPreSales@ 10022dcc     ElectronicValueRWImpl.obj
 0002:00001de4       ??_C@_0M@LJIOAJGI@CashDeposit@ 10022de4     ElectronicValueRWImpl.obj
 0002:00001df0       ??_C@_09EAIKPMK@CheckCard@ 10022df0     ElectronicValueRWImpl.obj
 0002:00001dfc       ??_7?$CProxy_IOPOSEvents@VCOPOSElectronicValueRW@@@@6B@ 10022dfc     ElectronicValueRWImpl.obj
 0002:00001e1c       ??_C@_1BA@IFHENID@?$AA?$FL?$AAE?$AAr?$AAr?$AAo?$AAr?$AA?$FN@ 10022e1c     ElectronicValueRWImpl.obj
 0002:00001e2c       ??_C@_0DE@PJGMIIKM@SOFTWARE?2OLEforRetail?2ServiceOP@ 10022e2c     ElectronicValueRWImpl.obj
 0002:00001e60       ??_C@_1M@IAIJHCCH@?$AAC?$AAl?$AAo?$AAs?$AAe@ 10022e60     ElectronicValueRWImpl.obj
 0002:00001e6c       ??_C@_1M@PCPKGJAH@?$AAC?$AAl?$AAa?$AAi?$AAm@ 10022e6c     ElectronicValueRWImpl.obj
 0002:00001e78       ??_C@_1BA@NDFKIOCP@?$AAR?$AAe?$AAl?$AAe?$AAa?$AAs?$AAe@ 10022e78     ElectronicValueRWImpl.obj
 0002:00001e88       ??_C@_0BC@GPJAGDJO@ElectronicValueRW@ 10022e88     ElectronicValueRWImpl.obj
 0002:00001e9c       ??_C@_1BM@IJMNMBPK@?$AAG?$AAe?$AAt?$AAO?$AAp?$AAe?$AAn?$AAR?$AAe?$AAs?$AAu?$AAl?$AAt@ 10022e9c     ElectronicValueRWImpl.obj
 0002:00001eb8       _IID_IPropertyNotifySink   10022eb8     uuid:ocidl_i.obj
 0002:00001ec8       _GUID_NULL                 10022ec8     uuid:cguid_i.obj
 0002:00001ed8       _CLSID_StdGlobalInterfaceTable 10022ed8     uuid:cguid_i.obj
 0002:00001ee8       _IID_IDispatch             10022ee8     uuid:oaidl_i.obj
 0002:00001ef8       _CLSID_StdComponentCategoriesMgr 10022ef8     uuid:ieguids.obj
 0002:00001f08       _IID_IUnknown              10022f08     uuid:unknwn_i.obj
 0002:00001f18       ??_C@_1EC@JIJBPKFM@?$AAa?$AAp?$AAi?$AA?9?$AAm?$AAs?$AA?9?$AAw?$AAi?$AAn?$AA?9?$AAc?$AAo?$AAr?$AAe@ 10022f18     LIBCMT:thread_safe_statics.obj
 0002:00001f5c       ??_C@_1BK@MGMFAEKH@?$AAk?$AAe?$AAr?$AAn?$AAe?$AAl?$AA3?$AA2?$AA?4?$AAd?$AAl?$AAl@ 10022f5c     LIBCMT:thread_safe_statics.obj
 0002:00001f78       ??_C@_0BJ@JEBJOJFJ@SleepConditionVariableCS@ 10022f78     LIBCMT:thread_safe_statics.obj
 0002:00001f94       ??_C@_0BJ@PGPPEPCC@WakeAllConditionVariable@ 10022f94     LIBCMT:thread_safe_statics.obj
 0002:00001fad       ?nothrow@std@@3Unothrow_t@1@B 10022fad     LIBCMT:std_nothrow.obj
 0002:00001fb8       __pDefaultRawDllMain       10022fb8     LIBCMT:dll_dllmain.obj
 0002:00001fb8       __pRawDllMain              10022fb8     LIBCMT:dll_dllmain.obj
 0002:00001fc0       ??_7exception@std@@6B@     10022fc0     LIBCMT:throw_bad_alloc.obj
 0002:00001fc8       ??_C@_0BC@EOODALEL@Unknown?5exception@ 10022fc8     LIBCMT:throw_bad_alloc.obj
 0002:00001fe0       ??_7bad_alloc@std@@6B@     10022fe0     LIBCMT:throw_bad_alloc.obj
 0002:00001fe8       ??_C@_0P@GHFPNOJB@bad?5allocation@ 10022fe8     LIBCMT:throw_bad_alloc.obj
 0002:00001ffc       ??_7bad_array_new_length@std@@6B@ 10022ffc     LIBCMT:throw_bad_alloc.obj
 0002:00002004       ??_C@_0BF@KINCDENJ@bad?5array?5new?5length@ 10023004     LIBCMT:throw_bad_alloc.obj
 0002:00002020       ??_7type_info@@6B@         10023020     LIBCMT:std_type_info_static.obj
 0002:00002024       _GUID_ATLVer110            10023024     atls:atlbase.obj
 0002:00002038       ??_C@_1IC@ONKHOIDK@?$AAE?$AAR?$AAR?$AAO?$AAR?$AA?5?$AA?3?$AA?5?$AAU?$AAn?$AAa?$AAb?$AAl?$AAe?$AA?5@ 10023038     atls:atlbase.obj
 0002:000020bc       ??_C@_0N@FJEPLCIH@atlthunk?4dll@ 100230bc     atls:atlthunk.obj
 0002:000020cc       ??_C@_0BG@GAKFHCBM@AtlThunk_AllocateData@ 100230cc     atls:atlthunk.obj
 0002:000020e4       ??_C@_0BC@JKONFIAH@AtlThunk_InitData@ 100230e4     atls:atlthunk.obj
 0002:000020f8       ??_C@_0BE@IAOEELAK@AtlThunk_DataToCode@ 100230f8     atls:atlthunk.obj
 0002:0000210c       ??_C@_0BC@GBGKAIPI@AtlThunk_FreeData@ 1002310c     atls:atlthunk.obj
 0002:00002120       __pDestructExceptionObject 10023120     libvcruntime:ehhelpers.obj
 0002:00002128       ??_7bad_exception@std@@6B@ 10023128     libvcruntime:frame.obj
 0002:00002130       ??_C@_0O@DPKOEFFH@bad?5exception@ 10023130     libvcruntime:frame.obj
 0002:000024c0       ??_C@_08EHJDFFNH@__based?$CI@ 100234c0     libvcruntime:undname.obj
 0002:000024cc       ??_C@_07KOLFKCDI@__cdecl@  100234cc     libvcruntime:undname.obj
 0002:000024d4       ??_C@_08GHMPAG@__pascal@   100234d4     libvcruntime:undname.obj
 0002:000024e0       ??_C@_09IFJBGAPI@__stdcall@ 100234e0     libvcruntime:undname.obj
 0002:000024ec       ??_C@_0L@NPHFGOKO@__thiscall@ 100234ec     libvcruntime:undname.obj
 0002:000024f8       ??_C@_0L@JMKHOMEK@__fastcall@ 100234f8     libvcruntime:undname.obj
 0002:00002504       ??_C@_0N@BCKKPABJ@__vectorcall@ 10023504     libvcruntime:undname.obj
 0002:00002514       ??_C@_09HIJEGCPM@__clrcall@ 10023514     libvcruntime:undname.obj
 0002:00002520       ??_C@_06GHPCKEAG@__eabi@   10023520     libvcruntime:undname.obj
 0002:00002528       ??_C@_09IOPIDJLG@__swift_1@ 10023528     libvcruntime:undname.obj
 0002:00002534       ??_C@_09KFNFGKHF@__swift_2@ 10023534     libvcruntime:undname.obj
 0002:00002540       ??_C@_07JOMMBBKO@__ptr64@  10023540     libvcruntime:undname.obj
 0002:00002548       ??_C@_0L@PILCLIHE@__restrict@ 10023548     libvcruntime:undname.obj
 0002:00002554       ??_C@_0M@GFIIJFMG@__unaligned@ 10023554     libvcruntime:undname.obj
 0002:00002560       ??_C@_09DHDLOLLB@restrict?$CI@ 10023560     libvcruntime:undname.obj
 0002:0000256a       ??_C@_00CNPNBAHC@@         1002356a     libvcruntime:undname.obj
 0002:0000256c       ??_C@_04NIHEBCM@?5new@     1002356c     libvcruntime:undname.obj
 0002:00002574       ??_C@_07FPCDHGMM@?5delete@ 10023574     libvcruntime:undname.obj
 0002:0000257c       ??_C@_01NEMOKFLO@?$DN@     1002357c     libvcruntime:undname.obj
 0002:00002580       ??_C@_02GPIOPFAK@?$DO?$DO@ 10023580     libvcruntime:undname.obj
 0002:00002584       ??_C@_02FODMEDOG@?$DM?$DM@ 10023584     libvcruntime:undname.obj
 0002:00002588       ??_C@_01DCLJPIOD@?$CB@     10023588     libvcruntime:undname.obj
 0002:0000258c       ??_C@_02EGOFBIJA@?$DN?$DN@ 1002358c     libvcruntime:undname.obj
 0002:00002590       ??_C@_02FDNJECIE@?$CB?$DN@ 10023590     libvcruntime:undname.obj
 0002:00002594       ??_C@_02GPECMEKF@?$FL?$FN@ 10023594     libvcruntime:undname.obj
 0002:00002598       ??_C@_08LHJFAFGD@operator@ 10023598     libvcruntime:undname.obj
 0002:000025a4       ??_C@_02HBOOOICD@?9?$DO@   100235a4     libvcruntime:undname.obj
 0002:000025a8       ??_C@_01NBENCBCI@?$CK@     100235a8     libvcruntime:undname.obj
 0002:000025ac       ??_C@_02ECNGHCIF@?$CL?$CL@ 100235ac     libvcruntime:undname.obj
 0002:000025b0       ??_C@_02BAABKJLB@?9?9@     100235b0     libvcruntime:undname.obj
 0002:000025b4       ??_C@_01JOAMLHOP@?9@       100235b4     libvcruntime:undname.obj
 0002:000025b8       ??_C@_01MIFGBAGJ@?$CL@     100235b8     libvcruntime:undname.obj
 0002:000025bc       ??_C@_01HNPIGOCE@?$CG@     100235bc     libvcruntime:undname.obj
 0002:000025c0       ??_C@_03MNHNFDLC@?9?$DO?$CK@ 100235c0     libvcruntime:undname.obj
 0002:000025c4       ??_C@_01KMDKNFGN@?1@       100235c4     libvcruntime:undname.obj
 0002:000025c8       ??_C@_01FGNFDNOH@?$CF@     100235c8     libvcruntime:undname.obj
 0002:000025cc       ??_C@_01MNNFJEPP@?$DM@     100235cc     libvcruntime:undname.obj
 0002:000025d0       ??_C@_02EHCHHCKH@?$DM?$DN@ 100235d0     libvcruntime:undname.obj
 0002:000025d4       ??_C@_01PPODPGHN@?$DO@     100235d4     libvcruntime:undname.obj
 0002:000025d8       ??_C@_02EEKDKGMJ@?$DO?$DN@ 100235d8     libvcruntime:undname.obj
 0002:000025dc       ??_C@_01IHBHIGKO@?0@       100235dc     libvcruntime:undname.obj
 0002:000025e0       ??_C@_02HCKGKOFO@?$CI?$CJ@ 100235e0     libvcruntime:undname.obj
 0002:000025e4       ??_C@_01PJKLJHI@?$HO@      100235e4     libvcruntime:undname.obj
 0002:000025e8       ??_C@_01JKBOJNNK@?$FO@     100235e8     libvcruntime:undname.obj
 0002:000025ec       ??_C@_01DNKMNLPK@?$HM@     100235ec     libvcruntime:undname.obj
 0002:000025f0       ??_C@_02PPKAJPJL@?$CG?$CG@ 100235f0     libvcruntime:undname.obj
 0002:000025f4       ??_C@_02NONPIBCD@?$HM?$HM@ 100235f4     libvcruntime:undname.obj
 0002:000025f8       ??_C@_02FPIMKNGF@?$CK?$DN@ 100235f8     libvcruntime:undname.obj
 0002:000025fc       ??_C@_02FOEOMHFC@?$CL?$DN@ 100235fc     libvcruntime:undname.obj
 0002:00002600       ??_C@_02FKMDLLOA@?9?$DN@   10023600     libvcruntime:undname.obj
 0002:00002604       ??_C@_02FJEHGPIO@?1?$DN@   10023604     libvcruntime:undname.obj
 0002:00002608       ??_C@_02FENAOKFI@?$CF?$DN@ 10023608     libvcruntime:undname.obj
 0002:0000260c       ??_C@_03IKFCCPFF@?$DO?$DO?$DN@ 1002360c     libvcruntime:undname.obj
 0002:00002610       ??_C@_03CDNPDDLA@?$DM?$DM?$DN@ 10023610     libvcruntime:undname.obj
 0002:00002614       ??_C@_02FGJGFEAB@?$CG?$DN@ 10023614     libvcruntime:undname.obj
 0002:00002618       ??_C@_02DHLNPPGH@?$HM?$DN@ 10023618     libvcruntime:undname.obj
 0002:0000261c       ??_C@_02MHEGNOJ@?$FO?$DN@  1002361c     libvcruntime:undname.obj
 0002:00002620       ??_C@_09IFPLHPGF@?$GAvftable?8@ 10023620     libvcruntime:undname.obj
 0002:0000262c       ??_C@_09BLBHBJP@?$GAvbtable?8@ 1002362c     libvcruntime:undname.obj
 0002:00002638       ??_C@_07FEEIOKP@?$GAvcall?8@ 10023638     libvcruntime:undname.obj
 0002:00002640       ??_C@_08LLFFHHDJ@?$GAtypeof?8@ 10023640     libvcruntime:undname.obj
 0002:0000264c       ??_C@_0BF@KDPPACIK@?$GAlocal?5static?5guard?8@ 1002364c     libvcruntime:undname.obj
 0002:00002664       ??_C@_08OBABFOLI@?$GAstring?8@ 10023664     libvcruntime:undname.obj
 0002:00002670       ??_C@_0BD@JDLKDPAB@?$GAvbase?5destructor?8@ 10023670     libvcruntime:undname.obj
 0002:00002684       ??_C@_0BN@DEGPLNFK@?$GAvector?5deleting?5destructor?8@ 10023684     libvcruntime:undname.obj
 0002:000026a4       ??_C@_0BO@OBMKPJIG@?$GAdefault?5constructor?5closure?8@ 100236a4     libvcruntime:undname.obj
 0002:000026c4       ??_C@_0BN@IMDCHIKM@?$GAscalar?5deleting?5destructor?8@ 100236c4     libvcruntime:undname.obj
 0002:000026e4       ??_C@_0BO@PFGOCPJJ@?$GAvector?5constructor?5iterator?8@ 100236e4     libvcruntime:undname.obj
 0002:00002704       ??_C@_0BN@LFPFMEDL@?$GAvector?5destructor?5iterator?8@ 10023704     libvcruntime:undname.obj
 0002:00002724       ??_C@_0CE@IKBNEHA@?$GAvector?5vbase?5constructor?5itera@ 10023724     libvcruntime:undname.obj
 0002:00002748       ??_C@_0BL@NILFHHPC@?$GAvirtual?5displacement?5map?8@ 10023748     libvcruntime:undname.obj
 0002:00002764       ??_C@_0CB@JONCMFFK@?$GAeh?5vector?5constructor?5iterator@ 10023764     libvcruntime:undname.obj
 0002:00002788       ??_C@_0CA@GCEOPDGL@?$GAeh?5vector?5destructor?5iterator?8@ 10023788     libvcruntime:undname.obj
 0002:000027a8       ??_C@_0CH@OOJPLCPH@?$GAeh?5vector?5vbase?5constructor?5it@ 100237a8     libvcruntime:undname.obj
 0002:000027d0       ??_C@_0BL@LLKPOHJI@?$GAcopy?5constructor?5closure?8@ 100237d0     libvcruntime:undname.obj
 0002:000027ec       ??_C@_0BA@KBCDOMBN@?$GAudt?5returning?8@ 100237ec     libvcruntime:undname.obj
 0002:000027fc       ??_C@_03KLGMFNMG@?$GAEH@   100237fc     libvcruntime:undname.obj
 0002:00002800       ??_C@_05KHLCHHI@?$GARTTI@  10023800     libvcruntime:undname.obj
 0002:00002808       ??_C@_0BA@KKLDJDLB@?$GAlocal?5vftable?8@ 10023808     libvcruntime:undname.obj
 0002:00002818       ??_C@_0CE@IIHCMGGL@?$GAlocal?5vftable?5constructor?5clos@ 10023818     libvcruntime:undname.obj
 0002:0000283c       ??_C@_06FHBGPFGH@?5new?$FL?$FN@ 1002383c     libvcruntime:undname.obj
 0002:00002844       ??_C@_09LBNFPBCA@?5delete?$FL?$FN@ 10023844     libvcruntime:undname.obj
 0002:00002850       ??_C@_0P@HJKNJFNN@?$GAomni?5callsig?8@ 10023850     libvcruntime:undname.obj
 0002:00002860       ??_C@_0BL@CNOONJFP@?$GAplacement?5delete?5closure?8@ 10023860     libvcruntime:undname.obj
 0002:0000287c       ??_C@_0BN@CKNJLHMB@?$GAplacement?5delete?$FL?$FN?5closure?8@ 1002387c     libvcruntime:undname.obj
 0002:0000289c       ??_C@_0CG@CFDHKGGD@?$GAmanaged?5vector?5constructor?5ite@ 1002389c     libvcruntime:undname.obj
 0002:000028c4       ??_C@_0CF@IMGKMJNO@?$GAmanaged?5vector?5destructor?5iter@ 100238c4     libvcruntime:undname.obj
 0002:000028ec       ??_C@_0CG@HLDDJMAG@?$GAeh?5vector?5copy?5constructor?5ite@ 100238ec     libvcruntime:undname.obj
 0002:00002914       ??_C@_0CM@FCBBDIGB@?$GAeh?5vector?5vbase?5copy?5construct@ 10023914     libvcruntime:undname.obj
 0002:00002940       ??_C@_0BL@CLIPGLGB@?$GAdynamic?5initializer?5for?5?8@ 10023940     libvcruntime:undname.obj
 0002:0000295c       ??_C@_0CB@PDBIFEP@?$GAdynamic?5atexit?5destructor?5for?5@ 1002395c     libvcruntime:undname.obj
 0002:00002980       ??_C@_0CD@CGAJBKEJ@?$GAvector?5copy?5constructor?5iterat@ 10023980     libvcruntime:undname.obj
 0002:000029a4       ??_C@_0CJ@GJELGAMM@?$GAvector?5vbase?5copy?5constructor?5@ 100239a4     libvcruntime:undname.obj
 0002:000029d0       ??_C@_0CL@FGIJHLCE@?$GAmanaged?5vector?5copy?5constructo@ 100239d0     libvcruntime:undname.obj
 0002:000029fc       ??_C@_0BM@PMGGMLDN@?$GAlocal?5static?5thread?5guard?8@ 100239fc     libvcruntime:undname.obj
 0002:00002a18       ??_C@_0N@BDNMDMOL@operator?5?$CC?$CC?5@ 10023a18     libvcruntime:undname.obj
 0002:00002a28       ??_C@_0BC@GGEBGALA@operator?5co_await@ 10023a28     libvcruntime:undname.obj
 0002:00002a3c       ??_C@_0M@GAAIMMOH@operator?$DM?$DN?$DO@ 10023a3c     libvcruntime:undname.obj
 0002:00002a48       ??_C@_0BC@DAFEJGAK@?5Type?5Descriptor?8@ 10023a48     libvcruntime:undname.obj
 0002:00002a5c       ??_C@_0BM@LDKODKLH@?5Base?5Class?5Descriptor?5at?5?$CI@ 10023a5c     libvcruntime:undname.obj
 0002:00002a78       ??_C@_0BD@LGICGFMM@?5Base?5Class?5Array?8@ 10023a78     libvcruntime:undname.obj
 0002:00002a8c       ??_C@_0BN@MECKDCOJ@?5Class?5Hierarchy?5Descriptor?8@ 10023a8c     libvcruntime:undname.obj
 0002:00002aac       ??_C@_0BK@CFCOFLF@?5Complete?5Object?5Locator?8@ 10023aac     libvcruntime:undname.obj
 0002:00002ac8       ??_C@_0BG@JNJLAMPM@?$GAanonymous?5namespace?8@ 10023ac8     libvcruntime:undname.obj
 0002:00002aec       ??_C@_1DM@KHCHBNEB@?$AAa?$AAp?$AAi?$AA?9?$AAm?$AAs?$AA?9?$AAw?$AAi?$AAn?$AA?9?$AAc?$AAo?$AAr?$AAe@ 10023aec     libvcruntime:winapi_downlevel.obj
 0002:00002b28       ??_C@_1DK@LPPGFMPP@?$AAa?$AAp?$AAi?$AA?9?$AAm?$AAs?$AA?9?$AAw?$AAi?$AAn?$AA?9?$AAc?$AAo?$AAr?$AAe@ 10023b28     libvcruntime:winapi_downlevel.obj
 0002:00002b64       ??_C@_1BC@GDMECMAK@?$AAk?$AAe?$AAr?$AAn?$AAe?$AAl?$AA3?$AA2@ 10023b64     libvcruntime:winapi_downlevel.obj
 0002:00002b78       ??_C@_1BA@PFFKHIOG@?$AAa?$AAp?$AAi?$AA?9?$AAm?$AAs?$AA?9@ 10023b78     libvcruntime:winapi_downlevel.obj
 0002:00002b90       ??_C@_08KNHFBNJ@FlsAlloc@  10023b90     libvcruntime:winapi_downlevel.obj
 0002:00002ba4       ??_C@_07PEJMOBNF@FlsFree@  10023ba4     libvcruntime:winapi_downlevel.obj
 0002:00002bb4       ??_C@_0M@GDNOONDI@FlsGetValue@ 10023bb4     libvcruntime:winapi_downlevel.obj
 0002:00002bc8       ??_C@_0M@JCPCPOEF@FlsSetValue@ 10023bc8     libvcruntime:winapi_downlevel.obj
 0002:00002bdc       ??_C@_0BM@HCFOFFN@InitializeCriticalSectionEx@ 10023bdc     libvcruntime:winapi_downlevel.obj
 0002:00002d60       _format_validation_lookup_table 10023d60     libucrt:output.obj
 0002:00002dbc       ??_C@_1O@CEDCILHN@?$AA?$CI?$AAn?$AAu?$AAl?$AAl?$AA?$CJ@ 10023dbc     libucrt:output.obj
 0002:00002dcc       ??_C@_06OJHGLDPL@?$CInull?$CJ@ 10023dcc     libucrt:output.obj
 0002:00002dd8       ___acrt_exception_action_table 10023dd8     libucrt:exception_filter.obj
 0002:00002e68       ___acrt_signal_action_table_count 10023e68     libucrt:exception_filter.obj
 0002:00002e6c       ___acrt_signal_action_first_fpe_index 10023e6c     libucrt:exception_filter.obj
 0002:00002e70       ___acrt_signal_action_fpe_count 10023e70     libucrt:exception_filter.obj
 0002:00002e74       ??_C@_1BI@BGOHAHKC@?$AAm?$AAs?$AAc?$AAo?$AAr?$AAe?$AAe?$AA?4?$AAd?$AAl?$AAl@ 10023e74     libucrt:exit.obj
 0002:00002e8c       ??_C@_0P@MIGLKIOC@CorExitProcess@ 10023e8c     libucrt:exit.obj
 0002:00002f70       ??_C@_1EA@JGEFHKEI@?$AAa?$AAp?$AAi?$AA?9?$AAm?$AAs?$AA?9?$AAw?$AAi?$AAn?$AA?9?$AAc?$AAo?$AAr?$AAe@ 10023f70     libucrt:winapi_thunks.obj
 0002:00002fb0       ??_C@_1DI@IJCEHOCB@?$AAa?$AAp?$AAi?$AA?9?$AAm?$AAs?$AA?9?$AAw?$AAi?$AAn?$AA?9?$AAc?$AAo?$AAr?$AAe@ 10023fb0     libucrt:winapi_thunks.obj
 0002:00002fe8       ??_C@_1EI@MPIAOHOC@?$AAa?$AAp?$AAi?$AA?9?$AAm?$AAs?$AA?9?$AAw?$AAi?$AAn?$AA?9?$AAc?$AAo?$AAr?$AAe@ 10023fe8     libucrt:winapi_thunks.obj
 0002:00003030       ??_C@_1FK@FPHCKFIE@?$AAa?$AAp?$AAi?$AA?9?$AAm?$AAs?$AA?9?$AAw?$AAi?$AAn?$AA?9?$AAc?$AAo?$AAr?$AAe@ 10024030     libucrt:winapi_thunks.obj
 0002:00003090       ??_C@_1EM@DILCGIIO@?$AAa?$AAp?$AAi?$AA?9?$AAm?$AAs?$AA?9?$AAw?$AAi?$AAn?$AA?9?$AAc?$AAo?$AAr?$AAe@ 10024090     libucrt:winapi_thunks.obj
 0002:000030dc       ??_C@_1DM@LNCGDDPN@?$AAa?$AAp?$AAi?$AA?9?$AAm?$AAs?$AA?9?$AAw?$AAi?$AAn?$AA?9?$AAc?$AAo?$AAr?$AAe@ 100240dc     libucrt:winapi_thunks.obj
 0002:00003118       ??_C@_1DO@FPAPJEMD@?$AAa?$AAp?$AAi?$AA?9?$AAm?$AAs?$AA?9?$AAw?$AAi?$AAn?$AA?9?$AAc?$AAo?$AAr?$AAe@ 10024118     libucrt:winapi_thunks.obj
 0002:00003158       ??_C@_1DK@NDHNAHIO@?$AAa?$AAp?$AAi?$AA?9?$AAm?$AAs?$AA?9?$AAw?$AAi?$AAn?$AA?9?$AAc?$AAo?$AAr?$AAe@ 10024158     libucrt:winapi_thunks.obj
 0002:00003194       ??_C@_1DM@KGHDGBCM@?$AAa?$AAp?$AAi?$AA?9?$AAm?$AAs?$AA?9?$AAw?$AAi?$AAn?$AA?9?$AAc?$AAo?$AAr?$AAe@ 10024194     libucrt:winapi_thunks.obj
 0002:000031d0       ??_C@_1EO@IJIOEFOH@?$AAa?$AAp?$AAi?$AA?9?$AAm?$AAs?$AA?9?$AAw?$AAi?$AAn?$AA?9?$AAr?$AAt?$AAc?$AAo@ 100241d0     libucrt:winapi_thunks.obj
 0002:00003220       ??_C@_1FG@HHGEKANL@?$AAa?$AAp?$AAi?$AA?9?$AAm?$AAs?$AA?9?$AAw?$AAi?$AAn?$AA?9?$AAs?$AAe?$AAc?$AAu@ 10024220     libucrt:winapi_thunks.obj
 0002:00003278       ??_C@_1EG@DBIOJECG@?$AAe?$AAx?$AAt?$AA?9?$AAm?$AAs?$AA?9?$AAw?$AAi?$AAn?$AA?9?$AAn?$AAt?$AAu?$AAs@ 10024278     libucrt:winapi_thunks.obj
 0002:000032c0       ??_C@_1EO@FIHMJCLF@?$AAe?$AAx?$AAt?$AA?9?$AAm?$AAs?$AA?9?$AAw?$AAi?$AAn?$AA?9?$AAn?$AAt?$AAu?$AAs@ 100242c0     libucrt:winapi_thunks.obj
 0002:00003310       ??_C@_1BC@DNHGCMLG@?$AAa?$AAd?$AAv?$AAa?$AAp?$AAi?$AA3?$AA2@ 10024310     libucrt:winapi_thunks.obj
 0002:00003324       ??_C@_1M@OAIMIKLP@?$AAn?$AAt?$AAd?$AAl?$AAl@ 10024324     libucrt:winapi_thunks.obj
 0002:00003330       ??_C@_1EG@DPGNFKGC@?$AAa?$AAp?$AAi?$AA?9?$AAm?$AAs?$AA?9?$AAw?$AAi?$AAn?$AA?9?$AAa?$AAp?$AAp?$AAm@ 10024330     libucrt:winapi_thunks.obj
 0002:00003378       ??_C@_1O@BCCLBEOE@?$AAu?$AAs?$AAe?$AAr?$AA3?$AA2@ 10024378     libucrt:winapi_thunks.obj
 0002:00003388       ??_C@_1BA@IAIFMGEF@?$AAe?$AAx?$AAt?$AA?9?$AAm?$AAs?$AA?9@ 10024388     libucrt:winapi_thunks.obj
 0002:0000339c       ??_C@_0BA@FHFNEAED@AreFileApisANSI@ 1002439c     libucrt:winapi_thunks.obj
 0002:000033dc       ??_C@_0O@KKBNKAPF@LCMapStringEx@ 100243dc     libucrt:winapi_thunks.obj
 0002:000033f4       ??_C@_0BB@HBDEELFH@LocaleNameToLCID@ 100243f4     libucrt:winapi_thunks.obj
 0002:0000340c       ??_C@_0CF@OJOFEIGO@AppPolicyGetProcessTerminationM@ 1002440c     libucrt:winapi_thunks.obj
 0002:0000343c       ??_C@_0BI@BKLFFAPO@SetThreadStackGuarantee@ 1002443c     libucrt:winapi_thunks.obj
 0002:00003498       ??_C@_03OEIAHPBN@INF@      10024498     libucrt:cvt.obj
 0002:0000349c       ??_C@_03OJHLLCGB@inf@      1002449c     libucrt:cvt.obj
 0002:000034a0       ??_C@_03LKNCIKJB@NAN@      100244a0     libucrt:cvt.obj
 0002:000034a4       ??_C@_03LHCJEHON@nan@      100244a4     libucrt:cvt.obj
 0002:000034a8       ??_C@_09OFJJIMPC@NAN?$CISNAN?$CJ@ 100244a8     libucrt:cvt.obj
 0002:000034b4       ??_C@_09IPFBKMDL@nan?$CIsnan?$CJ@ 100244b4     libucrt:cvt.obj
 0002:000034c0       ??_C@_08IKHNHAJ@NAN?$CIIND?$CJ@ 100244c0     libucrt:cvt.obj
 0002:000034cc       ??_C@_08OFCDMILK@nan?$CIind?$CJ@ 100244cc     libucrt:cvt.obj
 0002:000034d8       ??_C@_05KLBDPFGC@e?$CL000@ 100244d8     libucrt:cvt.obj
 0002:000034e0       ___lc_time_c               100244e0     libucrt:nlsdata.obj
 0002:00003644       ??_C@_03KOEHGMDN@Sun@      10024644     libucrt:nlsdata.obj
 0002:00003648       ??_C@_03PDAGKDH@Mon@       10024648     libucrt:nlsdata.obj
 0002:0000364c       ??_C@_03NAGEINEP@Tue@      1002464c     libucrt:nlsdata.obj
 0002:00003650       ??_C@_03MHOMLAJA@Wed@      10024650     libucrt:nlsdata.obj
 0002:00003654       ??_C@_03IOFIKPDN@Thu@      10024654     libucrt:nlsdata.obj
 0002:00003658       ??_C@_03IDIOELNC@Fri@      10024658     libucrt:nlsdata.obj
 0002:0000365c       ??_C@_03FEFJNEK@Sat@       1002465c     libucrt:nlsdata.obj
 0002:00003660       ??_C@_06OOPIFAJ@Sunday@    10024660     libucrt:nlsdata.obj
 0002:00003668       ??_C@_06JLEDEDGH@Monday@   10024668     libucrt:nlsdata.obj
 0002:00003670       ??_C@_07BAAGCFCM@Tuesday@  10024670     libucrt:nlsdata.obj
 0002:00003678       ??_C@_09DLIGFAKA@Wednesday@ 10024678     libucrt:nlsdata.obj
 0002:00003684       ??_C@_08HACCIKIA@Thursday@ 10024684     libucrt:nlsdata.obj
 0002:00003690       ??_C@_06JECMNKMI@Friday@   10024690     libucrt:nlsdata.obj
 0002:00003698       ??_C@_08INBOOONO@Saturday@ 10024698     libucrt:nlsdata.obj
 0002:000036a4       ??_C@_03JIHJHPIE@Jan@      100246a4     libucrt:nlsdata.obj
 0002:000036a8       ??_C@_03HJBDCHOM@Feb@      100246a8     libucrt:nlsdata.obj
 0002:000036ac       ??_C@_03ODNJBKGA@Mar@      100246ac     libucrt:nlsdata.obj
 0002:000036b0       ??_C@_03LEOLGMJP@Apr@      100246b0     libucrt:nlsdata.obj
 0002:000036b4       ??_C@_03CNMDKL@May@        100246b4     libucrt:nlsdata.obj
 0002:000036b8       ??_C@_03IDFGHECI@Jun@      100246b8     libucrt:nlsdata.obj
 0002:000036bc       ??_C@_03LBGABGKK@Jul@      100246bc     libucrt:nlsdata.obj
 0002:000036c0       ??_C@_03IFJFEIGA@Aug@      100246c0     libucrt:nlsdata.obj
 0002:000036c4       ??_C@_03GGCAPAJC@Sep@      100246c4     libucrt:nlsdata.obj
 0002:000036c8       ??_C@_03BMAOKBAD@Oct@      100246c8     libucrt:nlsdata.obj
 0002:000036cc       ??_C@_03JPJOFNIA@Nov@      100246cc     libucrt:nlsdata.obj
 0002:000036d0       ??_C@_03MKABNOCG@Dec@      100246d0     libucrt:nlsdata.obj
 0002:000036d4       ??_C@_07CGJPFGJA@January@  100246d4     libucrt:nlsdata.obj
 0002:000036dc       ??_C@_08GNJGEPFN@February@ 100246dc     libucrt:nlsdata.obj
 0002:000036e8       ??_C@_05HPCKOFNC@March@    100246e8     libucrt:nlsdata.obj
 0002:000036f0       ??_C@_05DMJDNLEJ@April@    100246f0     libucrt:nlsdata.obj
 0002:000036f8       ??_C@_04CNLMGBGM@June@     100246f8     libucrt:nlsdata.obj
 0002:00003700       ??_C@_04MIEPOIFP@July@     10024700     libucrt:nlsdata.obj
 0002:00003708       ??_C@_06LBBHFDDG@August@   10024708     libucrt:nlsdata.obj
 0002:00003710       ??_C@_09BHHEALKD@September@ 10024710     libucrt:nlsdata.obj
 0002:0000371c       ??_C@_07JJNFCEND@October@  1002471c     libucrt:nlsdata.obj
 0002:00003724       ??_C@_08HCHEGEOA@November@ 10024724     libucrt:nlsdata.obj
 0002:00003730       ??_C@_08EDHMEBNP@December@ 10024730     libucrt:nlsdata.obj
 0002:0000373c       ??_C@_02DEDBPAFC@AM@       1002473c     libucrt:nlsdata.obj
 0002:00003740       ??_C@_02CJNFDJBF@PM@       10024740     libucrt:nlsdata.obj
 0002:00003744       ??_C@_08BPBNCDIB@MM?1dd?1yy@ 10024744     libucrt:nlsdata.obj
 0002:00003750       ??_C@_0BE@CKGJFCPC@dddd?0?5MMMM?5dd?0?5yyyy@ 10024750     libucrt:nlsdata.obj
 0002:00003764       ??_C@_08JCCMCCIL@HH?3mm?3ss@ 10024764     libucrt:nlsdata.obj
 0002:00003770       ??_C@_17MBGCMIPB@?$AAS?$AAu?$AAn@ 10024770     libucrt:nlsdata.obj
 0002:00003778       ??_C@_17KBOMKBF@?$AAM?$AAo?$AAn@ 10024778     libucrt:nlsdata.obj
 0002:00003780       ??_C@_17BMKGEGOJ@?$AAT?$AAu?$AAe@ 10024780     libucrt:nlsdata.obj
 0002:00003788       ??_C@_17CJEDCEPE@?$AAW?$AAe?$AAd@ 10024788     libucrt:nlsdata.obj
 0002:00003790       ??_C@_17PDPHAADD@?$AAT?$AAh?$AAu@ 10024790     libucrt:nlsdata.obj
 0002:00003798       ??_C@_17HFOLPPLP@?$AAF?$AAr?$AAi@ 10024798     libucrt:nlsdata.obj
 0002:000037a0       ??_C@_17GGIBDPIH@?$AAS?$AAa?$AAt@ 100247a0     libucrt:nlsdata.obj
 0002:000037a8       ??_C@_1O@IHNHDHPB@?$AAS?$AAu?$AAn?$AAd?$AAa?$AAy@ 100247a8     libucrt:nlsdata.obj
 0002:000037b8       ??_C@_1O@MMNBFLIA@?$AAM?$AAo?$AAn?$AAd?$AAa?$AAy@ 100247b8     libucrt:nlsdata.obj
 0002:000037c8       ??_C@_1BA@ENFBFFEK@?$AAT?$AAu?$AAe?$AAs?$AAd?$AAa?$AAy@ 100247c8     libucrt:nlsdata.obj
 0002:000037d8       ??_C@_1BE@EBOGMDOH@?$AAW?$AAe?$AAd?$AAn?$AAe?$AAs?$AAd?$AAa?$AAy@ 100247d8     libucrt:nlsdata.obj
 0002:000037ec       ??_C@_1BC@HHMNLIHE@?$AAT?$AAh?$AAu?$AAr?$AAs?$AAd?$AAa?$AAy@ 100247ec     libucrt:nlsdata.obj
 0002:00003800       ??_C@_1O@PDICJHAG@?$AAF?$AAr?$AAi?$AAd?$AAa?$AAy@ 10024800     libucrt:nlsdata.obj
 0002:00003810       ??_C@_1BC@ENMNNPAJ@?$AAS?$AAa?$AAt?$AAu?$AAr?$AAd?$AAa?$AAy@ 10024810     libucrt:nlsdata.obj
 0002:00003824       ??_C@_17DKNBKCHM@?$AAJ?$AAa?$AAn@ 10024824     libucrt:nlsdata.obj
 0002:0000382c       ??_C@_17LMDJEKJN@?$AAF?$AAe?$AAb@ 1002482c     libucrt:nlsdata.obj
 0002:00003834       ??_C@_17CKNLEDEC@?$AAM?$AAa?$AAr@ 10024834     libucrt:nlsdata.obj
 0002:0000383c       ??_C@_17LFPOIHDD@?$AAA?$AAp?$AAr@ 1002483c     libucrt:nlsdata.obj
 0002:00003844       ??_C@_17PNNKMEED@?$AAM?$AAa?$AAy@ 10024844     libucrt:nlsdata.obj
 0002:0000384c       ??_C@_17KCJGOCPB@?$AAJ?$AAu?$AAn@ 1002484c     libucrt:nlsdata.obj
 0002:00003854       ??_C@_17IJPCKHK@?$AAJ?$AAu?$AAl@ 10024854     libucrt:nlsdata.obj
 0002:0000385c       ??_C@_17ICPELBCN@?$AAA?$AAu?$AAg@ 1002485c     libucrt:nlsdata.obj
 0002:00003864       ??_C@_17HCHCOKMG@?$AAS?$AAe?$AAp@ 10024864     libucrt:nlsdata.obj
 0002:0000386c       ??_C@_17FNLKOI@?$AAO?$AAc?$AAt@ 1002486c     libucrt:nlsdata.obj
 0002:00003874       ??_C@_17BBDMLCIG@?$AAN?$AAo?$AAv@ 10024874     libucrt:nlsdata.obj
 0002:0000387c       ??_C@_17EGKACKIF@?$AAD?$AAe?$AAc@ 1002487c     libucrt:nlsdata.obj
 0002:00003884       ??_C@_1BA@EFMEIEBA@?$AAJ?$AAa?$AAn?$AAu?$AAa?$AAr?$AAy@ 10024884     libucrt:nlsdata.obj
 0002:00003894       ??_C@_1BC@JGDDFFAM@?$AAF?$AAe?$AAb?$AAr?$AAu?$AAa?$AAr?$AAy@ 10024894     libucrt:nlsdata.obj
 0002:000038a8       ??_C@_1M@IKEENEDF@?$AAM?$AAa?$AAr?$AAc?$AAh@ 100248a8     libucrt:nlsdata.obj
 0002:000038b4       ??_C@_1M@GJNLMHFD@?$AAA?$AAp?$AAr?$AAi?$AAl@ 100248b4     libucrt:nlsdata.obj
 0002:000038c0       ??_C@_19EPFLPGAP@?$AAJ?$AAu?$AAn?$AAe@ 100248c0     libucrt:nlsdata.obj
 0002:000038cc       ??_C@_19BIFMLPCD@?$AAJ?$AAu?$AAl?$AAy@ 100248cc     libucrt:nlsdata.obj
 0002:000038d8       ??_C@_1O@PAHLKOAC@?$AAA?$AAu?$AAg?$AAu?$AAs?$AAt@ 100248d8     libucrt:nlsdata.obj
 0002:000038e8       ??_C@_1BE@DKAAMBJL@?$AAS?$AAe?$AAp?$AAt?$AAe?$AAm?$AAb?$AAe?$AAr@ 100248e8     libucrt:nlsdata.obj
 0002:000038fc       ??_C@_1BA@EPANDLNG@?$AAO?$AAc?$AAt?$AAo?$AAb?$AAe?$AAr@ 100248fc     libucrt:nlsdata.obj
 0002:0000390c       ??_C@_1BC@BGLIFPF@?$AAN?$AAo?$AAv?$AAe?$AAm?$AAb?$AAe?$AAr@ 1002490c     libucrt:nlsdata.obj
 0002:00003920       ??_C@_1BC@FEMKIFH@?$AAD?$AAe?$AAc?$AAe?$AAm?$AAb?$AAe?$AAr@ 10024920     libucrt:nlsdata.obj
 0002:00003934       ??_C@_15ODEHAHHF@?$AAA?$AAM@ 10024934     libucrt:nlsdata.obj
 0002:0000393c       ??_C@_15CLMNNGEL@?$AAP?$AAM@ 1002493c     libucrt:nlsdata.obj
 0002:00003944       ??_C@_1BC@IEBCMHCM@?$AAM?$AAM?$AA?1?$AAd?$AAd?$AA?1?$AAy?$AAy@ 10024944     libucrt:nlsdata.obj
 0002:00003958       ??_C@_1CI@KNAKOEBC@?$AAd?$AAd?$AAd?$AAd?$AA?0?$AA?5?$AAM?$AAM?$AAM?$AAM?$AA?5?$AAd?$AAd?$AA?0?$AA?5@ 10024958     libucrt:nlsdata.obj
 0002:00003980       ??_C@_1BC@GDGBMEMK@?$AAH?$AAH?$AA?3?$AAm?$AAm?$AA?3?$AAs?$AAs@ 10024980     libucrt:nlsdata.obj
 0002:00003994       ??_C@_1M@BMHNFIME@?$AAe?$AAn?$AA?9?$AAU?$AAS@ 10024994     libucrt:nlsdata.obj
 0002:000039b0       ??_C@_1M@HPNHIDJI@?$AAj?$AAa?$AA?9?$AAJ?$AAP@ 100249b0     libucrt:mbctype.obj
 0002:000039bc       ??_C@_1M@BIBDDEMK@?$AAz?$AAh?$AA?9?$AAC?$AAN@ 100249bc     libucrt:mbctype.obj
 0002:000039c8       ??_C@_1M@JLOOOEGK@?$AAk?$AAo?$AA?9?$AAK?$AAR@ 100249c8     libucrt:mbctype.obj
 0002:000039d4       ??_C@_1M@CLNBBOPM@?$AAz?$AAh?$AA?9?$AAT?$AAW@ 100249d4     libucrt:mbctype.obj
 0002:000039e0       ___newctype                100249e0     libucrt:ctype.obj
 0002:00003ce0       ___newclmap                10024ce0     libucrt:ctype.obj
 0002:00003e60       ___newcumap                10024e60     libucrt:ctype.obj
 0002:00003fe0       __wctype                   10024fe0     libucrt:ctype.obj
 0002:00004908       ??_C@_15EMKDOKLE@?$AAa?$AAr@ 10025908     libucrt:lcidtoname_downlevel.obj
 0002:00004910       ??_C@_15KNPADPLH@?$AAb?$AAg@ 10025910     libucrt:lcidtoname_downlevel.obj
 0002:00004918       ??_C@_15EDMHLDMO@?$AAc?$AAa@ 10025918     libucrt:lcidtoname_downlevel.obj
 0002:00004920       ??_C@_1O@BPEAJADD@?$AAz?$AAh?$AA?9?$AAC?$AAH?$AAS@ 10025920     libucrt:lcidtoname_downlevel.obj
 0002:00004930       ??_C@_15LJNHCMNK@?$AAc?$AAs@ 10025930     libucrt:lcidtoname_downlevel.obj
 0002:00004938       ??_C@_15FOMCIDHG@?$AAd?$AAa@ 10025938     libucrt:lcidtoname_downlevel.obj
 0002:00004940       ??_C@_15NBKABECB@?$AAd?$AAe@ 10025940     libucrt:lcidtoname_downlevel.obj
 0002:00004948       ??_C@_15GHPEIIAO@?$AAe?$AAl@ 10025948     libucrt:lcidtoname_downlevel.obj
 0002:00004950       ??_C@_15MNPNEAIF@?$AAe?$AAn@ 10025950     libucrt:lcidtoname_downlevel.obj
 0002:00004958       ??_C@_15GPIOMPMH@?$AAe?$AAs@ 10025958     libucrt:lcidtoname_downlevel.obj
 0002:00004960       ??_C@_15NGLOAKJC@?$AAf?$AAi@ 10025960     libucrt:lcidtoname_downlevel.obj
 0002:00004968       ??_C@_15FBKGNKAM@?$AAf?$AAr@ 10025968     libucrt:lcidtoname_downlevel.obj
 0002:00004970       ??_C@_15KGGCNEFK@?$AAh?$AAe@ 10025970     libucrt:lcidtoname_downlevel.obj
 0002:00004978       ??_C@_15PGHLIDMF@?$AAh?$AAu@ 10025978     libucrt:lcidtoname_downlevel.obj
 0002:00004980       ??_C@_15BIEMAPLM@?$AAi?$AAs@ 10025980     libucrt:lcidtoname_downlevel.obj
 0002:00004988       ??_C@_15IFJLDHAF@?$AAi?$AAt@ 10025988     libucrt:lcidtoname_downlevel.obj
 0002:00004990       ??_C@_15GEMIOCAG@?$AAj?$AAa@ 10025990     libucrt:lcidtoname_downlevel.obj
 0002:00004998       ??_C@_15EPELEGJA@?$AAk?$AAo@ 10025998     libucrt:lcidtoname_downlevel.obj
 0002:000049a0       ??_C@_15NDDHIMN@?$AAn?$AAl@ 100259a0     libucrt:lcidtoname_downlevel.obj
 0002:000049a8       ??_C@_15BPIGNHCD@?$AAn?$AAo@ 100259a8     libucrt:lcidtoname_downlevel.obj
 0002:000049b0       ??_C@_15DEOPBLCG@?$AAp?$AAl@ 100259b0     libucrt:lcidtoname_downlevel.obj
 0002:000049b8       ??_C@_15KBECGEFG@?$AAp?$AAt@ 100259b8     libucrt:lcidtoname_downlevel.obj
 0002:000049c0       ??_C@_15GLJCBFMD@?$AAr?$AAo@ 100259c0     libucrt:lcidtoname_downlevel.obj
 0002:000049c8       ??_C@_15FEDGKCDI@?$AAr?$AAu@ 100259c8     libucrt:lcidtoname_downlevel.obj
 0002:000049d0       ??_C@_15GLKMLLHM@?$AAh?$AAr@ 100259d0     libucrt:lcidtoname_downlevel.obj
 0002:000049d8       ??_C@_15CPKMFBDB@?$AAs?$AAk@ 100259d8     libucrt:lcidtoname_downlevel.obj
 0002:000049e0       ??_C@_15BAAIOGMK@?$AAs?$AAq@ 100259e0     libucrt:lcidtoname_downlevel.obj
 0002:000049e8       ??_C@_15INNPNOHD@?$AAs?$AAv@ 100259e8     libucrt:lcidtoname_downlevel.obj
 0002:000049f0       ??_C@_15CABMMOGH@?$AAt?$AAh@ 100259f0     libucrt:lcidtoname_downlevel.obj
 0002:000049f8       ??_C@_15BPLIHJJM@?$AAt?$AAr@ 100259f8     libucrt:lcidtoname_downlevel.obj
 0002:00004a00       ??_C@_15NEOEKKDJ@?$AAu?$AAr@ 10025a00     libucrt:lcidtoname_downlevel.obj
 0002:00004a08       ??_C@_15NFICGAJK@?$AAi?$AAd@ 10025a08     libucrt:lcidtoname_downlevel.obj
 0002:00004a10       ??_C@_15PJPFLCCM@?$AAu?$AAk@ 10025a10     libucrt:lcidtoname_downlevel.obj
 0002:00004a18       ??_C@_15HPJPHDM@?$AAb?$AAe@ 10025a18     libucrt:lcidtoname_downlevel.obj
 0002:00004a20       ??_C@_15LCHLGJII@?$AAs?$AAl@ 10025a20     libucrt:lcidtoname_downlevel.obj
 0002:00004a28       ??_C@_15PCFJPHHO@?$AAe?$AAt@ 10025a28     libucrt:lcidtoname_downlevel.obj
 0002:00004a30       ??_C@_15HPFPGODN@?$AAl?$AAv@ 10025a30     libucrt:lcidtoname_downlevel.obj
 0002:00004a38       ??_C@_15NFFGKGLG@?$AAl?$AAt@ 10025a38     libucrt:lcidtoname_downlevel.obj
 0002:00004a40       ??_C@_15BDAKCCHN@?$AAf?$AAa@ 10025a40     libucrt:lcidtoname_downlevel.obj
 0002:00004a48       ??_C@_15NFGIAIAJ@?$AAv?$AAi@ 10025a48     libucrt:lcidtoname_downlevel.obj
 0002:00004a50       ??_C@_15LMKNDMHN@?$AAh?$AAy@ 10025a50     libucrt:lcidtoname_downlevel.obj
 0002:00004a58       ??_C@_15IJBHMCFL@?$AAa?$AAz@ 10025a58     libucrt:lcidtoname_downlevel.obj
 0002:00004a60       ??_C@_15EKOFJABL@?$AAe?$AAu@ 10025a60     libucrt:lcidtoname_downlevel.obj
 0002:00004a68       ??_C@_15BGHADCNK@?$AAm?$AAk@ 10025a68     libucrt:lcidtoname_downlevel.obj
 0002:00004a70       ??_C@_15JDNICKHM@?$AAa?$AAf@ 10025a70     libucrt:lcidtoname_downlevel.obj
 0002:00004a78       ??_C@_15KPJEDBKD@?$AAk?$AAa@ 10025a78     libucrt:lcidtoname_downlevel.obj
 0002:00004a80       ??_C@_15PDNFFFEO@?$AAf?$AAo@ 10025a80     libucrt:lcidtoname_downlevel.obj
 0002:00004a88       ??_C@_15OMLEGLOC@?$AAh?$AAi@ 10025a88     libucrt:lcidtoname_downlevel.obj
 0002:00004a90       ??_C@_15IDNNENKK@?$AAm?$AAs@ 10025a90     libucrt:lcidtoname_downlevel.obj
 0002:00004a98       ??_C@_15MACJNBMH@?$AAk?$AAk@ 10025a98     libucrt:lcidtoname_downlevel.obj
 0002:00004aa0       ??_C@_15DKDJEOND@?$AAk?$AAy@ 10025aa0     libucrt:lcidtoname_downlevel.obj
 0002:00004aa8       ??_C@_15DFGDLJBG@?$AAs?$AAw@ 10025aa8     libucrt:lcidtoname_downlevel.obj
 0002:00004ab0       ??_C@_15BBFAICNG@?$AAu?$AAz@ 10025ab0     libucrt:lcidtoname_downlevel.obj
 0002:00004ab8       ??_C@_15DKNDCGEA@?$AAt?$AAt@ 10025ab8     libucrt:lcidtoname_downlevel.obj
 0002:00004ac0       ??_C@_15MGIFMDPL@?$AAp?$AAa@ 10025ac0     libucrt:lcidtoname_downlevel.obj
 0002:00004ac8       ??_C@_15HCNDBBA@?$AAg?$AAu@ 10025ac8     libucrt:lcidtoname_downlevel.obj
 0002:00004ad0       ??_C@_15FNBEIBON@?$AAt?$AAa@ 10025ad0     libucrt:lcidtoname_downlevel.obj
 0002:00004ad8       ??_C@_15NCHGBGLK@?$AAt?$AAe@ 10025ad8     libucrt:lcidtoname_downlevel.obj
 0002:00004ae0       ??_C@_15PHPHCBPF@?$AAk?$AAn@ 10025ae0     libucrt:lcidtoname_downlevel.obj
 0002:00004ae8       ??_C@_15DLGBCKMP@?$AAm?$AAr@ 10025ae8     libucrt:lcidtoname_downlevel.obj
 0002:00004af0       ??_C@_15EABBLBFF@?$AAs?$AAa@ 10025af0     libucrt:lcidtoname_downlevel.obj
 0002:00004af8       ??_C@_15CBKOMCOI@?$AAm?$AAn@ 10025af8     libucrt:lcidtoname_downlevel.obj
 0002:00004b00       ??_C@_15CKDMCJAF@?$AAg?$AAl@ 10025b00     libucrt:lcidtoname_downlevel.obj
 0002:00004b08       ??_C@_17CNJFBPG@?$AAk?$AAo?$AAk@ 10025b08     libucrt:lcidtoname_downlevel.obj
 0002:00004b10       ??_C@_17FFBJICPL@?$AAs?$AAy?$AAr@ 10025b10     libucrt:lcidtoname_downlevel.obj
 0002:00004b18       ??_C@_17KPNDCPAF@?$AAd?$AAi?$AAv@ 10025b18     libucrt:lcidtoname_downlevel.obj
 0002:00004b20       ??_C@_1M@OKAHONE@?$AAa?$AAr?$AA?9?$AAS?$AAA@ 10025b20     libucrt:lcidtoname_downlevel.obj
 0002:00004b2c       ??_C@_1M@FFFIGIGK@?$AAb?$AAg?$AA?9?$AAB?$AAG@ 10025b2c     libucrt:lcidtoname_downlevel.obj
 0002:00004b38       ??_C@_1M@BJNKEDC@?$AAc?$AAa?$AA?9?$AAE?$AAS@ 10025b38     libucrt:lcidtoname_downlevel.obj
 0002:00004b44       ??_C@_1M@IJJHFJHA@?$AAc?$AAs?$AA?9?$AAC?$AAZ@ 10025b44     libucrt:lcidtoname_downlevel.obj
 0002:00004b50       ??_C@_1M@CLPEOBGI@?$AAd?$AAa?$AA?9?$AAD?$AAK@ 10025b50     libucrt:lcidtoname_downlevel.obj
 0002:00004b5c       ??_C@_1M@MCMADGCB@?$AAd?$AAe?$AA?9?$AAD?$AAE@ 10025b5c     libucrt:lcidtoname_downlevel.obj
 0002:00004b68       ??_C@_1M@OOCKEMAM@?$AAe?$AAl?$AA?9?$AAG?$AAR@ 10025b68     libucrt:lcidtoname_downlevel.obj
 0002:00004b74       ??_C@_1M@DDNJFGID@?$AAf?$AAi?$AA?9?$AAF?$AAI@ 10025b74     libucrt:lcidtoname_downlevel.obj
 0002:00004b80       ??_C@_1M@GLIPPMAC@?$AAf?$AAr?$AA?9?$AAF?$AAR@ 10025b80     libucrt:lcidtoname_downlevel.obj
 0002:00004b8c       ??_C@_1M@GFMCHPE@?$AAh?$AAe?$AA?9?$AAI?$AAL@ 10025b8c     libucrt:lcidtoname_downlevel.obj
 0002:00004b98       ??_C@_1M@MHLPGNKM@?$AAh?$AAu?$AA?9?$AAH?$AAU@ 10025b98     libucrt:lcidtoname_downlevel.obj
 0002:00004ba4       ??_C@_1M@LPDDNNPN@?$AAi?$AAs?$AA?9?$AAI?$AAS@ 10025ba4     libucrt:lcidtoname_downlevel.obj
 0002:00004bb0       ??_C@_1M@MADIPODN@?$AAi?$AAt?$AA?9?$AAI?$AAT@ 10025bb0     libucrt:lcidtoname_downlevel.obj
 0002:00004bbc       ??_C@_1M@IHBJJGG@?$AAn?$AAl?$AA?9?$AAN?$AAL@ 10025bbc     libucrt:lcidtoname_downlevel.obj
 0002:00004bc8       ??_C@_1M@EANAGDL@?$AAn?$AAb?$AA?9?$AAN?$AAO@ 10025bc8     libucrt:lcidtoname_downlevel.obj
 0002:00004bd4       ??_C@_1M@NEIEMEGP@?$AAp?$AAl?$AA?9?$AAP?$AAL@ 10025bd4     libucrt:lcidtoname_downlevel.obj
 0002:00004be0       ??_C@_1M@BOCFIGEP@?$AAp?$AAt?$AA?9?$AAB?$AAR@ 10025be0     libucrt:lcidtoname_downlevel.obj
 0002:00004bec       ??_C@_1M@IMPFOPBG@?$AAr?$AAo?$AA?9?$AAR?$AAO@ 10025bec     libucrt:lcidtoname_downlevel.obj
 0002:00004bf8       ??_C@_1M@IDNNEJMM@?$AAr?$AAu?$AA?9?$AAR?$AAU@ 10025bf8     libucrt:lcidtoname_downlevel.obj
 0002:00004c04       ??_C@_1M@LILEEOGM@?$AAh?$AAr?$AA?9?$AAH?$AAR@ 10025c04     libucrt:lcidtoname_downlevel.obj
 0002:00004c10       ??_C@_1M@FKIFEHPB@?$AAs?$AAk?$AA?9?$AAS?$AAK@ 10025c10     libucrt:lcidtoname_downlevel.obj
 0002:00004c1c       ??_C@_1M@LJMAMNPJ@?$AAs?$AAq?$AA?9?$AAA?$AAL@ 10025c1c     libucrt:lcidtoname_downlevel.obj
 0002:00004c28       ??_C@_1M@GIAKDKJK@?$AAs?$AAv?$AA?9?$AAS?$AAE@ 10025c28     libucrt:lcidtoname_downlevel.obj
 0002:00004c34       ??_C@_1M@MKJKIKCL@?$AAt?$AAh?$AA?9?$AAT?$AAH@ 10025c34     libucrt:lcidtoname_downlevel.obj
 0002:00004c40       ??_C@_1M@MFLCCMPB@?$AAt?$AAr?$AA?9?$AAT?$AAR@ 10025c40     libucrt:lcidtoname_downlevel.obj
 0002:00004c4c       ??_C@_1M@OIJHDKJN@?$AAu?$AAr?$AA?9?$AAP?$AAK@ 10025c4c     libucrt:lcidtoname_downlevel.obj
 0002:00004c58       ??_C@_1M@LHIPCIEK@?$AAi?$AAd?$AA?9?$AAI?$AAD@ 10025c58     libucrt:lcidtoname_downlevel.obj
 0002:00004c64       ??_C@_1M@MFMOBGI@?$AAu?$AAk?$AA?9?$AAU?$AAA@ 10025c64     libucrt:lcidtoname_downlevel.obj
 0002:00004c70       ??_C@_1M@OBGLJIPL@?$AAb?$AAe?$AA?9?$AAB?$AAY@ 10025c70     libucrt:lcidtoname_downlevel.obj
 0002:00004c7c       ??_C@_1M@BCFAJEAD@?$AAs?$AAl?$AA?9?$AAS?$AAI@ 10025c7c     libucrt:lcidtoname_downlevel.obj
 0002:00004c88       ??_C@_1M@FKFFEDDN@?$AAe?$AAt?$AA?9?$AAE?$AAE@ 10025c88     libucrt:lcidtoname_downlevel.obj
 0002:00004c94       ??_C@_1M@KGKKAACI@?$AAl?$AAv?$AA?9?$AAL?$AAV@ 10025c94     libucrt:lcidtoname_downlevel.obj
 0002:00004ca0       ??_C@_1M@IFGBIJO@?$AAl?$AAt?$AA?9?$AAL?$AAT@ 10025ca0     libucrt:lcidtoname_downlevel.obj
 0002:00004cac       ??_C@_1M@FGEAHEDM@?$AAf?$AAa?$AA?9?$AAI?$AAR@ 10025cac     libucrt:lcidtoname_downlevel.obj
 0002:00004cb8       ??_C@_1M@KBMAIBFN@?$AAv?$AAi?$AA?9?$AAV?$AAN@ 10025cb8     libucrt:lcidtoname_downlevel.obj
 0002:00004cc4       ??_C@_1M@GPCBKDJK@?$AAh?$AAy?$AA?9?$AAA?$AAM@ 10025cc4     libucrt:lcidtoname_downlevel.obj
 0002:00004cd0       ??_C@_1BG@BECMDDJB@?$AAa?$AAz?$AA?9?$AAA?$AAZ?$AA?9?$AAL?$AAa?$AAt?$AAn@ 10025cd0     libucrt:lcidtoname_downlevel.obj
 0002:00004ce8       ??_C@_1M@MAOFCAEA@?$AAe?$AAu?$AA?9?$AAE?$AAS@ 10025ce8     libucrt:lcidtoname_downlevel.obj
 0002:00004cf4       ??_C@_1M@IGHABKPI@?$AAm?$AAk?$AA?9?$AAM?$AAK@ 10025cf4     libucrt:lcidtoname_downlevel.obj
 0002:00004d00       ??_C@_1M@IAIGNEJG@?$AAt?$AAn?$AA?9?$AAZ?$AAA@ 10025d00     libucrt:lcidtoname_downlevel.obj
 0002:00004d0c       ??_C@_1M@IIJCOJFA@?$AAx?$AAh?$AA?9?$AAZ?$AAA@ 10025d0c     libucrt:lcidtoname_downlevel.obj
 0002:00004d18       ??_C@_1M@LGPJHNJH@?$AAz?$AAu?$AA?9?$AAZ?$AAA@ 10025d18     libucrt:lcidtoname_downlevel.obj
 0002:00004d24       ??_C@_1M@HOKAOIO@?$AAa?$AAf?$AA?9?$AAZ?$AAA@ 10025d24     libucrt:lcidtoname_downlevel.obj
 0002:00004d30       ??_C@_1M@DPCLHLIE@?$AAk?$AAa?$AA?9?$AAG?$AAE@ 10025d30     libucrt:lcidtoname_downlevel.obj
 0002:00004d3c       ??_C@_1M@BLKMHJBI@?$AAf?$AAo?$AA?9?$AAF?$AAO@ 10025d3c     libucrt:lcidtoname_downlevel.obj
 0002:00004d48       ??_C@_1M@LGGJAPPB@?$AAh?$AAi?$AA?9?$AAI?$AAN@ 10025d48     libucrt:lcidtoname_downlevel.obj
 0002:00004d54       ??_C@_1M@FIKPIHFE@?$AAm?$AAt?$AA?9?$AAM?$AAT@ 10025d54     libucrt:lcidtoname_downlevel.obj
 0002:00004d60       ??_C@_1M@HEGGPBFA@?$AAs?$AAe?$AA?9?$AAN?$AAO@ 10025d60     libucrt:lcidtoname_downlevel.obj
 0002:00004d6c       ??_C@_1M@EIBJEEPA@?$AAm?$AAs?$AA?9?$AAM?$AAY@ 10025d6c     libucrt:lcidtoname_downlevel.obj
 0002:00004d78       ??_C@_1M@FHLBGMPP@?$AAk?$AAk?$AA?9?$AAK?$AAZ@ 10025d78     libucrt:lcidtoname_downlevel.obj
 0002:00004d84       ??_C@_1M@NGJJLCGI@?$AAk?$AAy?$AA?9?$AAK?$AAG@ 10025d84     libucrt:lcidtoname_downlevel.obj
 0002:00004d90       ??_C@_1M@GIENNBFC@?$AAs?$AAw?$AA?9?$AAK?$AAE@ 10025d90     libucrt:lcidtoname_downlevel.obj
 0002:00004d9c       ??_C@_1BG@NDGMJIMJ@?$AAu?$AAz?$AA?9?$AAU?$AAZ?$AA?9?$AAL?$AAa?$AAt?$AAn@ 10025d9c     libucrt:lcidtoname_downlevel.obj
 0002:00004db4       ??_C@_1M@IDCCIHBC@?$AAt?$AAt?$AA?9?$AAR?$AAU@ 10025db4     libucrt:lcidtoname_downlevel.obj
 0002:00004dc0       ??_C@_1M@LOICPMOJ@?$AAb?$AAn?$AA?9?$AAI?$AAN@ 10025dc0     libucrt:lcidtoname_downlevel.obj
 0002:00004dcc       ??_C@_1M@KPKKNEAH@?$AAp?$AAa?$AA?9?$AAI?$AAN@ 10025dcc     libucrt:lcidtoname_downlevel.obj
 0002:00004dd8       ??_C@_1M@PJGPPBOG@?$AAg?$AAu?$AA?9?$AAI?$AAN@ 10025dd8     libucrt:lcidtoname_downlevel.obj
 0002:00004de4       ??_C@_1M@KMKMOPHI@?$AAt?$AAa?$AA?9?$AAI?$AAN@ 10025de4     libucrt:lcidtoname_downlevel.obj
 0002:00004df0       ??_C@_1M@KFEHEPAC@?$AAt?$AAe?$AA?9?$AAI?$AAN@ 10025df0     libucrt:lcidtoname_downlevel.obj
 0002:00004dfc       ??_C@_1M@CDCLMGHI@?$AAk?$AAn?$AA?9?$AAI?$AAN@ 10025dfc     libucrt:lcidtoname_downlevel.obj
 0002:00004e08       ??_C@_1M@MIODLDKF@?$AAm?$AAl?$AA?9?$AAI?$AAN@ 10025e08     libucrt:lcidtoname_downlevel.obj
 0002:00004e14       ??_C@_1M@PBIEACPO@?$AAm?$AAr?$AA?9?$AAI?$AAN@ 10025e14     libucrt:lcidtoname_downlevel.obj
 0002:00004e20       ??_C@_1M@NIDEAGPH@?$AAs?$AAa?$AA?9?$AAI?$AAN@ 10025e20     libucrt:lcidtoname_downlevel.obj
 0002:00004e2c       ??_C@_1M@FHIHCBIO@?$AAm?$AAn?$AA?9?$AAM?$AAN@ 10025e2c     libucrt:lcidtoname_downlevel.obj
 0002:00004e38       ??_C@_1M@JAIJPENP@?$AAc?$AAy?$AA?9?$AAG?$AAB@ 10025e38     libucrt:lcidtoname_downlevel.obj
 0002:00004e44       ??_C@_1M@PHGFBEPN@?$AAg?$AAl?$AA?9?$AAE?$AAS@ 10025e44     libucrt:lcidtoname_downlevel.obj
 0002:00004e50       ??_C@_1O@KPIPDNCP@?$AAk?$AAo?$AAk?$AA?9?$AAI?$AAN@ 10025e50     libucrt:lcidtoname_downlevel.obj
 0002:00004e60       ??_C@_1O@KNHJLDJA@?$AAs?$AAy?$AAr?$AA?9?$AAS?$AAY@ 10025e60     libucrt:lcidtoname_downlevel.obj
 0002:00004e70       ??_C@_1O@MKEKBLAH@?$AAd?$AAi?$AAv?$AA?9?$AAM?$AAV@ 10025e70     libucrt:lcidtoname_downlevel.obj
 0002:00004e80       ??_C@_1O@OHDCKDDF@?$AAq?$AAu?$AAz?$AA?9?$AAB?$AAO@ 10025e80     libucrt:lcidtoname_downlevel.obj
 0002:00004e90       ??_C@_1M@LEPJNLFD@?$AAn?$AAs?$AA?9?$AAZ?$AAA@ 10025e90     libucrt:lcidtoname_downlevel.obj
 0002:00004e9c       ??_C@_1M@OMLEIIJB@?$AAm?$AAi?$AA?9?$AAN?$AAZ@ 10025e9c     libucrt:lcidtoname_downlevel.obj
 0002:00004ea8       ??_C@_1M@PMPEAILG@?$AAa?$AAr?$AA?9?$AAI?$AAQ@ 10025ea8     libucrt:lcidtoname_downlevel.obj
 0002:00004eb4       ??_C@_1M@CNKPNOEE@?$AAd?$AAe?$AA?9?$AAC?$AAH@ 10025eb4     libucrt:lcidtoname_downlevel.obj
 0002:00004ec0       ??_C@_1M@LKMGMLKO@?$AAe?$AAn?$AA?9?$AAG?$AAB@ 10025ec0     libucrt:lcidtoname_downlevel.obj
 0002:00004ecc       ??_C@_1M@PGKJFFGL@?$AAe?$AAs?$AA?9?$AAM?$AAX@ 10025ecc     libucrt:lcidtoname_downlevel.obj
 0002:00004ed8       ??_C@_1M@DNNANBDC@?$AAf?$AAr?$AA?9?$AAB?$AAE@ 10025ed8     libucrt:lcidtoname_downlevel.obj
 0002:00004ee4       ??_C@_1M@HLGMDFHM@?$AAi?$AAt?$AA?9?$AAC?$AAH@ 10025ee4     libucrt:lcidtoname_downlevel.obj
 0002:00004ef0       ??_C@_1M@CLLBGJH@?$AAn?$AAl?$AA?9?$AAB?$AAE@ 10025ef0     libucrt:lcidtoname_downlevel.obj
 0002:00004efc       ??_C@_1M@BODBOGLF@?$AAn?$AAn?$AA?9?$AAN?$AAO@ 10025efc     libucrt:lcidtoname_downlevel.obj
 0002:00004f08       ??_C@_1M@HFFAHKAD@?$AAp?$AAt?$AA?9?$AAP?$AAT@ 10025f08     libucrt:lcidtoname_downlevel.obj
 0002:00004f14       ??_C@_1BG@LNOAKHIE@?$AAs?$AAr?$AA?9?$AAS?$AAP?$AA?9?$AAL?$AAa?$AAt?$AAn@ 10025f14     libucrt:lcidtoname_downlevel.obj
 0002:00004f2c       ??_C@_1M@HBMHBGAK@?$AAs?$AAv?$AA?9?$AAF?$AAI@ 10025f2c     libucrt:lcidtoname_downlevel.obj
 0002:00004f38       ??_C@_1BG@DGCJGJBE@?$AAa?$AAz?$AA?9?$AAA?$AAZ?$AA?9?$AAC?$AAy?$AAr?$AAl@ 10025f38     libucrt:lcidtoname_downlevel.obj
 0002:00004f50       ??_C@_1M@KEJDAAHB@?$AAs?$AAe?$AA?9?$AAS?$AAE@ 10025f50     libucrt:lcidtoname_downlevel.obj
 0002:00004f5c       ??_C@_1M@HEIBJJAD@?$AAm?$AAs?$AA?9?$AAB?$AAN@ 10025f5c     libucrt:lcidtoname_downlevel.obj
 0002:00004f68       ??_C@_1BG@PBGJMCEM@?$AAu?$AAz?$AA?9?$AAU?$AAZ?$AA?9?$AAC?$AAy?$AAr?$AAl@ 10025f68     libucrt:lcidtoname_downlevel.obj
 0002:00004f80       ??_C@_1O@LAOBCMDF@?$AAq?$AAu?$AAz?$AA?9?$AAE?$AAC@ 10025f80     libucrt:lcidtoname_downlevel.obj
 0002:00004f90       ??_C@_1M@POEEMAIO@?$AAa?$AAr?$AA?9?$AAE?$AAG@ 10025f90     libucrt:lcidtoname_downlevel.obj
 0002:00004f9c       ??_C@_1M@EFAKDEDL@?$AAz?$AAh?$AA?9?$AAH?$AAK@ 10025f9c     libucrt:lcidtoname_downlevel.obj
 0002:00004fa8       ??_C@_1M@HKKIJHGI@?$AAd?$AAe?$AA?9?$AAA?$AAT@ 10025fa8     libucrt:lcidtoname_downlevel.obj
 0002:00004fb4       ??_C@_1M@KBFBEHJF@?$AAe?$AAn?$AA?9?$AAA?$AAU@ 10025fb4     libucrt:lcidtoname_downlevel.obj
 0002:00004fc0       ??_C@_1M@MNPLFAAH@?$AAe?$AAs?$AA?9?$AAE?$AAS@ 10025fc0     libucrt:lcidtoname_downlevel.obj
 0002:00004fcc       ??_C@_1M@HJOOJFMA@?$AAf?$AAr?$AA?9?$AAC?$AAA@ 10025fcc     libucrt:lcidtoname_downlevel.obj
 0002:00004fd8       ??_C@_1BG@JPOFPNAB@?$AAs?$AAr?$AA?9?$AAS?$AAP?$AA?9?$AAC?$AAy?$AAr?$AAl@ 10025fd8     libucrt:lcidtoname_downlevel.obj
 0002:00004ff0       ??_C@_1M@LNFOCMOB@?$AAs?$AAe?$AA?9?$AAF?$AAI@ 10025ff0     libucrt:lcidtoname_downlevel.obj
 0002:00004ffc       ??_C@_1O@MGJBOAMB@?$AAq?$AAu?$AAz?$AA?9?$AAP?$AAE@ 10025ffc     libucrt:lcidtoname_downlevel.obj
 0002:0000500c       ??_C@_1M@GJINLBOK@?$AAa?$AAr?$AA?9?$AAL?$AAY@ 1002600c     libucrt:lcidtoname_downlevel.obj
 0002:00005018       ??_C@_1M@GGMNHJNL@?$AAz?$AAh?$AA?9?$AAS?$AAG@ 10026018     libucrt:lcidtoname_downlevel.obj
 0002:00005024       ??_C@_1M@HOIKODND@?$AAd?$AAe?$AA?9?$AAL?$AAU@ 10026024     libucrt:lcidtoname_downlevel.obj
 0002:00005030       ??_C@_1M@DDOCCGFG@?$AAe?$AAn?$AA?9?$AAC?$AAA@ 10026030     libucrt:lcidtoname_downlevel.obj
 0002:0000503c       ??_C@_1M@BNOEMJLF@?$AAe?$AAs?$AA?9?$AAG?$AAT@ 1002603c     libucrt:lcidtoname_downlevel.obj
 0002:00005048       ??_C@_1M@EOGNKEK@?$AAf?$AAr?$AA?9?$AAC?$AAH@ 10026048     libucrt:lcidtoname_downlevel.obj
 0002:00005054       ??_C@_1M@FLIDJFHL@?$AAh?$AAr?$AA?9?$AAB?$AAA@ 10026054     libucrt:lcidtoname_downlevel.obj
 0002:00005060       ??_C@_1O@FMCELNAJ@?$AAs?$AAm?$AAj?$AA?9?$AAN?$AAO@ 10026060     libucrt:lcidtoname_downlevel.obj
 0002:00005070       ??_C@_1M@JHGLJMGJ@?$AAa?$AAr?$AA?9?$AAD?$AAZ@ 10026070     libucrt:lcidtoname_downlevel.obj
 0002:0000507c       ??_C@_1M@JKKFDCNP@?$AAz?$AAh?$AA?9?$AAM?$AAO@ 1002607c     libucrt:lcidtoname_downlevel.obj
 0002:00005088       ??_C@_1M@GEEFALPE@?$AAd?$AAe?$AA?9?$AAL?$AAI@ 10026088     libucrt:lcidtoname_downlevel.obj
 0002:00005094       ??_C@_1M@IGEOFBG@?$AAe?$AAn?$AA?9?$AAN?$AAZ@ 10026094     libucrt:lcidtoname_downlevel.obj
 0002:000050a0       ??_C@_1M@KDBONEHP@?$AAe?$AAs?$AA?9?$AAC?$AAR@ 100260a0     libucrt:lcidtoname_downlevel.obj
 0002:000050ac       ??_C@_1M@FHMDOHNN@?$AAf?$AAr?$AA?9?$AAL?$AAU@ 100260ac     libucrt:lcidtoname_downlevel.obj
 0002:000050b8       ??_C@_1BG@NFKKMAFG@?$AAb?$AAs?$AA?9?$AAB?$AAA?$AA?9?$AAL?$AAa?$AAt?$AAn@ 100260b8     libucrt:lcidtoname_downlevel.obj
 0002:000050d0       ??_C@_1O@IMNBEMCI@?$AAs?$AAm?$AAj?$AA?9?$AAS?$AAE@ 100260d0     libucrt:lcidtoname_downlevel.obj
 0002:000050e0       ??_C@_1M@DHHMBNDP@?$AAa?$AAr?$AA?9?$AAM?$AAA@ 100260e0     libucrt:lcidtoname_downlevel.obj
 0002:000050ec       ??_C@_1M@BNBLJCGH@?$AAe?$AAn?$AA?9?$AAI?$AAE@ 100260ec     libucrt:lcidtoname_downlevel.obj
 0002:000050f8       ??_C@_1M@GEPAFMDL@?$AAe?$AAs?$AA?9?$AAP?$AAA@ 100260f8     libucrt:lcidtoname_downlevel.obj
 0002:00005104       ??_C@_1M@OJONDMDL@?$AAf?$AAr?$AA?9?$AAM?$AAC@ 10026104     libucrt:lcidtoname_downlevel.obj
 0002:00005110       ??_C@_1BG@OBCNFJB@?$AAs?$AAr?$AA?9?$AAB?$AAA?$AA?9?$AAL?$AAa?$AAt?$AAn@ 10026110     libucrt:lcidtoname_downlevel.obj
 0002:00005128       ??_C@_1O@KEMEEGPO@?$AAs?$AAm?$AAa?$AA?9?$AAN?$AAO@ 10026128     libucrt:lcidtoname_downlevel.obj
 0002:00005138       ??_C@_1M@ELMGFODK@?$AAa?$AAr?$AA?9?$AAT?$AAN@ 10026138     libucrt:lcidtoname_downlevel.obj
 0002:00005144       ??_C@_1M@BHDLHFAF@?$AAe?$AAn?$AA?9?$AAZ?$AAA@ 10026144     libucrt:lcidtoname_downlevel.obj
 0002:00005150       ??_C@_1M@BMGIGLIF@?$AAe?$AAs?$AA?9?$AAD?$AAO@ 10026150     libucrt:lcidtoname_downlevel.obj
 0002:0000515c       ??_C@_1BG@CMBHIPBE@?$AAs?$AAr?$AA?9?$AAB?$AAA?$AA?9?$AAC?$AAy?$AAr?$AAl@ 1002615c     libucrt:lcidtoname_downlevel.obj
 0002:00005174       ??_C@_1O@HEDBLHNP@?$AAs?$AAm?$AAa?$AA?9?$AAS?$AAE@ 10026174     libucrt:lcidtoname_downlevel.obj
 0002:00005184       ??_C@_1M@DAGCADIM@?$AAa?$AAr?$AA?9?$AAO?$AAM@ 10026184     libucrt:lcidtoname_downlevel.obj
 0002:00005190       ??_C@_1M@FODLMICG@?$AAe?$AAn?$AA?9?$AAJ?$AAM@ 10026190     libucrt:lcidtoname_downlevel.obj
 0002:0000519c       ??_C@_1M@DNMLCIHB@?$AAe?$AAs?$AA?9?$AAV?$AAE@ 1002619c     libucrt:lcidtoname_downlevel.obj
 0002:000051a8       ??_C@_1O@EOKHMKJK@?$AAs?$AAm?$AAs?$AA?9?$AAF?$AAI@ 100261a8     libucrt:lcidtoname_downlevel.obj
 0002:000051b8       ??_C@_1M@CAFJMKOF@?$AAa?$AAr?$AA?9?$AAY?$AAE@ 100261b8     libucrt:lcidtoname_downlevel.obj
 0002:000051c4       ??_C@_1M@CBFHIJLI@?$AAe?$AAn?$AA?9?$AAC?$AAB@ 100261c4     libucrt:lcidtoname_downlevel.obj
 0002:000051d0       ??_C@_1M@BGNFLDN@?$AAe?$AAs?$AA?9?$AAC?$AAO@ 100261d0     libucrt:lcidtoname_downlevel.obj
 0002:000051dc       ??_C@_1O@JMPHMAMC@?$AAs?$AAm?$AAn?$AA?9?$AAF?$AAI@ 100261dc     libucrt:lcidtoname_downlevel.obj
 0002:000051ec       ??_C@_1M@JLANABKE@?$AAa?$AAr?$AA?9?$AAS?$AAY@ 100261ec     libucrt:lcidtoname_downlevel.obj
 0002:000051f8       ??_C@_1M@HPKGCFGN@?$AAe?$AAn?$AA?9?$AAB?$AAZ@ 100261f8     libucrt:lcidtoname_downlevel.obj
 0002:00005204       ??_C@_1M@OLJCMLGM@?$AAe?$AAs?$AA?9?$AAP?$AAE@ 10026204     libucrt:lcidtoname_downlevel.obj
 0002:00005210       ??_C@_1M@MKKGFKLE@?$AAa?$AAr?$AA?9?$AAJ?$AAO@ 10026210     libucrt:lcidtoname_downlevel.obj
 0002:0000521c       ??_C@_1M@EKPGLDNI@?$AAe?$AAn?$AA?9?$AAT?$AAT@ 1002621c     libucrt:lcidtoname_downlevel.obj
 0002:00005228       ??_C@_1M@OONGHFHE@?$AAe?$AAs?$AA?9?$AAA?$AAR@ 10026228     libucrt:lcidtoname_downlevel.obj
 0002:00005234       ??_C@_1M@OOJFGBHE@?$AAa?$AAr?$AA?9?$AAL?$AAB@ 10026234     libucrt:lcidtoname_downlevel.obj
 0002:00005240       ??_C@_1M@GCEJHNEG@?$AAe?$AAn?$AA?9?$AAZ?$AAW@ 10026240     libucrt:lcidtoname_downlevel.obj
 0002:0000524c       ??_C@_1M@JNOCAHJI@?$AAe?$AAs?$AA?9?$AAE?$AAC@ 1002624c     libucrt:lcidtoname_downlevel.obj
 0002:00005258       ??_C@_1M@JEFHPGGB@?$AAa?$AAr?$AA?9?$AAK?$AAW@ 10026258     libucrt:lcidtoname_downlevel.obj
 0002:00005264       ??_C@_1M@MLKIBJOJ@?$AAe?$AAn?$AA?9?$AAP?$AAH@ 10026264     libucrt:lcidtoname_downlevel.obj
 0002:00005270       ??_C@_1M@BDNIPEND@?$AAe?$AAs?$AA?9?$AAC?$AAL@ 10026270     libucrt:lcidtoname_downlevel.obj
 0002:0000527c       ??_C@_1M@MPNMEKBD@?$AAa?$AAr?$AA?9?$AAA?$AAE@ 1002627c     libucrt:lcidtoname_downlevel.obj
 0002:00005288       ??_C@_1M@KBJALCPI@?$AAe?$AAs?$AA?9?$AAU?$AAY@ 10026288     libucrt:lcidtoname_downlevel.obj
 0002:00005294       ??_C@_1M@LLCCOAGA@?$AAa?$AAr?$AA?9?$AAB?$AAH@ 10026294     libucrt:lcidtoname_downlevel.obj
 0002:000052a0       ??_C@_1M@PBFNCDEL@?$AAe?$AAs?$AA?9?$AAP?$AAY@ 100262a0     libucrt:lcidtoname_downlevel.obj
 0002:000052ac       ??_C@_1M@EDGINPNP@?$AAa?$AAr?$AA?9?$AAQ?$AAA@ 100262ac     libucrt:lcidtoname_downlevel.obj
 0002:000052b8       ??_C@_1M@MKDBIIJI@?$AAe?$AAs?$AA?9?$AAB?$AAO@ 100262b8     libucrt:lcidtoname_downlevel.obj
 0002:000052c4       ??_C@_1M@CPKKEBLD@?$AAe?$AAs?$AA?9?$AAS?$AAV@ 100262c4     libucrt:lcidtoname_downlevel.obj
 0002:000052d0       ??_C@_1M@NDBGMMJL@?$AAe?$AAs?$AA?9?$AAH?$AAN@ 100262d0     libucrt:lcidtoname_downlevel.obj
 0002:000052dc       ??_C@_1M@JIJIBHDP@?$AAe?$AAs?$AA?9?$AAN?$AAI@ 100262dc     libucrt:lcidtoname_downlevel.obj
 0002:000052e8       ??_C@_1M@CGFMKEEK@?$AAe?$AAs?$AA?9?$AAP?$AAR@ 100262e8     libucrt:lcidtoname_downlevel.obj
 0002:000052f4       ??_C@_1O@ICJHKIIK@?$AAz?$AAh?$AA?9?$AAC?$AAH?$AAT@ 100262f4     libucrt:lcidtoname_downlevel.obj
 0002:00005304       ??_C@_15CLNEJCE@?$AAs?$AAr@ 10026304     libucrt:lcidtoname_downlevel.obj
 0002:00005a30       ??_C@_1M@KAHEKEIG@?$AAa?$AAf?$AA?9?$AAz?$AAa@ 10026a30     libucrt:lcidtoname_downlevel.obj
 0002:00005a3c       ??_C@_1M@GIECOABL@?$AAa?$AAr?$AA?9?$AAa?$AAe@ 10026a3c     libucrt:lcidtoname_downlevel.obj
 0002:00005a48       ??_C@_1M@BMLMEKGI@?$AAa?$AAr?$AA?9?$AAb?$AAh@ 10026a48     libucrt:lcidtoname_downlevel.obj
 0002:00005a54       ??_C@_1M@DAPFDGGB@?$AAa?$AAr?$AA?9?$AAd?$AAz@ 10026a54     libucrt:lcidtoname_downlevel.obj
 0002:00005a60       ??_C@_1M@FJNKGKIG@?$AAa?$AAr?$AA?9?$AAe?$AAg@ 10026a60     libucrt:lcidtoname_downlevel.obj
 0002:00005a6c       ??_C@_1M@FLGKKCLO@?$AAa?$AAr?$AA?9?$AAi?$AAq@ 10026a6c     libucrt:lcidtoname_downlevel.obj
 0002:00005a78       ??_C@_1M@GNDIPALM@?$AAa?$AAr?$AA?9?$AAj?$AAo@ 10026a78     libucrt:lcidtoname_downlevel.obj
 0002:00005a84       ??_C@_1M@DDMJFMGJ@?$AAa?$AAr?$AA?9?$AAk?$AAw@ 10026a84     libucrt:lcidtoname_downlevel.obj
 0002:00005a90       ??_C@_1M@EJALMLHM@?$AAa?$AAr?$AA?9?$AAl?$AAb@ 10026a90     libucrt:lcidtoname_downlevel.obj
 0002:00005a9c       ??_C@_1M@MOBDBLOC@?$AAa?$AAr?$AA?9?$AAl?$AAy@ 10026a9c     libucrt:lcidtoname_downlevel.obj
 0002:00005aa8       ??_C@_1M@JAOCLHDH@?$AAa?$AAr?$AA?9?$AAm?$AAa@ 10026aa8     libucrt:lcidtoname_downlevel.obj
 0002:00005ab4       ??_C@_1M@JHPMKJIE@?$AAa?$AAr?$AA?9?$AAo?$AAm@ 10026ab4     libucrt:lcidtoname_downlevel.obj
 0002:00005ac0       ??_C@_1M@OEPGHFNH@?$AAa?$AAr?$AA?9?$AAq?$AAa@ 10026ac0     libucrt:lcidtoname_downlevel.obj
 0002:00005acc       ??_C@_1M@KJDONENM@?$AAa?$AAr?$AA?9?$AAs?$AAa@ 10026acc     libucrt:lcidtoname_downlevel.obj
 0002:00005ad8       ??_C@_1M@DMJDKLKM@?$AAa?$AAr?$AA?9?$AAs?$AAy@ 10026ad8     libucrt:lcidtoname_downlevel.obj
 0002:00005ae4       ??_C@_1M@OMFIPEDC@?$AAa?$AAr?$AA?9?$AAt?$AAn@ 10026ae4     libucrt:lcidtoname_downlevel.obj
 0002:00005af0       ??_C@_1M@IHMHGAON@?$AAa?$AAr?$AA?9?$AAy?$AAe@ 10026af0     libucrt:lcidtoname_downlevel.obj
 0002:00005afc       ??_C@_1BG@KDCPGJGB@?$AAa?$AAz?$AA?9?$AAa?$AAz?$AA?9?$AAc?$AAy?$AAr?$AAl@ 10026afc     libucrt:lcidtoname_downlevel.obj
 0002:00005b14       ??_C@_1BG@IBCKDDOE@?$AAa?$AAz?$AA?9?$AAa?$AAz?$AA?9?$AAl?$AAa?$AAt?$AAn@ 10026b14     libucrt:lcidtoname_downlevel.obj
 0002:00005b2c       ??_C@_1M@EGPFDCPD@?$AAb?$AAe?$AA?9?$AAb?$AAy@ 10026b2c     libucrt:lcidtoname_downlevel.obj
 0002:00005b38       ??_C@_1M@PCMGMCGC@?$AAb?$AAg?$AA?9?$AAb?$AAg@ 10026b38     libucrt:lcidtoname_downlevel.obj
 0002:00005b44       ??_C@_1M@BJBMFGOB@?$AAb?$AAn?$AA?9?$AAi?$AAn@ 10026b44     libucrt:lcidtoname_downlevel.obj
 0002:00005b50       ??_C@_1BG@EAKMMACD@?$AAb?$AAs?$AA?9?$AAb?$AAa?$AA?9?$AAl?$AAa?$AAt?$AAn@ 10026b50     libucrt:lcidtoname_downlevel.obj
 0002:00005b68       ??_C@_1M@KGADAODK@?$AAc?$AAa?$AA?9?$AAe?$AAs@ 10026b68     libucrt:lcidtoname_downlevel.obj
 0002:00005b74       ??_C@_1M@COAJPDHI@?$AAc?$AAs?$AA?9?$AAc?$AAz@ 10026b74     libucrt:lcidtoname_downlevel.obj
 0002:00005b80       ??_C@_1M@DHBHFONH@?$AAc?$AAy?$AA?9?$AAg?$AAb@ 10026b80     libucrt:lcidtoname_downlevel.obj
 0002:00005b8c       ??_C@_1M@IMGKELGA@?$AAd?$AAa?$AA?9?$AAd?$AAk@ 10026b8c     libucrt:lcidtoname_downlevel.obj
 0002:00005b98       ??_C@_1M@NNDGDNGA@?$AAd?$AAe?$AA?9?$AAa?$AAt@ 10026b98     libucrt:lcidtoname_downlevel.obj
 0002:00005ba4       ??_C@_1M@IKDBHEEM@?$AAd?$AAe?$AA?9?$AAc?$AAh@ 10026ba4     libucrt:lcidtoname_downlevel.obj
 0002:00005bb0       ??_C@_1M@GFFOJMCJ@?$AAd?$AAe?$AA?9?$AAd?$AAe@ 10026bb0     libucrt:lcidtoname_downlevel.obj
 0002:00005bbc       ??_C@_1M@MDNLKBPM@?$AAd?$AAe?$AA?9?$AAl?$AAi@ 10026bbc     libucrt:lcidtoname_downlevel.obj
 0002:00005bc8       ??_C@_1M@NJBEEJNL@?$AAd?$AAe?$AA?9?$AAl?$AAu@ 10026bc8     libucrt:lcidtoname_downlevel.obj
 0002:00005bd4       ??_C@_1O@GNNELBAP@?$AAd?$AAi?$AAv?$AA?9?$AAm?$AAv@ 10026bd4     libucrt:lcidtoname_downlevel.obj
 0002:00005be4       ??_C@_1M@EJLEOGAE@?$AAe?$AAl?$AA?9?$AAg?$AAr@ 10026be4     libucrt:lcidtoname_downlevel.obj
 0002:00005bf0       ??_C@_1M@GMPONJN@?$AAe?$AAn?$AA?9?$AAa?$AAu@ 10026bf0     libucrt:lcidtoname_downlevel.obj
 0002:00005bfc       ??_C@_1M@NIDIIPGF@?$AAe?$AAn?$AA?9?$AAb?$AAz@ 10026bfc     libucrt:lcidtoname_downlevel.obj
 0002:00005c08       ??_C@_1M@JEHMIMFO@?$AAe?$AAn?$AA?9?$AAc?$AAa@ 10026c08     libucrt:lcidtoname_downlevel.obj
 0002:00005c14       ??_C@_1M@IGMJCDLA@?$AAe?$AAn?$AA?9?$AAc?$AAb@ 10026c14     libucrt:lcidtoname_downlevel.obj
 0002:00005c20       ??_C@_1M@BNFIGBKG@?$AAe?$AAn?$AA?9?$AAg?$AAb@ 10026c20     libucrt:lcidtoname_downlevel.obj
 0002:00005c2c       ??_C@_1M@LKIFDIGP@?$AAe?$AAn?$AA?9?$AAi?$AAe@ 10026c2c     libucrt:lcidtoname_downlevel.obj
 0002:00005c38       ??_C@_1M@PJKFGCCO@?$AAe?$AAn?$AA?9?$AAj?$AAm@ 10026c38     libucrt:lcidtoname_downlevel.obj
 0002:00005c44       ??_C@_1M@KPPKEPBO@?$AAe?$AAn?$AA?9?$AAn?$AAz@ 10026c44     libucrt:lcidtoname_downlevel.obj
 0002:00005c50       ??_C@_1M@GMDGLDOB@?$AAe?$AAn?$AA?9?$AAp?$AAh@ 10026c50     libucrt:lcidtoname_downlevel.obj
 0002:00005c5c       ??_C@_1M@ONGIBJNA@?$AAe?$AAn?$AA?9?$AAt?$AAt@ 10026c5c     libucrt:lcidtoname_downlevel.obj
 0002:00005c68       ??_C@_1M@LLODPCMM@?$AAe?$AAn?$AA?9?$AAu?$AAs@ 10026c68     libucrt:lcidtoname_downlevel.obj
 0002:00005c74       ??_C@_1M@LAKFNPAN@?$AAe?$AAn?$AA?9?$AAz?$AAa@ 10026c74     libucrt:lcidtoname_downlevel.obj
 0002:00005c80       ??_C@_1M@MFNHNHEO@?$AAe?$AAn?$AA?9?$AAz?$AAw@ 10026c80     libucrt:lcidtoname_downlevel.obj
 0002:00005c8c       ??_C@_1M@EJEINPHM@?$AAe?$AAs?$AA?9?$AAa?$AAr@ 10026c8c     libucrt:lcidtoname_downlevel.obj
 0002:00005c98       ??_C@_1M@GNKPCCJA@?$AAe?$AAs?$AA?9?$AAb?$AAo@ 10026c98     libucrt:lcidtoname_downlevel.obj
 0002:00005ca4       ??_C@_1M@LEEGFONL@?$AAe?$AAs?$AA?9?$AAc?$AAl@ 10026ca4     libucrt:lcidtoname_downlevel.obj
 0002:00005cb0       ??_C@_1M@KGPDPBDF@?$AAe?$AAs?$AA?9?$AAc?$AAo@ 10026cb0     libucrt:lcidtoname_downlevel.obj
 0002:00005cbc       ??_C@_1M@EIAHOHH@?$AAe?$AAs?$AA?9?$AAc?$AAr@ 10026cbc     libucrt:lcidtoname_downlevel.obj
 0002:00005cc8       ??_C@_1M@LLPGMBIN@?$AAe?$AAs?$AA?9?$AAd?$AAo@ 10026cc8     libucrt:lcidtoname_downlevel.obj
 0002:00005cd4       ??_C@_1M@DKHMKNJA@?$AAe?$AAs?$AA?9?$AAe?$AAc@ 10026cd4     libucrt:lcidtoname_downlevel.obj
 0002:00005ce0       ??_C@_1M@GKGFPKAP@?$AAe?$AAs?$AA?9?$AAe?$AAs@ 10026ce0     libucrt:lcidtoname_downlevel.obj
 0002:00005cec       ??_C@_1M@LKHKGDLN@?$AAe?$AAs?$AA?9?$AAg?$AAt@ 10026cec     libucrt:lcidtoname_downlevel.obj
 0002:00005cf8       ??_C@_1M@HEIIGGJD@?$AAe?$AAs?$AA?9?$AAh?$AAn@ 10026cf8     libucrt:lcidtoname_downlevel.obj
 0002:00005d04       ??_C@_1M@FBDHPPGD@?$AAe?$AAs?$AA?9?$AAm?$AAx@ 10026d04     libucrt:lcidtoname_downlevel.obj
 0002:00005d10       ??_C@_1M@DPAGLNDH@?$AAe?$AAs?$AA?9?$AAn?$AAi@ 10026d10     libucrt:lcidtoname_downlevel.obj
 0002:00005d1c       ??_C@_1M@MDGOPGDD@?$AAe?$AAs?$AA?9?$AAp?$AAa@ 10026d1c     libucrt:lcidtoname_downlevel.obj
 0002:00005d28       ??_C@_1M@EMAMGBGE@?$AAe?$AAs?$AA?9?$AAp?$AAe@ 10026d28     libucrt:lcidtoname_downlevel.obj
 0002:00005d34       ??_C@_1M@IBMCAOEC@?$AAe?$AAs?$AA?9?$AAp?$AAr@ 10026d34     libucrt:lcidtoname_downlevel.obj
 0002:00005d40       ??_C@_1M@FGMDIJED@?$AAe?$AAs?$AA?9?$AAp?$AAy@ 10026d40     libucrt:lcidtoname_downlevel.obj
 0002:00005d4c       ??_C@_1M@IIDEOLLL@?$AAe?$AAs?$AA?9?$AAs?$AAv@ 10026d4c     libucrt:lcidtoname_downlevel.obj
 0002:00005d58       ??_C@_1M@GAOBIPA@?$AAe?$AAs?$AA?9?$AAu?$AAy@ 10026d58     libucrt:lcidtoname_downlevel.obj
 0002:00005d64       ??_C@_1M@JKFFICHJ@?$AAe?$AAs?$AA?9?$AAv?$AAe@ 10026d64     libucrt:lcidtoname_downlevel.obj
 0002:00005d70       ??_C@_1M@PNMLOJDF@?$AAe?$AAt?$AA?9?$AAe?$AAe@ 10026d70     libucrt:lcidtoname_downlevel.obj
 0002:00005d7c       ??_C@_1M@GHHLIKEI@?$AAe?$AAu?$AA?9?$AAe?$AAs@ 10026d7c     libucrt:lcidtoname_downlevel.obj
 0002:00005d88       ??_C@_1M@PBNONODE@?$AAf?$AAa?$AA?9?$AAi?$AAr@ 10026d88     libucrt:lcidtoname_downlevel.obj
 0002:00005d94       ??_C@_1M@JEEHPMIL@?$AAf?$AAi?$AA?9?$AAf?$AAi@ 10026d94     libucrt:lcidtoname_downlevel.obj
 0002:00005da0       ??_C@_1M@LMDCNDBA@?$AAf?$AAo?$AA?9?$AAf?$AAo@ 10026da0     libucrt:lcidtoname_downlevel.obj
 0002:00005dac       ??_C@_1M@JKEOHLDK@?$AAf?$AAr?$AA?9?$AAb?$AAe@ 10026dac     libucrt:lcidtoname_downlevel.obj
 0002:00005db8       ??_C@_1M@NOHADPMI@?$AAf?$AAr?$AA?9?$AAc?$AAa@ 10026db8     libucrt:lcidtoname_downlevel.obj
 0002:00005dc4       ??_C@_1M@KDHIHAEC@?$AAf?$AAr?$AA?9?$AAc?$AAh@ 10026dc4     libucrt:lcidtoname_downlevel.obj
 0002:00005dd0       ??_C@_1M@MMBBFGAK@?$AAf?$AAr?$AA?9?$AAf?$AAr@ 10026dd0     libucrt:lcidtoname_downlevel.obj
 0002:00005ddc       ??_C@_1M@PAFNENNF@?$AAf?$AAr?$AA?9?$AAl?$AAu@ 10026ddc     libucrt:lcidtoname_downlevel.obj
 0002:00005de8       ??_C@_1M@EOHDJGDD@?$AAf?$AAr?$AA?9?$AAm?$AAc@ 10026de8     libucrt:lcidtoname_downlevel.obj
 0002:00005df4       ??_C@_1M@FAPLLOPF@?$AAg?$AAl?$AA?9?$AAe?$AAs@ 10026df4     libucrt:lcidtoname_downlevel.obj
 0002:00005e00       ??_C@_1M@FOPBFLOO@?$AAg?$AAu?$AA?9?$AAi?$AAn@ 10026e00     libucrt:lcidtoname_downlevel.obj
 0002:00005e0c       ??_C@_1M@KBMCINPM@?$AAh?$AAe?$AA?9?$AAi?$AAl@ 10026e0c     libucrt:lcidtoname_downlevel.obj
 0002:00005e18       ??_C@_1M@BBPHKFPJ@?$AAh?$AAi?$AA?9?$AAi?$AAn@ 10026e18     libucrt:lcidtoname_downlevel.obj
 0002:00005e24       ??_C@_1M@PMBNDPHD@?$AAh?$AAr?$AA?9?$AAb?$AAa@ 10026e24     libucrt:lcidtoname_downlevel.obj
 0002:00005e30       ??_C@_1M@BPCKOEGE@?$AAh?$AAr?$AA?9?$AAh?$AAr@ 10026e30     libucrt:lcidtoname_downlevel.obj
 0002:00005e3c       ??_C@_1M@GACBMHKE@?$AAh?$AAu?$AA?9?$AAh?$AAu@ 10026e3c     libucrt:lcidtoname_downlevel.obj
 0002:00005e48       ??_C@_1M@MILPAJJC@?$AAh?$AAy?$AA?9?$AAa?$AAm@ 10026e48     libucrt:lcidtoname_downlevel.obj
 0002:00005e54       ??_C@_1M@BABBICEC@?$AAi?$AAd?$AA?9?$AAi?$AAd@ 10026e54     libucrt:lcidtoname_downlevel.obj
 0002:00005e60       ??_C@_1M@BIKNHHPF@?$AAi?$AAs?$AA?9?$AAi?$AAs@ 10026e60     libucrt:lcidtoname_downlevel.obj
 0002:00005e6c       ??_C@_1M@NMPCJPHE@?$AAi?$AAt?$AA?9?$AAc?$AAh@ 10026e6c     libucrt:lcidtoname_downlevel.obj
 0002:00005e78       ??_C@_1M@GHKGFEDF@?$AAi?$AAt?$AA?9?$AAi?$AAt@ 10026e78     libucrt:lcidtoname_downlevel.obj
 0002:00005e84       ??_C@_1M@NIEJCJJA@?$AAj?$AAa?$AA?9?$AAj?$AAp@ 10026e84     libucrt:lcidtoname_downlevel.obj
 0002:00005e90       ??_C@_1M@JILFNBIM@?$AAk?$AAa?$AA?9?$AAg?$AAe@ 10026e90     libucrt:lcidtoname_downlevel.obj
 0002:00005e9c       ??_C@_1M@PACPMGPH@?$AAk?$AAk?$AA?9?$AAk?$AAz@ 10026e9c     libucrt:lcidtoname_downlevel.obj
 0002:00005ea8       ??_C@_1M@IELFGMHA@?$AAk?$AAn?$AA?9?$AAi?$AAn@ 10026ea8     libucrt:lcidtoname_downlevel.obj
 0002:00005eb4       ??_C@_1O@IBBJHCH@?$AAk?$AAo?$AAk?$AA?9?$AAi?$AAn@ 10026eb4     libucrt:lcidtoname_downlevel.obj
 0002:00005ec4       ??_C@_1M@DMHAEOGC@?$AAk?$AAo?$AA?9?$AAk?$AAr@ 10026ec4     libucrt:lcidtoname_downlevel.obj
 0002:00005ed0       ??_C@_1M@HBAHBIGA@?$AAk?$AAy?$AA?9?$AAk?$AAg@ 10026ed0     libucrt:lcidtoname_downlevel.obj
 0002:00005edc       ??_C@_1M@KPMILCJG@?$AAl?$AAt?$AA?9?$AAl?$AAt@ 10026edc     libucrt:lcidtoname_downlevel.obj
 0002:00005ee8       ??_C@_1M@BDEKKCA@?$AAl?$AAv?$AA?9?$AAl?$AAv@ 10026ee8     libucrt:lcidtoname_downlevel.obj
 0002:00005ef4       ??_C@_1M@ELCKCCJJ@?$AAm?$AAi?$AA?9?$AAn?$AAz@ 10026ef4     libucrt:lcidtoname_downlevel.obj
 0002:00005f00       ??_C@_1M@CBOOLAPA@?$AAm?$AAk?$AA?9?$AAm?$AAk@ 10026f00     libucrt:lcidtoname_downlevel.obj
 0002:00005f0c       ??_C@_1M@GPHNBJKN@?$AAm?$AAl?$AA?9?$AAi?$AAn@ 10026f0c     libucrt:lcidtoname_downlevel.obj
 0002:00005f18       ??_C@_1M@PABJILIG@?$AAm?$AAn?$AA?9?$AAm?$AAn@ 10026f18     libucrt:lcidtoname_downlevel.obj
 0002:00005f24       ??_C@_1M@FGBKKIPG@?$AAm?$AAr?$AA?9?$AAi?$AAn@ 10026f24     libucrt:lcidtoname_downlevel.obj
 0002:00005f30       ??_C@_1M@NDBPDDAL@?$AAm?$AAs?$AA?9?$AAb?$AAn@ 10026f30     libucrt:lcidtoname_downlevel.obj
 0002:00005f3c       ??_C@_1M@OPIHOOPI@?$AAm?$AAs?$AA?9?$AAm?$AAy@ 10026f3c     libucrt:lcidtoname_downlevel.obj
 0002:00005f48       ??_C@_1M@PPDBCNFM@?$AAm?$AAt?$AA?9?$AAm?$AAt@ 10026f48     libucrt:lcidtoname_downlevel.obj
 0002:00005f54       ??_C@_1M@KDJDKMDD@?$AAn?$AAb?$AA?9?$AAn?$AAo@ 10026f54     libucrt:lcidtoname_downlevel.obj
 0002:00005f60       ??_C@_1M@KFCFLMJP@?$AAn?$AAl?$AA?9?$AAb?$AAe@ 10026f60     libucrt:lcidtoname_downlevel.obj
 0002:00005f6c       ??_C@_1M@KPOPDDGO@?$AAn?$AAl?$AA?9?$AAn?$AAl@ 10026f6c     libucrt:lcidtoname_downlevel.obj
 0002:00005f78       ??_C@_1M@LJKPEMLN@?$AAn?$AAn?$AA?9?$AAn?$AAo@ 10026f78     libucrt:lcidtoname_downlevel.obj
 0002:00005f84       ??_C@_1M@BDGHHBFL@?$AAn?$AAs?$AA?9?$AAz?$AAa@ 10026f84     libucrt:lcidtoname_downlevel.obj
 0002:00005f90       ??_C@_1M@IDEHOAP@?$AAp?$AAa?$AA?9?$AAi?$AAn@ 10026f90     libucrt:lcidtoname_downlevel.obj
 0002:00005f9c       ??_C@_1M@HDBKGOGH@?$AAp?$AAl?$AA?9?$AAp?$AAl@ 10026f9c     libucrt:lcidtoname_downlevel.obj
 0002:00005fa8       ??_C@_1M@LJLLCMEH@?$AAp?$AAt?$AA?9?$AAb?$AAr@ 10026fa8     libucrt:lcidtoname_downlevel.obj
 0002:00005fb4       ??_C@_1M@NCMONAAL@?$AAp?$AAt?$AA?9?$AAp?$AAt@ 10026fb4     libucrt:lcidtoname_downlevel.obj
 0002:00005fc0       ??_C@_1O@EAKMAJDN@?$AAq?$AAu?$AAz?$AA?9?$AAb?$AAo@ 10026fc0     libucrt:lcidtoname_downlevel.obj
 0002:00005fd0       ??_C@_1O@BHHPIGDN@?$AAq?$AAu?$AAz?$AA?9?$AAe?$AAc@ 10026fd0     libucrt:lcidtoname_downlevel.obj
 0002:00005fe0       ??_C@_1O@GBAPEKMJ@?$AAq?$AAu?$AAz?$AA?9?$AAp?$AAe@ 10026fe0     libucrt:lcidtoname_downlevel.obj
 0002:00005ff0       ??_C@_1M@CLGLEFBO@?$AAr?$AAo?$AA?9?$AAr?$AAo@ 10026ff0     libucrt:lcidtoname_downlevel.obj
 0002:00005ffc       ??_C@_1M@CEEDODME@?$AAr?$AAu?$AA?9?$AAr?$AAu@ 10026ffc     libucrt:lcidtoname_downlevel.obj
 0002:00006008       ??_C@_1M@HPKKKMPP@?$AAs?$AAa?$AA?9?$AAi?$AAn@ 10027008     libucrt:lcidtoname_downlevel.obj
 0002:00006014       ??_C@_1M@BKMAIGOJ@?$AAs?$AAe?$AA?9?$AAf?$AAi@ 10027014     libucrt:lcidtoname_downlevel.obj
 0002:00006020       ??_C@_1M@NDPIFLFI@?$AAs?$AAe?$AA?9?$AAn?$AAo@ 10027020     libucrt:lcidtoname_downlevel.obj
 0002:0000602c       ??_C@_1M@DANKKHJ@?$AAs?$AAe?$AA?9?$AAs?$AAe@ 1002702c     libucrt:lcidtoname_downlevel.obj
 0002:00006038       ??_C@_1M@PNBLONPJ@?$AAs?$AAk?$AA?9?$AAs?$AAk@ 10027038     libucrt:lcidtoname_downlevel.obj
 0002:00006044       ??_C@_1M@LFMODOAL@?$AAs?$AAl?$AA?9?$AAs?$AAi@ 10027044     libucrt:lcidtoname_downlevel.obj
 0002:00006050       ??_C@_1O@DFKOMPG@?$AAs?$AAm?$AAa?$AA?9?$AAn?$AAo@ 10027050     libucrt:lcidtoname_downlevel.obj
 0002:00006060       ??_C@_1O@NDKPBNNH@?$AAs?$AAm?$AAa?$AA?9?$AAs?$AAe@ 10027060     libucrt:lcidtoname_downlevel.obj
 0002:00006070       ??_C@_1O@PLLKBHAB@?$AAs?$AAm?$AAj?$AA?9?$AAn?$AAo@ 10027070     libucrt:lcidtoname_downlevel.obj
 0002:00006080       ??_C@_1O@CLEPOGCA@?$AAs?$AAm?$AAj?$AA?9?$AAs?$AAe@ 10027080     libucrt:lcidtoname_downlevel.obj
 0002:00006090       ??_C@_1O@DLGJGKMK@?$AAs?$AAm?$AAn?$AA?9?$AAf?$AAi@ 10027090     libucrt:lcidtoname_downlevel.obj
 0002:000060a0       ??_C@_1O@OJDJGAJC@?$AAs?$AAm?$AAs?$AA?9?$AAf?$AAi@ 100270a0     libucrt:lcidtoname_downlevel.obj
 0002:000060b0       ??_C@_1M@BOFOGHPB@?$AAs?$AAq?$AA?9?$AAa?$AAl@ 100270b0     libucrt:lcidtoname_downlevel.obj
 0002:000060bc       ??_C@_1BG@LJBBIPGB@?$AAs?$AAr?$AA?9?$AAb?$AAa?$AA?9?$AAc?$AAy?$AAr?$AAl@ 100270bc     libucrt:lcidtoname_downlevel.obj
 0002:000060d4       ??_C@_1BG@JLBENFOE@?$AAs?$AAr?$AA?9?$AAb?$AAa?$AA?9?$AAl?$AAa?$AAt?$AAn@ 100270d4     libucrt:lcidtoname_downlevel.obj
 0002:000060ec       ??_C@_1BG@KODPNHE@?$AAs?$AAr?$AA?9?$AAs?$AAp?$AA?9?$AAc?$AAy?$AAr?$AAl@ 100270ec     libucrt:lcidtoname_downlevel.obj
 0002:00006104       ??_C@_1BG@CIOGKHPB@?$AAs?$AAr?$AA?9?$AAs?$AAp?$AA?9?$AAl?$AAa?$AAt?$AAn@ 10027104     libucrt:lcidtoname_downlevel.obj
 0002:0000611c       ??_C@_1M@NGFJLMAC@?$AAs?$AAv?$AA?9?$AAf?$AAi@ 1002711c     libucrt:lcidtoname_downlevel.obj
 0002:00006128       ??_C@_1M@MPJEJAJC@?$AAs?$AAv?$AA?9?$AAs?$AAe@ 10027128     libucrt:lcidtoname_downlevel.obj
 0002:00006134       ??_C@_1M@MPNDHLFK@?$AAs?$AAw?$AA?9?$AAk?$AAe@ 10027134     libucrt:lcidtoname_downlevel.obj
 0002:00006140       ??_C@_1O@KOHBJJI@?$AAs?$AAy?$AAr?$AA?9?$AAs?$AAy@ 10027140     libucrt:lcidtoname_downlevel.obj
 0002:00006150       ??_C@_1M@LDCEFHA@?$AAt?$AAa?$AA?9?$AAi?$AAn@ 10027150     libucrt:lcidtoname_downlevel.obj
 0002:0000615c       ??_C@_1M@CNJOFAK@?$AAt?$AAe?$AA?9?$AAi?$AAn@ 1002715c     libucrt:lcidtoname_downlevel.obj
 0002:00006168       ??_C@_1M@GNAECACD@?$AAt?$AAh?$AA?9?$AAt?$AAh@ 10027168     libucrt:lcidtoname_downlevel.obj
 0002:00006174       ??_C@_1M@CHBIHOJO@?$AAt?$AAn?$AA?9?$AAz?$AAa@ 10027174     libucrt:lcidtoname_downlevel.obj
 0002:00006180       ??_C@_1M@GCCMIGPJ@?$AAt?$AAr?$AA?9?$AAt?$AAr@ 10027180     libucrt:lcidtoname_downlevel.obj
 0002:0000618c       ??_C@_1M@CELMCNBK@?$AAt?$AAt?$AA?9?$AAr?$AAu@ 1002718c     libucrt:lcidtoname_downlevel.obj
 0002:00006198       ??_C@_1M@KLMCELGA@?$AAu?$AAk?$AA?9?$AAu?$AAa@ 10027198     libucrt:lcidtoname_downlevel.obj
 0002:000061a4       ??_C@_1M@EPAJJAJF@?$AAu?$AAr?$AA?9?$AAp?$AAk@ 100271a4     libucrt:lcidtoname_downlevel.obj
 0002:000061b0       ??_C@_1BG@GEGPMCDJ@?$AAu?$AAz?$AA?9?$AAu?$AAz?$AA?9?$AAc?$AAy?$AAr?$AAl@ 100271b0     libucrt:lcidtoname_downlevel.obj
 0002:000061c8       ??_C@_1BG@EGGKJILM@?$AAu?$AAz?$AA?9?$AAu?$AAz?$AA?9?$AAl?$AAa?$AAt?$AAn@ 100271c8     libucrt:lcidtoname_downlevel.obj
 0002:000061e0       ??_C@_1M@GFOCLFF@?$AAv?$AAi?$AA?9?$AAv?$AAn@ 100271e0     libucrt:lcidtoname_downlevel.obj
 0002:000061ec       ??_C@_1M@CPAMEDFI@?$AAx?$AAh?$AA?9?$AAz?$AAa@ 100271ec     libucrt:lcidtoname_downlevel.obj
 0002:000061f8       ??_C@_1O@EBKIFIGN@?$AAz?$AAh?$AA?9?$AAc?$AAh?$AAs@ 100271f8     libucrt:lcidtoname_downlevel.obj
 0002:00006208       ??_C@_1O@NMHPGANE@?$AAz?$AAh?$AA?9?$AAc?$AAh?$AAt@ 10027208     libucrt:lcidtoname_downlevel.obj
 0002:00006218       ??_C@_1M@LPINJOMC@?$AAz?$AAh?$AA?9?$AAc?$AAn@ 10027218     libucrt:lcidtoname_downlevel.obj
 0002:00006224       ??_C@_1M@OCJEJODD@?$AAz?$AAh?$AA?9?$AAh?$AAk@ 10027224     libucrt:lcidtoname_downlevel.obj
 0002:00006230       ??_C@_1M@DNDLJINH@?$AAz?$AAh?$AA?9?$AAm?$AAo@ 10027230     libucrt:lcidtoname_downlevel.obj
 0002:0000623c       ??_C@_1M@MBFDNDND@?$AAz?$AAh?$AA?9?$AAs?$AAg@ 1002723c     libucrt:lcidtoname_downlevel.obj
 0002:00006248       ??_C@_1M@IMEPLEPE@?$AAz?$AAh?$AA?9?$AAt?$AAw@ 10027248     libucrt:lcidtoname_downlevel.obj
 0002:00006254       ??_C@_1M@BBGHNHJP@?$AAz?$AAu?$AA?9?$AAz?$AAa@ 10027254     libucrt:lcidtoname_downlevel.obj
 0002:00006260       ?large_power_data@?1??multiply_by_power_of_ten@__crt_strtox@@YA_NAAUbig_integer@2@I@Z@4QBIB 10027260     libucrt:cfout.obj
 0002:00006c00       ?small_powers_of_ten@?1??multiply_by_power_of_ten@__crt_strtox@@YA_NAAUbig_integer@2@I@Z@4QBIB 10027c00     libucrt:cfout.obj
 0002:00006c24       ??_C@_01GBGANLPD@0@        10027c24     libucrt:cfout.obj
 0002:00006c28       ??_C@_05DNEBIAHO@1?$CDINF@ 10027c28     libucrt:cfout.obj
 0002:00006c30       ??_C@_06IMKFLFPG@1?$CDQNAN@ 10027c30     libucrt:cfout.obj
 0002:00006c38       ??_C@_06PGGFOGJG@1?$CDSNAN@ 10027c38     libucrt:cfout.obj
 0002:00006c40       ??_C@_05PHHOCPM@1?$CDIND@  10027c40     libucrt:cfout.obj
 0002:00006db0       __infinity                 10027db0     libucrt:87tran.obj
 0002:00006dba       __minfinity                10027dba     libucrt:87tran.obj
 0002:00006dc4       __logemax                  10027dc4     libucrt:87tran.obj
 0002:00006dea       __OP_EXPjmptab             10027dea     libucrt:87tran.obj
 0002:00006e10       __indefinite               10027e10     libucrt:87disp.obj
 0002:00006e1a       __piby2                    10027e1a     libucrt:87disp.obj
 0002:00006e24       __piby4                    10027e24     libucrt:87disp.obj
 0002:00006e58       __DEFAULT_CW_in_mem        10027e58     libucrt:common.obj
 0002:00006e5a       __pi_by_2_to_61            10027e5a     libucrt:common.obj
 0002:00006e94       ??_C@_03MGHMBJCF@log@      10027e94     libucrt:libm_error.obj
 0002:00006e98       ??_C@_05HGHHAHAP@log10@    10027e98     libucrt:libm_error.obj
 0002:00006ea0       ??_C@_03KHJOGHMM@exp@      10027ea0     libucrt:libm_error.obj
 0002:00006ea4       ??_C@_03JGHBODFD@pow@      10027ea4     libucrt:libm_error.obj
 0002:00006ea8       ??_C@_04FIHNOPOL@asin@     10027ea8     libucrt:libm_error.obj
 0002:00006eb0       ??_C@_04PDIFKINK@acos@     10027eb0     libucrt:libm_error.obj
 0002:00006eb8       ??_C@_04EIAKFFMI@sqrt@     10027eb8     libucrt:libm_error.obj
 0002:00006ec0       __real@3ff0000000000000    10027ec0     libucrt:libm_error.obj
 0002:00006ec8       ??_C@_1BA@BALFACEM@?$AAC?$AAO?$AAN?$AAO?$AAU?$AAT?$AA$@ 10027ec8     libucrt:initcon.obj
 0002:00006ef0       ___acrt_log10_table_t      10027ef0     libucrt:log10_tables.obj
 0002:00007300       ___acrt_log10_table_cb     10028300     libucrt:log10_tables.obj
 0002:00007710       __real@3fe0000000000000    10028710     libucrt:powhlp.obj
 0002:00007800       ??_C@_04COOMCNPB@sinh@     10028800     libucrt:fpexcept.obj
 0002:00007808       ??_C@_04HPJJNFIM@cosh@     10028808     libucrt:fpexcept.obj
 0002:00007810       ??_C@_04FJHINJAO@tanh@     10028810     libucrt:fpexcept.obj
 0002:00007818       ??_C@_04MLLJIGOK@atan@     10028818     libucrt:fpexcept.obj
 0002:00007820       ??_C@_05KNGEOGJB@atan2@    10028820     libucrt:fpexcept.obj
 0002:00007828       ??_C@_03BLEJJJBH@sin@      10028828     libucrt:fpexcept.obj
 0002:0000782c       ??_C@_03LALBNOCG@cos@      1002882c     libucrt:fpexcept.obj
 0002:00007830       ??_C@_03IIINPABG@tan@      10028830     libucrt:fpexcept.obj
 0002:00007834       ??_C@_04GFPJNGEK@ceil@     10028834     libucrt:fpexcept.obj
 0002:0000783c       ??_C@_05PBJFFIGL@floor@    1002883c     libucrt:fpexcept.obj
 0002:00007844       ??_C@_04ODHECPBC@fabs@     10028844     libucrt:fpexcept.obj
 0002:0000784c       ??_C@_04EHEDPDJG@modf@     1002884c     libucrt:fpexcept.obj
 0002:00007854       ??_C@_05CEJMAHNP@ldexp@    10028854     libucrt:fpexcept.obj
 0002:0000785c       ??_C@_05KBKMEMPO@_cabs@    1002885c     libucrt:fpexcept.obj
 0002:00007864       ??_C@_06MEIMCGCF@_hypot@   10028864     libucrt:fpexcept.obj
 0002:0000786c       ??_C@_04KEPJIHGP@fmod@     1002886c     libucrt:fpexcept.obj
 0002:00007874       ??_C@_05GKKHEGJL@frexp@    10028874     libucrt:fpexcept.obj
 0002:0000787c       ??_C@_03MJLDFKDL@_y0@      1002887c     libucrt:fpexcept.obj
 0002:00007880       ??_C@_03NAKIGLHK@_y1@      10028880     libucrt:fpexcept.obj
 0002:00007884       ??_C@_03ONILCKOB@_yn@      10028884     libucrt:fpexcept.obj
 0002:00007888       ??_C@_05JGDBENOH@_logb@    10028888     libucrt:fpexcept.obj
 0002:00007890       ??_C@_0L@KDOEJCKC@_nextafter@ 10028890     libucrt:fpexcept.obj
 0002:000078a0       __d_inf                    100288a0     libucrt:util.obj
 0002:000078a8       __d_max                    100288a8     libucrt:util.obj
 0002:000078b0       __d_mzero                  100288b0     libucrt:util.obj
 0002:00007928       __load_config_used         10028928     LIBCMT:loadcfg.obj
 0002:000079cc       __tls_used                 100289cc     LIBCMT:tlssup.obj
 0002:000079e4       ??_R4exception@std@@6B@    100289e4     LIBCMT:throw_bad_alloc.obj
 0002:000079f8       ??_R3exception@std@@8      100289f8     LIBCMT:throw_bad_alloc.obj
 0002:00007a08       ??_R2exception@std@@8      10028a08     LIBCMT:throw_bad_alloc.obj
 0002:00007a10       ??_R1A@?0A@EA@exception@std@@8 10028a10     LIBCMT:throw_bad_alloc.obj
 0002:00007a2c       ??_R4bad_alloc@std@@6B@    10028a2c     LIBCMT:throw_bad_alloc.obj
 0002:00007a40       ??_R3bad_alloc@std@@8      10028a40     LIBCMT:throw_bad_alloc.obj
 0002:00007a50       ??_R2bad_alloc@std@@8      10028a50     LIBCMT:throw_bad_alloc.obj
 0002:00007a5c       ??_R1A@?0A@EA@bad_alloc@std@@8 10028a5c     LIBCMT:throw_bad_alloc.obj
 0002:00007a78       ??_R4bad_array_new_length@std@@6B@ 10028a78     LIBCMT:throw_bad_alloc.obj
 0002:00007a8c       ??_R3bad_array_new_length@std@@8 10028a8c     LIBCMT:throw_bad_alloc.obj
 0002:00007a9c       ??_R2bad_array_new_length@std@@8 10028a9c     LIBCMT:throw_bad_alloc.obj
 0002:00007aac       ??_R1A@?0A@EA@bad_array_new_length@std@@8 10028aac     LIBCMT:throw_bad_alloc.obj
 0002:00007ac8       ??_R4type_info@@6B@        10028ac8     LIBCMT:std_type_info_static.obj
 0002:00007adc       ??_R3type_info@@8          10028adc     LIBCMT:std_type_info_static.obj
 0002:00007aec       ??_R2type_info@@8          10028aec     LIBCMT:std_type_info_static.obj
 0002:00007af4       ??_R1A@?0A@EA@type_info@@8 10028af4     LIBCMT:std_type_info_static.obj
 0002:00007b10       ??_R4bad_exception@std@@6B@ 10028b10     libvcruntime:frame.obj
 0002:00007b24       ??_R3bad_exception@std@@8  10028b24     libvcruntime:frame.obj
 0002:00007b34       ??_R2bad_exception@std@@8  10028b34     libvcruntime:frame.obj
 0002:00007b40       ??_R1A@?0A@EA@bad_exception@std@@8 10028b40     libvcruntime:frame.obj
 0002:00007b60       ___safe_se_handler_table   10028b60     <linker-defined>
 0002:00007f60       ___rtc_iaa                 10028f60     LIBCMT:initsect.obj
 0002:00007f64       ___rtc_izz                 10028f64     LIBCMT:initsect.obj
 0002:00007f68       ___rtc_taa                 10028f68     LIBCMT:initsect.obj
 0002:00007f6c       ___rtc_tzz                 10028f6c     LIBCMT:initsect.obj
 0002:00007f70       __tls_start                10028f70     LIBCMT:tlssup.obj
 0002:00007f74       __Init_thread_epoch        10028f74     LIBCMT:thread_safe_statics.obj
 0002:00007f78       __tls_end                  10028f78     LIBCMT:tlssup.obj
 0002:0000807c       __TI2?AVbad_alloc@std@@    1002907c     LIBCMT:throw_bad_alloc.obj
 0002:0000808c       __CTA2?AVbad_alloc@std@@   1002908c     LIBCMT:throw_bad_alloc.obj
 0002:00008098       __CT??_R0?AVbad_alloc@std@@@8??0bad_alloc@std@@QAE@ABV01@@Z12 10029098     LIBCMT:throw_bad_alloc.obj
 0002:000080b4       __CT??_R0?AVexception@std@@@8??0exception@std@@QAE@ABV01@@Z12 100290b4     LIBCMT:throw_bad_alloc.obj
 0002:000080d0       __TI3?AVbad_array_new_length@std@@ 100290d0     LIBCMT:throw_bad_alloc.obj
 0002:000080e0       __CTA3?AVbad_array_new_length@std@@ 100290e0     LIBCMT:throw_bad_alloc.obj
 0002:000080f0       __CT??_R0?AVbad_array_new_length@std@@@8??0bad_array_new_length@std@@QAE@ABV01@@Z12 100290f0     LIBCMT:throw_bad_alloc.obj
 0002:00008214       __TI2?AVbad_exception@std@@ 10029214     libvcruntime:frame.obj
 0002:00008224       __CTA2?AVbad_exception@std@@ 10029224     libvcruntime:frame.obj
 0002:00008230       __CT??_R0?AVbad_exception@std@@@8??0bad_exception@std@@QAE@ABV01@@Z12 10029230     libvcruntime:frame.obj
 0002:0000858c       ___pobjMapEntryFirst       1002958c     OposVariant.obj
 0002:00008590       ___pobjMapEntryLast        10029590     OposVariant.obj
 0002:00008654       __IMPORT_DESCRIPTOR_KERNEL32 10029654     kernel32:KERNEL32.dll
 0002:00008668       __IMPORT_DESCRIPTOR_USER32 10029668     user32:USER32.dll
 0002:0000867c       __IMPORT_DESCRIPTOR_GDI32  1002967c     gdi32:GDI32.dll
 0002:00008690       __IMPORT_DESCRIPTOR_ADVAPI32 10029690     advapi32:ADVAPI32.dll
 0002:000086a4       __IMPORT_DESCRIPTOR_ole32  100296a4     ole32:ole32.dll
 0002:000086b8       __IMPORT_DESCRIPTOR_OLEAUT32 100296b8     oleaut32:OLEAUT32.dll
 0002:000086cc       __NULL_IMPORT_DESCRIPTOR   100296cc     kernel32:KERNEL32.dll
 0003:00000000       ?s_Claim@?7??GetIDsOfNames@CComTypeInfoHolder@ATL@@QAEJABU_GUID@@PAPA_WIKPAJ@Z@4PA_WA 1002b000     ElectronicValueRW.obj
 0003:00000018       ?s_Release@?7??GetIDsOfNames@CComTypeInfoHolder@ATL@@QAEJABU_GUID@@PAPA_WIKPAJ@Z@4PA_WA 1002b018     ElectronicValueRW.obj
 0003:00000034       ?_tih@?$IDispatchImpl@UIOPOSElectronicValueRW@@$1?IID_IOPOSElectronicValueRW@@3U_GUID@@B$1?LIBID_OposElectronicValueRW_CCO@@3U3@B$00$0A@VCComTypeInfoHolder@ATL@@@ATL@@1VCComTypeInfoHolder@2@A 1002b034     ElectronicValueRW.obj
 0003:00000050       ?_tih@?$IProvideClassInfo2Impl@$1?CLSID_OPOSElectronicValueRW@@3U_GUID@@B$1?DIID__IOPOSElectronicValueRWEvents@@3U2@B$1?LIBID_OposElectronicValueRW_CCO@@3U2@B$00$0A@VCComTypeInfoHolder@ATL@@@ATL@@1VCComTypeInfoHolder@2@A 1002b050     ElectronicValueRW.obj
 0003:0000006c       ?vszContents@?6??Save@?$IPersistStorageImpl@VCOPOSElectronicValueRW@@@ATL@@UAGJPAUIStorage@@H@Z@4PB_WB 1002b06c     ElectronicValueRW.obj
 0003:00000070       ?rcDefault@CWindow@ATL@@2UtagRECT@@A 1002b070     ElectronicValueRW.obj
 0003:00000080       ?wc@?1??GetWndClassInfo@?$CWindowImpl@VCOPOSElectronicValueRW@@VCWindow@ATL@@V?$CWinTraits@$0FGAAAAAA@$0A@@3@@ATL@@SAAAU_ATL_WNDCLASSINFOW@3@XZ@4U43@A 1002b080     ElectronicValueRW.obj
 0003:00000158       ?g_WindowName@@3PA_WA      1002b158     ElectronicValueRWImpl.obj
 0003:00000190       ?g_ControlDescription@@3PADA 1002b190     ElectronicValueRWImpl.obj
 0003:000001e4       ?g_ControlVersion@@3JA     1002b1e4     ElectronicValueRWImpl.obj
 0003:00000308       ___scrt_native_dllmain_reason 1002b308     LIBCMT:utility.obj
 0003:0000030c       __Init_global_epoch        1002b30c     LIBCMT:thread_safe_statics.obj
 0003:00000310       ___security_cookie_complement 1002b310     LIBCMT:gs_cookie.obj
 0003:00000314       ___security_cookie         1002b314     LIBCMT:gs_cookie.obj
 0003:00000318       ___isa_enabled             1002b318     LIBCMT:cpu_disp.obj
 0003:00000330       __NLG_Destination          1002b330     libvcruntime:exsup.obj
 0003:00000348       ___abort_behavior          1002b348     libucrt:abort.obj
 0003:00000358       __iob                      1002b358     libucrt:_file.obj
 0003:00000400       ___acrt_initial_locale_data 1002b400     libucrt:nlsdata.obj
 0003:000004b8       ___acrt_initial_locale_pointers 1002b4b8     libucrt:nlsdata.obj
 0003:000004c0       ___acrt_wide_c_locale_string 1002b4c0     libucrt:nlsdata.obj
 0003:000004c8       ___acrt_initial_multibyte_data 1002b4c8     libucrt:mbctype.obj
 0003:000009e8       __pwctype                  1002b9e8     libucrt:ctype.obj
 0003:000009ec       ___globallocalestatus      1002b9ec     libucrt:glstatus.obj
 0003:000009f0       ___acrt_lconv_c            1002b9f0     libucrt:localeconv.obj
 0003:00000a40       ___acrt_lconv_static_decimal 1002ba40     libucrt:localeconv.obj
 0003:00000a44       ___acrt_lconv_static_W_decimal 1002ba44     libucrt:localeconv.obj
 0003:00000a50       __lookuptrailbytes         1002ba50     libucrt:read.obj
 0003:00000b60       __fltused                  1002bb60     LIBCMT:fltused.obj
 0003:00000b70       ??_R0?AVbad_alloc@std@@@8  1002bb70     LIBCMT:throw_bad_alloc.obj
 0003:00000b8c       ??_R0?AVexception@std@@@8  1002bb8c     LIBCMT:throw_bad_alloc.obj
 0003:00000ba8       ??_R0?AVbad_array_new_length@std@@@8 1002bba8     LIBCMT:throw_bad_alloc.obj
 0003:00000bd0       ??_R0?AVtype_info@@@8      1002bbd0     LIBCMT:std_type_info_static.obj
 0003:00000be8       ??_R0?AVbad_exception@std@@@8 1002bbe8     libvcruntime:frame.obj
 0003:00000c08       ?_pPerfRegFunc@ATL@@3P6AJPAUHINSTANCE__@@@ZA 1002bc08     OposVariant.obj
 0003:00000c0c       ?_pPerfUnRegFunc@ATL@@3P6AJXZA 1002bc0c     OposVariant.obj
 0003:00000c10       ?_AtlRegisterPerUser@ATL@@3_NA 1002bc10     OposVariant.obj
 0003:00000c14       ?_pAtlModule@ATL@@3PAVCAtlModule@1@A 1002bc14     OposVariant.obj
 0003:00000c18       ?_pModule@ATL@@3PAVCComModule@1@A 1002bc18     OposVariant.obj
 0003:00000c1c       ?m_bInitFailed@CAtlBaseModule@ATL@@2_NA 1002bc1c     OposVariant.obj
 0003:00000c20       ?_AtlComModule@ATL@@3VCAtlComModule@1@A 1002bc20     OposVariant.obj
 0003:00000c48       ?_AtlWinModule@ATL@@3VCAtlWinModule@1@A 1002bc48     OposVariant.obj
 0003:00000c74       ?m_libid@CAtlModule@ATL@@2U_GUID@@A 1002bc74     ElectronicValueRW.obj
 0003:00000c84       ?_entries@?1??GetConnMap@COPOSElectronicValueRW@@SAPBU_ATL_CONNMAP_ENTRY@ATL@@PAH@Z@4QBU34@B 1002bc84     ElectronicValueRW.obj
 0003:00000c90       ?$TSS0@?1??GetConnMap@COPOSElectronicValueRW@@SAPBU_ATL_CONNMAP_ENTRY@ATL@@PAH@Z@4HA 1002bc90     ElectronicValueRW.obj
 0003:00000c98       ?_OptionsStorage@?1??__local_stdio_printf_options@@9@4_KA 1002bc98     ElectronicValueRW.obj
 0003:00000ca0       ?pfnRegDeleteKeyEx@?1??DeleteSubKey@CRegKey@ATL@@QAEJPB_W@Z@4P6GJPAUHKEY__@@0KK@ZA 1002bca0     ElectronicValueRW.obj
 0003:00000ca4       ?bInitialized@?1??DeleteSubKey@CRegKey@ATL@@QAEJPB_W@Z@4_NA 1002bca4     ElectronicValueRW.obj
 0003:00000ca8       ?_Module@@3VCComModule@ATL@@A 1002bca8     ElectronicValueRW.obj
 0003:00000cd8       ?pConnMap@?$IConnectionPointContainerImpl@VCOPOSElectronicValueRW@@@ATL@@0PBU_ATL_CONNMAP_ENTRY@2@B 1002bcd8     ElectronicValueRW.obj
 0003:00000cdc       ?s_nInstances@COPOSElectronicValueRW@@1HA 1002bcdc     ElectronicValueRWImpl.obj
 0003:00000ce0       ___scrt_current_native_startup_state 1002bce0     LIBCMT:utility.obj
 0003:00000ce4       ___scrt_native_startup_lock 1002bce4     LIBCMT:utility.obj
 0003:0000104c       __tls_index                1002c04c     LIBCMT:tlssup.obj
 0003:00001054       ___isa_available           1002c054     LIBCMT:cpu_disp.obj
 0003:00001058       ___favor                   1002c058     LIBCMT:cpu_disp.obj
 0003:0000105c       ___scrt_debugger_hook_flag 1002c05c     LIBCMT:utility_desktop.obj
 0003:00001060       ?__type_info_root_node@@3U__type_info_node@@A 1002c060     LIBCMT:tncleanup.obj
 0003:00001068       ?_OptionsStorage@?1??__local_stdio_scanf_options@@9@4_KA 1002c068     LIBCMT:default_local_stdio_options.obj
 0003:00001070       ?_AtlBaseModule@ATL@@3VCAtlBaseModule@1@A 1002c070     atls:atlbase.obj
 0003:000010a8       ?__AtlThunkPool@@3PAT_SLIST_HEADER@@A 1002c0a8     atls:atlthunk.obj
 0003:000010c0       ___@@_PchSym_@00@UztvmgUPdlipUGUhUrmgvinvwrzgvUexgllohUzgohOmzgrevkilqPBACIAJCBDBUlyqiUcIGUhgwzucOlyq@4B2008FD98C1DD4 1002c0c0     atls:stdafx.obj
 0003:000010c4       ?__WinRTOutOfMemoryExceptionCallback@@3P6GPAXXZA 1002c0c4     libvcruntime:ehhelpers.obj
 0003:000010c8       ___pPurecall               1002c0c8     libvcruntime:purevirt_data.obj
 0003:00001110       ?pArgList@UnDecorator@@0PAVReplicator@@A 1002c110     libvcruntime:undname.obj
 0003:00001114       ?pZNameList@UnDecorator@@0PAVReplicator@@A 1002c114     libvcruntime:undname.obj
 0003:00001118       ?pTemplateArgList@UnDecorator@@0PAVReplicator@@A 1002c118     libvcruntime:undname.obj
 0003:0000111c       ?gName@UnDecorator@@0PBDB  1002c11c     libvcruntime:undname.obj
 0003:00001120       ?name@UnDecorator@@0PBDB   1002c120     libvcruntime:undname.obj
 0003:00001124       ?disableFlags@UnDecorator@@0KA 1002c124     libvcruntime:undname.obj
 0003:00001128       ?fExplicitTemplateParams@UnDecorator@@0_NA 1002c128     libvcruntime:undname.obj
 0003:00001129       ?fGetTemplateArgumentList@UnDecorator@@0_NA 1002c129     libvcruntime:undname.obj
 0003:0000112c       ?m_pGetParameter@UnDecorator@@0P6APADJ@ZA 1002c12c     libvcruntime:undname.obj
 0003:00001130       ?m_CHPENameOffset@UnDecorator@@0KA 1002c130     libvcruntime:undname.obj
 0003:00001134       ?m_recursionLevel@UnDecorator@@0KA 1002c134     libvcruntime:undname.obj
 0003:00001178       ?c_exit_complete@?1???R<lambda_6e4b09c48022b2350581041d5f6b0c4c>@@QBE@XZ@4_NA 1002c178     libucrt:exit.obj
 0003:00001288       __environ_table            1002c288     libucrt:environment_initialization.obj
 0003:0000128c       __wenviron_table           1002c28c     libucrt:environment_initialization.obj
 0003:00001290       ___dcrt_initial_wide_environment 1002c290     libucrt:environment_initialization.obj
 0003:00001294       ___dcrt_initial_narrow_environment 1002c294     libucrt:environment_initialization.obj
 0003:00001298       ___acrt_atexit_table       1002c298     libucrt:onexit.obj
 0003:000012a4       ___acrt_at_quick_exit_table 1002c2a4     libucrt:onexit.obj
 0003:00001398       __nstream                  1002c398     libucrt:_file.obj
 0003:0000139c       ___piob                    1002c39c     libucrt:_file.obj
 0003:000013a4       ___acrt_stdout_buffer      1002c3a4     libucrt:_sftbuf.obj
 0003:000013a8       ___acrt_stderr_buffer      1002c3a8     libucrt:_sftbuf.obj
 0003:000013ac       ___acrt_locale_changed_data 1002c3ac     libucrt:wsetlocale.obj
 0003:000013b0       ___acrt_current_locale_data 1002c3b0     libucrt:nlsdata.obj
 0003:000013b8       ___pioinfo                 1002c3b8     libucrt:ioinit.obj
 0003:000015b8       __nhandle                  1002c5b8     libucrt:ioinit.obj
 0003:00001714       __mbctype                  1002c714     libucrt:mbctype.obj
 0003:00001718       __mbcasemap                1002c718     libucrt:mbctype.obj
 0003:0000171c       ___acrt_current_multibyte_data 1002c71c     libucrt:mbctype.obj
 0003:00001728       __pgmptr                   1002c728     libucrt:argv_data.obj
 0003:0000172c       ___argc                    1002c72c     libucrt:argv_data.obj
 0003:00001730       ___argv                    1002c730     libucrt:argv_data.obj
 0003:00001734       ___wargv                   1002c734     libucrt:argv_data.obj
 0003:00001738       __acmdln                   1002c738     libucrt:argv_data.obj
 0003:0000173c       __wcmdln                   1002c73c     libucrt:argv_data.obj
 0003:00001740       ___acrt_heap               1002c740     libucrt:heap_handle.obj
 0003:0000175c       ___acrt_lconv_static_null  1002c75c     libucrt:localeconv.obj
 0003:00001760       ___acrt_lconv_static_W_null 1002c760     libucrt:localeconv.obj
 0003:00001770       ___fastflag                1002c770     libucrt:fp_flags.obj
 0003:00001778       ___dyn_tls_init_callback   1002c778     <common>
 0003:0000177c       ___scrt_ucrt_dll_is_in_use 1002c77c     <common>
 0003:00001780       __pmatherr                 1002c780     <common>
 0003:00001784       ___use_sse2_mathfcns       1002c784     <common>

 entry point at        0001:0000dcf8

 Static symbols

 0000:fffc8000       .debug$S                   10000000     OPOSElectronicValueRW.exp
 0000:fffc8000       .debug$S                   10000000     advapi32:ADVAPI32.dll
 0000:fffc8000       .debug$S                   10000000     advapi32:ADVAPI32.dll
 0000:fffc8000       .debug$S                   10000000     advapi32:ADVAPI32.dll
 0000:fffc8000       .debug$S                   10000000     advapi32:ADVAPI32.dll
 0000:fffc8000       .debug$S                   10000000     advapi32:ADVAPI32.dll
 0000:fffc8000       .debug$S                   10000000     advapi32:ADVAPI32.dll
 0000:fffc8000       .debug$S                   10000000     advapi32:ADVAPI32.dll
 0000:fffc8000       .debug$S                   10000000     advapi32:ADVAPI32.dll
 0000:fffc8000       .debug$S                   10000000     advapi32:ADVAPI32.dll
 0000:fffc8000       .debug$S                   10000000     gdi32:GDI32.dll
 0000:fffc8000       .debug$S                   10000000     gdi32:GDI32.dll
 0000:fffc8000       .debug$S                   10000000     gdi32:GDI32.dll
 0000:fffc8000       .debug$S                   10000000     gdi32:GDI32.dll
 0000:fffc8000       .debug$S                   10000000     gdi32:GDI32.dll
 0000:fffc8000       .debug$S                   10000000     gdi32:GDI32.dll
 0000:fffc8000       .debug$S                   10000000     gdi32:GDI32.dll
 0000:fffc8000       .debug$S                   10000000     gdi32:GDI32.dll
 0000:fffc8000       .debug$S                   10000000     gdi32:GDI32.dll
 0000:fffc8000       .debug$S                   10000000     gdi32:GDI32.dll
 0000:fffc8000       .debug$S                   10000000     gdi32:GDI32.dll
 0000:fffc8000       .debug$S                   10000000     gdi32:GDI32.dll
 0000:fffc8000       .debug$S                   10000000     gdi32:GDI32.dll
 0000:fffc8000       .debug$S                   10000000     gdi32:GDI32.dll
 0000:fffc8000       .debug$S                   10000000     gdi32:GDI32.dll
 0000:fffc8000       .debug$S                   10000000     gdi32:GDI32.dll
 0000:fffc8000       .debug$S                   10000000     gdi32:GDI32.dll
 0000:fffc8000       .debug$S                   10000000     gdi32:GDI32.dll
 0000:fffc8000       .debug$S                   10000000     gdi32:GDI32.dll
 0000:fffc8000       .debug$S                   10000000     kernel32:KERNEL32.dll
 0000:fffc8000       .debug$S                   10000000     kernel32:KERNEL32.dll
 0000:fffc8000       .debug$S                   10000000     kernel32:KERNEL32.dll
 0000:fffc8000       .debug$S                   10000000     kernel32:KERNEL32.dll
 0000:fffc8000       .debug$S                   10000000     kernel32:KERNEL32.dll
 0000:fffc8000       .debug$S                   10000000     kernel32:KERNEL32.dll
 0000:fffc8000       .debug$S                   10000000     kernel32:KERNEL32.dll
 0000:fffc8000       .debug$S                   10000000     kernel32:KERNEL32.dll
 0000:fffc8000       .debug$S                   10000000     kernel32:KERNEL32.dll
 0000:fffc8000       .debug$S                   10000000     kernel32:KERNEL32.dll
 0000:fffc8000       .debug$S                   10000000     kernel32:KERNEL32.dll
 0000:fffc8000       .debug$S                   10000000     kernel32:KERNEL32.dll
 0000:fffc8000       .debug$S                   10000000     kernel32:KERNEL32.dll
 0000:fffc8000       .debug$S                   10000000     kernel32:KERNEL32.dll
 0000:fffc8000       .debug$S                   10000000     kernel32:KERNEL32.dll
 0000:fffc8000       .debug$S                   10000000     kernel32:KERNEL32.dll
 0000:fffc8000       .debug$S                   10000000     kernel32:KERNEL32.dll
 0000:fffc8000       .debug$S                   10000000     kernel32:KERNEL32.dll
 0000:fffc8000       .debug$S                   10000000     kernel32:KERNEL32.dll
 0000:fffc8000       .debug$S                   10000000     kernel32:KERNEL32.dll
 0000:fffc8000       .debug$S                   10000000     kernel32:KERNEL32.dll
 0000:fffc8000       .debug$S                   10000000     kernel32:KERNEL32.dll
 0000:fffc8000       .debug$S                   10000000     kernel32:KERNEL32.dll
 0000:fffc8000       .debug$S                   10000000     kernel32:KERNEL32.dll
 0000:fffc8000       .debug$S                   10000000     kernel32:KERNEL32.dll
 0000:fffc8000       .debug$S                   10000000     kernel32:KERNEL32.dll
 0000:fffc8000       .debug$S                   10000000     kernel32:KERNEL32.dll
 0000:fffc8000       .debug$S                   10000000     kernel32:KERNEL32.dll
 0000:fffc8000       .debug$S                   10000000     kernel32:KERNEL32.dll
 0000:fffc8000       .debug$S                   10000000     kernel32:KERNEL32.dll
 0000:fffc8000       .debug$S                   10000000     kernel32:KERNEL32.dll
 0000:fffc8000       .debug$S                   10000000     kernel32:KERNEL32.dll
 0000:fffc8000       .debug$S                   10000000     kernel32:KERNEL32.dll
 0000:fffc8000       .debug$S                   10000000     kernel32:KERNEL32.dll
 0000:fffc8000       .debug$S                   10000000     kernel32:KERNEL32.dll
 0000:fffc8000       .debug$S                   10000000     kernel32:KERNEL32.dll
 0000:fffc8000       .debug$S                   10000000     kernel32:KERNEL32.dll
 0000:fffc8000       .debug$S                   10000000     kernel32:KERNEL32.dll
 0000:fffc8000       .debug$S                   10000000     kernel32:KERNEL32.dll
 0000:fffc8000       .debug$S                   10000000     kernel32:KERNEL32.dll
 0000:fffc8000       .debug$S                   10000000     kernel32:KERNEL32.dll
 0000:fffc8000       .debug$S                   10000000     kernel32:KERNEL32.dll
 0000:fffc8000       .debug$S                   10000000     kernel32:KERNEL32.dll
 0000:fffc8000       .debug$S                   10000000     kernel32:KERNEL32.dll
 0000:fffc8000       .debug$S                   10000000     kernel32:KERNEL32.dll
 0000:fffc8000       .debug$S                   10000000     kernel32:KERNEL32.dll
 0000:fffc8000       .debug$S                   10000000     kernel32:KERNEL32.dll
 0000:fffc8000       .debug$S                   10000000     kernel32:KERNEL32.dll
 0000:fffc8000       .debug$S                   10000000     kernel32:KERNEL32.dll
 0000:fffc8000       .debug$S                   10000000     kernel32:KERNEL32.dll
 0000:fffc8000       .debug$S                   10000000     kernel32:KERNEL32.dll
 0000:fffc8000       .debug$S                   10000000     kernel32:KERNEL32.dll
 0000:fffc8000       .debug$S                   10000000     kernel32:KERNEL32.dll
 0000:fffc8000       .debug$S                   10000000     kernel32:KERNEL32.dll
 0000:fffc8000       .debug$S                   10000000     kernel32:KERNEL32.dll
 0000:fffc8000       .debug$S                   10000000     kernel32:KERNEL32.dll
 0000:fffc8000       .debug$S                   10000000     kernel32:KERNEL32.dll
 0000:fffc8000       .debug$S                   10000000     kernel32:KERNEL32.dll
 0000:fffc8000       .debug$S                   10000000     kernel32:KERNEL32.dll
 0000:fffc8000       .debug$S                   10000000     kernel32:KERNEL32.dll
 0000:fffc8000       .debug$S                   10000000     kernel32:KERNEL32.dll
 0000:fffc8000       .debug$S                   10000000     kernel32:KERNEL32.dll
 0000:fffc8000       .debug$S                   10000000     kernel32:KERNEL32.dll
 0000:fffc8000       .debug$S                   10000000     kernel32:KERNEL32.dll
 0000:fffc8000       .debug$S                   10000000     kernel32:KERNEL32.dll
 0000:fffc8000       .debug$S                   10000000     kernel32:KERNEL32.dll
 0000:fffc8000       .debug$S                   10000000     kernel32:KERNEL32.dll
 0000:fffc8000       .debug$S                   10000000     kernel32:KERNEL32.dll
 0000:fffc8000       .debug$S                   10000000     kernel32:KERNEL32.dll
 0000:fffc8000       .debug$S                   10000000     kernel32:KERNEL32.dll
 0000:fffc8000       .debug$S                   10000000     kernel32:KERNEL32.dll
 0000:fffc8000       .debug$S                   10000000     kernel32:KERNEL32.dll
 0000:fffc8000       .debug$S                   10000000     kernel32:KERNEL32.dll
 0000:fffc8000       .debug$S                   10000000     kernel32:KERNEL32.dll
 0000:fffc8000       .debug$S                   10000000     kernel32:KERNEL32.dll
 0000:fffc8000       .debug$S                   10000000     kernel32:KERNEL32.dll
 0000:fffc8000       .debug$S                   10000000     kernel32:KERNEL32.dll
 0000:fffc8000       .debug$S                   10000000     kernel32:KERNEL32.dll
 0000:fffc8000       .debug$S                   10000000     kernel32:KERNEL32.dll
 0000:fffc8000       .debug$S                   10000000     kernel32:KERNEL32.dll
 0000:fffc8000       .debug$S                   10000000     kernel32:KERNEL32.dll
 0000:fffc8000       .debug$S                   10000000     kernel32:KERNEL32.dll
 0000:fffc8000       .debug$S                   10000000     kernel32:KERNEL32.dll
 0000:fffc8000       .debug$S                   10000000     kernel32:KERNEL32.dll
 0000:fffc8000       .debug$S                   10000000     kernel32:KERNEL32.dll
 0000:fffc8000       .debug$S                   10000000     kernel32:KERNEL32.dll
 0000:fffc8000       .debug$S                   10000000     kernel32:KERNEL32.dll
 0000:fffc8000       .debug$S                   10000000     kernel32:KERNEL32.dll
 0000:fffc8000       .debug$S                   10000000     kernel32:KERNEL32.dll
 0000:fffc8000       .debug$S                   10000000     kernel32:KERNEL32.dll
 0000:fffc8000       .debug$S                   10000000     kernel32:KERNEL32.dll
 0000:fffc8000       .debug$S                   10000000     kernel32:KERNEL32.dll
 0000:fffc8000       .debug$S                   10000000     kernel32:KERNEL32.dll
 0000:fffc8000       .debug$S                   10000000     kernel32:KERNEL32.dll
 0000:fffc8000       .debug$S                   10000000     kernel32:KERNEL32.dll
 0000:fffc8000       .debug$S                   10000000     kernel32:KERNEL32.dll
 0000:fffc8000       .debug$S                   10000000     kernel32:KERNEL32.dll
 0000:fffc8000       .debug$S                   10000000     kernel32:KERNEL32.dll
 0000:fffc8000       .debug$S                   10000000     kernel32:KERNEL32.dll
 0000:fffc8000       .debug$S                   10000000     kernel32:KERNEL32.dll
 0000:fffc8000       .debug$S                   10000000     kernel32:KERNEL32.dll
 0000:fffc8000       .debug$S                   10000000     kernel32:KERNEL32.dll
 0000:fffc8000       .debug$S                   10000000     kernel32:KERNEL32.dll
 0000:fffc8000       .debug$S                   10000000     kernel32:KERNEL32.dll
 0000:fffc8000       .debug$S                   10000000     kernel32:KERNEL32.dll
 0000:fffc8000       .debug$S                   10000000     kernel32:KERNEL32.dll
 0000:fffc8000       .debug$S                   10000000     ole32:ole32.dll
 0000:fffc8000       .debug$S                   10000000     ole32:ole32.dll
 0000:fffc8000       .debug$S                   10000000     ole32:ole32.dll
 0000:fffc8000       .debug$S                   10000000     ole32:ole32.dll
 0000:fffc8000       .debug$S                   10000000     ole32:ole32.dll
 0000:fffc8000       .debug$S                   10000000     ole32:ole32.dll
 0000:fffc8000       .debug$S                   10000000     ole32:ole32.dll
 0000:fffc8000       .debug$S                   10000000     ole32:ole32.dll
 0000:fffc8000       .debug$S                   10000000     ole32:ole32.dll
 0000:fffc8000       .debug$S                   10000000     ole32:ole32.dll
 0000:fffc8000       .debug$S                   10000000     ole32:ole32.dll
 0000:fffc8000       .debug$S                   10000000     ole32:ole32.dll
 0000:fffc8000       .debug$S                   10000000     ole32:ole32.dll
 0000:fffc8000       .debug$S                   10000000     ole32:ole32.dll
 0000:fffc8000       .debug$S                   10000000     oleaut32:OLEAUT32.dll
 0000:fffc8000       .debug$S                   10000000     oleaut32:OLEAUT32.dll
 0000:fffc8000       .debug$S                   10000000     oleaut32:OLEAUT32.dll
 0000:fffc8000       .debug$S                   10000000     oleaut32:OLEAUT32.dll
 0000:fffc8000       .debug$S                   10000000     oleaut32:OLEAUT32.dll
 0000:fffc8000       .debug$S                   10000000     oleaut32:OLEAUT32.dll
 0000:fffc8000       .debug$S                   10000000     oleaut32:OLEAUT32.dll
 0000:fffc8000       .debug$S                   10000000     oleaut32:OLEAUT32.dll
 0000:fffc8000       .debug$S                   10000000     oleaut32:OLEAUT32.dll
 0000:fffc8000       .debug$S                   10000000     oleaut32:OLEAUT32.dll
 0000:fffc8000       .debug$S                   10000000     oleaut32:OLEAUT32.dll
 0000:fffc8000       .debug$S                   10000000     oleaut32:OLEAUT32.dll
 0000:fffc8000       .debug$S                   10000000     oleaut32:OLEAUT32.dll
 0000:fffc8000       .debug$S                   10000000     oleaut32:OLEAUT32.dll
 0000:fffc8000       .debug$S                   10000000     oleaut32:OLEAUT32.dll
 0000:fffc8000       .debug$S                   10000000     oleaut32:OLEAUT32.dll
 0000:fffc8000       .debug$S                   10000000     user32:USER32.dll
 0000:fffc8000       .debug$S                   10000000     user32:USER32.dll
 0000:fffc8000       .debug$S                   10000000     user32:USER32.dll
 0000:fffc8000       .debug$S                   10000000     user32:USER32.dll
 0000:fffc8000       .debug$S                   10000000     user32:USER32.dll
 0000:fffc8000       .debug$S                   10000000     user32:USER32.dll
 0000:fffc8000       .debug$S                   10000000     user32:USER32.dll
 0000:fffc8000       .debug$S                   10000000     user32:USER32.dll
 0000:fffc8000       .debug$S                   10000000     user32:USER32.dll
 0000:fffc8000       .debug$S                   10000000     user32:USER32.dll
 0000:fffc8000       .debug$S                   10000000     user32:USER32.dll
 0000:fffc8000       .debug$S                   10000000     user32:USER32.dll
 0000:fffc8000       .debug$S                   10000000     user32:USER32.dll
 0000:fffc8000       .debug$S                   10000000     user32:USER32.dll
 0000:fffc8000       .debug$S                   10000000     user32:USER32.dll
 0000:fffc8000       .debug$S                   10000000     user32:USER32.dll
 0000:fffc8000       .debug$S                   10000000     user32:USER32.dll
 0000:fffc8000       .debug$S                   10000000     user32:USER32.dll
 0000:fffc8000       .debug$S                   10000000     user32:USER32.dll
 0000:fffc8000       .debug$S                   10000000     user32:USER32.dll
 0000:fffc8000       .debug$S                   10000000     user32:USER32.dll
 0000:fffc8000       .debug$S                   10000000     user32:USER32.dll
 0000:fffc8000       .debug$S                   10000000     user32:USER32.dll
 0000:fffc8000       .debug$S                   10000000     user32:USER32.dll
 0000:fffc8000       .debug$S                   10000000     user32:USER32.dll
 0000:fffc8000       .debug$S                   10000000     user32:USER32.dll
 0000:fffc8000       .debug$S                   10000000     user32:USER32.dll
 0000:fffc8000       .debug$S                   10000000     user32:USER32.dll
 0000:fffc8000       .debug$S                   10000000     user32:USER32.dll
 0000:fffc8000       .debug$S                   10000000     user32:USER32.dll
 0000:fffc8000       .debug$S                   10000000     user32:USER32.dll
 0000:fffc8000       .debug$S                   10000000     user32:USER32.dll
 0000:fffc8000       .debug$S                   10000000     user32:USER32.dll
 0000:fffc8000       .debug$S                   10000000     user32:USER32.dll
 0000:fffc8000       .debug$S                   10000000     user32:USER32.dll
 0001:00000000       ??__E_AtlComModule@ATL@@YAXXZ 10001000 f   OposVariant.obj
 0001:00000016       ??__E_AtlWinModule@ATL@@YAXXZ 10001016 f   OposVariant.obj
 0001:0000002c       ??__E?pConnMap@?$IConnectionPointContainerImpl@VCOPOSElectronicValueRW@@@ATL@@0PBU_ATL_CONNMAP_ENTRY@2@B@@YAXXZ 1000102c f   ElectronicValueRW.obj
 0001:0000003a       ??__E_Module@@YAXXZ        1000103a f   ElectronicValueRW.obj
 0001:00000064       ??__E_AtlBaseModule@ATL@@YAXXZ 10001064 f   atls:atlbase.obj
 0001:00001389       $LN24                      10002389     ElectronicValueRW.obj
 0001:00005b2b       $LN47                      10006b2b     ElectronicValueRW.obj
 0001:00005b43       $LN46                      10006b43     ElectronicValueRW.obj
 0001:00007d10       $LN37                      10008d10     ElectronicValueRW.obj
 0001:00007d28       $LN36                      10008d28     ElectronicValueRW.obj
 0001:00009404       $LN76                      1000a404     ElectronicValueRW.obj
 0001:0000941c       $LN75                      1000a41c     ElectronicValueRW.obj
 0001:000097d5       _memcpy_s                  1000a7d5 f   ElectronicValueRW.obj
 0001:0000d194       ?find_pe_section@@YAPAU_IMAGE_SECTION_HEADER@@QAEI@Z 1000e194 f   LIBCMT:utility.obj
 0001:0000d4b3       ?__scrt_initialize_thread_safe_statics@@YAHXZ 1000e4b3 f   LIBCMT:thread_safe_statics.obj
 0001:0000d4da       ?__scrt_initialize_thread_safe_statics_platform_specific@@YAXXZ 1000e4da f   LIBCMT:thread_safe_statics.obj
 0001:0000d55c       ?__scrt_uninitialize_thread_safe_statics@@YAXXZ 1000e55c f   LIBCMT:thread_safe_statics.obj
 0001:0000d8cb       __catch$??2@YAPAXIABUnothrow_t@std@@@Z$0 1000e8cb f   LIBCMT:new_scalar_nothrow.obj
 0001:0000d900       $$000000                   1000e900     LIBCMT:sehprolg4gs.obj
 0001:0000d960       $$000000                   1000e960     LIBCMT:alloca16.obj
 0001:0000d990       $$000000                   1000e990     LIBCMT:chkstk.obj
 0001:0000d9bd       ?dllmain_crt_dispatch@@YGHQAUHINSTANCE__@@KQAX@Z 1000e9bd f   LIBCMT:dll_dllmain.obj
 0001:0000da10       ?dllmain_crt_process_attach@@YAHQAUHINSTANCE__@@QAX@Z 1000ea10 f   LIBCMT:dll_dllmain.obj
 0001:0000db17       ?dllmain_crt_process_detach@@YAH_N@Z 1000eb17 f   LIBCMT:dll_dllmain.obj
 0001:0000dbc7       ?dllmain_dispatch@@YAHQAUHINSTANCE__@@KQAX@Z 1000ebc7 f   LIBCMT:dll_dllmain.obj
 0001:0000dccd       ?dllmain_raw@@YGHQAUHINSTANCE__@@KQAX@Z 1000eccd f   LIBCMT:dll_dllmain.obj
 0001:0000e050       $$000000                   1000f050     LIBCMT:sehprolg4.obj
 0001:0000e0ac       ___get_entropy             1000f0ac f   LIBCMT:gs_support.obj
 0001:0000e3a3       ??$GetProcAddressAll@P6GP6GJPAUHWND__@@IIJ@ZPAUAtlThunkData_t@@@Z@@YAP6GP6GJPAUHWND__@@IIJ@ZPAUAtlThunkData_t@@@ZPAP6GP6GJ0IIJ@Z1@Z@Z 1000f3a3 f   atls:atlthunk.obj
 0001:0000e3a3       ??$GetProcAddressAll@P6GPAUAtlThunkData_t@@XZ@@YAP6GPAUAtlThunkData_t@@XZPAP6GPAU0@XZ@Z 1000f3a3 f   atls:atlthunk.obj
 0001:0000e3a3       ??$GetProcAddressAll@P6GXPAUAtlThunkData_t@@@Z@@YAP6GXPAUAtlThunkData_t@@@ZPAP6GX0@Z@Z 1000f3a3 f   atls:atlthunk.obj
 0001:0000e3a3       ??$GetProcAddressAll@P6GXPAUAtlThunkData_t@@PAXI@Z@@YAP6GXPAUAtlThunkData_t@@PAXI@ZPAP6GX01I@Z@Z 1000f3a3 f   atls:atlthunk.obj
 0001:0000e453       ?GetProcAddressSingle@@YA_NPAUHINSTANCE__@@PBDPAPAX@Z 1000f453 f   atls:atlthunk.obj
 0001:0000e5a5       ?__InitializeThunkPool@@YAHXZ 1000f5a5 f   atls:atlthunk.obj
 0001:0000ea00       _ValidateLocalCookies      1000fa00 f   libvcruntime:chandler4.obj
 0001:0000fac2       $LN1241                    10010ac2     libvcruntime:memcmp.obj
 0001:0000fb50       $$000000                   10010b50     libvcruntime:memcpy.obj
 0001:0000fdb4       TrailingUpVec              10010db4     libvcruntime:memcpy.obj
 0001:0000fe60       TrailingDownVec            10010e60     libvcruntime:memcpy.obj
 0001:000100d0       $$000000                   100110d0     libvcruntime:memset.obj
 0001:000106d3       ?_FilterSetCurrentException@@YAKPAU_EXCEPTION_POINTERS@@E@Z 100116d3 f   libvcruntime:ehhelpers.obj
 0001:00010920       $$000000                   10011920     libvcruntime:memmove.obj
 0001:00010b84       TrailingUpVec              10011b84     libvcruntime:memmove.obj
 0001:00010c30       TrailingDownVec            10011c30     libvcruntime:memmove.obj
 0001:00010ea0       $$000000                   10011ea0     libvcruntime:exsup4.obj
 0001:00010f30       __unwind_handler4          10011f30 f   libvcruntime:exsup4.obj
 0001:0001120f       ??$BuildCatchObjectHelperInternal@V__FrameHandler3@@@@YAHPAUEHExceptionRecord@@PAXPBU_s_HandlerType@@PBU_s_CatchableType@@@Z 1001220f f   libvcruntime:frame.obj
 0001:0001134d       ??$BuildCatchObjectInternal@V__FrameHandler3@@@@YAXPAUEHExceptionRecord@@PAXPBU_s_HandlerType@@PBU_s_CatchableType@@@Z 1001234d f   libvcruntime:frame.obj
 0001:000113e6       ??$CatchIt@V__FrameHandler3@@@@YAXPAUEHExceptionRecord@@PAUEHRegistrationNode@@PAU_CONTEXT@@PAXPBU_s_FuncInfo@@PBU_s_HandlerType@@PBU_s_CatchableType@@PBU_s_TryBlockMapEntry@@H1EE@Z 100123e6 f   libvcruntime:frame.obj
 0001:00011466       ??$FindHandler@V__FrameHandler3@@@@YAXPAUEHExceptionRecord@@PAUEHRegistrationNode@@PAU_CONTEXT@@PAXPBU_s_FuncInfo@@EH1@Z 10012466 f   libvcruntime:frame.obj
 0001:0001181c       ??$FindHandlerForForeignException@V__FrameHandler3@@@@YAXPAUEHExceptionRecord@@PAUEHRegistrationNode@@PAU_CONTEXT@@PAXPBU_s_FuncInfo@@HH1@Z 1001281c f   libvcruntime:frame.obj
 0001:00011b34       ?CallCatchBlock@@YAPAXPAUEHExceptionRecord@@PAUEHRegistrationNode@@PAU_CONTEXT@@PBU_s_FuncInfo@@PAXHK@Z 10012b34 f   libvcruntime:frame.obj
 0001:00011cf8       ?CallUnexpected@@YAXPBU_s_ESTypeList@@@Z 10012cf8 f   libvcruntime:frame.obj
 0001:00011d18       __catch$?CallUnexpected@@YAXPBU_s_ESTypeList@@@Z$0 10012d18 f   libvcruntime:frame.obj
 0001:00011d32       ?ExFilterRethrow@@YAHPAU_EXCEPTION_POINTERS@@@Z 10012d32 f   libvcruntime:frame.obj
 0001:00011e7c       ?IsInExceptionSpec@@YAEPAUEHExceptionRecord@@PBU_s_ESTypeList@@@Z 10012e7c f   libvcruntime:frame.obj
 0001:00011f50       $$000000                   10012f50     libvcruntime:lowhelpr.obj
 0001:00011fa0       $$000000                   10012fa0     libvcruntime:exsup.obj
 0001:00011fc1       __unwind_handler           10012fc1 f   libvcruntime:exsup.obj
 0001:000120de       ?try_get_first_available_module@@YAPAUHINSTANCE__@@QBW4module_id@?A0x1172487b@@0@Z 100130de f   libvcruntime:winapi_downlevel.obj
 0001:0001218a       ?try_get_function@@YAPAXW4function_id@?A0x1172487b@@QBDQBW4module_id@2@2@Z 1001318a f   libvcruntime:winapi_downlevel.obj
 0001:00012814       ??$common_tcsncpy_s@_W@@YAHQA_WIQB_WI@Z 10013814 f   libucrt:wcsncpy_s.obj
 0001:000128ea       ??$common_vsprintf@Vformat_validation_base@__crt_stdio_output@@_W@@YAH_KQA_WIQB_WQAU__crt_locale_pointers@@QAD@Z 100138ea f   libucrt:output.obj
 0001:00012a71       ??$common_vsprintf_s@_W@@YAH_KQA_WIQB_WQAU__crt_locale_pointers@@QAD@Z 10013a71 f   libucrt:output.obj
 0001:000131a0       $LN51                      100141a0     libucrt:output.obj
 0001:0001369b       $LN20                      1001469b     libucrt:output.obj
 0001:000136af       $LN17                      100146af     libucrt:output.obj
 0001:00013f0e       ??$?RV<lambda_03b1d95aef87969028cfba75ccab2455>@@AAV<lambda_6e4b09c48022b2350581041d5f6b0c4c>@@V<lambda_22bdf7517842c4b3e53723af5aa32b9e>@@@?$__crt_seh_guarded_call@X@@QAEX$$QAV<lambda_03b1d95aef87969028cfba75ccab2455>@@AAV<lambda_6e4b09c48022b2350581041d5f6b0c4c>@@$$QAV<lambda_22bdf7517842c4b3e53723af5aa32b9e>@@@Z 10014f0e f   libucrt:exit.obj
 0001:00013f5b       ??R<lambda_6e4b09c48022b2350581041d5f6b0c4c>@@QBE@XZ 10014f5b f   libucrt:exit.obj
 0001:00014035       ?atexit_exception_filter@@YAHK@Z 10015035 f   libucrt:exit.obj
 0001:00014048       ?common_exit@@YAXHW4_crt_exit_cleanup_mode@@W4_crt_exit_return_mode@@@Z 10015048 f   libucrt:exit.obj
 0001:000140ac       ?exit_or_terminate_process@@YAXI@Z 100150ac f   libucrt:exit.obj
 0001:000140ee       ?is_managed_app@@YA_NXZ    100150ee f   libucrt:exit.obj
 0001:00014131       ?try_cor_exit_process@@YAXI@Z 10015131 f   libucrt:exit.obj
 0001:000141bf       ??$common_configure_argv@D@@YAHW4_crt_argv_mode@@@Z 100151bf f   libucrt:argv_parsing.obj
 0001:000142f5       ??$parse_command_line@D@@YAXPADPAPAD0PAI2@Z 100152f5 f   libucrt:argv_parsing.obj
 0001:000144c6       ??$common_initialize_environment_nolock@D@@YAHXZ 100154c6 f   libucrt:environment_initialization.obj
 0001:00014519       ??$create_environment@D@@YAQAPADQAD@Z 10015519 f   libucrt:environment_initialization.obj
 0001:000145e9       ??$free_environment@D@@YAXQAPAD@Z 100155e9 f   libucrt:environment_initialization.obj
 0001:000145e9       ??$free_environment@_W@@YAXQAPA_W@Z 100155e9 f   libucrt:environment_initialization.obj
 0001:00014641       ??$uninitialize_environment_internal@D@@YAXAAPAPAD@Z 10015641 f   libucrt:environment_initialization.obj
 0001:0001465c       ??$uninitialize_environment_internal@_W@@YAXAAPAPA_W@Z 1001565c f   libucrt:environment_initialization.obj
 0001:000146b3       ??$?RV<lambda_69a2805e680e0e292e8ba93315fe43a8>@@AAV<lambda_f03950bc5685219e0bcd2087efbe011e>@@V<lambda_03fcd07e894ec930e3f35da366ca99d6>@@@?$__crt_seh_guarded_call@H@@QAEH$$QAV<lambda_69a2805e680e0e292e8ba93315fe43a8>@@AAV<lambda_f03950bc5685219e0bcd2087efbe011e>@@$$QAV<lambda_03fcd07e894ec930e3f35da366ca99d6>@@@Z 100156b3 f   libucrt:onexit.obj
 0001:0001470e       ??$?RV<lambda_8e746cf0007f6ed984d6f78af1fec997>@@AAV<lambda_22ebabd17bc4fa466a2aca6d8deb888d>@@V<lambda_18ed0c0b38a6dc0daf1e7ac6d6adf05e>@@@?$__crt_seh_guarded_call@H@@QAEH$$QAV<lambda_8e746cf0007f6ed984d6f78af1fec997>@@AAV<lambda_22ebabd17bc4fa466a2aca6d8deb888d>@@$$QAV<lambda_18ed0c0b38a6dc0daf1e7ac6d6adf05e>@@@Z 1001570e f   libucrt:onexit.obj
 0001:00014788       ??R<lambda_22ebabd17bc4fa466a2aca6d8deb888d>@@QBEHXZ 10015788 f   libucrt:onexit.obj
 0001:000148b1       ??R<lambda_f03950bc5685219e0bcd2087efbe011e>@@QBEHXZ 100158b1 f   libucrt:onexit.obj
 0001:00014a2a       _initialize_environment    10015a2a f   libucrt:initialization.obj
 0001:00014a2a       _initialize_global_state_isolation 10015a2a f   libucrt:initialization.obj
 0001:00014a2a       _report_memory_leaks       10015a2a f   libucrt:initialization.obj
 0001:00014a2a       _uninitialize_c            10015a2a f   libucrt:initialization.obj
 0001:00014a2a       _uninitialize_global_state_isolation 10015a2a f   libucrt:initialization.obj
 0001:00014a2d       _initialize_global_variables 10015a2d f   libucrt:initialization.obj
 0001:00014a3a       _initialize_c              10015a3a f   libucrt:initialization.obj
 0001:00014a54       _uninitialize_environment  10015a54 f   libucrt:initialization.obj
 0001:00014a5c       _initialize_pointers       10015a5c f   libucrt:initialization.obj
 0001:00014a8a       _uninitialize_vcruntime    10015a8a f   libucrt:initialization.obj
 0001:00014a93       _uninitialize_allocated_memory 10015a93 f   libucrt:initialization.obj
 0001:00014aaa       _uninitialize_allocated_io_buffers 10015aaa f   libucrt:initialization.obj
 0001:00014afa       ??R<lambda_af42a3ee9806e9a7305d451646e05244>@@QBEXAAPAU__crt_multibyte_data@@@Z 10015afa f   libucrt:initialization.obj
 0001:000153e0       $$000000                   100163e0     libucrt:strncmp.obj
 0001:000154cc       ??$?RV<lambda_15ade71b0218206bbe3333a0c9b79046>@@AAV<lambda_da44e0f8b0f19ba52fefafb335991732>@@V<lambda_207f2d024fc103971653565357d6cd41>@@@?$__crt_seh_guarded_call@X@@QAEX$$QAV<lambda_15ade71b0218206bbe3333a0c9b79046>@@AAV<lambda_da44e0f8b0f19ba52fefafb335991732>@@$$QAV<lambda_207f2d024fc103971653565357d6cd41>@@@Z 100164cc f   libucrt:per_thread_data.obj
 0001:0001551e       ??$?RV<lambda_38edbb1296d33220d7e4dd0ed76b244a>@@AAV<lambda_5ce1d447e08cb34b2473517608e21441>@@V<lambda_fb385d3da700c9147fc39e65dd577a8c>@@@?$__crt_seh_guarded_call@X@@QAEX$$QAV<lambda_38edbb1296d33220d7e4dd0ed76b244a>@@AAV<lambda_5ce1d447e08cb34b2473517608e21441>@@$$QAV<lambda_fb385d3da700c9147fc39e65dd577a8c>@@@Z 1001651e f   libucrt:per_thread_data.obj
 0001:00015589       ??$?RV<lambda_6affb1475c98b40b75cdec977db92e3c>@@AAV<lambda_b8d4b9c228a6ecc3f80208dbb4b4a104>@@V<lambda_608742c3c92a14382c1684fc64f96c88>@@@?$__crt_seh_guarded_call@X@@QAEX$$QAV<lambda_6affb1475c98b40b75cdec977db92e3c>@@AAV<lambda_b8d4b9c228a6ecc3f80208dbb4b4a104>@@$$QAV<lambda_608742c3c92a14382c1684fc64f96c88>@@@Z 10016589 f   libucrt:per_thread_data.obj
 0001:000155de       ??$?RV<lambda_a7e850c220f1c8d1e6efeecdedd162c6>@@AAV<lambda_46720907175c18b6c9d2717bc0d2d362>@@V<lambda_9048902d66e8d99359bc9897bbb930a8>@@@?$__crt_seh_guarded_call@X@@QAEX$$QAV<lambda_a7e850c220f1c8d1e6efeecdedd162c6>@@AAV<lambda_46720907175c18b6c9d2717bc0d2d362>@@$$QAV<lambda_9048902d66e8d99359bc9897bbb930a8>@@@Z 100165de f   libucrt:per_thread_data.obj
 0001:00015638       ?construct_ptd@@YAXQAU__acrt_ptd@@QAPAU__crt_locale_data@@@Z 10016638 f   libucrt:per_thread_data.obj
 0001:000156d1       ?destroy_fls@@YGXPAX@Z     100166d1 f   libucrt:per_thread_data.obj
 0001:000156f2       ?destroy_ptd@@YAXQAU__acrt_ptd@@@Z 100166f2 f   libucrt:per_thread_data.obj
 0001:000157bf       ?replace_current_thread_locale_nolock@@YAXQAU__acrt_ptd@@QAU__crt_locale_data@@@Z 100167bf f   libucrt:per_thread_data.obj
 0001:00015bcf       ?try_get_AreFileApisANSI@@YAP6GHXZXZ 10016bcf f   libucrt:winapi_thunks.obj
 0001:00015be9       ?try_get_LCMapStringEx@@YAP6GHPB_WK0HPA_WHPAU_nlsversioninfo@@PAXJ@ZXZ 10016be9 f   libucrt:winapi_thunks.obj
 0001:00015c03       ?try_get_LocaleNameToLCID@@YAP6GKPB_WK@ZXZ 10016c03 f   libucrt:winapi_thunks.obj
 0001:00015c1d       ?try_get_first_available_module@@YAPAUHINSTANCE__@@QBW4module_id@?A0x391cf84c@@0@Z 10016c1d f   libucrt:winapi_thunks.obj
 0001:00015ce4       ?try_get_function@@YAPAXW4function_id@?A0x391cf84c@@QBDQBW4module_id@2@2@Z 10016ce4 f   libucrt:winapi_thunks.obj
 0001:00016447       ?fp_format_a@@YAHQBNPADIQADIH_NIQAU__crt_locale_pointers@@@Z 10017447 f   libucrt:cvt.obj
 0001:00016760       ?fp_format_e@@YAHQBNQADI1IH_NIQAU__crt_locale_pointers@@@Z 10017760 f   libucrt:cvt.obj
 0001:00016802       ?fp_format_e_internal@@YAHQADIH_NIQAU_strflt@@1QAU__crt_locale_pointers@@@Z 10017802 f   libucrt:cvt.obj
 0001:0001694a       ?fp_format_f@@YAHQBNQADI1IHQAU__crt_locale_pointers@@@Z 1001794a f   libucrt:cvt.obj
 0001:000169d5       ?fp_format_f_internal@@YAHQADIHQAU_strflt@@_NQAU__crt_locale_pointers@@@Z 100179d5 f   libucrt:cvt.obj
 0001:00016aa6       ?fp_format_g@@YAHQBNQADI1IH_NIQAU__crt_locale_pointers@@@Z 10017aa6 f   libucrt:cvt.obj
 0001:00016b67       ?fp_format_nan_or_infinity@@YAHW4__acrt_fp_class@@_NPADI1@Z 10017b67 f   libucrt:cvt.obj
 0001:00016bfc       ?shift_bytes@@YAXQADI0H@Z  10017bfc f   libucrt:cvt.obj
 0001:00016ee3       ??$?RV<lambda_e5124f882df8998aaf41531e079ba474>@@AAV<lambda_3e16ef9562a7dcce91392c22ab16ea36>@@V<lambda_e25ca0880e6ef98be67edffd8c599615>@@@?$__crt_seh_guarded_call@X@@QAEX$$QAV<lambda_e5124f882df8998aaf41531e079ba474>@@AAV<lambda_3e16ef9562a7dcce91392c22ab16ea36>@@$$QAV<lambda_e25ca0880e6ef98be67edffd8c599615>@@@Z 10017ee3 f   libucrt:wsetlocale.obj
 0001:00016f83       ?initialize_inherited_file_handles_nolock@@YAXXZ 10017f83 f   libucrt:ioinit.obj
 0001:00017039       ?initialize_stdio_handles_nolock@@YAXXZ 10018039 f   libucrt:ioinit.obj
 0001:0001724a       ?<lambda_invoker_cdecl>@<lambda_838c7f62c73c983481e27c09e84b0b5d>@@CAHPBX0@Z 1001824a f   libucrt:argv_wildcards.obj
 0001:00017262       ??$__acrt_convert_wcs_mbs_cp@D_WV<lambda_62f6974d9771e494a5ea317cc32e971c>@@U__crt_win32_buffer_internal_dynamic_resizing@@@@YAHQBDAAV?$__crt_win32_buffer@_WU__crt_win32_buffer_internal_dynamic_resizing@@@@ABV<lambda_62f6974d9771e494a5ea317cc32e971c>@@I@Z 10018262 f   libucrt:argv_wildcards.obj
 0001:00017314       ??$__acrt_convert_wcs_mbs_cp@_WDV<lambda_28bda7af82a03b66c1cb3803a755f95d>@@U__crt_win32_buffer_internal_dynamic_resizing@@@@YAHQB_WAAV?$__crt_win32_buffer@DU__crt_win32_buffer_internal_dynamic_resizing@@@@ABV<lambda_28bda7af82a03b66c1cb3803a755f95d>@@I@Z 10018314 f   libucrt:argv_wildcards.obj
 0001:00017400       ??$common_expand_argv_wildcards@D@@YAHQAPADQAPAPAD@Z 10018400 f   libucrt:argv_wildcards.obj
 0001:000175ef       ??$copy_and_add_argument_to_buffer@D@@YAHQBD0IAAV?$argument_list@D@?A0x5f5c8891@@@Z 100185ef f   libucrt:argv_wildcards.obj
 0001:000176a0       ??$expand_argument_wildcards@D@@YAHQAD0AAV?$argument_list@D@?A0x5f5c8891@@@Z 100186a0 f   libucrt:argv_wildcards.obj
 0001:000179ea       ?expand_if_necessary@?$argument_list@D@?A0x5f5c8891@@AAEHXZ 100189ea f   libucrt:argv_wildcards.obj
 0001:00017a7c       ??$__acrt_convert_wcs_mbs_cp@_WDV<lambda_0fec1a7b3f42a53036604e18c2d5e07e>@@U__crt_win32_buffer_no_resizing@@@@YAHQB_WAAV?$__crt_win32_buffer@DU__crt_win32_buffer_no_resizing@@@@ABV<lambda_0fec1a7b3f42a53036604e18c2d5e07e>@@I@Z 10018a7c f   libucrt:getmodulefilenamea.obj
 0001:00017c1f       ??$?RV<lambda_ceb1ee4838e85a9d631eb091e2fbe199>@@AAV<lambda_ae742caa10f662c28703da3d2ea5e57e>@@V<lambda_cd08b5d6af4937fe54fc07d0c9bf6b37>@@@?$__crt_seh_guarded_call@X@@QAEX$$QAV<lambda_ceb1ee4838e85a9d631eb091e2fbe199>@@AAV<lambda_ae742caa10f662c28703da3d2ea5e57e>@@$$QAV<lambda_cd08b5d6af4937fe54fc07d0c9bf6b37>@@@Z 10018c1f f   libucrt:mbctype.obj
 0001:00017c6c       ??R<lambda_ae742caa10f662c28703da3d2ea5e57e>@@QBEXXZ 10018c6c f   libucrt:mbctype.obj
 0001:00017cef       ?CPtoLocaleName@@YAPB_WH@Z 10018cef f   libucrt:mbctype.obj
 0001:00017d2d       ?getSystemCP@@YAHH@Z       10018d2d f   libucrt:mbctype.obj
 0001:00017d9e       ?setSBCS@@YAXPAU__crt_multibyte_data@@@Z 10018d9e f   libucrt:mbctype.obj
 0001:00017e03       ?setSBUpLow@@YAXPAU__crt_multibyte_data@@@Z 10018e03 f   libucrt:mbctype.obj
 0001:00017f84       ?setmbcp_internal@@YAHH_NQAU__acrt_ptd@@QAPAU__crt_multibyte_data@@@Z 10018f84 f   libucrt:mbctype.obj
 0001:0001809d       ?update_thread_multibyte_data_internal@@YAPAU__crt_multibyte_data@@QAU__acrt_ptd@@QAPAU1@@Z 1001909d f   libucrt:mbctype.obj
 0001:0001838b       _memcpy_s                  1001938b f   libucrt:cfout.obj
 0001:0001838b       _memcpy_s                  1001938b f   libucrt:mbctype.obj
 0001:0001840c       ?x_ismbbtype_l@@YAHPAU__crt_locale_pointers@@IHH@Z 1001940c f   libucrt:ismbbyte.obj
 0001:000185bd       ?find_end_of_double_null_terminated_sequence@@YAPB_WQB_W@Z 100195bd f   libucrt:get_environment_from_os.obj
 0001:0001872c       ??$?RV<lambda_cbab9ec6f41b0180b23cc171c22676b0>@@AAV<lambda_44731a7d0e6d81c3e6aa82d741081786>@@V<lambda_4b292cb8dd18144e164572427af410ab>@@@?$__crt_seh_guarded_call@P6AXH@Z@@QAEP6AXH@Z$$QAV<lambda_cbab9ec6f41b0180b23cc171c22676b0>@@AAV<lambda_44731a7d0e6d81c3e6aa82d741081786>@@$$QAV<lambda_4b292cb8dd18144e164572427af410ab>@@@Z 1001972c f   libucrt:signal.obj
 0001:00018790       ?get_global_action_nolock@@YAPAP6AXH@ZH@Z 10019790 f   libucrt:signal.obj
 0001:000187d2       ?siglookup@@YAPAU__crt_signal_action_t@@HQAU1@@Z 100197d2 f   libucrt:signal.obj
 0001:00018a9c       ??$?RV<lambda_2866be3712abc81a800a822484c830d8>@@AAV<lambda_39ca0ed439415581b5b15c265174cece>@@V<lambda_2b24c74d71094a6cd0cb82e44167d71b>@@@?$__crt_seh_guarded_call@X@@QAEX$$QAV<lambda_2866be3712abc81a800a822484c830d8>@@AAV<lambda_39ca0ed439415581b5b15c265174cece>@@$$QAV<lambda_2b24c74d71094a6cd0cb82e44167d71b>@@@Z 10019a9c f   libucrt:fflush.obj
 0001:00018b28       ??$?RV<lambda_2cc53f568c5a2bb6f192f930a45d44ea>@@AAV<lambda_ab61a845afdef5b7c387490eaf3616ee>@@V<lambda_c2ffc0b7726aa6be21d5f0026187e748>@@@?$__crt_seh_guarded_call@X@@QAEX$$QAV<lambda_2cc53f568c5a2bb6f192f930a45d44ea>@@AAV<lambda_ab61a845afdef5b7c387490eaf3616ee>@@$$QAV<lambda_c2ffc0b7726aa6be21d5f0026187e748>@@@Z 10019b28 f   libucrt:fflush.obj
 0001:00018bd4       ?common_flush_all@@YAH_N@Z 10019bd4 f   libucrt:fflush.obj
 0001:00018c21       ?common_flush_all_should_try_to_flush_stream@@YA_NV__crt_stdio_stream@@QAH@Z 10019c21 f   libucrt:fflush.obj
 0001:00018c54       ?is_stream_flushable_or_commitable@@YA_NJ@Z 10019c54 f   libucrt:fflush.obj
 0001:0001915d       ?GetTableIndexFromLocaleName@@YAHPB_W@Z 1001a15d f   libucrt:lcidtoname_downlevel.obj
 0001:00019213       ??R<lambda_3d301b9e52f5099be73030e1f0bf487e>@@QBEIPBD@Z 1001a213 f   libucrt:mbrtowc.obj
 0001:0001aeea       ?free_crt_array_internal@@YAXQAPBXI@Z 1001beea f   libucrt:inittime.obj
 0001:0001b3c0       ?swap@@YAXPAD0I@Z          1001c3c0 f   libucrt:qsort.obj
 0001:0001b844       ??$common_tcsncpy_s@D@@YAHQADIQBDI@Z 1001c844 f   libucrt:strncpy_s.obj
 0001:0001b910       $$000000                   1001c910     libucrt:strpbrk.obj
 0001:0001b9f4       ?__acrt_LCMapStringA_stat@@YAHPAU__crt_locale_pointers@@PB_WKPBDHPADHHH@Z 1001c9f4 f   libucrt:lcmapstringa.obj
 0001:0001bc27       ?initialize_multibyte@@YAHXZ 1001cc27 f   libucrt:multibyte_initializer.obj
 0001:0001bc36       ??$?RV<lambda_9e9de3de5fa147e2223d7db92bc10aa6>@@AAV<lambda_38ce7e780aa69e748d6df282ebc68efe>@@V<lambda_8ca6da459f0f6780f1cff60fdc3d00e5>@@@?$__crt_seh_guarded_call@H@@QAEH$$QAV<lambda_9e9de3de5fa147e2223d7db92bc10aa6>@@AAV<lambda_38ce7e780aa69e748d6df282ebc68efe>@@$$QAV<lambda_8ca6da459f0f6780f1cff60fdc3d00e5>@@@Z 1001cc36 f   libucrt:commit.obj
 0001:0001bd55       ?write_double_translated_ansi_nolock@@YA?AUwrite_result@?A0x17268360@@HQBDI@Z 1001cd55 f   libucrt:write.obj
 0001:0001c0ff       ?write_double_translated_unicode_nolock@@YA?AUwrite_result@?A0x17268360@@QBDI@Z 1001d0ff f   libucrt:write.obj
 0001:0001c167       ?write_requires_double_translation_nolock@@YA_NH@Z 1001d167 f   libucrt:write.obj
 0001:0001c1d8       ?write_text_ansi_nolock@@YA?AUwrite_result@?A0x17268360@@HQBDI@Z 1001d1d8 f   libucrt:write.obj
 0001:0001c2b3       ?write_text_utf16le_nolock@@YA?AUwrite_result@?A0x17268360@@HQBDI@Z 1001d2b3 f   libucrt:write.obj
 0001:0001c39c       ?write_text_utf8_nolock@@YA?AUwrite_result@?A0x17268360@@HQBDI@Z 1001d39c f   libucrt:write.obj
 0001:0001ca70       $$000000                   1001da70     libucrt:log10_impl.obj
 0001:0001cb80       $$000000                   1001db80     libucrt:ceil_pentium4.obj
 0001:0001cc9d       ??$common_lseek_nolock@_J@@YA_JH_JH@Z 1001dc9d f   libucrt:lseek.obj
 0001:0001ce83       ?to_abstract_control@@YA?AW4__acrt_fenv_abstract_control@@W4__acrt_fenv_machine_sse_control@@@Z 1001de83 f   libucrt:_fenvutils.obj
 0001:0001cf3f       ?to_abstract_control@@YA?AW4__acrt_fenv_abstract_control@@W4__acrt_fenv_machine_x87_control@@@Z 1001df3f f   libucrt:_fenvutils.obj
 0001:0001cff8       ?to_machine_sse_control@@YA?AW4__acrt_fenv_machine_sse_control@@W4__acrt_fenv_abstract_control@@@Z 1001dff8 f   libucrt:_fenvutils.obj
 0001:0001d0c5       ?to_machine_x87_control@@YA?AW4__acrt_fenv_machine_x87_control@@W4__acrt_fenv_abstract_control@@@Z 1001e0c5 f   libucrt:_fenvutils.obj
 0001:0001d520       $$000000                   1001e520     libucrt:log10_pentium4.obj
 0001:0001d7b0       $$000000                   1001e7b0     libucrt:87tran.obj
 0001:0001d9c0       $$000000                   1001e9c0     libucrt:87disp.obj
 0001:0001dc20       $$000000                   1001ec20     libucrt:common.obj
 0001:0001ddb0       $$000000                   1001edb0     libucrt:genexcep.obj
 0001:0001e0ac       ??$?RV<lambda_218ce3db14220d0be481dae8ef3383b6>@@AAV<lambda_628dfdc04ba53c8bfc02c9951375f3f5>@@V<lambda_57dc472bd5c9d5f3b2cbca59b8a843ae>@@@?$__crt_seh_guarded_call@H@@QAEH$$QAV<lambda_218ce3db14220d0be481dae8ef3383b6>@@AAV<lambda_628dfdc04ba53c8bfc02c9951375f3f5>@@$$QAV<lambda_57dc472bd5c9d5f3b2cbca59b8a843ae>@@@Z 1001f0ac f   libucrt:close.obj
 0001:0001e2a0       $$000000                   1001f2a0     libucrt:_strnicm.obj
 0001:0001e301       ?__dcrt_lowio_initialize_console_output@@YAXXZ 1001f301 f   libucrt:initcon.obj
 0001:0001f160       $$000000                   10020160     LIBCMT:ulldvrm.obj
 0001:0001f200       $$000000                   10020200     LIBCMT:llmul.obj
 0001:0001f240       $$000000                   10020240     LIBCMT:lldvrm.obj
 0001:0001f320       $$000000                   10020320     LIBCMT:ullshr.obj
 0001:0001f340       $$000000                   10020340     LIBCMT:llshl.obj
 0001:0001f360       $$000000                   10020360     LIBCMT:ftol2.obj
 0001:0001f600       $$000000                   10020600     libvcruntime:strrchr.obj
 0001:0001f740       $$000000                   10020740     libvcruntime:strchr.obj
 0001:0001f8e3       __ehhandler$??2@YAPAXIABUnothrow_t@std@@@Z 100208e3 f   LIBCMT:new_scalar_nothrow.obj
 0001:0001f8fe       __ehhandler$?CallUnexpected@@YAXPBU_s_ESTypeList@@@Z 100208fe f   libvcruntime:frame.obj
 0001:0001f919       ??__F_AtlComModule@ATL@@YAXXZ 10020919 f   OposVariant.obj
 0001:0001f923       ??__F_AtlWinModule@ATL@@YAXXZ 10020923 f   OposVariant.obj
 0001:0001f93d       ??__F_Module@@YAXXZ        1002093d f   ElectronicValueRW.obj
 0001:0001f951       ??__F_AtlBaseModule@ATL@@YAXXZ 10020951 f   atls:atlbase.obj
 0002:00000304       ?_AtlBaseModule$initializer$@ATL@@3P6AXXZA 10021304     atls:atlbase.obj
 0002:00000308       ?_AtlComModule$initializer$@ATL@@3P6AXXZA 10021308     OposVariant.obj
 0002:0000030c       ?_AtlWinModule$initializer$@ATL@@3P6AXXZA 1002130c     OposVariant.obj
 0002:00000310       ?_Module$initializer$@@3P6AXXZA 10021310     ElectronicValueRW.obj
 0002:00000314       ??pConnMap$initializer$@?$IConnectionPointContainerImpl@VCOPOSElectronicValueRW@@@ATL@@0P6AXXZA@@3P6AXXZA 10021314     ElectronicValueRW.obj
 0002:00000320       ?__scrt_initialize_tss_var@@3P6AHXZA 10021320     LIBCMT:thread_safe_statics.obj
 0002:00001fb0       _GS_ExceptionPointers      10022fb0     LIBCMT:gs_report.obj
 0002:00002140       ?tokenTable@@3QBUStringLiteral@@B 10023140     libvcruntime:undname.obj
 0002:000021c0       ?nameTable@@3QBUStringLiteral@@B 100231c0     libvcruntime:undname.obj
 0002:00002458       ?rttiTable@@3QBUStringLiteral@@B 10023458     libvcruntime:undname.obj
 0002:00002480       ?IndirectionName@@3QBUStringLiteral@@B 10023480     libvcruntime:undname.obj
 0002:000024b0       ?PrefixName@@3QBUStringLiteral@@B 100234b0     libvcruntime:undname.obj
 0002:00002ae0       ?module_names@?A0x1172487b@@3QBQB_WB 10023ae0     libvcruntime:winapi_downlevel.obj
 0002:00002b88       ?candidate_modules@?1??try_get_FlsAlloc@@YAP6GKP6GXPAX@Z@ZXZ@4QBW4module_id@?A0x1172487b@@B 10023b88     libvcruntime:winapi_downlevel.obj
 0002:00002b9c       ?candidate_modules@?1??try_get_FlsFree@@YAP6GHK@ZXZ@4QBW4module_id@?A0x1172487b@@B 10023b9c     libvcruntime:winapi_downlevel.obj
 0002:00002bac       ?candidate_modules@?1??try_get_FlsGetValue@@YAP6GPAXK@ZXZ@4QBW4module_id@?A0x1172487b@@B 10023bac     libvcruntime:winapi_downlevel.obj
 0002:00002bc0       ?candidate_modules@?1??try_get_FlsSetValue@@YAP6GHKPAX@ZXZ@4QBW4module_id@?A0x1172487b@@B 10023bc0     libvcruntime:winapi_downlevel.obj
 0002:00002bd4       ?candidate_modules@?1??try_get_InitializeCriticalSectionEx@@YAP6GHPAU_RTL_CRITICAL_SECTION@@KK@ZXZ@4QBW4module_id@?A0x1172487b@@B 10023bd4     libvcruntime:winapi_downlevel.obj
 0002:00002bf8       ?errtable@@3QBUerrentry@?A0x31fdb9ec@@B 10023bf8     libucrt:errno.obj
 0002:00002ea0       ___acrt_initializers       10023ea0     libucrt:initialization.obj
 0002:00002f20       ?module_names@?A0x391cf84c@@3QBQB_WB 10023f20     libucrt:winapi_thunks.obj
 0002:00003398       ?candidate_modules@?1??try_get_AreFileApisANSI@@YAP6GHXZXZ@4QBW4module_id@?A0x391cf84c@@B 10024398     libucrt:winapi_thunks.obj
 0002:000033ac       ?candidate_modules@?1??try_get_FlsAlloc@@YAP6GKP6GXPAX@Z@ZXZ@4QBW4module_id@?A0x391cf84c@@B 100243ac     libucrt:winapi_thunks.obj
 0002:000033b4       ?candidate_modules@?1??try_get_FlsFree@@YAP6GHK@ZXZ@4QBW4module_id@?A0x391cf84c@@B 100243b4     libucrt:winapi_thunks.obj
 0002:000033bc       ?candidate_modules@?1??try_get_FlsGetValue@@YAP6GPAXK@ZXZ@4QBW4module_id@?A0x391cf84c@@B 100243bc     libucrt:winapi_thunks.obj
 0002:000033c4       ?candidate_modules@?1??try_get_FlsSetValue@@YAP6GHKPAX@ZXZ@4QBW4module_id@?A0x391cf84c@@B 100243c4     libucrt:winapi_thunks.obj
 0002:000033cc       ?candidate_modules@?1??try_get_InitializeCriticalSectionEx@@YAP6GHPAU_RTL_CRITICAL_SECTION@@KK@ZXZ@4QBW4module_id@?A0x391cf84c@@B 100243cc     libucrt:winapi_thunks.obj
 0002:000033d4       ?candidate_modules@?1??try_get_LCMapStringEx@@YAP6GHPB_WK0HPA_WHPAU_nlsversioninfo@@PAXJ@ZXZ@4QBW4module_id@?A0x391cf84c@@B 100243d4     libucrt:winapi_thunks.obj
 0002:000033ec       ?candidate_modules@?1??try_get_LocaleNameToLCID@@YAP6GKPB_WK@ZXZ@4QBW4module_id@?A0x391cf84c@@B 100243ec     libucrt:winapi_thunks.obj
 0002:00003408       ?candidate_modules@?1??try_get_AppPolicyGetProcessTerminationMethod@@YAP6GJPAXPAW4AppPolicyProcessTerminationMethod@@@ZXZ@4QBW4module_id@?A0x391cf84c@@B 10024408     libucrt:winapi_thunks.obj
 0002:00003434       ?candidate_modules@?1??try_get_SetThreadStackGuarantee@@YAP6GHPAK@ZXZ@4QBW4module_id@?A0x391cf84c@@B 10024434     libucrt:winapi_thunks.obj
 0002:00003458       ?strings@?1??fp_format_nan_or_infinity@@YAHW4__acrt_fp_class@@_NPADI1@Z@4QAY03QBDA 10024458     libucrt:cvt.obj
 0002:000039a0       ?_mb_locale_names@@3QBQB_WB 100249a0     libucrt:mbctype.obj
 0002:000041e8       ?LcidToLocaleNameTable@?A0x881e4c05@@3QBULcidToLocaleName@1@B 100251e8     libucrt:lcidtoname_downlevel.obj
 0002:00005310       ?LocaleNameToIndexTable@?A0x881e4c05@@3QBULocaleNameIndex@1@B 10026310     libucrt:lcidtoname_downlevel.obj
 0002:00006b68       ?large_power_indices@?1??multiply_by_power_of_ten@__crt_strtox@@YA_NAAUbig_integer@2@I@Z@4QBUunpack_index@?1??12@YA_N0I@Z@B 10027b68     libucrt:cfout.obj
 0002:00006c50       LOG_name                   10027c50     libucrt:log10_impl.obj
 0002:00006c60       _One                       10027c60     libucrt:ceil_pentium4.obj
 0002:00006c70       _Bns                       10027c70     libucrt:ceil_pentium4.obj
 0002:00006c80       _Zero                      10027c80     libucrt:ceil_pentium4.obj
 0002:00006c90       _S                         10027c90     libucrt:ceil_pentium4.obj
 0002:00006ca0       _NegZero                   10027ca0     libucrt:ceil_pentium4.obj
 0002:00006cb0       emask                      10027cb0     libucrt:log10_pentium4.obj
 0002:00006cc0       CC                         10027cc0     libucrt:log10_pentium4.obj
 0002:00006cd0       Magic                      10027cd0     libucrt:log10_pentium4.obj
 0002:00006ce0       hi_mask                    10027ce0     libucrt:log10_pentium4.obj
 0002:00006cf0       LOG10_2                    10027cf0     libucrt:log10_pentium4.obj
 0002:00006d00       place_L                    10027d00     libucrt:log10_pentium4.obj
 0002:00006d20       One                        10027d20     libucrt:log10_pentium4.obj
 0002:00006d30       Zero                       10027d30     libucrt:log10_pentium4.obj
 0002:00006d40       Two52                      10027d40     libucrt:log10_pentium4.obj
 0002:00006d50       Infs                       10027d50     libucrt:log10_pentium4.obj
 0002:00006d60       NaN                        10027d60     libucrt:log10_pentium4.obj
 0002:00006d70       coeff                      10027d70     libucrt:log10_pentium4.obj
 0002:00006dce       _log2max                   10027dce     libucrt:87tran.obj
 0002:00006dd8       _smallarg                  10027dd8     libucrt:87tran.obj
 0002:00006de2       _half                      10027de2     libucrt:87tran.obj
 0002:00006e2e       One                        10027e2e     libucrt:87disp.obj
 0002:00006e36       Three                      10027e36     libucrt:87disp.obj
 0002:00006e3e       XAMtoTagTab                10027e3e     libucrt:87disp.obj
 0002:00006e50       One                        10027e50     libucrt:common.obj
 0002:00006e64       DblMax                     10027e64     libucrt:common.obj
 0002:00006e6c       DblMin                     10027e6c     libucrt:common.obj
 0002:00006e74       IeeeAdjO                   10027e74     libucrt:common.obj
 0002:00006e7c       IeeeAdjU                   10027e7c     libucrt:common.obj
 0002:00006e84       _infinity                  10027e84     libucrt:common.obj
 0002:00006e8c       _zero                      10027e8c     libucrt:common.obj
 0002:00006ed8       _over                      10027ed8     libucrt:fpctrl.obj
 0002:00006ee4       _under                     10027ee4     libucrt:fpctrl.obj
 0002:00007718       ?_names@?1??_get_fname@@9@9 10028718     libucrt:fpexcept.obj
 0002:000078c0       two32                      100288c0     LIBCMT:ftol2.obj
 0002:000078c4       two63                      100288c4     LIBCMT:ftol2.obj
 0002:000078c8       _NaN                       100288c8     LIBCMT:ftol2.obj
 0002:00007f80       __sehtable$?_AtlVerifyStackAvailable@_ATL_SAFE_ALLOCA_IMPL@ATL@@YA_NK@Z 10028f80     ElectronicValueRW.obj
 0002:00007fa0       __sehtable$___scrt_is_nonwritable_in_current_image 10028fa0     LIBCMT:utility.obj
 0002:00007fbc       __catchsym$??2@YAPAXIABUnothrow_t@std@@@Z$2 10028fbc     LIBCMT:new_scalar_nothrow.obj
 0002:00007fcc       __unwindtable$??2@YAPAXIABUnothrow_t@std@@@Z 10028fcc     LIBCMT:new_scalar_nothrow.obj
 0002:00007fdc       __tryblocktable$??2@YAPAXIABUnothrow_t@std@@@Z 10028fdc     LIBCMT:new_scalar_nothrow.obj
 0002:00007ff0       __ehfuncinfo$??2@YAPAXIABUnothrow_t@std@@@Z 10028ff0     LIBCMT:new_scalar_nothrow.obj
 0002:00008018       __sehtable$?dllmain_crt_process_attach@@YAHQAUHINSTANCE__@@QAX@Z 10029018     LIBCMT:dll_dllmain.obj
 0002:00008038       __sehtable$?dllmain_crt_process_detach@@YAH_N@Z 10029038     LIBCMT:dll_dllmain.obj
 0002:00008060       __sehtable$?dllmain_dispatch@@YAHQAUHINSTANCE__@@KQAX@Z 10029060     LIBCMT:dll_dllmain.obj
 0002:00008110       __sehtable$___DestructExceptionObject 10029110     libvcruntime:ehhelpers.obj
 0002:00008130       __sehtable$?FrameUnwindToState@__FrameHandler3@@SAXPAUEHRegistrationNode@@PAXPBU_s_FuncInfo@@H@Z 10029130     libvcruntime:frame.obj
 0002:00008158       __sehtable$?CallCatchBlock@@YAPAXPAUEHExceptionRecord@@PAUEHRegistrationNode@@PAU_CONTEXT@@PBU_s_FuncInfo@@PAXHK@Z 10029158     libvcruntime:frame.obj
 0002:00008180       __catchsym$?CallUnexpected@@YAXPBU_s_ESTypeList@@@Z$2 10029180     libvcruntime:frame.obj
 0002:00008190       __unwindtable$?CallUnexpected@@YAXPBU_s_ESTypeList@@@Z 10029190     libvcruntime:frame.obj
 0002:000081a0       __tryblocktable$?CallUnexpected@@YAXPBU_s_ESTypeList@@@Z 100291a0     libvcruntime:frame.obj
 0002:000081b4       __ehfuncinfo$?CallUnexpected@@YAXPBU_s_ESTypeList@@@Z 100291b4     libvcruntime:frame.obj
 0002:000081d8       __sehtable$??$BuildCatchObjectHelperInternal@V__FrameHandler3@@@@YAHPAUEHExceptionRecord@@PAXPBU_s_HandlerType@@PBU_s_CatchableType@@@Z 100291d8     libvcruntime:frame.obj
 0002:000081f8       __sehtable$??$BuildCatchObjectInternal@V__FrameHandler3@@@@YAXPAUEHExceptionRecord@@PAXPBU_s_HandlerType@@PBU_s_CatchableType@@@Z 100291f8     libvcruntime:frame.obj
 0002:00008250       __sehtable$??R<lambda_6e4b09c48022b2350581041d5f6b0c4c>@@QBE@XZ 10029250     libucrt:exit.obj
 0002:00008270       __sehtable$??$?RV<lambda_03b1d95aef87969028cfba75ccab2455>@@AAV<lambda_6e4b09c48022b2350581041d5f6b0c4c>@@V<lambda_22bdf7517842c4b3e53723af5aa32b9e>@@@?$__crt_seh_guarded_call@X@@QAEX$$QAV<lambda_03b1d95aef87969028cfba75ccab2455>@@AAV<lambda_6e4b09c48022b2350581041d5f6b0c4c>@@$$QAV<lambda_22bdf7517842c4b3e53723af5aa32b9e>@@@Z 10029270     libucrt:exit.obj
 0002:00008290       __sehtable$??$?RV<lambda_8e746cf0007f6ed984d6f78af1fec997>@@AAV<lambda_22ebabd17bc4fa466a2aca6d8deb888d>@@V<lambda_18ed0c0b38a6dc0daf1e7ac6d6adf05e>@@@?$__crt_seh_guarded_call@H@@QAEH$$QAV<lambda_8e746cf0007f6ed984d6f78af1fec997>@@AAV<lambda_22ebabd17bc4fa466a2aca6d8deb888d>@@$$QAV<lambda_18ed0c0b38a6dc0daf1e7ac6d6adf05e>@@@Z 10029290     libucrt:onexit.obj
 0002:000082b0       __sehtable$??$?RV<lambda_69a2805e680e0e292e8ba93315fe43a8>@@AAV<lambda_f03950bc5685219e0bcd2087efbe011e>@@V<lambda_03fcd07e894ec930e3f35da366ca99d6>@@@?$__crt_seh_guarded_call@H@@QAEH$$QAV<lambda_69a2805e680e0e292e8ba93315fe43a8>@@AAV<lambda_f03950bc5685219e0bcd2087efbe011e>@@$$QAV<lambda_03fcd07e894ec930e3f35da366ca99d6>@@@Z 100292b0     libucrt:onexit.obj
 0002:000082d0       __sehtable$__query_new_handler 100292d0     libucrt:new_handler.obj
 0002:000082f0       __sehtable$_terminate      100292f0     libucrt:terminate.obj
 0002:00008310       __sehtable$??$?RV<lambda_15ade71b0218206bbe3333a0c9b79046>@@AAV<lambda_da44e0f8b0f19ba52fefafb335991732>@@V<lambda_207f2d024fc103971653565357d6cd41>@@@?$__crt_seh_guarded_call@X@@QAEX$$QAV<lambda_15ade71b0218206bbe3333a0c9b79046>@@AAV<lambda_da44e0f8b0f19ba52fefafb335991732>@@$$QAV<lambda_207f2d024fc103971653565357d6cd41>@@@Z 10029310     libucrt:per_thread_data.obj
 0002:00008330       __sehtable$??$?RV<lambda_a7e850c220f1c8d1e6efeecdedd162c6>@@AAV<lambda_46720907175c18b6c9d2717bc0d2d362>@@V<lambda_9048902d66e8d99359bc9897bbb930a8>@@@?$__crt_seh_guarded_call@X@@QAEX$$QAV<lambda_a7e850c220f1c8d1e6efeecdedd162c6>@@AAV<lambda_46720907175c18b6c9d2717bc0d2d362>@@$$QAV<lambda_9048902d66e8d99359bc9897bbb930a8>@@@Z 10029330     libucrt:per_thread_data.obj
 0002:00008350       __sehtable$??$?RV<lambda_38edbb1296d33220d7e4dd0ed76b244a>@@AAV<lambda_5ce1d447e08cb34b2473517608e21441>@@V<lambda_fb385d3da700c9147fc39e65dd577a8c>@@@?$__crt_seh_guarded_call@X@@QAEX$$QAV<lambda_38edbb1296d33220d7e4dd0ed76b244a>@@AAV<lambda_5ce1d447e08cb34b2473517608e21441>@@$$QAV<lambda_fb385d3da700c9147fc39e65dd577a8c>@@@Z 10029350     libucrt:per_thread_data.obj
 0002:00008370       __sehtable$??$?RV<lambda_6affb1475c98b40b75cdec977db92e3c>@@AAV<lambda_b8d4b9c228a6ecc3f80208dbb4b4a104>@@V<lambda_608742c3c92a14382c1684fc64f96c88>@@@?$__crt_seh_guarded_call@X@@QAEX$$QAV<lambda_6affb1475c98b40b75cdec977db92e3c>@@AAV<lambda_b8d4b9c228a6ecc3f80208dbb4b4a104>@@$$QAV<lambda_608742c3c92a14382c1684fc64f96c88>@@@Z 10029370     libucrt:per_thread_data.obj
 0002:00008390       __sehtable$??$?RV<lambda_e5124f882df8998aaf41531e079ba474>@@AAV<lambda_3e16ef9562a7dcce91392c22ab16ea36>@@V<lambda_e25ca0880e6ef98be67edffd8c599615>@@@?$__crt_seh_guarded_call@X@@QAEX$$QAV<lambda_e5124f882df8998aaf41531e079ba474>@@AAV<lambda_3e16ef9562a7dcce91392c22ab16ea36>@@$$QAV<lambda_e25ca0880e6ef98be67edffd8c599615>@@@Z 10029390     libucrt:wsetlocale.obj
 0002:000083b0       __sehtable$___acrt_initialize_lowio 100293b0     libucrt:ioinit.obj
 0002:000083d0       __sehtable$?update_thread_multibyte_data_internal@@YAPAU__crt_multibyte_data@@QAU__acrt_ptd@@QAPAU1@@Z 100293d0     libucrt:mbctype.obj
 0002:000083f0       __sehtable$??$?RV<lambda_ceb1ee4838e85a9d631eb091e2fbe199>@@AAV<lambda_ae742caa10f662c28703da3d2ea5e57e>@@V<lambda_cd08b5d6af4937fe54fc07d0c9bf6b37>@@@?$__crt_seh_guarded_call@X@@QAEX$$QAV<lambda_ceb1ee4838e85a9d631eb091e2fbe199>@@AAV<lambda_ae742caa10f662c28703da3d2ea5e57e>@@$$QAV<lambda_cd08b5d6af4937fe54fc07d0c9bf6b37>@@@Z 100293f0     libucrt:mbctype.obj
 0002:00008410       __sehtable$_raise          10029410     libucrt:signal.obj
 0002:00008430       __sehtable$??$?RV<lambda_cbab9ec6f41b0180b23cc171c22676b0>@@AAV<lambda_44731a7d0e6d81c3e6aa82d741081786>@@V<lambda_4b292cb8dd18144e164572427af410ab>@@@?$__crt_seh_guarded_call@P6AXH@Z@@QAEP6AXH@Z$$QAV<lambda_cbab9ec6f41b0180b23cc171c22676b0>@@AAV<lambda_44731a7d0e6d81c3e6aa82d741081786>@@$$QAV<lambda_4b292cb8dd18144e164572427af410ab>@@@Z 10029430     libucrt:signal.obj
 0002:00008450       __sehtable$??$?RV<lambda_2866be3712abc81a800a822484c830d8>@@AAV<lambda_39ca0ed439415581b5b15c265174cece>@@V<lambda_2b24c74d71094a6cd0cb82e44167d71b>@@@?$__crt_seh_guarded_call@X@@QAEX$$QAV<lambda_2866be3712abc81a800a822484c830d8>@@AAV<lambda_39ca0ed439415581b5b15c265174cece>@@$$QAV<lambda_2b24c74d71094a6cd0cb82e44167d71b>@@@Z 10029450     libucrt:fflush.obj
 0002:00008470       __sehtable$??$?RV<lambda_2cc53f568c5a2bb6f192f930a45d44ea>@@AAV<lambda_ab61a845afdef5b7c387490eaf3616ee>@@V<lambda_c2ffc0b7726aa6be21d5f0026187e748>@@@?$__crt_seh_guarded_call@X@@QAEX$$QAV<lambda_2cc53f568c5a2bb6f192f930a45d44ea>@@AAV<lambda_ab61a845afdef5b7c387490eaf3616ee>@@$$QAV<lambda_c2ffc0b7726aa6be21d5f0026187e748>@@@Z 10029470     libucrt:fflush.obj
 0002:00008490       __sehtable$___acrt_update_thread_locale_data 10029490     libucrt:locale_refcounting.obj
 0002:000084b0       __sehtable$__fcloseall     100294b0     libucrt:closeall.obj
 0002:000084d0       __sehtable$___acrt_lowio_ensure_fh_exists 100294d0     libucrt:osfinfo.obj
 0002:000084f0       __sehtable$??$?RV<lambda_9e9de3de5fa147e2223d7db92bc10aa6>@@AAV<lambda_38ce7e780aa69e748d6df282ebc68efe>@@V<lambda_8ca6da459f0f6780f1cff60fdc3d00e5>@@@?$__crt_seh_guarded_call@H@@QAEH$$QAV<lambda_9e9de3de5fa147e2223d7db92bc10aa6>@@AAV<lambda_38ce7e780aa69e748d6df282ebc68efe>@@$$QAV<lambda_8ca6da459f0f6780f1cff60fdc3d00e5>@@@Z 100294f0     libucrt:commit.obj
 0002:00008510       __sehtable$__write         10029510     libucrt:write.obj
 0002:00008530       __sehtable$_fclose         10029530     libucrt:fclose.obj
 0002:00008550       __sehtable$??$?RV<lambda_218ce3db14220d0be481dae8ef3383b6>@@AAV<lambda_628dfdc04ba53c8bfc02c9951375f3f5>@@V<lambda_57dc472bd5c9d5f3b2cbca59b8a843ae>@@@?$__crt_seh_guarded_call@H@@QAEH$$QAV<lambda_218ce3db14220d0be481dae8ef3383b6>@@AAV<lambda_628dfdc04ba53c8bfc02c9951375f3f5>@@$$QAV<lambda_57dc472bd5c9d5f3b2cbca59b8a843ae>@@@Z 10029550     libucrt:close.obj
 0002:00008570       __sehtable$__IsNonwritableInCurrentImage 10029570     LIBCMT:pesect.obj
 0002:000085a0       .edata                     100295a0     OPOSElectronicValueRW.exp
 0002:000085c8       rgpv                       100295c8     OPOSElectronicValueRW.exp
 0002:000085d8       rgszName                   100295d8     OPOSElectronicValueRW.exp
 0002:000085e8       rgwOrd                     100295e8     OPOSElectronicValueRW.exp
 0002:000085f0       szName                     100295f0     OPOSElectronicValueRW.exp
 0002:0000860a       $N00001                    1002960a     OPOSElectronicValueRW.exp
 0002:0000861a       $N00002                    1002961a     OPOSElectronicValueRW.exp
 0002:0000862c       $N00003                    1002962c     OPOSElectronicValueRW.exp
 0002:0000863e       $N00004                    1002963e     OPOSElectronicValueRW.exp
 0002:00008c4e       .idata$6                   10029c4e     kernel32:KERNEL32.dll
 0002:00008e62       .idata$6                   10029e62     user32:USER32.dll
 0002:00008f96       .idata$6                   10029f96     gdi32:GDI32.dll
 0002:0000903c       .idata$6                   1002a03c     advapi32:ADVAPI32.dll
 0002:00009158       .idata$6                   1002a158     ole32:ole32.dll
 0002:00009162       .idata$6                   1002a162     oleaut32:OLEAUT32.dll
 0003:00000110       ?ObjectMap@@3PAU_ATL_OBJMAP_ENTRY30@ATL@@A 1002b110     ElectronicValueRW.obj
 0003:000001e8       ?s_SOMethodNames@@3PAPADA  1002b1e8     ElectronicValueRWImpl.obj
 0003:000002f4       ?s_RequiredMethodsPerRelease@@3PAHA 1002b2f4     ElectronicValueRWImpl.obj
 0003:00000320       ?__vcrt_flsindex@@3KA      1002b320     libvcruntime:per_thread_data.obj
 0003:00000340       ?errno_no_memory@@3HA      1002b340     libucrt:errno.obj
 0003:00000344       ?doserrno_no_memory@@3KA   1002b344     libucrt:errno.obj
 0003:00000350       ?__acrt_flsindex@@3KA      1002b350     libucrt:per_thread_data.obj
 0003:000006e8       __mbctypes                 1002b6e8     libucrt:mbctype.obj
 0003:000007f0       __mbcasemaps               1002b7f0     libucrt:mbctype.obj
 0003:000008f0       ?__rgctypeflag@@3PADA      1002b8f0     libucrt:mbctype.obj
 0003:000008f8       ?__rgcode_page_info@@3PAUcode_page_info@@A 1002b8f8     libucrt:mbctype.obj
 0003:00000b50       ?__dcrt_lowio_console_output_handle@@3PAXA 1002bb50     libucrt:initcon.obj
 0003:00000ce8       ?is_initialized_as_dll@@3_NA 1002bce8     LIBCMT:utility.obj
 0003:00000ce9       ?module_local_atexit_table_initialized@@3_NA 1002bce9     LIBCMT:utility.obj
 0003:00000cec       ?module_local_atexit_table@@3U_onexit_table_t@@A 1002bcec     LIBCMT:utility.obj
 0003:00000cf8       ?module_local_at_quick_exit_table@@3U_onexit_table_t@@A 1002bcf8     LIBCMT:utility.obj
 0003:00000d04       ?g_tss_cv@@3U_RTL_CONDITION_VARIABLE@@A 1002bd04     LIBCMT:thread_safe_statics.obj
 0003:00000d08       ?g_tss_event@@3PAXA        1002bd08     LIBCMT:thread_safe_statics.obj
 0003:00000d0c       ?g_tss_mutex@@3U_RTL_CRITICAL_SECTION@@A 1002bd0c     LIBCMT:thread_safe_statics.obj
 0003:00000d24       ?g_sleep_condition_variable_cs@@3P6GHPAU_RTL_CONDITION_VARIABLE@@PAU_RTL_CRITICAL_SECTION@@K@ZA 1002bd24     LIBCMT:thread_safe_statics.obj
 0003:00000d28       ?g_wake_all_condition_variable@@3P6GXPAU_RTL_CONDITION_VARIABLE@@@ZA 1002bd28     LIBCMT:thread_safe_statics.obj
 0003:00000d30       _GS_ExceptionRecord        1002bd30     LIBCMT:gs_report.obj
 0003:00000d80       _GS_ContextRecord          1002bd80     LIBCMT:gs_report.obj
 0003:00001050       ?__proc_attached@@3HA      1002c050     LIBCMT:dll_dllmain.obj
 0003:000010ac       ?AllocateData@@3P6GPAUAtlThunkData_t@@XZA 1002c0ac     atls:atlthunk.obj
 0003:000010b0       ?InitData@@3P6GXPAUAtlThunkData_t@@PAXI@ZA 1002c0b0     atls:atlthunk.obj
 0003:000010b4       ?DataToCode@@3P6GP6GJPAUHWND__@@IIJ@ZPAUAtlThunkData_t@@@ZA 1002c0b4     atls:atlthunk.obj
 0003:000010b8       ?FreeData@@3P6GXPAUAtlThunkData_t@@@ZA 1002c0b8     atls:atlthunk.obj
 0003:000010bc       ?Initialized@@3_NA         1002c0bc     atls:atlthunk.obj
 0003:000010cc       ?__vcrt_startup_thread_ptd@@3U__vcrt_ptd@@A 1002c0cc     libvcruntime:per_thread_data.obj
 0003:000010f4       ___vcrt_lock_table         1002c0f4     libvcruntime:locks.obj
 0003:0000110c       ___vcrt_locks_initialized  1002c10c     libvcruntime:locks.obj
 0003:00001138       ?heap@@3V_HeapManager@@A   1002c138     libvcruntime:undname.obj
 0003:0000114c       ?module_handles@@3PAPAUHINSTANCE__@@A 1002c14c     libvcruntime:winapi_downlevel.obj
 0003:00001158       ?function_pointers@@3PAPAXA 1002c158     libvcruntime:winapi_downlevel.obj
 0003:0000116c       ?__acrt_invalid_parameter_handler@@3V?$dual_state_global@P6AXPB_W00II@Z@__crt_state_management@@A 1002c16c     libucrt:invalid_parameter.obj
 0003:00001170       ?c_termination_complete@@3JA 1002c170     libucrt:exit.obj
 0003:00001174       ?thread_local_exit_callback_func@@3P6GXPAXK0@ZA 1002c174     libucrt:exit.obj
 0003:00001180       ?program_name@?1???$common_configure_argv@D@@YAHW4_crt_argv_mode@@@Z@4PADA 1002c180     libucrt:argv_parsing.obj
 0003:000012b0       ?__acrt_new_handler@@3V?$dual_state_global@P6AHI@Z@__crt_state_management@@A 1002c2b0     libucrt:new_handler.obj
 0003:000012b8       ?module_handles@@3PAPAUHINSTANCE__@@A 1002c2b8     libucrt:winapi_thunks.obj
 0003:00001308       ?encoded_function_pointers@@3PAPAXA 1002c308     libucrt:winapi_thunks.obj
 0003:00001390       ?internal_state@?1??_mbtowc_l@@9@4U_Mbstatet@@A 1002c390     libucrt:mbtowc.obj
 0003:000013a0       ?enable_percent_n@@3IA     1002c3a0     libucrt:printf_count_output.obj
 0003:000015c0       ?__acrt_lock_table@@3PAU_RTL_CRITICAL_SECTION@@A 1002c5c0     libucrt:locks.obj
 0003:00001710       ?__acrt_locks_initialized@@3IA 1002c710     libucrt:locks.obj
 0003:00001720       ?fSystemSet@@3HA           1002c720     libucrt:mbctype.obj
 0003:00001724       ?initialized@?1??__acrt_initialize_multibyte@@9@4_NA 1002c724     libucrt:mbctype.obj
 0003:00001744       ?ctrlc_action@@3V?$dual_state_global@P6AXH@Z@__crt_state_management@@A 1002c744     libucrt:signal.obj
 0003:00001748       ?ctrlbreak_action@@3V?$dual_state_global@P6AXH@Z@__crt_state_management@@A 1002c748     libucrt:signal.obj
 0003:0000174c       ?abort_action@@3V?$dual_state_global@P6AXH@Z@__crt_state_management@@A 1002c74c     libucrt:signal.obj
 0003:00001750       ?term_action@@3V?$dual_state_global@P6AXH@Z@__crt_state_management@@A 1002c750     libucrt:signal.obj
 0003:00001754       ?user_matherr@@3V?$dual_state_global@P6AHPAU_exception@@@Z@__crt_state_management@@A 1002c754     libucrt:matherr.obj
 0003:00001758       ?__acrt_global_new_mode@@3V?$dual_state_global@J@__crt_state_management@@A 1002c758     libucrt:new_mode.obj
 0003:00001764       ?internal_pst@?1??__mbrtoc32_utf8@__crt_mbstring@@YAIPA_UPBDIPAU_Mbstatet@@@Z@4U3@A 1002c764     libucrt:mbrtoc32.obj
 0003:0000176c       ?__acrt_app_type@@3W4_crt_app_type@@A 1002c76c     libucrt:report_runtime_error.obj
 0003:00001774       __pmatherr_set             1002c774     libucrt:libm_error.obj
 0004:00000220       $R000000                   1002d220     ElectronicValueRW.res
 0004:00000be0       $R0009C0                   1002dbe0     ElectronicValueRW.res
 0004:00000cc8       $R000AA8                   1002dcc8     ElectronicValueRW.res
 0004:00000f30       $R000D10                   1002df30     ElectronicValueRW.res
 0004:00001470       $R001250                   1002e470     ElectronicValueRW.res
 0004:00007f50       $R007D30                   10034f50     ElectronicValueRW.res
 0004:00007f98       $R007D78                   10034f98     ElectronicValueRW.res
